---
triple:          'x86_64-apple-darwin'
binary-path:     "/Users/justinlanouette/Chaos/ChaöS-Token/hello_world/target/release/deps/libsolana_frozen_abi_macro-f39383e055c786d5.dylib"
relocations:
  - { offsetInCU: 0x1E, offset: 0x1E, size: 0x8, addend: 0x0, symName: __ZN10proc_macro6bridge6client14HandleCounters3get17h2c76d49220b98e92E, symObjAddr: 0x0, symBinAddr: 0x2780, symSize: 0x10 }
  - { offsetInCU: 0x40, offset: 0x40, size: 0x8, addend: 0x0, symName: ___rustc_proc_macro_decls_f8f76989869f373d__, symObjAddr: 0x11440, symBinAddr: 0x2603C8, symSize: 0x0 }
  - { offsetInCU: 0x53, offset: 0x53, size: 0x8, addend: 0x0, symName: __ZN23solana_frozen_abi_macro18filter_serde_attrs13contains_skip17h56f5b5570bddb420E, symObjAddr: 0x9CE0, symBinAddr: 0xC460, symSize: 0x2C0 }
  - { offsetInCU: 0xE89, offset: 0xE89, size: 0x8, addend: 0x0, symName: __ZN23solana_frozen_abi_macro17derive_abi_sample17h0cc0fbf00340979eE, symObjAddr: 0x9FA0, symBinAddr: 0xC720, symSize: 0x1D00 }
  - { offsetInCU: 0x38AA, offset: 0x38AA, size: 0x8, addend: 0x0, symName: __ZN23solana_frozen_abi_macro23derive_abi_enum_visitor17h956af74cadf161f0E, symObjAddr: 0xBCA0, symBinAddr: 0xE420, symSize: 0x16D0 }
  - { offsetInCU: 0x59C1, offset: 0x59C1, size: 0x8, addend: 0x0, symName: __ZN23solana_frozen_abi_macro14quote_for_test17h10b8cea2b581dee4E, symObjAddr: 0xD370, symBinAddr: 0xFAF0, symSize: 0x1480 }
  - { offsetInCU: 0x65EF, offset: 0x65EF, size: 0x8, addend: 0x0, symName: __ZN23solana_frozen_abi_macro13test_mod_name17h01375156fa834da3E, symObjAddr: 0xE7F0, symBinAddr: 0x10F70, symSize: 0xD0 }
  - { offsetInCU: 0x6A9B, offset: 0x6A9B, size: 0x8, addend: 0x0, symName: __ZN23solana_frozen_abi_macro10frozen_abi17h08a43c751cbba064E, symObjAddr: 0xE8C0, symBinAddr: 0x11040, symSize: 0x9A4 }
  - { offsetInCU: 0xC10B, offset: 0xC10B, size: 0x8, addend: 0x0, symName: '__ZN4core3ptr100drop_in_place$LT$core..option..Option$LT$alloc..boxed..Box$LT$syn..path..GenericArgument$GT$$GT$$GT$17h79068b3f65a6d283E', symObjAddr: 0x10, symBinAddr: 0x2790, symSize: 0x50 }
  - { offsetInCU: 0xC2D8, offset: 0xC2D8, size: 0x8, addend: 0x0, symName: '__ZN4core3ptr102drop_in_place$LT$syn..punctuated..Punctuated$LT$syn..path..GenericArgument$C$syn..token..Comma$GT$$GT$17hda74076e6ee86baaE', symObjAddr: 0x60, symBinAddr: 0x27E0, symSize: 0xF0 }
  - { offsetInCU: 0xC5F8, offset: 0xC5F8, size: 0x8, addend: 0x0, symName: '__ZN4core3ptr103drop_in_place$LT$core..option..Option$LT$alloc..boxed..Box$LT$syn..generics..TypeParamBound$GT$$GT$$GT$17h6105af2c79dbf16bE', symObjAddr: 0x150, symBinAddr: 0x28D0, symSize: 0x50 }
  - { offsetInCU: 0xC8BD, offset: 0xC8BD, size: 0x8, addend: 0x0, symName: '__ZN4core3ptr103drop_in_place$LT$core..option..Option$LT$alloc..boxed..Box$LT$syn..generics..WherePredicate$GT$$GT$$GT$17h9d902dbadc24ba56E', symObjAddr: 0x1A0, symBinAddr: 0x2920, symSize: 0xD0 }
  - { offsetInCU: 0xCC51, offset: 0xCC51, size: 0x8, addend: 0x0, symName: '__ZN4core3ptr103drop_in_place$LT$syn..punctuated..Punctuated$LT$syn..generics..GenericParam$C$syn..token..Comma$GT$$GT$17h8fbe9cba6186870eE', symObjAddr: 0x270, symBinAddr: 0x29F0, symSize: 0xF0 }
  - { offsetInCU: 0xD14C, offset: 0xD14C, size: 0x8, addend: 0x0, symName: '__ZN4core3ptr104drop_in_place$LT$syn..punctuated..Punctuated$LT$syn..generics..TypeParamBound$C$syn..token..Plus$GT$$GT$17hbc10fd9715d427b4E', symObjAddr: 0x360, symBinAddr: 0x2AE0, symSize: 0x240 }
  - { offsetInCU: 0xDA07, offset: 0xDA07, size: 0x8, addend: 0x0, symName: '__ZN4core3ptr115drop_in_place$LT$core..option..Option$LT$$LP$alloc..boxed..Box$LT$syn..pat..Pat$GT$$C$syn..token..Colon$RP$$GT$$GT$17h2679e13935482030E', symObjAddr: 0x5A0, symBinAddr: 0x2D20, symSize: 0x50 }
  - { offsetInCU: 0xDBD5, offset: 0xDBD5, size: 0x8, addend: 0x0, symName: '__ZN4core3ptr115drop_in_place$LT$core..option..Option$LT$$LP$syn..token..Brace$C$alloc..vec..Vec$LT$syn..item..Item$GT$$RP$$GT$$GT$17ha651049c82c9df9eE', symObjAddr: 0x5F0, symBinAddr: 0x2D70, symSize: 0xD0 }
  - { offsetInCU: 0xDEEC, offset: 0xDEEC, size: 0x8, addend: 0x0, symName: '__ZN4core3ptr126drop_in_place$LT$core..option..Option$LT$$LP$syn..token..And$C$core..option..Option$LT$syn..lifetime..Lifetime$GT$$RP$$GT$$GT$17h9cba54cd213fd296E', symObjAddr: 0x6C0, symBinAddr: 0x2E40, symSize: 0x30 }
  - { offsetInCU: 0xE0FF, offset: 0xE0FF, size: 0x8, addend: 0x0, symName: '__ZN4core3ptr34drop_in_place$LT$syn..lit..Lit$GT$17hdfd6ce7ed6ba0a80E', symObjAddr: 0x6F0, symBinAddr: 0x2E70, symSize: 0x120 }
  - { offsetInCU: 0xE5CE, offset: 0xE5CE, size: 0x8, addend: 0x0, symName: '__ZN4core3ptr34drop_in_place$LT$syn..pat..Pat$GT$17h83c07ae8bb068e9dE', symObjAddr: 0x810, symBinAddr: 0x2F90, symSize: 0xF40 }
  - { offsetInCU: 0x12075, offset: 0x12075, size: 0x8, addend: 0x0, symName: '__ZN4core3ptr34drop_in_place$LT$syn..ty..Type$GT$17hc7244d5890888a37E', symObjAddr: 0x1750, symBinAddr: 0x3ED0, symSize: 0x580 }
  - { offsetInCU: 0x138FE, offset: 0x138FE, size: 0x8, addend: 0x0, symName: '__ZN4core3ptr36drop_in_place$LT$syn..expr..Expr$GT$17hf50a31c415a65710E', symObjAddr: 0x1CD0, symBinAddr: 0x4450, symSize: 0x2730 }
  - { offsetInCU: 0x1D15D, offset: 0x1D15D, size: 0x8, addend: 0x0, symName: '__ZN4core3ptr36drop_in_place$LT$syn..item..Item$GT$17hf8ead91acba9703aE', symObjAddr: 0x4400, symBinAddr: 0x6B80, symSize: 0x1410 }
  - { offsetInCU: 0x21DB8, offset: 0x21DB8, size: 0x8, addend: 0x0, symName: '__ZN4core3ptr36drop_in_place$LT$syn..mac..Macro$GT$17h71d54b4cf4025904E', symObjAddr: 0x5810, symBinAddr: 0x7F90, symSize: 0xE0 }
  - { offsetInCU: 0x22142, offset: 0x22142, size: 0x8, addend: 0x0, symName: '__ZN4core3ptr36drop_in_place$LT$syn..path..Path$GT$17h41d4f4933b224aa4E', symObjAddr: 0x58F0, symBinAddr: 0x8070, symSize: 0x240 }
  - { offsetInCU: 0x22ADC, offset: 0x22ADC, size: 0x8, addend: 0x0, symName: '__ZN4core3ptr37drop_in_place$LT$syn..stmt..Block$GT$17h195dab821d86e03cE', symObjAddr: 0x5B30, symBinAddr: 0x82B0, symSize: 0xD0 }
  - { offsetInCU: 0x22DD2, offset: 0x22DD2, size: 0x8, addend: 0x0, symName: '__ZN4core3ptr38drop_in_place$LT$syn..data..Fields$GT$17hc2d26fd736df0c98E', symObjAddr: 0x5C00, symBinAddr: 0x8380, symSize: 0x190 }
  - { offsetInCU: 0x2325A, offset: 0x2325A, size: 0x8, addend: 0x0, symName: '__ZN4core3ptr38drop_in_place$LT$syn..error..Error$GT$17hfc360f879da0b124E', symObjAddr: 0x5D90, symBinAddr: 0x8510, symSize: 0x90 }
  - { offsetInCU: 0x23508, offset: 0x23508, size: 0x8, addend: 0x0, symName: '__ZN4core3ptr38drop_in_place$LT$syn..expr..Member$GT$17h8d878462faa898c3E', symObjAddr: 0x5E20, symBinAddr: 0x85A0, symSize: 0x30 }
  - { offsetInCU: 0x2371B, offset: 0x2371B, size: 0x8, addend: 0x0, symName: '__ZN4core3ptr39drop_in_place$LT$proc_macro2..Group$GT$17hfc39b37ed4ca4317E', symObjAddr: 0x5E50, symBinAddr: 0x85D0, symSize: 0x60 }
  - { offsetInCU: 0x23867, offset: 0x23867, size: 0x8, addend: 0x0, symName: '__ZN4core3ptr39drop_in_place$LT$proc_macro2..Ident$GT$17hfddcb13090b7465eE', symObjAddr: 0x5EB0, symBinAddr: 0x8630, symSize: 0x30 }
  - { offsetInCU: 0x23A5B, offset: 0x23A5B, size: 0x8, addend: 0x0, symName: '__ZN4core3ptr39drop_in_place$LT$syn..item..UseTree$GT$17h6da2a59945432469E', symObjAddr: 0x5EE0, symBinAddr: 0x8660, symSize: 0x1E0 }
  - { offsetInCU: 0x241E9, offset: 0x241E9, size: 0x8, addend: 0x0, symName: '__ZN4core3ptr40drop_in_place$LT$syn..item..ItemEnum$GT$17h02033cb77464523dE', symObjAddr: 0x60C0, symBinAddr: 0x8840, symSize: 0x240 }
  - { offsetInCU: 0x24A2F, offset: 0x24A2F, size: 0x8, addend: 0x0, symName: '__ZN4core3ptr40drop_in_place$LT$syn..item..ItemType$GT$17h01e0c0d77222eb05E', symObjAddr: 0x6300, symBinAddr: 0x8A80, symSize: 0x1C0 }
  - { offsetInCU: 0x250BC, offset: 0x250BC, size: 0x8, addend: 0x0, symName: '__ZN4core3ptr40drop_in_place$LT$syn..ty..ReturnType$GT$17hd05e1b426b4e9c43E', symObjAddr: 0x64C0, symBinAddr: 0x8C40, symSize: 0x50 }
  - { offsetInCU: 0x2522C, offset: 0x2522C, size: 0x8, addend: 0x0, symName: '__ZN4core3ptr41drop_in_place$LT$syn..expr..ExprConst$GT$17h0116f0cfd7172504E', symObjAddr: 0x6510, symBinAddr: 0x8C90, symSize: 0x180 }
  - { offsetInCU: 0x25842, offset: 0x25842, size: 0x8, addend: 0x0, symName: '__ZN4core3ptr41drop_in_place$LT$syn..item..Signature$GT$17ha0d57d948dab7f00E', symObjAddr: 0x6690, symBinAddr: 0x8E10, symSize: 0x230 }
  - { offsetInCU: 0x260E1, offset: 0x260E1, size: 0x8, addend: 0x0, symName: '__ZN4core3ptr42drop_in_place$LT$syn..item..ItemStruct$GT$17heaccfa02354327adE', symObjAddr: 0x68C0, symBinAddr: 0x9040, symSize: 0x190 }
  - { offsetInCU: 0x26644, offset: 0x26644, size: 0x8, addend: 0x0, symName: '__ZN4core3ptr43drop_in_place$LT$proc_macro2..TokenTree$GT$17hc75a36284659d149E', symObjAddr: 0x6A50, symBinAddr: 0x91D0, symSize: 0xB0 }
  - { offsetInCU: 0x2699F, offset: 0x2699F, size: 0x8, addend: 0x0, symName: '__ZN4core3ptr43drop_in_place$LT$syn..data..FieldsNamed$GT$17h09d2ee38404a5e04E', symObjAddr: 0x6B00, symBinAddr: 0x9280, symSize: 0xE0 }
  - { offsetInCU: 0x26CC5, offset: 0x26CC5, size: 0x8, addend: 0x0, symName: '__ZN4core3ptr44drop_in_place$LT$syn..generics..Generics$GT$17h108ee9e6f21bd346E', symObjAddr: 0x6BE0, symBinAddr: 0x9360, symSize: 0x40 }
  - { offsetInCU: 0x26CE2, offset: 0x26CE2, size: 0x8, addend: 0x0, symName: '__ZN4core3ptr44drop_in_place$LT$syn..lifetime..Lifetime$GT$17h6230756a841f0187E', symObjAddr: 0x6C20, symBinAddr: 0x93A0, symSize: 0x30 }
  - { offsetInCU: 0x26E79, offset: 0x26E79, size: 0x8, addend: 0x0, symName: '__ZN4core3ptr45drop_in_place$LT$proc_macro2..TokenStream$GT$17h2ec36cca4b774820E', symObjAddr: 0x6C50, symBinAddr: 0x93D0, symSize: 0x140 }
  - { offsetInCU: 0x27313, offset: 0x27313, size: 0x8, addend: 0x0, symName: '__ZN4core3ptr45drop_in_place$LT$syn..generics..TypeParam$GT$17h9d20c0be98b01247E', symObjAddr: 0x6D90, symBinAddr: 0x9510, symSize: 0x230 }
  - { offsetInCU: 0x27B54, offset: 0x27B54, size: 0x8, addend: 0x0, symName: '__ZN4core3ptr46drop_in_place$LT$syn..generics..ConstParam$GT$17h51f432478005868aE', symObjAddr: 0x6FC0, symBinAddr: 0x9740, symSize: 0x150 }
  - { offsetInCU: 0x27FA1, offset: 0x27FA1, size: 0x8, addend: 0x0, symName: '__ZN4core3ptr47drop_in_place$LT$syn..path..GenericArgument$GT$17hcfca7f13f81d5c1eE', symObjAddr: 0x7110, symBinAddr: 0x9890, symSize: 0x450 }
  - { offsetInCU: 0x28D17, offset: 0x28D17, size: 0x8, addend: 0x0, symName: '__ZN4core3ptr49drop_in_place$LT$syn..generics..LifetimeParam$GT$17h62c708931905b6c9E', symObjAddr: 0x7560, symBinAddr: 0x9CE0, symSize: 0xF0 }
  - { offsetInCU: 0x290FA, offset: 0x290FA, size: 0x8, addend: 0x0, symName: '__ZN4core3ptr49drop_in_place$LT$syn..restriction..Visibility$GT$17h4811a15d72e0452fE', symObjAddr: 0x7650, symBinAddr: 0x9DD0, symSize: 0x60 }
  - { offsetInCU: 0x2926B, offset: 0x2926B, size: 0x8, addend: 0x0, symName: '__ZN4core3ptr50drop_in_place$LT$syn..generics..TypeParamBound$GT$17h0e46ecd98a045134E', symObjAddr: 0x76B0, symBinAddr: 0x9E30, symSize: 0xA0 }
  - { offsetInCU: 0x2946C, offset: 0x2946C, size: 0x8, addend: 0x0, symName: '__ZN4core3ptr56drop_in_place$LT$proc_macro2..token_stream..IntoIter$GT$17h8454fd931d5fdda6E', symObjAddr: 0x7750, symBinAddr: 0x9ED0, symSize: 0x20 }
  - { offsetInCU: 0x2951C, offset: 0x2951C, size: 0x8, addend: 0x0, symName: '__ZN4core3ptr58drop_in_place$LT$alloc..vec..Vec$LT$syn..expr..Arm$GT$$GT$17h01078ebe5a85e687E', symObjAddr: 0x7770, symBinAddr: 0x9EF0, symSize: 0xD0 }
  - { offsetInCU: 0x297DC, offset: 0x297DC, size: 0x8, addend: 0x0, symName: '__ZN4core3ptr59drop_in_place$LT$alloc..boxed..Box$LT$syn..pat..Pat$GT$$GT$17hc3b2199e3d116abfE', symObjAddr: 0x7840, symBinAddr: 0x9FC0, symSize: 0x50 }
  - { offsetInCU: 0x29935, offset: 0x29935, size: 0x8, addend: 0x0, symName: '__ZN4core3ptr59drop_in_place$LT$alloc..boxed..Box$LT$syn..ty..Type$GT$$GT$17he0a2a879fb80c64aE', symObjAddr: 0x7890, symBinAddr: 0xA010, symSize: 0x50 }
  - { offsetInCU: 0x29A8E, offset: 0x29A8E, size: 0x8, addend: 0x0, symName: '__ZN4core3ptr61drop_in_place$LT$alloc..boxed..Box$LT$syn..expr..Expr$GT$$GT$17h3e09e56e3b8a0adaE', symObjAddr: 0x78E0, symBinAddr: 0xA060, symSize: 0x50 }
  - { offsetInCU: 0x29BE7, offset: 0x29BE7, size: 0x8, addend: 0x0, symName: '__ZN4core3ptr61drop_in_place$LT$syn..path..ParenthesizedGenericArguments$GT$17h0b1955e54d647201E', symObjAddr: 0x7930, symBinAddr: 0xA0B0, symSize: 0x170 }
  - { offsetInCU: 0x2A1F0, offset: 0x2A1F0, size: 0x8, addend: 0x0, symName: '__ZN4core3ptr62drop_in_place$LT$alloc..boxed..Box$LT$syn..stmt..Block$GT$$GT$17h7af2987210add2fbE', symObjAddr: 0x7AA0, symBinAddr: 0xA220, symSize: 0xE0 }
  - { offsetInCU: 0x2A5FE, offset: 0x2A5FE, size: 0x8, addend: 0x0, symName: '__ZN4core3ptr63drop_in_place$LT$alloc..boxed..Box$LT$syn..lit..LitRepr$GT$$GT$17h7787758ecda52ad2E', symObjAddr: 0x7B80, symBinAddr: 0xA300, symSize: 0x60 }
  - { offsetInCU: 0x2A8C7, offset: 0x2A8C7, size: 0x8, addend: 0x0, symName: '__ZN4core3ptr63drop_in_place$LT$alloc..vec..Vec$LT$syn..item..ImplItem$GT$$GT$17h36e92ade00d8cb8eE', symObjAddr: 0x7BE0, symBinAddr: 0xA360, symSize: 0x80 }
  - { offsetInCU: 0x2AB7F, offset: 0x2AB7F, size: 0x8, addend: 0x0, symName: '__ZN4core3ptr64drop_in_place$LT$alloc..boxed..Box$LT$syn..item..UseTree$GT$$GT$17haf58ab2480acf2aeE', symObjAddr: 0x7C60, symBinAddr: 0xA3E0, symSize: 0x50 }
  - { offsetInCU: 0x2AD16, offset: 0x2AD16, size: 0x8, addend: 0x0, symName: '__ZN4core3ptr64drop_in_place$LT$alloc..boxed..Box$LT$syn..pat..FieldPat$GT$$GT$17hd89ed2533ebe6692E', symObjAddr: 0x7CB0, symBinAddr: 0xA430, symSize: 0x140 }
  - { offsetInCU: 0x2B3E3, offset: 0x2B3E3, size: 0x8, addend: 0x0, symName: '__ZN4core3ptr64drop_in_place$LT$alloc..boxed..Box$LT$syn..ty..BareFnArg$GT$$GT$17h4b707abec52795d6E', symObjAddr: 0x7DF0, symBinAddr: 0xA570, symSize: 0x140 }
  - { offsetInCU: 0x2B938, offset: 0x2B938, size: 0x8, addend: 0x0, symName: '__ZN4core3ptr64drop_in_place$LT$alloc..vec..Vec$LT$syn..attr..Attribute$GT$$GT$17h40498ad5f1a4e586E', symObjAddr: 0x7F30, symBinAddr: 0xA6B0, symSize: 0xD0 }
  - { offsetInCU: 0x2BBF8, offset: 0x2BBF8, size: 0x8, addend: 0x0, symName: '__ZN4core3ptr64drop_in_place$LT$alloc..vec..Vec$LT$syn..item..TraitItem$GT$$GT$17hd21646cc7f5e9866E', symObjAddr: 0x8000, symBinAddr: 0xA780, symSize: 0x80 }
  - { offsetInCU: 0x2BEB0, offset: 0x2BEB0, size: 0x8, addend: 0x0, symName: '__ZN4core3ptr65drop_in_place$LT$alloc..vec..Vec$LT$proc_macro..TokenTree$GT$$GT$17h46e198de6234e700E', symObjAddr: 0x8080, symBinAddr: 0xA800, symSize: 0x110 }
  - { offsetInCU: 0x2C2A8, offset: 0x2C2A8, size: 0x8, addend: 0x0, symName: '__ZN4core3ptr65drop_in_place$LT$core..option..Option$LT$syn..expr..Label$GT$$GT$17h4ee09cf72cdeb66aE', symObjAddr: 0x8190, symBinAddr: 0xA910, symSize: 0x30 }
  - { offsetInCU: 0x2C3E2, offset: 0x2C3E2, size: 0x8, addend: 0x0, symName: '__ZN4core3ptr66drop_in_place$LT$alloc..vec..Vec$LT$syn..item..ForeignItem$GT$$GT$17hecca36c263ca2dadE', symObjAddr: 0x81C0, symBinAddr: 0xA940, symSize: 0x80 }
  - { offsetInCU: 0x2C69A, offset: 0x2C69A, size: 0x8, addend: 0x0, symName: '__ZN4core3ptr66drop_in_place$LT$core..option..Option$LT$syn..pat..PatRest$GT$$GT$17hb4ee49c6cec7ff2cE', symObjAddr: 0x8240, symBinAddr: 0xA9C0, symSize: 0xE0 }
  - { offsetInCU: 0x2C98E, offset: 0x2C98E, size: 0x8, addend: 0x0, symName: '__ZN4core3ptr67drop_in_place$LT$alloc..boxed..Box$LT$syn..expr..FieldValue$GT$$GT$17h15dcfd22497e7876E', symObjAddr: 0x8320, symBinAddr: 0xAAA0, symSize: 0x140 }
  - { offsetInCU: 0x2CF01, offset: 0x2CF01, size: 0x8, addend: 0x0, symName: '__ZN4core3ptr68drop_in_place$LT$core..option..Option$LT$syn..item..Variadic$GT$$GT$17h285fcb0555c91f10E', symObjAddr: 0x8460, symBinAddr: 0xABE0, symSize: 0x120 }
  - { offsetInCU: 0x2D381, offset: 0x2D381, size: 0x8, addend: 0x0, symName: '__ZN4core3ptr70drop_in_place$LT$core..option..Option$LT$syn..ty..BareVariadic$GT$$GT$17hee471d3d0e0874a7E', symObjAddr: 0x8580, symBinAddr: 0xAD00, symSize: 0x100 }
  - { offsetInCU: 0x2D7B8, offset: 0x2D7B8, size: 0x8, addend: 0x0, symName: '__ZN4core3ptr72drop_in_place$LT$alloc..boxed..Box$LT$syn..path..GenericArgument$GT$$GT$17h6a6d601726a47735E', symObjAddr: 0x8680, symBinAddr: 0xAE00, symSize: 0x2B0 }
  - { offsetInCU: 0x2E1C9, offset: 0x2E1C9, size: 0x8, addend: 0x0, symName: '__ZN4core3ptr72drop_in_place$LT$core..option..Option$LT$syn..lifetime..Lifetime$GT$$GT$17hca91fdfa0b190fe5E', symObjAddr: 0x8930, symBinAddr: 0xB0B0, symSize: 0x30 }
  - { offsetInCU: 0x2E2E4, offset: 0x2E2E4, size: 0x8, addend: 0x0, symName: '__ZN4core3ptr73drop_in_place$LT$alloc..boxed..Box$LT$syn..generics..GenericParam$GT$$GT$17hb39646a8590c81fbE', symObjAddr: 0x8960, symBinAddr: 0xB0E0, symSize: 0x80 }
  - { offsetInCU: 0x2E45A, offset: 0x2E45A, size: 0x8, addend: 0x0, symName: '__ZN4core3ptr75drop_in_place$LT$alloc..boxed..Box$LT$syn..generics..TypeParamBound$GT$$GT$17h53bdca6305f2cf16E', symObjAddr: 0x89E0, symBinAddr: 0xB160, symSize: 0x180 }
  - { offsetInCU: 0x2EA65, offset: 0x2EA65, size: 0x8, addend: 0x0, symName: '__ZN4core3ptr75drop_in_place$LT$core..option..Option$LT$syn..generics..WhereClause$GT$$GT$17h60f56b26134a7147E', symObjAddr: 0x8B60, symBinAddr: 0xB2E0, symSize: 0x90 }
  - { offsetInCU: 0x2ED59, offset: 0x2ED59, size: 0x8, addend: 0x0, symName: '__ZN4core3ptr86drop_in_place$LT$syn..punctuated..Punctuated$LT$syn..pat..Pat$C$syn..token..Or$GT$$GT$17h90b450e7ece0e32cE', symObjAddr: 0x8BF0, symBinAddr: 0xB370, symSize: 0x120 }
  - { offsetInCU: 0x2F1D4, offset: 0x2F1D4, size: 0x8, addend: 0x0, symName: '__ZN4core3ptr87drop_in_place$LT$core..option..Option$LT$alloc..boxed..Box$LT$syn..pat..Pat$GT$$GT$$GT$17hdc6dfb7b8fcacd92E', symObjAddr: 0x8D10, symBinAddr: 0xB490, symSize: 0x50 }
  - { offsetInCU: 0x2F344, offset: 0x2F344, size: 0x8, addend: 0x0, symName: '__ZN4core3ptr87drop_in_place$LT$core..option..Option$LT$alloc..boxed..Box$LT$syn..ty..Type$GT$$GT$$GT$17h4b51756b645a661fE', symObjAddr: 0x8D60, symBinAddr: 0xB4E0, symSize: 0x50 }
  - { offsetInCU: 0x2F4B4, offset: 0x2F4B4, size: 0x8, addend: 0x0, symName: '__ZN4core3ptr89drop_in_place$LT$core..option..Option$LT$alloc..boxed..Box$LT$syn..expr..Expr$GT$$GT$$GT$17h024369101b73da85E', symObjAddr: 0x8DB0, symBinAddr: 0xB530, symSize: 0x50 }
  - { offsetInCU: 0x2F662, offset: 0x2F662, size: 0x8, addend: 0x0, symName: '__ZN4core3ptr89drop_in_place$LT$syn..punctuated..Punctuated$LT$syn..pat..Pat$C$syn..token..Comma$GT$$GT$17hd5461753b18fcbecE', symObjAddr: 0x8E00, symBinAddr: 0xB580, symSize: 0x120 }
  - { offsetInCU: 0x2FB32, offset: 0x2FB32, size: 0x8, addend: 0x0, symName: '__ZN4core3ptr90drop_in_place$LT$core..option..Option$LT$alloc..boxed..Box$LT$syn..data..Field$GT$$GT$$GT$17h0b3d4c1b898fbde8E', symObjAddr: 0x8F20, symBinAddr: 0xB6A0, symSize: 0x1B0 }
  - { offsetInCU: 0x3024D, offset: 0x3024D, size: 0x8, addend: 0x0, symName: '__ZN4core3ptr90drop_in_place$LT$core..option..Option$LT$alloc..boxed..Box$LT$syn..item..FnArg$GT$$GT$$GT$17hd07eef081422e57eE', symObjAddr: 0x90D0, symBinAddr: 0xB850, symSize: 0x250 }
  - { offsetInCU: 0x30C7B, offset: 0x30C7B, size: 0x8, addend: 0x0, symName: '__ZN4core3ptr91drop_in_place$LT$syn..punctuated..Punctuated$LT$syn..expr..Expr$C$syn..token..Comma$GT$$GT$17hd1b87278b89f2cc0E', symObjAddr: 0x9320, symBinAddr: 0xBAA0, symSize: 0x120 }
  - { offsetInCU: 0x31109, offset: 0x31109, size: 0x8, addend: 0x0, symName: '__ZN4core3ptr92drop_in_place$LT$core..option..Option$LT$$LP$syn..token..As$C$proc_macro2..Ident$RP$$GT$$GT$17h39eba8387fb14a41E', symObjAddr: 0x9440, symBinAddr: 0xBBC0, symSize: 0x30 }
  - { offsetInCU: 0x312A0, offset: 0x312A0, size: 0x8, addend: 0x0, symName: '__ZN4core3ptr92drop_in_place$LT$core..option..Option$LT$alloc..boxed..Box$LT$syn..data..Variant$GT$$GT$$GT$17h19780cd6ae936f7cE', symObjAddr: 0x9470, symBinAddr: 0xBBF0, symSize: 0x170 }
  - { offsetInCU: 0x3183B, offset: 0x3183B, size: 0x8, addend: 0x0, symName: '__ZN4core3ptr92drop_in_place$LT$syn..punctuated..Punctuated$LT$syn..item..FnArg$C$syn..token..Comma$GT$$GT$17h5a06f0a8947eea16E', symObjAddr: 0x95E0, symBinAddr: 0xBD60, symSize: 0xE0 }
  - { offsetInCU: 0x31B36, offset: 0x31B36, size: 0x8, addend: 0x0, symName: '__ZN4core3ptr94drop_in_place$LT$syn..punctuated..Punctuated$LT$syn..data..Variant$C$syn..token..Comma$GT$$GT$17hf89ea874db736761E', symObjAddr: 0x96C0, symBinAddr: 0xBE40, symSize: 0xE0 }
  - { offsetInCU: 0x31E39, offset: 0x31E39, size: 0x8, addend: 0x0, symName: '__ZN4core3ptr94drop_in_place$LT$syn..punctuated..Punctuated$LT$syn..pat..FieldPat$C$syn..token..Comma$GT$$GT$17h261f070161247cbbE', symObjAddr: 0x97A0, symBinAddr: 0xBF20, symSize: 0xF0 }
  - { offsetInCU: 0x32138, offset: 0x32138, size: 0x8, addend: 0x0, symName: '__ZN4core3ptr94drop_in_place$LT$syn..punctuated..Punctuated$LT$syn..ty..BareFnArg$C$syn..token..Comma$GT$$GT$17h6f1b028eed5acd19E', symObjAddr: 0x9890, symBinAddr: 0xC010, symSize: 0xF0 }
  - { offsetInCU: 0x32439, offset: 0x32439, size: 0x8, addend: 0x0, symName: '__ZN4core3ptr96drop_in_place$LT$core..option..Option$LT$alloc..boxed..Box$LT$syn..path..PathSegment$GT$$GT$$GT$17h9728ba401e7d1bd9E', symObjAddr: 0x9980, symBinAddr: 0xC100, symSize: 0x1A0 }
  - { offsetInCU: 0x32AFA, offset: 0x32AFA, size: 0x8, addend: 0x0, symName: '__ZN4core3ptr97drop_in_place$LT$syn..punctuated..Punctuated$LT$syn..expr..FieldValue$C$syn..token..Comma$GT$$GT$17hff5eb09736982b92E', symObjAddr: 0x9B20, symBinAddr: 0xC2A0, symSize: 0xF0 }
  - { offsetInCU: 0x32E73, offset: 0x32E73, size: 0x8, addend: 0x0, symName: '__ZN4core3ptr98drop_in_place$LT$syn..punctuated..Punctuated$LT$syn..lifetime..Lifetime$C$syn..token..Plus$GT$$GT$17ha4c1312ea9e80a0aE', symObjAddr: 0x9C10, symBinAddr: 0xC390, symSize: 0xD0 }
  - { offsetInCU: 0x342CD, offset: 0x342CD, size: 0x8, addend: 0x0, symName: __ZN10proc_macro6bridge6client14HandleCounters3get17h2c76d49220b98e92E, symObjAddr: 0x0, symBinAddr: 0x2780, symSize: 0x10 }
  - { offsetInCU: 0x1E, offset: 0x426C0, size: 0x8, addend: 0x0, symName: '__ZN48_$LT$T$u20$as$u20$core..clone..CloneToUninit$GT$15clone_to_uninit17h43cfd2dc0838c448E', symObjAddr: 0x0, symBinAddr: 0x119F0, symSize: 0x330 }
  - { offsetInCU: 0x35, offset: 0x426D7, size: 0x8, addend: 0x0, symName: _anon.a53420af6d64777a32d98213c369d2b7.0.llvm.14063226454159989703, symObjAddr: 0xF270, symBinAddr: 0x2603D8, symSize: 0x0 }
  - { offsetInCU: 0x109, offset: 0x427AB, size: 0x8, addend: 0x0, symName: '__ZN58_$LT$alloc..string..String$u20$as$u20$core..fmt..Write$GT$10write_char17h04bc467bd68a934bE.llvm.14063226454159989703', symObjAddr: 0xC560, symBinAddr: 0x1DF00, symSize: 0x140 }
  - { offsetInCU: 0x50E, offset: 0x42BB0, size: 0x8, addend: 0x0, symName: '__ZN58_$LT$alloc..string..String$u20$as$u20$core..fmt..Write$GT$9write_str17h46a93205c3443fbaE.llvm.14063226454159989703', symObjAddr: 0xC6A0, symBinAddr: 0x1E040, symSize: 0x60 }
  - { offsetInCU: 0x927, offset: 0x42FC9, size: 0x8, addend: 0x0, symName: '__ZN67_$LT$alloc..vec..Vec$LT$T$C$A$GT$$u20$as$u20$core..clone..Clone$GT$5clone17hfde7c38abf452bd2E', symObjAddr: 0xC990, symBinAddr: 0x1E330, symSize: 0x140 }
  - { offsetInCU: 0x1AF2, offset: 0x44194, size: 0x8, addend: 0x0, symName: '__ZN70_$LT$alloc..vec..Vec$LT$T$C$A$GT$$u20$as$u20$core..ops..drop..Drop$GT$4drop17h1eafbcbd75ae5568E', symObjAddr: 0xCCA0, symBinAddr: 0x1E470, symSize: 0xB0 }
  - { offsetInCU: 0x1B54, offset: 0x441F6, size: 0x8, addend: 0x0, symName: '__ZN70_$LT$alloc..vec..Vec$LT$T$C$A$GT$$u20$as$u20$core..ops..drop..Drop$GT$4drop17h5e27059dd5c3c147E', symObjAddr: 0xCED0, symBinAddr: 0x1E520, symSize: 0xB0 }
  - { offsetInCU: 0x1D83, offset: 0x44425, size: 0x8, addend: 0x0, symName: '__ZN5alloc3vec16Vec$LT$T$C$A$GT$6retain28_$u7b$$u7b$closure$u7d$$u7d$17h96ed26bf51bc694cE.llvm.14063226454159989703', symObjAddr: 0xC850, symBinAddr: 0x1E1F0, symSize: 0x140 }
  - { offsetInCU: 0x4E61, offset: 0x47503, size: 0x8, addend: 0x0, symName: '__ZN4core3ptr100drop_in_place$LT$core..option..Option$LT$alloc..boxed..Box$LT$syn..path..GenericArgument$GT$$GT$$GT$17h79068b3f65a6d283E', symObjAddr: 0x330, symBinAddr: 0x11D20, symSize: 0x50 }
  - { offsetInCU: 0x51A2, offset: 0x47844, size: 0x8, addend: 0x0, symName: '__ZN4core3ptr100drop_in_place$LT$syn..punctuated..Punctuated$LT$syn..path..PathSegment$C$syn..token..PathSep$GT$$GT$17hed131d4a61f0fa7bE.llvm.14063226454159989703', symObjAddr: 0x380, symBinAddr: 0x11D70, symSize: 0x1C0 }
  - { offsetInCU: 0x585F, offset: 0x47F01, size: 0x8, addend: 0x0, symName: '__ZN4core3ptr101drop_in_place$LT$core..option..Option$LT$alloc..boxed..Box$LT$syn..generics..GenericParam$GT$$GT$$GT$17hd348c36bf72ed680E', symObjAddr: 0x540, symBinAddr: 0x11F30, symSize: 0x50 }
  - { offsetInCU: 0x5A4B, offset: 0x480ED, size: 0x8, addend: 0x0, symName: '__ZN4core3ptr102drop_in_place$LT$syn..punctuated..Punctuated$LT$syn..path..GenericArgument$C$syn..token..Comma$GT$$GT$17hda74076e6ee86baaE.llvm.14063226454159989703', symObjAddr: 0x590, symBinAddr: 0x11F80, symSize: 0xF0 }
  - { offsetInCU: 0x5D72, offset: 0x48414, size: 0x8, addend: 0x0, symName: '__ZN4core3ptr103drop_in_place$LT$core..option..Option$LT$alloc..boxed..Box$LT$syn..generics..TypeParamBound$GT$$GT$$GT$17h6105af2c79dbf16bE.llvm.14063226454159989703', symObjAddr: 0x680, symBinAddr: 0x12070, symSize: 0x50 }
  - { offsetInCU: 0x5F01, offset: 0x485A3, size: 0x8, addend: 0x0, symName: '__ZN4core3ptr103drop_in_place$LT$core..option..Option$LT$alloc..boxed..Box$LT$syn..generics..WherePredicate$GT$$GT$$GT$17h9d902dbadc24ba56E', symObjAddr: 0x6D0, symBinAddr: 0x120C0, symSize: 0x50 }
  - { offsetInCU: 0x612B, offset: 0x487CD, size: 0x8, addend: 0x0, symName: '__ZN4core3ptr103drop_in_place$LT$syn..punctuated..Punctuated$LT$syn..generics..GenericParam$C$syn..token..Comma$GT$$GT$17h8fbe9cba6186870eE.llvm.14063226454159989703', symObjAddr: 0x720, symBinAddr: 0x12110, symSize: 0x1A0 }
  - { offsetInCU: 0x6732, offset: 0x48DD4, size: 0x8, addend: 0x0, symName: '__ZN4core3ptr104drop_in_place$LT$syn..punctuated..Punctuated$LT$syn..generics..TypeParamBound$C$syn..token..Plus$GT$$GT$17hbc10fd9715d427b4E.llvm.14063226454159989703', symObjAddr: 0x8C0, symBinAddr: 0x122B0, symSize: 0x240 }
  - { offsetInCU: 0x70CA, offset: 0x4976C, size: 0x8, addend: 0x0, symName: '__ZN4core3ptr105drop_in_place$LT$syn..punctuated..Punctuated$LT$syn..generics..WherePredicate$C$syn..token..Comma$GT$$GT$17h5209fa8428c6edf5E', symObjAddr: 0xB00, symBinAddr: 0x124F0, symSize: 0x1A0 }
  - { offsetInCU: 0x77D9, offset: 0x49E7B, size: 0x8, addend: 0x0, symName: '__ZN4core3ptr116drop_in_place$LT$core..option..Option$LT$$LP$syn..token..Else$C$alloc..boxed..Box$LT$syn..expr..Expr$GT$$RP$$GT$$GT$17hb845e466e3ab3abfE', symObjAddr: 0xCA0, symBinAddr: 0x12690, symSize: 0x50 }
  - { offsetInCU: 0x799E, offset: 0x4A040, size: 0x8, addend: 0x0, symName: '__ZN4core3ptr126drop_in_place$LT$core..option..Option$LT$$LP$syn..token..And$C$core..option..Option$LT$syn..lifetime..Lifetime$GT$$RP$$GT$$GT$17h9cba54cd213fd296E', symObjAddr: 0xCF0, symBinAddr: 0x126E0, symSize: 0x30 }
  - { offsetInCU: 0x7C2D, offset: 0x4A2CF, size: 0x8, addend: 0x0, symName: '__ZN4core3ptr33drop_in_place$LT$syn..ty..Abi$GT$17h1c50f91f40ac62bcE', symObjAddr: 0xD20, symBinAddr: 0x12710, symSize: 0x70 }
  - { offsetInCU: 0x7C49, offset: 0x4A2EB, size: 0x8, addend: 0x0, symName: '__ZN4core3ptr33drop_in_place$LT$syn..ty..Abi$GT$17h1c50f91f40ac62bcE', symObjAddr: 0xD20, symBinAddr: 0x12710, symSize: 0x70 }
  - { offsetInCU: 0x7F21, offset: 0x4A5C3, size: 0x8, addend: 0x0, symName: '__ZN4core3ptr34drop_in_place$LT$syn..lit..Lit$GT$17hdfd6ce7ed6ba0a80E', symObjAddr: 0xD90, symBinAddr: 0x12780, symSize: 0x120 }
  - { offsetInCU: 0x83F0, offset: 0x4AA92, size: 0x8, addend: 0x0, symName: '__ZN4core3ptr34drop_in_place$LT$syn..pat..Pat$GT$17h83c07ae8bb068e9dE.llvm.14063226454159989703', symObjAddr: 0xEB0, symBinAddr: 0x128A0, symSize: 0xA90 }
  - { offsetInCU: 0xBC6E, offset: 0x4E310, size: 0x8, addend: 0x0, symName: '__ZN4core3ptr34drop_in_place$LT$syn..ty..Type$GT$17hc7244d5890888a37E.llvm.14063226454159989703', symObjAddr: 0x1940, symBinAddr: 0x13330, symSize: 0x480 }
  - { offsetInCU: 0xCA59, offset: 0x4F0FB, size: 0x8, addend: 0x0, symName: '__ZN4core3ptr35drop_in_place$LT$syn..expr..Arm$GT$17h3bda1662a8f457b3E.llvm.14063226454159989703', symObjAddr: 0x1DC0, symBinAddr: 0x137B0, symSize: 0x170 }
  - { offsetInCU: 0xD4EF, offset: 0x4FB91, size: 0x8, addend: 0x0, symName: '__ZN4core3ptr36drop_in_place$LT$syn..expr..Expr$GT$17hf50a31c415a65710E.llvm.14063226454159989703', symObjAddr: 0x1F30, symBinAddr: 0x13920, symSize: 0x1C40 }
  - { offsetInCU: 0x16DCE, offset: 0x59470, size: 0x8, addend: 0x0, symName: '__ZN4core3ptr36drop_in_place$LT$syn..item..Item$GT$17hf8ead91acba9703aE.llvm.14063226454159989703', symObjAddr: 0x3B70, symBinAddr: 0x15560, symSize: 0x13E0 }
  - { offsetInCU: 0x1C411, offset: 0x5EAB3, size: 0x8, addend: 0x0, symName: '__ZN4core3ptr36drop_in_place$LT$syn..mac..Macro$GT$17h71d54b4cf4025904E', symObjAddr: 0x4F50, symBinAddr: 0x16940, symSize: 0xE0 }
  - { offsetInCU: 0x1C73B, offset: 0x5EDDD, size: 0x8, addend: 0x0, symName: '__ZN4core3ptr36drop_in_place$LT$syn..path..Path$GT$17h41d4f4933b224aa4E.llvm.14063226454159989703', symObjAddr: 0x5030, symBinAddr: 0x16A20, symSize: 0x180 }
  - { offsetInCU: 0x1CD46, offset: 0x5F3E8, size: 0x8, addend: 0x0, symName: '__ZN4core3ptr36drop_in_place$LT$syn..stmt..Stmt$GT$17hfeace8c18d6f0e4aE.llvm.14063226454159989703', symObjAddr: 0x51B0, symBinAddr: 0x16BA0, symSize: 0x2F0 }
  - { offsetInCU: 0x1D929, offset: 0x5FFCB, size: 0x8, addend: 0x0, symName: '__ZN4core3ptr37drop_in_place$LT$syn..data..Field$GT$17hdd2e2a3dd3071e29E.llvm.14063226454159989703', symObjAddr: 0x54A0, symBinAddr: 0x16E90, symSize: 0x190 }
  - { offsetInCU: 0x1DEE5, offset: 0x60587, size: 0x8, addend: 0x0, symName: '__ZN4core3ptr37drop_in_place$LT$syn..item..FnArg$GT$17h0b7d3482f5d03b6bE', symObjAddr: 0x5630, symBinAddr: 0x17020, symSize: 0x1A0 }
  - { offsetInCU: 0x1E774, offset: 0x60E16, size: 0x8, addend: 0x0, symName: '__ZN4core3ptr37drop_in_place$LT$syn..stmt..Block$GT$17h195dab821d86e03cE', symObjAddr: 0x57D0, symBinAddr: 0x171C0, symSize: 0xD0 }
  - { offsetInCU: 0x1EA52, offset: 0x610F4, size: 0x8, addend: 0x0, symName: '__ZN4core3ptr38drop_in_place$LT$syn..expr..Member$GT$17h8d878462faa898c3E.llvm.14063226454159989703', symObjAddr: 0x58A0, symBinAddr: 0x17290, symSize: 0x30 }
  - { offsetInCU: 0x1EB4E, offset: 0x611F0, size: 0x8, addend: 0x0, symName: '__ZN4core3ptr38drop_in_place$LT$syn..pat..PatType$GT$17hbbd61de7431b9f3aE.llvm.14063226454159989703', symObjAddr: 0x58D0, symBinAddr: 0x172C0, symSize: 0x140 }
  - { offsetInCU: 0x1F0CC, offset: 0x6176E, size: 0x8, addend: 0x0, symName: '__ZN4core3ptr39drop_in_place$LT$proc_macro2..Ident$GT$17hfddcb13090b7465eE.llvm.14063226454159989703', symObjAddr: 0x5A10, symBinAddr: 0x17400, symSize: 0x30 }
  - { offsetInCU: 0x1F206, offset: 0x618A8, size: 0x8, addend: 0x0, symName: '__ZN4core3ptr39drop_in_place$LT$syn..data..Variant$GT$17hb26cdae8619e2952E.llvm.14063226454159989703', symObjAddr: 0x5A40, symBinAddr: 0x17430, symSize: 0x2F0 }
  - { offsetInCU: 0x1FE6D, offset: 0x6250F, size: 0x8, addend: 0x0, symName: '__ZN4core3ptr39drop_in_place$LT$syn..item..UseTree$GT$17h6da2a59945432469E.llvm.14063226454159989703', symObjAddr: 0x5D30, symBinAddr: 0x17720, symSize: 0x1E0 }
  - { offsetInCU: 0x205C6, offset: 0x62C68, size: 0x8, addend: 0x0, symName: '__ZN4core3ptr40drop_in_place$LT$syn..item..ImplItem$GT$17h265a46b2395e9d4fE', symObjAddr: 0x5F10, symBinAddr: 0x17900, symSize: 0x1F0 }
  - { offsetInCU: 0x20BD0, offset: 0x63272, size: 0x8, addend: 0x0, symName: '__ZN4core3ptr40drop_in_place$LT$syn..item..Receiver$GT$17hca28af12a4a6fb67E.llvm.14063226454159989703', symObjAddr: 0x6100, symBinAddr: 0x17AF0, symSize: 0x130 }
  - { offsetInCU: 0x2119A, offset: 0x6383C, size: 0x8, addend: 0x0, symName: '__ZN4core3ptr40drop_in_place$LT$syn..item..Variadic$GT$17hbc884f2e0d6042b2E', symObjAddr: 0x6230, symBinAddr: 0x17C20, symSize: 0x120 }
  - { offsetInCU: 0x21609, offset: 0x63CAB, size: 0x8, addend: 0x0, symName: '__ZN4core3ptr40drop_in_place$LT$syn..ty..ReturnType$GT$17hd05e1b426b4e9c43E.llvm.14063226454159989703', symObjAddr: 0x6350, symBinAddr: 0x17D40, symSize: 0x50 }
  - { offsetInCU: 0x217D6, offset: 0x63E78, size: 0x8, addend: 0x0, symName: '__ZN4core3ptr41drop_in_place$LT$syn..attr..Attribute$GT$17h85bafac42a88589bE.llvm.14063226454159989703', symObjAddr: 0x63A0, symBinAddr: 0x17D90, symSize: 0x160 }
  - { offsetInCU: 0x21CE8, offset: 0x6438A, size: 0x8, addend: 0x0, symName: '__ZN4core3ptr41drop_in_place$LT$syn..item..Signature$GT$17ha0d57d948dab7f00E', symObjAddr: 0x6500, symBinAddr: 0x17EF0, symSize: 0x270 }
  - { offsetInCU: 0x227FD, offset: 0x64E9F, size: 0x8, addend: 0x0, symName: '__ZN4core3ptr41drop_in_place$LT$syn..item..TraitItem$GT$17hfbd11e786c2c2aa8E', symObjAddr: 0x6770, symBinAddr: 0x18160, symSize: 0x330 }
  - { offsetInCU: 0x233B6, offset: 0x65A58, size: 0x8, addend: 0x0, symName: '__ZN4core3ptr42drop_in_place$LT$alloc..string..String$GT$17hecb60af1c75e0660E.llvm.14063226454159989703', symObjAddr: 0x6AA0, symBinAddr: 0x18490, symSize: 0x20 }
  - { offsetInCU: 0x234BE, offset: 0x65B60, size: 0x8, addend: 0x0, symName: '__ZN4core3ptr42drop_in_place$LT$syn..item..ImplItemFn$GT$17hd36acfe4c784c060E', symObjAddr: 0x6AC0, symBinAddr: 0x184B0, symSize: 0x230 }
  - { offsetInCU: 0x23C4D, offset: 0x662EF, size: 0x8, addend: 0x0, symName: '__ZN4core3ptr42drop_in_place$LT$syn..path..Constraint$GT$17h8c0da484d1f96b44E', symObjAddr: 0x6CF0, symBinAddr: 0x186E0, symSize: 0x160 }
  - { offsetInCU: 0x24339, offset: 0x669DB, size: 0x8, addend: 0x0, symName: '__ZN4core3ptr43drop_in_place$LT$proc_macro2..TokenTree$GT$17hc75a36284659d149E.llvm.14063226454159989703', symObjAddr: 0x6E50, symBinAddr: 0x18840, symSize: 0x180 }
  - { offsetInCU: 0x24B7F, offset: 0x67221, size: 0x8, addend: 0x0, symName: '__ZN4core3ptr43drop_in_place$LT$syn..data..FieldsNamed$GT$17h09d2ee38404a5e04E', symObjAddr: 0x6FD0, symBinAddr: 0x189C0, symSize: 0x120 }
  - { offsetInCU: 0x25043, offset: 0x676E5, size: 0x8, addend: 0x0, symName: '__ZN4core3ptr43drop_in_place$LT$syn..item..ForeignItem$GT$17h1ff4506edb273f24E', symObjAddr: 0x70F0, symBinAddr: 0x18AE0, symSize: 0x2A0 }
  - { offsetInCU: 0x259CF, offset: 0x68071, size: 0x8, addend: 0x0, symName: '__ZN4core3ptr43drop_in_place$LT$syn..path..PathSegment$GT$17h57d1102a53ae9de4E.llvm.14063226454159989703', symObjAddr: 0x7390, symBinAddr: 0x18D80, symSize: 0x190 }
  - { offsetInCU: 0x25FAE, offset: 0x68650, size: 0x8, addend: 0x0, symName: '__ZN4core3ptr44drop_in_place$LT$syn..generics..Generics$GT$17h108ee9e6f21bd346E', symObjAddr: 0x7520, symBinAddr: 0x18F10, symSize: 0x240 }
  - { offsetInCU: 0x268EF, offset: 0x68F91, size: 0x8, addend: 0x0, symName: '__ZN4core3ptr44drop_in_place$LT$syn..item..ImplItemType$GT$17h9b1f9c41112ab374E', symObjAddr: 0x7760, symBinAddr: 0x19150, symSize: 0x1F0 }
  - { offsetInCU: 0x26ECE, offset: 0x69570, size: 0x8, addend: 0x0, symName: '__ZN4core3ptr44drop_in_place$LT$syn..lifetime..Lifetime$GT$17h6230756a841f0187E.llvm.14063226454159989703', symObjAddr: 0x7950, symBinAddr: 0x19340, symSize: 0x30 }
  - { offsetInCU: 0x27027, offset: 0x696C9, size: 0x8, addend: 0x0, symName: '__ZN4core3ptr45drop_in_place$LT$proc_macro2..TokenStream$GT$17h2ec36cca4b774820E.llvm.14063226454159989703', symObjAddr: 0x7980, symBinAddr: 0x19370, symSize: 0x70 }
  - { offsetInCU: 0x2718E, offset: 0x69830, size: 0x8, addend: 0x0, symName: '__ZN4core3ptr45drop_in_place$LT$syn..generics..TypeParam$GT$17h9d20c0be98b01247E.llvm.14063226454159989703', symObjAddr: 0x79F0, symBinAddr: 0x193E0, symSize: 0x230 }
  - { offsetInCU: 0x279F8, offset: 0x6A09A, size: 0x8, addend: 0x0, symName: '__ZN4core3ptr45drop_in_place$LT$syn..item..ImplItemConst$GT$17h131909a5d002554bE', symObjAddr: 0x7C20, symBinAddr: 0x19610, symSize: 0x210 }
  - { offsetInCU: 0x28015, offset: 0x6A6B7, size: 0x8, addend: 0x0, symName: '__ZN4core3ptr45drop_in_place$LT$syn..item..TraitItemType$GT$17hf88486d26b343372E', symObjAddr: 0x7E30, symBinAddr: 0x19820, symSize: 0x290 }
  - { offsetInCU: 0x2894B, offset: 0x6AFED, size: 0x8, addend: 0x0, symName: '__ZN4core3ptr46drop_in_place$LT$syn..generics..ConstParam$GT$17h51f432478005868aE.llvm.14063226454159989703', symObjAddr: 0x80C0, symBinAddr: 0x19AB0, symSize: 0x150 }
  - { offsetInCU: 0x28D45, offset: 0x6B3E7, size: 0x8, addend: 0x0, symName: '__ZN4core3ptr46drop_in_place$LT$syn..item..TraitItemConst$GT$17h444e6eded82b7e8bE', symObjAddr: 0x8210, symBinAddr: 0x19C00, symSize: 0x1B0 }
  - { offsetInCU: 0x291F2, offset: 0x6B894, size: 0x8, addend: 0x0, symName: '__ZN4core3ptr47drop_in_place$LT$syn..generics..WhereClause$GT$17h6ed3261294a9f691E', symObjAddr: 0x83C0, symBinAddr: 0x19DB0, symSize: 0x120 }
  - { offsetInCU: 0x29678, offset: 0x6BD1A, size: 0x8, addend: 0x0, symName: '__ZN4core3ptr47drop_in_place$LT$syn..item..ForeignItemType$GT$17h950e6eee04def041E', symObjAddr: 0x84E0, symBinAddr: 0x19ED0, symSize: 0x1B0 }
  - { offsetInCU: 0x29CB2, offset: 0x6C354, size: 0x8, addend: 0x0, symName: '__ZN4core3ptr47drop_in_place$LT$syn..path..GenericArgument$GT$17hcfca7f13f81d5c1eE', symObjAddr: 0x8690, symBinAddr: 0x1A080, symSize: 0x1C0 }
  - { offsetInCU: 0x2A176, offset: 0x6C818, size: 0x8, addend: 0x0, symName: '__ZN4core3ptr48drop_in_place$LT$syn..generics..GenericParam$GT$17h5319ebc415af5c5aE', symObjAddr: 0x8850, symBinAddr: 0x1A240, symSize: 0xE0 }
  - { offsetInCU: 0x2A559, offset: 0x6CBFB, size: 0x8, addend: 0x0, symName: '__ZN4core3ptr49drop_in_place$LT$syn..generics..LifetimeParam$GT$17h62c708931905b6c9E.llvm.14063226454159989703', symObjAddr: 0x8930, symBinAddr: 0x1A320, symSize: 0xF0 }
  - { offsetInCU: 0x2A930, offset: 0x6CFD2, size: 0x8, addend: 0x0, symName: '__ZN4core3ptr49drop_in_place$LT$syn..generics..PredicateType$GT$17h9965945e5d56fc79E.llvm.14063226454159989703', symObjAddr: 0x8A20, symBinAddr: 0x1A410, symSize: 0x180 }
  - { offsetInCU: 0x2ADE8, offset: 0x6D48A, size: 0x8, addend: 0x0, symName: '__ZN4core3ptr49drop_in_place$LT$syn..item..ForeignItemStatic$GT$17hb8519f9bdea20467E', symObjAddr: 0x8BA0, symBinAddr: 0x1A590, symSize: 0x190 }
  - { offsetInCU: 0x2B4B6, offset: 0x6DB58, size: 0x8, addend: 0x0, symName: '__ZN4core3ptr50drop_in_place$LT$$u5b$syn..item..ImplItem$u5d$$GT$17h6c4c20889647e68dE.llvm.14063226454159989703', symObjAddr: 0x8D30, symBinAddr: 0x1A720, symSize: 0x210 }
  - { offsetInCU: 0x2B7F6, offset: 0x6DE98, size: 0x8, addend: 0x0, symName: '__ZN4core3ptr50drop_in_place$LT$syn..generics..TypeParamBound$GT$17h0e46ecd98a045134E.llvm.14063226454159989703', symObjAddr: 0x8F40, symBinAddr: 0x1A930, symSize: 0xA0 }
  - { offsetInCU: 0x2B97B, offset: 0x6E01D, size: 0x8, addend: 0x0, symName: '__ZN4core3ptr50drop_in_place$LT$syn..generics..WherePredicate$GT$17h02bba09f187dc746E', symObjAddr: 0x8FE0, symBinAddr: 0x1A9D0, symSize: 0xA0 }
  - { offsetInCU: 0x2BB2B, offset: 0x6E1CD, size: 0x8, addend: 0x0, symName: '__ZN4core3ptr51drop_in_place$LT$$u5b$syn..attr..Attribute$u5d$$GT$17h69bf4c062e53fc03E.llvm.14063226454159989703', symObjAddr: 0x9080, symBinAddr: 0x1AA70, symSize: 0x100 }
  - { offsetInCU: 0x2BBC9, offset: 0x6E26B, size: 0x8, addend: 0x0, symName: '__ZN4core3ptr51drop_in_place$LT$$u5b$syn..item..TraitItem$u5d$$GT$17hd89c0ad617ea30b6E.llvm.14063226454159989703', symObjAddr: 0x9180, symBinAddr: 0x1AB70, symSize: 0x3E0 }
  - { offsetInCU: 0x2C503, offset: 0x6EBA5, size: 0x8, addend: 0x0, symName: '__ZN4core3ptr52drop_in_place$LT$syn..restriction..VisRestricted$GT$17he8a10ba728c56b29E', symObjAddr: 0x9560, symBinAddr: 0x1AF50, symSize: 0x50 }
  - { offsetInCU: 0x2C69A, offset: 0x6ED3C, size: 0x8, addend: 0x0, symName: '__ZN4core3ptr53drop_in_place$LT$$u5b$syn..item..ForeignItem$u5d$$GT$17h1c7de925549b2e10E.llvm.14063226454159989703', symObjAddr: 0x95B0, symBinAddr: 0x1AFA0, symSize: 0x370 }
  - { offsetInCU: 0x2CE50, offset: 0x6F4F2, size: 0x8, addend: 0x0, symName: '__ZN4core3ptr58drop_in_place$LT$alloc..vec..Vec$LT$syn..expr..Arm$GT$$GT$17h01078ebe5a85e687E', symObjAddr: 0x9920, symBinAddr: 0x1B310, symSize: 0xD0 }
  - { offsetInCU: 0x2D117, offset: 0x6F7B9, size: 0x8, addend: 0x0, symName: '__ZN4core3ptr59drop_in_place$LT$alloc..boxed..Box$LT$syn..pat..Pat$GT$$GT$17hc3b2199e3d116abfE.llvm.14063226454159989703', symObjAddr: 0x99F0, symBinAddr: 0x1B3E0, symSize: 0x50 }
  - { offsetInCU: 0x2D270, offset: 0x6F912, size: 0x8, addend: 0x0, symName: '__ZN4core3ptr59drop_in_place$LT$alloc..boxed..Box$LT$syn..ty..Type$GT$$GT$17he0a2a879fb80c64aE.llvm.14063226454159989703', symObjAddr: 0x9A40, symBinAddr: 0x1B430, symSize: 0x50 }
  - { offsetInCU: 0x2D3C9, offset: 0x6FA6B, size: 0x8, addend: 0x0, symName: '__ZN4core3ptr59drop_in_place$LT$alloc..vec..Vec$LT$syn..item..Item$GT$$GT$17h2626e8de5cdd2da3E', symObjAddr: 0x9A90, symBinAddr: 0x1B480, symSize: 0xD0 }
  - { offsetInCU: 0x2D690, offset: 0x6FD32, size: 0x8, addend: 0x0, symName: '__ZN4core3ptr61drop_in_place$LT$alloc..boxed..Box$LT$syn..expr..Expr$GT$$GT$17h3e09e56e3b8a0adaE', symObjAddr: 0x9B60, symBinAddr: 0x1B550, symSize: 0x50 }
  - { offsetInCU: 0x2D7E9, offset: 0x6FE8B, size: 0x8, addend: 0x0, symName: '__ZN4core3ptr61drop_in_place$LT$alloc..boxed..Box$LT$syn..path..Path$GT$$GT$17h9e9bc382f5c6791aE', symObjAddr: 0x9BB0, symBinAddr: 0x1B5A0, symSize: 0x100 }
  - { offsetInCU: 0x2DD09, offset: 0x703AB, size: 0x8, addend: 0x0, symName: '__ZN4core3ptr61drop_in_place$LT$syn..path..ParenthesizedGenericArguments$GT$17h0b1955e54d647201E.llvm.14063226454159989703', symObjAddr: 0x9CB0, symBinAddr: 0x1B6A0, symSize: 0x170 }
  - { offsetInCU: 0x2E306, offset: 0x709A8, size: 0x8, addend: 0x0, symName: '__ZN4core3ptr62drop_in_place$LT$alloc..boxed..Box$LT$syn..data..Field$GT$$GT$17hd7e7030ca8388d51E', symObjAddr: 0x9E20, symBinAddr: 0x1B810, symSize: 0x50 }
  - { offsetInCU: 0x2E47E, offset: 0x70B20, size: 0x8, addend: 0x0, symName: '__ZN4core3ptr62drop_in_place$LT$alloc..boxed..Box$LT$syn..item..FnArg$GT$$GT$17hc166dba4f3332165E', symObjAddr: 0x9E70, symBinAddr: 0x1B860, symSize: 0x60 }
  - { offsetInCU: 0x2E5F4, offset: 0x70C96, size: 0x8, addend: 0x0, symName: '__ZN4core3ptr62drop_in_place$LT$alloc..boxed..Box$LT$syn..stmt..Block$GT$$GT$17h7af2987210add2fbE', symObjAddr: 0x9ED0, symBinAddr: 0x1B8C0, symSize: 0xE0 }
  - { offsetInCU: 0x2EA0D, offset: 0x710AF, size: 0x8, addend: 0x0, symName: '__ZN4core3ptr62drop_in_place$LT$syn..path..AngleBracketedGenericArguments$GT$17h0e0529ba119e92e4E.llvm.14063226454159989703', symObjAddr: 0x9FB0, symBinAddr: 0x1B9A0, symSize: 0x120 }
  - { offsetInCU: 0x2EE93, offset: 0x71535, size: 0x8, addend: 0x0, symName: '__ZN4core3ptr63drop_in_place$LT$alloc..vec..Vec$LT$syn..item..ImplItem$GT$$GT$17h36e92ade00d8cb8eE', symObjAddr: 0xA0D0, symBinAddr: 0x1BAC0, symSize: 0x80 }
  - { offsetInCU: 0x2F14B, offset: 0x717ED, size: 0x8, addend: 0x0, symName: '__ZN4core3ptr64drop_in_place$LT$alloc..boxed..Box$LT$syn..data..Variant$GT$$GT$17h12d9a9facc63f9b2E', symObjAddr: 0xA150, symBinAddr: 0x1BB40, symSize: 0x50 }
  - { offsetInCU: 0x2F2A4, offset: 0x71946, size: 0x8, addend: 0x0, symName: '__ZN4core3ptr64drop_in_place$LT$alloc..boxed..Box$LT$syn..item..UseTree$GT$$GT$17haf58ab2480acf2aeE', symObjAddr: 0xA1A0, symBinAddr: 0x1BB90, symSize: 0x50 }
  - { offsetInCU: 0x2F43B, offset: 0x71ADD, size: 0x8, addend: 0x0, symName: '__ZN4core3ptr64drop_in_place$LT$alloc..boxed..Box$LT$syn..pat..FieldPat$GT$$GT$17hd89ed2533ebe6692E', symObjAddr: 0xA1F0, symBinAddr: 0x1BBE0, symSize: 0x100 }
  - { offsetInCU: 0x2FAC0, offset: 0x72162, size: 0x8, addend: 0x0, symName: '__ZN4core3ptr64drop_in_place$LT$alloc..boxed..Box$LT$syn..ty..BareFnArg$GT$$GT$17h4b707abec52795d6E', symObjAddr: 0xA2F0, symBinAddr: 0x1BCE0, symSize: 0xF0 }
  - { offsetInCU: 0x30011, offset: 0x726B3, size: 0x8, addend: 0x0, symName: '__ZN4core3ptr64drop_in_place$LT$alloc..vec..Vec$LT$syn..attr..Attribute$GT$$GT$17h40498ad5f1a4e586E.llvm.14063226454159989703', symObjAddr: 0xA3E0, symBinAddr: 0x1BDD0, symSize: 0x180 }
  - { offsetInCU: 0x3039B, offset: 0x72A3D, size: 0x8, addend: 0x0, symName: '__ZN4core3ptr64drop_in_place$LT$alloc..vec..Vec$LT$syn..item..TraitItem$GT$$GT$17hd21646cc7f5e9866E', symObjAddr: 0xA560, symBinAddr: 0x1BF50, symSize: 0x80 }
  - { offsetInCU: 0x30653, offset: 0x72CF5, size: 0x8, addend: 0x0, symName: '__ZN4core3ptr65drop_in_place$LT$$LP$syn..item..FnArg$C$syn..token..Comma$RP$$GT$17h4104657ad0e8d4c8E.llvm.14063226454159989703', symObjAddr: 0xA5E0, symBinAddr: 0x1BFD0, symSize: 0x20 }
  - { offsetInCU: 0x306EC, offset: 0x72D8E, size: 0x8, addend: 0x0, symName: '__ZN4core3ptr65drop_in_place$LT$alloc..vec..Vec$LT$proc_macro..TokenTree$GT$$GT$17h46e198de6234e700E.llvm.14063226454159989703', symObjAddr: 0xA600, symBinAddr: 0x1BFF0, symSize: 0x110 }
  - { offsetInCU: 0x30AFE, offset: 0x731A0, size: 0x8, addend: 0x0, symName: '__ZN4core3ptr65drop_in_place$LT$core..option..Option$LT$syn..expr..Label$GT$$GT$17h4ee09cf72cdeb66aE', symObjAddr: 0xA710, symBinAddr: 0x1C100, symSize: 0x30 }
  - { offsetInCU: 0x30C38, offset: 0x732DA, size: 0x8, addend: 0x0, symName: '__ZN4core3ptr65drop_in_place$LT$core..option..Option$LT$syn..stmt..Block$GT$$GT$17he23624b455da9106E', symObjAddr: 0xA740, symBinAddr: 0x1C130, symSize: 0xD0 }
  - { offsetInCU: 0x30F2C, offset: 0x735CE, size: 0x8, addend: 0x0, symName: '__ZN4core3ptr66drop_in_place$LT$alloc..vec..Vec$LT$proc_macro2..TokenTree$GT$$GT$17h5433fd2941ce25cfE', symObjAddr: 0xA810, symBinAddr: 0x1C200, symSize: 0xC0 }
  - { offsetInCU: 0x31204, offset: 0x738A6, size: 0x8, addend: 0x0, symName: '__ZN4core3ptr66drop_in_place$LT$alloc..vec..Vec$LT$syn..item..ForeignItem$GT$$GT$17hecca36c263ca2dadE', symObjAddr: 0xA8D0, symBinAddr: 0x1C2C0, symSize: 0x80 }
  - { offsetInCU: 0x314BC, offset: 0x73B5E, size: 0x8, addend: 0x0, symName: '__ZN4core3ptr67drop_in_place$LT$$LP$syn..pat..FieldPat$C$syn..token..Comma$RP$$GT$17h42a1c8eacc40e324E.llvm.14063226454159989703', symObjAddr: 0xA950, symBinAddr: 0x1C340, symSize: 0xE0 }
  - { offsetInCU: 0x31A0C, offset: 0x740AE, size: 0x8, addend: 0x0, symName: '__ZN4core3ptr67drop_in_place$LT$$LP$syn..ty..BareFnArg$C$syn..token..Comma$RP$$GT$17h309a0b52e5deb850E.llvm.14063226454159989703', symObjAddr: 0xAA30, symBinAddr: 0x1C420, symSize: 0xC0 }
  - { offsetInCU: 0x31E58, offset: 0x744FA, size: 0x8, addend: 0x0, symName: '__ZN4core3ptr67drop_in_place$LT$alloc..boxed..Box$LT$syn..expr..FieldValue$GT$$GT$17h15dcfd22497e7876E', symObjAddr: 0xAAF0, symBinAddr: 0x1C4E0, symSize: 0xF0 }
  - { offsetInCU: 0x32389, offset: 0x74A2B, size: 0x8, addend: 0x0, symName: '__ZN4core3ptr68drop_in_place$LT$alloc..boxed..Box$LT$syn..path..PathSegment$GT$$GT$17h5c3b08a1d5e801aeE', symObjAddr: 0xABE0, symBinAddr: 0x1C5D0, symSize: 0xF0 }
  - { offsetInCU: 0x3278B, offset: 0x74E2D, size: 0x8, addend: 0x0, symName: '__ZN4core3ptr69drop_in_place$LT$core..option..Option$LT$syn..stmt..LocalInit$GT$$GT$17h2faf2ee00bc713c8E', symObjAddr: 0xACD0, symBinAddr: 0x1C6C0, symSize: 0xC0 }
  - { offsetInCU: 0x32AAF, offset: 0x75151, size: 0x8, addend: 0x0, symName: '__ZN4core3ptr70drop_in_place$LT$$LP$syn..expr..FieldValue$C$syn..token..Comma$RP$$GT$17h211cae3af4ee9690E.llvm.14063226454159989703', symObjAddr: 0xAD90, symBinAddr: 0x1C780, symSize: 0xC0 }
  - { offsetInCU: 0x32EBC, offset: 0x7555E, size: 0x8, addend: 0x0, symName: '__ZN4core3ptr70drop_in_place$LT$core..option..Option$LT$syn..ty..BareVariadic$GT$$GT$17hee471d3d0e0874a7E', symObjAddr: 0xAE50, symBinAddr: 0x1C840, symSize: 0xB0 }
  - { offsetInCU: 0x332D4, offset: 0x75976, size: 0x8, addend: 0x0, symName: '__ZN4core3ptr72drop_in_place$LT$alloc..boxed..Box$LT$syn..path..GenericArgument$GT$$GT$17h6a6d601726a47735E.llvm.14063226454159989703', symObjAddr: 0xAF00, symBinAddr: 0x1C8F0, symSize: 0x190 }
  - { offsetInCU: 0x3379C, offset: 0x75E3E, size: 0x8, addend: 0x0, symName: '__ZN4core3ptr73drop_in_place$LT$$LP$syn..path..PathSegment$C$syn..token..PathSep$RP$$GT$17h073d68089cd1fbfdE.llvm.14063226454159989703', symObjAddr: 0xB090, symBinAddr: 0x1CA80, symSize: 0xD0 }
  - { offsetInCU: 0x33A5F, offset: 0x76101, size: 0x8, addend: 0x0, symName: '__ZN4core3ptr73drop_in_place$LT$alloc..boxed..Box$LT$syn..generics..GenericParam$GT$$GT$17hb39646a8590c81fbE', symObjAddr: 0xB160, symBinAddr: 0x1CB50, symSize: 0x80 }
  - { offsetInCU: 0x33BD5, offset: 0x76277, size: 0x8, addend: 0x0, symName: '__ZN4core3ptr75drop_in_place$LT$$LP$syn..path..GenericArgument$C$syn..token..Comma$RP$$GT$17he31461c5b33af043E.llvm.14063226454159989703', symObjAddr: 0xB1E0, symBinAddr: 0x1CBD0, symSize: 0x180 }
  - { offsetInCU: 0x33F63, offset: 0x76605, size: 0x8, addend: 0x0, symName: '__ZN4core3ptr75drop_in_place$LT$alloc..boxed..Box$LT$syn..generics..TypeParamBound$GT$$GT$17h53bdca6305f2cf16E', symObjAddr: 0xB360, symBinAddr: 0x1CD50, symSize: 0x180 }
  - { offsetInCU: 0x3452D, offset: 0x76BCF, size: 0x8, addend: 0x0, symName: '__ZN4core3ptr75drop_in_place$LT$alloc..boxed..Box$LT$syn..generics..WherePredicate$GT$$GT$17hd02c31e76e097af8E', symObjAddr: 0xB4E0, symBinAddr: 0x1CED0, symSize: 0x80 }
  - { offsetInCU: 0x347C4, offset: 0x76E66, size: 0x8, addend: 0x0, symName: '__ZN4core3ptr76drop_in_place$LT$$LP$syn..generics..GenericParam$C$syn..token..Comma$RP$$GT$17hfd77b36a6c84a4ccE.llvm.14063226454159989703', symObjAddr: 0xB560, symBinAddr: 0x1CF50, symSize: 0x40 }
  - { offsetInCU: 0x34800, offset: 0x76EA2, size: 0x8, addend: 0x0, symName: '__ZN4core3ptr77drop_in_place$LT$$LP$syn..generics..TypeParamBound$C$syn..token..Plus$RP$$GT$17hea0e3f87e0b2f884E.llvm.14063226454159989703', symObjAddr: 0xB5A0, symBinAddr: 0x1CF90, symSize: 0x180 }
  - { offsetInCU: 0x34C9C, offset: 0x7733E, size: 0x8, addend: 0x0, symName: '__ZN4core3ptr78drop_in_place$LT$$LP$syn..generics..WherePredicate$C$syn..token..Comma$RP$$GT$17h4e90b0cdb58cfb40E.llvm.14063226454159989703', symObjAddr: 0xB720, symBinAddr: 0x1D110, symSize: 0x60 }
  - { offsetInCU: 0x34DF9, offset: 0x7749B, size: 0x8, addend: 0x0, symName: '__ZN4core3ptr86drop_in_place$LT$$LP$syn..token..If$C$alloc..boxed..Box$LT$syn..expr..Expr$GT$$RP$$GT$17hc5d4d2b8401f85daE', symObjAddr: 0xB780, symBinAddr: 0x1D170, symSize: 0x50 }
  - { offsetInCU: 0x3500C, offset: 0x776AE, size: 0x8, addend: 0x0, symName: '__ZN4core3ptr86drop_in_place$LT$syn..punctuated..Punctuated$LT$syn..pat..Pat$C$syn..token..Or$GT$$GT$17h90b450e7ece0e32cE', symObjAddr: 0xB7D0, symBinAddr: 0x1D1C0, symSize: 0x120 }
  - { offsetInCU: 0x354A5, offset: 0x77B47, size: 0x8, addend: 0x0, symName: '__ZN4core3ptr87drop_in_place$LT$$LP$alloc..boxed..Box$LT$syn..pat..Pat$GT$$C$syn..token..Colon$RP$$GT$17h710c93b490f8ed69E', symObjAddr: 0xB8F0, symBinAddr: 0x1D2E0, symSize: 0x50 }
  - { offsetInCU: 0x3561D, offset: 0x77CBF, size: 0x8, addend: 0x0, symName: '__ZN4core3ptr87drop_in_place$LT$core..option..Option$LT$alloc..boxed..Box$LT$syn..ty..Type$GT$$GT$$GT$17h4b51756b645a661fE', symObjAddr: 0xB940, symBinAddr: 0x1D330, symSize: 0x50 }
  - { offsetInCU: 0x3578D, offset: 0x77E2F, size: 0x8, addend: 0x0, symName: '__ZN4core3ptr89drop_in_place$LT$core..option..Option$LT$alloc..boxed..Box$LT$syn..expr..Expr$GT$$GT$$GT$17h024369101b73da85E', symObjAddr: 0xB990, symBinAddr: 0x1D380, symSize: 0x50 }
  - { offsetInCU: 0x358FD, offset: 0x77F9F, size: 0x8, addend: 0x0, symName: '__ZN4core3ptr89drop_in_place$LT$syn..punctuated..Punctuated$LT$syn..ty..Type$C$syn..token..Comma$GT$$GT$17h2058aa3e268d3559E.llvm.14063226454159989703', symObjAddr: 0xB9E0, symBinAddr: 0x1D3D0, symSize: 0x120 }
  - { offsetInCU: 0x35D7F, offset: 0x78421, size: 0x8, addend: 0x0, symName: '__ZN4core3ptr90drop_in_place$LT$core..option..Option$LT$alloc..boxed..Box$LT$syn..data..Field$GT$$GT$$GT$17h0b3d4c1b898fbde8E', symObjAddr: 0xBB00, symBinAddr: 0x1D4F0, symSize: 0x50 }
  - { offsetInCU: 0x35EEF, offset: 0x78591, size: 0x8, addend: 0x0, symName: '__ZN4core3ptr90drop_in_place$LT$core..option..Option$LT$alloc..boxed..Box$LT$syn..item..FnArg$GT$$GT$$GT$17hd07eef081422e57eE', symObjAddr: 0xBB50, symBinAddr: 0x1D540, symSize: 0x50 }
  - { offsetInCU: 0x360DB, offset: 0x7877D, size: 0x8, addend: 0x0, symName: '__ZN4core3ptr91drop_in_place$LT$syn..punctuated..Punctuated$LT$syn..expr..Expr$C$syn..token..Comma$GT$$GT$17hd1b87278b89f2cc0E', symObjAddr: 0xBBA0, symBinAddr: 0x1D590, symSize: 0x120 }
  - { offsetInCU: 0x36570, offset: 0x78C12, size: 0x8, addend: 0x0, symName: '__ZN4core3ptr92drop_in_place$LT$core..option..Option$LT$$LP$syn..token..As$C$proc_macro2..Ident$RP$$GT$$GT$17h39eba8387fb14a41E', symObjAddr: 0xBCC0, symBinAddr: 0x1D6B0, symSize: 0x30 }
  - { offsetInCU: 0x3668B, offset: 0x78D2D, size: 0x8, addend: 0x0, symName: '__ZN4core3ptr92drop_in_place$LT$syn..punctuated..Punctuated$LT$syn..data..Field$C$syn..token..Comma$GT$$GT$17h2ba8fb06d15eb6a5E', symObjAddr: 0xBCF0, symBinAddr: 0x1D6E0, symSize: 0x120 }
  - { offsetInCU: 0x36B11, offset: 0x791B3, size: 0x8, addend: 0x0, symName: '__ZN4core3ptr92drop_in_place$LT$syn..punctuated..Punctuated$LT$syn..item..FnArg$C$syn..token..Comma$GT$$GT$17h5a06f0a8947eea16E', symObjAddr: 0xBE10, symBinAddr: 0x1D800, symSize: 0x150 }
  - { offsetInCU: 0x3705C, offset: 0x796FE, size: 0x8, addend: 0x0, symName: '__ZN4core3ptr94drop_in_place$LT$syn..punctuated..Punctuated$LT$syn..data..Variant$C$syn..token..Comma$GT$$GT$17hf89ea874db736761E', symObjAddr: 0xBF60, symBinAddr: 0x1D950, symSize: 0x120 }
  - { offsetInCU: 0x3756D, offset: 0x79C0F, size: 0x8, addend: 0x0, symName: '__ZN4core3ptr94drop_in_place$LT$syn..punctuated..Punctuated$LT$syn..pat..FieldPat$C$syn..token..Comma$GT$$GT$17h261f070161247cbbE', symObjAddr: 0xC080, symBinAddr: 0x1DA70, symSize: 0xF0 }
  - { offsetInCU: 0x37902, offset: 0x79FA4, size: 0x8, addend: 0x0, symName: '__ZN4core3ptr94drop_in_place$LT$syn..punctuated..Punctuated$LT$syn..ty..BareFnArg$C$syn..token..Comma$GT$$GT$17h6f1b028eed5acd19E', symObjAddr: 0xC170, symBinAddr: 0x1DB60, symSize: 0xF0 }
  - { offsetInCU: 0x37C1D, offset: 0x7A2BF, size: 0x8, addend: 0x0, symName: '__ZN4core3ptr95drop_in_place$LT$core..option..Option$LT$$LP$proc_macro2..Ident$C$syn..token..Colon$RP$$GT$$GT$17h9efa2d51bd191365E.llvm.14063226454159989703', symObjAddr: 0xC260, symBinAddr: 0x1DC50, symSize: 0x30 }
  - { offsetInCU: 0x37D38, offset: 0x7A3DA, size: 0x8, addend: 0x0, symName: '__ZN4core3ptr96drop_in_place$LT$core..option..Option$LT$alloc..boxed..Box$LT$syn..path..PathSegment$GT$$GT$$GT$17h9728ba401e7d1bd9E.llvm.14063226454159989703', symObjAddr: 0xC290, symBinAddr: 0x1DC80, symSize: 0xA0 }
  - { offsetInCU: 0x38052, offset: 0x7A6F4, size: 0x8, addend: 0x0, symName: '__ZN4core3ptr97drop_in_place$LT$syn..punctuated..Punctuated$LT$syn..expr..FieldValue$C$syn..token..Comma$GT$$GT$17hff5eb09736982b92E', symObjAddr: 0xC380, symBinAddr: 0x1DD20, symSize: 0xF0 }
  - { offsetInCU: 0x38404, offset: 0x7AAA6, size: 0x8, addend: 0x0, symName: '__ZN4core3ptr98drop_in_place$LT$syn..punctuated..Punctuated$LT$syn..lifetime..Lifetime$C$syn..token..Plus$GT$$GT$17ha4c1312ea9e80a0aE.llvm.14063226454159989703', symObjAddr: 0xC470, symBinAddr: 0x1DE10, symSize: 0xD0 }
  - { offsetInCU: 0x38DA0, offset: 0x7B442, size: 0x8, addend: 0x0, symName: '__ZN53_$LT$core..fmt..Error$u20$as$u20$core..fmt..Debug$GT$3fmt17h03dc662ab152f3aeE.llvm.14063226454159989703', symObjAddr: 0xC540, symBinAddr: 0x1DEE0, symSize: 0x20 }
  - { offsetInCU: 0x3B09B, offset: 0x7D73D, size: 0x8, addend: 0x0, symName: '__ZN48_$LT$T$u20$as$u20$core..clone..CloneToUninit$GT$15clone_to_uninit17h43cfd2dc0838c448E', symObjAddr: 0x0, symBinAddr: 0x119F0, symSize: 0x330 }
  - { offsetInCU: 0x3BD3C, offset: 0x7E3DE, size: 0x8, addend: 0x0, symName: _anon.a53420af6d64777a32d98213c369d2b7.4.llvm.14063226454159989703, symObjAddr: 0xF2B8, symBinAddr: 0x260420, symSize: 0x0 }
  - { offsetInCU: 0x43D94, offset: 0x86436, size: 0x8, addend: 0x0, symName: '__ZN5alloc3vec16Vec$LT$T$C$A$GT$6retain17h4c873e577b84e236E', symObjAddr: 0xC700, symBinAddr: 0x1E0A0, symSize: 0x150 }
  - { offsetInCU: 0x1E, offset: 0x89BE6, size: 0x8, addend: 0x0, symName: __ZN5alloc7raw_vec11finish_grow17h355f2be723454736E.llvm.16528801385872558455, symObjAddr: 0x0, symBinAddr: 0x1E5D0, symSize: 0xA0 }
  - { offsetInCU: 0x3D1C, offset: 0x8D8E4, size: 0x8, addend: 0x0, symName: __ZN5alloc7raw_vec11finish_grow17h355f2be723454736E.llvm.16528801385872558455, symObjAddr: 0x0, symBinAddr: 0x1E5D0, symSize: 0xA0 }
  - { offsetInCU: 0x4AD1, offset: 0x8E699, size: 0x8, addend: 0x0, symName: '__ZN5alloc7raw_vec19RawVec$LT$T$C$A$GT$7reserve21do_reserve_and_handle17h1d6711b069323494E', symObjAddr: 0x2B0, symBinAddr: 0x1FCA20, symSize: 0xA0 }
  - { offsetInCU: 0xAB89, offset: 0x94751, size: 0x8, addend: 0x0, symName: '__ZN5alloc7raw_vec19RawVec$LT$T$C$A$GT$8grow_one17h3a8a61ab84422560E', symObjAddr: 0x350, symBinAddr: 0x1E670, symSize: 0xC0 }
  - { offsetInCU: 0xAEC9, offset: 0x94A91, size: 0x8, addend: 0x0, symName: '__ZN5alloc7raw_vec19RawVec$LT$T$C$A$GT$8grow_one17h82bc690415ef449bE', symObjAddr: 0x410, symBinAddr: 0x1E730, symSize: 0xA0 }
  - { offsetInCU: 0x1E, offset: 0x94EA9, size: 0x8, addend: 0x0, symName: '__ZN100_$LT$syn..punctuated..PrivateIter$LT$T$C$P$GT$$u20$as$u20$core..iter..traits..iterator..Iterator$GT$4next17h2ad3ec708730eb34E.llvm.840214496659108496', symObjAddr: 0x0, symBinAddr: 0x1E7D0, symSize: 0x30 }
  - { offsetInCU: 0x562, offset: 0x953ED, size: 0x8, addend: 0x0, symName: '__ZN100_$LT$syn..punctuated..PrivateIter$LT$T$C$P$GT$$u20$as$u20$core..iter..traits..iterator..Iterator$GT$4next17h2ad3ec708730eb34E.llvm.840214496659108496', symObjAddr: 0x0, symBinAddr: 0x1E7D0, symSize: 0x30 }
  - { offsetInCU: 0x7EF, offset: 0x9567A, size: 0x8, addend: 0x0, symName: '__ZN100_$LT$syn..punctuated..PrivateIter$LT$T$C$P$GT$$u20$as$u20$core..iter..traits..iterator..Iterator$GT$4next17h4ff558ff39f2877fE.llvm.840214496659108496', symObjAddr: 0x30, symBinAddr: 0x1E800, symSize: 0x30 }
  - { offsetInCU: 0x1E, offset: 0x9F815, size: 0x8, addend: 0x0, symName: '__ZN40_$LT$F$u20$as$u20$syn..parse..Parser$GT$6parse217h3b6113c1380b4306E', symObjAddr: 0x0, symBinAddr: 0x1E830, symSize: 0x380 }
  - { offsetInCU: 0x1B4C, offset: 0xA1343, size: 0x8, addend: 0x0, symName: '__ZN4core3ptr100drop_in_place$LT$core..option..Option$LT$alloc..boxed..Box$LT$syn..path..GenericArgument$GT$$GT$$GT$17h79068b3f65a6d283E', symObjAddr: 0x380, symBinAddr: 0x1EBB0, symSize: 0x50 }
  - { offsetInCU: 0x1D19, offset: 0xA1510, size: 0x8, addend: 0x0, symName: '__ZN4core3ptr102drop_in_place$LT$syn..punctuated..Punctuated$LT$syn..path..GenericArgument$C$syn..token..Comma$GT$$GT$17hda74076e6ee86baaE', symObjAddr: 0x3D0, symBinAddr: 0x1EC00, symSize: 0xF0 }
  - { offsetInCU: 0x2039, offset: 0xA1830, size: 0x8, addend: 0x0, symName: '__ZN4core3ptr103drop_in_place$LT$core..option..Option$LT$alloc..boxed..Box$LT$syn..generics..TypeParamBound$GT$$GT$$GT$17h6105af2c79dbf16bE', symObjAddr: 0x4C0, symBinAddr: 0x1ECF0, symSize: 0x50 }
  - { offsetInCU: 0x22FE, offset: 0xA1AF5, size: 0x8, addend: 0x0, symName: '__ZN4core3ptr103drop_in_place$LT$core..option..Option$LT$alloc..boxed..Box$LT$syn..generics..WherePredicate$GT$$GT$$GT$17h9d902dbadc24ba56E', symObjAddr: 0x510, symBinAddr: 0x1ED40, symSize: 0xD0 }
  - { offsetInCU: 0x2692, offset: 0xA1E89, size: 0x8, addend: 0x0, symName: '__ZN4core3ptr103drop_in_place$LT$syn..punctuated..Punctuated$LT$syn..generics..GenericParam$C$syn..token..Comma$GT$$GT$17h8fbe9cba6186870eE', symObjAddr: 0x5E0, symBinAddr: 0x1EE10, symSize: 0xF0 }
  - { offsetInCU: 0x2B8D, offset: 0xA2384, size: 0x8, addend: 0x0, symName: '__ZN4core3ptr104drop_in_place$LT$syn..punctuated..Punctuated$LT$syn..generics..TypeParamBound$C$syn..token..Plus$GT$$GT$17hbc10fd9715d427b4E', symObjAddr: 0x6D0, symBinAddr: 0x1EF00, symSize: 0x240 }
  - { offsetInCU: 0x3448, offset: 0xA2C3F, size: 0x8, addend: 0x0, symName: '__ZN4core3ptr115drop_in_place$LT$core..option..Option$LT$$LP$alloc..boxed..Box$LT$syn..pat..Pat$GT$$C$syn..token..Colon$RP$$GT$$GT$17h2679e13935482030E', symObjAddr: 0x910, symBinAddr: 0x1F140, symSize: 0x50 }
  - { offsetInCU: 0x3616, offset: 0xA2E0D, size: 0x8, addend: 0x0, symName: '__ZN4core3ptr115drop_in_place$LT$core..option..Option$LT$$LP$syn..token..Brace$C$alloc..vec..Vec$LT$syn..item..Item$GT$$RP$$GT$$GT$17ha651049c82c9df9eE', symObjAddr: 0x960, symBinAddr: 0x1F190, symSize: 0xD0 }
  - { offsetInCU: 0x392D, offset: 0xA3124, size: 0x8, addend: 0x0, symName: '__ZN4core3ptr126drop_in_place$LT$core..option..Option$LT$$LP$syn..token..And$C$core..option..Option$LT$syn..lifetime..Lifetime$GT$$RP$$GT$$GT$17h9cba54cd213fd296E', symObjAddr: 0xA30, symBinAddr: 0x1F260, symSize: 0x30 }
  - { offsetInCU: 0x3B40, offset: 0xA3337, size: 0x8, addend: 0x0, symName: '__ZN4core3ptr34drop_in_place$LT$syn..lit..Lit$GT$17hdfd6ce7ed6ba0a80E', symObjAddr: 0xA60, symBinAddr: 0x1F290, symSize: 0x120 }
  - { offsetInCU: 0x400F, offset: 0xA3806, size: 0x8, addend: 0x0, symName: '__ZN4core3ptr34drop_in_place$LT$syn..pat..Pat$GT$17h83c07ae8bb068e9dE', symObjAddr: 0xB80, symBinAddr: 0x1F3B0, symSize: 0xF40 }
  - { offsetInCU: 0x7AB6, offset: 0xA72AD, size: 0x8, addend: 0x0, symName: '__ZN4core3ptr34drop_in_place$LT$syn..ty..Type$GT$17hc7244d5890888a37E', symObjAddr: 0x1AC0, symBinAddr: 0x202F0, symSize: 0x580 }
  - { offsetInCU: 0x933F, offset: 0xA8B36, size: 0x8, addend: 0x0, symName: '__ZN4core3ptr36drop_in_place$LT$syn..expr..Expr$GT$17hf50a31c415a65710E', symObjAddr: 0x2040, symBinAddr: 0x20870, symSize: 0x2730 }
  - { offsetInCU: 0x12C58, offset: 0xB244F, size: 0x8, addend: 0x0, symName: '__ZN4core3ptr36drop_in_place$LT$syn..item..Item$GT$17hf8ead91acba9703aE', symObjAddr: 0x4770, symBinAddr: 0x22FA0, symSize: 0x1960 }
  - { offsetInCU: 0x18C52, offset: 0xB8449, size: 0x8, addend: 0x0, symName: '__ZN4core3ptr36drop_in_place$LT$syn..mac..Macro$GT$17h71d54b4cf4025904E', symObjAddr: 0x60D0, symBinAddr: 0x24900, symSize: 0xE0 }
  - { offsetInCU: 0x18FDC, offset: 0xB87D3, size: 0x8, addend: 0x0, symName: '__ZN4core3ptr36drop_in_place$LT$syn..path..Path$GT$17h41d4f4933b224aa4E', symObjAddr: 0x61B0, symBinAddr: 0x249E0, symSize: 0x240 }
  - { offsetInCU: 0x19976, offset: 0xB916D, size: 0x8, addend: 0x0, symName: '__ZN4core3ptr37drop_in_place$LT$syn..stmt..Block$GT$17h195dab821d86e03cE', symObjAddr: 0x63F0, symBinAddr: 0x24C20, symSize: 0xD0 }
  - { offsetInCU: 0x19C6C, offset: 0xB9463, size: 0x8, addend: 0x0, symName: '__ZN4core3ptr38drop_in_place$LT$syn..data..Fields$GT$17hc2d26fd736df0c98E', symObjAddr: 0x64C0, symBinAddr: 0x24CF0, symSize: 0x190 }
  - { offsetInCU: 0x1A0B6, offset: 0xB98AD, size: 0x8, addend: 0x0, symName: '__ZN4core3ptr38drop_in_place$LT$syn..expr..Member$GT$17h8d878462faa898c3E', symObjAddr: 0x6650, symBinAddr: 0x24E80, symSize: 0x30 }
  - { offsetInCU: 0x1A1B2, offset: 0xB99A9, size: 0x8, addend: 0x0, symName: '__ZN4core3ptr39drop_in_place$LT$proc_macro2..Ident$GT$17hfddcb13090b7465eE', symObjAddr: 0x6680, symBinAddr: 0x24EB0, symSize: 0x30 }
  - { offsetInCU: 0x1A3C5, offset: 0xB9BBC, size: 0x8, addend: 0x0, symName: '__ZN4core3ptr39drop_in_place$LT$syn..buffer..Entry$GT$17h74a1e70424852aa6E', symObjAddr: 0x66B0, symBinAddr: 0x24EE0, symSize: 0xB0 }
  - { offsetInCU: 0x1A867, offset: 0xBA05E, size: 0x8, addend: 0x0, symName: '__ZN4core3ptr39drop_in_place$LT$syn..item..UseTree$GT$17h6da2a59945432469E', symObjAddr: 0x6760, symBinAddr: 0x24F90, symSize: 0x1E0 }
  - { offsetInCU: 0x1AF98, offset: 0xBA78F, size: 0x8, addend: 0x0, symName: '__ZN4core3ptr40drop_in_place$LT$syn..ty..ReturnType$GT$17hd05e1b426b4e9c43E', symObjAddr: 0x6940, symBinAddr: 0x25170, symSize: 0x50 }
  - { offsetInCU: 0x1B108, offset: 0xBA8FF, size: 0x8, addend: 0x0, symName: '__ZN4core3ptr41drop_in_place$LT$syn..expr..ExprConst$GT$17h0116f0cfd7172504E', symObjAddr: 0x6990, symBinAddr: 0x251C0, symSize: 0x180 }
  - { offsetInCU: 0x1B71E, offset: 0xBAF15, size: 0x8, addend: 0x0, symName: '__ZN4core3ptr41drop_in_place$LT$syn..item..Signature$GT$17ha0d57d948dab7f00E', symObjAddr: 0x6B10, symBinAddr: 0x25340, symSize: 0x230 }
  - { offsetInCU: 0x1BFBD, offset: 0xBB7B4, size: 0x8, addend: 0x0, symName: '__ZN4core3ptr43drop_in_place$LT$syn..data..FieldsNamed$GT$17h09d2ee38404a5e04E', symObjAddr: 0x6D40, symBinAddr: 0x25570, symSize: 0xE0 }
  - { offsetInCU: 0x1C2E3, offset: 0xBBADA, size: 0x8, addend: 0x0, symName: '__ZN4core3ptr44drop_in_place$LT$syn..generics..Generics$GT$17h108ee9e6f21bd346E', symObjAddr: 0x6E20, symBinAddr: 0x25650, symSize: 0x40 }
  - { offsetInCU: 0x1C300, offset: 0xBBAF7, size: 0x8, addend: 0x0, symName: '__ZN4core3ptr44drop_in_place$LT$syn..lifetime..Lifetime$GT$17h6230756a841f0187E', symObjAddr: 0x6E60, symBinAddr: 0x25690, symSize: 0x30 }
  - { offsetInCU: 0x1C3FC, offset: 0xBBBF3, size: 0x8, addend: 0x0, symName: '__ZN4core3ptr44drop_in_place$LT$syn..parse..ParseBuffer$GT$17hac3aa745defe75fcE', symObjAddr: 0x6E90, symBinAddr: 0x256C0, symSize: 0x70 }
  - { offsetInCU: 0x1C778, offset: 0xBBF6F, size: 0x8, addend: 0x0, symName: '__ZN4core3ptr45drop_in_place$LT$proc_macro2..TokenStream$GT$17h2ec36cca4b774820E', symObjAddr: 0x6F00, symBinAddr: 0x25730, symSize: 0x140 }
  - { offsetInCU: 0x1CBD4, offset: 0xBC3CB, size: 0x8, addend: 0x0, symName: '__ZN4core3ptr45drop_in_place$LT$syn..buffer..TokenBuffer$GT$17h3125403bdc4b6f29E', symObjAddr: 0x7040, symBinAddr: 0x25870, symSize: 0xC0 }
  - { offsetInCU: 0x1CE3C, offset: 0xBC633, size: 0x8, addend: 0x0, symName: '__ZN4core3ptr45drop_in_place$LT$syn..generics..TypeParam$GT$17h9d20c0be98b01247E', symObjAddr: 0x7100, symBinAddr: 0x25930, symSize: 0x230 }
  - { offsetInCU: 0x1D67D, offset: 0xBCE74, size: 0x8, addend: 0x0, symName: '__ZN4core3ptr46drop_in_place$LT$syn..generics..ConstParam$GT$17h51f432478005868aE', symObjAddr: 0x7330, symBinAddr: 0x25B60, symSize: 0x150 }
  - { offsetInCU: 0x1DACA, offset: 0xBD2C1, size: 0x8, addend: 0x0, symName: '__ZN4core3ptr47drop_in_place$LT$syn..path..GenericArgument$GT$17hcfca7f13f81d5c1eE', symObjAddr: 0x7480, symBinAddr: 0x25CB0, symSize: 0x450 }
  - { offsetInCU: 0x1E840, offset: 0xBE037, size: 0x8, addend: 0x0, symName: '__ZN4core3ptr49drop_in_place$LT$syn..generics..LifetimeParam$GT$17h62c708931905b6c9E', symObjAddr: 0x78D0, symBinAddr: 0x26100, symSize: 0xF0 }
  - { offsetInCU: 0x1EC23, offset: 0xBE41A, size: 0x8, addend: 0x0, symName: '__ZN4core3ptr49drop_in_place$LT$syn..restriction..Visibility$GT$17h4811a15d72e0452fE', symObjAddr: 0x79C0, symBinAddr: 0x261F0, symSize: 0x60 }
  - { offsetInCU: 0x1ED94, offset: 0xBE58B, size: 0x8, addend: 0x0, symName: '__ZN4core3ptr50drop_in_place$LT$syn..generics..TypeParamBound$GT$17h0e46ecd98a045134E', symObjAddr: 0x7A20, symBinAddr: 0x26250, symSize: 0xA0 }
  - { offsetInCU: 0x1EEFA, offset: 0xBE6F1, size: 0x8, addend: 0x0, symName: '__ZN4core3ptr58drop_in_place$LT$alloc..vec..Vec$LT$syn..expr..Arm$GT$$GT$17h01078ebe5a85e687E', symObjAddr: 0x7AC0, symBinAddr: 0x262F0, symSize: 0xD0 }
  - { offsetInCU: 0x1F1BA, offset: 0xBE9B1, size: 0x8, addend: 0x0, symName: '__ZN4core3ptr59drop_in_place$LT$alloc..boxed..Box$LT$syn..pat..Pat$GT$$GT$17hc3b2199e3d116abfE', symObjAddr: 0x7B90, symBinAddr: 0x263C0, symSize: 0x50 }
  - { offsetInCU: 0x1F313, offset: 0xBEB0A, size: 0x8, addend: 0x0, symName: '__ZN4core3ptr59drop_in_place$LT$alloc..boxed..Box$LT$syn..ty..Type$GT$$GT$17he0a2a879fb80c64aE', symObjAddr: 0x7BE0, symBinAddr: 0x26410, symSize: 0x50 }
  - { offsetInCU: 0x1F46C, offset: 0xBEC63, size: 0x8, addend: 0x0, symName: '__ZN4core3ptr61drop_in_place$LT$alloc..boxed..Box$LT$syn..expr..Expr$GT$$GT$17h3e09e56e3b8a0adaE', symObjAddr: 0x7C30, symBinAddr: 0x26460, symSize: 0x50 }
  - { offsetInCU: 0x1F5C5, offset: 0xBEDBC, size: 0x8, addend: 0x0, symName: '__ZN4core3ptr61drop_in_place$LT$syn..path..ParenthesizedGenericArguments$GT$17h0b1955e54d647201E', symObjAddr: 0x7C80, symBinAddr: 0x264B0, symSize: 0x170 }
  - { offsetInCU: 0x1FBCE, offset: 0xBF3C5, size: 0x8, addend: 0x0, symName: '__ZN4core3ptr62drop_in_place$LT$alloc..boxed..Box$LT$syn..stmt..Block$GT$$GT$17h7af2987210add2fbE', symObjAddr: 0x7DF0, symBinAddr: 0x26620, symSize: 0xE0 }
  - { offsetInCU: 0x1FFDC, offset: 0xBF7D3, size: 0x8, addend: 0x0, symName: '__ZN4core3ptr63drop_in_place$LT$alloc..boxed..Box$LT$syn..lit..LitRepr$GT$$GT$17h7787758ecda52ad2E', symObjAddr: 0x7ED0, symBinAddr: 0x26700, symSize: 0x60 }
  - { offsetInCU: 0x202A5, offset: 0xBFA9C, size: 0x8, addend: 0x0, symName: '__ZN4core3ptr63drop_in_place$LT$alloc..vec..Vec$LT$syn..item..ImplItem$GT$$GT$17h36e92ade00d8cb8eE', symObjAddr: 0x7F30, symBinAddr: 0x26760, symSize: 0x80 }
  - { offsetInCU: 0x2055D, offset: 0xBFD54, size: 0x8, addend: 0x0, symName: '__ZN4core3ptr64drop_in_place$LT$alloc..boxed..Box$LT$syn..item..UseTree$GT$$GT$17haf58ab2480acf2aeE', symObjAddr: 0x7FB0, symBinAddr: 0x267E0, symSize: 0x50 }
  - { offsetInCU: 0x206F4, offset: 0xBFEEB, size: 0x8, addend: 0x0, symName: '__ZN4core3ptr64drop_in_place$LT$alloc..boxed..Box$LT$syn..pat..FieldPat$GT$$GT$17hd89ed2533ebe6692E', symObjAddr: 0x8000, symBinAddr: 0x26830, symSize: 0x140 }
  - { offsetInCU: 0x20DC1, offset: 0xC05B8, size: 0x8, addend: 0x0, symName: '__ZN4core3ptr64drop_in_place$LT$alloc..boxed..Box$LT$syn..ty..BareFnArg$GT$$GT$17h4b707abec52795d6E', symObjAddr: 0x8140, symBinAddr: 0x26970, symSize: 0x140 }
  - { offsetInCU: 0x21316, offset: 0xC0B0D, size: 0x8, addend: 0x0, symName: '__ZN4core3ptr64drop_in_place$LT$alloc..vec..Vec$LT$syn..item..TraitItem$GT$$GT$17hd21646cc7f5e9866E', symObjAddr: 0x8280, symBinAddr: 0x26AB0, symSize: 0x80 }
  - { offsetInCU: 0x215CE, offset: 0xC0DC5, size: 0x8, addend: 0x0, symName: '__ZN4core3ptr65drop_in_place$LT$alloc..vec..Vec$LT$proc_macro..TokenTree$GT$$GT$17h46e198de6234e700E', symObjAddr: 0x8300, symBinAddr: 0x26B30, symSize: 0x110 }
  - { offsetInCU: 0x219C6, offset: 0xC11BD, size: 0x8, addend: 0x0, symName: '__ZN4core3ptr65drop_in_place$LT$core..option..Option$LT$syn..expr..Label$GT$$GT$17h4ee09cf72cdeb66aE', symObjAddr: 0x8410, symBinAddr: 0x26C40, symSize: 0x30 }
  - { offsetInCU: 0x21B00, offset: 0xC12F7, size: 0x8, addend: 0x0, symName: '__ZN4core3ptr66drop_in_place$LT$alloc..vec..Vec$LT$syn..item..ForeignItem$GT$$GT$17hecca36c263ca2dadE', symObjAddr: 0x8440, symBinAddr: 0x26C70, symSize: 0x80 }
  - { offsetInCU: 0x21DB8, offset: 0xC15AF, size: 0x8, addend: 0x0, symName: '__ZN4core3ptr66drop_in_place$LT$core..option..Option$LT$syn..pat..PatRest$GT$$GT$17hb4ee49c6cec7ff2cE', symObjAddr: 0x84C0, symBinAddr: 0x26CF0, symSize: 0xE0 }
  - { offsetInCU: 0x220AC, offset: 0xC18A3, size: 0x8, addend: 0x0, symName: '__ZN4core3ptr67drop_in_place$LT$alloc..boxed..Box$LT$syn..expr..FieldValue$GT$$GT$17h15dcfd22497e7876E', symObjAddr: 0x85A0, symBinAddr: 0x26DD0, symSize: 0x140 }
  - { offsetInCU: 0x2261F, offset: 0xC1E16, size: 0x8, addend: 0x0, symName: '__ZN4core3ptr68drop_in_place$LT$core..option..Option$LT$syn..item..Variadic$GT$$GT$17h285fcb0555c91f10E', symObjAddr: 0x86E0, symBinAddr: 0x26F10, symSize: 0x120 }
  - { offsetInCU: 0x22A9F, offset: 0xC2296, size: 0x8, addend: 0x0, symName: '__ZN4core3ptr70drop_in_place$LT$core..option..Option$LT$syn..ty..BareVariadic$GT$$GT$17hee471d3d0e0874a7E', symObjAddr: 0x8800, symBinAddr: 0x27030, symSize: 0x100 }
  - { offsetInCU: 0x22ED6, offset: 0xC26CD, size: 0x8, addend: 0x0, symName: '__ZN4core3ptr72drop_in_place$LT$alloc..boxed..Box$LT$syn..path..GenericArgument$GT$$GT$17h6a6d601726a47735E', symObjAddr: 0x8900, symBinAddr: 0x27130, symSize: 0x2B0 }
  - { offsetInCU: 0x238E7, offset: 0xC30DE, size: 0x8, addend: 0x0, symName: '__ZN4core3ptr72drop_in_place$LT$core..option..Option$LT$syn..lifetime..Lifetime$GT$$GT$17hca91fdfa0b190fe5E', symObjAddr: 0x8BB0, symBinAddr: 0x273E0, symSize: 0x30 }
  - { offsetInCU: 0x23A02, offset: 0xC31F9, size: 0x8, addend: 0x0, symName: '__ZN4core3ptr73drop_in_place$LT$alloc..boxed..Box$LT$syn..generics..GenericParam$GT$$GT$17hb39646a8590c81fbE', symObjAddr: 0x8BE0, symBinAddr: 0x27410, symSize: 0x80 }
  - { offsetInCU: 0x23B78, offset: 0xC336F, size: 0x8, addend: 0x0, symName: '__ZN4core3ptr75drop_in_place$LT$alloc..boxed..Box$LT$syn..generics..TypeParamBound$GT$$GT$17h53bdca6305f2cf16E', symObjAddr: 0x8C60, symBinAddr: 0x27490, symSize: 0x180 }
  - { offsetInCU: 0x24183, offset: 0xC397A, size: 0x8, addend: 0x0, symName: '__ZN4core3ptr75drop_in_place$LT$core..option..Option$LT$syn..generics..WhereClause$GT$$GT$17h60f56b26134a7147E', symObjAddr: 0x8DE0, symBinAddr: 0x27610, symSize: 0x90 }
  - { offsetInCU: 0x24477, offset: 0xC3C6E, size: 0x8, addend: 0x0, symName: '__ZN4core3ptr86drop_in_place$LT$syn..punctuated..Punctuated$LT$syn..pat..Pat$C$syn..token..Or$GT$$GT$17h90b450e7ece0e32cE', symObjAddr: 0x8E70, symBinAddr: 0x276A0, symSize: 0x120 }
  - { offsetInCU: 0x248F2, offset: 0xC40E9, size: 0x8, addend: 0x0, symName: '__ZN4core3ptr87drop_in_place$LT$core..option..Option$LT$alloc..boxed..Box$LT$syn..pat..Pat$GT$$GT$$GT$17hdc6dfb7b8fcacd92E', symObjAddr: 0x8F90, symBinAddr: 0x277C0, symSize: 0x50 }
  - { offsetInCU: 0x24A62, offset: 0xC4259, size: 0x8, addend: 0x0, symName: '__ZN4core3ptr87drop_in_place$LT$core..option..Option$LT$alloc..boxed..Box$LT$syn..ty..Type$GT$$GT$$GT$17h4b51756b645a661fE', symObjAddr: 0x8FE0, symBinAddr: 0x27810, symSize: 0x50 }
  - { offsetInCU: 0x24BD2, offset: 0xC43C9, size: 0x8, addend: 0x0, symName: '__ZN4core3ptr89drop_in_place$LT$core..option..Option$LT$alloc..boxed..Box$LT$syn..expr..Expr$GT$$GT$$GT$17h024369101b73da85E', symObjAddr: 0x9030, symBinAddr: 0x27860, symSize: 0x50 }
  - { offsetInCU: 0x24D80, offset: 0xC4577, size: 0x8, addend: 0x0, symName: '__ZN4core3ptr89drop_in_place$LT$syn..punctuated..Punctuated$LT$syn..pat..Pat$C$syn..token..Comma$GT$$GT$17hd5461753b18fcbecE', symObjAddr: 0x9080, symBinAddr: 0x278B0, symSize: 0x120 }
  - { offsetInCU: 0x25250, offset: 0xC4A47, size: 0x8, addend: 0x0, symName: '__ZN4core3ptr90drop_in_place$LT$core..option..Option$LT$alloc..boxed..Box$LT$syn..data..Field$GT$$GT$$GT$17h0b3d4c1b898fbde8E', symObjAddr: 0x91A0, symBinAddr: 0x279D0, symSize: 0x1B0 }
  - { offsetInCU: 0x2596B, offset: 0xC5162, size: 0x8, addend: 0x0, symName: '__ZN4core3ptr90drop_in_place$LT$core..option..Option$LT$alloc..boxed..Box$LT$syn..item..FnArg$GT$$GT$$GT$17hd07eef081422e57eE', symObjAddr: 0x9350, symBinAddr: 0x27B80, symSize: 0x250 }
  - { offsetInCU: 0x26399, offset: 0xC5B90, size: 0x8, addend: 0x0, symName: '__ZN4core3ptr91drop_in_place$LT$syn..punctuated..Punctuated$LT$syn..expr..Expr$C$syn..token..Comma$GT$$GT$17hd1b87278b89f2cc0E', symObjAddr: 0x95A0, symBinAddr: 0x27DD0, symSize: 0x120 }
  - { offsetInCU: 0x26827, offset: 0xC601E, size: 0x8, addend: 0x0, symName: '__ZN4core3ptr92drop_in_place$LT$core..option..Option$LT$$LP$syn..token..As$C$proc_macro2..Ident$RP$$GT$$GT$17h39eba8387fb14a41E', symObjAddr: 0x96C0, symBinAddr: 0x27EF0, symSize: 0x30 }
  - { offsetInCU: 0x269BE, offset: 0xC61B5, size: 0x8, addend: 0x0, symName: '__ZN4core3ptr92drop_in_place$LT$core..option..Option$LT$alloc..boxed..Box$LT$syn..data..Variant$GT$$GT$$GT$17h19780cd6ae936f7cE', symObjAddr: 0x96F0, symBinAddr: 0x27F20, symSize: 0x170 }
  - { offsetInCU: 0x26F59, offset: 0xC6750, size: 0x8, addend: 0x0, symName: '__ZN4core3ptr92drop_in_place$LT$syn..punctuated..Punctuated$LT$syn..item..FnArg$C$syn..token..Comma$GT$$GT$17h5a06f0a8947eea16E', symObjAddr: 0x9860, symBinAddr: 0x28090, symSize: 0xE0 }
  - { offsetInCU: 0x27254, offset: 0xC6A4B, size: 0x8, addend: 0x0, symName: '__ZN4core3ptr94drop_in_place$LT$syn..punctuated..Punctuated$LT$syn..data..Variant$C$syn..token..Comma$GT$$GT$17hf89ea874db736761E', symObjAddr: 0x9940, symBinAddr: 0x28170, symSize: 0xE0 }
  - { offsetInCU: 0x27557, offset: 0xC6D4E, size: 0x8, addend: 0x0, symName: '__ZN4core3ptr94drop_in_place$LT$syn..punctuated..Punctuated$LT$syn..pat..FieldPat$C$syn..token..Comma$GT$$GT$17h261f070161247cbbE', symObjAddr: 0x9A20, symBinAddr: 0x28250, symSize: 0xF0 }
  - { offsetInCU: 0x27856, offset: 0xC704D, size: 0x8, addend: 0x0, symName: '__ZN4core3ptr94drop_in_place$LT$syn..punctuated..Punctuated$LT$syn..ty..BareFnArg$C$syn..token..Comma$GT$$GT$17h6f1b028eed5acd19E', symObjAddr: 0x9B10, symBinAddr: 0x28340, symSize: 0xF0 }
  - { offsetInCU: 0x27B57, offset: 0xC734E, size: 0x8, addend: 0x0, symName: '__ZN4core3ptr96drop_in_place$LT$core..option..Option$LT$alloc..boxed..Box$LT$syn..path..PathSegment$GT$$GT$$GT$17h9728ba401e7d1bd9E', symObjAddr: 0x9C00, symBinAddr: 0x28430, symSize: 0x1A0 }
  - { offsetInCU: 0x28218, offset: 0xC7A0F, size: 0x8, addend: 0x0, symName: '__ZN4core3ptr97drop_in_place$LT$syn..punctuated..Punctuated$LT$syn..expr..FieldValue$C$syn..token..Comma$GT$$GT$17hff5eb09736982b92E', symObjAddr: 0x9DA0, symBinAddr: 0x285D0, symSize: 0xF0 }
  - { offsetInCU: 0x28591, offset: 0xC7D88, size: 0x8, addend: 0x0, symName: '__ZN4core3ptr98drop_in_place$LT$syn..punctuated..Punctuated$LT$syn..lifetime..Lifetime$C$syn..token..Plus$GT$$GT$17ha4c1312ea9e80a0aE', symObjAddr: 0x9E90, symBinAddr: 0x286C0, symSize: 0xC6 }
  - { offsetInCU: 0x2FA99, offset: 0xCF290, size: 0x8, addend: 0x0, symName: '__ZN40_$LT$F$u20$as$u20$syn..parse..Parser$GT$6parse217h3b6113c1380b4306E', symObjAddr: 0x0, symBinAddr: 0x1E830, symSize: 0x380 }
  - { offsetInCU: 0x1E, offset: 0xD62CF, size: 0x8, addend: 0x0, symName: '__ZN4core3ptr100drop_in_place$LT$core..option..Option$LT$alloc..boxed..Box$LT$syn..path..GenericArgument$GT$$GT$$GT$17h79068b3f65a6d283E', symObjAddr: 0x0, symBinAddr: 0x28790, symSize: 0x50 }
  - { offsetInCU: 0x19BB, offset: 0xD7C6C, size: 0x8, addend: 0x0, symName: '__ZN4core3ptr100drop_in_place$LT$core..option..Option$LT$alloc..boxed..Box$LT$syn..path..GenericArgument$GT$$GT$$GT$17h79068b3f65a6d283E', symObjAddr: 0x0, symBinAddr: 0x28790, symSize: 0x50 }
  - { offsetInCU: 0x1B88, offset: 0xD7E39, size: 0x8, addend: 0x0, symName: '__ZN4core3ptr102drop_in_place$LT$syn..punctuated..Punctuated$LT$syn..path..GenericArgument$C$syn..token..Comma$GT$$GT$17hda74076e6ee86baaE', symObjAddr: 0x50, symBinAddr: 0x287E0, symSize: 0xF0 }
  - { offsetInCU: 0x1EA8, offset: 0xD8159, size: 0x8, addend: 0x0, symName: '__ZN4core3ptr103drop_in_place$LT$core..option..Option$LT$alloc..boxed..Box$LT$syn..generics..TypeParamBound$GT$$GT$$GT$17h6105af2c79dbf16bE', symObjAddr: 0x140, symBinAddr: 0x288D0, symSize: 0x50 }
  - { offsetInCU: 0x216D, offset: 0xD841E, size: 0x8, addend: 0x0, symName: '__ZN4core3ptr103drop_in_place$LT$core..option..Option$LT$alloc..boxed..Box$LT$syn..generics..WherePredicate$GT$$GT$$GT$17h9d902dbadc24ba56E', symObjAddr: 0x190, symBinAddr: 0x28920, symSize: 0xD0 }
  - { offsetInCU: 0x2501, offset: 0xD87B2, size: 0x8, addend: 0x0, symName: '__ZN4core3ptr103drop_in_place$LT$syn..punctuated..Punctuated$LT$syn..generics..GenericParam$C$syn..token..Comma$GT$$GT$17h8fbe9cba6186870eE', symObjAddr: 0x260, symBinAddr: 0x289F0, symSize: 0xF0 }
  - { offsetInCU: 0x29FC, offset: 0xD8CAD, size: 0x8, addend: 0x0, symName: '__ZN4core3ptr104drop_in_place$LT$syn..punctuated..Punctuated$LT$syn..generics..TypeParamBound$C$syn..token..Plus$GT$$GT$17hbc10fd9715d427b4E', symObjAddr: 0x350, symBinAddr: 0x28AE0, symSize: 0x240 }
  - { offsetInCU: 0x32B7, offset: 0xD9568, size: 0x8, addend: 0x0, symName: '__ZN4core3ptr115drop_in_place$LT$core..option..Option$LT$$LP$alloc..boxed..Box$LT$syn..pat..Pat$GT$$C$syn..token..Colon$RP$$GT$$GT$17h2679e13935482030E', symObjAddr: 0x590, symBinAddr: 0x28D20, symSize: 0x50 }
  - { offsetInCU: 0x3485, offset: 0xD9736, size: 0x8, addend: 0x0, symName: '__ZN4core3ptr115drop_in_place$LT$core..option..Option$LT$$LP$syn..token..Brace$C$alloc..vec..Vec$LT$syn..item..Item$GT$$RP$$GT$$GT$17ha651049c82c9df9eE', symObjAddr: 0x5E0, symBinAddr: 0x28D70, symSize: 0xD0 }
  - { offsetInCU: 0x379C, offset: 0xD9A4D, size: 0x8, addend: 0x0, symName: '__ZN4core3ptr126drop_in_place$LT$core..option..Option$LT$$LP$syn..token..And$C$core..option..Option$LT$syn..lifetime..Lifetime$GT$$RP$$GT$$GT$17h9cba54cd213fd296E', symObjAddr: 0x6B0, symBinAddr: 0x28E40, symSize: 0x30 }
  - { offsetInCU: 0x39AF, offset: 0xD9C60, size: 0x8, addend: 0x0, symName: '__ZN4core3ptr34drop_in_place$LT$syn..lit..Lit$GT$17hdfd6ce7ed6ba0a80E', symObjAddr: 0x6E0, symBinAddr: 0x28E70, symSize: 0x120 }
  - { offsetInCU: 0x3E7E, offset: 0xDA12F, size: 0x8, addend: 0x0, symName: '__ZN4core3ptr34drop_in_place$LT$syn..pat..Pat$GT$17h83c07ae8bb068e9dE', symObjAddr: 0x800, symBinAddr: 0x28F90, symSize: 0xF40 }
  - { offsetInCU: 0x7925, offset: 0xDDBD6, size: 0x8, addend: 0x0, symName: '__ZN4core3ptr34drop_in_place$LT$syn..ty..Type$GT$17hc7244d5890888a37E', symObjAddr: 0x1740, symBinAddr: 0x29ED0, symSize: 0x580 }
  - { offsetInCU: 0x91AE, offset: 0xDF45F, size: 0x8, addend: 0x0, symName: '__ZN4core3ptr36drop_in_place$LT$syn..expr..Expr$GT$17hf50a31c415a65710E', symObjAddr: 0x1CC0, symBinAddr: 0x2A450, symSize: 0x2730 }
  - { offsetInCU: 0x12AC7, offset: 0xE8D78, size: 0x8, addend: 0x0, symName: '__ZN4core3ptr36drop_in_place$LT$syn..item..Item$GT$17hf8ead91acba9703aE.llvm.17684398677643733462', symObjAddr: 0x43F0, symBinAddr: 0x2CB80, symSize: 0x1960 }
  - { offsetInCU: 0x18AC1, offset: 0xEED72, size: 0x8, addend: 0x0, symName: '__ZN4core3ptr36drop_in_place$LT$syn..mac..Macro$GT$17h71d54b4cf4025904E', symObjAddr: 0x5D50, symBinAddr: 0x2E4E0, symSize: 0xE0 }
  - { offsetInCU: 0x18E4B, offset: 0xEF0FC, size: 0x8, addend: 0x0, symName: '__ZN4core3ptr36drop_in_place$LT$syn..path..Path$GT$17h41d4f4933b224aa4E', symObjAddr: 0x5E30, symBinAddr: 0x2E5C0, symSize: 0x240 }
  - { offsetInCU: 0x197E5, offset: 0xEFA96, size: 0x8, addend: 0x0, symName: '__ZN4core3ptr37drop_in_place$LT$syn..stmt..Block$GT$17h195dab821d86e03cE', symObjAddr: 0x6070, symBinAddr: 0x2E800, symSize: 0xD0 }
  - { offsetInCU: 0x19ADB, offset: 0xEFD8C, size: 0x8, addend: 0x0, symName: '__ZN4core3ptr38drop_in_place$LT$syn..data..Fields$GT$17hc2d26fd736df0c98E', symObjAddr: 0x6140, symBinAddr: 0x2E8D0, symSize: 0x190 }
  - { offsetInCU: 0x19F25, offset: 0xF01D6, size: 0x8, addend: 0x0, symName: '__ZN4core3ptr38drop_in_place$LT$syn..expr..Member$GT$17h8d878462faa898c3E', symObjAddr: 0x62D0, symBinAddr: 0x2EA60, symSize: 0x30 }
  - { offsetInCU: 0x1A021, offset: 0xF02D2, size: 0x8, addend: 0x0, symName: '__ZN4core3ptr39drop_in_place$LT$proc_macro2..Ident$GT$17hfddcb13090b7465eE', symObjAddr: 0x6300, symBinAddr: 0x2EA90, symSize: 0x30 }
  - { offsetInCU: 0x1A215, offset: 0xF04C6, size: 0x8, addend: 0x0, symName: '__ZN4core3ptr39drop_in_place$LT$syn..item..UseTree$GT$17h6da2a59945432469E', symObjAddr: 0x6330, symBinAddr: 0x2EAC0, symSize: 0x1E0 }
  - { offsetInCU: 0x1A946, offset: 0xF0BF7, size: 0x8, addend: 0x0, symName: '__ZN4core3ptr40drop_in_place$LT$syn..ty..ReturnType$GT$17hd05e1b426b4e9c43E', symObjAddr: 0x6510, symBinAddr: 0x2ECA0, symSize: 0x50 }
  - { offsetInCU: 0x1AAB6, offset: 0xF0D67, size: 0x8, addend: 0x0, symName: '__ZN4core3ptr41drop_in_place$LT$syn..expr..ExprConst$GT$17h0116f0cfd7172504E', symObjAddr: 0x6560, symBinAddr: 0x2ECF0, symSize: 0x180 }
  - { offsetInCU: 0x1B0CC, offset: 0xF137D, size: 0x8, addend: 0x0, symName: '__ZN4core3ptr41drop_in_place$LT$syn..item..Signature$GT$17ha0d57d948dab7f00E', symObjAddr: 0x66E0, symBinAddr: 0x2EE70, symSize: 0x230 }
  - { offsetInCU: 0x1B96B, offset: 0xF1C1C, size: 0x8, addend: 0x0, symName: '__ZN4core3ptr43drop_in_place$LT$syn..data..FieldsNamed$GT$17h09d2ee38404a5e04E', symObjAddr: 0x6910, symBinAddr: 0x2F0A0, symSize: 0xE0 }
  - { offsetInCU: 0x1BC91, offset: 0xF1F42, size: 0x8, addend: 0x0, symName: '__ZN4core3ptr44drop_in_place$LT$syn..generics..Generics$GT$17h108ee9e6f21bd346E', symObjAddr: 0x69F0, symBinAddr: 0x2F180, symSize: 0x40 }
  - { offsetInCU: 0x1BCAE, offset: 0xF1F5F, size: 0x8, addend: 0x0, symName: '__ZN4core3ptr44drop_in_place$LT$syn..lifetime..Lifetime$GT$17h6230756a841f0187E', symObjAddr: 0x6A30, symBinAddr: 0x2F1C0, symSize: 0x30 }
  - { offsetInCU: 0x1BEE0, offset: 0xF2191, size: 0x8, addend: 0x0, symName: '__ZN4core3ptr45drop_in_place$LT$proc_macro2..TokenStream$GT$17h2ec36cca4b774820E.llvm.17684398677643733462', symObjAddr: 0x6A60, symBinAddr: 0x2F1F0, symSize: 0x140 }
  - { offsetInCU: 0x1C37A, offset: 0xF262B, size: 0x8, addend: 0x0, symName: '__ZN4core3ptr45drop_in_place$LT$syn..generics..TypeParam$GT$17h9d20c0be98b01247E', symObjAddr: 0x6BA0, symBinAddr: 0x2F330, symSize: 0x230 }
  - { offsetInCU: 0x1CBBB, offset: 0xF2E6C, size: 0x8, addend: 0x0, symName: '__ZN4core3ptr46drop_in_place$LT$syn..generics..ConstParam$GT$17h51f432478005868aE', symObjAddr: 0x6DD0, symBinAddr: 0x2F560, symSize: 0x150 }
  - { offsetInCU: 0x1D008, offset: 0xF32B9, size: 0x8, addend: 0x0, symName: '__ZN4core3ptr47drop_in_place$LT$syn..path..GenericArgument$GT$17hcfca7f13f81d5c1eE', symObjAddr: 0x6F20, symBinAddr: 0x2F6B0, symSize: 0x450 }
  - { offsetInCU: 0x1DD7E, offset: 0xF402F, size: 0x8, addend: 0x0, symName: '__ZN4core3ptr49drop_in_place$LT$syn..generics..LifetimeParam$GT$17h62c708931905b6c9E', symObjAddr: 0x7370, symBinAddr: 0x2FB00, symSize: 0xF0 }
  - { offsetInCU: 0x1E161, offset: 0xF4412, size: 0x8, addend: 0x0, symName: '__ZN4core3ptr49drop_in_place$LT$syn..restriction..Visibility$GT$17h4811a15d72e0452fE', symObjAddr: 0x7460, symBinAddr: 0x2FBF0, symSize: 0x60 }
  - { offsetInCU: 0x1E2D2, offset: 0xF4583, size: 0x8, addend: 0x0, symName: '__ZN4core3ptr50drop_in_place$LT$syn..generics..TypeParamBound$GT$17h0e46ecd98a045134E', symObjAddr: 0x74C0, symBinAddr: 0x2FC50, symSize: 0xA0 }
  - { offsetInCU: 0x1E438, offset: 0xF46E9, size: 0x8, addend: 0x0, symName: '__ZN4core3ptr58drop_in_place$LT$alloc..vec..Vec$LT$syn..expr..Arm$GT$$GT$17h01078ebe5a85e687E', symObjAddr: 0x7560, symBinAddr: 0x2FCF0, symSize: 0xD0 }
  - { offsetInCU: 0x1E6F8, offset: 0xF49A9, size: 0x8, addend: 0x0, symName: '__ZN4core3ptr59drop_in_place$LT$alloc..boxed..Box$LT$syn..pat..Pat$GT$$GT$17hc3b2199e3d116abfE', symObjAddr: 0x7630, symBinAddr: 0x2FDC0, symSize: 0x50 }
  - { offsetInCU: 0x1E851, offset: 0xF4B02, size: 0x8, addend: 0x0, symName: '__ZN4core3ptr59drop_in_place$LT$alloc..boxed..Box$LT$syn..ty..Type$GT$$GT$17he0a2a879fb80c64aE', symObjAddr: 0x7680, symBinAddr: 0x2FE10, symSize: 0x50 }
  - { offsetInCU: 0x1E9AA, offset: 0xF4C5B, size: 0x8, addend: 0x0, symName: '__ZN4core3ptr61drop_in_place$LT$alloc..boxed..Box$LT$syn..expr..Expr$GT$$GT$17h3e09e56e3b8a0adaE', symObjAddr: 0x76D0, symBinAddr: 0x2FE60, symSize: 0x50 }
  - { offsetInCU: 0x1EB03, offset: 0xF4DB4, size: 0x8, addend: 0x0, symName: '__ZN4core3ptr61drop_in_place$LT$syn..path..ParenthesizedGenericArguments$GT$17h0b1955e54d647201E', symObjAddr: 0x7720, symBinAddr: 0x2FEB0, symSize: 0x170 }
  - { offsetInCU: 0x1F10C, offset: 0xF53BD, size: 0x8, addend: 0x0, symName: '__ZN4core3ptr62drop_in_place$LT$alloc..boxed..Box$LT$syn..stmt..Block$GT$$GT$17h7af2987210add2fbE', symObjAddr: 0x7890, symBinAddr: 0x30020, symSize: 0xE0 }
  - { offsetInCU: 0x1F51A, offset: 0xF57CB, size: 0x8, addend: 0x0, symName: '__ZN4core3ptr63drop_in_place$LT$alloc..boxed..Box$LT$syn..lit..LitRepr$GT$$GT$17h7787758ecda52ad2E', symObjAddr: 0x7970, symBinAddr: 0x30100, symSize: 0x60 }
  - { offsetInCU: 0x1F7E3, offset: 0xF5A94, size: 0x8, addend: 0x0, symName: '__ZN4core3ptr63drop_in_place$LT$alloc..vec..Vec$LT$syn..item..ImplItem$GT$$GT$17h36e92ade00d8cb8eE', symObjAddr: 0x79D0, symBinAddr: 0x30160, symSize: 0x80 }
  - { offsetInCU: 0x1FA9B, offset: 0xF5D4C, size: 0x8, addend: 0x0, symName: '__ZN4core3ptr64drop_in_place$LT$alloc..boxed..Box$LT$syn..item..UseTree$GT$$GT$17haf58ab2480acf2aeE', symObjAddr: 0x7A50, symBinAddr: 0x301E0, symSize: 0x50 }
  - { offsetInCU: 0x1FC32, offset: 0xF5EE3, size: 0x8, addend: 0x0, symName: '__ZN4core3ptr64drop_in_place$LT$alloc..boxed..Box$LT$syn..pat..FieldPat$GT$$GT$17hd89ed2533ebe6692E', symObjAddr: 0x7AA0, symBinAddr: 0x30230, symSize: 0x140 }
  - { offsetInCU: 0x202FF, offset: 0xF65B0, size: 0x8, addend: 0x0, symName: '__ZN4core3ptr64drop_in_place$LT$alloc..boxed..Box$LT$syn..ty..BareFnArg$GT$$GT$17h4b707abec52795d6E', symObjAddr: 0x7BE0, symBinAddr: 0x30370, symSize: 0x140 }
  - { offsetInCU: 0x20854, offset: 0xF6B05, size: 0x8, addend: 0x0, symName: '__ZN4core3ptr64drop_in_place$LT$alloc..vec..Vec$LT$syn..item..TraitItem$GT$$GT$17hd21646cc7f5e9866E', symObjAddr: 0x7D20, symBinAddr: 0x304B0, symSize: 0x80 }
  - { offsetInCU: 0x20B0C, offset: 0xF6DBD, size: 0x8, addend: 0x0, symName: '__ZN4core3ptr65drop_in_place$LT$alloc..vec..Vec$LT$proc_macro..TokenTree$GT$$GT$17h46e198de6234e700E.llvm.17684398677643733462', symObjAddr: 0x7DA0, symBinAddr: 0x30530, symSize: 0x110 }
  - { offsetInCU: 0x20F04, offset: 0xF71B5, size: 0x8, addend: 0x0, symName: '__ZN4core3ptr65drop_in_place$LT$core..option..Option$LT$syn..expr..Label$GT$$GT$17h4ee09cf72cdeb66aE', symObjAddr: 0x7EB0, symBinAddr: 0x30640, symSize: 0x30 }
  - { offsetInCU: 0x2103E, offset: 0xF72EF, size: 0x8, addend: 0x0, symName: '__ZN4core3ptr66drop_in_place$LT$alloc..vec..Vec$LT$syn..item..ForeignItem$GT$$GT$17hecca36c263ca2dadE', symObjAddr: 0x7EE0, symBinAddr: 0x30670, symSize: 0x80 }
  - { offsetInCU: 0x212F6, offset: 0xF75A7, size: 0x8, addend: 0x0, symName: '__ZN4core3ptr66drop_in_place$LT$core..option..Option$LT$syn..pat..PatRest$GT$$GT$17hb4ee49c6cec7ff2cE', symObjAddr: 0x7F60, symBinAddr: 0x306F0, symSize: 0xE0 }
  - { offsetInCU: 0x215EA, offset: 0xF789B, size: 0x8, addend: 0x0, symName: '__ZN4core3ptr67drop_in_place$LT$alloc..boxed..Box$LT$syn..expr..FieldValue$GT$$GT$17h15dcfd22497e7876E', symObjAddr: 0x8040, symBinAddr: 0x307D0, symSize: 0x140 }
  - { offsetInCU: 0x21B5D, offset: 0xF7E0E, size: 0x8, addend: 0x0, symName: '__ZN4core3ptr68drop_in_place$LT$core..option..Option$LT$syn..item..Variadic$GT$$GT$17h285fcb0555c91f10E', symObjAddr: 0x8180, symBinAddr: 0x30910, symSize: 0x120 }
  - { offsetInCU: 0x21FDD, offset: 0xF828E, size: 0x8, addend: 0x0, symName: '__ZN4core3ptr70drop_in_place$LT$core..option..Option$LT$syn..ty..BareVariadic$GT$$GT$17hee471d3d0e0874a7E', symObjAddr: 0x82A0, symBinAddr: 0x30A30, symSize: 0x100 }
  - { offsetInCU: 0x22414, offset: 0xF86C5, size: 0x8, addend: 0x0, symName: '__ZN4core3ptr72drop_in_place$LT$alloc..boxed..Box$LT$syn..path..GenericArgument$GT$$GT$17h6a6d601726a47735E', symObjAddr: 0x83A0, symBinAddr: 0x30B30, symSize: 0x2B0 }
  - { offsetInCU: 0x22E25, offset: 0xF90D6, size: 0x8, addend: 0x0, symName: '__ZN4core3ptr72drop_in_place$LT$core..option..Option$LT$syn..lifetime..Lifetime$GT$$GT$17hca91fdfa0b190fe5E', symObjAddr: 0x8650, symBinAddr: 0x30DE0, symSize: 0x30 }
  - { offsetInCU: 0x22F40, offset: 0xF91F1, size: 0x8, addend: 0x0, symName: '__ZN4core3ptr73drop_in_place$LT$alloc..boxed..Box$LT$syn..generics..GenericParam$GT$$GT$17hb39646a8590c81fbE', symObjAddr: 0x8680, symBinAddr: 0x30E10, symSize: 0x80 }
  - { offsetInCU: 0x230B6, offset: 0xF9367, size: 0x8, addend: 0x0, symName: '__ZN4core3ptr75drop_in_place$LT$alloc..boxed..Box$LT$syn..generics..TypeParamBound$GT$$GT$17h53bdca6305f2cf16E', symObjAddr: 0x8700, symBinAddr: 0x30E90, symSize: 0x180 }
  - { offsetInCU: 0x236C1, offset: 0xF9972, size: 0x8, addend: 0x0, symName: '__ZN4core3ptr75drop_in_place$LT$core..option..Option$LT$syn..generics..WhereClause$GT$$GT$17h60f56b26134a7147E', symObjAddr: 0x8880, symBinAddr: 0x31010, symSize: 0x90 }
  - { offsetInCU: 0x239B5, offset: 0xF9C66, size: 0x8, addend: 0x0, symName: '__ZN4core3ptr86drop_in_place$LT$syn..punctuated..Punctuated$LT$syn..pat..Pat$C$syn..token..Or$GT$$GT$17h90b450e7ece0e32cE', symObjAddr: 0x8910, symBinAddr: 0x310A0, symSize: 0x120 }
  - { offsetInCU: 0x23E30, offset: 0xFA0E1, size: 0x8, addend: 0x0, symName: '__ZN4core3ptr87drop_in_place$LT$core..option..Option$LT$alloc..boxed..Box$LT$syn..pat..Pat$GT$$GT$$GT$17hdc6dfb7b8fcacd92E', symObjAddr: 0x8A30, symBinAddr: 0x311C0, symSize: 0x50 }
  - { offsetInCU: 0x23FA0, offset: 0xFA251, size: 0x8, addend: 0x0, symName: '__ZN4core3ptr87drop_in_place$LT$core..option..Option$LT$alloc..boxed..Box$LT$syn..ty..Type$GT$$GT$$GT$17h4b51756b645a661fE', symObjAddr: 0x8A80, symBinAddr: 0x31210, symSize: 0x50 }
  - { offsetInCU: 0x24110, offset: 0xFA3C1, size: 0x8, addend: 0x0, symName: '__ZN4core3ptr89drop_in_place$LT$core..option..Option$LT$alloc..boxed..Box$LT$syn..expr..Expr$GT$$GT$$GT$17h024369101b73da85E', symObjAddr: 0x8AD0, symBinAddr: 0x31260, symSize: 0x50 }
  - { offsetInCU: 0x242BE, offset: 0xFA56F, size: 0x8, addend: 0x0, symName: '__ZN4core3ptr89drop_in_place$LT$syn..punctuated..Punctuated$LT$syn..pat..Pat$C$syn..token..Comma$GT$$GT$17hd5461753b18fcbecE', symObjAddr: 0x8B20, symBinAddr: 0x312B0, symSize: 0x120 }
  - { offsetInCU: 0x2478E, offset: 0xFAA3F, size: 0x8, addend: 0x0, symName: '__ZN4core3ptr90drop_in_place$LT$core..option..Option$LT$alloc..boxed..Box$LT$syn..data..Field$GT$$GT$$GT$17h0b3d4c1b898fbde8E', symObjAddr: 0x8C40, symBinAddr: 0x313D0, symSize: 0x1B0 }
  - { offsetInCU: 0x24EA9, offset: 0xFB15A, size: 0x8, addend: 0x0, symName: '__ZN4core3ptr90drop_in_place$LT$core..option..Option$LT$alloc..boxed..Box$LT$syn..item..FnArg$GT$$GT$$GT$17hd07eef081422e57eE', symObjAddr: 0x8DF0, symBinAddr: 0x31580, symSize: 0x250 }
  - { offsetInCU: 0x258D7, offset: 0xFBB88, size: 0x8, addend: 0x0, symName: '__ZN4core3ptr91drop_in_place$LT$syn..punctuated..Punctuated$LT$syn..expr..Expr$C$syn..token..Comma$GT$$GT$17hd1b87278b89f2cc0E', symObjAddr: 0x9040, symBinAddr: 0x317D0, symSize: 0x120 }
  - { offsetInCU: 0x25D65, offset: 0xFC016, size: 0x8, addend: 0x0, symName: '__ZN4core3ptr92drop_in_place$LT$core..option..Option$LT$$LP$syn..token..As$C$proc_macro2..Ident$RP$$GT$$GT$17h39eba8387fb14a41E', symObjAddr: 0x9160, symBinAddr: 0x318F0, symSize: 0x30 }
  - { offsetInCU: 0x25EFC, offset: 0xFC1AD, size: 0x8, addend: 0x0, symName: '__ZN4core3ptr92drop_in_place$LT$core..option..Option$LT$alloc..boxed..Box$LT$syn..data..Variant$GT$$GT$$GT$17h19780cd6ae936f7cE', symObjAddr: 0x9190, symBinAddr: 0x31920, symSize: 0x170 }
  - { offsetInCU: 0x26497, offset: 0xFC748, size: 0x8, addend: 0x0, symName: '__ZN4core3ptr92drop_in_place$LT$syn..punctuated..Punctuated$LT$syn..item..FnArg$C$syn..token..Comma$GT$$GT$17h5a06f0a8947eea16E', symObjAddr: 0x9300, symBinAddr: 0x31A90, symSize: 0xE0 }
  - { offsetInCU: 0x26792, offset: 0xFCA43, size: 0x8, addend: 0x0, symName: '__ZN4core3ptr94drop_in_place$LT$syn..punctuated..Punctuated$LT$syn..data..Variant$C$syn..token..Comma$GT$$GT$17hf89ea874db736761E', symObjAddr: 0x93E0, symBinAddr: 0x31B70, symSize: 0xE0 }
  - { offsetInCU: 0x26A95, offset: 0xFCD46, size: 0x8, addend: 0x0, symName: '__ZN4core3ptr94drop_in_place$LT$syn..punctuated..Punctuated$LT$syn..pat..FieldPat$C$syn..token..Comma$GT$$GT$17h261f070161247cbbE', symObjAddr: 0x94C0, symBinAddr: 0x31C50, symSize: 0xF0 }
  - { offsetInCU: 0x26D94, offset: 0xFD045, size: 0x8, addend: 0x0, symName: '__ZN4core3ptr94drop_in_place$LT$syn..punctuated..Punctuated$LT$syn..ty..BareFnArg$C$syn..token..Comma$GT$$GT$17h6f1b028eed5acd19E', symObjAddr: 0x95B0, symBinAddr: 0x31D40, symSize: 0xF0 }
  - { offsetInCU: 0x27095, offset: 0xFD346, size: 0x8, addend: 0x0, symName: '__ZN4core3ptr96drop_in_place$LT$core..option..Option$LT$alloc..boxed..Box$LT$syn..path..PathSegment$GT$$GT$$GT$17h9728ba401e7d1bd9E', symObjAddr: 0x96A0, symBinAddr: 0x31E30, symSize: 0x1A0 }
  - { offsetInCU: 0x27756, offset: 0xFDA07, size: 0x8, addend: 0x0, symName: '__ZN4core3ptr97drop_in_place$LT$syn..punctuated..Punctuated$LT$syn..expr..FieldValue$C$syn..token..Comma$GT$$GT$17hff5eb09736982b92E', symObjAddr: 0x9840, symBinAddr: 0x31FD0, symSize: 0xF0 }
  - { offsetInCU: 0x27ACF, offset: 0xFDD80, size: 0x8, addend: 0x0, symName: '__ZN4core3ptr98drop_in_place$LT$syn..punctuated..Punctuated$LT$syn..lifetime..Lifetime$C$syn..token..Plus$GT$$GT$17ha4c1312ea9e80a0aE', symObjAddr: 0x9930, symBinAddr: 0x320C0, symSize: 0xD0 }
  - { offsetInCU: 0x1E, offset: 0x10ABC0, size: 0x8, addend: 0x0, symName: '__ZN40_$LT$F$u20$as$u20$syn..parse..Parser$GT$6parse217haa4ba05e53b7b784E', symObjAddr: 0x0, symBinAddr: 0x32190, symSize: 0x670 }
  - { offsetInCU: 0x1AF4, offset: 0x10C696, size: 0x8, addend: 0x0, symName: '__ZN4core3ptr100drop_in_place$LT$core..option..Option$LT$alloc..boxed..Box$LT$syn..path..GenericArgument$GT$$GT$$GT$17h79068b3f65a6d283E', symObjAddr: 0x670, symBinAddr: 0x32800, symSize: 0x50 }
  - { offsetInCU: 0x1CC1, offset: 0x10C863, size: 0x8, addend: 0x0, symName: '__ZN4core3ptr102drop_in_place$LT$syn..punctuated..Punctuated$LT$syn..path..GenericArgument$C$syn..token..Comma$GT$$GT$17hda74076e6ee86baaE', symObjAddr: 0x6C0, symBinAddr: 0x32850, symSize: 0xF0 }
  - { offsetInCU: 0x1FE1, offset: 0x10CB83, size: 0x8, addend: 0x0, symName: '__ZN4core3ptr103drop_in_place$LT$core..option..Option$LT$alloc..boxed..Box$LT$syn..generics..TypeParamBound$GT$$GT$$GT$17h6105af2c79dbf16bE', symObjAddr: 0x7B0, symBinAddr: 0x32940, symSize: 0x50 }
  - { offsetInCU: 0x21EC, offset: 0x10CD8E, size: 0x8, addend: 0x0, symName: '__ZN4core3ptr103drop_in_place$LT$syn..punctuated..Punctuated$LT$syn..generics..GenericParam$C$syn..token..Comma$GT$$GT$17h8fbe9cba6186870eE', symObjAddr: 0x800, symBinAddr: 0x32990, symSize: 0xF0 }
  - { offsetInCU: 0x27A1, offset: 0x10D343, size: 0x8, addend: 0x0, symName: '__ZN4core3ptr104drop_in_place$LT$syn..punctuated..Punctuated$LT$syn..generics..TypeParamBound$C$syn..token..Plus$GT$$GT$17hbc10fd9715d427b4E', symObjAddr: 0x8F0, symBinAddr: 0x32A80, symSize: 0x240 }
  - { offsetInCU: 0x301E, offset: 0x10DBC0, size: 0x8, addend: 0x0, symName: '__ZN4core3ptr34drop_in_place$LT$syn..lit..Lit$GT$17hdfd6ce7ed6ba0a80E', symObjAddr: 0xB30, symBinAddr: 0x32CC0, symSize: 0x120 }
  - { offsetInCU: 0x350C, offset: 0x10E0AE, size: 0x8, addend: 0x0, symName: '__ZN4core3ptr34drop_in_place$LT$syn..pat..Pat$GT$17h83c07ae8bb068e9dE', symObjAddr: 0xC50, symBinAddr: 0x32DE0, symSize: 0xF40 }
  - { offsetInCU: 0x6F75, offset: 0x111B17, size: 0x8, addend: 0x0, symName: '__ZN4core3ptr34drop_in_place$LT$syn..ty..Type$GT$17hc7244d5890888a37E', symObjAddr: 0x1B90, symBinAddr: 0x33D20, symSize: 0x580 }
  - { offsetInCU: 0x87FE, offset: 0x1133A0, size: 0x8, addend: 0x0, symName: '__ZN4core3ptr36drop_in_place$LT$syn..expr..Expr$GT$17hf50a31c415a65710E', symObjAddr: 0x2110, symBinAddr: 0x342A0, symSize: 0x2730 }
  - { offsetInCU: 0x11C5E, offset: 0x11C800, size: 0x8, addend: 0x0, symName: '__ZN4core3ptr36drop_in_place$LT$syn..mac..Macro$GT$17h71d54b4cf4025904E', symObjAddr: 0x4840, symBinAddr: 0x369D0, symSize: 0xE0 }
  - { offsetInCU: 0x11FE8, offset: 0x11CB8A, size: 0x8, addend: 0x0, symName: '__ZN4core3ptr36drop_in_place$LT$syn..path..Path$GT$17h41d4f4933b224aa4E', symObjAddr: 0x4920, symBinAddr: 0x36AB0, symSize: 0x240 }
  - { offsetInCU: 0x12982, offset: 0x11D524, size: 0x8, addend: 0x0, symName: '__ZN4core3ptr37drop_in_place$LT$syn..stmt..Block$GT$17h195dab821d86e03cE', symObjAddr: 0x4B60, symBinAddr: 0x36CF0, symSize: 0xD0 }
  - { offsetInCU: 0x12C59, offset: 0x11D7FB, size: 0x8, addend: 0x0, symName: '__ZN4core3ptr38drop_in_place$LT$syn..expr..Member$GT$17h8d878462faa898c3E', symObjAddr: 0x4C30, symBinAddr: 0x36DC0, symSize: 0x30 }
  - { offsetInCU: 0x12D55, offset: 0x11D8F7, size: 0x8, addend: 0x0, symName: '__ZN4core3ptr39drop_in_place$LT$proc_macro2..Ident$GT$17hfddcb13090b7465eE', symObjAddr: 0x4C60, symBinAddr: 0x36DF0, symSize: 0x30 }
  - { offsetInCU: 0x12F68, offset: 0x11DB0A, size: 0x8, addend: 0x0, symName: '__ZN4core3ptr39drop_in_place$LT$syn..buffer..Entry$GT$17h74a1e70424852aa6E', symObjAddr: 0x4C90, symBinAddr: 0x36E20, symSize: 0xB0 }
  - { offsetInCU: 0x132F3, offset: 0x11DE95, size: 0x8, addend: 0x0, symName: '__ZN4core3ptr40drop_in_place$LT$syn..ty..ReturnType$GT$17hd05e1b426b4e9c43E', symObjAddr: 0x4D40, symBinAddr: 0x36ED0, symSize: 0x50 }
  - { offsetInCU: 0x13463, offset: 0x11E005, size: 0x8, addend: 0x0, symName: '__ZN4core3ptr41drop_in_place$LT$syn..expr..ExprConst$GT$17h0116f0cfd7172504E', symObjAddr: 0x4D90, symBinAddr: 0x36F20, symSize: 0x180 }
  - { offsetInCU: 0x13A1C, offset: 0x11E5BE, size: 0x8, addend: 0x0, symName: '__ZN4core3ptr44drop_in_place$LT$syn..lifetime..Lifetime$GT$17h6230756a841f0187E', symObjAddr: 0x4F10, symBinAddr: 0x370A0, symSize: 0x30 }
  - { offsetInCU: 0x13B18, offset: 0x11E6BA, size: 0x8, addend: 0x0, symName: '__ZN4core3ptr44drop_in_place$LT$syn..parse..ParseBuffer$GT$17hac3aa745defe75fcE', symObjAddr: 0x4F40, symBinAddr: 0x370D0, symSize: 0x70 }
  - { offsetInCU: 0x13E94, offset: 0x11EA36, size: 0x8, addend: 0x0, symName: '__ZN4core3ptr45drop_in_place$LT$proc_macro2..TokenStream$GT$17h2ec36cca4b774820E', symObjAddr: 0x4FB0, symBinAddr: 0x37140, symSize: 0x140 }
  - { offsetInCU: 0x142F0, offset: 0x11EE92, size: 0x8, addend: 0x0, symName: '__ZN4core3ptr45drop_in_place$LT$syn..buffer..TokenBuffer$GT$17h3125403bdc4b6f29E', symObjAddr: 0x50F0, symBinAddr: 0x37280, symSize: 0xC0 }
  - { offsetInCU: 0x14558, offset: 0x11F0FA, size: 0x8, addend: 0x0, symName: '__ZN4core3ptr45drop_in_place$LT$syn..generics..TypeParam$GT$17h9d20c0be98b01247E', symObjAddr: 0x51B0, symBinAddr: 0x37340, symSize: 0x230 }
  - { offsetInCU: 0x14D99, offset: 0x11F93B, size: 0x8, addend: 0x0, symName: '__ZN4core3ptr46drop_in_place$LT$syn..generics..ConstParam$GT$17h51f432478005868aE', symObjAddr: 0x53E0, symBinAddr: 0x37570, symSize: 0x150 }
  - { offsetInCU: 0x151E6, offset: 0x11FD88, size: 0x8, addend: 0x0, symName: '__ZN4core3ptr47drop_in_place$LT$syn..path..GenericArgument$GT$17hcfca7f13f81d5c1eE', symObjAddr: 0x5530, symBinAddr: 0x376C0, symSize: 0x450 }
  - { offsetInCU: 0x15F5C, offset: 0x120AFE, size: 0x8, addend: 0x0, symName: '__ZN4core3ptr49drop_in_place$LT$syn..generics..LifetimeParam$GT$17h62c708931905b6c9E', symObjAddr: 0x5980, symBinAddr: 0x37B10, symSize: 0xF0 }
  - { offsetInCU: 0x1633F, offset: 0x120EE1, size: 0x8, addend: 0x0, symName: '__ZN4core3ptr50drop_in_place$LT$syn..generics..TypeParamBound$GT$17h0e46ecd98a045134E', symObjAddr: 0x5A70, symBinAddr: 0x37C00, symSize: 0xA0 }
  - { offsetInCU: 0x164A5, offset: 0x121047, size: 0x8, addend: 0x0, symName: '__ZN4core3ptr58drop_in_place$LT$alloc..vec..Vec$LT$syn..expr..Arm$GT$$GT$17h01078ebe5a85e687E', symObjAddr: 0x5B10, symBinAddr: 0x37CA0, symSize: 0xD0 }
  - { offsetInCU: 0x16765, offset: 0x121307, size: 0x8, addend: 0x0, symName: '__ZN4core3ptr59drop_in_place$LT$alloc..boxed..Box$LT$syn..pat..Pat$GT$$GT$17hc3b2199e3d116abfE', symObjAddr: 0x5BE0, symBinAddr: 0x37D70, symSize: 0x50 }
  - { offsetInCU: 0x168BE, offset: 0x121460, size: 0x8, addend: 0x0, symName: '__ZN4core3ptr59drop_in_place$LT$alloc..boxed..Box$LT$syn..ty..Type$GT$$GT$17he0a2a879fb80c64aE', symObjAddr: 0x5C30, symBinAddr: 0x37DC0, symSize: 0x50 }
  - { offsetInCU: 0x16A17, offset: 0x1215B9, size: 0x8, addend: 0x0, symName: '__ZN4core3ptr61drop_in_place$LT$alloc..boxed..Box$LT$syn..expr..Expr$GT$$GT$17h3e09e56e3b8a0adaE', symObjAddr: 0x5C80, symBinAddr: 0x37E10, symSize: 0x50 }
  - { offsetInCU: 0x16B70, offset: 0x121712, size: 0x8, addend: 0x0, symName: '__ZN4core3ptr61drop_in_place$LT$syn..path..ParenthesizedGenericArguments$GT$17h0b1955e54d647201E', symObjAddr: 0x5CD0, symBinAddr: 0x37E60, symSize: 0x170 }
  - { offsetInCU: 0x17179, offset: 0x121D1B, size: 0x8, addend: 0x0, symName: '__ZN4core3ptr63drop_in_place$LT$alloc..boxed..Box$LT$syn..lit..LitRepr$GT$$GT$17h7787758ecda52ad2E', symObjAddr: 0x5E40, symBinAddr: 0x37FD0, symSize: 0x60 }
  - { offsetInCU: 0x17480, offset: 0x122022, size: 0x8, addend: 0x0, symName: '__ZN4core3ptr64drop_in_place$LT$alloc..boxed..Box$LT$syn..pat..FieldPat$GT$$GT$17hd89ed2533ebe6692E', symObjAddr: 0x5EA0, symBinAddr: 0x38030, symSize: 0x140 }
  - { offsetInCU: 0x17B4D, offset: 0x1226EF, size: 0x8, addend: 0x0, symName: '__ZN4core3ptr64drop_in_place$LT$alloc..boxed..Box$LT$syn..ty..BareFnArg$GT$$GT$17h4b707abec52795d6E', symObjAddr: 0x5FE0, symBinAddr: 0x38170, symSize: 0x140 }
  - { offsetInCU: 0x180A2, offset: 0x122C44, size: 0x8, addend: 0x0, symName: '__ZN4core3ptr65drop_in_place$LT$alloc..vec..Vec$LT$proc_macro..TokenTree$GT$$GT$17h46e198de6234e700E', symObjAddr: 0x6120, symBinAddr: 0x382B0, symSize: 0x110 }
  - { offsetInCU: 0x1849A, offset: 0x12303C, size: 0x8, addend: 0x0, symName: '__ZN4core3ptr65drop_in_place$LT$core..option..Option$LT$syn..expr..Label$GT$$GT$17h4ee09cf72cdeb66aE', symObjAddr: 0x6230, symBinAddr: 0x383C0, symSize: 0x30 }
  - { offsetInCU: 0x185D4, offset: 0x123176, size: 0x8, addend: 0x0, symName: '__ZN4core3ptr66drop_in_place$LT$core..option..Option$LT$syn..pat..PatRest$GT$$GT$17hb4ee49c6cec7ff2cE', symObjAddr: 0x6260, symBinAddr: 0x383F0, symSize: 0xE0 }
  - { offsetInCU: 0x188C8, offset: 0x12346A, size: 0x8, addend: 0x0, symName: '__ZN4core3ptr67drop_in_place$LT$alloc..boxed..Box$LT$syn..expr..FieldValue$GT$$GT$17h15dcfd22497e7876E', symObjAddr: 0x6340, symBinAddr: 0x384D0, symSize: 0x140 }
  - { offsetInCU: 0x18E1C, offset: 0x1239BE, size: 0x8, addend: 0x0, symName: '__ZN4core3ptr70drop_in_place$LT$core..option..Option$LT$syn..ty..BareVariadic$GT$$GT$17hee471d3d0e0874a7E', symObjAddr: 0x6480, symBinAddr: 0x38610, symSize: 0x100 }
  - { offsetInCU: 0x19253, offset: 0x123DF5, size: 0x8, addend: 0x0, symName: '__ZN4core3ptr72drop_in_place$LT$alloc..boxed..Box$LT$syn..path..GenericArgument$GT$$GT$17h6a6d601726a47735E', symObjAddr: 0x6580, symBinAddr: 0x38710, symSize: 0x2B0 }
  - { offsetInCU: 0x19C64, offset: 0x124806, size: 0x8, addend: 0x0, symName: '__ZN4core3ptr72drop_in_place$LT$core..option..Option$LT$syn..lifetime..Lifetime$GT$$GT$17hca91fdfa0b190fe5E', symObjAddr: 0x6830, symBinAddr: 0x389C0, symSize: 0x30 }
  - { offsetInCU: 0x19D7F, offset: 0x124921, size: 0x8, addend: 0x0, symName: '__ZN4core3ptr73drop_in_place$LT$alloc..boxed..Box$LT$syn..generics..GenericParam$GT$$GT$17hb39646a8590c81fbE', symObjAddr: 0x6860, symBinAddr: 0x389F0, symSize: 0x80 }
  - { offsetInCU: 0x19EF5, offset: 0x124A97, size: 0x8, addend: 0x0, symName: '__ZN4core3ptr75drop_in_place$LT$alloc..boxed..Box$LT$syn..generics..TypeParamBound$GT$$GT$17h53bdca6305f2cf16E', symObjAddr: 0x68E0, symBinAddr: 0x38A70, symSize: 0x180 }
  - { offsetInCU: 0x1A4E1, offset: 0x125083, size: 0x8, addend: 0x0, symName: '__ZN4core3ptr86drop_in_place$LT$syn..punctuated..Punctuated$LT$syn..pat..Pat$C$syn..token..Or$GT$$GT$17h90b450e7ece0e32cE', symObjAddr: 0x6A60, symBinAddr: 0x38BF0, symSize: 0x120 }
  - { offsetInCU: 0x1A95C, offset: 0x1254FE, size: 0x8, addend: 0x0, symName: '__ZN4core3ptr87drop_in_place$LT$core..option..Option$LT$alloc..boxed..Box$LT$syn..pat..Pat$GT$$GT$$GT$17hdc6dfb7b8fcacd92E', symObjAddr: 0x6B80, symBinAddr: 0x38D10, symSize: 0x50 }
  - { offsetInCU: 0x1AACC, offset: 0x12566E, size: 0x8, addend: 0x0, symName: '__ZN4core3ptr87drop_in_place$LT$core..option..Option$LT$alloc..boxed..Box$LT$syn..ty..Type$GT$$GT$$GT$17h4b51756b645a661fE', symObjAddr: 0x6BD0, symBinAddr: 0x38D60, symSize: 0x50 }
  - { offsetInCU: 0x1AC3C, offset: 0x1257DE, size: 0x8, addend: 0x0, symName: '__ZN4core3ptr89drop_in_place$LT$core..option..Option$LT$alloc..boxed..Box$LT$syn..expr..Expr$GT$$GT$$GT$17h024369101b73da85E', symObjAddr: 0x6C20, symBinAddr: 0x38DB0, symSize: 0x50 }
  - { offsetInCU: 0x1ADEA, offset: 0x12598C, size: 0x8, addend: 0x0, symName: '__ZN4core3ptr89drop_in_place$LT$syn..punctuated..Punctuated$LT$syn..pat..Pat$C$syn..token..Comma$GT$$GT$17hd5461753b18fcbecE', symObjAddr: 0x6C70, symBinAddr: 0x38E00, symSize: 0x120 }
  - { offsetInCU: 0x1B2BA, offset: 0x125E5C, size: 0x8, addend: 0x0, symName: '__ZN4core3ptr91drop_in_place$LT$syn..punctuated..Punctuated$LT$syn..expr..Expr$C$syn..token..Comma$GT$$GT$17hd1b87278b89f2cc0E', symObjAddr: 0x6D90, symBinAddr: 0x38F20, symSize: 0x120 }
  - { offsetInCU: 0x1B748, offset: 0x1262EA, size: 0x8, addend: 0x0, symName: '__ZN4core3ptr94drop_in_place$LT$syn..punctuated..Punctuated$LT$syn..pat..FieldPat$C$syn..token..Comma$GT$$GT$17h261f070161247cbbE', symObjAddr: 0x6EB0, symBinAddr: 0x39040, symSize: 0xF0 }
  - { offsetInCU: 0x1BA47, offset: 0x1265E9, size: 0x8, addend: 0x0, symName: '__ZN4core3ptr94drop_in_place$LT$syn..punctuated..Punctuated$LT$syn..ty..BareFnArg$C$syn..token..Comma$GT$$GT$17h6f1b028eed5acd19E', symObjAddr: 0x6FA0, symBinAddr: 0x39130, symSize: 0xF0 }
  - { offsetInCU: 0x1BD48, offset: 0x1268EA, size: 0x8, addend: 0x0, symName: '__ZN4core3ptr96drop_in_place$LT$core..option..Option$LT$alloc..boxed..Box$LT$syn..path..PathSegment$GT$$GT$$GT$17h9728ba401e7d1bd9E', symObjAddr: 0x7090, symBinAddr: 0x39220, symSize: 0x1A0 }
  - { offsetInCU: 0x1C409, offset: 0x126FAB, size: 0x8, addend: 0x0, symName: '__ZN4core3ptr97drop_in_place$LT$syn..punctuated..Punctuated$LT$syn..expr..FieldValue$C$syn..token..Comma$GT$$GT$17hff5eb09736982b92E', symObjAddr: 0x7230, symBinAddr: 0x393C0, symSize: 0xF0 }
  - { offsetInCU: 0x1C782, offset: 0x127324, size: 0x8, addend: 0x0, symName: '__ZN4core3ptr98drop_in_place$LT$syn..punctuated..Punctuated$LT$syn..lifetime..Lifetime$C$syn..token..Plus$GT$$GT$17ha4c1312ea9e80a0aE', symObjAddr: 0x7320, symBinAddr: 0x394B0, symSize: 0xC6 }
  - { offsetInCU: 0x1F82C, offset: 0x12A3CE, size: 0x8, addend: 0x0, symName: '__ZN40_$LT$F$u20$as$u20$syn..parse..Parser$GT$6parse217haa4ba05e53b7b784E', symObjAddr: 0x0, symBinAddr: 0x32190, symSize: 0x670 }
  - { offsetInCU: 0x1A7, offset: 0x136142, size: 0x8, addend: 0x0, symName: '__ZN77_$LT$$LP$A$C$B$RP$$u20$as$u20$proc_macro..bridge..rpc..DecodeMut$LT$S$GT$$GT$6decode17h85dd5a6d2512d7e9E', symObjAddr: 0xA30, symBinAddr: 0x39E20, symSize: 0xAA }
  - { offsetInCU: 0xBA1, offset: 0x136B3C, size: 0x8, addend: 0x0, symName: __ZN10proc_macro6bridge6client10run_client17h1e5aabc2901eb5ebE, symObjAddr: 0x190, symBinAddr: 0x39580, symSize: 0x2E0 }
  - { offsetInCU: 0x12D5, offset: 0x137270, size: 0x8, addend: 0x0, symName: __ZN10proc_macro6bridge6client10run_client17h6512ffcecba2f1e7E, symObjAddr: 0x470, symBinAddr: 0x39860, symSize: 0x2E0 }
  - { offsetInCU: 0x19AF, offset: 0x13794A, size: 0x8, addend: 0x0, symName: __ZN10proc_macro6bridge6client10run_client17hf05858c51df808c8E, symObjAddr: 0x750, symBinAddr: 0x39B40, symSize: 0x2E0 }
  - { offsetInCU: 0x1E, offset: 0x13A1FF, size: 0x8, addend: 0x0, symName: '__ZN4core3ptr73drop_in_place$LT$core..cell..UnsafeCell$LT$syn..parse..Unexpected$GT$$GT$17h1144bbb5f0c89f07E.llvm.2427875693451258562', symObjAddr: 0x0, symBinAddr: 0x39ED0, symSize: 0x50 }
  - { offsetInCU: 0xB7D, offset: 0x13AD5E, size: 0x8, addend: 0x0, symName: '__ZN4core3ptr73drop_in_place$LT$core..cell..UnsafeCell$LT$syn..parse..Unexpected$GT$$GT$17h1144bbb5f0c89f07E.llvm.2427875693451258562', symObjAddr: 0x0, symBinAddr: 0x39ED0, symSize: 0x50 }
  - { offsetInCU: 0x171C, offset: 0x13B8FD, size: 0x8, addend: 0x0, symName: '__ZN68_$LT$alloc..rc..Rc$LT$T$C$A$GT$$u20$as$u20$core..ops..drop..Drop$GT$4drop17h2248e6140f14d153E', symObjAddr: 0x100, symBinAddr: 0x39F20, symSize: 0xE0 }
  - { offsetInCU: 0x1C3D, offset: 0x13BE1E, size: 0x8, addend: 0x0, symName: '__ZN68_$LT$alloc..rc..Rc$LT$T$C$A$GT$$u20$as$u20$core..ops..drop..Drop$GT$4drop17h97126e9f1438a7edE', symObjAddr: 0x1E0, symBinAddr: 0x3A000, symSize: 0x40 }
  - { offsetInCU: 0x2149, offset: 0x13C32A, size: 0x8, addend: 0x0, symName: '__ZN80_$LT$alloc..rc..UniqueRcUninit$LT$T$C$A$GT$$u20$as$u20$core..ops..drop..Drop$GT$4drop17h07fcd2f014aa24cfE', symObjAddr: 0x220, symBinAddr: 0x3A040, symSize: 0x4F }
  - { offsetInCU: 0x7AF, offset: 0x13D52A, size: 0x8, addend: 0x0, symName: '__ZN68_$LT$$RF$str$u20$as$u20$proc_macro..bridge..rpc..Encode$LT$S$GT$$GT$6encode17h8bb7f74d66f83664E', symObjAddr: 0x80, symBinAddr: 0x3A090, symSize: 0x230 }
  - { offsetInCU: 0x1E, offset: 0x13DB87, size: 0x8, addend: 0x0, symName: '__ZN120_$LT$proc_macro2..fallback..TokenStream$u20$as$u20$core..iter..traits..collect..Extend$LT$proc_macro2..TokenTree$GT$$GT$6extend17h41330a7262564be6E', symObjAddr: 0x0, symBinAddr: 0x3A2C0, symSize: 0x280 }
  - { offsetInCU: 0x9AC, offset: 0x13E515, size: 0x8, addend: 0x0, symName: '__ZN120_$LT$proc_macro2..fallback..TokenStream$u20$as$u20$core..iter..traits..collect..Extend$LT$proc_macro2..TokenTree$GT$$GT$6extend17h41330a7262564be6E', symObjAddr: 0x0, symBinAddr: 0x3A2C0, symSize: 0x280 }
  - { offsetInCU: 0x1B81, offset: 0x13F6EA, size: 0x8, addend: 0x0, symName: '__ZN4core3ptr45drop_in_place$LT$proc_macro2..TokenStream$GT$17h2ec36cca4b774820E', symObjAddr: 0x280, symBinAddr: 0x3A540, symSize: 0x140 }
  - { offsetInCU: 0x1FDD, offset: 0x13FB46, size: 0x8, addend: 0x0, symName: '__ZN4core3ptr56drop_in_place$LT$proc_macro2..token_stream..IntoIter$GT$17h8454fd931d5fdda6E', symObjAddr: 0x3C0, symBinAddr: 0x3A680, symSize: 0x20 }
  - { offsetInCU: 0x208D, offset: 0x13FBF6, size: 0x8, addend: 0x0, symName: '__ZN4core3ptr65drop_in_place$LT$alloc..vec..Vec$LT$proc_macro..TokenTree$GT$$GT$17h46e198de6234e700E', symObjAddr: 0x3E0, symBinAddr: 0x3A6A0, symSize: 0x110 }
  - { offsetInCU: 0x1E, offset: 0x141919, size: 0x8, addend: 0x0, symName: __ZN3syn5error4new217h09472dc3b2b58ec9E, symObjAddr: 0x0, symBinAddr: 0x3A7B0, symSize: 0x100 }
  - { offsetInCU: 0x35, offset: 0x141930, size: 0x8, addend: 0x0, symName: _anon.b057c162b85ee0f58012efc844e18042.0.llvm.4179248117857275488, symObjAddr: 0x9D0, symBinAddr: 0x2604B8, symSize: 0x0 }
  - { offsetInCU: 0x154, offset: 0x141A4F, size: 0x8, addend: 0x0, symName: '__ZN58_$LT$alloc..string..String$u20$as$u20$core..fmt..Write$GT$10write_char17h04bc467bd68a934bE.llvm.4179248117857275488', symObjAddr: 0x730, symBinAddr: 0x3AEE0, symSize: 0x140 }
  - { offsetInCU: 0x559, offset: 0x141E54, size: 0x8, addend: 0x0, symName: '__ZN58_$LT$alloc..string..String$u20$as$u20$core..fmt..Write$GT$9write_str17h46a93205c3443fbaE.llvm.4179248117857275488', symObjAddr: 0x870, symBinAddr: 0x3B020, symSize: 0x5B }
  - { offsetInCU: 0xC38, offset: 0x142533, size: 0x8, addend: 0x0, symName: '__ZN4core3ptr42drop_in_place$LT$alloc..string..String$GT$17hecb60af1c75e0660E.llvm.4179248117857275488', symObjAddr: 0x4A0, symBinAddr: 0x3AC50, symSize: 0x20 }
  - { offsetInCU: 0xE76, offset: 0x142771, size: 0x8, addend: 0x0, symName: '__ZN4core3ptr45drop_in_place$LT$proc_macro2..TokenStream$GT$17h2ec36cca4b774820E.llvm.4179248117857275488', symObjAddr: 0x4C0, symBinAddr: 0x3AC70, symSize: 0x140 }
  - { offsetInCU: 0x12D2, offset: 0x142BCD, size: 0x8, addend: 0x0, symName: '__ZN4core3ptr65drop_in_place$LT$alloc..vec..Vec$LT$proc_macro..TokenTree$GT$$GT$17h46e198de6234e700E.llvm.4179248117857275488', symObjAddr: 0x600, symBinAddr: 0x3ADB0, symSize: 0x110 }
  - { offsetInCU: 0x181C, offset: 0x143117, size: 0x8, addend: 0x0, symName: '__ZN53_$LT$core..fmt..Error$u20$as$u20$core..fmt..Debug$GT$3fmt17h03dc662ab152f3aeE.llvm.4179248117857275488', symObjAddr: 0x710, symBinAddr: 0x3AEC0, symSize: 0x20 }
  - { offsetInCU: 0x1B3C, offset: 0x143437, size: 0x8, addend: 0x0, symName: _anon.b057c162b85ee0f58012efc844e18042.4.llvm.4179248117857275488, symObjAddr: 0xA18, symBinAddr: 0x260500, symSize: 0x0 }
  - { offsetInCU: 0x1D28, offset: 0x143623, size: 0x8, addend: 0x0, symName: __ZN3syn5error4new217h09472dc3b2b58ec9E, symObjAddr: 0x0, symBinAddr: 0x3A7B0, symSize: 0x100 }
  - { offsetInCU: 0x2080, offset: 0x14397B, size: 0x8, addend: 0x0, symName: __ZN3syn5error5Error11new_spanned17h7ce8644ceb713b5dE, symObjAddr: 0x100, symBinAddr: 0x3A8B0, symSize: 0x190 }
  - { offsetInCU: 0x22FB, offset: 0x143BF6, size: 0x8, addend: 0x0, symName: __ZN3syn5error5Error11new_spanned17had1d3c7b85e90431E, symObjAddr: 0x290, symBinAddr: 0x3AA40, symSize: 0x120 }
  - { offsetInCU: 0x252B, offset: 0x143E26, size: 0x8, addend: 0x0, symName: __ZN3syn5error5Error3new17hd7b95790bb87bb00E, symObjAddr: 0x3B0, symBinAddr: 0x3AB60, symSize: 0xF0 }
  - { offsetInCU: 0x1E, offset: 0x14D568, size: 0x8, addend: 0x0, symName: __ZN4core3fmt5Write9write_fmt17hc8d46a2b169c765eE, symObjAddr: 0x0, symBinAddr: 0x3B080, symSize: 0x20 }
  - { offsetInCU: 0x98, offset: 0x14D5E2, size: 0x8, addend: 0x0, symName: '__ZN58_$LT$alloc..string..String$u20$as$u20$core..fmt..Write$GT$10write_char17h04bc467bd68a934bE', symObjAddr: 0x40, symBinAddr: 0x3B0C0, symSize: 0x140 }
  - { offsetInCU: 0x49D, offset: 0x14D9E7, size: 0x8, addend: 0x0, symName: '__ZN58_$LT$alloc..string..String$u20$as$u20$core..fmt..Write$GT$9write_str17h46a93205c3443fbaE', symObjAddr: 0x180, symBinAddr: 0x3B200, symSize: 0x5B }
  - { offsetInCU: 0xAC1, offset: 0x14E00B, size: 0x8, addend: 0x0, symName: '__ZN4core3ptr42drop_in_place$LT$alloc..string..String$GT$17hecb60af1c75e0660E', symObjAddr: 0x20, symBinAddr: 0x3B0A0, symSize: 0x20 }
  - { offsetInCU: 0xE54, offset: 0x14E39E, size: 0x8, addend: 0x0, symName: __ZN4core3fmt5Write9write_fmt17hc8d46a2b169c765eE, symObjAddr: 0x0, symBinAddr: 0x3B080, symSize: 0x20 }
  - { offsetInCU: 0x1E, offset: 0x14EE53, size: 0x8, addend: 0x0, symName: '__ZN4core3ptr43drop_in_place$LT$proc_macro2..TokenTree$GT$17hc75a36284659d149E.llvm.15169355118570396423', symObjAddr: 0x0, symBinAddr: 0x3B260, symSize: 0xB0 }
  - { offsetInCU: 0xF36, offset: 0x14FD6B, size: 0x8, addend: 0x0, symName: '__ZN4core3ptr43drop_in_place$LT$proc_macro2..TokenTree$GT$17hc75a36284659d149E.llvm.15169355118570396423', symObjAddr: 0x0, symBinAddr: 0x3B260, symSize: 0xB0 }
  - { offsetInCU: 0x1BF6, offset: 0x150A2B, size: 0x8, addend: 0x0, symName: '__ZN86_$LT$alloc..vec..into_iter..IntoIter$LT$T$C$A$GT$$u20$as$u20$core..ops..drop..Drop$GT$4drop17h2d0a9e443d0d9317E', symObjAddr: 0xB0, symBinAddr: 0x3B310, symSize: 0xD0 }
  - { offsetInCU: 0x1F60, offset: 0x150D95, size: 0x8, addend: 0x0, symName: '__ZN86_$LT$alloc..vec..into_iter..IntoIter$LT$T$C$A$GT$$u20$as$u20$core..ops..drop..Drop$GT$4drop17hae178c3f5f821456E', symObjAddr: 0x180, symBinAddr: 0x3B3E0, symSize: 0x105 }
  - { offsetInCU: 0x1E, offset: 0x151A89, size: 0x8, addend: 0x0, symName: '__ZN115_$LT$proc_macro2..imp..TokenStream$u20$as$u20$core..iter..traits..collect..Extend$LT$proc_macro2..TokenTree$GT$$GT$6extend17h9bf32abc46e81f27E', symObjAddr: 0x0, symBinAddr: 0x3B4F0, symSize: 0x110 }
  - { offsetInCU: 0x78B, offset: 0x1521F6, size: 0x8, addend: 0x0, symName: '__ZN115_$LT$proc_macro2..imp..TokenStream$u20$as$u20$core..iter..traits..collect..Extend$LT$proc_macro2..TokenTree$GT$$GT$6extend17h9bf32abc46e81f27E', symObjAddr: 0x0, symBinAddr: 0x3B4F0, symSize: 0x110 }
  - { offsetInCU: 0x1675, offset: 0x1530E0, size: 0x8, addend: 0x0, symName: '__ZN4core3ptr56drop_in_place$LT$proc_macro2..token_stream..IntoIter$GT$17h8454fd931d5fdda6E.llvm.9506418840979547437', symObjAddr: 0x130, symBinAddr: 0x3B600, symSize: 0x20 }
  - { offsetInCU: 0x1E, offset: 0x1534A6, size: 0x8, addend: 0x0, symName: '__ZN10proc_macro6bridge104_$LT$impl$u20$proc_macro..bridge..rpc..Encode$LT$S$GT$$u20$for$u20$core..result..Result$LT$T$C$E$GT$$GT$6encode17h91783176ee9faebbE', symObjAddr: 0x0, symBinAddr: 0x3B620, symSize: 0x280 }
  - { offsetInCU: 0x170, offset: 0x1535F8, size: 0x8, addend: 0x0, symName: '__ZN10proc_macro6bridge104_$LT$impl$u20$proc_macro..bridge..rpc..Encode$LT$S$GT$$u20$for$u20$core..result..Result$LT$T$C$E$GT$$GT$6encode17h91783176ee9faebbE', symObjAddr: 0x0, symBinAddr: 0x3B620, symSize: 0x280 }
  - { offsetInCU: 0x4FE, offset: 0x153986, size: 0x8, addend: 0x0, symName: '__ZN10proc_macro6bridge104_$LT$impl$u20$proc_macro..bridge..rpc..Encode$LT$S$GT$$u20$for$u20$core..result..Result$LT$T$C$E$GT$$GT$6encode17he6edb105e73dbfc2E', symObjAddr: 0x280, symBinAddr: 0x3B8A0, symSize: 0x300 }
  - { offsetInCU: 0x1E, offset: 0x15472A, size: 0x8, addend: 0x0, symName: '__ZN10proc_macro6bridge100_$LT$impl$u20$proc_macro..bridge..rpc..Encode$LT$S$GT$$u20$for$u20$core..option..Option$LT$T$GT$$GT$6encode17h8a10407e0f08beffE', symObjAddr: 0x0, symBinAddr: 0x3BBA0, symSize: 0x350 }
  - { offsetInCU: 0x354, offset: 0x154A60, size: 0x8, addend: 0x0, symName: '__ZN10proc_macro6bridge100_$LT$impl$u20$proc_macro..bridge..rpc..Encode$LT$S$GT$$u20$for$u20$core..option..Option$LT$T$GT$$GT$6encode17h8a10407e0f08beffE', symObjAddr: 0x0, symBinAddr: 0x3BBA0, symSize: 0x350 }
  - { offsetInCU: 0x8FB, offset: 0x155007, size: 0x8, addend: 0x0, symName: '__ZN10proc_macro6bridge100_$LT$impl$u20$proc_macro..bridge..rpc..Encode$LT$S$GT$$u20$for$u20$core..option..Option$LT$T$GT$$GT$6encode17hdebf461702d2af49E', symObjAddr: 0x350, symBinAddr: 0x3BEF0, symSize: 0x23C }
  - { offsetInCU: 0x1E, offset: 0x1557F7, size: 0x8, addend: 0x0, symName: __ZN10proc_macro6bridge14selfless_reify31reify_to_extern_c_fn_hrt_bridge7wrapper17h408147c365a5db82E, symObjAddr: 0x0, symBinAddr: 0x3C130, symSize: 0x30 }
  - { offsetInCU: 0x221, offset: 0x1559FA, size: 0x8, addend: 0x0, symName: __ZN10proc_macro6bridge14selfless_reify31reify_to_extern_c_fn_hrt_bridge7wrapper17h408147c365a5db82E, symObjAddr: 0x0, symBinAddr: 0x3C130, symSize: 0x30 }
  - { offsetInCU: 0x29A, offset: 0x155A73, size: 0x8, addend: 0x0, symName: __ZN10proc_macro6bridge14selfless_reify31reify_to_extern_c_fn_hrt_bridge7wrapper17hfa062303d2ac999bE, symObjAddr: 0x30, symBinAddr: 0x3C160, symSize: 0x30 }
  - { offsetInCU: 0x313, offset: 0x155AEC, size: 0x8, addend: 0x0, symName: __ZN10proc_macro6bridge14selfless_reify31reify_to_extern_c_fn_hrt_bridge7wrapper17hfe177f7ad08a0d4fE, symObjAddr: 0x60, symBinAddr: 0x3C190, symSize: 0x25 }
  - { offsetInCU: 0x1E, offset: 0x155D5F, size: 0x8, addend: 0x0, symName: '__ZN4core3ptr45drop_in_place$LT$proc_macro2..TokenStream$GT$17h2ec36cca4b774820E.llvm.5900430191380323741', symObjAddr: 0x0, symBinAddr: 0x3C1C0, symSize: 0x140 }
  - { offsetInCU: 0xB2C, offset: 0x15686D, size: 0x8, addend: 0x0, symName: '__ZN4core3ptr45drop_in_place$LT$proc_macro2..TokenStream$GT$17h2ec36cca4b774820E.llvm.5900430191380323741', symObjAddr: 0x0, symBinAddr: 0x3C1C0, symSize: 0x140 }
  - { offsetInCU: 0xF88, offset: 0x156CC9, size: 0x8, addend: 0x0, symName: '__ZN4core3ptr65drop_in_place$LT$alloc..vec..Vec$LT$proc_macro..TokenTree$GT$$GT$17h46e198de6234e700E.llvm.5900430191380323741', symObjAddr: 0x140, symBinAddr: 0x3C300, symSize: 0x110 }
  - { offsetInCU: 0x1E, offset: 0x157A58, size: 0x8, addend: 0x0, symName: '__ZN77_$LT$$LP$A$C$B$RP$$u20$as$u20$proc_macro..bridge..rpc..DecodeMut$LT$S$GT$$GT$6decode17h85a4fafe23a43f7bE', symObjAddr: 0x0, symBinAddr: 0x3C410, symSize: 0xD0 }
  - { offsetInCU: 0xB4, offset: 0x157AEE, size: 0x8, addend: 0x0, symName: '__ZN77_$LT$$LP$A$C$B$RP$$u20$as$u20$proc_macro..bridge..rpc..DecodeMut$LT$S$GT$$GT$6decode17h85a4fafe23a43f7bE', symObjAddr: 0x0, symBinAddr: 0x3C410, symSize: 0xD0 }
  - { offsetInCU: 0xC87, offset: 0x1586C1, size: 0x8, addend: 0x0, symName: '__ZN77_$LT$$LP$A$C$B$RP$$u20$as$u20$proc_macro..bridge..rpc..DecodeMut$LT$S$GT$$GT$6decode17hb21dcf72bc654939E', symObjAddr: 0xD0, symBinAddr: 0x3C4E0, symSize: 0xCE }
  - { offsetInCU: 0x1E, offset: 0x15973A, size: 0x8, addend: 0x0, symName: '__ZN44_$LT$$RF$T$u20$as$u20$core..fmt..Display$GT$3fmt17h6c562adfd5c6372eE', symObjAddr: 0x0, symBinAddr: 0x3C5B0, symSize: 0x10 }
  - { offsetInCU: 0x64, offset: 0x159780, size: 0x8, addend: 0x0, symName: '__ZN44_$LT$$RF$T$u20$as$u20$core..fmt..Display$GT$3fmt17h6c562adfd5c6372eE', symObjAddr: 0x0, symBinAddr: 0x3C5B0, symSize: 0x10 }
  - { offsetInCU: 0x1E, offset: 0x159D49, size: 0x8, addend: 0x0, symName: '__ZN42_$LT$$RF$T$u20$as$u20$core..fmt..Debug$GT$3fmt17h2654254b09fb60f2E', symObjAddr: 0x0, symBinAddr: 0x3C5C0, symSize: 0x10 }
  - { offsetInCU: 0x99F, offset: 0x15A6CA, size: 0x8, addend: 0x0, symName: '__ZN42_$LT$$RF$T$u20$as$u20$core..fmt..Debug$GT$3fmt17h2654254b09fb60f2E', symObjAddr: 0x0, symBinAddr: 0x3C5C0, symSize: 0x10 }
  - { offsetInCU: 0x9E5, offset: 0x15A710, size: 0x8, addend: 0x0, symName: '__ZN42_$LT$$RF$T$u20$as$u20$core..fmt..Debug$GT$3fmt17ha34556009c8fc65eE', symObjAddr: 0x10, symBinAddr: 0x3C5D0, symSize: 0xD }
  - { offsetInCU: 0x1E, offset: 0x162C67, size: 0x8, addend: 0x0, symName: '__ZN42_$LT$$RF$T$u20$as$u20$core..fmt..Debug$GT$3fmt17h06c02adecedf4f95E', symObjAddr: 0x0, symBinAddr: 0x3C620, symSize: 0x10 }
  - { offsetInCU: 0x4FDC, offset: 0x167C25, size: 0x8, addend: 0x0, symName: '__ZN3syn4item7parsing63_$LT$impl$u20$syn..parse..Parse$u20$for$u20$syn..item..Item$GT$5parse17h80cf7aab904a267aE', symObjAddr: 0xCD50, symBinAddr: 0x48EA0, symSize: 0x190 }
  - { offsetInCU: 0x5569, offset: 0x1681B2, size: 0x8, addend: 0x0, symName: '__ZN3syn4item7parsing68_$LT$impl$u20$syn..parse..Parse$u20$for$u20$syn..item..ItemMacro$GT$5parse17hc5bb9427f98c7017E', symObjAddr: 0xCEE0, symBinAddr: 0x49030, symSize: 0x6B0 }
  - { offsetInCU: 0x61FA, offset: 0x168E43, size: 0x8, addend: 0x0, symName: '__ZN3syn4item7parsing74_$LT$impl$u20$syn..parse..Parse$u20$for$u20$syn..item..ItemExternCrate$GT$5parse17h6d46d67dd87b398fE', symObjAddr: 0xD590, symBinAddr: 0x496E0, symSize: 0x910 }
  - { offsetInCU: 0x75BC, offset: 0x16A205, size: 0x8, addend: 0x0, symName: '__ZN3syn4item7parsing75_$LT$impl$u20$syn..parse..Parse$u20$for$u20$syn..item..StaticMutability$GT$5parse17h60646f4bbad23fa9E', symObjAddr: 0x1E6F0, symBinAddr: 0x54160, symSize: 0xA0 }
  - { offsetInCU: 0x776D, offset: 0x16A3B6, size: 0x8, addend: 0x0, symName: '__ZN3syn4item7parsing68_$LT$impl$u20$syn..parse..Parse$u20$for$u20$syn..item..Signature$GT$5parse17h055acddcceb01c9aE', symObjAddr: 0xF690, symBinAddr: 0x49FF0, symSize: 0xA90 }
  - { offsetInCU: 0x8714, offset: 0x16B35D, size: 0x8, addend: 0x0, symName: '__ZN3syn4item7parsing67_$LT$impl$u20$syn..parse..Parse$u20$for$u20$syn..item..Receiver$GT$5parse17h7c38822b1e4d7a06E', symObjAddr: 0x10630, symBinAddr: 0x4AA80, symSize: 0xA20 }
  - { offsetInCU: 0x98D5, offset: 0x16C51E, size: 0x8, addend: 0x0, symName: '__ZN3syn4item7parsing66_$LT$impl$u20$syn..parse..Parse$u20$for$u20$syn..item..ItemMod$GT$5parse17h216506bc1f5b0b64E', symObjAddr: 0x11050, symBinAddr: 0x4B4A0, symSize: 0xD80 }
  - { offsetInCU: 0xB638, offset: 0x16E281, size: 0x8, addend: 0x0, symName: '__ZN3syn4item7parsing73_$LT$impl$u20$syn..parse..Parse$u20$for$u20$syn..item..ItemForeignMod$GT$5parse17ha80c1978f8841fabE', symObjAddr: 0x11DD0, symBinAddr: 0x4C220, symSize: 0x720 }
  - { offsetInCU: 0xCA12, offset: 0x16F65B, size: 0x8, addend: 0x0, symName: '__ZN3syn4item7parsing70_$LT$impl$u20$syn..parse..Parse$u20$for$u20$syn..item..ForeignItem$GT$5parse17hae52281c277c1a2fE', symObjAddr: 0x124F0, symBinAddr: 0x4C940, symSize: 0x19B0 }
  - { offsetInCU: 0x10EE8, offset: 0x173B31, size: 0x8, addend: 0x0, symName: '__ZN3syn4item7parsing69_$LT$impl$u20$syn..parse..Parse$u20$for$u20$syn..item..ItemStruct$GT$5parse17h5f37d45d0509ea74E', symObjAddr: 0x160C0, symBinAddr: 0x4E2F0, symSize: 0x720 }
  - { offsetInCU: 0x119D6, offset: 0x17461F, size: 0x8, addend: 0x0, symName: '__ZN3syn4item7parsing67_$LT$impl$u20$syn..parse..Parse$u20$for$u20$syn..item..ItemEnum$GT$5parse17hcfc041400e96f868E', symObjAddr: 0x167E0, symBinAddr: 0x4EA10, symSize: 0x720 }
  - { offsetInCU: 0x124C6, offset: 0x17510F, size: 0x8, addend: 0x0, symName: '__ZN3syn4item7parsing68_$LT$impl$u20$syn..parse..Parse$u20$for$u20$syn..item..ItemUnion$GT$5parse17h3bd0150048f99936E', symObjAddr: 0x16F00, symBinAddr: 0x4F130, symSize: 0x710 }
  - { offsetInCU: 0x12FAA, offset: 0x175BF3, size: 0x8, addend: 0x0, symName: '__ZN3syn4item7parsing68_$LT$impl$u20$syn..parse..Parse$u20$for$u20$syn..item..ItemTrait$GT$5parse17hba3917e64180f729E', symObjAddr: 0x17610, symBinAddr: 0x4F840, symSize: 0x630 }
  - { offsetInCU: 0x13CD4, offset: 0x17691D, size: 0x8, addend: 0x0, symName: '__ZN3syn4item7parsing68_$LT$impl$u20$syn..parse..Parse$u20$for$u20$syn..item..TraitItem$GT$5parse17h5e01dedab6d196dfE', symObjAddr: 0x17DA0, symBinAddr: 0x4FE70, symSize: 0x1B80 }
  - { offsetInCU: 0x198D0, offset: 0x17C519, size: 0x8, addend: 0x0, symName: '__ZN3syn4item7parsing70_$LT$impl$u20$syn..parse..Parse$u20$for$u20$syn..item..TraitItemFn$GT$5parse17h386721044cd912e3E', symObjAddr: 0x1A250, symBinAddr: 0x519F0, symSize: 0x850 }
  - { offsetInCU: 0x1AF06, offset: 0x17DB4F, size: 0x8, addend: 0x0, symName: '__ZN3syn4item7parsing67_$LT$impl$u20$syn..parse..Parse$u20$for$u20$syn..item..ImplItem$GT$5parse17h6b1c6f6f70b03df2E', symObjAddr: 0x1B350, symBinAddr: 0x52240, symSize: 0x1BE0 }
  - { offsetInCU: 0x2050C, offset: 0x183155, size: 0x8, addend: 0x0, symName: '__ZN3syn4item7parsing72_$LT$impl$u20$syn..parse..Parse$u20$for$u20$syn..item..ImplItemMacro$GT$5parse17h34a4a0c85418b70aE', symObjAddr: 0x1E3B0, symBinAddr: 0x53E20, symSize: 0x0 }
  - { offsetInCU: 0x20BD9, offset: 0x183822, size: 0x8, addend: 0x0, symName: '__ZN3syn4item8printing83_$LT$impl$u20$quote..to_tokens..ToTokens$u20$for$u20$syn..item..ItemExternCrate$GT$9to_tokens17hfe36bc772e4277a0E', symObjAddr: 0x1E790, symBinAddr: 0x54200, symSize: 0x250 }
  - { offsetInCU: 0x21195, offset: 0x183DDE, size: 0x8, addend: 0x0, symName: '__ZN3syn4item8printing78_$LT$impl$u20$quote..to_tokens..ToTokens$u20$for$u20$syn..item..ItemStatic$GT$9to_tokens17hbc3d5375fc6c771cE', symObjAddr: 0x1EB70, symBinAddr: 0x54450, symSize: 0x220 }
  - { offsetInCU: 0x216CB, offset: 0x184314, size: 0x8, addend: 0x0, symName: '__ZN3syn4item8printing75_$LT$impl$u20$quote..to_tokens..ToTokens$u20$for$u20$syn..item..ItemMod$GT$9to_tokens17h0200f7c6912b0a1cE', symObjAddr: 0x1F050, symBinAddr: 0x54670, symSize: 0x230 }
  - { offsetInCU: 0x21BC7, offset: 0x184810, size: 0x8, addend: 0x0, symName: '__ZN3syn4item8printing76_$LT$impl$u20$quote..to_tokens..ToTokens$u20$for$u20$syn..item..ItemType$GT$9to_tokens17he708c67807a0f5e7E', symObjAddr: 0x1F440, symBinAddr: 0x548A0, symSize: 0x1C0 }
  - { offsetInCU: 0x21F26, offset: 0x184B6F, size: 0x8, addend: 0x0, symName: '__ZN3syn4item8printing76_$LT$impl$u20$quote..to_tokens..ToTokens$u20$for$u20$syn..item..ItemEnum$GT$9to_tokens17h182a12d3a154632dE', symObjAddr: 0x1F600, symBinAddr: 0x54A60, symSize: 0x180 }
  - { offsetInCU: 0x2220B, offset: 0x184E54, size: 0x8, addend: 0x0, symName: '__ZN3syn4item8printing78_$LT$impl$u20$quote..to_tokens..ToTokens$u20$for$u20$syn..item..ItemStruct$GT$9to_tokens17h8172cc7233ca8fbeE', symObjAddr: 0x1F780, symBinAddr: 0x54BE0, symSize: 0x220 }
  - { offsetInCU: 0x225F3, offset: 0x18523C, size: 0x8, addend: 0x0, symName: '__ZN3syn4item8printing77_$LT$impl$u20$quote..to_tokens..ToTokens$u20$for$u20$syn..item..ItemUnion$GT$9to_tokens17h6c795ad402d2a166E', symObjAddr: 0x1F9A0, symBinAddr: 0x54E00, symSize: 0x180 }
  - { offsetInCU: 0x228FE, offset: 0x185547, size: 0x8, addend: 0x0, symName: '__ZN3syn4item8printing77_$LT$impl$u20$quote..to_tokens..ToTokens$u20$for$u20$syn..item..ItemTrait$GT$9to_tokens17h8121c5f1327add6eE', symObjAddr: 0x1FB20, symBinAddr: 0x54F80, symSize: 0x320 }
  - { offsetInCU: 0x2334B, offset: 0x185F94, size: 0x8, addend: 0x0, symName: '__ZN3syn4item8printing82_$LT$impl$u20$quote..to_tokens..ToTokens$u20$for$u20$syn..item..ItemTraitAlias$GT$9to_tokens17hc5f43bf815c68949E', symObjAddr: 0x1FE40, symBinAddr: 0x552A0, symSize: 0x330 }
  - { offsetInCU: 0x23C22, offset: 0x18686B, size: 0x8, addend: 0x0, symName: '__ZN3syn4item8printing76_$LT$impl$u20$quote..to_tokens..ToTokens$u20$for$u20$syn..item..ItemImpl$GT$9to_tokens17h0c3a9ddae74c937dE', symObjAddr: 0x20170, symBinAddr: 0x555D0, symSize: 0x340 }
  - { offsetInCU: 0x24471, offset: 0x1870BA, size: 0x8, addend: 0x0, symName: '__ZN3syn4item8printing77_$LT$impl$u20$quote..to_tokens..ToTokens$u20$for$u20$syn..item..ItemMacro$GT$9to_tokens17haec818905d80644fE', symObjAddr: 0x204B0, symBinAddr: 0x55910, symSize: 0x190 }
  - { offsetInCU: 0x248A5, offset: 0x1874EE, size: 0x8, addend: 0x0, symName: '__ZN3syn4item8printing82_$LT$impl$u20$quote..to_tokens..ToTokens$u20$for$u20$syn..item..TraitItemConst$GT$9to_tokens17h76e791416bf823d1E', symObjAddr: 0x20790, symBinAddr: 0x55AA0, symSize: 0x1C0 }
  - { offsetInCU: 0x24C3E, offset: 0x187887, size: 0x8, addend: 0x0, symName: '__ZN3syn4item8printing81_$LT$impl$u20$quote..to_tokens..ToTokens$u20$for$u20$syn..item..TraitItemType$GT$9to_tokens17hbe42b3bab95c6768E', symObjAddr: 0x20AB0, symBinAddr: 0x55C60, symSize: 0x240 }
  - { offsetInCU: 0x25084, offset: 0x187CCD, size: 0x8, addend: 0x0, symName: '__ZN3syn4item8printing81_$LT$impl$u20$quote..to_tokens..ToTokens$u20$for$u20$syn..item..ImplItemConst$GT$9to_tokens17hdd48b33068953141E', symObjAddr: 0x20CF0, symBinAddr: 0x55EA0, symSize: 0x240 }
  - { offsetInCU: 0x2553C, offset: 0x188185, size: 0x8, addend: 0x0, symName: '__ZN3syn4item8printing80_$LT$impl$u20$quote..to_tokens..ToTokens$u20$for$u20$syn..item..ImplItemType$GT$9to_tokens17hbce09990808c878cE', symObjAddr: 0x21090, symBinAddr: 0x560E0, symSize: 0x230 }
  - { offsetInCU: 0x25A2A, offset: 0x188673, size: 0x8, addend: 0x0, symName: '__ZN3syn4item8printing85_$LT$impl$u20$quote..to_tokens..ToTokens$u20$for$u20$syn..item..ForeignItemStatic$GT$9to_tokens17h378f5a1dfc9fdf33E', symObjAddr: 0x214C0, symBinAddr: 0x56310, symSize: 0x200 }
  - { offsetInCU: 0x25EB4, offset: 0x188AFD, size: 0x8, addend: 0x0, symName: '__ZN3syn4item8printing83_$LT$impl$u20$quote..to_tokens..ToTokens$u20$for$u20$syn..item..ForeignItemType$GT$9to_tokens17h4ed6b28f8ddb36b2E', symObjAddr: 0x216C0, symBinAddr: 0x56510, symSize: 0x190 }
  - { offsetInCU: 0x261C1, offset: 0x188E0A, size: 0x8, addend: 0x0, symName: '__ZN3syn4item8printing77_$LT$impl$u20$quote..to_tokens..ToTokens$u20$for$u20$syn..item..Signature$GT$9to_tokens17h487e336073ff52a3E', symObjAddr: 0x21850, symBinAddr: 0x566A0, symSize: 0x330 }
  - { offsetInCU: 0x26998, offset: 0x1895E1, size: 0x8, addend: 0x0, symName: '__ZN3syn4item8printing76_$LT$impl$u20$quote..to_tokens..ToTokens$u20$for$u20$syn..item..Receiver$GT$9to_tokens17h0593f180191f94a9E', symObjAddr: 0x21B80, symBinAddr: 0x569D0, symSize: 0x2E0 }
  - { offsetInCU: 0x27149, offset: 0x189D92, size: 0x8, addend: 0x0, symName: '__ZN3syn4item8printing76_$LT$impl$u20$quote..to_tokens..ToTokens$u20$for$u20$syn..item..Variadic$GT$9to_tokens17h5d9696317f3ad996E', symObjAddr: 0x21E60, symBinAddr: 0x56CB0, symSize: 0x130 }
  - { offsetInCU: 0x27460, offset: 0x18A0A9, size: 0x8, addend: 0x0, symName: '__ZN62_$LT$syn..item..Item$u20$as$u20$quote..to_tokens..ToTokens$GT$9to_tokens17he7e69ecbc61b7b2cE', symObjAddr: 0x22010, symBinAddr: 0x56DE0, symSize: 0x730 }
  - { offsetInCU: 0x282E9, offset: 0x18AF32, size: 0x8, addend: 0x0, symName: '__ZN65_$LT$syn..item..UseTree$u20$as$u20$quote..to_tokens..ToTokens$GT$9to_tokens17hee39f883784acb47E', symObjAddr: 0x22740, symBinAddr: 0x57510, symSize: 0x310 }
  - { offsetInCU: 0x28BA1, offset: 0x18B7EA, size: 0x8, addend: 0x0, symName: '__ZN69_$LT$syn..item..ForeignItem$u20$as$u20$quote..to_tokens..ToTokens$GT$9to_tokens17hb7bfc5d782828218E', symObjAddr: 0x22A50, symBinAddr: 0x57820, symSize: 0x250 }
  - { offsetInCU: 0x28FCA, offset: 0x18BC13, size: 0x8, addend: 0x0, symName: '__ZN67_$LT$syn..item..TraitItem$u20$as$u20$quote..to_tokens..ToTokens$GT$9to_tokens17h9010403c8466e854E', symObjAddr: 0x22CA0, symBinAddr: 0x57A70, symSize: 0x2B0 }
  - { offsetInCU: 0x29462, offset: 0x18C0AB, size: 0x8, addend: 0x0, symName: '__ZN66_$LT$syn..item..ImplItem$u20$as$u20$quote..to_tokens..ToTokens$GT$9to_tokens17h9ce4fd01d680c33dE', symObjAddr: 0x22F50, symBinAddr: 0x57D20, symSize: 0x2E0 }
  - { offsetInCU: 0x2A0D8, offset: 0x18CD21, size: 0x8, addend: 0x0, symName: '__ZN3syn3gen5debug63_$LT$impl$u20$core..fmt..Debug$u20$for$u20$syn..item..FnArg$GT$3fmt17hf7e3c1fc5ca3f64bE', symObjAddr: 0x288F0, symBinAddr: 0x5D180, symSize: 0xA0 }
  - { offsetInCU: 0x2A1C8, offset: 0x18CE11, size: 0x8, addend: 0x0, symName: '__ZN3syn3gen5debug69_$LT$impl$u20$core..fmt..Debug$u20$for$u20$syn..item..ForeignItem$GT$3fmt17h6849f1b2b44382cbE', symObjAddr: 0x28990, symBinAddr: 0x5D220, symSize: 0x2D0 }
  - { offsetInCU: 0x2A3C1, offset: 0x18D00A, size: 0x8, addend: 0x0, symName: '__ZN3syn3gen5debug66_$LT$impl$u20$core..fmt..Debug$u20$for$u20$syn..item..ImplItem$GT$3fmt17h4ca7a15f44285d73E', symObjAddr: 0x29010, symBinAddr: 0x5D620, symSize: 0x250 }
  - { offsetInCU: 0x2A575, offset: 0x18D1BE, size: 0x8, addend: 0x0, symName: '__ZN3syn3gen5debug62_$LT$impl$u20$core..fmt..Debug$u20$for$u20$syn..item..Item$GT$3fmt17hde7cdfd45550a130E', symObjAddr: 0x29720, symBinAddr: 0x5DB70, symSize: 0x620 }
  - { offsetInCU: 0x2A945, offset: 0x18D58E, size: 0x8, addend: 0x0, symName: '__ZN3syn3gen5debug66_$LT$impl$u20$core..fmt..Debug$u20$for$u20$syn..item..Receiver$GT$3fmt17h5350602347b32d94E', symObjAddr: 0x2AFD0, symBinAddr: 0x5EE80, symSize: 0x100 }
  - { offsetInCU: 0x2A9A9, offset: 0x18D5F2, size: 0x8, addend: 0x0, symName: '__ZN3syn3gen5debug67_$LT$impl$u20$core..fmt..Debug$u20$for$u20$syn..item..Signature$GT$3fmt17hd2444383cacc3738E', symObjAddr: 0x2B0D0, symBinAddr: 0x5EF80, symSize: 0x1B0 }
  - { offsetInCU: 0x2AA0D, offset: 0x18D656, size: 0x8, addend: 0x0, symName: '__ZN3syn3gen5debug74_$LT$impl$u20$core..fmt..Debug$u20$for$u20$syn..item..StaticMutability$GT$3fmt17hcd179aa0f4e285c4E', symObjAddr: 0x2B280, symBinAddr: 0x5F130, symSize: 0xA0 }
  - { offsetInCU: 0x2AAC2, offset: 0x18D70B, size: 0x8, addend: 0x0, symName: '__ZN3syn3gen5debug67_$LT$impl$u20$core..fmt..Debug$u20$for$u20$syn..item..TraitItem$GT$3fmt17h330176b3ec2250a5E', symObjAddr: 0x2B320, symBinAddr: 0x5F1D0, symSize: 0x220 }
  - { offsetInCU: 0x2AC76, offset: 0x18D8BF, size: 0x8, addend: 0x0, symName: '__ZN3syn3gen5debug65_$LT$impl$u20$core..fmt..Debug$u20$for$u20$syn..item..UseGlob$GT$3fmt17h8d40b3a7a4edd2c3E', symObjAddr: 0x2B960, symBinAddr: 0x5F670, symSize: 0x60 }
  - { offsetInCU: 0x2ACDA, offset: 0x18D923, size: 0x8, addend: 0x0, symName: '__ZN3syn3gen5debug66_$LT$impl$u20$core..fmt..Debug$u20$for$u20$syn..item..UseGroup$GT$3fmt17heb41fee50ac90c45E', symObjAddr: 0x2B9C0, symBinAddr: 0x5F6D0, symSize: 0x80 }
  - { offsetInCU: 0x2AD3E, offset: 0x18D987, size: 0x8, addend: 0x0, symName: '__ZN3syn3gen5debug65_$LT$impl$u20$core..fmt..Debug$u20$for$u20$syn..item..UseName$GT$3fmt17h158eaa152c101c39E', symObjAddr: 0x2BA40, symBinAddr: 0x5F750, symSize: 0x60 }
  - { offsetInCU: 0x2ADA2, offset: 0x18D9EB, size: 0x8, addend: 0x0, symName: '__ZN3syn3gen5debug65_$LT$impl$u20$core..fmt..Debug$u20$for$u20$syn..item..UsePath$GT$3fmt17hea72816e2b7bf718E', symObjAddr: 0x2BAA0, symBinAddr: 0x5F7B0, symSize: 0xA0 }
  - { offsetInCU: 0x2AE06, offset: 0x18DA4F, size: 0x8, addend: 0x0, symName: '__ZN3syn3gen5debug67_$LT$impl$u20$core..fmt..Debug$u20$for$u20$syn..item..UseRename$GT$3fmt17hdd5878f1e774770eE', symObjAddr: 0x2BB40, symBinAddr: 0x5F850, symSize: 0xA0 }
  - { offsetInCU: 0x2AE6A, offset: 0x18DAB3, size: 0x8, addend: 0x0, symName: '__ZN3syn3gen5debug65_$LT$impl$u20$core..fmt..Debug$u20$for$u20$syn..item..UseTree$GT$3fmt17h95246d04b8199285E', symObjAddr: 0x2BBE0, symBinAddr: 0x5F8F0, symSize: 0x140 }
  - { offsetInCU: 0x2B07B, offset: 0x18DCC4, size: 0x8, addend: 0x0, symName: '__ZN3syn3gen5clone67_$LT$impl$u20$core..clone..Clone$u20$for$u20$syn..item..UseTree$GT$5clone17he4721d92d6223b97E', symObjAddr: 0x28540, symBinAddr: 0x5CDD0, symSize: 0x2A0 }
  - { offsetInCU: 0x2B75F, offset: 0x18E3A8, size: 0x8, addend: 0x0, symName: '__ZN3syn3gen5clone71_$LT$impl$u20$core..clone..Clone$u20$for$u20$syn..item..ForeignItem$GT$5clone17hee3f13bdccecaf04E', symObjAddr: 0x23290, symBinAddr: 0x58000, symSize: 0x2A0 }
  - { offsetInCU: 0x2BB3E, offset: 0x18E787, size: 0x8, addend: 0x0, symName: '__ZN3syn3gen5clone77_$LT$impl$u20$core..clone..Clone$u20$for$u20$syn..item..ForeignItemStatic$GT$5clone17h1c013599a1b7e0d2E', symObjAddr: 0x23620, symBinAddr: 0x582A0, symSize: 0x1E0 }
  - { offsetInCU: 0x2BFDF, offset: 0x18EC28, size: 0x8, addend: 0x0, symName: '__ZN3syn3gen5clone75_$LT$impl$u20$core..clone..Clone$u20$for$u20$syn..item..ForeignItemType$GT$5clone17h39c42a7ed9f93bc7E', symObjAddr: 0x23800, symBinAddr: 0x58480, symSize: 0x290 }
  - { offsetInCU: 0x2C320, offset: 0x18EF69, size: 0x8, addend: 0x0, symName: '__ZN3syn3gen5clone68_$LT$impl$u20$core..clone..Clone$u20$for$u20$syn..item..ImplItem$GT$5clone17hfcffd5bef6db6eefE', symObjAddr: 0x23A90, symBinAddr: 0x58710, symSize: 0x1E0 }
  - { offsetInCU: 0x2C662, offset: 0x18F2AB, size: 0x8, addend: 0x0, symName: '__ZN3syn3gen5clone73_$LT$impl$u20$core..clone..Clone$u20$for$u20$syn..item..ImplItemConst$GT$5clone17hcba22f66f4790359E', symObjAddr: 0x23C70, symBinAddr: 0x588F0, symSize: 0x3C0 }
  - { offsetInCU: 0x2CA20, offset: 0x18F669, size: 0x8, addend: 0x0, symName: '__ZN3syn3gen5clone70_$LT$impl$u20$core..clone..Clone$u20$for$u20$syn..item..ImplItemFn$GT$5clone17hfa99a17b751a231eE', symObjAddr: 0x24030, symBinAddr: 0x58CB0, symSize: 0x170 }
  - { offsetInCU: 0x2CACD, offset: 0x18F716, size: 0x8, addend: 0x0, symName: '__ZN3syn3gen5clone72_$LT$impl$u20$core..clone..Clone$u20$for$u20$syn..item..ImplItemType$GT$5clone17h0cbe501e4ceb9fa6E', symObjAddr: 0x24230, symBinAddr: 0x58E20, symSize: 0x360 }
  - { offsetInCU: 0x2CE82, offset: 0x18FACB, size: 0x8, addend: 0x0, symName: '__ZN3syn3gen5clone64_$LT$impl$u20$core..clone..Clone$u20$for$u20$syn..item..Item$GT$5clone17h88393b98a180baddE', symObjAddr: 0x24590, symBinAddr: 0x59180, symSize: 0x3C0 }
  - { offsetInCU: 0x2D3D7, offset: 0x190020, size: 0x8, addend: 0x0, symName: '__ZN3syn3gen5clone69_$LT$impl$u20$core..clone..Clone$u20$for$u20$syn..item..ItemConst$GT$5clone17h625d5dfdf97f0db7E', symObjAddr: 0x24950, symBinAddr: 0x59540, symSize: 0x410 }
  - { offsetInCU: 0x2DB83, offset: 0x1907CC, size: 0x8, addend: 0x0, symName: '__ZN3syn3gen5clone68_$LT$impl$u20$core..clone..Clone$u20$for$u20$syn..item..ItemEnum$GT$5clone17hcbd28186f3af1a48E', symObjAddr: 0x24D60, symBinAddr: 0x59950, symSize: 0x320 }
  - { offsetInCU: 0x2DE87, offset: 0x190AD0, size: 0x8, addend: 0x0, symName: '__ZN3syn3gen5clone75_$LT$impl$u20$core..clone..Clone$u20$for$u20$syn..item..ItemExternCrate$GT$5clone17heae6e2f0373fe0bbE', symObjAddr: 0x25080, symBinAddr: 0x59C70, symSize: 0x1A0 }
  - { offsetInCU: 0x2E19C, offset: 0x190DE5, size: 0x8, addend: 0x0, symName: '__ZN3syn3gen5clone66_$LT$impl$u20$core..clone..Clone$u20$for$u20$syn..item..ItemFn$GT$5clone17h4e6ff2347c0f748eE', symObjAddr: 0x25220, symBinAddr: 0x59E10, symSize: 0x190 }
  - { offsetInCU: 0x2E434, offset: 0x19107D, size: 0x8, addend: 0x0, symName: '__ZN3syn3gen5clone68_$LT$impl$u20$core..clone..Clone$u20$for$u20$syn..item..ItemImpl$GT$5clone17hd2b1c2db65c8a4ebE', symObjAddr: 0x25490, symBinAddr: 0x59FA0, symSize: 0x470 }
  - { offsetInCU: 0x2E907, offset: 0x191550, size: 0x8, addend: 0x0, symName: '__ZN3syn3gen5clone69_$LT$impl$u20$core..clone..Clone$u20$for$u20$syn..item..ItemMacro$GT$5clone17h7d6f56f137cac903E', symObjAddr: 0x25900, symBinAddr: 0x5A410, symSize: 0x120 }
  - { offsetInCU: 0x2EB43, offset: 0x19178C, size: 0x8, addend: 0x0, symName: '__ZN3syn3gen5clone67_$LT$impl$u20$core..clone..Clone$u20$for$u20$syn..item..ItemMod$GT$5clone17h08b706d9debac69fE', symObjAddr: 0x25A20, symBinAddr: 0x5A530, symSize: 0x200 }
  - { offsetInCU: 0x2EE0A, offset: 0x191A53, size: 0x8, addend: 0x0, symName: '__ZN3syn3gen5clone70_$LT$impl$u20$core..clone..Clone$u20$for$u20$syn..item..ItemStatic$GT$5clone17h7d89c79988a48493E', symObjAddr: 0x25C20, symBinAddr: 0x5A730, symSize: 0x290 }
  - { offsetInCU: 0x2F4DB, offset: 0x192124, size: 0x8, addend: 0x0, symName: '__ZN3syn3gen5clone70_$LT$impl$u20$core..clone..Clone$u20$for$u20$syn..item..ItemStruct$GT$5clone17h25082ded106363f3E', symObjAddr: 0x25EB0, symBinAddr: 0x5A9C0, symSize: 0x3D0 }
  - { offsetInCU: 0x2F8F0, offset: 0x192539, size: 0x8, addend: 0x0, symName: '__ZN3syn3gen5clone69_$LT$impl$u20$core..clone..Clone$u20$for$u20$syn..item..ItemTrait$GT$5clone17ha34a4241e37415ecE', symObjAddr: 0x26280, symBinAddr: 0x5AD90, symSize: 0x3E0 }
  - { offsetInCU: 0x2FC80, offset: 0x1928C9, size: 0x8, addend: 0x0, symName: '__ZN3syn3gen5clone74_$LT$impl$u20$core..clone..Clone$u20$for$u20$syn..item..ItemTraitAlias$GT$5clone17hef59f8a644aff956E', symObjAddr: 0x26660, symBinAddr: 0x5B170, symSize: 0x320 }
  - { offsetInCU: 0x2FFE0, offset: 0x192C29, size: 0x8, addend: 0x0, symName: '__ZN3syn3gen5clone68_$LT$impl$u20$core..clone..Clone$u20$for$u20$syn..item..ItemType$GT$5clone17h2cc3a1af26227a5bE', symObjAddr: 0x26980, symBinAddr: 0x5B490, symSize: 0x350 }
  - { offsetInCU: 0x3055C, offset: 0x1931A5, size: 0x8, addend: 0x0, symName: '__ZN3syn3gen5clone69_$LT$impl$u20$core..clone..Clone$u20$for$u20$syn..item..ItemUnion$GT$5clone17h9499aeac8cc94731E', symObjAddr: 0x26CD0, symBinAddr: 0x5B7E0, symSize: 0x340 }
  - { offsetInCU: 0x308AA, offset: 0x1934F3, size: 0x8, addend: 0x0, symName: '__ZN3syn3gen5clone67_$LT$impl$u20$core..clone..Clone$u20$for$u20$syn..item..ItemUse$GT$5clone17h83cf32ef390bdd8aE', symObjAddr: 0x27010, symBinAddr: 0x5BB20, symSize: 0x130 }
  - { offsetInCU: 0x3096A, offset: 0x1935B3, size: 0x8, addend: 0x0, symName: '__ZN3syn3gen5clone68_$LT$impl$u20$core..clone..Clone$u20$for$u20$syn..item..Receiver$GT$5clone17h3f91689b2c338982E', symObjAddr: 0x27140, symBinAddr: 0x5BC50, symSize: 0x1B0 }
  - { offsetInCU: 0x30D7F, offset: 0x1939C8, size: 0x8, addend: 0x0, symName: '__ZN3syn3gen5clone69_$LT$impl$u20$core..clone..Clone$u20$for$u20$syn..item..Signature$GT$5clone17hf28c97c0572e4c68E', symObjAddr: 0x272F0, symBinAddr: 0x5BE00, symSize: 0x5A0 }
  - { offsetInCU: 0x31537, offset: 0x194180, size: 0x8, addend: 0x0, symName: '__ZN3syn3gen5clone69_$LT$impl$u20$core..clone..Clone$u20$for$u20$syn..item..TraitItem$GT$5clone17hd22c218447a047bfE', symObjAddr: 0x27890, symBinAddr: 0x5C3A0, symSize: 0x1E0 }
  - { offsetInCU: 0x31879, offset: 0x1944C2, size: 0x8, addend: 0x0, symName: '__ZN3syn3gen5clone74_$LT$impl$u20$core..clone..Clone$u20$for$u20$syn..item..TraitItemConst$GT$5clone17he22a2ce3bf5c1704E', symObjAddr: 0x27A70, symBinAddr: 0x5C580, symSize: 0x370 }
  - { offsetInCU: 0x31C41, offset: 0x19488A, size: 0x8, addend: 0x0, symName: '__ZN3syn3gen5clone71_$LT$impl$u20$core..clone..Clone$u20$for$u20$syn..item..TraitItemFn$GT$5clone17h7ac8fc7a77eb5240E', symObjAddr: 0x27DE0, symBinAddr: 0x5C8F0, symSize: 0x150 }
  - { offsetInCU: 0x31D33, offset: 0x19497C, size: 0x8, addend: 0x0, symName: '__ZN3syn3gen5clone73_$LT$impl$u20$core..clone..Clone$u20$for$u20$syn..item..TraitItemType$GT$5clone17h83742b5ed183cb22E', symObjAddr: 0x27F30, symBinAddr: 0x5CA40, symSize: 0x390 }
  - { offsetInCU: 0x320F2, offset: 0x194D3B, size: 0x8, addend: 0x0, symName: '__ZN3syn3gen5clone68_$LT$impl$u20$core..clone..Clone$u20$for$u20$syn..item..Variadic$GT$5clone17h397fcedc25d54663E', symObjAddr: 0x287E0, symBinAddr: 0x5D070, symSize: 0x110 }
  - { offsetInCU: 0x3240C, offset: 0x195055, size: 0x8, addend: 0x0, symName: '__ZN3syn3gen2eq67_$LT$impl$u20$core..cmp..PartialEq$u20$for$u20$syn..item..FnArg$GT$2eq17hb876bc552d23af61E', symObjAddr: 0x2BDE0, symBinAddr: 0x5FA30, symSize: 0x1B0 }
  - { offsetInCU: 0x3297F, offset: 0x1955C8, size: 0x8, addend: 0x0, symName: '__ZN3syn3gen2eq73_$LT$impl$u20$core..cmp..PartialEq$u20$for$u20$syn..item..ForeignItem$GT$2eq17h9d08bdbb85646788E', symObjAddr: 0x2BF90, symBinAddr: 0x5FBE0, symSize: 0x5D0 }
  - { offsetInCU: 0x3369B, offset: 0x1962E4, size: 0x8, addend: 0x0, symName: '__ZN3syn3gen2eq70_$LT$impl$u20$core..cmp..PartialEq$u20$for$u20$syn..item..ImplItem$GT$2eq17h2ff9506db0a81c5cE', symObjAddr: 0x2C9F0, symBinAddr: 0x601B0, symSize: 0x4F0 }
  - { offsetInCU: 0x33FEF, offset: 0x196C38, size: 0x8, addend: 0x0, symName: '__ZN3syn3gen2eq75_$LT$impl$u20$core..cmp..PartialEq$u20$for$u20$syn..item..ImplItemConst$GT$2eq17hae62b120ffcd9095E', symObjAddr: 0x2CEE0, symBinAddr: 0x606A0, symSize: 0x200 }
  - { offsetInCU: 0x3456B, offset: 0x1971B4, size: 0x8, addend: 0x0, symName: '__ZN3syn3gen2eq66_$LT$impl$u20$core..cmp..PartialEq$u20$for$u20$syn..item..Item$GT$2eq17h80388026ed6b3b57E', symObjAddr: 0x2D540, symBinAddr: 0x608A0, symSize: 0x980 }
  - { offsetInCU: 0x3581B, offset: 0x198464, size: 0x8, addend: 0x0, symName: '__ZN3syn3gen2eq71_$LT$impl$u20$core..cmp..PartialEq$u20$for$u20$syn..item..ItemConst$GT$2eq17hef64ef2fd141453fE', symObjAddr: 0x2DEC0, symBinAddr: 0x61220, symSize: 0x1B0 }
  - { offsetInCU: 0x35BE3, offset: 0x19882C, size: 0x8, addend: 0x0, symName: '__ZN3syn3gen2eq70_$LT$impl$u20$core..cmp..PartialEq$u20$for$u20$syn..item..ItemImpl$GT$2eq17h684f76bb89676c7bE', symObjAddr: 0x2E700, symBinAddr: 0x613D0, symSize: 0x190 }
  - { offsetInCU: 0x35F27, offset: 0x198B70, size: 0x8, addend: 0x0, symName: '__ZN3syn3gen2eq69_$LT$impl$u20$core..cmp..PartialEq$u20$for$u20$syn..item..ItemMod$GT$2eq17h5c89274f97e00f2cE', symObjAddr: 0x2E960, symBinAddr: 0x61560, symSize: 0x1F0 }
  - { offsetInCU: 0x36496, offset: 0x1990DF, size: 0x8, addend: 0x0, symName: '__ZN3syn3gen2eq72_$LT$impl$u20$core..cmp..PartialEq$u20$for$u20$syn..item..ItemStatic$GT$2eq17h31250a739aee01e9E', symObjAddr: 0x2EB50, symBinAddr: 0x61750, symSize: 0x1A0 }
  - { offsetInCU: 0x36894, offset: 0x1994DD, size: 0x8, addend: 0x0, symName: '__ZN3syn3gen2eq71_$LT$impl$u20$core..cmp..PartialEq$u20$for$u20$syn..item..ItemTrait$GT$2eq17h494ba2c8e5313cb4E', symObjAddr: 0x2EEA0, symBinAddr: 0x618F0, symSize: 0x260 }
  - { offsetInCU: 0x36D4B, offset: 0x199994, size: 0x8, addend: 0x0, symName: '__ZN3syn3gen2eq71_$LT$impl$u20$core..cmp..PartialEq$u20$for$u20$syn..item..Signature$GT$2eq17h707473cf61e9908fE', symObjAddr: 0x2F920, symBinAddr: 0x61B50, symSize: 0x190 }
  - { offsetInCU: 0x36FDE, offset: 0x199C27, size: 0x8, addend: 0x0, symName: '__ZN3syn3gen2eq71_$LT$impl$u20$core..cmp..PartialEq$u20$for$u20$syn..item..TraitItem$GT$2eq17h4785f4eb276ca57eE', symObjAddr: 0x2FAB0, symBinAddr: 0x61CE0, symSize: 0x320 }
  - { offsetInCU: 0x375AD, offset: 0x19A1F6, size: 0x8, addend: 0x0, symName: '__ZN3syn3gen2eq75_$LT$impl$u20$core..cmp..PartialEq$u20$for$u20$syn..item..TraitItemType$GT$2eq17h176862bd52e4f75eE', symObjAddr: 0x30000, symBinAddr: 0x62000, symSize: 0x190 }
  - { offsetInCU: 0x379B3, offset: 0x19A5FC, size: 0x8, addend: 0x0, symName: '__ZN3syn3gen2eq69_$LT$impl$u20$core..cmp..PartialEq$u20$for$u20$syn..item..UseTree$GT$2eq17h49daf87b87803cd8E', symObjAddr: 0x302C0, symBinAddr: 0x62190, symSize: 0x130 }
  - { offsetInCU: 0x37CDC, offset: 0x19A925, size: 0x8, addend: 0x0, symName: '__ZN3syn3gen2eq70_$LT$impl$u20$core..cmp..PartialEq$u20$for$u20$syn..item..Variadic$GT$2eq17h9ab05fc1d04acb3dE', symObjAddr: 0x303F0, symBinAddr: 0x622C0, symSize: 0x9F }
  - { offsetInCU: 0x3A687, offset: 0x19D2D0, size: 0x8, addend: 0x0, symName: '__ZN4core3ptr100drop_in_place$LT$core..option..Option$LT$alloc..boxed..Box$LT$syn..path..GenericArgument$GT$$GT$$GT$17h3a7c44b9e57fe410E', symObjAddr: 0x6C0, symBinAddr: 0x3CA80, symSize: 0x50 }
  - { offsetInCU: 0x3A9A9, offset: 0x19D5F2, size: 0x8, addend: 0x0, symName: '__ZN4core3ptr100drop_in_place$LT$syn..punctuated..Punctuated$LT$syn..path..PathSegment$C$syn..token..PathSep$GT$$GT$17he41ef64147139591E', symObjAddr: 0x710, symBinAddr: 0x3CAD0, symSize: 0x2B0 }
  - { offsetInCU: 0x3B45F, offset: 0x19E0A8, size: 0x8, addend: 0x0, symName: '__ZN4core3ptr103drop_in_place$LT$core..option..Option$LT$alloc..boxed..Box$LT$syn..generics..TypeParamBound$GT$$GT$$GT$17hb14e4384a768542bE', symObjAddr: 0x9C0, symBinAddr: 0x3CD80, symSize: 0x50 }
  - { offsetInCU: 0x3B6A8, offset: 0x19E2F1, size: 0x8, addend: 0x0, symName: '__ZN4core3ptr103drop_in_place$LT$core..option..Option$LT$alloc..boxed..Box$LT$syn..generics..WherePredicate$GT$$GT$$GT$17he190813f4819c5dbE', symObjAddr: 0xA10, symBinAddr: 0x3CDD0, symSize: 0xD0 }
  - { offsetInCU: 0x3BA3C, offset: 0x19E685, size: 0x8, addend: 0x0, symName: '__ZN4core3ptr103drop_in_place$LT$syn..punctuated..Punctuated$LT$syn..generics..GenericParam$C$syn..token..Comma$GT$$GT$17h0c6077a988036760E', symObjAddr: 0xAE0, symBinAddr: 0x3CEA0, symSize: 0xF0 }
  - { offsetInCU: 0x3BEDA, offset: 0x19EB23, size: 0x8, addend: 0x0, symName: '__ZN4core3ptr104drop_in_place$LT$syn..punctuated..Punctuated$LT$syn..generics..TypeParamBound$C$syn..token..Plus$GT$$GT$17h724e4d9d1d65061aE', symObjAddr: 0xBD0, symBinAddr: 0x3CF90, symSize: 0x190 }
  - { offsetInCU: 0x3C51C, offset: 0x19F165, size: 0x8, addend: 0x0, symName: '__ZN4core3ptr107drop_in_place$LT$$LP$syn..restriction..Visibility$C$core..option..Option$LT$syn..token..Default$GT$$RP$$GT$17h7dbdeb5ac6957065E', symObjAddr: 0xD60, symBinAddr: 0x3D120, symSize: 0x60 }
  - { offsetInCU: 0x3C6D9, offset: 0x19F322, size: 0x8, addend: 0x0, symName: '__ZN4core3ptr115drop_in_place$LT$core..option..Option$LT$$LP$alloc..boxed..Box$LT$syn..pat..Pat$GT$$C$syn..token..Colon$RP$$GT$$GT$17h787822396d5dcd7bE', symObjAddr: 0xDC0, symBinAddr: 0x3D180, symSize: 0x50 }
  - { offsetInCU: 0x3C8AB, offset: 0x19F4F4, size: 0x8, addend: 0x0, symName: '__ZN4core3ptr115drop_in_place$LT$core..option..Option$LT$$LP$syn..token..Brace$C$alloc..vec..Vec$LT$syn..item..Item$GT$$RP$$GT$$GT$17h4f61046186bbd7c9E', symObjAddr: 0xE10, symBinAddr: 0x3D1D0, symSize: 0xD0 }
  - { offsetInCU: 0x3CBC2, offset: 0x19F80B, size: 0x8, addend: 0x0, symName: '__ZN4core3ptr126drop_in_place$LT$core..option..Option$LT$$LP$syn..token..And$C$core..option..Option$LT$syn..lifetime..Lifetime$GT$$RP$$GT$$GT$17h45c5d73e12cdf6f0E', symObjAddr: 0xEE0, symBinAddr: 0x3D2A0, symSize: 0x30 }
  - { offsetInCU: 0x3CD3A, offset: 0x19F983, size: 0x8, addend: 0x0, symName: '__ZN4core3ptr136drop_in_place$LT$core..option..Option$LT$$LP$core..option..Option$LT$syn..token..Not$GT$$C$syn..path..Path$C$syn..token..For$RP$$GT$$GT$17h9e7394229c3ee14eE', symObjAddr: 0xF10, symBinAddr: 0x3D2D0, symSize: 0x20 }
  - { offsetInCU: 0x3CEA8, offset: 0x19FAF1, size: 0x8, addend: 0x0, symName: '__ZN4core3ptr33drop_in_place$LT$syn..ty..Abi$GT$17h24b86e0564a98339E', symObjAddr: 0xF30, symBinAddr: 0x3D2F0, symSize: 0x60 }
  - { offsetInCU: 0x3D1B1, offset: 0x19FDFA, size: 0x8, addend: 0x0, symName: '__ZN4core3ptr34drop_in_place$LT$syn..lit..Lit$GT$17hd64dde89a262341dE', symObjAddr: 0xF90, symBinAddr: 0x3D350, symSize: 0x120 }
  - { offsetInCU: 0x3D680, offset: 0x1A02C9, size: 0x8, addend: 0x0, symName: '__ZN4core3ptr34drop_in_place$LT$syn..pat..Pat$GT$17hf88887878261d63cE', symObjAddr: 0x10B0, symBinAddr: 0x3D470, symSize: 0x1100 }
  - { offsetInCU: 0x41C5E, offset: 0x1A48A7, size: 0x8, addend: 0x0, symName: '__ZN4core3ptr34drop_in_place$LT$syn..ty..Type$GT$17ha80dd29b0f9d4a3fE', symObjAddr: 0x21B0, symBinAddr: 0x3E570, symSize: 0x510 }
  - { offsetInCU: 0x432D6, offset: 0x1A5F1F, size: 0x8, addend: 0x0, symName: '__ZN4core3ptr36drop_in_place$LT$syn..expr..Expr$GT$17h10f573b40ddd212cE', symObjAddr: 0x26C0, symBinAddr: 0x3EA80, symSize: 0x2840 }
  - { offsetInCU: 0x4D7F1, offset: 0x1B043A, size: 0x8, addend: 0x0, symName: '__ZN4core3ptr36drop_in_place$LT$syn..item..Item$GT$17haa59cf9e39ab8cebE', symObjAddr: 0x4F00, symBinAddr: 0x412C0, symSize: 0x1940 }
  - { offsetInCU: 0x53BB4, offset: 0x1B67FD, size: 0x8, addend: 0x0, symName: '__ZN4core3ptr36drop_in_place$LT$syn..mac..Macro$GT$17hc3b30a7a8a34cc2dE', symObjAddr: 0x6840, symBinAddr: 0x42C00, symSize: 0x40 }
  - { offsetInCU: 0x53BEE, offset: 0x1B6837, size: 0x8, addend: 0x0, symName: '__ZN4core3ptr36drop_in_place$LT$syn..path..Path$GT$17h75c74a97d5f0a03bE', symObjAddr: 0x6880, symBinAddr: 0x42C40, symSize: 0x280 }
  - { offsetInCU: 0x5469B, offset: 0x1B72E4, size: 0x8, addend: 0x0, symName: '__ZN4core3ptr37drop_in_place$LT$syn..stmt..Block$GT$17h6fc3254d5688f2c3E', symObjAddr: 0x6B00, symBinAddr: 0x42EC0, symSize: 0xD0 }
  - { offsetInCU: 0x54991, offset: 0x1B75DA, size: 0x8, addend: 0x0, symName: '__ZN4core3ptr38drop_in_place$LT$syn..data..Fields$GT$17h79840861dd1f691dE', symObjAddr: 0x6BD0, symBinAddr: 0x42F90, symSize: 0x190 }
  - { offsetInCU: 0x54DDB, offset: 0x1B7A24, size: 0x8, addend: 0x0, symName: '__ZN4core3ptr38drop_in_place$LT$syn..expr..Member$GT$17h6b0cf84594ce6bceE', symObjAddr: 0x6D60, symBinAddr: 0x43120, symSize: 0x30 }
  - { offsetInCU: 0x54ED7, offset: 0x1B7B20, size: 0x8, addend: 0x0, symName: '__ZN4core3ptr38drop_in_place$LT$syn..pat..PatType$GT$17h835dce85ba90235eE.llvm.18308377727791997679', symObjAddr: 0x6D90, symBinAddr: 0x43150, symSize: 0x140 }
  - { offsetInCU: 0x55482, offset: 0x1B80CB, size: 0x8, addend: 0x0, symName: '__ZN4core3ptr39drop_in_place$LT$proc_macro2..Ident$GT$17ha28fef9769e267d9E', symObjAddr: 0x6ED0, symBinAddr: 0x43290, symSize: 0x30 }
  - { offsetInCU: 0x5555F, offset: 0x1B81A8, size: 0x8, addend: 0x0, symName: '__ZN4core3ptr39drop_in_place$LT$syn..item..UseName$GT$17ha6f1a8ca343739ceE.llvm.18308377727791997679', symObjAddr: 0x6F00, symBinAddr: 0x432C0, symSize: 0x30 }
  - { offsetInCU: 0x5565B, offset: 0x1B82A4, size: 0x8, addend: 0x0, symName: '__ZN4core3ptr39drop_in_place$LT$syn..item..UsePath$GT$17hc21ecdeb9e359de1E.llvm.18308377727791997679', symObjAddr: 0x6F30, symBinAddr: 0x432F0, symSize: 0x40 }
  - { offsetInCU: 0x5567B, offset: 0x1B82C4, size: 0x8, addend: 0x0, symName: '__ZN4core3ptr39drop_in_place$LT$syn..item..UsePath$GT$17hc21ecdeb9e359de1E.llvm.18308377727791997679', symObjAddr: 0x6F30, symBinAddr: 0x432F0, symSize: 0x40 }
  - { offsetInCU: 0x55699, offset: 0x1B82E2, size: 0x8, addend: 0x0, symName: '__ZN4core3ptr39drop_in_place$LT$syn..item..UsePath$GT$17hc21ecdeb9e359de1E.llvm.18308377727791997679', symObjAddr: 0x6F30, symBinAddr: 0x432F0, symSize: 0x40 }
  - { offsetInCU: 0x557D7, offset: 0x1B8420, size: 0x8, addend: 0x0, symName: '__ZN4core3ptr39drop_in_place$LT$syn..item..UseTree$GT$17h7288572c631f954aE', symObjAddr: 0x6F70, symBinAddr: 0x43330, symSize: 0xE0 }
  - { offsetInCU: 0x55BDB, offset: 0x1B8824, size: 0x8, addend: 0x0, symName: '__ZN4core3ptr40drop_in_place$LT$syn..item..ImplItem$GT$17h98907b2080b0ccb0E', symObjAddr: 0x7050, symBinAddr: 0x43410, symSize: 0x4D0 }
  - { offsetInCU: 0x56A0F, offset: 0x1B9658, size: 0x8, addend: 0x0, symName: '__ZN4core3ptr40drop_in_place$LT$syn..item..Receiver$GT$17h5e68a437c3b8e574E.llvm.18308377727791997679', symObjAddr: 0x7520, symBinAddr: 0x438E0, symSize: 0x130 }
  - { offsetInCU: 0x56FDB, offset: 0x1B9C24, size: 0x8, addend: 0x0, symName: '__ZN4core3ptr40drop_in_place$LT$syn..item..UseGroup$GT$17h631eebd6a2b1005fE.llvm.18308377727791997679', symObjAddr: 0x7650, symBinAddr: 0x43A10, symSize: 0x10 }
  - { offsetInCU: 0x57015, offset: 0x1B9C5E, size: 0x8, addend: 0x0, symName: '__ZN4core3ptr40drop_in_place$LT$syn..item..Variadic$GT$17hf9d4ebdb0f5e723aE', symObjAddr: 0x7660, symBinAddr: 0x43A20, symSize: 0x120 }
  - { offsetInCU: 0x5749A, offset: 0x1BA0E3, size: 0x8, addend: 0x0, symName: '__ZN4core3ptr40drop_in_place$LT$syn..ty..ReturnType$GT$17h035a612e322b6510E', symObjAddr: 0x7780, symBinAddr: 0x43B40, symSize: 0x50 }
  - { offsetInCU: 0x5760A, offset: 0x1BA253, size: 0x8, addend: 0x0, symName: '__ZN4core3ptr41drop_in_place$LT$syn..expr..ExprConst$GT$17hbfe19d5d621e6836E', symObjAddr: 0x77D0, symBinAddr: 0x43B90, symSize: 0x180 }
  - { offsetInCU: 0x57C16, offset: 0x1BA85F, size: 0x8, addend: 0x0, symName: '__ZN4core3ptr41drop_in_place$LT$syn..item..Signature$GT$17h41f785211ad8eb02E', symObjAddr: 0x7950, symBinAddr: 0x43D10, symSize: 0x180 }
  - { offsetInCU: 0x58306, offset: 0x1BAF4F, size: 0x8, addend: 0x0, symName: '__ZN4core3ptr41drop_in_place$LT$syn..item..TraitItem$GT$17hc74edaa948c160a2E', symObjAddr: 0x7AD0, symBinAddr: 0x43E90, symSize: 0x5F0 }
  - { offsetInCU: 0x594F6, offset: 0x1BC13F, size: 0x8, addend: 0x0, symName: '__ZN4core3ptr41drop_in_place$LT$syn..item..UseRename$GT$17h1b56964f5919297fE.llvm.18308377727791997679', symObjAddr: 0x80C0, symBinAddr: 0x44480, symSize: 0x50 }
  - { offsetInCU: 0x59516, offset: 0x1BC15F, size: 0x8, addend: 0x0, symName: '__ZN4core3ptr41drop_in_place$LT$syn..item..UseRename$GT$17h1b56964f5919297fE.llvm.18308377727791997679', symObjAddr: 0x80C0, symBinAddr: 0x44480, symSize: 0x50 }
  - { offsetInCU: 0x59534, offset: 0x1BC17D, size: 0x8, addend: 0x0, symName: '__ZN4core3ptr41drop_in_place$LT$syn..item..UseRename$GT$17h1b56964f5919297fE.llvm.18308377727791997679', symObjAddr: 0x80C0, symBinAddr: 0x44480, symSize: 0x50 }
  - { offsetInCU: 0x596C3, offset: 0x1BC30C, size: 0x8, addend: 0x0, symName: '__ZN4core3ptr42drop_in_place$LT$syn..item..ImplItemFn$GT$17haf8f89161f0a8aa1E', symObjAddr: 0x8110, symBinAddr: 0x444D0, symSize: 0x200 }
  - { offsetInCU: 0x59E2B, offset: 0x1BCA74, size: 0x8, addend: 0x0, symName: '__ZN4core3ptr43drop_in_place$LT$syn..data..FieldsNamed$GT$17h56bef6f151514865E', symObjAddr: 0x8310, symBinAddr: 0x446D0, symSize: 0xE0 }
  - { offsetInCU: 0x5A1CD, offset: 0x1BCE16, size: 0x8, addend: 0x0, symName: '__ZN4core3ptr43drop_in_place$LT$syn..item..ForeignItem$GT$17h8033abfc56dac52fE', symObjAddr: 0x83F0, symBinAddr: 0x447B0, symSize: 0x520 }
  - { offsetInCU: 0x5B579, offset: 0x1BE1C2, size: 0x8, addend: 0x0, symName: '__ZN4core3ptr44drop_in_place$LT$syn..generics..Generics$GT$17h671de917167f8b66E', symObjAddr: 0x8910, symBinAddr: 0x44CD0, symSize: 0x40 }
  - { offsetInCU: 0x5B596, offset: 0x1BE1DF, size: 0x8, addend: 0x0, symName: '__ZN4core3ptr44drop_in_place$LT$syn..lifetime..Lifetime$GT$17he37fa474f03de7b1E', symObjAddr: 0x8950, symBinAddr: 0x44D10, symSize: 0x30 }
  - { offsetInCU: 0x5B70E, offset: 0x1BE357, size: 0x8, addend: 0x0, symName: '__ZN4core3ptr44drop_in_place$LT$syn..parse..ParseBuffer$GT$17hf792ff20095efc35E.llvm.18308377727791997679', symObjAddr: 0x8980, symBinAddr: 0x44D40, symSize: 0x70 }
  - { offsetInCU: 0x5BB25, offset: 0x1BE76E, size: 0x8, addend: 0x0, symName: '__ZN4core3ptr45drop_in_place$LT$proc_macro2..TokenStream$GT$17h76e8e68015f4924dE', symObjAddr: 0x89F0, symBinAddr: 0x44DB0, symSize: 0x140 }
  - { offsetInCU: 0x5BFBF, offset: 0x1BEC08, size: 0x8, addend: 0x0, symName: '__ZN4core3ptr45drop_in_place$LT$syn..generics..TypeParam$GT$17h188a459c1380ac75E', symObjAddr: 0x8B30, symBinAddr: 0x44EF0, symSize: 0x230 }
  - { offsetInCU: 0x5C834, offset: 0x1BF47D, size: 0x8, addend: 0x0, symName: '__ZN4core3ptr46drop_in_place$LT$syn..generics..ConstParam$GT$17h7a9b900b2b88bfcdE', symObjAddr: 0x8D60, symBinAddr: 0x45120, symSize: 0x150 }
  - { offsetInCU: 0x5CCB5, offset: 0x1BF8FE, size: 0x8, addend: 0x0, symName: '__ZN4core3ptr47drop_in_place$LT$syn..path..GenericArgument$GT$17h593f06d6ca9a94d2E', symObjAddr: 0x8EB0, symBinAddr: 0x45270, symSize: 0x4A0 }
  - { offsetInCU: 0x5DDBB, offset: 0x1C0A04, size: 0x8, addend: 0x0, symName: '__ZN4core3ptr49drop_in_place$LT$syn..generics..LifetimeParam$GT$17h3a8835ab294bfd16E', symObjAddr: 0x9350, symBinAddr: 0x45710, symSize: 0xF0 }
  - { offsetInCU: 0x5E1D2, offset: 0x1C0E1B, size: 0x8, addend: 0x0, symName: '__ZN4core3ptr49drop_in_place$LT$syn..restriction..Visibility$GT$17h3e52b998838defb1E', symObjAddr: 0x9440, symBinAddr: 0x45800, symSize: 0x60 }
  - { offsetInCU: 0x5E347, offset: 0x1C0F90, size: 0x8, addend: 0x0, symName: '__ZN4core3ptr50drop_in_place$LT$syn..generics..TypeParamBound$GT$17h81b4325b5900604dE', symObjAddr: 0x94A0, symBinAddr: 0x45860, symSize: 0x1C0 }
  - { offsetInCU: 0x5E8C3, offset: 0x1C150C, size: 0x8, addend: 0x0, symName: '__ZN4core3ptr58drop_in_place$LT$alloc..vec..Vec$LT$syn..expr..Arm$GT$$GT$17hff9224aadf2233b8E', symObjAddr: 0x96A0, symBinAddr: 0x45A20, symSize: 0xD0 }
  - { offsetInCU: 0x5EB83, offset: 0x1C17CC, size: 0x8, addend: 0x0, symName: '__ZN4core3ptr59drop_in_place$LT$alloc..boxed..Box$LT$syn..pat..Pat$GT$$GT$17h622b0c1db21c0742E', symObjAddr: 0x9770, symBinAddr: 0x45AF0, symSize: 0x50 }
  - { offsetInCU: 0x5ECDC, offset: 0x1C1925, size: 0x8, addend: 0x0, symName: '__ZN4core3ptr59drop_in_place$LT$alloc..boxed..Box$LT$syn..ty..Type$GT$$GT$17hde45fa887dd8b605E', symObjAddr: 0x97C0, symBinAddr: 0x45B40, symSize: 0x50 }
  - { offsetInCU: 0x5EE35, offset: 0x1C1A7E, size: 0x8, addend: 0x0, symName: '__ZN4core3ptr59drop_in_place$LT$alloc..vec..Vec$LT$syn..item..Item$GT$$GT$17h8590e8c8e196c3c2E', symObjAddr: 0x9810, symBinAddr: 0x45B90, symSize: 0xD0 }
  - { offsetInCU: 0x5F0F5, offset: 0x1C1D3E, size: 0x8, addend: 0x0, symName: '__ZN4core3ptr59drop_in_place$LT$alloc..vec..Vec$LT$syn..stmt..Stmt$GT$$GT$17h6cf3e54f41bc03bdE', symObjAddr: 0x98E0, symBinAddr: 0x45C60, symSize: 0xD0 }
  - { offsetInCU: 0x5F3B5, offset: 0x1C1FFE, size: 0x8, addend: 0x0, symName: '__ZN4core3ptr61drop_in_place$LT$alloc..boxed..Box$LT$syn..expr..Expr$GT$$GT$17hbb42293869113942E', symObjAddr: 0x99B0, symBinAddr: 0x45D30, symSize: 0x50 }
  - { offsetInCU: 0x5F50E, offset: 0x1C2157, size: 0x8, addend: 0x0, symName: '__ZN4core3ptr61drop_in_place$LT$core..option..Option$LT$syn..ty..Abi$GT$$GT$17h7dcd65a0d902f85aE', symObjAddr: 0x9A00, symBinAddr: 0x45D80, symSize: 0x70 }
  - { offsetInCU: 0x5F8B2, offset: 0x1C24FB, size: 0x8, addend: 0x0, symName: '__ZN4core3ptr61drop_in_place$LT$syn..path..ParenthesizedGenericArguments$GT$17h6b1731382637937fE', symObjAddr: 0x9A70, symBinAddr: 0x45DF0, symSize: 0x170 }
  - { offsetInCU: 0x5FEA8, offset: 0x1C2AF1, size: 0x8, addend: 0x0, symName: '__ZN4core3ptr62drop_in_place$LT$alloc..boxed..Box$LT$syn..stmt..Block$GT$$GT$17h21dcb5adf0237a12E', symObjAddr: 0x9BE0, symBinAddr: 0x45F60, symSize: 0xE0 }
  - { offsetInCU: 0x602BA, offset: 0x1C2F03, size: 0x8, addend: 0x0, symName: '__ZN4core3ptr62drop_in_place$LT$syn..path..AngleBracketedGenericArguments$GT$17hf8fa172f007a1473E', symObjAddr: 0x9CC0, symBinAddr: 0x46040, symSize: 0x120 }
  - { offsetInCU: 0x60705, offset: 0x1C334E, size: 0x8, addend: 0x0, symName: '__ZN4core3ptr63drop_in_place$LT$alloc..boxed..Box$LT$syn..lit..LitRepr$GT$$GT$17h6e3a82ea4de7b84cE', symObjAddr: 0x9DE0, symBinAddr: 0x46160, symSize: 0x60 }
  - { offsetInCU: 0x609CE, offset: 0x1C3617, size: 0x8, addend: 0x0, symName: '__ZN4core3ptr63drop_in_place$LT$alloc..vec..Vec$LT$syn..item..ImplItem$GT$$GT$17hc51fca07e67d35aeE', symObjAddr: 0x9E40, symBinAddr: 0x461C0, symSize: 0x80 }
  - { offsetInCU: 0x60CA5, offset: 0x1C38EE, size: 0x8, addend: 0x0, symName: '__ZN4core3ptr64drop_in_place$LT$alloc..boxed..Box$LT$syn..item..UseTree$GT$$GT$17he4d7024582150632E', symObjAddr: 0x9EC0, symBinAddr: 0x46240, symSize: 0xF0 }
  - { offsetInCU: 0x611C0, offset: 0x1C3E09, size: 0x8, addend: 0x0, symName: '__ZN4core3ptr64drop_in_place$LT$alloc..boxed..Box$LT$syn..pat..FieldPat$GT$$GT$17hbf8f4867d84bd25dE', symObjAddr: 0x9FB0, symBinAddr: 0x46330, symSize: 0x140 }
  - { offsetInCU: 0x618C1, offset: 0x1C450A, size: 0x8, addend: 0x0, symName: '__ZN4core3ptr64drop_in_place$LT$alloc..boxed..Box$LT$syn..ty..BareFnArg$GT$$GT$17h6be6354eb1d1364dE', symObjAddr: 0xA0F0, symBinAddr: 0x46470, symSize: 0x140 }
  - { offsetInCU: 0x61E4A, offset: 0x1C4A93, size: 0x8, addend: 0x0, symName: '__ZN4core3ptr64drop_in_place$LT$alloc..vec..Vec$LT$syn..attr..Attribute$GT$$GT$17he33e25539d5885aeE', symObjAddr: 0xA230, symBinAddr: 0x465B0, symSize: 0xD0 }
  - { offsetInCU: 0x6213E, offset: 0x1C4D87, size: 0x8, addend: 0x0, symName: '__ZN4core3ptr64drop_in_place$LT$alloc..vec..Vec$LT$syn..item..TraitItem$GT$$GT$17hff1cc01ccae80d7aE', symObjAddr: 0xA300, symBinAddr: 0x46680, symSize: 0x80 }
  - { offsetInCU: 0x623F6, offset: 0x1C503F, size: 0x8, addend: 0x0, symName: '__ZN4core3ptr65drop_in_place$LT$alloc..vec..Vec$LT$proc_macro..TokenTree$GT$$GT$17h8abd81f8596dbc59E', symObjAddr: 0xA380, symBinAddr: 0x46700, symSize: 0x110 }
  - { offsetInCU: 0x627EE, offset: 0x1C5437, size: 0x8, addend: 0x0, symName: '__ZN4core3ptr65drop_in_place$LT$core..option..Option$LT$syn..expr..Label$GT$$GT$17hac599686b33ef364E', symObjAddr: 0xA490, symBinAddr: 0x46810, symSize: 0x30 }
  - { offsetInCU: 0x62928, offset: 0x1C5571, size: 0x8, addend: 0x0, symName: '__ZN4core3ptr65drop_in_place$LT$core..option..Option$LT$syn..stmt..Block$GT$$GT$17h74f2551ed24e2d27E', symObjAddr: 0xA4C0, symBinAddr: 0x46840, symSize: 0xD0 }
  - { offsetInCU: 0x62BFD, offset: 0x1C5846, size: 0x8, addend: 0x0, symName: '__ZN4core3ptr66drop_in_place$LT$alloc..vec..Vec$LT$syn..item..ForeignItem$GT$$GT$17h1f176e04eaf5e0dfE', symObjAddr: 0xA590, symBinAddr: 0x46910, symSize: 0x80 }
  - { offsetInCU: 0x62EB5, offset: 0x1C5AFE, size: 0x8, addend: 0x0, symName: '__ZN4core3ptr66drop_in_place$LT$core..option..Option$LT$syn..pat..PatRest$GT$$GT$17hd5bb3bc28aa78ac1E', symObjAddr: 0xA610, symBinAddr: 0x46990, symSize: 0xE0 }
  - { offsetInCU: 0x631DD, offset: 0x1C5E26, size: 0x8, addend: 0x0, symName: '__ZN4core3ptr67drop_in_place$LT$alloc..boxed..Box$LT$syn..expr..FieldValue$GT$$GT$17hbbcf67a9d5e9863cE', symObjAddr: 0xA6F0, symBinAddr: 0x46A70, symSize: 0x140 }
  - { offsetInCU: 0x63746, offset: 0x1C638F, size: 0x8, addend: 0x0, symName: '__ZN4core3ptr67drop_in_place$LT$core..option..Option$LT$proc_macro2..Ident$GT$$GT$17h430b2bec25099623E', symObjAddr: 0xA830, symBinAddr: 0x46BB0, symSize: 0x30 }
  - { offsetInCU: 0x63842, offset: 0x1C648B, size: 0x8, addend: 0x0, symName: '__ZN4core3ptr68drop_in_place$LT$alloc..boxed..Box$LT$syn..path..PathSegment$GT$$GT$17h99aaf90b3262bc1eE', symObjAddr: 0xA860, symBinAddr: 0x46BE0, symSize: 0x1B0 }
  - { offsetInCU: 0x63F31, offset: 0x1C6B7A, size: 0x8, addend: 0x0, symName: '__ZN4core3ptr68drop_in_place$LT$core..option..Option$LT$syn..item..Variadic$GT$$GT$17hbfd9a809a8c7f20eE', symObjAddr: 0xAA10, symBinAddr: 0x46D90, symSize: 0x20 }
  - { offsetInCU: 0x63F6B, offset: 0x1C6BB4, size: 0x8, addend: 0x0, symName: '__ZN4core3ptr70drop_in_place$LT$core..option..Option$LT$syn..ty..BareVariadic$GT$$GT$17h79a19250e9f043b1E', symObjAddr: 0xAA30, symBinAddr: 0x46DB0, symSize: 0x100 }
  - { offsetInCU: 0x643D6, offset: 0x1C701F, size: 0x8, addend: 0x0, symName: '__ZN4core3ptr72drop_in_place$LT$alloc..boxed..Box$LT$syn..path..GenericArgument$GT$$GT$17hfd308d374af4273dE', symObjAddr: 0xAB30, symBinAddr: 0x46EB0, symSize: 0x1D0 }
  - { offsetInCU: 0x64971, offset: 0x1C75BA, size: 0x8, addend: 0x0, symName: '__ZN4core3ptr72drop_in_place$LT$core..option..Option$LT$syn..lifetime..Lifetime$GT$$GT$17h49cce6f02f9c0590E', symObjAddr: 0xAD00, symBinAddr: 0x47080, symSize: 0x30 }
  - { offsetInCU: 0x64A8C, offset: 0x1C76D5, size: 0x8, addend: 0x0, symName: '__ZN4core3ptr73drop_in_place$LT$alloc..boxed..Box$LT$syn..generics..GenericParam$GT$$GT$17ha26d5d145af4b203E', symObjAddr: 0xAD30, symBinAddr: 0x470B0, symSize: 0x80 }
  - { offsetInCU: 0x64C02, offset: 0x1C784B, size: 0x8, addend: 0x0, symName: '__ZN4core3ptr75drop_in_place$LT$alloc..boxed..Box$LT$syn..generics..TypeParamBound$GT$$GT$17h129a4e927e5eb81bE', symObjAddr: 0xADB0, symBinAddr: 0x47130, symSize: 0xC0 }
  - { offsetInCU: 0x64F75, offset: 0x1C7BBE, size: 0x8, addend: 0x0, symName: '__ZN4core3ptr75drop_in_place$LT$core..option..Option$LT$syn..generics..WhereClause$GT$$GT$17haaf63f327098cdccE', symObjAddr: 0xAE70, symBinAddr: 0x471F0, symSize: 0x90 }
  - { offsetInCU: 0x65269, offset: 0x1C7EB2, size: 0x8, addend: 0x0, symName: '__ZN4core3ptr86drop_in_place$LT$syn..punctuated..Punctuated$LT$syn..pat..Pat$C$syn..token..Or$GT$$GT$17h9cc6b5f7b6d3a555E', symObjAddr: 0xAF00, symBinAddr: 0x47280, symSize: 0x120 }
  - { offsetInCU: 0x656E4, offset: 0x1C832D, size: 0x8, addend: 0x0, symName: '__ZN4core3ptr87drop_in_place$LT$core..option..Option$LT$$LP$syn..token..Eq$C$syn..ty..Type$RP$$GT$$GT$17h3b3da7647c1cdad5E', symObjAddr: 0xB020, symBinAddr: 0x473A0, symSize: 0x20 }
  - { offsetInCU: 0x65716, offset: 0x1C835F, size: 0x8, addend: 0x0, symName: '__ZN4core3ptr87drop_in_place$LT$core..option..Option$LT$alloc..boxed..Box$LT$syn..pat..Pat$GT$$GT$$GT$17h51cd48973d96c411E', symObjAddr: 0xB040, symBinAddr: 0x473C0, symSize: 0x50 }
  - { offsetInCU: 0x65886, offset: 0x1C84CF, size: 0x8, addend: 0x0, symName: '__ZN4core3ptr87drop_in_place$LT$core..option..Option$LT$alloc..boxed..Box$LT$syn..ty..Type$GT$$GT$$GT$17h103a25a4a7d7374eE', symObjAddr: 0xB090, symBinAddr: 0x47410, symSize: 0x50 }
  - { offsetInCU: 0x659F6, offset: 0x1C863F, size: 0x8, addend: 0x0, symName: '__ZN4core3ptr89drop_in_place$LT$core..option..Option$LT$$LP$syn..token..Eq$C$syn..expr..Expr$RP$$GT$$GT$17h933a540a99ff8409E', symObjAddr: 0xB0E0, symBinAddr: 0x47460, symSize: 0x20 }
  - { offsetInCU: 0x65A28, offset: 0x1C8671, size: 0x8, addend: 0x0, symName: '__ZN4core3ptr89drop_in_place$LT$core..option..Option$LT$alloc..boxed..Box$LT$syn..expr..Expr$GT$$GT$$GT$17h9e02509cb2345d44E', symObjAddr: 0xB100, symBinAddr: 0x47480, symSize: 0x50 }
  - { offsetInCU: 0x65BD6, offset: 0x1C881F, size: 0x8, addend: 0x0, symName: '__ZN4core3ptr89drop_in_place$LT$syn..punctuated..Punctuated$LT$syn..pat..Pat$C$syn..token..Comma$GT$$GT$17hd3a83c36827f210aE', symObjAddr: 0xB150, symBinAddr: 0x474D0, symSize: 0x120 }
  - { offsetInCU: 0x66068, offset: 0x1C8CB1, size: 0x8, addend: 0x0, symName: '__ZN4core3ptr89drop_in_place$LT$syn..punctuated..Punctuated$LT$syn..ty..Type$C$syn..token..Comma$GT$$GT$17he030c4b7f24a5848E', symObjAddr: 0xB270, symBinAddr: 0x475F0, symSize: 0x120 }
  - { offsetInCU: 0x66521, offset: 0x1C916A, size: 0x8, addend: 0x0, symName: '__ZN4core3ptr90drop_in_place$LT$core..option..Option$LT$alloc..boxed..Box$LT$syn..data..Field$GT$$GT$$GT$17h9f1aee8cd56c6727E', symObjAddr: 0xB390, symBinAddr: 0x47710, symSize: 0x1B0 }
  - { offsetInCU: 0x66C1C, offset: 0x1C9865, size: 0x8, addend: 0x0, symName: '__ZN4core3ptr90drop_in_place$LT$core..option..Option$LT$alloc..boxed..Box$LT$syn..item..FnArg$GT$$GT$$GT$17h8635495a730dc0bfE', symObjAddr: 0xB540, symBinAddr: 0x478C0, symSize: 0x70 }
  - { offsetInCU: 0x66D96, offset: 0x1C99DF, size: 0x8, addend: 0x0, symName: '__ZN4core3ptr90drop_in_place$LT$core..option..Option$LT$syn..path..AngleBracketedGenericArguments$GT$$GT$17ha307713a95a0671eE', symObjAddr: 0xB5B0, symBinAddr: 0x47930, symSize: 0x130 }
  - { offsetInCU: 0x67238, offset: 0x1C9E81, size: 0x8, addend: 0x0, symName: '__ZN4core3ptr91drop_in_place$LT$syn..punctuated..Punctuated$LT$syn..expr..Expr$C$syn..token..Comma$GT$$GT$17h6f261e8f470c81f2E', symObjAddr: 0xB6E0, symBinAddr: 0x47A60, symSize: 0x120 }
  - { offsetInCU: 0x676C6, offset: 0x1CA30F, size: 0x8, addend: 0x0, symName: '__ZN4core3ptr92drop_in_place$LT$core..option..Option$LT$$LP$syn..token..As$C$proc_macro2..Ident$RP$$GT$$GT$17h12a88945917fa9dbE', symObjAddr: 0xB800, symBinAddr: 0x47B80, symSize: 0x30 }
  - { offsetInCU: 0x6781F, offset: 0x1CA468, size: 0x8, addend: 0x0, symName: '__ZN4core3ptr92drop_in_place$LT$core..option..Option$LT$alloc..boxed..Box$LT$syn..data..Variant$GT$$GT$$GT$17hb65f9b5d99f448afE', symObjAddr: 0xB830, symBinAddr: 0x47BB0, symSize: 0x170 }
  - { offsetInCU: 0x67E4B, offset: 0x1CAA94, size: 0x8, addend: 0x0, symName: '__ZN4core3ptr92drop_in_place$LT$syn..punctuated..Punctuated$LT$syn..item..FnArg$C$syn..token..Comma$GT$$GT$17h7de33e77eabaea82E', symObjAddr: 0xB9A0, symBinAddr: 0x47D20, symSize: 0x140 }
  - { offsetInCU: 0x682C8, offset: 0x1CAF11, size: 0x8, addend: 0x0, symName: '__ZN4core3ptr94drop_in_place$LT$syn..punctuated..Punctuated$LT$syn..data..Variant$C$syn..token..Comma$GT$$GT$17h310cd79aba4529ccE', symObjAddr: 0xBAE0, symBinAddr: 0x47E60, symSize: 0xE0 }
  - { offsetInCU: 0x68628, offset: 0x1CB271, size: 0x8, addend: 0x0, symName: '__ZN4core3ptr94drop_in_place$LT$syn..punctuated..Punctuated$LT$syn..item..UseTree$C$syn..token..Comma$GT$$GT$17h6236871345889df7E', symObjAddr: 0xBBC0, symBinAddr: 0x47F40, symSize: 0xF0 }
  - { offsetInCU: 0x6896E, offset: 0x1CB5B7, size: 0x8, addend: 0x0, symName: '__ZN4core3ptr94drop_in_place$LT$syn..punctuated..Punctuated$LT$syn..pat..FieldPat$C$syn..token..Comma$GT$$GT$17h43ec25af986ef674E', symObjAddr: 0xBCB0, symBinAddr: 0x48030, symSize: 0xF0 }
  - { offsetInCU: 0x68C6D, offset: 0x1CB8B6, size: 0x8, addend: 0x0, symName: '__ZN4core3ptr94drop_in_place$LT$syn..punctuated..Punctuated$LT$syn..ty..BareFnArg$C$syn..token..Comma$GT$$GT$17h7ba4c699ee390ebaE', symObjAddr: 0xBDA0, symBinAddr: 0x48120, symSize: 0xF0 }
  - { offsetInCU: 0x68F6E, offset: 0x1CBBB7, size: 0x8, addend: 0x0, symName: '__ZN4core3ptr96drop_in_place$LT$core..option..Option$LT$alloc..boxed..Box$LT$syn..path..PathSegment$GT$$GT$$GT$17h5de12a5a0f9e9ef9E', symObjAddr: 0xBE90, symBinAddr: 0x48210, symSize: 0xA0 }
  - { offsetInCU: 0x691ED, offset: 0x1CBE36, size: 0x8, addend: 0x0, symName: '__ZN4core3ptr97drop_in_place$LT$syn..punctuated..Punctuated$LT$syn..expr..FieldValue$C$syn..token..Comma$GT$$GT$17hf58d0a9a09266ab3E', symObjAddr: 0xBF30, symBinAddr: 0x482B0, symSize: 0xF0 }
  - { offsetInCU: 0x694EA, offset: 0x1CC133, size: 0x8, addend: 0x0, symName: '__ZN4core3ptr98drop_in_place$LT$alloc..vec..Vec$LT$$LP$syn..path..GenericArgument$C$syn..token..Comma$RP$$GT$$GT$17h0dee282a026d5a38E', symObjAddr: 0xC020, symBinAddr: 0x483A0, symSize: 0xD0 }
  - { offsetInCU: 0x6982A, offset: 0x1CC473, size: 0x8, addend: 0x0, symName: '__ZN4core3ptr98drop_in_place$LT$syn..punctuated..Punctuated$LT$syn..lifetime..Lifetime$C$syn..token..Plus$GT$$GT$17h600c2b78f78fd2b9E', symObjAddr: 0xC0F0, symBinAddr: 0x48470, symSize: 0xD0 }
  - { offsetInCU: 0x6BC93, offset: 0x1CE8DC, size: 0x8, addend: 0x0, symName: '__ZN66_$LT$core..option..Option$LT$T$GT$$u20$as$u20$core..fmt..Debug$GT$3fmt17h04cdf44a1722b195E', symObjAddr: 0xC2E0, symBinAddr: 0x485B0, symSize: 0x60 }
  - { offsetInCU: 0x6BCF9, offset: 0x1CE942, size: 0x8, addend: 0x0, symName: '__ZN66_$LT$core..option..Option$LT$T$GT$$u20$as$u20$core..fmt..Debug$GT$3fmt17h125de5a4ea542f00E', symObjAddr: 0xC340, symBinAddr: 0x48610, symSize: 0x50 }
  - { offsetInCU: 0x6BD5F, offset: 0x1CE9A8, size: 0x8, addend: 0x0, symName: '__ZN66_$LT$core..option..Option$LT$T$GT$$u20$as$u20$core..fmt..Debug$GT$3fmt17h173390018063d9b2E', symObjAddr: 0xC390, symBinAddr: 0x48660, symSize: 0x50 }
  - { offsetInCU: 0x6BDC5, offset: 0x1CEA0E, size: 0x8, addend: 0x0, symName: '__ZN66_$LT$core..option..Option$LT$T$GT$$u20$as$u20$core..fmt..Debug$GT$3fmt17h23a526921c844048E', symObjAddr: 0xC3E0, symBinAddr: 0x486B0, symSize: 0x60 }
  - { offsetInCU: 0x6BE2B, offset: 0x1CEA74, size: 0x8, addend: 0x0, symName: '__ZN66_$LT$core..option..Option$LT$T$GT$$u20$as$u20$core..fmt..Debug$GT$3fmt17h444f22eece7e8e0cE', symObjAddr: 0xC440, symBinAddr: 0x48710, symSize: 0x50 }
  - { offsetInCU: 0x6BE91, offset: 0x1CEADA, size: 0x8, addend: 0x0, symName: '__ZN66_$LT$core..option..Option$LT$T$GT$$u20$as$u20$core..fmt..Debug$GT$3fmt17h4a9ba03cb680397cE', symObjAddr: 0xC490, symBinAddr: 0x48760, symSize: 0x50 }
  - { offsetInCU: 0x6BEF7, offset: 0x1CEB40, size: 0x8, addend: 0x0, symName: '__ZN66_$LT$core..option..Option$LT$T$GT$$u20$as$u20$core..fmt..Debug$GT$3fmt17h5c6773f32a27c650E', symObjAddr: 0xC4E0, symBinAddr: 0x487B0, symSize: 0x50 }
  - { offsetInCU: 0x6BF5D, offset: 0x1CEBA6, size: 0x8, addend: 0x0, symName: '__ZN66_$LT$core..option..Option$LT$T$GT$$u20$as$u20$core..fmt..Debug$GT$3fmt17h5d30cef098327974E', symObjAddr: 0xC530, symBinAddr: 0x48800, symSize: 0x60 }
  - { offsetInCU: 0x6BFC3, offset: 0x1CEC0C, size: 0x8, addend: 0x0, symName: '__ZN66_$LT$core..option..Option$LT$T$GT$$u20$as$u20$core..fmt..Debug$GT$3fmt17h5e97d63aa1b30ccbE', symObjAddr: 0xC590, symBinAddr: 0x48860, symSize: 0x50 }
  - { offsetInCU: 0x6C029, offset: 0x1CEC72, size: 0x8, addend: 0x0, symName: '__ZN66_$LT$core..option..Option$LT$T$GT$$u20$as$u20$core..fmt..Debug$GT$3fmt17h810f26adfe711fa9E', symObjAddr: 0xC5E0, symBinAddr: 0x488B0, symSize: 0x50 }
  - { offsetInCU: 0x6C08F, offset: 0x1CECD8, size: 0x8, addend: 0x0, symName: '__ZN66_$LT$core..option..Option$LT$T$GT$$u20$as$u20$core..fmt..Debug$GT$3fmt17h831dc3ce290fea6aE', symObjAddr: 0xC630, symBinAddr: 0x48900, symSize: 0x20 }
  - { offsetInCU: 0x6C0D3, offset: 0x1CED1C, size: 0x8, addend: 0x0, symName: '__ZN66_$LT$core..option..Option$LT$T$GT$$u20$as$u20$core..fmt..Debug$GT$3fmt17h88851a932c6a5270E', symObjAddr: 0xC650, symBinAddr: 0x48920, symSize: 0x50 }
  - { offsetInCU: 0x6C139, offset: 0x1CED82, size: 0x8, addend: 0x0, symName: '__ZN66_$LT$core..option..Option$LT$T$GT$$u20$as$u20$core..fmt..Debug$GT$3fmt17h92e5b42df743884fE', symObjAddr: 0xC6A0, symBinAddr: 0x48970, symSize: 0x50 }
  - { offsetInCU: 0x6C19F, offset: 0x1CEDE8, size: 0x8, addend: 0x0, symName: '__ZN66_$LT$core..option..Option$LT$T$GT$$u20$as$u20$core..fmt..Debug$GT$3fmt17h943ec9e7b02c5097E', symObjAddr: 0xC6F0, symBinAddr: 0x489C0, symSize: 0x60 }
  - { offsetInCU: 0x6C205, offset: 0x1CEE4E, size: 0x8, addend: 0x0, symName: '__ZN66_$LT$core..option..Option$LT$T$GT$$u20$as$u20$core..fmt..Debug$GT$3fmt17h943fce126144e090E', symObjAddr: 0xC750, symBinAddr: 0x48A20, symSize: 0x60 }
  - { offsetInCU: 0x6C26B, offset: 0x1CEEB4, size: 0x8, addend: 0x0, symName: '__ZN66_$LT$core..option..Option$LT$T$GT$$u20$as$u20$core..fmt..Debug$GT$3fmt17h9d264003c8171d27E', symObjAddr: 0xC7B0, symBinAddr: 0x48A80, symSize: 0x60 }
  - { offsetInCU: 0x6C2D1, offset: 0x1CEF1A, size: 0x8, addend: 0x0, symName: '__ZN66_$LT$core..option..Option$LT$T$GT$$u20$as$u20$core..fmt..Debug$GT$3fmt17hc4565ff8152e74ddE', symObjAddr: 0xC810, symBinAddr: 0x48AE0, symSize: 0x60 }
  - { offsetInCU: 0x6C337, offset: 0x1CEF80, size: 0x8, addend: 0x0, symName: '__ZN66_$LT$core..option..Option$LT$T$GT$$u20$as$u20$core..fmt..Debug$GT$3fmt17hc679ed963eefad6cE', symObjAddr: 0xC870, symBinAddr: 0x48B40, symSize: 0x60 }
  - { offsetInCU: 0x6C39D, offset: 0x1CEFE6, size: 0x8, addend: 0x0, symName: '__ZN66_$LT$core..option..Option$LT$T$GT$$u20$as$u20$core..fmt..Debug$GT$3fmt17hdff6c11dc8127d81E', symObjAddr: 0xC8D0, symBinAddr: 0x48BA0, symSize: 0x60 }
  - { offsetInCU: 0x6C403, offset: 0x1CF04C, size: 0x8, addend: 0x0, symName: '__ZN66_$LT$core..option..Option$LT$T$GT$$u20$as$u20$core..fmt..Debug$GT$3fmt17he5c6d035a7e6347eE', symObjAddr: 0xC930, symBinAddr: 0x48C00, symSize: 0x60 }
  - { offsetInCU: 0x6C469, offset: 0x1CF0B2, size: 0x8, addend: 0x0, symName: '__ZN66_$LT$core..option..Option$LT$T$GT$$u20$as$u20$core..fmt..Debug$GT$3fmt17hf5798e2dd0d945b2E', symObjAddr: 0xC990, symBinAddr: 0x48C60, symSize: 0x50 }
  - { offsetInCU: 0x6C4CF, offset: 0x1CF118, size: 0x8, addend: 0x0, symName: '__ZN66_$LT$core..option..Option$LT$T$GT$$u20$as$u20$core..fmt..Debug$GT$3fmt17hfbd740a3a57feb51E', symObjAddr: 0xC9E0, symBinAddr: 0x48CB0, symSize: 0x60 }
  - { offsetInCU: 0x6DC25, offset: 0x1D086E, size: 0x8, addend: 0x0, symName: '__ZN42_$LT$$RF$T$u20$as$u20$core..fmt..Debug$GT$3fmt17h06c02adecedf4f95E', symObjAddr: 0x0, symBinAddr: 0x3C620, symSize: 0x10 }
  - { offsetInCU: 0x6DC6B, offset: 0x1D08B4, size: 0x8, addend: 0x0, symName: '__ZN42_$LT$$RF$T$u20$as$u20$core..fmt..Debug$GT$3fmt17h386f1c19529404ffE', symObjAddr: 0x10, symBinAddr: 0x3C630, symSize: 0x10 }
  - { offsetInCU: 0x6DCB1, offset: 0x1D08FA, size: 0x8, addend: 0x0, symName: '__ZN42_$LT$$RF$T$u20$as$u20$core..fmt..Debug$GT$3fmt17h59e602f5e5a02765E', symObjAddr: 0x20, symBinAddr: 0x3C640, symSize: 0x10 }
  - { offsetInCU: 0x6DCF7, offset: 0x1D0940, size: 0x8, addend: 0x0, symName: '__ZN42_$LT$$RF$T$u20$as$u20$core..fmt..Debug$GT$3fmt17h685cb89ea0e16ca5E', symObjAddr: 0x30, symBinAddr: 0x3C650, symSize: 0xC0 }
  - { offsetInCU: 0x6DD7D, offset: 0x1D09C6, size: 0x8, addend: 0x0, symName: '__ZN42_$LT$$RF$T$u20$as$u20$core..fmt..Debug$GT$3fmt17hca28b073165b0fa2E', symObjAddr: 0xF0, symBinAddr: 0x3C710, symSize: 0x10 }
  - { offsetInCU: 0x71EBB, offset: 0x1D4B04, size: 0x8, addend: 0x0, symName: '__ZN48_$LT$T$u20$as$u20$core..clone..CloneToUninit$GT$15clone_to_uninit17h4081700a47491491E', symObjAddr: 0x300, symBinAddr: 0x3C720, symSize: 0x360 }
  - { offsetInCU: 0x78756, offset: 0x1DB39F, size: 0x8, addend: 0x0, symName: _anon.92dfd3ec73d6049f2210ee6b3fc0a284.49.llvm.18308377727791997679, symObjAddr: 0x33B30, symBinAddr: 0x260850, symSize: 0x0 }
  - { offsetInCU: 0x787A1, offset: 0x1DB3EA, size: 0x8, addend: 0x0, symName: _anon.92dfd3ec73d6049f2210ee6b3fc0a284.51.llvm.18308377727791997679, symObjAddr: 0x33B50, symBinAddr: 0x260870, symSize: 0x0 }
  - { offsetInCU: 0x787EC, offset: 0x1DB435, size: 0x8, addend: 0x0, symName: _anon.92dfd3ec73d6049f2210ee6b3fc0a284.235.llvm.18308377727791997679, symObjAddr: 0x34430, symBinAddr: 0x261150, symSize: 0x0 }
  - { offsetInCU: 0x78837, offset: 0x1DB480, size: 0x8, addend: 0x0, symName: _anon.92dfd3ec73d6049f2210ee6b3fc0a284.237.llvm.18308377727791997679, symObjAddr: 0x34450, symBinAddr: 0x261170, symSize: 0x0 }
  - { offsetInCU: 0x78882, offset: 0x1DB4CB, size: 0x8, addend: 0x0, symName: _anon.92dfd3ec73d6049f2210ee6b3fc0a284.239.llvm.18308377727791997679, symObjAddr: 0x34470, symBinAddr: 0x261190, symSize: 0x0 }
  - { offsetInCU: 0x788CD, offset: 0x1DB516, size: 0x8, addend: 0x0, symName: _anon.92dfd3ec73d6049f2210ee6b3fc0a284.241.llvm.18308377727791997679, symObjAddr: 0x34490, symBinAddr: 0x2611B0, symSize: 0x0 }
  - { offsetInCU: 0x78918, offset: 0x1DB561, size: 0x8, addend: 0x0, symName: _anon.92dfd3ec73d6049f2210ee6b3fc0a284.243.llvm.18308377727791997679, symObjAddr: 0x344B0, symBinAddr: 0x2611D0, symSize: 0x0 }
  - { offsetInCU: 0x7A9D2, offset: 0x1DD61B, size: 0x8, addend: 0x0, symName: '__ZN5alloc3vec16Vec$LT$T$C$A$GT$15append_elements17h17d0f6dcdaba10bcE', symObjAddr: 0xC230, symBinAddr: 0x48540, symSize: 0x70 }
  - { offsetInCU: 0x7AC35, offset: 0x1DD87E, size: 0x8, addend: 0x0, symName: __ZN3syn4item4Item13replace_attrs17h0529b41fa0d8dba2E, symObjAddr: 0xCB80, symBinAddr: 0x48D10, symSize: 0x190 }
  - { offsetInCU: 0x7D466, offset: 0x1E00AF, size: 0x8, addend: 0x0, symName: '__ZN3syn3gen5debug46_$LT$impl$u20$syn..item..ForeignItemStatic$GT$5debug17hee45d3ba812ac4d3E', symObjAddr: 0x28DE0, symBinAddr: 0x5D4F0, symSize: 0x130 }
  - { offsetInCU: 0x7D54A, offset: 0x1E0193, size: 0x8, addend: 0x0, symName: '__ZN3syn3gen5debug42_$LT$impl$u20$syn..item..ImplItemConst$GT$5debug17h1c1a8bce2ea1fa22E', symObjAddr: 0x29280, symBinAddr: 0x5D870, symSize: 0x1A0 }
  - { offsetInCU: 0x7D5BA, offset: 0x1E0203, size: 0x8, addend: 0x0, symName: '__ZN3syn3gen5debug41_$LT$impl$u20$syn..item..ImplItemType$GT$5debug17h1f9b74778210d64cE', symObjAddr: 0x295C0, symBinAddr: 0x5DA10, symSize: 0x160 }
  - { offsetInCU: 0x7D759, offset: 0x1E03A2, size: 0x8, addend: 0x0, symName: '__ZN3syn3gen5debug38_$LT$impl$u20$syn..item..ItemConst$GT$5debug17h10c74fa14bb3f0b3E', symObjAddr: 0x29D60, symBinAddr: 0x5E190, symSize: 0x180 }
  - { offsetInCU: 0x7D7C9, offset: 0x1E0412, size: 0x8, addend: 0x0, symName: '__ZN3syn3gen5debug37_$LT$impl$u20$syn..item..ItemEnum$GT$5debug17h8d91cb8bbb9f53e3E', symObjAddr: 0x29F00, symBinAddr: 0x5E310, symSize: 0x120 }
  - { offsetInCU: 0x7D839, offset: 0x1E0482, size: 0x8, addend: 0x0, symName: '__ZN3syn3gen5debug44_$LT$impl$u20$syn..item..ItemExternCrate$GT$5debug17h44ac5b02fb33fbf6E', symObjAddr: 0x2A040, symBinAddr: 0x5E430, symSize: 0x110 }
  - { offsetInCU: 0x7D8A9, offset: 0x1E04F2, size: 0x8, addend: 0x0, symName: '__ZN3syn3gen5debug37_$LT$impl$u20$syn..item..ItemImpl$GT$5debug17h099cc7fb635cb0c1E', symObjAddr: 0x2A310, symBinAddr: 0x5E540, symSize: 0x160 }
  - { offsetInCU: 0x7D919, offset: 0x1E0562, size: 0x8, addend: 0x0, symName: '__ZN3syn3gen5debug36_$LT$impl$u20$syn..item..ItemMod$GT$5debug17h3efbd956be757ddeE', symObjAddr: 0x2A550, symBinAddr: 0x5E6A0, symSize: 0x110 }
  - { offsetInCU: 0x7D989, offset: 0x1E05D2, size: 0x8, addend: 0x0, symName: '__ZN3syn3gen5debug39_$LT$impl$u20$syn..item..ItemStatic$GT$5debug17h0e888fa56923924cE', symObjAddr: 0x2A680, symBinAddr: 0x5E7B0, symSize: 0x170 }
  - { offsetInCU: 0x7D9F9, offset: 0x1E0642, size: 0x8, addend: 0x0, symName: '__ZN3syn3gen5debug39_$LT$impl$u20$syn..item..ItemStruct$GT$5debug17hd67f1a1d1f2b18faE', symObjAddr: 0x2A810, symBinAddr: 0x5E920, symSize: 0x120 }
  - { offsetInCU: 0x7DA69, offset: 0x1E06B2, size: 0x8, addend: 0x0, symName: '__ZN3syn3gen5debug38_$LT$impl$u20$syn..item..ItemTrait$GT$5debug17he05db6866e82bb3fE', symObjAddr: 0x2A950, symBinAddr: 0x5EA40, symSize: 0x1C0 }
  - { offsetInCU: 0x7DAD9, offset: 0x1E0722, size: 0x8, addend: 0x0, symName: '__ZN3syn3gen5debug43_$LT$impl$u20$syn..item..ItemTraitAlias$GT$5debug17h7d6d52994cd8e9e4E', symObjAddr: 0x2AB30, symBinAddr: 0x5EC00, symSize: 0x140 }
  - { offsetInCU: 0x7DB49, offset: 0x1E0792, size: 0x8, addend: 0x0, symName: '__ZN3syn3gen5debug37_$LT$impl$u20$syn..item..ItemType$GT$5debug17h9d773c3fb2726754E', symObjAddr: 0x2AC90, symBinAddr: 0x5ED40, symSize: 0x140 }
  - { offsetInCU: 0x7DC2D, offset: 0x1E0876, size: 0x8, addend: 0x0, symName: '__ZN3syn3gen5debug43_$LT$impl$u20$syn..item..TraitItemConst$GT$5debug17hcc998632d3f178f9E', symObjAddr: 0x2B560, symBinAddr: 0x5F3F0, symSize: 0x140 }
  - { offsetInCU: 0x7DC9D, offset: 0x1E08E6, size: 0x8, addend: 0x0, symName: '__ZN3syn3gen5debug42_$LT$impl$u20$syn..item..TraitItemType$GT$5debug17h8c799fdc0a181826E', symObjAddr: 0x2B820, symBinAddr: 0x5F530, symSize: 0x140 }
  - { offsetInCU: 0x1E, offset: 0x1ED57E, size: 0x8, addend: 0x0, symName: '__ZN4core3ptr100drop_in_place$LT$alloc..vec..Vec$LT$$LP$syn..generics..TypeParamBound$C$syn..token..Plus$RP$$GT$$GT$17hea181150e4b37806E.llvm.991277207215265740', symObjAddr: 0x0, symBinAddr: 0x62360, symSize: 0xD0 }
  - { offsetInCU: 0x12A9, offset: 0x1EE809, size: 0x8, addend: 0x0, symName: '__ZN111_$LT$syn..punctuated..PrivateIter$LT$T$C$P$GT$$u20$as$u20$core..iter..traits..exact_size..ExactSizeIterator$GT$3len17hd03ac3201b3cfde6E.llvm.991277207215265740', symObjAddr: 0x105D0, symBinAddr: 0x70090, symSize: 0x0 }
  - { offsetInCU: 0x1487, offset: 0x1EE9E7, size: 0x8, addend: 0x0, symName: '__ZN115_$LT$syn..punctuated..PrivateIter$LT$T$C$P$GT$$u20$as$u20$core..iter..traits..double_ended..DoubleEndedIterator$GT$9next_back17h7f4f61270a4204d7E.llvm.991277207215265740', symObjAddr: 0x104C0, symBinAddr: 0x70060, symSize: 0x0 }
  - { offsetInCU: 0x1902, offset: 0x1EEE62, size: 0x8, addend: 0x0, symName: '__ZN100_$LT$syn..punctuated..PrivateIter$LT$T$C$P$GT$$u20$as$u20$core..iter..traits..iterator..Iterator$GT$4next17h2a509a6c34848c4aE.llvm.991277207215265740', symObjAddr: 0x103D0, symBinAddr: 0x6FFD0, symSize: 0x0 }
  - { offsetInCU: 0x1BB3, offset: 0x1EF113, size: 0x8, addend: 0x0, symName: '__ZN100_$LT$syn..punctuated..PrivateIter$LT$T$C$P$GT$$u20$as$u20$core..iter..traits..iterator..Iterator$GT$4next17h63cbef55dd3a9f53E.llvm.991277207215265740', symObjAddr: 0x10430, symBinAddr: 0x70000, symSize: 0x30 }
  - { offsetInCU: 0x1E40, offset: 0x1EF3A0, size: 0x8, addend: 0x0, symName: '__ZN100_$LT$syn..punctuated..PrivateIter$LT$T$C$P$GT$$u20$as$u20$core..iter..traits..iterator..Iterator$GT$4next17h6b4639ca1419e80fE.llvm.991277207215265740', symObjAddr: 0x10460, symBinAddr: 0x70030, symSize: 0x30 }
  - { offsetInCU: 0x2590, offset: 0x1EFAF0, size: 0x8, addend: 0x0, symName: '__ZN79_$LT$syn..punctuated..Punctuated$LT$T$C$P$GT$$u20$as$u20$core..clone..Clone$GT$5clone17h123489863670ef82E', symObjAddr: 0xCAC0, symBinAddr: 0x6DCE0, symSize: 0x150 }
  - { offsetInCU: 0x2863, offset: 0x1EFDC3, size: 0x8, addend: 0x0, symName: '__ZN79_$LT$syn..punctuated..Punctuated$LT$T$C$P$GT$$u20$as$u20$core..clone..Clone$GT$5clone17h22992bcace29f499E', symObjAddr: 0xCC10, symBinAddr: 0x6DE30, symSize: 0xE0 }
  - { offsetInCU: 0x2AEA, offset: 0x1F004A, size: 0x8, addend: 0x0, symName: '__ZN79_$LT$syn..punctuated..Punctuated$LT$T$C$P$GT$$u20$as$u20$core..clone..Clone$GT$5clone17h2892afd7277887d8E', symObjAddr: 0xCCF0, symBinAddr: 0x6DF10, symSize: 0xE0 }
  - { offsetInCU: 0x2D71, offset: 0x1F02D1, size: 0x8, addend: 0x0, symName: '__ZN79_$LT$syn..punctuated..Punctuated$LT$T$C$P$GT$$u20$as$u20$core..clone..Clone$GT$5clone17h4f35f72a65007a75E', symObjAddr: 0xCDD0, symBinAddr: 0x6DFF0, symSize: 0xC0 }
  - { offsetInCU: 0x2FA0, offset: 0x1F0500, size: 0x8, addend: 0x0, symName: '__ZN79_$LT$syn..punctuated..Punctuated$LT$T$C$P$GT$$u20$as$u20$core..clone..Clone$GT$5clone17h5b87dcc40d8ae16cE', symObjAddr: 0xCE90, symBinAddr: 0x6E0B0, symSize: 0xE0 }
  - { offsetInCU: 0x3227, offset: 0x1F0787, size: 0x8, addend: 0x0, symName: '__ZN79_$LT$syn..punctuated..Punctuated$LT$T$C$P$GT$$u20$as$u20$core..clone..Clone$GT$5clone17h5e7cb3171b95369bE', symObjAddr: 0xCF70, symBinAddr: 0x6E190, symSize: 0xC0 }
  - { offsetInCU: 0x3455, offset: 0x1F09B5, size: 0x8, addend: 0x0, symName: '__ZN79_$LT$syn..punctuated..Punctuated$LT$T$C$P$GT$$u20$as$u20$core..clone..Clone$GT$5clone17h71b1884f4462d97bE', symObjAddr: 0xD030, symBinAddr: 0x6E250, symSize: 0xE0 }
  - { offsetInCU: 0x36DC, offset: 0x1F0C3C, size: 0x8, addend: 0x0, symName: '__ZN79_$LT$syn..punctuated..Punctuated$LT$T$C$P$GT$$u20$as$u20$core..clone..Clone$GT$5clone17h795b6e9f94c0c96cE', symObjAddr: 0xD110, symBinAddr: 0x6E330, symSize: 0xE0 }
  - { offsetInCU: 0x3963, offset: 0x1F0EC3, size: 0x8, addend: 0x0, symName: '__ZN79_$LT$syn..punctuated..Punctuated$LT$T$C$P$GT$$u20$as$u20$core..clone..Clone$GT$5clone17h7b959744e3d5b8dbE', symObjAddr: 0xD1F0, symBinAddr: 0x6E410, symSize: 0x110 }
  - { offsetInCU: 0x3C20, offset: 0x1F1180, size: 0x8, addend: 0x0, symName: '__ZN79_$LT$syn..punctuated..Punctuated$LT$T$C$P$GT$$u20$as$u20$core..clone..Clone$GT$5clone17h8ecfcac09434508eE', symObjAddr: 0xD3E0, symBinAddr: 0x6E520, symSize: 0x180 }
  - { offsetInCU: 0x3FF2, offset: 0x1F1552, size: 0x8, addend: 0x0, symName: '__ZN79_$LT$syn..punctuated..Punctuated$LT$T$C$P$GT$$u20$as$u20$core..clone..Clone$GT$5clone17ha7ab2dd954c80b81E', symObjAddr: 0xD560, symBinAddr: 0x6E6A0, symSize: 0xE0 }
  - { offsetInCU: 0x4278, offset: 0x1F17D8, size: 0x8, addend: 0x0, symName: '__ZN79_$LT$syn..punctuated..Punctuated$LT$T$C$P$GT$$u20$as$u20$core..clone..Clone$GT$5clone17hc80da0ae5e8a9a5aE', symObjAddr: 0xD640, symBinAddr: 0x6E780, symSize: 0x110 }
  - { offsetInCU: 0x45E1, offset: 0x1F1B41, size: 0x8, addend: 0x0, symName: '__ZN81_$LT$syn..punctuated..Punctuated$LT$T$C$P$GT$$u20$as$u20$core..cmp..PartialEq$GT$2eq17h4a196d69834cf814E', symObjAddr: 0xDC80, symBinAddr: 0x6E890, symSize: 0xA0 }
  - { offsetInCU: 0x47CB, offset: 0x1F1D2B, size: 0x8, addend: 0x0, symName: '__ZN81_$LT$syn..punctuated..Punctuated$LT$T$C$P$GT$$u20$as$u20$core..cmp..PartialEq$GT$2eq17h4d049009f7adb56bE', symObjAddr: 0xDD20, symBinAddr: 0x6E930, symSize: 0xA0 }
  - { offsetInCU: 0x49B5, offset: 0x1F1F15, size: 0x8, addend: 0x0, symName: '__ZN81_$LT$syn..punctuated..Punctuated$LT$T$C$P$GT$$u20$as$u20$core..cmp..PartialEq$GT$2eq17h64d2a2ad503e7d3cE', symObjAddr: 0xDDC0, symBinAddr: 0x6E9D0, symSize: 0x0 }
  - { offsetInCU: 0x4B9F, offset: 0x1F20FF, size: 0x8, addend: 0x0, symName: '__ZN81_$LT$syn..punctuated..Punctuated$LT$T$C$P$GT$$u20$as$u20$core..cmp..PartialEq$GT$2eq17h84a0a9a3921870f0E', symObjAddr: 0xE230, symBinAddr: 0x6EA70, symSize: 0xA0 }
  - { offsetInCU: 0x4D89, offset: 0x1F22E9, size: 0x8, addend: 0x0, symName: '__ZN81_$LT$syn..punctuated..Punctuated$LT$T$C$P$GT$$u20$as$u20$core..cmp..PartialEq$GT$2eq17h84a68b14200a0566E', symObjAddr: 0xE2D0, symBinAddr: 0x6EB10, symSize: 0xA0 }
  - { offsetInCU: 0x4F73, offset: 0x1F24D3, size: 0x8, addend: 0x0, symName: '__ZN81_$LT$syn..punctuated..Punctuated$LT$T$C$P$GT$$u20$as$u20$core..cmp..PartialEq$GT$2eq17hb3cff438ab2541afE', symObjAddr: 0xE4B0, symBinAddr: 0x6EBB0, symSize: 0xA0 }
  - { offsetInCU: 0x515D, offset: 0x1F26BD, size: 0x8, addend: 0x0, symName: '__ZN81_$LT$syn..punctuated..Punctuated$LT$T$C$P$GT$$u20$as$u20$core..cmp..PartialEq$GT$2eq17hffca08a8be2b5e72E', symObjAddr: 0xE5B0, symBinAddr: 0x6EC50, symSize: 0x60 }
  - { offsetInCU: 0x52BB, offset: 0x1F281B, size: 0x8, addend: 0x0, symName: '__ZN77_$LT$syn..punctuated..Punctuated$LT$T$C$P$GT$$u20$as$u20$core..fmt..Debug$GT$3fmt17h2778f50863a7268fE', symObjAddr: 0xE610, symBinAddr: 0x6ECB0, symSize: 0xC0 }
  - { offsetInCU: 0x5415, offset: 0x1F2975, size: 0x8, addend: 0x0, symName: '__ZN77_$LT$syn..punctuated..Punctuated$LT$T$C$P$GT$$u20$as$u20$core..fmt..Debug$GT$3fmt17h2e7fc9dc04941466E', symObjAddr: 0xE6D0, symBinAddr: 0x6ED70, symSize: 0xC0 }
  - { offsetInCU: 0x556F, offset: 0x1F2ACF, size: 0x8, addend: 0x0, symName: '__ZN77_$LT$syn..punctuated..Punctuated$LT$T$C$P$GT$$u20$as$u20$core..fmt..Debug$GT$3fmt17h326886298395da63E', symObjAddr: 0xE790, symBinAddr: 0x6EE30, symSize: 0xC0 }
  - { offsetInCU: 0x56C9, offset: 0x1F2C29, size: 0x8, addend: 0x0, symName: '__ZN77_$LT$syn..punctuated..Punctuated$LT$T$C$P$GT$$u20$as$u20$core..fmt..Debug$GT$3fmt17h40b87cc84d8d4b03E', symObjAddr: 0xE850, symBinAddr: 0x6EEF0, symSize: 0xC0 }
  - { offsetInCU: 0x5823, offset: 0x1F2D83, size: 0x8, addend: 0x0, symName: '__ZN77_$LT$syn..punctuated..Punctuated$LT$T$C$P$GT$$u20$as$u20$core..fmt..Debug$GT$3fmt17h4ab7a98607251a66E', symObjAddr: 0xE910, symBinAddr: 0x6EFB0, symSize: 0xC0 }
  - { offsetInCU: 0x597D, offset: 0x1F2EDD, size: 0x8, addend: 0x0, symName: '__ZN77_$LT$syn..punctuated..Punctuated$LT$T$C$P$GT$$u20$as$u20$core..fmt..Debug$GT$3fmt17h7d6a6ad3441c0b06E', symObjAddr: 0xE9D0, symBinAddr: 0x6F070, symSize: 0xC0 }
  - { offsetInCU: 0x5AD7, offset: 0x1F3037, size: 0x8, addend: 0x0, symName: '__ZN77_$LT$syn..punctuated..Punctuated$LT$T$C$P$GT$$u20$as$u20$core..fmt..Debug$GT$3fmt17h9c71caf0c7f6394eE', symObjAddr: 0xEA90, symBinAddr: 0x6F130, symSize: 0xC0 }
  - { offsetInCU: 0x5C31, offset: 0x1F3191, size: 0x8, addend: 0x0, symName: '__ZN77_$LT$syn..punctuated..Punctuated$LT$T$C$P$GT$$u20$as$u20$core..fmt..Debug$GT$3fmt17h9ffca6260629d74dE', symObjAddr: 0xEB50, symBinAddr: 0x6F1F0, symSize: 0xC0 }
  - { offsetInCU: 0x5D8B, offset: 0x1F32EB, size: 0x8, addend: 0x0, symName: '__ZN77_$LT$syn..punctuated..Punctuated$LT$T$C$P$GT$$u20$as$u20$core..fmt..Debug$GT$3fmt17hb97860222c0ffca8E', symObjAddr: 0xEC10, symBinAddr: 0x6F2B0, symSize: 0xC0 }
  - { offsetInCU: 0x5EE5, offset: 0x1F3445, size: 0x8, addend: 0x0, symName: '__ZN77_$LT$syn..punctuated..Punctuated$LT$T$C$P$GT$$u20$as$u20$core..fmt..Debug$GT$3fmt17hbcf29ebe93aae909E', symObjAddr: 0xECD0, symBinAddr: 0x6F370, symSize: 0xC0 }
  - { offsetInCU: 0x603F, offset: 0x1F359F, size: 0x8, addend: 0x0, symName: '__ZN77_$LT$syn..punctuated..Punctuated$LT$T$C$P$GT$$u20$as$u20$core..fmt..Debug$GT$3fmt17hc334d04b3b56370bE', symObjAddr: 0xED90, symBinAddr: 0x6F430, symSize: 0xC0 }
  - { offsetInCU: 0x6199, offset: 0x1F36F9, size: 0x8, addend: 0x0, symName: '__ZN77_$LT$syn..punctuated..Punctuated$LT$T$C$P$GT$$u20$as$u20$core..fmt..Debug$GT$3fmt17hd6892887395afd44E', symObjAddr: 0xEE50, symBinAddr: 0x6F4F0, symSize: 0xC0 }
  - { offsetInCU: 0x62F3, offset: 0x1F3853, size: 0x8, addend: 0x0, symName: '__ZN77_$LT$syn..punctuated..Punctuated$LT$T$C$P$GT$$u20$as$u20$core..fmt..Debug$GT$3fmt17hde47e5f4e4543529E', symObjAddr: 0xEF10, symBinAddr: 0x6F5B0, symSize: 0xC0 }
  - { offsetInCU: 0x644D, offset: 0x1F39AD, size: 0x8, addend: 0x0, symName: '__ZN77_$LT$syn..punctuated..Punctuated$LT$T$C$P$GT$$u20$as$u20$core..fmt..Debug$GT$3fmt17heb6f2340dfa103b7E', symObjAddr: 0xEFD0, symBinAddr: 0x6F670, symSize: 0xC0 }
  - { offsetInCU: 0x65A7, offset: 0x1F3B07, size: 0x8, addend: 0x0, symName: '__ZN77_$LT$syn..punctuated..Punctuated$LT$T$C$P$GT$$u20$as$u20$core..fmt..Debug$GT$3fmt17hec9054ab2048a388E', symObjAddr: 0xF090, symBinAddr: 0x6F730, symSize: 0xC0 }
  - { offsetInCU: 0x6701, offset: 0x1F3C61, size: 0x8, addend: 0x0, symName: '__ZN77_$LT$syn..punctuated..Punctuated$LT$T$C$P$GT$$u20$as$u20$core..fmt..Debug$GT$3fmt17hef18100a7a231e8fE', symObjAddr: 0xF150, symBinAddr: 0x6F7F0, symSize: 0xC0 }
  - { offsetInCU: 0x685B, offset: 0x1F3DBB, size: 0x8, addend: 0x0, symName: '__ZN77_$LT$syn..punctuated..Punctuated$LT$T$C$P$GT$$u20$as$u20$core..fmt..Debug$GT$3fmt17hfa0e345197f14b06E', symObjAddr: 0xF210, symBinAddr: 0x6F8B0, symSize: 0xC0 }
  - { offsetInCU: 0x6AD9, offset: 0x1F4039, size: 0x8, addend: 0x0, symName: '__ZN138_$LT$syn..punctuated..Punctuated$LT$T$C$P$GT$$u20$as$u20$core..iter..traits..collect..Extend$LT$syn..punctuated..Pair$LT$T$C$P$GT$$GT$$GT$6extend17hd3a7828e12a2fa09E', symObjAddr: 0xF2D0, symBinAddr: 0x6F970, symSize: 0x3A0 }
  - { offsetInCU: 0x702F, offset: 0x1F458F, size: 0x8, addend: 0x0, symName: '__ZN102_$LT$syn..punctuated..Punctuated$LT$T$C$P$GT$$u20$as$u20$core..iter..traits..collect..IntoIterator$GT$9into_iter17h9fd0831bc615f074E', symObjAddr: 0xF940, symBinAddr: 0x6FD10, symSize: 0x2C0 }
  - { offsetInCU: 0x872C, offset: 0x1F5C8C, size: 0x8, addend: 0x0, symName: '__ZN57_$LT$I$u20$as$u20$syn..punctuated..IterTrait$LT$T$GT$$GT$9clone_box17hbe556fca14490948E.llvm.991277207215265740', symObjAddr: 0x106C0, symBinAddr: 0x700C0, symSize: 0x60 }
  - { offsetInCU: 0x893F, offset: 0x1F5E9F, size: 0x8, addend: 0x0, symName: '__ZN97_$LT$syn..punctuated..Punctuated$LT$T$C$P$GT$$u20$as$u20$core..ops..index..Index$LT$usize$GT$$GT$5index17h20cbc4df05d7c9eaE', symObjAddr: 0x10780, symBinAddr: 0x70120, symSize: 0x50 }
  - { offsetInCU: 0x8AE9, offset: 0x1F6049, size: 0x8, addend: 0x0, symName: '__ZN3syn10punctuated8printing91_$LT$impl$u20$quote..to_tokens..ToTokens$u20$for$u20$syn..punctuated..Pair$LT$T$C$P$GT$$GT$9to_tokens17h6dc2c5660e354e29E', symObjAddr: 0x110C0, symBinAddr: 0x70440, symSize: 0xD0 }
  - { offsetInCU: 0x8CB3, offset: 0x1F6213, size: 0x8, addend: 0x0, symName: '__ZN3syn10punctuated8printing91_$LT$impl$u20$quote..to_tokens..ToTokens$u20$for$u20$syn..punctuated..Pair$LT$T$C$P$GT$$GT$9to_tokens17hc2518142b17a3489E', symObjAddr: 0x11360, symBinAddr: 0x70510, symSize: 0xF3 }
  - { offsetInCU: 0x8E9C, offset: 0x1F63FC, size: 0x8, addend: 0x0, symName: '__ZN3syn10punctuated8printing97_$LT$impl$u20$quote..to_tokens..ToTokens$u20$for$u20$syn..punctuated..Punctuated$LT$T$C$P$GT$$GT$9to_tokens17h060d1d80f541d446E', symObjAddr: 0x10820, symBinAddr: 0x70170, symSize: 0x150 }
  - { offsetInCU: 0x93E1, offset: 0x1F6941, size: 0x8, addend: 0x0, symName: '__ZN3syn10punctuated8printing97_$LT$impl$u20$quote..to_tokens..ToTokens$u20$for$u20$syn..punctuated..Punctuated$LT$T$C$P$GT$$GT$9to_tokens17h7327b9d2fa65c2baE', symObjAddr: 0x10B90, symBinAddr: 0x702C0, symSize: 0x180 }
  - { offsetInCU: 0x10ED9, offset: 0x1FE439, size: 0x8, addend: 0x0, symName: '__ZN4core3ptr100drop_in_place$LT$alloc..vec..Vec$LT$$LP$syn..generics..TypeParamBound$C$syn..token..Plus$RP$$GT$$GT$17hea181150e4b37806E.llvm.991277207215265740', symObjAddr: 0x0, symBinAddr: 0x62360, symSize: 0xD0 }
  - { offsetInCU: 0x111B8, offset: 0x1FE718, size: 0x8, addend: 0x0, symName: '__ZN4core3ptr100drop_in_place$LT$core..option..Option$LT$alloc..boxed..Box$LT$syn..path..GenericArgument$GT$$GT$$GT$17h3a7c44b9e57fe410E.llvm.991277207215265740', symObjAddr: 0xD0, symBinAddr: 0x62430, symSize: 0x50 }
  - { offsetInCU: 0x113A4, offset: 0x1FE904, size: 0x8, addend: 0x0, symName: '__ZN4core3ptr100drop_in_place$LT$syn..punctuated..Punctuated$LT$syn..path..PathSegment$C$syn..token..PathSep$GT$$GT$17he41ef64147139591E', symObjAddr: 0x120, symBinAddr: 0x62480, symSize: 0x150 }
  - { offsetInCU: 0x11908, offset: 0x1FEE68, size: 0x8, addend: 0x0, symName: '__ZN4core3ptr101drop_in_place$LT$alloc..vec..Vec$LT$$LP$syn..generics..WherePredicate$C$syn..token..Comma$RP$$GT$$GT$17h480aa68a207f67a8E.llvm.991277207215265740', symObjAddr: 0x270, symBinAddr: 0x625D0, symSize: 0x60 }
  - { offsetInCU: 0x11BAB, offset: 0x1FF10B, size: 0x8, addend: 0x0, symName: '__ZN4core3ptr102drop_in_place$LT$syn..punctuated..Punctuated$LT$syn..path..GenericArgument$C$syn..token..Comma$GT$$GT$17h8b1978399cfff48bE', symObjAddr: 0x2D0, symBinAddr: 0x62630, symSize: 0xF0 }
  - { offsetInCU: 0x11ECB, offset: 0x1FF42B, size: 0x8, addend: 0x0, symName: '__ZN4core3ptr103drop_in_place$LT$core..option..Option$LT$alloc..boxed..Box$LT$syn..generics..TypeParamBound$GT$$GT$$GT$17hb14e4384a768542bE.llvm.991277207215265740', symObjAddr: 0x3C0, symBinAddr: 0x62720, symSize: 0x50 }
  - { offsetInCU: 0x120D6, offset: 0x1FF636, size: 0x8, addend: 0x0, symName: '__ZN4core3ptr103drop_in_place$LT$syn..punctuated..Punctuated$LT$syn..generics..GenericParam$C$syn..token..Comma$GT$$GT$17h0c6077a988036760E.llvm.991277207215265740', symObjAddr: 0x410, symBinAddr: 0x62770, symSize: 0xF0 }
  - { offsetInCU: 0x1262E, offset: 0x1FFB8E, size: 0x8, addend: 0x0, symName: '__ZN4core3ptr104drop_in_place$LT$syn..punctuated..Punctuated$LT$syn..generics..TypeParamBound$C$syn..token..Plus$GT$$GT$17h724e4d9d1d65061aE.llvm.991277207215265740', symObjAddr: 0x500, symBinAddr: 0x62860, symSize: 0x190 }
  - { offsetInCU: 0x12C51, offset: 0x2001B1, size: 0x8, addend: 0x0, symName: '__ZN4core3ptr126drop_in_place$LT$core..option..Option$LT$$LP$syn..token..And$C$core..option..Option$LT$syn..lifetime..Lifetime$GT$$RP$$GT$$GT$17h45c5d73e12cdf6f0E', symObjAddr: 0x690, symBinAddr: 0x629F0, symSize: 0x30 }
  - { offsetInCU: 0x12E64, offset: 0x2003C4, size: 0x8, addend: 0x0, symName: '__ZN4core3ptr34drop_in_place$LT$syn..lit..Lit$GT$17hd64dde89a262341dE', symObjAddr: 0x6C0, symBinAddr: 0x62A20, symSize: 0x120 }
  - { offsetInCU: 0x13371, offset: 0x2008D1, size: 0x8, addend: 0x0, symName: '__ZN4core3ptr34drop_in_place$LT$syn..pat..Pat$GT$17hf88887878261d63cE.llvm.991277207215265740', symObjAddr: 0x7E0, symBinAddr: 0x62B40, symSize: 0x1100 }
  - { offsetInCU: 0x179EA, offset: 0x204F4A, size: 0x8, addend: 0x0, symName: '__ZN4core3ptr34drop_in_place$LT$syn..ty..Type$GT$17ha80dd29b0f9d4a3fE.llvm.991277207215265740', symObjAddr: 0x18E0, symBinAddr: 0x63C40, symSize: 0x520 }
  - { offsetInCU: 0x1905F, offset: 0x2065BF, size: 0x8, addend: 0x0, symName: '__ZN4core3ptr36drop_in_place$LT$syn..expr..Expr$GT$17h10f573b40ddd212cE.llvm.991277207215265740', symObjAddr: 0x1E00, symBinAddr: 0x64160, symSize: 0x2830 }
  - { offsetInCU: 0x23162, offset: 0x2106C2, size: 0x8, addend: 0x0, symName: '__ZN4core3ptr36drop_in_place$LT$syn..mac..Macro$GT$17hc3b30a7a8a34cc2dE', symObjAddr: 0x4630, symBinAddr: 0x66990, symSize: 0x40 }
  - { offsetInCU: 0x2319C, offset: 0x2106FC, size: 0x8, addend: 0x0, symName: '__ZN4core3ptr36drop_in_place$LT$syn..path..Path$GT$17h75c74a97d5f0a03bE.llvm.991277207215265740', symObjAddr: 0x4670, symBinAddr: 0x669D0, symSize: 0x110 }
  - { offsetInCU: 0x235BE, offset: 0x210B1E, size: 0x8, addend: 0x0, symName: '__ZN4core3ptr37drop_in_place$LT$syn..data..Field$GT$17hb03070569ab32babE.llvm.991277207215265740', symObjAddr: 0x4780, symBinAddr: 0x66AE0, symSize: 0x140 }
  - { offsetInCU: 0x23A12, offset: 0x210F72, size: 0x8, addend: 0x0, symName: '__ZN4core3ptr37drop_in_place$LT$syn..item..FnArg$GT$17h470fdeee5cba5e3aE.llvm.991277207215265740', symObjAddr: 0x48C0, symBinAddr: 0x66C20, symSize: 0x230 }
  - { offsetInCU: 0x2432C, offset: 0x21188C, size: 0x8, addend: 0x0, symName: '__ZN4core3ptr37drop_in_place$LT$syn..stmt..Block$GT$17h6fc3254d5688f2c3E', symObjAddr: 0x4AF0, symBinAddr: 0x66E50, symSize: 0xD0 }
  - { offsetInCU: 0x24603, offset: 0x211B63, size: 0x8, addend: 0x0, symName: '__ZN4core3ptr38drop_in_place$LT$syn..expr..Member$GT$17h6b0cf84594ce6bceE.llvm.991277207215265740', symObjAddr: 0x4BC0, symBinAddr: 0x66F20, symSize: 0x30 }
  - { offsetInCU: 0x246FF, offset: 0x211C5F, size: 0x8, addend: 0x0, symName: '__ZN4core3ptr39drop_in_place$LT$proc_macro2..Ident$GT$17ha28fef9769e267d9E.llvm.991277207215265740', symObjAddr: 0x4BF0, symBinAddr: 0x66F50, symSize: 0x30 }
  - { offsetInCU: 0x24839, offset: 0x211D99, size: 0x8, addend: 0x0, symName: '__ZN4core3ptr39drop_in_place$LT$syn..data..Variant$GT$17h92766dd8637b4069E', symObjAddr: 0x4C20, symBinAddr: 0x66F80, symSize: 0x150 }
  - { offsetInCU: 0x24DE0, offset: 0x212340, size: 0x8, addend: 0x0, symName: '__ZN4core3ptr39drop_in_place$LT$syn..item..UseTree$GT$17h7288572c631f954aE.llvm.991277207215265740', symObjAddr: 0x4D70, symBinAddr: 0x670D0, symSize: 0x1E0 }
  - { offsetInCU: 0x25530, offset: 0x212A90, size: 0x8, addend: 0x0, symName: '__ZN4core3ptr39drop_in_place$LT$syn..pat..FieldPat$GT$17he93d151251e1075bE.llvm.991277207215265740', symObjAddr: 0x4F50, symBinAddr: 0x672B0, symSize: 0x120 }
  - { offsetInCU: 0x25ACA, offset: 0x21302A, size: 0x8, addend: 0x0, symName: '__ZN4core3ptr39drop_in_place$LT$syn..ty..BareFnArg$GT$17h06523caf0a2ebe3aE.llvm.991277207215265740', symObjAddr: 0x5070, symBinAddr: 0x673D0, symSize: 0x110 }
  - { offsetInCU: 0x25EED, offset: 0x21344D, size: 0x8, addend: 0x0, symName: '__ZN4core3ptr40drop_in_place$LT$syn..ty..ReturnType$GT$17h035a612e322b6510E', symObjAddr: 0x5180, symBinAddr: 0x674E0, symSize: 0x50 }
  - { offsetInCU: 0x2605D, offset: 0x2135BD, size: 0x8, addend: 0x0, symName: '__ZN4core3ptr41drop_in_place$LT$syn..expr..ExprConst$GT$17hbfe19d5d621e6836E', symObjAddr: 0x51D0, symBinAddr: 0x67530, symSize: 0x180 }
  - { offsetInCU: 0x2664A, offset: 0x213BAA, size: 0x8, addend: 0x0, symName: '__ZN4core3ptr42drop_in_place$LT$syn..expr..FieldValue$GT$17heed77b5eea8beaa5E.llvm.991277207215265740', symObjAddr: 0x5350, symBinAddr: 0x676B0, symSize: 0x110 }
  - { offsetInCU: 0x26A8B, offset: 0x213FEB, size: 0x8, addend: 0x0, symName: '__ZN4core3ptr43drop_in_place$LT$syn..path..PathSegment$GT$17h903332e979944cf4E.llvm.991277207215265740', symObjAddr: 0x5460, symBinAddr: 0x677C0, symSize: 0x190 }
  - { offsetInCU: 0x26FEF, offset: 0x21454F, size: 0x8, addend: 0x0, symName: '__ZN4core3ptr44drop_in_place$LT$syn..lifetime..Lifetime$GT$17he37fa474f03de7b1E.llvm.991277207215265740', symObjAddr: 0x55F0, symBinAddr: 0x67950, symSize: 0x30 }
  - { offsetInCU: 0x27221, offset: 0x214781, size: 0x8, addend: 0x0, symName: '__ZN4core3ptr45drop_in_place$LT$proc_macro2..TokenStream$GT$17h76e8e68015f4924dE.llvm.991277207215265740', symObjAddr: 0x5620, symBinAddr: 0x67980, symSize: 0x140 }
  - { offsetInCU: 0x276BB, offset: 0x214C1B, size: 0x8, addend: 0x0, symName: '__ZN4core3ptr45drop_in_place$LT$syn..generics..TypeParam$GT$17h188a459c1380ac75E.llvm.991277207215265740', symObjAddr: 0x5760, symBinAddr: 0x67AC0, symSize: 0x230 }
  - { offsetInCU: 0x27F30, offset: 0x215490, size: 0x8, addend: 0x0, symName: '__ZN4core3ptr46drop_in_place$LT$syn..generics..ConstParam$GT$17h7a9b900b2b88bfcdE.llvm.991277207215265740', symObjAddr: 0x5990, symBinAddr: 0x67CF0, symSize: 0x150 }
  - { offsetInCU: 0x283B1, offset: 0x215911, size: 0x8, addend: 0x0, symName: '__ZN4core3ptr47drop_in_place$LT$syn..path..GenericArgument$GT$17h593f06d6ca9a94d2E.llvm.991277207215265740', symObjAddr: 0x5AE0, symBinAddr: 0x67E40, symSize: 0x450 }
  - { offsetInCU: 0x29127, offset: 0x216687, size: 0x8, addend: 0x0, symName: '__ZN4core3ptr48drop_in_place$LT$syn..generics..GenericParam$GT$17hd6859d95c1b7c168E.llvm.991277207215265740', symObjAddr: 0x5F30, symBinAddr: 0x68290, symSize: 0x40 }
  - { offsetInCU: 0x29144, offset: 0x2166A4, size: 0x8, addend: 0x0, symName: '__ZN4core3ptr49drop_in_place$LT$syn..generics..LifetimeParam$GT$17h3a8835ab294bfd16E.llvm.991277207215265740', symObjAddr: 0x5F70, symBinAddr: 0x682D0, symSize: 0xF0 }
  - { offsetInCU: 0x29599, offset: 0x216AF9, size: 0x8, addend: 0x0, symName: '__ZN4core3ptr49drop_in_place$LT$syn..restriction..Visibility$GT$17h3e52b998838defb1E', symObjAddr: 0x6060, symBinAddr: 0x683C0, symSize: 0x150 }
  - { offsetInCU: 0x29B02, offset: 0x217062, size: 0x8, addend: 0x0, symName: '__ZN4core3ptr50drop_in_place$LT$syn..generics..TypeParamBound$GT$17h81b4325b5900604dE.llvm.991277207215265740', symObjAddr: 0x61B0, symBinAddr: 0x68510, symSize: 0x1C0 }
  - { offsetInCU: 0x2A09D, offset: 0x2175FD, size: 0x8, addend: 0x0, symName: '__ZN4core3ptr50drop_in_place$LT$syn..generics..WherePredicate$GT$17h1dcd41fbf166681cE.llvm.991277207215265740', symObjAddr: 0x6370, symBinAddr: 0x686D0, symSize: 0xA0 }
  - { offsetInCU: 0x2A241, offset: 0x2177A1, size: 0x8, addend: 0x0, symName: '__ZN4core3ptr58drop_in_place$LT$alloc..vec..Vec$LT$syn..expr..Arm$GT$$GT$17hff9224aadf2233b8E', symObjAddr: 0x6410, symBinAddr: 0x68770, symSize: 0xD0 }
  - { offsetInCU: 0x2A501, offset: 0x217A61, size: 0x8, addend: 0x0, symName: '__ZN4core3ptr59drop_in_place$LT$alloc..boxed..Box$LT$syn..pat..Pat$GT$$GT$17h622b0c1db21c0742E.llvm.991277207215265740', symObjAddr: 0x64E0, symBinAddr: 0x68840, symSize: 0x50 }
  - { offsetInCU: 0x2A65A, offset: 0x217BBA, size: 0x8, addend: 0x0, symName: '__ZN4core3ptr59drop_in_place$LT$alloc..boxed..Box$LT$syn..ty..Type$GT$$GT$17hde45fa887dd8b605E.llvm.991277207215265740', symObjAddr: 0x6530, symBinAddr: 0x68890, symSize: 0x50 }
  - { offsetInCU: 0x2A7B3, offset: 0x217D13, size: 0x8, addend: 0x0, symName: '__ZN4core3ptr61drop_in_place$LT$alloc..boxed..Box$LT$syn..expr..Expr$GT$$GT$17hbb42293869113942E.llvm.991277207215265740', symObjAddr: 0x6650, symBinAddr: 0x688E0, symSize: 0x50 }
  - { offsetInCU: 0x2A988, offset: 0x217EE8, size: 0x8, addend: 0x0, symName: '__ZN4core3ptr61drop_in_place$LT$syn..path..ParenthesizedGenericArguments$GT$17h6b1731382637937fE.llvm.991277207215265740', symObjAddr: 0x66A0, symBinAddr: 0x68930, symSize: 0x170 }
  - { offsetInCU: 0x2AF91, offset: 0x2184F1, size: 0x8, addend: 0x0, symName: '__ZN4core3ptr62drop_in_place$LT$alloc..boxed..Box$LT$syn..data..Field$GT$$GT$17hd46c7cc6f292f643E', symObjAddr: 0x6810, symBinAddr: 0x68AA0, symSize: 0x50 }
  - { offsetInCU: 0x2B0EA, offset: 0x21864A, size: 0x8, addend: 0x0, symName: '__ZN4core3ptr62drop_in_place$LT$alloc..boxed..Box$LT$syn..item..FnArg$GT$$GT$17haeb55dec21588d58E', symObjAddr: 0x6860, symBinAddr: 0x68AF0, symSize: 0x50 }
  - { offsetInCU: 0x2B256, offset: 0x2187B6, size: 0x8, addend: 0x0, symName: '__ZN4core3ptr63drop_in_place$LT$alloc..boxed..Box$LT$syn..lit..LitRepr$GT$$GT$17h6e3a82ea4de7b84cE', symObjAddr: 0x68B0, symBinAddr: 0x68B40, symSize: 0x60 }
  - { offsetInCU: 0x2B51F, offset: 0x218A7F, size: 0x8, addend: 0x0, symName: '__ZN4core3ptr64drop_in_place$LT$alloc..boxed..Box$LT$syn..data..Variant$GT$$GT$17h9ea21bed4984fdbcE', symObjAddr: 0x6910, symBinAddr: 0x68BA0, symSize: 0x50 }
  - { offsetInCU: 0x2B678, offset: 0x218BD8, size: 0x8, addend: 0x0, symName: '__ZN4core3ptr64drop_in_place$LT$alloc..boxed..Box$LT$syn..item..UseTree$GT$$GT$17he4d7024582150632E', symObjAddr: 0x6960, symBinAddr: 0x68BF0, symSize: 0x50 }
  - { offsetInCU: 0x2B7F0, offset: 0x218D50, size: 0x8, addend: 0x0, symName: '__ZN4core3ptr64drop_in_place$LT$alloc..boxed..Box$LT$syn..pat..FieldPat$GT$$GT$17hbf8f4867d84bd25dE', symObjAddr: 0x69B0, symBinAddr: 0x68C40, symSize: 0x140 }
  - { offsetInCU: 0x2BEB3, offset: 0x219413, size: 0x8, addend: 0x0, symName: '__ZN4core3ptr64drop_in_place$LT$alloc..boxed..Box$LT$syn..ty..BareFnArg$GT$$GT$17h6be6354eb1d1364dE', symObjAddr: 0x6AF0, symBinAddr: 0x68D80, symSize: 0x140 }
  - { offsetInCU: 0x2C43C, offset: 0x21999C, size: 0x8, addend: 0x0, symName: '__ZN4core3ptr65drop_in_place$LT$alloc..vec..Vec$LT$proc_macro..TokenTree$GT$$GT$17h8abd81f8596dbc59E.llvm.991277207215265740', symObjAddr: 0x6C30, symBinAddr: 0x68EC0, symSize: 0x110 }
  - { offsetInCU: 0x2C834, offset: 0x219D94, size: 0x8, addend: 0x0, symName: '__ZN4core3ptr65drop_in_place$LT$core..option..Option$LT$syn..expr..Label$GT$$GT$17hac599686b33ef364E', symObjAddr: 0x6D40, symBinAddr: 0x68FD0, symSize: 0x30 }
  - { offsetInCU: 0x2C96E, offset: 0x219ECE, size: 0x8, addend: 0x0, symName: '__ZN4core3ptr66drop_in_place$LT$core..option..Option$LT$syn..pat..PatRest$GT$$GT$17hd5bb3bc28aa78ac1E', symObjAddr: 0x6D70, symBinAddr: 0x69000, symSize: 0xE0 }
  - { offsetInCU: 0x2CC96, offset: 0x21A1F6, size: 0x8, addend: 0x0, symName: '__ZN4core3ptr67drop_in_place$LT$alloc..boxed..Box$LT$syn..expr..FieldValue$GT$$GT$17hbbcf67a9d5e9863cE', symObjAddr: 0x6E50, symBinAddr: 0x690E0, symSize: 0x140 }
  - { offsetInCU: 0x2D1FF, offset: 0x21A75F, size: 0x8, addend: 0x0, symName: '__ZN4core3ptr68drop_in_place$LT$alloc..boxed..Box$LT$syn..path..PathSegment$GT$$GT$17h99aaf90b3262bc1eE', symObjAddr: 0x6F90, symBinAddr: 0x69220, symSize: 0x50 }
  - { offsetInCU: 0x2D358, offset: 0x21A8B8, size: 0x8, addend: 0x0, symName: '__ZN4core3ptr69drop_in_place$LT$alloc..boxed..Box$LT$syn..lifetime..Lifetime$GT$$GT$17hb9a813bc8517f5c9E', symObjAddr: 0x6FE0, symBinAddr: 0x69270, symSize: 0x50 }
  - { offsetInCU: 0x2D50E, offset: 0x21AA6E, size: 0x8, addend: 0x0, symName: '__ZN4core3ptr70drop_in_place$LT$core..option..Option$LT$syn..ty..BareVariadic$GT$$GT$17h79a19250e9f043b1E', symObjAddr: 0x7030, symBinAddr: 0x692C0, symSize: 0x100 }
  - { offsetInCU: 0x2D979, offset: 0x21AED9, size: 0x8, addend: 0x0, symName: '__ZN4core3ptr72drop_in_place$LT$alloc..boxed..Box$LT$syn..path..GenericArgument$GT$$GT$17hfd308d374af4273dE', symObjAddr: 0x7130, symBinAddr: 0x693C0, symSize: 0x2B0 }
  - { offsetInCU: 0x2E38A, offset: 0x21B8EA, size: 0x8, addend: 0x0, symName: '__ZN4core3ptr73drop_in_place$LT$alloc..boxed..Box$LT$syn..generics..GenericParam$GT$$GT$17ha26d5d145af4b203E.llvm.991277207215265740', symObjAddr: 0x73E0, symBinAddr: 0x69670, symSize: 0x80 }
  - { offsetInCU: 0x2E51F, offset: 0x21BA7F, size: 0x8, addend: 0x0, symName: '__ZN4core3ptr73drop_in_place$LT$alloc..vec..Vec$LT$syn..generics..TypeParamBound$GT$$GT$17h559d22d805be3033E.llvm.991277207215265740', symObjAddr: 0x7460, symBinAddr: 0x696F0, symSize: 0xC0 }
  - { offsetInCU: 0x2E7F0, offset: 0x21BD50, size: 0x8, addend: 0x0, symName: '__ZN4core3ptr75drop_in_place$LT$alloc..boxed..Box$LT$syn..generics..TypeParamBound$GT$$GT$17h129a4e927e5eb81bE', symObjAddr: 0x7520, symBinAddr: 0x697B0, symSize: 0xC0 }
  - { offsetInCU: 0x2EAE7, offset: 0x21C047, size: 0x8, addend: 0x0, symName: '__ZN4core3ptr75drop_in_place$LT$alloc..boxed..Box$LT$syn..generics..WherePredicate$GT$$GT$17h9bdeede2dbadbeb6E', symObjAddr: 0x75E0, symBinAddr: 0x69870, symSize: 0x50 }
  - { offsetInCU: 0x2EC53, offset: 0x21C1B3, size: 0x8, addend: 0x0, symName: '__ZN4core3ptr76drop_in_place$LT$$LP$syn..generics..GenericParam$C$syn..token..Comma$RP$$GT$17hfa938bd7ff9e78c2E.llvm.991277207215265740', symObjAddr: 0x7630, symBinAddr: 0x698C0, symSize: 0x40 }
  - { offsetInCU: 0x2ECC1, offset: 0x21C221, size: 0x8, addend: 0x0, symName: '__ZN4core3ptr82drop_in_place$LT$alloc..vec..Vec$LT$$LP$syn..pat..Pat$C$syn..token..Or$RP$$GT$$GT$17h1f0f428d7b2d8011E.llvm.991277207215265740', symObjAddr: 0x7740, symBinAddr: 0x69900, symSize: 0x0 }
  - { offsetInCU: 0x2EFB9, offset: 0x21C519, size: 0x8, addend: 0x0, symName: '__ZN4core3ptr85drop_in_place$LT$alloc..vec..Vec$LT$$LP$syn..ty..Type$C$syn..token..Comma$RP$$GT$$GT$17h0cf4844ea7ad9568E.llvm.991277207215265740', symObjAddr: 0x7810, symBinAddr: 0x699D0, symSize: 0xD0 }
  - { offsetInCU: 0x2F2EB, offset: 0x21C84B, size: 0x8, addend: 0x0, symName: '__ZN4core3ptr86drop_in_place$LT$syn..punctuated..Punctuated$LT$syn..pat..Pat$C$syn..token..Or$GT$$GT$17h9cc6b5f7b6d3a555E', symObjAddr: 0x78E0, symBinAddr: 0x69AA0, symSize: 0x120 }
  - { offsetInCU: 0x2F785, offset: 0x21CCE5, size: 0x8, addend: 0x0, symName: '__ZN4core3ptr87drop_in_place$LT$alloc..vec..Vec$LT$$LP$syn..expr..Expr$C$syn..token..Comma$RP$$GT$$GT$17hd1036fba4025974bE.llvm.991277207215265740', symObjAddr: 0x7A00, symBinAddr: 0x69BC0, symSize: 0xD0 }
  - { offsetInCU: 0x2FA79, offset: 0x21CFD9, size: 0x8, addend: 0x0, symName: '__ZN4core3ptr87drop_in_place$LT$core..option..Option$LT$alloc..boxed..Box$LT$syn..pat..Pat$GT$$GT$$GT$17h51cd48973d96c411E', symObjAddr: 0x7AD0, symBinAddr: 0x69C90, symSize: 0x50 }
  - { offsetInCU: 0x2FBE9, offset: 0x21D149, size: 0x8, addend: 0x0, symName: '__ZN4core3ptr87drop_in_place$LT$core..option..Option$LT$alloc..boxed..Box$LT$syn..ty..Type$GT$$GT$$GT$17h103a25a4a7d7374eE.llvm.991277207215265740', symObjAddr: 0x7B20, symBinAddr: 0x69CE0, symSize: 0x50 }
  - { offsetInCU: 0x2FD78, offset: 0x21D2D8, size: 0x8, addend: 0x0, symName: '__ZN4core3ptr88drop_in_place$LT$alloc..vec..Vec$LT$$LP$syn..data..Field$C$syn..token..Comma$RP$$GT$$GT$17h066c67d26ce3e154E.llvm.991277207215265740', symObjAddr: 0x7B70, symBinAddr: 0x69D30, symSize: 0xD0 }
  - { offsetInCU: 0x3008F, offset: 0x21D5EF, size: 0x8, addend: 0x0, symName: '__ZN4core3ptr88drop_in_place$LT$alloc..vec..Vec$LT$$LP$syn..item..FnArg$C$syn..token..Comma$RP$$GT$$GT$17he8d49cd20c575884E.llvm.991277207215265740', symObjAddr: 0x7C40, symBinAddr: 0x69E00, symSize: 0xD0 }
  - { offsetInCU: 0x3038E, offset: 0x21D8EE, size: 0x8, addend: 0x0, symName: '__ZN4core3ptr89drop_in_place$LT$core..option..Option$LT$alloc..boxed..Box$LT$syn..expr..Expr$GT$$GT$$GT$17h9e02509cb2345d44E', symObjAddr: 0x7D10, symBinAddr: 0x69ED0, symSize: 0x50 }
  - { offsetInCU: 0x3053C, offset: 0x21DA9C, size: 0x8, addend: 0x0, symName: '__ZN4core3ptr89drop_in_place$LT$syn..punctuated..Punctuated$LT$syn..pat..Pat$C$syn..token..Comma$GT$$GT$17hd3a83c36827f210aE', symObjAddr: 0x7D60, symBinAddr: 0x69F20, symSize: 0x120 }
  - { offsetInCU: 0x309CE, offset: 0x21DF2E, size: 0x8, addend: 0x0, symName: '__ZN4core3ptr89drop_in_place$LT$syn..punctuated..Punctuated$LT$syn..ty..Type$C$syn..token..Comma$GT$$GT$17he030c4b7f24a5848E.llvm.991277207215265740', symObjAddr: 0x7E80, symBinAddr: 0x6A040, symSize: 0x120 }
  - { offsetInCU: 0x30E68, offset: 0x21E3C8, size: 0x8, addend: 0x0, symName: '__ZN4core3ptr90drop_in_place$LT$alloc..vec..Vec$LT$$LP$syn..data..Variant$C$syn..token..Comma$RP$$GT$$GT$17h3ac8ecccf673c389E.llvm.991277207215265740', symObjAddr: 0x7FA0, symBinAddr: 0x6A160, symSize: 0xD0 }
  - { offsetInCU: 0x3115C, offset: 0x21E6BC, size: 0x8, addend: 0x0, symName: '__ZN4core3ptr90drop_in_place$LT$alloc..vec..Vec$LT$$LP$syn..item..UseTree$C$syn..token..Comma$RP$$GT$$GT$17h1e4fface25e12fe6E.llvm.991277207215265740', symObjAddr: 0x8070, symBinAddr: 0x6A230, symSize: 0xD0 }
  - { offsetInCU: 0x31452, offset: 0x21E9B2, size: 0x8, addend: 0x0, symName: '__ZN4core3ptr90drop_in_place$LT$alloc..vec..Vec$LT$$LP$syn..pat..FieldPat$C$syn..token..Comma$RP$$GT$$GT$17h4d0a520927a96123E.llvm.991277207215265740', symObjAddr: 0x8140, symBinAddr: 0x6A300, symSize: 0xD0 }
  - { offsetInCU: 0x31714, offset: 0x21EC74, size: 0x8, addend: 0x0, symName: '__ZN4core3ptr90drop_in_place$LT$alloc..vec..Vec$LT$$LP$syn..ty..BareFnArg$C$syn..token..Comma$RP$$GT$$GT$17h86271563b6e0e7d6E.llvm.991277207215265740', symObjAddr: 0x8210, symBinAddr: 0x6A3D0, symSize: 0xD0 }
  - { offsetInCU: 0x319F7, offset: 0x21EF57, size: 0x8, addend: 0x0, symName: '__ZN4core3ptr90drop_in_place$LT$core..option..Option$LT$alloc..boxed..Box$LT$syn..data..Field$GT$$GT$$GT$17h9f1aee8cd56c6727E.llvm.991277207215265740', symObjAddr: 0x82E0, symBinAddr: 0x6A4A0, symSize: 0x50 }
  - { offsetInCU: 0x31B79, offset: 0x21F0D9, size: 0x8, addend: 0x0, symName: '__ZN4core3ptr91drop_in_place$LT$syn..punctuated..Punctuated$LT$syn..expr..Expr$C$syn..token..Comma$GT$$GT$17h6f261e8f470c81f2E.llvm.991277207215265740', symObjAddr: 0x8330, symBinAddr: 0x6A4F0, symSize: 0x120 }
  - { offsetInCU: 0x32026, offset: 0x21F586, size: 0x8, addend: 0x0, symName: '__ZN4core3ptr92drop_in_place$LT$core..option..Option$LT$alloc..boxed..Box$LT$syn..data..Variant$GT$$GT$$GT$17hb65f9b5d99f448afE', symObjAddr: 0x8450, symBinAddr: 0x6A610, symSize: 0x50 }
  - { offsetInCU: 0x321C7, offset: 0x21F727, size: 0x8, addend: 0x0, symName: '__ZN4core3ptr92drop_in_place$LT$syn..punctuated..Punctuated$LT$syn..data..Field$C$syn..token..Comma$GT$$GT$17hf8968831c552f88dE', symObjAddr: 0x84A0, symBinAddr: 0x6A660, symSize: 0x120 }
  - { offsetInCU: 0x32639, offset: 0x21FB99, size: 0x8, addend: 0x0, symName: '__ZN4core3ptr93drop_in_place$LT$alloc..vec..Vec$LT$$LP$syn..expr..FieldValue$C$syn..token..Comma$RP$$GT$$GT$17hf889827bae7d8b64E.llvm.991277207215265740', symObjAddr: 0x85C0, symBinAddr: 0x6A780, symSize: 0xD0 }
  - { offsetInCU: 0x32918, offset: 0x21FE78, size: 0x8, addend: 0x0, symName: '__ZN4core3ptr94drop_in_place$LT$alloc..vec..Vec$LT$$LP$syn..lifetime..Lifetime$C$syn..token..Plus$RP$$GT$$GT$17h446c63e6d8248f75E.llvm.991277207215265740', symObjAddr: 0x8690, symBinAddr: 0x6A850, symSize: 0x90 }
  - { offsetInCU: 0x32BFA, offset: 0x22015A, size: 0x8, addend: 0x0, symName: '__ZN4core3ptr94drop_in_place$LT$syn..punctuated..Punctuated$LT$syn..data..Variant$C$syn..token..Comma$GT$$GT$17h310cd79aba4529ccE', symObjAddr: 0x8720, symBinAddr: 0x6A8E0, symSize: 0x120 }
  - { offsetInCU: 0x33068, offset: 0x2205C8, size: 0x8, addend: 0x0, symName: '__ZN4core3ptr94drop_in_place$LT$syn..punctuated..Punctuated$LT$syn..pat..FieldPat$C$syn..token..Comma$GT$$GT$17h43ec25af986ef674E', symObjAddr: 0x8840, symBinAddr: 0x6AA00, symSize: 0xF0 }
  - { offsetInCU: 0x33367, offset: 0x2208C7, size: 0x8, addend: 0x0, symName: '__ZN4core3ptr94drop_in_place$LT$syn..punctuated..Punctuated$LT$syn..ty..BareFnArg$C$syn..token..Comma$GT$$GT$17h7ba4c699ee390ebaE', symObjAddr: 0x8930, symBinAddr: 0x6AAF0, symSize: 0xF0 }
  - { offsetInCU: 0x33668, offset: 0x220BC8, size: 0x8, addend: 0x0, symName: '__ZN4core3ptr95drop_in_place$LT$core..option..Option$LT$$LP$proc_macro2..Ident$C$syn..token..Colon$RP$$GT$$GT$17h59fe297999aa3329E.llvm.991277207215265740', symObjAddr: 0x8A20, symBinAddr: 0x6ABE0, symSize: 0x30 }
  - { offsetInCU: 0x33783, offset: 0x220CE3, size: 0x8, addend: 0x0, symName: '__ZN4core3ptr96drop_in_place$LT$alloc..vec..Vec$LT$$LP$syn..path..PathSegment$C$syn..token..PathSep$RP$$GT$$GT$17h69d97f03bb66469bE.llvm.991277207215265740', symObjAddr: 0x8A50, symBinAddr: 0x6AC10, symSize: 0x100 }
  - { offsetInCU: 0x33B77, offset: 0x2210D7, size: 0x8, addend: 0x0, symName: '__ZN4core3ptr96drop_in_place$LT$core..option..Option$LT$alloc..boxed..Box$LT$syn..path..PathSegment$GT$$GT$$GT$17h5de12a5a0f9e9ef9E.llvm.991277207215265740', symObjAddr: 0x8B50, symBinAddr: 0x6AD10, symSize: 0x1A0 }
  - { offsetInCU: 0x34257, offset: 0x2217B7, size: 0x8, addend: 0x0, symName: '__ZN4core3ptr97drop_in_place$LT$syn..punctuated..Punctuated$LT$syn..expr..FieldValue$C$syn..token..Comma$GT$$GT$17hf58d0a9a09266ab3E', symObjAddr: 0x8D40, symBinAddr: 0x6AEB0, symSize: 0xF0 }
  - { offsetInCU: 0x34554, offset: 0x221AB4, size: 0x8, addend: 0x0, symName: '__ZN4core3ptr98drop_in_place$LT$alloc..vec..Vec$LT$$LP$syn..path..GenericArgument$C$syn..token..Comma$RP$$GT$$GT$17h0dee282a026d5a38E.llvm.991277207215265740', symObjAddr: 0x8E30, symBinAddr: 0x6AFA0, symSize: 0xD0 }
  - { offsetInCU: 0x34856, offset: 0x221DB6, size: 0x8, addend: 0x0, symName: '__ZN4core3ptr98drop_in_place$LT$syn..punctuated..Punctuated$LT$syn..lifetime..Lifetime$C$syn..token..Plus$GT$$GT$17h600c2b78f78fd2b9E.llvm.991277207215265740', symObjAddr: 0x8F00, symBinAddr: 0x6B070, symSize: 0xD0 }
  - { offsetInCU: 0x34CCA, offset: 0x22222A, size: 0x8, addend: 0x0, symName: '__ZN4core3ptr99drop_in_place$LT$alloc..vec..Vec$LT$$LP$syn..generics..GenericParam$C$syn..token..Comma$RP$$GT$$GT$17haeaa257234ab8b89E.llvm.991277207215265740', symObjAddr: 0x8FD0, symBinAddr: 0x6B140, symSize: 0x60 }
  - { offsetInCU: 0x34F75, offset: 0x2224D5, size: 0x8, addend: 0x0, symName: '__ZN4core3ptr99drop_in_place$LT$syn..punctuated..IntoPairs$LT$syn..path..PathSegment$C$syn..token..PathSep$GT$$GT$17h7bc58557d0a760d7E', symObjAddr: 0x9030, symBinAddr: 0x6B1A0, symSize: 0x60 }
  - { offsetInCU: 0x3D965, offset: 0x22AEC5, size: 0x8, addend: 0x0, symName: __ZN4core4iter6traits10exact_size17ExactSizeIterator8is_empty17h1a227f857cbffbf0E.llvm.991277207215265740, symObjAddr: 0x90F0, symBinAddr: 0x6B200, symSize: 0x0 }
  - { offsetInCU: 0x3DADE, offset: 0x22B03E, size: 0x8, addend: 0x0, symName: __ZN4core4iter6traits12double_ended19DoubleEndedIterator15advance_back_by17h8a4e4fb504e13f9aE.llvm.991277207215265740, symObjAddr: 0x9240, symBinAddr: 0x6B230, symSize: 0x0 }
  - { offsetInCU: 0x3DD4C, offset: 0x22B2AC, size: 0x8, addend: 0x0, symName: __ZN4core4iter6traits12double_ended19DoubleEndedIterator8nth_back17h012b67c1856b5774E.llvm.991277207215265740, symObjAddr: 0x9330, symBinAddr: 0x6B2B0, symSize: 0x0 }
  - { offsetInCU: 0x3E1F9, offset: 0x22B759, size: 0x8, addend: 0x0, symName: __ZN4core4iter6traits8iterator8Iterator10advance_by17h3d527f137a6d7fdfE.llvm.991277207215265740, symObjAddr: 0x95B0, symBinAddr: 0x6B350, symSize: 0x0 }
  - { offsetInCU: 0x3E55E, offset: 0x22BABE, size: 0x8, addend: 0x0, symName: __ZN4core4iter6traits8iterator8Iterator3nth17h1e8866c786c3aeccE.llvm.991277207215265740, symObjAddr: 0x9760, symBinAddr: 0x6B3C0, symSize: 0x0 }
  - { offsetInCU: 0x3EB1D, offset: 0x22C07D, size: 0x8, addend: 0x0, symName: __ZN4core4iter6traits8iterator8Iterator9size_hint17h01b8df23581c5177E.llvm.991277207215265740, symObjAddr: 0x9960, symBinAddr: 0x6B440, symSize: 0x0 }
  - { offsetInCU: 0x44672, offset: 0x231BD2, size: 0x8, addend: 0x0, symName: _anon.13e9612c7f1e77365c13ade4b7a3f6db.8.llvm.991277207215265740, symObjAddr: 0x13228, symBinAddr: 0x2612E8, symSize: 0x0 }
  - { offsetInCU: 0x469CF, offset: 0x233F2F, size: 0x8, addend: 0x0, symName: '__ZN3syn10punctuated23Punctuated$LT$T$C$P$GT$10push_value17h2697ae8d07ed6279E', symObjAddr: 0xA040, symBinAddr: 0x6B460, symSize: 0x0 }
  - { offsetInCU: 0x46C2D, offset: 0x23418D, size: 0x8, addend: 0x0, symName: '__ZN3syn10punctuated23Punctuated$LT$T$C$P$GT$10push_value17h45c7a985809b3219E', symObjAddr: 0xA140, symBinAddr: 0x6B560, symSize: 0x110 }
  - { offsetInCU: 0x46F95, offset: 0x2344F5, size: 0x8, addend: 0x0, symName: '__ZN3syn10punctuated23Punctuated$LT$T$C$P$GT$10push_value17h473f367d939ee38aE', symObjAddr: 0xA250, symBinAddr: 0x6B670, symSize: 0x100 }
  - { offsetInCU: 0x471F2, offset: 0x234752, size: 0x8, addend: 0x0, symName: '__ZN3syn10punctuated23Punctuated$LT$T$C$P$GT$10push_value17h4975d8317d65554cE', symObjAddr: 0xA350, symBinAddr: 0x6B770, symSize: 0x100 }
  - { offsetInCU: 0x4746A, offset: 0x2349CA, size: 0x8, addend: 0x0, symName: '__ZN3syn10punctuated23Punctuated$LT$T$C$P$GT$10push_value17h56f029a21ae32372E', symObjAddr: 0xA450, symBinAddr: 0x6B870, symSize: 0x100 }
  - { offsetInCU: 0x476C8, offset: 0x234C28, size: 0x8, addend: 0x0, symName: '__ZN3syn10punctuated23Punctuated$LT$T$C$P$GT$10push_value17h63a58ef4bac63b37E', symObjAddr: 0xA550, symBinAddr: 0x6B970, symSize: 0x100 }
  - { offsetInCU: 0x47926, offset: 0x234E86, size: 0x8, addend: 0x0, symName: '__ZN3syn10punctuated23Punctuated$LT$T$C$P$GT$10push_value17h7a3a23979d9f27d8E', symObjAddr: 0xA650, symBinAddr: 0x6BA70, symSize: 0x100 }
  - { offsetInCU: 0x47B84, offset: 0x2350E4, size: 0x8, addend: 0x0, symName: '__ZN3syn10punctuated23Punctuated$LT$T$C$P$GT$10push_value17h7b8b7e7a7cc7f473E', symObjAddr: 0xA750, symBinAddr: 0x6BB70, symSize: 0x100 }
  - { offsetInCU: 0x47DD5, offset: 0x235335, size: 0x8, addend: 0x0, symName: '__ZN3syn10punctuated23Punctuated$LT$T$C$P$GT$10push_value17h93661bd9a728ecd1E', symObjAddr: 0xA850, symBinAddr: 0x6BC70, symSize: 0x100 }
  - { offsetInCU: 0x48040, offset: 0x2355A0, size: 0x8, addend: 0x0, symName: '__ZN3syn10punctuated23Punctuated$LT$T$C$P$GT$10push_value17hb6a278bfa99a1718E', symObjAddr: 0xA950, symBinAddr: 0x6BD70, symSize: 0xD0 }
  - { offsetInCU: 0x4829D, offset: 0x2357FD, size: 0x8, addend: 0x0, symName: '__ZN3syn10punctuated23Punctuated$LT$T$C$P$GT$10push_value17hc6035201a10f0061E', symObjAddr: 0xAA20, symBinAddr: 0x6BE40, symSize: 0xF0 }
  - { offsetInCU: 0x484FA, offset: 0x235A5A, size: 0x8, addend: 0x0, symName: '__ZN3syn10punctuated23Punctuated$LT$T$C$P$GT$10push_value17hd429ee0060d42f76E', symObjAddr: 0xAB10, symBinAddr: 0x6BF30, symSize: 0xF0 }
  - { offsetInCU: 0x48757, offset: 0x235CB7, size: 0x8, addend: 0x0, symName: '__ZN3syn10punctuated23Punctuated$LT$T$C$P$GT$10push_value17hdab02e89b3ba5c00E', symObjAddr: 0xAC00, symBinAddr: 0x6C020, symSize: 0x100 }
  - { offsetInCU: 0x489DD, offset: 0x235F3D, size: 0x8, addend: 0x0, symName: '__ZN3syn10punctuated23Punctuated$LT$T$C$P$GT$10push_punct17h06896b7cca64befbE', symObjAddr: 0xAD00, symBinAddr: 0x6C120, symSize: 0x110 }
  - { offsetInCU: 0x48DD9, offset: 0x236339, size: 0x8, addend: 0x0, symName: '__ZN3syn10punctuated23Punctuated$LT$T$C$P$GT$10push_punct17h0e6070274da9870bE', symObjAddr: 0xAE10, symBinAddr: 0x6C230, symSize: 0x120 }
  - { offsetInCU: 0x491D5, offset: 0x236735, size: 0x8, addend: 0x0, symName: '__ZN3syn10punctuated23Punctuated$LT$T$C$P$GT$10push_punct17h24286cd6641c5efeE', symObjAddr: 0xAF30, symBinAddr: 0x6C350, symSize: 0xF0 }
  - { offsetInCU: 0x495D1, offset: 0x236B31, size: 0x8, addend: 0x0, symName: '__ZN3syn10punctuated23Punctuated$LT$T$C$P$GT$10push_punct17h27450a552d2ea5c7E', symObjAddr: 0xB020, symBinAddr: 0x6C440, symSize: 0x110 }
  - { offsetInCU: 0x499DA, offset: 0x236F3A, size: 0x8, addend: 0x0, symName: '__ZN3syn10punctuated23Punctuated$LT$T$C$P$GT$10push_punct17h44bfb8b49b59ff15E', symObjAddr: 0xB130, symBinAddr: 0x6C550, symSize: 0x110 }
  - { offsetInCU: 0x49DD6, offset: 0x237336, size: 0x8, addend: 0x0, symName: '__ZN3syn10punctuated23Punctuated$LT$T$C$P$GT$10push_punct17h7ab9900f429df4d2E', symObjAddr: 0xB240, symBinAddr: 0x6C660, symSize: 0x110 }
  - { offsetInCU: 0x4A1C5, offset: 0x237725, size: 0x8, addend: 0x0, symName: '__ZN3syn10punctuated23Punctuated$LT$T$C$P$GT$10push_punct17h9e503a1a499ffaa4E', symObjAddr: 0xB350, symBinAddr: 0x6C770, symSize: 0x110 }
  - { offsetInCU: 0x4A5EF, offset: 0x237B4F, size: 0x8, addend: 0x0, symName: '__ZN3syn10punctuated23Punctuated$LT$T$C$P$GT$10push_punct17haecab6c445d3d0a0E', symObjAddr: 0xB460, symBinAddr: 0x6C880, symSize: 0x140 }
  - { offsetInCU: 0x4AB3E, offset: 0x23809E, size: 0x8, addend: 0x0, symName: '__ZN3syn10punctuated23Punctuated$LT$T$C$P$GT$10push_punct17hb0efd3086160dde8E', symObjAddr: 0xB5A0, symBinAddr: 0x6C9C0, symSize: 0xF0 }
  - { offsetInCU: 0x4AF3A, offset: 0x23849A, size: 0x8, addend: 0x0, symName: '__ZN3syn10punctuated23Punctuated$LT$T$C$P$GT$10push_punct17hdafa07dad0c325a7E', symObjAddr: 0xB690, symBinAddr: 0x6CAB0, symSize: 0x110 }
  - { offsetInCU: 0x4B350, offset: 0x2388B0, size: 0x8, addend: 0x0, symName: '__ZN3syn10punctuated23Punctuated$LT$T$C$P$GT$10push_punct17hdd359bad1ebfd945E', symObjAddr: 0xB7A0, symBinAddr: 0x6CBC0, symSize: 0x110 }
  - { offsetInCU: 0x4B74C, offset: 0x238CAC, size: 0x8, addend: 0x0, symName: '__ZN3syn10punctuated23Punctuated$LT$T$C$P$GT$10push_punct17he61ebefe1fbd6233E', symObjAddr: 0xB8B0, symBinAddr: 0x6CCD0, symSize: 0x110 }
  - { offsetInCU: 0x4BB48, offset: 0x2390A8, size: 0x8, addend: 0x0, symName: '__ZN3syn10punctuated23Punctuated$LT$T$C$P$GT$10push_punct17hedabbd3c35f4a750E', symObjAddr: 0xB9C0, symBinAddr: 0x6CDE0, symSize: 0x110 }
  - { offsetInCU: 0x4BF44, offset: 0x2394A4, size: 0x8, addend: 0x0, symName: '__ZN3syn10punctuated23Punctuated$LT$T$C$P$GT$10push_punct17hfa5ffee47f85172bE', symObjAddr: 0xBAD0, symBinAddr: 0x6CEF0, symSize: 0x110 }
  - { offsetInCU: 0x4C340, offset: 0x2398A0, size: 0x8, addend: 0x0, symName: '__ZN3syn10punctuated23Punctuated$LT$T$C$P$GT$10push_punct17hff6cad691140237dE', symObjAddr: 0xBBE0, symBinAddr: 0x6D000, symSize: 0x120 }
  - { offsetInCU: 0x4C7D5, offset: 0x239D35, size: 0x8, addend: 0x0, symName: '__ZN3syn10punctuated23Punctuated$LT$T$C$P$GT$3pop17h6c6e5aa8da1faf58E', symObjAddr: 0xBD00, symBinAddr: 0x6D120, symSize: 0xA0 }
  - { offsetInCU: 0x4CBDC, offset: 0x23A13C, size: 0x8, addend: 0x0, symName: '__ZN3syn10punctuated23Punctuated$LT$T$C$P$GT$4push17hdc36ad8613c26a5bE', symObjAddr: 0xBDA0, symBinAddr: 0x6D1C0, symSize: 0x170 }
  - { offsetInCU: 0x4CF8E, offset: 0x23A4EE, size: 0x8, addend: 0x0, symName: '__ZN3syn10punctuated23Punctuated$LT$T$C$P$GT$21parse_terminated_with17h19cf4460b97e8380E', symObjAddr: 0xBF10, symBinAddr: 0x6D330, symSize: 0x200 }
  - { offsetInCU: 0x4D589, offset: 0x23AAE9, size: 0x8, addend: 0x0, symName: '__ZN3syn10punctuated23Punctuated$LT$T$C$P$GT$21parse_terminated_with17h804f2bc7bf3e5193E', symObjAddr: 0xC310, symBinAddr: 0x6D530, symSize: 0x3D0 }
  - { offsetInCU: 0x4E02F, offset: 0x23B58F, size: 0x8, addend: 0x0, symName: '__ZN3syn10punctuated23Punctuated$LT$T$C$P$GT$21parse_terminated_with17h88338cd3dff110dcE', symObjAddr: 0xC6E0, symBinAddr: 0x6D900, symSize: 0x3E0 }
  - { offsetInCU: 0x1E, offset: 0x2431BC, size: 0x8, addend: 0x0, symName: '__ZN42_$LT$$RF$T$u20$as$u20$core..fmt..Debug$GT$3fmt17h22704bd9d9420e95E', symObjAddr: 0x0, symBinAddr: 0x70610, symSize: 0x10 }
  - { offsetInCU: 0x2DFB, offset: 0x245F99, size: 0x8, addend: 0x0, symName: '__ZN3syn4expr7parsing63_$LT$impl$u20$syn..parse..Parse$u20$for$u20$syn..expr..Expr$GT$5parse17h2dd32c2563b281f1E', symObjAddr: 0x9380, symBinAddr: 0x78AA0, symSize: 0xF0 }
  - { offsetInCU: 0x2EAB, offset: 0x246049, size: 0x8, addend: 0x0, symName: '__ZN3syn4expr7parsing66_$LT$impl$u20$syn..parse..Parse$u20$for$u20$syn..expr..ExprLit$GT$5parse17h037323e67b33f4e0E', symObjAddr: 0x9D40, symBinAddr: 0x78B90, symSize: 0xF0 }
  - { offsetInCU: 0x2F9B, offset: 0x246139, size: 0x8, addend: 0x0, symName: '__ZN3syn4expr7parsing65_$LT$impl$u20$syn..parse..Parse$u20$for$u20$syn..expr..ExprIf$GT$5parse17h057f7aac17b81ecfE', symObjAddr: 0x9E70, symBinAddr: 0x78C80, symSize: 0x10D0 }
  - { offsetInCU: 0x5902, offset: 0x248AA0, size: 0x8, addend: 0x0, symName: '__ZN3syn4expr7parsing68_$LT$impl$u20$syn..parse..Parse$u20$for$u20$syn..expr..ExprInfer$GT$5parse17hee2966860a129500E', symObjAddr: 0xAF40, symBinAddr: 0x79D50, symSize: 0x190 }
  - { offsetInCU: 0x5CF2, offset: 0x248E90, size: 0x8, addend: 0x0, symName: '__ZN3syn4expr7parsing70_$LT$impl$u20$syn..parse..Parse$u20$for$u20$syn..expr..ExprForLoop$GT$5parse17hedfbb0907538a2b3E', symObjAddr: 0xB0D0, symBinAddr: 0x79EE0, symSize: 0xAE0 }
  - { offsetInCU: 0x6D5E, offset: 0x249EFC, size: 0x8, addend: 0x0, symName: '__ZN3syn4expr7parsing67_$LT$impl$u20$syn..parse..Parse$u20$for$u20$syn..expr..ExprLoop$GT$5parse17h7ed0d5dbbb60f303E', symObjAddr: 0xBBB0, symBinAddr: 0x7A9C0, symSize: 0x670 }
  - { offsetInCU: 0x7BD1, offset: 0x24AD6F, size: 0x8, addend: 0x0, symName: '__ZN3syn4expr7parsing68_$LT$impl$u20$syn..parse..Parse$u20$for$u20$syn..expr..ExprMatch$GT$5parse17h34519e3f1e766752E', symObjAddr: 0xC220, symBinAddr: 0x7B030, symSize: 0x870 }
  - { offsetInCU: 0x8B08, offset: 0x24BCA6, size: 0x8, addend: 0x0, symName: '__ZN3syn4expr7parsing69_$LT$impl$u20$syn..parse..Parse$u20$for$u20$syn..expr..ExprReturn$GT$5parse17hc1b56b8a902787dbE', symObjAddr: 0xCDA0, symBinAddr: 0x7B8A0, symSize: 0x120 }
  - { offsetInCU: 0x8CEE, offset: 0x24BE8C, size: 0x8, addend: 0x0, symName: '__ZN3syn4expr7parsing71_$LT$impl$u20$syn..parse..Parse$u20$for$u20$syn..expr..ExprTryBlock$GT$5parse17h57d58ae4f0ae4d64E', symObjAddr: 0xCEC0, symBinAddr: 0x7B9C0, symSize: 0x140 }
  - { offsetInCU: 0x8E6F, offset: 0x24C00D, size: 0x8, addend: 0x0, symName: '__ZN3syn4expr7parsing68_$LT$impl$u20$syn..parse..Parse$u20$for$u20$syn..expr..ExprYield$GT$5parse17h1274dc253af9a55dE', symObjAddr: 0xD000, symBinAddr: 0x7BB00, symSize: 0x120 }
  - { offsetInCU: 0x9055, offset: 0x24C1F3, size: 0x8, addend: 0x0, symName: '__ZN3syn4expr7parsing68_$LT$impl$u20$syn..parse..Parse$u20$for$u20$syn..expr..ExprAsync$GT$5parse17h1b9426392ef89a9dE', symObjAddr: 0xD120, symBinAddr: 0x7BC20, symSize: 0x1E0 }
  - { offsetInCU: 0x9359, offset: 0x24C4F7, size: 0x8, addend: 0x0, symName: '__ZN3syn4expr7parsing68_$LT$impl$u20$syn..parse..Parse$u20$for$u20$syn..expr..ExprWhile$GT$5parse17h632c2901c80fa142E', symObjAddr: 0xD300, symBinAddr: 0x7BE00, symSize: 0x940 }
  - { offsetInCU: 0xA1F0, offset: 0x24D38E, size: 0x8, addend: 0x0, symName: '__ZN3syn4expr7parsing68_$LT$impl$u20$syn..parse..Parse$u20$for$u20$syn..expr..ExprConst$GT$5parse17h3cb83d630e04595bE', symObjAddr: 0xDC40, symBinAddr: 0x7C740, symSize: 0x480 }
  - { offsetInCU: 0xAA27, offset: 0x24DBC5, size: 0x8, addend: 0x0, symName: '__ZN3syn4expr7parsing64_$LT$impl$u20$syn..parse..Parse$u20$for$u20$syn..expr..Label$GT$5parse17hef86b1bab95aa7abE', symObjAddr: 0xE0C0, symBinAddr: 0x7CBC0, symSize: 0x240 }
  - { offsetInCU: 0xAEE8, offset: 0x24E086, size: 0x8, addend: 0x0, symName: '__ZN3syn4expr7parsing71_$LT$impl$u20$syn..parse..Parse$u20$for$u20$syn..expr..ExprContinue$GT$5parse17h63c6d49ae369ea01E', symObjAddr: 0xE300, symBinAddr: 0x7CE00, symSize: 0x1B0 }
  - { offsetInCU: 0xB06A, offset: 0x24E208, size: 0x8, addend: 0x0, symName: '__ZN3syn4expr7parsing69_$LT$impl$u20$syn..parse..Parse$u20$for$u20$syn..expr..FieldValue$GT$5parse17hcbc1792fb9342612E', symObjAddr: 0xE4B0, symBinAddr: 0x7CFB0, symSize: 0x670 }
  - { offsetInCU: 0xBAFE, offset: 0x24EC9C, size: 0x8, addend: 0x0, symName: '__ZN3syn4expr7parsing69_$LT$impl$u20$syn..parse..Parse$u20$for$u20$syn..expr..ExprUnsafe$GT$5parse17hd34f309eaaaddbf9E', symObjAddr: 0xEC40, symBinAddr: 0x7D620, symSize: 0x480 }
  - { offsetInCU: 0xC335, offset: 0x24F4D3, size: 0x8, addend: 0x0, symName: '__ZN3syn4expr7parsing68_$LT$impl$u20$syn..parse..Parse$u20$for$u20$syn..expr..ExprBlock$GT$5parse17h61a2a565a082b026E', symObjAddr: 0xF0C0, symBinAddr: 0x7DAA0, symSize: 0x620 }
  - { offsetInCU: 0xD192, offset: 0x250330, size: 0x8, addend: 0x0, symName: '__ZN3syn4expr7parsing70_$LT$impl$u20$syn..parse..Parse$u20$for$u20$syn..expr..RangeLimits$GT$5parse17hafc71f8b1811b3d4E', symObjAddr: 0xF6E0, symBinAddr: 0x7E0C0, symSize: 0x2F0 }
  - { offsetInCU: 0xDE12, offset: 0x250FB0, size: 0x8, addend: 0x0, symName: '__ZN3syn4expr7parsing67_$LT$impl$u20$syn..parse..Parse$u20$for$u20$syn..expr..ExprPath$GT$5parse17hcfacd5d2290fdd20E', symObjAddr: 0xFD70, symBinAddr: 0x7E750, symSize: 0x240 }
  - { offsetInCU: 0xE255, offset: 0x2513F3, size: 0x8, addend: 0x0, symName: '__ZN3syn4expr7parsing65_$LT$impl$u20$syn..parse..Parse$u20$for$u20$syn..expr..Member$GT$5parse17h207aacc2d4c7579fE', symObjAddr: 0xFFB0, symBinAddr: 0x7E990, symSize: 0xE0 }
  - { offsetInCU: 0xE4C5, offset: 0x251663, size: 0x8, addend: 0x0, symName: '__ZN3syn4expr7parsing62_$LT$impl$u20$syn..parse..Parse$u20$for$u20$syn..expr..Arm$GT$5parse17h512532f6f815234dE', symObjAddr: 0x10090, symBinAddr: 0x7EA70, symSize: 0xA10 }
  - { offsetInCU: 0xF3EC, offset: 0x25258A, size: 0x8, addend: 0x0, symName: '__ZN3syn4expr7parsing64_$LT$impl$u20$syn..parse..Parse$u20$for$u20$syn..expr..Index$GT$5parse17h5b2fe44bac761272E', symObjAddr: 0x10AA0, symBinAddr: 0x7F480, symSize: 0x180 }
  - { offsetInCU: 0xFABE, offset: 0x252C5C, size: 0x8, addend: 0x0, symName: '__ZN3syn4expr8printing77_$LT$impl$u20$quote..to_tokens..ToTokens$u20$for$u20$syn..expr..ExprAsync$GT$9to_tokens17h7671d28113e1e04eE', symObjAddr: 0x10CC0, symBinAddr: 0x7F600, symSize: 0x160 }
  - { offsetInCU: 0x10149, offset: 0x2532E7, size: 0x8, addend: 0x0, symName: '__ZN3syn4expr8printing77_$LT$impl$u20$quote..to_tokens..ToTokens$u20$for$u20$syn..expr..ExprBlock$GT$9to_tokens17h25103e38a45e4c1aE', symObjAddr: 0x10E40, symBinAddr: 0x7F760, symSize: 0xF0 }
  - { offsetInCU: 0x106B1, offset: 0x25384F, size: 0x8, addend: 0x0, symName: '__ZN3syn4expr8printing79_$LT$impl$u20$quote..to_tokens..ToTokens$u20$for$u20$syn..expr..ExprClosure$GT$9to_tokens17h22aefaf35f6b4a17E', symObjAddr: 0x10F60, symBinAddr: 0x7F850, symSize: 0x400 }
  - { offsetInCU: 0x113FC, offset: 0x25459A, size: 0x8, addend: 0x0, symName: '__ZN3syn4expr8printing77_$LT$impl$u20$quote..to_tokens..ToTokens$u20$for$u20$syn..expr..ExprConst$GT$9to_tokens17hfc10e9b463dc8ee9E', symObjAddr: 0x11360, symBinAddr: 0x7FC50, symSize: 0xF0 }
  - { offsetInCU: 0x1187A, offset: 0x254A18, size: 0x8, addend: 0x0, symName: '__ZN3syn4expr8printing80_$LT$impl$u20$quote..to_tokens..ToTokens$u20$for$u20$syn..expr..ExprContinue$GT$9to_tokens17h5bfb9035b6328620E', symObjAddr: 0x11450, symBinAddr: 0x7FD40, symSize: 0x130 }
  - { offsetInCU: 0x11E5E, offset: 0x254FFC, size: 0x8, addend: 0x0, symName: '__ZN3syn4expr8printing79_$LT$impl$u20$quote..to_tokens..ToTokens$u20$for$u20$syn..expr..ExprForLoop$GT$9to_tokens17h240fbce8573b3e2aE', symObjAddr: 0x11590, symBinAddr: 0x7FE70, symSize: 0x240 }
  - { offsetInCU: 0x12715, offset: 0x2558B3, size: 0x8, addend: 0x0, symName: '__ZN3syn4expr8printing74_$LT$impl$u20$quote..to_tokens..ToTokens$u20$for$u20$syn..expr..ExprIf$GT$9to_tokens17hf717ea11b1d1406aE', symObjAddr: 0x11860, symBinAddr: 0x800B0, symSize: 0x330 }
  - { offsetInCU: 0x13382, offset: 0x256520, size: 0x8, addend: 0x0, symName: '__ZN3syn4expr8printing77_$LT$impl$u20$quote..to_tokens..ToTokens$u20$for$u20$syn..expr..ExprInfer$GT$9to_tokens17h66f2f3192152ee7bE', symObjAddr: 0x11BA0, symBinAddr: 0x803E0, symSize: 0xE0 }
  - { offsetInCU: 0x1382A, offset: 0x2569C8, size: 0x8, addend: 0x0, symName: '__ZN3syn4expr8printing76_$LT$impl$u20$quote..to_tokens..ToTokens$u20$for$u20$syn..expr..ExprLoop$GT$9to_tokens17h32916f0a6a52df29E', symObjAddr: 0x11D20, symBinAddr: 0x804C0, symSize: 0x160 }
  - { offsetInCU: 0x13FCC, offset: 0x25716A, size: 0x8, addend: 0x0, symName: '__ZN3syn4expr8printing78_$LT$impl$u20$quote..to_tokens..ToTokens$u20$for$u20$syn..expr..ExprStruct$GT$9to_tokens17h5b9d34ef7b745589E', symObjAddr: 0x12260, symBinAddr: 0x80620, symSize: 0xA0 }
  - { offsetInCU: 0x14357, offset: 0x2574F5, size: 0x8, addend: 0x0, symName: '__ZN3syn4expr8printing80_$LT$impl$u20$quote..to_tokens..ToTokens$u20$for$u20$syn..expr..ExprTryBlock$GT$9to_tokens17h21b1a3e7eeb0a009E', symObjAddr: 0x12310, symBinAddr: 0x806C0, symSize: 0xF0 }
  - { offsetInCU: 0x14855, offset: 0x2579F3, size: 0x8, addend: 0x0, symName: '__ZN3syn4expr8printing78_$LT$impl$u20$quote..to_tokens..ToTokens$u20$for$u20$syn..expr..ExprUnsafe$GT$9to_tokens17h4dfc36d6c64a764dE', symObjAddr: 0x124A0, symBinAddr: 0x807B0, symSize: 0xF0 }
  - { offsetInCU: 0x14D2D, offset: 0x257ECB, size: 0x8, addend: 0x0, symName: '__ZN3syn4expr8printing71_$LT$impl$u20$quote..to_tokens..ToTokens$u20$for$u20$syn..expr..Arm$GT$9to_tokens17hb5881eaa41e95cfeE', symObjAddr: 0x12770, symBinAddr: 0x808A0, symSize: 0x180 }
  - { offsetInCU: 0x1512A, offset: 0x2582C8, size: 0x8, addend: 0x0, symName: '__ZN3syn4expr8printing74_$LT$impl$u20$quote..to_tokens..ToTokens$u20$for$u20$syn..expr..Member$GT$9to_tokens17h4e2d160d172ed775E', symObjAddr: 0x12BC0, symBinAddr: 0x80BC0, symSize: 0xC0 }
  - { offsetInCU: 0x153FD, offset: 0x25859B, size: 0x8, addend: 0x0, symName: '__ZN3syn4expr8printing78_$LT$impl$u20$quote..to_tokens..ToTokens$u20$for$u20$syn..expr..FieldValue$GT$9to_tokens17heb932e58796058afE', symObjAddr: 0x128F0, symBinAddr: 0x80A20, symSize: 0x1A0 }
  - { offsetInCU: 0x15A61, offset: 0x258BFF, size: 0x8, addend: 0x0, symName: '__ZN62_$LT$syn..expr..Expr$u20$as$u20$quote..to_tokens..ToTokens$GT$9to_tokens17h591e04bab5b62929E', symObjAddr: 0x12D00, symBinAddr: 0x80C80, symSize: 0x22C0 }
  - { offsetInCU: 0x21686, offset: 0x264824, size: 0x8, addend: 0x0, symName: '__ZN3syn3gen5debug61_$LT$impl$u20$core..fmt..Debug$u20$for$u20$syn..expr..Arm$GT$3fmt17hb8dfa2a47cfa48b5E', symObjAddr: 0x1C660, symBinAddr: 0x86A60, symSize: 0x100 }
  - { offsetInCU: 0x216E7, offset: 0x264885, size: 0x8, addend: 0x0, symName: '__ZN3syn3gen5debug62_$LT$impl$u20$core..fmt..Debug$u20$for$u20$syn..expr..Expr$GT$3fmt17h7d11a371693dc1c1E', symObjAddr: 0x1C760, symBinAddr: 0x86B60, symSize: 0x610 }
  - { offsetInCU: 0x21C42, offset: 0x264DE0, size: 0x8, addend: 0x0, symName: '__ZN3syn3gen5debug68_$LT$impl$u20$core..fmt..Debug$u20$for$u20$syn..expr..FieldValue$GT$3fmt17h47ba43fcf13739b9E', symObjAddr: 0x1FFE0, symBinAddr: 0x88BC0, symSize: 0xC0 }
  - { offsetInCU: 0x21CA6, offset: 0x264E44, size: 0x8, addend: 0x0, symName: '__ZN3syn3gen5debug63_$LT$impl$u20$core..fmt..Debug$u20$for$u20$syn..expr..Index$GT$3fmt17h58c615228454fc8aE', symObjAddr: 0x200A0, symBinAddr: 0x88C80, symSize: 0x80 }
  - { offsetInCU: 0x21D0A, offset: 0x264EA8, size: 0x8, addend: 0x0, symName: '__ZN3syn3gen5debug64_$LT$impl$u20$core..fmt..Debug$u20$for$u20$syn..expr..Member$GT$3fmt17h6b428a40006dee15E', symObjAddr: 0x201A0, symBinAddr: 0x88D00, symSize: 0xA0 }
  - { offsetInCU: 0x21DFA, offset: 0x264F98, size: 0x8, addend: 0x0, symName: '__ZN3syn3gen5debug69_$LT$impl$u20$core..fmt..Debug$u20$for$u20$syn..expr..RangeLimits$GT$3fmt17ha7be0c10f50b99f3E', symObjAddr: 0x20240, symBinAddr: 0x88DA0, symSize: 0xA0 }
  - { offsetInCU: 0x21F1C, offset: 0x2650BA, size: 0x8, addend: 0x0, symName: '__ZN3syn3gen2eq72_$LT$impl$u20$core..cmp..PartialEq$u20$for$u20$syn..expr..FieldValue$GT$2eq17hb210ab9b9f7d614cE', symObjAddr: 0x22230, symBinAddr: 0x8AC40, symSize: 0xF0 }
  - { offsetInCU: 0x2218B, offset: 0x265329, size: 0x8, addend: 0x0, symName: '__ZN3syn3gen2eq66_$LT$impl$u20$core..cmp..PartialEq$u20$for$u20$syn..expr..Expr$GT$2eq17haf247a1b3a32d5e7E', symObjAddr: 0x203C0, symBinAddr: 0x88E40, symSize: 0x290 }
  - { offsetInCU: 0x22918, offset: 0x265AB6, size: 0x8, addend: 0x0, symName: '__ZN3syn3gen2eq71_$LT$impl$u20$core..cmp..PartialEq$u20$for$u20$syn..expr..ExprArray$GT$2eq17h94be694a3f79dad6E', symObjAddr: 0x20650, symBinAddr: 0x890D0, symSize: 0x0 }
  - { offsetInCU: 0x22C14, offset: 0x265DB2, size: 0x8, addend: 0x0, symName: '__ZN3syn3gen2eq72_$LT$impl$u20$core..cmp..PartialEq$u20$for$u20$syn..expr..ExprAssign$GT$2eq17hf314f2fc70b7c558E', symObjAddr: 0x20740, symBinAddr: 0x891C0, symSize: 0xA0 }
  - { offsetInCU: 0x22DD3, offset: 0x265F71, size: 0x8, addend: 0x0, symName: '__ZN3syn3gen2eq71_$LT$impl$u20$core..cmp..PartialEq$u20$for$u20$syn..expr..ExprAsync$GT$2eq17h4fd952bcc5f99d44E', symObjAddr: 0x207E0, symBinAddr: 0x89260, symSize: 0xD0 }
  - { offsetInCU: 0x23079, offset: 0x266217, size: 0x8, addend: 0x0, symName: '__ZN3syn3gen2eq72_$LT$impl$u20$core..cmp..PartialEq$u20$for$u20$syn..expr..ExprBinary$GT$2eq17ha3a56dc8eb6b88c8E', symObjAddr: 0x208B0, symBinAddr: 0x89330, symSize: 0xB0 }
  - { offsetInCU: 0x2327E, offset: 0x26641C, size: 0x8, addend: 0x0, symName: '__ZN3syn3gen2eq71_$LT$impl$u20$core..cmp..PartialEq$u20$for$u20$syn..expr..ExprBlock$GT$2eq17h44d180ddc9368e44E', symObjAddr: 0x20960, symBinAddr: 0x893E0, symSize: 0xF0 }
  - { offsetInCU: 0x23553, offset: 0x2666F1, size: 0x8, addend: 0x0, symName: '__ZN3syn3gen2eq71_$LT$impl$u20$core..cmp..PartialEq$u20$for$u20$syn..expr..ExprBreak$GT$2eq17h7591b71efa87ada3E', symObjAddr: 0x20A50, symBinAddr: 0x894D0, symSize: 0xD0 }
  - { offsetInCU: 0x237A8, offset: 0x266946, size: 0x8, addend: 0x0, symName: '__ZN3syn3gen2eq70_$LT$impl$u20$core..cmp..PartialEq$u20$for$u20$syn..expr..ExprCall$GT$2eq17h0823ca6be4da650bE', symObjAddr: 0x20B20, symBinAddr: 0x895A0, symSize: 0x100 }
  - { offsetInCU: 0x23ADA, offset: 0x266C78, size: 0x8, addend: 0x0, symName: '__ZN3syn3gen2eq70_$LT$impl$u20$core..cmp..PartialEq$u20$for$u20$syn..expr..ExprCast$GT$2eq17h5fa7be68484c9576E', symObjAddr: 0x20C20, symBinAddr: 0x896A0, symSize: 0xA0 }
  - { offsetInCU: 0x23C99, offset: 0x266E37, size: 0x8, addend: 0x0, symName: '__ZN3syn3gen2eq73_$LT$impl$u20$core..cmp..PartialEq$u20$for$u20$syn..expr..ExprClosure$GT$2eq17hf0f5294b041c8f47E', symObjAddr: 0x20CC0, symBinAddr: 0x89740, symSize: 0x1E0 }
  - { offsetInCU: 0x2415A, offset: 0x2672F8, size: 0x8, addend: 0x0, symName: '__ZN3syn3gen2eq71_$LT$impl$u20$core..cmp..PartialEq$u20$for$u20$syn..expr..ExprConst$GT$2eq17hbd8521539d0fa968E', symObjAddr: 0x20EA0, symBinAddr: 0x89920, symSize: 0x0 }
  - { offsetInCU: 0x2439B, offset: 0x267539, size: 0x8, addend: 0x0, symName: '__ZN3syn3gen2eq74_$LT$impl$u20$core..cmp..PartialEq$u20$for$u20$syn..expr..ExprContinue$GT$2eq17he4a8ef7a2baf8e41E', symObjAddr: 0x20F60, symBinAddr: 0x899E0, symSize: 0xB0 }
  - { offsetInCU: 0x2456C, offset: 0x26770A, size: 0x8, addend: 0x0, symName: '__ZN3syn3gen2eq71_$LT$impl$u20$core..cmp..PartialEq$u20$for$u20$syn..expr..ExprField$GT$2eq17h51130596ea4ada91E', symObjAddr: 0x21010, symBinAddr: 0x89A90, symSize: 0xC0 }
  - { offsetInCU: 0x247AA, offset: 0x267948, size: 0x8, addend: 0x0, symName: '__ZN3syn3gen2eq73_$LT$impl$u20$core..cmp..PartialEq$u20$for$u20$syn..expr..ExprForLoop$GT$2eq17hbcb28bf4a7ad3dcaE', symObjAddr: 0x210D0, symBinAddr: 0x89B50, symSize: 0x100 }
  - { offsetInCU: 0x24AF7, offset: 0x267C95, size: 0x8, addend: 0x0, symName: '__ZN3syn3gen2eq68_$LT$impl$u20$core..cmp..PartialEq$u20$for$u20$syn..expr..ExprIf$GT$2eq17h7e6d683fd994f40bE', symObjAddr: 0x211D0, symBinAddr: 0x89C50, symSize: 0x100 }
  - { offsetInCU: 0x24E23, offset: 0x267FC1, size: 0x8, addend: 0x0, symName: '__ZN3syn3gen2eq71_$LT$impl$u20$core..cmp..PartialEq$u20$for$u20$syn..expr..ExprIndex$GT$2eq17ha99044450736de84E', symObjAddr: 0x212D0, symBinAddr: 0x89D50, symSize: 0x0 }
  - { offsetInCU: 0x24FE2, offset: 0x268180, size: 0x8, addend: 0x0, symName: '__ZN3syn3gen2eq69_$LT$impl$u20$core..cmp..PartialEq$u20$for$u20$syn..expr..ExprLet$GT$2eq17h1763a7f9246a2ab8E', symObjAddr: 0x213E0, symBinAddr: 0x89DF0, symSize: 0xA0 }
  - { offsetInCU: 0x251A1, offset: 0x26833F, size: 0x8, addend: 0x0, symName: '__ZN3syn3gen2eq69_$LT$impl$u20$core..cmp..PartialEq$u20$for$u20$syn..expr..ExprLit$GT$2eq17h5c12039b9ce8c689E', symObjAddr: 0x21480, symBinAddr: 0x89E90, symSize: 0xA0 }
  - { offsetInCU: 0x252F4, offset: 0x268492, size: 0x8, addend: 0x0, symName: '__ZN3syn3gen2eq70_$LT$impl$u20$core..cmp..PartialEq$u20$for$u20$syn..expr..ExprLoop$GT$2eq17hd2e77369067fc65eE', symObjAddr: 0x21520, symBinAddr: 0x89F30, symSize: 0xF0 }
  - { offsetInCU: 0x255C9, offset: 0x268767, size: 0x8, addend: 0x0, symName: '__ZN3syn3gen2eq71_$LT$impl$u20$core..cmp..PartialEq$u20$for$u20$syn..expr..ExprMacro$GT$2eq17hcae21d142cbd82fcE', symObjAddr: 0x21610, symBinAddr: 0x8A020, symSize: 0xA0 }
  - { offsetInCU: 0x2571C, offset: 0x2688BA, size: 0x8, addend: 0x0, symName: '__ZN3syn3gen2eq71_$LT$impl$u20$core..cmp..PartialEq$u20$for$u20$syn..expr..ExprMatch$GT$2eq17hd99b8c7f7215d3b0E', symObjAddr: 0x216B0, symBinAddr: 0x8A0C0, symSize: 0x1C0 }
  - { offsetInCU: 0x25C37, offset: 0x268DD5, size: 0x8, addend: 0x0, symName: '__ZN3syn3gen2eq76_$LT$impl$u20$core..cmp..PartialEq$u20$for$u20$syn..expr..ExprMethodCall$GT$2eq17hbc8c6b1bf5756152E', symObjAddr: 0x21870, symBinAddr: 0x8A280, symSize: 0x1D0 }
  - { offsetInCU: 0x261A6, offset: 0x269344, size: 0x8, addend: 0x0, symName: '__ZN3syn3gen2eq71_$LT$impl$u20$core..cmp..PartialEq$u20$for$u20$syn..expr..ExprParen$GT$2eq17h8b35a1bf4b9e8f36E', symObjAddr: 0x21A40, symBinAddr: 0x8A450, symSize: 0x90 }
  - { offsetInCU: 0x2632F, offset: 0x2694CD, size: 0x8, addend: 0x0, symName: '__ZN3syn3gen2eq70_$LT$impl$u20$core..cmp..PartialEq$u20$for$u20$syn..expr..ExprPath$GT$2eq17h79b7c1d3d8adfe53E', symObjAddr: 0x21AD0, symBinAddr: 0x8A4E0, symSize: 0x120 }
  - { offsetInCU: 0x266C7, offset: 0x269865, size: 0x8, addend: 0x0, symName: '__ZN3syn3gen2eq71_$LT$impl$u20$core..cmp..PartialEq$u20$for$u20$syn..expr..ExprRange$GT$2eq17hfb9909e61c89137dE', symObjAddr: 0x21BF0, symBinAddr: 0x8A600, symSize: 0xE0 }
  - { offsetInCU: 0x26958, offset: 0x269AF6, size: 0x8, addend: 0x0, symName: '__ZN3syn3gen2eq75_$LT$impl$u20$core..cmp..PartialEq$u20$for$u20$syn..expr..ExprReference$GT$2eq17h5094af4f2d6ea163E', symObjAddr: 0x21CD0, symBinAddr: 0x8A6E0, symSize: 0xB0 }
  - { offsetInCU: 0x26B07, offset: 0x269CA5, size: 0x8, addend: 0x0, symName: '__ZN3syn3gen2eq72_$LT$impl$u20$core..cmp..PartialEq$u20$for$u20$syn..expr..ExprStruct$GT$2eq17h1e8029fbaf681e54E', symObjAddr: 0x21D80, symBinAddr: 0x8A790, symSize: 0x1C0 }
  - { offsetInCU: 0x27002, offset: 0x26A1A0, size: 0x8, addend: 0x0, symName: '__ZN3syn3gen2eq69_$LT$impl$u20$core..cmp..PartialEq$u20$for$u20$syn..expr..ExprTry$GT$2eq17h6f211ecbef028e0dE', symObjAddr: 0x21F40, symBinAddr: 0x8A950, symSize: 0x0 }
  - { offsetInCU: 0x271BD, offset: 0x26A35B, size: 0x8, addend: 0x0, symName: '__ZN3syn3gen2eq71_$LT$impl$u20$core..cmp..PartialEq$u20$for$u20$syn..expr..ExprUnary$GT$2eq17hf3412c2ee27f944eE', symObjAddr: 0x21FD0, symBinAddr: 0x8A9E0, symSize: 0xB0 }
  - { offsetInCU: 0x2736C, offset: 0x26A50A, size: 0x8, addend: 0x0, symName: '__ZN3syn3gen2eq71_$LT$impl$u20$core..cmp..PartialEq$u20$for$u20$syn..expr..ExprWhile$GT$2eq17ha23e6a9eece2ddc6E', symObjAddr: 0x22080, symBinAddr: 0x8AA90, symSize: 0x100 }
  - { offsetInCU: 0x27681, offset: 0x26A81F, size: 0x8, addend: 0x0, symName: '__ZN3syn3gen2eq71_$LT$impl$u20$core..cmp..PartialEq$u20$for$u20$syn..expr..ExprYield$GT$2eq17h693ebac2c2c2f478E', symObjAddr: 0x22180, symBinAddr: 0x8AB90, symSize: 0x0 }
  - { offsetInCU: 0x27866, offset: 0x26AA04, size: 0x8, addend: 0x0, symName: '__ZN3syn3gen5clone63_$LT$impl$u20$core..clone..Clone$u20$for$u20$syn..expr..Arm$GT$5clone17h731a332d9e810dfbE', symObjAddr: 0x174C0, symBinAddr: 0x82F40, symSize: 0x1F0 }
  - { offsetInCU: 0x281BC, offset: 0x26B35A, size: 0x8, addend: 0x0, symName: '__ZN3syn3gen5clone64_$LT$impl$u20$core..clone..Clone$u20$for$u20$syn..expr..Expr$GT$5clone17hd0fbb57decae682fE', symObjAddr: 0x176B0, symBinAddr: 0x83130, symSize: 0x1DF0 }
  - { offsetInCU: 0x2BE9B, offset: 0x26F039, size: 0x8, addend: 0x0, symName: '__ZN3syn3gen5clone69_$LT$impl$u20$core..clone..Clone$u20$for$u20$syn..expr..ExprBlock$GT$5clone17hc672c8361322b75dE', symObjAddr: 0x199C0, symBinAddr: 0x84F20, symSize: 0x140 }
  - { offsetInCU: 0x2C171, offset: 0x26F30F, size: 0x8, addend: 0x0, symName: '__ZN3syn3gen5clone69_$LT$impl$u20$core..clone..Clone$u20$for$u20$syn..expr..ExprBreak$GT$5clone17h7bd0ca0880b96178E', symObjAddr: 0x19B00, symBinAddr: 0x85060, symSize: 0x1A0 }
  - { offsetInCU: 0x2C621, offset: 0x26F7BF, size: 0x8, addend: 0x0, symName: '__ZN3syn3gen5clone71_$LT$impl$u20$core..clone..Clone$u20$for$u20$syn..expr..ExprClosure$GT$5clone17h793550ac36ec18ecE', symObjAddr: 0x19F50, symBinAddr: 0x85200, symSize: 0x380 }
  - { offsetInCU: 0x2CCEC, offset: 0x26FE8A, size: 0x8, addend: 0x0, symName: '__ZN3syn3gen5clone71_$LT$impl$u20$core..clone..Clone$u20$for$u20$syn..expr..ExprForLoop$GT$5clone17h43600741ac808a48E', symObjAddr: 0x1A590, symBinAddr: 0x85580, symSize: 0x2A0 }
  - { offsetInCU: 0x2D445, offset: 0x2705E3, size: 0x8, addend: 0x0, symName: '__ZN3syn3gen5clone66_$LT$impl$u20$core..clone..Clone$u20$for$u20$syn..expr..ExprIf$GT$5clone17h1d1ef5ce5034df51E', symObjAddr: 0x1A910, symBinAddr: 0x85820, symSize: 0x1E0 }
  - { offsetInCU: 0x2D964, offset: 0x270B02, size: 0x8, addend: 0x0, symName: '__ZN3syn3gen5clone68_$LT$impl$u20$core..clone..Clone$u20$for$u20$syn..expr..ExprLoop$GT$5clone17h5ec892bf07c52e97E', symObjAddr: 0x1AE90, symBinAddr: 0x85A00, symSize: 0x150 }
  - { offsetInCU: 0x2DC68, offset: 0x270E06, size: 0x8, addend: 0x0, symName: '__ZN3syn3gen5clone69_$LT$impl$u20$core..clone..Clone$u20$for$u20$syn..expr..ExprMatch$GT$5clone17ha5b2779974051841E', symObjAddr: 0x1B070, symBinAddr: 0x85B50, symSize: 0x140 }
  - { offsetInCU: 0x2DEF0, offset: 0x27108E, size: 0x8, addend: 0x0, symName: '__ZN3syn3gen5clone74_$LT$impl$u20$core..clone..Clone$u20$for$u20$syn..expr..ExprMethodCall$GT$5clone17h4d51c2e74302fd51E', symObjAddr: 0x1B1B0, symBinAddr: 0x85C90, symSize: 0x3A0 }
  - { offsetInCU: 0x2E5F7, offset: 0x271795, size: 0x8, addend: 0x0, symName: '__ZN3syn3gen5clone68_$LT$impl$u20$core..clone..Clone$u20$for$u20$syn..expr..ExprPath$GT$5clone17h5e066ec238ed93d5E', symObjAddr: 0x1B630, symBinAddr: 0x86030, symSize: 0x1B0 }
  - { offsetInCU: 0x2E964, offset: 0x271B02, size: 0x8, addend: 0x0, symName: '__ZN3syn3gen5clone69_$LT$impl$u20$core..clone..Clone$u20$for$u20$syn..expr..ExprRange$GT$5clone17h9227c42eb2ce8610E', symObjAddr: 0x1B7E0, symBinAddr: 0x861E0, symSize: 0x1A0 }
  - { offsetInCU: 0x2EE70, offset: 0x27200E, size: 0x8, addend: 0x0, symName: '__ZN3syn3gen5clone70_$LT$impl$u20$core..clone..Clone$u20$for$u20$syn..expr..ExprStruct$GT$5clone17h182ae561ae6d6028E', symObjAddr: 0x1BC00, symBinAddr: 0x86380, symSize: 0x390 }
  - { offsetInCU: 0x2F6B7, offset: 0x272855, size: 0x8, addend: 0x0, symName: '__ZN3syn3gen5clone69_$LT$impl$u20$core..clone..Clone$u20$for$u20$syn..expr..ExprWhile$GT$5clone17hc9698df3873ae4b0E', symObjAddr: 0x1C150, symBinAddr: 0x86710, symSize: 0x200 }
  - { offsetInCU: 0x2FBE0, offset: 0x272D7E, size: 0x8, addend: 0x0, symName: '__ZN3syn3gen5clone70_$LT$impl$u20$core..clone..Clone$u20$for$u20$syn..expr..FieldValue$GT$5clone17he5e5e61c3443e293E', symObjAddr: 0x1C440, symBinAddr: 0x86910, symSize: 0x150 }
  - { offsetInCU: 0x31F20, offset: 0x2750BE, size: 0x8, addend: 0x0, symName: '__ZN4core3ptr100drop_in_place$LT$core..option..Option$LT$alloc..boxed..Box$LT$syn..path..GenericArgument$GT$$GT$$GT$17h3a7c44b9e57fe410E', symObjAddr: 0x1D0, symBinAddr: 0x706E0, symSize: 0x50 }
  - { offsetInCU: 0x322BE, offset: 0x27545C, size: 0x8, addend: 0x0, symName: '__ZN4core3ptr100drop_in_place$LT$syn..punctuated..Punctuated$LT$syn..path..PathSegment$C$syn..token..PathSep$GT$$GT$17he41ef64147139591E', symObjAddr: 0x220, symBinAddr: 0x70730, symSize: 0x2B0 }
  - { offsetInCU: 0x32D74, offset: 0x275F12, size: 0x8, addend: 0x0, symName: '__ZN4core3ptr103drop_in_place$LT$core..option..Option$LT$alloc..boxed..Box$LT$syn..generics..TypeParamBound$GT$$GT$$GT$17hb14e4384a768542bE', symObjAddr: 0x4D0, symBinAddr: 0x709E0, symSize: 0x50 }
  - { offsetInCU: 0x32F7F, offset: 0x27611D, size: 0x8, addend: 0x0, symName: '__ZN4core3ptr103drop_in_place$LT$syn..punctuated..Punctuated$LT$syn..generics..GenericParam$C$syn..token..Comma$GT$$GT$17h0c6077a988036760E', symObjAddr: 0x520, symBinAddr: 0x70A30, symSize: 0xF0 }
  - { offsetInCU: 0x3347A, offset: 0x276618, size: 0x8, addend: 0x0, symName: '__ZN4core3ptr104drop_in_place$LT$syn..punctuated..Punctuated$LT$syn..generics..TypeParamBound$C$syn..token..Plus$GT$$GT$17h724e4d9d1d65061aE', symObjAddr: 0x610, symBinAddr: 0x70B20, symSize: 0x190 }
  - { offsetInCU: 0x33A9D, offset: 0x276C3B, size: 0x8, addend: 0x0, symName: '__ZN4core3ptr114drop_in_place$LT$core..option..Option$LT$$LP$syn..token..If$C$alloc..boxed..Box$LT$syn..expr..Expr$GT$$RP$$GT$$GT$17h65df04de8e20ab0aE.llvm.3179342279309578476', symObjAddr: 0x7A0, symBinAddr: 0x70CB0, symSize: 0x0 }
  - { offsetInCU: 0x33CCC, offset: 0x276E6A, size: 0x8, addend: 0x0, symName: '__ZN4core3ptr34drop_in_place$LT$syn..lit..Lit$GT$17hd64dde89a262341dE.llvm.3179342279309578476', symObjAddr: 0x7F0, symBinAddr: 0x70D00, symSize: 0x130 }
  - { offsetInCU: 0x34205, offset: 0x2773A3, size: 0x8, addend: 0x0, symName: '__ZN4core3ptr34drop_in_place$LT$syn..pat..Pat$GT$17hf88887878261d63cE.llvm.3179342279309578476', symObjAddr: 0x920, symBinAddr: 0x70E30, symSize: 0x1100 }
  - { offsetInCU: 0x3887E, offset: 0x27BA1C, size: 0x8, addend: 0x0, symName: '__ZN4core3ptr34drop_in_place$LT$syn..ty..Type$GT$17ha80dd29b0f9d4a3fE.llvm.3179342279309578476', symObjAddr: 0x1A20, symBinAddr: 0x71F30, symSize: 0x520 }
  - { offsetInCU: 0x39942, offset: 0x27CAE0, size: 0x8, addend: 0x0, symName: '__ZN4core3ptr35drop_in_place$LT$syn..expr..Arm$GT$17hd729aea1406305a9E', symObjAddr: 0x1F40, symBinAddr: 0x72450, symSize: 0x160 }
  - { offsetInCU: 0x3A3FB, offset: 0x27D599, size: 0x8, addend: 0x0, symName: '__ZN4core3ptr36drop_in_place$LT$syn..expr..Expr$GT$17h10f573b40ddd212cE.llvm.3179342279309578476', symObjAddr: 0x20A0, symBinAddr: 0x725B0, symSize: 0x2550 }
  - { offsetInCU: 0x43812, offset: 0x2869B0, size: 0x8, addend: 0x0, symName: '__ZN4core3ptr36drop_in_place$LT$syn..mac..Macro$GT$17hc3b30a7a8a34cc2dE.llvm.3179342279309578476', symObjAddr: 0x45F0, symBinAddr: 0x74B00, symSize: 0x40 }
  - { offsetInCU: 0x4384C, offset: 0x2869EA, size: 0x8, addend: 0x0, symName: '__ZN4core3ptr36drop_in_place$LT$syn..path..Path$GT$17h75c74a97d5f0a03bE.llvm.3179342279309578476', symObjAddr: 0x4630, symBinAddr: 0x74B40, symSize: 0x280 }
  - { offsetInCU: 0x44337, offset: 0x2874D5, size: 0x8, addend: 0x0, symName: '__ZN4core3ptr37drop_in_place$LT$syn..lit..LitInt$GT$17hb1d9c894162666f0E.llvm.3179342279309578476', symObjAddr: 0x48B0, symBinAddr: 0x74DC0, symSize: 0x70 }
  - { offsetInCU: 0x446C8, offset: 0x287866, size: 0x8, addend: 0x0, symName: '__ZN4core3ptr37drop_in_place$LT$syn..stmt..Block$GT$17h6fc3254d5688f2c3E.llvm.3179342279309578476', symObjAddr: 0x4920, symBinAddr: 0x74E30, symSize: 0xD0 }
  - { offsetInCU: 0x449DD, offset: 0x287B7B, size: 0x8, addend: 0x0, symName: '__ZN4core3ptr38drop_in_place$LT$syn..expr..ExprIf$GT$17ha8d3c2042f45d05fE', symObjAddr: 0x49F0, symBinAddr: 0x74F00, symSize: 0x200 }
  - { offsetInCU: 0x45299, offset: 0x288437, size: 0x8, addend: 0x0, symName: '__ZN4core3ptr38drop_in_place$LT$syn..expr..Member$GT$17h6b0cf84594ce6bceE.llvm.3179342279309578476', symObjAddr: 0x4BF0, symBinAddr: 0x75100, symSize: 0x30 }
  - { offsetInCU: 0x45395, offset: 0x288533, size: 0x8, addend: 0x0, symName: '__ZN4core3ptr39drop_in_place$LT$proc_macro2..Ident$GT$17ha28fef9769e267d9E.llvm.3179342279309578476', symObjAddr: 0x4C20, symBinAddr: 0x75130, symSize: 0x30 }
  - { offsetInCU: 0x45472, offset: 0x288610, size: 0x8, addend: 0x0, symName: '__ZN4core3ptr40drop_in_place$LT$syn..ty..ReturnType$GT$17h035a612e322b6510E.llvm.3179342279309578476', symObjAddr: 0x4FB0, symBinAddr: 0x75160, symSize: 0x50 }
  - { offsetInCU: 0x455E2, offset: 0x288780, size: 0x8, addend: 0x0, symName: '__ZN4core3ptr41drop_in_place$LT$syn..expr..ExprConst$GT$17hbfe19d5d621e6836E', symObjAddr: 0x5030, symBinAddr: 0x751B0, symSize: 0x180 }
  - { offsetInCU: 0x45BEE, offset: 0x288D8C, size: 0x8, addend: 0x0, symName: '__ZN4core3ptr44drop_in_place$LT$syn..lifetime..Lifetime$GT$17he37fa474f03de7b1E', symObjAddr: 0x58E0, symBinAddr: 0x75330, symSize: 0x30 }
  - { offsetInCU: 0x45D66, offset: 0x288F04, size: 0x8, addend: 0x0, symName: '__ZN4core3ptr44drop_in_place$LT$syn..parse..ParseBuffer$GT$17hf792ff20095efc35E', symObjAddr: 0x5910, symBinAddr: 0x75360, symSize: 0x70 }
  - { offsetInCU: 0x4617D, offset: 0x28931B, size: 0x8, addend: 0x0, symName: '__ZN4core3ptr45drop_in_place$LT$proc_macro2..TokenStream$GT$17h76e8e68015f4924dE.llvm.3179342279309578476', symObjAddr: 0x5980, symBinAddr: 0x753D0, symSize: 0x140 }
  - { offsetInCU: 0x46617, offset: 0x2897B5, size: 0x8, addend: 0x0, symName: '__ZN4core3ptr45drop_in_place$LT$syn..generics..TypeParam$GT$17h188a459c1380ac75E', symObjAddr: 0x5AC0, symBinAddr: 0x75510, symSize: 0x230 }
  - { offsetInCU: 0x46EE9, offset: 0x28A087, size: 0x8, addend: 0x0, symName: '__ZN4core3ptr46drop_in_place$LT$syn..expr..ExprMethodCall$GT$17hcac390ae151688a0E', symObjAddr: 0x5CF0, symBinAddr: 0x75740, symSize: 0x340 }
  - { offsetInCU: 0x47D36, offset: 0x28AED4, size: 0x8, addend: 0x0, symName: '__ZN4core3ptr46drop_in_place$LT$syn..generics..ConstParam$GT$17h7a9b900b2b88bfcdE', symObjAddr: 0x6030, symBinAddr: 0x75A80, symSize: 0x150 }
  - { offsetInCU: 0x48233, offset: 0x28B3D1, size: 0x8, addend: 0x0, symName: '__ZN4core3ptr47drop_in_place$LT$syn..path..GenericArgument$GT$17h593f06d6ca9a94d2E', symObjAddr: 0x61B0, symBinAddr: 0x75BD0, symSize: 0x4A0 }
  - { offsetInCU: 0x49339, offset: 0x28C4D7, size: 0x8, addend: 0x0, symName: '__ZN4core3ptr49drop_in_place$LT$syn..generics..LifetimeParam$GT$17h3a8835ab294bfd16E', symObjAddr: 0x6650, symBinAddr: 0x76070, symSize: 0xF0 }
  - { offsetInCU: 0x49750, offset: 0x28C8EE, size: 0x8, addend: 0x0, symName: '__ZN4core3ptr50drop_in_place$LT$syn..generics..TypeParamBound$GT$17h81b4325b5900604dE', symObjAddr: 0x6740, symBinAddr: 0x76160, symSize: 0x1C0 }
  - { offsetInCU: 0x49CAD, offset: 0x28CE4B, size: 0x8, addend: 0x0, symName: '__ZN4core3ptr58drop_in_place$LT$alloc..vec..Vec$LT$syn..expr..Arm$GT$$GT$17hff9224aadf2233b8E.llvm.3179342279309578476', symObjAddr: 0x6900, symBinAddr: 0x76320, symSize: 0xD0 }
  - { offsetInCU: 0x49F6D, offset: 0x28D10B, size: 0x8, addend: 0x0, symName: '__ZN4core3ptr59drop_in_place$LT$alloc..boxed..Box$LT$syn..pat..Pat$GT$$GT$17h622b0c1db21c0742E.llvm.3179342279309578476', symObjAddr: 0x69D0, symBinAddr: 0x763F0, symSize: 0x50 }
  - { offsetInCU: 0x4A0C6, offset: 0x28D264, size: 0x8, addend: 0x0, symName: '__ZN4core3ptr59drop_in_place$LT$alloc..boxed..Box$LT$syn..ty..Type$GT$$GT$17hde45fa887dd8b605E.llvm.3179342279309578476', symObjAddr: 0x6A20, symBinAddr: 0x76440, symSize: 0x50 }
  - { offsetInCU: 0x4A21F, offset: 0x28D3BD, size: 0x8, addend: 0x0, symName: '__ZN4core3ptr59drop_in_place$LT$alloc..vec..Vec$LT$syn..stmt..Stmt$GT$$GT$17h6cf3e54f41bc03bdE', symObjAddr: 0x6A70, symBinAddr: 0x76490, symSize: 0xD0 }
  - { offsetInCU: 0x4A4DF, offset: 0x28D67D, size: 0x8, addend: 0x0, symName: '__ZN4core3ptr61drop_in_place$LT$alloc..boxed..Box$LT$syn..expr..Expr$GT$$GT$17hbb42293869113942E.llvm.3179342279309578476', symObjAddr: 0x6B40, symBinAddr: 0x76560, symSize: 0x50 }
  - { offsetInCU: 0x4A657, offset: 0x28D7F5, size: 0x8, addend: 0x0, symName: '__ZN4core3ptr61drop_in_place$LT$alloc..vec..Vec$LT$syn..expr..ExprIf$GT$$GT$17h974b97c8babb35d3E', symObjAddr: 0x6B90, symBinAddr: 0x765B0, symSize: 0xD0 }
  - { offsetInCU: 0x4A995, offset: 0x28DB33, size: 0x8, addend: 0x0, symName: '__ZN4core3ptr61drop_in_place$LT$syn..path..ParenthesizedGenericArguments$GT$17h6b1731382637937fE', symObjAddr: 0x6C60, symBinAddr: 0x76680, symSize: 0x170 }
  - { offsetInCU: 0x4AF8B, offset: 0x28E129, size: 0x8, addend: 0x0, symName: '__ZN4core3ptr62drop_in_place$LT$syn..path..AngleBracketedGenericArguments$GT$17hf8fa172f007a1473E', symObjAddr: 0x6DD0, symBinAddr: 0x767F0, symSize: 0x120 }
  - { offsetInCU: 0x4B3D6, offset: 0x28E574, size: 0x8, addend: 0x0, symName: '__ZN4core3ptr63drop_in_place$LT$alloc..boxed..Box$LT$syn..lit..LitRepr$GT$$GT$17h6e3a82ea4de7b84cE', symObjAddr: 0x6EF0, symBinAddr: 0x76910, symSize: 0x60 }
  - { offsetInCU: 0x4B6BE, offset: 0x28E85C, size: 0x8, addend: 0x0, symName: '__ZN4core3ptr64drop_in_place$LT$alloc..boxed..Box$LT$syn..pat..FieldPat$GT$$GT$17hbf8f4867d84bd25dE', symObjAddr: 0x6F50, symBinAddr: 0x76970, symSize: 0x140 }
  - { offsetInCU: 0x4BDBF, offset: 0x28EF5D, size: 0x8, addend: 0x0, symName: '__ZN4core3ptr64drop_in_place$LT$alloc..boxed..Box$LT$syn..ty..BareFnArg$GT$$GT$17h6be6354eb1d1364dE', symObjAddr: 0x7090, symBinAddr: 0x76AB0, symSize: 0x140 }
  - { offsetInCU: 0x4C348, offset: 0x28F4E6, size: 0x8, addend: 0x0, symName: '__ZN4core3ptr64drop_in_place$LT$alloc..vec..Vec$LT$syn..attr..Attribute$GT$$GT$17he33e25539d5885aeE.llvm.3179342279309578476', symObjAddr: 0x71D0, symBinAddr: 0x76BF0, symSize: 0xD0 }
  - { offsetInCU: 0x4C63C, offset: 0x28F7DA, size: 0x8, addend: 0x0, symName: '__ZN4core3ptr65drop_in_place$LT$alloc..vec..Vec$LT$proc_macro..TokenTree$GT$$GT$17h8abd81f8596dbc59E.llvm.3179342279309578476', symObjAddr: 0x72A0, symBinAddr: 0x76CC0, symSize: 0x110 }
  - { offsetInCU: 0x4CA34, offset: 0x28FBD2, size: 0x8, addend: 0x0, symName: '__ZN4core3ptr65drop_in_place$LT$core..option..Option$LT$syn..expr..Label$GT$$GT$17hac599686b33ef364E.llvm.3179342279309578476', symObjAddr: 0x73B0, symBinAddr: 0x76DD0, symSize: 0x30 }
  - { offsetInCU: 0x4CB6E, offset: 0x28FD0C, size: 0x8, addend: 0x0, symName: '__ZN4core3ptr65drop_in_place$LT$core..option..Option$LT$syn..path..QSelf$GT$$GT$17h0b8dd5cda5f2cd6bE.llvm.3179342279309578476', symObjAddr: 0x73E0, symBinAddr: 0x76E00, symSize: 0x50 }
  - { offsetInCU: 0x4CD05, offset: 0x28FEA3, size: 0x8, addend: 0x0, symName: '__ZN4core3ptr66drop_in_place$LT$core..option..Option$LT$syn..pat..PatRest$GT$$GT$17hd5bb3bc28aa78ac1E', symObjAddr: 0x7430, symBinAddr: 0x76E50, symSize: 0xE0 }
  - { offsetInCU: 0x4D02D, offset: 0x2901CB, size: 0x8, addend: 0x0, symName: '__ZN4core3ptr67drop_in_place$LT$alloc..boxed..Box$LT$syn..expr..FieldValue$GT$$GT$17hbbcf67a9d5e9863cE', symObjAddr: 0x7510, symBinAddr: 0x76F30, symSize: 0x140 }
  - { offsetInCU: 0x4D596, offset: 0x290734, size: 0x8, addend: 0x0, symName: '__ZN4core3ptr68drop_in_place$LT$alloc..boxed..Box$LT$syn..path..PathSegment$GT$$GT$17h99aaf90b3262bc1eE', symObjAddr: 0x7650, symBinAddr: 0x77070, symSize: 0x1B0 }
  - { offsetInCU: 0x4DCA4, offset: 0x290E42, size: 0x8, addend: 0x0, symName: '__ZN4core3ptr70drop_in_place$LT$core..option..Option$LT$syn..ty..BareVariadic$GT$$GT$17h79a19250e9f043b1E', symObjAddr: 0x7800, symBinAddr: 0x77220, symSize: 0x100 }
  - { offsetInCU: 0x4E10F, offset: 0x2912AD, size: 0x8, addend: 0x0, symName: '__ZN4core3ptr72drop_in_place$LT$alloc..boxed..Box$LT$syn..path..GenericArgument$GT$$GT$17hfd308d374af4273dE', symObjAddr: 0x7900, symBinAddr: 0x77320, symSize: 0x1D0 }
  - { offsetInCU: 0x4E6AA, offset: 0x291848, size: 0x8, addend: 0x0, symName: '__ZN4core3ptr72drop_in_place$LT$core..option..Option$LT$syn..lifetime..Lifetime$GT$$GT$17h49cce6f02f9c0590E.llvm.3179342279309578476', symObjAddr: 0x7AD0, symBinAddr: 0x774F0, symSize: 0x30 }
  - { offsetInCU: 0x4E7C5, offset: 0x291963, size: 0x8, addend: 0x0, symName: '__ZN4core3ptr73drop_in_place$LT$alloc..boxed..Box$LT$syn..generics..GenericParam$GT$$GT$17ha26d5d145af4b203E', symObjAddr: 0x7B00, symBinAddr: 0x77520, symSize: 0x80 }
  - { offsetInCU: 0x4E93B, offset: 0x291AD9, size: 0x8, addend: 0x0, symName: '__ZN4core3ptr75drop_in_place$LT$alloc..boxed..Box$LT$syn..generics..TypeParamBound$GT$$GT$17h129a4e927e5eb81bE', symObjAddr: 0x7B80, symBinAddr: 0x775A0, symSize: 0xC0 }
  - { offsetInCU: 0x4EC32, offset: 0x291DD0, size: 0x8, addend: 0x0, symName: '__ZN4core3ptr78drop_in_place$LT$core..option..Option$LT$syn..generics..BoundLifetimes$GT$$GT$17hcc2c861c1632285dE.llvm.3179342279309578476', symObjAddr: 0x7C40, symBinAddr: 0x77660, symSize: 0x20 }
  - { offsetInCU: 0x4ECC7, offset: 0x291E65, size: 0x8, addend: 0x0, symName: '__ZN4core3ptr86drop_in_place$LT$syn..punctuated..Punctuated$LT$syn..pat..Pat$C$syn..token..Or$GT$$GT$17h9cc6b5f7b6d3a555E', symObjAddr: 0x7C60, symBinAddr: 0x77680, symSize: 0x120 }
  - { offsetInCU: 0x4F142, offset: 0x2922E0, size: 0x8, addend: 0x0, symName: '__ZN4core3ptr87drop_in_place$LT$core..option..Option$LT$alloc..boxed..Box$LT$syn..pat..Pat$GT$$GT$$GT$17h51cd48973d96c411E', symObjAddr: 0x7D80, symBinAddr: 0x777A0, symSize: 0x50 }
  - { offsetInCU: 0x4F2B2, offset: 0x292450, size: 0x8, addend: 0x0, symName: '__ZN4core3ptr87drop_in_place$LT$core..option..Option$LT$alloc..boxed..Box$LT$syn..ty..Type$GT$$GT$$GT$17h103a25a4a7d7374eE', symObjAddr: 0x7DD0, symBinAddr: 0x777F0, symSize: 0x50 }
  - { offsetInCU: 0x4F422, offset: 0x2925C0, size: 0x8, addend: 0x0, symName: '__ZN4core3ptr88drop_in_place$LT$$LP$syn..token..Else$C$alloc..boxed..Box$LT$syn..expr..Expr$GT$$RP$$GT$17ha4aa82534fb17f55E', symObjAddr: 0x7E20, symBinAddr: 0x77840, symSize: 0x50 }
  - { offsetInCU: 0x4F59A, offset: 0x292738, size: 0x8, addend: 0x0, symName: '__ZN4core3ptr89drop_in_place$LT$core..option..Option$LT$alloc..boxed..Box$LT$syn..expr..Expr$GT$$GT$$GT$17h9e02509cb2345d44E.llvm.3179342279309578476', symObjAddr: 0x7E70, symBinAddr: 0x77890, symSize: 0x50 }
  - { offsetInCU: 0x4F748, offset: 0x2928E6, size: 0x8, addend: 0x0, symName: '__ZN4core3ptr89drop_in_place$LT$syn..punctuated..Punctuated$LT$syn..pat..Pat$C$syn..token..Comma$GT$$GT$17hd3a83c36827f210aE.llvm.3179342279309578476', symObjAddr: 0x7EC0, symBinAddr: 0x778E0, symSize: 0x120 }
  - { offsetInCU: 0x4FBDA, offset: 0x292D78, size: 0x8, addend: 0x0, symName: '__ZN4core3ptr89drop_in_place$LT$syn..punctuated..Punctuated$LT$syn..ty..Type$C$syn..token..Comma$GT$$GT$17he030c4b7f24a5848E', symObjAddr: 0x7FE0, symBinAddr: 0x77A00, symSize: 0x120 }
  - { offsetInCU: 0x50055, offset: 0x2931F3, size: 0x8, addend: 0x0, symName: '__ZN4core3ptr90drop_in_place$LT$core..option..Option$LT$syn..path..AngleBracketedGenericArguments$GT$$GT$17ha307713a95a0671eE.llvm.3179342279309578476', symObjAddr: 0x8100, symBinAddr: 0x77B20, symSize: 0x130 }
  - { offsetInCU: 0x504B9, offset: 0x293657, size: 0x8, addend: 0x0, symName: '__ZN4core3ptr91drop_in_place$LT$syn..punctuated..Punctuated$LT$syn..expr..Expr$C$syn..token..Comma$GT$$GT$17h6f261e8f470c81f2E.llvm.3179342279309578476', symObjAddr: 0x8230, symBinAddr: 0x77C50, symSize: 0x120 }
  - { offsetInCU: 0x50934, offset: 0x293AD2, size: 0x8, addend: 0x0, symName: '__ZN4core3ptr94drop_in_place$LT$syn..punctuated..Punctuated$LT$syn..pat..FieldPat$C$syn..token..Comma$GT$$GT$17h43ec25af986ef674E', symObjAddr: 0x8350, symBinAddr: 0x77D70, symSize: 0xF0 }
  - { offsetInCU: 0x50C33, offset: 0x293DD1, size: 0x8, addend: 0x0, symName: '__ZN4core3ptr94drop_in_place$LT$syn..punctuated..Punctuated$LT$syn..ty..BareFnArg$C$syn..token..Comma$GT$$GT$17h7ba4c699ee390ebaE', symObjAddr: 0x8440, symBinAddr: 0x77E60, symSize: 0xF0 }
  - { offsetInCU: 0x50F34, offset: 0x2940D2, size: 0x8, addend: 0x0, symName: '__ZN4core3ptr95drop_in_place$LT$core..option..Option$LT$$LP$proc_macro2..Ident$C$syn..token..Colon$RP$$GT$$GT$17h59fe297999aa3329E', symObjAddr: 0x8530, symBinAddr: 0x77F50, symSize: 0x30 }
  - { offsetInCU: 0x5104F, offset: 0x2941ED, size: 0x8, addend: 0x0, symName: '__ZN4core3ptr96drop_in_place$LT$core..option..Option$LT$alloc..boxed..Box$LT$syn..path..PathSegment$GT$$GT$$GT$17h5de12a5a0f9e9ef9E', symObjAddr: 0x8560, symBinAddr: 0x77F80, symSize: 0xA0 }
  - { offsetInCU: 0x512CE, offset: 0x29446C, size: 0x8, addend: 0x0, symName: '__ZN4core3ptr97drop_in_place$LT$syn..punctuated..Punctuated$LT$syn..expr..FieldValue$C$syn..token..Comma$GT$$GT$17hf58d0a9a09266ab3E.llvm.3179342279309578476', symObjAddr: 0x8600, symBinAddr: 0x78020, symSize: 0xF0 }
  - { offsetInCU: 0x51647, offset: 0x2947E5, size: 0x8, addend: 0x0, symName: '__ZN4core3ptr98drop_in_place$LT$syn..punctuated..Punctuated$LT$syn..lifetime..Lifetime$C$syn..token..Plus$GT$$GT$17h600c2b78f78fd2b9E', symObjAddr: 0x86F0, symBinAddr: 0x78110, symSize: 0xD0 }
  - { offsetInCU: 0x53B7B, offset: 0x296D19, size: 0x8, addend: 0x0, symName: '__ZN66_$LT$core..option..Option$LT$T$GT$$u20$as$u20$core..fmt..Debug$GT$3fmt17h04cdf44a1722b195E.llvm.3179342279309578476', symObjAddr: 0x88B0, symBinAddr: 0x78220, symSize: 0x60 }
  - { offsetInCU: 0x53BE1, offset: 0x296D7F, size: 0x8, addend: 0x0, symName: '__ZN66_$LT$core..option..Option$LT$T$GT$$u20$as$u20$core..fmt..Debug$GT$3fmt17h13a5298de0d8de7cE.llvm.3179342279309578476', symObjAddr: 0x8910, symBinAddr: 0x78280, symSize: 0x50 }
  - { offsetInCU: 0x53C47, offset: 0x296DE5, size: 0x8, addend: 0x0, symName: '__ZN66_$LT$core..option..Option$LT$T$GT$$u20$as$u20$core..fmt..Debug$GT$3fmt17h200330ddec3c07f8E.llvm.3179342279309578476', symObjAddr: 0x8960, symBinAddr: 0x782D0, symSize: 0x50 }
  - { offsetInCU: 0x53CAD, offset: 0x296E4B, size: 0x8, addend: 0x0, symName: '__ZN66_$LT$core..option..Option$LT$T$GT$$u20$as$u20$core..fmt..Debug$GT$3fmt17h23176864c8b101b1E.llvm.3179342279309578476', symObjAddr: 0x89B0, symBinAddr: 0x78320, symSize: 0x60 }
  - { offsetInCU: 0x53D13, offset: 0x296EB1, size: 0x8, addend: 0x0, symName: '__ZN66_$LT$core..option..Option$LT$T$GT$$u20$as$u20$core..fmt..Debug$GT$3fmt17h23a526921c844048E.llvm.3179342279309578476', symObjAddr: 0x8A10, symBinAddr: 0x78380, symSize: 0x60 }
  - { offsetInCU: 0x53D79, offset: 0x296F17, size: 0x8, addend: 0x0, symName: '__ZN66_$LT$core..option..Option$LT$T$GT$$u20$as$u20$core..fmt..Debug$GT$3fmt17h271adc8902619c7cE.llvm.3179342279309578476', symObjAddr: 0x8A70, symBinAddr: 0x783E0, symSize: 0x60 }
  - { offsetInCU: 0x53DDF, offset: 0x296F7D, size: 0x8, addend: 0x0, symName: '__ZN66_$LT$core..option..Option$LT$T$GT$$u20$as$u20$core..fmt..Debug$GT$3fmt17h469430087ecec644E.llvm.3179342279309578476', symObjAddr: 0x8AD0, symBinAddr: 0x78440, symSize: 0x50 }
  - { offsetInCU: 0x53E45, offset: 0x296FE3, size: 0x8, addend: 0x0, symName: '__ZN66_$LT$core..option..Option$LT$T$GT$$u20$as$u20$core..fmt..Debug$GT$3fmt17h55f5988edbdf8edcE.llvm.3179342279309578476', symObjAddr: 0x8B20, symBinAddr: 0x78490, symSize: 0x50 }
  - { offsetInCU: 0x53EAB, offset: 0x297049, size: 0x8, addend: 0x0, symName: '__ZN66_$LT$core..option..Option$LT$T$GT$$u20$as$u20$core..fmt..Debug$GT$3fmt17h8cffe639c8ff1980E', symObjAddr: 0x8B70, symBinAddr: 0x784E0, symSize: 0x50 }
  - { offsetInCU: 0x53F11, offset: 0x2970AF, size: 0x8, addend: 0x0, symName: '__ZN66_$LT$core..option..Option$LT$T$GT$$u20$as$u20$core..fmt..Debug$GT$3fmt17h90598f4ce81c56a1E.llvm.3179342279309578476', symObjAddr: 0x8BC0, symBinAddr: 0x78530, symSize: 0x50 }
  - { offsetInCU: 0x53F77, offset: 0x297115, size: 0x8, addend: 0x0, symName: '__ZN66_$LT$core..option..Option$LT$T$GT$$u20$as$u20$core..fmt..Debug$GT$3fmt17hb1ad12f8169eaa9eE.llvm.3179342279309578476', symObjAddr: 0x8C10, symBinAddr: 0x78580, symSize: 0x50 }
  - { offsetInCU: 0x53FDD, offset: 0x29717B, size: 0x8, addend: 0x0, symName: '__ZN66_$LT$core..option..Option$LT$T$GT$$u20$as$u20$core..fmt..Debug$GT$3fmt17hc4565ff8152e74ddE', symObjAddr: 0x8C60, symBinAddr: 0x785D0, symSize: 0x60 }
  - { offsetInCU: 0x54043, offset: 0x2971E1, size: 0x8, addend: 0x0, symName: '__ZN66_$LT$core..option..Option$LT$T$GT$$u20$as$u20$core..fmt..Debug$GT$3fmt17hc679ed963eefad6cE.llvm.3179342279309578476', symObjAddr: 0x8CC0, symBinAddr: 0x78630, symSize: 0x60 }
  - { offsetInCU: 0x540A9, offset: 0x297247, size: 0x8, addend: 0x0, symName: '__ZN66_$LT$core..option..Option$LT$T$GT$$u20$as$u20$core..fmt..Debug$GT$3fmt17hd97ab819e391d0b4E.llvm.3179342279309578476', symObjAddr: 0x8D20, symBinAddr: 0x78690, symSize: 0x50 }
  - { offsetInCU: 0x5410F, offset: 0x2972AD, size: 0x8, addend: 0x0, symName: '__ZN66_$LT$core..option..Option$LT$T$GT$$u20$as$u20$core..fmt..Debug$GT$3fmt17hdf4568a624685b8eE.llvm.3179342279309578476', symObjAddr: 0x8D70, symBinAddr: 0x786E0, symSize: 0x60 }
  - { offsetInCU: 0x54175, offset: 0x297313, size: 0x8, addend: 0x0, symName: '__ZN66_$LT$core..option..Option$LT$T$GT$$u20$as$u20$core..fmt..Debug$GT$3fmt17he5c6d035a7e6347eE.llvm.3179342279309578476', symObjAddr: 0x8DD0, symBinAddr: 0x78740, symSize: 0x60 }
  - { offsetInCU: 0x550D4, offset: 0x298272, size: 0x8, addend: 0x0, symName: '__ZN42_$LT$$RF$T$u20$as$u20$core..fmt..Debug$GT$3fmt17h22704bd9d9420e95E', symObjAddr: 0x0, symBinAddr: 0x70610, symSize: 0x10 }
  - { offsetInCU: 0x5511A, offset: 0x2982B8, size: 0x8, addend: 0x0, symName: '__ZN42_$LT$$RF$T$u20$as$u20$core..fmt..Debug$GT$3fmt17h723b77224bb7bdc5E', symObjAddr: 0x10, symBinAddr: 0x70620, symSize: 0x10 }
  - { offsetInCU: 0x55160, offset: 0x2982FE, size: 0x8, addend: 0x0, symName: '__ZN42_$LT$$RF$T$u20$as$u20$core..fmt..Debug$GT$3fmt17hf4f9a6c03daabda3E', symObjAddr: 0x20, symBinAddr: 0x70630, symSize: 0x80 }
  - { offsetInCU: 0x552CC, offset: 0x29846A, size: 0x8, addend: 0x0, symName: '__ZN4core3fmt3num50_$LT$impl$u20$core..fmt..Debug$u20$for$u20$u32$GT$3fmt17h9b07e82d325fa811E', symObjAddr: 0x1A0, symBinAddr: 0x706B0, symSize: 0x30 }
  - { offsetInCU: 0x59394, offset: 0x29C532, size: 0x8, addend: 0x0, symName: '__ZN73_$LT$$u5b$A$u5d$$u20$as$u20$core..slice..cmp..SlicePartialEq$LT$B$GT$$GT$5equal17h7c7a525e13c35044E', symObjAddr: 0x8EC0, symBinAddr: 0x78830, symSize: 0x160 }
  - { offsetInCU: 0x59AA9, offset: 0x29CC47, size: 0x8, addend: 0x0, symName: __ZN5alloc5alloc15exchange_malloc17h9a87608d0224859dE, symObjAddr: 0x87E0, symBinAddr: 0x781E0, symSize: 0x40 }
  - { offsetInCU: 0x5BB98, offset: 0x29ED36, size: 0x8, addend: 0x0, symName: '__ZN69_$LT$alloc..boxed..Box$LT$T$C$A$GT$$u20$as$u20$core..clone..Clone$GT$5clone17h4fb5c51762622d36E', symObjAddr: 0x8E30, symBinAddr: 0x787A0, symSize: 0x90 }
  - { offsetInCU: 0x5CCB2, offset: 0x29FE50, size: 0x8, addend: 0x0, symName: _anon.274812f888e021c8bd305ab4cf6cfb10.41.llvm.3179342279309578476, symObjAddr: 0x24AF8, symBinAddr: 0x261A70, symSize: 0x0 }
  - { offsetInCU: 0x5CCFD, offset: 0x29FE9B, size: 0x8, addend: 0x0, symName: _anon.274812f888e021c8bd305ab4cf6cfb10.49.llvm.3179342279309578476, symObjAddr: 0x24B78, symBinAddr: 0x261AF0, symSize: 0x0 }
  - { offsetInCU: 0x5CD48, offset: 0x29FEE6, size: 0x8, addend: 0x0, symName: _anon.274812f888e021c8bd305ab4cf6cfb10.91.llvm.3179342279309578476, symObjAddr: 0x24BB8, symBinAddr: 0x261B30, symSize: 0x0 }
  - { offsetInCU: 0x5CD93, offset: 0x29FF31, size: 0x8, addend: 0x0, symName: _anon.274812f888e021c8bd305ab4cf6cfb10.95.llvm.3179342279309578476, symObjAddr: 0x24BD8, symBinAddr: 0x261B50, symSize: 0x0 }
  - { offsetInCU: 0x5CDDE, offset: 0x29FF7C, size: 0x8, addend: 0x0, symName: _anon.274812f888e021c8bd305ab4cf6cfb10.97.llvm.3179342279309578476, symObjAddr: 0x24BF8, symBinAddr: 0x261B70, symSize: 0x0 }
  - { offsetInCU: 0x5CE29, offset: 0x29FFC7, size: 0x8, addend: 0x0, symName: _anon.274812f888e021c8bd305ab4cf6cfb10.101.llvm.3179342279309578476, symObjAddr: 0x24C18, symBinAddr: 0x261B90, symSize: 0x0 }
  - { offsetInCU: 0x5CE74, offset: 0x2A0012, size: 0x8, addend: 0x0, symName: _anon.274812f888e021c8bd305ab4cf6cfb10.105.llvm.3179342279309578476, symObjAddr: 0x24C38, symBinAddr: 0x261BB0, symSize: 0x0 }
  - { offsetInCU: 0x5CEBF, offset: 0x2A005D, size: 0x8, addend: 0x0, symName: _anon.274812f888e021c8bd305ab4cf6cfb10.107.llvm.3179342279309578476, symObjAddr: 0x24C58, symBinAddr: 0x261BD0, symSize: 0x0 }
  - { offsetInCU: 0x5CF0A, offset: 0x2A00A8, size: 0x8, addend: 0x0, symName: _anon.274812f888e021c8bd305ab4cf6cfb10.109.llvm.3179342279309578476, symObjAddr: 0x24C78, symBinAddr: 0x261BF0, symSize: 0x0 }
  - { offsetInCU: 0x5CF55, offset: 0x2A00F3, size: 0x8, addend: 0x0, symName: _anon.274812f888e021c8bd305ab4cf6cfb10.113.llvm.3179342279309578476, symObjAddr: 0x24C98, symBinAddr: 0x261C10, symSize: 0x0 }
  - { offsetInCU: 0x5CFA0, offset: 0x2A013E, size: 0x8, addend: 0x0, symName: _anon.274812f888e021c8bd305ab4cf6cfb10.115.llvm.3179342279309578476, symObjAddr: 0x24CB8, symBinAddr: 0x261C30, symSize: 0x0 }
  - { offsetInCU: 0x5CFEB, offset: 0x2A0189, size: 0x8, addend: 0x0, symName: _anon.274812f888e021c8bd305ab4cf6cfb10.118.llvm.3179342279309578476, symObjAddr: 0x24CD8, symBinAddr: 0x261C50, symSize: 0x0 }
  - { offsetInCU: 0x5D036, offset: 0x2A01D4, size: 0x8, addend: 0x0, symName: _anon.274812f888e021c8bd305ab4cf6cfb10.121.llvm.3179342279309578476, symObjAddr: 0x24CF8, symBinAddr: 0x261C70, symSize: 0x0 }
  - { offsetInCU: 0x5D081, offset: 0x2A021F, size: 0x8, addend: 0x0, symName: _anon.274812f888e021c8bd305ab4cf6cfb10.124.llvm.3179342279309578476, symObjAddr: 0x24D18, symBinAddr: 0x261C90, symSize: 0x0 }
  - { offsetInCU: 0x5D0CC, offset: 0x2A026A, size: 0x8, addend: 0x0, symName: _anon.274812f888e021c8bd305ab4cf6cfb10.126.llvm.3179342279309578476, symObjAddr: 0x24D38, symBinAddr: 0x261CB0, symSize: 0x0 }
  - { offsetInCU: 0x5D117, offset: 0x2A02B5, size: 0x8, addend: 0x0, symName: _anon.274812f888e021c8bd305ab4cf6cfb10.127.llvm.3179342279309578476, symObjAddr: 0x24D58, symBinAddr: 0x261CD0, symSize: 0x0 }
  - { offsetInCU: 0x5D162, offset: 0x2A0300, size: 0x8, addend: 0x0, symName: _anon.274812f888e021c8bd305ab4cf6cfb10.131.llvm.3179342279309578476, symObjAddr: 0x24D78, symBinAddr: 0x261CF0, symSize: 0x0 }
  - { offsetInCU: 0x5D1AD, offset: 0x2A034B, size: 0x8, addend: 0x0, symName: _anon.274812f888e021c8bd305ab4cf6cfb10.135.llvm.3179342279309578476, symObjAddr: 0x24D98, symBinAddr: 0x261D10, symSize: 0x0 }
  - { offsetInCU: 0x5D1F8, offset: 0x2A0396, size: 0x8, addend: 0x0, symName: _anon.274812f888e021c8bd305ab4cf6cfb10.137.llvm.3179342279309578476, symObjAddr: 0x24DB8, symBinAddr: 0x261D30, symSize: 0x0 }
  - { offsetInCU: 0x5D243, offset: 0x2A03E1, size: 0x8, addend: 0x0, symName: _anon.274812f888e021c8bd305ab4cf6cfb10.140.llvm.3179342279309578476, symObjAddr: 0x24DD8, symBinAddr: 0x261D50, symSize: 0x0 }
  - { offsetInCU: 0x5D28E, offset: 0x2A042C, size: 0x8, addend: 0x0, symName: _anon.274812f888e021c8bd305ab4cf6cfb10.142.llvm.3179342279309578476, symObjAddr: 0x24DF8, symBinAddr: 0x261D70, symSize: 0x0 }
  - { offsetInCU: 0x5D2D9, offset: 0x2A0477, size: 0x8, addend: 0x0, symName: _anon.274812f888e021c8bd305ab4cf6cfb10.144.llvm.3179342279309578476, symObjAddr: 0x24E18, symBinAddr: 0x261D90, symSize: 0x0 }
  - { offsetInCU: 0x5D324, offset: 0x2A04C2, size: 0x8, addend: 0x0, symName: _anon.274812f888e021c8bd305ab4cf6cfb10.146.llvm.3179342279309578476, symObjAddr: 0x24E38, symBinAddr: 0x261DB0, symSize: 0x0 }
  - { offsetInCU: 0x5D36F, offset: 0x2A050D, size: 0x8, addend: 0x0, symName: _anon.274812f888e021c8bd305ab4cf6cfb10.148.llvm.3179342279309578476, symObjAddr: 0x24E58, symBinAddr: 0x261DD0, symSize: 0x0 }
  - { offsetInCU: 0x5D3BA, offset: 0x2A0558, size: 0x8, addend: 0x0, symName: _anon.274812f888e021c8bd305ab4cf6cfb10.150.llvm.3179342279309578476, symObjAddr: 0x24E78, symBinAddr: 0x261DF0, symSize: 0x0 }
  - { offsetInCU: 0x5D405, offset: 0x2A05A3, size: 0x8, addend: 0x0, symName: _anon.274812f888e021c8bd305ab4cf6cfb10.153.llvm.3179342279309578476, symObjAddr: 0x24E98, symBinAddr: 0x261E10, symSize: 0x0 }
  - { offsetInCU: 0x5D450, offset: 0x2A05EE, size: 0x8, addend: 0x0, symName: _anon.274812f888e021c8bd305ab4cf6cfb10.156.llvm.3179342279309578476, symObjAddr: 0x24EB8, symBinAddr: 0x261E30, symSize: 0x0 }
  - { offsetInCU: 0x5D49B, offset: 0x2A0639, size: 0x8, addend: 0x0, symName: _anon.274812f888e021c8bd305ab4cf6cfb10.159.llvm.3179342279309578476, symObjAddr: 0x24ED8, symBinAddr: 0x261E50, symSize: 0x0 }
  - { offsetInCU: 0x5D4E6, offset: 0x2A0684, size: 0x8, addend: 0x0, symName: _anon.274812f888e021c8bd305ab4cf6cfb10.162.llvm.3179342279309578476, symObjAddr: 0x24EF8, symBinAddr: 0x261E70, symSize: 0x0 }
  - { offsetInCU: 0x5D531, offset: 0x2A06CF, size: 0x8, addend: 0x0, symName: _anon.274812f888e021c8bd305ab4cf6cfb10.165.llvm.3179342279309578476, symObjAddr: 0x24F18, symBinAddr: 0x261E90, symSize: 0x0 }
  - { offsetInCU: 0x5D57C, offset: 0x2A071A, size: 0x8, addend: 0x0, symName: _anon.274812f888e021c8bd305ab4cf6cfb10.167.llvm.3179342279309578476, symObjAddr: 0x24F38, symBinAddr: 0x261EB0, symSize: 0x0 }
  - { offsetInCU: 0x5D5C7, offset: 0x2A0765, size: 0x8, addend: 0x0, symName: _anon.274812f888e021c8bd305ab4cf6cfb10.168.llvm.3179342279309578476, symObjAddr: 0x24F58, symBinAddr: 0x261ED0, symSize: 0x0 }
  - { offsetInCU: 0x5D612, offset: 0x2A07B0, size: 0x8, addend: 0x0, symName: _anon.274812f888e021c8bd305ab4cf6cfb10.171.llvm.3179342279309578476, symObjAddr: 0x24F78, symBinAddr: 0x261EF0, symSize: 0x0 }
  - { offsetInCU: 0x5D65D, offset: 0x2A07FB, size: 0x8, addend: 0x0, symName: _anon.274812f888e021c8bd305ab4cf6cfb10.174.llvm.3179342279309578476, symObjAddr: 0x24F98, symBinAddr: 0x261F10, symSize: 0x0 }
  - { offsetInCU: 0x5D6A8, offset: 0x2A0846, size: 0x8, addend: 0x0, symName: _anon.274812f888e021c8bd305ab4cf6cfb10.178.llvm.3179342279309578476, symObjAddr: 0x24FB8, symBinAddr: 0x261F30, symSize: 0x0 }
  - { offsetInCU: 0x5D6F3, offset: 0x2A0891, size: 0x8, addend: 0x0, symName: _anon.274812f888e021c8bd305ab4cf6cfb10.183.llvm.3179342279309578476, symObjAddr: 0x24FD8, symBinAddr: 0x261F50, symSize: 0x0 }
  - { offsetInCU: 0x5D73E, offset: 0x2A08DC, size: 0x8, addend: 0x0, symName: _anon.274812f888e021c8bd305ab4cf6cfb10.186.llvm.3179342279309578476, symObjAddr: 0x24FF8, symBinAddr: 0x261F70, symSize: 0x0 }
  - { offsetInCU: 0x5D789, offset: 0x2A0927, size: 0x8, addend: 0x0, symName: _anon.274812f888e021c8bd305ab4cf6cfb10.189.llvm.3179342279309578476, symObjAddr: 0x25018, symBinAddr: 0x261F90, symSize: 0x0 }
  - { offsetInCU: 0x5D7D4, offset: 0x2A0972, size: 0x8, addend: 0x0, symName: _anon.274812f888e021c8bd305ab4cf6cfb10.192.llvm.3179342279309578476, symObjAddr: 0x25038, symBinAddr: 0x261FB0, symSize: 0x0 }
  - { offsetInCU: 0x5D81F, offset: 0x2A09BD, size: 0x8, addend: 0x0, symName: _anon.274812f888e021c8bd305ab4cf6cfb10.195.llvm.3179342279309578476, symObjAddr: 0x25058, symBinAddr: 0x261FD0, symSize: 0x0 }
  - { offsetInCU: 0x5D86A, offset: 0x2A0A08, size: 0x8, addend: 0x0, symName: _anon.274812f888e021c8bd305ab4cf6cfb10.198.llvm.3179342279309578476, symObjAddr: 0x25078, symBinAddr: 0x261FF0, symSize: 0x0 }
  - { offsetInCU: 0x5D8B5, offset: 0x2A0A53, size: 0x8, addend: 0x0, symName: _anon.274812f888e021c8bd305ab4cf6cfb10.200.llvm.3179342279309578476, symObjAddr: 0x25098, symBinAddr: 0x262010, symSize: 0x0 }
  - { offsetInCU: 0x5D900, offset: 0x2A0A9E, size: 0x8, addend: 0x0, symName: _anon.274812f888e021c8bd305ab4cf6cfb10.202.llvm.3179342279309578476, symObjAddr: 0x250B8, symBinAddr: 0x262030, symSize: 0x0 }
  - { offsetInCU: 0x5D94B, offset: 0x2A0AE9, size: 0x8, addend: 0x0, symName: _anon.274812f888e021c8bd305ab4cf6cfb10.206.llvm.3179342279309578476, symObjAddr: 0x250D8, symBinAddr: 0x262050, symSize: 0x0 }
  - { offsetInCU: 0x5D996, offset: 0x2A0B34, size: 0x8, addend: 0x0, symName: _anon.274812f888e021c8bd305ab4cf6cfb10.208.llvm.3179342279309578476, symObjAddr: 0x250F8, symBinAddr: 0x262070, symSize: 0x0 }
  - { offsetInCU: 0x5D9E1, offset: 0x2A0B7F, size: 0x8, addend: 0x0, symName: _anon.274812f888e021c8bd305ab4cf6cfb10.212.llvm.3179342279309578476, symObjAddr: 0x25118, symBinAddr: 0x262090, symSize: 0x0 }
  - { offsetInCU: 0x5DA2C, offset: 0x2A0BCA, size: 0x8, addend: 0x0, symName: _anon.274812f888e021c8bd305ab4cf6cfb10.214.llvm.3179342279309578476, symObjAddr: 0x25138, symBinAddr: 0x2620B0, symSize: 0x0 }
  - { offsetInCU: 0x5DA77, offset: 0x2A0C15, size: 0x8, addend: 0x0, symName: _anon.274812f888e021c8bd305ab4cf6cfb10.218.llvm.3179342279309578476, symObjAddr: 0x25158, symBinAddr: 0x2620D0, symSize: 0x0 }
  - { offsetInCU: 0x5DAC2, offset: 0x2A0C60, size: 0x8, addend: 0x0, symName: _anon.274812f888e021c8bd305ab4cf6cfb10.222.llvm.3179342279309578476, symObjAddr: 0x25178, symBinAddr: 0x2620F0, symSize: 0x0 }
  - { offsetInCU: 0x5DB0D, offset: 0x2A0CAB, size: 0x8, addend: 0x0, symName: _anon.274812f888e021c8bd305ab4cf6cfb10.224.llvm.3179342279309578476, symObjAddr: 0x25198, symBinAddr: 0x262110, symSize: 0x0 }
  - { offsetInCU: 0x5DB58, offset: 0x2A0CF6, size: 0x8, addend: 0x0, symName: _anon.274812f888e021c8bd305ab4cf6cfb10.227.llvm.3179342279309578476, symObjAddr: 0x251B8, symBinAddr: 0x262130, symSize: 0x0 }
  - { offsetInCU: 0x5DBA3, offset: 0x2A0D41, size: 0x8, addend: 0x0, symName: _anon.274812f888e021c8bd305ab4cf6cfb10.231.llvm.3179342279309578476, symObjAddr: 0x251D8, symBinAddr: 0x262150, symSize: 0x0 }
  - { offsetInCU: 0x5DBEE, offset: 0x2A0D8C, size: 0x8, addend: 0x0, symName: _anon.274812f888e021c8bd305ab4cf6cfb10.234.llvm.3179342279309578476, symObjAddr: 0x251F8, symBinAddr: 0x262170, symSize: 0x0 }
  - { offsetInCU: 0x5DC39, offset: 0x2A0DD7, size: 0x8, addend: 0x0, symName: _anon.274812f888e021c8bd305ab4cf6cfb10.236.llvm.3179342279309578476, symObjAddr: 0x25218, symBinAddr: 0x262190, symSize: 0x0 }
  - { offsetInCU: 0x5DC84, offset: 0x2A0E22, size: 0x8, addend: 0x0, symName: _anon.274812f888e021c8bd305ab4cf6cfb10.240.llvm.3179342279309578476, symObjAddr: 0x25238, symBinAddr: 0x2621B0, symSize: 0x0 }
  - { offsetInCU: 0x5DCCF, offset: 0x2A0E6D, size: 0x8, addend: 0x0, symName: _anon.274812f888e021c8bd305ab4cf6cfb10.243.llvm.3179342279309578476, symObjAddr: 0x25258, symBinAddr: 0x2621D0, symSize: 0x0 }
  - { offsetInCU: 0x5DD1A, offset: 0x2A0EB8, size: 0x8, addend: 0x0, symName: _anon.274812f888e021c8bd305ab4cf6cfb10.247.llvm.3179342279309578476, symObjAddr: 0x25278, symBinAddr: 0x2621F0, symSize: 0x0 }
  - { offsetInCU: 0x5DD65, offset: 0x2A0F03, size: 0x8, addend: 0x0, symName: _anon.274812f888e021c8bd305ab4cf6cfb10.249.llvm.3179342279309578476, symObjAddr: 0x25298, symBinAddr: 0x262210, symSize: 0x0 }
  - { offsetInCU: 0x5DDB0, offset: 0x2A0F4E, size: 0x8, addend: 0x0, symName: _anon.274812f888e021c8bd305ab4cf6cfb10.252.llvm.3179342279309578476, symObjAddr: 0x252B8, symBinAddr: 0x262230, symSize: 0x0 }
  - { offsetInCU: 0x5DDFB, offset: 0x2A0F99, size: 0x8, addend: 0x0, symName: _anon.274812f888e021c8bd305ab4cf6cfb10.255.llvm.3179342279309578476, symObjAddr: 0x252D8, symBinAddr: 0x262250, symSize: 0x0 }
  - { offsetInCU: 0x5DE46, offset: 0x2A0FE4, size: 0x8, addend: 0x0, symName: _anon.274812f888e021c8bd305ab4cf6cfb10.258.llvm.3179342279309578476, symObjAddr: 0x252F8, symBinAddr: 0x262270, symSize: 0x0 }
  - { offsetInCU: 0x5DE91, offset: 0x2A102F, size: 0x8, addend: 0x0, symName: _anon.274812f888e021c8bd305ab4cf6cfb10.260.llvm.3179342279309578476, symObjAddr: 0x25318, symBinAddr: 0x262290, symSize: 0x0 }
  - { offsetInCU: 0x5F1BF, offset: 0x2A235D, size: 0x8, addend: 0x0, symName: __ZN3syn4expr4Expr13replace_attrs17h81659526e8109ac8E, symObjAddr: 0x9180, symBinAddr: 0x78990, symSize: 0x110 }
  - { offsetInCU: 0x60491, offset: 0x2A362F, size: 0x8, addend: 0x0, symName: '__ZN3syn4expr7parsing40_$LT$impl$u20$syn..expr..RangeLimits$GT$14parse_obsolete17he8a69cc7d9cd98eeE', symObjAddr: 0xF9D0, symBinAddr: 0x7E3B0, symSize: 0x3A0 }
  - { offsetInCU: 0x621C4, offset: 0x2A5362, size: 0x8, addend: 0x0, symName: '__ZN3syn3gen5debug38_$LT$impl$u20$syn..expr..ExprArray$GT$5debug17h6d5efa13339fef8bE.llvm.3179342279309578476', symObjAddr: 0x1CE10, symBinAddr: 0x87170, symSize: 0x90 }
  - { offsetInCU: 0x62243, offset: 0x2A53E1, size: 0x8, addend: 0x0, symName: '__ZN3syn3gen5debug39_$LT$impl$u20$syn..expr..ExprAssign$GT$5debug17h74a0506d2bd2cae2E.llvm.3179342279309578476', symObjAddr: 0x1CF60, symBinAddr: 0x87200, symSize: 0xB0 }
  - { offsetInCU: 0x622C2, offset: 0x2A5460, size: 0x8, addend: 0x0, symName: '__ZN3syn3gen5debug38_$LT$impl$u20$syn..expr..ExprAsync$GT$5debug17h79bb1a8cfeb6ca58E.llvm.3179342279309578476', symObjAddr: 0x1D0D0, symBinAddr: 0x872B0, symSize: 0xB0 }
  - { offsetInCU: 0x62341, offset: 0x2A54DF, size: 0x8, addend: 0x0, symName: '__ZN3syn3gen5debug38_$LT$impl$u20$syn..expr..ExprAwait$GT$5debug17h74eabeaea83d2df0E.llvm.3179342279309578476', symObjAddr: 0x1D240, symBinAddr: 0x87360, symSize: 0xB0 }
  - { offsetInCU: 0x623C0, offset: 0x2A555E, size: 0x8, addend: 0x0, symName: '__ZN3syn3gen5debug39_$LT$impl$u20$syn..expr..ExprBinary$GT$5debug17haf3a4a99381b41c4E.llvm.3179342279309578476', symObjAddr: 0x1D3B0, symBinAddr: 0x87410, symSize: 0xB0 }
  - { offsetInCU: 0x6243F, offset: 0x2A55DD, size: 0x8, addend: 0x0, symName: '__ZN3syn3gen5debug38_$LT$impl$u20$syn..expr..ExprBlock$GT$5debug17h5ad5c9bb49e9cbebE.llvm.3179342279309578476', symObjAddr: 0x1D500, symBinAddr: 0x874C0, symSize: 0x90 }
  - { offsetInCU: 0x624BE, offset: 0x2A565C, size: 0x8, addend: 0x0, symName: '__ZN3syn3gen5debug38_$LT$impl$u20$syn..expr..ExprBreak$GT$5debug17h53edf4c429bcff72E.llvm.3179342279309578476', symObjAddr: 0x1D650, symBinAddr: 0x87550, symSize: 0xB0 }
  - { offsetInCU: 0x6253D, offset: 0x2A56DB, size: 0x8, addend: 0x0, symName: '__ZN3syn3gen5debug37_$LT$impl$u20$syn..expr..ExprCall$GT$5debug17h439097010ad3712dE.llvm.3179342279309578476', symObjAddr: 0x1D7C0, symBinAddr: 0x87600, symSize: 0xB0 }
  - { offsetInCU: 0x625BC, offset: 0x2A575A, size: 0x8, addend: 0x0, symName: '__ZN3syn3gen5debug37_$LT$impl$u20$syn..expr..ExprCast$GT$5debug17h07fa54ed8569c2ccE.llvm.3179342279309578476', symObjAddr: 0x1D930, symBinAddr: 0x876B0, symSize: 0xB0 }
  - { offsetInCU: 0x6260F, offset: 0x2A57AD, size: 0x8, addend: 0x0, symName: '__ZN3syn3gen5debug40_$LT$impl$u20$syn..expr..ExprClosure$GT$5debug17h49560f335ef720a1E.llvm.3179342279309578476', symObjAddr: 0x1DA00, symBinAddr: 0x87760, symSize: 0x1A0 }
  - { offsetInCU: 0x626AB, offset: 0x2A5849, size: 0x8, addend: 0x0, symName: '__ZN3syn3gen5debug38_$LT$impl$u20$syn..expr..ExprConst$GT$5debug17h7cd844e6de67123eE', symObjAddr: 0x1DC40, symBinAddr: 0x87900, symSize: 0x90 }
  - { offsetInCU: 0x6272A, offset: 0x2A58C8, size: 0x8, addend: 0x0, symName: '__ZN3syn3gen5debug41_$LT$impl$u20$syn..expr..ExprContinue$GT$5debug17h25b41b84a3e38629E.llvm.3179342279309578476', symObjAddr: 0x1DD70, symBinAddr: 0x87990, symSize: 0x90 }
  - { offsetInCU: 0x627A9, offset: 0x2A5947, size: 0x8, addend: 0x0, symName: '__ZN3syn3gen5debug38_$LT$impl$u20$syn..expr..ExprField$GT$5debug17h205042c3f47750f4E.llvm.3179342279309578476', symObjAddr: 0x1DEC0, symBinAddr: 0x87A20, symSize: 0xB0 }
  - { offsetInCU: 0x627FC, offset: 0x2A599A, size: 0x8, addend: 0x0, symName: '__ZN3syn3gen5debug40_$LT$impl$u20$syn..expr..ExprForLoop$GT$5debug17h4b59cf4a724a2c86E.llvm.3179342279309578476', symObjAddr: 0x1DF90, symBinAddr: 0x87AD0, symSize: 0x110 }
  - { offsetInCU: 0x62898, offset: 0x2A5A36, size: 0x8, addend: 0x0, symName: '__ZN3syn3gen5debug38_$LT$impl$u20$syn..expr..ExprGroup$GT$5debug17h1d1b609150833a21E.llvm.3179342279309578476', symObjAddr: 0x1E140, symBinAddr: 0x87BE0, symSize: 0x90 }
  - { offsetInCU: 0x62924, offset: 0x2A5AC2, size: 0x8, addend: 0x0, symName: '__ZN3syn3gen5debug35_$LT$impl$u20$syn..expr..ExprIf$GT$5debug17hcac2201cfc7dada3E.llvm.3179342279309578476', symObjAddr: 0x1E2B0, symBinAddr: 0x87C70, symSize: 0xD0 }
  - { offsetInCU: 0x629A3, offset: 0x2A5B41, size: 0x8, addend: 0x0, symName: '__ZN3syn3gen5debug38_$LT$impl$u20$syn..expr..ExprIndex$GT$5debug17h323b881039833519E.llvm.3179342279309578476', symObjAddr: 0x1E440, symBinAddr: 0x87D40, symSize: 0xB0 }
  - { offsetInCU: 0x62A22, offset: 0x2A5BC0, size: 0x8, addend: 0x0, symName: '__ZN3syn3gen5debug38_$LT$impl$u20$syn..expr..ExprInfer$GT$5debug17h9d4639858a4d0641E.llvm.3179342279309578476', symObjAddr: 0x1E570, symBinAddr: 0x87DF0, symSize: 0x70 }
  - { offsetInCU: 0x62AA1, offset: 0x2A5C3F, size: 0x8, addend: 0x0, symName: '__ZN3syn3gen5debug36_$LT$impl$u20$syn..expr..ExprLet$GT$5debug17h1696a2ddd44c0843E.llvm.3179342279309578476', symObjAddr: 0x1E6C0, symBinAddr: 0x87E60, symSize: 0xD0 }
  - { offsetInCU: 0x62B20, offset: 0x2A5CBE, size: 0x8, addend: 0x0, symName: '__ZN3syn3gen5debug36_$LT$impl$u20$syn..expr..ExprLit$GT$5debug17h5ec886d2fd2ff811E', symObjAddr: 0x1E810, symBinAddr: 0x87F30, symSize: 0x70 }
  - { offsetInCU: 0x62B9F, offset: 0x2A5D3D, size: 0x8, addend: 0x0, symName: '__ZN3syn3gen5debug37_$LT$impl$u20$syn..expr..ExprLoop$GT$5debug17h27d66799f1355cf5E.llvm.3179342279309578476', symObjAddr: 0x1E940, symBinAddr: 0x87FA0, symSize: 0xB0 }
  - { offsetInCU: 0x62C1E, offset: 0x2A5DBC, size: 0x8, addend: 0x0, symName: '__ZN3syn3gen5debug38_$LT$impl$u20$syn..expr..ExprMacro$GT$5debug17h7fd350c5472f2f8eE', symObjAddr: 0x1EA70, symBinAddr: 0x88050, symSize: 0x70 }
  - { offsetInCU: 0x62C9D, offset: 0x2A5E3B, size: 0x8, addend: 0x0, symName: '__ZN3syn3gen5debug38_$LT$impl$u20$syn..expr..ExprMatch$GT$5debug17ha6c2d5a86207b236E.llvm.3179342279309578476', symObjAddr: 0x1EBC0, symBinAddr: 0x880C0, symSize: 0xD0 }
  - { offsetInCU: 0x62CE3, offset: 0x2A5E81, size: 0x8, addend: 0x0, symName: '__ZN3syn3gen5debug43_$LT$impl$u20$syn..expr..ExprMethodCall$GT$5debug17h0e83005c80f7585bE.llvm.3179342279309578476', symObjAddr: 0x1ECB0, symBinAddr: 0x88190, symSize: 0x110 }
  - { offsetInCU: 0x62D7F, offset: 0x2A5F1D, size: 0x8, addend: 0x0, symName: '__ZN3syn3gen5debug38_$LT$impl$u20$syn..expr..ExprParen$GT$5debug17h122db919c04853b2E.llvm.3179342279309578476', symObjAddr: 0x1EE60, symBinAddr: 0x882A0, symSize: 0x90 }
  - { offsetInCU: 0x62DFE, offset: 0x2A5F9C, size: 0x8, addend: 0x0, symName: '__ZN3syn3gen5debug37_$LT$impl$u20$syn..expr..ExprPath$GT$5debug17hd68d527510baf187E', symObjAddr: 0x1EF90, symBinAddr: 0x88330, symSize: 0x90 }
  - { offsetInCU: 0x62E7D, offset: 0x2A601B, size: 0x8, addend: 0x0, symName: '__ZN3syn3gen5debug38_$LT$impl$u20$syn..expr..ExprRange$GT$5debug17h3c8b25a89e649496E', symObjAddr: 0x1F0E0, symBinAddr: 0x883C0, symSize: 0xB0 }
  - { offsetInCU: 0x62EFC, offset: 0x2A609A, size: 0x8, addend: 0x0, symName: '__ZN3syn3gen5debug42_$LT$impl$u20$syn..expr..ExprReference$GT$5debug17h27e82d8b2b90d783E.llvm.3179342279309578476', symObjAddr: 0x1F250, symBinAddr: 0x88470, symSize: 0xB0 }
  - { offsetInCU: 0x62F7B, offset: 0x2A6119, size: 0x8, addend: 0x0, symName: '__ZN3syn3gen5debug39_$LT$impl$u20$syn..expr..ExprRepeat$GT$5debug17h794915fe36fa6651E.llvm.3179342279309578476', symObjAddr: 0x1F3E0, symBinAddr: 0x88520, symSize: 0xD0 }
  - { offsetInCU: 0x62FFA, offset: 0x2A6198, size: 0x8, addend: 0x0, symName: '__ZN3syn3gen5debug39_$LT$impl$u20$syn..expr..ExprReturn$GT$5debug17h2da5368e65db279aE.llvm.3179342279309578476', symObjAddr: 0x1F550, symBinAddr: 0x885F0, symSize: 0x90 }
  - { offsetInCU: 0x63040, offset: 0x2A61DE, size: 0x8, addend: 0x0, symName: '__ZN3syn3gen5debug39_$LT$impl$u20$syn..expr..ExprStruct$GT$5debug17h79b799711402b583E.llvm.3179342279309578476', symObjAddr: 0x1F600, symBinAddr: 0x88680, symSize: 0x110 }
  - { offsetInCU: 0x630DC, offset: 0x2A627A, size: 0x8, addend: 0x0, symName: '__ZN3syn3gen5debug36_$LT$impl$u20$syn..expr..ExprTry$GT$5debug17hf74eb5ab047b43b8E.llvm.3179342279309578476', symObjAddr: 0x1F7B0, symBinAddr: 0x88790, symSize: 0x90 }
  - { offsetInCU: 0x6315B, offset: 0x2A62F9, size: 0x8, addend: 0x0, symName: '__ZN3syn3gen5debug41_$LT$impl$u20$syn..expr..ExprTryBlock$GT$5debug17h5b2840ad0488a746E.llvm.3179342279309578476', symObjAddr: 0x1F8E0, symBinAddr: 0x88820, symSize: 0x90 }
  - { offsetInCU: 0x631DA, offset: 0x2A6378, size: 0x8, addend: 0x0, symName: '__ZN3syn3gen5debug38_$LT$impl$u20$syn..expr..ExprTuple$GT$5debug17h4ab0e7832155ebb7E.llvm.3179342279309578476', symObjAddr: 0x1FA10, symBinAddr: 0x888B0, symSize: 0x90 }
  - { offsetInCU: 0x63259, offset: 0x2A63F7, size: 0x8, addend: 0x0, symName: '__ZN3syn3gen5debug38_$LT$impl$u20$syn..expr..ExprUnary$GT$5debug17h308f30c3f91ab642E.llvm.3179342279309578476', symObjAddr: 0x1FB40, symBinAddr: 0x88940, symSize: 0x90 }
  - { offsetInCU: 0x632D8, offset: 0x2A6476, size: 0x8, addend: 0x0, symName: '__ZN3syn3gen5debug39_$LT$impl$u20$syn..expr..ExprUnsafe$GT$5debug17hde471af817c082a6E.llvm.3179342279309578476', symObjAddr: 0x1FC70, symBinAddr: 0x889D0, symSize: 0x90 }
  - { offsetInCU: 0x63357, offset: 0x2A64F5, size: 0x8, addend: 0x0, symName: '__ZN3syn3gen5debug38_$LT$impl$u20$syn..expr..ExprWhile$GT$5debug17he60336dce6ac7ca9E.llvm.3179342279309578476', symObjAddr: 0x1FDE0, symBinAddr: 0x88A60, symSize: 0xD0 }
  - { offsetInCU: 0x633D6, offset: 0x2A6574, size: 0x8, addend: 0x0, symName: '__ZN3syn3gen5debug38_$LT$impl$u20$syn..expr..ExprYield$GT$5debug17h2414b4fac533e803E.llvm.3179342279309578476', symObjAddr: 0x1FF50, symBinAddr: 0x88B30, symSize: 0x90 }
  - { offsetInCU: 0x1834, offset: 0x2B4832, size: 0x8, addend: 0x0, symName: '__ZN4core3ptr100drop_in_place$LT$alloc..vec..Vec$LT$$LP$syn..generics..TypeParamBound$C$syn..token..Plus$RP$$GT$$GT$17hea181150e4b37806E.llvm.14025449986115119833', symObjAddr: 0x5D0, symBinAddr: 0x8B200, symSize: 0xD0 }
  - { offsetInCU: 0x1B4E, offset: 0x2B4B4C, size: 0x8, addend: 0x0, symName: '__ZN4core3ptr100drop_in_place$LT$core..option..Option$LT$alloc..boxed..Box$LT$syn..path..GenericArgument$GT$$GT$$GT$17h3a7c44b9e57fe410E', symObjAddr: 0x6A0, symBinAddr: 0x8B2D0, symSize: 0x50 }
  - { offsetInCU: 0x1D1B, offset: 0x2B4D19, size: 0x8, addend: 0x0, symName: '__ZN4core3ptr101drop_in_place$LT$alloc..vec..Vec$LT$$LP$syn..generics..WherePredicate$C$syn..token..Comma$RP$$GT$$GT$17h480aa68a207f67a8E.llvm.14025449986115119833', symObjAddr: 0x6F0, symBinAddr: 0x8B320, symSize: 0xD0 }
  - { offsetInCU: 0x2039, offset: 0x2B5037, size: 0x8, addend: 0x0, symName: '__ZN4core3ptr101drop_in_place$LT$core..option..Option$LT$alloc..boxed..Box$LT$syn..generics..GenericParam$GT$$GT$$GT$17h2bff155591650989E', symObjAddr: 0x7C0, symBinAddr: 0x8B3F0, symSize: 0x50 }
  - { offsetInCU: 0x2225, offset: 0x2B5223, size: 0x8, addend: 0x0, symName: '__ZN4core3ptr102drop_in_place$LT$syn..punctuated..Punctuated$LT$syn..path..GenericArgument$C$syn..token..Comma$GT$$GT$17h8b1978399cfff48bE.llvm.14025449986115119833', symObjAddr: 0x810, symBinAddr: 0x8B440, symSize: 0xF0 }
  - { offsetInCU: 0x254C, offset: 0x2B554A, size: 0x8, addend: 0x0, symName: '__ZN4core3ptr103drop_in_place$LT$core..option..Option$LT$alloc..boxed..Box$LT$syn..generics..TypeParamBound$GT$$GT$$GT$17hb14e4384a768542bE.llvm.14025449986115119833', symObjAddr: 0x900, symBinAddr: 0x8B530, symSize: 0x50 }
  - { offsetInCU: 0x26DB, offset: 0x2B56D9, size: 0x8, addend: 0x0, symName: '__ZN4core3ptr103drop_in_place$LT$core..option..Option$LT$alloc..boxed..Box$LT$syn..generics..WherePredicate$GT$$GT$$GT$17he190813f4819c5dbE', symObjAddr: 0x950, symBinAddr: 0x8B580, symSize: 0x50 }
  - { offsetInCU: 0x2905, offset: 0x2B5903, size: 0x8, addend: 0x0, symName: '__ZN4core3ptr103drop_in_place$LT$syn..punctuated..Punctuated$LT$syn..generics..GenericParam$C$syn..token..Comma$GT$$GT$17h0c6077a988036760E.llvm.14025449986115119833', symObjAddr: 0x9A0, symBinAddr: 0x8B5D0, symSize: 0x1A0 }
  - { offsetInCU: 0x2FA7, offset: 0x2B5FA5, size: 0x8, addend: 0x0, symName: '__ZN4core3ptr104drop_in_place$LT$syn..punctuated..Punctuated$LT$syn..generics..TypeParamBound$C$syn..token..Plus$GT$$GT$17h724e4d9d1d65061aE.llvm.14025449986115119833', symObjAddr: 0xB40, symBinAddr: 0x8B770, symSize: 0x240 }
  - { offsetInCU: 0x38E2, offset: 0x2B68E0, size: 0x8, addend: 0x0, symName: '__ZN4core3ptr105drop_in_place$LT$syn..punctuated..Punctuated$LT$syn..generics..WherePredicate$C$syn..token..Comma$GT$$GT$17h18b5b213db2a676cE', symObjAddr: 0xD80, symBinAddr: 0x8B9B0, symSize: 0x1A0 }
  - { offsetInCU: 0x3FF1, offset: 0x2B6FEF, size: 0x8, addend: 0x0, symName: '__ZN4core3ptr116drop_in_place$LT$core..option..Option$LT$$LP$syn..token..Else$C$alloc..boxed..Box$LT$syn..expr..Expr$GT$$RP$$GT$$GT$17h60c68b89176741daE', symObjAddr: 0xF20, symBinAddr: 0x8BB50, symSize: 0x50 }
  - { offsetInCU: 0x41F4, offset: 0x2B71F2, size: 0x8, addend: 0x0, symName: '__ZN4core3ptr1247drop_in_place$LT$core..iter..adapters..flatten..Flatten$LT$core..iter..adapters..map..Map$LT$core..iter..adapters..map..Map$LT$core..iter..adapters..map..Map$LT$core..slice..iter..Iter$LT$syn..error..ErrorMessage$GT$$C$syn..error..ErrorMessage..to_compile_error$GT$$C$$LT$proc_macro2..TokenStream$u20$as$u20$core..iter..traits..collect..FromIterator$LT$proc_macro2..TokenStream$GT$$GT$..from_iter$LT$core..iter..adapters..map..Map$LT$core..slice..iter..Iter$LT$syn..error..ErrorMessage$GT$$C$syn..error..ErrorMessage..to_compile_error$GT$$GT$..$u7b$$u7b$closure$u7d$$u7d$$GT$$C$$LT$proc_macro2..imp..TokenStream$u20$as$u20$core..iter..traits..collect..FromIterator$LT$proc_macro2..imp..TokenStream$GT$$GT$..from_iter$LT$core..iter..adapters..map..Map$LT$core..iter..adapters..map..Map$LT$core..slice..iter..Iter$LT$syn..error..ErrorMessage$GT$$C$syn..error..ErrorMessage..to_compile_error$GT$$C$$LT$proc_macro2..TokenStream$u20$as$u20$core..iter..traits..collect..FromIterator$LT$proc_macro2..TokenStream$GT$$GT$..from_iter$LT$core..iter..adapters..map..Map$LT$core..slice..iter..Iter$LT$syn..error..ErrorMessage$GT$$C$syn..error..ErrorMessage..to_compile_error$GT$$GT$..$u7b$$u7b$closure$u7d$$u7d$$GT$$GT$..$u7b$$u7b$closure$u7d$$u7d$$GT$$GT$$GT$17hbfd06aec0e095371E', symObjAddr: 0xF70, symBinAddr: 0x8BBA0, symSize: 0x60 }
  - { offsetInCU: 0x4378, offset: 0x2B7376, size: 0x8, addend: 0x0, symName: '__ZN4core3ptr126drop_in_place$LT$core..option..Option$LT$$LP$syn..token..And$C$core..option..Option$LT$syn..lifetime..Lifetime$GT$$RP$$GT$$GT$17h45c5d73e12cdf6f0E', symObjAddr: 0xFD0, symBinAddr: 0x8BC00, symSize: 0x30 }
  - { offsetInCU: 0x4607, offset: 0x2B7605, size: 0x8, addend: 0x0, symName: '__ZN4core3ptr33drop_in_place$LT$syn..ty..Abi$GT$17h24b86e0564a98339E', symObjAddr: 0x1000, symBinAddr: 0x8BC30, symSize: 0x70 }
  - { offsetInCU: 0x4623, offset: 0x2B7621, size: 0x8, addend: 0x0, symName: '__ZN4core3ptr33drop_in_place$LT$syn..ty..Abi$GT$17h24b86e0564a98339E', symObjAddr: 0x1000, symBinAddr: 0x8BC30, symSize: 0x70 }
  - { offsetInCU: 0x48FB, offset: 0x2B78F9, size: 0x8, addend: 0x0, symName: '__ZN4core3ptr34drop_in_place$LT$syn..lit..Lit$GT$17hd64dde89a262341dE', symObjAddr: 0x1070, symBinAddr: 0x8BCA0, symSize: 0x120 }
  - { offsetInCU: 0x4E27, offset: 0x2B7E25, size: 0x8, addend: 0x0, symName: '__ZN4core3ptr34drop_in_place$LT$syn..pat..Pat$GT$17hf88887878261d63cE.llvm.14025449986115119833', symObjAddr: 0x1190, symBinAddr: 0x8BDC0, symSize: 0x11B0 }
  - { offsetInCU: 0x96B7, offset: 0x2BC6B5, size: 0x8, addend: 0x0, symName: '__ZN4core3ptr34drop_in_place$LT$syn..ty..Type$GT$17ha80dd29b0f9d4a3fE.llvm.14025449986115119833', symObjAddr: 0x2340, symBinAddr: 0x8CF70, symSize: 0x510 }
  - { offsetInCU: 0xA6F9, offset: 0x2BD6F7, size: 0x8, addend: 0x0, symName: '__ZN4core3ptr35drop_in_place$LT$syn..expr..Arm$GT$17hd729aea1406305a9E.llvm.14025449986115119833', symObjAddr: 0x2850, symBinAddr: 0x8D480, symSize: 0x170 }
  - { offsetInCU: 0xAD67, offset: 0x2BDD65, size: 0x8, addend: 0x0, symName: '__ZN4core3ptr36drop_in_place$LT$syn..attr..Meta$GT$17h10362c0b846e6e23E.llvm.14025449986115119833', symObjAddr: 0x29C0, symBinAddr: 0x8D5F0, symSize: 0x320 }
  - { offsetInCU: 0xBCDC, offset: 0x2BECDA, size: 0x8, addend: 0x0, symName: '__ZN4core3ptr36drop_in_place$LT$syn..expr..Expr$GT$17h10f573b40ddd212cE.llvm.14025449986115119833', symObjAddr: 0x2CE0, symBinAddr: 0x8D910, symSize: 0x25E0 }
  - { offsetInCU: 0x15884, offset: 0x2C8882, size: 0x8, addend: 0x0, symName: '__ZN4core3ptr36drop_in_place$LT$syn..item..Item$GT$17haa59cf9e39ab8cebE.llvm.14025449986115119833', symObjAddr: 0x52C0, symBinAddr: 0x8FEF0, symSize: 0x17C0 }
  - { offsetInCU: 0x1B2B2, offset: 0x2CE2B0, size: 0x8, addend: 0x0, symName: '__ZN4core3ptr36drop_in_place$LT$syn..mac..Macro$GT$17hc3b30a7a8a34cc2dE', symObjAddr: 0x6A80, symBinAddr: 0x916B0, symSize: 0xE0 }
  - { offsetInCU: 0x1B61A, offset: 0x2CE618, size: 0x8, addend: 0x0, symName: '__ZN4core3ptr36drop_in_place$LT$syn..path..Path$GT$17h75c74a97d5f0a03bE.llvm.14025449986115119833', symObjAddr: 0x6B60, symBinAddr: 0x91790, symSize: 0x180 }
  - { offsetInCU: 0x1BC44, offset: 0x2CEC42, size: 0x8, addend: 0x0, symName: '__ZN4core3ptr36drop_in_place$LT$syn..stmt..Stmt$GT$17hc4f94563f060e25dE.llvm.14025449986115119833', symObjAddr: 0x6CE0, symBinAddr: 0x91910, symSize: 0x380 }
  - { offsetInCU: 0x1C89A, offset: 0x2CF898, size: 0x8, addend: 0x0, symName: '__ZN4core3ptr37drop_in_place$LT$syn..data..Field$GT$17hb03070569ab32babE.llvm.14025449986115119833', symObjAddr: 0x7060, symBinAddr: 0x91C90, symSize: 0x190 }
  - { offsetInCU: 0x1CE8A, offset: 0x2CFE88, size: 0x8, addend: 0x0, symName: '__ZN4core3ptr37drop_in_place$LT$syn..item..FnArg$GT$17h470fdeee5cba5e3aE.llvm.14025449986115119833', symObjAddr: 0x71F0, symBinAddr: 0x91E20, symSize: 0x230 }
  - { offsetInCU: 0x1D7A1, offset: 0x2D079F, size: 0x8, addend: 0x0, symName: '__ZN4core3ptr37drop_in_place$LT$syn..stmt..Block$GT$17h6fc3254d5688f2c3E', symObjAddr: 0x7420, symBinAddr: 0x92050, symSize: 0xD0 }
  - { offsetInCU: 0x1DA7F, offset: 0x2D0A7D, size: 0x8, addend: 0x0, symName: '__ZN4core3ptr38drop_in_place$LT$syn..expr..ExprIf$GT$17ha8d3c2042f45d05fE.llvm.14025449986115119833', symObjAddr: 0x74F0, symBinAddr: 0x92120, symSize: 0x1B0 }
  - { offsetInCU: 0x1E359, offset: 0x2D1357, size: 0x8, addend: 0x0, symName: '__ZN4core3ptr38drop_in_place$LT$syn..expr..Member$GT$17h6b0cf84594ce6bceE.llvm.14025449986115119833', symObjAddr: 0x76A0, symBinAddr: 0x922D0, symSize: 0x30 }
  - { offsetInCU: 0x1E455, offset: 0x2D1453, size: 0x8, addend: 0x0, symName: '__ZN4core3ptr38drop_in_place$LT$syn..pat..PatType$GT$17h835dce85ba90235eE.llvm.14025449986115119833', symObjAddr: 0x76D0, symBinAddr: 0x92300, symSize: 0x140 }
  - { offsetInCU: 0x1EA07, offset: 0x2D1A05, size: 0x8, addend: 0x0, symName: '__ZN4core3ptr39drop_in_place$LT$proc_macro2..Ident$GT$17ha28fef9769e267d9E.llvm.14025449986115119833', symObjAddr: 0x7810, symBinAddr: 0x92440, symSize: 0x30 }
  - { offsetInCU: 0x1EC1A, offset: 0x2D1C18, size: 0x8, addend: 0x0, symName: '__ZN4core3ptr39drop_in_place$LT$syn..buffer..Entry$GT$17he93ada413d4474f7E.llvm.14025449986115119833', symObjAddr: 0x7840, symBinAddr: 0x92470, symSize: 0xB0 }
  - { offsetInCU: 0x1F002, offset: 0x2D2000, size: 0x8, addend: 0x0, symName: '__ZN4core3ptr39drop_in_place$LT$syn..data..Variant$GT$17h92766dd8637b4069E.llvm.14025449986115119833', symObjAddr: 0x78F0, symBinAddr: 0x92520, symSize: 0x2F0 }
  - { offsetInCU: 0x1FC9D, offset: 0x2D2C9B, size: 0x8, addend: 0x0, symName: '__ZN4core3ptr39drop_in_place$LT$syn..item..UseTree$GT$17h7288572c631f954aE.llvm.14025449986115119833', symObjAddr: 0x7BE0, symBinAddr: 0x92810, symSize: 0x1E0 }
  - { offsetInCU: 0x203F6, offset: 0x2D33F4, size: 0x8, addend: 0x0, symName: '__ZN4core3ptr40drop_in_place$LT$syn..item..ImplItem$GT$17h98907b2080b0ccb0E', symObjAddr: 0x7DC0, symBinAddr: 0x929F0, symSize: 0x220 }
  - { offsetInCU: 0x20A43, offset: 0x2D3A41, size: 0x8, addend: 0x0, symName: '__ZN4core3ptr40drop_in_place$LT$syn..item..Receiver$GT$17h5e68a437c3b8e574E.llvm.14025449986115119833', symObjAddr: 0x7FE0, symBinAddr: 0x92C10, symSize: 0x130 }
  - { offsetInCU: 0x21041, offset: 0x2D403F, size: 0x8, addend: 0x0, symName: '__ZN4core3ptr40drop_in_place$LT$syn..item..Variadic$GT$17hf9d4ebdb0f5e723aE', symObjAddr: 0x8110, symBinAddr: 0x92D40, symSize: 0x120 }
  - { offsetInCU: 0x214E4, offset: 0x2D44E2, size: 0x8, addend: 0x0, symName: '__ZN4core3ptr40drop_in_place$LT$syn..ty..ReturnType$GT$17h035a612e322b6510E.llvm.14025449986115119833', symObjAddr: 0x8230, symBinAddr: 0x92E60, symSize: 0x50 }
  - { offsetInCU: 0x217A9, offset: 0x2D47A7, size: 0x8, addend: 0x0, symName: '__ZN4core3ptr41drop_in_place$LT$syn..item..Signature$GT$17h41f785211ad8eb02E', symObjAddr: 0x8280, symBinAddr: 0x92EB0, symSize: 0x270 }
  - { offsetInCU: 0x222BE, offset: 0x2D52BC, size: 0x8, addend: 0x0, symName: '__ZN4core3ptr41drop_in_place$LT$syn..item..TraitItem$GT$17hc74edaa948c160a2E', symObjAddr: 0x84F0, symBinAddr: 0x93120, symSize: 0x3D0 }
  - { offsetInCU: 0x22EFC, offset: 0x2D5EFA, size: 0x8, addend: 0x0, symName: '__ZN4core3ptr41drop_in_place$LT$syn..stmt..LocalInit$GT$17h30b5fda37459e0baE', symObjAddr: 0x88C0, symBinAddr: 0x934F0, symSize: 0xC0 }
  - { offsetInCU: 0x231EC, offset: 0x2D61EA, size: 0x8, addend: 0x0, symName: '__ZN4core3ptr42drop_in_place$LT$syn..item..ImplItemFn$GT$17haf8f89161f0a8aa1E', symObjAddr: 0x8980, symBinAddr: 0x935B0, symSize: 0x230 }
  - { offsetInCU: 0x23990, offset: 0x2D698E, size: 0x8, addend: 0x0, symName: '__ZN4core3ptr42drop_in_place$LT$syn..path..Constraint$GT$17h367871d1e7e54db0E', symObjAddr: 0x8BB0, symBinAddr: 0x937E0, symSize: 0x160 }
  - { offsetInCU: 0x23F27, offset: 0x2D6F25, size: 0x8, addend: 0x0, symName: '__ZN4core3ptr43drop_in_place$LT$proc_macro2..TokenTree$GT$17h3cbee0aa221130b6E.llvm.14025449986115119833', symObjAddr: 0x8D10, symBinAddr: 0x93940, symSize: 0xB0 }
  - { offsetInCU: 0x24282, offset: 0x2D7280, size: 0x8, addend: 0x0, symName: '__ZN4core3ptr43drop_in_place$LT$syn..data..FieldsNamed$GT$17h56bef6f151514865E', symObjAddr: 0x8DC0, symBinAddr: 0x939F0, symSize: 0x120 }
  - { offsetInCU: 0x24746, offset: 0x2D7744, size: 0x8, addend: 0x0, symName: '__ZN4core3ptr43drop_in_place$LT$syn..item..ForeignItem$GT$17h8033abfc56dac52fE', symObjAddr: 0x8EE0, symBinAddr: 0x93B10, symSize: 0x340 }
  - { offsetInCU: 0x25157, offset: 0x2D8155, size: 0x8, addend: 0x0, symName: '__ZN4core3ptr43drop_in_place$LT$syn..path..PathSegment$GT$17h903332e979944cf4E.llvm.14025449986115119833', symObjAddr: 0x9220, symBinAddr: 0x93E50, symSize: 0x190 }
  - { offsetInCU: 0x25736, offset: 0x2D8734, size: 0x8, addend: 0x0, symName: '__ZN4core3ptr44drop_in_place$LT$syn..generics..Generics$GT$17h671de917167f8b66E', symObjAddr: 0x93B0, symBinAddr: 0x93FE0, symSize: 0x240 }
  - { offsetInCU: 0x26077, offset: 0x2D9075, size: 0x8, addend: 0x0, symName: '__ZN4core3ptr44drop_in_place$LT$syn..item..ImplItemType$GT$17hb32b6c30c762cdafE', symObjAddr: 0x95F0, symBinAddr: 0x94220, symSize: 0x1F0 }
  - { offsetInCU: 0x2668A, offset: 0x2D9688, size: 0x8, addend: 0x0, symName: '__ZN4core3ptr44drop_in_place$LT$syn..lifetime..Lifetime$GT$17he37fa474f03de7b1E.llvm.14025449986115119833', symObjAddr: 0x97E0, symBinAddr: 0x94410, symSize: 0x30 }
  - { offsetInCU: 0x267E3, offset: 0x2D97E1, size: 0x8, addend: 0x0, symName: '__ZN4core3ptr45drop_in_place$LT$proc_macro2..TokenStream$GT$17h76e8e68015f4924dE.llvm.14025449986115119833', symObjAddr: 0x9810, symBinAddr: 0x94440, symSize: 0x70 }
  - { offsetInCU: 0x2694A, offset: 0x2D9948, size: 0x8, addend: 0x0, symName: '__ZN4core3ptr45drop_in_place$LT$syn..generics..TypeParam$GT$17h188a459c1380ac75E.llvm.14025449986115119833', symObjAddr: 0x9880, symBinAddr: 0x944B0, symSize: 0x230 }
  - { offsetInCU: 0x271E8, offset: 0x2DA1E6, size: 0x8, addend: 0x0, symName: '__ZN4core3ptr45drop_in_place$LT$syn..item..ImplItemConst$GT$17he161f4752ea1c79dE', symObjAddr: 0x9AB0, symBinAddr: 0x946E0, symSize: 0x210 }
  - { offsetInCU: 0x27839, offset: 0x2DA837, size: 0x8, addend: 0x0, symName: '__ZN4core3ptr45drop_in_place$LT$syn..item..TraitItemType$GT$17h3e36cd56ba987949E', symObjAddr: 0x9CC0, symBinAddr: 0x948F0, symSize: 0x290 }
  - { offsetInCU: 0x281A3, offset: 0x2DB1A1, size: 0x8, addend: 0x0, symName: '__ZN4core3ptr45drop_in_place$LT$syn..path..PathArguments$GT$17hdbc6dfac6f3334e6E.llvm.14025449986115119833', symObjAddr: 0x9F50, symBinAddr: 0x94B80, symSize: 0xB0 }
  - { offsetInCU: 0x28374, offset: 0x2DB372, size: 0x8, addend: 0x0, symName: '__ZN4core3ptr46drop_in_place$LT$$u5b$syn..stmt..Stmt$u5d$$GT$17h24e62e137a325f40E.llvm.14025449986115119833', symObjAddr: 0xA000, symBinAddr: 0x94C30, symSize: 0x2F0 }
  - { offsetInCU: 0x28A24, offset: 0x2DBA22, size: 0x8, addend: 0x0, symName: '__ZN4core3ptr46drop_in_place$LT$syn..generics..ConstParam$GT$17h7a9b900b2b88bfcdE.llvm.14025449986115119833', symObjAddr: 0xA2F0, symBinAddr: 0x94F20, symSize: 0x150 }
  - { offsetInCU: 0x28E52, offset: 0x2DBE50, size: 0x8, addend: 0x0, symName: '__ZN4core3ptr46drop_in_place$LT$syn..item..TraitItemConst$GT$17h1a851cb668e4b13cE', symObjAddr: 0xA440, symBinAddr: 0x95070, symSize: 0x1B0 }
  - { offsetInCU: 0x29333, offset: 0x2DC331, size: 0x8, addend: 0x0, symName: '__ZN4core3ptr47drop_in_place$LT$syn..generics..WhereClause$GT$17h1a748a69ca415614E', symObjAddr: 0xA5F0, symBinAddr: 0x95220, symSize: 0x120 }
  - { offsetInCU: 0x297B9, offset: 0x2DC7B7, size: 0x8, addend: 0x0, symName: '__ZN4core3ptr47drop_in_place$LT$syn..item..ForeignItemType$GT$17ha3462b8591c7bc98E', symObjAddr: 0xA710, symBinAddr: 0x95340, symSize: 0x1B0 }
  - { offsetInCU: 0x29E27, offset: 0x2DCE25, size: 0x8, addend: 0x0, symName: '__ZN4core3ptr47drop_in_place$LT$syn..path..GenericArgument$GT$17h593f06d6ca9a94d2E.llvm.14025449986115119833', symObjAddr: 0xA8C0, symBinAddr: 0x954F0, symSize: 0x1C0 }
  - { offsetInCU: 0x2A2EB, offset: 0x2DD2E9, size: 0x8, addend: 0x0, symName: '__ZN4core3ptr48drop_in_place$LT$syn..generics..GenericParam$GT$17hd6859d95c1b7c168E.llvm.14025449986115119833', symObjAddr: 0xAA80, symBinAddr: 0x956B0, symSize: 0x150 }
  - { offsetInCU: 0x2A711, offset: 0x2DD70F, size: 0x8, addend: 0x0, symName: '__ZN4core3ptr49drop_in_place$LT$syn..generics..LifetimeParam$GT$17h3a8835ab294bfd16E.llvm.14025449986115119833', symObjAddr: 0xABD0, symBinAddr: 0x95800, symSize: 0xF0 }
  - { offsetInCU: 0x2AB1C, offset: 0x2DDB1A, size: 0x8, addend: 0x0, symName: '__ZN4core3ptr49drop_in_place$LT$syn..generics..PredicateType$GT$17h28460a55196bd45fE.llvm.14025449986115119833', symObjAddr: 0xACC0, symBinAddr: 0x958F0, symSize: 0x180 }
  - { offsetInCU: 0x2AFD4, offset: 0x2DDFD2, size: 0x8, addend: 0x0, symName: '__ZN4core3ptr49drop_in_place$LT$syn..item..ForeignItemStatic$GT$17h0b4273b292bce45dE', symObjAddr: 0xAE40, symBinAddr: 0x95A70, symSize: 0x190 }
  - { offsetInCU: 0x2B6D6, offset: 0x2DE6D4, size: 0x8, addend: 0x0, symName: '__ZN4core3ptr50drop_in_place$LT$$u5b$syn..item..ImplItem$u5d$$GT$17h9b63e3c09d4f2fecE.llvm.14025449986115119833', symObjAddr: 0xAFD0, symBinAddr: 0x95C00, symSize: 0x210 }
  - { offsetInCU: 0x2BA4A, offset: 0x2DEA48, size: 0x8, addend: 0x0, symName: '__ZN4core3ptr50drop_in_place$LT$syn..generics..TypeParamBound$GT$17h81b4325b5900604dE.llvm.14025449986115119833', symObjAddr: 0xB1E0, symBinAddr: 0x95E10, symSize: 0xA0 }
  - { offsetInCU: 0x2BBCF, offset: 0x2DEBCD, size: 0x8, addend: 0x0, symName: '__ZN4core3ptr50drop_in_place$LT$syn..generics..WherePredicate$GT$17h1dcd41fbf166681cE.llvm.14025449986115119833', symObjAddr: 0xB280, symBinAddr: 0x95EB0, symSize: 0xA0 }
  - { offsetInCU: 0x2BD7F, offset: 0x2DED7D, size: 0x8, addend: 0x0, symName: '__ZN4core3ptr51drop_in_place$LT$$u5b$syn..item..TraitItem$u5d$$GT$17hfac7130e0b19ef2eE.llvm.14025449986115119833', symObjAddr: 0xB320, symBinAddr: 0x95F50, symSize: 0x3E0 }
  - { offsetInCU: 0x2C721, offset: 0x2DF71F, size: 0x8, addend: 0x0, symName: '__ZN4core3ptr52drop_in_place$LT$syn..restriction..VisRestricted$GT$17h3b9d7a9742b1c345E', symObjAddr: 0xB700, symBinAddr: 0x96330, symSize: 0x50 }
  - { offsetInCU: 0x2C8B8, offset: 0x2DF8B6, size: 0x8, addend: 0x0, symName: '__ZN4core3ptr53drop_in_place$LT$$u5b$syn..item..ForeignItem$u5d$$GT$17h566f3fc649dbb42bE.llvm.14025449986115119833', symObjAddr: 0xB750, symBinAddr: 0x96380, symSize: 0x370 }
  - { offsetInCU: 0x2D133, offset: 0x2E0131, size: 0x8, addend: 0x0, symName: '__ZN4core3ptr56drop_in_place$LT$proc_macro2..token_stream..IntoIter$GT$17h36b6bc37f478d00bE', symObjAddr: 0xBAC0, symBinAddr: 0x966F0, symSize: 0x20 }
  - { offsetInCU: 0x2D1E3, offset: 0x2E01E1, size: 0x8, addend: 0x0, symName: '__ZN4core3ptr58drop_in_place$LT$alloc..vec..Vec$LT$syn..expr..Arm$GT$$GT$17hff9224aadf2233b8E.llvm.14025449986115119833', symObjAddr: 0xBAE0, symBinAddr: 0x96710, symSize: 0xD0 }
  - { offsetInCU: 0x2D4AA, offset: 0x2E04A8, size: 0x8, addend: 0x0, symName: '__ZN4core3ptr59drop_in_place$LT$alloc..boxed..Box$LT$syn..pat..Pat$GT$$GT$17h622b0c1db21c0742E.llvm.14025449986115119833', symObjAddr: 0xBBB0, symBinAddr: 0x967E0, symSize: 0x50 }
  - { offsetInCU: 0x2D603, offset: 0x2E0601, size: 0x8, addend: 0x0, symName: '__ZN4core3ptr59drop_in_place$LT$alloc..boxed..Box$LT$syn..ty..Type$GT$$GT$17hde45fa887dd8b605E.llvm.14025449986115119833', symObjAddr: 0xBC00, symBinAddr: 0x96830, symSize: 0x50 }
  - { offsetInCU: 0x2D75C, offset: 0x2E075A, size: 0x8, addend: 0x0, symName: '__ZN4core3ptr59drop_in_place$LT$alloc..vec..Vec$LT$syn..item..Item$GT$$GT$17h8590e8c8e196c3c2E.llvm.14025449986115119833', symObjAddr: 0xBC50, symBinAddr: 0x96880, symSize: 0xD0 }
  - { offsetInCU: 0x2DA23, offset: 0x2E0A21, size: 0x8, addend: 0x0, symName: '__ZN4core3ptr59drop_in_place$LT$alloc..vec..Vec$LT$syn..stmt..Stmt$GT$$GT$17h6cf3e54f41bc03bdE.llvm.14025449986115119833', symObjAddr: 0xBD20, symBinAddr: 0x96950, symSize: 0x80 }
  - { offsetInCU: 0x2DCDB, offset: 0x2E0CD9, size: 0x8, addend: 0x0, symName: '__ZN4core3ptr61drop_in_place$LT$alloc..boxed..Box$LT$syn..expr..Expr$GT$$GT$17hbb42293869113942E', symObjAddr: 0xBDA0, symBinAddr: 0x969D0, symSize: 0x50 }
  - { offsetInCU: 0x2DE34, offset: 0x2E0E32, size: 0x8, addend: 0x0, symName: '__ZN4core3ptr61drop_in_place$LT$alloc..boxed..Box$LT$syn..path..Path$GT$$GT$17h038a2aea8fe87c28E', symObjAddr: 0xBDF0, symBinAddr: 0x96A20, symSize: 0x100 }
  - { offsetInCU: 0x2E354, offset: 0x2E1352, size: 0x8, addend: 0x0, symName: '__ZN4core3ptr61drop_in_place$LT$syn..path..ParenthesizedGenericArguments$GT$17h6b1731382637937fE', symObjAddr: 0xBEF0, symBinAddr: 0x96B20, symSize: 0x170 }
  - { offsetInCU: 0x2E951, offset: 0x2E194F, size: 0x8, addend: 0x0, symName: '__ZN4core3ptr62drop_in_place$LT$alloc..boxed..Box$LT$syn..data..Field$GT$$GT$17hd46c7cc6f292f643E', symObjAddr: 0xC060, symBinAddr: 0x96C90, symSize: 0x50 }
  - { offsetInCU: 0x2EAC9, offset: 0x2E1AC7, size: 0x8, addend: 0x0, symName: '__ZN4core3ptr62drop_in_place$LT$alloc..boxed..Box$LT$syn..item..FnArg$GT$$GT$17haeb55dec21588d58E', symObjAddr: 0xC0B0, symBinAddr: 0x96CE0, symSize: 0x60 }
  - { offsetInCU: 0x2EC3F, offset: 0x2E1C3D, size: 0x8, addend: 0x0, symName: '__ZN4core3ptr62drop_in_place$LT$alloc..boxed..Box$LT$syn..stmt..Block$GT$$GT$17h21dcb5adf0237a12E', symObjAddr: 0xC110, symBinAddr: 0x96D40, symSize: 0xE0 }
  - { offsetInCU: 0x2F096, offset: 0x2E2094, size: 0x8, addend: 0x0, symName: '__ZN4core3ptr62drop_in_place$LT$alloc..vec..Vec$LT$syn..buffer..Entry$GT$$GT$17h17f61a784aa49e8bE.llvm.14025449986115119833', symObjAddr: 0xC1F0, symBinAddr: 0x96E20, symSize: 0xC0 }
  - { offsetInCU: 0x2F36E, offset: 0x2E236C, size: 0x8, addend: 0x0, symName: '__ZN4core3ptr62drop_in_place$LT$syn..path..AngleBracketedGenericArguments$GT$17hf8fa172f007a1473E', symObjAddr: 0xC2B0, symBinAddr: 0x96EE0, symSize: 0x120 }
  - { offsetInCU: 0x2F7F4, offset: 0x2E27F2, size: 0x8, addend: 0x0, symName: '__ZN4core3ptr63drop_in_place$LT$alloc..vec..Vec$LT$syn..item..ImplItem$GT$$GT$17hc51fca07e67d35aeE.llvm.14025449986115119833', symObjAddr: 0xC3D0, symBinAddr: 0x97000, symSize: 0x80 }
  - { offsetInCU: 0x2FAAC, offset: 0x2E2AAA, size: 0x8, addend: 0x0, symName: '__ZN4core3ptr64drop_in_place$LT$alloc..boxed..Box$LT$syn..data..Variant$GT$$GT$17h9ea21bed4984fdbcE', symObjAddr: 0xC450, symBinAddr: 0x97080, symSize: 0x50 }
  - { offsetInCU: 0x2FC05, offset: 0x2E2C03, size: 0x8, addend: 0x0, symName: '__ZN4core3ptr64drop_in_place$LT$alloc..boxed..Box$LT$syn..item..UseTree$GT$$GT$17he4d7024582150632E', symObjAddr: 0xC4A0, symBinAddr: 0x970D0, symSize: 0x50 }
  - { offsetInCU: 0x2FD9C, offset: 0x2E2D9A, size: 0x8, addend: 0x0, symName: '__ZN4core3ptr64drop_in_place$LT$alloc..boxed..Box$LT$syn..pat..FieldPat$GT$$GT$17hbf8f4867d84bd25dE', symObjAddr: 0xC4F0, symBinAddr: 0x97120, symSize: 0x140 }
  - { offsetInCU: 0x30466, offset: 0x2E3464, size: 0x8, addend: 0x0, symName: '__ZN4core3ptr64drop_in_place$LT$alloc..boxed..Box$LT$syn..ty..BareFnArg$GT$$GT$17h6be6354eb1d1364dE', symObjAddr: 0xC630, symBinAddr: 0x97260, symSize: 0x140 }
  - { offsetInCU: 0x309F9, offset: 0x2E39F7, size: 0x8, addend: 0x0, symName: '__ZN4core3ptr64drop_in_place$LT$alloc..vec..Vec$LT$syn..attr..Attribute$GT$$GT$17he33e25539d5885aeE.llvm.14025449986115119833', symObjAddr: 0xC770, symBinAddr: 0x973A0, symSize: 0xD0 }
  - { offsetInCU: 0x30CF4, offset: 0x2E3CF2, size: 0x8, addend: 0x0, symName: '__ZN4core3ptr64drop_in_place$LT$alloc..vec..Vec$LT$syn..item..TraitItem$GT$$GT$17hff1cc01ccae80d7aE.llvm.14025449986115119833', symObjAddr: 0xC840, symBinAddr: 0x97470, symSize: 0x80 }
  - { offsetInCU: 0x30FAC, offset: 0x2E3FAA, size: 0x8, addend: 0x0, symName: '__ZN4core3ptr65drop_in_place$LT$$LP$syn..item..FnArg$C$syn..token..Comma$RP$$GT$17heafa789770a727bbE.llvm.14025449986115119833', symObjAddr: 0xC8C0, symBinAddr: 0x974F0, symSize: 0x20 }
  - { offsetInCU: 0x31045, offset: 0x2E4043, size: 0x8, addend: 0x0, symName: '__ZN4core3ptr65drop_in_place$LT$alloc..vec..Vec$LT$proc_macro..TokenTree$GT$$GT$17h8abd81f8596dbc59E.llvm.14025449986115119833', symObjAddr: 0xC8E0, symBinAddr: 0x97510, symSize: 0x110 }
  - { offsetInCU: 0x31457, offset: 0x2E4455, size: 0x8, addend: 0x0, symName: '__ZN4core3ptr65drop_in_place$LT$core..option..Option$LT$syn..expr..Label$GT$$GT$17hac599686b33ef364E', symObjAddr: 0xC9F0, symBinAddr: 0x97620, symSize: 0x30 }
  - { offsetInCU: 0x31591, offset: 0x2E458F, size: 0x8, addend: 0x0, symName: '__ZN4core3ptr65drop_in_place$LT$core..option..Option$LT$syn..stmt..Block$GT$$GT$17h74f2551ed24e2d27E', symObjAddr: 0xCA20, symBinAddr: 0x97650, symSize: 0xD0 }
  - { offsetInCU: 0x318A4, offset: 0x2E48A2, size: 0x8, addend: 0x0, symName: '__ZN4core3ptr66drop_in_place$LT$alloc..vec..Vec$LT$proc_macro2..TokenTree$GT$$GT$17hddd511686bdb58d1E', symObjAddr: 0xCAF0, symBinAddr: 0x97720, symSize: 0xC0 }
  - { offsetInCU: 0x31B7C, offset: 0x2E4B7A, size: 0x8, addend: 0x0, symName: '__ZN4core3ptr66drop_in_place$LT$alloc..vec..Vec$LT$syn..item..ForeignItem$GT$$GT$17h1f176e04eaf5e0dfE.llvm.14025449986115119833', symObjAddr: 0xCBB0, symBinAddr: 0x977E0, symSize: 0x80 }
  - { offsetInCU: 0x31E34, offset: 0x2E4E32, size: 0x8, addend: 0x0, symName: '__ZN4core3ptr67drop_in_place$LT$$LP$syn..pat..FieldPat$C$syn..token..Comma$RP$$GT$17h27317b85bbb0d5a5E.llvm.14025449986115119833', symObjAddr: 0xCC30, symBinAddr: 0x97860, symSize: 0x120 }
  - { offsetInCU: 0x323C9, offset: 0x2E53C7, size: 0x8, addend: 0x0, symName: '__ZN4core3ptr67drop_in_place$LT$$LP$syn..ty..BareFnArg$C$syn..token..Comma$RP$$GT$17h983f3d51957c3a07E.llvm.14025449986115119833', symObjAddr: 0xCD50, symBinAddr: 0x97980, symSize: 0x110 }
  - { offsetInCU: 0x32847, offset: 0x2E5845, size: 0x8, addend: 0x0, symName: '__ZN4core3ptr67drop_in_place$LT$alloc..boxed..Box$LT$syn..expr..FieldValue$GT$$GT$17hbbcf67a9d5e9863cE', symObjAddr: 0xCE60, symBinAddr: 0x97A90, symSize: 0x140 }
  - { offsetInCU: 0x32DBA, offset: 0x2E5DB8, size: 0x8, addend: 0x0, symName: '__ZN4core3ptr68drop_in_place$LT$alloc..boxed..Box$LT$syn..path..PathSegment$GT$$GT$17h99aaf90b3262bc1eE', symObjAddr: 0xCFA0, symBinAddr: 0x97BD0, symSize: 0xF0 }
  - { offsetInCU: 0x331BC, offset: 0x2E61BA, size: 0x8, addend: 0x0, symName: '__ZN4core3ptr69drop_in_place$LT$core..option..Option$LT$syn..stmt..LocalInit$GT$$GT$17h0978f9ea6e6b3bd1E', symObjAddr: 0xD120, symBinAddr: 0x97CC0, symSize: 0xC0 }
  - { offsetInCU: 0x334E0, offset: 0x2E64DE, size: 0x8, addend: 0x0, symName: '__ZN4core3ptr70drop_in_place$LT$$LP$syn..expr..FieldValue$C$syn..token..Comma$RP$$GT$17h7bfdad78936e9ce8E.llvm.14025449986115119833', symObjAddr: 0xD1E0, symBinAddr: 0x97D80, symSize: 0x110 }
  - { offsetInCU: 0x3391F, offset: 0x2E691D, size: 0x8, addend: 0x0, symName: '__ZN4core3ptr70drop_in_place$LT$core..option..Option$LT$syn..ty..BareVariadic$GT$$GT$17h79a19250e9f043b1E', symObjAddr: 0xD2F0, symBinAddr: 0x97E90, symSize: 0x100 }
  - { offsetInCU: 0x33D7E, offset: 0x2E6D7C, size: 0x8, addend: 0x0, symName: '__ZN4core3ptr72drop_in_place$LT$alloc..boxed..Box$LT$syn..path..GenericArgument$GT$$GT$17hfd308d374af4273dE.llvm.14025449986115119833', symObjAddr: 0xD3F0, symBinAddr: 0x97F90, symSize: 0x190 }
  - { offsetInCU: 0x34246, offset: 0x2E7244, size: 0x8, addend: 0x0, symName: '__ZN4core3ptr73drop_in_place$LT$$LP$syn..path..PathSegment$C$syn..token..PathSep$RP$$GT$17he36d39e19c04f3acE.llvm.14025449986115119833', symObjAddr: 0xD580, symBinAddr: 0x98120, symSize: 0xD0 }
  - { offsetInCU: 0x34509, offset: 0x2E7507, size: 0x8, addend: 0x0, symName: '__ZN4core3ptr73drop_in_place$LT$alloc..boxed..Box$LT$syn..generics..GenericParam$GT$$GT$17ha26d5d145af4b203E', symObjAddr: 0xD650, symBinAddr: 0x981F0, symSize: 0x80 }
  - { offsetInCU: 0x3467F, offset: 0x2E767D, size: 0x8, addend: 0x0, symName: '__ZN4core3ptr75drop_in_place$LT$$LP$syn..path..GenericArgument$C$syn..token..Comma$RP$$GT$17hfc5ffe6787775104E.llvm.14025449986115119833', symObjAddr: 0xD6D0, symBinAddr: 0x98270, symSize: 0x180 }
  - { offsetInCU: 0x34A0D, offset: 0x2E7A0B, size: 0x8, addend: 0x0, symName: '__ZN4core3ptr75drop_in_place$LT$alloc..boxed..Box$LT$syn..generics..TypeParamBound$GT$$GT$17h129a4e927e5eb81bE', symObjAddr: 0xD850, symBinAddr: 0x983F0, symSize: 0x180 }
  - { offsetInCU: 0x34FD7, offset: 0x2E7FD5, size: 0x8, addend: 0x0, symName: '__ZN4core3ptr75drop_in_place$LT$alloc..boxed..Box$LT$syn..generics..WherePredicate$GT$$GT$17h9bdeede2dbadbeb6E', symObjAddr: 0xD9D0, symBinAddr: 0x98570, symSize: 0x80 }
  - { offsetInCU: 0x3526E, offset: 0x2E826C, size: 0x8, addend: 0x0, symName: '__ZN4core3ptr76drop_in_place$LT$$LP$syn..generics..GenericParam$C$syn..token..Comma$RP$$GT$17hfa938bd7ff9e78c2E.llvm.14025449986115119833', symObjAddr: 0xDA50, symBinAddr: 0x985F0, symSize: 0x40 }
  - { offsetInCU: 0x352AA, offset: 0x2E82A8, size: 0x8, addend: 0x0, symName: '__ZN4core3ptr77drop_in_place$LT$$LP$syn..generics..TypeParamBound$C$syn..token..Plus$RP$$GT$17h900d162b03245e2aE.llvm.14025449986115119833', symObjAddr: 0xDA90, symBinAddr: 0x98630, symSize: 0x180 }
  - { offsetInCU: 0x35746, offset: 0x2E8744, size: 0x8, addend: 0x0, symName: '__ZN4core3ptr78drop_in_place$LT$$LP$syn..generics..WherePredicate$C$syn..token..Comma$RP$$GT$17hdfe19ac5c370d71bE.llvm.14025449986115119833', symObjAddr: 0xDC10, symBinAddr: 0x987B0, symSize: 0x60 }
  - { offsetInCU: 0x35900, offset: 0x2E88FE, size: 0x8, addend: 0x0, symName: '__ZN4core3ptr82drop_in_place$LT$alloc..vec..Vec$LT$$LP$syn..pat..Pat$C$syn..token..Or$RP$$GT$$GT$17h1f0f428d7b2d8011E.llvm.14025449986115119833', symObjAddr: 0xDC70, symBinAddr: 0x98810, symSize: 0x0 }
  - { offsetInCU: 0x35BFF, offset: 0x2E8BFD, size: 0x8, addend: 0x0, symName: '__ZN4core3ptr85drop_in_place$LT$alloc..vec..Vec$LT$$LP$syn..ty..Type$C$syn..token..Comma$RP$$GT$$GT$17h0cf4844ea7ad9568E.llvm.14025449986115119833', symObjAddr: 0xDD40, symBinAddr: 0x988E0, symSize: 0xD0 }
  - { offsetInCU: 0x35EFA, offset: 0x2E8EF8, size: 0x8, addend: 0x0, symName: '__ZN4core3ptr86drop_in_place$LT$$LP$syn..token..If$C$alloc..boxed..Box$LT$syn..expr..Expr$GT$$RP$$GT$17hf09fe3e5c3a4feb0E', symObjAddr: 0xDE10, symBinAddr: 0x989B0, symSize: 0x50 }
  - { offsetInCU: 0x360B0, offset: 0x2E90AE, size: 0x8, addend: 0x0, symName: '__ZN4core3ptr86drop_in_place$LT$syn..punctuated..Punctuated$LT$syn..pat..Pat$C$syn..token..Or$GT$$GT$17h9cc6b5f7b6d3a555E', symObjAddr: 0xDE60, symBinAddr: 0x98A00, symSize: 0x120 }
  - { offsetInCU: 0x36549, offset: 0x2E9547, size: 0x8, addend: 0x0, symName: '__ZN4core3ptr87drop_in_place$LT$$LP$alloc..boxed..Box$LT$syn..pat..Pat$GT$$C$syn..token..Colon$RP$$GT$17h1f05e7b69125af95E', symObjAddr: 0xDF80, symBinAddr: 0x98B20, symSize: 0x50 }
  - { offsetInCU: 0x3671E, offset: 0x2E971C, size: 0x8, addend: 0x0, symName: '__ZN4core3ptr87drop_in_place$LT$alloc..vec..Vec$LT$$LP$syn..expr..Expr$C$syn..token..Comma$RP$$GT$$GT$17hd1036fba4025974bE.llvm.14025449986115119833', symObjAddr: 0xDFD0, symBinAddr: 0x98B70, symSize: 0xD0 }
  - { offsetInCU: 0x36A19, offset: 0x2E9A17, size: 0x8, addend: 0x0, symName: '__ZN4core3ptr87drop_in_place$LT$core..option..Option$LT$alloc..boxed..Box$LT$syn..ty..Type$GT$$GT$$GT$17h103a25a4a7d7374eE', symObjAddr: 0xE0A0, symBinAddr: 0x98C40, symSize: 0x50 }
  - { offsetInCU: 0x36B89, offset: 0x2E9B87, size: 0x8, addend: 0x0, symName: '__ZN4core3ptr88drop_in_place$LT$alloc..vec..Vec$LT$$LP$syn..data..Field$C$syn..token..Comma$RP$$GT$$GT$17h066c67d26ce3e154E.llvm.14025449986115119833', symObjAddr: 0xE0F0, symBinAddr: 0x98C90, symSize: 0xD0 }
  - { offsetInCU: 0x36E88, offset: 0x2E9E86, size: 0x8, addend: 0x0, symName: '__ZN4core3ptr88drop_in_place$LT$alloc..vec..Vec$LT$$LP$syn..item..FnArg$C$syn..token..Comma$RP$$GT$$GT$17he8d49cd20c575884E.llvm.14025449986115119833', symObjAddr: 0xE1C0, symBinAddr: 0x98D60, symSize: 0xC0 }
  - { offsetInCU: 0x37181, offset: 0x2EA17F, size: 0x8, addend: 0x0, symName: '__ZN4core3ptr89drop_in_place$LT$core..option..Option$LT$alloc..boxed..Box$LT$syn..expr..Expr$GT$$GT$$GT$17h9e02509cb2345d44E', symObjAddr: 0xE280, symBinAddr: 0x98E20, symSize: 0x50 }
  - { offsetInCU: 0x372F1, offset: 0x2EA2EF, size: 0x8, addend: 0x0, symName: '__ZN4core3ptr89drop_in_place$LT$syn..punctuated..Punctuated$LT$syn..ty..Type$C$syn..token..Comma$GT$$GT$17he030c4b7f24a5848E.llvm.14025449986115119833', symObjAddr: 0xE2D0, symBinAddr: 0x98E70, symSize: 0x120 }
  - { offsetInCU: 0x377D0, offset: 0x2EA7CE, size: 0x8, addend: 0x0, symName: '__ZN4core3ptr90drop_in_place$LT$alloc..vec..Vec$LT$$LP$syn..data..Variant$C$syn..token..Comma$RP$$GT$$GT$17h3ac8ecccf673c389E.llvm.14025449986115119833', symObjAddr: 0xE3F0, symBinAddr: 0x98F90, symSize: 0xD0 }
  - { offsetInCU: 0x37ACB, offset: 0x2EAAC9, size: 0x8, addend: 0x0, symName: '__ZN4core3ptr90drop_in_place$LT$alloc..vec..Vec$LT$$LP$syn..item..UseTree$C$syn..token..Comma$RP$$GT$$GT$17h1e4fface25e12fe6E.llvm.14025449986115119833', symObjAddr: 0xE4C0, symBinAddr: 0x99060, symSize: 0xD0 }
  - { offsetInCU: 0x37E06, offset: 0x2EAE04, size: 0x8, addend: 0x0, symName: '__ZN4core3ptr90drop_in_place$LT$alloc..vec..Vec$LT$$LP$syn..pat..FieldPat$C$syn..token..Comma$RP$$GT$$GT$17h4d0a520927a96123E.llvm.14025449986115119833', symObjAddr: 0xE590, symBinAddr: 0x99130, symSize: 0xD0 }
  - { offsetInCU: 0x3810D, offset: 0x2EB10B, size: 0x8, addend: 0x0, symName: '__ZN4core3ptr90drop_in_place$LT$alloc..vec..Vec$LT$$LP$syn..ty..BareFnArg$C$syn..token..Comma$RP$$GT$$GT$17h86271563b6e0e7d6E.llvm.14025449986115119833', symObjAddr: 0xE660, symBinAddr: 0x99200, symSize: 0xD0 }
  - { offsetInCU: 0x383D8, offset: 0x2EB3D6, size: 0x8, addend: 0x0, symName: '__ZN4core3ptr90drop_in_place$LT$core..option..Option$LT$alloc..boxed..Box$LT$syn..data..Field$GT$$GT$$GT$17h9f1aee8cd56c6727E', symObjAddr: 0xE730, symBinAddr: 0x992D0, symSize: 0x50 }
  - { offsetInCU: 0x38548, offset: 0x2EB546, size: 0x8, addend: 0x0, symName: '__ZN4core3ptr90drop_in_place$LT$core..option..Option$LT$alloc..boxed..Box$LT$syn..item..FnArg$GT$$GT$$GT$17h8635495a730dc0bfE', symObjAddr: 0xE780, symBinAddr: 0x99320, symSize: 0x50 }
  - { offsetInCU: 0x386D7, offset: 0x2EB6D5, size: 0x8, addend: 0x0, symName: '__ZN4core3ptr91drop_in_place$LT$syn..punctuated..Punctuated$LT$syn..expr..Expr$C$syn..token..Comma$GT$$GT$17h6f261e8f470c81f2E', symObjAddr: 0xE7D0, symBinAddr: 0x99370, symSize: 0x120 }
  - { offsetInCU: 0x38B6C, offset: 0x2EBB6A, size: 0x8, addend: 0x0, symName: '__ZN4core3ptr92drop_in_place$LT$core..option..Option$LT$$LP$syn..token..As$C$proc_macro2..Ident$RP$$GT$$GT$17h12a88945917fa9dbE', symObjAddr: 0xE8F0, symBinAddr: 0x99490, symSize: 0x30 }
  - { offsetInCU: 0x38C87, offset: 0x2EBC85, size: 0x8, addend: 0x0, symName: '__ZN4core3ptr92drop_in_place$LT$syn..punctuated..Punctuated$LT$syn..data..Field$C$syn..token..Comma$GT$$GT$17hf8968831c552f88dE', symObjAddr: 0xE920, symBinAddr: 0x994C0, symSize: 0x120 }
  - { offsetInCU: 0x3910D, offset: 0x2EC10B, size: 0x8, addend: 0x0, symName: '__ZN4core3ptr92drop_in_place$LT$syn..punctuated..Punctuated$LT$syn..item..FnArg$C$syn..token..Comma$GT$$GT$17h7de33e77eabaea82E', symObjAddr: 0xEA40, symBinAddr: 0x995E0, symSize: 0x150 }
  - { offsetInCU: 0x395DC, offset: 0x2EC5DA, size: 0x8, addend: 0x0, symName: '__ZN4core3ptr93drop_in_place$LT$alloc..vec..Vec$LT$$LP$syn..expr..FieldValue$C$syn..token..Comma$RP$$GT$$GT$17hf889827bae7d8b64E.llvm.14025449986115119833', symObjAddr: 0xEB90, symBinAddr: 0x99730, symSize: 0xD0 }
  - { offsetInCU: 0x39900, offset: 0x2EC8FE, size: 0x8, addend: 0x0, symName: '__ZN4core3ptr94drop_in_place$LT$alloc..vec..Vec$LT$$LP$syn..lifetime..Lifetime$C$syn..token..Plus$RP$$GT$$GT$17h446c63e6d8248f75E.llvm.14025449986115119833', symObjAddr: 0xEC60, symBinAddr: 0x99800, symSize: 0x90 }
  - { offsetInCU: 0x39C01, offset: 0x2ECBFF, size: 0x8, addend: 0x0, symName: '__ZN4core3ptr94drop_in_place$LT$syn..punctuated..Punctuated$LT$syn..data..Variant$C$syn..token..Comma$GT$$GT$17h310cd79aba4529ccE', symObjAddr: 0xECF0, symBinAddr: 0x99890, symSize: 0x120 }
  - { offsetInCU: 0x3A0D4, offset: 0x2ED0D2, size: 0x8, addend: 0x0, symName: '__ZN4core3ptr94drop_in_place$LT$syn..punctuated..Punctuated$LT$syn..pat..FieldPat$C$syn..token..Comma$GT$$GT$17h43ec25af986ef674E', symObjAddr: 0xEE10, symBinAddr: 0x999B0, symSize: 0xF0 }
  - { offsetInCU: 0x3A42B, offset: 0x2ED429, size: 0x8, addend: 0x0, symName: '__ZN4core3ptr94drop_in_place$LT$syn..punctuated..Punctuated$LT$syn..ty..BareFnArg$C$syn..token..Comma$GT$$GT$17h7ba4c699ee390ebaE', symObjAddr: 0xEF00, symBinAddr: 0x99AA0, symSize: 0xF0 }
  - { offsetInCU: 0x3A746, offset: 0x2ED744, size: 0x8, addend: 0x0, symName: '__ZN4core3ptr95drop_in_place$LT$core..option..Option$LT$$LP$proc_macro2..Ident$C$syn..token..Colon$RP$$GT$$GT$17h59fe297999aa3329E.llvm.14025449986115119833', symObjAddr: 0xEFF0, symBinAddr: 0x99B90, symSize: 0x30 }
  - { offsetInCU: 0x3A861, offset: 0x2ED85F, size: 0x8, addend: 0x0, symName: '__ZN4core3ptr96drop_in_place$LT$alloc..vec..Vec$LT$$LP$syn..path..PathSegment$C$syn..token..PathSep$RP$$GT$$GT$17h69d97f03bb66469bE.llvm.14025449986115119833', symObjAddr: 0xF020, symBinAddr: 0x99BC0, symSize: 0xD0 }
  - { offsetInCU: 0x3AB5E, offset: 0x2EDB5C, size: 0x8, addend: 0x0, symName: '__ZN4core3ptr96drop_in_place$LT$core..option..Option$LT$alloc..boxed..Box$LT$syn..path..PathSegment$GT$$GT$$GT$17h5de12a5a0f9e9ef9E', symObjAddr: 0xF0F0, symBinAddr: 0x99C90, symSize: 0xA0 }
  - { offsetInCU: 0x3AE3A, offset: 0x2EDE38, size: 0x8, addend: 0x0, symName: '__ZN4core3ptr97drop_in_place$LT$syn..punctuated..Punctuated$LT$syn..expr..FieldValue$C$syn..token..Comma$GT$$GT$17hf58d0a9a09266ab3E', symObjAddr: 0xF1E0, symBinAddr: 0x99D30, symSize: 0xF0 }
  - { offsetInCU: 0x3B151, offset: 0x2EE14F, size: 0x8, addend: 0x0, symName: '__ZN4core3ptr98drop_in_place$LT$alloc..vec..Vec$LT$$LP$syn..path..GenericArgument$C$syn..token..Comma$RP$$GT$$GT$17h0dee282a026d5a38E.llvm.14025449986115119833', symObjAddr: 0xF2D0, symBinAddr: 0x99E20, symSize: 0xD0 }
  - { offsetInCU: 0x3B48E, offset: 0x2EE48C, size: 0x8, addend: 0x0, symName: '__ZN4core3ptr98drop_in_place$LT$syn..punctuated..Punctuated$LT$syn..lifetime..Lifetime$C$syn..token..Plus$GT$$GT$17h600c2b78f78fd2b9E.llvm.14025449986115119833', symObjAddr: 0xF3A0, symBinAddr: 0x99EF0, symSize: 0xD0 }
  - { offsetInCU: 0x3B900, offset: 0x2EE8FE, size: 0x8, addend: 0x0, symName: '__ZN4core3ptr99drop_in_place$LT$alloc..vec..Vec$LT$$LP$syn..generics..GenericParam$C$syn..token..Comma$RP$$GT$$GT$17haeaa257234ab8b89E.llvm.14025449986115119833', symObjAddr: 0xF470, symBinAddr: 0x99FC0, symSize: 0xD0 }
  - { offsetInCU: 0x3C023, offset: 0x2EF021, size: 0x8, addend: 0x0, symName: '__ZN42_$LT$$RF$T$u20$as$u20$core..fmt..Debug$GT$3fmt17h758ab51884d35a1aE', symObjAddr: 0x1A0, symBinAddr: 0x8ADD0, symSize: 0x80 }
  - { offsetInCU: 0x3C225, offset: 0x2EF223, size: 0x8, addend: 0x0, symName: '__ZN42_$LT$$RF$T$u20$as$u20$core..fmt..Debug$GT$3fmt17hd75f14d0cf92e165E', symObjAddr: 0x220, symBinAddr: 0x8AE50, symSize: 0x80 }
  - { offsetInCU: 0x4150D, offset: 0x2F450B, size: 0x8, addend: 0x0, symName: '__ZN48_$LT$T$u20$as$u20$core..clone..CloneToUninit$GT$15clone_to_uninit17h573d7a4ee27ed36aE', symObjAddr: 0x2A0, symBinAddr: 0x8AED0, symSize: 0x330 }
  - { offsetInCU: 0x42716, offset: 0x2F5714, size: 0x8, addend: 0x0, symName: '__ZN136_$LT$alloc..vec..Vec$LT$T$C$A$GT$$u20$as$u20$alloc..vec..spec_extend..SpecExtend$LT$T$C$alloc..vec..into_iter..IntoIter$LT$T$GT$$GT$$GT$11spec_extend17hccc28cc1a2272c75E', symObjAddr: 0x100, symBinAddr: 0x8AD30, symSize: 0xA0 }
  - { offsetInCU: 0x42A49, offset: 0x2F5A47, size: 0x8, addend: 0x0, symName: '__ZN97_$LT$alloc..vec..Vec$LT$T$C$A$GT$$u20$as$u20$alloc..vec..spec_extend..SpecExtend$LT$T$C$I$GT$$GT$11spec_extend17ha7b17e62345c5d54E', symObjAddr: 0x13200, symBinAddr: 0x9C810, symSize: 0x330 }
  - { offsetInCU: 0x43A78, offset: 0x2F6A76, size: 0x8, addend: 0x0, symName: '__ZN65_$LT$alloc..vec..Vec$LT$T$C$A$GT$$u20$as$u20$core..fmt..Debug$GT$3fmt17h0776bf106e76a4cfE', symObjAddr: 0xF710, symBinAddr: 0x9A120, symSize: 0x80 }
  - { offsetInCU: 0x43C5B, offset: 0x2F6C59, size: 0x8, addend: 0x0, symName: '__ZN65_$LT$alloc..vec..Vec$LT$T$C$A$GT$$u20$as$u20$core..fmt..Debug$GT$3fmt17h38904bcc75ecb31fE', symObjAddr: 0xF790, symBinAddr: 0x9A1A0, symSize: 0x80 }
  - { offsetInCU: 0x43E3E, offset: 0x2F6E3C, size: 0x8, addend: 0x0, symName: '__ZN65_$LT$alloc..vec..Vec$LT$T$C$A$GT$$u20$as$u20$core..fmt..Debug$GT$3fmt17h457af28f9230c771E', symObjAddr: 0xF810, symBinAddr: 0x9A220, symSize: 0x80 }
  - { offsetInCU: 0x44021, offset: 0x2F701F, size: 0x8, addend: 0x0, symName: '__ZN65_$LT$alloc..vec..Vec$LT$T$C$A$GT$$u20$as$u20$core..fmt..Debug$GT$3fmt17h78353a29ca907f42E', symObjAddr: 0xF990, symBinAddr: 0x9A2A0, symSize: 0x80 }
  - { offsetInCU: 0x44204, offset: 0x2F7202, size: 0x8, addend: 0x0, symName: '__ZN65_$LT$alloc..vec..Vec$LT$T$C$A$GT$$u20$as$u20$core..fmt..Debug$GT$3fmt17h7a1e9f0ab38cda9bE', symObjAddr: 0xFA10, symBinAddr: 0x9A320, symSize: 0x80 }
  - { offsetInCU: 0x443E7, offset: 0x2F73E5, size: 0x8, addend: 0x0, symName: '__ZN65_$LT$alloc..vec..Vec$LT$T$C$A$GT$$u20$as$u20$core..fmt..Debug$GT$3fmt17h7df35ea0f5de10d6E', symObjAddr: 0xFA90, symBinAddr: 0x9A3A0, symSize: 0x80 }
  - { offsetInCU: 0x445B9, offset: 0x2F75B7, size: 0x8, addend: 0x0, symName: '__ZN65_$LT$alloc..vec..Vec$LT$T$C$A$GT$$u20$as$u20$core..fmt..Debug$GT$3fmt17haa7667db208ac38aE', symObjAddr: 0xFB10, symBinAddr: 0x9A420, symSize: 0x80 }
  - { offsetInCU: 0x447E0, offset: 0x2F77DE, size: 0x8, addend: 0x0, symName: '__ZN67_$LT$alloc..vec..Vec$LT$T$C$A$GT$$u20$as$u20$core..clone..Clone$GT$5clone17h0918c192fa05002fE', symObjAddr: 0xFC70, symBinAddr: 0x9A4A0, symSize: 0x0 }
  - { offsetInCU: 0x44C12, offset: 0x2F7C10, size: 0x8, addend: 0x0, symName: '__ZN67_$LT$alloc..vec..Vec$LT$T$C$A$GT$$u20$as$u20$core..clone..Clone$GT$5clone17h12f34926ea9f1126E', symObjAddr: 0xFDC0, symBinAddr: 0x9A5F0, symSize: 0x140 }
  - { offsetInCU: 0x45043, offset: 0x2F8041, size: 0x8, addend: 0x0, symName: '__ZN67_$LT$alloc..vec..Vec$LT$T$C$A$GT$$u20$as$u20$core..clone..Clone$GT$5clone17h198f7ad4e9731601E', symObjAddr: 0xFF00, symBinAddr: 0x9A730, symSize: 0x150 }
  - { offsetInCU: 0x45475, offset: 0x2F8473, size: 0x8, addend: 0x0, symName: '__ZN67_$LT$alloc..vec..Vec$LT$T$C$A$GT$$u20$as$u20$core..clone..Clone$GT$5clone17h1c4556f52f9d0d47E', symObjAddr: 0x10050, symBinAddr: 0x9A880, symSize: 0x140 }
  - { offsetInCU: 0x45851, offset: 0x2F884F, size: 0x8, addend: 0x0, symName: '__ZN67_$LT$alloc..vec..Vec$LT$T$C$A$GT$$u20$as$u20$core..clone..Clone$GT$5clone17h231253a81e7a58bbE', symObjAddr: 0x10190, symBinAddr: 0x9A9C0, symSize: 0x140 }
  - { offsetInCU: 0x45C83, offset: 0x2F8C81, size: 0x8, addend: 0x0, symName: '__ZN67_$LT$alloc..vec..Vec$LT$T$C$A$GT$$u20$as$u20$core..clone..Clone$GT$5clone17h26458e8ef80c3a9bE', symObjAddr: 0x102D0, symBinAddr: 0x9AB00, symSize: 0x150 }
  - { offsetInCU: 0x460B5, offset: 0x2F90B3, size: 0x8, addend: 0x0, symName: '__ZN67_$LT$alloc..vec..Vec$LT$T$C$A$GT$$u20$as$u20$core..clone..Clone$GT$5clone17h2b24796f45520c7bE', symObjAddr: 0x10420, symBinAddr: 0x9AC50, symSize: 0x140 }
  - { offsetInCU: 0x46491, offset: 0x2F948F, size: 0x8, addend: 0x0, symName: '__ZN67_$LT$alloc..vec..Vec$LT$T$C$A$GT$$u20$as$u20$core..clone..Clone$GT$5clone17h2f79e88de7934928E', symObjAddr: 0x10560, symBinAddr: 0x9AD90, symSize: 0x140 }
  - { offsetInCU: 0x4686D, offset: 0x2F986B, size: 0x8, addend: 0x0, symName: '__ZN67_$LT$alloc..vec..Vec$LT$T$C$A$GT$$u20$as$u20$core..clone..Clone$GT$5clone17h31bc48edccfa1915E', symObjAddr: 0x106A0, symBinAddr: 0x9AED0, symSize: 0x240 }
  - { offsetInCU: 0x46E8D, offset: 0x2F9E8B, size: 0x8, addend: 0x0, symName: '__ZN67_$LT$alloc..vec..Vec$LT$T$C$A$GT$$u20$as$u20$core..clone..Clone$GT$5clone17h363befc284095627E', symObjAddr: 0x108E0, symBinAddr: 0x9B110, symSize: 0x150 }
  - { offsetInCU: 0x472BF, offset: 0x2FA2BD, size: 0x8, addend: 0x0, symName: '__ZN67_$LT$alloc..vec..Vec$LT$T$C$A$GT$$u20$as$u20$core..clone..Clone$GT$5clone17h4573a12392f30b82E', symObjAddr: 0x10A30, symBinAddr: 0x9B260, symSize: 0x1A0 }
  - { offsetInCU: 0x4774A, offset: 0x2FA748, size: 0x8, addend: 0x0, symName: '__ZN67_$LT$alloc..vec..Vec$LT$T$C$A$GT$$u20$as$u20$core..clone..Clone$GT$5clone17h66d29e7a7f7f75a3E', symObjAddr: 0x10BD0, symBinAddr: 0x9B400, symSize: 0x140 }
  - { offsetInCU: 0x47B26, offset: 0x2FAB24, size: 0x8, addend: 0x0, symName: '__ZN67_$LT$alloc..vec..Vec$LT$T$C$A$GT$$u20$as$u20$core..clone..Clone$GT$5clone17h6e06f5a531199142E', symObjAddr: 0x10D10, symBinAddr: 0x9B540, symSize: 0x180 }
  - { offsetInCU: 0x47FFD, offset: 0x2FAFFB, size: 0x8, addend: 0x0, symName: '__ZN67_$LT$alloc..vec..Vec$LT$T$C$A$GT$$u20$as$u20$core..clone..Clone$GT$5clone17h7130fcf6814bc045E', symObjAddr: 0x10E90, symBinAddr: 0x9B6C0, symSize: 0x150 }
  - { offsetInCU: 0x4842F, offset: 0x2FB42D, size: 0x8, addend: 0x0, symName: '__ZN67_$LT$alloc..vec..Vec$LT$T$C$A$GT$$u20$as$u20$core..clone..Clone$GT$5clone17h7665f3814d75ccf2E', symObjAddr: 0x10FE0, symBinAddr: 0x9B810, symSize: 0x150 }
  - { offsetInCU: 0x48861, offset: 0x2FB85F, size: 0x8, addend: 0x0, symName: '__ZN67_$LT$alloc..vec..Vec$LT$T$C$A$GT$$u20$as$u20$core..clone..Clone$GT$5clone17h81c8c2fa81ddf714E', symObjAddr: 0x11130, symBinAddr: 0x9B960, symSize: 0x160 }
  - { offsetInCU: 0x48CD4, offset: 0x2FBCD2, size: 0x8, addend: 0x0, symName: '__ZN67_$LT$alloc..vec..Vec$LT$T$C$A$GT$$u20$as$u20$core..clone..Clone$GT$5clone17h95e57492d3a10cc0E', symObjAddr: 0x113F0, symBinAddr: 0x9BAC0, symSize: 0x140 }
  - { offsetInCU: 0x490B0, offset: 0x2FC0AE, size: 0x8, addend: 0x0, symName: '__ZN67_$LT$alloc..vec..Vec$LT$T$C$A$GT$$u20$as$u20$core..clone..Clone$GT$5clone17ha4bb515f2984f91aE', symObjAddr: 0x11530, symBinAddr: 0x9BC00, symSize: 0x150 }
  - { offsetInCU: 0x494E2, offset: 0x2FC4E0, size: 0x8, addend: 0x0, symName: '__ZN67_$LT$alloc..vec..Vec$LT$T$C$A$GT$$u20$as$u20$core..clone..Clone$GT$5clone17haa8bb6b2679cb284E', symObjAddr: 0x11680, symBinAddr: 0x9BD50, symSize: 0x240 }
  - { offsetInCU: 0x49ADA, offset: 0x2FCAD8, size: 0x8, addend: 0x0, symName: '__ZN67_$LT$alloc..vec..Vec$LT$T$C$A$GT$$u20$as$u20$core..clone..Clone$GT$5clone17hbc42148281c8a2c5E', symObjAddr: 0x118C0, symBinAddr: 0x9BF90, symSize: 0x150 }
  - { offsetInCU: 0x49F0C, offset: 0x2FCF0A, size: 0x8, addend: 0x0, symName: '__ZN67_$LT$alloc..vec..Vec$LT$T$C$A$GT$$u20$as$u20$core..clone..Clone$GT$5clone17hdea0838f2711b888E', symObjAddr: 0x11A10, symBinAddr: 0x9C0E0, symSize: 0x180 }
  - { offsetInCU: 0x4A40D, offset: 0x2FD40B, size: 0x8, addend: 0x0, symName: '__ZN67_$LT$alloc..vec..Vec$LT$T$C$A$GT$$u20$as$u20$core..clone..Clone$GT$5clone17he6fccb5bd9282467E', symObjAddr: 0x11B90, symBinAddr: 0x9C260, symSize: 0x150 }
  - { offsetInCU: 0x4A83F, offset: 0x2FD83D, size: 0x8, addend: 0x0, symName: '__ZN67_$LT$alloc..vec..Vec$LT$T$C$A$GT$$u20$as$u20$core..clone..Clone$GT$5clone17hfc43050c7448a50aE', symObjAddr: 0x11CE0, symBinAddr: 0x9C3B0, symSize: 0x140 }
  - { offsetInCU: 0x4AC1B, offset: 0x2FDC19, size: 0x8, addend: 0x0, symName: '__ZN67_$LT$alloc..vec..Vec$LT$T$C$A$GT$$u20$as$u20$core..clone..Clone$GT$5clone17hffa782808f95fe1aE', symObjAddr: 0x11E20, symBinAddr: 0x9C4F0, symSize: 0x140 }
  - { offsetInCU: 0x4B4CA, offset: 0x2FE4C8, size: 0x8, addend: 0x0, symName: '__ZN70_$LT$alloc..vec..Vec$LT$T$C$A$GT$$u20$as$u20$core..ops..drop..Drop$GT$4drop17h04459a2ad506febfE', symObjAddr: 0x11F60, symBinAddr: 0x9C630, symSize: 0xB0 }
  - { offsetInCU: 0x4B52C, offset: 0x2FE52A, size: 0x8, addend: 0x0, symName: '__ZN70_$LT$alloc..vec..Vec$LT$T$C$A$GT$$u20$as$u20$core..ops..drop..Drop$GT$4drop17h16fdfee690a97aabE', symObjAddr: 0x12150, symBinAddr: 0x9C6E0, symSize: 0xB0 }
  - { offsetInCU: 0x4B6A7, offset: 0x2FE6A5, size: 0x8, addend: 0x0, symName: '__ZN70_$LT$alloc..vec..Vec$LT$T$C$A$GT$$u20$as$u20$core..ops..drop..Drop$GT$4drop17h24dac77de93830d0E', symObjAddr: 0x12330, symBinAddr: 0x9C790, symSize: 0x80 }
  - { offsetInCU: 0x4B8BF, offset: 0x2FE8BD, size: 0x8, addend: 0x0, symName: '__ZN98_$LT$alloc..vec..Vec$LT$T$GT$$u20$as$u20$alloc..vec..spec_from_iter..SpecFromIter$LT$T$C$I$GT$$GT$9from_iter17h6e6b4d1f1d74a521E', symObjAddr: 0x137A0, symBinAddr: 0x9CB40, symSize: 0x2F0 }
  - { offsetInCU: 0x50D98, offset: 0x303D96, size: 0x8, addend: 0x0, symName: '__ZN5alloc3vec16Vec$LT$T$C$A$GT$16into_boxed_slice17hf01fc5c9dc27910bE', symObjAddr: 0xF5D0, symBinAddr: 0x9A090, symSize: 0x90 }
  - { offsetInCU: 0x1E, offset: 0x318FA7, size: 0x8, addend: 0x0, symName: '__ZN4core3ptr100drop_in_place$LT$core..option..Option$LT$alloc..boxed..Box$LT$syn..path..GenericArgument$GT$$GT$$GT$17h3a7c44b9e57fe410E', symObjAddr: 0x0, symBinAddr: 0x9CE30, symSize: 0x50 }
  - { offsetInCU: 0xA8, offset: 0x319031, size: 0x8, addend: 0x0, symName: '__ZN58_$LT$alloc..string..String$u20$as$u20$core..fmt..Write$GT$10write_char17h04bc467bd68a934bE', symObjAddr: 0x71C0, symBinAddr: 0xA3FF0, symSize: 0x140 }
  - { offsetInCU: 0x4AD, offset: 0x319436, size: 0x8, addend: 0x0, symName: '__ZN58_$LT$alloc..string..String$u20$as$u20$core..fmt..Write$GT$9write_str17h46a93205c3443fbaE', symObjAddr: 0x7300, symBinAddr: 0xA4130, symSize: 0x60 }
  - { offsetInCU: 0x1455, offset: 0x31A3DE, size: 0x8, addend: 0x0, symName: __ZN5alloc5alloc15exchange_malloc17h9a87608d0224859dE, symObjAddr: 0x7360, symBinAddr: 0xA4190, symSize: 0x40 }
  - { offsetInCU: 0x37F8, offset: 0x31C781, size: 0x8, addend: 0x0, symName: '__ZN4core3ptr100drop_in_place$LT$core..option..Option$LT$alloc..boxed..Box$LT$syn..path..GenericArgument$GT$$GT$$GT$17h3a7c44b9e57fe410E', symObjAddr: 0x0, symBinAddr: 0x9CE30, symSize: 0x50 }
  - { offsetInCU: 0x39C5, offset: 0x31C94E, size: 0x8, addend: 0x0, symName: '__ZN4core3ptr102drop_in_place$LT$syn..punctuated..Punctuated$LT$syn..path..GenericArgument$C$syn..token..Comma$GT$$GT$17h8b1978399cfff48bE', symObjAddr: 0x50, symBinAddr: 0x9CE80, symSize: 0xF0 }
  - { offsetInCU: 0x3CE5, offset: 0x31CC6E, size: 0x8, addend: 0x0, symName: '__ZN4core3ptr103drop_in_place$LT$core..option..Option$LT$alloc..boxed..Box$LT$syn..generics..TypeParamBound$GT$$GT$$GT$17hb14e4384a768542bE', symObjAddr: 0x140, symBinAddr: 0x9CF70, symSize: 0x50 }
  - { offsetInCU: 0x3EF0, offset: 0x31CE79, size: 0x8, addend: 0x0, symName: '__ZN4core3ptr103drop_in_place$LT$syn..punctuated..Punctuated$LT$syn..generics..GenericParam$C$syn..token..Comma$GT$$GT$17h0c6077a988036760E', symObjAddr: 0x190, symBinAddr: 0x9CFC0, symSize: 0xF0 }
  - { offsetInCU: 0x44C4, offset: 0x31D44D, size: 0x8, addend: 0x0, symName: '__ZN4core3ptr104drop_in_place$LT$syn..punctuated..Punctuated$LT$syn..generics..TypeParamBound$C$syn..token..Plus$GT$$GT$17h724e4d9d1d65061aE', symObjAddr: 0x280, symBinAddr: 0x9D0B0, symSize: 0x260 }
  - { offsetInCU: 0x4F0E, offset: 0x31DE97, size: 0x8, addend: 0x0, symName: '__ZN4core3ptr34drop_in_place$LT$syn..lit..Lit$GT$17hd64dde89a262341dE', symObjAddr: 0x4E0, symBinAddr: 0x9D310, symSize: 0x120 }
  - { offsetInCU: 0x53FC, offset: 0x31E385, size: 0x8, addend: 0x0, symName: '__ZN4core3ptr34drop_in_place$LT$syn..pat..Pat$GT$17hf88887878261d63cE', symObjAddr: 0x600, symBinAddr: 0x9D430, symSize: 0xF70 }
  - { offsetInCU: 0x9315, offset: 0x32229E, size: 0x8, addend: 0x0, symName: '__ZN4core3ptr34drop_in_place$LT$syn..ty..Type$GT$17ha80dd29b0f9d4a3fE', symObjAddr: 0x1570, symBinAddr: 0x9E3A0, symSize: 0x5A0 }
  - { offsetInCU: 0xACB1, offset: 0x323C3A, size: 0x8, addend: 0x0, symName: '__ZN4core3ptr36drop_in_place$LT$syn..expr..Expr$GT$17h10f573b40ddd212cE.llvm.15963643447187171253', symObjAddr: 0x1B10, symBinAddr: 0x9E940, symSize: 0x2760 }
  - { offsetInCU: 0x149A8, offset: 0x32D931, size: 0x8, addend: 0x0, symName: '__ZN4core3ptr36drop_in_place$LT$syn..mac..Macro$GT$17hc3b30a7a8a34cc2dE', symObjAddr: 0x4270, symBinAddr: 0xA10A0, symSize: 0x110 }
  - { offsetInCU: 0x14E45, offset: 0x32DDCE, size: 0x8, addend: 0x0, symName: '__ZN4core3ptr36drop_in_place$LT$syn..path..Path$GT$17h75c74a97d5f0a03bE', symObjAddr: 0x4380, symBinAddr: 0xA11B0, symSize: 0x280 }
  - { offsetInCU: 0x158F2, offset: 0x32E87B, size: 0x8, addend: 0x0, symName: '__ZN4core3ptr37drop_in_place$LT$syn..stmt..Block$GT$17h6fc3254d5688f2c3E', symObjAddr: 0x4600, symBinAddr: 0xA1430, symSize: 0xD0 }
  - { offsetInCU: 0x15BC9, offset: 0x32EB52, size: 0x8, addend: 0x0, symName: '__ZN4core3ptr38drop_in_place$LT$syn..expr..Member$GT$17h6b0cf84594ce6bceE', symObjAddr: 0x46D0, symBinAddr: 0xA1500, symSize: 0x30 }
  - { offsetInCU: 0x15D60, offset: 0x32ECE9, size: 0x8, addend: 0x0, symName: '__ZN4core3ptr38drop_in_place$LT$syn..group..Group$GT$17ha3c6933df6efe66fE', symObjAddr: 0x4700, symBinAddr: 0xA1530, symSize: 0x70 }
  - { offsetInCU: 0x16058, offset: 0x32EFE1, size: 0x8, addend: 0x0, symName: '__ZN4core3ptr39drop_in_place$LT$proc_macro2..Ident$GT$17ha28fef9769e267d9E', symObjAddr: 0x4770, symBinAddr: 0xA15A0, symSize: 0x30 }
  - { offsetInCU: 0x16173, offset: 0x32F0FC, size: 0x8, addend: 0x0, symName: '__ZN4core3ptr39drop_in_place$LT$syn..lit..LitFloat$GT$17h83bfdc788eb6081bE', symObjAddr: 0x47A0, symBinAddr: 0xA15D0, symSize: 0x70 }
  - { offsetInCU: 0x164E5, offset: 0x32F46E, size: 0x8, addend: 0x0, symName: '__ZN4core3ptr40drop_in_place$LT$syn..expr..ExprPath$GT$17h1e579ab03db12453E', symObjAddr: 0x4810, symBinAddr: 0xA1640, symSize: 0x110 }
  - { offsetInCU: 0x16948, offset: 0x32F8D1, size: 0x8, addend: 0x0, symName: '__ZN4core3ptr40drop_in_place$LT$syn..ty..ReturnType$GT$17h035a612e322b6510E', symObjAddr: 0x4920, symBinAddr: 0xA1750, symSize: 0x50 }
  - { offsetInCU: 0x16B15, offset: 0x32FA9E, size: 0x8, addend: 0x0, symName: '__ZN4core3ptr41drop_in_place$LT$syn..attr..Attribute$GT$17h326c12be3efddb0cE', symObjAddr: 0x4970, symBinAddr: 0xA17A0, symSize: 0xA0 }
  - { offsetInCU: 0x16B90, offset: 0x32FB19, size: 0x8, addend: 0x0, symName: '__ZN4core3ptr41drop_in_place$LT$syn..expr..ExprConst$GT$17hbfe19d5d621e6836E', symObjAddr: 0x4A10, symBinAddr: 0xA1840, symSize: 0x180 }
  - { offsetInCU: 0x1717D, offset: 0x330106, size: 0x8, addend: 0x0, symName: '__ZN4core3ptr42drop_in_place$LT$alloc..string..String$GT$17h9acfda4d1b128177E', symObjAddr: 0x4B90, symBinAddr: 0xA19C0, symSize: 0x20 }
  - { offsetInCU: 0x17285, offset: 0x33020E, size: 0x8, addend: 0x0, symName: '__ZN4core3ptr44drop_in_place$LT$syn..lifetime..Lifetime$GT$17he37fa474f03de7b1E', symObjAddr: 0x4BB0, symBinAddr: 0xA19E0, symSize: 0x30 }
  - { offsetInCU: 0x17381, offset: 0x33030A, size: 0x8, addend: 0x0, symName: '__ZN4core3ptr44drop_in_place$LT$syn..parse..ParseBuffer$GT$17hf792ff20095efc35E', symObjAddr: 0x4BE0, symBinAddr: 0xA1A10, symSize: 0x70 }
  - { offsetInCU: 0x17798, offset: 0x330721, size: 0x8, addend: 0x0, symName: '__ZN4core3ptr45drop_in_place$LT$proc_macro2..TokenStream$GT$17h76e8e68015f4924dE', symObjAddr: 0x4C50, symBinAddr: 0xA1A80, symSize: 0x140 }
  - { offsetInCU: 0x17C32, offset: 0x330BBB, size: 0x8, addend: 0x0, symName: '__ZN4core3ptr45drop_in_place$LT$syn..generics..TypeParam$GT$17h188a459c1380ac75E', symObjAddr: 0x4D90, symBinAddr: 0xA1BC0, symSize: 0x230 }
  - { offsetInCU: 0x184A7, offset: 0x331430, size: 0x8, addend: 0x0, symName: '__ZN4core3ptr46drop_in_place$LT$syn..generics..ConstParam$GT$17h7a9b900b2b88bfcdE', symObjAddr: 0x4FC0, symBinAddr: 0xA1DF0, symSize: 0x150 }
  - { offsetInCU: 0x18928, offset: 0x3318B1, size: 0x8, addend: 0x0, symName: '__ZN4core3ptr47drop_in_place$LT$syn..path..GenericArgument$GT$17h593f06d6ca9a94d2E', symObjAddr: 0x5110, symBinAddr: 0xA1F40, symSize: 0x450 }
  - { offsetInCU: 0x1969E, offset: 0x332627, size: 0x8, addend: 0x0, symName: '__ZN4core3ptr49drop_in_place$LT$syn..generics..LifetimeParam$GT$17h3a8835ab294bfd16E', symObjAddr: 0x5560, symBinAddr: 0xA2390, symSize: 0xF0 }
  - { offsetInCU: 0x19AB5, offset: 0x332A3E, size: 0x8, addend: 0x0, symName: '__ZN4core3ptr50drop_in_place$LT$syn..generics..TypeParamBound$GT$17h81b4325b5900604dE', symObjAddr: 0x5650, symBinAddr: 0xA2480, symSize: 0xA0 }
  - { offsetInCU: 0x19C1B, offset: 0x332BA4, size: 0x8, addend: 0x0, symName: '__ZN4core3ptr58drop_in_place$LT$alloc..vec..Vec$LT$syn..expr..Arm$GT$$GT$17hff9224aadf2233b8E', symObjAddr: 0x56F0, symBinAddr: 0xA2520, symSize: 0xD0 }
  - { offsetInCU: 0x19EDB, offset: 0x332E64, size: 0x8, addend: 0x0, symName: '__ZN4core3ptr59drop_in_place$LT$alloc..boxed..Box$LT$syn..pat..Pat$GT$$GT$17h622b0c1db21c0742E', symObjAddr: 0x57C0, symBinAddr: 0xA25F0, symSize: 0x50 }
  - { offsetInCU: 0x1A034, offset: 0x332FBD, size: 0x8, addend: 0x0, symName: '__ZN4core3ptr59drop_in_place$LT$alloc..boxed..Box$LT$syn..ty..Type$GT$$GT$17hde45fa887dd8b605E', symObjAddr: 0x5810, symBinAddr: 0xA2640, symSize: 0x50 }
  - { offsetInCU: 0x1A18D, offset: 0x333116, size: 0x8, addend: 0x0, symName: '__ZN4core3ptr61drop_in_place$LT$alloc..boxed..Box$LT$syn..expr..Expr$GT$$GT$17hbb42293869113942E', symObjAddr: 0x5860, symBinAddr: 0xA2690, symSize: 0x50 }
  - { offsetInCU: 0x1A2E6, offset: 0x33326F, size: 0x8, addend: 0x0, symName: '__ZN4core3ptr61drop_in_place$LT$syn..path..ParenthesizedGenericArguments$GT$17h6b1731382637937fE', symObjAddr: 0x58B0, symBinAddr: 0xA26E0, symSize: 0x170 }
  - { offsetInCU: 0x1A8EF, offset: 0x333878, size: 0x8, addend: 0x0, symName: '__ZN4core3ptr63drop_in_place$LT$alloc..boxed..Box$LT$syn..lit..LitRepr$GT$$GT$17h6e3a82ea4de7b84cE', symObjAddr: 0x5A20, symBinAddr: 0xA2850, symSize: 0x60 }
  - { offsetInCU: 0x1ABF6, offset: 0x333B7F, size: 0x8, addend: 0x0, symName: '__ZN4core3ptr64drop_in_place$LT$alloc..boxed..Box$LT$syn..pat..FieldPat$GT$$GT$17hbf8f4867d84bd25dE', symObjAddr: 0x5A80, symBinAddr: 0xA28B0, symSize: 0x140 }
  - { offsetInCU: 0x1B2F7, offset: 0x334280, size: 0x8, addend: 0x0, symName: '__ZN4core3ptr64drop_in_place$LT$alloc..boxed..Box$LT$syn..ty..BareFnArg$GT$$GT$17h6be6354eb1d1364dE', symObjAddr: 0x5BC0, symBinAddr: 0xA29F0, symSize: 0x140 }
  - { offsetInCU: 0x1B880, offset: 0x334809, size: 0x8, addend: 0x0, symName: '__ZN4core3ptr64drop_in_place$LT$alloc..vec..Vec$LT$syn..attr..Attribute$GT$$GT$17he33e25539d5885aeE.llvm.15963643447187171253', symObjAddr: 0x5D00, symBinAddr: 0xA2B30, symSize: 0xD0 }
  - { offsetInCU: 0x1BB74, offset: 0x334AFD, size: 0x8, addend: 0x0, symName: '__ZN4core3ptr65drop_in_place$LT$alloc..vec..Vec$LT$proc_macro..TokenTree$GT$$GT$17h8abd81f8596dbc59E', symObjAddr: 0x5DD0, symBinAddr: 0xA2C00, symSize: 0x110 }
  - { offsetInCU: 0x1BF6C, offset: 0x334EF5, size: 0x8, addend: 0x0, symName: '__ZN4core3ptr65drop_in_place$LT$core..option..Option$LT$syn..expr..Label$GT$$GT$17hac599686b33ef364E', symObjAddr: 0x5EE0, symBinAddr: 0xA2D10, symSize: 0x30 }
  - { offsetInCU: 0x1C0A6, offset: 0x33502F, size: 0x8, addend: 0x0, symName: '__ZN4core3ptr65drop_in_place$LT$core..option..Option$LT$syn..path..QSelf$GT$$GT$17h0b8dd5cda5f2cd6bE', symObjAddr: 0x5F10, symBinAddr: 0xA2D40, symSize: 0x50 }
  - { offsetInCU: 0x1C227, offset: 0x3351B0, size: 0x8, addend: 0x0, symName: '__ZN4core3ptr66drop_in_place$LT$core..option..Option$LT$syn..pat..PatRest$GT$$GT$17hd5bb3bc28aa78ac1E', symObjAddr: 0x5F60, symBinAddr: 0xA2D90, symSize: 0xE0 }
  - { offsetInCU: 0x1C54F, offset: 0x3354D8, size: 0x8, addend: 0x0, symName: '__ZN4core3ptr67drop_in_place$LT$alloc..boxed..Box$LT$syn..expr..FieldValue$GT$$GT$17hbbcf67a9d5e9863cE', symObjAddr: 0x6040, symBinAddr: 0xA2E70, symSize: 0x140 }
  - { offsetInCU: 0x1CAD7, offset: 0x335A60, size: 0x8, addend: 0x0, symName: '__ZN4core3ptr70drop_in_place$LT$core..option..Option$LT$syn..ty..BareVariadic$GT$$GT$17h79a19250e9f043b1E', symObjAddr: 0x6180, symBinAddr: 0xA2FB0, symSize: 0x100 }
  - { offsetInCU: 0x1CF42, offset: 0x335ECB, size: 0x8, addend: 0x0, symName: '__ZN4core3ptr72drop_in_place$LT$alloc..boxed..Box$LT$syn..path..GenericArgument$GT$$GT$17hfd308d374af4273dE', symObjAddr: 0x6280, symBinAddr: 0xA30B0, symSize: 0x2B0 }
  - { offsetInCU: 0x1D953, offset: 0x3368DC, size: 0x8, addend: 0x0, symName: '__ZN4core3ptr72drop_in_place$LT$core..option..Option$LT$syn..lifetime..Lifetime$GT$$GT$17h49cce6f02f9c0590E', symObjAddr: 0x6530, symBinAddr: 0xA3360, symSize: 0x30 }
  - { offsetInCU: 0x1DA6E, offset: 0x3369F7, size: 0x8, addend: 0x0, symName: '__ZN4core3ptr73drop_in_place$LT$alloc..boxed..Box$LT$syn..generics..GenericParam$GT$$GT$17ha26d5d145af4b203E', symObjAddr: 0x6560, symBinAddr: 0xA3390, symSize: 0x80 }
  - { offsetInCU: 0x1DBE4, offset: 0x336B6D, size: 0x8, addend: 0x0, symName: '__ZN4core3ptr75drop_in_place$LT$alloc..boxed..Box$LT$syn..generics..TypeParamBound$GT$$GT$17h129a4e927e5eb81bE', symObjAddr: 0x65E0, symBinAddr: 0xA3410, symSize: 0x1B0 }
  - { offsetInCU: 0x1E2E3, offset: 0x33726C, size: 0x8, addend: 0x0, symName: '__ZN4core3ptr83drop_in_place$LT$core..result..Result$LT$syn..op..BinOp$C$syn..error..Error$GT$$GT$17h495a3ee3d6e6a47dE', symObjAddr: 0x6790, symBinAddr: 0xA35C0, symSize: 0x80 }
  - { offsetInCU: 0x1E5FD, offset: 0x337586, size: 0x8, addend: 0x0, symName: '__ZN4core3ptr86drop_in_place$LT$syn..punctuated..Punctuated$LT$syn..pat..Pat$C$syn..token..Or$GT$$GT$17h9cc6b5f7b6d3a555E', symObjAddr: 0x6810, symBinAddr: 0xA3640, symSize: 0x120 }
  - { offsetInCU: 0x1EA78, offset: 0x337A01, size: 0x8, addend: 0x0, symName: '__ZN4core3ptr87drop_in_place$LT$core..option..Option$LT$alloc..boxed..Box$LT$syn..pat..Pat$GT$$GT$$GT$17h51cd48973d96c411E', symObjAddr: 0x6930, symBinAddr: 0xA3760, symSize: 0x50 }
  - { offsetInCU: 0x1EBE8, offset: 0x337B71, size: 0x8, addend: 0x0, symName: '__ZN4core3ptr87drop_in_place$LT$core..option..Option$LT$alloc..boxed..Box$LT$syn..ty..Type$GT$$GT$$GT$17h103a25a4a7d7374eE', symObjAddr: 0x6980, symBinAddr: 0xA37B0, symSize: 0x50 }
  - { offsetInCU: 0x1ED58, offset: 0x337CE1, size: 0x8, addend: 0x0, symName: '__ZN4core3ptr89drop_in_place$LT$core..option..Option$LT$alloc..boxed..Box$LT$syn..expr..Expr$GT$$GT$$GT$17h9e02509cb2345d44E', symObjAddr: 0x69D0, symBinAddr: 0xA3800, symSize: 0x50 }
  - { offsetInCU: 0x1EF06, offset: 0x337E8F, size: 0x8, addend: 0x0, symName: '__ZN4core3ptr89drop_in_place$LT$syn..punctuated..Punctuated$LT$syn..pat..Pat$C$syn..token..Comma$GT$$GT$17hd3a83c36827f210aE', symObjAddr: 0x6A20, symBinAddr: 0xA3850, symSize: 0x120 }
  - { offsetInCU: 0x1F3D6, offset: 0x33835F, size: 0x8, addend: 0x0, symName: '__ZN4core3ptr91drop_in_place$LT$syn..punctuated..Punctuated$LT$syn..expr..Expr$C$syn..token..Comma$GT$$GT$17h6f261e8f470c81f2E', symObjAddr: 0x6B40, symBinAddr: 0xA3970, symSize: 0x120 }
  - { offsetInCU: 0x1F864, offset: 0x3387ED, size: 0x8, addend: 0x0, symName: '__ZN4core3ptr94drop_in_place$LT$syn..punctuated..Punctuated$LT$syn..pat..FieldPat$C$syn..token..Comma$GT$$GT$17h43ec25af986ef674E', symObjAddr: 0x6C60, symBinAddr: 0xA3A90, symSize: 0xF0 }
  - { offsetInCU: 0x1FB63, offset: 0x338AEC, size: 0x8, addend: 0x0, symName: '__ZN4core3ptr94drop_in_place$LT$syn..punctuated..Punctuated$LT$syn..ty..BareFnArg$C$syn..token..Comma$GT$$GT$17h7ba4c699ee390ebaE', symObjAddr: 0x6D50, symBinAddr: 0xA3B80, symSize: 0xF0 }
  - { offsetInCU: 0x1FE64, offset: 0x338DED, size: 0x8, addend: 0x0, symName: '__ZN4core3ptr96drop_in_place$LT$core..option..Option$LT$alloc..boxed..Box$LT$syn..path..PathSegment$GT$$GT$$GT$17h5de12a5a0f9e9ef9E', symObjAddr: 0x6E40, symBinAddr: 0xA3C70, symSize: 0x1A0 }
  - { offsetInCU: 0x20525, offset: 0x3394AE, size: 0x8, addend: 0x0, symName: '__ZN4core3ptr97drop_in_place$LT$syn..punctuated..Punctuated$LT$syn..expr..FieldValue$C$syn..token..Comma$GT$$GT$17hf58d0a9a09266ab3E', symObjAddr: 0x6FE0, symBinAddr: 0xA3E10, symSize: 0xF0 }
  - { offsetInCU: 0x2089E, offset: 0x339827, size: 0x8, addend: 0x0, symName: '__ZN4core3ptr98drop_in_place$LT$syn..punctuated..Punctuated$LT$syn..lifetime..Lifetime$C$syn..token..Plus$GT$$GT$17h600c2b78f78fd2b9E', symObjAddr: 0x70D0, symBinAddr: 0xA3F00, symSize: 0xD0 }
  - { offsetInCU: 0x214D0, offset: 0x33A459, size: 0x8, addend: 0x0, symName: '__ZN53_$LT$core..fmt..Error$u20$as$u20$core..fmt..Debug$GT$3fmt17h03dc662ab152f3aeE', symObjAddr: 0x71A0, symBinAddr: 0xA3FD0, symSize: 0x20 }
  - { offsetInCU: 0x2C59C, offset: 0x345525, size: 0x8, addend: 0x0, symName: __ZN3syn4expr7parsing32parse_with_earlier_boundary_rule17h04da014a226fbbe5E, symObjAddr: 0x73A0, symBinAddr: 0xA41D0, symSize: 0x1430 }
  - { offsetInCU: 0x2E8DA, offset: 0x347863, size: 0x8, addend: 0x0, symName: __ZN3syn4expr7parsing14can_begin_expr17h4653549300b8351bE, symObjAddr: 0x87D0, symBinAddr: 0xA5600, symSize: 0x370 }
  - { offsetInCU: 0x2FA09, offset: 0x348992, size: 0x8, addend: 0x0, symName: __ZN3syn4expr7parsing10parse_expr17he948d695e5f3d52eE.llvm.15963643447187171253, symObjAddr: 0x8B40, symBinAddr: 0xA5970, symSize: 0x1330 }
  - { offsetInCU: 0x32831, offset: 0x34B7BA, size: 0x8, addend: 0x0, symName: __ZN3syn4expr7parsing15parse_binop_rhs17h6b864ca016112671E, symObjAddr: 0x9E70, symBinAddr: 0xA6CA0, symSize: 0x4E0 }
  - { offsetInCU: 0x3331D, offset: 0x34C2A6, size: 0x8, addend: 0x0, symName: __ZN3syn4expr7parsing14ambiguous_expr17h5b5bba9c148d94dbE, symObjAddr: 0xA350, symBinAddr: 0xA7180, symSize: 0xF0 }
  - { offsetInCU: 0x333A0, offset: 0x34C329, size: 0x8, addend: 0x0, symName: __ZN3syn4expr7parsing10expr_attrs17h79ae24352e9d9d57E, symObjAddr: 0xA440, symBinAddr: 0xA7270, symSize: 0x250 }
  - { offsetInCU: 0x33908, offset: 0x34C891, size: 0x8, addend: 0x0, symName: __ZN3syn4expr7parsing10unary_expr17h1634cdc87bf326dfE, symObjAddr: 0xA690, symBinAddr: 0xA74C0, symSize: 0x7C0 }
  - { offsetInCU: 0x34BA3, offset: 0x34DB2C, size: 0x8, addend: 0x0, symName: __ZN3syn4expr7parsing12trailer_expr17hd6c52758b73443cfE, symObjAddr: 0xAE50, symBinAddr: 0xA7C80, symSize: 0x1830 }
  - { offsetInCU: 0x385AE, offset: 0x351537, size: 0x8, addend: 0x0, symName: __ZN3syn4expr7parsing14trailer_helper17h681119187c5a546dE, symObjAddr: 0xC680, symBinAddr: 0xA94B0, symSize: 0x1F80 }
  - { offsetInCU: 0x3C801, offset: 0x35578A, size: 0x8, addend: 0x0, symName: __ZN3syn4expr7parsing12atom_labeled17h4604f459baf45e1eE, symObjAddr: 0xE600, symBinAddr: 0xAB430, symSize: 0x590 }
  - { offsetInCU: 0x3D100, offset: 0x356089, size: 0x8, addend: 0x0, symName: __ZN3syn4expr7parsing12expr_builtin17h8b5ff5122f88b230E, symObjAddr: 0xEB90, symBinAddr: 0xAB9C0, symSize: 0x410 }
  - { offsetInCU: 0x3DD2D, offset: 0x356CB6, size: 0x8, addend: 0x0, symName: __ZN3syn4expr7parsing23path_or_macro_or_struct17he515cb28f35d860eE, symObjAddr: 0xEFA0, symBinAddr: 0xABDD0, symSize: 0x130 }
  - { offsetInCU: 0x3DDE9, offset: 0x356D72, size: 0x8, addend: 0x0, symName: __ZN3syn4expr7parsing31rest_of_path_or_macro_or_struct17hab8b11d447eb17cdE, symObjAddr: 0xF0D0, symBinAddr: 0xABF00, symSize: 0x3D0 }
  - { offsetInCU: 0x3E561, offset: 0x3574EA, size: 0x8, addend: 0x0, symName: __ZN3syn4expr7parsing14paren_or_tuple17hca3957091eeb9c50E, symObjAddr: 0xF4A0, symBinAddr: 0xAC2D0, symSize: 0x780 }
  - { offsetInCU: 0x3EEB1, offset: 0x357E3A, size: 0x8, addend: 0x0, symName: __ZN3syn4expr7parsing15array_or_repeat17h7503a4cc2fc5aa31E, symObjAddr: 0xFC20, symBinAddr: 0xACA50, symSize: 0x950 }
  - { offsetInCU: 0x3FA66, offset: 0x3589EF, size: 0x8, addend: 0x0, symName: __ZN3syn4expr7parsing10expr_group17ha2f3b33138d5864cE, symObjAddr: 0x10570, symBinAddr: 0xAD3A0, symSize: 0x870 }
  - { offsetInCU: 0x405E0, offset: 0x359569, size: 0x8, addend: 0x0, symName: __ZN3syn4expr7parsing8expr_let17hf863f328b939742fE, symObjAddr: 0x10FC0, symBinAddr: 0xADC10, symSize: 0x570 }
  - { offsetInCU: 0x40F3C, offset: 0x359EC5, size: 0x8, addend: 0x0, symName: __ZN3syn4expr7parsing10expr_unary17h1d4eb12bbc8abbd2E, symObjAddr: 0x11530, symBinAddr: 0xAE180, symSize: 0x2D0 }
  - { offsetInCU: 0x41513, offset: 0x35A49C, size: 0x8, addend: 0x0, symName: __ZN3syn4expr7parsing12expr_closure17h4e49f531e43f650cE, symObjAddr: 0x11800, symBinAddr: 0xAE450, symSize: 0x1580 }
  - { offsetInCU: 0x4319E, offset: 0x35C127, size: 0x8, addend: 0x0, symName: __ZN3syn4expr7parsing10expr_break17h3ba483e8fdc57f87E, symObjAddr: 0x12D80, symBinAddr: 0xAF9D0, symSize: 0x720 }
  - { offsetInCU: 0x44229, offset: 0x35D1B2, size: 0x8, addend: 0x0, symName: __ZN3syn4expr7parsing18expr_struct_helper17h62f8c2fd9c8d9ae6E, symObjAddr: 0x134A0, symBinAddr: 0xB00F0, symSize: 0x980 }
  - { offsetInCU: 0x45169, offset: 0x35E0F2, size: 0x8, addend: 0x0, symName: __ZN3syn4expr7parsing10expr_range17h3255a6ff02803bdbE, symObjAddr: 0x13E20, symBinAddr: 0xB0A70, symSize: 0xF0 }
  - { offsetInCU: 0x4532B, offset: 0x35E2B4, size: 0x8, addend: 0x0, symName: __ZN3syn4expr7parsing15parse_range_end17hbd7fe95ed93f48b3E, symObjAddr: 0x13F10, symBinAddr: 0xB0B60, symSize: 0x11D }
  - { offsetInCU: 0x1E, offset: 0x370AAB, size: 0x8, addend: 0x0, symName: __ZN5alloc7raw_vec11finish_grow17h5993caaa74c4fbdfE.llvm.8028830779895567672, symObjAddr: 0x0, symBinAddr: 0xB0C80, symSize: 0xA0 }
  - { offsetInCU: 0x69AA, offset: 0x377437, size: 0x8, addend: 0x0, symName: __ZN5alloc7raw_vec11finish_grow17h5993caaa74c4fbdfE.llvm.8028830779895567672, symObjAddr: 0x0, symBinAddr: 0xB0C80, symSize: 0xA0 }
  - { offsetInCU: 0x875B, offset: 0x3791E8, size: 0x8, addend: 0x0, symName: '__ZN5alloc7raw_vec19RawVec$LT$T$C$A$GT$7reserve21do_reserve_and_handle17h1257c9ee09466061E', symObjAddr: 0x1330, symBinAddr: 0x1FCAC0, symSize: 0xA0 }
  - { offsetInCU: 0x8A53, offset: 0x3794E0, size: 0x8, addend: 0x0, symName: '__ZN5alloc7raw_vec19RawVec$LT$T$C$A$GT$7reserve21do_reserve_and_handle17h30f192da7d596089E', symObjAddr: 0x13D0, symBinAddr: 0x1FCB60, symSize: 0xB0 }
  - { offsetInCU: 0x8D7E, offset: 0x37980B, size: 0x8, addend: 0x0, symName: '__ZN5alloc7raw_vec19RawVec$LT$T$C$A$GT$7reserve21do_reserve_and_handle17h7bcc278903fa73cdE', symObjAddr: 0x1480, symBinAddr: 0x1FCC10, symSize: 0xB0 }
  - { offsetInCU: 0x90A9, offset: 0x379B36, size: 0x8, addend: 0x0, symName: '__ZN5alloc7raw_vec19RawVec$LT$T$C$A$GT$7reserve21do_reserve_and_handle17h96ca4a18a0a3ddafE', symObjAddr: 0x15F0, symBinAddr: 0x1FCCC0, symSize: 0xB0 }
  - { offsetInCU: 0x93D6, offset: 0x379E63, size: 0x8, addend: 0x0, symName: '__ZN5alloc7raw_vec19RawVec$LT$T$C$A$GT$7reserve21do_reserve_and_handle17hbb3a7e81495482abE', symObjAddr: 0x16A0, symBinAddr: 0x1FCD70, symSize: 0xB0 }
  - { offsetInCU: 0xFEED, offset: 0x38097A, size: 0x8, addend: 0x0, symName: '__ZN5alloc7raw_vec19RawVec$LT$T$C$A$GT$8grow_one17h095fa3667201f4f8E', symObjAddr: 0x1810, symBinAddr: 0xB0D20, symSize: 0xC0 }
  - { offsetInCU: 0x103BC, offset: 0x380E49, size: 0x8, addend: 0x0, symName: '__ZN5alloc7raw_vec19RawVec$LT$T$C$A$GT$8grow_one17h17381682e7253ec7E', symObjAddr: 0x18D0, symBinAddr: 0xB0DE0, symSize: 0xC0 }
  - { offsetInCU: 0x1088B, offset: 0x381318, size: 0x8, addend: 0x0, symName: '__ZN5alloc7raw_vec19RawVec$LT$T$C$A$GT$8grow_one17h248c03912984705cE', symObjAddr: 0x1990, symBinAddr: 0xB0EA0, symSize: 0xB0 }
  - { offsetInCU: 0x10D5A, offset: 0x3817E7, size: 0x8, addend: 0x0, symName: '__ZN5alloc7raw_vec19RawVec$LT$T$C$A$GT$8grow_one17h3075326c15ed7061E', symObjAddr: 0x1A40, symBinAddr: 0xB0F50, symSize: 0x0 }
  - { offsetInCU: 0x1122B, offset: 0x381CB8, size: 0x8, addend: 0x0, symName: '__ZN5alloc7raw_vec19RawVec$LT$T$C$A$GT$8grow_one17h313fd240ac0cecb3E', symObjAddr: 0x1B00, symBinAddr: 0xB1010, symSize: 0x0 }
  - { offsetInCU: 0x116FA, offset: 0x382187, size: 0x8, addend: 0x0, symName: '__ZN5alloc7raw_vec19RawVec$LT$T$C$A$GT$8grow_one17h32f85f1d3098de7dE', symObjAddr: 0x1BC0, symBinAddr: 0xB10D0, symSize: 0x0 }
  - { offsetInCU: 0x11B5F, offset: 0x3825EC, size: 0x8, addend: 0x0, symName: '__ZN5alloc7raw_vec19RawVec$LT$T$C$A$GT$8grow_one17h46224c298c9c9296E', symObjAddr: 0x1C80, symBinAddr: 0xB1190, symSize: 0x0 }
  - { offsetInCU: 0x1202C, offset: 0x382AB9, size: 0x8, addend: 0x0, symName: '__ZN5alloc7raw_vec19RawVec$LT$T$C$A$GT$8grow_one17h5a605c90d00a8a39E', symObjAddr: 0x1D30, symBinAddr: 0xB1240, symSize: 0xC0 }
  - { offsetInCU: 0x124FB, offset: 0x382F88, size: 0x8, addend: 0x0, symName: '__ZN5alloc7raw_vec19RawVec$LT$T$C$A$GT$8grow_one17h718e5b8a06d845cbE', symObjAddr: 0x1DF0, symBinAddr: 0xB1300, symSize: 0xC0 }
  - { offsetInCU: 0x1283B, offset: 0x3832C8, size: 0x8, addend: 0x0, symName: '__ZN5alloc7raw_vec19RawVec$LT$T$C$A$GT$8grow_one17h72dabde20a137b04E', symObjAddr: 0x1EB0, symBinAddr: 0xB13C0, symSize: 0xB0 }
  - { offsetInCU: 0x12D08, offset: 0x383795, size: 0x8, addend: 0x0, symName: '__ZN5alloc7raw_vec19RawVec$LT$T$C$A$GT$8grow_one17h7c2c58db67a15848E', symObjAddr: 0x1F60, symBinAddr: 0xB1470, symSize: 0x0 }
  - { offsetInCU: 0x131D7, offset: 0x383C64, size: 0x8, addend: 0x0, symName: '__ZN5alloc7raw_vec19RawVec$LT$T$C$A$GT$8grow_one17h7d9544ea3e76eae9E', symObjAddr: 0x2020, symBinAddr: 0xB1530, symSize: 0xC0 }
  - { offsetInCU: 0x136A6, offset: 0x384133, size: 0x8, addend: 0x0, symName: '__ZN5alloc7raw_vec19RawVec$LT$T$C$A$GT$8grow_one17h82b0804d651d4ef5E', symObjAddr: 0x20E0, symBinAddr: 0xB15F0, symSize: 0xC0 }
  - { offsetInCU: 0x13BA2, offset: 0x38462F, size: 0x8, addend: 0x0, symName: '__ZN5alloc7raw_vec19RawVec$LT$T$C$A$GT$8grow_one17h85907f27c23a559bE', symObjAddr: 0x21A0, symBinAddr: 0xB16B0, symSize: 0xB0 }
  - { offsetInCU: 0x1406F, offset: 0x384AFC, size: 0x8, addend: 0x0, symName: '__ZN5alloc7raw_vec19RawVec$LT$T$C$A$GT$8grow_one17ha5852730cd02935bE', symObjAddr: 0x2250, symBinAddr: 0xB1760, symSize: 0x0 }
  - { offsetInCU: 0x1453E, offset: 0x384FCB, size: 0x8, addend: 0x0, symName: '__ZN5alloc7raw_vec19RawVec$LT$T$C$A$GT$8grow_one17hb30077ec058bafdfE', symObjAddr: 0x2310, symBinAddr: 0xB1820, symSize: 0xB0 }
  - { offsetInCU: 0x14A0B, offset: 0x385498, size: 0x8, addend: 0x0, symName: '__ZN5alloc7raw_vec19RawVec$LT$T$C$A$GT$8grow_one17hc0723e4af934b43eE', symObjAddr: 0x23C0, symBinAddr: 0xB18D0, symSize: 0xC0 }
  - { offsetInCU: 0x14D4D, offset: 0x3857DA, size: 0x8, addend: 0x0, symName: '__ZN5alloc7raw_vec19RawVec$LT$T$C$A$GT$8grow_one17hc9702e9ac871cd96E', symObjAddr: 0x2480, symBinAddr: 0xB1990, symSize: 0xB0 }
  - { offsetInCU: 0x1521C, offset: 0x385CA9, size: 0x8, addend: 0x0, symName: '__ZN5alloc7raw_vec19RawVec$LT$T$C$A$GT$8grow_one17hcf254d991fef210fE', symObjAddr: 0x2530, symBinAddr: 0xB1A40, symSize: 0xC0 }
  - { offsetInCU: 0x156EB, offset: 0x386178, size: 0x8, addend: 0x0, symName: '__ZN5alloc7raw_vec19RawVec$LT$T$C$A$GT$8grow_one17hd89eb202b8db7e1aE', symObjAddr: 0x25F0, symBinAddr: 0xB1B00, symSize: 0xC0 }
  - { offsetInCU: 0x15A2D, offset: 0x3864BA, size: 0x8, addend: 0x0, symName: '__ZN5alloc7raw_vec19RawVec$LT$T$C$A$GT$8grow_one17hdb610d4d82b2394dE', symObjAddr: 0x26B0, symBinAddr: 0xB1BC0, symSize: 0xA0 }
  - { offsetInCU: 0x15EBD, offset: 0x38694A, size: 0x8, addend: 0x0, symName: '__ZN5alloc7raw_vec19RawVec$LT$T$C$A$GT$8grow_one17hdc14d76226baa6aaE', symObjAddr: 0x2750, symBinAddr: 0xB1C60, symSize: 0xC0 }
  - { offsetInCU: 0x1638C, offset: 0x386E19, size: 0x8, addend: 0x0, symName: '__ZN5alloc7raw_vec19RawVec$LT$T$C$A$GT$8grow_one17hfb0e72b592d7c1fcE', symObjAddr: 0x2810, symBinAddr: 0xB1D20, symSize: 0xC0 }
  - { offsetInCU: 0x1E, offset: 0x3871C7, size: 0x8, addend: 0x0, symName: '__ZN4core3ptr100drop_in_place$LT$core..option..Option$LT$alloc..boxed..Box$LT$syn..path..GenericArgument$GT$$GT$$GT$17h3a7c44b9e57fe410E', symObjAddr: 0x0, symBinAddr: 0xB1DE0, symSize: 0x50 }
  - { offsetInCU: 0x1A4F, offset: 0x388BF8, size: 0x8, addend: 0x0, symName: '__ZN4core3ptr100drop_in_place$LT$core..option..Option$LT$alloc..boxed..Box$LT$syn..path..GenericArgument$GT$$GT$$GT$17h3a7c44b9e57fe410E', symObjAddr: 0x0, symBinAddr: 0xB1DE0, symSize: 0x50 }
  - { offsetInCU: 0x1C1C, offset: 0x388DC5, size: 0x8, addend: 0x0, symName: '__ZN4core3ptr102drop_in_place$LT$syn..punctuated..Punctuated$LT$syn..path..GenericArgument$C$syn..token..Comma$GT$$GT$17h8b1978399cfff48bE', symObjAddr: 0x50, symBinAddr: 0xB1E30, symSize: 0xF0 }
  - { offsetInCU: 0x1F3C, offset: 0x3890E5, size: 0x8, addend: 0x0, symName: '__ZN4core3ptr103drop_in_place$LT$core..option..Option$LT$alloc..boxed..Box$LT$syn..generics..TypeParamBound$GT$$GT$$GT$17hb14e4384a768542bE', symObjAddr: 0x140, symBinAddr: 0xB1F20, symSize: 0x50 }
  - { offsetInCU: 0x2201, offset: 0x3893AA, size: 0x8, addend: 0x0, symName: '__ZN4core3ptr103drop_in_place$LT$core..option..Option$LT$alloc..boxed..Box$LT$syn..generics..WherePredicate$GT$$GT$$GT$17he190813f4819c5dbE', symObjAddr: 0x190, symBinAddr: 0xB1F70, symSize: 0xD0 }
  - { offsetInCU: 0x2595, offset: 0x38973E, size: 0x8, addend: 0x0, symName: '__ZN4core3ptr103drop_in_place$LT$syn..punctuated..Punctuated$LT$syn..generics..GenericParam$C$syn..token..Comma$GT$$GT$17h0c6077a988036760E', symObjAddr: 0x260, symBinAddr: 0xB2040, symSize: 0xF0 }
  - { offsetInCU: 0x2A90, offset: 0x389C39, size: 0x8, addend: 0x0, symName: '__ZN4core3ptr104drop_in_place$LT$syn..punctuated..Punctuated$LT$syn..generics..TypeParamBound$C$syn..token..Plus$GT$$GT$17h724e4d9d1d65061aE', symObjAddr: 0x350, symBinAddr: 0xB2130, symSize: 0x260 }
  - { offsetInCU: 0x345E, offset: 0x38A607, size: 0x8, addend: 0x0, symName: '__ZN4core3ptr115drop_in_place$LT$core..option..Option$LT$$LP$alloc..boxed..Box$LT$syn..pat..Pat$GT$$C$syn..token..Colon$RP$$GT$$GT$17h787822396d5dcd7bE', symObjAddr: 0x5B0, symBinAddr: 0xB2390, symSize: 0x50 }
  - { offsetInCU: 0x362C, offset: 0x38A7D5, size: 0x8, addend: 0x0, symName: '__ZN4core3ptr115drop_in_place$LT$core..option..Option$LT$$LP$syn..token..Brace$C$alloc..vec..Vec$LT$syn..item..Item$GT$$RP$$GT$$GT$17h4f61046186bbd7c9E', symObjAddr: 0x600, symBinAddr: 0xB23E0, symSize: 0xD0 }
  - { offsetInCU: 0x3943, offset: 0x38AAEC, size: 0x8, addend: 0x0, symName: '__ZN4core3ptr126drop_in_place$LT$core..option..Option$LT$$LP$syn..token..And$C$core..option..Option$LT$syn..lifetime..Lifetime$GT$$RP$$GT$$GT$17h45c5d73e12cdf6f0E', symObjAddr: 0x6D0, symBinAddr: 0xB24B0, symSize: 0x30 }
  - { offsetInCU: 0x3B56, offset: 0x38ACFF, size: 0x8, addend: 0x0, symName: '__ZN4core3ptr34drop_in_place$LT$syn..lit..Lit$GT$17hd64dde89a262341dE', symObjAddr: 0x700, symBinAddr: 0xB24E0, symSize: 0x120 }
  - { offsetInCU: 0x4025, offset: 0x38B1CE, size: 0x8, addend: 0x0, symName: '__ZN4core3ptr34drop_in_place$LT$syn..pat..Pat$GT$17hf88887878261d63cE', symObjAddr: 0x820, symBinAddr: 0xB2600, symSize: 0xF70 }
  - { offsetInCU: 0x7F1F, offset: 0x38F0C8, size: 0x8, addend: 0x0, symName: '__ZN4core3ptr34drop_in_place$LT$syn..ty..Type$GT$17ha80dd29b0f9d4a3fE', symObjAddr: 0x1790, symBinAddr: 0xB3570, symSize: 0x5A0 }
  - { offsetInCU: 0x98BB, offset: 0x390A64, size: 0x8, addend: 0x0, symName: '__ZN4core3ptr36drop_in_place$LT$syn..expr..Expr$GT$17h10f573b40ddd212cE', symObjAddr: 0x1D30, symBinAddr: 0xB3B10, symSize: 0x2760 }
  - { offsetInCU: 0x139D0, offset: 0x39AB79, size: 0x8, addend: 0x0, symName: '__ZN4core3ptr36drop_in_place$LT$syn..item..Item$GT$17haa59cf9e39ab8cebE', symObjAddr: 0x4490, symBinAddr: 0xB6270, symSize: 0x17C0 }
  - { offsetInCU: 0x195DF, offset: 0x3A0788, size: 0x8, addend: 0x0, symName: '__ZN4core3ptr36drop_in_place$LT$syn..mac..Macro$GT$17hc3b30a7a8a34cc2dE', symObjAddr: 0x5C50, symBinAddr: 0xB7A30, symSize: 0x110 }
  - { offsetInCU: 0x19A7C, offset: 0x3A0C25, size: 0x8, addend: 0x0, symName: '__ZN4core3ptr36drop_in_place$LT$syn..path..Path$GT$17h75c74a97d5f0a03bE', symObjAddr: 0x5D60, symBinAddr: 0xB7B40, symSize: 0x280 }
  - { offsetInCU: 0x1A529, offset: 0x3A16D2, size: 0x8, addend: 0x0, symName: '__ZN4core3ptr37drop_in_place$LT$syn..item..FnArg$GT$17h470fdeee5cba5e3aE', symObjAddr: 0x5FE0, symBinAddr: 0xB7DC0, symSize: 0x160 }
  - { offsetInCU: 0x1AB08, offset: 0x3A1CB1, size: 0x8, addend: 0x0, symName: '__ZN4core3ptr37drop_in_place$LT$syn..stmt..Block$GT$17h6fc3254d5688f2c3E', symObjAddr: 0x6140, symBinAddr: 0xB7F20, symSize: 0xD0 }
  - { offsetInCU: 0x1ADFE, offset: 0x3A1FA7, size: 0x8, addend: 0x0, symName: '__ZN4core3ptr38drop_in_place$LT$syn..data..Fields$GT$17h79840861dd1f691dE', symObjAddr: 0x6210, symBinAddr: 0xB7FF0, symSize: 0x190 }
  - { offsetInCU: 0x1B248, offset: 0x3A23F1, size: 0x8, addend: 0x0, symName: '__ZN4core3ptr38drop_in_place$LT$syn..expr..Member$GT$17h6b0cf84594ce6bceE', symObjAddr: 0x63A0, symBinAddr: 0xB8180, symSize: 0x30 }
  - { offsetInCU: 0x1B344, offset: 0x3A24ED, size: 0x8, addend: 0x0, symName: '__ZN4core3ptr39drop_in_place$LT$proc_macro2..Ident$GT$17ha28fef9769e267d9E', symObjAddr: 0x63D0, symBinAddr: 0xB81B0, symSize: 0x30 }
  - { offsetInCU: 0x1B49D, offset: 0x3A2646, size: 0x8, addend: 0x0, symName: '__ZN4core3ptr39drop_in_place$LT$syn..item..UseTree$GT$17h7288572c631f954aE', symObjAddr: 0x6400, symBinAddr: 0xB81E0, symSize: 0xE0 }
  - { offsetInCU: 0x1B844, offset: 0x3A29ED, size: 0x8, addend: 0x0, symName: '__ZN4core3ptr39drop_in_place$LT$syn..ty..TypeGroup$GT$17hf74b5ab2edcb931fE', symObjAddr: 0x64E0, symBinAddr: 0xB82C0, symSize: 0x50 }
  - { offsetInCU: 0x1BA2B, offset: 0x3A2BD4, size: 0x8, addend: 0x0, symName: '__ZN4core3ptr40drop_in_place$LT$syn..item..ImplItem$GT$17h98907b2080b0ccb0E', symObjAddr: 0x6530, symBinAddr: 0xB8310, symSize: 0x6E0 }
  - { offsetInCU: 0x1CF9C, offset: 0x3A4145, size: 0x8, addend: 0x0, symName: '__ZN4core3ptr40drop_in_place$LT$syn..item..ItemImpl$GT$17h2e9f0b01a7977a55E', symObjAddr: 0x6C10, symBinAddr: 0xB89F0, symSize: 0x1E0 }
  - { offsetInCU: 0x1D75C, offset: 0x3A4905, size: 0x8, addend: 0x0, symName: '__ZN4core3ptr40drop_in_place$LT$syn..item..Receiver$GT$17h5e68a437c3b8e574E', symObjAddr: 0x6DF0, symBinAddr: 0xB8BD0, symSize: 0x130 }
  - { offsetInCU: 0x1DD47, offset: 0x3A4EF0, size: 0x8, addend: 0x0, symName: '__ZN4core3ptr40drop_in_place$LT$syn..item..Variadic$GT$17hf9d4ebdb0f5e723aE', symObjAddr: 0x6F20, symBinAddr: 0xB8D00, symSize: 0x110 }
  - { offsetInCU: 0x1E1C3, offset: 0x3A536C, size: 0x8, addend: 0x0, symName: '__ZN4core3ptr40drop_in_place$LT$syn..ty..ReturnType$GT$17h035a612e322b6510E', symObjAddr: 0x7030, symBinAddr: 0xB8E10, symSize: 0x50 }
  - { offsetInCU: 0x1E333, offset: 0x3A54DC, size: 0x8, addend: 0x0, symName: '__ZN4core3ptr41drop_in_place$LT$syn..expr..ExprConst$GT$17hbfe19d5d621e6836E', symObjAddr: 0x7080, symBinAddr: 0xB8E60, symSize: 0x180 }
  - { offsetInCU: 0x1E93F, offset: 0x3A5AE8, size: 0x8, addend: 0x0, symName: '__ZN4core3ptr41drop_in_place$LT$syn..item..Signature$GT$17h41f785211ad8eb02E', symObjAddr: 0x7200, symBinAddr: 0xB8FE0, symSize: 0x180 }
  - { offsetInCU: 0x1F01F, offset: 0x3A61C8, size: 0x8, addend: 0x0, symName: '__ZN4core3ptr41drop_in_place$LT$syn..item..TraitItem$GT$17hc74edaa948c160a2E', symObjAddr: 0x7380, symBinAddr: 0xB9160, symSize: 0x5E0 }
  - { offsetInCU: 0x201DB, offset: 0x3A7384, size: 0x8, addend: 0x0, symName: '__ZN4core3ptr43drop_in_place$LT$syn..data..FieldsNamed$GT$17h56bef6f151514865E', symObjAddr: 0x7960, symBinAddr: 0xB9740, symSize: 0xE0 }
  - { offsetInCU: 0x20501, offset: 0x3A76AA, size: 0x8, addend: 0x0, symName: '__ZN4core3ptr44drop_in_place$LT$syn..generics..Generics$GT$17h671de917167f8b66E', symObjAddr: 0x7A40, symBinAddr: 0xB9820, symSize: 0x40 }
  - { offsetInCU: 0x2051E, offset: 0x3A76C7, size: 0x8, addend: 0x0, symName: '__ZN4core3ptr44drop_in_place$LT$syn..lifetime..Lifetime$GT$17he37fa474f03de7b1E', symObjAddr: 0x7A80, symBinAddr: 0xB9860, symSize: 0x30 }
  - { offsetInCU: 0x20696, offset: 0x3A783F, size: 0x8, addend: 0x0, symName: '__ZN4core3ptr44drop_in_place$LT$syn..parse..ParseBuffer$GT$17hf792ff20095efc35E', symObjAddr: 0x7AB0, symBinAddr: 0xB9890, symSize: 0x70 }
  - { offsetInCU: 0x20AAD, offset: 0x3A7C56, size: 0x8, addend: 0x0, symName: '__ZN4core3ptr45drop_in_place$LT$proc_macro2..TokenStream$GT$17h76e8e68015f4924dE', symObjAddr: 0x7B20, symBinAddr: 0xB9900, symSize: 0x140 }
  - { offsetInCU: 0x20F47, offset: 0x3A80F0, size: 0x8, addend: 0x0, symName: '__ZN4core3ptr45drop_in_place$LT$syn..generics..TypeParam$GT$17h188a459c1380ac75E', symObjAddr: 0x7C60, symBinAddr: 0xB9A40, symSize: 0x230 }
  - { offsetInCU: 0x217BC, offset: 0x3A8965, size: 0x8, addend: 0x0, symName: '__ZN4core3ptr46drop_in_place$LT$syn..generics..ConstParam$GT$17h7a9b900b2b88bfcdE', symObjAddr: 0x7E90, symBinAddr: 0xB9C70, symSize: 0x150 }
  - { offsetInCU: 0x21C3D, offset: 0x3A8DE6, size: 0x8, addend: 0x0, symName: '__ZN4core3ptr47drop_in_place$LT$syn..path..GenericArgument$GT$17h593f06d6ca9a94d2E', symObjAddr: 0x7FE0, symBinAddr: 0xB9DC0, symSize: 0x450 }
  - { offsetInCU: 0x229B3, offset: 0x3A9B5C, size: 0x8, addend: 0x0, symName: '__ZN4core3ptr49drop_in_place$LT$syn..generics..LifetimeParam$GT$17h3a8835ab294bfd16E', symObjAddr: 0x8430, symBinAddr: 0xBA210, symSize: 0xF0 }
  - { offsetInCU: 0x22DCA, offset: 0x3A9F73, size: 0x8, addend: 0x0, symName: '__ZN4core3ptr49drop_in_place$LT$syn..restriction..Visibility$GT$17h3e52b998838defb1E', symObjAddr: 0x8520, symBinAddr: 0xBA300, symSize: 0x60 }
  - { offsetInCU: 0x22F3B, offset: 0x3AA0E4, size: 0x8, addend: 0x0, symName: '__ZN4core3ptr50drop_in_place$LT$syn..generics..TypeParamBound$GT$17h81b4325b5900604dE', symObjAddr: 0x8580, symBinAddr: 0xBA360, symSize: 0xA0 }
  - { offsetInCU: 0x230A1, offset: 0x3AA24A, size: 0x8, addend: 0x0, symName: '__ZN4core3ptr58drop_in_place$LT$alloc..vec..Vec$LT$syn..expr..Arm$GT$$GT$17hff9224aadf2233b8E', symObjAddr: 0x8620, symBinAddr: 0xBA400, symSize: 0xD0 }
  - { offsetInCU: 0x23361, offset: 0x3AA50A, size: 0x8, addend: 0x0, symName: '__ZN4core3ptr59drop_in_place$LT$alloc..boxed..Box$LT$syn..pat..Pat$GT$$GT$17h622b0c1db21c0742E', symObjAddr: 0x86F0, symBinAddr: 0xBA4D0, symSize: 0x50 }
  - { offsetInCU: 0x234BA, offset: 0x3AA663, size: 0x8, addend: 0x0, symName: '__ZN4core3ptr59drop_in_place$LT$alloc..boxed..Box$LT$syn..ty..Type$GT$$GT$17hde45fa887dd8b605E', symObjAddr: 0x8740, symBinAddr: 0xBA520, symSize: 0x50 }
  - { offsetInCU: 0x23613, offset: 0x3AA7BC, size: 0x8, addend: 0x0, symName: '__ZN4core3ptr61drop_in_place$LT$alloc..boxed..Box$LT$syn..expr..Expr$GT$$GT$17hbb42293869113942E', symObjAddr: 0x8790, symBinAddr: 0xBA570, symSize: 0x50 }
  - { offsetInCU: 0x2376C, offset: 0x3AA915, size: 0x8, addend: 0x0, symName: '__ZN4core3ptr61drop_in_place$LT$syn..path..ParenthesizedGenericArguments$GT$17h6b1731382637937fE', symObjAddr: 0x87E0, symBinAddr: 0xBA5C0, symSize: 0x170 }
  - { offsetInCU: 0x23D75, offset: 0x3AAF1E, size: 0x8, addend: 0x0, symName: '__ZN4core3ptr62drop_in_place$LT$alloc..boxed..Box$LT$syn..stmt..Block$GT$$GT$17h21dcb5adf0237a12E', symObjAddr: 0x8950, symBinAddr: 0xBA730, symSize: 0xE0 }
  - { offsetInCU: 0x24183, offset: 0x3AB32C, size: 0x8, addend: 0x0, symName: '__ZN4core3ptr63drop_in_place$LT$alloc..boxed..Box$LT$syn..lit..LitRepr$GT$$GT$17h6e3a82ea4de7b84cE', symObjAddr: 0x8A30, symBinAddr: 0xBA810, symSize: 0x60 }
  - { offsetInCU: 0x2444C, offset: 0x3AB5F5, size: 0x8, addend: 0x0, symName: '__ZN4core3ptr63drop_in_place$LT$alloc..vec..Vec$LT$syn..item..ImplItem$GT$$GT$17hc51fca07e67d35aeE', symObjAddr: 0x8A90, symBinAddr: 0xBA870, symSize: 0x80 }
  - { offsetInCU: 0x24723, offset: 0x3AB8CC, size: 0x8, addend: 0x0, symName: '__ZN4core3ptr64drop_in_place$LT$alloc..boxed..Box$LT$syn..item..UseTree$GT$$GT$17he4d7024582150632E', symObjAddr: 0x8B10, symBinAddr: 0xBA8F0, symSize: 0xF0 }
  - { offsetInCU: 0x24C3E, offset: 0x3ABDE7, size: 0x8, addend: 0x0, symName: '__ZN4core3ptr64drop_in_place$LT$alloc..boxed..Box$LT$syn..pat..FieldPat$GT$$GT$17hbf8f4867d84bd25dE', symObjAddr: 0x8C00, symBinAddr: 0xBA9E0, symSize: 0x140 }
  - { offsetInCU: 0x2533F, offset: 0x3AC4E8, size: 0x8, addend: 0x0, symName: '__ZN4core3ptr64drop_in_place$LT$alloc..boxed..Box$LT$syn..ty..BareFnArg$GT$$GT$17h6be6354eb1d1364dE', symObjAddr: 0x8D40, symBinAddr: 0xBAB20, symSize: 0x140 }
  - { offsetInCU: 0x258C8, offset: 0x3ACA71, size: 0x8, addend: 0x0, symName: '__ZN4core3ptr64drop_in_place$LT$alloc..vec..Vec$LT$syn..attr..Attribute$GT$$GT$17he33e25539d5885aeE', symObjAddr: 0x8E80, symBinAddr: 0xBAC60, symSize: 0xD0 }
  - { offsetInCU: 0x25BBC, offset: 0x3ACD65, size: 0x8, addend: 0x0, symName: '__ZN4core3ptr64drop_in_place$LT$alloc..vec..Vec$LT$syn..item..TraitItem$GT$$GT$17hff1cc01ccae80d7aE', symObjAddr: 0x8F50, symBinAddr: 0xBAD30, symSize: 0x80 }
  - { offsetInCU: 0x25E74, offset: 0x3AD01D, size: 0x8, addend: 0x0, symName: '__ZN4core3ptr65drop_in_place$LT$alloc..vec..Vec$LT$proc_macro..TokenTree$GT$$GT$17h8abd81f8596dbc59E', symObjAddr: 0x8FD0, symBinAddr: 0xBADB0, symSize: 0x110 }
  - { offsetInCU: 0x2626C, offset: 0x3AD415, size: 0x8, addend: 0x0, symName: '__ZN4core3ptr65drop_in_place$LT$core..option..Option$LT$syn..expr..Label$GT$$GT$17hac599686b33ef364E', symObjAddr: 0x90E0, symBinAddr: 0xBAEC0, symSize: 0x30 }
  - { offsetInCU: 0x263A6, offset: 0x3AD54F, size: 0x8, addend: 0x0, symName: '__ZN4core3ptr65drop_in_place$LT$core..option..Option$LT$syn..path..QSelf$GT$$GT$17h0b8dd5cda5f2cd6bE', symObjAddr: 0x9110, symBinAddr: 0xBAEF0, symSize: 0x50 }
  - { offsetInCU: 0x26527, offset: 0x3AD6D0, size: 0x8, addend: 0x0, symName: '__ZN4core3ptr65drop_in_place$LT$core..option..Option$LT$syn..stmt..Block$GT$$GT$17h74f2551ed24e2d27E', symObjAddr: 0x9160, symBinAddr: 0xBAF40, symSize: 0xD0 }
  - { offsetInCU: 0x267FC, offset: 0x3AD9A5, size: 0x8, addend: 0x0, symName: '__ZN4core3ptr66drop_in_place$LT$alloc..vec..Vec$LT$syn..item..ForeignItem$GT$$GT$17h1f176e04eaf5e0dfE', symObjAddr: 0x9230, symBinAddr: 0xBB010, symSize: 0x80 }
  - { offsetInCU: 0x26AB4, offset: 0x3ADC5D, size: 0x8, addend: 0x0, symName: '__ZN4core3ptr66drop_in_place$LT$core..option..Option$LT$syn..pat..PatRest$GT$$GT$17hd5bb3bc28aa78ac1E', symObjAddr: 0x92B0, symBinAddr: 0xBB090, symSize: 0xE0 }
  - { offsetInCU: 0x26DDC, offset: 0x3ADF85, size: 0x8, addend: 0x0, symName: '__ZN4core3ptr67drop_in_place$LT$alloc..boxed..Box$LT$syn..expr..FieldValue$GT$$GT$17hbbcf67a9d5e9863cE', symObjAddr: 0x9390, symBinAddr: 0xBB170, symSize: 0x140 }
  - { offsetInCU: 0x27364, offset: 0x3AE50D, size: 0x8, addend: 0x0, symName: '__ZN4core3ptr70drop_in_place$LT$core..option..Option$LT$syn..ty..BareVariadic$GT$$GT$17h79a19250e9f043b1E', symObjAddr: 0x94D0, symBinAddr: 0xBB2B0, symSize: 0x100 }
  - { offsetInCU: 0x277CF, offset: 0x3AE978, size: 0x8, addend: 0x0, symName: '__ZN4core3ptr72drop_in_place$LT$alloc..boxed..Box$LT$syn..path..GenericArgument$GT$$GT$17hfd308d374af4273dE', symObjAddr: 0x95D0, symBinAddr: 0xBB3B0, symSize: 0x2B0 }
  - { offsetInCU: 0x281E0, offset: 0x3AF389, size: 0x8, addend: 0x0, symName: '__ZN4core3ptr72drop_in_place$LT$core..option..Option$LT$syn..lifetime..Lifetime$GT$$GT$17h49cce6f02f9c0590E', symObjAddr: 0x9880, symBinAddr: 0xBB660, symSize: 0x30 }
  - { offsetInCU: 0x282FB, offset: 0x3AF4A4, size: 0x8, addend: 0x0, symName: '__ZN4core3ptr73drop_in_place$LT$alloc..boxed..Box$LT$syn..generics..GenericParam$GT$$GT$17ha26d5d145af4b203E', symObjAddr: 0x98B0, symBinAddr: 0xBB690, symSize: 0x80 }
  - { offsetInCU: 0x28471, offset: 0x3AF61A, size: 0x8, addend: 0x0, symName: '__ZN4core3ptr75drop_in_place$LT$alloc..boxed..Box$LT$syn..generics..TypeParamBound$GT$$GT$17h129a4e927e5eb81bE', symObjAddr: 0x9930, symBinAddr: 0xBB710, symSize: 0x1B0 }
  - { offsetInCU: 0x28B8F, offset: 0x3AFD38, size: 0x8, addend: 0x0, symName: '__ZN4core3ptr75drop_in_place$LT$core..option..Option$LT$syn..generics..WhereClause$GT$$GT$17haaf63f327098cdccE', symObjAddr: 0x9AE0, symBinAddr: 0xBB8C0, symSize: 0x90 }
  - { offsetInCU: 0x28E83, offset: 0x3B002C, size: 0x8, addend: 0x0, symName: '__ZN4core3ptr86drop_in_place$LT$syn..punctuated..Punctuated$LT$syn..pat..Pat$C$syn..token..Or$GT$$GT$17h9cc6b5f7b6d3a555E', symObjAddr: 0x9B70, symBinAddr: 0xBB950, symSize: 0x120 }
  - { offsetInCU: 0x292FE, offset: 0x3B04A7, size: 0x8, addend: 0x0, symName: '__ZN4core3ptr87drop_in_place$LT$core..option..Option$LT$alloc..boxed..Box$LT$syn..pat..Pat$GT$$GT$$GT$17h51cd48973d96c411E', symObjAddr: 0x9C90, symBinAddr: 0xBBA70, symSize: 0x50 }
  - { offsetInCU: 0x2946E, offset: 0x3B0617, size: 0x8, addend: 0x0, symName: '__ZN4core3ptr87drop_in_place$LT$core..option..Option$LT$alloc..boxed..Box$LT$syn..ty..Type$GT$$GT$$GT$17h103a25a4a7d7374eE', symObjAddr: 0x9CE0, symBinAddr: 0xBBAC0, symSize: 0x50 }
  - { offsetInCU: 0x295DE, offset: 0x3B0787, size: 0x8, addend: 0x0, symName: '__ZN4core3ptr89drop_in_place$LT$core..option..Option$LT$alloc..boxed..Box$LT$syn..expr..Expr$GT$$GT$$GT$17h9e02509cb2345d44E', symObjAddr: 0x9D30, symBinAddr: 0xBBB10, symSize: 0x50 }
  - { offsetInCU: 0x2978C, offset: 0x3B0935, size: 0x8, addend: 0x0, symName: '__ZN4core3ptr89drop_in_place$LT$syn..punctuated..Punctuated$LT$syn..pat..Pat$C$syn..token..Comma$GT$$GT$17hd3a83c36827f210aE', symObjAddr: 0x9D80, symBinAddr: 0xBBB60, symSize: 0x120 }
  - { offsetInCU: 0x29C5C, offset: 0x3B0E05, size: 0x8, addend: 0x0, symName: '__ZN4core3ptr90drop_in_place$LT$core..option..Option$LT$alloc..boxed..Box$LT$syn..data..Field$GT$$GT$$GT$17h9f1aee8cd56c6727E', symObjAddr: 0x9EA0, symBinAddr: 0xBBC80, symSize: 0x1B0 }
  - { offsetInCU: 0x2A34E, offset: 0x3B14F7, size: 0x8, addend: 0x0, symName: '__ZN4core3ptr90drop_in_place$LT$core..option..Option$LT$alloc..boxed..Box$LT$syn..item..FnArg$GT$$GT$$GT$17h8635495a730dc0bfE', symObjAddr: 0xA050, symBinAddr: 0xBBE30, symSize: 0x50 }
  - { offsetInCU: 0x2A4EF, offset: 0x3B1698, size: 0x8, addend: 0x0, symName: '__ZN4core3ptr91drop_in_place$LT$syn..punctuated..Punctuated$LT$syn..expr..Expr$C$syn..token..Comma$GT$$GT$17h6f261e8f470c81f2E', symObjAddr: 0xA0A0, symBinAddr: 0xBBE80, symSize: 0x120 }
  - { offsetInCU: 0x2A97D, offset: 0x3B1B26, size: 0x8, addend: 0x0, symName: '__ZN4core3ptr92drop_in_place$LT$core..option..Option$LT$$LP$syn..token..As$C$proc_macro2..Ident$RP$$GT$$GT$17h12a88945917fa9dbE', symObjAddr: 0xA1C0, symBinAddr: 0xBBFA0, symSize: 0x30 }
  - { offsetInCU: 0x2AAD6, offset: 0x3B1C7F, size: 0x8, addend: 0x0, symName: '__ZN4core3ptr92drop_in_place$LT$core..option..Option$LT$alloc..boxed..Box$LT$syn..data..Variant$GT$$GT$$GT$17hb65f9b5d99f448afE', symObjAddr: 0xA1F0, symBinAddr: 0xBBFD0, symSize: 0x170 }
  - { offsetInCU: 0x2B102, offset: 0x3B22AB, size: 0x8, addend: 0x0, symName: '__ZN4core3ptr92drop_in_place$LT$syn..punctuated..Punctuated$LT$syn..item..FnArg$C$syn..token..Comma$GT$$GT$17h7de33e77eabaea82E', symObjAddr: 0xA360, symBinAddr: 0xBC140, symSize: 0x130 }
  - { offsetInCU: 0x2B568, offset: 0x3B2711, size: 0x8, addend: 0x0, symName: '__ZN4core3ptr94drop_in_place$LT$syn..punctuated..Punctuated$LT$syn..data..Variant$C$syn..token..Comma$GT$$GT$17h310cd79aba4529ccE', symObjAddr: 0xA490, symBinAddr: 0xBC270, symSize: 0xE0 }
  - { offsetInCU: 0x2B8C8, offset: 0x3B2A71, size: 0x8, addend: 0x0, symName: '__ZN4core3ptr94drop_in_place$LT$syn..punctuated..Punctuated$LT$syn..item..UseTree$C$syn..token..Comma$GT$$GT$17h6236871345889df7E', symObjAddr: 0xA570, symBinAddr: 0xBC350, symSize: 0xF0 }
  - { offsetInCU: 0x2BC0E, offset: 0x3B2DB7, size: 0x8, addend: 0x0, symName: '__ZN4core3ptr94drop_in_place$LT$syn..punctuated..Punctuated$LT$syn..pat..FieldPat$C$syn..token..Comma$GT$$GT$17h43ec25af986ef674E', symObjAddr: 0xA660, symBinAddr: 0xBC440, symSize: 0xF0 }
  - { offsetInCU: 0x2BF0D, offset: 0x3B30B6, size: 0x8, addend: 0x0, symName: '__ZN4core3ptr94drop_in_place$LT$syn..punctuated..Punctuated$LT$syn..ty..BareFnArg$C$syn..token..Comma$GT$$GT$17h7ba4c699ee390ebaE', symObjAddr: 0xA750, symBinAddr: 0xBC530, symSize: 0xF0 }
  - { offsetInCU: 0x2C20E, offset: 0x3B33B7, size: 0x8, addend: 0x0, symName: '__ZN4core3ptr96drop_in_place$LT$core..option..Option$LT$alloc..boxed..Box$LT$syn..path..PathSegment$GT$$GT$$GT$17h5de12a5a0f9e9ef9E', symObjAddr: 0xA840, symBinAddr: 0xBC620, symSize: 0x1A0 }
  - { offsetInCU: 0x2C8CF, offset: 0x3B3A78, size: 0x8, addend: 0x0, symName: '__ZN4core3ptr97drop_in_place$LT$syn..punctuated..Punctuated$LT$syn..expr..FieldValue$C$syn..token..Comma$GT$$GT$17hf58d0a9a09266ab3E', symObjAddr: 0xA9E0, symBinAddr: 0xBC7C0, symSize: 0xF0 }
  - { offsetInCU: 0x2CC48, offset: 0x3B3DF1, size: 0x8, addend: 0x0, symName: '__ZN4core3ptr98drop_in_place$LT$syn..punctuated..Punctuated$LT$syn..lifetime..Lifetime$C$syn..token..Plus$GT$$GT$17h600c2b78f78fd2b9E', symObjAddr: 0xAAD0, symBinAddr: 0xBC8B0, symSize: 0xD0 }
  - { offsetInCU: 0x341C4, offset: 0x3BB36D, size: 0x8, addend: 0x0, symName: __ZN3syn4item7parsing18parse_rest_of_item17ha26e4acb71011a19E, symObjAddr: 0xAC50, symBinAddr: 0xBCA30, symSize: 0x4180 }
  - { offsetInCU: 0x40A22, offset: 0x3C7BCB, size: 0x8, addend: 0x0, symName: __ZN3syn4item7parsing12parse_macro217hf6831cf9afcd0b55E, symObjAddr: 0xFC80, symBinAddr: 0xC1A60, symSize: 0x8D0 }
  - { offsetInCU: 0x4256E, offset: 0x3C9717, size: 0x8, addend: 0x0, symName: __ZN3syn4item7parsing14parse_item_use17h48b98338f7612e03E, symObjAddr: 0x10550, symBinAddr: 0xC2330, symSize: 0x580 }
  - { offsetInCU: 0x43001, offset: 0x3CA1AA, size: 0x8, addend: 0x0, symName: __ZN3syn4item7parsing14parse_use_tree17h3459008fc061dfc3E, symObjAddr: 0x10AD0, symBinAddr: 0xC28B0, symSize: 0xEA0 }
  - { offsetInCU: 0x45A7E, offset: 0x3CCC27, size: 0x8, addend: 0x0, symName: __ZN3syn4item7parsing14peek_signature17h6fcb1c3323e18828E, symObjAddr: 0x11970, symBinAddr: 0xC3750, symSize: 0x3E0 }
  - { offsetInCU: 0x46DD7, offset: 0x3CDF80, size: 0x8, addend: 0x0, symName: __ZN3syn4item7parsing16parse_rest_of_fn17hd069073817548a43E, symObjAddr: 0x11D50, symBinAddr: 0xC3B30, symSize: 0x540 }
  - { offsetInCU: 0x47B06, offset: 0x3CECAF, size: 0x8, addend: 0x0, symName: __ZN3syn4item7parsing24parse_fn_arg_or_variadic17h2531ec3f9cf1e73bE, symObjAddr: 0x12290, symBinAddr: 0xC4070, symSize: 0xE20 }
  - { offsetInCU: 0x4A79E, offset: 0x3D1947, size: 0x8, addend: 0x0, symName: __ZN3syn4item7parsing13parse_fn_args17hef126a53be169aa0E, symObjAddr: 0x130B0, symBinAddr: 0xC4E90, symSize: 0x7D0 }
  - { offsetInCU: 0x4B5FF, offset: 0x3D27A8, size: 0x8, addend: 0x0, symName: __ZN3syn4item7parsing23parse_foreign_item_type17h802ebbe8ec67c11cE, symObjAddr: 0x13880, symBinAddr: 0xC5660, symSize: 0x450 }
  - { offsetInCU: 0x4BCD9, offset: 0x3D2E82, size: 0x8, addend: 0x0, symName: __ZN3syn4item7parsing15parse_item_type17ha00b234c7541791bE, symObjAddr: 0x13CD0, symBinAddr: 0xC5AB0, symSize: 0x5F0 }
  - { offsetInCU: 0x4C713, offset: 0x3D38BC, size: 0x8, addend: 0x0, symName: __ZN3syn4item7parsing26parse_trait_or_trait_alias17h869d58d0d710f92eE, symObjAddr: 0x142C0, symBinAddr: 0xC60A0, symSize: 0x880 }
  - { offsetInCU: 0x4E06B, offset: 0x3D5214, size: 0x8, addend: 0x0, symName: __ZN3syn4item7parsing19parse_rest_of_trait17hcfaaa983dae95479E, symObjAddr: 0x14B40, symBinAddr: 0xC6920, symSize: 0xB90 }
  - { offsetInCU: 0x4F852, offset: 0x3D69FB, size: 0x8, addend: 0x0, symName: __ZN3syn4item7parsing26parse_start_of_trait_alias17h30b54fc2a2c484e2E, symObjAddr: 0x156D0, symBinAddr: 0xC74B0, symSize: 0x4B0 }
  - { offsetInCU: 0x502BA, offset: 0x3D7463, size: 0x8, addend: 0x0, symName: __ZN3syn4item7parsing25parse_rest_of_trait_alias17hc3ff4bca2b4f24ffE, symObjAddr: 0x15B80, symBinAddr: 0xC7960, symSize: 0x670 }
  - { offsetInCU: 0x50F52, offset: 0x3D80FB, size: 0x8, addend: 0x0, symName: __ZN3syn4item7parsing21parse_trait_item_type17h346cdab40b3c4f88E, symObjAddr: 0x161F0, symBinAddr: 0xC7FD0, symSize: 0x4D0 }
  - { offsetInCU: 0x51743, offset: 0x3D88EC, size: 0x8, addend: 0x0, symName: __ZN3syn4item7parsing10parse_impl17hdf5cb50f2b1c1c56E, symObjAddr: 0x166C0, symBinAddr: 0xC84A0, symSize: 0x1700 }
  - { offsetInCU: 0x535BD, offset: 0x3DA766, size: 0x8, addend: 0x0, symName: __ZN3syn4item7parsing18parse_impl_item_fn17h8007279fefb73b29E, symObjAddr: 0x17DC0, symBinAddr: 0xC9BA0, symSize: 0x770 }
  - { offsetInCU: 0x54315, offset: 0x3DB4BE, size: 0x8, addend: 0x0, symName: __ZN3syn4item7parsing20parse_impl_item_type17hcc883153d233f1e7E, symObjAddr: 0x18530, symBinAddr: 0xCA310, symSize: 0x49B }
  - { offsetInCU: 0x59A35, offset: 0x3E0BDE, size: 0x8, addend: 0x0, symName: __ZN5alloc5alloc15exchange_malloc17h9a87608d0224859dE, symObjAddr: 0xAC10, symBinAddr: 0xBC9F0, symSize: 0x40 }
  - { offsetInCU: 0x5D6C4, offset: 0x3E486D, size: 0x8, addend: 0x0, symName: '__ZN5alloc3vec16Vec$LT$T$C$A$GT$4push17h8559c656bf8cfdb7E', symObjAddr: 0xABA0, symBinAddr: 0xBC980, symSize: 0x70 }
  - { offsetInCU: 0x5E797, offset: 0x3E5940, size: 0x8, addend: 0x0, symName: __ZN3syn4item7parsing16FlexibleItemType5parse17ha5c93c92e512e37dE, symObjAddr: 0xEDD0, symBinAddr: 0xC0BB0, symSize: 0xA20 }
  - { offsetInCU: 0x5F4CD, offset: 0x3E6676, size: 0x8, addend: 0x0, symName: __ZN3syn4item7parsing16FlexibleItemType21parse_optional_bounds17h6e18b1c664fc4e1bE, symObjAddr: 0xF7F0, symBinAddr: 0xC15D0, symSize: 0x340 }
  - { offsetInCU: 0x5FBD7, offset: 0x3E6D80, size: 0x8, addend: 0x0, symName: __ZN3syn4item7parsing16FlexibleItemType25parse_optional_definition17hf229b9de02f2ada3E, symObjAddr: 0xFB30, symBinAddr: 0xC1910, symSize: 0x150 }
  - { offsetInCU: 0x1E, offset: 0x3F2535, size: 0x8, addend: 0x0, symName: '__ZN42_$LT$$RF$T$u20$as$u20$core..fmt..Debug$GT$3fmt17h921457b402879af4E', symObjAddr: 0x0, symBinAddr: 0xCA7B0, symSize: 0x80 }
  - { offsetInCU: 0x56C, offset: 0x3F2A83, size: 0x8, addend: 0x0, symName: '__ZN3syn8generics8printing80_$LT$impl$u20$quote..to_tokens..ToTokens$u20$for$u20$syn..generics..Generics$GT$9to_tokens17hd4a2af35b3698905E', symObjAddr: 0xF4D0, symBinAddr: 0xD8AF0, symSize: 0x220 }
  - { offsetInCU: 0xD71, offset: 0x3F3288, size: 0x8, addend: 0x0, symName: '__ZN3syn8generics8printing84_$LT$impl$u20$quote..to_tokens..ToTokens$u20$for$u20$syn..generics..ImplGenerics$GT$9to_tokens17h4ab04c178462d76aE', symObjAddr: 0xF6F0, symBinAddr: 0xD8D10, symSize: 0x650 }
  - { offsetInCU: 0x21CF, offset: 0x3F46E6, size: 0x8, addend: 0x0, symName: '__ZN3syn8generics8printing84_$LT$impl$u20$quote..to_tokens..ToTokens$u20$for$u20$syn..generics..TypeGenerics$GT$9to_tokens17h0622ece7b6d3cd84E', symObjAddr: 0xFD40, symBinAddr: 0xD9360, symSize: 0x360 }
  - { offsetInCU: 0x2D64, offset: 0x3F527B, size: 0x8, addend: 0x0, symName: '__ZN3syn8generics8printing81_$LT$impl$u20$quote..to_tokens..ToTokens$u20$for$u20$syn..generics..Turbofish$GT$9to_tokens17hda898f8d39db93e4E', symObjAddr: 0x100A0, symBinAddr: 0xD96C0, symSize: 0x70 }
  - { offsetInCU: 0x2E65, offset: 0x3F537C, size: 0x8, addend: 0x0, symName: '__ZN3syn8generics8printing86_$LT$impl$u20$quote..to_tokens..ToTokens$u20$for$u20$syn..generics..BoundLifetimes$GT$9to_tokens17hd15a7a043033bd7bE', symObjAddr: 0x10110, symBinAddr: 0xD9730, symSize: 0x160 }
  - { offsetInCU: 0x336B, offset: 0x3F5882, size: 0x8, addend: 0x0, symName: '__ZN3syn8generics8printing81_$LT$impl$u20$quote..to_tokens..ToTokens$u20$for$u20$syn..generics..TypeParam$GT$9to_tokens17had0957bfff47d1f9E', symObjAddr: 0x10490, symBinAddr: 0xD9890, symSize: 0x1E0 }
  - { offsetInCU: 0x3AA7, offset: 0x3F5FBE, size: 0x8, addend: 0x0, symName: '__ZN3syn8generics8printing82_$LT$impl$u20$quote..to_tokens..ToTokens$u20$for$u20$syn..generics..TraitBound$GT$9to_tokens17h377c6cef550ec1bfE', symObjAddr: 0x10670, symBinAddr: 0xD9A70, symSize: 0x200 }
  - { offsetInCU: 0x40F7, offset: 0x3F660E, size: 0x8, addend: 0x0, symName: '__ZN3syn8generics8printing82_$LT$impl$u20$quote..to_tokens..ToTokens$u20$for$u20$syn..generics..ConstParam$GT$9to_tokens17hee7453fb2d0e238bE', symObjAddr: 0x108A0, symBinAddr: 0xD9C70, symSize: 0x1D0 }
  - { offsetInCU: 0x4498, offset: 0x3F69AF, size: 0x8, addend: 0x0, symName: '__ZN3syn8generics8printing83_$LT$impl$u20$quote..to_tokens..ToTokens$u20$for$u20$syn..generics..WhereClause$GT$9to_tokens17h909a6fdfe3e31442E', symObjAddr: 0x10A70, symBinAddr: 0xD9E40, symSize: 0x120 }
  - { offsetInCU: 0x4A42, offset: 0x3F6F59, size: 0x8, addend: 0x0, symName: '__ZN3syn8generics8printing85_$LT$impl$u20$quote..to_tokens..ToTokens$u20$for$u20$syn..generics..PredicateType$GT$9to_tokens17h8b4ffaf01fdc18f1E', symObjAddr: 0x10CF0, symBinAddr: 0xD9F60, symSize: 0x320 }
  - { offsetInCU: 0x553B, offset: 0x3F7A52, size: 0x8, addend: 0x0, symName: '__ZN3syn8generics7parsing71_$LT$impl$u20$syn..parse..Parse$u20$for$u20$syn..generics..Generics$GT$5parse17h41c098435a7be9a0E', symObjAddr: 0x8920, symBinAddr: 0xD2B20, symSize: 0x1100 }
  - { offsetInCU: 0x7BFA, offset: 0x3FA111, size: 0x8, addend: 0x0, symName: '__ZN3syn8generics7parsing76_$LT$impl$u20$syn..parse..Parse$u20$for$u20$syn..generics..LifetimeParam$GT$5parse17h5d8a6609f02a7b5bE', symObjAddr: 0xA520, symBinAddr: 0xD3C20, symSize: 0x800 }
  - { offsetInCU: 0x8C84, offset: 0x3FB19B, size: 0x8, addend: 0x0, symName: '__ZN3syn8generics7parsing77_$LT$impl$u20$syn..parse..Parse$u20$for$u20$syn..generics..BoundLifetimes$GT$5parse17hc16736384c98dd41E', symObjAddr: 0xAD20, symBinAddr: 0xD4420, symSize: 0x6A0 }
  - { offsetInCU: 0x99F2, offset: 0x3FBF09, size: 0x8, addend: 0x0, symName: '__ZN3syn8generics7parsing72_$LT$impl$u20$syn..parse..Parse$u20$for$u20$syn..generics..TypeParam$GT$5parse17h9c7ea43a33d4115aE', symObjAddr: 0xB3C0, symBinAddr: 0xD4AC0, symSize: 0x770 }
  - { offsetInCU: 0xAB35, offset: 0x3FD04C, size: 0x8, addend: 0x0, symName: '__ZN3syn8generics7parsing77_$LT$impl$u20$syn..parse..Parse$u20$for$u20$syn..generics..TypeParamBound$GT$5parse17h25e623b87f173e12E', symObjAddr: 0xBB30, symBinAddr: 0xD5230, symSize: 0x1250 }
  - { offsetInCU: 0xE4DE, offset: 0x4009F5, size: 0x8, addend: 0x0, symName: '__ZN3syn8generics7parsing73_$LT$impl$u20$syn..parse..Parse$u20$for$u20$syn..generics..TraitBound$GT$5parse17h690a689474a7b206E', symObjAddr: 0xD250, symBinAddr: 0xD6950, symSize: 0x6B0 }
  - { offsetInCU: 0xF41F, offset: 0x401936, size: 0x8, addend: 0x0, symName: '__ZN3syn8generics7parsing73_$LT$impl$u20$syn..parse..Parse$u20$for$u20$syn..generics..ConstParam$GT$5parse17h7d6405b926c1a94eE', symObjAddr: 0xD9E0, symBinAddr: 0xD7000, symSize: 0x970 }
  - { offsetInCU: 0x108E5, offset: 0x402DFC, size: 0x8, addend: 0x0, symName: '__ZN3syn8generics7parsing74_$LT$impl$u20$syn..parse..Parse$u20$for$u20$syn..generics..WhereClause$GT$5parse17hd23830e75acad64dE', symObjAddr: 0xE350, symBinAddr: 0xD7970, symSize: 0x3B0 }
  - { offsetInCU: 0x1139F, offset: 0x4038B6, size: 0x8, addend: 0x0, symName: '__ZN3syn8generics7parsing77_$LT$impl$u20$syn..parse..Parse$u20$for$u20$syn..generics..WherePredicate$GT$5parse17h70c29b17190c019cE', symObjAddr: 0xE700, symBinAddr: 0xD7D20, symSize: 0xDD0 }
  - { offsetInCU: 0x132AF, offset: 0x4057C6, size: 0x8, addend: 0x0, symName: '__ZN74_$LT$syn..generics..GenericParam$u20$as$u20$quote..to_tokens..ToTokens$GT$9to_tokens17h597acb1380a7ac96E', symObjAddr: 0x11010, symBinAddr: 0xDA280, symSize: 0x270 }
  - { offsetInCU: 0x18920, offset: 0x40AE37, size: 0x8, addend: 0x0, symName: '__ZN3syn3gen5debug72_$LT$impl$u20$core..fmt..Debug$u20$for$u20$syn..generics..ConstParam$GT$3fmt17h892db2eaff8cbd22E', symObjAddr: 0x127B0, symBinAddr: 0xDB0F0, symSize: 0x130 }
  - { offsetInCU: 0x18984, offset: 0x40AE9B, size: 0x8, addend: 0x0, symName: '__ZN3syn3gen5debug74_$LT$impl$u20$core..fmt..Debug$u20$for$u20$syn..generics..GenericParam$GT$3fmt17hfff15bcd0440d795E', symObjAddr: 0x128E0, symBinAddr: 0xDB220, symSize: 0xE0 }
  - { offsetInCU: 0x18AAD, offset: 0x40AFC4, size: 0x8, addend: 0x0, symName: '__ZN3syn3gen5debug70_$LT$impl$u20$core..fmt..Debug$u20$for$u20$syn..generics..Generics$GT$3fmt17h9dadfb880ef428a1E', symObjAddr: 0x129C0, symBinAddr: 0xDB300, symSize: 0xC0 }
  - { offsetInCU: 0x18B11, offset: 0x40B028, size: 0x8, addend: 0x0, symName: '__ZN3syn3gen5debug75_$LT$impl$u20$core..fmt..Debug$u20$for$u20$syn..generics..LifetimeParam$GT$3fmt17h958058f68143fa4cE', symObjAddr: 0x12A80, symBinAddr: 0xDB3C0, symSize: 0xC0 }
  - { offsetInCU: 0x18B75, offset: 0x40B08C, size: 0x8, addend: 0x0, symName: '__ZN3syn3gen5debug79_$LT$impl$u20$core..fmt..Debug$u20$for$u20$syn..generics..PredicateLifetime$GT$3fmt17hbbb848098702f45fE', symObjAddr: 0x12B40, symBinAddr: 0xDB480, symSize: 0xA0 }
  - { offsetInCU: 0x18BD9, offset: 0x40B0F0, size: 0x8, addend: 0x0, symName: '__ZN3syn3gen5debug75_$LT$impl$u20$core..fmt..Debug$u20$for$u20$syn..generics..PredicateType$GT$3fmt17h981d4aa7ee9ab138E', symObjAddr: 0x12BE0, symBinAddr: 0xDB520, symSize: 0xC0 }
  - { offsetInCU: 0x18C3D, offset: 0x40B154, size: 0x8, addend: 0x0, symName: '__ZN3syn3gen5debug72_$LT$impl$u20$core..fmt..Debug$u20$for$u20$syn..generics..TraitBound$GT$3fmt17h808d99d323caf010E', symObjAddr: 0x12CA0, symBinAddr: 0xDB5E0, symSize: 0xC0 }
  - { offsetInCU: 0x18CA1, offset: 0x40B1B8, size: 0x8, addend: 0x0, symName: '__ZN3syn3gen5debug80_$LT$impl$u20$core..fmt..Debug$u20$for$u20$syn..generics..TraitBoundModifier$GT$3fmt17hd43ffabab70db5e5E', symObjAddr: 0x12D60, symBinAddr: 0xDB6A0, symSize: 0xA0 }
  - { offsetInCU: 0x18D56, offset: 0x40B26D, size: 0x8, addend: 0x0, symName: '__ZN3syn3gen5debug71_$LT$impl$u20$core..fmt..Debug$u20$for$u20$syn..generics..TypeParam$GT$3fmt17h024a2ee1af41901aE', symObjAddr: 0x12E00, symBinAddr: 0xDB740, symSize: 0x100 }
  - { offsetInCU: 0x18DBA, offset: 0x40B2D1, size: 0x8, addend: 0x0, symName: '__ZN3syn3gen5debug76_$LT$impl$u20$core..fmt..Debug$u20$for$u20$syn..generics..TypeParamBound$GT$3fmt17h92fa8a1a89829a1cE', symObjAddr: 0x12F00, symBinAddr: 0xDB840, symSize: 0x140 }
  - { offsetInCU: 0x18F0B, offset: 0x40B422, size: 0x8, addend: 0x0, symName: '__ZN3syn3gen5debug76_$LT$impl$u20$core..fmt..Debug$u20$for$u20$syn..generics..WherePredicate$GT$3fmt17h66121acb29a5b026E', symObjAddr: 0x130C0, symBinAddr: 0xDB980, symSize: 0xA0 }
  - { offsetInCU: 0x19090, offset: 0x40B5A7, size: 0x8, addend: 0x0, symName: '__ZN3syn3gen5clone78_$LT$impl$u20$core..clone..Clone$u20$for$u20$syn..generics..WherePredicate$GT$5clone17hbd6bd00e6f5532d2E', symObjAddr: 0x125F0, symBinAddr: 0xDAFF0, symSize: 0x100 }
  - { offsetInCU: 0x1932C, offset: 0x40B843, size: 0x8, addend: 0x0, symName: '__ZN3syn3gen5clone74_$LT$impl$u20$core..clone..Clone$u20$for$u20$syn..generics..ConstParam$GT$5clone17h8bc67da494863269E', symObjAddr: 0x11720, symBinAddr: 0xDA4F0, symSize: 0x1F0 }
  - { offsetInCU: 0x195C0, offset: 0x40BAD7, size: 0x8, addend: 0x0, symName: '__ZN3syn3gen5clone77_$LT$impl$u20$core..clone..Clone$u20$for$u20$syn..generics..LifetimeParam$GT$5clone17hbf15cdf236adaa10E', symObjAddr: 0x11A90, symBinAddr: 0xDA6E0, symSize: 0x130 }
  - { offsetInCU: 0x197E5, offset: 0x40BCFC, size: 0x8, addend: 0x0, symName: '__ZN3syn3gen5clone77_$LT$impl$u20$core..clone..Clone$u20$for$u20$syn..generics..PredicateType$GT$5clone17h013cd41ed055cad0E', symObjAddr: 0x11CA0, symBinAddr: 0xDA810, symSize: 0x150 }
  - { offsetInCU: 0x19978, offset: 0x40BE8F, size: 0x8, addend: 0x0, symName: '__ZN3syn3gen5clone73_$LT$impl$u20$core..clone..Clone$u20$for$u20$syn..generics..TypeParam$GT$5clone17hddca7c785eaee5f9E', symObjAddr: 0x11F40, symBinAddr: 0xDA960, symSize: 0x2B0 }
  - { offsetInCU: 0x19E40, offset: 0x40C357, size: 0x8, addend: 0x0, symName: '__ZN3syn3gen5clone78_$LT$impl$u20$core..clone..Clone$u20$for$u20$syn..generics..TypeParamBound$GT$5clone17hc8c21b6b99f4be95E', symObjAddr: 0x121F0, symBinAddr: 0xDAC10, symSize: 0x3E0 }
  - { offsetInCU: 0x1A667, offset: 0x40CB7E, size: 0x8, addend: 0x0, symName: '__ZN3syn3gen2eq80_$LT$impl$u20$core..cmp..PartialEq$u20$for$u20$syn..generics..WherePredicate$GT$2eq17hf6c3acf912716edfE', symObjAddr: 0x13E70, symBinAddr: 0xDC070, symSize: 0x223 }
  - { offsetInCU: 0x1AD95, offset: 0x40D2AC, size: 0x8, addend: 0x0, symName: '__ZN3syn3gen2eq74_$LT$impl$u20$core..cmp..PartialEq$u20$for$u20$syn..generics..Generics$GT$2eq17h215b981cb2b49472E', symObjAddr: 0x13580, symBinAddr: 0xDBC90, symSize: 0x140 }
  - { offsetInCU: 0x1B1F5, offset: 0x40D70C, size: 0x8, addend: 0x0, symName: '__ZN3syn3gen2eq78_$LT$impl$u20$core..cmp..PartialEq$u20$for$u20$syn..generics..GenericParam$GT$2eq17h9e5911e1d12872a5E', symObjAddr: 0x13310, symBinAddr: 0xDBA20, symSize: 0x270 }
  - { offsetInCU: 0x1B848, offset: 0x40DD5F, size: 0x8, addend: 0x0, symName: '__ZN3syn3gen2eq75_$LT$impl$u20$core..cmp..PartialEq$u20$for$u20$syn..generics..TypeParam$GT$2eq17h93c5b900e878088dE', symObjAddr: 0x13B70, symBinAddr: 0xDBDD0, symSize: 0x1A0 }
  - { offsetInCU: 0x1BBEC, offset: 0x40E103, size: 0x8, addend: 0x0, symName: '__ZN3syn3gen2eq80_$LT$impl$u20$core..cmp..PartialEq$u20$for$u20$syn..generics..TypeParamBound$GT$2eq17ha2a715ac3b94ee96E', symObjAddr: 0x13D10, symBinAddr: 0xDBF70, symSize: 0x100 }
  - { offsetInCU: 0x1E958, offset: 0x410E6F, size: 0x8, addend: 0x0, symName: '__ZN4core3ptr100drop_in_place$LT$core..option..Option$LT$alloc..boxed..Box$LT$syn..path..GenericArgument$GT$$GT$$GT$17h3a7c44b9e57fe410E', symObjAddr: 0x360, symBinAddr: 0xCAA30, symSize: 0x50 }
  - { offsetInCU: 0x1EB63, offset: 0x41107A, size: 0x8, addend: 0x0, symName: '__ZN4core3ptr100drop_in_place$LT$syn..punctuated..Punctuated$LT$syn..path..PathSegment$C$syn..token..PathSep$GT$$GT$17he41ef64147139591E', symObjAddr: 0x3B0, symBinAddr: 0xCAA80, symSize: 0x170 }
  - { offsetInCU: 0x1F1DC, offset: 0x4116F3, size: 0x8, addend: 0x0, symName: '__ZN4core3ptr103drop_in_place$LT$core..option..Option$LT$alloc..boxed..Box$LT$syn..generics..TypeParamBound$GT$$GT$$GT$17hb14e4384a768542bE', symObjAddr: 0x520, symBinAddr: 0xCABF0, symSize: 0x50 }
  - { offsetInCU: 0x1F406, offset: 0x41191D, size: 0x8, addend: 0x0, symName: '__ZN4core3ptr103drop_in_place$LT$core..option..Option$LT$alloc..boxed..Box$LT$syn..generics..WherePredicate$GT$$GT$$GT$17he190813f4819c5dbE', symObjAddr: 0x570, symBinAddr: 0xCAC40, symSize: 0xD0 }
  - { offsetInCU: 0x1F79A, offset: 0x411CB1, size: 0x8, addend: 0x0, symName: '__ZN4core3ptr103drop_in_place$LT$syn..punctuated..Punctuated$LT$syn..generics..GenericParam$C$syn..token..Comma$GT$$GT$17h0c6077a988036760E.llvm.1278538373299499664', symObjAddr: 0x640, symBinAddr: 0xCAD10, symSize: 0xF0 }
  - { offsetInCU: 0x1FBFA, offset: 0x412111, size: 0x8, addend: 0x0, symName: '__ZN4core3ptr104drop_in_place$LT$syn..punctuated..Punctuated$LT$syn..generics..TypeParamBound$C$syn..token..Plus$GT$$GT$17h724e4d9d1d65061aE', symObjAddr: 0x730, symBinAddr: 0xCAE00, symSize: 0x170 }
  - { offsetInCU: 0x20194, offset: 0x4126AB, size: 0x8, addend: 0x0, symName: '__ZN4core3ptr105drop_in_place$LT$syn..punctuated..Punctuated$LT$syn..generics..WherePredicate$C$syn..token..Comma$GT$$GT$17h18b5b213db2a676cE', symObjAddr: 0x8A0, symBinAddr: 0xCAF70, symSize: 0x80 }
  - { offsetInCU: 0x20494, offset: 0x4129AB, size: 0x8, addend: 0x0, symName: '__ZN4core3ptr34drop_in_place$LT$syn..lit..Lit$GT$17hd64dde89a262341dE', symObjAddr: 0x920, symBinAddr: 0xCAFF0, symSize: 0x120 }
  - { offsetInCU: 0x209C0, offset: 0x412ED7, size: 0x8, addend: 0x0, symName: '__ZN4core3ptr34drop_in_place$LT$syn..pat..Pat$GT$17hf88887878261d63cE', symObjAddr: 0xA40, symBinAddr: 0xCB110, symSize: 0x1100 }
  - { offsetInCU: 0x25058, offset: 0x41756F, size: 0x8, addend: 0x0, symName: '__ZN4core3ptr34drop_in_place$LT$syn..ty..Type$GT$17ha80dd29b0f9d4a3fE.llvm.1278538373299499664', symObjAddr: 0x1B40, symBinAddr: 0xCC210, symSize: 0x520 }
  - { offsetInCU: 0x266EC, offset: 0x418C03, size: 0x8, addend: 0x0, symName: '__ZN4core3ptr36drop_in_place$LT$syn..expr..Expr$GT$17h10f573b40ddd212cE.llvm.1278538373299499664', symObjAddr: 0x2060, symBinAddr: 0xCC730, symSize: 0x2840 }
  - { offsetInCU: 0x307CA, offset: 0x422CE1, size: 0x8, addend: 0x0, symName: '__ZN4core3ptr36drop_in_place$LT$syn..mac..Macro$GT$17hc3b30a7a8a34cc2dE', symObjAddr: 0x48A0, symBinAddr: 0xCEF70, symSize: 0x40 }
  - { offsetInCU: 0x30880, offset: 0x422D97, size: 0x8, addend: 0x0, symName: '__ZN4core3ptr36drop_in_place$LT$syn..path..Path$GT$17h75c74a97d5f0a03bE', symObjAddr: 0x48E0, symBinAddr: 0xCEFB0, symSize: 0x280 }
  - { offsetInCU: 0x3132D, offset: 0x423844, size: 0x8, addend: 0x0, symName: '__ZN4core3ptr37drop_in_place$LT$syn..stmt..Block$GT$17h6fc3254d5688f2c3E', symObjAddr: 0x4B60, symBinAddr: 0xCF230, symSize: 0xD0 }
  - { offsetInCU: 0x31604, offset: 0x423B1B, size: 0x8, addend: 0x0, symName: '__ZN4core3ptr38drop_in_place$LT$syn..expr..Member$GT$17h6b0cf84594ce6bceE', symObjAddr: 0x4C30, symBinAddr: 0xCF300, symSize: 0x30 }
  - { offsetInCU: 0x31700, offset: 0x423C17, size: 0x8, addend: 0x0, symName: '__ZN4core3ptr39drop_in_place$LT$proc_macro2..Ident$GT$17ha28fef9769e267d9E.llvm.1278538373299499664', symObjAddr: 0x4C60, symBinAddr: 0xCF330, symSize: 0x30 }
  - { offsetInCU: 0x317DD, offset: 0x423CF4, size: 0x8, addend: 0x0, symName: '__ZN4core3ptr40drop_in_place$LT$syn..ty..ReturnType$GT$17h035a612e322b6510E', symObjAddr: 0x4C90, symBinAddr: 0xCF360, symSize: 0x50 }
  - { offsetInCU: 0x3194D, offset: 0x423E64, size: 0x8, addend: 0x0, symName: '__ZN4core3ptr41drop_in_place$LT$syn..expr..ExprConst$GT$17hbfe19d5d621e6836E', symObjAddr: 0x4CE0, symBinAddr: 0xCF3B0, symSize: 0x180 }
  - { offsetInCU: 0x31F3A, offset: 0x424451, size: 0x8, addend: 0x0, symName: '__ZN4core3ptr44drop_in_place$LT$syn..lifetime..Lifetime$GT$17he37fa474f03de7b1E.llvm.1278538373299499664', symObjAddr: 0x4EA0, symBinAddr: 0xCF530, symSize: 0x30 }
  - { offsetInCU: 0x320B2, offset: 0x4245C9, size: 0x8, addend: 0x0, symName: '__ZN4core3ptr44drop_in_place$LT$syn..parse..ParseBuffer$GT$17hf792ff20095efc35E', symObjAddr: 0x4ED0, symBinAddr: 0xCF560, symSize: 0x70 }
  - { offsetInCU: 0x324C9, offset: 0x4249E0, size: 0x8, addend: 0x0, symName: '__ZN4core3ptr45drop_in_place$LT$proc_macro2..TokenStream$GT$17h76e8e68015f4924dE.llvm.1278538373299499664', symObjAddr: 0x4F40, symBinAddr: 0xCF5D0, symSize: 0x140 }
  - { offsetInCU: 0x32963, offset: 0x424E7A, size: 0x8, addend: 0x0, symName: '__ZN4core3ptr45drop_in_place$LT$syn..generics..TypeParam$GT$17h188a459c1380ac75E.llvm.1278538373299499664', symObjAddr: 0x5080, symBinAddr: 0xCF710, symSize: 0x230 }
  - { offsetInCU: 0x331D8, offset: 0x4256EF, size: 0x8, addend: 0x0, symName: '__ZN4core3ptr45drop_in_place$LT$syn..path..PathArguments$GT$17hdbc6dfac6f3334e6E', symObjAddr: 0x52B0, symBinAddr: 0xCF940, symSize: 0x190 }
  - { offsetInCU: 0x336A8, offset: 0x425BBF, size: 0x8, addend: 0x0, symName: '__ZN4core3ptr46drop_in_place$LT$syn..generics..ConstParam$GT$17h7a9b900b2b88bfcdE.llvm.1278538373299499664', symObjAddr: 0x5440, symBinAddr: 0xCFAD0, symSize: 0x150 }
  - { offsetInCU: 0x33ACC, offset: 0x425FE3, size: 0x8, addend: 0x0, symName: '__ZN4core3ptr46drop_in_place$LT$syn..generics..TraitBound$GT$17hbfe193394d805ef5E.llvm.1278538373299499664', symObjAddr: 0x5590, symBinAddr: 0xCFC20, symSize: 0x130 }
  - { offsetInCU: 0x33F6F, offset: 0x426486, size: 0x8, addend: 0x0, symName: '__ZN4core3ptr47drop_in_place$LT$syn..path..GenericArgument$GT$17h593f06d6ca9a94d2E', symObjAddr: 0x56C0, symBinAddr: 0xCFD50, symSize: 0x4A0 }
  - { offsetInCU: 0x35075, offset: 0x42758C, size: 0x8, addend: 0x0, symName: '__ZN4core3ptr49drop_in_place$LT$syn..generics..LifetimeParam$GT$17h3a8835ab294bfd16E.llvm.1278538373299499664', symObjAddr: 0x5B60, symBinAddr: 0xD01F0, symSize: 0xF0 }
  - { offsetInCU: 0x3548C, offset: 0x4279A3, size: 0x8, addend: 0x0, symName: '__ZN4core3ptr49drop_in_place$LT$syn..generics..PredicateType$GT$17h28460a55196bd45fE.llvm.1278538373299499664', symObjAddr: 0x5C50, symBinAddr: 0xD02E0, symSize: 0x70 }
  - { offsetInCU: 0x354FC, offset: 0x427A13, size: 0x8, addend: 0x0, symName: '__ZN4core3ptr50drop_in_place$LT$syn..generics..TypeParamBound$GT$17h81b4325b5900604dE', symObjAddr: 0x5CC0, symBinAddr: 0xD0350, symSize: 0xA0 }
  - { offsetInCU: 0x35662, offset: 0x427B79, size: 0x8, addend: 0x0, symName: '__ZN4core3ptr53drop_in_place$LT$syn..generics..PredicateLifetime$GT$17hd47626f38faed49cE.llvm.1278538373299499664', symObjAddr: 0x5D60, symBinAddr: 0xD03F0, symSize: 0x40 }
  - { offsetInCU: 0x35682, offset: 0x427B99, size: 0x8, addend: 0x0, symName: '__ZN4core3ptr53drop_in_place$LT$syn..generics..PredicateLifetime$GT$17hd47626f38faed49cE.llvm.1278538373299499664', symObjAddr: 0x5D60, symBinAddr: 0xD03F0, symSize: 0x40 }
  - { offsetInCU: 0x356A0, offset: 0x427BB7, size: 0x8, addend: 0x0, symName: '__ZN4core3ptr53drop_in_place$LT$syn..generics..PredicateLifetime$GT$17hd47626f38faed49cE.llvm.1278538373299499664', symObjAddr: 0x5D60, symBinAddr: 0xD03F0, symSize: 0x40 }
  - { offsetInCU: 0x356BE, offset: 0x427BD5, size: 0x8, addend: 0x0, symName: '__ZN4core3ptr53drop_in_place$LT$syn..generics..PredicateLifetime$GT$17hd47626f38faed49cE.llvm.1278538373299499664', symObjAddr: 0x5D60, symBinAddr: 0xD03F0, symSize: 0x40 }
  - { offsetInCU: 0x35781, offset: 0x427C98, size: 0x8, addend: 0x0, symName: '__ZN4core3ptr58drop_in_place$LT$alloc..vec..Vec$LT$syn..expr..Arm$GT$$GT$17hff9224aadf2233b8E', symObjAddr: 0x5DA0, symBinAddr: 0xD0430, symSize: 0xD0 }
  - { offsetInCU: 0x35A41, offset: 0x427F58, size: 0x8, addend: 0x0, symName: '__ZN4core3ptr59drop_in_place$LT$alloc..boxed..Box$LT$syn..pat..Pat$GT$$GT$17h622b0c1db21c0742E', symObjAddr: 0x5E70, symBinAddr: 0xD0500, symSize: 0x50 }
  - { offsetInCU: 0x35B9A, offset: 0x4280B1, size: 0x8, addend: 0x0, symName: '__ZN4core3ptr59drop_in_place$LT$alloc..boxed..Box$LT$syn..ty..Type$GT$$GT$17hde45fa887dd8b605E', symObjAddr: 0x5EC0, symBinAddr: 0xD0550, symSize: 0x50 }
  - { offsetInCU: 0x35CF3, offset: 0x42820A, size: 0x8, addend: 0x0, symName: '__ZN4core3ptr61drop_in_place$LT$alloc..boxed..Box$LT$syn..expr..Expr$GT$$GT$17hbb42293869113942E', symObjAddr: 0x5F10, symBinAddr: 0xD05A0, symSize: 0x50 }
  - { offsetInCU: 0x35EC8, offset: 0x4283DF, size: 0x8, addend: 0x0, symName: '__ZN4core3ptr61drop_in_place$LT$syn..path..ParenthesizedGenericArguments$GT$17h6b1731382637937fE', symObjAddr: 0x5F60, symBinAddr: 0xD05F0, symSize: 0x170 }
  - { offsetInCU: 0x364BE, offset: 0x4289D5, size: 0x8, addend: 0x0, symName: '__ZN4core3ptr62drop_in_place$LT$core..option..Option$LT$syn..ty..Type$GT$$GT$17h80abfa6e6ae64438E', symObjAddr: 0x60D0, symBinAddr: 0xD0760, symSize: 0x20 }
  - { offsetInCU: 0x364D9, offset: 0x4289F0, size: 0x8, addend: 0x0, symName: '__ZN4core3ptr62drop_in_place$LT$syn..path..AngleBracketedGenericArguments$GT$17hf8fa172f007a1473E', symObjAddr: 0x60F0, symBinAddr: 0xD0780, symSize: 0x120 }
  - { offsetInCU: 0x36924, offset: 0x428E3B, size: 0x8, addend: 0x0, symName: '__ZN4core3ptr63drop_in_place$LT$alloc..boxed..Box$LT$syn..lit..LitRepr$GT$$GT$17h6e3a82ea4de7b84cE', symObjAddr: 0x6210, symBinAddr: 0xD08A0, symSize: 0x60 }
  - { offsetInCU: 0x36C2B, offset: 0x429142, size: 0x8, addend: 0x0, symName: '__ZN4core3ptr64drop_in_place$LT$alloc..boxed..Box$LT$syn..pat..FieldPat$GT$$GT$17hbf8f4867d84bd25dE', symObjAddr: 0x6270, symBinAddr: 0xD0900, symSize: 0x140 }
  - { offsetInCU: 0x3732C, offset: 0x429843, size: 0x8, addend: 0x0, symName: '__ZN4core3ptr64drop_in_place$LT$alloc..boxed..Box$LT$syn..ty..BareFnArg$GT$$GT$17h6be6354eb1d1364dE', symObjAddr: 0x63B0, symBinAddr: 0xD0A40, symSize: 0x140 }
  - { offsetInCU: 0x378B5, offset: 0x429DCC, size: 0x8, addend: 0x0, symName: '__ZN4core3ptr64drop_in_place$LT$alloc..vec..Vec$LT$syn..attr..Attribute$GT$$GT$17he33e25539d5885aeE.llvm.1278538373299499664', symObjAddr: 0x64F0, symBinAddr: 0xD0B80, symSize: 0xD0 }
  - { offsetInCU: 0x37BA9, offset: 0x42A0C0, size: 0x8, addend: 0x0, symName: '__ZN4core3ptr64drop_in_place$LT$core..option..Option$LT$syn..expr..Expr$GT$$GT$17h1cf468d72a93daa3E', symObjAddr: 0x65C0, symBinAddr: 0xD0C50, symSize: 0x20 }
  - { offsetInCU: 0x37BC4, offset: 0x42A0DB, size: 0x8, addend: 0x0, symName: '__ZN4core3ptr65drop_in_place$LT$alloc..vec..Vec$LT$proc_macro..TokenTree$GT$$GT$17h8abd81f8596dbc59E', symObjAddr: 0x65E0, symBinAddr: 0xD0C70, symSize: 0x110 }
  - { offsetInCU: 0x37FBC, offset: 0x42A4D3, size: 0x8, addend: 0x0, symName: '__ZN4core3ptr65drop_in_place$LT$core..option..Option$LT$syn..expr..Label$GT$$GT$17hac599686b33ef364E', symObjAddr: 0x66F0, symBinAddr: 0xD0D80, symSize: 0x30 }
  - { offsetInCU: 0x380F6, offset: 0x42A60D, size: 0x8, addend: 0x0, symName: '__ZN4core3ptr66drop_in_place$LT$core..option..Option$LT$syn..pat..PatRest$GT$$GT$17hd5bb3bc28aa78ac1E', symObjAddr: 0x6720, symBinAddr: 0xD0DB0, symSize: 0xE0 }
  - { offsetInCU: 0x3841E, offset: 0x42A935, size: 0x8, addend: 0x0, symName: '__ZN4core3ptr67drop_in_place$LT$alloc..boxed..Box$LT$syn..expr..FieldValue$GT$$GT$17hbbcf67a9d5e9863cE', symObjAddr: 0x6800, symBinAddr: 0xD0E90, symSize: 0x140 }
  - { offsetInCU: 0x38987, offset: 0x42AE9E, size: 0x8, addend: 0x0, symName: '__ZN4core3ptr68drop_in_place$LT$alloc..boxed..Box$LT$syn..path..PathSegment$GT$$GT$17h99aaf90b3262bc1eE', symObjAddr: 0x6940, symBinAddr: 0xD0FD0, symSize: 0x1B0 }
  - { offsetInCU: 0x39095, offset: 0x42B5AC, size: 0x8, addend: 0x0, symName: '__ZN4core3ptr70drop_in_place$LT$core..option..Option$LT$syn..ty..BareVariadic$GT$$GT$17h79a19250e9f043b1E', symObjAddr: 0x6AF0, symBinAddr: 0xD1180, symSize: 0x100 }
  - { offsetInCU: 0x39500, offset: 0x42BA17, size: 0x8, addend: 0x0, symName: '__ZN4core3ptr72drop_in_place$LT$alloc..boxed..Box$LT$syn..path..GenericArgument$GT$$GT$17hfd308d374af4273dE', symObjAddr: 0x6BF0, symBinAddr: 0xD1280, symSize: 0x2B0 }
  - { offsetInCU: 0x39EB8, offset: 0x42C3CF, size: 0x8, addend: 0x0, symName: '__ZN4core3ptr72drop_in_place$LT$core..option..Option$LT$syn..lifetime..Lifetime$GT$$GT$17h49cce6f02f9c0590E', symObjAddr: 0x6EA0, symBinAddr: 0xD1530, symSize: 0x30 }
  - { offsetInCU: 0x39FD3, offset: 0x42C4EA, size: 0x8, addend: 0x0, symName: '__ZN4core3ptr73drop_in_place$LT$alloc..boxed..Box$LT$syn..generics..GenericParam$GT$$GT$17ha26d5d145af4b203E.llvm.1278538373299499664', symObjAddr: 0x6ED0, symBinAddr: 0xD1560, symSize: 0x80 }
  - { offsetInCU: 0x3A149, offset: 0x42C660, size: 0x8, addend: 0x0, symName: '__ZN4core3ptr75drop_in_place$LT$alloc..boxed..Box$LT$syn..generics..TypeParamBound$GT$$GT$17h129a4e927e5eb81bE', symObjAddr: 0x6F50, symBinAddr: 0xD15E0, symSize: 0x1B0 }
  - { offsetInCU: 0x3A829, offset: 0x42CD40, size: 0x8, addend: 0x0, symName: '__ZN4core3ptr75drop_in_place$LT$core..option..Option$LT$syn..generics..WhereClause$GT$$GT$17haaf63f327098cdccE', symObjAddr: 0x7100, symBinAddr: 0xD1790, symSize: 0x90 }
  - { offsetInCU: 0x3AAC0, offset: 0x42CFD7, size: 0x8, addend: 0x0, symName: '__ZN4core3ptr78drop_in_place$LT$core..option..Option$LT$syn..generics..BoundLifetimes$GT$$GT$17hcc2c861c1632285dE', symObjAddr: 0x7190, symBinAddr: 0xD1820, symSize: 0x20 }
  - { offsetInCU: 0x3AB55, offset: 0x42D06C, size: 0x8, addend: 0x0, symName: '__ZN4core3ptr86drop_in_place$LT$syn..punctuated..Punctuated$LT$syn..pat..Pat$C$syn..token..Or$GT$$GT$17h9cc6b5f7b6d3a555E', symObjAddr: 0x71B0, symBinAddr: 0xD1840, symSize: 0x120 }
  - { offsetInCU: 0x3AFD0, offset: 0x42D4E7, size: 0x8, addend: 0x0, symName: '__ZN4core3ptr87drop_in_place$LT$core..option..Option$LT$alloc..boxed..Box$LT$syn..pat..Pat$GT$$GT$$GT$17h51cd48973d96c411E', symObjAddr: 0x72D0, symBinAddr: 0xD1960, symSize: 0x50 }
  - { offsetInCU: 0x3B140, offset: 0x42D657, size: 0x8, addend: 0x0, symName: '__ZN4core3ptr87drop_in_place$LT$core..option..Option$LT$alloc..boxed..Box$LT$syn..ty..Type$GT$$GT$$GT$17h103a25a4a7d7374eE', symObjAddr: 0x7320, symBinAddr: 0xD19B0, symSize: 0x50 }
  - { offsetInCU: 0x3B2B0, offset: 0x42D7C7, size: 0x8, addend: 0x0, symName: '__ZN4core3ptr89drop_in_place$LT$core..option..Option$LT$alloc..boxed..Box$LT$syn..expr..Expr$GT$$GT$$GT$17h9e02509cb2345d44E', symObjAddr: 0x7370, symBinAddr: 0xD1A00, symSize: 0x50 }
  - { offsetInCU: 0x3B45E, offset: 0x42D975, size: 0x8, addend: 0x0, symName: '__ZN4core3ptr89drop_in_place$LT$syn..punctuated..Punctuated$LT$syn..pat..Pat$C$syn..token..Comma$GT$$GT$17hd3a83c36827f210aE', symObjAddr: 0x73C0, symBinAddr: 0xD1A50, symSize: 0x120 }
  - { offsetInCU: 0x3B8F0, offset: 0x42DE07, size: 0x8, addend: 0x0, symName: '__ZN4core3ptr89drop_in_place$LT$syn..punctuated..Punctuated$LT$syn..ty..Type$C$syn..token..Comma$GT$$GT$17he030c4b7f24a5848E', symObjAddr: 0x74E0, symBinAddr: 0xD1B70, symSize: 0x120 }
  - { offsetInCU: 0x3BD6B, offset: 0x42E282, size: 0x8, addend: 0x0, symName: '__ZN4core3ptr90drop_in_place$LT$core..option..Option$LT$syn..path..AngleBracketedGenericArguments$GT$$GT$17ha307713a95a0671eE', symObjAddr: 0x7600, symBinAddr: 0xD1C90, symSize: 0x130 }
  - { offsetInCU: 0x3C20D, offset: 0x42E724, size: 0x8, addend: 0x0, symName: '__ZN4core3ptr91drop_in_place$LT$syn..punctuated..Punctuated$LT$syn..expr..Expr$C$syn..token..Comma$GT$$GT$17h6f261e8f470c81f2E', symObjAddr: 0x7730, symBinAddr: 0xD1DC0, symSize: 0x120 }
  - { offsetInCU: 0x3C69B, offset: 0x42EBB2, size: 0x8, addend: 0x0, symName: '__ZN4core3ptr94drop_in_place$LT$syn..punctuated..Punctuated$LT$syn..pat..FieldPat$C$syn..token..Comma$GT$$GT$17h43ec25af986ef674E', symObjAddr: 0x7850, symBinAddr: 0xD1EE0, symSize: 0xF0 }
  - { offsetInCU: 0x3C99A, offset: 0x42EEB1, size: 0x8, addend: 0x0, symName: '__ZN4core3ptr94drop_in_place$LT$syn..punctuated..Punctuated$LT$syn..ty..BareFnArg$C$syn..token..Comma$GT$$GT$17h7ba4c699ee390ebaE', symObjAddr: 0x7940, symBinAddr: 0xD1FD0, symSize: 0xF0 }
  - { offsetInCU: 0x3CC9B, offset: 0x42F1B2, size: 0x8, addend: 0x0, symName: '__ZN4core3ptr96drop_in_place$LT$core..option..Option$LT$alloc..boxed..Box$LT$syn..path..PathSegment$GT$$GT$$GT$17h5de12a5a0f9e9ef9E', symObjAddr: 0x7A30, symBinAddr: 0xD20C0, symSize: 0xA0 }
  - { offsetInCU: 0x3CF1A, offset: 0x42F431, size: 0x8, addend: 0x0, symName: '__ZN4core3ptr97drop_in_place$LT$syn..punctuated..Punctuated$LT$syn..expr..FieldValue$C$syn..token..Comma$GT$$GT$17hf58d0a9a09266ab3E', symObjAddr: 0x7AD0, symBinAddr: 0xD2160, symSize: 0xF0 }
  - { offsetInCU: 0x3D217, offset: 0x42F72E, size: 0x8, addend: 0x0, symName: '__ZN4core3ptr98drop_in_place$LT$alloc..vec..Vec$LT$$LP$syn..path..GenericArgument$C$syn..token..Comma$RP$$GT$$GT$17h0dee282a026d5a38E', symObjAddr: 0x7BC0, symBinAddr: 0xD2250, symSize: 0xD0 }
  - { offsetInCU: 0x3D557, offset: 0x42FA6E, size: 0x8, addend: 0x0, symName: '__ZN4core3ptr98drop_in_place$LT$syn..punctuated..Punctuated$LT$syn..lifetime..Lifetime$C$syn..token..Plus$GT$$GT$17h600c2b78f78fd2b9E.llvm.1278538373299499664', symObjAddr: 0x7C90, symBinAddr: 0xD2320, symSize: 0xD0 }
  - { offsetInCU: 0x3FA14, offset: 0x431F2B, size: 0x8, addend: 0x0, symName: '__ZN66_$LT$core..option..Option$LT$T$GT$$u20$as$u20$core..fmt..Debug$GT$3fmt17h3f9cb4e734346458E', symObjAddr: 0x7FB0, symBinAddr: 0xD2580, symSize: 0x50 }
  - { offsetInCU: 0x3FA7A, offset: 0x431F91, size: 0x8, addend: 0x0, symName: '__ZN66_$LT$core..option..Option$LT$T$GT$$u20$as$u20$core..fmt..Debug$GT$3fmt17h4df9694f63b1094bE', symObjAddr: 0x8000, symBinAddr: 0xD25D0, symSize: 0x50 }
  - { offsetInCU: 0x3FAE0, offset: 0x431FF7, size: 0x8, addend: 0x0, symName: '__ZN66_$LT$core..option..Option$LT$T$GT$$u20$as$u20$core..fmt..Debug$GT$3fmt17h5b7250fe1c239fe0E', symObjAddr: 0x8050, symBinAddr: 0xD2620, symSize: 0x60 }
  - { offsetInCU: 0x3FB46, offset: 0x43205D, size: 0x8, addend: 0x0, symName: '__ZN66_$LT$core..option..Option$LT$T$GT$$u20$as$u20$core..fmt..Debug$GT$3fmt17h7f047cf087f50b1aE', symObjAddr: 0x80B0, symBinAddr: 0xD2680, symSize: 0x60 }
  - { offsetInCU: 0x3FBAC, offset: 0x4320C3, size: 0x8, addend: 0x0, symName: '__ZN66_$LT$core..option..Option$LT$T$GT$$u20$as$u20$core..fmt..Debug$GT$3fmt17h8207a204a4ce830cE', symObjAddr: 0x8110, symBinAddr: 0xD26E0, symSize: 0x50 }
  - { offsetInCU: 0x3FC12, offset: 0x432129, size: 0x8, addend: 0x0, symName: '__ZN66_$LT$core..option..Option$LT$T$GT$$u20$as$u20$core..fmt..Debug$GT$3fmt17h90598f4ce81c56a1E', symObjAddr: 0x8160, symBinAddr: 0xD2730, symSize: 0x50 }
  - { offsetInCU: 0x3FC78, offset: 0x43218F, size: 0x8, addend: 0x0, symName: '__ZN66_$LT$core..option..Option$LT$T$GT$$u20$as$u20$core..fmt..Debug$GT$3fmt17h9d6a24eae4b62f21E', symObjAddr: 0x81B0, symBinAddr: 0xD2780, symSize: 0x60 }
  - { offsetInCU: 0x3FCDE, offset: 0x4321F5, size: 0x8, addend: 0x0, symName: '__ZN66_$LT$core..option..Option$LT$T$GT$$u20$as$u20$core..fmt..Debug$GT$3fmt17ha4a0a8dd99e06ff0E', symObjAddr: 0x8210, symBinAddr: 0xD27E0, symSize: 0x60 }
  - { offsetInCU: 0x3FD44, offset: 0x43225B, size: 0x8, addend: 0x0, symName: '__ZN66_$LT$core..option..Option$LT$T$GT$$u20$as$u20$core..fmt..Debug$GT$3fmt17he5c6d035a7e6347eE', symObjAddr: 0x8270, symBinAddr: 0xD2840, symSize: 0x60 }
  - { offsetInCU: 0x40753, offset: 0x432C6A, size: 0x8, addend: 0x0, symName: '__ZN42_$LT$$RF$T$u20$as$u20$core..fmt..Debug$GT$3fmt17h921457b402879af4E', symObjAddr: 0x0, symBinAddr: 0xCA7B0, symSize: 0x80 }
  - { offsetInCU: 0x407D7, offset: 0x432CEE, size: 0x8, addend: 0x0, symName: '__ZN42_$LT$$RF$T$u20$as$u20$core..fmt..Debug$GT$3fmt17ha8ec4306c231e8e6E', symObjAddr: 0x80, symBinAddr: 0xCA830, symSize: 0xC0 }
  - { offsetInCU: 0x4259D, offset: 0x434AB4, size: 0x8, addend: 0x0, symName: '__ZN48_$LT$T$u20$as$u20$core..clone..CloneToUninit$GT$15clone_to_uninit17hc598a6c9534b5b4fE', symObjAddr: 0x220, symBinAddr: 0xCA8F0, symSize: 0x140 }
  - { offsetInCU: 0x4380A, offset: 0x435D21, size: 0x8, addend: 0x0, symName: '__ZN73_$LT$$u5b$A$u5d$$u20$as$u20$core..slice..cmp..SlicePartialEq$LT$B$GT$$GT$5equal17h4726c5348322eae6E', symObjAddr: 0x8330, symBinAddr: 0xD28A0, symSize: 0x280 }
  - { offsetInCU: 0x465C4, offset: 0x438ADB, size: 0x8, addend: 0x0, symName: _anon.3efb8cbe47e27110b2021387cd2a15db.52.llvm.1278538373299499664, symObjAddr: 0x159B8, symBinAddr: 0x262718, symSize: 0x0 }
  - { offsetInCU: 0x4660F, offset: 0x438B26, size: 0x8, addend: 0x0, symName: _anon.3efb8cbe47e27110b2021387cd2a15db.54.llvm.1278538373299499664, symObjAddr: 0x159D8, symBinAddr: 0x262738, symSize: 0x0 }
  - { offsetInCU: 0x4665A, offset: 0x438B71, size: 0x8, addend: 0x0, symName: _anon.3efb8cbe47e27110b2021387cd2a15db.56.llvm.1278538373299499664, symObjAddr: 0x159F8, symBinAddr: 0x262758, symSize: 0x0 }
  - { offsetInCU: 0x466A5, offset: 0x438BBC, size: 0x8, addend: 0x0, symName: _anon.3efb8cbe47e27110b2021387cd2a15db.87.llvm.1278538373299499664, symObjAddr: 0x15BB8, symBinAddr: 0x262918, symSize: 0x0 }
  - { offsetInCU: 0x466F0, offset: 0x438C07, size: 0x8, addend: 0x0, symName: _anon.3efb8cbe47e27110b2021387cd2a15db.89.llvm.1278538373299499664, symObjAddr: 0x15BD8, symBinAddr: 0x262938, symSize: 0x0 }
  - { offsetInCU: 0x4673B, offset: 0x438C52, size: 0x8, addend: 0x0, symName: _anon.3efb8cbe47e27110b2021387cd2a15db.96.llvm.1278538373299499664, symObjAddr: 0x15C38, symBinAddr: 0x262998, symSize: 0x0 }
  - { offsetInCU: 0x46786, offset: 0x438C9D, size: 0x8, addend: 0x0, symName: _anon.3efb8cbe47e27110b2021387cd2a15db.97.llvm.1278538373299499664, symObjAddr: 0x15C58, symBinAddr: 0x2629B8, symSize: 0x0 }
  - { offsetInCU: 0x47667, offset: 0x439B7E, size: 0x8, addend: 0x0, symName: '__ZN52_$LT$$RF$T$u20$as$u20$quote..to_tokens..ToTokens$GT$9to_tokens17h105a97bdbe744db0E', symObjAddr: 0x7E10, symBinAddr: 0xD23F0, symSize: 0x190 }
  - { offsetInCU: 0x4916E, offset: 0x43B685, size: 0x8, addend: 0x0, symName: '__ZN3syn8generics7parsing47_$LT$impl$u20$syn..generics..TypeParamBound$GT$14parse_multiple17h33e6fbea8f6e153bE', symObjAddr: 0xCD80, symBinAddr: 0xD6480, symSize: 0x4D0 }
  - { offsetInCU: 0x1E, offset: 0x445FB7, size: 0x8, addend: 0x0, symName: '__ZN42_$LT$$RF$T$u20$as$u20$core..fmt..Debug$GT$3fmt17h065a38d2d7c650a8E', symObjAddr: 0x0, symBinAddr: 0xDC2A0, symSize: 0x20 }
  - { offsetInCU: 0xF24, offset: 0x446EBD, size: 0x8, addend: 0x0, symName: '__ZN51_$LT$syn..token..In$u20$as$u20$core..fmt..Debug$GT$3fmt17hd3e85b92090ec6ffE', symObjAddr: 0x2A50, symBinAddr: 0xDD5C0, symSize: 0x20 }
  - { offsetInCU: 0xF78, offset: 0x446F11, size: 0x8, addend: 0x0, symName: '__ZN52_$LT$syn..token..Mut$u20$as$u20$core..fmt..Debug$GT$3fmt17h21113ae0f4bcc45fE', symObjAddr: 0x3230, symBinAddr: 0xDD7A0, symSize: 0x20 }
  - { offsetInCU: 0xFCC, offset: 0x446F65, size: 0x8, addend: 0x0, symName: '__ZN51_$LT$syn..token..If$u20$as$u20$core..fmt..Debug$GT$3fmt17h0695c81a75f6fbe5E', symObjAddr: 0x2810, symBinAddr: 0xDD560, symSize: 0x20 }
  - { offsetInCU: 0x1023, offset: 0x446FBC, size: 0x8, addend: 0x0, symName: '__ZN54_$LT$syn..token..Paren$u20$as$u20$core..fmt..Debug$GT$3fmt17h4cf3184c73a85e6bE', symObjAddr: 0xADD0, symBinAddr: 0xE1D90, symSize: 0x20 }
  - { offsetInCU: 0x10A5, offset: 0x44703E, size: 0x8, addend: 0x0, symName: '__ZN52_$LT$syn..token..For$u20$as$u20$core..fmt..Debug$GT$3fmt17h2a9c2d89f150647bE', symObjAddr: 0x26F0, symBinAddr: 0xDD4E0, symSize: 0x20 }
  - { offsetInCU: 0x1155, offset: 0x4470EE, size: 0x8, addend: 0x0, symName: '__ZN51_$LT$syn..token..As$u20$as$u20$core..fmt..Debug$GT$3fmt17he5ea036a7dbc4574E', symObjAddr: 0x12B0, symBinAddr: 0xDD140, symSize: 0x20 }
  - { offsetInCU: 0x11A9, offset: 0x447142, size: 0x8, addend: 0x0, symName: '__ZN54_$LT$syn..token..Async$u20$as$u20$core..fmt..Debug$GT$3fmt17h9c55c47669d7b510E', symObjAddr: 0x13D0, symBinAddr: 0xDD1C0, symSize: 0x20 }
  - { offsetInCU: 0x1200, offset: 0x447199, size: 0x8, addend: 0x0, symName: '__ZN53_$LT$syn..token..Semi$u20$as$u20$core..fmt..Debug$GT$3fmt17hcde5bcd439e9c167E', symObjAddr: 0x6DF0, symBinAddr: 0xDE5B0, symSize: 0x20 }
  - { offsetInCU: 0x1257, offset: 0x4471F0, size: 0x8, addend: 0x0, symName: '__ZN51_$LT$syn..token..Lt$u20$as$u20$core..fmt..Debug$GT$3fmt17h23ac138274cf8ab2E', symObjAddr: 0x6BF0, symBinAddr: 0xDE3B0, symSize: 0x20 }
  - { offsetInCU: 0x12AE, offset: 0x447247, size: 0x8, addend: 0x0, symName: '__ZN54_$LT$syn..token..Comma$u20$as$u20$core..fmt..Debug$GT$3fmt17h98ca273f2a690189E', symObjAddr: 0x6A30, symBinAddr: 0xDE250, symSize: 0x20 }
  - { offsetInCU: 0x1305, offset: 0x44729E, size: 0x8, addend: 0x0, symName: '__ZN51_$LT$syn..token..Eq$u20$as$u20$core..fmt..Debug$GT$3fmt17he5c741d2470e89a3E', symObjAddr: 0x6AF0, symBinAddr: 0xDE2F0, symSize: 0x20 }
  - { offsetInCU: 0x1387, offset: 0x447320, size: 0x8, addend: 0x0, symName: '__ZN54_$LT$syn..token..Const$u20$as$u20$core..fmt..Debug$GT$3fmt17ha74a6d80d0fc7567E', symObjAddr: 0x1A90, symBinAddr: 0xDD260, symSize: 0x20 }
  - { offsetInCU: 0x13DB, offset: 0x447374, size: 0x8, addend: 0x0, symName: '__ZN55_$LT$syn..token..Unsafe$u20$as$u20$core..fmt..Debug$GT$3fmt17h11e5e8289ba70d70E', symObjAddr: 0x4430, symBinAddr: 0xDDB20, symSize: 0x20 }
  - { offsetInCU: 0x1463, offset: 0x4473FC, size: 0x8, addend: 0x0, symName: '__ZN51_$LT$syn..token..Gt$u20$as$u20$core..fmt..Debug$GT$3fmt17h538821dc3c07b6abE', symObjAddr: 0x6B90, symBinAddr: 0xDE370, symSize: 0x20 }
  - { offsetInCU: 0x14E8, offset: 0x447481, size: 0x8, addend: 0x0, symName: '__ZN56_$LT$syn..token..PathSep$u20$as$u20$core..fmt..Debug$GT$3fmt17hc0eb79735d18b82bE', symObjAddr: 0x6CF0, symBinAddr: 0xDE4B0, symSize: 0x20 }
  - { offsetInCU: 0x153F, offset: 0x4474D8, size: 0x8, addend: 0x0, symName: '__ZN52_$LT$syn..token..And$u20$as$u20$core..fmt..Debug$GT$3fmt17hba345ea3bb742cfcE', symObjAddr: 0x6950, symBinAddr: 0xDE190, symSize: 0x20 }
  - { offsetInCU: 0x1596, offset: 0x44752F, size: 0x8, addend: 0x0, symName: '__ZN54_$LT$syn..token..Colon$u20$as$u20$core..fmt..Debug$GT$3fmt17h2e9f8edc092a8e79E', symObjAddr: 0x6A10, symBinAddr: 0xDE230, symSize: 0x20 }
  - { offsetInCU: 0x15ED, offset: 0x447586, size: 0x8, addend: 0x0, symName: '__ZN52_$LT$syn..token..Not$u20$as$u20$core..fmt..Debug$GT$3fmt17hdd6ad752951bd1b8E', symObjAddr: 0x6C70, symBinAddr: 0xDE430, symSize: 0x20 }
  - { offsetInCU: 0x1644, offset: 0x4475DD, size: 0x8, addend: 0x0, symName: '__ZN55_$LT$syn..token..DotDot$u20$as$u20$core..fmt..Debug$GT$3fmt17hdf846bf749bbc41dE', symObjAddr: 0x6A90, symBinAddr: 0xDE290, symSize: 0x20 }
  - { offsetInCU: 0x1698, offset: 0x447631, size: 0x8, addend: 0x0, symName: '__ZN55_$LT$syn..token..Static$u20$as$u20$core..fmt..Debug$GT$3fmt17hef984473e33a3aa3E', symObjAddr: 0x3B30, symBinAddr: 0xDD920, symSize: 0x20 }
  - { offsetInCU: 0x171D, offset: 0x4476B6, size: 0x8, addend: 0x0, symName: '__ZN54_$LT$syn..token..Brace$u20$as$u20$core..fmt..Debug$GT$3fmt17hbbc514eaa4e2dcf4E', symObjAddr: 0x6F80, symBinAddr: 0xDE6D0, symSize: 0x20 }
  - { offsetInCU: 0x1774, offset: 0x44770D, size: 0x8, addend: 0x0, symName: '__ZN51_$LT$syn..token..Or$u20$as$u20$core..fmt..Debug$GT$3fmt17hdac464455275ff35E', symObjAddr: 0x6C90, symBinAddr: 0xDE450, symSize: 0x20 }
  - { offsetInCU: 0x17FA, offset: 0x447793, size: 0x8, addend: 0x0, symName: '__ZN60_$LT$syn..token..Underscore$u20$as$u20$syn..token..Token$GT$4peek17haec0894d2e05662cE', symObjAddr: 0xAD0, symBinAddr: 0xDCC10, symSize: 0x1F0 }
  - { offsetInCU: 0x20B0, offset: 0x448049, size: 0x8, addend: 0x0, symName: '__ZN54_$LT$syn..token..Group$u20$as$u20$core..fmt..Debug$GT$3fmt17h3d880b1e82b9876dE', symObjAddr: 0xCC0, symBinAddr: 0xDCE00, symSize: 0x20 }
  - { offsetInCU: 0x20F6, offset: 0x44808F, size: 0x8, addend: 0x0, symName: '__ZN55_$LT$syn..token..Paren$u20$as$u20$syn..token..Token$GT$4peek17h57c2615f1c93669bE', symObjAddr: 0xF20, symBinAddr: 0xDCF40, symSize: 0xA0 }
  - { offsetInCU: 0x22F6, offset: 0x44828F, size: 0x8, addend: 0x0, symName: '__ZN55_$LT$syn..token..Brace$u20$as$u20$syn..token..Token$GT$4peek17h73c23ce965996843E', symObjAddr: 0xFC0, symBinAddr: 0xDCFE0, symSize: 0xA0 }
  - { offsetInCU: 0x24F6, offset: 0x44848F, size: 0x8, addend: 0x0, symName: '__ZN57_$LT$syn..token..Bracket$u20$as$u20$syn..token..Token$GT$4peek17h872c9349a83dc2aaE', symObjAddr: 0x1060, symBinAddr: 0xDD080, symSize: 0xA0 }
  - { offsetInCU: 0x26F6, offset: 0x44868F, size: 0x8, addend: 0x0, symName: '__ZN59_$LT$syn..token..Underscore$u20$as$u20$core..fmt..Debug$GT$3fmt17h4f5e84f51a6c0148E', symObjAddr: 0x1160, symBinAddr: 0xDD120, symSize: 0x20 }
  - { offsetInCU: 0x2769, offset: 0x448702, size: 0x8, addend: 0x0, symName: '__ZN52_$LT$syn..token..As$u20$as$u20$syn..parse..Parse$GT$5parse17h8279010a971a5b00E', symObjAddr: 0x1350, symBinAddr: 0xDD160, symSize: 0x60 }
  - { offsetInCU: 0x281D, offset: 0x4487B6, size: 0x8, addend: 0x0, symName: '__ZN55_$LT$syn..token..Async$u20$as$u20$syn..token..Token$GT$4peek17hec3d206c6ab2af4dE', symObjAddr: 0x14D0, symBinAddr: 0xDD1E0, symSize: 0x20 }
  - { offsetInCU: 0x2853, offset: 0x4487EC, size: 0x8, addend: 0x0, symName: '__ZN54_$LT$syn..token..Auto$u20$as$u20$syn..token..Token$GT$4peek17h78aa4921345bdad2E', symObjAddr: 0x15F0, symBinAddr: 0xDD200, symSize: 0x20 }
  - { offsetInCU: 0x2889, offset: 0x448822, size: 0x8, addend: 0x0, symName: '__ZN54_$LT$syn..token..Await$u20$as$u20$core..fmt..Debug$GT$3fmt17hfe5f5b2d40443a82E', symObjAddr: 0x1610, symBinAddr: 0xDD220, symSize: 0x20 }
  - { offsetInCU: 0x28F9, offset: 0x448892, size: 0x8, addend: 0x0, symName: '__ZN54_$LT$syn..token..Break$u20$as$u20$core..fmt..Debug$GT$3fmt17h140b00a459c56904E', symObjAddr: 0x1970, symBinAddr: 0xDD240, symSize: 0x20 }
  - { offsetInCU: 0x2996, offset: 0x44892F, size: 0x8, addend: 0x0, symName: '__ZN55_$LT$syn..token..Const$u20$as$u20$syn..parse..Parse$GT$5parse17h4d7f78de797b5b9dE', symObjAddr: 0x1B30, symBinAddr: 0xDD280, symSize: 0x60 }
  - { offsetInCU: 0x2A1D, offset: 0x4489B6, size: 0x8, addend: 0x0, symName: '__ZN55_$LT$syn..token..Const$u20$as$u20$syn..token..Token$GT$4peek17h377299e8bbcdfde8E', symObjAddr: 0x1B90, symBinAddr: 0xDD2E0, symSize: 0x20 }
  - { offsetInCU: 0x2A53, offset: 0x4489EC, size: 0x8, addend: 0x0, symName: '__ZN57_$LT$syn..token..Continue$u20$as$u20$core..fmt..Debug$GT$3fmt17h74501bccbbcabc89E', symObjAddr: 0x1BB0, symBinAddr: 0xDD300, symSize: 0x20 }
  - { offsetInCU: 0x2A96, offset: 0x448A2F, size: 0x8, addend: 0x0, symName: '__ZN54_$LT$syn..token..Crate$u20$as$u20$core..fmt..Debug$GT$3fmt17h9bf72ae17d68140aE', symObjAddr: 0x1CD0, symBinAddr: 0xDD320, symSize: 0x20 }
  - { offsetInCU: 0x2AD9, offset: 0x448A72, size: 0x8, addend: 0x0, symName: '__ZN55_$LT$syn..token..Crate$u20$as$u20$syn..token..Token$GT$4peek17h41bdfdc9696d7a0cE', symObjAddr: 0x1DD0, symBinAddr: 0xDD340, symSize: 0x20 }
  - { offsetInCU: 0x2B0F, offset: 0x448AA8, size: 0x8, addend: 0x0, symName: '__ZN53_$LT$syn..token..Dyn$u20$as$u20$syn..parse..Parse$GT$5parse17ha918c5aa2904e233E', symObjAddr: 0x20D0, symBinAddr: 0xDD360, symSize: 0x60 }
  - { offsetInCU: 0x2B96, offset: 0x448B2F, size: 0x8, addend: 0x0, symName: '__ZN54_$LT$syn..token..Else$u20$as$u20$syn..parse..Parse$GT$5parse17h45e080b72d435097E', symObjAddr: 0x21F0, symBinAddr: 0xDD3C0, symSize: 0x60 }
  - { offsetInCU: 0x2C1D, offset: 0x448BB6, size: 0x8, addend: 0x0, symName: '__ZN53_$LT$syn..token..Enum$u20$as$u20$core..fmt..Debug$GT$3fmt17hd123ceec410c2321E', symObjAddr: 0x2270, symBinAddr: 0xDD420, symSize: 0x20 }
  - { offsetInCU: 0x2C60, offset: 0x448BF9, size: 0x8, addend: 0x0, symName: '__ZN54_$LT$syn..token..Enum$u20$as$u20$syn..token..Token$GT$4peek17h5b346af13c7af550E', symObjAddr: 0x2370, symBinAddr: 0xDD440, symSize: 0x20 }
  - { offsetInCU: 0x2C96, offset: 0x448C2F, size: 0x8, addend: 0x0, symName: '__ZN55_$LT$syn..token..Extern$u20$as$u20$core..fmt..Debug$GT$3fmt17h2a8b05458ab1b7b4E', symObjAddr: 0x2390, symBinAddr: 0xDD460, symSize: 0x20 }
  - { offsetInCU: 0x2CD9, offset: 0x448C72, size: 0x8, addend: 0x0, symName: '__ZN56_$LT$syn..token..Extern$u20$as$u20$syn..token..Token$GT$4peek17h4d12b1045a886c67E', symObjAddr: 0x2490, symBinAddr: 0xDD480, symSize: 0x20 }
  - { offsetInCU: 0x2D0F, offset: 0x448CA8, size: 0x8, addend: 0x0, symName: '__ZN51_$LT$syn..token..Fn$u20$as$u20$core..fmt..Debug$GT$3fmt17h26d80e8d20dd621aE', symObjAddr: 0x25D0, symBinAddr: 0xDD4A0, symSize: 0x20 }
  - { offsetInCU: 0x2D52, offset: 0x448CEB, size: 0x8, addend: 0x0, symName: '__ZN52_$LT$syn..token..Fn$u20$as$u20$syn..token..Token$GT$4peek17h72891b673cf8306dE', symObjAddr: 0x26D0, symBinAddr: 0xDD4C0, symSize: 0x20 }
  - { offsetInCU: 0x2D88, offset: 0x448D21, size: 0x8, addend: 0x0, symName: '__ZN53_$LT$syn..token..For$u20$as$u20$syn..parse..Parse$GT$5parse17h685510a59deff120E', symObjAddr: 0x2790, symBinAddr: 0xDD500, symSize: 0x60 }
  - { offsetInCU: 0x2E0F, offset: 0x448DA8, size: 0x8, addend: 0x0, symName: '__ZN53_$LT$syn..token..Impl$u20$as$u20$core..fmt..Debug$GT$3fmt17h77098e01f63d26f6E', symObjAddr: 0x2930, symBinAddr: 0xDD580, symSize: 0x20 }
  - { offsetInCU: 0x2E52, offset: 0x448DEB, size: 0x8, addend: 0x0, symName: '__ZN54_$LT$syn..token..Impl$u20$as$u20$syn..token..Token$GT$4peek17h2c90e0f4bad3b8a1E', symObjAddr: 0x2A30, symBinAddr: 0xDD5A0, symSize: 0x20 }
  - { offsetInCU: 0x2EB5, offset: 0x448E4E, size: 0x8, addend: 0x0, symName: '__ZN52_$LT$syn..token..In$u20$as$u20$syn..parse..Parse$GT$5parse17h1c18d23d989fcf2fE', symObjAddr: 0x2AF0, symBinAddr: 0xDD5E0, symSize: 0x60 }
  - { offsetInCU: 0x2F3C, offset: 0x448ED5, size: 0x8, addend: 0x0, symName: '__ZN52_$LT$syn..token..Let$u20$as$u20$core..fmt..Debug$GT$3fmt17h100a513939918867E', symObjAddr: 0x2B70, symBinAddr: 0xDD640, symSize: 0x20 }
  - { offsetInCU: 0x2F7F, offset: 0x448F18, size: 0x8, addend: 0x0, symName: '__ZN53_$LT$syn..token..Loop$u20$as$u20$core..fmt..Debug$GT$3fmt17h5272abd49502cfd0E', symObjAddr: 0x2C90, symBinAddr: 0xDD660, symSize: 0x20 }
  - { offsetInCU: 0x2FEF, offset: 0x448F88, size: 0x8, addend: 0x0, symName: '__ZN55_$LT$syn..token..Macro$u20$as$u20$syn..token..Token$GT$4peek17he0611b0349443e81E', symObjAddr: 0x2EB0, symBinAddr: 0xDD680, symSize: 0x20 }
  - { offsetInCU: 0x3025, offset: 0x448FBE, size: 0x8, addend: 0x0, symName: '__ZN54_$LT$syn..token..Match$u20$as$u20$core..fmt..Debug$GT$3fmt17h87f664083e267951E', symObjAddr: 0x2ED0, symBinAddr: 0xDD6A0, symSize: 0x20 }
  - { offsetInCU: 0x3095, offset: 0x44902E, size: 0x8, addend: 0x0, symName: '__ZN52_$LT$syn..token..Mod$u20$as$u20$core..fmt..Debug$GT$3fmt17h049990bd0d73ee3cE', symObjAddr: 0x2FF0, symBinAddr: 0xDD6C0, symSize: 0x20 }
  - { offsetInCU: 0x30D8, offset: 0x449071, size: 0x8, addend: 0x0, symName: '__ZN53_$LT$syn..token..Mod$u20$as$u20$syn..token..Token$GT$4peek17h74a4826dd47e3e6eE', symObjAddr: 0x30F0, symBinAddr: 0xDD6E0, symSize: 0x20 }
  - { offsetInCU: 0x310E, offset: 0x4490A7, size: 0x8, addend: 0x0, symName: '__ZN63_$LT$syn..token..Move$u20$as$u20$quote..to_tokens..ToTokens$GT$9to_tokens17hfc53a9310558a724E', symObjAddr: 0x3130, symBinAddr: 0xDD700, symSize: 0x80 }
  - { offsetInCU: 0x3244, offset: 0x4491DD, size: 0x8, addend: 0x0, symName: '__ZN54_$LT$syn..token..Move$u20$as$u20$syn..token..Token$GT$4peek17h7d01db15b0371cceE', symObjAddr: 0x3210, symBinAddr: 0xDD780, symSize: 0x20 }
  - { offsetInCU: 0x327A, offset: 0x449213, size: 0x8, addend: 0x0, symName: '__ZN62_$LT$syn..token..Mut$u20$as$u20$quote..to_tokens..ToTokens$GT$9to_tokens17h65e7aec4e00a824aE', symObjAddr: 0x3250, symBinAddr: 0xDD7C0, symSize: 0x80 }
  - { offsetInCU: 0x33B0, offset: 0x449349, size: 0x8, addend: 0x0, symName: '__ZN53_$LT$syn..token..Mut$u20$as$u20$syn..token..Token$GT$4peek17h98e42bddef3e0a22E', symObjAddr: 0x3330, symBinAddr: 0xDD840, symSize: 0x20 }
  - { offsetInCU: 0x33E6, offset: 0x44937F, size: 0x8, addend: 0x0, symName: '__ZN52_$LT$syn..token..Pub$u20$as$u20$core..fmt..Debug$GT$3fmt17hb17326217af1a7a5E', symObjAddr: 0x3590, symBinAddr: 0xDD860, symSize: 0x20 }
  - { offsetInCU: 0x3457, offset: 0x4493F0, size: 0x8, addend: 0x0, symName: '__ZN53_$LT$syn..token..Ref$u20$as$u20$syn..token..Token$GT$4peek17h3da8beae293f82f6E', symObjAddr: 0x37B0, symBinAddr: 0xDD880, symSize: 0x20 }
  - { offsetInCU: 0x348D, offset: 0x449426, size: 0x8, addend: 0x0, symName: '__ZN55_$LT$syn..token..Return$u20$as$u20$core..fmt..Debug$GT$3fmt17h19400861091d7f7bE', symObjAddr: 0x37D0, symBinAddr: 0xDD8A0, symSize: 0x20 }
  - { offsetInCU: 0x34D0, offset: 0x449469, size: 0x8, addend: 0x0, symName: '__ZN58_$LT$syn..token..SelfType$u20$as$u20$syn..token..Token$GT$4peek17hc1ce6132e604b21cE', symObjAddr: 0x39F0, symBinAddr: 0xDD8C0, symSize: 0x20 }
  - { offsetInCU: 0x3506, offset: 0x44949F, size: 0x8, addend: 0x0, symName: '__ZN58_$LT$syn..token..SelfValue$u20$as$u20$core..fmt..Debug$GT$3fmt17hca9b88e9e2bb1a6eE', symObjAddr: 0x3A10, symBinAddr: 0xDD8E0, symSize: 0x20 }
  - { offsetInCU: 0x3549, offset: 0x4494E2, size: 0x8, addend: 0x0, symName: '__ZN59_$LT$syn..token..SelfValue$u20$as$u20$syn..token..Token$GT$4peek17hff0104bc0d4d51baE', symObjAddr: 0x3B10, symBinAddr: 0xDD900, symSize: 0x20 }
  - { offsetInCU: 0x357F, offset: 0x449518, size: 0x8, addend: 0x0, symName: '__ZN56_$LT$syn..token..Static$u20$as$u20$syn..parse..Parse$GT$5parse17h4347f0d5ba2722bcE', symObjAddr: 0x3BD0, symBinAddr: 0xDD940, symSize: 0x60 }
  - { offsetInCU: 0x3606, offset: 0x44959F, size: 0x8, addend: 0x0, symName: '__ZN56_$LT$syn..token..Static$u20$as$u20$syn..token..Token$GT$4peek17h5ec219d5f1c91b93E', symObjAddr: 0x3C30, symBinAddr: 0xDD9A0, symSize: 0x20 }
  - { offsetInCU: 0x363C, offset: 0x4495D5, size: 0x8, addend: 0x0, symName: '__ZN55_$LT$syn..token..Struct$u20$as$u20$core..fmt..Debug$GT$3fmt17ha83e5e259edb480cE', symObjAddr: 0x3C50, symBinAddr: 0xDD9C0, symSize: 0x20 }
  - { offsetInCU: 0x367F, offset: 0x449618, size: 0x8, addend: 0x0, symName: '__ZN56_$LT$syn..token..Struct$u20$as$u20$syn..token..Token$GT$4peek17h5edcf684e7ec6370E', symObjAddr: 0x3D50, symBinAddr: 0xDD9E0, symSize: 0x20 }
  - { offsetInCU: 0x36B5, offset: 0x44964E, size: 0x8, addend: 0x0, symName: '__ZN55_$LT$syn..token..Super$u20$as$u20$syn..token..Token$GT$4peek17ha609af2487b5bfa9E', symObjAddr: 0x3E70, symBinAddr: 0xDDA00, symSize: 0x20 }
  - { offsetInCU: 0x36EB, offset: 0x449684, size: 0x8, addend: 0x0, symName: '__ZN54_$LT$syn..token..Trait$u20$as$u20$core..fmt..Debug$GT$3fmt17h1a85d3d7e7a7158dE', symObjAddr: 0x3E90, symBinAddr: 0xDDA20, symSize: 0x20 }
  - { offsetInCU: 0x372E, offset: 0x4496C7, size: 0x8, addend: 0x0, symName: '__ZN55_$LT$syn..token..Trait$u20$as$u20$syn..token..Token$GT$4peek17hcfd44ad9738ca41fE', symObjAddr: 0x3F90, symBinAddr: 0xDDA40, symSize: 0x20 }
  - { offsetInCU: 0x3764, offset: 0x4496FD, size: 0x8, addend: 0x0, symName: '__ZN52_$LT$syn..token..Try$u20$as$u20$core..fmt..Debug$GT$3fmt17h9a9815345bc30767E', symObjAddr: 0x3FB0, symBinAddr: 0xDDA60, symSize: 0x20 }
  - { offsetInCU: 0x37D4, offset: 0x44976D, size: 0x8, addend: 0x0, symName: '__ZN53_$LT$syn..token..Try$u20$as$u20$syn..token..Token$GT$4peek17h34e6cdd2fa15187cE', symObjAddr: 0x40B0, symBinAddr: 0xDDA80, symSize: 0x20 }
  - { offsetInCU: 0x380A, offset: 0x4497A3, size: 0x8, addend: 0x0, symName: '__ZN53_$LT$syn..token..Type$u20$as$u20$core..fmt..Debug$GT$3fmt17hf9797e0202805ff8E', symObjAddr: 0x40D0, symBinAddr: 0xDDAA0, symSize: 0x20 }
  - { offsetInCU: 0x384D, offset: 0x4497E6, size: 0x8, addend: 0x0, symName: '__ZN54_$LT$syn..token..Type$u20$as$u20$syn..token..Token$GT$4peek17hca9c5e9bd0dd640dE', symObjAddr: 0x41D0, symBinAddr: 0xDDAC0, symSize: 0x20 }
  - { offsetInCU: 0x3883, offset: 0x44981C, size: 0x8, addend: 0x0, symName: '__ZN54_$LT$syn..token..Union$u20$as$u20$core..fmt..Debug$GT$3fmt17h47d9456a4ab4549dE', symObjAddr: 0x4310, symBinAddr: 0xDDAE0, symSize: 0x20 }
  - { offsetInCU: 0x38C6, offset: 0x44985F, size: 0x8, addend: 0x0, symName: '__ZN55_$LT$syn..token..Union$u20$as$u20$syn..token..Token$GT$4peek17hfe4da05fa09964ffE', symObjAddr: 0x4410, symBinAddr: 0xDDB00, symSize: 0x20 }
  - { offsetInCU: 0x3929, offset: 0x4498C2, size: 0x8, addend: 0x0, symName: '__ZN56_$LT$syn..token..Unsafe$u20$as$u20$syn..parse..Parse$GT$5parse17h9c545ae7480a661bE', symObjAddr: 0x44D0, symBinAddr: 0xDDB40, symSize: 0x60 }
  - { offsetInCU: 0x39B0, offset: 0x449949, size: 0x8, addend: 0x0, symName: '__ZN56_$LT$syn..token..Unsafe$u20$as$u20$syn..token..Token$GT$4peek17h8fab9a2efb3ee4c7E', symObjAddr: 0x4530, symBinAddr: 0xDDBA0, symSize: 0x20 }
  - { offsetInCU: 0x39E6, offset: 0x44997F, size: 0x8, addend: 0x0, symName: '__ZN52_$LT$syn..token..Use$u20$as$u20$core..fmt..Debug$GT$3fmt17hed806273691d5fe4E', symObjAddr: 0x4670, symBinAddr: 0xDDBC0, symSize: 0x20 }
  - { offsetInCU: 0x3A29, offset: 0x4499C2, size: 0x8, addend: 0x0, symName: '__ZN53_$LT$syn..token..Use$u20$as$u20$syn..token..Token$GT$4peek17h370b8b005f72ed4aE', symObjAddr: 0x4770, symBinAddr: 0xDDBE0, symSize: 0x20 }
  - { offsetInCU: 0x3A5F, offset: 0x4499F8, size: 0x8, addend: 0x0, symName: '__ZN54_$LT$syn..token..Where$u20$as$u20$core..fmt..Debug$GT$3fmt17hdb600231f5380a94E', symObjAddr: 0x48B0, symBinAddr: 0xDDC00, symSize: 0x20 }
  - { offsetInCU: 0x3AA2, offset: 0x449A3B, size: 0x8, addend: 0x0, symName: '__ZN54_$LT$syn..token..While$u20$as$u20$core..fmt..Debug$GT$3fmt17hac59473dd75f8e4aE', symObjAddr: 0x49D0, symBinAddr: 0xDDC20, symSize: 0x20 }
  - { offsetInCU: 0x3B12, offset: 0x449AAB, size: 0x8, addend: 0x0, symName: '__ZN54_$LT$syn..token..Yield$u20$as$u20$core..fmt..Debug$GT$3fmt17h14128b898c55719fE', symObjAddr: 0x4AF0, symBinAddr: 0xDDC40, symSize: 0x20 }
  - { offsetInCU: 0x3B82, offset: 0x449B1B, size: 0x8, addend: 0x0, symName: '__ZN53_$LT$syn..token..And$u20$as$u20$syn..token..Token$GT$4peek17h4ed3a008d858f163E', symObjAddr: 0x4C90, symBinAddr: 0xDDC60, symSize: 0x20 }
  - { offsetInCU: 0x3BE5, offset: 0x449B7E, size: 0x8, addend: 0x0, symName: '__ZN55_$LT$syn..token..Colon$u20$as$u20$syn..parse..Parse$GT$5parse17h3063cb3e3ebc34a9E', symObjAddr: 0x5000, symBinAddr: 0xDDC80, symSize: 0x50 }
  - { offsetInCU: 0x3C47, offset: 0x449BE0, size: 0x8, addend: 0x0, symName: '__ZN55_$LT$syn..token..Colon$u20$as$u20$syn..token..Token$GT$4peek17he80a5de17f24d5edE', symObjAddr: 0x5050, symBinAddr: 0xDDCD0, symSize: 0x20 }
  - { offsetInCU: 0x3C7D, offset: 0x449C16, size: 0x8, addend: 0x0, symName: '__ZN55_$LT$syn..token..Comma$u20$as$u20$syn..parse..Parse$GT$5parse17hb823018bf88ed6f3E', symObjAddr: 0x50A0, symBinAddr: 0xDDCF0, symSize: 0x50 }
  - { offsetInCU: 0x3CDF, offset: 0x449C78, size: 0x8, addend: 0x0, symName: '__ZN55_$LT$syn..token..Comma$u20$as$u20$syn..token..Token$GT$4peek17h26e1aacea26147a4E', symObjAddr: 0x50F0, symBinAddr: 0xDDD40, symSize: 0x20 }
  - { offsetInCU: 0x3D42, offset: 0x449CDB, size: 0x8, addend: 0x0, symName: '__ZN53_$LT$syn..token..Dot$u20$as$u20$syn..token..Token$GT$4peek17h3281d72a1d61740fE', symObjAddr: 0x5230, symBinAddr: 0xDDD60, symSize: 0x20 }
  - { offsetInCU: 0x3DA5, offset: 0x449D3E, size: 0x8, addend: 0x0, symName: '__ZN56_$LT$syn..token..DotDot$u20$as$u20$syn..token..Token$GT$4peek17ha63e1c7cbaa5f07fE', symObjAddr: 0x52D0, symBinAddr: 0xDDD80, symSize: 0x20 }
  - { offsetInCU: 0x3DDB, offset: 0x449D74, size: 0x8, addend: 0x0, symName: '__ZN59_$LT$syn..token..DotDotDot$u20$as$u20$syn..token..Token$GT$4peek17hecd050b6405d9aa0E', symObjAddr: 0x5390, symBinAddr: 0xDDDA0, symSize: 0x20 }
  - { offsetInCU: 0x3E11, offset: 0x449DAA, size: 0x8, addend: 0x0, symName: '__ZN58_$LT$syn..token..DotDotEq$u20$as$u20$syn..token..Token$GT$4peek17h9d3b070298fd3201E', symObjAddr: 0x5450, symBinAddr: 0xDDDC0, symSize: 0x20 }
  - { offsetInCU: 0x3E74, offset: 0x449E0D, size: 0x8, addend: 0x0, symName: '__ZN52_$LT$syn..token..Eq$u20$as$u20$syn..parse..Parse$GT$5parse17h48510f330b26a2a8E', symObjAddr: 0x54A0, symBinAddr: 0xDDDE0, symSize: 0x50 }
  - { offsetInCU: 0x3ED6, offset: 0x449E6F, size: 0x8, addend: 0x0, symName: '__ZN52_$LT$syn..token..Eq$u20$as$u20$syn..token..Token$GT$4peek17ha038331794dca79cE', symObjAddr: 0x54F0, symBinAddr: 0xDDE30, symSize: 0x20 }
  - { offsetInCU: 0x3F0C, offset: 0x449EA5, size: 0x8, addend: 0x0, symName: '__ZN52_$LT$syn..token..Gt$u20$as$u20$syn..parse..Parse$GT$5parse17h685c1b33fdd3602dE', symObjAddr: 0x5720, symBinAddr: 0xDDE50, symSize: 0x50 }
  - { offsetInCU: 0x3F6E, offset: 0x449F07, size: 0x8, addend: 0x0, symName: '__ZN52_$LT$syn..token..Gt$u20$as$u20$syn..token..Token$GT$4peek17h28c72eb0c24e86bbE', symObjAddr: 0x5770, symBinAddr: 0xDDEA0, symSize: 0x20 }
  - { offsetInCU: 0x3FA4, offset: 0x449F3D, size: 0x8, addend: 0x0, symName: '__ZN52_$LT$syn..token..Lt$u20$as$u20$syn..token..Token$GT$4peek17hb09f0ef836a6a928E', symObjAddr: 0x5950, symBinAddr: 0xDDEC0, symSize: 0x20 }
  - { offsetInCU: 0x4007, offset: 0x449FA0, size: 0x8, addend: 0x0, symName: '__ZN53_$LT$syn..token..Not$u20$as$u20$syn..parse..Parse$GT$5parse17h0e126244166e20f8E', symObjAddr: 0x5B80, symBinAddr: 0xDDEE0, symSize: 0x50 }
  - { offsetInCU: 0x4069, offset: 0x44A002, size: 0x8, addend: 0x0, symName: '__ZN53_$LT$syn..token..Not$u20$as$u20$syn..token..Token$GT$4peek17h20b2571300a10670E', symObjAddr: 0x5BD0, symBinAddr: 0xDDF30, symSize: 0x20 }
  - { offsetInCU: 0x409F, offset: 0x44A038, size: 0x8, addend: 0x0, symName: '__ZN52_$LT$syn..token..Or$u20$as$u20$syn..token..Token$GT$4peek17haf7e709e752de2d5E', symObjAddr: 0x5C70, symBinAddr: 0xDDF50, symSize: 0x20 }
  - { offsetInCU: 0x40D5, offset: 0x44A06E, size: 0x8, addend: 0x0, symName: '__ZN57_$LT$syn..token..PathSep$u20$as$u20$syn..token..Token$GT$4peek17h734c6a0408fb2004E', symObjAddr: 0x5E50, symBinAddr: 0xDDF70, symSize: 0x20 }
  - { offsetInCU: 0x410B, offset: 0x44A0A4, size: 0x8, addend: 0x0, symName: '__ZN54_$LT$syn..token..Plus$u20$as$u20$syn..parse..Parse$GT$5parse17h6443c7d34616ae6cE', symObjAddr: 0x5FE0, symBinAddr: 0xDDF90, symSize: 0x50 }
  - { offsetInCU: 0x419A, offset: 0x44A133, size: 0x8, addend: 0x0, symName: '__ZN55_$LT$syn..token..Pound$u20$as$u20$syn..token..Token$GT$4peek17h12eda5e1e3c78599E', symObjAddr: 0x6170, symBinAddr: 0xDDFE0, symSize: 0x20 }
  - { offsetInCU: 0x41FD, offset: 0x44A196, size: 0x8, addend: 0x0, symName: '__ZN58_$LT$syn..token..Question$u20$as$u20$syn..token..Token$GT$4peek17hb56a1f23ffedbbd1E', symObjAddr: 0x6210, symBinAddr: 0xDE000, symSize: 0x20 }
  - { offsetInCU: 0x4260, offset: 0x44A1F9, size: 0x8, addend: 0x0, symName: '__ZN54_$LT$syn..token..Semi$u20$as$u20$syn..parse..Parse$GT$5parse17h922f96200e79aea7E', symObjAddr: 0x6300, symBinAddr: 0xDE020, symSize: 0x50 }
  - { offsetInCU: 0x42C2, offset: 0x44A25B, size: 0x8, addend: 0x0, symName: '__ZN54_$LT$syn..token..Semi$u20$as$u20$syn..token..Token$GT$4peek17h50c830ee30ef3530E', symObjAddr: 0x6350, symBinAddr: 0xDE070, symSize: 0x20 }
  - { offsetInCU: 0x42F8, offset: 0x44A291, size: 0x8, addend: 0x0, symName: '__ZN55_$LT$syn..token..ShlEq$u20$as$u20$syn..parse..Parse$GT$5parse17hffdec08a82c79705E', symObjAddr: 0x6440, symBinAddr: 0xDE090, symSize: 0x70 }
  - { offsetInCU: 0x43AD, offset: 0x44A346, size: 0x8, addend: 0x0, symName: '__ZN55_$LT$syn..token..ShrEq$u20$as$u20$syn..parse..Parse$GT$5parse17hd4adaf197d5b2e87E', symObjAddr: 0x65A0, symBinAddr: 0xDE100, symSize: 0x70 }
  - { offsetInCU: 0x4462, offset: 0x44A3FB, size: 0x8, addend: 0x0, symName: '__ZN54_$LT$syn..token..Star$u20$as$u20$syn..token..Token$GT$4peek17h14add24fe44afe84E', symObjAddr: 0x67F0, symBinAddr: 0xDE170, symSize: 0x20 }
  - { offsetInCU: 0x4498, offset: 0x44A431, size: 0x8, addend: 0x0, symName: '__ZN55_$LT$syn..token..AndAnd$u20$as$u20$core..fmt..Debug$GT$3fmt17h517ec44e4f31b9bcE', symObjAddr: 0x6970, symBinAddr: 0xDE1B0, symSize: 0x20 }
  - { offsetInCU: 0x44DE, offset: 0x44A477, size: 0x8, addend: 0x0, symName: '__ZN54_$LT$syn..token..AndEq$u20$as$u20$core..fmt..Debug$GT$3fmt17he04430dff59383ccE', symObjAddr: 0x6990, symBinAddr: 0xDE1D0, symSize: 0x20 }
  - { offsetInCU: 0x4524, offset: 0x44A4BD, size: 0x8, addend: 0x0, symName: '__ZN54_$LT$syn..token..Caret$u20$as$u20$core..fmt..Debug$GT$3fmt17h6bdb5c08a00b02d8E', symObjAddr: 0x69D0, symBinAddr: 0xDE1F0, symSize: 0x20 }
  - { offsetInCU: 0x456A, offset: 0x44A503, size: 0x8, addend: 0x0, symName: '__ZN56_$LT$syn..token..CaretEq$u20$as$u20$core..fmt..Debug$GT$3fmt17h4d788f01802d1ee8E', symObjAddr: 0x69F0, symBinAddr: 0xDE210, symSize: 0x20 }
  - { offsetInCU: 0x45B0, offset: 0x44A549, size: 0x8, addend: 0x0, symName: '__ZN52_$LT$syn..token..Dot$u20$as$u20$core..fmt..Debug$GT$3fmt17h84fdb5aa24915636E', symObjAddr: 0x6A70, symBinAddr: 0xDE270, symSize: 0x20 }
  - { offsetInCU: 0x45F6, offset: 0x44A58F, size: 0x8, addend: 0x0, symName: '__ZN58_$LT$syn..token..DotDotDot$u20$as$u20$core..fmt..Debug$GT$3fmt17h30c8614296e42033E', symObjAddr: 0x6AB0, symBinAddr: 0xDE2B0, symSize: 0x20 }
  - { offsetInCU: 0x463C, offset: 0x44A5D5, size: 0x8, addend: 0x0, symName: '__ZN57_$LT$syn..token..DotDotEq$u20$as$u20$core..fmt..Debug$GT$3fmt17he092ad5d4f185beaE', symObjAddr: 0x6AD0, symBinAddr: 0xDE2D0, symSize: 0x20 }
  - { offsetInCU: 0x4682, offset: 0x44A61B, size: 0x8, addend: 0x0, symName: '__ZN53_$LT$syn..token..EqEq$u20$as$u20$core..fmt..Debug$GT$3fmt17h3e77d6a595b8b587E', symObjAddr: 0x6B10, symBinAddr: 0xDE310, symSize: 0x20 }
  - { offsetInCU: 0x46C8, offset: 0x44A661, size: 0x8, addend: 0x0, symName: '__ZN57_$LT$syn..token..FatArrow$u20$as$u20$core..fmt..Debug$GT$3fmt17h646e36699e49fac9E', symObjAddr: 0x6B30, symBinAddr: 0xDE330, symSize: 0x20 }
  - { offsetInCU: 0x470E, offset: 0x44A6A7, size: 0x8, addend: 0x0, symName: '__ZN51_$LT$syn..token..Ge$u20$as$u20$core..fmt..Debug$GT$3fmt17h0c76ca5da106983cE', symObjAddr: 0x6B70, symBinAddr: 0xDE350, symSize: 0x20 }
  - { offsetInCU: 0x4754, offset: 0x44A6ED, size: 0x8, addend: 0x0, symName: '__ZN51_$LT$syn..token..Le$u20$as$u20$core..fmt..Debug$GT$3fmt17h292dc4247c10c9fcE', symObjAddr: 0x6BD0, symBinAddr: 0xDE390, symSize: 0x20 }
  - { offsetInCU: 0x479A, offset: 0x44A733, size: 0x8, addend: 0x0, symName: '__ZN54_$LT$syn..token..Minus$u20$as$u20$core..fmt..Debug$GT$3fmt17h8651606a7aeeb482E', symObjAddr: 0x6C10, symBinAddr: 0xDE3D0, symSize: 0x20 }
  - { offsetInCU: 0x47E0, offset: 0x44A779, size: 0x8, addend: 0x0, symName: '__ZN56_$LT$syn..token..MinusEq$u20$as$u20$core..fmt..Debug$GT$3fmt17h3b091f2f7b8e3625E', symObjAddr: 0x6C30, symBinAddr: 0xDE3F0, symSize: 0x20 }
  - { offsetInCU: 0x4826, offset: 0x44A7BF, size: 0x8, addend: 0x0, symName: '__ZN51_$LT$syn..token..Ne$u20$as$u20$core..fmt..Debug$GT$3fmt17h28897cfe03dc285fE', symObjAddr: 0x6C50, symBinAddr: 0xDE410, symSize: 0x20 }
  - { offsetInCU: 0x486C, offset: 0x44A805, size: 0x8, addend: 0x0, symName: '__ZN53_$LT$syn..token..OrEq$u20$as$u20$core..fmt..Debug$GT$3fmt17h8e995faa3c2e6bceE', symObjAddr: 0x6CB0, symBinAddr: 0xDE470, symSize: 0x20 }
  - { offsetInCU: 0x48B2, offset: 0x44A84B, size: 0x8, addend: 0x0, symName: '__ZN53_$LT$syn..token..OrOr$u20$as$u20$core..fmt..Debug$GT$3fmt17h6f5c0ef62c3c4d13E', symObjAddr: 0x6CD0, symBinAddr: 0xDE490, symSize: 0x20 }
  - { offsetInCU: 0x48F8, offset: 0x44A891, size: 0x8, addend: 0x0, symName: '__ZN56_$LT$syn..token..Percent$u20$as$u20$core..fmt..Debug$GT$3fmt17hc742b1a8ef9fd8f5E', symObjAddr: 0x6D10, symBinAddr: 0xDE4D0, symSize: 0x20 }
  - { offsetInCU: 0x493E, offset: 0x44A8D7, size: 0x8, addend: 0x0, symName: '__ZN58_$LT$syn..token..PercentEq$u20$as$u20$core..fmt..Debug$GT$3fmt17h9be507f2dedb1fc8E', symObjAddr: 0x6D30, symBinAddr: 0xDE4F0, symSize: 0x20 }
  - { offsetInCU: 0x4984, offset: 0x44A91D, size: 0x8, addend: 0x0, symName: '__ZN53_$LT$syn..token..Plus$u20$as$u20$core..fmt..Debug$GT$3fmt17hc24ba078138903daE', symObjAddr: 0x6D50, symBinAddr: 0xDE510, symSize: 0x20 }
  - { offsetInCU: 0x49CA, offset: 0x44A963, size: 0x8, addend: 0x0, symName: '__ZN55_$LT$syn..token..PlusEq$u20$as$u20$core..fmt..Debug$GT$3fmt17h446d34207bcf9a09E', symObjAddr: 0x6D70, symBinAddr: 0xDE530, symSize: 0x20 }
  - { offsetInCU: 0x4A10, offset: 0x44A9A9, size: 0x8, addend: 0x0, symName: '__ZN54_$LT$syn..token..Pound$u20$as$u20$core..fmt..Debug$GT$3fmt17hc90c63166b6fc15eE', symObjAddr: 0x6D90, symBinAddr: 0xDE550, symSize: 0x20 }
  - { offsetInCU: 0x4A56, offset: 0x44A9EF, size: 0x8, addend: 0x0, symName: '__ZN57_$LT$syn..token..Question$u20$as$u20$core..fmt..Debug$GT$3fmt17h073549ffde372513E', symObjAddr: 0x6DB0, symBinAddr: 0xDE570, symSize: 0x20 }
  - { offsetInCU: 0x4A9C, offset: 0x44AA35, size: 0x8, addend: 0x0, symName: '__ZN55_$LT$syn..token..RArrow$u20$as$u20$core..fmt..Debug$GT$3fmt17h453f931e713d1455E', symObjAddr: 0x6DD0, symBinAddr: 0xDE590, symSize: 0x20 }
  - { offsetInCU: 0x4AE2, offset: 0x44AA7B, size: 0x8, addend: 0x0, symName: '__ZN52_$LT$syn..token..Shl$u20$as$u20$core..fmt..Debug$GT$3fmt17h3220572d1cd06295E', symObjAddr: 0x6E10, symBinAddr: 0xDE5D0, symSize: 0x20 }
  - { offsetInCU: 0x4B28, offset: 0x44AAC1, size: 0x8, addend: 0x0, symName: '__ZN54_$LT$syn..token..ShlEq$u20$as$u20$core..fmt..Debug$GT$3fmt17he033e24998dc3014E', symObjAddr: 0x6E50, symBinAddr: 0xDE5F0, symSize: 0x20 }
  - { offsetInCU: 0x4B6E, offset: 0x44AB07, size: 0x8, addend: 0x0, symName: '__ZN52_$LT$syn..token..Shr$u20$as$u20$core..fmt..Debug$GT$3fmt17h6d7dfabf5240c3fbE', symObjAddr: 0x6E70, symBinAddr: 0xDE610, symSize: 0x20 }
  - { offsetInCU: 0x4BB4, offset: 0x44AB4D, size: 0x8, addend: 0x0, symName: '__ZN54_$LT$syn..token..ShrEq$u20$as$u20$core..fmt..Debug$GT$3fmt17h8d404d46926446f7E', symObjAddr: 0x6E90, symBinAddr: 0xDE630, symSize: 0x20 }
  - { offsetInCU: 0x4BFA, offset: 0x44AB93, size: 0x8, addend: 0x0, symName: '__ZN54_$LT$syn..token..Slash$u20$as$u20$core..fmt..Debug$GT$3fmt17h13668b027cf75558E', symObjAddr: 0x6EB0, symBinAddr: 0xDE650, symSize: 0x20 }
  - { offsetInCU: 0x4C40, offset: 0x44ABD9, size: 0x8, addend: 0x0, symName: '__ZN56_$LT$syn..token..SlashEq$u20$as$u20$core..fmt..Debug$GT$3fmt17h4f6a0e198357947eE', symObjAddr: 0x6ED0, symBinAddr: 0xDE670, symSize: 0x20 }
  - { offsetInCU: 0x4C86, offset: 0x44AC1F, size: 0x8, addend: 0x0, symName: '__ZN53_$LT$syn..token..Star$u20$as$u20$core..fmt..Debug$GT$3fmt17h9e02b3a58cbeb9b3E', symObjAddr: 0x6EF0, symBinAddr: 0xDE690, symSize: 0x20 }
  - { offsetInCU: 0x4CCC, offset: 0x44AC65, size: 0x8, addend: 0x0, symName: '__ZN55_$LT$syn..token..StarEq$u20$as$u20$core..fmt..Debug$GT$3fmt17h8f91135bb6bc23feE', symObjAddr: 0x6F10, symBinAddr: 0xDE6B0, symSize: 0x20 }
  - { offsetInCU: 0x4DAC, offset: 0x44AD45, size: 0x8, addend: 0x0, symName: '__ZN56_$LT$syn..token..Bracket$u20$as$u20$core..fmt..Debug$GT$3fmt17hbe5dd06eb333ca14E', symObjAddr: 0xA300, symBinAddr: 0xE1590, symSize: 0x20 }
  - { offsetInCU: 0xC15D, offset: 0x4520F6, size: 0x8, addend: 0x0, symName: '__ZN4core3ptr45drop_in_place$LT$proc_macro2..TokenStream$GT$17h76e8e68015f4924dE.llvm.2200051395882591536', symObjAddr: 0x720, symBinAddr: 0xDC9C0, symSize: 0x140 }
  - { offsetInCU: 0xC5B9, offset: 0x452552, size: 0x8, addend: 0x0, symName: '__ZN4core3ptr65drop_in_place$LT$alloc..vec..Vec$LT$proc_macro..TokenTree$GT$$GT$17h8abd81f8596dbc59E.llvm.2200051395882591536', symObjAddr: 0x860, symBinAddr: 0xDCB00, symSize: 0x110 }
  - { offsetInCU: 0xE9E3, offset: 0x45497C, size: 0x8, addend: 0x0, symName: '__ZN42_$LT$$RF$T$u20$as$u20$core..fmt..Debug$GT$3fmt17h065a38d2d7c650a8E', symObjAddr: 0x0, symBinAddr: 0xDC2A0, symSize: 0x20 }
  - { offsetInCU: 0xEA4A, offset: 0x4549E3, size: 0x8, addend: 0x0, symName: '__ZN42_$LT$$RF$T$u20$as$u20$core..fmt..Debug$GT$3fmt17h0a9479851cbc0ba3E', symObjAddr: 0x20, symBinAddr: 0xDC2C0, symSize: 0x20 }
  - { offsetInCU: 0xEAB1, offset: 0x454A4A, size: 0x8, addend: 0x0, symName: '__ZN42_$LT$$RF$T$u20$as$u20$core..fmt..Debug$GT$3fmt17h0e5fa80adbafe8e8E', symObjAddr: 0x40, symBinAddr: 0xDC2E0, symSize: 0x20 }
  - { offsetInCU: 0xEB14, offset: 0x454AAD, size: 0x8, addend: 0x0, symName: '__ZN42_$LT$$RF$T$u20$as$u20$core..fmt..Debug$GT$3fmt17h1015a198ba069656E', symObjAddr: 0x60, symBinAddr: 0xDC300, symSize: 0x70 }
  - { offsetInCU: 0xEBB8, offset: 0x454B51, size: 0x8, addend: 0x0, symName: '__ZN42_$LT$$RF$T$u20$as$u20$core..fmt..Debug$GT$3fmt17h10ad8936572c7ba7E', symObjAddr: 0xD0, symBinAddr: 0xDC370, symSize: 0x20 }
  - { offsetInCU: 0xEC1F, offset: 0x454BB8, size: 0x8, addend: 0x0, symName: '__ZN42_$LT$$RF$T$u20$as$u20$core..fmt..Debug$GT$3fmt17h153a3d87ed21d4a8E', symObjAddr: 0xF0, symBinAddr: 0xDC390, symSize: 0x20 }
  - { offsetInCU: 0xEC86, offset: 0x454C1F, size: 0x8, addend: 0x0, symName: '__ZN42_$LT$$RF$T$u20$as$u20$core..fmt..Debug$GT$3fmt17h1d7f9559b5b0cdedE', symObjAddr: 0x110, symBinAddr: 0xDC3B0, symSize: 0x70 }
  - { offsetInCU: 0xED2A, offset: 0x454CC3, size: 0x8, addend: 0x0, symName: '__ZN42_$LT$$RF$T$u20$as$u20$core..fmt..Debug$GT$3fmt17h29af75233da5b776E', symObjAddr: 0x180, symBinAddr: 0xDC420, symSize: 0x20 }
  - { offsetInCU: 0xED91, offset: 0x454D2A, size: 0x8, addend: 0x0, symName: '__ZN42_$LT$$RF$T$u20$as$u20$core..fmt..Debug$GT$3fmt17h2b9735dd17ba52ffE', symObjAddr: 0x1A0, symBinAddr: 0xDC440, symSize: 0x20 }
  - { offsetInCU: 0xEDF4, offset: 0x454D8D, size: 0x8, addend: 0x0, symName: '__ZN42_$LT$$RF$T$u20$as$u20$core..fmt..Debug$GT$3fmt17h2f6f73b3b57e8362E', symObjAddr: 0x1C0, symBinAddr: 0xDC460, symSize: 0x20 }
  - { offsetInCU: 0xEE5B, offset: 0x454DF4, size: 0x8, addend: 0x0, symName: '__ZN42_$LT$$RF$T$u20$as$u20$core..fmt..Debug$GT$3fmt17h3502b2b783ea1da2E', symObjAddr: 0x1E0, symBinAddr: 0xDC480, symSize: 0x20 }
  - { offsetInCU: 0xEEBE, offset: 0x454E57, size: 0x8, addend: 0x0, symName: '__ZN42_$LT$$RF$T$u20$as$u20$core..fmt..Debug$GT$3fmt17h41361609eb2a6425E', symObjAddr: 0x200, symBinAddr: 0xDC4A0, symSize: 0x20 }
  - { offsetInCU: 0xEF25, offset: 0x454EBE, size: 0x8, addend: 0x0, symName: '__ZN42_$LT$$RF$T$u20$as$u20$core..fmt..Debug$GT$3fmt17h4b2e4c49a74d9d33E', symObjAddr: 0x220, symBinAddr: 0xDC4C0, symSize: 0x20 }
  - { offsetInCU: 0xEF8C, offset: 0x454F25, size: 0x8, addend: 0x0, symName: '__ZN42_$LT$$RF$T$u20$as$u20$core..fmt..Debug$GT$3fmt17h54859b4f1ad40b9eE', symObjAddr: 0x240, symBinAddr: 0xDC4E0, symSize: 0x20 }
  - { offsetInCU: 0xEFF3, offset: 0x454F8C, size: 0x8, addend: 0x0, symName: '__ZN42_$LT$$RF$T$u20$as$u20$core..fmt..Debug$GT$3fmt17h5cfc10f0ce6a158bE', symObjAddr: 0x260, symBinAddr: 0xDC500, symSize: 0x20 }
  - { offsetInCU: 0xF05A, offset: 0x454FF3, size: 0x8, addend: 0x0, symName: '__ZN42_$LT$$RF$T$u20$as$u20$core..fmt..Debug$GT$3fmt17h5d5fa8ff2c6a0cfcE', symObjAddr: 0x280, symBinAddr: 0xDC520, symSize: 0x20 }
  - { offsetInCU: 0xF0BD, offset: 0x455056, size: 0x8, addend: 0x0, symName: '__ZN42_$LT$$RF$T$u20$as$u20$core..fmt..Debug$GT$3fmt17h63f30622f67887b5E', symObjAddr: 0x2A0, symBinAddr: 0xDC540, symSize: 0x20 }
  - { offsetInCU: 0xF124, offset: 0x4550BD, size: 0x8, addend: 0x0, symName: '__ZN42_$LT$$RF$T$u20$as$u20$core..fmt..Debug$GT$3fmt17h6584a1393cc72654E', symObjAddr: 0x2C0, symBinAddr: 0xDC560, symSize: 0x20 }
  - { offsetInCU: 0xF18B, offset: 0x455124, size: 0x8, addend: 0x0, symName: '__ZN42_$LT$$RF$T$u20$as$u20$core..fmt..Debug$GT$3fmt17h65da8c3ae0ba1b95E', symObjAddr: 0x2E0, symBinAddr: 0xDC580, symSize: 0x20 }
  - { offsetInCU: 0xF1F2, offset: 0x45518B, size: 0x8, addend: 0x0, symName: '__ZN42_$LT$$RF$T$u20$as$u20$core..fmt..Debug$GT$3fmt17h74ea5419b5ec0b64E', symObjAddr: 0x300, symBinAddr: 0xDC5A0, symSize: 0x20 }
  - { offsetInCU: 0xF255, offset: 0x4551EE, size: 0x8, addend: 0x0, symName: '__ZN42_$LT$$RF$T$u20$as$u20$core..fmt..Debug$GT$3fmt17h855c982447a22cd6E', symObjAddr: 0x320, symBinAddr: 0xDC5C0, symSize: 0x70 }
  - { offsetInCU: 0xF2F9, offset: 0x455292, size: 0x8, addend: 0x0, symName: '__ZN42_$LT$$RF$T$u20$as$u20$core..fmt..Debug$GT$3fmt17h8f9d47f8e8f850daE', symObjAddr: 0x390, symBinAddr: 0xDC630, symSize: 0x20 }
  - { offsetInCU: 0xF360, offset: 0x4552F9, size: 0x8, addend: 0x0, symName: '__ZN42_$LT$$RF$T$u20$as$u20$core..fmt..Debug$GT$3fmt17h9bd5c3a4e97f7d77E', symObjAddr: 0x3B0, symBinAddr: 0xDC650, symSize: 0x20 }
  - { offsetInCU: 0xF3C7, offset: 0x455360, size: 0x8, addend: 0x0, symName: '__ZN42_$LT$$RF$T$u20$as$u20$core..fmt..Debug$GT$3fmt17ha8438b721a59e33cE', symObjAddr: 0x3D0, symBinAddr: 0xDC670, symSize: 0x20 }
  - { offsetInCU: 0xF42E, offset: 0x4553C7, size: 0x8, addend: 0x0, symName: '__ZN42_$LT$$RF$T$u20$as$u20$core..fmt..Debug$GT$3fmt17ha95203994b1c7c94E', symObjAddr: 0x3F0, symBinAddr: 0xDC690, symSize: 0x70 }
  - { offsetInCU: 0xF4D2, offset: 0x45546B, size: 0x8, addend: 0x0, symName: '__ZN42_$LT$$RF$T$u20$as$u20$core..fmt..Debug$GT$3fmt17haf2fc05885fa0122E', symObjAddr: 0x460, symBinAddr: 0xDC700, symSize: 0x20 }
  - { offsetInCU: 0xF535, offset: 0x4554CE, size: 0x8, addend: 0x0, symName: '__ZN42_$LT$$RF$T$u20$as$u20$core..fmt..Debug$GT$3fmt17hbe4e39c10842df62E', symObjAddr: 0x480, symBinAddr: 0xDC720, symSize: 0x20 }
  - { offsetInCU: 0xF59C, offset: 0x455535, size: 0x8, addend: 0x0, symName: '__ZN42_$LT$$RF$T$u20$as$u20$core..fmt..Debug$GT$3fmt17hc1afa149f6c27c2cE', symObjAddr: 0x4A0, symBinAddr: 0xDC740, symSize: 0x20 }
  - { offsetInCU: 0xF603, offset: 0x45559C, size: 0x8, addend: 0x0, symName: '__ZN42_$LT$$RF$T$u20$as$u20$core..fmt..Debug$GT$3fmt17hdbed7ff7592dee7dE', symObjAddr: 0x4C0, symBinAddr: 0xDC760, symSize: 0x70 }
  - { offsetInCU: 0xF6A7, offset: 0x455640, size: 0x8, addend: 0x0, symName: '__ZN42_$LT$$RF$T$u20$as$u20$core..fmt..Debug$GT$3fmt17he278a521f04baf42E', symObjAddr: 0x530, symBinAddr: 0xDC7D0, symSize: 0x70 }
  - { offsetInCU: 0xF74B, offset: 0x4556E4, size: 0x8, addend: 0x0, symName: '__ZN42_$LT$$RF$T$u20$as$u20$core..fmt..Debug$GT$3fmt17he3805f99b6037b55E', symObjAddr: 0x5A0, symBinAddr: 0xDC840, symSize: 0x20 }
  - { offsetInCU: 0xF7B2, offset: 0x45574B, size: 0x8, addend: 0x0, symName: '__ZN42_$LT$$RF$T$u20$as$u20$core..fmt..Debug$GT$3fmt17he43b68b7b0b90a56E', symObjAddr: 0x5C0, symBinAddr: 0xDC860, symSize: 0x70 }
  - { offsetInCU: 0xF856, offset: 0x4557EF, size: 0x8, addend: 0x0, symName: '__ZN42_$LT$$RF$T$u20$as$u20$core..fmt..Debug$GT$3fmt17he64bc245e5912552E', symObjAddr: 0x630, symBinAddr: 0xDC8D0, symSize: 0x20 }
  - { offsetInCU: 0xF8BD, offset: 0x455856, size: 0x8, addend: 0x0, symName: '__ZN42_$LT$$RF$T$u20$as$u20$core..fmt..Debug$GT$3fmt17hf0339c5718582797E', symObjAddr: 0x650, symBinAddr: 0xDC8F0, symSize: 0x20 }
  - { offsetInCU: 0xF924, offset: 0x4558BD, size: 0x8, addend: 0x0, symName: '__ZN42_$LT$$RF$T$u20$as$u20$core..fmt..Debug$GT$3fmt17hf8197a523326b39fE', symObjAddr: 0x670, symBinAddr: 0xDC910, symSize: 0x20 }
  - { offsetInCU: 0xF987, offset: 0x455920, size: 0x8, addend: 0x0, symName: '__ZN42_$LT$$RF$T$u20$as$u20$core..fmt..Debug$GT$3fmt17hfd0504a4114d56e3E', symObjAddr: 0x690, symBinAddr: 0xDC930, symSize: 0x70 }
  - { offsetInCU: 0xFA2B, offset: 0x4559C4, size: 0x8, addend: 0x0, symName: '__ZN42_$LT$$RF$T$u20$as$u20$core..fmt..Debug$GT$3fmt17hff083606606d66fdE', symObjAddr: 0x700, symBinAddr: 0xDC9A0, symSize: 0x20 }
  - { offsetInCU: 0x133F3, offset: 0x45938C, size: 0x8, addend: 0x0, symName: __ZN3syn5token5Group8surround17heff89b5b653592dfE, symObjAddr: 0xE00, symBinAddr: 0xDCE20, symSize: 0x120 }
  - { offsetInCU: 0x135EC, offset: 0x459585, size: 0x8, addend: 0x0, symName: __ZN3syn5token5Brace8surround17h054d6fe3dea87f3aE, symObjAddr: 0x6FA0, symBinAddr: 0xDE6F0, symSize: 0x0 }
  - { offsetInCU: 0x1387F, offset: 0x459818, size: 0x8, addend: 0x0, symName: __ZN3syn5token5Brace8surround17h177bd1fb5200ae88E, symObjAddr: 0x7120, symBinAddr: 0xDE870, symSize: 0x130 }
  - { offsetInCU: 0x13B04, offset: 0x459A9D, size: 0x8, addend: 0x0, symName: __ZN3syn5token5Brace8surround17h203049190772705cE, symObjAddr: 0x7250, symBinAddr: 0xDE9A0, symSize: 0x200 }
  - { offsetInCU: 0x141A9, offset: 0x45A142, size: 0x8, addend: 0x0, symName: __ZN3syn5token5Brace8surround17h296fbc9aacc45e8dE, symObjAddr: 0x7450, symBinAddr: 0xDEBA0, symSize: 0x150 }
  - { offsetInCU: 0x144BE, offset: 0x45A457, size: 0x8, addend: 0x0, symName: __ZN3syn5token5Brace8surround17h3cd15e098182f2caE, symObjAddr: 0x75A0, symBinAddr: 0xDECF0, symSize: 0x220 }
  - { offsetInCU: 0x149A8, offset: 0x45A941, size: 0x8, addend: 0x0, symName: __ZN3syn5token5Brace8surround17h57503f340a17145cE, symObjAddr: 0x7960, symBinAddr: 0xDEF10, symSize: 0x220 }
  - { offsetInCU: 0x14E45, offset: 0x45ADDE, size: 0x8, addend: 0x0, symName: __ZN3syn5token5Brace8surround17h5add098b3195aebcE, symObjAddr: 0x7B80, symBinAddr: 0xDF130, symSize: 0x200 }
  - { offsetInCU: 0x15586, offset: 0x45B51F, size: 0x8, addend: 0x0, symName: __ZN3syn5token5Brace8surround17h73c06cfc29e80b79E, symObjAddr: 0x80A0, symBinAddr: 0xDF330, symSize: 0x200 }
  - { offsetInCU: 0x15C2B, offset: 0x45BBC4, size: 0x8, addend: 0x0, symName: __ZN3syn5token5Brace8surround17h81a192f6e1ba3b25E, symObjAddr: 0x82A0, symBinAddr: 0xDF530, symSize: 0x220 }
  - { offsetInCU: 0x1611E, offset: 0x45C0B7, size: 0x8, addend: 0x0, symName: __ZN3syn5token5Brace8surround17h885eae5b5f18a737E, symObjAddr: 0x84C0, symBinAddr: 0xDF750, symSize: 0x230 }
  - { offsetInCU: 0x167D2, offset: 0x45C76B, size: 0x8, addend: 0x0, symName: __ZN3syn5token5Brace8surround17h8dc2f11f6889f4faE, symObjAddr: 0x86F0, symBinAddr: 0xDF980, symSize: 0x0 }
  - { offsetInCU: 0x16E77, offset: 0x45CE10, size: 0x8, addend: 0x0, symName: __ZN3syn5token5Brace8surround17h8f64d8eb67893fd1E, symObjAddr: 0x88F0, symBinAddr: 0xDFB80, symSize: 0x220 }
  - { offsetInCU: 0x1730E, offset: 0x45D2A7, size: 0x8, addend: 0x0, symName: __ZN3syn5token5Brace8surround17h9105a8ad28ee9eacE, symObjAddr: 0x8B10, symBinAddr: 0xDFDA0, symSize: 0x220 }
  - { offsetInCU: 0x178C7, offset: 0x45D860, size: 0x8, addend: 0x0, symName: __ZN3syn5token5Brace8surround17ha088df153eae400eE, symObjAddr: 0x8D30, symBinAddr: 0xDFFC0, symSize: 0x260 }
  - { offsetInCU: 0x1803D, offset: 0x45DFD6, size: 0x8, addend: 0x0, symName: __ZN3syn5token5Brace8surround17hbe01d651f653d8afE, symObjAddr: 0x8F90, symBinAddr: 0xE0220, symSize: 0x590 }
  - { offsetInCU: 0x18C3C, offset: 0x45EBD5, size: 0x8, addend: 0x0, symName: __ZN3syn5token5Brace8surround17hc01d55ce5137971fE, symObjAddr: 0x9520, symBinAddr: 0xE07B0, symSize: 0x220 }
  - { offsetInCU: 0x190CE, offset: 0x45F067, size: 0x8, addend: 0x0, symName: __ZN3syn5token5Brace8surround17hcac216a5876b7b90E, symObjAddr: 0x9740, symBinAddr: 0xE09D0, symSize: 0x180 }
  - { offsetInCU: 0x19361, offset: 0x45F2FA, size: 0x8, addend: 0x0, symName: __ZN3syn5token5Brace8surround17hd179764b3f344586E, symObjAddr: 0x98C0, symBinAddr: 0xE0B50, symSize: 0x220 }
  - { offsetInCU: 0x1986D, offset: 0x45F806, size: 0x8, addend: 0x0, symName: __ZN3syn5token5Brace8surround17hd326a20e95a92237E, symObjAddr: 0x9AE0, symBinAddr: 0xE0D70, symSize: 0x470 }
  - { offsetInCU: 0x1A467, offset: 0x460400, size: 0x8, addend: 0x0, symName: __ZN3syn5token5Brace8surround17hdec488e9714715d6E, symObjAddr: 0x9F50, symBinAddr: 0xE11E0, symSize: 0x1B0 }
  - { offsetInCU: 0x1A9E7, offset: 0x460980, size: 0x8, addend: 0x0, symName: __ZN3syn5token5Brace8surround17heb4093c015441ecaE, symObjAddr: 0xA100, symBinAddr: 0xE1390, symSize: 0x200 }
  - { offsetInCU: 0x1B04F, offset: 0x460FE8, size: 0x8, addend: 0x0, symName: __ZN3syn5token7Bracket8surround17h39ed741deec0cbbcE, symObjAddr: 0xA320, symBinAddr: 0xE15B0, symSize: 0x130 }
  - { offsetInCU: 0x1B238, offset: 0x4611D1, size: 0x8, addend: 0x0, symName: __ZN3syn5token7Bracket8surround17h4010ca43394a9eecE, symObjAddr: 0xA450, symBinAddr: 0xE16E0, symSize: 0x1A0 }
  - { offsetInCU: 0x1B7B3, offset: 0x46174C, size: 0x8, addend: 0x0, symName: __ZN3syn5token7Bracket8surround17h5da20462893431d0E, symObjAddr: 0xA790, symBinAddr: 0xE1880, symSize: 0x130 }
  - { offsetInCU: 0x1B9CA, offset: 0x461963, size: 0x8, addend: 0x0, symName: __ZN3syn5token7Bracket8surround17ha5aff01b8fd5a0e1E, symObjAddr: 0xA9F0, symBinAddr: 0xE19B0, symSize: 0x160 }
  - { offsetInCU: 0x1BC02, offset: 0x461B9B, size: 0x8, addend: 0x0, symName: __ZN3syn5token7Bracket8surround17hc7c268cb755c8c19E, symObjAddr: 0xAB50, symBinAddr: 0xE1B10, symSize: 0x150 }
  - { offsetInCU: 0x1BE62, offset: 0x461DFB, size: 0x8, addend: 0x0, symName: __ZN3syn5token7Bracket8surround17hfab81345bbdd2f89E, symObjAddr: 0xACA0, symBinAddr: 0xE1C60, symSize: 0x130 }
  - { offsetInCU: 0x1C051, offset: 0x461FEA, size: 0x8, addend: 0x0, symName: __ZN3syn5token5Paren8surround17h0c12e09da3aa8e34E, symObjAddr: 0xADF0, symBinAddr: 0xE1DB0, symSize: 0x1F0 }
  - { offsetInCU: 0x1C376, offset: 0x46230F, size: 0x8, addend: 0x0, symName: __ZN3syn5token5Paren8surround17h16e802a9434a262fE, symObjAddr: 0xAFE0, symBinAddr: 0xE1FA0, symSize: 0x210 }
  - { offsetInCU: 0x1CAD5, offset: 0x462A6E, size: 0x8, addend: 0x0, symName: __ZN3syn5token5Paren8surround17h28d44f6895295df5E, symObjAddr: 0xB1F0, symBinAddr: 0xE21B0, symSize: 0x1FC0 }
  - { offsetInCU: 0x24578, offset: 0x46A511, size: 0x8, addend: 0x0, symName: __ZN3syn5token5Paren8surround17h38eece4b36020a96E, symObjAddr: 0xD1B0, symBinAddr: 0xE4170, symSize: 0x1A0 }
  - { offsetInCU: 0x24B55, offset: 0x46AAEE, size: 0x8, addend: 0x0, symName: __ZN3syn5token5Paren8surround17h4007655ded83f205E, symObjAddr: 0xD350, symBinAddr: 0xE4310, symSize: 0x240 }
  - { offsetInCU: 0x25203, offset: 0x46B19C, size: 0x8, addend: 0x0, symName: __ZN3syn5token5Paren8surround17h4549913c098e8324E, symObjAddr: 0xD590, symBinAddr: 0xE4550, symSize: 0x590 }
  - { offsetInCU: 0x25E43, offset: 0x46BDDC, size: 0x8, addend: 0x0, symName: __ZN3syn5token5Paren8surround17h4bee939971f7badbE, symObjAddr: 0xDB20, symBinAddr: 0xE4AE0, symSize: 0x1A0 }
  - { offsetInCU: 0x26375, offset: 0x46C30E, size: 0x8, addend: 0x0, symName: __ZN3syn5token5Paren8surround17h659862ce9b85cd3fE, symObjAddr: 0xDE60, symBinAddr: 0xE4C80, symSize: 0x120 }
  - { offsetInCU: 0x265DF, offset: 0x46C578, size: 0x8, addend: 0x0, symName: __ZN3syn5token5Paren8surround17h65f8affeb8dd01f8E, symObjAddr: 0xDF80, symBinAddr: 0xE4DA0, symSize: 0x260 }
  - { offsetInCU: 0x26D0D, offset: 0x46CCA6, size: 0x8, addend: 0x0, symName: __ZN3syn5token5Paren8surround17h8213022939b4c94aE, symObjAddr: 0xE1E0, symBinAddr: 0xE5000, symSize: 0x210 }
  - { offsetInCU: 0x27384, offset: 0x46D31D, size: 0x8, addend: 0x0, symName: __ZN3syn5token5Paren8surround17h913431f398679f5cE, symObjAddr: 0xE3F0, symBinAddr: 0xE5210, symSize: 0x460 }
  - { offsetInCU: 0x27F4D, offset: 0x46DEE6, size: 0x8, addend: 0x0, symName: __ZN3syn5token5Paren8surround17h94193c74c4feae5eE, symObjAddr: 0xE850, symBinAddr: 0xE5670, symSize: 0x120 }
  - { offsetInCU: 0x28171, offset: 0x46E10A, size: 0x8, addend: 0x0, symName: __ZN3syn5token5Paren8surround17hab374b99a74045c1E, symObjAddr: 0xE970, symBinAddr: 0xE5790, symSize: 0x180 }
  - { offsetInCU: 0x284AD, offset: 0x46E446, size: 0x8, addend: 0x0, symName: __ZN3syn5token5Paren8surround17hc5047487c1c6e5cbE, symObjAddr: 0xEAF0, symBinAddr: 0xE5910, symSize: 0x130 }
  - { offsetInCU: 0x2867C, offset: 0x46E615, size: 0x8, addend: 0x0, symName: __ZN3syn5token5Paren8surround17hd13f0c3754c57ba1E, symObjAddr: 0xEC20, symBinAddr: 0xE5A40, symSize: 0x1A0 }
  - { offsetInCU: 0x28BD0, offset: 0x46EB69, size: 0x8, addend: 0x0, symName: __ZN3syn5token5Paren8surround17hef6358969a27e005E, symObjAddr: 0xF000, symBinAddr: 0xE5BE0, symSize: 0x1BA }
  - { offsetInCU: 0x1E, offset: 0x478368, size: 0x8, addend: 0x0, symName: '__ZN42_$LT$$RF$T$u20$as$u20$core..fmt..Debug$GT$3fmt17h3edfaf8bc5bdd7d9E', symObjAddr: 0x0, symBinAddr: 0xE5DA0, symSize: 0x80 }
  - { offsetInCU: 0x15D6, offset: 0x479920, size: 0x8, addend: 0x0, symName: '__ZN3syn2ty8printing76_$LT$impl$u20$quote..to_tokens..ToTokens$u20$for$u20$syn..ty..TypeBareFn$GT$9to_tokens17h9ada785e3c4ac8beE', symObjAddr: 0xB6E0, symBinAddr: 0xEFBD0, symSize: 0x210 }
  - { offsetInCU: 0x1CBD, offset: 0x47A007, size: 0x8, addend: 0x0, symName: '__ZN3syn2ty8printing78_$LT$impl$u20$quote..to_tokens..ToTokens$u20$for$u20$syn..ty..BareVariadic$GT$9to_tokens17hd841e8aff45580ffE', symObjAddr: 0xBF60, symBinAddr: 0xEFDE0, symSize: 0x130 }
  - { offsetInCU: 0x1F8C, offset: 0x47A2D6, size: 0x8, addend: 0x0, symName: '__ZN3syn2ty7parsing64_$LT$impl$u20$syn..parse..Parse$u20$for$u20$syn..ty..TypePtr$GT$5parse17hb3a631f8b5050729E', symObjAddr: 0x86C0, symBinAddr: 0xED990, symSize: 0x440 }
  - { offsetInCU: 0x2BC8, offset: 0x47AF12, size: 0x8, addend: 0x0, symName: '__ZN3syn2ty7parsing70_$LT$impl$u20$syn..parse..Parse$u20$for$u20$syn..ty..TypeReference$GT$5parse17h28b5cea3a2a5f18cE', symObjAddr: 0x8B00, symBinAddr: 0xEDDD0, symSize: 0x3C0 }
  - { offsetInCU: 0x3336, offset: 0x47B680, size: 0x8, addend: 0x0, symName: '__ZN3syn2ty7parsing67_$LT$impl$u20$syn..parse..Parse$u20$for$u20$syn..ty..TypeBareFn$GT$5parse17hc7333311caab7003E', symObjAddr: 0x8EC0, symBinAddr: 0xEE190, symSize: 0x1020 }
  - { offsetInCU: 0x5022, offset: 0x47D36C, size: 0x8, addend: 0x0, symName: '__ZN3syn2ty7parsing66_$LT$impl$u20$syn..parse..Parse$u20$for$u20$syn..ty..TypeNever$GT$5parse17hedcf4bce6d4b8acdE', symObjAddr: 0x9EE0, symBinAddr: 0xEF1B0, symSize: 0x50 }
  - { offsetInCU: 0x50D0, offset: 0x47D41A, size: 0x8, addend: 0x0, symName: '__ZN3syn2ty7parsing72_$LT$impl$u20$syn..parse..Parse$u20$for$u20$syn..ty..TypeTraitObject$GT$5parse17h2a2e48674bf544ceE', symObjAddr: 0xA790, symBinAddr: 0xEF3C0, symSize: 0x190 }
  - { offsetInCU: 0x5712, offset: 0x47DA5C, size: 0x8, addend: 0x0, symName: '__ZN3syn2ty7parsing66_$LT$impl$u20$syn..parse..Parse$u20$for$u20$syn..ty..TypeGroup$GT$5parse17h320d676d6240d83aE', symObjAddr: 0xAF50, symBinAddr: 0xEF9B0, symSize: 0x220 }
  - { offsetInCU: 0x5C99, offset: 0x47DFE3, size: 0x8, addend: 0x0, symName: '__ZN60_$LT$syn..ty..Type$u20$as$u20$quote..to_tokens..ToTokens$GT$9to_tokens17hc517846047fbd8d3E', symObjAddr: 0xC130, symBinAddr: 0xEFF10, symSize: 0x800 }
  - { offsetInCU: 0x80D0, offset: 0x48041A, size: 0x8, addend: 0x0, symName: '__ZN77_$LT$$RF$$u5b$syn..attr..Attribute$u5d$$u20$as$u20$syn..attr..FilterAttrs$GT$5outer8is_outer17h41e17c2f166a63adE.llvm.7433280464014642904', symObjAddr: 0x7F60, symBinAddr: 0xED970, symSize: 0x20 }
  - { offsetInCU: 0xAD81, offset: 0x4830CB, size: 0x8, addend: 0x0, symName: '__ZN3syn3gen5debug59_$LT$impl$u20$core..fmt..Debug$u20$for$u20$syn..ty..Abi$GT$3fmt17h1f4f3f3e7417add4E', symObjAddr: 0xE000, symBinAddr: 0xF1580, symSize: 0x80 }
  - { offsetInCU: 0xADFF, offset: 0x483149, size: 0x8, addend: 0x0, symName: '__ZN3syn3gen5debug65_$LT$impl$u20$core..fmt..Debug$u20$for$u20$syn..ty..BareFnArg$GT$3fmt17hafe2d862a5fbbd2aE', symObjAddr: 0xE080, symBinAddr: 0xF1600, symSize: 0xA0 }
  - { offsetInCU: 0xAE5F, offset: 0x4831A9, size: 0x8, addend: 0x0, symName: '__ZN3syn3gen5debug66_$LT$impl$u20$core..fmt..Debug$u20$for$u20$syn..ty..ReturnType$GT$3fmt17h6164e2feef179523E', symObjAddr: 0xE1E0, symBinAddr: 0xF16A0, symSize: 0xB0 }
  - { offsetInCU: 0xAF23, offset: 0x48326D, size: 0x8, addend: 0x0, symName: '__ZN3syn3gen5debug60_$LT$impl$u20$core..fmt..Debug$u20$for$u20$syn..ty..Type$GT$3fmt17h3bf74744cd3b7a1aE', symObjAddr: 0xE290, symBinAddr: 0xF1750, symSize: 0x580 }
  - { offsetInCU: 0xB506, offset: 0x483850, size: 0x8, addend: 0x0, symName: '__ZN3syn3gen2eq69_$LT$impl$u20$core..cmp..PartialEq$u20$for$u20$syn..ty..BareFnArg$GT$2eq17he36137b5e6afb7ebE', symObjAddr: 0xF080, symBinAddr: 0xF1E10, symSize: 0xD0 }
  - { offsetInCU: 0xB6FD, offset: 0x483A47, size: 0x8, addend: 0x0, symName: '__ZN3syn3gen2eq72_$LT$impl$u20$core..cmp..PartialEq$u20$for$u20$syn..ty..BareVariadic$GT$2eq17hfc1a3d72e239b093E', symObjAddr: 0xF150, symBinAddr: 0xF1EE0, symSize: 0xB0 }
  - { offsetInCU: 0xBAE1, offset: 0x483E2B, size: 0x8, addend: 0x0, symName: '__ZN3syn3gen2eq64_$LT$impl$u20$core..cmp..PartialEq$u20$for$u20$syn..ty..Type$GT$2eq17he4888ff266185e79E', symObjAddr: 0xF230, symBinAddr: 0xF1F90, symSize: 0x460 }
  - { offsetInCU: 0xC552, offset: 0x48489C, size: 0x8, addend: 0x0, symName: '__ZN3syn3gen2eq70_$LT$impl$u20$core..cmp..PartialEq$u20$for$u20$syn..ty..TypeBareFn$GT$2eq17h1887b94ea6ad0ef3E', symObjAddr: 0xF6D0, symBinAddr: 0xF23F0, symSize: 0x310 }
  - { offsetInCU: 0xCD09, offset: 0x485053, size: 0x8, addend: 0x0, symName: '__ZN3syn3gen5clone67_$LT$impl$u20$core..clone..Clone$u20$for$u20$syn..ty..BareFnArg$GT$5clone17h322032e98041fe57E', symObjAddr: 0xC960, symBinAddr: 0xF0710, symSize: 0x140 }
  - { offsetInCU: 0xD17E, offset: 0x4854C8, size: 0x8, addend: 0x0, symName: '__ZN3syn3gen5clone62_$LT$impl$u20$core..clone..Clone$u20$for$u20$syn..ty..Type$GT$5clone17hab6b515cddcf12a4E', symObjAddr: 0xCC10, symBinAddr: 0xF0850, symSize: 0x8A0 }
  - { offsetInCU: 0xE96E, offset: 0x486CB8, size: 0x8, addend: 0x0, symName: '__ZN3syn3gen5clone68_$LT$impl$u20$core..clone..Clone$u20$for$u20$syn..ty..TypeBareFn$GT$5clone17h93542e2290e09c95E', symObjAddr: 0xD5C0, symBinAddr: 0xF10F0, symSize: 0x490 }
  - { offsetInCU: 0x11B6C, offset: 0x489EB6, size: 0x8, addend: 0x0, symName: '__ZN4core3ptr100drop_in_place$LT$core..option..Option$LT$alloc..boxed..Box$LT$syn..path..GenericArgument$GT$$GT$$GT$17h3a7c44b9e57fe410E', symObjAddr: 0x1D0, symBinAddr: 0xE5EF0, symSize: 0x50 }
  - { offsetInCU: 0x11F0A, offset: 0x48A254, size: 0x8, addend: 0x0, symName: '__ZN4core3ptr100drop_in_place$LT$syn..punctuated..Punctuated$LT$syn..path..PathSegment$C$syn..token..PathSep$GT$$GT$17he41ef64147139591E', symObjAddr: 0x220, symBinAddr: 0xE5F40, symSize: 0x2B0 }
  - { offsetInCU: 0x129C0, offset: 0x48AD0A, size: 0x8, addend: 0x0, symName: '__ZN4core3ptr103drop_in_place$LT$core..option..Option$LT$alloc..boxed..Box$LT$syn..generics..TypeParamBound$GT$$GT$$GT$17hb14e4384a768542bE', symObjAddr: 0x4D0, symBinAddr: 0xE61F0, symSize: 0x50 }
  - { offsetInCU: 0x12BCB, offset: 0x48AF15, size: 0x8, addend: 0x0, symName: '__ZN4core3ptr103drop_in_place$LT$syn..punctuated..Punctuated$LT$syn..generics..GenericParam$C$syn..token..Comma$GT$$GT$17h0c6077a988036760E', symObjAddr: 0x520, symBinAddr: 0xE6240, symSize: 0xF0 }
  - { offsetInCU: 0x130C6, offset: 0x48B410, size: 0x8, addend: 0x0, symName: '__ZN4core3ptr104drop_in_place$LT$syn..punctuated..Punctuated$LT$syn..generics..TypeParamBound$C$syn..token..Plus$GT$$GT$17h724e4d9d1d65061aE', symObjAddr: 0x610, symBinAddr: 0xE6330, symSize: 0x190 }
  - { offsetInCU: 0x13765, offset: 0x48BAAF, size: 0x8, addend: 0x0, symName: '__ZN4core3ptr34drop_in_place$LT$syn..lit..Lit$GT$17hd64dde89a262341dE', symObjAddr: 0x7A0, symBinAddr: 0xE64C0, symSize: 0x120 }
  - { offsetInCU: 0x13C53, offset: 0x48BF9D, size: 0x8, addend: 0x0, symName: '__ZN4core3ptr34drop_in_place$LT$syn..pat..Pat$GT$17hf88887878261d63cE', symObjAddr: 0x8C0, symBinAddr: 0xE65E0, symSize: 0x1100 }
  - { offsetInCU: 0x182CC, offset: 0x490616, size: 0x8, addend: 0x0, symName: '__ZN4core3ptr34drop_in_place$LT$syn..ty..Type$GT$17ha80dd29b0f9d4a3fE.llvm.7433280464014642904', symObjAddr: 0x19C0, symBinAddr: 0xE76E0, symSize: 0x510 }
  - { offsetInCU: 0x19932, offset: 0x491C7C, size: 0x8, addend: 0x0, symName: '__ZN4core3ptr36drop_in_place$LT$syn..expr..Expr$GT$17h10f573b40ddd212cE', symObjAddr: 0x1ED0, symBinAddr: 0xE7BF0, symSize: 0x2840 }
  - { offsetInCU: 0x23A10, offset: 0x49BD5A, size: 0x8, addend: 0x0, symName: '__ZN4core3ptr36drop_in_place$LT$syn..mac..Macro$GT$17hc3b30a7a8a34cc2dE', symObjAddr: 0x4710, symBinAddr: 0xEA430, symSize: 0x40 }
  - { offsetInCU: 0x23A4A, offset: 0x49BD94, size: 0x8, addend: 0x0, symName: '__ZN4core3ptr36drop_in_place$LT$syn..path..Path$GT$17h75c74a97d5f0a03bE', symObjAddr: 0x4750, symBinAddr: 0xEA470, symSize: 0x280 }
  - { offsetInCU: 0x244F7, offset: 0x49C841, size: 0x8, addend: 0x0, symName: '__ZN4core3ptr37drop_in_place$LT$syn..stmt..Block$GT$17h6fc3254d5688f2c3E', symObjAddr: 0x49D0, symBinAddr: 0xEA6F0, symSize: 0xD0 }
  - { offsetInCU: 0x247CE, offset: 0x49CB18, size: 0x8, addend: 0x0, symName: '__ZN4core3ptr38drop_in_place$LT$syn..expr..Member$GT$17h6b0cf84594ce6bceE', symObjAddr: 0x4AA0, symBinAddr: 0xEA7C0, symSize: 0x30 }
  - { offsetInCU: 0x24965, offset: 0x49CCAF, size: 0x8, addend: 0x0, symName: '__ZN4core3ptr38drop_in_place$LT$syn..group..Group$GT$17ha3c6933df6efe66fE.llvm.7433280464014642904', symObjAddr: 0x4AD0, symBinAddr: 0xEA7F0, symSize: 0x70 }
  - { offsetInCU: 0x24C5D, offset: 0x49CFA7, size: 0x8, addend: 0x0, symName: '__ZN4core3ptr39drop_in_place$LT$proc_macro2..Ident$GT$17ha28fef9769e267d9E', symObjAddr: 0x4B40, symBinAddr: 0xEA860, symSize: 0x30 }
  - { offsetInCU: 0x24D3A, offset: 0x49D084, size: 0x8, addend: 0x0, symName: '__ZN4core3ptr40drop_in_place$LT$syn..ty..ReturnType$GT$17h035a612e322b6510E', symObjAddr: 0x4B70, symBinAddr: 0xEA890, symSize: 0x50 }
  - { offsetInCU: 0x24EAA, offset: 0x49D1F4, size: 0x8, addend: 0x0, symName: '__ZN4core3ptr41drop_in_place$LT$syn..expr..ExprConst$GT$17hbfe19d5d621e6836E', symObjAddr: 0x4BC0, symBinAddr: 0xEA8E0, symSize: 0x180 }
  - { offsetInCU: 0x25497, offset: 0x49D7E1, size: 0x8, addend: 0x0, symName: '__ZN4core3ptr44drop_in_place$LT$syn..lifetime..Lifetime$GT$17he37fa474f03de7b1E', symObjAddr: 0x4D40, symBinAddr: 0xEAA60, symSize: 0x30 }
  - { offsetInCU: 0x25593, offset: 0x49D8DD, size: 0x8, addend: 0x0, symName: '__ZN4core3ptr44drop_in_place$LT$syn..parse..ParseBuffer$GT$17hf792ff20095efc35E', symObjAddr: 0x4D70, symBinAddr: 0xEAA90, symSize: 0x70 }
  - { offsetInCU: 0x259AA, offset: 0x49DCF4, size: 0x8, addend: 0x0, symName: '__ZN4core3ptr45drop_in_place$LT$proc_macro2..TokenStream$GT$17h76e8e68015f4924dE.llvm.7433280464014642904', symObjAddr: 0x4DE0, symBinAddr: 0xEAB00, symSize: 0x140 }
  - { offsetInCU: 0x25E44, offset: 0x49E18E, size: 0x8, addend: 0x0, symName: '__ZN4core3ptr45drop_in_place$LT$syn..generics..TypeParam$GT$17h188a459c1380ac75E', symObjAddr: 0x4F20, symBinAddr: 0xEAC40, symSize: 0x230 }
  - { offsetInCU: 0x266B9, offset: 0x49EA03, size: 0x8, addend: 0x0, symName: '__ZN4core3ptr46drop_in_place$LT$syn..generics..ConstParam$GT$17h7a9b900b2b88bfcdE', symObjAddr: 0x5150, symBinAddr: 0xEAE70, symSize: 0x150 }
  - { offsetInCU: 0x26B3A, offset: 0x49EE84, size: 0x8, addend: 0x0, symName: '__ZN4core3ptr47drop_in_place$LT$syn..path..GenericArgument$GT$17h593f06d6ca9a94d2E', symObjAddr: 0x52A0, symBinAddr: 0xEAFC0, symSize: 0x4A0 }
  - { offsetInCU: 0x27C40, offset: 0x49FF8A, size: 0x8, addend: 0x0, symName: '__ZN4core3ptr49drop_in_place$LT$syn..generics..LifetimeParam$GT$17h3a8835ab294bfd16E', symObjAddr: 0x5740, symBinAddr: 0xEB460, symSize: 0xF0 }
  - { offsetInCU: 0x28057, offset: 0x4A03A1, size: 0x8, addend: 0x0, symName: '__ZN4core3ptr50drop_in_place$LT$syn..generics..TypeParamBound$GT$17h81b4325b5900604dE', symObjAddr: 0x5830, symBinAddr: 0xEB550, symSize: 0x1C0 }
  - { offsetInCU: 0x285B4, offset: 0x4A08FE, size: 0x8, addend: 0x0, symName: '__ZN4core3ptr58drop_in_place$LT$alloc..vec..Vec$LT$syn..expr..Arm$GT$$GT$17hff9224aadf2233b8E', symObjAddr: 0x59F0, symBinAddr: 0xEB710, symSize: 0xD0 }
  - { offsetInCU: 0x28874, offset: 0x4A0BBE, size: 0x8, addend: 0x0, symName: '__ZN4core3ptr59drop_in_place$LT$alloc..boxed..Box$LT$syn..pat..Pat$GT$$GT$17h622b0c1db21c0742E', symObjAddr: 0x5AC0, symBinAddr: 0xEB7E0, symSize: 0x50 }
  - { offsetInCU: 0x289CD, offset: 0x4A0D17, size: 0x8, addend: 0x0, symName: '__ZN4core3ptr59drop_in_place$LT$alloc..boxed..Box$LT$syn..ty..Type$GT$$GT$17hde45fa887dd8b605E', symObjAddr: 0x5B10, symBinAddr: 0xEB830, symSize: 0x50 }
  - { offsetInCU: 0x28B26, offset: 0x4A0E70, size: 0x8, addend: 0x0, symName: '__ZN4core3ptr61drop_in_place$LT$alloc..boxed..Box$LT$syn..expr..Expr$GT$$GT$17hbb42293869113942E', symObjAddr: 0x5B60, symBinAddr: 0xEB880, symSize: 0x50 }
  - { offsetInCU: 0x28C7F, offset: 0x4A0FC9, size: 0x8, addend: 0x0, symName: '__ZN4core3ptr61drop_in_place$LT$core..option..Option$LT$syn..ty..Abi$GT$$GT$17h7dcd65a0d902f85aE', symObjAddr: 0x5BB0, symBinAddr: 0xEB8D0, symSize: 0x70 }
  - { offsetInCU: 0x2901A, offset: 0x4A1364, size: 0x8, addend: 0x0, symName: '__ZN4core3ptr61drop_in_place$LT$syn..path..ParenthesizedGenericArguments$GT$17h6b1731382637937fE', symObjAddr: 0x5C20, symBinAddr: 0xEB940, symSize: 0x170 }
  - { offsetInCU: 0x29610, offset: 0x4A195A, size: 0x8, addend: 0x0, symName: '__ZN4core3ptr62drop_in_place$LT$syn..path..AngleBracketedGenericArguments$GT$17hf8fa172f007a1473E', symObjAddr: 0x5D90, symBinAddr: 0xEBAB0, symSize: 0x120 }
  - { offsetInCU: 0x29A5B, offset: 0x4A1DA5, size: 0x8, addend: 0x0, symName: '__ZN4core3ptr63drop_in_place$LT$alloc..boxed..Box$LT$syn..lit..LitRepr$GT$$GT$17h6e3a82ea4de7b84cE', symObjAddr: 0x5EB0, symBinAddr: 0xEBBD0, symSize: 0x60 }
  - { offsetInCU: 0x29D62, offset: 0x4A20AC, size: 0x8, addend: 0x0, symName: '__ZN4core3ptr64drop_in_place$LT$alloc..boxed..Box$LT$syn..pat..FieldPat$GT$$GT$17hbf8f4867d84bd25dE', symObjAddr: 0x5F10, symBinAddr: 0xEBC30, symSize: 0x140 }
  - { offsetInCU: 0x2A463, offset: 0x4A27AD, size: 0x8, addend: 0x0, symName: '__ZN4core3ptr64drop_in_place$LT$alloc..boxed..Box$LT$syn..ty..BareFnArg$GT$$GT$17h6be6354eb1d1364dE', symObjAddr: 0x6050, symBinAddr: 0xEBD70, symSize: 0x140 }
  - { offsetInCU: 0x2A9EC, offset: 0x4A2D36, size: 0x8, addend: 0x0, symName: '__ZN4core3ptr64drop_in_place$LT$alloc..vec..Vec$LT$syn..attr..Attribute$GT$$GT$17he33e25539d5885aeE.llvm.7433280464014642904', symObjAddr: 0x6190, symBinAddr: 0xEBEB0, symSize: 0xD0 }
  - { offsetInCU: 0x2ACE0, offset: 0x4A302A, size: 0x8, addend: 0x0, symName: '__ZN4core3ptr65drop_in_place$LT$alloc..vec..Vec$LT$proc_macro..TokenTree$GT$$GT$17h8abd81f8596dbc59E.llvm.7433280464014642904', symObjAddr: 0x6260, symBinAddr: 0xEBF80, symSize: 0x110 }
  - { offsetInCU: 0x2B0D8, offset: 0x4A3422, size: 0x8, addend: 0x0, symName: '__ZN4core3ptr65drop_in_place$LT$core..option..Option$LT$syn..expr..Label$GT$$GT$17hac599686b33ef364E', symObjAddr: 0x6370, symBinAddr: 0xEC090, symSize: 0x30 }
