---
triple:          'x86_64-apple-darwin'
binary-path:     "/Users/justinlanouette/Chaos/ChaöS-Token/hello_world/target/release/deps/libsolana_frozen_abi_macro-2015be59b4ace165.dylib"
relocations:
  - { offsetInCU: 0x1E, offset: 0x1E, size: 0x8, addend: 0x0, symName: __ZN10proc_macro6bridge6client14HandleCounters3get17h02da01958788119eE, symObjAddr: 0x0, symBinAddr: 0xD40, symSize: 0x10 }
  - { offsetInCU: 0x40, offset: 0x40, size: 0x8, addend: 0x0, symName: ___rustc_proc_macro_decls_b22be82e800da5a3__, symObjAddr: 0x112B8, symBinAddr: 0x26C3F8, symSize: 0x0 }
  - { offsetInCU: 0x53, offset: 0x53, size: 0x8, addend: 0x0, symName: __ZN23solana_frozen_abi_macro18filter_serde_attrs13contains_skip17h51d5709742c64272E, symObjAddr: 0x9D00, symBinAddr: 0xAA40, symSize: 0x2D0 }
  - { offsetInCU: 0xD4D, offset: 0xD4D, size: 0x8, addend: 0x0, symName: __ZN23solana_frozen_abi_macro17derive_abi_sample17hde38bcf3add37793E, symObjAddr: 0x9FD0, symBinAddr: 0xAD10, symSize: 0x1CC0 }
  - { offsetInCU: 0x34DA, offset: 0x34DA, size: 0x8, addend: 0x0, symName: __ZN23solana_frozen_abi_macro23derive_abi_enum_visitor17he5ce33292282d339E, symObjAddr: 0xBC90, symBinAddr: 0xC9D0, symSize: 0x16D0 }
  - { offsetInCU: 0x5456, offset: 0x5456, size: 0x8, addend: 0x0, symName: __ZN23solana_frozen_abi_macro14quote_for_test17hb5a9d1e6f8a5fff1E, symObjAddr: 0xD360, symBinAddr: 0xE0A0, symSize: 0x1480 }
  - { offsetInCU: 0x6052, offset: 0x6052, size: 0x8, addend: 0x0, symName: __ZN23solana_frozen_abi_macro13test_mod_name17h74d24cf3ae149fdbE, symObjAddr: 0xE7E0, symBinAddr: 0xF520, symSize: 0xD0 }
  - { offsetInCU: 0x64E8, offset: 0x64E8, size: 0x8, addend: 0x0, symName: __ZN23solana_frozen_abi_macro10frozen_abi17hce7bac03789bc6aaE, symObjAddr: 0xE8B0, symBinAddr: 0xF5F0, symSize: 0x85B }
  - { offsetInCU: 0xB626, offset: 0xB626, size: 0x8, addend: 0x0, symName: '__ZN4core3ptr100drop_in_place$LT$core..option..Option$LT$alloc..boxed..Box$LT$syn..path..GenericArgument$GT$$GT$$GT$17h51106e166286752dE', symObjAddr: 0x10, symBinAddr: 0xD50, symSize: 0x50 }
  - { offsetInCU: 0xB7F5, offset: 0xB7F5, size: 0x8, addend: 0x0, symName: '__ZN4core3ptr102drop_in_place$LT$syn..punctuated..Punctuated$LT$syn..path..GenericArgument$C$syn..token..Comma$GT$$GT$17ha28f317a24f35a0dE', symObjAddr: 0x60, symBinAddr: 0xDA0, symSize: 0xF0 }
  - { offsetInCU: 0xBADE, offset: 0xBADE, size: 0x8, addend: 0x0, symName: '__ZN4core3ptr103drop_in_place$LT$core..option..Option$LT$alloc..boxed..Box$LT$syn..generics..TypeParamBound$GT$$GT$$GT$17h891dc4df1cdac563E', symObjAddr: 0x150, symBinAddr: 0xE90, symSize: 0x50 }
  - { offsetInCU: 0xBDA5, offset: 0xBDA5, size: 0x8, addend: 0x0, symName: '__ZN4core3ptr103drop_in_place$LT$core..option..Option$LT$alloc..boxed..Box$LT$syn..generics..WherePredicate$GT$$GT$$GT$17h2f72d1bb6c8fc5ccE', symObjAddr: 0x1A0, symBinAddr: 0xEE0, symSize: 0xD0 }
  - { offsetInCU: 0xC138, offset: 0xC138, size: 0x8, addend: 0x0, symName: '__ZN4core3ptr103drop_in_place$LT$syn..punctuated..Punctuated$LT$syn..generics..GenericParam$C$syn..token..Comma$GT$$GT$17h931763ff18c68004E', symObjAddr: 0x270, symBinAddr: 0xFB0, symSize: 0xF0 }
  - { offsetInCU: 0xC5FB, offset: 0xC5FB, size: 0x8, addend: 0x0, symName: '__ZN4core3ptr104drop_in_place$LT$syn..punctuated..Punctuated$LT$syn..generics..TypeParamBound$C$syn..token..Plus$GT$$GT$17hecfab50c650f1186E', symObjAddr: 0x360, symBinAddr: 0x10A0, symSize: 0x230 }
  - { offsetInCU: 0xCE7C, offset: 0xCE7C, size: 0x8, addend: 0x0, symName: '__ZN4core3ptr115drop_in_place$LT$core..option..Option$LT$$LP$syn..token..Brace$C$alloc..vec..Vec$LT$syn..item..Item$GT$$RP$$GT$$GT$17h9eb662418a819405E', symObjAddr: 0x590, symBinAddr: 0x12D0, symSize: 0xE0 }
  - { offsetInCU: 0xD19F, offset: 0xD19F, size: 0x8, addend: 0x0, symName: '__ZN4core3ptr34drop_in_place$LT$syn..lit..Lit$GT$17h805b01a65cebc907E', symObjAddr: 0x670, symBinAddr: 0x13B0, symSize: 0x110 }
  - { offsetInCU: 0xD6F8, offset: 0xD6F8, size: 0x8, addend: 0x0, symName: '__ZN4core3ptr34drop_in_place$LT$syn..pat..Pat$GT$17hf9f5753b4321e696E', symObjAddr: 0x780, symBinAddr: 0x14C0, symSize: 0xEE0 }
  - { offsetInCU: 0x10D47, offset: 0x10D47, size: 0x8, addend: 0x0, symName: '__ZN4core3ptr34drop_in_place$LT$syn..ty..Type$GT$17h4fee972b04a5d170E', symObjAddr: 0x1660, symBinAddr: 0x23A0, symSize: 0x5C0 }
  - { offsetInCU: 0x1257D, offset: 0x1257D, size: 0x8, addend: 0x0, symName: '__ZN4core3ptr36drop_in_place$LT$syn..expr..Expr$GT$17hb4ca458a3b04efdfE', symObjAddr: 0x1C20, symBinAddr: 0x2960, symSize: 0x2800 }
  - { offsetInCU: 0x1BB59, offset: 0x1BB59, size: 0x8, addend: 0x0, symName: '__ZN4core3ptr36drop_in_place$LT$syn..item..Item$GT$17hd5297b74723f39a3E', symObjAddr: 0x4420, symBinAddr: 0x5160, symSize: 0x1460 }
  - { offsetInCU: 0x20479, offset: 0x20479, size: 0x8, addend: 0x0, symName: '__ZN4core3ptr36drop_in_place$LT$syn..mac..Macro$GT$17h8eb0848626ff8376E', symObjAddr: 0x5880, symBinAddr: 0x65C0, symSize: 0xE0 }
  - { offsetInCU: 0x207EA, offset: 0x207EA, size: 0x8, addend: 0x0, symName: '__ZN4core3ptr36drop_in_place$LT$syn..path..Path$GT$17hcf67d367f5e4ad5cE', symObjAddr: 0x5960, symBinAddr: 0x66A0, symSize: 0x220 }
  - { offsetInCU: 0x2111F, offset: 0x2111F, size: 0x8, addend: 0x0, symName: '__ZN4core3ptr37drop_in_place$LT$syn..stmt..Block$GT$17h96c863f355d0c08aE', symObjAddr: 0x5B80, symBinAddr: 0x68C0, symSize: 0xD0 }
  - { offsetInCU: 0x213E2, offset: 0x213E2, size: 0x8, addend: 0x0, symName: '__ZN4core3ptr38drop_in_place$LT$syn..data..Fields$GT$17h57adcc6b978f44c3E', symObjAddr: 0x5C50, symBinAddr: 0x6990, symSize: 0x190 }
  - { offsetInCU: 0x2183E, offset: 0x2183E, size: 0x8, addend: 0x0, symName: '__ZN4core3ptr38drop_in_place$LT$syn..error..Error$GT$17h866b7f757b759345E', symObjAddr: 0x5DE0, symBinAddr: 0x6B20, symSize: 0x80 }
  - { offsetInCU: 0x21AFC, offset: 0x21AFC, size: 0x8, addend: 0x0, symName: '__ZN4core3ptr38drop_in_place$LT$syn..expr..Member$GT$17h52f2df960ecdf9c2E', symObjAddr: 0x5E60, symBinAddr: 0x6BA0, symSize: 0x30 }
  - { offsetInCU: 0x21D10, offset: 0x21D10, size: 0x8, addend: 0x0, symName: '__ZN4core3ptr39drop_in_place$LT$proc_macro2..Group$GT$17hde57b1d82dad7f90E', symObjAddr: 0x5E90, symBinAddr: 0x6BD0, symSize: 0x60 }
  - { offsetInCU: 0x21E5E, offset: 0x21E5E, size: 0x8, addend: 0x0, symName: '__ZN4core3ptr39drop_in_place$LT$proc_macro2..Ident$GT$17h0106d85ba76fad39E', symObjAddr: 0x5EF0, symBinAddr: 0x6C30, symSize: 0x30 }
  - { offsetInCU: 0x22053, offset: 0x22053, size: 0x8, addend: 0x0, symName: '__ZN4core3ptr39drop_in_place$LT$syn..item..UseTree$GT$17ha53cfb0acdd25fe6E', symObjAddr: 0x5F20, symBinAddr: 0x6C60, symSize: 0x1D0 }
  - { offsetInCU: 0x227B0, offset: 0x227B0, size: 0x8, addend: 0x0, symName: '__ZN4core3ptr40drop_in_place$LT$syn..item..ItemEnum$GT$17hb48cce76abef54f8E', symObjAddr: 0x60F0, symBinAddr: 0x6E30, symSize: 0x250 }
  - { offsetInCU: 0x22FA0, offset: 0x22FA0, size: 0x8, addend: 0x0, symName: '__ZN4core3ptr40drop_in_place$LT$syn..item..ItemType$GT$17hf4daab061fd73827E', symObjAddr: 0x6340, symBinAddr: 0x7080, symSize: 0x1D0 }
  - { offsetInCU: 0x2360D, offset: 0x2360D, size: 0x8, addend: 0x0, symName: '__ZN4core3ptr40drop_in_place$LT$syn..ty..ReturnType$GT$17had535e8dcd5571b8E', symObjAddr: 0x6510, symBinAddr: 0x7250, symSize: 0x50 }
  - { offsetInCU: 0x2377F, offset: 0x2377F, size: 0x8, addend: 0x0, symName: '__ZN4core3ptr41drop_in_place$LT$syn..expr..ExprConst$GT$17h8fd7b13481086d9cE', symObjAddr: 0x6560, symBinAddr: 0x72A0, symSize: 0x180 }
  - { offsetInCU: 0x23D31, offset: 0x23D31, size: 0x8, addend: 0x0, symName: '__ZN4core3ptr41drop_in_place$LT$syn..item..Signature$GT$17h65708f2a3d58e68bE', symObjAddr: 0x66E0, symBinAddr: 0x7420, symSize: 0x240 }
  - { offsetInCU: 0x245AA, offset: 0x245AA, size: 0x8, addend: 0x0, symName: '__ZN4core3ptr42drop_in_place$LT$syn..item..ItemStruct$GT$17hccec129a96ea7705E', symObjAddr: 0x6920, symBinAddr: 0x7660, symSize: 0x1A0 }
  - { offsetInCU: 0x24AE1, offset: 0x24AE1, size: 0x8, addend: 0x0, symName: '__ZN4core3ptr43drop_in_place$LT$proc_macro2..TokenTree$GT$17h150790951fc6462dE', symObjAddr: 0x6AC0, symBinAddr: 0x7800, symSize: 0xB0 }
  - { offsetInCU: 0x24DF5, offset: 0x24DF5, size: 0x8, addend: 0x0, symName: '__ZN4core3ptr43drop_in_place$LT$syn..data..FieldsNamed$GT$17h09b87030fa29ffc4E', symObjAddr: 0x6B70, symBinAddr: 0x78B0, symSize: 0xE0 }
  - { offsetInCU: 0x250E4, offset: 0x250E4, size: 0x8, addend: 0x0, symName: '__ZN4core3ptr44drop_in_place$LT$syn..generics..Generics$GT$17hfe81dbdc7f92e23dE', symObjAddr: 0x6C50, symBinAddr: 0x7990, symSize: 0x40 }
  - { offsetInCU: 0x25101, offset: 0x25101, size: 0x8, addend: 0x0, symName: '__ZN4core3ptr44drop_in_place$LT$syn..lifetime..Lifetime$GT$17h8005dc0ad2d6b979E', symObjAddr: 0x6C90, symBinAddr: 0x79D0, symSize: 0x30 }
  - { offsetInCU: 0x25299, offset: 0x25299, size: 0x8, addend: 0x0, symName: '__ZN4core3ptr45drop_in_place$LT$proc_macro2..TokenStream$GT$17haa62b8a7735fd796E', symObjAddr: 0x6CC0, symBinAddr: 0x7A00, symSize: 0x140 }
  - { offsetInCU: 0x25708, offset: 0x25708, size: 0x8, addend: 0x0, symName: '__ZN4core3ptr45drop_in_place$LT$syn..generics..TypeParam$GT$17h2becfc99543f360cE', symObjAddr: 0x6E00, symBinAddr: 0x7B40, symSize: 0x230 }
  - { offsetInCU: 0x25F04, offset: 0x25F04, size: 0x8, addend: 0x0, symName: '__ZN4core3ptr46drop_in_place$LT$syn..generics..ConstParam$GT$17h8a2837eeb880b144E', symObjAddr: 0x7030, symBinAddr: 0x7D70, symSize: 0x150 }
  - { offsetInCU: 0x2632E, offset: 0x2632E, size: 0x8, addend: 0x0, symName: '__ZN4core3ptr47drop_in_place$LT$syn..path..GenericArgument$GT$17he2e0ae8ef4913204E', symObjAddr: 0x7180, symBinAddr: 0x7EC0, symSize: 0x460 }
  - { offsetInCU: 0x27037, offset: 0x27037, size: 0x8, addend: 0x0, symName: '__ZN4core3ptr49drop_in_place$LT$syn..generics..LifetimeParam$GT$17h3c2aa3150e21384eE', symObjAddr: 0x75E0, symBinAddr: 0x8320, symSize: 0xF0 }
  - { offsetInCU: 0x273F1, offset: 0x273F1, size: 0x8, addend: 0x0, symName: '__ZN4core3ptr49drop_in_place$LT$syn..restriction..Visibility$GT$17h0007a66461fe9614E', symObjAddr: 0x76D0, symBinAddr: 0x8410, symSize: 0x60 }
  - { offsetInCU: 0x27574, offset: 0x27574, size: 0x8, addend: 0x0, symName: '__ZN4core3ptr50drop_in_place$LT$syn..generics..TypeParamBound$GT$17h3eb1e2b59f213f9dE', symObjAddr: 0x7730, symBinAddr: 0x8470, symSize: 0xA0 }
  - { offsetInCU: 0x27776, offset: 0x27776, size: 0x8, addend: 0x0, symName: '__ZN4core3ptr56drop_in_place$LT$proc_macro2..token_stream..IntoIter$GT$17h69246f3228f7c742E', symObjAddr: 0x77D0, symBinAddr: 0x8510, symSize: 0x20 }
  - { offsetInCU: 0x27826, offset: 0x27826, size: 0x8, addend: 0x0, symName: '__ZN4core3ptr58drop_in_place$LT$alloc..vec..Vec$LT$syn..expr..Arm$GT$$GT$17h998ff97bf63bed17E', symObjAddr: 0x77F0, symBinAddr: 0x8530, symSize: 0xD0 }
  - { offsetInCU: 0x27AB3, offset: 0x27AB3, size: 0x8, addend: 0x0, symName: '__ZN4core3ptr59drop_in_place$LT$alloc..boxed..Box$LT$syn..pat..Pat$GT$$GT$17h9d798a313e524b6bE', symObjAddr: 0x78C0, symBinAddr: 0x8600, symSize: 0x50 }
  - { offsetInCU: 0x27C0E, offset: 0x27C0E, size: 0x8, addend: 0x0, symName: '__ZN4core3ptr59drop_in_place$LT$alloc..boxed..Box$LT$syn..ty..Type$GT$$GT$17h4ea9959036e2a656E', symObjAddr: 0x7910, symBinAddr: 0x8650, symSize: 0x50 }
  - { offsetInCU: 0x27D69, offset: 0x27D69, size: 0x8, addend: 0x0, symName: '__ZN4core3ptr61drop_in_place$LT$alloc..boxed..Box$LT$syn..expr..Expr$GT$$GT$17h15acb3b4defe8aa9E', symObjAddr: 0x7960, symBinAddr: 0x86A0, symSize: 0x50 }
  - { offsetInCU: 0x27EC4, offset: 0x27EC4, size: 0x8, addend: 0x0, symName: '__ZN4core3ptr61drop_in_place$LT$syn..path..ParenthesizedGenericArguments$GT$17h52030a1fb662e6baE', symObjAddr: 0x79B0, symBinAddr: 0x86F0, symSize: 0x170 }
  - { offsetInCU: 0x2849E, offset: 0x2849E, size: 0x8, addend: 0x0, symName: '__ZN4core3ptr62drop_in_place$LT$alloc..boxed..Box$LT$syn..stmt..Block$GT$$GT$17he57d8523802a21c7E', symObjAddr: 0x7B20, symBinAddr: 0x8860, symSize: 0xE0 }
  - { offsetInCU: 0x2887B, offset: 0x2887B, size: 0x8, addend: 0x0, symName: '__ZN4core3ptr63drop_in_place$LT$alloc..boxed..Box$LT$syn..lit..LitRepr$GT$$GT$17h8ce608e0c23beb17E', symObjAddr: 0x7C00, symBinAddr: 0x8940, symSize: 0x60 }
  - { offsetInCU: 0x28B51, offset: 0x28B51, size: 0x8, addend: 0x0, symName: '__ZN4core3ptr63drop_in_place$LT$alloc..vec..Vec$LT$syn..item..ImplItem$GT$$GT$17h7b503339c99b5373E', symObjAddr: 0x7C60, symBinAddr: 0x89A0, symSize: 0x80 }
  - { offsetInCU: 0x28DCF, offset: 0x28DCF, size: 0x8, addend: 0x0, symName: '__ZN4core3ptr64drop_in_place$LT$alloc..boxed..Box$LT$syn..item..UseTree$GT$$GT$17h7f866ab315dd1796E', symObjAddr: 0x7CE0, symBinAddr: 0x8A20, symSize: 0x50 }
  - { offsetInCU: 0x28F49, offset: 0x28F49, size: 0x8, addend: 0x0, symName: '__ZN4core3ptr64drop_in_place$LT$alloc..boxed..Box$LT$syn..pat..FieldPat$GT$$GT$17h393127a278384096E', symObjAddr: 0x7D30, symBinAddr: 0x8A70, symSize: 0x140 }
  - { offsetInCU: 0x295F4, offset: 0x295F4, size: 0x8, addend: 0x0, symName: '__ZN4core3ptr64drop_in_place$LT$alloc..boxed..Box$LT$syn..ty..BareFnArg$GT$$GT$17h0dac7733edb5daeeE', symObjAddr: 0x7E70, symBinAddr: 0x8BB0, symSize: 0x140 }
  - { offsetInCU: 0x29B18, offset: 0x29B18, size: 0x8, addend: 0x0, symName: '__ZN4core3ptr64drop_in_place$LT$alloc..vec..Vec$LT$syn..attr..Attribute$GT$$GT$17h22fc1e35194fe2a7E', symObjAddr: 0x7FB0, symBinAddr: 0x8CF0, symSize: 0xD0 }
  - { offsetInCU: 0x29DA5, offset: 0x29DA5, size: 0x8, addend: 0x0, symName: '__ZN4core3ptr64drop_in_place$LT$alloc..vec..Vec$LT$syn..item..TraitItem$GT$$GT$17h7165bda09c99db42E', symObjAddr: 0x8080, symBinAddr: 0x8DC0, symSize: 0x80 }
  - { offsetInCU: 0x2A023, offset: 0x2A023, size: 0x8, addend: 0x0, symName: '__ZN4core3ptr65drop_in_place$LT$core..option..Option$LT$syn..expr..Label$GT$$GT$17ha72e7c19f3b13f21E', symObjAddr: 0x8100, symBinAddr: 0x8E40, symSize: 0x30 }
  - { offsetInCU: 0x2A15E, offset: 0x2A15E, size: 0x8, addend: 0x0, symName: '__ZN4core3ptr66drop_in_place$LT$alloc..vec..Vec$LT$syn..item..ForeignItem$GT$$GT$17h74e9a28ee517915cE', symObjAddr: 0x8130, symBinAddr: 0x8E70, symSize: 0x80 }
  - { offsetInCU: 0x2A3DC, offset: 0x2A3DC, size: 0x8, addend: 0x0, symName: '__ZN4core3ptr66drop_in_place$LT$core..option..Option$LT$syn..pat..PatRest$GT$$GT$17h6a220d4dc44fbd92E', symObjAddr: 0x81B0, symBinAddr: 0x8EF0, symSize: 0xE0 }
  - { offsetInCU: 0x2A660, offset: 0x2A660, size: 0x8, addend: 0x0, symName: '__ZN4core3ptr67drop_in_place$LT$alloc..boxed..Box$LT$syn..expr..FieldValue$GT$$GT$17h83a3811a70c0a730E', symObjAddr: 0x8290, symBinAddr: 0x8FD0, symSize: 0x140 }
  - { offsetInCU: 0x2ABC1, offset: 0x2ABC1, size: 0x8, addend: 0x0, symName: '__ZN4core3ptr68drop_in_place$LT$core..option..Option$LT$syn..item..Variadic$GT$$GT$17h5711c342c119ed7fE', symObjAddr: 0x83D0, symBinAddr: 0x9110, symSize: 0x130 }
  - { offsetInCU: 0x2B0DF, offset: 0x2B0DF, size: 0x8, addend: 0x0, symName: '__ZN4core3ptr70drop_in_place$LT$core..option..Option$LT$syn..ty..BareVariadic$GT$$GT$17h185d177be51abc65E', symObjAddr: 0x8500, symBinAddr: 0x9240, symSize: 0x120 }
  - { offsetInCU: 0x2B60C, offset: 0x2B60C, size: 0x8, addend: 0x0, symName: '__ZN4core3ptr72drop_in_place$LT$alloc..boxed..Box$LT$syn..path..GenericArgument$GT$$GT$17h0cad48c7aaef57c8E', symObjAddr: 0x8620, symBinAddr: 0x9360, symSize: 0x2B0 }
  - { offsetInCU: 0x2BFF7, offset: 0x2BFF7, size: 0x8, addend: 0x0, symName: '__ZN4core3ptr72drop_in_place$LT$core..option..Option$LT$syn..lifetime..Lifetime$GT$$GT$17hf3ad43dbacfd9c64E', symObjAddr: 0x88D0, symBinAddr: 0x9610, symSize: 0x30 }
  - { offsetInCU: 0x2C113, offset: 0x2C113, size: 0x8, addend: 0x0, symName: '__ZN4core3ptr73drop_in_place$LT$alloc..boxed..Box$LT$syn..generics..GenericParam$GT$$GT$17h25664c445d03fe6fE', symObjAddr: 0x8900, symBinAddr: 0x9640, symSize: 0x80 }
  - { offsetInCU: 0x2C28B, offset: 0x2C28B, size: 0x8, addend: 0x0, symName: '__ZN4core3ptr75drop_in_place$LT$alloc..boxed..Box$LT$syn..generics..TypeParamBound$GT$$GT$17h5af3b29884f49d07E', symObjAddr: 0x8980, symBinAddr: 0x96C0, symSize: 0x160 }
  - { offsetInCU: 0x2C870, offset: 0x2C870, size: 0x8, addend: 0x0, symName: '__ZN4core3ptr75drop_in_place$LT$core..option..Option$LT$syn..generics..WhereClause$GT$$GT$17h304a07b78b1d64e1E', symObjAddr: 0x8AE0, symBinAddr: 0x9820, symSize: 0x90 }
  - { offsetInCU: 0x2CB26, offset: 0x2CB26, size: 0x8, addend: 0x0, symName: '__ZN4core3ptr86drop_in_place$LT$syn..punctuated..Punctuated$LT$syn..pat..Pat$C$syn..token..Or$GT$$GT$17h713dfcc15b4623d1E', symObjAddr: 0x8B70, symBinAddr: 0x98B0, symSize: 0x120 }
  - { offsetInCU: 0x2CF6C, offset: 0x2CF6C, size: 0x8, addend: 0x0, symName: '__ZN4core3ptr87drop_in_place$LT$core..option..Option$LT$alloc..boxed..Box$LT$syn..pat..Pat$GT$$GT$$GT$17hf6c2e9af891c6e57E', symObjAddr: 0x8C90, symBinAddr: 0x99D0, symSize: 0x50 }
  - { offsetInCU: 0x2D0DE, offset: 0x2D0DE, size: 0x8, addend: 0x0, symName: '__ZN4core3ptr87drop_in_place$LT$core..option..Option$LT$alloc..boxed..Box$LT$syn..ty..Type$GT$$GT$$GT$17h9038f0ea47c461fcE', symObjAddr: 0x8CE0, symBinAddr: 0x9A20, symSize: 0x50 }
  - { offsetInCU: 0x2D250, offset: 0x2D250, size: 0x8, addend: 0x0, symName: '__ZN4core3ptr89drop_in_place$LT$core..option..Option$LT$alloc..boxed..Box$LT$syn..expr..Expr$GT$$GT$$GT$17h8b880b4dcee14efdE', symObjAddr: 0x8D30, symBinAddr: 0x9A70, symSize: 0x50 }
  - { offsetInCU: 0x2D400, offset: 0x2D400, size: 0x8, addend: 0x0, symName: '__ZN4core3ptr89drop_in_place$LT$syn..punctuated..Punctuated$LT$syn..pat..Pat$C$syn..token..Comma$GT$$GT$17hc71bcf7acc9c3688E', symObjAddr: 0x8D80, symBinAddr: 0x9AC0, symSize: 0x120 }
  - { offsetInCU: 0x2D89B, offset: 0x2D89B, size: 0x8, addend: 0x0, symName: '__ZN4core3ptr90drop_in_place$LT$core..option..Option$LT$alloc..boxed..Box$LT$syn..data..Field$GT$$GT$$GT$17h3f1488ddf0886c4aE', symObjAddr: 0x8EA0, symBinAddr: 0x9BE0, symSize: 0x200 }
  - { offsetInCU: 0x2E16D, offset: 0x2E16D, size: 0x8, addend: 0x0, symName: '__ZN4core3ptr90drop_in_place$LT$core..option..Option$LT$alloc..boxed..Box$LT$syn..item..FnArg$GT$$GT$$GT$17h561bcf4de28b32f4E', symObjAddr: 0x90A0, symBinAddr: 0x9DE0, symSize: 0x2B0 }
  - { offsetInCU: 0x2ECC5, offset: 0x2ECC5, size: 0x8, addend: 0x0, symName: '__ZN4core3ptr91drop_in_place$LT$syn..punctuated..Punctuated$LT$syn..expr..Expr$C$syn..token..Comma$GT$$GT$17h814ef321810ad62aE', symObjAddr: 0x9350, symBinAddr: 0xA090, symSize: 0x120 }
  - { offsetInCU: 0x2F122, offset: 0x2F122, size: 0x8, addend: 0x0, symName: '__ZN4core3ptr92drop_in_place$LT$core..option..Option$LT$$LP$syn..token..As$C$proc_macro2..Ident$RP$$GT$$GT$17h17a52974a0f91c6dE', symObjAddr: 0x9470, symBinAddr: 0xA1B0, symSize: 0x30 }
  - { offsetInCU: 0x2F2BA, offset: 0x2F2BA, size: 0x8, addend: 0x0, symName: '__ZN4core3ptr92drop_in_place$LT$core..option..Option$LT$alloc..boxed..Box$LT$syn..data..Variant$GT$$GT$$GT$17h8f52c492f6d6c19dE', symObjAddr: 0x94A0, symBinAddr: 0xA1E0, symSize: 0x190 }
  - { offsetInCU: 0x2F906, offset: 0x2F906, size: 0x8, addend: 0x0, symName: '__ZN4core3ptr92drop_in_place$LT$syn..punctuated..Punctuated$LT$syn..item..FnArg$C$syn..token..Comma$GT$$GT$17h651c29599073da37E', symObjAddr: 0x9630, symBinAddr: 0xA370, symSize: 0xE0 }
  - { offsetInCU: 0x2FBD0, offset: 0x2FBD0, size: 0x8, addend: 0x0, symName: '__ZN4core3ptr94drop_in_place$LT$syn..punctuated..Punctuated$LT$syn..data..Variant$C$syn..token..Comma$GT$$GT$17h7bf8c1569ab05e94E', symObjAddr: 0x9710, symBinAddr: 0xA450, symSize: 0xE0 }
  - { offsetInCU: 0x2FEA0, offset: 0x2FEA0, size: 0x8, addend: 0x0, symName: '__ZN4core3ptr94drop_in_place$LT$syn..punctuated..Punctuated$LT$syn..pat..FieldPat$C$syn..token..Comma$GT$$GT$17ha96ff78bd02013b5E', symObjAddr: 0x97F0, symBinAddr: 0xA530, symSize: 0xF0 }
  - { offsetInCU: 0x3016A, offset: 0x3016A, size: 0x8, addend: 0x0, symName: '__ZN4core3ptr94drop_in_place$LT$syn..punctuated..Punctuated$LT$syn..ty..BareFnArg$C$syn..token..Comma$GT$$GT$17h1dcc7eb87eb23183E', symObjAddr: 0x98E0, symBinAddr: 0xA620, symSize: 0xF0 }
  - { offsetInCU: 0x30434, offset: 0x30434, size: 0x8, addend: 0x0, symName: '__ZN4core3ptr96drop_in_place$LT$core..option..Option$LT$alloc..boxed..Box$LT$syn..path..PathSegment$GT$$GT$$GT$17h3708111f11d51c23E', symObjAddr: 0x99D0, symBinAddr: 0xA710, symSize: 0x180 }
  - { offsetInCU: 0x30AC5, offset: 0x30AC5, size: 0x8, addend: 0x0, symName: '__ZN4core3ptr97drop_in_place$LT$syn..punctuated..Punctuated$LT$syn..expr..FieldValue$C$syn..token..Comma$GT$$GT$17hf991bcdfd4fccdccE', symObjAddr: 0x9B50, symBinAddr: 0xA890, symSize: 0xF0 }
  - { offsetInCU: 0x30E0B, offset: 0x30E0B, size: 0x8, addend: 0x0, symName: '__ZN4core3ptr98drop_in_place$LT$syn..punctuated..Punctuated$LT$syn..lifetime..Lifetime$C$syn..token..Plus$GT$$GT$17hac40b9214257457fE', symObjAddr: 0x9C40, symBinAddr: 0xA980, symSize: 0xC0 }
  - { offsetInCU: 0x3205A, offset: 0x3205A, size: 0x8, addend: 0x0, symName: __ZN10proc_macro6bridge6client14HandleCounters3get17h02da01958788119eE, symObjAddr: 0x0, symBinAddr: 0xD40, symSize: 0x10 }
  - { offsetInCU: 0x1E, offset: 0x3F120, size: 0x8, addend: 0x0, symName: '__ZN4core3ptr100drop_in_place$LT$core..option..Option$LT$alloc..boxed..Box$LT$syn..path..GenericArgument$GT$$GT$$GT$17h51106e166286752dE', symObjAddr: 0x0, symBinAddr: 0xFE50, symSize: 0x50 }
  - { offsetInCU: 0x35, offset: 0x3F137, size: 0x8, addend: 0x0, symName: _anon.043f712dd1dd30e9ace0afeccc192666.0.llvm.7987643212958033322, symObjAddr: 0xF110, symBinAddr: 0x26C408, symSize: 0x0 }
  - { offsetInCU: 0x107, offset: 0x3F209, size: 0x8, addend: 0x0, symName: '__ZN58_$LT$alloc..string..String$u20$as$u20$core..fmt..Write$GT$10write_char17hd329c0cb943f081aE.llvm.7987643212958033322', symObjAddr: 0xC020, symBinAddr: 0x1BE20, symSize: 0x130 }
  - { offsetInCU: 0x4B7, offset: 0x3F5B9, size: 0x8, addend: 0x0, symName: '__ZN58_$LT$alloc..string..String$u20$as$u20$core..fmt..Write$GT$9write_str17h1ff5aa96ca91c6d5E.llvm.7987643212958033322', symObjAddr: 0xC150, symBinAddr: 0x1BF50, symSize: 0x60 }
  - { offsetInCU: 0x16E7, offset: 0x407E9, size: 0x8, addend: 0x0, symName: '__ZN70_$LT$alloc..vec..Vec$LT$T$C$A$GT$$u20$as$u20$core..ops..drop..Drop$GT$4drop17h437243600b7600d7E', symObjAddr: 0xCC20, symBinAddr: 0x1C740, symSize: 0xB0 }
  - { offsetInCU: 0x1749, offset: 0x4084B, size: 0x8, addend: 0x0, symName: '__ZN70_$LT$alloc..vec..Vec$LT$T$C$A$GT$$u20$as$u20$core..ops..drop..Drop$GT$4drop17h55b51f356138fdbcE', symObjAddr: 0xCE30, symBinAddr: 0x1C7F0, symSize: 0xB0 }
  - { offsetInCU: 0x18C5, offset: 0x409C7, size: 0x8, addend: 0x0, symName: '__ZN70_$LT$alloc..vec..Vec$LT$T$C$A$GT$$u20$as$u20$core..ops..drop..Drop$GT$4drop17hf52560869d9a18e1E', symObjAddr: 0xD420, symBinAddr: 0x1C8A0, symSize: 0x90 }
  - { offsetInCU: 0x1A38, offset: 0x40B3A, size: 0x8, addend: 0x0, symName: '__ZN5alloc3vec16Vec$LT$T$C$A$GT$6retain28_$u7b$$u7b$closure$u7d$$u7d$17he6a5fc1837a6cbc4E.llvm.7987643212958033322', symObjAddr: 0xC380, symBinAddr: 0x1C120, symSize: 0x160 }
  - { offsetInCU: 0x21EE, offset: 0x412F0, size: 0x8, addend: 0x0, symName: '__ZN67_$LT$alloc..vec..Vec$LT$T$C$A$GT$$u20$as$u20$core..clone..Clone$GT$5clone17h01a16ae7bbdd53faE', symObjAddr: 0xC4E0, symBinAddr: 0x1C280, symSize: 0x390 }
  - { offsetInCU: 0x2DC5, offset: 0x41EC7, size: 0x8, addend: 0x0, symName: '__ZN67_$LT$alloc..vec..Vec$LT$T$C$A$GT$$u20$as$u20$core..clone..Clone$GT$5clone17h2f1bf4dcf32745c3E', symObjAddr: 0xC870, symBinAddr: 0x1C610, symSize: 0x130 }
  - { offsetInCU: 0x5B9E, offset: 0x44CA0, size: 0x8, addend: 0x0, symName: '__ZN4core3ptr100drop_in_place$LT$core..option..Option$LT$alloc..boxed..Box$LT$syn..path..GenericArgument$GT$$GT$$GT$17h51106e166286752dE', symObjAddr: 0x0, symBinAddr: 0xFE50, symSize: 0x50 }
  - { offsetInCU: 0x5EE1, offset: 0x44FE3, size: 0x8, addend: 0x0, symName: '__ZN4core3ptr100drop_in_place$LT$syn..punctuated..Punctuated$LT$syn..path..PathSegment$C$syn..token..PathSep$GT$$GT$17he5148c760ed770b4E.llvm.7987643212958033322', symObjAddr: 0x50, symBinAddr: 0xFEA0, symSize: 0x1A0 }
  - { offsetInCU: 0x65B9, offset: 0x456BB, size: 0x8, addend: 0x0, symName: '__ZN4core3ptr101drop_in_place$LT$core..option..Option$LT$alloc..boxed..Box$LT$syn..generics..GenericParam$GT$$GT$$GT$17h6d0e2e47b2ae3776E', symObjAddr: 0x1F0, symBinAddr: 0x10040, symSize: 0x50 }
  - { offsetInCU: 0x67A7, offset: 0x458A9, size: 0x8, addend: 0x0, symName: '__ZN4core3ptr102drop_in_place$LT$syn..punctuated..Punctuated$LT$syn..path..GenericArgument$C$syn..token..Comma$GT$$GT$17ha28f317a24f35a0dE.llvm.7987643212958033322', symObjAddr: 0x240, symBinAddr: 0x10090, symSize: 0xF0 }
  - { offsetInCU: 0x6A90, offset: 0x45B92, size: 0x8, addend: 0x0, symName: '__ZN4core3ptr103drop_in_place$LT$core..option..Option$LT$alloc..boxed..Box$LT$syn..generics..TypeParamBound$GT$$GT$$GT$17h891dc4df1cdac563E.llvm.7987643212958033322', symObjAddr: 0x330, symBinAddr: 0x10180, symSize: 0x50 }
  - { offsetInCU: 0x6C21, offset: 0x45D23, size: 0x8, addend: 0x0, symName: '__ZN4core3ptr103drop_in_place$LT$core..option..Option$LT$alloc..boxed..Box$LT$syn..generics..WherePredicate$GT$$GT$$GT$17h2f72d1bb6c8fc5ccE', symObjAddr: 0x380, symBinAddr: 0x101D0, symSize: 0x50 }
  - { offsetInCU: 0x6E4D, offset: 0x45F4F, size: 0x8, addend: 0x0, symName: '__ZN4core3ptr103drop_in_place$LT$syn..punctuated..Punctuated$LT$syn..generics..GenericParam$C$syn..token..Comma$GT$$GT$17h931763ff18c68004E.llvm.7987643212958033322', symObjAddr: 0x3D0, symBinAddr: 0x10220, symSize: 0x1A0 }
  - { offsetInCU: 0x741C, offset: 0x4651E, size: 0x8, addend: 0x0, symName: '__ZN4core3ptr104drop_in_place$LT$syn..punctuated..Punctuated$LT$syn..generics..TypeParamBound$C$syn..token..Plus$GT$$GT$17hecfab50c650f1186E.llvm.7987643212958033322', symObjAddr: 0x570, symBinAddr: 0x103C0, symSize: 0x230 }
  - { offsetInCU: 0x7D4D, offset: 0x46E4F, size: 0x8, addend: 0x0, symName: '__ZN4core3ptr105drop_in_place$LT$syn..punctuated..Punctuated$LT$syn..generics..WherePredicate$C$syn..token..Comma$GT$$GT$17h22a5e081d168c6f2E', symObjAddr: 0x7A0, symBinAddr: 0x105F0, symSize: 0x190 }
  - { offsetInCU: 0x841E, offset: 0x47520, size: 0x8, addend: 0x0, symName: '__ZN4core3ptr116drop_in_place$LT$core..option..Option$LT$$LP$syn..token..Else$C$alloc..boxed..Box$LT$syn..expr..Expr$GT$$RP$$GT$$GT$17h2ab5eb8332772c48E', symObjAddr: 0x930, symBinAddr: 0x10780, symSize: 0x50 }
  - { offsetInCU: 0x85DC, offset: 0x476DE, size: 0x8, addend: 0x0, symName: '__ZN4core3ptr126drop_in_place$LT$core..option..Option$LT$$LP$syn..token..And$C$core..option..Option$LT$syn..lifetime..Lifetime$GT$$RP$$GT$$GT$17h1b6665cb25299ee9E', symObjAddr: 0x980, symBinAddr: 0x107D0, symSize: 0x30 }
  - { offsetInCU: 0x886C, offset: 0x4796E, size: 0x8, addend: 0x0, symName: '__ZN4core3ptr33drop_in_place$LT$syn..ty..Abi$GT$17h18c9faf0438725ffE', symObjAddr: 0x9B0, symBinAddr: 0x10800, symSize: 0x60 }
  - { offsetInCU: 0x8888, offset: 0x4798A, size: 0x8, addend: 0x0, symName: '__ZN4core3ptr33drop_in_place$LT$syn..ty..Abi$GT$17h18c9faf0438725ffE', symObjAddr: 0x9B0, symBinAddr: 0x10800, symSize: 0x60 }
  - { offsetInCU: 0x8B82, offset: 0x47C84, size: 0x8, addend: 0x0, symName: '__ZN4core3ptr34drop_in_place$LT$syn..lit..Lit$GT$17h805b01a65cebc907E', symObjAddr: 0xA10, symBinAddr: 0x10860, symSize: 0x110 }
  - { offsetInCU: 0x90BC, offset: 0x481BE, size: 0x8, addend: 0x0, symName: '__ZN4core3ptr34drop_in_place$LT$syn..pat..Pat$GT$17hf9f5753b4321e696E.llvm.7987643212958033322', symObjAddr: 0xB20, symBinAddr: 0x10970, symSize: 0xA80 }
  - { offsetInCU: 0xC6CC, offset: 0x4B7CE, size: 0x8, addend: 0x0, symName: '__ZN4core3ptr34drop_in_place$LT$syn..ty..Type$GT$17h4fee972b04a5d170E.llvm.7987643212958033322', symObjAddr: 0x15A0, symBinAddr: 0x113F0, symSize: 0x450 }
  - { offsetInCU: 0xD4F3, offset: 0x4C5F5, size: 0x8, addend: 0x0, symName: '__ZN4core3ptr35drop_in_place$LT$syn..expr..Arm$GT$17h459407b0e6d3f5ccE.llvm.7987643212958033322', symObjAddr: 0x19F0, symBinAddr: 0x11840, symSize: 0x190 }
  - { offsetInCU: 0xDF90, offset: 0x4D092, size: 0x8, addend: 0x0, symName: '__ZN4core3ptr36drop_in_place$LT$syn..expr..Expr$GT$17hb4ca458a3b04efdfE.llvm.7987643212958033322', symObjAddr: 0x1B80, symBinAddr: 0x119D0, symSize: 0x1D80 }
  - { offsetInCU: 0x17535, offset: 0x56637, size: 0x8, addend: 0x0, symName: '__ZN4core3ptr36drop_in_place$LT$syn..item..Item$GT$17hd5297b74723f39a3E.llvm.7987643212958033322', symObjAddr: 0x3900, symBinAddr: 0x13750, symSize: 0x13E0 }
  - { offsetInCU: 0x1C655, offset: 0x5B757, size: 0x8, addend: 0x0, symName: '__ZN4core3ptr36drop_in_place$LT$syn..mac..Macro$GT$17h8eb0848626ff8376E', symObjAddr: 0x4CE0, symBinAddr: 0x14B30, symSize: 0xE0 }
  - { offsetInCU: 0x1C95F, offset: 0x5BA61, size: 0x8, addend: 0x0, symName: '__ZN4core3ptr36drop_in_place$LT$syn..path..Path$GT$17hcf67d367f5e4ad5cE.llvm.7987643212958033322', symObjAddr: 0x4DC0, symBinAddr: 0x14C10, symSize: 0x150 }
  - { offsetInCU: 0x1CEED, offset: 0x5BFEF, size: 0x8, addend: 0x0, symName: '__ZN4core3ptr36drop_in_place$LT$syn..stmt..Stmt$GT$17h3fd21f6a62b33d8dE.llvm.7987643212958033322', symObjAddr: 0x4F10, symBinAddr: 0x14D60, symSize: 0x2F0 }
  - { offsetInCU: 0x1DA28, offset: 0x5CB2A, size: 0x8, addend: 0x0, symName: '__ZN4core3ptr37drop_in_place$LT$core..fmt..Error$GT$17h3f8a9d7eb832f507E.llvm.7987643212958033322', symObjAddr: 0x5200, symBinAddr: 0x15050, symSize: 0x10 }
  - { offsetInCU: 0x1DA73, offset: 0x5CB75, size: 0x8, addend: 0x0, symName: '__ZN4core3ptr37drop_in_place$LT$syn..data..Field$GT$17hd64912e9c44a4c81E.llvm.7987643212958033322', symObjAddr: 0x5210, symBinAddr: 0x15060, symSize: 0x180 }
  - { offsetInCU: 0x1E004, offset: 0x5D106, size: 0x8, addend: 0x0, symName: '__ZN4core3ptr37drop_in_place$LT$syn..item..FnArg$GT$17h2e2daa5aad390076E', symObjAddr: 0x5390, symBinAddr: 0x151E0, symSize: 0x190 }
  - { offsetInCU: 0x1E830, offset: 0x5D932, size: 0x8, addend: 0x0, symName: '__ZN4core3ptr37drop_in_place$LT$syn..stmt..Block$GT$17h96c863f355d0c08aE', symObjAddr: 0x5520, symBinAddr: 0x15370, symSize: 0xD0 }
  - { offsetInCU: 0x1EAD4, offset: 0x5DBD6, size: 0x8, addend: 0x0, symName: '__ZN4core3ptr38drop_in_place$LT$syn..expr..Member$GT$17h52f2df960ecdf9c2E.llvm.7987643212958033322', symObjAddr: 0x55F0, symBinAddr: 0x15440, symSize: 0x30 }
  - { offsetInCU: 0x1EBD1, offset: 0x5DCD3, size: 0x8, addend: 0x0, symName: '__ZN4core3ptr38drop_in_place$LT$syn..pat..PatType$GT$17hef68cbf04fce3dc7E.llvm.7987643212958033322', symObjAddr: 0x5620, symBinAddr: 0x15470, symSize: 0x140 }
  - { offsetInCU: 0x1F119, offset: 0x5E21B, size: 0x8, addend: 0x0, symName: '__ZN4core3ptr39drop_in_place$LT$proc_macro2..Ident$GT$17h0106d85ba76fad39E.llvm.7987643212958033322', symObjAddr: 0x5760, symBinAddr: 0x155B0, symSize: 0x30 }
  - { offsetInCU: 0x1F254, offset: 0x5E356, size: 0x8, addend: 0x0, symName: '__ZN4core3ptr39drop_in_place$LT$syn..data..Variant$GT$17h025ee416fe128109E.llvm.7987643212958033322', symObjAddr: 0x5790, symBinAddr: 0x155E0, symSize: 0x2F0 }
  - { offsetInCU: 0x1FE2E, offset: 0x5EF30, size: 0x8, addend: 0x0, symName: '__ZN4core3ptr39drop_in_place$LT$syn..item..UseTree$GT$17ha53cfb0acdd25fe6E.llvm.7987643212958033322', symObjAddr: 0x5A80, symBinAddr: 0x158D0, symSize: 0x1D0 }
  - { offsetInCU: 0x2054D, offset: 0x5F64F, size: 0x8, addend: 0x0, symName: '__ZN4core3ptr40drop_in_place$LT$syn..item..ImplItem$GT$17h6882ec244dcf6a7fE', symObjAddr: 0x5C50, symBinAddr: 0x15AA0, symSize: 0x1F0 }
  - { offsetInCU: 0x20B06, offset: 0x5FC08, size: 0x8, addend: 0x0, symName: '__ZN4core3ptr40drop_in_place$LT$syn..item..Receiver$GT$17hbcd40a1a1d3c12bbE.llvm.7987643212958033322', symObjAddr: 0x5E40, symBinAddr: 0x15C90, symSize: 0x130 }
  - { offsetInCU: 0x210A5, offset: 0x601A7, size: 0x8, addend: 0x0, symName: '__ZN4core3ptr40drop_in_place$LT$syn..item..Variadic$GT$17hed5c1479fa290205E', symObjAddr: 0x5F70, symBinAddr: 0x15DC0, symSize: 0x120 }
  - { offsetInCU: 0x214E8, offset: 0x605EA, size: 0x8, addend: 0x0, symName: '__ZN4core3ptr40drop_in_place$LT$syn..ty..ReturnType$GT$17had535e8dcd5571b8E.llvm.7987643212958033322', symObjAddr: 0x6090, symBinAddr: 0x15EE0, symSize: 0x50 }
  - { offsetInCU: 0x216B7, offset: 0x607B9, size: 0x8, addend: 0x0, symName: '__ZN4core3ptr41drop_in_place$LT$syn..attr..Attribute$GT$17h97103ed32f1f5156E.llvm.7987643212958033322', symObjAddr: 0x60E0, symBinAddr: 0x15F30, symSize: 0x160 }
  - { offsetInCU: 0x21B9D, offset: 0x60C9F, size: 0x8, addend: 0x0, symName: '__ZN4core3ptr41drop_in_place$LT$syn..item..Signature$GT$17h65708f2a3d58e68bE', symObjAddr: 0x6240, symBinAddr: 0x16090, symSize: 0x280 }
  - { offsetInCU: 0x2268C, offset: 0x6178E, size: 0x8, addend: 0x0, symName: '__ZN4core3ptr41drop_in_place$LT$syn..item..TraitItem$GT$17hcb6fe16220ab78e6E', symObjAddr: 0x64C0, symBinAddr: 0x16310, symSize: 0x340 }
  - { offsetInCU: 0x2312E, offset: 0x62230, size: 0x8, addend: 0x0, symName: '__ZN4core3ptr42drop_in_place$LT$alloc..string..String$GT$17hb4d2a46681410ce0E.llvm.7987643212958033322', symObjAddr: 0x6800, symBinAddr: 0x16650, symSize: 0x20 }
  - { offsetInCU: 0x23237, offset: 0x62339, size: 0x8, addend: 0x0, symName: '__ZN4core3ptr42drop_in_place$LT$syn..item..ImplItemFn$GT$17h1e800588fe39f53bE', symObjAddr: 0x6820, symBinAddr: 0x16670, symSize: 0x230 }
  - { offsetInCU: 0x2395E, offset: 0x62A60, size: 0x8, addend: 0x0, symName: '__ZN4core3ptr42drop_in_place$LT$syn..path..Constraint$GT$17h87e57d731f2d5ad7E', symObjAddr: 0x6A50, symBinAddr: 0x168A0, symSize: 0x160 }
  - { offsetInCU: 0x23FF4, offset: 0x630F6, size: 0x8, addend: 0x0, symName: '__ZN4core3ptr43drop_in_place$LT$proc_macro2..TokenTree$GT$17h150790951fc6462dE.llvm.7987643212958033322', symObjAddr: 0x6BB0, symBinAddr: 0x16A00, symSize: 0xB0 }
  - { offsetInCU: 0x24308, offset: 0x6340A, size: 0x8, addend: 0x0, symName: '__ZN4core3ptr43drop_in_place$LT$syn..data..FieldsNamed$GT$17h09b87030fa29ffc4E', symObjAddr: 0x6C60, symBinAddr: 0x16AB0, symSize: 0x120 }
  - { offsetInCU: 0x24790, offset: 0x63892, size: 0x8, addend: 0x0, symName: '__ZN4core3ptr43drop_in_place$LT$syn..item..ForeignItem$GT$17h47e38f50da7c221dE', symObjAddr: 0x6D80, symBinAddr: 0x16BD0, symSize: 0x2A0 }
  - { offsetInCU: 0x25093, offset: 0x64195, size: 0x8, addend: 0x0, symName: '__ZN4core3ptr43drop_in_place$LT$syn..path..PathSegment$GT$17haa856ba45c3ae91fE.llvm.7987643212958033322', symObjAddr: 0x7020, symBinAddr: 0x16E70, symSize: 0x170 }
  - { offsetInCU: 0x25637, offset: 0x64739, size: 0x8, addend: 0x0, symName: '__ZN4core3ptr44drop_in_place$LT$syn..generics..Generics$GT$17hfe81dbdc7f92e23dE', symObjAddr: 0x7190, symBinAddr: 0x16FE0, symSize: 0x220 }
  - { offsetInCU: 0x25EB4, offset: 0x64FB6, size: 0x8, addend: 0x0, symName: '__ZN4core3ptr44drop_in_place$LT$syn..item..ImplItemType$GT$17h3df3aa4d8fe12356E', symObjAddr: 0x73B0, symBinAddr: 0x17200, symSize: 0x1D0 }
  - { offsetInCU: 0x26468, offset: 0x6556A, size: 0x8, addend: 0x0, symName: '__ZN4core3ptr44drop_in_place$LT$syn..lifetime..Lifetime$GT$17h8005dc0ad2d6b979E.llvm.7987643212958033322', symObjAddr: 0x7580, symBinAddr: 0x173D0, symSize: 0x30 }
  - { offsetInCU: 0x265C2, offset: 0x656C4, size: 0x8, addend: 0x0, symName: '__ZN4core3ptr45drop_in_place$LT$proc_macro2..TokenStream$GT$17haa62b8a7735fd796E.llvm.7987643212958033322', symObjAddr: 0x75B0, symBinAddr: 0x17400, symSize: 0x70 }
  - { offsetInCU: 0x26729, offset: 0x6582B, size: 0x8, addend: 0x0, symName: '__ZN4core3ptr45drop_in_place$LT$syn..generics..TypeParam$GT$17h2becfc99543f360cE.llvm.7987643212958033322', symObjAddr: 0x7620, symBinAddr: 0x17470, symSize: 0x230 }
  - { offsetInCU: 0x26F3A, offset: 0x6603C, size: 0x8, addend: 0x0, symName: '__ZN4core3ptr45drop_in_place$LT$syn..item..ImplItemConst$GT$17hdc237c358b7c8deeE', symObjAddr: 0x7850, symBinAddr: 0x176A0, symSize: 0x200 }
  - { offsetInCU: 0x2752C, offset: 0x6662E, size: 0x8, addend: 0x0, symName: '__ZN4core3ptr45drop_in_place$LT$syn..item..TraitItemType$GT$17heb4b547346ae56f5E', symObjAddr: 0x7A50, symBinAddr: 0x178A0, symSize: 0x290 }
  - { offsetInCU: 0x27E09, offset: 0x66F0B, size: 0x8, addend: 0x0, symName: '__ZN4core3ptr46drop_in_place$LT$syn..generics..ConstParam$GT$17h8a2837eeb880b144E.llvm.7987643212958033322', symObjAddr: 0x7CE0, symBinAddr: 0x17B30, symSize: 0x150 }
  - { offsetInCU: 0x281D6, offset: 0x672D8, size: 0x8, addend: 0x0, symName: '__ZN4core3ptr46drop_in_place$LT$syn..item..TraitItemConst$GT$17h691a40d9d0477d46E', symObjAddr: 0x7E30, symBinAddr: 0x17C80, symSize: 0x1A0 }
  - { offsetInCU: 0x28656, offset: 0x67758, size: 0x8, addend: 0x0, symName: '__ZN4core3ptr47drop_in_place$LT$syn..generics..WhereClause$GT$17h85f8f8622a06016aE', symObjAddr: 0x7FD0, symBinAddr: 0x17E20, symSize: 0x120 }
  - { offsetInCU: 0x28AA0, offset: 0x67BA2, size: 0x8, addend: 0x0, symName: '__ZN4core3ptr47drop_in_place$LT$syn..item..ForeignItemType$GT$17h2780976863008121E', symObjAddr: 0x80F0, symBinAddr: 0x17F40, symSize: 0x1A0 }
  - { offsetInCU: 0x290B1, offset: 0x681B3, size: 0x8, addend: 0x0, symName: '__ZN4core3ptr47drop_in_place$LT$syn..path..GenericArgument$GT$17he2e0ae8ef4913204E', symObjAddr: 0x8290, symBinAddr: 0x180E0, symSize: 0x1C0 }
  - { offsetInCU: 0x29564, offset: 0x68666, size: 0x8, addend: 0x0, symName: '__ZN4core3ptr48drop_in_place$LT$syn..generics..GenericParam$GT$17h5f0fa589a476c5aaE', symObjAddr: 0x8450, symBinAddr: 0x182A0, symSize: 0xF0 }
  - { offsetInCU: 0x29913, offset: 0x68A15, size: 0x8, addend: 0x0, symName: '__ZN4core3ptr49drop_in_place$LT$syn..generics..LifetimeParam$GT$17h3c2aa3150e21384eE.llvm.7987643212958033322', symObjAddr: 0x8540, symBinAddr: 0x18390, symSize: 0xF0 }
  - { offsetInCU: 0x29CBA, offset: 0x68DBC, size: 0x8, addend: 0x0, symName: '__ZN4core3ptr49drop_in_place$LT$syn..generics..PredicateType$GT$17ha6b2cb52e0603153E.llvm.7987643212958033322', symObjAddr: 0x8630, symBinAddr: 0x18480, symSize: 0x170 }
  - { offsetInCU: 0x2A136, offset: 0x69238, size: 0x8, addend: 0x0, symName: '__ZN4core3ptr49drop_in_place$LT$syn..item..ForeignItemStatic$GT$17h5f3dfdcd8dfdb57bE', symObjAddr: 0x87A0, symBinAddr: 0x185F0, symSize: 0x180 }
  - { offsetInCU: 0x2A7DB, offset: 0x698DD, size: 0x8, addend: 0x0, symName: '__ZN4core3ptr50drop_in_place$LT$$u5b$syn..item..ImplItem$u5d$$GT$17ha199a397ae8f0952E.llvm.7987643212958033322', symObjAddr: 0x8920, symBinAddr: 0x18770, symSize: 0x230 }
  - { offsetInCU: 0x2AACF, offset: 0x69BD1, size: 0x8, addend: 0x0, symName: '__ZN4core3ptr50drop_in_place$LT$syn..generics..TypeParamBound$GT$17h3eb1e2b59f213f9dE.llvm.7987643212958033322', symObjAddr: 0x8B50, symBinAddr: 0x189A0, symSize: 0xA0 }
  - { offsetInCU: 0x2AC55, offset: 0x69D57, size: 0x8, addend: 0x0, symName: '__ZN4core3ptr50drop_in_place$LT$syn..generics..WherePredicate$GT$17hf4447006a5c51d8aE', symObjAddr: 0x8BF0, symBinAddr: 0x18A40, symSize: 0xA0 }
  - { offsetInCU: 0x2AE02, offset: 0x69F04, size: 0x8, addend: 0x0, symName: '__ZN4core3ptr51drop_in_place$LT$$u5b$syn..attr..Attribute$u5d$$GT$17hb5ce5bd35380e799E.llvm.7987643212958033322', symObjAddr: 0x8C90, symBinAddr: 0x18AE0, symSize: 0x110 }
  - { offsetInCU: 0x2AEA0, offset: 0x69FA2, size: 0x8, addend: 0x0, symName: '__ZN4core3ptr51drop_in_place$LT$$u5b$syn..item..TraitItem$u5d$$GT$17h6cb33fd774de8993E.llvm.7987643212958033322', symObjAddr: 0x8DA0, symBinAddr: 0x18BF0, symSize: 0x3F0 }
  - { offsetInCU: 0x2B690, offset: 0x6A792, size: 0x8, addend: 0x0, symName: '__ZN4core3ptr52drop_in_place$LT$syn..restriction..VisRestricted$GT$17hfcc5bfa3316e23baE', symObjAddr: 0x9190, symBinAddr: 0x18FE0, symSize: 0x50 }
  - { offsetInCU: 0x2B829, offset: 0x6A92B, size: 0x8, addend: 0x0, symName: '__ZN4core3ptr53drop_in_place$LT$$u5b$syn..item..ForeignItem$u5d$$GT$17h5308529ec48722e1E.llvm.7987643212958033322', symObjAddr: 0x91E0, symBinAddr: 0x19030, symSize: 0x360 }
  - { offsetInCU: 0x2BF3F, offset: 0x6B041, size: 0x8, addend: 0x0, symName: '__ZN4core3ptr58drop_in_place$LT$alloc..vec..Vec$LT$syn..expr..Arm$GT$$GT$17h998ff97bf63bed17E', symObjAddr: 0x9540, symBinAddr: 0x19390, symSize: 0xD0 }
  - { offsetInCU: 0x2C1CC, offset: 0x6B2CE, size: 0x8, addend: 0x0, symName: '__ZN4core3ptr59drop_in_place$LT$alloc..boxed..Box$LT$syn..pat..Pat$GT$$GT$17h9d798a313e524b6bE.llvm.7987643212958033322', symObjAddr: 0x9610, symBinAddr: 0x19460, symSize: 0x50 }
  - { offsetInCU: 0x2C327, offset: 0x6B429, size: 0x8, addend: 0x0, symName: '__ZN4core3ptr59drop_in_place$LT$alloc..boxed..Box$LT$syn..ty..Type$GT$$GT$17h4ea9959036e2a656E.llvm.7987643212958033322', symObjAddr: 0x9660, symBinAddr: 0x194B0, symSize: 0x50 }
  - { offsetInCU: 0x2C482, offset: 0x6B584, size: 0x8, addend: 0x0, symName: '__ZN4core3ptr59drop_in_place$LT$alloc..vec..Vec$LT$syn..item..Item$GT$$GT$17h34b6cd58fac23870E', symObjAddr: 0x96B0, symBinAddr: 0x19500, symSize: 0xD0 }
  - { offsetInCU: 0x2C70F, offset: 0x6B811, size: 0x8, addend: 0x0, symName: '__ZN4core3ptr61drop_in_place$LT$alloc..boxed..Box$LT$syn..expr..Expr$GT$$GT$17h15acb3b4defe8aa9E', symObjAddr: 0x9780, symBinAddr: 0x195D0, symSize: 0x50 }
  - { offsetInCU: 0x2C86A, offset: 0x6B96C, size: 0x8, addend: 0x0, symName: '__ZN4core3ptr61drop_in_place$LT$alloc..boxed..Box$LT$syn..path..Path$GT$$GT$17hd6bb3e7be4d26395E', symObjAddr: 0x97D0, symBinAddr: 0x19620, symSize: 0xF0 }
  - { offsetInCU: 0x2CD50, offset: 0x6BE52, size: 0x8, addend: 0x0, symName: '__ZN4core3ptr61drop_in_place$LT$syn..path..ParenthesizedGenericArguments$GT$17h52030a1fb662e6baE.llvm.7987643212958033322', symObjAddr: 0x98C0, symBinAddr: 0x19710, symSize: 0x170 }
  - { offsetInCU: 0x2D317, offset: 0x6C419, size: 0x8, addend: 0x0, symName: '__ZN4core3ptr62drop_in_place$LT$alloc..boxed..Box$LT$syn..data..Field$GT$$GT$17h3ee1a1c8231dbb33E', symObjAddr: 0x9A30, symBinAddr: 0x19880, symSize: 0x50 }
  - { offsetInCU: 0x2D491, offset: 0x6C593, size: 0x8, addend: 0x0, symName: '__ZN4core3ptr62drop_in_place$LT$alloc..boxed..Box$LT$syn..item..FnArg$GT$$GT$17hbc7760db81fcd594E', symObjAddr: 0x9A80, symBinAddr: 0x198D0, symSize: 0x60 }
  - { offsetInCU: 0x2D609, offset: 0x6C70B, size: 0x8, addend: 0x0, symName: '__ZN4core3ptr62drop_in_place$LT$alloc..boxed..Box$LT$syn..stmt..Block$GT$$GT$17he57d8523802a21c7E', symObjAddr: 0x9AE0, symBinAddr: 0x19930, symSize: 0xE0 }
  - { offsetInCU: 0x2D9EA, offset: 0x6CAEC, size: 0x8, addend: 0x0, symName: '__ZN4core3ptr62drop_in_place$LT$syn..path..AngleBracketedGenericArguments$GT$17h94aaaaece8c126f1E.llvm.7987643212958033322', symObjAddr: 0x9BC0, symBinAddr: 0x19A10, symSize: 0x120 }
  - { offsetInCU: 0x2DE34, offset: 0x6CF36, size: 0x8, addend: 0x0, symName: '__ZN4core3ptr63drop_in_place$LT$alloc..vec..Vec$LT$syn..item..ImplItem$GT$$GT$17h7b503339c99b5373E', symObjAddr: 0x9CE0, symBinAddr: 0x19B30, symSize: 0x80 }
  - { offsetInCU: 0x2E0B2, offset: 0x6D1B4, size: 0x8, addend: 0x0, symName: '__ZN4core3ptr64drop_in_place$LT$alloc..boxed..Box$LT$syn..data..Variant$GT$$GT$17h500f62644039c508E', symObjAddr: 0x9D60, symBinAddr: 0x19BB0, symSize: 0x50 }
  - { offsetInCU: 0x2E20D, offset: 0x6D30F, size: 0x8, addend: 0x0, symName: '__ZN4core3ptr64drop_in_place$LT$alloc..boxed..Box$LT$syn..item..UseTree$GT$$GT$17h7f866ab315dd1796E', symObjAddr: 0x9DB0, symBinAddr: 0x19C00, symSize: 0x50 }
  - { offsetInCU: 0x2E387, offset: 0x6D489, size: 0x8, addend: 0x0, symName: '__ZN4core3ptr64drop_in_place$LT$alloc..boxed..Box$LT$syn..pat..FieldPat$GT$$GT$17h393127a278384096E', symObjAddr: 0x9E00, symBinAddr: 0x19C50, symSize: 0x100 }
  - { offsetInCU: 0x2E9E5, offset: 0x6DAE7, size: 0x8, addend: 0x0, symName: '__ZN4core3ptr64drop_in_place$LT$alloc..boxed..Box$LT$syn..ty..BareFnArg$GT$$GT$17h0dac7733edb5daeeE', symObjAddr: 0x9F00, symBinAddr: 0x19D50, symSize: 0xF0 }
  - { offsetInCU: 0x2EEFB, offset: 0x6DFFD, size: 0x8, addend: 0x0, symName: '__ZN4core3ptr64drop_in_place$LT$alloc..vec..Vec$LT$syn..attr..Attribute$GT$$GT$17h22fc1e35194fe2a7E.llvm.7987643212958033322', symObjAddr: 0x9FF0, symBinAddr: 0x19E40, symSize: 0x180 }
  - { offsetInCU: 0x2F24B, offset: 0x6E34D, size: 0x8, addend: 0x0, symName: '__ZN4core3ptr64drop_in_place$LT$alloc..vec..Vec$LT$syn..item..TraitItem$GT$$GT$17h7165bda09c99db42E', symObjAddr: 0xA170, symBinAddr: 0x19FC0, symSize: 0x80 }
  - { offsetInCU: 0x2F4C9, offset: 0x6E5CB, size: 0x8, addend: 0x0, symName: '__ZN4core3ptr65drop_in_place$LT$$LP$syn..item..FnArg$C$syn..token..Comma$RP$$GT$17hdf1838f817476e87E.llvm.7987643212958033322', symObjAddr: 0xA1F0, symBinAddr: 0x1A040, symSize: 0x20 }
  - { offsetInCU: 0x2F562, offset: 0x6E664, size: 0x8, addend: 0x0, symName: '__ZN4core3ptr65drop_in_place$LT$alloc..vec..Vec$LT$proc_macro..TokenTree$GT$$GT$17h47c1156f0b2e6850E.llvm.7987643212958033322', symObjAddr: 0xA210, symBinAddr: 0x1A060, symSize: 0x120 }
  - { offsetInCU: 0x2F8D4, offset: 0x6E9D6, size: 0x8, addend: 0x0, symName: '__ZN4core3ptr65drop_in_place$LT$core..option..Option$LT$syn..expr..Label$GT$$GT$17ha72e7c19f3b13f21E', symObjAddr: 0xA330, symBinAddr: 0x1A180, symSize: 0x30 }
  - { offsetInCU: 0x2FA0F, offset: 0x6EB11, size: 0x8, addend: 0x0, symName: '__ZN4core3ptr65drop_in_place$LT$core..option..Option$LT$syn..stmt..Block$GT$$GT$17h3880b0f19ab47a51E', symObjAddr: 0xA360, symBinAddr: 0x1A1B0, symSize: 0xE0 }
  - { offsetInCU: 0x2FC74, offset: 0x6ED76, size: 0x8, addend: 0x0, symName: '__ZN4core3ptr66drop_in_place$LT$alloc..vec..Vec$LT$syn..item..ForeignItem$GT$$GT$17h74e9a28ee517915cE', symObjAddr: 0xA440, symBinAddr: 0x1A290, symSize: 0x80 }
  - { offsetInCU: 0x2FEF2, offset: 0x6EFF4, size: 0x8, addend: 0x0, symName: '__ZN4core3ptr67drop_in_place$LT$$LP$syn..pat..FieldPat$C$syn..token..Comma$RP$$GT$17h03fba042d59aa5f0E.llvm.7987643212958033322', symObjAddr: 0xA4C0, symBinAddr: 0x1A310, symSize: 0xE0 }
  - { offsetInCU: 0x30419, offset: 0x6F51B, size: 0x8, addend: 0x0, symName: '__ZN4core3ptr67drop_in_place$LT$$LP$syn..ty..BareFnArg$C$syn..token..Comma$RP$$GT$17h7b34e0488c695945E.llvm.7987643212958033322', symObjAddr: 0xA5A0, symBinAddr: 0x1A3F0, symSize: 0xC0 }
  - { offsetInCU: 0x30828, offset: 0x6F92A, size: 0x8, addend: 0x0, symName: '__ZN4core3ptr67drop_in_place$LT$alloc..boxed..Box$LT$syn..expr..FieldValue$GT$$GT$17h83a3811a70c0a730E', symObjAddr: 0xA660, symBinAddr: 0x1A4B0, symSize: 0xF0 }
  - { offsetInCU: 0x30D1E, offset: 0x6FE20, size: 0x8, addend: 0x0, symName: '__ZN4core3ptr68drop_in_place$LT$alloc..boxed..Box$LT$syn..path..PathSegment$GT$$GT$17hebe5dd482b165a08E', symObjAddr: 0xA750, symBinAddr: 0x1A5A0, symSize: 0xD0 }
  - { offsetInCU: 0x3111C, offset: 0x7021E, size: 0x8, addend: 0x0, symName: '__ZN4core3ptr69drop_in_place$LT$core..option..Option$LT$syn..stmt..LocalInit$GT$$GT$17h1ae08666f9731082E', symObjAddr: 0xA820, symBinAddr: 0x1A670, symSize: 0xC0 }
  - { offsetInCU: 0x31444, offset: 0x70546, size: 0x8, addend: 0x0, symName: '__ZN4core3ptr70drop_in_place$LT$$LP$syn..expr..FieldValue$C$syn..token..Comma$RP$$GT$17h1cb9b643f9b2e2edE.llvm.7987643212958033322', symObjAddr: 0xA8E0, symBinAddr: 0x1A730, symSize: 0xC0 }
  - { offsetInCU: 0x31814, offset: 0x70916, size: 0x8, addend: 0x0, symName: '__ZN4core3ptr70drop_in_place$LT$core..option..Option$LT$syn..ty..BareVariadic$GT$$GT$17h185d177be51abc65E', symObjAddr: 0xA9A0, symBinAddr: 0x1A7F0, symSize: 0xB0 }
  - { offsetInCU: 0x31C01, offset: 0x70D03, size: 0x8, addend: 0x0, symName: '__ZN4core3ptr72drop_in_place$LT$alloc..boxed..Box$LT$syn..path..GenericArgument$GT$$GT$17h0cad48c7aaef57c8E.llvm.7987643212958033322', symObjAddr: 0xAA50, symBinAddr: 0x1A8A0, symSize: 0x180 }
  - { offsetInCU: 0x320D6, offset: 0x711D8, size: 0x8, addend: 0x0, symName: '__ZN4core3ptr73drop_in_place$LT$$LP$syn..path..PathSegment$C$syn..token..PathSep$RP$$GT$17h4f6eae6446f2149dE.llvm.7987643212958033322', symObjAddr: 0xABD0, symBinAddr: 0x1AA20, symSize: 0xC0 }
  - { offsetInCU: 0x3239C, offset: 0x7149E, size: 0x8, addend: 0x0, symName: '__ZN4core3ptr73drop_in_place$LT$alloc..boxed..Box$LT$syn..generics..GenericParam$GT$$GT$17h25664c445d03fe6fE', symObjAddr: 0xAC90, symBinAddr: 0x1AAE0, symSize: 0x80 }
  - { offsetInCU: 0x32514, offset: 0x71616, size: 0x8, addend: 0x0, symName: '__ZN4core3ptr75drop_in_place$LT$$LP$syn..path..GenericArgument$C$syn..token..Comma$RP$$GT$17hb1bd5aeed4f5c5d2E.llvm.7987643212958033322', symObjAddr: 0xAD10, symBinAddr: 0x1AB60, symSize: 0x180 }
  - { offsetInCU: 0x3289C, offset: 0x7199E, size: 0x8, addend: 0x0, symName: '__ZN4core3ptr75drop_in_place$LT$alloc..boxed..Box$LT$syn..generics..TypeParamBound$GT$$GT$17h5af3b29884f49d07E', symObjAddr: 0xAE90, symBinAddr: 0x1ACE0, symSize: 0x160 }
  - { offsetInCU: 0x32E39, offset: 0x71F3B, size: 0x8, addend: 0x0, symName: '__ZN4core3ptr75drop_in_place$LT$alloc..boxed..Box$LT$syn..generics..WherePredicate$GT$$GT$17h3e786aa16c623fd0E', symObjAddr: 0xAFF0, symBinAddr: 0x1AE40, symSize: 0x80 }
  - { offsetInCU: 0x330CF, offset: 0x721D1, size: 0x8, addend: 0x0, symName: '__ZN4core3ptr76drop_in_place$LT$$LP$syn..generics..GenericParam$C$syn..token..Comma$RP$$GT$17hd1deba9887c6c274E.llvm.7987643212958033322', symObjAddr: 0xB070, symBinAddr: 0x1AEC0, symSize: 0x40 }
  - { offsetInCU: 0x3310B, offset: 0x7220D, size: 0x8, addend: 0x0, symName: '__ZN4core3ptr77drop_in_place$LT$$LP$syn..generics..TypeParamBound$C$syn..token..Plus$RP$$GT$17hd0edcb19498f06fcE.llvm.7987643212958033322', symObjAddr: 0xB0B0, symBinAddr: 0x1AF00, symSize: 0x160 }
  - { offsetInCU: 0x33576, offset: 0x72678, size: 0x8, addend: 0x0, symName: '__ZN4core3ptr78drop_in_place$LT$$LP$syn..generics..WherePredicate$C$syn..token..Comma$RP$$GT$17h794a14827263b464E.llvm.7987643212958033322', symObjAddr: 0xB210, symBinAddr: 0x1B060, symSize: 0x50 }
  - { offsetInCU: 0x336D0, offset: 0x727D2, size: 0x8, addend: 0x0, symName: '__ZN4core3ptr86drop_in_place$LT$$LP$syn..token..If$C$alloc..boxed..Box$LT$syn..expr..Expr$GT$$RP$$GT$17hf019d4813b70aaf6E', symObjAddr: 0xB260, symBinAddr: 0x1B0B0, symSize: 0x50 }
  - { offsetInCU: 0x338E5, offset: 0x729E7, size: 0x8, addend: 0x0, symName: '__ZN4core3ptr86drop_in_place$LT$syn..punctuated..Punctuated$LT$syn..pat..Pat$C$syn..token..Or$GT$$GT$17h713dfcc15b4623d1E', symObjAddr: 0xB2B0, symBinAddr: 0x1B100, symSize: 0x120 }
  - { offsetInCU: 0x33D42, offset: 0x72E44, size: 0x8, addend: 0x0, symName: '__ZN4core3ptr87drop_in_place$LT$$LP$alloc..boxed..Box$LT$syn..pat..Pat$GT$$C$syn..token..Colon$RP$$GT$17hbdb1271fea9cbb81E', symObjAddr: 0xB3D0, symBinAddr: 0x1B220, symSize: 0x50 }
  - { offsetInCU: 0x33EBC, offset: 0x72FBE, size: 0x8, addend: 0x0, symName: '__ZN4core3ptr87drop_in_place$LT$core..option..Option$LT$alloc..boxed..Box$LT$syn..ty..Type$GT$$GT$$GT$17h9038f0ea47c461fcE', symObjAddr: 0xB420, symBinAddr: 0x1B270, symSize: 0x50 }
  - { offsetInCU: 0x3402E, offset: 0x73130, size: 0x8, addend: 0x0, symName: '__ZN4core3ptr89drop_in_place$LT$core..option..Option$LT$alloc..boxed..Box$LT$syn..expr..Expr$GT$$GT$$GT$17h8b880b4dcee14efdE', symObjAddr: 0xB470, symBinAddr: 0x1B2C0, symSize: 0x50 }
  - { offsetInCU: 0x341A0, offset: 0x732A2, size: 0x8, addend: 0x0, symName: '__ZN4core3ptr89drop_in_place$LT$syn..punctuated..Punctuated$LT$syn..ty..Type$C$syn..token..Comma$GT$$GT$17he2bbf8d024695cdcE.llvm.7987643212958033322', symObjAddr: 0xB4C0, symBinAddr: 0x1B310, symSize: 0x120 }
  - { offsetInCU: 0x345EA, offset: 0x736EC, size: 0x8, addend: 0x0, symName: '__ZN4core3ptr90drop_in_place$LT$core..option..Option$LT$alloc..boxed..Box$LT$syn..data..Field$GT$$GT$$GT$17h3f1488ddf0886c4aE', symObjAddr: 0xB5E0, symBinAddr: 0x1B430, symSize: 0x50 }
  - { offsetInCU: 0x3475C, offset: 0x7385E, size: 0x8, addend: 0x0, symName: '__ZN4core3ptr90drop_in_place$LT$core..option..Option$LT$alloc..boxed..Box$LT$syn..item..FnArg$GT$$GT$$GT$17h561bcf4de28b32f4E', symObjAddr: 0xB630, symBinAddr: 0x1B480, symSize: 0x50 }
  - { offsetInCU: 0x3494A, offset: 0x73A4C, size: 0x8, addend: 0x0, symName: '__ZN4core3ptr91drop_in_place$LT$syn..punctuated..Punctuated$LT$syn..expr..Expr$C$syn..token..Comma$GT$$GT$17h814ef321810ad62aE', symObjAddr: 0xB680, symBinAddr: 0x1B4D0, symSize: 0x120 }
  - { offsetInCU: 0x34DA7, offset: 0x73EA9, size: 0x8, addend: 0x0, symName: '__ZN4core3ptr92drop_in_place$LT$core..option..Option$LT$$LP$syn..token..As$C$proc_macro2..Ident$RP$$GT$$GT$17h17a52974a0f91c6dE', symObjAddr: 0xB7A0, symBinAddr: 0x1B5F0, symSize: 0x30 }
  - { offsetInCU: 0x34EC3, offset: 0x73FC5, size: 0x8, addend: 0x0, symName: '__ZN4core3ptr92drop_in_place$LT$syn..punctuated..Punctuated$LT$syn..data..Field$C$syn..token..Comma$GT$$GT$17h2ba7ac532b784255E', symObjAddr: 0xB7D0, symBinAddr: 0x1B620, symSize: 0x120 }
  - { offsetInCU: 0x3530D, offset: 0x7440F, size: 0x8, addend: 0x0, symName: '__ZN4core3ptr92drop_in_place$LT$syn..punctuated..Punctuated$LT$syn..item..FnArg$C$syn..token..Comma$GT$$GT$17h651c29599073da37E', symObjAddr: 0xB8F0, symBinAddr: 0x1B740, symSize: 0x150 }
  - { offsetInCU: 0x35822, offset: 0x74924, size: 0x8, addend: 0x0, symName: '__ZN4core3ptr94drop_in_place$LT$syn..punctuated..Punctuated$LT$syn..data..Variant$C$syn..token..Comma$GT$$GT$17h7bf8c1569ab05e94E', symObjAddr: 0xBA40, symBinAddr: 0x1B890, symSize: 0x120 }
  - { offsetInCU: 0x35CFB, offset: 0x74DFD, size: 0x8, addend: 0x0, symName: '__ZN4core3ptr94drop_in_place$LT$syn..punctuated..Punctuated$LT$syn..pat..FieldPat$C$syn..token..Comma$GT$$GT$17ha96ff78bd02013b5E', symObjAddr: 0xBB60, symBinAddr: 0x1B9B0, symSize: 0xF0 }
  - { offsetInCU: 0x36054, offset: 0x75156, size: 0x8, addend: 0x0, symName: '__ZN4core3ptr94drop_in_place$LT$syn..punctuated..Punctuated$LT$syn..ty..BareFnArg$C$syn..token..Comma$GT$$GT$17h1dcc7eb87eb23183E', symObjAddr: 0xBC50, symBinAddr: 0x1BAA0, symSize: 0xF0 }
  - { offsetInCU: 0x36331, offset: 0x75433, size: 0x8, addend: 0x0, symName: '__ZN4core3ptr95drop_in_place$LT$core..option..Option$LT$$LP$proc_macro2..Ident$C$syn..token..Colon$RP$$GT$$GT$17hd7507bf17b4e85c0E.llvm.7987643212958033322', symObjAddr: 0xBD40, symBinAddr: 0x1BB90, symSize: 0x30 }
  - { offsetInCU: 0x3644D, offset: 0x7554F, size: 0x8, addend: 0x0, symName: '__ZN4core3ptr96drop_in_place$LT$core..option..Option$LT$alloc..boxed..Box$LT$syn..path..PathSegment$GT$$GT$$GT$17h3708111f11d51c23E.llvm.7987643212958033322', symObjAddr: 0xBD70, symBinAddr: 0x1BBC0, symSize: 0x90 }
  - { offsetInCU: 0x3676A, offset: 0x7586C, size: 0x8, addend: 0x0, symName: '__ZN4core3ptr97drop_in_place$LT$syn..punctuated..Punctuated$LT$syn..expr..FieldValue$C$syn..token..Comma$GT$$GT$17hf991bcdfd4fccdccE', symObjAddr: 0xBE50, symBinAddr: 0x1BC50, symSize: 0xF0 }
  - { offsetInCU: 0x36AE2, offset: 0x75BE4, size: 0x8, addend: 0x0, symName: '__ZN4core3ptr98drop_in_place$LT$syn..punctuated..Punctuated$LT$syn..lifetime..Lifetime$C$syn..token..Plus$GT$$GT$17hac40b9214257457fE.llvm.7987643212958033322', symObjAddr: 0xBF40, symBinAddr: 0x1BD40, symSize: 0xC0 }
  - { offsetInCU: 0x37521, offset: 0x76623, size: 0x8, addend: 0x0, symName: '__ZN53_$LT$core..fmt..Error$u20$as$u20$core..fmt..Debug$GT$3fmt17h43ae5cec9623af13E.llvm.7987643212958033322', symObjAddr: 0xC000, symBinAddr: 0x1BE00, symSize: 0x20 }
  - { offsetInCU: 0x39B91, offset: 0x78C93, size: 0x8, addend: 0x0, symName: _anon.043f712dd1dd30e9ace0afeccc192666.4.llvm.7987643212958033322, symObjAddr: 0xF158, symBinAddr: 0x26C450, symSize: 0x0 }
  - { offsetInCU: 0x416BB, offset: 0x807BD, size: 0x8, addend: 0x0, symName: '__ZN5alloc3vec16Vec$LT$T$C$A$GT$6retain17hbf37196e733e2ecfE', symObjAddr: 0xC210, symBinAddr: 0x1BFB0, symSize: 0x170 }
  - { offsetInCU: 0x1E, offset: 0x83421, size: 0x8, addend: 0x0, symName: __ZN5alloc7raw_vec11finish_grow17hccd9f6bf26ea44e6E.llvm.1369898895859312327, symObjAddr: 0x0, symBinAddr: 0x1C930, symSize: 0xA0 }
  - { offsetInCU: 0x3981, offset: 0x86D84, size: 0x8, addend: 0x0, symName: __ZN5alloc7raw_vec11finish_grow17hccd9f6bf26ea44e6E.llvm.1369898895859312327, symObjAddr: 0x0, symBinAddr: 0x1C930, symSize: 0xA0 }
  - { offsetInCU: 0x46C0, offset: 0x87AC3, size: 0x8, addend: 0x0, symName: '__ZN5alloc7raw_vec19RawVec$LT$T$C$A$GT$7reserve21do_reserve_and_handle17hf22ed97b9f0f9a75E', symObjAddr: 0x390, symBinAddr: 0x204B30, symSize: 0xB0 }
  - { offsetInCU: 0x49FF, offset: 0x87E02, size: 0x8, addend: 0x0, symName: '__ZN77_$LT$alloc..raw_vec..RawVec$LT$T$C$A$GT$$u20$as$u20$core..ops..drop..Drop$GT$4drop17h0c99a79ba508d2bcE', symObjAddr: 0x4A0, symBinAddr: 0x1CB50, symSize: 0x0 }
  - { offsetInCU: 0x4AFC, offset: 0x87EFF, size: 0x8, addend: 0x0, symName: '__ZN77_$LT$alloc..raw_vec..RawVec$LT$T$C$A$GT$$u20$as$u20$core..ops..drop..Drop$GT$4drop17h24fbe6bffd13526dE', symObjAddr: 0x560, symBinAddr: 0x1CB80, symSize: 0x30 }
  - { offsetInCU: 0xA1F4, offset: 0x8D5F7, size: 0x8, addend: 0x0, symName: '__ZN5alloc7raw_vec19RawVec$LT$T$C$A$GT$16reserve_for_push17h4e36860a79fabd7fE', symObjAddr: 0x210, symBinAddr: 0x1C9D0, symSize: 0xB0 }
  - { offsetInCU: 0xA69E, offset: 0x8DAA1, size: 0x8, addend: 0x0, symName: '__ZN5alloc7raw_vec19RawVec$LT$T$C$A$GT$16reserve_for_push17h6c26df133e9b6045E', symObjAddr: 0x2C0, symBinAddr: 0x1CA80, symSize: 0xD0 }
  - { offsetInCU: 0x1E, offset: 0x8DF4C, size: 0x8, addend: 0x0, symName: __ZN3syn5parse6Parser5parse17h11aaefc41add2eb3E, symObjAddr: 0x0, symBinAddr: 0x1CBB0, symSize: 0x530 }
  - { offsetInCU: 0x19EA, offset: 0x8F918, size: 0x8, addend: 0x0, symName: '__ZN4core3ptr100drop_in_place$LT$core..option..Option$LT$alloc..boxed..Box$LT$syn..path..GenericArgument$GT$$GT$$GT$17h51106e166286752dE', symObjAddr: 0x530, symBinAddr: 0x1D0E0, symSize: 0x50 }
  - { offsetInCU: 0x1BB9, offset: 0x8FAE7, size: 0x8, addend: 0x0, symName: '__ZN4core3ptr102drop_in_place$LT$syn..punctuated..Punctuated$LT$syn..path..GenericArgument$C$syn..token..Comma$GT$$GT$17ha28f317a24f35a0dE', symObjAddr: 0x580, symBinAddr: 0x1D130, symSize: 0xF0 }
  - { offsetInCU: 0x1EA2, offset: 0x8FDD0, size: 0x8, addend: 0x0, symName: '__ZN4core3ptr103drop_in_place$LT$core..option..Option$LT$alloc..boxed..Box$LT$syn..generics..TypeParamBound$GT$$GT$$GT$17h891dc4df1cdac563E', symObjAddr: 0x670, symBinAddr: 0x1D220, symSize: 0x50 }
  - { offsetInCU: 0x2169, offset: 0x90097, size: 0x8, addend: 0x0, symName: '__ZN4core3ptr103drop_in_place$LT$core..option..Option$LT$alloc..boxed..Box$LT$syn..generics..WherePredicate$GT$$GT$$GT$17h2f72d1bb6c8fc5ccE', symObjAddr: 0x6C0, symBinAddr: 0x1D270, symSize: 0xD0 }
  - { offsetInCU: 0x24FC, offset: 0x9042A, size: 0x8, addend: 0x0, symName: '__ZN4core3ptr103drop_in_place$LT$syn..punctuated..Punctuated$LT$syn..generics..GenericParam$C$syn..token..Comma$GT$$GT$17h931763ff18c68004E', symObjAddr: 0x790, symBinAddr: 0x1D340, symSize: 0xF0 }
  - { offsetInCU: 0x29BF, offset: 0x908ED, size: 0x8, addend: 0x0, symName: '__ZN4core3ptr104drop_in_place$LT$syn..punctuated..Punctuated$LT$syn..generics..TypeParamBound$C$syn..token..Plus$GT$$GT$17hecfab50c650f1186E', symObjAddr: 0x880, symBinAddr: 0x1D430, symSize: 0x230 }
  - { offsetInCU: 0x3240, offset: 0x9116E, size: 0x8, addend: 0x0, symName: '__ZN4core3ptr115drop_in_place$LT$core..option..Option$LT$$LP$syn..token..Brace$C$alloc..vec..Vec$LT$syn..item..Item$GT$$RP$$GT$$GT$17h9eb662418a819405E', symObjAddr: 0xAB0, symBinAddr: 0x1D660, symSize: 0xE0 }
  - { offsetInCU: 0x3563, offset: 0x91491, size: 0x8, addend: 0x0, symName: '__ZN4core3ptr34drop_in_place$LT$syn..lit..Lit$GT$17h805b01a65cebc907E', symObjAddr: 0xB90, symBinAddr: 0x1D740, symSize: 0x110 }
  - { offsetInCU: 0x3ABC, offset: 0x919EA, size: 0x8, addend: 0x0, symName: '__ZN4core3ptr34drop_in_place$LT$syn..pat..Pat$GT$17hf9f5753b4321e696E', symObjAddr: 0xCA0, symBinAddr: 0x1D850, symSize: 0xEE0 }
  - { offsetInCU: 0x710B, offset: 0x95039, size: 0x8, addend: 0x0, symName: '__ZN4core3ptr34drop_in_place$LT$syn..ty..Type$GT$17h4fee972b04a5d170E', symObjAddr: 0x1B80, symBinAddr: 0x1E730, symSize: 0x5C0 }
  - { offsetInCU: 0x8941, offset: 0x9686F, size: 0x8, addend: 0x0, symName: '__ZN4core3ptr36drop_in_place$LT$syn..expr..Expr$GT$17hb4ca458a3b04efdfE', symObjAddr: 0x2140, symBinAddr: 0x1ECF0, symSize: 0x2800 }
  - { offsetInCU: 0x11FD7, offset: 0x9FF05, size: 0x8, addend: 0x0, symName: '__ZN4core3ptr36drop_in_place$LT$syn..item..Item$GT$17hd5297b74723f39a3E', symObjAddr: 0x4940, symBinAddr: 0x214F0, symSize: 0x19C0 }
  - { offsetInCU: 0x17BDB, offset: 0xA5B09, size: 0x8, addend: 0x0, symName: '__ZN4core3ptr36drop_in_place$LT$syn..mac..Macro$GT$17h8eb0848626ff8376E', symObjAddr: 0x6300, symBinAddr: 0x22EB0, symSize: 0xE0 }
  - { offsetInCU: 0x17F4C, offset: 0xA5E7A, size: 0x8, addend: 0x0, symName: '__ZN4core3ptr36drop_in_place$LT$syn..path..Path$GT$17hcf67d367f5e4ad5cE', symObjAddr: 0x63E0, symBinAddr: 0x22F90, symSize: 0x220 }
  - { offsetInCU: 0x18881, offset: 0xA67AF, size: 0x8, addend: 0x0, symName: '__ZN4core3ptr37drop_in_place$LT$syn..stmt..Block$GT$17h96c863f355d0c08aE', symObjAddr: 0x6600, symBinAddr: 0x231B0, symSize: 0xD0 }
  - { offsetInCU: 0x18B44, offset: 0xA6A72, size: 0x8, addend: 0x0, symName: '__ZN4core3ptr38drop_in_place$LT$syn..data..Fields$GT$17h57adcc6b978f44c3E', symObjAddr: 0x66D0, symBinAddr: 0x23280, symSize: 0x190 }
  - { offsetInCU: 0x18F62, offset: 0xA6E90, size: 0x8, addend: 0x0, symName: '__ZN4core3ptr38drop_in_place$LT$syn..expr..Member$GT$17h52f2df960ecdf9c2E', symObjAddr: 0x6860, symBinAddr: 0x23410, symSize: 0x30 }
  - { offsetInCU: 0x1905F, offset: 0xA6F8D, size: 0x8, addend: 0x0, symName: '__ZN4core3ptr39drop_in_place$LT$proc_macro2..Ident$GT$17h0106d85ba76fad39E', symObjAddr: 0x6890, symBinAddr: 0x23440, symSize: 0x30 }
  - { offsetInCU: 0x19273, offset: 0xA71A1, size: 0x8, addend: 0x0, symName: '__ZN4core3ptr39drop_in_place$LT$syn..buffer..Entry$GT$17hceb90ddd1b4cb4a3E', symObjAddr: 0x68C0, symBinAddr: 0x23470, symSize: 0xC0 }
  - { offsetInCU: 0x1969E, offset: 0xA75CC, size: 0x8, addend: 0x0, symName: '__ZN4core3ptr39drop_in_place$LT$syn..item..UseTree$GT$17ha53cfb0acdd25fe6E', symObjAddr: 0x6980, symBinAddr: 0x23530, symSize: 0x1D0 }
  - { offsetInCU: 0x19D9E, offset: 0xA7CCC, size: 0x8, addend: 0x0, symName: '__ZN4core3ptr40drop_in_place$LT$syn..ty..ReturnType$GT$17had535e8dcd5571b8E', symObjAddr: 0x6B50, symBinAddr: 0x23700, symSize: 0x50 }
  - { offsetInCU: 0x19F10, offset: 0xA7E3E, size: 0x8, addend: 0x0, symName: '__ZN4core3ptr41drop_in_place$LT$syn..expr..ExprConst$GT$17h8fd7b13481086d9cE', symObjAddr: 0x6BA0, symBinAddr: 0x23750, symSize: 0x180 }
  - { offsetInCU: 0x1A4C2, offset: 0xA83F0, size: 0x8, addend: 0x0, symName: '__ZN4core3ptr41drop_in_place$LT$syn..item..Signature$GT$17h65708f2a3d58e68bE', symObjAddr: 0x6D20, symBinAddr: 0x238D0, symSize: 0x240 }
  - { offsetInCU: 0x1AD3B, offset: 0xA8C69, size: 0x8, addend: 0x0, symName: '__ZN4core3ptr43drop_in_place$LT$syn..data..FieldsNamed$GT$17h09b87030fa29ffc4E', symObjAddr: 0x6F60, symBinAddr: 0x23B10, symSize: 0xE0 }
  - { offsetInCU: 0x1B02A, offset: 0xA8F58, size: 0x8, addend: 0x0, symName: '__ZN4core3ptr44drop_in_place$LT$syn..generics..Generics$GT$17hfe81dbdc7f92e23dE', symObjAddr: 0x7040, symBinAddr: 0x23BF0, symSize: 0x40 }
  - { offsetInCU: 0x1B047, offset: 0xA8F75, size: 0x8, addend: 0x0, symName: '__ZN4core3ptr44drop_in_place$LT$syn..lifetime..Lifetime$GT$17h8005dc0ad2d6b979E', symObjAddr: 0x7080, symBinAddr: 0x23C30, symSize: 0x30 }
  - { offsetInCU: 0x1B1DF, offset: 0xA910D, size: 0x8, addend: 0x0, symName: '__ZN4core3ptr45drop_in_place$LT$proc_macro2..TokenStream$GT$17haa62b8a7735fd796E', symObjAddr: 0x70B0, symBinAddr: 0x23C60, symSize: 0x140 }
  - { offsetInCU: 0x1B64E, offset: 0xA957C, size: 0x8, addend: 0x0, symName: '__ZN4core3ptr45drop_in_place$LT$syn..generics..TypeParam$GT$17h2becfc99543f360cE', symObjAddr: 0x71F0, symBinAddr: 0x23DA0, symSize: 0x230 }
  - { offsetInCU: 0x1BE4A, offset: 0xA9D78, size: 0x8, addend: 0x0, symName: '__ZN4core3ptr46drop_in_place$LT$syn..generics..ConstParam$GT$17h8a2837eeb880b144E', symObjAddr: 0x7420, symBinAddr: 0x23FD0, symSize: 0x150 }
  - { offsetInCU: 0x1C274, offset: 0xAA1A2, size: 0x8, addend: 0x0, symName: '__ZN4core3ptr47drop_in_place$LT$syn..path..GenericArgument$GT$17he2e0ae8ef4913204E', symObjAddr: 0x7570, symBinAddr: 0x24120, symSize: 0x460 }
  - { offsetInCU: 0x1CF7D, offset: 0xAAEAB, size: 0x8, addend: 0x0, symName: '__ZN4core3ptr49drop_in_place$LT$syn..generics..LifetimeParam$GT$17h3c2aa3150e21384eE', symObjAddr: 0x79D0, symBinAddr: 0x24580, symSize: 0xF0 }
  - { offsetInCU: 0x1D337, offset: 0xAB265, size: 0x8, addend: 0x0, symName: '__ZN4core3ptr49drop_in_place$LT$syn..restriction..Visibility$GT$17h0007a66461fe9614E', symObjAddr: 0x7AC0, symBinAddr: 0x24670, symSize: 0x60 }
  - { offsetInCU: 0x1D4BA, offset: 0xAB3E8, size: 0x8, addend: 0x0, symName: '__ZN4core3ptr50drop_in_place$LT$syn..generics..TypeParamBound$GT$17h3eb1e2b59f213f9dE', symObjAddr: 0x7B20, symBinAddr: 0x246D0, symSize: 0xA0 }
  - { offsetInCU: 0x1D621, offset: 0xAB54F, size: 0x8, addend: 0x0, symName: '__ZN4core3ptr58drop_in_place$LT$alloc..vec..Vec$LT$syn..expr..Arm$GT$$GT$17h998ff97bf63bed17E', symObjAddr: 0x7BC0, symBinAddr: 0x24770, symSize: 0xD0 }
  - { offsetInCU: 0x1D8AE, offset: 0xAB7DC, size: 0x8, addend: 0x0, symName: '__ZN4core3ptr59drop_in_place$LT$alloc..boxed..Box$LT$syn..pat..Pat$GT$$GT$17h9d798a313e524b6bE', symObjAddr: 0x7C90, symBinAddr: 0x24840, symSize: 0x50 }
  - { offsetInCU: 0x1DA09, offset: 0xAB937, size: 0x8, addend: 0x0, symName: '__ZN4core3ptr59drop_in_place$LT$alloc..boxed..Box$LT$syn..ty..Type$GT$$GT$17h4ea9959036e2a656E', symObjAddr: 0x7CE0, symBinAddr: 0x24890, symSize: 0x50 }
  - { offsetInCU: 0x1DB64, offset: 0xABA92, size: 0x8, addend: 0x0, symName: '__ZN4core3ptr61drop_in_place$LT$alloc..boxed..Box$LT$syn..expr..Expr$GT$$GT$17h15acb3b4defe8aa9E', symObjAddr: 0x7D30, symBinAddr: 0x248E0, symSize: 0x50 }
  - { offsetInCU: 0x1DCBF, offset: 0xABBED, size: 0x8, addend: 0x0, symName: '__ZN4core3ptr61drop_in_place$LT$syn..path..ParenthesizedGenericArguments$GT$17h52030a1fb662e6baE', symObjAddr: 0x7D80, symBinAddr: 0x24930, symSize: 0x170 }
  - { offsetInCU: 0x1E299, offset: 0xAC1C7, size: 0x8, addend: 0x0, symName: '__ZN4core3ptr62drop_in_place$LT$alloc..boxed..Box$LT$syn..stmt..Block$GT$$GT$17he57d8523802a21c7E', symObjAddr: 0x7EF0, symBinAddr: 0x24AA0, symSize: 0xE0 }
  - { offsetInCU: 0x1E676, offset: 0xAC5A4, size: 0x8, addend: 0x0, symName: '__ZN4core3ptr63drop_in_place$LT$alloc..boxed..Box$LT$syn..lit..LitRepr$GT$$GT$17h8ce608e0c23beb17E', symObjAddr: 0x7FD0, symBinAddr: 0x24B80, symSize: 0x60 }
  - { offsetInCU: 0x1E94C, offset: 0xAC87A, size: 0x8, addend: 0x0, symName: '__ZN4core3ptr63drop_in_place$LT$alloc..vec..Vec$LT$syn..item..ImplItem$GT$$GT$17h7b503339c99b5373E', symObjAddr: 0x8030, symBinAddr: 0x24BE0, symSize: 0x80 }
  - { offsetInCU: 0x1EBCA, offset: 0xACAF8, size: 0x8, addend: 0x0, symName: '__ZN4core3ptr64drop_in_place$LT$alloc..boxed..Box$LT$syn..item..UseTree$GT$$GT$17h7f866ab315dd1796E', symObjAddr: 0x80B0, symBinAddr: 0x24C60, symSize: 0x50 }
  - { offsetInCU: 0x1ED44, offset: 0xACC72, size: 0x8, addend: 0x0, symName: '__ZN4core3ptr64drop_in_place$LT$alloc..boxed..Box$LT$syn..pat..FieldPat$GT$$GT$17h393127a278384096E', symObjAddr: 0x8100, symBinAddr: 0x24CB0, symSize: 0x140 }
  - { offsetInCU: 0x1F3EF, offset: 0xAD31D, size: 0x8, addend: 0x0, symName: '__ZN4core3ptr64drop_in_place$LT$alloc..boxed..Box$LT$syn..ty..BareFnArg$GT$$GT$17h0dac7733edb5daeeE', symObjAddr: 0x8240, symBinAddr: 0x24DF0, symSize: 0x140 }
  - { offsetInCU: 0x1F913, offset: 0xAD841, size: 0x8, addend: 0x0, symName: '__ZN4core3ptr64drop_in_place$LT$alloc..vec..Vec$LT$syn..item..TraitItem$GT$$GT$17h7165bda09c99db42E', symObjAddr: 0x8380, symBinAddr: 0x24F30, symSize: 0x80 }
  - { offsetInCU: 0x1FB91, offset: 0xADABF, size: 0x8, addend: 0x0, symName: '__ZN4core3ptr65drop_in_place$LT$core..option..Option$LT$syn..expr..Label$GT$$GT$17ha72e7c19f3b13f21E', symObjAddr: 0x8400, symBinAddr: 0x24FB0, symSize: 0x30 }
  - { offsetInCU: 0x1FCCC, offset: 0xADBFA, size: 0x8, addend: 0x0, symName: '__ZN4core3ptr66drop_in_place$LT$alloc..vec..Vec$LT$syn..item..ForeignItem$GT$$GT$17h74e9a28ee517915cE', symObjAddr: 0x8430, symBinAddr: 0x24FE0, symSize: 0x80 }
  - { offsetInCU: 0x1FF4A, offset: 0xADE78, size: 0x8, addend: 0x0, symName: '__ZN4core3ptr66drop_in_place$LT$core..option..Option$LT$syn..pat..PatRest$GT$$GT$17h6a220d4dc44fbd92E', symObjAddr: 0x84B0, symBinAddr: 0x25060, symSize: 0xE0 }
  - { offsetInCU: 0x201CE, offset: 0xAE0FC, size: 0x8, addend: 0x0, symName: '__ZN4core3ptr67drop_in_place$LT$alloc..boxed..Box$LT$syn..expr..FieldValue$GT$$GT$17h83a3811a70c0a730E', symObjAddr: 0x8590, symBinAddr: 0x25140, symSize: 0x140 }
  - { offsetInCU: 0x2072F, offset: 0xAE65D, size: 0x8, addend: 0x0, symName: '__ZN4core3ptr68drop_in_place$LT$core..option..Option$LT$syn..item..Variadic$GT$$GT$17h5711c342c119ed7fE', symObjAddr: 0x86D0, symBinAddr: 0x25280, symSize: 0x130 }
  - { offsetInCU: 0x20C4D, offset: 0xAEB7B, size: 0x8, addend: 0x0, symName: '__ZN4core3ptr70drop_in_place$LT$core..option..Option$LT$syn..ty..BareVariadic$GT$$GT$17h185d177be51abc65E', symObjAddr: 0x8800, symBinAddr: 0x253B0, symSize: 0x120 }
  - { offsetInCU: 0x2117A, offset: 0xAF0A8, size: 0x8, addend: 0x0, symName: '__ZN4core3ptr72drop_in_place$LT$alloc..boxed..Box$LT$syn..path..GenericArgument$GT$$GT$17h0cad48c7aaef57c8E', symObjAddr: 0x8920, symBinAddr: 0x254D0, symSize: 0x2B0 }
  - { offsetInCU: 0x21B65, offset: 0xAFA93, size: 0x8, addend: 0x0, symName: '__ZN4core3ptr72drop_in_place$LT$core..option..Option$LT$syn..lifetime..Lifetime$GT$$GT$17hf3ad43dbacfd9c64E', symObjAddr: 0x8BD0, symBinAddr: 0x25780, symSize: 0x30 }
  - { offsetInCU: 0x21C81, offset: 0xAFBAF, size: 0x8, addend: 0x0, symName: '__ZN4core3ptr73drop_in_place$LT$alloc..boxed..Box$LT$syn..generics..GenericParam$GT$$GT$17h25664c445d03fe6fE', symObjAddr: 0x8C00, symBinAddr: 0x257B0, symSize: 0x80 }
  - { offsetInCU: 0x21DF9, offset: 0xAFD27, size: 0x8, addend: 0x0, symName: '__ZN4core3ptr75drop_in_place$LT$alloc..boxed..Box$LT$syn..generics..TypeParamBound$GT$$GT$17h5af3b29884f49d07E', symObjAddr: 0x8C80, symBinAddr: 0x25830, symSize: 0x160 }
  - { offsetInCU: 0x223DE, offset: 0xB030C, size: 0x8, addend: 0x0, symName: '__ZN4core3ptr75drop_in_place$LT$core..option..Option$LT$syn..generics..WhereClause$GT$$GT$17h304a07b78b1d64e1E', symObjAddr: 0x8DE0, symBinAddr: 0x25990, symSize: 0x90 }
  - { offsetInCU: 0x22694, offset: 0xB05C2, size: 0x8, addend: 0x0, symName: '__ZN4core3ptr86drop_in_place$LT$syn..punctuated..Punctuated$LT$syn..pat..Pat$C$syn..token..Or$GT$$GT$17h713dfcc15b4623d1E', symObjAddr: 0x8E70, symBinAddr: 0x25A20, symSize: 0x120 }
  - { offsetInCU: 0x22ADA, offset: 0xB0A08, size: 0x8, addend: 0x0, symName: '__ZN4core3ptr87drop_in_place$LT$core..option..Option$LT$alloc..boxed..Box$LT$syn..pat..Pat$GT$$GT$$GT$17hf6c2e9af891c6e57E', symObjAddr: 0x8F90, symBinAddr: 0x25B40, symSize: 0x50 }
  - { offsetInCU: 0x22C4C, offset: 0xB0B7A, size: 0x8, addend: 0x0, symName: '__ZN4core3ptr87drop_in_place$LT$core..option..Option$LT$alloc..boxed..Box$LT$syn..ty..Type$GT$$GT$$GT$17h9038f0ea47c461fcE', symObjAddr: 0x8FE0, symBinAddr: 0x25B90, symSize: 0x50 }
  - { offsetInCU: 0x22DBE, offset: 0xB0CEC, size: 0x8, addend: 0x0, symName: '__ZN4core3ptr89drop_in_place$LT$core..option..Option$LT$alloc..boxed..Box$LT$syn..expr..Expr$GT$$GT$$GT$17h8b880b4dcee14efdE', symObjAddr: 0x9030, symBinAddr: 0x25BE0, symSize: 0x50 }
  - { offsetInCU: 0x22F6E, offset: 0xB0E9C, size: 0x8, addend: 0x0, symName: '__ZN4core3ptr89drop_in_place$LT$syn..punctuated..Punctuated$LT$syn..pat..Pat$C$syn..token..Comma$GT$$GT$17hc71bcf7acc9c3688E', symObjAddr: 0x9080, symBinAddr: 0x25C30, symSize: 0x120 }
  - { offsetInCU: 0x23409, offset: 0xB1337, size: 0x8, addend: 0x0, symName: '__ZN4core3ptr90drop_in_place$LT$core..option..Option$LT$alloc..boxed..Box$LT$syn..data..Field$GT$$GT$$GT$17h3f1488ddf0886c4aE', symObjAddr: 0x91A0, symBinAddr: 0x25D50, symSize: 0x200 }
  - { offsetInCU: 0x23CDB, offset: 0xB1C09, size: 0x8, addend: 0x0, symName: '__ZN4core3ptr90drop_in_place$LT$core..option..Option$LT$alloc..boxed..Box$LT$syn..item..FnArg$GT$$GT$$GT$17h561bcf4de28b32f4E', symObjAddr: 0x93A0, symBinAddr: 0x25F50, symSize: 0x2B0 }
  - { offsetInCU: 0x24833, offset: 0xB2761, size: 0x8, addend: 0x0, symName: '__ZN4core3ptr91drop_in_place$LT$syn..punctuated..Punctuated$LT$syn..expr..Expr$C$syn..token..Comma$GT$$GT$17h814ef321810ad62aE', symObjAddr: 0x9650, symBinAddr: 0x26200, symSize: 0x120 }
  - { offsetInCU: 0x24C90, offset: 0xB2BBE, size: 0x8, addend: 0x0, symName: '__ZN4core3ptr92drop_in_place$LT$core..option..Option$LT$$LP$syn..token..As$C$proc_macro2..Ident$RP$$GT$$GT$17h17a52974a0f91c6dE', symObjAddr: 0x9770, symBinAddr: 0x26320, symSize: 0x30 }
  - { offsetInCU: 0x24E28, offset: 0xB2D56, size: 0x8, addend: 0x0, symName: '__ZN4core3ptr92drop_in_place$LT$core..option..Option$LT$alloc..boxed..Box$LT$syn..data..Variant$GT$$GT$$GT$17h8f52c492f6d6c19dE', symObjAddr: 0x97A0, symBinAddr: 0x26350, symSize: 0x190 }
  - { offsetInCU: 0x25474, offset: 0xB33A2, size: 0x8, addend: 0x0, symName: '__ZN4core3ptr92drop_in_place$LT$syn..punctuated..Punctuated$LT$syn..item..FnArg$C$syn..token..Comma$GT$$GT$17h651c29599073da37E', symObjAddr: 0x9930, symBinAddr: 0x264E0, symSize: 0xE0 }
  - { offsetInCU: 0x2573E, offset: 0xB366C, size: 0x8, addend: 0x0, symName: '__ZN4core3ptr94drop_in_place$LT$syn..punctuated..Punctuated$LT$syn..data..Variant$C$syn..token..Comma$GT$$GT$17h7bf8c1569ab05e94E', symObjAddr: 0x9A10, symBinAddr: 0x265C0, symSize: 0xE0 }
  - { offsetInCU: 0x25A0E, offset: 0xB393C, size: 0x8, addend: 0x0, symName: '__ZN4core3ptr94drop_in_place$LT$syn..punctuated..Punctuated$LT$syn..pat..FieldPat$C$syn..token..Comma$GT$$GT$17ha96ff78bd02013b5E', symObjAddr: 0x9AF0, symBinAddr: 0x266A0, symSize: 0xF0 }
  - { offsetInCU: 0x25CD8, offset: 0xB3C06, size: 0x8, addend: 0x0, symName: '__ZN4core3ptr94drop_in_place$LT$syn..punctuated..Punctuated$LT$syn..ty..BareFnArg$C$syn..token..Comma$GT$$GT$17h1dcc7eb87eb23183E', symObjAddr: 0x9BE0, symBinAddr: 0x26790, symSize: 0xF0 }
  - { offsetInCU: 0x25FA2, offset: 0xB3ED0, size: 0x8, addend: 0x0, symName: '__ZN4core3ptr96drop_in_place$LT$core..option..Option$LT$alloc..boxed..Box$LT$syn..path..PathSegment$GT$$GT$$GT$17h3708111f11d51c23E', symObjAddr: 0x9CD0, symBinAddr: 0x26880, symSize: 0x180 }
  - { offsetInCU: 0x26633, offset: 0xB4561, size: 0x8, addend: 0x0, symName: '__ZN4core3ptr97drop_in_place$LT$syn..punctuated..Punctuated$LT$syn..expr..FieldValue$C$syn..token..Comma$GT$$GT$17hf991bcdfd4fccdccE', symObjAddr: 0x9E50, symBinAddr: 0x26A00, symSize: 0xF0 }
  - { offsetInCU: 0x26979, offset: 0xB48A7, size: 0x8, addend: 0x0, symName: '__ZN4core3ptr98drop_in_place$LT$syn..punctuated..Punctuated$LT$syn..lifetime..Lifetime$C$syn..token..Plus$GT$$GT$17hac40b9214257457fE', symObjAddr: 0x9F40, symBinAddr: 0x26AF0, symSize: 0xB1 }
  - { offsetInCU: 0x2B15D, offset: 0xB908B, size: 0x8, addend: 0x0, symName: __ZN3syn5parse6Parser5parse17h11aaefc41add2eb3E, symObjAddr: 0x0, symBinAddr: 0x1CBB0, symSize: 0x530 }
  - { offsetInCU: 0x1E, offset: 0xC2AF3, size: 0x8, addend: 0x0, symName: '__ZN4core3ptr100drop_in_place$LT$core..option..Option$LT$alloc..boxed..Box$LT$syn..path..GenericArgument$GT$$GT$$GT$17h51106e166286752dE', symObjAddr: 0x0, symBinAddr: 0x26BB0, symSize: 0x50 }
  - { offsetInCU: 0x1828, offset: 0xC42FD, size: 0x8, addend: 0x0, symName: '__ZN4core3ptr100drop_in_place$LT$core..option..Option$LT$alloc..boxed..Box$LT$syn..path..GenericArgument$GT$$GT$$GT$17h51106e166286752dE', symObjAddr: 0x0, symBinAddr: 0x26BB0, symSize: 0x50 }
  - { offsetInCU: 0x19F7, offset: 0xC44CC, size: 0x8, addend: 0x0, symName: '__ZN4core3ptr102drop_in_place$LT$syn..punctuated..Punctuated$LT$syn..path..GenericArgument$C$syn..token..Comma$GT$$GT$17ha28f317a24f35a0dE', symObjAddr: 0x50, symBinAddr: 0x26C00, symSize: 0xF0 }
  - { offsetInCU: 0x1CE0, offset: 0xC47B5, size: 0x8, addend: 0x0, symName: '__ZN4core3ptr103drop_in_place$LT$core..option..Option$LT$alloc..boxed..Box$LT$syn..generics..TypeParamBound$GT$$GT$$GT$17h891dc4df1cdac563E', symObjAddr: 0x140, symBinAddr: 0x26CF0, symSize: 0x50 }
  - { offsetInCU: 0x1FA7, offset: 0xC4A7C, size: 0x8, addend: 0x0, symName: '__ZN4core3ptr103drop_in_place$LT$core..option..Option$LT$alloc..boxed..Box$LT$syn..generics..WherePredicate$GT$$GT$$GT$17h2f72d1bb6c8fc5ccE', symObjAddr: 0x190, symBinAddr: 0x26D40, symSize: 0xD0 }
  - { offsetInCU: 0x233A, offset: 0xC4E0F, size: 0x8, addend: 0x0, symName: '__ZN4core3ptr103drop_in_place$LT$syn..punctuated..Punctuated$LT$syn..generics..GenericParam$C$syn..token..Comma$GT$$GT$17h931763ff18c68004E', symObjAddr: 0x260, symBinAddr: 0x26E10, symSize: 0xF0 }
  - { offsetInCU: 0x27FD, offset: 0xC52D2, size: 0x8, addend: 0x0, symName: '__ZN4core3ptr104drop_in_place$LT$syn..punctuated..Punctuated$LT$syn..generics..TypeParamBound$C$syn..token..Plus$GT$$GT$17hecfab50c650f1186E', symObjAddr: 0x350, symBinAddr: 0x26F00, symSize: 0x230 }
  - { offsetInCU: 0x307E, offset: 0xC5B53, size: 0x8, addend: 0x0, symName: '__ZN4core3ptr115drop_in_place$LT$core..option..Option$LT$$LP$syn..token..Brace$C$alloc..vec..Vec$LT$syn..item..Item$GT$$RP$$GT$$GT$17h9eb662418a819405E', symObjAddr: 0x580, symBinAddr: 0x27130, symSize: 0xE0 }
  - { offsetInCU: 0x33A1, offset: 0xC5E76, size: 0x8, addend: 0x0, symName: '__ZN4core3ptr34drop_in_place$LT$syn..lit..Lit$GT$17h805b01a65cebc907E', symObjAddr: 0x660, symBinAddr: 0x27210, symSize: 0x110 }
  - { offsetInCU: 0x38FA, offset: 0xC63CF, size: 0x8, addend: 0x0, symName: '__ZN4core3ptr34drop_in_place$LT$syn..pat..Pat$GT$17hf9f5753b4321e696E', symObjAddr: 0x770, symBinAddr: 0x27320, symSize: 0xEE0 }
  - { offsetInCU: 0x6F49, offset: 0xC9A1E, size: 0x8, addend: 0x0, symName: '__ZN4core3ptr34drop_in_place$LT$syn..ty..Type$GT$17h4fee972b04a5d170E', symObjAddr: 0x1650, symBinAddr: 0x28200, symSize: 0x5C0 }
  - { offsetInCU: 0x877F, offset: 0xCB254, size: 0x8, addend: 0x0, symName: '__ZN4core3ptr36drop_in_place$LT$syn..expr..Expr$GT$17hb4ca458a3b04efdfE', symObjAddr: 0x1C10, symBinAddr: 0x287C0, symSize: 0x2800 }
  - { offsetInCU: 0x11E15, offset: 0xD48EA, size: 0x8, addend: 0x0, symName: '__ZN4core3ptr36drop_in_place$LT$syn..item..Item$GT$17hd5297b74723f39a3E.llvm.11703433389928325093', symObjAddr: 0x4410, symBinAddr: 0x2AFC0, symSize: 0x19C0 }
  - { offsetInCU: 0x17A19, offset: 0xDA4EE, size: 0x8, addend: 0x0, symName: '__ZN4core3ptr36drop_in_place$LT$syn..mac..Macro$GT$17h8eb0848626ff8376E', symObjAddr: 0x5DD0, symBinAddr: 0x2C980, symSize: 0xE0 }
  - { offsetInCU: 0x17D8A, offset: 0xDA85F, size: 0x8, addend: 0x0, symName: '__ZN4core3ptr36drop_in_place$LT$syn..path..Path$GT$17hcf67d367f5e4ad5cE', symObjAddr: 0x5EB0, symBinAddr: 0x2CA60, symSize: 0x220 }
  - { offsetInCU: 0x186BF, offset: 0xDB194, size: 0x8, addend: 0x0, symName: '__ZN4core3ptr37drop_in_place$LT$syn..stmt..Block$GT$17h96c863f355d0c08aE', symObjAddr: 0x60D0, symBinAddr: 0x2CC80, symSize: 0xD0 }
  - { offsetInCU: 0x18982, offset: 0xDB457, size: 0x8, addend: 0x0, symName: '__ZN4core3ptr38drop_in_place$LT$syn..data..Fields$GT$17h57adcc6b978f44c3E', symObjAddr: 0x61A0, symBinAddr: 0x2CD50, symSize: 0x190 }
  - { offsetInCU: 0x18DA0, offset: 0xDB875, size: 0x8, addend: 0x0, symName: '__ZN4core3ptr38drop_in_place$LT$syn..expr..Member$GT$17h52f2df960ecdf9c2E', symObjAddr: 0x6330, symBinAddr: 0x2CEE0, symSize: 0x30 }
  - { offsetInCU: 0x18E9D, offset: 0xDB972, size: 0x8, addend: 0x0, symName: '__ZN4core3ptr39drop_in_place$LT$proc_macro2..Ident$GT$17h0106d85ba76fad39E', symObjAddr: 0x6360, symBinAddr: 0x2CF10, symSize: 0x30 }
  - { offsetInCU: 0x19092, offset: 0xDBB67, size: 0x8, addend: 0x0, symName: '__ZN4core3ptr39drop_in_place$LT$syn..item..UseTree$GT$17ha53cfb0acdd25fe6E', symObjAddr: 0x6390, symBinAddr: 0x2CF40, symSize: 0x1D0 }
  - { offsetInCU: 0x19792, offset: 0xDC267, size: 0x8, addend: 0x0, symName: '__ZN4core3ptr40drop_in_place$LT$syn..ty..ReturnType$GT$17had535e8dcd5571b8E', symObjAddr: 0x6560, symBinAddr: 0x2D110, symSize: 0x50 }
  - { offsetInCU: 0x19904, offset: 0xDC3D9, size: 0x8, addend: 0x0, symName: '__ZN4core3ptr41drop_in_place$LT$syn..expr..ExprConst$GT$17h8fd7b13481086d9cE', symObjAddr: 0x65B0, symBinAddr: 0x2D160, symSize: 0x180 }
  - { offsetInCU: 0x19EB6, offset: 0xDC98B, size: 0x8, addend: 0x0, symName: '__ZN4core3ptr41drop_in_place$LT$syn..item..Signature$GT$17h65708f2a3d58e68bE', symObjAddr: 0x6730, symBinAddr: 0x2D2E0, symSize: 0x240 }
  - { offsetInCU: 0x1A72F, offset: 0xDD204, size: 0x8, addend: 0x0, symName: '__ZN4core3ptr43drop_in_place$LT$syn..data..FieldsNamed$GT$17h09b87030fa29ffc4E', symObjAddr: 0x6970, symBinAddr: 0x2D520, symSize: 0xE0 }
  - { offsetInCU: 0x1AA1E, offset: 0xDD4F3, size: 0x8, addend: 0x0, symName: '__ZN4core3ptr44drop_in_place$LT$syn..generics..Generics$GT$17hfe81dbdc7f92e23dE', symObjAddr: 0x6A50, symBinAddr: 0x2D600, symSize: 0x40 }
  - { offsetInCU: 0x1AA3B, offset: 0xDD510, size: 0x8, addend: 0x0, symName: '__ZN4core3ptr44drop_in_place$LT$syn..lifetime..Lifetime$GT$17h8005dc0ad2d6b979E', symObjAddr: 0x6A90, symBinAddr: 0x2D640, symSize: 0x30 }
  - { offsetInCU: 0x1AC6E, offset: 0xDD743, size: 0x8, addend: 0x0, symName: '__ZN4core3ptr45drop_in_place$LT$proc_macro2..TokenStream$GT$17haa62b8a7735fd796E.llvm.11703433389928325093', symObjAddr: 0x6AC0, symBinAddr: 0x2D670, symSize: 0x140 }
  - { offsetInCU: 0x1B0DD, offset: 0xDDBB2, size: 0x8, addend: 0x0, symName: '__ZN4core3ptr45drop_in_place$LT$syn..generics..TypeParam$GT$17h2becfc99543f360cE', symObjAddr: 0x6C00, symBinAddr: 0x2D7B0, symSize: 0x230 }
  - { offsetInCU: 0x1B8D9, offset: 0xDE3AE, size: 0x8, addend: 0x0, symName: '__ZN4core3ptr46drop_in_place$LT$syn..generics..ConstParam$GT$17h8a2837eeb880b144E', symObjAddr: 0x6E30, symBinAddr: 0x2D9E0, symSize: 0x150 }
  - { offsetInCU: 0x1BD03, offset: 0xDE7D8, size: 0x8, addend: 0x0, symName: '__ZN4core3ptr47drop_in_place$LT$syn..path..GenericArgument$GT$17he2e0ae8ef4913204E', symObjAddr: 0x6F80, symBinAddr: 0x2DB30, symSize: 0x460 }
  - { offsetInCU: 0x1CA0C, offset: 0xDF4E1, size: 0x8, addend: 0x0, symName: '__ZN4core3ptr49drop_in_place$LT$syn..generics..LifetimeParam$GT$17h3c2aa3150e21384eE', symObjAddr: 0x73E0, symBinAddr: 0x2DF90, symSize: 0xF0 }
  - { offsetInCU: 0x1CDC6, offset: 0xDF89B, size: 0x8, addend: 0x0, symName: '__ZN4core3ptr49drop_in_place$LT$syn..restriction..Visibility$GT$17h0007a66461fe9614E', symObjAddr: 0x74D0, symBinAddr: 0x2E080, symSize: 0x60 }
  - { offsetInCU: 0x1CF49, offset: 0xDFA1E, size: 0x8, addend: 0x0, symName: '__ZN4core3ptr50drop_in_place$LT$syn..generics..TypeParamBound$GT$17h3eb1e2b59f213f9dE', symObjAddr: 0x7530, symBinAddr: 0x2E0E0, symSize: 0xA0 }
  - { offsetInCU: 0x1D0B0, offset: 0xDFB85, size: 0x8, addend: 0x0, symName: '__ZN4core3ptr58drop_in_place$LT$alloc..vec..Vec$LT$syn..expr..Arm$GT$$GT$17h998ff97bf63bed17E', symObjAddr: 0x75D0, symBinAddr: 0x2E180, symSize: 0xD0 }
  - { offsetInCU: 0x1D33D, offset: 0xDFE12, size: 0x8, addend: 0x0, symName: '__ZN4core3ptr59drop_in_place$LT$alloc..boxed..Box$LT$syn..pat..Pat$GT$$GT$17h9d798a313e524b6bE', symObjAddr: 0x76A0, symBinAddr: 0x2E250, symSize: 0x50 }
  - { offsetInCU: 0x1D498, offset: 0xDFF6D, size: 0x8, addend: 0x0, symName: '__ZN4core3ptr59drop_in_place$LT$alloc..boxed..Box$LT$syn..ty..Type$GT$$GT$17h4ea9959036e2a656E', symObjAddr: 0x76F0, symBinAddr: 0x2E2A0, symSize: 0x50 }
  - { offsetInCU: 0x1D5F3, offset: 0xE00C8, size: 0x8, addend: 0x0, symName: '__ZN4core3ptr61drop_in_place$LT$alloc..boxed..Box$LT$syn..expr..Expr$GT$$GT$17h15acb3b4defe8aa9E', symObjAddr: 0x7740, symBinAddr: 0x2E2F0, symSize: 0x50 }
  - { offsetInCU: 0x1D74E, offset: 0xE0223, size: 0x8, addend: 0x0, symName: '__ZN4core3ptr61drop_in_place$LT$syn..path..ParenthesizedGenericArguments$GT$17h52030a1fb662e6baE', symObjAddr: 0x7790, symBinAddr: 0x2E340, symSize: 0x170 }
  - { offsetInCU: 0x1DD28, offset: 0xE07FD, size: 0x8, addend: 0x0, symName: '__ZN4core3ptr62drop_in_place$LT$alloc..boxed..Box$LT$syn..stmt..Block$GT$$GT$17he57d8523802a21c7E', symObjAddr: 0x7900, symBinAddr: 0x2E4B0, symSize: 0xE0 }
  - { offsetInCU: 0x1E105, offset: 0xE0BDA, size: 0x8, addend: 0x0, symName: '__ZN4core3ptr63drop_in_place$LT$alloc..boxed..Box$LT$syn..lit..LitRepr$GT$$GT$17h8ce608e0c23beb17E', symObjAddr: 0x79E0, symBinAddr: 0x2E590, symSize: 0x60 }
  - { offsetInCU: 0x1E3DB, offset: 0xE0EB0, size: 0x8, addend: 0x0, symName: '__ZN4core3ptr63drop_in_place$LT$alloc..vec..Vec$LT$syn..item..ImplItem$GT$$GT$17h7b503339c99b5373E', symObjAddr: 0x7A40, symBinAddr: 0x2E5F0, symSize: 0x80 }
  - { offsetInCU: 0x1E659, offset: 0xE112E, size: 0x8, addend: 0x0, symName: '__ZN4core3ptr64drop_in_place$LT$alloc..boxed..Box$LT$syn..item..UseTree$GT$$GT$17h7f866ab315dd1796E', symObjAddr: 0x7AC0, symBinAddr: 0x2E670, symSize: 0x50 }
  - { offsetInCU: 0x1E7D3, offset: 0xE12A8, size: 0x8, addend: 0x0, symName: '__ZN4core3ptr64drop_in_place$LT$alloc..boxed..Box$LT$syn..pat..FieldPat$GT$$GT$17h393127a278384096E', symObjAddr: 0x7B10, symBinAddr: 0x2E6C0, symSize: 0x140 }
  - { offsetInCU: 0x1EE7E, offset: 0xE1953, size: 0x8, addend: 0x0, symName: '__ZN4core3ptr64drop_in_place$LT$alloc..boxed..Box$LT$syn..ty..BareFnArg$GT$$GT$17h0dac7733edb5daeeE', symObjAddr: 0x7C50, symBinAddr: 0x2E800, symSize: 0x140 }
  - { offsetInCU: 0x1F3A2, offset: 0xE1E77, size: 0x8, addend: 0x0, symName: '__ZN4core3ptr64drop_in_place$LT$alloc..vec..Vec$LT$syn..item..TraitItem$GT$$GT$17h7165bda09c99db42E', symObjAddr: 0x7D90, symBinAddr: 0x2E940, symSize: 0x80 }
  - { offsetInCU: 0x1F620, offset: 0xE20F5, size: 0x8, addend: 0x0, symName: '__ZN4core3ptr65drop_in_place$LT$core..option..Option$LT$syn..expr..Label$GT$$GT$17ha72e7c19f3b13f21E', symObjAddr: 0x7E10, symBinAddr: 0x2E9C0, symSize: 0x30 }
  - { offsetInCU: 0x1F75B, offset: 0xE2230, size: 0x8, addend: 0x0, symName: '__ZN4core3ptr66drop_in_place$LT$alloc..vec..Vec$LT$syn..item..ForeignItem$GT$$GT$17h74e9a28ee517915cE', symObjAddr: 0x7E40, symBinAddr: 0x2E9F0, symSize: 0x80 }
  - { offsetInCU: 0x1F9D9, offset: 0xE24AE, size: 0x8, addend: 0x0, symName: '__ZN4core3ptr66drop_in_place$LT$core..option..Option$LT$syn..pat..PatRest$GT$$GT$17h6a220d4dc44fbd92E', symObjAddr: 0x7EC0, symBinAddr: 0x2EA70, symSize: 0xE0 }
  - { offsetInCU: 0x1FC5D, offset: 0xE2732, size: 0x8, addend: 0x0, symName: '__ZN4core3ptr67drop_in_place$LT$alloc..boxed..Box$LT$syn..expr..FieldValue$GT$$GT$17h83a3811a70c0a730E', symObjAddr: 0x7FA0, symBinAddr: 0x2EB50, symSize: 0x140 }
  - { offsetInCU: 0x201BE, offset: 0xE2C93, size: 0x8, addend: 0x0, symName: '__ZN4core3ptr68drop_in_place$LT$core..option..Option$LT$syn..item..Variadic$GT$$GT$17h5711c342c119ed7fE', symObjAddr: 0x80E0, symBinAddr: 0x2EC90, symSize: 0x130 }
  - { offsetInCU: 0x206DC, offset: 0xE31B1, size: 0x8, addend: 0x0, symName: '__ZN4core3ptr70drop_in_place$LT$core..option..Option$LT$syn..ty..BareVariadic$GT$$GT$17h185d177be51abc65E', symObjAddr: 0x8210, symBinAddr: 0x2EDC0, symSize: 0x120 }
  - { offsetInCU: 0x20C09, offset: 0xE36DE, size: 0x8, addend: 0x0, symName: '__ZN4core3ptr72drop_in_place$LT$alloc..boxed..Box$LT$syn..path..GenericArgument$GT$$GT$17h0cad48c7aaef57c8E', symObjAddr: 0x8330, symBinAddr: 0x2EEE0, symSize: 0x2B0 }
  - { offsetInCU: 0x215F4, offset: 0xE40C9, size: 0x8, addend: 0x0, symName: '__ZN4core3ptr72drop_in_place$LT$core..option..Option$LT$syn..lifetime..Lifetime$GT$$GT$17hf3ad43dbacfd9c64E', symObjAddr: 0x85E0, symBinAddr: 0x2F190, symSize: 0x30 }
  - { offsetInCU: 0x21710, offset: 0xE41E5, size: 0x8, addend: 0x0, symName: '__ZN4core3ptr73drop_in_place$LT$alloc..boxed..Box$LT$syn..generics..GenericParam$GT$$GT$17h25664c445d03fe6fE', symObjAddr: 0x8610, symBinAddr: 0x2F1C0, symSize: 0x80 }
  - { offsetInCU: 0x21888, offset: 0xE435D, size: 0x8, addend: 0x0, symName: '__ZN4core3ptr75drop_in_place$LT$alloc..boxed..Box$LT$syn..generics..TypeParamBound$GT$$GT$17h5af3b29884f49d07E', symObjAddr: 0x8690, symBinAddr: 0x2F240, symSize: 0x160 }
  - { offsetInCU: 0x21E6D, offset: 0xE4942, size: 0x8, addend: 0x0, symName: '__ZN4core3ptr75drop_in_place$LT$core..option..Option$LT$syn..generics..WhereClause$GT$$GT$17h304a07b78b1d64e1E', symObjAddr: 0x87F0, symBinAddr: 0x2F3A0, symSize: 0x90 }
  - { offsetInCU: 0x22123, offset: 0xE4BF8, size: 0x8, addend: 0x0, symName: '__ZN4core3ptr86drop_in_place$LT$syn..punctuated..Punctuated$LT$syn..pat..Pat$C$syn..token..Or$GT$$GT$17h713dfcc15b4623d1E', symObjAddr: 0x8880, symBinAddr: 0x2F430, symSize: 0x120 }
  - { offsetInCU: 0x22569, offset: 0xE503E, size: 0x8, addend: 0x0, symName: '__ZN4core3ptr87drop_in_place$LT$core..option..Option$LT$alloc..boxed..Box$LT$syn..pat..Pat$GT$$GT$$GT$17hf6c2e9af891c6e57E', symObjAddr: 0x89A0, symBinAddr: 0x2F550, symSize: 0x50 }
  - { offsetInCU: 0x226DB, offset: 0xE51B0, size: 0x8, addend: 0x0, symName: '__ZN4core3ptr87drop_in_place$LT$core..option..Option$LT$alloc..boxed..Box$LT$syn..ty..Type$GT$$GT$$GT$17h9038f0ea47c461fcE', symObjAddr: 0x89F0, symBinAddr: 0x2F5A0, symSize: 0x50 }
  - { offsetInCU: 0x2284D, offset: 0xE5322, size: 0x8, addend: 0x0, symName: '__ZN4core3ptr89drop_in_place$LT$core..option..Option$LT$alloc..boxed..Box$LT$syn..expr..Expr$GT$$GT$$GT$17h8b880b4dcee14efdE', symObjAddr: 0x8A40, symBinAddr: 0x2F5F0, symSize: 0x50 }
  - { offsetInCU: 0x229FD, offset: 0xE54D2, size: 0x8, addend: 0x0, symName: '__ZN4core3ptr89drop_in_place$LT$syn..punctuated..Punctuated$LT$syn..pat..Pat$C$syn..token..Comma$GT$$GT$17hc71bcf7acc9c3688E', symObjAddr: 0x8A90, symBinAddr: 0x2F640, symSize: 0x120 }
  - { offsetInCU: 0x22E98, offset: 0xE596D, size: 0x8, addend: 0x0, symName: '__ZN4core3ptr90drop_in_place$LT$core..option..Option$LT$alloc..boxed..Box$LT$syn..data..Field$GT$$GT$$GT$17h3f1488ddf0886c4aE', symObjAddr: 0x8BB0, symBinAddr: 0x2F760, symSize: 0x200 }
  - { offsetInCU: 0x2376A, offset: 0xE623F, size: 0x8, addend: 0x0, symName: '__ZN4core3ptr90drop_in_place$LT$core..option..Option$LT$alloc..boxed..Box$LT$syn..item..FnArg$GT$$GT$$GT$17h561bcf4de28b32f4E', symObjAddr: 0x8DB0, symBinAddr: 0x2F960, symSize: 0x2B0 }
  - { offsetInCU: 0x242C2, offset: 0xE6D97, size: 0x8, addend: 0x0, symName: '__ZN4core3ptr91drop_in_place$LT$syn..punctuated..Punctuated$LT$syn..expr..Expr$C$syn..token..Comma$GT$$GT$17h814ef321810ad62aE', symObjAddr: 0x9060, symBinAddr: 0x2FC10, symSize: 0x120 }
  - { offsetInCU: 0x2471F, offset: 0xE71F4, size: 0x8, addend: 0x0, symName: '__ZN4core3ptr92drop_in_place$LT$core..option..Option$LT$$LP$syn..token..As$C$proc_macro2..Ident$RP$$GT$$GT$17h17a52974a0f91c6dE', symObjAddr: 0x9180, symBinAddr: 0x2FD30, symSize: 0x30 }
  - { offsetInCU: 0x248B7, offset: 0xE738C, size: 0x8, addend: 0x0, symName: '__ZN4core3ptr92drop_in_place$LT$core..option..Option$LT$alloc..boxed..Box$LT$syn..data..Variant$GT$$GT$$GT$17h8f52c492f6d6c19dE', symObjAddr: 0x91B0, symBinAddr: 0x2FD60, symSize: 0x190 }
  - { offsetInCU: 0x24F03, offset: 0xE79D8, size: 0x8, addend: 0x0, symName: '__ZN4core3ptr92drop_in_place$LT$syn..punctuated..Punctuated$LT$syn..item..FnArg$C$syn..token..Comma$GT$$GT$17h651c29599073da37E', symObjAddr: 0x9340, symBinAddr: 0x2FEF0, symSize: 0xE0 }
  - { offsetInCU: 0x251CD, offset: 0xE7CA2, size: 0x8, addend: 0x0, symName: '__ZN4core3ptr94drop_in_place$LT$syn..punctuated..Punctuated$LT$syn..data..Variant$C$syn..token..Comma$GT$$GT$17h7bf8c1569ab05e94E', symObjAddr: 0x9420, symBinAddr: 0x2FFD0, symSize: 0xE0 }
  - { offsetInCU: 0x2549D, offset: 0xE7F72, size: 0x8, addend: 0x0, symName: '__ZN4core3ptr94drop_in_place$LT$syn..punctuated..Punctuated$LT$syn..pat..FieldPat$C$syn..token..Comma$GT$$GT$17ha96ff78bd02013b5E', symObjAddr: 0x9500, symBinAddr: 0x300B0, symSize: 0xF0 }
  - { offsetInCU: 0x25767, offset: 0xE823C, size: 0x8, addend: 0x0, symName: '__ZN4core3ptr94drop_in_place$LT$syn..punctuated..Punctuated$LT$syn..ty..BareFnArg$C$syn..token..Comma$GT$$GT$17h1dcc7eb87eb23183E', symObjAddr: 0x95F0, symBinAddr: 0x301A0, symSize: 0xF0 }
  - { offsetInCU: 0x25A31, offset: 0xE8506, size: 0x8, addend: 0x0, symName: '__ZN4core3ptr96drop_in_place$LT$core..option..Option$LT$alloc..boxed..Box$LT$syn..path..PathSegment$GT$$GT$$GT$17h3708111f11d51c23E', symObjAddr: 0x96E0, symBinAddr: 0x30290, symSize: 0x180 }
  - { offsetInCU: 0x260C2, offset: 0xE8B97, size: 0x8, addend: 0x0, symName: '__ZN4core3ptr97drop_in_place$LT$syn..punctuated..Punctuated$LT$syn..expr..FieldValue$C$syn..token..Comma$GT$$GT$17hf991bcdfd4fccdccE', symObjAddr: 0x9860, symBinAddr: 0x30410, symSize: 0xF0 }
  - { offsetInCU: 0x26408, offset: 0xE8EDD, size: 0x8, addend: 0x0, symName: '__ZN4core3ptr98drop_in_place$LT$syn..punctuated..Punctuated$LT$syn..lifetime..Lifetime$C$syn..token..Plus$GT$$GT$17hac40b9214257457fE', symObjAddr: 0x9950, symBinAddr: 0x30500, symSize: 0xC0 }
  - { offsetInCU: 0x1E, offset: 0xF5315, size: 0x8, addend: 0x0, symName: '__ZN100_$LT$syn..punctuated..PrivateIter$LT$T$C$P$GT$$u20$as$u20$core..iter..traits..iterator..Iterator$GT$4next17h7bde1d3131de75f2E.llvm.656072333090051936', symObjAddr: 0x0, symBinAddr: 0x305C0, symSize: 0x30 }
  - { offsetInCU: 0x529, offset: 0xF5820, size: 0x8, addend: 0x0, symName: '__ZN100_$LT$syn..punctuated..PrivateIter$LT$T$C$P$GT$$u20$as$u20$core..iter..traits..iterator..Iterator$GT$4next17h7bde1d3131de75f2E.llvm.656072333090051936', symObjAddr: 0x0, symBinAddr: 0x305C0, symSize: 0x30 }
  - { offsetInCU: 0x7BC, offset: 0xF5AB3, size: 0x8, addend: 0x0, symName: '__ZN100_$LT$syn..punctuated..PrivateIter$LT$T$C$P$GT$$u20$as$u20$core..iter..traits..iterator..Iterator$GT$4next17hf827aa85ef9cd778E.llvm.656072333090051936', symObjAddr: 0x30, symBinAddr: 0x305F0, symSize: 0x30 }
  - { offsetInCU: 0x1E, offset: 0xFF239, size: 0x8, addend: 0x0, symName: __ZN3syn5parse6Parser5parse17had9e4e7f300ed028E, symObjAddr: 0x0, symBinAddr: 0x30620, symSize: 0x910 }
  - { offsetInCU: 0x19B5, offset: 0x100BD0, size: 0x8, addend: 0x0, symName: '__ZN4core3ptr100drop_in_place$LT$core..option..Option$LT$alloc..boxed..Box$LT$syn..path..GenericArgument$GT$$GT$$GT$17h51106e166286752dE', symObjAddr: 0x910, symBinAddr: 0x30F30, symSize: 0x50 }
  - { offsetInCU: 0x1B84, offset: 0x100D9F, size: 0x8, addend: 0x0, symName: '__ZN4core3ptr102drop_in_place$LT$syn..punctuated..Punctuated$LT$syn..path..GenericArgument$C$syn..token..Comma$GT$$GT$17ha28f317a24f35a0dE', symObjAddr: 0x960, symBinAddr: 0x30F80, symSize: 0xF0 }
  - { offsetInCU: 0x1E6D, offset: 0x101088, size: 0x8, addend: 0x0, symName: '__ZN4core3ptr103drop_in_place$LT$core..option..Option$LT$alloc..boxed..Box$LT$syn..generics..TypeParamBound$GT$$GT$$GT$17h891dc4df1cdac563E', symObjAddr: 0xA50, symBinAddr: 0x31070, symSize: 0x50 }
  - { offsetInCU: 0x207A, offset: 0x101295, size: 0x8, addend: 0x0, symName: '__ZN4core3ptr103drop_in_place$LT$syn..punctuated..Punctuated$LT$syn..generics..GenericParam$C$syn..token..Comma$GT$$GT$17h931763ff18c68004E', symObjAddr: 0xAA0, symBinAddr: 0x310C0, symSize: 0xF0 }
  - { offsetInCU: 0x25F7, offset: 0x101812, size: 0x8, addend: 0x0, symName: '__ZN4core3ptr104drop_in_place$LT$syn..punctuated..Punctuated$LT$syn..generics..TypeParamBound$C$syn..token..Plus$GT$$GT$17hecfab50c650f1186E', symObjAddr: 0xB90, symBinAddr: 0x311B0, symSize: 0x230 }
  - { offsetInCU: 0x2E1B, offset: 0x102036, size: 0x8, addend: 0x0, symName: '__ZN4core3ptr34drop_in_place$LT$syn..lit..Lit$GT$17h805b01a65cebc907E', symObjAddr: 0xDC0, symBinAddr: 0x313E0, symSize: 0x110 }
  - { offsetInCU: 0x3374, offset: 0x10258F, size: 0x8, addend: 0x0, symName: '__ZN4core3ptr34drop_in_place$LT$syn..pat..Pat$GT$17hf9f5753b4321e696E', symObjAddr: 0xED0, symBinAddr: 0x314F0, symSize: 0xEE0 }
  - { offsetInCU: 0x6966, offset: 0x105B81, size: 0x8, addend: 0x0, symName: '__ZN4core3ptr34drop_in_place$LT$syn..ty..Type$GT$17h4fee972b04a5d170E', symObjAddr: 0x1DB0, symBinAddr: 0x323D0, symSize: 0x5C0 }
  - { offsetInCU: 0x819C, offset: 0x1073B7, size: 0x8, addend: 0x0, symName: '__ZN4core3ptr36drop_in_place$LT$syn..expr..Expr$GT$17hb4ca458a3b04efdfE', symObjAddr: 0x2370, symBinAddr: 0x32990, symSize: 0x2800 }
  - { offsetInCU: 0x11379, offset: 0x110594, size: 0x8, addend: 0x0, symName: '__ZN4core3ptr36drop_in_place$LT$syn..mac..Macro$GT$17h8eb0848626ff8376E', symObjAddr: 0x4B70, symBinAddr: 0x35190, symSize: 0xE0 }
  - { offsetInCU: 0x116EA, offset: 0x110905, size: 0x8, addend: 0x0, symName: '__ZN4core3ptr36drop_in_place$LT$syn..path..Path$GT$17hcf67d367f5e4ad5cE', symObjAddr: 0x4C50, symBinAddr: 0x35270, symSize: 0x220 }
  - { offsetInCU: 0x1201F, offset: 0x11123A, size: 0x8, addend: 0x0, symName: '__ZN4core3ptr37drop_in_place$LT$syn..stmt..Block$GT$17h96c863f355d0c08aE', symObjAddr: 0x4E70, symBinAddr: 0x35490, symSize: 0xD0 }
  - { offsetInCU: 0x122C3, offset: 0x1114DE, size: 0x8, addend: 0x0, symName: '__ZN4core3ptr38drop_in_place$LT$syn..expr..Member$GT$17h52f2df960ecdf9c2E', symObjAddr: 0x4F40, symBinAddr: 0x35560, symSize: 0x30 }
  - { offsetInCU: 0x123C0, offset: 0x1115DB, size: 0x8, addend: 0x0, symName: '__ZN4core3ptr39drop_in_place$LT$proc_macro2..Ident$GT$17h0106d85ba76fad39E', symObjAddr: 0x4F70, symBinAddr: 0x35590, symSize: 0x30 }
  - { offsetInCU: 0x125D4, offset: 0x1117EF, size: 0x8, addend: 0x0, symName: '__ZN4core3ptr39drop_in_place$LT$syn..buffer..Entry$GT$17hceb90ddd1b4cb4a3E', symObjAddr: 0x4FA0, symBinAddr: 0x355C0, symSize: 0xC0 }
  - { offsetInCU: 0x128E8, offset: 0x111B03, size: 0x8, addend: 0x0, symName: '__ZN4core3ptr40drop_in_place$LT$syn..ty..ReturnType$GT$17had535e8dcd5571b8E', symObjAddr: 0x5060, symBinAddr: 0x35680, symSize: 0x50 }
  - { offsetInCU: 0x12A5A, offset: 0x111C75, size: 0x8, addend: 0x0, symName: '__ZN4core3ptr41drop_in_place$LT$syn..expr..ExprConst$GT$17h8fd7b13481086d9cE', symObjAddr: 0x50B0, symBinAddr: 0x356D0, symSize: 0x180 }
  - { offsetInCU: 0x12FAF, offset: 0x1121CA, size: 0x8, addend: 0x0, symName: '__ZN4core3ptr44drop_in_place$LT$syn..lifetime..Lifetime$GT$17h8005dc0ad2d6b979E', symObjAddr: 0x5230, symBinAddr: 0x35850, symSize: 0x30 }
  - { offsetInCU: 0x13147, offset: 0x112362, size: 0x8, addend: 0x0, symName: '__ZN4core3ptr45drop_in_place$LT$proc_macro2..TokenStream$GT$17haa62b8a7735fd796E', symObjAddr: 0x5260, symBinAddr: 0x35880, symSize: 0x140 }
  - { offsetInCU: 0x135B6, offset: 0x1127D1, size: 0x8, addend: 0x0, symName: '__ZN4core3ptr45drop_in_place$LT$syn..generics..TypeParam$GT$17h2becfc99543f360cE', symObjAddr: 0x53A0, symBinAddr: 0x359C0, symSize: 0x230 }
  - { offsetInCU: 0x13DB2, offset: 0x112FCD, size: 0x8, addend: 0x0, symName: '__ZN4core3ptr46drop_in_place$LT$syn..generics..ConstParam$GT$17h8a2837eeb880b144E', symObjAddr: 0x55D0, symBinAddr: 0x35BF0, symSize: 0x150 }
  - { offsetInCU: 0x141DC, offset: 0x1133F7, size: 0x8, addend: 0x0, symName: '__ZN4core3ptr47drop_in_place$LT$syn..path..GenericArgument$GT$17he2e0ae8ef4913204E', symObjAddr: 0x5720, symBinAddr: 0x35D40, symSize: 0x460 }
  - { offsetInCU: 0x14EE5, offset: 0x114100, size: 0x8, addend: 0x0, symName: '__ZN4core3ptr49drop_in_place$LT$syn..generics..LifetimeParam$GT$17h3c2aa3150e21384eE', symObjAddr: 0x5B80, symBinAddr: 0x361A0, symSize: 0xF0 }
  - { offsetInCU: 0x1529F, offset: 0x1144BA, size: 0x8, addend: 0x0, symName: '__ZN4core3ptr50drop_in_place$LT$syn..generics..TypeParamBound$GT$17h3eb1e2b59f213f9dE', symObjAddr: 0x5C70, symBinAddr: 0x36290, symSize: 0xA0 }
  - { offsetInCU: 0x15406, offset: 0x114621, size: 0x8, addend: 0x0, symName: '__ZN4core3ptr58drop_in_place$LT$alloc..vec..Vec$LT$syn..expr..Arm$GT$$GT$17h998ff97bf63bed17E', symObjAddr: 0x5D10, symBinAddr: 0x36330, symSize: 0xD0 }
  - { offsetInCU: 0x15693, offset: 0x1148AE, size: 0x8, addend: 0x0, symName: '__ZN4core3ptr59drop_in_place$LT$alloc..boxed..Box$LT$syn..pat..Pat$GT$$GT$17h9d798a313e524b6bE', symObjAddr: 0x5DE0, symBinAddr: 0x36400, symSize: 0x50 }
  - { offsetInCU: 0x157EE, offset: 0x114A09, size: 0x8, addend: 0x0, symName: '__ZN4core3ptr59drop_in_place$LT$alloc..boxed..Box$LT$syn..ty..Type$GT$$GT$17h4ea9959036e2a656E', symObjAddr: 0x5E30, symBinAddr: 0x36450, symSize: 0x50 }
  - { offsetInCU: 0x15949, offset: 0x114B64, size: 0x8, addend: 0x0, symName: '__ZN4core3ptr61drop_in_place$LT$alloc..boxed..Box$LT$syn..expr..Expr$GT$$GT$17h15acb3b4defe8aa9E', symObjAddr: 0x5E80, symBinAddr: 0x364A0, symSize: 0x50 }
  - { offsetInCU: 0x15AA4, offset: 0x114CBF, size: 0x8, addend: 0x0, symName: '__ZN4core3ptr61drop_in_place$LT$syn..path..ParenthesizedGenericArguments$GT$17h52030a1fb662e6baE', symObjAddr: 0x5ED0, symBinAddr: 0x364F0, symSize: 0x170 }
  - { offsetInCU: 0x1607E, offset: 0x115299, size: 0x8, addend: 0x0, symName: '__ZN4core3ptr63drop_in_place$LT$alloc..boxed..Box$LT$syn..lit..LitRepr$GT$$GT$17h8ce608e0c23beb17E', symObjAddr: 0x6040, symBinAddr: 0x36660, symSize: 0x60 }
  - { offsetInCU: 0x16373, offset: 0x11558E, size: 0x8, addend: 0x0, symName: '__ZN4core3ptr64drop_in_place$LT$alloc..boxed..Box$LT$syn..pat..FieldPat$GT$$GT$17h393127a278384096E', symObjAddr: 0x60A0, symBinAddr: 0x366C0, symSize: 0x140 }
  - { offsetInCU: 0x16A1E, offset: 0x115C39, size: 0x8, addend: 0x0, symName: '__ZN4core3ptr64drop_in_place$LT$alloc..boxed..Box$LT$syn..ty..BareFnArg$GT$$GT$17h0dac7733edb5daeeE', symObjAddr: 0x61E0, symBinAddr: 0x36800, symSize: 0x140 }
  - { offsetInCU: 0x16F42, offset: 0x11615D, size: 0x8, addend: 0x0, symName: '__ZN4core3ptr65drop_in_place$LT$core..option..Option$LT$syn..expr..Label$GT$$GT$17ha72e7c19f3b13f21E', symObjAddr: 0x6320, symBinAddr: 0x36940, symSize: 0x30 }
  - { offsetInCU: 0x1707D, offset: 0x116298, size: 0x8, addend: 0x0, symName: '__ZN4core3ptr66drop_in_place$LT$core..option..Option$LT$syn..pat..PatRest$GT$$GT$17h6a220d4dc44fbd92E', symObjAddr: 0x6350, symBinAddr: 0x36970, symSize: 0xE0 }
  - { offsetInCU: 0x17301, offset: 0x11651C, size: 0x8, addend: 0x0, symName: '__ZN4core3ptr67drop_in_place$LT$alloc..boxed..Box$LT$syn..expr..FieldValue$GT$$GT$17h83a3811a70c0a730E', symObjAddr: 0x6430, symBinAddr: 0x36A50, symSize: 0x140 }
  - { offsetInCU: 0x17824, offset: 0x116A3F, size: 0x8, addend: 0x0, symName: '__ZN4core3ptr70drop_in_place$LT$core..option..Option$LT$syn..ty..BareVariadic$GT$$GT$17h185d177be51abc65E', symObjAddr: 0x6570, symBinAddr: 0x36B90, symSize: 0x120 }
  - { offsetInCU: 0x17D51, offset: 0x116F6C, size: 0x8, addend: 0x0, symName: '__ZN4core3ptr72drop_in_place$LT$alloc..boxed..Box$LT$syn..path..GenericArgument$GT$$GT$17h0cad48c7aaef57c8E', symObjAddr: 0x6690, symBinAddr: 0x36CB0, symSize: 0x2B0 }
  - { offsetInCU: 0x1873C, offset: 0x117957, size: 0x8, addend: 0x0, symName: '__ZN4core3ptr72drop_in_place$LT$core..option..Option$LT$syn..lifetime..Lifetime$GT$$GT$17hf3ad43dbacfd9c64E', symObjAddr: 0x6940, symBinAddr: 0x36F60, symSize: 0x30 }
  - { offsetInCU: 0x18858, offset: 0x117A73, size: 0x8, addend: 0x0, symName: '__ZN4core3ptr73drop_in_place$LT$alloc..boxed..Box$LT$syn..generics..GenericParam$GT$$GT$17h25664c445d03fe6fE', symObjAddr: 0x6970, symBinAddr: 0x36F90, symSize: 0x80 }
  - { offsetInCU: 0x189D0, offset: 0x117BEB, size: 0x8, addend: 0x0, symName: '__ZN4core3ptr75drop_in_place$LT$alloc..boxed..Box$LT$syn..generics..TypeParamBound$GT$$GT$17h5af3b29884f49d07E', symObjAddr: 0x69F0, symBinAddr: 0x37010, symSize: 0x160 }
  - { offsetInCU: 0x18F96, offset: 0x1181B1, size: 0x8, addend: 0x0, symName: '__ZN4core3ptr86drop_in_place$LT$syn..punctuated..Punctuated$LT$syn..pat..Pat$C$syn..token..Or$GT$$GT$17h713dfcc15b4623d1E', symObjAddr: 0x6B50, symBinAddr: 0x37170, symSize: 0x120 }
  - { offsetInCU: 0x193DC, offset: 0x1185F7, size: 0x8, addend: 0x0, symName: '__ZN4core3ptr87drop_in_place$LT$core..option..Option$LT$alloc..boxed..Box$LT$syn..pat..Pat$GT$$GT$$GT$17hf6c2e9af891c6e57E', symObjAddr: 0x6C70, symBinAddr: 0x37290, symSize: 0x50 }
  - { offsetInCU: 0x1954E, offset: 0x118769, size: 0x8, addend: 0x0, symName: '__ZN4core3ptr87drop_in_place$LT$core..option..Option$LT$alloc..boxed..Box$LT$syn..ty..Type$GT$$GT$$GT$17h9038f0ea47c461fcE', symObjAddr: 0x6CC0, symBinAddr: 0x372E0, symSize: 0x50 }
  - { offsetInCU: 0x196C0, offset: 0x1188DB, size: 0x8, addend: 0x0, symName: '__ZN4core3ptr89drop_in_place$LT$core..option..Option$LT$alloc..boxed..Box$LT$syn..expr..Expr$GT$$GT$$GT$17h8b880b4dcee14efdE', symObjAddr: 0x6D10, symBinAddr: 0x37330, symSize: 0x50 }
  - { offsetInCU: 0x19870, offset: 0x118A8B, size: 0x8, addend: 0x0, symName: '__ZN4core3ptr89drop_in_place$LT$syn..punctuated..Punctuated$LT$syn..pat..Pat$C$syn..token..Comma$GT$$GT$17hc71bcf7acc9c3688E', symObjAddr: 0x6D60, symBinAddr: 0x37380, symSize: 0x120 }
  - { offsetInCU: 0x19D0B, offset: 0x118F26, size: 0x8, addend: 0x0, symName: '__ZN4core3ptr91drop_in_place$LT$syn..punctuated..Punctuated$LT$syn..expr..Expr$C$syn..token..Comma$GT$$GT$17h814ef321810ad62aE', symObjAddr: 0x6E80, symBinAddr: 0x374A0, symSize: 0x120 }
  - { offsetInCU: 0x1A168, offset: 0x119383, size: 0x8, addend: 0x0, symName: '__ZN4core3ptr94drop_in_place$LT$syn..punctuated..Punctuated$LT$syn..pat..FieldPat$C$syn..token..Comma$GT$$GT$17ha96ff78bd02013b5E', symObjAddr: 0x6FA0, symBinAddr: 0x375C0, symSize: 0xF0 }
  - { offsetInCU: 0x1A432, offset: 0x11964D, size: 0x8, addend: 0x0, symName: '__ZN4core3ptr94drop_in_place$LT$syn..punctuated..Punctuated$LT$syn..ty..BareFnArg$C$syn..token..Comma$GT$$GT$17h1dcc7eb87eb23183E', symObjAddr: 0x7090, symBinAddr: 0x376B0, symSize: 0xF0 }
  - { offsetInCU: 0x1A6FC, offset: 0x119917, size: 0x8, addend: 0x0, symName: '__ZN4core3ptr96drop_in_place$LT$core..option..Option$LT$alloc..boxed..Box$LT$syn..path..PathSegment$GT$$GT$$GT$17h3708111f11d51c23E', symObjAddr: 0x7180, symBinAddr: 0x377A0, symSize: 0x180 }
  - { offsetInCU: 0x1AD8D, offset: 0x119FA8, size: 0x8, addend: 0x0, symName: '__ZN4core3ptr97drop_in_place$LT$syn..punctuated..Punctuated$LT$syn..expr..FieldValue$C$syn..token..Comma$GT$$GT$17hf991bcdfd4fccdccE', symObjAddr: 0x7300, symBinAddr: 0x37920, symSize: 0xF0 }
  - { offsetInCU: 0x1B0D3, offset: 0x11A2EE, size: 0x8, addend: 0x0, symName: '__ZN4core3ptr98drop_in_place$LT$syn..punctuated..Punctuated$LT$syn..lifetime..Lifetime$C$syn..token..Plus$GT$$GT$17hac40b9214257457fE', symObjAddr: 0x73F0, symBinAddr: 0x37A10, symSize: 0xB1 }
  - { offsetInCU: 0x1F7CE, offset: 0x11E9E9, size: 0x8, addend: 0x0, symName: __ZN3syn5parse6Parser5parse17had9e4e7f300ed028E, symObjAddr: 0x0, symBinAddr: 0x30620, symSize: 0x910 }
  - { offsetInCU: 0x858, offset: 0x1295B2, size: 0x8, addend: 0x0, symName: '__ZN68_$LT$$RF$str$u20$as$u20$proc_macro..bridge..rpc..Encode$LT$S$GT$$GT$6encode17hc059e2f44e84a604E', symObjAddr: 0x70, symBinAddr: 0x37AD0, symSize: 0x330 }
  - { offsetInCU: 0x1E, offset: 0x129DE9, size: 0x8, addend: 0x0, symName: '__ZN10proc_macro6bridge11scoped_cell19ScopedCell$LT$T$GT$7replace17h38db8e4cf737e049E', symObjAddr: 0x0, symBinAddr: 0x37E00, symSize: 0x0 }
  - { offsetInCU: 0x5DC, offset: 0x12A3A7, size: 0x8, addend: 0x0, symName: '__ZN4core3ptr145drop_in_place$LT$proc_macro..bridge..scoped_cell..ScopedCell$LT$T$GT$..replace..PutBackOnDrop$LT$proc_macro..bridge..client..BridgeStateL$GT$$GT$17h2a0feeea4bd37d54E.llvm.9923803943381854400', symObjAddr: 0xC60, symBinAddr: 0x38A60, symSize: 0xC0 }
  - { offsetInCU: 0x94B, offset: 0x12A716, size: 0x8, addend: 0x0, symName: '__ZN4core3ptr695drop_in_place$LT$proc_macro..bridge..scoped_cell..ScopedCell$LT$proc_macro..bridge..client..BridgeStateL$GT$..set$LT$$LP$$RP$$C$proc_macro..bridge..client..run_client$LT$$LP$proc_macro..bridge..client..TokenStream$C$proc_macro..bridge..client..TokenStream$RP$$C$core..option..Option$LT$proc_macro..bridge..client..TokenStream$GT$$C$proc_macro..bridge..client..Client$LT$$LP$proc_macro..TokenStream$C$proc_macro..TokenStream$RP$$C$proc_macro..TokenStream$GT$..expand2$LT$solana_frozen_abi_macro..frozen_abi$GT$..$u7b$$u7b$closure$u7d$$u7d$..$u7b$$u7b$closure$u7d$$u7d$$GT$..$u7b$$u7b$closure$u7d$$u7d$..$u7b$$u7b$closure$u7d$$u7d$..$u7b$$u7b$closure$u7d$$u7d$$GT$..$u7b$$u7b$closure$u7d$$u7d$$GT$17h039bad1e8261bdd5E', symObjAddr: 0xD20, symBinAddr: 0x38B20, symSize: 0x3F }
  - { offsetInCU: 0x1E56, offset: 0x12BC21, size: 0x8, addend: 0x0, symName: '__ZN10proc_macro6bridge11scoped_cell19ScopedCell$LT$T$GT$7replace17h38db8e4cf737e049E', symObjAddr: 0x0, symBinAddr: 0x37E00, symSize: 0x0 }
  - { offsetInCU: 0x2479, offset: 0x12C244, size: 0x8, addend: 0x0, symName: '__ZN10proc_macro6bridge11scoped_cell19ScopedCell$LT$T$GT$7replace17h54e8fc0d179def7cE', symObjAddr: 0x1D0, symBinAddr: 0x37FD0, symSize: 0x390 }
  - { offsetInCU: 0x2D49, offset: 0x12CB14, size: 0x8, addend: 0x0, symName: '__ZN10proc_macro6bridge11scoped_cell19ScopedCell$LT$T$GT$7replace17hab812f843316b4d9E', symObjAddr: 0x560, symBinAddr: 0x38360, symSize: 0x380 }
  - { offsetInCU: 0x363B, offset: 0x12D406, size: 0x8, addend: 0x0, symName: '__ZN10proc_macro6bridge11scoped_cell19ScopedCell$LT$T$GT$7replace17he002ea5f8e391903E', symObjAddr: 0x8E0, symBinAddr: 0x386E0, symSize: 0x380 }
  - { offsetInCU: 0x1E, offset: 0x12E4D8, size: 0x8, addend: 0x0, symName: __ZN4core3fmt5Write10write_char17h12a2789518c57dbaE, symObjAddr: 0x0, symBinAddr: 0x38B60, symSize: 0x100 }
  - { offsetInCU: 0xC8, offset: 0x12E582, size: 0x8, addend: 0x0, symName: '__ZN80_$LT$std..io..Write..write_fmt..Adapter$LT$T$GT$$u20$as$u20$core..fmt..Write$GT$9write_str17hdaa56c47dfa7b823E', symObjAddr: 0x1E0, symBinAddr: 0x38D40, symSize: 0x3E }
  - { offsetInCU: 0x9F7, offset: 0x12EEB1, size: 0x8, addend: 0x0, symName: '__ZN4core3ptr81drop_in_place$LT$core..result..Result$LT$$LP$$RP$$C$std..io..error..Error$GT$$GT$17hb45a2ce6a3c7f100E', symObjAddr: 0x120, symBinAddr: 0x38C80, symSize: 0xB0 }
  - { offsetInCU: 0xE68, offset: 0x12F322, size: 0x8, addend: 0x0, symName: '__ZN4core3ptr92drop_in_place$LT$std..io..Write..write_fmt..Adapter$LT$std..sys..unix..stdio..Stderr$GT$$GT$17hf42507149e6893b3E', symObjAddr: 0x1D0, symBinAddr: 0x38D30, symSize: 0x10 }
  - { offsetInCU: 0xFEE, offset: 0x12F4A8, size: 0x8, addend: 0x0, symName: __ZN4core3fmt5Write10write_char17h12a2789518c57dbaE, symObjAddr: 0x0, symBinAddr: 0x38B60, symSize: 0x100 }
  - { offsetInCU: 0x1157, offset: 0x12F611, size: 0x8, addend: 0x0, symName: __ZN4core3fmt5Write9write_fmt17hccaa4a0b6f9430f2E, symObjAddr: 0x100, symBinAddr: 0x38C60, symSize: 0x20 }
  - { offsetInCU: 0x1E, offset: 0x12FD81, size: 0x8, addend: 0x0, symName: __ZN3std2io5Write9write_all17h5ef8a81edc2fe572E, symObjAddr: 0x0, symBinAddr: 0x38D80, symSize: 0xF0 }
  - { offsetInCU: 0x35, offset: 0x12FD98, size: 0x8, addend: 0x0, symName: _anon.6fba8f83193f26168e5be6635bfe4ab1.6.llvm.44592997054187209, symObjAddr: 0x328, symBinAddr: 0x26C5B0, symSize: 0x0 }
  - { offsetInCU: 0xE3, offset: 0x12FE46, size: 0x8, addend: 0x0, symName: __ZN3std2io5Write9write_all17h5ef8a81edc2fe572E, symObjAddr: 0x0, symBinAddr: 0x38D80, symSize: 0xF0 }
  - { offsetInCU: 0x35D, offset: 0x1300C0, size: 0x8, addend: 0x0, symName: __ZN3std2io5Write9write_fmt17h3023b8c42cc25b7dE, symObjAddr: 0xF0, symBinAddr: 0x38E70, symSize: 0x90 }
  - { offsetInCU: 0x141B, offset: 0x13117E, size: 0x8, addend: 0x0, symName: '__ZN4core3ptr42drop_in_place$LT$std..io..error..Error$GT$17h6fc8440234e57461E.llvm.44592997054187209', symObjAddr: 0x180, symBinAddr: 0x38F00, symSize: 0xA0 }
  - { offsetInCU: 0x187E, offset: 0x1315E1, size: 0x8, addend: 0x0, symName: '__ZN4core3ptr92drop_in_place$LT$std..io..Write..write_fmt..Adapter$LT$std..sys..unix..stdio..Stderr$GT$$GT$17hf42507149e6893b3E.llvm.44592997054187209', symObjAddr: 0x220, symBinAddr: 0x38FA0, symSize: 0x15 }
  - { offsetInCU: 0x1E, offset: 0x131F9F, size: 0x8, addend: 0x0, symName: '__ZN3std3sys6common12thread_local10fast_local12Key$LT$T$GT$14try_initialize17ha9fda815506a4a13E.llvm.1220784469458961883', symObjAddr: 0x0, symBinAddr: 0x38FC0, symSize: 0x150 }
  - { offsetInCU: 0x3E7, offset: 0x132368, size: 0x8, addend: 0x0, symName: __ZN3std3sys6common12thread_local10fast_local13destroy_value17h0e14aab90f260c93E, symObjAddr: 0x170, symBinAddr: 0x39110, symSize: 0xE0 }
  - { offsetInCU: 0xF93, offset: 0x132F14, size: 0x8, addend: 0x0, symName: '__ZN4core3ptr81drop_in_place$LT$core..result..Result$LT$$LP$$RP$$C$std..io..error..Error$GT$$GT$17hb45a2ce6a3c7f100E', symObjAddr: 0x250, symBinAddr: 0x391F0, symSize: 0xA5 }
  - { offsetInCU: 0x1C49, offset: 0x133BCA, size: 0x8, addend: 0x0, symName: '__ZN3std3sys6common12thread_local10fast_local12Key$LT$T$GT$14try_initialize17ha9fda815506a4a13E.llvm.1220784469458961883', symObjAddr: 0x0, symBinAddr: 0x38FC0, symSize: 0x150 }
  - { offsetInCU: 0x1E, offset: 0x134FB6, size: 0x8, addend: 0x0, symName: '__ZN4core3ptr73drop_in_place$LT$core..cell..UnsafeCell$LT$syn..parse..Unexpected$GT$$GT$17h45b816ca21452a35E.llvm.17881794647221132041', symObjAddr: 0x0, symBinAddr: 0x392A0, symSize: 0x50 }
  - { offsetInCU: 0xB35, offset: 0x135ACD, size: 0x8, addend: 0x0, symName: '__ZN4core3ptr73drop_in_place$LT$core..cell..UnsafeCell$LT$syn..parse..Unexpected$GT$$GT$17h45b816ca21452a35E.llvm.17881794647221132041', symObjAddr: 0x0, symBinAddr: 0x392A0, symSize: 0x50 }
  - { offsetInCU: 0x166C, offset: 0x136604, size: 0x8, addend: 0x0, symName: '__ZN68_$LT$alloc..rc..Rc$LT$T$C$A$GT$$u20$as$u20$core..ops..drop..Drop$GT$4drop17h2899e17eb25ecaf8E', symObjAddr: 0xC0, symBinAddr: 0x392F0, symSize: 0x30 }
  - { offsetInCU: 0x18E0, offset: 0x136878, size: 0x8, addend: 0x0, symName: '__ZN68_$LT$alloc..rc..Rc$LT$T$C$A$GT$$u20$as$u20$core..ops..drop..Drop$GT$4drop17h9e6053376c31e1faE', symObjAddr: 0xF0, symBinAddr: 0x39320, symSize: 0x40 }
  - { offsetInCU: 0x1B55, offset: 0x136AED, size: 0x8, addend: 0x0, symName: '__ZN68_$LT$alloc..rc..Rc$LT$T$C$A$GT$$u20$as$u20$core..ops..drop..Drop$GT$4drop17hab03d9f8559167c2E', symObjAddr: 0x130, symBinAddr: 0x39360, symSize: 0xDE }
  - { offsetInCU: 0x1E, offset: 0x137D37, size: 0x8, addend: 0x0, symName: __ZN3std9panicking3try17h5000947b41212ddfE, symObjAddr: 0x0, symBinAddr: 0x39440, symSize: 0x230 }
  - { offsetInCU: 0x4CE, offset: 0x1381E7, size: 0x8, addend: 0x0, symName: __ZN3std9panicking3try17h5000947b41212ddfE, symObjAddr: 0x0, symBinAddr: 0x39440, symSize: 0x230 }
  - { offsetInCU: 0x892, offset: 0x1385AB, size: 0x8, addend: 0x0, symName: __ZN3std9panicking3try17hec181e664bc84efdE, symObjAddr: 0x2D0, symBinAddr: 0x39670, symSize: 0x390 }
  - { offsetInCU: 0xF42, offset: 0x138C5B, size: 0x8, addend: 0x0, symName: __ZN3std9panicking3try17hf001507b0c8322d5E, symObjAddr: 0x660, symBinAddr: 0x39A00, symSize: 0x390 }
  - { offsetInCU: 0x1D29, offset: 0x139A42, size: 0x8, addend: 0x0, symName: '__ZN4core3ptr110drop_in_place$LT$$LP$proc_macro..bridge..client..TokenStream$C$proc_macro..bridge..client..TokenStream$RP$$GT$17hff6bed0233fa600fE', symObjAddr: 0x9F0, symBinAddr: 0x39D90, symSize: 0x40 }
  - { offsetInCU: 0x1DBE, offset: 0x139AD7, size: 0x8, addend: 0x0, symName: '__ZN4core3ptr522drop_in_place$LT$proc_macro..bridge..client..run_client$LT$$LP$proc_macro..bridge..client..TokenStream$C$proc_macro..bridge..client..TokenStream$RP$$C$core..option..Option$LT$proc_macro..bridge..client..TokenStream$GT$$C$proc_macro..bridge..client..Client$LT$$LP$proc_macro..TokenStream$C$proc_macro..TokenStream$RP$$C$proc_macro..TokenStream$GT$..expand2$LT$solana_frozen_abi_macro..frozen_abi$GT$..$u7b$$u7b$closure$u7d$$u7d$..$u7b$$u7b$closure$u7d$$u7d$$GT$..$u7b$$u7b$closure$u7d$$u7d$..$u7b$$u7b$closure$u7d$$u7d$$GT$17h2ff5007e9a761ea8E', symObjAddr: 0xA30, symBinAddr: 0x39DD0, symSize: 0xF0 }
  - { offsetInCU: 0x1FF5, offset: 0x139D0E, size: 0x8, addend: 0x0, symName: '__ZN4core3ptr52drop_in_place$LT$std..thread..local..AccessError$GT$17h9f162b94d08991deE', symObjAddr: 0xB20, symBinAddr: 0x39EC0, symSize: 0x6 }
  - { offsetInCU: 0x1E, offset: 0x13B2EB, size: 0x8, addend: 0x0, symName: '__ZN120_$LT$proc_macro2..fallback..TokenStream$u20$as$u20$core..iter..traits..collect..Extend$LT$proc_macro2..TokenTree$GT$$GT$6extend17hfd9aa8be6088fef0E', symObjAddr: 0x0, symBinAddr: 0x39ED0, symSize: 0x270 }
  - { offsetInCU: 0x918, offset: 0x13BBE5, size: 0x8, addend: 0x0, symName: '__ZN120_$LT$proc_macro2..fallback..TokenStream$u20$as$u20$core..iter..traits..collect..Extend$LT$proc_macro2..TokenTree$GT$$GT$6extend17hfd9aa8be6088fef0E', symObjAddr: 0x0, symBinAddr: 0x39ED0, symSize: 0x270 }
  - { offsetInCU: 0x1837, offset: 0x13CB04, size: 0x8, addend: 0x0, symName: '__ZN4core3ptr45drop_in_place$LT$proc_macro2..TokenStream$GT$17haa62b8a7735fd796E', symObjAddr: 0x270, symBinAddr: 0x3A140, symSize: 0x140 }
  - { offsetInCU: 0x35, offset: 0x13E652, size: 0x8, addend: 0x0, symName: _anon.c1a9171a43e588de312646f23ce05bb2.3.llvm.14332762539485706008, symObjAddr: 0xBA8, symBinAddr: 0x26C640, symSize: 0x0 }
  - { offsetInCU: 0x26D, offset: 0x13E88A, size: 0x8, addend: 0x0, symName: '__ZN77_$LT$$LP$A$C$B$RP$$u20$as$u20$proc_macro..bridge..rpc..DecodeMut$LT$S$GT$$GT$6decode17h1276c6e4c98ee443E', symObjAddr: 0x9A0, symBinAddr: 0x3A7A0, symSize: 0xC2 }
  - { offsetInCU: 0xA0B, offset: 0x13F028, size: 0x8, addend: 0x0, symName: __ZN10proc_macro6bridge6client10run_client17h1dc9cee854f96e9cE, symObjAddr: 0x210, symBinAddr: 0x3A280, symSize: 0x1B0 }
  - { offsetInCU: 0xD18, offset: 0x13F335, size: 0x8, addend: 0x0, symName: __ZN10proc_macro6bridge6client10run_client17h849855e73431a743E, symObjAddr: 0x3C0, symBinAddr: 0x3A430, symSize: 0x1B0 }
  - { offsetInCU: 0x104A, offset: 0x13F667, size: 0x8, addend: 0x0, symName: __ZN10proc_macro6bridge6client10run_client17h9c6bb11fa44168f0E, symObjAddr: 0x570, symBinAddr: 0x3A5E0, symSize: 0x1B0 }
  - { offsetInCU: 0x1569, offset: 0x13FB86, size: 0x8, addend: 0x0, symName: '__ZN4core3ptr52drop_in_place$LT$std..thread..local..AccessError$GT$17h9f162b94d08991deE.llvm.14332762539485706008', symObjAddr: 0x990, symBinAddr: 0x3A790, symSize: 0x10 }
  - { offsetInCU: 0x35, offset: 0x140827, size: 0x8, addend: 0x0, symName: _anon.459a2c6a55551394e98c6ffb3b11c96e.0.llvm.6883235284788714734, symObjAddr: 0x8B0, symBinAddr: 0x26C660, symSize: 0x0 }
  - { offsetInCU: 0x152, offset: 0x140944, size: 0x8, addend: 0x0, symName: '__ZN58_$LT$alloc..string..String$u20$as$u20$core..fmt..Write$GT$10write_char17hd329c0cb943f081aE.llvm.6883235284788714734', symObjAddr: 0x630, symBinAddr: 0x3ACB0, symSize: 0x130 }
  - { offsetInCU: 0x4FA, offset: 0x140CEC, size: 0x8, addend: 0x0, symName: '__ZN58_$LT$alloc..string..String$u20$as$u20$core..fmt..Write$GT$9write_str17h1ff5aa96ca91c6d5E.llvm.6883235284788714734', symObjAddr: 0x760, symBinAddr: 0x3ADE0, symSize: 0x5B }
  - { offsetInCU: 0xAEE, offset: 0x1412E0, size: 0x8, addend: 0x0, symName: '__ZN4core3ptr37drop_in_place$LT$core..fmt..Error$GT$17h3f8a9d7eb832f507E.llvm.6883235284788714734', symObjAddr: 0x4A0, symBinAddr: 0x3AB20, symSize: 0x10 }
  - { offsetInCU: 0xB1A, offset: 0x14130C, size: 0x8, addend: 0x0, symName: '__ZN4core3ptr42drop_in_place$LT$alloc..string..String$GT$17hb4d2a46681410ce0E.llvm.6883235284788714734', symObjAddr: 0x4B0, symBinAddr: 0x3AB30, symSize: 0x20 }
  - { offsetInCU: 0xD59, offset: 0x14154B, size: 0x8, addend: 0x0, symName: '__ZN4core3ptr45drop_in_place$LT$proc_macro2..TokenStream$GT$17haa62b8a7735fd796E.llvm.6883235284788714734', symObjAddr: 0x4D0, symBinAddr: 0x3AB50, symSize: 0x140 }
  - { offsetInCU: 0x127F, offset: 0x141A71, size: 0x8, addend: 0x0, symName: '__ZN53_$LT$core..fmt..Error$u20$as$u20$core..fmt..Debug$GT$3fmt17h43ae5cec9623af13E.llvm.6883235284788714734', symObjAddr: 0x610, symBinAddr: 0x3AC90, symSize: 0x20 }
  - { offsetInCU: 0x14BD, offset: 0x141CAF, size: 0x8, addend: 0x0, symName: _anon.459a2c6a55551394e98c6ffb3b11c96e.4.llvm.6883235284788714734, symObjAddr: 0x8F8, symBinAddr: 0x26C6A8, symSize: 0x0 }
  - { offsetInCU: 0x17CD, offset: 0x141FBF, size: 0x8, addend: 0x0, symName: __ZN3syn5error5Error11new_spanned17h79d5da70ebffc0edE, symObjAddr: 0x100, symBinAddr: 0x3A870, symSize: 0x190 }
  - { offsetInCU: 0x1A48, offset: 0x14223A, size: 0x8, addend: 0x0, symName: __ZN3syn5error5Error11new_spanned17hfe61644a0b8e3e6fE, symObjAddr: 0x290, symBinAddr: 0x3AA00, symSize: 0x120 }
  - { offsetInCU: 0x1E, offset: 0x14B07A, size: 0x8, addend: 0x0, symName: '__ZN4core3ptr43drop_in_place$LT$proc_macro2..TokenTree$GT$17h150790951fc6462dE.llvm.274879505439098988', symObjAddr: 0x0, symBinAddr: 0x3AE40, symSize: 0xB0 }
  - { offsetInCU: 0xE42, offset: 0x14BE9E, size: 0x8, addend: 0x0, symName: '__ZN4core3ptr43drop_in_place$LT$proc_macro2..TokenTree$GT$17h150790951fc6462dE.llvm.274879505439098988', symObjAddr: 0x0, symBinAddr: 0x3AE40, symSize: 0xB0 }
  - { offsetInCU: 0x18CC, offset: 0x14C928, size: 0x8, addend: 0x0, symName: '__ZN86_$LT$alloc..vec..into_iter..IntoIter$LT$T$C$A$GT$$u20$as$u20$core..ops..drop..Drop$GT$4drop17h2fc4770dba74c7d9E', symObjAddr: 0xB0, symBinAddr: 0x3AEF0, symSize: 0xD0 }
  - { offsetInCU: 0x1B9C, offset: 0x14CBF8, size: 0x8, addend: 0x0, symName: '__ZN86_$LT$alloc..vec..into_iter..IntoIter$LT$T$C$A$GT$$u20$as$u20$core..ops..drop..Drop$GT$4drop17hbd213ca6bb606518E', symObjAddr: 0x180, symBinAddr: 0x3AFC0, symSize: 0xE5 }
  - { offsetInCU: 0x1E, offset: 0x14D93B, size: 0x8, addend: 0x0, symName: __ZN4core3fmt5Write9write_fmt17h1ac3f06c0d310bb4E, symObjAddr: 0x0, symBinAddr: 0x3B0B0, symSize: 0x20 }
  - { offsetInCU: 0x89, offset: 0x14D9A6, size: 0x8, addend: 0x0, symName: '__ZN58_$LT$alloc..string..String$u20$as$u20$core..fmt..Write$GT$10write_char17hd329c0cb943f081aE', symObjAddr: 0x40, symBinAddr: 0x3B0F0, symSize: 0x130 }
  - { offsetInCU: 0x430, offset: 0x14DD4D, size: 0x8, addend: 0x0, symName: '__ZN58_$LT$alloc..string..String$u20$as$u20$core..fmt..Write$GT$9write_str17h1ff5aa96ca91c6d5E', symObjAddr: 0x170, symBinAddr: 0x3B220, symSize: 0x5B }
  - { offsetInCU: 0x956, offset: 0x14E273, size: 0x8, addend: 0x0, symName: '__ZN4core3ptr42drop_in_place$LT$alloc..string..String$GT$17hb4d2a46681410ce0E', symObjAddr: 0x20, symBinAddr: 0x3B0D0, symSize: 0x20 }
  - { offsetInCU: 0xC0C, offset: 0x14E529, size: 0x8, addend: 0x0, symName: __ZN4core3fmt5Write9write_fmt17h1ac3f06c0d310bb4E, symObjAddr: 0x0, symBinAddr: 0x3B0B0, symSize: 0x20 }
  - { offsetInCU: 0x1E, offset: 0x14EFD4, size: 0x8, addend: 0x0, symName: '__ZN115_$LT$proc_macro2..imp..TokenStream$u20$as$u20$core..iter..traits..collect..Extend$LT$proc_macro2..TokenTree$GT$$GT$6extend17h90e77d5ed9f58de1E', symObjAddr: 0x0, symBinAddr: 0x3B280, symSize: 0x110 }
  - { offsetInCU: 0x71F, offset: 0x14F6D5, size: 0x8, addend: 0x0, symName: '__ZN115_$LT$proc_macro2..imp..TokenStream$u20$as$u20$core..iter..traits..collect..Extend$LT$proc_macro2..TokenTree$GT$$GT$6extend17h90e77d5ed9f58de1E', symObjAddr: 0x0, symBinAddr: 0x3B280, symSize: 0x110 }
  - { offsetInCU: 0x14A3, offset: 0x150459, size: 0x8, addend: 0x0, symName: '__ZN4core3ptr56drop_in_place$LT$proc_macro2..token_stream..IntoIter$GT$17h69246f3228f7c742E.llvm.5773174383481683054', symObjAddr: 0x130, symBinAddr: 0x3B390, symSize: 0x20 }
  - { offsetInCU: 0x1E, offset: 0x1507A5, size: 0x8, addend: 0x0, symName: '__ZN10proc_macro6bridge100_$LT$impl$u20$proc_macro..bridge..rpc..Encode$LT$S$GT$$u20$for$u20$core..option..Option$LT$T$GT$$GT$6encode17h8464957710afed90E', symObjAddr: 0x0, symBinAddr: 0x3B3B0, symSize: 0x4F0 }
  - { offsetInCU: 0x3DA, offset: 0x150B61, size: 0x8, addend: 0x0, symName: '__ZN10proc_macro6bridge100_$LT$impl$u20$proc_macro..bridge..rpc..Encode$LT$S$GT$$u20$for$u20$core..option..Option$LT$T$GT$$GT$6encode17h8464957710afed90E', symObjAddr: 0x0, symBinAddr: 0x3B3B0, symSize: 0x4F0 }
  - { offsetInCU: 0xCA4, offset: 0x15142B, size: 0x8, addend: 0x0, symName: '__ZN10proc_macro6bridge100_$LT$impl$u20$proc_macro..bridge..rpc..Encode$LT$S$GT$$u20$for$u20$core..option..Option$LT$T$GT$$GT$6encode17h9a24ea66d38c0329E', symObjAddr: 0x4F0, symBinAddr: 0x3B8A0, symSize: 0x370 }
  - { offsetInCU: 0x1E, offset: 0x15201E, size: 0x8, addend: 0x0, symName: '__ZN10proc_macro6bridge104_$LT$impl$u20$proc_macro..bridge..rpc..Encode$LT$S$GT$$u20$for$u20$core..result..Result$LT$T$C$E$GT$$GT$6encode17h2849969e44d9eb28E', symObjAddr: 0x0, symBinAddr: 0x3BC10, symSize: 0x450 }
  - { offsetInCU: 0x16E, offset: 0x15216E, size: 0x8, addend: 0x0, symName: '__ZN10proc_macro6bridge104_$LT$impl$u20$proc_macro..bridge..rpc..Encode$LT$S$GT$$u20$for$u20$core..result..Result$LT$T$C$E$GT$$GT$6encode17h2849969e44d9eb28E', symObjAddr: 0x0, symBinAddr: 0x3BC10, symSize: 0x450 }
  - { offsetInCU: 0xA1E, offset: 0x152A1E, size: 0x8, addend: 0x0, symName: '__ZN10proc_macro6bridge104_$LT$impl$u20$proc_macro..bridge..rpc..Encode$LT$S$GT$$u20$for$u20$core..result..Result$LT$T$C$E$GT$$GT$6encode17ha53b8938eb26a8fcE', symObjAddr: 0x450, symBinAddr: 0x3C060, symSize: 0x3AD }
  - { offsetInCU: 0x1E, offset: 0x1539C1, size: 0x8, addend: 0x0, symName: __ZN10proc_macro6bridge14selfless_reify31reify_to_extern_c_fn_hrt_bridge7wrapper17h23d8d1435a54174cE, symObjAddr: 0x0, symBinAddr: 0x3C410, symSize: 0x20 }
  - { offsetInCU: 0x20E, offset: 0x153BB1, size: 0x8, addend: 0x0, symName: __ZN10proc_macro6bridge14selfless_reify31reify_to_extern_c_fn_hrt_bridge7wrapper17h23d8d1435a54174cE, symObjAddr: 0x0, symBinAddr: 0x3C410, symSize: 0x20 }
  - { offsetInCU: 0x286, offset: 0x153C29, size: 0x8, addend: 0x0, symName: __ZN10proc_macro6bridge14selfless_reify31reify_to_extern_c_fn_hrt_bridge7wrapper17h2d9d59c946b8e15eE, symObjAddr: 0x20, symBinAddr: 0x3C430, symSize: 0x20 }
  - { offsetInCU: 0x2FE, offset: 0x153CA1, size: 0x8, addend: 0x0, symName: __ZN10proc_macro6bridge14selfless_reify31reify_to_extern_c_fn_hrt_bridge7wrapper17h8da62307fcd2f6d4E, symObjAddr: 0x40, symBinAddr: 0x3C450, symSize: 0x20 }
  - { offsetInCU: 0x1E, offset: 0x153EE5, size: 0x8, addend: 0x0, symName: '__ZN4core3ptr45drop_in_place$LT$proc_macro2..TokenStream$GT$17haa62b8a7735fd796E.llvm.1460335776898505505', symObjAddr: 0x0, symBinAddr: 0x3C470, symSize: 0x140 }
  - { offsetInCU: 0xA81, offset: 0x154948, size: 0x8, addend: 0x0, symName: '__ZN4core3ptr45drop_in_place$LT$proc_macro2..TokenStream$GT$17haa62b8a7735fd796E.llvm.1460335776898505505', symObjAddr: 0x0, symBinAddr: 0x3C470, symSize: 0x140 }
  - { offsetInCU: 0x1E, offset: 0x155691, size: 0x8, addend: 0x0, symName: '__ZN77_$LT$$LP$A$C$B$RP$$u20$as$u20$proc_macro..bridge..rpc..DecodeMut$LT$S$GT$$GT$6decode17h3a2c66e0ad41bda1E', symObjAddr: 0x0, symBinAddr: 0x3C5B0, symSize: 0xE0 }
  - { offsetInCU: 0xB0, offset: 0x155723, size: 0x8, addend: 0x0, symName: '__ZN77_$LT$$LP$A$C$B$RP$$u20$as$u20$proc_macro..bridge..rpc..DecodeMut$LT$S$GT$$GT$6decode17h3a2c66e0ad41bda1E', symObjAddr: 0x0, symBinAddr: 0x3C5B0, symSize: 0xE0 }
  - { offsetInCU: 0xBD4, offset: 0x156247, size: 0x8, addend: 0x0, symName: '__ZN77_$LT$$LP$A$C$B$RP$$u20$as$u20$proc_macro..bridge..rpc..DecodeMut$LT$S$GT$$GT$6decode17haaded91e5d0a4838E', symObjAddr: 0xE0, symBinAddr: 0x3C690, symSize: 0xDA }
  - { offsetInCU: 0x1E, offset: 0x157214, size: 0x8, addend: 0x0, symName: '__ZN44_$LT$$RF$T$u20$as$u20$core..fmt..Display$GT$3fmt17h389f0b3349a463ddE', symObjAddr: 0x0, symBinAddr: 0x3C770, symSize: 0x10 }
  - { offsetInCU: 0x64, offset: 0x15725A, size: 0x8, addend: 0x0, symName: '__ZN44_$LT$$RF$T$u20$as$u20$core..fmt..Display$GT$3fmt17h389f0b3349a463ddE', symObjAddr: 0x0, symBinAddr: 0x3C770, symSize: 0x10 }
  - { offsetInCU: 0x1E, offset: 0x1577E2, size: 0x8, addend: 0x0, symName: '__ZN42_$LT$$RF$T$u20$as$u20$core..fmt..Debug$GT$3fmt17h61c088ff49545556E', symObjAddr: 0x0, symBinAddr: 0x3C780, symSize: 0x10 }
  - { offsetInCU: 0x8FD, offset: 0x1580C1, size: 0x8, addend: 0x0, symName: '__ZN42_$LT$$RF$T$u20$as$u20$core..fmt..Debug$GT$3fmt17h61c088ff49545556E', symObjAddr: 0x0, symBinAddr: 0x3C780, symSize: 0x10 }
  - { offsetInCU: 0x944, offset: 0x158108, size: 0x8, addend: 0x0, symName: '__ZN42_$LT$$RF$T$u20$as$u20$core..fmt..Debug$GT$3fmt17he50bd96bd9ba97f0E', symObjAddr: 0x10, symBinAddr: 0x3C790, symSize: 0xD }
  - { offsetInCU: 0x1E, offset: 0x15FD0F, size: 0x8, addend: 0x0, symName: '__ZN42_$LT$$RF$T$u20$as$u20$core..fmt..Debug$GT$3fmt17h218dd5be85f7194dE', symObjAddr: 0x0, symBinAddr: 0x3C7F0, symSize: 0x10 }
  - { offsetInCU: 0x4E8C, offset: 0x164B7D, size: 0x8, addend: 0x0, symName: '__ZN3syn4item7parsing63_$LT$impl$u20$syn..parse..Parse$u20$for$u20$syn..item..Item$GT$5parse17h2dd33e0a14c1cf15E', symObjAddr: 0xCE00, symBinAddr: 0x48FC0, symSize: 0x1D0 }
  - { offsetInCU: 0x547B, offset: 0x16516C, size: 0x8, addend: 0x0, symName: '__ZN3syn4item7parsing68_$LT$impl$u20$syn..parse..Parse$u20$for$u20$syn..item..ItemMacro$GT$5parse17hd2dbdd16085cb5b3E', symObjAddr: 0xCFD0, symBinAddr: 0x49190, symSize: 0x690 }
  - { offsetInCU: 0x60CC, offset: 0x165DBD, size: 0x8, addend: 0x0, symName: '__ZN3syn4item7parsing74_$LT$impl$u20$syn..parse..Parse$u20$for$u20$syn..item..ItemExternCrate$GT$5parse17h6d92f7f00cd41009E', symObjAddr: 0xD660, symBinAddr: 0x49820, symSize: 0x850 }
  - { offsetInCU: 0x72C4, offset: 0x166FB5, size: 0x8, addend: 0x0, symName: '__ZN3syn4item7parsing75_$LT$impl$u20$syn..parse..Parse$u20$for$u20$syn..item..StaticMutability$GT$5parse17haf0db4a36b052efeE', symObjAddr: 0x1E720, symBinAddr: 0x543D0, symSize: 0x90 }
  - { offsetInCU: 0x7477, offset: 0x167168, size: 0x8, addend: 0x0, symName: '__ZN3syn4item7parsing68_$LT$impl$u20$syn..parse..Parse$u20$for$u20$syn..item..Signature$GT$5parse17h046b786ec6aea09bE', symObjAddr: 0xF5D0, symBinAddr: 0x4A070, symSize: 0xA00 }
  - { offsetInCU: 0x80A9, offset: 0x167D9A, size: 0x8, addend: 0x0, symName: '__ZN3syn4item7parsing67_$LT$impl$u20$syn..parse..Parse$u20$for$u20$syn..item..Receiver$GT$5parse17h14ef46bb1836effbE', symObjAddr: 0x10510, symBinAddr: 0x4AA70, symSize: 0xA40 }
  - { offsetInCU: 0x92C9, offset: 0x168FBA, size: 0x8, addend: 0x0, symName: '__ZN3syn4item7parsing66_$LT$impl$u20$syn..parse..Parse$u20$for$u20$syn..item..ItemMod$GT$5parse17hdc999b9cf7b8d7bdE', symObjAddr: 0x10F50, symBinAddr: 0x4B4B0, symSize: 0xC30 }
  - { offsetInCU: 0xAE8E, offset: 0x16AB7F, size: 0x8, addend: 0x0, symName: '__ZN3syn4item7parsing73_$LT$impl$u20$syn..parse..Parse$u20$for$u20$syn..item..ItemForeignMod$GT$5parse17h6272e3455d73c09eE', symObjAddr: 0x11B80, symBinAddr: 0x4C0E0, symSize: 0x6E0 }
  - { offsetInCU: 0xBD01, offset: 0x16B9F2, size: 0x8, addend: 0x0, symName: '__ZN3syn4item7parsing70_$LT$impl$u20$syn..parse..Parse$u20$for$u20$syn..item..ForeignItem$GT$5parse17hc264003d8c78165cE', symObjAddr: 0x12260, symBinAddr: 0x4C7C0, symSize: 0x1A40 }
  - { offsetInCU: 0x10078, offset: 0x16FD69, size: 0x8, addend: 0x0, symName: '__ZN3syn4item7parsing69_$LT$impl$u20$syn..parse..Parse$u20$for$u20$syn..item..ItemStruct$GT$5parse17h9ee5a6f8e0cb788fE', symObjAddr: 0x15D30, symBinAddr: 0x4E200, symSize: 0x730 }
  - { offsetInCU: 0x10AF6, offset: 0x1707E7, size: 0x8, addend: 0x0, symName: '__ZN3syn4item7parsing67_$LT$impl$u20$syn..parse..Parse$u20$for$u20$syn..item..ItemEnum$GT$5parse17h3908fae5439ca017E', symObjAddr: 0x16460, symBinAddr: 0x4E930, symSize: 0x6A0 }
  - { offsetInCU: 0x11571, offset: 0x171262, size: 0x8, addend: 0x0, symName: '__ZN3syn4item7parsing68_$LT$impl$u20$syn..parse..Parse$u20$for$u20$syn..item..ItemUnion$GT$5parse17hcf21badb7f5d91b4E', symObjAddr: 0x16B00, symBinAddr: 0x4EFD0, symSize: 0x670 }
  - { offsetInCU: 0x11FD2, offset: 0x171CC3, size: 0x8, addend: 0x0, symName: '__ZN3syn4item7parsing68_$LT$impl$u20$syn..parse..Parse$u20$for$u20$syn..item..ItemTrait$GT$5parse17he79f83c126b307abE', symObjAddr: 0x17170, symBinAddr: 0x4F640, symSize: 0x690 }
  - { offsetInCU: 0x12C4F, offset: 0x172940, size: 0x8, addend: 0x0, symName: '__ZN3syn4item7parsing68_$LT$impl$u20$syn..parse..Parse$u20$for$u20$syn..item..TraitItem$GT$5parse17ha2b7a47a4118920dE', symObjAddr: 0x17940, symBinAddr: 0x4FCD0, symSize: 0x1D60 }
  - { offsetInCU: 0x187C0, offset: 0x1784B1, size: 0x8, addend: 0x0, symName: '__ZN3syn4item7parsing70_$LT$impl$u20$syn..parse..Parse$u20$for$u20$syn..item..TraitItemFn$GT$5parse17h2bd112e785c11adaE', symObjAddr: 0x1A020, symBinAddr: 0x51A30, symSize: 0x9A0 }
  - { offsetInCU: 0x19EE7, offset: 0x179BD8, size: 0x8, addend: 0x0, symName: '__ZN3syn4item7parsing67_$LT$impl$u20$syn..parse..Parse$u20$for$u20$syn..item..ImplItem$GT$5parse17h7e88a76fe14f8010E', symObjAddr: 0x1B2D0, symBinAddr: 0x523D0, symSize: 0x1CD0 }
  - { offsetInCU: 0x1F067, offset: 0x17ED58, size: 0x8, addend: 0x0, symName: '__ZN3syn4item7parsing72_$LT$impl$u20$syn..parse..Parse$u20$for$u20$syn..item..ImplItemMacro$GT$5parse17h0ef0a527c904192aE', symObjAddr: 0x1E3F0, symBinAddr: 0x540A0, symSize: 0x0 }
  - { offsetInCU: 0x1F6CF, offset: 0x17F3C0, size: 0x8, addend: 0x0, symName: '__ZN3syn4item8printing83_$LT$impl$u20$quote..to_tokens..ToTokens$u20$for$u20$syn..item..ItemExternCrate$GT$9to_tokens17h3856a361ae758360E', symObjAddr: 0x1E7B0, symBinAddr: 0x54460, symSize: 0x250 }
  - { offsetInCU: 0x1FCB3, offset: 0x17F9A4, size: 0x8, addend: 0x0, symName: '__ZN3syn4item8printing78_$LT$impl$u20$quote..to_tokens..ToTokens$u20$for$u20$syn..item..ItemStatic$GT$9to_tokens17h415e4cd72a569389E', symObjAddr: 0x1EBA0, symBinAddr: 0x546B0, symSize: 0x230 }
  - { offsetInCU: 0x2021A, offset: 0x17FF0B, size: 0x8, addend: 0x0, symName: '__ZN3syn4item8printing74_$LT$impl$u20$quote..to_tokens..ToTokens$u20$for$u20$syn..item..ItemFn$GT$9to_tokens17h8cdf913637011784E', symObjAddr: 0x1EFA0, symBinAddr: 0x548E0, symSize: 0x3A0 }
  - { offsetInCU: 0x20BB9, offset: 0x1808AA, size: 0x8, addend: 0x0, symName: '__ZN3syn4item8printing75_$LT$impl$u20$quote..to_tokens..ToTokens$u20$for$u20$syn..item..ItemMod$GT$9to_tokens17h22b2effb376191d4E', symObjAddr: 0x1F340, symBinAddr: 0x54C80, symSize: 0x240 }
  - { offsetInCU: 0x210D6, offset: 0x180DC7, size: 0x8, addend: 0x0, symName: '__ZN3syn4item8printing76_$LT$impl$u20$quote..to_tokens..ToTokens$u20$for$u20$syn..item..ItemType$GT$9to_tokens17h55a6083d8668ddf6E', symObjAddr: 0x1F750, symBinAddr: 0x54EC0, symSize: 0x1C0 }
  - { offsetInCU: 0x21479, offset: 0x18116A, size: 0x8, addend: 0x0, symName: '__ZN3syn4item8printing76_$LT$impl$u20$quote..to_tokens..ToTokens$u20$for$u20$syn..item..ItemEnum$GT$9to_tokens17he3e74c1ab5c0582aE', symObjAddr: 0x1F910, symBinAddr: 0x55080, symSize: 0x180 }
  - { offsetInCU: 0x217A2, offset: 0x181493, size: 0x8, addend: 0x0, symName: '__ZN3syn4item8printing78_$LT$impl$u20$quote..to_tokens..ToTokens$u20$for$u20$syn..item..ItemStruct$GT$9to_tokens17h37d4984ce3001d19E', symObjAddr: 0x1FA90, symBinAddr: 0x55200, symSize: 0x230 }
  - { offsetInCU: 0x21BC5, offset: 0x1818B6, size: 0x8, addend: 0x0, symName: '__ZN3syn4item8printing77_$LT$impl$u20$quote..to_tokens..ToTokens$u20$for$u20$syn..item..ItemTrait$GT$9to_tokens17h5df32068ce60d15cE', symObjAddr: 0x1FE50, symBinAddr: 0x55430, symSize: 0x350 }
  - { offsetInCU: 0x22551, offset: 0x182242, size: 0x8, addend: 0x0, symName: '__ZN3syn4item8printing82_$LT$impl$u20$quote..to_tokens..ToTokens$u20$for$u20$syn..item..ItemTraitAlias$GT$9to_tokens17hc929f21bb6c5846dE', symObjAddr: 0x201A0, symBinAddr: 0x55780, symSize: 0x240 }
  - { offsetInCU: 0x22B95, offset: 0x182886, size: 0x8, addend: 0x0, symName: '__ZN3syn4item8printing76_$LT$impl$u20$quote..to_tokens..ToTokens$u20$for$u20$syn..item..ItemImpl$GT$9to_tokens17hbc6239c00e6682fbE', symObjAddr: 0x203E0, symBinAddr: 0x559C0, symSize: 0x300 }
  - { offsetInCU: 0x23320, offset: 0x183011, size: 0x8, addend: 0x0, symName: '__ZN3syn4item8printing77_$LT$impl$u20$quote..to_tokens..ToTokens$u20$for$u20$syn..item..ItemMacro$GT$9to_tokens17hebd52fd8a1615986E', symObjAddr: 0x206E0, symBinAddr: 0x55CC0, symSize: 0x180 }
  - { offsetInCU: 0x236CC, offset: 0x1833BD, size: 0x8, addend: 0x0, symName: '__ZN3syn4item8printing82_$LT$impl$u20$quote..to_tokens..ToTokens$u20$for$u20$syn..item..TraitItemConst$GT$9to_tokens17h089a36b809968ef3E', symObjAddr: 0x209B0, symBinAddr: 0x55E40, symSize: 0x1D0 }
  - { offsetInCU: 0x23A58, offset: 0x183749, size: 0x8, addend: 0x0, symName: '__ZN3syn4item8printing79_$LT$impl$u20$quote..to_tokens..ToTokens$u20$for$u20$syn..item..TraitItemFn$GT$9to_tokens17haad3b80ba26c3976E', symObjAddr: 0x20B80, symBinAddr: 0x56010, symSize: 0x420 }
  - { offsetInCU: 0x24496, offset: 0x184187, size: 0x8, addend: 0x0, symName: '__ZN3syn4item8printing81_$LT$impl$u20$quote..to_tokens..ToTokens$u20$for$u20$syn..item..TraitItemType$GT$9to_tokens17h64c3182d37c64beaE', symObjAddr: 0x20FA0, symBinAddr: 0x56430, symSize: 0x2B0 }
  - { offsetInCU: 0x24BDD, offset: 0x1848CE, size: 0x8, addend: 0x0, symName: '__ZN3syn4item8printing81_$LT$impl$u20$quote..to_tokens..ToTokens$u20$for$u20$syn..item..ImplItemConst$GT$9to_tokens17hf0f4212b62d7bc92E', symObjAddr: 0x21250, symBinAddr: 0x566E0, symSize: 0x250 }
  - { offsetInCU: 0x2508D, offset: 0x184D7E, size: 0x8, addend: 0x0, symName: '__ZN3syn4item8printing78_$LT$impl$u20$quote..to_tokens..ToTokens$u20$for$u20$syn..item..ImplItemFn$GT$9to_tokens17hd72deb71e24247ddE', symObjAddr: 0x214A0, symBinAddr: 0x56930, symSize: 0x410 }
  - { offsetInCU: 0x25B81, offset: 0x185872, size: 0x8, addend: 0x0, symName: '__ZN3syn4item8printing80_$LT$impl$u20$quote..to_tokens..ToTokens$u20$for$u20$syn..item..ImplItemType$GT$9to_tokens17h633e35cead6fe332E', symObjAddr: 0x218B0, symBinAddr: 0x56D40, symSize: 0x240 }
  - { offsetInCU: 0x26067, offset: 0x185D58, size: 0x8, addend: 0x0, symName: '__ZN3syn4item8printing81_$LT$impl$u20$quote..to_tokens..ToTokens$u20$for$u20$syn..item..ForeignItemFn$GT$9to_tokens17hf978c504af4624b9E', symObjAddr: 0x21C00, symBinAddr: 0x56F80, symSize: 0x3C0 }
  - { offsetInCU: 0x26A2E, offset: 0x18671F, size: 0x8, addend: 0x0, symName: '__ZN3syn4item8printing85_$LT$impl$u20$quote..to_tokens..ToTokens$u20$for$u20$syn..item..ForeignItemStatic$GT$9to_tokens17h6dca73543b11328bE', symObjAddr: 0x21FC0, symBinAddr: 0x57340, symSize: 0x210 }
  - { offsetInCU: 0x26F16, offset: 0x186C07, size: 0x8, addend: 0x0, symName: '__ZN3syn4item8printing76_$LT$impl$u20$quote..to_tokens..ToTokens$u20$for$u20$syn..item..Receiver$GT$9to_tokens17hb998d2cc4ddf9c5aE', symObjAddr: 0x22650, symBinAddr: 0x57550, symSize: 0x2F0 }
  - { offsetInCU: 0x276DA, offset: 0x1873CB, size: 0x8, addend: 0x0, symName: '__ZN3syn4item8printing76_$LT$impl$u20$quote..to_tokens..ToTokens$u20$for$u20$syn..item..Variadic$GT$9to_tokens17h395edb0d0a0434c1E', symObjAddr: 0x22940, symBinAddr: 0x57840, symSize: 0x150 }
  - { offsetInCU: 0x27A11, offset: 0x187702, size: 0x8, addend: 0x0, symName: '__ZN62_$LT$syn..item..Item$u20$as$u20$quote..to_tokens..ToTokens$GT$9to_tokens17h16b724a3317228f3E', symObjAddr: 0x22B20, symBinAddr: 0x57990, symSize: 0xB70 }
  - { offsetInCU: 0x2908A, offset: 0x188D7B, size: 0x8, addend: 0x0, symName: '__ZN65_$LT$syn..item..UseTree$u20$as$u20$quote..to_tokens..ToTokens$GT$9to_tokens17h058bd86238a4a925E', symObjAddr: 0x23690, symBinAddr: 0x58500, symSize: 0x300 }
  - { offsetInCU: 0x29948, offset: 0x189639, size: 0x8, addend: 0x0, symName: '__ZN69_$LT$syn..item..ForeignItem$u20$as$u20$quote..to_tokens..ToTokens$GT$9to_tokens17ha60ee0587a491822E', symObjAddr: 0x23990, symBinAddr: 0x58800, symSize: 0x320 }
  - { offsetInCU: 0x29EF1, offset: 0x189BE2, size: 0x8, addend: 0x0, symName: '__ZN67_$LT$syn..item..TraitItem$u20$as$u20$quote..to_tokens..ToTokens$GT$9to_tokens17hd73ca22881a357f6E', symObjAddr: 0x23CB0, symBinAddr: 0x58B20, symSize: 0x1B0 }
  - { offsetInCU: 0x2A1CB, offset: 0x189EBC, size: 0x8, addend: 0x0, symName: '__ZN66_$LT$syn..item..ImplItem$u20$as$u20$quote..to_tokens..ToTokens$GT$9to_tokens17h8caf1b608d7ccb4bE', symObjAddr: 0x23E60, symBinAddr: 0x58CD0, symSize: 0x1B0 }
  - { offsetInCU: 0x2A6E5, offset: 0x18A3D6, size: 0x8, addend: 0x0, symName: '__ZN3syn3gen5debug63_$LT$impl$u20$core..fmt..Debug$u20$for$u20$syn..item..FnArg$GT$3fmt17h739710b0d226e7fdE', symObjAddr: 0x295E0, symBinAddr: 0x5DF40, symSize: 0xA0 }
  - { offsetInCU: 0x2A7A3, offset: 0x18A494, size: 0x8, addend: 0x0, symName: '__ZN3syn3gen5debug69_$LT$impl$u20$core..fmt..Debug$u20$for$u20$syn..item..ForeignItem$GT$3fmt17hc4c903f91f777578E', symObjAddr: 0x29680, symBinAddr: 0x5DFE0, symSize: 0x2D0 }
  - { offsetInCU: 0x2A96E, offset: 0x18A65F, size: 0x8, addend: 0x0, symName: '__ZN3syn3gen5debug66_$LT$impl$u20$core..fmt..Debug$u20$for$u20$syn..item..ImplItem$GT$3fmt17hcb2c74dd126898abE', symObjAddr: 0x29D00, symBinAddr: 0x5E3E0, symSize: 0x250 }
  - { offsetInCU: 0x2AAF4, offset: 0x18A7E5, size: 0x8, addend: 0x0, symName: '__ZN3syn3gen5debug62_$LT$impl$u20$core..fmt..Debug$u20$for$u20$syn..item..Item$GT$3fmt17h46e8baac9437fce6E', symObjAddr: 0x2A410, symBinAddr: 0x5E930, symSize: 0x630 }
  - { offsetInCU: 0x2AE9A, offset: 0x18AB8B, size: 0x8, addend: 0x0, symName: '__ZN3syn3gen5debug66_$LT$impl$u20$core..fmt..Debug$u20$for$u20$syn..item..Receiver$GT$3fmt17h9d56050c4c1a55aaE', symObjAddr: 0x2BCD0, symBinAddr: 0x5FC50, symSize: 0x100 }
  - { offsetInCU: 0x2AEFE, offset: 0x18ABEF, size: 0x8, addend: 0x0, symName: '__ZN3syn3gen5debug67_$LT$impl$u20$core..fmt..Debug$u20$for$u20$syn..item..Signature$GT$3fmt17ha0d026490ad3f845E', symObjAddr: 0x2BDD0, symBinAddr: 0x5FD50, symSize: 0x1A0 }
  - { offsetInCU: 0x2AF62, offset: 0x18AC53, size: 0x8, addend: 0x0, symName: '__ZN3syn3gen5debug74_$LT$impl$u20$core..fmt..Debug$u20$for$u20$syn..item..StaticMutability$GT$3fmt17he927557191bd3225E', symObjAddr: 0x2BF70, symBinAddr: 0x5FEF0, symSize: 0xA0 }
  - { offsetInCU: 0x2AFE5, offset: 0x18ACD6, size: 0x8, addend: 0x0, symName: '__ZN3syn3gen5debug67_$LT$impl$u20$core..fmt..Debug$u20$for$u20$syn..item..TraitItem$GT$3fmt17h6343608db9cf4776E', symObjAddr: 0x2C010, symBinAddr: 0x5FF90, symSize: 0x230 }
  - { offsetInCU: 0x2B16B, offset: 0x18AE5C, size: 0x8, addend: 0x0, symName: '__ZN3syn3gen5debug65_$LT$impl$u20$core..fmt..Debug$u20$for$u20$syn..item..UseGlob$GT$3fmt17h262b8b1a47647144E', symObjAddr: 0x2C660, symBinAddr: 0x60440, symSize: 0x60 }
  - { offsetInCU: 0x2B1CF, offset: 0x18AEC0, size: 0x8, addend: 0x0, symName: '__ZN3syn3gen5debug66_$LT$impl$u20$core..fmt..Debug$u20$for$u20$syn..item..UseGroup$GT$3fmt17h99e24f6cc58cc2d6E', symObjAddr: 0x2C6C0, symBinAddr: 0x604A0, symSize: 0x80 }
  - { offsetInCU: 0x2B233, offset: 0x18AF24, size: 0x8, addend: 0x0, symName: '__ZN3syn3gen5debug65_$LT$impl$u20$core..fmt..Debug$u20$for$u20$syn..item..UseName$GT$3fmt17hfab76202e8ca0d9aE', symObjAddr: 0x2C740, symBinAddr: 0x60520, symSize: 0x60 }
  - { offsetInCU: 0x2B297, offset: 0x18AF88, size: 0x8, addend: 0x0, symName: '__ZN3syn3gen5debug65_$LT$impl$u20$core..fmt..Debug$u20$for$u20$syn..item..UsePath$GT$3fmt17h14eae1a2e8f3bc8fE', symObjAddr: 0x2C7A0, symBinAddr: 0x60580, symSize: 0xA0 }
  - { offsetInCU: 0x2B2FB, offset: 0x18AFEC, size: 0x8, addend: 0x0, symName: '__ZN3syn3gen5debug67_$LT$impl$u20$core..fmt..Debug$u20$for$u20$syn..item..UseRename$GT$3fmt17h04a50c0adcd951b6E', symObjAddr: 0x2C840, symBinAddr: 0x60620, symSize: 0xA0 }
  - { offsetInCU: 0x2B35F, offset: 0x18B050, size: 0x8, addend: 0x0, symName: '__ZN3syn3gen5debug65_$LT$impl$u20$core..fmt..Debug$u20$for$u20$syn..item..UseTree$GT$3fmt17h3a32810fc22181f9E', symObjAddr: 0x2C8E0, symBinAddr: 0x606C0, symSize: 0x140 }
  - { offsetInCU: 0x2B5FF, offset: 0x18B2F0, size: 0x8, addend: 0x0, symName: '__ZN3syn3gen2eq73_$LT$impl$u20$core..cmp..PartialEq$u20$for$u20$syn..item..ForeignItem$GT$2eq17h9378770bd1a52bf7E', symObjAddr: 0x2CB10, symBinAddr: 0x60800, symSize: 0x530 }
  - { offsetInCU: 0x2BEFE, offset: 0x18BBEF, size: 0x8, addend: 0x0, symName: '__ZN3syn3gen2eq70_$LT$impl$u20$core..cmp..PartialEq$u20$for$u20$syn..item..ImplItem$GT$2eq17h2523487caeba3bafE', symObjAddr: 0x2D420, symBinAddr: 0x60D30, symSize: 0x4B0 }
  - { offsetInCU: 0x2C589, offset: 0x18C27A, size: 0x8, addend: 0x0, symName: '__ZN3syn3gen2eq75_$LT$impl$u20$core..cmp..PartialEq$u20$for$u20$syn..item..ImplItemConst$GT$2eq17h9779f6c237018964E', symObjAddr: 0x2D8D0, symBinAddr: 0x611E0, symSize: 0x1B0 }
  - { offsetInCU: 0x2C944, offset: 0x18C635, size: 0x8, addend: 0x0, symName: '__ZN3syn3gen2eq66_$LT$impl$u20$core..cmp..PartialEq$u20$for$u20$syn..item..Item$GT$2eq17hc25cbf50ec760a93E', symObjAddr: 0x2DF10, symBinAddr: 0x61390, symSize: 0xD70 }
  - { offsetInCU: 0x2DD85, offset: 0x18DA76, size: 0x8, addend: 0x0, symName: '__ZN3syn3gen2eq71_$LT$impl$u20$core..cmp..PartialEq$u20$for$u20$syn..item..ItemConst$GT$2eq17hf0a45ec0224b42f2E', symObjAddr: 0x2EC80, symBinAddr: 0x62100, symSize: 0x180 }
  - { offsetInCU: 0x2DFA5, offset: 0x18DC96, size: 0x8, addend: 0x0, symName: '__ZN3syn3gen2eq76_$LT$impl$u20$core..cmp..PartialEq$u20$for$u20$syn..item..ItemForeignMod$GT$2eq17h8769415f89992facE', symObjAddr: 0x2F320, symBinAddr: 0x62280, symSize: 0x1B0 }
  - { offsetInCU: 0x2E332, offset: 0x18E023, size: 0x8, addend: 0x0, symName: '__ZN3syn3gen2eq70_$LT$impl$u20$core..cmp..PartialEq$u20$for$u20$syn..item..ItemImpl$GT$2eq17h8afc8f28792ddafaE', symObjAddr: 0x2F4D0, symBinAddr: 0x62430, symSize: 0x1E0 }
  - { offsetInCU: 0x2E6DB, offset: 0x18E3CC, size: 0x8, addend: 0x0, symName: '__ZN3syn3gen2eq69_$LT$impl$u20$core..cmp..PartialEq$u20$for$u20$syn..item..ItemMod$GT$2eq17hd95094672936ef48E', symObjAddr: 0x2F810, symBinAddr: 0x62610, symSize: 0x1B0 }
  - { offsetInCU: 0x2EB17, offset: 0x18E808, size: 0x8, addend: 0x0, symName: '__ZN3syn3gen2eq72_$LT$impl$u20$core..cmp..PartialEq$u20$for$u20$syn..item..ItemStatic$GT$2eq17h32d3576e1129611fE', symObjAddr: 0x2F9C0, symBinAddr: 0x627C0, symSize: 0x160 }
  - { offsetInCU: 0x2ED69, offset: 0x18EA5A, size: 0x8, addend: 0x0, symName: '__ZN3syn3gen2eq71_$LT$impl$u20$core..cmp..PartialEq$u20$for$u20$syn..item..ItemTrait$GT$2eq17h5737f4da57cd9b26E', symObjAddr: 0x2FCA0, symBinAddr: 0x62920, symSize: 0x1E0 }
  - { offsetInCU: 0x2F066, offset: 0x18ED57, size: 0x8, addend: 0x0, symName: '__ZN3syn3gen2eq70_$LT$impl$u20$core..cmp..PartialEq$u20$for$u20$syn..item..Receiver$GT$2eq17h34c9ea9b22a2843fE', symObjAddr: 0x304C0, symBinAddr: 0x62B00, symSize: 0x180 }
  - { offsetInCU: 0x2F3F3, offset: 0x18F0E4, size: 0x8, addend: 0x0, symName: '__ZN3syn3gen2eq71_$LT$impl$u20$core..cmp..PartialEq$u20$for$u20$syn..item..Signature$GT$2eq17h631f22fa113549b5E', symObjAddr: 0x30640, symBinAddr: 0x62C80, symSize: 0x160 }
  - { offsetInCU: 0x2F7E1, offset: 0x18F4D2, size: 0x8, addend: 0x0, symName: '__ZN3syn3gen2eq71_$LT$impl$u20$core..cmp..PartialEq$u20$for$u20$syn..item..TraitItem$GT$2eq17h1d645730d981eae8E', symObjAddr: 0x307A0, symBinAddr: 0x62DE0, symSize: 0x4A0 }
  - { offsetInCU: 0x2FFF1, offset: 0x18FCE2, size: 0x8, addend: 0x0, symName: '__ZN3syn3gen2eq75_$LT$impl$u20$core..cmp..PartialEq$u20$for$u20$syn..item..TraitItemType$GT$2eq17h860690d34713edc1E', symObjAddr: 0x30FC0, symBinAddr: 0x63280, symSize: 0x250 }
  - { offsetInCU: 0x30529, offset: 0x19021A, size: 0x8, addend: 0x0, symName: '__ZN3syn3gen2eq69_$LT$impl$u20$core..cmp..PartialEq$u20$for$u20$syn..item..UseTree$GT$2eq17h047650ff77009348E', symObjAddr: 0x31370, symBinAddr: 0x634D0, symSize: 0x180 }
  - { offsetInCU: 0x307EE, offset: 0x1904DF, size: 0x8, addend: 0x0, symName: '__ZN3syn3gen2eq70_$LT$impl$u20$core..cmp..PartialEq$u20$for$u20$syn..item..Variadic$GT$2eq17h563744eaae2db9e1E', symObjAddr: 0x314F0, symBinAddr: 0x63650, symSize: 0x12F }
  - { offsetInCU: 0x30B13, offset: 0x190804, size: 0x8, addend: 0x0, symName: '__ZN3syn3gen5clone71_$LT$impl$u20$core..clone..Clone$u20$for$u20$syn..item..ForeignItem$GT$5clone17h1c1af2fb1e22cf37E', symObjAddr: 0x240B0, symBinAddr: 0x58E80, symSize: 0x2B0 }
  - { offsetInCU: 0x30F2C, offset: 0x190C1D, size: 0x8, addend: 0x0, symName: '__ZN3syn3gen5clone77_$LT$impl$u20$core..clone..Clone$u20$for$u20$syn..item..ForeignItemStatic$GT$5clone17h9025ae3b0e2de955E', symObjAddr: 0x24450, symBinAddr: 0x59130, symSize: 0x1E0 }
  - { offsetInCU: 0x3143F, offset: 0x191130, size: 0x8, addend: 0x0, symName: '__ZN3syn3gen5clone75_$LT$impl$u20$core..clone..Clone$u20$for$u20$syn..item..ForeignItemType$GT$5clone17h01954e3b9fb9f725E', symObjAddr: 0x24630, symBinAddr: 0x59310, symSize: 0x250 }
  - { offsetInCU: 0x317C1, offset: 0x1914B2, size: 0x8, addend: 0x0, symName: '__ZN3syn3gen5clone68_$LT$impl$u20$core..clone..Clone$u20$for$u20$syn..item..ImplItem$GT$5clone17hbbdbceaa9dc75fb8E', symObjAddr: 0x24880, symBinAddr: 0x59560, symSize: 0x1F0 }
  - { offsetInCU: 0x31B34, offset: 0x191825, size: 0x8, addend: 0x0, symName: '__ZN3syn3gen5clone73_$LT$impl$u20$core..clone..Clone$u20$for$u20$syn..item..ImplItemConst$GT$5clone17h5bada8c903397ea9E', symObjAddr: 0x24A70, symBinAddr: 0x59750, symSize: 0x390 }
  - { offsetInCU: 0x31F06, offset: 0x191BF7, size: 0x8, addend: 0x0, symName: '__ZN3syn3gen5clone70_$LT$impl$u20$core..clone..Clone$u20$for$u20$syn..item..ImplItemFn$GT$5clone17h569fe64371aceabcE', symObjAddr: 0x24E00, symBinAddr: 0x59AE0, symSize: 0x190 }
  - { offsetInCU: 0x31F89, offset: 0x191C7A, size: 0x8, addend: 0x0, symName: '__ZN3syn3gen5clone72_$LT$impl$u20$core..clone..Clone$u20$for$u20$syn..item..ImplItemType$GT$5clone17h1322b0329e89fcb7E', symObjAddr: 0x25020, symBinAddr: 0x59C70, symSize: 0x340 }
  - { offsetInCU: 0x3232D, offset: 0x19201E, size: 0x8, addend: 0x0, symName: '__ZN3syn3gen5clone64_$LT$impl$u20$core..clone..Clone$u20$for$u20$syn..item..Item$GT$5clone17h3822ba1a7b611a95E', symObjAddr: 0x25360, symBinAddr: 0x59FB0, symSize: 0x3E0 }
  - { offsetInCU: 0x327BB, offset: 0x1924AC, size: 0x8, addend: 0x0, symName: '__ZN3syn3gen5clone69_$LT$impl$u20$core..clone..Clone$u20$for$u20$syn..item..ItemConst$GT$5clone17hf94d4c0cb1435c70E', symObjAddr: 0x25740, symBinAddr: 0x5A390, symSize: 0x3F0 }
  - { offsetInCU: 0x33018, offset: 0x192D09, size: 0x8, addend: 0x0, symName: '__ZN3syn3gen5clone68_$LT$impl$u20$core..clone..Clone$u20$for$u20$syn..item..ItemEnum$GT$5clone17h6464ab27732649f4E', symObjAddr: 0x25B30, symBinAddr: 0x5A780, symSize: 0x2F0 }
  - { offsetInCU: 0x33347, offset: 0x193038, size: 0x8, addend: 0x0, symName: '__ZN3syn3gen5clone75_$LT$impl$u20$core..clone..Clone$u20$for$u20$syn..item..ItemExternCrate$GT$5clone17hd0b8bc33744042bfE', symObjAddr: 0x25E20, symBinAddr: 0x5AA70, symSize: 0x190 }
  - { offsetInCU: 0x336BC, offset: 0x1933AD, size: 0x8, addend: 0x0, symName: '__ZN3syn3gen5clone66_$LT$impl$u20$core..clone..Clone$u20$for$u20$syn..item..ItemFn$GT$5clone17hdd17c93ecf7b0462E', symObjAddr: 0x25FB0, symBinAddr: 0x5AC00, symSize: 0x1A0 }
  - { offsetInCU: 0x3396B, offset: 0x19365C, size: 0x8, addend: 0x0, symName: '__ZN3syn3gen5clone74_$LT$impl$u20$core..clone..Clone$u20$for$u20$syn..item..ItemForeignMod$GT$5clone17hd37d574f73aedecaE', symObjAddr: 0x26150, symBinAddr: 0x5ADA0, symSize: 0xF0 }
  - { offsetInCU: 0x33AB5, offset: 0x1937A6, size: 0x8, addend: 0x0, symName: '__ZN3syn3gen5clone68_$LT$impl$u20$core..clone..Clone$u20$for$u20$syn..item..ItemImpl$GT$5clone17h661327ebe729eaadE', symObjAddr: 0x26240, symBinAddr: 0x5AE90, symSize: 0x400 }
  - { offsetInCU: 0x33FA3, offset: 0x193C94, size: 0x8, addend: 0x0, symName: '__ZN3syn3gen5clone69_$LT$impl$u20$core..clone..Clone$u20$for$u20$syn..item..ItemMacro$GT$5clone17h3526bbfccdbd5b31E', symObjAddr: 0x26640, symBinAddr: 0x5B290, symSize: 0x110 }
  - { offsetInCU: 0x3420E, offset: 0x193EFF, size: 0x8, addend: 0x0, symName: '__ZN3syn3gen5clone67_$LT$impl$u20$core..clone..Clone$u20$for$u20$syn..item..ItemMod$GT$5clone17h8794abff9978c514E', symObjAddr: 0x26750, symBinAddr: 0x5B3A0, symSize: 0x1D0 }
  - { offsetInCU: 0x34516, offset: 0x194207, size: 0x8, addend: 0x0, symName: '__ZN3syn3gen5clone70_$LT$impl$u20$core..clone..Clone$u20$for$u20$syn..item..ItemStatic$GT$5clone17h61a9dbf1056765ccE', symObjAddr: 0x26920, symBinAddr: 0x5B570, symSize: 0x290 }
  - { offsetInCU: 0x34C9C, offset: 0x19498D, size: 0x8, addend: 0x0, symName: '__ZN3syn3gen5clone70_$LT$impl$u20$core..clone..Clone$u20$for$u20$syn..item..ItemStruct$GT$5clone17heb954f61bacea375E', symObjAddr: 0x26BB0, symBinAddr: 0x5B800, symSize: 0x380 }
  - { offsetInCU: 0x3506A, offset: 0x194D5B, size: 0x8, addend: 0x0, symName: '__ZN3syn3gen5clone69_$LT$impl$u20$core..clone..Clone$u20$for$u20$syn..item..ItemTrait$GT$5clone17h82453ad16e043bb6E', symObjAddr: 0x26F30, symBinAddr: 0x5BB80, symSize: 0x3A0 }
  - { offsetInCU: 0x35409, offset: 0x1950FA, size: 0x8, addend: 0x0, symName: '__ZN3syn3gen5clone74_$LT$impl$u20$core..clone..Clone$u20$for$u20$syn..item..ItemTraitAlias$GT$5clone17h5350a93e40fedfe9E', symObjAddr: 0x272D0, symBinAddr: 0x5BF20, symSize: 0x2F0 }
  - { offsetInCU: 0x35794, offset: 0x195485, size: 0x8, addend: 0x0, symName: '__ZN3syn3gen5clone68_$LT$impl$u20$core..clone..Clone$u20$for$u20$syn..item..ItemType$GT$5clone17hb9556c5f3da70cdaE', symObjAddr: 0x275C0, symBinAddr: 0x5C210, symSize: 0x330 }
  - { offsetInCU: 0x35D7C, offset: 0x195A6D, size: 0x8, addend: 0x0, symName: '__ZN3syn3gen5clone69_$LT$impl$u20$core..clone..Clone$u20$for$u20$syn..item..ItemUnion$GT$5clone17hb2c9b467b08be8acE', symObjAddr: 0x278F0, symBinAddr: 0x5C540, symSize: 0x340 }
  - { offsetInCU: 0x360CA, offset: 0x195DBB, size: 0x8, addend: 0x0, symName: '__ZN3syn3gen5clone67_$LT$impl$u20$core..clone..Clone$u20$for$u20$syn..item..ItemUse$GT$5clone17h5fb5ac7ab331a1f9E', symObjAddr: 0x27C30, symBinAddr: 0x5C880, symSize: 0x130 }
  - { offsetInCU: 0x3618A, offset: 0x195E7B, size: 0x8, addend: 0x0, symName: '__ZN3syn3gen5clone68_$LT$impl$u20$core..clone..Clone$u20$for$u20$syn..item..Receiver$GT$5clone17he1632aad4eb00ea9E', symObjAddr: 0x27D60, symBinAddr: 0x5C9B0, symSize: 0x1C0 }
  - { offsetInCU: 0x36610, offset: 0x196301, size: 0x8, addend: 0x0, symName: '__ZN3syn3gen5clone69_$LT$impl$u20$core..clone..Clone$u20$for$u20$syn..item..Signature$GT$5clone17hcd624a7329112f28E', symObjAddr: 0x27F20, symBinAddr: 0x5CB70, symSize: 0x550 }
  - { offsetInCU: 0x36DDF, offset: 0x196AD0, size: 0x8, addend: 0x0, symName: '__ZN3syn3gen5clone69_$LT$impl$u20$core..clone..Clone$u20$for$u20$syn..item..TraitItem$GT$5clone17h91969da39aa9081aE', symObjAddr: 0x28470, symBinAddr: 0x5D0C0, symSize: 0x1F0 }
  - { offsetInCU: 0x37152, offset: 0x196E43, size: 0x8, addend: 0x0, symName: '__ZN3syn3gen5clone74_$LT$impl$u20$core..clone..Clone$u20$for$u20$syn..item..TraitItemConst$GT$5clone17h7b25f837a5eddbbaE', symObjAddr: 0x28660, symBinAddr: 0x5D2B0, symSize: 0x350 }
  - { offsetInCU: 0x3752E, offset: 0x19721F, size: 0x8, addend: 0x0, symName: '__ZN3syn3gen5clone71_$LT$impl$u20$core..clone..Clone$u20$for$u20$syn..item..TraitItemFn$GT$5clone17h6b12e4721dd5a3afE', symObjAddr: 0x289B0, symBinAddr: 0x5D600, symSize: 0x140 }
  - { offsetInCU: 0x375F7, offset: 0x1972E8, size: 0x8, addend: 0x0, symName: '__ZN3syn3gen5clone73_$LT$impl$u20$core..clone..Clone$u20$for$u20$syn..item..TraitItemType$GT$5clone17h03e91f5baa26948fE', symObjAddr: 0x28AF0, symBinAddr: 0x5D740, symSize: 0x360 }
  - { offsetInCU: 0x37A84, offset: 0x197775, size: 0x8, addend: 0x0, symName: '__ZN3syn3gen5clone67_$LT$impl$u20$core..clone..Clone$u20$for$u20$syn..item..UseTree$GT$5clone17hecc6e062c969de2cE', symObjAddr: 0x29140, symBinAddr: 0x5DAA0, symSize: 0x390 }
  - { offsetInCU: 0x384A8, offset: 0x198199, size: 0x8, addend: 0x0, symName: '__ZN3syn3gen5clone68_$LT$impl$u20$core..clone..Clone$u20$for$u20$syn..item..Variadic$GT$5clone17h5d88b3ac0ece19b6E', symObjAddr: 0x294D0, symBinAddr: 0x5DE30, symSize: 0x110 }
  - { offsetInCU: 0x3AD08, offset: 0x19A9F9, size: 0x8, addend: 0x0, symName: '__ZN4core3ptr100drop_in_place$LT$core..option..Option$LT$alloc..boxed..Box$LT$syn..path..GenericArgument$GT$$GT$$GT$17h7435c9de74860622E', symObjAddr: 0x300, symBinAddr: 0x3C8F0, symSize: 0x50 }
  - { offsetInCU: 0x3B0A8, offset: 0x19AD99, size: 0x8, addend: 0x0, symName: '__ZN4core3ptr100drop_in_place$LT$syn..punctuated..Punctuated$LT$syn..path..PathSegment$C$syn..token..PathSep$GT$$GT$17hf414cb3581f8337aE', symObjAddr: 0x350, symBinAddr: 0x3C940, symSize: 0x260 }
  - { offsetInCU: 0x3BA22, offset: 0x19B713, size: 0x8, addend: 0x0, symName: '__ZN4core3ptr102drop_in_place$LT$$RF$$LP$syn..token..And$C$core..option..Option$LT$syn..lifetime..Lifetime$GT$$RP$$GT$17h40e389dc34c84e5cE', symObjAddr: 0x5B0, symBinAddr: 0x3CBA0, symSize: 0x10 }
  - { offsetInCU: 0x3BA6D, offset: 0x19B75E, size: 0x8, addend: 0x0, symName: '__ZN4core3ptr103drop_in_place$LT$core..option..Option$LT$alloc..boxed..Box$LT$syn..generics..TypeParamBound$GT$$GT$$GT$17h5974f03e36b1a9c3E', symObjAddr: 0x5C0, symBinAddr: 0x3CBB0, symSize: 0x50 }
  - { offsetInCU: 0x3BCB8, offset: 0x19B9A9, size: 0x8, addend: 0x0, symName: '__ZN4core3ptr103drop_in_place$LT$core..option..Option$LT$alloc..boxed..Box$LT$syn..generics..WherePredicate$GT$$GT$$GT$17hdd5111a374d8d6f2E', symObjAddr: 0x610, symBinAddr: 0x3CC00, symSize: 0xD0 }
  - { offsetInCU: 0x3C04B, offset: 0x19BD3C, size: 0x8, addend: 0x0, symName: '__ZN4core3ptr103drop_in_place$LT$syn..punctuated..Punctuated$LT$syn..generics..GenericParam$C$syn..token..Comma$GT$$GT$17hf42353fa44ed6da8E', symObjAddr: 0x6E0, symBinAddr: 0x3CCD0, symSize: 0xF0 }
  - { offsetInCU: 0x3C4B1, offset: 0x19C1A2, size: 0x8, addend: 0x0, symName: '__ZN4core3ptr104drop_in_place$LT$syn..punctuated..Punctuated$LT$syn..generics..TypeParamBound$C$syn..token..Plus$GT$$GT$17h532f52c4a894b056E', symObjAddr: 0x7D0, symBinAddr: 0x3CDC0, symSize: 0x190 }
  - { offsetInCU: 0x3CAC7, offset: 0x19C7B8, size: 0x8, addend: 0x0, symName: '__ZN4core3ptr107drop_in_place$LT$$LP$syn..restriction..Visibility$C$core..option..Option$LT$syn..token..Default$GT$$RP$$GT$17h8ea01d3f0e99b7f1E', symObjAddr: 0x960, symBinAddr: 0x3CF50, symSize: 0x60 }
  - { offsetInCU: 0x3CC96, offset: 0x19C987, size: 0x8, addend: 0x0, symName: '__ZN4core3ptr115drop_in_place$LT$core..option..Option$LT$$LP$alloc..boxed..Box$LT$syn..pat..Pat$GT$$C$syn..token..Colon$RP$$GT$$GT$17he854acc3c4717d92E', symObjAddr: 0x9C0, symBinAddr: 0x3CFB0, symSize: 0x50 }
  - { offsetInCU: 0x3CE6A, offset: 0x19CB5B, size: 0x8, addend: 0x0, symName: '__ZN4core3ptr115drop_in_place$LT$core..option..Option$LT$$LP$syn..token..Brace$C$alloc..vec..Vec$LT$syn..item..Item$GT$$RP$$GT$$GT$17h6df5bf3d47177236E', symObjAddr: 0xA10, symBinAddr: 0x3D000, symSize: 0xE0 }
  - { offsetInCU: 0x3D111, offset: 0x19CE02, size: 0x8, addend: 0x0, symName: '__ZN4core3ptr126drop_in_place$LT$core..option..Option$LT$$LP$syn..token..And$C$core..option..Option$LT$syn..lifetime..Lifetime$GT$$RP$$GT$$GT$17hc269ac95805979aaE', symObjAddr: 0xAF0, symBinAddr: 0x3D0E0, symSize: 0x30 }
  - { offsetInCU: 0x3D28A, offset: 0x19CF7B, size: 0x8, addend: 0x0, symName: '__ZN4core3ptr136drop_in_place$LT$core..option..Option$LT$$LP$core..option..Option$LT$syn..token..Not$GT$$C$syn..path..Path$C$syn..token..For$RP$$GT$$GT$17h50e98632d34c1529E', symObjAddr: 0xB20, symBinAddr: 0x3D110, symSize: 0x20 }
  - { offsetInCU: 0x3D3FC, offset: 0x19D0ED, size: 0x8, addend: 0x0, symName: '__ZN4core3ptr33drop_in_place$LT$syn..ty..Abi$GT$17h82d9e208356e7513E', symObjAddr: 0xB40, symBinAddr: 0x3D130, symSize: 0x60 }
  - { offsetInCU: 0x3D716, offset: 0x19D407, size: 0x8, addend: 0x0, symName: '__ZN4core3ptr34drop_in_place$LT$syn..lit..Lit$GT$17h8902f5ff67917034E', symObjAddr: 0xBA0, symBinAddr: 0x3D190, symSize: 0x110 }
  - { offsetInCU: 0x3DC50, offset: 0x19D941, size: 0x8, addend: 0x0, symName: '__ZN4core3ptr34drop_in_place$LT$syn..pat..Pat$GT$17h4581eea028ec0969E', symObjAddr: 0xCB0, symBinAddr: 0x3D2A0, symSize: 0x1000 }
  - { offsetInCU: 0x416DA, offset: 0x1A13CB, size: 0x8, addend: 0x0, symName: '__ZN4core3ptr34drop_in_place$LT$syn..ty..Type$GT$17h369e41ad4a9f1ae0E', symObjAddr: 0x1CB0, symBinAddr: 0x3E2A0, symSize: 0x500 }
  - { offsetInCU: 0x42C55, offset: 0x1A2946, size: 0x8, addend: 0x0, symName: '__ZN4core3ptr36drop_in_place$LT$syn..expr..Expr$GT$17h0f7fd4c749bae801E', symObjAddr: 0x21B0, symBinAddr: 0x3E7A0, symSize: 0x28E0 }
  - { offsetInCU: 0x4C524, offset: 0x1AC215, size: 0x8, addend: 0x0, symName: '__ZN4core3ptr36drop_in_place$LT$syn..item..Item$GT$17h13f5a53479ba6379E', symObjAddr: 0x4A90, symBinAddr: 0x41080, symSize: 0x1990 }
  - { offsetInCU: 0x521CF, offset: 0x1B1EC0, size: 0x8, addend: 0x0, symName: '__ZN4core3ptr36drop_in_place$LT$syn..mac..Macro$GT$17h4ffde962df30ebe2E', symObjAddr: 0x6420, symBinAddr: 0x42A10, symSize: 0x40 }
  - { offsetInCU: 0x52209, offset: 0x1B1EFA, size: 0x8, addend: 0x0, symName: '__ZN4core3ptr36drop_in_place$LT$syn..path..Path$GT$17habea856181211e1cE', symObjAddr: 0x6460, symBinAddr: 0x42A50, symSize: 0x220 }
  - { offsetInCU: 0x52B3E, offset: 0x1B282F, size: 0x8, addend: 0x0, symName: '__ZN4core3ptr37drop_in_place$LT$syn..stmt..Block$GT$17hcc21a21cf949414cE', symObjAddr: 0x6680, symBinAddr: 0x42C70, symSize: 0xD0 }
  - { offsetInCU: 0x52E01, offset: 0x1B2AF2, size: 0x8, addend: 0x0, symName: '__ZN4core3ptr38drop_in_place$LT$syn..data..Fields$GT$17h1dd1b203befc1316E', symObjAddr: 0x6750, symBinAddr: 0x42D40, symSize: 0x190 }
  - { offsetInCU: 0x5321F, offset: 0x1B2F10, size: 0x8, addend: 0x0, symName: '__ZN4core3ptr38drop_in_place$LT$syn..expr..Member$GT$17h022cbe5553aa40faE', symObjAddr: 0x68E0, symBinAddr: 0x42ED0, symSize: 0x30 }
  - { offsetInCU: 0x5331C, offset: 0x1B300D, size: 0x8, addend: 0x0, symName: '__ZN4core3ptr38drop_in_place$LT$syn..pat..PatType$GT$17hcbbce80a195201a4E.llvm.3361240308741372715', symObjAddr: 0x6910, symBinAddr: 0x42F00, symSize: 0x140 }
  - { offsetInCU: 0x53864, offset: 0x1B3555, size: 0x8, addend: 0x0, symName: '__ZN4core3ptr39drop_in_place$LT$proc_macro2..Ident$GT$17h8101e88c3ac359d6E', symObjAddr: 0x6A50, symBinAddr: 0x43040, symSize: 0x30 }
  - { offsetInCU: 0x53942, offset: 0x1B3633, size: 0x8, addend: 0x0, symName: '__ZN4core3ptr39drop_in_place$LT$syn..item..UseGlob$GT$17hbb4c5d2da65bfc6aE.llvm.3361240308741372715', symObjAddr: 0x6A80, symBinAddr: 0x43070, symSize: 0x10 }
  - { offsetInCU: 0x5396E, offset: 0x1B365F, size: 0x8, addend: 0x0, symName: '__ZN4core3ptr39drop_in_place$LT$syn..item..UseName$GT$17hd3ea2ee6f7950940E.llvm.3361240308741372715', symObjAddr: 0x6A90, symBinAddr: 0x43080, symSize: 0x30 }
  - { offsetInCU: 0x53A6B, offset: 0x1B375C, size: 0x8, addend: 0x0, symName: '__ZN4core3ptr39drop_in_place$LT$syn..item..UsePath$GT$17h586c5b7dff289c79E.llvm.3361240308741372715', symObjAddr: 0x6AC0, symBinAddr: 0x430B0, symSize: 0x40 }
  - { offsetInCU: 0x53BE4, offset: 0x1B38D5, size: 0x8, addend: 0x0, symName: '__ZN4core3ptr39drop_in_place$LT$syn..item..UseTree$GT$17h5b1281a5704d139dE', symObjAddr: 0x6B00, symBinAddr: 0x430F0, symSize: 0xD0 }
  - { offsetInCU: 0x53FF6, offset: 0x1B3CE7, size: 0x8, addend: 0x0, symName: '__ZN4core3ptr40drop_in_place$LT$syn..item..ImplItem$GT$17he2e6e8f15695ea55E', symObjAddr: 0x6BD0, symBinAddr: 0x431C0, symSize: 0x5E0 }
  - { offsetInCU: 0x550C1, offset: 0x1B4DB2, size: 0x8, addend: 0x0, symName: '__ZN4core3ptr40drop_in_place$LT$syn..item..Receiver$GT$17h6743a41cd869c536E.llvm.3361240308741372715', symObjAddr: 0x71B0, symBinAddr: 0x437A0, symSize: 0x130 }
  - { offsetInCU: 0x55635, offset: 0x1B5326, size: 0x8, addend: 0x0, symName: '__ZN4core3ptr40drop_in_place$LT$syn..item..UseGroup$GT$17h3c51ac5f80036f17E.llvm.3361240308741372715', symObjAddr: 0x72E0, symBinAddr: 0x438D0, symSize: 0x10 }
  - { offsetInCU: 0x5566F, offset: 0x1B5360, size: 0x8, addend: 0x0, symName: '__ZN4core3ptr40drop_in_place$LT$syn..item..Variadic$GT$17h856c1da4a3922974E', symObjAddr: 0x72F0, symBinAddr: 0x438E0, symSize: 0x120 }
  - { offsetInCU: 0x55A9B, offset: 0x1B578C, size: 0x8, addend: 0x0, symName: '__ZN4core3ptr40drop_in_place$LT$syn..ty..ReturnType$GT$17h02cf41e2fec63d90E', symObjAddr: 0x7410, symBinAddr: 0x43A00, symSize: 0x50 }
  - { offsetInCU: 0x55C0D, offset: 0x1B58FE, size: 0x8, addend: 0x0, symName: '__ZN4core3ptr41drop_in_place$LT$syn..expr..ExprConst$GT$17h725a13e551d9f276E', symObjAddr: 0x7460, symBinAddr: 0x43A50, symSize: 0x180 }
  - { offsetInCU: 0x56181, offset: 0x1B5E72, size: 0x8, addend: 0x0, symName: '__ZN4core3ptr41drop_in_place$LT$syn..item..Signature$GT$17h691f115807a5d1eeE', symObjAddr: 0x75E0, symBinAddr: 0x43BD0, symSize: 0x160 }
  - { offsetInCU: 0x56887, offset: 0x1B6578, size: 0x8, addend: 0x0, symName: '__ZN4core3ptr41drop_in_place$LT$syn..item..TraitItem$GT$17hb6f9fbcba8fdea85E', symObjAddr: 0x7740, symBinAddr: 0x43D30, symSize: 0x6E0 }
  - { offsetInCU: 0x57B6E, offset: 0x1B785F, size: 0x8, addend: 0x0, symName: '__ZN4core3ptr41drop_in_place$LT$syn..item..UseRename$GT$17hd81a1308e7eef0aeE.llvm.3361240308741372715', symObjAddr: 0x7E20, symBinAddr: 0x44410, symSize: 0x50 }
  - { offsetInCU: 0x57D47, offset: 0x1B7A38, size: 0x8, addend: 0x0, symName: '__ZN4core3ptr42drop_in_place$LT$syn..item..ImplItemFn$GT$17h753bae801f2662d9E', symObjAddr: 0x7E70, symBinAddr: 0x44460, symSize: 0x200 }
  - { offsetInCU: 0x58417, offset: 0x1B8108, size: 0x8, addend: 0x0, symName: '__ZN4core3ptr43drop_in_place$LT$syn..data..FieldsNamed$GT$17hb2a97e73a85352cbE', symObjAddr: 0x8070, symBinAddr: 0x44660, symSize: 0xE0 }
  - { offsetInCU: 0x58782, offset: 0x1B8473, size: 0x8, addend: 0x0, symName: '__ZN4core3ptr43drop_in_place$LT$syn..item..ForeignItem$GT$17h1398b9aa0a6e4c9dE', symObjAddr: 0x8150, symBinAddr: 0x44740, symSize: 0x610 }
  - { offsetInCU: 0x59C74, offset: 0x1B9965, size: 0x8, addend: 0x0, symName: '__ZN4core3ptr44drop_in_place$LT$syn..generics..Generics$GT$17h10dea28dec64f81eE', symObjAddr: 0x8760, symBinAddr: 0x44D50, symSize: 0x40 }
  - { offsetInCU: 0x59C91, offset: 0x1B9982, size: 0x8, addend: 0x0, symName: '__ZN4core3ptr44drop_in_place$LT$syn..lifetime..Lifetime$GT$17hf0cdec2e9ec456d6E', symObjAddr: 0x87A0, symBinAddr: 0x44D90, symSize: 0x30 }
  - { offsetInCU: 0x59E0A, offset: 0x1B9AFB, size: 0x8, addend: 0x0, symName: '__ZN4core3ptr44drop_in_place$LT$syn..parse..ParseBuffer$GT$17hd0dadba44a19aec2E.llvm.3361240308741372715', symObjAddr: 0x87D0, symBinAddr: 0x44DC0, symSize: 0x70 }
  - { offsetInCU: 0x5A23F, offset: 0x1B9F30, size: 0x8, addend: 0x0, symName: '__ZN4core3ptr45drop_in_place$LT$proc_macro2..TokenStream$GT$17h3405f6c513e9f6cbE', symObjAddr: 0x8840, symBinAddr: 0x44E30, symSize: 0x140 }
  - { offsetInCU: 0x5A6AE, offset: 0x1BA39F, size: 0x8, addend: 0x0, symName: '__ZN4core3ptr45drop_in_place$LT$syn..generics..TypeParam$GT$17he5eda51070b7de47E', symObjAddr: 0x8980, symBinAddr: 0x44F70, symSize: 0x230 }
  - { offsetInCU: 0x5AEAA, offset: 0x1BAB9B, size: 0x8, addend: 0x0, symName: '__ZN4core3ptr46drop_in_place$LT$syn..generics..ConstParam$GT$17hab0a58c4af8c549cE', symObjAddr: 0x8BB0, symBinAddr: 0x451A0, symSize: 0x150 }
  - { offsetInCU: 0x5B2D4, offset: 0x1BAFC5, size: 0x8, addend: 0x0, symName: '__ZN4core3ptr47drop_in_place$LT$syn..path..GenericArgument$GT$17h54f8794633f96823E', symObjAddr: 0x8D00, symBinAddr: 0x452F0, symSize: 0x4A0 }
  - { offsetInCU: 0x5C37B, offset: 0x1BC06C, size: 0x8, addend: 0x0, symName: '__ZN4core3ptr49drop_in_place$LT$syn..generics..LifetimeParam$GT$17h41a7c7a290ea6289E', symObjAddr: 0x91A0, symBinAddr: 0x45790, symSize: 0xF0 }
  - { offsetInCU: 0x5C735, offset: 0x1BC426, size: 0x8, addend: 0x0, symName: '__ZN4core3ptr49drop_in_place$LT$syn..restriction..Visibility$GT$17h2a932c493942ef80E', symObjAddr: 0x9290, symBinAddr: 0x45880, symSize: 0x60 }
  - { offsetInCU: 0x5C8BC, offset: 0x1BC5AD, size: 0x8, addend: 0x0, symName: '__ZN4core3ptr50drop_in_place$LT$syn..generics..TypeParamBound$GT$17hcd7771d4c6c221efE', symObjAddr: 0x92F0, symBinAddr: 0x458E0, symSize: 0x160 }
  - { offsetInCU: 0x5CCFB, offset: 0x1BC9EC, size: 0x8, addend: 0x0, symName: '__ZN4core3ptr58drop_in_place$LT$alloc..vec..Vec$LT$syn..expr..Arm$GT$$GT$17h1a55df3d2cba1daaE', symObjAddr: 0x9480, symBinAddr: 0x45A40, symSize: 0xD0 }
  - { offsetInCU: 0x5CF88, offset: 0x1BCC79, size: 0x8, addend: 0x0, symName: '__ZN4core3ptr59drop_in_place$LT$alloc..boxed..Box$LT$syn..pat..Pat$GT$$GT$17h563b135d87aca8abE', symObjAddr: 0x9550, symBinAddr: 0x45B10, symSize: 0x50 }
  - { offsetInCU: 0x5D0E3, offset: 0x1BCDD4, size: 0x8, addend: 0x0, symName: '__ZN4core3ptr59drop_in_place$LT$alloc..boxed..Box$LT$syn..ty..Type$GT$$GT$17hffed36bad83adacbE', symObjAddr: 0x95A0, symBinAddr: 0x45B60, symSize: 0x50 }
  - { offsetInCU: 0x5D23E, offset: 0x1BCF2F, size: 0x8, addend: 0x0, symName: '__ZN4core3ptr59drop_in_place$LT$alloc..vec..Vec$LT$syn..item..Item$GT$$GT$17hf874c2ed1282c93cE', symObjAddr: 0x95F0, symBinAddr: 0x45BB0, symSize: 0xD0 }
  - { offsetInCU: 0x5D4CB, offset: 0x1BD1BC, size: 0x8, addend: 0x0, symName: '__ZN4core3ptr59drop_in_place$LT$alloc..vec..Vec$LT$syn..stmt..Stmt$GT$$GT$17hb5c1acf3c61c43e2E', symObjAddr: 0x96C0, symBinAddr: 0x45C80, symSize: 0xD0 }
  - { offsetInCU: 0x5D758, offset: 0x1BD449, size: 0x8, addend: 0x0, symName: '__ZN4core3ptr61drop_in_place$LT$alloc..boxed..Box$LT$syn..expr..Expr$GT$$GT$17h01091e47f131475dE', symObjAddr: 0x9790, symBinAddr: 0x45D50, symSize: 0x50 }
  - { offsetInCU: 0x5D8B3, offset: 0x1BD5A4, size: 0x8, addend: 0x0, symName: '__ZN4core3ptr61drop_in_place$LT$core..option..Option$LT$syn..ty..Abi$GT$$GT$17hb6f77ddb0a13b372E', symObjAddr: 0x97E0, symBinAddr: 0x45DA0, symSize: 0x70 }
  - { offsetInCU: 0x5DC68, offset: 0x1BD959, size: 0x8, addend: 0x0, symName: '__ZN4core3ptr61drop_in_place$LT$syn..path..ParenthesizedGenericArguments$GT$17h43d4aac5494326a7E', symObjAddr: 0x9850, symBinAddr: 0x45E10, symSize: 0x170 }
  - { offsetInCU: 0x5E22F, offset: 0x1BDF20, size: 0x8, addend: 0x0, symName: '__ZN4core3ptr62drop_in_place$LT$alloc..boxed..Box$LT$syn..stmt..Block$GT$$GT$17h30434998ae0f12a8E', symObjAddr: 0x99C0, symBinAddr: 0x45F80, symSize: 0xE0 }
  - { offsetInCU: 0x5E610, offset: 0x1BE301, size: 0x8, addend: 0x0, symName: '__ZN4core3ptr62drop_in_place$LT$syn..path..AngleBracketedGenericArguments$GT$17hc5b69f68243636ddE', symObjAddr: 0x9AA0, symBinAddr: 0x46060, symSize: 0x120 }
  - { offsetInCU: 0x5EA26, offset: 0x1BE717, size: 0x8, addend: 0x0, symName: '__ZN4core3ptr63drop_in_place$LT$alloc..boxed..Box$LT$syn..lit..LitRepr$GT$$GT$17hd8839b7fb35ee7afE', symObjAddr: 0x9BC0, symBinAddr: 0x46180, symSize: 0x60 }
  - { offsetInCU: 0x5ECFC, offset: 0x1BE9ED, size: 0x8, addend: 0x0, symName: '__ZN4core3ptr63drop_in_place$LT$alloc..vec..Vec$LT$syn..item..ImplItem$GT$$GT$17hda9ba61cc1df3d0eE', symObjAddr: 0x9C20, symBinAddr: 0x461E0, symSize: 0x80 }
  - { offsetInCU: 0x5EF99, offset: 0x1BEC8A, size: 0x8, addend: 0x0, symName: '__ZN4core3ptr64drop_in_place$LT$alloc..boxed..Box$LT$syn..item..UseTree$GT$$GT$17he10cba0a4742709fE', symObjAddr: 0x9CA0, symBinAddr: 0x46260, symSize: 0xF0 }
  - { offsetInCU: 0x5F4D9, offset: 0x1BF1CA, size: 0x8, addend: 0x0, symName: '__ZN4core3ptr64drop_in_place$LT$alloc..boxed..Box$LT$syn..pat..FieldPat$GT$$GT$17h4980b70a7597cc08E', symObjAddr: 0x9D90, symBinAddr: 0x46350, symSize: 0x140 }
  - { offsetInCU: 0x5FB84, offset: 0x1BF875, size: 0x8, addend: 0x0, symName: '__ZN4core3ptr64drop_in_place$LT$alloc..boxed..Box$LT$syn..ty..BareFnArg$GT$$GT$17h8b34096c620314efE', symObjAddr: 0x9ED0, symBinAddr: 0x46490, symSize: 0x140 }
  - { offsetInCU: 0x600A8, offset: 0x1BFD99, size: 0x8, addend: 0x0, symName: '__ZN4core3ptr64drop_in_place$LT$alloc..vec..Vec$LT$syn..attr..Attribute$GT$$GT$17h3c8f2a04e701c675E', symObjAddr: 0xA010, symBinAddr: 0x465D0, symSize: 0xD0 }
  - { offsetInCU: 0x60335, offset: 0x1C0026, size: 0x8, addend: 0x0, symName: '__ZN4core3ptr64drop_in_place$LT$alloc..vec..Vec$LT$syn..item..TraitItem$GT$$GT$17h60eb4b8666c57b93E', symObjAddr: 0xA0E0, symBinAddr: 0x466A0, symSize: 0x80 }
  - { offsetInCU: 0x605B3, offset: 0x1C02A4, size: 0x8, addend: 0x0, symName: '__ZN4core3ptr65drop_in_place$LT$core..option..Option$LT$syn..expr..Label$GT$$GT$17h78189e72a8cb7951E', symObjAddr: 0xA160, symBinAddr: 0x46720, symSize: 0x30 }
  - { offsetInCU: 0x606EE, offset: 0x1C03DF, size: 0x8, addend: 0x0, symName: '__ZN4core3ptr65drop_in_place$LT$core..option..Option$LT$syn..stmt..Block$GT$$GT$17h7d9c0a54a580a160E', symObjAddr: 0xA190, symBinAddr: 0x46750, symSize: 0xE0 }
  - { offsetInCU: 0x60953, offset: 0x1C0644, size: 0x8, addend: 0x0, symName: '__ZN4core3ptr66drop_in_place$LT$alloc..vec..Vec$LT$syn..item..ForeignItem$GT$$GT$17h3e58b8e683c84cf4E', symObjAddr: 0xA270, symBinAddr: 0x46830, symSize: 0x80 }
  - { offsetInCU: 0x60BD1, offset: 0x1C08C2, size: 0x8, addend: 0x0, symName: '__ZN4core3ptr66drop_in_place$LT$core..option..Option$LT$syn..pat..PatRest$GT$$GT$17h61677cf4ff3a7393E', symObjAddr: 0xA2F0, symBinAddr: 0x468B0, symSize: 0xE0 }
  - { offsetInCU: 0x60E55, offset: 0x1C0B46, size: 0x8, addend: 0x0, symName: '__ZN4core3ptr67drop_in_place$LT$alloc..boxed..Box$LT$syn..expr..FieldValue$GT$$GT$17h93aaccf8aa22ef88E', symObjAddr: 0xA3D0, symBinAddr: 0x46990, symSize: 0x140 }
  - { offsetInCU: 0x61359, offset: 0x1C104A, size: 0x8, addend: 0x0, symName: '__ZN4core3ptr67drop_in_place$LT$core..option..Option$LT$proc_macro2..Ident$GT$$GT$17hec63a294be1dc410E', symObjAddr: 0xA510, symBinAddr: 0x46AD0, symSize: 0x30 }
  - { offsetInCU: 0x61456, offset: 0x1C1147, size: 0x8, addend: 0x0, symName: '__ZN4core3ptr68drop_in_place$LT$alloc..boxed..Box$LT$syn..path..PathSegment$GT$$GT$17h709dabdc13b58a71E', symObjAddr: 0xA540, symBinAddr: 0x46B00, symSize: 0x190 }
  - { offsetInCU: 0x61B15, offset: 0x1C1806, size: 0x8, addend: 0x0, symName: '__ZN4core3ptr68drop_in_place$LT$core..option..Option$LT$syn..item..Variadic$GT$$GT$17hc6fc8899a00a03e2E', symObjAddr: 0xA6D0, symBinAddr: 0x46C90, symSize: 0x20 }
  - { offsetInCU: 0x61B4F, offset: 0x1C1840, size: 0x8, addend: 0x0, symName: '__ZN4core3ptr70drop_in_place$LT$core..option..Option$LT$syn..ty..BareVariadic$GT$$GT$17h45399348ea4b8d55E', symObjAddr: 0xA6F0, symBinAddr: 0x46CB0, symSize: 0x120 }
  - { offsetInCU: 0x6207C, offset: 0x1C1D6D, size: 0x8, addend: 0x0, symName: '__ZN4core3ptr72drop_in_place$LT$alloc..boxed..Box$LT$syn..path..GenericArgument$GT$$GT$17haa7dd8b716637b54E', symObjAddr: 0xA810, symBinAddr: 0x46DD0, symSize: 0x1D0 }
  - { offsetInCU: 0x6261F, offset: 0x1C2310, size: 0x8, addend: 0x0, symName: '__ZN4core3ptr72drop_in_place$LT$core..option..Option$LT$syn..lifetime..Lifetime$GT$$GT$17hfc363ccdd8bd9c32E', symObjAddr: 0xA9E0, symBinAddr: 0x46FA0, symSize: 0x30 }
  - { offsetInCU: 0x6273B, offset: 0x1C242C, size: 0x8, addend: 0x0, symName: '__ZN4core3ptr73drop_in_place$LT$alloc..boxed..Box$LT$syn..generics..GenericParam$GT$$GT$17hf6951dcd5ae07324E', symObjAddr: 0xAA10, symBinAddr: 0x46FD0, symSize: 0x80 }
  - { offsetInCU: 0x628B3, offset: 0x1C25A4, size: 0x8, addend: 0x0, symName: '__ZN4core3ptr75drop_in_place$LT$alloc..boxed..Box$LT$syn..generics..TypeParamBound$GT$$GT$17he61c00698a311a34E', symObjAddr: 0xAA90, symBinAddr: 0x47050, symSize: 0xB0 }
  - { offsetInCU: 0x62C2D, offset: 0x1C291E, size: 0x8, addend: 0x0, symName: '__ZN4core3ptr75drop_in_place$LT$core..option..Option$LT$syn..generics..WhereClause$GT$$GT$17hdce7670be9790a3dE', symObjAddr: 0xAB40, symBinAddr: 0x47100, symSize: 0x90 }
  - { offsetInCU: 0x62E86, offset: 0x1C2B77, size: 0x8, addend: 0x0, symName: '__ZN4core3ptr75drop_in_place$LT$core..option..Option$LT$syn..item..ImplRestriction$GT$$GT$17hb7b29a12b76fade0E', symObjAddr: 0xABD0, symBinAddr: 0x47190, symSize: 0x10 }
  - { offsetInCU: 0x62F0F, offset: 0x1C2C00, size: 0x8, addend: 0x0, symName: '__ZN4core3ptr86drop_in_place$LT$syn..punctuated..Punctuated$LT$syn..pat..Pat$C$syn..token..Or$GT$$GT$17h8e9173df21a44316E', symObjAddr: 0xABE0, symBinAddr: 0x471A0, symSize: 0x120 }
  - { offsetInCU: 0x63355, offset: 0x1C3046, size: 0x8, addend: 0x0, symName: '__ZN4core3ptr87drop_in_place$LT$core..option..Option$LT$$LP$syn..token..Eq$C$syn..ty..Type$RP$$GT$$GT$17hb2042462b60899aaE', symObjAddr: 0xAD00, symBinAddr: 0x472C0, symSize: 0x20 }
  - { offsetInCU: 0x63387, offset: 0x1C3078, size: 0x8, addend: 0x0, symName: '__ZN4core3ptr87drop_in_place$LT$core..option..Option$LT$alloc..boxed..Box$LT$syn..pat..Pat$GT$$GT$$GT$17hd7b7c69f601b3926E', symObjAddr: 0xAD20, symBinAddr: 0x472E0, symSize: 0x50 }
  - { offsetInCU: 0x634F9, offset: 0x1C31EA, size: 0x8, addend: 0x0, symName: '__ZN4core3ptr87drop_in_place$LT$core..option..Option$LT$alloc..boxed..Box$LT$syn..ty..Type$GT$$GT$$GT$17hd74f5d971aec2972E', symObjAddr: 0xAD70, symBinAddr: 0x47330, symSize: 0x50 }
  - { offsetInCU: 0x6366B, offset: 0x1C335C, size: 0x8, addend: 0x0, symName: '__ZN4core3ptr89drop_in_place$LT$core..option..Option$LT$$LP$syn..token..Eq$C$syn..expr..Expr$RP$$GT$$GT$17h33d510c30497fdafE', symObjAddr: 0xADC0, symBinAddr: 0x47380, symSize: 0x20 }
  - { offsetInCU: 0x6369D, offset: 0x1C338E, size: 0x8, addend: 0x0, symName: '__ZN4core3ptr89drop_in_place$LT$core..option..Option$LT$alloc..boxed..Box$LT$syn..expr..Expr$GT$$GT$$GT$17h8e135ac1a25a2dc5E', symObjAddr: 0xADE0, symBinAddr: 0x473A0, symSize: 0x50 }
  - { offsetInCU: 0x6384D, offset: 0x1C353E, size: 0x8, addend: 0x0, symName: '__ZN4core3ptr89drop_in_place$LT$syn..punctuated..Punctuated$LT$syn..pat..Pat$C$syn..token..Comma$GT$$GT$17h8d60e47f3fb1f87aE', symObjAddr: 0xAE30, symBinAddr: 0x473F0, symSize: 0x120 }
  - { offsetInCU: 0x63CAA, offset: 0x1C399B, size: 0x8, addend: 0x0, symName: '__ZN4core3ptr89drop_in_place$LT$syn..punctuated..Punctuated$LT$syn..ty..Type$C$syn..token..Comma$GT$$GT$17ha919b3114742fb9dE', symObjAddr: 0xAF50, symBinAddr: 0x47510, symSize: 0x120 }
  - { offsetInCU: 0x64132, offset: 0x1C3E23, size: 0x8, addend: 0x0, symName: '__ZN4core3ptr90drop_in_place$LT$core..option..Option$LT$alloc..boxed..Box$LT$syn..data..Field$GT$$GT$$GT$17h326c39537b0fcc46E', symObjAddr: 0xB070, symBinAddr: 0x47630, symSize: 0x200 }
  - { offsetInCU: 0x6499B, offset: 0x1C468C, size: 0x8, addend: 0x0, symName: '__ZN4core3ptr90drop_in_place$LT$core..option..Option$LT$alloc..boxed..Box$LT$syn..item..FnArg$GT$$GT$$GT$17hbae3fdd388277508E', symObjAddr: 0xB270, symBinAddr: 0x47830, symSize: 0x60 }
  - { offsetInCU: 0x64B17, offset: 0x1C4808, size: 0x8, addend: 0x0, symName: '__ZN4core3ptr90drop_in_place$LT$core..option..Option$LT$syn..path..AngleBracketedGenericArguments$GT$$GT$17h80d9a5f0818c8bd9E', symObjAddr: 0xB2D0, symBinAddr: 0x47890, symSize: 0x130 }
  - { offsetInCU: 0x64F82, offset: 0x1C4C73, size: 0x8, addend: 0x0, symName: '__ZN4core3ptr91drop_in_place$LT$syn..punctuated..Punctuated$LT$syn..expr..Expr$C$syn..token..Comma$GT$$GT$17h4f39b83dc86a4159E', symObjAddr: 0xB400, symBinAddr: 0x479C0, symSize: 0x120 }
  - { offsetInCU: 0x653DF, offset: 0x1C50D0, size: 0x8, addend: 0x0, symName: '__ZN4core3ptr92drop_in_place$LT$core..option..Option$LT$$LP$syn..token..As$C$proc_macro2..Ident$RP$$GT$$GT$17h5c1a47ccb35d9d7eE', symObjAddr: 0xB520, symBinAddr: 0x47AE0, symSize: 0x30 }
  - { offsetInCU: 0x65539, offset: 0x1C522A, size: 0x8, addend: 0x0, symName: '__ZN4core3ptr92drop_in_place$LT$core..option..Option$LT$alloc..boxed..Box$LT$syn..data..Variant$GT$$GT$$GT$17h3f89d7c982191526E', symObjAddr: 0xB550, symBinAddr: 0x47B10, symSize: 0x190 }
  - { offsetInCU: 0x65BE2, offset: 0x1C58D3, size: 0x8, addend: 0x0, symName: '__ZN4core3ptr92drop_in_place$LT$syn..punctuated..Punctuated$LT$syn..item..FnArg$C$syn..token..Comma$GT$$GT$17h75db9d232662c7d3E', symObjAddr: 0xB6E0, symBinAddr: 0x47CA0, symSize: 0x140 }
  - { offsetInCU: 0x66030, offset: 0x1C5D21, size: 0x8, addend: 0x0, symName: '__ZN4core3ptr94drop_in_place$LT$syn..punctuated..Punctuated$LT$syn..data..Variant$C$syn..token..Comma$GT$$GT$17ha69d7e675441c7e2E', symObjAddr: 0xB820, symBinAddr: 0x47DE0, symSize: 0xE0 }
  - { offsetInCU: 0x6635D, offset: 0x1C604E, size: 0x8, addend: 0x0, symName: '__ZN4core3ptr94drop_in_place$LT$syn..punctuated..Punctuated$LT$syn..item..UseTree$C$syn..token..Comma$GT$$GT$17h4e4f303ffad9f549E', symObjAddr: 0xB900, symBinAddr: 0x47EC0, symSize: 0xF0 }
  - { offsetInCU: 0x6666E, offset: 0x1C635F, size: 0x8, addend: 0x0, symName: '__ZN4core3ptr94drop_in_place$LT$syn..punctuated..Punctuated$LT$syn..pat..FieldPat$C$syn..token..Comma$GT$$GT$17h112950ea198c8281E', symObjAddr: 0xB9F0, symBinAddr: 0x47FB0, symSize: 0xF0 }
  - { offsetInCU: 0x66938, offset: 0x1C6629, size: 0x8, addend: 0x0, symName: '__ZN4core3ptr94drop_in_place$LT$syn..punctuated..Punctuated$LT$syn..ty..BareFnArg$C$syn..token..Comma$GT$$GT$17h1c7b44310f06243dE', symObjAddr: 0xBAE0, symBinAddr: 0x480A0, symSize: 0xF0 }
  - { offsetInCU: 0x66C02, offset: 0x1C68F3, size: 0x8, addend: 0x0, symName: '__ZN4core3ptr96drop_in_place$LT$core..option..Option$LT$alloc..boxed..Box$LT$syn..path..PathSegment$GT$$GT$$GT$17hb447d0f626c86a4eE', symObjAddr: 0xBBD0, symBinAddr: 0x48190, symSize: 0x90 }
  - { offsetInCU: 0x66E84, offset: 0x1C6B75, size: 0x8, addend: 0x0, symName: '__ZN4core3ptr97drop_in_place$LT$syn..punctuated..Punctuated$LT$syn..expr..FieldValue$C$syn..token..Comma$GT$$GT$17h31b81f7462228dcbE', symObjAddr: 0xBC60, symBinAddr: 0x48220, symSize: 0xF0 }
  - { offsetInCU: 0x6714E, offset: 0x1C6E3F, size: 0x8, addend: 0x0, symName: '__ZN4core3ptr98drop_in_place$LT$alloc..vec..Vec$LT$$LP$syn..path..GenericArgument$C$syn..token..Comma$RP$$GT$$GT$17h0657ff261f33b640E', symObjAddr: 0xBD50, symBinAddr: 0x48310, symSize: 0xD0 }
  - { offsetInCU: 0x67457, offset: 0x1C7148, size: 0x8, addend: 0x0, symName: '__ZN4core3ptr98drop_in_place$LT$syn..punctuated..Punctuated$LT$syn..lifetime..Lifetime$C$syn..token..Plus$GT$$GT$17h0f8fc5f20f465f47E', symObjAddr: 0xBE20, symBinAddr: 0x483E0, symSize: 0xC0 }
  - { offsetInCU: 0x699B0, offset: 0x1C96A1, size: 0x8, addend: 0x0, symName: '__ZN66_$LT$core..option..Option$LT$T$GT$$u20$as$u20$core..fmt..Debug$GT$3fmt17h1fd6fc03e7dc8c92E', symObjAddr: 0xC1B0, symBinAddr: 0x48580, symSize: 0x60 }
  - { offsetInCU: 0x69A17, offset: 0x1C9708, size: 0x8, addend: 0x0, symName: '__ZN66_$LT$core..option..Option$LT$T$GT$$u20$as$u20$core..fmt..Debug$GT$3fmt17h40d6e6b56107d5d5E', symObjAddr: 0xC210, symBinAddr: 0x485E0, symSize: 0x60 }
  - { offsetInCU: 0x69A7E, offset: 0x1C976F, size: 0x8, addend: 0x0, symName: '__ZN66_$LT$core..option..Option$LT$T$GT$$u20$as$u20$core..fmt..Debug$GT$3fmt17h4bbc7fce9b5411bcE', symObjAddr: 0xC270, symBinAddr: 0x48640, symSize: 0x60 }
  - { offsetInCU: 0x69AE5, offset: 0x1C97D6, size: 0x8, addend: 0x0, symName: '__ZN66_$LT$core..option..Option$LT$T$GT$$u20$as$u20$core..fmt..Debug$GT$3fmt17h4d57bb47528c5bb3E', symObjAddr: 0xC2D0, symBinAddr: 0x486A0, symSize: 0x50 }
  - { offsetInCU: 0x69B4B, offset: 0x1C983C, size: 0x8, addend: 0x0, symName: '__ZN66_$LT$core..option..Option$LT$T$GT$$u20$as$u20$core..fmt..Debug$GT$3fmt17h5904505fc907064dE', symObjAddr: 0xC320, symBinAddr: 0x486F0, symSize: 0x50 }
  - { offsetInCU: 0x69BB1, offset: 0x1C98A2, size: 0x8, addend: 0x0, symName: '__ZN66_$LT$core..option..Option$LT$T$GT$$u20$as$u20$core..fmt..Debug$GT$3fmt17h5c29b5adb8759057E', symObjAddr: 0xC370, symBinAddr: 0x48740, symSize: 0x60 }
  - { offsetInCU: 0x69C18, offset: 0x1C9909, size: 0x8, addend: 0x0, symName: '__ZN66_$LT$core..option..Option$LT$T$GT$$u20$as$u20$core..fmt..Debug$GT$3fmt17h63da567f4d972c7fE', symObjAddr: 0xC3D0, symBinAddr: 0x487A0, symSize: 0x60 }
  - { offsetInCU: 0x69C7F, offset: 0x1C9970, size: 0x8, addend: 0x0, symName: '__ZN66_$LT$core..option..Option$LT$T$GT$$u20$as$u20$core..fmt..Debug$GT$3fmt17h646646f72f5b1ef5E', symObjAddr: 0xC430, symBinAddr: 0x48800, symSize: 0x50 }
  - { offsetInCU: 0x69CE5, offset: 0x1C99D6, size: 0x8, addend: 0x0, symName: '__ZN66_$LT$core..option..Option$LT$T$GT$$u20$as$u20$core..fmt..Debug$GT$3fmt17h6fad7b94da7c719aE', symObjAddr: 0xC480, symBinAddr: 0x48850, symSize: 0x60 }
  - { offsetInCU: 0x69D4C, offset: 0x1C9A3D, size: 0x8, addend: 0x0, symName: '__ZN66_$LT$core..option..Option$LT$T$GT$$u20$as$u20$core..fmt..Debug$GT$3fmt17h8c2e6a686d0a3d39E', symObjAddr: 0xC4E0, symBinAddr: 0x488B0, symSize: 0x60 }
  - { offsetInCU: 0x69DB3, offset: 0x1C9AA4, size: 0x8, addend: 0x0, symName: '__ZN66_$LT$core..option..Option$LT$T$GT$$u20$as$u20$core..fmt..Debug$GT$3fmt17h9d4386fee4bd24d4E', symObjAddr: 0xC540, symBinAddr: 0x48910, symSize: 0x60 }
  - { offsetInCU: 0x69E1A, offset: 0x1C9B0B, size: 0x8, addend: 0x0, symName: '__ZN66_$LT$core..option..Option$LT$T$GT$$u20$as$u20$core..fmt..Debug$GT$3fmt17h9f690b411bc64910E', symObjAddr: 0xC5A0, symBinAddr: 0x48970, symSize: 0x60 }
  - { offsetInCU: 0x69E81, offset: 0x1C9B72, size: 0x8, addend: 0x0, symName: '__ZN66_$LT$core..option..Option$LT$T$GT$$u20$as$u20$core..fmt..Debug$GT$3fmt17haf55ec5308df3e6cE', symObjAddr: 0xC600, symBinAddr: 0x489D0, symSize: 0x50 }
  - { offsetInCU: 0x69EE7, offset: 0x1C9BD8, size: 0x8, addend: 0x0, symName: '__ZN66_$LT$core..option..Option$LT$T$GT$$u20$as$u20$core..fmt..Debug$GT$3fmt17hb13fd27b8547b008E', symObjAddr: 0xC650, symBinAddr: 0x48A20, symSize: 0x50 }
  - { offsetInCU: 0x69F4E, offset: 0x1C9C3F, size: 0x8, addend: 0x0, symName: '__ZN66_$LT$core..option..Option$LT$T$GT$$u20$as$u20$core..fmt..Debug$GT$3fmt17hb16d46793b4df7f2E', symObjAddr: 0xC6A0, symBinAddr: 0x48A70, symSize: 0x50 }
  - { offsetInCU: 0x69FB4, offset: 0x1C9CA5, size: 0x8, addend: 0x0, symName: '__ZN66_$LT$core..option..Option$LT$T$GT$$u20$as$u20$core..fmt..Debug$GT$3fmt17hc72137f42139e65bE', symObjAddr: 0xC6F0, symBinAddr: 0x48AC0, symSize: 0x50 }
  - { offsetInCU: 0x6A01A, offset: 0x1C9D0B, size: 0x8, addend: 0x0, symName: '__ZN66_$LT$core..option..Option$LT$T$GT$$u20$as$u20$core..fmt..Debug$GT$3fmt17hc7cdeeef8369ec6fE', symObjAddr: 0xC740, symBinAddr: 0x48B10, symSize: 0x50 }
  - { offsetInCU: 0x6A080, offset: 0x1C9D71, size: 0x8, addend: 0x0, symName: '__ZN66_$LT$core..option..Option$LT$T$GT$$u20$as$u20$core..fmt..Debug$GT$3fmt17hc8e6a2703795a985E', symObjAddr: 0xC790, symBinAddr: 0x48B60, symSize: 0x50 }
  - { offsetInCU: 0x6A0E6, offset: 0x1C9DD7, size: 0x8, addend: 0x0, symName: '__ZN66_$LT$core..option..Option$LT$T$GT$$u20$as$u20$core..fmt..Debug$GT$3fmt17heb71313355b415e9E', symObjAddr: 0xC7E0, symBinAddr: 0x48BB0, symSize: 0x60 }
  - { offsetInCU: 0x6A14D, offset: 0x1C9E3E, size: 0x8, addend: 0x0, symName: '__ZN66_$LT$core..option..Option$LT$T$GT$$u20$as$u20$core..fmt..Debug$GT$3fmt17hec2a7874c1563e2dE', symObjAddr: 0xC840, symBinAddr: 0x48C10, symSize: 0x50 }
  - { offsetInCU: 0x6A1B3, offset: 0x1C9EA4, size: 0x8, addend: 0x0, symName: '__ZN66_$LT$core..option..Option$LT$T$GT$$u20$as$u20$core..fmt..Debug$GT$3fmt17hf122eaf807502adcE', symObjAddr: 0xC890, symBinAddr: 0x48C60, symSize: 0x60 }
  - { offsetInCU: 0x6A219, offset: 0x1C9F0A, size: 0x8, addend: 0x0, symName: '__ZN66_$LT$core..option..Option$LT$T$GT$$u20$as$u20$core..fmt..Debug$GT$3fmt17hf4226f25e5326be6E', symObjAddr: 0xC8F0, symBinAddr: 0x48CC0, symSize: 0x20 }
  - { offsetInCU: 0x6C28F, offset: 0x1CBF80, size: 0x8, addend: 0x0, symName: '__ZN42_$LT$$RF$T$u20$as$u20$core..fmt..Debug$GT$3fmt17h218dd5be85f7194dE', symObjAddr: 0x0, symBinAddr: 0x3C7F0, symSize: 0x10 }
  - { offsetInCU: 0x6C2D6, offset: 0x1CBFC7, size: 0x8, addend: 0x0, symName: '__ZN42_$LT$$RF$T$u20$as$u20$core..fmt..Debug$GT$3fmt17h7b02556af5e7d27fE', symObjAddr: 0x10, symBinAddr: 0x3C800, symSize: 0x10 }
  - { offsetInCU: 0x6C31D, offset: 0x1CC00E, size: 0x8, addend: 0x0, symName: '__ZN42_$LT$$RF$T$u20$as$u20$core..fmt..Debug$GT$3fmt17h82ca53baf79fd19dE', symObjAddr: 0x20, symBinAddr: 0x3C810, symSize: 0x10 }
  - { offsetInCU: 0x6C364, offset: 0x1CC055, size: 0x8, addend: 0x0, symName: '__ZN42_$LT$$RF$T$u20$as$u20$core..fmt..Debug$GT$3fmt17ha0b0d2b5e2ef8cb0E', symObjAddr: 0x30, symBinAddr: 0x3C820, symSize: 0xC0 }
  - { offsetInCU: 0x6C3E8, offset: 0x1CC0D9, size: 0x8, addend: 0x0, symName: '__ZN42_$LT$$RF$T$u20$as$u20$core..fmt..Debug$GT$3fmt17hdac8896f29843132E', symObjAddr: 0xF0, symBinAddr: 0x3C8E0, symSize: 0x10 }
  - { offsetInCU: 0x72191, offset: 0x1D1E82, size: 0x8, addend: 0x0, symName: '__ZN73_$LT$$u5b$A$u5d$$u20$as$u20$core..slice..cmp..SlicePartialEq$LT$B$GT$$GT$5equal17h34ba96b259d45b17E', symObjAddr: 0xC910, symBinAddr: 0x48CE0, symSize: 0x90 }
  - { offsetInCU: 0x7228D, offset: 0x1D1F7E, size: 0x8, addend: 0x0, symName: '__ZN73_$LT$$u5b$A$u5d$$u20$as$u20$core..slice..cmp..SlicePartialEq$LT$B$GT$$GT$5equal17h622cc066cddb8bc4E', symObjAddr: 0xCB50, symBinAddr: 0x48D70, symSize: 0x90 }
  - { offsetInCU: 0x777E4, offset: 0x1D74D5, size: 0x8, addend: 0x0, symName: _anon.c056088d9c1645fbb1df0330ab576d27.50.llvm.3361240308741372715, symObjAddr: 0x34DB0, symBinAddr: 0x26C9F8, symSize: 0x0 }
  - { offsetInCU: 0x7782F, offset: 0x1D7520, size: 0x8, addend: 0x0, symName: _anon.c056088d9c1645fbb1df0330ab576d27.52.llvm.3361240308741372715, symObjAddr: 0x34DD0, symBinAddr: 0x26CA18, symSize: 0x0 }
  - { offsetInCU: 0x7787A, offset: 0x1D756B, size: 0x8, addend: 0x0, symName: _anon.c056088d9c1645fbb1df0330ab576d27.236.llvm.3361240308741372715, symObjAddr: 0x356B0, symBinAddr: 0x26D2F8, symSize: 0x0 }
  - { offsetInCU: 0x778C5, offset: 0x1D75B6, size: 0x8, addend: 0x0, symName: _anon.c056088d9c1645fbb1df0330ab576d27.238.llvm.3361240308741372715, symObjAddr: 0x356D0, symBinAddr: 0x26D318, symSize: 0x0 }
  - { offsetInCU: 0x77910, offset: 0x1D7601, size: 0x8, addend: 0x0, symName: _anon.c056088d9c1645fbb1df0330ab576d27.240.llvm.3361240308741372715, symObjAddr: 0x356F0, symBinAddr: 0x26D338, symSize: 0x0 }
  - { offsetInCU: 0x7795B, offset: 0x1D764C, size: 0x8, addend: 0x0, symName: _anon.c056088d9c1645fbb1df0330ab576d27.242.llvm.3361240308741372715, symObjAddr: 0x35710, symBinAddr: 0x26D358, symSize: 0x0 }
  - { offsetInCU: 0x779A6, offset: 0x1D7697, size: 0x8, addend: 0x0, symName: _anon.c056088d9c1645fbb1df0330ab576d27.244.llvm.3361240308741372715, symObjAddr: 0x35730, symBinAddr: 0x26D378, symSize: 0x0 }
  - { offsetInCU: 0x79137, offset: 0x1D8E28, size: 0x8, addend: 0x0, symName: '__ZN5alloc3vec16Vec$LT$T$C$A$GT$4push17hee7056fca81de2b5E', symObjAddr: 0xC0D0, symBinAddr: 0x484A0, symSize: 0x60 }
  - { offsetInCU: 0x79372, offset: 0x1D9063, size: 0x8, addend: 0x0, symName: '__ZN5alloc3vec16Vec$LT$T$C$A$GT$6append17h429b9c0d32835dc0E', symObjAddr: 0xC130, symBinAddr: 0x48500, symSize: 0x80 }
  - { offsetInCU: 0x7973B, offset: 0x1D942C, size: 0x8, addend: 0x0, symName: __ZN3syn4item4Item13replace_attrs17hc89b3448d1af9bc5E, symObjAddr: 0xCC00, symBinAddr: 0x48E00, symSize: 0x1C0 }
  - { offsetInCU: 0x7BDE8, offset: 0x1DBAD9, size: 0x8, addend: 0x0, symName: '__ZN3syn3gen5debug46_$LT$impl$u20$syn..item..ForeignItemStatic$GT$5debug17h252ed5a4da442e09E', symObjAddr: 0x29AD0, symBinAddr: 0x5E2B0, symSize: 0x130 }
  - { offsetInCU: 0x7BED9, offset: 0x1DBBCA, size: 0x8, addend: 0x0, symName: '__ZN3syn3gen5debug42_$LT$impl$u20$syn..item..ImplItemConst$GT$5debug17h21590595862027fdE', symObjAddr: 0x29F70, symBinAddr: 0x5E630, symSize: 0x1A0 }
  - { offsetInCU: 0x7BF49, offset: 0x1DBC3A, size: 0x8, addend: 0x0, symName: '__ZN3syn3gen5debug41_$LT$impl$u20$syn..item..ImplItemType$GT$5debug17h23228127a319283fE', symObjAddr: 0x2A2B0, symBinAddr: 0x5E7D0, symSize: 0x160 }
  - { offsetInCU: 0x7C0E8, offset: 0x1DBDD9, size: 0x8, addend: 0x0, symName: '__ZN3syn3gen5debug38_$LT$impl$u20$syn..item..ItemConst$GT$5debug17h6439dc96cf20db11E', symObjAddr: 0x2AA60, symBinAddr: 0x5EF60, symSize: 0x180 }
  - { offsetInCU: 0x7C14B, offset: 0x1DBE3C, size: 0x8, addend: 0x0, symName: '__ZN3syn3gen5debug37_$LT$impl$u20$syn..item..ItemEnum$GT$5debug17h2bf5d56c3e0692cbE', symObjAddr: 0x2AC00, symBinAddr: 0x5F0E0, symSize: 0x120 }
  - { offsetInCU: 0x7C1BB, offset: 0x1DBEAC, size: 0x8, addend: 0x0, symName: '__ZN3syn3gen5debug44_$LT$impl$u20$syn..item..ItemExternCrate$GT$5debug17h29566cebba3a6424E', symObjAddr: 0x2AD40, symBinAddr: 0x5F200, symSize: 0x110 }
  - { offsetInCU: 0x7C22B, offset: 0x1DBF1C, size: 0x8, addend: 0x0, symName: '__ZN3syn3gen5debug37_$LT$impl$u20$syn..item..ItemImpl$GT$5debug17h9289cbc7c4d82d85E', symObjAddr: 0x2B010, symBinAddr: 0x5F310, symSize: 0x160 }
  - { offsetInCU: 0x7C29B, offset: 0x1DBF8C, size: 0x8, addend: 0x0, symName: '__ZN3syn3gen5debug36_$LT$impl$u20$syn..item..ItemMod$GT$5debug17h3828a214a87bf4baE', symObjAddr: 0x2B250, symBinAddr: 0x5F470, symSize: 0x110 }
  - { offsetInCU: 0x7C30B, offset: 0x1DBFFC, size: 0x8, addend: 0x0, symName: '__ZN3syn3gen5debug39_$LT$impl$u20$syn..item..ItemStatic$GT$5debug17ha77568d88ef74c17E', symObjAddr: 0x2B380, symBinAddr: 0x5F580, symSize: 0x170 }
  - { offsetInCU: 0x7C37B, offset: 0x1DC06C, size: 0x8, addend: 0x0, symName: '__ZN3syn3gen5debug39_$LT$impl$u20$syn..item..ItemStruct$GT$5debug17h22b683ec444b5ff2E', symObjAddr: 0x2B510, symBinAddr: 0x5F6F0, symSize: 0x120 }
  - { offsetInCU: 0x7C3EB, offset: 0x1DC0DC, size: 0x8, addend: 0x0, symName: '__ZN3syn3gen5debug38_$LT$impl$u20$syn..item..ItemTrait$GT$5debug17h41232b548678da64E', symObjAddr: 0x2B650, symBinAddr: 0x5F810, symSize: 0x1C0 }
  - { offsetInCU: 0x7C45B, offset: 0x1DC14C, size: 0x8, addend: 0x0, symName: '__ZN3syn3gen5debug43_$LT$impl$u20$syn..item..ItemTraitAlias$GT$5debug17hac2327a0d1732bfdE', symObjAddr: 0x2B830, symBinAddr: 0x5F9D0, symSize: 0x140 }
  - { offsetInCU: 0x7C4BE, offset: 0x1DC1AF, size: 0x8, addend: 0x0, symName: '__ZN3syn3gen5debug37_$LT$impl$u20$syn..item..ItemType$GT$5debug17h45e88016d425dfaeE', symObjAddr: 0x2B990, symBinAddr: 0x5FB10, symSize: 0x140 }
  - { offsetInCU: 0x7C5AF, offset: 0x1DC2A0, size: 0x8, addend: 0x0, symName: '__ZN3syn3gen5debug43_$LT$impl$u20$syn..item..TraitItemConst$GT$5debug17ha7f1941e991beb2cE', symObjAddr: 0x2C260, symBinAddr: 0x601C0, symSize: 0x140 }
  - { offsetInCU: 0x7C61F, offset: 0x1DC310, size: 0x8, addend: 0x0, symName: '__ZN3syn3gen5debug42_$LT$impl$u20$syn..item..TraitItemType$GT$5debug17ha3729e49e81d064bE', symObjAddr: 0x2C520, symBinAddr: 0x60300, symSize: 0x140 }
  - { offsetInCU: 0x1E, offset: 0x1E8EB2, size: 0x8, addend: 0x0, symName: '__ZN4core3ptr100drop_in_place$LT$alloc..vec..Vec$LT$$LP$syn..generics..TypeParamBound$C$syn..token..Plus$RP$$GT$$GT$17h8b4df1d78e856f8eE.llvm.720949811486110776', symObjAddr: 0x0, symBinAddr: 0x63780, symSize: 0xD0 }
  - { offsetInCU: 0x35, offset: 0x1E8EC9, size: 0x8, addend: 0x0, symName: _anon.756ee204431677f15e0e7c03ad545a45.3.llvm.720949811486110776, symObjAddr: 0x12B48, symBinAddr: 0x26D490, symSize: 0x0 }
  - { offsetInCU: 0x131E, offset: 0x1EA1B2, size: 0x8, addend: 0x0, symName: '__ZN111_$LT$syn..punctuated..PrivateIter$LT$T$C$P$GT$$u20$as$u20$core..iter..traits..exact_size..ExactSizeIterator$GT$3len17hfca8917a1308f638E.llvm.720949811486110776', symObjAddr: 0x103F0, symBinAddr: 0x718A0, symSize: 0x0 }
  - { offsetInCU: 0x14A4, offset: 0x1EA338, size: 0x8, addend: 0x0, symName: '__ZN115_$LT$syn..punctuated..PrivateIter$LT$T$C$P$GT$$u20$as$u20$core..iter..traits..double_ended..DoubleEndedIterator$GT$9next_back17h4e161a362cd3236cE.llvm.720949811486110776', symObjAddr: 0x10310, symBinAddr: 0x71870, symSize: 0x0 }
  - { offsetInCU: 0x18D8, offset: 0x1EA76C, size: 0x8, addend: 0x0, symName: '__ZN100_$LT$syn..punctuated..PrivateIter$LT$T$C$P$GT$$u20$as$u20$core..iter..traits..iterator..Iterator$GT$4next17h2288f88597771eccE.llvm.720949811486110776', symObjAddr: 0x101F0, symBinAddr: 0x717E0, symSize: 0x30 }
  - { offsetInCU: 0x1B6B, offset: 0x1EA9FF, size: 0x8, addend: 0x0, symName: '__ZN100_$LT$syn..punctuated..PrivateIter$LT$T$C$P$GT$$u20$as$u20$core..iter..traits..iterator..Iterator$GT$4next17h2b2ca8d3435ec515E.llvm.720949811486110776', symObjAddr: 0x10220, symBinAddr: 0x71810, symSize: 0x30 }
  - { offsetInCU: 0x1DFE, offset: 0x1EAC92, size: 0x8, addend: 0x0, symName: '__ZN100_$LT$syn..punctuated..PrivateIter$LT$T$C$P$GT$$u20$as$u20$core..iter..traits..iterator..Iterator$GT$4next17h2b5c344e5c67057fE.llvm.720949811486110776', symObjAddr: 0x10250, symBinAddr: 0x71840, symSize: 0x0 }
  - { offsetInCU: 0x25AF, offset: 0x1EB443, size: 0x8, addend: 0x0, symName: '__ZN79_$LT$syn..punctuated..Punctuated$LT$T$C$P$GT$$u20$as$u20$core..clone..Clone$GT$5clone17h1b6336e2635a9e8fE', symObjAddr: 0xC9B0, symBinAddr: 0x6F130, symSize: 0x110 }
  - { offsetInCU: 0x29B2, offset: 0x1EB846, size: 0x8, addend: 0x0, symName: '__ZN79_$LT$syn..punctuated..Punctuated$LT$T$C$P$GT$$u20$as$u20$core..clone..Clone$GT$5clone17h216d0cc9fdbbad96E', symObjAddr: 0xCAC0, symBinAddr: 0x6F240, symSize: 0x2C0 }
  - { offsetInCU: 0x2EF4, offset: 0x1EBD88, size: 0x8, addend: 0x0, symName: '__ZN79_$LT$syn..punctuated..Punctuated$LT$T$C$P$GT$$u20$as$u20$core..clone..Clone$GT$5clone17h401205d976f2a24fE', symObjAddr: 0xCD80, symBinAddr: 0x6F500, symSize: 0xE0 }
  - { offsetInCU: 0x31BE, offset: 0x1EC052, size: 0x8, addend: 0x0, symName: '__ZN79_$LT$syn..punctuated..Punctuated$LT$T$C$P$GT$$u20$as$u20$core..clone..Clone$GT$5clone17h46c0276e4a1ee5d5E', symObjAddr: 0xCE60, symBinAddr: 0x6F5E0, symSize: 0x230 }
  - { offsetInCU: 0x34EA, offset: 0x1EC37E, size: 0x8, addend: 0x0, symName: '__ZN79_$LT$syn..punctuated..Punctuated$LT$T$C$P$GT$$u20$as$u20$core..clone..Clone$GT$5clone17h52bdce65b2924a44E', symObjAddr: 0xD170, symBinAddr: 0x6F810, symSize: 0xE0 }
  - { offsetInCU: 0x37B4, offset: 0x1EC648, size: 0x8, addend: 0x0, symName: '__ZN79_$LT$syn..punctuated..Punctuated$LT$T$C$P$GT$$u20$as$u20$core..clone..Clone$GT$5clone17h6e5c167729c6dc97E', symObjAddr: 0xD330, symBinAddr: 0x6F8F0, symSize: 0x1C0 }
  - { offsetInCU: 0x3AFE, offset: 0x1EC992, size: 0x8, addend: 0x0, symName: '__ZN79_$LT$syn..punctuated..Punctuated$LT$T$C$P$GT$$u20$as$u20$core..clone..Clone$GT$5clone17ha8c279133d54c43aE', symObjAddr: 0xD5F0, symBinAddr: 0x6FAB0, symSize: 0xE0 }
  - { offsetInCU: 0x3DC7, offset: 0x1ECC5B, size: 0x8, addend: 0x0, symName: '__ZN79_$LT$syn..punctuated..Punctuated$LT$T$C$P$GT$$u20$as$u20$core..clone..Clone$GT$5clone17hc59117e85ed64290E', symObjAddr: 0xD8B0, symBinAddr: 0x6FB90, symSize: 0xE0 }
  - { offsetInCU: 0x4091, offset: 0x1ECF25, size: 0x8, addend: 0x0, symName: '__ZN79_$LT$syn..punctuated..Punctuated$LT$T$C$P$GT$$u20$as$u20$core..clone..Clone$GT$5clone17hca4078c0b112b9bbE', symObjAddr: 0xD990, symBinAddr: 0x6FC70, symSize: 0x140 }
  - { offsetInCU: 0x4533, offset: 0x1ED3C7, size: 0x8, addend: 0x0, symName: '__ZN79_$LT$syn..punctuated..Punctuated$LT$T$C$P$GT$$u20$as$u20$core..clone..Clone$GT$5clone17heb9ec5c115753a9eE', symObjAddr: 0xDAD0, symBinAddr: 0x6FDB0, symSize: 0xE0 }
  - { offsetInCU: 0x47FD, offset: 0x1ED691, size: 0x8, addend: 0x0, symName: '__ZN79_$LT$syn..punctuated..Punctuated$LT$T$C$P$GT$$u20$as$u20$core..clone..Clone$GT$5clone17hfc802b453cbd89a2E', symObjAddr: 0xDBB0, symBinAddr: 0x6FE90, symSize: 0xE0 }
  - { offsetInCU: 0x4ACD, offset: 0x1ED961, size: 0x8, addend: 0x0, symName: '__ZN81_$LT$syn..punctuated..Punctuated$LT$T$C$P$GT$$u20$as$u20$core..cmp..PartialEq$GT$2eq17h3e2aabec4d61ab88E', symObjAddr: 0xDC90, symBinAddr: 0x6FF70, symSize: 0xE0 }
  - { offsetInCU: 0x4CF4, offset: 0x1EDB88, size: 0x8, addend: 0x0, symName: '__ZN81_$LT$syn..punctuated..Punctuated$LT$T$C$P$GT$$u20$as$u20$core..cmp..PartialEq$GT$2eq17h410225a1cb279e1bE', symObjAddr: 0xDD70, symBinAddr: 0x70050, symSize: 0xD0 }
  - { offsetInCU: 0x4EFF, offset: 0x1EDD93, size: 0x8, addend: 0x0, symName: '__ZN81_$LT$syn..punctuated..Punctuated$LT$T$C$P$GT$$u20$as$u20$core..cmp..PartialEq$GT$2eq17h458caf57e02e080cE', symObjAddr: 0xDE90, symBinAddr: 0x70120, symSize: 0x50 }
  - { offsetInCU: 0x504C, offset: 0x1EDEE0, size: 0x8, addend: 0x0, symName: '__ZN81_$LT$syn..punctuated..Punctuated$LT$T$C$P$GT$$u20$as$u20$core..cmp..PartialEq$GT$2eq17h50804bafc6204b13E', symObjAddr: 0xDFC0, symBinAddr: 0x70170, symSize: 0x130 }
  - { offsetInCU: 0x5314, offset: 0x1EE1A8, size: 0x8, addend: 0x0, symName: '__ZN81_$LT$syn..punctuated..Punctuated$LT$T$C$P$GT$$u20$as$u20$core..cmp..PartialEq$GT$2eq17h7c65f9fe04e35cceE', symObjAddr: 0xE1B0, symBinAddr: 0x702A0, symSize: 0xD0 }
  - { offsetInCU: 0x557F, offset: 0x1EE413, size: 0x8, addend: 0x0, symName: '__ZN81_$LT$syn..punctuated..Punctuated$LT$T$C$P$GT$$u20$as$u20$core..cmp..PartialEq$GT$2eq17ha4f4a322df9ae20fE', symObjAddr: 0xE2D0, symBinAddr: 0x70370, symSize: 0xE0 }
  - { offsetInCU: 0x57A6, offset: 0x1EE63A, size: 0x8, addend: 0x0, symName: '__ZN81_$LT$syn..punctuated..Punctuated$LT$T$C$P$GT$$u20$as$u20$core..cmp..PartialEq$GT$2eq17hcc2a12708c8e7fbcE', symObjAddr: 0xE3B0, symBinAddr: 0x70450, symSize: 0xD0 }
  - { offsetInCU: 0x59CD, offset: 0x1EE861, size: 0x8, addend: 0x0, symName: '__ZN81_$LT$syn..punctuated..Punctuated$LT$T$C$P$GT$$u20$as$u20$core..cmp..PartialEq$GT$2eq17hdca1ab32ccfe8109E', symObjAddr: 0xE4D0, symBinAddr: 0x70520, symSize: 0x0 }
  - { offsetInCU: 0x5BFA, offset: 0x1EEA8E, size: 0x8, addend: 0x0, symName: '__ZN77_$LT$syn..punctuated..Punctuated$LT$T$C$P$GT$$u20$as$u20$core..fmt..Debug$GT$3fmt17h01af0d1bb639bc08E', symObjAddr: 0xE730, symBinAddr: 0x70600, symSize: 0xC0 }
  - { offsetInCU: 0x5D00, offset: 0x1EEB94, size: 0x8, addend: 0x0, symName: '__ZN77_$LT$syn..punctuated..Punctuated$LT$T$C$P$GT$$u20$as$u20$core..fmt..Debug$GT$3fmt17h0269a60383154183E', symObjAddr: 0xE7F0, symBinAddr: 0x706C0, symSize: 0xB0 }
  - { offsetInCU: 0x5E05, offset: 0x1EEC99, size: 0x8, addend: 0x0, symName: '__ZN77_$LT$syn..punctuated..Punctuated$LT$T$C$P$GT$$u20$as$u20$core..fmt..Debug$GT$3fmt17h0e8c0d770a2f7ad5E', symObjAddr: 0xE8A0, symBinAddr: 0x70770, symSize: 0xB0 }
  - { offsetInCU: 0x5F0A, offset: 0x1EED9E, size: 0x8, addend: 0x0, symName: '__ZN77_$LT$syn..punctuated..Punctuated$LT$T$C$P$GT$$u20$as$u20$core..fmt..Debug$GT$3fmt17h200c85c0f1431bdfE', symObjAddr: 0xE950, symBinAddr: 0x70820, symSize: 0xC0 }
  - { offsetInCU: 0x600F, offset: 0x1EEEA3, size: 0x8, addend: 0x0, symName: '__ZN77_$LT$syn..punctuated..Punctuated$LT$T$C$P$GT$$u20$as$u20$core..fmt..Debug$GT$3fmt17h3a71e1623f33974cE', symObjAddr: 0xEA10, symBinAddr: 0x708E0, symSize: 0xC0 }
  - { offsetInCU: 0x6114, offset: 0x1EEFA8, size: 0x8, addend: 0x0, symName: '__ZN77_$LT$syn..punctuated..Punctuated$LT$T$C$P$GT$$u20$as$u20$core..fmt..Debug$GT$3fmt17h42cb1c66fda8c882E', symObjAddr: 0xEAD0, symBinAddr: 0x709A0, symSize: 0xB0 }
  - { offsetInCU: 0x6218, offset: 0x1EF0AC, size: 0x8, addend: 0x0, symName: '__ZN77_$LT$syn..punctuated..Punctuated$LT$T$C$P$GT$$u20$as$u20$core..fmt..Debug$GT$3fmt17h49746df198109bd1E', symObjAddr: 0xEB80, symBinAddr: 0x70A50, symSize: 0xB0 }
  - { offsetInCU: 0x631D, offset: 0x1EF1B1, size: 0x8, addend: 0x0, symName: '__ZN77_$LT$syn..punctuated..Punctuated$LT$T$C$P$GT$$u20$as$u20$core..fmt..Debug$GT$3fmt17h4e785dcd06b56277E', symObjAddr: 0xEC30, symBinAddr: 0x70B00, symSize: 0xC0 }
  - { offsetInCU: 0x6422, offset: 0x1EF2B6, size: 0x8, addend: 0x0, symName: '__ZN77_$LT$syn..punctuated..Punctuated$LT$T$C$P$GT$$u20$as$u20$core..fmt..Debug$GT$3fmt17h6ec47b8d89dff405E', symObjAddr: 0xECF0, symBinAddr: 0x70BC0, symSize: 0xC0 }
  - { offsetInCU: 0x6527, offset: 0x1EF3BB, size: 0x8, addend: 0x0, symName: '__ZN77_$LT$syn..punctuated..Punctuated$LT$T$C$P$GT$$u20$as$u20$core..fmt..Debug$GT$3fmt17haa378f3ca239ebc8E', symObjAddr: 0xEDB0, symBinAddr: 0x70C80, symSize: 0xC0 }
  - { offsetInCU: 0x662C, offset: 0x1EF4C0, size: 0x8, addend: 0x0, symName: '__ZN77_$LT$syn..punctuated..Punctuated$LT$T$C$P$GT$$u20$as$u20$core..fmt..Debug$GT$3fmt17haa41968b451b6864E', symObjAddr: 0xEE70, symBinAddr: 0x70D40, symSize: 0xC0 }
  - { offsetInCU: 0x6731, offset: 0x1EF5C5, size: 0x8, addend: 0x0, symName: '__ZN77_$LT$syn..punctuated..Punctuated$LT$T$C$P$GT$$u20$as$u20$core..fmt..Debug$GT$3fmt17hb60958738909cbc8E', symObjAddr: 0xEF30, symBinAddr: 0x70E00, symSize: 0xC0 }
  - { offsetInCU: 0x6836, offset: 0x1EF6CA, size: 0x8, addend: 0x0, symName: '__ZN77_$LT$syn..punctuated..Punctuated$LT$T$C$P$GT$$u20$as$u20$core..fmt..Debug$GT$3fmt17hb7b9e21ce5721c38E', symObjAddr: 0xEFF0, symBinAddr: 0x70EC0, symSize: 0xC0 }
  - { offsetInCU: 0x693B, offset: 0x1EF7CF, size: 0x8, addend: 0x0, symName: '__ZN77_$LT$syn..punctuated..Punctuated$LT$T$C$P$GT$$u20$as$u20$core..fmt..Debug$GT$3fmt17hbe6ea40368e3f33dE', symObjAddr: 0xF0B0, symBinAddr: 0x70F80, symSize: 0xB0 }
  - { offsetInCU: 0x6A40, offset: 0x1EF8D4, size: 0x8, addend: 0x0, symName: '__ZN77_$LT$syn..punctuated..Punctuated$LT$T$C$P$GT$$u20$as$u20$core..fmt..Debug$GT$3fmt17hcba5aa516b8ae46bE', symObjAddr: 0xF160, symBinAddr: 0x71030, symSize: 0xC0 }
  - { offsetInCU: 0x6B46, offset: 0x1EF9DA, size: 0x8, addend: 0x0, symName: '__ZN77_$LT$syn..punctuated..Punctuated$LT$T$C$P$GT$$u20$as$u20$core..fmt..Debug$GT$3fmt17hdc271369f7a8382dE', symObjAddr: 0xF220, symBinAddr: 0x710F0, symSize: 0xC0 }
  - { offsetInCU: 0x6C4B, offset: 0x1EFADF, size: 0x8, addend: 0x0, symName: '__ZN77_$LT$syn..punctuated..Punctuated$LT$T$C$P$GT$$u20$as$u20$core..fmt..Debug$GT$3fmt17he82bba336f801f55E', symObjAddr: 0xF2E0, symBinAddr: 0x711B0, symSize: 0xB0 }
  - { offsetInCU: 0x6E74, offset: 0x1EFD08, size: 0x8, addend: 0x0, symName: '__ZN138_$LT$syn..punctuated..Punctuated$LT$T$C$P$GT$$u20$as$u20$core..iter..traits..collect..Extend$LT$syn..punctuated..Pair$LT$T$C$P$GT$$GT$$GT$6extend17h0c12569780469b5fE', symObjAddr: 0xF390, symBinAddr: 0x71260, symSize: 0x370 }
  - { offsetInCU: 0x7369, offset: 0x1F01FD, size: 0x8, addend: 0x0, symName: '__ZN102_$LT$syn..punctuated..Punctuated$LT$T$C$P$GT$$u20$as$u20$core..iter..traits..collect..IntoIterator$GT$9into_iter17h19dc66090da1f9fdE', symObjAddr: 0xFB40, symBinAddr: 0x715D0, symSize: 0x210 }
  - { offsetInCU: 0x842F, offset: 0x1F12C3, size: 0x8, addend: 0x0, symName: '__ZN57_$LT$I$u20$as$u20$syn..punctuated..IterTrait$LT$T$GT$$GT$9clone_box17h362a9bc845fd49e4E.llvm.720949811486110776', symObjAddr: 0x10480, symBinAddr: 0x718D0, symSize: 0x60 }
  - { offsetInCU: 0x8649, offset: 0x1F14DD, size: 0x8, addend: 0x0, symName: '__ZN97_$LT$syn..punctuated..Punctuated$LT$T$C$P$GT$$u20$as$u20$core..ops..index..Index$LT$usize$GT$$GT$5index17h4f8cb199669a0d4aE', symObjAddr: 0x105C0, symBinAddr: 0x71930, symSize: 0x40 }
  - { offsetInCU: 0x8790, offset: 0x1F1624, size: 0x8, addend: 0x0, symName: '__ZN3syn10punctuated8printing91_$LT$impl$u20$quote..to_tokens..ToTokens$u20$for$u20$syn..punctuated..Pair$LT$T$C$P$GT$$GT$9to_tokens17h1946c43ec2d8cf8fE', symObjAddr: 0x10890, symBinAddr: 0x71B20, symSize: 0xC0 }
  - { offsetInCU: 0x8982, offset: 0x1F1816, size: 0x8, addend: 0x0, symName: '__ZN3syn10punctuated8printing97_$LT$impl$u20$quote..to_tokens..ToTokens$u20$for$u20$syn..punctuated..Punctuated$LT$T$C$P$GT$$GT$9to_tokens17h183c223efb5c6660E', symObjAddr: 0x106E0, symBinAddr: 0x71970, symSize: 0x1B0 }
  - { offsetInCU: 0x13107, offset: 0x1FBF9B, size: 0x8, addend: 0x0, symName: '__ZN4core3ptr100drop_in_place$LT$alloc..vec..Vec$LT$$LP$syn..generics..TypeParamBound$C$syn..token..Plus$RP$$GT$$GT$17h8b4df1d78e856f8eE.llvm.720949811486110776', symObjAddr: 0x0, symBinAddr: 0x63780, symSize: 0xD0 }
  - { offsetInCU: 0x133B3, offset: 0x1FC247, size: 0x8, addend: 0x0, symName: '__ZN4core3ptr100drop_in_place$LT$core..option..Option$LT$alloc..boxed..Box$LT$syn..path..GenericArgument$GT$$GT$$GT$17h7435c9de74860622E.llvm.720949811486110776', symObjAddr: 0xD0, symBinAddr: 0x63850, symSize: 0x50 }
  - { offsetInCU: 0x135A1, offset: 0x1FC435, size: 0x8, addend: 0x0, symName: '__ZN4core3ptr100drop_in_place$LT$syn..punctuated..Punctuated$LT$syn..path..PathSegment$C$syn..token..PathSep$GT$$GT$17hf414cb3581f8337aE', symObjAddr: 0x120, symBinAddr: 0x638A0, symSize: 0x110 }
  - { offsetInCU: 0x139BF, offset: 0x1FC853, size: 0x8, addend: 0x0, symName: '__ZN4core3ptr101drop_in_place$LT$alloc..vec..Vec$LT$$LP$syn..generics..WherePredicate$C$syn..token..Comma$RP$$GT$$GT$17hb2169051094b4da6E.llvm.720949811486110776', symObjAddr: 0x230, symBinAddr: 0x639B0, symSize: 0x60 }
  - { offsetInCU: 0x13BC7, offset: 0x1FCA5B, size: 0x8, addend: 0x0, symName: '__ZN4core3ptr101drop_in_place$LT$syn..punctuated..PrivateIter$LT$syn..path..PathSegment$C$syn..token..PathSep$GT$$GT$17hf6d6997603b255a8E.llvm.720949811486110776', symObjAddr: 0x290, symBinAddr: 0x63A10, symSize: 0x0 }
  - { offsetInCU: 0x13C50, offset: 0x1FCAE4, size: 0x8, addend: 0x0, symName: '__ZN4core3ptr102drop_in_place$LT$syn..punctuated..Punctuated$LT$syn..path..GenericArgument$C$syn..token..Comma$GT$$GT$17h39496ba4e6dba6cfE', symObjAddr: 0x2A0, symBinAddr: 0x63A20, symSize: 0xF0 }
  - { offsetInCU: 0x13F39, offset: 0x1FCDCD, size: 0x8, addend: 0x0, symName: '__ZN4core3ptr103drop_in_place$LT$core..option..Option$LT$alloc..boxed..Box$LT$syn..generics..TypeParamBound$GT$$GT$$GT$17h5974f03e36b1a9c3E.llvm.720949811486110776', symObjAddr: 0x390, symBinAddr: 0x63B10, symSize: 0x50 }
  - { offsetInCU: 0x14146, offset: 0x1FCFDA, size: 0x8, addend: 0x0, symName: '__ZN4core3ptr103drop_in_place$LT$syn..punctuated..Punctuated$LT$syn..generics..GenericParam$C$syn..token..Comma$GT$$GT$17hf42353fa44ed6da8E.llvm.720949811486110776', symObjAddr: 0x3E0, symBinAddr: 0x63B60, symSize: 0xF0 }
  - { offsetInCU: 0x14666, offset: 0x1FD4FA, size: 0x8, addend: 0x0, symName: '__ZN4core3ptr104drop_in_place$LT$syn..punctuated..Punctuated$LT$syn..generics..TypeParamBound$C$syn..token..Plus$GT$$GT$17h532f52c4a894b056E.llvm.720949811486110776', symObjAddr: 0x4D0, symBinAddr: 0x63C50, symSize: 0x190 }
  - { offsetInCU: 0x14CD9, offset: 0x1FDB6D, size: 0x8, addend: 0x0, symName: '__ZN4core3ptr34drop_in_place$LT$syn..lit..Lit$GT$17h8902f5ff67917034E', symObjAddr: 0x660, symBinAddr: 0x63DE0, symSize: 0x110 }
  - { offsetInCU: 0x15251, offset: 0x1FE0E5, size: 0x8, addend: 0x0, symName: '__ZN4core3ptr34drop_in_place$LT$syn..pat..Pat$GT$17h4581eea028ec0969E.llvm.720949811486110776', symObjAddr: 0x770, symBinAddr: 0x63EF0, symSize: 0x1000 }
  - { offsetInCU: 0x18D95, offset: 0x201C29, size: 0x8, addend: 0x0, symName: '__ZN4core3ptr34drop_in_place$LT$syn..ty..Type$GT$17h369e41ad4a9f1ae0E.llvm.720949811486110776', symObjAddr: 0x1770, symBinAddr: 0x64EF0, symSize: 0x4F0 }
  - { offsetInCU: 0x19D10, offset: 0x202BA4, size: 0x8, addend: 0x0, symName: '__ZN4core3ptr35drop_in_place$LT$syn..token..Or$GT$17h207b6e378c547f37E', symObjAddr: 0x1C60, symBinAddr: 0x653E0, symSize: 0x10 }
  - { offsetInCU: 0x1A32B, offset: 0x2031BF, size: 0x8, addend: 0x0, symName: '__ZN4core3ptr36drop_in_place$LT$syn..expr..Expr$GT$17h0f7fd4c749bae801E.llvm.720949811486110776', symObjAddr: 0x1C70, symBinAddr: 0x653F0, symSize: 0x28C0 }
  - { offsetInCU: 0x237D0, offset: 0x20C664, size: 0x8, addend: 0x0, symName: '__ZN4core3ptr36drop_in_place$LT$syn..mac..Macro$GT$17h4ffde962df30ebe2E', symObjAddr: 0x4530, symBinAddr: 0x67CB0, symSize: 0x40 }
  - { offsetInCU: 0x2380A, offset: 0x20C69E, size: 0x8, addend: 0x0, symName: '__ZN4core3ptr36drop_in_place$LT$syn..path..Path$GT$17habea856181211e1cE.llvm.720949811486110776', symObjAddr: 0x4570, symBinAddr: 0x67CF0, symSize: 0xC0 }
  - { offsetInCU: 0x23AE4, offset: 0x20C978, size: 0x8, addend: 0x0, symName: '__ZN4core3ptr37drop_in_place$LT$syn..data..Field$GT$17h8ecf6e22a67a3b36E.llvm.720949811486110776', symObjAddr: 0x4630, symBinAddr: 0x67DB0, symSize: 0x140 }
  - { offsetInCU: 0x23F01, offset: 0x20CD95, size: 0x8, addend: 0x0, symName: '__ZN4core3ptr37drop_in_place$LT$syn..item..FnArg$GT$17h3308e115b3b3c9adE.llvm.720949811486110776', symObjAddr: 0x4770, symBinAddr: 0x67EF0, symSize: 0x280 }
  - { offsetInCU: 0x248DD, offset: 0x20D771, size: 0x8, addend: 0x0, symName: '__ZN4core3ptr37drop_in_place$LT$syn..stmt..Block$GT$17hcc21a21cf949414cE', symObjAddr: 0x49F0, symBinAddr: 0x68170, symSize: 0xD0 }
  - { offsetInCU: 0x24B81, offset: 0x20DA15, size: 0x8, addend: 0x0, symName: '__ZN4core3ptr38drop_in_place$LT$syn..expr..Member$GT$17h022cbe5553aa40faE.llvm.720949811486110776', symObjAddr: 0x4AC0, symBinAddr: 0x68240, symSize: 0x30 }
  - { offsetInCU: 0x24C7E, offset: 0x20DB12, size: 0x8, addend: 0x0, symName: '__ZN4core3ptr39drop_in_place$LT$proc_macro2..Ident$GT$17h8101e88c3ac359d6E.llvm.720949811486110776', symObjAddr: 0x4AF0, symBinAddr: 0x68270, symSize: 0x30 }
  - { offsetInCU: 0x24DB9, offset: 0x20DC4D, size: 0x8, addend: 0x0, symName: '__ZN4core3ptr39drop_in_place$LT$syn..data..Variant$GT$17h7bd4c363751fc860E', symObjAddr: 0x4B20, symBinAddr: 0x682A0, symSize: 0x150 }
  - { offsetInCU: 0x25309, offset: 0x20E19D, size: 0x8, addend: 0x0, symName: '__ZN4core3ptr39drop_in_place$LT$syn..item..UseTree$GT$17h5b1281a5704d139dE.llvm.720949811486110776', symObjAddr: 0x4C70, symBinAddr: 0x683F0, symSize: 0x1D0 }
  - { offsetInCU: 0x25A09, offset: 0x20E89D, size: 0x8, addend: 0x0, symName: '__ZN4core3ptr39drop_in_place$LT$syn..pat..FieldPat$GT$17h6890d0559a60b030E.llvm.720949811486110776', symObjAddr: 0x4E40, symBinAddr: 0x685C0, symSize: 0x130 }
  - { offsetInCU: 0x25F4B, offset: 0x20EDDF, size: 0x8, addend: 0x0, symName: '__ZN4core3ptr39drop_in_place$LT$syn..ty..BareFnArg$GT$17hac0a1b8fd6f7ad3cE.llvm.720949811486110776', symObjAddr: 0x4F70, symBinAddr: 0x686F0, symSize: 0x110 }
  - { offsetInCU: 0x26317, offset: 0x20F1AB, size: 0x8, addend: 0x0, symName: '__ZN4core3ptr40drop_in_place$LT$syn..ty..ReturnType$GT$17h02cf41e2fec63d90E', symObjAddr: 0x5080, symBinAddr: 0x68800, symSize: 0x50 }
  - { offsetInCU: 0x26489, offset: 0x20F31D, size: 0x8, addend: 0x0, symName: '__ZN4core3ptr41drop_in_place$LT$syn..expr..ExprConst$GT$17h725a13e551d9f276E', symObjAddr: 0x50D0, symBinAddr: 0x68850, symSize: 0x180 }
  - { offsetInCU: 0x269DE, offset: 0x20F872, size: 0x8, addend: 0x0, symName: '__ZN4core3ptr42drop_in_place$LT$syn..expr..FieldValue$GT$17h26d594bfbe912662E.llvm.720949811486110776', symObjAddr: 0x5250, symBinAddr: 0x689D0, symSize: 0x110 }
  - { offsetInCU: 0x26DC8, offset: 0x20FC5C, size: 0x8, addend: 0x0, symName: '__ZN4core3ptr43drop_in_place$LT$syn..path..PathSegment$GT$17h62e206c29667de7cE.llvm.720949811486110776', symObjAddr: 0x5360, symBinAddr: 0x68AE0, symSize: 0x170 }
  - { offsetInCU: 0x272FA, offset: 0x21018E, size: 0x8, addend: 0x0, symName: '__ZN4core3ptr44drop_in_place$LT$syn..lifetime..Lifetime$GT$17hf0cdec2e9ec456d6E.llvm.720949811486110776', symObjAddr: 0x54D0, symBinAddr: 0x68C50, symSize: 0x30 }
  - { offsetInCU: 0x2752D, offset: 0x2103C1, size: 0x8, addend: 0x0, symName: '__ZN4core3ptr45drop_in_place$LT$proc_macro2..TokenStream$GT$17h3405f6c513e9f6cbE.llvm.720949811486110776', symObjAddr: 0x5500, symBinAddr: 0x68C80, symSize: 0x140 }
  - { offsetInCU: 0x2799C, offset: 0x210830, size: 0x8, addend: 0x0, symName: '__ZN4core3ptr45drop_in_place$LT$syn..generics..TypeParam$GT$17he5eda51070b7de47E.llvm.720949811486110776', symObjAddr: 0x5640, symBinAddr: 0x68DC0, symSize: 0x230 }
  - { offsetInCU: 0x28198, offset: 0x21102C, size: 0x8, addend: 0x0, symName: '__ZN4core3ptr46drop_in_place$LT$syn..generics..ConstParam$GT$17hab0a58c4af8c549cE.llvm.720949811486110776', symObjAddr: 0x5870, symBinAddr: 0x68FF0, symSize: 0x150 }
  - { offsetInCU: 0x285C2, offset: 0x211456, size: 0x8, addend: 0x0, symName: '__ZN4core3ptr47drop_in_place$LT$syn..path..GenericArgument$GT$17h54f8794633f96823E.llvm.720949811486110776', symObjAddr: 0x59C0, symBinAddr: 0x69140, symSize: 0x460 }
  - { offsetInCU: 0x292CB, offset: 0x21215F, size: 0x8, addend: 0x0, symName: '__ZN4core3ptr48drop_in_place$LT$syn..generics..GenericParam$GT$17h9c895978ef08f584E.llvm.720949811486110776', symObjAddr: 0x5E20, symBinAddr: 0x695A0, symSize: 0x40 }
  - { offsetInCU: 0x292E8, offset: 0x21217C, size: 0x8, addend: 0x0, symName: '__ZN4core3ptr49drop_in_place$LT$syn..generics..LifetimeParam$GT$17h41a7c7a290ea6289E.llvm.720949811486110776', symObjAddr: 0x5E60, symBinAddr: 0x695E0, symSize: 0xF0 }
  - { offsetInCU: 0x296E0, offset: 0x212574, size: 0x8, addend: 0x0, symName: '__ZN4core3ptr49drop_in_place$LT$syn..restriction..Visibility$GT$17h2a932c493942ef80E', symObjAddr: 0x5F50, symBinAddr: 0x696D0, symSize: 0x110 }
  - { offsetInCU: 0x29B13, offset: 0x2129A7, size: 0x8, addend: 0x0, symName: '__ZN4core3ptr50drop_in_place$LT$syn..generics..TypeParamBound$GT$17hcd7771d4c6c221efE.llvm.720949811486110776', symObjAddr: 0x6060, symBinAddr: 0x697E0, symSize: 0x160 }
  - { offsetInCU: 0x29F71, offset: 0x212E05, size: 0x8, addend: 0x0, symName: '__ZN4core3ptr50drop_in_place$LT$syn..generics..WherePredicate$GT$17h1a9d05bc1beb1d91E.llvm.720949811486110776', symObjAddr: 0x61C0, symBinAddr: 0x69940, symSize: 0xA0 }
  - { offsetInCU: 0x2A112, offset: 0x212FA6, size: 0x8, addend: 0x0, symName: '__ZN4core3ptr58drop_in_place$LT$alloc..vec..Vec$LT$syn..expr..Arm$GT$$GT$17h1a55df3d2cba1daaE', symObjAddr: 0x6260, symBinAddr: 0x699E0, symSize: 0xD0 }
  - { offsetInCU: 0x2A39F, offset: 0x213233, size: 0x8, addend: 0x0, symName: '__ZN4core3ptr59drop_in_place$LT$alloc..boxed..Box$LT$syn..pat..Pat$GT$$GT$17h563b135d87aca8abE.llvm.720949811486110776', symObjAddr: 0x6330, symBinAddr: 0x69AB0, symSize: 0x50 }
  - { offsetInCU: 0x2A4FA, offset: 0x21338E, size: 0x8, addend: 0x0, symName: '__ZN4core3ptr59drop_in_place$LT$alloc..boxed..Box$LT$syn..ty..Type$GT$$GT$17hffed36bad83adacbE.llvm.720949811486110776', symObjAddr: 0x6380, symBinAddr: 0x69B00, symSize: 0x50 }
  - { offsetInCU: 0x2A655, offset: 0x2134E9, size: 0x8, addend: 0x0, symName: '__ZN4core3ptr61drop_in_place$LT$alloc..boxed..Box$LT$syn..expr..Expr$GT$$GT$17h01091e47f131475dE.llvm.720949811486110776', symObjAddr: 0x64A0, symBinAddr: 0x69B50, symSize: 0x50 }
  - { offsetInCU: 0x2A82C, offset: 0x2136C0, size: 0x8, addend: 0x0, symName: '__ZN4core3ptr61drop_in_place$LT$syn..path..ParenthesizedGenericArguments$GT$17h43d4aac5494326a7E.llvm.720949811486110776', symObjAddr: 0x64F0, symBinAddr: 0x69BA0, symSize: 0x170 }
  - { offsetInCU: 0x2AE06, offset: 0x213C9A, size: 0x8, addend: 0x0, symName: '__ZN4core3ptr62drop_in_place$LT$alloc..boxed..Box$LT$syn..data..Field$GT$$GT$17hebc7cac3b74f311dE', symObjAddr: 0x6660, symBinAddr: 0x69D10, symSize: 0x50 }
  - { offsetInCU: 0x2AF61, offset: 0x213DF5, size: 0x8, addend: 0x0, symName: '__ZN4core3ptr62drop_in_place$LT$alloc..boxed..Box$LT$syn..item..FnArg$GT$$GT$17hc527eff785dac3a2E', symObjAddr: 0x66B0, symBinAddr: 0x69D60, symSize: 0x50 }
  - { offsetInCU: 0x2B0CF, offset: 0x213F63, size: 0x8, addend: 0x0, symName: '__ZN4core3ptr63drop_in_place$LT$alloc..boxed..Box$LT$syn..lit..LitRepr$GT$$GT$17hd8839b7fb35ee7afE', symObjAddr: 0x6700, symBinAddr: 0x69DB0, symSize: 0x60 }
  - { offsetInCU: 0x2B3A5, offset: 0x214239, size: 0x8, addend: 0x0, symName: '__ZN4core3ptr64drop_in_place$LT$alloc..boxed..Box$LT$syn..data..Variant$GT$$GT$17h4d6d609d76c77795E', symObjAddr: 0x6760, symBinAddr: 0x69E10, symSize: 0x50 }
  - { offsetInCU: 0x2B500, offset: 0x214394, size: 0x8, addend: 0x0, symName: '__ZN4core3ptr64drop_in_place$LT$alloc..boxed..Box$LT$syn..item..UseTree$GT$$GT$17he10cba0a4742709fE', symObjAddr: 0x67B0, symBinAddr: 0x69E60, symSize: 0x50 }
  - { offsetInCU: 0x2B67A, offset: 0x21450E, size: 0x8, addend: 0x0, symName: '__ZN4core3ptr64drop_in_place$LT$alloc..boxed..Box$LT$syn..pat..FieldPat$GT$$GT$17h4980b70a7597cc08E', symObjAddr: 0x6800, symBinAddr: 0x69EB0, symSize: 0x140 }
  - { offsetInCU: 0x2BCE7, offset: 0x214B7B, size: 0x8, addend: 0x0, symName: '__ZN4core3ptr64drop_in_place$LT$alloc..boxed..Box$LT$syn..ty..BareFnArg$GT$$GT$17h8b34096c620314efE', symObjAddr: 0x6940, symBinAddr: 0x69FF0, symSize: 0x140 }
  - { offsetInCU: 0x2C20B, offset: 0x21509F, size: 0x8, addend: 0x0, symName: '__ZN4core3ptr65drop_in_place$LT$core..option..Option$LT$syn..expr..Label$GT$$GT$17h78189e72a8cb7951E', symObjAddr: 0x6A80, symBinAddr: 0x6A130, symSize: 0x30 }
  - { offsetInCU: 0x2C346, offset: 0x2151DA, size: 0x8, addend: 0x0, symName: '__ZN4core3ptr66drop_in_place$LT$core..option..Option$LT$syn..pat..PatRest$GT$$GT$17h61677cf4ff3a7393E', symObjAddr: 0x6AB0, symBinAddr: 0x6A160, symSize: 0xE0 }
  - { offsetInCU: 0x2C5CA, offset: 0x21545E, size: 0x8, addend: 0x0, symName: '__ZN4core3ptr67drop_in_place$LT$alloc..boxed..Box$LT$syn..expr..FieldValue$GT$$GT$17h93aaccf8aa22ef88E', symObjAddr: 0x6B90, symBinAddr: 0x6A240, symSize: 0x140 }
  - { offsetInCU: 0x2CACE, offset: 0x215962, size: 0x8, addend: 0x0, symName: '__ZN4core3ptr68drop_in_place$LT$alloc..boxed..Box$LT$syn..path..PathSegment$GT$$GT$17h709dabdc13b58a71E', symObjAddr: 0x6CD0, symBinAddr: 0x6A380, symSize: 0x50 }
  - { offsetInCU: 0x2CC29, offset: 0x215ABD, size: 0x8, addend: 0x0, symName: '__ZN4core3ptr69drop_in_place$LT$alloc..boxed..Box$LT$syn..lifetime..Lifetime$GT$$GT$17hfda2f33ce1e27b6cE', symObjAddr: 0x6D20, symBinAddr: 0x6A3D0, symSize: 0x40 }
  - { offsetInCU: 0x2CE00, offset: 0x215C94, size: 0x8, addend: 0x0, symName: '__ZN4core3ptr70drop_in_place$LT$core..option..Option$LT$syn..ty..BareVariadic$GT$$GT$17h45399348ea4b8d55E', symObjAddr: 0x6D60, symBinAddr: 0x6A410, symSize: 0x120 }
  - { offsetInCU: 0x2D32D, offset: 0x2161C1, size: 0x8, addend: 0x0, symName: '__ZN4core3ptr72drop_in_place$LT$alloc..boxed..Box$LT$syn..path..GenericArgument$GT$$GT$17haa7dd8b716637b54E', symObjAddr: 0x6E80, symBinAddr: 0x6A530, symSize: 0x2B0 }
  - { offsetInCU: 0x2DD18, offset: 0x216BAC, size: 0x8, addend: 0x0, symName: '__ZN4core3ptr73drop_in_place$LT$alloc..boxed..Box$LT$syn..generics..GenericParam$GT$$GT$17hf6951dcd5ae07324E.llvm.720949811486110776', symObjAddr: 0x7130, symBinAddr: 0x6A7E0, symSize: 0x80 }
  - { offsetInCU: 0x2DEAF, offset: 0x216D43, size: 0x8, addend: 0x0, symName: '__ZN4core3ptr73drop_in_place$LT$alloc..vec..Vec$LT$syn..generics..TypeParamBound$GT$$GT$17hdab4c0986d98765bE.llvm.720949811486110776', symObjAddr: 0x71B0, symBinAddr: 0x6A860, symSize: 0xC0 }
  - { offsetInCU: 0x2E14F, offset: 0x216FE3, size: 0x8, addend: 0x0, symName: '__ZN4core3ptr75drop_in_place$LT$alloc..boxed..Box$LT$syn..generics..TypeParamBound$GT$$GT$17he61c00698a311a34E', symObjAddr: 0x7270, symBinAddr: 0x6A920, symSize: 0xB0 }
  - { offsetInCU: 0x2E44D, offset: 0x2172E1, size: 0x8, addend: 0x0, symName: '__ZN4core3ptr75drop_in_place$LT$alloc..boxed..Box$LT$syn..generics..WherePredicate$GT$$GT$17hb3c3f96fc44a9b07E', symObjAddr: 0x7320, symBinAddr: 0x6A9D0, symSize: 0x50 }
  - { offsetInCU: 0x2E5BB, offset: 0x21744F, size: 0x8, addend: 0x0, symName: '__ZN4core3ptr76drop_in_place$LT$$LP$syn..generics..GenericParam$C$syn..token..Comma$RP$$GT$17hadd4ee9dc4c521adE.llvm.720949811486110776', symObjAddr: 0x7370, symBinAddr: 0x6AA20, symSize: 0x40 }
  - { offsetInCU: 0x2E629, offset: 0x2174BD, size: 0x8, addend: 0x0, symName: '__ZN4core3ptr82drop_in_place$LT$alloc..vec..Vec$LT$$LP$syn..pat..Pat$C$syn..token..Or$RP$$GT$$GT$17h79250e525f9bf0e5E.llvm.720949811486110776', symObjAddr: 0x7480, symBinAddr: 0x6AA60, symSize: 0x0 }
  - { offsetInCU: 0x2E8EA, offset: 0x21777E, size: 0x8, addend: 0x0, symName: '__ZN4core3ptr85drop_in_place$LT$alloc..vec..Vec$LT$$LP$syn..ty..Type$C$syn..token..Comma$RP$$GT$$GT$17hf6a59a148065f17dE.llvm.720949811486110776', symObjAddr: 0x7550, symBinAddr: 0x6AB30, symSize: 0xD0 }
  - { offsetInCU: 0x2EBE9, offset: 0x217A7D, size: 0x8, addend: 0x0, symName: '__ZN4core3ptr86drop_in_place$LT$syn..punctuated..Punctuated$LT$syn..pat..Pat$C$syn..token..Or$GT$$GT$17h8e9173df21a44316E', symObjAddr: 0x7620, symBinAddr: 0x6AC00, symSize: 0x120 }
  - { offsetInCU: 0x2F04E, offset: 0x217EE2, size: 0x8, addend: 0x0, symName: '__ZN4core3ptr87drop_in_place$LT$alloc..vec..Vec$LT$$LP$syn..expr..Expr$C$syn..token..Comma$RP$$GT$$GT$17hbf3f4cd50fb0b0ecE.llvm.720949811486110776', symObjAddr: 0x7740, symBinAddr: 0x6AD20, symSize: 0xD0 }
  - { offsetInCU: 0x2F30F, offset: 0x2181A3, size: 0x8, addend: 0x0, symName: '__ZN4core3ptr87drop_in_place$LT$core..option..Option$LT$alloc..boxed..Box$LT$syn..pat..Pat$GT$$GT$$GT$17hd7b7c69f601b3926E', symObjAddr: 0x7810, symBinAddr: 0x6ADF0, symSize: 0x50 }
  - { offsetInCU: 0x2F481, offset: 0x218315, size: 0x8, addend: 0x0, symName: '__ZN4core3ptr87drop_in_place$LT$core..option..Option$LT$alloc..boxed..Box$LT$syn..ty..Type$GT$$GT$$GT$17hd74f5d971aec2972E.llvm.720949811486110776', symObjAddr: 0x7860, symBinAddr: 0x6AE40, symSize: 0x50 }
  - { offsetInCU: 0x2F612, offset: 0x2184A6, size: 0x8, addend: 0x0, symName: '__ZN4core3ptr88drop_in_place$LT$alloc..vec..Vec$LT$$LP$syn..data..Field$C$syn..token..Comma$RP$$GT$$GT$17h02f4d88f184a75f6E.llvm.720949811486110776', symObjAddr: 0x78B0, symBinAddr: 0x6AE90, symSize: 0xD0 }
  - { offsetInCU: 0x2F8F2, offset: 0x218786, size: 0x8, addend: 0x0, symName: '__ZN4core3ptr88drop_in_place$LT$alloc..vec..Vec$LT$$LP$syn..item..FnArg$C$syn..token..Comma$RP$$GT$$GT$17h9235dca64c193d6aE.llvm.720949811486110776', symObjAddr: 0x7980, symBinAddr: 0x6AF60, symSize: 0xE0 }
  - { offsetInCU: 0x2FBC0, offset: 0x218A54, size: 0x8, addend: 0x0, symName: '__ZN4core3ptr89drop_in_place$LT$core..option..Option$LT$alloc..boxed..Box$LT$syn..expr..Expr$GT$$GT$$GT$17h8e135ac1a25a2dc5E', symObjAddr: 0x7A60, symBinAddr: 0x6B040, symSize: 0x50 }
  - { offsetInCU: 0x2FD70, offset: 0x218C04, size: 0x8, addend: 0x0, symName: '__ZN4core3ptr89drop_in_place$LT$syn..punctuated..Punctuated$LT$syn..pat..Pat$C$syn..token..Comma$GT$$GT$17h8d60e47f3fb1f87aE', symObjAddr: 0x7AB0, symBinAddr: 0x6B090, symSize: 0x120 }
  - { offsetInCU: 0x301CD, offset: 0x219061, size: 0x8, addend: 0x0, symName: '__ZN4core3ptr89drop_in_place$LT$syn..punctuated..Punctuated$LT$syn..ty..Type$C$syn..token..Comma$GT$$GT$17ha919b3114742fb9dE.llvm.720949811486110776', symObjAddr: 0x7BD0, symBinAddr: 0x6B1B0, symSize: 0x120 }
  - { offsetInCU: 0x30636, offset: 0x2194CA, size: 0x8, addend: 0x0, symName: '__ZN4core3ptr90drop_in_place$LT$alloc..vec..Vec$LT$$LP$syn..data..Variant$C$syn..token..Comma$RP$$GT$$GT$17h680219081cc43a7dE.llvm.720949811486110776', symObjAddr: 0x7CF0, symBinAddr: 0x6B2D0, symSize: 0xD0 }
  - { offsetInCU: 0x308F7, offset: 0x21978B, size: 0x8, addend: 0x0, symName: '__ZN4core3ptr90drop_in_place$LT$alloc..vec..Vec$LT$$LP$syn..item..UseTree$C$syn..token..Comma$RP$$GT$$GT$17hac2434f3c2e2707dE.llvm.720949811486110776', symObjAddr: 0x7DC0, symBinAddr: 0x6B3A0, symSize: 0xD0 }
  - { offsetInCU: 0x30BB8, offset: 0x219A4C, size: 0x8, addend: 0x0, symName: '__ZN4core3ptr90drop_in_place$LT$alloc..vec..Vec$LT$$LP$syn..pat..FieldPat$C$syn..token..Comma$RP$$GT$$GT$17hb84c43e95b74d098E.llvm.720949811486110776', symObjAddr: 0x7E90, symBinAddr: 0x6B470, symSize: 0xD0 }
  - { offsetInCU: 0x30E45, offset: 0x219CD9, size: 0x8, addend: 0x0, symName: '__ZN4core3ptr90drop_in_place$LT$alloc..vec..Vec$LT$$LP$syn..ty..BareFnArg$C$syn..token..Comma$RP$$GT$$GT$17ha1bf96fdde0de332E.llvm.720949811486110776', symObjAddr: 0x7F60, symBinAddr: 0x6B540, symSize: 0xD0 }
  - { offsetInCU: 0x310F1, offset: 0x219F85, size: 0x8, addend: 0x0, symName: '__ZN4core3ptr90drop_in_place$LT$core..option..Option$LT$alloc..boxed..Box$LT$syn..data..Field$GT$$GT$$GT$17h326c39537b0fcc46E.llvm.720949811486110776', symObjAddr: 0x8030, symBinAddr: 0x6B610, symSize: 0x50 }
  - { offsetInCU: 0x31275, offset: 0x21A109, size: 0x8, addend: 0x0, symName: '__ZN4core3ptr91drop_in_place$LT$syn..punctuated..Punctuated$LT$syn..expr..Expr$C$syn..token..Comma$GT$$GT$17h4f39b83dc86a4159E.llvm.720949811486110776', symObjAddr: 0x8080, symBinAddr: 0x6B660, symSize: 0x120 }
  - { offsetInCU: 0x316F1, offset: 0x21A585, size: 0x8, addend: 0x0, symName: '__ZN4core3ptr92drop_in_place$LT$core..option..Option$LT$alloc..boxed..Box$LT$syn..data..Variant$GT$$GT$$GT$17h3f89d7c982191526E', symObjAddr: 0x81A0, symBinAddr: 0x6B780, symSize: 0x50 }
  - { offsetInCU: 0x31894, offset: 0x21A728, size: 0x8, addend: 0x0, symName: '__ZN4core3ptr92drop_in_place$LT$syn..punctuated..Punctuated$LT$syn..data..Field$C$syn..token..Comma$GT$$GT$17hca76f5e010a141e5E', symObjAddr: 0x81F0, symBinAddr: 0x6B7D0, symSize: 0x120 }
  - { offsetInCU: 0x31CD1, offset: 0x21AB65, size: 0x8, addend: 0x0, symName: '__ZN4core3ptr93drop_in_place$LT$alloc..vec..Vec$LT$$LP$syn..expr..FieldValue$C$syn..token..Comma$RP$$GT$$GT$17h9295f6966e75a214E.llvm.720949811486110776', symObjAddr: 0x8310, symBinAddr: 0x6B8F0, symSize: 0xD0 }
  - { offsetInCU: 0x31F7D, offset: 0x21AE11, size: 0x8, addend: 0x0, symName: '__ZN4core3ptr94drop_in_place$LT$alloc..vec..Vec$LT$$LP$syn..lifetime..Lifetime$C$syn..token..Plus$RP$$GT$$GT$17h5bdaba7f0fbee773E.llvm.720949811486110776', symObjAddr: 0x83E0, symBinAddr: 0x6B9C0, symSize: 0x80 }
  - { offsetInCU: 0x32242, offset: 0x21B0D6, size: 0x8, addend: 0x0, symName: '__ZN4core3ptr94drop_in_place$LT$syn..punctuated..Punctuated$LT$syn..data..Variant$C$syn..token..Comma$GT$$GT$17ha69d7e675441c7e2E', symObjAddr: 0x8460, symBinAddr: 0x6BA40, symSize: 0x120 }
  - { offsetInCU: 0x3267F, offset: 0x21B513, size: 0x8, addend: 0x0, symName: '__ZN4core3ptr94drop_in_place$LT$syn..punctuated..Punctuated$LT$syn..pat..FieldPat$C$syn..token..Comma$GT$$GT$17h112950ea198c8281E', symObjAddr: 0x8580, symBinAddr: 0x6BB60, symSize: 0xF0 }
  - { offsetInCU: 0x32949, offset: 0x21B7DD, size: 0x8, addend: 0x0, symName: '__ZN4core3ptr94drop_in_place$LT$syn..punctuated..Punctuated$LT$syn..ty..BareFnArg$C$syn..token..Comma$GT$$GT$17h1c7b44310f06243dE', symObjAddr: 0x8670, symBinAddr: 0x6BC50, symSize: 0xF0 }
  - { offsetInCU: 0x32C13, offset: 0x21BAA7, size: 0x8, addend: 0x0, symName: '__ZN4core3ptr95drop_in_place$LT$core..option..Option$LT$$LP$proc_macro2..Ident$C$syn..token..Colon$RP$$GT$$GT$17ha744bf0f41959716E.llvm.720949811486110776', symObjAddr: 0x8760, symBinAddr: 0x6BD40, symSize: 0x30 }
  - { offsetInCU: 0x32D2F, offset: 0x21BBC3, size: 0x8, addend: 0x0, symName: '__ZN4core3ptr96drop_in_place$LT$alloc..vec..Vec$LT$$LP$syn..path..PathSegment$C$syn..token..PathSep$RP$$GT$$GT$17h42880a1541c295f5E.llvm.720949811486110776', symObjAddr: 0x8790, symBinAddr: 0x6BD70, symSize: 0xC0 }
  - { offsetInCU: 0x32FDB, offset: 0x21BE6F, size: 0x8, addend: 0x0, symName: '__ZN4core3ptr96drop_in_place$LT$core..option..Option$LT$alloc..boxed..Box$LT$syn..path..PathSegment$GT$$GT$$GT$17hb447d0f626c86a4eE.llvm.720949811486110776', symObjAddr: 0x8850, symBinAddr: 0x6BE30, symSize: 0x180 }
  - { offsetInCU: 0x3368B, offset: 0x21C51F, size: 0x8, addend: 0x0, symName: '__ZN4core3ptr97drop_in_place$LT$syn..punctuated..Punctuated$LT$syn..expr..FieldValue$C$syn..token..Comma$GT$$GT$17h31b81f7462228dcbE', symObjAddr: 0x8A20, symBinAddr: 0x6BFB0, symSize: 0xF0 }
  - { offsetInCU: 0x33955, offset: 0x21C7E9, size: 0x8, addend: 0x0, symName: '__ZN4core3ptr98drop_in_place$LT$alloc..vec..Vec$LT$$LP$syn..path..GenericArgument$C$syn..token..Comma$RP$$GT$$GT$17h0657ff261f33b640E.llvm.720949811486110776', symObjAddr: 0x8B10, symBinAddr: 0x6C0A0, symSize: 0xD0 }
  - { offsetInCU: 0x33C20, offset: 0x21CAB4, size: 0x8, addend: 0x0, symName: '__ZN4core3ptr98drop_in_place$LT$syn..punctuated..Punctuated$LT$syn..lifetime..Lifetime$C$syn..token..Plus$GT$$GT$17h0f8fc5f20f465f47E.llvm.720949811486110776', symObjAddr: 0x8BE0, symBinAddr: 0x6C170, symSize: 0xC0 }
  - { offsetInCU: 0x34098, offset: 0x21CF2C, size: 0x8, addend: 0x0, symName: '__ZN4core3ptr99drop_in_place$LT$alloc..vec..Vec$LT$$LP$syn..generics..GenericParam$C$syn..token..Comma$RP$$GT$$GT$17h80db164c829d38feE.llvm.720949811486110776', symObjAddr: 0x8CA0, symBinAddr: 0x6C230, symSize: 0x60 }
  - { offsetInCU: 0x34309, offset: 0x21D19D, size: 0x8, addend: 0x0, symName: '__ZN4core3ptr99drop_in_place$LT$syn..punctuated..IntoPairs$LT$syn..path..PathSegment$C$syn..token..PathSep$GT$$GT$17h4470f4520ed6b72cE', symObjAddr: 0x8D00, symBinAddr: 0x6C290, symSize: 0x50 }
  - { offsetInCU: 0x3CCEE, offset: 0x225B82, size: 0x8, addend: 0x0, symName: __ZN4core4iter6traits10exact_size17ExactSizeIterator8is_empty17h35ee032e6e88d349E.llvm.720949811486110776, symObjAddr: 0x8D50, symBinAddr: 0x6C2E0, symSize: 0x0 }
  - { offsetInCU: 0x3CE3C, offset: 0x225CD0, size: 0x8, addend: 0x0, symName: __ZN4core4iter6traits12double_ended19DoubleEndedIterator15advance_back_by17h4d1e2015fdf30f06E.llvm.720949811486110776, symObjAddr: 0x8E00, symBinAddr: 0x6C310, symSize: 0x0 }
  - { offsetInCU: 0x3D08C, offset: 0x225F20, size: 0x8, addend: 0x0, symName: __ZN4core4iter6traits12double_ended19DoubleEndedIterator8nth_back17h5a89a76496a5f1f6E.llvm.720949811486110776, symObjAddr: 0x9090, symBinAddr: 0x6C390, symSize: 0x0 }
  - { offsetInCU: 0x3D545, offset: 0x2263D9, size: 0x8, addend: 0x0, symName: __ZN4core4iter6traits8iterator8Iterator10advance_by17h81fbac6663af7f06E.llvm.720949811486110776, symObjAddr: 0x9370, symBinAddr: 0x6C440, symSize: 0x0 }
  - { offsetInCU: 0x3D8E1, offset: 0x226775, size: 0x8, addend: 0x0, symName: __ZN4core4iter6traits8iterator8Iterator3nth17h2760078497cfc6daE.llvm.720949811486110776, symObjAddr: 0x9450, symBinAddr: 0x6C4B0, symSize: 0x0 }
  - { offsetInCU: 0x3DEAB, offset: 0x226D3F, size: 0x8, addend: 0x0, symName: __ZN4core4iter6traits8iterator8Iterator9size_hint17h27d36cc3f9874dd4E.llvm.720949811486110776, symObjAddr: 0x9650, symBinAddr: 0x6C530, symSize: 0x0 }
  - { offsetInCU: 0x415B3, offset: 0x22A447, size: 0x8, addend: 0x0, symName: '__ZN3syn10punctuated23Punctuated$LT$T$C$P$GT$10push_value17h1464794b59e71484E', symObjAddr: 0x9CF0, symBinAddr: 0x6C550, symSize: 0x110 }
  - { offsetInCU: 0x4182E, offset: 0x22A6C2, size: 0x8, addend: 0x0, symName: '__ZN3syn10punctuated23Punctuated$LT$T$C$P$GT$10push_value17h19b8fd7bec07dcc7E', symObjAddr: 0x9E00, symBinAddr: 0x6C660, symSize: 0x0 }
  - { offsetInCU: 0x41AC3, offset: 0x22A957, size: 0x8, addend: 0x0, symName: '__ZN3syn10punctuated23Punctuated$LT$T$C$P$GT$10push_value17h2ac8ee7d941e7bd6E', symObjAddr: 0x9F10, symBinAddr: 0x6C770, symSize: 0x110 }
  - { offsetInCU: 0x41D3E, offset: 0x22ABD2, size: 0x8, addend: 0x0, symName: '__ZN3syn10punctuated23Punctuated$LT$T$C$P$GT$10push_value17h4d756fff73ab62fcE', symObjAddr: 0xA020, symBinAddr: 0x6C880, symSize: 0x110 }
  - { offsetInCU: 0x41FB9, offset: 0x22AE4D, size: 0x8, addend: 0x0, symName: '__ZN3syn10punctuated23Punctuated$LT$T$C$P$GT$10push_value17h922210f6ed64bedfE', symObjAddr: 0xA130, symBinAddr: 0x6C990, symSize: 0x110 }
  - { offsetInCU: 0x42234, offset: 0x22B0C8, size: 0x8, addend: 0x0, symName: '__ZN3syn10punctuated23Punctuated$LT$T$C$P$GT$10push_value17h9bf9b9eda25b7b08E', symObjAddr: 0xA240, symBinAddr: 0x6CAA0, symSize: 0x100 }
  - { offsetInCU: 0x424AE, offset: 0x22B342, size: 0x8, addend: 0x0, symName: '__ZN3syn10punctuated23Punctuated$LT$T$C$P$GT$10push_value17ha11f44006af1fce5E', symObjAddr: 0xA340, symBinAddr: 0x6CBA0, symSize: 0x100 }
  - { offsetInCU: 0x4271F, offset: 0x22B5B3, size: 0x8, addend: 0x0, symName: '__ZN3syn10punctuated23Punctuated$LT$T$C$P$GT$10push_value17hb125b8a2ccd1d083E', symObjAddr: 0xA440, symBinAddr: 0x6CCA0, symSize: 0x110 }
  - { offsetInCU: 0x42AA4, offset: 0x22B938, size: 0x8, addend: 0x0, symName: '__ZN3syn10punctuated23Punctuated$LT$T$C$P$GT$10push_value17hbe2de12ba6ba96f3E', symObjAddr: 0xA550, symBinAddr: 0x6CDB0, symSize: 0xD0 }
  - { offsetInCU: 0x42D15, offset: 0x22BBA9, size: 0x8, addend: 0x0, symName: '__ZN3syn10punctuated23Punctuated$LT$T$C$P$GT$10push_value17hc84f0581e5006d1dE', symObjAddr: 0xA620, symBinAddr: 0x6CE80, symSize: 0x110 }
  - { offsetInCU: 0x42F90, offset: 0x22BE24, size: 0x8, addend: 0x0, symName: '__ZN3syn10punctuated23Punctuated$LT$T$C$P$GT$10push_value17hc8f25dfb73f20dfeE', symObjAddr: 0xA730, symBinAddr: 0x6CF90, symSize: 0xF0 }
  - { offsetInCU: 0x431F4, offset: 0x22C088, size: 0x8, addend: 0x0, symName: '__ZN3syn10punctuated23Punctuated$LT$T$C$P$GT$10push_value17hf794ec4a43a6463aE', symObjAddr: 0xA820, symBinAddr: 0x6D080, symSize: 0x110 }
  - { offsetInCU: 0x43489, offset: 0x22C31D, size: 0x8, addend: 0x0, symName: '__ZN3syn10punctuated23Punctuated$LT$T$C$P$GT$10push_value17hfcd023ac5ed059ccE', symObjAddr: 0xA930, symBinAddr: 0x6D190, symSize: 0x100 }
  - { offsetInCU: 0x43714, offset: 0x22C5A8, size: 0x8, addend: 0x0, symName: '__ZN3syn10punctuated23Punctuated$LT$T$C$P$GT$10push_punct17h009caae710d7fa9eE', symObjAddr: 0xAA30, symBinAddr: 0x6D290, symSize: 0x120 }
  - { offsetInCU: 0x43AF4, offset: 0x22C988, size: 0x8, addend: 0x0, symName: '__ZN3syn10punctuated23Punctuated$LT$T$C$P$GT$10push_punct17h466bf79492cbbcb5E', symObjAddr: 0xAB50, symBinAddr: 0x6D3B0, symSize: 0x120 }
  - { offsetInCU: 0x43EEE, offset: 0x22CD82, size: 0x8, addend: 0x0, symName: '__ZN3syn10punctuated23Punctuated$LT$T$C$P$GT$10push_punct17h4774822b9e0d6ec3E', symObjAddr: 0xAC70, symBinAddr: 0x6D4D0, symSize: 0x120 }
  - { offsetInCU: 0x442C1, offset: 0x22D155, size: 0x8, addend: 0x0, symName: '__ZN3syn10punctuated23Punctuated$LT$T$C$P$GT$10push_punct17h61110cebcbc73b5eE', symObjAddr: 0xAD90, symBinAddr: 0x6D5F0, symSize: 0x120 }
  - { offsetInCU: 0x44681, offset: 0x22D515, size: 0x8, addend: 0x0, symName: '__ZN3syn10punctuated23Punctuated$LT$T$C$P$GT$10push_punct17h6c195d18e6105754E', symObjAddr: 0xAEB0, symBinAddr: 0x6D710, symSize: 0x120 }
  - { offsetInCU: 0x44AAE, offset: 0x22D942, size: 0x8, addend: 0x0, symName: '__ZN3syn10punctuated23Punctuated$LT$T$C$P$GT$10push_punct17h7570ad2eb8eda148E', symObjAddr: 0xAFD0, symBinAddr: 0x6D830, symSize: 0x140 }
  - { offsetInCU: 0x44FD1, offset: 0x22DE65, size: 0x8, addend: 0x0, symName: '__ZN3syn10punctuated23Punctuated$LT$T$C$P$GT$10push_punct17h89b356a21cce1885E', symObjAddr: 0xB110, symBinAddr: 0x6D970, symSize: 0x120 }
  - { offsetInCU: 0x453B1, offset: 0x22E245, size: 0x8, addend: 0x0, symName: '__ZN3syn10punctuated23Punctuated$LT$T$C$P$GT$10push_punct17h9b1d77aef8736936E', symObjAddr: 0xB230, symBinAddr: 0x6DA90, symSize: 0x120 }
  - { offsetInCU: 0x45791, offset: 0x22E625, size: 0x8, addend: 0x0, symName: '__ZN3syn10punctuated23Punctuated$LT$T$C$P$GT$10push_punct17ha8c738426f753245E', symObjAddr: 0xB350, symBinAddr: 0x6DBB0, symSize: 0x120 }
  - { offsetInCU: 0x45B71, offset: 0x22EA05, size: 0x8, addend: 0x0, symName: '__ZN3syn10punctuated23Punctuated$LT$T$C$P$GT$10push_punct17hb0fc5a7a37e2e4edE', symObjAddr: 0xB470, symBinAddr: 0x6DCD0, symSize: 0x120 }
  - { offsetInCU: 0x45F51, offset: 0x22EDE5, size: 0x8, addend: 0x0, symName: '__ZN3syn10punctuated23Punctuated$LT$T$C$P$GT$10push_punct17hb4e9855c6f264597E', symObjAddr: 0xB590, symBinAddr: 0x6DDF0, symSize: 0x120 }
  - { offsetInCU: 0x46331, offset: 0x22F1C5, size: 0x8, addend: 0x0, symName: '__ZN3syn10punctuated23Punctuated$LT$T$C$P$GT$10push_punct17hbb75469815d830eaE', symObjAddr: 0xB6B0, symBinAddr: 0x6DF10, symSize: 0x110 }
  - { offsetInCU: 0x46713, offset: 0x22F5A7, size: 0x8, addend: 0x0, symName: '__ZN3syn10punctuated23Punctuated$LT$T$C$P$GT$10push_punct17hc20d22090670493fE', symObjAddr: 0xB7C0, symBinAddr: 0x6E020, symSize: 0xF0 }
  - { offsetInCU: 0x46AF3, offset: 0x22F987, size: 0x8, addend: 0x0, symName: '__ZN3syn10punctuated23Punctuated$LT$T$C$P$GT$10push_punct17hc2ba07c343e9a099E', symObjAddr: 0xB8B0, symBinAddr: 0x6E110, symSize: 0xF0 }
  - { offsetInCU: 0x46ED3, offset: 0x22FD67, size: 0x8, addend: 0x0, symName: '__ZN3syn10punctuated23Punctuated$LT$T$C$P$GT$10push_punct17hfbed3f5b6fa00fbfE', symObjAddr: 0xB9A0, symBinAddr: 0x6E200, symSize: 0x120 }
  - { offsetInCU: 0x47359, offset: 0x2301ED, size: 0x8, addend: 0x0, symName: '__ZN3syn10punctuated23Punctuated$LT$T$C$P$GT$3pop17h69e8e60024538083E', symObjAddr: 0xBAC0, symBinAddr: 0x6E320, symSize: 0xA0 }
  - { offsetInCU: 0x47758, offset: 0x2305EC, size: 0x8, addend: 0x0, symName: '__ZN3syn10punctuated23Punctuated$LT$T$C$P$GT$4push17hc1655cb815934489E', symObjAddr: 0xBB60, symBinAddr: 0x6E3C0, symSize: 0x170 }
  - { offsetInCU: 0x47B26, offset: 0x2309BA, size: 0x8, addend: 0x0, symName: '__ZN3syn10punctuated23Punctuated$LT$T$C$P$GT$21parse_terminated_with17h124b73cd374cc0f5E', symObjAddr: 0xBCD0, symBinAddr: 0x6E530, symSize: 0x220 }
  - { offsetInCU: 0x480EE, offset: 0x230F82, size: 0x8, addend: 0x0, symName: '__ZN3syn10punctuated23Punctuated$LT$T$C$P$GT$21parse_terminated_with17h7169b9f60635eaacE', symObjAddr: 0xBEF0, symBinAddr: 0x6E750, symSize: 0x3E0 }
  - { offsetInCU: 0x489FA, offset: 0x23188E, size: 0x8, addend: 0x0, symName: '__ZN3syn10punctuated23Punctuated$LT$T$C$P$GT$21parse_terminated_with17hf39ea62a3f36347dE', symObjAddr: 0xC2D0, symBinAddr: 0x6EB30, symSize: 0x220 }
  - { offsetInCU: 0x48FA8, offset: 0x231E3C, size: 0x8, addend: 0x0, symName: '__ZN3syn10punctuated23Punctuated$LT$T$C$P$GT$21parse_terminated_with17hf813a9f490e11643E', symObjAddr: 0xC4F0, symBinAddr: 0x6ED50, symSize: 0x3E0 }
  - { offsetInCU: 0x1E, offset: 0x239D26, size: 0x8, addend: 0x0, symName: '__ZN42_$LT$$RF$T$u20$as$u20$core..fmt..Debug$GT$3fmt17h50e288d0fe0c03cfE', symObjAddr: 0x0, symBinAddr: 0x71BE0, symSize: 0x10 }
  - { offsetInCU: 0x2AD0, offset: 0x23C7D8, size: 0x8, addend: 0x0, symName: '__ZN3syn4expr8printing77_$LT$impl$u20$quote..to_tokens..ToTokens$u20$for$u20$syn..expr..ExprArray$GT$9to_tokens17h2ef9833ff7ff7fceE', symObjAddr: 0x10970, symBinAddr: 0x807D0, symSize: 0x90 }
  - { offsetInCU: 0x2C9A, offset: 0x23C9A2, size: 0x8, addend: 0x0, symName: '__ZN3syn4expr8printing77_$LT$impl$u20$quote..to_tokens..ToTokens$u20$for$u20$syn..expr..ExprAsync$GT$9to_tokens17h2495d6e29bb4a201E', symObjAddr: 0x10A10, symBinAddr: 0x80860, symSize: 0x170 }
  - { offsetInCU: 0x314D, offset: 0x23CE55, size: 0x8, addend: 0x0, symName: '__ZN3syn4expr8printing77_$LT$impl$u20$quote..to_tokens..ToTokens$u20$for$u20$syn..expr..ExprBlock$GT$9to_tokens17hdd73246d789555d5E', symObjAddr: 0x10BA0, symBinAddr: 0x809D0, symSize: 0x100 }
  - { offsetInCU: 0x34D4, offset: 0x23D1DC, size: 0x8, addend: 0x0, symName: '__ZN3syn4expr8printing79_$LT$impl$u20$quote..to_tokens..ToTokens$u20$for$u20$syn..expr..ExprClosure$GT$9to_tokens17h0d6ce1172208619dE', symObjAddr: 0x10CD0, symBinAddr: 0x80AD0, symSize: 0x400 }
  - { offsetInCU: 0x4107, offset: 0x23DE0F, size: 0x8, addend: 0x0, symName: '__ZN3syn4expr8printing77_$LT$impl$u20$quote..to_tokens..ToTokens$u20$for$u20$syn..expr..ExprConst$GT$9to_tokens17hcaf2e3202a16c77aE', symObjAddr: 0x110D0, symBinAddr: 0x80ED0, symSize: 0x100 }
  - { offsetInCU: 0x43B6, offset: 0x23E0BE, size: 0x8, addend: 0x0, symName: '__ZN3syn4expr8printing80_$LT$impl$u20$quote..to_tokens..ToTokens$u20$for$u20$syn..expr..ExprContinue$GT$9to_tokens17hebd76b9e5d479ff4E', symObjAddr: 0x111D0, symBinAddr: 0x80FD0, symSize: 0x140 }
  - { offsetInCU: 0x47E5, offset: 0x23E4ED, size: 0x8, addend: 0x0, symName: '__ZN3syn4expr8printing77_$LT$impl$u20$quote..to_tokens..ToTokens$u20$for$u20$syn..expr..ExprGroup$GT$9to_tokens17h43695a0f104bbad3E', symObjAddr: 0x11560, symBinAddr: 0x81110, symSize: 0x90 }
  - { offsetInCU: 0x4982, offset: 0x23E68A, size: 0x8, addend: 0x0, symName: '__ZN3syn4expr8printing74_$LT$impl$u20$quote..to_tokens..ToTokens$u20$for$u20$syn..expr..ExprIf$GT$9to_tokens17h925864585cd53cb7E', symObjAddr: 0x115F0, symBinAddr: 0x811A0, symSize: 0x3D0 }
  - { offsetInCU: 0x546A, offset: 0x23F172, size: 0x8, addend: 0x0, symName: '__ZN3syn4expr8printing77_$LT$impl$u20$quote..to_tokens..ToTokens$u20$for$u20$syn..expr..ExprInfer$GT$9to_tokens17he40a1f0c107707dbE', symObjAddr: 0x119D0, symBinAddr: 0x81570, symSize: 0xF0 }
  - { offsetInCU: 0x5716, offset: 0x23F41E, size: 0x8, addend: 0x0, symName: '__ZN3syn4expr8printing75_$LT$impl$u20$quote..to_tokens..ToTokens$u20$for$u20$syn..expr..ExprLit$GT$9to_tokens17ha9f3a462aa7f9b8cE', symObjAddr: 0x11AD0, symBinAddr: 0x81660, symSize: 0x80 }
  - { offsetInCU: 0x58A9, offset: 0x23F5B1, size: 0x8, addend: 0x0, symName: '__ZN3syn4expr8printing76_$LT$impl$u20$quote..to_tokens..ToTokens$u20$for$u20$syn..expr..ExprLoop$GT$9to_tokens17hc6f1b6becf15eae4E', symObjAddr: 0x11B50, symBinAddr: 0x816E0, symSize: 0x170 }
  - { offsetInCU: 0x5CC7, offset: 0x23F9CF, size: 0x8, addend: 0x0, symName: '__ZN3syn4expr8printing77_$LT$impl$u20$quote..to_tokens..ToTokens$u20$for$u20$syn..expr..ExprMacro$GT$9to_tokens17h1aad6dcc7b88acf6E', symObjAddr: 0x11CC0, symBinAddr: 0x81850, symSize: 0x90 }
  - { offsetInCU: 0x5EB2, offset: 0x23FBBA, size: 0x8, addend: 0x0, symName: '__ZN3syn4expr8printing77_$LT$impl$u20$quote..to_tokens..ToTokens$u20$for$u20$syn..expr..ExprParen$GT$9to_tokens17hf25c89af93be7f23E', symObjAddr: 0x11ED0, symBinAddr: 0x818E0, symSize: 0x90 }
  - { offsetInCU: 0x604F, offset: 0x23FD57, size: 0x8, addend: 0x0, symName: '__ZN3syn4expr8printing76_$LT$impl$u20$quote..to_tokens..ToTokens$u20$for$u20$syn..expr..ExprPath$GT$9to_tokens17hab4f628f5b9ed40bE', symObjAddr: 0x11F60, symBinAddr: 0x81970, symSize: 0x90 }
  - { offsetInCU: 0x623C, offset: 0x23FF44, size: 0x8, addend: 0x0, symName: '__ZN3syn4expr8printing78_$LT$impl$u20$quote..to_tokens..ToTokens$u20$for$u20$syn..expr..ExprRepeat$GT$9to_tokens17h7f259068e0bd4858E', symObjAddr: 0x12010, symBinAddr: 0x81A00, symSize: 0x90 }
  - { offsetInCU: 0x63FA, offset: 0x240102, size: 0x8, addend: 0x0, symName: '__ZN3syn4expr8printing78_$LT$impl$u20$quote..to_tokens..ToTokens$u20$for$u20$syn..expr..ExprStruct$GT$9to_tokens17h572ac1509ac9915cE', symObjAddr: 0x120B0, symBinAddr: 0x81A90, symSize: 0xA0 }
  - { offsetInCU: 0x65BB, offset: 0x2402C3, size: 0x8, addend: 0x0, symName: '__ZN3syn4expr8printing80_$LT$impl$u20$quote..to_tokens..ToTokens$u20$for$u20$syn..expr..ExprTryBlock$GT$9to_tokens17h33126d9a5af6a3b9E', symObjAddr: 0x12160, symBinAddr: 0x81B30, symSize: 0x100 }
  - { offsetInCU: 0x6890, offset: 0x240598, size: 0x8, addend: 0x0, symName: '__ZN3syn4expr8printing77_$LT$impl$u20$quote..to_tokens..ToTokens$u20$for$u20$syn..expr..ExprTuple$GT$9to_tokens17h802dba8012b208d4E', symObjAddr: 0x12260, symBinAddr: 0x81C30, symSize: 0x90 }
  - { offsetInCU: 0x6A4E, offset: 0x240756, size: 0x8, addend: 0x0, symName: '__ZN3syn4expr8printing78_$LT$impl$u20$quote..to_tokens..ToTokens$u20$for$u20$syn..expr..ExprUnsafe$GT$9to_tokens17h40aedefd13b3e1e7E', symObjAddr: 0x12300, symBinAddr: 0x81CC0, symSize: 0x100 }
  - { offsetInCU: 0x6D57, offset: 0x240A5F, size: 0x8, addend: 0x0, symName: '__ZN3syn4expr8printing71_$LT$impl$u20$quote..to_tokens..ToTokens$u20$for$u20$syn..expr..Arm$GT$9to_tokens17h78a0e9de12a0eb67E', symObjAddr: 0x125E0, symBinAddr: 0x81DC0, symSize: 0x180 }
  - { offsetInCU: 0x7102, offset: 0x240E0A, size: 0x8, addend: 0x0, symName: '__ZN3syn4expr8printing74_$LT$impl$u20$quote..to_tokens..ToTokens$u20$for$u20$syn..expr..Member$GT$9to_tokens17hfcc2f8d0a07457a9E', symObjAddr: 0x12970, symBinAddr: 0x81F40, symSize: 0xD0 }
  - { offsetInCU: 0x7463, offset: 0x24116B, size: 0x8, addend: 0x0, symName: '__ZN3syn4expr7parsing63_$LT$impl$u20$syn..parse..Parse$u20$for$u20$syn..expr..Expr$GT$5parse17h55500ba46fd3498aE', symObjAddr: 0x92A0, symBinAddr: 0x79F30, symSize: 0x100 }
  - { offsetInCU: 0x750B, offset: 0x241213, size: 0x8, addend: 0x0, symName: '__ZN3syn4expr7parsing66_$LT$impl$u20$syn..parse..Parse$u20$for$u20$syn..expr..ExprLit$GT$5parse17h503d2569d625f8d4E', symObjAddr: 0x9D30, symBinAddr: 0x7A030, symSize: 0xD0 }
  - { offsetInCU: 0x75EB, offset: 0x2412F3, size: 0x8, addend: 0x0, symName: '__ZN3syn4expr7parsing65_$LT$impl$u20$syn..parse..Parse$u20$for$u20$syn..expr..ExprIf$GT$5parse17h47168d1e46c083ceE', symObjAddr: 0x9E40, symBinAddr: 0x7A100, symSize: 0x1070 }
  - { offsetInCU: 0x9D75, offset: 0x243A7D, size: 0x8, addend: 0x0, symName: '__ZN3syn4expr7parsing68_$LT$impl$u20$syn..parse..Parse$u20$for$u20$syn..expr..ExprInfer$GT$5parse17h96cf775fe66799ebE', symObjAddr: 0xAEB0, symBinAddr: 0x7B170, symSize: 0x190 }
  - { offsetInCU: 0xA0E8, offset: 0x243DF0, size: 0x8, addend: 0x0, symName: '__ZN3syn4expr7parsing70_$LT$impl$u20$syn..parse..Parse$u20$for$u20$syn..expr..ExprForLoop$GT$5parse17hce5f73eac4ad2dc4E', symObjAddr: 0xB040, symBinAddr: 0x7B300, symSize: 0x9F0 }
  - { offsetInCU: 0xB2EE, offset: 0x244FF6, size: 0x8, addend: 0x0, symName: '__ZN3syn4expr7parsing67_$LT$impl$u20$syn..parse..Parse$u20$for$u20$syn..expr..ExprLoop$GT$5parse17h1aa74e5d000da669E', symObjAddr: 0xBA30, symBinAddr: 0x7BCF0, symSize: 0x600 }
  - { offsetInCU: 0xBF45, offset: 0x245C4D, size: 0x8, addend: 0x0, symName: '__ZN3syn4expr7parsing68_$LT$impl$u20$syn..parse..Parse$u20$for$u20$syn..expr..ExprMatch$GT$5parse17h352dd08cf5c0778bE', symObjAddr: 0xC030, symBinAddr: 0x7C2F0, symSize: 0x7F0 }
  - { offsetInCU: 0xC91B, offset: 0x246623, size: 0x8, addend: 0x0, symName: '__ZN3syn4expr7parsing69_$LT$impl$u20$syn..parse..Parse$u20$for$u20$syn..expr..ExprReturn$GT$5parse17h3d5bc077999de314E', symObjAddr: 0xCB30, symBinAddr: 0x7CAE0, symSize: 0x110 }
  - { offsetInCU: 0xCB02, offset: 0x24680A, size: 0x8, addend: 0x0, symName: '__ZN3syn4expr7parsing71_$LT$impl$u20$syn..parse..Parse$u20$for$u20$syn..expr..ExprTryBlock$GT$5parse17hce262d6454af1d4eE', symObjAddr: 0xCC40, symBinAddr: 0x7CBF0, symSize: 0x140 }
  - { offsetInCU: 0xCC84, offset: 0x24698C, size: 0x8, addend: 0x0, symName: '__ZN3syn4expr7parsing68_$LT$impl$u20$syn..parse..Parse$u20$for$u20$syn..expr..ExprYield$GT$5parse17h17c1f052e1267cf9E', symObjAddr: 0xCD80, symBinAddr: 0x7CD30, symSize: 0x110 }
  - { offsetInCU: 0xCE79, offset: 0x246B81, size: 0x8, addend: 0x0, symName: '__ZN3syn4expr7parsing68_$LT$impl$u20$syn..parse..Parse$u20$for$u20$syn..expr..ExprAsync$GT$5parse17h950490ecfb80e9a1E', symObjAddr: 0xCE90, symBinAddr: 0x7CE40, symSize: 0x1C0 }
  - { offsetInCU: 0xD17E, offset: 0x246E86, size: 0x8, addend: 0x0, symName: '__ZN3syn4expr7parsing68_$LT$impl$u20$syn..parse..Parse$u20$for$u20$syn..expr..ExprWhile$GT$5parse17h571b14b3fd0af108E', symObjAddr: 0xD050, symBinAddr: 0x7D000, symSize: 0x910 }
  - { offsetInCU: 0xE013, offset: 0x247D1B, size: 0x8, addend: 0x0, symName: '__ZN3syn4expr7parsing68_$LT$impl$u20$syn..parse..Parse$u20$for$u20$syn..expr..ExprConst$GT$5parse17h01369ed4345e6402E', symObjAddr: 0xD960, symBinAddr: 0x7D910, symSize: 0x4B0 }
  - { offsetInCU: 0xE93D, offset: 0x248645, size: 0x8, addend: 0x0, symName: '__ZN3syn4expr7parsing64_$LT$impl$u20$syn..parse..Parse$u20$for$u20$syn..expr..Label$GT$5parse17h93d18de187bdc41eE', symObjAddr: 0xDE10, symBinAddr: 0x7DDC0, symSize: 0x1D0 }
  - { offsetInCU: 0xEE89, offset: 0x248B91, size: 0x8, addend: 0x0, symName: '__ZN3syn4expr7parsing71_$LT$impl$u20$syn..parse..Parse$u20$for$u20$syn..expr..ExprContinue$GT$5parse17he5af0a754429df94E', symObjAddr: 0xDFE0, symBinAddr: 0x7DF90, symSize: 0x1A0 }
  - { offsetInCU: 0xF006, offset: 0x248D0E, size: 0x8, addend: 0x0, symName: '__ZN3syn4expr7parsing69_$LT$impl$u20$syn..parse..Parse$u20$for$u20$syn..expr..FieldValue$GT$5parse17h9c84ab0cc06aa064E', symObjAddr: 0xE180, symBinAddr: 0x7E130, symSize: 0x660 }
  - { offsetInCU: 0xF9F2, offset: 0x2496FA, size: 0x8, addend: 0x0, symName: '__ZN3syn4expr7parsing69_$LT$impl$u20$syn..parse..Parse$u20$for$u20$syn..expr..ExprUnsafe$GT$5parse17he7d1a74465ffba81E', symObjAddr: 0xE930, symBinAddr: 0x7E790, symSize: 0x4B0 }
  - { offsetInCU: 0x1031C, offset: 0x24A024, size: 0x8, addend: 0x0, symName: '__ZN3syn4expr7parsing68_$LT$impl$u20$syn..parse..Parse$u20$for$u20$syn..expr..ExprBlock$GT$5parse17h74103f700210131fE', symObjAddr: 0xEDE0, symBinAddr: 0x7EC40, symSize: 0x5E0 }
  - { offsetInCU: 0x111B7, offset: 0x24AEBF, size: 0x8, addend: 0x0, symName: '__ZN3syn4expr7parsing70_$LT$impl$u20$syn..parse..Parse$u20$for$u20$syn..expr..RangeLimits$GT$5parse17hef78e73737c0f24cE', symObjAddr: 0xF3C0, symBinAddr: 0x7F220, symSize: 0x2F0 }
  - { offsetInCU: 0x11DE5, offset: 0x24BAED, size: 0x8, addend: 0x0, symName: '__ZN3syn4expr7parsing67_$LT$impl$u20$syn..parse..Parse$u20$for$u20$syn..expr..ExprPath$GT$5parse17haeeb72b62ac51e5cE', symObjAddr: 0xFA40, symBinAddr: 0x7F8A0, symSize: 0x2B0 }
  - { offsetInCU: 0x121B0, offset: 0x24BEB8, size: 0x8, addend: 0x0, symName: '__ZN3syn4expr7parsing65_$LT$impl$u20$syn..parse..Parse$u20$for$u20$syn..expr..Member$GT$5parse17h60bbc140c6d22534E', symObjAddr: 0xFCF0, symBinAddr: 0x7FB50, symSize: 0x110 }
  - { offsetInCU: 0x12404, offset: 0x24C10C, size: 0x8, addend: 0x0, symName: '__ZN3syn4expr7parsing62_$LT$impl$u20$syn..parse..Parse$u20$for$u20$syn..expr..Arm$GT$5parse17hbd2ba360fcc9627cE', symObjAddr: 0xFE00, symBinAddr: 0x7FC60, symSize: 0x900 }
  - { offsetInCU: 0x13226, offset: 0x24CF2E, size: 0x8, addend: 0x0, symName: '__ZN3syn4expr7parsing64_$LT$impl$u20$syn..parse..Parse$u20$for$u20$syn..expr..Index$GT$5parse17h213ef4a079d37babE', symObjAddr: 0x10700, symBinAddr: 0x80560, symSize: 0x270 }
  - { offsetInCU: 0x13916, offset: 0x24D61E, size: 0x8, addend: 0x0, symName: '__ZN62_$LT$syn..expr..Expr$u20$as$u20$quote..to_tokens..ToTokens$GT$9to_tokens17h69a442f5848eec7cE', symObjAddr: 0x12AD0, symBinAddr: 0x82010, symSize: 0x2F80 }
  - { offsetInCU: 0x1DF5E, offset: 0x257C66, size: 0x8, addend: 0x0, symName: '__ZN3syn3gen5debug61_$LT$impl$u20$core..fmt..Debug$u20$for$u20$syn..expr..Arm$GT$3fmt17h46e1739f18eeb1f4E', symObjAddr: 0x1D590, symBinAddr: 0x88C40, symSize: 0x100 }
  - { offsetInCU: 0x1DFBF, offset: 0x257CC7, size: 0x8, addend: 0x0, symName: '__ZN3syn3gen5debug62_$LT$impl$u20$core..fmt..Debug$u20$for$u20$syn..expr..Expr$GT$3fmt17h6df12957c160d588E', symObjAddr: 0x1D690, symBinAddr: 0x88D40, symSize: 0x550 }
  - { offsetInCU: 0x1E4E7, offset: 0x2581EF, size: 0x8, addend: 0x0, symName: '__ZN3syn3gen5debug68_$LT$impl$u20$core..fmt..Debug$u20$for$u20$syn..expr..FieldValue$GT$3fmt17hd684e26a779f2f5eE', symObjAddr: 0x21010, symBinAddr: 0x8AEA0, symSize: 0xC0 }
  - { offsetInCU: 0x1E54B, offset: 0x258253, size: 0x8, addend: 0x0, symName: '__ZN3syn3gen5debug63_$LT$impl$u20$core..fmt..Debug$u20$for$u20$syn..expr..Index$GT$3fmt17habfd0b014d252c78E', symObjAddr: 0x210D0, symBinAddr: 0x8AF60, symSize: 0x80 }
  - { offsetInCU: 0x1E5AF, offset: 0x2582B7, size: 0x8, addend: 0x0, symName: '__ZN3syn3gen5debug64_$LT$impl$u20$core..fmt..Debug$u20$for$u20$syn..expr..Member$GT$3fmt17ha75c8d1404e9e184E', symObjAddr: 0x211D0, symBinAddr: 0x8AFE0, symSize: 0xA0 }
  - { offsetInCU: 0x1E66B, offset: 0x258373, size: 0x8, addend: 0x0, symName: '__ZN3syn3gen5debug69_$LT$impl$u20$core..fmt..Debug$u20$for$u20$syn..expr..RangeLimits$GT$3fmt17hb8ae480e8f8768a8E', symObjAddr: 0x21270, symBinAddr: 0x8B080, symSize: 0xA0 }
  - { offsetInCU: 0x1E75D, offset: 0x258465, size: 0x8, addend: 0x0, symName: '__ZN3syn3gen2eq72_$LT$impl$u20$core..cmp..PartialEq$u20$for$u20$syn..expr..FieldValue$GT$2eq17h09cc1cc4f004ff6cE', symObjAddr: 0x24800, symBinAddr: 0x8E3C0, symSize: 0x180 }
  - { offsetInCU: 0x1EA51, offset: 0x258759, size: 0x8, addend: 0x0, symName: '__ZN3syn3gen2eq66_$LT$impl$u20$core..cmp..PartialEq$u20$for$u20$syn..expr..Expr$GT$2eq17ha5fa078d9a85853dE', symObjAddr: 0x21480, symBinAddr: 0x8B120, symSize: 0x3F0 }
  - { offsetInCU: 0x1F200, offset: 0x258F08, size: 0x8, addend: 0x0, symName: '__ZN3syn3gen2eq71_$LT$impl$u20$core..cmp..PartialEq$u20$for$u20$syn..expr..ExprArray$GT$2eq17hf9250a5fec9667a0E', symObjAddr: 0x21870, symBinAddr: 0x8B510, symSize: 0x0 }
  - { offsetInCU: 0x1F57C, offset: 0x259284, size: 0x8, addend: 0x0, symName: '__ZN3syn3gen2eq72_$LT$impl$u20$core..cmp..PartialEq$u20$for$u20$syn..expr..ExprAssign$GT$2eq17h87c38b42566b3125E', symObjAddr: 0x21A20, symBinAddr: 0x8B6C0, symSize: 0x130 }
  - { offsetInCU: 0x1F79C, offset: 0x2594A4, size: 0x8, addend: 0x0, symName: '__ZN3syn3gen2eq71_$LT$impl$u20$core..cmp..PartialEq$u20$for$u20$syn..expr..ExprAsync$GT$2eq17hde30406706a7de43E', symObjAddr: 0x21B50, symBinAddr: 0x8B7F0, symSize: 0x190 }
  - { offsetInCU: 0x1FB2C, offset: 0x259834, size: 0x8, addend: 0x0, symName: '__ZN3syn3gen2eq72_$LT$impl$u20$core..cmp..PartialEq$u20$for$u20$syn..expr..ExprBinary$GT$2eq17h224b0d11b49fd897E', symObjAddr: 0x21CE0, symBinAddr: 0x8B980, symSize: 0x130 }
  - { offsetInCU: 0x1FD90, offset: 0x259A98, size: 0x8, addend: 0x0, symName: '__ZN3syn3gen2eq71_$LT$impl$u20$core..cmp..PartialEq$u20$for$u20$syn..expr..ExprBlock$GT$2eq17hc2957009a731d7c6E', symObjAddr: 0x21E10, symBinAddr: 0x8BAB0, symSize: 0x1A0 }
  - { offsetInCU: 0x20137, offset: 0x259E3F, size: 0x8, addend: 0x0, symName: '__ZN3syn3gen2eq71_$LT$impl$u20$core..cmp..PartialEq$u20$for$u20$syn..expr..ExprBreak$GT$2eq17h1b4cc6a427d8567bE', symObjAddr: 0x21FB0, symBinAddr: 0x8BC50, symSize: 0x150 }
  - { offsetInCU: 0x2042F, offset: 0x25A137, size: 0x8, addend: 0x0, symName: '__ZN3syn3gen2eq70_$LT$impl$u20$core..cmp..PartialEq$u20$for$u20$syn..expr..ExprCall$GT$2eq17h12ab9c9d37cebc06E', symObjAddr: 0x22100, symBinAddr: 0x8BDA0, symSize: 0x1C0 }
  - { offsetInCU: 0x207E3, offset: 0x25A4EB, size: 0x8, addend: 0x0, symName: '__ZN3syn3gen2eq70_$LT$impl$u20$core..cmp..PartialEq$u20$for$u20$syn..expr..ExprCast$GT$2eq17hd802da8cc5059fd6E', symObjAddr: 0x222C0, symBinAddr: 0x8BF60, symSize: 0x130 }
  - { offsetInCU: 0x20A03, offset: 0x25A70B, size: 0x8, addend: 0x0, symName: '__ZN3syn3gen2eq73_$LT$impl$u20$core..cmp..PartialEq$u20$for$u20$syn..expr..ExprClosure$GT$2eq17hb244a761178acdccE', symObjAddr: 0x223F0, symBinAddr: 0x8C090, symSize: 0x270 }
  - { offsetInCU: 0x2103F, offset: 0x25AD47, size: 0x8, addend: 0x0, symName: '__ZN3syn3gen2eq71_$LT$impl$u20$core..cmp..PartialEq$u20$for$u20$syn..expr..ExprConst$GT$2eq17he331185882aa0821E', symObjAddr: 0x22660, symBinAddr: 0x8C300, symSize: 0x0 }
  - { offsetInCU: 0x2133E, offset: 0x25B046, size: 0x8, addend: 0x0, symName: '__ZN3syn3gen2eq74_$LT$impl$u20$core..cmp..PartialEq$u20$for$u20$syn..expr..ExprContinue$GT$2eq17he2d1120a6643bdb6E', symObjAddr: 0x227E0, symBinAddr: 0x8C480, symSize: 0x140 }
  - { offsetInCU: 0x215A4, offset: 0x25B2AC, size: 0x8, addend: 0x0, symName: '__ZN3syn3gen2eq71_$LT$impl$u20$core..cmp..PartialEq$u20$for$u20$syn..expr..ExprField$GT$2eq17h97b123c099c4e384E', symObjAddr: 0x22920, symBinAddr: 0x8C5C0, symSize: 0x150 }
  - { offsetInCU: 0x21843, offset: 0x25B54B, size: 0x8, addend: 0x0, symName: '__ZN3syn3gen2eq73_$LT$impl$u20$core..cmp..PartialEq$u20$for$u20$syn..expr..ExprForLoop$GT$2eq17h0cdb91624706e158E', symObjAddr: 0x22A70, symBinAddr: 0x8C710, symSize: 0x1C0 }
  - { offsetInCU: 0x21C5A, offset: 0x25B962, size: 0x8, addend: 0x0, symName: '__ZN3syn3gen2eq68_$LT$impl$u20$core..cmp..PartialEq$u20$for$u20$syn..expr..ExprIf$GT$2eq17h32b6976c0c9bd12eE', symObjAddr: 0x22C30, symBinAddr: 0x8C8D0, symSize: 0x1C0 }
  - { offsetInCU: 0x22087, offset: 0x25BD8F, size: 0x8, addend: 0x0, symName: '__ZN3syn3gen2eq71_$LT$impl$u20$core..cmp..PartialEq$u20$for$u20$syn..expr..ExprIndex$GT$2eq17h0494af68f54e2dfcE', symObjAddr: 0x22DF0, symBinAddr: 0x8CA90, symSize: 0x0 }
  - { offsetInCU: 0x222A7, offset: 0x25BFAF, size: 0x8, addend: 0x0, symName: '__ZN3syn3gen2eq69_$LT$impl$u20$core..cmp..PartialEq$u20$for$u20$syn..expr..ExprLet$GT$2eq17hfd7926ebca675c33E', symObjAddr: 0x23000, symBinAddr: 0x8CBC0, symSize: 0x130 }
  - { offsetInCU: 0x224C7, offset: 0x25C1CF, size: 0x8, addend: 0x0, symName: '__ZN3syn3gen2eq69_$LT$impl$u20$core..cmp..PartialEq$u20$for$u20$syn..expr..ExprLit$GT$2eq17h649994caa2d9ebe0E', symObjAddr: 0x23130, symBinAddr: 0x8CCF0, symSize: 0x120 }
  - { offsetInCU: 0x22679, offset: 0x25C381, size: 0x8, addend: 0x0, symName: '__ZN3syn3gen2eq70_$LT$impl$u20$core..cmp..PartialEq$u20$for$u20$syn..expr..ExprLoop$GT$2eq17h56eb242c54922d70E', symObjAddr: 0x23250, symBinAddr: 0x8CE10, symSize: 0x1A0 }
  - { offsetInCU: 0x22A20, offset: 0x25C728, size: 0x8, addend: 0x0, symName: '__ZN3syn3gen2eq71_$LT$impl$u20$core..cmp..PartialEq$u20$for$u20$syn..expr..ExprMacro$GT$2eq17h549a742fca9430eaE', symObjAddr: 0x233F0, symBinAddr: 0x8CFB0, symSize: 0x120 }
  - { offsetInCU: 0x22BD2, offset: 0x25C8DA, size: 0x8, addend: 0x0, symName: '__ZN3syn3gen2eq71_$LT$impl$u20$core..cmp..PartialEq$u20$for$u20$syn..expr..ExprMatch$GT$2eq17hfbc5689ac02e080bE', symObjAddr: 0x23510, symBinAddr: 0x8D0D0, symSize: 0x320 }
  - { offsetInCU: 0x2325F, offset: 0x25CF67, size: 0x8, addend: 0x0, symName: '__ZN3syn3gen2eq76_$LT$impl$u20$core..cmp..PartialEq$u20$for$u20$syn..expr..ExprMethodCall$GT$2eq17hc80e1f3f2bfc8838E', symObjAddr: 0x23830, symBinAddr: 0x8D3F0, symSize: 0x2C0 }
  - { offsetInCU: 0x23923, offset: 0x25D62B, size: 0x8, addend: 0x0, symName: '__ZN3syn3gen2eq71_$LT$impl$u20$core..cmp..PartialEq$u20$for$u20$syn..expr..ExprParen$GT$2eq17h23da24308845d8acE', symObjAddr: 0x23AF0, symBinAddr: 0x8D6B0, symSize: 0x120 }
  - { offsetInCU: 0x23B0B, offset: 0x25D813, size: 0x8, addend: 0x0, symName: '__ZN3syn3gen2eq70_$LT$impl$u20$core..cmp..PartialEq$u20$for$u20$syn..expr..ExprPath$GT$2eq17h38cb7d5ad2893590E', symObjAddr: 0x23C10, symBinAddr: 0x8D7D0, symSize: 0x1C0 }
  - { offsetInCU: 0x23F75, offset: 0x25DC7D, size: 0x8, addend: 0x0, symName: '__ZN3syn3gen2eq71_$LT$impl$u20$core..cmp..PartialEq$u20$for$u20$syn..expr..ExprRange$GT$2eq17h48abc3d650b6f50cE', symObjAddr: 0x23DD0, symBinAddr: 0x8D990, symSize: 0x170 }
  - { offsetInCU: 0x242BD, offset: 0x25DFC5, size: 0x8, addend: 0x0, symName: '__ZN3syn3gen2eq75_$LT$impl$u20$core..cmp..PartialEq$u20$for$u20$syn..expr..ExprReference$GT$2eq17h1d7de2d26d60163eE', symObjAddr: 0x23F40, symBinAddr: 0x8DB00, symSize: 0x130 }
  - { offsetInCU: 0x244F3, offset: 0x25E1FB, size: 0x8, addend: 0x0, symName: '__ZN3syn3gen2eq72_$LT$impl$u20$core..cmp..PartialEq$u20$for$u20$syn..expr..ExprStruct$GT$2eq17hc3535a84d6f52423E', symObjAddr: 0x24070, symBinAddr: 0x8DC30, symSize: 0x250 }
  - { offsetInCU: 0x24B2C, offset: 0x25E834, size: 0x8, addend: 0x0, symName: '__ZN3syn3gen2eq69_$LT$impl$u20$core..cmp..PartialEq$u20$for$u20$syn..expr..ExprTry$GT$2eq17h08251d7b193fb709E', symObjAddr: 0x242C0, symBinAddr: 0x8DE80, symSize: 0x0 }
  - { offsetInCU: 0x24D48, offset: 0x25EA50, size: 0x8, addend: 0x0, symName: '__ZN3syn3gen2eq71_$LT$impl$u20$core..cmp..PartialEq$u20$for$u20$syn..expr..ExprUnary$GT$2eq17h7d3867a89412137cE', symObjAddr: 0x243E0, symBinAddr: 0x8DFA0, symSize: 0x140 }
  - { offsetInCU: 0x24F58, offset: 0x25EC60, size: 0x8, addend: 0x0, symName: '__ZN3syn3gen2eq71_$LT$impl$u20$core..cmp..PartialEq$u20$for$u20$syn..expr..ExprWhile$GT$2eq17hc93c7239f0ed1e7fE', symObjAddr: 0x24520, symBinAddr: 0x8E0E0, symSize: 0x1B0 }
  - { offsetInCU: 0x25337, offset: 0x25F03F, size: 0x8, addend: 0x0, symName: '__ZN3syn3gen2eq71_$LT$impl$u20$core..cmp..PartialEq$u20$for$u20$syn..expr..ExprYield$GT$2eq17h03f58119db653731E', symObjAddr: 0x246D0, symBinAddr: 0x8E290, symSize: 0x0 }
  - { offsetInCU: 0x255B1, offset: 0x25F2B9, size: 0x8, addend: 0x0, symName: '__ZN3syn3gen5clone63_$LT$impl$u20$core..clone..Clone$u20$for$u20$syn..expr..Arm$GT$5clone17h53aa09041e68e579E', symObjAddr: 0x18200, symBinAddr: 0x84F90, symSize: 0x1F0 }
  - { offsetInCU: 0x25F64, offset: 0x25FC6C, size: 0x8, addend: 0x0, symName: '__ZN3syn3gen5clone64_$LT$impl$u20$core..clone..Clone$u20$for$u20$syn..expr..Expr$GT$5clone17h514f3f764121797bE', symObjAddr: 0x183F0, symBinAddr: 0x85180, symSize: 0x1F40 }
  - { offsetInCU: 0x2A1FB, offset: 0x263F03, size: 0x8, addend: 0x0, symName: '__ZN3syn3gen5clone69_$LT$impl$u20$core..clone..Clone$u20$for$u20$syn..expr..ExprBlock$GT$5clone17he50df63feb0aac81E', symObjAddr: 0x1A870, symBinAddr: 0x870C0, symSize: 0x160 }
  - { offsetInCU: 0x2A542, offset: 0x26424A, size: 0x8, addend: 0x0, symName: '__ZN3syn3gen5clone69_$LT$impl$u20$core..clone..Clone$u20$for$u20$syn..expr..ExprBreak$GT$5clone17h175ec6506dc8ea05E', symObjAddr: 0x1A9D0, symBinAddr: 0x87220, symSize: 0x190 }
  - { offsetInCU: 0x2AAB5, offset: 0x2647BD, size: 0x8, addend: 0x0, symName: '__ZN3syn3gen5clone71_$LT$impl$u20$core..clone..Clone$u20$for$u20$syn..expr..ExprClosure$GT$5clone17ha9bd9832e2a25c35E', symObjAddr: 0x1AE10, symBinAddr: 0x873B0, symSize: 0x360 }
  - { offsetInCU: 0x2B1E7, offset: 0x264EEF, size: 0x8, addend: 0x0, symName: '__ZN3syn3gen5clone71_$LT$impl$u20$core..clone..Clone$u20$for$u20$syn..expr..ExprForLoop$GT$5clone17h7dcc3a15fa9a1ad7E', symObjAddr: 0x1B440, symBinAddr: 0x87710, symSize: 0x2D0 }
  - { offsetInCU: 0x2BA37, offset: 0x26573F, size: 0x8, addend: 0x0, symName: '__ZN3syn3gen5clone66_$LT$impl$u20$core..clone..Clone$u20$for$u20$syn..expr..ExprIf$GT$5clone17heafdb7ddebd20aa8E', symObjAddr: 0x1B7F0, symBinAddr: 0x879E0, symSize: 0x200 }
  - { offsetInCU: 0x2BFB2, offset: 0x265CBA, size: 0x8, addend: 0x0, symName: '__ZN3syn3gen5clone68_$LT$impl$u20$core..clone..Clone$u20$for$u20$syn..expr..ExprLoop$GT$5clone17h8d0e378c9d11b4faE', symObjAddr: 0x1BDC0, symBinAddr: 0x87BE0, symSize: 0x170 }
  - { offsetInCU: 0x2C327, offset: 0x26602F, size: 0x8, addend: 0x0, symName: '__ZN3syn3gen5clone69_$LT$impl$u20$core..clone..Clone$u20$for$u20$syn..expr..ExprMatch$GT$5clone17ha6c11e0b0c716b5fE', symObjAddr: 0x1BFC0, symBinAddr: 0x87D50, symSize: 0x140 }
  - { offsetInCU: 0x2C5F2, offset: 0x2662FA, size: 0x8, addend: 0x0, symName: '__ZN3syn3gen5clone74_$LT$impl$u20$core..clone..Clone$u20$for$u20$syn..expr..ExprMethodCall$GT$5clone17h6eda847712eca907E', symObjAddr: 0x1C100, symBinAddr: 0x87E90, symSize: 0x340 }
  - { offsetInCU: 0x2CDE4, offset: 0x266AEC, size: 0x8, addend: 0x0, symName: '__ZN3syn3gen5clone68_$LT$impl$u20$core..clone..Clone$u20$for$u20$syn..expr..ExprPath$GT$5clone17h551c107546a23a5aE', symObjAddr: 0x1C520, symBinAddr: 0x881D0, symSize: 0x1A0 }
  - { offsetInCU: 0x2D1B8, offset: 0x266EC0, size: 0x8, addend: 0x0, symName: '__ZN3syn3gen5clone69_$LT$impl$u20$core..clone..Clone$u20$for$u20$syn..expr..ExprRange$GT$5clone17h17c522a22b98888cE', symObjAddr: 0x1C6C0, symBinAddr: 0x88370, symSize: 0x1A0 }
  - { offsetInCU: 0x2D70B, offset: 0x267413, size: 0x8, addend: 0x0, symName: '__ZN3syn3gen5clone70_$LT$impl$u20$core..clone..Clone$u20$for$u20$syn..expr..ExprStruct$GT$5clone17ha9a3e7ffe6d95269E', symObjAddr: 0x1CAE0, symBinAddr: 0x88510, symSize: 0x3C0 }
  - { offsetInCU: 0x2DFE1, offset: 0x267CE9, size: 0x8, addend: 0x0, symName: '__ZN3syn3gen5clone69_$LT$impl$u20$core..clone..Clone$u20$for$u20$syn..expr..ExprWhile$GT$5clone17h9beced0f1ab317ccE', symObjAddr: 0x1D060, symBinAddr: 0x888D0, symSize: 0x220 }
  - { offsetInCU: 0x2E5BE, offset: 0x2682C6, size: 0x8, addend: 0x0, symName: '__ZN3syn3gen5clone70_$LT$impl$u20$core..clone..Clone$u20$for$u20$syn..expr..FieldValue$GT$5clone17h77ca3a84e53c5c6cE', symObjAddr: 0x1D370, symBinAddr: 0x88AF0, symSize: 0x150 }
  - { offsetInCU: 0x30440, offset: 0x26A148, size: 0x8, addend: 0x0, symName: '__ZN66_$LT$core..option..Option$LT$T$GT$$u20$as$u20$core..fmt..Debug$GT$3fmt17h057cc9bf20144e54E', symObjAddr: 0x8610, symBinAddr: 0x79530, symSize: 0x50 }
  - { offsetInCU: 0x304A7, offset: 0x26A1AF, size: 0x8, addend: 0x0, symName: '__ZN66_$LT$core..option..Option$LT$T$GT$$u20$as$u20$core..fmt..Debug$GT$3fmt17h0bb8e6b36e06b7e9E', symObjAddr: 0x8660, symBinAddr: 0x79580, symSize: 0x50 }
  - { offsetInCU: 0x3050D, offset: 0x26A215, size: 0x8, addend: 0x0, symName: '__ZN66_$LT$core..option..Option$LT$T$GT$$u20$as$u20$core..fmt..Debug$GT$3fmt17h16e1a8452cca8eadE', symObjAddr: 0x86B0, symBinAddr: 0x795D0, symSize: 0x50 }
  - { offsetInCU: 0x30574, offset: 0x26A27C, size: 0x8, addend: 0x0, symName: '__ZN66_$LT$core..option..Option$LT$T$GT$$u20$as$u20$core..fmt..Debug$GT$3fmt17h1fd6fc03e7dc8c92E', symObjAddr: 0x8700, symBinAddr: 0x79620, symSize: 0x60 }
  - { offsetInCU: 0x305DB, offset: 0x26A2E3, size: 0x8, addend: 0x0, symName: '__ZN66_$LT$core..option..Option$LT$T$GT$$u20$as$u20$core..fmt..Debug$GT$3fmt17h284dee67c81b12d7E', symObjAddr: 0x8760, symBinAddr: 0x79680, symSize: 0x50 }
  - { offsetInCU: 0x30642, offset: 0x26A34A, size: 0x8, addend: 0x0, symName: '__ZN66_$LT$core..option..Option$LT$T$GT$$u20$as$u20$core..fmt..Debug$GT$3fmt17h4de3cc4b7ba51d3bE.llvm.589876701818171446', symObjAddr: 0x87B0, symBinAddr: 0x796D0, symSize: 0x50 }
  - { offsetInCU: 0x306A8, offset: 0x26A3B0, size: 0x8, addend: 0x0, symName: '__ZN66_$LT$core..option..Option$LT$T$GT$$u20$as$u20$core..fmt..Debug$GT$3fmt17h52f8abc6ecef4dffE', symObjAddr: 0x8800, symBinAddr: 0x79720, symSize: 0x50 }
  - { offsetInCU: 0x3070F, offset: 0x26A417, size: 0x8, addend: 0x0, symName: '__ZN66_$LT$core..option..Option$LT$T$GT$$u20$as$u20$core..fmt..Debug$GT$3fmt17h5cfc7d6da883aeccE.llvm.589876701818171446', symObjAddr: 0x8850, symBinAddr: 0x79770, symSize: 0x50 }
  - { offsetInCU: 0x30775, offset: 0x26A47D, size: 0x8, addend: 0x0, symName: '__ZN66_$LT$core..option..Option$LT$T$GT$$u20$as$u20$core..fmt..Debug$GT$3fmt17h63da567f4d972c7fE', symObjAddr: 0x88A0, symBinAddr: 0x797C0, symSize: 0x60 }
  - { offsetInCU: 0x307DC, offset: 0x26A4E4, size: 0x8, addend: 0x0, symName: '__ZN66_$LT$core..option..Option$LT$T$GT$$u20$as$u20$core..fmt..Debug$GT$3fmt17h6fad7b94da7c719aE', symObjAddr: 0x8900, symBinAddr: 0x79820, symSize: 0x60 }
  - { offsetInCU: 0x30843, offset: 0x26A54B, size: 0x8, addend: 0x0, symName: '__ZN66_$LT$core..option..Option$LT$T$GT$$u20$as$u20$core..fmt..Debug$GT$3fmt17h7f8b2e27b6a29402E', symObjAddr: 0x8960, symBinAddr: 0x79880, symSize: 0x60 }
  - { offsetInCU: 0x308AA, offset: 0x26A5B2, size: 0x8, addend: 0x0, symName: '__ZN66_$LT$core..option..Option$LT$T$GT$$u20$as$u20$core..fmt..Debug$GT$3fmt17h9d4386fee4bd24d4E', symObjAddr: 0x89C0, symBinAddr: 0x798E0, symSize: 0x60 }
  - { offsetInCU: 0x30911, offset: 0x26A619, size: 0x8, addend: 0x0, symName: '__ZN66_$LT$core..option..Option$LT$T$GT$$u20$as$u20$core..fmt..Debug$GT$3fmt17hbd0154a85be1730dE', symObjAddr: 0x8A20, symBinAddr: 0x79940, symSize: 0x50 }
  - { offsetInCU: 0x30977, offset: 0x26A67F, size: 0x8, addend: 0x0, symName: '__ZN66_$LT$core..option..Option$LT$T$GT$$u20$as$u20$core..fmt..Debug$GT$3fmt17hd86fd8be5ae8c559E', symObjAddr: 0x8A70, symBinAddr: 0x79990, symSize: 0x60 }
  - { offsetInCU: 0x309DD, offset: 0x26A6E5, size: 0x8, addend: 0x0, symName: '__ZN66_$LT$core..option..Option$LT$T$GT$$u20$as$u20$core..fmt..Debug$GT$3fmt17hecfca570267e9126E', symObjAddr: 0x8AD0, symBinAddr: 0x799F0, symSize: 0x60 }
  - { offsetInCU: 0x30A44, offset: 0x26A74C, size: 0x8, addend: 0x0, symName: '__ZN66_$LT$core..option..Option$LT$T$GT$$u20$as$u20$core..fmt..Debug$GT$3fmt17hf122eaf807502adcE.llvm.589876701818171446', symObjAddr: 0x8B30, symBinAddr: 0x79A50, symSize: 0x60 }
  - { offsetInCU: 0x3329D, offset: 0x26CFA5, size: 0x8, addend: 0x0, symName: '__ZN4core3ptr100drop_in_place$LT$core..option..Option$LT$alloc..boxed..Box$LT$syn..path..GenericArgument$GT$$GT$$GT$17h7435c9de74860622E', symObjAddr: 0x150, symBinAddr: 0x71CB0, symSize: 0x50 }
  - { offsetInCU: 0x3363D, offset: 0x26D345, size: 0x8, addend: 0x0, symName: '__ZN4core3ptr100drop_in_place$LT$syn..punctuated..Punctuated$LT$syn..path..PathSegment$C$syn..token..PathSep$GT$$GT$17hf414cb3581f8337aE', symObjAddr: 0x1A0, symBinAddr: 0x71D00, symSize: 0x260 }
  - { offsetInCU: 0x33FD6, offset: 0x26DCDE, size: 0x8, addend: 0x0, symName: '__ZN4core3ptr103drop_in_place$LT$core..option..Option$LT$alloc..boxed..Box$LT$syn..generics..TypeParamBound$GT$$GT$$GT$17h5974f03e36b1a9c3E', symObjAddr: 0x400, symBinAddr: 0x71F60, symSize: 0x50 }
  - { offsetInCU: 0x341E3, offset: 0x26DEEB, size: 0x8, addend: 0x0, symName: '__ZN4core3ptr103drop_in_place$LT$syn..punctuated..Punctuated$LT$syn..generics..GenericParam$C$syn..token..Comma$GT$$GT$17hf42353fa44ed6da8E', symObjAddr: 0x450, symBinAddr: 0x71FB0, symSize: 0xF0 }
  - { offsetInCU: 0x346A6, offset: 0x26E3AE, size: 0x8, addend: 0x0, symName: '__ZN4core3ptr104drop_in_place$LT$syn..punctuated..Punctuated$LT$syn..generics..TypeParamBound$C$syn..token..Plus$GT$$GT$17h532f52c4a894b056E', symObjAddr: 0x540, symBinAddr: 0x720A0, symSize: 0x190 }
  - { offsetInCU: 0x34C9D, offset: 0x26E9A5, size: 0x8, addend: 0x0, symName: '__ZN4core3ptr114drop_in_place$LT$core..option..Option$LT$$LP$syn..token..If$C$alloc..boxed..Box$LT$syn..expr..Expr$GT$$RP$$GT$$GT$17hd695c14b2d7f5b56E.llvm.589876701818171446', symObjAddr: 0x6D0, symBinAddr: 0x72230, symSize: 0x50 }
  - { offsetInCU: 0x34E33, offset: 0x26EB3B, size: 0x8, addend: 0x0, symName: '__ZN4core3ptr116drop_in_place$LT$core..option..Option$LT$$LP$syn..token..Else$C$alloc..boxed..Box$LT$syn..expr..Expr$GT$$RP$$GT$$GT$17hce47d33a8602d206E', symObjAddr: 0x720, symBinAddr: 0x72280, symSize: 0x50 }
  - { offsetInCU: 0x3506D, offset: 0x26ED75, size: 0x8, addend: 0x0, symName: '__ZN4core3ptr34drop_in_place$LT$syn..lit..Lit$GT$17h8902f5ff67917034E.llvm.589876701818171446', symObjAddr: 0x770, symBinAddr: 0x722D0, symSize: 0x110 }
  - { offsetInCU: 0x355A7, offset: 0x26F2AF, size: 0x8, addend: 0x0, symName: '__ZN4core3ptr34drop_in_place$LT$syn..pat..Pat$GT$17h4581eea028ec0969E.llvm.589876701818171446', symObjAddr: 0x880, symBinAddr: 0x723E0, symSize: 0x1000 }
  - { offsetInCU: 0x390CC, offset: 0x272DD4, size: 0x8, addend: 0x0, symName: '__ZN4core3ptr34drop_in_place$LT$syn..ty..Type$GT$17h369e41ad4a9f1ae0E.llvm.589876701818171446', symObjAddr: 0x1880, symBinAddr: 0x733E0, symSize: 0x4F0 }
  - { offsetInCU: 0x3A066, offset: 0x273D6E, size: 0x8, addend: 0x0, symName: '__ZN4core3ptr35drop_in_place$LT$syn..expr..Arm$GT$17hf2baebe0cd7aed98E', symObjAddr: 0x1D70, symBinAddr: 0x738D0, symSize: 0x180 }
  - { offsetInCU: 0x3AB18, offset: 0x274820, size: 0x8, addend: 0x0, symName: '__ZN4core3ptr36drop_in_place$LT$syn..expr..Expr$GT$17h0f7fd4c749bae801E.llvm.589876701818171446', symObjAddr: 0x1EF0, symBinAddr: 0x73A50, symSize: 0x2600 }
  - { offsetInCU: 0x433C3, offset: 0x27D0CB, size: 0x8, addend: 0x0, symName: '__ZN4core3ptr36drop_in_place$LT$syn..mac..Macro$GT$17h4ffde962df30ebe2E.llvm.589876701818171446', symObjAddr: 0x44F0, symBinAddr: 0x76050, symSize: 0x40 }
  - { offsetInCU: 0x433FD, offset: 0x27D105, size: 0x8, addend: 0x0, symName: '__ZN4core3ptr36drop_in_place$LT$syn..path..Path$GT$17habea856181211e1cE.llvm.589876701818171446', symObjAddr: 0x4530, symBinAddr: 0x76090, symSize: 0x220 }
  - { offsetInCU: 0x43D70, offset: 0x27DA78, size: 0x8, addend: 0x0, symName: '__ZN4core3ptr37drop_in_place$LT$syn..lit..LitInt$GT$17hdc2cb2f4b64b71f3E', symObjAddr: 0x4750, symBinAddr: 0x762B0, symSize: 0x70 }
  - { offsetInCU: 0x440F0, offset: 0x27DDF8, size: 0x8, addend: 0x0, symName: '__ZN4core3ptr37drop_in_place$LT$syn..stmt..Block$GT$17hcc21a21cf949414cE.llvm.589876701818171446', symObjAddr: 0x47C0, symBinAddr: 0x76320, symSize: 0xD0 }
  - { offsetInCU: 0x443B3, offset: 0x27E0BB, size: 0x8, addend: 0x0, symName: '__ZN4core3ptr38drop_in_place$LT$syn..expr..ExprIf$GT$17h01a54a489d798b2dE', symObjAddr: 0x4890, symBinAddr: 0x763F0, symSize: 0x200 }
  - { offsetInCU: 0x44BDC, offset: 0x27E8E4, size: 0x8, addend: 0x0, symName: '__ZN4core3ptr38drop_in_place$LT$syn..expr..Member$GT$17h022cbe5553aa40faE.llvm.589876701818171446', symObjAddr: 0x4A90, symBinAddr: 0x765F0, symSize: 0x30 }
  - { offsetInCU: 0x44CD9, offset: 0x27E9E1, size: 0x8, addend: 0x0, symName: '__ZN4core3ptr38drop_in_place$LT$syn..token..Const$GT$17hb202d58f4996fb6eE.llvm.589876701818171446', symObjAddr: 0x4AC0, symBinAddr: 0x76620, symSize: 0x0 }
  - { offsetInCU: 0x44D05, offset: 0x27EA0D, size: 0x8, addend: 0x0, symName: '__ZN4core3ptr39drop_in_place$LT$proc_macro2..Ident$GT$17h8101e88c3ac359d6E', symObjAddr: 0x4AD0, symBinAddr: 0x76630, symSize: 0x30 }
  - { offsetInCU: 0x44DE3, offset: 0x27EAEB, size: 0x8, addend: 0x0, symName: '__ZN4core3ptr40drop_in_place$LT$$RF$syn..token..Mut$GT$17hf4f7ee7b30240870E', symObjAddr: 0x4C10, symBinAddr: 0x76660, symSize: 0x10 }
  - { offsetInCU: 0x44E0F, offset: 0x27EB17, size: 0x8, addend: 0x0, symName: '__ZN4core3ptr40drop_in_place$LT$syn..ty..ReturnType$GT$17h02cf41e2fec63d90E', symObjAddr: 0x4E70, symBinAddr: 0x76670, symSize: 0x50 }
  - { offsetInCU: 0x44F81, offset: 0x27EC89, size: 0x8, addend: 0x0, symName: '__ZN4core3ptr41drop_in_place$LT$syn..expr..ExprConst$GT$17h725a13e551d9f276E', symObjAddr: 0x4EC0, symBinAddr: 0x766C0, symSize: 0x180 }
  - { offsetInCU: 0x454D6, offset: 0x27F1DE, size: 0x8, addend: 0x0, symName: '__ZN4core3ptr44drop_in_place$LT$syn..lifetime..Lifetime$GT$17hf0cdec2e9ec456d6E', symObjAddr: 0x5770, symBinAddr: 0x76840, symSize: 0x30 }
  - { offsetInCU: 0x4564F, offset: 0x27F357, size: 0x8, addend: 0x0, symName: '__ZN4core3ptr44drop_in_place$LT$syn..parse..ParseBuffer$GT$17hd0dadba44a19aec2E', symObjAddr: 0x57A0, symBinAddr: 0x76870, symSize: 0x70 }
  - { offsetInCU: 0x45A84, offset: 0x27F78C, size: 0x8, addend: 0x0, symName: '__ZN4core3ptr45drop_in_place$LT$proc_macro2..TokenStream$GT$17h3405f6c513e9f6cbE.llvm.589876701818171446', symObjAddr: 0x5810, symBinAddr: 0x768E0, symSize: 0x140 }
  - { offsetInCU: 0x45EF3, offset: 0x27FBFB, size: 0x8, addend: 0x0, symName: '__ZN4core3ptr45drop_in_place$LT$syn..generics..TypeParam$GT$17he5eda51070b7de47E', symObjAddr: 0x5950, symBinAddr: 0x76A20, symSize: 0x230 }
  - { offsetInCU: 0x4674C, offset: 0x280454, size: 0x8, addend: 0x0, symName: '__ZN4core3ptr46drop_in_place$LT$syn..expr..ExprMethodCall$GT$17hdf90cc01d847f3e4E', symObjAddr: 0x5B80, symBinAddr: 0x76C50, symSize: 0x320 }
  - { offsetInCU: 0x474D7, offset: 0x2811DF, size: 0x8, addend: 0x0, symName: '__ZN4core3ptr46drop_in_place$LT$syn..generics..ConstParam$GT$17hab0a58c4af8c549cE', symObjAddr: 0x5EA0, symBinAddr: 0x76F70, symSize: 0x150 }
  - { offsetInCU: 0x4797D, offset: 0x281685, size: 0x8, addend: 0x0, symName: '__ZN4core3ptr47drop_in_place$LT$syn..path..GenericArgument$GT$17h54f8794633f96823E', symObjAddr: 0x6020, symBinAddr: 0x770C0, symSize: 0x4A0 }
  - { offsetInCU: 0x48A24, offset: 0x28272C, size: 0x8, addend: 0x0, symName: '__ZN4core3ptr49drop_in_place$LT$syn..generics..LifetimeParam$GT$17h41a7c7a290ea6289E', symObjAddr: 0x64C0, symBinAddr: 0x77560, symSize: 0xF0 }
  - { offsetInCU: 0x48DDE, offset: 0x282AE6, size: 0x8, addend: 0x0, symName: '__ZN4core3ptr50drop_in_place$LT$syn..generics..TypeParamBound$GT$17hcd7771d4c6c221efE', symObjAddr: 0x65B0, symBinAddr: 0x77650, symSize: 0x160 }
  - { offsetInCU: 0x491FE, offset: 0x282F06, size: 0x8, addend: 0x0, symName: '__ZN4core3ptr58drop_in_place$LT$alloc..vec..Vec$LT$syn..expr..Arm$GT$$GT$17h1a55df3d2cba1daaE', symObjAddr: 0x6710, symBinAddr: 0x777B0, symSize: 0xD0 }
  - { offsetInCU: 0x4948B, offset: 0x283193, size: 0x8, addend: 0x0, symName: '__ZN4core3ptr59drop_in_place$LT$alloc..boxed..Box$LT$syn..pat..Pat$GT$$GT$17h563b135d87aca8abE', symObjAddr: 0x67E0, symBinAddr: 0x77880, symSize: 0x50 }
  - { offsetInCU: 0x495E6, offset: 0x2832EE, size: 0x8, addend: 0x0, symName: '__ZN4core3ptr59drop_in_place$LT$alloc..boxed..Box$LT$syn..ty..Type$GT$$GT$17hffed36bad83adacbE', symObjAddr: 0x6830, symBinAddr: 0x778D0, symSize: 0x50 }
  - { offsetInCU: 0x49741, offset: 0x283449, size: 0x8, addend: 0x0, symName: '__ZN4core3ptr59drop_in_place$LT$alloc..vec..Vec$LT$syn..stmt..Stmt$GT$$GT$17hb5c1acf3c61c43e2E', symObjAddr: 0x6880, symBinAddr: 0x77920, symSize: 0xD0 }
  - { offsetInCU: 0x499CE, offset: 0x2836D6, size: 0x8, addend: 0x0, symName: '__ZN4core3ptr61drop_in_place$LT$alloc..boxed..Box$LT$syn..expr..Expr$GT$$GT$17h01091e47f131475dE', symObjAddr: 0x6950, symBinAddr: 0x779F0, symSize: 0x50 }
  - { offsetInCU: 0x49B48, offset: 0x283850, size: 0x8, addend: 0x0, symName: '__ZN4core3ptr61drop_in_place$LT$alloc..vec..Vec$LT$syn..expr..ExprIf$GT$$GT$17h0c094efa3006c900E', symObjAddr: 0x69A0, symBinAddr: 0x77A40, symSize: 0xD0 }
  - { offsetInCU: 0x49E51, offset: 0x283B59, size: 0x8, addend: 0x0, symName: '__ZN4core3ptr61drop_in_place$LT$syn..path..ParenthesizedGenericArguments$GT$17h43d4aac5494326a7E', symObjAddr: 0x6A70, symBinAddr: 0x77B10, symSize: 0x170 }
  - { offsetInCU: 0x4A418, offset: 0x284120, size: 0x8, addend: 0x0, symName: '__ZN4core3ptr62drop_in_place$LT$syn..path..AngleBracketedGenericArguments$GT$17hc5b69f68243636ddE', symObjAddr: 0x6BE0, symBinAddr: 0x77C80, symSize: 0x120 }
  - { offsetInCU: 0x4A82E, offset: 0x284536, size: 0x8, addend: 0x0, symName: '__ZN4core3ptr63drop_in_place$LT$alloc..boxed..Box$LT$syn..lit..LitRepr$GT$$GT$17hd8839b7fb35ee7afE', symObjAddr: 0x6D00, symBinAddr: 0x77DA0, symSize: 0x60 }
  - { offsetInCU: 0x4AB23, offset: 0x28482B, size: 0x8, addend: 0x0, symName: '__ZN4core3ptr64drop_in_place$LT$alloc..boxed..Box$LT$syn..pat..FieldPat$GT$$GT$17h4980b70a7597cc08E', symObjAddr: 0x6D60, symBinAddr: 0x77E00, symSize: 0x140 }
  - { offsetInCU: 0x4B1CE, offset: 0x284ED6, size: 0x8, addend: 0x0, symName: '__ZN4core3ptr64drop_in_place$LT$alloc..boxed..Box$LT$syn..ty..BareFnArg$GT$$GT$17h8b34096c620314efE', symObjAddr: 0x6EA0, symBinAddr: 0x77F40, symSize: 0x140 }
  - { offsetInCU: 0x4B6F2, offset: 0x2853FA, size: 0x8, addend: 0x0, symName: '__ZN4core3ptr64drop_in_place$LT$alloc..vec..Vec$LT$syn..attr..Attribute$GT$$GT$17h3c8f2a04e701c675E.llvm.589876701818171446', symObjAddr: 0x6FE0, symBinAddr: 0x78080, symSize: 0xD0 }
  - { offsetInCU: 0x4B97F, offset: 0x285687, size: 0x8, addend: 0x0, symName: '__ZN4core3ptr65drop_in_place$LT$core..option..Option$LT$syn..expr..Label$GT$$GT$17h78189e72a8cb7951E', symObjAddr: 0x70B0, symBinAddr: 0x78150, symSize: 0x30 }
  - { offsetInCU: 0x4BABA, offset: 0x2857C2, size: 0x8, addend: 0x0, symName: '__ZN4core3ptr65drop_in_place$LT$core..option..Option$LT$syn..path..QSelf$GT$$GT$17h9b72552ca06b7379E.llvm.589876701818171446', symObjAddr: 0x70E0, symBinAddr: 0x78180, symSize: 0x50 }
  - { offsetInCU: 0x4BC53, offset: 0x28595B, size: 0x8, addend: 0x0, symName: '__ZN4core3ptr66drop_in_place$LT$core..option..Option$LT$syn..pat..PatRest$GT$$GT$17h61677cf4ff3a7393E', symObjAddr: 0x7130, symBinAddr: 0x781D0, symSize: 0xE0 }
  - { offsetInCU: 0x4BED7, offset: 0x285BDF, size: 0x8, addend: 0x0, symName: '__ZN4core3ptr67drop_in_place$LT$alloc..boxed..Box$LT$syn..expr..FieldValue$GT$$GT$17h93aaccf8aa22ef88E', symObjAddr: 0x7210, symBinAddr: 0x782B0, symSize: 0x140 }
  - { offsetInCU: 0x4C3DB, offset: 0x2860E3, size: 0x8, addend: 0x0, symName: '__ZN4core3ptr68drop_in_place$LT$alloc..boxed..Box$LT$syn..path..PathSegment$GT$$GT$17h709dabdc13b58a71E', symObjAddr: 0x7350, symBinAddr: 0x783F0, symSize: 0x190 }
  - { offsetInCU: 0x4CAB9, offset: 0x2867C1, size: 0x8, addend: 0x0, symName: '__ZN4core3ptr70drop_in_place$LT$core..option..Option$LT$syn..ty..BareVariadic$GT$$GT$17h45399348ea4b8d55E', symObjAddr: 0x74E0, symBinAddr: 0x78580, symSize: 0x120 }
  - { offsetInCU: 0x4CFE6, offset: 0x286CEE, size: 0x8, addend: 0x0, symName: '__ZN4core3ptr72drop_in_place$LT$alloc..boxed..Box$LT$syn..path..GenericArgument$GT$$GT$17haa7dd8b716637b54E', symObjAddr: 0x7600, symBinAddr: 0x786A0, symSize: 0x1D0 }
  - { offsetInCU: 0x4D589, offset: 0x287291, size: 0x8, addend: 0x0, symName: '__ZN4core3ptr72drop_in_place$LT$core..option..Option$LT$syn..lifetime..Lifetime$GT$$GT$17hfc363ccdd8bd9c32E', symObjAddr: 0x77D0, symBinAddr: 0x78870, symSize: 0x30 }
  - { offsetInCU: 0x4D6A5, offset: 0x2873AD, size: 0x8, addend: 0x0, symName: '__ZN4core3ptr73drop_in_place$LT$alloc..boxed..Box$LT$syn..generics..GenericParam$GT$$GT$17hf6951dcd5ae07324E', symObjAddr: 0x7800, symBinAddr: 0x788A0, symSize: 0x80 }
  - { offsetInCU: 0x4D81D, offset: 0x287525, size: 0x8, addend: 0x0, symName: '__ZN4core3ptr75drop_in_place$LT$alloc..boxed..Box$LT$syn..generics..TypeParamBound$GT$$GT$17he61c00698a311a34E', symObjAddr: 0x7880, symBinAddr: 0x78920, symSize: 0xB0 }
  - { offsetInCU: 0x4DB1B, offset: 0x287823, size: 0x8, addend: 0x0, symName: '__ZN4core3ptr78drop_in_place$LT$core..option..Option$LT$syn..generics..BoundLifetimes$GT$$GT$17h27486b95316663b5E', symObjAddr: 0x7930, symBinAddr: 0x789D0, symSize: 0x20 }
  - { offsetInCU: 0x4DBB0, offset: 0x2878B8, size: 0x8, addend: 0x0, symName: '__ZN4core3ptr86drop_in_place$LT$syn..punctuated..Punctuated$LT$syn..pat..Pat$C$syn..token..Or$GT$$GT$17h8e9173df21a44316E', symObjAddr: 0x7950, symBinAddr: 0x789F0, symSize: 0x120 }
  - { offsetInCU: 0x4DFF6, offset: 0x287CFE, size: 0x8, addend: 0x0, symName: '__ZN4core3ptr87drop_in_place$LT$core..option..Option$LT$alloc..boxed..Box$LT$syn..pat..Pat$GT$$GT$$GT$17hd7b7c69f601b3926E', symObjAddr: 0x7A70, symBinAddr: 0x78B10, symSize: 0x50 }
  - { offsetInCU: 0x4E168, offset: 0x287E70, size: 0x8, addend: 0x0, symName: '__ZN4core3ptr87drop_in_place$LT$core..option..Option$LT$alloc..boxed..Box$LT$syn..ty..Type$GT$$GT$$GT$17hd74f5d971aec2972E', symObjAddr: 0x7AC0, symBinAddr: 0x78B60, symSize: 0x50 }
  - { offsetInCU: 0x4E2DA, offset: 0x287FE2, size: 0x8, addend: 0x0, symName: '__ZN4core3ptr88drop_in_place$LT$$LP$syn..token..Else$C$alloc..boxed..Box$LT$syn..expr..Expr$GT$$RP$$GT$17hba8984e392f62c24E', symObjAddr: 0x7B10, symBinAddr: 0x78BB0, symSize: 0x50 }
  - { offsetInCU: 0x4E454, offset: 0x28815C, size: 0x8, addend: 0x0, symName: '__ZN4core3ptr89drop_in_place$LT$core..option..Option$LT$alloc..boxed..Box$LT$syn..expr..Expr$GT$$GT$$GT$17h8e135ac1a25a2dc5E.llvm.589876701818171446', symObjAddr: 0x7B60, symBinAddr: 0x78C00, symSize: 0x50 }
  - { offsetInCU: 0x4E604, offset: 0x28830C, size: 0x8, addend: 0x0, symName: '__ZN4core3ptr89drop_in_place$LT$syn..punctuated..Punctuated$LT$syn..pat..Pat$C$syn..token..Comma$GT$$GT$17h8d60e47f3fb1f87aE', symObjAddr: 0x7BB0, symBinAddr: 0x78C50, symSize: 0x120 }
  - { offsetInCU: 0x4EA61, offset: 0x288769, size: 0x8, addend: 0x0, symName: '__ZN4core3ptr89drop_in_place$LT$syn..punctuated..Punctuated$LT$syn..ty..Type$C$syn..token..Comma$GT$$GT$17ha919b3114742fb9dE', symObjAddr: 0x7CD0, symBinAddr: 0x78D70, symSize: 0x120 }
  - { offsetInCU: 0x4EEAB, offset: 0x288BB3, size: 0x8, addend: 0x0, symName: '__ZN4core3ptr90drop_in_place$LT$core..option..Option$LT$syn..path..AngleBracketedGenericArguments$GT$$GT$17h80d9a5f0818c8bd9E', symObjAddr: 0x7DF0, symBinAddr: 0x78E90, symSize: 0x130 }
  - { offsetInCU: 0x4F2D8, offset: 0x288FE0, size: 0x8, addend: 0x0, symName: '__ZN4core3ptr91drop_in_place$LT$syn..punctuated..Punctuated$LT$syn..expr..Expr$C$syn..token..Comma$GT$$GT$17h4f39b83dc86a4159E', symObjAddr: 0x7F20, symBinAddr: 0x78FC0, symSize: 0x120 }
  - { offsetInCU: 0x4F722, offset: 0x28942A, size: 0x8, addend: 0x0, symName: '__ZN4core3ptr94drop_in_place$LT$syn..punctuated..Punctuated$LT$syn..pat..FieldPat$C$syn..token..Comma$GT$$GT$17h112950ea198c8281E', symObjAddr: 0x8040, symBinAddr: 0x790E0, symSize: 0xF0 }
  - { offsetInCU: 0x4F9EC, offset: 0x2896F4, size: 0x8, addend: 0x0, symName: '__ZN4core3ptr94drop_in_place$LT$syn..punctuated..Punctuated$LT$syn..ty..BareFnArg$C$syn..token..Comma$GT$$GT$17h1c7b44310f06243dE', symObjAddr: 0x8130, symBinAddr: 0x791D0, symSize: 0xF0 }
  - { offsetInCU: 0x4FCB6, offset: 0x2899BE, size: 0x8, addend: 0x0, symName: '__ZN4core3ptr95drop_in_place$LT$core..option..Option$LT$$LP$proc_macro2..Ident$C$syn..token..Colon$RP$$GT$$GT$17ha744bf0f41959716E', symObjAddr: 0x8220, symBinAddr: 0x792C0, symSize: 0x30 }
  - { offsetInCU: 0x4FDD2, offset: 0x289ADA, size: 0x8, addend: 0x0, symName: '__ZN4core3ptr96drop_in_place$LT$core..option..Option$LT$alloc..boxed..Box$LT$syn..path..PathSegment$GT$$GT$$GT$17hb447d0f626c86a4eE', symObjAddr: 0x8250, symBinAddr: 0x792F0, symSize: 0x90 }
  - { offsetInCU: 0x50054, offset: 0x289D5C, size: 0x8, addend: 0x0, symName: '__ZN4core3ptr97drop_in_place$LT$syn..punctuated..Punctuated$LT$syn..expr..FieldValue$C$syn..token..Comma$GT$$GT$17h31b81f7462228dcbE', symObjAddr: 0x82E0, symBinAddr: 0x79380, symSize: 0xF0 }
  - { offsetInCU: 0x5039A, offset: 0x28A0A2, size: 0x8, addend: 0x0, symName: '__ZN4core3ptr98drop_in_place$LT$syn..punctuated..Punctuated$LT$syn..lifetime..Lifetime$C$syn..token..Plus$GT$$GT$17h0f8fc5f20f465f47E', symObjAddr: 0x83D0, symBinAddr: 0x79470, symSize: 0xC0 }
  - { offsetInCU: 0x50E8F, offset: 0x28AB97, size: 0x8, addend: 0x0, symName: '__ZN42_$LT$$RF$T$u20$as$u20$core..fmt..Debug$GT$3fmt17h50e288d0fe0c03cfE', symObjAddr: 0x0, symBinAddr: 0x71BE0, symSize: 0x10 }
  - { offsetInCU: 0x50ED6, offset: 0x28ABDE, size: 0x8, addend: 0x0, symName: '__ZN42_$LT$$RF$T$u20$as$u20$core..fmt..Debug$GT$3fmt17h847b43ad8d7ef36eE', symObjAddr: 0x10, symBinAddr: 0x71BF0, symSize: 0x80 }
  - { offsetInCU: 0x50F5C, offset: 0x28AC64, size: 0x8, addend: 0x0, symName: '__ZN42_$LT$$RF$T$u20$as$u20$core..fmt..Debug$GT$3fmt17hab5da67a688957b2E', symObjAddr: 0x90, symBinAddr: 0x71C70, symSize: 0x10 }
  - { offsetInCU: 0x5108E, offset: 0x28AD96, size: 0x8, addend: 0x0, symName: '__ZN4core3fmt3num50_$LT$impl$u20$core..fmt..Debug$u20$for$u20$u32$GT$3fmt17hc33c4d0b2163f4bdE', symObjAddr: 0x120, symBinAddr: 0x71C80, symSize: 0x30 }
  - { offsetInCU: 0x54226, offset: 0x28DF2E, size: 0x8, addend: 0x0, symName: '__ZN73_$LT$$u5b$A$u5d$$u20$as$u20$core..slice..cmp..SlicePartialEq$LT$B$GT$$GT$5equal17h54110155f74a1c31E', symObjAddr: 0x8C20, symBinAddr: 0x79B40, symSize: 0x220 }
  - { offsetInCU: 0x597DA, offset: 0x2934E2, size: 0x8, addend: 0x0, symName: '__ZN69_$LT$alloc..boxed..Box$LT$T$C$A$GT$$u20$as$u20$core..clone..Clone$GT$5clone17h3b3509f8065d1aa7E', symObjAddr: 0x8B90, symBinAddr: 0x79AB0, symSize: 0x90 }
  - { offsetInCU: 0x5A92A, offset: 0x294632, size: 0x8, addend: 0x0, symName: _anon.0b006c2e7d5429e7614e374cb425360e.43.llvm.589876701818171446, symObjAddr: 0x270F0, symBinAddr: 0x26DC18, symSize: 0x0 }
  - { offsetInCU: 0x5A975, offset: 0x29467D, size: 0x8, addend: 0x0, symName: _anon.0b006c2e7d5429e7614e374cb425360e.111.llvm.589876701818171446, symObjAddr: 0x27270, symBinAddr: 0x26DD98, symSize: 0x0 }
  - { offsetInCU: 0x5A9C0, offset: 0x2946C8, size: 0x8, addend: 0x0, symName: _anon.0b006c2e7d5429e7614e374cb425360e.129.llvm.589876701818171446, symObjAddr: 0x27350, symBinAddr: 0x26DE78, symSize: 0x0 }
  - { offsetInCU: 0x5AA0B, offset: 0x294713, size: 0x8, addend: 0x0, symName: _anon.0b006c2e7d5429e7614e374cb425360e.158.llvm.589876701818171446, symObjAddr: 0x274B0, symBinAddr: 0x26DFD8, symSize: 0x0 }
  - { offsetInCU: 0x5AA56, offset: 0x29475E, size: 0x8, addend: 0x0, symName: _anon.0b006c2e7d5429e7614e374cb425360e.164.llvm.589876701818171446, symObjAddr: 0x274F0, symBinAddr: 0x26E018, symSize: 0x0 }
  - { offsetInCU: 0x5AAA1, offset: 0x2947A9, size: 0x8, addend: 0x0, symName: _anon.0b006c2e7d5429e7614e374cb425360e.191.llvm.589876701818171446, symObjAddr: 0x27610, symBinAddr: 0x26E138, symSize: 0x0 }
  - { offsetInCU: 0x5AAEC, offset: 0x2947F4, size: 0x8, addend: 0x0, symName: _anon.0b006c2e7d5429e7614e374cb425360e.197.llvm.589876701818171446, symObjAddr: 0x27650, symBinAddr: 0x26E178, symSize: 0x0 }
  - { offsetInCU: 0x5AB37, offset: 0x29483F, size: 0x8, addend: 0x0, symName: _anon.0b006c2e7d5429e7614e374cb425360e.214.llvm.589876701818171446, symObjAddr: 0x27710, symBinAddr: 0x26E238, symSize: 0x0 }
  - { offsetInCU: 0x5AB82, offset: 0x29488A, size: 0x8, addend: 0x0, symName: _anon.0b006c2e7d5429e7614e374cb425360e.216.llvm.589876701818171446, symObjAddr: 0x27730, symBinAddr: 0x26E258, symSize: 0x0 }
  - { offsetInCU: 0x5ABCD, offset: 0x2948D5, size: 0x8, addend: 0x0, symName: _anon.0b006c2e7d5429e7614e374cb425360e.220.llvm.589876701818171446, symObjAddr: 0x27750, symBinAddr: 0x26E278, symSize: 0x0 }
  - { offsetInCU: 0x5AC18, offset: 0x294920, size: 0x8, addend: 0x0, symName: _anon.0b006c2e7d5429e7614e374cb425360e.260.llvm.589876701818171446, symObjAddr: 0x278F0, symBinAddr: 0x26E418, symSize: 0x0 }
  - { offsetInCU: 0x5AC63, offset: 0x29496B, size: 0x8, addend: 0x0, symName: _anon.0b006c2e7d5429e7614e374cb425360e.261.llvm.589876701818171446, symObjAddr: 0x27910, symBinAddr: 0x26E438, symSize: 0x0 }
  - { offsetInCU: 0x5BD74, offset: 0x295A7C, size: 0x8, addend: 0x0, symName: __ZN3syn4expr4Expr13replace_attrs17h8f3cf7f80b801d36E, symObjAddr: 0x8FE0, symBinAddr: 0x79D60, symSize: 0x1D0 }
  - { offsetInCU: 0x5CF98, offset: 0x296CA0, size: 0x8, addend: 0x0, symName: '__ZN3syn4expr7parsing40_$LT$impl$u20$syn..expr..RangeLimits$GT$14parse_obsolete17he567255c2d646d59E', symObjAddr: 0xF6B0, symBinAddr: 0x7F510, symSize: 0x390 }
  - { offsetInCU: 0x5E522, offset: 0x29822A, size: 0x8, addend: 0x0, symName: '__ZN3syn3gen5debug38_$LT$impl$u20$syn..expr..ExprArray$GT$5debug17h7b918ce16c433907E', symObjAddr: 0x1DC80, symBinAddr: 0x89290, symSize: 0xA0 }
  - { offsetInCU: 0x5E5A1, offset: 0x2982A9, size: 0x8, addend: 0x0, symName: '__ZN3syn3gen5debug39_$LT$impl$u20$syn..expr..ExprAssign$GT$5debug17he21e8c95226754c1E', symObjAddr: 0x1DDE0, symBinAddr: 0x89330, symSize: 0xC0 }
  - { offsetInCU: 0x5E620, offset: 0x298328, size: 0x8, addend: 0x0, symName: '__ZN3syn3gen5debug38_$LT$impl$u20$syn..expr..ExprAsync$GT$5debug17h9961550b4529493bE', symObjAddr: 0x1DF60, symBinAddr: 0x893F0, symSize: 0xC0 }
  - { offsetInCU: 0x5E69F, offset: 0x2983A7, size: 0x8, addend: 0x0, symName: '__ZN3syn3gen5debug38_$LT$impl$u20$syn..expr..ExprAwait$GT$5debug17h0b3e17cd981aaddcE', symObjAddr: 0x1E0E0, symBinAddr: 0x894B0, symSize: 0xC0 }
  - { offsetInCU: 0x5E71E, offset: 0x298426, size: 0x8, addend: 0x0, symName: '__ZN3syn3gen5debug39_$LT$impl$u20$syn..expr..ExprBinary$GT$5debug17hf6d032d14316dd43E', symObjAddr: 0x1E260, symBinAddr: 0x89570, symSize: 0xC0 }
  - { offsetInCU: 0x5E79D, offset: 0x2984A5, size: 0x8, addend: 0x0, symName: '__ZN3syn3gen5debug38_$LT$impl$u20$syn..expr..ExprBlock$GT$5debug17h97bfeb46dd5ea36dE', symObjAddr: 0x1E3C0, symBinAddr: 0x89630, symSize: 0xA0 }
  - { offsetInCU: 0x5E81C, offset: 0x298524, size: 0x8, addend: 0x0, symName: '__ZN3syn3gen5debug38_$LT$impl$u20$syn..expr..ExprBreak$GT$5debug17h499db1619e10a948E', symObjAddr: 0x1E520, symBinAddr: 0x896D0, symSize: 0xC0 }
  - { offsetInCU: 0x5E89B, offset: 0x2985A3, size: 0x8, addend: 0x0, symName: '__ZN3syn3gen5debug37_$LT$impl$u20$syn..expr..ExprCall$GT$5debug17h4e5c23846a0158baE', symObjAddr: 0x1E6A0, symBinAddr: 0x89790, symSize: 0xC0 }
  - { offsetInCU: 0x5E91A, offset: 0x298622, size: 0x8, addend: 0x0, symName: '__ZN3syn3gen5debug37_$LT$impl$u20$syn..expr..ExprCast$GT$5debug17h6f21ce7da7f7d722E', symObjAddr: 0x1E820, symBinAddr: 0x89850, symSize: 0xC0 }
  - { offsetInCU: 0x5E96D, offset: 0x298675, size: 0x8, addend: 0x0, symName: '__ZN3syn3gen5debug40_$LT$impl$u20$syn..expr..ExprClosure$GT$5debug17hceca04e972f4733bE', symObjAddr: 0x1E900, symBinAddr: 0x89910, symSize: 0x190 }
  - { offsetInCU: 0x5EA09, offset: 0x298711, size: 0x8, addend: 0x0, symName: '__ZN3syn3gen5debug38_$LT$impl$u20$syn..expr..ExprConst$GT$5debug17ha4fbd0f0e581df0bE', symObjAddr: 0x1EB30, symBinAddr: 0x89AA0, symSize: 0x90 }
  - { offsetInCU: 0x5EA88, offset: 0x298790, size: 0x8, addend: 0x0, symName: '__ZN3syn3gen5debug41_$LT$impl$u20$syn..expr..ExprContinue$GT$5debug17he2039d84bf2a6f25E', symObjAddr: 0x1EC60, symBinAddr: 0x89B30, symSize: 0xA0 }
  - { offsetInCU: 0x5EB07, offset: 0x29880F, size: 0x8, addend: 0x0, symName: '__ZN3syn3gen5debug38_$LT$impl$u20$syn..expr..ExprField$GT$5debug17h2f4fb521e50eca86E', symObjAddr: 0x1EDC0, symBinAddr: 0x89BD0, symSize: 0xC0 }
  - { offsetInCU: 0x5EB4D, offset: 0x298855, size: 0x8, addend: 0x0, symName: '__ZN3syn3gen5debug40_$LT$impl$u20$syn..expr..ExprForLoop$GT$5debug17h0e9b7749e623e157E', symObjAddr: 0x1EEA0, symBinAddr: 0x89C90, symSize: 0x110 }
  - { offsetInCU: 0x5EBE9, offset: 0x2988F1, size: 0x8, addend: 0x0, symName: '__ZN3syn3gen5debug38_$LT$impl$u20$syn..expr..ExprGroup$GT$5debug17hcf4dad3d7a56de6dE', symObjAddr: 0x1F050, symBinAddr: 0x89DA0, symSize: 0xA0 }
  - { offsetInCU: 0x5EC75, offset: 0x29897D, size: 0x8, addend: 0x0, symName: '__ZN3syn3gen5debug35_$LT$impl$u20$syn..expr..ExprIf$GT$5debug17hfe248685119ca088E', symObjAddr: 0x1F1D0, symBinAddr: 0x89E40, symSize: 0xE0 }
  - { offsetInCU: 0x5ECF4, offset: 0x2989FC, size: 0x8, addend: 0x0, symName: '__ZN3syn3gen5debug38_$LT$impl$u20$syn..expr..ExprIndex$GT$5debug17h4b3f7754cb25106fE', symObjAddr: 0x1F370, symBinAddr: 0x89F20, symSize: 0xC0 }
  - { offsetInCU: 0x5ED73, offset: 0x298A7B, size: 0x8, addend: 0x0, symName: '__ZN3syn3gen5debug38_$LT$impl$u20$syn..expr..ExprInfer$GT$5debug17h09a254633ccec00fE', symObjAddr: 0x1F4B0, symBinAddr: 0x89FE0, symSize: 0x80 }
  - { offsetInCU: 0x5EDF2, offset: 0x298AFA, size: 0x8, addend: 0x0, symName: '__ZN3syn3gen5debug36_$LT$impl$u20$syn..expr..ExprLet$GT$5debug17h04941e8f108b4ff2E', symObjAddr: 0x1F610, symBinAddr: 0x8A060, symSize: 0xE0 }
  - { offsetInCU: 0x5EE71, offset: 0x298B79, size: 0x8, addend: 0x0, symName: '__ZN3syn3gen5debug36_$LT$impl$u20$syn..expr..ExprLit$GT$5debug17h46dee1b34d6dccc2E', symObjAddr: 0x1F770, symBinAddr: 0x8A140, symSize: 0x70 }
  - { offsetInCU: 0x5EEF0, offset: 0x298BF8, size: 0x8, addend: 0x0, symName: '__ZN3syn3gen5debug37_$LT$impl$u20$syn..expr..ExprLoop$GT$5debug17h701eed9d969c4e89E', symObjAddr: 0x1F8A0, symBinAddr: 0x8A1B0, symSize: 0xC0 }
  - { offsetInCU: 0x5EF6F, offset: 0x298C77, size: 0x8, addend: 0x0, symName: '__ZN3syn3gen5debug38_$LT$impl$u20$syn..expr..ExprMacro$GT$5debug17h568e58c0edfb7262E', symObjAddr: 0x1F9E0, symBinAddr: 0x8A270, symSize: 0x70 }
  - { offsetInCU: 0x5EFEE, offset: 0x298CF6, size: 0x8, addend: 0x0, symName: '__ZN3syn3gen5debug38_$LT$impl$u20$syn..expr..ExprMatch$GT$5debug17h8465c31e69147391E', symObjAddr: 0x1FB30, symBinAddr: 0x8A2E0, symSize: 0xE0 }
  - { offsetInCU: 0x5F034, offset: 0x298D3C, size: 0x8, addend: 0x0, symName: '__ZN3syn3gen5debug43_$LT$impl$u20$syn..expr..ExprMethodCall$GT$5debug17h41892b27f2600c1eE', symObjAddr: 0x1FC30, symBinAddr: 0x8A3C0, symSize: 0x110 }
  - { offsetInCU: 0x5F0D1, offset: 0x298DD9, size: 0x8, addend: 0x0, symName: '__ZN3syn3gen5debug38_$LT$impl$u20$syn..expr..ExprParen$GT$5debug17he809d111bc17244eE', symObjAddr: 0x1FDE0, symBinAddr: 0x8A4D0, symSize: 0xA0 }
  - { offsetInCU: 0x5F150, offset: 0x298E58, size: 0x8, addend: 0x0, symName: '__ZN3syn3gen5debug37_$LT$impl$u20$syn..expr..ExprPath$GT$5debug17h366101f850f17241E', symObjAddr: 0x1FF20, symBinAddr: 0x8A570, symSize: 0x90 }
  - { offsetInCU: 0x5F1CF, offset: 0x298ED7, size: 0x8, addend: 0x0, symName: '__ZN3syn3gen5debug38_$LT$impl$u20$syn..expr..ExprRange$GT$5debug17hdd41b5bfe8a438f0E', symObjAddr: 0x20070, symBinAddr: 0x8A600, symSize: 0xB0 }
  - { offsetInCU: 0x5F24E, offset: 0x298F56, size: 0x8, addend: 0x0, symName: '__ZN3syn3gen5debug42_$LT$impl$u20$syn..expr..ExprReference$GT$5debug17hb2e3c9dad1f92a1cE', symObjAddr: 0x201E0, symBinAddr: 0x8A6B0, symSize: 0xC0 }
  - { offsetInCU: 0x5F2CD, offset: 0x298FD5, size: 0x8, addend: 0x0, symName: '__ZN3syn3gen5debug39_$LT$impl$u20$syn..expr..ExprRepeat$GT$5debug17h2a9d9550b58371d5E', symObjAddr: 0x20380, symBinAddr: 0x8A770, symSize: 0xE0 }
  - { offsetInCU: 0x5F34C, offset: 0x299054, size: 0x8, addend: 0x0, symName: '__ZN3syn3gen5debug39_$LT$impl$u20$syn..expr..ExprReturn$GT$5debug17h4b4f6770b1e5447fE', symObjAddr: 0x20500, symBinAddr: 0x8A850, symSize: 0xA0 }
  - { offsetInCU: 0x5F392, offset: 0x29909A, size: 0x8, addend: 0x0, symName: '__ZN3syn3gen5debug39_$LT$impl$u20$syn..expr..ExprStruct$GT$5debug17h96b209444a5b189cE', symObjAddr: 0x205C0, symBinAddr: 0x8A8F0, symSize: 0x110 }
  - { offsetInCU: 0x5F42E, offset: 0x299136, size: 0x8, addend: 0x0, symName: '__ZN3syn3gen5debug36_$LT$impl$u20$syn..expr..ExprTry$GT$5debug17h3a82b80b8272a497E', symObjAddr: 0x20770, symBinAddr: 0x8AA00, symSize: 0xA0 }
  - { offsetInCU: 0x5F4AD, offset: 0x2991B5, size: 0x8, addend: 0x0, symName: '__ZN3syn3gen5debug41_$LT$impl$u20$syn..expr..ExprTryBlock$GT$5debug17hc2188ec37e231dafE', symObjAddr: 0x208B0, symBinAddr: 0x8AAA0, symSize: 0xA0 }
  - { offsetInCU: 0x5F52C, offset: 0x299234, size: 0x8, addend: 0x0, symName: '__ZN3syn3gen5debug38_$LT$impl$u20$syn..expr..ExprTuple$GT$5debug17h424b301ba2121234E', symObjAddr: 0x209F0, symBinAddr: 0x8AB40, symSize: 0xA0 }
  - { offsetInCU: 0x5F5AB, offset: 0x2992B3, size: 0x8, addend: 0x0, symName: '__ZN3syn3gen5debug38_$LT$impl$u20$syn..expr..ExprUnary$GT$5debug17h3ac9c70ecc3f1022E', symObjAddr: 0x20B30, symBinAddr: 0x8ABE0, symSize: 0xA0 }
  - { offsetInCU: 0x5F62A, offset: 0x299332, size: 0x8, addend: 0x0, symName: '__ZN3syn3gen5debug39_$LT$impl$u20$syn..expr..ExprUnsafe$GT$5debug17hf9ef670cdc40198eE', symObjAddr: 0x20C70, symBinAddr: 0x8AC80, symSize: 0xA0 }
  - { offsetInCU: 0x5F6A9, offset: 0x2993B1, size: 0x8, addend: 0x0, symName: '__ZN3syn3gen5debug38_$LT$impl$u20$syn..expr..ExprWhile$GT$5debug17h21236ace4b13199fE', symObjAddr: 0x20DF0, symBinAddr: 0x8AD20, symSize: 0xE0 }
  - { offsetInCU: 0x5F728, offset: 0x299430, size: 0x8, addend: 0x0, symName: '__ZN3syn3gen5debug38_$LT$impl$u20$syn..expr..ExprYield$GT$5debug17h369bd331f5af4033E', symObjAddr: 0x20F70, symBinAddr: 0x8AE00, symSize: 0xA0 }
  - { offsetInCU: 0x1090, offset: 0x2A74BB, size: 0x8, addend: 0x0, symName: '__ZN42_$LT$$RF$T$u20$as$u20$core..fmt..Debug$GT$3fmt17he3619b2352a5e524E', symObjAddr: 0x180, symBinAddr: 0x8E5E0, symSize: 0x80 }
  - { offsetInCU: 0x12B0, offset: 0x2A76DB, size: 0x8, addend: 0x0, symName: '__ZN42_$LT$$RF$T$u20$as$u20$core..fmt..Debug$GT$3fmt17he382762fd42a2934E', symObjAddr: 0x200, symBinAddr: 0x8E660, symSize: 0x80 }
  - { offsetInCU: 0x3374, offset: 0x2A979F, size: 0x8, addend: 0x0, symName: '__ZN4core3ptr100drop_in_place$LT$core..option..Option$LT$alloc..boxed..Box$LT$syn..path..GenericArgument$GT$$GT$$GT$17h7435c9de74860622E.llvm.2618680253894991198', symObjAddr: 0x280, symBinAddr: 0x8E6E0, symSize: 0x50 }
  - { offsetInCU: 0x36B7, offset: 0x2A9AE2, size: 0x8, addend: 0x0, symName: '__ZN4core3ptr100drop_in_place$LT$syn..punctuated..Punctuated$LT$syn..path..PathSegment$C$syn..token..PathSep$GT$$GT$17hf414cb3581f8337aE.llvm.2618680253894991198', symObjAddr: 0x2D0, symBinAddr: 0x8E730, symSize: 0x1A0 }
  - { offsetInCU: 0x3D8F, offset: 0x2AA1BA, size: 0x8, addend: 0x0, symName: '__ZN4core3ptr101drop_in_place$LT$core..option..Option$LT$alloc..boxed..Box$LT$syn..generics..GenericParam$GT$$GT$$GT$17hd5dce04b35fda9feE', symObjAddr: 0x470, symBinAddr: 0x8E8D0, symSize: 0x50 }
  - { offsetInCU: 0x3F7D, offset: 0x2AA3A8, size: 0x8, addend: 0x0, symName: '__ZN4core3ptr102drop_in_place$LT$syn..punctuated..Punctuated$LT$syn..path..GenericArgument$C$syn..token..Comma$GT$$GT$17h39496ba4e6dba6cfE.llvm.2618680253894991198', symObjAddr: 0x4C0, symBinAddr: 0x8E920, symSize: 0xF0 }
  - { offsetInCU: 0x4266, offset: 0x2AA691, size: 0x8, addend: 0x0, symName: '__ZN4core3ptr103drop_in_place$LT$core..option..Option$LT$alloc..boxed..Box$LT$syn..generics..TypeParamBound$GT$$GT$$GT$17h5974f03e36b1a9c3E.llvm.2618680253894991198', symObjAddr: 0x5B0, symBinAddr: 0x8EA10, symSize: 0x50 }
  - { offsetInCU: 0x43F7, offset: 0x2AA822, size: 0x8, addend: 0x0, symName: '__ZN4core3ptr103drop_in_place$LT$core..option..Option$LT$alloc..boxed..Box$LT$syn..generics..WherePredicate$GT$$GT$$GT$17hdd5111a374d8d6f2E', symObjAddr: 0x600, symBinAddr: 0x8EA60, symSize: 0x50 }
  - { offsetInCU: 0x4623, offset: 0x2AAA4E, size: 0x8, addend: 0x0, symName: '__ZN4core3ptr103drop_in_place$LT$syn..punctuated..Punctuated$LT$syn..generics..GenericParam$C$syn..token..Comma$GT$$GT$17hf42353fa44ed6da8E.llvm.2618680253894991198', symObjAddr: 0x650, symBinAddr: 0x8EAB0, symSize: 0x1A0 }
  - { offsetInCU: 0x4BF2, offset: 0x2AB01D, size: 0x8, addend: 0x0, symName: '__ZN4core3ptr104drop_in_place$LT$syn..punctuated..Punctuated$LT$syn..generics..TypeParamBound$C$syn..token..Plus$GT$$GT$17h532f52c4a894b056E.llvm.2618680253894991198', symObjAddr: 0x7F0, symBinAddr: 0x8EC50, symSize: 0x230 }
  - { offsetInCU: 0x5523, offset: 0x2AB94E, size: 0x8, addend: 0x0, symName: '__ZN4core3ptr105drop_in_place$LT$syn..punctuated..Punctuated$LT$syn..generics..WherePredicate$C$syn..token..Comma$GT$$GT$17h935f9826ba562349E', symObjAddr: 0xA20, symBinAddr: 0x8EE80, symSize: 0x190 }
  - { offsetInCU: 0x5BF4, offset: 0x2AC01F, size: 0x8, addend: 0x0, symName: '__ZN4core3ptr116drop_in_place$LT$core..option..Option$LT$$LP$syn..token..Else$C$alloc..boxed..Box$LT$syn..expr..Expr$GT$$RP$$GT$$GT$17hce47d33a8602d206E', symObjAddr: 0xBB0, symBinAddr: 0x8F010, symSize: 0x50 }
  - { offsetInCU: 0x5DB2, offset: 0x2AC1DD, size: 0x8, addend: 0x0, symName: '__ZN4core3ptr126drop_in_place$LT$core..option..Option$LT$$LP$syn..token..And$C$core..option..Option$LT$syn..lifetime..Lifetime$GT$$RP$$GT$$GT$17hc269ac95805979aaE', symObjAddr: 0xC00, symBinAddr: 0x8F060, symSize: 0x30 }
  - { offsetInCU: 0x6042, offset: 0x2AC46D, size: 0x8, addend: 0x0, symName: '__ZN4core3ptr33drop_in_place$LT$syn..ty..Abi$GT$17h82d9e208356e7513E', symObjAddr: 0xC30, symBinAddr: 0x8F090, symSize: 0x60 }
  - { offsetInCU: 0x605E, offset: 0x2AC489, size: 0x8, addend: 0x0, symName: '__ZN4core3ptr33drop_in_place$LT$syn..ty..Abi$GT$17h82d9e208356e7513E', symObjAddr: 0xC30, symBinAddr: 0x8F090, symSize: 0x60 }
  - { offsetInCU: 0x6358, offset: 0x2AC783, size: 0x8, addend: 0x0, symName: '__ZN4core3ptr34drop_in_place$LT$syn..lit..Lit$GT$17h8902f5ff67917034E', symObjAddr: 0xC90, symBinAddr: 0x8F0F0, symSize: 0x110 }
  - { offsetInCU: 0x68D0, offset: 0x2ACCFB, size: 0x8, addend: 0x0, symName: '__ZN4core3ptr34drop_in_place$LT$syn..pat..Pat$GT$17h4581eea028ec0969E.llvm.2618680253894991198', symObjAddr: 0xDA0, symBinAddr: 0x8F200, symSize: 0xF50 }
  - { offsetInCU: 0xA36F, offset: 0x2B079A, size: 0x8, addend: 0x0, symName: '__ZN4core3ptr34drop_in_place$LT$syn..ty..Type$GT$17h369e41ad4a9f1ae0E.llvm.2618680253894991198', symObjAddr: 0x1CF0, symBinAddr: 0x90150, symSize: 0x4E0 }
  - { offsetInCU: 0xB438, offset: 0x2B1863, size: 0x8, addend: 0x0, symName: '__ZN4core3ptr35drop_in_place$LT$syn..expr..Arm$GT$17hf2baebe0cd7aed98E.llvm.2618680253894991198', symObjAddr: 0x21D0, symBinAddr: 0x90630, symSize: 0x190 }
  - { offsetInCU: 0xBA1C, offset: 0x2B1E47, size: 0x8, addend: 0x0, symName: '__ZN4core3ptr36drop_in_place$LT$syn..attr..Meta$GT$17hceda0eaca68b0dd1E.llvm.2618680253894991198', symObjAddr: 0x2360, symBinAddr: 0x907C0, symSize: 0x220 }
  - { offsetInCU: 0xC51B, offset: 0x2B2946, size: 0x8, addend: 0x0, symName: '__ZN4core3ptr36drop_in_place$LT$syn..expr..Expr$GT$17h0f7fd4c749bae801E.llvm.2618680253894991198', symObjAddr: 0x2580, symBinAddr: 0x909E0, symSize: 0x2680 }
  - { offsetInCU: 0x15D9A, offset: 0x2BC1C5, size: 0x8, addend: 0x0, symName: '__ZN4core3ptr36drop_in_place$LT$syn..item..Item$GT$17h13f5a53479ba6379E.llvm.2618680253894991198', symObjAddr: 0x4C00, symBinAddr: 0x93060, symSize: 0x17D0 }
  - { offsetInCU: 0x1B299, offset: 0x2C16C4, size: 0x8, addend: 0x0, symName: '__ZN4core3ptr36drop_in_place$LT$syn..mac..Macro$GT$17h4ffde962df30ebe2E', symObjAddr: 0x63D0, symBinAddr: 0x94830, symSize: 0xE0 }
  - { offsetInCU: 0x1B5A3, offset: 0x2C19CE, size: 0x8, addend: 0x0, symName: '__ZN4core3ptr36drop_in_place$LT$syn..path..Path$GT$17habea856181211e1cE.llvm.2618680253894991198', symObjAddr: 0x64B0, symBinAddr: 0x94910, symSize: 0x150 }
  - { offsetInCU: 0x1BB50, offset: 0x2C1F7B, size: 0x8, addend: 0x0, symName: '__ZN4core3ptr36drop_in_place$LT$syn..stmt..Stmt$GT$17h7826ed37cb9634e5E.llvm.2618680253894991198', symObjAddr: 0x6600, symBinAddr: 0x94A60, symSize: 0x380 }
  - { offsetInCU: 0x1C71C, offset: 0x2C2B47, size: 0x8, addend: 0x0, symName: '__ZN4core3ptr37drop_in_place$LT$syn..data..Field$GT$17h8ecf6e22a67a3b36E.llvm.2618680253894991198', symObjAddr: 0x6980, symBinAddr: 0x94DE0, symSize: 0x180 }
  - { offsetInCU: 0x1CCE1, offset: 0x2C310C, size: 0x8, addend: 0x0, symName: '__ZN4core3ptr37drop_in_place$LT$syn..item..FnArg$GT$17h3308e115b3b3c9adE.llvm.2618680253894991198', symObjAddr: 0x6B00, symBinAddr: 0x94F60, symSize: 0x230 }
  - { offsetInCU: 0x1D593, offset: 0x2C39BE, size: 0x8, addend: 0x0, symName: '__ZN4core3ptr37drop_in_place$LT$syn..stmt..Block$GT$17hcc21a21cf949414cE', symObjAddr: 0x6D30, symBinAddr: 0x95190, symSize: 0xD0 }
  - { offsetInCU: 0x1D837, offset: 0x2C3C62, size: 0x8, addend: 0x0, symName: '__ZN4core3ptr38drop_in_place$LT$syn..expr..ExprIf$GT$17h01a54a489d798b2dE.llvm.2618680253894991198', symObjAddr: 0x6E00, symBinAddr: 0x95260, symSize: 0x1B0 }
  - { offsetInCU: 0x1E0A1, offset: 0x2C44CC, size: 0x8, addend: 0x0, symName: '__ZN4core3ptr38drop_in_place$LT$syn..expr..Member$GT$17h022cbe5553aa40faE.llvm.2618680253894991198', symObjAddr: 0x6FB0, symBinAddr: 0x95410, symSize: 0x30 }
  - { offsetInCU: 0x1E19E, offset: 0x2C45C9, size: 0x8, addend: 0x0, symName: '__ZN4core3ptr38drop_in_place$LT$syn..pat..PatType$GT$17hcbbce80a195201a4E.llvm.2618680253894991198', symObjAddr: 0x6FE0, symBinAddr: 0x95440, symSize: 0x140 }
  - { offsetInCU: 0x1E71A, offset: 0x2C4B45, size: 0x8, addend: 0x0, symName: '__ZN4core3ptr39drop_in_place$LT$proc_macro2..Ident$GT$17h8101e88c3ac359d6E.llvm.2618680253894991198', symObjAddr: 0x7120, symBinAddr: 0x95580, symSize: 0x30 }
  - { offsetInCU: 0x1E92E, offset: 0x2C4D59, size: 0x8, addend: 0x0, symName: '__ZN4core3ptr39drop_in_place$LT$syn..buffer..Entry$GT$17h8c4c199506966aaeE.llvm.2618680253894991198', symObjAddr: 0x7150, symBinAddr: 0x955B0, symSize: 0xC0 }
  - { offsetInCU: 0x1EC9F, offset: 0x2C50CA, size: 0x8, addend: 0x0, symName: '__ZN4core3ptr39drop_in_place$LT$syn..data..Variant$GT$17h7bd4c363751fc860E.llvm.2618680253894991198', symObjAddr: 0x7210, symBinAddr: 0x95670, symSize: 0x2F0 }
  - { offsetInCU: 0x1F8AD, offset: 0x2C5CD8, size: 0x8, addend: 0x0, symName: '__ZN4core3ptr39drop_in_place$LT$syn..item..UseTree$GT$17h5b1281a5704d139dE.llvm.2618680253894991198', symObjAddr: 0x7500, symBinAddr: 0x95960, symSize: 0x1D0 }
  - { offsetInCU: 0x1FFCC, offset: 0x2C63F7, size: 0x8, addend: 0x0, symName: '__ZN4core3ptr40drop_in_place$LT$syn..item..ImplItem$GT$17he2e6e8f15695ea55E', symObjAddr: 0x76D0, symBinAddr: 0x95B30, symSize: 0x240 }
  - { offsetInCU: 0x205C7, offset: 0x2C69F2, size: 0x8, addend: 0x0, symName: '__ZN4core3ptr40drop_in_place$LT$syn..item..Receiver$GT$17h6743a41cd869c536E.llvm.2618680253894991198', symObjAddr: 0x7910, symBinAddr: 0x95D70, symSize: 0x130 }
  - { offsetInCU: 0x20B9A, offset: 0x2C6FC5, size: 0x8, addend: 0x0, symName: '__ZN4core3ptr40drop_in_place$LT$syn..item..Variadic$GT$17h856c1da4a3922974E', symObjAddr: 0x7A40, symBinAddr: 0x95EA0, symSize: 0x120 }
  - { offsetInCU: 0x21011, offset: 0x2C743C, size: 0x8, addend: 0x0, symName: '__ZN4core3ptr40drop_in_place$LT$syn..ty..ReturnType$GT$17h02cf41e2fec63d90E.llvm.2618680253894991198', symObjAddr: 0x7B60, symBinAddr: 0x95FC0, symSize: 0x50 }
  - { offsetInCU: 0x211A2, offset: 0x2C75CD, size: 0x8, addend: 0x0, symName: '__ZN4core3ptr41drop_in_place$LT$syn..attr..Attribute$GT$17h6038ab1bc013504dE.llvm.2618680253894991198', symObjAddr: 0x7BB0, symBinAddr: 0x96010, symSize: 0x160 }
  - { offsetInCU: 0x21688, offset: 0x2C7AB3, size: 0x8, addend: 0x0, symName: '__ZN4core3ptr41drop_in_place$LT$syn..item..Signature$GT$17h691f115807a5d1eeE', symObjAddr: 0x7D10, symBinAddr: 0x96170, symSize: 0x280 }
  - { offsetInCU: 0x22177, offset: 0x2C85A2, size: 0x8, addend: 0x0, symName: '__ZN4core3ptr41drop_in_place$LT$syn..item..TraitItem$GT$17hb6f9fbcba8fdea85E', symObjAddr: 0x7F90, symBinAddr: 0x963F0, symSize: 0x3E0 }
  - { offsetInCU: 0x22C9D, offset: 0x2C90C8, size: 0x8, addend: 0x0, symName: '__ZN4core3ptr41drop_in_place$LT$syn..stmt..LocalInit$GT$17he02c3bb35adaf040E', symObjAddr: 0x8370, symBinAddr: 0x967D0, symSize: 0xC0 }
  - { offsetInCU: 0x22F91, offset: 0x2C93BC, size: 0x8, addend: 0x0, symName: '__ZN4core3ptr42drop_in_place$LT$syn..item..ImplItemFn$GT$17h753bae801f2662d9E', symObjAddr: 0x8430, symBinAddr: 0x96890, symSize: 0x230 }
  - { offsetInCU: 0x236EC, offset: 0x2C9B17, size: 0x8, addend: 0x0, symName: '__ZN4core3ptr42drop_in_place$LT$syn..path..Constraint$GT$17h07cd69a204b9a6d4E', symObjAddr: 0x8660, symBinAddr: 0x96AC0, symSize: 0x160 }
  - { offsetInCU: 0x23C4C, offset: 0x2CA077, size: 0x8, addend: 0x0, symName: '__ZN4core3ptr43drop_in_place$LT$proc_macro2..TokenTree$GT$17h9a731c54895ae11bE.llvm.2618680253894991198', symObjAddr: 0x87C0, symBinAddr: 0x96C20, symSize: 0xB0 }
  - { offsetInCU: 0x23F60, offset: 0x2CA38B, size: 0x8, addend: 0x0, symName: '__ZN4core3ptr43drop_in_place$LT$syn..data..FieldsNamed$GT$17hb2a97e73a85352cbE', symObjAddr: 0x8870, symBinAddr: 0x96CD0, symSize: 0x120 }
  - { offsetInCU: 0x243E8, offset: 0x2CA813, size: 0x8, addend: 0x0, symName: '__ZN4core3ptr43drop_in_place$LT$syn..item..ForeignItem$GT$17h1398b9aa0a6e4c9dE', symObjAddr: 0x8990, symBinAddr: 0x96DF0, symSize: 0x330 }
  - { offsetInCU: 0x24D6F, offset: 0x2CB19A, size: 0x8, addend: 0x0, symName: '__ZN4core3ptr43drop_in_place$LT$syn..path..PathSegment$GT$17h62e206c29667de7cE.llvm.2618680253894991198', symObjAddr: 0x8CC0, symBinAddr: 0x97120, symSize: 0x170 }
  - { offsetInCU: 0x25313, offset: 0x2CB73E, size: 0x8, addend: 0x0, symName: '__ZN4core3ptr44drop_in_place$LT$syn..generics..Generics$GT$17h10dea28dec64f81eE', symObjAddr: 0x8E30, symBinAddr: 0x97290, symSize: 0x220 }
  - { offsetInCU: 0x25B90, offset: 0x2CBFBB, size: 0x8, addend: 0x0, symName: '__ZN4core3ptr44drop_in_place$LT$syn..item..ImplItemType$GT$17h9547daf76315cef8E', symObjAddr: 0x9050, symBinAddr: 0x974B0, symSize: 0x1D0 }
  - { offsetInCU: 0x26178, offset: 0x2CC5A3, size: 0x8, addend: 0x0, symName: '__ZN4core3ptr44drop_in_place$LT$syn..lifetime..Lifetime$GT$17hf0cdec2e9ec456d6E.llvm.2618680253894991198', symObjAddr: 0x9220, symBinAddr: 0x97680, symSize: 0x30 }
  - { offsetInCU: 0x262D2, offset: 0x2CC6FD, size: 0x8, addend: 0x0, symName: '__ZN4core3ptr45drop_in_place$LT$proc_macro2..TokenStream$GT$17h3405f6c513e9f6cbE.llvm.2618680253894991198', symObjAddr: 0x9250, symBinAddr: 0x976B0, symSize: 0x70 }
  - { offsetInCU: 0x26439, offset: 0x2CC864, size: 0x8, addend: 0x0, symName: '__ZN4core3ptr45drop_in_place$LT$syn..generics..TypeParam$GT$17he5eda51070b7de47E.llvm.2618680253894991198', symObjAddr: 0x92C0, symBinAddr: 0x97720, symSize: 0x230 }
  - { offsetInCU: 0x26C7E, offset: 0x2CD0A9, size: 0x8, addend: 0x0, symName: '__ZN4core3ptr45drop_in_place$LT$syn..item..ImplItemConst$GT$17he90cac64fa027f09E', symObjAddr: 0x94F0, symBinAddr: 0x97950, symSize: 0x200 }
  - { offsetInCU: 0x272A4, offset: 0x2CD6CF, size: 0x8, addend: 0x0, symName: '__ZN4core3ptr45drop_in_place$LT$syn..item..TraitItemType$GT$17hec5203fd126d0733E', symObjAddr: 0x96F0, symBinAddr: 0x97B50, symSize: 0x290 }
  - { offsetInCU: 0x27BB5, offset: 0x2CDFE0, size: 0x8, addend: 0x0, symName: '__ZN4core3ptr46drop_in_place$LT$$u5b$syn..stmt..Stmt$u5d$$GT$17h0a8006ae14c66d0fE.llvm.2618680253894991198', symObjAddr: 0x9980, symBinAddr: 0x97DE0, symSize: 0x2F0 }
  - { offsetInCU: 0x281E7, offset: 0x2CE612, size: 0x8, addend: 0x0, symName: '__ZN4core3ptr46drop_in_place$LT$syn..generics..ConstParam$GT$17hab0a58c4af8c549cE.llvm.2618680253894991198', symObjAddr: 0x9C70, symBinAddr: 0x980D0, symSize: 0x150 }
  - { offsetInCU: 0x285E8, offset: 0x2CEA13, size: 0x8, addend: 0x0, symName: '__ZN4core3ptr46drop_in_place$LT$syn..item..TraitItemConst$GT$17h93b00edde47e0b07E', symObjAddr: 0x9DC0, symBinAddr: 0x98220, symSize: 0x1A0 }
  - { offsetInCU: 0x28A9C, offset: 0x2CEEC7, size: 0x8, addend: 0x0, symName: '__ZN4core3ptr47drop_in_place$LT$syn..generics..WhereClause$GT$17h8d71cc7a854160ddE', symObjAddr: 0x9F60, symBinAddr: 0x983C0, symSize: 0x120 }
  - { offsetInCU: 0x28EE6, offset: 0x2CF311, size: 0x8, addend: 0x0, symName: '__ZN4core3ptr47drop_in_place$LT$syn..item..ForeignItemType$GT$17ha1c97c43a7eb44cfE', symObjAddr: 0xA080, symBinAddr: 0x984E0, symSize: 0x1A0 }
  - { offsetInCU: 0x2952B, offset: 0x2CF956, size: 0x8, addend: 0x0, symName: '__ZN4core3ptr47drop_in_place$LT$syn..path..GenericArgument$GT$17h54f8794633f96823E.llvm.2618680253894991198', symObjAddr: 0xA220, symBinAddr: 0x98680, symSize: 0x1C0 }
  - { offsetInCU: 0x299DE, offset: 0x2CFE09, size: 0x8, addend: 0x0, symName: '__ZN4core3ptr48drop_in_place$LT$syn..generics..GenericParam$GT$17h9c895978ef08f584E.llvm.2618680253894991198', symObjAddr: 0xA3E0, symBinAddr: 0x98840, symSize: 0x150 }
  - { offsetInCU: 0x29DD0, offset: 0x2D01FB, size: 0x8, addend: 0x0, symName: '__ZN4core3ptr49drop_in_place$LT$syn..generics..LifetimeParam$GT$17h41a7c7a290ea6289E.llvm.2618680253894991198', symObjAddr: 0xA530, symBinAddr: 0x98990, symSize: 0xF0 }
  - { offsetInCU: 0x2A1AB, offset: 0x2D05D6, size: 0x8, addend: 0x0, symName: '__ZN4core3ptr49drop_in_place$LT$syn..generics..PredicateType$GT$17hf38482bec426e936E.llvm.2618680253894991198', symObjAddr: 0xA620, symBinAddr: 0x98A80, symSize: 0x170 }
  - { offsetInCU: 0x2A627, offset: 0x2D0A52, size: 0x8, addend: 0x0, symName: '__ZN4core3ptr49drop_in_place$LT$syn..item..ForeignItemStatic$GT$17h7f3c810db69ed760E', symObjAddr: 0xA790, symBinAddr: 0x98BF0, symSize: 0x180 }
  - { offsetInCU: 0x2AD00, offset: 0x2D112B, size: 0x8, addend: 0x0, symName: '__ZN4core3ptr50drop_in_place$LT$$u5b$syn..item..ImplItem$u5d$$GT$17haee7878761be0217E.llvm.2618680253894991198', symObjAddr: 0xA910, symBinAddr: 0x98D70, symSize: 0x230 }
  - { offsetInCU: 0x2B028, offset: 0x2D1453, size: 0x8, addend: 0x0, symName: '__ZN4core3ptr50drop_in_place$LT$syn..generics..TypeParamBound$GT$17hcd7771d4c6c221efE.llvm.2618680253894991198', symObjAddr: 0xAB40, symBinAddr: 0x98FA0, symSize: 0xA0 }
  - { offsetInCU: 0x2B1AE, offset: 0x2D15D9, size: 0x8, addend: 0x0, symName: '__ZN4core3ptr50drop_in_place$LT$syn..generics..WherePredicate$GT$17h1a9d05bc1beb1d91E.llvm.2618680253894991198', symObjAddr: 0xABE0, symBinAddr: 0x99040, symSize: 0xA0 }
  - { offsetInCU: 0x2B35B, offset: 0x2D1786, size: 0x8, addend: 0x0, symName: '__ZN4core3ptr51drop_in_place$LT$$u5b$syn..item..TraitItem$u5d$$GT$17h64a6457ddfeb24d5E.llvm.2618680253894991198', symObjAddr: 0xAC80, symBinAddr: 0x990E0, symSize: 0x3F0 }
  - { offsetInCU: 0x2BBB3, offset: 0x2D1FDE, size: 0x8, addend: 0x0, symName: '__ZN4core3ptr52drop_in_place$LT$syn..restriction..VisRestricted$GT$17h7de420d0018508c5E', symObjAddr: 0xB070, symBinAddr: 0x994D0, symSize: 0x50 }
  - { offsetInCU: 0x2BD4C, offset: 0x2D2177, size: 0x8, addend: 0x0, symName: '__ZN4core3ptr53drop_in_place$LT$$u5b$syn..item..ForeignItem$u5d$$GT$17h0fb84ff15c76ad7aE.llvm.2618680253894991198', symObjAddr: 0xB0C0, symBinAddr: 0x99520, symSize: 0x360 }
  - { offsetInCU: 0x2C4CA, offset: 0x2D28F5, size: 0x8, addend: 0x0, symName: '__ZN4core3ptr58drop_in_place$LT$alloc..vec..Vec$LT$syn..expr..Arm$GT$$GT$17h1a55df3d2cba1daaE', symObjAddr: 0xB420, symBinAddr: 0x99880, symSize: 0xD0 }
  - { offsetInCU: 0x2C757, offset: 0x2D2B82, size: 0x8, addend: 0x0, symName: '__ZN4core3ptr59drop_in_place$LT$alloc..boxed..Box$LT$syn..pat..Pat$GT$$GT$17h563b135d87aca8abE.llvm.2618680253894991198', symObjAddr: 0xB4F0, symBinAddr: 0x99950, symSize: 0x50 }
  - { offsetInCU: 0x2C8B2, offset: 0x2D2CDD, size: 0x8, addend: 0x0, symName: '__ZN4core3ptr59drop_in_place$LT$alloc..boxed..Box$LT$syn..ty..Type$GT$$GT$17hffed36bad83adacbE.llvm.2618680253894991198', symObjAddr: 0xB540, symBinAddr: 0x999A0, symSize: 0x50 }
  - { offsetInCU: 0x2CA0D, offset: 0x2D2E38, size: 0x8, addend: 0x0, symName: '__ZN4core3ptr59drop_in_place$LT$alloc..vec..Vec$LT$syn..item..Item$GT$$GT$17hf874c2ed1282c93cE', symObjAddr: 0xB590, symBinAddr: 0x999F0, symSize: 0xD0 }
  - { offsetInCU: 0x2CC9A, offset: 0x2D30C5, size: 0x8, addend: 0x0, symName: '__ZN4core3ptr59drop_in_place$LT$alloc..vec..Vec$LT$syn..stmt..Stmt$GT$$GT$17hb5c1acf3c61c43e2E', symObjAddr: 0xB660, symBinAddr: 0x99AC0, symSize: 0x80 }
  - { offsetInCU: 0x2CF18, offset: 0x2D3343, size: 0x8, addend: 0x0, symName: '__ZN4core3ptr61drop_in_place$LT$alloc..boxed..Box$LT$syn..expr..Expr$GT$$GT$17h01091e47f131475dE', symObjAddr: 0xB6E0, symBinAddr: 0x99B40, symSize: 0x50 }
  - { offsetInCU: 0x2D073, offset: 0x2D349E, size: 0x8, addend: 0x0, symName: '__ZN4core3ptr61drop_in_place$LT$alloc..boxed..Box$LT$syn..path..Path$GT$$GT$17ha58e58ae7c31ea61E', symObjAddr: 0xB730, symBinAddr: 0x99B90, symSize: 0xF0 }
  - { offsetInCU: 0x2D559, offset: 0x2D3984, size: 0x8, addend: 0x0, symName: '__ZN4core3ptr61drop_in_place$LT$syn..path..ParenthesizedGenericArguments$GT$17h43d4aac5494326a7E.llvm.2618680253894991198', symObjAddr: 0xB820, symBinAddr: 0x99C80, symSize: 0x170 }
  - { offsetInCU: 0x2DB20, offset: 0x2D3F4B, size: 0x8, addend: 0x0, symName: '__ZN4core3ptr62drop_in_place$LT$alloc..boxed..Box$LT$syn..data..Field$GT$$GT$17hebc7cac3b74f311dE', symObjAddr: 0xB990, symBinAddr: 0x99DF0, symSize: 0x50 }
  - { offsetInCU: 0x2DC9A, offset: 0x2D40C5, size: 0x8, addend: 0x0, symName: '__ZN4core3ptr62drop_in_place$LT$alloc..boxed..Box$LT$syn..item..FnArg$GT$$GT$17hc527eff785dac3a2E', symObjAddr: 0xB9E0, symBinAddr: 0x99E40, symSize: 0x60 }
  - { offsetInCU: 0x2DE12, offset: 0x2D423D, size: 0x8, addend: 0x0, symName: '__ZN4core3ptr62drop_in_place$LT$alloc..boxed..Box$LT$syn..stmt..Block$GT$$GT$17h30434998ae0f12a8E', symObjAddr: 0xBA40, symBinAddr: 0x99EA0, symSize: 0xE0 }
  - { offsetInCU: 0x2E231, offset: 0x2D465C, size: 0x8, addend: 0x0, symName: '__ZN4core3ptr62drop_in_place$LT$alloc..vec..Vec$LT$syn..buffer..Entry$GT$$GT$17h73857e86c6f10397E.llvm.2618680253894991198', symObjAddr: 0xBB20, symBinAddr: 0x99F80, symSize: 0xC0 }
  - { offsetInCU: 0x2E4D1, offset: 0x2D48FC, size: 0x8, addend: 0x0, symName: '__ZN4core3ptr62drop_in_place$LT$syn..path..AngleBracketedGenericArguments$GT$17hc5b69f68243636ddE.llvm.2618680253894991198', symObjAddr: 0xBBE0, symBinAddr: 0x9A040, symSize: 0x120 }
  - { offsetInCU: 0x2E91B, offset: 0x2D4D46, size: 0x8, addend: 0x0, symName: '__ZN4core3ptr63drop_in_place$LT$alloc..vec..Vec$LT$syn..item..ImplItem$GT$$GT$17hda9ba61cc1df3d0eE', symObjAddr: 0xBD00, symBinAddr: 0x9A160, symSize: 0x80 }
  - { offsetInCU: 0x2EB99, offset: 0x2D4FC4, size: 0x8, addend: 0x0, symName: '__ZN4core3ptr64drop_in_place$LT$alloc..boxed..Box$LT$syn..data..Variant$GT$$GT$17h4d6d609d76c77795E', symObjAddr: 0xBD80, symBinAddr: 0x9A1E0, symSize: 0x50 }
  - { offsetInCU: 0x2ECF4, offset: 0x2D511F, size: 0x8, addend: 0x0, symName: '__ZN4core3ptr64drop_in_place$LT$alloc..boxed..Box$LT$syn..item..UseTree$GT$$GT$17he10cba0a4742709fE', symObjAddr: 0xBDD0, symBinAddr: 0x9A230, symSize: 0x50 }
  - { offsetInCU: 0x2EE6E, offset: 0x2D5299, size: 0x8, addend: 0x0, symName: '__ZN4core3ptr64drop_in_place$LT$alloc..boxed..Box$LT$syn..pat..FieldPat$GT$$GT$17h4980b70a7597cc08E', symObjAddr: 0xBE20, symBinAddr: 0x9A280, symSize: 0x140 }
  - { offsetInCU: 0x2F50F, offset: 0x2D593A, size: 0x8, addend: 0x0, symName: '__ZN4core3ptr64drop_in_place$LT$alloc..boxed..Box$LT$syn..ty..BareFnArg$GT$$GT$17h8b34096c620314efE', symObjAddr: 0xBF60, symBinAddr: 0x9A3C0, symSize: 0x140 }
  - { offsetInCU: 0x2FA67, offset: 0x2D5E92, size: 0x8, addend: 0x0, symName: '__ZN4core3ptr64drop_in_place$LT$alloc..vec..Vec$LT$syn..attr..Attribute$GT$$GT$17h3c8f2a04e701c675E', symObjAddr: 0xC0A0, symBinAddr: 0x9A500, symSize: 0xD0 }
  - { offsetInCU: 0x2FD28, offset: 0x2D6153, size: 0x8, addend: 0x0, symName: '__ZN4core3ptr64drop_in_place$LT$alloc..vec..Vec$LT$syn..item..TraitItem$GT$$GT$17h60eb4b8666c57b93E', symObjAddr: 0xC170, symBinAddr: 0x9A5D0, symSize: 0x80 }
  - { offsetInCU: 0x2FFA6, offset: 0x2D63D1, size: 0x8, addend: 0x0, symName: '__ZN4core3ptr65drop_in_place$LT$$LP$syn..item..FnArg$C$syn..token..Comma$RP$$GT$17hc164d69e1fc45771E.llvm.2618680253894991198', symObjAddr: 0xC1F0, symBinAddr: 0x9A650, symSize: 0x20 }
  - { offsetInCU: 0x3003F, offset: 0x2D646A, size: 0x8, addend: 0x0, symName: '__ZN4core3ptr65drop_in_place$LT$alloc..vec..Vec$LT$proc_macro..TokenTree$GT$$GT$17h408088468d073beeE.llvm.2618680253894991198', symObjAddr: 0xC210, symBinAddr: 0x9A670, symSize: 0x120 }
  - { offsetInCU: 0x303B2, offset: 0x2D67DD, size: 0x8, addend: 0x0, symName: '__ZN4core3ptr65drop_in_place$LT$core..option..Option$LT$syn..expr..Label$GT$$GT$17h78189e72a8cb7951E', symObjAddr: 0xC330, symBinAddr: 0x9A790, symSize: 0x30 }
  - { offsetInCU: 0x304ED, offset: 0x2D6918, size: 0x8, addend: 0x0, symName: '__ZN4core3ptr65drop_in_place$LT$core..option..Option$LT$syn..stmt..Block$GT$$GT$17h7d9c0a54a580a160E', symObjAddr: 0xC360, symBinAddr: 0x9A7C0, symSize: 0xE0 }
  - { offsetInCU: 0x30752, offset: 0x2D6B7D, size: 0x8, addend: 0x0, symName: '__ZN4core3ptr66drop_in_place$LT$alloc..vec..Vec$LT$syn..item..ForeignItem$GT$$GT$17h3e58b8e683c84cf4E', symObjAddr: 0xC440, symBinAddr: 0x9A8A0, symSize: 0x80 }
  - { offsetInCU: 0x309D0, offset: 0x2D6DFB, size: 0x8, addend: 0x0, symName: '__ZN4core3ptr67drop_in_place$LT$$LP$syn..pat..FieldPat$C$syn..token..Comma$RP$$GT$17h85e934ef4c19bf0fE.llvm.2618680253894991198', symObjAddr: 0xC4C0, symBinAddr: 0x9A920, symSize: 0x130 }
  - { offsetInCU: 0x30F3A, offset: 0x2D7365, size: 0x8, addend: 0x0, symName: '__ZN4core3ptr67drop_in_place$LT$$LP$syn..ty..BareFnArg$C$syn..token..Comma$RP$$GT$17hd93958865c964865E.llvm.2618680253894991198', symObjAddr: 0xC5F0, symBinAddr: 0x9AA50, symSize: 0x110 }
  - { offsetInCU: 0x3138B, offset: 0x2D77B6, size: 0x8, addend: 0x0, symName: '__ZN4core3ptr67drop_in_place$LT$alloc..boxed..Box$LT$syn..expr..FieldValue$GT$$GT$17h93aaccf8aa22ef88E', symObjAddr: 0xC700, symBinAddr: 0x9AB60, symSize: 0x140 }
  - { offsetInCU: 0x318C3, offset: 0x2D7CEE, size: 0x8, addend: 0x0, symName: '__ZN4core3ptr68drop_in_place$LT$alloc..boxed..Box$LT$syn..path..PathSegment$GT$$GT$17h709dabdc13b58a71E', symObjAddr: 0xC840, symBinAddr: 0x9ACA0, symSize: 0xD0 }
  - { offsetInCU: 0x31CC1, offset: 0x2D80EC, size: 0x8, addend: 0x0, symName: '__ZN4core3ptr69drop_in_place$LT$core..option..Option$LT$syn..stmt..LocalInit$GT$$GT$17h7427177b3fce4dc2E', symObjAddr: 0xC910, symBinAddr: 0x9AD70, symSize: 0xC0 }
  - { offsetInCU: 0x31FE9, offset: 0x2D8414, size: 0x8, addend: 0x0, symName: '__ZN4core3ptr70drop_in_place$LT$$LP$syn..expr..FieldValue$C$syn..token..Comma$RP$$GT$17h490c542958e56dacE.llvm.2618680253894991198', symObjAddr: 0xC9D0, symBinAddr: 0x9AE30, symSize: 0x110 }
  - { offsetInCU: 0x323FB, offset: 0x2D8826, size: 0x8, addend: 0x0, symName: '__ZN4core3ptr70drop_in_place$LT$core..option..Option$LT$syn..ty..BareVariadic$GT$$GT$17h45399348ea4b8d55E', symObjAddr: 0xCAE0, symBinAddr: 0x9AF40, symSize: 0x100 }
  - { offsetInCU: 0x3282B, offset: 0x2D8C56, size: 0x8, addend: 0x0, symName: '__ZN4core3ptr72drop_in_place$LT$alloc..boxed..Box$LT$syn..path..GenericArgument$GT$$GT$17haa7dd8b716637b54E.llvm.2618680253894991198', symObjAddr: 0xCBE0, symBinAddr: 0x9B040, symSize: 0x180 }
  - { offsetInCU: 0x32D00, offset: 0x2D912B, size: 0x8, addend: 0x0, symName: '__ZN4core3ptr73drop_in_place$LT$$LP$syn..path..PathSegment$C$syn..token..PathSep$RP$$GT$17hf7a8dbee7b1b25c8E.llvm.2618680253894991198', symObjAddr: 0xCD60, symBinAddr: 0x9B1C0, symSize: 0xC0 }
  - { offsetInCU: 0x32FC6, offset: 0x2D93F1, size: 0x8, addend: 0x0, symName: '__ZN4core3ptr73drop_in_place$LT$alloc..boxed..Box$LT$syn..generics..GenericParam$GT$$GT$17hf6951dcd5ae07324E', symObjAddr: 0xCE20, symBinAddr: 0x9B280, symSize: 0x80 }
  - { offsetInCU: 0x3313E, offset: 0x2D9569, size: 0x8, addend: 0x0, symName: '__ZN4core3ptr75drop_in_place$LT$$LP$syn..path..GenericArgument$C$syn..token..Comma$RP$$GT$17h3ba8f36bbe154baeE.llvm.2618680253894991198', symObjAddr: 0xCEA0, symBinAddr: 0x9B300, symSize: 0x180 }
  - { offsetInCU: 0x334C6, offset: 0x2D98F1, size: 0x8, addend: 0x0, symName: '__ZN4core3ptr75drop_in_place$LT$alloc..boxed..Box$LT$syn..generics..TypeParamBound$GT$$GT$17he61c00698a311a34E', symObjAddr: 0xD020, symBinAddr: 0x9B480, symSize: 0x160 }
  - { offsetInCU: 0x33A63, offset: 0x2D9E8E, size: 0x8, addend: 0x0, symName: '__ZN4core3ptr75drop_in_place$LT$alloc..boxed..Box$LT$syn..generics..WherePredicate$GT$$GT$17hb3c3f96fc44a9b07E', symObjAddr: 0xD180, symBinAddr: 0x9B5E0, symSize: 0x80 }
  - { offsetInCU: 0x33CF9, offset: 0x2DA124, size: 0x8, addend: 0x0, symName: '__ZN4core3ptr76drop_in_place$LT$$LP$syn..generics..GenericParam$C$syn..token..Comma$RP$$GT$17hadd4ee9dc4c521adE.llvm.2618680253894991198', symObjAddr: 0xD200, symBinAddr: 0x9B660, symSize: 0x40 }
  - { offsetInCU: 0x33D35, offset: 0x2DA160, size: 0x8, addend: 0x0, symName: '__ZN4core3ptr77drop_in_place$LT$$LP$syn..generics..TypeParamBound$C$syn..token..Plus$RP$$GT$17h74b4a4238bdefe04E.llvm.2618680253894991198', symObjAddr: 0xD240, symBinAddr: 0x9B6A0, symSize: 0x160 }
  - { offsetInCU: 0x341A0, offset: 0x2DA5CB, size: 0x8, addend: 0x0, symName: '__ZN4core3ptr78drop_in_place$LT$$LP$syn..generics..WherePredicate$C$syn..token..Comma$RP$$GT$17h53972732bf2fc9faE.llvm.2618680253894991198', symObjAddr: 0xD3A0, symBinAddr: 0x9B800, symSize: 0x50 }
  - { offsetInCU: 0x342FA, offset: 0x2DA725, size: 0x8, addend: 0x0, symName: '__ZN4core3ptr86drop_in_place$LT$$LP$syn..token..If$C$alloc..boxed..Box$LT$syn..expr..Expr$GT$$RP$$GT$17h2caf60ff8122e91dE', symObjAddr: 0xD3F0, symBinAddr: 0x9B850, symSize: 0x50 }
  - { offsetInCU: 0x3450F, offset: 0x2DA93A, size: 0x8, addend: 0x0, symName: '__ZN4core3ptr86drop_in_place$LT$syn..punctuated..Punctuated$LT$syn..pat..Pat$C$syn..token..Or$GT$$GT$17h8e9173df21a44316E', symObjAddr: 0xD440, symBinAddr: 0x9B8A0, symSize: 0x120 }
  - { offsetInCU: 0x3496C, offset: 0x2DAD97, size: 0x8, addend: 0x0, symName: '__ZN4core3ptr87drop_in_place$LT$$LP$alloc..boxed..Box$LT$syn..pat..Pat$GT$$C$syn..token..Colon$RP$$GT$17hf8324c490b9b3095E', symObjAddr: 0xD560, symBinAddr: 0x9B9C0, symSize: 0x50 }
  - { offsetInCU: 0x34AE6, offset: 0x2DAF11, size: 0x8, addend: 0x0, symName: '__ZN4core3ptr87drop_in_place$LT$core..option..Option$LT$alloc..boxed..Box$LT$syn..ty..Type$GT$$GT$$GT$17hd74f5d971aec2972E', symObjAddr: 0xD5B0, symBinAddr: 0x9BA10, symSize: 0x50 }
  - { offsetInCU: 0x34C58, offset: 0x2DB083, size: 0x8, addend: 0x0, symName: '__ZN4core3ptr89drop_in_place$LT$core..option..Option$LT$alloc..boxed..Box$LT$syn..expr..Expr$GT$$GT$$GT$17h8e135ac1a25a2dc5E', symObjAddr: 0xD600, symBinAddr: 0x9BA60, symSize: 0x50 }
  - { offsetInCU: 0x34DCA, offset: 0x2DB1F5, size: 0x8, addend: 0x0, symName: '__ZN4core3ptr89drop_in_place$LT$syn..punctuated..Punctuated$LT$syn..ty..Type$C$syn..token..Comma$GT$$GT$17ha919b3114742fb9dE.llvm.2618680253894991198', symObjAddr: 0xD650, symBinAddr: 0x9BAB0, symSize: 0x120 }
  - { offsetInCU: 0x35214, offset: 0x2DB63F, size: 0x8, addend: 0x0, symName: '__ZN4core3ptr90drop_in_place$LT$core..option..Option$LT$alloc..boxed..Box$LT$syn..data..Field$GT$$GT$$GT$17h326c39537b0fcc46E', symObjAddr: 0xD770, symBinAddr: 0x9BBD0, symSize: 0x50 }
  - { offsetInCU: 0x35386, offset: 0x2DB7B1, size: 0x8, addend: 0x0, symName: '__ZN4core3ptr90drop_in_place$LT$core..option..Option$LT$alloc..boxed..Box$LT$syn..item..FnArg$GT$$GT$$GT$17hbae3fdd388277508E', symObjAddr: 0xD7C0, symBinAddr: 0x9BC20, symSize: 0x50 }
  - { offsetInCU: 0x35574, offset: 0x2DB99F, size: 0x8, addend: 0x0, symName: '__ZN4core3ptr91drop_in_place$LT$syn..punctuated..Punctuated$LT$syn..expr..Expr$C$syn..token..Comma$GT$$GT$17h4f39b83dc86a4159E', symObjAddr: 0xD810, symBinAddr: 0x9BC70, symSize: 0x120 }
  - { offsetInCU: 0x359D1, offset: 0x2DBDFC, size: 0x8, addend: 0x0, symName: '__ZN4core3ptr92drop_in_place$LT$core..option..Option$LT$$LP$syn..token..As$C$proc_macro2..Ident$RP$$GT$$GT$17h5c1a47ccb35d9d7eE', symObjAddr: 0xD930, symBinAddr: 0x9BD90, symSize: 0x30 }
  - { offsetInCU: 0x35AED, offset: 0x2DBF18, size: 0x8, addend: 0x0, symName: '__ZN4core3ptr92drop_in_place$LT$syn..punctuated..Punctuated$LT$syn..data..Field$C$syn..token..Comma$GT$$GT$17hca76f5e010a141e5E', symObjAddr: 0xD960, symBinAddr: 0x9BDC0, symSize: 0x120 }
  - { offsetInCU: 0x35F37, offset: 0x2DC362, size: 0x8, addend: 0x0, symName: '__ZN4core3ptr92drop_in_place$LT$syn..punctuated..Punctuated$LT$syn..item..FnArg$C$syn..token..Comma$GT$$GT$17h75db9d232662c7d3E', symObjAddr: 0xDA80, symBinAddr: 0x9BEE0, symSize: 0x150 }
  - { offsetInCU: 0x3644C, offset: 0x2DC877, size: 0x8, addend: 0x0, symName: '__ZN4core3ptr94drop_in_place$LT$syn..punctuated..Punctuated$LT$syn..data..Variant$C$syn..token..Comma$GT$$GT$17ha69d7e675441c7e2E', symObjAddr: 0xDBD0, symBinAddr: 0x9C030, symSize: 0x120 }
  - { offsetInCU: 0x36925, offset: 0x2DCD50, size: 0x8, addend: 0x0, symName: '__ZN4core3ptr94drop_in_place$LT$syn..punctuated..Punctuated$LT$syn..pat..FieldPat$C$syn..token..Comma$GT$$GT$17h112950ea198c8281E', symObjAddr: 0xDCF0, symBinAddr: 0x9C150, symSize: 0xF0 }
  - { offsetInCU: 0x36C7E, offset: 0x2DD0A9, size: 0x8, addend: 0x0, symName: '__ZN4core3ptr94drop_in_place$LT$syn..punctuated..Punctuated$LT$syn..ty..BareFnArg$C$syn..token..Comma$GT$$GT$17h1c7b44310f06243dE', symObjAddr: 0xDDE0, symBinAddr: 0x9C240, symSize: 0xF0 }
  - { offsetInCU: 0x36F5B, offset: 0x2DD386, size: 0x8, addend: 0x0, symName: '__ZN4core3ptr95drop_in_place$LT$core..option..Option$LT$$LP$proc_macro2..Ident$C$syn..token..Colon$RP$$GT$$GT$17ha744bf0f41959716E.llvm.2618680253894991198', symObjAddr: 0xDED0, symBinAddr: 0x9C330, symSize: 0x30 }
  - { offsetInCU: 0x37077, offset: 0x2DD4A2, size: 0x8, addend: 0x0, symName: '__ZN4core3ptr96drop_in_place$LT$core..option..Option$LT$alloc..boxed..Box$LT$syn..path..PathSegment$GT$$GT$$GT$17hb447d0f626c86a4eE.llvm.2618680253894991198', symObjAddr: 0xDF00, symBinAddr: 0x9C360, symSize: 0x90 }
  - { offsetInCU: 0x37394, offset: 0x2DD7BF, size: 0x8, addend: 0x0, symName: '__ZN4core3ptr97drop_in_place$LT$syn..punctuated..Punctuated$LT$syn..expr..FieldValue$C$syn..token..Comma$GT$$GT$17h31b81f7462228dcbE', symObjAddr: 0xDFE0, symBinAddr: 0x9C3F0, symSize: 0xF0 }
  - { offsetInCU: 0x3770C, offset: 0x2DDB37, size: 0x8, addend: 0x0, symName: '__ZN4core3ptr98drop_in_place$LT$syn..punctuated..Punctuated$LT$syn..lifetime..Lifetime$C$syn..token..Plus$GT$$GT$17h0f8fc5f20f465f47E.llvm.2618680253894991198', symObjAddr: 0xE0D0, symBinAddr: 0x9C4E0, symSize: 0xC0 }
  - { offsetInCU: 0x3F371, offset: 0x2E579C, size: 0x8, addend: 0x0, symName: '__ZN136_$LT$alloc..vec..Vec$LT$T$C$A$GT$$u20$as$u20$alloc..vec..spec_extend..SpecExtend$LT$T$C$alloc..vec..into_iter..IntoIter$LT$T$GT$$GT$$GT$11spec_extend17hd3fd65d04ebffaa6E', symObjAddr: 0xE0, symBinAddr: 0x8E540, symSize: 0xA0 }
  - { offsetInCU: 0x3F675, offset: 0x2E5AA0, size: 0x8, addend: 0x0, symName: '__ZN97_$LT$alloc..vec..Vec$LT$T$C$A$GT$$u20$as$u20$alloc..vec..spec_extend..SpecExtend$LT$T$C$I$GT$$GT$11spec_extend17hd1980574a9ec2ab9E', symObjAddr: 0x13110, symBinAddr: 0x9FEA0, symSize: 0x100 }
  - { offsetInCU: 0x3FAD2, offset: 0x2E5EFD, size: 0x8, addend: 0x0, symName: '__ZN97_$LT$alloc..vec..Vec$LT$T$C$A$GT$$u20$as$u20$alloc..vec..spec_extend..SpecExtend$LT$T$C$I$GT$$GT$11spec_extend17he326d35e9b0b5779E', symObjAddr: 0x13210, symBinAddr: 0x9FFA0, symSize: 0x670 }
  - { offsetInCU: 0x42BC8, offset: 0x2E8FF3, size: 0x8, addend: 0x0, symName: '__ZN65_$LT$alloc..vec..Vec$LT$T$C$A$GT$$u20$as$u20$core..fmt..Debug$GT$3fmt17h227199a3bb413f46E', symObjAddr: 0xE480, symBinAddr: 0x9C630, symSize: 0x80 }
  - { offsetInCU: 0x42DA9, offset: 0x2E91D4, size: 0x8, addend: 0x0, symName: '__ZN65_$LT$alloc..vec..Vec$LT$T$C$A$GT$$u20$as$u20$core..fmt..Debug$GT$3fmt17h29fd71edc015e22fE', symObjAddr: 0xE500, symBinAddr: 0x9C6B0, symSize: 0x80 }
  - { offsetInCU: 0x42F8A, offset: 0x2E93B5, size: 0x8, addend: 0x0, symName: '__ZN65_$LT$alloc..vec..Vec$LT$T$C$A$GT$$u20$as$u20$core..fmt..Debug$GT$3fmt17h3e19e46c95090761E', symObjAddr: 0xE580, symBinAddr: 0x9C730, symSize: 0x80 }
  - { offsetInCU: 0x43160, offset: 0x2E958B, size: 0x8, addend: 0x0, symName: '__ZN65_$LT$alloc..vec..Vec$LT$T$C$A$GT$$u20$as$u20$core..fmt..Debug$GT$3fmt17h444eeada187fb76eE', symObjAddr: 0xE600, symBinAddr: 0x9C7B0, symSize: 0x80 }
  - { offsetInCU: 0x43341, offset: 0x2E976C, size: 0x8, addend: 0x0, symName: '__ZN65_$LT$alloc..vec..Vec$LT$T$C$A$GT$$u20$as$u20$core..fmt..Debug$GT$3fmt17h5083d5b963422e0cE', symObjAddr: 0xE680, symBinAddr: 0x9C830, symSize: 0x80 }
  - { offsetInCU: 0x43522, offset: 0x2E994D, size: 0x8, addend: 0x0, symName: '__ZN65_$LT$alloc..vec..Vec$LT$T$C$A$GT$$u20$as$u20$core..fmt..Debug$GT$3fmt17h98e4ed78ba879962E', symObjAddr: 0xE700, symBinAddr: 0x9C8B0, symSize: 0x80 }
  - { offsetInCU: 0x43703, offset: 0x2E9B2E, size: 0x8, addend: 0x0, symName: '__ZN65_$LT$alloc..vec..Vec$LT$T$C$A$GT$$u20$as$u20$core..fmt..Debug$GT$3fmt17ha8b4ac5609288181E', symObjAddr: 0xE780, symBinAddr: 0x9C930, symSize: 0x80 }
  - { offsetInCU: 0x43D8E, offset: 0x2EA1B9, size: 0x8, addend: 0x0, symName: '__ZN70_$LT$alloc..vec..Vec$LT$T$C$A$GT$$u20$as$u20$core..ops..drop..Drop$GT$4drop17ha1c46ee356be7175E', symObjAddr: 0x12530, symBinAddr: 0x9FBB0, symSize: 0x80 }
  - { offsetInCU: 0x43E18, offset: 0x2EA243, size: 0x8, addend: 0x0, symName: '__ZN70_$LT$alloc..vec..Vec$LT$T$C$A$GT$$u20$as$u20$core..ops..drop..Drop$GT$4drop17haac0f2ead37a83a5E', symObjAddr: 0x125B0, symBinAddr: 0x9FC30, symSize: 0xB0 }
  - { offsetInCU: 0x43E7A, offset: 0x2EA2A5, size: 0x8, addend: 0x0, symName: '__ZN70_$LT$alloc..vec..Vec$LT$T$C$A$GT$$u20$as$u20$core..ops..drop..Drop$GT$4drop17hb96511c1410270f4E', symObjAddr: 0x12780, symBinAddr: 0x9FCE0, symSize: 0xB0 }
  - { offsetInCU: 0x43FF6, offset: 0x2EA421, size: 0x8, addend: 0x0, symName: '__ZN70_$LT$alloc..vec..Vec$LT$T$C$A$GT$$u20$as$u20$core..ops..drop..Drop$GT$4drop17hd1322190145f035dE', symObjAddr: 0x12930, symBinAddr: 0x9FD90, symSize: 0x90 }
  - { offsetInCU: 0x440FC, offset: 0x2EA527, size: 0x8, addend: 0x0, symName: '__ZN70_$LT$alloc..vec..Vec$LT$T$C$A$GT$$u20$as$u20$core..ops..drop..Drop$GT$4drop17hfddea9c8473ad6f6E', symObjAddr: 0x12C30, symBinAddr: 0x9FE20, symSize: 0x80 }
  - { offsetInCU: 0x442A7, offset: 0x2EA6D2, size: 0x8, addend: 0x0, symName: '__ZN67_$LT$alloc..vec..Vec$LT$T$C$A$GT$$u20$as$u20$core..clone..Clone$GT$5clone17h05b7397ccb30c76cE', symObjAddr: 0xE970, symBinAddr: 0x9C9B0, symSize: 0x1A0 }
  - { offsetInCU: 0x447D9, offset: 0x2EAC04, size: 0x8, addend: 0x0, symName: '__ZN67_$LT$alloc..vec..Vec$LT$T$C$A$GT$$u20$as$u20$core..clone..Clone$GT$5clone17h1811a554b8ce3b81E', symObjAddr: 0xEB10, symBinAddr: 0x9CB50, symSize: 0x160 }
  - { offsetInCU: 0x44D06, offset: 0x2EB131, size: 0x8, addend: 0x0, symName: '__ZN67_$LT$alloc..vec..Vec$LT$T$C$A$GT$$u20$as$u20$core..clone..Clone$GT$5clone17h1da16863059762f6E', symObjAddr: 0xEC70, symBinAddr: 0x9CCB0, symSize: 0x1A0 }
  - { offsetInCU: 0x452AD, offset: 0x2EB6D8, size: 0x8, addend: 0x0, symName: '__ZN67_$LT$alloc..vec..Vec$LT$T$C$A$GT$$u20$as$u20$core..clone..Clone$GT$5clone17h200e40873706a1b4E', symObjAddr: 0xEE10, symBinAddr: 0x9CE50, symSize: 0x1B0 }
  - { offsetInCU: 0x45888, offset: 0x2EBCB3, size: 0x8, addend: 0x0, symName: '__ZN67_$LT$alloc..vec..Vec$LT$T$C$A$GT$$u20$as$u20$core..clone..Clone$GT$5clone17h24997e572bc498a7E', symObjAddr: 0xEFC0, symBinAddr: 0x9D000, symSize: 0x390 }
  - { offsetInCU: 0x4645F, offset: 0x2EC88A, size: 0x8, addend: 0x0, symName: '__ZN67_$LT$alloc..vec..Vec$LT$T$C$A$GT$$u20$as$u20$core..clone..Clone$GT$5clone17h25ea0f3dfced4ea5E', symObjAddr: 0xF350, symBinAddr: 0x9D390, symSize: 0x160 }
  - { offsetInCU: 0x4698C, offset: 0x2ECDB7, size: 0x8, addend: 0x0, symName: '__ZN67_$LT$alloc..vec..Vec$LT$T$C$A$GT$$u20$as$u20$core..clone..Clone$GT$5clone17h27f26317d0097928E', symObjAddr: 0xF4B0, symBinAddr: 0x9D4F0, symSize: 0x1B0 }
  - { offsetInCU: 0x46F67, offset: 0x2ED392, size: 0x8, addend: 0x0, symName: '__ZN67_$LT$alloc..vec..Vec$LT$T$C$A$GT$$u20$as$u20$core..clone..Clone$GT$5clone17h3929068158b0acf4E', symObjAddr: 0xF800, symBinAddr: 0x9D6A0, symSize: 0x1A0 }
  - { offsetInCU: 0x47542, offset: 0x2ED96D, size: 0x8, addend: 0x0, symName: '__ZN67_$LT$alloc..vec..Vec$LT$T$C$A$GT$$u20$as$u20$core..clone..Clone$GT$5clone17h50b260221468ddc9E', symObjAddr: 0xF9A0, symBinAddr: 0x9D840, symSize: 0x1A0 }
  - { offsetInCU: 0x47A74, offset: 0x2EDE9F, size: 0x8, addend: 0x0, symName: '__ZN67_$LT$alloc..vec..Vec$LT$T$C$A$GT$$u20$as$u20$core..clone..Clone$GT$5clone17h5b4a01bd5f94dc2bE', symObjAddr: 0xFB40, symBinAddr: 0x9D9E0, symSize: 0x160 }
  - { offsetInCU: 0x47FA1, offset: 0x2EE3CC, size: 0x8, addend: 0x0, symName: '__ZN67_$LT$alloc..vec..Vec$LT$T$C$A$GT$$u20$as$u20$core..clone..Clone$GT$5clone17h6690eaf6cf776e41E', symObjAddr: 0xFCA0, symBinAddr: 0x9DB40, symSize: 0x190 }
  - { offsetInCU: 0x4857C, offset: 0x2EE9A7, size: 0x8, addend: 0x0, symName: '__ZN67_$LT$alloc..vec..Vec$LT$T$C$A$GT$$u20$as$u20$core..clone..Clone$GT$5clone17h6e9705d9f6228ac2E', symObjAddr: 0xFE30, symBinAddr: 0x9DCD0, symSize: 0x1A0 }
  - { offsetInCU: 0x48C13, offset: 0x2EF03E, size: 0x8, addend: 0x0, symName: '__ZN67_$LT$alloc..vec..Vec$LT$T$C$A$GT$$u20$as$u20$core..clone..Clone$GT$5clone17h79b62d4fb82adf91E', symObjAddr: 0xFFD0, symBinAddr: 0x9DE70, symSize: 0x1A0 }
  - { offsetInCU: 0x491EE, offset: 0x2EF619, size: 0x8, addend: 0x0, symName: '__ZN67_$LT$alloc..vec..Vec$LT$T$C$A$GT$$u20$as$u20$core..clone..Clone$GT$5clone17h817f6cb8c675423bE', symObjAddr: 0x10170, symBinAddr: 0x9E010, symSize: 0x1B0 }
  - { offsetInCU: 0x497C9, offset: 0x2EFBF4, size: 0x8, addend: 0x0, symName: '__ZN67_$LT$alloc..vec..Vec$LT$T$C$A$GT$$u20$as$u20$core..clone..Clone$GT$5clone17h89b01632558f666bE', symObjAddr: 0x10320, symBinAddr: 0x9E1C0, symSize: 0x190 }
  - { offsetInCU: 0x49D6F, offset: 0x2F019A, size: 0x8, addend: 0x0, symName: '__ZN67_$LT$alloc..vec..Vec$LT$T$C$A$GT$$u20$as$u20$core..clone..Clone$GT$5clone17ha19e75129ceeddc0E', symObjAddr: 0x104B0, symBinAddr: 0x9E350, symSize: 0x3C0 }
  - { offsetInCU: 0x4A5E5, offset: 0x2F0A10, size: 0x8, addend: 0x0, symName: '__ZN67_$LT$alloc..vec..Vec$LT$T$C$A$GT$$u20$as$u20$core..clone..Clone$GT$5clone17ha225f10e71280eb0E', symObjAddr: 0x10870, symBinAddr: 0x9E710, symSize: 0x300 }
  - { offsetInCU: 0x4AC00, offset: 0x2F102B, size: 0x8, addend: 0x0, symName: '__ZN67_$LT$alloc..vec..Vec$LT$T$C$A$GT$$u20$as$u20$core..clone..Clone$GT$5clone17had2181b83b268436E', symObjAddr: 0x10B70, symBinAddr: 0x9EA10, symSize: 0x1B0 }
  - { offsetInCU: 0x4B1A7, offset: 0x2F15D2, size: 0x8, addend: 0x0, symName: '__ZN67_$LT$alloc..vec..Vec$LT$T$C$A$GT$$u20$as$u20$core..clone..Clone$GT$5clone17hafb9d5c811cb80c1E', symObjAddr: 0x10D20, symBinAddr: 0x9EBC0, symSize: 0x1B0 }
  - { offsetInCU: 0x4B782, offset: 0x2F1BAD, size: 0x8, addend: 0x0, symName: '__ZN67_$LT$alloc..vec..Vec$LT$T$C$A$GT$$u20$as$u20$core..clone..Clone$GT$5clone17hb28dcdca734aa781E', symObjAddr: 0x10ED0, symBinAddr: 0x9ED70, symSize: 0x2A0 }
  - { offsetInCU: 0x4BDB6, offset: 0x2F21E1, size: 0x8, addend: 0x0, symName: '__ZN67_$LT$alloc..vec..Vec$LT$T$C$A$GT$$u20$as$u20$core..clone..Clone$GT$5clone17hc247a405aa44e689E', symObjAddr: 0x11170, symBinAddr: 0x9F010, symSize: 0x210 }
  - { offsetInCU: 0x4C400, offset: 0x2F282B, size: 0x8, addend: 0x0, symName: '__ZN67_$LT$alloc..vec..Vec$LT$T$C$A$GT$$u20$as$u20$core..clone..Clone$GT$5clone17hc4988e4008115670E', symObjAddr: 0x11380, symBinAddr: 0x9F220, symSize: 0x2B0 }
  - { offsetInCU: 0x4CAC2, offset: 0x2F2EED, size: 0x8, addend: 0x0, symName: '__ZN67_$LT$alloc..vec..Vec$LT$T$C$A$GT$$u20$as$u20$core..clone..Clone$GT$5clone17hc62fb47f99e4a4d9E', symObjAddr: 0x11630, symBinAddr: 0x9F4D0, symSize: 0x1A0 }
  - { offsetInCU: 0x4D09D, offset: 0x2F34C8, size: 0x8, addend: 0x0, symName: '__ZN67_$LT$alloc..vec..Vec$LT$T$C$A$GT$$u20$as$u20$core..clone..Clone$GT$5clone17hccc28fd2b23933f8E', symObjAddr: 0x117D0, symBinAddr: 0x9F670, symSize: 0x250 }
  - { offsetInCU: 0x4D88D, offset: 0x2F3CB8, size: 0x8, addend: 0x0, symName: '__ZN67_$LT$alloc..vec..Vec$LT$T$C$A$GT$$u20$as$u20$core..clone..Clone$GT$5clone17hf447c6066f04db4fE', symObjAddr: 0x11A20, symBinAddr: 0x9F8C0, symSize: 0x160 }
  - { offsetInCU: 0x4DDBA, offset: 0x2F41E5, size: 0x8, addend: 0x0, symName: '__ZN67_$LT$alloc..vec..Vec$LT$T$C$A$GT$$u20$as$u20$core..clone..Clone$GT$5clone17hffcb5f1b40cb5e9bE', symObjAddr: 0x11B80, symBinAddr: 0x9FA20, symSize: 0x190 }
  - { offsetInCU: 0x4E504, offset: 0x2F492F, size: 0x8, addend: 0x0, symName: '__ZN98_$LT$alloc..vec..Vec$LT$T$GT$$u20$as$u20$alloc..vec..spec_from_iter..SpecFromIter$LT$T$C$I$GT$$GT$9from_iter17hc70425eaae9ff5fdE', symObjAddr: 0x13880, symBinAddr: 0xA0610, symSize: 0x3A0 }
  - { offsetInCU: 0x5A526, offset: 0x300951, size: 0x8, addend: 0x0, symName: '__ZN5alloc3vec16Vec$LT$T$C$A$GT$16into_boxed_slice17h024a9e1f6dd0eb78E', symObjAddr: 0xE190, symBinAddr: 0x9C5A0, symSize: 0x90 }
  - { offsetInCU: 0x1E, offset: 0x30B82A, size: 0x8, addend: 0x0, symName: __ZN5alloc7raw_vec11finish_grow17h835635d1269408a0E.llvm.6325988268937029972, symObjAddr: 0x0, symBinAddr: 0xA09B0, symSize: 0xA0 }
  - { offsetInCU: 0x67A3, offset: 0x311FAF, size: 0x8, addend: 0x0, symName: __ZN5alloc7raw_vec11finish_grow17h835635d1269408a0E.llvm.6325988268937029972, symObjAddr: 0x0, symBinAddr: 0xA09B0, symSize: 0xA0 }
  - { offsetInCU: 0x8759, offset: 0x313F65, size: 0x8, addend: 0x0, symName: '__ZN5alloc7raw_vec19RawVec$LT$T$C$A$GT$7reserve21do_reserve_and_handle17h13c018c554f6abd0E', symObjAddr: 0x1FD0, symBinAddr: 0x204BE0, symSize: 0xC0 }
  - { offsetInCU: 0x8AAB, offset: 0x3142B7, size: 0x8, addend: 0x0, symName: '__ZN5alloc7raw_vec19RawVec$LT$T$C$A$GT$7reserve21do_reserve_and_handle17h214494add848a148E', symObjAddr: 0x2090, symBinAddr: 0x204CA0, symSize: 0xC0 }
  - { offsetInCU: 0x8DFE, offset: 0x31460A, size: 0x8, addend: 0x0, symName: '__ZN5alloc7raw_vec19RawVec$LT$T$C$A$GT$7reserve21do_reserve_and_handle17h40bab3f670f64c67E', symObjAddr: 0x2150, symBinAddr: 0x204D60, symSize: 0xC0 }
  - { offsetInCU: 0x9150, offset: 0x31495C, size: 0x8, addend: 0x0, symName: '__ZN5alloc7raw_vec19RawVec$LT$T$C$A$GT$7reserve21do_reserve_and_handle17h797428fa4f38120aE', symObjAddr: 0x23B0, symBinAddr: 0x204E20, symSize: 0xC0 }
  - { offsetInCU: 0x94A2, offset: 0x314CAE, size: 0x8, addend: 0x0, symName: '__ZN5alloc7raw_vec19RawVec$LT$T$C$A$GT$7reserve21do_reserve_and_handle17hd888e23e4c2bd144E', symObjAddr: 0x2470, symBinAddr: 0x204EE0, symSize: 0xB0 }
  - { offsetInCU: 0x97E1, offset: 0x314FED, size: 0x8, addend: 0x0, symName: '__ZN77_$LT$alloc..raw_vec..RawVec$LT$T$C$A$GT$$u20$as$u20$core..ops..drop..Drop$GT$4drop17h0fe8dc95aa9e13e8E', symObjAddr: 0x2520, symBinAddr: 0xA1CF0, symSize: 0x30 }
  - { offsetInCU: 0x98DE, offset: 0x3150EA, size: 0x8, addend: 0x0, symName: '__ZN77_$LT$alloc..raw_vec..RawVec$LT$T$C$A$GT$$u20$as$u20$core..ops..drop..Drop$GT$4drop17h393fcfb678582e44E', symObjAddr: 0x25E0, symBinAddr: 0xA1D20, symSize: 0x30 }
  - { offsetInCU: 0x99DB, offset: 0x3151E7, size: 0x8, addend: 0x0, symName: '__ZN77_$LT$alloc..raw_vec..RawVec$LT$T$C$A$GT$$u20$as$u20$core..ops..drop..Drop$GT$4drop17h39c2380cb3828205E', symObjAddr: 0x2610, symBinAddr: 0xA1D50, symSize: 0x30 }
  - { offsetInCU: 0x9AD8, offset: 0x3152E4, size: 0x8, addend: 0x0, symName: '__ZN77_$LT$alloc..raw_vec..RawVec$LT$T$C$A$GT$$u20$as$u20$core..ops..drop..Drop$GT$4drop17h3db54f5eb403cd2eE', symObjAddr: 0x2640, symBinAddr: 0xA1D80, symSize: 0x0 }
  - { offsetInCU: 0x9BD5, offset: 0x3153E1, size: 0x8, addend: 0x0, symName: '__ZN77_$LT$alloc..raw_vec..RawVec$LT$T$C$A$GT$$u20$as$u20$core..ops..drop..Drop$GT$4drop17h48c1e075635f269fE', symObjAddr: 0x2690, symBinAddr: 0xA1DB0, symSize: 0x30 }
  - { offsetInCU: 0x9CD2, offset: 0x3154DE, size: 0x8, addend: 0x0, symName: '__ZN77_$LT$alloc..raw_vec..RawVec$LT$T$C$A$GT$$u20$as$u20$core..ops..drop..Drop$GT$4drop17h4eece3816eced073E', symObjAddr: 0x26C0, symBinAddr: 0xA1DE0, symSize: 0x30 }
  - { offsetInCU: 0x9DCF, offset: 0x3155DB, size: 0x8, addend: 0x0, symName: '__ZN77_$LT$alloc..raw_vec..RawVec$LT$T$C$A$GT$$u20$as$u20$core..ops..drop..Drop$GT$4drop17h6c6fd9c116ad0c74E', symObjAddr: 0x2720, symBinAddr: 0xA1E10, symSize: 0x0 }
  - { offsetInCU: 0x9ECC, offset: 0x3156D8, size: 0x8, addend: 0x0, symName: '__ZN77_$LT$alloc..raw_vec..RawVec$LT$T$C$A$GT$$u20$as$u20$core..ops..drop..Drop$GT$4drop17h72ca814e81ad633aE', symObjAddr: 0x2750, symBinAddr: 0xA1E40, symSize: 0x0 }
  - { offsetInCU: 0x9FC9, offset: 0x3157D5, size: 0x8, addend: 0x0, symName: '__ZN77_$LT$alloc..raw_vec..RawVec$LT$T$C$A$GT$$u20$as$u20$core..ops..drop..Drop$GT$4drop17h72defe2c2e2b0835E', symObjAddr: 0x2780, symBinAddr: 0xA1E70, symSize: 0x0 }
  - { offsetInCU: 0xA0C6, offset: 0x3158D2, size: 0x8, addend: 0x0, symName: '__ZN77_$LT$alloc..raw_vec..RawVec$LT$T$C$A$GT$$u20$as$u20$core..ops..drop..Drop$GT$4drop17h92edcac5527d29cdE', symObjAddr: 0x27E0, symBinAddr: 0xA1EA0, symSize: 0x0 }
  - { offsetInCU: 0xA1C3, offset: 0x3159CF, size: 0x8, addend: 0x0, symName: '__ZN77_$LT$alloc..raw_vec..RawVec$LT$T$C$A$GT$$u20$as$u20$core..ops..drop..Drop$GT$4drop17ha8195f03b235e910E', symObjAddr: 0x2810, symBinAddr: 0xA1ED0, symSize: 0x0 }
  - { offsetInCU: 0xA2C0, offset: 0x315ACC, size: 0x8, addend: 0x0, symName: '__ZN77_$LT$alloc..raw_vec..RawVec$LT$T$C$A$GT$$u20$as$u20$core..ops..drop..Drop$GT$4drop17hae00cf31628a68d6E', symObjAddr: 0x2840, symBinAddr: 0xA1F00, symSize: 0x30 }
  - { offsetInCU: 0xA3BD, offset: 0x315BC9, size: 0x8, addend: 0x0, symName: '__ZN77_$LT$alloc..raw_vec..RawVec$LT$T$C$A$GT$$u20$as$u20$core..ops..drop..Drop$GT$4drop17hb7ab512d33fb2a25E', symObjAddr: 0x2870, symBinAddr: 0xA1F30, symSize: 0x30 }
  - { offsetInCU: 0xA4BA, offset: 0x315CC6, size: 0x8, addend: 0x0, symName: '__ZN77_$LT$alloc..raw_vec..RawVec$LT$T$C$A$GT$$u20$as$u20$core..ops..drop..Drop$GT$4drop17hba0320ec2f949a38E', symObjAddr: 0x28A0, symBinAddr: 0xA1F60, symSize: 0x0 }
  - { offsetInCU: 0xA5B7, offset: 0x315DC3, size: 0x8, addend: 0x0, symName: '__ZN77_$LT$alloc..raw_vec..RawVec$LT$T$C$A$GT$$u20$as$u20$core..ops..drop..Drop$GT$4drop17hd01e85aba88beac8E', symObjAddr: 0x28D0, symBinAddr: 0xA1F90, symSize: 0x30 }
  - { offsetInCU: 0xA6B4, offset: 0x315EC0, size: 0x8, addend: 0x0, symName: '__ZN77_$LT$alloc..raw_vec..RawVec$LT$T$C$A$GT$$u20$as$u20$core..ops..drop..Drop$GT$4drop17hed57f1d93ce81e98E', symObjAddr: 0x2960, symBinAddr: 0xA1FC0, symSize: 0x30 }
  - { offsetInCU: 0xA7B1, offset: 0x315FBD, size: 0x8, addend: 0x0, symName: '__ZN77_$LT$alloc..raw_vec..RawVec$LT$T$C$A$GT$$u20$as$u20$core..ops..drop..Drop$GT$4drop17hf063a1d3cd3b3215E', symObjAddr: 0x2990, symBinAddr: 0xA1FF0, symSize: 0x30 }
  - { offsetInCU: 0xA8AE, offset: 0x3160BA, size: 0x8, addend: 0x0, symName: '__ZN77_$LT$alloc..raw_vec..RawVec$LT$T$C$A$GT$$u20$as$u20$core..ops..drop..Drop$GT$4drop17hf87d3254f6191322E', symObjAddr: 0x29C0, symBinAddr: 0xA2020, symSize: 0x25 }
  - { offsetInCU: 0x1008D, offset: 0x31B899, size: 0x8, addend: 0x0, symName: '__ZN5alloc7raw_vec19RawVec$LT$T$C$A$GT$11allocate_in17hb51eef22739192aaE', symObjAddr: 0x870, symBinAddr: 0xA0A50, symSize: 0x70 }
  - { offsetInCU: 0x10422, offset: 0x31BC2E, size: 0x8, addend: 0x0, symName: '__ZN5alloc7raw_vec19RawVec$LT$T$C$A$GT$16reserve_for_push17h18e1051c99d90182E', symObjAddr: 0xBF0, symBinAddr: 0xA0AC0, symSize: 0xD0 }
  - { offsetInCU: 0x108E7, offset: 0x31C0F3, size: 0x8, addend: 0x0, symName: '__ZN5alloc7raw_vec19RawVec$LT$T$C$A$GT$16reserve_for_push17h1d32b4f94470160eE', symObjAddr: 0xCC0, symBinAddr: 0xA0B90, symSize: 0x0 }
  - { offsetInCU: 0x10DAB, offset: 0x31C5B7, size: 0x8, addend: 0x0, symName: '__ZN5alloc7raw_vec19RawVec$LT$T$C$A$GT$16reserve_for_push17h245cfb4a8257421aE', symObjAddr: 0xD80, symBinAddr: 0xA0C50, symSize: 0xD0 }
  - { offsetInCU: 0x11270, offset: 0x31CA7C, size: 0x8, addend: 0x0, symName: '__ZN5alloc7raw_vec19RawVec$LT$T$C$A$GT$16reserve_for_push17h296e58e879ed95bbE', symObjAddr: 0xE50, symBinAddr: 0xA0D20, symSize: 0xD0 }
  - { offsetInCU: 0x11735, offset: 0x31CF41, size: 0x8, addend: 0x0, symName: '__ZN5alloc7raw_vec19RawVec$LT$T$C$A$GT$16reserve_for_push17h2c8e6b8c8c6e5170E', symObjAddr: 0xF20, symBinAddr: 0xA0DF0, symSize: 0xD0 }
  - { offsetInCU: 0x11BFA, offset: 0x31D406, size: 0x8, addend: 0x0, symName: '__ZN5alloc7raw_vec19RawVec$LT$T$C$A$GT$16reserve_for_push17h39c2ec84e943635aE', symObjAddr: 0xFF0, symBinAddr: 0xA0EC0, symSize: 0xD0 }
  - { offsetInCU: 0x120D3, offset: 0x31D8DF, size: 0x8, addend: 0x0, symName: '__ZN5alloc7raw_vec19RawVec$LT$T$C$A$GT$16reserve_for_push17h41d82450e00eae77E', symObjAddr: 0x10C0, symBinAddr: 0xA0F90, symSize: 0x0 }
  - { offsetInCU: 0x12597, offset: 0x31DDA3, size: 0x8, addend: 0x0, symName: '__ZN5alloc7raw_vec19RawVec$LT$T$C$A$GT$16reserve_for_push17h4241d3651c582227E', symObjAddr: 0x1180, symBinAddr: 0xA1050, symSize: 0x0 }
  - { offsetInCU: 0x12A5C, offset: 0x31E268, size: 0x8, addend: 0x0, symName: '__ZN5alloc7raw_vec19RawVec$LT$T$C$A$GT$16reserve_for_push17h46a23222a4b20700E', symObjAddr: 0x1250, symBinAddr: 0xA1120, symSize: 0x0 }
  - { offsetInCU: 0x12F21, offset: 0x31E72D, size: 0x8, addend: 0x0, symName: '__ZN5alloc7raw_vec19RawVec$LT$T$C$A$GT$16reserve_for_push17h52de2e841bbd4653E', symObjAddr: 0x1320, symBinAddr: 0xA11F0, symSize: 0xD0 }
  - { offsetInCU: 0x133E6, offset: 0x31EBF2, size: 0x8, addend: 0x0, symName: '__ZN5alloc7raw_vec19RawVec$LT$T$C$A$GT$16reserve_for_push17h5435f1226628b70cE', symObjAddr: 0x13F0, symBinAddr: 0xA12C0, symSize: 0xD0 }
  - { offsetInCU: 0x138AB, offset: 0x31F0B7, size: 0x8, addend: 0x0, symName: '__ZN5alloc7raw_vec19RawVec$LT$T$C$A$GT$16reserve_for_push17h71935351b86bec57E', symObjAddr: 0x14C0, symBinAddr: 0xA1390, symSize: 0xB0 }
  - { offsetInCU: 0x13D6F, offset: 0x31F57B, size: 0x8, addend: 0x0, symName: '__ZN5alloc7raw_vec19RawVec$LT$T$C$A$GT$16reserve_for_push17h770742f0033a3542E', symObjAddr: 0x1570, symBinAddr: 0xA1440, symSize: 0xC0 }
  - { offsetInCU: 0x14233, offset: 0x31FA3F, size: 0x8, addend: 0x0, symName: '__ZN5alloc7raw_vec19RawVec$LT$T$C$A$GT$16reserve_for_push17h86f692456b543eb7E', symObjAddr: 0x1630, symBinAddr: 0xA1500, symSize: 0xC0 }
  - { offsetInCU: 0x146F8, offset: 0x31FF04, size: 0x8, addend: 0x0, symName: '__ZN5alloc7raw_vec19RawVec$LT$T$C$A$GT$16reserve_for_push17h878804b307f94982E', symObjAddr: 0x16F0, symBinAddr: 0xA15C0, symSize: 0xC0 }
  - { offsetInCU: 0x14BBD, offset: 0x3203C9, size: 0x8, addend: 0x0, symName: '__ZN5alloc7raw_vec19RawVec$LT$T$C$A$GT$16reserve_for_push17h889a33689b0264dfE', symObjAddr: 0x17B0, symBinAddr: 0xA1680, symSize: 0xD0 }
  - { offsetInCU: 0x150AC, offset: 0x3208B8, size: 0x8, addend: 0x0, symName: '__ZN5alloc7raw_vec19RawVec$LT$T$C$A$GT$16reserve_for_push17h8eafba0cab3c2dcdE', symObjAddr: 0x1880, symBinAddr: 0xA1750, symSize: 0xC0 }
  - { offsetInCU: 0x15570, offset: 0x320D7C, size: 0x8, addend: 0x0, symName: '__ZN5alloc7raw_vec19RawVec$LT$T$C$A$GT$16reserve_for_push17h98c6de81c43255e3E', symObjAddr: 0x1940, symBinAddr: 0xA1810, symSize: 0x0 }
  - { offsetInCU: 0x15A35, offset: 0x321241, size: 0x8, addend: 0x0, symName: '__ZN5alloc7raw_vec19RawVec$LT$T$C$A$GT$16reserve_for_push17ha7ffa53757f2c194E', symObjAddr: 0x1A10, symBinAddr: 0xA18E0, symSize: 0xD0 }
  - { offsetInCU: 0x15EFA, offset: 0x321706, size: 0x8, addend: 0x0, symName: '__ZN5alloc7raw_vec19RawVec$LT$T$C$A$GT$16reserve_for_push17hbe43935ff1be244bE', symObjAddr: 0x1AE0, symBinAddr: 0xA19B0, symSize: 0x0 }
  - { offsetInCU: 0x163BE, offset: 0x321BCA, size: 0x8, addend: 0x0, symName: '__ZN5alloc7raw_vec19RawVec$LT$T$C$A$GT$16reserve_for_push17hcca166daf631fbe0E', symObjAddr: 0x1BB0, symBinAddr: 0xA1A80, symSize: 0xD0 }
  - { offsetInCU: 0x16890, offset: 0x32209C, size: 0x8, addend: 0x0, symName: '__ZN5alloc7raw_vec19RawVec$LT$T$C$A$GT$16reserve_for_push17hd979c897ae7ef7edE', symObjAddr: 0x1C80, symBinAddr: 0xA1B50, symSize: 0xD0 }
  - { offsetInCU: 0x16D54, offset: 0x322560, size: 0x8, addend: 0x0, symName: '__ZN5alloc7raw_vec19RawVec$LT$T$C$A$GT$16reserve_for_push17he5e22af04e3866afE', symObjAddr: 0x1D50, symBinAddr: 0xA1C20, symSize: 0xD0 }
  - { offsetInCU: 0x1E, offset: 0x322D85, size: 0x8, addend: 0x0, symName: '__ZN4core3ptr100drop_in_place$LT$core..option..Option$LT$alloc..boxed..Box$LT$syn..path..GenericArgument$GT$$GT$$GT$17h7435c9de74860622E', symObjAddr: 0x0, symBinAddr: 0xA2050, symSize: 0x50 }
  - { offsetInCU: 0xB0, offset: 0x322E17, size: 0x8, addend: 0x0, symName: '__ZN58_$LT$alloc..string..String$u20$as$u20$core..fmt..Write$GT$10write_char17hd329c0cb943f081aE', symObjAddr: 0x6FF0, symBinAddr: 0xA9040, symSize: 0x130 }
  - { offsetInCU: 0x457, offset: 0x3231BE, size: 0x8, addend: 0x0, symName: '__ZN58_$LT$alloc..string..String$u20$as$u20$core..fmt..Write$GT$9write_str17h1ff5aa96ca91c6d5E', symObjAddr: 0x7120, symBinAddr: 0xA9170, symSize: 0x60 }
  - { offsetInCU: 0x3433, offset: 0x32619A, size: 0x8, addend: 0x0, symName: '__ZN4core3ptr100drop_in_place$LT$core..option..Option$LT$alloc..boxed..Box$LT$syn..path..GenericArgument$GT$$GT$$GT$17h7435c9de74860622E', symObjAddr: 0x0, symBinAddr: 0xA2050, symSize: 0x50 }
  - { offsetInCU: 0x3602, offset: 0x326369, size: 0x8, addend: 0x0, symName: '__ZN4core3ptr102drop_in_place$LT$syn..punctuated..Punctuated$LT$syn..path..GenericArgument$C$syn..token..Comma$GT$$GT$17h39496ba4e6dba6cfE', symObjAddr: 0x50, symBinAddr: 0xA20A0, symSize: 0xF0 }
  - { offsetInCU: 0x38EB, offset: 0x326652, size: 0x8, addend: 0x0, symName: '__ZN4core3ptr103drop_in_place$LT$core..option..Option$LT$alloc..boxed..Box$LT$syn..generics..TypeParamBound$GT$$GT$$GT$17h5974f03e36b1a9c3E', symObjAddr: 0x140, symBinAddr: 0xA2190, symSize: 0x50 }
  - { offsetInCU: 0x3AF8, offset: 0x32685F, size: 0x8, addend: 0x0, symName: '__ZN4core3ptr103drop_in_place$LT$syn..punctuated..Punctuated$LT$syn..generics..GenericParam$C$syn..token..Comma$GT$$GT$17hf42353fa44ed6da8E', symObjAddr: 0x190, symBinAddr: 0xA21E0, symSize: 0xF0 }
  - { offsetInCU: 0x4094, offset: 0x326DFB, size: 0x8, addend: 0x0, symName: '__ZN4core3ptr104drop_in_place$LT$syn..punctuated..Punctuated$LT$syn..generics..TypeParamBound$C$syn..token..Plus$GT$$GT$17h532f52c4a894b056E', symObjAddr: 0x280, symBinAddr: 0xA22D0, symSize: 0x230 }
  - { offsetInCU: 0x4972, offset: 0x3276D9, size: 0x8, addend: 0x0, symName: '__ZN4core3ptr34drop_in_place$LT$syn..lit..Lit$GT$17h8902f5ff67917034E', symObjAddr: 0x4B0, symBinAddr: 0xA2500, symSize: 0x110 }
  - { offsetInCU: 0x4ECB, offset: 0x327C32, size: 0x8, addend: 0x0, symName: '__ZN4core3ptr34drop_in_place$LT$syn..pat..Pat$GT$17h4581eea028ec0969E', symObjAddr: 0x5C0, symBinAddr: 0xA2610, symSize: 0xEE0 }
  - { offsetInCU: 0x851A, offset: 0x32B281, size: 0x8, addend: 0x0, symName: '__ZN4core3ptr34drop_in_place$LT$syn..ty..Type$GT$17h369e41ad4a9f1ae0E', symObjAddr: 0x14A0, symBinAddr: 0xA34F0, symSize: 0x5C0 }
  - { offsetInCU: 0x9D50, offset: 0x32CAB7, size: 0x8, addend: 0x0, symName: '__ZN4core3ptr36drop_in_place$LT$syn..expr..Expr$GT$17h0f7fd4c749bae801E.llvm.6085117338949153622', symObjAddr: 0x1A60, symBinAddr: 0xA3AB0, symSize: 0x2800 }
  - { offsetInCU: 0x12F2D, offset: 0x335C94, size: 0x8, addend: 0x0, symName: '__ZN4core3ptr36drop_in_place$LT$syn..mac..Macro$GT$17h4ffde962df30ebe2E', symObjAddr: 0x4260, symBinAddr: 0xA62B0, symSize: 0xE0 }
  - { offsetInCU: 0x1329E, offset: 0x336005, size: 0x8, addend: 0x0, symName: '__ZN4core3ptr36drop_in_place$LT$syn..path..Path$GT$17habea856181211e1cE', symObjAddr: 0x4340, symBinAddr: 0xA6390, symSize: 0x220 }
  - { offsetInCU: 0x13BD3, offset: 0x33693A, size: 0x8, addend: 0x0, symName: '__ZN4core3ptr37drop_in_place$LT$core..fmt..Error$GT$17h8e130a2736288a98E', symObjAddr: 0x4560, symBinAddr: 0xA65B0, symSize: 0x10 }
  - { offsetInCU: 0x13BFF, offset: 0x336966, size: 0x8, addend: 0x0, symName: '__ZN4core3ptr37drop_in_place$LT$syn..stmt..Block$GT$17hcc21a21cf949414cE', symObjAddr: 0x4570, symBinAddr: 0xA65C0, symSize: 0xD0 }
  - { offsetInCU: 0x13EA3, offset: 0x336C0A, size: 0x8, addend: 0x0, symName: '__ZN4core3ptr38drop_in_place$LT$syn..expr..Member$GT$17h022cbe5553aa40faE', symObjAddr: 0x4640, symBinAddr: 0xA6690, symSize: 0x30 }
  - { offsetInCU: 0x1403B, offset: 0x336DA2, size: 0x8, addend: 0x0, symName: '__ZN4core3ptr38drop_in_place$LT$syn..group..Group$GT$17hc3a29a397b30f633E', symObjAddr: 0x4670, symBinAddr: 0xA66C0, symSize: 0x70 }
  - { offsetInCU: 0x14351, offset: 0x3370B8, size: 0x8, addend: 0x0, symName: '__ZN4core3ptr39drop_in_place$LT$proc_macro2..Ident$GT$17h8101e88c3ac359d6E', symObjAddr: 0x46E0, symBinAddr: 0xA6730, symSize: 0x30 }
  - { offsetInCU: 0x1446D, offset: 0x3371D4, size: 0x8, addend: 0x0, symName: '__ZN4core3ptr39drop_in_place$LT$syn..lit..LitFloat$GT$17h58fbb0bf27438490E', symObjAddr: 0x4710, symBinAddr: 0xA6760, symSize: 0x70 }
  - { offsetInCU: 0x147ED, offset: 0x337554, size: 0x8, addend: 0x0, symName: '__ZN4core3ptr40drop_in_place$LT$syn..expr..ExprPath$GT$17h03786fb79b09c4c0E', symObjAddr: 0x4780, symBinAddr: 0xA67D0, symSize: 0x110 }
  - { offsetInCU: 0x14BF7, offset: 0x33795E, size: 0x8, addend: 0x0, symName: '__ZN4core3ptr40drop_in_place$LT$syn..ty..ReturnType$GT$17h02cf41e2fec63d90E', symObjAddr: 0x4890, symBinAddr: 0xA68E0, symSize: 0x50 }
  - { offsetInCU: 0x14DC6, offset: 0x337B2D, size: 0x8, addend: 0x0, symName: '__ZN4core3ptr41drop_in_place$LT$syn..attr..Attribute$GT$17h6038ab1bc013504dE', symObjAddr: 0x48E0, symBinAddr: 0xA6930, symSize: 0xB0 }
  - { offsetInCU: 0x14E4B, offset: 0x337BB2, size: 0x8, addend: 0x0, symName: '__ZN4core3ptr41drop_in_place$LT$syn..expr..ExprConst$GT$17h725a13e551d9f276E', symObjAddr: 0x4990, symBinAddr: 0xA69E0, symSize: 0x180 }
  - { offsetInCU: 0x153A0, offset: 0x338107, size: 0x8, addend: 0x0, symName: '__ZN4core3ptr42drop_in_place$LT$alloc..string..String$GT$17h781ac6273fa84cb0E', symObjAddr: 0x4B10, symBinAddr: 0xA6B60, symSize: 0x20 }
  - { offsetInCU: 0x154A9, offset: 0x338210, size: 0x8, addend: 0x0, symName: '__ZN4core3ptr44drop_in_place$LT$syn..lifetime..Lifetime$GT$17hf0cdec2e9ec456d6E', symObjAddr: 0x4B30, symBinAddr: 0xA6B80, symSize: 0x30 }
  - { offsetInCU: 0x155A6, offset: 0x33830D, size: 0x8, addend: 0x0, symName: '__ZN4core3ptr44drop_in_place$LT$syn..parse..ParseBuffer$GT$17hd0dadba44a19aec2E', symObjAddr: 0x4B60, symBinAddr: 0xA6BB0, symSize: 0x70 }
  - { offsetInCU: 0x159DB, offset: 0x338742, size: 0x8, addend: 0x0, symName: '__ZN4core3ptr45drop_in_place$LT$proc_macro2..TokenStream$GT$17h3405f6c513e9f6cbE', symObjAddr: 0x4BD0, symBinAddr: 0xA6C20, symSize: 0x140 }
  - { offsetInCU: 0x15E4A, offset: 0x338BB1, size: 0x8, addend: 0x0, symName: '__ZN4core3ptr45drop_in_place$LT$syn..generics..TypeParam$GT$17he5eda51070b7de47E', symObjAddr: 0x4D10, symBinAddr: 0xA6D60, symSize: 0x230 }
  - { offsetInCU: 0x16646, offset: 0x3393AD, size: 0x8, addend: 0x0, symName: '__ZN4core3ptr46drop_in_place$LT$syn..generics..ConstParam$GT$17hab0a58c4af8c549cE', symObjAddr: 0x4F40, symBinAddr: 0xA6F90, symSize: 0x150 }
  - { offsetInCU: 0x16A70, offset: 0x3397D7, size: 0x8, addend: 0x0, symName: '__ZN4core3ptr47drop_in_place$LT$syn..path..GenericArgument$GT$17h54f8794633f96823E', symObjAddr: 0x5090, symBinAddr: 0xA70E0, symSize: 0x460 }
  - { offsetInCU: 0x17779, offset: 0x33A4E0, size: 0x8, addend: 0x0, symName: '__ZN4core3ptr49drop_in_place$LT$syn..generics..LifetimeParam$GT$17h41a7c7a290ea6289E', symObjAddr: 0x54F0, symBinAddr: 0xA7540, symSize: 0xF0 }
  - { offsetInCU: 0x17B33, offset: 0x33A89A, size: 0x8, addend: 0x0, symName: '__ZN4core3ptr50drop_in_place$LT$syn..generics..TypeParamBound$GT$17hcd7771d4c6c221efE', symObjAddr: 0x55E0, symBinAddr: 0xA7630, symSize: 0xA0 }
  - { offsetInCU: 0x17C9A, offset: 0x33AA01, size: 0x8, addend: 0x0, symName: '__ZN4core3ptr58drop_in_place$LT$alloc..vec..Vec$LT$syn..expr..Arm$GT$$GT$17h1a55df3d2cba1daaE', symObjAddr: 0x5680, symBinAddr: 0xA76D0, symSize: 0xD0 }
  - { offsetInCU: 0x17F27, offset: 0x33AC8E, size: 0x8, addend: 0x0, symName: '__ZN4core3ptr59drop_in_place$LT$alloc..boxed..Box$LT$syn..pat..Pat$GT$$GT$17h563b135d87aca8abE', symObjAddr: 0x5750, symBinAddr: 0xA77A0, symSize: 0x50 }
  - { offsetInCU: 0x18082, offset: 0x33ADE9, size: 0x8, addend: 0x0, symName: '__ZN4core3ptr59drop_in_place$LT$alloc..boxed..Box$LT$syn..ty..Type$GT$$GT$17hffed36bad83adacbE', symObjAddr: 0x57A0, symBinAddr: 0xA77F0, symSize: 0x50 }
  - { offsetInCU: 0x181DD, offset: 0x33AF44, size: 0x8, addend: 0x0, symName: '__ZN4core3ptr61drop_in_place$LT$alloc..boxed..Box$LT$syn..expr..Expr$GT$$GT$17h01091e47f131475dE', symObjAddr: 0x57F0, symBinAddr: 0xA7840, symSize: 0x50 }
  - { offsetInCU: 0x18338, offset: 0x33B09F, size: 0x8, addend: 0x0, symName: '__ZN4core3ptr61drop_in_place$LT$syn..path..ParenthesizedGenericArguments$GT$17h43d4aac5494326a7E', symObjAddr: 0x5840, symBinAddr: 0xA7890, symSize: 0x170 }
  - { offsetInCU: 0x18912, offset: 0x33B679, size: 0x8, addend: 0x0, symName: '__ZN4core3ptr63drop_in_place$LT$alloc..boxed..Box$LT$syn..lit..LitRepr$GT$$GT$17hd8839b7fb35ee7afE', symObjAddr: 0x59B0, symBinAddr: 0xA7A00, symSize: 0x60 }
  - { offsetInCU: 0x18C07, offset: 0x33B96E, size: 0x8, addend: 0x0, symName: '__ZN4core3ptr64drop_in_place$LT$alloc..boxed..Box$LT$syn..pat..FieldPat$GT$$GT$17h4980b70a7597cc08E', symObjAddr: 0x5A10, symBinAddr: 0xA7A60, symSize: 0x140 }
  - { offsetInCU: 0x192B2, offset: 0x33C019, size: 0x8, addend: 0x0, symName: '__ZN4core3ptr64drop_in_place$LT$alloc..boxed..Box$LT$syn..ty..BareFnArg$GT$$GT$17h8b34096c620314efE', symObjAddr: 0x5B50, symBinAddr: 0xA7BA0, symSize: 0x140 }
  - { offsetInCU: 0x197D6, offset: 0x33C53D, size: 0x8, addend: 0x0, symName: '__ZN4core3ptr64drop_in_place$LT$alloc..vec..Vec$LT$syn..attr..Attribute$GT$$GT$17h3c8f2a04e701c675E.llvm.6085117338949153622', symObjAddr: 0x5C90, symBinAddr: 0xA7CE0, symSize: 0xD0 }
  - { offsetInCU: 0x19A63, offset: 0x33C7CA, size: 0x8, addend: 0x0, symName: '__ZN4core3ptr65drop_in_place$LT$core..option..Option$LT$syn..expr..Label$GT$$GT$17h78189e72a8cb7951E', symObjAddr: 0x5D60, symBinAddr: 0xA7DB0, symSize: 0x30 }
  - { offsetInCU: 0x19B9E, offset: 0x33C905, size: 0x8, addend: 0x0, symName: '__ZN4core3ptr65drop_in_place$LT$core..option..Option$LT$syn..path..QSelf$GT$$GT$17h9b72552ca06b7379E', symObjAddr: 0x5D90, symBinAddr: 0xA7DE0, symSize: 0x50 }
  - { offsetInCU: 0x19D21, offset: 0x33CA88, size: 0x8, addend: 0x0, symName: '__ZN4core3ptr66drop_in_place$LT$core..option..Option$LT$syn..pat..PatRest$GT$$GT$17h61677cf4ff3a7393E', symObjAddr: 0x5DE0, symBinAddr: 0xA7E30, symSize: 0xE0 }
  - { offsetInCU: 0x19FA5, offset: 0x33CD0C, size: 0x8, addend: 0x0, symName: '__ZN4core3ptr67drop_in_place$LT$alloc..boxed..Box$LT$syn..expr..FieldValue$GT$$GT$17h93aaccf8aa22ef88E', symObjAddr: 0x5EC0, symBinAddr: 0xA7F10, symSize: 0x140 }
  - { offsetInCU: 0x1A4C8, offset: 0x33D22F, size: 0x8, addend: 0x0, symName: '__ZN4core3ptr70drop_in_place$LT$core..option..Option$LT$syn..ty..BareVariadic$GT$$GT$17h45399348ea4b8d55E', symObjAddr: 0x6000, symBinAddr: 0xA8050, symSize: 0x120 }
  - { offsetInCU: 0x1A9F5, offset: 0x33D75C, size: 0x8, addend: 0x0, symName: '__ZN4core3ptr72drop_in_place$LT$alloc..boxed..Box$LT$syn..path..GenericArgument$GT$$GT$17haa7dd8b716637b54E', symObjAddr: 0x6120, symBinAddr: 0xA8170, symSize: 0x2B0 }
  - { offsetInCU: 0x1B3E0, offset: 0x33E147, size: 0x8, addend: 0x0, symName: '__ZN4core3ptr72drop_in_place$LT$core..option..Option$LT$syn..lifetime..Lifetime$GT$$GT$17hfc363ccdd8bd9c32E', symObjAddr: 0x63D0, symBinAddr: 0xA8420, symSize: 0x30 }
  - { offsetInCU: 0x1B4FC, offset: 0x33E263, size: 0x8, addend: 0x0, symName: '__ZN4core3ptr73drop_in_place$LT$alloc..boxed..Box$LT$syn..generics..GenericParam$GT$$GT$17hf6951dcd5ae07324E', symObjAddr: 0x6400, symBinAddr: 0xA8450, symSize: 0x80 }
  - { offsetInCU: 0x1B674, offset: 0x33E3DB, size: 0x8, addend: 0x0, symName: '__ZN4core3ptr75drop_in_place$LT$alloc..boxed..Box$LT$syn..generics..TypeParamBound$GT$$GT$17he61c00698a311a34E', symObjAddr: 0x6480, symBinAddr: 0xA84D0, symSize: 0x160 }
  - { offsetInCU: 0x1BC3A, offset: 0x33E9A1, size: 0x8, addend: 0x0, symName: '__ZN4core3ptr83drop_in_place$LT$core..result..Result$LT$syn..op..BinOp$C$syn..error..Error$GT$$GT$17h1f0ce0e4fd241856E', symObjAddr: 0x65E0, symBinAddr: 0xA8630, symSize: 0x90 }
  - { offsetInCU: 0x1BF1E, offset: 0x33EC85, size: 0x8, addend: 0x0, symName: '__ZN4core3ptr86drop_in_place$LT$syn..punctuated..Punctuated$LT$syn..pat..Pat$C$syn..token..Or$GT$$GT$17h8e9173df21a44316E', symObjAddr: 0x6670, symBinAddr: 0xA86C0, symSize: 0x120 }
  - { offsetInCU: 0x1C364, offset: 0x33F0CB, size: 0x8, addend: 0x0, symName: '__ZN4core3ptr87drop_in_place$LT$core..option..Option$LT$alloc..boxed..Box$LT$syn..pat..Pat$GT$$GT$$GT$17hd7b7c69f601b3926E', symObjAddr: 0x6790, symBinAddr: 0xA87E0, symSize: 0x50 }
  - { offsetInCU: 0x1C4D6, offset: 0x33F23D, size: 0x8, addend: 0x0, symName: '__ZN4core3ptr87drop_in_place$LT$core..option..Option$LT$alloc..boxed..Box$LT$syn..ty..Type$GT$$GT$$GT$17hd74f5d971aec2972E', symObjAddr: 0x67E0, symBinAddr: 0xA8830, symSize: 0x50 }
  - { offsetInCU: 0x1C648, offset: 0x33F3AF, size: 0x8, addend: 0x0, symName: '__ZN4core3ptr89drop_in_place$LT$core..option..Option$LT$alloc..boxed..Box$LT$syn..expr..Expr$GT$$GT$$GT$17h8e135ac1a25a2dc5E', symObjAddr: 0x6830, symBinAddr: 0xA8880, symSize: 0x50 }
  - { offsetInCU: 0x1C7F8, offset: 0x33F55F, size: 0x8, addend: 0x0, symName: '__ZN4core3ptr89drop_in_place$LT$syn..punctuated..Punctuated$LT$syn..pat..Pat$C$syn..token..Comma$GT$$GT$17h8d60e47f3fb1f87aE', symObjAddr: 0x6880, symBinAddr: 0xA88D0, symSize: 0x120 }
  - { offsetInCU: 0x1CC93, offset: 0x33F9FA, size: 0x8, addend: 0x0, symName: '__ZN4core3ptr91drop_in_place$LT$syn..punctuated..Punctuated$LT$syn..expr..Expr$C$syn..token..Comma$GT$$GT$17h4f39b83dc86a4159E', symObjAddr: 0x69A0, symBinAddr: 0xA89F0, symSize: 0x120 }
  - { offsetInCU: 0x1D0DD, offset: 0x33FE44, size: 0x8, addend: 0x0, symName: '__ZN4core3ptr94drop_in_place$LT$syn..punctuated..Punctuated$LT$syn..pat..FieldPat$C$syn..token..Comma$GT$$GT$17h112950ea198c8281E', symObjAddr: 0x6AC0, symBinAddr: 0xA8B10, symSize: 0xF0 }
  - { offsetInCU: 0x1D3A7, offset: 0x34010E, size: 0x8, addend: 0x0, symName: '__ZN4core3ptr94drop_in_place$LT$syn..punctuated..Punctuated$LT$syn..ty..BareFnArg$C$syn..token..Comma$GT$$GT$17h1c7b44310f06243dE', symObjAddr: 0x6BB0, symBinAddr: 0xA8C00, symSize: 0xF0 }
  - { offsetInCU: 0x1D671, offset: 0x3403D8, size: 0x8, addend: 0x0, symName: '__ZN4core3ptr96drop_in_place$LT$core..option..Option$LT$alloc..boxed..Box$LT$syn..path..PathSegment$GT$$GT$$GT$17hb447d0f626c86a4eE', symObjAddr: 0x6CA0, symBinAddr: 0xA8CF0, symSize: 0x180 }
  - { offsetInCU: 0x1DD02, offset: 0x340A69, size: 0x8, addend: 0x0, symName: '__ZN4core3ptr97drop_in_place$LT$syn..punctuated..Punctuated$LT$syn..expr..FieldValue$C$syn..token..Comma$GT$$GT$17h31b81f7462228dcbE', symObjAddr: 0x6E20, symBinAddr: 0xA8E70, symSize: 0xF0 }
  - { offsetInCU: 0x1E048, offset: 0x340DAF, size: 0x8, addend: 0x0, symName: '__ZN4core3ptr98drop_in_place$LT$syn..punctuated..Punctuated$LT$syn..lifetime..Lifetime$C$syn..token..Plus$GT$$GT$17h0f8fc5f20f465f47E', symObjAddr: 0x6F10, symBinAddr: 0xA8F60, symSize: 0xC0 }
  - { offsetInCU: 0x1EAEC, offset: 0x341853, size: 0x8, addend: 0x0, symName: '__ZN53_$LT$core..fmt..Error$u20$as$u20$core..fmt..Debug$GT$3fmt17h43ae5cec9623af13E', symObjAddr: 0x6FD0, symBinAddr: 0xA9020, symSize: 0x20 }
  - { offsetInCU: 0x2902C, offset: 0x34BD93, size: 0x8, addend: 0x0, symName: __ZN3syn4expr7parsing32parse_with_earlier_boundary_rule17hb02ce308a02a4a1eE, symObjAddr: 0x7180, symBinAddr: 0xA91D0, symSize: 0x15B0 }
  - { offsetInCU: 0x2B40C, offset: 0x34E173, size: 0x8, addend: 0x0, symName: __ZN3syn4expr7parsing14can_begin_expr17hb418906263911ccdE, symObjAddr: 0x8730, symBinAddr: 0xAA780, symSize: 0x4C0 }
  - { offsetInCU: 0x2C9D4, offset: 0x34F73B, size: 0x8, addend: 0x0, symName: __ZN3syn4expr7parsing10parse_expr17h9eb2cb7aa6283d86E.llvm.6085117338949153622, symObjAddr: 0x8BF0, symBinAddr: 0xAAC40, symSize: 0x12E0 }
  - { offsetInCU: 0x2F6CC, offset: 0x352433, size: 0x8, addend: 0x0, symName: __ZN3syn4expr7parsing15parse_binop_rhs17h21ef9d80df571ec4E, symObjAddr: 0x9ED0, symBinAddr: 0xABF20, symSize: 0x540 }
  - { offsetInCU: 0x301EB, offset: 0x352F52, size: 0x8, addend: 0x0, symName: __ZN3syn4expr7parsing14ambiguous_expr17he0894ca122c7f4e6E, symObjAddr: 0xA410, symBinAddr: 0xAC460, symSize: 0x100 }
  - { offsetInCU: 0x30266, offset: 0x352FCD, size: 0x8, addend: 0x0, symName: __ZN3syn4expr7parsing10expr_attrs17hf14159509fa85ca8E, symObjAddr: 0xA510, symBinAddr: 0xAC560, symSize: 0x2A0 }
  - { offsetInCU: 0x3082C, offset: 0x353593, size: 0x8, addend: 0x0, symName: __ZN3syn4expr7parsing10unary_expr17h8c2a984611866bdaE, symObjAddr: 0xA7B0, symBinAddr: 0xAC800, symSize: 0x8C0 }
  - { offsetInCU: 0x31E93, offset: 0x354BFA, size: 0x8, addend: 0x0, symName: __ZN3syn4expr7parsing12trailer_expr17h8a2bdad4a40548d7E, symObjAddr: 0xB070, symBinAddr: 0xAD0C0, symSize: 0x1A90 }
  - { offsetInCU: 0x36108, offset: 0x358E6F, size: 0x8, addend: 0x0, symName: __ZN3syn4expr7parsing14trailer_helper17h1b30b9a4fbca87bcE, symObjAddr: 0xCB00, symBinAddr: 0xAEB50, symSize: 0x21A0 }
  - { offsetInCU: 0x3A2CD, offset: 0x35D034, size: 0x8, addend: 0x0, symName: __ZN3syn4expr7parsing12atom_labeled17h2b63f0bdbd1ffcf9E, symObjAddr: 0xECA0, symBinAddr: 0xB0CF0, symSize: 0x730 }
  - { offsetInCU: 0x3ACA7, offset: 0x35DA0E, size: 0x8, addend: 0x0, symName: __ZN3syn4expr7parsing12expr_builtin17hfe4d7860eb8d93a5E, symObjAddr: 0xF3D0, symBinAddr: 0xB1420, symSize: 0x3E0 }
  - { offsetInCU: 0x3B6FC, offset: 0x35E463, size: 0x8, addend: 0x0, symName: __ZN3syn4expr7parsing23path_or_macro_or_struct17h3a35c18dd12111cfE, symObjAddr: 0xF7B0, symBinAddr: 0xB1800, symSize: 0x160 }
  - { offsetInCU: 0x3B7B6, offset: 0x35E51D, size: 0x8, addend: 0x0, symName: __ZN3syn4expr7parsing31rest_of_path_or_macro_or_struct17h1201e78c90bb81baE, symObjAddr: 0xF910, symBinAddr: 0xB1960, symSize: 0x460 }
  - { offsetInCU: 0x3C038, offset: 0x35ED9F, size: 0x8, addend: 0x0, symName: __ZN3syn4expr7parsing14paren_or_tuple17h595ef5967864e1f0E, symObjAddr: 0xFD70, symBinAddr: 0xB1DC0, symSize: 0x810 }
  - { offsetInCU: 0x3C96D, offset: 0x35F6D4, size: 0x8, addend: 0x0, symName: __ZN3syn4expr7parsing15array_or_repeat17h16f1a87c0a940f8cE, symObjAddr: 0x10580, symBinAddr: 0xB25D0, symSize: 0x1240 }
  - { offsetInCU: 0x3F935, offset: 0x36269C, size: 0x8, addend: 0x0, symName: __ZN3syn4expr7parsing10expr_group17h143c5f8a1b43603cE, symObjAddr: 0x117C0, symBinAddr: 0xB3810, symSize: 0x920 }
  - { offsetInCU: 0x403F2, offset: 0x363159, size: 0x8, addend: 0x0, symName: __ZN3syn4expr7parsing8expr_let17h53e6315ac8b5aee1E, symObjAddr: 0x12340, symBinAddr: 0xB4130, symSize: 0x560 }
  - { offsetInCU: 0x40BB2, offset: 0x363919, size: 0x8, addend: 0x0, symName: __ZN3syn4expr7parsing10expr_unary17haacb582ebfbd68bfE, symObjAddr: 0x128A0, symBinAddr: 0xB4690, symSize: 0x2E0 }
  - { offsetInCU: 0x41137, offset: 0x363E9E, size: 0x8, addend: 0x0, symName: __ZN3syn4expr7parsing12expr_closure17h23f22c4f2a9fedcbE, symObjAddr: 0x12B80, symBinAddr: 0xB4970, symSize: 0x1530 }
  - { offsetInCU: 0x42D02, offset: 0x365A69, size: 0x8, addend: 0x0, symName: __ZN3syn4expr7parsing10expr_break17hd5ff63487f71dcffE, symObjAddr: 0x140B0, symBinAddr: 0xB5EA0, symSize: 0x7E0 }
  - { offsetInCU: 0x43E54, offset: 0x366BBB, size: 0x8, addend: 0x0, symName: __ZN3syn4expr7parsing18expr_struct_helper17h4c61023c9d934da0E, symObjAddr: 0x14890, symBinAddr: 0xB6680, symSize: 0x9C0 }
  - { offsetInCU: 0x44EBC, offset: 0x367C23, size: 0x8, addend: 0x0, symName: __ZN3syn4expr7parsing10expr_range17h09e34d6c6faf79a6E, symObjAddr: 0x15250, symBinAddr: 0xB7040, symSize: 0xE0 }
  - { offsetInCU: 0x4507E, offset: 0x367DE5, size: 0x8, addend: 0x0, symName: __ZN3syn4expr7parsing15parse_range_end17h0db540d84762afd5E, symObjAddr: 0x15330, symBinAddr: 0xB7120, symSize: 0x194 }
  - { offsetInCU: 0x1E, offset: 0x37AB94, size: 0x8, addend: 0x0, symName: '__ZN4core3ptr100drop_in_place$LT$core..option..Option$LT$alloc..boxed..Box$LT$syn..path..GenericArgument$GT$$GT$$GT$17h7435c9de74860622E', symObjAddr: 0x0, symBinAddr: 0xB72C0, symSize: 0x50 }
  - { offsetInCU: 0x18A2, offset: 0x37C418, size: 0x8, addend: 0x0, symName: '__ZN4core3ptr100drop_in_place$LT$core..option..Option$LT$alloc..boxed..Box$LT$syn..path..GenericArgument$GT$$GT$$GT$17h7435c9de74860622E', symObjAddr: 0x0, symBinAddr: 0xB72C0, symSize: 0x50 }
  - { offsetInCU: 0x1A71, offset: 0x37C5E7, size: 0x8, addend: 0x0, symName: '__ZN4core3ptr102drop_in_place$LT$syn..punctuated..Punctuated$LT$syn..path..GenericArgument$C$syn..token..Comma$GT$$GT$17h39496ba4e6dba6cfE', symObjAddr: 0x50, symBinAddr: 0xB7310, symSize: 0xF0 }
  - { offsetInCU: 0x1D5A, offset: 0x37C8D0, size: 0x8, addend: 0x0, symName: '__ZN4core3ptr103drop_in_place$LT$core..option..Option$LT$alloc..boxed..Box$LT$syn..generics..TypeParamBound$GT$$GT$$GT$17h5974f03e36b1a9c3E', symObjAddr: 0x140, symBinAddr: 0xB7400, symSize: 0x50 }
  - { offsetInCU: 0x2021, offset: 0x37CB97, size: 0x8, addend: 0x0, symName: '__ZN4core3ptr103drop_in_place$LT$core..option..Option$LT$alloc..boxed..Box$LT$syn..generics..WherePredicate$GT$$GT$$GT$17hdd5111a374d8d6f2E', symObjAddr: 0x190, symBinAddr: 0xB7450, symSize: 0xD0 }
  - { offsetInCU: 0x23B4, offset: 0x37CF2A, size: 0x8, addend: 0x0, symName: '__ZN4core3ptr103drop_in_place$LT$syn..punctuated..Punctuated$LT$syn..generics..GenericParam$C$syn..token..Comma$GT$$GT$17hf42353fa44ed6da8E', symObjAddr: 0x260, symBinAddr: 0xB7520, symSize: 0xF0 }
  - { offsetInCU: 0x2877, offset: 0x37D3ED, size: 0x8, addend: 0x0, symName: '__ZN4core3ptr104drop_in_place$LT$syn..punctuated..Punctuated$LT$syn..generics..TypeParamBound$C$syn..token..Plus$GT$$GT$17h532f52c4a894b056E', symObjAddr: 0x350, symBinAddr: 0xB7610, symSize: 0x230 }
  - { offsetInCU: 0x326C, offset: 0x37DDE2, size: 0x8, addend: 0x0, symName: '__ZN4core3ptr109drop_in_place$LT$core..result..Result$LT$core..option..Option$LT$syn..ty..Abi$GT$$C$syn..error..Error$GT$$GT$17h8e7e96ef88c194afE', symObjAddr: 0x580, symBinAddr: 0xB7840, symSize: 0xD0 }
  - { offsetInCU: 0x384A, offset: 0x37E3C0, size: 0x8, addend: 0x0, symName: '__ZN4core3ptr115drop_in_place$LT$core..option..Option$LT$$LP$alloc..boxed..Box$LT$syn..pat..Pat$GT$$C$syn..token..Colon$RP$$GT$$GT$17he854acc3c4717d92E', symObjAddr: 0x650, symBinAddr: 0xB7910, symSize: 0x50 }
  - { offsetInCU: 0x3A1A, offset: 0x37E590, size: 0x8, addend: 0x0, symName: '__ZN4core3ptr115drop_in_place$LT$core..option..Option$LT$$LP$syn..token..Brace$C$alloc..vec..Vec$LT$syn..item..Item$GT$$RP$$GT$$GT$17h6df5bf3d47177236E', symObjAddr: 0x6A0, symBinAddr: 0xB7960, symSize: 0xE0 }
  - { offsetInCU: 0x3CC1, offset: 0x37E837, size: 0x8, addend: 0x0, symName: '__ZN4core3ptr126drop_in_place$LT$core..option..Option$LT$$LP$syn..token..And$C$core..option..Option$LT$syn..lifetime..Lifetime$GT$$RP$$GT$$GT$17hc269ac95805979aaE', symObjAddr: 0x780, symBinAddr: 0xB7A40, symSize: 0x30 }
  - { offsetInCU: 0x3E1B, offset: 0x37E991, size: 0x8, addend: 0x0, symName: '__ZN4core3ptr34drop_in_place$LT$syn..lit..Lit$GT$17h8902f5ff67917034E', symObjAddr: 0x7B0, symBinAddr: 0xB7A70, symSize: 0x110 }
  - { offsetInCU: 0x4355, offset: 0x37EECB, size: 0x8, addend: 0x0, symName: '__ZN4core3ptr34drop_in_place$LT$syn..pat..Pat$GT$17h4581eea028ec0969E', symObjAddr: 0x8C0, symBinAddr: 0xB7B80, symSize: 0xEE0 }
  - { offsetInCU: 0x78CB, offset: 0x382441, size: 0x8, addend: 0x0, symName: '__ZN4core3ptr34drop_in_place$LT$syn..ty..Type$GT$17h369e41ad4a9f1ae0E', symObjAddr: 0x17A0, symBinAddr: 0xB8A60, symSize: 0x5C0 }
  - { offsetInCU: 0x9101, offset: 0x383C77, size: 0x8, addend: 0x0, symName: '__ZN4core3ptr36drop_in_place$LT$syn..expr..Expr$GT$17h0f7fd4c749bae801E', symObjAddr: 0x1D60, symBinAddr: 0xB9020, symSize: 0x2800 }
  - { offsetInCU: 0x126FC, offset: 0x38D272, size: 0x8, addend: 0x0, symName: '__ZN4core3ptr36drop_in_place$LT$syn..item..Item$GT$17h13f5a53479ba6379E', symObjAddr: 0x4560, symBinAddr: 0xBB820, symSize: 0x1800 }
  - { offsetInCU: 0x17CD5, offset: 0x39284B, size: 0x8, addend: 0x0, symName: '__ZN4core3ptr36drop_in_place$LT$syn..mac..Macro$GT$17h4ffde962df30ebe2E', symObjAddr: 0x5D60, symBinAddr: 0xBD020, symSize: 0xE0 }
  - { offsetInCU: 0x18046, offset: 0x392BBC, size: 0x8, addend: 0x0, symName: '__ZN4core3ptr36drop_in_place$LT$syn..path..Path$GT$17habea856181211e1cE', symObjAddr: 0x5E40, symBinAddr: 0xBD100, symSize: 0x220 }
  - { offsetInCU: 0x1897B, offset: 0x3934F1, size: 0x8, addend: 0x0, symName: '__ZN4core3ptr37drop_in_place$LT$syn..item..FnArg$GT$17h3308e115b3b3c9adE', symObjAddr: 0x6060, symBinAddr: 0xBD320, symSize: 0x190 }
  - { offsetInCU: 0x18EB6, offset: 0x393A2C, size: 0x8, addend: 0x0, symName: '__ZN4core3ptr37drop_in_place$LT$syn..stmt..Block$GT$17hcc21a21cf949414cE', symObjAddr: 0x61F0, symBinAddr: 0xBD4B0, symSize: 0xD0 }
  - { offsetInCU: 0x19179, offset: 0x393CEF, size: 0x8, addend: 0x0, symName: '__ZN4core3ptr38drop_in_place$LT$syn..data..Fields$GT$17h1dd1b203befc1316E', symObjAddr: 0x62C0, symBinAddr: 0xBD580, symSize: 0x190 }
  - { offsetInCU: 0x19597, offset: 0x39410D, size: 0x8, addend: 0x0, symName: '__ZN4core3ptr38drop_in_place$LT$syn..expr..Member$GT$17h022cbe5553aa40faE', symObjAddr: 0x6450, symBinAddr: 0xBD710, symSize: 0x30 }
  - { offsetInCU: 0x19694, offset: 0x39420A, size: 0x8, addend: 0x0, symName: '__ZN4core3ptr39drop_in_place$LT$proc_macro2..Ident$GT$17h8101e88c3ac359d6E', symObjAddr: 0x6480, symBinAddr: 0xBD740, symSize: 0x30 }
  - { offsetInCU: 0x197EE, offset: 0x394364, size: 0x8, addend: 0x0, symName: '__ZN4core3ptr39drop_in_place$LT$syn..item..UseTree$GT$17h5b1281a5704d139dE', symObjAddr: 0x64B0, symBinAddr: 0xBD770, symSize: 0xD0 }
  - { offsetInCU: 0x19BA3, offset: 0x394719, size: 0x8, addend: 0x0, symName: '__ZN4core3ptr39drop_in_place$LT$syn..ty..TypeGroup$GT$17h40bac393b20ff4afE', symObjAddr: 0x6580, symBinAddr: 0xBD840, symSize: 0x50 }
  - { offsetInCU: 0x19D8C, offset: 0x394902, size: 0x8, addend: 0x0, symName: '__ZN4core3ptr40drop_in_place$LT$syn..item..ImplItem$GT$17he2e6e8f15695ea55E', symObjAddr: 0x65D0, symBinAddr: 0xBD890, symSize: 0x7D0 }
  - { offsetInCU: 0x1B534, offset: 0x3960AA, size: 0x8, addend: 0x0, symName: '__ZN4core3ptr40drop_in_place$LT$syn..item..ItemImpl$GT$17h1b09f17c1730ab9cE', symObjAddr: 0x6DA0, symBinAddr: 0xBE060, symSize: 0x1F0 }
  - { offsetInCU: 0x1BC6F, offset: 0x3967E5, size: 0x8, addend: 0x0, symName: '__ZN4core3ptr40drop_in_place$LT$syn..item..Receiver$GT$17h6743a41cd869c536E', symObjAddr: 0x6F90, symBinAddr: 0xBE250, symSize: 0x130 }
  - { offsetInCU: 0x1C202, offset: 0x396D78, size: 0x8, addend: 0x0, symName: '__ZN4core3ptr40drop_in_place$LT$syn..item..Variadic$GT$17h856c1da4a3922974E', symObjAddr: 0x70C0, symBinAddr: 0xBE380, symSize: 0x110 }
  - { offsetInCU: 0x1C625, offset: 0x39719B, size: 0x8, addend: 0x0, symName: '__ZN4core3ptr40drop_in_place$LT$syn..ty..ReturnType$GT$17h02cf41e2fec63d90E', symObjAddr: 0x71D0, symBinAddr: 0xBE490, symSize: 0x50 }
  - { offsetInCU: 0x1C797, offset: 0x39730D, size: 0x8, addend: 0x0, symName: '__ZN4core3ptr41drop_in_place$LT$syn..expr..ExprConst$GT$17h725a13e551d9f276E', symObjAddr: 0x7220, symBinAddr: 0xBE4E0, symSize: 0x180 }
  - { offsetInCU: 0x1CD0B, offset: 0x397881, size: 0x8, addend: 0x0, symName: '__ZN4core3ptr41drop_in_place$LT$syn..item..Signature$GT$17h691f115807a5d1eeE', symObjAddr: 0x73A0, symBinAddr: 0xBE660, symSize: 0x160 }
  - { offsetInCU: 0x1D3F7, offset: 0x397F6D, size: 0x8, addend: 0x0, symName: '__ZN4core3ptr41drop_in_place$LT$syn..item..TraitItem$GT$17hb6f9fbcba8fdea85E', symObjAddr: 0x7500, symBinAddr: 0xBE7C0, symSize: 0x6A0 }
  - { offsetInCU: 0x1E676, offset: 0x3991EC, size: 0x8, addend: 0x0, symName: '__ZN4core3ptr43drop_in_place$LT$syn..data..FieldsNamed$GT$17hb2a97e73a85352cbE', symObjAddr: 0x7BA0, symBinAddr: 0xBEE60, symSize: 0xE0 }
  - { offsetInCU: 0x1E965, offset: 0x3994DB, size: 0x8, addend: 0x0, symName: '__ZN4core3ptr44drop_in_place$LT$syn..generics..Generics$GT$17h10dea28dec64f81eE', symObjAddr: 0x7C80, symBinAddr: 0xBEF40, symSize: 0x40 }
  - { offsetInCU: 0x1E982, offset: 0x3994F8, size: 0x8, addend: 0x0, symName: '__ZN4core3ptr44drop_in_place$LT$syn..lifetime..Lifetime$GT$17hf0cdec2e9ec456d6E', symObjAddr: 0x7CC0, symBinAddr: 0xBEF80, symSize: 0x30 }
  - { offsetInCU: 0x1EAFB, offset: 0x399671, size: 0x8, addend: 0x0, symName: '__ZN4core3ptr44drop_in_place$LT$syn..parse..ParseBuffer$GT$17hd0dadba44a19aec2E', symObjAddr: 0x7CF0, symBinAddr: 0xBEFB0, symSize: 0x70 }
  - { offsetInCU: 0x1EF30, offset: 0x399AA6, size: 0x8, addend: 0x0, symName: '__ZN4core3ptr45drop_in_place$LT$proc_macro2..TokenStream$GT$17h3405f6c513e9f6cbE', symObjAddr: 0x7D60, symBinAddr: 0xBF020, symSize: 0x140 }
  - { offsetInCU: 0x1F39F, offset: 0x399F15, size: 0x8, addend: 0x0, symName: '__ZN4core3ptr45drop_in_place$LT$syn..generics..TypeParam$GT$17he5eda51070b7de47E', symObjAddr: 0x7EA0, symBinAddr: 0xBF160, symSize: 0x230 }
  - { offsetInCU: 0x1FB9B, offset: 0x39A711, size: 0x8, addend: 0x0, symName: '__ZN4core3ptr46drop_in_place$LT$syn..generics..ConstParam$GT$17hab0a58c4af8c549cE', symObjAddr: 0x80D0, symBinAddr: 0xBF390, symSize: 0x150 }
  - { offsetInCU: 0x1FFC5, offset: 0x39AB3B, size: 0x8, addend: 0x0, symName: '__ZN4core3ptr47drop_in_place$LT$syn..path..GenericArgument$GT$17h54f8794633f96823E', symObjAddr: 0x8220, symBinAddr: 0xBF4E0, symSize: 0x460 }
  - { offsetInCU: 0x20CCE, offset: 0x39B844, size: 0x8, addend: 0x0, symName: '__ZN4core3ptr49drop_in_place$LT$syn..generics..LifetimeParam$GT$17h41a7c7a290ea6289E', symObjAddr: 0x8680, symBinAddr: 0xBF940, symSize: 0xF0 }
  - { offsetInCU: 0x21088, offset: 0x39BBFE, size: 0x8, addend: 0x0, symName: '__ZN4core3ptr49drop_in_place$LT$syn..restriction..Visibility$GT$17h2a932c493942ef80E', symObjAddr: 0x8770, symBinAddr: 0xBFA30, symSize: 0x60 }
  - { offsetInCU: 0x2120B, offset: 0x39BD81, size: 0x8, addend: 0x0, symName: '__ZN4core3ptr50drop_in_place$LT$syn..generics..TypeParamBound$GT$17hcd7771d4c6c221efE', symObjAddr: 0x87D0, symBinAddr: 0xBFA90, symSize: 0xA0 }
  - { offsetInCU: 0x21372, offset: 0x39BEE8, size: 0x8, addend: 0x0, symName: '__ZN4core3ptr58drop_in_place$LT$alloc..vec..Vec$LT$syn..expr..Arm$GT$$GT$17h1a55df3d2cba1daaE', symObjAddr: 0x8870, symBinAddr: 0xBFB30, symSize: 0xD0 }
  - { offsetInCU: 0x215FF, offset: 0x39C175, size: 0x8, addend: 0x0, symName: '__ZN4core3ptr59drop_in_place$LT$alloc..boxed..Box$LT$syn..pat..Pat$GT$$GT$17h563b135d87aca8abE', symObjAddr: 0x8940, symBinAddr: 0xBFC00, symSize: 0x50 }
  - { offsetInCU: 0x2175A, offset: 0x39C2D0, size: 0x8, addend: 0x0, symName: '__ZN4core3ptr59drop_in_place$LT$alloc..boxed..Box$LT$syn..ty..Type$GT$$GT$17hffed36bad83adacbE', symObjAddr: 0x8990, symBinAddr: 0xBFC50, symSize: 0x50 }
  - { offsetInCU: 0x218B5, offset: 0x39C42B, size: 0x8, addend: 0x0, symName: '__ZN4core3ptr61drop_in_place$LT$alloc..boxed..Box$LT$syn..expr..Expr$GT$$GT$17h01091e47f131475dE', symObjAddr: 0x89E0, symBinAddr: 0xBFCA0, symSize: 0x50 }
  - { offsetInCU: 0x21A10, offset: 0x39C586, size: 0x8, addend: 0x0, symName: '__ZN4core3ptr61drop_in_place$LT$syn..path..ParenthesizedGenericArguments$GT$17h43d4aac5494326a7E', symObjAddr: 0x8A30, symBinAddr: 0xBFCF0, symSize: 0x170 }
  - { offsetInCU: 0x21FEA, offset: 0x39CB60, size: 0x8, addend: 0x0, symName: '__ZN4core3ptr62drop_in_place$LT$alloc..boxed..Box$LT$syn..stmt..Block$GT$$GT$17h30434998ae0f12a8E', symObjAddr: 0x8BA0, symBinAddr: 0xBFE60, symSize: 0xE0 }
  - { offsetInCU: 0x223C7, offset: 0x39CF3D, size: 0x8, addend: 0x0, symName: '__ZN4core3ptr63drop_in_place$LT$alloc..boxed..Box$LT$syn..lit..LitRepr$GT$$GT$17hd8839b7fb35ee7afE', symObjAddr: 0x8C80, symBinAddr: 0xBFF40, symSize: 0x60 }
  - { offsetInCU: 0x2269D, offset: 0x39D213, size: 0x8, addend: 0x0, symName: '__ZN4core3ptr63drop_in_place$LT$alloc..vec..Vec$LT$syn..item..ImplItem$GT$$GT$17hda9ba61cc1df3d0eE', symObjAddr: 0x8CE0, symBinAddr: 0xBFFA0, symSize: 0x80 }
  - { offsetInCU: 0x2293A, offset: 0x39D4B0, size: 0x8, addend: 0x0, symName: '__ZN4core3ptr64drop_in_place$LT$alloc..boxed..Box$LT$syn..item..UseTree$GT$$GT$17he10cba0a4742709fE', symObjAddr: 0x8D60, symBinAddr: 0xC0020, symSize: 0xF0 }
  - { offsetInCU: 0x22E7A, offset: 0x39D9F0, size: 0x8, addend: 0x0, symName: '__ZN4core3ptr64drop_in_place$LT$alloc..boxed..Box$LT$syn..pat..FieldPat$GT$$GT$17h4980b70a7597cc08E', symObjAddr: 0x8E50, symBinAddr: 0xC0110, symSize: 0x140 }
  - { offsetInCU: 0x23525, offset: 0x39E09B, size: 0x8, addend: 0x0, symName: '__ZN4core3ptr64drop_in_place$LT$alloc..boxed..Box$LT$syn..ty..BareFnArg$GT$$GT$17h8b34096c620314efE', symObjAddr: 0x8F90, symBinAddr: 0xC0250, symSize: 0x140 }
  - { offsetInCU: 0x23A49, offset: 0x39E5BF, size: 0x8, addend: 0x0, symName: '__ZN4core3ptr64drop_in_place$LT$alloc..vec..Vec$LT$syn..attr..Attribute$GT$$GT$17h3c8f2a04e701c675E', symObjAddr: 0x90D0, symBinAddr: 0xC0390, symSize: 0xD0 }
  - { offsetInCU: 0x23CD6, offset: 0x39E84C, size: 0x8, addend: 0x0, symName: '__ZN4core3ptr64drop_in_place$LT$alloc..vec..Vec$LT$syn..item..TraitItem$GT$$GT$17h60eb4b8666c57b93E', symObjAddr: 0x91A0, symBinAddr: 0xC0460, symSize: 0x80 }
  - { offsetInCU: 0x23F54, offset: 0x39EACA, size: 0x8, addend: 0x0, symName: '__ZN4core3ptr65drop_in_place$LT$core..option..Option$LT$syn..expr..Label$GT$$GT$17h78189e72a8cb7951E', symObjAddr: 0x9220, symBinAddr: 0xC04E0, symSize: 0x30 }
  - { offsetInCU: 0x2408F, offset: 0x39EC05, size: 0x8, addend: 0x0, symName: '__ZN4core3ptr65drop_in_place$LT$core..option..Option$LT$syn..path..QSelf$GT$$GT$17h9b72552ca06b7379E', symObjAddr: 0x9250, symBinAddr: 0xC0510, symSize: 0x50 }
  - { offsetInCU: 0x24212, offset: 0x39ED88, size: 0x8, addend: 0x0, symName: '__ZN4core3ptr66drop_in_place$LT$alloc..vec..Vec$LT$syn..item..ForeignItem$GT$$GT$17h3e58b8e683c84cf4E', symObjAddr: 0x92A0, symBinAddr: 0xC0560, symSize: 0x80 }
  - { offsetInCU: 0x24490, offset: 0x39F006, size: 0x8, addend: 0x0, symName: '__ZN4core3ptr66drop_in_place$LT$core..option..Option$LT$syn..pat..PatRest$GT$$GT$17h61677cf4ff3a7393E', symObjAddr: 0x9320, symBinAddr: 0xC05E0, symSize: 0xE0 }
  - { offsetInCU: 0x24714, offset: 0x39F28A, size: 0x8, addend: 0x0, symName: '__ZN4core3ptr67drop_in_place$LT$alloc..boxed..Box$LT$syn..expr..FieldValue$GT$$GT$17h93aaccf8aa22ef88E', symObjAddr: 0x9400, symBinAddr: 0xC06C0, symSize: 0x140 }
  - { offsetInCU: 0x24C37, offset: 0x39F7AD, size: 0x8, addend: 0x0, symName: '__ZN4core3ptr70drop_in_place$LT$core..option..Option$LT$syn..ty..BareVariadic$GT$$GT$17h45399348ea4b8d55E', symObjAddr: 0x9540, symBinAddr: 0xC0800, symSize: 0x120 }
  - { offsetInCU: 0x25164, offset: 0x39FCDA, size: 0x8, addend: 0x0, symName: '__ZN4core3ptr72drop_in_place$LT$alloc..boxed..Box$LT$syn..path..GenericArgument$GT$$GT$17haa7dd8b716637b54E', symObjAddr: 0x9660, symBinAddr: 0xC0920, symSize: 0x2B0 }
  - { offsetInCU: 0x25B4F, offset: 0x3A06C5, size: 0x8, addend: 0x0, symName: '__ZN4core3ptr72drop_in_place$LT$core..option..Option$LT$syn..lifetime..Lifetime$GT$$GT$17hfc363ccdd8bd9c32E', symObjAddr: 0x9910, symBinAddr: 0xC0BD0, symSize: 0x30 }
  - { offsetInCU: 0x25C6B, offset: 0x3A07E1, size: 0x8, addend: 0x0, symName: '__ZN4core3ptr73drop_in_place$LT$alloc..boxed..Box$LT$syn..generics..GenericParam$GT$$GT$17hf6951dcd5ae07324E', symObjAddr: 0x9940, symBinAddr: 0xC0C00, symSize: 0x80 }
  - { offsetInCU: 0x25DE3, offset: 0x3A0959, size: 0x8, addend: 0x0, symName: '__ZN4core3ptr75drop_in_place$LT$alloc..boxed..Box$LT$syn..generics..TypeParamBound$GT$$GT$17he61c00698a311a34E', symObjAddr: 0x99C0, symBinAddr: 0xC0C80, symSize: 0x160 }
  - { offsetInCU: 0x263C8, offset: 0x3A0F3E, size: 0x8, addend: 0x0, symName: '__ZN4core3ptr75drop_in_place$LT$core..option..Option$LT$syn..generics..WhereClause$GT$$GT$17hdce7670be9790a3dE', symObjAddr: 0x9B20, symBinAddr: 0xC0DE0, symSize: 0x90 }
  - { offsetInCU: 0x2667E, offset: 0x3A11F4, size: 0x8, addend: 0x0, symName: '__ZN4core3ptr86drop_in_place$LT$syn..punctuated..Punctuated$LT$syn..pat..Pat$C$syn..token..Or$GT$$GT$17h8e9173df21a44316E', symObjAddr: 0x9BB0, symBinAddr: 0xC0E70, symSize: 0x120 }
  - { offsetInCU: 0x26AC4, offset: 0x3A163A, size: 0x8, addend: 0x0, symName: '__ZN4core3ptr87drop_in_place$LT$core..option..Option$LT$alloc..boxed..Box$LT$syn..pat..Pat$GT$$GT$$GT$17hd7b7c69f601b3926E', symObjAddr: 0x9CD0, symBinAddr: 0xC0F90, symSize: 0x50 }
  - { offsetInCU: 0x26C36, offset: 0x3A17AC, size: 0x8, addend: 0x0, symName: '__ZN4core3ptr87drop_in_place$LT$core..option..Option$LT$alloc..boxed..Box$LT$syn..ty..Type$GT$$GT$$GT$17hd74f5d971aec2972E', symObjAddr: 0x9D20, symBinAddr: 0xC0FE0, symSize: 0x50 }
  - { offsetInCU: 0x26DA8, offset: 0x3A191E, size: 0x8, addend: 0x0, symName: '__ZN4core3ptr89drop_in_place$LT$core..option..Option$LT$alloc..boxed..Box$LT$syn..expr..Expr$GT$$GT$$GT$17h8e135ac1a25a2dc5E', symObjAddr: 0x9D70, symBinAddr: 0xC1030, symSize: 0x50 }
  - { offsetInCU: 0x26F58, offset: 0x3A1ACE, size: 0x8, addend: 0x0, symName: '__ZN4core3ptr89drop_in_place$LT$syn..punctuated..Punctuated$LT$syn..pat..Pat$C$syn..token..Comma$GT$$GT$17h8d60e47f3fb1f87aE', symObjAddr: 0x9DC0, symBinAddr: 0xC1080, symSize: 0x120 }
  - { offsetInCU: 0x273F3, offset: 0x3A1F69, size: 0x8, addend: 0x0, symName: '__ZN4core3ptr90drop_in_place$LT$core..option..Option$LT$alloc..boxed..Box$LT$syn..data..Field$GT$$GT$$GT$17h326c39537b0fcc46E', symObjAddr: 0x9EE0, symBinAddr: 0xC11A0, symSize: 0x200 }
  - { offsetInCU: 0x27C49, offset: 0x3A27BF, size: 0x8, addend: 0x0, symName: '__ZN4core3ptr90drop_in_place$LT$core..option..Option$LT$alloc..boxed..Box$LT$syn..item..FnArg$GT$$GT$$GT$17hbae3fdd388277508E', symObjAddr: 0xA0E0, symBinAddr: 0xC13A0, symSize: 0x50 }
  - { offsetInCU: 0x27DEC, offset: 0x3A2962, size: 0x8, addend: 0x0, symName: '__ZN4core3ptr91drop_in_place$LT$syn..punctuated..Punctuated$LT$syn..expr..Expr$C$syn..token..Comma$GT$$GT$17h4f39b83dc86a4159E', symObjAddr: 0xA130, symBinAddr: 0xC13F0, symSize: 0x120 }
  - { offsetInCU: 0x28249, offset: 0x3A2DBF, size: 0x8, addend: 0x0, symName: '__ZN4core3ptr92drop_in_place$LT$core..option..Option$LT$$LP$syn..token..As$C$proc_macro2..Ident$RP$$GT$$GT$17h5c1a47ccb35d9d7eE', symObjAddr: 0xA250, symBinAddr: 0xC1510, symSize: 0x30 }
  - { offsetInCU: 0x283A3, offset: 0x3A2F19, size: 0x8, addend: 0x0, symName: '__ZN4core3ptr92drop_in_place$LT$core..option..Option$LT$alloc..boxed..Box$LT$syn..data..Variant$GT$$GT$$GT$17h3f89d7c982191526E', symObjAddr: 0xA280, symBinAddr: 0xC1540, symSize: 0x190 }
  - { offsetInCU: 0x28A4C, offset: 0x3A35C2, size: 0x8, addend: 0x0, symName: '__ZN4core3ptr92drop_in_place$LT$syn..punctuated..Punctuated$LT$syn..item..FnArg$C$syn..token..Comma$GT$$GT$17h75db9d232662c7d3E', symObjAddr: 0xA410, symBinAddr: 0xC16D0, symSize: 0x130 }
  - { offsetInCU: 0x28E83, offset: 0x3A39F9, size: 0x8, addend: 0x0, symName: '__ZN4core3ptr94drop_in_place$LT$syn..punctuated..Punctuated$LT$syn..data..Variant$C$syn..token..Comma$GT$$GT$17ha69d7e675441c7e2E', symObjAddr: 0xA540, symBinAddr: 0xC1800, symSize: 0xE0 }
  - { offsetInCU: 0x291B0, offset: 0x3A3D26, size: 0x8, addend: 0x0, symName: '__ZN4core3ptr94drop_in_place$LT$syn..punctuated..Punctuated$LT$syn..item..UseTree$C$syn..token..Comma$GT$$GT$17h4e4f303ffad9f549E', symObjAddr: 0xA620, symBinAddr: 0xC18E0, symSize: 0xF0 }
  - { offsetInCU: 0x294C1, offset: 0x3A4037, size: 0x8, addend: 0x0, symName: '__ZN4core3ptr94drop_in_place$LT$syn..punctuated..Punctuated$LT$syn..pat..FieldPat$C$syn..token..Comma$GT$$GT$17h112950ea198c8281E', symObjAddr: 0xA710, symBinAddr: 0xC19D0, symSize: 0xF0 }
  - { offsetInCU: 0x2978B, offset: 0x3A4301, size: 0x8, addend: 0x0, symName: '__ZN4core3ptr94drop_in_place$LT$syn..punctuated..Punctuated$LT$syn..ty..BareFnArg$C$syn..token..Comma$GT$$GT$17h1c7b44310f06243dE', symObjAddr: 0xA800, symBinAddr: 0xC1AC0, symSize: 0xF0 }
  - { offsetInCU: 0x29A55, offset: 0x3A45CB, size: 0x8, addend: 0x0, symName: '__ZN4core3ptr96drop_in_place$LT$core..option..Option$LT$alloc..boxed..Box$LT$syn..path..PathSegment$GT$$GT$$GT$17hb447d0f626c86a4eE', symObjAddr: 0xA8F0, symBinAddr: 0xC1BB0, symSize: 0x180 }
  - { offsetInCU: 0x2A0E6, offset: 0x3A4C5C, size: 0x8, addend: 0x0, symName: '__ZN4core3ptr97drop_in_place$LT$syn..punctuated..Punctuated$LT$syn..expr..FieldValue$C$syn..token..Comma$GT$$GT$17h31b81f7462228dcbE', symObjAddr: 0xAA70, symBinAddr: 0xC1D30, symSize: 0xF0 }
  - { offsetInCU: 0x2A42C, offset: 0x3A4FA2, size: 0x8, addend: 0x0, symName: '__ZN4core3ptr98drop_in_place$LT$syn..punctuated..Punctuated$LT$syn..lifetime..Lifetime$C$syn..token..Plus$GT$$GT$17h0f8fc5f20f465f47E', symObjAddr: 0xAB60, symBinAddr: 0xC1E20, symSize: 0xC0 }
  - { offsetInCU: 0x31801, offset: 0x3AC377, size: 0x8, addend: 0x0, symName: __ZN3syn4item7parsing18parse_rest_of_item17h8569c0eb1b7d8242E, symObjAddr: 0xAC80, symBinAddr: 0xC1F40, symSize: 0x4130 }
  - { offsetInCU: 0x3D51E, offset: 0x3B8094, size: 0x8, addend: 0x0, symName: __ZN3syn4item7parsing12parse_macro217h59aca4032c4075c2E, symObjAddr: 0xFC20, symBinAddr: 0xC6EE0, symSize: 0x8D0 }
  - { offsetInCU: 0x3F027, offset: 0x3B9B9D, size: 0x8, addend: 0x0, symName: __ZN3syn4item7parsing14parse_item_use17h87ea73b5b5534563E, symObjAddr: 0x104F0, symBinAddr: 0xC77B0, symSize: 0x520 }
  - { offsetInCU: 0x3FA58, offset: 0x3BA5CE, size: 0x8, addend: 0x0, symName: __ZN3syn4item7parsing14parse_use_tree17ha136166ddfa7b0b8E, symObjAddr: 0x10A10, symBinAddr: 0xC7CD0, symSize: 0xE80 }
  - { offsetInCU: 0x42228, offset: 0x3BCD9E, size: 0x8, addend: 0x0, symName: __ZN3syn4item7parsing14peek_signature17h5908d52294220ab3E, symObjAddr: 0x11890, symBinAddr: 0xC8B50, symSize: 0x380 }
  - { offsetInCU: 0x432C7, offset: 0x3BDE3D, size: 0x8, addend: 0x0, symName: __ZN3syn4item7parsing16parse_rest_of_fn17hff377dc88eaa3b3fE, symObjAddr: 0x11C10, symBinAddr: 0xC8ED0, symSize: 0x560 }
  - { offsetInCU: 0x4403B, offset: 0x3BEBB1, size: 0x8, addend: 0x0, symName: __ZN3syn4item7parsing24parse_fn_arg_or_variadic17h0946b5f8092c2f53E, symObjAddr: 0x12170, symBinAddr: 0xC9430, symSize: 0xEC0 }
  - { offsetInCU: 0x46C33, offset: 0x3C17A9, size: 0x8, addend: 0x0, symName: __ZN3syn4item7parsing13parse_fn_args17hfcbadc903471329dE, symObjAddr: 0x13030, symBinAddr: 0xCA2F0, symSize: 0xA20 }
  - { offsetInCU: 0x47BE0, offset: 0x3C2756, size: 0x8, addend: 0x0, symName: __ZN3syn4item7parsing23parse_foreign_item_type17hbed431625837dc04E, symObjAddr: 0x13A50, symBinAddr: 0xCAD10, symSize: 0x450 }
  - { offsetInCU: 0x482C6, offset: 0x3C2E3C, size: 0x8, addend: 0x0, symName: __ZN3syn4item7parsing15parse_item_type17h69a8e007f956ea7eE, symObjAddr: 0x13EA0, symBinAddr: 0xCB160, symSize: 0x580 }
  - { offsetInCU: 0x48D28, offset: 0x3C389E, size: 0x8, addend: 0x0, symName: __ZN3syn4item7parsing26parse_trait_or_trait_alias17h53e52e5f93715b35E, symObjAddr: 0x14420, symBinAddr: 0xCB6E0, symSize: 0x880 }
  - { offsetInCU: 0x4A71B, offset: 0x3C5291, size: 0x8, addend: 0x0, symName: __ZN3syn4item7parsing19parse_rest_of_trait17h0b8f1e2c2e0da776E, symObjAddr: 0x14CA0, symBinAddr: 0xCBF60, symSize: 0xC10 }
  - { offsetInCU: 0x4BB69, offset: 0x3C66DF, size: 0x8, addend: 0x0, symName: __ZN3syn4item7parsing26parse_start_of_trait_alias17h83335d8e31321462E, symObjAddr: 0x158B0, symBinAddr: 0xCCB70, symSize: 0x4F0 }
  - { offsetInCU: 0x4C542, offset: 0x3C70B8, size: 0x8, addend: 0x0, symName: __ZN3syn4item7parsing25parse_rest_of_trait_alias17hffc9e5855a2cde04E, symObjAddr: 0x15DA0, symBinAddr: 0xCD060, symSize: 0x680 }
  - { offsetInCU: 0x4D127, offset: 0x3C7C9D, size: 0x8, addend: 0x0, symName: __ZN3syn4item7parsing21parse_trait_item_type17h95d0bdc458584a4fE, symObjAddr: 0x16420, symBinAddr: 0xCD6E0, symSize: 0x4C0 }
  - { offsetInCU: 0x4D873, offset: 0x3C83E9, size: 0x8, addend: 0x0, symName: __ZN3syn4item7parsing10parse_impl17he5759138fa3bc5b8E, symObjAddr: 0x168E0, symBinAddr: 0xCDBA0, symSize: 0x15F0 }
  - { offsetInCU: 0x4F18F, offset: 0x3C9D05, size: 0x8, addend: 0x0, symName: __ZN3syn4item7parsing18parse_impl_item_fn17h96506ae9bfc9db41E, symObjAddr: 0x17ED0, symBinAddr: 0xCF190, symSize: 0x770 }
  - { offsetInCU: 0x4FCB7, offset: 0x3CA82D, size: 0x8, addend: 0x0, symName: __ZN3syn4item7parsing20parse_impl_item_type17h3bf2e7aa4b140554E, symObjAddr: 0x18640, symBinAddr: 0xCF900, symSize: 0x4D7 }
  - { offsetInCU: 0x5881E, offset: 0x3D3394, size: 0x8, addend: 0x0, symName: '__ZN5alloc3vec16Vec$LT$T$C$A$GT$4push17h3158ebd1c3360f00E', symObjAddr: 0xAC20, symBinAddr: 0xC1EE0, symSize: 0x60 }
  - { offsetInCU: 0x599DF, offset: 0x3D4555, size: 0x8, addend: 0x0, symName: __ZN3syn4item7parsing16FlexibleItemType5parse17ha511062c5b947fc4E, symObjAddr: 0xEDB0, symBinAddr: 0xC6070, symSize: 0xA10 }
  - { offsetInCU: 0x5A762, offset: 0x3D52D8, size: 0x8, addend: 0x0, symName: __ZN3syn4item7parsing16FlexibleItemType21parse_optional_bounds17hbbaebf3e2d169441E, symObjAddr: 0xF7C0, symBinAddr: 0xC6A80, symSize: 0x310 }
  - { offsetInCU: 0x5AE1D, offset: 0x3D5993, size: 0x8, addend: 0x0, symName: __ZN3syn4item7parsing16FlexibleItemType25parse_optional_definition17hbde9bf5fd31dafffE, symObjAddr: 0xFAD0, symBinAddr: 0xC6D90, symSize: 0x150 }
  - { offsetInCU: 0x1E, offset: 0x3E0F89, size: 0x8, addend: 0x0, symName: '__ZN42_$LT$$RF$T$u20$as$u20$core..fmt..Debug$GT$3fmt17h048264562fa08865E', symObjAddr: 0x0, symBinAddr: 0xCFDE0, symSize: 0x80 }
  - { offsetInCU: 0x2C45, offset: 0x3E3BB0, size: 0x8, addend: 0x0, symName: '__ZN3syn8generics7parsing71_$LT$impl$u20$syn..parse..Parse$u20$for$u20$syn..generics..Generics$GT$5parse17h6b35b0a678693bc9E', symObjAddr: 0x8310, symBinAddr: 0xD7C40, symSize: 0x1010 }
  - { offsetInCU: 0x4DB4, offset: 0x3E5D1F, size: 0x8, addend: 0x0, symName: '__ZN3syn8generics7parsing76_$LT$impl$u20$syn..parse..Parse$u20$for$u20$syn..generics..LifetimeParam$GT$5parse17h3fc29617c6a43bdcE', symObjAddr: 0x9E70, symBinAddr: 0xD8C50, symSize: 0x690 }
  - { offsetInCU: 0x5D51, offset: 0x3E6CBC, size: 0x8, addend: 0x0, symName: '__ZN3syn8generics7parsing77_$LT$impl$u20$syn..parse..Parse$u20$for$u20$syn..generics..BoundLifetimes$GT$5parse17h7a7c384f0cdd4b83E', symObjAddr: 0xA500, symBinAddr: 0xD92E0, symSize: 0x620 }
  - { offsetInCU: 0x6A5E, offset: 0x3E79C9, size: 0x8, addend: 0x0, symName: '__ZN3syn8generics7parsing72_$LT$impl$u20$syn..parse..Parse$u20$for$u20$syn..generics..TypeParam$GT$5parse17h86074eb5794d472dE', symObjAddr: 0xAB20, symBinAddr: 0xD9900, symSize: 0x7F0 }
  - { offsetInCU: 0x7B53, offset: 0x3E8ABE, size: 0x8, addend: 0x0, symName: '__ZN3syn8generics7parsing77_$LT$impl$u20$syn..parse..Parse$u20$for$u20$syn..generics..TypeParamBound$GT$5parse17hef57556d60488532E', symObjAddr: 0xB310, symBinAddr: 0xDA0F0, symSize: 0x1300 }
  - { offsetInCU: 0xB61C, offset: 0x3EC587, size: 0x8, addend: 0x0, symName: '__ZN3syn8generics7parsing73_$LT$impl$u20$syn..parse..Parse$u20$for$u20$syn..generics..TraitBound$GT$5parse17h425a3489f7ef339fE', symObjAddr: 0xCB70, symBinAddr: 0xDB950, symSize: 0x720 }
  - { offsetInCU: 0xC785, offset: 0x3ED6F0, size: 0x8, addend: 0x0, symName: '__ZN3syn8generics7parsing73_$LT$impl$u20$syn..parse..Parse$u20$for$u20$syn..generics..ConstParam$GT$5parse17hf00c756c03f8df0bE', symObjAddr: 0xD360, symBinAddr: 0xDC070, symSize: 0x880 }
  - { offsetInCU: 0xD6D0, offset: 0x3EE63B, size: 0x8, addend: 0x0, symName: '__ZN3syn8generics7parsing74_$LT$impl$u20$syn..parse..Parse$u20$for$u20$syn..generics..WhereClause$GT$5parse17h0184ea7b8fa9bf5fE', symObjAddr: 0xDBE0, symBinAddr: 0xDC8F0, symSize: 0x440 }
  - { offsetInCU: 0xE24D, offset: 0x3EF1B8, size: 0x8, addend: 0x0, symName: '__ZN3syn8generics7parsing77_$LT$impl$u20$syn..parse..Parse$u20$for$u20$syn..generics..WherePredicate$GT$5parse17h285530128cf671e6E', symObjAddr: 0xE020, symBinAddr: 0xDCD30, symSize: 0xEB0 }
  - { offsetInCU: 0x10550, offset: 0x3F14BB, size: 0x8, addend: 0x0, symName: '__ZN3syn8generics8printing80_$LT$impl$u20$quote..to_tokens..ToTokens$u20$for$u20$syn..generics..Generics$GT$9to_tokens17h0ec80491c61b899eE', symObjAddr: 0xEED0, symBinAddr: 0xDDBE0, symSize: 0x240 }
  - { offsetInCU: 0x10D79, offset: 0x3F1CE4, size: 0x8, addend: 0x0, symName: '__ZN3syn8generics8printing84_$LT$impl$u20$quote..to_tokens..ToTokens$u20$for$u20$syn..generics..ImplGenerics$GT$9to_tokens17hcbc91e4fcbfc3836E', symObjAddr: 0xF110, symBinAddr: 0xDDE20, symSize: 0x5B0 }
  - { offsetInCU: 0x11FA7, offset: 0x3F2F12, size: 0x8, addend: 0x0, symName: '__ZN3syn8generics8printing84_$LT$impl$u20$quote..to_tokens..ToTokens$u20$for$u20$syn..generics..TypeGenerics$GT$9to_tokens17heceb5abd9933fc8aE', symObjAddr: 0xF6C0, symBinAddr: 0xDE3D0, symSize: 0x300 }
  - { offsetInCU: 0x12A6E, offset: 0x3F39D9, size: 0x8, addend: 0x0, symName: '__ZN3syn8generics8printing81_$LT$impl$u20$quote..to_tokens..ToTokens$u20$for$u20$syn..generics..Turbofish$GT$9to_tokens17h8bab3e20d5a2d75cE', symObjAddr: 0xF9C0, symBinAddr: 0xDE6D0, symSize: 0x70 }
  - { offsetInCU: 0x12B76, offset: 0x3F3AE1, size: 0x8, addend: 0x0, symName: '__ZN3syn8generics8printing86_$LT$impl$u20$quote..to_tokens..ToTokens$u20$for$u20$syn..generics..BoundLifetimes$GT$9to_tokens17hf35c5fa847c9610bE', symObjAddr: 0xFA30, symBinAddr: 0xDE740, symSize: 0x150 }
  - { offsetInCU: 0x13022, offset: 0x3F3F8D, size: 0x8, addend: 0x0, symName: '__ZN3syn8generics8printing81_$LT$impl$u20$quote..to_tokens..ToTokens$u20$for$u20$syn..generics..TypeParam$GT$9to_tokens17h67a891f1844b10b9E', symObjAddr: 0xFDA0, symBinAddr: 0xDE890, symSize: 0x210 }
  - { offsetInCU: 0x13703, offset: 0x3F466E, size: 0x8, addend: 0x0, symName: '__ZN3syn8generics8printing82_$LT$impl$u20$quote..to_tokens..ToTokens$u20$for$u20$syn..generics..ConstParam$GT$9to_tokens17h19315c88864bea17E', symObjAddr: 0x10050, symBinAddr: 0xDEAA0, symSize: 0x1E0 }
  - { offsetInCU: 0x13AC0, offset: 0x3F4A2B, size: 0x8, addend: 0x0, symName: '__ZN3syn8generics8printing83_$LT$impl$u20$quote..to_tokens..ToTokens$u20$for$u20$syn..generics..WhereClause$GT$9to_tokens17hcd59109d6cd5532bE', symObjAddr: 0x10230, symBinAddr: 0xDEC80, symSize: 0x120 }
  - { offsetInCU: 0x13F73, offset: 0x3F4EDE, size: 0x8, addend: 0x0, symName: '__ZN74_$LT$syn..generics..GenericParam$u20$as$u20$quote..to_tokens..ToTokens$GT$9to_tokens17h7b28c56cca690554E', symObjAddr: 0x10590, symBinAddr: 0xDEDA0, symSize: 0x280 }
  - { offsetInCU: 0x14858, offset: 0x3F57C3, size: 0x8, addend: 0x0, symName: '__ZN76_$LT$syn..generics..TypeParamBound$u20$as$u20$quote..to_tokens..ToTokens$GT$9to_tokens17h626cf29a5d446a91E', symObjAddr: 0x10A70, symBinAddr: 0xDF020, symSize: 0x110 }
  - { offsetInCU: 0x14ABE, offset: 0x3F5A29, size: 0x8, addend: 0x0, symName: '__ZN76_$LT$syn..generics..WherePredicate$u20$as$u20$quote..to_tokens..ToTokens$GT$9to_tokens17h17ebe07335d01c13E', symObjAddr: 0x10B80, symBinAddr: 0xDF130, symSize: 0x220 }
  - { offsetInCU: 0x174F6, offset: 0x3F8461, size: 0x8, addend: 0x0, symName: '__ZN3syn3gen5debug72_$LT$impl$u20$core..fmt..Debug$u20$for$u20$syn..generics..ConstParam$GT$3fmt17ha9f7b0f67af08457E', symObjAddr: 0x11D60, symBinAddr: 0xDFCA0, symSize: 0x130 }
  - { offsetInCU: 0x1755A, offset: 0x3F84C5, size: 0x8, addend: 0x0, symName: '__ZN3syn3gen5debug74_$LT$impl$u20$core..fmt..Debug$u20$for$u20$syn..generics..GenericParam$GT$3fmt17h5caef32536fc70cbE', symObjAddr: 0x11E90, symBinAddr: 0xDFDD0, symSize: 0xF0 }
  - { offsetInCU: 0x17655, offset: 0x3F85C0, size: 0x8, addend: 0x0, symName: '__ZN3syn3gen5debug70_$LT$impl$u20$core..fmt..Debug$u20$for$u20$syn..generics..Generics$GT$3fmt17h1ed4d4391a8231e9E', symObjAddr: 0x11F80, symBinAddr: 0xDFEC0, symSize: 0xC0 }
  - { offsetInCU: 0x176B9, offset: 0x3F8624, size: 0x8, addend: 0x0, symName: '__ZN3syn3gen5debug75_$LT$impl$u20$core..fmt..Debug$u20$for$u20$syn..generics..LifetimeParam$GT$3fmt17h4902b313e61881f5E', symObjAddr: 0x12040, symBinAddr: 0xDFF80, symSize: 0xC0 }
  - { offsetInCU: 0x1771D, offset: 0x3F8688, size: 0x8, addend: 0x0, symName: '__ZN3syn3gen5debug79_$LT$impl$u20$core..fmt..Debug$u20$for$u20$syn..generics..PredicateLifetime$GT$3fmt17h0462a016ccf54112E', symObjAddr: 0x12100, symBinAddr: 0xE0040, symSize: 0xA0 }
  - { offsetInCU: 0x17781, offset: 0x3F86EC, size: 0x8, addend: 0x0, symName: '__ZN3syn3gen5debug75_$LT$impl$u20$core..fmt..Debug$u20$for$u20$syn..generics..PredicateType$GT$3fmt17h4e5ae1618e349609E', symObjAddr: 0x121A0, symBinAddr: 0xE00E0, symSize: 0xC0 }
  - { offsetInCU: 0x177E5, offset: 0x3F8750, size: 0x8, addend: 0x0, symName: '__ZN3syn3gen5debug72_$LT$impl$u20$core..fmt..Debug$u20$for$u20$syn..generics..TraitBound$GT$3fmt17hcce3ea9cd4543985E', symObjAddr: 0x12260, symBinAddr: 0xE01A0, symSize: 0xC0 }
  - { offsetInCU: 0x17849, offset: 0x3F87B4, size: 0x8, addend: 0x0, symName: '__ZN3syn3gen5debug80_$LT$impl$u20$core..fmt..Debug$u20$for$u20$syn..generics..TraitBoundModifier$GT$3fmt17h3680b30614153e24E', symObjAddr: 0x12320, symBinAddr: 0xE0260, symSize: 0xA0 }
  - { offsetInCU: 0x178CC, offset: 0x3F8837, size: 0x8, addend: 0x0, symName: '__ZN3syn3gen5debug71_$LT$impl$u20$core..fmt..Debug$u20$for$u20$syn..generics..TypeParam$GT$3fmt17h8bececbf03655c53E', symObjAddr: 0x123C0, symBinAddr: 0xE0300, symSize: 0x100 }
  - { offsetInCU: 0x17930, offset: 0x3F889B, size: 0x8, addend: 0x0, symName: '__ZN3syn3gen5debug76_$LT$impl$u20$core..fmt..Debug$u20$for$u20$syn..generics..TypeParamBound$GT$3fmt17ha61b65cce1253c1fE', symObjAddr: 0x124C0, symBinAddr: 0xE0400, symSize: 0x130 }
  - { offsetInCU: 0x17A51, offset: 0x3F89BC, size: 0x8, addend: 0x0, symName: '__ZN3syn3gen5debug76_$LT$impl$u20$core..fmt..Debug$u20$for$u20$syn..generics..WherePredicate$GT$3fmt17h3e00040ea14c6929E', symObjAddr: 0x12670, symBinAddr: 0xE0530, symSize: 0xA0 }
  - { offsetInCU: 0x17B78, offset: 0x3F8AE3, size: 0x8, addend: 0x0, symName: '__ZN3syn3gen2eq80_$LT$impl$u20$core..cmp..PartialEq$u20$for$u20$syn..generics..WherePredicate$GT$2eq17h21db4dbf9104f94dE', symObjAddr: 0x137B0, symBinAddr: 0xE0DB0, symSize: 0x2A3 }
  - { offsetInCU: 0x18420, offset: 0x3F938B, size: 0x8, addend: 0x0, symName: '__ZN3syn3gen2eq74_$LT$impl$u20$core..cmp..PartialEq$u20$for$u20$syn..generics..Generics$GT$2eq17hf9d03528272062f7E', symObjAddr: 0x12CD0, symBinAddr: 0xE0910, symSize: 0x160 }
  - { offsetInCU: 0x1893F, offset: 0x3F98AA, size: 0x8, addend: 0x0, symName: '__ZN3syn3gen2eq78_$LT$impl$u20$core..cmp..PartialEq$u20$for$u20$syn..generics..GenericParam$GT$2eq17h1e59257395aee08bE', symObjAddr: 0x12990, symBinAddr: 0xE05D0, symSize: 0x340 }
  - { offsetInCU: 0x18ED7, offset: 0x3F9E42, size: 0x8, addend: 0x0, symName: '__ZN3syn3gen2eq75_$LT$impl$u20$core..cmp..PartialEq$u20$for$u20$syn..generics..TypeParam$GT$2eq17hbb3a4c15e88d40dbE', symObjAddr: 0x13420, symBinAddr: 0xE0A70, symSize: 0x240 }
  - { offsetInCU: 0x193AF, offset: 0x3FA31A, size: 0x8, addend: 0x0, symName: '__ZN3syn3gen2eq80_$LT$impl$u20$core..cmp..PartialEq$u20$for$u20$syn..generics..TypeParamBound$GT$2eq17hfce0bfca74f92d89E', symObjAddr: 0x13660, symBinAddr: 0xE0CB0, symSize: 0x100 }
  - { offsetInCU: 0x19628, offset: 0x3FA593, size: 0x8, addend: 0x0, symName: '__ZN3syn3gen5clone74_$LT$impl$u20$core..clone..Clone$u20$for$u20$syn..generics..ConstParam$GT$5clone17h3026a67a17c10895E', symObjAddr: 0x10E00, symBinAddr: 0xDF350, symSize: 0x1F0 }
  - { offsetInCU: 0x198D9, offset: 0x3FA844, size: 0x8, addend: 0x0, symName: '__ZN3syn3gen5clone77_$LT$impl$u20$core..clone..Clone$u20$for$u20$syn..generics..LifetimeParam$GT$5clone17ha0c1f4877a12e76eE', symObjAddr: 0x111B0, symBinAddr: 0xDF540, symSize: 0x130 }
  - { offsetInCU: 0x19B2D, offset: 0x3FAA98, size: 0x8, addend: 0x0, symName: '__ZN3syn3gen5clone77_$LT$impl$u20$core..clone..Clone$u20$for$u20$syn..generics..PredicateType$GT$5clone17he478b1727e886ac0E', symObjAddr: 0x113C0, symBinAddr: 0xDF670, symSize: 0x150 }
  - { offsetInCU: 0x19CC1, offset: 0x3FAC2C, size: 0x8, addend: 0x0, symName: '__ZN3syn3gen5clone73_$LT$impl$u20$core..clone..Clone$u20$for$u20$syn..generics..TypeParam$GT$5clone17h94ce523cb3afb45dE', symObjAddr: 0x11640, symBinAddr: 0xDF7C0, symSize: 0x2B0 }
  - { offsetInCU: 0x1A1FE, offset: 0x3FB169, size: 0x8, addend: 0x0, symName: '__ZN3syn3gen5clone78_$LT$impl$u20$core..clone..Clone$u20$for$u20$syn..generics..TypeParamBound$GT$5clone17h78cd728b4f45a7a9E', symObjAddr: 0x118F0, symBinAddr: 0xDFA70, symSize: 0x230 }
  - { offsetInCU: 0x1CFBC, offset: 0x3FDF27, size: 0x8, addend: 0x0, symName: '__ZN4core3ptr100drop_in_place$LT$core..option..Option$LT$alloc..boxed..Box$LT$syn..path..GenericArgument$GT$$GT$$GT$17h7435c9de74860622E', symObjAddr: 0x140, symBinAddr: 0xCFF20, symSize: 0x50 }
  - { offsetInCU: 0x1D245, offset: 0x3FE1B0, size: 0x8, addend: 0x0, symName: '__ZN4core3ptr100drop_in_place$LT$syn..punctuated..Punctuated$LT$syn..path..PathSegment$C$syn..token..PathSep$GT$$GT$17hf414cb3581f8337aE', symObjAddr: 0x190, symBinAddr: 0xCFF70, symSize: 0x140 }
  - { offsetInCU: 0x1D779, offset: 0x3FE6E4, size: 0x8, addend: 0x0, symName: '__ZN4core3ptr103drop_in_place$LT$core..option..Option$LT$alloc..boxed..Box$LT$syn..generics..TypeParamBound$GT$$GT$$GT$17h5974f03e36b1a9c3E', symObjAddr: 0x2D0, symBinAddr: 0xD00B0, symSize: 0x50 }
  - { offsetInCU: 0x1D9C4, offset: 0x3FE92F, size: 0x8, addend: 0x0, symName: '__ZN4core3ptr103drop_in_place$LT$core..option..Option$LT$alloc..boxed..Box$LT$syn..generics..WherePredicate$GT$$GT$$GT$17hdd5111a374d8d6f2E', symObjAddr: 0x320, symBinAddr: 0xD0100, symSize: 0xD0 }
  - { offsetInCU: 0x1DD57, offset: 0x3FECC2, size: 0x8, addend: 0x0, symName: '__ZN4core3ptr103drop_in_place$LT$syn..punctuated..Punctuated$LT$syn..generics..GenericParam$C$syn..token..Comma$GT$$GT$17hf42353fa44ed6da8E.llvm.14890500243436994185', symObjAddr: 0x3F0, symBinAddr: 0xD01D0, symSize: 0xF0 }
  - { offsetInCU: 0x1E17F, offset: 0x3FF0EA, size: 0x8, addend: 0x0, symName: '__ZN4core3ptr104drop_in_place$LT$syn..punctuated..Punctuated$LT$syn..generics..TypeParamBound$C$syn..token..Plus$GT$$GT$17h532f52c4a894b056E', symObjAddr: 0x4E0, symBinAddr: 0xD02C0, symSize: 0x160 }
  - { offsetInCU: 0x1E6ED, offset: 0x3FF658, size: 0x8, addend: 0x0, symName: '__ZN4core3ptr105drop_in_place$LT$syn..punctuated..Punctuated$LT$syn..generics..WherePredicate$C$syn..token..Comma$GT$$GT$17h935f9826ba562349E', symObjAddr: 0x640, symBinAddr: 0xD0420, symSize: 0x80 }
  - { offsetInCU: 0x1E9AF, offset: 0x3FF91A, size: 0x8, addend: 0x0, symName: '__ZN4core3ptr34drop_in_place$LT$syn..lit..Lit$GT$17h8902f5ff67917034E', symObjAddr: 0x6C0, symBinAddr: 0xD04A0, symSize: 0x110 }
  - { offsetInCU: 0x1EF46, offset: 0x3FFEB1, size: 0x8, addend: 0x0, symName: '__ZN4core3ptr34drop_in_place$LT$syn..pat..Pat$GT$17h4581eea028ec0969E', symObjAddr: 0x7D0, symBinAddr: 0xD05B0, symSize: 0x1000 }
  - { offsetInCU: 0x22A8A, offset: 0x4039F5, size: 0x8, addend: 0x0, symName: '__ZN4core3ptr34drop_in_place$LT$syn..ty..Type$GT$17h369e41ad4a9f1ae0E.llvm.14890500243436994185', symObjAddr: 0x17D0, symBinAddr: 0xD15B0, symSize: 0x4F0 }
  - { offsetInCU: 0x23A05, offset: 0x404970, size: 0x8, addend: 0x0, symName: '__ZN4core3ptr35drop_in_place$LT$syn..token..Gt$GT$17h108b7f55c11e3322E', symObjAddr: 0x1CC0, symBinAddr: 0xD1AA0, symSize: 0x10 }
  - { offsetInCU: 0x2403F, offset: 0x404FAA, size: 0x8, addend: 0x0, symName: '__ZN4core3ptr36drop_in_place$LT$syn..expr..Expr$GT$17h0f7fd4c749bae801E.llvm.14890500243436994185', symObjAddr: 0x1CD0, symBinAddr: 0xD1AB0, symSize: 0x28E0 }
  - { offsetInCU: 0x2D4D1, offset: 0x40E43C, size: 0x8, addend: 0x0, symName: '__ZN4core3ptr36drop_in_place$LT$syn..mac..Macro$GT$17h4ffde962df30ebe2E', symObjAddr: 0x45B0, symBinAddr: 0xD4390, symSize: 0x40 }
  - { offsetInCU: 0x2D587, offset: 0x40E4F2, size: 0x8, addend: 0x0, symName: '__ZN4core3ptr36drop_in_place$LT$syn..path..Path$GT$17habea856181211e1cE', symObjAddr: 0x45F0, symBinAddr: 0xD43D0, symSize: 0x220 }
  - { offsetInCU: 0x2DEBC, offset: 0x40EE27, size: 0x8, addend: 0x0, symName: '__ZN4core3ptr37drop_in_place$LT$syn..stmt..Block$GT$17hcc21a21cf949414cE', symObjAddr: 0x4810, symBinAddr: 0xD45F0, symSize: 0xD0 }
  - { offsetInCU: 0x2E160, offset: 0x40F0CB, size: 0x8, addend: 0x0, symName: '__ZN4core3ptr38drop_in_place$LT$$RF$syn..ty..Type$GT$17h56ca01d0c6036eddE', symObjAddr: 0x48E0, symBinAddr: 0xD46C0, symSize: 0x10 }
  - { offsetInCU: 0x2E18C, offset: 0x40F0F7, size: 0x8, addend: 0x0, symName: '__ZN4core3ptr38drop_in_place$LT$syn..expr..Member$GT$17h022cbe5553aa40faE', symObjAddr: 0x48F0, symBinAddr: 0xD46D0, symSize: 0x30 }
  - { offsetInCU: 0x2E289, offset: 0x40F1F4, size: 0x8, addend: 0x0, symName: '__ZN4core3ptr39drop_in_place$LT$proc_macro2..Ident$GT$17h8101e88c3ac359d6E.llvm.14890500243436994185', symObjAddr: 0x4920, symBinAddr: 0xD4700, symSize: 0x30 }
  - { offsetInCU: 0x2E367, offset: 0x40F2D2, size: 0x8, addend: 0x0, symName: '__ZN4core3ptr40drop_in_place$LT$syn..ty..ReturnType$GT$17h02cf41e2fec63d90E', symObjAddr: 0x4950, symBinAddr: 0xD4730, symSize: 0x50 }
  - { offsetInCU: 0x2E4D9, offset: 0x40F444, size: 0x8, addend: 0x0, symName: '__ZN4core3ptr41drop_in_place$LT$syn..expr..ExprConst$GT$17h725a13e551d9f276E', symObjAddr: 0x49A0, symBinAddr: 0xD4780, symSize: 0x180 }
  - { offsetInCU: 0x2EA2E, offset: 0x40F999, size: 0x8, addend: 0x0, symName: '__ZN4core3ptr44drop_in_place$LT$syn..lifetime..Lifetime$GT$17hf0cdec2e9ec456d6E.llvm.14890500243436994185', symObjAddr: 0x4B60, symBinAddr: 0xD4900, symSize: 0x30 }
  - { offsetInCU: 0x2EBA7, offset: 0x40FB12, size: 0x8, addend: 0x0, symName: '__ZN4core3ptr44drop_in_place$LT$syn..parse..ParseBuffer$GT$17hd0dadba44a19aec2E', symObjAddr: 0x4B90, symBinAddr: 0xD4930, symSize: 0x70 }
  - { offsetInCU: 0x2EFDC, offset: 0x40FF47, size: 0x8, addend: 0x0, symName: '__ZN4core3ptr45drop_in_place$LT$proc_macro2..TokenStream$GT$17h3405f6c513e9f6cbE.llvm.14890500243436994185', symObjAddr: 0x4C00, symBinAddr: 0xD49A0, symSize: 0x140 }
  - { offsetInCU: 0x2F44B, offset: 0x4103B6, size: 0x8, addend: 0x0, symName: '__ZN4core3ptr45drop_in_place$LT$syn..generics..TypeParam$GT$17he5eda51070b7de47E.llvm.14890500243436994185', symObjAddr: 0x4D40, symBinAddr: 0xD4AE0, symSize: 0x230 }
  - { offsetInCU: 0x2FC47, offset: 0x410BB2, size: 0x8, addend: 0x0, symName: '__ZN4core3ptr45drop_in_place$LT$syn..path..PathArguments$GT$17h7160021b3fdea550E', symObjAddr: 0x4F70, symBinAddr: 0xD4D10, symSize: 0x170 }
  - { offsetInCU: 0x300E4, offset: 0x41104F, size: 0x8, addend: 0x0, symName: '__ZN4core3ptr46drop_in_place$LT$syn..generics..ConstParam$GT$17hab0a58c4af8c549cE.llvm.14890500243436994185', symObjAddr: 0x50E0, symBinAddr: 0xD4E80, symSize: 0x150 }
  - { offsetInCU: 0x304B1, offset: 0x41141C, size: 0x8, addend: 0x0, symName: '__ZN4core3ptr46drop_in_place$LT$syn..generics..TraitBound$GT$17h73aacd08fea17a2cE.llvm.14890500243436994185', symObjAddr: 0x5230, symBinAddr: 0xD4FD0, symSize: 0xF0 }
  - { offsetInCU: 0x30818, offset: 0x411783, size: 0x8, addend: 0x0, symName: '__ZN4core3ptr47drop_in_place$LT$syn..path..GenericArgument$GT$17h54f8794633f96823E', symObjAddr: 0x5320, symBinAddr: 0xD50C0, symSize: 0x4A0 }
  - { offsetInCU: 0x318BF, offset: 0x41282A, size: 0x8, addend: 0x0, symName: '__ZN4core3ptr49drop_in_place$LT$syn..generics..LifetimeParam$GT$17h41a7c7a290ea6289E.llvm.14890500243436994185', symObjAddr: 0x57C0, symBinAddr: 0xD5560, symSize: 0xF0 }
  - { offsetInCU: 0x31C79, offset: 0x412BE4, size: 0x8, addend: 0x0, symName: '__ZN4core3ptr49drop_in_place$LT$syn..generics..PredicateType$GT$17hf38482bec426e936E.llvm.14890500243436994185', symObjAddr: 0x58B0, symBinAddr: 0xD5650, symSize: 0x70 }
  - { offsetInCU: 0x31CE9, offset: 0x412C54, size: 0x8, addend: 0x0, symName: '__ZN4core3ptr50drop_in_place$LT$syn..generics..TypeParamBound$GT$17hcd7771d4c6c221efE', symObjAddr: 0x5920, symBinAddr: 0xD56C0, symSize: 0xA0 }
  - { offsetInCU: 0x31E50, offset: 0x412DBB, size: 0x8, addend: 0x0, symName: '__ZN4core3ptr53drop_in_place$LT$syn..generics..PredicateLifetime$GT$17h6cfb0a2f462120e2E.llvm.14890500243436994185', symObjAddr: 0x59C0, symBinAddr: 0xD5760, symSize: 0x40 }
  - { offsetInCU: 0x31F66, offset: 0x412ED1, size: 0x8, addend: 0x0, symName: '__ZN4core3ptr58drop_in_place$LT$alloc..vec..Vec$LT$syn..expr..Arm$GT$$GT$17h1a55df3d2cba1daaE', symObjAddr: 0x5A00, symBinAddr: 0xD57A0, symSize: 0xD0 }
  - { offsetInCU: 0x321F3, offset: 0x41315E, size: 0x8, addend: 0x0, symName: '__ZN4core3ptr59drop_in_place$LT$alloc..boxed..Box$LT$syn..pat..Pat$GT$$GT$17h563b135d87aca8abE', symObjAddr: 0x5AD0, symBinAddr: 0xD5870, symSize: 0x50 }
  - { offsetInCU: 0x3234E, offset: 0x4132B9, size: 0x8, addend: 0x0, symName: '__ZN4core3ptr59drop_in_place$LT$alloc..boxed..Box$LT$syn..ty..Type$GT$$GT$17hffed36bad83adacbE', symObjAddr: 0x5B20, symBinAddr: 0xD58C0, symSize: 0x50 }
  - { offsetInCU: 0x324A9, offset: 0x413414, size: 0x8, addend: 0x0, symName: '__ZN4core3ptr61drop_in_place$LT$alloc..boxed..Box$LT$syn..expr..Expr$GT$$GT$17h01091e47f131475dE', symObjAddr: 0x5B70, symBinAddr: 0xD5910, symSize: 0x50 }
  - { offsetInCU: 0x32680, offset: 0x4135EB, size: 0x8, addend: 0x0, symName: '__ZN4core3ptr61drop_in_place$LT$syn..path..ParenthesizedGenericArguments$GT$17h43d4aac5494326a7E', symObjAddr: 0x5BC0, symBinAddr: 0xD5960, symSize: 0x170 }
  - { offsetInCU: 0x32C47, offset: 0x413BB2, size: 0x8, addend: 0x0, symName: '__ZN4core3ptr62drop_in_place$LT$core..option..Option$LT$syn..ty..Type$GT$$GT$17h3a1cecad44a62011E', symObjAddr: 0x5D30, symBinAddr: 0xD5AD0, symSize: 0x20 }
  - { offsetInCU: 0x32C62, offset: 0x413BCD, size: 0x8, addend: 0x0, symName: '__ZN4core3ptr62drop_in_place$LT$syn..path..AngleBracketedGenericArguments$GT$17hc5b69f68243636ddE', symObjAddr: 0x5D50, symBinAddr: 0xD5AF0, symSize: 0x120 }
  - { offsetInCU: 0x33078, offset: 0x413FE3, size: 0x8, addend: 0x0, symName: '__ZN4core3ptr63drop_in_place$LT$alloc..boxed..Box$LT$syn..lit..LitRepr$GT$$GT$17hd8839b7fb35ee7afE', symObjAddr: 0x5E70, symBinAddr: 0xD5C10, symSize: 0x60 }
  - { offsetInCU: 0x3336D, offset: 0x4142D8, size: 0x8, addend: 0x0, symName: '__ZN4core3ptr64drop_in_place$LT$alloc..boxed..Box$LT$syn..pat..FieldPat$GT$$GT$17h4980b70a7597cc08E', symObjAddr: 0x5ED0, symBinAddr: 0xD5C70, symSize: 0x140 }
  - { offsetInCU: 0x33A18, offset: 0x414983, size: 0x8, addend: 0x0, symName: '__ZN4core3ptr64drop_in_place$LT$alloc..boxed..Box$LT$syn..ty..BareFnArg$GT$$GT$17h8b34096c620314efE', symObjAddr: 0x6010, symBinAddr: 0xD5DB0, symSize: 0x140 }
  - { offsetInCU: 0x33F3C, offset: 0x414EA7, size: 0x8, addend: 0x0, symName: '__ZN4core3ptr64drop_in_place$LT$alloc..vec..Vec$LT$syn..attr..Attribute$GT$$GT$17h3c8f2a04e701c675E.llvm.14890500243436994185', symObjAddr: 0x6150, symBinAddr: 0xD5EF0, symSize: 0xD0 }
  - { offsetInCU: 0x341C9, offset: 0x415134, size: 0x8, addend: 0x0, symName: '__ZN4core3ptr64drop_in_place$LT$core..option..Option$LT$syn..expr..Expr$GT$$GT$17h05da9b5d811c4e5bE', symObjAddr: 0x6220, symBinAddr: 0xD5FC0, symSize: 0x20 }
  - { offsetInCU: 0x341E4, offset: 0x41514F, size: 0x8, addend: 0x0, symName: '__ZN4core3ptr65drop_in_place$LT$core..option..Option$LT$syn..expr..Label$GT$$GT$17h78189e72a8cb7951E', symObjAddr: 0x6240, symBinAddr: 0xD5FE0, symSize: 0x30 }
  - { offsetInCU: 0x3431F, offset: 0x41528A, size: 0x8, addend: 0x0, symName: '__ZN4core3ptr66drop_in_place$LT$core..option..Option$LT$syn..pat..PatRest$GT$$GT$17h61677cf4ff3a7393E', symObjAddr: 0x6270, symBinAddr: 0xD6010, symSize: 0xE0 }
  - { offsetInCU: 0x345A3, offset: 0x41550E, size: 0x8, addend: 0x0, symName: '__ZN4core3ptr67drop_in_place$LT$alloc..boxed..Box$LT$syn..expr..FieldValue$GT$$GT$17h93aaccf8aa22ef88E', symObjAddr: 0x6350, symBinAddr: 0xD60F0, symSize: 0x140 }
  - { offsetInCU: 0x34AA7, offset: 0x415A12, size: 0x8, addend: 0x0, symName: '__ZN4core3ptr68drop_in_place$LT$alloc..boxed..Box$LT$syn..path..PathSegment$GT$$GT$17h709dabdc13b58a71E', symObjAddr: 0x6490, symBinAddr: 0xD6230, symSize: 0x190 }
  - { offsetInCU: 0x35185, offset: 0x4160F0, size: 0x8, addend: 0x0, symName: '__ZN4core3ptr70drop_in_place$LT$core..option..Option$LT$syn..ty..BareVariadic$GT$$GT$17h45399348ea4b8d55E', symObjAddr: 0x6620, symBinAddr: 0xD63C0, symSize: 0x120 }
  - { offsetInCU: 0x356B2, offset: 0x41661D, size: 0x8, addend: 0x0, symName: '__ZN4core3ptr72drop_in_place$LT$alloc..boxed..Box$LT$syn..path..GenericArgument$GT$$GT$17haa7dd8b716637b54E', symObjAddr: 0x6740, symBinAddr: 0xD64E0, symSize: 0x2B0 }
  - { offsetInCU: 0x3603D, offset: 0x416FA8, size: 0x8, addend: 0x0, symName: '__ZN4core3ptr72drop_in_place$LT$core..option..Option$LT$syn..lifetime..Lifetime$GT$$GT$17hfc363ccdd8bd9c32E', symObjAddr: 0x69F0, symBinAddr: 0xD6790, symSize: 0x30 }
  - { offsetInCU: 0x36159, offset: 0x4170C4, size: 0x8, addend: 0x0, symName: '__ZN4core3ptr73drop_in_place$LT$alloc..boxed..Box$LT$syn..generics..GenericParam$GT$$GT$17hf6951dcd5ae07324E.llvm.14890500243436994185', symObjAddr: 0x6A20, symBinAddr: 0xD67C0, symSize: 0x80 }
  - { offsetInCU: 0x362D1, offset: 0x41723C, size: 0x8, addend: 0x0, symName: '__ZN4core3ptr75drop_in_place$LT$alloc..boxed..Box$LT$syn..generics..TypeParamBound$GT$$GT$17he61c00698a311a34E', symObjAddr: 0x6AA0, symBinAddr: 0xD6840, symSize: 0x160 }
  - { offsetInCU: 0x36878, offset: 0x4177E3, size: 0x8, addend: 0x0, symName: '__ZN4core3ptr75drop_in_place$LT$core..option..Option$LT$syn..generics..WhereClause$GT$$GT$17hdce7670be9790a3dE', symObjAddr: 0x6C00, symBinAddr: 0xD69A0, symSize: 0x90 }
  - { offsetInCU: 0x36AD1, offset: 0x417A3C, size: 0x8, addend: 0x0, symName: '__ZN4core3ptr78drop_in_place$LT$core..option..Option$LT$syn..generics..BoundLifetimes$GT$$GT$17h27486b95316663b5E', symObjAddr: 0x6C90, symBinAddr: 0xD6A30, symSize: 0x20 }
  - { offsetInCU: 0x36B66, offset: 0x417AD1, size: 0x8, addend: 0x0, symName: '__ZN4core3ptr86drop_in_place$LT$syn..punctuated..Punctuated$LT$syn..pat..Pat$C$syn..token..Or$GT$$GT$17h8e9173df21a44316E', symObjAddr: 0x6CB0, symBinAddr: 0xD6A50, symSize: 0x120 }
  - { offsetInCU: 0x36FAC, offset: 0x417F17, size: 0x8, addend: 0x0, symName: '__ZN4core3ptr87drop_in_place$LT$core..option..Option$LT$alloc..boxed..Box$LT$syn..pat..Pat$GT$$GT$$GT$17hd7b7c69f601b3926E', symObjAddr: 0x6DD0, symBinAddr: 0xD6B70, symSize: 0x50 }
  - { offsetInCU: 0x3711E, offset: 0x418089, size: 0x8, addend: 0x0, symName: '__ZN4core3ptr87drop_in_place$LT$core..option..Option$LT$alloc..boxed..Box$LT$syn..ty..Type$GT$$GT$$GT$17hd74f5d971aec2972E', symObjAddr: 0x6E20, symBinAddr: 0xD6BC0, symSize: 0x50 }
  - { offsetInCU: 0x37290, offset: 0x4181FB, size: 0x8, addend: 0x0, symName: '__ZN4core3ptr89drop_in_place$LT$core..option..Option$LT$alloc..boxed..Box$LT$syn..expr..Expr$GT$$GT$$GT$17h8e135ac1a25a2dc5E', symObjAddr: 0x6E70, symBinAddr: 0xD6C10, symSize: 0x50 }
  - { offsetInCU: 0x37440, offset: 0x4183AB, size: 0x8, addend: 0x0, symName: '__ZN4core3ptr89drop_in_place$LT$syn..punctuated..Punctuated$LT$syn..pat..Pat$C$syn..token..Comma$GT$$GT$17h8d60e47f3fb1f87aE', symObjAddr: 0x6EC0, symBinAddr: 0xD6C60, symSize: 0x120 }
  - { offsetInCU: 0x3789D, offset: 0x418808, size: 0x8, addend: 0x0, symName: '__ZN4core3ptr89drop_in_place$LT$syn..punctuated..Punctuated$LT$syn..ty..Type$C$syn..token..Comma$GT$$GT$17ha919b3114742fb9dE', symObjAddr: 0x6FE0, symBinAddr: 0xD6D80, symSize: 0x120 }
  - { offsetInCU: 0x37CE7, offset: 0x418C52, size: 0x8, addend: 0x0, symName: '__ZN4core3ptr90drop_in_place$LT$core..option..Option$LT$syn..path..AngleBracketedGenericArguments$GT$$GT$17h80d9a5f0818c8bd9E', symObjAddr: 0x7100, symBinAddr: 0xD6EA0, symSize: 0x130 }
  - { offsetInCU: 0x38152, offset: 0x4190BD, size: 0x8, addend: 0x0, symName: '__ZN4core3ptr91drop_in_place$LT$syn..punctuated..Punctuated$LT$syn..expr..Expr$C$syn..token..Comma$GT$$GT$17h4f39b83dc86a4159E', symObjAddr: 0x7230, symBinAddr: 0xD6FD0, symSize: 0x120 }
  - { offsetInCU: 0x385AF, offset: 0x41951A, size: 0x8, addend: 0x0, symName: '__ZN4core3ptr94drop_in_place$LT$syn..punctuated..Punctuated$LT$syn..pat..FieldPat$C$syn..token..Comma$GT$$GT$17h112950ea198c8281E', symObjAddr: 0x7350, symBinAddr: 0xD70F0, symSize: 0xF0 }
  - { offsetInCU: 0x38879, offset: 0x4197E4, size: 0x8, addend: 0x0, symName: '__ZN4core3ptr94drop_in_place$LT$syn..punctuated..Punctuated$LT$syn..ty..BareFnArg$C$syn..token..Comma$GT$$GT$17h1c7b44310f06243dE', symObjAddr: 0x7440, symBinAddr: 0xD71E0, symSize: 0xF0 }
  - { offsetInCU: 0x38B43, offset: 0x419AAE, size: 0x8, addend: 0x0, symName: '__ZN4core3ptr96drop_in_place$LT$core..option..Option$LT$alloc..boxed..Box$LT$syn..path..PathSegment$GT$$GT$$GT$17hb447d0f626c86a4eE', symObjAddr: 0x7530, symBinAddr: 0xD72D0, symSize: 0x90 }
  - { offsetInCU: 0x38DC5, offset: 0x419D30, size: 0x8, addend: 0x0, symName: '__ZN4core3ptr97drop_in_place$LT$syn..punctuated..Punctuated$LT$syn..expr..FieldValue$C$syn..token..Comma$GT$$GT$17h31b81f7462228dcbE', symObjAddr: 0x75C0, symBinAddr: 0xD7360, symSize: 0xF0 }
  - { offsetInCU: 0x3908F, offset: 0x419FFA, size: 0x8, addend: 0x0, symName: '__ZN4core3ptr98drop_in_place$LT$alloc..vec..Vec$LT$$LP$syn..path..GenericArgument$C$syn..token..Comma$RP$$GT$$GT$17h0657ff261f33b640E', symObjAddr: 0x76B0, symBinAddr: 0xD7450, symSize: 0xD0 }
  - { offsetInCU: 0x39398, offset: 0x41A303, size: 0x8, addend: 0x0, symName: '__ZN4core3ptr98drop_in_place$LT$syn..punctuated..Punctuated$LT$syn..lifetime..Lifetime$C$syn..token..Plus$GT$$GT$17h0f8fc5f20f465f47E.llvm.14890500243436994185', symObjAddr: 0x7780, symBinAddr: 0xD7520, symSize: 0xC0 }
  - { offsetInCU: 0x3B72A, offset: 0x41C695, size: 0x8, addend: 0x0, symName: '__ZN66_$LT$core..option..Option$LT$T$GT$$u20$as$u20$core..fmt..Debug$GT$3fmt17h0996e73bb22286fbE', symObjAddr: 0x7870, symBinAddr: 0xD75E0, symSize: 0x60 }
  - { offsetInCU: 0x3B790, offset: 0x41C6FB, size: 0x8, addend: 0x0, symName: '__ZN66_$LT$core..option..Option$LT$T$GT$$u20$as$u20$core..fmt..Debug$GT$3fmt17h0bb03e7392ca0ca1E', symObjAddr: 0x78D0, symBinAddr: 0xD7640, symSize: 0x60 }
  - { offsetInCU: 0x3B7F6, offset: 0x41C761, size: 0x8, addend: 0x0, symName: '__ZN66_$LT$core..option..Option$LT$T$GT$$u20$as$u20$core..fmt..Debug$GT$3fmt17h40c9aeccdb26b885E', symObjAddr: 0x7930, symBinAddr: 0xD76A0, symSize: 0x50 }
  - { offsetInCU: 0x3B85C, offset: 0x41C7C7, size: 0x8, addend: 0x0, symName: '__ZN66_$LT$core..option..Option$LT$T$GT$$u20$as$u20$core..fmt..Debug$GT$3fmt17h513ed78415650184E', symObjAddr: 0x7980, symBinAddr: 0xD76F0, symSize: 0x60 }
  - { offsetInCU: 0x3B8C2, offset: 0x41C82D, size: 0x8, addend: 0x0, symName: '__ZN66_$LT$core..option..Option$LT$T$GT$$u20$as$u20$core..fmt..Debug$GT$3fmt17h52f8abc6ecef4dffE', symObjAddr: 0x79E0, symBinAddr: 0xD7750, symSize: 0x50 }
  - { offsetInCU: 0x3B928, offset: 0x41C893, size: 0x8, addend: 0x0, symName: '__ZN66_$LT$core..option..Option$LT$T$GT$$u20$as$u20$core..fmt..Debug$GT$3fmt17h913f263eba8a96c0E', symObjAddr: 0x7A30, symBinAddr: 0xD77A0, symSize: 0x50 }
  - { offsetInCU: 0x3B98E, offset: 0x41C8F9, size: 0x8, addend: 0x0, symName: '__ZN66_$LT$core..option..Option$LT$T$GT$$u20$as$u20$core..fmt..Debug$GT$3fmt17hae14bb656222c68cE', symObjAddr: 0x7A80, symBinAddr: 0xD77F0, symSize: 0x50 }
  - { offsetInCU: 0x3B9F4, offset: 0x41C95F, size: 0x8, addend: 0x0, symName: '__ZN66_$LT$core..option..Option$LT$T$GT$$u20$as$u20$core..fmt..Debug$GT$3fmt17hc55b81e458ee9343E', symObjAddr: 0x7AD0, symBinAddr: 0xD7840, symSize: 0x60 }
  - { offsetInCU: 0x3BA5A, offset: 0x41C9C5, size: 0x8, addend: 0x0, symName: '__ZN66_$LT$core..option..Option$LT$T$GT$$u20$as$u20$core..fmt..Debug$GT$3fmt17hf122eaf807502adcE', symObjAddr: 0x7B30, symBinAddr: 0xD78A0, symSize: 0x60 }
  - { offsetInCU: 0x3C78D, offset: 0x41D6F8, size: 0x8, addend: 0x0, symName: '__ZN42_$LT$$RF$T$u20$as$u20$core..fmt..Debug$GT$3fmt17h048264562fa08865E', symObjAddr: 0x0, symBinAddr: 0xCFDE0, symSize: 0x80 }
  - { offsetInCU: 0x3C811, offset: 0x41D77C, size: 0x8, addend: 0x0, symName: '__ZN42_$LT$$RF$T$u20$as$u20$core..fmt..Debug$GT$3fmt17he56a49669047e1d8E', symObjAddr: 0x80, symBinAddr: 0xCFE60, symSize: 0xC0 }
  - { offsetInCU: 0x3EDBD, offset: 0x41FD28, size: 0x8, addend: 0x0, symName: '__ZN73_$LT$$u5b$A$u5d$$u20$as$u20$core..slice..cmp..SlicePartialEq$LT$B$GT$$GT$5equal17h6c212ef104683543E', symObjAddr: 0x7C10, symBinAddr: 0xD7900, symSize: 0x340 }
  - { offsetInCU: 0x42C11, offset: 0x423B7C, size: 0x8, addend: 0x0, symName: _anon.6c56688e3235faea49bc841d595e3fdd.53.llvm.14890500243436994185, symObjAddr: 0x15350, symBinAddr: 0x26E8C0, symSize: 0x0 }
  - { offsetInCU: 0x42C5C, offset: 0x423BC7, size: 0x8, addend: 0x0, symName: _anon.6c56688e3235faea49bc841d595e3fdd.55.llvm.14890500243436994185, symObjAddr: 0x15370, symBinAddr: 0x26E8E0, symSize: 0x0 }
  - { offsetInCU: 0x42CA7, offset: 0x423C12, size: 0x8, addend: 0x0, symName: _anon.6c56688e3235faea49bc841d595e3fdd.57.llvm.14890500243436994185, symObjAddr: 0x15390, symBinAddr: 0x26E900, symSize: 0x0 }
  - { offsetInCU: 0x42CF2, offset: 0x423C5D, size: 0x8, addend: 0x0, symName: _anon.6c56688e3235faea49bc841d595e3fdd.88.llvm.14890500243436994185, symObjAddr: 0x15550, symBinAddr: 0x26EAC0, symSize: 0x0 }
  - { offsetInCU: 0x42D3D, offset: 0x423CA8, size: 0x8, addend: 0x0, symName: _anon.6c56688e3235faea49bc841d595e3fdd.90.llvm.14890500243436994185, symObjAddr: 0x15570, symBinAddr: 0x26EAE0, symSize: 0x0 }
  - { offsetInCU: 0x42D88, offset: 0x423CF3, size: 0x8, addend: 0x0, symName: _anon.6c56688e3235faea49bc841d595e3fdd.97.llvm.14890500243436994185, symObjAddr: 0x155D0, symBinAddr: 0x26EB40, symSize: 0x0 }
  - { offsetInCU: 0x42DD3, offset: 0x423D3E, size: 0x8, addend: 0x0, symName: _anon.6c56688e3235faea49bc841d595e3fdd.98.llvm.14890500243436994185, symObjAddr: 0x155F0, symBinAddr: 0x26EB60, symSize: 0x0 }
  - { offsetInCU: 0x45086, offset: 0x425FF1, size: 0x8, addend: 0x0, symName: '__ZN3syn8generics7parsing47_$LT$impl$u20$syn..generics..TypeParamBound$GT$14parse_multiple17h0a18ee52418b5a4eE', symObjAddr: 0xC610, symBinAddr: 0xDB3F0, symSize: 0x560 }
  - { offsetInCU: 0x1E, offset: 0x430C26, size: 0x8, addend: 0x0, symName: '__ZN42_$LT$$RF$T$u20$as$u20$core..fmt..Debug$GT$3fmt17h0013ce1f89b1ec39E', symObjAddr: 0x0, symBinAddr: 0xE1060, symSize: 0x20 }
  - { offsetInCU: 0xEA7, offset: 0x431AAF, size: 0x8, addend: 0x0, symName: '__ZN51_$LT$syn..token..In$u20$as$u20$core..fmt..Debug$GT$3fmt17h6a9a772d9ecd8e15E', symObjAddr: 0x2A50, symBinAddr: 0xE2370, symSize: 0x20 }
  - { offsetInCU: 0xEFE, offset: 0x431B06, size: 0x8, addend: 0x0, symName: '__ZN51_$LT$syn..token..Eq$u20$as$u20$core..fmt..Debug$GT$3fmt17h3a69dc9b04285b5fE', symObjAddr: 0x6B00, symBinAddr: 0xE3280, symSize: 0x20 }
  - { offsetInCU: 0xF55, offset: 0x431B5D, size: 0x8, addend: 0x0, symName: '__ZN54_$LT$syn..token..Brace$u20$as$u20$core..fmt..Debug$GT$3fmt17hb0be66ac3010c493E', symObjAddr: 0x6FA0, symBinAddr: 0xE3660, symSize: 0x20 }
  - { offsetInCU: 0xFA9, offset: 0x431BB1, size: 0x8, addend: 0x0, symName: '__ZN52_$LT$syn..token..For$u20$as$u20$core..fmt..Debug$GT$3fmt17hca84c4677ee931a8E', symObjAddr: 0x26F0, symBinAddr: 0xE2290, symSize: 0x20 }
  - { offsetInCU: 0x102E, offset: 0x431C36, size: 0x8, addend: 0x0, symName: '__ZN52_$LT$syn..token..And$u20$as$u20$core..fmt..Debug$GT$3fmt17hf6be0d7d403f3226E', symObjAddr: 0x6950, symBinAddr: 0xE3120, symSize: 0x20 }
  - { offsetInCU: 0x1082, offset: 0x431C8A, size: 0x8, addend: 0x0, symName: '__ZN54_$LT$syn..token..Async$u20$as$u20$core..fmt..Debug$GT$3fmt17he7705c622036a8a8E', symObjAddr: 0x13D0, symBinAddr: 0xE1F10, symSize: 0x20 }
  - { offsetInCU: 0x10D9, offset: 0x431CE1, size: 0x8, addend: 0x0, symName: '__ZN55_$LT$syn..token..DotDot$u20$as$u20$core..fmt..Debug$GT$3fmt17h305be372e600d666E', symObjAddr: 0x6AA0, symBinAddr: 0xE3220, symSize: 0x20 }
  - { offsetInCU: 0x1130, offset: 0x431D38, size: 0x8, addend: 0x0, symName: '__ZN53_$LT$syn..token..Semi$u20$as$u20$core..fmt..Debug$GT$3fmt17h35075fb98e536e5aE', symObjAddr: 0x6E00, symBinAddr: 0xE3540, symSize: 0x20 }
  - { offsetInCU: 0x1187, offset: 0x431D8F, size: 0x8, addend: 0x0, symName: '__ZN52_$LT$syn..token..Not$u20$as$u20$core..fmt..Debug$GT$3fmt17hb156b0d40896aa6dE', symObjAddr: 0x6C80, symBinAddr: 0xE33C0, symSize: 0x20 }
  - { offsetInCU: 0x11DB, offset: 0x431DE3, size: 0x8, addend: 0x0, symName: '__ZN51_$LT$syn..token..If$u20$as$u20$core..fmt..Debug$GT$3fmt17h8c995cff87964d53E', symObjAddr: 0x2810, symBinAddr: 0xE2310, symSize: 0x20 }
  - { offsetInCU: 0x1260, offset: 0x431E68, size: 0x8, addend: 0x0, symName: '__ZN51_$LT$syn..token..Gt$u20$as$u20$core..fmt..Debug$GT$3fmt17h012899c70a30f487E', symObjAddr: 0x6BA0, symBinAddr: 0xE3300, symSize: 0x20 }
  - { offsetInCU: 0x12B7, offset: 0x431EBF, size: 0x8, addend: 0x0, symName: '__ZN51_$LT$syn..token..Lt$u20$as$u20$core..fmt..Debug$GT$3fmt17h3e9c33146f237136E', symObjAddr: 0x6C00, symBinAddr: 0xE3340, symSize: 0x20 }
  - { offsetInCU: 0x136A, offset: 0x431F72, size: 0x8, addend: 0x0, symName: '__ZN54_$LT$syn..token..Comma$u20$as$u20$core..fmt..Debug$GT$3fmt17h2e42bbb3118edf36E', symObjAddr: 0x6A40, symBinAddr: 0xE31E0, symSize: 0x20 }
  - { offsetInCU: 0x13BE, offset: 0x431FC6, size: 0x8, addend: 0x0, symName: '__ZN52_$LT$syn..token..Mut$u20$as$u20$core..fmt..Debug$GT$3fmt17h8a2b4437d50239d4E', symObjAddr: 0x3230, symBinAddr: 0xE24D0, symSize: 0x20 }
  - { offsetInCU: 0x1412, offset: 0x43201A, size: 0x8, addend: 0x0, symName: '__ZN51_$LT$syn..token..As$u20$as$u20$core..fmt..Debug$GT$3fmt17hf8dbfde3984e3593E', symObjAddr: 0x12B0, symBinAddr: 0xE1E90, symSize: 0x20 }
  - { offsetInCU: 0x1494, offset: 0x43209C, size: 0x8, addend: 0x0, symName: '__ZN55_$LT$syn..token..Unsafe$u20$as$u20$core..fmt..Debug$GT$3fmt17hc0a30ceeb7e47e07E', symObjAddr: 0x4430, symBinAddr: 0xE2830, symSize: 0x20 }
  - { offsetInCU: 0x1519, offset: 0x432121, size: 0x8, addend: 0x0, symName: '__ZN51_$LT$syn..token..Or$u20$as$u20$core..fmt..Debug$GT$3fmt17h200371646b310611E', symObjAddr: 0x6CA0, symBinAddr: 0xE33E0, symSize: 0x20 }
  - { offsetInCU: 0x156D, offset: 0x432175, size: 0x8, addend: 0x0, symName: '__ZN55_$LT$syn..token..Static$u20$as$u20$core..fmt..Debug$GT$3fmt17h0fd4b3faea38092dE', symObjAddr: 0x3B30, symBinAddr: 0xE2630, symSize: 0x20 }
  - { offsetInCU: 0x15C4, offset: 0x4321CC, size: 0x8, addend: 0x0, symName: '__ZN56_$LT$syn..token..PathSep$u20$as$u20$core..fmt..Debug$GT$3fmt17h1145619b18105da7E', symObjAddr: 0x6D00, symBinAddr: 0xE3440, symSize: 0x20 }
  - { offsetInCU: 0x161B, offset: 0x432223, size: 0x8, addend: 0x0, symName: '__ZN54_$LT$syn..token..Colon$u20$as$u20$core..fmt..Debug$GT$3fmt17hdb2af3ebd8b5452eE', symObjAddr: 0x6A20, symBinAddr: 0xE31C0, symSize: 0x20 }
  - { offsetInCU: 0x166F, offset: 0x432277, size: 0x8, addend: 0x0, symName: '__ZN54_$LT$syn..token..Const$u20$as$u20$core..fmt..Debug$GT$3fmt17h3387464a8a3f9837E', symObjAddr: 0x1A90, symBinAddr: 0xE1FB0, symSize: 0x20 }
  - { offsetInCU: 0x16C6, offset: 0x4322CE, size: 0x8, addend: 0x0, symName: '__ZN54_$LT$syn..token..Paren$u20$as$u20$core..fmt..Debug$GT$3fmt17h7af0ba009f67e578E', symObjAddr: 0xAE60, symBinAddr: 0xE6D90, symSize: 0x20 }
  - { offsetInCU: 0x171F, offset: 0x432327, size: 0x8, addend: 0x0, symName: '__ZN60_$LT$syn..token..Underscore$u20$as$u20$syn..token..Token$GT$4peek17h789d27f9bb6ea028E', symObjAddr: 0xA30, symBinAddr: 0xE18D0, symSize: 0x250 }
  - { offsetInCU: 0x1F21, offset: 0x432B29, size: 0x8, addend: 0x0, symName: '__ZN54_$LT$syn..token..Group$u20$as$u20$core..fmt..Debug$GT$3fmt17h7d9a9b2b78c38490E', symObjAddr: 0xC80, symBinAddr: 0xE1B20, symSize: 0x20 }
  - { offsetInCU: 0x1F67, offset: 0x432B6F, size: 0x8, addend: 0x0, symName: '__ZN55_$LT$syn..token..Paren$u20$as$u20$syn..token..Token$GT$4peek17h25e234046af6258dE', symObjAddr: 0xEE0, symBinAddr: 0xE1C60, symSize: 0xB0 }
  - { offsetInCU: 0x1FBA, offset: 0x432BC2, size: 0x8, addend: 0x0, symName: '__ZN55_$LT$syn..token..Paren$u20$as$u20$syn..token..Token$GT$4peek17h25e234046af6258dE', symObjAddr: 0xEE0, symBinAddr: 0xE1C60, symSize: 0xB0 }
  - { offsetInCU: 0x1FCA, offset: 0x432BD2, size: 0x8, addend: 0x0, symName: '__ZN55_$LT$syn..token..Paren$u20$as$u20$syn..token..Token$GT$4peek17h25e234046af6258dE', symObjAddr: 0xEE0, symBinAddr: 0xE1C60, symSize: 0xB0 }
  - { offsetInCU: 0x2102, offset: 0x432D0A, size: 0x8, addend: 0x0, symName: '__ZN55_$LT$syn..token..Brace$u20$as$u20$syn..token..Token$GT$4peek17ha752276b3db9eb99E', symObjAddr: 0xF90, symBinAddr: 0xE1D10, symSize: 0xB0 }
  - { offsetInCU: 0x2155, offset: 0x432D5D, size: 0x8, addend: 0x0, symName: '__ZN55_$LT$syn..token..Brace$u20$as$u20$syn..token..Token$GT$4peek17ha752276b3db9eb99E', symObjAddr: 0xF90, symBinAddr: 0xE1D10, symSize: 0xB0 }
  - { offsetInCU: 0x2165, offset: 0x432D6D, size: 0x8, addend: 0x0, symName: '__ZN55_$LT$syn..token..Brace$u20$as$u20$syn..token..Token$GT$4peek17ha752276b3db9eb99E', symObjAddr: 0xF90, symBinAddr: 0xE1D10, symSize: 0xB0 }
  - { offsetInCU: 0x22A5, offset: 0x432EAD, size: 0x8, addend: 0x0, symName: '__ZN57_$LT$syn..token..Bracket$u20$as$u20$syn..token..Token$GT$4peek17h3f4b3ccc9e26c654E', symObjAddr: 0x1040, symBinAddr: 0xE1DC0, symSize: 0xB0 }
  - { offsetInCU: 0x22F8, offset: 0x432F00, size: 0x8, addend: 0x0, symName: '__ZN57_$LT$syn..token..Bracket$u20$as$u20$syn..token..Token$GT$4peek17h3f4b3ccc9e26c654E', symObjAddr: 0x1040, symBinAddr: 0xE1DC0, symSize: 0xB0 }
  - { offsetInCU: 0x2308, offset: 0x432F10, size: 0x8, addend: 0x0, symName: '__ZN57_$LT$syn..token..Bracket$u20$as$u20$syn..token..Token$GT$4peek17h3f4b3ccc9e26c654E', symObjAddr: 0x1040, symBinAddr: 0xE1DC0, symSize: 0xB0 }
  - { offsetInCU: 0x2448, offset: 0x433050, size: 0x8, addend: 0x0, symName: '__ZN59_$LT$syn..token..Underscore$u20$as$u20$core..fmt..Debug$GT$3fmt17h79b10f199b667a63E', symObjAddr: 0x1160, symBinAddr: 0xE1E70, symSize: 0x20 }
  - { offsetInCU: 0x24BB, offset: 0x4330C3, size: 0x8, addend: 0x0, symName: '__ZN52_$LT$syn..token..As$u20$as$u20$syn..parse..Parse$GT$5parse17h85019d46556fbac3E', symObjAddr: 0x1350, symBinAddr: 0xE1EB0, symSize: 0x60 }
  - { offsetInCU: 0x2570, offset: 0x433178, size: 0x8, addend: 0x0, symName: '__ZN55_$LT$syn..token..Async$u20$as$u20$syn..token..Token$GT$4peek17h7ff0a4a69488c77fE', symObjAddr: 0x14D0, symBinAddr: 0xE1F30, symSize: 0x20 }
  - { offsetInCU: 0x25A7, offset: 0x4331AF, size: 0x8, addend: 0x0, symName: '__ZN54_$LT$syn..token..Auto$u20$as$u20$syn..token..Token$GT$4peek17hebee82bb54c38895E', symObjAddr: 0x15F0, symBinAddr: 0xE1F50, symSize: 0x20 }
  - { offsetInCU: 0x25DE, offset: 0x4331E6, size: 0x8, addend: 0x0, symName: '__ZN54_$LT$syn..token..Await$u20$as$u20$core..fmt..Debug$GT$3fmt17h84bfa9989ca6cb36E', symObjAddr: 0x1610, symBinAddr: 0xE1F70, symSize: 0x20 }
  - { offsetInCU: 0x264E, offset: 0x433256, size: 0x8, addend: 0x0, symName: '__ZN54_$LT$syn..token..Break$u20$as$u20$core..fmt..Debug$GT$3fmt17h5620f567ce5289e0E', symObjAddr: 0x1970, symBinAddr: 0xE1F90, symSize: 0x20 }
  - { offsetInCU: 0x26BE, offset: 0x4332C6, size: 0x8, addend: 0x0, symName: '__ZN55_$LT$syn..token..Const$u20$as$u20$syn..parse..Parse$GT$5parse17h46c6cc59779da60bE', symObjAddr: 0x1B30, symBinAddr: 0xE1FD0, symSize: 0x60 }
  - { offsetInCU: 0x2746, offset: 0x43334E, size: 0x8, addend: 0x0, symName: '__ZN55_$LT$syn..token..Const$u20$as$u20$syn..token..Token$GT$4peek17h2d7d2aba6f15afccE', symObjAddr: 0x1B90, symBinAddr: 0xE2030, symSize: 0x20 }
  - { offsetInCU: 0x277D, offset: 0x433385, size: 0x8, addend: 0x0, symName: '__ZN57_$LT$syn..token..Continue$u20$as$u20$core..fmt..Debug$GT$3fmt17h830f49b7ce1c0134E', symObjAddr: 0x1BB0, symBinAddr: 0xE2050, symSize: 0x20 }
  - { offsetInCU: 0x27C0, offset: 0x4333C8, size: 0x8, addend: 0x0, symName: '__ZN54_$LT$syn..token..Crate$u20$as$u20$core..fmt..Debug$GT$3fmt17hd944844239f4ae0cE', symObjAddr: 0x1CD0, symBinAddr: 0xE2070, symSize: 0x20 }
  - { offsetInCU: 0x2803, offset: 0x43340B, size: 0x8, addend: 0x0, symName: '__ZN55_$LT$syn..token..Crate$u20$as$u20$syn..token..Token$GT$4peek17hd3ff9f9064291857E', symObjAddr: 0x1DD0, symBinAddr: 0xE2090, symSize: 0x20 }
  - { offsetInCU: 0x283A, offset: 0x433442, size: 0x8, addend: 0x0, symName: '__ZN53_$LT$syn..token..Dyn$u20$as$u20$syn..parse..Parse$GT$5parse17hd552992672026ee9E', symObjAddr: 0x20D0, symBinAddr: 0xE20B0, symSize: 0x60 }
  - { offsetInCU: 0x28C2, offset: 0x4334CA, size: 0x8, addend: 0x0, symName: '__ZN54_$LT$syn..token..Else$u20$as$u20$syn..parse..Parse$GT$5parse17h2b2f89d9de8133a6E', symObjAddr: 0x21F0, symBinAddr: 0xE2110, symSize: 0x60 }
  - { offsetInCU: 0x294A, offset: 0x433552, size: 0x8, addend: 0x0, symName: '__ZN53_$LT$syn..token..Enum$u20$as$u20$core..fmt..Debug$GT$3fmt17h93be9aeea7c44df5E', symObjAddr: 0x2270, symBinAddr: 0xE2170, symSize: 0x20 }
  - { offsetInCU: 0x298D, offset: 0x433595, size: 0x8, addend: 0x0, symName: '__ZN54_$LT$syn..token..Enum$u20$as$u20$syn..token..Token$GT$4peek17h70f8ca6d0a57ae7cE', symObjAddr: 0x2370, symBinAddr: 0xE2190, symSize: 0x20 }
  - { offsetInCU: 0x29C4, offset: 0x4335CC, size: 0x8, addend: 0x0, symName: '__ZN55_$LT$syn..token..Extern$u20$as$u20$core..fmt..Debug$GT$3fmt17h8870de371609242dE', symObjAddr: 0x2390, symBinAddr: 0xE21B0, symSize: 0x20 }
  - { offsetInCU: 0x2A07, offset: 0x43360F, size: 0x8, addend: 0x0, symName: '__ZN56_$LT$syn..token..Extern$u20$as$u20$syn..token..Token$GT$4peek17h0a1088e1ed9ac636E', symObjAddr: 0x2490, symBinAddr: 0xE21D0, symSize: 0x20 }
  - { offsetInCU: 0x2A3E, offset: 0x433646, size: 0x8, addend: 0x0, symName: '__ZN51_$LT$syn..token..Fn$u20$as$u20$core..fmt..Debug$GT$3fmt17hb4b500a1d29af85cE', symObjAddr: 0x25D0, symBinAddr: 0xE21F0, symSize: 0x20 }
  - { offsetInCU: 0x2A81, offset: 0x433689, size: 0x8, addend: 0x0, symName: '__ZN52_$LT$syn..token..Fn$u20$as$u20$syn..parse..Parse$GT$5parse17hbae4b7e03a0010e0E', symObjAddr: 0x2670, symBinAddr: 0xE2210, symSize: 0x60 }
  - { offsetInCU: 0x2B09, offset: 0x433711, size: 0x8, addend: 0x0, symName: '__ZN52_$LT$syn..token..Fn$u20$as$u20$syn..token..Token$GT$4peek17hc7676a7b46f9ffb9E', symObjAddr: 0x26D0, symBinAddr: 0xE2270, symSize: 0x20 }
  - { offsetInCU: 0x2B6D, offset: 0x433775, size: 0x8, addend: 0x0, symName: '__ZN53_$LT$syn..token..For$u20$as$u20$syn..parse..Parse$GT$5parse17h7830b2807da6697cE', symObjAddr: 0x2790, symBinAddr: 0xE22B0, symSize: 0x60 }
  - { offsetInCU: 0x2BF5, offset: 0x4337FD, size: 0x8, addend: 0x0, symName: '__ZN53_$LT$syn..token..Impl$u20$as$u20$core..fmt..Debug$GT$3fmt17h69f5dde742dadce0E', symObjAddr: 0x2930, symBinAddr: 0xE2330, symSize: 0x20 }
  - { offsetInCU: 0x2C38, offset: 0x433840, size: 0x8, addend: 0x0, symName: '__ZN54_$LT$syn..token..Impl$u20$as$u20$syn..token..Token$GT$4peek17h1bc8c1a17a8ac247E', symObjAddr: 0x2A30, symBinAddr: 0xE2350, symSize: 0x20 }
  - { offsetInCU: 0x2C9C, offset: 0x4338A4, size: 0x8, addend: 0x0, symName: '__ZN52_$LT$syn..token..In$u20$as$u20$syn..parse..Parse$GT$5parse17hec49a7644160a01eE', symObjAddr: 0x2AF0, symBinAddr: 0xE2390, symSize: 0x60 }
  - { offsetInCU: 0x2D24, offset: 0x43392C, size: 0x8, addend: 0x0, symName: '__ZN52_$LT$syn..token..Let$u20$as$u20$core..fmt..Debug$GT$3fmt17hd7442ab668e0f4d3E', symObjAddr: 0x2B70, symBinAddr: 0xE23F0, symSize: 0x20 }
  - { offsetInCU: 0x2D94, offset: 0x43399C, size: 0x8, addend: 0x0, symName: '__ZN53_$LT$syn..token..Loop$u20$as$u20$core..fmt..Debug$GT$3fmt17h9be67aefddab8b28E', symObjAddr: 0x2C90, symBinAddr: 0xE2410, symSize: 0x20 }
  - { offsetInCU: 0x2E04, offset: 0x433A0C, size: 0x8, addend: 0x0, symName: '__ZN55_$LT$syn..token..Macro$u20$as$u20$syn..token..Token$GT$4peek17h6210815ff705b39aE', symObjAddr: 0x2EB0, symBinAddr: 0xE2430, symSize: 0x20 }
  - { offsetInCU: 0x2E3B, offset: 0x433A43, size: 0x8, addend: 0x0, symName: '__ZN54_$LT$syn..token..Match$u20$as$u20$core..fmt..Debug$GT$3fmt17hfc977ac3a32b4a74E', symObjAddr: 0x2ED0, symBinAddr: 0xE2450, symSize: 0x20 }
  - { offsetInCU: 0x2EAB, offset: 0x433AB3, size: 0x8, addend: 0x0, symName: '__ZN52_$LT$syn..token..Mod$u20$as$u20$core..fmt..Debug$GT$3fmt17hfc897af9af790602E', symObjAddr: 0x2FF0, symBinAddr: 0xE2470, symSize: 0x20 }
  - { offsetInCU: 0x2EEE, offset: 0x433AF6, size: 0x8, addend: 0x0, symName: '__ZN53_$LT$syn..token..Mod$u20$as$u20$syn..token..Token$GT$4peek17hbe008020d570fc7bE', symObjAddr: 0x30F0, symBinAddr: 0xE2490, symSize: 0x20 }
  - { offsetInCU: 0x2F52, offset: 0x433B5A, size: 0x8, addend: 0x0, symName: '__ZN54_$LT$syn..token..Move$u20$as$u20$syn..token..Token$GT$4peek17h64855903f4cc82c7E', symObjAddr: 0x3210, symBinAddr: 0xE24B0, symSize: 0x20 }
  - { offsetInCU: 0x2FB6, offset: 0x433BBE, size: 0x8, addend: 0x0, symName: '__ZN53_$LT$syn..token..Mut$u20$as$u20$syn..token..Token$GT$4peek17hfa3b784a7986bc45E', symObjAddr: 0x3330, symBinAddr: 0xE24F0, symSize: 0x20 }
  - { offsetInCU: 0x2FED, offset: 0x433BF5, size: 0x8, addend: 0x0, symName: '__ZN52_$LT$syn..token..Pub$u20$as$u20$core..fmt..Debug$GT$3fmt17h204dc7517627effdE', symObjAddr: 0x3590, symBinAddr: 0xE2510, symSize: 0x20 }
  - { offsetInCU: 0x305E, offset: 0x433C66, size: 0x8, addend: 0x0, symName: '__ZN53_$LT$syn..token..Ref$u20$as$u20$syn..token..Token$GT$4peek17h767951e2892cf942E', symObjAddr: 0x37B0, symBinAddr: 0xE2530, symSize: 0x20 }
  - { offsetInCU: 0x3095, offset: 0x433C9D, size: 0x8, addend: 0x0, symName: '__ZN55_$LT$syn..token..Return$u20$as$u20$core..fmt..Debug$GT$3fmt17hf1c53869fec4a42aE', symObjAddr: 0x37D0, symBinAddr: 0xE2550, symSize: 0x20 }
  - { offsetInCU: 0x30D8, offset: 0x433CE0, size: 0x8, addend: 0x0, symName: '__ZN58_$LT$syn..token..SelfType$u20$as$u20$syn..token..Token$GT$4peek17h0c0bc843190daad6E', symObjAddr: 0x39F0, symBinAddr: 0xE2570, symSize: 0x20 }
  - { offsetInCU: 0x310F, offset: 0x433D17, size: 0x8, addend: 0x0, symName: '__ZN58_$LT$syn..token..SelfValue$u20$as$u20$core..fmt..Debug$GT$3fmt17h9a39fd532a7c9ca4E', symObjAddr: 0x3A10, symBinAddr: 0xE2590, symSize: 0x20 }
  - { offsetInCU: 0x3152, offset: 0x433D5A, size: 0x8, addend: 0x0, symName: '__ZN59_$LT$syn..token..SelfValue$u20$as$u20$syn..parse..Parse$GT$5parse17h051d3709124c46d9E', symObjAddr: 0x3AB0, symBinAddr: 0xE25B0, symSize: 0x60 }
  - { offsetInCU: 0x31DA, offset: 0x433DE2, size: 0x8, addend: 0x0, symName: '__ZN59_$LT$syn..token..SelfValue$u20$as$u20$syn..token..Token$GT$4peek17h50318bcccdb91ecaE', symObjAddr: 0x3B10, symBinAddr: 0xE2610, symSize: 0x20 }
  - { offsetInCU: 0x3211, offset: 0x433E19, size: 0x8, addend: 0x0, symName: '__ZN56_$LT$syn..token..Static$u20$as$u20$syn..parse..Parse$GT$5parse17h5bb5f7745c7fe15eE', symObjAddr: 0x3BD0, symBinAddr: 0xE2650, symSize: 0x60 }
  - { offsetInCU: 0x3299, offset: 0x433EA1, size: 0x8, addend: 0x0, symName: '__ZN56_$LT$syn..token..Static$u20$as$u20$syn..token..Token$GT$4peek17he4be23aaf817aacaE', symObjAddr: 0x3C30, symBinAddr: 0xE26B0, symSize: 0x20 }
  - { offsetInCU: 0x32D0, offset: 0x433ED8, size: 0x8, addend: 0x0, symName: '__ZN55_$LT$syn..token..Struct$u20$as$u20$core..fmt..Debug$GT$3fmt17h31c0d73a5d0d9c29E', symObjAddr: 0x3C50, symBinAddr: 0xE26D0, symSize: 0x20 }
  - { offsetInCU: 0x3313, offset: 0x433F1B, size: 0x8, addend: 0x0, symName: '__ZN56_$LT$syn..token..Struct$u20$as$u20$syn..token..Token$GT$4peek17h19827cbab69b1623E', symObjAddr: 0x3D50, symBinAddr: 0xE26F0, symSize: 0x20 }
  - { offsetInCU: 0x334A, offset: 0x433F52, size: 0x8, addend: 0x0, symName: '__ZN55_$LT$syn..token..Super$u20$as$u20$syn..token..Token$GT$4peek17h275967d5b34f27d3E', symObjAddr: 0x3E70, symBinAddr: 0xE2710, symSize: 0x20 }
  - { offsetInCU: 0x3381, offset: 0x433F89, size: 0x8, addend: 0x0, symName: '__ZN54_$LT$syn..token..Trait$u20$as$u20$core..fmt..Debug$GT$3fmt17h37c5346289a952f9E', symObjAddr: 0x3E90, symBinAddr: 0xE2730, symSize: 0x20 }
  - { offsetInCU: 0x33C4, offset: 0x433FCC, size: 0x8, addend: 0x0, symName: '__ZN55_$LT$syn..token..Trait$u20$as$u20$syn..token..Token$GT$4peek17h02f104e1d9e561e9E', symObjAddr: 0x3F90, symBinAddr: 0xE2750, symSize: 0x20 }
  - { offsetInCU: 0x33FB, offset: 0x434003, size: 0x8, addend: 0x0, symName: '__ZN52_$LT$syn..token..Try$u20$as$u20$core..fmt..Debug$GT$3fmt17h2c72b948fd049401E', symObjAddr: 0x3FB0, symBinAddr: 0xE2770, symSize: 0x20 }
  - { offsetInCU: 0x346B, offset: 0x434073, size: 0x8, addend: 0x0, symName: '__ZN53_$LT$syn..token..Try$u20$as$u20$syn..token..Token$GT$4peek17had59752cb32497b6E', symObjAddr: 0x40B0, symBinAddr: 0xE2790, symSize: 0x20 }
  - { offsetInCU: 0x34A2, offset: 0x4340AA, size: 0x8, addend: 0x0, symName: '__ZN53_$LT$syn..token..Type$u20$as$u20$core..fmt..Debug$GT$3fmt17h776755c35df40186E', symObjAddr: 0x40D0, symBinAddr: 0xE27B0, symSize: 0x20 }
  - { offsetInCU: 0x34E5, offset: 0x4340ED, size: 0x8, addend: 0x0, symName: '__ZN54_$LT$syn..token..Type$u20$as$u20$syn..token..Token$GT$4peek17hd609b66210c77b34E', symObjAddr: 0x41D0, symBinAddr: 0xE27D0, symSize: 0x20 }
  - { offsetInCU: 0x351C, offset: 0x434124, size: 0x8, addend: 0x0, symName: '__ZN54_$LT$syn..token..Union$u20$as$u20$core..fmt..Debug$GT$3fmt17h6d069075af5c4e48E', symObjAddr: 0x4310, symBinAddr: 0xE27F0, symSize: 0x20 }
  - { offsetInCU: 0x355F, offset: 0x434167, size: 0x8, addend: 0x0, symName: '__ZN55_$LT$syn..token..Union$u20$as$u20$syn..token..Token$GT$4peek17h95e4cdd0419c4cc2E', symObjAddr: 0x4410, symBinAddr: 0xE2810, symSize: 0x20 }
  - { offsetInCU: 0x35C3, offset: 0x4341CB, size: 0x8, addend: 0x0, symName: '__ZN56_$LT$syn..token..Unsafe$u20$as$u20$syn..parse..Parse$GT$5parse17hba2df29f6bec55cdE', symObjAddr: 0x44D0, symBinAddr: 0xE2850, symSize: 0x60 }
  - { offsetInCU: 0x364B, offset: 0x434253, size: 0x8, addend: 0x0, symName: '__ZN56_$LT$syn..token..Unsafe$u20$as$u20$syn..token..Token$GT$4peek17h5bb5d41f3ab3faf1E', symObjAddr: 0x4530, symBinAddr: 0xE28B0, symSize: 0x20 }
  - { offsetInCU: 0x3682, offset: 0x43428A, size: 0x8, addend: 0x0, symName: '__ZN52_$LT$syn..token..Use$u20$as$u20$core..fmt..Debug$GT$3fmt17h1e8e89ee23c16a15E', symObjAddr: 0x4670, symBinAddr: 0xE28D0, symSize: 0x20 }
  - { offsetInCU: 0x36C5, offset: 0x4342CD, size: 0x8, addend: 0x0, symName: '__ZN53_$LT$syn..token..Use$u20$as$u20$syn..token..Token$GT$4peek17hb629dd0a0c930e39E', symObjAddr: 0x4770, symBinAddr: 0xE28F0, symSize: 0x20 }
  - { offsetInCU: 0x36FC, offset: 0x434304, size: 0x8, addend: 0x0, symName: '__ZN54_$LT$syn..token..Where$u20$as$u20$core..fmt..Debug$GT$3fmt17hcadddf0d1af1ae8dE', symObjAddr: 0x48B0, symBinAddr: 0xE2910, symSize: 0x20 }
  - { offsetInCU: 0x373F, offset: 0x434347, size: 0x8, addend: 0x0, symName: '__ZN54_$LT$syn..token..While$u20$as$u20$core..fmt..Debug$GT$3fmt17h8640c63c09c1b59bE', symObjAddr: 0x49D0, symBinAddr: 0xE2930, symSize: 0x20 }
  - { offsetInCU: 0x37AF, offset: 0x4343B7, size: 0x8, addend: 0x0, symName: '__ZN54_$LT$syn..token..Yield$u20$as$u20$core..fmt..Debug$GT$3fmt17h41e8ffbf5ceb9de3E', symObjAddr: 0x4AF0, symBinAddr: 0xE2950, symSize: 0x20 }
  - { offsetInCU: 0x381F, offset: 0x434427, size: 0x8, addend: 0x0, symName: '__ZN53_$LT$syn..token..And$u20$as$u20$syn..parse..Parse$GT$5parse17h5b38fc9651d95e98E', symObjAddr: 0x4C40, symBinAddr: 0xE2970, symSize: 0x50 }
  - { offsetInCU: 0x3882, offset: 0x43448A, size: 0x8, addend: 0x0, symName: '__ZN53_$LT$syn..token..And$u20$as$u20$syn..token..Token$GT$4peek17h977f39081b12fb5aE', symObjAddr: 0x4C90, symBinAddr: 0xE29C0, symSize: 0x20 }
  - { offsetInCU: 0x38B9, offset: 0x4344C1, size: 0x8, addend: 0x0, symName: '__ZN55_$LT$syn..token..Caret$u20$as$u20$syn..parse..Parse$GT$5parse17h985441110bef27beE', symObjAddr: 0x4EC0, symBinAddr: 0xE29E0, symSize: 0x50 }
  - { offsetInCU: 0x3949, offset: 0x434551, size: 0x8, addend: 0x0, symName: '__ZN55_$LT$syn..token..Colon$u20$as$u20$syn..parse..Parse$GT$5parse17hb173b91a971bef7cE', symObjAddr: 0x5000, symBinAddr: 0xE2A30, symSize: 0x50 }
  - { offsetInCU: 0x39AC, offset: 0x4345B4, size: 0x8, addend: 0x0, symName: '__ZN55_$LT$syn..token..Colon$u20$as$u20$syn..token..Token$GT$4peek17hda082e4f86b2eba7E', symObjAddr: 0x5050, symBinAddr: 0xE2A80, symSize: 0x20 }
  - { offsetInCU: 0x39E3, offset: 0x4345EB, size: 0x8, addend: 0x0, symName: '__ZN55_$LT$syn..token..Comma$u20$as$u20$syn..parse..Parse$GT$5parse17hd6bc62bc2c71a22aE', symObjAddr: 0x50A0, symBinAddr: 0xE2AA0, symSize: 0x50 }
  - { offsetInCU: 0x3A46, offset: 0x43464E, size: 0x8, addend: 0x0, symName: '__ZN55_$LT$syn..token..Comma$u20$as$u20$syn..token..Token$GT$4peek17h35a333ecf294aee4E', symObjAddr: 0x50F0, symBinAddr: 0xE2AF0, symSize: 0x20 }
  - { offsetInCU: 0x3AAA, offset: 0x4346B2, size: 0x8, addend: 0x0, symName: '__ZN53_$LT$syn..token..Dot$u20$as$u20$syn..token..Token$GT$4peek17h6d86fbdab90dfe7fE', symObjAddr: 0x5230, symBinAddr: 0xE2B10, symSize: 0x20 }
  - { offsetInCU: 0x3B0E, offset: 0x434716, size: 0x8, addend: 0x0, symName: '__ZN56_$LT$syn..token..DotDot$u20$as$u20$syn..token..Token$GT$4peek17hd3bd5b93702b4330E', symObjAddr: 0x52D0, symBinAddr: 0xE2B30, symSize: 0x20 }
  - { offsetInCU: 0x3B45, offset: 0x43474D, size: 0x8, addend: 0x0, symName: '__ZN59_$LT$syn..token..DotDotDot$u20$as$u20$syn..token..Token$GT$4peek17hb44c133be230bd96E', symObjAddr: 0x5390, symBinAddr: 0xE2B50, symSize: 0x20 }
  - { offsetInCU: 0x3B7C, offset: 0x434784, size: 0x8, addend: 0x0, symName: '__ZN58_$LT$syn..token..DotDotEq$u20$as$u20$syn..token..Token$GT$4peek17h2fee0dc9b1a6aabeE', symObjAddr: 0x5450, symBinAddr: 0xE2B70, symSize: 0x20 }
  - { offsetInCU: 0x3BE0, offset: 0x4347E8, size: 0x8, addend: 0x0, symName: '__ZN52_$LT$syn..token..Eq$u20$as$u20$syn..parse..Parse$GT$5parse17h9bd44d98b4fba545E', symObjAddr: 0x54A0, symBinAddr: 0xE2B90, symSize: 0x50 }
  - { offsetInCU: 0x3C43, offset: 0x43484B, size: 0x8, addend: 0x0, symName: '__ZN52_$LT$syn..token..Eq$u20$as$u20$syn..token..Token$GT$4peek17hfd0450a878fd20a5E', symObjAddr: 0x54F0, symBinAddr: 0xE2BE0, symSize: 0x20 }
  - { offsetInCU: 0x3C7A, offset: 0x434882, size: 0x8, addend: 0x0, symName: '__ZN52_$LT$syn..token..Gt$u20$as$u20$syn..parse..Parse$GT$5parse17h280d30dfd0ec0e88E', symObjAddr: 0x5720, symBinAddr: 0xE2C00, symSize: 0x50 }
  - { offsetInCU: 0x3CDD, offset: 0x4348E5, size: 0x8, addend: 0x0, symName: '__ZN52_$LT$syn..token..Gt$u20$as$u20$syn..token..Token$GT$4peek17hbf38b1119d014050E', symObjAddr: 0x5770, symBinAddr: 0xE2C50, symSize: 0x20 }
  - { offsetInCU: 0x3D14, offset: 0x43491C, size: 0x8, addend: 0x0, symName: '__ZN52_$LT$syn..token..Lt$u20$as$u20$syn..parse..Parse$GT$5parse17he341b95b06e78275E', symObjAddr: 0x5900, symBinAddr: 0xE2C70, symSize: 0x50 }
  - { offsetInCU: 0x3D77, offset: 0x43497F, size: 0x8, addend: 0x0, symName: '__ZN52_$LT$syn..token..Lt$u20$as$u20$syn..token..Token$GT$4peek17h5fc3809859b7b5faE', symObjAddr: 0x5950, symBinAddr: 0xE2CC0, symSize: 0x20 }
  - { offsetInCU: 0x3DAE, offset: 0x4349B6, size: 0x8, addend: 0x0, symName: '__ZN55_$LT$syn..token..Minus$u20$as$u20$syn..parse..Parse$GT$5parse17h477a6d776dd7b43dE', symObjAddr: 0x59A0, symBinAddr: 0xE2CE0, symSize: 0x50 }
  - { offsetInCU: 0x3E3E, offset: 0x434A46, size: 0x8, addend: 0x0, symName: '__ZN53_$LT$syn..token..Not$u20$as$u20$syn..parse..Parse$GT$5parse17hed95949511af2130E', symObjAddr: 0x5B80, symBinAddr: 0xE2D30, symSize: 0x50 }
  - { offsetInCU: 0x3EA1, offset: 0x434AA9, size: 0x8, addend: 0x0, symName: '__ZN53_$LT$syn..token..Not$u20$as$u20$syn..token..Token$GT$4peek17hc7242dbe39d2cc52E', symObjAddr: 0x5BD0, symBinAddr: 0xE2D80, symSize: 0x20 }
  - { offsetInCU: 0x3ED8, offset: 0x434AE0, size: 0x8, addend: 0x0, symName: '__ZN52_$LT$syn..token..Or$u20$as$u20$syn..parse..Parse$GT$5parse17h9e4bc6c60c89d717E', symObjAddr: 0x5C20, symBinAddr: 0xE2DA0, symSize: 0x50 }
  - { offsetInCU: 0x3F3B, offset: 0x434B43, size: 0x8, addend: 0x0, symName: '__ZN52_$LT$syn..token..Or$u20$as$u20$syn..token..Token$GT$4peek17hab4246a0272ea64dE', symObjAddr: 0x5C70, symBinAddr: 0xE2DF0, symSize: 0x20 }
  - { offsetInCU: 0x3F72, offset: 0x434B7A, size: 0x8, addend: 0x0, symName: '__ZN57_$LT$syn..token..PathSep$u20$as$u20$syn..token..Token$GT$4peek17ha2b30e581acdbebaE', symObjAddr: 0x5E50, symBinAddr: 0xE2E10, symSize: 0x20 }
  - { offsetInCU: 0x3FA9, offset: 0x434BB1, size: 0x8, addend: 0x0, symName: '__ZN57_$LT$syn..token..Percent$u20$as$u20$syn..parse..Parse$GT$5parse17h011c51e35c593cf7E', symObjAddr: 0x5EA0, symBinAddr: 0xE2E30, symSize: 0x50 }
  - { offsetInCU: 0x400C, offset: 0x434C14, size: 0x8, addend: 0x0, symName: '__ZN54_$LT$syn..token..Plus$u20$as$u20$syn..parse..Parse$GT$5parse17hedad1693d91826e0E', symObjAddr: 0x5FE0, symBinAddr: 0xE2E80, symSize: 0x50 }
  - { offsetInCU: 0x409C, offset: 0x434CA4, size: 0x8, addend: 0x0, symName: '__ZN55_$LT$syn..token..Pound$u20$as$u20$syn..token..Token$GT$4peek17hd045620e0630b5b3E', symObjAddr: 0x6170, symBinAddr: 0xE2ED0, symSize: 0x20 }
  - { offsetInCU: 0x4100, offset: 0x434D08, size: 0x8, addend: 0x0, symName: '__ZN58_$LT$syn..token..Question$u20$as$u20$syn..token..Token$GT$4peek17h40ab090367cab48aE', symObjAddr: 0x6210, symBinAddr: 0xE2EF0, symSize: 0x20 }
  - { offsetInCU: 0x4164, offset: 0x434D6C, size: 0x8, addend: 0x0, symName: '__ZN54_$LT$syn..token..Semi$u20$as$u20$syn..parse..Parse$GT$5parse17h5db424d26dfe3d07E', symObjAddr: 0x6300, symBinAddr: 0xE2F10, symSize: 0x50 }
  - { offsetInCU: 0x41C7, offset: 0x434DCF, size: 0x8, addend: 0x0, symName: '__ZN54_$LT$syn..token..Semi$u20$as$u20$syn..token..Token$GT$4peek17h5a07d3e2a049fb01E', symObjAddr: 0x6350, symBinAddr: 0xE2F60, symSize: 0x20 }
  - { offsetInCU: 0x41FE, offset: 0x434E06, size: 0x8, addend: 0x0, symName: '__ZN55_$LT$syn..token..ShlEq$u20$as$u20$syn..parse..Parse$GT$5parse17h0c287701508b04adE', symObjAddr: 0x6440, symBinAddr: 0xE2F80, symSize: 0x70 }
  - { offsetInCU: 0x42B4, offset: 0x434EBC, size: 0x8, addend: 0x0, symName: '__ZN55_$LT$syn..token..ShrEq$u20$as$u20$syn..parse..Parse$GT$5parse17h2537afed55ecadcaE', symObjAddr: 0x65A0, symBinAddr: 0xE2FF0, symSize: 0x70 }
  - { offsetInCU: 0x436A, offset: 0x434F72, size: 0x8, addend: 0x0, symName: '__ZN55_$LT$syn..token..Slash$u20$as$u20$syn..parse..Parse$GT$5parse17hd6cbb0af0be5e420E', symObjAddr: 0x6660, symBinAddr: 0xE3060, symSize: 0x50 }
  - { offsetInCU: 0x43CD, offset: 0x434FD5, size: 0x8, addend: 0x0, symName: '__ZN54_$LT$syn..token..Star$u20$as$u20$syn..parse..Parse$GT$5parse17hd453253e4a2951caE', symObjAddr: 0x67A0, symBinAddr: 0xE30B0, symSize: 0x50 }
  - { offsetInCU: 0x4430, offset: 0x435038, size: 0x8, addend: 0x0, symName: '__ZN54_$LT$syn..token..Star$u20$as$u20$syn..token..Token$GT$4peek17h0f086c1ea8af6077E', symObjAddr: 0x67F0, symBinAddr: 0xE3100, symSize: 0x20 }
  - { offsetInCU: 0x4467, offset: 0x43506F, size: 0x8, addend: 0x0, symName: '__ZN55_$LT$syn..token..AndAnd$u20$as$u20$core..fmt..Debug$GT$3fmt17h5e5447864d27db08E', symObjAddr: 0x6970, symBinAddr: 0xE3140, symSize: 0x20 }
  - { offsetInCU: 0x44AD, offset: 0x4350B5, size: 0x8, addend: 0x0, symName: '__ZN54_$LT$syn..token..AndEq$u20$as$u20$core..fmt..Debug$GT$3fmt17h598f23cd5273f97aE', symObjAddr: 0x6990, symBinAddr: 0xE3160, symSize: 0x20 }
  - { offsetInCU: 0x44F3, offset: 0x4350FB, size: 0x8, addend: 0x0, symName: '__ZN54_$LT$syn..token..Caret$u20$as$u20$core..fmt..Debug$GT$3fmt17h129851371f1e3ed6E', symObjAddr: 0x69E0, symBinAddr: 0xE3180, symSize: 0x20 }
  - { offsetInCU: 0x4539, offset: 0x435141, size: 0x8, addend: 0x0, symName: '__ZN56_$LT$syn..token..CaretEq$u20$as$u20$core..fmt..Debug$GT$3fmt17h1585946161a1b0dcE', symObjAddr: 0x6A00, symBinAddr: 0xE31A0, symSize: 0x20 }
  - { offsetInCU: 0x457F, offset: 0x435187, size: 0x8, addend: 0x0, symName: '__ZN52_$LT$syn..token..Dot$u20$as$u20$core..fmt..Debug$GT$3fmt17ha27ebc213863ec58E', symObjAddr: 0x6A80, symBinAddr: 0xE3200, symSize: 0x20 }
  - { offsetInCU: 0x45C5, offset: 0x4351CD, size: 0x8, addend: 0x0, symName: '__ZN58_$LT$syn..token..DotDotDot$u20$as$u20$core..fmt..Debug$GT$3fmt17h5f5d9e885187e535E', symObjAddr: 0x6AC0, symBinAddr: 0xE3240, symSize: 0x20 }
  - { offsetInCU: 0x460B, offset: 0x435213, size: 0x8, addend: 0x0, symName: '__ZN57_$LT$syn..token..DotDotEq$u20$as$u20$core..fmt..Debug$GT$3fmt17h8255db8005cc5ef4E', symObjAddr: 0x6AE0, symBinAddr: 0xE3260, symSize: 0x20 }
  - { offsetInCU: 0x4651, offset: 0x435259, size: 0x8, addend: 0x0, symName: '__ZN53_$LT$syn..token..EqEq$u20$as$u20$core..fmt..Debug$GT$3fmt17h3814c423a7acd203E', symObjAddr: 0x6B20, symBinAddr: 0xE32A0, symSize: 0x20 }
  - { offsetInCU: 0x4697, offset: 0x43529F, size: 0x8, addend: 0x0, symName: '__ZN57_$LT$syn..token..FatArrow$u20$as$u20$core..fmt..Debug$GT$3fmt17hf7acec6555345d65E', symObjAddr: 0x6B40, symBinAddr: 0xE32C0, symSize: 0x20 }
  - { offsetInCU: 0x46DD, offset: 0x4352E5, size: 0x8, addend: 0x0, symName: '__ZN51_$LT$syn..token..Ge$u20$as$u20$core..fmt..Debug$GT$3fmt17he99e33366460c15fE', symObjAddr: 0x6B80, symBinAddr: 0xE32E0, symSize: 0x20 }
  - { offsetInCU: 0x4723, offset: 0x43532B, size: 0x8, addend: 0x0, symName: '__ZN51_$LT$syn..token..Le$u20$as$u20$core..fmt..Debug$GT$3fmt17hc8be39f4375b1483E', symObjAddr: 0x6BE0, symBinAddr: 0xE3320, symSize: 0x20 }
  - { offsetInCU: 0x4769, offset: 0x435371, size: 0x8, addend: 0x0, symName: '__ZN54_$LT$syn..token..Minus$u20$as$u20$core..fmt..Debug$GT$3fmt17he6640dd8b372f743E', symObjAddr: 0x6C20, symBinAddr: 0xE3360, symSize: 0x20 }
  - { offsetInCU: 0x47B0, offset: 0x4353B8, size: 0x8, addend: 0x0, symName: '__ZN56_$LT$syn..token..MinusEq$u20$as$u20$core..fmt..Debug$GT$3fmt17h821f84636e755473E', symObjAddr: 0x6C40, symBinAddr: 0xE3380, symSize: 0x20 }
  - { offsetInCU: 0x47F6, offset: 0x4353FE, size: 0x8, addend: 0x0, symName: '__ZN51_$LT$syn..token..Ne$u20$as$u20$core..fmt..Debug$GT$3fmt17hecd5083ae22a45b9E', symObjAddr: 0x6C60, symBinAddr: 0xE33A0, symSize: 0x20 }
  - { offsetInCU: 0x483C, offset: 0x435444, size: 0x8, addend: 0x0, symName: '__ZN53_$LT$syn..token..OrEq$u20$as$u20$core..fmt..Debug$GT$3fmt17h61d567312f8c1c21E', symObjAddr: 0x6CC0, symBinAddr: 0xE3400, symSize: 0x20 }
  - { offsetInCU: 0x4882, offset: 0x43548A, size: 0x8, addend: 0x0, symName: '__ZN53_$LT$syn..token..OrOr$u20$as$u20$core..fmt..Debug$GT$3fmt17h724ad991ccac470aE', symObjAddr: 0x6CE0, symBinAddr: 0xE3420, symSize: 0x20 }
  - { offsetInCU: 0x48C8, offset: 0x4354D0, size: 0x8, addend: 0x0, symName: '__ZN56_$LT$syn..token..Percent$u20$as$u20$core..fmt..Debug$GT$3fmt17hf698612b7f37a540E', symObjAddr: 0x6D20, symBinAddr: 0xE3460, symSize: 0x20 }
  - { offsetInCU: 0x490E, offset: 0x435516, size: 0x8, addend: 0x0, symName: '__ZN58_$LT$syn..token..PercentEq$u20$as$u20$core..fmt..Debug$GT$3fmt17hc6f13cb954724a9eE', symObjAddr: 0x6D40, symBinAddr: 0xE3480, symSize: 0x20 }
  - { offsetInCU: 0x4954, offset: 0x43555C, size: 0x8, addend: 0x0, symName: '__ZN53_$LT$syn..token..Plus$u20$as$u20$core..fmt..Debug$GT$3fmt17hb60eebb7b311effbE', symObjAddr: 0x6D60, symBinAddr: 0xE34A0, symSize: 0x20 }
  - { offsetInCU: 0x499A, offset: 0x4355A2, size: 0x8, addend: 0x0, symName: '__ZN55_$LT$syn..token..PlusEq$u20$as$u20$core..fmt..Debug$GT$3fmt17hbff3eff255044da7E', symObjAddr: 0x6D80, symBinAddr: 0xE34C0, symSize: 0x20 }
  - { offsetInCU: 0x49E0, offset: 0x4355E8, size: 0x8, addend: 0x0, symName: '__ZN54_$LT$syn..token..Pound$u20$as$u20$core..fmt..Debug$GT$3fmt17hcd91b619fb099dc4E', symObjAddr: 0x6DA0, symBinAddr: 0xE34E0, symSize: 0x20 }
  - { offsetInCU: 0x4A26, offset: 0x43562E, size: 0x8, addend: 0x0, symName: '__ZN57_$LT$syn..token..Question$u20$as$u20$core..fmt..Debug$GT$3fmt17hbda6c054cfec772aE', symObjAddr: 0x6DC0, symBinAddr: 0xE3500, symSize: 0x20 }
  - { offsetInCU: 0x4A6D, offset: 0x435675, size: 0x8, addend: 0x0, symName: '__ZN55_$LT$syn..token..RArrow$u20$as$u20$core..fmt..Debug$GT$3fmt17h594fbbecd01e53b4E', symObjAddr: 0x6DE0, symBinAddr: 0xE3520, symSize: 0x20 }
  - { offsetInCU: 0x4AB3, offset: 0x4356BB, size: 0x8, addend: 0x0, symName: '__ZN52_$LT$syn..token..Shl$u20$as$u20$core..fmt..Debug$GT$3fmt17h52a6cdca7d2390c1E', symObjAddr: 0x6E20, symBinAddr: 0xE3560, symSize: 0x20 }
  - { offsetInCU: 0x4AF9, offset: 0x435701, size: 0x8, addend: 0x0, symName: '__ZN54_$LT$syn..token..ShlEq$u20$as$u20$core..fmt..Debug$GT$3fmt17ha569db7787ab512fE', symObjAddr: 0x6E60, symBinAddr: 0xE3580, symSize: 0x20 }
  - { offsetInCU: 0x4B3F, offset: 0x435747, size: 0x8, addend: 0x0, symName: '__ZN52_$LT$syn..token..Shr$u20$as$u20$core..fmt..Debug$GT$3fmt17h4d9a79fda74dab1eE', symObjAddr: 0x6E80, symBinAddr: 0xE35A0, symSize: 0x20 }
  - { offsetInCU: 0x4B85, offset: 0x43578D, size: 0x8, addend: 0x0, symName: '__ZN54_$LT$syn..token..ShrEq$u20$as$u20$core..fmt..Debug$GT$3fmt17h32827334fb781007E', symObjAddr: 0x6EA0, symBinAddr: 0xE35C0, symSize: 0x20 }
  - { offsetInCU: 0x4BCB, offset: 0x4357D3, size: 0x8, addend: 0x0, symName: '__ZN54_$LT$syn..token..Slash$u20$as$u20$core..fmt..Debug$GT$3fmt17hc6c8702a60b406ccE', symObjAddr: 0x6EC0, symBinAddr: 0xE35E0, symSize: 0x20 }
  - { offsetInCU: 0x4C11, offset: 0x435819, size: 0x8, addend: 0x0, symName: '__ZN56_$LT$syn..token..SlashEq$u20$as$u20$core..fmt..Debug$GT$3fmt17ha1e3782109e9c2a6E', symObjAddr: 0x6EE0, symBinAddr: 0xE3600, symSize: 0x20 }
  - { offsetInCU: 0x4C57, offset: 0x43585F, size: 0x8, addend: 0x0, symName: '__ZN53_$LT$syn..token..Star$u20$as$u20$core..fmt..Debug$GT$3fmt17h1df160d0cb90d233E', symObjAddr: 0x6F00, symBinAddr: 0xE3620, symSize: 0x20 }
  - { offsetInCU: 0x4C9D, offset: 0x4358A5, size: 0x8, addend: 0x0, symName: '__ZN55_$LT$syn..token..StarEq$u20$as$u20$core..fmt..Debug$GT$3fmt17h963edd44357fb0b1E', symObjAddr: 0x6F20, symBinAddr: 0xE3640, symSize: 0x20 }
  - { offsetInCU: 0x4D7D, offset: 0x435985, size: 0x8, addend: 0x0, symName: '__ZN56_$LT$syn..token..Bracket$u20$as$u20$core..fmt..Debug$GT$3fmt17h45e3b13cad714035E', symObjAddr: 0xA330, symBinAddr: 0xE6530, symSize: 0x20 }
  - { offsetInCU: 0xB8C1, offset: 0x43C4C9, size: 0x8, addend: 0x0, symName: '__ZN4core3ptr38drop_in_place$LT$$RF$syn..ty..Type$GT$17h56ca01d0c6036eddE', symObjAddr: 0x720, symBinAddr: 0xE1780, symSize: 0x10 }
  - { offsetInCU: 0xBA23, offset: 0x43C62B, size: 0x8, addend: 0x0, symName: '__ZN4core3ptr45drop_in_place$LT$proc_macro2..TokenStream$GT$17h3405f6c513e9f6cbE.llvm.7833956513218213385', symObjAddr: 0x730, symBinAddr: 0xE1790, symSize: 0x140 }
  - { offsetInCU: 0xDCE7, offset: 0x43E8EF, size: 0x8, addend: 0x0, symName: '__ZN42_$LT$$RF$T$u20$as$u20$core..fmt..Debug$GT$3fmt17h0013ce1f89b1ec39E', symObjAddr: 0x0, symBinAddr: 0xE1060, symSize: 0x20 }
  - { offsetInCU: 0xDD4A, offset: 0x43E952, size: 0x8, addend: 0x0, symName: '__ZN42_$LT$$RF$T$u20$as$u20$core..fmt..Debug$GT$3fmt17h051878948c056c60E', symObjAddr: 0x20, symBinAddr: 0xE1080, symSize: 0x20 }
  - { offsetInCU: 0xDDB1, offset: 0x43E9B9, size: 0x8, addend: 0x0, symName: '__ZN42_$LT$$RF$T$u20$as$u20$core..fmt..Debug$GT$3fmt17h0a47865f8b9e8767E', symObjAddr: 0x40, symBinAddr: 0xE10A0, symSize: 0x20 }
  - { offsetInCU: 0xDE14, offset: 0x43EA1C, size: 0x8, addend: 0x0, symName: '__ZN42_$LT$$RF$T$u20$as$u20$core..fmt..Debug$GT$3fmt17h1cacebb40e96fc3fE', symObjAddr: 0x60, symBinAddr: 0xE10C0, symSize: 0x20 }
  - { offsetInCU: 0xDE77, offset: 0x43EA7F, size: 0x8, addend: 0x0, symName: '__ZN42_$LT$$RF$T$u20$as$u20$core..fmt..Debug$GT$3fmt17h1ce06c7b76572c40E', symObjAddr: 0x80, symBinAddr: 0xE10E0, symSize: 0x20 }
  - { offsetInCU: 0xDEDE, offset: 0x43EAE6, size: 0x8, addend: 0x0, symName: '__ZN42_$LT$$RF$T$u20$as$u20$core..fmt..Debug$GT$3fmt17h1dd72551ea031d4bE', symObjAddr: 0xA0, symBinAddr: 0xE1100, symSize: 0x20 }
  - { offsetInCU: 0xDF45, offset: 0x43EB4D, size: 0x8, addend: 0x0, symName: '__ZN42_$LT$$RF$T$u20$as$u20$core..fmt..Debug$GT$3fmt17h1e80c9897b2900a1E', symObjAddr: 0xC0, symBinAddr: 0xE1120, symSize: 0x20 }
  - { offsetInCU: 0xDFA8, offset: 0x43EBB0, size: 0x8, addend: 0x0, symName: '__ZN42_$LT$$RF$T$u20$as$u20$core..fmt..Debug$GT$3fmt17h2250d6c5841c27acE', symObjAddr: 0xE0, symBinAddr: 0xE1140, symSize: 0x70 }
  - { offsetInCU: 0xE04D, offset: 0x43EC55, size: 0x8, addend: 0x0, symName: '__ZN42_$LT$$RF$T$u20$as$u20$core..fmt..Debug$GT$3fmt17h295aff7ffb60df16E', symObjAddr: 0x150, symBinAddr: 0xE11B0, symSize: 0x70 }
  - { offsetInCU: 0xE0F2, offset: 0x43ECFA, size: 0x8, addend: 0x0, symName: '__ZN42_$LT$$RF$T$u20$as$u20$core..fmt..Debug$GT$3fmt17h29c803af02b45ac0E', symObjAddr: 0x1C0, symBinAddr: 0xE1220, symSize: 0x20 }
  - { offsetInCU: 0xE159, offset: 0x43ED61, size: 0x8, addend: 0x0, symName: '__ZN42_$LT$$RF$T$u20$as$u20$core..fmt..Debug$GT$3fmt17h34fc48e0f5bc3b15E', symObjAddr: 0x1E0, symBinAddr: 0xE1240, symSize: 0x20 }
  - { offsetInCU: 0xE1C0, offset: 0x43EDC8, size: 0x8, addend: 0x0, symName: '__ZN42_$LT$$RF$T$u20$as$u20$core..fmt..Debug$GT$3fmt17h3716338d56ee6194E', symObjAddr: 0x200, symBinAddr: 0xE1260, symSize: 0x20 }
  - { offsetInCU: 0xE227, offset: 0x43EE2F, size: 0x8, addend: 0x0, symName: '__ZN42_$LT$$RF$T$u20$as$u20$core..fmt..Debug$GT$3fmt17h3e953721f6535310E', symObjAddr: 0x220, symBinAddr: 0xE1280, symSize: 0x70 }
  - { offsetInCU: 0xE2CC, offset: 0x43EED4, size: 0x8, addend: 0x0, symName: '__ZN42_$LT$$RF$T$u20$as$u20$core..fmt..Debug$GT$3fmt17h5fea4cd7a4e0b0caE', symObjAddr: 0x290, symBinAddr: 0xE12F0, symSize: 0x20 }
  - { offsetInCU: 0xE333, offset: 0x43EF3B, size: 0x8, addend: 0x0, symName: '__ZN42_$LT$$RF$T$u20$as$u20$core..fmt..Debug$GT$3fmt17h6de388f78853faf8E', symObjAddr: 0x2B0, symBinAddr: 0xE1310, symSize: 0x20 }
  - { offsetInCU: 0xE396, offset: 0x43EF9E, size: 0x8, addend: 0x0, symName: '__ZN42_$LT$$RF$T$u20$as$u20$core..fmt..Debug$GT$3fmt17h6eb3e0a7d1d342aaE', symObjAddr: 0x2D0, symBinAddr: 0xE1330, symSize: 0x20 }
  - { offsetInCU: 0xE3FD, offset: 0x43F005, size: 0x8, addend: 0x0, symName: '__ZN42_$LT$$RF$T$u20$as$u20$core..fmt..Debug$GT$3fmt17h785e1edffcdd1481E', symObjAddr: 0x2F0, symBinAddr: 0xE1350, symSize: 0x20 }
  - { offsetInCU: 0xE464, offset: 0x43F06C, size: 0x8, addend: 0x0, symName: '__ZN42_$LT$$RF$T$u20$as$u20$core..fmt..Debug$GT$3fmt17h7dd31b2888e8495aE', symObjAddr: 0x310, symBinAddr: 0xE1370, symSize: 0x20 }
  - { offsetInCU: 0xE4CB, offset: 0x43F0D3, size: 0x8, addend: 0x0, symName: '__ZN42_$LT$$RF$T$u20$as$u20$core..fmt..Debug$GT$3fmt17h8397e119e92527daE', symObjAddr: 0x330, symBinAddr: 0xE1390, symSize: 0x20 }
  - { offsetInCU: 0xE532, offset: 0x43F13A, size: 0x8, addend: 0x0, symName: '__ZN42_$LT$$RF$T$u20$as$u20$core..fmt..Debug$GT$3fmt17h877dd98580282f4dE', symObjAddr: 0x350, symBinAddr: 0xE13B0, symSize: 0x20 }
  - { offsetInCU: 0xE595, offset: 0x43F19D, size: 0x8, addend: 0x0, symName: '__ZN42_$LT$$RF$T$u20$as$u20$core..fmt..Debug$GT$3fmt17h9a479117445e9485E', symObjAddr: 0x370, symBinAddr: 0xE13D0, symSize: 0x70 }
  - { offsetInCU: 0xE63A, offset: 0x43F242, size: 0x8, addend: 0x0, symName: '__ZN42_$LT$$RF$T$u20$as$u20$core..fmt..Debug$GT$3fmt17h9fa41e1530878a71E', symObjAddr: 0x3E0, symBinAddr: 0xE1440, symSize: 0x20 }
  - { offsetInCU: 0xE6A1, offset: 0x43F2A9, size: 0x8, addend: 0x0, symName: '__ZN42_$LT$$RF$T$u20$as$u20$core..fmt..Debug$GT$3fmt17ha2575016db59c5a4E', symObjAddr: 0x400, symBinAddr: 0xE1460, symSize: 0x70 }
  - { offsetInCU: 0xE746, offset: 0x43F34E, size: 0x8, addend: 0x0, symName: '__ZN42_$LT$$RF$T$u20$as$u20$core..fmt..Debug$GT$3fmt17ha73a35ef6841eb54E', symObjAddr: 0x470, symBinAddr: 0xE14D0, symSize: 0x20 }
  - { offsetInCU: 0xE7AD, offset: 0x43F3B5, size: 0x8, addend: 0x0, symName: '__ZN42_$LT$$RF$T$u20$as$u20$core..fmt..Debug$GT$3fmt17ha7651a2729e0a1a9E', symObjAddr: 0x490, symBinAddr: 0xE14F0, symSize: 0x20 }
  - { offsetInCU: 0xE810, offset: 0x43F418, size: 0x8, addend: 0x0, symName: '__ZN42_$LT$$RF$T$u20$as$u20$core..fmt..Debug$GT$3fmt17ha8af2416730840c9E', symObjAddr: 0x4B0, symBinAddr: 0xE1510, symSize: 0x20 }
  - { offsetInCU: 0xE877, offset: 0x43F47F, size: 0x8, addend: 0x0, symName: '__ZN42_$LT$$RF$T$u20$as$u20$core..fmt..Debug$GT$3fmt17ha8bd306cc23dbc1aE', symObjAddr: 0x4D0, symBinAddr: 0xE1530, symSize: 0x70 }
  - { offsetInCU: 0xE91C, offset: 0x43F524, size: 0x8, addend: 0x0, symName: '__ZN42_$LT$$RF$T$u20$as$u20$core..fmt..Debug$GT$3fmt17hb059fd6aae8bd34cE', symObjAddr: 0x540, symBinAddr: 0xE15A0, symSize: 0x20 }
  - { offsetInCU: 0xE983, offset: 0x43F58B, size: 0x8, addend: 0x0, symName: '__ZN42_$LT$$RF$T$u20$as$u20$core..fmt..Debug$GT$3fmt17hbf3811413e5216c9E', symObjAddr: 0x560, symBinAddr: 0xE15C0, symSize: 0x70 }
  - { offsetInCU: 0xEA28, offset: 0x43F630, size: 0x8, addend: 0x0, symName: '__ZN42_$LT$$RF$T$u20$as$u20$core..fmt..Debug$GT$3fmt17hc4414a99e43c55b1E', symObjAddr: 0x5D0, symBinAddr: 0xE1630, symSize: 0x20 }
  - { offsetInCU: 0xEA8F, offset: 0x43F697, size: 0x8, addend: 0x0, symName: '__ZN42_$LT$$RF$T$u20$as$u20$core..fmt..Debug$GT$3fmt17hc4ae6d825b9c4f1bE', symObjAddr: 0x5F0, symBinAddr: 0xE1650, symSize: 0x20 }
  - { offsetInCU: 0xEAF6, offset: 0x43F6FE, size: 0x8, addend: 0x0, symName: '__ZN42_$LT$$RF$T$u20$as$u20$core..fmt..Debug$GT$3fmt17hc5f7cfae900b4234E', symObjAddr: 0x610, symBinAddr: 0xE1670, symSize: 0x20 }
  - { offsetInCU: 0xEB5D, offset: 0x43F765, size: 0x8, addend: 0x0, symName: '__ZN42_$LT$$RF$T$u20$as$u20$core..fmt..Debug$GT$3fmt17hc9568d45e2f83a37E', symObjAddr: 0x630, symBinAddr: 0xE1690, symSize: 0x70 }
  - { offsetInCU: 0xEC02, offset: 0x43F80A, size: 0x8, addend: 0x0, symName: '__ZN42_$LT$$RF$T$u20$as$u20$core..fmt..Debug$GT$3fmt17hd8ae7b1dacfbd46fE', symObjAddr: 0x6A0, symBinAddr: 0xE1700, symSize: 0x20 }
  - { offsetInCU: 0xEC69, offset: 0x43F871, size: 0x8, addend: 0x0, symName: '__ZN42_$LT$$RF$T$u20$as$u20$core..fmt..Debug$GT$3fmt17hf50bb76a58ca2fd2E', symObjAddr: 0x6C0, symBinAddr: 0xE1720, symSize: 0x20 }
  - { offsetInCU: 0xECD0, offset: 0x43F8D8, size: 0x8, addend: 0x0, symName: '__ZN42_$LT$$RF$T$u20$as$u20$core..fmt..Debug$GT$3fmt17hf828904ef739a097E', symObjAddr: 0x6E0, symBinAddr: 0xE1740, symSize: 0x20 }
  - { offsetInCU: 0xED37, offset: 0x43F93F, size: 0x8, addend: 0x0, symName: '__ZN42_$LT$$RF$T$u20$as$u20$core..fmt..Debug$GT$3fmt17hfb6c8254ed35b143E', symObjAddr: 0x700, symBinAddr: 0xE1760, symSize: 0x20 }
  - { offsetInCU: 0x12AB8, offset: 0x4436C0, size: 0x8, addend: 0x0, symName: __ZN3syn5token5Group8surround17hfbe81a72805f5875E, symObjAddr: 0xDC0, symBinAddr: 0xE1B40, symSize: 0x120 }
  - { offsetInCU: 0x12D9A, offset: 0x4439A2, size: 0x8, addend: 0x0, symName: __ZN3syn5token5Brace8surround17h1616ad3374cfb32bE, symObjAddr: 0x7480, symBinAddr: 0xE3680, symSize: 0x250 }
  - { offsetInCU: 0x13240, offset: 0x443E48, size: 0x8, addend: 0x0, symName: __ZN3syn5token5Brace8surround17h1d2920be538b3d67E, symObjAddr: 0x76D0, symBinAddr: 0xE38D0, symSize: 0x230 }
  - { offsetInCU: 0x1368F, offset: 0x444297, size: 0x8, addend: 0x0, symName: __ZN3syn5token5Brace8surround17h2f7384e739db3158E, symObjAddr: 0x7900, symBinAddr: 0xE3B00, symSize: 0x250 }
  - { offsetInCU: 0x13B28, offset: 0x444730, size: 0x8, addend: 0x0, symName: __ZN3syn5token5Brace8surround17h3cea1965078b46e8E, symObjAddr: 0x7B50, symBinAddr: 0xE3D50, symSize: 0x230 }
  - { offsetInCU: 0x14060, offset: 0x444C68, size: 0x8, addend: 0x0, symName: __ZN3syn5token5Brace8surround17h44f34f1ab411b35eE, symObjAddr: 0x7D80, symBinAddr: 0xE3F80, symSize: 0x150 }
  - { offsetInCU: 0x1434A, offset: 0x444F52, size: 0x8, addend: 0x0, symName: __ZN3syn5token5Brace8surround17h4f53dfd33b0aa4c6E, symObjAddr: 0x7ED0, symBinAddr: 0xE40D0, symSize: 0x230 }
  - { offsetInCU: 0x1488F, offset: 0x445497, size: 0x8, addend: 0x0, symName: __ZN3syn5token5Brace8surround17h658cc35944b0b219E, symObjAddr: 0x8100, symBinAddr: 0xE4300, symSize: 0x130 }
  - { offsetInCU: 0x14AD2, offset: 0x4456DA, size: 0x8, addend: 0x0, symName: __ZN3syn5token5Brace8surround17h67ec14ac595125f5E, symObjAddr: 0x8230, symBinAddr: 0xE4430, symSize: 0x460 }
  - { offsetInCU: 0x15707, offset: 0x44630F, size: 0x8, addend: 0x0, symName: __ZN3syn5token5Brace8surround17h830f66792d95d6a1E, symObjAddr: 0x8690, symBinAddr: 0xE4890, symSize: 0x190 }
  - { offsetInCU: 0x159A1, offset: 0x4465A9, size: 0x8, addend: 0x0, symName: __ZN3syn5token5Brace8surround17h93d6e9c0e4ef6056E, symObjAddr: 0x8820, symBinAddr: 0xE4A20, symSize: 0x0 }
  - { offsetInCU: 0x15ED5, offset: 0x446ADD, size: 0x8, addend: 0x0, symName: __ZN3syn5token5Brace8surround17h9a2e80ca99906d35E, symObjAddr: 0x8A50, symBinAddr: 0xE4C50, symSize: 0x0 }
  - { offsetInCU: 0x16173, offset: 0x446D7B, size: 0x8, addend: 0x0, symName: __ZN3syn5token5Brace8surround17hb0c8276345dde1c2E, symObjAddr: 0x8BD0, symBinAddr: 0xE4DD0, symSize: 0x1B0 }
  - { offsetInCU: 0x16666, offset: 0x44726E, size: 0x8, addend: 0x0, symName: __ZN3syn5token5Brace8surround17hb63569a8d18b567dE, symObjAddr: 0x8D80, symBinAddr: 0xE4F80, symSize: 0x230 }
  - { offsetInCU: 0x16AF6, offset: 0x4476FE, size: 0x8, addend: 0x0, symName: __ZN3syn5token5Brace8surround17hc53934dc4c14330eE, symObjAddr: 0x8FB0, symBinAddr: 0xE51B0, symSize: 0x460 }
  - { offsetInCU: 0x174F9, offset: 0x448101, size: 0x8, addend: 0x0, symName: __ZN3syn5token5Brace8surround17hd5a84cf97badd42dE, symObjAddr: 0x9410, symBinAddr: 0xE5610, symSize: 0x230 }
  - { offsetInCU: 0x17A3E, offset: 0x448646, size: 0x8, addend: 0x0, symName: __ZN3syn5token5Brace8surround17hd63b1effe05f3546E, symObjAddr: 0x9640, symBinAddr: 0xE5840, symSize: 0x250 }
  - { offsetInCU: 0x17ED7, offset: 0x448ADF, size: 0x8, addend: 0x0, symName: __ZN3syn5token5Brace8surround17hdb4abaf7d4aba6dfE, symObjAddr: 0x9890, symBinAddr: 0xE5A90, symSize: 0x230 }
  - { offsetInCU: 0x1836E, offset: 0x448F76, size: 0x8, addend: 0x0, symName: __ZN3syn5token5Brace8surround17hdca5a0a12cc0e09cE, symObjAddr: 0x9AC0, symBinAddr: 0xE5CC0, symSize: 0x250 }
  - { offsetInCU: 0x1887F, offset: 0x449487, size: 0x8, addend: 0x0, symName: __ZN3syn5token5Brace8surround17he90b59b4e7ee997dE, symObjAddr: 0x9D10, symBinAddr: 0xE5F10, symSize: 0x170 }
  - { offsetInCU: 0x18B35, offset: 0x44973D, size: 0x8, addend: 0x0, symName: __ZN3syn5token5Brace8surround17hecd06f1637cbfb86E, symObjAddr: 0x9E80, symBinAddr: 0xE6080, symSize: 0x230 }
  - { offsetInCU: 0x19156, offset: 0x449D5E, size: 0x8, addend: 0x0, symName: __ZN3syn5token5Brace8surround17hf04846c82ffc2b75E, symObjAddr: 0xA0B0, symBinAddr: 0xE62B0, symSize: 0x280 }
  - { offsetInCU: 0x196D8, offset: 0x44A2E0, size: 0x8, addend: 0x0, symName: __ZN3syn5token7Bracket8surround17h156a64f8715fd9d7E, symObjAddr: 0xA350, symBinAddr: 0xE6550, symSize: 0x190 }
  - { offsetInCU: 0x1992F, offset: 0x44A537, size: 0x8, addend: 0x0, symName: __ZN3syn5token7Bracket8surround17h3268c628a093763bE, symObjAddr: 0xA4E0, symBinAddr: 0xE66E0, symSize: 0x160 }
  - { offsetInCU: 0x19BA2, offset: 0x44A7AA, size: 0x8, addend: 0x0, symName: __ZN3syn5token7Bracket8surround17h59b80e5c4f1e2536E, symObjAddr: 0xA640, symBinAddr: 0xE6840, symSize: 0x1A0 }
  - { offsetInCU: 0x1A076, offset: 0x44AC7E, size: 0x8, addend: 0x0, symName: __ZN3syn5token7Bracket8surround17h666da6b44b8f2314E, symObjAddr: 0xA7E0, symBinAddr: 0xE69E0, symSize: 0x130 }
  - { offsetInCU: 0x1A2A8, offset: 0x44AEB0, size: 0x8, addend: 0x0, symName: __ZN3syn5token7Bracket8surround17he461d4c5258c6ed9E, symObjAddr: 0xAAB0, symBinAddr: 0xE6B10, symSize: 0x130 }
  - { offsetInCU: 0x1A4B1, offset: 0x44B0B9, size: 0x8, addend: 0x0, symName: __ZN3syn5token7Bracket8surround17hf2f56b7ec8e6cdfdE, symObjAddr: 0xABE0, symBinAddr: 0xE6C40, symSize: 0x150 }
  - { offsetInCU: 0x1A7E2, offset: 0x44B3EA, size: 0x8, addend: 0x0, symName: __ZN3syn5token5Paren8surround17h149d374eeacaaaf0E, symObjAddr: 0xAE80, symBinAddr: 0xE6DB0, symSize: 0x360 }
  - { offsetInCU: 0x1B197, offset: 0x44BD9F, size: 0x8, addend: 0x0, symName: __ZN3syn5token5Paren8surround17h17edd0d0ba5e5361E, symObjAddr: 0xB1E0, symBinAddr: 0xE7110, symSize: 0x160 }
  - { offsetInCU: 0x1B4C9, offset: 0x44C0D1, size: 0x8, addend: 0x0, symName: __ZN3syn5token5Paren8surround17h2a820c17fc4ce3a7E, symObjAddr: 0xB340, symBinAddr: 0xE7270, symSize: 0x210 }
  - { offsetInCU: 0x1BA2B, offset: 0x44C633, size: 0x8, addend: 0x0, symName: __ZN3syn5token5Paren8surround17h618017ebbb591ce6E, symObjAddr: 0xB550, symBinAddr: 0xE7480, symSize: 0x1A0 }
  - { offsetInCU: 0x1BF86, offset: 0x44CB8E, size: 0x8, addend: 0x0, symName: __ZN3syn5token5Paren8surround17haf0fe92dddd4f436E, symObjAddr: 0xB930, symBinAddr: 0xE7620, symSize: 0x210 }
  - { offsetInCU: 0x1C4E3, offset: 0x44D0EB, size: 0x8, addend: 0x0, symName: __ZN3syn5token5Paren8surround17hb26de38efb8247a2E, symObjAddr: 0xBB40, symBinAddr: 0xE7830, symSize: 0x130 }
  - { offsetInCU: 0x1C6BA, offset: 0x44D2C2, size: 0x8, addend: 0x0, symName: __ZN3syn5token5Paren8surround17hb614c327a7c4effbE, symObjAddr: 0xBC70, symBinAddr: 0xE7960, symSize: 0x130 }
  - { offsetInCU: 0x1C8BE, offset: 0x44D4C6, size: 0x8, addend: 0x0, symName: __ZN3syn5token5Paren8surround17hb72c32fa2faca43dE, symObjAddr: 0xBDA0, symBinAddr: 0xE7A90, symSize: 0x120 }
  - { offsetInCU: 0x1CAC7, offset: 0x44D6CF, size: 0x8, addend: 0x0, symName: __ZN3syn5token5Paren8surround17hbc9cea44f84e7c35E, symObjAddr: 0xBEC0, symBinAddr: 0xE7BB0, symSize: 0x460 }
  - { offsetInCU: 0x1D4CA, offset: 0x44E0D2, size: 0x8, addend: 0x0, symName: __ZN3syn5token5Paren8surround17hbe460fe33e1b9807E, symObjAddr: 0xC320, symBinAddr: 0xE8010, symSize: 0x1A0 }
  - { offsetInCU: 0x1D9A0, offset: 0x44E5A8, size: 0x8, addend: 0x0, symName: __ZN3syn5token5Paren8surround17hd6561f4009004b42E, symObjAddr: 0xC660, symBinAddr: 0xE81B0, symSize: 0x120 }
  - { offsetInCU: 0x1DBA9, offset: 0x44E7B1, size: 0x8, addend: 0x0, symName: __ZN3syn5token5Paren8surround17he038d9e0318c7237E, symObjAddr: 0xC780, symBinAddr: 0xE82D0, symSize: 0x1A0 }
  - { offsetInCU: 0x1E130, offset: 0x44ED38, size: 0x8, addend: 0x0, symName: __ZN3syn5token5Paren8surround17he1dbac95a537a101E, symObjAddr: 0xC920, symBinAddr: 0xE8470, symSize: 0x230 }
  - { offsetInCU: 0x1E934, offset: 0x44F53C, size: 0x8, addend: 0x0, symName: __ZN3syn5token5Paren8surround17he21459b4274789cfE, symObjAddr: 0xCB50, symBinAddr: 0xE86A0, symSize: 0x27B0 }
  - { offsetInCU: 0x2441A, offset: 0x455022, size: 0x8, addend: 0x0, symName: __ZN3syn5token5Paren8surround17hf739ea3e87afa242E, symObjAddr: 0xF300, symBinAddr: 0xEAE50, symSize: 0x260 }
  - { offsetInCU: 0x24AEE, offset: 0x4556F6, size: 0x8, addend: 0x0, symName: __ZN3syn5token5Paren8surround17hfdecddc10755409eE, symObjAddr: 0xF560, symBinAddr: 0xEB0B0, symSize: 0x18F }
  - { offsetInCU: 0x1E, offset: 0x45D44D, size: 0x8, addend: 0x0, symName: '__ZN42_$LT$$RF$T$u20$as$u20$core..fmt..Debug$GT$3fmt17h0bb04175fe47483dE', symObjAddr: 0x0, symBinAddr: 0xEB240, symSize: 0xC0 }
  - { offsetInCU: 0x1387, offset: 0x45E7B6, size: 0x8, addend: 0x0, symName: '__ZN77_$LT$$RF$$u5b$syn..attr..Attribute$u5d$$u20$as$u20$syn..attr..FilterAttrs$GT$5outer8is_outer17h05806f843d7deec4E.llvm.6340778183057508401', symObjAddr: 0x7D20, symBinAddr: 0xF2D40, symSize: 0x20 }
  - { offsetInCU: 0x2123, offset: 0x45F552, size: 0x8, addend: 0x0, symName: '__ZN3syn2ty8printing78_$LT$impl$u20$quote..to_tokens..ToTokens$u20$for$u20$syn..ty..BareVariadic$GT$9to_tokens17ha9341a662464f4c2E', symObjAddr: 0xBF20, symBinAddr: 0xF5080, symSize: 0x150 }
  - { offsetInCU: 0x23D5, offset: 0x45F804, size: 0x8, addend: 0x0, symName: '__ZN3syn2ty7parsing61_$LT$impl$u20$syn..parse..Parse$u20$for$u20$syn..ty..Type$GT$5parse17h889cc5bfbc020ab2E', symObjAddr: 0x7D40, symBinAddr: 0xF2D60, symSize: 0x30 }
  - { offsetInCU: 0x245B, offset: 0x45F88A, size: 0x8, addend: 0x0, symName: '__ZN3syn2ty7parsing64_$LT$impl$u20$syn..parse..Parse$u20$for$u20$syn..ty..TypePtr$GT$5parse17h812b205086cf1413E', symObjAddr: 0x85B0, symBinAddr: 0xF2D90, symSize: 0x460 }
  - { offsetInCU: 0x3086, offset: 0x4604B5, size: 0x8, addend: 0x0, symName: '__ZN3syn2ty7parsing70_$LT$impl$u20$syn..parse..Parse$u20$for$u20$syn..ty..TypeReference$GT$5parse17h328046432bc63490E', symObjAddr: 0x8A10, symBinAddr: 0xF31F0, symSize: 0x3E0 }
  - { offsetInCU: 0x380A, offset: 0x460C39, size: 0x8, addend: 0x0, symName: '__ZN3syn2ty7parsing67_$LT$impl$u20$syn..parse..Parse$u20$for$u20$syn..ty..TypeBareFn$GT$5parse17h38aebc87a74f9b4cE', symObjAddr: 0x8DF0, symBinAddr: 0xF35D0, symSize: 0xE10 }
  - { offsetInCU: 0x4B02, offset: 0x461F31, size: 0x8, addend: 0x0, symName: '__ZN3syn2ty7parsing66_$LT$impl$u20$syn..parse..Parse$u20$for$u20$syn..ty..TypeNever$GT$5parse17h5e83694d4dbbe60bE', symObjAddr: 0x9C00, symBinAddr: 0xF43E0, symSize: 0x50 }
  - { offsetInCU: 0x4BB0, offset: 0x461FDF, size: 0x8, addend: 0x0, symName: '__ZN3syn2ty7parsing72_$LT$impl$u20$syn..parse..Parse$u20$for$u20$syn..ty..TypeTraitObject$GT$5parse17h26a0300cf5800a6aE', symObjAddr: 0xA600, symBinAddr: 0xF45F0, symSize: 0x1B0 }
  - { offsetInCU: 0x51F4, offset: 0x462623, size: 0x8, addend: 0x0, symName: '__ZN3syn2ty7parsing66_$LT$impl$u20$syn..parse..Parse$u20$for$u20$syn..ty..TypeGroup$GT$5parse17h39a20901238debb2E', symObjAddr: 0xAFD0, symBinAddr: 0xF4DE0, symSize: 0x2A0 }
  - { offsetInCU: 0x5773, offset: 0x462BA2, size: 0x8, addend: 0x0, symName: '__ZN60_$LT$syn..ty..Type$u20$as$u20$quote..to_tokens..ToTokens$GT$9to_tokens17hb94ae3e2d75fc0b3E', symObjAddr: 0xC110, symBinAddr: 0xF51D0, symSize: 0xA30 }
  - { offsetInCU: 0x9B89, offset: 0x466FB8, size: 0x8, addend: 0x0, symName: '__ZN3syn3gen5debug59_$LT$impl$u20$core..fmt..Debug$u20$for$u20$syn..ty..Abi$GT$3fmt17h757ab831358c8289E', symObjAddr: 0xE2C0, symBinAddr: 0xF6A90, symSize: 0x80 }
  - { offsetInCU: 0x9BCB, offset: 0x466FFA, size: 0x8, addend: 0x0, symName: '__ZN3syn3gen5debug65_$LT$impl$u20$core..fmt..Debug$u20$for$u20$syn..ty..BareFnArg$GT$3fmt17hc1fcffe51c56dd30E', symObjAddr: 0xE340, symBinAddr: 0xF6B10, symSize: 0xA0 }
  - { offsetInCU: 0x9C2B, offset: 0x46705A, size: 0x8, addend: 0x0, symName: '__ZN3syn3gen5debug66_$LT$impl$u20$core..fmt..Debug$u20$for$u20$syn..ty..ReturnType$GT$3fmt17h78fb1a12ef3371acE', symObjAddr: 0xE4A0, symBinAddr: 0xF6BB0, symSize: 0xB0 }
  - { offsetInCU: 0x9CBD, offset: 0x4670EC, size: 0x8, addend: 0x0, symName: '__ZN3syn3gen5debug60_$LT$impl$u20$core..fmt..Debug$u20$for$u20$syn..ty..Type$GT$3fmt17h72ddaec4c5abea79E', symObjAddr: 0xE550, symBinAddr: 0xF6C60, symSize: 0x5A0 }
  - { offsetInCU: 0xA287, offset: 0x4676B6, size: 0x8, addend: 0x0, symName: '__ZN3syn3gen2eq69_$LT$impl$u20$core..cmp..PartialEq$u20$for$u20$syn..ty..BareFnArg$GT$2eq17h2f496e2d7804f9b8E', symObjAddr: 0xF360, symBinAddr: 0xF7340, symSize: 0x160 }
  - { offsetInCU: 0xA4F5, offset: 0x467924, size: 0x8, addend: 0x0, symName: '__ZN3syn3gen2eq72_$LT$impl$u20$core..cmp..PartialEq$u20$for$u20$syn..ty..BareVariadic$GT$2eq17h61ef89155130b38cE', symObjAddr: 0xF4C0, symBinAddr: 0xF74A0, symSize: 0x140 }
  - { offsetInCU: 0xA964, offset: 0x467D93, size: 0x8, addend: 0x0, symName: '__ZN3syn3gen2eq64_$LT$impl$u20$core..cmp..PartialEq$u20$for$u20$syn..ty..Type$GT$2eq17hb236401e4b0d2f94E', symObjAddr: 0xF630, symBinAddr: 0xF75E0, symSize: 0x580 }
  - { offsetInCU: 0xB21D, offset: 0x46864C, size: 0x8, addend: 0x0, symName: '__ZN3syn3gen2eq70_$LT$impl$u20$core..cmp..PartialEq$u20$for$u20$syn..ty..TypeBareFn$GT$2eq17h1805504b34aba3bbE', symObjAddr: 0xFBF0, symBinAddr: 0xF7B60, symSize: 0x210 }
  - { offsetInCU: 0xB8BC, offset: 0x468CEB, size: 0x8, addend: 0x0, symName: '__ZN3syn3gen5clone67_$LT$impl$u20$core..clone..Clone$u20$for$u20$syn..ty..BareFnArg$GT$5clone17hbf21853b379f8c0dE', symObjAddr: 0xCB70, symBinAddr: 0xF5C00, symSize: 0x140 }
  - { offsetInCU: 0xBD66, offset: 0x469195, size: 0x8, addend: 0x0, symName: '__ZN3syn3gen5clone62_$LT$impl$u20$core..clone..Clone$u20$for$u20$syn..ty..Type$GT$5clone17h43a77bdbcaae263dE', symObjAddr: 0xCE20, symBinAddr: 0xF5D40, symSize: 0x8C0 }
  - { offsetInCU: 0xD801, offset: 0x46AC30, size: 0x8, addend: 0x0, symName: '__ZN3syn3gen5clone68_$LT$impl$u20$core..clone..Clone$u20$for$u20$syn..ty..TypeBareFn$GT$5clone17h442a28b9c76fb2abE', symObjAddr: 0xD7F0, symBinAddr: 0xF6600, symSize: 0x490 }
  - { offsetInCU: 0x107BD, offset: 0x46DBEC, size: 0x8, addend: 0x0, symName: '__ZN4core3ptr100drop_in_place$LT$core..option..Option$LT$alloc..boxed..Box$LT$syn..path..GenericArgument$GT$$GT$$GT$17h7435c9de74860622E', symObjAddr: 0x150, symBinAddr: 0xEB390, symSize: 0x50 }
  - { offsetInCU: 0x10B5D, offset: 0x46DF8C, size: 0x8, addend: 0x0, symName: '__ZN4core3ptr100drop_in_place$LT$syn..punctuated..Punctuated$LT$syn..path..PathSegment$C$syn..token..PathSep$GT$$GT$17hf414cb3581f8337aE', symObjAddr: 0x1A0, symBinAddr: 0xEB3E0, symSize: 0x260 }
  - { offsetInCU: 0x114F6, offset: 0x46E925, size: 0x8, addend: 0x0, symName: '__ZN4core3ptr103drop_in_place$LT$core..option..Option$LT$alloc..boxed..Box$LT$syn..generics..TypeParamBound$GT$$GT$$GT$17h5974f03e36b1a9c3E', symObjAddr: 0x400, symBinAddr: 0xEB640, symSize: 0x50 }
  - { offsetInCU: 0x11703, offset: 0x46EB32, size: 0x8, addend: 0x0, symName: '__ZN4core3ptr103drop_in_place$LT$syn..punctuated..Punctuated$LT$syn..generics..GenericParam$C$syn..token..Comma$GT$$GT$17hf42353fa44ed6da8E', symObjAddr: 0x450, symBinAddr: 0xEB690, symSize: 0xF0 }
  - { offsetInCU: 0x11BC6, offset: 0x46EFF5, size: 0x8, addend: 0x0, symName: '__ZN4core3ptr104drop_in_place$LT$syn..punctuated..Punctuated$LT$syn..generics..TypeParamBound$C$syn..token..Plus$GT$$GT$17h532f52c4a894b056E', symObjAddr: 0x540, symBinAddr: 0xEB780, symSize: 0x190 }
  - { offsetInCU: 0x12239, offset: 0x46F668, size: 0x8, addend: 0x0, symName: '__ZN4core3ptr34drop_in_place$LT$syn..lit..Lit$GT$17h8902f5ff67917034E', symObjAddr: 0x6D0, symBinAddr: 0xEB910, symSize: 0x110 }
  - { offsetInCU: 0x12792, offset: 0x46FBC1, size: 0x8, addend: 0x0, symName: '__ZN4core3ptr34drop_in_place$LT$syn..pat..Pat$GT$17h4581eea028ec0969E', symObjAddr: 0x7E0, symBinAddr: 0xEBA20, symSize: 0x1000 }
  - { offsetInCU: 0x162B7, offset: 0x4736E6, size: 0x8, addend: 0x0, symName: '__ZN4core3ptr34drop_in_place$LT$syn..ty..Type$GT$17h369e41ad4a9f1ae0E.llvm.6340778183057508401', symObjAddr: 0x17E0, symBinAddr: 0xECA20, symSize: 0x500 }
  - { offsetInCU: 0x17250, offset: 0x47467F, size: 0x8, addend: 0x0, symName: '__ZN4core3ptr35drop_in_place$LT$syn..token..Fn$GT$17h8912797593c6e2c0E', symObjAddr: 0x1CE0, symBinAddr: 0xECF20, symSize: 0x10 }
  - { offsetInCU: 0x1784C, offset: 0x474C7B, size: 0x8, addend: 0x0, symName: '__ZN4core3ptr36drop_in_place$LT$syn..expr..Expr$GT$17h0f7fd4c749bae801E', symObjAddr: 0x1CF0, symBinAddr: 0xECF30, symSize: 0x28E0 }
  - { offsetInCU: 0x20CDE, offset: 0x47E10D, size: 0x8, addend: 0x0, symName: '__ZN4core3ptr36drop_in_place$LT$syn..mac..Macro$GT$17h4ffde962df30ebe2E', symObjAddr: 0x45D0, symBinAddr: 0xEF810, symSize: 0x40 }
  - { offsetInCU: 0x20D18, offset: 0x47E147, size: 0x8, addend: 0x0, symName: '__ZN4core3ptr36drop_in_place$LT$syn..path..Path$GT$17habea856181211e1cE', symObjAddr: 0x4610, symBinAddr: 0xEF850, symSize: 0x220 }
  - { offsetInCU: 0x2164D, offset: 0x47EA7C, size: 0x8, addend: 0x0, symName: '__ZN4core3ptr37drop_in_place$LT$$RF$syn..ty..Abi$GT$17hb6e3aa83ad0d919eE', symObjAddr: 0x4830, symBinAddr: 0xEFA70, symSize: 0x10 }
  - { offsetInCU: 0x21679, offset: 0x47EAA8, size: 0x8, addend: 0x0, symName: '__ZN4core3ptr37drop_in_place$LT$syn..stmt..Block$GT$17hcc21a21cf949414cE', symObjAddr: 0x4840, symBinAddr: 0xEFA80, symSize: 0xD0 }
  - { offsetInCU: 0x2191D, offset: 0x47ED4C, size: 0x8, addend: 0x0, symName: '__ZN4core3ptr38drop_in_place$LT$syn..expr..Member$GT$17h022cbe5553aa40faE', symObjAddr: 0x4910, symBinAddr: 0xEFB50, symSize: 0x30 }
  - { offsetInCU: 0x21AB5, offset: 0x47EEE4, size: 0x8, addend: 0x0, symName: '__ZN4core3ptr38drop_in_place$LT$syn..group..Group$GT$17hc3a29a397b30f633E.llvm.6340778183057508401', symObjAddr: 0x4940, symBinAddr: 0xEFB80, symSize: 0x70 }
  - { offsetInCU: 0x21DCB, offset: 0x47F1FA, size: 0x8, addend: 0x0, symName: '__ZN4core3ptr39drop_in_place$LT$proc_macro2..Ident$GT$17h8101e88c3ac359d6E', symObjAddr: 0x49B0, symBinAddr: 0xEFBF0, symSize: 0x30 }
  - { offsetInCU: 0x21EA9, offset: 0x47F2D8, size: 0x8, addend: 0x0, symName: '__ZN4core3ptr40drop_in_place$LT$syn..ty..ReturnType$GT$17h02cf41e2fec63d90E', symObjAddr: 0x49E0, symBinAddr: 0xEFC20, symSize: 0x50 }
  - { offsetInCU: 0x2201B, offset: 0x47F44A, size: 0x8, addend: 0x0, symName: '__ZN4core3ptr41drop_in_place$LT$syn..expr..ExprConst$GT$17h725a13e551d9f276E', symObjAddr: 0x4A30, symBinAddr: 0xEFC70, symSize: 0x180 }
  - { offsetInCU: 0x22570, offset: 0x47F99F, size: 0x8, addend: 0x0, symName: '__ZN4core3ptr44drop_in_place$LT$syn..lifetime..Lifetime$GT$17hf0cdec2e9ec456d6E', symObjAddr: 0x4BB0, symBinAddr: 0xEFDF0, symSize: 0x30 }
  - { offsetInCU: 0x2266D, offset: 0x47FA9C, size: 0x8, addend: 0x0, symName: '__ZN4core3ptr44drop_in_place$LT$syn..parse..ParseBuffer$GT$17hd0dadba44a19aec2E', symObjAddr: 0x4BE0, symBinAddr: 0xEFE20, symSize: 0x70 }
  - { offsetInCU: 0x22AA2, offset: 0x47FED1, size: 0x8, addend: 0x0, symName: '__ZN4core3ptr45drop_in_place$LT$proc_macro2..TokenStream$GT$17h3405f6c513e9f6cbE.llvm.6340778183057508401', symObjAddr: 0x4C50, symBinAddr: 0xEFE90, symSize: 0x140 }
  - { offsetInCU: 0x22F11, offset: 0x480340, size: 0x8, addend: 0x0, symName: '__ZN4core3ptr45drop_in_place$LT$syn..generics..TypeParam$GT$17he5eda51070b7de47E', symObjAddr: 0x4D90, symBinAddr: 0xEFFD0, symSize: 0x230 }
  - { offsetInCU: 0x2370D, offset: 0x480B3C, size: 0x8, addend: 0x0, symName: '__ZN4core3ptr46drop_in_place$LT$syn..generics..ConstParam$GT$17hab0a58c4af8c549cE', symObjAddr: 0x4FC0, symBinAddr: 0xF0200, symSize: 0x150 }
  - { offsetInCU: 0x23B37, offset: 0x480F66, size: 0x8, addend: 0x0, symName: '__ZN4core3ptr47drop_in_place$LT$syn..path..GenericArgument$GT$17h54f8794633f96823E', symObjAddr: 0x5110, symBinAddr: 0xF0350, symSize: 0x4A0 }
  - { offsetInCU: 0x24BDE, offset: 0x48200D, size: 0x8, addend: 0x0, symName: '__ZN4core3ptr49drop_in_place$LT$syn..generics..LifetimeParam$GT$17h41a7c7a290ea6289E', symObjAddr: 0x55B0, symBinAddr: 0xF07F0, symSize: 0xF0 }
  - { offsetInCU: 0x24F98, offset: 0x4823C7, size: 0x8, addend: 0x0, symName: '__ZN4core3ptr50drop_in_place$LT$syn..generics..TypeParamBound$GT$17hcd7771d4c6c221efE', symObjAddr: 0x56A0, symBinAddr: 0xF08E0, symSize: 0x160 }
  - { offsetInCU: 0x253B8, offset: 0x4827E7, size: 0x8, addend: 0x0, symName: '__ZN4core3ptr58drop_in_place$LT$alloc..vec..Vec$LT$syn..expr..Arm$GT$$GT$17h1a55df3d2cba1daaE', symObjAddr: 0x5800, symBinAddr: 0xF0A40, symSize: 0xD0 }
  - { offsetInCU: 0x25645, offset: 0x482A74, size: 0x8, addend: 0x0, symName: '__ZN4core3ptr59drop_in_place$LT$alloc..boxed..Box$LT$syn..pat..Pat$GT$$GT$17h563b135d87aca8abE', symObjAddr: 0x58D0, symBinAddr: 0xF0B10, symSize: 0x50 }
  - { offsetInCU: 0x257A0, offset: 0x482BCF, size: 0x8, addend: 0x0, symName: '__ZN4core3ptr59drop_in_place$LT$alloc..boxed..Box$LT$syn..ty..Type$GT$$GT$17hffed36bad83adacbE', symObjAddr: 0x5920, symBinAddr: 0xF0B60, symSize: 0x50 }
  - { offsetInCU: 0x258FB, offset: 0x482D2A, size: 0x8, addend: 0x0, symName: '__ZN4core3ptr61drop_in_place$LT$alloc..boxed..Box$LT$syn..expr..Expr$GT$$GT$17h01091e47f131475dE', symObjAddr: 0x5970, symBinAddr: 0xF0BB0, symSize: 0x50 }
  - { offsetInCU: 0x25A56, offset: 0x482E85, size: 0x8, addend: 0x0, symName: '__ZN4core3ptr61drop_in_place$LT$core..option..Option$LT$syn..ty..Abi$GT$$GT$17hb6f77ddb0a13b372E', symObjAddr: 0x59C0, symBinAddr: 0xF0C00, symSize: 0x70 }
  - { offsetInCU: 0x25E02, offset: 0x483231, size: 0x8, addend: 0x0, symName: '__ZN4core3ptr61drop_in_place$LT$syn..path..ParenthesizedGenericArguments$GT$17h43d4aac5494326a7E', symObjAddr: 0x5A30, symBinAddr: 0xF0C70, symSize: 0x170 }
  - { offsetInCU: 0x263C9, offset: 0x4837F8, size: 0x8, addend: 0x0, symName: '__ZN4core3ptr62drop_in_place$LT$syn..path..AngleBracketedGenericArguments$GT$17hc5b69f68243636ddE', symObjAddr: 0x5BA0, symBinAddr: 0xF0DE0, symSize: 0x120 }
  - { offsetInCU: 0x267DF, offset: 0x483C0E, size: 0x8, addend: 0x0, symName: '__ZN4core3ptr63drop_in_place$LT$alloc..boxed..Box$LT$syn..lit..LitRepr$GT$$GT$17hd8839b7fb35ee7afE', symObjAddr: 0x5CC0, symBinAddr: 0xF0F00, symSize: 0x60 }
  - { offsetInCU: 0x26AD4, offset: 0x483F03, size: 0x8, addend: 0x0, symName: '__ZN4core3ptr64drop_in_place$LT$alloc..boxed..Box$LT$syn..pat..FieldPat$GT$$GT$17h4980b70a7597cc08E', symObjAddr: 0x5D20, symBinAddr: 0xF0F60, symSize: 0x140 }
  - { offsetInCU: 0x2717F, offset: 0x4845AE, size: 0x8, addend: 0x0, symName: '__ZN4core3ptr64drop_in_place$LT$alloc..boxed..Box$LT$syn..ty..BareFnArg$GT$$GT$17h8b34096c620314efE', symObjAddr: 0x5E60, symBinAddr: 0xF10A0, symSize: 0x140 }
  - { offsetInCU: 0x276A3, offset: 0x484AD2, size: 0x8, addend: 0x0, symName: '__ZN4core3ptr64drop_in_place$LT$alloc..vec..Vec$LT$syn..attr..Attribute$GT$$GT$17h3c8f2a04e701c675E.llvm.6340778183057508401', symObjAddr: 0x5FA0, symBinAddr: 0xF11E0, symSize: 0xD0 }
  - { offsetInCU: 0x27930, offset: 0x484D5F, size: 0x8, addend: 0x0, symName: '__ZN4core3ptr65drop_in_place$LT$core..option..Option$LT$syn..expr..Label$GT$$GT$17h78189e72a8cb7951E', symObjAddr: 0x6070, symBinAddr: 0xF12B0, symSize: 0x30 }
  - { offsetInCU: 0x27A6B, offset: 0x484E9A, size: 0x8, addend: 0x0, symName: '__ZN4core3ptr65drop_in_place$LT$core..option..Option$LT$syn..lit..LitStr$GT$$GT$17h0a5112ca8f262634E', symObjAddr: 0x60A0, symBinAddr: 0xF12E0, symSize: 0x60 }
  - { offsetInCU: 0x27D6F, offset: 0x48519E, size: 0x8, addend: 0x0, symName: '__ZN4core3ptr65drop_in_place$LT$core..option..Option$LT$syn..path..QSelf$GT$$GT$17h9b72552ca06b7379E', symObjAddr: 0x6100, symBinAddr: 0xF1340, symSize: 0x50 }
  - { offsetInCU: 0x27F08, offset: 0x485337, size: 0x8, addend: 0x0, symName: '__ZN4core3ptr66drop_in_place$LT$core..option..Option$LT$syn..pat..PatRest$GT$$GT$17h61677cf4ff3a7393E', symObjAddr: 0x6150, symBinAddr: 0xF1390, symSize: 0xE0 }
  - { offsetInCU: 0x2818C, offset: 0x4855BB, size: 0x8, addend: 0x0, symName: '__ZN4core3ptr67drop_in_place$LT$alloc..boxed..Box$LT$syn..expr..FieldValue$GT$$GT$17h93aaccf8aa22ef88E', symObjAddr: 0x6230, symBinAddr: 0xF1470, symSize: 0x140 }
  - { offsetInCU: 0x28690, offset: 0x485ABF, size: 0x8, addend: 0x0, symName: '__ZN4core3ptr68drop_in_place$LT$alloc..boxed..Box$LT$syn..path..PathSegment$GT$$GT$17h709dabdc13b58a71E', symObjAddr: 0x6370, symBinAddr: 0xF15B0, symSize: 0x190 }
  - { offsetInCU: 0x28D6E, offset: 0x48619D, size: 0x8, addend: 0x0, symName: '__ZN4core3ptr70drop_in_place$LT$core..option..Option$LT$syn..ty..BareVariadic$GT$$GT$17h45399348ea4b8d55E', symObjAddr: 0x6500, symBinAddr: 0xF1740, symSize: 0x120 }
  - { offsetInCU: 0x2929B, offset: 0x4866CA, size: 0x8, addend: 0x0, symName: '__ZN4core3ptr72drop_in_place$LT$alloc..boxed..Box$LT$syn..path..GenericArgument$GT$$GT$17haa7dd8b716637b54E', symObjAddr: 0x6620, symBinAddr: 0xF1860, symSize: 0x1D0 }
  - { offsetInCU: 0x2983E, offset: 0x486C6D, size: 0x8, addend: 0x0, symName: '__ZN4core3ptr73drop_in_place$LT$alloc..boxed..Box$LT$syn..generics..GenericParam$GT$$GT$17hf6951dcd5ae07324E', symObjAddr: 0x67F0, symBinAddr: 0xF1A30, symSize: 0x80 }
  - { offsetInCU: 0x299B6, offset: 0x486DE5, size: 0x8, addend: 0x0, symName: '__ZN4core3ptr75drop_in_place$LT$alloc..boxed..Box$LT$syn..generics..TypeParamBound$GT$$GT$17he61c00698a311a34E', symObjAddr: 0x6870, symBinAddr: 0xF1AB0, symSize: 0xB0 }
  - { offsetInCU: 0x29CB4, offset: 0x4870E3, size: 0x8, addend: 0x0, symName: '__ZN4core3ptr78drop_in_place$LT$core..option..Option$LT$syn..generics..BoundLifetimes$GT$$GT$17h27486b95316663b5E', symObjAddr: 0x6920, symBinAddr: 0xF1B60, symSize: 0x20 }
  - { offsetInCU: 0x29D49, offset: 0x487178, size: 0x8, addend: 0x0, symName: '__ZN4core3ptr86drop_in_place$LT$syn..punctuated..Punctuated$LT$syn..pat..Pat$C$syn..token..Or$GT$$GT$17h8e9173df21a44316E', symObjAddr: 0x6940, symBinAddr: 0xF1B80, symSize: 0x120 }
  - { offsetInCU: 0x2A18F, offset: 0x4875BE, size: 0x8, addend: 0x0, symName: '__ZN4core3ptr87drop_in_place$LT$core..option..Option$LT$alloc..boxed..Box$LT$syn..pat..Pat$GT$$GT$$GT$17hd7b7c69f601b3926E', symObjAddr: 0x6A60, symBinAddr: 0xF1CA0, symSize: 0x50 }
  - { offsetInCU: 0x2A301, offset: 0x487730, size: 0x8, addend: 0x0, symName: '__ZN4core3ptr87drop_in_place$LT$core..option..Option$LT$alloc..boxed..Box$LT$syn..ty..Type$GT$$GT$$GT$17hd74f5d971aec2972E', symObjAddr: 0x6AB0, symBinAddr: 0xF1CF0, symSize: 0x50 }
  - { offsetInCU: 0x2A473, offset: 0x4878A2, size: 0x8, addend: 0x0, symName: '__ZN4core3ptr89drop_in_place$LT$core..option..Option$LT$alloc..boxed..Box$LT$syn..expr..Expr$GT$$GT$$GT$17h8e135ac1a25a2dc5E', symObjAddr: 0x6B00, symBinAddr: 0xF1D40, symSize: 0x50 }
  - { offsetInCU: 0x2A623, offset: 0x487A52, size: 0x8, addend: 0x0, symName: '__ZN4core3ptr89drop_in_place$LT$syn..punctuated..Punctuated$LT$syn..pat..Pat$C$syn..token..Comma$GT$$GT$17h8d60e47f3fb1f87aE', symObjAddr: 0x6B50, symBinAddr: 0xF1D90, symSize: 0x120 }
  - { offsetInCU: 0x2AA80, offset: 0x487EAF, size: 0x8, addend: 0x0, symName: '__ZN4core3ptr89drop_in_place$LT$syn..punctuated..Punctuated$LT$syn..ty..Type$C$syn..token..Comma$GT$$GT$17ha919b3114742fb9dE', symObjAddr: 0x6C70, symBinAddr: 0xF1EB0, symSize: 0x120 }
  - { offsetInCU: 0x2AECA, offset: 0x4882F9, size: 0x8, addend: 0x0, symName: '__ZN4core3ptr90drop_in_place$LT$core..option..Option$LT$syn..path..AngleBracketedGenericArguments$GT$$GT$17h80d9a5f0818c8bd9E', symObjAddr: 0x6D90, symBinAddr: 0xF1FD0, symSize: 0x130 }
  - { offsetInCU: 0x2B335, offset: 0x488764, size: 0x8, addend: 0x0, symName: '__ZN4core3ptr91drop_in_place$LT$syn..punctuated..Punctuated$LT$syn..expr..Expr$C$syn..token..Comma$GT$$GT$17h4f39b83dc86a4159E', symObjAddr: 0x6EC0, symBinAddr: 0xF2100, symSize: 0x120 }
  - { offsetInCU: 0x2B792, offset: 0x488BC1, size: 0x8, addend: 0x0, symName: '__ZN4core3ptr94drop_in_place$LT$syn..punctuated..Punctuated$LT$syn..pat..FieldPat$C$syn..token..Comma$GT$$GT$17h112950ea198c8281E', symObjAddr: 0x6FE0, symBinAddr: 0xF2220, symSize: 0xF0 }
