---
triple:          'x86_64-apple-darwin'
binary-path:     "/Users/justinlanouette/Chaos/ChaöS-Token/hello_world/target/release/deps/libborsh_derive-5b11900302a8b2d6.dylib"
relocations:
  - { offsetInCU: 0x1E, offset: 0x1E, size: 0x8, addend: 0x0, symName: '__ZN4core3ptr100drop_in_place$LT$core..option..Option$LT$alloc..boxed..Box$LT$syn..generics..LifetimeDef$GT$$GT$$GT$17h3761cfb42a28f893E', symObjAddr: 0x0, symBinAddr: 0x1B50, symSize: 0x50 }
  - { offsetInCU: 0x18A4, offset: 0x18A4, size: 0x8, addend: 0x0, symName: '__ZN4core3ptr100drop_in_place$LT$core..option..Option$LT$alloc..boxed..Box$LT$syn..generics..LifetimeDef$GT$$GT$$GT$17h3761cfb42a28f893E', symObjAddr: 0x0, symBinAddr: 0x1B50, symSize: 0x50 }
  - { offsetInCU: 0x1A35, offset: 0x1A35, size: 0x8, addend: 0x0, symName: '__ZN4core3ptr100drop_in_place$LT$core..option..Option$LT$alloc..boxed..Box$LT$syn..path..GenericArgument$GT$$GT$$GT$17hbc00a864b1b2b7a7E', symObjAddr: 0x50, symBinAddr: 0x1BA0, symSize: 0x50 }
  - { offsetInCU: 0x1BC6, offset: 0x1BC6, size: 0x8, addend: 0x0, symName: '__ZN4core3ptr101drop_in_place$LT$core..option..Option$LT$alloc..boxed..Box$LT$syn..generics..GenericParam$GT$$GT$$GT$17hd4b986d2d62f26f8E', symObjAddr: 0xA0, symBinAddr: 0x1BF0, symSize: 0x50 }
  - { offsetInCU: 0x1E8D, offset: 0x1E8D, size: 0x8, addend: 0x0, symName: '__ZN4core3ptr102drop_in_place$LT$syn..punctuated..Punctuated$LT$syn..generics..LifetimeDef$C$syn..token..Comma$GT$$GT$17h0d6ceda9dc716044E', symObjAddr: 0xF0, symBinAddr: 0x1C40, symSize: 0x170 }
  - { offsetInCU: 0x2333, offset: 0x2333, size: 0x8, addend: 0x0, symName: '__ZN4core3ptr102drop_in_place$LT$syn..punctuated..Punctuated$LT$syn..path..GenericArgument$C$syn..token..Comma$GT$$GT$17h1e1063d4f1495194E.llvm.11062885582781788191', symObjAddr: 0x260, symBinAddr: 0x1DB0, symSize: 0xF0 }
  - { offsetInCU: 0x2698, offset: 0x2698, size: 0x8, addend: 0x0, symName: '__ZN4core3ptr103drop_in_place$LT$core..option..Option$LT$alloc..boxed..Box$LT$syn..generics..TypeParamBound$GT$$GT$$GT$17h4c76f7b3a9a87996E', symObjAddr: 0x350, symBinAddr: 0x1EA0, symSize: 0xA0 }
  - { offsetInCU: 0x298E, offset: 0x298E, size: 0x8, addend: 0x0, symName: '__ZN4core3ptr103drop_in_place$LT$core..option..Option$LT$alloc..boxed..Box$LT$syn..generics..WherePredicate$GT$$GT$$GT$17h25efb271b107ed54E', symObjAddr: 0x3F0, symBinAddr: 0x1F40, symSize: 0x50 }
  - { offsetInCU: 0x2BBA, offset: 0x2BBA, size: 0x8, addend: 0x0, symName: '__ZN4core3ptr103drop_in_place$LT$syn..punctuated..Punctuated$LT$syn..generics..GenericParam$C$syn..token..Comma$GT$$GT$17h07136fe017a00476E', symObjAddr: 0x440, symBinAddr: 0x1F90, symSize: 0x1A0 }
  - { offsetInCU: 0x316A, offset: 0x316A, size: 0x8, addend: 0x0, symName: '__ZN4core3ptr103drop_in_place$LT$syn..punctuated..Punctuated$LT$syn..generics..TypeParamBound$C$syn..token..Add$GT$$GT$17hde9556c770ec6e78E', symObjAddr: 0x5E0, symBinAddr: 0x2130, symSize: 0x2D0 }
  - { offsetInCU: 0x3E86, offset: 0x3E86, size: 0x8, addend: 0x0, symName: '__ZN4core3ptr105drop_in_place$LT$syn..punctuated..Punctuated$LT$syn..generics..WherePredicate$C$syn..token..Comma$GT$$GT$17h498b0d4d23af56f2E', symObjAddr: 0x8B0, symBinAddr: 0x2400, symSize: 0x1E0 }
  - { offsetInCU: 0x4512, offset: 0x4512, size: 0x8, addend: 0x0, symName: '__ZN4core3ptr108drop_in_place$LT$syn..punctuated..Punctuated$LT$syn..expr..GenericMethodArgument$C$syn..token..Comma$GT$$GT$17h34c1d36c002674f1E', symObjAddr: 0xA90, symBinAddr: 0x25E0, symSize: 0x160 }
  - { offsetInCU: 0x49AB, offset: 0x49AB, size: 0x8, addend: 0x0, symName: '__ZN4core3ptr126drop_in_place$LT$core..option..Option$LT$$LP$syn..token..And$C$core..option..Option$LT$syn..lifetime..Lifetime$GT$$RP$$GT$$GT$17ha4a52ae8f188e618E', symObjAddr: 0xBF0, symBinAddr: 0x2740, symSize: 0x30 }
  - { offsetInCU: 0x4C3B, offset: 0x4C3B, size: 0x8, addend: 0x0, symName: '__ZN4core3ptr33drop_in_place$LT$syn..ty..Abi$GT$17h10a3e23509e6a1c2E', symObjAddr: 0xC20, symBinAddr: 0x2770, symSize: 0x60 }
  - { offsetInCU: 0x4C57, offset: 0x4C57, size: 0x8, addend: 0x0, symName: '__ZN4core3ptr33drop_in_place$LT$syn..ty..Abi$GT$17h10a3e23509e6a1c2E', symObjAddr: 0xC20, symBinAddr: 0x2770, symSize: 0x60 }
  - { offsetInCU: 0x4F51, offset: 0x4F51, size: 0x8, addend: 0x0, symName: '__ZN4core3ptr34drop_in_place$LT$syn..lit..Lit$GT$17h65b1777be8e8e7dfE', symObjAddr: 0xC80, symBinAddr: 0x27D0, symSize: 0x110 }
  - { offsetInCU: 0x53F0, offset: 0x53F0, size: 0x8, addend: 0x0, symName: '__ZN4core3ptr34drop_in_place$LT$syn..pat..Pat$GT$17hdfb6e36a99d3fbc1E.llvm.11062885582781788191', symObjAddr: 0xD90, symBinAddr: 0x28E0, symSize: 0xA60 }
  - { offsetInCU: 0x8637, offset: 0x8637, size: 0x8, addend: 0x0, symName: '__ZN4core3ptr34drop_in_place$LT$syn..ty..Type$GT$17h1db251a541089a14E.llvm.11062885582781788191', symObjAddr: 0x17F0, symBinAddr: 0x3340, symSize: 0x400 }
  - { offsetInCU: 0x93B4, offset: 0x93B4, size: 0x8, addend: 0x0, symName: '__ZN4core3ptr35drop_in_place$LT$syn..expr..Arm$GT$17h8ff691c84cee93afE.llvm.11062885582781788191', symObjAddr: 0x1BF0, symBinAddr: 0x3740, symSize: 0x1B0 }
  - { offsetInCU: 0xA00B, offset: 0xA00B, size: 0x8, addend: 0x0, symName: '__ZN4core3ptr36drop_in_place$LT$syn..expr..Expr$GT$17h3ea629b214171dcfE.llvm.11062885582781788191', symObjAddr: 0x1DA0, symBinAddr: 0x38F0, symSize: 0x1EA0 }
  - { offsetInCU: 0x1385F, offset: 0x1385F, size: 0x8, addend: 0x0, symName: '__ZN4core3ptr36drop_in_place$LT$syn..item..Item$GT$17h1441838d470f594cE.llvm.11062885582781788191', symObjAddr: 0x3C40, symBinAddr: 0x5790, symSize: 0x1600 }
  - { offsetInCU: 0x19C72, offset: 0x19C72, size: 0x8, addend: 0x0, symName: '__ZN4core3ptr36drop_in_place$LT$syn..mac..Macro$GT$17h0a06117ee78dbd7bE', symObjAddr: 0x5240, symBinAddr: 0x6D90, symSize: 0x40 }
  - { offsetInCU: 0x19D28, offset: 0x19D28, size: 0x8, addend: 0x0, symName: '__ZN4core3ptr36drop_in_place$LT$syn..path..Path$GT$17h4b94ce8a744fa5e5E.llvm.11062885582781788191', symObjAddr: 0x5280, symBinAddr: 0x6DD0, symSize: 0x160 }
  - { offsetInCU: 0x1A297, offset: 0x1A297, size: 0x8, addend: 0x0, symName: '__ZN4core3ptr36drop_in_place$LT$syn..stmt..Stmt$GT$17hb52d80462d9e56edE.llvm.11062885582781788191', symObjAddr: 0x53E0, symBinAddr: 0x6F30, symSize: 0x140 }
  - { offsetInCU: 0x1A6FF, offset: 0x1A6FF, size: 0x8, addend: 0x0, symName: '__ZN4core3ptr37drop_in_place$LT$syn..data..Field$GT$17hbcf9373e6bf6f0dfE.llvm.11062885582781788191', symObjAddr: 0x5520, symBinAddr: 0x7070, symSize: 0x1C0 }
  - { offsetInCU: 0x1ACDA, offset: 0x1ACDA, size: 0x8, addend: 0x0, symName: '__ZN4core3ptr37drop_in_place$LT$syn..item..FnArg$GT$17h4c890734d3d61abbE', symObjAddr: 0x56E0, symBinAddr: 0x7230, symSize: 0x190 }
  - { offsetInCU: 0x1B617, offset: 0x1B617, size: 0x8, addend: 0x0, symName: '__ZN4core3ptr37drop_in_place$LT$syn..stmt..Block$GT$17h46fc8c9ee74031e2E', symObjAddr: 0x5870, symBinAddr: 0x73C0, symSize: 0xD0 }
  - { offsetInCU: 0x1B8BB, offset: 0x1B8BB, size: 0x8, addend: 0x0, symName: '__ZN4core3ptr38drop_in_place$LT$syn..expr..Member$GT$17hb947f462dc2a2030E.llvm.11062885582781788191', symObjAddr: 0x5940, symBinAddr: 0x7490, symSize: 0x30 }
  - { offsetInCU: 0x1B9B8, offset: 0x1B9B8, size: 0x8, addend: 0x0, symName: '__ZN4core3ptr38drop_in_place$LT$syn..pat..PatType$GT$17h8d2a4cea24f4e278E', symObjAddr: 0x5970, symBinAddr: 0x74C0, symSize: 0x170 }
  - { offsetInCU: 0x1BF27, offset: 0x1BF27, size: 0x8, addend: 0x0, symName: '__ZN4core3ptr38drop_in_place$LT$syn..ty..Variadic$GT$17hd3b681a29e1ce77bE', symObjAddr: 0x5AE0, symBinAddr: 0x7630, symSize: 0xF0 }
  - { offsetInCU: 0x1C1EE, offset: 0x1C1EE, size: 0x8, addend: 0x0, symName: '__ZN4core3ptr39drop_in_place$LT$proc_macro2..Ident$GT$17h24580b770d208941E', symObjAddr: 0x5BD0, symBinAddr: 0x7720, symSize: 0x30 }
  - { offsetInCU: 0x1C329, offset: 0x1C329, size: 0x8, addend: 0x0, symName: '__ZN4core3ptr39drop_in_place$LT$syn..data..Variant$GT$17hd96f343b7bcdae2aE.llvm.11062885582781788191', symObjAddr: 0x5C00, symBinAddr: 0x7750, symSize: 0x330 }
  - { offsetInCU: 0x1CF61, offset: 0x1CF61, size: 0x8, addend: 0x0, symName: '__ZN4core3ptr39drop_in_place$LT$syn..item..UseTree$GT$17h15e627e715abb2e0E', symObjAddr: 0x5F30, symBinAddr: 0x7A80, symSize: 0x1E0 }
  - { offsetInCU: 0x1D703, offset: 0x1D703, size: 0x8, addend: 0x0, symName: '__ZN4core3ptr39drop_in_place$LT$syn..pat..PatTuple$GT$17h53e1ac83f027e8afE', symObjAddr: 0x6110, symBinAddr: 0x7C60, symSize: 0x200 }
  - { offsetInCU: 0x1DE1E, offset: 0x1DE1E, size: 0x8, addend: 0x0, symName: '__ZN4core3ptr40drop_in_place$LT$syn..item..ImplItem$GT$17he38a600548322610E', symObjAddr: 0x6310, symBinAddr: 0x7E60, symSize: 0x130 }
  - { offsetInCU: 0x1E105, offset: 0x1E105, size: 0x8, addend: 0x0, symName: '__ZN4core3ptr40drop_in_place$LT$syn..item..Receiver$GT$17hb7c5795386a54d39E', symObjAddr: 0x6440, symBinAddr: 0x7F90, symSize: 0x140 }
  - { offsetInCU: 0x1E553, offset: 0x1E553, size: 0x8, addend: 0x0, symName: '__ZN4core3ptr40drop_in_place$LT$syn..ty..ReturnType$GT$17hec9aac0fbd26b1ccE.llvm.11062885582781788191', symObjAddr: 0x6580, symBinAddr: 0x80D0, symSize: 0x50 }
  - { offsetInCU: 0x1E6C5, offset: 0x1E6C5, size: 0x8, addend: 0x0, symName: '__ZN4core3ptr41drop_in_place$LT$syn..attr..Attribute$GT$17hdac1d1d912a33b5eE.llvm.11062885582781788191', symObjAddr: 0x65D0, symBinAddr: 0x8120, symSize: 0x40 }
  - { offsetInCU: 0x1E835, offset: 0x1E835, size: 0x8, addend: 0x0, symName: '__ZN4core3ptr41drop_in_place$LT$syn..item..Signature$GT$17hafce2bfcff7d3047E', symObjAddr: 0x6610, symBinAddr: 0x8160, symSize: 0x330 }
  - { offsetInCU: 0x1F66C, offset: 0x1F66C, size: 0x8, addend: 0x0, symName: '__ZN4core3ptr43drop_in_place$LT$proc_macro2..TokenTree$GT$17hee52d117452f4492E.llvm.11062885582781788191', symObjAddr: 0x6940, symBinAddr: 0x8490, symSize: 0xB0 }
  - { offsetInCU: 0x1F980, offset: 0x1F980, size: 0x8, addend: 0x0, symName: '__ZN4core3ptr43drop_in_place$LT$syn..data..FieldsNamed$GT$17h3b056cb266627889E', symObjAddr: 0x69F0, symBinAddr: 0x8540, symSize: 0x120 }
  - { offsetInCU: 0x1FE27, offset: 0x1FE27, size: 0x8, addend: 0x0, symName: '__ZN4core3ptr43drop_in_place$LT$syn..path..PathSegment$GT$17h4c78754cb31c1d3dE', symObjAddr: 0x6B10, symBinAddr: 0x8660, symSize: 0x170 }
  - { offsetInCU: 0x203CB, offset: 0x203CB, size: 0x8, addend: 0x0, symName: '__ZN4core3ptr44drop_in_place$LT$syn..generics..Generics$GT$17h07ab498ca9a79526E', symObjAddr: 0x6C80, symBinAddr: 0x87D0, symSize: 0x220 }
  - { offsetInCU: 0x20C14, offset: 0x20C14, size: 0x8, addend: 0x0, symName: '__ZN4core3ptr44drop_in_place$LT$syn..item..ImplItemType$GT$17hc354c260dff1b344E', symObjAddr: 0x6EA0, symBinAddr: 0x89F0, symSize: 0x200 }
  - { offsetInCU: 0x21212, offset: 0x21212, size: 0x8, addend: 0x0, symName: '__ZN4core3ptr44drop_in_place$LT$syn..lifetime..Lifetime$GT$17h3ae1e50cb07bb830E.llvm.11062885582781788191', symObjAddr: 0x70A0, symBinAddr: 0x8BF0, symSize: 0x30 }
  - { offsetInCU: 0x2136C, offset: 0x2136C, size: 0x8, addend: 0x0, symName: '__ZN4core3ptr45drop_in_place$LT$proc_macro2..TokenStream$GT$17h154ee4fd9fd2d03aE.llvm.11062885582781788191', symObjAddr: 0x70D0, symBinAddr: 0x8C20, symSize: 0x70 }
  - { offsetInCU: 0x214A1, offset: 0x214A1, size: 0x8, addend: 0x0, symName: '__ZN4core3ptr45drop_in_place$LT$syn..data..VisRestricted$GT$17h3f5eac6ecc7d7114E', symObjAddr: 0x7140, symBinAddr: 0x8C90, symSize: 0x100 }
  - { offsetInCU: 0x2192A, offset: 0x2192A, size: 0x8, addend: 0x0, symName: '__ZN4core3ptr45drop_in_place$LT$syn..generics..TypeParam$GT$17hd8680e8b23adc529E.llvm.11062885582781788191', symObjAddr: 0x7240, symBinAddr: 0x8D90, symSize: 0x270 }
  - { offsetInCU: 0x222A2, offset: 0x222A2, size: 0x8, addend: 0x0, symName: '__ZN4core3ptr45drop_in_place$LT$syn..item..ImplItemConst$GT$17h9a6d0e379c7c4bafE', symObjAddr: 0x74B0, symBinAddr: 0x9000, symSize: 0x1D0 }
  - { offsetInCU: 0x2285D, offset: 0x2285D, size: 0x8, addend: 0x0, symName: '__ZN4core3ptr45drop_in_place$LT$syn..item..TraitItemType$GT$17h02328277a63fd36eE', symObjAddr: 0x7680, symBinAddr: 0x91D0, symSize: 0x2B0 }
  - { offsetInCU: 0x232BB, offset: 0x232BB, size: 0x8, addend: 0x0, symName: '__ZN4core3ptr46drop_in_place$LT$syn..generics..ConstParam$GT$17ha40be0034629d6cfE.llvm.11062885582781788191', symObjAddr: 0x7930, symBinAddr: 0x9480, symSize: 0x190 }
  - { offsetInCU: 0x236D2, offset: 0x236D2, size: 0x8, addend: 0x0, symName: '__ZN4core3ptr46drop_in_place$LT$syn..item..ImplItemMethod$GT$17h4794ca8b84960d96E', symObjAddr: 0x7AC0, symBinAddr: 0x9610, symSize: 0x240 }
  - { offsetInCU: 0x23DE2, offset: 0x23DE2, size: 0x8, addend: 0x0, symName: '__ZN4core3ptr46drop_in_place$LT$syn..item..TraitItemConst$GT$17h581e134c7f08eec4E', symObjAddr: 0x7D00, symBinAddr: 0x9850, symSize: 0x180 }
  - { offsetInCU: 0x2422F, offset: 0x2422F, size: 0x8, addend: 0x0, symName: '__ZN4core3ptr47drop_in_place$LT$syn..generics..LifetimeDef$GT$17hfe0ab2633a6643dfE.llvm.11062885582781788191', symObjAddr: 0x7E80, symBinAddr: 0x99D0, symSize: 0xB0 }
  - { offsetInCU: 0x245C7, offset: 0x245C7, size: 0x8, addend: 0x0, symName: '__ZN4core3ptr47drop_in_place$LT$syn..generics..WhereClause$GT$17h50e00379a9a24628E', symObjAddr: 0x7F30, symBinAddr: 0x9A80, symSize: 0x120 }
  - { offsetInCU: 0x24A1B, offset: 0x24A1B, size: 0x8, addend: 0x0, symName: '__ZN4core3ptr47drop_in_place$LT$syn..path..GenericArgument$GT$17h7550fabeee078d7aE', symObjAddr: 0x8050, symBinAddr: 0x9BA0, symSize: 0xE0 }
  - { offsetInCU: 0x24D35, offset: 0x24D35, size: 0x8, addend: 0x0, symName: '__ZN4core3ptr48drop_in_place$LT$syn..generics..GenericParam$GT$17h5e68931a85e30273E', symObjAddr: 0x8130, symBinAddr: 0x9C80, symSize: 0xF0 }
  - { offsetInCU: 0x250E4, offset: 0x250E4, size: 0x8, addend: 0x0, symName: '__ZN4core3ptr49drop_in_place$LT$syn..generics..PredicateType$GT$17ha4de853f3f6dfddfE.llvm.11062885582781788191', symObjAddr: 0x8220, symBinAddr: 0x9D70, symSize: 0x230 }
  - { offsetInCU: 0x25A57, offset: 0x25A57, size: 0x8, addend: 0x0, symName: '__ZN4core3ptr49drop_in_place$LT$syn..item..ForeignItemStatic$GT$17h9c5c161b05d7a34bE', symObjAddr: 0x8450, symBinAddr: 0x9FA0, symSize: 0x1D0 }
  - { offsetInCU: 0x261DF, offset: 0x261DF, size: 0x8, addend: 0x0, symName: '__ZN4core3ptr50drop_in_place$LT$$u5b$syn..item..ImplItem$u5d$$GT$17heb4fe23d333de24aE', symObjAddr: 0x8620, symBinAddr: 0xA170, symSize: 0x3F0 }
  - { offsetInCU: 0x268E4, offset: 0x268E4, size: 0x8, addend: 0x0, symName: '__ZN4core3ptr50drop_in_place$LT$syn..generics..BoundLifetimes$GT$17h86abcab42c2a274fE', symObjAddr: 0x8A10, symBinAddr: 0xA560, symSize: 0x110 }
  - { offsetInCU: 0x26D2E, offset: 0x26D2E, size: 0x8, addend: 0x0, symName: '__ZN4core3ptr50drop_in_place$LT$syn..generics..TypeParamBound$GT$17hbc95181180ac368bE', symObjAddr: 0x8B20, symBinAddr: 0xA670, symSize: 0x80 }
  - { offsetInCU: 0x26EB4, offset: 0x26EB4, size: 0x8, addend: 0x0, symName: '__ZN4core3ptr50drop_in_place$LT$syn..generics..WherePredicate$GT$17h6f702a182080d874E', symObjAddr: 0x8BA0, symBinAddr: 0xA6F0, symSize: 0xE0 }
  - { offsetInCU: 0x2704B, offset: 0x2704B, size: 0x8, addend: 0x0, symName: '__ZN4core3ptr51drop_in_place$LT$$u5b$syn..attr..Attribute$u5d$$GT$17h8f01147723528590E.llvm.11062885582781788191', symObjAddr: 0x8C80, symBinAddr: 0xA7D0, symSize: 0x1C0 }
  - { offsetInCU: 0x273F2, offset: 0x273F2, size: 0x8, addend: 0x0, symName: '__ZN4core3ptr51drop_in_place$LT$$u5b$syn..item..TraitItem$u5d$$GT$17h02ffe5aec37d9898E', symObjAddr: 0x8E40, symBinAddr: 0xA990, symSize: 0x980 }
  - { offsetInCU: 0x28C12, offset: 0x28C12, size: 0x8, addend: 0x0, symName: '__ZN4core3ptr53drop_in_place$LT$$u5b$syn..item..ForeignItem$u5d$$GT$17h45ed4e24239fa850E', symObjAddr: 0x97C0, symBinAddr: 0xB310, symSize: 0xE80 }
  - { offsetInCU: 0x2B4CF, offset: 0x2B4CF, size: 0x8, addend: 0x0, symName: '__ZN4core3ptr58drop_in_place$LT$alloc..vec..Vec$LT$syn..expr..Arm$GT$$GT$17h39bb107a37cae631E', symObjAddr: 0xA640, symBinAddr: 0xC190, symSize: 0xD0 }
  - { offsetInCU: 0x2B75C, offset: 0x2B75C, size: 0x8, addend: 0x0, symName: '__ZN4core3ptr59drop_in_place$LT$alloc..boxed..Box$LT$syn..pat..Pat$GT$$GT$17haa5e5a8328a7396fE.llvm.11062885582781788191', symObjAddr: 0xA710, symBinAddr: 0xC260, symSize: 0x50 }
  - { offsetInCU: 0x2B8B7, offset: 0x2B8B7, size: 0x8, addend: 0x0, symName: '__ZN4core3ptr59drop_in_place$LT$alloc..boxed..Box$LT$syn..ty..Type$GT$$GT$17hb1ede5bfe13e401dE', symObjAddr: 0xA760, symBinAddr: 0xC2B0, symSize: 0x50 }
  - { offsetInCU: 0x2BA12, offset: 0x2BA12, size: 0x8, addend: 0x0, symName: '__ZN4core3ptr59drop_in_place$LT$alloc..vec..Vec$LT$syn..item..Item$GT$$GT$17h5415c07db901aa63E', symObjAddr: 0xA7B0, symBinAddr: 0xC300, symSize: 0xD0 }
  - { offsetInCU: 0x2BC9F, offset: 0x2BC9F, size: 0x8, addend: 0x0, symName: '__ZN4core3ptr61drop_in_place$LT$alloc..boxed..Box$LT$syn..expr..Expr$GT$$GT$17h258b66ce91c85c6bE.llvm.11062885582781788191', symObjAddr: 0xA880, symBinAddr: 0xC3D0, symSize: 0x50 }
  - { offsetInCU: 0x2BDFA, offset: 0x2BDFA, size: 0x8, addend: 0x0, symName: '__ZN4core3ptr61drop_in_place$LT$alloc..boxed..Box$LT$syn..path..Path$GT$$GT$17ha53fd5a2c82dc1c1E', symObjAddr: 0xA8D0, symBinAddr: 0xC420, symSize: 0x50 }
  - { offsetInCU: 0x2C02C, offset: 0x2C02C, size: 0x8, addend: 0x0, symName: '__ZN4core3ptr61drop_in_place$LT$syn..path..ParenthesizedGenericArguments$GT$17h7030b6e015396660E', symObjAddr: 0xA920, symBinAddr: 0xC470, symSize: 0x170 }
  - { offsetInCU: 0x2C5F3, offset: 0x2C5F3, size: 0x8, addend: 0x0, symName: '__ZN4core3ptr62drop_in_place$LT$alloc..boxed..Box$LT$syn..data..Field$GT$$GT$17hc3391c81d7bdb91aE', symObjAddr: 0xAA90, symBinAddr: 0xC5E0, symSize: 0x50 }
  - { offsetInCU: 0x2C76D, offset: 0x2C76D, size: 0x8, addend: 0x0, symName: '__ZN4core3ptr62drop_in_place$LT$alloc..boxed..Box$LT$syn..item..FnArg$GT$$GT$17hf073e94c29ef60e7E', symObjAddr: 0xAAE0, symBinAddr: 0xC630, symSize: 0x60 }
  - { offsetInCU: 0x2C8E5, offset: 0x2C8E5, size: 0x8, addend: 0x0, symName: '__ZN4core3ptr62drop_in_place$LT$alloc..boxed..Box$LT$syn..stmt..Block$GT$$GT$17h244576289171ab7cE', symObjAddr: 0xAB40, symBinAddr: 0xC690, symSize: 0xE0 }
  - { offsetInCU: 0x2CCC6, offset: 0x2CCC6, size: 0x8, addend: 0x0, symName: '__ZN4core3ptr62drop_in_place$LT$syn..path..AngleBracketedGenericArguments$GT$17h85aaea316592398bE', symObjAddr: 0xAC20, symBinAddr: 0xC770, symSize: 0x120 }
  - { offsetInCU: 0x2D110, offset: 0x2D110, size: 0x8, addend: 0x0, symName: '__ZN4core3ptr63drop_in_place$LT$alloc..vec..Vec$LT$syn..item..ImplItem$GT$$GT$17h6bc0bab3b70d1529E', symObjAddr: 0xAD40, symBinAddr: 0xC890, symSize: 0x80 }
  - { offsetInCU: 0x2D38E, offset: 0x2D38E, size: 0x8, addend: 0x0, symName: '__ZN4core3ptr64drop_in_place$LT$alloc..boxed..Box$LT$syn..data..Variant$GT$$GT$17h31460fbbc1101001E', symObjAddr: 0xADC0, symBinAddr: 0xC910, symSize: 0x50 }
  - { offsetInCU: 0x2D4E9, offset: 0x2D4E9, size: 0x8, addend: 0x0, symName: '__ZN4core3ptr64drop_in_place$LT$alloc..boxed..Box$LT$syn..item..UseTree$GT$$GT$17h2bb59c3560acc7d7E', symObjAddr: 0xAE10, symBinAddr: 0xC960, symSize: 0x50 }
  - { offsetInCU: 0x2D663, offset: 0x2D663, size: 0x8, addend: 0x0, symName: '__ZN4core3ptr64drop_in_place$LT$alloc..boxed..Box$LT$syn..pat..FieldPat$GT$$GT$17hb7eec2e422e063d3E', symObjAddr: 0xAE60, symBinAddr: 0xC9B0, symSize: 0x100 }
  - { offsetInCU: 0x2DCFF, offset: 0x2DCFF, size: 0x8, addend: 0x0, symName: '__ZN4core3ptr64drop_in_place$LT$alloc..boxed..Box$LT$syn..ty..BareFnArg$GT$$GT$17hd034f41813c95e7dE', symObjAddr: 0xAF60, symBinAddr: 0xCAB0, symSize: 0xD0 }
  - { offsetInCU: 0x2E206, offset: 0x2E206, size: 0x8, addend: 0x0, symName: '__ZN4core3ptr64drop_in_place$LT$alloc..vec..Vec$LT$syn..attr..Attribute$GT$$GT$17h548ee5781ac682f1E.llvm.11062885582781788191', symObjAddr: 0xB030, symBinAddr: 0xCB80, symSize: 0xF0 }
  - { offsetInCU: 0x2E4A0, offset: 0x2E4A0, size: 0x8, addend: 0x0, symName: '__ZN4core3ptr64drop_in_place$LT$alloc..vec..Vec$LT$syn..item..TraitItem$GT$$GT$17h41f0e2999b954317E', symObjAddr: 0xB120, symBinAddr: 0xCC70, symSize: 0x80 }
  - { offsetInCU: 0x2E71E, offset: 0x2E71E, size: 0x8, addend: 0x0, symName: '__ZN4core3ptr65drop_in_place$LT$$LP$syn..item..FnArg$C$syn..token..Comma$RP$$GT$17h938c693be434906eE', symObjAddr: 0xB1A0, symBinAddr: 0xCCF0, symSize: 0x20 }
  - { offsetInCU: 0x2E75A, offset: 0x2E75A, size: 0x8, addend: 0x0, symName: '__ZN4core3ptr65drop_in_place$LT$alloc..vec..Vec$LT$proc_macro..TokenTree$GT$$GT$17h8aa5999fb4f4f0dfE.llvm.11062885582781788191', symObjAddr: 0xB1C0, symBinAddr: 0xCD10, symSize: 0x120 }
  - { offsetInCU: 0x2EAB9, offset: 0x2EAB9, size: 0x8, addend: 0x0, symName: '__ZN4core3ptr65drop_in_place$LT$core..option..Option$LT$syn..expr..Label$GT$$GT$17h24845d9ce09b81fdE', symObjAddr: 0xB2E0, symBinAddr: 0xCE30, symSize: 0x30 }
  - { offsetInCU: 0x2EBF4, offset: 0x2EBF4, size: 0x8, addend: 0x0, symName: '__ZN4core3ptr65drop_in_place$LT$core..option..Option$LT$syn..stmt..Block$GT$$GT$17h3e5a63a3bcae263cE', symObjAddr: 0xB310, symBinAddr: 0xCE60, symSize: 0xE0 }
  - { offsetInCU: 0x2EE59, offset: 0x2EE59, size: 0x8, addend: 0x0, symName: '__ZN4core3ptr66drop_in_place$LT$alloc..vec..Vec$LT$syn..item..ForeignItem$GT$$GT$17h763b43a68886c57bE', symObjAddr: 0xB3F0, symBinAddr: 0xCF40, symSize: 0x80 }
  - { offsetInCU: 0x2F0D7, offset: 0x2F0D7, size: 0x8, addend: 0x0, symName: '__ZN4core3ptr67drop_in_place$LT$$LP$syn..pat..FieldPat$C$syn..token..Comma$RP$$GT$17h14d6c496b09c00b0E.llvm.11062885582781788191', symObjAddr: 0xB470, symBinAddr: 0xCFC0, symSize: 0xF0 }
  - { offsetInCU: 0x2F5FE, offset: 0x2F5FE, size: 0x8, addend: 0x0, symName: '__ZN4core3ptr67drop_in_place$LT$$LP$syn..ty..BareFnArg$C$syn..token..Comma$RP$$GT$17h9d35fb9dfe001e11E.llvm.11062885582781788191', symObjAddr: 0xB560, symBinAddr: 0xD0B0, symSize: 0xC0 }
  - { offsetInCU: 0x2F9FE, offset: 0x2F9FE, size: 0x8, addend: 0x0, symName: '__ZN4core3ptr67drop_in_place$LT$alloc..boxed..Box$LT$syn..expr..FieldValue$GT$$GT$17hb1087ed83320230fE', symObjAddr: 0xB620, symBinAddr: 0xD170, symSize: 0xF0 }
  - { offsetInCU: 0x2FF13, offset: 0x2FF13, size: 0x8, addend: 0x0, symName: '__ZN4core3ptr68drop_in_place$LT$alloc..boxed..Box$LT$syn..path..PathSegment$GT$$GT$17h78c8ef5954cfe675E', symObjAddr: 0xB710, symBinAddr: 0xD260, symSize: 0xD0 }
  - { offsetInCU: 0x30311, offset: 0x30311, size: 0x8, addend: 0x0, symName: '__ZN4core3ptr70drop_in_place$LT$$LP$syn..expr..FieldValue$C$syn..token..Comma$RP$$GT$17h500fa1e8979d0370E.llvm.11062885582781788191', symObjAddr: 0xB7E0, symBinAddr: 0xD330, symSize: 0xD0 }
  - { offsetInCU: 0x306E1, offset: 0x306E1, size: 0x8, addend: 0x0, symName: '__ZN4core3ptr72drop_in_place$LT$$LP$syn..path..PathSegment$C$syn..token..Colon2$RP$$GT$17hc8e1415e8b281ddaE.llvm.11062885582781788191', symObjAddr: 0xB8B0, symBinAddr: 0xD400, symSize: 0xC0 }
  - { offsetInCU: 0x309A7, offset: 0x309A7, size: 0x8, addend: 0x0, symName: '__ZN4core3ptr72drop_in_place$LT$alloc..boxed..Box$LT$syn..generics..LifetimeDef$GT$$GT$17h0deecce7ae26f7caE', symObjAddr: 0xB970, symBinAddr: 0xD4C0, symSize: 0x80 }
  - { offsetInCU: 0x30C56, offset: 0x30C56, size: 0x8, addend: 0x0, symName: '__ZN4core3ptr72drop_in_place$LT$alloc..boxed..Box$LT$syn..path..GenericArgument$GT$$GT$17hf36766f73d48af5eE.llvm.11062885582781788191', symObjAddr: 0xB9F0, symBinAddr: 0xD540, symSize: 0x1F0 }
  - { offsetInCU: 0x31490, offset: 0x31490, size: 0x8, addend: 0x0, symName: '__ZN4core3ptr73drop_in_place$LT$alloc..boxed..Box$LT$syn..generics..GenericParam$GT$$GT$17h3269df7ee7b81257E', symObjAddr: 0xBBE0, symBinAddr: 0xD730, symSize: 0x80 }
  - { offsetInCU: 0x31608, offset: 0x31608, size: 0x8, addend: 0x0, symName: '__ZN4core3ptr75drop_in_place$LT$$LP$syn..generics..LifetimeDef$C$syn..token..Comma$RP$$GT$17h5177ffc6049939a8E.llvm.11062885582781788191', symObjAddr: 0xBC60, symBinAddr: 0xD7B0, symSize: 0x60 }
  - { offsetInCU: 0x31743, offset: 0x31743, size: 0x8, addend: 0x0, symName: '__ZN4core3ptr75drop_in_place$LT$$LP$syn..path..GenericArgument$C$syn..token..Comma$RP$$GT$17ha1c2e401c42c483eE.llvm.11062885582781788191', symObjAddr: 0xBCC0, symBinAddr: 0xD810, symSize: 0x210 }
  - { offsetInCU: 0x31EA5, offset: 0x31EA5, size: 0x8, addend: 0x0, symName: '__ZN4core3ptr75drop_in_place$LT$alloc..boxed..Box$LT$syn..generics..TypeParamBound$GT$$GT$17hb118bd924923c07bE', symObjAddr: 0xBED0, symBinAddr: 0xDA20, symSize: 0x140 }
  - { offsetInCU: 0x32425, offset: 0x32425, size: 0x8, addend: 0x0, symName: '__ZN4core3ptr75drop_in_place$LT$alloc..boxed..Box$LT$syn..generics..WherePredicate$GT$$GT$17hd6302cd5c131c4e6E', symObjAddr: 0xC010, symBinAddr: 0xDB60, symSize: 0x50 }
  - { offsetInCU: 0x32580, offset: 0x32580, size: 0x8, addend: 0x0, symName: '__ZN4core3ptr76drop_in_place$LT$$LP$syn..generics..GenericParam$C$syn..token..Comma$RP$$GT$17h9b73d45f51193490E.llvm.11062885582781788191', symObjAddr: 0xC060, symBinAddr: 0xDBB0, symSize: 0x40 }
  - { offsetInCU: 0x325BC, offset: 0x325BC, size: 0x8, addend: 0x0, symName: '__ZN4core3ptr76drop_in_place$LT$$LP$syn..generics..TypeParamBound$C$syn..token..Add$RP$$GT$17h419550a289167831E.llvm.11062885582781788191', symObjAddr: 0xC0A0, symBinAddr: 0xDBF0, symSize: 0x150 }
  - { offsetInCU: 0x32A0A, offset: 0x32A0A, size: 0x8, addend: 0x0, symName: '__ZN4core3ptr78drop_in_place$LT$$LP$syn..generics..WherePredicate$C$syn..token..Comma$RP$$GT$17hec7d230aa4c57124E.llvm.11062885582781788191', symObjAddr: 0xC1F0, symBinAddr: 0xDD40, symSize: 0xA0 }
  - { offsetInCU: 0x32B7D, offset: 0x32B7D, size: 0x8, addend: 0x0, symName: '__ZN4core3ptr78drop_in_place$LT$alloc..boxed..Box$LT$syn..expr..GenericMethodArgument$GT$$GT$17hd6d5756fa8dac205E', symObjAddr: 0xC290, symBinAddr: 0xDDE0, symSize: 0x60 }
  - { offsetInCU: 0x32CF5, offset: 0x32CF5, size: 0x8, addend: 0x0, symName: '__ZN4core3ptr81drop_in_place$LT$$LP$syn..expr..GenericMethodArgument$C$syn..token..Comma$RP$$GT$17hce30a5ddfaad5925E.llvm.11062885582781788191', symObjAddr: 0xC2F0, symBinAddr: 0xDE40, symSize: 0x20 }
  - { offsetInCU: 0x32D31, offset: 0x32D31, size: 0x8, addend: 0x0, symName: '__ZN4core3ptr86drop_in_place$LT$$LP$syn..token..If$C$alloc..boxed..Box$LT$syn..expr..Expr$GT$$RP$$GT$17h628ac4b3f549725bE', symObjAddr: 0xC310, symBinAddr: 0xDE60, symSize: 0x50 }
  - { offsetInCU: 0x32EAB, offset: 0x32EAB, size: 0x8, addend: 0x0, symName: '__ZN4core3ptr86drop_in_place$LT$$u5b$$LP$syn..generics..TypeParamBound$C$syn..token..Add$RP$$u5d$$GT$17h0d80a19ecf94f1f2E', symObjAddr: 0xC360, symBinAddr: 0xDEB0, symSize: 0xD0 }
  - { offsetInCU: 0x330DB, offset: 0x330DB, size: 0x8, addend: 0x0, symName: '__ZN4core3ptr86drop_in_place$LT$syn..punctuated..Punctuated$LT$syn..pat..Pat$C$syn..token..Or$GT$$GT$17h2630885ee450deebE', symObjAddr: 0xC430, symBinAddr: 0xDF80, symSize: 0x120 }
  - { offsetInCU: 0x33538, offset: 0x33538, size: 0x8, addend: 0x0, symName: '__ZN4core3ptr87drop_in_place$LT$core..option..Option$LT$alloc..boxed..Box$LT$syn..pat..Pat$GT$$GT$$GT$17h50e4759a796db672E', symObjAddr: 0xC550, symBinAddr: 0xE0A0, symSize: 0x50 }
  - { offsetInCU: 0x336AA, offset: 0x336AA, size: 0x8, addend: 0x0, symName: '__ZN4core3ptr87drop_in_place$LT$core..option..Option$LT$alloc..boxed..Box$LT$syn..ty..Type$GT$$GT$$GT$17h042195e9cb402873E', symObjAddr: 0xC5A0, symBinAddr: 0xE0F0, symSize: 0x50 }
  - { offsetInCU: 0x3381C, offset: 0x3381C, size: 0x8, addend: 0x0, symName: '__ZN4core3ptr89drop_in_place$LT$core..option..Option$LT$alloc..boxed..Box$LT$syn..expr..Expr$GT$$GT$$GT$17h7f97a9c19e91114aE', symObjAddr: 0xC5F0, symBinAddr: 0xE140, symSize: 0x50 }
  - { offsetInCU: 0x3398E, offset: 0x3398E, size: 0x8, addend: 0x0, symName: '__ZN4core3ptr89drop_in_place$LT$syn..punctuated..Punctuated$LT$syn..ty..Type$C$syn..token..Comma$GT$$GT$17hdbdf64bb9b346c81E.llvm.11062885582781788191', symObjAddr: 0xC640, symBinAddr: 0xE190, symSize: 0x120 }
  - { offsetInCU: 0x33DD8, offset: 0x33DD8, size: 0x8, addend: 0x0, symName: '__ZN4core3ptr90drop_in_place$LT$core..option..Option$LT$alloc..boxed..Box$LT$syn..data..Field$GT$$GT$$GT$17he4a99c41bfb76b5dE', symObjAddr: 0xC760, symBinAddr: 0xE2B0, symSize: 0x50 }
  - { offsetInCU: 0x33F4A, offset: 0x33F4A, size: 0x8, addend: 0x0, symName: '__ZN4core3ptr90drop_in_place$LT$core..option..Option$LT$alloc..boxed..Box$LT$syn..item..FnArg$GT$$GT$$GT$17h9f2ea1e4c026017dE', symObjAddr: 0xC7B0, symBinAddr: 0xE300, symSize: 0x50 }
  - { offsetInCU: 0x34138, offset: 0x34138, size: 0x8, addend: 0x0, symName: '__ZN4core3ptr91drop_in_place$LT$syn..punctuated..Punctuated$LT$syn..expr..Expr$C$syn..token..Comma$GT$$GT$17hfc14a2f1080ca4a8E', symObjAddr: 0xC800, symBinAddr: 0xE350, symSize: 0x120 }
  - { offsetInCU: 0x34595, offset: 0x34595, size: 0x8, addend: 0x0, symName: '__ZN4core3ptr92drop_in_place$LT$core..option..Option$LT$$LP$syn..token..As$C$proc_macro2..Ident$RP$$GT$$GT$17ha64b3202b8a055f3E', symObjAddr: 0xC920, symBinAddr: 0xE470, symSize: 0x30 }
  - { offsetInCU: 0x346B1, offset: 0x346B1, size: 0x8, addend: 0x0, symName: '__ZN4core3ptr92drop_in_place$LT$syn..punctuated..Punctuated$LT$syn..data..Field$C$syn..token..Comma$GT$$GT$17hc71b534f07586b43E', symObjAddr: 0xC950, symBinAddr: 0xE4A0, symSize: 0x120 }
  - { offsetInCU: 0x34AFB, offset: 0x34AFB, size: 0x8, addend: 0x0, symName: '__ZN4core3ptr92drop_in_place$LT$syn..punctuated..Punctuated$LT$syn..item..FnArg$C$syn..token..Comma$GT$$GT$17hf14c906bc98293e3E', symObjAddr: 0xCA70, symBinAddr: 0xE5C0, symSize: 0x150 }
  - { offsetInCU: 0x35010, offset: 0x35010, size: 0x8, addend: 0x0, symName: '__ZN4core3ptr94drop_in_place$LT$syn..punctuated..Punctuated$LT$syn..data..Variant$C$syn..token..Comma$GT$$GT$17ha71521a20048cf64E', symObjAddr: 0xCBC0, symBinAddr: 0xE710, symSize: 0x120 }
  - { offsetInCU: 0x354E9, offset: 0x354E9, size: 0x8, addend: 0x0, symName: '__ZN4core3ptr94drop_in_place$LT$syn..punctuated..Punctuated$LT$syn..pat..FieldPat$C$syn..token..Comma$GT$$GT$17h0e2d8e1d7b1588cdE', symObjAddr: 0xCCE0, symBinAddr: 0xE830, symSize: 0xF0 }
  - { offsetInCU: 0x35842, offset: 0x35842, size: 0x8, addend: 0x0, symName: '__ZN4core3ptr94drop_in_place$LT$syn..punctuated..Punctuated$LT$syn..ty..BareFnArg$C$syn..token..Comma$GT$$GT$17haa1aa995c736a8cfE', symObjAddr: 0xCDD0, symBinAddr: 0xE920, symSize: 0xF0 }
  - { offsetInCU: 0x35B1F, offset: 0x35B1F, size: 0x8, addend: 0x0, symName: '__ZN4core3ptr95drop_in_place$LT$core..option..Option$LT$$LP$proc_macro2..Ident$C$syn..token..Colon$RP$$GT$$GT$17hfdf8048ff0a80409E.llvm.11062885582781788191', symObjAddr: 0xCEC0, symBinAddr: 0xEA10, symSize: 0x30 }
  - { offsetInCU: 0x35C3B, offset: 0x35C3B, size: 0x8, addend: 0x0, symName: '__ZN4core3ptr96drop_in_place$LT$core..option..Option$LT$alloc..boxed..Box$LT$syn..path..PathSegment$GT$$GT$$GT$17h450805d8d891902bE', symObjAddr: 0xCEF0, symBinAddr: 0xEA40, symSize: 0x90 }
  - { offsetInCU: 0x35F58, offset: 0x35F58, size: 0x8, addend: 0x0, symName: '__ZN4core3ptr97drop_in_place$LT$syn..punctuated..Punctuated$LT$syn..expr..FieldValue$C$syn..token..Comma$GT$$GT$17hb78bcd4c4248177eE', symObjAddr: 0xCFD0, symBinAddr: 0xEAD0, symSize: 0xF0 }
  - { offsetInCU: 0x362D0, offset: 0x362D0, size: 0x8, addend: 0x0, symName: '__ZN4core3ptr97drop_in_place$LT$syn..punctuated..Punctuated$LT$syn..lifetime..Lifetime$C$syn..token..Add$GT$$GT$17heac5a82a43af1f0dE.llvm.11062885582781788191', symObjAddr: 0xD0C0, symBinAddr: 0xEBC0, symSize: 0xC0 }
  - { offsetInCU: 0x36746, offset: 0x36746, size: 0x8, addend: 0x0, symName: '__ZN4core3ptr99drop_in_place$LT$syn..punctuated..Punctuated$LT$syn..path..PathSegment$C$syn..token..Colon2$GT$$GT$17he079948637547f84E.llvm.11062885582781788191', symObjAddr: 0xD180, symBinAddr: 0xEC80, symSize: 0x1A0 }
  - { offsetInCU: 0x3DDFA, offset: 0x3DDFA, size: 0x8, addend: 0x0, symName: '__ZN70_$LT$alloc..vec..Vec$LT$T$C$A$GT$$u20$as$u20$core..ops..drop..Drop$GT$4drop17h12bb91c12a8883c7E', symObjAddr: 0xD3D0, symBinAddr: 0xEE20, symSize: 0x110 }
  - { offsetInCU: 0x3DF4D, offset: 0x3DF4D, size: 0x8, addend: 0x0, symName: '__ZN70_$LT$alloc..vec..Vec$LT$T$C$A$GT$$u20$as$u20$core..ops..drop..Drop$GT$4drop17h3c4bf553830d824cE', symObjAddr: 0xD670, symBinAddr: 0xEF30, symSize: 0xB0 }
  - { offsetInCU: 0x3E085, offset: 0x3E085, size: 0x8, addend: 0x0, symName: '__ZN70_$LT$alloc..vec..Vec$LT$T$C$A$GT$$u20$as$u20$core..ops..drop..Drop$GT$4drop17h5dfb150ec0077ca5E', symObjAddr: 0xD8A0, symBinAddr: 0xEFE0, symSize: 0x90 }
  - { offsetInCU: 0x3E132, offset: 0x3E132, size: 0x8, addend: 0x0, symName: '__ZN70_$LT$alloc..vec..Vec$LT$T$C$A$GT$$u20$as$u20$core..ops..drop..Drop$GT$4drop17h7a9fdfe17c493f6dE', symObjAddr: 0xD9B0, symBinAddr: 0xF070, symSize: 0xB0 }
  - { offsetInCU: 0x3E194, offset: 0x3E194, size: 0x8, addend: 0x0, symName: '__ZN70_$LT$alloc..vec..Vec$LT$T$C$A$GT$$u20$as$u20$core..ops..drop..Drop$GT$4drop17hec6f7ed580c3a248E', symObjAddr: 0xDEC0, symBinAddr: 0xF120, symSize: 0x83 }
  - { offsetInCU: 0x1E, offset: 0x43BD1, size: 0x8, addend: 0x0, symName: __ZN10proc_macro6bridge6client14HandleCounters3get17h02da01958788119eE, symObjAddr: 0x0, symBinAddr: 0xF1B0, symSize: 0x10 }
  - { offsetInCU: 0x40, offset: 0x43BF3, size: 0x8, addend: 0x0, symName: ___rustc_proc_macro_decls_6b27ac8be07e1cae__, symObjAddr: 0x81A8, symBinAddr: 0x298368, symSize: 0x0 }
  - { offsetInCU: 0x7A, offset: 0x43C2D, size: 0x8, addend: 0x0, symName: __ZN12borsh_derive15borsh_serialize17h25aa9f290a5efde9E, symObjAddr: 0x6020, symBinAddr: 0x151D0, symSize: 0x580 }
  - { offsetInCU: 0xFD9, offset: 0x44B8C, size: 0x8, addend: 0x0, symName: __ZN12borsh_derive17borsh_deserialize17h9e4db119e8281b80E, symObjAddr: 0x65A0, symBinAddr: 0x15750, symSize: 0x580 }
  - { offsetInCU: 0x1F38, offset: 0x45AEB, size: 0x8, addend: 0x0, symName: __ZN12borsh_derive12borsh_schema17h623718baaf0efd85E, symObjAddr: 0x6B20, symBinAddr: 0x15CD0, symSize: 0x655 }
  - { offsetInCU: 0x65F1, offset: 0x4A1A4, size: 0x8, addend: 0x0, symName: '__ZN4core3ptr100drop_in_place$LT$core..option..Option$LT$alloc..boxed..Box$LT$syn..path..GenericArgument$GT$$GT$$GT$17hbc00a864b1b2b7a7E', symObjAddr: 0x10, symBinAddr: 0xF1C0, symSize: 0x50 }
  - { offsetInCU: 0x68D7, offset: 0x4A48A, size: 0x8, addend: 0x0, symName: '__ZN4core3ptr101drop_in_place$LT$core..option..Option$LT$alloc..boxed..Box$LT$syn..generics..GenericParam$GT$$GT$$GT$17hd4b986d2d62f26f8E', symObjAddr: 0x60, symBinAddr: 0xF210, symSize: 0x260 }
  - { offsetInCU: 0x7308, offset: 0x4AEBB, size: 0x8, addend: 0x0, symName: '__ZN4core3ptr103drop_in_place$LT$core..option..Option$LT$alloc..boxed..Box$LT$syn..generics..WherePredicate$GT$$GT$$GT$17h25efb271b107ed54E', symObjAddr: 0x2C0, symBinAddr: 0xF470, symSize: 0x100 }
  - { offsetInCU: 0x7711, offset: 0x4B2C4, size: 0x8, addend: 0x0, symName: '__ZN4core3ptr103drop_in_place$LT$syn..punctuated..Punctuated$LT$syn..generics..TypeParamBound$C$syn..token..Add$GT$$GT$17hde9556c770ec6e78E', symObjAddr: 0x3C0, symBinAddr: 0xF570, symSize: 0x200 }
  - { offsetInCU: 0x7FAF, offset: 0x4BB62, size: 0x8, addend: 0x0, symName: '__ZN4core3ptr108drop_in_place$LT$syn..punctuated..Punctuated$LT$syn..expr..GenericMethodArgument$C$syn..token..Comma$GT$$GT$17h34c1d36c002674f1E', symObjAddr: 0x5C0, symBinAddr: 0xF770, symSize: 0x160 }
  - { offsetInCU: 0x84C4, offset: 0x4C077, size: 0x8, addend: 0x0, symName: '__ZN4core3ptr34drop_in_place$LT$syn..lit..Lit$GT$17h65b1777be8e8e7dfE', symObjAddr: 0x720, symBinAddr: 0xF8D0, symSize: 0x110 }
  - { offsetInCU: 0x89A1, offset: 0x4C554, size: 0x8, addend: 0x0, symName: '__ZN4core3ptr34drop_in_place$LT$syn..pat..Pat$GT$17hdfb6e36a99d3fbc1E', symObjAddr: 0x830, symBinAddr: 0xF9E0, symSize: 0x9F0 }
  - { offsetInCU: 0xB41A, offset: 0x4EFCD, size: 0x8, addend: 0x0, symName: '__ZN4core3ptr34drop_in_place$LT$syn..ty..Type$GT$17h1db251a541089a14E', symObjAddr: 0x1220, symBinAddr: 0x103D0, symSize: 0x5A0 }
  - { offsetInCU: 0xCF02, offset: 0x50AB5, size: 0x8, addend: 0x0, symName: '__ZN4core3ptr36drop_in_place$LT$syn..expr..Expr$GT$17h3ea629b214171dcfE', symObjAddr: 0x17C0, symBinAddr: 0x10970, symSize: 0x1E70 }
  - { offsetInCU: 0x14EF3, offset: 0x58AA6, size: 0x8, addend: 0x0, symName: '__ZN4core3ptr36drop_in_place$LT$syn..mac..Macro$GT$17h0a06117ee78dbd7bE', symObjAddr: 0x3630, symBinAddr: 0x127E0, symSize: 0xE0 }
  - { offsetInCU: 0x152E0, offset: 0x58E93, size: 0x8, addend: 0x0, symName: '__ZN4core3ptr36drop_in_place$LT$syn..path..Path$GT$17h4b94ce8a744fa5e5E', symObjAddr: 0x3710, symBinAddr: 0x128C0, symSize: 0x230 }
  - { offsetInCU: 0x15C15, offset: 0x597C8, size: 0x8, addend: 0x0, symName: '__ZN4core3ptr37drop_in_place$LT$syn..stmt..Block$GT$17h46fc8c9ee74031e2E', symObjAddr: 0x3940, symBinAddr: 0x12AF0, symSize: 0xD0 }
  - { offsetInCU: 0x15F54, offset: 0x59B07, size: 0x8, addend: 0x0, symName: '__ZN4core3ptr38drop_in_place$LT$syn..data..Fields$GT$17h56c4bfab760215b7E', symObjAddr: 0x3A10, symBinAddr: 0x12BC0, symSize: 0x180 }
  - { offsetInCU: 0x163B0, offset: 0x59F63, size: 0x8, addend: 0x0, symName: '__ZN4core3ptr38drop_in_place$LT$syn..error..Error$GT$17h125cbfeb70ec1c24E', symObjAddr: 0x3B90, symBinAddr: 0x12D40, symSize: 0x70 }
  - { offsetInCU: 0x1666E, offset: 0x5A221, size: 0x8, addend: 0x0, symName: '__ZN4core3ptr38drop_in_place$LT$syn..expr..Member$GT$17hb947f462dc2a2030E', symObjAddr: 0x3C00, symBinAddr: 0x12DB0, symSize: 0x30 }
  - { offsetInCU: 0x1676B, offset: 0x5A31E, size: 0x8, addend: 0x0, symName: '__ZN4core3ptr39drop_in_place$LT$proc_macro2..Ident$GT$17h24580b770d208941E', symObjAddr: 0x3C30, symBinAddr: 0x12DE0, symSize: 0x30 }
  - { offsetInCU: 0x16849, offset: 0x5A3FC, size: 0x8, addend: 0x0, symName: '__ZN4core3ptr39drop_in_place$LT$syn..pat..PatTuple$GT$17h53e1ac83f027e8afE', symObjAddr: 0x3C60, symBinAddr: 0x12E10, symSize: 0x80 }
  - { offsetInCU: 0x16B0B, offset: 0x5A6BE, size: 0x8, addend: 0x0, symName: '__ZN4core3ptr40drop_in_place$LT$syn..item..ItemEnum$GT$17h821f0e8814d0758bE', symObjAddr: 0x3CE0, symBinAddr: 0x12E90, symSize: 0x1E0 }
  - { offsetInCU: 0x17242, offset: 0x5ADF5, size: 0x8, addend: 0x0, symName: '__ZN4core3ptr40drop_in_place$LT$syn..ty..ReturnType$GT$17hec9aac0fbd26b1ccE', symObjAddr: 0x3EC0, symBinAddr: 0x13070, symSize: 0x50 }
  - { offsetInCU: 0x173B4, offset: 0x5AF67, size: 0x8, addend: 0x0, symName: '__ZN4core3ptr41drop_in_place$LT$syn..item..ItemUnion$GT$17h3c92ae2c17e2a463E', symObjAddr: 0x3F10, symBinAddr: 0x130C0, symSize: 0x1E0 }
  - { offsetInCU: 0x17B02, offset: 0x5B6B5, size: 0x8, addend: 0x0, symName: '__ZN4core3ptr42drop_in_place$LT$syn..data..Visibility$GT$17h298eedf09a170cb1E', symObjAddr: 0x40F0, symBinAddr: 0x132A0, symSize: 0x60 }
  - { offsetInCU: 0x17C85, offset: 0x5B838, size: 0x8, addend: 0x0, symName: '__ZN4core3ptr42drop_in_place$LT$syn..item..ItemStruct$GT$17h50468e45d34c1e60E', symObjAddr: 0x4150, symBinAddr: 0x13300, symSize: 0x130 }
  - { offsetInCU: 0x180E4, offset: 0x5BC97, size: 0x8, addend: 0x0, symName: '__ZN4core3ptr43drop_in_place$LT$syn..data..FieldsNamed$GT$17h3b056cb266627889E', symObjAddr: 0x4280, symBinAddr: 0x13430, symSize: 0xE0 }
  - { offsetInCU: 0x18430, offset: 0x5BFE3, size: 0x8, addend: 0x0, symName: '__ZN4core3ptr44drop_in_place$LT$syn..generics..Generics$GT$17h07ab498ca9a79526E', symObjAddr: 0x4360, symBinAddr: 0x13510, symSize: 0xB0 }
  - { offsetInCU: 0x18662, offset: 0x5C215, size: 0x8, addend: 0x0, symName: '__ZN4core3ptr44drop_in_place$LT$syn..lifetime..Lifetime$GT$17h3ae1e50cb07bb830E', symObjAddr: 0x4410, symBinAddr: 0x135C0, symSize: 0x30 }
  - { offsetInCU: 0x18895, offset: 0x5C448, size: 0x8, addend: 0x0, symName: '__ZN4core3ptr45drop_in_place$LT$proc_macro2..TokenStream$GT$17h154ee4fd9fd2d03aE', symObjAddr: 0x4440, symBinAddr: 0x135F0, symSize: 0x140 }
  - { offsetInCU: 0x18CC6, offset: 0x5C879, size: 0x8, addend: 0x0, symName: '__ZN4core3ptr47drop_in_place$LT$syn..generics..LifetimeDef$GT$17hfe0ab2633a6643dfE', symObjAddr: 0x4580, symBinAddr: 0x13730, symSize: 0xB0 }
  - { offsetInCU: 0x1901E, offset: 0x5CBD1, size: 0x8, addend: 0x0, symName: '__ZN4core3ptr47drop_in_place$LT$syn..path..GenericArgument$GT$17h7550fabeee078d7aE', symObjAddr: 0x4630, symBinAddr: 0x137E0, symSize: 0xE0 }
  - { offsetInCU: 0x1934B, offset: 0x5CEFE, size: 0x8, addend: 0x0, symName: '__ZN4core3ptr58drop_in_place$LT$alloc..vec..Vec$LT$syn..expr..Arm$GT$$GT$17h39bb107a37cae631E', symObjAddr: 0x4710, symBinAddr: 0x138C0, symSize: 0xD0 }
  - { offsetInCU: 0x195D8, offset: 0x5D18B, size: 0x8, addend: 0x0, symName: '__ZN4core3ptr59drop_in_place$LT$alloc..boxed..Box$LT$syn..pat..Pat$GT$$GT$17haa5e5a8328a7396fE', symObjAddr: 0x47E0, symBinAddr: 0x13990, symSize: 0x50 }
  - { offsetInCU: 0x19733, offset: 0x5D2E6, size: 0x8, addend: 0x0, symName: '__ZN4core3ptr59drop_in_place$LT$alloc..boxed..Box$LT$syn..ty..Type$GT$$GT$17hb1ede5bfe13e401dE', symObjAddr: 0x4830, symBinAddr: 0x139E0, symSize: 0x50 }
  - { offsetInCU: 0x1988E, offset: 0x5D441, size: 0x8, addend: 0x0, symName: '__ZN4core3ptr61drop_in_place$LT$alloc..boxed..Box$LT$syn..expr..Expr$GT$$GT$17h258b66ce91c85c6bE', symObjAddr: 0x4880, symBinAddr: 0x13A30, symSize: 0x50 }
  - { offsetInCU: 0x199E9, offset: 0x5D59C, size: 0x8, addend: 0x0, symName: '__ZN4core3ptr61drop_in_place$LT$syn..path..ParenthesizedGenericArguments$GT$17h7030b6e015396660E', symObjAddr: 0x48D0, symBinAddr: 0x13A80, symSize: 0x170 }
  - { offsetInCU: 0x19FC3, offset: 0x5DB76, size: 0x8, addend: 0x0, symName: '__ZN4core3ptr63drop_in_place$LT$alloc..boxed..Box$LT$syn..lit..LitRepr$GT$$GT$17h82ac5d7134b77176E', symObjAddr: 0x4A40, symBinAddr: 0x13BF0, symSize: 0x60 }
  - { offsetInCU: 0x1A2B8, offset: 0x5DE6B, size: 0x8, addend: 0x0, symName: '__ZN4core3ptr64drop_in_place$LT$alloc..boxed..Box$LT$syn..pat..FieldPat$GT$$GT$17hb7eec2e422e063d3E', symObjAddr: 0x4AA0, symBinAddr: 0x13C50, symSize: 0x100 }
  - { offsetInCU: 0x1A8D3, offset: 0x5E486, size: 0x8, addend: 0x0, symName: '__ZN4core3ptr64drop_in_place$LT$alloc..boxed..Box$LT$syn..ty..BareFnArg$GT$$GT$17hd034f41813c95e7dE', symObjAddr: 0x4BA0, symBinAddr: 0x13D50, symSize: 0xE0 }
  - { offsetInCU: 0x1AD59, offset: 0x5E90C, size: 0x8, addend: 0x0, symName: '__ZN4core3ptr65drop_in_place$LT$core..option..Option$LT$syn..expr..Label$GT$$GT$17h24845d9ce09b81fdE', symObjAddr: 0x4C80, symBinAddr: 0x13E30, symSize: 0x30 }
  - { offsetInCU: 0x1AE94, offset: 0x5EA47, size: 0x8, addend: 0x0, symName: '__ZN4core3ptr66drop_in_place$LT$core..option..Option$LT$syn..ty..Variadic$GT$$GT$17h53fcea0bf7b19673E', symObjAddr: 0x4CB0, symBinAddr: 0x13E60, symSize: 0x80 }
  - { offsetInCU: 0x1B0EA, offset: 0x5EC9D, size: 0x8, addend: 0x0, symName: '__ZN4core3ptr67drop_in_place$LT$alloc..boxed..Box$LT$syn..expr..FieldValue$GT$$GT$17hb1087ed83320230fE', symObjAddr: 0x4D30, symBinAddr: 0x13EE0, symSize: 0xF0 }
  - { offsetInCU: 0x1B55C, offset: 0x5F10F, size: 0x8, addend: 0x0, symName: '__ZN4core3ptr72drop_in_place$LT$core..option..Option$LT$syn..lifetime..Lifetime$GT$$GT$17h8ad847af20277a3cE', symObjAddr: 0x4E20, symBinAddr: 0x13FD0, symSize: 0x30 }
  - { offsetInCU: 0x1B678, offset: 0x5F22B, size: 0x8, addend: 0x0, symName: '__ZN4core3ptr75drop_in_place$LT$alloc..boxed..Box$LT$syn..generics..TypeParamBound$GT$$GT$17hb118bd924923c07bE', symObjAddr: 0x4E50, symBinAddr: 0x14000, symSize: 0x140 }
  - { offsetInCU: 0x1BC29, offset: 0x5F7DC, size: 0x8, addend: 0x0, symName: '__ZN4core3ptr75drop_in_place$LT$core..option..Option$LT$syn..generics..WhereClause$GT$$GT$17h8e5cd760d0daa09fE', symObjAddr: 0x4F90, symBinAddr: 0x14140, symSize: 0x90 }
  - { offsetInCU: 0x1BE82, offset: 0x5FA35, size: 0x8, addend: 0x0, symName: '__ZN4core3ptr78drop_in_place$LT$alloc..boxed..Box$LT$syn..expr..GenericMethodArgument$GT$$GT$17hd6d5756fa8dac205E', symObjAddr: 0x5020, symBinAddr: 0x141D0, symSize: 0x60 }
  - { offsetInCU: 0x1C0B4, offset: 0x5FC67, size: 0x8, addend: 0x0, symName: '__ZN4core3ptr78drop_in_place$LT$core..option..Option$LT$syn..generics..BoundLifetimes$GT$$GT$17h13bf489926bd4486E', symObjAddr: 0x5080, symBinAddr: 0x14230, symSize: 0xD0 }
  - { offsetInCU: 0x1C55D, offset: 0x60110, size: 0x8, addend: 0x0, symName: '__ZN4core3ptr86drop_in_place$LT$syn..punctuated..Punctuated$LT$syn..pat..Pat$C$syn..token..Or$GT$$GT$17h2630885ee450deebE', symObjAddr: 0x5150, symBinAddr: 0x14300, symSize: 0x120 }
  - { offsetInCU: 0x1C9A3, offset: 0x60556, size: 0x8, addend: 0x0, symName: '__ZN4core3ptr87drop_in_place$LT$core..option..Option$LT$alloc..boxed..Box$LT$syn..pat..Pat$GT$$GT$$GT$17h50e4759a796db672E', symObjAddr: 0x5270, symBinAddr: 0x14420, symSize: 0x50 }
  - { offsetInCU: 0x1CB15, offset: 0x606C8, size: 0x8, addend: 0x0, symName: '__ZN4core3ptr87drop_in_place$LT$core..option..Option$LT$alloc..boxed..Box$LT$syn..ty..Type$GT$$GT$$GT$17h042195e9cb402873E', symObjAddr: 0x52C0, symBinAddr: 0x14470, symSize: 0x50 }
  - { offsetInCU: 0x1CCA6, offset: 0x60859, size: 0x8, addend: 0x0, symName: '__ZN4core3ptr88drop_in_place$LT$core..result..Result$LT$syn..item..ItemEnum$C$syn..error..Error$GT$$GT$17haa58eba5337dbc37E', symObjAddr: 0x5310, symBinAddr: 0x144C0, symSize: 0x90 }
  - { offsetInCU: 0x1CF79, offset: 0x60B2C, size: 0x8, addend: 0x0, symName: '__ZN4core3ptr89drop_in_place$LT$core..option..Option$LT$alloc..boxed..Box$LT$syn..expr..Expr$GT$$GT$$GT$17h7f97a9c19e91114aE', symObjAddr: 0x53A0, symBinAddr: 0x14550, symSize: 0x50 }
  - { offsetInCU: 0x1D0EB, offset: 0x60C9E, size: 0x8, addend: 0x0, symName: '__ZN4core3ptr89drop_in_place$LT$core..result..Result$LT$syn..item..ItemUnion$C$syn..error..Error$GT$$GT$17h76142cdade190b5bE', symObjAddr: 0x53F0, symBinAddr: 0x145A0, symSize: 0x90 }
  - { offsetInCU: 0x1D3FC, offset: 0x60FAF, size: 0x8, addend: 0x0, symName: '__ZN4core3ptr89drop_in_place$LT$syn..punctuated..Punctuated$LT$syn..pat..Pat$C$syn..token..Comma$GT$$GT$17h6e48b36784f8cf3fE', symObjAddr: 0x5480, symBinAddr: 0x14630, symSize: 0x120 }
  - { offsetInCU: 0x1D8B6, offset: 0x61469, size: 0x8, addend: 0x0, symName: '__ZN4core3ptr90drop_in_place$LT$core..option..Option$LT$alloc..boxed..Box$LT$syn..data..Field$GT$$GT$$GT$17he4a99c41bfb76b5dE', symObjAddr: 0x55A0, symBinAddr: 0x14750, symSize: 0x1A0 }
  - { offsetInCU: 0x1E05B, offset: 0x61C0E, size: 0x8, addend: 0x0, symName: '__ZN4core3ptr90drop_in_place$LT$core..result..Result$LT$syn..item..ItemStruct$C$syn..error..Error$GT$$GT$17hf49f324e910b87f7E', symObjAddr: 0x5740, symBinAddr: 0x148F0, symSize: 0x90 }
  - { offsetInCU: 0x1E36C, offset: 0x61F1F, size: 0x8, addend: 0x0, symName: '__ZN4core3ptr91drop_in_place$LT$syn..punctuated..Punctuated$LT$syn..expr..Expr$C$syn..token..Comma$GT$$GT$17hfc14a2f1080ca4a8E', symObjAddr: 0x57D0, symBinAddr: 0x14980, symSize: 0x120 }
  - { offsetInCU: 0x1E845, offset: 0x623F8, size: 0x8, addend: 0x0, symName: '__ZN4core3ptr92drop_in_place$LT$core..option..Option$LT$alloc..boxed..Box$LT$syn..data..Variant$GT$$GT$$GT$17h9acfeb5aa1199f9bE', symObjAddr: 0x58F0, symBinAddr: 0x14AA0, symSize: 0x140 }
  - { offsetInCU: 0x1EDFF, offset: 0x629B2, size: 0x8, addend: 0x0, symName: '__ZN4core3ptr94drop_in_place$LT$syn..punctuated..Punctuated$LT$syn..data..Variant$C$syn..token..Comma$GT$$GT$17ha71521a20048cf64E', symObjAddr: 0x5A30, symBinAddr: 0x14BE0, symSize: 0xE0 }
  - { offsetInCU: 0x1F0CF, offset: 0x62C82, size: 0x8, addend: 0x0, symName: '__ZN4core3ptr94drop_in_place$LT$syn..punctuated..Punctuated$LT$syn..pat..FieldPat$C$syn..token..Comma$GT$$GT$17h0e2d8e1d7b1588cdE', symObjAddr: 0x5B10, symBinAddr: 0x14CC0, symSize: 0xF0 }
  - { offsetInCU: 0x1F399, offset: 0x62F4C, size: 0x8, addend: 0x0, symName: '__ZN4core3ptr94drop_in_place$LT$syn..punctuated..Punctuated$LT$syn..ty..BareFnArg$C$syn..token..Comma$GT$$GT$17haa1aa995c736a8cfE', symObjAddr: 0x5C00, symBinAddr: 0x14DB0, symSize: 0xF0 }
  - { offsetInCU: 0x1F663, offset: 0x63216, size: 0x8, addend: 0x0, symName: '__ZN4core3ptr96drop_in_place$LT$core..option..Option$LT$alloc..boxed..Box$LT$syn..path..PathSegment$GT$$GT$$GT$17h450805d8d891902bE', symObjAddr: 0x5CF0, symBinAddr: 0x14EA0, symSize: 0x180 }
  - { offsetInCU: 0x1FCF4, offset: 0x638A7, size: 0x8, addend: 0x0, symName: '__ZN4core3ptr97drop_in_place$LT$syn..punctuated..Punctuated$LT$syn..expr..FieldValue$C$syn..token..Comma$GT$$GT$17hb78bcd4c4248177eE', symObjAddr: 0x5E70, symBinAddr: 0x15020, symSize: 0xF0 }
  - { offsetInCU: 0x2003A, offset: 0x63BED, size: 0x8, addend: 0x0, symName: '__ZN4core3ptr97drop_in_place$LT$syn..punctuated..Punctuated$LT$syn..lifetime..Lifetime$C$syn..token..Add$GT$$GT$17heac5a82a43af1f0dE', symObjAddr: 0x5F60, symBinAddr: 0x15110, symSize: 0xC0 }
  - { offsetInCU: 0x20E9B, offset: 0x64A4E, size: 0x8, addend: 0x0, symName: __ZN10proc_macro6bridge6client14HandleCounters3get17h02da01958788119eE, symObjAddr: 0x0, symBinAddr: 0xF1B0, symSize: 0x10 }
  - { offsetInCU: 0x1E, offset: 0x6F30F, size: 0x8, addend: 0x0, symName: __ZN5alloc7raw_vec11finish_grow17h515c181a4997db50E.llvm.6741870874312021383, symObjAddr: 0x0, symBinAddr: 0x16330, symSize: 0x90 }
  - { offsetInCU: 0xDA8, offset: 0x70099, size: 0x8, addend: 0x0, symName: __ZN5alloc7raw_vec11finish_grow17h515c181a4997db50E.llvm.6741870874312021383, symObjAddr: 0x0, symBinAddr: 0x16330, symSize: 0x90 }
  - { offsetInCU: 0x1119, offset: 0x7040A, size: 0x8, addend: 0x0, symName: '__ZN5alloc7raw_vec19RawVec$LT$T$C$A$GT$7reserve21do_reserve_and_handle17h8c5c311e0ac71e9fE', symObjAddr: 0x1B0, symBinAddr: 0x21D8E0, symSize: 0xB0 }
  - { offsetInCU: 0x14BA, offset: 0x707AB, size: 0x8, addend: 0x0, symName: '__ZN77_$LT$alloc..raw_vec..RawVec$LT$T$C$A$GT$$u20$as$u20$core..ops..drop..Drop$GT$4drop17h5143eaa612f4a04dE', symObjAddr: 0x4A0, symBinAddr: 0x16470, symSize: 0x30 }
  - { offsetInCU: 0x1EEF, offset: 0x711E0, size: 0x8, addend: 0x0, symName: '__ZN5alloc7raw_vec19RawVec$LT$T$C$A$GT$16reserve_for_push17h2f7be59b9847a65bE', symObjAddr: 0x100, symBinAddr: 0x163C0, symSize: 0xB0 }
  - { offsetInCU: 0x1E, offset: 0x715C3, size: 0x8, addend: 0x0, symName: __ZN3syn5parse6Parser5parse17h3cd136b23cf0b09dE, symObjAddr: 0x0, symBinAddr: 0x164A0, symSize: 0x530 }
  - { offsetInCU: 0x19DD, offset: 0x72F82, size: 0x8, addend: 0x0, symName: '__ZN4core3ptr100drop_in_place$LT$core..option..Option$LT$alloc..boxed..Box$LT$syn..path..GenericArgument$GT$$GT$$GT$17hbc00a864b1b2b7a7E', symObjAddr: 0xFB0, symBinAddr: 0x17450, symSize: 0x50 }
  - { offsetInCU: 0x1CC3, offset: 0x73268, size: 0x8, addend: 0x0, symName: '__ZN4core3ptr101drop_in_place$LT$core..option..Option$LT$alloc..boxed..Box$LT$syn..generics..GenericParam$GT$$GT$$GT$17hd4b986d2d62f26f8E', symObjAddr: 0x1000, symBinAddr: 0x174A0, symSize: 0x260 }
  - { offsetInCU: 0x26F4, offset: 0x73C99, size: 0x8, addend: 0x0, symName: '__ZN4core3ptr103drop_in_place$LT$core..option..Option$LT$alloc..boxed..Box$LT$syn..generics..WherePredicate$GT$$GT$$GT$17h25efb271b107ed54E', symObjAddr: 0x1260, symBinAddr: 0x17700, symSize: 0x100 }
  - { offsetInCU: 0x2AFD, offset: 0x740A2, size: 0x8, addend: 0x0, symName: '__ZN4core3ptr103drop_in_place$LT$syn..punctuated..Punctuated$LT$syn..generics..TypeParamBound$C$syn..token..Add$GT$$GT$17hde9556c770ec6e78E', symObjAddr: 0x1360, symBinAddr: 0x17800, symSize: 0x200 }
  - { offsetInCU: 0x339B, offset: 0x74940, size: 0x8, addend: 0x0, symName: '__ZN4core3ptr108drop_in_place$LT$syn..punctuated..Punctuated$LT$syn..expr..GenericMethodArgument$C$syn..token..Comma$GT$$GT$17h34c1d36c002674f1E', symObjAddr: 0x1560, symBinAddr: 0x17A00, symSize: 0x160 }
  - { offsetInCU: 0x38B0, offset: 0x74E55, size: 0x8, addend: 0x0, symName: '__ZN4core3ptr34drop_in_place$LT$syn..lit..Lit$GT$17h65b1777be8e8e7dfE', symObjAddr: 0x16C0, symBinAddr: 0x17B60, symSize: 0x110 }
  - { offsetInCU: 0x3D8D, offset: 0x75332, size: 0x8, addend: 0x0, symName: '__ZN4core3ptr34drop_in_place$LT$syn..pat..Pat$GT$17hdfb6e36a99d3fbc1E', symObjAddr: 0x17D0, symBinAddr: 0x17C70, symSize: 0x9F0 }
  - { offsetInCU: 0x6806, offset: 0x77DAB, size: 0x8, addend: 0x0, symName: '__ZN4core3ptr34drop_in_place$LT$syn..ty..Type$GT$17h1db251a541089a14E', symObjAddr: 0x21C0, symBinAddr: 0x18660, symSize: 0x5A0 }
  - { offsetInCU: 0x82EE, offset: 0x79893, size: 0x8, addend: 0x0, symName: '__ZN4core3ptr36drop_in_place$LT$syn..expr..Expr$GT$17h3ea629b214171dcfE', symObjAddr: 0x2760, symBinAddr: 0x18C00, symSize: 0x1E70 }
  - { offsetInCU: 0x102DF, offset: 0x81884, size: 0x8, addend: 0x0, symName: '__ZN4core3ptr36drop_in_place$LT$syn..mac..Macro$GT$17h0a06117ee78dbd7bE', symObjAddr: 0x45D0, symBinAddr: 0x1AA70, symSize: 0xE0 }
  - { offsetInCU: 0x106CC, offset: 0x81C71, size: 0x8, addend: 0x0, symName: '__ZN4core3ptr36drop_in_place$LT$syn..path..Path$GT$17h4b94ce8a744fa5e5E', symObjAddr: 0x46B0, symBinAddr: 0x1AB50, symSize: 0x230 }
  - { offsetInCU: 0x11001, offset: 0x825A6, size: 0x8, addend: 0x0, symName: '__ZN4core3ptr37drop_in_place$LT$syn..stmt..Block$GT$17h46fc8c9ee74031e2E', symObjAddr: 0x48E0, symBinAddr: 0x1AD80, symSize: 0xD0 }
  - { offsetInCU: 0x11340, offset: 0x828E5, size: 0x8, addend: 0x0, symName: '__ZN4core3ptr38drop_in_place$LT$syn..data..Fields$GT$17h56c4bfab760215b7E', symObjAddr: 0x49B0, symBinAddr: 0x1AE50, symSize: 0x180 }
  - { offsetInCU: 0x1175E, offset: 0x82D03, size: 0x8, addend: 0x0, symName: '__ZN4core3ptr38drop_in_place$LT$syn..expr..Member$GT$17hb947f462dc2a2030E', symObjAddr: 0x4B30, symBinAddr: 0x1AFD0, symSize: 0x30 }
  - { offsetInCU: 0x1185B, offset: 0x82E00, size: 0x8, addend: 0x0, symName: '__ZN4core3ptr39drop_in_place$LT$proc_macro2..Ident$GT$17h24580b770d208941E', symObjAddr: 0x4B60, symBinAddr: 0x1B000, symSize: 0x30 }
  - { offsetInCU: 0x11A6F, offset: 0x83014, size: 0x8, addend: 0x0, symName: '__ZN4core3ptr39drop_in_place$LT$syn..buffer..Entry$GT$17h1a2bf3c724ea950aE', symObjAddr: 0x4B90, symBinAddr: 0x1B030, symSize: 0xC0 }
  - { offsetInCU: 0x11D83, offset: 0x83328, size: 0x8, addend: 0x0, symName: '__ZN4core3ptr39drop_in_place$LT$syn..pat..PatTuple$GT$17h53e1ac83f027e8afE', symObjAddr: 0x4C50, symBinAddr: 0x1B0F0, symSize: 0x80 }
  - { offsetInCU: 0x12045, offset: 0x835EA, size: 0x8, addend: 0x0, symName: '__ZN4core3ptr40drop_in_place$LT$syn..item..ItemEnum$GT$17h821f0e8814d0758bE', symObjAddr: 0x4CD0, symBinAddr: 0x1B170, symSize: 0x1E0 }
  - { offsetInCU: 0x1277C, offset: 0x83D21, size: 0x8, addend: 0x0, symName: '__ZN4core3ptr40drop_in_place$LT$syn..ty..ReturnType$GT$17hec9aac0fbd26b1ccE', symObjAddr: 0x4EB0, symBinAddr: 0x1B350, symSize: 0x50 }
  - { offsetInCU: 0x128EE, offset: 0x83E93, size: 0x8, addend: 0x0, symName: '__ZN4core3ptr41drop_in_place$LT$syn..item..ItemUnion$GT$17h3c92ae2c17e2a463E', symObjAddr: 0x4F00, symBinAddr: 0x1B3A0, symSize: 0x1E0 }
  - { offsetInCU: 0x1303C, offset: 0x845E1, size: 0x8, addend: 0x0, symName: '__ZN4core3ptr42drop_in_place$LT$syn..data..Visibility$GT$17h298eedf09a170cb1E', symObjAddr: 0x50E0, symBinAddr: 0x1B580, symSize: 0x60 }
  - { offsetInCU: 0x131BF, offset: 0x84764, size: 0x8, addend: 0x0, symName: '__ZN4core3ptr42drop_in_place$LT$syn..item..ItemStruct$GT$17h50468e45d34c1e60E', symObjAddr: 0x5140, symBinAddr: 0x1B5E0, symSize: 0x130 }
  - { offsetInCU: 0x1361E, offset: 0x84BC3, size: 0x8, addend: 0x0, symName: '__ZN4core3ptr43drop_in_place$LT$syn..data..FieldsNamed$GT$17h3b056cb266627889E', symObjAddr: 0x5270, symBinAddr: 0x1B710, symSize: 0xE0 }
  - { offsetInCU: 0x1396A, offset: 0x84F0F, size: 0x8, addend: 0x0, symName: '__ZN4core3ptr44drop_in_place$LT$syn..generics..Generics$GT$17h07ab498ca9a79526E', symObjAddr: 0x5350, symBinAddr: 0x1B7F0, symSize: 0xB0 }
  - { offsetInCU: 0x13B9C, offset: 0x85141, size: 0x8, addend: 0x0, symName: '__ZN4core3ptr44drop_in_place$LT$syn..lifetime..Lifetime$GT$17h3ae1e50cb07bb830E', symObjAddr: 0x5400, symBinAddr: 0x1B8A0, symSize: 0x30 }
  - { offsetInCU: 0x13D34, offset: 0x852D9, size: 0x8, addend: 0x0, symName: '__ZN4core3ptr45drop_in_place$LT$proc_macro2..TokenStream$GT$17h154ee4fd9fd2d03aE', symObjAddr: 0x5430, symBinAddr: 0x1B8D0, symSize: 0x140 }
  - { offsetInCU: 0x14165, offset: 0x8570A, size: 0x8, addend: 0x0, symName: '__ZN4core3ptr47drop_in_place$LT$syn..generics..LifetimeDef$GT$17hfe0ab2633a6643dfE', symObjAddr: 0x5570, symBinAddr: 0x1BA10, symSize: 0xB0 }
  - { offsetInCU: 0x144BD, offset: 0x85A62, size: 0x8, addend: 0x0, symName: '__ZN4core3ptr47drop_in_place$LT$syn..path..GenericArgument$GT$17h7550fabeee078d7aE', symObjAddr: 0x5620, symBinAddr: 0x1BAC0, symSize: 0xE0 }
  - { offsetInCU: 0x147EA, offset: 0x85D8F, size: 0x8, addend: 0x0, symName: '__ZN4core3ptr58drop_in_place$LT$alloc..vec..Vec$LT$syn..expr..Arm$GT$$GT$17h39bb107a37cae631E', symObjAddr: 0x5700, symBinAddr: 0x1BBA0, symSize: 0xD0 }
  - { offsetInCU: 0x14A77, offset: 0x8601C, size: 0x8, addend: 0x0, symName: '__ZN4core3ptr59drop_in_place$LT$alloc..boxed..Box$LT$syn..pat..Pat$GT$$GT$17haa5e5a8328a7396fE', symObjAddr: 0x57D0, symBinAddr: 0x1BC70, symSize: 0x50 }
  - { offsetInCU: 0x14BD2, offset: 0x86177, size: 0x8, addend: 0x0, symName: '__ZN4core3ptr59drop_in_place$LT$alloc..boxed..Box$LT$syn..ty..Type$GT$$GT$17hb1ede5bfe13e401dE', symObjAddr: 0x5820, symBinAddr: 0x1BCC0, symSize: 0x50 }
  - { offsetInCU: 0x14D2D, offset: 0x862D2, size: 0x8, addend: 0x0, symName: '__ZN4core3ptr61drop_in_place$LT$alloc..boxed..Box$LT$syn..expr..Expr$GT$$GT$17h258b66ce91c85c6bE', symObjAddr: 0x5870, symBinAddr: 0x1BD10, symSize: 0x50 }
  - { offsetInCU: 0x14E88, offset: 0x8642D, size: 0x8, addend: 0x0, symName: '__ZN4core3ptr61drop_in_place$LT$syn..path..ParenthesizedGenericArguments$GT$17h7030b6e015396660E', symObjAddr: 0x58C0, symBinAddr: 0x1BD60, symSize: 0x170 }
  - { offsetInCU: 0x15462, offset: 0x86A07, size: 0x8, addend: 0x0, symName: '__ZN4core3ptr63drop_in_place$LT$alloc..boxed..Box$LT$syn..lit..LitRepr$GT$$GT$17h82ac5d7134b77176E', symObjAddr: 0x5A30, symBinAddr: 0x1BED0, symSize: 0x60 }
  - { offsetInCU: 0x15757, offset: 0x86CFC, size: 0x8, addend: 0x0, symName: '__ZN4core3ptr64drop_in_place$LT$alloc..boxed..Box$LT$syn..pat..FieldPat$GT$$GT$17hb7eec2e422e063d3E', symObjAddr: 0x5A90, symBinAddr: 0x1BF30, symSize: 0x100 }
  - { offsetInCU: 0x15D72, offset: 0x87317, size: 0x8, addend: 0x0, symName: '__ZN4core3ptr64drop_in_place$LT$alloc..boxed..Box$LT$syn..ty..BareFnArg$GT$$GT$17hd034f41813c95e7dE', symObjAddr: 0x5B90, symBinAddr: 0x1C030, symSize: 0xE0 }
  - { offsetInCU: 0x161F8, offset: 0x8779D, size: 0x8, addend: 0x0, symName: '__ZN4core3ptr65drop_in_place$LT$core..option..Option$LT$syn..expr..Label$GT$$GT$17h24845d9ce09b81fdE', symObjAddr: 0x5C70, symBinAddr: 0x1C110, symSize: 0x30 }
  - { offsetInCU: 0x16333, offset: 0x878D8, size: 0x8, addend: 0x0, symName: '__ZN4core3ptr66drop_in_place$LT$core..option..Option$LT$syn..ty..Variadic$GT$$GT$17h53fcea0bf7b19673E', symObjAddr: 0x5CA0, symBinAddr: 0x1C140, symSize: 0x80 }
  - { offsetInCU: 0x16589, offset: 0x87B2E, size: 0x8, addend: 0x0, symName: '__ZN4core3ptr67drop_in_place$LT$alloc..boxed..Box$LT$syn..expr..FieldValue$GT$$GT$17hb1087ed83320230fE', symObjAddr: 0x5D20, symBinAddr: 0x1C1C0, symSize: 0xF0 }
  - { offsetInCU: 0x169FB, offset: 0x87FA0, size: 0x8, addend: 0x0, symName: '__ZN4core3ptr72drop_in_place$LT$core..option..Option$LT$syn..lifetime..Lifetime$GT$$GT$17h8ad847af20277a3cE', symObjAddr: 0x5E10, symBinAddr: 0x1C2B0, symSize: 0x30 }
  - { offsetInCU: 0x16B17, offset: 0x880BC, size: 0x8, addend: 0x0, symName: '__ZN4core3ptr75drop_in_place$LT$alloc..boxed..Box$LT$syn..generics..TypeParamBound$GT$$GT$17hb118bd924923c07bE', symObjAddr: 0x5E40, symBinAddr: 0x1C2E0, symSize: 0x140 }
  - { offsetInCU: 0x170C8, offset: 0x8866D, size: 0x8, addend: 0x0, symName: '__ZN4core3ptr75drop_in_place$LT$core..option..Option$LT$syn..generics..WhereClause$GT$$GT$17h8e5cd760d0daa09fE', symObjAddr: 0x5F80, symBinAddr: 0x1C420, symSize: 0x90 }
  - { offsetInCU: 0x17321, offset: 0x888C6, size: 0x8, addend: 0x0, symName: '__ZN4core3ptr78drop_in_place$LT$alloc..boxed..Box$LT$syn..expr..GenericMethodArgument$GT$$GT$17hd6d5756fa8dac205E', symObjAddr: 0x6010, symBinAddr: 0x1C4B0, symSize: 0x60 }
  - { offsetInCU: 0x17553, offset: 0x88AF8, size: 0x8, addend: 0x0, symName: '__ZN4core3ptr78drop_in_place$LT$core..option..Option$LT$syn..generics..BoundLifetimes$GT$$GT$17h13bf489926bd4486E', symObjAddr: 0x6070, symBinAddr: 0x1C510, symSize: 0xD0 }
  - { offsetInCU: 0x179FC, offset: 0x88FA1, size: 0x8, addend: 0x0, symName: '__ZN4core3ptr86drop_in_place$LT$syn..punctuated..Punctuated$LT$syn..pat..Pat$C$syn..token..Or$GT$$GT$17h2630885ee450deebE', symObjAddr: 0x6140, symBinAddr: 0x1C5E0, symSize: 0x120 }
  - { offsetInCU: 0x17E42, offset: 0x893E7, size: 0x8, addend: 0x0, symName: '__ZN4core3ptr87drop_in_place$LT$core..option..Option$LT$alloc..boxed..Box$LT$syn..pat..Pat$GT$$GT$$GT$17h50e4759a796db672E', symObjAddr: 0x6260, symBinAddr: 0x1C700, symSize: 0x50 }
  - { offsetInCU: 0x17FB4, offset: 0x89559, size: 0x8, addend: 0x0, symName: '__ZN4core3ptr87drop_in_place$LT$core..option..Option$LT$alloc..boxed..Box$LT$syn..ty..Type$GT$$GT$$GT$17h042195e9cb402873E', symObjAddr: 0x62B0, symBinAddr: 0x1C750, symSize: 0x50 }
  - { offsetInCU: 0x18126, offset: 0x896CB, size: 0x8, addend: 0x0, symName: '__ZN4core3ptr89drop_in_place$LT$core..option..Option$LT$alloc..boxed..Box$LT$syn..expr..Expr$GT$$GT$$GT$17h7f97a9c19e91114aE', symObjAddr: 0x6300, symBinAddr: 0x1C7A0, symSize: 0x50 }
  - { offsetInCU: 0x182D6, offset: 0x8987B, size: 0x8, addend: 0x0, symName: '__ZN4core3ptr89drop_in_place$LT$syn..punctuated..Punctuated$LT$syn..pat..Pat$C$syn..token..Comma$GT$$GT$17h6e48b36784f8cf3fE', symObjAddr: 0x6350, symBinAddr: 0x1C7F0, symSize: 0x120 }
  - { offsetInCU: 0x18790, offset: 0x89D35, size: 0x8, addend: 0x0, symName: '__ZN4core3ptr90drop_in_place$LT$core..option..Option$LT$alloc..boxed..Box$LT$syn..data..Field$GT$$GT$$GT$17he4a99c41bfb76b5dE', symObjAddr: 0x6470, symBinAddr: 0x1C910, symSize: 0x1A0 }
  - { offsetInCU: 0x18F73, offset: 0x8A518, size: 0x8, addend: 0x0, symName: '__ZN4core3ptr91drop_in_place$LT$syn..punctuated..Punctuated$LT$syn..expr..Expr$C$syn..token..Comma$GT$$GT$17hfc14a2f1080ca4a8E', symObjAddr: 0x6610, symBinAddr: 0x1CAB0, symSize: 0x120 }
  - { offsetInCU: 0x1944C, offset: 0x8A9F1, size: 0x8, addend: 0x0, symName: '__ZN4core3ptr92drop_in_place$LT$core..option..Option$LT$alloc..boxed..Box$LT$syn..data..Variant$GT$$GT$$GT$17h9acfeb5aa1199f9bE', symObjAddr: 0x6730, symBinAddr: 0x1CBD0, symSize: 0x140 }
  - { offsetInCU: 0x19A06, offset: 0x8AFAB, size: 0x8, addend: 0x0, symName: '__ZN4core3ptr94drop_in_place$LT$syn..punctuated..Punctuated$LT$syn..data..Variant$C$syn..token..Comma$GT$$GT$17ha71521a20048cf64E', symObjAddr: 0x6870, symBinAddr: 0x1CD10, symSize: 0xE0 }
  - { offsetInCU: 0x19CD6, offset: 0x8B27B, size: 0x8, addend: 0x0, symName: '__ZN4core3ptr94drop_in_place$LT$syn..punctuated..Punctuated$LT$syn..pat..FieldPat$C$syn..token..Comma$GT$$GT$17h0e2d8e1d7b1588cdE', symObjAddr: 0x6950, symBinAddr: 0x1CDF0, symSize: 0xF0 }
  - { offsetInCU: 0x19FA0, offset: 0x8B545, size: 0x8, addend: 0x0, symName: '__ZN4core3ptr94drop_in_place$LT$syn..punctuated..Punctuated$LT$syn..ty..BareFnArg$C$syn..token..Comma$GT$$GT$17haa1aa995c736a8cfE', symObjAddr: 0x6A40, symBinAddr: 0x1CEE0, symSize: 0xF0 }
  - { offsetInCU: 0x1A26A, offset: 0x8B80F, size: 0x8, addend: 0x0, symName: '__ZN4core3ptr96drop_in_place$LT$core..option..Option$LT$alloc..boxed..Box$LT$syn..path..PathSegment$GT$$GT$$GT$17h450805d8d891902bE', symObjAddr: 0x6B30, symBinAddr: 0x1CFD0, symSize: 0x180 }
  - { offsetInCU: 0x1A8FB, offset: 0x8BEA0, size: 0x8, addend: 0x0, symName: '__ZN4core3ptr97drop_in_place$LT$syn..punctuated..Punctuated$LT$syn..expr..FieldValue$C$syn..token..Comma$GT$$GT$17hb78bcd4c4248177eE', symObjAddr: 0x6CB0, symBinAddr: 0x1D150, symSize: 0xF0 }
  - { offsetInCU: 0x1AC41, offset: 0x8C1E6, size: 0x8, addend: 0x0, symName: '__ZN4core3ptr97drop_in_place$LT$syn..punctuated..Punctuated$LT$syn..lifetime..Lifetime$C$syn..token..Add$GT$$GT$17heac5a82a43af1f0dE', symObjAddr: 0x6DA0, symBinAddr: 0x1D240, symSize: 0xB1 }
  - { offsetInCU: 0x1F7BB, offset: 0x90D60, size: 0x8, addend: 0x0, symName: __ZN3syn5parse6Parser5parse17h3cd136b23cf0b09dE, symObjAddr: 0x0, symBinAddr: 0x164A0, symSize: 0x530 }
  - { offsetInCU: 0x203CB, offset: 0x91970, size: 0x8, addend: 0x0, symName: __ZN3syn5parse6Parser5parse17h4e65b0b69c088471E, symObjAddr: 0x530, symBinAddr: 0x169D0, symSize: 0x540 }
  - { offsetInCU: 0x20FDB, offset: 0x92580, size: 0x8, addend: 0x0, symName: __ZN3syn5parse6Parser5parse17h95df1789d0397480E, symObjAddr: 0xA70, symBinAddr: 0x16F10, symSize: 0x540 }
  - { offsetInCU: 0x858, offset: 0x9C00D, size: 0x8, addend: 0x0, symName: '__ZN68_$LT$$RF$str$u20$as$u20$proc_macro..bridge..rpc..Encode$LT$S$GT$$GT$6encode17h55cdc6e8fd808aaeE', symObjAddr: 0x70, symBinAddr: 0x1D300, symSize: 0x330 }
  - { offsetInCU: 0x1E, offset: 0x9C844, size: 0x8, addend: 0x0, symName: '__ZN10proc_macro6bridge11scoped_cell19ScopedCell$LT$T$GT$7replace17h00325192b8da3803E', symObjAddr: 0x0, symBinAddr: 0x1D630, symSize: 0x0 }
  - { offsetInCU: 0x61A, offset: 0x9CE40, size: 0x8, addend: 0x0, symName: '__ZN4core3ptr145drop_in_place$LT$proc_macro..bridge..scoped_cell..ScopedCell$LT$T$GT$..replace..PutBackOnDrop$LT$proc_macro..bridge..client..BridgeStateL$GT$$GT$17h2508c690eb6902f4E.llvm.6485855579414152226', symObjAddr: 0xC50, symBinAddr: 0x1E280, symSize: 0xBA }
  - { offsetInCU: 0x1D67, offset: 0x9E58D, size: 0x8, addend: 0x0, symName: '__ZN10proc_macro6bridge11scoped_cell19ScopedCell$LT$T$GT$7replace17h00325192b8da3803E', symObjAddr: 0x0, symBinAddr: 0x1D630, symSize: 0x0 }
  - { offsetInCU: 0x2351, offset: 0x9EB77, size: 0x8, addend: 0x0, symName: '__ZN10proc_macro6bridge11scoped_cell19ScopedCell$LT$T$GT$7replace17h7c4e19691ca6b96cE', symObjAddr: 0x1D0, symBinAddr: 0x1D800, symSize: 0x380 }
  - { offsetInCU: 0x2C43, offset: 0x9F469, size: 0x8, addend: 0x0, symName: '__ZN10proc_macro6bridge11scoped_cell19ScopedCell$LT$T$GT$7replace17hc6a53f763e7a2c1dE', symObjAddr: 0x550, symBinAddr: 0x1DB80, symSize: 0x380 }
  - { offsetInCU: 0x3535, offset: 0x9FD5B, size: 0x8, addend: 0x0, symName: '__ZN10proc_macro6bridge11scoped_cell19ScopedCell$LT$T$GT$7replace17hd3fdea7134183882E', symObjAddr: 0x8D0, symBinAddr: 0x1DF00, symSize: 0x380 }
  - { offsetInCU: 0x1E, offset: 0xA0E06, size: 0x8, addend: 0x0, symName: __ZN4core3fmt5Write10write_char17h9c4f8781f7530ba2E, symObjAddr: 0x0, symBinAddr: 0x1E340, symSize: 0x100 }
  - { offsetInCU: 0xC8, offset: 0xA0EB0, size: 0x8, addend: 0x0, symName: '__ZN80_$LT$std..io..Write..write_fmt..Adapter$LT$T$GT$$u20$as$u20$core..fmt..Write$GT$9write_str17hf672e63b974eaea0E', symObjAddr: 0x1E0, symBinAddr: 0x1E520, symSize: 0x3E }
  - { offsetInCU: 0x9F7, offset: 0xA17DF, size: 0x8, addend: 0x0, symName: '__ZN4core3ptr81drop_in_place$LT$core..result..Result$LT$$LP$$RP$$C$std..io..error..Error$GT$$GT$17h8c4c735664c09deaE', symObjAddr: 0x120, symBinAddr: 0x1E460, symSize: 0xB0 }
  - { offsetInCU: 0xE68, offset: 0xA1C50, size: 0x8, addend: 0x0, symName: '__ZN4core3ptr92drop_in_place$LT$std..io..Write..write_fmt..Adapter$LT$std..sys..unix..stdio..Stderr$GT$$GT$17hed17f7ef7b168e93E', symObjAddr: 0x1D0, symBinAddr: 0x1E510, symSize: 0x10 }
  - { offsetInCU: 0xFEE, offset: 0xA1DD6, size: 0x8, addend: 0x0, symName: __ZN4core3fmt5Write10write_char17h9c4f8781f7530ba2E, symObjAddr: 0x0, symBinAddr: 0x1E340, symSize: 0x100 }
  - { offsetInCU: 0x1157, offset: 0xA1F3F, size: 0x8, addend: 0x0, symName: __ZN4core3fmt5Write9write_fmt17hc8216afc8cadf2f7E, symObjAddr: 0x100, symBinAddr: 0x1E440, symSize: 0x20 }
  - { offsetInCU: 0x1E, offset: 0xA26AF, size: 0x8, addend: 0x0, symName: __ZN3std2io5Write9write_all17h06100e03ae4f9668E, symObjAddr: 0x0, symBinAddr: 0x1E560, symSize: 0xF0 }
  - { offsetInCU: 0x35, offset: 0xA26C6, size: 0x8, addend: 0x0, symName: _anon.a3ef589324c4419d792c8361d938e9db.6.llvm.2849506816376119970, symObjAddr: 0x328, symBinAddr: 0x298488, symSize: 0x0 }
  - { offsetInCU: 0xE3, offset: 0xA2774, size: 0x8, addend: 0x0, symName: __ZN3std2io5Write9write_all17h06100e03ae4f9668E, symObjAddr: 0x0, symBinAddr: 0x1E560, symSize: 0xF0 }
  - { offsetInCU: 0x35D, offset: 0xA29EE, size: 0x8, addend: 0x0, symName: __ZN3std2io5Write9write_fmt17hdab6336eef578673E, symObjAddr: 0xF0, symBinAddr: 0x1E650, symSize: 0x90 }
  - { offsetInCU: 0x141B, offset: 0xA3AAC, size: 0x8, addend: 0x0, symName: '__ZN4core3ptr42drop_in_place$LT$std..io..error..Error$GT$17h1a157c86bf499ed3E.llvm.2849506816376119970', symObjAddr: 0x180, symBinAddr: 0x1E6E0, symSize: 0xA0 }
  - { offsetInCU: 0x187E, offset: 0xA3F0F, size: 0x8, addend: 0x0, symName: '__ZN4core3ptr92drop_in_place$LT$std..io..Write..write_fmt..Adapter$LT$std..sys..unix..stdio..Stderr$GT$$GT$17hed17f7ef7b168e93E.llvm.2849506816376119970', symObjAddr: 0x220, symBinAddr: 0x1E780, symSize: 0x15 }
  - { offsetInCU: 0x1E, offset: 0xA48CD, size: 0x8, addend: 0x0, symName: '__ZN3std3sys6common12thread_local10fast_local12Key$LT$T$GT$14try_initialize17h69c3ab4428489ebaE.llvm.5066740161555057561', symObjAddr: 0x0, symBinAddr: 0x1E7A0, symSize: 0x150 }
  - { offsetInCU: 0x3E7, offset: 0xA4C96, size: 0x8, addend: 0x0, symName: __ZN3std3sys6common12thread_local10fast_local13destroy_value17hae44ebcb3933d4d9E, symObjAddr: 0x170, symBinAddr: 0x1E8F0, symSize: 0xE0 }
  - { offsetInCU: 0xF93, offset: 0xA5842, size: 0x8, addend: 0x0, symName: '__ZN4core3ptr81drop_in_place$LT$core..result..Result$LT$$LP$$RP$$C$std..io..error..Error$GT$$GT$17h8c4c735664c09deaE', symObjAddr: 0x250, symBinAddr: 0x1E9D0, symSize: 0xA5 }
  - { offsetInCU: 0x1C49, offset: 0xA64F8, size: 0x8, addend: 0x0, symName: '__ZN3std3sys6common12thread_local10fast_local12Key$LT$T$GT$14try_initialize17h69c3ab4428489ebaE.llvm.5066740161555057561', symObjAddr: 0x0, symBinAddr: 0x1E7A0, symSize: 0x150 }
  - { offsetInCU: 0x1E, offset: 0xA78E3, size: 0x8, addend: 0x0, symName: __ZN3std9panicking3try17h1c3ed09e041816e1E, symObjAddr: 0x0, symBinAddr: 0x1EA80, symSize: 0x390 }
  - { offsetInCU: 0x4CE, offset: 0xA7D93, size: 0x8, addend: 0x0, symName: __ZN3std9panicking3try17h1c3ed09e041816e1E, symObjAddr: 0x0, symBinAddr: 0x1EA80, symSize: 0x390 }
  - { offsetInCU: 0xB7E, offset: 0xA8443, size: 0x8, addend: 0x0, symName: __ZN3std9panicking3try17hb5e9bc20a2248fe7E, symObjAddr: 0x390, symBinAddr: 0x1EE10, symSize: 0x390 }
  - { offsetInCU: 0x122E, offset: 0xA8AF3, size: 0x8, addend: 0x0, symName: __ZN3std9panicking3try17hd6dc28e7e8e65843E, symObjAddr: 0x720, symBinAddr: 0x1F1A0, symSize: 0x390 }
  - { offsetInCU: 0x2034, offset: 0xA98F9, size: 0x8, addend: 0x0, symName: '__ZN4core3ptr52drop_in_place$LT$std..thread..local..AccessError$GT$17h7782abc28d002dccE', symObjAddr: 0xB50, symBinAddr: 0x1F530, symSize: 0x6 }
  - { offsetInCU: 0x35, offset: 0xAAE85, size: 0x8, addend: 0x0, symName: _anon.7858a707e6f7813a14eb259deef616c0.3.llvm.9251001440752523010, symObjAddr: 0xAB8, symBinAddr: 0x298518, symSize: 0x0 }
  - { offsetInCU: 0x478, offset: 0xAB2C8, size: 0x8, addend: 0x0, symName: __ZN10proc_macro6bridge6client10run_client17hdb234670534e9fd2E, symObjAddr: 0x210, symBinAddr: 0x1F540, symSize: 0x1B0 }
  - { offsetInCU: 0x785, offset: 0xAB5D5, size: 0x8, addend: 0x0, symName: __ZN10proc_macro6bridge6client10run_client17he75aec8513cbeeafE, symObjAddr: 0x3C0, symBinAddr: 0x1F6F0, symSize: 0x1B0 }
  - { offsetInCU: 0xA92, offset: 0xAB8E2, size: 0x8, addend: 0x0, symName: __ZN10proc_macro6bridge6client10run_client17hea74c13d4e697948E, symObjAddr: 0x570, symBinAddr: 0x1F8A0, symSize: 0x1B0 }
  - { offsetInCU: 0xFB1, offset: 0xABE01, size: 0x8, addend: 0x0, symName: '__ZN4core3ptr52drop_in_place$LT$std..thread..local..AccessError$GT$17h7782abc28d002dccE.llvm.9251001440752523010', symObjAddr: 0x990, symBinAddr: 0x1FA50, symSize: 0x6 }
  - { offsetInCU: 0x1E, offset: 0xAC613, size: 0x8, addend: 0x0, symName: '__ZN4core3ptr73drop_in_place$LT$core..cell..UnsafeCell$LT$syn..parse..Unexpected$GT$$GT$17h90a720ee29cce179E.llvm.2017510905636577189', symObjAddr: 0x0, symBinAddr: 0x1FA60, symSize: 0x50 }
  - { offsetInCU: 0xADE, offset: 0xAD0D3, size: 0x8, addend: 0x0, symName: '__ZN4core3ptr73drop_in_place$LT$core..cell..UnsafeCell$LT$syn..parse..Unexpected$GT$$GT$17h90a720ee29cce179E.llvm.2017510905636577189', symObjAddr: 0x0, symBinAddr: 0x1FA60, symSize: 0x50 }
  - { offsetInCU: 0x138B, offset: 0xAD980, size: 0x8, addend: 0x0, symName: '__ZN68_$LT$alloc..rc..Rc$LT$T$C$A$GT$$u20$as$u20$core..ops..drop..Drop$GT$4drop17h32f81f726f1fd6edE', symObjAddr: 0x50, symBinAddr: 0x1FAB0, symSize: 0x40 }
  - { offsetInCU: 0x1600, offset: 0xADBF5, size: 0x8, addend: 0x0, symName: '__ZN68_$LT$alloc..rc..Rc$LT$T$C$A$GT$$u20$as$u20$core..ops..drop..Drop$GT$4drop17h8e5c5dff6997ddadE', symObjAddr: 0x90, symBinAddr: 0x1FAF0, symSize: 0xDE }
  - { offsetInCU: 0x35, offset: 0xAEA9A, size: 0x8, addend: 0x0, symName: _anon.4577b7e21ef75a330ed569b9d5a46978.0.llvm.2178960696859538989, symObjAddr: 0x310, symBinAddr: 0x298538, symSize: 0x0 }
  - { offsetInCU: 0x107, offset: 0xAEB6C, size: 0x8, addend: 0x0, symName: '__ZN58_$LT$alloc..string..String$u20$as$u20$core..fmt..Write$GT$10write_char17hd329c0cb943f081aE.llvm.2178960696859538989', symObjAddr: 0x140, symBinAddr: 0x1FC20, symSize: 0x130 }
  - { offsetInCU: 0x4AE, offset: 0xAEF13, size: 0x8, addend: 0x0, symName: '__ZN58_$LT$alloc..string..String$u20$as$u20$core..fmt..Write$GT$9write_str17h1ff5aa96ca91c6d5E.llvm.2178960696859538989', symObjAddr: 0x270, symBinAddr: 0x1FD50, symSize: 0x5B }
  - { offsetInCU: 0x9F3, offset: 0xAF458, size: 0x8, addend: 0x0, symName: '__ZN4core3ptr37drop_in_place$LT$core..fmt..Error$GT$17h31eedbd0d54f2acfE.llvm.2178960696859538989', symObjAddr: 0xF0, symBinAddr: 0x1FBD0, symSize: 0x10 }
  - { offsetInCU: 0xA1F, offset: 0xAF484, size: 0x8, addend: 0x0, symName: '__ZN4core3ptr42drop_in_place$LT$alloc..string..String$GT$17h1bb7ce4554f996a9E.llvm.2178960696859538989', symObjAddr: 0x100, symBinAddr: 0x1FBE0, symSize: 0x20 }
  - { offsetInCU: 0xC0C, offset: 0xAF671, size: 0x8, addend: 0x0, symName: '__ZN53_$LT$core..fmt..Error$u20$as$u20$core..fmt..Debug$GT$3fmt17h43ae5cec9623af13E.llvm.2178960696859538989', symObjAddr: 0x120, symBinAddr: 0x1FC00, symSize: 0x20 }
  - { offsetInCU: 0xE2A, offset: 0xAF88F, size: 0x8, addend: 0x0, symName: _anon.4577b7e21ef75a330ed569b9d5a46978.4.llvm.2178960696859538989, symObjAddr: 0x358, symBinAddr: 0x298580, symSize: 0x0 }
  - { offsetInCU: 0x1E, offset: 0xB0071, size: 0x8, addend: 0x0, symName: __ZN4core3fmt5Write9write_fmt17hb9cc141677cbee21E, symObjAddr: 0x0, symBinAddr: 0x1FDB0, symSize: 0x20 }
  - { offsetInCU: 0x89, offset: 0xB00DC, size: 0x8, addend: 0x0, symName: '__ZN58_$LT$alloc..string..String$u20$as$u20$core..fmt..Write$GT$10write_char17hd329c0cb943f081aE', symObjAddr: 0x40, symBinAddr: 0x1FDF0, symSize: 0x130 }
  - { offsetInCU: 0x430, offset: 0xB0483, size: 0x8, addend: 0x0, symName: '__ZN58_$LT$alloc..string..String$u20$as$u20$core..fmt..Write$GT$9write_str17h1ff5aa96ca91c6d5E', symObjAddr: 0x170, symBinAddr: 0x1FF20, symSize: 0x5B }
  - { offsetInCU: 0x956, offset: 0xB09A9, size: 0x8, addend: 0x0, symName: '__ZN4core3ptr42drop_in_place$LT$alloc..string..String$GT$17h1bb7ce4554f996a9E', symObjAddr: 0x20, symBinAddr: 0x1FDD0, symSize: 0x20 }
  - { offsetInCU: 0xC0C, offset: 0xB0C5F, size: 0x8, addend: 0x0, symName: __ZN4core3fmt5Write9write_fmt17hb9cc141677cbee21E, symObjAddr: 0x0, symBinAddr: 0x1FDB0, symSize: 0x20 }
  - { offsetInCU: 0x1E, offset: 0xB170A, size: 0x8, addend: 0x0, symName: '__ZN10proc_macro6bridge104_$LT$impl$u20$proc_macro..bridge..rpc..Encode$LT$S$GT$$u20$for$u20$core..result..Result$LT$T$C$E$GT$$GT$6encode17hc5c155d0027cd178E', symObjAddr: 0x0, symBinAddr: 0x1FF80, symSize: 0x450 }
  - { offsetInCU: 0x16E, offset: 0xB185A, size: 0x8, addend: 0x0, symName: '__ZN10proc_macro6bridge104_$LT$impl$u20$proc_macro..bridge..rpc..Encode$LT$S$GT$$u20$for$u20$core..result..Result$LT$T$C$E$GT$$GT$6encode17hc5c155d0027cd178E', symObjAddr: 0x0, symBinAddr: 0x1FF80, symSize: 0x450 }
  - { offsetInCU: 0xA1E, offset: 0xB210A, size: 0x8, addend: 0x0, symName: '__ZN10proc_macro6bridge104_$LT$impl$u20$proc_macro..bridge..rpc..Encode$LT$S$GT$$u20$for$u20$core..result..Result$LT$T$C$E$GT$$GT$6encode17hf64a94ad89a33ea8E', symObjAddr: 0x450, symBinAddr: 0x203D0, symSize: 0x3AD }
  - { offsetInCU: 0x1E, offset: 0xB30AC, size: 0x8, addend: 0x0, symName: '__ZN10proc_macro6bridge100_$LT$impl$u20$proc_macro..bridge..rpc..Encode$LT$S$GT$$u20$for$u20$core..option..Option$LT$T$GT$$GT$6encode17h1e345b06bea3de2dE', symObjAddr: 0x0, symBinAddr: 0x20780, symSize: 0x4F0 }
  - { offsetInCU: 0x184, offset: 0xB3212, size: 0x8, addend: 0x0, symName: '__ZN10proc_macro6bridge100_$LT$impl$u20$proc_macro..bridge..rpc..Encode$LT$S$GT$$u20$for$u20$core..option..Option$LT$T$GT$$GT$6encode17h1e345b06bea3de2dE', symObjAddr: 0x0, symBinAddr: 0x20780, symSize: 0x4F0 }
  - { offsetInCU: 0xA4D, offset: 0xB3ADB, size: 0x8, addend: 0x0, symName: '__ZN10proc_macro6bridge100_$LT$impl$u20$proc_macro..bridge..rpc..Encode$LT$S$GT$$u20$for$u20$core..option..Option$LT$T$GT$$GT$6encode17h39dd45f36b764934E', symObjAddr: 0x4F0, symBinAddr: 0x20C70, symSize: 0x362 }
  - { offsetInCU: 0x1E, offset: 0xB48E3, size: 0x8, addend: 0x0, symName: __ZN10proc_macro6bridge14selfless_reify31reify_to_extern_c_fn_hrt_bridge7wrapper17h3f06a5528ed40dc8E, symObjAddr: 0x0, symBinAddr: 0x20FE0, symSize: 0x20 }
  - { offsetInCU: 0x202, offset: 0xB4AC7, size: 0x8, addend: 0x0, symName: __ZN10proc_macro6bridge14selfless_reify31reify_to_extern_c_fn_hrt_bridge7wrapper17h3f06a5528ed40dc8E, symObjAddr: 0x0, symBinAddr: 0x20FE0, symSize: 0x20 }
  - { offsetInCU: 0x27A, offset: 0xB4B3F, size: 0x8, addend: 0x0, symName: __ZN10proc_macro6bridge14selfless_reify31reify_to_extern_c_fn_hrt_bridge7wrapper17h971e328356c7412aE, symObjAddr: 0x20, symBinAddr: 0x21000, symSize: 0x20 }
  - { offsetInCU: 0x2F2, offset: 0xB4BB7, size: 0x8, addend: 0x0, symName: __ZN10proc_macro6bridge14selfless_reify31reify_to_extern_c_fn_hrt_bridge7wrapper17hc53348bb58ec2285E, symObjAddr: 0x40, symBinAddr: 0x21020, symSize: 0x20 }
  - { offsetInCU: 0x1E, offset: 0xB4DDE, size: 0x8, addend: 0x0, symName: '__ZN77_$LT$$LP$A$C$B$RP$$u20$as$u20$proc_macro..bridge..rpc..DecodeMut$LT$S$GT$$GT$6decode17h446ff0829c1b63d4E', symObjAddr: 0x0, symBinAddr: 0x21040, symSize: 0xD6 }
  - { offsetInCU: 0xB0, offset: 0xB4E70, size: 0x8, addend: 0x0, symName: '__ZN77_$LT$$LP$A$C$B$RP$$u20$as$u20$proc_macro..bridge..rpc..DecodeMut$LT$S$GT$$GT$6decode17h446ff0829c1b63d4E', symObjAddr: 0x0, symBinAddr: 0x21040, symSize: 0xD6 }
  - { offsetInCU: 0x1E, offset: 0xB5FE3, size: 0x8, addend: 0x0, symName: '__ZN4core3ptr100drop_in_place$LT$core..option..Option$LT$alloc..boxed..Box$LT$syn..generics..LifetimeDef$GT$$GT$$GT$17haf60dc6c88ec5ae2E', symObjAddr: 0x0, symBinAddr: 0x21170, symSize: 0x50 }
  - { offsetInCU: 0x1DD7, offset: 0xB7D9C, size: 0x8, addend: 0x0, symName: '__ZN4core3ptr100drop_in_place$LT$core..option..Option$LT$alloc..boxed..Box$LT$syn..generics..LifetimeDef$GT$$GT$$GT$17haf60dc6c88ec5ae2E', symObjAddr: 0x0, symBinAddr: 0x21170, symSize: 0x50 }
  - { offsetInCU: 0x1F68, offset: 0xB7F2D, size: 0x8, addend: 0x0, symName: '__ZN4core3ptr100drop_in_place$LT$core..option..Option$LT$alloc..boxed..Box$LT$syn..path..GenericArgument$GT$$GT$$GT$17hc252105a81f5aaccE', symObjAddr: 0x50, symBinAddr: 0x211C0, symSize: 0x50 }
  - { offsetInCU: 0x20F9, offset: 0xB80BE, size: 0x8, addend: 0x0, symName: '__ZN4core3ptr101drop_in_place$LT$core..option..Option$LT$alloc..boxed..Box$LT$syn..generics..GenericParam$GT$$GT$$GT$17h71fa2df5a605d79bE', symObjAddr: 0xA0, symBinAddr: 0x21210, symSize: 0x50 }
  - { offsetInCU: 0x23C0, offset: 0xB8385, size: 0x8, addend: 0x0, symName: '__ZN4core3ptr102drop_in_place$LT$syn..punctuated..Punctuated$LT$syn..generics..LifetimeDef$C$syn..token..Comma$GT$$GT$17hf1ab22fbbdf2a4b6E', symObjAddr: 0xF0, symBinAddr: 0x21260, symSize: 0x170 }
  - { offsetInCU: 0x2866, offset: 0xB882B, size: 0x8, addend: 0x0, symName: '__ZN4core3ptr102drop_in_place$LT$syn..punctuated..Punctuated$LT$syn..path..GenericArgument$C$syn..token..Comma$GT$$GT$17ha250cdf075e57523E.llvm.9337266652465477902', symObjAddr: 0x260, symBinAddr: 0x213D0, symSize: 0xF0 }
  - { offsetInCU: 0x2BCB, offset: 0xB8B90, size: 0x8, addend: 0x0, symName: '__ZN4core3ptr103drop_in_place$LT$core..option..Option$LT$alloc..boxed..Box$LT$syn..generics..TypeParamBound$GT$$GT$$GT$17hc65840d774ac2c1dE', symObjAddr: 0x350, symBinAddr: 0x214C0, symSize: 0xA0 }
  - { offsetInCU: 0x2EC1, offset: 0xB8E86, size: 0x8, addend: 0x0, symName: '__ZN4core3ptr103drop_in_place$LT$core..option..Option$LT$alloc..boxed..Box$LT$syn..generics..WherePredicate$GT$$GT$$GT$17hb598791fb8d6337aE', symObjAddr: 0x3F0, symBinAddr: 0x21560, symSize: 0x50 }
  - { offsetInCU: 0x30ED, offset: 0xB90B2, size: 0x8, addend: 0x0, symName: '__ZN4core3ptr103drop_in_place$LT$syn..punctuated..Punctuated$LT$syn..generics..GenericParam$C$syn..token..Comma$GT$$GT$17h1cdfc93db8b3275fE', symObjAddr: 0x440, symBinAddr: 0x215B0, symSize: 0x1A0 }
  - { offsetInCU: 0x369D, offset: 0xB9662, size: 0x8, addend: 0x0, symName: '__ZN4core3ptr103drop_in_place$LT$syn..punctuated..Punctuated$LT$syn..generics..TypeParamBound$C$syn..token..Add$GT$$GT$17h2fff12cdcee65836E', symObjAddr: 0x5E0, symBinAddr: 0x21750, symSize: 0x2D0 }
  - { offsetInCU: 0x439A, offset: 0xBA35F, size: 0x8, addend: 0x0, symName: '__ZN4core3ptr105drop_in_place$LT$syn..punctuated..Punctuated$LT$syn..generics..WherePredicate$C$syn..token..Comma$GT$$GT$17h480fbd4b31c79d67E', symObjAddr: 0x8B0, symBinAddr: 0x21A20, symSize: 0x190 }
  - { offsetInCU: 0x49CD, offset: 0xBA992, size: 0x8, addend: 0x0, symName: '__ZN4core3ptr108drop_in_place$LT$syn..punctuated..Punctuated$LT$syn..expr..GenericMethodArgument$C$syn..token..Comma$GT$$GT$17h6ef3c195ed34484eE', symObjAddr: 0xA40, symBinAddr: 0x21BB0, symSize: 0x160 }
  - { offsetInCU: 0x4E66, offset: 0xBAE2B, size: 0x8, addend: 0x0, symName: '__ZN4core3ptr126drop_in_place$LT$core..option..Option$LT$$LP$syn..token..And$C$core..option..Option$LT$syn..lifetime..Lifetime$GT$$RP$$GT$$GT$17h456c15690ef1beb4E', symObjAddr: 0xBA0, symBinAddr: 0x21D10, symSize: 0x30 }
  - { offsetInCU: 0x50F6, offset: 0xBB0BB, size: 0x8, addend: 0x0, symName: '__ZN4core3ptr33drop_in_place$LT$syn..ty..Abi$GT$17he7af79d2afcae285E', symObjAddr: 0xBD0, symBinAddr: 0x21D40, symSize: 0x60 }
  - { offsetInCU: 0x5112, offset: 0xBB0D7, size: 0x8, addend: 0x0, symName: '__ZN4core3ptr33drop_in_place$LT$syn..ty..Abi$GT$17he7af79d2afcae285E', symObjAddr: 0xBD0, symBinAddr: 0x21D40, symSize: 0x60 }
  - { offsetInCU: 0x540C, offset: 0xBB3D1, size: 0x8, addend: 0x0, symName: '__ZN4core3ptr34drop_in_place$LT$syn..lit..Lit$GT$17hee2f82903d687132E.llvm.9337266652465477902', symObjAddr: 0xC30, symBinAddr: 0x21DA0, symSize: 0x110 }
  - { offsetInCU: 0x58AB, offset: 0xBB870, size: 0x8, addend: 0x0, symName: '__ZN4core3ptr34drop_in_place$LT$syn..pat..Pat$GT$17h9642b816727132c0E.llvm.9337266652465477902', symObjAddr: 0xD40, symBinAddr: 0x21EB0, symSize: 0x620 }
  - { offsetInCU: 0x689A, offset: 0xBC85F, size: 0x8, addend: 0x0, symName: '__ZN4core3ptr34drop_in_place$LT$syn..ty..Type$GT$17h17110bcf09425612E.llvm.9337266652465477902', symObjAddr: 0x1360, symBinAddr: 0x224D0, symSize: 0x400 }
  - { offsetInCU: 0x75FA, offset: 0xBD5BF, size: 0x8, addend: 0x0, symName: '__ZN4core3ptr35drop_in_place$LT$syn..expr..Arm$GT$17hc504037fdeb30b44E.llvm.9337266652465477902', symObjAddr: 0x1760, symBinAddr: 0x228D0, symSize: 0x140 }
  - { offsetInCU: 0x7CA9, offset: 0xBDC6E, size: 0x8, addend: 0x0, symName: '__ZN4core3ptr36drop_in_place$LT$syn..attr..Meta$GT$17h3b47d4c7200d627fE.llvm.9337266652465477902', symObjAddr: 0x18A0, symBinAddr: 0x22A10, symSize: 0x180 }
  - { offsetInCU: 0x864A, offset: 0xBE60F, size: 0x8, addend: 0x0, symName: '__ZN4core3ptr36drop_in_place$LT$syn..expr..Expr$GT$17hc4cf9f2da953f7b6E.llvm.9337266652465477902', symObjAddr: 0x1A20, symBinAddr: 0x22B90, symSize: 0x14B0 }
  - { offsetInCU: 0xC016, offset: 0xC1FDB, size: 0x8, addend: 0x0, symName: '__ZN4core3ptr36drop_in_place$LT$syn..item..Item$GT$17hc615f84f99cfe3f0E.llvm.9337266652465477902', symObjAddr: 0x2ED0, symBinAddr: 0x24040, symSize: 0x1030 }
  - { offsetInCU: 0xEE39, offset: 0xC4DFE, size: 0x8, addend: 0x0, symName: '__ZN4core3ptr36drop_in_place$LT$syn..mac..Macro$GT$17h7382e7f6266bdf74E', symObjAddr: 0x3F00, symBinAddr: 0x25070, symSize: 0xE0 }
  - { offsetInCU: 0xF1BF, offset: 0xC5184, size: 0x8, addend: 0x0, symName: '__ZN4core3ptr36drop_in_place$LT$syn..path..Path$GT$17h9df5dc377aaa16f0E.llvm.9337266652465477902', symObjAddr: 0x3FE0, symBinAddr: 0x25150, symSize: 0x160 }
  - { offsetInCU: 0xF72E, offset: 0xC56F3, size: 0x8, addend: 0x0, symName: '__ZN4core3ptr36drop_in_place$LT$syn..stmt..Stmt$GT$17h153b4b1c7ad1e202E.llvm.9337266652465477902', symObjAddr: 0x4140, symBinAddr: 0x252B0, symSize: 0xE0 }
  - { offsetInCU: 0xF926, offset: 0xC58EB, size: 0x8, addend: 0x0, symName: '__ZN4core3ptr37drop_in_place$LT$syn..data..Field$GT$17h4d1d90129f1bfb86E.llvm.9337266652465477902', symObjAddr: 0x4220, symBinAddr: 0x25390, symSize: 0x130 }
  - { offsetInCU: 0xFEA9, offset: 0xC5E6E, size: 0x8, addend: 0x0, symName: '__ZN4core3ptr37drop_in_place$LT$syn..item..FnArg$GT$17h9a2457b39925215bE', symObjAddr: 0x4350, symBinAddr: 0x254C0, symSize: 0x110 }
  - { offsetInCU: 0x102EE, offset: 0xC62B3, size: 0x8, addend: 0x0, symName: '__ZN4core3ptr37drop_in_place$LT$syn..stmt..Block$GT$17h884784405b623f24E', symObjAddr: 0x4460, symBinAddr: 0x255D0, symSize: 0xD0 }
  - { offsetInCU: 0x10592, offset: 0xC6557, size: 0x8, addend: 0x0, symName: '__ZN4core3ptr38drop_in_place$LT$syn..expr..Member$GT$17h0a109b5f798e4f34E.llvm.9337266652465477902', symObjAddr: 0x4530, symBinAddr: 0x256A0, symSize: 0x0 }
  - { offsetInCU: 0x1068F, offset: 0xC6654, size: 0x8, addend: 0x0, symName: '__ZN4core3ptr38drop_in_place$LT$syn..pat..PatType$GT$17h4104cce1daa2264bE', symObjAddr: 0x4560, symBinAddr: 0x256D0, symSize: 0x100 }
  - { offsetInCU: 0x10BC6, offset: 0xC6B8B, size: 0x8, addend: 0x0, symName: '__ZN4core3ptr38drop_in_place$LT$syn..ty..Variadic$GT$17h6cf7d3398c4825e0E', symObjAddr: 0x4660, symBinAddr: 0x257D0, symSize: 0x80 }
  - { offsetInCU: 0x10E59, offset: 0xC6E1E, size: 0x8, addend: 0x0, symName: '__ZN4core3ptr39drop_in_place$LT$proc_macro2..Ident$GT$17hf022d848e46454f0E.llvm.9337266652465477902', symObjAddr: 0x46E0, symBinAddr: 0x25850, symSize: 0x30 }
  - { offsetInCU: 0x10F94, offset: 0xC6F59, size: 0x8, addend: 0x0, symName: '__ZN4core3ptr39drop_in_place$LT$syn..data..Variant$GT$17hfb0acb82f15f67c6E', symObjAddr: 0x4710, symBinAddr: 0x25880, symSize: 0x2B0 }
  - { offsetInCU: 0x11B74, offset: 0xC7B39, size: 0x8, addend: 0x0, symName: '__ZN4core3ptr39drop_in_place$LT$syn..item..UseTree$GT$17hf73c98186a11735fE', symObjAddr: 0x49C0, symBinAddr: 0x25B30, symSize: 0x1E0 }
  - { offsetInCU: 0x12316, offset: 0xC82DB, size: 0x8, addend: 0x0, symName: '__ZN4core3ptr39drop_in_place$LT$syn..pat..PatTuple$GT$17h5ccd7496006be700E', symObjAddr: 0x4BA0, symBinAddr: 0x25D10, symSize: 0x180 }
  - { offsetInCU: 0x12A18, offset: 0xC89DD, size: 0x8, addend: 0x0, symName: '__ZN4core3ptr40drop_in_place$LT$syn..attr..MetaList$GT$17hd061b92459d9285dE.llvm.9337266652465477902', symObjAddr: 0x4D20, symBinAddr: 0x25E90, symSize: 0x180 }
  - { offsetInCU: 0x12EAD, offset: 0xC8E72, size: 0x8, addend: 0x0, symName: '__ZN4core3ptr40drop_in_place$LT$syn..item..ImplItem$GT$17hbf11b2ba30f0d1bbE', symObjAddr: 0x4EA0, symBinAddr: 0x26010, symSize: 0x1C0 }
  - { offsetInCU: 0x131E5, offset: 0xC91AA, size: 0x8, addend: 0x0, symName: '__ZN4core3ptr40drop_in_place$LT$syn..ty..ReturnType$GT$17hd1b87db4c1901abfE.llvm.9337266652465477902', symObjAddr: 0x5060, symBinAddr: 0x261D0, symSize: 0x50 }
  - { offsetInCU: 0x13357, offset: 0xC931C, size: 0x8, addend: 0x0, symName: '__ZN4core3ptr41drop_in_place$LT$syn..attr..Attribute$GT$17h09228f1ea7248bb8E.llvm.9337266652465477902', symObjAddr: 0x50B0, symBinAddr: 0x26220, symSize: 0x40 }
  - { offsetInCU: 0x134C7, offset: 0xC948C, size: 0x8, addend: 0x0, symName: '__ZN4core3ptr41drop_in_place$LT$syn..item..Signature$GT$17h8286fbe6ba553251E', symObjAddr: 0x50F0, symBinAddr: 0x26260, symSize: 0x2C0 }
  - { offsetInCU: 0x141EB, offset: 0xCA1B0, size: 0x8, addend: 0x0, symName: '__ZN4core3ptr41drop_in_place$LT$syn..item..TraitItem$GT$17h35918a994ed4bc3cE', symObjAddr: 0x53B0, symBinAddr: 0x26520, symSize: 0x2C0 }
  - { offsetInCU: 0x148C3, offset: 0xCA888, size: 0x8, addend: 0x0, symName: '__ZN4core3ptr43drop_in_place$LT$proc_macro2..TokenTree$GT$17hb049bb0dc2cbd530E.llvm.9337266652465477902', symObjAddr: 0x56E0, symBinAddr: 0x267E0, symSize: 0xB0 }
  - { offsetInCU: 0x14BD7, offset: 0xCAB9C, size: 0x8, addend: 0x0, symName: '__ZN4core3ptr43drop_in_place$LT$syn..data..FieldsNamed$GT$17hd1c8b702b2f08324E', symObjAddr: 0x5790, symBinAddr: 0x26890, symSize: 0x120 }
  - { offsetInCU: 0x1507E, offset: 0xCB043, size: 0x8, addend: 0x0, symName: '__ZN4core3ptr43drop_in_place$LT$syn..item..ForeignItem$GT$17h016e61a88ad92e11E', symObjAddr: 0x58B0, symBinAddr: 0x269B0, symSize: 0x2B0 }
  - { offsetInCU: 0x15613, offset: 0xCB5D8, size: 0x8, addend: 0x0, symName: '__ZN4core3ptr43drop_in_place$LT$syn..path..PathSegment$GT$17hf37836be3a953232E', symObjAddr: 0x5B60, symBinAddr: 0x26C60, symSize: 0x170 }
  - { offsetInCU: 0x15BD6, offset: 0xCBB9B, size: 0x8, addend: 0x0, symName: '__ZN4core3ptr44drop_in_place$LT$syn..generics..Generics$GT$17h2c994026bd184aecE', symObjAddr: 0x5CD0, symBinAddr: 0x26DD0, symSize: 0x220 }
  - { offsetInCU: 0x16453, offset: 0xCC418, size: 0x8, addend: 0x0, symName: '__ZN4core3ptr44drop_in_place$LT$syn..item..ImplItemType$GT$17h012a982df6af5afbE', symObjAddr: 0x5EF0, symBinAddr: 0x26FF0, symSize: 0x170 }
  - { offsetInCU: 0x169F9, offset: 0xCC9BE, size: 0x8, addend: 0x0, symName: '__ZN4core3ptr44drop_in_place$LT$syn..lifetime..Lifetime$GT$17he8d28058fb9f64b7E.llvm.9337266652465477902', symObjAddr: 0x6060, symBinAddr: 0x27160, symSize: 0x30 }
  - { offsetInCU: 0x16B53, offset: 0xCCB18, size: 0x8, addend: 0x0, symName: '__ZN4core3ptr45drop_in_place$LT$proc_macro2..TokenStream$GT$17h5032ab08a6fc600dE.llvm.9337266652465477902', symObjAddr: 0x6090, symBinAddr: 0x27190, symSize: 0x70 }
  - { offsetInCU: 0x16C9B, offset: 0xCCC60, size: 0x8, addend: 0x0, symName: '__ZN4core3ptr45drop_in_place$LT$syn..data..VisRestricted$GT$17hfe6083f8c729a0feE.llvm.9337266652465477902', symObjAddr: 0x6100, symBinAddr: 0x27200, symSize: 0x50 }
  - { offsetInCU: 0x16E53, offset: 0xCCE18, size: 0x8, addend: 0x0, symName: '__ZN4core3ptr45drop_in_place$LT$syn..generics..TypeParam$GT$17h4788a9ebf918df1dE.llvm.9337266652465477902', symObjAddr: 0x6150, symBinAddr: 0x27250, symSize: 0x1E0 }
  - { offsetInCU: 0x17773, offset: 0xCD738, size: 0x8, addend: 0x0, symName: '__ZN4core3ptr45drop_in_place$LT$syn..item..ImplItemConst$GT$17h7a3303dccd1b0ec1E', symObjAddr: 0x6330, symBinAddr: 0x27430, symSize: 0x150 }
  - { offsetInCU: 0x17CD6, offset: 0xCDC9B, size: 0x8, addend: 0x0, symName: '__ZN4core3ptr45drop_in_place$LT$syn..item..TraitItemType$GT$17h6b1527dcec0e8fefE', symObjAddr: 0x6480, symBinAddr: 0x27580, symSize: 0x230 }
  - { offsetInCU: 0x186DC, offset: 0xCE6A1, size: 0x8, addend: 0x0, symName: '__ZN4core3ptr46drop_in_place$LT$syn..generics..ConstParam$GT$17he67808a1ef427c38E.llvm.9337266652465477902', symObjAddr: 0x66B0, symBinAddr: 0x277B0, symSize: 0x110 }
  - { offsetInCU: 0x18A9B, offset: 0xCEA60, size: 0x8, addend: 0x0, symName: '__ZN4core3ptr46drop_in_place$LT$syn..item..ImplItemMethod$GT$17hd3695720f3529cc1E', symObjAddr: 0x67C0, symBinAddr: 0x278C0, symSize: 0x1D0 }
  - { offsetInCU: 0x19186, offset: 0xCF14B, size: 0x8, addend: 0x0, symName: '__ZN4core3ptr46drop_in_place$LT$syn..item..TraitItemConst$GT$17he959c6845aab2354E', symObjAddr: 0x6990, symBinAddr: 0x27A90, symSize: 0xF0 }
  - { offsetInCU: 0x19578, offset: 0xCF53D, size: 0x8, addend: 0x0, symName: '__ZN4core3ptr47drop_in_place$LT$syn..generics..LifetimeDef$GT$17h5418c9d3ab393c4eE.llvm.9337266652465477902', symObjAddr: 0x6A80, symBinAddr: 0x27B80, symSize: 0xB0 }
  - { offsetInCU: 0x19910, offset: 0xCF8D5, size: 0x8, addend: 0x0, symName: '__ZN4core3ptr47drop_in_place$LT$syn..generics..WhereClause$GT$17hd419b7475d21a614E', symObjAddr: 0x6B30, symBinAddr: 0x27C30, symSize: 0x120 }
  - { offsetInCU: 0x19D98, offset: 0xCFD5D, size: 0x8, addend: 0x0, symName: '__ZN4core3ptr47drop_in_place$LT$syn..path..GenericArgument$GT$17hc1e86ee1a97fb805E', symObjAddr: 0x6C50, symBinAddr: 0x27D50, symSize: 0xE0 }
  - { offsetInCU: 0x1A0B2, offset: 0xD0077, size: 0x8, addend: 0x0, symName: '__ZN4core3ptr48drop_in_place$LT$syn..generics..GenericParam$GT$17h6a1896f069255456E', symObjAddr: 0x6D30, symBinAddr: 0x27E30, symSize: 0xA0 }
  - { offsetInCU: 0x1A1E5, offset: 0xD01AA, size: 0x8, addend: 0x0, symName: '__ZN4core3ptr49drop_in_place$LT$syn..generics..PredicateType$GT$17hf673eee306bbac3aE.llvm.9337266652465477902', symObjAddr: 0x6DD0, symBinAddr: 0x27ED0, symSize: 0x230 }
  - { offsetInCU: 0x1AB58, offset: 0xD0B1D, size: 0x8, addend: 0x0, symName: '__ZN4core3ptr49drop_in_place$LT$syn..item..ForeignItemStatic$GT$17h68d8db9798d17669E', symObjAddr: 0x7000, symBinAddr: 0x28100, symSize: 0x140 }
  - { offsetInCU: 0x1B1EC, offset: 0xD11B1, size: 0x8, addend: 0x0, symName: '__ZN4core3ptr50drop_in_place$LT$$u5b$syn..item..ImplItem$u5d$$GT$17h62e0d95424cc127dE', symObjAddr: 0x7140, symBinAddr: 0x28240, symSize: 0x1E0 }
  - { offsetInCU: 0x1B455, offset: 0xD141A, size: 0x8, addend: 0x0, symName: '__ZN4core3ptr50drop_in_place$LT$syn..generics..BoundLifetimes$GT$17h02bdcff2d99ec981E', symObjAddr: 0x7320, symBinAddr: 0x28420, symSize: 0x110 }
  - { offsetInCU: 0x1B89F, offset: 0xD1864, size: 0x8, addend: 0x0, symName: '__ZN4core3ptr50drop_in_place$LT$syn..generics..TypeParamBound$GT$17h021bc5e7ec12286fE', symObjAddr: 0x7430, symBinAddr: 0x28530, symSize: 0x80 }
  - { offsetInCU: 0x1BA25, offset: 0xD19EA, size: 0x8, addend: 0x0, symName: '__ZN4core3ptr50drop_in_place$LT$syn..generics..WherePredicate$GT$17h3702aeb82e293d6aE', symObjAddr: 0x74B0, symBinAddr: 0x285B0, symSize: 0xE0 }
  - { offsetInCU: 0x1BBDB, offset: 0xD1BA0, size: 0x8, addend: 0x0, symName: '__ZN4core3ptr51drop_in_place$LT$$u5b$syn..attr..Attribute$u5d$$GT$17hcd0c196f64b91f8dE.llvm.9337266652465477902', symObjAddr: 0x7590, symBinAddr: 0x28690, symSize: 0x1C0 }
  - { offsetInCU: 0x1BF44, offset: 0xD1F09, size: 0x8, addend: 0x0, symName: '__ZN4core3ptr51drop_in_place$LT$$u5b$syn..item..TraitItem$u5d$$GT$17hb7b7049b73870d80E', symObjAddr: 0x7750, symBinAddr: 0x28850, symSize: 0x450 }
  - { offsetInCU: 0x1C8E9, offset: 0xD28AE, size: 0x8, addend: 0x0, symName: '__ZN4core3ptr53drop_in_place$LT$$u5b$syn..item..ForeignItem$u5d$$GT$17h9272785cd2997d00E', symObjAddr: 0x7BA0, symBinAddr: 0x28CA0, symSize: 0x3A0 }
  - { offsetInCU: 0x1D342, offset: 0xD3307, size: 0x8, addend: 0x0, symName: '__ZN4core3ptr58drop_in_place$LT$alloc..vec..Vec$LT$syn..expr..Arm$GT$$GT$17h051ffa58778d7296E', symObjAddr: 0x7F40, symBinAddr: 0x29040, symSize: 0xD0 }
  - { offsetInCU: 0x1D5CF, offset: 0xD3594, size: 0x8, addend: 0x0, symName: '__ZN4core3ptr59drop_in_place$LT$alloc..boxed..Box$LT$syn..pat..Pat$GT$$GT$17hb95c8dd383daa025E.llvm.9337266652465477902', symObjAddr: 0x8010, symBinAddr: 0x29110, symSize: 0x50 }
  - { offsetInCU: 0x1D72A, offset: 0xD36EF, size: 0x8, addend: 0x0, symName: '__ZN4core3ptr59drop_in_place$LT$alloc..boxed..Box$LT$syn..ty..Type$GT$$GT$17hb66c25dc63fb6cf9E', symObjAddr: 0x8060, symBinAddr: 0x29160, symSize: 0x50 }
  - { offsetInCU: 0x1D885, offset: 0xD384A, size: 0x8, addend: 0x0, symName: '__ZN4core3ptr59drop_in_place$LT$alloc..vec..Vec$LT$syn..item..Item$GT$$GT$17h7d8dc702e2134801E', symObjAddr: 0x80B0, symBinAddr: 0x291B0, symSize: 0xD0 }
  - { offsetInCU: 0x1DB12, offset: 0xD3AD7, size: 0x8, addend: 0x0, symName: '__ZN4core3ptr61drop_in_place$LT$alloc..boxed..Box$LT$syn..expr..Expr$GT$$GT$17h23079cbc45f16a79E.llvm.9337266652465477902', symObjAddr: 0x8180, symBinAddr: 0x29280, symSize: 0x50 }
  - { offsetInCU: 0x1DC6D, offset: 0xD3C32, size: 0x8, addend: 0x0, symName: '__ZN4core3ptr61drop_in_place$LT$alloc..boxed..Box$LT$syn..path..Path$GT$$GT$17ha1920f36ea54716dE', symObjAddr: 0x81D0, symBinAddr: 0x292D0, symSize: 0x100 }
  - { offsetInCU: 0x1E153, offset: 0xD4118, size: 0x8, addend: 0x0, symName: '__ZN4core3ptr61drop_in_place$LT$syn..path..ParenthesizedGenericArguments$GT$17h1b1d238719e9578dE', symObjAddr: 0x82D0, symBinAddr: 0x293D0, symSize: 0x170 }
  - { offsetInCU: 0x1E71A, offset: 0xD46DF, size: 0x8, addend: 0x0, symName: '__ZN4core3ptr62drop_in_place$LT$alloc..boxed..Box$LT$syn..data..Field$GT$$GT$17hbc543257d170a8e2E', symObjAddr: 0x8440, symBinAddr: 0x29540, symSize: 0x50 }
  - { offsetInCU: 0x1E894, offset: 0xD4859, size: 0x8, addend: 0x0, symName: '__ZN4core3ptr62drop_in_place$LT$alloc..boxed..Box$LT$syn..item..FnArg$GT$$GT$17h015bfa184d5da2daE', symObjAddr: 0x8490, symBinAddr: 0x29590, symSize: 0xD0 }
  - { offsetInCU: 0x1EDE5, offset: 0xD4DAA, size: 0x8, addend: 0x0, symName: '__ZN4core3ptr62drop_in_place$LT$alloc..boxed..Box$LT$syn..stmt..Block$GT$$GT$17hbd09121fa5a0b49dE', symObjAddr: 0x8560, symBinAddr: 0x29660, symSize: 0xE0 }
  - { offsetInCU: 0x1F1C6, offset: 0xD518B, size: 0x8, addend: 0x0, symName: '__ZN4core3ptr62drop_in_place$LT$syn..path..AngleBracketedGenericArguments$GT$17h4575f4dd86f540d3E', symObjAddr: 0x8640, symBinAddr: 0x29740, symSize: 0x120 }
  - { offsetInCU: 0x1F610, offset: 0xD55D5, size: 0x8, addend: 0x0, symName: '__ZN4core3ptr63drop_in_place$LT$alloc..vec..Vec$LT$syn..item..ImplItem$GT$$GT$17hf08ba7d98208699dE', symObjAddr: 0x8760, symBinAddr: 0x29860, symSize: 0x80 }
  - { offsetInCU: 0x1F88E, offset: 0xD5853, size: 0x8, addend: 0x0, symName: '__ZN4core3ptr64drop_in_place$LT$alloc..boxed..Box$LT$syn..data..Variant$GT$$GT$17h17247fce9ef2efb9E', symObjAddr: 0x87E0, symBinAddr: 0x298E0, symSize: 0x50 }
  - { offsetInCU: 0x1F9E9, offset: 0xD59AE, size: 0x8, addend: 0x0, symName: '__ZN4core3ptr64drop_in_place$LT$alloc..boxed..Box$LT$syn..item..UseTree$GT$$GT$17h980cbbdceebbfcffE', symObjAddr: 0x8830, symBinAddr: 0x29930, symSize: 0x50 }
  - { offsetInCU: 0x1FB82, offset: 0xD5B47, size: 0x8, addend: 0x0, symName: '__ZN4core3ptr64drop_in_place$LT$alloc..boxed..Box$LT$syn..pat..FieldPat$GT$$GT$17hb8a30bb394a22f81E', symObjAddr: 0x8880, symBinAddr: 0x29980, symSize: 0x180 }
  - { offsetInCU: 0x20219, offset: 0xD61DE, size: 0x8, addend: 0x0, symName: '__ZN4core3ptr64drop_in_place$LT$alloc..boxed..Box$LT$syn..ty..BareFnArg$GT$$GT$17hf6bb0270d59fbf31E', symObjAddr: 0x8A00, symBinAddr: 0x29B00, symSize: 0x90 }
  - { offsetInCU: 0x204B4, offset: 0xD6479, size: 0x8, addend: 0x0, symName: '__ZN4core3ptr64drop_in_place$LT$alloc..vec..Vec$LT$syn..attr..Attribute$GT$$GT$17he61f4f6bebe1fee0E.llvm.9337266652465477902', symObjAddr: 0x8A90, symBinAddr: 0x29B90, symSize: 0xF0 }
  - { offsetInCU: 0x2074E, offset: 0xD6713, size: 0x8, addend: 0x0, symName: '__ZN4core3ptr64drop_in_place$LT$alloc..vec..Vec$LT$syn..item..TraitItem$GT$$GT$17he314ce2e4b6084e7E', symObjAddr: 0x8B80, symBinAddr: 0x29C80, symSize: 0x80 }
  - { offsetInCU: 0x209CC, offset: 0xD6991, size: 0x8, addend: 0x0, symName: '__ZN4core3ptr65drop_in_place$LT$$LP$syn..item..FnArg$C$syn..token..Comma$RP$$GT$17h0d9be0c30790a3bcE', symObjAddr: 0x8C00, symBinAddr: 0x29D00, symSize: 0xD0 }
  - { offsetInCU: 0x20E4C, offset: 0xD6E11, size: 0x8, addend: 0x0, symName: '__ZN4core3ptr65drop_in_place$LT$alloc..vec..Vec$LT$proc_macro..TokenTree$GT$$GT$17h58ff4cb936eb135cE.llvm.9337266652465477902', symObjAddr: 0x8CD0, symBinAddr: 0x29DD0, symSize: 0x120 }
  - { offsetInCU: 0x211BE, offset: 0xD7183, size: 0x8, addend: 0x0, symName: '__ZN4core3ptr65drop_in_place$LT$core..option..Option$LT$syn..expr..Label$GT$$GT$17h4f866e7c88780dd9E', symObjAddr: 0x8DF0, symBinAddr: 0x29EF0, symSize: 0x30 }
  - { offsetInCU: 0x212F9, offset: 0xD72BE, size: 0x8, addend: 0x0, symName: '__ZN4core3ptr65drop_in_place$LT$core..option..Option$LT$syn..stmt..Block$GT$$GT$17h794b3391a3b07147E', symObjAddr: 0x8E20, symBinAddr: 0x29F20, symSize: 0xE0 }
  - { offsetInCU: 0x2155E, offset: 0xD7523, size: 0x8, addend: 0x0, symName: '__ZN4core3ptr66drop_in_place$LT$alloc..vec..Vec$LT$syn..item..ForeignItem$GT$$GT$17h2054031f071f635aE', symObjAddr: 0x8F00, symBinAddr: 0x2A000, symSize: 0x80 }
  - { offsetInCU: 0x217DC, offset: 0xD77A1, size: 0x8, addend: 0x0, symName: '__ZN4core3ptr67drop_in_place$LT$$LP$syn..pat..FieldPat$C$syn..token..Comma$RP$$GT$17hc8998a146863a37aE.llvm.9337266652465477902', symObjAddr: 0x8F80, symBinAddr: 0x2A080, symSize: 0xF0 }
  - { offsetInCU: 0x21CF0, offset: 0xD7CB5, size: 0x8, addend: 0x0, symName: '__ZN4core3ptr67drop_in_place$LT$$LP$syn..ty..BareFnArg$C$syn..token..Comma$RP$$GT$17hd7c1f52b1f40adc0E.llvm.9337266652465477902', symObjAddr: 0x9070, symBinAddr: 0x2A170, symSize: 0x70 }
  - { offsetInCU: 0x21E42, offset: 0xD7E07, size: 0x8, addend: 0x0, symName: '__ZN4core3ptr67drop_in_place$LT$alloc..boxed..Box$LT$syn..attr..NestedMeta$GT$$GT$17h3ae6eeb9febcbecaE.llvm.9337266652465477902', symObjAddr: 0x90E0, symBinAddr: 0x2A1E0, symSize: 0x140 }
  - { offsetInCU: 0x221B4, offset: 0xD8179, size: 0x8, addend: 0x0, symName: '__ZN4core3ptr67drop_in_place$LT$alloc..boxed..Box$LT$syn..expr..FieldValue$GT$$GT$17h8173ed949e87d358E', symObjAddr: 0x9220, symBinAddr: 0x2A320, symSize: 0xA0 }
  - { offsetInCU: 0x2245A, offset: 0xD841F, size: 0x8, addend: 0x0, symName: '__ZN4core3ptr68drop_in_place$LT$alloc..boxed..Box$LT$syn..path..PathSegment$GT$$GT$17hcff6b5a6febc0378E', symObjAddr: 0x92C0, symBinAddr: 0x2A3C0, symSize: 0xD0 }
  - { offsetInCU: 0x22858, offset: 0xD881D, size: 0x8, addend: 0x0, symName: '__ZN4core3ptr70drop_in_place$LT$$LP$syn..attr..NestedMeta$C$syn..token..Comma$RP$$GT$17hf83f35b8126cab8fE.llvm.9337266652465477902', symObjAddr: 0x9390, symBinAddr: 0x2A490, symSize: 0x20 }
  - { offsetInCU: 0x22894, offset: 0xD8859, size: 0x8, addend: 0x0, symName: '__ZN4core3ptr70drop_in_place$LT$$LP$syn..expr..FieldValue$C$syn..token..Comma$RP$$GT$17h357e2dabc46bd4d7E.llvm.9337266652465477902', symObjAddr: 0x93B0, symBinAddr: 0x2A4B0, symSize: 0x80 }
  - { offsetInCU: 0x229D2, offset: 0xD8997, size: 0x8, addend: 0x0, symName: '__ZN4core3ptr72drop_in_place$LT$$LP$syn..path..PathSegment$C$syn..token..Colon2$RP$$GT$17h408a2773c9243cf7E.llvm.9337266652465477902', symObjAddr: 0x9430, symBinAddr: 0x2A530, symSize: 0xC0 }
  - { offsetInCU: 0x22C98, offset: 0xD8C5D, size: 0x8, addend: 0x0, symName: '__ZN4core3ptr72drop_in_place$LT$alloc..boxed..Box$LT$syn..generics..LifetimeDef$GT$$GT$17hb60e934b83d9504dE', symObjAddr: 0x94F0, symBinAddr: 0x2A5F0, symSize: 0x80 }
  - { offsetInCU: 0x22F47, offset: 0xD8F0C, size: 0x8, addend: 0x0, symName: '__ZN4core3ptr72drop_in_place$LT$alloc..boxed..Box$LT$syn..path..GenericArgument$GT$$GT$17h1f8fd158b5e2d564E.llvm.9337266652465477902', symObjAddr: 0x9570, symBinAddr: 0x2A670, symSize: 0x1F0 }
  - { offsetInCU: 0x23781, offset: 0xD9746, size: 0x8, addend: 0x0, symName: '__ZN4core3ptr73drop_in_place$LT$alloc..boxed..Box$LT$syn..generics..GenericParam$GT$$GT$17h5db96d4af1d950e3E', symObjAddr: 0x9760, symBinAddr: 0x2A860, symSize: 0x80 }
  - { offsetInCU: 0x238F9, offset: 0xD98BE, size: 0x8, addend: 0x0, symName: '__ZN4core3ptr75drop_in_place$LT$$LP$syn..generics..LifetimeDef$C$syn..token..Comma$RP$$GT$17h4e40da8101cb1982E.llvm.9337266652465477902', symObjAddr: 0x97E0, symBinAddr: 0x2A8E0, symSize: 0x60 }
  - { offsetInCU: 0x23A34, offset: 0xD99F9, size: 0x8, addend: 0x0, symName: '__ZN4core3ptr75drop_in_place$LT$$LP$syn..path..GenericArgument$C$syn..token..Comma$RP$$GT$17h48cd6501bd3f35fbE.llvm.9337266652465477902', symObjAddr: 0x9840, symBinAddr: 0x2A940, symSize: 0x210 }
  - { offsetInCU: 0x24196, offset: 0xDA15B, size: 0x8, addend: 0x0, symName: '__ZN4core3ptr75drop_in_place$LT$alloc..boxed..Box$LT$syn..generics..TypeParamBound$GT$$GT$17h89cd214a1f1514f9E', symObjAddr: 0x9A50, symBinAddr: 0x2AB50, symSize: 0x140 }
  - { offsetInCU: 0x24716, offset: 0xDA6DB, size: 0x8, addend: 0x0, symName: '__ZN4core3ptr75drop_in_place$LT$alloc..boxed..Box$LT$syn..generics..WherePredicate$GT$$GT$17ha85619213b6dd183E', symObjAddr: 0x9B90, symBinAddr: 0x2AC90, symSize: 0xC0 }
  - { offsetInCU: 0x249B5, offset: 0xDA97A, size: 0x8, addend: 0x0, symName: '__ZN4core3ptr76drop_in_place$LT$$LP$syn..generics..GenericParam$C$syn..token..Comma$RP$$GT$17h5f79d3bf6274ae41E.llvm.9337266652465477902', symObjAddr: 0x9C50, symBinAddr: 0x2AD50, symSize: 0x40 }
  - { offsetInCU: 0x249F1, offset: 0xDA9B6, size: 0x8, addend: 0x0, symName: '__ZN4core3ptr76drop_in_place$LT$$LP$syn..generics..TypeParamBound$C$syn..token..Add$RP$$GT$17hd18d4f302fa8816bE.llvm.9337266652465477902', symObjAddr: 0x9C90, symBinAddr: 0x2AD90, symSize: 0x150 }
  - { offsetInCU: 0x24E3F, offset: 0xDAE04, size: 0x8, addend: 0x0, symName: '__ZN4core3ptr78drop_in_place$LT$$LP$syn..generics..WherePredicate$C$syn..token..Comma$RP$$GT$17h578985f86adadaa3E.llvm.9337266652465477902', symObjAddr: 0x9DE0, symBinAddr: 0x2AEE0, symSize: 0xA0 }
  - { offsetInCU: 0x24FB2, offset: 0xDAF77, size: 0x8, addend: 0x0, symName: '__ZN4core3ptr78drop_in_place$LT$alloc..boxed..Box$LT$syn..expr..GenericMethodArgument$GT$$GT$17h173b33014f01a5f1E', symObjAddr: 0x9E80, symBinAddr: 0x2AF80, symSize: 0x60 }
  - { offsetInCU: 0x2512A, offset: 0xDB0EF, size: 0x8, addend: 0x0, symName: '__ZN4core3ptr81drop_in_place$LT$$LP$syn..expr..GenericMethodArgument$C$syn..token..Comma$RP$$GT$17h33aa68781a6c2694E.llvm.9337266652465477902', symObjAddr: 0x9EE0, symBinAddr: 0x2AFE0, symSize: 0x20 }
  - { offsetInCU: 0x25166, offset: 0xDB12B, size: 0x8, addend: 0x0, symName: '__ZN4core3ptr86drop_in_place$LT$$LP$syn..token..If$C$alloc..boxed..Box$LT$syn..expr..Expr$GT$$RP$$GT$17h39b1110d8c9199dcE.llvm.9337266652465477902', symObjAddr: 0x9F00, symBinAddr: 0x2B000, symSize: 0x50 }
  - { offsetInCU: 0x252E0, offset: 0xDB2A5, size: 0x8, addend: 0x0, symName: '__ZN4core3ptr86drop_in_place$LT$$u5b$$LP$syn..generics..TypeParamBound$C$syn..token..Add$RP$$u5d$$GT$17h6ecef02dac56a401E', symObjAddr: 0x9F50, symBinAddr: 0x2B050, symSize: 0xD0 }
  - { offsetInCU: 0x25510, offset: 0xDB4D5, size: 0x8, addend: 0x0, symName: '__ZN4core3ptr86drop_in_place$LT$syn..punctuated..Punctuated$LT$syn..pat..Pat$C$syn..token..Or$GT$$GT$17hf56d93f226e52f9eE', symObjAddr: 0xA020, symBinAddr: 0x2B120, symSize: 0x120 }
  - { offsetInCU: 0x2596D, offset: 0xDB932, size: 0x8, addend: 0x0, symName: '__ZN4core3ptr87drop_in_place$LT$core..option..Option$LT$alloc..boxed..Box$LT$syn..pat..Pat$GT$$GT$$GT$17h2b1bf3f832c33c27E', symObjAddr: 0xA140, symBinAddr: 0x2B240, symSize: 0x50 }
  - { offsetInCU: 0x25ADF, offset: 0xDBAA4, size: 0x8, addend: 0x0, symName: '__ZN4core3ptr87drop_in_place$LT$core..option..Option$LT$alloc..boxed..Box$LT$syn..ty..Type$GT$$GT$$GT$17h8fac57c1560fcb1cE', symObjAddr: 0xA190, symBinAddr: 0x2B290, symSize: 0x50 }
  - { offsetInCU: 0x25C51, offset: 0xDBC16, size: 0x8, addend: 0x0, symName: '__ZN4core3ptr89drop_in_place$LT$core..option..Option$LT$alloc..boxed..Box$LT$syn..expr..Expr$GT$$GT$$GT$17h41e80b197dde3360E', symObjAddr: 0xA1E0, symBinAddr: 0x2B2E0, symSize: 0x50 }
  - { offsetInCU: 0x25DC3, offset: 0xDBD88, size: 0x8, addend: 0x0, symName: '__ZN4core3ptr89drop_in_place$LT$syn..punctuated..Punctuated$LT$syn..ty..Type$C$syn..token..Comma$GT$$GT$17h7f05d95cf2d9aa1dE.llvm.9337266652465477902', symObjAddr: 0xA230, symBinAddr: 0x2B330, symSize: 0x120 }
  - { offsetInCU: 0x2620D, offset: 0xDC1D2, size: 0x8, addend: 0x0, symName: '__ZN4core3ptr90drop_in_place$LT$core..option..Option$LT$alloc..boxed..Box$LT$syn..data..Field$GT$$GT$$GT$17h23383040bb7152feE', symObjAddr: 0xA350, symBinAddr: 0x2B450, symSize: 0x50 }
  - { offsetInCU: 0x2637F, offset: 0xDC344, size: 0x8, addend: 0x0, symName: '__ZN4core3ptr90drop_in_place$LT$core..option..Option$LT$alloc..boxed..Box$LT$syn..item..FnArg$GT$$GT$$GT$17h46b749340f16a8d6E', symObjAddr: 0xA3A0, symBinAddr: 0x2B4A0, symSize: 0x50 }
  - { offsetInCU: 0x2656D, offset: 0xDC532, size: 0x8, addend: 0x0, symName: '__ZN4core3ptr91drop_in_place$LT$syn..punctuated..Punctuated$LT$syn..expr..Expr$C$syn..token..Comma$GT$$GT$17h7c8b091b46816415E', symObjAddr: 0xA3F0, symBinAddr: 0x2B4F0, symSize: 0x120 }
  - { offsetInCU: 0x269CA, offset: 0xDC98F, size: 0x8, addend: 0x0, symName: '__ZN4core3ptr92drop_in_place$LT$core..option..Option$LT$$LP$syn..token..As$C$proc_macro2..Ident$RP$$GT$$GT$17h16c26618bf669b0dE', symObjAddr: 0xA510, symBinAddr: 0x2B610, symSize: 0x30 }
  - { offsetInCU: 0x26AE6, offset: 0xDCAAB, size: 0x8, addend: 0x0, symName: '__ZN4core3ptr92drop_in_place$LT$syn..punctuated..Punctuated$LT$syn..data..Field$C$syn..token..Comma$GT$$GT$17hae383a85c50988b4E', symObjAddr: 0xA540, symBinAddr: 0x2B640, symSize: 0x120 }
  - { offsetInCU: 0x26F30, offset: 0xDCEF5, size: 0x8, addend: 0x0, symName: '__ZN4core3ptr92drop_in_place$LT$syn..punctuated..Punctuated$LT$syn..item..FnArg$C$syn..token..Comma$GT$$GT$17hcc532cc07155dd6eE', symObjAddr: 0xA660, symBinAddr: 0x2B760, symSize: 0x240 }
  - { offsetInCU: 0x27AA9, offset: 0xDDA6E, size: 0x8, addend: 0x0, symName: '__ZN4core3ptr93drop_in_place$LT$alloc..vec..Vec$LT$$LP$syn..attr..NestedMeta$C$syn..token..Comma$RP$$GT$$GT$17hc01c22e79923f413E.llvm.9337266652465477902', symObjAddr: 0xA8A0, symBinAddr: 0x2B9A0, symSize: 0xE0 }
  - { offsetInCU: 0x27E1E, offset: 0xDDDE3, size: 0x8, addend: 0x0, symName: '__ZN4core3ptr94drop_in_place$LT$syn..punctuated..Punctuated$LT$syn..data..Variant$C$syn..token..Comma$GT$$GT$17h6bfa4da104baa0b5E', symObjAddr: 0xA980, symBinAddr: 0x2BA80, symSize: 0x120 }
  - { offsetInCU: 0x2827B, offset: 0xDE240, size: 0x8, addend: 0x0, symName: '__ZN4core3ptr94drop_in_place$LT$syn..punctuated..Punctuated$LT$syn..pat..FieldPat$C$syn..token..Comma$GT$$GT$17h10b28b51a5cbfdbdE', symObjAddr: 0xAAA0, symBinAddr: 0x2BBA0, symSize: 0x90 }
  - { offsetInCU: 0x2854C, offset: 0xDE511, size: 0x8, addend: 0x0, symName: '__ZN4core3ptr94drop_in_place$LT$syn..punctuated..Punctuated$LT$syn..ty..BareFnArg$C$syn..token..Comma$GT$$GT$17h61ba1f21bd3c26ffE', symObjAddr: 0xAB30, symBinAddr: 0x2BC30, symSize: 0x180 }
  - { offsetInCU: 0x28995, offset: 0xDE95A, size: 0x8, addend: 0x0, symName: '__ZN4core3ptr95drop_in_place$LT$core..option..Option$LT$$LP$proc_macro2..Ident$C$syn..token..Colon$RP$$GT$$GT$17h7c8465fae189b9eeE.llvm.9337266652465477902', symObjAddr: 0xACB0, symBinAddr: 0x2BDB0, symSize: 0x30 }
  - { offsetInCU: 0x28AB1, offset: 0xDEA76, size: 0x8, addend: 0x0, symName: '__ZN4core3ptr95drop_in_place$LT$core..option..Option$LT$alloc..boxed..Box$LT$syn..attr..NestedMeta$GT$$GT$$GT$17hc0af6c2cf0f6edf6E.llvm.9337266652465477902', symObjAddr: 0xACE0, symBinAddr: 0x2BDE0, symSize: 0xA0 }
  - { offsetInCU: 0x28C55, offset: 0xDEC1A, size: 0x8, addend: 0x0, symName: '__ZN4core3ptr96drop_in_place$LT$core..option..Option$LT$alloc..boxed..Box$LT$syn..path..PathSegment$GT$$GT$$GT$17h709a03c1abc57553E', symObjAddr: 0xAD80, symBinAddr: 0x2BE80, symSize: 0x90 }
  - { offsetInCU: 0x28EF6, offset: 0xDEEBB, size: 0x8, addend: 0x0, symName: '__ZN4core3ptr97drop_in_place$LT$syn..punctuated..Punctuated$LT$syn..attr..NestedMeta$C$syn..token..Comma$GT$$GT$17hc8f75269794f24f2E.llvm.9337266652465477902', symObjAddr: 0xAE60, symBinAddr: 0x2BF10, symSize: 0x110 }
  - { offsetInCU: 0x29289, offset: 0xDF24E, size: 0x8, addend: 0x0, symName: '__ZN4core3ptr97drop_in_place$LT$syn..punctuated..Punctuated$LT$syn..expr..FieldValue$C$syn..token..Comma$GT$$GT$17hee6f9ea05fe791efE', symObjAddr: 0xAF70, symBinAddr: 0x2C020, symSize: 0x1A0 }
  - { offsetInCU: 0x2977D, offset: 0xDF742, size: 0x8, addend: 0x0, symName: '__ZN4core3ptr97drop_in_place$LT$syn..punctuated..Punctuated$LT$syn..lifetime..Lifetime$C$syn..token..Add$GT$$GT$17h6cfffe75c57547d4E.llvm.9337266652465477902', symObjAddr: 0xB110, symBinAddr: 0x2C1C0, symSize: 0xC0 }
  - { offsetInCU: 0x29BF3, offset: 0xDFBB8, size: 0x8, addend: 0x0, symName: '__ZN4core3ptr99drop_in_place$LT$syn..punctuated..Punctuated$LT$syn..path..PathSegment$C$syn..token..Colon2$GT$$GT$17h64484d784dcb658aE.llvm.9337266652465477902', symObjAddr: 0xB1D0, symBinAddr: 0x2C280, symSize: 0x1A0 }
  - { offsetInCU: 0x31A12, offset: 0xE79D7, size: 0x8, addend: 0x0, symName: '__ZN70_$LT$alloc..vec..Vec$LT$T$C$A$GT$$u20$as$u20$core..ops..drop..Drop$GT$4drop17h02bd77863fa82389E', symObjAddr: 0xB760, symBinAddr: 0x2C7B0, symSize: 0x90 }
  - { offsetInCU: 0x31B18, offset: 0xE7ADD, size: 0x8, addend: 0x0, symName: '__ZN70_$LT$alloc..vec..Vec$LT$T$C$A$GT$$u20$as$u20$core..ops..drop..Drop$GT$4drop17h0350d72f6ed039e4E', symObjAddr: 0xB7F0, symBinAddr: 0x2C840, symSize: 0xE0 }
  - { offsetInCU: 0x31DB2, offset: 0xE7D77, size: 0x8, addend: 0x0, symName: '__ZN70_$LT$alloc..vec..Vec$LT$T$C$A$GT$$u20$as$u20$core..ops..drop..Drop$GT$4drop17h10b6197da771a094E', symObjAddr: 0xB8D0, symBinAddr: 0x2C920, symSize: 0xB0 }
  - { offsetInCU: 0x31E14, offset: 0xE7DD9, size: 0x8, addend: 0x0, symName: '__ZN70_$LT$alloc..vec..Vec$LT$T$C$A$GT$$u20$as$u20$core..ops..drop..Drop$GT$4drop17h1d865d27d1fca488E', symObjAddr: 0xB980, symBinAddr: 0x2C9D0, symSize: 0xB0 }
  - { offsetInCU: 0x31F4C, offset: 0xE7F11, size: 0x8, addend: 0x0, symName: '__ZN70_$LT$alloc..vec..Vec$LT$T$C$A$GT$$u20$as$u20$core..ops..drop..Drop$GT$4drop17h71c659f88b3fe760E', symObjAddr: 0xBC60, symBinAddr: 0x2CA80, symSize: 0xD0 }
  - { offsetInCU: 0x32084, offset: 0xE8049, size: 0x8, addend: 0x0, symName: '__ZN70_$LT$alloc..vec..Vec$LT$T$C$A$GT$$u20$as$u20$core..ops..drop..Drop$GT$4drop17hd275c011386da092E', symObjAddr: 0xC0C0, symBinAddr: 0x2CB50, symSize: 0x90 }
  - { offsetInCU: 0x32131, offset: 0xE80F6, size: 0x8, addend: 0x0, symName: '__ZN70_$LT$alloc..vec..Vec$LT$T$C$A$GT$$u20$as$u20$core..ops..drop..Drop$GT$4drop17he31f2d435c8302a5E', symObjAddr: 0xC250, symBinAddr: 0x2CBE0, symSize: 0xD0 }
  - { offsetInCU: 0x32390, offset: 0xE8355, size: 0x8, addend: 0x0, symName: '__ZN67_$LT$alloc..vec..Vec$LT$T$C$A$GT$$u20$as$u20$core..clone..Clone$GT$5clone17haa07e059c24d09dfE', symObjAddr: 0xB3D0, symBinAddr: 0x2C420, symSize: 0x390 }
  - { offsetInCU: 0x1E, offset: 0xEF5B8, size: 0x8, addend: 0x0, symName: '__ZN4core3ptr100drop_in_place$LT$core..option..Option$LT$alloc..boxed..Box$LT$syn..path..GenericArgument$GT$$GT$$GT$17hc252105a81f5aaccE', symObjAddr: 0x0, symBinAddr: 0x2CCB0, symSize: 0x50 }
  - { offsetInCU: 0x99, offset: 0xEF633, size: 0x8, addend: 0x0, symName: '__ZN58_$LT$alloc..string..String$u20$as$u20$core..fmt..Write$GT$10write_char17hd329c0cb943f081aE', symObjAddr: 0x5870, symBinAddr: 0x32520, symSize: 0x130 }
  - { offsetInCU: 0x440, offset: 0xEF9DA, size: 0x8, addend: 0x0, symName: '__ZN58_$LT$alloc..string..String$u20$as$u20$core..fmt..Write$GT$9write_str17h1ff5aa96ca91c6d5E', symObjAddr: 0x59A0, symBinAddr: 0x32650, symSize: 0x60 }
  - { offsetInCU: 0x6D2, offset: 0xEFC6C, size: 0x8, addend: 0x0, symName: '__ZN60_$LT$alloc..string..String$u20$as$u20$core..fmt..Display$GT$3fmt17hc365578c40090489E', symObjAddr: 0x5A00, symBinAddr: 0x326B0, symSize: 0x20 }
  - { offsetInCU: 0x39D3, offset: 0xF2F6D, size: 0x8, addend: 0x0, symName: '__ZN4core3ptr100drop_in_place$LT$core..option..Option$LT$alloc..boxed..Box$LT$syn..path..GenericArgument$GT$$GT$$GT$17hc252105a81f5aaccE', symObjAddr: 0x0, symBinAddr: 0x2CCB0, symSize: 0x50 }
  - { offsetInCU: 0x3CB9, offset: 0xF3253, size: 0x8, addend: 0x0, symName: '__ZN4core3ptr101drop_in_place$LT$core..option..Option$LT$alloc..boxed..Box$LT$syn..generics..GenericParam$GT$$GT$$GT$17h71fa2df5a605d79bE', symObjAddr: 0x50, symBinAddr: 0x2CD00, symSize: 0x260 }
  - { offsetInCU: 0x46EA, offset: 0xF3C84, size: 0x8, addend: 0x0, symName: '__ZN4core3ptr103drop_in_place$LT$core..option..Option$LT$alloc..boxed..Box$LT$syn..generics..WherePredicate$GT$$GT$$GT$17hb598791fb8d6337aE', symObjAddr: 0x2B0, symBinAddr: 0x2CF60, symSize: 0x100 }
  - { offsetInCU: 0x4AF3, offset: 0xF408D, size: 0x8, addend: 0x0, symName: '__ZN4core3ptr103drop_in_place$LT$syn..punctuated..Punctuated$LT$syn..generics..TypeParamBound$C$syn..token..Add$GT$$GT$17h2fff12cdcee65836E', symObjAddr: 0x3B0, symBinAddr: 0x2D060, symSize: 0x200 }
  - { offsetInCU: 0x5391, offset: 0xF492B, size: 0x8, addend: 0x0, symName: '__ZN4core3ptr108drop_in_place$LT$syn..punctuated..Punctuated$LT$syn..expr..GenericMethodArgument$C$syn..token..Comma$GT$$GT$17h6ef3c195ed34484eE', symObjAddr: 0x5B0, symBinAddr: 0x2D260, symSize: 0x160 }
  - { offsetInCU: 0x58A6, offset: 0xF4E40, size: 0x8, addend: 0x0, symName: '__ZN4core3ptr34drop_in_place$LT$syn..lit..Lit$GT$17hee2f82903d687132E', symObjAddr: 0x710, symBinAddr: 0x2D3C0, symSize: 0x110 }
  - { offsetInCU: 0x5D83, offset: 0xF531D, size: 0x8, addend: 0x0, symName: '__ZN4core3ptr34drop_in_place$LT$syn..pat..Pat$GT$17h9642b816727132c0E', symObjAddr: 0x820, symBinAddr: 0x2D4D0, symSize: 0x9B0 }
  - { offsetInCU: 0x8778, offset: 0xF7D12, size: 0x8, addend: 0x0, symName: '__ZN4core3ptr34drop_in_place$LT$syn..ty..Type$GT$17h17110bcf09425612E', symObjAddr: 0x11D0, symBinAddr: 0x2DE80, symSize: 0x570 }
  - { offsetInCU: 0xA1E0, offset: 0xF977A, size: 0x8, addend: 0x0, symName: '__ZN4core3ptr36drop_in_place$LT$syn..expr..Expr$GT$17hc4cf9f2da953f7b6E', symObjAddr: 0x1740, symBinAddr: 0x2E3F0, symSize: 0x1E40 }
  - { offsetInCU: 0x1214D, offset: 0x1016E7, size: 0x8, addend: 0x0, symName: '__ZN4core3ptr36drop_in_place$LT$syn..mac..Macro$GT$17h7382e7f6266bdf74E', symObjAddr: 0x3580, symBinAddr: 0x30230, symSize: 0xE0 }
  - { offsetInCU: 0x1253A, offset: 0x101AD4, size: 0x8, addend: 0x0, symName: '__ZN4core3ptr36drop_in_place$LT$syn..path..Path$GT$17h9df5dc377aaa16f0E', symObjAddr: 0x3660, symBinAddr: 0x30310, symSize: 0x230 }
  - { offsetInCU: 0x12E6F, offset: 0x102409, size: 0x8, addend: 0x0, symName: '__ZN4core3ptr37drop_in_place$LT$core..fmt..Error$GT$17h04e8f8caa3a7a561E', symObjAddr: 0x3890, symBinAddr: 0x30540, symSize: 0x10 }
  - { offsetInCU: 0x12E9B, offset: 0x102435, size: 0x8, addend: 0x0, symName: '__ZN4core3ptr37drop_in_place$LT$syn..stmt..Block$GT$17h884784405b623f24E', symObjAddr: 0x38A0, symBinAddr: 0x30550, symSize: 0xD0 }
  - { offsetInCU: 0x131DA, offset: 0x102774, size: 0x8, addend: 0x0, symName: '__ZN4core3ptr38drop_in_place$LT$syn..data..Fields$GT$17h669f4aa59078df7cE', symObjAddr: 0x3970, symBinAddr: 0x30620, symSize: 0x180 }
  - { offsetInCU: 0x135F8, offset: 0x102B92, size: 0x8, addend: 0x0, symName: '__ZN4core3ptr38drop_in_place$LT$syn..expr..Member$GT$17h0a109b5f798e4f34E', symObjAddr: 0x3AF0, symBinAddr: 0x307A0, symSize: 0x30 }
  - { offsetInCU: 0x136F5, offset: 0x102C8F, size: 0x8, addend: 0x0, symName: '__ZN4core3ptr39drop_in_place$LT$proc_macro2..Ident$GT$17hf022d848e46454f0E', symObjAddr: 0x3B20, symBinAddr: 0x307D0, symSize: 0x30 }
  - { offsetInCU: 0x137D3, offset: 0x102D6D, size: 0x8, addend: 0x0, symName: '__ZN4core3ptr39drop_in_place$LT$syn..pat..PatTuple$GT$17h5ccd7496006be700E', symObjAddr: 0x3B50, symBinAddr: 0x30800, symSize: 0x80 }
  - { offsetInCU: 0x139DB, offset: 0x102F75, size: 0x8, addend: 0x0, symName: '__ZN4core3ptr40drop_in_place$LT$syn..ty..ReturnType$GT$17hd1b87db4c1901abfE', symObjAddr: 0x3BD0, symBinAddr: 0x30880, symSize: 0x50 }
  - { offsetInCU: 0x13B4D, offset: 0x1030E7, size: 0x8, addend: 0x0, symName: '__ZN4core3ptr41drop_in_place$LT$syn..attr..Attribute$GT$17h09228f1ea7248bb8E', symObjAddr: 0x3C20, symBinAddr: 0x308D0, symSize: 0x40 }
  - { offsetInCU: 0x13B6A, offset: 0x103104, size: 0x8, addend: 0x0, symName: '__ZN4core3ptr42drop_in_place$LT$alloc..string..String$GT$17h0d6412baa4520d84E', symObjAddr: 0x3C60, symBinAddr: 0x30910, symSize: 0x20 }
  - { offsetInCU: 0x13CB1, offset: 0x10324B, size: 0x8, addend: 0x0, symName: '__ZN4core3ptr42drop_in_place$LT$syn..data..Visibility$GT$17hc66e604ebe20dabeE', symObjAddr: 0x3C80, symBinAddr: 0x30930, symSize: 0x60 }
  - { offsetInCU: 0x13E53, offset: 0x1033ED, size: 0x8, addend: 0x0, symName: '__ZN4core3ptr42drop_in_place$LT$syn..item..ItemStruct$GT$17hc903ba1cd903c8afE', symObjAddr: 0x3CE0, symBinAddr: 0x30990, symSize: 0x130 }
  - { offsetInCU: 0x1430F, offset: 0x1038A9, size: 0x8, addend: 0x0, symName: '__ZN4core3ptr44drop_in_place$LT$syn..generics..Generics$GT$17h2c994026bd184aecE', symObjAddr: 0x3E10, symBinAddr: 0x30AC0, symSize: 0xB0 }
  - { offsetInCU: 0x14541, offset: 0x103ADB, size: 0x8, addend: 0x0, symName: '__ZN4core3ptr44drop_in_place$LT$syn..lifetime..Lifetime$GT$17he8d28058fb9f64b7E', symObjAddr: 0x3EC0, symBinAddr: 0x30B70, symSize: 0x30 }
  - { offsetInCU: 0x14774, offset: 0x103D0E, size: 0x8, addend: 0x0, symName: '__ZN4core3ptr45drop_in_place$LT$proc_macro2..TokenStream$GT$17h5032ab08a6fc600dE', symObjAddr: 0x3EF0, symBinAddr: 0x30BA0, symSize: 0x140 }
  - { offsetInCU: 0x14B92, offset: 0x10412C, size: 0x8, addend: 0x0, symName: '__ZN4core3ptr45drop_in_place$LT$syn..data..FieldsUnnamed$GT$17h1469cd65133b4029E', symObjAddr: 0x4030, symBinAddr: 0x30CE0, symSize: 0xE0 }
  - { offsetInCU: 0x14E81, offset: 0x10441B, size: 0x8, addend: 0x0, symName: '__ZN4core3ptr47drop_in_place$LT$syn..generics..LifetimeDef$GT$17h5418c9d3ab393c4eE', symObjAddr: 0x4110, symBinAddr: 0x30DC0, symSize: 0xB0 }
  - { offsetInCU: 0x151D9, offset: 0x104773, size: 0x8, addend: 0x0, symName: '__ZN4core3ptr47drop_in_place$LT$syn..path..GenericArgument$GT$17hc1e86ee1a97fb805E', symObjAddr: 0x41C0, symBinAddr: 0x30E70, symSize: 0xE0 }
  - { offsetInCU: 0x15506, offset: 0x104AA0, size: 0x8, addend: 0x0, symName: '__ZN4core3ptr58drop_in_place$LT$alloc..vec..Vec$LT$syn..expr..Arm$GT$$GT$17h051ffa58778d7296E', symObjAddr: 0x42A0, symBinAddr: 0x30F50, symSize: 0xD0 }
  - { offsetInCU: 0x15793, offset: 0x104D2D, size: 0x8, addend: 0x0, symName: '__ZN4core3ptr59drop_in_place$LT$alloc..boxed..Box$LT$syn..pat..Pat$GT$$GT$17hb95c8dd383daa025E', symObjAddr: 0x4370, symBinAddr: 0x31020, symSize: 0x50 }
  - { offsetInCU: 0x158EE, offset: 0x104E88, size: 0x8, addend: 0x0, symName: '__ZN4core3ptr59drop_in_place$LT$alloc..boxed..Box$LT$syn..ty..Type$GT$$GT$17hb66c25dc63fb6cf9E', symObjAddr: 0x43C0, symBinAddr: 0x31070, symSize: 0x50 }
  - { offsetInCU: 0x15A49, offset: 0x104FE3, size: 0x8, addend: 0x0, symName: '__ZN4core3ptr61drop_in_place$LT$alloc..boxed..Box$LT$syn..expr..Expr$GT$$GT$17h23079cbc45f16a79E', symObjAddr: 0x4410, symBinAddr: 0x310C0, symSize: 0x50 }
  - { offsetInCU: 0x15BA4, offset: 0x10513E, size: 0x8, addend: 0x0, symName: '__ZN4core3ptr61drop_in_place$LT$syn..path..ParenthesizedGenericArguments$GT$17h1b1d238719e9578dE', symObjAddr: 0x4460, symBinAddr: 0x31110, symSize: 0x170 }
  - { offsetInCU: 0x1617E, offset: 0x105718, size: 0x8, addend: 0x0, symName: '__ZN4core3ptr63drop_in_place$LT$alloc..boxed..Box$LT$syn..lit..LitRepr$GT$$GT$17hdffe41afdf08aef0E', symObjAddr: 0x45D0, symBinAddr: 0x31280, symSize: 0x60 }
  - { offsetInCU: 0x16473, offset: 0x105A0D, size: 0x8, addend: 0x0, symName: '__ZN4core3ptr64drop_in_place$LT$alloc..boxed..Box$LT$syn..pat..FieldPat$GT$$GT$17hb8a30bb394a22f81E', symObjAddr: 0x4630, symBinAddr: 0x312E0, symSize: 0x100 }
  - { offsetInCU: 0x16A8E, offset: 0x106028, size: 0x8, addend: 0x0, symName: '__ZN4core3ptr64drop_in_place$LT$alloc..boxed..Box$LT$syn..ty..BareFnArg$GT$$GT$17hf6bb0270d59fbf31E', symObjAddr: 0x4730, symBinAddr: 0x313E0, symSize: 0xE0 }
  - { offsetInCU: 0x16F14, offset: 0x1064AE, size: 0x8, addend: 0x0, symName: '__ZN4core3ptr64drop_in_place$LT$alloc..vec..Vec$LT$syn..attr..Attribute$GT$$GT$17he61f4f6bebe1fee0E', symObjAddr: 0x4810, symBinAddr: 0x314C0, symSize: 0x60 }
  - { offsetInCU: 0x17109, offset: 0x1066A3, size: 0x8, addend: 0x0, symName: '__ZN4core3ptr65drop_in_place$LT$core..option..Option$LT$syn..expr..Label$GT$$GT$17h4f866e7c88780dd9E', symObjAddr: 0x4870, symBinAddr: 0x31520, symSize: 0x30 }
  - { offsetInCU: 0x17244, offset: 0x1067DE, size: 0x8, addend: 0x0, symName: '__ZN4core3ptr66drop_in_place$LT$core..option..Option$LT$syn..ty..Variadic$GT$$GT$17h10b2216be2fb5e00E', symObjAddr: 0x48A0, symBinAddr: 0x31550, symSize: 0x80 }
  - { offsetInCU: 0x1749A, offset: 0x106A34, size: 0x8, addend: 0x0, symName: '__ZN4core3ptr67drop_in_place$LT$alloc..boxed..Box$LT$syn..expr..FieldValue$GT$$GT$17h8173ed949e87d358E', symObjAddr: 0x4920, symBinAddr: 0x315D0, symSize: 0xF0 }
  - { offsetInCU: 0x1792B, offset: 0x106EC5, size: 0x8, addend: 0x0, symName: '__ZN4core3ptr68drop_in_place$LT$alloc..vec..Vec$LT$proc_macro2..TokenStream$GT$$GT$17hc9fb89b272ca8aceE', symObjAddr: 0x4A10, symBinAddr: 0x316C0, symSize: 0xC0 }
  - { offsetInCU: 0x17BB8, offset: 0x107152, size: 0x8, addend: 0x0, symName: '__ZN4core3ptr72drop_in_place$LT$core..option..Option$LT$syn..lifetime..Lifetime$GT$$GT$17h86cba0bbe84a1ed6E', symObjAddr: 0x4AD0, symBinAddr: 0x31780, symSize: 0x30 }
  - { offsetInCU: 0x17CD4, offset: 0x10726E, size: 0x8, addend: 0x0, symName: '__ZN4core3ptr75drop_in_place$LT$alloc..boxed..Box$LT$syn..generics..TypeParamBound$GT$$GT$17h89cd214a1f1514f9E', symObjAddr: 0x4B00, symBinAddr: 0x317B0, symSize: 0x140 }
  - { offsetInCU: 0x18285, offset: 0x10781F, size: 0x8, addend: 0x0, symName: '__ZN4core3ptr75drop_in_place$LT$core..option..Option$LT$syn..generics..WhereClause$GT$$GT$17h63c64bf0433574a3E', symObjAddr: 0x4C40, symBinAddr: 0x318F0, symSize: 0x100 }
  - { offsetInCU: 0x1850C, offset: 0x107AA6, size: 0x8, addend: 0x0, symName: '__ZN4core3ptr78drop_in_place$LT$alloc..boxed..Box$LT$syn..expr..GenericMethodArgument$GT$$GT$17h173b33014f01a5f1E', symObjAddr: 0x4D40, symBinAddr: 0x319F0, symSize: 0x60 }
  - { offsetInCU: 0x1873E, offset: 0x107CD8, size: 0x8, addend: 0x0, symName: '__ZN4core3ptr78drop_in_place$LT$core..option..Option$LT$syn..generics..BoundLifetimes$GT$$GT$17hb1d1b30cf25d6d80E', symObjAddr: 0x4DA0, symBinAddr: 0x31A50, symSize: 0xD0 }
  - { offsetInCU: 0x18BE7, offset: 0x108181, size: 0x8, addend: 0x0, symName: '__ZN4core3ptr86drop_in_place$LT$syn..punctuated..Punctuated$LT$syn..pat..Pat$C$syn..token..Or$GT$$GT$17hf56d93f226e52f9eE', symObjAddr: 0x4E70, symBinAddr: 0x31B20, symSize: 0x120 }
  - { offsetInCU: 0x1902D, offset: 0x1085C7, size: 0x8, addend: 0x0, symName: '__ZN4core3ptr87drop_in_place$LT$core..option..Option$LT$alloc..boxed..Box$LT$syn..pat..Pat$GT$$GT$$GT$17h2b1bf3f832c33c27E', symObjAddr: 0x4F90, symBinAddr: 0x31C40, symSize: 0x50 }
  - { offsetInCU: 0x1919F, offset: 0x108739, size: 0x8, addend: 0x0, symName: '__ZN4core3ptr87drop_in_place$LT$core..option..Option$LT$alloc..boxed..Box$LT$syn..ty..Type$GT$$GT$$GT$17h8fac57c1560fcb1cE', symObjAddr: 0x4FE0, symBinAddr: 0x31C90, symSize: 0x50 }
  - { offsetInCU: 0x19311, offset: 0x1088AB, size: 0x8, addend: 0x0, symName: '__ZN4core3ptr89drop_in_place$LT$core..option..Option$LT$alloc..boxed..Box$LT$syn..expr..Expr$GT$$GT$$GT$17h41e80b197dde3360E', symObjAddr: 0x5030, symBinAddr: 0x31CE0, symSize: 0x50 }
  - { offsetInCU: 0x194C1, offset: 0x108A5B, size: 0x8, addend: 0x0, symName: '__ZN4core3ptr89drop_in_place$LT$syn..punctuated..Punctuated$LT$syn..pat..Pat$C$syn..token..Comma$GT$$GT$17h4ed63df06274ac35E', symObjAddr: 0x5080, symBinAddr: 0x31D30, symSize: 0x120 }
  - { offsetInCU: 0x1997B, offset: 0x108F15, size: 0x8, addend: 0x0, symName: '__ZN4core3ptr90drop_in_place$LT$core..option..Option$LT$alloc..boxed..Box$LT$syn..data..Field$GT$$GT$$GT$17h23383040bb7152feE', symObjAddr: 0x51A0, symBinAddr: 0x31E50, symSize: 0x1A0 }
  - { offsetInCU: 0x1A15E, offset: 0x1096F8, size: 0x8, addend: 0x0, symName: '__ZN4core3ptr91drop_in_place$LT$syn..punctuated..Punctuated$LT$syn..expr..Expr$C$syn..token..Comma$GT$$GT$17h7c8b091b46816415E', symObjAddr: 0x5340, symBinAddr: 0x31FF0, symSize: 0x120 }
  - { offsetInCU: 0x1A5BB, offset: 0x109B55, size: 0x8, addend: 0x0, symName: '__ZN4core3ptr94drop_in_place$LT$syn..punctuated..Punctuated$LT$syn..pat..FieldPat$C$syn..token..Comma$GT$$GT$17h10b28b51a5cbfdbdE', symObjAddr: 0x5460, symBinAddr: 0x32110, symSize: 0x90 }
  - { offsetInCU: 0x1A7F1, offset: 0x109D8B, size: 0x8, addend: 0x0, symName: '__ZN4core3ptr94drop_in_place$LT$syn..punctuated..Punctuated$LT$syn..ty..BareFnArg$C$syn..token..Comma$GT$$GT$17h61ba1f21bd3c26ffE', symObjAddr: 0x54F0, symBinAddr: 0x321A0, symSize: 0x90 }
  - { offsetInCU: 0x1AA27, offset: 0x109FC1, size: 0x8, addend: 0x0, symName: '__ZN4core3ptr96drop_in_place$LT$core..option..Option$LT$alloc..boxed..Box$LT$syn..path..PathSegment$GT$$GT$$GT$17h709a03c1abc57553E', symObjAddr: 0x5580, symBinAddr: 0x32230, symSize: 0x180 }
  - { offsetInCU: 0x1B0B8, offset: 0x10A652, size: 0x8, addend: 0x0, symName: '__ZN4core3ptr97drop_in_place$LT$syn..punctuated..Punctuated$LT$syn..expr..FieldValue$C$syn..token..Comma$GT$$GT$17hee6f9ea05fe791efE', symObjAddr: 0x5700, symBinAddr: 0x323B0, symSize: 0x90 }
  - { offsetInCU: 0x1B36A, offset: 0x10A904, size: 0x8, addend: 0x0, symName: '__ZN4core3ptr97drop_in_place$LT$syn..punctuated..Punctuated$LT$syn..lifetime..Lifetime$C$syn..token..Add$GT$$GT$17h6cfffe75c57547d4E', symObjAddr: 0x5790, symBinAddr: 0x32440, symSize: 0xC0 }
  - { offsetInCU: 0x1BED5, offset: 0x10B46F, size: 0x8, addend: 0x0, symName: '__ZN53_$LT$core..fmt..Error$u20$as$u20$core..fmt..Debug$GT$3fmt17h43ae5cec9623af13E', symObjAddr: 0x5850, symBinAddr: 0x32500, symSize: 0x20 }
  - { offsetInCU: 0x24B49, offset: 0x1140E3, size: 0x8, addend: 0x0, symName: __ZN28borsh_schema_derive_internal11enum_schema12process_enum17h6cdf77d22bf07d47E, symObjAddr: 0x5A20, symBinAddr: 0x326D0, symSize: 0x2904 }
  - { offsetInCU: 0x1E, offset: 0x11AABB, size: 0x8, addend: 0x0, symName: '__ZN100_$LT$syn..punctuated..PrivateIter$LT$T$C$P$GT$$u20$as$u20$core..iter..traits..iterator..Iterator$GT$4next17h8179f692d895cc6eE.llvm.863496631476343277', symObjAddr: 0x0, symBinAddr: 0x34FE0, symSize: 0x30 }
  - { offsetInCU: 0x5DA, offset: 0x11B077, size: 0x8, addend: 0x0, symName: '__ZN100_$LT$syn..punctuated..PrivateIter$LT$T$C$P$GT$$u20$as$u20$core..iter..traits..iterator..Iterator$GT$4next17h8179f692d895cc6eE.llvm.863496631476343277', symObjAddr: 0x0, symBinAddr: 0x34FE0, symSize: 0x30 }
  - { offsetInCU: 0x85A, offset: 0x11B2F7, size: 0x8, addend: 0x0, symName: '__ZN100_$LT$syn..punctuated..PrivateIter$LT$T$C$P$GT$$u20$as$u20$core..iter..traits..iterator..Iterator$GT$4next17hc34abc4e18775f00E.llvm.863496631476343277', symObjAddr: 0x30, symBinAddr: 0x35010, symSize: 0x30 }
  - { offsetInCU: 0x86E8, offset: 0x123185, size: 0x8, addend: 0x0, symName: '__ZN4core3ptr100drop_in_place$LT$core..option..Option$LT$alloc..boxed..Box$LT$syn..generics..LifetimeDef$GT$$GT$$GT$17haf60dc6c88ec5ae2E', symObjAddr: 0x430, symBinAddr: 0x35200, symSize: 0xF0 }
  - { offsetInCU: 0x8C7F, offset: 0x12371C, size: 0x8, addend: 0x0, symName: '__ZN4core3ptr100drop_in_place$LT$core..option..Option$LT$alloc..boxed..Box$LT$syn..path..GenericArgument$GT$$GT$$GT$17hc252105a81f5aaccE', symObjAddr: 0x520, symBinAddr: 0x352F0, symSize: 0x50 }
  - { offsetInCU: 0x8F27, offset: 0x1239C4, size: 0x8, addend: 0x0, symName: '__ZN4core3ptr103drop_in_place$LT$syn..punctuated..Punctuated$LT$syn..generics..TypeParamBound$C$syn..token..Add$GT$$GT$17h2fff12cdcee65836E', symObjAddr: 0x570, symBinAddr: 0x35340, symSize: 0x200 }
  - { offsetInCU: 0x97C5, offset: 0x124262, size: 0x8, addend: 0x0, symName: '__ZN4core3ptr108drop_in_place$LT$syn..punctuated..Punctuated$LT$syn..expr..GenericMethodArgument$C$syn..token..Comma$GT$$GT$17h6ef3c195ed34484eE', symObjAddr: 0x770, symBinAddr: 0x35540, symSize: 0x160 }
  - { offsetInCU: 0x9CDA, offset: 0x124777, size: 0x8, addend: 0x0, symName: '__ZN4core3ptr34drop_in_place$LT$syn..lit..Lit$GT$17hee2f82903d687132E', symObjAddr: 0x8D0, symBinAddr: 0x356A0, symSize: 0x110 }
  - { offsetInCU: 0xA1B7, offset: 0x124C54, size: 0x8, addend: 0x0, symName: '__ZN4core3ptr34drop_in_place$LT$syn..pat..Pat$GT$17h9642b816727132c0E', symObjAddr: 0x9E0, symBinAddr: 0x357B0, symSize: 0x9B0 }
  - { offsetInCU: 0xCBAC, offset: 0x127649, size: 0x8, addend: 0x0, symName: '__ZN4core3ptr34drop_in_place$LT$syn..ty..Type$GT$17h17110bcf09425612E.llvm.863496631476343277', symObjAddr: 0x1390, symBinAddr: 0x36160, symSize: 0x570 }
  - { offsetInCU: 0xE614, offset: 0x1290B1, size: 0x8, addend: 0x0, symName: '__ZN4core3ptr36drop_in_place$LT$syn..expr..Expr$GT$17hc4cf9f2da953f7b6E', symObjAddr: 0x1900, symBinAddr: 0x366D0, symSize: 0x1E40 }
  - { offsetInCU: 0x16581, offset: 0x13101E, size: 0x8, addend: 0x0, symName: '__ZN4core3ptr36drop_in_place$LT$syn..mac..Macro$GT$17h7382e7f6266bdf74E', symObjAddr: 0x3740, symBinAddr: 0x38510, symSize: 0xE0 }
  - { offsetInCU: 0x1696E, offset: 0x13140B, size: 0x8, addend: 0x0, symName: '__ZN4core3ptr36drop_in_place$LT$syn..path..Path$GT$17h9df5dc377aaa16f0E.llvm.863496631476343277', symObjAddr: 0x3820, symBinAddr: 0x385F0, symSize: 0x230 }
  - { offsetInCU: 0x1731F, offset: 0x131DBC, size: 0x8, addend: 0x0, symName: '__ZN4core3ptr37drop_in_place$LT$syn..data..Field$GT$17h4d1d90129f1bfb86E.llvm.863496631476343277', symObjAddr: 0x3A50, symBinAddr: 0x38820, symSize: 0x120 }
  - { offsetInCU: 0x1779E, offset: 0x13223B, size: 0x8, addend: 0x0, symName: '__ZN4core3ptr37drop_in_place$LT$syn..stmt..Block$GT$17h884784405b623f24E', symObjAddr: 0x3B70, symBinAddr: 0x38940, symSize: 0xD0 }
  - { offsetInCU: 0x17A42, offset: 0x1324DF, size: 0x8, addend: 0x0, symName: '__ZN4core3ptr39drop_in_place$LT$proc_macro2..Ident$GT$17hf022d848e46454f0E', symObjAddr: 0x3C40, symBinAddr: 0x38A10, symSize: 0x30 }
  - { offsetInCU: 0x17B20, offset: 0x1325BD, size: 0x8, addend: 0x0, symName: '__ZN4core3ptr39drop_in_place$LT$syn..pat..PatTuple$GT$17h5ccd7496006be700E', symObjAddr: 0x3C70, symBinAddr: 0x38A40, symSize: 0x80 }
  - { offsetInCU: 0x17D28, offset: 0x1327C5, size: 0x8, addend: 0x0, symName: '__ZN4core3ptr40drop_in_place$LT$syn..ty..ReturnType$GT$17hd1b87db4c1901abfE', symObjAddr: 0x3CF0, symBinAddr: 0x38AC0, symSize: 0x50 }
  - { offsetInCU: 0x17E9A, offset: 0x132937, size: 0x8, addend: 0x0, symName: '__ZN4core3ptr42drop_in_place$LT$syn..data..Visibility$GT$17hc66e604ebe20dabeE.llvm.863496631476343277', symObjAddr: 0x3D40, symBinAddr: 0x38B10, symSize: 0x60 }
  - { offsetInCU: 0x18153, offset: 0x132BF0, size: 0x8, addend: 0x0, symName: '__ZN4core3ptr45drop_in_place$LT$proc_macro2..TokenStream$GT$17h5032ab08a6fc600dE', symObjAddr: 0x3DA0, symBinAddr: 0x38B70, symSize: 0x140 }
  - { offsetInCU: 0x185C2, offset: 0x13305F, size: 0x8, addend: 0x0, symName: '__ZN4core3ptr47drop_in_place$LT$syn..path..GenericArgument$GT$17hc1e86ee1a97fb805E', symObjAddr: 0x3EE0, symBinAddr: 0x38CB0, symSize: 0xE0 }
  - { offsetInCU: 0x188EF, offset: 0x13338C, size: 0x8, addend: 0x0, symName: '__ZN4core3ptr58drop_in_place$LT$alloc..vec..Vec$LT$syn..expr..Arm$GT$$GT$17h051ffa58778d7296E', symObjAddr: 0x3FC0, symBinAddr: 0x38D90, symSize: 0xD0 }
  - { offsetInCU: 0x18B7C, offset: 0x133619, size: 0x8, addend: 0x0, symName: '__ZN4core3ptr59drop_in_place$LT$alloc..boxed..Box$LT$syn..pat..Pat$GT$$GT$17hb95c8dd383daa025E', symObjAddr: 0x4090, symBinAddr: 0x38E60, symSize: 0x50 }
  - { offsetInCU: 0x18CD7, offset: 0x133774, size: 0x8, addend: 0x0, symName: '__ZN4core3ptr59drop_in_place$LT$alloc..boxed..Box$LT$syn..ty..Type$GT$$GT$17hb66c25dc63fb6cf9E', symObjAddr: 0x40E0, symBinAddr: 0x38EB0, symSize: 0x50 }
  - { offsetInCU: 0x18E32, offset: 0x1338CF, size: 0x8, addend: 0x0, symName: '__ZN4core3ptr61drop_in_place$LT$alloc..boxed..Box$LT$syn..expr..Expr$GT$$GT$17h23079cbc45f16a79E', symObjAddr: 0x4130, symBinAddr: 0x38F00, symSize: 0x50 }
  - { offsetInCU: 0x18F8D, offset: 0x133A2A, size: 0x8, addend: 0x0, symName: '__ZN4core3ptr61drop_in_place$LT$syn..path..ParenthesizedGenericArguments$GT$17h1b1d238719e9578dE', symObjAddr: 0x4180, symBinAddr: 0x38F50, symSize: 0x170 }
  - { offsetInCU: 0x19567, offset: 0x134004, size: 0x8, addend: 0x0, symName: '__ZN4core3ptr63drop_in_place$LT$alloc..boxed..Box$LT$syn..lit..LitRepr$GT$$GT$17hdffe41afdf08aef0E', symObjAddr: 0x42F0, symBinAddr: 0x390C0, symSize: 0x60 }
  - { offsetInCU: 0x1985C, offset: 0x1342F9, size: 0x8, addend: 0x0, symName: '__ZN4core3ptr64drop_in_place$LT$alloc..boxed..Box$LT$syn..pat..FieldPat$GT$$GT$17hb8a30bb394a22f81E', symObjAddr: 0x4350, symBinAddr: 0x39120, symSize: 0x100 }
  - { offsetInCU: 0x19E77, offset: 0x134914, size: 0x8, addend: 0x0, symName: '__ZN4core3ptr64drop_in_place$LT$alloc..boxed..Box$LT$syn..ty..BareFnArg$GT$$GT$17hf6bb0270d59fbf31E', symObjAddr: 0x4450, symBinAddr: 0x39220, symSize: 0xE0 }
  - { offsetInCU: 0x1A2FD, offset: 0x134D9A, size: 0x8, addend: 0x0, symName: '__ZN4core3ptr65drop_in_place$LT$core..option..Option$LT$syn..expr..Label$GT$$GT$17h4f866e7c88780dd9E', symObjAddr: 0x4530, symBinAddr: 0x39300, symSize: 0x30 }
  - { offsetInCU: 0x1A438, offset: 0x134ED5, size: 0x8, addend: 0x0, symName: '__ZN4core3ptr66drop_in_place$LT$core..option..Option$LT$syn..ty..Variadic$GT$$GT$17h10b2216be2fb5e00E', symObjAddr: 0x4560, symBinAddr: 0x39330, symSize: 0x80 }
  - { offsetInCU: 0x1A68E, offset: 0x13512B, size: 0x8, addend: 0x0, symName: '__ZN4core3ptr67drop_in_place$LT$alloc..boxed..Box$LT$syn..expr..FieldValue$GT$$GT$17h8173ed949e87d358E', symObjAddr: 0x45E0, symBinAddr: 0x393B0, symSize: 0xF0 }
  - { offsetInCU: 0x1AB00, offset: 0x13559D, size: 0x8, addend: 0x0, symName: '__ZN4core3ptr67drop_in_place$LT$core..option..Option$LT$proc_macro2..Ident$GT$$GT$17h493a21da443684a4E.llvm.863496631476343277', symObjAddr: 0x46D0, symBinAddr: 0x394A0, symSize: 0x30 }
  - { offsetInCU: 0x1ABFD, offset: 0x13569A, size: 0x8, addend: 0x0, symName: '__ZN4core3ptr72drop_in_place$LT$core..option..Option$LT$syn..lifetime..Lifetime$GT$$GT$17h86cba0bbe84a1ed6E', symObjAddr: 0x4700, symBinAddr: 0x394D0, symSize: 0x30 }
  - { offsetInCU: 0x1AD19, offset: 0x1357B6, size: 0x8, addend: 0x0, symName: '__ZN4core3ptr75drop_in_place$LT$alloc..boxed..Box$LT$syn..generics..TypeParamBound$GT$$GT$17h89cd214a1f1514f9E', symObjAddr: 0x4730, symBinAddr: 0x39500, symSize: 0x140 }
  - { offsetInCU: 0x1B24E, offset: 0x135CEB, size: 0x8, addend: 0x0, symName: '__ZN4core3ptr78drop_in_place$LT$alloc..boxed..Box$LT$syn..expr..GenericMethodArgument$GT$$GT$17h173b33014f01a5f1E', symObjAddr: 0x4870, symBinAddr: 0x39640, symSize: 0x60 }
  - { offsetInCU: 0x1B442, offset: 0x135EDF, size: 0x8, addend: 0x0, symName: '__ZN4core3ptr78drop_in_place$LT$core..option..Option$LT$syn..generics..BoundLifetimes$GT$$GT$17hb1d1b30cf25d6d80E', symObjAddr: 0x48D0, symBinAddr: 0x396A0, symSize: 0x90 }
  - { offsetInCU: 0x1B6F8, offset: 0x136195, size: 0x8, addend: 0x0, symName: '__ZN4core3ptr86drop_in_place$LT$syn..punctuated..Punctuated$LT$syn..pat..Pat$C$syn..token..Or$GT$$GT$17hf56d93f226e52f9eE', symObjAddr: 0x4960, symBinAddr: 0x39730, symSize: 0x120 }
  - { offsetInCU: 0x1BB3E, offset: 0x1365DB, size: 0x8, addend: 0x0, symName: '__ZN4core3ptr87drop_in_place$LT$core..option..Option$LT$alloc..boxed..Box$LT$syn..pat..Pat$GT$$GT$$GT$17h2b1bf3f832c33c27E', symObjAddr: 0x4A80, symBinAddr: 0x39850, symSize: 0x50 }
  - { offsetInCU: 0x1BCB0, offset: 0x13674D, size: 0x8, addend: 0x0, symName: '__ZN4core3ptr87drop_in_place$LT$core..option..Option$LT$alloc..boxed..Box$LT$syn..ty..Type$GT$$GT$$GT$17h8fac57c1560fcb1cE', symObjAddr: 0x4AD0, symBinAddr: 0x398A0, symSize: 0x50 }
  - { offsetInCU: 0x1BE22, offset: 0x1368BF, size: 0x8, addend: 0x0, symName: '__ZN4core3ptr89drop_in_place$LT$core..option..Option$LT$alloc..boxed..Box$LT$syn..expr..Expr$GT$$GT$$GT$17h41e80b197dde3360E', symObjAddr: 0x4B20, symBinAddr: 0x398F0, symSize: 0x50 }
  - { offsetInCU: 0x1BFD2, offset: 0x136A6F, size: 0x8, addend: 0x0, symName: '__ZN4core3ptr89drop_in_place$LT$syn..punctuated..Punctuated$LT$syn..pat..Pat$C$syn..token..Comma$GT$$GT$17h4ed63df06274ac35E', symObjAddr: 0x4B70, symBinAddr: 0x39940, symSize: 0x120 }
  - { offsetInCU: 0x1C46D, offset: 0x136F0A, size: 0x8, addend: 0x0, symName: '__ZN4core3ptr91drop_in_place$LT$syn..punctuated..Punctuated$LT$syn..expr..Expr$C$syn..token..Comma$GT$$GT$17h7c8b091b46816415E', symObjAddr: 0x4C90, symBinAddr: 0x39A60, symSize: 0x120 }
  - { offsetInCU: 0x1C8CA, offset: 0x137367, size: 0x8, addend: 0x0, symName: '__ZN4core3ptr94drop_in_place$LT$syn..punctuated..Punctuated$LT$syn..pat..FieldPat$C$syn..token..Comma$GT$$GT$17h10b28b51a5cbfdbdE', symObjAddr: 0x4DC0, symBinAddr: 0x39B80, symSize: 0x90 }
  - { offsetInCU: 0x1CB00, offset: 0x13759D, size: 0x8, addend: 0x0, symName: '__ZN4core3ptr94drop_in_place$LT$syn..punctuated..Punctuated$LT$syn..ty..BareFnArg$C$syn..token..Comma$GT$$GT$17h61ba1f21bd3c26ffE', symObjAddr: 0x4E50, symBinAddr: 0x39C10, symSize: 0x90 }
  - { offsetInCU: 0x1CD36, offset: 0x1377D3, size: 0x8, addend: 0x0, symName: '__ZN4core3ptr96drop_in_place$LT$core..option..Option$LT$alloc..boxed..Box$LT$syn..path..PathSegment$GT$$GT$$GT$17h709a03c1abc57553E', symObjAddr: 0x4EE0, symBinAddr: 0x39CA0, symSize: 0x180 }
  - { offsetInCU: 0x1D3C7, offset: 0x137E64, size: 0x8, addend: 0x0, symName: '__ZN4core3ptr97drop_in_place$LT$syn..punctuated..Punctuated$LT$syn..expr..FieldValue$C$syn..token..Comma$GT$$GT$17hee6f9ea05fe791efE', symObjAddr: 0x5060, symBinAddr: 0x39E20, symSize: 0x90 }
  - { offsetInCU: 0x1D679, offset: 0x138116, size: 0x8, addend: 0x0, symName: '__ZN4core3ptr97drop_in_place$LT$syn..punctuated..Punctuated$LT$syn..lifetime..Lifetime$C$syn..token..Add$GT$$GT$17h6cfffe75c57547d4E', symObjAddr: 0x50F0, symBinAddr: 0x39EB0, symSize: 0xC0 }
  - { offsetInCU: 0x20CE5, offset: 0x13B782, size: 0x8, addend: 0x0, symName: '__ZN3syn10punctuated23Punctuated$LT$T$C$P$GT$4push17he102b0d6dd0b7d97E', symObjAddr: 0x200, symBinAddr: 0x35040, symSize: 0x1C0 }
  - { offsetInCU: 0x1E, offset: 0x13E578, size: 0x8, addend: 0x0, symName: __ZN5alloc7raw_vec11finish_grow17h017a402fc0872a9fE.llvm.16428335056277365805, symObjAddr: 0x0, symBinAddr: 0x39F70, symSize: 0xA0 }
  - { offsetInCU: 0x349E, offset: 0x1419F8, size: 0x8, addend: 0x0, symName: __ZN5alloc7raw_vec11finish_grow17h017a402fc0872a9fE.llvm.16428335056277365805, symObjAddr: 0x0, symBinAddr: 0x39F70, symSize: 0xA0 }
  - { offsetInCU: 0x438C, offset: 0x1428E6, size: 0x8, addend: 0x0, symName: '__ZN5alloc7raw_vec19RawVec$LT$T$C$A$GT$7reserve21do_reserve_and_handle17he539e882d7f6cc9dE', symObjAddr: 0x430, symBinAddr: 0x21D990, symSize: 0xB0 }
  - { offsetInCU: 0x46CB, offset: 0x142C25, size: 0x8, addend: 0x0, symName: '__ZN77_$LT$alloc..raw_vec..RawVec$LT$T$C$A$GT$$u20$as$u20$core..ops..drop..Drop$GT$4drop17h415a6eb142b363ebE', symObjAddr: 0x630, symBinAddr: 0x3A320, symSize: 0x0 }
  - { offsetInCU: 0x47C8, offset: 0x142D22, size: 0x8, addend: 0x0, symName: '__ZN77_$LT$alloc..raw_vec..RawVec$LT$T$C$A$GT$$u20$as$u20$core..ops..drop..Drop$GT$4drop17h42f3a2e16fdb01c9E', symObjAddr: 0x660, symBinAddr: 0x3A350, symSize: 0x0 }
  - { offsetInCU: 0xA771, offset: 0x148CCB, size: 0x8, addend: 0x0, symName: '__ZN5alloc7raw_vec19RawVec$LT$T$C$A$GT$16reserve_for_push17h27989a65f3efc3c9E', symObjAddr: 0x120, symBinAddr: 0x3A010, symSize: 0xD0 }
  - { offsetInCU: 0xAC36, offset: 0x149190, size: 0x8, addend: 0x0, symName: '__ZN5alloc7raw_vec19RawVec$LT$T$C$A$GT$16reserve_for_push17h3e60399446ba0cf6E', symObjAddr: 0x1F0, symBinAddr: 0x3A0E0, symSize: 0xD0 }
  - { offsetInCU: 0xB107, offset: 0x149661, size: 0x8, addend: 0x0, symName: '__ZN5alloc7raw_vec19RawVec$LT$T$C$A$GT$16reserve_for_push17ha074898363d0151bE', symObjAddr: 0x2C0, symBinAddr: 0x3A1B0, symSize: 0xC0 }
  - { offsetInCU: 0xB5CB, offset: 0x149B25, size: 0x8, addend: 0x0, symName: '__ZN5alloc7raw_vec19RawVec$LT$T$C$A$GT$16reserve_for_push17habd6d79732b133a3E', symObjAddr: 0x380, symBinAddr: 0x3A270, symSize: 0xB0 }
  - { offsetInCU: 0x1E, offset: 0x149F5B, size: 0x8, addend: 0x0, symName: '__ZN4core3ptr100drop_in_place$LT$core..option..Option$LT$alloc..boxed..Box$LT$syn..generics..LifetimeDef$GT$$GT$$GT$17haf60dc6c88ec5ae2E', symObjAddr: 0x0, symBinAddr: 0x3A380, symSize: 0xF0 }
  - { offsetInCU: 0x99, offset: 0x149FD6, size: 0x8, addend: 0x0, symName: '__ZN58_$LT$alloc..string..String$u20$as$u20$core..fmt..Write$GT$10write_char17hd329c0cb943f081aE', symObjAddr: 0x4F30, symBinAddr: 0x3F2B0, symSize: 0x130 }
  - { offsetInCU: 0x440, offset: 0x14A37D, size: 0x8, addend: 0x0, symName: '__ZN58_$LT$alloc..string..String$u20$as$u20$core..fmt..Write$GT$9write_str17h1ff5aa96ca91c6d5E', symObjAddr: 0x5060, symBinAddr: 0x3F3E0, symSize: 0x60 }
  - { offsetInCU: 0x3255, offset: 0x14D192, size: 0x8, addend: 0x0, symName: '__ZN4core3ptr100drop_in_place$LT$core..option..Option$LT$alloc..boxed..Box$LT$syn..generics..LifetimeDef$GT$$GT$$GT$17haf60dc6c88ec5ae2E', symObjAddr: 0x0, symBinAddr: 0x3A380, symSize: 0xF0 }
  - { offsetInCU: 0x37EC, offset: 0x14D729, size: 0x8, addend: 0x0, symName: '__ZN4core3ptr100drop_in_place$LT$core..option..Option$LT$alloc..boxed..Box$LT$syn..path..GenericArgument$GT$$GT$$GT$17hc252105a81f5aaccE', symObjAddr: 0xF0, symBinAddr: 0x3A470, symSize: 0x50 }
  - { offsetInCU: 0x3A94, offset: 0x14D9D1, size: 0x8, addend: 0x0, symName: '__ZN4core3ptr103drop_in_place$LT$syn..punctuated..Punctuated$LT$syn..generics..TypeParamBound$C$syn..token..Add$GT$$GT$17h2fff12cdcee65836E', symObjAddr: 0x140, symBinAddr: 0x3A4C0, symSize: 0x200 }
  - { offsetInCU: 0x4332, offset: 0x14E26F, size: 0x8, addend: 0x0, symName: '__ZN4core3ptr108drop_in_place$LT$syn..punctuated..Punctuated$LT$syn..expr..GenericMethodArgument$C$syn..token..Comma$GT$$GT$17h6ef3c195ed34484eE', symObjAddr: 0x340, symBinAddr: 0x3A6C0, symSize: 0x160 }
  - { offsetInCU: 0x4847, offset: 0x14E784, size: 0x8, addend: 0x0, symName: '__ZN4core3ptr34drop_in_place$LT$syn..lit..Lit$GT$17hee2f82903d687132E', symObjAddr: 0x4A0, symBinAddr: 0x3A820, symSize: 0x110 }
  - { offsetInCU: 0x4D24, offset: 0x14EC61, size: 0x8, addend: 0x0, symName: '__ZN4core3ptr34drop_in_place$LT$syn..pat..Pat$GT$17h9642b816727132c0E', symObjAddr: 0x5B0, symBinAddr: 0x3A930, symSize: 0x9B0 }
  - { offsetInCU: 0x7719, offset: 0x151656, size: 0x8, addend: 0x0, symName: '__ZN4core3ptr34drop_in_place$LT$syn..ty..Type$GT$17h17110bcf09425612E', symObjAddr: 0xF60, symBinAddr: 0x3B2E0, symSize: 0x570 }
  - { offsetInCU: 0x8AF7, offset: 0x152A34, size: 0x8, addend: 0x0, symName: '__ZN4core3ptr36drop_in_place$LT$syn..attr..Meta$GT$17h3b47d4c7200d627fE', symObjAddr: 0x14D0, symBinAddr: 0x3B850, symSize: 0x80 }
  - { offsetInCU: 0x921B, offset: 0x153158, size: 0x8, addend: 0x0, symName: '__ZN4core3ptr36drop_in_place$LT$syn..expr..Expr$GT$17hc4cf9f2da953f7b6E', symObjAddr: 0x1550, symBinAddr: 0x3B8D0, symSize: 0x1E40 }
  - { offsetInCU: 0x11188, offset: 0x15B0C5, size: 0x8, addend: 0x0, symName: '__ZN4core3ptr36drop_in_place$LT$syn..mac..Macro$GT$17h7382e7f6266bdf74E', symObjAddr: 0x3390, symBinAddr: 0x3D710, symSize: 0xE0 }
  - { offsetInCU: 0x11575, offset: 0x15B4B2, size: 0x8, addend: 0x0, symName: '__ZN4core3ptr36drop_in_place$LT$syn..path..Path$GT$17h9df5dc377aaa16f0E', symObjAddr: 0x3470, symBinAddr: 0x3D7F0, symSize: 0x230 }
  - { offsetInCU: 0x11EAA, offset: 0x15BDE7, size: 0x8, addend: 0x0, symName: '__ZN4core3ptr37drop_in_place$LT$core..fmt..Error$GT$17h04e8f8caa3a7a561E', symObjAddr: 0x36A0, symBinAddr: 0x3DA20, symSize: 0x10 }
  - { offsetInCU: 0x11ED6, offset: 0x15BE13, size: 0x8, addend: 0x0, symName: '__ZN4core3ptr37drop_in_place$LT$syn..stmt..Block$GT$17h884784405b623f24E', symObjAddr: 0x36B0, symBinAddr: 0x3DA30, symSize: 0xD0 }
  - { offsetInCU: 0x1217A, offset: 0x15C0B7, size: 0x8, addend: 0x0, symName: '__ZN4core3ptr38drop_in_place$LT$syn..expr..Member$GT$17h0a109b5f798e4f34E', symObjAddr: 0x3780, symBinAddr: 0x3DB00, symSize: 0x30 }
  - { offsetInCU: 0x12277, offset: 0x15C1B4, size: 0x8, addend: 0x0, symName: '__ZN4core3ptr39drop_in_place$LT$proc_macro2..Ident$GT$17hf022d848e46454f0E', symObjAddr: 0x37B0, symBinAddr: 0x3DB30, symSize: 0x30 }
  - { offsetInCU: 0x12355, offset: 0x15C292, size: 0x8, addend: 0x0, symName: '__ZN4core3ptr39drop_in_place$LT$syn..pat..PatTuple$GT$17h5ccd7496006be700E', symObjAddr: 0x37E0, symBinAddr: 0x3DB60, symSize: 0x80 }
  - { offsetInCU: 0x1255D, offset: 0x15C49A, size: 0x8, addend: 0x0, symName: '__ZN4core3ptr40drop_in_place$LT$syn..ty..ReturnType$GT$17hd1b87db4c1901abfE', symObjAddr: 0x3860, symBinAddr: 0x3DBE0, symSize: 0x50 }
  - { offsetInCU: 0x126CF, offset: 0x15C60C, size: 0x8, addend: 0x0, symName: '__ZN4core3ptr42drop_in_place$LT$alloc..string..String$GT$17h0d6412baa4520d84E', symObjAddr: 0x38B0, symBinAddr: 0x3DC30, symSize: 0x20 }
  - { offsetInCU: 0x1290E, offset: 0x15C84B, size: 0x8, addend: 0x0, symName: '__ZN4core3ptr45drop_in_place$LT$proc_macro2..TokenStream$GT$17h5032ab08a6fc600dE', symObjAddr: 0x38D0, symBinAddr: 0x3DC50, symSize: 0x140 }
  - { offsetInCU: 0x12D7E, offset: 0x15CCBB, size: 0x8, addend: 0x0, symName: '__ZN4core3ptr47drop_in_place$LT$syn..path..GenericArgument$GT$17hc1e86ee1a97fb805E', symObjAddr: 0x3A10, symBinAddr: 0x3DD90, symSize: 0xE0 }
  - { offsetInCU: 0x130AB, offset: 0x15CFE8, size: 0x8, addend: 0x0, symName: '__ZN4core3ptr58drop_in_place$LT$alloc..vec..Vec$LT$syn..expr..Arm$GT$$GT$17h051ffa58778d7296E', symObjAddr: 0x3AF0, symBinAddr: 0x3DE70, symSize: 0xD0 }
  - { offsetInCU: 0x13338, offset: 0x15D275, size: 0x8, addend: 0x0, symName: '__ZN4core3ptr59drop_in_place$LT$alloc..boxed..Box$LT$syn..pat..Pat$GT$$GT$17hb95c8dd383daa025E', symObjAddr: 0x3BC0, symBinAddr: 0x3DF40, symSize: 0x50 }
  - { offsetInCU: 0x13493, offset: 0x15D3D0, size: 0x8, addend: 0x0, symName: '__ZN4core3ptr59drop_in_place$LT$alloc..boxed..Box$LT$syn..ty..Type$GT$$GT$17hb66c25dc63fb6cf9E', symObjAddr: 0x3C10, symBinAddr: 0x3DF90, symSize: 0x50 }
  - { offsetInCU: 0x135EE, offset: 0x15D52B, size: 0x8, addend: 0x0, symName: '__ZN4core3ptr61drop_in_place$LT$alloc..boxed..Box$LT$syn..expr..Expr$GT$$GT$17h23079cbc45f16a79E', symObjAddr: 0x3C60, symBinAddr: 0x3DFE0, symSize: 0x50 }
  - { offsetInCU: 0x13749, offset: 0x15D686, size: 0x8, addend: 0x0, symName: '__ZN4core3ptr61drop_in_place$LT$syn..path..ParenthesizedGenericArguments$GT$17h1b1d238719e9578dE', symObjAddr: 0x3CB0, symBinAddr: 0x3E030, symSize: 0x170 }
  - { offsetInCU: 0x13D23, offset: 0x15DC60, size: 0x8, addend: 0x0, symName: '__ZN4core3ptr63drop_in_place$LT$alloc..boxed..Box$LT$syn..lit..LitRepr$GT$$GT$17hdffe41afdf08aef0E', symObjAddr: 0x3E20, symBinAddr: 0x3E1A0, symSize: 0x60 }
  - { offsetInCU: 0x14018, offset: 0x15DF55, size: 0x8, addend: 0x0, symName: '__ZN4core3ptr64drop_in_place$LT$alloc..boxed..Box$LT$syn..pat..FieldPat$GT$$GT$17hb8a30bb394a22f81E', symObjAddr: 0x3E80, symBinAddr: 0x3E200, symSize: 0x100 }
  - { offsetInCU: 0x14633, offset: 0x15E570, size: 0x8, addend: 0x0, symName: '__ZN4core3ptr64drop_in_place$LT$alloc..boxed..Box$LT$syn..ty..BareFnArg$GT$$GT$17hf6bb0270d59fbf31E', symObjAddr: 0x3F80, symBinAddr: 0x3E300, symSize: 0xE0 }
  - { offsetInCU: 0x14AB9, offset: 0x15E9F6, size: 0x8, addend: 0x0, symName: '__ZN4core3ptr65drop_in_place$LT$core..option..Option$LT$syn..expr..Label$GT$$GT$17h4f866e7c88780dd9E', symObjAddr: 0x4060, symBinAddr: 0x3E3E0, symSize: 0x30 }
  - { offsetInCU: 0x14BF4, offset: 0x15EB31, size: 0x8, addend: 0x0, symName: '__ZN4core3ptr66drop_in_place$LT$core..option..Option$LT$syn..ty..Variadic$GT$$GT$17h10b2216be2fb5e00E', symObjAddr: 0x4090, symBinAddr: 0x3E410, symSize: 0x80 }
  - { offsetInCU: 0x14E4A, offset: 0x15ED87, size: 0x8, addend: 0x0, symName: '__ZN4core3ptr67drop_in_place$LT$alloc..boxed..Box$LT$syn..attr..NestedMeta$GT$$GT$17h3ae6eeb9febcbecaE', symObjAddr: 0x4110, symBinAddr: 0x3E490, symSize: 0x60 }
  - { offsetInCU: 0x14FE1, offset: 0x15EF1E, size: 0x8, addend: 0x0, symName: '__ZN4core3ptr67drop_in_place$LT$alloc..boxed..Box$LT$syn..expr..FieldValue$GT$$GT$17h8173ed949e87d358E', symObjAddr: 0x4170, symBinAddr: 0x3E4F0, symSize: 0xF0 }
  - { offsetInCU: 0x15472, offset: 0x15F3AF, size: 0x8, addend: 0x0, symName: '__ZN4core3ptr68drop_in_place$LT$alloc..vec..Vec$LT$proc_macro2..TokenStream$GT$$GT$17hc9fb89b272ca8aceE', symObjAddr: 0x4260, symBinAddr: 0x3E5E0, symSize: 0xC0 }
  - { offsetInCU: 0x156FF, offset: 0x15F63C, size: 0x8, addend: 0x0, symName: '__ZN4core3ptr72drop_in_place$LT$core..option..Option$LT$syn..lifetime..Lifetime$GT$$GT$17h86cba0bbe84a1ed6E', symObjAddr: 0x4320, symBinAddr: 0x3E6A0, symSize: 0x30 }
  - { offsetInCU: 0x1581B, offset: 0x15F758, size: 0x8, addend: 0x0, symName: '__ZN4core3ptr75drop_in_place$LT$alloc..boxed..Box$LT$syn..generics..TypeParamBound$GT$$GT$17h89cd214a1f1514f9E', symObjAddr: 0x4350, symBinAddr: 0x3E6D0, symSize: 0x140 }
  - { offsetInCU: 0x15D50, offset: 0x15FC8D, size: 0x8, addend: 0x0, symName: '__ZN4core3ptr78drop_in_place$LT$alloc..boxed..Box$LT$syn..expr..GenericMethodArgument$GT$$GT$17h173b33014f01a5f1E', symObjAddr: 0x4490, symBinAddr: 0x3E810, symSize: 0x60 }
  - { offsetInCU: 0x15F44, offset: 0x15FE81, size: 0x8, addend: 0x0, symName: '__ZN4core3ptr78drop_in_place$LT$core..option..Option$LT$syn..generics..BoundLifetimes$GT$$GT$17hb1d1b30cf25d6d80E', symObjAddr: 0x44F0, symBinAddr: 0x3E870, symSize: 0x90 }
  - { offsetInCU: 0x161FA, offset: 0x160137, size: 0x8, addend: 0x0, symName: '__ZN4core3ptr86drop_in_place$LT$syn..punctuated..Punctuated$LT$syn..pat..Pat$C$syn..token..Or$GT$$GT$17hf56d93f226e52f9eE', symObjAddr: 0x4580, symBinAddr: 0x3E900, symSize: 0x120 }
  - { offsetInCU: 0x16640, offset: 0x16057D, size: 0x8, addend: 0x0, symName: '__ZN4core3ptr87drop_in_place$LT$core..option..Option$LT$alloc..boxed..Box$LT$syn..pat..Pat$GT$$GT$$GT$17h2b1bf3f832c33c27E', symObjAddr: 0x46A0, symBinAddr: 0x3EA20, symSize: 0x50 }
  - { offsetInCU: 0x167B2, offset: 0x1606EF, size: 0x8, addend: 0x0, symName: '__ZN4core3ptr87drop_in_place$LT$core..option..Option$LT$alloc..boxed..Box$LT$syn..ty..Type$GT$$GT$$GT$17h8fac57c1560fcb1cE', symObjAddr: 0x46F0, symBinAddr: 0x3EA70, symSize: 0x50 }
  - { offsetInCU: 0x16924, offset: 0x160861, size: 0x8, addend: 0x0, symName: '__ZN4core3ptr89drop_in_place$LT$core..option..Option$LT$alloc..boxed..Box$LT$syn..expr..Expr$GT$$GT$$GT$17h41e80b197dde3360E', symObjAddr: 0x4740, symBinAddr: 0x3EAC0, symSize: 0x50 }
  - { offsetInCU: 0x16AD4, offset: 0x160A11, size: 0x8, addend: 0x0, symName: '__ZN4core3ptr89drop_in_place$LT$syn..punctuated..Punctuated$LT$syn..pat..Pat$C$syn..token..Comma$GT$$GT$17h4ed63df06274ac35E', symObjAddr: 0x4790, symBinAddr: 0x3EB10, symSize: 0x120 }
  - { offsetInCU: 0x16F6F, offset: 0x160EAC, size: 0x8, addend: 0x0, symName: '__ZN4core3ptr91drop_in_place$LT$syn..punctuated..Punctuated$LT$syn..expr..Expr$C$syn..token..Comma$GT$$GT$17h7c8b091b46816415E', symObjAddr: 0x48B0, symBinAddr: 0x3EC30, symSize: 0x120 }
  - { offsetInCU: 0x173CC, offset: 0x161309, size: 0x8, addend: 0x0, symName: '__ZN4core3ptr94drop_in_place$LT$syn..punctuated..Punctuated$LT$syn..pat..FieldPat$C$syn..token..Comma$GT$$GT$17h10b28b51a5cbfdbdE', symObjAddr: 0x49D0, symBinAddr: 0x3ED50, symSize: 0x90 }
  - { offsetInCU: 0x17602, offset: 0x16153F, size: 0x8, addend: 0x0, symName: '__ZN4core3ptr94drop_in_place$LT$syn..punctuated..Punctuated$LT$syn..ty..BareFnArg$C$syn..token..Comma$GT$$GT$17h61ba1f21bd3c26ffE', symObjAddr: 0x4A60, symBinAddr: 0x3EDE0, symSize: 0x90 }
  - { offsetInCU: 0x17838, offset: 0x161775, size: 0x8, addend: 0x0, symName: '__ZN4core3ptr96drop_in_place$LT$core..option..Option$LT$alloc..boxed..Box$LT$syn..path..PathSegment$GT$$GT$$GT$17h709a03c1abc57553E', symObjAddr: 0x4AF0, symBinAddr: 0x3EE70, symSize: 0x180 }
  - { offsetInCU: 0x17F45, offset: 0x161E82, size: 0x8, addend: 0x0, symName: '__ZN4core3ptr97drop_in_place$LT$syn..punctuated..Punctuated$LT$syn..attr..NestedMeta$C$syn..token..Comma$GT$$GT$17hc8f75269794f24f2E', symObjAddr: 0x4C70, symBinAddr: 0x3EFF0, symSize: 0x150 }
  - { offsetInCU: 0x183B3, offset: 0x1622F0, size: 0x8, addend: 0x0, symName: '__ZN4core3ptr97drop_in_place$LT$syn..punctuated..Punctuated$LT$syn..expr..FieldValue$C$syn..token..Comma$GT$$GT$17hee6f9ea05fe791efE', symObjAddr: 0x4DC0, symBinAddr: 0x3F140, symSize: 0x90 }
  - { offsetInCU: 0x18665, offset: 0x1625A2, size: 0x8, addend: 0x0, symName: '__ZN4core3ptr97drop_in_place$LT$syn..punctuated..Punctuated$LT$syn..lifetime..Lifetime$C$syn..token..Add$GT$$GT$17h6cfffe75c57547d4E', symObjAddr: 0x4E50, symBinAddr: 0x3F1D0, symSize: 0xC0 }
  - { offsetInCU: 0x19081, offset: 0x162FBE, size: 0x8, addend: 0x0, symName: '__ZN53_$LT$core..fmt..Error$u20$as$u20$core..fmt..Debug$GT$3fmt17h43ae5cec9623af13E', symObjAddr: 0x4F10, symBinAddr: 0x3F290, symSize: 0x20 }
  - { offsetInCU: 0x21706, offset: 0x16B643, size: 0x8, addend: 0x0, symName: __ZN28borsh_schema_derive_internal7helpers13contains_skip17h429fa25fab41831cE, symObjAddr: 0x50C0, symBinAddr: 0x3F440, symSize: 0x320 }
  - { offsetInCU: 0x21E95, offset: 0x16BDD2, size: 0x8, addend: 0x0, symName: __ZN28borsh_schema_derive_internal7helpers11declaration17h8df576738b0d7383E, symObjAddr: 0x53E0, symBinAddr: 0x3F760, symSize: 0x8FB }
  - { offsetInCU: 0x1E, offset: 0x16FE6B, size: 0x8, addend: 0x0, symName: __ZN3syn11parse_quote5parse17h270bc7d1465b5535E, symObjAddr: 0x0, symBinAddr: 0x40060, symSize: 0x5E0 }
  - { offsetInCU: 0x1A60, offset: 0x1718AD, size: 0x8, addend: 0x0, symName: '__ZN4core3ptr100drop_in_place$LT$core..option..Option$LT$alloc..boxed..Box$LT$syn..generics..LifetimeDef$GT$$GT$$GT$17haf60dc6c88ec5ae2E', symObjAddr: 0xB30, symBinAddr: 0x40B90, symSize: 0xF0 }
  - { offsetInCU: 0x1FF7, offset: 0x171E44, size: 0x8, addend: 0x0, symName: '__ZN4core3ptr100drop_in_place$LT$core..option..Option$LT$alloc..boxed..Box$LT$syn..path..GenericArgument$GT$$GT$$GT$17hc252105a81f5aaccE', symObjAddr: 0xC20, symBinAddr: 0x40C80, symSize: 0x50 }
  - { offsetInCU: 0x21C6, offset: 0x172013, size: 0x8, addend: 0x0, symName: '__ZN4core3ptr103drop_in_place$LT$core..option..Option$LT$alloc..boxed..Box$LT$syn..generics..TypeParamBound$GT$$GT$$GT$17hc65840d774ac2c1dE', symObjAddr: 0xC70, symBinAddr: 0x40CD0, symSize: 0x90 }
  - { offsetInCU: 0x2542, offset: 0x17238F, size: 0x8, addend: 0x0, symName: '__ZN4core3ptr103drop_in_place$LT$syn..punctuated..Punctuated$LT$syn..generics..TypeParamBound$C$syn..token..Add$GT$$GT$17h2fff12cdcee65836E', symObjAddr: 0xD00, symBinAddr: 0x40D60, symSize: 0x200 }
  - { offsetInCU: 0x2DCD, offset: 0x172C1A, size: 0x8, addend: 0x0, symName: '__ZN4core3ptr108drop_in_place$LT$syn..punctuated..Punctuated$LT$syn..expr..GenericMethodArgument$C$syn..token..Comma$GT$$GT$17h6ef3c195ed34484eE', symObjAddr: 0xF00, symBinAddr: 0x40F60, symSize: 0x160 }
  - { offsetInCU: 0x32E2, offset: 0x17312F, size: 0x8, addend: 0x0, symName: '__ZN4core3ptr34drop_in_place$LT$syn..lit..Lit$GT$17hee2f82903d687132E', symObjAddr: 0x1060, symBinAddr: 0x410C0, symSize: 0x110 }
  - { offsetInCU: 0x37BF, offset: 0x17360C, size: 0x8, addend: 0x0, symName: '__ZN4core3ptr34drop_in_place$LT$syn..pat..Pat$GT$17h9642b816727132c0E', symObjAddr: 0x1170, symBinAddr: 0x411D0, symSize: 0xAD0 }
  - { offsetInCU: 0x66A7, offset: 0x1764F4, size: 0x8, addend: 0x0, symName: '__ZN4core3ptr34drop_in_place$LT$syn..ty..Type$GT$17h17110bcf09425612E', symObjAddr: 0x1C40, symBinAddr: 0x41CA0, symSize: 0x4B0 }
  - { offsetInCU: 0x7E1F, offset: 0x177C6C, size: 0x8, addend: 0x0, symName: '__ZN4core3ptr36drop_in_place$LT$syn..expr..Expr$GT$17hc4cf9f2da953f7b6E', symObjAddr: 0x20F0, symBinAddr: 0x42150, symSize: 0x1E70 }
  - { offsetInCU: 0x10052, offset: 0x17FE9F, size: 0x8, addend: 0x0, symName: '__ZN4core3ptr36drop_in_place$LT$syn..mac..Macro$GT$17h7382e7f6266bdf74E', symObjAddr: 0x3F60, symBinAddr: 0x43FC0, symSize: 0x40 }
  - { offsetInCU: 0x101A3, offset: 0x17FFF0, size: 0x8, addend: 0x0, symName: '__ZN4core3ptr36drop_in_place$LT$syn..path..Path$GT$17h9df5dc377aaa16f0E', symObjAddr: 0x3FA0, symBinAddr: 0x44000, symSize: 0x230 }
  - { offsetInCU: 0x10AD8, offset: 0x180925, size: 0x8, addend: 0x0, symName: '__ZN4core3ptr37drop_in_place$LT$syn..stmt..Block$GT$17h884784405b623f24E', symObjAddr: 0x41D0, symBinAddr: 0x44230, symSize: 0xD0 }
  - { offsetInCU: 0x10DBA, offset: 0x180C07, size: 0x8, addend: 0x0, symName: '__ZN4core3ptr38drop_in_place$LT$syn..error..Error$GT$17h78a5c0b8103b8122E', symObjAddr: 0x42A0, symBinAddr: 0x44300, symSize: 0x70 }
  - { offsetInCU: 0x1108B, offset: 0x180ED8, size: 0x8, addend: 0x0, symName: '__ZN4core3ptr38drop_in_place$LT$syn..expr..Member$GT$17h0a109b5f798e4f34E', symObjAddr: 0x4310, symBinAddr: 0x44370, symSize: 0x30 }
  - { offsetInCU: 0x11188, offset: 0x180FD5, size: 0x8, addend: 0x0, symName: '__ZN4core3ptr39drop_in_place$LT$proc_macro2..Ident$GT$17hf022d848e46454f0E', symObjAddr: 0x4340, symBinAddr: 0x443A0, symSize: 0x30 }
  - { offsetInCU: 0x1139C, offset: 0x1811E9, size: 0x8, addend: 0x0, symName: '__ZN4core3ptr39drop_in_place$LT$syn..buffer..Entry$GT$17h638facda8250888eE', symObjAddr: 0x4370, symBinAddr: 0x443D0, symSize: 0xC0 }
  - { offsetInCU: 0x116B0, offset: 0x1814FD, size: 0x8, addend: 0x0, symName: '__ZN4core3ptr39drop_in_place$LT$syn..pat..PatTuple$GT$17h5ccd7496006be700E', symObjAddr: 0x4430, symBinAddr: 0x44490, symSize: 0x80 }
  - { offsetInCU: 0x118B8, offset: 0x181705, size: 0x8, addend: 0x0, symName: '__ZN4core3ptr40drop_in_place$LT$syn..ty..ReturnType$GT$17hd1b87db4c1901abfE', symObjAddr: 0x44B0, symBinAddr: 0x44510, symSize: 0x50 }
  - { offsetInCU: 0x11A2A, offset: 0x181877, size: 0x8, addend: 0x0, symName: '__ZN4core3ptr44drop_in_place$LT$syn..parse..ParseBuffer$GT$17ha12fcdbc4b13a689E', symObjAddr: 0x4500, symBinAddr: 0x44560, symSize: 0x70 }
  - { offsetInCU: 0x11DA7, offset: 0x181BF4, size: 0x8, addend: 0x0, symName: '__ZN4core3ptr45drop_in_place$LT$proc_macro2..TokenStream$GT$17h5032ab08a6fc600dE', symObjAddr: 0x4570, symBinAddr: 0x445D0, symSize: 0x140 }
  - { offsetInCU: 0x121D8, offset: 0x182025, size: 0x8, addend: 0x0, symName: '__ZN4core3ptr45drop_in_place$LT$syn..buffer..TokenBuffer$GT$17h45ce760671cc650bE', symObjAddr: 0x46B0, symBinAddr: 0x44710, symSize: 0xD0 }
  - { offsetInCU: 0x1243E, offset: 0x18228B, size: 0x8, addend: 0x0, symName: '__ZN4core3ptr47drop_in_place$LT$syn..path..GenericArgument$GT$17hc1e86ee1a97fb805E', symObjAddr: 0x4780, symBinAddr: 0x447E0, symSize: 0xE0 }
  - { offsetInCU: 0x12758, offset: 0x1825A5, size: 0x8, addend: 0x0, symName: '__ZN4core3ptr58drop_in_place$LT$alloc..vec..Vec$LT$syn..expr..Arm$GT$$GT$17h051ffa58778d7296E', symObjAddr: 0x4860, symBinAddr: 0x448C0, symSize: 0xD0 }
  - { offsetInCU: 0x129E5, offset: 0x182832, size: 0x8, addend: 0x0, symName: '__ZN4core3ptr59drop_in_place$LT$alloc..boxed..Box$LT$syn..pat..Pat$GT$$GT$17hb95c8dd383daa025E', symObjAddr: 0x4930, symBinAddr: 0x44990, symSize: 0x50 }
  - { offsetInCU: 0x12B40, offset: 0x18298D, size: 0x8, addend: 0x0, symName: '__ZN4core3ptr59drop_in_place$LT$alloc..boxed..Box$LT$syn..ty..Type$GT$$GT$17hb66c25dc63fb6cf9E', symObjAddr: 0x4980, symBinAddr: 0x449E0, symSize: 0x50 }
  - { offsetInCU: 0x12C9B, offset: 0x182AE8, size: 0x8, addend: 0x0, symName: '__ZN4core3ptr61drop_in_place$LT$alloc..boxed..Box$LT$syn..expr..Expr$GT$$GT$17h23079cbc45f16a79E', symObjAddr: 0x49D0, symBinAddr: 0x44A30, symSize: 0x50 }
  - { offsetInCU: 0x12E72, offset: 0x182CBF, size: 0x8, addend: 0x0, symName: '__ZN4core3ptr61drop_in_place$LT$syn..path..ParenthesizedGenericArguments$GT$17h1b1d238719e9578dE', symObjAddr: 0x4A20, symBinAddr: 0x44A80, symSize: 0x170 }
  - { offsetInCU: 0x13439, offset: 0x183286, size: 0x8, addend: 0x0, symName: '__ZN4core3ptr63drop_in_place$LT$alloc..boxed..Box$LT$syn..lit..LitRepr$GT$$GT$17hdffe41afdf08aef0E', symObjAddr: 0x4B90, symBinAddr: 0x44BF0, symSize: 0x60 }
  - { offsetInCU: 0x1372E, offset: 0x18357B, size: 0x8, addend: 0x0, symName: '__ZN4core3ptr64drop_in_place$LT$alloc..boxed..Box$LT$syn..pat..FieldPat$GT$$GT$17hb8a30bb394a22f81E', symObjAddr: 0x4BF0, symBinAddr: 0x44C50, symSize: 0x100 }
  - { offsetInCU: 0x13D49, offset: 0x183B96, size: 0x8, addend: 0x0, symName: '__ZN4core3ptr64drop_in_place$LT$alloc..boxed..Box$LT$syn..ty..BareFnArg$GT$$GT$17hf6bb0270d59fbf31E', symObjAddr: 0x4CF0, symBinAddr: 0x44D50, symSize: 0xE0 }
  - { offsetInCU: 0x141CF, offset: 0x18401C, size: 0x8, addend: 0x0, symName: '__ZN4core3ptr65drop_in_place$LT$core..option..Option$LT$syn..expr..Label$GT$$GT$17h4f866e7c88780dd9E', symObjAddr: 0x4DD0, symBinAddr: 0x44E30, symSize: 0x30 }
  - { offsetInCU: 0x1430A, offset: 0x184157, size: 0x8, addend: 0x0, symName: '__ZN4core3ptr66drop_in_place$LT$core..option..Option$LT$syn..ty..Variadic$GT$$GT$17h10b2216be2fb5e00E', symObjAddr: 0x4E00, symBinAddr: 0x44E60, symSize: 0x80 }
  - { offsetInCU: 0x14560, offset: 0x1843AD, size: 0x8, addend: 0x0, symName: '__ZN4core3ptr67drop_in_place$LT$alloc..boxed..Box$LT$syn..expr..FieldValue$GT$$GT$17h8173ed949e87d358E', symObjAddr: 0x4E80, symBinAddr: 0x44EE0, symSize: 0xF0 }
  - { offsetInCU: 0x149F1, offset: 0x18483E, size: 0x8, addend: 0x0, symName: '__ZN4core3ptr68drop_in_place$LT$alloc..boxed..Box$LT$syn..path..PathSegment$GT$$GT$17hcff6b5a6febc0378E', symObjAddr: 0x4F70, symBinAddr: 0x44FD0, symSize: 0x190 }
  - { offsetInCU: 0x150EE, offset: 0x184F3B, size: 0x8, addend: 0x0, symName: '__ZN4core3ptr72drop_in_place$LT$alloc..boxed..Box$LT$syn..path..GenericArgument$GT$$GT$17h1f8fd158b5e2d564E', symObjAddr: 0x5100, symBinAddr: 0x45160, symSize: 0x190 }
  - { offsetInCU: 0x157EB, offset: 0x185638, size: 0x8, addend: 0x0, symName: '__ZN4core3ptr72drop_in_place$LT$core..option..Option$LT$syn..lifetime..Lifetime$GT$$GT$17h86cba0bbe84a1ed6E', symObjAddr: 0x5290, symBinAddr: 0x452F0, symSize: 0x30 }
  - { offsetInCU: 0x15907, offset: 0x185754, size: 0x8, addend: 0x0, symName: '__ZN4core3ptr75drop_in_place$LT$alloc..boxed..Box$LT$syn..generics..TypeParamBound$GT$$GT$17h89cd214a1f1514f9E', symObjAddr: 0x52C0, symBinAddr: 0x45320, symSize: 0x140 }
  - { offsetInCU: 0x15E3C, offset: 0x185C89, size: 0x8, addend: 0x0, symName: '__ZN4core3ptr78drop_in_place$LT$alloc..boxed..Box$LT$syn..expr..GenericMethodArgument$GT$$GT$17h173b33014f01a5f1E', symObjAddr: 0x5400, symBinAddr: 0x45460, symSize: 0x60 }
  - { offsetInCU: 0x16030, offset: 0x185E7D, size: 0x8, addend: 0x0, symName: '__ZN4core3ptr78drop_in_place$LT$core..option..Option$LT$syn..generics..BoundLifetimes$GT$$GT$17hb1d1b30cf25d6d80E', symObjAddr: 0x5460, symBinAddr: 0x454C0, symSize: 0x90 }
  - { offsetInCU: 0x162E6, offset: 0x186133, size: 0x8, addend: 0x0, symName: '__ZN4core3ptr86drop_in_place$LT$syn..punctuated..Punctuated$LT$syn..pat..Pat$C$syn..token..Or$GT$$GT$17hf56d93f226e52f9eE', symObjAddr: 0x54F0, symBinAddr: 0x45550, symSize: 0x120 }
  - { offsetInCU: 0x1672C, offset: 0x186579, size: 0x8, addend: 0x0, symName: '__ZN4core3ptr87drop_in_place$LT$core..option..Option$LT$alloc..boxed..Box$LT$syn..pat..Pat$GT$$GT$$GT$17h2b1bf3f832c33c27E', symObjAddr: 0x5610, symBinAddr: 0x45670, symSize: 0x50 }
  - { offsetInCU: 0x1689E, offset: 0x1866EB, size: 0x8, addend: 0x0, symName: '__ZN4core3ptr87drop_in_place$LT$core..option..Option$LT$alloc..boxed..Box$LT$syn..ty..Type$GT$$GT$$GT$17h8fac57c1560fcb1cE', symObjAddr: 0x5660, symBinAddr: 0x456C0, symSize: 0x50 }
  - { offsetInCU: 0x16A10, offset: 0x18685D, size: 0x8, addend: 0x0, symName: '__ZN4core3ptr89drop_in_place$LT$core..option..Option$LT$alloc..boxed..Box$LT$syn..expr..Expr$GT$$GT$$GT$17h41e80b197dde3360E', symObjAddr: 0x56B0, symBinAddr: 0x45710, symSize: 0x50 }
  - { offsetInCU: 0x16BC0, offset: 0x186A0D, size: 0x8, addend: 0x0, symName: '__ZN4core3ptr89drop_in_place$LT$syn..punctuated..Punctuated$LT$syn..pat..Pat$C$syn..token..Comma$GT$$GT$17h4ed63df06274ac35E', symObjAddr: 0x5700, symBinAddr: 0x45760, symSize: 0x120 }
  - { offsetInCU: 0x1701D, offset: 0x186E6A, size: 0x8, addend: 0x0, symName: '__ZN4core3ptr89drop_in_place$LT$syn..punctuated..Punctuated$LT$syn..ty..Type$C$syn..token..Comma$GT$$GT$17h7f05d95cf2d9aa1dE', symObjAddr: 0x5820, symBinAddr: 0x45880, symSize: 0x120 }
  - { offsetInCU: 0x174A5, offset: 0x1872F2, size: 0x8, addend: 0x0, symName: '__ZN4core3ptr91drop_in_place$LT$syn..punctuated..Punctuated$LT$syn..expr..Expr$C$syn..token..Comma$GT$$GT$17h7c8b091b46816415E', symObjAddr: 0x5940, symBinAddr: 0x459A0, symSize: 0x120 }
  - { offsetInCU: 0x17902, offset: 0x18774F, size: 0x8, addend: 0x0, symName: '__ZN4core3ptr94drop_in_place$LT$syn..punctuated..Punctuated$LT$syn..pat..FieldPat$C$syn..token..Comma$GT$$GT$17h10b28b51a5cbfdbdE', symObjAddr: 0x5A60, symBinAddr: 0x45AC0, symSize: 0x90 }
  - { offsetInCU: 0x17B38, offset: 0x187985, size: 0x8, addend: 0x0, symName: '__ZN4core3ptr94drop_in_place$LT$syn..punctuated..Punctuated$LT$syn..ty..BareFnArg$C$syn..token..Comma$GT$$GT$17h61ba1f21bd3c26ffE', symObjAddr: 0x5AF0, symBinAddr: 0x45B50, symSize: 0x90 }
  - { offsetInCU: 0x17D6E, offset: 0x187BBB, size: 0x8, addend: 0x0, symName: '__ZN4core3ptr96drop_in_place$LT$core..option..Option$LT$alloc..boxed..Box$LT$syn..path..PathSegment$GT$$GT$$GT$17h709a03c1abc57553E', symObjAddr: 0x5B80, symBinAddr: 0x45BE0, symSize: 0x180 }
  - { offsetInCU: 0x183FF, offset: 0x18824C, size: 0x8, addend: 0x0, symName: '__ZN4core3ptr97drop_in_place$LT$syn..punctuated..Punctuated$LT$syn..expr..FieldValue$C$syn..token..Comma$GT$$GT$17hee6f9ea05fe791efE', symObjAddr: 0x5D00, symBinAddr: 0x45D60, symSize: 0x90 }
  - { offsetInCU: 0x186B1, offset: 0x1884FE, size: 0x8, addend: 0x0, symName: '__ZN4core3ptr97drop_in_place$LT$syn..punctuated..Punctuated$LT$syn..lifetime..Lifetime$C$syn..token..Add$GT$$GT$17h6cfffe75c57547d4E', symObjAddr: 0x5D90, symBinAddr: 0x45DF0, symSize: 0xC0 }
  - { offsetInCU: 0x18B29, offset: 0x188976, size: 0x8, addend: 0x0, symName: '__ZN4core3ptr99drop_in_place$LT$syn..punctuated..Punctuated$LT$syn..path..PathSegment$C$syn..token..Colon2$GT$$GT$17h64484d784dcb658aE', symObjAddr: 0x5E50, symBinAddr: 0x45EB0, symSize: 0x24B }
  - { offsetInCU: 0x20048, offset: 0x18FE95, size: 0x8, addend: 0x0, symName: __ZN3syn11parse_quote5parse17h270bc7d1465b5535E, symObjAddr: 0x0, symBinAddr: 0x40060, symSize: 0x5E0 }
  - { offsetInCU: 0x20ADA, offset: 0x190927, size: 0x8, addend: 0x0, symName: __ZN3syn11parse_quote5parse17h359a134ca487d184E, symObjAddr: 0x5E0, symBinAddr: 0x40640, symSize: 0x550 }
  - { offsetInCU: 0x1E, offset: 0x196959, size: 0x8, addend: 0x0, symName: '__ZN4core3ptr37drop_in_place$LT$core..fmt..Error$GT$17h04e8f8caa3a7a561E', symObjAddr: 0x0, symBinAddr: 0x46100, symSize: 0x10 }
  - { offsetInCU: 0x99, offset: 0x1969D4, size: 0x8, addend: 0x0, symName: '__ZN58_$LT$alloc..string..String$u20$as$u20$core..fmt..Write$GT$10write_char17hd329c0cb943f081aE', symObjAddr: 0x280, symBinAddr: 0x46380, symSize: 0x130 }
  - { offsetInCU: 0x440, offset: 0x196D7B, size: 0x8, addend: 0x0, symName: '__ZN58_$LT$alloc..string..String$u20$as$u20$core..fmt..Write$GT$9write_str17h1ff5aa96ca91c6d5E', symObjAddr: 0x3B0, symBinAddr: 0x464B0, symSize: 0x60 }
  - { offsetInCU: 0x11D5, offset: 0x197B10, size: 0x8, addend: 0x0, symName: '__ZN4core3ptr37drop_in_place$LT$core..fmt..Error$GT$17h04e8f8caa3a7a561E', symObjAddr: 0x0, symBinAddr: 0x46100, symSize: 0x10 }
  - { offsetInCU: 0x125E, offset: 0x197B99, size: 0x8, addend: 0x0, symName: '__ZN4core3ptr39drop_in_place$LT$proc_macro2..Ident$GT$17hf022d848e46454f0E', symObjAddr: 0x10, symBinAddr: 0x46110, symSize: 0x30 }
  - { offsetInCU: 0x137A, offset: 0x197CB5, size: 0x8, addend: 0x0, symName: '__ZN4core3ptr42drop_in_place$LT$alloc..string..String$GT$17h0d6412baa4520d84E', symObjAddr: 0x40, symBinAddr: 0x46140, symSize: 0x20 }
  - { offsetInCU: 0x15B9, offset: 0x197EF4, size: 0x8, addend: 0x0, symName: '__ZN4core3ptr45drop_in_place$LT$proc_macro2..TokenStream$GT$17h5032ab08a6fc600dE', symObjAddr: 0x60, symBinAddr: 0x46160, symSize: 0x140 }
  - { offsetInCU: 0x1A0A, offset: 0x198345, size: 0x8, addend: 0x0, symName: '__ZN4core3ptr68drop_in_place$LT$alloc..vec..Vec$LT$proc_macro2..TokenStream$GT$$GT$17hc9fb89b272ca8aceE', symObjAddr: 0x1A0, symBinAddr: 0x462A0, symSize: 0xC0 }
  - { offsetInCU: 0x1F14, offset: 0x19884F, size: 0x8, addend: 0x0, symName: '__ZN53_$LT$core..fmt..Error$u20$as$u20$core..fmt..Debug$GT$3fmt17h43ae5cec9623af13E', symObjAddr: 0x260, symBinAddr: 0x46360, symSize: 0x20 }
  - { offsetInCU: 0x394A, offset: 0x19A285, size: 0x8, addend: 0x0, symName: __ZN28borsh_schema_derive_internal13struct_schema14process_struct17h0386dac5edc83bbfE, symObjAddr: 0x410, symBinAddr: 0x46510, symSize: 0x1E63 }
  - { offsetInCU: 0x1E, offset: 0x1A501E, size: 0x8, addend: 0x0, symName: '__ZN4core3ptr73drop_in_place$LT$core..cell..UnsafeCell$LT$syn..parse..Unexpected$GT$$GT$17hd77f373f5a05b99eE.llvm.17885341776930565164', symObjAddr: 0x0, symBinAddr: 0x48380, symSize: 0x50 }
  - { offsetInCU: 0xB35, offset: 0x1A5B35, size: 0x8, addend: 0x0, symName: '__ZN4core3ptr73drop_in_place$LT$core..cell..UnsafeCell$LT$syn..parse..Unexpected$GT$$GT$17hd77f373f5a05b99eE.llvm.17885341776930565164', symObjAddr: 0x0, symBinAddr: 0x48380, symSize: 0x50 }
  - { offsetInCU: 0x166C, offset: 0x1A666C, size: 0x8, addend: 0x0, symName: '__ZN68_$LT$alloc..rc..Rc$LT$T$C$A$GT$$u20$as$u20$core..ops..drop..Drop$GT$4drop17h5c22d71f28f17f5bE', symObjAddr: 0xC0, symBinAddr: 0x483D0, symSize: 0x30 }
  - { offsetInCU: 0x18E0, offset: 0x1A68E0, size: 0x8, addend: 0x0, symName: '__ZN68_$LT$alloc..rc..Rc$LT$T$C$A$GT$$u20$as$u20$core..ops..drop..Drop$GT$4drop17h8eb92fd39132588dE', symObjAddr: 0xF0, symBinAddr: 0x48400, symSize: 0x40 }
  - { offsetInCU: 0x1B55, offset: 0x1A6B55, size: 0x8, addend: 0x0, symName: '__ZN68_$LT$alloc..rc..Rc$LT$T$C$A$GT$$u20$as$u20$core..ops..drop..Drop$GT$4drop17hfca50bc50cd4559bE', symObjAddr: 0x130, symBinAddr: 0x48440, symSize: 0xDE }
  - { offsetInCU: 0x1E, offset: 0x1A7D9F, size: 0x8, addend: 0x0, symName: '__ZN120_$LT$proc_macro2..fallback..TokenStream$u20$as$u20$core..iter..traits..collect..Extend$LT$proc_macro2..TokenTree$GT$$GT$6extend17h7156107298ae4e3cE', symObjAddr: 0x0, symBinAddr: 0x48520, symSize: 0x270 }
  - { offsetInCU: 0x918, offset: 0x1A8699, size: 0x8, addend: 0x0, symName: '__ZN120_$LT$proc_macro2..fallback..TokenStream$u20$as$u20$core..iter..traits..collect..Extend$LT$proc_macro2..TokenTree$GT$$GT$6extend17h7156107298ae4e3cE', symObjAddr: 0x0, symBinAddr: 0x48520, symSize: 0x270 }
  - { offsetInCU: 0x1838, offset: 0x1A95B9, size: 0x8, addend: 0x0, symName: '__ZN4core3ptr45drop_in_place$LT$proc_macro2..TokenStream$GT$17h5032ab08a6fc600dE', symObjAddr: 0x270, symBinAddr: 0x48790, symSize: 0x135 }
  - { offsetInCU: 0x1E, offset: 0x1AB0AF, size: 0x8, addend: 0x0, symName: '__ZN4core3ptr43drop_in_place$LT$proc_macro2..TokenTree$GT$17hb049bb0dc2cbd530E.llvm.14602233527112671532', symObjAddr: 0x0, symBinAddr: 0x488D0, symSize: 0xB0 }
  - { offsetInCU: 0xE42, offset: 0x1ABED3, size: 0x8, addend: 0x0, symName: '__ZN4core3ptr43drop_in_place$LT$proc_macro2..TokenTree$GT$17hb049bb0dc2cbd530E.llvm.14602233527112671532', symObjAddr: 0x0, symBinAddr: 0x488D0, symSize: 0xB0 }
  - { offsetInCU: 0x18CC, offset: 0x1AC95D, size: 0x8, addend: 0x0, symName: '__ZN86_$LT$alloc..vec..into_iter..IntoIter$LT$T$C$A$GT$$u20$as$u20$core..ops..drop..Drop$GT$4drop17h0a0218cae4040d6fE', symObjAddr: 0xB0, symBinAddr: 0x48980, symSize: 0xF0 }
  - { offsetInCU: 0x1C3E, offset: 0x1ACCCF, size: 0x8, addend: 0x0, symName: '__ZN86_$LT$alloc..vec..into_iter..IntoIter$LT$T$C$A$GT$$u20$as$u20$core..ops..drop..Drop$GT$4drop17h7030d74928992021E', symObjAddr: 0x1A0, symBinAddr: 0x48A70, symSize: 0xCD }
  - { offsetInCU: 0x35, offset: 0x1AD987, size: 0x8, addend: 0x0, symName: _anon.d9d5b71cb123a491f221f5c1bd791f96.0.llvm.833173023603689271, symObjAddr: 0x310, symBinAddr: 0x2987C8, symSize: 0x0 }
  - { offsetInCU: 0x107, offset: 0x1ADA59, size: 0x8, addend: 0x0, symName: '__ZN58_$LT$alloc..string..String$u20$as$u20$core..fmt..Write$GT$10write_char17hd329c0cb943f081aE.llvm.833173023603689271', symObjAddr: 0x140, symBinAddr: 0x48B90, symSize: 0x130 }
  - { offsetInCU: 0x4AE, offset: 0x1ADE00, size: 0x8, addend: 0x0, symName: '__ZN58_$LT$alloc..string..String$u20$as$u20$core..fmt..Write$GT$9write_str17h1ff5aa96ca91c6d5E.llvm.833173023603689271', symObjAddr: 0x270, symBinAddr: 0x48CC0, symSize: 0x5B }
  - { offsetInCU: 0x9F3, offset: 0x1AE345, size: 0x8, addend: 0x0, symName: '__ZN4core3ptr37drop_in_place$LT$core..fmt..Error$GT$17h04e8f8caa3a7a561E.llvm.833173023603689271', symObjAddr: 0xF0, symBinAddr: 0x48B40, symSize: 0x10 }
  - { offsetInCU: 0xA1F, offset: 0x1AE371, size: 0x8, addend: 0x0, symName: '__ZN4core3ptr42drop_in_place$LT$alloc..string..String$GT$17h0d6412baa4520d84E.llvm.833173023603689271', symObjAddr: 0x100, symBinAddr: 0x48B50, symSize: 0x20 }
  - { offsetInCU: 0xC0C, offset: 0x1AE55E, size: 0x8, addend: 0x0, symName: '__ZN53_$LT$core..fmt..Error$u20$as$u20$core..fmt..Debug$GT$3fmt17h43ae5cec9623af13E.llvm.833173023603689271', symObjAddr: 0x120, symBinAddr: 0x48B70, symSize: 0x20 }
  - { offsetInCU: 0xE2A, offset: 0x1AE77C, size: 0x8, addend: 0x0, symName: _anon.d9d5b71cb123a491f221f5c1bd791f96.4.llvm.833173023603689271, symObjAddr: 0x358, symBinAddr: 0x298810, symSize: 0x0 }
  - { offsetInCU: 0x1E, offset: 0x1AEF5E, size: 0x8, addend: 0x0, symName: __ZN4core3fmt5Write9write_fmt17h239007e769615c9fE, symObjAddr: 0x0, symBinAddr: 0x48D20, symSize: 0x20 }
  - { offsetInCU: 0x89, offset: 0x1AEFC9, size: 0x8, addend: 0x0, symName: '__ZN58_$LT$alloc..string..String$u20$as$u20$core..fmt..Write$GT$10write_char17hd329c0cb943f081aE', symObjAddr: 0x40, symBinAddr: 0x48D60, symSize: 0x130 }
  - { offsetInCU: 0x430, offset: 0x1AF370, size: 0x8, addend: 0x0, symName: '__ZN58_$LT$alloc..string..String$u20$as$u20$core..fmt..Write$GT$9write_str17h1ff5aa96ca91c6d5E', symObjAddr: 0x170, symBinAddr: 0x48E90, symSize: 0x5B }
  - { offsetInCU: 0x956, offset: 0x1AF896, size: 0x8, addend: 0x0, symName: '__ZN4core3ptr42drop_in_place$LT$alloc..string..String$GT$17h0d6412baa4520d84E', symObjAddr: 0x20, symBinAddr: 0x48D40, symSize: 0x20 }
  - { offsetInCU: 0xC0C, offset: 0x1AFB4C, size: 0x8, addend: 0x0, symName: __ZN4core3fmt5Write9write_fmt17h239007e769615c9fE, symObjAddr: 0x0, symBinAddr: 0x48D20, symSize: 0x20 }
  - { offsetInCU: 0x1E, offset: 0x1B05F7, size: 0x8, addend: 0x0, symName: __ZN3std9panicking11begin_panic17h0f7ecc9011d988beE, symObjAddr: 0x0, symBinAddr: 0x21DA40, symSize: 0x20 }
  - { offsetInCU: 0x31B, offset: 0x1B08F4, size: 0x8, addend: 0x0, symName: '__ZN4core3ptr28drop_in_place$LT$$RF$str$GT$17he9d8dbf7774d0afeE', symObjAddr: 0x20, symBinAddr: 0x48EF0, symSize: 0x10 }
  - { offsetInCU: 0x64B, offset: 0x1B0C24, size: 0x8, addend: 0x0, symName: __ZN3std9panicking11begin_panic17h0f7ecc9011d988beE, symObjAddr: 0x0, symBinAddr: 0x21DA40, symSize: 0x20 }
  - { offsetInCU: 0x6A7, offset: 0x1B0C80, size: 0x8, addend: 0x0, symName: '__ZN91_$LT$std..panicking..begin_panic..Payload$LT$A$GT$$u20$as$u20$core..panic..PanicPayload$GT$3get17ha69cf77f49f8275cE', symObjAddr: 0x30, symBinAddr: 0x48F00, symSize: 0x20 }
  - { offsetInCU: 0x6DF, offset: 0x1B0CB8, size: 0x8, addend: 0x0, symName: '__ZN91_$LT$std..panicking..begin_panic..Payload$LT$A$GT$$u20$as$u20$core..panic..PanicPayload$GT$8take_box17h9dc9eaba0cae9385E', symObjAddr: 0x50, symBinAddr: 0x48F20, symSize: 0x5F }
  - { offsetInCU: 0x1E, offset: 0x1B11A6, size: 0x8, addend: 0x0, symName: '__ZN115_$LT$proc_macro2..imp..TokenStream$u20$as$u20$core..iter..traits..collect..Extend$LT$proc_macro2..TokenTree$GT$$GT$6extend17h618d0c862d4a470dE', symObjAddr: 0x0, symBinAddr: 0x48F80, symSize: 0x110 }
  - { offsetInCU: 0x71F, offset: 0x1B18A7, size: 0x8, addend: 0x0, symName: '__ZN115_$LT$proc_macro2..imp..TokenStream$u20$as$u20$core..iter..traits..collect..Extend$LT$proc_macro2..TokenTree$GT$$GT$6extend17h618d0c862d4a470dE', symObjAddr: 0x0, symBinAddr: 0x48F80, symSize: 0x110 }
  - { offsetInCU: 0x1476, offset: 0x1B25FE, size: 0x8, addend: 0x0, symName: '__ZN4core3ptr56drop_in_place$LT$proc_macro2..token_stream..IntoIter$GT$17h73300016d9b92be5E.llvm.5513233531859739886', symObjAddr: 0x110, symBinAddr: 0x49090, symSize: 0x1D }
  - { offsetInCU: 0x1E, offset: 0x1B293D, size: 0x8, addend: 0x0, symName: '__ZN4core3ptr45drop_in_place$LT$proc_macro2..TokenStream$GT$17h5032ab08a6fc600dE.llvm.10445306748257782591', symObjAddr: 0x0, symBinAddr: 0x490B0, symSize: 0x140 }
  - { offsetInCU: 0xA81, offset: 0x1B33A0, size: 0x8, addend: 0x0, symName: '__ZN4core3ptr45drop_in_place$LT$proc_macro2..TokenStream$GT$17h5032ab08a6fc600dE.llvm.10445306748257782591', symObjAddr: 0x0, symBinAddr: 0x490B0, symSize: 0x140 }
  - { offsetInCU: 0x1E, offset: 0x1B40E9, size: 0x8, addend: 0x0, symName: '__ZN4core3ptr45drop_in_place$LT$proc_macro2..TokenStream$GT$17h5032ab08a6fc600dE.llvm.15894960959415579204', symObjAddr: 0x0, symBinAddr: 0x491F0, symSize: 0x140 }
  - { offsetInCU: 0xA81, offset: 0x1B4B4C, size: 0x8, addend: 0x0, symName: '__ZN4core3ptr45drop_in_place$LT$proc_macro2..TokenStream$GT$17h5032ab08a6fc600dE.llvm.15894960959415579204', symObjAddr: 0x0, symBinAddr: 0x491F0, symSize: 0x140 }
  - { offsetInCU: 0x1E, offset: 0x1B589C, size: 0x8, addend: 0x0, symName: __ZN3std10sys_common9backtrace26__rust_end_short_backtrace17h66acaafcec887f50E, symObjAddr: 0x0, symBinAddr: 0x49330, symSize: 0x10 }
  - { offsetInCU: 0x83, offset: 0x1B5901, size: 0x8, addend: 0x0, symName: '__ZN3std9panicking11begin_panic28_$u7b$$u7b$closure$u7d$$u7d$17h0ef8142cddc109f9E', symObjAddr: 0x10, symBinAddr: 0x49340, symSize: 0x40 }
  - { offsetInCU: 0x121, offset: 0x1B599F, size: 0x8, addend: 0x0, symName: __ZN3std10sys_common9backtrace26__rust_end_short_backtrace17h66acaafcec887f50E, symObjAddr: 0x0, symBinAddr: 0x49330, symSize: 0x10 }
  - { offsetInCU: 0x1FB, offset: 0x1B5A79, size: 0x8, addend: 0x0, symName: '__ZN4core3ptr72drop_in_place$LT$std..panicking..begin_panic..Payload$LT$$RF$str$GT$$GT$17hb2740d91033cf71fE', symObjAddr: 0x50, symBinAddr: 0x49380, symSize: 0x6 }
  - { offsetInCU: 0x1E, offset: 0x1B5B47, size: 0x8, addend: 0x0, symName: '__ZN36_$LT$T$u20$as$u20$core..any..Any$GT$7type_id17h4060ecb966ed2b0aE', symObjAddr: 0x0, symBinAddr: 0x49390, symSize: 0x1A }
  - { offsetInCU: 0x3A, offset: 0x1B5B63, size: 0x8, addend: 0x0, symName: '__ZN36_$LT$T$u20$as$u20$core..any..Any$GT$7type_id17h4060ecb966ed2b0aE', symObjAddr: 0x0, symBinAddr: 0x49390, symSize: 0x1A }
  - { offsetInCU: 0x1E, offset: 0x1B5C14, size: 0x8, addend: 0x0, symName: '__ZN4core3ptr100drop_in_place$LT$core..option..Option$LT$alloc..boxed..Box$LT$syn..generics..LifetimeDef$GT$$GT$$GT$17hb1ebaab36787e90eE.llvm.8262098347366796307', symObjAddr: 0x0, symBinAddr: 0x493B0, symSize: 0x50 }
  - { offsetInCU: 0x1DD7, offset: 0x1B79CD, size: 0x8, addend: 0x0, symName: '__ZN4core3ptr100drop_in_place$LT$core..option..Option$LT$alloc..boxed..Box$LT$syn..generics..LifetimeDef$GT$$GT$$GT$17hb1ebaab36787e90eE.llvm.8262098347366796307', symObjAddr: 0x0, symBinAddr: 0x493B0, symSize: 0x50 }
  - { offsetInCU: 0x1F68, offset: 0x1B7B5E, size: 0x8, addend: 0x0, symName: '__ZN4core3ptr100drop_in_place$LT$core..option..Option$LT$alloc..boxed..Box$LT$syn..path..GenericArgument$GT$$GT$$GT$17hd06bf3b107f2a3d5E', symObjAddr: 0x50, symBinAddr: 0x49400, symSize: 0x50 }
  - { offsetInCU: 0x2118, offset: 0x1B7D0E, size: 0x8, addend: 0x0, symName: '__ZN4core3ptr101drop_in_place$LT$core..option..Option$LT$alloc..boxed..Box$LT$syn..generics..GenericParam$GT$$GT$$GT$17h081b1ee8d4d0baaeE', symObjAddr: 0xA0, symBinAddr: 0x49450, symSize: 0x80 }
  - { offsetInCU: 0x231D, offset: 0x1B7F13, size: 0x8, addend: 0x0, symName: '__ZN4core3ptr102drop_in_place$LT$syn..punctuated..Punctuated$LT$syn..generics..LifetimeDef$C$syn..token..Comma$GT$$GT$17hec7eb09642b3230cE.llvm.8262098347366796307', symObjAddr: 0x120, symBinAddr: 0x494D0, symSize: 0xF0 }
  - { offsetInCU: 0x2644, offset: 0x1B823A, size: 0x8, addend: 0x0, symName: '__ZN4core3ptr102drop_in_place$LT$syn..punctuated..Punctuated$LT$syn..path..GenericArgument$C$syn..token..Comma$GT$$GT$17h41740dc2ea4c8bd5E.llvm.8262098347366796307', symObjAddr: 0x210, symBinAddr: 0x495C0, symSize: 0xC0 }
  - { offsetInCU: 0x2AFC, offset: 0x1B86F2, size: 0x8, addend: 0x0, symName: '__ZN4core3ptr103drop_in_place$LT$core..option..Option$LT$alloc..boxed..Box$LT$syn..generics..TypeParamBound$GT$$GT$$GT$17hfcd8207f8a028c2bE', symObjAddr: 0x2D0, symBinAddr: 0x49680, symSize: 0xA0 }
  - { offsetInCU: 0x2DF2, offset: 0x1B89E8, size: 0x8, addend: 0x0, symName: '__ZN4core3ptr103drop_in_place$LT$core..option..Option$LT$alloc..boxed..Box$LT$syn..generics..WherePredicate$GT$$GT$$GT$17h12988340d4e02927E', symObjAddr: 0x370, symBinAddr: 0x49720, symSize: 0x50 }
  - { offsetInCU: 0x2FFF, offset: 0x1B8BF5, size: 0x8, addend: 0x0, symName: '__ZN4core3ptr103drop_in_place$LT$syn..punctuated..Punctuated$LT$syn..generics..GenericParam$C$syn..token..Comma$GT$$GT$17h88c20cfad2b18c4bE', symObjAddr: 0x3C0, symBinAddr: 0x49770, symSize: 0x1A0 }
  - { offsetInCU: 0x3552, offset: 0x1B9148, size: 0x8, addend: 0x0, symName: '__ZN4core3ptr103drop_in_place$LT$syn..punctuated..Punctuated$LT$syn..generics..TypeParamBound$C$syn..token..Add$GT$$GT$17h716b45ea8ea72241E.llvm.8262098347366796307', symObjAddr: 0x560, symBinAddr: 0x49910, symSize: 0x290 }
  - { offsetInCU: 0x4164, offset: 0x1B9D5A, size: 0x8, addend: 0x0, symName: '__ZN4core3ptr105drop_in_place$LT$syn..punctuated..Punctuated$LT$syn..generics..WherePredicate$C$syn..token..Comma$GT$$GT$17hbdd6d69516092bf0E', symObjAddr: 0x7F0, symBinAddr: 0x49BA0, symSize: 0x1D0 }
  - { offsetInCU: 0x47E2, offset: 0x1BA3D8, size: 0x8, addend: 0x0, symName: '__ZN4core3ptr108drop_in_place$LT$syn..punctuated..Punctuated$LT$syn..expr..GenericMethodArgument$C$syn..token..Comma$GT$$GT$17h5887c08eb66a3c56E', symObjAddr: 0x9C0, symBinAddr: 0x49D70, symSize: 0x160 }
  - { offsetInCU: 0x4C7B, offset: 0x1BA871, size: 0x8, addend: 0x0, symName: '__ZN4core3ptr126drop_in_place$LT$core..option..Option$LT$$LP$syn..token..And$C$core..option..Option$LT$syn..lifetime..Lifetime$GT$$RP$$GT$$GT$17h5c152369d0b77dddE', symObjAddr: 0xB20, symBinAddr: 0x49ED0, symSize: 0x30 }
  - { offsetInCU: 0x4F0B, offset: 0x1BAB01, size: 0x8, addend: 0x0, symName: '__ZN4core3ptr33drop_in_place$LT$syn..ty..Abi$GT$17h6ca3fc4f17bc59c4E', symObjAddr: 0xB50, symBinAddr: 0x49F00, symSize: 0x60 }
  - { offsetInCU: 0x4F27, offset: 0x1BAB1D, size: 0x8, addend: 0x0, symName: '__ZN4core3ptr33drop_in_place$LT$syn..ty..Abi$GT$17h6ca3fc4f17bc59c4E', symObjAddr: 0xB50, symBinAddr: 0x49F00, symSize: 0x60 }
  - { offsetInCU: 0x5221, offset: 0x1BAE17, size: 0x8, addend: 0x0, symName: '__ZN4core3ptr34drop_in_place$LT$syn..lit..Lit$GT$17hda325bcb34e6f29aE.llvm.8262098347366796307', symObjAddr: 0xBB0, symBinAddr: 0x49F60, symSize: 0x110 }
  - { offsetInCU: 0x56DF, offset: 0x1BB2D5, size: 0x8, addend: 0x0, symName: '__ZN4core3ptr34drop_in_place$LT$syn..pat..Pat$GT$17h599075e73d06762fE.llvm.8262098347366796307', symObjAddr: 0xCC0, symBinAddr: 0x4A070, symSize: 0x5A0 }
  - { offsetInCU: 0x649E, offset: 0x1BC094, size: 0x8, addend: 0x0, symName: '__ZN4core3ptr34drop_in_place$LT$syn..ty..Type$GT$17h2c4c601c36c94dd9E.llvm.8262098347366796307', symObjAddr: 0x1260, symBinAddr: 0x4A610, symSize: 0x400 }
  - { offsetInCU: 0x71FE, offset: 0x1BCDF4, size: 0x8, addend: 0x0, symName: '__ZN4core3ptr35drop_in_place$LT$syn..expr..Arm$GT$17h944706a7b27575f5E.llvm.8262098347366796307', symObjAddr: 0x1660, symBinAddr: 0x4AA10, symSize: 0x140 }
  - { offsetInCU: 0x78AD, offset: 0x1BD4A3, size: 0x8, addend: 0x0, symName: '__ZN4core3ptr36drop_in_place$LT$syn..attr..Meta$GT$17hbdf6f3d0b31fee9dE.llvm.8262098347366796307', symObjAddr: 0x17A0, symBinAddr: 0x4AB50, symSize: 0x180 }
  - { offsetInCU: 0x824E, offset: 0x1BDE44, size: 0x8, addend: 0x0, symName: '__ZN4core3ptr36drop_in_place$LT$syn..expr..Expr$GT$17h8c447d897a47cbcdE.llvm.8262098347366796307', symObjAddr: 0x1920, symBinAddr: 0x4ACD0, symSize: 0x14B0 }
  - { offsetInCU: 0xBC1A, offset: 0x1C1810, size: 0x8, addend: 0x0, symName: '__ZN4core3ptr36drop_in_place$LT$syn..item..Item$GT$17hd73f865570556a4bE.llvm.8262098347366796307', symObjAddr: 0x2DD0, symBinAddr: 0x4C180, symSize: 0x1030 }
  - { offsetInCU: 0xEA3D, offset: 0x1C4633, size: 0x8, addend: 0x0, symName: '__ZN4core3ptr36drop_in_place$LT$syn..mac..Macro$GT$17h93596ae7f4fc42efE', symObjAddr: 0x3E00, symBinAddr: 0x4D1B0, symSize: 0xE0 }
  - { offsetInCU: 0xEDC3, offset: 0x1C49B9, size: 0x8, addend: 0x0, symName: '__ZN4core3ptr36drop_in_place$LT$syn..path..Path$GT$17h61f6e6a2feab5ba3E.llvm.8262098347366796307', symObjAddr: 0x3EE0, symBinAddr: 0x4D290, symSize: 0x160 }
  - { offsetInCU: 0xF332, offset: 0x1C4F28, size: 0x8, addend: 0x0, symName: '__ZN4core3ptr36drop_in_place$LT$syn..stmt..Stmt$GT$17h2e72d305c587ed17E.llvm.8262098347366796307', symObjAddr: 0x4040, symBinAddr: 0x4D3F0, symSize: 0xE0 }
  - { offsetInCU: 0xF52A, offset: 0x1C5120, size: 0x8, addend: 0x0, symName: '__ZN4core3ptr37drop_in_place$LT$syn..data..Field$GT$17h18fdd14c83881b04E', symObjAddr: 0x4120, symBinAddr: 0x4D4D0, symSize: 0x130 }
  - { offsetInCU: 0xFAAD, offset: 0x1C56A3, size: 0x8, addend: 0x0, symName: '__ZN4core3ptr37drop_in_place$LT$syn..item..FnArg$GT$17hcf6388c54f274d4fE', symObjAddr: 0x4250, symBinAddr: 0x4D600, symSize: 0x110 }
  - { offsetInCU: 0xFEF2, offset: 0x1C5AE8, size: 0x8, addend: 0x0, symName: '__ZN4core3ptr37drop_in_place$LT$syn..stmt..Block$GT$17hd6ce716f7e6e81c0E', symObjAddr: 0x4360, symBinAddr: 0x4D710, symSize: 0xD0 }
  - { offsetInCU: 0x10196, offset: 0x1C5D8C, size: 0x8, addend: 0x0, symName: '__ZN4core3ptr38drop_in_place$LT$syn..expr..Member$GT$17h3f07ac8135c2055bE.llvm.8262098347366796307', symObjAddr: 0x4430, symBinAddr: 0x4D7E0, symSize: 0x30 }
  - { offsetInCU: 0x10293, offset: 0x1C5E89, size: 0x8, addend: 0x0, symName: '__ZN4core3ptr38drop_in_place$LT$syn..pat..PatType$GT$17ha43992a4fb0f21ddE', symObjAddr: 0x4460, symBinAddr: 0x4D810, symSize: 0x100 }
  - { offsetInCU: 0x107CA, offset: 0x1C63C0, size: 0x8, addend: 0x0, symName: '__ZN4core3ptr38drop_in_place$LT$syn..ty..Variadic$GT$17h2d3358e2552a1ef0E', symObjAddr: 0x4560, symBinAddr: 0x4D910, symSize: 0x80 }
  - { offsetInCU: 0x10A5D, offset: 0x1C6653, size: 0x8, addend: 0x0, symName: '__ZN4core3ptr39drop_in_place$LT$proc_macro2..Ident$GT$17hc5fc300e4ebe152dE', symObjAddr: 0x45E0, symBinAddr: 0x4D990, symSize: 0x30 }
  - { offsetInCU: 0x10B98, offset: 0x1C678E, size: 0x8, addend: 0x0, symName: '__ZN4core3ptr39drop_in_place$LT$syn..data..Variant$GT$17haa884a9fba5cbea3E', symObjAddr: 0x4610, symBinAddr: 0x4D9C0, symSize: 0x2B0 }
  - { offsetInCU: 0x11778, offset: 0x1C736E, size: 0x8, addend: 0x0, symName: '__ZN4core3ptr39drop_in_place$LT$syn..item..UseTree$GT$17hddfa6614a02bed8bE', symObjAddr: 0x48C0, symBinAddr: 0x4DC70, symSize: 0x1E0 }
  - { offsetInCU: 0x11F1A, offset: 0x1C7B10, size: 0x8, addend: 0x0, symName: '__ZN4core3ptr39drop_in_place$LT$syn..pat..PatTuple$GT$17ha0e5c031ab222142E', symObjAddr: 0x4AA0, symBinAddr: 0x4DE50, symSize: 0x180 }
  - { offsetInCU: 0x1261C, offset: 0x1C8212, size: 0x8, addend: 0x0, symName: '__ZN4core3ptr40drop_in_place$LT$syn..attr..MetaList$GT$17hec59af80ab8df44eE.llvm.8262098347366796307', symObjAddr: 0x4C20, symBinAddr: 0x4DFD0, symSize: 0x180 }
  - { offsetInCU: 0x12AB1, offset: 0x1C86A7, size: 0x8, addend: 0x0, symName: '__ZN4core3ptr40drop_in_place$LT$syn..item..ImplItem$GT$17h93b76a468355a13eE', symObjAddr: 0x4DA0, symBinAddr: 0x4E150, symSize: 0x1C0 }
  - { offsetInCU: 0x12DE9, offset: 0x1C89DF, size: 0x8, addend: 0x0, symName: '__ZN4core3ptr40drop_in_place$LT$syn..ty..ReturnType$GT$17hf7ceb83f634aa2f1E.llvm.8262098347366796307', symObjAddr: 0x4F60, symBinAddr: 0x4E310, symSize: 0x50 }
  - { offsetInCU: 0x12F5B, offset: 0x1C8B51, size: 0x8, addend: 0x0, symName: '__ZN4core3ptr41drop_in_place$LT$syn..attr..Attribute$GT$17h21c35501a52a89eaE.llvm.8262098347366796307', symObjAddr: 0x4FB0, symBinAddr: 0x4E360, symSize: 0x40 }
  - { offsetInCU: 0x130CB, offset: 0x1C8CC1, size: 0x8, addend: 0x0, symName: '__ZN4core3ptr41drop_in_place$LT$syn..item..Signature$GT$17h21bdb48a30422060E', symObjAddr: 0x4FF0, symBinAddr: 0x4E3A0, symSize: 0x2C0 }
  - { offsetInCU: 0x13DEF, offset: 0x1C99E5, size: 0x8, addend: 0x0, symName: '__ZN4core3ptr41drop_in_place$LT$syn..item..TraitItem$GT$17h4ccf0ba6825c75e5E', symObjAddr: 0x52B0, symBinAddr: 0x4E660, symSize: 0x2C0 }
  - { offsetInCU: 0x144C7, offset: 0x1CA0BD, size: 0x8, addend: 0x0, symName: '__ZN4core3ptr43drop_in_place$LT$proc_macro2..TokenTree$GT$17h1ca1d01074b2296cE.llvm.8262098347366796307', symObjAddr: 0x55E0, symBinAddr: 0x4E920, symSize: 0xB0 }
  - { offsetInCU: 0x147DB, offset: 0x1CA3D1, size: 0x8, addend: 0x0, symName: '__ZN4core3ptr43drop_in_place$LT$syn..data..FieldsNamed$GT$17hb2e425f0b2d01e8cE', symObjAddr: 0x5690, symBinAddr: 0x4E9D0, symSize: 0x120 }
  - { offsetInCU: 0x14C82, offset: 0x1CA878, size: 0x8, addend: 0x0, symName: '__ZN4core3ptr43drop_in_place$LT$syn..item..ForeignItem$GT$17he0a50f33a7413be1E', symObjAddr: 0x57B0, symBinAddr: 0x4EAF0, symSize: 0x2B0 }
  - { offsetInCU: 0x15217, offset: 0x1CAE0D, size: 0x8, addend: 0x0, symName: '__ZN4core3ptr43drop_in_place$LT$syn..path..PathSegment$GT$17h978000d2c11de4c0E', symObjAddr: 0x5A60, symBinAddr: 0x4EDA0, symSize: 0x170 }
  - { offsetInCU: 0x157A6, offset: 0x1CB39C, size: 0x8, addend: 0x0, symName: '__ZN4core3ptr44drop_in_place$LT$syn..generics..Generics$GT$17h56321f5aed3633e4E', symObjAddr: 0x5BD0, symBinAddr: 0x4EF10, symSize: 0x290 }
  - { offsetInCU: 0x1604F, offset: 0x1CBC45, size: 0x8, addend: 0x0, symName: '__ZN4core3ptr44drop_in_place$LT$syn..item..ImplItemType$GT$17h4788fc171b49523fE', symObjAddr: 0x5E60, symBinAddr: 0x4F1A0, symSize: 0x170 }
  - { offsetInCU: 0x165F5, offset: 0x1CC1EB, size: 0x8, addend: 0x0, symName: '__ZN4core3ptr44drop_in_place$LT$syn..lifetime..Lifetime$GT$17hf11a1574b6e3aeaaE.llvm.8262098347366796307', symObjAddr: 0x5FD0, symBinAddr: 0x4F310, symSize: 0x30 }
  - { offsetInCU: 0x1674F, offset: 0x1CC345, size: 0x8, addend: 0x0, symName: '__ZN4core3ptr45drop_in_place$LT$proc_macro2..TokenStream$GT$17h323de8357bb3343eE.llvm.8262098347366796307', symObjAddr: 0x6000, symBinAddr: 0x4F340, symSize: 0x70 }
  - { offsetInCU: 0x16897, offset: 0x1CC48D, size: 0x8, addend: 0x0, symName: '__ZN4core3ptr45drop_in_place$LT$syn..data..VisRestricted$GT$17h270151bfb459154bE', symObjAddr: 0x6070, symBinAddr: 0x4F3B0, symSize: 0x50 }
  - { offsetInCU: 0x16A30, offset: 0x1CC626, size: 0x8, addend: 0x0, symName: '__ZN4core3ptr45drop_in_place$LT$syn..generics..TypeParam$GT$17h55768fb085a07745E', symObjAddr: 0x60C0, symBinAddr: 0x4F400, symSize: 0x110 }
  - { offsetInCU: 0x16DEF, offset: 0x1CC9E5, size: 0x8, addend: 0x0, symName: '__ZN4core3ptr45drop_in_place$LT$syn..item..ImplItemConst$GT$17h47262a72357658d3E', symObjAddr: 0x61D0, symBinAddr: 0x4F510, symSize: 0x150 }
  - { offsetInCU: 0x17352, offset: 0x1CCF48, size: 0x8, addend: 0x0, symName: '__ZN4core3ptr45drop_in_place$LT$syn..item..TraitItemType$GT$17h08d75ed3e4cc921cE', symObjAddr: 0x6320, symBinAddr: 0x4F660, symSize: 0x150 }
  - { offsetInCU: 0x177F7, offset: 0x1CD3ED, size: 0x8, addend: 0x0, symName: '__ZN4core3ptr46drop_in_place$LT$syn..generics..ConstParam$GT$17h1c036618abbb8f93E', symObjAddr: 0x6470, symBinAddr: 0x4F7B0, symSize: 0x110 }
  - { offsetInCU: 0x17BB6, offset: 0x1CD7AC, size: 0x8, addend: 0x0, symName: '__ZN4core3ptr46drop_in_place$LT$syn..item..ImplItemMethod$GT$17h7165a5d62cebf49cE', symObjAddr: 0x6580, symBinAddr: 0x4F8C0, symSize: 0x1D0 }
  - { offsetInCU: 0x182A1, offset: 0x1CDE97, size: 0x8, addend: 0x0, symName: '__ZN4core3ptr46drop_in_place$LT$syn..item..TraitItemConst$GT$17h63a7d1c9aba28334E', symObjAddr: 0x6750, symBinAddr: 0x4FA90, symSize: 0xF0 }
  - { offsetInCU: 0x186D1, offset: 0x1CE2C7, size: 0x8, addend: 0x0, symName: '__ZN4core3ptr47drop_in_place$LT$syn..generics..LifetimeDef$GT$17hec01b95daf27d05bE.llvm.8262098347366796307', symObjAddr: 0x6840, symBinAddr: 0x4FB80, symSize: 0x150 }
  - { offsetInCU: 0x18AC2, offset: 0x1CE6B8, size: 0x8, addend: 0x0, symName: '__ZN4core3ptr47drop_in_place$LT$syn..generics..WhereClause$GT$17h9494454a186ee05cE', symObjAddr: 0x6990, symBinAddr: 0x4FCD0, symSize: 0x120 }
  - { offsetInCU: 0x18F4A, offset: 0x1CEB40, size: 0x8, addend: 0x0, symName: '__ZN4core3ptr47drop_in_place$LT$syn..path..GenericArgument$GT$17h4f6067f5bcfbc632E.llvm.8262098347366796307', symObjAddr: 0x6AB0, symBinAddr: 0x4FDF0, symSize: 0xE0 }
  - { offsetInCU: 0x19264, offset: 0x1CEE5A, size: 0x8, addend: 0x0, symName: '__ZN4core3ptr48drop_in_place$LT$syn..generics..GenericParam$GT$17hf193c725f9788589E', symObjAddr: 0x6B90, symBinAddr: 0x4FED0, symSize: 0x40 }
  - { offsetInCU: 0x19281, offset: 0x1CEE77, size: 0x8, addend: 0x0, symName: '__ZN4core3ptr49drop_in_place$LT$syn..item..ForeignItemStatic$GT$17hb86fde2441928277E', symObjAddr: 0x6BD0, symBinAddr: 0x4FF10, symSize: 0x140 }
  - { offsetInCU: 0x19915, offset: 0x1CF50B, size: 0x8, addend: 0x0, symName: '__ZN4core3ptr50drop_in_place$LT$$u5b$syn..item..ImplItem$u5d$$GT$17h7cc7ac73cec98b8cE', symObjAddr: 0x6D10, symBinAddr: 0x50050, symSize: 0x1E0 }
  - { offsetInCU: 0x19B7E, offset: 0x1CF774, size: 0x8, addend: 0x0, symName: '__ZN4core3ptr50drop_in_place$LT$syn..generics..BoundLifetimes$GT$17h575243d85c6fa339E.llvm.8262098347366796307', symObjAddr: 0x6EF0, symBinAddr: 0x50230, symSize: 0x110 }
  - { offsetInCU: 0x19FC8, offset: 0x1CFBBE, size: 0x8, addend: 0x0, symName: '__ZN4core3ptr50drop_in_place$LT$syn..generics..TypeParamBound$GT$17h94e93f19f1b7f8aeE', symObjAddr: 0x7000, symBinAddr: 0x50340, symSize: 0x150 }
  - { offsetInCU: 0x1A41C, offset: 0x1D0012, size: 0x8, addend: 0x0, symName: '__ZN4core3ptr50drop_in_place$LT$syn..generics..WherePredicate$GT$17h073070a2e98eaf57E', symObjAddr: 0x7150, symBinAddr: 0x50490, symSize: 0xE0 }
  - { offsetInCU: 0x1A5B3, offset: 0x1D01A9, size: 0x8, addend: 0x0, symName: '__ZN4core3ptr51drop_in_place$LT$$u5b$syn..attr..Attribute$u5d$$GT$17h8fa869588eb8cd38E.llvm.8262098347366796307', symObjAddr: 0x7230, symBinAddr: 0x50570, symSize: 0x1C0 }
  - { offsetInCU: 0x1A91C, offset: 0x1D0512, size: 0x8, addend: 0x0, symName: '__ZN4core3ptr51drop_in_place$LT$$u5b$syn..item..TraitItem$u5d$$GT$17hccf0f4fb6aed3496E', symObjAddr: 0x73F0, symBinAddr: 0x50730, symSize: 0x450 }
  - { offsetInCU: 0x1B2C1, offset: 0x1D0EB7, size: 0x8, addend: 0x0, symName: '__ZN4core3ptr53drop_in_place$LT$$u5b$syn..item..ForeignItem$u5d$$GT$17h520b9ec9068f81e7E', symObjAddr: 0x7840, symBinAddr: 0x50B80, symSize: 0x3A0 }
  - { offsetInCU: 0x1BD1A, offset: 0x1D1910, size: 0x8, addend: 0x0, symName: '__ZN4core3ptr58drop_in_place$LT$alloc..vec..Vec$LT$syn..expr..Arm$GT$$GT$17hea67c6cc4a6d8fc7E', symObjAddr: 0x7BE0, symBinAddr: 0x50F20, symSize: 0xD0 }
  - { offsetInCU: 0x1BFA7, offset: 0x1D1B9D, size: 0x8, addend: 0x0, symName: '__ZN4core3ptr59drop_in_place$LT$alloc..boxed..Box$LT$syn..pat..Pat$GT$$GT$17hc0ae2d13b6413492E.llvm.8262098347366796307', symObjAddr: 0x7CB0, symBinAddr: 0x50FF0, symSize: 0x50 }
  - { offsetInCU: 0x1C102, offset: 0x1D1CF8, size: 0x8, addend: 0x0, symName: '__ZN4core3ptr59drop_in_place$LT$alloc..boxed..Box$LT$syn..ty..Type$GT$$GT$17ha426b7a17f4d920bE', symObjAddr: 0x7D00, symBinAddr: 0x51040, symSize: 0x50 }
  - { offsetInCU: 0x1C25D, offset: 0x1D1E53, size: 0x8, addend: 0x0, symName: '__ZN4core3ptr59drop_in_place$LT$alloc..vec..Vec$LT$syn..item..Item$GT$$GT$17h14d9572f4ec3451fE', symObjAddr: 0x7D50, symBinAddr: 0x51090, symSize: 0xD0 }
  - { offsetInCU: 0x1C4EA, offset: 0x1D20E0, size: 0x8, addend: 0x0, symName: '__ZN4core3ptr61drop_in_place$LT$alloc..boxed..Box$LT$syn..expr..Expr$GT$$GT$17hdd7cb29ef2f233b5E.llvm.8262098347366796307', symObjAddr: 0x7E20, symBinAddr: 0x51160, symSize: 0x50 }
  - { offsetInCU: 0x1C645, offset: 0x1D223B, size: 0x8, addend: 0x0, symName: '__ZN4core3ptr61drop_in_place$LT$alloc..boxed..Box$LT$syn..path..Path$GT$$GT$17h03288789dd3bc06dE', symObjAddr: 0x7E70, symBinAddr: 0x511B0, symSize: 0x100 }
  - { offsetInCU: 0x1CB2B, offset: 0x1D2721, size: 0x8, addend: 0x0, symName: '__ZN4core3ptr61drop_in_place$LT$syn..path..ParenthesizedGenericArguments$GT$17h48cffc44bfbce871E', symObjAddr: 0x7F70, symBinAddr: 0x512B0, symSize: 0x170 }
  - { offsetInCU: 0x1D0F2, offset: 0x1D2CE8, size: 0x8, addend: 0x0, symName: '__ZN4core3ptr62drop_in_place$LT$alloc..boxed..Box$LT$syn..data..Field$GT$$GT$17ha58d1623d3e26cd1E', symObjAddr: 0x80E0, symBinAddr: 0x51420, symSize: 0x50 }
  - { offsetInCU: 0x1D26C, offset: 0x1D2E62, size: 0x8, addend: 0x0, symName: '__ZN4core3ptr62drop_in_place$LT$alloc..boxed..Box$LT$syn..item..FnArg$GT$$GT$17hdcf27a1e64b734cbE', symObjAddr: 0x8130, symBinAddr: 0x51470, symSize: 0xD0 }
  - { offsetInCU: 0x1D7BD, offset: 0x1D33B3, size: 0x8, addend: 0x0, symName: '__ZN4core3ptr62drop_in_place$LT$alloc..boxed..Box$LT$syn..stmt..Block$GT$$GT$17h1877a3291e715d71E', symObjAddr: 0x8200, symBinAddr: 0x51540, symSize: 0xE0 }
  - { offsetInCU: 0x1DB9E, offset: 0x1D3794, size: 0x8, addend: 0x0, symName: '__ZN4core3ptr62drop_in_place$LT$syn..path..AngleBracketedGenericArguments$GT$17hdb5ebb3888c41501E', symObjAddr: 0x82E0, symBinAddr: 0x51620, symSize: 0x120 }
  - { offsetInCU: 0x1DFB4, offset: 0x1D3BAA, size: 0x8, addend: 0x0, symName: '__ZN4core3ptr63drop_in_place$LT$alloc..vec..Vec$LT$syn..item..ImplItem$GT$$GT$17hdd94ae14d8817e8fE', symObjAddr: 0x8400, symBinAddr: 0x51740, symSize: 0x80 }
  - { offsetInCU: 0x1E232, offset: 0x1D3E28, size: 0x8, addend: 0x0, symName: '__ZN4core3ptr64drop_in_place$LT$alloc..boxed..Box$LT$syn..data..Variant$GT$$GT$17h131a3c1a786c5db5E', symObjAddr: 0x8480, symBinAddr: 0x517C0, symSize: 0x50 }
  - { offsetInCU: 0x1E38D, offset: 0x1D3F83, size: 0x8, addend: 0x0, symName: '__ZN4core3ptr64drop_in_place$LT$alloc..boxed..Box$LT$syn..item..UseTree$GT$$GT$17h519cf5fef958ab56E', symObjAddr: 0x84D0, symBinAddr: 0x51810, symSize: 0x50 }
  - { offsetInCU: 0x1E507, offset: 0x1D40FD, size: 0x8, addend: 0x0, symName: '__ZN4core3ptr64drop_in_place$LT$alloc..boxed..Box$LT$syn..pat..FieldPat$GT$$GT$17h35d811900e2d6065E', symObjAddr: 0x8520, symBinAddr: 0x51860, symSize: 0xC0 }
  - { offsetInCU: 0x1E937, offset: 0x1D452D, size: 0x8, addend: 0x0, symName: '__ZN4core3ptr64drop_in_place$LT$alloc..boxed..Box$LT$syn..ty..BareFnArg$GT$$GT$17h356d9fd263d1d06eE', symObjAddr: 0x85E0, symBinAddr: 0x51920, symSize: 0x90 }
  - { offsetInCU: 0x1EBD2, offset: 0x1D47C8, size: 0x8, addend: 0x0, symName: '__ZN4core3ptr64drop_in_place$LT$alloc..vec..Vec$LT$syn..attr..Attribute$GT$$GT$17hdfbc8e067f2b03acE.llvm.8262098347366796307', symObjAddr: 0x8670, symBinAddr: 0x519B0, symSize: 0xF0 }
  - { offsetInCU: 0x1EE6C, offset: 0x1D4A62, size: 0x8, addend: 0x0, symName: '__ZN4core3ptr64drop_in_place$LT$alloc..vec..Vec$LT$syn..item..TraitItem$GT$$GT$17h1ee71303bab170a3E', symObjAddr: 0x8760, symBinAddr: 0x51AA0, symSize: 0x80 }
  - { offsetInCU: 0x1F0EA, offset: 0x1D4CE0, size: 0x8, addend: 0x0, symName: '__ZN4core3ptr65drop_in_place$LT$$LP$syn..item..FnArg$C$syn..token..Comma$RP$$GT$17hd37cdec928d74465E', symObjAddr: 0x87E0, symBinAddr: 0x51B20, symSize: 0xD0 }
  - { offsetInCU: 0x1F56A, offset: 0x1D5160, size: 0x8, addend: 0x0, symName: '__ZN4core3ptr65drop_in_place$LT$alloc..vec..Vec$LT$proc_macro..TokenTree$GT$$GT$17h42ec266ef6d13191E.llvm.8262098347366796307', symObjAddr: 0x88B0, symBinAddr: 0x51BF0, symSize: 0x120 }
  - { offsetInCU: 0x1F8DC, offset: 0x1D54D2, size: 0x8, addend: 0x0, symName: '__ZN4core3ptr65drop_in_place$LT$core..option..Option$LT$syn..expr..Label$GT$$GT$17h16f4c70e31d331bcE', symObjAddr: 0x89D0, symBinAddr: 0x51D10, symSize: 0x30 }
  - { offsetInCU: 0x1FA17, offset: 0x1D560D, size: 0x8, addend: 0x0, symName: '__ZN4core3ptr65drop_in_place$LT$core..option..Option$LT$syn..stmt..Block$GT$$GT$17h9863ddb0483c6aeaE', symObjAddr: 0x8A00, symBinAddr: 0x51D40, symSize: 0xE0 }
  - { offsetInCU: 0x1FC7C, offset: 0x1D5872, size: 0x8, addend: 0x0, symName: '__ZN4core3ptr66drop_in_place$LT$alloc..vec..Vec$LT$syn..item..ForeignItem$GT$$GT$17hfeccbde491c05087E', symObjAddr: 0x8AE0, symBinAddr: 0x51E20, symSize: 0x80 }
  - { offsetInCU: 0x1FEFA, offset: 0x1D5AF0, size: 0x8, addend: 0x0, symName: '__ZN4core3ptr67drop_in_place$LT$$LP$syn..pat..FieldPat$C$syn..token..Comma$RP$$GT$17h49ba1c026725d198E.llvm.8262098347366796307', symObjAddr: 0x8B60, symBinAddr: 0x51EA0, symSize: 0xA0 }
  - { offsetInCU: 0x201A5, offset: 0x1D5D9B, size: 0x8, addend: 0x0, symName: '__ZN4core3ptr67drop_in_place$LT$$LP$syn..ty..BareFnArg$C$syn..token..Comma$RP$$GT$17hf4a70af49cc48fbfE.llvm.8262098347366796307', symObjAddr: 0x8C00, symBinAddr: 0x51F40, symSize: 0x70 }
  - { offsetInCU: 0x202F7, offset: 0x1D5EED, size: 0x8, addend: 0x0, symName: '__ZN4core3ptr67drop_in_place$LT$alloc..boxed..Box$LT$syn..attr..NestedMeta$GT$$GT$17hfdfea15fdaa022c0E.llvm.8262098347366796307', symObjAddr: 0x8C70, symBinAddr: 0x51FB0, symSize: 0x140 }
  - { offsetInCU: 0x20669, offset: 0x1D625F, size: 0x8, addend: 0x0, symName: '__ZN4core3ptr67drop_in_place$LT$alloc..boxed..Box$LT$syn..expr..FieldValue$GT$$GT$17h0b8603554cd7f804E', symObjAddr: 0x8DB0, symBinAddr: 0x520F0, symSize: 0xA0 }
  - { offsetInCU: 0x2090F, offset: 0x1D6505, size: 0x8, addend: 0x0, symName: '__ZN4core3ptr68drop_in_place$LT$alloc..boxed..Box$LT$syn..path..PathSegment$GT$$GT$17h17a0cf27e53a9363E', symObjAddr: 0x8E50, symBinAddr: 0x52190, symSize: 0xD0 }
  - { offsetInCU: 0x20D0D, offset: 0x1D6903, size: 0x8, addend: 0x0, symName: '__ZN4core3ptr70drop_in_place$LT$$LP$syn..attr..NestedMeta$C$syn..token..Comma$RP$$GT$17h55aef24d9a920025E.llvm.8262098347366796307', symObjAddr: 0x8F20, symBinAddr: 0x52260, symSize: 0x20 }
  - { offsetInCU: 0x20D49, offset: 0x1D693F, size: 0x8, addend: 0x0, symName: '__ZN4core3ptr70drop_in_place$LT$$LP$syn..expr..FieldValue$C$syn..token..Comma$RP$$GT$17h1d2ef53326bebb44E.llvm.8262098347366796307', symObjAddr: 0x8F40, symBinAddr: 0x52280, symSize: 0x80 }
  - { offsetInCU: 0x20E87, offset: 0x1D6A7D, size: 0x8, addend: 0x0, symName: '__ZN4core3ptr72drop_in_place$LT$$LP$syn..path..PathSegment$C$syn..token..Colon2$RP$$GT$17hc97452755bb121c1E.llvm.8262098347366796307', symObjAddr: 0x8FC0, symBinAddr: 0x52300, symSize: 0xC0 }
  - { offsetInCU: 0x2116C, offset: 0x1D6D62, size: 0x8, addend: 0x0, symName: '__ZN4core3ptr72drop_in_place$LT$alloc..boxed..Box$LT$syn..generics..LifetimeDef$GT$$GT$17hd2f491cba75500f3E.llvm.8262098347366796307', symObjAddr: 0x9080, symBinAddr: 0x523C0, symSize: 0xC0 }
  - { offsetInCU: 0x21649, offset: 0x1D723F, size: 0x8, addend: 0x0, symName: '__ZN4core3ptr72drop_in_place$LT$alloc..boxed..Box$LT$syn..path..GenericArgument$GT$$GT$17h705036888f832d7fE.llvm.8262098347366796307', symObjAddr: 0x9140, symBinAddr: 0x52480, symSize: 0x50 }
  - { offsetInCU: 0x217A4, offset: 0x1D739A, size: 0x8, addend: 0x0, symName: '__ZN4core3ptr73drop_in_place$LT$alloc..boxed..Box$LT$syn..generics..GenericParam$GT$$GT$17h82647cd23aed14e4E', symObjAddr: 0x9190, symBinAddr: 0x524D0, symSize: 0x80 }
  - { offsetInCU: 0x2191C, offset: 0x1D7512, size: 0x8, addend: 0x0, symName: '__ZN4core3ptr75drop_in_place$LT$$LP$syn..generics..LifetimeDef$C$syn..token..Comma$RP$$GT$17hc5208d1ab62d20b6E.llvm.8262098347366796307', symObjAddr: 0x9210, symBinAddr: 0x52550, symSize: 0xB0 }
  - { offsetInCU: 0x21D11, offset: 0x1D7907, size: 0x8, addend: 0x0, symName: '__ZN4core3ptr75drop_in_place$LT$$LP$syn..path..GenericArgument$C$syn..token..Comma$RP$$GT$17he79278720f160ac6E', symObjAddr: 0x92C0, symBinAddr: 0x52600, symSize: 0x1B0 }
  - { offsetInCU: 0x22310, offset: 0x1D7F06, size: 0x8, addend: 0x0, symName: '__ZN4core3ptr75drop_in_place$LT$alloc..boxed..Box$LT$syn..generics..TypeParamBound$GT$$GT$17h99181abc3971de95E', symObjAddr: 0x9470, symBinAddr: 0x527B0, symSize: 0x90 }
  - { offsetInCU: 0x225EF, offset: 0x1D81E5, size: 0x8, addend: 0x0, symName: '__ZN4core3ptr75drop_in_place$LT$alloc..boxed..Box$LT$syn..generics..WherePredicate$GT$$GT$17h5eac18e34f35296bE', symObjAddr: 0x9500, symBinAddr: 0x52840, symSize: 0xF0 }
  - { offsetInCU: 0x228D9, offset: 0x1D84CF, size: 0x8, addend: 0x0, symName: '__ZN4core3ptr76drop_in_place$LT$$LP$syn..generics..GenericParam$C$syn..token..Comma$RP$$GT$17hd3a94d55ec093247E', symObjAddr: 0x95F0, symBinAddr: 0x52930, symSize: 0x40 }
  - { offsetInCU: 0x22915, offset: 0x1D850B, size: 0x8, addend: 0x0, symName: '__ZN4core3ptr76drop_in_place$LT$$LP$syn..generics..TypeParamBound$C$syn..token..Add$RP$$GT$17ha5fe4b8748d57263E.llvm.8262098347366796307', symObjAddr: 0x9630, symBinAddr: 0x52970, symSize: 0x80 }
  - { offsetInCU: 0x22AB2, offset: 0x1D86A8, size: 0x8, addend: 0x0, symName: '__ZN4core3ptr78drop_in_place$LT$$LP$syn..generics..WherePredicate$C$syn..token..Comma$RP$$GT$17h65ff973fcb613e2aE.llvm.8262098347366796307', symObjAddr: 0x96B0, symBinAddr: 0x529F0, symSize: 0xE0 }
  - { offsetInCU: 0x22C68, offset: 0x1D885E, size: 0x8, addend: 0x0, symName: '__ZN4core3ptr78drop_in_place$LT$alloc..boxed..Box$LT$syn..expr..GenericMethodArgument$GT$$GT$17h125b58e28f8ce1d3E', symObjAddr: 0x9790, symBinAddr: 0x52AD0, symSize: 0x60 }
  - { offsetInCU: 0x22DE0, offset: 0x1D89D6, size: 0x8, addend: 0x0, symName: '__ZN4core3ptr81drop_in_place$LT$$LP$syn..expr..GenericMethodArgument$C$syn..token..Comma$RP$$GT$17h55df6b47d578c218E.llvm.8262098347366796307', symObjAddr: 0x97F0, symBinAddr: 0x52B30, symSize: 0x20 }
  - { offsetInCU: 0x22E1C, offset: 0x1D8A12, size: 0x8, addend: 0x0, symName: '__ZN4core3ptr86drop_in_place$LT$$LP$syn..token..If$C$alloc..boxed..Box$LT$syn..expr..Expr$GT$$RP$$GT$17h9bbd69ee1c7d5943E.llvm.8262098347366796307', symObjAddr: 0x9810, symBinAddr: 0x52B50, symSize: 0x50 }
  - { offsetInCU: 0x23012, offset: 0x1D8C08, size: 0x8, addend: 0x0, symName: '__ZN4core3ptr86drop_in_place$LT$syn..punctuated..Punctuated$LT$syn..pat..Pat$C$syn..token..Or$GT$$GT$17h10d2332b7ccfdf1eE', symObjAddr: 0x9860, symBinAddr: 0x52BA0, symSize: 0x120 }
  - { offsetInCU: 0x2346F, offset: 0x1D9065, size: 0x8, addend: 0x0, symName: '__ZN4core3ptr87drop_in_place$LT$core..option..Option$LT$alloc..boxed..Box$LT$syn..pat..Pat$GT$$GT$$GT$17h62af4636ac2a1884E', symObjAddr: 0x9980, symBinAddr: 0x52CC0, symSize: 0x50 }
  - { offsetInCU: 0x235E1, offset: 0x1D91D7, size: 0x8, addend: 0x0, symName: '__ZN4core3ptr87drop_in_place$LT$core..option..Option$LT$alloc..boxed..Box$LT$syn..ty..Type$GT$$GT$$GT$17h7e557e06c640adabE', symObjAddr: 0x99D0, symBinAddr: 0x52D10, symSize: 0x50 }
  - { offsetInCU: 0x23753, offset: 0x1D9349, size: 0x8, addend: 0x0, symName: '__ZN4core3ptr89drop_in_place$LT$core..option..Option$LT$alloc..boxed..Box$LT$syn..expr..Expr$GT$$GT$$GT$17hac1308b749c674f2E', symObjAddr: 0x9A20, symBinAddr: 0x52D60, symSize: 0x50 }
  - { offsetInCU: 0x238C5, offset: 0x1D94BB, size: 0x8, addend: 0x0, symName: '__ZN4core3ptr89drop_in_place$LT$syn..punctuated..Punctuated$LT$syn..ty..Type$C$syn..token..Comma$GT$$GT$17h1e45ff9808db47f0E.llvm.8262098347366796307', symObjAddr: 0x9A70, symBinAddr: 0x52DB0, symSize: 0x120 }
  - { offsetInCU: 0x23D0F, offset: 0x1D9905, size: 0x8, addend: 0x0, symName: '__ZN4core3ptr90drop_in_place$LT$core..option..Option$LT$alloc..boxed..Box$LT$syn..data..Field$GT$$GT$$GT$17hd200bc6fc7853267E', symObjAddr: 0x9B90, symBinAddr: 0x52ED0, symSize: 0x50 }
  - { offsetInCU: 0x23E81, offset: 0x1D9A77, size: 0x8, addend: 0x0, symName: '__ZN4core3ptr90drop_in_place$LT$core..option..Option$LT$alloc..boxed..Box$LT$syn..item..FnArg$GT$$GT$$GT$17h2256b1ffb23b386cE', symObjAddr: 0x9BE0, symBinAddr: 0x52F20, symSize: 0x50 }
  - { offsetInCU: 0x2406F, offset: 0x1D9C65, size: 0x8, addend: 0x0, symName: '__ZN4core3ptr91drop_in_place$LT$syn..punctuated..Punctuated$LT$syn..expr..Expr$C$syn..token..Comma$GT$$GT$17h188efc9d6d68d956E', symObjAddr: 0x9C30, symBinAddr: 0x52F70, symSize: 0x120 }
  - { offsetInCU: 0x244CC, offset: 0x1DA0C2, size: 0x8, addend: 0x0, symName: '__ZN4core3ptr92drop_in_place$LT$core..option..Option$LT$$LP$syn..token..As$C$proc_macro2..Ident$RP$$GT$$GT$17h9f7f27bb535907faE', symObjAddr: 0x9D50, symBinAddr: 0x53090, symSize: 0x30 }
  - { offsetInCU: 0x245E8, offset: 0x1DA1DE, size: 0x8, addend: 0x0, symName: '__ZN4core3ptr92drop_in_place$LT$syn..punctuated..Punctuated$LT$syn..data..Field$C$syn..token..Comma$GT$$GT$17h002919be81286387E', symObjAddr: 0x9D80, symBinAddr: 0x530C0, symSize: 0x120 }
  - { offsetInCU: 0x24A32, offset: 0x1DA628, size: 0x8, addend: 0x0, symName: '__ZN4core3ptr92drop_in_place$LT$syn..punctuated..Punctuated$LT$syn..item..FnArg$C$syn..token..Comma$GT$$GT$17h251d57b25b7a5525E', symObjAddr: 0x9EA0, symBinAddr: 0x531E0, symSize: 0x240 }
  - { offsetInCU: 0x255AB, offset: 0x1DB1A1, size: 0x8, addend: 0x0, symName: '__ZN4core3ptr93drop_in_place$LT$alloc..vec..Vec$LT$$LP$syn..attr..NestedMeta$C$syn..token..Comma$RP$$GT$$GT$17h482506ddd5c1908fE.llvm.8262098347366796307', symObjAddr: 0xA0E0, symBinAddr: 0x53420, symSize: 0xE0 }
  - { offsetInCU: 0x25920, offset: 0x1DB516, size: 0x8, addend: 0x0, symName: '__ZN4core3ptr94drop_in_place$LT$syn..punctuated..Punctuated$LT$syn..data..Variant$C$syn..token..Comma$GT$$GT$17h2083a1b59b201801E', symObjAddr: 0xA1C0, symBinAddr: 0x53500, symSize: 0x120 }
  - { offsetInCU: 0x25DF9, offset: 0x1DB9EF, size: 0x8, addend: 0x0, symName: '__ZN4core3ptr94drop_in_place$LT$syn..punctuated..Punctuated$LT$syn..pat..FieldPat$C$syn..token..Comma$GT$$GT$17h455f569edb4e6790E', symObjAddr: 0xA2E0, symBinAddr: 0x53620, symSize: 0xF0 }
  - { offsetInCU: 0x26171, offset: 0x1DBD67, size: 0x8, addend: 0x0, symName: '__ZN4core3ptr94drop_in_place$LT$syn..punctuated..Punctuated$LT$syn..ty..BareFnArg$C$syn..token..Comma$GT$$GT$17h587df0e54b9e0873E', symObjAddr: 0xA3D0, symBinAddr: 0x53710, symSize: 0x180 }
  - { offsetInCU: 0x265BA, offset: 0x1DC1B0, size: 0x8, addend: 0x0, symName: '__ZN4core3ptr95drop_in_place$LT$core..option..Option$LT$$LP$proc_macro2..Ident$C$syn..token..Colon$RP$$GT$$GT$17h475cd2d3452bfd63E.llvm.8262098347366796307', symObjAddr: 0xA550, symBinAddr: 0x53890, symSize: 0x30 }
  - { offsetInCU: 0x266D6, offset: 0x1DC2CC, size: 0x8, addend: 0x0, symName: '__ZN4core3ptr95drop_in_place$LT$core..option..Option$LT$alloc..boxed..Box$LT$syn..attr..NestedMeta$GT$$GT$$GT$17hf86abb0550b76c84E.llvm.8262098347366796307', symObjAddr: 0xA580, symBinAddr: 0x538C0, symSize: 0xA0 }
  - { offsetInCU: 0x2687A, offset: 0x1DC470, size: 0x8, addend: 0x0, symName: '__ZN4core3ptr96drop_in_place$LT$core..option..Option$LT$alloc..boxed..Box$LT$syn..path..PathSegment$GT$$GT$$GT$17h3bf14611e62f7b31E', symObjAddr: 0xA620, symBinAddr: 0x53960, symSize: 0x90 }
  - { offsetInCU: 0x26AFC, offset: 0x1DC6F2, size: 0x8, addend: 0x0, symName: '__ZN4core3ptr97drop_in_place$LT$syn..punctuated..Punctuated$LT$syn..attr..NestedMeta$C$syn..token..Comma$GT$$GT$17h9f99bd3ec63381bfE.llvm.8262098347366796307', symObjAddr: 0xA6B0, symBinAddr: 0x539F0, symSize: 0x110 }
  - { offsetInCU: 0x26E8F, offset: 0x1DCA85, size: 0x8, addend: 0x0, symName: '__ZN4core3ptr97drop_in_place$LT$syn..punctuated..Punctuated$LT$syn..expr..FieldValue$C$syn..token..Comma$GT$$GT$17ha3c034bbb8112aa3E', symObjAddr: 0xA7C0, symBinAddr: 0x53B00, symSize: 0x1A0 }
  - { offsetInCU: 0x273A2, offset: 0x1DCF98, size: 0x8, addend: 0x0, symName: '__ZN4core3ptr97drop_in_place$LT$syn..punctuated..Punctuated$LT$syn..lifetime..Lifetime$C$syn..token..Add$GT$$GT$17h48ddb49b6dc35979E.llvm.8262098347366796307', symObjAddr: 0xA960, symBinAddr: 0x53CA0, symSize: 0xC0 }
  - { offsetInCU: 0x27805, offset: 0x1DD3FB, size: 0x8, addend: 0x0, symName: '__ZN4core3ptr99drop_in_place$LT$syn..punctuated..Punctuated$LT$syn..path..PathSegment$C$syn..token..Colon2$GT$$GT$17h843d9c3edae9de24E.llvm.8262098347366796307', symObjAddr: 0xAA20, symBinAddr: 0x53D60, symSize: 0x1A0 }
  - { offsetInCU: 0x2F678, offset: 0x1E526E, size: 0x8, addend: 0x0, symName: '__ZN70_$LT$alloc..vec..Vec$LT$T$C$A$GT$$u20$as$u20$core..ops..drop..Drop$GT$4drop17h2222832bebf8442aE', symObjAddr: 0xAFB0, symBinAddr: 0x54290, symSize: 0x560 }
  - { offsetInCU: 0x308C4, offset: 0x1E64BA, size: 0x8, addend: 0x0, symName: '__ZN70_$LT$alloc..vec..Vec$LT$T$C$A$GT$$u20$as$u20$core..ops..drop..Drop$GT$4drop17h35dfb9fc6a9d2adeE', symObjAddr: 0xB610, symBinAddr: 0x547F0, symSize: 0x90 }
  - { offsetInCU: 0x309CA, offset: 0x1E65C0, size: 0x8, addend: 0x0, symName: '__ZN70_$LT$alloc..vec..Vec$LT$T$C$A$GT$$u20$as$u20$core..ops..drop..Drop$GT$4drop17h5a3fc7e0d79501d6E', symObjAddr: 0xB7F0, symBinAddr: 0x54880, symSize: 0xD0 }
  - { offsetInCU: 0x30B93, offset: 0x1E6789, size: 0x8, addend: 0x0, symName: '__ZN70_$LT$alloc..vec..Vec$LT$T$C$A$GT$$u20$as$u20$core..ops..drop..Drop$GT$4drop17h5e0ed7c43c4a6f40E', symObjAddr: 0xB940, symBinAddr: 0x54950, symSize: 0xD0 }
  - { offsetInCU: 0x30D60, offset: 0x1E6956, size: 0x8, addend: 0x0, symName: '__ZN70_$LT$alloc..vec..Vec$LT$T$C$A$GT$$u20$as$u20$core..ops..drop..Drop$GT$4drop17haab0fac459b63136E', symObjAddr: 0xBB60, symBinAddr: 0x54A20, symSize: 0x90 }
  - { offsetInCU: 0x30E0D, offset: 0x1E6A03, size: 0x8, addend: 0x0, symName: '__ZN70_$LT$alloc..vec..Vec$LT$T$C$A$GT$$u20$as$u20$core..ops..drop..Drop$GT$4drop17hf64c3834856fda03E', symObjAddr: 0xBE00, symBinAddr: 0x54AB0, symSize: 0xD0 }
  - { offsetInCU: 0x30FDB, offset: 0x1E6BD1, size: 0x8, addend: 0x0, symName: '__ZN67_$LT$alloc..vec..Vec$LT$T$C$A$GT$$u20$as$u20$core..clone..Clone$GT$5clone17hc26b38c3e5d20c5fE', symObjAddr: 0xAC20, symBinAddr: 0x53F00, symSize: 0x390 }
  - { offsetInCU: 0x1E, offset: 0x1EDEA8, size: 0x8, addend: 0x0, symName: '__ZN100_$LT$syn..punctuated..PrivateIter$LT$T$C$P$GT$$u20$as$u20$core..iter..traits..iterator..Iterator$GT$4next17h0ce311022e038272E.llvm.3230918147195606113', symObjAddr: 0x0, symBinAddr: 0x54B80, symSize: 0x30 }
  - { offsetInCU: 0x68B, offset: 0x1EE515, size: 0x8, addend: 0x0, symName: '__ZN100_$LT$syn..punctuated..PrivateIter$LT$T$C$P$GT$$u20$as$u20$core..iter..traits..iterator..Iterator$GT$4next17h0ce311022e038272E.llvm.3230918147195606113', symObjAddr: 0x0, symBinAddr: 0x54B80, symSize: 0x30 }
  - { offsetInCU: 0x90B, offset: 0x1EE795, size: 0x8, addend: 0x0, symName: '__ZN100_$LT$syn..punctuated..PrivateIter$LT$T$C$P$GT$$u20$as$u20$core..iter..traits..iterator..Iterator$GT$4next17h6fdb9ec261dd5effE.llvm.3230918147195606113', symObjAddr: 0x30, symBinAddr: 0x54BB0, symSize: 0x30 }
  - { offsetInCU: 0xB8B, offset: 0x1EEA15, size: 0x8, addend: 0x0, symName: '__ZN100_$LT$syn..punctuated..PrivateIter$LT$T$C$P$GT$$u20$as$u20$core..iter..traits..iterator..Iterator$GT$4next17h7a7e5c3ef7e62825E.llvm.3230918147195606113', symObjAddr: 0x60, symBinAddr: 0x54BE0, symSize: 0x30 }
  - { offsetInCU: 0xEA1, offset: 0x1EED2B, size: 0x8, addend: 0x0, symName: '__ZN111_$LT$syn..punctuated..PrivateIter$LT$T$C$P$GT$$u20$as$u20$core..iter..traits..exact_size..ExactSizeIterator$GT$3len17hff5f928b83a89b98E.llvm.3230918147195606113', symObjAddr: 0xF0, symBinAddr: 0x54C10, symSize: 0x30 }
  - { offsetInCU: 0x1013, offset: 0x1EEE9D, size: 0x8, addend: 0x0, symName: '__ZN115_$LT$syn..punctuated..PrivateIter$LT$T$C$P$GT$$u20$as$u20$core..iter..traits..double_ended..DoubleEndedIterator$GT$9next_back17h2f458dfd47523cf6E.llvm.3230918147195606113', symObjAddr: 0x120, symBinAddr: 0x54C40, symSize: 0x30 }
  - { offsetInCU: 0x135C, offset: 0x1EF1E6, size: 0x8, addend: 0x0, symName: '__ZN57_$LT$I$u20$as$u20$syn..punctuated..IterTrait$LT$T$GT$$GT$9clone_box17hdb18f0288c0579baE.llvm.3230918147195606113', symObjAddr: 0x5FC0, symBinAddr: 0x5A380, symSize: 0x60 }
  - { offsetInCU: 0x93CD, offset: 0x1F7257, size: 0x8, addend: 0x0, symName: '__ZN4core3ptr100drop_in_place$LT$core..option..Option$LT$alloc..boxed..Box$LT$syn..generics..LifetimeDef$GT$$GT$$GT$17hb1ebaab36787e90eE.llvm.3230918147195606113', symObjAddr: 0x4C0, symBinAddr: 0x54E30, symSize: 0xF0 }
  - { offsetInCU: 0x9964, offset: 0x1F77EE, size: 0x8, addend: 0x0, symName: '__ZN4core3ptr100drop_in_place$LT$core..option..Option$LT$alloc..boxed..Box$LT$syn..path..GenericArgument$GT$$GT$$GT$17hd06bf3b107f2a3d5E', symObjAddr: 0x5B0, symBinAddr: 0x54F20, symSize: 0x50 }
  - { offsetInCU: 0x9B33, offset: 0x1F79BD, size: 0x8, addend: 0x0, symName: '__ZN4core3ptr103drop_in_place$LT$core..option..Option$LT$alloc..boxed..Box$LT$syn..generics..TypeParamBound$GT$$GT$$GT$17hfcd8207f8a028c2bE', symObjAddr: 0x600, symBinAddr: 0x54F70, symSize: 0x90 }
  - { offsetInCU: 0x9EAF, offset: 0x1F7D39, size: 0x8, addend: 0x0, symName: '__ZN4core3ptr103drop_in_place$LT$syn..punctuated..Punctuated$LT$syn..generics..TypeParamBound$C$syn..token..Add$GT$$GT$17h716b45ea8ea72241E.llvm.3230918147195606113', symObjAddr: 0x690, symBinAddr: 0x55000, symSize: 0x1B0 }
  - { offsetInCU: 0xA6A6, offset: 0x1F8530, size: 0x8, addend: 0x0, symName: '__ZN4core3ptr108drop_in_place$LT$syn..punctuated..Punctuated$LT$syn..expr..GenericMethodArgument$C$syn..token..Comma$GT$$GT$17h5887c08eb66a3c56E', symObjAddr: 0x840, symBinAddr: 0x551B0, symSize: 0x160 }
  - { offsetInCU: 0xABBB, offset: 0x1F8A45, size: 0x8, addend: 0x0, symName: '__ZN4core3ptr34drop_in_place$LT$syn..lit..Lit$GT$17hda325bcb34e6f29aE', symObjAddr: 0x9A0, symBinAddr: 0x55310, symSize: 0x110 }
  - { offsetInCU: 0xB098, offset: 0x1F8F22, size: 0x8, addend: 0x0, symName: '__ZN4core3ptr34drop_in_place$LT$syn..pat..Pat$GT$17h599075e73d06762fE', symObjAddr: 0xAB0, symBinAddr: 0x55420, symSize: 0xB10 }
  - { offsetInCU: 0xE004, offset: 0x1FBE8E, size: 0x8, addend: 0x0, symName: '__ZN4core3ptr34drop_in_place$LT$syn..ty..Type$GT$17h2c4c601c36c94dd9E.llvm.3230918147195606113', symObjAddr: 0x15C0, symBinAddr: 0x55F30, symSize: 0x4B0 }
  - { offsetInCU: 0xF77C, offset: 0x1FD606, size: 0x8, addend: 0x0, symName: '__ZN4core3ptr36drop_in_place$LT$syn..expr..Expr$GT$17h8c447d897a47cbcdE', symObjAddr: 0x1A70, symBinAddr: 0x563E0, symSize: 0x1E70 }
  - { offsetInCU: 0x179AF, offset: 0x205839, size: 0x8, addend: 0x0, symName: '__ZN4core3ptr36drop_in_place$LT$syn..mac..Macro$GT$17h93596ae7f4fc42efE', symObjAddr: 0x38E0, symBinAddr: 0x58250, symSize: 0x40 }
  - { offsetInCU: 0x17B00, offset: 0x20598A, size: 0x8, addend: 0x0, symName: '__ZN4core3ptr36drop_in_place$LT$syn..path..Path$GT$17h61f6e6a2feab5ba3E', symObjAddr: 0x3920, symBinAddr: 0x58290, symSize: 0x1E0 }
  - { offsetInCU: 0x183A5, offset: 0x20622F, size: 0x8, addend: 0x0, symName: '__ZN4core3ptr37drop_in_place$LT$syn..stmt..Block$GT$17hd6ce716f7e6e81c0E', symObjAddr: 0x3B00, symBinAddr: 0x58470, symSize: 0xD0 }
  - { offsetInCU: 0x18649, offset: 0x2064D3, size: 0x8, addend: 0x0, symName: '__ZN4core3ptr38drop_in_place$LT$syn..expr..Member$GT$17h3f07ac8135c2055bE', symObjAddr: 0x3BD0, symBinAddr: 0x58540, symSize: 0x30 }
  - { offsetInCU: 0x18746, offset: 0x2065D0, size: 0x8, addend: 0x0, symName: '__ZN4core3ptr39drop_in_place$LT$proc_macro2..Ident$GT$17hc5fc300e4ebe152dE', symObjAddr: 0x3C00, symBinAddr: 0x58570, symSize: 0x30 }
  - { offsetInCU: 0x18824, offset: 0x2066AE, size: 0x8, addend: 0x0, symName: '__ZN4core3ptr39drop_in_place$LT$syn..pat..PatTuple$GT$17ha0e5c031ab222142E', symObjAddr: 0x3C30, symBinAddr: 0x585A0, symSize: 0x80 }
  - { offsetInCU: 0x18A2C, offset: 0x2068B6, size: 0x8, addend: 0x0, symName: '__ZN4core3ptr40drop_in_place$LT$syn..ty..ReturnType$GT$17hf7ceb83f634aa2f1E', symObjAddr: 0x3CB0, symBinAddr: 0x58620, symSize: 0x50 }
  - { offsetInCU: 0x18CD4, offset: 0x206B5E, size: 0x8, addend: 0x0, symName: '__ZN4core3ptr45drop_in_place$LT$proc_macro2..TokenStream$GT$17h323de8357bb3343eE', symObjAddr: 0x3D00, symBinAddr: 0x58670, symSize: 0x140 }
  - { offsetInCU: 0x19143, offset: 0x206FCD, size: 0x8, addend: 0x0, symName: '__ZN4core3ptr47drop_in_place$LT$syn..path..GenericArgument$GT$17h4f6067f5bcfbc632E', symObjAddr: 0x3E40, symBinAddr: 0x587B0, symSize: 0xE0 }
  - { offsetInCU: 0x194BA, offset: 0x207344, size: 0x8, addend: 0x0, symName: '__ZN4core3ptr50drop_in_place$LT$syn..generics..WherePredicate$GT$17h073070a2e98eaf57E.llvm.3230918147195606113', symObjAddr: 0x3F20, symBinAddr: 0x58890, symSize: 0xD0 }
  - { offsetInCU: 0x19638, offset: 0x2074C2, size: 0x8, addend: 0x0, symName: '__ZN4core3ptr58drop_in_place$LT$alloc..vec..Vec$LT$syn..expr..Arm$GT$$GT$17hea67c6cc4a6d8fc7E', symObjAddr: 0x3FF0, symBinAddr: 0x58960, symSize: 0xD0 }
  - { offsetInCU: 0x198C5, offset: 0x20774F, size: 0x8, addend: 0x0, symName: '__ZN4core3ptr59drop_in_place$LT$alloc..boxed..Box$LT$syn..pat..Pat$GT$$GT$17hc0ae2d13b6413492E', symObjAddr: 0x40C0, symBinAddr: 0x58A30, symSize: 0x50 }
  - { offsetInCU: 0x19A20, offset: 0x2078AA, size: 0x8, addend: 0x0, symName: '__ZN4core3ptr59drop_in_place$LT$alloc..boxed..Box$LT$syn..ty..Type$GT$$GT$17ha426b7a17f4d920bE', symObjAddr: 0x4110, symBinAddr: 0x58A80, symSize: 0x50 }
  - { offsetInCU: 0x19B7B, offset: 0x207A05, size: 0x8, addend: 0x0, symName: '__ZN4core3ptr61drop_in_place$LT$alloc..boxed..Box$LT$syn..expr..Expr$GT$$GT$17hdd7cb29ef2f233b5E', symObjAddr: 0x4160, symBinAddr: 0x58AD0, symSize: 0x50 }
  - { offsetInCU: 0x19D52, offset: 0x207BDC, size: 0x8, addend: 0x0, symName: '__ZN4core3ptr61drop_in_place$LT$syn..path..ParenthesizedGenericArguments$GT$17h48cffc44bfbce871E', symObjAddr: 0x41B0, symBinAddr: 0x58B20, symSize: 0x170 }
  - { offsetInCU: 0x1A319, offset: 0x2081A3, size: 0x8, addend: 0x0, symName: '__ZN4core3ptr63drop_in_place$LT$alloc..boxed..Box$LT$syn..lit..LitRepr$GT$$GT$17h66c49d60e5a75320E', symObjAddr: 0x4320, symBinAddr: 0x58C90, symSize: 0x60 }
  - { offsetInCU: 0x1A60E, offset: 0x208498, size: 0x8, addend: 0x0, symName: '__ZN4core3ptr64drop_in_place$LT$alloc..boxed..Box$LT$syn..pat..FieldPat$GT$$GT$17h35d811900e2d6065E', symObjAddr: 0x4380, symBinAddr: 0x58CF0, symSize: 0x100 }
  - { offsetInCU: 0x1AC29, offset: 0x208AB3, size: 0x8, addend: 0x0, symName: '__ZN4core3ptr64drop_in_place$LT$alloc..boxed..Box$LT$syn..ty..BareFnArg$GT$$GT$17h356d9fd263d1d06eE', symObjAddr: 0x4480, symBinAddr: 0x58DF0, symSize: 0xE0 }
  - { offsetInCU: 0x1B0AF, offset: 0x208F39, size: 0x8, addend: 0x0, symName: '__ZN4core3ptr65drop_in_place$LT$core..option..Option$LT$syn..expr..Label$GT$$GT$17h16f4c70e31d331bcE', symObjAddr: 0x4560, symBinAddr: 0x58ED0, symSize: 0x30 }
  - { offsetInCU: 0x1B1EA, offset: 0x209074, size: 0x8, addend: 0x0, symName: '__ZN4core3ptr66drop_in_place$LT$core..option..Option$LT$syn..ty..Variadic$GT$$GT$17he5249964d25ac4b4E', symObjAddr: 0x4590, symBinAddr: 0x58F00, symSize: 0x80 }
  - { offsetInCU: 0x1B440, offset: 0x2092CA, size: 0x8, addend: 0x0, symName: '__ZN4core3ptr67drop_in_place$LT$alloc..boxed..Box$LT$syn..expr..FieldValue$GT$$GT$17h0b8603554cd7f804E', symObjAddr: 0x4610, symBinAddr: 0x58F80, symSize: 0xF0 }
  - { offsetInCU: 0x1B8D1, offset: 0x20975B, size: 0x8, addend: 0x0, symName: '__ZN4core3ptr68drop_in_place$LT$alloc..boxed..Box$LT$syn..path..PathSegment$GT$$GT$17h17a0cf27e53a9363E', symObjAddr: 0x4700, symBinAddr: 0x59070, symSize: 0x140 }
  - { offsetInCU: 0x1BF3E, offset: 0x209DC8, size: 0x8, addend: 0x0, symName: '__ZN4core3ptr72drop_in_place$LT$alloc..boxed..Box$LT$syn..path..GenericArgument$GT$$GT$17h705036888f832d7fE', symObjAddr: 0x4840, symBinAddr: 0x591B0, symSize: 0x150 }
  - { offsetInCU: 0x1C5AB, offset: 0x20A435, size: 0x8, addend: 0x0, symName: '__ZN4core3ptr72drop_in_place$LT$core..option..Option$LT$syn..lifetime..Lifetime$GT$$GT$17h1fe84178ca026accE', symObjAddr: 0x4990, symBinAddr: 0x59300, symSize: 0x30 }
  - { offsetInCU: 0x1C6C7, offset: 0x20A551, size: 0x8, addend: 0x0, symName: '__ZN4core3ptr75drop_in_place$LT$alloc..boxed..Box$LT$syn..generics..TypeParamBound$GT$$GT$17h99181abc3971de95E', symObjAddr: 0x49C0, symBinAddr: 0x59330, symSize: 0x140 }
  - { offsetInCU: 0x1CBFC, offset: 0x20AA86, size: 0x8, addend: 0x0, symName: '__ZN4core3ptr78drop_in_place$LT$alloc..boxed..Box$LT$syn..expr..GenericMethodArgument$GT$$GT$17h125b58e28f8ce1d3E', symObjAddr: 0x4B00, symBinAddr: 0x59470, symSize: 0x60 }
  - { offsetInCU: 0x1CDF0, offset: 0x20AC7A, size: 0x8, addend: 0x0, symName: '__ZN4core3ptr78drop_in_place$LT$core..option..Option$LT$syn..generics..BoundLifetimes$GT$$GT$17he652ddd46a271117E.llvm.3230918147195606113', symObjAddr: 0x4B60, symBinAddr: 0x594D0, symSize: 0xE0 }
  - { offsetInCU: 0x1D0D4, offset: 0x20AF5E, size: 0x8, addend: 0x0, symName: '__ZN4core3ptr86drop_in_place$LT$syn..punctuated..Punctuated$LT$syn..pat..Pat$C$syn..token..Or$GT$$GT$17h10d2332b7ccfdf1eE', symObjAddr: 0x4C40, symBinAddr: 0x595B0, symSize: 0x120 }
  - { offsetInCU: 0x1D51A, offset: 0x20B3A4, size: 0x8, addend: 0x0, symName: '__ZN4core3ptr87drop_in_place$LT$core..option..Option$LT$alloc..boxed..Box$LT$syn..pat..Pat$GT$$GT$$GT$17h62af4636ac2a1884E', symObjAddr: 0x4D60, symBinAddr: 0x596D0, symSize: 0x50 }
  - { offsetInCU: 0x1D68C, offset: 0x20B516, size: 0x8, addend: 0x0, symName: '__ZN4core3ptr87drop_in_place$LT$core..option..Option$LT$alloc..boxed..Box$LT$syn..ty..Type$GT$$GT$$GT$17h7e557e06c640adabE', symObjAddr: 0x4DB0, symBinAddr: 0x59720, symSize: 0x50 }
  - { offsetInCU: 0x1D7FE, offset: 0x20B688, size: 0x8, addend: 0x0, symName: '__ZN4core3ptr89drop_in_place$LT$core..option..Option$LT$alloc..boxed..Box$LT$syn..expr..Expr$GT$$GT$$GT$17hac1308b749c674f2E', symObjAddr: 0x4E00, symBinAddr: 0x59770, symSize: 0x50 }
  - { offsetInCU: 0x1D9AE, offset: 0x20B838, size: 0x8, addend: 0x0, symName: '__ZN4core3ptr89drop_in_place$LT$syn..punctuated..Punctuated$LT$syn..pat..Pat$C$syn..token..Comma$GT$$GT$17hb21a89d073c38473E', symObjAddr: 0x4E50, symBinAddr: 0x597C0, symSize: 0x120 }
  - { offsetInCU: 0x1DE0B, offset: 0x20BC95, size: 0x8, addend: 0x0, symName: '__ZN4core3ptr89drop_in_place$LT$syn..punctuated..Punctuated$LT$syn..ty..Type$C$syn..token..Comma$GT$$GT$17h1e45ff9808db47f0E', symObjAddr: 0x4F70, symBinAddr: 0x598E0, symSize: 0x120 }
  - { offsetInCU: 0x1E293, offset: 0x20C11D, size: 0x8, addend: 0x0, symName: '__ZN4core3ptr91drop_in_place$LT$syn..punctuated..Punctuated$LT$syn..expr..Expr$C$syn..token..Comma$GT$$GT$17h188efc9d6d68d956E', symObjAddr: 0x5090, symBinAddr: 0x59A00, symSize: 0x120 }
  - { offsetInCU: 0x1E6F0, offset: 0x20C57A, size: 0x8, addend: 0x0, symName: '__ZN4core3ptr93drop_in_place$LT$syn..punctuated..PrivateIter$LT$syn..data..Field$C$syn..token..Comma$GT$$GT$17h680d10d9fb6cd23fE.llvm.3230918147195606113', symObjAddr: 0x51B0, symBinAddr: 0x59B20, symSize: 0x0 }
  - { offsetInCU: 0x1E71C, offset: 0x20C5A6, size: 0x8, addend: 0x0, symName: '__ZN4core3ptr94drop_in_place$LT$syn..punctuated..Punctuated$LT$syn..pat..FieldPat$C$syn..token..Comma$GT$$GT$17h455f569edb4e6790E', symObjAddr: 0x51C0, symBinAddr: 0x59B30, symSize: 0xF0 }
  - { offsetInCU: 0x1E9E6, offset: 0x20C870, size: 0x8, addend: 0x0, symName: '__ZN4core3ptr94drop_in_place$LT$syn..punctuated..Punctuated$LT$syn..ty..BareFnArg$C$syn..token..Comma$GT$$GT$17h587df0e54b9e0873E', symObjAddr: 0x52B0, symBinAddr: 0x59C20, symSize: 0x90 }
  - { offsetInCU: 0x1EC1C, offset: 0x20CAA6, size: 0x8, addend: 0x0, symName: '__ZN4core3ptr96drop_in_place$LT$core..option..Option$LT$alloc..boxed..Box$LT$syn..path..PathSegment$GT$$GT$$GT$17h3bf14611e62f7b31E', symObjAddr: 0x5340, symBinAddr: 0x59CB0, symSize: 0x120 }
  - { offsetInCU: 0x1F23C, offset: 0x20D0C6, size: 0x8, addend: 0x0, symName: '__ZN4core3ptr97drop_in_place$LT$syn..punctuated..Punctuated$LT$syn..expr..FieldValue$C$syn..token..Comma$GT$$GT$17ha3c034bbb8112aa3E', symObjAddr: 0x54B0, symBinAddr: 0x59DD0, symSize: 0x90 }
  - { offsetInCU: 0x1F4CF, offset: 0x20D359, size: 0x8, addend: 0x0, symName: '__ZN4core3ptr97drop_in_place$LT$syn..punctuated..Punctuated$LT$syn..lifetime..Lifetime$C$syn..token..Add$GT$$GT$17h48ddb49b6dc35979E.llvm.3230918147195606113', symObjAddr: 0x5540, symBinAddr: 0x59E60, symSize: 0xC0 }
  - { offsetInCU: 0x1F947, offset: 0x20D7D1, size: 0x8, addend: 0x0, symName: '__ZN4core3ptr99drop_in_place$LT$syn..punctuated..Punctuated$LT$syn..path..PathSegment$C$syn..token..Colon2$GT$$GT$17h843d9c3edae9de24E', symObjAddr: 0x5600, symBinAddr: 0x59F20, symSize: 0x210 }
  - { offsetInCU: 0x22C77, offset: 0x210B01, size: 0x8, addend: 0x0, symName: __ZN4core4iter6traits10exact_size17ExactSizeIterator8is_empty17heba66b541d2da671E.llvm.3230918147195606113, symObjAddr: 0x5870, symBinAddr: 0x5A130, symSize: 0x30 }
  - { offsetInCU: 0x22DC4, offset: 0x210C4E, size: 0x8, addend: 0x0, symName: __ZN4core4iter6traits12double_ended19DoubleEndedIterator15advance_back_by17hbf102522eb5f015fE.llvm.3230918147195606113, symObjAddr: 0x59A0, symBinAddr: 0x5A160, symSize: 0x70 }
  - { offsetInCU: 0x23002, offset: 0x210E8C, size: 0x8, addend: 0x0, symName: __ZN4core4iter6traits12double_ended19DoubleEndedIterator8nth_back17hf27548aa8bc3c95aE.llvm.3230918147195606113, symObjAddr: 0x5B70, symBinAddr: 0x5A1D0, symSize: 0xB0 }
  - { offsetInCU: 0x23497, offset: 0x211321, size: 0x8, addend: 0x0, symName: __ZN4core4iter6traits8iterator8Iterator10advance_by17h377b9000183c606aE.llvm.3230918147195606113, symObjAddr: 0x5C90, symBinAddr: 0x5A280, symSize: 0x60 }
  - { offsetInCU: 0x237EF, offset: 0x211679, size: 0x8, addend: 0x0, symName: __ZN4core4iter6traits8iterator8Iterator3nth17h41f1f3262eb3816eE.llvm.3230918147195606113, symObjAddr: 0x5DE0, symBinAddr: 0x5A2E0, symSize: 0x80 }
  - { offsetInCU: 0x23D95, offset: 0x211C1F, size: 0x8, addend: 0x0, symName: __ZN4core4iter6traits8iterator8Iterator9size_hint17h66586371627f2f37E.llvm.3230918147195606113, symObjAddr: 0x5EE0, symBinAddr: 0x5A360, symSize: 0x0 }
  - { offsetInCU: 0x2467B, offset: 0x212505, size: 0x8, addend: 0x0, symName: _anon.a6abb621c74d394d6117d2355f289a13.8.llvm.3230918147195606113, symObjAddr: 0x6E20, symBinAddr: 0x298908, symSize: 0x0 }
  - { offsetInCU: 0x25108, offset: 0x212F92, size: 0x8, addend: 0x0, symName: '__ZN3syn10punctuated23Punctuated$LT$T$C$P$GT$4push17h9701c0517b5571d3E', symObjAddr: 0x300, symBinAddr: 0x54C70, symSize: 0x1C0 }
  - { offsetInCU: 0x1E, offset: 0x215D37, size: 0x8, addend: 0x0, symName: '__ZN4core3ptr100drop_in_place$LT$core..option..Option$LT$alloc..boxed..Box$LT$syn..generics..LifetimeDef$GT$$GT$$GT$17hb1ebaab36787e90eE', symObjAddr: 0x0, symBinAddr: 0x5A3E0, symSize: 0xF0 }
  - { offsetInCU: 0x60, offset: 0x215D79, size: 0x8, addend: 0x0, symName: '__ZN70_$LT$core..num..error..TryFromIntError$u20$as$u20$core..fmt..Debug$GT$3fmt17hc0f971d0e5e88256E', symObjAddr: 0x5490, symBinAddr: 0x5F870, symSize: 0x40 }
  - { offsetInCU: 0x1489, offset: 0x2171A2, size: 0x8, addend: 0x0, symName: '__ZN4core3ptr100drop_in_place$LT$core..option..Option$LT$alloc..boxed..Box$LT$syn..generics..LifetimeDef$GT$$GT$$GT$17hb1ebaab36787e90eE', symObjAddr: 0x0, symBinAddr: 0x5A3E0, symSize: 0xF0 }
  - { offsetInCU: 0x1A20, offset: 0x217739, size: 0x8, addend: 0x0, symName: '__ZN4core3ptr100drop_in_place$LT$core..option..Option$LT$alloc..boxed..Box$LT$syn..path..GenericArgument$GT$$GT$$GT$17hd06bf3b107f2a3d5E', symObjAddr: 0xF0, symBinAddr: 0x5A4D0, symSize: 0x50 }
  - { offsetInCU: 0x1BEF, offset: 0x217908, size: 0x8, addend: 0x0, symName: '__ZN4core3ptr103drop_in_place$LT$core..option..Option$LT$alloc..boxed..Box$LT$syn..generics..TypeParamBound$GT$$GT$$GT$17hfcd8207f8a028c2bE', symObjAddr: 0x140, symBinAddr: 0x5A520, symSize: 0x90 }
  - { offsetInCU: 0x1F2D, offset: 0x217C46, size: 0x8, addend: 0x0, symName: '__ZN4core3ptr103drop_in_place$LT$core..option..Option$LT$alloc..boxed..Box$LT$syn..generics..WherePredicate$GT$$GT$$GT$17h12988340d4e02927E', symObjAddr: 0x1D0, symBinAddr: 0x5A5B0, symSize: 0x100 }
  - { offsetInCU: 0x22D9, offset: 0x217FF2, size: 0x8, addend: 0x0, symName: '__ZN4core3ptr103drop_in_place$LT$syn..punctuated..Punctuated$LT$syn..generics..TypeParamBound$C$syn..token..Add$GT$$GT$17h716b45ea8ea72241E', symObjAddr: 0x2D0, symBinAddr: 0x5A6B0, symSize: 0x1B0 }
  - { offsetInCU: 0x2AD0, offset: 0x2187E9, size: 0x8, addend: 0x0, symName: '__ZN4core3ptr108drop_in_place$LT$syn..punctuated..Punctuated$LT$syn..expr..GenericMethodArgument$C$syn..token..Comma$GT$$GT$17h5887c08eb66a3c56E', symObjAddr: 0x480, symBinAddr: 0x5A860, symSize: 0x160 }
  - { offsetInCU: 0x2F2B, offset: 0x218C44, size: 0x8, addend: 0x0, symName: '__ZN4core3ptr33drop_in_place$LT$$RF$$LP$$RP$$GT$17h7ef36e31bdb1ce8fE', symObjAddr: 0x5E0, symBinAddr: 0x5A9C0, symSize: 0x10 }
  - { offsetInCU: 0x3011, offset: 0x218D2A, size: 0x8, addend: 0x0, symName: '__ZN4core3ptr34drop_in_place$LT$syn..lit..Lit$GT$17hda325bcb34e6f29aE', symObjAddr: 0x5F0, symBinAddr: 0x5A9D0, symSize: 0x110 }
  - { offsetInCU: 0x34EE, offset: 0x219207, size: 0x8, addend: 0x0, symName: '__ZN4core3ptr34drop_in_place$LT$syn..pat..Pat$GT$17h599075e73d06762fE', symObjAddr: 0x700, symBinAddr: 0x5AAE0, symSize: 0xB10 }
  - { offsetInCU: 0x645A, offset: 0x21C173, size: 0x8, addend: 0x0, symName: '__ZN4core3ptr34drop_in_place$LT$syn..ty..Type$GT$17h2c4c601c36c94dd9E', symObjAddr: 0x1210, symBinAddr: 0x5B5F0, symSize: 0x4B0 }
  - { offsetInCU: 0x7BD2, offset: 0x21D8EB, size: 0x8, addend: 0x0, symName: '__ZN4core3ptr36drop_in_place$LT$syn..expr..Expr$GT$17h8c447d897a47cbcdE', symObjAddr: 0x16C0, symBinAddr: 0x5BAA0, symSize: 0x1E70 }
  - { offsetInCU: 0xFE05, offset: 0x225B1E, size: 0x8, addend: 0x0, symName: '__ZN4core3ptr36drop_in_place$LT$syn..mac..Macro$GT$17h93596ae7f4fc42efE', symObjAddr: 0x3530, symBinAddr: 0x5D910, symSize: 0x40 }
  - { offsetInCU: 0xFF56, offset: 0x225C6F, size: 0x8, addend: 0x0, symName: '__ZN4core3ptr36drop_in_place$LT$syn..path..Path$GT$17h61f6e6a2feab5ba3E', symObjAddr: 0x3570, symBinAddr: 0x5D950, symSize: 0x1E0 }
  - { offsetInCU: 0x107FB, offset: 0x226514, size: 0x8, addend: 0x0, symName: '__ZN4core3ptr37drop_in_place$LT$syn..stmt..Block$GT$17hd6ce716f7e6e81c0E', symObjAddr: 0x3750, symBinAddr: 0x5DB30, symSize: 0xD0 }
  - { offsetInCU: 0x10ADD, offset: 0x2267F6, size: 0x8, addend: 0x0, symName: '__ZN4core3ptr38drop_in_place$LT$syn..error..Error$GT$17h33326dc27e0d553aE', symObjAddr: 0x3820, symBinAddr: 0x5DC00, symSize: 0x70 }
  - { offsetInCU: 0x10DAE, offset: 0x226AC7, size: 0x8, addend: 0x0, symName: '__ZN4core3ptr38drop_in_place$LT$syn..expr..Member$GT$17h3f07ac8135c2055bE', symObjAddr: 0x3890, symBinAddr: 0x5DC70, symSize: 0x30 }
  - { offsetInCU: 0x10EAB, offset: 0x226BC4, size: 0x8, addend: 0x0, symName: '__ZN4core3ptr39drop_in_place$LT$proc_macro2..Ident$GT$17hc5fc300e4ebe152dE', symObjAddr: 0x38C0, symBinAddr: 0x5DCA0, symSize: 0x30 }
  - { offsetInCU: 0x10F89, offset: 0x226CA2, size: 0x8, addend: 0x0, symName: '__ZN4core3ptr39drop_in_place$LT$syn..pat..PatTuple$GT$17ha0e5c031ab222142E', symObjAddr: 0x38F0, symBinAddr: 0x5DCD0, symSize: 0x80 }
  - { offsetInCU: 0x11191, offset: 0x226EAA, size: 0x8, addend: 0x0, symName: '__ZN4core3ptr40drop_in_place$LT$syn..ty..ReturnType$GT$17hf7ceb83f634aa2f1E', symObjAddr: 0x3970, symBinAddr: 0x5DD50, symSize: 0x50 }
  - { offsetInCU: 0x11439, offset: 0x227152, size: 0x8, addend: 0x0, symName: '__ZN4core3ptr45drop_in_place$LT$proc_macro2..TokenStream$GT$17h323de8357bb3343eE', symObjAddr: 0x39C0, symBinAddr: 0x5DDA0, symSize: 0x140 }
  - { offsetInCU: 0x118C7, offset: 0x2275E0, size: 0x8, addend: 0x0, symName: '__ZN4core3ptr47drop_in_place$LT$syn..generics..WhereClause$GT$17h9494454a186ee05cE', symObjAddr: 0x3B00, symBinAddr: 0x5DEE0, symSize: 0xE0 }
  - { offsetInCU: 0x11BC0, offset: 0x2278D9, size: 0x8, addend: 0x0, symName: '__ZN4core3ptr47drop_in_place$LT$syn..path..GenericArgument$GT$17h4f6067f5bcfbc632E', symObjAddr: 0x3BE0, symBinAddr: 0x5DFC0, symSize: 0xE0 }
  - { offsetInCU: 0x11EDA, offset: 0x227BF3, size: 0x8, addend: 0x0, symName: '__ZN4core3ptr54drop_in_place$LT$core..num..error..TryFromIntError$GT$17h4b8f17ac6de28471E', symObjAddr: 0x3CC0, symBinAddr: 0x5E0A0, symSize: 0x10 }
  - { offsetInCU: 0x11F06, offset: 0x227C1F, size: 0x8, addend: 0x0, symName: '__ZN4core3ptr58drop_in_place$LT$alloc..vec..Vec$LT$syn..expr..Arm$GT$$GT$17hea67c6cc4a6d8fc7E', symObjAddr: 0x3CD0, symBinAddr: 0x5E0B0, symSize: 0xD0 }
  - { offsetInCU: 0x12193, offset: 0x227EAC, size: 0x8, addend: 0x0, symName: '__ZN4core3ptr59drop_in_place$LT$alloc..boxed..Box$LT$syn..pat..Pat$GT$$GT$17hc0ae2d13b6413492E', symObjAddr: 0x3DA0, symBinAddr: 0x5E180, symSize: 0x50 }
  - { offsetInCU: 0x122EE, offset: 0x228007, size: 0x8, addend: 0x0, symName: '__ZN4core3ptr59drop_in_place$LT$alloc..boxed..Box$LT$syn..ty..Type$GT$$GT$17ha426b7a17f4d920bE', symObjAddr: 0x3DF0, symBinAddr: 0x5E1D0, symSize: 0x50 }
  - { offsetInCU: 0x12449, offset: 0x228162, size: 0x8, addend: 0x0, symName: '__ZN4core3ptr61drop_in_place$LT$alloc..boxed..Box$LT$syn..expr..Expr$GT$$GT$17hdd7cb29ef2f233b5E', symObjAddr: 0x3E40, symBinAddr: 0x5E220, symSize: 0x50 }
  - { offsetInCU: 0x12620, offset: 0x228339, size: 0x8, addend: 0x0, symName: '__ZN4core3ptr61drop_in_place$LT$syn..path..ParenthesizedGenericArguments$GT$17h48cffc44bfbce871E', symObjAddr: 0x3E90, symBinAddr: 0x5E270, symSize: 0x170 }
  - { offsetInCU: 0x12BE7, offset: 0x228900, size: 0x8, addend: 0x0, symName: '__ZN4core3ptr63drop_in_place$LT$alloc..boxed..Box$LT$syn..lit..LitRepr$GT$$GT$17h66c49d60e5a75320E', symObjAddr: 0x4000, symBinAddr: 0x5E3E0, symSize: 0x60 }
  - { offsetInCU: 0x12EDC, offset: 0x228BF5, size: 0x8, addend: 0x0, symName: '__ZN4core3ptr64drop_in_place$LT$alloc..boxed..Box$LT$syn..pat..FieldPat$GT$$GT$17h35d811900e2d6065E', symObjAddr: 0x4060, symBinAddr: 0x5E440, symSize: 0x100 }
  - { offsetInCU: 0x134F7, offset: 0x229210, size: 0x8, addend: 0x0, symName: '__ZN4core3ptr64drop_in_place$LT$alloc..boxed..Box$LT$syn..ty..BareFnArg$GT$$GT$17h356d9fd263d1d06eE', symObjAddr: 0x4160, symBinAddr: 0x5E540, symSize: 0xE0 }
  - { offsetInCU: 0x1397D, offset: 0x229696, size: 0x8, addend: 0x0, symName: '__ZN4core3ptr65drop_in_place$LT$core..option..Option$LT$syn..expr..Label$GT$$GT$17h16f4c70e31d331bcE', symObjAddr: 0x4240, symBinAddr: 0x5E620, symSize: 0x30 }
  - { offsetInCU: 0x13AB8, offset: 0x2297D1, size: 0x8, addend: 0x0, symName: '__ZN4core3ptr66drop_in_place$LT$core..option..Option$LT$syn..ty..Variadic$GT$$GT$17he5249964d25ac4b4E', symObjAddr: 0x4270, symBinAddr: 0x5E650, symSize: 0x80 }
  - { offsetInCU: 0x13D0E, offset: 0x229A27, size: 0x8, addend: 0x0, symName: '__ZN4core3ptr67drop_in_place$LT$alloc..boxed..Box$LT$syn..expr..FieldValue$GT$$GT$17h0b8603554cd7f804E', symObjAddr: 0x42F0, symBinAddr: 0x5E6D0, symSize: 0xF0 }
  - { offsetInCU: 0x1419F, offset: 0x229EB8, size: 0x8, addend: 0x0, symName: '__ZN4core3ptr68drop_in_place$LT$alloc..boxed..Box$LT$syn..path..PathSegment$GT$$GT$17h17a0cf27e53a9363E', symObjAddr: 0x43E0, symBinAddr: 0x5E7C0, symSize: 0x140 }
  - { offsetInCU: 0x1480C, offset: 0x22A525, size: 0x8, addend: 0x0, symName: '__ZN4core3ptr72drop_in_place$LT$alloc..boxed..Box$LT$syn..path..GenericArgument$GT$$GT$17h705036888f832d7fE', symObjAddr: 0x4520, symBinAddr: 0x5E900, symSize: 0x150 }
  - { offsetInCU: 0x14E79, offset: 0x22AB92, size: 0x8, addend: 0x0, symName: '__ZN4core3ptr72drop_in_place$LT$core..option..Option$LT$syn..lifetime..Lifetime$GT$$GT$17h1fe84178ca026accE', symObjAddr: 0x4670, symBinAddr: 0x5EA50, symSize: 0x30 }
  - { offsetInCU: 0x14F95, offset: 0x22ACAE, size: 0x8, addend: 0x0, symName: '__ZN4core3ptr75drop_in_place$LT$alloc..boxed..Box$LT$syn..generics..TypeParamBound$GT$$GT$17h99181abc3971de95E', symObjAddr: 0x46A0, symBinAddr: 0x5EA80, symSize: 0x140 }
  - { offsetInCU: 0x154CA, offset: 0x22B1E3, size: 0x8, addend: 0x0, symName: '__ZN4core3ptr78drop_in_place$LT$alloc..boxed..Box$LT$syn..expr..GenericMethodArgument$GT$$GT$17h125b58e28f8ce1d3E', symObjAddr: 0x47E0, symBinAddr: 0x5EBC0, symSize: 0x60 }
  - { offsetInCU: 0x156BE, offset: 0x22B3D7, size: 0x8, addend: 0x0, symName: '__ZN4core3ptr78drop_in_place$LT$core..option..Option$LT$syn..generics..BoundLifetimes$GT$$GT$17he652ddd46a271117E', symObjAddr: 0x4840, symBinAddr: 0x5EC20, symSize: 0xE0 }
  - { offsetInCU: 0x159A2, offset: 0x22B6BB, size: 0x8, addend: 0x0, symName: '__ZN4core3ptr86drop_in_place$LT$syn..punctuated..Punctuated$LT$syn..pat..Pat$C$syn..token..Or$GT$$GT$17h10d2332b7ccfdf1eE', symObjAddr: 0x4920, symBinAddr: 0x5ED00, symSize: 0x120 }
  - { offsetInCU: 0x15DE8, offset: 0x22BB01, size: 0x8, addend: 0x0, symName: '__ZN4core3ptr87drop_in_place$LT$core..option..Option$LT$alloc..boxed..Box$LT$syn..pat..Pat$GT$$GT$$GT$17h62af4636ac2a1884E', symObjAddr: 0x4A40, symBinAddr: 0x5EE20, symSize: 0x50 }
  - { offsetInCU: 0x15F5A, offset: 0x22BC73, size: 0x8, addend: 0x0, symName: '__ZN4core3ptr87drop_in_place$LT$core..option..Option$LT$alloc..boxed..Box$LT$syn..ty..Type$GT$$GT$$GT$17h7e557e06c640adabE', symObjAddr: 0x4A90, symBinAddr: 0x5EE70, symSize: 0x50 }
  - { offsetInCU: 0x160CC, offset: 0x22BDE5, size: 0x8, addend: 0x0, symName: '__ZN4core3ptr89drop_in_place$LT$core..option..Option$LT$alloc..boxed..Box$LT$syn..expr..Expr$GT$$GT$$GT$17hac1308b749c674f2E', symObjAddr: 0x4AE0, symBinAddr: 0x5EEC0, symSize: 0x50 }
  - { offsetInCU: 0x1627C, offset: 0x22BF95, size: 0x8, addend: 0x0, symName: '__ZN4core3ptr89drop_in_place$LT$syn..punctuated..Punctuated$LT$syn..pat..Pat$C$syn..token..Comma$GT$$GT$17hb21a89d073c38473E', symObjAddr: 0x4B30, symBinAddr: 0x5EF10, symSize: 0x120 }
  - { offsetInCU: 0x166D9, offset: 0x22C3F2, size: 0x8, addend: 0x0, symName: '__ZN4core3ptr89drop_in_place$LT$syn..punctuated..Punctuated$LT$syn..ty..Type$C$syn..token..Comma$GT$$GT$17h1e45ff9808db47f0E', symObjAddr: 0x4C50, symBinAddr: 0x5F030, symSize: 0x120 }
  - { offsetInCU: 0x16B61, offset: 0x22C87A, size: 0x8, addend: 0x0, symName: '__ZN4core3ptr91drop_in_place$LT$syn..punctuated..Punctuated$LT$syn..expr..Expr$C$syn..token..Comma$GT$$GT$17h188efc9d6d68d956E', symObjAddr: 0x4D70, symBinAddr: 0x5F150, symSize: 0x120 }
  - { offsetInCU: 0x16FBE, offset: 0x22CCD7, size: 0x8, addend: 0x0, symName: '__ZN4core3ptr94drop_in_place$LT$syn..punctuated..Punctuated$LT$syn..pat..FieldPat$C$syn..token..Comma$GT$$GT$17h455f569edb4e6790E', symObjAddr: 0x4E90, symBinAddr: 0x5F270, symSize: 0xF0 }
  - { offsetInCU: 0x17288, offset: 0x22CFA1, size: 0x8, addend: 0x0, symName: '__ZN4core3ptr94drop_in_place$LT$syn..punctuated..Punctuated$LT$syn..ty..BareFnArg$C$syn..token..Comma$GT$$GT$17h587df0e54b9e0873E', symObjAddr: 0x4F80, symBinAddr: 0x5F360, symSize: 0x90 }
  - { offsetInCU: 0x174BE, offset: 0x22D1D7, size: 0x8, addend: 0x0, symName: '__ZN4core3ptr96drop_in_place$LT$core..option..Option$LT$alloc..boxed..Box$LT$syn..path..PathSegment$GT$$GT$$GT$17h3bf14611e62f7b31E', symObjAddr: 0x5010, symBinAddr: 0x5F3F0, symSize: 0x120 }
  - { offsetInCU: 0x17ABF, offset: 0x22D7D8, size: 0x8, addend: 0x0, symName: '__ZN4core3ptr97drop_in_place$LT$syn..punctuated..Punctuated$LT$syn..expr..FieldValue$C$syn..token..Comma$GT$$GT$17ha3c034bbb8112aa3E', symObjAddr: 0x5130, symBinAddr: 0x5F510, symSize: 0x90 }
  - { offsetInCU: 0x17D71, offset: 0x22DA8A, size: 0x8, addend: 0x0, symName: '__ZN4core3ptr97drop_in_place$LT$syn..punctuated..Punctuated$LT$syn..lifetime..Lifetime$C$syn..token..Add$GT$$GT$17h48ddb49b6dc35979E', symObjAddr: 0x51C0, symBinAddr: 0x5F5A0, symSize: 0xC0 }
  - { offsetInCU: 0x181E9, offset: 0x22DF02, size: 0x8, addend: 0x0, symName: '__ZN4core3ptr99drop_in_place$LT$syn..punctuated..Punctuated$LT$syn..path..PathSegment$C$syn..token..Colon2$GT$$GT$17h843d9c3edae9de24E', symObjAddr: 0x5280, symBinAddr: 0x5F660, symSize: 0x210 }
  - { offsetInCU: 0x22ECF, offset: 0x238BE8, size: 0x8, addend: 0x0, symName: __ZN21borsh_derive_internal7enum_de7enum_de17h520924319331cb55E, symObjAddr: 0x54D0, symBinAddr: 0x5F8B0, symSize: 0x26E1 }
  - { offsetInCU: 0x1E, offset: 0x23D421, size: 0x8, addend: 0x0, symName: '__ZN4core3ptr100drop_in_place$LT$core..option..Option$LT$alloc..boxed..Box$LT$syn..generics..LifetimeDef$GT$$GT$$GT$17hb1ebaab36787e90eE', symObjAddr: 0x0, symBinAddr: 0x61FA0, symSize: 0xF0 }
  - { offsetInCU: 0x60, offset: 0x23D463, size: 0x8, addend: 0x0, symName: '__ZN70_$LT$core..num..error..TryFromIntError$u20$as$u20$core..fmt..Debug$GT$3fmt17hc0f971d0e5e88256E', symObjAddr: 0x5490, symBinAddr: 0x67430, symSize: 0x40 }
  - { offsetInCU: 0x1489, offset: 0x23E88C, size: 0x8, addend: 0x0, symName: '__ZN4core3ptr100drop_in_place$LT$core..option..Option$LT$alloc..boxed..Box$LT$syn..generics..LifetimeDef$GT$$GT$$GT$17hb1ebaab36787e90eE', symObjAddr: 0x0, symBinAddr: 0x61FA0, symSize: 0xF0 }
  - { offsetInCU: 0x1A20, offset: 0x23EE23, size: 0x8, addend: 0x0, symName: '__ZN4core3ptr100drop_in_place$LT$core..option..Option$LT$alloc..boxed..Box$LT$syn..path..GenericArgument$GT$$GT$$GT$17hd06bf3b107f2a3d5E', symObjAddr: 0xF0, symBinAddr: 0x62090, symSize: 0x50 }
  - { offsetInCU: 0x1BEF, offset: 0x23EFF2, size: 0x8, addend: 0x0, symName: '__ZN4core3ptr103drop_in_place$LT$core..option..Option$LT$alloc..boxed..Box$LT$syn..generics..TypeParamBound$GT$$GT$$GT$17hfcd8207f8a028c2bE', symObjAddr: 0x140, symBinAddr: 0x620E0, symSize: 0x90 }
  - { offsetInCU: 0x1F2D, offset: 0x23F330, size: 0x8, addend: 0x0, symName: '__ZN4core3ptr103drop_in_place$LT$core..option..Option$LT$alloc..boxed..Box$LT$syn..generics..WherePredicate$GT$$GT$$GT$17h12988340d4e02927E', symObjAddr: 0x1D0, symBinAddr: 0x62170, symSize: 0x100 }
  - { offsetInCU: 0x22D9, offset: 0x23F6DC, size: 0x8, addend: 0x0, symName: '__ZN4core3ptr103drop_in_place$LT$syn..punctuated..Punctuated$LT$syn..generics..TypeParamBound$C$syn..token..Add$GT$$GT$17h716b45ea8ea72241E', symObjAddr: 0x2D0, symBinAddr: 0x62270, symSize: 0x1B0 }
  - { offsetInCU: 0x2AD0, offset: 0x23FED3, size: 0x8, addend: 0x0, symName: '__ZN4core3ptr108drop_in_place$LT$syn..punctuated..Punctuated$LT$syn..expr..GenericMethodArgument$C$syn..token..Comma$GT$$GT$17h5887c08eb66a3c56E', symObjAddr: 0x480, symBinAddr: 0x62420, symSize: 0x160 }
  - { offsetInCU: 0x2F2B, offset: 0x24032E, size: 0x8, addend: 0x0, symName: '__ZN4core3ptr33drop_in_place$LT$$RF$$LP$$RP$$GT$17h7ef36e31bdb1ce8fE', symObjAddr: 0x5E0, symBinAddr: 0x62580, symSize: 0x10 }
  - { offsetInCU: 0x3011, offset: 0x240414, size: 0x8, addend: 0x0, symName: '__ZN4core3ptr34drop_in_place$LT$syn..lit..Lit$GT$17hda325bcb34e6f29aE', symObjAddr: 0x5F0, symBinAddr: 0x62590, symSize: 0x110 }
  - { offsetInCU: 0x34EE, offset: 0x2408F1, size: 0x8, addend: 0x0, symName: '__ZN4core3ptr34drop_in_place$LT$syn..pat..Pat$GT$17h599075e73d06762fE', symObjAddr: 0x700, symBinAddr: 0x626A0, symSize: 0xB10 }
  - { offsetInCU: 0x645A, offset: 0x24385D, size: 0x8, addend: 0x0, symName: '__ZN4core3ptr34drop_in_place$LT$syn..ty..Type$GT$17h2c4c601c36c94dd9E', symObjAddr: 0x1210, symBinAddr: 0x631B0, symSize: 0x4B0 }
  - { offsetInCU: 0x7BD2, offset: 0x244FD5, size: 0x8, addend: 0x0, symName: '__ZN4core3ptr36drop_in_place$LT$syn..expr..Expr$GT$17h8c447d897a47cbcdE', symObjAddr: 0x16C0, symBinAddr: 0x63660, symSize: 0x1E70 }
  - { offsetInCU: 0xFE05, offset: 0x24D208, size: 0x8, addend: 0x0, symName: '__ZN4core3ptr36drop_in_place$LT$syn..mac..Macro$GT$17h93596ae7f4fc42efE', symObjAddr: 0x3530, symBinAddr: 0x654D0, symSize: 0x40 }
  - { offsetInCU: 0xFF56, offset: 0x24D359, size: 0x8, addend: 0x0, symName: '__ZN4core3ptr36drop_in_place$LT$syn..path..Path$GT$17h61f6e6a2feab5ba3E', symObjAddr: 0x3570, symBinAddr: 0x65510, symSize: 0x1E0 }
  - { offsetInCU: 0x107FB, offset: 0x24DBFE, size: 0x8, addend: 0x0, symName: '__ZN4core3ptr37drop_in_place$LT$syn..stmt..Block$GT$17hd6ce716f7e6e81c0E', symObjAddr: 0x3750, symBinAddr: 0x656F0, symSize: 0xD0 }
  - { offsetInCU: 0x10ADD, offset: 0x24DEE0, size: 0x8, addend: 0x0, symName: '__ZN4core3ptr38drop_in_place$LT$syn..error..Error$GT$17h33326dc27e0d553aE', symObjAddr: 0x3820, symBinAddr: 0x657C0, symSize: 0x70 }
  - { offsetInCU: 0x10DAE, offset: 0x24E1B1, size: 0x8, addend: 0x0, symName: '__ZN4core3ptr38drop_in_place$LT$syn..expr..Member$GT$17h3f07ac8135c2055bE', symObjAddr: 0x3890, symBinAddr: 0x65830, symSize: 0x30 }
  - { offsetInCU: 0x10EAB, offset: 0x24E2AE, size: 0x8, addend: 0x0, symName: '__ZN4core3ptr39drop_in_place$LT$proc_macro2..Ident$GT$17hc5fc300e4ebe152dE', symObjAddr: 0x38C0, symBinAddr: 0x65860, symSize: 0x30 }
  - { offsetInCU: 0x10F89, offset: 0x24E38C, size: 0x8, addend: 0x0, symName: '__ZN4core3ptr39drop_in_place$LT$syn..pat..PatTuple$GT$17ha0e5c031ab222142E', symObjAddr: 0x38F0, symBinAddr: 0x65890, symSize: 0x80 }
  - { offsetInCU: 0x11191, offset: 0x24E594, size: 0x8, addend: 0x0, symName: '__ZN4core3ptr40drop_in_place$LT$syn..ty..ReturnType$GT$17hf7ceb83f634aa2f1E', symObjAddr: 0x3970, symBinAddr: 0x65910, symSize: 0x50 }
  - { offsetInCU: 0x11439, offset: 0x24E83C, size: 0x8, addend: 0x0, symName: '__ZN4core3ptr45drop_in_place$LT$proc_macro2..TokenStream$GT$17h323de8357bb3343eE', symObjAddr: 0x39C0, symBinAddr: 0x65960, symSize: 0x140 }
  - { offsetInCU: 0x118C7, offset: 0x24ECCA, size: 0x8, addend: 0x0, symName: '__ZN4core3ptr47drop_in_place$LT$syn..generics..WhereClause$GT$17h9494454a186ee05cE', symObjAddr: 0x3B00, symBinAddr: 0x65AA0, symSize: 0xE0 }
  - { offsetInCU: 0x11BC0, offset: 0x24EFC3, size: 0x8, addend: 0x0, symName: '__ZN4core3ptr47drop_in_place$LT$syn..path..GenericArgument$GT$17h4f6067f5bcfbc632E', symObjAddr: 0x3BE0, symBinAddr: 0x65B80, symSize: 0xE0 }
  - { offsetInCU: 0x11EDA, offset: 0x24F2DD, size: 0x8, addend: 0x0, symName: '__ZN4core3ptr54drop_in_place$LT$core..num..error..TryFromIntError$GT$17h4b8f17ac6de28471E', symObjAddr: 0x3CC0, symBinAddr: 0x65C60, symSize: 0x10 }
  - { offsetInCU: 0x11F06, offset: 0x24F309, size: 0x8, addend: 0x0, symName: '__ZN4core3ptr58drop_in_place$LT$alloc..vec..Vec$LT$syn..expr..Arm$GT$$GT$17hea67c6cc4a6d8fc7E', symObjAddr: 0x3CD0, symBinAddr: 0x65C70, symSize: 0xD0 }
  - { offsetInCU: 0x12193, offset: 0x24F596, size: 0x8, addend: 0x0, symName: '__ZN4core3ptr59drop_in_place$LT$alloc..boxed..Box$LT$syn..pat..Pat$GT$$GT$17hc0ae2d13b6413492E', symObjAddr: 0x3DA0, symBinAddr: 0x65D40, symSize: 0x50 }
  - { offsetInCU: 0x122EE, offset: 0x24F6F1, size: 0x8, addend: 0x0, symName: '__ZN4core3ptr59drop_in_place$LT$alloc..boxed..Box$LT$syn..ty..Type$GT$$GT$17ha426b7a17f4d920bE', symObjAddr: 0x3DF0, symBinAddr: 0x65D90, symSize: 0x50 }
  - { offsetInCU: 0x12449, offset: 0x24F84C, size: 0x8, addend: 0x0, symName: '__ZN4core3ptr61drop_in_place$LT$alloc..boxed..Box$LT$syn..expr..Expr$GT$$GT$17hdd7cb29ef2f233b5E', symObjAddr: 0x3E40, symBinAddr: 0x65DE0, symSize: 0x50 }
  - { offsetInCU: 0x12620, offset: 0x24FA23, size: 0x8, addend: 0x0, symName: '__ZN4core3ptr61drop_in_place$LT$syn..path..ParenthesizedGenericArguments$GT$17h48cffc44bfbce871E', symObjAddr: 0x3E90, symBinAddr: 0x65E30, symSize: 0x170 }
  - { offsetInCU: 0x12BE7, offset: 0x24FFEA, size: 0x8, addend: 0x0, symName: '__ZN4core3ptr63drop_in_place$LT$alloc..boxed..Box$LT$syn..lit..LitRepr$GT$$GT$17h66c49d60e5a75320E', symObjAddr: 0x4000, symBinAddr: 0x65FA0, symSize: 0x60 }
  - { offsetInCU: 0x12EDC, offset: 0x2502DF, size: 0x8, addend: 0x0, symName: '__ZN4core3ptr64drop_in_place$LT$alloc..boxed..Box$LT$syn..pat..FieldPat$GT$$GT$17h35d811900e2d6065E', symObjAddr: 0x4060, symBinAddr: 0x66000, symSize: 0x100 }
  - { offsetInCU: 0x134F7, offset: 0x2508FA, size: 0x8, addend: 0x0, symName: '__ZN4core3ptr64drop_in_place$LT$alloc..boxed..Box$LT$syn..ty..BareFnArg$GT$$GT$17h356d9fd263d1d06eE', symObjAddr: 0x4160, symBinAddr: 0x66100, symSize: 0xE0 }
  - { offsetInCU: 0x1397D, offset: 0x250D80, size: 0x8, addend: 0x0, symName: '__ZN4core3ptr65drop_in_place$LT$core..option..Option$LT$syn..expr..Label$GT$$GT$17h16f4c70e31d331bcE', symObjAddr: 0x4240, symBinAddr: 0x661E0, symSize: 0x30 }
  - { offsetInCU: 0x13AB8, offset: 0x250EBB, size: 0x8, addend: 0x0, symName: '__ZN4core3ptr66drop_in_place$LT$core..option..Option$LT$syn..ty..Variadic$GT$$GT$17he5249964d25ac4b4E', symObjAddr: 0x4270, symBinAddr: 0x66210, symSize: 0x80 }
  - { offsetInCU: 0x13D0E, offset: 0x251111, size: 0x8, addend: 0x0, symName: '__ZN4core3ptr67drop_in_place$LT$alloc..boxed..Box$LT$syn..expr..FieldValue$GT$$GT$17h0b8603554cd7f804E', symObjAddr: 0x42F0, symBinAddr: 0x66290, symSize: 0xF0 }
  - { offsetInCU: 0x1419F, offset: 0x2515A2, size: 0x8, addend: 0x0, symName: '__ZN4core3ptr68drop_in_place$LT$alloc..boxed..Box$LT$syn..path..PathSegment$GT$$GT$17h17a0cf27e53a9363E', symObjAddr: 0x43E0, symBinAddr: 0x66380, symSize: 0x140 }
  - { offsetInCU: 0x1480C, offset: 0x251C0F, size: 0x8, addend: 0x0, symName: '__ZN4core3ptr72drop_in_place$LT$alloc..boxed..Box$LT$syn..path..GenericArgument$GT$$GT$17h705036888f832d7fE', symObjAddr: 0x4520, symBinAddr: 0x664C0, symSize: 0x150 }
  - { offsetInCU: 0x14E79, offset: 0x25227C, size: 0x8, addend: 0x0, symName: '__ZN4core3ptr72drop_in_place$LT$core..option..Option$LT$syn..lifetime..Lifetime$GT$$GT$17h1fe84178ca026accE', symObjAddr: 0x4670, symBinAddr: 0x66610, symSize: 0x30 }
  - { offsetInCU: 0x14F95, offset: 0x252398, size: 0x8, addend: 0x0, symName: '__ZN4core3ptr75drop_in_place$LT$alloc..boxed..Box$LT$syn..generics..TypeParamBound$GT$$GT$17h99181abc3971de95E', symObjAddr: 0x46A0, symBinAddr: 0x66640, symSize: 0x140 }
  - { offsetInCU: 0x154CA, offset: 0x2528CD, size: 0x8, addend: 0x0, symName: '__ZN4core3ptr78drop_in_place$LT$alloc..boxed..Box$LT$syn..expr..GenericMethodArgument$GT$$GT$17h125b58e28f8ce1d3E', symObjAddr: 0x47E0, symBinAddr: 0x66780, symSize: 0x60 }
  - { offsetInCU: 0x156BE, offset: 0x252AC1, size: 0x8, addend: 0x0, symName: '__ZN4core3ptr78drop_in_place$LT$core..option..Option$LT$syn..generics..BoundLifetimes$GT$$GT$17he652ddd46a271117E', symObjAddr: 0x4840, symBinAddr: 0x667E0, symSize: 0xE0 }
  - { offsetInCU: 0x159A2, offset: 0x252DA5, size: 0x8, addend: 0x0, symName: '__ZN4core3ptr86drop_in_place$LT$syn..punctuated..Punctuated$LT$syn..pat..Pat$C$syn..token..Or$GT$$GT$17h10d2332b7ccfdf1eE', symObjAddr: 0x4920, symBinAddr: 0x668C0, symSize: 0x120 }
  - { offsetInCU: 0x15DE8, offset: 0x2531EB, size: 0x8, addend: 0x0, symName: '__ZN4core3ptr87drop_in_place$LT$core..option..Option$LT$alloc..boxed..Box$LT$syn..pat..Pat$GT$$GT$$GT$17h62af4636ac2a1884E', symObjAddr: 0x4A40, symBinAddr: 0x669E0, symSize: 0x50 }
  - { offsetInCU: 0x15F5A, offset: 0x25335D, size: 0x8, addend: 0x0, symName: '__ZN4core3ptr87drop_in_place$LT$core..option..Option$LT$alloc..boxed..Box$LT$syn..ty..Type$GT$$GT$$GT$17h7e557e06c640adabE', symObjAddr: 0x4A90, symBinAddr: 0x66A30, symSize: 0x50 }
  - { offsetInCU: 0x160CC, offset: 0x2534CF, size: 0x8, addend: 0x0, symName: '__ZN4core3ptr89drop_in_place$LT$core..option..Option$LT$alloc..boxed..Box$LT$syn..expr..Expr$GT$$GT$$GT$17hac1308b749c674f2E', symObjAddr: 0x4AE0, symBinAddr: 0x66A80, symSize: 0x50 }
  - { offsetInCU: 0x1627C, offset: 0x25367F, size: 0x8, addend: 0x0, symName: '__ZN4core3ptr89drop_in_place$LT$syn..punctuated..Punctuated$LT$syn..pat..Pat$C$syn..token..Comma$GT$$GT$17hb21a89d073c38473E', symObjAddr: 0x4B30, symBinAddr: 0x66AD0, symSize: 0x120 }
  - { offsetInCU: 0x166D9, offset: 0x253ADC, size: 0x8, addend: 0x0, symName: '__ZN4core3ptr89drop_in_place$LT$syn..punctuated..Punctuated$LT$syn..ty..Type$C$syn..token..Comma$GT$$GT$17h1e45ff9808db47f0E', symObjAddr: 0x4C50, symBinAddr: 0x66BF0, symSize: 0x120 }
  - { offsetInCU: 0x16B61, offset: 0x253F64, size: 0x8, addend: 0x0, symName: '__ZN4core3ptr91drop_in_place$LT$syn..punctuated..Punctuated$LT$syn..expr..Expr$C$syn..token..Comma$GT$$GT$17h188efc9d6d68d956E', symObjAddr: 0x4D70, symBinAddr: 0x66D10, symSize: 0x120 }
  - { offsetInCU: 0x16FBE, offset: 0x2543C1, size: 0x8, addend: 0x0, symName: '__ZN4core3ptr94drop_in_place$LT$syn..punctuated..Punctuated$LT$syn..pat..FieldPat$C$syn..token..Comma$GT$$GT$17h455f569edb4e6790E', symObjAddr: 0x4E90, symBinAddr: 0x66E30, symSize: 0xF0 }
  - { offsetInCU: 0x17288, offset: 0x25468B, size: 0x8, addend: 0x0, symName: '__ZN4core3ptr94drop_in_place$LT$syn..punctuated..Punctuated$LT$syn..ty..BareFnArg$C$syn..token..Comma$GT$$GT$17h587df0e54b9e0873E', symObjAddr: 0x4F80, symBinAddr: 0x66F20, symSize: 0x90 }
  - { offsetInCU: 0x174BE, offset: 0x2548C1, size: 0x8, addend: 0x0, symName: '__ZN4core3ptr96drop_in_place$LT$core..option..Option$LT$alloc..boxed..Box$LT$syn..path..PathSegment$GT$$GT$$GT$17h3bf14611e62f7b31E', symObjAddr: 0x5010, symBinAddr: 0x66FB0, symSize: 0x120 }
  - { offsetInCU: 0x17ABF, offset: 0x254EC2, size: 0x8, addend: 0x0, symName: '__ZN4core3ptr97drop_in_place$LT$syn..punctuated..Punctuated$LT$syn..expr..FieldValue$C$syn..token..Comma$GT$$GT$17ha3c034bbb8112aa3E', symObjAddr: 0x5130, symBinAddr: 0x670D0, symSize: 0x90 }
  - { offsetInCU: 0x17D71, offset: 0x255174, size: 0x8, addend: 0x0, symName: '__ZN4core3ptr97drop_in_place$LT$syn..punctuated..Punctuated$LT$syn..lifetime..Lifetime$C$syn..token..Add$GT$$GT$17h48ddb49b6dc35979E', symObjAddr: 0x51C0, symBinAddr: 0x67160, symSize: 0xC0 }
  - { offsetInCU: 0x181E9, offset: 0x2555EC, size: 0x8, addend: 0x0, symName: '__ZN4core3ptr99drop_in_place$LT$syn..punctuated..Punctuated$LT$syn..path..PathSegment$C$syn..token..Colon2$GT$$GT$17h843d9c3edae9de24E', symObjAddr: 0x5280, symBinAddr: 0x67220, symSize: 0x210 }
  - { offsetInCU: 0x23176, offset: 0x260579, size: 0x8, addend: 0x0, symName: __ZN21borsh_derive_internal8enum_ser8enum_ser17h2ff6f6d318bfae50E, symObjAddr: 0x54D0, symBinAddr: 0x67470, symSize: 0x1D58 }
  - { offsetInCU: 0x1E, offset: 0x2657A0, size: 0x8, addend: 0x0, symName: __ZN5alloc7raw_vec11finish_grow17h02477ec972b83a81E.llvm.2498822412680140497, symObjAddr: 0x0, symBinAddr: 0x691D0, symSize: 0xA0 }
  - { offsetInCU: 0x3AAF, offset: 0x269231, size: 0x8, addend: 0x0, symName: __ZN5alloc7raw_vec11finish_grow17h02477ec972b83a81E.llvm.2498822412680140497, symObjAddr: 0x0, symBinAddr: 0x691D0, symSize: 0xA0 }
  - { offsetInCU: 0x48D9, offset: 0x26A05B, size: 0x8, addend: 0x0, symName: '__ZN5alloc7raw_vec19RawVec$LT$T$C$A$GT$7reserve21do_reserve_and_handle17he2163d9fe9f46156E', symObjAddr: 0x370, symBinAddr: 0x21DA60, symSize: 0xB0 }
  - { offsetInCU: 0x4C18, offset: 0x26A39A, size: 0x8, addend: 0x0, symName: '__ZN77_$LT$alloc..raw_vec..RawVec$LT$T$C$A$GT$$u20$as$u20$core..ops..drop..Drop$GT$4drop17h2f402490d816c099E', symObjAddr: 0x4B0, symBinAddr: 0x694C0, symSize: 0x0 }
  - { offsetInCU: 0x4D15, offset: 0x26A497, size: 0x8, addend: 0x0, symName: '__ZN77_$LT$alloc..raw_vec..RawVec$LT$T$C$A$GT$$u20$as$u20$core..ops..drop..Drop$GT$4drop17hffab92e3a431bba5E', symObjAddr: 0x830, symBinAddr: 0x694F0, symSize: 0x21 }
  - { offsetInCU: 0xA4BC, offset: 0x26FC3E, size: 0x8, addend: 0x0, symName: '__ZN5alloc7raw_vec19RawVec$LT$T$C$A$GT$16reserve_for_push17h21e8c2580ced738dE', symObjAddr: 0x120, symBinAddr: 0x69270, symSize: 0xD0 }
  - { offsetInCU: 0xA981, offset: 0x270103, size: 0x8, addend: 0x0, symName: '__ZN5alloc7raw_vec19RawVec$LT$T$C$A$GT$16reserve_for_push17hab833340c50479eeE', symObjAddr: 0x1F0, symBinAddr: 0x69340, symSize: 0xD0 }
  - { offsetInCU: 0xAE45, offset: 0x2705C7, size: 0x8, addend: 0x0, symName: '__ZN5alloc7raw_vec19RawVec$LT$T$C$A$GT$16reserve_for_push17hddb6d04fa6d694b7E', symObjAddr: 0x2C0, symBinAddr: 0x69410, symSize: 0xB0 }
  - { offsetInCU: 0x1E, offset: 0x270A65, size: 0x8, addend: 0x0, symName: '__ZN4core3ptr100drop_in_place$LT$core..option..Option$LT$alloc..boxed..Box$LT$syn..generics..LifetimeDef$GT$$GT$$GT$17hb1ebaab36787e90eE', symObjAddr: 0x0, symBinAddr: 0x69520, symSize: 0xF0 }
  - { offsetInCU: 0x7CD3, offset: 0x27871A, size: 0x8, addend: 0x0, symName: '__ZN4core3ptr100drop_in_place$LT$core..option..Option$LT$alloc..boxed..Box$LT$syn..generics..LifetimeDef$GT$$GT$$GT$17hb1ebaab36787e90eE', symObjAddr: 0x0, symBinAddr: 0x69520, symSize: 0xF0 }
  - { offsetInCU: 0x826A, offset: 0x278CB1, size: 0x8, addend: 0x0, symName: '__ZN4core3ptr100drop_in_place$LT$core..option..Option$LT$alloc..boxed..Box$LT$syn..path..GenericArgument$GT$$GT$$GT$17hd06bf3b107f2a3d5E', symObjAddr: 0xF0, symBinAddr: 0x69610, symSize: 0x50 }
  - { offsetInCU: 0x8439, offset: 0x278E80, size: 0x8, addend: 0x0, symName: '__ZN4core3ptr103drop_in_place$LT$core..option..Option$LT$alloc..boxed..Box$LT$syn..generics..TypeParamBound$GT$$GT$$GT$17hfcd8207f8a028c2bE', symObjAddr: 0x140, symBinAddr: 0x69660, symSize: 0x90 }
  - { offsetInCU: 0x8777, offset: 0x2791BE, size: 0x8, addend: 0x0, symName: '__ZN4core3ptr103drop_in_place$LT$core..option..Option$LT$alloc..boxed..Box$LT$syn..generics..WherePredicate$GT$$GT$$GT$17h12988340d4e02927E', symObjAddr: 0x1D0, symBinAddr: 0x696F0, symSize: 0x100 }
  - { offsetInCU: 0x8B23, offset: 0x27956A, size: 0x8, addend: 0x0, symName: '__ZN4core3ptr103drop_in_place$LT$syn..punctuated..Punctuated$LT$syn..generics..TypeParamBound$C$syn..token..Add$GT$$GT$17h716b45ea8ea72241E', symObjAddr: 0x2D0, symBinAddr: 0x697F0, symSize: 0x1B0 }
  - { offsetInCU: 0x931A, offset: 0x279D61, size: 0x8, addend: 0x0, symName: '__ZN4core3ptr108drop_in_place$LT$syn..punctuated..Punctuated$LT$syn..expr..GenericMethodArgument$C$syn..token..Comma$GT$$GT$17h5887c08eb66a3c56E', symObjAddr: 0x480, symBinAddr: 0x699A0, symSize: 0x160 }
  - { offsetInCU: 0x982F, offset: 0x27A276, size: 0x8, addend: 0x0, symName: '__ZN4core3ptr34drop_in_place$LT$syn..lit..Lit$GT$17hda325bcb34e6f29aE', symObjAddr: 0x5E0, symBinAddr: 0x69B00, symSize: 0x110 }
  - { offsetInCU: 0x9D0C, offset: 0x27A753, size: 0x8, addend: 0x0, symName: '__ZN4core3ptr34drop_in_place$LT$syn..pat..Pat$GT$17h599075e73d06762fE', symObjAddr: 0x6F0, symBinAddr: 0x69C10, symSize: 0xB10 }
  - { offsetInCU: 0xCC78, offset: 0x27D6BF, size: 0x8, addend: 0x0, symName: '__ZN4core3ptr34drop_in_place$LT$syn..ty..Type$GT$17h2c4c601c36c94dd9E', symObjAddr: 0x1200, symBinAddr: 0x6A720, symSize: 0x4B0 }
  - { offsetInCU: 0xE3F0, offset: 0x27EE37, size: 0x8, addend: 0x0, symName: '__ZN4core3ptr36drop_in_place$LT$syn..expr..Expr$GT$17h8c447d897a47cbcdE', symObjAddr: 0x16B0, symBinAddr: 0x6ABD0, symSize: 0x1E70 }
  - { offsetInCU: 0x16623, offset: 0x28706A, size: 0x8, addend: 0x0, symName: '__ZN4core3ptr36drop_in_place$LT$syn..mac..Macro$GT$17h93596ae7f4fc42efE', symObjAddr: 0x3520, symBinAddr: 0x6CA40, symSize: 0x40 }
  - { offsetInCU: 0x16774, offset: 0x2871BB, size: 0x8, addend: 0x0, symName: '__ZN4core3ptr36drop_in_place$LT$syn..path..Path$GT$17h61f6e6a2feab5ba3E', symObjAddr: 0x3560, symBinAddr: 0x6CA80, symSize: 0x1E0 }
  - { offsetInCU: 0x17019, offset: 0x287A60, size: 0x8, addend: 0x0, symName: '__ZN4core3ptr37drop_in_place$LT$syn..stmt..Block$GT$17hd6ce716f7e6e81c0E', symObjAddr: 0x3740, symBinAddr: 0x6CC60, symSize: 0xD0 }
  - { offsetInCU: 0x172FB, offset: 0x287D42, size: 0x8, addend: 0x0, symName: '__ZN4core3ptr38drop_in_place$LT$syn..error..Error$GT$17h33326dc27e0d553aE', symObjAddr: 0x3810, symBinAddr: 0x6CD30, symSize: 0x70 }
  - { offsetInCU: 0x175CC, offset: 0x288013, size: 0x8, addend: 0x0, symName: '__ZN4core3ptr38drop_in_place$LT$syn..expr..Member$GT$17h3f07ac8135c2055bE', symObjAddr: 0x3880, symBinAddr: 0x6CDA0, symSize: 0x30 }
  - { offsetInCU: 0x176C9, offset: 0x288110, size: 0x8, addend: 0x0, symName: '__ZN4core3ptr39drop_in_place$LT$proc_macro2..Ident$GT$17hc5fc300e4ebe152dE', symObjAddr: 0x38B0, symBinAddr: 0x6CDD0, symSize: 0x30 }
  - { offsetInCU: 0x177A7, offset: 0x2881EE, size: 0x8, addend: 0x0, symName: '__ZN4core3ptr39drop_in_place$LT$syn..pat..PatTuple$GT$17ha0e5c031ab222142E', symObjAddr: 0x38E0, symBinAddr: 0x6CE00, symSize: 0x80 }
  - { offsetInCU: 0x179AF, offset: 0x2883F6, size: 0x8, addend: 0x0, symName: '__ZN4core3ptr40drop_in_place$LT$syn..ty..ReturnType$GT$17hf7ceb83f634aa2f1E', symObjAddr: 0x3960, symBinAddr: 0x6CE80, symSize: 0x50 }
  - { offsetInCU: 0x17C57, offset: 0x28869E, size: 0x8, addend: 0x0, symName: '__ZN4core3ptr45drop_in_place$LT$proc_macro2..TokenStream$GT$17h323de8357bb3343eE', symObjAddr: 0x39B0, symBinAddr: 0x6CED0, symSize: 0x140 }
  - { offsetInCU: 0x180E5, offset: 0x288B2C, size: 0x8, addend: 0x0, symName: '__ZN4core3ptr47drop_in_place$LT$syn..generics..WhereClause$GT$17h9494454a186ee05cE', symObjAddr: 0x3AF0, symBinAddr: 0x6D010, symSize: 0xE0 }
  - { offsetInCU: 0x183DE, offset: 0x288E25, size: 0x8, addend: 0x0, symName: '__ZN4core3ptr47drop_in_place$LT$syn..path..GenericArgument$GT$17h4f6067f5bcfbc632E', symObjAddr: 0x3BD0, symBinAddr: 0x6D0F0, symSize: 0xE0 }
  - { offsetInCU: 0x186F8, offset: 0x28913F, size: 0x8, addend: 0x0, symName: '__ZN4core3ptr58drop_in_place$LT$alloc..vec..Vec$LT$syn..expr..Arm$GT$$GT$17hea67c6cc4a6d8fc7E', symObjAddr: 0x3CB0, symBinAddr: 0x6D1D0, symSize: 0xD0 }
  - { offsetInCU: 0x18985, offset: 0x2893CC, size: 0x8, addend: 0x0, symName: '__ZN4core3ptr59drop_in_place$LT$alloc..boxed..Box$LT$syn..pat..Pat$GT$$GT$17hc0ae2d13b6413492E', symObjAddr: 0x3D80, symBinAddr: 0x6D2A0, symSize: 0x50 }
  - { offsetInCU: 0x18AE0, offset: 0x289527, size: 0x8, addend: 0x0, symName: '__ZN4core3ptr59drop_in_place$LT$alloc..boxed..Box$LT$syn..ty..Type$GT$$GT$17ha426b7a17f4d920bE', symObjAddr: 0x3DD0, symBinAddr: 0x6D2F0, symSize: 0x50 }
  - { offsetInCU: 0x18C3B, offset: 0x289682, size: 0x8, addend: 0x0, symName: '__ZN4core3ptr61drop_in_place$LT$alloc..boxed..Box$LT$syn..expr..Expr$GT$$GT$17hdd7cb29ef2f233b5E', symObjAddr: 0x3E20, symBinAddr: 0x6D340, symSize: 0x50 }
  - { offsetInCU: 0x18E12, offset: 0x289859, size: 0x8, addend: 0x0, symName: '__ZN4core3ptr61drop_in_place$LT$syn..path..ParenthesizedGenericArguments$GT$17h48cffc44bfbce871E', symObjAddr: 0x3E70, symBinAddr: 0x6D390, symSize: 0x170 }
  - { offsetInCU: 0x193D9, offset: 0x289E20, size: 0x8, addend: 0x0, symName: '__ZN4core3ptr63drop_in_place$LT$alloc..boxed..Box$LT$syn..lit..LitRepr$GT$$GT$17h66c49d60e5a75320E', symObjAddr: 0x3FE0, symBinAddr: 0x6D500, symSize: 0x60 }
  - { offsetInCU: 0x196CE, offset: 0x28A115, size: 0x8, addend: 0x0, symName: '__ZN4core3ptr64drop_in_place$LT$alloc..boxed..Box$LT$syn..pat..FieldPat$GT$$GT$17h35d811900e2d6065E', symObjAddr: 0x4040, symBinAddr: 0x6D560, symSize: 0x100 }
  - { offsetInCU: 0x19CE9, offset: 0x28A730, size: 0x8, addend: 0x0, symName: '__ZN4core3ptr64drop_in_place$LT$alloc..boxed..Box$LT$syn..ty..BareFnArg$GT$$GT$17h356d9fd263d1d06eE', symObjAddr: 0x4140, symBinAddr: 0x6D660, symSize: 0xE0 }
  - { offsetInCU: 0x1A16F, offset: 0x28ABB6, size: 0x8, addend: 0x0, symName: '__ZN4core3ptr65drop_in_place$LT$core..option..Option$LT$syn..expr..Label$GT$$GT$17h16f4c70e31d331bcE', symObjAddr: 0x4220, symBinAddr: 0x6D740, symSize: 0x30 }
  - { offsetInCU: 0x1A2AA, offset: 0x28ACF1, size: 0x8, addend: 0x0, symName: '__ZN4core3ptr66drop_in_place$LT$core..option..Option$LT$syn..ty..Variadic$GT$$GT$17he5249964d25ac4b4E', symObjAddr: 0x4250, symBinAddr: 0x6D770, symSize: 0x80 }
  - { offsetInCU: 0x1A500, offset: 0x28AF47, size: 0x8, addend: 0x0, symName: '__ZN4core3ptr67drop_in_place$LT$alloc..boxed..Box$LT$syn..expr..FieldValue$GT$$GT$17h0b8603554cd7f804E', symObjAddr: 0x42D0, symBinAddr: 0x6D7F0, symSize: 0xF0 }
  - { offsetInCU: 0x1A991, offset: 0x28B3D8, size: 0x8, addend: 0x0, symName: '__ZN4core3ptr68drop_in_place$LT$alloc..boxed..Box$LT$syn..path..PathSegment$GT$$GT$17h17a0cf27e53a9363E', symObjAddr: 0x43C0, symBinAddr: 0x6D8E0, symSize: 0x140 }
  - { offsetInCU: 0x1AFFE, offset: 0x28BA45, size: 0x8, addend: 0x0, symName: '__ZN4core3ptr72drop_in_place$LT$alloc..boxed..Box$LT$syn..path..GenericArgument$GT$$GT$17h705036888f832d7fE', symObjAddr: 0x4500, symBinAddr: 0x6DA20, symSize: 0x150 }
  - { offsetInCU: 0x1B66B, offset: 0x28C0B2, size: 0x8, addend: 0x0, symName: '__ZN4core3ptr72drop_in_place$LT$core..option..Option$LT$syn..lifetime..Lifetime$GT$$GT$17h1fe84178ca026accE', symObjAddr: 0x4650, symBinAddr: 0x6DB70, symSize: 0x30 }
  - { offsetInCU: 0x1B787, offset: 0x28C1CE, size: 0x8, addend: 0x0, symName: '__ZN4core3ptr75drop_in_place$LT$alloc..boxed..Box$LT$syn..generics..TypeParamBound$GT$$GT$17h99181abc3971de95E', symObjAddr: 0x4680, symBinAddr: 0x6DBA0, symSize: 0x140 }
  - { offsetInCU: 0x1BCBC, offset: 0x28C703, size: 0x8, addend: 0x0, symName: '__ZN4core3ptr78drop_in_place$LT$alloc..boxed..Box$LT$syn..expr..GenericMethodArgument$GT$$GT$17h125b58e28f8ce1d3E', symObjAddr: 0x47C0, symBinAddr: 0x6DCE0, symSize: 0x60 }
  - { offsetInCU: 0x1BEB0, offset: 0x28C8F7, size: 0x8, addend: 0x0, symName: '__ZN4core3ptr78drop_in_place$LT$core..option..Option$LT$syn..generics..BoundLifetimes$GT$$GT$17he652ddd46a271117E', symObjAddr: 0x4820, symBinAddr: 0x6DD40, symSize: 0xE0 }
  - { offsetInCU: 0x1C194, offset: 0x28CBDB, size: 0x8, addend: 0x0, symName: '__ZN4core3ptr86drop_in_place$LT$syn..punctuated..Punctuated$LT$syn..pat..Pat$C$syn..token..Or$GT$$GT$17h10d2332b7ccfdf1eE', symObjAddr: 0x4900, symBinAddr: 0x6DE20, symSize: 0x120 }
  - { offsetInCU: 0x1C5DA, offset: 0x28D021, size: 0x8, addend: 0x0, symName: '__ZN4core3ptr87drop_in_place$LT$core..option..Option$LT$alloc..boxed..Box$LT$syn..pat..Pat$GT$$GT$$GT$17h62af4636ac2a1884E', symObjAddr: 0x4A20, symBinAddr: 0x6DF40, symSize: 0x50 }
  - { offsetInCU: 0x1C74C, offset: 0x28D193, size: 0x8, addend: 0x0, symName: '__ZN4core3ptr87drop_in_place$LT$core..option..Option$LT$alloc..boxed..Box$LT$syn..ty..Type$GT$$GT$$GT$17h7e557e06c640adabE', symObjAddr: 0x4A70, symBinAddr: 0x6DF90, symSize: 0x50 }
  - { offsetInCU: 0x1C8BE, offset: 0x28D305, size: 0x8, addend: 0x0, symName: '__ZN4core3ptr89drop_in_place$LT$core..option..Option$LT$alloc..boxed..Box$LT$syn..expr..Expr$GT$$GT$$GT$17hac1308b749c674f2E', symObjAddr: 0x4AC0, symBinAddr: 0x6DFE0, symSize: 0x50 }
  - { offsetInCU: 0x1CA6E, offset: 0x28D4B5, size: 0x8, addend: 0x0, symName: '__ZN4core3ptr89drop_in_place$LT$syn..punctuated..Punctuated$LT$syn..pat..Pat$C$syn..token..Comma$GT$$GT$17hb21a89d073c38473E', symObjAddr: 0x4B10, symBinAddr: 0x6E030, symSize: 0x120 }
  - { offsetInCU: 0x1CECB, offset: 0x28D912, size: 0x8, addend: 0x0, symName: '__ZN4core3ptr89drop_in_place$LT$syn..punctuated..Punctuated$LT$syn..ty..Type$C$syn..token..Comma$GT$$GT$17h1e45ff9808db47f0E', symObjAddr: 0x4C30, symBinAddr: 0x6E150, symSize: 0x120 }
  - { offsetInCU: 0x1D353, offset: 0x28DD9A, size: 0x8, addend: 0x0, symName: '__ZN4core3ptr91drop_in_place$LT$syn..punctuated..Punctuated$LT$syn..expr..Expr$C$syn..token..Comma$GT$$GT$17h188efc9d6d68d956E', symObjAddr: 0x4D50, symBinAddr: 0x6E270, symSize: 0x120 }
  - { offsetInCU: 0x1D7B0, offset: 0x28E1F7, size: 0x8, addend: 0x0, symName: '__ZN4core3ptr94drop_in_place$LT$syn..punctuated..Punctuated$LT$syn..pat..FieldPat$C$syn..token..Comma$GT$$GT$17h455f569edb4e6790E', symObjAddr: 0x4E70, symBinAddr: 0x6E390, symSize: 0xF0 }
  - { offsetInCU: 0x1DA7A, offset: 0x28E4C1, size: 0x8, addend: 0x0, symName: '__ZN4core3ptr94drop_in_place$LT$syn..punctuated..Punctuated$LT$syn..ty..BareFnArg$C$syn..token..Comma$GT$$GT$17h587df0e54b9e0873E', symObjAddr: 0x4F60, symBinAddr: 0x6E480, symSize: 0x90 }
  - { offsetInCU: 0x1DCB0, offset: 0x28E6F7, size: 0x8, addend: 0x0, symName: '__ZN4core3ptr96drop_in_place$LT$core..option..Option$LT$alloc..boxed..Box$LT$syn..path..PathSegment$GT$$GT$$GT$17h3bf14611e62f7b31E', symObjAddr: 0x4FF0, symBinAddr: 0x6E510, symSize: 0x120 }
  - { offsetInCU: 0x1E2B1, offset: 0x28ECF8, size: 0x8, addend: 0x0, symName: '__ZN4core3ptr97drop_in_place$LT$syn..punctuated..Punctuated$LT$syn..expr..FieldValue$C$syn..token..Comma$GT$$GT$17ha3c034bbb8112aa3E', symObjAddr: 0x5110, symBinAddr: 0x6E630, symSize: 0x90 }
  - { offsetInCU: 0x1E563, offset: 0x28EFAA, size: 0x8, addend: 0x0, symName: '__ZN4core3ptr97drop_in_place$LT$syn..punctuated..Punctuated$LT$syn..lifetime..Lifetime$C$syn..token..Add$GT$$GT$17h48ddb49b6dc35979E', symObjAddr: 0x51A0, symBinAddr: 0x6E6C0, symSize: 0xC0 }
  - { offsetInCU: 0x1E9DB, offset: 0x28F422, size: 0x8, addend: 0x0, symName: '__ZN4core3ptr99drop_in_place$LT$syn..punctuated..Punctuated$LT$syn..path..PathSegment$C$syn..token..Colon2$GT$$GT$17h843d9c3edae9de24E', symObjAddr: 0x5260, symBinAddr: 0x6E780, symSize: 0x210 }
  - { offsetInCU: 0x22904, offset: 0x29334B, size: 0x8, addend: 0x0, symName: __ZN21borsh_derive_internal9struct_de9struct_de17hdfad4a471519e23eE, symObjAddr: 0x5470, symBinAddr: 0x6E990, symSize: 0x1787 }
  - { offsetInCU: 0x1E, offset: 0x296C45, size: 0x8, addend: 0x0, symName: '__ZN4core3ptr100drop_in_place$LT$core..option..Option$LT$alloc..boxed..Box$LT$syn..generics..LifetimeDef$GT$$GT$$GT$17hb1ebaab36787e90eE', symObjAddr: 0x0, symBinAddr: 0x70120, symSize: 0xF0 }
  - { offsetInCU: 0x99, offset: 0x296CC0, size: 0x8, addend: 0x0, symName: '__ZN58_$LT$alloc..string..String$u20$as$u20$core..fmt..Write$GT$10write_char17hd329c0cb943f081aE', symObjAddr: 0x4ED0, symBinAddr: 0x74FF0, symSize: 0x130 }
  - { offsetInCU: 0x440, offset: 0x297067, size: 0x8, addend: 0x0, symName: '__ZN58_$LT$alloc..string..String$u20$as$u20$core..fmt..Write$GT$9write_str17h1ff5aa96ca91c6d5E', symObjAddr: 0x5000, symBinAddr: 0x75120, symSize: 0x60 }
  - { offsetInCU: 0x3241, offset: 0x299E68, size: 0x8, addend: 0x0, symName: '__ZN4core3ptr100drop_in_place$LT$core..option..Option$LT$alloc..boxed..Box$LT$syn..generics..LifetimeDef$GT$$GT$$GT$17hb1ebaab36787e90eE', symObjAddr: 0x0, symBinAddr: 0x70120, symSize: 0xF0 }
  - { offsetInCU: 0x37D8, offset: 0x29A3FF, size: 0x8, addend: 0x0, symName: '__ZN4core3ptr100drop_in_place$LT$core..option..Option$LT$alloc..boxed..Box$LT$syn..path..GenericArgument$GT$$GT$$GT$17hd06bf3b107f2a3d5E', symObjAddr: 0xF0, symBinAddr: 0x70210, symSize: 0x50 }
  - { offsetInCU: 0x3A80, offset: 0x29A6A7, size: 0x8, addend: 0x0, symName: '__ZN4core3ptr103drop_in_place$LT$syn..punctuated..Punctuated$LT$syn..generics..TypeParamBound$C$syn..token..Add$GT$$GT$17h716b45ea8ea72241E', symObjAddr: 0x140, symBinAddr: 0x70260, symSize: 0x1B0 }
  - { offsetInCU: 0x428A, offset: 0x29AEB1, size: 0x8, addend: 0x0, symName: '__ZN4core3ptr108drop_in_place$LT$syn..punctuated..Punctuated$LT$syn..expr..GenericMethodArgument$C$syn..token..Comma$GT$$GT$17h5887c08eb66a3c56E', symObjAddr: 0x2F0, symBinAddr: 0x70410, symSize: 0x160 }
  - { offsetInCU: 0x479F, offset: 0x29B3C6, size: 0x8, addend: 0x0, symName: '__ZN4core3ptr34drop_in_place$LT$syn..lit..Lit$GT$17hda325bcb34e6f29aE', symObjAddr: 0x450, symBinAddr: 0x70570, symSize: 0x110 }
  - { offsetInCU: 0x4C7C, offset: 0x29B8A3, size: 0x8, addend: 0x0, symName: '__ZN4core3ptr34drop_in_place$LT$syn..pat..Pat$GT$17h599075e73d06762fE', symObjAddr: 0x560, symBinAddr: 0x70680, symSize: 0x9F0 }
  - { offsetInCU: 0x76F5, offset: 0x29E31C, size: 0x8, addend: 0x0, symName: '__ZN4core3ptr34drop_in_place$LT$syn..ty..Type$GT$17h2c4c601c36c94dd9E', symObjAddr: 0xF50, symBinAddr: 0x71070, symSize: 0x570 }
  - { offsetInCU: 0x8AD3, offset: 0x29F6FA, size: 0x8, addend: 0x0, symName: '__ZN4core3ptr36drop_in_place$LT$syn..attr..Meta$GT$17hbdf6f3d0b31fee9dE', symObjAddr: 0x14C0, symBinAddr: 0x715E0, symSize: 0x80 }
  - { offsetInCU: 0x91F7, offset: 0x29FE1E, size: 0x8, addend: 0x0, symName: '__ZN4core3ptr36drop_in_place$LT$syn..expr..Expr$GT$17h8c447d897a47cbcdE', symObjAddr: 0x1540, symBinAddr: 0x71660, symSize: 0x1E40 }
  - { offsetInCU: 0x11164, offset: 0x2A7D8B, size: 0x8, addend: 0x0, symName: '__ZN4core3ptr36drop_in_place$LT$syn..mac..Macro$GT$17h93596ae7f4fc42efE', symObjAddr: 0x3380, symBinAddr: 0x734A0, symSize: 0xE0 }
  - { offsetInCU: 0x11551, offset: 0x2A8178, size: 0x8, addend: 0x0, symName: '__ZN4core3ptr36drop_in_place$LT$syn..path..Path$GT$17h61f6e6a2feab5ba3E', symObjAddr: 0x3460, symBinAddr: 0x73580, symSize: 0x1E0 }
  - { offsetInCU: 0x11DF6, offset: 0x2A8A1D, size: 0x8, addend: 0x0, symName: '__ZN4core3ptr37drop_in_place$LT$core..fmt..Error$GT$17hb7e582b4ebcf53beE', symObjAddr: 0x3640, symBinAddr: 0x73760, symSize: 0x10 }
  - { offsetInCU: 0x11E22, offset: 0x2A8A49, size: 0x8, addend: 0x0, symName: '__ZN4core3ptr37drop_in_place$LT$syn..stmt..Block$GT$17hd6ce716f7e6e81c0E', symObjAddr: 0x3650, symBinAddr: 0x73770, symSize: 0xD0 }
  - { offsetInCU: 0x120C6, offset: 0x2A8CED, size: 0x8, addend: 0x0, symName: '__ZN4core3ptr38drop_in_place$LT$syn..expr..Member$GT$17h3f07ac8135c2055bE', symObjAddr: 0x3720, symBinAddr: 0x73840, symSize: 0x30 }
  - { offsetInCU: 0x121C3, offset: 0x2A8DEA, size: 0x8, addend: 0x0, symName: '__ZN4core3ptr39drop_in_place$LT$proc_macro2..Ident$GT$17hc5fc300e4ebe152dE', symObjAddr: 0x3750, symBinAddr: 0x73870, symSize: 0x30 }
  - { offsetInCU: 0x122A1, offset: 0x2A8EC8, size: 0x8, addend: 0x0, symName: '__ZN4core3ptr39drop_in_place$LT$syn..pat..PatTuple$GT$17ha0e5c031ab222142E', symObjAddr: 0x3780, symBinAddr: 0x738A0, symSize: 0x80 }
  - { offsetInCU: 0x124A9, offset: 0x2A90D0, size: 0x8, addend: 0x0, symName: '__ZN4core3ptr40drop_in_place$LT$syn..attr..MetaList$GT$17hec59af80ab8df44eE', symObjAddr: 0x3800, symBinAddr: 0x73920, symSize: 0x40 }
  - { offsetInCU: 0x124C6, offset: 0x2A90ED, size: 0x8, addend: 0x0, symName: '__ZN4core3ptr40drop_in_place$LT$syn..ty..ReturnType$GT$17hf7ceb83f634aa2f1E', symObjAddr: 0x3840, symBinAddr: 0x73960, symSize: 0x50 }
  - { offsetInCU: 0x12638, offset: 0x2A925F, size: 0x8, addend: 0x0, symName: '__ZN4core3ptr42drop_in_place$LT$alloc..string..String$GT$17he7af315973f0f17fE', symObjAddr: 0x3890, symBinAddr: 0x739B0, symSize: 0x20 }
  - { offsetInCU: 0x12877, offset: 0x2A949E, size: 0x8, addend: 0x0, symName: '__ZN4core3ptr45drop_in_place$LT$proc_macro2..TokenStream$GT$17h323de8357bb3343eE', symObjAddr: 0x38B0, symBinAddr: 0x739D0, symSize: 0x140 }
  - { offsetInCU: 0x12CE6, offset: 0x2A990D, size: 0x8, addend: 0x0, symName: '__ZN4core3ptr47drop_in_place$LT$syn..path..GenericArgument$GT$17h4f6067f5bcfbc632E', symObjAddr: 0x39F0, symBinAddr: 0x73B10, symSize: 0xE0 }
  - { offsetInCU: 0x13013, offset: 0x2A9C3A, size: 0x8, addend: 0x0, symName: '__ZN4core3ptr58drop_in_place$LT$alloc..vec..Vec$LT$syn..expr..Arm$GT$$GT$17hea67c6cc4a6d8fc7E', symObjAddr: 0x3AD0, symBinAddr: 0x73BF0, symSize: 0xD0 }
  - { offsetInCU: 0x132A0, offset: 0x2A9EC7, size: 0x8, addend: 0x0, symName: '__ZN4core3ptr59drop_in_place$LT$alloc..boxed..Box$LT$syn..pat..Pat$GT$$GT$17hc0ae2d13b6413492E', symObjAddr: 0x3BA0, symBinAddr: 0x73CC0, symSize: 0x50 }
  - { offsetInCU: 0x133FB, offset: 0x2AA022, size: 0x8, addend: 0x0, symName: '__ZN4core3ptr59drop_in_place$LT$alloc..boxed..Box$LT$syn..ty..Type$GT$$GT$17ha426b7a17f4d920bE', symObjAddr: 0x3BF0, symBinAddr: 0x73D10, symSize: 0x50 }
  - { offsetInCU: 0x13556, offset: 0x2AA17D, size: 0x8, addend: 0x0, symName: '__ZN4core3ptr61drop_in_place$LT$alloc..boxed..Box$LT$syn..expr..Expr$GT$$GT$17hdd7cb29ef2f233b5E', symObjAddr: 0x3C40, symBinAddr: 0x73D60, symSize: 0x50 }
  - { offsetInCU: 0x136B1, offset: 0x2AA2D8, size: 0x8, addend: 0x0, symName: '__ZN4core3ptr61drop_in_place$LT$syn..path..ParenthesizedGenericArguments$GT$17h48cffc44bfbce871E', symObjAddr: 0x3C90, symBinAddr: 0x73DB0, symSize: 0x170 }
  - { offsetInCU: 0x13C8B, offset: 0x2AA8B2, size: 0x8, addend: 0x0, symName: '__ZN4core3ptr63drop_in_place$LT$alloc..boxed..Box$LT$syn..lit..LitRepr$GT$$GT$17h66c49d60e5a75320E', symObjAddr: 0x3E00, symBinAddr: 0x73F20, symSize: 0x60 }
  - { offsetInCU: 0x13F80, offset: 0x2AABA7, size: 0x8, addend: 0x0, symName: '__ZN4core3ptr64drop_in_place$LT$alloc..boxed..Box$LT$syn..pat..FieldPat$GT$$GT$17h35d811900e2d6065E', symObjAddr: 0x3E60, symBinAddr: 0x73F80, symSize: 0x100 }
  - { offsetInCU: 0x1459B, offset: 0x2AB1C2, size: 0x8, addend: 0x0, symName: '__ZN4core3ptr64drop_in_place$LT$alloc..boxed..Box$LT$syn..ty..BareFnArg$GT$$GT$17h356d9fd263d1d06eE', symObjAddr: 0x3F60, symBinAddr: 0x74080, symSize: 0xE0 }
  - { offsetInCU: 0x14A21, offset: 0x2AB648, size: 0x8, addend: 0x0, symName: '__ZN4core3ptr65drop_in_place$LT$core..option..Option$LT$syn..expr..Label$GT$$GT$17h16f4c70e31d331bcE', symObjAddr: 0x4040, symBinAddr: 0x74160, symSize: 0x30 }
  - { offsetInCU: 0x14B5C, offset: 0x2AB783, size: 0x8, addend: 0x0, symName: '__ZN4core3ptr66drop_in_place$LT$core..option..Option$LT$syn..ty..Variadic$GT$$GT$17he5249964d25ac4b4E', symObjAddr: 0x4070, symBinAddr: 0x74190, symSize: 0x80 }
  - { offsetInCU: 0x14DB2, offset: 0x2AB9D9, size: 0x8, addend: 0x0, symName: '__ZN4core3ptr67drop_in_place$LT$alloc..boxed..Box$LT$syn..attr..NestedMeta$GT$$GT$17hfdfea15fdaa022c0E', symObjAddr: 0x40F0, symBinAddr: 0x74210, symSize: 0x60 }
  - { offsetInCU: 0x14F49, offset: 0x2ABB70, size: 0x8, addend: 0x0, symName: '__ZN4core3ptr67drop_in_place$LT$alloc..boxed..Box$LT$syn..expr..FieldValue$GT$$GT$17h0b8603554cd7f804E', symObjAddr: 0x4150, symBinAddr: 0x74270, symSize: 0xF0 }
  - { offsetInCU: 0x153DA, offset: 0x2AC001, size: 0x8, addend: 0x0, symName: '__ZN4core3ptr71drop_in_place$LT$syn..punctuated..Iter$LT$syn..attr..NestedMeta$GT$$GT$17h2031bceb8dbb3a2eE', symObjAddr: 0x4240, symBinAddr: 0x74360, symSize: 0x30 }
  - { offsetInCU: 0x15500, offset: 0x2AC127, size: 0x8, addend: 0x0, symName: '__ZN4core3ptr72drop_in_place$LT$core..option..Option$LT$syn..lifetime..Lifetime$GT$$GT$17h1fe84178ca026accE', symObjAddr: 0x4270, symBinAddr: 0x74390, symSize: 0x30 }
  - { offsetInCU: 0x1561C, offset: 0x2AC243, size: 0x8, addend: 0x0, symName: '__ZN4core3ptr75drop_in_place$LT$alloc..boxed..Box$LT$syn..generics..TypeParamBound$GT$$GT$17h99181abc3971de95E', symObjAddr: 0x42A0, symBinAddr: 0x743C0, symSize: 0x140 }
  - { offsetInCU: 0x15B51, offset: 0x2AC778, size: 0x8, addend: 0x0, symName: '__ZN4core3ptr78drop_in_place$LT$alloc..boxed..Box$LT$syn..expr..GenericMethodArgument$GT$$GT$17h125b58e28f8ce1d3E', symObjAddr: 0x43E0, symBinAddr: 0x74500, symSize: 0x60 }
  - { offsetInCU: 0x15D45, offset: 0x2AC96C, size: 0x8, addend: 0x0, symName: '__ZN4core3ptr78drop_in_place$LT$core..option..Option$LT$syn..generics..BoundLifetimes$GT$$GT$17he652ddd46a271117E', symObjAddr: 0x4440, symBinAddr: 0x74560, symSize: 0xE0 }
  - { offsetInCU: 0x16029, offset: 0x2ACC50, size: 0x8, addend: 0x0, symName: '__ZN4core3ptr86drop_in_place$LT$syn..punctuated..Punctuated$LT$syn..pat..Pat$C$syn..token..Or$GT$$GT$17h10d2332b7ccfdf1eE', symObjAddr: 0x4520, symBinAddr: 0x74640, symSize: 0x120 }
  - { offsetInCU: 0x1646F, offset: 0x2AD096, size: 0x8, addend: 0x0, symName: '__ZN4core3ptr87drop_in_place$LT$core..option..Option$LT$alloc..boxed..Box$LT$syn..pat..Pat$GT$$GT$$GT$17h62af4636ac2a1884E', symObjAddr: 0x4640, symBinAddr: 0x74760, symSize: 0x50 }
  - { offsetInCU: 0x165E1, offset: 0x2AD208, size: 0x8, addend: 0x0, symName: '__ZN4core3ptr87drop_in_place$LT$core..option..Option$LT$alloc..boxed..Box$LT$syn..ty..Type$GT$$GT$$GT$17h7e557e06c640adabE', symObjAddr: 0x4690, symBinAddr: 0x747B0, symSize: 0x50 }
  - { offsetInCU: 0x16753, offset: 0x2AD37A, size: 0x8, addend: 0x0, symName: '__ZN4core3ptr89drop_in_place$LT$core..option..Option$LT$alloc..boxed..Box$LT$syn..expr..Expr$GT$$GT$$GT$17hac1308b749c674f2E', symObjAddr: 0x46E0, symBinAddr: 0x74800, symSize: 0x50 }
  - { offsetInCU: 0x16903, offset: 0x2AD52A, size: 0x8, addend: 0x0, symName: '__ZN4core3ptr89drop_in_place$LT$syn..punctuated..Punctuated$LT$syn..pat..Pat$C$syn..token..Comma$GT$$GT$17hb21a89d073c38473E', symObjAddr: 0x4730, symBinAddr: 0x74850, symSize: 0x120 }
  - { offsetInCU: 0x16D9E, offset: 0x2AD9C5, size: 0x8, addend: 0x0, symName: '__ZN4core3ptr91drop_in_place$LT$syn..punctuated..Punctuated$LT$syn..expr..Expr$C$syn..token..Comma$GT$$GT$17h188efc9d6d68d956E', symObjAddr: 0x4850, symBinAddr: 0x74970, symSize: 0x120 }
  - { offsetInCU: 0x171FB, offset: 0x2ADE22, size: 0x8, addend: 0x0, symName: '__ZN4core3ptr94drop_in_place$LT$syn..punctuated..Punctuated$LT$syn..pat..FieldPat$C$syn..token..Comma$GT$$GT$17h455f569edb4e6790E', symObjAddr: 0x4970, symBinAddr: 0x74A90, symSize: 0xF0 }
  - { offsetInCU: 0x174C5, offset: 0x2AE0EC, size: 0x8, addend: 0x0, symName: '__ZN4core3ptr94drop_in_place$LT$syn..punctuated..Punctuated$LT$syn..ty..BareFnArg$C$syn..token..Comma$GT$$GT$17h587df0e54b9e0873E', symObjAddr: 0x4A60, symBinAddr: 0x74B80, symSize: 0x90 }
  - { offsetInCU: 0x176FB, offset: 0x2AE322, size: 0x8, addend: 0x0, symName: '__ZN4core3ptr96drop_in_place$LT$core..option..Option$LT$alloc..boxed..Box$LT$syn..path..PathSegment$GT$$GT$$GT$17h3bf14611e62f7b31E', symObjAddr: 0x4AF0, symBinAddr: 0x74C10, symSize: 0x120 }
  - { offsetInCU: 0x17D78, offset: 0x2AE99F, size: 0x8, addend: 0x0, symName: '__ZN4core3ptr97drop_in_place$LT$syn..punctuated..Punctuated$LT$syn..attr..NestedMeta$C$syn..token..Comma$GT$$GT$17h9f99bd3ec63381bfE', symObjAddr: 0x4C10, symBinAddr: 0x74D30, symSize: 0x150 }
  - { offsetInCU: 0x181E6, offset: 0x2AEE0D, size: 0x8, addend: 0x0, symName: '__ZN4core3ptr97drop_in_place$LT$syn..punctuated..Punctuated$LT$syn..expr..FieldValue$C$syn..token..Comma$GT$$GT$17ha3c034bbb8112aa3E', symObjAddr: 0x4D60, symBinAddr: 0x74E80, symSize: 0x90 }
  - { offsetInCU: 0x18498, offset: 0x2AF0BF, size: 0x8, addend: 0x0, symName: '__ZN4core3ptr97drop_in_place$LT$syn..punctuated..Punctuated$LT$syn..lifetime..Lifetime$C$syn..token..Add$GT$$GT$17h48ddb49b6dc35979E', symObjAddr: 0x4DF0, symBinAddr: 0x74F10, symSize: 0xC0 }
  - { offsetInCU: 0x18D92, offset: 0x2AF9B9, size: 0x8, addend: 0x0, symName: '__ZN53_$LT$core..fmt..Error$u20$as$u20$core..fmt..Debug$GT$3fmt17h43ae5cec9623af13E', symObjAddr: 0x4EB0, symBinAddr: 0x74FD0, symSize: 0x20 }
  - { offsetInCU: 0x21569, offset: 0x2B8190, size: 0x8, addend: 0x0, symName: __ZN21borsh_derive_internal17attribute_helpers13contains_skip17h7e094750e62c9923E, symObjAddr: 0x5060, symBinAddr: 0x75180, symSize: 0x320 }
  - { offsetInCU: 0x21CF8, offset: 0x2B891F, size: 0x8, addend: 0x0, symName: __ZN21borsh_derive_internal17attribute_helpers24contains_initialize_with17hbd22586f2acfc7ecE, symObjAddr: 0x5380, symBinAddr: 0x754A0, symSize: 0x59E }
  - { offsetInCU: 0x1E, offset: 0x2BC204, size: 0x8, addend: 0x0, symName: '__ZN4core3ptr100drop_in_place$LT$core..option..Option$LT$alloc..boxed..Box$LT$syn..generics..LifetimeDef$GT$$GT$$GT$17hb1ebaab36787e90eE', symObjAddr: 0x0, symBinAddr: 0x75A40, symSize: 0xF0 }
  - { offsetInCU: 0x60, offset: 0x2BC246, size: 0x8, addend: 0x0, symName: '__ZN70_$LT$core..num..error..TryFromIntError$u20$as$u20$core..fmt..Debug$GT$3fmt17hc0f971d0e5e88256E', symObjAddr: 0x5490, symBinAddr: 0x7AED0, symSize: 0x40 }
  - { offsetInCU: 0x1435, offset: 0x2BD61B, size: 0x8, addend: 0x0, symName: '__ZN4core3ptr100drop_in_place$LT$core..option..Option$LT$alloc..boxed..Box$LT$syn..generics..LifetimeDef$GT$$GT$$GT$17hb1ebaab36787e90eE', symObjAddr: 0x0, symBinAddr: 0x75A40, symSize: 0xF0 }
  - { offsetInCU: 0x19CC, offset: 0x2BDBB2, size: 0x8, addend: 0x0, symName: '__ZN4core3ptr100drop_in_place$LT$core..option..Option$LT$alloc..boxed..Box$LT$syn..path..GenericArgument$GT$$GT$$GT$17hd06bf3b107f2a3d5E', symObjAddr: 0xF0, symBinAddr: 0x75B30, symSize: 0x50 }
  - { offsetInCU: 0x1B9B, offset: 0x2BDD81, size: 0x8, addend: 0x0, symName: '__ZN4core3ptr103drop_in_place$LT$core..option..Option$LT$alloc..boxed..Box$LT$syn..generics..TypeParamBound$GT$$GT$$GT$17hfcd8207f8a028c2bE', symObjAddr: 0x140, symBinAddr: 0x75B80, symSize: 0x90 }
  - { offsetInCU: 0x1ED9, offset: 0x2BE0BF, size: 0x8, addend: 0x0, symName: '__ZN4core3ptr103drop_in_place$LT$core..option..Option$LT$alloc..boxed..Box$LT$syn..generics..WherePredicate$GT$$GT$$GT$17h12988340d4e02927E', symObjAddr: 0x1D0, symBinAddr: 0x75C10, symSize: 0x100 }
  - { offsetInCU: 0x2285, offset: 0x2BE46B, size: 0x8, addend: 0x0, symName: '__ZN4core3ptr103drop_in_place$LT$syn..punctuated..Punctuated$LT$syn..generics..TypeParamBound$C$syn..token..Add$GT$$GT$17h716b45ea8ea72241E', symObjAddr: 0x2D0, symBinAddr: 0x75D10, symSize: 0x1B0 }
  - { offsetInCU: 0x2A7C, offset: 0x2BEC62, size: 0x8, addend: 0x0, symName: '__ZN4core3ptr108drop_in_place$LT$syn..punctuated..Punctuated$LT$syn..expr..GenericMethodArgument$C$syn..token..Comma$GT$$GT$17h5887c08eb66a3c56E', symObjAddr: 0x480, symBinAddr: 0x75EC0, symSize: 0x160 }
  - { offsetInCU: 0x2ED7, offset: 0x2BF0BD, size: 0x8, addend: 0x0, symName: '__ZN4core3ptr33drop_in_place$LT$$RF$$LP$$RP$$GT$17h7ef36e31bdb1ce8fE', symObjAddr: 0x5E0, symBinAddr: 0x76020, symSize: 0x10 }
  - { offsetInCU: 0x2FBD, offset: 0x2BF1A3, size: 0x8, addend: 0x0, symName: '__ZN4core3ptr34drop_in_place$LT$syn..lit..Lit$GT$17hda325bcb34e6f29aE', symObjAddr: 0x5F0, symBinAddr: 0x76030, symSize: 0x110 }
  - { offsetInCU: 0x349A, offset: 0x2BF680, size: 0x8, addend: 0x0, symName: '__ZN4core3ptr34drop_in_place$LT$syn..pat..Pat$GT$17h599075e73d06762fE', symObjAddr: 0x700, symBinAddr: 0x76140, symSize: 0xB10 }
  - { offsetInCU: 0x6406, offset: 0x2C25EC, size: 0x8, addend: 0x0, symName: '__ZN4core3ptr34drop_in_place$LT$syn..ty..Type$GT$17h2c4c601c36c94dd9E', symObjAddr: 0x1210, symBinAddr: 0x76C50, symSize: 0x4B0 }
  - { offsetInCU: 0x7B7E, offset: 0x2C3D64, size: 0x8, addend: 0x0, symName: '__ZN4core3ptr36drop_in_place$LT$syn..expr..Expr$GT$17h8c447d897a47cbcdE', symObjAddr: 0x16C0, symBinAddr: 0x77100, symSize: 0x1E70 }
  - { offsetInCU: 0xFDB1, offset: 0x2CBF97, size: 0x8, addend: 0x0, symName: '__ZN4core3ptr36drop_in_place$LT$syn..mac..Macro$GT$17h93596ae7f4fc42efE', symObjAddr: 0x3530, symBinAddr: 0x78F70, symSize: 0x40 }
  - { offsetInCU: 0xFF02, offset: 0x2CC0E8, size: 0x8, addend: 0x0, symName: '__ZN4core3ptr36drop_in_place$LT$syn..path..Path$GT$17h61f6e6a2feab5ba3E', symObjAddr: 0x3570, symBinAddr: 0x78FB0, symSize: 0x1E0 }
  - { offsetInCU: 0x107A7, offset: 0x2CC98D, size: 0x8, addend: 0x0, symName: '__ZN4core3ptr37drop_in_place$LT$syn..stmt..Block$GT$17hd6ce716f7e6e81c0E', symObjAddr: 0x3750, symBinAddr: 0x79190, symSize: 0xD0 }
  - { offsetInCU: 0x10A89, offset: 0x2CCC6F, size: 0x8, addend: 0x0, symName: '__ZN4core3ptr38drop_in_place$LT$syn..error..Error$GT$17h33326dc27e0d553aE', symObjAddr: 0x3820, symBinAddr: 0x79260, symSize: 0x70 }
  - { offsetInCU: 0x10D5A, offset: 0x2CCF40, size: 0x8, addend: 0x0, symName: '__ZN4core3ptr38drop_in_place$LT$syn..expr..Member$GT$17h3f07ac8135c2055bE', symObjAddr: 0x3890, symBinAddr: 0x792D0, symSize: 0x30 }
  - { offsetInCU: 0x10E57, offset: 0x2CD03D, size: 0x8, addend: 0x0, symName: '__ZN4core3ptr39drop_in_place$LT$proc_macro2..Ident$GT$17hc5fc300e4ebe152dE', symObjAddr: 0x38C0, symBinAddr: 0x79300, symSize: 0x30 }
  - { offsetInCU: 0x10F35, offset: 0x2CD11B, size: 0x8, addend: 0x0, symName: '__ZN4core3ptr39drop_in_place$LT$syn..pat..PatTuple$GT$17ha0e5c031ab222142E', symObjAddr: 0x38F0, symBinAddr: 0x79330, symSize: 0x80 }
  - { offsetInCU: 0x1113D, offset: 0x2CD323, size: 0x8, addend: 0x0, symName: '__ZN4core3ptr40drop_in_place$LT$syn..ty..ReturnType$GT$17hf7ceb83f634aa2f1E', symObjAddr: 0x3970, symBinAddr: 0x793B0, symSize: 0x50 }
  - { offsetInCU: 0x113E5, offset: 0x2CD5CB, size: 0x8, addend: 0x0, symName: '__ZN4core3ptr45drop_in_place$LT$proc_macro2..TokenStream$GT$17h323de8357bb3343eE', symObjAddr: 0x39C0, symBinAddr: 0x79400, symSize: 0x140 }
  - { offsetInCU: 0x11873, offset: 0x2CDA59, size: 0x8, addend: 0x0, symName: '__ZN4core3ptr47drop_in_place$LT$syn..generics..WhereClause$GT$17h9494454a186ee05cE', symObjAddr: 0x3B00, symBinAddr: 0x79540, symSize: 0xE0 }
  - { offsetInCU: 0x11B6C, offset: 0x2CDD52, size: 0x8, addend: 0x0, symName: '__ZN4core3ptr47drop_in_place$LT$syn..path..GenericArgument$GT$17h4f6067f5bcfbc632E', symObjAddr: 0x3BE0, symBinAddr: 0x79620, symSize: 0xE0 }
  - { offsetInCU: 0x11E86, offset: 0x2CE06C, size: 0x8, addend: 0x0, symName: '__ZN4core3ptr54drop_in_place$LT$core..num..error..TryFromIntError$GT$17h4b8f17ac6de28471E', symObjAddr: 0x3CC0, symBinAddr: 0x79700, symSize: 0x10 }
  - { offsetInCU: 0x11EB2, offset: 0x2CE098, size: 0x8, addend: 0x0, symName: '__ZN4core3ptr58drop_in_place$LT$alloc..vec..Vec$LT$syn..expr..Arm$GT$$GT$17hea67c6cc4a6d8fc7E', symObjAddr: 0x3CD0, symBinAddr: 0x79710, symSize: 0xD0 }
  - { offsetInCU: 0x1213F, offset: 0x2CE325, size: 0x8, addend: 0x0, symName: '__ZN4core3ptr59drop_in_place$LT$alloc..boxed..Box$LT$syn..pat..Pat$GT$$GT$17hc0ae2d13b6413492E', symObjAddr: 0x3DA0, symBinAddr: 0x797E0, symSize: 0x50 }
  - { offsetInCU: 0x1229A, offset: 0x2CE480, size: 0x8, addend: 0x0, symName: '__ZN4core3ptr59drop_in_place$LT$alloc..boxed..Box$LT$syn..ty..Type$GT$$GT$17ha426b7a17f4d920bE', symObjAddr: 0x3DF0, symBinAddr: 0x79830, symSize: 0x50 }
  - { offsetInCU: 0x123F5, offset: 0x2CE5DB, size: 0x8, addend: 0x0, symName: '__ZN4core3ptr61drop_in_place$LT$alloc..boxed..Box$LT$syn..expr..Expr$GT$$GT$17hdd7cb29ef2f233b5E', symObjAddr: 0x3E40, symBinAddr: 0x79880, symSize: 0x50 }
  - { offsetInCU: 0x125CC, offset: 0x2CE7B2, size: 0x8, addend: 0x0, symName: '__ZN4core3ptr61drop_in_place$LT$syn..path..ParenthesizedGenericArguments$GT$17h48cffc44bfbce871E', symObjAddr: 0x3E90, symBinAddr: 0x798D0, symSize: 0x170 }
  - { offsetInCU: 0x12B93, offset: 0x2CED79, size: 0x8, addend: 0x0, symName: '__ZN4core3ptr63drop_in_place$LT$alloc..boxed..Box$LT$syn..lit..LitRepr$GT$$GT$17h66c49d60e5a75320E', symObjAddr: 0x4000, symBinAddr: 0x79A40, symSize: 0x60 }
  - { offsetInCU: 0x12E88, offset: 0x2CF06E, size: 0x8, addend: 0x0, symName: '__ZN4core3ptr64drop_in_place$LT$alloc..boxed..Box$LT$syn..pat..FieldPat$GT$$GT$17h35d811900e2d6065E', symObjAddr: 0x4060, symBinAddr: 0x79AA0, symSize: 0x100 }
  - { offsetInCU: 0x134A3, offset: 0x2CF689, size: 0x8, addend: 0x0, symName: '__ZN4core3ptr64drop_in_place$LT$alloc..boxed..Box$LT$syn..ty..BareFnArg$GT$$GT$17h356d9fd263d1d06eE', symObjAddr: 0x4160, symBinAddr: 0x79BA0, symSize: 0xE0 }
  - { offsetInCU: 0x13929, offset: 0x2CFB0F, size: 0x8, addend: 0x0, symName: '__ZN4core3ptr65drop_in_place$LT$core..option..Option$LT$syn..expr..Label$GT$$GT$17h16f4c70e31d331bcE', symObjAddr: 0x4240, symBinAddr: 0x79C80, symSize: 0x30 }
  - { offsetInCU: 0x13A64, offset: 0x2CFC4A, size: 0x8, addend: 0x0, symName: '__ZN4core3ptr66drop_in_place$LT$core..option..Option$LT$syn..ty..Variadic$GT$$GT$17he5249964d25ac4b4E', symObjAddr: 0x4270, symBinAddr: 0x79CB0, symSize: 0x80 }
  - { offsetInCU: 0x13CBA, offset: 0x2CFEA0, size: 0x8, addend: 0x0, symName: '__ZN4core3ptr67drop_in_place$LT$alloc..boxed..Box$LT$syn..expr..FieldValue$GT$$GT$17h0b8603554cd7f804E', symObjAddr: 0x42F0, symBinAddr: 0x79D30, symSize: 0xF0 }
  - { offsetInCU: 0x1414B, offset: 0x2D0331, size: 0x8, addend: 0x0, symName: '__ZN4core3ptr68drop_in_place$LT$alloc..boxed..Box$LT$syn..path..PathSegment$GT$$GT$17h17a0cf27e53a9363E', symObjAddr: 0x43E0, symBinAddr: 0x79E20, symSize: 0x140 }
  - { offsetInCU: 0x147B8, offset: 0x2D099E, size: 0x8, addend: 0x0, symName: '__ZN4core3ptr72drop_in_place$LT$alloc..boxed..Box$LT$syn..path..GenericArgument$GT$$GT$17h705036888f832d7fE', symObjAddr: 0x4520, symBinAddr: 0x79F60, symSize: 0x150 }
  - { offsetInCU: 0x14E25, offset: 0x2D100B, size: 0x8, addend: 0x0, symName: '__ZN4core3ptr72drop_in_place$LT$core..option..Option$LT$syn..lifetime..Lifetime$GT$$GT$17h1fe84178ca026accE', symObjAddr: 0x4670, symBinAddr: 0x7A0B0, symSize: 0x30 }
  - { offsetInCU: 0x14F41, offset: 0x2D1127, size: 0x8, addend: 0x0, symName: '__ZN4core3ptr75drop_in_place$LT$alloc..boxed..Box$LT$syn..generics..TypeParamBound$GT$$GT$17h99181abc3971de95E', symObjAddr: 0x46A0, symBinAddr: 0x7A0E0, symSize: 0x140 }
  - { offsetInCU: 0x15476, offset: 0x2D165C, size: 0x8, addend: 0x0, symName: '__ZN4core3ptr78drop_in_place$LT$alloc..boxed..Box$LT$syn..expr..GenericMethodArgument$GT$$GT$17h125b58e28f8ce1d3E', symObjAddr: 0x47E0, symBinAddr: 0x7A220, symSize: 0x60 }
  - { offsetInCU: 0x1566A, offset: 0x2D1850, size: 0x8, addend: 0x0, symName: '__ZN4core3ptr78drop_in_place$LT$core..option..Option$LT$syn..generics..BoundLifetimes$GT$$GT$17he652ddd46a271117E', symObjAddr: 0x4840, symBinAddr: 0x7A280, symSize: 0xE0 }
  - { offsetInCU: 0x1594E, offset: 0x2D1B34, size: 0x8, addend: 0x0, symName: '__ZN4core3ptr86drop_in_place$LT$syn..punctuated..Punctuated$LT$syn..pat..Pat$C$syn..token..Or$GT$$GT$17h10d2332b7ccfdf1eE', symObjAddr: 0x4920, symBinAddr: 0x7A360, symSize: 0x120 }
  - { offsetInCU: 0x15D94, offset: 0x2D1F7A, size: 0x8, addend: 0x0, symName: '__ZN4core3ptr87drop_in_place$LT$core..option..Option$LT$alloc..boxed..Box$LT$syn..pat..Pat$GT$$GT$$GT$17h62af4636ac2a1884E', symObjAddr: 0x4A40, symBinAddr: 0x7A480, symSize: 0x50 }
  - { offsetInCU: 0x15F06, offset: 0x2D20EC, size: 0x8, addend: 0x0, symName: '__ZN4core3ptr87drop_in_place$LT$core..option..Option$LT$alloc..boxed..Box$LT$syn..ty..Type$GT$$GT$$GT$17h7e557e06c640adabE', symObjAddr: 0x4A90, symBinAddr: 0x7A4D0, symSize: 0x50 }
  - { offsetInCU: 0x16078, offset: 0x2D225E, size: 0x8, addend: 0x0, symName: '__ZN4core3ptr89drop_in_place$LT$core..option..Option$LT$alloc..boxed..Box$LT$syn..expr..Expr$GT$$GT$$GT$17hac1308b749c674f2E', symObjAddr: 0x4AE0, symBinAddr: 0x7A520, symSize: 0x50 }
  - { offsetInCU: 0x16228, offset: 0x2D240E, size: 0x8, addend: 0x0, symName: '__ZN4core3ptr89drop_in_place$LT$syn..punctuated..Punctuated$LT$syn..pat..Pat$C$syn..token..Comma$GT$$GT$17hb21a89d073c38473E', symObjAddr: 0x4B30, symBinAddr: 0x7A570, symSize: 0x120 }
  - { offsetInCU: 0x16685, offset: 0x2D286B, size: 0x8, addend: 0x0, symName: '__ZN4core3ptr89drop_in_place$LT$syn..punctuated..Punctuated$LT$syn..ty..Type$C$syn..token..Comma$GT$$GT$17h1e45ff9808db47f0E', symObjAddr: 0x4C50, symBinAddr: 0x7A690, symSize: 0x120 }
  - { offsetInCU: 0x16B0D, offset: 0x2D2CF3, size: 0x8, addend: 0x0, symName: '__ZN4core3ptr91drop_in_place$LT$syn..punctuated..Punctuated$LT$syn..expr..Expr$C$syn..token..Comma$GT$$GT$17h188efc9d6d68d956E', symObjAddr: 0x4D70, symBinAddr: 0x7A7B0, symSize: 0x120 }
  - { offsetInCU: 0x16F6A, offset: 0x2D3150, size: 0x8, addend: 0x0, symName: '__ZN4core3ptr94drop_in_place$LT$syn..punctuated..Punctuated$LT$syn..pat..FieldPat$C$syn..token..Comma$GT$$GT$17h455f569edb4e6790E', symObjAddr: 0x4E90, symBinAddr: 0x7A8D0, symSize: 0xF0 }
  - { offsetInCU: 0x17234, offset: 0x2D341A, size: 0x8, addend: 0x0, symName: '__ZN4core3ptr94drop_in_place$LT$syn..punctuated..Punctuated$LT$syn..ty..BareFnArg$C$syn..token..Comma$GT$$GT$17h587df0e54b9e0873E', symObjAddr: 0x4F80, symBinAddr: 0x7A9C0, symSize: 0x90 }
  - { offsetInCU: 0x1746A, offset: 0x2D3650, size: 0x8, addend: 0x0, symName: '__ZN4core3ptr96drop_in_place$LT$core..option..Option$LT$alloc..boxed..Box$LT$syn..path..PathSegment$GT$$GT$$GT$17h3bf14611e62f7b31E', symObjAddr: 0x5010, symBinAddr: 0x7AA50, symSize: 0x120 }
  - { offsetInCU: 0x17A6B, offset: 0x2D3C51, size: 0x8, addend: 0x0, symName: '__ZN4core3ptr97drop_in_place$LT$syn..punctuated..Punctuated$LT$syn..expr..FieldValue$C$syn..token..Comma$GT$$GT$17ha3c034bbb8112aa3E', symObjAddr: 0x5130, symBinAddr: 0x7AB70, symSize: 0x90 }
  - { offsetInCU: 0x17D1D, offset: 0x2D3F03, size: 0x8, addend: 0x0, symName: '__ZN4core3ptr97drop_in_place$LT$syn..punctuated..Punctuated$LT$syn..lifetime..Lifetime$C$syn..token..Add$GT$$GT$17h48ddb49b6dc35979E', symObjAddr: 0x51C0, symBinAddr: 0x7AC00, symSize: 0xC0 }
  - { offsetInCU: 0x18195, offset: 0x2D437B, size: 0x8, addend: 0x0, symName: '__ZN4core3ptr99drop_in_place$LT$syn..punctuated..Punctuated$LT$syn..path..PathSegment$C$syn..token..Colon2$GT$$GT$17h843d9c3edae9de24E', symObjAddr: 0x5280, symBinAddr: 0x7ACC0, symSize: 0x210 }
  - { offsetInCU: 0x22914, offset: 0x2DEAFA, size: 0x8, addend: 0x0, symName: __ZN21borsh_derive_internal10struct_ser10struct_ser17h5366352baf823124E, symObjAddr: 0x54D0, symBinAddr: 0x7AF10, symSize: 0xD0A }
  - { offsetInCU: 0x1E, offset: 0x2E1F75, size: 0x8, addend: 0x0, symName: '__ZN40_$LT$F$u20$as$u20$syn..parse..Parser$GT$6parse217h8b4bc79ffa7aa735E', symObjAddr: 0x0, symBinAddr: 0x7BC20, symSize: 0x4A0 }
  - { offsetInCU: 0x190B, offset: 0x2E3862, size: 0x8, addend: 0x0, symName: '__ZN4core3ptr100drop_in_place$LT$core..option..Option$LT$alloc..boxed..Box$LT$syn..generics..LifetimeDef$GT$$GT$$GT$17hb1ebaab36787e90eE', symObjAddr: 0x4A0, symBinAddr: 0x7C0C0, symSize: 0xF0 }
  - { offsetInCU: 0x1EA2, offset: 0x2E3DF9, size: 0x8, addend: 0x0, symName: '__ZN4core3ptr100drop_in_place$LT$core..option..Option$LT$alloc..boxed..Box$LT$syn..path..GenericArgument$GT$$GT$$GT$17hd06bf3b107f2a3d5E', symObjAddr: 0x590, symBinAddr: 0x7C1B0, symSize: 0x50 }
  - { offsetInCU: 0x2071, offset: 0x2E3FC8, size: 0x8, addend: 0x0, symName: '__ZN4core3ptr103drop_in_place$LT$core..option..Option$LT$alloc..boxed..Box$LT$syn..generics..TypeParamBound$GT$$GT$$GT$17hfcd8207f8a028c2bE', symObjAddr: 0x5E0, symBinAddr: 0x7C200, symSize: 0x90 }
  - { offsetInCU: 0x23ED, offset: 0x2E4344, size: 0x8, addend: 0x0, symName: '__ZN4core3ptr103drop_in_place$LT$syn..punctuated..Punctuated$LT$syn..generics..TypeParamBound$C$syn..token..Add$GT$$GT$17h716b45ea8ea72241E', symObjAddr: 0x670, symBinAddr: 0x7C290, symSize: 0x1B0 }
  - { offsetInCU: 0x2BE4, offset: 0x2E4B3B, size: 0x8, addend: 0x0, symName: '__ZN4core3ptr108drop_in_place$LT$syn..punctuated..Punctuated$LT$syn..expr..GenericMethodArgument$C$syn..token..Comma$GT$$GT$17h5887c08eb66a3c56E', symObjAddr: 0x820, symBinAddr: 0x7C440, symSize: 0x160 }
  - { offsetInCU: 0x30F9, offset: 0x2E5050, size: 0x8, addend: 0x0, symName: '__ZN4core3ptr34drop_in_place$LT$syn..lit..Lit$GT$17hda325bcb34e6f29aE', symObjAddr: 0x980, symBinAddr: 0x7C5A0, symSize: 0x110 }
  - { offsetInCU: 0x35D6, offset: 0x2E552D, size: 0x8, addend: 0x0, symName: '__ZN4core3ptr34drop_in_place$LT$syn..pat..Pat$GT$17h599075e73d06762fE', symObjAddr: 0xA90, symBinAddr: 0x7C6B0, symSize: 0xB10 }
  - { offsetInCU: 0x6542, offset: 0x2E8499, size: 0x8, addend: 0x0, symName: '__ZN4core3ptr34drop_in_place$LT$syn..ty..Type$GT$17h2c4c601c36c94dd9E', symObjAddr: 0x15A0, symBinAddr: 0x7D1C0, symSize: 0x4B0 }
  - { offsetInCU: 0x7CBA, offset: 0x2E9C11, size: 0x8, addend: 0x0, symName: '__ZN4core3ptr36drop_in_place$LT$syn..expr..Expr$GT$17h8c447d897a47cbcdE', symObjAddr: 0x1A50, symBinAddr: 0x7D670, symSize: 0x1E70 }
  - { offsetInCU: 0xFEED, offset: 0x2F1E44, size: 0x8, addend: 0x0, symName: '__ZN4core3ptr36drop_in_place$LT$syn..mac..Macro$GT$17h93596ae7f4fc42efE', symObjAddr: 0x38C0, symBinAddr: 0x7F4E0, symSize: 0x40 }
  - { offsetInCU: 0x1003E, offset: 0x2F1F95, size: 0x8, addend: 0x0, symName: '__ZN4core3ptr36drop_in_place$LT$syn..path..Path$GT$17h61f6e6a2feab5ba3E', symObjAddr: 0x3900, symBinAddr: 0x7F520, symSize: 0x1E0 }
  - { offsetInCU: 0x108E3, offset: 0x2F283A, size: 0x8, addend: 0x0, symName: '__ZN4core3ptr37drop_in_place$LT$syn..stmt..Block$GT$17hd6ce716f7e6e81c0E', symObjAddr: 0x3AE0, symBinAddr: 0x7F700, symSize: 0xD0 }
  - { offsetInCU: 0x10B87, offset: 0x2F2ADE, size: 0x8, addend: 0x0, symName: '__ZN4core3ptr38drop_in_place$LT$syn..expr..Member$GT$17h3f07ac8135c2055bE', symObjAddr: 0x3BB0, symBinAddr: 0x7F7D0, symSize: 0x30 }
  - { offsetInCU: 0x10C84, offset: 0x2F2BDB, size: 0x8, addend: 0x0, symName: '__ZN4core3ptr39drop_in_place$LT$proc_macro2..Ident$GT$17hc5fc300e4ebe152dE', symObjAddr: 0x3BE0, symBinAddr: 0x7F800, symSize: 0x30 }
  - { offsetInCU: 0x10E98, offset: 0x2F2DEF, size: 0x8, addend: 0x0, symName: '__ZN4core3ptr39drop_in_place$LT$syn..buffer..Entry$GT$17h5c077ae3ef8e7edcE', symObjAddr: 0x3C10, symBinAddr: 0x7F830, symSize: 0xC0 }
  - { offsetInCU: 0x111AC, offset: 0x2F3103, size: 0x8, addend: 0x0, symName: '__ZN4core3ptr39drop_in_place$LT$syn..pat..PatTuple$GT$17ha0e5c031ab222142E', symObjAddr: 0x3CD0, symBinAddr: 0x7F8F0, symSize: 0x80 }
  - { offsetInCU: 0x113B4, offset: 0x2F330B, size: 0x8, addend: 0x0, symName: '__ZN4core3ptr40drop_in_place$LT$syn..ty..ReturnType$GT$17hf7ceb83f634aa2f1E', symObjAddr: 0x3D50, symBinAddr: 0x7F970, symSize: 0x50 }
  - { offsetInCU: 0x11526, offset: 0x2F347D, size: 0x8, addend: 0x0, symName: '__ZN4core3ptr44drop_in_place$LT$syn..parse..ParseBuffer$GT$17h7f6173709ae2c42dE', symObjAddr: 0x3DA0, symBinAddr: 0x7F9C0, symSize: 0x70 }
  - { offsetInCU: 0x118A3, offset: 0x2F37FA, size: 0x8, addend: 0x0, symName: '__ZN4core3ptr45drop_in_place$LT$proc_macro2..TokenStream$GT$17h323de8357bb3343eE', symObjAddr: 0x3E10, symBinAddr: 0x7FA30, symSize: 0x140 }
  - { offsetInCU: 0x11CD4, offset: 0x2F3C2B, size: 0x8, addend: 0x0, symName: '__ZN4core3ptr45drop_in_place$LT$syn..buffer..TokenBuffer$GT$17h38b6f67156345e29E', symObjAddr: 0x3F50, symBinAddr: 0x7FB70, symSize: 0xD0 }
  - { offsetInCU: 0x11F3A, offset: 0x2F3E91, size: 0x8, addend: 0x0, symName: '__ZN4core3ptr47drop_in_place$LT$syn..path..GenericArgument$GT$17h4f6067f5bcfbc632E', symObjAddr: 0x4020, symBinAddr: 0x7FC40, symSize: 0xE0 }
  - { offsetInCU: 0x122B1, offset: 0x2F4208, size: 0x8, addend: 0x0, symName: '__ZN4core3ptr50drop_in_place$LT$syn..generics..WherePredicate$GT$17h073070a2e98eaf57E', symObjAddr: 0x4100, symBinAddr: 0x7FD20, symSize: 0xD0 }
  - { offsetInCU: 0x1242F, offset: 0x2F4386, size: 0x8, addend: 0x0, symName: '__ZN4core3ptr58drop_in_place$LT$alloc..vec..Vec$LT$syn..expr..Arm$GT$$GT$17hea67c6cc4a6d8fc7E', symObjAddr: 0x41D0, symBinAddr: 0x7FDF0, symSize: 0xD0 }
  - { offsetInCU: 0x126BC, offset: 0x2F4613, size: 0x8, addend: 0x0, symName: '__ZN4core3ptr59drop_in_place$LT$alloc..boxed..Box$LT$syn..pat..Pat$GT$$GT$17hc0ae2d13b6413492E', symObjAddr: 0x42A0, symBinAddr: 0x7FEC0, symSize: 0x50 }
  - { offsetInCU: 0x12817, offset: 0x2F476E, size: 0x8, addend: 0x0, symName: '__ZN4core3ptr59drop_in_place$LT$alloc..boxed..Box$LT$syn..ty..Type$GT$$GT$17ha426b7a17f4d920bE', symObjAddr: 0x42F0, symBinAddr: 0x7FF10, symSize: 0x50 }
  - { offsetInCU: 0x12972, offset: 0x2F48C9, size: 0x8, addend: 0x0, symName: '__ZN4core3ptr61drop_in_place$LT$alloc..boxed..Box$LT$syn..expr..Expr$GT$$GT$17hdd7cb29ef2f233b5E', symObjAddr: 0x4340, symBinAddr: 0x7FF60, symSize: 0x50 }
  - { offsetInCU: 0x12B49, offset: 0x2F4AA0, size: 0x8, addend: 0x0, symName: '__ZN4core3ptr61drop_in_place$LT$syn..path..ParenthesizedGenericArguments$GT$17h48cffc44bfbce871E', symObjAddr: 0x4390, symBinAddr: 0x7FFB0, symSize: 0x170 }
  - { offsetInCU: 0x13110, offset: 0x2F5067, size: 0x8, addend: 0x0, symName: '__ZN4core3ptr63drop_in_place$LT$alloc..boxed..Box$LT$syn..lit..LitRepr$GT$$GT$17h66c49d60e5a75320E', symObjAddr: 0x4500, symBinAddr: 0x80120, symSize: 0x60 }
  - { offsetInCU: 0x13405, offset: 0x2F535C, size: 0x8, addend: 0x0, symName: '__ZN4core3ptr64drop_in_place$LT$alloc..boxed..Box$LT$syn..pat..FieldPat$GT$$GT$17h35d811900e2d6065E', symObjAddr: 0x4560, symBinAddr: 0x80180, symSize: 0x100 }
  - { offsetInCU: 0x13A20, offset: 0x2F5977, size: 0x8, addend: 0x0, symName: '__ZN4core3ptr64drop_in_place$LT$alloc..boxed..Box$LT$syn..ty..BareFnArg$GT$$GT$17h356d9fd263d1d06eE', symObjAddr: 0x4660, symBinAddr: 0x80280, symSize: 0xE0 }
  - { offsetInCU: 0x13EA6, offset: 0x2F5DFD, size: 0x8, addend: 0x0, symName: '__ZN4core3ptr65drop_in_place$LT$core..option..Option$LT$syn..expr..Label$GT$$GT$17h16f4c70e31d331bcE', symObjAddr: 0x4740, symBinAddr: 0x80360, symSize: 0x30 }
  - { offsetInCU: 0x13FE1, offset: 0x2F5F38, size: 0x8, addend: 0x0, symName: '__ZN4core3ptr66drop_in_place$LT$core..option..Option$LT$syn..ty..Variadic$GT$$GT$17he5249964d25ac4b4E', symObjAddr: 0x4770, symBinAddr: 0x80390, symSize: 0x80 }
  - { offsetInCU: 0x14237, offset: 0x2F618E, size: 0x8, addend: 0x0, symName: '__ZN4core3ptr67drop_in_place$LT$alloc..boxed..Box$LT$syn..expr..FieldValue$GT$$GT$17h0b8603554cd7f804E', symObjAddr: 0x47F0, symBinAddr: 0x80410, symSize: 0xF0 }
  - { offsetInCU: 0x146C8, offset: 0x2F661F, size: 0x8, addend: 0x0, symName: '__ZN4core3ptr68drop_in_place$LT$alloc..boxed..Box$LT$syn..path..PathSegment$GT$$GT$17h17a0cf27e53a9363E', symObjAddr: 0x48E0, symBinAddr: 0x80500, symSize: 0x140 }
  - { offsetInCU: 0x14D35, offset: 0x2F6C8C, size: 0x8, addend: 0x0, symName: '__ZN4core3ptr72drop_in_place$LT$alloc..boxed..Box$LT$syn..path..GenericArgument$GT$$GT$17h705036888f832d7fE', symObjAddr: 0x4A20, symBinAddr: 0x80640, symSize: 0x150 }
  - { offsetInCU: 0x153A2, offset: 0x2F72F9, size: 0x8, addend: 0x0, symName: '__ZN4core3ptr72drop_in_place$LT$core..option..Option$LT$syn..lifetime..Lifetime$GT$$GT$17h1fe84178ca026accE', symObjAddr: 0x4B70, symBinAddr: 0x80790, symSize: 0x30 }
  - { offsetInCU: 0x154BE, offset: 0x2F7415, size: 0x8, addend: 0x0, symName: '__ZN4core3ptr75drop_in_place$LT$alloc..boxed..Box$LT$syn..generics..TypeParamBound$GT$$GT$17h99181abc3971de95E', symObjAddr: 0x4BA0, symBinAddr: 0x807C0, symSize: 0x140 }
  - { offsetInCU: 0x159F3, offset: 0x2F794A, size: 0x8, addend: 0x0, symName: '__ZN4core3ptr78drop_in_place$LT$alloc..boxed..Box$LT$syn..expr..GenericMethodArgument$GT$$GT$17h125b58e28f8ce1d3E', symObjAddr: 0x4CE0, symBinAddr: 0x80900, symSize: 0x60 }
  - { offsetInCU: 0x15BE7, offset: 0x2F7B3E, size: 0x8, addend: 0x0, symName: '__ZN4core3ptr78drop_in_place$LT$core..option..Option$LT$syn..generics..BoundLifetimes$GT$$GT$17he652ddd46a271117E', symObjAddr: 0x4D40, symBinAddr: 0x80960, symSize: 0xE0 }
  - { offsetInCU: 0x15ECB, offset: 0x2F7E22, size: 0x8, addend: 0x0, symName: '__ZN4core3ptr86drop_in_place$LT$syn..punctuated..Punctuated$LT$syn..pat..Pat$C$syn..token..Or$GT$$GT$17h10d2332b7ccfdf1eE', symObjAddr: 0x4E20, symBinAddr: 0x80A40, symSize: 0x120 }
  - { offsetInCU: 0x16311, offset: 0x2F8268, size: 0x8, addend: 0x0, symName: '__ZN4core3ptr87drop_in_place$LT$core..option..Option$LT$alloc..boxed..Box$LT$syn..pat..Pat$GT$$GT$$GT$17h62af4636ac2a1884E', symObjAddr: 0x4F40, symBinAddr: 0x80B60, symSize: 0x50 }
  - { offsetInCU: 0x16483, offset: 0x2F83DA, size: 0x8, addend: 0x0, symName: '__ZN4core3ptr87drop_in_place$LT$core..option..Option$LT$alloc..boxed..Box$LT$syn..ty..Type$GT$$GT$$GT$17h7e557e06c640adabE', symObjAddr: 0x4F90, symBinAddr: 0x80BB0, symSize: 0x50 }
  - { offsetInCU: 0x165F5, offset: 0x2F854C, size: 0x8, addend: 0x0, symName: '__ZN4core3ptr89drop_in_place$LT$core..option..Option$LT$alloc..boxed..Box$LT$syn..expr..Expr$GT$$GT$$GT$17hac1308b749c674f2E', symObjAddr: 0x4FE0, symBinAddr: 0x80C00, symSize: 0x50 }
  - { offsetInCU: 0x167A5, offset: 0x2F86FC, size: 0x8, addend: 0x0, symName: '__ZN4core3ptr89drop_in_place$LT$syn..punctuated..Punctuated$LT$syn..pat..Pat$C$syn..token..Comma$GT$$GT$17hb21a89d073c38473E', symObjAddr: 0x5030, symBinAddr: 0x80C50, symSize: 0x120 }
  - { offsetInCU: 0x16C02, offset: 0x2F8B59, size: 0x8, addend: 0x0, symName: '__ZN4core3ptr89drop_in_place$LT$syn..punctuated..Punctuated$LT$syn..ty..Type$C$syn..token..Comma$GT$$GT$17h1e45ff9808db47f0E', symObjAddr: 0x5150, symBinAddr: 0x80D70, symSize: 0x120 }
  - { offsetInCU: 0x1708A, offset: 0x2F8FE1, size: 0x8, addend: 0x0, symName: '__ZN4core3ptr91drop_in_place$LT$syn..punctuated..Punctuated$LT$syn..expr..Expr$C$syn..token..Comma$GT$$GT$17h188efc9d6d68d956E', symObjAddr: 0x5270, symBinAddr: 0x80E90, symSize: 0x120 }
  - { offsetInCU: 0x174E7, offset: 0x2F943E, size: 0x8, addend: 0x0, symName: '__ZN4core3ptr94drop_in_place$LT$syn..punctuated..Punctuated$LT$syn..pat..FieldPat$C$syn..token..Comma$GT$$GT$17h455f569edb4e6790E', symObjAddr: 0x5390, symBinAddr: 0x80FB0, symSize: 0xF0 }
  - { offsetInCU: 0x177B1, offset: 0x2F9708, size: 0x8, addend: 0x0, symName: '__ZN4core3ptr94drop_in_place$LT$syn..punctuated..Punctuated$LT$syn..ty..BareFnArg$C$syn..token..Comma$GT$$GT$17h587df0e54b9e0873E', symObjAddr: 0x5480, symBinAddr: 0x810A0, symSize: 0x90 }
  - { offsetInCU: 0x179E7, offset: 0x2F993E, size: 0x8, addend: 0x0, symName: '__ZN4core3ptr96drop_in_place$LT$core..option..Option$LT$alloc..boxed..Box$LT$syn..path..PathSegment$GT$$GT$$GT$17h3bf14611e62f7b31E', symObjAddr: 0x5510, symBinAddr: 0x81130, symSize: 0x120 }
  - { offsetInCU: 0x17FE8, offset: 0x2F9F3F, size: 0x8, addend: 0x0, symName: '__ZN4core3ptr97drop_in_place$LT$syn..punctuated..Punctuated$LT$syn..expr..FieldValue$C$syn..token..Comma$GT$$GT$17ha3c034bbb8112aa3E', symObjAddr: 0x5630, symBinAddr: 0x81250, symSize: 0x90 }
  - { offsetInCU: 0x1829A, offset: 0x2FA1F1, size: 0x8, addend: 0x0, symName: '__ZN4core3ptr97drop_in_place$LT$syn..punctuated..Punctuated$LT$syn..lifetime..Lifetime$C$syn..token..Add$GT$$GT$17h48ddb49b6dc35979E', symObjAddr: 0x56C0, symBinAddr: 0x812E0, symSize: 0xC0 }
  - { offsetInCU: 0x18712, offset: 0x2FA669, size: 0x8, addend: 0x0, symName: '__ZN4core3ptr99drop_in_place$LT$syn..punctuated..Punctuated$LT$syn..path..PathSegment$C$syn..token..Colon2$GT$$GT$17h843d9c3edae9de24E', symObjAddr: 0x5780, symBinAddr: 0x813A0, symSize: 0x20B }
  - { offsetInCU: 0x1F74F, offset: 0x3016A6, size: 0x8, addend: 0x0, symName: '__ZN40_$LT$F$u20$as$u20$syn..parse..Parser$GT$6parse217h8b4bc79ffa7aa735E', symObjAddr: 0x0, symBinAddr: 0x7BC20, symSize: 0x4A0 }
  - { offsetInCU: 0x1E, offset: 0x30714B, size: 0x8, addend: 0x0, symName: '__ZN4core3ptr73drop_in_place$LT$core..cell..UnsafeCell$LT$syn..parse..Unexpected$GT$$GT$17h53b515610c6d80aaE.llvm.16112683204791295170', symObjAddr: 0x0, symBinAddr: 0x815B0, symSize: 0x50 }
  - { offsetInCU: 0xB35, offset: 0x307C62, size: 0x8, addend: 0x0, symName: '__ZN4core3ptr73drop_in_place$LT$core..cell..UnsafeCell$LT$syn..parse..Unexpected$GT$$GT$17h53b515610c6d80aaE.llvm.16112683204791295170', symObjAddr: 0x0, symBinAddr: 0x815B0, symSize: 0x50 }
  - { offsetInCU: 0x166C, offset: 0x308799, size: 0x8, addend: 0x0, symName: '__ZN68_$LT$alloc..rc..Rc$LT$T$C$A$GT$$u20$as$u20$core..ops..drop..Drop$GT$4drop17h0ca0348d9e0ced3cE', symObjAddr: 0xC0, symBinAddr: 0x81600, symSize: 0xE0 }
  - { offsetInCU: 0x1B5F, offset: 0x308C8C, size: 0x8, addend: 0x0, symName: '__ZN68_$LT$alloc..rc..Rc$LT$T$C$A$GT$$u20$as$u20$core..ops..drop..Drop$GT$4drop17h27bb923378afb9d7E', symObjAddr: 0x1A0, symBinAddr: 0x816E0, symSize: 0x30 }
  - { offsetInCU: 0x1DD3, offset: 0x308F00, size: 0x8, addend: 0x0, symName: '__ZN68_$LT$alloc..rc..Rc$LT$T$C$A$GT$$u20$as$u20$core..ops..drop..Drop$GT$4drop17h878a968224dd7a79E', symObjAddr: 0x1D0, symBinAddr: 0x81710, symSize: 0x3C }
  - { offsetInCU: 0x1E, offset: 0x309ECC, size: 0x8, addend: 0x0, symName: '__ZN120_$LT$proc_macro2..fallback..TokenStream$u20$as$u20$core..iter..traits..collect..Extend$LT$proc_macro2..TokenTree$GT$$GT$6extend17hc71fb58656637d6aE', symObjAddr: 0x0, symBinAddr: 0x81750, symSize: 0x270 }
  - { offsetInCU: 0x918, offset: 0x30A7C6, size: 0x8, addend: 0x0, symName: '__ZN120_$LT$proc_macro2..fallback..TokenStream$u20$as$u20$core..iter..traits..collect..Extend$LT$proc_macro2..TokenTree$GT$$GT$6extend17hc71fb58656637d6aE', symObjAddr: 0x0, symBinAddr: 0x81750, symSize: 0x270 }
  - { offsetInCU: 0x1838, offset: 0x30B6E6, size: 0x8, addend: 0x0, symName: '__ZN4core3ptr45drop_in_place$LT$proc_macro2..TokenStream$GT$17h323de8357bb3343eE', symObjAddr: 0x270, symBinAddr: 0x819C0, symSize: 0x135 }
  - { offsetInCU: 0x1E, offset: 0x30D1DC, size: 0x8, addend: 0x0, symName: '__ZN4core3ptr43drop_in_place$LT$proc_macro2..TokenTree$GT$17h1ca1d01074b2296cE.llvm.8627181424749215367', symObjAddr: 0x0, symBinAddr: 0x81B00, symSize: 0xB0 }
  - { offsetInCU: 0xE42, offset: 0x30E000, size: 0x8, addend: 0x0, symName: '__ZN4core3ptr43drop_in_place$LT$proc_macro2..TokenTree$GT$17h1ca1d01074b2296cE.llvm.8627181424749215367', symObjAddr: 0x0, symBinAddr: 0x81B00, symSize: 0xB0 }
  - { offsetInCU: 0x18CC, offset: 0x30EA8A, size: 0x8, addend: 0x0, symName: '__ZN86_$LT$alloc..vec..into_iter..IntoIter$LT$T$C$A$GT$$u20$as$u20$core..ops..drop..Drop$GT$4drop17h1e208ad428fe1454E', symObjAddr: 0xB0, symBinAddr: 0x81BB0, symSize: 0xF0 }
  - { offsetInCU: 0x1C3E, offset: 0x30EDFC, size: 0x8, addend: 0x0, symName: '__ZN86_$LT$alloc..vec..into_iter..IntoIter$LT$T$C$A$GT$$u20$as$u20$core..ops..drop..Drop$GT$4drop17he01532a2b0ff3575E', symObjAddr: 0x1A0, symBinAddr: 0x81CA0, symSize: 0xCD }
  - { offsetInCU: 0x35, offset: 0x30FAB4, size: 0x8, addend: 0x0, symName: _anon.95e521eb76ca72c29542ad853f1c6a8f.0.llvm.6978960517606600809, symObjAddr: 0x310, symBinAddr: 0x298CD8, symSize: 0x0 }
  - { offsetInCU: 0x107, offset: 0x30FB86, size: 0x8, addend: 0x0, symName: '__ZN58_$LT$alloc..string..String$u20$as$u20$core..fmt..Write$GT$10write_char17hd329c0cb943f081aE.llvm.6978960517606600809', symObjAddr: 0x140, symBinAddr: 0x81DC0, symSize: 0x130 }
  - { offsetInCU: 0x4AE, offset: 0x30FF2D, size: 0x8, addend: 0x0, symName: '__ZN58_$LT$alloc..string..String$u20$as$u20$core..fmt..Write$GT$9write_str17h1ff5aa96ca91c6d5E.llvm.6978960517606600809', symObjAddr: 0x270, symBinAddr: 0x81EF0, symSize: 0x5B }
  - { offsetInCU: 0x9F3, offset: 0x310472, size: 0x8, addend: 0x0, symName: '__ZN4core3ptr37drop_in_place$LT$core..fmt..Error$GT$17hb7e582b4ebcf53beE.llvm.6978960517606600809', symObjAddr: 0xF0, symBinAddr: 0x81D70, symSize: 0x10 }
  - { offsetInCU: 0xA1F, offset: 0x31049E, size: 0x8, addend: 0x0, symName: '__ZN4core3ptr42drop_in_place$LT$alloc..string..String$GT$17he7af315973f0f17fE.llvm.6978960517606600809', symObjAddr: 0x100, symBinAddr: 0x81D80, symSize: 0x20 }
  - { offsetInCU: 0xC0C, offset: 0x31068B, size: 0x8, addend: 0x0, symName: '__ZN53_$LT$core..fmt..Error$u20$as$u20$core..fmt..Debug$GT$3fmt17h43ae5cec9623af13E.llvm.6978960517606600809', symObjAddr: 0x120, symBinAddr: 0x81DA0, symSize: 0x20 }
  - { offsetInCU: 0xE2A, offset: 0x3108A9, size: 0x8, addend: 0x0, symName: _anon.95e521eb76ca72c29542ad853f1c6a8f.4.llvm.6978960517606600809, symObjAddr: 0x358, symBinAddr: 0x298D20, symSize: 0x0 }
  - { offsetInCU: 0x1E, offset: 0x31108B, size: 0x8, addend: 0x0, symName: __ZN4core3fmt5Write9write_fmt17hbd03d9e55093b443E, symObjAddr: 0x0, symBinAddr: 0x81F50, symSize: 0x20 }
  - { offsetInCU: 0x89, offset: 0x3110F6, size: 0x8, addend: 0x0, symName: '__ZN58_$LT$alloc..string..String$u20$as$u20$core..fmt..Write$GT$10write_char17hd329c0cb943f081aE', symObjAddr: 0x40, symBinAddr: 0x81F90, symSize: 0x130 }
  - { offsetInCU: 0x430, offset: 0x31149D, size: 0x8, addend: 0x0, symName: '__ZN58_$LT$alloc..string..String$u20$as$u20$core..fmt..Write$GT$9write_str17h1ff5aa96ca91c6d5E', symObjAddr: 0x170, symBinAddr: 0x820C0, symSize: 0x5B }
  - { offsetInCU: 0x956, offset: 0x3119C3, size: 0x8, addend: 0x0, symName: '__ZN4core3ptr42drop_in_place$LT$alloc..string..String$GT$17he7af315973f0f17fE', symObjAddr: 0x20, symBinAddr: 0x81F70, symSize: 0x20 }
  - { offsetInCU: 0xC0C, offset: 0x311C79, size: 0x8, addend: 0x0, symName: __ZN4core3fmt5Write9write_fmt17hbd03d9e55093b443E, symObjAddr: 0x0, symBinAddr: 0x81F50, symSize: 0x20 }
  - { offsetInCU: 0x1E, offset: 0x312724, size: 0x8, addend: 0x0, symName: __ZN3std9panicking11begin_panic17h99a366d4a56f7ec4E, symObjAddr: 0x0, symBinAddr: 0x21DB10, symSize: 0x20 }
  - { offsetInCU: 0x31B, offset: 0x312A21, size: 0x8, addend: 0x0, symName: '__ZN4core3ptr28drop_in_place$LT$$RF$str$GT$17h50a13741be10b5cbE', symObjAddr: 0x20, symBinAddr: 0x82120, symSize: 0x10 }
  - { offsetInCU: 0x64B, offset: 0x312D51, size: 0x8, addend: 0x0, symName: __ZN3std9panicking11begin_panic17h99a366d4a56f7ec4E, symObjAddr: 0x0, symBinAddr: 0x21DB10, symSize: 0x20 }
  - { offsetInCU: 0x6A7, offset: 0x312DAD, size: 0x8, addend: 0x0, symName: '__ZN91_$LT$std..panicking..begin_panic..Payload$LT$A$GT$$u20$as$u20$core..panic..PanicPayload$GT$3get17hdf817e8eaaaa5c56E', symObjAddr: 0x30, symBinAddr: 0x82130, symSize: 0x20 }
  - { offsetInCU: 0x6DF, offset: 0x312DE5, size: 0x8, addend: 0x0, symName: '__ZN91_$LT$std..panicking..begin_panic..Payload$LT$A$GT$$u20$as$u20$core..panic..PanicPayload$GT$8take_box17hdd77f6b843d8e782E', symObjAddr: 0x50, symBinAddr: 0x82150, symSize: 0x5F }
  - { offsetInCU: 0x1E, offset: 0x3132D3, size: 0x8, addend: 0x0, symName: __ZN21borsh_derive_internal9union_ser9union_ser17h97aadbfd82cdd3c5E, symObjAddr: 0x0, symBinAddr: 0x821B0, symSize: 0x4B }
  - { offsetInCU: 0x3F0F, offset: 0x3171C4, size: 0x8, addend: 0x0, symName: __ZN21borsh_derive_internal9union_ser9union_ser17h97aadbfd82cdd3c5E, symObjAddr: 0x0, symBinAddr: 0x821B0, symSize: 0x4B }
  - { offsetInCU: 0x1E, offset: 0x31BE17, size: 0x8, addend: 0x0, symName: __ZN21borsh_derive_internal8union_de8union_de17hfa8eba3c6af8955eE, symObjAddr: 0x0, symBinAddr: 0x82200, symSize: 0x4B }
  - { offsetInCU: 0x3F0F, offset: 0x31FD08, size: 0x8, addend: 0x0, symName: __ZN21borsh_derive_internal8union_de8union_de17hfa8eba3c6af8955eE, symObjAddr: 0x0, symBinAddr: 0x82200, symSize: 0x4B }
  - { offsetInCU: 0x1E, offset: 0x32495B, size: 0x8, addend: 0x0, symName: '__ZN115_$LT$proc_macro2..imp..TokenStream$u20$as$u20$core..iter..traits..collect..Extend$LT$proc_macro2..TokenTree$GT$$GT$6extend17hcf726da43b5ba50aE', symObjAddr: 0x0, symBinAddr: 0x82250, symSize: 0x110 }
  - { offsetInCU: 0x71F, offset: 0x32505C, size: 0x8, addend: 0x0, symName: '__ZN115_$LT$proc_macro2..imp..TokenStream$u20$as$u20$core..iter..traits..collect..Extend$LT$proc_macro2..TokenTree$GT$$GT$6extend17hcf726da43b5ba50aE', symObjAddr: 0x0, symBinAddr: 0x82250, symSize: 0x110 }
  - { offsetInCU: 0x1476, offset: 0x325DB3, size: 0x8, addend: 0x0, symName: '__ZN4core3ptr56drop_in_place$LT$proc_macro2..token_stream..IntoIter$GT$17hfbb2dcfb9a997dfeE.llvm.16445790099076181119', symObjAddr: 0x110, symBinAddr: 0x82360, symSize: 0x1D }
  - { offsetInCU: 0x1E, offset: 0x3260F2, size: 0x8, addend: 0x0, symName: __ZN5quote9to_tokens8ToTokens17into_token_stream17h48014ad19e39be74E, symObjAddr: 0x0, symBinAddr: 0x82380, symSize: 0x10A }
  - { offsetInCU: 0x876, offset: 0x32694A, size: 0x8, addend: 0x0, symName: __ZN5quote9to_tokens8ToTokens17into_token_stream17h48014ad19e39be74E, symObjAddr: 0x0, symBinAddr: 0x82380, symSize: 0x10A }
  - { offsetInCU: 0x1E, offset: 0x32EEB3, size: 0x8, addend: 0x0, symName: '__ZN4core3ptr45drop_in_place$LT$proc_macro2..TokenStream$GT$17h323de8357bb3343eE.llvm.4822976242430893560', symObjAddr: 0x0, symBinAddr: 0x82490, symSize: 0x140 }
  - { offsetInCU: 0xA81, offset: 0x32F916, size: 0x8, addend: 0x0, symName: '__ZN4core3ptr45drop_in_place$LT$proc_macro2..TokenStream$GT$17h323de8357bb3343eE.llvm.4822976242430893560', symObjAddr: 0x0, symBinAddr: 0x82490, symSize: 0x140 }
  - { offsetInCU: 0x1E, offset: 0x33065F, size: 0x8, addend: 0x0, symName: '__ZN42_$LT$$RF$T$u20$as$u20$core..fmt..Debug$GT$3fmt17h1f9f25c5f42f8b45E', symObjAddr: 0x0, symBinAddr: 0x825D0, symSize: 0x20 }
  - { offsetInCU: 0xE5, offset: 0x330726, size: 0x8, addend: 0x0, symName: '__ZN42_$LT$$RF$T$u20$as$u20$core..fmt..Debug$GT$3fmt17h1f9f25c5f42f8b45E', symObjAddr: 0x0, symBinAddr: 0x825D0, symSize: 0x20 }
  - { offsetInCU: 0x1E, offset: 0x330933, size: 0x8, addend: 0x0, symName: __ZN3std10sys_common9backtrace26__rust_end_short_backtrace17h75e942f0c22f5b2cE, symObjAddr: 0x0, symBinAddr: 0x825F0, symSize: 0x10 }
  - { offsetInCU: 0x83, offset: 0x330998, size: 0x8, addend: 0x0, symName: '__ZN3std9panicking11begin_panic28_$u7b$$u7b$closure$u7d$$u7d$17h07609bde8f96a8d8E', symObjAddr: 0x10, symBinAddr: 0x82600, symSize: 0x40 }
  - { offsetInCU: 0x121, offset: 0x330A36, size: 0x8, addend: 0x0, symName: __ZN3std10sys_common9backtrace26__rust_end_short_backtrace17h75e942f0c22f5b2cE, symObjAddr: 0x0, symBinAddr: 0x825F0, symSize: 0x10 }
  - { offsetInCU: 0x1FB, offset: 0x330B10, size: 0x8, addend: 0x0, symName: '__ZN4core3ptr72drop_in_place$LT$std..panicking..begin_panic..Payload$LT$$RF$str$GT$$GT$17h83839fba68881f2dE', symObjAddr: 0x50, symBinAddr: 0x82640, symSize: 0x6 }
  - { offsetInCU: 0x1E, offset: 0x330BDE, size: 0x8, addend: 0x0, symName: '__ZN36_$LT$T$u20$as$u20$core..any..Any$GT$7type_id17h994d6f87e37a2f78E', symObjAddr: 0x0, symBinAddr: 0x82650, symSize: 0x1A }
  - { offsetInCU: 0x3A, offset: 0x330BFA, size: 0x8, addend: 0x0, symName: '__ZN36_$LT$T$u20$as$u20$core..any..Any$GT$7type_id17h994d6f87e37a2f78E', symObjAddr: 0x0, symBinAddr: 0x82650, symSize: 0x1A }
  - { offsetInCU: 0x1E, offset: 0x330CAB, size: 0x8, addend: 0x0, symName: '__ZN4core3ptr100drop_in_place$LT$core..option..Option$LT$alloc..boxed..Box$LT$syn..path..GenericArgument$GT$$GT$$GT$17h94fb3e089cc53ce6E.llvm.5745853400478960990', symObjAddr: 0x0, symBinAddr: 0x82670, symSize: 0x50 }
  - { offsetInCU: 0x35, offset: 0x330CC2, size: 0x8, addend: 0x0, symName: _anon.86aac99bc317abb8a815ead4756780ea.1.llvm.5745853400478960990, symObjAddr: 0x10DC0, symBinAddr: 0x298E30, symSize: 0x0 }
  - { offsetInCU: 0x1769, offset: 0x3323F6, size: 0x8, addend: 0x0, symName: '__ZN111_$LT$syn..punctuated..PrivateIter$LT$T$C$P$GT$$u20$as$u20$core..iter..traits..exact_size..ExactSizeIterator$GT$3len17h92ce5c6da87f80daE.llvm.5745853400478960990', symObjAddr: 0xE090, symBinAddr: 0x8E560, symSize: 0x30 }
  - { offsetInCU: 0x1835, offset: 0x3324C2, size: 0x8, addend: 0x0, symName: '__ZN111_$LT$syn..punctuated..PrivateIter$LT$T$C$P$GT$$u20$as$u20$core..iter..traits..exact_size..ExactSizeIterator$GT$3len17hc4c3f93eaf882c9cE.llvm.5745853400478960990', symObjAddr: 0xE0F0, symBinAddr: 0x8E590, symSize: 0x0 }
  - { offsetInCU: 0x1A41, offset: 0x3326CE, size: 0x8, addend: 0x0, symName: '__ZN115_$LT$syn..punctuated..PrivateIter$LT$T$C$P$GT$$u20$as$u20$core..iter..traits..double_ended..DoubleEndedIterator$GT$9next_back17h1719cd77e3534833E.llvm.5745853400478960990', symObjAddr: 0xDFA0, symBinAddr: 0x8E500, symSize: 0x30 }
  - { offsetInCU: 0x1CCA, offset: 0x332957, size: 0x8, addend: 0x0, symName: '__ZN115_$LT$syn..punctuated..PrivateIter$LT$T$C$P$GT$$u20$as$u20$core..iter..traits..double_ended..DoubleEndedIterator$GT$9next_back17hb56317f5003f8dc8E.llvm.5745853400478960990', symObjAddr: 0xE000, symBinAddr: 0x8E530, symSize: 0x0 }
  - { offsetInCU: 0x211E, offset: 0x332DAB, size: 0x8, addend: 0x0, symName: '__ZN100_$LT$syn..punctuated..PrivateIter$LT$T$C$P$GT$$u20$as$u20$core..iter..traits..iterator..Iterator$GT$4next17h07e819cbe2be9842E.llvm.5745853400478960990', symObjAddr: 0xDEE0, symBinAddr: 0x8E470, symSize: 0x30 }
  - { offsetInCU: 0x239E, offset: 0x33302B, size: 0x8, addend: 0x0, symName: '__ZN100_$LT$syn..punctuated..PrivateIter$LT$T$C$P$GT$$u20$as$u20$core..iter..traits..iterator..Iterator$GT$4next17h3055505db3d64e7eE.llvm.5745853400478960990', symObjAddr: 0xDF10, symBinAddr: 0x8E4A0, symSize: 0x0 }
  - { offsetInCU: 0x2643, offset: 0x3332D0, size: 0x8, addend: 0x0, symName: '__ZN100_$LT$syn..punctuated..PrivateIter$LT$T$C$P$GT$$u20$as$u20$core..iter..traits..iterator..Iterator$GT$4next17h8db26fcf87f6a9c1E.llvm.5745853400478960990', symObjAddr: 0xDF70, symBinAddr: 0x8E4D0, symSize: 0x30 }
  - { offsetInCU: 0x2DA5, offset: 0x333A32, size: 0x8, addend: 0x0, symName: '__ZN79_$LT$syn..punctuated..Punctuated$LT$T$C$P$GT$$u20$as$u20$core..clone..Clone$GT$5clone17h05f6b895e93d45a2E', symObjAddr: 0xB620, symBinAddr: 0x8CF20, symSize: 0xD0 }
  - { offsetInCU: 0x306E, offset: 0x333CFB, size: 0x8, addend: 0x0, symName: '__ZN79_$LT$syn..punctuated..Punctuated$LT$T$C$P$GT$$u20$as$u20$core..clone..Clone$GT$5clone17h0b604dd6105f20b2E', symObjAddr: 0xB7D0, symBinAddr: 0x8CFF0, symSize: 0xE0 }
  - { offsetInCU: 0x3338, offset: 0x333FC5, size: 0x8, addend: 0x0, symName: '__ZN79_$LT$syn..punctuated..Punctuated$LT$T$C$P$GT$$u20$as$u20$core..clone..Clone$GT$5clone17h148863cd508f313fE', symObjAddr: 0xB990, symBinAddr: 0x8D0D0, symSize: 0xE0 }
  - { offsetInCU: 0x3601, offset: 0x33428E, size: 0x8, addend: 0x0, symName: '__ZN79_$LT$syn..punctuated..Punctuated$LT$T$C$P$GT$$u20$as$u20$core..clone..Clone$GT$5clone17h298cb9db3b496dc1E', symObjAddr: 0xBA70, symBinAddr: 0x8D1B0, symSize: 0x170 }
  - { offsetInCU: 0x3AA3, offset: 0x334730, size: 0x8, addend: 0x0, symName: '__ZN79_$LT$syn..punctuated..Punctuated$LT$T$C$P$GT$$u20$as$u20$core..clone..Clone$GT$5clone17h331bb4f645f2156fE', symObjAddr: 0xBBE0, symBinAddr: 0x8D320, symSize: 0xE0 }
  - { offsetInCU: 0x3D6C, offset: 0x3349F9, size: 0x8, addend: 0x0, symName: '__ZN79_$LT$syn..punctuated..Punctuated$LT$T$C$P$GT$$u20$as$u20$core..clone..Clone$GT$5clone17h55e6cfc9776b7f8fE', symObjAddr: 0xBDA0, symBinAddr: 0x8D400, symSize: 0x1C0 }
  - { offsetInCU: 0x40B6, offset: 0x334D43, size: 0x8, addend: 0x0, symName: '__ZN79_$LT$syn..punctuated..Punctuated$LT$T$C$P$GT$$u20$as$u20$core..clone..Clone$GT$5clone17h5d8944468a1debbaE', symObjAddr: 0xC040, symBinAddr: 0x8D5C0, symSize: 0xE0 }
  - { offsetInCU: 0x4380, offset: 0x33500D, size: 0x8, addend: 0x0, symName: '__ZN79_$LT$syn..punctuated..Punctuated$LT$T$C$P$GT$$u20$as$u20$core..clone..Clone$GT$5clone17heafd3e0fd4cd446dE', symObjAddr: 0xC670, symBinAddr: 0x8D6A0, symSize: 0xE0 }
  - { offsetInCU: 0x464A, offset: 0x3352D7, size: 0x8, addend: 0x0, symName: '__ZN79_$LT$syn..punctuated..Punctuated$LT$T$C$P$GT$$u20$as$u20$core..clone..Clone$GT$5clone17hf4b05d9dcc3f4becE', symObjAddr: 0xC750, symBinAddr: 0x8D780, symSize: 0xE0 }
  - { offsetInCU: 0x4914, offset: 0x3355A1, size: 0x8, addend: 0x0, symName: '__ZN79_$LT$syn..punctuated..Punctuated$LT$T$C$P$GT$$u20$as$u20$core..clone..Clone$GT$5clone17hf4b4f6c8bf3ad272E', symObjAddr: 0xC830, symBinAddr: 0x8D860, symSize: 0xE0 }
  - { offsetInCU: 0x4BDE, offset: 0x33586B, size: 0x8, addend: 0x0, symName: '__ZN79_$LT$syn..punctuated..Punctuated$LT$T$C$P$GT$$u20$as$u20$core..clone..Clone$GT$5clone17hfb657b8c0a6ca153E', symObjAddr: 0xC910, symBinAddr: 0x8D940, symSize: 0xE0 }
  - { offsetInCU: 0x4EA8, offset: 0x335B35, size: 0x8, addend: 0x0, symName: '__ZN79_$LT$syn..punctuated..Punctuated$LT$T$C$P$GT$$u20$as$u20$core..clone..Clone$GT$5clone17hfeb81901058a14a0E', symObjAddr: 0xC9F0, symBinAddr: 0x8DA20, symSize: 0x110 }
  - { offsetInCU: 0x57CD, offset: 0x33645A, size: 0x8, addend: 0x0, symName: '__ZN138_$LT$syn..punctuated..Punctuated$LT$T$C$P$GT$$u20$as$u20$core..iter..traits..collect..Extend$LT$syn..punctuated..Pair$LT$T$C$P$GT$$GT$$GT$6extend17h974b9b4144a0d846E', symObjAddr: 0xCEE0, symBinAddr: 0x8DF10, symSize: 0x350 }
  - { offsetInCU: 0x5C1F, offset: 0x3368AC, size: 0x8, addend: 0x0, symName: '__ZN144_$LT$syn..punctuated..Punctuated$LT$T$C$P$GT$$u20$as$u20$core..iter..traits..collect..FromIterator$LT$syn..punctuated..Pair$LT$T$C$P$GT$$GT$$GT$9from_iter17h1fb63741a0ec80c0E', symObjAddr: 0xCB00, symBinAddr: 0x8DB30, symSize: 0x3E0 }
  - { offsetInCU: 0x62A2, offset: 0x336F2F, size: 0x8, addend: 0x0, symName: '__ZN102_$LT$syn..punctuated..Punctuated$LT$T$C$P$GT$$u20$as$u20$core..iter..traits..collect..IntoIterator$GT$9into_iter17h16a65ad7b657c901E', symObjAddr: 0xD230, symBinAddr: 0x8E260, symSize: 0x210 }
  - { offsetInCU: 0x7456, offset: 0x3380E3, size: 0x8, addend: 0x0, symName: '__ZN57_$LT$I$u20$as$u20$syn..punctuated..IterTrait$LT$T$GT$$GT$9clone_box17h66d1a2e07eeacf68E.llvm.5745853400478960990', symObjAddr: 0xE180, symBinAddr: 0x8E5C0, symSize: 0x60 }
  - { offsetInCU: 0x766A, offset: 0x3382F7, size: 0x8, addend: 0x0, symName: '__ZN57_$LT$I$u20$as$u20$syn..punctuated..IterTrait$LT$T$GT$$GT$9clone_box17h84dc693268a669aeE.llvm.5745853400478960990', symObjAddr: 0xE1E0, symBinAddr: 0x8E620, symSize: 0x60 }
  - { offsetInCU: 0x7884, offset: 0x338511, size: 0x8, addend: 0x0, symName: '__ZN97_$LT$syn..punctuated..Punctuated$LT$T$C$P$GT$$u20$as$u20$core..ops..index..Index$LT$usize$GT$$GT$5index17hb05ada42f6376c08E', symObjAddr: 0xE2A0, symBinAddr: 0x8E680, symSize: 0x50 }
  - { offsetInCU: 0x7A97, offset: 0x338724, size: 0x8, addend: 0x0, symName: '__ZN3syn10punctuated8printing97_$LT$impl$u20$quote..to_tokens..ToTokens$u20$for$u20$syn..punctuated..Punctuated$LT$T$C$P$GT$$GT$9to_tokens17h48d928101cbe0857E', symObjAddr: 0xE380, symBinAddr: 0x8E6D0, symSize: 0x2A0 }
  - { offsetInCU: 0x8365, offset: 0x338FF2, size: 0x8, addend: 0x0, symName: '__ZN3syn10punctuated8printing97_$LT$impl$u20$quote..to_tokens..ToTokens$u20$for$u20$syn..punctuated..Punctuated$LT$T$C$P$GT$$GT$9to_tokens17h9e4ca00edda9804bE', symObjAddr: 0xE700, symBinAddr: 0x8E970, symSize: 0x140 }
  - { offsetInCU: 0x88CA, offset: 0x339557, size: 0x8, addend: 0x0, symName: '__ZN3syn10punctuated8printing97_$LT$impl$u20$quote..to_tokens..ToTokens$u20$for$u20$syn..punctuated..Punctuated$LT$T$C$P$GT$$GT$9to_tokens17hbfceef9e4c02d3e4E', symObjAddr: 0xE8D0, symBinAddr: 0x8EAB0, symSize: 0x1B0 }
  - { offsetInCU: 0x135EA, offset: 0x344277, size: 0x8, addend: 0x0, symName: '__ZN4core3ptr100drop_in_place$LT$core..option..Option$LT$alloc..boxed..Box$LT$syn..path..GenericArgument$GT$$GT$$GT$17h94fb3e089cc53ce6E.llvm.5745853400478960990', symObjAddr: 0x0, symBinAddr: 0x82670, symSize: 0x50 }
  - { offsetInCU: 0x1375C, offset: 0x3443E9, size: 0x8, addend: 0x0, symName: '__ZN4core3ptr100drop_in_place$LT$syn..punctuated..PrivateIter$LT$syn..path..PathSegment$C$syn..token..Colon2$GT$$GT$17hcae8ad16c2a53f9fE.llvm.5745853400478960990', symObjAddr: 0x50, symBinAddr: 0x826C0, symSize: 0x0 }
  - { offsetInCU: 0x137A7, offset: 0x344434, size: 0x8, addend: 0x0, symName: '__ZN4core3ptr101drop_in_place$LT$alloc..vec..Vec$LT$$LP$syn..generics..WherePredicate$C$syn..token..Comma$RP$$GT$$GT$17hfa86c1e95e5ff653E.llvm.5745853400478960990', symObjAddr: 0x60, symBinAddr: 0x826D0, symSize: 0xD0 }
  - { offsetInCU: 0x13BBB, offset: 0x344848, size: 0x8, addend: 0x0, symName: '__ZN4core3ptr103drop_in_place$LT$core..option..Option$LT$alloc..boxed..Box$LT$syn..generics..TypeParamBound$GT$$GT$$GT$17h630691d3d4346209E.llvm.5745853400478960990', symObjAddr: 0x130, symBinAddr: 0x827A0, symSize: 0x150 }
  - { offsetInCU: 0x14157, offset: 0x344DE4, size: 0x8, addend: 0x0, symName: '__ZN4core3ptr103drop_in_place$LT$syn..punctuated..Punctuated$LT$syn..generics..TypeParamBound$C$syn..token..Add$GT$$GT$17h517181ada56b9062E.llvm.5745853400478960990', symObjAddr: 0x280, symBinAddr: 0x828F0, symSize: 0xF0 }
  - { offsetInCU: 0x14676, offset: 0x345303, size: 0x8, addend: 0x0, symName: '__ZN4core3ptr104drop_in_place$LT$alloc..vec..Vec$LT$$LP$syn..expr..GenericMethodArgument$C$syn..token..Comma$RP$$GT$$GT$17ha26d8b0ad7b2e5efE.llvm.5745853400478960990', symObjAddr: 0x370, symBinAddr: 0x829E0, symSize: 0xF0 }
  - { offsetInCU: 0x1499A, offset: 0x345627, size: 0x8, addend: 0x0, symName: '__ZN4core3ptr108drop_in_place$LT$syn..punctuated..Punctuated$LT$syn..expr..GenericMethodArgument$C$syn..token..Comma$GT$$GT$17h413f77b0de48dbb7E', symObjAddr: 0x460, symBinAddr: 0x82AD0, symSize: 0x160 }
  - { offsetInCU: 0x14EAF, offset: 0x345B3C, size: 0x8, addend: 0x0, symName: '__ZN4core3ptr34drop_in_place$LT$syn..lit..Lit$GT$17heb8f235ab74bc4d4E', symObjAddr: 0x5C0, symBinAddr: 0x82C30, symSize: 0x110 }
  - { offsetInCU: 0x153CA, offset: 0x346057, size: 0x8, addend: 0x0, symName: '__ZN4core3ptr34drop_in_place$LT$syn..pat..Pat$GT$17hd6fa3ad4d18570d7E.llvm.5745853400478960990', symObjAddr: 0x6D0, symBinAddr: 0x82D40, symSize: 0xB10 }
  - { offsetInCU: 0x18336, offset: 0x348FC3, size: 0x8, addend: 0x0, symName: '__ZN4core3ptr34drop_in_place$LT$syn..ty..Type$GT$17hfd9bfeacac76fc9aE.llvm.5745853400478960990', symObjAddr: 0x11E0, symBinAddr: 0x83850, symSize: 0x510 }
  - { offsetInCU: 0x194C4, offset: 0x34A151, size: 0x8, addend: 0x0, symName: '__ZN4core3ptr36drop_in_place$LT$syn..attr..Meta$GT$17hc4f200768162b3d7E', symObjAddr: 0x16F0, symBinAddr: 0x83D60, symSize: 0x2B0 }
  - { offsetInCU: 0x1A3B9, offset: 0x34B046, size: 0x8, addend: 0x0, symName: '__ZN4core3ptr36drop_in_place$LT$syn..expr..Expr$GT$17h6b8a9b85afc75571E.llvm.5745853400478960990', symObjAddr: 0x19A0, symBinAddr: 0x84010, symSize: 0x1EB0 }
  - { offsetInCU: 0x22670, offset: 0x3532FD, size: 0x8, addend: 0x0, symName: '__ZN4core3ptr36drop_in_place$LT$syn..mac..Macro$GT$17ha661e027deab4b66E', symObjAddr: 0x3850, symBinAddr: 0x85EC0, symSize: 0x40 }
  - { offsetInCU: 0x226AA, offset: 0x353337, size: 0x8, addend: 0x0, symName: '__ZN4core3ptr36drop_in_place$LT$syn..path..Path$GT$17he4358a51dbdb774bE.llvm.5745853400478960990', symObjAddr: 0x3890, symBinAddr: 0x85F00, symSize: 0xE0 }
  - { offsetInCU: 0x22984, offset: 0x353611, size: 0x8, addend: 0x0, symName: '__ZN4core3ptr37drop_in_place$LT$syn..data..Field$GT$17hdbd7b0220783ea3eE.llvm.5745853400478960990', symObjAddr: 0x3970, symBinAddr: 0x85FE0, symSize: 0xF0 }
  - { offsetInCU: 0x22CFF, offset: 0x35398C, size: 0x8, addend: 0x0, symName: '__ZN4core3ptr37drop_in_place$LT$syn..item..FnArg$GT$17h2cc574b44d8e55adE.llvm.5745853400478960990', symObjAddr: 0x3A60, symBinAddr: 0x860D0, symSize: 0x1D0 }
  - { offsetInCU: 0x23727, offset: 0x3543B4, size: 0x8, addend: 0x0, symName: '__ZN4core3ptr37drop_in_place$LT$syn..stmt..Block$GT$17hfb4d80957646e543E', symObjAddr: 0x3C30, symBinAddr: 0x862A0, symSize: 0xD0 }
  - { offsetInCU: 0x239CB, offset: 0x354658, size: 0x8, addend: 0x0, symName: '__ZN4core3ptr38drop_in_place$LT$syn..expr..Member$GT$17h3141a26ba2d76dd7E.llvm.5745853400478960990', symObjAddr: 0x3D00, symBinAddr: 0x86370, symSize: 0x30 }
  - { offsetInCU: 0x23AC8, offset: 0x354755, size: 0x8, addend: 0x0, symName: '__ZN4core3ptr39drop_in_place$LT$proc_macro2..Ident$GT$17hfc382935d884a247E', symObjAddr: 0x3D30, symBinAddr: 0x863A0, symSize: 0x30 }
  - { offsetInCU: 0x23C03, offset: 0x354890, size: 0x8, addend: 0x0, symName: '__ZN4core3ptr39drop_in_place$LT$syn..data..Variant$GT$17hd26a0c0f65be4b43E', symObjAddr: 0x3D60, symBinAddr: 0x863D0, symSize: 0x100 }
  - { offsetInCU: 0x2402A, offset: 0x354CB7, size: 0x8, addend: 0x0, symName: '__ZN4core3ptr39drop_in_place$LT$syn..item..UseTree$GT$17h25d9f1648b09fcd7E', symObjAddr: 0x3E60, symBinAddr: 0x864D0, symSize: 0xE0 }
  - { offsetInCU: 0x243D3, offset: 0x355060, size: 0x8, addend: 0x0, symName: '__ZN4core3ptr39drop_in_place$LT$syn..pat..FieldPat$GT$17hb90a293469b364cfE.llvm.5745853400478960990', symObjAddr: 0x3F40, symBinAddr: 0x865B0, symSize: 0xF0 }
  - { offsetInCU: 0x24837, offset: 0x3554C4, size: 0x8, addend: 0x0, symName: '__ZN4core3ptr39drop_in_place$LT$syn..pat..PatTuple$GT$17h232e0cbeb905e9d9E', symObjAddr: 0x4030, symBinAddr: 0x866A0, symSize: 0x80 }
  - { offsetInCU: 0x24A7D, offset: 0x35570A, size: 0x8, addend: 0x0, symName: '__ZN4core3ptr39drop_in_place$LT$syn..ty..BareFnArg$GT$17h87c9429bab4ed67aE.llvm.5745853400478960990', symObjAddr: 0x40B0, symBinAddr: 0x86720, symSize: 0xC0 }
  - { offsetInCU: 0x24D9B, offset: 0x355A28, size: 0x8, addend: 0x0, symName: '__ZN4core3ptr40drop_in_place$LT$syn..ty..ReturnType$GT$17h42cc52c006e6d7cdE', symObjAddr: 0x4170, symBinAddr: 0x867E0, symSize: 0x50 }
  - { offsetInCU: 0x24F0D, offset: 0x355B9A, size: 0x8, addend: 0x0, symName: '__ZN4core3ptr42drop_in_place$LT$syn..attr..NestedMeta$GT$17h1bcab9f5731da99fE', symObjAddr: 0x41C0, symBinAddr: 0x86830, symSize: 0x20 }
  - { offsetInCU: 0x24F68, offset: 0x355BF5, size: 0x8, addend: 0x0, symName: '__ZN4core3ptr42drop_in_place$LT$syn..data..Visibility$GT$17h788983c5adb3d2ecE', symObjAddr: 0x41E0, symBinAddr: 0x86850, symSize: 0x120 }
  - { offsetInCU: 0x2539B, offset: 0x356028, size: 0x8, addend: 0x0, symName: '__ZN4core3ptr42drop_in_place$LT$syn..expr..FieldValue$GT$17hacce232733994ed0E.llvm.5745853400478960990', symObjAddr: 0x4300, symBinAddr: 0x86970, symSize: 0xD0 }
  - { offsetInCU: 0x2575F, offset: 0x3563EC, size: 0x8, addend: 0x0, symName: '__ZN4core3ptr43drop_in_place$LT$syn..path..PathSegment$GT$17h018f6e269dc7881fE.llvm.5745853400478960990', symObjAddr: 0x43D0, symBinAddr: 0x86A40, symSize: 0x170 }
  - { offsetInCU: 0x25C91, offset: 0x35691E, size: 0x8, addend: 0x0, symName: '__ZN4core3ptr44drop_in_place$LT$syn..lifetime..Lifetime$GT$17h94c9fe51c9dd60c6E.llvm.5745853400478960990', symObjAddr: 0x4540, symBinAddr: 0x86BB0, symSize: 0x30 }
  - { offsetInCU: 0x25EC4, offset: 0x356B51, size: 0x8, addend: 0x0, symName: '__ZN4core3ptr45drop_in_place$LT$proc_macro2..TokenStream$GT$17h44f5bf9c29d914fbE', symObjAddr: 0x4570, symBinAddr: 0x86BE0, symSize: 0x140 }
  - { offsetInCU: 0x262F5, offset: 0x356F82, size: 0x8, addend: 0x0, symName: '__ZN4core3ptr47drop_in_place$LT$syn..generics..LifetimeDef$GT$17h651f63d4c11a8213E.llvm.5745853400478960990', symObjAddr: 0x46B0, symBinAddr: 0x86D20, symSize: 0xB0 }
  - { offsetInCU: 0x2664D, offset: 0x3572DA, size: 0x8, addend: 0x0, symName: '__ZN4core3ptr47drop_in_place$LT$syn..path..GenericArgument$GT$17h53f7c77f182368f5E.llvm.5745853400478960990', symObjAddr: 0x4760, symBinAddr: 0x86DD0, symSize: 0xE0 }
  - { offsetInCU: 0x269F6, offset: 0x357683, size: 0x8, addend: 0x0, symName: '__ZN4core3ptr48drop_in_place$LT$syn..generics..GenericParam$GT$17h495fd5d715ffe02dE.llvm.5745853400478960990', symObjAddr: 0x4840, symBinAddr: 0x86EB0, symSize: 0x250 }
  - { offsetInCU: 0x2720E, offset: 0x357E9B, size: 0x8, addend: 0x0, symName: '__ZN4core3ptr50drop_in_place$LT$syn..generics..TypeParamBound$GT$17h6143e12a0db0ceabE.llvm.5745853400478960990', symObjAddr: 0x4A90, symBinAddr: 0x87100, symSize: 0x140 }
  - { offsetInCU: 0x27657, offset: 0x3582E4, size: 0x8, addend: 0x0, symName: '__ZN4core3ptr50drop_in_place$LT$syn..generics..WherePredicate$GT$17h52fd3a5f40aa25a5E.llvm.5745853400478960990', symObjAddr: 0x4BD0, symBinAddr: 0x87240, symSize: 0xD0 }
  - { offsetInCU: 0x277D5, offset: 0x358462, size: 0x8, addend: 0x0, symName: '__ZN4core3ptr53drop_in_place$LT$syn..expr..GenericMethodArgument$GT$17hdc1a6015d0b8f78dE.llvm.5745853400478960990', symObjAddr: 0x4CA0, symBinAddr: 0x87310, symSize: 0x20 }
  - { offsetInCU: 0x277F2, offset: 0x35847F, size: 0x8, addend: 0x0, symName: '__ZN4core3ptr58drop_in_place$LT$alloc..vec..Vec$LT$syn..expr..Arm$GT$$GT$17hf30588e63e9aa2acE', symObjAddr: 0x4CC0, symBinAddr: 0x87330, symSize: 0xD0 }
  - { offsetInCU: 0x27A7F, offset: 0x35870C, size: 0x8, addend: 0x0, symName: '__ZN4core3ptr59drop_in_place$LT$alloc..boxed..Box$LT$syn..pat..Pat$GT$$GT$17h8da5d9585b79befeE.llvm.5745853400478960990', symObjAddr: 0x4D90, symBinAddr: 0x87400, symSize: 0x50 }
  - { offsetInCU: 0x27BDA, offset: 0x358867, size: 0x8, addend: 0x0, symName: '__ZN4core3ptr59drop_in_place$LT$alloc..boxed..Box$LT$syn..ty..Type$GT$$GT$17hfdcfc83ffb884feaE.llvm.5745853400478960990', symObjAddr: 0x4DE0, symBinAddr: 0x87450, symSize: 0x50 }
  - { offsetInCU: 0x27D35, offset: 0x3589C2, size: 0x8, addend: 0x0, symName: '__ZN4core3ptr61drop_in_place$LT$alloc..boxed..Box$LT$syn..expr..Expr$GT$$GT$17hd59f20e4896eb10dE.llvm.5745853400478960990', symObjAddr: 0x4F00, symBinAddr: 0x874A0, symSize: 0x50 }
  - { offsetInCU: 0x27F0C, offset: 0x358B99, size: 0x8, addend: 0x0, symName: '__ZN4core3ptr61drop_in_place$LT$syn..path..ParenthesizedGenericArguments$GT$17h2cb12f9d921fc247E.llvm.5745853400478960990', symObjAddr: 0x4F50, symBinAddr: 0x874F0, symSize: 0x170 }
  - { offsetInCU: 0x284E6, offset: 0x359173, size: 0x8, addend: 0x0, symName: '__ZN4core3ptr63drop_in_place$LT$alloc..boxed..Box$LT$syn..lit..LitRepr$GT$$GT$17ha0c79af03c778e78E', symObjAddr: 0x50C0, symBinAddr: 0x87660, symSize: 0x60 }
  - { offsetInCU: 0x287DB, offset: 0x359468, size: 0x8, addend: 0x0, symName: '__ZN4core3ptr64drop_in_place$LT$alloc..boxed..Box$LT$syn..item..UseTree$GT$$GT$17h8781734ad1e82212E', symObjAddr: 0x5120, symBinAddr: 0x876C0, symSize: 0x100 }
  - { offsetInCU: 0x28D0D, offset: 0x35999A, size: 0x8, addend: 0x0, symName: '__ZN4core3ptr64drop_in_place$LT$alloc..boxed..Box$LT$syn..pat..FieldPat$GT$$GT$17h4cf97b08e30ccd11E', symObjAddr: 0x5220, symBinAddr: 0x877C0, symSize: 0x100 }
  - { offsetInCU: 0x292EA, offset: 0x359F77, size: 0x8, addend: 0x0, symName: '__ZN4core3ptr64drop_in_place$LT$alloc..boxed..Box$LT$syn..ty..BareFnArg$GT$$GT$17h5ed4e7eb5288ceaeE', symObjAddr: 0x5320, symBinAddr: 0x878C0, symSize: 0xE0 }
  - { offsetInCU: 0x29770, offset: 0x35A3FD, size: 0x8, addend: 0x0, symName: '__ZN4core3ptr65drop_in_place$LT$core..option..Option$LT$syn..expr..Label$GT$$GT$17hdfb87f4e56640098E', symObjAddr: 0x5400, symBinAddr: 0x879A0, symSize: 0x30 }
  - { offsetInCU: 0x298AB, offset: 0x35A538, size: 0x8, addend: 0x0, symName: '__ZN4core3ptr66drop_in_place$LT$core..option..Option$LT$syn..ty..Variadic$GT$$GT$17h027f0e707b91e4beE', symObjAddr: 0x5430, symBinAddr: 0x879D0, symSize: 0x80 }
  - { offsetInCU: 0x29B01, offset: 0x35A78E, size: 0x8, addend: 0x0, symName: '__ZN4core3ptr67drop_in_place$LT$alloc..boxed..Box$LT$syn..attr..NestedMeta$GT$$GT$17h324edf8b6da6e1ddE', symObjAddr: 0x54B0, symBinAddr: 0x87A50, symSize: 0x60 }
  - { offsetInCU: 0x29C98, offset: 0x35A925, size: 0x8, addend: 0x0, symName: '__ZN4core3ptr67drop_in_place$LT$alloc..boxed..Box$LT$syn..expr..FieldValue$GT$$GT$17ha1d27993e02226e2E', symObjAddr: 0x5510, symBinAddr: 0x87AB0, symSize: 0xF0 }
  - { offsetInCU: 0x2A10A, offset: 0x35AD97, size: 0x8, addend: 0x0, symName: '__ZN4core3ptr70drop_in_place$LT$$LP$syn..attr..NestedMeta$C$syn..token..Comma$RP$$GT$17hd8511ca3b93f0c74E', symObjAddr: 0x5600, symBinAddr: 0x87BA0, symSize: 0x20 }
  - { offsetInCU: 0x2A178, offset: 0x35AE05, size: 0x8, addend: 0x0, symName: '__ZN4core3ptr73drop_in_place$LT$alloc..vec..Vec$LT$syn..generics..TypeParamBound$GT$$GT$17hc3fb8ea7bf24dbfaE.llvm.5745853400478960990', symObjAddr: 0x5620, symBinAddr: 0x87BC0, symSize: 0xC0 }
  - { offsetInCU: 0x2A418, offset: 0x35B0A5, size: 0x8, addend: 0x0, symName: '__ZN4core3ptr75drop_in_place$LT$alloc..boxed..Box$LT$syn..generics..TypeParamBound$GT$$GT$17hcf1c09bccd64c785E', symObjAddr: 0x56E0, symBinAddr: 0x87C80, symSize: 0x90 }
  - { offsetInCU: 0x2A6DE, offset: 0x35B36B, size: 0x8, addend: 0x0, symName: '__ZN4core3ptr78drop_in_place$LT$alloc..boxed..Box$LT$syn..expr..GenericMethodArgument$GT$$GT$17hc5561f5e7586c250E', symObjAddr: 0x5770, symBinAddr: 0x87D10, symSize: 0x60 }
  - { offsetInCU: 0x2A910, offset: 0x35B59D, size: 0x8, addend: 0x0, symName: '__ZN4core3ptr78drop_in_place$LT$core..option..Option$LT$syn..generics..BoundLifetimes$GT$$GT$17hc74a275f958fb9a1E.llvm.5745853400478960990', symObjAddr: 0x57D0, symBinAddr: 0x87D70, symSize: 0x130 }
  - { offsetInCU: 0x2AD8A, offset: 0x35BA17, size: 0x8, addend: 0x0, symName: '__ZN4core3ptr81drop_in_place$LT$$LP$syn..expr..GenericMethodArgument$C$syn..token..Comma$RP$$GT$17h22342e12b11cf758E.llvm.5745853400478960990', symObjAddr: 0x59D0, symBinAddr: 0x87EA0, symSize: 0x20 }
  - { offsetInCU: 0x2ADF8, offset: 0x35BA85, size: 0x8, addend: 0x0, symName: '__ZN4core3ptr82drop_in_place$LT$alloc..vec..Vec$LT$$LP$syn..pat..Pat$C$syn..token..Or$RP$$GT$$GT$17h7b9efba2154d52cfE.llvm.5745853400478960990', symObjAddr: 0x59F0, symBinAddr: 0x87EC0, symSize: 0x0 }
  - { offsetInCU: 0x2B0B9, offset: 0x35BD46, size: 0x8, addend: 0x0, symName: '__ZN4core3ptr85drop_in_place$LT$alloc..vec..Vec$LT$$LP$syn..ty..Type$C$syn..token..Comma$RP$$GT$$GT$17hd0918ccb66e8cd8aE.llvm.5745853400478960990', symObjAddr: 0x5AC0, symBinAddr: 0x87F90, symSize: 0xD0 }
  - { offsetInCU: 0x2B3B8, offset: 0x35C045, size: 0x8, addend: 0x0, symName: '__ZN4core3ptr86drop_in_place$LT$syn..punctuated..Punctuated$LT$syn..pat..Pat$C$syn..token..Or$GT$$GT$17h13896407bc2c03e4E', symObjAddr: 0x5B90, symBinAddr: 0x88060, symSize: 0x120 }
  - { offsetInCU: 0x2B81D, offset: 0x35C4AA, size: 0x8, addend: 0x0, symName: '__ZN4core3ptr87drop_in_place$LT$alloc..vec..Vec$LT$$LP$syn..expr..Expr$C$syn..token..Comma$RP$$GT$$GT$17h1046b42339844121E.llvm.5745853400478960990', symObjAddr: 0x5CB0, symBinAddr: 0x88180, symSize: 0xD0 }
  - { offsetInCU: 0x2BADE, offset: 0x35C76B, size: 0x8, addend: 0x0, symName: '__ZN4core3ptr87drop_in_place$LT$core..option..Option$LT$alloc..boxed..Box$LT$syn..pat..Pat$GT$$GT$$GT$17h5bd93a2021c10f20E', symObjAddr: 0x5D80, symBinAddr: 0x88250, symSize: 0x50 }
  - { offsetInCU: 0x2BC50, offset: 0x35C8DD, size: 0x8, addend: 0x0, symName: '__ZN4core3ptr87drop_in_place$LT$core..option..Option$LT$alloc..boxed..Box$LT$syn..ty..Type$GT$$GT$$GT$17h6936d17ab80112d1E.llvm.5745853400478960990', symObjAddr: 0x5DD0, symBinAddr: 0x882A0, symSize: 0x50 }
  - { offsetInCU: 0x2BDE1, offset: 0x35CA6E, size: 0x8, addend: 0x0, symName: '__ZN4core3ptr88drop_in_place$LT$alloc..vec..Vec$LT$$LP$syn..data..Field$C$syn..token..Comma$RP$$GT$$GT$17hb0a2c7c7c5b9fa4bE.llvm.5745853400478960990', symObjAddr: 0x5E20, symBinAddr: 0x882F0, symSize: 0xD0 }
  - { offsetInCU: 0x2C0C1, offset: 0x35CD4E, size: 0x8, addend: 0x0, symName: '__ZN4core3ptr88drop_in_place$LT$alloc..vec..Vec$LT$$LP$syn..item..FnArg$C$syn..token..Comma$RP$$GT$$GT$17h82e280faaf0fbbdcE.llvm.5745853400478960990', symObjAddr: 0x5EF0, symBinAddr: 0x883C0, symSize: 0xE0 }
  - { offsetInCU: 0x2C38F, offset: 0x35D01C, size: 0x8, addend: 0x0, symName: '__ZN4core3ptr89drop_in_place$LT$core..option..Option$LT$alloc..boxed..Box$LT$syn..expr..Expr$GT$$GT$$GT$17h9285f9bb32cfe7feE', symObjAddr: 0x5FD0, symBinAddr: 0x884A0, symSize: 0x50 }
  - { offsetInCU: 0x2C53F, offset: 0x35D1CC, size: 0x8, addend: 0x0, symName: '__ZN4core3ptr89drop_in_place$LT$syn..punctuated..Punctuated$LT$syn..pat..Pat$C$syn..token..Comma$GT$$GT$17h7cc94aacc194d79fE', symObjAddr: 0x6020, symBinAddr: 0x884F0, symSize: 0x120 }
  - { offsetInCU: 0x2C99C, offset: 0x35D629, size: 0x8, addend: 0x0, symName: '__ZN4core3ptr89drop_in_place$LT$syn..punctuated..Punctuated$LT$syn..ty..Type$C$syn..token..Comma$GT$$GT$17h97ea2b625b494840E.llvm.5745853400478960990', symObjAddr: 0x6140, symBinAddr: 0x88610, symSize: 0x120 }
  - { offsetInCU: 0x2CE05, offset: 0x35DA92, size: 0x8, addend: 0x0, symName: '__ZN4core3ptr90drop_in_place$LT$alloc..vec..Vec$LT$$LP$syn..data..Variant$C$syn..token..Comma$RP$$GT$$GT$17hf9e2a7e404df99d4E.llvm.5745853400478960990', symObjAddr: 0x6260, symBinAddr: 0x88730, symSize: 0xD0 }
  - { offsetInCU: 0x2D0E5, offset: 0x35DD72, size: 0x8, addend: 0x0, symName: '__ZN4core3ptr90drop_in_place$LT$alloc..vec..Vec$LT$$LP$syn..item..UseTree$C$syn..token..Comma$RP$$GT$$GT$17h73fcef4e26e60fc8E.llvm.5745853400478960990', symObjAddr: 0x6330, symBinAddr: 0x88800, symSize: 0xC0 }
  - { offsetInCU: 0x2D3A6, offset: 0x35E033, size: 0x8, addend: 0x0, symName: '__ZN4core3ptr90drop_in_place$LT$alloc..vec..Vec$LT$$LP$syn..pat..FieldPat$C$syn..token..Comma$RP$$GT$$GT$17hc80738f49e87f6d9E.llvm.5745853400478960990', symObjAddr: 0x63F0, symBinAddr: 0x888C0, symSize: 0xD0 }
  - { offsetInCU: 0x2D633, offset: 0x35E2C0, size: 0x8, addend: 0x0, symName: '__ZN4core3ptr90drop_in_place$LT$alloc..vec..Vec$LT$$LP$syn..ty..BareFnArg$C$syn..token..Comma$RP$$GT$$GT$17hbd76d24fe8c4c37fE.llvm.5745853400478960990', symObjAddr: 0x64C0, symBinAddr: 0x88990, symSize: 0xD0 }
  - { offsetInCU: 0x2D8DF, offset: 0x35E56C, size: 0x8, addend: 0x0, symName: '__ZN4core3ptr90drop_in_place$LT$core..option..Option$LT$alloc..boxed..Box$LT$syn..data..Field$GT$$GT$$GT$17hc50e2375b7e440f8E.llvm.5745853400478960990', symObjAddr: 0x6590, symBinAddr: 0x88A60, symSize: 0x50 }
  - { offsetInCU: 0x2DA63, offset: 0x35E6F0, size: 0x8, addend: 0x0, symName: '__ZN4core3ptr91drop_in_place$LT$syn..punctuated..Punctuated$LT$syn..expr..Expr$C$syn..token..Comma$GT$$GT$17h89eb145173101a03E.llvm.5745853400478960990', symObjAddr: 0x65E0, symBinAddr: 0x88AB0, symSize: 0x120 }
  - { offsetInCU: 0x2DEDF, offset: 0x35EB6C, size: 0x8, addend: 0x0, symName: '__ZN4core3ptr92drop_in_place$LT$core..option..Option$LT$alloc..boxed..Box$LT$syn..data..Variant$GT$$GT$$GT$17h4d028927cbe2de32E', symObjAddr: 0x6700, symBinAddr: 0x88BD0, symSize: 0x50 }
  - { offsetInCU: 0x2E082, offset: 0x35ED0F, size: 0x8, addend: 0x0, symName: '__ZN4core3ptr92drop_in_place$LT$syn..punctuated..Punctuated$LT$syn..data..Field$C$syn..token..Comma$GT$$GT$17h06dd862f8e9aabb5E', symObjAddr: 0x6750, symBinAddr: 0x88C20, symSize: 0x120 }
  - { offsetInCU: 0x2E4DE, offset: 0x35F16B, size: 0x8, addend: 0x0, symName: '__ZN4core3ptr93drop_in_place$LT$alloc..vec..Vec$LT$$LP$syn..expr..FieldValue$C$syn..token..Comma$RP$$GT$$GT$17hce8281d7a178e43fE.llvm.5745853400478960990', symObjAddr: 0x6930, symBinAddr: 0x88D40, symSize: 0xD0 }
  - { offsetInCU: 0x2E78A, offset: 0x35F417, size: 0x8, addend: 0x0, symName: '__ZN4core3ptr93drop_in_place$LT$alloc..vec..Vec$LT$$LP$syn..lifetime..Lifetime$C$syn..token..Add$RP$$GT$$GT$17hf124aced7e156f41E.llvm.5745853400478960990', symObjAddr: 0x6A00, symBinAddr: 0x88E10, symSize: 0x80 }
  - { offsetInCU: 0x2EA4F, offset: 0x35F6DC, size: 0x8, addend: 0x0, symName: '__ZN4core3ptr94drop_in_place$LT$syn..punctuated..Punctuated$LT$syn..data..Variant$C$syn..token..Comma$GT$$GT$17h444850e5fc0890a9E', symObjAddr: 0x6A80, symBinAddr: 0x88E90, symSize: 0x120 }
  - { offsetInCU: 0x2EECA, offset: 0x35FB57, size: 0x8, addend: 0x0, symName: '__ZN4core3ptr94drop_in_place$LT$syn..punctuated..Punctuated$LT$syn..item..UseTree$C$syn..token..Comma$GT$$GT$17h0f648ee71b64a47eE', symObjAddr: 0x6BA0, symBinAddr: 0x88FB0, symSize: 0xF0 }
  - { offsetInCU: 0x2F1DB, offset: 0x35FE68, size: 0x8, addend: 0x0, symName: '__ZN4core3ptr94drop_in_place$LT$syn..punctuated..Punctuated$LT$syn..pat..FieldPat$C$syn..token..Comma$GT$$GT$17hdbbfc15c48c312e3E', symObjAddr: 0x6C90, symBinAddr: 0x890A0, symSize: 0xF0 }
  - { offsetInCU: 0x2F4A5, offset: 0x360132, size: 0x8, addend: 0x0, symName: '__ZN4core3ptr94drop_in_place$LT$syn..punctuated..Punctuated$LT$syn..ty..BareFnArg$C$syn..token..Comma$GT$$GT$17h4e6d5a703b32a850E', symObjAddr: 0x6D80, symBinAddr: 0x89190, symSize: 0xF0 }
  - { offsetInCU: 0x2F76F, offset: 0x3603FC, size: 0x8, addend: 0x0, symName: '__ZN4core3ptr95drop_in_place$LT$alloc..vec..Vec$LT$$LP$syn..path..PathSegment$C$syn..token..Colon2$RP$$GT$$GT$17h8a20be56ff255edbE.llvm.5745853400478960990', symObjAddr: 0x6E70, symBinAddr: 0x89280, symSize: 0xD0 }
  - { offsetInCU: 0x2F9FC, offset: 0x360689, size: 0x8, addend: 0x0, symName: '__ZN4core3ptr95drop_in_place$LT$core..option..Option$LT$$LP$proc_macro2..Ident$C$syn..token..Colon$RP$$GT$$GT$17h554f9e23e9e60ecbE.llvm.5745853400478960990', symObjAddr: 0x6F40, symBinAddr: 0x89350, symSize: 0x30 }
  - { offsetInCU: 0x2FB56, offset: 0x3607E3, size: 0x8, addend: 0x0, symName: '__ZN4core3ptr96drop_in_place$LT$core..option..Option$LT$alloc..boxed..Box$LT$syn..path..PathSegment$GT$$GT$$GT$17he2148fc749fa4ba5E.llvm.5745853400478960990', symObjAddr: 0x6F70, symBinAddr: 0x89380, symSize: 0x180 }
  - { offsetInCU: 0x30263, offset: 0x360EF0, size: 0x8, addend: 0x0, symName: '__ZN4core3ptr97drop_in_place$LT$syn..punctuated..Punctuated$LT$syn..attr..NestedMeta$C$syn..token..Comma$GT$$GT$17h9b1dcac83a9b8878E', symObjAddr: 0x7140, symBinAddr: 0x89500, symSize: 0x130 }
  - { offsetInCU: 0x306A3, offset: 0x361330, size: 0x8, addend: 0x0, symName: '__ZN4core3ptr97drop_in_place$LT$syn..punctuated..Punctuated$LT$syn..expr..FieldValue$C$syn..token..Comma$GT$$GT$17h32c10a095b2e74c7E', symObjAddr: 0x7270, symBinAddr: 0x89630, symSize: 0xF0 }
  - { offsetInCU: 0x309AB, offset: 0x361638, size: 0x8, addend: 0x0, symName: '__ZN4core3ptr97drop_in_place$LT$syn..punctuated..Punctuated$LT$syn..lifetime..Lifetime$C$syn..token..Add$GT$$GT$17h75f9c8a38e93dfefE.llvm.5745853400478960990', symObjAddr: 0x7360, symBinAddr: 0x89720, symSize: 0xC0 }
  - { offsetInCU: 0x30E23, offset: 0x361AB0, size: 0x8, addend: 0x0, symName: '__ZN4core3ptr98drop_in_place$LT$alloc..vec..Vec$LT$$LP$syn..generics..LifetimeDef$C$syn..token..Comma$RP$$GT$$GT$17h7770a583bc6207c7E.llvm.5745853400478960990', symObjAddr: 0x7420, symBinAddr: 0x897E0, symSize: 0xC0 }
  - { offsetInCU: 0x310B0, offset: 0x361D3D, size: 0x8, addend: 0x0, symName: '__ZN4core3ptr98drop_in_place$LT$alloc..vec..Vec$LT$$LP$syn..path..GenericArgument$C$syn..token..Comma$RP$$GT$$GT$17h1c044bcaeddbca46E.llvm.5745853400478960990', symObjAddr: 0x74E0, symBinAddr: 0x898A0, symSize: 0xD0 }
  - { offsetInCU: 0x313B9, offset: 0x362046, size: 0x8, addend: 0x0, symName: '__ZN4core3ptr98drop_in_place$LT$syn..punctuated..IntoPairs$LT$syn..path..PathSegment$C$syn..token..Colon2$GT$$GT$17h8c6e3e5ef8a6ffacE', symObjAddr: 0x75B0, symBinAddr: 0x89970, symSize: 0x50 }
  - { offsetInCU: 0x314AE, offset: 0x36213B, size: 0x8, addend: 0x0, symName: '__ZN4core3ptr99drop_in_place$LT$alloc..vec..Vec$LT$$LP$syn..generics..GenericParam$C$syn..token..Comma$RP$$GT$$GT$17hd42f968eb7fd9adcE.llvm.5745853400478960990', symObjAddr: 0x7600, symBinAddr: 0x899C0, symSize: 0x60 }
  - { offsetInCU: 0x316B6, offset: 0x362343, size: 0x8, addend: 0x0, symName: '__ZN4core3ptr99drop_in_place$LT$alloc..vec..Vec$LT$$LP$syn..generics..TypeParamBound$C$syn..token..Add$RP$$GT$$GT$17he26b465208e4977eE.llvm.5745853400478960990', symObjAddr: 0x7660, symBinAddr: 0x89A20, symSize: 0x60 }
  - { offsetInCU: 0x318CA, offset: 0x362557, size: 0x8, addend: 0x0, symName: '__ZN4core3ptr99drop_in_place$LT$syn..punctuated..Punctuated$LT$syn..path..PathSegment$C$syn..token..Colon2$GT$$GT$17hdafb3e0018003811E', symObjAddr: 0x76C0, symBinAddr: 0x89A80, symSize: 0x120 }
  - { offsetInCU: 0x3ABE4, offset: 0x36B871, size: 0x8, addend: 0x0, symName: __ZN4core4iter6traits10exact_size17ExactSizeIterator8is_empty17h2ccf72f40af2eca3E.llvm.5745853400478960990, symObjAddr: 0x77E0, symBinAddr: 0x89BA0, symSize: 0x0 }
  - { offsetInCU: 0x3AD8C, offset: 0x36BA19, size: 0x8, addend: 0x0, symName: __ZN4core4iter6traits10exact_size17ExactSizeIterator8is_empty17h2e6cd31eb902198aE.llvm.5745853400478960990, symObjAddr: 0x7810, symBinAddr: 0x89BD0, symSize: 0x30 }
  - { offsetInCU: 0x3AED9, offset: 0x36BB66, size: 0x8, addend: 0x0, symName: __ZN4core4iter6traits12double_ended19DoubleEndedIterator15advance_back_by17h15db7909c773b9b4E.llvm.5745853400478960990, symObjAddr: 0x78A0, symBinAddr: 0x89C00, symSize: 0x0 }
  - { offsetInCU: 0x3B0CB, offset: 0x36BD58, size: 0x8, addend: 0x0, symName: __ZN4core4iter6traits12double_ended19DoubleEndedIterator15advance_back_by17hc007efa3cb80a788E.llvm.5745853400478960990, symObjAddr: 0x7990, symBinAddr: 0x89C80, symSize: 0x70 }
  - { offsetInCU: 0x3B309, offset: 0x36BF96, size: 0x8, addend: 0x0, symName: __ZN4core4iter6traits12double_ended19DoubleEndedIterator8nth_back17h248c641b8fdf0d04E.llvm.5745853400478960990, symObjAddr: 0x7A80, symBinAddr: 0x89CF0, symSize: 0xB0 }
  - { offsetInCU: 0x3B7DE, offset: 0x36C46B, size: 0x8, addend: 0x0, symName: __ZN4core4iter6traits12double_ended19DoubleEndedIterator8nth_back17h52b7b5527355f8b4E.llvm.5745853400478960990, symObjAddr: 0x7BE0, symBinAddr: 0x89DA0, symSize: 0x0 }
  - { offsetInCU: 0x3BC73, offset: 0x36C900, size: 0x8, addend: 0x0, symName: __ZN4core4iter6traits8iterator8Iterator10advance_by17h41bbe795f06391f2E.llvm.5745853400478960990, symObjAddr: 0x7D40, symBinAddr: 0x89E50, symSize: 0x0 }
  - { offsetInCU: 0x3BF7A, offset: 0x36CC07, size: 0x8, addend: 0x0, symName: __ZN4core4iter6traits8iterator8Iterator10advance_by17h7ca9d02e3c70b721E.llvm.5745853400478960990, symObjAddr: 0x7E10, symBinAddr: 0x89EC0, symSize: 0x60 }
  - { offsetInCU: 0x3C2D2, offset: 0x36CF5F, size: 0x8, addend: 0x0, symName: __ZN4core4iter6traits8iterator8Iterator3nth17h74bb3787d5dc96e4E.llvm.5745853400478960990, symObjAddr: 0x7F60, symBinAddr: 0x89F20, symSize: 0x80 }
  - { offsetInCU: 0x3C8C9, offset: 0x36D556, size: 0x8, addend: 0x0, symName: __ZN4core4iter6traits8iterator8Iterator3nth17ha042fd3e9c6a536eE.llvm.5745853400478960990, symObjAddr: 0x8060, symBinAddr: 0x89FA0, symSize: 0x0 }
  - { offsetInCU: 0x3CE6F, offset: 0x36DAFC, size: 0x8, addend: 0x0, symName: __ZN4core4iter6traits8iterator8Iterator9size_hint17h471030ec5cecdfd6E.llvm.5745853400478960990, symObjAddr: 0x80E0, symBinAddr: 0x8A020, symSize: 0x0 }
  - { offsetInCU: 0x3E8F6, offset: 0x36F583, size: 0x8, addend: 0x0, symName: _anon.86aac99bc317abb8a815ead4756780ea.7.llvm.5745853400478960990, symObjAddr: 0x10FE8, symBinAddr: 0x298EE8, symSize: 0x0 }
  - { offsetInCU: 0x4085A, offset: 0x3714E7, size: 0x8, addend: 0x0, symName: '__ZN3syn10punctuated23Punctuated$LT$T$C$P$GT$4iter17hfe2c07133e028dc1E', symObjAddr: 0x82F0, symBinAddr: 0x8A040, symSize: 0x70 }
  - { offsetInCU: 0x411E1, offset: 0x371E6E, size: 0x8, addend: 0x0, symName: '__ZN3syn10punctuated23Punctuated$LT$T$C$P$GT$10push_value17h1f96b4b5905731b7E', symObjAddr: 0x87B0, symBinAddr: 0x8A0B0, symSize: 0xD0 }
  - { offsetInCU: 0x4141B, offset: 0x3720A8, size: 0x8, addend: 0x0, symName: '__ZN3syn10punctuated23Punctuated$LT$T$C$P$GT$10push_value17h27cd2847ab41df89E', symObjAddr: 0x8880, symBinAddr: 0x8A180, symSize: 0xE0 }
  - { offsetInCU: 0x4175F, offset: 0x3723EC, size: 0x8, addend: 0x0, symName: '__ZN3syn10punctuated23Punctuated$LT$T$C$P$GT$10push_value17h3631549f31b7c8d1E', symObjAddr: 0x8960, symBinAddr: 0x8A260, symSize: 0x0 }
  - { offsetInCU: 0x41999, offset: 0x372626, size: 0x8, addend: 0x0, symName: '__ZN3syn10punctuated23Punctuated$LT$T$C$P$GT$10push_value17h3f64fe3a81cf27c5E', symObjAddr: 0x8A30, symBinAddr: 0x8A330, symSize: 0xD0 }
  - { offsetInCU: 0x41BD3, offset: 0x372860, size: 0x8, addend: 0x0, symName: '__ZN3syn10punctuated23Punctuated$LT$T$C$P$GT$10push_value17h3f7207c7c94a3cafE', symObjAddr: 0x8B00, symBinAddr: 0x8A400, symSize: 0xD0 }
  - { offsetInCU: 0x41DF6, offset: 0x372A83, size: 0x8, addend: 0x0, symName: '__ZN3syn10punctuated23Punctuated$LT$T$C$P$GT$10push_value17h55fae555b25e32e1E', symObjAddr: 0x8BD0, symBinAddr: 0x8A4D0, symSize: 0xA0 }
  - { offsetInCU: 0x42040, offset: 0x372CCD, size: 0x8, addend: 0x0, symName: '__ZN3syn10punctuated23Punctuated$LT$T$C$P$GT$10push_value17h5bef68dea934e868E', symObjAddr: 0x8C70, symBinAddr: 0x8A570, symSize: 0xD0 }
  - { offsetInCU: 0x4227A, offset: 0x372F07, size: 0x8, addend: 0x0, symName: '__ZN3syn10punctuated23Punctuated$LT$T$C$P$GT$10push_value17h8ac9dd5b365e8916E', symObjAddr: 0x8D40, symBinAddr: 0x8A640, symSize: 0xA0 }
  - { offsetInCU: 0x4249D, offset: 0x37312A, size: 0x8, addend: 0x0, symName: '__ZN3syn10punctuated23Punctuated$LT$T$C$P$GT$10push_value17h93ee62aadaea3d28E', symObjAddr: 0x8DE0, symBinAddr: 0x8A6E0, symSize: 0xD0 }
  - { offsetInCU: 0x426D7, offset: 0x373364, size: 0x8, addend: 0x0, symName: '__ZN3syn10punctuated23Punctuated$LT$T$C$P$GT$10push_value17h965bdaf4a056752fE', symObjAddr: 0x8EB0, symBinAddr: 0x8A7B0, symSize: 0xD0 }
  - { offsetInCU: 0x42911, offset: 0x37359E, size: 0x8, addend: 0x0, symName: '__ZN3syn10punctuated23Punctuated$LT$T$C$P$GT$10push_value17h976aff80ec93af0aE', symObjAddr: 0x8F80, symBinAddr: 0x8A880, symSize: 0xA0 }
  - { offsetInCU: 0x42B5B, offset: 0x3737E8, size: 0x8, addend: 0x0, symName: '__ZN3syn10punctuated23Punctuated$LT$T$C$P$GT$10push_value17ha326c6d6b34b530fE', symObjAddr: 0x9020, symBinAddr: 0x8A920, symSize: 0xD0 }
  - { offsetInCU: 0x42D8B, offset: 0x373A18, size: 0x8, addend: 0x0, symName: '__ZN3syn10punctuated23Punctuated$LT$T$C$P$GT$10push_value17hc2de9db5d2432af8E', symObjAddr: 0x90F0, symBinAddr: 0x8A9F0, symSize: 0xD0 }
  - { offsetInCU: 0x42FC5, offset: 0x373C52, size: 0x8, addend: 0x0, symName: '__ZN3syn10punctuated23Punctuated$LT$T$C$P$GT$10push_value17hda0a5b574d9abe76E', symObjAddr: 0x91C0, symBinAddr: 0x8AAC0, symSize: 0xD0 }
  - { offsetInCU: 0x43226, offset: 0x373EB3, size: 0x8, addend: 0x0, symName: '__ZN3syn10punctuated23Punctuated$LT$T$C$P$GT$10push_punct17h1efeddece8fd0c68E', symObjAddr: 0x9290, symBinAddr: 0x8AB90, symSize: 0xE0 }
  - { offsetInCU: 0x435C5, offset: 0x374252, size: 0x8, addend: 0x0, symName: '__ZN3syn10punctuated23Punctuated$LT$T$C$P$GT$10push_punct17h32f59bda26b47116E', symObjAddr: 0x9370, symBinAddr: 0x8AC70, symSize: 0xE0 }
  - { offsetInCU: 0x43964, offset: 0x3745F1, size: 0x8, addend: 0x0, symName: '__ZN3syn10punctuated23Punctuated$LT$T$C$P$GT$10push_punct17h3b30c1574a386503E', symObjAddr: 0x9450, symBinAddr: 0x8AD50, symSize: 0xD0 }
  - { offsetInCU: 0x43D03, offset: 0x374990, size: 0x8, addend: 0x0, symName: '__ZN3syn10punctuated23Punctuated$LT$T$C$P$GT$10push_punct17h4d01c4240d7cf3daE', symObjAddr: 0x9520, symBinAddr: 0x8AE20, symSize: 0xC0 }
  - { offsetInCU: 0x440EF, offset: 0x374D7C, size: 0x8, addend: 0x0, symName: '__ZN3syn10punctuated23Punctuated$LT$T$C$P$GT$10push_punct17h530a4a32fa530e51E', symObjAddr: 0x95E0, symBinAddr: 0x8AEE0, symSize: 0x110 }
  - { offsetInCU: 0x445DD, offset: 0x37526A, size: 0x8, addend: 0x0, symName: '__ZN3syn10punctuated23Punctuated$LT$T$C$P$GT$10push_punct17h7be5b31f64cad6a1E', symObjAddr: 0x96F0, symBinAddr: 0x8AFF0, symSize: 0xE0 }
  - { offsetInCU: 0x44989, offset: 0x375616, size: 0x8, addend: 0x0, symName: '__ZN3syn10punctuated23Punctuated$LT$T$C$P$GT$10push_punct17h82c6a12e332f8231E', symObjAddr: 0x97D0, symBinAddr: 0x8B0D0, symSize: 0xD0 }
  - { offsetInCU: 0x44D28, offset: 0x3759B5, size: 0x8, addend: 0x0, symName: '__ZN3syn10punctuated23Punctuated$LT$T$C$P$GT$10push_punct17h932739dca730138eE', symObjAddr: 0x98A0, symBinAddr: 0x8B1A0, symSize: 0xE0 }
  - { offsetInCU: 0x450C7, offset: 0x375D54, size: 0x8, addend: 0x0, symName: '__ZN3syn10punctuated23Punctuated$LT$T$C$P$GT$10push_punct17hb6efe139e19fdcf1E', symObjAddr: 0x9980, symBinAddr: 0x8B280, symSize: 0xE0 }
  - { offsetInCU: 0x45480, offset: 0x37610D, size: 0x8, addend: 0x0, symName: '__ZN3syn10punctuated23Punctuated$LT$T$C$P$GT$10push_punct17hbd050ee37e064e89E', symObjAddr: 0x9A60, symBinAddr: 0x8B360, symSize: 0xE0 }
  - { offsetInCU: 0x4581F, offset: 0x3764AC, size: 0x8, addend: 0x0, symName: '__ZN3syn10punctuated23Punctuated$LT$T$C$P$GT$10push_punct17hbd0e11a05555d8b2E', symObjAddr: 0x9B40, symBinAddr: 0x8B440, symSize: 0xE0 }
  - { offsetInCU: 0x45BBE, offset: 0x37684B, size: 0x8, addend: 0x0, symName: '__ZN3syn10punctuated23Punctuated$LT$T$C$P$GT$10push_punct17hca6adcb989d3d847E', symObjAddr: 0x9C20, symBinAddr: 0x8B520, symSize: 0xE0 }
  - { offsetInCU: 0x45F52, offset: 0x376BDF, size: 0x8, addend: 0x0, symName: '__ZN3syn10punctuated23Punctuated$LT$T$C$P$GT$10push_punct17hcb292321c86b633cE', symObjAddr: 0x9D00, symBinAddr: 0x8B600, symSize: 0xE0 }
  - { offsetInCU: 0x462F1, offset: 0x376F7E, size: 0x8, addend: 0x0, symName: '__ZN3syn10punctuated23Punctuated$LT$T$C$P$GT$10push_punct17hcecd6bb258e7a35eE', symObjAddr: 0x9DE0, symBinAddr: 0x8B6E0, symSize: 0xE0 }
  - { offsetInCU: 0x46670, offset: 0x3772FD, size: 0x8, addend: 0x0, symName: '__ZN3syn10punctuated23Punctuated$LT$T$C$P$GT$10push_punct17heb266034313ce098E', symObjAddr: 0x9EC0, symBinAddr: 0x8B7C0, symSize: 0xC0 }
  - { offsetInCU: 0x46A0F, offset: 0x37769C, size: 0x8, addend: 0x0, symName: '__ZN3syn10punctuated23Punctuated$LT$T$C$P$GT$10push_punct17heb5b0f0dc57ef8e2E', symObjAddr: 0x9F80, symBinAddr: 0x8B880, symSize: 0x100 }
  - { offsetInCU: 0x46E69, offset: 0x377AF6, size: 0x8, addend: 0x0, symName: '__ZN3syn10punctuated23Punctuated$LT$T$C$P$GT$3pop17h3b73ae520443f651E', symObjAddr: 0xA080, symBinAddr: 0x8B980, symSize: 0xB0 }
  - { offsetInCU: 0x47260, offset: 0x377EED, size: 0x8, addend: 0x0, symName: '__ZN3syn10punctuated23Punctuated$LT$T$C$P$GT$4push17h783df737f61dbef4E', symObjAddr: 0xA130, symBinAddr: 0x8BA30, symSize: 0x130 }
  - { offsetInCU: 0x47574, offset: 0x378201, size: 0x8, addend: 0x0, symName: '__ZN3syn10punctuated23Punctuated$LT$T$C$P$GT$6insert17h75ba781ee8e6df80E', symObjAddr: 0xA260, symBinAddr: 0x8BB60, symSize: 0x170 }
  - { offsetInCU: 0x478DB, offset: 0x378568, size: 0x8, addend: 0x0, symName: '__ZN3syn10punctuated23Punctuated$LT$T$C$P$GT$5clear17h05cd5f886edd7731E', symObjAddr: 0xA3D0, symBinAddr: 0x8BCD0, symSize: 0x90 }
  - { offsetInCU: 0x47B87, offset: 0x378814, size: 0x8, addend: 0x0, symName: '__ZN3syn10punctuated23Punctuated$LT$T$C$P$GT$21parse_terminated_with17h3e9dd6595479c854E', symObjAddr: 0xA460, symBinAddr: 0x8BD60, symSize: 0x200 }
  - { offsetInCU: 0x48086, offset: 0x378D13, size: 0x8, addend: 0x0, symName: '__ZN3syn10punctuated23Punctuated$LT$T$C$P$GT$21parse_terminated_with17h617309f26a2da64aE', symObjAddr: 0xA660, symBinAddr: 0x8BF60, symSize: 0x350 }
  - { offsetInCU: 0x48899, offset: 0x379526, size: 0x8, addend: 0x0, symName: '__ZN3syn10punctuated23Punctuated$LT$T$C$P$GT$21parse_terminated_with17h7c4e9770f41cadf4E', symObjAddr: 0xA9B0, symBinAddr: 0x8C2B0, symSize: 0x1F0 }
  - { offsetInCU: 0x48DB2, offset: 0x379A3F, size: 0x8, addend: 0x0, symName: '__ZN3syn10punctuated23Punctuated$LT$T$C$P$GT$21parse_terminated_with17ha5651341db98160bE', symObjAddr: 0xABA0, symBinAddr: 0x8C4A0, symSize: 0x330 }
  - { offsetInCU: 0x49786, offset: 0x37A413, size: 0x8, addend: 0x0, symName: '__ZN3syn10punctuated23Punctuated$LT$T$C$P$GT$21parse_terminated_with17hc5d46da97c17f695E', symObjAddr: 0xAED0, symBinAddr: 0x8C7D0, symSize: 0x410 }
  - { offsetInCU: 0x4A129, offset: 0x37ADB6, size: 0x8, addend: 0x0, symName: '__ZN3syn10punctuated23Punctuated$LT$T$C$P$GT$21parse_terminated_with17hf6abf8ee882cc326E', symObjAddr: 0xB2E0, symBinAddr: 0x8CBE0, symSize: 0x340 }
  - { offsetInCU: 0x1E, offset: 0x3824AF, size: 0x8, addend: 0x0, symName: '__ZN4core3ptr100drop_in_place$LT$$LP$syn..data..Visibility$C$core..option..Option$LT$syn..token..Default$GT$$RP$$GT$17h3ed30463118d8c03E', symObjAddr: 0x0, symBinAddr: 0x8EC60, symSize: 0x60 }
  - { offsetInCU: 0x99, offset: 0x38252A, size: 0x8, addend: 0x0, symName: '__ZN58_$LT$alloc..string..String$u20$as$u20$core..fmt..Write$GT$10write_char17hd329c0cb943f081aE', symObjAddr: 0x8E70, symBinAddr: 0x97A80, symSize: 0x130 }
  - { offsetInCU: 0x440, offset: 0x3828D1, size: 0x8, addend: 0x0, symName: '__ZN58_$LT$alloc..string..String$u20$as$u20$core..fmt..Write$GT$9write_str17h1ff5aa96ca91c6d5E', symObjAddr: 0x8FA0, symBinAddr: 0x97BB0, symSize: 0x60 }
  - { offsetInCU: 0x1CC0, offset: 0x384151, size: 0x8, addend: 0x0, symName: __ZN5alloc5alloc15exchange_malloc17h2bebe260214df546E, symObjAddr: 0x9080, symBinAddr: 0x97C90, symSize: 0x40 }
  - { offsetInCU: 0x4BA9, offset: 0x38703A, size: 0x8, addend: 0x0, symName: '__ZN4core3ptr100drop_in_place$LT$$LP$syn..data..Visibility$C$core..option..Option$LT$syn..token..Default$GT$$RP$$GT$17h3ed30463118d8c03E', symObjAddr: 0x0, symBinAddr: 0x8EC60, symSize: 0x60 }
  - { offsetInCU: 0x4D59, offset: 0x3871EA, size: 0x8, addend: 0x0, symName: '__ZN4core3ptr100drop_in_place$LT$core..option..Option$LT$alloc..boxed..Box$LT$syn..path..GenericArgument$GT$$GT$$GT$17h94fb3e089cc53ce6E', symObjAddr: 0x60, symBinAddr: 0x8ECC0, symSize: 0x50 }
  - { offsetInCU: 0x503F, offset: 0x3874D0, size: 0x8, addend: 0x0, symName: '__ZN4core3ptr101drop_in_place$LT$core..option..Option$LT$alloc..boxed..Box$LT$syn..generics..GenericParam$GT$$GT$$GT$17hddd995aa16037695E', symObjAddr: 0xB0, symBinAddr: 0x8ED10, symSize: 0x260 }
  - { offsetInCU: 0x5A70, offset: 0x387F01, size: 0x8, addend: 0x0, symName: '__ZN4core3ptr103drop_in_place$LT$core..option..Option$LT$alloc..boxed..Box$LT$syn..generics..WherePredicate$GT$$GT$$GT$17h195ffde7a8330f89E', symObjAddr: 0x310, symBinAddr: 0x8EF70, symSize: 0x100 }
  - { offsetInCU: 0x5D81, offset: 0x388212, size: 0x8, addend: 0x0, symName: '__ZN4core3ptr103drop_in_place$LT$syn..punctuated..Punctuated$LT$syn..generics..GenericParam$C$syn..token..Comma$GT$$GT$17hb2bb85f0e77d8df9E', symObjAddr: 0x410, symBinAddr: 0x8F070, symSize: 0x70 }
  - { offsetInCU: 0x60BF, offset: 0x388550, size: 0x8, addend: 0x0, symName: '__ZN4core3ptr103drop_in_place$LT$syn..punctuated..Punctuated$LT$syn..generics..TypeParamBound$C$syn..token..Add$GT$$GT$17h517181ada56b9062E', symObjAddr: 0x480, symBinAddr: 0x8F0E0, symSize: 0x1B0 }
  - { offsetInCU: 0x68C9, offset: 0x388D5A, size: 0x8, addend: 0x0, symName: '__ZN4core3ptr108drop_in_place$LT$syn..punctuated..Punctuated$LT$syn..expr..GenericMethodArgument$C$syn..token..Comma$GT$$GT$17h413f77b0de48dbb7E', symObjAddr: 0x630, symBinAddr: 0x8F290, symSize: 0x160 }
  - { offsetInCU: 0x6D81, offset: 0x389212, size: 0x8, addend: 0x0, symName: '__ZN4core3ptr115drop_in_place$LT$core..option..Option$LT$$LP$syn..token..Brace$C$alloc..vec..Vec$LT$syn..item..Item$GT$$RP$$GT$$GT$17h485cbe8167e7bc2fE', symObjAddr: 0x790, symBinAddr: 0x8F3F0, symSize: 0xE0 }
  - { offsetInCU: 0x7028, offset: 0x3894B9, size: 0x8, addend: 0x0, symName: '__ZN4core3ptr126drop_in_place$LT$core..option..Option$LT$$LP$syn..token..And$C$core..option..Option$LT$syn..lifetime..Lifetime$GT$$RP$$GT$$GT$17hf44b7a8b485ad914E', symObjAddr: 0x870, symBinAddr: 0x8F4D0, symSize: 0x30 }
  - { offsetInCU: 0x723C, offset: 0x3896CD, size: 0x8, addend: 0x0, symName: '__ZN4core3ptr34drop_in_place$LT$syn..lit..Lit$GT$17heb8f235ab74bc4d4E', symObjAddr: 0x8A0, symBinAddr: 0x8F500, symSize: 0x110 }
  - { offsetInCU: 0x7719, offset: 0x389BAA, size: 0x8, addend: 0x0, symName: '__ZN4core3ptr34drop_in_place$LT$syn..pat..Pat$GT$17hd6fa3ad4d18570d7E', symObjAddr: 0x9B0, symBinAddr: 0x8F610, symSize: 0x9F0 }
  - { offsetInCU: 0xA173, offset: 0x38C604, size: 0x8, addend: 0x0, symName: '__ZN4core3ptr34drop_in_place$LT$syn..ty..Type$GT$17hfd9bfeacac76fc9aE', symObjAddr: 0x13A0, symBinAddr: 0x90000, symSize: 0x5A0 }
  - { offsetInCU: 0xBC5B, offset: 0x38E0EC, size: 0x8, addend: 0x0, symName: '__ZN4core3ptr36drop_in_place$LT$syn..expr..Expr$GT$17h6b8a9b85afc75571E', symObjAddr: 0x1940, symBinAddr: 0x905A0, symSize: 0x1E70 }
  - { offsetInCU: 0x13F34, offset: 0x3963C5, size: 0x8, addend: 0x0, symName: '__ZN4core3ptr36drop_in_place$LT$syn..item..Item$GT$17haed0da6f7829d8d2E', symObjAddr: 0x37B0, symBinAddr: 0x92410, symSize: 0x10C0 }
  - { offsetInCU: 0x18215, offset: 0x39A6A6, size: 0x8, addend: 0x0, symName: '__ZN4core3ptr36drop_in_place$LT$syn..mac..Macro$GT$17ha661e027deab4b66E', symObjAddr: 0x4870, symBinAddr: 0x934D0, symSize: 0xE0 }
  - { offsetInCU: 0x18602, offset: 0x39AA93, size: 0x8, addend: 0x0, symName: '__ZN4core3ptr36drop_in_place$LT$syn..path..Path$GT$17he4358a51dbdb774bE', symObjAddr: 0x4950, symBinAddr: 0x935B0, symSize: 0x230 }
  - { offsetInCU: 0x18F37, offset: 0x39B3C8, size: 0x8, addend: 0x0, symName: '__ZN4core3ptr37drop_in_place$LT$core..fmt..Error$GT$17h953b815847ed35afE', symObjAddr: 0x4B80, symBinAddr: 0x937E0, symSize: 0x10 }
  - { offsetInCU: 0x18F63, offset: 0x39B3F4, size: 0x8, addend: 0x0, symName: '__ZN4core3ptr37drop_in_place$LT$syn..stmt..Block$GT$17hfb4d80957646e543E', symObjAddr: 0x4B90, symBinAddr: 0x937F0, symSize: 0xD0 }
  - { offsetInCU: 0x19226, offset: 0x39B6B7, size: 0x8, addend: 0x0, symName: '__ZN4core3ptr38drop_in_place$LT$syn..data..Fields$GT$17h21ee2026562d349bE', symObjAddr: 0x4C60, symBinAddr: 0x938C0, symSize: 0x180 }
  - { offsetInCU: 0x19644, offset: 0x39BAD5, size: 0x8, addend: 0x0, symName: '__ZN4core3ptr38drop_in_place$LT$syn..expr..Member$GT$17h3141a26ba2d76dd7E', symObjAddr: 0x4DE0, symBinAddr: 0x93A40, symSize: 0x30 }
  - { offsetInCU: 0x19741, offset: 0x39BBD2, size: 0x8, addend: 0x0, symName: '__ZN4core3ptr38drop_in_place$LT$syn..pat..PatType$GT$17h8c3d1bd2beead914E', symObjAddr: 0x4E10, symBinAddr: 0x93A70, symSize: 0xF0 }
  - { offsetInCU: 0x19D0C, offset: 0x39C19D, size: 0x8, addend: 0x0, symName: '__ZN4core3ptr39drop_in_place$LT$proc_macro2..Group$GT$17hac9d65b019abbef7E', symObjAddr: 0x4F00, symBinAddr: 0x93B60, symSize: 0x60 }
  - { offsetInCU: 0x19E6D, offset: 0x39C2FE, size: 0x8, addend: 0x0, symName: '__ZN4core3ptr39drop_in_place$LT$proc_macro2..Ident$GT$17hfc382935d884a247E', symObjAddr: 0x4F60, symBinAddr: 0x93BC0, symSize: 0x30 }
  - { offsetInCU: 0x19F6A, offset: 0x39C3FB, size: 0x8, addend: 0x0, symName: '__ZN4core3ptr39drop_in_place$LT$syn..item..ItemMod$GT$17hb15a31423226f2f4E', symObjAddr: 0x4F90, symBinAddr: 0x93BF0, symSize: 0x1B0 }
  - { offsetInCU: 0x1A741, offset: 0x39CBD2, size: 0x8, addend: 0x0, symName: '__ZN4core3ptr39drop_in_place$LT$syn..item..UseTree$GT$17h25d9f1648b09fcd7E', symObjAddr: 0x5140, symBinAddr: 0x93DA0, symSize: 0x1E0 }
  - { offsetInCU: 0x1AE29, offset: 0x39D2BA, size: 0x8, addend: 0x0, symName: '__ZN4core3ptr39drop_in_place$LT$syn..pat..PatTuple$GT$17h232e0cbeb905e9d9E', symObjAddr: 0x5320, symBinAddr: 0x93F80, symSize: 0x80 }
  - { offsetInCU: 0x1B0AD, offset: 0x39D53E, size: 0x8, addend: 0x0, symName: '__ZN4core3ptr40drop_in_place$LT$syn..item..ImplItem$GT$17h698546a88764617eE', symObjAddr: 0x53A0, symBinAddr: 0x94000, symSize: 0x5C0 }
  - { offsetInCU: 0x1C5B1, offset: 0x39EA42, size: 0x8, addend: 0x0, symName: '__ZN4core3ptr40drop_in_place$LT$syn..item..ItemImpl$GT$17h51b26ffc8ac1271dE', symObjAddr: 0x5960, symBinAddr: 0x945C0, symSize: 0x180 }
  - { offsetInCU: 0x1CC33, offset: 0x39F0C4, size: 0x8, addend: 0x0, symName: '__ZN4core3ptr40drop_in_place$LT$syn..item..Receiver$GT$17heaf5782384f4b1d4E', symObjAddr: 0x5AE0, symBinAddr: 0x94740, symSize: 0xB0 }
  - { offsetInCU: 0x1CFAA, offset: 0x39F43B, size: 0x8, addend: 0x0, symName: '__ZN4core3ptr40drop_in_place$LT$syn..ty..ReturnType$GT$17h42cc52c006e6d7cdE', symObjAddr: 0x5B90, symBinAddr: 0x947F0, symSize: 0x50 }
  - { offsetInCU: 0x1D13B, offset: 0x39F5CC, size: 0x8, addend: 0x0, symName: '__ZN4core3ptr41drop_in_place$LT$syn..item..ItemMacro$GT$17h9de5abd1f0bbf333E', symObjAddr: 0x5BE0, symBinAddr: 0x94840, symSize: 0xC0 }
  - { offsetInCU: 0x1D458, offset: 0x39F8E9, size: 0x8, addend: 0x0, symName: '__ZN4core3ptr41drop_in_place$LT$syn..item..Signature$GT$17h7d7f449a9806c924E', symObjAddr: 0x5CA0, symBinAddr: 0x94900, symSize: 0x190 }
  - { offsetInCU: 0x1DD0C, offset: 0x3A019D, size: 0x8, addend: 0x0, symName: '__ZN4core3ptr41drop_in_place$LT$syn..item..TraitItem$GT$17hd302ee66a5ab7e12E', symObjAddr: 0x5E30, symBinAddr: 0x94A90, symSize: 0x470 }
  - { offsetInCU: 0x1ED0B, offset: 0x3A119C, size: 0x8, addend: 0x0, symName: '__ZN4core3ptr42drop_in_place$LT$alloc..string..String$GT$17hd527bee3e7586c29E', symObjAddr: 0x62A0, symBinAddr: 0x94F00, symSize: 0x20 }
  - { offsetInCU: 0x1EE14, offset: 0x3A12A5, size: 0x8, addend: 0x0, symName: '__ZN4core3ptr42drop_in_place$LT$syn..data..Visibility$GT$17h788983c5adb3d2ecE', symObjAddr: 0x62C0, symBinAddr: 0x94F20, symSize: 0x60 }
  - { offsetInCU: 0x1EF97, offset: 0x3A1428, size: 0x8, addend: 0x0, symName: '__ZN4core3ptr43drop_in_place$LT$syn..data..FieldsNamed$GT$17hd9424b8d746ee929E', symObjAddr: 0x6320, symBinAddr: 0x94F80, symSize: 0xE0 }
  - { offsetInCU: 0x1F302, offset: 0x3A1793, size: 0x8, addend: 0x0, symName: '__ZN4core3ptr43drop_in_place$LT$syn..item..ForeignItem$GT$17hf507cacb1dc2bda0E', symObjAddr: 0x6400, symBinAddr: 0x95060, symSize: 0x460 }
  - { offsetInCU: 0x205B6, offset: 0x3A2A47, size: 0x8, addend: 0x0, symName: '__ZN4core3ptr44drop_in_place$LT$syn..generics..Generics$GT$17hb46e5bc833bfc579E', symObjAddr: 0x6860, symBinAddr: 0x954C0, symSize: 0xB0 }
  - { offsetInCU: 0x207E8, offset: 0x3A2C79, size: 0x8, addend: 0x0, symName: '__ZN4core3ptr44drop_in_place$LT$syn..lifetime..Lifetime$GT$17h94c9fe51c9dd60c6E', symObjAddr: 0x6910, symBinAddr: 0x95570, symSize: 0x30 }
  - { offsetInCU: 0x20961, offset: 0x3A2DF2, size: 0x8, addend: 0x0, symName: '__ZN4core3ptr44drop_in_place$LT$syn..parse..ParseBuffer$GT$17h1603f155a5d07e6dE', symObjAddr: 0x6940, symBinAddr: 0x955A0, symSize: 0x70 }
  - { offsetInCU: 0x20CFB, offset: 0x3A318C, size: 0x8, addend: 0x0, symName: '__ZN4core3ptr45drop_in_place$LT$proc_macro2..TokenStream$GT$17h44f5bf9c29d914fbE', symObjAddr: 0x69B0, symBinAddr: 0x95610, symSize: 0x140 }
  - { offsetInCU: 0x2116B, offset: 0x3A35FC, size: 0x8, addend: 0x0, symName: '__ZN4core3ptr46drop_in_place$LT$syn..item..ItemForeignMod$GT$17hb21887a95ac57847E', symObjAddr: 0x6AF0, symBinAddr: 0x95750, symSize: 0x130 }
  - { offsetInCU: 0x21954, offset: 0x3A3DE5, size: 0x8, addend: 0x0, symName: '__ZN4core3ptr47drop_in_place$LT$syn..generics..LifetimeDef$GT$17h651f63d4c11a8213E', symObjAddr: 0x6C20, symBinAddr: 0x95880, symSize: 0xB0 }
  - { offsetInCU: 0x21CAC, offset: 0x3A413D, size: 0x8, addend: 0x0, symName: '__ZN4core3ptr47drop_in_place$LT$syn..path..GenericArgument$GT$17h53f7c77f182368f5E', symObjAddr: 0x6CD0, symBinAddr: 0x95930, symSize: 0xE0 }
  - { offsetInCU: 0x21FD9, offset: 0x3A446A, size: 0x8, addend: 0x0, symName: '__ZN4core3ptr58drop_in_place$LT$alloc..vec..Vec$LT$syn..expr..Arm$GT$$GT$17hf30588e63e9aa2acE', symObjAddr: 0x6DB0, symBinAddr: 0x95A10, symSize: 0xD0 }
  - { offsetInCU: 0x22266, offset: 0x3A46F7, size: 0x8, addend: 0x0, symName: '__ZN4core3ptr59drop_in_place$LT$alloc..boxed..Box$LT$syn..pat..Pat$GT$$GT$17h8da5d9585b79befeE', symObjAddr: 0x6E80, symBinAddr: 0x95AE0, symSize: 0x50 }
  - { offsetInCU: 0x223C1, offset: 0x3A4852, size: 0x8, addend: 0x0, symName: '__ZN4core3ptr59drop_in_place$LT$alloc..boxed..Box$LT$syn..ty..Type$GT$$GT$17hfdcfc83ffb884feaE', symObjAddr: 0x6ED0, symBinAddr: 0x95B30, symSize: 0x50 }
  - { offsetInCU: 0x2251C, offset: 0x3A49AD, size: 0x8, addend: 0x0, symName: '__ZN4core3ptr59drop_in_place$LT$alloc..vec..Vec$LT$syn..item..Item$GT$$GT$17h4cdd6ad49c20c9ffE', symObjAddr: 0x6F20, symBinAddr: 0x95B80, symSize: 0xD0 }
  - { offsetInCU: 0x227A9, offset: 0x3A4C3A, size: 0x8, addend: 0x0, symName: '__ZN4core3ptr59drop_in_place$LT$alloc..vec..Vec$LT$syn..stmt..Stmt$GT$$GT$17h279570968c738800E', symObjAddr: 0x6FF0, symBinAddr: 0x95C50, symSize: 0xD0 }
  - { offsetInCU: 0x22A36, offset: 0x3A4EC7, size: 0x8, addend: 0x0, symName: '__ZN4core3ptr61drop_in_place$LT$alloc..boxed..Box$LT$syn..expr..Expr$GT$$GT$17hd59f20e4896eb10dE', symObjAddr: 0x70C0, symBinAddr: 0x95D20, symSize: 0x50 }
  - { offsetInCU: 0x22B91, offset: 0x3A5022, size: 0x8, addend: 0x0, symName: '__ZN4core3ptr61drop_in_place$LT$syn..path..ParenthesizedGenericArguments$GT$17h2cb12f9d921fc247E', symObjAddr: 0x7110, symBinAddr: 0x95D70, symSize: 0x170 }
  - { offsetInCU: 0x2316C, offset: 0x3A55FD, size: 0x8, addend: 0x0, symName: '__ZN4core3ptr62drop_in_place$LT$alloc..boxed..Box$LT$syn..stmt..Block$GT$$GT$17h4a7cc3258b08bc2dE', symObjAddr: 0x7280, symBinAddr: 0x95EE0, symSize: 0xE0 }
  - { offsetInCU: 0x23549, offset: 0x3A59DA, size: 0x8, addend: 0x0, symName: '__ZN4core3ptr63drop_in_place$LT$alloc..boxed..Box$LT$syn..lit..LitRepr$GT$$GT$17ha0c79af03c778e78E', symObjAddr: 0x7360, symBinAddr: 0x95FC0, symSize: 0x60 }
  - { offsetInCU: 0x2381F, offset: 0x3A5CB0, size: 0x8, addend: 0x0, symName: '__ZN4core3ptr63drop_in_place$LT$alloc..vec..Vec$LT$syn..item..ImplItem$GT$$GT$17hf6d2e0c4b364acacE', symObjAddr: 0x73C0, symBinAddr: 0x96020, symSize: 0x80 }
  - { offsetInCU: 0x23A9D, offset: 0x3A5F2E, size: 0x8, addend: 0x0, symName: '__ZN4core3ptr64drop_in_place$LT$alloc..boxed..Box$LT$syn..item..UseTree$GT$$GT$17h8781734ad1e82212E', symObjAddr: 0x7440, symBinAddr: 0x960A0, symSize: 0x50 }
  - { offsetInCU: 0x23C17, offset: 0x3A60A8, size: 0x8, addend: 0x0, symName: '__ZN4core3ptr64drop_in_place$LT$alloc..boxed..Box$LT$syn..pat..FieldPat$GT$$GT$17h4cf97b08e30ccd11E', symObjAddr: 0x7490, symBinAddr: 0x960F0, symSize: 0x100 }
  - { offsetInCU: 0x24232, offset: 0x3A66C3, size: 0x8, addend: 0x0, symName: '__ZN4core3ptr64drop_in_place$LT$alloc..boxed..Box$LT$syn..ty..BareFnArg$GT$$GT$17h5ed4e7eb5288ceaeE', symObjAddr: 0x7590, symBinAddr: 0x961F0, symSize: 0xE0 }
  - { offsetInCU: 0x246B8, offset: 0x3A6B49, size: 0x8, addend: 0x0, symName: '__ZN4core3ptr64drop_in_place$LT$alloc..vec..Vec$LT$syn..attr..Attribute$GT$$GT$17h00ca1a13bf29cbb7E', symObjAddr: 0x7670, symBinAddr: 0x962D0, symSize: 0x60 }
  - { offsetInCU: 0x248AD, offset: 0x3A6D3E, size: 0x8, addend: 0x0, symName: '__ZN4core3ptr64drop_in_place$LT$alloc..vec..Vec$LT$syn..item..TraitItem$GT$$GT$17h2add6c0b4fdd403cE', symObjAddr: 0x76D0, symBinAddr: 0x96330, symSize: 0x80 }
  - { offsetInCU: 0x24B2B, offset: 0x3A6FBC, size: 0x8, addend: 0x0, symName: '__ZN4core3ptr65drop_in_place$LT$core..option..Option$LT$syn..expr..Label$GT$$GT$17hdfb87f4e56640098E', symObjAddr: 0x7750, symBinAddr: 0x963B0, symSize: 0x30 }
  - { offsetInCU: 0x24C66, offset: 0x3A70F7, size: 0x8, addend: 0x0, symName: '__ZN4core3ptr66drop_in_place$LT$alloc..vec..Vec$LT$syn..item..ForeignItem$GT$$GT$17h457cbb9d53df1a2fE', symObjAddr: 0x7780, symBinAddr: 0x963E0, symSize: 0x80 }
  - { offsetInCU: 0x24EE4, offset: 0x3A7375, size: 0x8, addend: 0x0, symName: '__ZN4core3ptr66drop_in_place$LT$core..option..Option$LT$syn..ty..Variadic$GT$$GT$17h027f0e707b91e4beE', symObjAddr: 0x7800, symBinAddr: 0x96460, symSize: 0x80 }
  - { offsetInCU: 0x2513A, offset: 0x3A75CB, size: 0x8, addend: 0x0, symName: '__ZN4core3ptr67drop_in_place$LT$alloc..boxed..Box$LT$syn..expr..FieldValue$GT$$GT$17ha1d27993e02226e2E', symObjAddr: 0x7880, symBinAddr: 0x964E0, symSize: 0xF0 }
  - { offsetInCU: 0x255AC, offset: 0x3A7A3D, size: 0x8, addend: 0x0, symName: '__ZN4core3ptr72drop_in_place$LT$core..option..Option$LT$syn..lifetime..Lifetime$GT$$GT$17h406663184fba9f2fE', symObjAddr: 0x7970, symBinAddr: 0x965D0, symSize: 0x30 }
  - { offsetInCU: 0x256C8, offset: 0x3A7B59, size: 0x8, addend: 0x0, symName: '__ZN4core3ptr75drop_in_place$LT$alloc..boxed..Box$LT$syn..generics..TypeParamBound$GT$$GT$17hcf1c09bccd64c785E', symObjAddr: 0x79A0, symBinAddr: 0x96600, symSize: 0x140 }
  - { offsetInCU: 0x25C79, offset: 0x3A810A, size: 0x8, addend: 0x0, symName: '__ZN4core3ptr75drop_in_place$LT$core..option..Option$LT$syn..generics..WhereClause$GT$$GT$17h66af8fe2a681bfcdE', symObjAddr: 0x7AE0, symBinAddr: 0x96740, symSize: 0x100 }
  - { offsetInCU: 0x25F00, offset: 0x3A8391, size: 0x8, addend: 0x0, symName: '__ZN4core3ptr78drop_in_place$LT$alloc..boxed..Box$LT$syn..expr..GenericMethodArgument$GT$$GT$17hc5561f5e7586c250E', symObjAddr: 0x7BE0, symBinAddr: 0x96840, symSize: 0x60 }
  - { offsetInCU: 0x26132, offset: 0x3A85C3, size: 0x8, addend: 0x0, symName: '__ZN4core3ptr78drop_in_place$LT$core..option..Option$LT$syn..generics..BoundLifetimes$GT$$GT$17hc74a275f958fb9a1E', symObjAddr: 0x7C40, symBinAddr: 0x968A0, symSize: 0x130 }
  - { offsetInCU: 0x26609, offset: 0x3A8A9A, size: 0x8, addend: 0x0, symName: '__ZN4core3ptr86drop_in_place$LT$syn..punctuated..Punctuated$LT$syn..pat..Pat$C$syn..token..Or$GT$$GT$17h13896407bc2c03e4E', symObjAddr: 0x7D70, symBinAddr: 0x969D0, symSize: 0x120 }
  - { offsetInCU: 0x26A4F, offset: 0x3A8EE0, size: 0x8, addend: 0x0, symName: '__ZN4core3ptr87drop_in_place$LT$core..option..Option$LT$alloc..boxed..Box$LT$syn..pat..Pat$GT$$GT$$GT$17h5bd93a2021c10f20E', symObjAddr: 0x7E90, symBinAddr: 0x96AF0, symSize: 0x50 }
  - { offsetInCU: 0x26BC1, offset: 0x3A9052, size: 0x8, addend: 0x0, symName: '__ZN4core3ptr87drop_in_place$LT$core..option..Option$LT$alloc..boxed..Box$LT$syn..ty..Type$GT$$GT$$GT$17h6936d17ab80112d1E', symObjAddr: 0x7EE0, symBinAddr: 0x96B40, symSize: 0x50 }
  - { offsetInCU: 0x26D33, offset: 0x3A91C4, size: 0x8, addend: 0x0, symName: '__ZN4core3ptr89drop_in_place$LT$core..option..Option$LT$alloc..boxed..Box$LT$syn..expr..Expr$GT$$GT$$GT$17h9285f9bb32cfe7feE', symObjAddr: 0x7F30, symBinAddr: 0x96B90, symSize: 0x50 }
  - { offsetInCU: 0x26EE3, offset: 0x3A9374, size: 0x8, addend: 0x0, symName: '__ZN4core3ptr89drop_in_place$LT$syn..punctuated..Punctuated$LT$syn..pat..Pat$C$syn..token..Comma$GT$$GT$17h7cc94aacc194d79fE', symObjAddr: 0x7F80, symBinAddr: 0x96BE0, symSize: 0x120 }
  - { offsetInCU: 0x2737E, offset: 0x3A980F, size: 0x8, addend: 0x0, symName: '__ZN4core3ptr90drop_in_place$LT$core..option..Option$LT$alloc..boxed..Box$LT$syn..data..Field$GT$$GT$$GT$17hc50e2375b7e440f8E', symObjAddr: 0x80A0, symBinAddr: 0x96D00, symSize: 0x1A0 }
  - { offsetInCU: 0x27B61, offset: 0x3A9FF2, size: 0x8, addend: 0x0, symName: '__ZN4core3ptr90drop_in_place$LT$core..option..Option$LT$alloc..boxed..Box$LT$syn..item..FnArg$GT$$GT$$GT$17hbba5815768eb1c40E', symObjAddr: 0x8240, symBinAddr: 0x96EA0, symSize: 0x60 }
  - { offsetInCU: 0x27D1B, offset: 0x3AA1AC, size: 0x8, addend: 0x0, symName: '__ZN4core3ptr91drop_in_place$LT$syn..punctuated..Punctuated$LT$syn..expr..Expr$C$syn..token..Comma$GT$$GT$17h89eb145173101a03E', symObjAddr: 0x82A0, symBinAddr: 0x96F00, symSize: 0x120 }
  - { offsetInCU: 0x28178, offset: 0x3AA609, size: 0x8, addend: 0x0, symName: '__ZN4core3ptr92drop_in_place$LT$core..option..Option$LT$$LP$syn..token..As$C$proc_macro2..Ident$RP$$GT$$GT$17h885c969d0e42c9dcE', symObjAddr: 0x83C0, symBinAddr: 0x97020, symSize: 0x30 }
  - { offsetInCU: 0x282D2, offset: 0x3AA763, size: 0x8, addend: 0x0, symName: '__ZN4core3ptr92drop_in_place$LT$core..option..Option$LT$alloc..boxed..Box$LT$syn..data..Variant$GT$$GT$$GT$17h4d028927cbe2de32E', symObjAddr: 0x83F0, symBinAddr: 0x97050, symSize: 0x140 }
  - { offsetInCU: 0x288E9, offset: 0x3AAD7A, size: 0x8, addend: 0x0, symName: '__ZN4core3ptr92drop_in_place$LT$syn..punctuated..Punctuated$LT$syn..item..FnArg$C$syn..token..Comma$GT$$GT$17h75f0f2c68c193b1eE', symObjAddr: 0x8530, symBinAddr: 0x97190, symSize: 0x140 }
  - { offsetInCU: 0x28D37, offset: 0x3AB1C8, size: 0x8, addend: 0x0, symName: '__ZN4core3ptr94drop_in_place$LT$syn..punctuated..Punctuated$LT$syn..data..Variant$C$syn..token..Comma$GT$$GT$17h444850e5fc0890a9E', symObjAddr: 0x8670, symBinAddr: 0x972D0, symSize: 0xE0 }
  - { offsetInCU: 0x29007, offset: 0x3AB498, size: 0x8, addend: 0x0, symName: '__ZN4core3ptr94drop_in_place$LT$syn..punctuated..Punctuated$LT$syn..pat..FieldPat$C$syn..token..Comma$GT$$GT$17hdbbfc15c48c312e3E', symObjAddr: 0x8750, symBinAddr: 0x973B0, symSize: 0xF0 }
  - { offsetInCU: 0x292D1, offset: 0x3AB762, size: 0x8, addend: 0x0, symName: '__ZN4core3ptr94drop_in_place$LT$syn..punctuated..Punctuated$LT$syn..ty..BareFnArg$C$syn..token..Comma$GT$$GT$17h4e6d5a703b32a850E', symObjAddr: 0x8840, symBinAddr: 0x974A0, symSize: 0xF0 }
  - { offsetInCU: 0x2959B, offset: 0x3ABA2C, size: 0x8, addend: 0x0, symName: '__ZN4core3ptr96drop_in_place$LT$core..option..Option$LT$alloc..boxed..Box$LT$syn..path..PathSegment$GT$$GT$$GT$17he2148fc749fa4ba5E', symObjAddr: 0x8930, symBinAddr: 0x97590, symSize: 0x180 }
  - { offsetInCU: 0x29C2C, offset: 0x3AC0BD, size: 0x8, addend: 0x0, symName: '__ZN4core3ptr97drop_in_place$LT$syn..punctuated..Punctuated$LT$syn..expr..FieldValue$C$syn..token..Comma$GT$$GT$17h32c10a095b2e74c7E', symObjAddr: 0x8AB0, symBinAddr: 0x97710, symSize: 0xF0 }
  - { offsetInCU: 0x29F72, offset: 0x3AC403, size: 0x8, addend: 0x0, symName: '__ZN4core3ptr97drop_in_place$LT$syn..punctuated..Punctuated$LT$syn..lifetime..Lifetime$C$syn..token..Add$GT$$GT$17h75f9c8a38e93dfefE', symObjAddr: 0x8BA0, symBinAddr: 0x97800, symSize: 0xC0 }
  - { offsetInCU: 0x2ADEE, offset: 0x3AD27F, size: 0x8, addend: 0x0, symName: '__ZN53_$LT$core..fmt..Error$u20$as$u20$core..fmt..Debug$GT$3fmt17h43ae5cec9623af13E', symObjAddr: 0x8E50, symBinAddr: 0x97A60, symSize: 0x20 }
  - { offsetInCU: 0x39812, offset: 0x3BBCA3, size: 0x8, addend: 0x0, symName: '__ZN3syn4item7parsing63_$LT$impl$u20$syn..parse..Parse$u20$for$u20$syn..item..Item$GT$5parse17he5c5d41d87b4b07bE', symObjAddr: 0x92F0, symBinAddr: 0x97E30, symSize: 0x4E20 }
  - { offsetInCU: 0x4731C, offset: 0x3C97AD, size: 0x8, addend: 0x0, symName: '__ZN3syn4item7parsing68_$LT$impl$u20$syn..parse..Parse$u20$for$u20$syn..item..ItemMacro$GT$5parse17h1eeff6c2d8c920a2E', symObjAddr: 0xE110, symBinAddr: 0x9CC50, symSize: 0x580 }
  - { offsetInCU: 0x47D7D, offset: 0x3CA20E, size: 0x8, addend: 0x0, symName: '__ZN3syn4item7parsing69_$LT$impl$u20$syn..parse..Parse$u20$for$u20$syn..item..ItemMacro2$GT$5parse17h7a00485d095a8ef2E', symObjAddr: 0xE690, symBinAddr: 0x9D1D0, symSize: 0xA00 }
  - { offsetInCU: 0x497BB, offset: 0x3CBC4C, size: 0x8, addend: 0x0, symName: '__ZN3syn4item7parsing74_$LT$impl$u20$syn..parse..Parse$u20$for$u20$syn..item..ItemExternCrate$GT$5parse17hd1f82917dd20d6efE', symObjAddr: 0xF090, symBinAddr: 0x9DBD0, symSize: 0x870 }
  - { offsetInCU: 0x4A9D5, offset: 0x3CCE66, size: 0x8, addend: 0x0, symName: '__ZN3syn4item7parsing66_$LT$impl$u20$syn..parse..Parse$u20$for$u20$syn..item..ItemUse$GT$5parse17h99f8295d90cf1f72E', symObjAddr: 0xF900, symBinAddr: 0x9E440, symSize: 0x740 }
  - { offsetInCU: 0x4B321, offset: 0x3CD7B2, size: 0x8, addend: 0x0, symName: '__ZN3syn4item7parsing66_$LT$impl$u20$syn..parse..Parse$u20$for$u20$syn..item..UseTree$GT$5parse17h74db4d42ad5fc6cdE', symObjAddr: 0x10040, symBinAddr: 0x9EB80, symSize: 0xB20 }
  - { offsetInCU: 0x4D5F6, offset: 0x3CFA87, size: 0x8, addend: 0x0, symName: '__ZN3syn4item7parsing68_$LT$impl$u20$syn..parse..Parse$u20$for$u20$syn..item..Signature$GT$5parse17h8ab620ec3e56cdd5E', symObjAddr: 0x12180, symBinAddr: 0x9F6A0, symSize: 0x8E0 }
  - { offsetInCU: 0x4E20D, offset: 0x3D069E, size: 0x8, addend: 0x0, symName: '__ZN3syn4item7parsing64_$LT$impl$u20$syn..parse..Parse$u20$for$u20$syn..item..FnArg$GT$5parse17hd83632dccf08cdbaE', symObjAddr: 0x12DB0, symBinAddr: 0x9FF80, symSize: 0x750 }
  - { offsetInCU: 0x4F61C, offset: 0x3D1AAD, size: 0x8, addend: 0x0, symName: '__ZN3syn4item7parsing67_$LT$impl$u20$syn..parse..Parse$u20$for$u20$syn..item..Receiver$GT$5parse17hbbb59c0d57691ad7E', symObjAddr: 0x13500, symBinAddr: 0xA06D0, symSize: 0x420 }
  - { offsetInCU: 0x4FC1E, offset: 0x3D20AF, size: 0x8, addend: 0x0, symName: '__ZN3syn4item7parsing66_$LT$impl$u20$syn..parse..Parse$u20$for$u20$syn..item..ItemMod$GT$5parse17h7c0eaf8edff13895E', symObjAddr: 0x13920, symBinAddr: 0xA0AF0, symSize: 0x1000 }
  - { offsetInCU: 0x5200F, offset: 0x3D44A0, size: 0x8, addend: 0x0, symName: '__ZN3syn4item7parsing73_$LT$impl$u20$syn..parse..Parse$u20$for$u20$syn..item..ItemForeignMod$GT$5parse17h6cd1f43d9e6cb666E', symObjAddr: 0x14920, symBinAddr: 0xA1AF0, symSize: 0x620 }
  - { offsetInCU: 0x52F36, offset: 0x3D53C7, size: 0x8, addend: 0x0, symName: '__ZN3syn4item7parsing70_$LT$impl$u20$syn..parse..Parse$u20$for$u20$syn..item..ForeignItem$GT$5parse17hc5df921b723656dbE', symObjAddr: 0x14F40, symBinAddr: 0xA2110, symSize: 0x1B10 }
  - { offsetInCU: 0x56F69, offset: 0x3D93FA, size: 0x8, addend: 0x0, symName: '__ZN3syn4item7parsing69_$LT$impl$u20$syn..parse..Parse$u20$for$u20$syn..item..ItemStruct$GT$5parse17ha0db2318e08442d1E', symObjAddr: 0x187C0, symBinAddr: 0xA3C20, symSize: 0x6F0 }
  - { offsetInCU: 0x57A0F, offset: 0x3D9EA0, size: 0x8, addend: 0x0, symName: '__ZN3syn4item7parsing67_$LT$impl$u20$syn..parse..Parse$u20$for$u20$syn..item..ItemEnum$GT$5parse17h2d10e35ab548fab0E', symObjAddr: 0x18EB0, symBinAddr: 0xA4310, symSize: 0x670 }
  - { offsetInCU: 0x584B5, offset: 0x3DA946, size: 0x8, addend: 0x0, symName: '__ZN3syn4item7parsing68_$LT$impl$u20$syn..parse..Parse$u20$for$u20$syn..item..ItemUnion$GT$5parse17h5c6e1c8877d12210E', symObjAddr: 0x19520, symBinAddr: 0xA4980, symSize: 0x670 }
  - { offsetInCU: 0x58F4C, offset: 0x3DB3DD, size: 0x8, addend: 0x0, symName: '__ZN3syn4item7parsing68_$LT$impl$u20$syn..parse..Parse$u20$for$u20$syn..item..ItemTrait$GT$5parse17h25d13bf908524b2eE', symObjAddr: 0x19B90, symBinAddr: 0xA4FF0, symSize: 0x650 }
  - { offsetInCU: 0x59BD4, offset: 0x3DC065, size: 0x8, addend: 0x0, symName: '__ZN3syn4item7parsing68_$LT$impl$u20$syn..parse..Parse$u20$for$u20$syn..item..TraitItem$GT$5parse17hbf43f4d0bd7bce03E', symObjAddr: 0x1A310, symBinAddr: 0xA5640, symSize: 0x1BE0 }
  - { offsetInCU: 0x6060A, offset: 0x3E2A9B, size: 0x8, addend: 0x0, symName: '__ZN3syn4item7parsing73_$LT$impl$u20$syn..parse..Parse$u20$for$u20$syn..item..TraitItemConst$GT$5parse17h98155ca7512be306E', symObjAddr: 0x1BEF0, symBinAddr: 0xA7220, symSize: 0xAA0 }
  - { offsetInCU: 0x62148, offset: 0x3E45D9, size: 0x8, addend: 0x0, symName: '__ZN3syn4item7parsing74_$LT$impl$u20$syn..parse..Parse$u20$for$u20$syn..item..TraitItemMethod$GT$5parse17h34dc814f3b221c2fE', symObjAddr: 0x1C990, symBinAddr: 0xA7CC0, symSize: 0x8D0 }
  - { offsetInCU: 0x637B4, offset: 0x3E5C45, size: 0x8, addend: 0x0, symName: '__ZN3syn4item7parsing67_$LT$impl$u20$syn..parse..Parse$u20$for$u20$syn..item..ImplItem$GT$5parse17h77c5903418e4fcd7E', symObjAddr: 0x1DDB0, symBinAddr: 0xA8590, symSize: 0x1F00 }
  - { offsetInCU: 0x6937E, offset: 0x3EB80F, size: 0x8, addend: 0x0, symName: '__ZN3syn4item7parsing73_$LT$impl$u20$syn..parse..Parse$u20$for$u20$syn..item..ImplItemMethod$GT$5parse17h9866d80d5a98b06cE', symObjAddr: 0x20B50, symBinAddr: 0xAA490, symSize: 0x710 }
  - { offsetInCU: 0x6A0E0, offset: 0x3EC571, size: 0x8, addend: 0x0, symName: '__ZN3syn4item7parsing72_$LT$impl$u20$syn..parse..Parse$u20$for$u20$syn..item..ImplItemMacro$GT$5parse17h703a53abb17a8a64E', symObjAddr: 0x21B40, symBinAddr: 0xAABA0, symSize: 0x0 }
  - { offsetInCU: 0x6A614, offset: 0x3ECAA5, size: 0x8, addend: 0x0, symName: '__ZN3syn4item8printing83_$LT$impl$u20$quote..to_tokens..ToTokens$u20$for$u20$syn..item..ItemExternCrate$GT$9to_tokens17h0d82ee77cefbf7a4E', symObjAddr: 0x21E30, symBinAddr: 0xAAE90, symSize: 0x250 }
  - { offsetInCU: 0x6AC11, offset: 0x3ED0A2, size: 0x8, addend: 0x0, symName: '__ZN3syn4item8printing78_$LT$impl$u20$quote..to_tokens..ToTokens$u20$for$u20$syn..item..ItemStatic$GT$9to_tokens17h0372c1cdc8c68e6fE', symObjAddr: 0x22210, symBinAddr: 0xAB0E0, symSize: 0x230 }
  - { offsetInCU: 0x6B208, offset: 0x3ED699, size: 0x8, addend: 0x0, symName: '__ZN3syn4item8printing75_$LT$impl$u20$quote..to_tokens..ToTokens$u20$for$u20$syn..item..ItemMod$GT$9to_tokens17h72ecbaeec8da64c3E', symObjAddr: 0x22710, symBinAddr: 0xAB310, symSize: 0x1D0 }
  - { offsetInCU: 0x6B6F2, offset: 0x3EDB83, size: 0x8, addend: 0x0, symName: '__ZN3syn4item8printing78_$LT$impl$u20$quote..to_tokens..ToTokens$u20$for$u20$syn..item..ItemStruct$GT$9to_tokens17h9e4291434040ecf6E', symObjAddr: 0x22DD0, symBinAddr: 0xAB4E0, symSize: 0x240 }
  - { offsetInCU: 0x6BC08, offset: 0x3EE099, size: 0x8, addend: 0x0, symName: '__ZN3syn4item8printing77_$LT$impl$u20$quote..to_tokens..ToTokens$u20$for$u20$syn..item..ItemTrait$GT$9to_tokens17hc7a09227559d02c1E', symObjAddr: 0x231B0, symBinAddr: 0xAB720, symSize: 0x300 }
  - { offsetInCU: 0x6C4E6, offset: 0x3EE977, size: 0x8, addend: 0x0, symName: '__ZN3syn4item8printing76_$LT$impl$u20$quote..to_tokens..ToTokens$u20$for$u20$syn..item..ItemImpl$GT$9to_tokens17h287d18505b2d3beaE', symObjAddr: 0x236A0, symBinAddr: 0xABA20, symSize: 0x350 }
  - { offsetInCU: 0x6CDB7, offset: 0x3EF248, size: 0x8, addend: 0x0, symName: '__ZN3syn4item8printing77_$LT$impl$u20$quote..to_tokens..ToTokens$u20$for$u20$syn..item..ItemMacro$GT$9to_tokens17h5f576515c302371bE', symObjAddr: 0x239F0, symBinAddr: 0xABD70, symSize: 0x1D0 }
  - { offsetInCU: 0x6D2C3, offset: 0x3EF754, size: 0x8, addend: 0x0, symName: '__ZN3syn4item8printing82_$LT$impl$u20$quote..to_tokens..ToTokens$u20$for$u20$syn..item..TraitItemConst$GT$9to_tokens17hebeef91d79144066E', symObjAddr: 0x23E80, symBinAddr: 0xABF40, symSize: 0x1D0 }
  - { offsetInCU: 0x6D701, offset: 0x3EFB92, size: 0x8, addend: 0x0, symName: '__ZN3syn4item8printing81_$LT$impl$u20$quote..to_tokens..ToTokens$u20$for$u20$syn..item..TraitItemType$GT$9to_tokens17hbc7d2acbbe223865E', symObjAddr: 0x241C0, symBinAddr: 0xAC110, symSize: 0x260 }
  - { offsetInCU: 0x6DD40, offset: 0x3F01D1, size: 0x8, addend: 0x0, symName: '__ZN3syn4item8printing81_$LT$impl$u20$quote..to_tokens..ToTokens$u20$for$u20$syn..item..ImplItemConst$GT$9to_tokens17hafd15b5bb34b7a0eE', symObjAddr: 0x24420, symBinAddr: 0xAC370, symSize: 0x250 }
  - { offsetInCU: 0x6E25E, offset: 0x3F06EF, size: 0x8, addend: 0x0, symName: '__ZN3syn4item8printing82_$LT$impl$u20$quote..to_tokens..ToTokens$u20$for$u20$syn..item..ImplItemMethod$GT$9to_tokens17hc09bddbda60a5eceE', symObjAddr: 0x24670, symBinAddr: 0xAC5C0, symSize: 0x2E0 }
  - { offsetInCU: 0x6EA7F, offset: 0x3F0F10, size: 0x8, addend: 0x0, symName: '__ZN3syn4item8printing80_$LT$impl$u20$quote..to_tokens..ToTokens$u20$for$u20$syn..item..ImplItemType$GT$9to_tokens17hf6af0c870472d167E', symObjAddr: 0x24950, symBinAddr: 0xAC8A0, symSize: 0x240 }
  - { offsetInCU: 0x6F04D, offset: 0x3F14DE, size: 0x8, addend: 0x0, symName: '__ZN3syn4item8printing77_$LT$impl$u20$quote..to_tokens..ToTokens$u20$for$u20$syn..item..Signature$GT$9to_tokens17h80d9758f45cc7465E', symObjAddr: 0x25120, symBinAddr: 0xACAE0, symSize: 0x2F0 }
  - { offsetInCU: 0x6F841, offset: 0x3F1CD2, size: 0x8, addend: 0x0, symName: '__ZN3syn4item8printing76_$LT$impl$u20$quote..to_tokens..ToTokens$u20$for$u20$syn..item..Receiver$GT$9to_tokens17hae042ab8321fb7ccE', symObjAddr: 0x25410, symBinAddr: 0xACDD0, symSize: 0x240 }
  - { offsetInCU: 0x6FECB, offset: 0x3F235C, size: 0x8, addend: 0x0, symName: '__ZN62_$LT$syn..item..Item$u20$as$u20$quote..to_tokens..ToTokens$GT$9to_tokens17h6a074416b9441776E', symObjAddr: 0x25650, symBinAddr: 0xAD010, symSize: 0xEB0 }
  - { offsetInCU: 0x72119, offset: 0x3F45AA, size: 0x8, addend: 0x0, symName: '__ZN65_$LT$syn..item..UseTree$u20$as$u20$quote..to_tokens..ToTokens$GT$9to_tokens17h84df66f963ce86feE', symObjAddr: 0x26500, symBinAddr: 0xADEC0, symSize: 0x180 }
  - { offsetInCU: 0x72420, offset: 0x3F48B1, size: 0x8, addend: 0x0, symName: '__ZN69_$LT$syn..item..ForeignItem$u20$as$u20$quote..to_tokens..ToTokens$GT$9to_tokens17hc8d261d43852e694E', symObjAddr: 0x26680, symBinAddr: 0xAE040, symSize: 0x540 }
  - { offsetInCU: 0x73115, offset: 0x3F55A6, size: 0x8, addend: 0x0, symName: '__ZN67_$LT$syn..item..TraitItem$u20$as$u20$quote..to_tokens..ToTokens$GT$9to_tokens17h7c582bb777ff4118E', symObjAddr: 0x26BC0, symBinAddr: 0xAE580, symSize: 0x2E0 }
  - { offsetInCU: 0x73723, offset: 0x3F5BB4, size: 0x8, addend: 0x0, symName: '__ZN66_$LT$syn..item..ImplItem$u20$as$u20$quote..to_tokens..ToTokens$GT$9to_tokens17h77c10b424d72dc62E', symObjAddr: 0x26EA0, symBinAddr: 0xAE860, symSize: 0x1C0 }
  - { offsetInCU: 0x74420, offset: 0x3F68B1, size: 0x8, addend: 0x0, symName: '__ZN3syn3gen5clone65_$LT$impl$u20$core..clone..Clone$u20$for$u20$syn..item..FnArg$GT$5clone17hd2b92dd23546132fE', symObjAddr: 0x272B0, symBinAddr: 0xAEA20, symSize: 0x160 }
  - { offsetInCU: 0x747BF, offset: 0x3F6C50, size: 0x8, addend: 0x0, symName: '__ZN3syn3gen5clone71_$LT$impl$u20$core..clone..Clone$u20$for$u20$syn..item..ForeignItem$GT$5clone17ha2d7760a426c1ed4E', symObjAddr: 0x27410, symBinAddr: 0xAEB80, symSize: 0x1F0 }
  - { offsetInCU: 0x74B31, offset: 0x3F6FC2, size: 0x8, addend: 0x0, symName: '__ZN3syn3gen5clone73_$LT$impl$u20$core..clone..Clone$u20$for$u20$syn..item..ForeignItemFn$GT$5clone17h1aa4278c49c972c0E', symObjAddr: 0x27600, symBinAddr: 0xAED70, symSize: 0xE0 }
  - { offsetInCU: 0x74B95, offset: 0x3F7026, size: 0x8, addend: 0x0, symName: '__ZN3syn3gen5clone77_$LT$impl$u20$core..clone..Clone$u20$for$u20$syn..item..ForeignItemStatic$GT$5clone17hf51f303b80193f6aE', symObjAddr: 0x276E0, symBinAddr: 0xAEE50, symSize: 0x1D0 }
  - { offsetInCU: 0x750A8, offset: 0x3F7539, size: 0x8, addend: 0x0, symName: '__ZN3syn3gen5clone75_$LT$impl$u20$core..clone..Clone$u20$for$u20$syn..item..ForeignItemType$GT$5clone17h24d80924544002ecE', symObjAddr: 0x278B0, symBinAddr: 0xAF020, symSize: 0xF0 }
  - { offsetInCU: 0x7523E, offset: 0x3F76CF, size: 0x8, addend: 0x0, symName: '__ZN3syn3gen5clone68_$LT$impl$u20$core..clone..Clone$u20$for$u20$syn..item..ImplItem$GT$5clone17hca1eab2e893bfc2eE', symObjAddr: 0x279A0, symBinAddr: 0xAF110, symSize: 0x1F0 }
  - { offsetInCU: 0x755B0, offset: 0x3F7A41, size: 0x8, addend: 0x0, symName: '__ZN3syn3gen5clone73_$LT$impl$u20$core..clone..Clone$u20$for$u20$syn..item..ImplItemConst$GT$5clone17h0909fef0d5c96f6bE', symObjAddr: 0x27B90, symBinAddr: 0xAF300, symSize: 0x200 }
  - { offsetInCU: 0x75895, offset: 0x3F7D26, size: 0x8, addend: 0x0, symName: '__ZN3syn3gen5clone74_$LT$impl$u20$core..clone..Clone$u20$for$u20$syn..item..ImplItemMethod$GT$5clone17h3cfbea8f38e392e3E', symObjAddr: 0x27E20, symBinAddr: 0xAF500, symSize: 0x150 }
  - { offsetInCU: 0x75924, offset: 0x3F7DB5, size: 0x8, addend: 0x0, symName: '__ZN3syn3gen5clone72_$LT$impl$u20$core..clone..Clone$u20$for$u20$syn..item..ImplItemType$GT$5clone17ha328e6583542c133E', symObjAddr: 0x27F70, symBinAddr: 0xAF650, symSize: 0x300 }
  - { offsetInCU: 0x75CE9, offset: 0x3F817A, size: 0x8, addend: 0x0, symName: '__ZN3syn3gen5clone64_$LT$impl$u20$core..clone..Clone$u20$for$u20$syn..item..Item$GT$5clone17hc468c9c92dd72accE', symObjAddr: 0x28270, symBinAddr: 0xAF950, symSize: 0x4F0 }
  - { offsetInCU: 0x762A0, offset: 0x3F8731, size: 0x8, addend: 0x0, symName: '__ZN3syn3gen5clone69_$LT$impl$u20$core..clone..Clone$u20$for$u20$syn..item..ItemConst$GT$5clone17h43d65965ba677a56E', symObjAddr: 0x28760, symBinAddr: 0xAFE40, symSize: 0x260 }
  - { offsetInCU: 0x769FB, offset: 0x3F8E8C, size: 0x8, addend: 0x0, symName: '__ZN3syn3gen5clone68_$LT$impl$u20$core..clone..Clone$u20$for$u20$syn..item..ItemEnum$GT$5clone17h92a443df07f013fcE', symObjAddr: 0x289C0, symBinAddr: 0xB00A0, symSize: 0x2E0 }
  - { offsetInCU: 0x76D58, offset: 0x3F91E9, size: 0x8, addend: 0x0, symName: '__ZN3syn3gen5clone75_$LT$impl$u20$core..clone..Clone$u20$for$u20$syn..item..ItemExternCrate$GT$5clone17h17047bc6e64f1a99E', symObjAddr: 0x28CA0, symBinAddr: 0xB0380, symSize: 0x180 }
  - { offsetInCU: 0x770CC, offset: 0x3F955D, size: 0x8, addend: 0x0, symName: '__ZN3syn3gen5clone66_$LT$impl$u20$core..clone..Clone$u20$for$u20$syn..item..ItemFn$GT$5clone17h1d3c487670e96e52E', symObjAddr: 0x28E20, symBinAddr: 0xB0500, symSize: 0x180 }
  - { offsetInCU: 0x773AB, offset: 0x3F983C, size: 0x8, addend: 0x0, symName: '__ZN3syn3gen5clone68_$LT$impl$u20$core..clone..Clone$u20$for$u20$syn..item..ItemImpl$GT$5clone17hf13ded3f3823d2a0E', symObjAddr: 0x29070, symBinAddr: 0xB0680, symSize: 0x400 }
  - { offsetInCU: 0x778C7, offset: 0x3F9D58, size: 0x8, addend: 0x0, symName: '__ZN3syn3gen5clone69_$LT$impl$u20$core..clone..Clone$u20$for$u20$syn..item..ItemMacro$GT$5clone17h456a7ef623787323E', symObjAddr: 0x29470, symBinAddr: 0xB0A80, symSize: 0x100 }
  - { offsetInCU: 0x77B32, offset: 0x3F9FC3, size: 0x8, addend: 0x0, symName: '__ZN3syn3gen5clone70_$LT$impl$u20$core..clone..Clone$u20$for$u20$syn..item..ItemMacro2$GT$5clone17hd4623749539ec3fbE', symObjAddr: 0x29570, symBinAddr: 0xB0B80, symSize: 0x190 }
  - { offsetInCU: 0x77F9F, offset: 0x3FA430, size: 0x8, addend: 0x0, symName: '__ZN3syn3gen5clone67_$LT$impl$u20$core..clone..Clone$u20$for$u20$syn..item..ItemMod$GT$5clone17h8ee308e962dc5fd4E', symObjAddr: 0x29700, symBinAddr: 0xB0D10, symSize: 0x170 }
  - { offsetInCU: 0x78248, offset: 0x3FA6D9, size: 0x8, addend: 0x0, symName: '__ZN3syn3gen5clone70_$LT$impl$u20$core..clone..Clone$u20$for$u20$syn..item..ItemStatic$GT$5clone17h55f4779535d03a6aE', symObjAddr: 0x29870, symBinAddr: 0xB0E80, symSize: 0x280 }
  - { offsetInCU: 0x789CE, offset: 0x3FAE5F, size: 0x8, addend: 0x0, symName: '__ZN3syn3gen5clone70_$LT$impl$u20$core..clone..Clone$u20$for$u20$syn..item..ItemStruct$GT$5clone17h75c4901bcc4a9c41E', symObjAddr: 0x29AF0, symBinAddr: 0xB1100, symSize: 0x340 }
  - { offsetInCU: 0x78DF8, offset: 0x3FB289, size: 0x8, addend: 0x0, symName: '__ZN3syn3gen5clone69_$LT$impl$u20$core..clone..Clone$u20$for$u20$syn..item..ItemTrait$GT$5clone17h39fb4d74cd90a6b3E', symObjAddr: 0x29E30, symBinAddr: 0xB1440, symSize: 0x390 }
  - { offsetInCU: 0x791C5, offset: 0x3FB656, size: 0x8, addend: 0x0, symName: '__ZN3syn3gen5clone74_$LT$impl$u20$core..clone..Clone$u20$for$u20$syn..item..ItemTraitAlias$GT$5clone17h895a9f37c2b1dd2eE', symObjAddr: 0x2A1C0, symBinAddr: 0xB17D0, symSize: 0x2F0 }
  - { offsetInCU: 0x79550, offset: 0x3FB9E1, size: 0x8, addend: 0x0, symName: '__ZN3syn3gen5clone68_$LT$impl$u20$core..clone..Clone$u20$for$u20$syn..item..ItemType$GT$5clone17hca23f7b427cb77d5E', symObjAddr: 0x2A4B0, symBinAddr: 0xB1AC0, symSize: 0x330 }
  - { offsetInCU: 0x79B38, offset: 0x3FBFC9, size: 0x8, addend: 0x0, symName: '__ZN3syn3gen5clone69_$LT$impl$u20$core..clone..Clone$u20$for$u20$syn..item..ItemUnion$GT$5clone17hfe5e3e6409a8daafE', symObjAddr: 0x2A7E0, symBinAddr: 0xB1DF0, symSize: 0x2E0 }
  - { offsetInCU: 0x79E93, offset: 0x3FC324, size: 0x8, addend: 0x0, symName: '__ZN3syn3gen5clone67_$LT$impl$u20$core..clone..Clone$u20$for$u20$syn..item..ItemUse$GT$5clone17h846bdf7bc46ef2e2E', symObjAddr: 0x2AAC0, symBinAddr: 0xB20D0, symSize: 0x110 }
  - { offsetInCU: 0x79F53, offset: 0x3FC3E4, size: 0x8, addend: 0x0, symName: '__ZN3syn3gen5clone69_$LT$impl$u20$core..clone..Clone$u20$for$u20$syn..item..Signature$GT$5clone17h1b9cb8773a9b2598E', symObjAddr: 0x2ACB0, symBinAddr: 0xB21E0, symSize: 0x4D0 }
  - { offsetInCU: 0x7A764, offset: 0x3FCBF5, size: 0x8, addend: 0x0, symName: '__ZN3syn3gen5clone69_$LT$impl$u20$core..clone..Clone$u20$for$u20$syn..item..TraitItem$GT$5clone17h3ee2e61d5bf8f727E', symObjAddr: 0x2B180, symBinAddr: 0xB26B0, symSize: 0x1F0 }
  - { offsetInCU: 0x7AAEE, offset: 0x3FCF7F, size: 0x8, addend: 0x0, symName: '__ZN3syn3gen5clone74_$LT$impl$u20$core..clone..Clone$u20$for$u20$syn..item..TraitItemConst$GT$5clone17h4021fd18a2e713f3E', symObjAddr: 0x2B370, symBinAddr: 0xB28A0, symSize: 0x1E0 }
  - { offsetInCU: 0x7ADDF, offset: 0x3FD270, size: 0x8, addend: 0x0, symName: '__ZN3syn3gen5clone75_$LT$impl$u20$core..clone..Clone$u20$for$u20$syn..item..TraitItemMethod$GT$5clone17hc47d58827cc0ca9eE', symObjAddr: 0x2B550, symBinAddr: 0xB2A80, symSize: 0x120 }
  - { offsetInCU: 0x7AED4, offset: 0x3FD365, size: 0x8, addend: 0x0, symName: '__ZN3syn3gen5clone73_$LT$impl$u20$core..clone..Clone$u20$for$u20$syn..item..TraitItemType$GT$5clone17ha0f0089bf4f5ffccE', symObjAddr: 0x2B670, symBinAddr: 0xB2BA0, symSize: 0x390 }
  - { offsetInCU: 0x7B37F, offset: 0x3FD810, size: 0x8, addend: 0x0, symName: '__ZN3syn3gen5clone67_$LT$impl$u20$core..clone..Clone$u20$for$u20$syn..item..UseTree$GT$5clone17h372b10715657b71cE', symObjAddr: 0x2BCD0, symBinAddr: 0xB2F30, symSize: 0x358 }
  - { offsetInCU: 0x7DA3A, offset: 0x3FFECB, size: 0x8, addend: 0x0, symName: '__ZN4core6result19Result$LT$T$C$E$GT$3map17h02259476edfedfc1E', symObjAddr: 0x8C60, symBinAddr: 0x978C0, symSize: 0xD0 }
  - { offsetInCU: 0x7DBE8, offset: 0x400079, size: 0x8, addend: 0x0, symName: '__ZN4core6result19Result$LT$T$C$E$GT$3map17h0fc6027717260dc0E', symObjAddr: 0x8D30, symBinAddr: 0x97990, symSize: 0xD0 }
  - { offsetInCU: 0x7E1E0, offset: 0x400671, size: 0x8, addend: 0x0, symName: '__ZN5alloc3vec16Vec$LT$T$C$A$GT$6append17haaf8531508cbcdacE', symObjAddr: 0x9000, symBinAddr: 0x97C10, symSize: 0x80 }
  - { offsetInCU: 0x7E481, offset: 0x400912, size: 0x8, addend: 0x0, symName: __ZN3syn4item4Item13replace_attrs17ha6cae67ff9a40b12E, symObjAddr: 0x90D0, symBinAddr: 0x97CD0, symSize: 0x160 }
  - { offsetInCU: 0x1E, offset: 0x4126AD, size: 0x8, addend: 0x0, symName: '__ZN136_$LT$alloc..vec..Vec$LT$T$C$A$GT$$u20$as$u20$alloc..vec..spec_extend..SpecExtend$LT$T$C$alloc..vec..into_iter..IntoIter$LT$T$GT$$GT$$GT$11spec_extend17h744176932ac7ab2dE', symObjAddr: 0x0, symBinAddr: 0xB3290, symSize: 0xB0 }
  - { offsetInCU: 0x2DFE, offset: 0x41548D, size: 0x8, addend: 0x0, symName: '__ZN4core3ptr100drop_in_place$LT$core..option..Option$LT$alloc..boxed..Box$LT$syn..generics..LifetimeDef$GT$$GT$$GT$17h0fb31368c552c835E.llvm.2599103664634677082', symObjAddr: 0x180, symBinAddr: 0xB3340, symSize: 0x50 }
  - { offsetInCU: 0x2F8F, offset: 0x41561E, size: 0x8, addend: 0x0, symName: '__ZN4core3ptr100drop_in_place$LT$core..option..Option$LT$alloc..boxed..Box$LT$syn..path..GenericArgument$GT$$GT$$GT$17h94fb3e089cc53ce6E', symObjAddr: 0x1D0, symBinAddr: 0xB3390, symSize: 0x50 }
  - { offsetInCU: 0x3120, offset: 0x4157AF, size: 0x8, addend: 0x0, symName: '__ZN4core3ptr101drop_in_place$LT$core..option..Option$LT$alloc..boxed..Box$LT$syn..generics..GenericParam$GT$$GT$$GT$17hddd995aa16037695E', symObjAddr: 0x220, symBinAddr: 0xB33E0, symSize: 0x50 }
  - { offsetInCU: 0x330E, offset: 0x41599D, size: 0x8, addend: 0x0, symName: '__ZN4core3ptr102drop_in_place$LT$syn..punctuated..Punctuated$LT$syn..generics..LifetimeDef$C$syn..token..Comma$GT$$GT$17h5b8145fa61e22fe3E.llvm.2599103664634677082', symObjAddr: 0x270, symBinAddr: 0xB3430, symSize: 0xF0 }
  - { offsetInCU: 0x3654, offset: 0x415CE3, size: 0x8, addend: 0x0, symName: '__ZN4core3ptr102drop_in_place$LT$syn..punctuated..Punctuated$LT$syn..path..GenericArgument$C$syn..token..Comma$GT$$GT$17h64f34065726c40a3E.llvm.2599103664634677082', symObjAddr: 0x360, symBinAddr: 0xB3520, symSize: 0xF0 }
  - { offsetInCU: 0x3A54, offset: 0x4160E3, size: 0x8, addend: 0x0, symName: '__ZN4core3ptr103drop_in_place$LT$core..option..Option$LT$alloc..boxed..Box$LT$syn..generics..TypeParamBound$GT$$GT$$GT$17h630691d3d4346209E', symObjAddr: 0x450, symBinAddr: 0xB3610, symSize: 0xA0 }
  - { offsetInCU: 0x3D4A, offset: 0x4163D9, size: 0x8, addend: 0x0, symName: '__ZN4core3ptr103drop_in_place$LT$core..option..Option$LT$alloc..boxed..Box$LT$syn..generics..WherePredicate$GT$$GT$$GT$17h195ffde7a8330f89E', symObjAddr: 0x4F0, symBinAddr: 0xB36B0, symSize: 0x50 }
  - { offsetInCU: 0x3F76, offset: 0x416605, size: 0x8, addend: 0x0, symName: '__ZN4core3ptr103drop_in_place$LT$syn..punctuated..Punctuated$LT$syn..generics..GenericParam$C$syn..token..Comma$GT$$GT$17hb2bb85f0e77d8df9E', symObjAddr: 0x540, symBinAddr: 0xB3700, symSize: 0x1A0 }
  - { offsetInCU: 0x44C9, offset: 0x416B58, size: 0x8, addend: 0x0, symName: '__ZN4core3ptr103drop_in_place$LT$syn..punctuated..Punctuated$LT$syn..generics..TypeParamBound$C$syn..token..Add$GT$$GT$17h517181ada56b9062E.llvm.2599103664634677082', symObjAddr: 0x6E0, symBinAddr: 0xB38A0, symSize: 0x290 }
  - { offsetInCU: 0x50BC, offset: 0x41774B, size: 0x8, addend: 0x0, symName: '__ZN4core3ptr105drop_in_place$LT$syn..punctuated..Punctuated$LT$syn..generics..WherePredicate$C$syn..token..Comma$GT$$GT$17ha5b7410309c7172fE', symObjAddr: 0x970, symBinAddr: 0xB3B30, symSize: 0x190 }
  - { offsetInCU: 0x56EF, offset: 0x417D7E, size: 0x8, addend: 0x0, symName: '__ZN4core3ptr108drop_in_place$LT$syn..punctuated..Punctuated$LT$syn..expr..GenericMethodArgument$C$syn..token..Comma$GT$$GT$17h413f77b0de48dbb7E', symObjAddr: 0xB00, symBinAddr: 0xB3CC0, symSize: 0x160 }
  - { offsetInCU: 0x5B88, offset: 0x418217, size: 0x8, addend: 0x0, symName: '__ZN4core3ptr126drop_in_place$LT$core..option..Option$LT$$LP$syn..token..And$C$core..option..Option$LT$syn..lifetime..Lifetime$GT$$RP$$GT$$GT$17hf44b7a8b485ad914E', symObjAddr: 0xC60, symBinAddr: 0xB3E20, symSize: 0x30 }
  - { offsetInCU: 0x5E18, offset: 0x4184A7, size: 0x8, addend: 0x0, symName: '__ZN4core3ptr33drop_in_place$LT$syn..ty..Abi$GT$17hb6437e811f32e133E', symObjAddr: 0xC90, symBinAddr: 0xB3E50, symSize: 0x60 }
  - { offsetInCU: 0x5E34, offset: 0x4184C3, size: 0x8, addend: 0x0, symName: '__ZN4core3ptr33drop_in_place$LT$syn..ty..Abi$GT$17hb6437e811f32e133E', symObjAddr: 0xC90, symBinAddr: 0xB3E50, symSize: 0x60 }
  - { offsetInCU: 0x612E, offset: 0x4187BD, size: 0x8, addend: 0x0, symName: '__ZN4core3ptr34drop_in_place$LT$syn..lit..Lit$GT$17heb8f235ab74bc4d4E.llvm.2599103664634677082', symObjAddr: 0xCF0, symBinAddr: 0xB3EB0, symSize: 0x110 }
  - { offsetInCU: 0x662A, offset: 0x418CB9, size: 0x8, addend: 0x0, symName: '__ZN4core3ptr34drop_in_place$LT$syn..pat..Pat$GT$17hd6fa3ad4d18570d7E.llvm.2599103664634677082', symObjAddr: 0xE00, symBinAddr: 0xB3FC0, symSize: 0x910 }
  - { offsetInCU: 0x948B, offset: 0x41BB1A, size: 0x8, addend: 0x0, symName: '__ZN4core3ptr34drop_in_place$LT$syn..ty..Type$GT$17hfd9bfeacac76fc9aE.llvm.2599103664634677082', symObjAddr: 0x1710, symBinAddr: 0xB48D0, symSize: 0x360 }
  - { offsetInCU: 0xA0A6, offset: 0x41C735, size: 0x8, addend: 0x0, symName: '__ZN4core3ptr35drop_in_place$LT$syn..expr..Arm$GT$17h7175e6cd7c5f8e3dE.llvm.2599103664634677082', symObjAddr: 0x1A70, symBinAddr: 0xB4C30, symSize: 0x1B0 }
  - { offsetInCU: 0xACFD, offset: 0x41D38C, size: 0x8, addend: 0x0, symName: '__ZN4core3ptr36drop_in_place$LT$syn..expr..Expr$GT$17h6b8a9b85afc75571E.llvm.2599103664634677082', symObjAddr: 0x1C20, symBinAddr: 0xB4DE0, symSize: 0x1DC0 }
  - { offsetInCU: 0x142B4, offset: 0x426943, size: 0x8, addend: 0x0, symName: '__ZN4core3ptr36drop_in_place$LT$syn..item..Item$GT$17haed0da6f7829d8d2E.llvm.2599103664634677082', symObjAddr: 0x39E0, symBinAddr: 0xB6BA0, symSize: 0x1600 }
  - { offsetInCU: 0x1A6C7, offset: 0x42CD56, size: 0x8, addend: 0x0, symName: '__ZN4core3ptr36drop_in_place$LT$syn..mac..Macro$GT$17ha661e027deab4b66E', symObjAddr: 0x4FE0, symBinAddr: 0xB81A0, symSize: 0x40 }
  - { offsetInCU: 0x1A79C, offset: 0x42CE2B, size: 0x8, addend: 0x0, symName: '__ZN4core3ptr36drop_in_place$LT$syn..path..Path$GT$17he4358a51dbdb774bE.llvm.2599103664634677082', symObjAddr: 0x5020, symBinAddr: 0xB81E0, symSize: 0x140 }
  - { offsetInCU: 0x1AD23, offset: 0x42D3B2, size: 0x8, addend: 0x0, symName: '__ZN4core3ptr36drop_in_place$LT$syn..stmt..Stmt$GT$17hdfc91ce6c1514c47E.llvm.2599103664634677082', symObjAddr: 0x5160, symBinAddr: 0xB8320, symSize: 0x140 }
  - { offsetInCU: 0x1B18B, offset: 0x42D81A, size: 0x8, addend: 0x0, symName: '__ZN4core3ptr37drop_in_place$LT$syn..data..Field$GT$17hdbd7b0220783ea3eE.llvm.2599103664634677082', symObjAddr: 0x52A0, symBinAddr: 0xB8460, symSize: 0x1C0 }
  - { offsetInCU: 0x1B766, offset: 0x42DDF5, size: 0x8, addend: 0x0, symName: '__ZN4core3ptr37drop_in_place$LT$syn..item..FnArg$GT$17h2cc574b44d8e55adE.llvm.2599103664634677082', symObjAddr: 0x5460, symBinAddr: 0xB8620, symSize: 0x190 }
  - { offsetInCU: 0x1C0A3, offset: 0x42E732, size: 0x8, addend: 0x0, symName: '__ZN4core3ptr37drop_in_place$LT$syn..stmt..Block$GT$17hfb4d80957646e543E', symObjAddr: 0x55F0, symBinAddr: 0xB87B0, symSize: 0xD0 }
  - { offsetInCU: 0x1C347, offset: 0x42E9D6, size: 0x8, addend: 0x0, symName: '__ZN4core3ptr38drop_in_place$LT$syn..expr..Member$GT$17h3141a26ba2d76dd7E.llvm.2599103664634677082', symObjAddr: 0x56C0, symBinAddr: 0xB8880, symSize: 0x30 }
  - { offsetInCU: 0x1C444, offset: 0x42EAD3, size: 0x8, addend: 0x0, symName: '__ZN4core3ptr38drop_in_place$LT$syn..pat..PatType$GT$17h8c3d1bd2beead914E.llvm.2599103664634677082', symObjAddr: 0x56F0, symBinAddr: 0xB88B0, symSize: 0x170 }
  - { offsetInCU: 0x1C9B3, offset: 0x42F042, size: 0x8, addend: 0x0, symName: '__ZN4core3ptr38drop_in_place$LT$syn..ty..Variadic$GT$17h5942cd561e75a6abE', symObjAddr: 0x5860, symBinAddr: 0xB8A20, symSize: 0xF0 }
  - { offsetInCU: 0x1CC7A, offset: 0x42F309, size: 0x8, addend: 0x0, symName: '__ZN4core3ptr39drop_in_place$LT$proc_macro2..Ident$GT$17hfc382935d884a247E', symObjAddr: 0x5950, symBinAddr: 0xB8B10, symSize: 0x30 }
  - { offsetInCU: 0x1CE8E, offset: 0x42F51D, size: 0x8, addend: 0x0, symName: '__ZN4core3ptr39drop_in_place$LT$syn..buffer..Entry$GT$17h0c28ef8d28b902fcE.llvm.2599103664634677082', symObjAddr: 0x5980, symBinAddr: 0xB8B40, symSize: 0xC0 }
  - { offsetInCU: 0x1D1FF, offset: 0x42F88E, size: 0x8, addend: 0x0, symName: '__ZN4core3ptr39drop_in_place$LT$syn..data..Variant$GT$17hd26a0c0f65be4b43E.llvm.2599103664634677082', symObjAddr: 0x5A40, symBinAddr: 0xB8C00, symSize: 0x330 }
  - { offsetInCU: 0x1DE37, offset: 0x4304C6, size: 0x8, addend: 0x0, symName: '__ZN4core3ptr39drop_in_place$LT$syn..item..UseTree$GT$17h25d9f1648b09fcd7E.llvm.2599103664634677082', symObjAddr: 0x5D70, symBinAddr: 0xB8F30, symSize: 0x1E0 }
  - { offsetInCU: 0x1E5D9, offset: 0x430C68, size: 0x8, addend: 0x0, symName: '__ZN4core3ptr39drop_in_place$LT$syn..pat..PatTuple$GT$17h232e0cbeb905e9d9E', symObjAddr: 0x5F50, symBinAddr: 0xB9110, symSize: 0x200 }
  - { offsetInCU: 0x1EDAE, offset: 0x43143D, size: 0x8, addend: 0x0, symName: '__ZN4core3ptr40drop_in_place$LT$syn..attr..MetaList$GT$17h9ef59638ac2d5b50E.llvm.2599103664634677082', symObjAddr: 0x6150, symBinAddr: 0xB9310, symSize: 0x130 }
  - { offsetInCU: 0x1F1F8, offset: 0x431887, size: 0x8, addend: 0x0, symName: '__ZN4core3ptr40drop_in_place$LT$syn..item..Receiver$GT$17heaf5782384f4b1d4E.llvm.2599103664634677082', symObjAddr: 0x6280, symBinAddr: 0xB9440, symSize: 0x140 }
  - { offsetInCU: 0x1F646, offset: 0x431CD5, size: 0x8, addend: 0x0, symName: '__ZN4core3ptr40drop_in_place$LT$syn..ty..ReturnType$GT$17h42cc52c006e6d7cdE.llvm.2599103664634677082', symObjAddr: 0x63C0, symBinAddr: 0xB9580, symSize: 0x50 }
  - { offsetInCU: 0x1F7B8, offset: 0x431E47, size: 0x8, addend: 0x0, symName: '__ZN4core3ptr41drop_in_place$LT$syn..attr..Attribute$GT$17h519230889df99b21E.llvm.2599103664634677082', symObjAddr: 0x6410, symBinAddr: 0xB95D0, symSize: 0x40 }
  - { offsetInCU: 0x1F928, offset: 0x431FB7, size: 0x8, addend: 0x0, symName: '__ZN4core3ptr41drop_in_place$LT$syn..item..Signature$GT$17h7d7f449a9806c924E', symObjAddr: 0x6450, symBinAddr: 0xB9610, symSize: 0x330 }
  - { offsetInCU: 0x20686, offset: 0x432D15, size: 0x8, addend: 0x0, symName: '__ZN4core3ptr42drop_in_place$LT$syn..attr..NestedMeta$GT$17h1bcab9f5731da99fE.llvm.2599103664634677082', symObjAddr: 0x6780, symBinAddr: 0xB9940, symSize: 0x110 }
  - { offsetInCU: 0x20859, offset: 0x432EE8, size: 0x8, addend: 0x0, symName: '__ZN4core3ptr43drop_in_place$LT$proc_macro2..TokenTree$GT$17h9e74062a3652cd9cE.llvm.2599103664634677082', symObjAddr: 0x6890, symBinAddr: 0xB9A50, symSize: 0xB0 }
  - { offsetInCU: 0x20B6D, offset: 0x4331FC, size: 0x8, addend: 0x0, symName: '__ZN4core3ptr43drop_in_place$LT$syn..data..FieldsNamed$GT$17hd9424b8d746ee929E', symObjAddr: 0x6940, symBinAddr: 0xB9B00, symSize: 0x120 }
  - { offsetInCU: 0x21033, offset: 0x4336C2, size: 0x8, addend: 0x0, symName: '__ZN4core3ptr43drop_in_place$LT$syn..path..PathSegment$GT$17h018f6e269dc7881fE.llvm.2599103664634677082', symObjAddr: 0x6A60, symBinAddr: 0xB9C20, symSize: 0x170 }
  - { offsetInCU: 0x215F6, offset: 0x433C85, size: 0x8, addend: 0x0, symName: '__ZN4core3ptr44drop_in_place$LT$syn..generics..Generics$GT$17hb46e5bc833bfc579E', symObjAddr: 0x6BD0, symBinAddr: 0xB9D90, symSize: 0x220 }
  - { offsetInCU: 0x21E73, offset: 0x434502, size: 0x8, addend: 0x0, symName: '__ZN4core3ptr44drop_in_place$LT$syn..item..ImplItemType$GT$17h46237c66511d6367E', symObjAddr: 0x6DF0, symBinAddr: 0xB9FB0, symSize: 0x200 }
  - { offsetInCU: 0x22471, offset: 0x434B00, size: 0x8, addend: 0x0, symName: '__ZN4core3ptr44drop_in_place$LT$syn..lifetime..Lifetime$GT$17h94c9fe51c9dd60c6E.llvm.2599103664634677082', symObjAddr: 0x6FF0, symBinAddr: 0xBA1B0, symSize: 0x30 }
  - { offsetInCU: 0x225CB, offset: 0x434C5A, size: 0x8, addend: 0x0, symName: '__ZN4core3ptr45drop_in_place$LT$proc_macro2..TokenStream$GT$17h44f5bf9c29d914fbE.llvm.2599103664634677082', symObjAddr: 0x7020, symBinAddr: 0xBA1E0, symSize: 0x70 }
  - { offsetInCU: 0x22700, offset: 0x434D8F, size: 0x8, addend: 0x0, symName: '__ZN4core3ptr45drop_in_place$LT$syn..data..VisRestricted$GT$17h2302f3a1feea36b8E', symObjAddr: 0x7090, symBinAddr: 0xBA250, symSize: 0xA0 }
  - { offsetInCU: 0x22A4C, offset: 0x4350DB, size: 0x8, addend: 0x0, symName: '__ZN4core3ptr45drop_in_place$LT$syn..generics..TypeParam$GT$17hd3acb087586a9773E.llvm.2599103664634677082', symObjAddr: 0x7130, symBinAddr: 0xBA2F0, symSize: 0x220 }
  - { offsetInCU: 0x2325F, offset: 0x4358EE, size: 0x8, addend: 0x0, symName: '__ZN4core3ptr45drop_in_place$LT$syn..item..ImplItemConst$GT$17hd0bf76eb846f4a62E', symObjAddr: 0x7350, symBinAddr: 0xBA510, symSize: 0x1D0 }
  - { offsetInCU: 0x2381A, offset: 0x435EA9, size: 0x8, addend: 0x0, symName: '__ZN4core3ptr45drop_in_place$LT$syn..item..TraitItemType$GT$17hb89be19d5bf51e58E', symObjAddr: 0x7520, symBinAddr: 0xBA6E0, symSize: 0x270 }
  - { offsetInCU: 0x24113, offset: 0x4367A2, size: 0x8, addend: 0x0, symName: '__ZN4core3ptr45drop_in_place$LT$syn..path..PathArguments$GT$17h97e34ae94dc3f5efE.llvm.2599103664634677082', symObjAddr: 0x7790, symBinAddr: 0xBA950, symSize: 0xA0 }
  - { offsetInCU: 0x242E8, offset: 0x436977, size: 0x8, addend: 0x0, symName: '__ZN4core3ptr46drop_in_place$LT$syn..generics..ConstParam$GT$17h819bb1c154e1dd96E.llvm.2599103664634677082', symObjAddr: 0x7830, symBinAddr: 0xBA9F0, symSize: 0x190 }
  - { offsetInCU: 0x246FF, offset: 0x436D8E, size: 0x8, addend: 0x0, symName: '__ZN4core3ptr46drop_in_place$LT$syn..item..ImplItemMethod$GT$17hc7f6e235018e11c9E', symObjAddr: 0x79C0, symBinAddr: 0xBAB80, symSize: 0x240 }
  - { offsetInCU: 0x24E0F, offset: 0x43749E, size: 0x8, addend: 0x0, symName: '__ZN4core3ptr46drop_in_place$LT$syn..item..TraitItemConst$GT$17hcf70fd15ba808f43E', symObjAddr: 0x7C00, symBinAddr: 0xBADC0, symSize: 0x180 }
  - { offsetInCU: 0x2525C, offset: 0x4378EB, size: 0x8, addend: 0x0, symName: '__ZN4core3ptr47drop_in_place$LT$syn..generics..LifetimeDef$GT$17h651f63d4c11a8213E.llvm.2599103664634677082', symObjAddr: 0x7D80, symBinAddr: 0xBAF40, symSize: 0x150 }
  - { offsetInCU: 0x2564D, offset: 0x437CDC, size: 0x8, addend: 0x0, symName: '__ZN4core3ptr47drop_in_place$LT$syn..generics..WhereClause$GT$17h7613c87707159a36E', symObjAddr: 0x7ED0, symBinAddr: 0xBB090, symSize: 0x120 }
  - { offsetInCU: 0x25AD5, offset: 0x438164, size: 0x8, addend: 0x0, symName: '__ZN4core3ptr47drop_in_place$LT$syn..path..GenericArgument$GT$17h53f7c77f182368f5E.llvm.2599103664634677082', symObjAddr: 0x7FF0, symBinAddr: 0xBB1B0, symSize: 0xE0 }
  - { offsetInCU: 0x25E0E, offset: 0x43849D, size: 0x8, addend: 0x0, symName: '__ZN4core3ptr48drop_in_place$LT$syn..generics..GenericParam$GT$17h495fd5d715ffe02dE.llvm.2599103664634677082', symObjAddr: 0x80D0, symBinAddr: 0xBB290, symSize: 0xF0 }
  - { offsetInCU: 0x261BD, offset: 0x43884C, size: 0x8, addend: 0x0, symName: '__ZN4core3ptr49drop_in_place$LT$syn..generics..PredicateType$GT$17h03235bb7d5ef1e94E.llvm.2599103664634677082', symObjAddr: 0x81C0, symBinAddr: 0xBB380, symSize: 0x1E0 }
  - { offsetInCU: 0x269C2, offset: 0x439051, size: 0x8, addend: 0x0, symName: '__ZN4core3ptr49drop_in_place$LT$syn..item..ForeignItemStatic$GT$17h5f62d90ee52c04d7E', symObjAddr: 0x83A0, symBinAddr: 0xBB560, symSize: 0x1D0 }
  - { offsetInCU: 0x27223, offset: 0x4398B2, size: 0x8, addend: 0x0, symName: '__ZN4core3ptr50drop_in_place$LT$$u5b$syn..item..ImplItem$u5d$$GT$17h5700f267b2e0f2b2E.llvm.2599103664634677082', symObjAddr: 0x8570, symBinAddr: 0xBB730, symSize: 0x8F0 }
  - { offsetInCU: 0x2887B, offset: 0x43AF0A, size: 0x8, addend: 0x0, symName: '__ZN4core3ptr50drop_in_place$LT$syn..generics..BoundLifetimes$GT$17hdf3a1914bf6bd627E.llvm.2599103664634677082', symObjAddr: 0x8E60, symBinAddr: 0xBC020, symSize: 0x110 }
  - { offsetInCU: 0x28CC5, offset: 0x43B354, size: 0x8, addend: 0x0, symName: '__ZN4core3ptr50drop_in_place$LT$syn..generics..TypeParamBound$GT$17h6143e12a0db0ceabE.llvm.2599103664634677082', symObjAddr: 0x8F70, symBinAddr: 0xBC130, symSize: 0xD0 }
  - { offsetInCU: 0x28FD6, offset: 0x43B665, size: 0x8, addend: 0x0, symName: '__ZN4core3ptr50drop_in_place$LT$syn..generics..WherePredicate$GT$17h52fd3a5f40aa25a5E.llvm.2599103664634677082', symObjAddr: 0x9040, symBinAddr: 0xBC200, symSize: 0xE0 }
  - { offsetInCU: 0x2916D, offset: 0x43B7FC, size: 0x8, addend: 0x0, symName: '__ZN4core3ptr51drop_in_place$LT$$u5b$syn..attr..Attribute$u5d$$GT$17hb1d09bc92c4aaee4E.llvm.2599103664634677082', symObjAddr: 0x9120, symBinAddr: 0xBC2E0, symSize: 0xE0 }
  - { offsetInCU: 0x29384, offset: 0x43BA13, size: 0x8, addend: 0x0, symName: '__ZN4core3ptr51drop_in_place$LT$$u5b$syn..item..TraitItem$u5d$$GT$17h20cd83f0a307650dE.llvm.2599103664634677082', symObjAddr: 0x9200, symBinAddr: 0xBC3C0, symSize: 0x10A0 }
  - { offsetInCU: 0x2C482, offset: 0x43EB11, size: 0x8, addend: 0x0, symName: '__ZN4core3ptr53drop_in_place$LT$$u5b$syn..item..ForeignItem$u5d$$GT$17h3901ca839cf0ad80E.llvm.2599103664634677082', symObjAddr: 0xA2A0, symBinAddr: 0xBD460, symSize: 0x18A0 }
  - { offsetInCU: 0x31099, offset: 0x443728, size: 0x8, addend: 0x0, symName: '__ZN4core3ptr58drop_in_place$LT$alloc..vec..Vec$LT$syn..expr..Arm$GT$$GT$17hf30588e63e9aa2acE', symObjAddr: 0xBB40, symBinAddr: 0xBED00, symSize: 0xD0 }
  - { offsetInCU: 0x31326, offset: 0x4439B5, size: 0x8, addend: 0x0, symName: '__ZN4core3ptr59drop_in_place$LT$alloc..boxed..Box$LT$syn..pat..Pat$GT$$GT$17h8da5d9585b79befeE.llvm.2599103664634677082', symObjAddr: 0xBC10, symBinAddr: 0xBEDD0, symSize: 0x50 }
  - { offsetInCU: 0x31481, offset: 0x443B10, size: 0x8, addend: 0x0, symName: '__ZN4core3ptr59drop_in_place$LT$alloc..boxed..Box$LT$syn..ty..Type$GT$$GT$17hfdcfc83ffb884feaE.llvm.2599103664634677082', symObjAddr: 0xBC60, symBinAddr: 0xBEE20, symSize: 0x50 }
  - { offsetInCU: 0x315DC, offset: 0x443C6B, size: 0x8, addend: 0x0, symName: '__ZN4core3ptr59drop_in_place$LT$alloc..vec..Vec$LT$syn..item..Item$GT$$GT$17h4cdd6ad49c20c9ffE', symObjAddr: 0xBCB0, symBinAddr: 0xBEE70, symSize: 0xD0 }
  - { offsetInCU: 0x31869, offset: 0x443EF8, size: 0x8, addend: 0x0, symName: '__ZN4core3ptr61drop_in_place$LT$alloc..boxed..Box$LT$syn..expr..Expr$GT$$GT$17hd59f20e4896eb10dE.llvm.2599103664634677082', symObjAddr: 0xBD80, symBinAddr: 0xBEF40, symSize: 0x50 }
  - { offsetInCU: 0x319C4, offset: 0x444053, size: 0x8, addend: 0x0, symName: '__ZN4core3ptr61drop_in_place$LT$alloc..boxed..Box$LT$syn..path..Path$GT$$GT$17haf57820653cf481fE', symObjAddr: 0xBDD0, symBinAddr: 0xBEF90, symSize: 0x50 }
  - { offsetInCU: 0x31B3C, offset: 0x4441CB, size: 0x8, addend: 0x0, symName: '__ZN4core3ptr61drop_in_place$LT$syn..path..ParenthesizedGenericArguments$GT$17h2cb12f9d921fc247E', symObjAddr: 0xBE20, symBinAddr: 0xBEFE0, symSize: 0x170 }
  - { offsetInCU: 0x32103, offset: 0x444792, size: 0x8, addend: 0x0, symName: '__ZN4core3ptr62drop_in_place$LT$alloc..boxed..Box$LT$syn..data..Field$GT$$GT$17h6236c1402f9457f7E', symObjAddr: 0xBF90, symBinAddr: 0xBF150, symSize: 0x50 }
  - { offsetInCU: 0x3227D, offset: 0x44490C, size: 0x8, addend: 0x0, symName: '__ZN4core3ptr62drop_in_place$LT$alloc..boxed..Box$LT$syn..item..FnArg$GT$$GT$17h2b26c04c1b354ebbE', symObjAddr: 0xBFE0, symBinAddr: 0xBF1A0, symSize: 0x60 }
  - { offsetInCU: 0x323F5, offset: 0x444A84, size: 0x8, addend: 0x0, symName: '__ZN4core3ptr62drop_in_place$LT$alloc..boxed..Box$LT$syn..stmt..Block$GT$$GT$17h4a7cc3258b08bc2dE', symObjAddr: 0xC040, symBinAddr: 0xBF200, symSize: 0xE0 }
  - { offsetInCU: 0x32814, offset: 0x444EA3, size: 0x8, addend: 0x0, symName: '__ZN4core3ptr62drop_in_place$LT$alloc..vec..Vec$LT$syn..buffer..Entry$GT$$GT$17h0470c661667b8d43E.llvm.2599103664634677082', symObjAddr: 0xC120, symBinAddr: 0xBF2E0, symSize: 0xC0 }
  - { offsetInCU: 0x32AB4, offset: 0x445143, size: 0x8, addend: 0x0, symName: '__ZN4core3ptr63drop_in_place$LT$alloc..vec..Vec$LT$syn..item..ImplItem$GT$$GT$17hf6d2e0c4b364acacE', symObjAddr: 0xC1E0, symBinAddr: 0xBF3A0, symSize: 0x80 }
  - { offsetInCU: 0x32D32, offset: 0x4453C1, size: 0x8, addend: 0x0, symName: '__ZN4core3ptr64drop_in_place$LT$alloc..boxed..Box$LT$syn..data..Variant$GT$$GT$17hcf859657b4efc96cE', symObjAddr: 0xC260, symBinAddr: 0xBF420, symSize: 0x50 }
  - { offsetInCU: 0x32E8D, offset: 0x44551C, size: 0x8, addend: 0x0, symName: '__ZN4core3ptr64drop_in_place$LT$alloc..boxed..Box$LT$syn..item..UseTree$GT$$GT$17h8781734ad1e82212E', symObjAddr: 0xC2B0, symBinAddr: 0xBF470, symSize: 0x50 }
  - { offsetInCU: 0x33007, offset: 0x445696, size: 0x8, addend: 0x0, symName: '__ZN4core3ptr64drop_in_place$LT$alloc..boxed..Box$LT$syn..pat..FieldPat$GT$$GT$17h4cf97b08e30ccd11E', symObjAddr: 0xC300, symBinAddr: 0xBF4C0, symSize: 0x100 }
  - { offsetInCU: 0x336A3, offset: 0x445D32, size: 0x8, addend: 0x0, symName: '__ZN4core3ptr64drop_in_place$LT$alloc..boxed..Box$LT$syn..ty..BareFnArg$GT$$GT$17h5ed4e7eb5288ceaeE', symObjAddr: 0xC400, symBinAddr: 0xBF5C0, symSize: 0xD0 }
  - { offsetInCU: 0x33BAA, offset: 0x446239, size: 0x8, addend: 0x0, symName: '__ZN4core3ptr64drop_in_place$LT$alloc..vec..Vec$LT$syn..attr..Attribute$GT$$GT$17h00ca1a13bf29cbb7E.llvm.2599103664634677082', symObjAddr: 0xC4D0, symBinAddr: 0xBF690, symSize: 0xF0 }
  - { offsetInCU: 0x33E44, offset: 0x4464D3, size: 0x8, addend: 0x0, symName: '__ZN4core3ptr64drop_in_place$LT$alloc..vec..Vec$LT$syn..item..TraitItem$GT$$GT$17h2add6c0b4fdd403cE', symObjAddr: 0xC5C0, symBinAddr: 0xBF780, symSize: 0x80 }
  - { offsetInCU: 0x340C2, offset: 0x446751, size: 0x8, addend: 0x0, symName: '__ZN4core3ptr65drop_in_place$LT$$LP$syn..item..FnArg$C$syn..token..Comma$RP$$GT$17hacc00297bfa91b11E.llvm.2599103664634677082', symObjAddr: 0xC640, symBinAddr: 0xBF800, symSize: 0x20 }
  - { offsetInCU: 0x340FE, offset: 0x44678D, size: 0x8, addend: 0x0, symName: '__ZN4core3ptr65drop_in_place$LT$alloc..vec..Vec$LT$proc_macro..TokenTree$GT$$GT$17h19a9e5e58817e43cE.llvm.2599103664634677082', symObjAddr: 0xC660, symBinAddr: 0xBF820, symSize: 0x120 }
  - { offsetInCU: 0x3445D, offset: 0x446AEC, size: 0x8, addend: 0x0, symName: '__ZN4core3ptr65drop_in_place$LT$core..option..Option$LT$syn..expr..Label$GT$$GT$17hdfb87f4e56640098E', symObjAddr: 0xC850, symBinAddr: 0xBF940, symSize: 0x30 }
  - { offsetInCU: 0x34598, offset: 0x446C27, size: 0x8, addend: 0x0, symName: '__ZN4core3ptr65drop_in_place$LT$core..option..Option$LT$syn..stmt..Block$GT$$GT$17h1a4507886ab4824bE', symObjAddr: 0xC880, symBinAddr: 0xBF970, symSize: 0xE0 }
  - { offsetInCU: 0x347FD, offset: 0x446E8C, size: 0x8, addend: 0x0, symName: '__ZN4core3ptr66drop_in_place$LT$alloc..vec..Vec$LT$syn..item..ForeignItem$GT$$GT$17h457cbb9d53df1a2fE', symObjAddr: 0xC960, symBinAddr: 0xBFA50, symSize: 0x80 }
  - { offsetInCU: 0x34A7B, offset: 0x44710A, size: 0x8, addend: 0x0, symName: '__ZN4core3ptr67drop_in_place$LT$$LP$syn..pat..FieldPat$C$syn..token..Comma$RP$$GT$17habef17368f68c833E.llvm.2599103664634677082', symObjAddr: 0xC9E0, symBinAddr: 0xBFAD0, symSize: 0xF0 }
  - { offsetInCU: 0x34FA2, offset: 0x447631, size: 0x8, addend: 0x0, symName: '__ZN4core3ptr67drop_in_place$LT$$LP$syn..ty..BareFnArg$C$syn..token..Comma$RP$$GT$17h981847b124c4961cE.llvm.2599103664634677082', symObjAddr: 0xCAD0, symBinAddr: 0xBFBC0, symSize: 0xC0 }
  - { offsetInCU: 0x353A2, offset: 0x447A31, size: 0x8, addend: 0x0, symName: '__ZN4core3ptr67drop_in_place$LT$alloc..boxed..Box$LT$syn..attr..NestedMeta$GT$$GT$17h324edf8b6da6e1ddE.llvm.2599103664634677082', symObjAddr: 0xCB90, symBinAddr: 0xBFC80, symSize: 0x90 }
  - { offsetInCU: 0x3554E, offset: 0x447BDD, size: 0x8, addend: 0x0, symName: '__ZN4core3ptr67drop_in_place$LT$alloc..boxed..Box$LT$syn..expr..FieldValue$GT$$GT$17ha1d27993e02226e2E', symObjAddr: 0xCC20, symBinAddr: 0xBFD10, symSize: 0xF0 }
  - { offsetInCU: 0x35A44, offset: 0x4480D3, size: 0x8, addend: 0x0, symName: '__ZN4core3ptr68drop_in_place$LT$alloc..boxed..Box$LT$syn..path..PathSegment$GT$$GT$17h0310b89ad60fe4d7E.llvm.2599103664634677082', symObjAddr: 0xCD10, symBinAddr: 0xBFE00, symSize: 0x170 }
  - { offsetInCU: 0x360F2, offset: 0x448781, size: 0x8, addend: 0x0, symName: '__ZN4core3ptr70drop_in_place$LT$$LP$syn..attr..NestedMeta$C$syn..token..Comma$RP$$GT$17hd8511ca3b93f0c74E.llvm.2599103664634677082', symObjAddr: 0xCE80, symBinAddr: 0xBFF70, symSize: 0x70 }
  - { offsetInCU: 0x36153, offset: 0x4487E2, size: 0x8, addend: 0x0, symName: '__ZN4core3ptr70drop_in_place$LT$$LP$syn..expr..FieldValue$C$syn..token..Comma$RP$$GT$17h74703243fe19a54aE.llvm.2599103664634677082', symObjAddr: 0xCEF0, symBinAddr: 0xBFFE0, symSize: 0xD0 }
  - { offsetInCU: 0x36523, offset: 0x448BB2, size: 0x8, addend: 0x0, symName: '__ZN4core3ptr72drop_in_place$LT$$LP$syn..path..PathSegment$C$syn..token..Colon2$RP$$GT$17h1644609e6386c7a8E.llvm.2599103664634677082', symObjAddr: 0xCFC0, symBinAddr: 0xC00B0, symSize: 0xC0 }
  - { offsetInCU: 0x367E9, offset: 0x448E78, size: 0x8, addend: 0x0, symName: '__ZN4core3ptr72drop_in_place$LT$alloc..boxed..Box$LT$syn..generics..LifetimeDef$GT$$GT$17hba6e60d5d20da043E.llvm.2599103664634677082', symObjAddr: 0xD080, symBinAddr: 0xC0170, symSize: 0xC0 }
  - { offsetInCU: 0x36CE5, offset: 0x449374, size: 0x8, addend: 0x0, symName: '__ZN4core3ptr72drop_in_place$LT$alloc..boxed..Box$LT$syn..path..GenericArgument$GT$$GT$17h2b3c5c0d616472a1E.llvm.2599103664634677082', symObjAddr: 0xD140, symBinAddr: 0xC0230, symSize: 0x190 }
  - { offsetInCU: 0x37416, offset: 0x449AA5, size: 0x8, addend: 0x0, symName: '__ZN4core3ptr73drop_in_place$LT$alloc..boxed..Box$LT$syn..generics..GenericParam$GT$$GT$17h4a84b6d13eef144eE', symObjAddr: 0xD2D0, symBinAddr: 0xC03C0, symSize: 0x80 }
  - { offsetInCU: 0x3758E, offset: 0x449C1D, size: 0x8, addend: 0x0, symName: '__ZN4core3ptr75drop_in_place$LT$$LP$syn..generics..LifetimeDef$C$syn..token..Comma$RP$$GT$17h50d713f99b596e61E.llvm.2599103664634677082', symObjAddr: 0xD350, symBinAddr: 0xC0440, symSize: 0xB0 }
  - { offsetInCU: 0x37945, offset: 0x449FD4, size: 0x8, addend: 0x0, symName: '__ZN4core3ptr75drop_in_place$LT$$LP$syn..path..GenericArgument$C$syn..token..Comma$RP$$GT$17hdba1c4519bdd0f27E.llvm.2599103664634677082', symObjAddr: 0xD400, symBinAddr: 0xC04F0, symSize: 0x1B0 }
  - { offsetInCU: 0x37F44, offset: 0x44A5D3, size: 0x8, addend: 0x0, symName: '__ZN4core3ptr75drop_in_place$LT$alloc..boxed..Box$LT$syn..generics..TypeParamBound$GT$$GT$17hcf1c09bccd64c785E', symObjAddr: 0xD5B0, symBinAddr: 0xC06A0, symSize: 0x90 }
  - { offsetInCU: 0x38223, offset: 0x44A8B2, size: 0x8, addend: 0x0, symName: '__ZN4core3ptr75drop_in_place$LT$alloc..boxed..Box$LT$syn..generics..WherePredicate$GT$$GT$17hba1cfdadb2219195E', symObjAddr: 0xD640, symBinAddr: 0xC0730, symSize: 0xC0 }
  - { offsetInCU: 0x384C2, offset: 0x44AB51, size: 0x8, addend: 0x0, symName: '__ZN4core3ptr76drop_in_place$LT$$LP$syn..generics..GenericParam$C$syn..token..Comma$RP$$GT$17hdc4900e12be492ddE.llvm.2599103664634677082', symObjAddr: 0xD700, symBinAddr: 0xC07F0, symSize: 0x40 }
  - { offsetInCU: 0x384FE, offset: 0x44AB8D, size: 0x8, addend: 0x0, symName: '__ZN4core3ptr76drop_in_place$LT$$LP$syn..generics..TypeParamBound$C$syn..token..Add$RP$$GT$17h45de9fb7b31fbf37E.llvm.2599103664634677082', symObjAddr: 0xD740, symBinAddr: 0xC0830, symSize: 0x80 }
  - { offsetInCU: 0x3869B, offset: 0x44AD2A, size: 0x8, addend: 0x0, symName: '__ZN4core3ptr78drop_in_place$LT$$LP$syn..generics..WherePredicate$C$syn..token..Comma$RP$$GT$17h5e8fabf78e1e6053E.llvm.2599103664634677082', symObjAddr: 0xD7C0, symBinAddr: 0xC08B0, symSize: 0xA0 }
  - { offsetInCU: 0x3880E, offset: 0x44AE9D, size: 0x8, addend: 0x0, symName: '__ZN4core3ptr78drop_in_place$LT$alloc..boxed..Box$LT$syn..expr..GenericMethodArgument$GT$$GT$17hc5561f5e7586c250E', symObjAddr: 0xD860, symBinAddr: 0xC0950, symSize: 0x60 }
  - { offsetInCU: 0x38986, offset: 0x44B015, size: 0x8, addend: 0x0, symName: '__ZN4core3ptr81drop_in_place$LT$$LP$syn..expr..GenericMethodArgument$C$syn..token..Comma$RP$$GT$17h22342e12b11cf758E.llvm.2599103664634677082', symObjAddr: 0xD940, symBinAddr: 0xC09B0, symSize: 0x20 }
  - { offsetInCU: 0x389C2, offset: 0x44B051, size: 0x8, addend: 0x0, symName: '__ZN4core3ptr86drop_in_place$LT$$LP$syn..token..If$C$alloc..boxed..Box$LT$syn..expr..Expr$GT$$RP$$GT$17he0a5ab9c880bd389E', symObjAddr: 0xD960, symBinAddr: 0xC09D0, symSize: 0x50 }
  - { offsetInCU: 0x38B3C, offset: 0x44B1CB, size: 0x8, addend: 0x0, symName: '__ZN4core3ptr86drop_in_place$LT$$u5b$$LP$syn..generics..TypeParamBound$C$syn..token..Add$RP$$u5d$$GT$17hc911706f6648e2a8E', symObjAddr: 0xD9B0, symBinAddr: 0xC0A20, symSize: 0xD0 }
  - { offsetInCU: 0x38D6C, offset: 0x44B3FB, size: 0x8, addend: 0x0, symName: '__ZN4core3ptr86drop_in_place$LT$syn..punctuated..Punctuated$LT$syn..pat..Pat$C$syn..token..Or$GT$$GT$17h13896407bc2c03e4E', symObjAddr: 0xDA80, symBinAddr: 0xC0AF0, symSize: 0x120 }
  - { offsetInCU: 0x391C9, offset: 0x44B858, size: 0x8, addend: 0x0, symName: '__ZN4core3ptr87drop_in_place$LT$core..option..Option$LT$alloc..boxed..Box$LT$syn..pat..Pat$GT$$GT$$GT$17h5bd93a2021c10f20E', symObjAddr: 0xDBA0, symBinAddr: 0xC0C10, symSize: 0x50 }
  - { offsetInCU: 0x3933B, offset: 0x44B9CA, size: 0x8, addend: 0x0, symName: '__ZN4core3ptr87drop_in_place$LT$core..option..Option$LT$alloc..boxed..Box$LT$syn..ty..Type$GT$$GT$$GT$17h6936d17ab80112d1E', symObjAddr: 0xDBF0, symBinAddr: 0xC0C60, symSize: 0x50 }
  - { offsetInCU: 0x394AD, offset: 0x44BB3C, size: 0x8, addend: 0x0, symName: '__ZN4core3ptr89drop_in_place$LT$core..option..Option$LT$alloc..boxed..Box$LT$syn..expr..Expr$GT$$GT$$GT$17h9285f9bb32cfe7feE', symObjAddr: 0xDC40, symBinAddr: 0xC0CB0, symSize: 0x50 }
  - { offsetInCU: 0x3961F, offset: 0x44BCAE, size: 0x8, addend: 0x0, symName: '__ZN4core3ptr89drop_in_place$LT$syn..punctuated..Punctuated$LT$syn..ty..Type$C$syn..token..Comma$GT$$GT$17h97ea2b625b494840E.llvm.2599103664634677082', symObjAddr: 0xDC90, symBinAddr: 0xC0D00, symSize: 0x120 }
  - { offsetInCU: 0x39A69, offset: 0x44C0F8, size: 0x8, addend: 0x0, symName: '__ZN4core3ptr90drop_in_place$LT$core..option..Option$LT$alloc..boxed..Box$LT$syn..data..Field$GT$$GT$$GT$17hc50e2375b7e440f8E', symObjAddr: 0xDDB0, symBinAddr: 0xC0E20, symSize: 0x50 }
  - { offsetInCU: 0x39BDB, offset: 0x44C26A, size: 0x8, addend: 0x0, symName: '__ZN4core3ptr90drop_in_place$LT$core..option..Option$LT$alloc..boxed..Box$LT$syn..item..FnArg$GT$$GT$$GT$17hbba5815768eb1c40E', symObjAddr: 0xDE00, symBinAddr: 0xC0E70, symSize: 0x50 }
  - { offsetInCU: 0x39DC9, offset: 0x44C458, size: 0x8, addend: 0x0, symName: '__ZN4core3ptr91drop_in_place$LT$syn..punctuated..Punctuated$LT$syn..expr..Expr$C$syn..token..Comma$GT$$GT$17h89eb145173101a03E', symObjAddr: 0xDE50, symBinAddr: 0xC0EC0, symSize: 0x120 }
  - { offsetInCU: 0x3A226, offset: 0x44C8B5, size: 0x8, addend: 0x0, symName: '__ZN4core3ptr92drop_in_place$LT$core..option..Option$LT$$LP$syn..token..As$C$proc_macro2..Ident$RP$$GT$$GT$17h885c969d0e42c9dcE', symObjAddr: 0xDF70, symBinAddr: 0xC0FE0, symSize: 0x30 }
  - { offsetInCU: 0x3A342, offset: 0x44C9D1, size: 0x8, addend: 0x0, symName: '__ZN4core3ptr92drop_in_place$LT$syn..punctuated..Punctuated$LT$syn..data..Field$C$syn..token..Comma$GT$$GT$17h06dd862f8e9aabb5E', symObjAddr: 0xDFA0, symBinAddr: 0xC1010, symSize: 0x120 }
  - { offsetInCU: 0x3A78C, offset: 0x44CE1B, size: 0x8, addend: 0x0, symName: '__ZN4core3ptr92drop_in_place$LT$syn..punctuated..Punctuated$LT$syn..item..FnArg$C$syn..token..Comma$GT$$GT$17h75f0f2c68c193b1eE', symObjAddr: 0xE0C0, symBinAddr: 0xC1130, symSize: 0x150 }
  - { offsetInCU: 0x3ABE7, offset: 0x44D276, size: 0x8, addend: 0x0, symName: '__ZN4core3ptr93drop_in_place$LT$alloc..vec..Vec$LT$$LP$syn..attr..NestedMeta$C$syn..token..Comma$RP$$GT$$GT$17he114de8f4a52aab1E.llvm.2599103664634677082', symObjAddr: 0xE210, symBinAddr: 0xC1280, symSize: 0xC0 }
  - { offsetInCU: 0x3AF62, offset: 0x44D5F1, size: 0x8, addend: 0x0, symName: '__ZN4core3ptr94drop_in_place$LT$syn..punctuated..Punctuated$LT$syn..data..Variant$C$syn..token..Comma$GT$$GT$17h444850e5fc0890a9E', symObjAddr: 0xE2D0, symBinAddr: 0xC1340, symSize: 0x120 }
  - { offsetInCU: 0x3B43B, offset: 0x44DACA, size: 0x8, addend: 0x0, symName: '__ZN4core3ptr94drop_in_place$LT$syn..punctuated..Punctuated$LT$syn..pat..FieldPat$C$syn..token..Comma$GT$$GT$17hdbbfc15c48c312e3E', symObjAddr: 0xE3F0, symBinAddr: 0xC1460, symSize: 0xF0 }
  - { offsetInCU: 0x3B794, offset: 0x44DE23, size: 0x8, addend: 0x0, symName: '__ZN4core3ptr94drop_in_place$LT$syn..punctuated..Punctuated$LT$syn..ty..BareFnArg$C$syn..token..Comma$GT$$GT$17h4e6d5a703b32a850E', symObjAddr: 0xE4E0, symBinAddr: 0xC1550, symSize: 0xF0 }
  - { offsetInCU: 0x3BA71, offset: 0x44E100, size: 0x8, addend: 0x0, symName: '__ZN4core3ptr95drop_in_place$LT$alloc..vec..Vec$LT$$LP$syn..path..PathSegment$C$syn..token..Colon2$RP$$GT$$GT$17h8a20be56ff255edbE.llvm.2599103664634677082', symObjAddr: 0xE5D0, symBinAddr: 0xC1640, symSize: 0xF0 }
  - { offsetInCU: 0x3BE12, offset: 0x44E4A1, size: 0x8, addend: 0x0, symName: '__ZN4core3ptr95drop_in_place$LT$core..option..Option$LT$$LP$proc_macro2..Ident$C$syn..token..Colon$RP$$GT$$GT$17h554f9e23e9e60ecbE.llvm.2599103664634677082', symObjAddr: 0xE6C0, symBinAddr: 0xC1730, symSize: 0x30 }
  - { offsetInCU: 0x3BF2E, offset: 0x44E5BD, size: 0x8, addend: 0x0, symName: '__ZN4core3ptr95drop_in_place$LT$core..option..Option$LT$alloc..boxed..Box$LT$syn..attr..NestedMeta$GT$$GT$$GT$17h0e0778ec67abe8daE.llvm.2599103664634677082', symObjAddr: 0xE6F0, symBinAddr: 0xC1760, symSize: 0x50 }
  - { offsetInCU: 0x3C0A0, offset: 0x44E72F, size: 0x8, addend: 0x0, symName: '__ZN4core3ptr96drop_in_place$LT$core..option..Option$LT$alloc..boxed..Box$LT$syn..path..PathSegment$GT$$GT$$GT$17he2148fc749fa4ba5E.llvm.2599103664634677082', symObjAddr: 0xE740, symBinAddr: 0xC17B0, symSize: 0x50 }
  - { offsetInCU: 0x3C212, offset: 0x44E8A1, size: 0x8, addend: 0x0, symName: '__ZN4core3ptr97drop_in_place$LT$syn..punctuated..Punctuated$LT$syn..attr..NestedMeta$C$syn..token..Comma$GT$$GT$17h9b1dcac83a9b8878E.llvm.2599103664634677082', symObjAddr: 0xE790, symBinAddr: 0xC1800, symSize: 0x150 }
  - { offsetInCU: 0x3C5A1, offset: 0x44EC30, size: 0x8, addend: 0x0, symName: '__ZN4core3ptr97drop_in_place$LT$syn..punctuated..Punctuated$LT$syn..expr..FieldValue$C$syn..token..Comma$GT$$GT$17h32c10a095b2e74c7E', symObjAddr: 0xE8E0, symBinAddr: 0xC1950, symSize: 0xF0 }
  - { offsetInCU: 0x3C938, offset: 0x44EFC7, size: 0x8, addend: 0x0, symName: '__ZN4core3ptr97drop_in_place$LT$syn..punctuated..Punctuated$LT$syn..lifetime..Lifetime$C$syn..token..Add$GT$$GT$17h75f9c8a38e93dfefE.llvm.2599103664634677082', symObjAddr: 0xE9D0, symBinAddr: 0xC1A40, symSize: 0xC0 }
  - { offsetInCU: 0x3CDAE, offset: 0x44F43D, size: 0x8, addend: 0x0, symName: '__ZN4core3ptr99drop_in_place$LT$syn..punctuated..Punctuated$LT$syn..path..PathSegment$C$syn..token..Colon2$GT$$GT$17hdafb3e0018003811E.llvm.2599103664634677082', symObjAddr: 0xEA90, symBinAddr: 0xC1B00, symSize: 0xF0 }
  - { offsetInCU: 0x4650F, offset: 0x458B9E, size: 0x8, addend: 0x0, symName: '__ZN136_$LT$alloc..vec..Vec$LT$T$C$A$GT$$u20$as$u20$alloc..vec..spec_extend..SpecExtend$LT$T$C$alloc..vec..into_iter..IntoIter$LT$T$GT$$GT$$GT$11spec_extend17h744176932ac7ab2dE', symObjAddr: 0x0, symBinAddr: 0xB3290, symSize: 0xB0 }
  - { offsetInCU: 0x46814, offset: 0x458EA3, size: 0x8, addend: 0x0, symName: '__ZN97_$LT$alloc..vec..Vec$LT$T$C$A$GT$$u20$as$u20$alloc..vec..spec_extend..SpecExtend$LT$T$C$I$GT$$GT$11spec_extend17ha252f579d02dccfbE', symObjAddr: 0x13B00, symBinAddr: 0xC5600, symSize: 0x110 }
  - { offsetInCU: 0x46C70, offset: 0x4592FF, size: 0x8, addend: 0x0, symName: '__ZN97_$LT$alloc..vec..Vec$LT$T$C$A$GT$$u20$as$u20$alloc..vec..spec_extend..SpecExtend$LT$T$C$I$GT$$GT$11spec_extend17hee3b113322bdb286E', symObjAddr: 0x13D60, symBinAddr: 0xC5710, symSize: 0x670 }
  - { offsetInCU: 0x48852, offset: 0x45AEE1, size: 0x8, addend: 0x0, symName: '__ZN70_$LT$alloc..vec..Vec$LT$T$C$A$GT$$u20$as$u20$core..ops..drop..Drop$GT$4drop17h06d870278c53fce8E', symObjAddr: 0x12840, symBinAddr: 0xC5160, symSize: 0xD0 }
  - { offsetInCU: 0x48A1F, offset: 0x45B0AE, size: 0x8, addend: 0x0, symName: '__ZN70_$LT$alloc..vec..Vec$LT$T$C$A$GT$$u20$as$u20$core..ops..drop..Drop$GT$4drop17h090466e0a50930d9E', symObjAddr: 0x12910, symBinAddr: 0xC5230, symSize: 0x80 }
  - { offsetInCU: 0x48AA9, offset: 0x45B138, size: 0x8, addend: 0x0, symName: '__ZN70_$LT$alloc..vec..Vec$LT$T$C$A$GT$$u20$as$u20$core..ops..drop..Drop$GT$4drop17h3a276f7c3a69b09fE', symObjAddr: 0x12BB0, symBinAddr: 0xC52B0, symSize: 0x80 }
  - { offsetInCU: 0x48B67, offset: 0x45B1F6, size: 0x8, addend: 0x0, symName: '__ZN70_$LT$alloc..vec..Vec$LT$T$C$A$GT$$u20$as$u20$core..ops..drop..Drop$GT$4drop17h4923973a3661059dE', symObjAddr: 0x12D20, symBinAddr: 0xC5330, symSize: 0x90 }
  - { offsetInCU: 0x48C14, offset: 0x45B2A3, size: 0x8, addend: 0x0, symName: '__ZN70_$LT$alloc..vec..Vec$LT$T$C$A$GT$$u20$as$u20$core..ops..drop..Drop$GT$4drop17h738f262ec02dcae7E', symObjAddr: 0x12FB0, symBinAddr: 0xC53C0, symSize: 0xB0 }
  - { offsetInCU: 0x48C76, offset: 0x45B305, size: 0x8, addend: 0x0, symName: '__ZN70_$LT$alloc..vec..Vec$LT$T$C$A$GT$$u20$as$u20$core..ops..drop..Drop$GT$4drop17ha15009fc761187d2E', symObjAddr: 0x13210, symBinAddr: 0xC5470, symSize: 0x80 }
  - { offsetInCU: 0x48D34, offset: 0x45B3C3, size: 0x8, addend: 0x0, symName: '__ZN70_$LT$alloc..vec..Vec$LT$T$C$A$GT$$u20$as$u20$core..ops..drop..Drop$GT$4drop17hd45ee127d32509c5E', symObjAddr: 0x134C0, symBinAddr: 0xC54F0, symSize: 0x80 }
  - { offsetInCU: 0x48DBE, offset: 0x45B44D, size: 0x8, addend: 0x0, symName: '__ZN70_$LT$alloc..vec..Vec$LT$T$C$A$GT$$u20$as$u20$core..ops..drop..Drop$GT$4drop17hf5eaaa46406412f8E', symObjAddr: 0x136D0, symBinAddr: 0xC5570, symSize: 0x90 }
  - { offsetInCU: 0x49675, offset: 0x45BD04, size: 0x8, addend: 0x0, symName: '__ZN65_$LT$alloc..vec..Vec$LT$T$C$A$GT$$u20$as$u20$core..fmt..Debug$GT$3fmt17h0eb7188b67d55045E', symObjAddr: 0xEEA0, symBinAddr: 0xC1C80, symSize: 0x80 }
  - { offsetInCU: 0x49878, offset: 0x45BF07, size: 0x8, addend: 0x0, symName: '__ZN65_$LT$alloc..vec..Vec$LT$T$C$A$GT$$u20$as$u20$core..fmt..Debug$GT$3fmt17h575cd4df82388c58E', symObjAddr: 0xEF20, symBinAddr: 0xC1D00, symSize: 0x80 }
  - { offsetInCU: 0x49A61, offset: 0x45C0F0, size: 0x8, addend: 0x0, symName: '__ZN67_$LT$alloc..vec..Vec$LT$T$C$A$GT$$u20$as$u20$core..clone..Clone$GT$5clone17h035437e68013bc05E', symObjAddr: 0xEFA0, symBinAddr: 0xC1D80, symSize: 0x190 }
  - { offsetInCU: 0x4A03B, offset: 0x45C6CA, size: 0x8, addend: 0x0, symName: '__ZN67_$LT$alloc..vec..Vec$LT$T$C$A$GT$$u20$as$u20$core..clone..Clone$GT$5clone17h092cf5c46985625dE', symObjAddr: 0xF130, symBinAddr: 0xC1F10, symSize: 0x160 }
  - { offsetInCU: 0x4A568, offset: 0x45CBF7, size: 0x8, addend: 0x0, symName: '__ZN67_$LT$alloc..vec..Vec$LT$T$C$A$GT$$u20$as$u20$core..clone..Clone$GT$5clone17h101fd783e587ba95E', symObjAddr: 0xF290, symBinAddr: 0xC2070, symSize: 0x1A0 }
  - { offsetInCU: 0x4AA9A, offset: 0x45D129, size: 0x8, addend: 0x0, symName: '__ZN67_$LT$alloc..vec..Vec$LT$T$C$A$GT$$u20$as$u20$core..clone..Clone$GT$5clone17h11b49851e5e404daE', symObjAddr: 0xF430, symBinAddr: 0xC2210, symSize: 0x1A0 }
  - { offsetInCU: 0x4B075, offset: 0x45D704, size: 0x8, addend: 0x0, symName: '__ZN67_$LT$alloc..vec..Vec$LT$T$C$A$GT$$u20$as$u20$core..clone..Clone$GT$5clone17h1600d3c7dacbc70eE', symObjAddr: 0xF5D0, symBinAddr: 0xC23B0, symSize: 0x3A0 }
  - { offsetInCU: 0x4B66C, offset: 0x45DCFB, size: 0x8, addend: 0x0, symName: '__ZN67_$LT$alloc..vec..Vec$LT$T$C$A$GT$$u20$as$u20$core..clone..Clone$GT$5clone17h1a3e976588ece395E', symObjAddr: 0xF970, symBinAddr: 0xC2750, symSize: 0x1A0 }
  - { offsetInCU: 0x4BC47, offset: 0x45E2D6, size: 0x8, addend: 0x0, symName: '__ZN67_$LT$alloc..vec..Vec$LT$T$C$A$GT$$u20$as$u20$core..clone..Clone$GT$5clone17h1d3d6292a68a363fE', symObjAddr: 0xFB10, symBinAddr: 0xC28F0, symSize: 0x390 }
  - { offsetInCU: 0x4C81E, offset: 0x45EEAD, size: 0x8, addend: 0x0, symName: '__ZN67_$LT$alloc..vec..Vec$LT$T$C$A$GT$$u20$as$u20$core..clone..Clone$GT$5clone17h1e759367406d839bE', symObjAddr: 0xFEA0, symBinAddr: 0xC2C80, symSize: 0x160 }
  - { offsetInCU: 0x4CD4B, offset: 0x45F3DA, size: 0x8, addend: 0x0, symName: '__ZN67_$LT$alloc..vec..Vec$LT$T$C$A$GT$$u20$as$u20$core..clone..Clone$GT$5clone17h24410e03a578c3bbE', symObjAddr: 0x10000, symBinAddr: 0xC2DE0, symSize: 0x2A0 }
  - { offsetInCU: 0x4D37F, offset: 0x45FA0E, size: 0x8, addend: 0x0, symName: '__ZN67_$LT$alloc..vec..Vec$LT$T$C$A$GT$$u20$as$u20$core..clone..Clone$GT$5clone17h2522820114b4d62aE', symObjAddr: 0x102A0, symBinAddr: 0xC3080, symSize: 0x1B0 }
  - { offsetInCU: 0x4D95A, offset: 0x45FFE9, size: 0x8, addend: 0x0, symName: '__ZN67_$LT$alloc..vec..Vec$LT$T$C$A$GT$$u20$as$u20$core..clone..Clone$GT$5clone17h2edf3ffdac8fa2aeE', symObjAddr: 0x10450, symBinAddr: 0xC3230, symSize: 0x1A0 }
  - { offsetInCU: 0x4DE8C, offset: 0x46051B, size: 0x8, addend: 0x0, symName: '__ZN67_$LT$alloc..vec..Vec$LT$T$C$A$GT$$u20$as$u20$core..clone..Clone$GT$5clone17h327b972b11ad4c95E', symObjAddr: 0x105F0, symBinAddr: 0xC33D0, symSize: 0x1B0 }
  - { offsetInCU: 0x4E467, offset: 0x460AF6, size: 0x8, addend: 0x0, symName: '__ZN67_$LT$alloc..vec..Vec$LT$T$C$A$GT$$u20$as$u20$core..clone..Clone$GT$5clone17h33fafbcc20e16079E', symObjAddr: 0x107A0, symBinAddr: 0xC3580, symSize: 0x1B0 }
  - { offsetInCU: 0x4EA3E, offset: 0x4610CD, size: 0x8, addend: 0x0, symName: '__ZN67_$LT$alloc..vec..Vec$LT$T$C$A$GT$$u20$as$u20$core..clone..Clone$GT$5clone17h3baf63e5fe73bc9eE', symObjAddr: 0x10950, symBinAddr: 0xC3730, symSize: 0x190 }
  - { offsetInCU: 0x4EFE4, offset: 0x461673, size: 0x8, addend: 0x0, symName: '__ZN67_$LT$alloc..vec..Vec$LT$T$C$A$GT$$u20$as$u20$core..clone..Clone$GT$5clone17h3d3022bd391f2310E', symObjAddr: 0x10AE0, symBinAddr: 0xC38C0, symSize: 0x240 }
  - { offsetInCU: 0x4F673, offset: 0x461D02, size: 0x8, addend: 0x0, symName: '__ZN67_$LT$alloc..vec..Vec$LT$T$C$A$GT$$u20$as$u20$core..clone..Clone$GT$5clone17h3f1ee708ed83b91dE', symObjAddr: 0x10D20, symBinAddr: 0xC3B00, symSize: 0x190 }
  - { offsetInCU: 0x4FC4D, offset: 0x4622DC, size: 0x8, addend: 0x0, symName: '__ZN67_$LT$alloc..vec..Vec$LT$T$C$A$GT$$u20$as$u20$core..clone..Clone$GT$5clone17h5e1ecd29887228c5E', symObjAddr: 0x10EB0, symBinAddr: 0xC3C90, symSize: 0x1A0 }
  - { offsetInCU: 0x501F4, offset: 0x462883, size: 0x8, addend: 0x0, symName: '__ZN67_$LT$alloc..vec..Vec$LT$T$C$A$GT$$u20$as$u20$core..clone..Clone$GT$5clone17h618c445f23f9df9bE', symObjAddr: 0x11050, symBinAddr: 0xC3E30, symSize: 0x140 }
  - { offsetInCU: 0x50608, offset: 0x462C97, size: 0x8, addend: 0x0, symName: '__ZN67_$LT$alloc..vec..Vec$LT$T$C$A$GT$$u20$as$u20$core..clone..Clone$GT$5clone17h7809121732fb3310E', symObjAddr: 0x11190, symBinAddr: 0xC3F70, symSize: 0x290 }
  - { offsetInCU: 0x50C20, offset: 0x4632AF, size: 0x8, addend: 0x0, symName: '__ZN67_$LT$alloc..vec..Vec$LT$T$C$A$GT$$u20$as$u20$core..clone..Clone$GT$5clone17h81f972b972fcbd4cE', symObjAddr: 0x11420, symBinAddr: 0xC4200, symSize: 0x190 }
  - { offsetInCU: 0x511FA, offset: 0x463889, size: 0x8, addend: 0x0, symName: '__ZN67_$LT$alloc..vec..Vec$LT$T$C$A$GT$$u20$as$u20$core..clone..Clone$GT$5clone17h840f04911a0b532bE', symObjAddr: 0x115B0, symBinAddr: 0xC4390, symSize: 0x160 }
  - { offsetInCU: 0x51727, offset: 0x463DB6, size: 0x8, addend: 0x0, symName: '__ZN67_$LT$alloc..vec..Vec$LT$T$C$A$GT$$u20$as$u20$core..clone..Clone$GT$5clone17h86de94eb193960afE', symObjAddr: 0x11710, symBinAddr: 0xC44F0, symSize: 0x1A0 }
  - { offsetInCU: 0x51D02, offset: 0x464391, size: 0x8, addend: 0x0, symName: '__ZN67_$LT$alloc..vec..Vec$LT$T$C$A$GT$$u20$as$u20$core..clone..Clone$GT$5clone17h930d421db75391a6E', symObjAddr: 0x118B0, symBinAddr: 0xC4690, symSize: 0x1A0 }
  - { offsetInCU: 0x522DD, offset: 0x46496C, size: 0x8, addend: 0x0, symName: '__ZN67_$LT$alloc..vec..Vec$LT$T$C$A$GT$$u20$as$u20$core..clone..Clone$GT$5clone17h99ffdf9fea23431dE', symObjAddr: 0x11A50, symBinAddr: 0xC4830, symSize: 0x2B0 }
  - { offsetInCU: 0x5299F, offset: 0x46502E, size: 0x8, addend: 0x0, symName: '__ZN67_$LT$alloc..vec..Vec$LT$T$C$A$GT$$u20$as$u20$core..clone..Clone$GT$5clone17ha5ce2b1e9a4feaf7E', symObjAddr: 0x11D00, symBinAddr: 0xC4AE0, symSize: 0x1A0 }
  - { offsetInCU: 0x53036, offset: 0x4656C5, size: 0x8, addend: 0x0, symName: '__ZN67_$LT$alloc..vec..Vec$LT$T$C$A$GT$$u20$as$u20$core..clone..Clone$GT$5clone17hb81e9697ab5d138bE', symObjAddr: 0x12010, symBinAddr: 0xC4C80, symSize: 0x1A0 }
  - { offsetInCU: 0x53611, offset: 0x465CA0, size: 0x8, addend: 0x0, symName: '__ZN67_$LT$alloc..vec..Vec$LT$T$C$A$GT$$u20$as$u20$core..clone..Clone$GT$5clone17hd6c08c4828687e22E', symObjAddr: 0x121B0, symBinAddr: 0xC4E20, symSize: 0x1A0 }
  - { offsetInCU: 0x53BEC, offset: 0x46627B, size: 0x8, addend: 0x0, symName: '__ZN67_$LT$alloc..vec..Vec$LT$T$C$A$GT$$u20$as$u20$core..clone..Clone$GT$5clone17heefd1247b4411b2aE', symObjAddr: 0x12350, symBinAddr: 0xC4FC0, symSize: 0x1A0 }
  - { offsetInCU: 0x60629, offset: 0x472CB8, size: 0x8, addend: 0x0, symName: '__ZN5alloc3vec16Vec$LT$T$C$A$GT$16into_boxed_slice17hbfe0cd4d74aa4787E', symObjAddr: 0xEC30, symBinAddr: 0xC1BF0, symSize: 0x90 }
  - { offsetInCU: 0x1E, offset: 0x47CEE5, size: 0x8, addend: 0x0, symName: __ZN5alloc7raw_vec11finish_grow17hc84e259d9c3b21d2E.llvm.1877532185194718104, symObjAddr: 0x0, symBinAddr: 0xC5D80, symSize: 0xA0 }
  - { offsetInCU: 0x67E8, offset: 0x4836AF, size: 0x8, addend: 0x0, symName: __ZN5alloc7raw_vec11finish_grow17hc84e259d9c3b21d2E.llvm.1877532185194718104, symObjAddr: 0x0, symBinAddr: 0xC5D80, symSize: 0xA0 }
  - { offsetInCU: 0x88CC, offset: 0x485793, size: 0x8, addend: 0x0, symName: '__ZN5alloc7raw_vec19RawVec$LT$T$C$A$GT$7reserve21do_reserve_and_handle17h3032152fdd812248E', symObjAddr: 0x2130, symBinAddr: 0x21DB30, symSize: 0x0 }
  - { offsetInCU: 0x8C1E, offset: 0x485AE5, size: 0x8, addend: 0x0, symName: '__ZN5alloc7raw_vec19RawVec$LT$T$C$A$GT$7reserve21do_reserve_and_handle17h4d006586915b0038E', symObjAddr: 0x22C0, symBinAddr: 0x21DC00, symSize: 0xC0 }
  - { offsetInCU: 0x8F70, offset: 0x485E37, size: 0x8, addend: 0x0, symName: '__ZN5alloc7raw_vec19RawVec$LT$T$C$A$GT$7reserve21do_reserve_and_handle17ha45f3b490820041aE', symObjAddr: 0x2380, symBinAddr: 0x21DCC0, symSize: 0xB0 }
  - { offsetInCU: 0x92A8, offset: 0x48616F, size: 0x8, addend: 0x0, symName: '__ZN5alloc7raw_vec19RawVec$LT$T$C$A$GT$7reserve21do_reserve_and_handle17he5384f0eedecab1cE', symObjAddr: 0x2430, symBinAddr: 0x21DD70, symSize: 0xC0 }
  - { offsetInCU: 0x9601, offset: 0x4864C8, size: 0x8, addend: 0x0, symName: '__ZN77_$LT$alloc..raw_vec..RawVec$LT$T$C$A$GT$$u20$as$u20$core..ops..drop..Drop$GT$4drop17h037e720d6550cba5E', symObjAddr: 0x25C0, symBinAddr: 0xC70B0, symSize: 0x30 }
  - { offsetInCU: 0x96FE, offset: 0x4865C5, size: 0x8, addend: 0x0, symName: '__ZN77_$LT$alloc..raw_vec..RawVec$LT$T$C$A$GT$$u20$as$u20$core..ops..drop..Drop$GT$4drop17h037edb2f6af7a9ceE', symObjAddr: 0x25F0, symBinAddr: 0xC70E0, symSize: 0x30 }
  - { offsetInCU: 0x97FB, offset: 0x4866C2, size: 0x8, addend: 0x0, symName: '__ZN77_$LT$alloc..raw_vec..RawVec$LT$T$C$A$GT$$u20$as$u20$core..ops..drop..Drop$GT$4drop17h0e3c72a3b686750dE', symObjAddr: 0x2620, symBinAddr: 0xC7110, symSize: 0x0 }
  - { offsetInCU: 0x98F8, offset: 0x4867BF, size: 0x8, addend: 0x0, symName: '__ZN77_$LT$alloc..raw_vec..RawVec$LT$T$C$A$GT$$u20$as$u20$core..ops..drop..Drop$GT$4drop17h2c01fed76e82dd66E', symObjAddr: 0x2650, symBinAddr: 0xC7140, symSize: 0x0 }
  - { offsetInCU: 0x99F5, offset: 0x4868BC, size: 0x8, addend: 0x0, symName: '__ZN77_$LT$alloc..raw_vec..RawVec$LT$T$C$A$GT$$u20$as$u20$core..ops..drop..Drop$GT$4drop17h44e7a6e9e5e0123aE', symObjAddr: 0x2680, symBinAddr: 0xC7170, symSize: 0x0 }
  - { offsetInCU: 0x9AF2, offset: 0x4869B9, size: 0x8, addend: 0x0, symName: '__ZN77_$LT$alloc..raw_vec..RawVec$LT$T$C$A$GT$$u20$as$u20$core..ops..drop..Drop$GT$4drop17h475ff3127d2fd28bE', symObjAddr: 0x26B0, symBinAddr: 0xC71A0, symSize: 0x30 }
  - { offsetInCU: 0x9BEF, offset: 0x486AB6, size: 0x8, addend: 0x0, symName: '__ZN77_$LT$alloc..raw_vec..RawVec$LT$T$C$A$GT$$u20$as$u20$core..ops..drop..Drop$GT$4drop17h48dda448926a1653E', symObjAddr: 0x26E0, symBinAddr: 0xC71D0, symSize: 0x0 }
  - { offsetInCU: 0x9CEC, offset: 0x486BB3, size: 0x8, addend: 0x0, symName: '__ZN77_$LT$alloc..raw_vec..RawVec$LT$T$C$A$GT$$u20$as$u20$core..ops..drop..Drop$GT$4drop17h5537c8566feebcb9E', symObjAddr: 0x2710, symBinAddr: 0xC7200, symSize: 0x30 }
  - { offsetInCU: 0x9DE9, offset: 0x486CB0, size: 0x8, addend: 0x0, symName: '__ZN77_$LT$alloc..raw_vec..RawVec$LT$T$C$A$GT$$u20$as$u20$core..ops..drop..Drop$GT$4drop17h57fcaf5b1db7fda5E', symObjAddr: 0x2740, symBinAddr: 0xC7230, symSize: 0x0 }
  - { offsetInCU: 0x9EE6, offset: 0x486DAD, size: 0x8, addend: 0x0, symName: '__ZN77_$LT$alloc..raw_vec..RawVec$LT$T$C$A$GT$$u20$as$u20$core..ops..drop..Drop$GT$4drop17h61f8a0dbe0cf8801E', symObjAddr: 0x27A0, symBinAddr: 0xC7260, symSize: 0x30 }
  - { offsetInCU: 0x9FE3, offset: 0x486EAA, size: 0x8, addend: 0x0, symName: '__ZN77_$LT$alloc..raw_vec..RawVec$LT$T$C$A$GT$$u20$as$u20$core..ops..drop..Drop$GT$4drop17h66c5a8083c20d7b8E', symObjAddr: 0x27D0, symBinAddr: 0xC7290, symSize: 0x0 }
  - { offsetInCU: 0xA0E0, offset: 0x486FA7, size: 0x8, addend: 0x0, symName: '__ZN77_$LT$alloc..raw_vec..RawVec$LT$T$C$A$GT$$u20$as$u20$core..ops..drop..Drop$GT$4drop17h6fef7fc11418c3d6E', symObjAddr: 0x2800, symBinAddr: 0xC72C0, symSize: 0x30 }
  - { offsetInCU: 0xA1DD, offset: 0x4870A4, size: 0x8, addend: 0x0, symName: '__ZN77_$LT$alloc..raw_vec..RawVec$LT$T$C$A$GT$$u20$as$u20$core..ops..drop..Drop$GT$4drop17h9e15064d87e8c7baE', symObjAddr: 0x28E0, symBinAddr: 0xC72F0, symSize: 0x30 }
  - { offsetInCU: 0xA2DA, offset: 0x4871A1, size: 0x8, addend: 0x0, symName: '__ZN77_$LT$alloc..raw_vec..RawVec$LT$T$C$A$GT$$u20$as$u20$core..ops..drop..Drop$GT$4drop17ha6dcca4b618e55f6E', symObjAddr: 0x2940, symBinAddr: 0xC7320, symSize: 0x30 }
  - { offsetInCU: 0xA3D7, offset: 0x48729E, size: 0x8, addend: 0x0, symName: '__ZN77_$LT$alloc..raw_vec..RawVec$LT$T$C$A$GT$$u20$as$u20$core..ops..drop..Drop$GT$4drop17hb62412f4b5ad66ceE', symObjAddr: 0x29A0, symBinAddr: 0xC7350, symSize: 0x30 }
  - { offsetInCU: 0xA4D4, offset: 0x48739B, size: 0x8, addend: 0x0, symName: '__ZN77_$LT$alloc..raw_vec..RawVec$LT$T$C$A$GT$$u20$as$u20$core..ops..drop..Drop$GT$4drop17hb657b1419ae00cfeE', symObjAddr: 0x29D0, symBinAddr: 0xC7380, symSize: 0x0 }
  - { offsetInCU: 0xA5D1, offset: 0x487498, size: 0x8, addend: 0x0, symName: '__ZN77_$LT$alloc..raw_vec..RawVec$LT$T$C$A$GT$$u20$as$u20$core..ops..drop..Drop$GT$4drop17hc4ef8d960f8e610bE', symObjAddr: 0x2A00, symBinAddr: 0xC73B0, symSize: 0x30 }
  - { offsetInCU: 0xA6CE, offset: 0x487595, size: 0x8, addend: 0x0, symName: '__ZN77_$LT$alloc..raw_vec..RawVec$LT$T$C$A$GT$$u20$as$u20$core..ops..drop..Drop$GT$4drop17hcaef966a21ea4b89E', symObjAddr: 0x2A30, symBinAddr: 0xC73E0, symSize: 0x30 }
  - { offsetInCU: 0xA7CB, offset: 0x487692, size: 0x8, addend: 0x0, symName: '__ZN77_$LT$alloc..raw_vec..RawVec$LT$T$C$A$GT$$u20$as$u20$core..ops..drop..Drop$GT$4drop17hcc0c69260b242c92E', symObjAddr: 0x2A60, symBinAddr: 0xC7410, symSize: 0x30 }
  - { offsetInCU: 0xA8C8, offset: 0x48778F, size: 0x8, addend: 0x0, symName: '__ZN77_$LT$alloc..raw_vec..RawVec$LT$T$C$A$GT$$u20$as$u20$core..ops..drop..Drop$GT$4drop17hfa5e1cb27682854dE', symObjAddr: 0x2A90, symBinAddr: 0xC7440, symSize: 0x24 }
  - { offsetInCU: 0x102F0, offset: 0x48D1B7, size: 0x8, addend: 0x0, symName: '__ZN5alloc7raw_vec19RawVec$LT$T$C$A$GT$11allocate_in17hda1de3ef21323298E', symObjAddr: 0xAF0, symBinAddr: 0xC5E20, symSize: 0x70 }
  - { offsetInCU: 0x10685, offset: 0x48D54C, size: 0x8, addend: 0x0, symName: '__ZN5alloc7raw_vec19RawVec$LT$T$C$A$GT$16reserve_for_push17h0aaaf28b6d25ae4bE', symObjAddr: 0xD60, symBinAddr: 0xC5E90, symSize: 0x0 }
  - { offsetInCU: 0x10B4A, offset: 0x48DA11, size: 0x8, addend: 0x0, symName: '__ZN5alloc7raw_vec19RawVec$LT$T$C$A$GT$16reserve_for_push17h0e58159a50b21f7dE', symObjAddr: 0xE30, symBinAddr: 0xC5F60, symSize: 0x0 }
  - { offsetInCU: 0x1100F, offset: 0x48DED6, size: 0x8, addend: 0x0, symName: '__ZN5alloc7raw_vec19RawVec$LT$T$C$A$GT$16reserve_for_push17h1992a09cfbb88ff5E', symObjAddr: 0xF00, symBinAddr: 0xC6030, symSize: 0x0 }
  - { offsetInCU: 0x114D3, offset: 0x48E39A, size: 0x8, addend: 0x0, symName: '__ZN5alloc7raw_vec19RawVec$LT$T$C$A$GT$16reserve_for_push17h1ea042c129c74178E', symObjAddr: 0xFD0, symBinAddr: 0xC6100, symSize: 0xD0 }
  - { offsetInCU: 0x11997, offset: 0x48E85E, size: 0x8, addend: 0x0, symName: '__ZN5alloc7raw_vec19RawVec$LT$T$C$A$GT$16reserve_for_push17h31c6a1026336e726E', symObjAddr: 0x10A0, symBinAddr: 0xC61D0, symSize: 0xD0 }
  - { offsetInCU: 0x11E70, offset: 0x48ED37, size: 0x8, addend: 0x0, symName: '__ZN5alloc7raw_vec19RawVec$LT$T$C$A$GT$16reserve_for_push17h3efd4b9ba7dd36cfE', symObjAddr: 0x1170, symBinAddr: 0xC62A0, symSize: 0x0 }
  - { offsetInCU: 0x12334, offset: 0x48F1FB, size: 0x8, addend: 0x0, symName: '__ZN5alloc7raw_vec19RawVec$LT$T$C$A$GT$16reserve_for_push17h411cd94e849e5275E', symObjAddr: 0x1230, symBinAddr: 0xC6360, symSize: 0xD0 }
  - { offsetInCU: 0x127F8, offset: 0x48F6BF, size: 0x8, addend: 0x0, symName: '__ZN5alloc7raw_vec19RawVec$LT$T$C$A$GT$16reserve_for_push17h4f163092935e1aeaE', symObjAddr: 0x1300, symBinAddr: 0xC6430, symSize: 0xD0 }
  - { offsetInCU: 0x12CBD, offset: 0x48FB84, size: 0x8, addend: 0x0, symName: '__ZN5alloc7raw_vec19RawVec$LT$T$C$A$GT$16reserve_for_push17h583d177332b5b671E', symObjAddr: 0x13D0, symBinAddr: 0xC6500, symSize: 0xD0 }
  - { offsetInCU: 0x13182, offset: 0x490049, size: 0x8, addend: 0x0, symName: '__ZN5alloc7raw_vec19RawVec$LT$T$C$A$GT$16reserve_for_push17h72ed8c7accc58bbbE', symObjAddr: 0x14A0, symBinAddr: 0xC65D0, symSize: 0xD0 }
  - { offsetInCU: 0x13647, offset: 0x49050E, size: 0x8, addend: 0x0, symName: '__ZN5alloc7raw_vec19RawVec$LT$T$C$A$GT$16reserve_for_push17h739caa5559aea624E', symObjAddr: 0x1570, symBinAddr: 0xC66A0, symSize: 0xC0 }
  - { offsetInCU: 0x13B0B, offset: 0x4909D2, size: 0x8, addend: 0x0, symName: '__ZN5alloc7raw_vec19RawVec$LT$T$C$A$GT$16reserve_for_push17h87c4f060bcc02765E', symObjAddr: 0x1630, symBinAddr: 0xC6760, symSize: 0xD0 }
  - { offsetInCU: 0x13FD0, offset: 0x490E97, size: 0x8, addend: 0x0, symName: '__ZN5alloc7raw_vec19RawVec$LT$T$C$A$GT$16reserve_for_push17h8b899c1e696f17ffE', symObjAddr: 0x1700, symBinAddr: 0xC6830, symSize: 0xC0 }
  - { offsetInCU: 0x14494, offset: 0x49135B, size: 0x8, addend: 0x0, symName: '__ZN5alloc7raw_vec19RawVec$LT$T$C$A$GT$16reserve_for_push17h8e80bedeffc73a4aE', symObjAddr: 0x17C0, symBinAddr: 0xC68F0, symSize: 0x0 }
  - { offsetInCU: 0x14983, offset: 0x49184A, size: 0x8, addend: 0x0, symName: '__ZN5alloc7raw_vec19RawVec$LT$T$C$A$GT$16reserve_for_push17h9a77950d1d6f0ee0E', symObjAddr: 0x1880, symBinAddr: 0xC69B0, symSize: 0xC0 }
  - { offsetInCU: 0x14E47, offset: 0x491D0E, size: 0x8, addend: 0x0, symName: '__ZN5alloc7raw_vec19RawVec$LT$T$C$A$GT$16reserve_for_push17h9bf9d8f33ed0c3beE', symObjAddr: 0x1940, symBinAddr: 0xC6A70, symSize: 0xD0 }
  - { offsetInCU: 0x1530C, offset: 0x4921D3, size: 0x8, addend: 0x0, symName: '__ZN5alloc7raw_vec19RawVec$LT$T$C$A$GT$16reserve_for_push17ha788625f0c6fdad0E', symObjAddr: 0x1A10, symBinAddr: 0xC6B40, symSize: 0xD0 }
  - { offsetInCU: 0x157D1, offset: 0x492698, size: 0x8, addend: 0x0, symName: '__ZN5alloc7raw_vec19RawVec$LT$T$C$A$GT$16reserve_for_push17haee2b7484e6d75f9E', symObjAddr: 0x1AE0, symBinAddr: 0xC6C10, symSize: 0xC0 }
  - { offsetInCU: 0x15C95, offset: 0x492B5C, size: 0x8, addend: 0x0, symName: '__ZN5alloc7raw_vec19RawVec$LT$T$C$A$GT$16reserve_for_push17hd153bfa8ab3f15efE', symObjAddr: 0x1BA0, symBinAddr: 0xC6CD0, symSize: 0x0 }
  - { offsetInCU: 0x1615A, offset: 0x493021, size: 0x8, addend: 0x0, symName: '__ZN5alloc7raw_vec19RawVec$LT$T$C$A$GT$16reserve_for_push17hdd2d896d4f49095cE', symObjAddr: 0x1C70, symBinAddr: 0xC6DA0, symSize: 0xB0 }
  - { offsetInCU: 0x16604, offset: 0x4934CB, size: 0x8, addend: 0x0, symName: '__ZN5alloc7raw_vec19RawVec$LT$T$C$A$GT$16reserve_for_push17hf16ecf2298836350E', symObjAddr: 0x1D20, symBinAddr: 0xC6E50, symSize: 0xC0 }
  - { offsetInCU: 0x16AC9, offset: 0x493990, size: 0x8, addend: 0x0, symName: '__ZN5alloc7raw_vec19RawVec$LT$T$C$A$GT$16reserve_for_push17hf61e7d03fc833fc3E', symObjAddr: 0x1DE0, symBinAddr: 0xC6F10, symSize: 0xD0 }
  - { offsetInCU: 0x16F8E, offset: 0x493E55, size: 0x8, addend: 0x0, symName: '__ZN5alloc7raw_vec19RawVec$LT$T$C$A$GT$16reserve_for_push17hfe5685a3a24ed984E', symObjAddr: 0x1EB0, symBinAddr: 0xC6FE0, symSize: 0xD0 }
  - { offsetInCU: 0x1E, offset: 0x49479B, size: 0x8, addend: 0x0, symName: '__ZN4core3ptr100drop_in_place$LT$core..option..Option$LT$alloc..boxed..Box$LT$syn..generics..LifetimeDef$GT$$GT$$GT$17h0fb31368c552c835E', symObjAddr: 0x0, symBinAddr: 0xC7470, symSize: 0xF0 }
  - { offsetInCU: 0xB0, offset: 0x49482D, size: 0x8, addend: 0x0, symName: '__ZN58_$LT$alloc..string..String$u20$as$u20$core..fmt..Write$GT$10write_char17hd329c0cb943f081aE', symObjAddr: 0x5530, symBinAddr: 0xCC9A0, symSize: 0x130 }
  - { offsetInCU: 0x457, offset: 0x494BD4, size: 0x8, addend: 0x0, symName: '__ZN58_$LT$alloc..string..String$u20$as$u20$core..fmt..Write$GT$9write_str17h1ff5aa96ca91c6d5E', symObjAddr: 0x5660, symBinAddr: 0xCCAD0, symSize: 0x60 }
  - { offsetInCU: 0x38B3, offset: 0x498030, size: 0x8, addend: 0x0, symName: '__ZN4core3ptr100drop_in_place$LT$core..option..Option$LT$alloc..boxed..Box$LT$syn..generics..LifetimeDef$GT$$GT$$GT$17h0fb31368c552c835E', symObjAddr: 0x0, symBinAddr: 0xC7470, symSize: 0xF0 }
  - { offsetInCU: 0x3E4A, offset: 0x4985C7, size: 0x8, addend: 0x0, symName: '__ZN4core3ptr100drop_in_place$LT$core..option..Option$LT$alloc..boxed..Box$LT$syn..path..GenericArgument$GT$$GT$$GT$17h94fb3e089cc53ce6E', symObjAddr: 0xF0, symBinAddr: 0xC7560, symSize: 0x50 }
  - { offsetInCU: 0x40F2, offset: 0x49886F, size: 0x8, addend: 0x0, symName: '__ZN4core3ptr103drop_in_place$LT$syn..punctuated..Punctuated$LT$syn..generics..TypeParamBound$C$syn..token..Add$GT$$GT$17h517181ada56b9062E', symObjAddr: 0x140, symBinAddr: 0xC75B0, symSize: 0x1B0 }
  - { offsetInCU: 0x48FC, offset: 0x499079, size: 0x8, addend: 0x0, symName: '__ZN4core3ptr108drop_in_place$LT$syn..punctuated..Punctuated$LT$syn..expr..GenericMethodArgument$C$syn..token..Comma$GT$$GT$17h413f77b0de48dbb7E', symObjAddr: 0x2F0, symBinAddr: 0xC7760, symSize: 0x160 }
  - { offsetInCU: 0x4E11, offset: 0x49958E, size: 0x8, addend: 0x0, symName: '__ZN4core3ptr34drop_in_place$LT$syn..lit..Lit$GT$17heb8f235ab74bc4d4E', symObjAddr: 0x450, symBinAddr: 0xC78C0, symSize: 0x110 }
  - { offsetInCU: 0x52EE, offset: 0x499A6B, size: 0x8, addend: 0x0, symName: '__ZN4core3ptr34drop_in_place$LT$syn..pat..Pat$GT$17hd6fa3ad4d18570d7E', symObjAddr: 0x560, symBinAddr: 0xC79D0, symSize: 0x9F0 }
  - { offsetInCU: 0x7D67, offset: 0x49C4E4, size: 0x8, addend: 0x0, symName: '__ZN4core3ptr34drop_in_place$LT$syn..ty..Type$GT$17hfd9bfeacac76fc9aE', symObjAddr: 0xF50, symBinAddr: 0xC83C0, symSize: 0x5A0 }
  - { offsetInCU: 0x9795, offset: 0x49DF12, size: 0x8, addend: 0x0, symName: '__ZN4core3ptr36drop_in_place$LT$syn..expr..Expr$GT$17h6b8a9b85afc75571E.llvm.11705735475055906517', symObjAddr: 0x14F0, symBinAddr: 0xC8960, symSize: 0x1C70 }
  - { offsetInCU: 0x10F15, offset: 0x4A5692, size: 0x8, addend: 0x0, symName: '__ZN4core3ptr36drop_in_place$LT$syn..mac..Macro$GT$17ha661e027deab4b66E', symObjAddr: 0x3160, symBinAddr: 0xCA5D0, symSize: 0xE0 }
  - { offsetInCU: 0x11302, offset: 0x4A5A7F, size: 0x8, addend: 0x0, symName: '__ZN4core3ptr36drop_in_place$LT$syn..path..Path$GT$17he4358a51dbdb774bE', symObjAddr: 0x3240, symBinAddr: 0xCA6B0, symSize: 0x230 }
  - { offsetInCU: 0x11C37, offset: 0x4A63B4, size: 0x8, addend: 0x0, symName: '__ZN4core3ptr37drop_in_place$LT$core..fmt..Error$GT$17h953b815847ed35afE', symObjAddr: 0x3470, symBinAddr: 0xCA8E0, symSize: 0x10 }
  - { offsetInCU: 0x11C63, offset: 0x4A63E0, size: 0x8, addend: 0x0, symName: '__ZN4core3ptr37drop_in_place$LT$syn..stmt..Block$GT$17hfb4d80957646e543E', symObjAddr: 0x3480, symBinAddr: 0xCA8F0, symSize: 0xD0 }
  - { offsetInCU: 0x11F07, offset: 0x4A6684, size: 0x8, addend: 0x0, symName: '__ZN4core3ptr38drop_in_place$LT$syn..expr..Member$GT$17h3141a26ba2d76dd7E', symObjAddr: 0x3550, symBinAddr: 0xCA9C0, symSize: 0x30 }
  - { offsetInCU: 0x1209F, offset: 0x4A681C, size: 0x8, addend: 0x0, symName: '__ZN4core3ptr38drop_in_place$LT$syn..group..Group$GT$17h88ee06a66262517eE', symObjAddr: 0x3580, symBinAddr: 0xCA9F0, symSize: 0x70 }
  - { offsetInCU: 0x123B5, offset: 0x4A6B32, size: 0x8, addend: 0x0, symName: '__ZN4core3ptr39drop_in_place$LT$proc_macro2..Ident$GT$17hfc382935d884a247E', symObjAddr: 0x35F0, symBinAddr: 0xCAA60, symSize: 0x30 }
  - { offsetInCU: 0x124D1, offset: 0x4A6C4E, size: 0x8, addend: 0x0, symName: '__ZN4core3ptr39drop_in_place$LT$syn..lit..LitFloat$GT$17hf8dd53f27bd399b5E', symObjAddr: 0x3620, symBinAddr: 0xCAA90, symSize: 0x70 }
  - { offsetInCU: 0x12851, offset: 0x4A6FCE, size: 0x8, addend: 0x0, symName: '__ZN4core3ptr39drop_in_place$LT$syn..pat..PatTuple$GT$17h232e0cbeb905e9d9E', symObjAddr: 0x3690, symBinAddr: 0xCAB00, symSize: 0x80 }
  - { offsetInCU: 0x12A59, offset: 0x4A71D6, size: 0x8, addend: 0x0, symName: '__ZN4core3ptr40drop_in_place$LT$syn..ty..ReturnType$GT$17h42cc52c006e6d7cdE', symObjAddr: 0x3710, symBinAddr: 0xCAB80, symSize: 0x50 }
  - { offsetInCU: 0x12BCB, offset: 0x4A7348, size: 0x8, addend: 0x0, symName: '__ZN4core3ptr41drop_in_place$LT$syn..attr..Attribute$GT$17h519230889df99b21E', symObjAddr: 0x3760, symBinAddr: 0xCABD0, symSize: 0x40 }
  - { offsetInCU: 0x12BE8, offset: 0x4A7365, size: 0x8, addend: 0x0, symName: '__ZN4core3ptr42drop_in_place$LT$alloc..string..String$GT$17hd527bee3e7586c29E', symObjAddr: 0x37A0, symBinAddr: 0xCAC10, symSize: 0x20 }
  - { offsetInCU: 0x12D8C, offset: 0x4A7509, size: 0x8, addend: 0x0, symName: '__ZN4core3ptr42drop_in_place$LT$syn..expr..ExprStruct$GT$17h0b4a44b5a8aa6aebE', symObjAddr: 0x37C0, symBinAddr: 0xCAC30, symSize: 0x290 }
  - { offsetInCU: 0x137D8, offset: 0x4A7F55, size: 0x8, addend: 0x0, symName: '__ZN4core3ptr42drop_in_place$LT$syn..expr..FieldValue$GT$17hacce232733994ed0E', symObjAddr: 0x3A50, symBinAddr: 0xCAEC0, symSize: 0xD0 }
  - { offsetInCU: 0x13B5E, offset: 0x4A82DB, size: 0x8, addend: 0x0, symName: '__ZN4core3ptr43drop_in_place$LT$syn..expr..ExprClosure$GT$17h1e3611e6a3b3354aE', symObjAddr: 0x3B20, symBinAddr: 0xCAF90, symSize: 0x200 }
  - { offsetInCU: 0x14487, offset: 0x4A8C04, size: 0x8, addend: 0x0, symName: '__ZN4core3ptr44drop_in_place$LT$syn..parse..ParseBuffer$GT$17h1603f155a5d07e6dE', symObjAddr: 0x3D20, symBinAddr: 0xCB190, symSize: 0x70 }
  - { offsetInCU: 0x148BC, offset: 0x4A9039, size: 0x8, addend: 0x0, symName: '__ZN4core3ptr45drop_in_place$LT$proc_macro2..TokenStream$GT$17h44f5bf9c29d914fbE', symObjAddr: 0x3D90, symBinAddr: 0xCB200, symSize: 0x140 }
  - { offsetInCU: 0x14D2C, offset: 0x4A94A9, size: 0x8, addend: 0x0, symName: '__ZN4core3ptr47drop_in_place$LT$syn..path..GenericArgument$GT$17h53f7c77f182368f5E', symObjAddr: 0x3ED0, symBinAddr: 0xCB340, symSize: 0xE0 }
  - { offsetInCU: 0x150B6, offset: 0x4A9833, size: 0x8, addend: 0x0, symName: '__ZN4core3ptr50drop_in_place$LT$syn..generics..BoundLifetimes$GT$17hdf3a1914bf6bd627E', symObjAddr: 0x3FB0, symBinAddr: 0xCB420, symSize: 0xC0 }
  - { offsetInCU: 0x15371, offset: 0x4A9AEE, size: 0x8, addend: 0x0, symName: '__ZN4core3ptr58drop_in_place$LT$alloc..vec..Vec$LT$syn..expr..Arm$GT$$GT$17hf30588e63e9aa2acE', symObjAddr: 0x4070, symBinAddr: 0xCB4E0, symSize: 0xD0 }
  - { offsetInCU: 0x155FE, offset: 0x4A9D7B, size: 0x8, addend: 0x0, symName: '__ZN4core3ptr59drop_in_place$LT$alloc..boxed..Box$LT$syn..pat..Pat$GT$$GT$17h8da5d9585b79befeE', symObjAddr: 0x4140, symBinAddr: 0xCB5B0, symSize: 0x50 }
  - { offsetInCU: 0x15759, offset: 0x4A9ED6, size: 0x8, addend: 0x0, symName: '__ZN4core3ptr59drop_in_place$LT$alloc..boxed..Box$LT$syn..ty..Type$GT$$GT$17hfdcfc83ffb884feaE', symObjAddr: 0x4190, symBinAddr: 0xCB600, symSize: 0x50 }
  - { offsetInCU: 0x158B4, offset: 0x4AA031, size: 0x8, addend: 0x0, symName: '__ZN4core3ptr61drop_in_place$LT$alloc..boxed..Box$LT$syn..expr..Expr$GT$$GT$17hd59f20e4896eb10dE', symObjAddr: 0x41E0, symBinAddr: 0xCB650, symSize: 0x50 }
  - { offsetInCU: 0x15A0F, offset: 0x4AA18C, size: 0x8, addend: 0x0, symName: '__ZN4core3ptr61drop_in_place$LT$syn..path..ParenthesizedGenericArguments$GT$17h2cb12f9d921fc247E', symObjAddr: 0x4230, symBinAddr: 0xCB6A0, symSize: 0x170 }
  - { offsetInCU: 0x15FEA, offset: 0x4AA767, size: 0x8, addend: 0x0, symName: '__ZN4core3ptr63drop_in_place$LT$alloc..boxed..Box$LT$syn..lit..LitRepr$GT$$GT$17ha0c79af03c778e78E', symObjAddr: 0x43A0, symBinAddr: 0xCB810, symSize: 0x60 }
  - { offsetInCU: 0x162DF, offset: 0x4AAA5C, size: 0x8, addend: 0x0, symName: '__ZN4core3ptr64drop_in_place$LT$alloc..boxed..Box$LT$syn..pat..FieldPat$GT$$GT$17h4cf97b08e30ccd11E', symObjAddr: 0x4400, symBinAddr: 0xCB870, symSize: 0x100 }
  - { offsetInCU: 0x168FA, offset: 0x4AB077, size: 0x8, addend: 0x0, symName: '__ZN4core3ptr64drop_in_place$LT$alloc..boxed..Box$LT$syn..ty..BareFnArg$GT$$GT$17h5ed4e7eb5288ceaeE', symObjAddr: 0x4500, symBinAddr: 0xCB970, symSize: 0xE0 }
  - { offsetInCU: 0x16D80, offset: 0x4AB4FD, size: 0x8, addend: 0x0, symName: '__ZN4core3ptr64drop_in_place$LT$alloc..vec..Vec$LT$syn..attr..Attribute$GT$$GT$17h00ca1a13bf29cbb7E.llvm.11705735475055906517', symObjAddr: 0x45E0, symBinAddr: 0xCBA50, symSize: 0x60 }
  - { offsetInCU: 0x16F75, offset: 0x4AB6F2, size: 0x8, addend: 0x0, symName: '__ZN4core3ptr65drop_in_place$LT$core..option..Option$LT$syn..expr..Label$GT$$GT$17hdfb87f4e56640098E', symObjAddr: 0x4640, symBinAddr: 0xCBAB0, symSize: 0x30 }
  - { offsetInCU: 0x170B0, offset: 0x4AB82D, size: 0x8, addend: 0x0, symName: '__ZN4core3ptr65drop_in_place$LT$core..option..Option$LT$syn..path..QSelf$GT$$GT$17h1f0245c1a4935233E', symObjAddr: 0x4670, symBinAddr: 0xCBAE0, symSize: 0x50 }
  - { offsetInCU: 0x17233, offset: 0x4AB9B0, size: 0x8, addend: 0x0, symName: '__ZN4core3ptr66drop_in_place$LT$core..option..Option$LT$syn..ty..Variadic$GT$$GT$17h027f0e707b91e4beE', symObjAddr: 0x46C0, symBinAddr: 0xCBB30, symSize: 0x80 }
  - { offsetInCU: 0x17489, offset: 0x4ABC06, size: 0x8, addend: 0x0, symName: '__ZN4core3ptr67drop_in_place$LT$alloc..boxed..Box$LT$syn..expr..FieldValue$GT$$GT$17ha1d27993e02226e2E', symObjAddr: 0x4740, symBinAddr: 0xCBBB0, symSize: 0xF0 }
  - { offsetInCU: 0x178E8, offset: 0x4AC065, size: 0x8, addend: 0x0, symName: '__ZN4core3ptr72drop_in_place$LT$core..option..Option$LT$syn..lifetime..Lifetime$GT$$GT$17h406663184fba9f2fE', symObjAddr: 0x4830, symBinAddr: 0xCBCA0, symSize: 0x30 }
  - { offsetInCU: 0x17A04, offset: 0x4AC181, size: 0x8, addend: 0x0, symName: '__ZN4core3ptr75drop_in_place$LT$alloc..boxed..Box$LT$syn..generics..TypeParamBound$GT$$GT$17hcf1c09bccd64c785E', symObjAddr: 0x4860, symBinAddr: 0xCBCD0, symSize: 0x140 }
  - { offsetInCU: 0x17F39, offset: 0x4AC6B6, size: 0x8, addend: 0x0, symName: '__ZN4core3ptr78drop_in_place$LT$alloc..boxed..Box$LT$syn..expr..GenericMethodArgument$GT$$GT$17hc5561f5e7586c250E', symObjAddr: 0x49A0, symBinAddr: 0xCBE10, symSize: 0x60 }
  - { offsetInCU: 0x180D0, offset: 0x4AC84D, size: 0x8, addend: 0x0, symName: '__ZN4core3ptr78drop_in_place$LT$core..option..Option$LT$syn..generics..BoundLifetimes$GT$$GT$17hc74a275f958fb9a1E', symObjAddr: 0x4A00, symBinAddr: 0xCBE70, symSize: 0xE0 }
  - { offsetInCU: 0x183B4, offset: 0x4ACB31, size: 0x8, addend: 0x0, symName: '__ZN4core3ptr83drop_in_place$LT$core..result..Result$LT$syn..op..BinOp$C$syn..error..Error$GT$$GT$17h1459f2ccb2d84ed9E', symObjAddr: 0x4AE0, symBinAddr: 0xCBF50, symSize: 0x80 }
  - { offsetInCU: 0x18679, offset: 0x4ACDF6, size: 0x8, addend: 0x0, symName: '__ZN4core3ptr86drop_in_place$LT$syn..punctuated..Punctuated$LT$syn..pat..Pat$C$syn..token..Or$GT$$GT$17h13896407bc2c03e4E', symObjAddr: 0x4B60, symBinAddr: 0xCBFD0, symSize: 0x120 }
  - { offsetInCU: 0x18ABF, offset: 0x4AD23C, size: 0x8, addend: 0x0, symName: '__ZN4core3ptr87drop_in_place$LT$core..option..Option$LT$alloc..boxed..Box$LT$syn..pat..Pat$GT$$GT$$GT$17h5bd93a2021c10f20E', symObjAddr: 0x4C80, symBinAddr: 0xCC0F0, symSize: 0x50 }
  - { offsetInCU: 0x18C31, offset: 0x4AD3AE, size: 0x8, addend: 0x0, symName: '__ZN4core3ptr87drop_in_place$LT$core..option..Option$LT$alloc..boxed..Box$LT$syn..ty..Type$GT$$GT$$GT$17h6936d17ab80112d1E', symObjAddr: 0x4CD0, symBinAddr: 0xCC140, symSize: 0x50 }
  - { offsetInCU: 0x18DA3, offset: 0x4AD520, size: 0x8, addend: 0x0, symName: '__ZN4core3ptr89drop_in_place$LT$core..option..Option$LT$alloc..boxed..Box$LT$syn..expr..Expr$GT$$GT$$GT$17h9285f9bb32cfe7feE', symObjAddr: 0x4D20, symBinAddr: 0xCC190, symSize: 0x50 }
  - { offsetInCU: 0x18F15, offset: 0x4AD692, size: 0x8, addend: 0x0, symName: '__ZN4core3ptr89drop_in_place$LT$syn..punctuated..Punctuated$LT$syn..pat..Pat$C$syn..token..Comma$GT$$GT$17h7cc94aacc194d79fE', symObjAddr: 0x4D70, symBinAddr: 0xCC1E0, symSize: 0x120 }
  - { offsetInCU: 0x1939D, offset: 0x4ADB1A, size: 0x8, addend: 0x0, symName: '__ZN4core3ptr91drop_in_place$LT$syn..punctuated..Punctuated$LT$syn..expr..Expr$C$syn..token..Comma$GT$$GT$17h89eb145173101a03E', symObjAddr: 0x4E90, symBinAddr: 0xCC300, symSize: 0x120 }
  - { offsetInCU: 0x197E7, offset: 0x4ADF64, size: 0x8, addend: 0x0, symName: '__ZN4core3ptr94drop_in_place$LT$syn..punctuated..Punctuated$LT$syn..pat..FieldPat$C$syn..token..Comma$GT$$GT$17hdbbfc15c48c312e3E', symObjAddr: 0x4FB0, symBinAddr: 0xCC420, symSize: 0xF0 }
  - { offsetInCU: 0x19AB1, offset: 0x4AE22E, size: 0x8, addend: 0x0, symName: '__ZN4core3ptr94drop_in_place$LT$syn..punctuated..Punctuated$LT$syn..ty..BareFnArg$C$syn..token..Comma$GT$$GT$17h4e6d5a703b32a850E', symObjAddr: 0x50A0, symBinAddr: 0xCC510, symSize: 0xF0 }
  - { offsetInCU: 0x19D7B, offset: 0x4AE4F8, size: 0x8, addend: 0x0, symName: '__ZN4core3ptr95drop_in_place$LT$core..option..Option$LT$alloc..boxed..Box$LT$syn..expr..FieldValue$GT$$GT$$GT$17h95938b63f5172bf7E', symObjAddr: 0x5190, symBinAddr: 0xCC600, symSize: 0x50 }
  - { offsetInCU: 0x19EED, offset: 0x4AE66A, size: 0x8, addend: 0x0, symName: '__ZN4core3ptr96drop_in_place$LT$core..option..Option$LT$alloc..boxed..Box$LT$syn..path..PathSegment$GT$$GT$$GT$17he2148fc749fa4ba5E', symObjAddr: 0x51E0, symBinAddr: 0xCC650, symSize: 0x180 }
  - { offsetInCU: 0x1A57E, offset: 0x4AECFB, size: 0x8, addend: 0x0, symName: '__ZN4core3ptr97drop_in_place$LT$syn..punctuated..Punctuated$LT$syn..expr..FieldValue$C$syn..token..Comma$GT$$GT$17h32c10a095b2e74c7E', symObjAddr: 0x5360, symBinAddr: 0xCC7D0, symSize: 0xF0 }
  - { offsetInCU: 0x1A8C4, offset: 0x4AF041, size: 0x8, addend: 0x0, symName: '__ZN4core3ptr97drop_in_place$LT$syn..punctuated..Punctuated$LT$syn..lifetime..Lifetime$C$syn..token..Add$GT$$GT$17h75f9c8a38e93dfefE', symObjAddr: 0x5450, symBinAddr: 0xCC8C0, symSize: 0xC0 }
  - { offsetInCU: 0x1B369, offset: 0x4AFAE6, size: 0x8, addend: 0x0, symName: '__ZN53_$LT$core..fmt..Error$u20$as$u20$core..fmt..Debug$GT$3fmt17h43ae5cec9623af13E', symObjAddr: 0x5510, symBinAddr: 0xCC980, symSize: 0x20 }
  - { offsetInCU: 0x23CAD, offset: 0x4B842A, size: 0x8, addend: 0x0, symName: __ZN3syn4expr7parsing10parse_expr17h6dcafefab7df1ebfE, symObjAddr: 0x56C0, symBinAddr: 0xCCB30, symSize: 0x19E0 }
  - { offsetInCU: 0x26539, offset: 0x4BACB6, size: 0x8, addend: 0x0, symName: __ZN3syn4expr7parsing15peek_precedence17hb25632699c6cd5daE, symObjAddr: 0x70A0, symBinAddr: 0xCE510, symSize: 0x270 }
  - { offsetInCU: 0x2711F, offset: 0x4BB89C, size: 0x8, addend: 0x0, symName: __ZN3syn4expr7parsing14ambiguous_expr17h8cd4103e21a7eba9E, symObjAddr: 0x7310, symBinAddr: 0xCE780, symSize: 0x100 }
  - { offsetInCU: 0x271A5, offset: 0x4BB922, size: 0x8, addend: 0x0, symName: __ZN3syn4expr7parsing10expr_attrs17he2350917daffdaa2E, symObjAddr: 0x7410, symBinAddr: 0xCE880, symSize: 0xA90 }
  - { offsetInCU: 0x29321, offset: 0x4BDA9E, size: 0x8, addend: 0x0, symName: __ZN3syn4expr7parsing10unary_expr17h1572ae7712757937E, symObjAddr: 0x7EA0, symBinAddr: 0xCF310, symSize: 0xCE0 }
  - { offsetInCU: 0x2B267, offset: 0x4BF9E4, size: 0x8, addend: 0x0, symName: __ZN3syn4expr7parsing12trailer_expr17hf7fba176fabf64faE, symObjAddr: 0x8B80, symBinAddr: 0xCFFF0, symSize: 0x2980 }
  - { offsetInCU: 0x3005D, offset: 0x4C47DA, size: 0x8, addend: 0x0, symName: __ZN3syn4expr7parsing14trailer_helper17hb4bc058584df5a79E, symObjAddr: 0xB500, symBinAddr: 0xD2970, symSize: 0x1E10 }
  - { offsetInCU: 0x33B8C, offset: 0x4C8309, size: 0x8, addend: 0x0, symName: __ZN3syn4expr7parsing23path_or_macro_or_struct17h62a3675f7a8d58bfE, symObjAddr: 0xD310, symBinAddr: 0xD4780, symSize: 0x980 }
  - { offsetInCU: 0x3501D, offset: 0x4C979A, size: 0x8, addend: 0x0, symName: __ZN3syn4expr7parsing14paren_or_tuple17ha60b7f4703092dd5E, symObjAddr: 0xDC90, symBinAddr: 0xD5100, symSize: 0x780 }
  - { offsetInCU: 0x35971, offset: 0x4CA0EE, size: 0x8, addend: 0x0, symName: __ZN3syn4expr7parsing15array_or_repeat17h579cf1491c5f8e81E, symObjAddr: 0xE410, symBinAddr: 0xD5880, symSize: 0x12C0 }
  - { offsetInCU: 0x3937C, offset: 0x4CDAF9, size: 0x8, addend: 0x0, symName: __ZN3syn4expr7parsing10expr_early17h501010854f201ba9E, symObjAddr: 0xF6D0, symBinAddr: 0xD6B40, symSize: 0x13A0 }
  - { offsetInCU: 0x3B4C5, offset: 0x4CFC42, size: 0x8, addend: 0x0, symName: __ZN3syn4expr7parsing10else_block17h3d3aa8823e15c127E, symObjAddr: 0x10CA0, symBinAddr: 0xD7EE0, symSize: 0x4B0 }
  - { offsetInCU: 0x3BB11, offset: 0x4D028E, size: 0x8, addend: 0x0, symName: __ZN3syn4expr7parsing8expr_box17hc345e9f0a9e23786E, symObjAddr: 0x11150, symBinAddr: 0xD8390, symSize: 0x360 }
  - { offsetInCU: 0x3BF71, offset: 0x4D06EE, size: 0x8, addend: 0x0, symName: __ZN3syn4expr7parsing10expr_unary17h3d393ba1d7f872c0E, symObjAddr: 0x114B0, symBinAddr: 0xD86F0, symSize: 0x330 }
  - { offsetInCU: 0x3C537, offset: 0x4D0CB4, size: 0x8, addend: 0x0, symName: __ZN3syn4expr7parsing12expr_closure17h050bbd3db623be95E, symObjAddr: 0x117E0, symBinAddr: 0xD8A20, symSize: 0x2010 }
  - { offsetInCU: 0x3FBF7, offset: 0x4D4374, size: 0x8, addend: 0x0, symName: __ZN3syn4expr7parsing10expr_break17h447d48a77919775cE, symObjAddr: 0x137F0, symBinAddr: 0xDAA30, symSize: 0x540 }
  - { offsetInCU: 0x40687, offset: 0x4D4E04, size: 0x8, addend: 0x0, symName: __ZN3syn4expr7parsing8expr_ret17h89d193116838f768E, symObjAddr: 0x13D30, symBinAddr: 0xDAF70, symSize: 0x300 }
  - { offsetInCU: 0x40B08, offset: 0x4D5285, size: 0x8, addend: 0x0, symName: __ZN3syn4expr7parsing18expr_struct_helper17hb8cf17198d5e6ab1E, symObjAddr: 0x14030, symBinAddr: 0xDB270, symSize: 0x780 }
  - { offsetInCU: 0x41890, offset: 0x4D600D, size: 0x8, addend: 0x0, symName: __ZN3syn4expr7parsing10expr_const17hc189483e37ae96a8E, symObjAddr: 0x147B0, symBinAddr: 0xDB9F0, symSize: 0x5A0 }
  - { offsetInCU: 0x4282F, offset: 0x4D6FAC, size: 0x8, addend: 0x0, symName: __ZN3syn4expr7parsing10expr_range17ha718123fae9acdedE, symObjAddr: 0x14D50, symBinAddr: 0xDBF90, symSize: 0x400 }
  - { offsetInCU: 0x42FE2, offset: 0x4D775F, size: 0x8, addend: 0x0, symName: __ZN3syn4expr7parsing10check_cast17h879c45b3436a7580E, symObjAddr: 0x15150, symBinAddr: 0xDC390, symSize: 0x460 }
  - { offsetInCU: 0x43C32, offset: 0x4D83AF, size: 0x8, addend: 0x0, symName: '__ZN67_$LT$syn..expr..parsing..raw$u20$as$u20$syn..token..CustomToken$GT$4peek17hf1fea2305c15dbabE', symObjAddr: 0x155C0, symBinAddr: 0xDC7F0, symSize: 0x1B0 }
  - { offsetInCU: 0x1E, offset: 0x4ED093, size: 0x8, addend: 0x0, symName: '__ZN4core3ptr100drop_in_place$LT$core..option..Option$LT$alloc..boxed..Box$LT$syn..generics..LifetimeDef$GT$$GT$$GT$17h0fb31368c552c835E', symObjAddr: 0x0, symBinAddr: 0xDC9A0, symSize: 0xF0 }
  - { offsetInCU: 0x1B2E, offset: 0x4EEBA3, size: 0x8, addend: 0x0, symName: '__ZN4core3ptr100drop_in_place$LT$core..option..Option$LT$alloc..boxed..Box$LT$syn..generics..LifetimeDef$GT$$GT$$GT$17h0fb31368c552c835E', symObjAddr: 0x0, symBinAddr: 0xDC9A0, symSize: 0xF0 }
  - { offsetInCU: 0x20C5, offset: 0x4EF13A, size: 0x8, addend: 0x0, symName: '__ZN4core3ptr100drop_in_place$LT$core..option..Option$LT$alloc..boxed..Box$LT$syn..path..GenericArgument$GT$$GT$$GT$17h94fb3e089cc53ce6E', symObjAddr: 0xF0, symBinAddr: 0xDCA90, symSize: 0x50 }
  - { offsetInCU: 0x2310, offset: 0x4EF385, size: 0x8, addend: 0x0, symName: '__ZN4core3ptr103drop_in_place$LT$syn..punctuated..Punctuated$LT$syn..generics..TypeParamBound$C$syn..token..Add$GT$$GT$17h517181ada56b9062E', symObjAddr: 0x140, symBinAddr: 0xDCAE0, symSize: 0xF0 }
  - { offsetInCU: 0x284E, offset: 0x4EF8C3, size: 0x8, addend: 0x0, symName: '__ZN4core3ptr106drop_in_place$LT$core..option..Option$LT$alloc..boxed..Box$LT$syn..expr..GenericMethodArgument$GT$$GT$$GT$17h68e4615806e37e5cE', symObjAddr: 0x230, symBinAddr: 0xDCBD0, symSize: 0x70 }
  - { offsetInCU: 0x2A34, offset: 0x4EFAA9, size: 0x8, addend: 0x0, symName: '__ZN4core3ptr108drop_in_place$LT$syn..punctuated..Punctuated$LT$syn..expr..GenericMethodArgument$C$syn..token..Comma$GT$$GT$17h413f77b0de48dbb7E', symObjAddr: 0x2A0, symBinAddr: 0xDCC40, symSize: 0x160 }
  - { offsetInCU: 0x2EA3, offset: 0x4EFF18, size: 0x8, addend: 0x0, symName: '__ZN4core3ptr114drop_in_place$LT$core..option..Option$LT$$LP$syn..token..If$C$alloc..boxed..Box$LT$syn..expr..Expr$GT$$RP$$GT$$GT$17h3062d5e9dcc5a040E.llvm.6648508862672840581', symObjAddr: 0x400, symBinAddr: 0xDCDA0, symSize: 0x50 }
  - { offsetInCU: 0x30D0, offset: 0x4F0145, size: 0x8, addend: 0x0, symName: '__ZN4core3ptr34drop_in_place$LT$syn..lit..Lit$GT$17heb8f235ab74bc4d4E', symObjAddr: 0x450, symBinAddr: 0xDCDF0, symSize: 0x110 }
  - { offsetInCU: 0x35EB, offset: 0x4F0660, size: 0x8, addend: 0x0, symName: '__ZN4core3ptr34drop_in_place$LT$syn..pat..Pat$GT$17hd6fa3ad4d18570d7E.llvm.6648508862672840581', symObjAddr: 0x560, symBinAddr: 0xDCF00, symSize: 0xB10 }
  - { offsetInCU: 0x6557, offset: 0x4F35CC, size: 0x8, addend: 0x0, symName: '__ZN4core3ptr34drop_in_place$LT$syn..ty..Type$GT$17hfd9bfeacac76fc9aE', symObjAddr: 0x1070, symBinAddr: 0xDDA10, symSize: 0x510 }
  - { offsetInCU: 0x76C6, offset: 0x4F473B, size: 0x8, addend: 0x0, symName: '__ZN4core3ptr35drop_in_place$LT$syn..expr..Arm$GT$17h7175e6cd7c5f8e3dE', symObjAddr: 0x1580, symBinAddr: 0xDDF20, symSize: 0x130 }
  - { offsetInCU: 0x8203, offset: 0x4F5278, size: 0x8, addend: 0x0, symName: '__ZN4core3ptr36drop_in_place$LT$syn..expr..Expr$GT$17h6b8a9b85afc75571E.llvm.6648508862672840581', symObjAddr: 0x16B0, symBinAddr: 0xDE050, symSize: 0x1DD0 }
  - { offsetInCU: 0x1001F, offset: 0x4FD094, size: 0x8, addend: 0x0, symName: '__ZN4core3ptr36drop_in_place$LT$syn..mac..Macro$GT$17ha661e027deab4b66E', symObjAddr: 0x3480, symBinAddr: 0xDFE20, symSize: 0x40 }
  - { offsetInCU: 0x10170, offset: 0x4FD1E5, size: 0x8, addend: 0x0, symName: '__ZN4core3ptr36drop_in_place$LT$syn..path..Path$GT$17he4358a51dbdb774bE', symObjAddr: 0x34C0, symBinAddr: 0xDFE60, symSize: 0x230 }
  - { offsetInCU: 0x10AE3, offset: 0x4FDB58, size: 0x8, addend: 0x0, symName: '__ZN4core3ptr37drop_in_place$LT$syn..lit..LitInt$GT$17h6f624d0fd6625e9bE', symObjAddr: 0x36F0, symBinAddr: 0xE0090, symSize: 0x70 }
  - { offsetInCU: 0x10E63, offset: 0x4FDED8, size: 0x8, addend: 0x0, symName: '__ZN4core3ptr37drop_in_place$LT$syn..stmt..Block$GT$17hfb4d80957646e543E', symObjAddr: 0x3760, symBinAddr: 0xE0100, symSize: 0xD0 }
  - { offsetInCU: 0x11107, offset: 0x4FE17C, size: 0x8, addend: 0x0, symName: '__ZN4core3ptr38drop_in_place$LT$syn..expr..Member$GT$17h3141a26ba2d76dd7E', symObjAddr: 0x3830, symBinAddr: 0xE01D0, symSize: 0x30 }
  - { offsetInCU: 0x11204, offset: 0x4FE279, size: 0x8, addend: 0x0, symName: '__ZN4core3ptr39drop_in_place$LT$proc_macro2..Ident$GT$17hfc382935d884a247E', symObjAddr: 0x3860, symBinAddr: 0xE0200, symSize: 0x30 }
  - { offsetInCU: 0x112E2, offset: 0x4FE357, size: 0x8, addend: 0x0, symName: '__ZN4core3ptr39drop_in_place$LT$syn..pat..PatTuple$GT$17h232e0cbeb905e9d9E', symObjAddr: 0x3940, symBinAddr: 0xE0230, symSize: 0x80 }
  - { offsetInCU: 0x114EA, offset: 0x4FE55F, size: 0x8, addend: 0x0, symName: '__ZN4core3ptr40drop_in_place$LT$syn..ty..ReturnType$GT$17h42cc52c006e6d7cdE', symObjAddr: 0x3B70, symBinAddr: 0xE02B0, symSize: 0x50 }
  - { offsetInCU: 0x116D8, offset: 0x4FE74D, size: 0x8, addend: 0x0, symName: '__ZN4core3ptr44drop_in_place$LT$syn..parse..ParseBuffer$GT$17h1603f155a5d07e6dE', symObjAddr: 0x4020, symBinAddr: 0xE0300, symSize: 0x70 }
  - { offsetInCU: 0x11B0D, offset: 0x4FEB82, size: 0x8, addend: 0x0, symName: '__ZN4core3ptr45drop_in_place$LT$proc_macro2..TokenStream$GT$17h44f5bf9c29d914fbE.llvm.6648508862672840581', symObjAddr: 0x4090, symBinAddr: 0xE0370, symSize: 0x140 }
  - { offsetInCU: 0x11FF9, offset: 0x4FF06E, size: 0x8, addend: 0x0, symName: '__ZN4core3ptr46drop_in_place$LT$syn..expr..ExprMethodCall$GT$17h01180d60aa6f7572E', symObjAddr: 0x41D0, symBinAddr: 0xE04B0, symSize: 0x310 }
  - { offsetInCU: 0x12C9D, offset: 0x4FFD12, size: 0x8, addend: 0x0, symName: '__ZN4core3ptr47drop_in_place$LT$syn..expr..MethodTurbofish$GT$17h256ff6b27f2ad2d4E', symObjAddr: 0x44E0, symBinAddr: 0xE07C0, symSize: 0x160 }
  - { offsetInCU: 0x13123, offset: 0x500198, size: 0x8, addend: 0x0, symName: '__ZN4core3ptr47drop_in_place$LT$syn..path..GenericArgument$GT$17h53f7c77f182368f5E', symObjAddr: 0x4640, symBinAddr: 0xE0920, symSize: 0xE0 }
  - { offsetInCU: 0x1343D, offset: 0x5004B2, size: 0x8, addend: 0x0, symName: '__ZN4core3ptr58drop_in_place$LT$alloc..vec..Vec$LT$syn..expr..Arm$GT$$GT$17hf30588e63e9aa2acE', symObjAddr: 0x4720, symBinAddr: 0xE0A00, symSize: 0xD0 }
  - { offsetInCU: 0x136CA, offset: 0x50073F, size: 0x8, addend: 0x0, symName: '__ZN4core3ptr59drop_in_place$LT$alloc..boxed..Box$LT$syn..pat..Pat$GT$$GT$17h8da5d9585b79befeE', symObjAddr: 0x47F0, symBinAddr: 0xE0AD0, symSize: 0x50 }
  - { offsetInCU: 0x13825, offset: 0x50089A, size: 0x8, addend: 0x0, symName: '__ZN4core3ptr59drop_in_place$LT$alloc..boxed..Box$LT$syn..ty..Type$GT$$GT$17hfdcfc83ffb884feaE', symObjAddr: 0x4840, symBinAddr: 0xE0B20, symSize: 0x50 }
  - { offsetInCU: 0x13980, offset: 0x5009F5, size: 0x8, addend: 0x0, symName: '__ZN4core3ptr59drop_in_place$LT$alloc..vec..Vec$LT$syn..stmt..Stmt$GT$$GT$17h279570968c738800E', symObjAddr: 0x4890, symBinAddr: 0xE0B70, symSize: 0xD0 }
  - { offsetInCU: 0x13C0D, offset: 0x500C82, size: 0x8, addend: 0x0, symName: '__ZN4core3ptr61drop_in_place$LT$alloc..boxed..Box$LT$syn..expr..Expr$GT$$GT$17hd59f20e4896eb10dE', symObjAddr: 0x4960, symBinAddr: 0xE0C40, symSize: 0x50 }
  - { offsetInCU: 0x13DE4, offset: 0x500E59, size: 0x8, addend: 0x0, symName: '__ZN4core3ptr61drop_in_place$LT$syn..path..ParenthesizedGenericArguments$GT$17h2cb12f9d921fc247E', symObjAddr: 0x49B0, symBinAddr: 0xE0C90, symSize: 0x170 }
  - { offsetInCU: 0x143AB, offset: 0x501420, size: 0x8, addend: 0x0, symName: '__ZN4core3ptr63drop_in_place$LT$alloc..boxed..Box$LT$syn..lit..LitRepr$GT$$GT$17ha0c79af03c778e78E', symObjAddr: 0x4B20, symBinAddr: 0xE0E00, symSize: 0x60 }
  - { offsetInCU: 0x146A0, offset: 0x501715, size: 0x8, addend: 0x0, symName: '__ZN4core3ptr64drop_in_place$LT$alloc..boxed..Box$LT$syn..pat..FieldPat$GT$$GT$17h4cf97b08e30ccd11E', symObjAddr: 0x4B80, symBinAddr: 0xE0E60, symSize: 0x100 }
  - { offsetInCU: 0x14CBB, offset: 0x501D30, size: 0x8, addend: 0x0, symName: '__ZN4core3ptr64drop_in_place$LT$alloc..boxed..Box$LT$syn..ty..BareFnArg$GT$$GT$17h5ed4e7eb5288ceaeE', symObjAddr: 0x4C80, symBinAddr: 0xE0F60, symSize: 0xE0 }
  - { offsetInCU: 0x15141, offset: 0x5021B6, size: 0x8, addend: 0x0, symName: '__ZN4core3ptr64drop_in_place$LT$alloc..vec..Vec$LT$syn..attr..Attribute$GT$$GT$17h00ca1a13bf29cbb7E.llvm.6648508862672840581', symObjAddr: 0x4D60, symBinAddr: 0xE1040, symSize: 0x60 }
  - { offsetInCU: 0x15336, offset: 0x5023AB, size: 0x8, addend: 0x0, symName: '__ZN4core3ptr65drop_in_place$LT$core..option..Option$LT$syn..expr..Label$GT$$GT$17hdfb87f4e56640098E', symObjAddr: 0x4DC0, symBinAddr: 0xE10A0, symSize: 0x30 }
  - { offsetInCU: 0x15471, offset: 0x5024E6, size: 0x8, addend: 0x0, symName: '__ZN4core3ptr65drop_in_place$LT$core..option..Option$LT$syn..path..QSelf$GT$$GT$17h1f0245c1a4935233E', symObjAddr: 0x4DF0, symBinAddr: 0xE10D0, symSize: 0x50 }
  - { offsetInCU: 0x155F4, offset: 0x502669, size: 0x8, addend: 0x0, symName: '__ZN4core3ptr66drop_in_place$LT$core..option..Option$LT$syn..ty..Variadic$GT$$GT$17h027f0e707b91e4beE', symObjAddr: 0x4E40, symBinAddr: 0xE1120, symSize: 0x80 }
  - { offsetInCU: 0x1584A, offset: 0x5028BF, size: 0x8, addend: 0x0, symName: '__ZN4core3ptr67drop_in_place$LT$alloc..boxed..Box$LT$syn..expr..FieldValue$GT$$GT$17ha1d27993e02226e2E', symObjAddr: 0x4EC0, symBinAddr: 0xE11A0, symSize: 0xF0 }
  - { offsetInCU: 0x15CDB, offset: 0x502D50, size: 0x8, addend: 0x0, symName: '__ZN4core3ptr68drop_in_place$LT$alloc..boxed..Box$LT$syn..path..PathSegment$GT$$GT$17h0310b89ad60fe4d7E', symObjAddr: 0x4FB0, symBinAddr: 0xE1290, symSize: 0x190 }
  - { offsetInCU: 0x163B9, offset: 0x50342E, size: 0x8, addend: 0x0, symName: '__ZN4core3ptr72drop_in_place$LT$alloc..boxed..Box$LT$syn..path..GenericArgument$GT$$GT$17h2b3c5c0d616472a1E', symObjAddr: 0x5140, symBinAddr: 0xE1420, symSize: 0xF0 }
  - { offsetInCU: 0x16830, offset: 0x5038A5, size: 0x8, addend: 0x0, symName: '__ZN4core3ptr72drop_in_place$LT$core..option..Option$LT$syn..lifetime..Lifetime$GT$$GT$17h406663184fba9f2fE', symObjAddr: 0x5230, symBinAddr: 0xE1510, symSize: 0x30 }
  - { offsetInCU: 0x1694C, offset: 0x5039C1, size: 0x8, addend: 0x0, symName: '__ZN4core3ptr75drop_in_place$LT$alloc..boxed..Box$LT$syn..generics..TypeParamBound$GT$$GT$17hcf1c09bccd64c785E', symObjAddr: 0x5260, symBinAddr: 0xE1540, symSize: 0x90 }
  - { offsetInCU: 0x16C8E, offset: 0x503D03, size: 0x8, addend: 0x0, symName: '__ZN4core3ptr78drop_in_place$LT$core..option..Option$LT$syn..generics..BoundLifetimes$GT$$GT$17hc74a275f958fb9a1E', symObjAddr: 0x52F0, symBinAddr: 0xE15D0, symSize: 0xE0 }
  - { offsetInCU: 0x16F72, offset: 0x503FE7, size: 0x8, addend: 0x0, symName: '__ZN4core3ptr86drop_in_place$LT$syn..punctuated..Punctuated$LT$syn..pat..Pat$C$syn..token..Or$GT$$GT$17h13896407bc2c03e4E', symObjAddr: 0x53D0, symBinAddr: 0xE16B0, symSize: 0x120 }
  - { offsetInCU: 0x173B8, offset: 0x50442D, size: 0x8, addend: 0x0, symName: '__ZN4core3ptr87drop_in_place$LT$core..option..Option$LT$alloc..boxed..Box$LT$syn..pat..Pat$GT$$GT$$GT$17h5bd93a2021c10f20E', symObjAddr: 0x54F0, symBinAddr: 0xE17D0, symSize: 0x50 }
  - { offsetInCU: 0x1752A, offset: 0x50459F, size: 0x8, addend: 0x0, symName: '__ZN4core3ptr87drop_in_place$LT$core..option..Option$LT$alloc..boxed..Box$LT$syn..ty..Type$GT$$GT$$GT$17h6936d17ab80112d1E', symObjAddr: 0x5540, symBinAddr: 0xE1820, symSize: 0x50 }
  - { offsetInCU: 0x1769C, offset: 0x504711, size: 0x8, addend: 0x0, symName: '__ZN4core3ptr89drop_in_place$LT$core..option..Option$LT$alloc..boxed..Box$LT$syn..expr..Expr$GT$$GT$$GT$17h9285f9bb32cfe7feE', symObjAddr: 0x5590, symBinAddr: 0xE1870, symSize: 0x50 }
  - { offsetInCU: 0x1784C, offset: 0x5048C1, size: 0x8, addend: 0x0, symName: '__ZN4core3ptr89drop_in_place$LT$syn..punctuated..Punctuated$LT$syn..pat..Pat$C$syn..token..Comma$GT$$GT$17h7cc94aacc194d79fE', symObjAddr: 0x55E0, symBinAddr: 0xE18C0, symSize: 0x120 }
  - { offsetInCU: 0x17CA9, offset: 0x504D1E, size: 0x8, addend: 0x0, symName: '__ZN4core3ptr89drop_in_place$LT$syn..punctuated..Punctuated$LT$syn..ty..Type$C$syn..token..Comma$GT$$GT$17h97ea2b625b494840E', symObjAddr: 0x5700, symBinAddr: 0xE19E0, symSize: 0x120 }
  - { offsetInCU: 0x180F3, offset: 0x505168, size: 0x8, addend: 0x0, symName: '__ZN4core3ptr91drop_in_place$LT$syn..punctuated..Punctuated$LT$syn..expr..Expr$C$syn..token..Comma$GT$$GT$17h89eb145173101a03E', symObjAddr: 0x5820, symBinAddr: 0xE1B00, symSize: 0x120 }
  - { offsetInCU: 0x1853D, offset: 0x5055B2, size: 0x8, addend: 0x0, symName: '__ZN4core3ptr94drop_in_place$LT$syn..punctuated..Punctuated$LT$syn..pat..FieldPat$C$syn..token..Comma$GT$$GT$17hdbbfc15c48c312e3E', symObjAddr: 0x5940, symBinAddr: 0xE1C20, symSize: 0xF0 }
  - { offsetInCU: 0x18807, offset: 0x50587C, size: 0x8, addend: 0x0, symName: '__ZN4core3ptr94drop_in_place$LT$syn..punctuated..Punctuated$LT$syn..ty..BareFnArg$C$syn..token..Comma$GT$$GT$17h4e6d5a703b32a850E', symObjAddr: 0x5A30, symBinAddr: 0xE1D10, symSize: 0xF0 }
  - { offsetInCU: 0x18AD1, offset: 0x505B46, size: 0x8, addend: 0x0, symName: '__ZN4core3ptr96drop_in_place$LT$core..option..Option$LT$alloc..boxed..Box$LT$syn..path..PathSegment$GT$$GT$$GT$17he2148fc749fa4ba5E', symObjAddr: 0x5B20, symBinAddr: 0xE1E00, symSize: 0x180 }
  - { offsetInCU: 0x19162, offset: 0x5061D7, size: 0x8, addend: 0x0, symName: '__ZN4core3ptr97drop_in_place$LT$syn..punctuated..Punctuated$LT$syn..expr..FieldValue$C$syn..token..Comma$GT$$GT$17h32c10a095b2e74c7E', symObjAddr: 0x5CA0, symBinAddr: 0xE1F80, symSize: 0xF0 }
  - { offsetInCU: 0x194A8, offset: 0x50651D, size: 0x8, addend: 0x0, symName: '__ZN4core3ptr97drop_in_place$LT$syn..punctuated..Punctuated$LT$syn..lifetime..Lifetime$C$syn..token..Add$GT$$GT$17h75f9c8a38e93dfefE', symObjAddr: 0x5D90, symBinAddr: 0xE2070, symSize: 0xC0 }
  - { offsetInCU: 0x19920, offset: 0x506995, size: 0x8, addend: 0x0, symName: '__ZN4core3ptr99drop_in_place$LT$syn..punctuated..Punctuated$LT$syn..path..PathSegment$C$syn..token..Colon2$GT$$GT$17hdafb3e0018003811E', symObjAddr: 0x5E50, symBinAddr: 0xE2130, symSize: 0x250 }
  - { offsetInCU: 0x22BBA, offset: 0x50FC2F, size: 0x8, addend: 0x0, symName: '__ZN3syn4expr8printing83_$LT$impl$u20$quote..to_tokens..ToTokens$u20$for$u20$syn..expr..MethodTurbofish$GT$9to_tokens17hbce0a1eefddd9126E', symObjAddr: 0xE4F0, symBinAddr: 0xE9190, symSize: 0x140 }
  - { offsetInCU: 0x233E4, offset: 0x510459, size: 0x8, addend: 0x0, symName: '__ZN3syn4expr8printing79_$LT$impl$u20$quote..to_tokens..ToTokens$u20$for$u20$syn..expr..ExprClosure$GT$9to_tokens17h6cfeec4bca01421cE', symObjAddr: 0xFF00, symBinAddr: 0xE92D0, symSize: 0x330 }
  - { offsetInCU: 0x23F73, offset: 0x510FE8, size: 0x8, addend: 0x0, symName: '__ZN3syn4expr8printing73_$LT$impl$u20$quote..to_tokens..ToTokens$u20$for$u20$syn..expr..Index$GT$9to_tokens17h43f29ee3162579f9E', symObjAddr: 0x10820, symBinAddr: 0xE96D0, symSize: 0xB0 }
  - { offsetInCU: 0x24161, offset: 0x5111D6, size: 0x8, addend: 0x0, symName: '__ZN3syn4expr8printing74_$LT$impl$u20$quote..to_tokens..ToTokens$u20$for$u20$syn..expr..Member$GT$9to_tokens17h5f60d280ff95589eE', symObjAddr: 0x10750, symBinAddr: 0xE9600, symSize: 0xD0 }
