---
triple:          'x86_64-apple-darwin'
binary-path:     "/Users/justinlanouette/Chaos/ChaöS-Token/hello_world/target/release/build/libc-48e151edd52a8d30/build_script_build-48e151edd52a8d30"
relocations:
  - { offsetInCU: 0x1E, offset: 0x1E, size: 0x8, addend: 0x0, symName: '__ZN4core3ptr41drop_in_place$LT$std..process..Output$GT$17h23147c28b9824bfdE', symObjAddr: 0x0, symBinAddr: 0x100002890, symSize: 0x50 }
  - { offsetInCU: 0xA89, offset: 0xA89, size: 0x8, addend: 0x0, symName: '__ZN4core3ptr41drop_in_place$LT$std..process..Output$GT$17h23147c28b9824bfdE', symObjAddr: 0x0, symBinAddr: 0x100002890, symSize: 0x50 }
  - { offsetInCU: 0x1171, offset: 0x1171, size: 0x8, addend: 0x0, symName: '__ZN4core3ptr42drop_in_place$LT$std..process..Command$GT$17hf8e96a164ed81a55E', symObjAddr: 0x50, symBinAddr: 0x1000028E0, symSize: 0x250 }
  - { offsetInCU: 0x2095, offset: 0x2095, size: 0x8, addend: 0x0, symName: '__ZN4core3ptr93drop_in_place$LT$core..result..Result$LT$std..process..Output$C$std..io..error..Error$GT$$GT$17h01fed436c0cf216bE', symObjAddr: 0x2A0, symBinAddr: 0x100002B30, symSize: 0xE0 }
  - { offsetInCU: 0x51EB, offset: 0x51EB, size: 0x8, addend: 0x0, symName: '__ZN60_$LT$alloc..string..String$u20$as$u20$core..fmt..Display$GT$3fmt17hc365578c40090489E', symObjAddr: 0x5A0, symBinAddr: 0x100002E30, symSize: 0x20 }
  - { offsetInCU: 0x5998, offset: 0x5998, size: 0x8, addend: 0x0, symName: '__ZN4core3str4iter22SplitInternal$LT$P$GT$4next17h08a09df7850786f9E', symObjAddr: 0x380, symBinAddr: 0x100002C10, symSize: 0x220 }
  - { offsetInCU: 0x624F, offset: 0x624F, size: 0x8, addend: 0x0, symName: __ZN18build_script_build4main17h32d9d746ef7405c2E, symObjAddr: 0x5C0, symBinAddr: 0x100002E50, symSize: 0x2780 }
  - { offsetInCU: 0x1E, offset: 0xBA01, size: 0x8, addend: 0x0, symName: __ZN5alloc7raw_vec11finish_grow17hc9dcb79ce34c8a3eE.llvm.4764197935468279630, symObjAddr: 0x0, symBinAddr: 0x1000055F0, symSize: 0x90 }
  - { offsetInCU: 0xC44, offset: 0xC627, size: 0x8, addend: 0x0, symName: __ZN5alloc7raw_vec11finish_grow17hc9dcb79ce34c8a3eE.llvm.4764197935468279630, symObjAddr: 0x0, symBinAddr: 0x1000055F0, symSize: 0x90 }
  - { offsetInCU: 0xF8C, offset: 0xC96F, size: 0x8, addend: 0x0, symName: '__ZN5alloc7raw_vec19RawVec$LT$T$C$A$GT$7reserve21do_reserve_and_handle17hb76d1059ab3c61deE', symObjAddr: 0x100, symBinAddr: 0x100049EC0, symSize: 0xB0 }
  - { offsetInCU: 0x1E, offset: 0xD209, size: 0x8, addend: 0x0, symName: '__ZN4core3str21_$LT$impl$u20$str$GT$12trim_matches17hdba3859cbdb03668E', symObjAddr: 0x0, symBinAddr: 0x100005680, symSize: 0x2C1 }
  - { offsetInCU: 0x453, offset: 0xD63E, size: 0x8, addend: 0x0, symName: '__ZN4core3str21_$LT$impl$u20$str$GT$12trim_matches17hdba3859cbdb03668E', symObjAddr: 0x0, symBinAddr: 0x100005680, symSize: 0x2C1 }
  - { offsetInCU: 0x1E, offset: 0xED4D, size: 0x8, addend: 0x0, symName: __ZN5alloc3str17join_generic_copy17h94ddb5fe9e6b4be3E, symObjAddr: 0x0, symBinAddr: 0x100005950, symSize: 0x458 }
  - { offsetInCU: 0x810, offset: 0xF53F, size: 0x8, addend: 0x0, symName: __ZN5alloc3str17join_generic_copy17h94ddb5fe9e6b4be3E, symObjAddr: 0x0, symBinAddr: 0x100005950, symSize: 0x458 }
  - { offsetInCU: 0x529, offset: 0x125C0, size: 0x8, addend: 0x0, symName: '__ZN70_$LT$alloc..vec..Vec$LT$T$C$A$GT$$u20$as$u20$core..ops..drop..Drop$GT$4drop17hb994a0397f0cb00dE', symObjAddr: 0xC0, symBinAddr: 0x100005DB0, symSize: 0xE8 }
  - { offsetInCU: 0x1E, offset: 0x12BD6, size: 0x8, addend: 0x0, symName: __ZN3std9panicking11begin_panic17h8d48a8720e5a51b3E, symObjAddr: 0x0, symBinAddr: 0x100049F70, symSize: 0x20 }
  - { offsetInCU: 0x31B, offset: 0x12ED3, size: 0x8, addend: 0x0, symName: '__ZN4core3ptr28drop_in_place$LT$$RF$str$GT$17h748260d8315ea330E', symObjAddr: 0x20, symBinAddr: 0x100005EA0, symSize: 0x10 }
  - { offsetInCU: 0x64B, offset: 0x13203, size: 0x8, addend: 0x0, symName: __ZN3std9panicking11begin_panic17h8d48a8720e5a51b3E, symObjAddr: 0x0, symBinAddr: 0x100049F70, symSize: 0x20 }
  - { offsetInCU: 0x6A6, offset: 0x1325E, size: 0x8, addend: 0x0, symName: '__ZN91_$LT$std..panicking..begin_panic..Payload$LT$A$GT$$u20$as$u20$core..panic..PanicPayload$GT$3get17h8a39abae1551789cE', symObjAddr: 0x30, symBinAddr: 0x100005EB0, symSize: 0x20 }
  - { offsetInCU: 0x6DE, offset: 0x13296, size: 0x8, addend: 0x0, symName: '__ZN91_$LT$std..panicking..begin_panic..Payload$LT$A$GT$$u20$as$u20$core..panic..PanicPayload$GT$8take_box17h77974ed92fd04467E', symObjAddr: 0x50, symBinAddr: 0x100005ED0, symSize: 0x5F }
  - { offsetInCU: 0x1E, offset: 0x13784, size: 0x8, addend: 0x0, symName: '__ZN99_$LT$alloc..collections..btree..map..BTreeMap$LT$K$C$V$C$A$GT$$u20$as$u20$core..ops..drop..Drop$GT$4drop17h4a0bf5806e7f85f9E', symObjAddr: 0x0, symBinAddr: 0x100005F30, symSize: 0x3A8 }
  - { offsetInCU: 0xA24, offset: 0x1418A, size: 0x8, addend: 0x0, symName: '__ZN99_$LT$alloc..collections..btree..map..BTreeMap$LT$K$C$V$C$A$GT$$u20$as$u20$core..ops..drop..Drop$GT$4drop17h4a0bf5806e7f85f9E', symObjAddr: 0x0, symBinAddr: 0x100005F30, symSize: 0x3A8 }
  - { offsetInCU: 0x1E, offset: 0x163EA, size: 0x8, addend: 0x0, symName: '__ZN66_$LT$alloc..borrow..Cow$LT$B$GT$$u20$as$u20$core..fmt..Display$GT$3fmt17he6326230b432c14bE', symObjAddr: 0x0, symBinAddr: 0x1000062E0, symSize: 0x20 }
  - { offsetInCU: 0x219, offset: 0x165E5, size: 0x8, addend: 0x0, symName: '__ZN66_$LT$alloc..borrow..Cow$LT$B$GT$$u20$as$u20$core..fmt..Display$GT$3fmt17he6326230b432c14bE', symObjAddr: 0x0, symBinAddr: 0x1000062E0, symSize: 0x20 }
  - { offsetInCU: 0x1E, offset: 0x16813, size: 0x8, addend: 0x0, symName: __ZN3std2rt10lang_start17hc240030ec1539e57E, symObjAddr: 0x0, symBinAddr: 0x100006300, symSize: 0x30 }
  - { offsetInCU: 0x5B, offset: 0x16850, size: 0x8, addend: 0x0, symName: '__ZN3std2rt10lang_start28_$u7b$$u7b$closure$u7d$$u7d$17hec4a997420426468E', symObjAddr: 0x30, symBinAddr: 0x100006330, symSize: 0x10 }
  - { offsetInCU: 0x9F, offset: 0x16894, size: 0x8, addend: 0x0, symName: __ZN3std2rt10lang_start17hc240030ec1539e57E, symObjAddr: 0x0, symBinAddr: 0x100006300, symSize: 0x30 }
  - { offsetInCU: 0x15E, offset: 0x16953, size: 0x8, addend: 0x0, symName: '__ZN4core3ops8function6FnOnce40call_once$u7b$$u7b$vtable.shim$u7d$$u7d$17h025e7c023deb9d83E', symObjAddr: 0x40, symBinAddr: 0x100006340, symSize: 0x10 }
  - { offsetInCU: 0x1D8, offset: 0x169CD, size: 0x8, addend: 0x0, symName: '__ZN4core3ptr85drop_in_place$LT$std..rt..lang_start$LT$$LP$$RP$$GT$..$u7b$$u7b$closure$u7d$$u7d$$GT$17h8b975e9ac9151789E', symObjAddr: 0x50, symBinAddr: 0x100006350, symSize: 0x6 }
  - { offsetInCU: 0x1E, offset: 0x16A4E, size: 0x8, addend: 0x0, symName: __ZN3std10sys_common9backtrace26__rust_end_short_backtrace17hb48b5685568fe72eE, symObjAddr: 0x0, symBinAddr: 0x100006360, symSize: 0x10 }
  - { offsetInCU: 0x83, offset: 0x16AB3, size: 0x8, addend: 0x0, symName: '__ZN3std9panicking11begin_panic28_$u7b$$u7b$closure$u7d$$u7d$17h75d9cd293d2bfcceE', symObjAddr: 0x20, symBinAddr: 0x100006380, symSize: 0x40 }
  - { offsetInCU: 0x120, offset: 0x16B50, size: 0x8, addend: 0x0, symName: __ZN3std10sys_common9backtrace26__rust_end_short_backtrace17hb48b5685568fe72eE, symObjAddr: 0x0, symBinAddr: 0x100006360, symSize: 0x10 }
  - { offsetInCU: 0x15B, offset: 0x16B8B, size: 0x8, addend: 0x0, symName: __ZN3std10sys_common9backtrace28__rust_begin_short_backtrace17he211362ecf59f070E, symObjAddr: 0x10, symBinAddr: 0x100006370, symSize: 0x10 }
  - { offsetInCU: 0x2E7, offset: 0x16D17, size: 0x8, addend: 0x0, symName: '__ZN4core3ptr72drop_in_place$LT$std..panicking..begin_panic..Payload$LT$$RF$str$GT$$GT$17he722a86275ae5e3aE', symObjAddr: 0x60, symBinAddr: 0x1000063C0, symSize: 0x6 }
  - { offsetInCU: 0x1E, offset: 0x16DF3, size: 0x8, addend: 0x0, symName: '__ZN44_$LT$$RF$T$u20$as$u20$core..fmt..Display$GT$3fmt17h86da944009af8cf5E', symObjAddr: 0x0, symBinAddr: 0x1000063D0, symSize: 0x20 }
  - { offsetInCU: 0x97, offset: 0x16E6C, size: 0x8, addend: 0x0, symName: '__ZN44_$LT$$RF$T$u20$as$u20$core..fmt..Display$GT$3fmt17h86da944009af8cf5E', symObjAddr: 0x0, symBinAddr: 0x1000063D0, symSize: 0x20 }
  - { offsetInCU: 0x105, offset: 0x16EDA, size: 0x8, addend: 0x0, symName: '__ZN44_$LT$$RF$T$u20$as$u20$core..fmt..Display$GT$3fmt17hd5bf82350fd91d26E', symObjAddr: 0x20, symBinAddr: 0x1000063F0, symSize: 0x17 }
  - { offsetInCU: 0x1E, offset: 0x1711E, size: 0x8, addend: 0x0, symName: '__ZN36_$LT$T$u20$as$u20$core..any..Any$GT$7type_id17hc12bd738efa1c89eE', symObjAddr: 0x0, symBinAddr: 0x100006410, symSize: 0x1A }
  - { offsetInCU: 0x3A, offset: 0x1713A, size: 0x8, addend: 0x0, symName: '__ZN36_$LT$T$u20$as$u20$core..any..Any$GT$7type_id17hc12bd738efa1c89eE', symObjAddr: 0x0, symBinAddr: 0x100006410, symSize: 0x1A }
...
