---
triple:          'x86_64-apple-darwin'
binary-path:     "/Users/justinlanouette/Chaos/ChaöS-Token/hello_world/target/release/deps/libthiserror_impl-ababaf625aec638c.dylib"
relocations:
  - { offsetInCU: 0x1E, offset: 0x1E, size: 0x8, addend: 0x0, symName: '__ZN4core3ptr179drop_in_place$LT$$LP$alloc..collections..btree..set..BTreeSet$LT$alloc..string..String$GT$$C$syn..punctuated..Punctuated$LT$proc_macro2..TokenStream$C$syn..token..Plus$GT$$RP$$GT$17h5c69531a023fca6eE.llvm.5104968171340177407', symObjAddr: 0x0, symBinAddr: 0x12F0, symSize: 0x1B0 }
  - { offsetInCU: 0x464, offset: 0x464, size: 0x8, addend: 0x0, symName: '__ZN4core3ptr179drop_in_place$LT$$LP$alloc..collections..btree..set..BTreeSet$LT$alloc..string..String$GT$$C$syn..punctuated..Punctuated$LT$proc_macro2..TokenStream$C$syn..token..Plus$GT$$RP$$GT$17h5c69531a023fca6eE.llvm.5104968171340177407', symObjAddr: 0x0, symBinAddr: 0x12F0, symSize: 0x1B0 }
  - { offsetInCU: 0xAE9, offset: 0xAE9, size: 0x8, addend: 0x0, symName: '__ZN4core3ptr211drop_in_place$LT$$LP$alloc..string..String$C$$LP$alloc..collections..btree..set..BTreeSet$LT$alloc..string..String$GT$$C$syn..punctuated..Punctuated$LT$proc_macro2..TokenStream$C$syn..token..Plus$GT$$RP$$RP$$GT$17h311d66ebe7f84631E', symObjAddr: 0x1B0, symBinAddr: 0x14A0, symSize: 0x40 }
  - { offsetInCU: 0x10D5, offset: 0x10D5, size: 0x8, addend: 0x0, symName: '__ZN4core3ptr98drop_in_place$LT$core..option..Option$LT$alloc..boxed..Box$LT$proc_macro2..TokenStream$GT$$GT$$GT$17h8df648a1d291a1d3E.llvm.5104968171340177407', symObjAddr: 0x240, symBinAddr: 0x14E0, symSize: 0x160 }
  - { offsetInCU: 0x1661, offset: 0x1661, size: 0x8, addend: 0x0, symName: '__ZN4core3ptr99drop_in_place$LT$syn..punctuated..Punctuated$LT$proc_macro2..TokenStream$C$syn..token..Plus$GT$$GT$17h4046f612d4a68d1cE.llvm.5104968171340177407', symObjAddr: 0x3A0, symBinAddr: 0x1640, symSize: 0xD0 }
  - { offsetInCU: 0xEBCB, offset: 0xEBCB, size: 0x8, addend: 0x0, symName: '__ZN5alloc11collections5btree4node210Handle$LT$alloc..collections..btree..node..NodeRef$LT$alloc..collections..btree..node..marker..Mut$C$K$C$V$C$alloc..collections..btree..node..marker..Leaf$GT$$C$alloc..collections..btree..node..marker..Edge$GT$16insert_recursing17h22b2fd9178faf453E', symObjAddr: 0xA30, symBinAddr: 0x1710, symSize: 0xAB0 }
  - { offsetInCU: 0x12226, offset: 0x12226, size: 0x8, addend: 0x0, symName: '__ZN5alloc11collections5btree4node210Handle$LT$alloc..collections..btree..node..NodeRef$LT$alloc..collections..btree..node..marker..Mut$C$K$C$V$C$alloc..collections..btree..node..marker..Leaf$GT$$C$alloc..collections..btree..node..marker..Edge$GT$16insert_recursing17h644b1373758ad0a1E', symObjAddr: 0x14E0, symBinAddr: 0x21C0, symSize: 0xC10 }
  - { offsetInCU: 0x15929, offset: 0x15929, size: 0x8, addend: 0x0, symName: '__ZN5alloc11collections5btree4node210Handle$LT$alloc..collections..btree..node..NodeRef$LT$alloc..collections..btree..node..marker..Mut$C$K$C$V$C$alloc..collections..btree..node..marker..Leaf$GT$$C$alloc..collections..btree..node..marker..Edge$GT$16insert_recursing17hbea129f6cb64a1d6E', symObjAddr: 0x20F0, symBinAddr: 0x2DD0, symSize: 0x14B0 }
  - { offsetInCU: 0x19622, offset: 0x19622, size: 0x8, addend: 0x0, symName: '__ZN5alloc11collections5btree4node210Handle$LT$alloc..collections..btree..node..NodeRef$LT$alloc..collections..btree..node..marker..Mut$C$K$C$V$C$alloc..collections..btree..node..marker..Leaf$GT$$C$alloc..collections..btree..node..marker..Edge$GT$16insert_recursing17hd561d99e24648d80E', symObjAddr: 0x35A0, symBinAddr: 0x4280, symSize: 0x990 }
  - { offsetInCU: 0x1C636, offset: 0x1C636, size: 0x8, addend: 0x0, symName: '__ZN5alloc11collections5btree6append178_$LT$impl$u20$alloc..collections..btree..node..NodeRef$LT$alloc..collections..btree..node..marker..Owned$C$K$C$V$C$alloc..collections..btree..node..marker..LeafOrInternal$GT$$GT$9bulk_push17h5d7291943539865eE', symObjAddr: 0x3F30, symBinAddr: 0x4C10, symSize: 0x660 }
  - { offsetInCU: 0x1E, offset: 0x2271C, size: 0x8, addend: 0x0, symName: '__ZN4core3ptr100drop_in_place$LT$core..option..Option$LT$alloc..boxed..Box$LT$syn..path..GenericArgument$GT$$GT$$GT$17h4ad733554d99479dE', symObjAddr: 0x0, symBinAddr: 0x5270, symSize: 0x50 }
  - { offsetInCU: 0xB4E, offset: 0x2324C, size: 0x8, addend: 0x0, symName: __ZN14thiserror_impl6expand6derive17h5123a93494ccc415E, symObjAddr: 0x6870, symBinAddr: 0xBAE0, symSize: 0xBD0 }
  - { offsetInCU: 0x1885, offset: 0x23F83, size: 0x8, addend: 0x0, symName: __ZN14thiserror_impl6expand11impl_struct17h8cac8160e176d593E, symObjAddr: 0x7440, symBinAddr: 0xC6B0, symSize: 0x46F0 }
  - { offsetInCU: 0x67AD, offset: 0x28EAB, size: 0x8, addend: 0x0, symName: __ZN14thiserror_impl6expand9impl_enum17h407cf2bdf8976d14E, symObjAddr: 0xBB30, symBinAddr: 0x10DA0, symSize: 0x5040 }
  - { offsetInCU: 0xC711, offset: 0x2EE0F, size: 0x8, addend: 0x0, symName: __ZN14thiserror_impl6expand10fields_pat17h5e0d1d7cde785b0bE, symObjAddr: 0x10B70, symBinAddr: 0x15DE0, symSize: 0x590 }
  - { offsetInCU: 0xD0E2, offset: 0x2F7E0, size: 0x8, addend: 0x0, symName: __ZN14thiserror_impl6expand14use_as_display17h2bd66153e6ab3d43E, symObjAddr: 0x11100, symBinAddr: 0x16370, symSize: 0x100 }
  - { offsetInCU: 0xD1AD, offset: 0x2F8AB, size: 0x8, addend: 0x0, symName: __ZN14thiserror_impl6expand16from_initializer17had7c9aebaf371e5cE, symObjAddr: 0x11200, symBinAddr: 0x16470, symSize: 0x960 }
  - { offsetInCU: 0xE0EF, offset: 0x307ED, size: 0x8, addend: 0x0, symName: __ZN14thiserror_impl6expand15unoptional_type17h182586c4e66314d8E, symObjAddr: 0x11B60, symBinAddr: 0x16DD0, symSize: 0x1AF }
  - { offsetInCU: 0xFAFF, offset: 0x321FD, size: 0x8, addend: 0x0, symName: '__ZN4core3ptr100drop_in_place$LT$core..option..Option$LT$alloc..boxed..Box$LT$syn..path..GenericArgument$GT$$GT$$GT$17h4ad733554d99479dE', symObjAddr: 0x0, symBinAddr: 0x5270, symSize: 0x50 }
  - { offsetInCU: 0xFE9F, offset: 0x3259D, size: 0x8, addend: 0x0, symName: '__ZN4core3ptr100drop_in_place$LT$syn..punctuated..Punctuated$LT$syn..path..PathSegment$C$syn..token..PathSep$GT$$GT$17h8ebc154637df8ffbE', symObjAddr: 0x50, symBinAddr: 0x52C0, symSize: 0x280 }
  - { offsetInCU: 0x1094C, offset: 0x3304A, size: 0x8, addend: 0x0, symName: '__ZN4core3ptr103drop_in_place$LT$core..option..Option$LT$alloc..boxed..Box$LT$syn..generics..TypeParamBound$GT$$GT$$GT$17hf0901f177fd8ec83E', symObjAddr: 0x2D0, symBinAddr: 0x5540, symSize: 0x50 }
  - { offsetInCU: 0x10B97, offset: 0x33295, size: 0x8, addend: 0x0, symName: '__ZN4core3ptr103drop_in_place$LT$core..option..Option$LT$alloc..boxed..Box$LT$syn..generics..WherePredicate$GT$$GT$$GT$17heabefb9f353da5c0E', symObjAddr: 0x320, symBinAddr: 0x5590, symSize: 0xD0 }
  - { offsetInCU: 0x10F2A, offset: 0x33628, size: 0x8, addend: 0x0, symName: '__ZN4core3ptr103drop_in_place$LT$syn..punctuated..Punctuated$LT$syn..generics..GenericParam$C$syn..token..Comma$GT$$GT$17hc171c18ee53dbad0E', symObjAddr: 0x3F0, symBinAddr: 0x5660, symSize: 0xF0 }
  - { offsetInCU: 0x113AF, offset: 0x33AAD, size: 0x8, addend: 0x0, symName: '__ZN4core3ptr104drop_in_place$LT$syn..punctuated..Punctuated$LT$syn..generics..TypeParamBound$C$syn..token..Plus$GT$$GT$17hcf5b48af9969cc83E', symObjAddr: 0x4E0, symBinAddr: 0x5750, symSize: 0x260 }
  - { offsetInCU: 0x11DA1, offset: 0x3449F, size: 0x8, addend: 0x0, symName: '__ZN4core3ptr34drop_in_place$LT$syn..lit..Lit$GT$17ha63ef6405732d63fE', symObjAddr: 0x740, symBinAddr: 0x59B0, symSize: 0x110 }
  - { offsetInCU: 0x122DB, offset: 0x349D9, size: 0x8, addend: 0x0, symName: '__ZN4core3ptr34drop_in_place$LT$syn..pat..Pat$GT$17h91c3546b0c499aa4E', symObjAddr: 0x850, symBinAddr: 0x5AC0, symSize: 0xBC0 }
  - { offsetInCU: 0x15918, offset: 0x38016, size: 0x8, addend: 0x0, symName: '__ZN4core3ptr34drop_in_place$LT$syn..ty..Type$GT$17h646f784aaf5cbab1E', symObjAddr: 0x1410, symBinAddr: 0x6680, symSize: 0x510 }
  - { offsetInCU: 0x16F77, offset: 0x39675, size: 0x8, addend: 0x0, symName: '__ZN4core3ptr36drop_in_place$LT$syn..expr..Expr$GT$17hb910290a3af1daefE', symObjAddr: 0x1920, symBinAddr: 0x6B90, symSize: 0x1E10 }
  - { offsetInCU: 0x1F16B, offset: 0x41869, size: 0x8, addend: 0x0, symName: '__ZN4core3ptr36drop_in_place$LT$syn..mac..Macro$GT$17h5f1ece46988e9adcE', symObjAddr: 0x3730, symBinAddr: 0x89A0, symSize: 0x40 }
  - { offsetInCU: 0x1F1A5, offset: 0x418A3, size: 0x8, addend: 0x0, symName: '__ZN4core3ptr36drop_in_place$LT$syn..path..Path$GT$17h00d83a0e1f28cf99E', symObjAddr: 0x3770, symBinAddr: 0x89E0, symSize: 0x240 }
  - { offsetInCU: 0x1FBEE, offset: 0x422EC, size: 0x8, addend: 0x0, symName: '__ZN4core3ptr37drop_in_place$LT$syn..stmt..Block$GT$17h33338ad4c6a9f8a8E', symObjAddr: 0x39B0, symBinAddr: 0x8C20, symSize: 0xD0 }
  - { offsetInCU: 0x1FE92, offset: 0x42590, size: 0x8, addend: 0x0, symName: '__ZN4core3ptr38drop_in_place$LT$syn..expr..Member$GT$17h97aaa8d7a3825814E', symObjAddr: 0x3A80, symBinAddr: 0x8CF0, symSize: 0x30 }
  - { offsetInCU: 0x1FF8F, offset: 0x4268D, size: 0x8, addend: 0x0, symName: '__ZN4core3ptr39drop_in_place$LT$proc_macro2..Ident$GT$17h7dde42b28475f68eE', symObjAddr: 0x3AB0, symBinAddr: 0x8D20, symSize: 0x30 }
  - { offsetInCU: 0x2006D, offset: 0x4276B, size: 0x8, addend: 0x0, symName: '__ZN4core3ptr40drop_in_place$LT$syn..ty..ReturnType$GT$17h88c7077d98a3718fE', symObjAddr: 0x3AE0, symBinAddr: 0x8D50, symSize: 0x50 }
  - { offsetInCU: 0x201DF, offset: 0x428DD, size: 0x8, addend: 0x0, symName: '__ZN4core3ptr41drop_in_place$LT$syn..expr..ExprConst$GT$17h56a43a7f2459f7b8E', symObjAddr: 0x3B30, symBinAddr: 0x8DA0, symSize: 0x120 }
  - { offsetInCU: 0x206A0, offset: 0x42D9E, size: 0x8, addend: 0x0, symName: '__ZN4core3ptr44drop_in_place$LT$syn..lifetime..Lifetime$GT$17h759c84ac0687907aE', symObjAddr: 0x3C50, symBinAddr: 0x8EC0, symSize: 0x30 }
  - { offsetInCU: 0x208D3, offset: 0x42FD1, size: 0x8, addend: 0x0, symName: '__ZN4core3ptr45drop_in_place$LT$proc_macro2..TokenStream$GT$17h0753e791e3190ac8E', symObjAddr: 0x3C80, symBinAddr: 0x8EF0, symSize: 0x140 }
  - { offsetInCU: 0x20D42, offset: 0x43440, size: 0x8, addend: 0x0, symName: '__ZN4core3ptr45drop_in_place$LT$syn..generics..TypeParam$GT$17hf6c689bf92fae6b2E', symObjAddr: 0x3DC0, symBinAddr: 0x9030, symSize: 0x1E0 }
  - { offsetInCU: 0x2149C, offset: 0x43B9A, size: 0x8, addend: 0x0, symName: '__ZN4core3ptr46drop_in_place$LT$syn..generics..ConstParam$GT$17h84ae073706aff006E', symObjAddr: 0x3FA0, symBinAddr: 0x9210, symSize: 0x100 }
  - { offsetInCU: 0x218A0, offset: 0x43F9E, size: 0x8, addend: 0x0, symName: '__ZN4core3ptr46drop_in_place$LT$thiserror_impl..ast..Enum$GT$17ha85448c87a3f926fE', symObjAddr: 0x40A0, symBinAddr: 0x9310, symSize: 0x200 }
  - { offsetInCU: 0x22100, offset: 0x447FE, size: 0x8, addend: 0x0, symName: '__ZN4core3ptr47drop_in_place$LT$syn..generics..WhereClause$GT$17hfb87769c8613c92cE', symObjAddr: 0x42A0, symBinAddr: 0x9510, symSize: 0x80 }
  - { offsetInCU: 0x22384, offset: 0x44A82, size: 0x8, addend: 0x0, symName: '__ZN4core3ptr47drop_in_place$LT$syn..path..GenericArgument$GT$17h1e97a51d0bfa8d79E', symObjAddr: 0x4320, symBinAddr: 0x9590, symSize: 0x4A0 }
  - { offsetInCU: 0x23469, offset: 0x45B67, size: 0x8, addend: 0x0, symName: '__ZN4core3ptr48drop_in_place$LT$thiserror_impl..ast..Struct$GT$17ha1f03d89b52d4558E', symObjAddr: 0x47C0, symBinAddr: 0x9A30, symSize: 0x1A0 }
  - { offsetInCU: 0x23BEC, offset: 0x462EA, size: 0x8, addend: 0x0, symName: '__ZN4core3ptr49drop_in_place$LT$syn..generics..LifetimeParam$GT$17h3c90f2e78b6ca927E', symObjAddr: 0x4960, symBinAddr: 0x9BD0, symSize: 0xA0 }
  - { offsetInCU: 0x23F06, offset: 0x46604, size: 0x8, addend: 0x0, symName: '__ZN4core3ptr50drop_in_place$LT$syn..generics..TypeParamBound$GT$17h7b9343174e39278bE', symObjAddr: 0x4A00, symBinAddr: 0x9C70, symSize: 0xA0 }
  - { offsetInCU: 0x2406D, offset: 0x4676B, size: 0x8, addend: 0x0, symName: '__ZN4core3ptr58drop_in_place$LT$alloc..vec..Vec$LT$syn..expr..Arm$GT$$GT$17ha7bc79fcc49d0e19E', symObjAddr: 0x4AA0, symBinAddr: 0x9D10, symSize: 0xD0 }
  - { offsetInCU: 0x242FA, offset: 0x469F8, size: 0x8, addend: 0x0, symName: '__ZN4core3ptr59drop_in_place$LT$alloc..boxed..Box$LT$syn..pat..Pat$GT$$GT$17h49ffe6535f47318fE', symObjAddr: 0x4B70, symBinAddr: 0x9DE0, symSize: 0x50 }
  - { offsetInCU: 0x24455, offset: 0x46B53, size: 0x8, addend: 0x0, symName: '__ZN4core3ptr59drop_in_place$LT$alloc..boxed..Box$LT$syn..ty..Type$GT$$GT$17h36cfce59f01f3a8fE', symObjAddr: 0x4BC0, symBinAddr: 0x9E30, symSize: 0x50 }
  - { offsetInCU: 0x245B0, offset: 0x46CAE, size: 0x8, addend: 0x0, symName: '__ZN4core3ptr61drop_in_place$LT$alloc..boxed..Box$LT$syn..expr..Expr$GT$$GT$17he2adadfca53b3509E', symObjAddr: 0x4C10, symBinAddr: 0x9E80, symSize: 0x50 }
  - { offsetInCU: 0x24787, offset: 0x46E85, size: 0x8, addend: 0x0, symName: '__ZN4core3ptr61drop_in_place$LT$syn..path..ParenthesizedGenericArguments$GT$17h4cd7782735b88d96E', symObjAddr: 0x4C60, symBinAddr: 0x9ED0, symSize: 0x170 }
  - { offsetInCU: 0x24DAB, offset: 0x474A9, size: 0x8, addend: 0x0, symName: '__ZN4core3ptr61drop_in_place$LT$thiserror_impl..generics..InferredBounds$GT$17h6cd097322f31a32aE', symObjAddr: 0x4DD0, symBinAddr: 0xA040, symSize: 0xE0 }
  - { offsetInCU: 0x2506C, offset: 0x4776A, size: 0x8, addend: 0x0, symName: '__ZN4core3ptr62drop_in_place$LT$syn..path..AngleBracketedGenericArguments$GT$17hac124dd118513038E', symObjAddr: 0x4EB0, symBinAddr: 0xA120, symSize: 0x120 }
  - { offsetInCU: 0x25482, offset: 0x47B80, size: 0x8, addend: 0x0, symName: '__ZN4core3ptr63drop_in_place$LT$alloc..boxed..Box$LT$syn..lit..LitRepr$GT$$GT$17hc5bc8ee019cad972E', symObjAddr: 0x4FD0, symBinAddr: 0xA240, symSize: 0x60 }
  - { offsetInCU: 0x25777, offset: 0x47E75, size: 0x8, addend: 0x0, symName: '__ZN4core3ptr64drop_in_place$LT$alloc..boxed..Box$LT$syn..pat..FieldPat$GT$$GT$17h770150671720e9c0E', symObjAddr: 0x5030, symBinAddr: 0xA2A0, symSize: 0x100 }
  - { offsetInCU: 0x25D92, offset: 0x48490, size: 0x8, addend: 0x0, symName: '__ZN4core3ptr64drop_in_place$LT$alloc..boxed..Box$LT$syn..ty..BareFnArg$GT$$GT$17h15a58aeff26cf7b1E', symObjAddr: 0x5130, symBinAddr: 0xA3A0, symSize: 0xF0 }
  - { offsetInCU: 0x26224, offset: 0x48922, size: 0x8, addend: 0x0, symName: '__ZN4core3ptr65drop_in_place$LT$core..option..Option$LT$syn..expr..Label$GT$$GT$17hbeb69ff24f6d12a3E', symObjAddr: 0x5220, symBinAddr: 0xA490, symSize: 0x30 }
  - { offsetInCU: 0x2635F, offset: 0x48A5D, size: 0x8, addend: 0x0, symName: '__ZN4core3ptr66drop_in_place$LT$core..option..Option$LT$syn..pat..PatRest$GT$$GT$17hb16059a77742bcc2E', symObjAddr: 0x5250, symBinAddr: 0xA4C0, symSize: 0x70 }
  - { offsetInCU: 0x265B5, offset: 0x48CB3, size: 0x8, addend: 0x0, symName: '__ZN4core3ptr67drop_in_place$LT$alloc..boxed..Box$LT$syn..expr..FieldValue$GT$$GT$17h31092deaee4fbb6bE', symObjAddr: 0x52C0, symBinAddr: 0xA530, symSize: 0xF0 }
  - { offsetInCU: 0x26A27, offset: 0x49125, size: 0x8, addend: 0x0, symName: '__ZN4core3ptr68drop_in_place$LT$alloc..boxed..Box$LT$syn..path..PathSegment$GT$$GT$17h389b073a071a136cE', symObjAddr: 0x53B0, symBinAddr: 0xA620, symSize: 0x190 }
  - { offsetInCU: 0x270E6, offset: 0x497E4, size: 0x8, addend: 0x0, symName: '__ZN4core3ptr68drop_in_place$LT$alloc..vec..Vec$LT$proc_macro2..TokenStream$GT$$GT$17h602e5c79ddc47eb6E', symObjAddr: 0x5540, symBinAddr: 0xA7B0, symSize: 0xC0 }
  - { offsetInCU: 0x27373, offset: 0x49A71, size: 0x8, addend: 0x0, symName: '__ZN4core3ptr70drop_in_place$LT$alloc..vec..Vec$LT$thiserror_impl..ast..Field$GT$$GT$17h74fd0d23ff172c8aE', symObjAddr: 0x5600, symBinAddr: 0xA870, symSize: 0x60 }
  - { offsetInCU: 0x27587, offset: 0x49C85, size: 0x8, addend: 0x0, symName: '__ZN4core3ptr70drop_in_place$LT$core..option..Option$LT$syn..ty..BareVariadic$GT$$GT$17h5d50785ed896ab9aE', symObjAddr: 0x5660, symBinAddr: 0xA8D0, symSize: 0xC0 }
  - { offsetInCU: 0x27A14, offset: 0x4A112, size: 0x8, addend: 0x0, symName: '__ZN4core3ptr72drop_in_place$LT$alloc..boxed..Box$LT$syn..path..GenericArgument$GT$$GT$17h0167b8c28da927e0E', symObjAddr: 0x5720, symBinAddr: 0xA990, symSize: 0x2B0 }
  - { offsetInCU: 0x2839F, offset: 0x4AA9D, size: 0x8, addend: 0x0, symName: '__ZN4core3ptr72drop_in_place$LT$alloc..vec..Vec$LT$thiserror_impl..ast..Variant$GT$$GT$17h989be9cf441dcc50E', symObjAddr: 0x59D0, symBinAddr: 0xAC40, symSize: 0xD0 }
  - { offsetInCU: 0x2862C, offset: 0x4AD2A, size: 0x8, addend: 0x0, symName: '__ZN4core3ptr72drop_in_place$LT$core..option..Option$LT$syn..lifetime..Lifetime$GT$$GT$17h1cec8fef0bb8367dE', symObjAddr: 0x5AA0, symBinAddr: 0xAD10, symSize: 0x30 }
  - { offsetInCU: 0x28748, offset: 0x4AE46, size: 0x8, addend: 0x0, symName: '__ZN4core3ptr73drop_in_place$LT$alloc..boxed..Box$LT$syn..generics..GenericParam$GT$$GT$17h858b54a69accfd4dE', symObjAddr: 0x5AD0, symBinAddr: 0xAD40, symSize: 0x80 }
  - { offsetInCU: 0x288C0, offset: 0x4AFBE, size: 0x8, addend: 0x0, symName: '__ZN4core3ptr75drop_in_place$LT$alloc..boxed..Box$LT$syn..generics..TypeParamBound$GT$$GT$17h3da0d8fba9b3862cE', symObjAddr: 0x5B50, symBinAddr: 0xADC0, symSize: 0x190 }
  - { offsetInCU: 0x28F9A, offset: 0x4B698, size: 0x8, addend: 0x0, symName: '__ZN4core3ptr86drop_in_place$LT$syn..punctuated..Punctuated$LT$syn..pat..Pat$C$syn..token..Or$GT$$GT$17h857c4222dd642261E', symObjAddr: 0x5CE0, symBinAddr: 0xAF50, symSize: 0x120 }
  - { offsetInCU: 0x293E0, offset: 0x4BADE, size: 0x8, addend: 0x0, symName: '__ZN4core3ptr87drop_in_place$LT$core..option..Option$LT$alloc..boxed..Box$LT$syn..pat..Pat$GT$$GT$$GT$17hb3c11e9d12bcdbd1E', symObjAddr: 0x5E00, symBinAddr: 0xB070, symSize: 0x50 }
  - { offsetInCU: 0x29552, offset: 0x4BC50, size: 0x8, addend: 0x0, symName: '__ZN4core3ptr87drop_in_place$LT$core..option..Option$LT$alloc..boxed..Box$LT$syn..ty..Type$GT$$GT$$GT$17h407163ef6663e2ffE', symObjAddr: 0x5E50, symBinAddr: 0xB0C0, symSize: 0x50 }
  - { offsetInCU: 0x296C4, offset: 0x4BDC2, size: 0x8, addend: 0x0, symName: '__ZN4core3ptr89drop_in_place$LT$core..option..Option$LT$alloc..boxed..Box$LT$syn..expr..Expr$GT$$GT$$GT$17h8a4fcd655c85b4e5E', symObjAddr: 0x5EA0, symBinAddr: 0xB110, symSize: 0x50 }
  - { offsetInCU: 0x29874, offset: 0x4BF72, size: 0x8, addend: 0x0, symName: '__ZN4core3ptr89drop_in_place$LT$syn..punctuated..Punctuated$LT$syn..pat..Pat$C$syn..token..Comma$GT$$GT$17hb086995bcf66ffcdE', symObjAddr: 0x5EF0, symBinAddr: 0xB160, symSize: 0x120 }
  - { offsetInCU: 0x29CD1, offset: 0x4C3CF, size: 0x8, addend: 0x0, symName: '__ZN4core3ptr89drop_in_place$LT$syn..punctuated..Punctuated$LT$syn..ty..Type$C$syn..token..Comma$GT$$GT$17h22647ef5f64debb9E', symObjAddr: 0x6010, symBinAddr: 0xB280, symSize: 0x120 }
  - { offsetInCU: 0x2A11B, offset: 0x4C819, size: 0x8, addend: 0x0, symName: '__ZN4core3ptr90drop_in_place$LT$core..option..Option$LT$syn..path..AngleBracketedGenericArguments$GT$$GT$17h2082dea84519cea9E', symObjAddr: 0x6130, symBinAddr: 0xB3A0, symSize: 0x130 }
  - { offsetInCU: 0x2A586, offset: 0x4CC84, size: 0x8, addend: 0x0, symName: '__ZN4core3ptr91drop_in_place$LT$syn..punctuated..Punctuated$LT$syn..expr..Expr$C$syn..token..Comma$GT$$GT$17h0369d12efd25ffe5E', symObjAddr: 0x6260, symBinAddr: 0xB4D0, symSize: 0x120 }
  - { offsetInCU: 0x2A9E3, offset: 0x4D0E1, size: 0x8, addend: 0x0, symName: '__ZN4core3ptr94drop_in_place$LT$syn..punctuated..Punctuated$LT$syn..pat..FieldPat$C$syn..token..Comma$GT$$GT$17ha79305f2d14a963bE', symObjAddr: 0x6380, symBinAddr: 0xB5F0, symSize: 0xF0 }
  - { offsetInCU: 0x2ACAD, offset: 0x4D3AB, size: 0x8, addend: 0x0, symName: '__ZN4core3ptr94drop_in_place$LT$syn..punctuated..Punctuated$LT$syn..ty..BareFnArg$C$syn..token..Comma$GT$$GT$17h17c7f848dd9be9aeE', symObjAddr: 0x6470, symBinAddr: 0xB6E0, symSize: 0xF0 }
  - { offsetInCU: 0x2AF77, offset: 0x4D675, size: 0x8, addend: 0x0, symName: '__ZN4core3ptr96drop_in_place$LT$core..option..Option$LT$alloc..boxed..Box$LT$syn..path..PathSegment$GT$$GT$$GT$17h1891276410ff88caE', symObjAddr: 0x6560, symBinAddr: 0xB7D0, symSize: 0x90 }
  - { offsetInCU: 0x2B1F9, offset: 0x4D8F7, size: 0x8, addend: 0x0, symName: '__ZN4core3ptr97drop_in_place$LT$syn..punctuated..Punctuated$LT$syn..expr..FieldValue$C$syn..token..Comma$GT$$GT$17hed66755c87efe679E', symObjAddr: 0x65F0, symBinAddr: 0xB860, symSize: 0xF0 }
  - { offsetInCU: 0x2B4C3, offset: 0x4DBC1, size: 0x8, addend: 0x0, symName: '__ZN4core3ptr98drop_in_place$LT$alloc..vec..Vec$LT$$LP$syn..path..GenericArgument$C$syn..token..Comma$RP$$GT$$GT$17h21ee089563ac5e47E', symObjAddr: 0x66E0, symBinAddr: 0xB950, symSize: 0xD0 }
  - { offsetInCU: 0x2B7CC, offset: 0x4DECA, size: 0x8, addend: 0x0, symName: '__ZN4core3ptr98drop_in_place$LT$syn..punctuated..Punctuated$LT$syn..lifetime..Lifetime$C$syn..token..Plus$GT$$GT$17h629d02c6fce7523dE', symObjAddr: 0x67B0, symBinAddr: 0xBA20, symSize: 0xC0 }
  - { offsetInCU: 0x1E, offset: 0x6049C, size: 0x8, addend: 0x0, symName: '__ZN39_$LT$T$u20$as$u20$syn..token..Token$GT$4peek17h8cf62e84f9101dfeE', symObjAddr: 0x0, symBinAddr: 0x16F80, symSize: 0x120 }
  - { offsetInCU: 0xAF, offset: 0x6052D, size: 0x8, addend: 0x0, symName: '__ZN58_$LT$alloc..string..String$u20$as$u20$core..fmt..Write$GT$10write_char17hd329c0cb943f081aE', symObjAddr: 0x1390, symBinAddr: 0x18310, symSize: 0x130 }
  - { offsetInCU: 0x456, offset: 0x608D4, size: 0x8, addend: 0x0, symName: '__ZN58_$LT$alloc..string..String$u20$as$u20$core..fmt..Write$GT$9write_str17h1ff5aa96ca91c6d5E', symObjAddr: 0x14C0, symBinAddr: 0x18440, symSize: 0x60 }
  - { offsetInCU: 0x312A, offset: 0x635A8, size: 0x8, addend: 0x0, symName: '__ZN4core3ptr113drop_in_place$LT$core..option..Option$LT$core..result..Result$LT$syn..expr..Index$C$syn..error..Error$GT$$GT$$GT$17hba4ec5a474faa12aE', symObjAddr: 0x9E0, symBinAddr: 0x17960, symSize: 0x90 }
  - { offsetInCU: 0x33F1, offset: 0x6386F, size: 0x8, addend: 0x0, symName: '__ZN4core3ptr311drop_in_place$LT$$LP$core..option..Option$LT$core..result..Result$LT$syn..expr..Index$C$syn..error..Error$GT$$GT$$C$core..option..Option$LT$core..result..Result$LT$syn..expr..Index$C$syn..error..Error$GT$$GT$$C$core..option..Option$LT$core..result..Result$LT$syn..expr..Index$C$syn..error..Error$GT$$GT$$RP$$GT$17h44f18d2df5b1186fE', symObjAddr: 0xA70, symBinAddr: 0x179F0, symSize: 0x150 }
  - { offsetInCU: 0x3C17, offset: 0x64095, size: 0x8, addend: 0x0, symName: '__ZN4core3ptr37drop_in_place$LT$core..fmt..Error$GT$17h89a04fbb18211e31E', symObjAddr: 0xBC0, symBinAddr: 0x17B40, symSize: 0x10 }
  - { offsetInCU: 0x3C43, offset: 0x640C1, size: 0x8, addend: 0x0, symName: '__ZN4core3ptr37drop_in_place$LT$syn..lit..LitStr$GT$17hf34f6eeaedc0392bE', symObjAddr: 0xBD0, symBinAddr: 0x17B50, symSize: 0x60 }
  - { offsetInCU: 0x3F2F, offset: 0x643AD, size: 0x8, addend: 0x0, symName: '__ZN4core3ptr38drop_in_place$LT$syn..error..Error$GT$17hcf149843d3ac9f0eE', symObjAddr: 0xC30, symBinAddr: 0x17BB0, symSize: 0x80 }
  - { offsetInCU: 0x4304, offset: 0x64782, size: 0x8, addend: 0x0, symName: '__ZN4core3ptr39drop_in_place$LT$proc_macro2..Group$GT$17h2c0ea0b86c47ce86E', symObjAddr: 0xCB0, symBinAddr: 0x17C30, symSize: 0x60 }
  - { offsetInCU: 0x4471, offset: 0x648EF, size: 0x8, addend: 0x0, symName: '__ZN4core3ptr39drop_in_place$LT$syn..buffer..Entry$GT$17h9feaea0f507eeb5aE', symObjAddr: 0xD10, symBinAddr: 0x17C90, symSize: 0xC0 }
  - { offsetInCU: 0x47C3, offset: 0x64C41, size: 0x8, addend: 0x0, symName: '__ZN4core3ptr39drop_in_place$LT$syn..lit..LitFloat$GT$17h2032b86727f5a244E', symObjAddr: 0xDD0, symBinAddr: 0x17D50, symSize: 0x70 }
  - { offsetInCU: 0x4B43, offset: 0x64FC1, size: 0x8, addend: 0x0, symName: '__ZN4core3ptr42drop_in_place$LT$alloc..string..String$GT$17h63c6e5dcbf4cc5c0E', symObjAddr: 0xE40, symBinAddr: 0x17DC0, symSize: 0x20 }
  - { offsetInCU: 0x4C4C, offset: 0x650CA, size: 0x8, addend: 0x0, symName: '__ZN4core3ptr43drop_in_place$LT$proc_macro2..TokenTree$GT$17h840ac8992bf3df34E', symObjAddr: 0xE60, symBinAddr: 0x17DE0, symSize: 0xB0 }
  - { offsetInCU: 0x4F60, offset: 0x653DE, size: 0x8, addend: 0x0, symName: '__ZN4core3ptr44drop_in_place$LT$syn..parse..ParseBuffer$GT$17hb2e2b78f44f0e5baE', symObjAddr: 0xF10, symBinAddr: 0x17E90, symSize: 0x70 }
  - { offsetInCU: 0x52FA, offset: 0x65778, size: 0x8, addend: 0x0, symName: '__ZN4core3ptr45drop_in_place$LT$proc_macro2..TokenStream$GT$17h0753e791e3190ac8E.llvm.15002128705858573172', symObjAddr: 0xF80, symBinAddr: 0x17F00, symSize: 0x140 }
  - { offsetInCU: 0x572B, offset: 0x65BA9, size: 0x8, addend: 0x0, symName: '__ZN4core3ptr45drop_in_place$LT$syn..buffer..TokenBuffer$GT$17h800090e72c42b511E', symObjAddr: 0x10C0, symBinAddr: 0x18040, symSize: 0xD0 }
  - { offsetInCU: 0x5972, offset: 0x65DF0, size: 0x8, addend: 0x0, symName: '__ZN4core3ptr48drop_in_place$LT$thiserror_impl..attr..Attrs$GT$17had45fd67af4c1b4cE', symObjAddr: 0x1190, symBinAddr: 0x18110, symSize: 0x100 }
  - { offsetInCU: 0x5E8C, offset: 0x6630A, size: 0x8, addend: 0x0, symName: '__ZN4core3ptr56drop_in_place$LT$proc_macro2..token_stream..IntoIter$GT$17hb261c0af6314bf4eE', symObjAddr: 0x1290, symBinAddr: 0x18210, symSize: 0x20 }
  - { offsetInCU: 0x5F5B, offset: 0x663D9, size: 0x8, addend: 0x0, symName: '__ZN4core3ptr66drop_in_place$LT$alloc..vec..Vec$LT$proc_macro2..TokenTree$GT$$GT$17h1f0d5a31a1500f03E', symObjAddr: 0x12B0, symBinAddr: 0x18230, symSize: 0xC0 }
  - { offsetInCU: 0x68D2, offset: 0x66D50, size: 0x8, addend: 0x0, symName: '__ZN53_$LT$core..fmt..Error$u20$as$u20$core..fmt..Debug$GT$3fmt17h43ae5cec9623af13E', symObjAddr: 0x1370, symBinAddr: 0x182F0, symSize: 0x20 }
  - { offsetInCU: 0xA952, offset: 0x6ADD0, size: 0x8, addend: 0x0, symName: '__ZN81_$LT$core..str..pattern..CharSearcher$u20$as$u20$core..str..pattern..Searcher$GT$10next_match17hc7a77fb1661897c4E', symObjAddr: 0x1710, symBinAddr: 0x18620, symSize: 0x200 }
  - { offsetInCU: 0xCD75, offset: 0x6D1F3, size: 0x8, addend: 0x0, symName: '__ZN39_$LT$T$u20$as$u20$syn..token..Token$GT$4peek17h8cf62e84f9101dfeE', symObjAddr: 0x0, symBinAddr: 0x16F80, symSize: 0x120 }
  - { offsetInCU: 0xDF00, offset: 0x6E37E, size: 0x8, addend: 0x0, symName: '__ZN40_$LT$F$u20$as$u20$syn..parse..Parser$GT$14__parse_scoped17hd68f1d96921003beE', symObjAddr: 0x120, symBinAddr: 0x170A0, symSize: 0x8C0 }
  - { offsetInCU: 0x13F4E, offset: 0x743CC, size: 0x8, addend: 0x0, symName: __ZN14thiserror_impl4attr3get17h50eb513d141ad8ccE, symObjAddr: 0x1910, symBinAddr: 0x18820, symSize: 0x6B0 }
  - { offsetInCU: 0x1538A, offset: 0x75808, size: 0x8, addend: 0x0, symName: __ZN14thiserror_impl4attr16parse_token_expr17h784e05b82c2913feE, symObjAddr: 0x1FC0, symBinAddr: 0x18ED0, symSize: 0x1890 }
  - { offsetInCU: 0x195D0, offset: 0x79A4E, size: 0x8, addend: 0x0, symName: '__ZN76_$LT$thiserror_impl..attr..Display$u20$as$u20$quote..to_tokens..ToTokens$GT$9to_tokens17hee9a8557370f5d54E', symObjAddr: 0x3850, symBinAddr: 0x1A760, symSize: 0x1F0 }
  - { offsetInCU: 0x1A5C8, offset: 0x7AA46, size: 0x8, addend: 0x0, symName: __ZN5quote9to_tokens8ToTokens15to_token_stream17h922236d6f8bc84c5E, symObjAddr: 0x1520, symBinAddr: 0x184A0, symSize: 0x180 }
  - { offsetInCU: 0x1CBB9, offset: 0x7D037, size: 0x8, addend: 0x0, symName: '__ZN14thiserror_impl3fmt47_$LT$impl$u20$thiserror_impl..attr..Display$GT$16expand_shorthand17hc27285e21fcb0b0dE', symObjAddr: 0x3A40, symBinAddr: 0x1A950, symSize: 0x2100 }
  - { offsetInCU: 0x1E, offset: 0x8831D, size: 0x8, addend: 0x0, symName: '__ZN4core3ptr100drop_in_place$LT$core..option..Option$LT$alloc..boxed..Box$LT$syn..path..GenericArgument$GT$$GT$$GT$17h4ad733554d99479dE', symObjAddr: 0x0, symBinAddr: 0x1CA50, symSize: 0x50 }
  - { offsetInCU: 0x22F6, offset: 0x8A5F5, size: 0x8, addend: 0x0, symName: '__ZN4core3ptr100drop_in_place$LT$core..option..Option$LT$alloc..boxed..Box$LT$syn..path..GenericArgument$GT$$GT$$GT$17h4ad733554d99479dE', symObjAddr: 0x0, symBinAddr: 0x1CA50, symSize: 0x50 }
  - { offsetInCU: 0x259E, offset: 0x8A89D, size: 0x8, addend: 0x0, symName: '__ZN4core3ptr100drop_in_place$LT$syn..punctuated..Punctuated$LT$syn..path..PathSegment$C$syn..token..PathSep$GT$$GT$17h8ebc154637df8ffbE.llvm.7443784905060182117', symObjAddr: 0x50, symBinAddr: 0x1CAA0, symSize: 0x110 }
  - { offsetInCU: 0x299B, offset: 0x8AC9A, size: 0x8, addend: 0x0, symName: '__ZN4core3ptr101drop_in_place$LT$core..option..Option$LT$alloc..boxed..Box$LT$syn..generics..GenericParam$GT$$GT$$GT$17h1900357a0f2c8ff1E', symObjAddr: 0x160, symBinAddr: 0x1CBB0, symSize: 0x50 }
  - { offsetInCU: 0x2B89, offset: 0x8AE88, size: 0x8, addend: 0x0, symName: '__ZN4core3ptr102drop_in_place$LT$syn..punctuated..Punctuated$LT$syn..path..GenericArgument$C$syn..token..Comma$GT$$GT$17h5cefecd06ef6ddf8E.llvm.7443784905060182117', symObjAddr: 0x1B0, symBinAddr: 0x1CC00, symSize: 0xF0 }
  - { offsetInCU: 0x2E72, offset: 0x8B171, size: 0x8, addend: 0x0, symName: '__ZN4core3ptr103drop_in_place$LT$core..option..Option$LT$alloc..boxed..Box$LT$syn..generics..TypeParamBound$GT$$GT$$GT$17hf0901f177fd8ec83E.llvm.7443784905060182117', symObjAddr: 0x2A0, symBinAddr: 0x1CCF0, symSize: 0x50 }
  - { offsetInCU: 0x3003, offset: 0x8B302, size: 0x8, addend: 0x0, symName: '__ZN4core3ptr103drop_in_place$LT$core..option..Option$LT$alloc..boxed..Box$LT$syn..generics..WherePredicate$GT$$GT$$GT$17heabefb9f353da5c0E', symObjAddr: 0x2F0, symBinAddr: 0x1CD40, symSize: 0x50 }
  - { offsetInCU: 0x322F, offset: 0x8B52E, size: 0x8, addend: 0x0, symName: '__ZN4core3ptr103drop_in_place$LT$syn..punctuated..Punctuated$LT$syn..generics..GenericParam$C$syn..token..Comma$GT$$GT$17hc171c18ee53dbad0E.llvm.7443784905060182117', symObjAddr: 0x340, symBinAddr: 0x1CD90, symSize: 0x1A0 }
  - { offsetInCU: 0x37C0, offset: 0x8BABF, size: 0x8, addend: 0x0, symName: '__ZN4core3ptr104drop_in_place$LT$syn..punctuated..Punctuated$LT$syn..generics..TypeParamBound$C$syn..token..Plus$GT$$GT$17hcf5b48af9969cc83E.llvm.7443784905060182117', symObjAddr: 0x4E0, symBinAddr: 0x1CF30, symSize: 0x190 }
  - { offsetInCU: 0x3E52, offset: 0x8C151, size: 0x8, addend: 0x0, symName: '__ZN4core3ptr105drop_in_place$LT$syn..punctuated..Punctuated$LT$syn..generics..WherePredicate$C$syn..token..Comma$GT$$GT$17h0fde0a4fbeedae89E', symObjAddr: 0x670, symBinAddr: 0x1D0C0, symSize: 0x190 }
  - { offsetInCU: 0x4523, offset: 0x8C822, size: 0x8, addend: 0x0, symName: '__ZN4core3ptr116drop_in_place$LT$core..option..Option$LT$$LP$syn..token..Else$C$alloc..boxed..Box$LT$syn..expr..Expr$GT$$RP$$GT$$GT$17h7716d3d296618da8E', symObjAddr: 0x800, symBinAddr: 0x1D250, symSize: 0x50 }
  - { offsetInCU: 0x46E1, offset: 0x8C9E0, size: 0x8, addend: 0x0, symName: '__ZN4core3ptr126drop_in_place$LT$core..option..Option$LT$$LP$syn..token..And$C$core..option..Option$LT$syn..lifetime..Lifetime$GT$$RP$$GT$$GT$17h69b9cd524c36f7aaE', symObjAddr: 0x850, symBinAddr: 0x1D2A0, symSize: 0x30 }
  - { offsetInCU: 0x4971, offset: 0x8CC70, size: 0x8, addend: 0x0, symName: '__ZN4core3ptr33drop_in_place$LT$syn..ty..Abi$GT$17hb13ae0ce9abe35acE', symObjAddr: 0x880, symBinAddr: 0x1D2D0, symSize: 0x60 }
  - { offsetInCU: 0x498D, offset: 0x8CC8C, size: 0x8, addend: 0x0, symName: '__ZN4core3ptr33drop_in_place$LT$syn..ty..Abi$GT$17hb13ae0ce9abe35acE', symObjAddr: 0x880, symBinAddr: 0x1D2D0, symSize: 0x60 }
  - { offsetInCU: 0x4C87, offset: 0x8CF86, size: 0x8, addend: 0x0, symName: '__ZN4core3ptr34drop_in_place$LT$syn..lit..Lit$GT$17ha63ef6405732d63fE', symObjAddr: 0x8E0, symBinAddr: 0x1D330, symSize: 0x110 }
  - { offsetInCU: 0x525C, offset: 0x8D55B, size: 0x8, addend: 0x0, symName: '__ZN4core3ptr34drop_in_place$LT$syn..pat..Pat$GT$17h91c3546b0c499aa4E.llvm.7443784905060182117', symObjAddr: 0x9F0, symBinAddr: 0x1D440, symSize: 0x10E0 }
  - { offsetInCU: 0x9680, offset: 0x9197F, size: 0x8, addend: 0x0, symName: '__ZN4core3ptr34drop_in_place$LT$syn..ty..Type$GT$17h646f784aaf5cbab1E.llvm.7443784905060182117', symObjAddr: 0x1AD0, symBinAddr: 0x1E520, symSize: 0x4E0 }
  - { offsetInCU: 0xA88F, offset: 0x92B8E, size: 0x8, addend: 0x0, symName: '__ZN4core3ptr35drop_in_place$LT$syn..expr..Arm$GT$17h1d1b9cfbc43a9694E.llvm.7443784905060182117', symObjAddr: 0x1FB0, symBinAddr: 0x1EA00, symSize: 0x190 }
  - { offsetInCU: 0xAE73, offset: 0x93172, size: 0x8, addend: 0x0, symName: '__ZN4core3ptr36drop_in_place$LT$syn..attr..Meta$GT$17h7fb5ceb6104cc653E.llvm.7443784905060182117', symObjAddr: 0x2140, symBinAddr: 0x1EB90, symSize: 0x270 }
  - { offsetInCU: 0xBC2A, offset: 0x93F29, size: 0x8, addend: 0x0, symName: '__ZN4core3ptr36drop_in_place$LT$syn..expr..Expr$GT$17hb910290a3af1daefE.llvm.7443784905060182117', symObjAddr: 0x23B0, symBinAddr: 0x1EE00, symSize: 0x2930 }
  - { offsetInCU: 0x16132, offset: 0x9E431, size: 0x8, addend: 0x0, symName: '__ZN4core3ptr36drop_in_place$LT$syn..item..Item$GT$17h74851cf7727554bbE', symObjAddr: 0x4CE0, symBinAddr: 0x21730, symSize: 0x18F0 }
  - { offsetInCU: 0x1C3E0, offset: 0xA46DF, size: 0x8, addend: 0x0, symName: '__ZN4core3ptr36drop_in_place$LT$syn..mac..Macro$GT$17h5f1ece46988e9adcE', symObjAddr: 0x65D0, symBinAddr: 0x23020, symSize: 0x40 }
  - { offsetInCU: 0x1C41A, offset: 0xA4719, size: 0x8, addend: 0x0, symName: '__ZN4core3ptr36drop_in_place$LT$syn..path..Path$GT$17h00d83a0e1f28cf99E.llvm.7443784905060182117', symObjAddr: 0x6610, symBinAddr: 0x23060, symSize: 0x110 }
  - { offsetInCU: 0x1C8AC, offset: 0xA4BAB, size: 0x8, addend: 0x0, symName: '__ZN4core3ptr36drop_in_place$LT$syn..stmt..Stmt$GT$17h1a5d01f98d2adad5E.llvm.7443784905060182117', symObjAddr: 0x6720, symBinAddr: 0x23170, symSize: 0x2E0 }
  - { offsetInCU: 0x1D19A, offset: 0xA5499, size: 0x8, addend: 0x0, symName: '__ZN4core3ptr37drop_in_place$LT$syn..data..Field$GT$17hfe4d267f4ea3db9aE.llvm.7443784905060182117', symObjAddr: 0x6A00, symBinAddr: 0x23450, symSize: 0x180 }
  - { offsetInCU: 0x1D72B, offset: 0xA5A2A, size: 0x8, addend: 0x0, symName: '__ZN4core3ptr37drop_in_place$LT$syn..item..FnArg$GT$17hb9fee0dca6223b07E', symObjAddr: 0x6B80, symBinAddr: 0x235D0, symSize: 0x230 }
  - { offsetInCU: 0x1DFDD, offset: 0xA62DC, size: 0x8, addend: 0x0, symName: '__ZN4core3ptr37drop_in_place$LT$syn..stmt..Block$GT$17h33338ad4c6a9f8a8E', symObjAddr: 0x6DB0, symBinAddr: 0x23800, symSize: 0xD0 }
  - { offsetInCU: 0x1E281, offset: 0xA6580, size: 0x8, addend: 0x0, symName: '__ZN4core3ptr38drop_in_place$LT$syn..expr..Member$GT$17h97aaa8d7a3825814E.llvm.7443784905060182117', symObjAddr: 0x6E80, symBinAddr: 0x238D0, symSize: 0x30 }
  - { offsetInCU: 0x1E37E, offset: 0xA667D, size: 0x8, addend: 0x0, symName: '__ZN4core3ptr38drop_in_place$LT$syn..pat..PatType$GT$17hf516804d3b1b24baE', symObjAddr: 0x6EB0, symBinAddr: 0x23900, symSize: 0x140 }
  - { offsetInCU: 0x1E8C6, offset: 0xA6BC5, size: 0x8, addend: 0x0, symName: '__ZN4core3ptr39drop_in_place$LT$proc_macro2..Ident$GT$17h7dde42b28475f68eE.llvm.7443784905060182117', symObjAddr: 0x6FF0, symBinAddr: 0x23A40, symSize: 0x30 }
  - { offsetInCU: 0x1EA01, offset: 0xA6D00, size: 0x8, addend: 0x0, symName: '__ZN4core3ptr39drop_in_place$LT$syn..data..Variant$GT$17hc2a9a372ea351cf9E.llvm.7443784905060182117', symObjAddr: 0x7020, symBinAddr: 0x23A70, symSize: 0x2F0 }
  - { offsetInCU: 0x1F5DB, offset: 0xA78DA, size: 0x8, addend: 0x0, symName: '__ZN4core3ptr39drop_in_place$LT$syn..item..UseTree$GT$17h49e4ecf499b8f4feE', symObjAddr: 0x7310, symBinAddr: 0x23D60, symSize: 0x1D0 }
  - { offsetInCU: 0x1FCDB, offset: 0xA7FDA, size: 0x8, addend: 0x0, symName: '__ZN4core3ptr40drop_in_place$LT$syn..item..Receiver$GT$17h2d3a77281f3c3526E', symObjAddr: 0x74E0, symBinAddr: 0x23F30, symSize: 0x130 }
  - { offsetInCU: 0x2027A, offset: 0xA8579, size: 0x8, addend: 0x0, symName: '__ZN4core3ptr40drop_in_place$LT$syn..item..Variadic$GT$17h74a5e9e1384ae308E', symObjAddr: 0x7610, symBinAddr: 0x24060, symSize: 0x120 }
  - { offsetInCU: 0x206BD, offset: 0xA89BC, size: 0x8, addend: 0x0, symName: '__ZN4core3ptr40drop_in_place$LT$syn..ty..ReturnType$GT$17h88c7077d98a3718fE.llvm.7443784905060182117', symObjAddr: 0x7730, symBinAddr: 0x24180, symSize: 0x50 }
  - { offsetInCU: 0x2084E, offset: 0xA8B4D, size: 0x8, addend: 0x0, symName: '__ZN4core3ptr41drop_in_place$LT$syn..attr..Attribute$GT$17hb290468dc6d2529eE.llvm.7443784905060182117', symObjAddr: 0x7780, symBinAddr: 0x241D0, symSize: 0x1A0 }
  - { offsetInCU: 0x20E5B, offset: 0xA915A, size: 0x8, addend: 0x0, symName: '__ZN4core3ptr41drop_in_place$LT$syn..item..Signature$GT$17h5083b151a0e524d8E', symObjAddr: 0x7920, symBinAddr: 0x24370, symSize: 0x280 }
  - { offsetInCU: 0x218ED, offset: 0xA9BEC, size: 0x8, addend: 0x0, symName: '__ZN4core3ptr42drop_in_place$LT$syn..item..ImplItemFn$GT$17hc6013c971be6103fE', symObjAddr: 0x7BA0, symBinAddr: 0x245F0, symSize: 0x230 }
  - { offsetInCU: 0x22014, offset: 0xAA313, size: 0x8, addend: 0x0, symName: '__ZN4core3ptr42drop_in_place$LT$syn..path..Constraint$GT$17he25eeafb21939647E', symObjAddr: 0x7DD0, symBinAddr: 0x24820, symSize: 0x160 }
  - { offsetInCU: 0x226AA, offset: 0xAA9A9, size: 0x8, addend: 0x0, symName: '__ZN4core3ptr43drop_in_place$LT$proc_macro2..TokenTree$GT$17h840ac8992bf3df34E.llvm.7443784905060182117', symObjAddr: 0x7F30, symBinAddr: 0x24980, symSize: 0xB0 }
  - { offsetInCU: 0x229BE, offset: 0xAACBD, size: 0x8, addend: 0x0, symName: '__ZN4core3ptr43drop_in_place$LT$syn..data..FieldsNamed$GT$17hd4b06082e245d40aE', symObjAddr: 0x7FE0, symBinAddr: 0x24A30, symSize: 0x120 }
  - { offsetInCU: 0x22E65, offset: 0xAB164, size: 0x8, addend: 0x0, symName: '__ZN4core3ptr43drop_in_place$LT$syn..path..PathSegment$GT$17h63d393558df7c8c1E.llvm.7443784905060182117', symObjAddr: 0x8100, symBinAddr: 0x24B50, symSize: 0x170 }
  - { offsetInCU: 0x23409, offset: 0xAB708, size: 0x8, addend: 0x0, symName: '__ZN4core3ptr44drop_in_place$LT$syn..generics..Generics$GT$17hd0ac7963d4fc8d45E', symObjAddr: 0x8270, symBinAddr: 0x24CC0, symSize: 0x220 }
  - { offsetInCU: 0x23C86, offset: 0xABF85, size: 0x8, addend: 0x0, symName: '__ZN4core3ptr44drop_in_place$LT$syn..item..ImplItemType$GT$17hcbb120fd12067402E', symObjAddr: 0x8490, symBinAddr: 0x24EE0, symSize: 0x1D0 }
  - { offsetInCU: 0x2423A, offset: 0xAC539, size: 0x8, addend: 0x0, symName: '__ZN4core3ptr44drop_in_place$LT$syn..lifetime..Lifetime$GT$17h759c84ac0687907aE.llvm.7443784905060182117', symObjAddr: 0x8660, symBinAddr: 0x250B0, symSize: 0x30 }
  - { offsetInCU: 0x24394, offset: 0xAC693, size: 0x8, addend: 0x0, symName: '__ZN4core3ptr45drop_in_place$LT$proc_macro2..TokenStream$GT$17h0753e791e3190ac8E.llvm.7443784905060182117', symObjAddr: 0x8690, symBinAddr: 0x250E0, symSize: 0x70 }
  - { offsetInCU: 0x244E8, offset: 0xAC7E7, size: 0x8, addend: 0x0, symName: '__ZN4core3ptr45drop_in_place$LT$syn..generics..TypeParam$GT$17hf6c689bf92fae6b2E.llvm.7443784905060182117', symObjAddr: 0x8700, symBinAddr: 0x25150, symSize: 0x230 }
  - { offsetInCU: 0x24CF9, offset: 0xACFF8, size: 0x8, addend: 0x0, symName: '__ZN4core3ptr45drop_in_place$LT$syn..item..ImplItemConst$GT$17h22ca20a73755d65aE', symObjAddr: 0x8930, symBinAddr: 0x25380, symSize: 0x200 }
  - { offsetInCU: 0x252EB, offset: 0xAD5EA, size: 0x8, addend: 0x0, symName: '__ZN4core3ptr45drop_in_place$LT$syn..item..TraitItemType$GT$17he1754baebc0b7f80E', symObjAddr: 0x8B30, symBinAddr: 0x25580, symSize: 0x290 }
  - { offsetInCU: 0x25BC8, offset: 0xADEC7, size: 0x8, addend: 0x0, symName: '__ZN4core3ptr45drop_in_place$LT$syn..path..PathArguments$GT$17hdcc5fdcfb726c7c7E.llvm.7443784905060182117', symObjAddr: 0x8DC0, symBinAddr: 0x25810, symSize: 0xA0 }
  - { offsetInCU: 0x25D9D, offset: 0xAE09C, size: 0x8, addend: 0x0, symName: '__ZN4core3ptr46drop_in_place$LT$syn..generics..ConstParam$GT$17h84ae073706aff006E.llvm.7443784905060182117', symObjAddr: 0x8E60, symBinAddr: 0x258B0, symSize: 0x150 }
  - { offsetInCU: 0x2616A, offset: 0xAE469, size: 0x8, addend: 0x0, symName: '__ZN4core3ptr46drop_in_place$LT$syn..item..TraitItemConst$GT$17h4a425aebd437a07fE', symObjAddr: 0x8FB0, symBinAddr: 0x25A00, symSize: 0x1A0 }
  - { offsetInCU: 0x265EA, offset: 0xAE8E9, size: 0x8, addend: 0x0, symName: '__ZN4core3ptr47drop_in_place$LT$syn..generics..WhereClause$GT$17hfb87769c8613c92cE', symObjAddr: 0x9150, symBinAddr: 0x25BA0, symSize: 0x120 }
  - { offsetInCU: 0x26A34, offset: 0xAED33, size: 0x8, addend: 0x0, symName: '__ZN4core3ptr47drop_in_place$LT$syn..item..ForeignItemType$GT$17h6853eef205bc7781E', symObjAddr: 0x9270, symBinAddr: 0x25CC0, symSize: 0x1A0 }
  - { offsetInCU: 0x27045, offset: 0xAF344, size: 0x8, addend: 0x0, symName: '__ZN4core3ptr47drop_in_place$LT$syn..path..GenericArgument$GT$17h1e97a51d0bfa8d79E', symObjAddr: 0x9410, symBinAddr: 0x25E60, symSize: 0x1C0 }
  - { offsetInCU: 0x274F8, offset: 0xAF7F7, size: 0x8, addend: 0x0, symName: '__ZN4core3ptr48drop_in_place$LT$syn..generics..GenericParam$GT$17h007f222cbfd9821bE', symObjAddr: 0x95D0, symBinAddr: 0x26020, symSize: 0x150 }
  - { offsetInCU: 0x27966, offset: 0xAFC65, size: 0x8, addend: 0x0, symName: '__ZN4core3ptr48drop_in_place$LT$thiserror_impl..attr..Attrs$GT$17had45fd67af4c1b4cE.llvm.7443784905060182117', symObjAddr: 0x9720, symBinAddr: 0x26170, symSize: 0x100 }
  - { offsetInCU: 0x27DF8, offset: 0xB00F7, size: 0x8, addend: 0x0, symName: '__ZN4core3ptr49drop_in_place$LT$syn..generics..LifetimeParam$GT$17h3c90f2e78b6ca927E.llvm.7443784905060182117', symObjAddr: 0x9820, symBinAddr: 0x26270, symSize: 0xF0 }
  - { offsetInCU: 0x2819F, offset: 0xB049E, size: 0x8, addend: 0x0, symName: '__ZN4core3ptr49drop_in_place$LT$syn..generics..PredicateType$GT$17h512f2d7cd08222efE.llvm.7443784905060182117', symObjAddr: 0x9910, symBinAddr: 0x26360, symSize: 0x170 }
  - { offsetInCU: 0x2861B, offset: 0xB091A, size: 0x8, addend: 0x0, symName: '__ZN4core3ptr49drop_in_place$LT$syn..item..ForeignItemStatic$GT$17h40512c4df61ef590E', symObjAddr: 0x9A80, symBinAddr: 0x264D0, symSize: 0x180 }
  - { offsetInCU: 0x28CDF, offset: 0xB0FDE, size: 0x8, addend: 0x0, symName: '__ZN4core3ptr49drop_in_place$LT$thiserror_impl..ast..Variant$GT$17h93ae601cf2d7fe5fE.llvm.7443784905060182117', symObjAddr: 0x9C00, symBinAddr: 0x26650, symSize: 0xB0 }
  - { offsetInCU: 0x290F9, offset: 0xB13F8, size: 0x8, addend: 0x0, symName: '__ZN4core3ptr50drop_in_place$LT$$u5b$syn..item..ImplItem$u5d$$GT$17h186dbbe48b74d03eE', symObjAddr: 0x9CB0, symBinAddr: 0x26700, symSize: 0xF00 }
  - { offsetInCU: 0x2BE2A, offset: 0xB4129, size: 0x8, addend: 0x0, symName: '__ZN4core3ptr50drop_in_place$LT$syn..generics..TypeParamBound$GT$17h7b9343174e39278bE.llvm.7443784905060182117', symObjAddr: 0xABB0, symBinAddr: 0x27600, symSize: 0x1A0 }
  - { offsetInCU: 0x2C3C6, offset: 0xB46C5, size: 0x8, addend: 0x0, symName: '__ZN4core3ptr50drop_in_place$LT$syn..generics..WherePredicate$GT$17h6015ae7991ca7c6cE', symObjAddr: 0xAD50, symBinAddr: 0x277A0, symSize: 0xA0 }
  - { offsetInCU: 0x2C5D0, offset: 0xB48CF, size: 0x8, addend: 0x0, symName: '__ZN4core3ptr51drop_in_place$LT$$u5b$syn..item..TraitItem$u5d$$GT$17h14823f0eadddd0a0E', symObjAddr: 0xADF0, symBinAddr: 0x27840, symSize: 0x1DB0 }
  - { offsetInCU: 0x32416, offset: 0xBA715, size: 0x8, addend: 0x0, symName: '__ZN4core3ptr52drop_in_place$LT$syn..restriction..VisRestricted$GT$17had5696e7ae242661E', symObjAddr: 0xCBA0, symBinAddr: 0x295F0, symSize: 0x110 }
  - { offsetInCU: 0x329F0, offset: 0xBACEF, size: 0x8, addend: 0x0, symName: '__ZN4core3ptr53drop_in_place$LT$$u5b$syn..item..ForeignItem$u5d$$GT$17h865ab5dc444b5bc0E', symObjAddr: 0xCCB0, symBinAddr: 0x29700, symSize: 0x1E40 }
  - { offsetInCU: 0x38CDF, offset: 0xC0FDE, size: 0x8, addend: 0x0, symName: '__ZN4core3ptr58drop_in_place$LT$alloc..vec..Vec$LT$syn..expr..Arm$GT$$GT$17ha7bc79fcc49d0e19E', symObjAddr: 0xEAF0, symBinAddr: 0x2B540, symSize: 0xD0 }
  - { offsetInCU: 0x38F6C, offset: 0xC126B, size: 0x8, addend: 0x0, symName: '__ZN4core3ptr59drop_in_place$LT$alloc..boxed..Box$LT$syn..pat..Pat$GT$$GT$17h49ffe6535f47318fE.llvm.7443784905060182117', symObjAddr: 0xEBC0, symBinAddr: 0x2B610, symSize: 0x50 }
  - { offsetInCU: 0x390C7, offset: 0xC13C6, size: 0x8, addend: 0x0, symName: '__ZN4core3ptr59drop_in_place$LT$alloc..boxed..Box$LT$syn..ty..Type$GT$$GT$17h36cfce59f01f3a8fE', symObjAddr: 0xEC10, symBinAddr: 0x2B660, symSize: 0x50 }
  - { offsetInCU: 0x39222, offset: 0xC1521, size: 0x8, addend: 0x0, symName: '__ZN4core3ptr59drop_in_place$LT$alloc..vec..Vec$LT$syn..item..Item$GT$$GT$17hecf93a61b1b1325cE', symObjAddr: 0xEC60, symBinAddr: 0x2B6B0, symSize: 0xD0 }
  - { offsetInCU: 0x394AF, offset: 0xC17AE, size: 0x8, addend: 0x0, symName: '__ZN4core3ptr61drop_in_place$LT$alloc..boxed..Box$LT$syn..expr..Expr$GT$$GT$17he2adadfca53b3509E', symObjAddr: 0xED30, symBinAddr: 0x2B780, symSize: 0x50 }
  - { offsetInCU: 0x3960A, offset: 0xC1909, size: 0x8, addend: 0x0, symName: '__ZN4core3ptr61drop_in_place$LT$alloc..boxed..Box$LT$syn..path..Path$GT$$GT$17h6d5e97053ea6fe37E', symObjAddr: 0xED80, symBinAddr: 0x2B7D0, symSize: 0x50 }
  - { offsetInCU: 0x39782, offset: 0xC1A81, size: 0x8, addend: 0x0, symName: '__ZN4core3ptr61drop_in_place$LT$syn..path..ParenthesizedGenericArguments$GT$17h4cd7782735b88d96E', symObjAddr: 0xEDD0, symBinAddr: 0x2B820, symSize: 0x170 }
  - { offsetInCU: 0x39D49, offset: 0xC2048, size: 0x8, addend: 0x0, symName: '__ZN4core3ptr62drop_in_place$LT$alloc..boxed..Box$LT$syn..data..Field$GT$$GT$17h50659cd58207fccaE', symObjAddr: 0xEF40, symBinAddr: 0x2B990, symSize: 0x50 }
  - { offsetInCU: 0x39EC3, offset: 0xC21C2, size: 0x8, addend: 0x0, symName: '__ZN4core3ptr62drop_in_place$LT$alloc..boxed..Box$LT$syn..item..FnArg$GT$$GT$17hc47b5065dd646c54E', symObjAddr: 0xEF90, symBinAddr: 0x2B9E0, symSize: 0x60 }
  - { offsetInCU: 0x3A03B, offset: 0xC233A, size: 0x8, addend: 0x0, symName: '__ZN4core3ptr62drop_in_place$LT$alloc..boxed..Box$LT$syn..stmt..Block$GT$$GT$17h48fafda4ba196f96E', symObjAddr: 0xEFF0, symBinAddr: 0x2BA40, symSize: 0xE0 }
  - { offsetInCU: 0x3A41C, offset: 0xC271B, size: 0x8, addend: 0x0, symName: '__ZN4core3ptr63drop_in_place$LT$alloc..vec..Vec$LT$syn..item..ImplItem$GT$$GT$17h5a7b7759ddff7aceE', symObjAddr: 0xF0D0, symBinAddr: 0x2BB20, symSize: 0x80 }
  - { offsetInCU: 0x3A69A, offset: 0xC2999, size: 0x8, addend: 0x0, symName: '__ZN4core3ptr64drop_in_place$LT$alloc..boxed..Box$LT$syn..data..Variant$GT$$GT$17h571cef76eea0b356E', symObjAddr: 0xF150, symBinAddr: 0x2BBA0, symSize: 0x50 }
  - { offsetInCU: 0x3A7F5, offset: 0xC2AF4, size: 0x8, addend: 0x0, symName: '__ZN4core3ptr64drop_in_place$LT$alloc..boxed..Box$LT$syn..item..UseTree$GT$$GT$17hc4220c9ec82c3d84E', symObjAddr: 0xF1A0, symBinAddr: 0x2BBF0, symSize: 0x50 }
  - { offsetInCU: 0x3A96F, offset: 0xC2C6E, size: 0x8, addend: 0x0, symName: '__ZN4core3ptr64drop_in_place$LT$alloc..boxed..Box$LT$syn..pat..FieldPat$GT$$GT$17h770150671720e9c0E', symObjAddr: 0xF1F0, symBinAddr: 0x2BC40, symSize: 0x140 }
  - { offsetInCU: 0x3B010, offset: 0xC330F, size: 0x8, addend: 0x0, symName: '__ZN4core3ptr64drop_in_place$LT$alloc..boxed..Box$LT$syn..ty..BareFnArg$GT$$GT$17h15a58aeff26cf7b1E', symObjAddr: 0xF330, symBinAddr: 0x2BD80, symSize: 0x140 }
  - { offsetInCU: 0x3B568, offset: 0xC3867, size: 0x8, addend: 0x0, symName: '__ZN4core3ptr64drop_in_place$LT$alloc..vec..Vec$LT$syn..attr..Attribute$GT$$GT$17h9f7ab37f130897eeE', symObjAddr: 0xF470, symBinAddr: 0x2BEC0, symSize: 0xD0 }
  - { offsetInCU: 0x3B829, offset: 0xC3B28, size: 0x8, addend: 0x0, symName: '__ZN4core3ptr64drop_in_place$LT$alloc..vec..Vec$LT$syn..item..TraitItem$GT$$GT$17hb27eaa4ad4764615E', symObjAddr: 0xF540, symBinAddr: 0x2BF90, symSize: 0x80 }
  - { offsetInCU: 0x3BAA7, offset: 0xC3DA6, size: 0x8, addend: 0x0, symName: '__ZN4core3ptr65drop_in_place$LT$$LP$syn..item..FnArg$C$syn..token..Comma$RP$$GT$17h2b550de57295fa64E', symObjAddr: 0xF5C0, symBinAddr: 0x2C010, symSize: 0x20 }
  - { offsetInCU: 0x3BB40, offset: 0xC3E3F, size: 0x8, addend: 0x0, symName: '__ZN4core3ptr65drop_in_place$LT$alloc..vec..Vec$LT$proc_macro..TokenTree$GT$$GT$17h3f39456e5ce4154eE.llvm.7443784905060182117', symObjAddr: 0xF5E0, symBinAddr: 0x2C030, symSize: 0x120 }
  - { offsetInCU: 0x3BEB2, offset: 0xC41B1, size: 0x8, addend: 0x0, symName: '__ZN4core3ptr65drop_in_place$LT$core..option..Option$LT$syn..expr..Label$GT$$GT$17hbeb69ff24f6d12a3E', symObjAddr: 0xF700, symBinAddr: 0x2C150, symSize: 0x30 }
  - { offsetInCU: 0x3BFED, offset: 0xC42EC, size: 0x8, addend: 0x0, symName: '__ZN4core3ptr65drop_in_place$LT$core..option..Option$LT$syn..stmt..Block$GT$$GT$17h14600ea9bcad847cE', symObjAddr: 0xF730, symBinAddr: 0x2C180, symSize: 0xE0 }
  - { offsetInCU: 0x3C252, offset: 0xC4551, size: 0x8, addend: 0x0, symName: '__ZN4core3ptr66drop_in_place$LT$alloc..vec..Vec$LT$syn..item..ForeignItem$GT$$GT$17h0a2772533617f248E', symObjAddr: 0xF810, symBinAddr: 0x2C260, symSize: 0x80 }
  - { offsetInCU: 0x3C4D0, offset: 0xC47CF, size: 0x8, addend: 0x0, symName: '__ZN4core3ptr67drop_in_place$LT$$LP$syn..pat..FieldPat$C$syn..token..Comma$RP$$GT$17hfed5d6b72299cd01E.llvm.7443784905060182117', symObjAddr: 0xF890, symBinAddr: 0x2C2E0, symSize: 0x130 }
  - { offsetInCU: 0x3CA3A, offset: 0xC4D39, size: 0x8, addend: 0x0, symName: '__ZN4core3ptr67drop_in_place$LT$$LP$syn..ty..BareFnArg$C$syn..token..Comma$RP$$GT$17h19054078826a394eE.llvm.7443784905060182117', symObjAddr: 0xF9C0, symBinAddr: 0x2C410, symSize: 0x110 }
  - { offsetInCU: 0x3CE8B, offset: 0xC518A, size: 0x8, addend: 0x0, symName: '__ZN4core3ptr67drop_in_place$LT$alloc..boxed..Box$LT$syn..expr..FieldValue$GT$$GT$17h31092deaee4fbb6bE', symObjAddr: 0xFAD0, symBinAddr: 0x2C520, symSize: 0x140 }
  - { offsetInCU: 0x3D3C3, offset: 0xC56C2, size: 0x8, addend: 0x0, symName: '__ZN4core3ptr68drop_in_place$LT$alloc..boxed..Box$LT$syn..path..PathSegment$GT$$GT$17h389b073a071a136cE.llvm.7443784905060182117', symObjAddr: 0xFC10, symBinAddr: 0x2C660, symSize: 0x170 }
  - { offsetInCU: 0x3DA71, offset: 0xC5D70, size: 0x8, addend: 0x0, symName: '__ZN4core3ptr69drop_in_place$LT$core..option..Option$LT$syn..stmt..LocalInit$GT$$GT$17h679061798664ef5fE', symObjAddr: 0xFD80, symBinAddr: 0x2C7D0, symSize: 0xC0 }
  - { offsetInCU: 0x3DD99, offset: 0xC6098, size: 0x8, addend: 0x0, symName: '__ZN4core3ptr70drop_in_place$LT$$LP$syn..expr..FieldValue$C$syn..token..Comma$RP$$GT$17h0ce9300ff6034c02E.llvm.7443784905060182117', symObjAddr: 0xFE40, symBinAddr: 0x2C890, symSize: 0x110 }
  - { offsetInCU: 0x3E1AB, offset: 0xC64AA, size: 0x8, addend: 0x0, symName: '__ZN4core3ptr70drop_in_place$LT$alloc..vec..Vec$LT$thiserror_impl..ast..Field$GT$$GT$17h74fd0d23ff172c8aE.llvm.7443784905060182117', symObjAddr: 0xFF50, symBinAddr: 0x2C9A0, symSize: 0x60 }
  - { offsetInCU: 0x3E3A0, offset: 0xC669F, size: 0x8, addend: 0x0, symName: '__ZN4core3ptr70drop_in_place$LT$core..option..Option$LT$syn..ty..BareVariadic$GT$$GT$17h5d50785ed896ab9aE', symObjAddr: 0xFFB0, symBinAddr: 0x2CA00, symSize: 0x100 }
  - { offsetInCU: 0x3E7D0, offset: 0xC6ACF, size: 0x8, addend: 0x0, symName: '__ZN4core3ptr72drop_in_place$LT$alloc..boxed..Box$LT$syn..path..GenericArgument$GT$$GT$17h0167b8c28da927e0E.llvm.7443784905060182117', symObjAddr: 0x100B0, symBinAddr: 0x2CB00, symSize: 0x180 }
  - { offsetInCU: 0x3ECA5, offset: 0xC6FA4, size: 0x8, addend: 0x0, symName: '__ZN4core3ptr73drop_in_place$LT$$LP$syn..path..PathSegment$C$syn..token..PathSep$RP$$GT$17h279c2a5868859183E.llvm.7443784905060182117', symObjAddr: 0x10230, symBinAddr: 0x2CC80, symSize: 0xC0 }
  - { offsetInCU: 0x3EF6B, offset: 0xC726A, size: 0x8, addend: 0x0, symName: '__ZN4core3ptr73drop_in_place$LT$alloc..boxed..Box$LT$syn..generics..GenericParam$GT$$GT$17h858b54a69accfd4dE', symObjAddr: 0x102F0, symBinAddr: 0x2CD40, symSize: 0x80 }
  - { offsetInCU: 0x3F0E3, offset: 0xC73E2, size: 0x8, addend: 0x0, symName: '__ZN4core3ptr75drop_in_place$LT$$LP$syn..path..GenericArgument$C$syn..token..Comma$RP$$GT$17hdceb253398b3a38cE.llvm.7443784905060182117', symObjAddr: 0x10370, symBinAddr: 0x2CDC0, symSize: 0x180 }
  - { offsetInCU: 0x3F46B, offset: 0xC776A, size: 0x8, addend: 0x0, symName: '__ZN4core3ptr75drop_in_place$LT$alloc..boxed..Box$LT$syn..generics..TypeParamBound$GT$$GT$17h3da0d8fba9b3862cE', symObjAddr: 0x104F0, symBinAddr: 0x2CF40, symSize: 0xB0 }
  - { offsetInCU: 0x3F769, offset: 0xC7A68, size: 0x8, addend: 0x0, symName: '__ZN4core3ptr75drop_in_place$LT$alloc..boxed..Box$LT$syn..generics..WherePredicate$GT$$GT$17h5d0aa7841e441ba1E', symObjAddr: 0x105A0, symBinAddr: 0x2CFF0, symSize: 0x80 }
  - { offsetInCU: 0x3F9FF, offset: 0xC7CFE, size: 0x8, addend: 0x0, symName: '__ZN4core3ptr76drop_in_place$LT$$LP$syn..generics..GenericParam$C$syn..token..Comma$RP$$GT$17h996c44122d6e0164E.llvm.7443784905060182117', symObjAddr: 0x10620, symBinAddr: 0x2D070, symSize: 0x40 }
  - { offsetInCU: 0x3FA3B, offset: 0xC7D3A, size: 0x8, addend: 0x0, symName: '__ZN4core3ptr77drop_in_place$LT$$LP$syn..generics..TypeParamBound$C$syn..token..Plus$RP$$GT$17h7466dc5ca9ce6849E.llvm.7443784905060182117', symObjAddr: 0x10660, symBinAddr: 0x2D0B0, symSize: 0xA0 }
  - { offsetInCU: 0x3FBF5, offset: 0xC7EF4, size: 0x8, addend: 0x0, symName: '__ZN4core3ptr78drop_in_place$LT$$LP$syn..generics..WherePredicate$C$syn..token..Comma$RP$$GT$17h90ec20d93383c349E.llvm.7443784905060182117', symObjAddr: 0x10700, symBinAddr: 0x2D150, symSize: 0x50 }
  - { offsetInCU: 0x3FD4F, offset: 0xC804E, size: 0x8, addend: 0x0, symName: '__ZN4core3ptr86drop_in_place$LT$$LP$syn..token..If$C$alloc..boxed..Box$LT$syn..expr..Expr$GT$$RP$$GT$17h3546b83132e66fd2E', symObjAddr: 0x10750, symBinAddr: 0x2D1A0, symSize: 0x50 }
  - { offsetInCU: 0x3FF64, offset: 0xC8263, size: 0x8, addend: 0x0, symName: '__ZN4core3ptr86drop_in_place$LT$syn..punctuated..Punctuated$LT$syn..pat..Pat$C$syn..token..Or$GT$$GT$17h857c4222dd642261E', symObjAddr: 0x107A0, symBinAddr: 0x2D1F0, symSize: 0x120 }
  - { offsetInCU: 0x403C1, offset: 0xC86C0, size: 0x8, addend: 0x0, symName: '__ZN4core3ptr87drop_in_place$LT$$LP$alloc..boxed..Box$LT$syn..pat..Pat$GT$$C$syn..token..Colon$RP$$GT$17hb55dd3b294c8fbf3E', symObjAddr: 0x108C0, symBinAddr: 0x2D310, symSize: 0x50 }
  - { offsetInCU: 0x4053B, offset: 0xC883A, size: 0x8, addend: 0x0, symName: '__ZN4core3ptr87drop_in_place$LT$core..option..Option$LT$alloc..boxed..Box$LT$syn..ty..Type$GT$$GT$$GT$17h407163ef6663e2ffE', symObjAddr: 0x10910, symBinAddr: 0x2D360, symSize: 0x50 }
  - { offsetInCU: 0x406AD, offset: 0xC89AC, size: 0x8, addend: 0x0, symName: '__ZN4core3ptr89drop_in_place$LT$core..option..Option$LT$alloc..boxed..Box$LT$syn..expr..Expr$GT$$GT$$GT$17h8a4fcd655c85b4e5E', symObjAddr: 0x10960, symBinAddr: 0x2D3B0, symSize: 0x50 }
  - { offsetInCU: 0x4081F, offset: 0xC8B1E, size: 0x8, addend: 0x0, symName: '__ZN4core3ptr89drop_in_place$LT$syn..punctuated..Punctuated$LT$syn..ty..Type$C$syn..token..Comma$GT$$GT$17h22647ef5f64debb9E.llvm.7443784905060182117', symObjAddr: 0x109B0, symBinAddr: 0x2D400, symSize: 0x120 }
  - { offsetInCU: 0x40C69, offset: 0xC8F68, size: 0x8, addend: 0x0, symName: '__ZN4core3ptr90drop_in_place$LT$core..option..Option$LT$alloc..boxed..Box$LT$syn..data..Field$GT$$GT$$GT$17hedb4f432860ca9b4E', symObjAddr: 0x10AD0, symBinAddr: 0x2D520, symSize: 0x50 }
  - { offsetInCU: 0x40DDB, offset: 0xC90DA, size: 0x8, addend: 0x0, symName: '__ZN4core3ptr90drop_in_place$LT$core..option..Option$LT$alloc..boxed..Box$LT$syn..item..FnArg$GT$$GT$$GT$17h4628625cf41d9da7E', symObjAddr: 0x10B20, symBinAddr: 0x2D570, symSize: 0x50 }
  - { offsetInCU: 0x40FC9, offset: 0xC92C8, size: 0x8, addend: 0x0, symName: '__ZN4core3ptr91drop_in_place$LT$syn..punctuated..Punctuated$LT$syn..expr..Expr$C$syn..token..Comma$GT$$GT$17h0369d12efd25ffe5E', symObjAddr: 0x10B70, symBinAddr: 0x2D5C0, symSize: 0x120 }
  - { offsetInCU: 0x41426, offset: 0xC9725, size: 0x8, addend: 0x0, symName: '__ZN4core3ptr92drop_in_place$LT$core..option..Option$LT$$LP$syn..token..As$C$proc_macro2..Ident$RP$$GT$$GT$17hd05acb981acf058dE', symObjAddr: 0x10C90, symBinAddr: 0x2D6E0, symSize: 0x30 }
  - { offsetInCU: 0x41542, offset: 0xC9841, size: 0x8, addend: 0x0, symName: '__ZN4core3ptr92drop_in_place$LT$syn..punctuated..Punctuated$LT$syn..data..Field$C$syn..token..Comma$GT$$GT$17hc2907aa0739a5377E', symObjAddr: 0x10CC0, symBinAddr: 0x2D710, symSize: 0x120 }
  - { offsetInCU: 0x4198C, offset: 0xC9C8B, size: 0x8, addend: 0x0, symName: '__ZN4core3ptr92drop_in_place$LT$syn..punctuated..Punctuated$LT$syn..item..FnArg$C$syn..token..Comma$GT$$GT$17hb0481396c97aaeccE', symObjAddr: 0x10DE0, symBinAddr: 0x2D830, symSize: 0x150 }
  - { offsetInCU: 0x41EA1, offset: 0xCA1A0, size: 0x8, addend: 0x0, symName: '__ZN4core3ptr94drop_in_place$LT$syn..punctuated..Punctuated$LT$syn..data..Variant$C$syn..token..Comma$GT$$GT$17haf4ce41658df306bE', symObjAddr: 0x10F30, symBinAddr: 0x2D980, symSize: 0x120 }
  - { offsetInCU: 0x4237A, offset: 0xCA679, size: 0x8, addend: 0x0, symName: '__ZN4core3ptr94drop_in_place$LT$syn..punctuated..Punctuated$LT$syn..pat..FieldPat$C$syn..token..Comma$GT$$GT$17ha79305f2d14a963bE', symObjAddr: 0x11050, symBinAddr: 0x2DAA0, symSize: 0xF0 }
  - { offsetInCU: 0x426D3, offset: 0xCA9D2, size: 0x8, addend: 0x0, symName: '__ZN4core3ptr94drop_in_place$LT$syn..punctuated..Punctuated$LT$syn..ty..BareFnArg$C$syn..token..Comma$GT$$GT$17h17c7f848dd9be9aeE', symObjAddr: 0x11140, symBinAddr: 0x2DB90, symSize: 0xF0 }
  - { offsetInCU: 0x429B0, offset: 0xCACAF, size: 0x8, addend: 0x0, symName: '__ZN4core3ptr95drop_in_place$LT$core..option..Option$LT$$LP$proc_macro2..Ident$C$syn..token..Colon$RP$$GT$$GT$17h108ec660f5996cc7E.llvm.7443784905060182117', symObjAddr: 0x11230, symBinAddr: 0x2DC80, symSize: 0x30 }
  - { offsetInCU: 0x42ACC, offset: 0xCADCB, size: 0x8, addend: 0x0, symName: '__ZN4core3ptr96drop_in_place$LT$core..option..Option$LT$alloc..boxed..Box$LT$syn..path..PathSegment$GT$$GT$$GT$17h1891276410ff88caE.llvm.7443784905060182117', symObjAddr: 0x11260, symBinAddr: 0x2DCB0, symSize: 0x50 }
  - { offsetInCU: 0x42CD9, offset: 0xCAFD8, size: 0x8, addend: 0x0, symName: '__ZN4core3ptr97drop_in_place$LT$syn..punctuated..Punctuated$LT$syn..expr..FieldValue$C$syn..token..Comma$GT$$GT$17hed66755c87efe679E', symObjAddr: 0x11300, symBinAddr: 0x2DD00, symSize: 0xF0 }
  - { offsetInCU: 0x43051, offset: 0xCB350, size: 0x8, addend: 0x0, symName: '__ZN4core3ptr98drop_in_place$LT$syn..punctuated..Punctuated$LT$syn..lifetime..Lifetime$C$syn..token..Plus$GT$$GT$17h629d02c6fce7523dE.llvm.7443784905060182117', symObjAddr: 0x113F0, symBinAddr: 0x2DDF0, symSize: 0xC0 }
  - { offsetInCU: 0x4BF48, offset: 0xD4247, size: 0x8, addend: 0x0, symName: '__ZN70_$LT$alloc..vec..Vec$LT$T$C$A$GT$$u20$as$u20$core..ops..drop..Drop$GT$4drop17h1792044efbd7cc51E', symObjAddr: 0x11C70, symBinAddr: 0x2E4F0, symSize: 0xB0 }
  - { offsetInCU: 0x4BFAA, offset: 0xD42A9, size: 0x8, addend: 0x0, symName: '__ZN70_$LT$alloc..vec..Vec$LT$T$C$A$GT$$u20$as$u20$core..ops..drop..Drop$GT$4drop17h1bd6f2ffbdba6b26E', symObjAddr: 0x11D20, symBinAddr: 0x2E5A0, symSize: 0xB0 }
  - { offsetInCU: 0x4C126, offset: 0xD4425, size: 0x8, addend: 0x0, symName: '__ZN70_$LT$alloc..vec..Vec$LT$T$C$A$GT$$u20$as$u20$core..ops..drop..Drop$GT$4drop17h3833ea38c5ce1573E', symObjAddr: 0x11F50, symBinAddr: 0x2E650, symSize: 0x80 }
  - { offsetInCU: 0x4C1B0, offset: 0xD44AF, size: 0x8, addend: 0x0, symName: '__ZN70_$LT$alloc..vec..Vec$LT$T$C$A$GT$$u20$as$u20$core..ops..drop..Drop$GT$4drop17h431597cce09c0c05E', symObjAddr: 0x12050, symBinAddr: 0x2E6D0, symSize: 0x50 }
  - { offsetInCU: 0x4C2F1, offset: 0xD45F0, size: 0x8, addend: 0x0, symName: '__ZN70_$LT$alloc..vec..Vec$LT$T$C$A$GT$$u20$as$u20$core..ops..drop..Drop$GT$4drop17h669d41aaa35f36d3E', symObjAddr: 0x12230, symBinAddr: 0x2E720, symSize: 0x110 }
  - { offsetInCU: 0x4C387, offset: 0xD4686, size: 0x8, addend: 0x0, symName: '__ZN70_$LT$alloc..vec..Vec$LT$T$C$A$GT$$u20$as$u20$core..ops..drop..Drop$GT$4drop17h6f50180ef691ca5cE', symObjAddr: 0x12340, symBinAddr: 0x2E830, symSize: 0x120 }
  - { offsetInCU: 0x4C797, offset: 0xD4A96, size: 0x8, addend: 0x0, symName: '__ZN70_$LT$alloc..vec..Vec$LT$T$C$A$GT$$u20$as$u20$core..ops..drop..Drop$GT$4drop17he05f36d424b2e1ddE', symObjAddr: 0x127F0, symBinAddr: 0x2E950, symSize: 0x90 }
  - { offsetInCU: 0x4C89D, offset: 0xD4B9C, size: 0x8, addend: 0x0, symName: '__ZN70_$LT$alloc..vec..Vec$LT$T$C$A$GT$$u20$as$u20$core..ops..drop..Drop$GT$4drop17hea9368c64d22a3d7E', symObjAddr: 0x12880, symBinAddr: 0x2E9E0, symSize: 0x80 }
  - { offsetInCU: 0x4CC8F, offset: 0xD4F8E, size: 0x8, addend: 0x0, symName: '__ZN67_$LT$alloc..vec..Vec$LT$T$C$A$GT$$u20$as$u20$core..clone..Clone$GT$5clone17hd451c11c0ad72f9cE', symObjAddr: 0x11510, symBinAddr: 0x2DEB0, symSize: 0x2B0 }
  - { offsetInCU: 0x4D351, offset: 0xD5650, size: 0x8, addend: 0x0, symName: '__ZN67_$LT$alloc..vec..Vec$LT$T$C$A$GT$$u20$as$u20$core..clone..Clone$GT$5clone17hdd1bf0d581960cadE', symObjAddr: 0x117C0, symBinAddr: 0x2E160, symSize: 0x390 }
  - { offsetInCU: 0x4E35B, offset: 0xD665A, size: 0x8, addend: 0x0, symName: '__ZN98_$LT$alloc..vec..Vec$LT$T$GT$$u20$as$u20$alloc..vec..spec_from_iter..SpecFromIter$LT$T$C$I$GT$$GT$9from_iter17h0fc1e7be6a151376E', symObjAddr: 0x12950, symBinAddr: 0x2EA60, symSize: 0x4A0 }
  - { offsetInCU: 0x4F4B8, offset: 0xD77B7, size: 0x8, addend: 0x0, symName: '__ZN98_$LT$alloc..vec..Vec$LT$T$GT$$u20$as$u20$alloc..vec..spec_from_iter..SpecFromIter$LT$T$C$I$GT$$GT$9from_iter17h4e9701c5a5d5ba75E', symObjAddr: 0x12DF0, symBinAddr: 0x2EF00, symSize: 0x460 }
  - { offsetInCU: 0x5024E, offset: 0xD854D, size: 0x8, addend: 0x0, symName: '__ZN98_$LT$alloc..vec..Vec$LT$T$GT$$u20$as$u20$alloc..vec..spec_from_iter..SpecFromIter$LT$T$C$I$GT$$GT$9from_iter17h871a10123e43591eE', symObjAddr: 0x13250, symBinAddr: 0x2F360, symSize: 0x200 }
  - { offsetInCU: 0x50C5A, offset: 0xD8F59, size: 0x8, addend: 0x0, symName: '__ZN98_$LT$alloc..vec..Vec$LT$T$GT$$u20$as$u20$alloc..vec..spec_from_iter..SpecFromIter$LT$T$C$I$GT$$GT$9from_iter17h87244016ea9ff596E', symObjAddr: 0x13450, symBinAddr: 0x2F560, symSize: 0x169 }
  - { offsetInCU: 0x1E, offset: 0xE267D, size: 0x8, addend: 0x0, symName: '__ZN100_$LT$syn..punctuated..PrivateIter$LT$T$C$P$GT$$u20$as$u20$core..iter..traits..iterator..Iterator$GT$4next17h04b9a2e51d208c25E.llvm.13193804877929279005', symObjAddr: 0x0, symBinAddr: 0x2F6D0, symSize: 0x30 }
  - { offsetInCU: 0x670, offset: 0xE2CCF, size: 0x8, addend: 0x0, symName: '__ZN100_$LT$syn..punctuated..PrivateIter$LT$T$C$P$GT$$u20$as$u20$core..iter..traits..iterator..Iterator$GT$4next17h04b9a2e51d208c25E.llvm.13193804877929279005', symObjAddr: 0x0, symBinAddr: 0x2F6D0, symSize: 0x30 }
  - { offsetInCU: 0x903, offset: 0xE2F62, size: 0x8, addend: 0x0, symName: '__ZN100_$LT$syn..punctuated..PrivateIter$LT$T$C$P$GT$$u20$as$u20$core..iter..traits..iterator..Iterator$GT$4next17h229daf76db08fbfdE.llvm.13193804877929279005', symObjAddr: 0x30, symBinAddr: 0x2F700, symSize: 0x30 }
  - { offsetInCU: 0xB96, offset: 0xE31F5, size: 0x8, addend: 0x0, symName: '__ZN100_$LT$syn..punctuated..PrivateIter$LT$T$C$P$GT$$u20$as$u20$core..iter..traits..iterator..Iterator$GT$4next17hfa9cb7cd189d6b63E.llvm.13193804877929279005', symObjAddr: 0x60, symBinAddr: 0x2F730, symSize: 0x30 }
  - { offsetInCU: 0xEBF, offset: 0xE351E, size: 0x8, addend: 0x0, symName: '__ZN111_$LT$syn..punctuated..PrivateIter$LT$T$C$P$GT$$u20$as$u20$core..iter..traits..exact_size..ExactSizeIterator$GT$3len17had141dea03c788e8E.llvm.13193804877929279005', symObjAddr: 0xC0, symBinAddr: 0x2F760, symSize: 0x30 }
  - { offsetInCU: 0x1032, offset: 0xE3691, size: 0x8, addend: 0x0, symName: '__ZN115_$LT$syn..punctuated..PrivateIter$LT$T$C$P$GT$$u20$as$u20$core..iter..traits..double_ended..DoubleEndedIterator$GT$9next_back17hfdff932afbc8fd46E.llvm.13193804877929279005', symObjAddr: 0x180, symBinAddr: 0x2F790, symSize: 0x30 }
  - { offsetInCU: 0x14B2, offset: 0xE3B11, size: 0x8, addend: 0x0, symName: '__ZN57_$LT$I$u20$as$u20$syn..punctuated..IterTrait$LT$T$GT$$GT$9clone_box17h2ebe91db4e6114feE.llvm.13193804877929279005', symObjAddr: 0x7090, symBinAddr: 0x35FB0, symSize: 0x60 }
  - { offsetInCU: 0x1770, offset: 0xE3DCF, size: 0x8, addend: 0x0, symName: '__ZN97_$LT$syn..punctuated..Punctuated$LT$T$C$P$GT$$u20$as$u20$core..ops..index..Index$LT$usize$GT$$GT$5index17hf55dfd8f57126994E', symObjAddr: 0x72A0, symBinAddr: 0x36010, symSize: 0x43 }
  - { offsetInCU: 0x7AEA, offset: 0xEA149, size: 0x8, addend: 0x0, symName: '__ZN4core3ptr100drop_in_place$LT$core..option..Option$LT$alloc..boxed..Box$LT$syn..path..GenericArgument$GT$$GT$$GT$17h4ad733554d99479dE', symObjAddr: 0x7F0, symBinAddr: 0x2FBE0, symSize: 0x50 }
  - { offsetInCU: 0x7E8A, offset: 0xEA4E9, size: 0x8, addend: 0x0, symName: '__ZN4core3ptr100drop_in_place$LT$syn..punctuated..Punctuated$LT$syn..path..PathSegment$C$syn..token..PathSep$GT$$GT$17h8ebc154637df8ffbE', symObjAddr: 0x840, symBinAddr: 0x2FC30, symSize: 0x280 }
  - { offsetInCU: 0x8918, offset: 0xEAF77, size: 0x8, addend: 0x0, symName: '__ZN4core3ptr101drop_in_place$LT$syn..punctuated..PrivateIter$LT$syn..path..PathSegment$C$syn..token..PathSep$GT$$GT$17h5c3795b9c67fb82cE.llvm.13193804877929279005', symObjAddr: 0xAC0, symBinAddr: 0x2FEB0, symSize: 0x0 }
  - { offsetInCU: 0x8963, offset: 0xEAFC2, size: 0x8, addend: 0x0, symName: '__ZN4core3ptr103drop_in_place$LT$core..option..Option$LT$alloc..boxed..Box$LT$syn..generics..TypeParamBound$GT$$GT$$GT$17hf0901f177fd8ec83E', symObjAddr: 0xAD0, symBinAddr: 0x2FEC0, symSize: 0x50 }
  - { offsetInCU: 0x8B70, offset: 0xEB1CF, size: 0x8, addend: 0x0, symName: '__ZN4core3ptr103drop_in_place$LT$syn..punctuated..Punctuated$LT$syn..generics..GenericParam$C$syn..token..Comma$GT$$GT$17hc171c18ee53dbad0E.llvm.13193804877929279005', symObjAddr: 0xB20, symBinAddr: 0x2FF10, symSize: 0xF0 }
  - { offsetInCU: 0x9052, offset: 0xEB6B1, size: 0x8, addend: 0x0, symName: '__ZN4core3ptr104drop_in_place$LT$syn..punctuated..Punctuated$LT$syn..generics..TypeParamBound$C$syn..token..Plus$GT$$GT$17hcf5b48af9969cc83E.llvm.13193804877929279005', symObjAddr: 0xC10, symBinAddr: 0x30000, symSize: 0x260 }
  - { offsetInCU: 0x9A44, offset: 0xEC0A3, size: 0x8, addend: 0x0, symName: '__ZN4core3ptr34drop_in_place$LT$syn..lit..Lit$GT$17ha63ef6405732d63fE', symObjAddr: 0xE70, symBinAddr: 0x30260, symSize: 0x110 }
  - { offsetInCU: 0x9F7E, offset: 0xEC5DD, size: 0x8, addend: 0x0, symName: '__ZN4core3ptr34drop_in_place$LT$syn..pat..Pat$GT$17h91c3546b0c499aa4E', symObjAddr: 0xF80, symBinAddr: 0x30370, symSize: 0xBC0 }
  - { offsetInCU: 0xD5BB, offset: 0xEFC1A, size: 0x8, addend: 0x0, symName: '__ZN4core3ptr34drop_in_place$LT$syn..ty..Type$GT$17h646f784aaf5cbab1E.llvm.13193804877929279005', symObjAddr: 0x1B40, symBinAddr: 0x30F30, symSize: 0x510 }
  - { offsetInCU: 0xEC1A, offset: 0xF1279, size: 0x8, addend: 0x0, symName: '__ZN4core3ptr36drop_in_place$LT$syn..expr..Expr$GT$17hb910290a3af1daefE', symObjAddr: 0x2050, symBinAddr: 0x31440, symSize: 0x1E10 }
  - { offsetInCU: 0x16E0E, offset: 0xF946D, size: 0x8, addend: 0x0, symName: '__ZN4core3ptr36drop_in_place$LT$syn..mac..Macro$GT$17h5f1ece46988e9adcE', symObjAddr: 0x3E60, symBinAddr: 0x33250, symSize: 0x40 }
  - { offsetInCU: 0x16E48, offset: 0xF94A7, size: 0x8, addend: 0x0, symName: '__ZN4core3ptr36drop_in_place$LT$syn..path..Path$GT$17h00d83a0e1f28cf99E', symObjAddr: 0x3EA0, symBinAddr: 0x33290, symSize: 0x240 }
  - { offsetInCU: 0x17891, offset: 0xF9EF0, size: 0x8, addend: 0x0, symName: '__ZN4core3ptr37drop_in_place$LT$syn..stmt..Block$GT$17h33338ad4c6a9f8a8E', symObjAddr: 0x40E0, symBinAddr: 0x334D0, symSize: 0xD0 }
  - { offsetInCU: 0x17B35, offset: 0xFA194, size: 0x8, addend: 0x0, symName: '__ZN4core3ptr38drop_in_place$LT$syn..expr..Member$GT$17h97aaa8d7a3825814E', symObjAddr: 0x41B0, symBinAddr: 0x335A0, symSize: 0x30 }
  - { offsetInCU: 0x17C32, offset: 0xFA291, size: 0x8, addend: 0x0, symName: '__ZN4core3ptr39drop_in_place$LT$proc_macro2..Ident$GT$17h7dde42b28475f68eE', symObjAddr: 0x41E0, symBinAddr: 0x335D0, symSize: 0x30 }
  - { offsetInCU: 0x17D10, offset: 0xFA36F, size: 0x8, addend: 0x0, symName: '__ZN4core3ptr40drop_in_place$LT$syn..ty..ReturnType$GT$17h88c7077d98a3718fE', symObjAddr: 0x4210, symBinAddr: 0x33600, symSize: 0x50 }
  - { offsetInCU: 0x17E82, offset: 0xFA4E1, size: 0x8, addend: 0x0, symName: '__ZN4core3ptr41drop_in_place$LT$syn..expr..ExprConst$GT$17h56a43a7f2459f7b8E', symObjAddr: 0x4260, symBinAddr: 0x33650, symSize: 0x120 }
  - { offsetInCU: 0x18343, offset: 0xFA9A2, size: 0x8, addend: 0x0, symName: '__ZN4core3ptr44drop_in_place$LT$syn..lifetime..Lifetime$GT$17h759c84ac0687907aE', symObjAddr: 0x4380, symBinAddr: 0x33770, symSize: 0x30 }
  - { offsetInCU: 0x18576, offset: 0xFABD5, size: 0x8, addend: 0x0, symName: '__ZN4core3ptr45drop_in_place$LT$proc_macro2..TokenStream$GT$17h0753e791e3190ac8E.llvm.13193804877929279005', symObjAddr: 0x43B0, symBinAddr: 0x337A0, symSize: 0x140 }
  - { offsetInCU: 0x189E5, offset: 0xFB044, size: 0x8, addend: 0x0, symName: '__ZN4core3ptr45drop_in_place$LT$syn..generics..TypeParam$GT$17hf6c689bf92fae6b2E.llvm.13193804877929279005', symObjAddr: 0x44F0, symBinAddr: 0x338E0, symSize: 0x1E0 }
  - { offsetInCU: 0x1913F, offset: 0xFB79E, size: 0x8, addend: 0x0, symName: '__ZN4core3ptr46drop_in_place$LT$syn..generics..ConstParam$GT$17h84ae073706aff006E.llvm.13193804877929279005', symObjAddr: 0x46D0, symBinAddr: 0x33AC0, symSize: 0x100 }
  - { offsetInCU: 0x194C7, offset: 0xFBB26, size: 0x8, addend: 0x0, symName: '__ZN4core3ptr47drop_in_place$LT$syn..path..GenericArgument$GT$17h1e97a51d0bfa8d79E', symObjAddr: 0x47D0, symBinAddr: 0x33BC0, symSize: 0x4A0 }
  - { offsetInCU: 0x1A56E, offset: 0xFCBCD, size: 0x8, addend: 0x0, symName: '__ZN4core3ptr49drop_in_place$LT$syn..generics..LifetimeParam$GT$17h3c90f2e78b6ca927E.llvm.13193804877929279005', symObjAddr: 0x4C70, symBinAddr: 0x34060, symSize: 0xA0 }
  - { offsetInCU: 0x1A888, offset: 0xFCEE7, size: 0x8, addend: 0x0, symName: '__ZN4core3ptr50drop_in_place$LT$syn..generics..TypeParamBound$GT$17h7b9343174e39278bE', symObjAddr: 0x4D10, symBinAddr: 0x34100, symSize: 0xA0 }
  - { offsetInCU: 0x1AA2D, offset: 0xFD08C, size: 0x8, addend: 0x0, symName: '__ZN4core3ptr50drop_in_place$LT$syn..generics..WherePredicate$GT$17h6015ae7991ca7c6cE.llvm.13193804877929279005', symObjAddr: 0x4DB0, symBinAddr: 0x341A0, symSize: 0xA0 }
  - { offsetInCU: 0x1ABCE, offset: 0xFD22D, size: 0x8, addend: 0x0, symName: '__ZN4core3ptr58drop_in_place$LT$alloc..vec..Vec$LT$syn..expr..Arm$GT$$GT$17ha7bc79fcc49d0e19E', symObjAddr: 0x4E50, symBinAddr: 0x34240, symSize: 0xD0 }
  - { offsetInCU: 0x1AE5B, offset: 0xFD4BA, size: 0x8, addend: 0x0, symName: '__ZN4core3ptr59drop_in_place$LT$alloc..boxed..Box$LT$syn..pat..Pat$GT$$GT$17h49ffe6535f47318fE', symObjAddr: 0x4F20, symBinAddr: 0x34310, symSize: 0x50 }
  - { offsetInCU: 0x1AFB6, offset: 0xFD615, size: 0x8, addend: 0x0, symName: '__ZN4core3ptr59drop_in_place$LT$alloc..boxed..Box$LT$syn..ty..Type$GT$$GT$17h36cfce59f01f3a8fE', symObjAddr: 0x4F70, symBinAddr: 0x34360, symSize: 0x50 }
  - { offsetInCU: 0x1B111, offset: 0xFD770, size: 0x8, addend: 0x0, symName: '__ZN4core3ptr61drop_in_place$LT$alloc..boxed..Box$LT$syn..expr..Expr$GT$$GT$17he2adadfca53b3509E', symObjAddr: 0x4FC0, symBinAddr: 0x343B0, symSize: 0x50 }
  - { offsetInCU: 0x1B2E8, offset: 0xFD947, size: 0x8, addend: 0x0, symName: '__ZN4core3ptr61drop_in_place$LT$syn..path..ParenthesizedGenericArguments$GT$17h4cd7782735b88d96E', symObjAddr: 0x5010, symBinAddr: 0x34400, symSize: 0x170 }
  - { offsetInCU: 0x1B8AF, offset: 0xFDF0E, size: 0x8, addend: 0x0, symName: '__ZN4core3ptr62drop_in_place$LT$syn..path..AngleBracketedGenericArguments$GT$17hac124dd118513038E', symObjAddr: 0x5180, symBinAddr: 0x34570, symSize: 0x120 }
  - { offsetInCU: 0x1BCC5, offset: 0xFE324, size: 0x8, addend: 0x0, symName: '__ZN4core3ptr63drop_in_place$LT$alloc..boxed..Box$LT$syn..lit..LitRepr$GT$$GT$17hc5bc8ee019cad972E', symObjAddr: 0x52A0, symBinAddr: 0x34690, symSize: 0x60 }
  - { offsetInCU: 0x1BFBA, offset: 0xFE619, size: 0x8, addend: 0x0, symName: '__ZN4core3ptr64drop_in_place$LT$alloc..boxed..Box$LT$syn..pat..FieldPat$GT$$GT$17h770150671720e9c0E', symObjAddr: 0x5300, symBinAddr: 0x346F0, symSize: 0x100 }
  - { offsetInCU: 0x1C5D5, offset: 0xFEC34, size: 0x8, addend: 0x0, symName: '__ZN4core3ptr64drop_in_place$LT$alloc..boxed..Box$LT$syn..ty..BareFnArg$GT$$GT$17h15a58aeff26cf7b1E', symObjAddr: 0x5400, symBinAddr: 0x347F0, symSize: 0xF0 }
  - { offsetInCU: 0x1CA67, offset: 0xFF0C6, size: 0x8, addend: 0x0, symName: '__ZN4core3ptr65drop_in_place$LT$core..option..Option$LT$syn..expr..Label$GT$$GT$17hbeb69ff24f6d12a3E', symObjAddr: 0x54F0, symBinAddr: 0x348E0, symSize: 0x30 }
  - { offsetInCU: 0x1CBA2, offset: 0xFF201, size: 0x8, addend: 0x0, symName: '__ZN4core3ptr66drop_in_place$LT$core..option..Option$LT$syn..pat..PatRest$GT$$GT$17hb16059a77742bcc2E', symObjAddr: 0x5520, symBinAddr: 0x34910, symSize: 0x70 }
  - { offsetInCU: 0x1CDF8, offset: 0xFF457, size: 0x8, addend: 0x0, symName: '__ZN4core3ptr67drop_in_place$LT$alloc..boxed..Box$LT$syn..expr..FieldValue$GT$$GT$17h31092deaee4fbb6bE', symObjAddr: 0x5590, symBinAddr: 0x34980, symSize: 0xF0 }
  - { offsetInCU: 0x1D26A, offset: 0xFF8C9, size: 0x8, addend: 0x0, symName: '__ZN4core3ptr68drop_in_place$LT$alloc..boxed..Box$LT$syn..path..PathSegment$GT$$GT$17h389b073a071a136cE', symObjAddr: 0x5680, symBinAddr: 0x34A70, symSize: 0x190 }
  - { offsetInCU: 0x1D948, offset: 0xFFFA7, size: 0x8, addend: 0x0, symName: '__ZN4core3ptr70drop_in_place$LT$core..option..Option$LT$syn..ty..BareVariadic$GT$$GT$17h5d50785ed896ab9aE', symObjAddr: 0x5810, symBinAddr: 0x34C00, symSize: 0xC0 }
  - { offsetInCU: 0x1DDD5, offset: 0x100434, size: 0x8, addend: 0x0, symName: '__ZN4core3ptr72drop_in_place$LT$alloc..boxed..Box$LT$syn..path..GenericArgument$GT$$GT$17h0167b8c28da927e0E', symObjAddr: 0x58D0, symBinAddr: 0x34CC0, symSize: 0x2B0 }
  - { offsetInCU: 0x1E760, offset: 0x100DBF, size: 0x8, addend: 0x0, symName: '__ZN4core3ptr72drop_in_place$LT$core..option..Option$LT$syn..lifetime..Lifetime$GT$$GT$17h1cec8fef0bb8367dE', symObjAddr: 0x5B80, symBinAddr: 0x34F70, symSize: 0x30 }
  - { offsetInCU: 0x1E87C, offset: 0x100EDB, size: 0x8, addend: 0x0, symName: '__ZN4core3ptr73drop_in_place$LT$alloc..boxed..Box$LT$syn..generics..GenericParam$GT$$GT$17h858b54a69accfd4dE.llvm.13193804877929279005', symObjAddr: 0x5BB0, symBinAddr: 0x34FA0, symSize: 0x80 }
  - { offsetInCU: 0x1E9F4, offset: 0x101053, size: 0x8, addend: 0x0, symName: '__ZN4core3ptr75drop_in_place$LT$alloc..boxed..Box$LT$syn..generics..TypeParamBound$GT$$GT$17h3da0d8fba9b3862cE', symObjAddr: 0x5C30, symBinAddr: 0x35020, symSize: 0x190 }
  - { offsetInCU: 0x1F0CE, offset: 0x10172D, size: 0x8, addend: 0x0, symName: '__ZN4core3ptr86drop_in_place$LT$syn..punctuated..Punctuated$LT$syn..pat..Pat$C$syn..token..Or$GT$$GT$17h857c4222dd642261E', symObjAddr: 0x5DC0, symBinAddr: 0x351B0, symSize: 0x120 }
  - { offsetInCU: 0x1F514, offset: 0x101B73, size: 0x8, addend: 0x0, symName: '__ZN4core3ptr87drop_in_place$LT$core..option..Option$LT$alloc..boxed..Box$LT$syn..pat..Pat$GT$$GT$$GT$17hb3c11e9d12bcdbd1E', symObjAddr: 0x5EE0, symBinAddr: 0x352D0, symSize: 0x50 }
  - { offsetInCU: 0x1F686, offset: 0x101CE5, size: 0x8, addend: 0x0, symName: '__ZN4core3ptr87drop_in_place$LT$core..option..Option$LT$alloc..boxed..Box$LT$syn..ty..Type$GT$$GT$$GT$17h407163ef6663e2ffE', symObjAddr: 0x5F30, symBinAddr: 0x35320, symSize: 0x50 }
  - { offsetInCU: 0x1F7F8, offset: 0x101E57, size: 0x8, addend: 0x0, symName: '__ZN4core3ptr89drop_in_place$LT$core..option..Option$LT$alloc..boxed..Box$LT$syn..expr..Expr$GT$$GT$$GT$17h8a4fcd655c85b4e5E', symObjAddr: 0x5F80, symBinAddr: 0x35370, symSize: 0x50 }
  - { offsetInCU: 0x1F9A8, offset: 0x102007, size: 0x8, addend: 0x0, symName: '__ZN4core3ptr89drop_in_place$LT$syn..punctuated..Punctuated$LT$syn..pat..Pat$C$syn..token..Comma$GT$$GT$17hb086995bcf66ffcdE', symObjAddr: 0x5FD0, symBinAddr: 0x353C0, symSize: 0x120 }
  - { offsetInCU: 0x1FE05, offset: 0x102464, size: 0x8, addend: 0x0, symName: '__ZN4core3ptr89drop_in_place$LT$syn..punctuated..Punctuated$LT$syn..ty..Type$C$syn..token..Comma$GT$$GT$17h22647ef5f64debb9E', symObjAddr: 0x60F0, symBinAddr: 0x354E0, symSize: 0x120 }
  - { offsetInCU: 0x2024F, offset: 0x1028AE, size: 0x8, addend: 0x0, symName: '__ZN4core3ptr90drop_in_place$LT$core..option..Option$LT$syn..path..AngleBracketedGenericArguments$GT$$GT$17h2082dea84519cea9E', symObjAddr: 0x6210, symBinAddr: 0x35600, symSize: 0x130 }
  - { offsetInCU: 0x206BA, offset: 0x102D19, size: 0x8, addend: 0x0, symName: '__ZN4core3ptr91drop_in_place$LT$syn..punctuated..Punctuated$LT$syn..expr..Expr$C$syn..token..Comma$GT$$GT$17h0369d12efd25ffe5E', symObjAddr: 0x6340, symBinAddr: 0x35730, symSize: 0x120 }
  - { offsetInCU: 0x20B17, offset: 0x103176, size: 0x8, addend: 0x0, symName: '__ZN4core3ptr94drop_in_place$LT$syn..punctuated..Punctuated$LT$syn..pat..FieldPat$C$syn..token..Comma$GT$$GT$17ha79305f2d14a963bE', symObjAddr: 0x6460, symBinAddr: 0x35850, symSize: 0xF0 }
  - { offsetInCU: 0x20DE1, offset: 0x103440, size: 0x8, addend: 0x0, symName: '__ZN4core3ptr94drop_in_place$LT$syn..punctuated..Punctuated$LT$syn..ty..BareFnArg$C$syn..token..Comma$GT$$GT$17h17c7f848dd9be9aeE', symObjAddr: 0x6550, symBinAddr: 0x35940, symSize: 0xF0 }
  - { offsetInCU: 0x210AB, offset: 0x10370A, size: 0x8, addend: 0x0, symName: '__ZN4core3ptr96drop_in_place$LT$core..option..Option$LT$alloc..boxed..Box$LT$syn..path..PathSegment$GT$$GT$$GT$17h1891276410ff88caE', symObjAddr: 0x6640, symBinAddr: 0x35A30, symSize: 0x90 }
  - { offsetInCU: 0x2134C, offset: 0x1039AB, size: 0x8, addend: 0x0, symName: '__ZN4core3ptr97drop_in_place$LT$syn..punctuated..Punctuated$LT$syn..expr..FieldValue$C$syn..token..Comma$GT$$GT$17hed66755c87efe679E', symObjAddr: 0x6720, symBinAddr: 0x35AC0, symSize: 0xF0 }
  - { offsetInCU: 0x21616, offset: 0x103C75, size: 0x8, addend: 0x0, symName: '__ZN4core3ptr98drop_in_place$LT$alloc..vec..Vec$LT$$LP$syn..path..GenericArgument$C$syn..token..Comma$RP$$GT$$GT$17h21ee089563ac5e47E', symObjAddr: 0x6810, symBinAddr: 0x35BB0, symSize: 0xD0 }
  - { offsetInCU: 0x21900, offset: 0x103F5F, size: 0x8, addend: 0x0, symName: '__ZN4core3ptr98drop_in_place$LT$syn..punctuated..Punctuated$LT$syn..lifetime..Lifetime$C$syn..token..Plus$GT$$GT$17h629d02c6fce7523dE.llvm.13193804877929279005', symObjAddr: 0x68E0, symBinAddr: 0x35C80, symSize: 0xC0 }
  - { offsetInCU: 0x24E80, offset: 0x1074DF, size: 0x8, addend: 0x0, symName: __ZN4core4iter6traits10exact_size17ExactSizeIterator8is_empty17h741f1fe0bcdd06a7E.llvm.13193804877929279005, symObjAddr: 0x69A0, symBinAddr: 0x35D40, symSize: 0x30 }
  - { offsetInCU: 0x24FCF, offset: 0x10762E, size: 0x8, addend: 0x0, symName: __ZN4core4iter6traits12double_ended19DoubleEndedIterator15advance_back_by17h6d4de26c848bdfa2E.llvm.13193804877929279005, symObjAddr: 0x6AB0, symBinAddr: 0x35D70, symSize: 0x80 }
  - { offsetInCU: 0x2521F, offset: 0x10787E, size: 0x8, addend: 0x0, symName: __ZN4core4iter6traits12double_ended19DoubleEndedIterator8nth_back17h09e906fff39baa50E.llvm.13193804877929279005, symObjAddr: 0x6BA0, symBinAddr: 0x35DF0, symSize: 0xB0 }
  - { offsetInCU: 0x256DA, offset: 0x107D39, size: 0x8, addend: 0x0, symName: __ZN4core4iter6traits8iterator8Iterator10advance_by17ha80caf6cfc7755deE.llvm.13193804877929279005, symObjAddr: 0x6E20, symBinAddr: 0x35EA0, symSize: 0x70 }
  - { offsetInCU: 0x25A44, offset: 0x1080A3, size: 0x8, addend: 0x0, symName: __ZN4core4iter6traits8iterator8Iterator3nth17h66da70ba89660647E.llvm.13193804877929279005, symObjAddr: 0x6EF0, symBinAddr: 0x35F10, symSize: 0x80 }
  - { offsetInCU: 0x2600E, offset: 0x10866D, size: 0x8, addend: 0x0, symName: __ZN4core4iter6traits8iterator8Iterator9size_hint17h5fc0790cdfd4d117E.llvm.13193804877929279005, symObjAddr: 0x7070, symBinAddr: 0x35F90, symSize: 0x0 }
  - { offsetInCU: 0x283D7, offset: 0x10AA36, size: 0x8, addend: 0x0, symName: _anon.684b1c3417e0323101c9eaf321c8ecbf.10.llvm.13193804877929279005, symObjAddr: 0x8270, symBinAddr: 0x280618, symSize: 0x0 }
  - { offsetInCU: 0x28F3D, offset: 0x10B59C, size: 0x8, addend: 0x0, symName: '__ZN3syn10punctuated23Punctuated$LT$T$C$P$GT$4push17h3b16359dbf90c427E', symObjAddr: 0x340, symBinAddr: 0x2F7C0, symSize: 0x200 }
  - { offsetInCU: 0x296FA, offset: 0x10BD59, size: 0x8, addend: 0x0, symName: '__ZN3syn10punctuated23Punctuated$LT$T$C$P$GT$4push17hf7acab0a72ebb4b8E', symObjAddr: 0x540, symBinAddr: 0x2F9C0, symSize: 0x220 }
  - { offsetInCU: 0x1E, offset: 0x10ED8B, size: 0x8, addend: 0x0, symName: __ZN5alloc7raw_vec11finish_grow17hb296de9465dd111dE.llvm.10413799408989070161, symObjAddr: 0x0, symBinAddr: 0x36060, symSize: 0xA0 }
  - { offsetInCU: 0x4113, offset: 0x112E80, size: 0x8, addend: 0x0, symName: __ZN5alloc7raw_vec11finish_grow17hb296de9465dd111dE.llvm.10413799408989070161, symObjAddr: 0x0, symBinAddr: 0x36060, symSize: 0xA0 }
  - { offsetInCU: 0x5328, offset: 0x114095, size: 0x8, addend: 0x0, symName: '__ZN5alloc7raw_vec19RawVec$LT$T$C$A$GT$7reserve21do_reserve_and_handle17h2dc53bf5c1e5f3ecE', symObjAddr: 0x780, symBinAddr: 0x212440, symSize: 0xC0 }
  - { offsetInCU: 0x567A, offset: 0x1143E7, size: 0x8, addend: 0x0, symName: '__ZN5alloc7raw_vec19RawVec$LT$T$C$A$GT$7reserve21do_reserve_and_handle17h5160c3226d8ed1a8E', symObjAddr: 0x840, symBinAddr: 0x212500, symSize: 0xD0 }
  - { offsetInCU: 0x59CD, offset: 0x11473A, size: 0x8, addend: 0x0, symName: '__ZN5alloc7raw_vec19RawVec$LT$T$C$A$GT$7reserve21do_reserve_and_handle17h9e2d184575395b3bE', symObjAddr: 0x9D0, symBinAddr: 0x2125D0, symSize: 0xB0 }
  - { offsetInCU: 0x5D05, offset: 0x114A72, size: 0x8, addend: 0x0, symName: '__ZN5alloc7raw_vec19RawVec$LT$T$C$A$GT$7reserve21do_reserve_and_handle17hcc89e2a4fc84e503E', symObjAddr: 0xA80, symBinAddr: 0x212680, symSize: 0xD0 }
  - { offsetInCU: 0x6121, offset: 0x114E8E, size: 0x8, addend: 0x0, symName: '__ZN77_$LT$alloc..raw_vec..RawVec$LT$T$C$A$GT$$u20$as$u20$core..ops..drop..Drop$GT$4drop17h2085f6ea950ba993E', symObjAddr: 0xBB0, symBinAddr: 0x364E0, symSize: 0x0 }
  - { offsetInCU: 0x621E, offset: 0x114F8B, size: 0x8, addend: 0x0, symName: '__ZN77_$LT$alloc..raw_vec..RawVec$LT$T$C$A$GT$$u20$as$u20$core..ops..drop..Drop$GT$4drop17h66b4a59eb4cd2350E', symObjAddr: 0xD30, symBinAddr: 0x36510, symSize: 0x0 }
  - { offsetInCU: 0x631B, offset: 0x115088, size: 0x8, addend: 0x0, symName: '__ZN77_$LT$alloc..raw_vec..RawVec$LT$T$C$A$GT$$u20$as$u20$core..ops..drop..Drop$GT$4drop17he7156de839c34dadE', symObjAddr: 0xF00, symBinAddr: 0x36540, symSize: 0x30 }
  - { offsetInCU: 0xC840, offset: 0x11B5AD, size: 0x8, addend: 0x0, symName: '__ZN5alloc7raw_vec19RawVec$LT$T$C$A$GT$16reserve_for_push17h35edb9d5db65ed7dE', symObjAddr: 0x3A0, symBinAddr: 0x36100, symSize: 0xD0 }
  - { offsetInCU: 0xCD04, offset: 0x11BA71, size: 0x8, addend: 0x0, symName: '__ZN5alloc7raw_vec19RawVec$LT$T$C$A$GT$16reserve_for_push17h4eeb85321de2fc7eE', symObjAddr: 0x470, symBinAddr: 0x361D0, symSize: 0x0 }
  - { offsetInCU: 0xD1C8, offset: 0x11BF35, size: 0x8, addend: 0x0, symName: '__ZN5alloc7raw_vec19RawVec$LT$T$C$A$GT$16reserve_for_push17h806116dc5b02a4b3E', symObjAddr: 0x530, symBinAddr: 0x36290, symSize: 0xB0 }
  - { offsetInCU: 0xD672, offset: 0x11C3DF, size: 0x8, addend: 0x0, symName: '__ZN5alloc7raw_vec19RawVec$LT$T$C$A$GT$16reserve_for_push17hf2d75e6a918a5078E', symObjAddr: 0x5E0, symBinAddr: 0x36340, symSize: 0xD0 }
  - { offsetInCU: 0xDB62, offset: 0x11C8CF, size: 0x8, addend: 0x0, symName: '__ZN5alloc7raw_vec19RawVec$LT$T$C$A$GT$16reserve_for_push17hf4ea181b1814b859E', symObjAddr: 0x6B0, symBinAddr: 0x36410, symSize: 0xD0 }
  - { offsetInCU: 0x99, offset: 0x11D305, size: 0x8, addend: 0x0, symName: '__ZN58_$LT$alloc..string..String$u20$as$u20$core..fmt..Write$GT$10write_char17hd329c0cb943f081aE', symObjAddr: 0x6270, symBinAddr: 0x3C7D0, symSize: 0x130 }
  - { offsetInCU: 0x440, offset: 0x11D6AC, size: 0x8, addend: 0x0, symName: '__ZN58_$LT$alloc..string..String$u20$as$u20$core..fmt..Write$GT$9write_str17h1ff5aa96ca91c6d5E', symObjAddr: 0x63A0, symBinAddr: 0x3C900, symSize: 0x60 }
  - { offsetInCU: 0x33AD, offset: 0x120619, size: 0x8, addend: 0x0, symName: '__ZN4core3ptr100drop_in_place$LT$core..option..Option$LT$alloc..boxed..Box$LT$syn..path..GenericArgument$GT$$GT$$GT$17h4ad733554d99479dE', symObjAddr: 0x10, symBinAddr: 0x36570, symSize: 0x50 }
  - { offsetInCU: 0x374D, offset: 0x1209B9, size: 0x8, addend: 0x0, symName: '__ZN4core3ptr100drop_in_place$LT$syn..punctuated..Punctuated$LT$syn..path..PathSegment$C$syn..token..PathSep$GT$$GT$17h8ebc154637df8ffbE', symObjAddr: 0x60, symBinAddr: 0x365C0, symSize: 0x280 }
  - { offsetInCU: 0x41FA, offset: 0x121466, size: 0x8, addend: 0x0, symName: '__ZN4core3ptr103drop_in_place$LT$core..option..Option$LT$alloc..boxed..Box$LT$syn..generics..TypeParamBound$GT$$GT$$GT$17hf0901f177fd8ec83E', symObjAddr: 0x2E0, symBinAddr: 0x36840, symSize: 0x50 }
  - { offsetInCU: 0x4445, offset: 0x1216B1, size: 0x8, addend: 0x0, symName: '__ZN4core3ptr103drop_in_place$LT$core..option..Option$LT$alloc..boxed..Box$LT$syn..generics..WherePredicate$GT$$GT$$GT$17heabefb9f353da5c0E', symObjAddr: 0x330, symBinAddr: 0x36890, symSize: 0xD0 }
  - { offsetInCU: 0x47D8, offset: 0x121A44, size: 0x8, addend: 0x0, symName: '__ZN4core3ptr103drop_in_place$LT$syn..punctuated..Punctuated$LT$syn..generics..GenericParam$C$syn..token..Comma$GT$$GT$17hc171c18ee53dbad0E', symObjAddr: 0x400, symBinAddr: 0x36960, symSize: 0xF0 }
  - { offsetInCU: 0x4C5D, offset: 0x121EC9, size: 0x8, addend: 0x0, symName: '__ZN4core3ptr104drop_in_place$LT$syn..punctuated..Punctuated$LT$syn..generics..TypeParamBound$C$syn..token..Plus$GT$$GT$17hcf5b48af9969cc83E', symObjAddr: 0x4F0, symBinAddr: 0x36A50, symSize: 0x260 }
  - { offsetInCU: 0x564F, offset: 0x1228BB, size: 0x8, addend: 0x0, symName: '__ZN4core3ptr34drop_in_place$LT$syn..lit..Lit$GT$17ha63ef6405732d63fE', symObjAddr: 0x750, symBinAddr: 0x36CB0, symSize: 0x110 }
  - { offsetInCU: 0x5B89, offset: 0x122DF5, size: 0x8, addend: 0x0, symName: '__ZN4core3ptr34drop_in_place$LT$syn..pat..Pat$GT$17h91c3546b0c499aa4E', symObjAddr: 0x860, symBinAddr: 0x36DC0, symSize: 0xBC0 }
  - { offsetInCU: 0x91C6, offset: 0x126432, size: 0x8, addend: 0x0, symName: '__ZN4core3ptr34drop_in_place$LT$syn..ty..Type$GT$17h646f784aaf5cbab1E', symObjAddr: 0x1420, symBinAddr: 0x37980, symSize: 0x510 }
  - { offsetInCU: 0xA825, offset: 0x127A91, size: 0x8, addend: 0x0, symName: '__ZN4core3ptr36drop_in_place$LT$syn..expr..Expr$GT$17hb910290a3af1daefE', symObjAddr: 0x1930, symBinAddr: 0x37E90, symSize: 0x1E10 }
  - { offsetInCU: 0x12A19, offset: 0x12FC85, size: 0x8, addend: 0x0, symName: '__ZN4core3ptr36drop_in_place$LT$syn..mac..Macro$GT$17h5f1ece46988e9adcE', symObjAddr: 0x3740, symBinAddr: 0x39CA0, symSize: 0x40 }
  - { offsetInCU: 0x12A53, offset: 0x12FCBF, size: 0x8, addend: 0x0, symName: '__ZN4core3ptr36drop_in_place$LT$syn..path..Path$GT$17h00d83a0e1f28cf99E', symObjAddr: 0x3780, symBinAddr: 0x39CE0, symSize: 0x240 }
  - { offsetInCU: 0x1349C, offset: 0x130708, size: 0x8, addend: 0x0, symName: '__ZN4core3ptr37drop_in_place$LT$core..fmt..Error$GT$17h89a04fbb18211e31E', symObjAddr: 0x39C0, symBinAddr: 0x39F20, symSize: 0x10 }
  - { offsetInCU: 0x134C8, offset: 0x130734, size: 0x8, addend: 0x0, symName: '__ZN4core3ptr37drop_in_place$LT$syn..stmt..Block$GT$17h33338ad4c6a9f8a8E', symObjAddr: 0x39D0, symBinAddr: 0x39F30, symSize: 0xD0 }
  - { offsetInCU: 0x1376C, offset: 0x1309D8, size: 0x8, addend: 0x0, symName: '__ZN4core3ptr38drop_in_place$LT$syn..expr..Member$GT$17h97aaa8d7a3825814E', symObjAddr: 0x3AA0, symBinAddr: 0x3A000, symSize: 0x30 }
  - { offsetInCU: 0x13869, offset: 0x130AD5, size: 0x8, addend: 0x0, symName: '__ZN4core3ptr39drop_in_place$LT$proc_macro2..Ident$GT$17h7dde42b28475f68eE', symObjAddr: 0x3AD0, symBinAddr: 0x3A030, symSize: 0x30 }
  - { offsetInCU: 0x13947, offset: 0x130BB3, size: 0x8, addend: 0x0, symName: '__ZN4core3ptr40drop_in_place$LT$syn..ty..ReturnType$GT$17h88c7077d98a3718fE', symObjAddr: 0x3B00, symBinAddr: 0x3A060, symSize: 0x50 }
  - { offsetInCU: 0x13AB9, offset: 0x130D25, size: 0x8, addend: 0x0, symName: '__ZN4core3ptr41drop_in_place$LT$syn..expr..ExprConst$GT$17h56a43a7f2459f7b8E', symObjAddr: 0x3B50, symBinAddr: 0x3A0B0, symSize: 0x120 }
  - { offsetInCU: 0x13F7A, offset: 0x1311E6, size: 0x8, addend: 0x0, symName: '__ZN4core3ptr42drop_in_place$LT$alloc..string..String$GT$17h63c6e5dcbf4cc5c0E', symObjAddr: 0x3C70, symBinAddr: 0x3A1D0, symSize: 0x20 }
  - { offsetInCU: 0x14083, offset: 0x1312EF, size: 0x8, addend: 0x0, symName: '__ZN4core3ptr44drop_in_place$LT$syn..lifetime..Lifetime$GT$17h759c84ac0687907aE', symObjAddr: 0x3C90, symBinAddr: 0x3A1F0, symSize: 0x30 }
  - { offsetInCU: 0x142B6, offset: 0x131522, size: 0x8, addend: 0x0, symName: '__ZN4core3ptr45drop_in_place$LT$proc_macro2..TokenStream$GT$17h0753e791e3190ac8E', symObjAddr: 0x3CC0, symBinAddr: 0x3A220, symSize: 0x140 }
  - { offsetInCU: 0x14725, offset: 0x131991, size: 0x8, addend: 0x0, symName: '__ZN4core3ptr45drop_in_place$LT$syn..generics..TypeParam$GT$17hf6c689bf92fae6b2E', symObjAddr: 0x3E00, symBinAddr: 0x3A360, symSize: 0x1E0 }
  - { offsetInCU: 0x14E7F, offset: 0x1320EB, size: 0x8, addend: 0x0, symName: '__ZN4core3ptr46drop_in_place$LT$syn..generics..ConstParam$GT$17h84ae073706aff006E', symObjAddr: 0x3FE0, symBinAddr: 0x3A540, symSize: 0x100 }
  - { offsetInCU: 0x15207, offset: 0x132473, size: 0x8, addend: 0x0, symName: '__ZN4core3ptr47drop_in_place$LT$syn..path..GenericArgument$GT$17h1e97a51d0bfa8d79E', symObjAddr: 0x40E0, symBinAddr: 0x3A640, symSize: 0x4A0 }
  - { offsetInCU: 0x162AE, offset: 0x13351A, size: 0x8, addend: 0x0, symName: '__ZN4core3ptr49drop_in_place$LT$syn..generics..LifetimeParam$GT$17h3c90f2e78b6ca927E', symObjAddr: 0x4580, symBinAddr: 0x3AAE0, symSize: 0xA0 }
  - { offsetInCU: 0x165C8, offset: 0x133834, size: 0x8, addend: 0x0, symName: '__ZN4core3ptr50drop_in_place$LT$syn..generics..TypeParamBound$GT$17h7b9343174e39278bE', symObjAddr: 0x4620, symBinAddr: 0x3AB80, symSize: 0xA0 }
  - { offsetInCU: 0x1672F, offset: 0x13399B, size: 0x8, addend: 0x0, symName: '__ZN4core3ptr58drop_in_place$LT$alloc..vec..Vec$LT$syn..expr..Arm$GT$$GT$17ha7bc79fcc49d0e19E', symObjAddr: 0x46C0, symBinAddr: 0x3AC20, symSize: 0xD0 }
  - { offsetInCU: 0x169BC, offset: 0x133C28, size: 0x8, addend: 0x0, symName: '__ZN4core3ptr59drop_in_place$LT$alloc..boxed..Box$LT$syn..pat..Pat$GT$$GT$17h49ffe6535f47318fE', symObjAddr: 0x4790, symBinAddr: 0x3ACF0, symSize: 0x50 }
  - { offsetInCU: 0x16B17, offset: 0x133D83, size: 0x8, addend: 0x0, symName: '__ZN4core3ptr59drop_in_place$LT$alloc..boxed..Box$LT$syn..ty..Type$GT$$GT$17h36cfce59f01f3a8fE', symObjAddr: 0x47E0, symBinAddr: 0x3AD40, symSize: 0x50 }
  - { offsetInCU: 0x16C72, offset: 0x133EDE, size: 0x8, addend: 0x0, symName: '__ZN4core3ptr61drop_in_place$LT$alloc..boxed..Box$LT$syn..expr..Expr$GT$$GT$17he2adadfca53b3509E', symObjAddr: 0x4830, symBinAddr: 0x3AD90, symSize: 0x50 }
  - { offsetInCU: 0x16E49, offset: 0x1340B5, size: 0x8, addend: 0x0, symName: '__ZN4core3ptr61drop_in_place$LT$syn..path..ParenthesizedGenericArguments$GT$17h4cd7782735b88d96E', symObjAddr: 0x4880, symBinAddr: 0x3ADE0, symSize: 0x170 }
  - { offsetInCU: 0x17410, offset: 0x13467C, size: 0x8, addend: 0x0, symName: '__ZN4core3ptr62drop_in_place$LT$syn..path..AngleBracketedGenericArguments$GT$17hac124dd118513038E', symObjAddr: 0x49F0, symBinAddr: 0x3AF50, symSize: 0x120 }
  - { offsetInCU: 0x17826, offset: 0x134A92, size: 0x8, addend: 0x0, symName: '__ZN4core3ptr63drop_in_place$LT$alloc..boxed..Box$LT$syn..lit..LitRepr$GT$$GT$17hc5bc8ee019cad972E', symObjAddr: 0x4B10, symBinAddr: 0x3B070, symSize: 0x60 }
  - { offsetInCU: 0x17B1B, offset: 0x134D87, size: 0x8, addend: 0x0, symName: '__ZN4core3ptr64drop_in_place$LT$alloc..boxed..Box$LT$syn..pat..FieldPat$GT$$GT$17h770150671720e9c0E', symObjAddr: 0x4B70, symBinAddr: 0x3B0D0, symSize: 0x100 }
  - { offsetInCU: 0x18136, offset: 0x1353A2, size: 0x8, addend: 0x0, symName: '__ZN4core3ptr64drop_in_place$LT$alloc..boxed..Box$LT$syn..ty..BareFnArg$GT$$GT$17h15a58aeff26cf7b1E', symObjAddr: 0x4C70, symBinAddr: 0x3B1D0, symSize: 0xF0 }
  - { offsetInCU: 0x185C8, offset: 0x135834, size: 0x8, addend: 0x0, symName: '__ZN4core3ptr65drop_in_place$LT$core..option..Option$LT$syn..expr..Label$GT$$GT$17hbeb69ff24f6d12a3E', symObjAddr: 0x4D60, symBinAddr: 0x3B2C0, symSize: 0x30 }
  - { offsetInCU: 0x18703, offset: 0x13596F, size: 0x8, addend: 0x0, symName: '__ZN4core3ptr66drop_in_place$LT$core..option..Option$LT$syn..pat..PatRest$GT$$GT$17hb16059a77742bcc2E', symObjAddr: 0x4D90, symBinAddr: 0x3B2F0, symSize: 0x70 }
  - { offsetInCU: 0x18959, offset: 0x135BC5, size: 0x8, addend: 0x0, symName: '__ZN4core3ptr67drop_in_place$LT$alloc..boxed..Box$LT$syn..expr..FieldValue$GT$$GT$17h31092deaee4fbb6bE', symObjAddr: 0x4E00, symBinAddr: 0x3B360, symSize: 0xF0 }
  - { offsetInCU: 0x18DCB, offset: 0x136037, size: 0x8, addend: 0x0, symName: '__ZN4core3ptr68drop_in_place$LT$alloc..boxed..Box$LT$syn..path..PathSegment$GT$$GT$17h389b073a071a136cE', symObjAddr: 0x4EF0, symBinAddr: 0x3B450, symSize: 0x190 }
  - { offsetInCU: 0x194A9, offset: 0x136715, size: 0x8, addend: 0x0, symName: '__ZN4core3ptr70drop_in_place$LT$core..option..Option$LT$syn..ty..BareVariadic$GT$$GT$17h5d50785ed896ab9aE', symObjAddr: 0x5080, symBinAddr: 0x3B5E0, symSize: 0xC0 }
  - { offsetInCU: 0x19936, offset: 0x136BA2, size: 0x8, addend: 0x0, symName: '__ZN4core3ptr72drop_in_place$LT$alloc..boxed..Box$LT$syn..path..GenericArgument$GT$$GT$17h0167b8c28da927e0E', symObjAddr: 0x5140, symBinAddr: 0x3B6A0, symSize: 0x2B0 }
  - { offsetInCU: 0x1A2C1, offset: 0x13752D, size: 0x8, addend: 0x0, symName: '__ZN4core3ptr72drop_in_place$LT$core..option..Option$LT$syn..lifetime..Lifetime$GT$$GT$17h1cec8fef0bb8367dE', symObjAddr: 0x53F0, symBinAddr: 0x3B950, symSize: 0x30 }
  - { offsetInCU: 0x1A3DD, offset: 0x137649, size: 0x8, addend: 0x0, symName: '__ZN4core3ptr73drop_in_place$LT$alloc..boxed..Box$LT$syn..generics..GenericParam$GT$$GT$17h858b54a69accfd4dE', symObjAddr: 0x5420, symBinAddr: 0x3B980, symSize: 0x80 }
  - { offsetInCU: 0x1A555, offset: 0x1377C1, size: 0x8, addend: 0x0, symName: '__ZN4core3ptr75drop_in_place$LT$alloc..boxed..Box$LT$syn..generics..TypeParamBound$GT$$GT$17h3da0d8fba9b3862cE', symObjAddr: 0x54A0, symBinAddr: 0x3BA00, symSize: 0x190 }
  - { offsetInCU: 0x1AC4E, offset: 0x137EBA, size: 0x8, addend: 0x0, symName: '__ZN4core3ptr75drop_in_place$LT$core..option..Option$LT$syn..generics..WhereClause$GT$$GT$17ha4182a1a7c1ac8acE', symObjAddr: 0x5630, symBinAddr: 0x3BB90, symSize: 0x90 }
  - { offsetInCU: 0x1AF04, offset: 0x138170, size: 0x8, addend: 0x0, symName: '__ZN4core3ptr86drop_in_place$LT$syn..punctuated..Punctuated$LT$syn..pat..Pat$C$syn..token..Or$GT$$GT$17h857c4222dd642261E', symObjAddr: 0x56C0, symBinAddr: 0x3BC20, symSize: 0x120 }
  - { offsetInCU: 0x1B34A, offset: 0x1385B6, size: 0x8, addend: 0x0, symName: '__ZN4core3ptr87drop_in_place$LT$core..option..Option$LT$alloc..boxed..Box$LT$syn..pat..Pat$GT$$GT$$GT$17hb3c11e9d12bcdbd1E', symObjAddr: 0x57E0, symBinAddr: 0x3BD40, symSize: 0x50 }
  - { offsetInCU: 0x1B4BC, offset: 0x138728, size: 0x8, addend: 0x0, symName: '__ZN4core3ptr87drop_in_place$LT$core..option..Option$LT$alloc..boxed..Box$LT$syn..ty..Type$GT$$GT$$GT$17h407163ef6663e2ffE', symObjAddr: 0x5830, symBinAddr: 0x3BD90, symSize: 0x50 }
  - { offsetInCU: 0x1B62E, offset: 0x13889A, size: 0x8, addend: 0x0, symName: '__ZN4core3ptr89drop_in_place$LT$core..option..Option$LT$alloc..boxed..Box$LT$syn..expr..Expr$GT$$GT$$GT$17h8a4fcd655c85b4e5E', symObjAddr: 0x5880, symBinAddr: 0x3BDE0, symSize: 0x50 }
  - { offsetInCU: 0x1B7DE, offset: 0x138A4A, size: 0x8, addend: 0x0, symName: '__ZN4core3ptr89drop_in_place$LT$syn..punctuated..Punctuated$LT$syn..pat..Pat$C$syn..token..Comma$GT$$GT$17hb086995bcf66ffcdE', symObjAddr: 0x58D0, symBinAddr: 0x3BE30, symSize: 0x120 }
  - { offsetInCU: 0x1BC3B, offset: 0x138EA7, size: 0x8, addend: 0x0, symName: '__ZN4core3ptr89drop_in_place$LT$syn..punctuated..Punctuated$LT$syn..ty..Type$C$syn..token..Comma$GT$$GT$17h22647ef5f64debb9E', symObjAddr: 0x59F0, symBinAddr: 0x3BF50, symSize: 0x120 }
  - { offsetInCU: 0x1C085, offset: 0x1392F1, size: 0x8, addend: 0x0, symName: '__ZN4core3ptr90drop_in_place$LT$core..option..Option$LT$syn..path..AngleBracketedGenericArguments$GT$$GT$17h2082dea84519cea9E', symObjAddr: 0x5B10, symBinAddr: 0x3C070, symSize: 0x130 }
  - { offsetInCU: 0x1C4F0, offset: 0x13975C, size: 0x8, addend: 0x0, symName: '__ZN4core3ptr91drop_in_place$LT$syn..punctuated..Punctuated$LT$syn..expr..Expr$C$syn..token..Comma$GT$$GT$17h0369d12efd25ffe5E', symObjAddr: 0x5C40, symBinAddr: 0x3C1A0, symSize: 0x120 }
  - { offsetInCU: 0x1C94D, offset: 0x139BB9, size: 0x8, addend: 0x0, symName: '__ZN4core3ptr94drop_in_place$LT$syn..punctuated..Punctuated$LT$syn..pat..FieldPat$C$syn..token..Comma$GT$$GT$17ha79305f2d14a963bE', symObjAddr: 0x5D60, symBinAddr: 0x3C2C0, symSize: 0xF0 }
  - { offsetInCU: 0x1CC17, offset: 0x139E83, size: 0x8, addend: 0x0, symName: '__ZN4core3ptr94drop_in_place$LT$syn..punctuated..Punctuated$LT$syn..ty..BareFnArg$C$syn..token..Comma$GT$$GT$17h17c7f848dd9be9aeE', symObjAddr: 0x5E50, symBinAddr: 0x3C3B0, symSize: 0xF0 }
  - { offsetInCU: 0x1CEE1, offset: 0x13A14D, size: 0x8, addend: 0x0, symName: '__ZN4core3ptr96drop_in_place$LT$core..option..Option$LT$alloc..boxed..Box$LT$syn..path..PathSegment$GT$$GT$$GT$17h1891276410ff88caE', symObjAddr: 0x5F40, symBinAddr: 0x3C4A0, symSize: 0x90 }
  - { offsetInCU: 0x1D163, offset: 0x13A3CF, size: 0x8, addend: 0x0, symName: '__ZN4core3ptr97drop_in_place$LT$syn..punctuated..Punctuated$LT$syn..expr..FieldValue$C$syn..token..Comma$GT$$GT$17hed66755c87efe679E', symObjAddr: 0x5FD0, symBinAddr: 0x3C530, symSize: 0xF0 }
  - { offsetInCU: 0x1D42D, offset: 0x13A699, size: 0x8, addend: 0x0, symName: '__ZN4core3ptr98drop_in_place$LT$alloc..vec..Vec$LT$$LP$syn..path..GenericArgument$C$syn..token..Comma$RP$$GT$$GT$17h21ee089563ac5e47E', symObjAddr: 0x60C0, symBinAddr: 0x3C620, symSize: 0xD0 }
  - { offsetInCU: 0x1D736, offset: 0x13A9A2, size: 0x8, addend: 0x0, symName: '__ZN4core3ptr98drop_in_place$LT$syn..punctuated..Punctuated$LT$syn..lifetime..Lifetime$C$syn..token..Plus$GT$$GT$17h629d02c6fce7523dE', symObjAddr: 0x6190, symBinAddr: 0x3C6F0, symSize: 0xC0 }
  - { offsetInCU: 0x1E09F, offset: 0x13B30B, size: 0x8, addend: 0x0, symName: '__ZN53_$LT$core..fmt..Error$u20$as$u20$core..fmt..Debug$GT$3fmt17h43ae5cec9623af13E', symObjAddr: 0x6250, symBinAddr: 0x3C7B0, symSize: 0x20 }
  - { offsetInCU: 0x20C1D, offset: 0x13DE89, size: 0x8, addend: 0x0, symName: __ZN14thiserror_impl8generics5crawl17h108fc8eaae9eab76E.llvm.1081970587159017940, symObjAddr: 0x6470, symBinAddr: 0x3C960, symSize: 0x290 }
  - { offsetInCU: 0x27924, offset: 0x144B90, size: 0x8, addend: 0x0, symName: __ZN14thiserror_impl8generics14InferredBounds6insert17h09169df4431fe155E, symObjAddr: 0x6700, symBinAddr: 0x3CBF0, symSize: 0x5A0 }
  - { offsetInCU: 0x2848B, offset: 0x1456F7, size: 0x8, addend: 0x0, symName: __ZN14thiserror_impl8generics14InferredBounds6insert17h8669056ead8fa6dcE, symObjAddr: 0x6CA0, symBinAddr: 0x3D190, symSize: 0x560 }
  - { offsetInCU: 0x28FC5, offset: 0x146231, size: 0x8, addend: 0x0, symName: __ZN14thiserror_impl8generics14InferredBounds6insert17hca38ac639e3120d9E, symObjAddr: 0x7200, symBinAddr: 0x3D6F0, symSize: 0x630 }
  - { offsetInCU: 0x29B11, offset: 0x146D7D, size: 0x8, addend: 0x0, symName: __ZN14thiserror_impl8generics14InferredBounds6insert17he72bf94d4fd72733E, symObjAddr: 0x7830, symBinAddr: 0x3DD20, symSize: 0x570 }
  - { offsetInCU: 0x2A768, offset: 0x1479D4, size: 0x8, addend: 0x0, symName: __ZN14thiserror_impl8generics14InferredBounds20augment_where_clause17h7ce30d88da752623E, symObjAddr: 0x7DA0, symBinAddr: 0x3E290, symSize: 0x4C1 }
  - { offsetInCU: 0x1E, offset: 0x14D7A3, size: 0x8, addend: 0x0, symName: '__ZN4core3ptr37drop_in_place$LT$core..fmt..Error$GT$17h89a04fbb18211e31E', symObjAddr: 0x0, symBinAddr: 0x3E760, symSize: 0x10 }
  - { offsetInCU: 0x99, offset: 0x14D81E, size: 0x8, addend: 0x0, symName: '__ZN58_$LT$alloc..string..String$u20$as$u20$core..fmt..Write$GT$10write_char17hd329c0cb943f081aE', symObjAddr: 0x3C0, symBinAddr: 0x3EB20, symSize: 0x130 }
  - { offsetInCU: 0x440, offset: 0x14DBC5, size: 0x8, addend: 0x0, symName: '__ZN58_$LT$alloc..string..String$u20$as$u20$core..fmt..Write$GT$9write_str17h1ff5aa96ca91c6d5E', symObjAddr: 0x4F0, symBinAddr: 0x3EC50, symSize: 0x60 }
  - { offsetInCU: 0x29D1, offset: 0x150156, size: 0x8, addend: 0x0, symName: '__ZN4core3ptr37drop_in_place$LT$core..fmt..Error$GT$17h89a04fbb18211e31E', symObjAddr: 0x0, symBinAddr: 0x3E760, symSize: 0x10 }
  - { offsetInCU: 0x2A3B, offset: 0x1501C0, size: 0x8, addend: 0x0, symName: '__ZN4core3ptr42drop_in_place$LT$alloc..string..String$GT$17h63c6e5dcbf4cc5c0E', symObjAddr: 0x10, symBinAddr: 0x3E770, symSize: 0x20 }
  - { offsetInCU: 0x2C7A, offset: 0x1503FF, size: 0x8, addend: 0x0, symName: '__ZN4core3ptr45drop_in_place$LT$proc_macro2..TokenStream$GT$17h0753e791e3190ac8E.llvm.1818310457920225005', symObjAddr: 0x30, symBinAddr: 0x3E790, symSize: 0x140 }
  - { offsetInCU: 0x321F, offset: 0x1509A4, size: 0x8, addend: 0x0, symName: '__ZN4core3ptr48drop_in_place$LT$thiserror_impl..attr..Attrs$GT$17had45fd67af4c1b4cE.llvm.1818310457920225005', symObjAddr: 0x170, symBinAddr: 0x3E8D0, symSize: 0x100 }
  - { offsetInCU: 0x36D0, offset: 0x150E55, size: 0x8, addend: 0x0, symName: '__ZN4core3ptr70drop_in_place$LT$alloc..vec..Vec$LT$thiserror_impl..ast..Field$GT$$GT$17h74fd0d23ff172c8aE', symObjAddr: 0x270, symBinAddr: 0x3E9D0, symSize: 0x60 }
  - { offsetInCU: 0x38F7, offset: 0x15107C, size: 0x8, addend: 0x0, symName: '__ZN4core3ptr72drop_in_place$LT$alloc..vec..Vec$LT$thiserror_impl..ast..Variant$GT$$GT$17h989be9cf441dcc50E', symObjAddr: 0x2D0, symBinAddr: 0x3EA30, symSize: 0xD0 }
  - { offsetInCU: 0x3FFA, offset: 0x15177F, size: 0x8, addend: 0x0, symName: '__ZN53_$LT$core..fmt..Error$u20$as$u20$core..fmt..Debug$GT$3fmt17h43ae5cec9623af13E', symObjAddr: 0x3A0, symBinAddr: 0x3EB00, symSize: 0x20 }
  - { offsetInCU: 0xDDBD, offset: 0x15B542, size: 0x8, addend: 0x0, symName: __ZN14thiserror_impl3ast5Input8from_syn17h4e5cb00d8f2068b9E, symObjAddr: 0x550, symBinAddr: 0x3ECB0, symSize: 0x800 }
  - { offsetInCU: 0xECF4, offset: 0x15C479, size: 0x8, addend: 0x0, symName: __ZN14thiserror_impl3ast7Variant8from_syn17h68c03d865a2c5258E, symObjAddr: 0xD50, symBinAddr: 0x3F4B0, symSize: 0x2C0 }
  - { offsetInCU: 0xF3E0, offset: 0x15CB65, size: 0x8, addend: 0x0, symName: __ZN14thiserror_impl3ast5Field8from_syn17hf070b4902543d35cE, symObjAddr: 0x1010, symBinAddr: 0x3F770, symSize: 0x1E0 }
  - { offsetInCU: 0xF935, offset: 0x15D0BA, size: 0x8, addend: 0x0, symName: '__ZN14thiserror_impl4prop43_$LT$impl$u20$thiserror_impl..ast..Enum$GT$13has_backtrace17ha988c7cb91b3c6ddE', symObjAddr: 0x1420, symBinAddr: 0x3F950, symSize: 0x210 }
  - { offsetInCU: 0x10502, offset: 0x15DC87, size: 0x8, addend: 0x0, symName: '__ZN14thiserror_impl4prop44_$LT$impl$u20$thiserror_impl..ast..Field$GT$11source_span17hdf074188b9e85eabE', symObjAddr: 0x16D0, symBinAddr: 0x3FB60, symSize: 0xF0 }
  - { offsetInCU: 0x10BFD, offset: 0x15E382, size: 0x8, addend: 0x0, symName: '__ZN14thiserror_impl5valid44_$LT$impl$u20$thiserror_impl..ast..Input$GT$8validate17h525b8290cb2a7ae2E', symObjAddr: 0x17C0, symBinAddr: 0x3FC50, symSize: 0x7BF }
  - { offsetInCU: 0x1E, offset: 0x161E84, size: 0x8, addend: 0x0, symName: '__ZN4core3ptr181drop_in_place$LT$hashbrown..scopeguard..ScopeGuard$LT$$RF$mut$u20$hashbrown..raw..RawTableInner$C$hashbrown..raw..RawTableInner..rehash_in_place..$u7b$$u7b$closure$u7d$$u7d$$GT$$GT$17h1e5b4c71f48db7eeE', symObjAddr: 0x0, symBinAddr: 0x40410, symSize: 0xC0 }
  - { offsetInCU: 0x670, offset: 0x1624D6, size: 0x8, addend: 0x0, symName: '__ZN79_$LT$hashbrown..raw..RawTable$LT$T$C$A$GT$$u20$as$u20$core..ops..drop..Drop$GT$4drop17h4ae1a2d3eb8d864dE', symObjAddr: 0x100, symBinAddr: 0x40510, symSize: 0x40 }
  - { offsetInCU: 0x130F, offset: 0x163175, size: 0x8, addend: 0x0, symName: '__ZN4core3ptr181drop_in_place$LT$hashbrown..scopeguard..ScopeGuard$LT$$RF$mut$u20$hashbrown..raw..RawTableInner$C$hashbrown..raw..RawTableInner..rehash_in_place..$u7b$$u7b$closure$u7d$$u7d$$GT$$GT$17h1e5b4c71f48db7eeE', symObjAddr: 0x0, symBinAddr: 0x40410, symSize: 0xC0 }
  - { offsetInCU: 0x190F, offset: 0x163775, size: 0x8, addend: 0x0, symName: '__ZN4core3ptr196drop_in_place$LT$hashbrown..scopeguard..ScopeGuard$LT$hashbrown..raw..RawTableInner$C$hashbrown..raw..RawTableInner..prepare_resize$LT$alloc..alloc..Global$GT$..$u7b$$u7b$closure$u7d$$u7d$$GT$$GT$17h24a41e4e4aa4a488E', symObjAddr: 0xC0, symBinAddr: 0x404D0, symSize: 0x40 }
  - { offsetInCU: 0x4708, offset: 0x16656E, size: 0x8, addend: 0x0, symName: '__ZN9hashbrown3raw21RawTable$LT$T$C$A$GT$14reserve_rehash17h7e3840b2bfbe876fE.llvm.7236557496535392796', symObjAddr: 0x140, symBinAddr: 0x212750, symSize: 0x810 }
  - { offsetInCU: 0x1E, offset: 0x16868C, size: 0x8, addend: 0x0, symName: __ZN3syn5parse11ParseBuffer4step17h28eda50aca784df1E, symObjAddr: 0x0, symBinAddr: 0x40550, symSize: 0x1D0 }
  - { offsetInCU: 0x1AD9, offset: 0x16A147, size: 0x8, addend: 0x0, symName: '__ZN4core3ptr100drop_in_place$LT$core..option..Option$LT$alloc..boxed..Box$LT$syn..path..GenericArgument$GT$$GT$$GT$17h4ad733554d99479dE', symObjAddr: 0xC10, symBinAddr: 0x41160, symSize: 0x50 }
  - { offsetInCU: 0x1CA8, offset: 0x16A316, size: 0x8, addend: 0x0, symName: '__ZN4core3ptr102drop_in_place$LT$syn..punctuated..Punctuated$LT$syn..path..GenericArgument$C$syn..token..Comma$GT$$GT$17h5cefecd06ef6ddf8E', symObjAddr: 0xC60, symBinAddr: 0x411B0, symSize: 0xF0 }
  - { offsetInCU: 0x1F91, offset: 0x16A5FF, size: 0x8, addend: 0x0, symName: '__ZN4core3ptr103drop_in_place$LT$core..option..Option$LT$alloc..boxed..Box$LT$syn..generics..TypeParamBound$GT$$GT$$GT$17hf0901f177fd8ec83E', symObjAddr: 0xD50, symBinAddr: 0x412A0, symSize: 0x50 }
  - { offsetInCU: 0x21DC, offset: 0x16A84A, size: 0x8, addend: 0x0, symName: '__ZN4core3ptr103drop_in_place$LT$core..option..Option$LT$alloc..boxed..Box$LT$syn..generics..WherePredicate$GT$$GT$$GT$17heabefb9f353da5c0E', symObjAddr: 0xDA0, symBinAddr: 0x412F0, symSize: 0xD0 }
  - { offsetInCU: 0x256F, offset: 0x16ABDD, size: 0x8, addend: 0x0, symName: '__ZN4core3ptr103drop_in_place$LT$syn..punctuated..Punctuated$LT$syn..generics..GenericParam$C$syn..token..Comma$GT$$GT$17hc171c18ee53dbad0E', symObjAddr: 0xE70, symBinAddr: 0x413C0, symSize: 0xF0 }
  - { offsetInCU: 0x2A32, offset: 0x16B0A0, size: 0x8, addend: 0x0, symName: '__ZN4core3ptr104drop_in_place$LT$syn..punctuated..Punctuated$LT$syn..generics..TypeParamBound$C$syn..token..Plus$GT$$GT$17hcf5b48af9969cc83E', symObjAddr: 0xF60, symBinAddr: 0x414B0, symSize: 0x260 }
  - { offsetInCU: 0x3424, offset: 0x16BA92, size: 0x8, addend: 0x0, symName: '__ZN4core3ptr34drop_in_place$LT$syn..lit..Lit$GT$17ha63ef6405732d63fE', symObjAddr: 0x11C0, symBinAddr: 0x41710, symSize: 0x110 }
  - { offsetInCU: 0x397D, offset: 0x16BFEB, size: 0x8, addend: 0x0, symName: '__ZN4core3ptr34drop_in_place$LT$syn..pat..Pat$GT$17h91c3546b0c499aa4E', symObjAddr: 0x12D0, symBinAddr: 0x41820, symSize: 0xA50 }
  - { offsetInCU: 0x68BC, offset: 0x16EF2A, size: 0x8, addend: 0x0, symName: '__ZN4core3ptr34drop_in_place$LT$syn..ty..Type$GT$17h646f784aaf5cbab1E', symObjAddr: 0x1D20, symBinAddr: 0x42270, symSize: 0x5E0 }
  - { offsetInCU: 0x8206, offset: 0x170874, size: 0x8, addend: 0x0, symName: '__ZN4core3ptr36drop_in_place$LT$syn..expr..Expr$GT$17hb910290a3af1daefE', symObjAddr: 0x2300, symBinAddr: 0x42850, symSize: 0x1D30 }
  - { offsetInCU: 0x10031, offset: 0x17869F, size: 0x8, addend: 0x0, symName: '__ZN4core3ptr36drop_in_place$LT$syn..mac..Macro$GT$17h5f1ece46988e9adcE', symObjAddr: 0x4030, symBinAddr: 0x44580, symSize: 0x110 }
  - { offsetInCU: 0x104B6, offset: 0x178B24, size: 0x8, addend: 0x0, symName: '__ZN4core3ptr36drop_in_place$LT$syn..path..Path$GT$17h00d83a0e1f28cf99E', symObjAddr: 0x4140, symBinAddr: 0x44690, symSize: 0x240 }
  - { offsetInCU: 0x10EFF, offset: 0x17956D, size: 0x8, addend: 0x0, symName: '__ZN4core3ptr37drop_in_place$LT$syn..stmt..Block$GT$17h33338ad4c6a9f8a8E', symObjAddr: 0x4380, symBinAddr: 0x448D0, symSize: 0xD0 }
  - { offsetInCU: 0x1123E, offset: 0x1798AC, size: 0x8, addend: 0x0, symName: '__ZN4core3ptr38drop_in_place$LT$syn..data..Fields$GT$17h6b1ac7b63aad34bcE', symObjAddr: 0x4450, symBinAddr: 0x449A0, symSize: 0x190 }
  - { offsetInCU: 0x11716, offset: 0x179D84, size: 0x8, addend: 0x0, symName: '__ZN4core3ptr38drop_in_place$LT$syn..derive..Data$GT$17h733629a38fe769fbE', symObjAddr: 0x45E0, symBinAddr: 0x44B30, symSize: 0x1D0 }
  - { offsetInCU: 0x11D56, offset: 0x17A3C4, size: 0x8, addend: 0x0, symName: '__ZN4core3ptr38drop_in_place$LT$syn..expr..Member$GT$17h97aaa8d7a3825814E', symObjAddr: 0x47B0, symBinAddr: 0x44D00, symSize: 0x30 }
  - { offsetInCU: 0x11E53, offset: 0x17A4C1, size: 0x8, addend: 0x0, symName: '__ZN4core3ptr39drop_in_place$LT$proc_macro2..Ident$GT$17h7dde42b28475f68eE', symObjAddr: 0x47E0, symBinAddr: 0x44D30, symSize: 0x30 }
  - { offsetInCU: 0x12067, offset: 0x17A6D5, size: 0x8, addend: 0x0, symName: '__ZN4core3ptr39drop_in_place$LT$syn..buffer..Entry$GT$17h9feaea0f507eeb5aE', symObjAddr: 0x4810, symBinAddr: 0x44D60, symSize: 0xC0 }
  - { offsetInCU: 0x1237B, offset: 0x17A9E9, size: 0x8, addend: 0x0, symName: '__ZN4core3ptr40drop_in_place$LT$syn..ty..ReturnType$GT$17h88c7077d98a3718fE', symObjAddr: 0x48D0, symBinAddr: 0x44E20, symSize: 0x50 }
  - { offsetInCU: 0x124ED, offset: 0x17AB5B, size: 0x8, addend: 0x0, symName: '__ZN4core3ptr41drop_in_place$LT$syn..expr..ExprConst$GT$17h56a43a7f2459f7b8E', symObjAddr: 0x4920, symBinAddr: 0x44E70, symSize: 0x120 }
  - { offsetInCU: 0x129AE, offset: 0x17B01C, size: 0x8, addend: 0x0, symName: '__ZN4core3ptr44drop_in_place$LT$syn..generics..Generics$GT$17hd0ac7963d4fc8d45E', symObjAddr: 0x4A40, symBinAddr: 0x44F90, symSize: 0x40 }
  - { offsetInCU: 0x129CB, offset: 0x17B039, size: 0x8, addend: 0x0, symName: '__ZN4core3ptr44drop_in_place$LT$syn..lifetime..Lifetime$GT$17h759c84ac0687907aE', symObjAddr: 0x4A80, symBinAddr: 0x44FD0, symSize: 0x30 }
  - { offsetInCU: 0x12B63, offset: 0x17B1D1, size: 0x8, addend: 0x0, symName: '__ZN4core3ptr45drop_in_place$LT$proc_macro2..TokenStream$GT$17h0753e791e3190ac8E', symObjAddr: 0x4AB0, symBinAddr: 0x45000, symSize: 0x140 }
  - { offsetInCU: 0x13010, offset: 0x17B67E, size: 0x8, addend: 0x0, symName: '__ZN4core3ptr45drop_in_place$LT$syn..derive..DeriveInput$GT$17h267e8bc166b19421E', symObjAddr: 0x4BF0, symBinAddr: 0x45140, symSize: 0x150 }
  - { offsetInCU: 0x134C4, offset: 0x17BB32, size: 0x8, addend: 0x0, symName: '__ZN4core3ptr45drop_in_place$LT$syn..generics..TypeParam$GT$17hf6c689bf92fae6b2E', symObjAddr: 0x4D40, symBinAddr: 0x45290, symSize: 0x1E0 }
  - { offsetInCU: 0x13C1E, offset: 0x17C28C, size: 0x8, addend: 0x0, symName: '__ZN4core3ptr46drop_in_place$LT$syn..generics..ConstParam$GT$17h84ae073706aff006E', symObjAddr: 0x4F20, symBinAddr: 0x45470, symSize: 0x100 }
  - { offsetInCU: 0x13FA6, offset: 0x17C614, size: 0x8, addend: 0x0, symName: '__ZN4core3ptr47drop_in_place$LT$syn..path..GenericArgument$GT$17h1e97a51d0bfa8d79E', symObjAddr: 0x5020, symBinAddr: 0x45570, symSize: 0x460 }
  - { offsetInCU: 0x14CAF, offset: 0x17D31D, size: 0x8, addend: 0x0, symName: '__ZN4core3ptr49drop_in_place$LT$syn..generics..LifetimeParam$GT$17h3c90f2e78b6ca927E', symObjAddr: 0x5480, symBinAddr: 0x459D0, symSize: 0xA0 }
  - { offsetInCU: 0x14FC9, offset: 0x17D637, size: 0x8, addend: 0x0, symName: '__ZN4core3ptr49drop_in_place$LT$syn..restriction..Visibility$GT$17h3fd083b78d22b61eE', symObjAddr: 0x5520, symBinAddr: 0x45A70, symSize: 0x60 }
  - { offsetInCU: 0x1514C, offset: 0x17D7BA, size: 0x8, addend: 0x0, symName: '__ZN4core3ptr50drop_in_place$LT$syn..generics..TypeParamBound$GT$17h7b9343174e39278bE', symObjAddr: 0x5580, symBinAddr: 0x45AD0, symSize: 0xA0 }
  - { offsetInCU: 0x152B3, offset: 0x17D921, size: 0x8, addend: 0x0, symName: '__ZN4core3ptr58drop_in_place$LT$alloc..vec..Vec$LT$syn..expr..Arm$GT$$GT$17ha7bc79fcc49d0e19E', symObjAddr: 0x5620, symBinAddr: 0x45B70, symSize: 0xD0 }
  - { offsetInCU: 0x15540, offset: 0x17DBAE, size: 0x8, addend: 0x0, symName: '__ZN4core3ptr59drop_in_place$LT$alloc..boxed..Box$LT$syn..pat..Pat$GT$$GT$17h49ffe6535f47318fE', symObjAddr: 0x56F0, symBinAddr: 0x45C40, symSize: 0x50 }
  - { offsetInCU: 0x1569B, offset: 0x17DD09, size: 0x8, addend: 0x0, symName: '__ZN4core3ptr59drop_in_place$LT$alloc..boxed..Box$LT$syn..ty..Type$GT$$GT$17h36cfce59f01f3a8fE', symObjAddr: 0x5740, symBinAddr: 0x45C90, symSize: 0x50 }
  - { offsetInCU: 0x157F6, offset: 0x17DE64, size: 0x8, addend: 0x0, symName: '__ZN4core3ptr61drop_in_place$LT$alloc..boxed..Box$LT$syn..expr..Expr$GT$$GT$17he2adadfca53b3509E', symObjAddr: 0x5790, symBinAddr: 0x45CE0, symSize: 0x50 }
  - { offsetInCU: 0x15951, offset: 0x17DFBF, size: 0x8, addend: 0x0, symName: '__ZN4core3ptr61drop_in_place$LT$syn..path..ParenthesizedGenericArguments$GT$17h4cd7782735b88d96E', symObjAddr: 0x57E0, symBinAddr: 0x45D30, symSize: 0x170 }
  - { offsetInCU: 0x15F2B, offset: 0x17E599, size: 0x8, addend: 0x0, symName: '__ZN4core3ptr63drop_in_place$LT$alloc..boxed..Box$LT$syn..lit..LitRepr$GT$$GT$17hc5bc8ee019cad972E', symObjAddr: 0x5950, symBinAddr: 0x45EA0, symSize: 0x60 }
  - { offsetInCU: 0x16220, offset: 0x17E88E, size: 0x8, addend: 0x0, symName: '__ZN4core3ptr64drop_in_place$LT$alloc..boxed..Box$LT$syn..pat..FieldPat$GT$$GT$17h770150671720e9c0E', symObjAddr: 0x59B0, symBinAddr: 0x45F00, symSize: 0x100 }
  - { offsetInCU: 0x1683B, offset: 0x17EEA9, size: 0x8, addend: 0x0, symName: '__ZN4core3ptr64drop_in_place$LT$alloc..boxed..Box$LT$syn..ty..BareFnArg$GT$$GT$17h15a58aeff26cf7b1E', symObjAddr: 0x5AB0, symBinAddr: 0x46000, symSize: 0xF0 }
  - { offsetInCU: 0x16CCD, offset: 0x17F33B, size: 0x8, addend: 0x0, symName: '__ZN4core3ptr65drop_in_place$LT$core..option..Option$LT$syn..expr..Label$GT$$GT$17hbeb69ff24f6d12a3E', symObjAddr: 0x5BA0, symBinAddr: 0x460F0, symSize: 0x30 }
  - { offsetInCU: 0x16E08, offset: 0x17F476, size: 0x8, addend: 0x0, symName: '__ZN4core3ptr66drop_in_place$LT$core..option..Option$LT$syn..pat..PatRest$GT$$GT$17hb16059a77742bcc2E', symObjAddr: 0x5BD0, symBinAddr: 0x46120, symSize: 0x70 }
  - { offsetInCU: 0x1705E, offset: 0x17F6CC, size: 0x8, addend: 0x0, symName: '__ZN4core3ptr67drop_in_place$LT$alloc..boxed..Box$LT$syn..expr..FieldValue$GT$$GT$17h31092deaee4fbb6bE', symObjAddr: 0x5C40, symBinAddr: 0x46190, symSize: 0xF0 }
  - { offsetInCU: 0x174EF, offset: 0x17FB5D, size: 0x8, addend: 0x0, symName: '__ZN4core3ptr70drop_in_place$LT$core..option..Option$LT$syn..ty..BareVariadic$GT$$GT$17h5d50785ed896ab9aE', symObjAddr: 0x5D30, symBinAddr: 0x46280, symSize: 0xC0 }
  - { offsetInCU: 0x1797C, offset: 0x17FFEA, size: 0x8, addend: 0x0, symName: '__ZN4core3ptr72drop_in_place$LT$alloc..boxed..Box$LT$syn..path..GenericArgument$GT$$GT$17h0167b8c28da927e0E', symObjAddr: 0x5DF0, symBinAddr: 0x46340, symSize: 0x2B0 }
  - { offsetInCU: 0x18367, offset: 0x1809D5, size: 0x8, addend: 0x0, symName: '__ZN4core3ptr72drop_in_place$LT$core..option..Option$LT$syn..lifetime..Lifetime$GT$$GT$17h1cec8fef0bb8367dE', symObjAddr: 0x60A0, symBinAddr: 0x465F0, symSize: 0x30 }
  - { offsetInCU: 0x18483, offset: 0x180AF1, size: 0x8, addend: 0x0, symName: '__ZN4core3ptr73drop_in_place$LT$alloc..boxed..Box$LT$syn..generics..GenericParam$GT$$GT$17h858b54a69accfd4dE', symObjAddr: 0x60D0, symBinAddr: 0x46620, symSize: 0x80 }
  - { offsetInCU: 0x185FB, offset: 0x180C69, size: 0x8, addend: 0x0, symName: '__ZN4core3ptr75drop_in_place$LT$alloc..boxed..Box$LT$syn..generics..TypeParamBound$GT$$GT$17h3da0d8fba9b3862cE', symObjAddr: 0x6150, symBinAddr: 0x466A0, symSize: 0x190 }
  - { offsetInCU: 0x18CF4, offset: 0x181362, size: 0x8, addend: 0x0, symName: '__ZN4core3ptr75drop_in_place$LT$core..option..Option$LT$syn..generics..WhereClause$GT$$GT$17ha4182a1a7c1ac8acE', symObjAddr: 0x62E0, symBinAddr: 0x46830, symSize: 0x90 }
  - { offsetInCU: 0x18FAA, offset: 0x181618, size: 0x8, addend: 0x0, symName: '__ZN4core3ptr86drop_in_place$LT$syn..punctuated..Punctuated$LT$syn..pat..Pat$C$syn..token..Or$GT$$GT$17h857c4222dd642261E', symObjAddr: 0x6370, symBinAddr: 0x468C0, symSize: 0x120 }
  - { offsetInCU: 0x193F0, offset: 0x181A5E, size: 0x8, addend: 0x0, symName: '__ZN4core3ptr87drop_in_place$LT$core..option..Option$LT$alloc..boxed..Box$LT$syn..pat..Pat$GT$$GT$$GT$17hb3c11e9d12bcdbd1E', symObjAddr: 0x6490, symBinAddr: 0x469E0, symSize: 0x50 }
  - { offsetInCU: 0x19562, offset: 0x181BD0, size: 0x8, addend: 0x0, symName: '__ZN4core3ptr87drop_in_place$LT$core..option..Option$LT$alloc..boxed..Box$LT$syn..ty..Type$GT$$GT$$GT$17h407163ef6663e2ffE', symObjAddr: 0x64E0, symBinAddr: 0x46A30, symSize: 0x50 }
  - { offsetInCU: 0x196D4, offset: 0x181D42, size: 0x8, addend: 0x0, symName: '__ZN4core3ptr89drop_in_place$LT$core..option..Option$LT$alloc..boxed..Box$LT$syn..expr..Expr$GT$$GT$$GT$17h8a4fcd655c85b4e5E', symObjAddr: 0x6530, symBinAddr: 0x46A80, symSize: 0x50 }
  - { offsetInCU: 0x19884, offset: 0x181EF2, size: 0x8, addend: 0x0, symName: '__ZN4core3ptr89drop_in_place$LT$syn..punctuated..Punctuated$LT$syn..pat..Pat$C$syn..token..Comma$GT$$GT$17hb086995bcf66ffcdE', symObjAddr: 0x6580, symBinAddr: 0x46AD0, symSize: 0x120 }
  - { offsetInCU: 0x19D3E, offset: 0x1823AC, size: 0x8, addend: 0x0, symName: '__ZN4core3ptr90drop_in_place$LT$core..option..Option$LT$alloc..boxed..Box$LT$syn..data..Field$GT$$GT$$GT$17hedb4f432860ca9b4E', symObjAddr: 0x66A0, symBinAddr: 0x46BF0, symSize: 0x1A0 }
  - { offsetInCU: 0x1A521, offset: 0x182B8F, size: 0x8, addend: 0x0, symName: '__ZN4core3ptr91drop_in_place$LT$syn..punctuated..Punctuated$LT$syn..expr..Expr$C$syn..token..Comma$GT$$GT$17h0369d12efd25ffe5E', symObjAddr: 0x6840, symBinAddr: 0x46D90, symSize: 0x120 }
  - { offsetInCU: 0x1A9FA, offset: 0x183068, size: 0x8, addend: 0x0, symName: '__ZN4core3ptr92drop_in_place$LT$core..option..Option$LT$alloc..boxed..Box$LT$syn..data..Variant$GT$$GT$$GT$17h119652eb5a3a8e3aE', symObjAddr: 0x6960, symBinAddr: 0x46EB0, symSize: 0x130 }
  - { offsetInCU: 0x1AFB4, offset: 0x183622, size: 0x8, addend: 0x0, symName: '__ZN4core3ptr94drop_in_place$LT$syn..punctuated..Punctuated$LT$syn..pat..FieldPat$C$syn..token..Comma$GT$$GT$17ha79305f2d14a963bE', symObjAddr: 0x6A90, symBinAddr: 0x46FE0, symSize: 0xF0 }
  - { offsetInCU: 0x1B27E, offset: 0x1838EC, size: 0x8, addend: 0x0, symName: '__ZN4core3ptr94drop_in_place$LT$syn..punctuated..Punctuated$LT$syn..ty..BareFnArg$C$syn..token..Comma$GT$$GT$17h17c7f848dd9be9aeE', symObjAddr: 0x6B80, symBinAddr: 0x470D0, symSize: 0xF0 }
  - { offsetInCU: 0x1B548, offset: 0x183BB6, size: 0x8, addend: 0x0, symName: '__ZN4core3ptr96drop_in_place$LT$core..option..Option$LT$alloc..boxed..Box$LT$syn..path..PathSegment$GT$$GT$$GT$17h1891276410ff88caE', symObjAddr: 0x6C70, symBinAddr: 0x471C0, symSize: 0x180 }
  - { offsetInCU: 0x1BBD9, offset: 0x184247, size: 0x8, addend: 0x0, symName: '__ZN4core3ptr97drop_in_place$LT$syn..punctuated..Punctuated$LT$syn..expr..FieldValue$C$syn..token..Comma$GT$$GT$17hed66755c87efe679E', symObjAddr: 0x6DF0, symBinAddr: 0x47340, symSize: 0xF0 }
  - { offsetInCU: 0x1BF1F, offset: 0x18458D, size: 0x8, addend: 0x0, symName: '__ZN4core3ptr98drop_in_place$LT$syn..punctuated..Punctuated$LT$syn..lifetime..Lifetime$C$syn..token..Plus$GT$$GT$17h629d02c6fce7523dE', symObjAddr: 0x6EE0, symBinAddr: 0x47430, symSize: 0xB1 }
  - { offsetInCU: 0x1F07C, offset: 0x1876EA, size: 0x8, addend: 0x0, symName: __ZN3syn5parse6Parser5parse17h4d6daf5d53553403E, symObjAddr: 0x1D0, symBinAddr: 0x40720, symSize: 0x530 }
  - { offsetInCU: 0x1FCC6, offset: 0x188334, size: 0x8, addend: 0x0, symName: __ZN3syn5parse6Parser9parse_str17hf13c031f7d9e65b3E, symObjAddr: 0x700, symBinAddr: 0x40C50, symSize: 0x510 }
  - { offsetInCU: 0x26C60, offset: 0x18F2CE, size: 0x8, addend: 0x0, symName: __ZN3syn5parse11ParseBuffer4step17h28eda50aca784df1E, symObjAddr: 0x0, symBinAddr: 0x40550, symSize: 0x1D0 }
  - { offsetInCU: 0xDA1, offset: 0x1948B9, size: 0x8, addend: 0x0, symName: '__ZN4core3ptr160drop_in_place$LT$alloc..collections..btree..map..BTreeMap$LT$$LP$usize$C$thiserror_impl..attr..Trait$RP$$C$alloc..collections..btree..set_val..SetValZST$GT$$GT$17h8d5df23ccea66f90E', symObjAddr: 0x40, symBinAddr: 0x474F0, symSize: 0x80 }
  - { offsetInCU: 0x113C, offset: 0x194C54, size: 0x8, addend: 0x0, symName: '__ZN4core3ptr98drop_in_place$LT$core..option..Option$LT$alloc..boxed..Box$LT$proc_macro2..TokenStream$GT$$GT$$GT$17h8df648a1d291a1d3E.llvm.2701588967197211943', symObjAddr: 0xE0, symBinAddr: 0x47570, symSize: 0x160 }
  - { offsetInCU: 0x55D5, offset: 0x1990ED, size: 0x8, addend: 0x0, symName: '__ZN99_$LT$alloc..collections..btree..map..BTreeMap$LT$K$C$V$C$A$GT$$u20$as$u20$core..ops..drop..Drop$GT$4drop17h41104278aea6a550E', symObjAddr: 0x1E50, symBinAddr: 0x48E20, symSize: 0x2F0 }
  - { offsetInCU: 0x5DC1, offset: 0x1998D9, size: 0x8, addend: 0x0, symName: '__ZN99_$LT$alloc..collections..btree..map..BTreeMap$LT$K$C$V$C$A$GT$$u20$as$u20$core..ops..drop..Drop$GT$4drop17h825f859f77687b48E', symObjAddr: 0x2140, symBinAddr: 0x49110, symSize: 0x80 }
  - { offsetInCU: 0x5EAF, offset: 0x1999C7, size: 0x8, addend: 0x0, symName: '__ZN99_$LT$alloc..collections..btree..map..BTreeMap$LT$K$C$V$C$A$GT$$u20$as$u20$core..ops..drop..Drop$GT$4drop17hc707a56389db74d5E', symObjAddr: 0x21C0, symBinAddr: 0x49190, symSize: 0xD0 }
  - { offsetInCU: 0x61B9, offset: 0x199CD1, size: 0x8, addend: 0x0, symName: '__ZN99_$LT$alloc..collections..btree..map..BTreeMap$LT$K$C$V$C$A$GT$$u20$as$u20$core..ops..drop..Drop$GT$4drop17hd512384a1e885680E', symObjAddr: 0x2290, symBinAddr: 0x49260, symSize: 0xF0 }
  - { offsetInCU: 0x6317, offset: 0x199E2F, size: 0x8, addend: 0x0, symName: '__ZN99_$LT$alloc..collections..btree..map..BTreeMap$LT$K$C$V$C$A$GT$$u20$as$u20$core..ops..drop..Drop$GT$4drop17hd8cbaf6590c50784E', symObjAddr: 0x2380, symBinAddr: 0x49350, symSize: 0xD0 }
  - { offsetInCU: 0x74C0, offset: 0x19AFD8, size: 0x8, addend: 0x0, symName: '__ZN96_$LT$alloc..collections..btree..map..BTreeMap$LT$K$C$V$C$A$GT$$u20$as$u20$core..clone..Clone$GT$5clone13clone_subtree17h2cf509a3cc9e820cE.llvm.2701588967197211943', symObjAddr: 0x18F0, symBinAddr: 0x48920, symSize: 0x500 }
  - { offsetInCU: 0x9AF3, offset: 0x19D60B, size: 0x8, addend: 0x0, symName: '__ZN5alloc11collections5btree3map25BTreeMap$LT$K$C$V$C$A$GT$6insert17h060a94eac9e85fd0E', symObjAddr: 0x6A0, symBinAddr: 0x476D0, symSize: 0x190 }
  - { offsetInCU: 0xA2A8, offset: 0x19DDC0, size: 0x8, addend: 0x0, symName: '__ZN5alloc11collections5btree3map25BTreeMap$LT$K$C$V$C$A$GT$6insert17h1654c3232120ef3dE', symObjAddr: 0x830, symBinAddr: 0x47860, symSize: 0x170 }
  - { offsetInCU: 0xAA0F, offset: 0x19E527, size: 0x8, addend: 0x0, symName: '__ZN5alloc11collections5btree3map25BTreeMap$LT$K$C$V$C$A$GT$6insert17h62a74dc7ef60b8f4E', symObjAddr: 0x9A0, symBinAddr: 0x479D0, symSize: 0x170 }
  - { offsetInCU: 0xB05D, offset: 0x19EB75, size: 0x8, addend: 0x0, symName: '__ZN5alloc11collections5btree3map25IntoIter$LT$K$C$V$C$A$GT$10dying_next17h6a7337e5c69b1625E.llvm.2701588967197211943', symObjAddr: 0xB10, symBinAddr: 0x47B40, symSize: 0x0 }
  - { offsetInCU: 0xBA9C, offset: 0x19F5B4, size: 0x8, addend: 0x0, symName: '__ZN5alloc11collections5btree3map25IntoIter$LT$K$C$V$C$A$GT$10dying_next17hc0575a2417c9f1a4E.llvm.2701588967197211943', symObjAddr: 0xEF0, symBinAddr: 0x47F20, symSize: 0x400 }
  - { offsetInCU: 0xC4B0, offset: 0x19FFC8, size: 0x8, addend: 0x0, symName: '__ZN5alloc11collections5btree3map25IntoIter$LT$K$C$V$C$A$GT$10dying_next17hcbf6e2aa57280a5fE.llvm.2701588967197211943', symObjAddr: 0x12F0, symBinAddr: 0x48320, symSize: 0x3E0 }
  - { offsetInCU: 0xCF5F, offset: 0x1A0A77, size: 0x8, addend: 0x0, symName: '__ZN5alloc11collections5btree4node173Handle$LT$alloc..collections..btree..node..NodeRef$LT$alloc..collections..btree..node..marker..Dying$C$K$C$V$C$NodeType$GT$$C$alloc..collections..btree..node..marker..KV$GT$12drop_key_val17h4b8eb81f6b8dc9a0E.llvm.2701588967197211943', symObjAddr: 0x16D0, symBinAddr: 0x48700, symSize: 0x220 }
  - { offsetInCU: 0x1E, offset: 0x1A8059, size: 0x8, addend: 0x0, symName: __ZN10proc_macro6bridge6client14HandleCounters3get17h02da01958788119eE, symObjAddr: 0x0, symBinAddr: 0x49420, symSize: 0x10 }
  - { offsetInCU: 0x40, offset: 0x1A807B, size: 0x8, addend: 0x0, symName: ___rustc_proc_macro_decls_34526a060c62e6c6__, symObjAddr: 0x7238, symBinAddr: 0x2808B0, symSize: 0x0 }
  - { offsetInCU: 0x4F, offset: 0x1A808A, size: 0x8, addend: 0x0, symName: __ZN14thiserror_impl12derive_error17hbe811445828d2053E, symObjAddr: 0x6360, symBinAddr: 0x4F780, symSize: 0x146 }
  - { offsetInCU: 0x3572, offset: 0x1AB5AD, size: 0x8, addend: 0x0, symName: '__ZN4core3ptr100drop_in_place$LT$core..option..Option$LT$alloc..boxed..Box$LT$syn..path..GenericArgument$GT$$GT$$GT$17h4ad733554d99479dE', symObjAddr: 0x10, symBinAddr: 0x49430, symSize: 0x50 }
  - { offsetInCU: 0x3741, offset: 0x1AB77C, size: 0x8, addend: 0x0, symName: '__ZN4core3ptr102drop_in_place$LT$syn..punctuated..Punctuated$LT$syn..path..GenericArgument$C$syn..token..Comma$GT$$GT$17h5cefecd06ef6ddf8E', symObjAddr: 0x60, symBinAddr: 0x49480, symSize: 0xF0 }
  - { offsetInCU: 0x3A2A, offset: 0x1ABA65, size: 0x8, addend: 0x0, symName: '__ZN4core3ptr103drop_in_place$LT$core..option..Option$LT$alloc..boxed..Box$LT$syn..generics..TypeParamBound$GT$$GT$$GT$17hf0901f177fd8ec83E', symObjAddr: 0x150, symBinAddr: 0x49570, symSize: 0x50 }
  - { offsetInCU: 0x3CF1, offset: 0x1ABD2C, size: 0x8, addend: 0x0, symName: '__ZN4core3ptr103drop_in_place$LT$core..option..Option$LT$alloc..boxed..Box$LT$syn..generics..WherePredicate$GT$$GT$$GT$17heabefb9f353da5c0E', symObjAddr: 0x1A0, symBinAddr: 0x495C0, symSize: 0xD0 }
  - { offsetInCU: 0x4084, offset: 0x1AC0BF, size: 0x8, addend: 0x0, symName: '__ZN4core3ptr103drop_in_place$LT$syn..punctuated..Punctuated$LT$syn..generics..GenericParam$C$syn..token..Comma$GT$$GT$17hc171c18ee53dbad0E', symObjAddr: 0x270, symBinAddr: 0x49690, symSize: 0xF0 }
  - { offsetInCU: 0x4547, offset: 0x1AC582, size: 0x8, addend: 0x0, symName: '__ZN4core3ptr104drop_in_place$LT$syn..punctuated..Punctuated$LT$syn..generics..TypeParamBound$C$syn..token..Plus$GT$$GT$17hcf5b48af9969cc83E', symObjAddr: 0x360, symBinAddr: 0x49780, symSize: 0x260 }
  - { offsetInCU: 0x4F39, offset: 0x1ACF74, size: 0x8, addend: 0x0, symName: '__ZN4core3ptr34drop_in_place$LT$syn..lit..Lit$GT$17ha63ef6405732d63fE', symObjAddr: 0x5C0, symBinAddr: 0x499E0, symSize: 0x110 }
  - { offsetInCU: 0x5492, offset: 0x1AD4CD, size: 0x8, addend: 0x0, symName: '__ZN4core3ptr34drop_in_place$LT$syn..pat..Pat$GT$17h91c3546b0c499aa4E', symObjAddr: 0x6D0, symBinAddr: 0x49AF0, symSize: 0xA50 }
  - { offsetInCU: 0x83D1, offset: 0x1B040C, size: 0x8, addend: 0x0, symName: '__ZN4core3ptr34drop_in_place$LT$syn..ty..Type$GT$17h646f784aaf5cbab1E', symObjAddr: 0x1120, symBinAddr: 0x4A540, symSize: 0x5E0 }
  - { offsetInCU: 0x9D1B, offset: 0x1B1D56, size: 0x8, addend: 0x0, symName: '__ZN4core3ptr36drop_in_place$LT$syn..expr..Expr$GT$17hb910290a3af1daefE', symObjAddr: 0x1700, symBinAddr: 0x4AB20, symSize: 0x1D30 }
  - { offsetInCU: 0x11B46, offset: 0x1B9B81, size: 0x8, addend: 0x0, symName: '__ZN4core3ptr36drop_in_place$LT$syn..mac..Macro$GT$17h5f1ece46988e9adcE', symObjAddr: 0x3430, symBinAddr: 0x4C850, symSize: 0x110 }
  - { offsetInCU: 0x11FCB, offset: 0x1BA006, size: 0x8, addend: 0x0, symName: '__ZN4core3ptr36drop_in_place$LT$syn..path..Path$GT$17h00d83a0e1f28cf99E', symObjAddr: 0x3540, symBinAddr: 0x4C960, symSize: 0x240 }
  - { offsetInCU: 0x12A14, offset: 0x1BAA4F, size: 0x8, addend: 0x0, symName: '__ZN4core3ptr37drop_in_place$LT$syn..stmt..Block$GT$17h33338ad4c6a9f8a8E', symObjAddr: 0x3780, symBinAddr: 0x4CBA0, symSize: 0xD0 }
  - { offsetInCU: 0x12D53, offset: 0x1BAD8E, size: 0x8, addend: 0x0, symName: '__ZN4core3ptr38drop_in_place$LT$syn..data..Fields$GT$17h6b1ac7b63aad34bcE', symObjAddr: 0x3850, symBinAddr: 0x4CC70, symSize: 0x190 }
  - { offsetInCU: 0x1322B, offset: 0x1BB266, size: 0x8, addend: 0x0, symName: '__ZN4core3ptr38drop_in_place$LT$syn..derive..Data$GT$17h733629a38fe769fbE', symObjAddr: 0x39E0, symBinAddr: 0x4CE00, symSize: 0x1D0 }
  - { offsetInCU: 0x138A9, offset: 0x1BB8E4, size: 0x8, addend: 0x0, symName: '__ZN4core3ptr38drop_in_place$LT$syn..error..Error$GT$17hcf149843d3ac9f0eE.llvm.11813945511845845972', symObjAddr: 0x3BB0, symBinAddr: 0x4CFD0, symSize: 0x80 }
  - { offsetInCU: 0x13B67, offset: 0x1BBBA2, size: 0x8, addend: 0x0, symName: '__ZN4core3ptr38drop_in_place$LT$syn..expr..Member$GT$17h97aaa8d7a3825814E', symObjAddr: 0x3C30, symBinAddr: 0x4D050, symSize: 0x30 }
  - { offsetInCU: 0x13C64, offset: 0x1BBC9F, size: 0x8, addend: 0x0, symName: '__ZN4core3ptr39drop_in_place$LT$proc_macro2..Ident$GT$17h7dde42b28475f68eE', symObjAddr: 0x3C60, symBinAddr: 0x4D080, symSize: 0x30 }
  - { offsetInCU: 0x13D42, offset: 0x1BBD7D, size: 0x8, addend: 0x0, symName: '__ZN4core3ptr40drop_in_place$LT$syn..ty..ReturnType$GT$17h88c7077d98a3718fE', symObjAddr: 0x3C90, symBinAddr: 0x4D0B0, symSize: 0x50 }
  - { offsetInCU: 0x13EB4, offset: 0x1BBEEF, size: 0x8, addend: 0x0, symName: '__ZN4core3ptr41drop_in_place$LT$syn..expr..ExprConst$GT$17h56a43a7f2459f7b8E', symObjAddr: 0x3CE0, symBinAddr: 0x4D100, symSize: 0x120 }
  - { offsetInCU: 0x14375, offset: 0x1BC3B0, size: 0x8, addend: 0x0, symName: '__ZN4core3ptr44drop_in_place$LT$syn..generics..Generics$GT$17hd0ac7963d4fc8d45E', symObjAddr: 0x3E00, symBinAddr: 0x4D220, symSize: 0x40 }
  - { offsetInCU: 0x14392, offset: 0x1BC3CD, size: 0x8, addend: 0x0, symName: '__ZN4core3ptr44drop_in_place$LT$syn..lifetime..Lifetime$GT$17h759c84ac0687907aE', symObjAddr: 0x3E40, symBinAddr: 0x4D260, symSize: 0x30 }
  - { offsetInCU: 0x145C5, offset: 0x1BC600, size: 0x8, addend: 0x0, symName: '__ZN4core3ptr45drop_in_place$LT$proc_macro2..TokenStream$GT$17h0753e791e3190ac8E', symObjAddr: 0x3E70, symBinAddr: 0x4D290, symSize: 0x140 }
  - { offsetInCU: 0x14A72, offset: 0x1BCAAD, size: 0x8, addend: 0x0, symName: '__ZN4core3ptr45drop_in_place$LT$syn..derive..DeriveInput$GT$17h267e8bc166b19421E.llvm.11813945511845845972', symObjAddr: 0x3FB0, symBinAddr: 0x4D3D0, symSize: 0x150 }
  - { offsetInCU: 0x14F26, offset: 0x1BCF61, size: 0x8, addend: 0x0, symName: '__ZN4core3ptr45drop_in_place$LT$syn..generics..TypeParam$GT$17hf6c689bf92fae6b2E', symObjAddr: 0x4100, symBinAddr: 0x4D520, symSize: 0x1E0 }
  - { offsetInCU: 0x15680, offset: 0x1BD6BB, size: 0x8, addend: 0x0, symName: '__ZN4core3ptr46drop_in_place$LT$syn..generics..ConstParam$GT$17h84ae073706aff006E', symObjAddr: 0x42E0, symBinAddr: 0x4D700, symSize: 0x100 }
  - { offsetInCU: 0x15A08, offset: 0x1BDA43, size: 0x8, addend: 0x0, symName: '__ZN4core3ptr47drop_in_place$LT$syn..path..GenericArgument$GT$17h1e97a51d0bfa8d79E', symObjAddr: 0x43E0, symBinAddr: 0x4D800, symSize: 0x460 }
  - { offsetInCU: 0x16711, offset: 0x1BE74C, size: 0x8, addend: 0x0, symName: '__ZN4core3ptr49drop_in_place$LT$syn..generics..LifetimeParam$GT$17h3c90f2e78b6ca927E', symObjAddr: 0x4840, symBinAddr: 0x4DC60, symSize: 0xA0 }
  - { offsetInCU: 0x16A2B, offset: 0x1BEA66, size: 0x8, addend: 0x0, symName: '__ZN4core3ptr49drop_in_place$LT$syn..restriction..Visibility$GT$17h3fd083b78d22b61eE', symObjAddr: 0x48E0, symBinAddr: 0x4DD00, symSize: 0x60 }
  - { offsetInCU: 0x16BAE, offset: 0x1BEBE9, size: 0x8, addend: 0x0, symName: '__ZN4core3ptr50drop_in_place$LT$syn..generics..TypeParamBound$GT$17h7b9343174e39278bE', symObjAddr: 0x4940, symBinAddr: 0x4DD60, symSize: 0xA0 }
  - { offsetInCU: 0x16D15, offset: 0x1BED50, size: 0x8, addend: 0x0, symName: '__ZN4core3ptr58drop_in_place$LT$alloc..vec..Vec$LT$syn..expr..Arm$GT$$GT$17ha7bc79fcc49d0e19E', symObjAddr: 0x49E0, symBinAddr: 0x4DE00, symSize: 0xD0 }
  - { offsetInCU: 0x16FA2, offset: 0x1BEFDD, size: 0x8, addend: 0x0, symName: '__ZN4core3ptr59drop_in_place$LT$alloc..boxed..Box$LT$syn..pat..Pat$GT$$GT$17h49ffe6535f47318fE', symObjAddr: 0x4AB0, symBinAddr: 0x4DED0, symSize: 0x50 }
  - { offsetInCU: 0x170FD, offset: 0x1BF138, size: 0x8, addend: 0x0, symName: '__ZN4core3ptr59drop_in_place$LT$alloc..boxed..Box$LT$syn..ty..Type$GT$$GT$17h36cfce59f01f3a8fE', symObjAddr: 0x4B00, symBinAddr: 0x4DF20, symSize: 0x50 }
  - { offsetInCU: 0x17258, offset: 0x1BF293, size: 0x8, addend: 0x0, symName: '__ZN4core3ptr61drop_in_place$LT$alloc..boxed..Box$LT$syn..expr..Expr$GT$$GT$17he2adadfca53b3509E', symObjAddr: 0x4B50, symBinAddr: 0x4DF70, symSize: 0x50 }
  - { offsetInCU: 0x173B3, offset: 0x1BF3EE, size: 0x8, addend: 0x0, symName: '__ZN4core3ptr61drop_in_place$LT$syn..path..ParenthesizedGenericArguments$GT$17h4cd7782735b88d96E', symObjAddr: 0x4BA0, symBinAddr: 0x4DFC0, symSize: 0x170 }
  - { offsetInCU: 0x1798D, offset: 0x1BF9C8, size: 0x8, addend: 0x0, symName: '__ZN4core3ptr63drop_in_place$LT$alloc..boxed..Box$LT$syn..lit..LitRepr$GT$$GT$17hc5bc8ee019cad972E', symObjAddr: 0x4D10, symBinAddr: 0x4E130, symSize: 0x60 }
  - { offsetInCU: 0x17C82, offset: 0x1BFCBD, size: 0x8, addend: 0x0, symName: '__ZN4core3ptr64drop_in_place$LT$alloc..boxed..Box$LT$syn..pat..FieldPat$GT$$GT$17h770150671720e9c0E', symObjAddr: 0x4D70, symBinAddr: 0x4E190, symSize: 0x100 }
  - { offsetInCU: 0x1829D, offset: 0x1C02D8, size: 0x8, addend: 0x0, symName: '__ZN4core3ptr64drop_in_place$LT$alloc..boxed..Box$LT$syn..ty..BareFnArg$GT$$GT$17h15a58aeff26cf7b1E', symObjAddr: 0x4E70, symBinAddr: 0x4E290, symSize: 0xF0 }
  - { offsetInCU: 0x1872F, offset: 0x1C076A, size: 0x8, addend: 0x0, symName: '__ZN4core3ptr65drop_in_place$LT$core..option..Option$LT$syn..expr..Label$GT$$GT$17hbeb69ff24f6d12a3E', symObjAddr: 0x4F60, symBinAddr: 0x4E380, symSize: 0x30 }
  - { offsetInCU: 0x1886A, offset: 0x1C08A5, size: 0x8, addend: 0x0, symName: '__ZN4core3ptr66drop_in_place$LT$core..option..Option$LT$syn..pat..PatRest$GT$$GT$17hb16059a77742bcc2E', symObjAddr: 0x4F90, symBinAddr: 0x4E3B0, symSize: 0x70 }
  - { offsetInCU: 0x18AC0, offset: 0x1C0AFB, size: 0x8, addend: 0x0, symName: '__ZN4core3ptr67drop_in_place$LT$alloc..boxed..Box$LT$syn..expr..FieldValue$GT$$GT$17h31092deaee4fbb6bE', symObjAddr: 0x5000, symBinAddr: 0x4E420, symSize: 0xF0 }
  - { offsetInCU: 0x18F51, offset: 0x1C0F8C, size: 0x8, addend: 0x0, symName: '__ZN4core3ptr70drop_in_place$LT$core..option..Option$LT$syn..ty..BareVariadic$GT$$GT$17h5d50785ed896ab9aE', symObjAddr: 0x50F0, symBinAddr: 0x4E510, symSize: 0xC0 }
  - { offsetInCU: 0x193DE, offset: 0x1C1419, size: 0x8, addend: 0x0, symName: '__ZN4core3ptr72drop_in_place$LT$alloc..boxed..Box$LT$syn..path..GenericArgument$GT$$GT$17h0167b8c28da927e0E', symObjAddr: 0x51B0, symBinAddr: 0x4E5D0, symSize: 0x2B0 }
  - { offsetInCU: 0x19DC9, offset: 0x1C1E04, size: 0x8, addend: 0x0, symName: '__ZN4core3ptr72drop_in_place$LT$core..option..Option$LT$syn..lifetime..Lifetime$GT$$GT$17h1cec8fef0bb8367dE', symObjAddr: 0x5460, symBinAddr: 0x4E880, symSize: 0x30 }
  - { offsetInCU: 0x19EE5, offset: 0x1C1F20, size: 0x8, addend: 0x0, symName: '__ZN4core3ptr73drop_in_place$LT$alloc..boxed..Box$LT$syn..generics..GenericParam$GT$$GT$17h858b54a69accfd4dE', symObjAddr: 0x5490, symBinAddr: 0x4E8B0, symSize: 0x80 }
  - { offsetInCU: 0x1A05D, offset: 0x1C2098, size: 0x8, addend: 0x0, symName: '__ZN4core3ptr75drop_in_place$LT$alloc..boxed..Box$LT$syn..generics..TypeParamBound$GT$$GT$17h3da0d8fba9b3862cE', symObjAddr: 0x5510, symBinAddr: 0x4E930, symSize: 0x190 }
  - { offsetInCU: 0x1A756, offset: 0x1C2791, size: 0x8, addend: 0x0, symName: '__ZN4core3ptr75drop_in_place$LT$core..option..Option$LT$syn..generics..WhereClause$GT$$GT$17ha4182a1a7c1ac8acE', symObjAddr: 0x56A0, symBinAddr: 0x4EAC0, symSize: 0x90 }
  - { offsetInCU: 0x1AA0C, offset: 0x1C2A47, size: 0x8, addend: 0x0, symName: '__ZN4core3ptr86drop_in_place$LT$syn..punctuated..Punctuated$LT$syn..pat..Pat$C$syn..token..Or$GT$$GT$17h857c4222dd642261E', symObjAddr: 0x5730, symBinAddr: 0x4EB50, symSize: 0x120 }
  - { offsetInCU: 0x1AE52, offset: 0x1C2E8D, size: 0x8, addend: 0x0, symName: '__ZN4core3ptr87drop_in_place$LT$core..option..Option$LT$alloc..boxed..Box$LT$syn..pat..Pat$GT$$GT$$GT$17hb3c11e9d12bcdbd1E', symObjAddr: 0x5850, symBinAddr: 0x4EC70, symSize: 0x50 }
  - { offsetInCU: 0x1AFC4, offset: 0x1C2FFF, size: 0x8, addend: 0x0, symName: '__ZN4core3ptr87drop_in_place$LT$core..option..Option$LT$alloc..boxed..Box$LT$syn..ty..Type$GT$$GT$$GT$17h407163ef6663e2ffE', symObjAddr: 0x58A0, symBinAddr: 0x4ECC0, symSize: 0x50 }
  - { offsetInCU: 0x1B136, offset: 0x1C3171, size: 0x8, addend: 0x0, symName: '__ZN4core3ptr89drop_in_place$LT$core..option..Option$LT$alloc..boxed..Box$LT$syn..expr..Expr$GT$$GT$$GT$17h8a4fcd655c85b4e5E', symObjAddr: 0x58F0, symBinAddr: 0x4ED10, symSize: 0x50 }
  - { offsetInCU: 0x1B2E6, offset: 0x1C3321, size: 0x8, addend: 0x0, symName: '__ZN4core3ptr89drop_in_place$LT$syn..punctuated..Punctuated$LT$syn..pat..Pat$C$syn..token..Comma$GT$$GT$17hb086995bcf66ffcdE', symObjAddr: 0x5940, symBinAddr: 0x4ED60, symSize: 0x120 }
  - { offsetInCU: 0x1B7A0, offset: 0x1C37DB, size: 0x8, addend: 0x0, symName: '__ZN4core3ptr90drop_in_place$LT$core..option..Option$LT$alloc..boxed..Box$LT$syn..data..Field$GT$$GT$$GT$17hedb4f432860ca9b4E', symObjAddr: 0x5A60, symBinAddr: 0x4EE80, symSize: 0x1A0 }
  - { offsetInCU: 0x1BF83, offset: 0x1C3FBE, size: 0x8, addend: 0x0, symName: '__ZN4core3ptr91drop_in_place$LT$syn..punctuated..Punctuated$LT$syn..expr..Expr$C$syn..token..Comma$GT$$GT$17h0369d12efd25ffe5E', symObjAddr: 0x5C00, symBinAddr: 0x4F020, symSize: 0x120 }
  - { offsetInCU: 0x1C45C, offset: 0x1C4497, size: 0x8, addend: 0x0, symName: '__ZN4core3ptr92drop_in_place$LT$core..option..Option$LT$alloc..boxed..Box$LT$syn..data..Variant$GT$$GT$$GT$17h119652eb5a3a8e3aE', symObjAddr: 0x5D20, symBinAddr: 0x4F140, symSize: 0x130 }
  - { offsetInCU: 0x1CA16, offset: 0x1C4A51, size: 0x8, addend: 0x0, symName: '__ZN4core3ptr94drop_in_place$LT$syn..punctuated..Punctuated$LT$syn..pat..FieldPat$C$syn..token..Comma$GT$$GT$17ha79305f2d14a963bE', symObjAddr: 0x5E50, symBinAddr: 0x4F270, symSize: 0xF0 }
  - { offsetInCU: 0x1CCE0, offset: 0x1C4D1B, size: 0x8, addend: 0x0, symName: '__ZN4core3ptr94drop_in_place$LT$syn..punctuated..Punctuated$LT$syn..ty..BareFnArg$C$syn..token..Comma$GT$$GT$17h17c7f848dd9be9aeE', symObjAddr: 0x5F40, symBinAddr: 0x4F360, symSize: 0xF0 }
  - { offsetInCU: 0x1CFAA, offset: 0x1C4FE5, size: 0x8, addend: 0x0, symName: '__ZN4core3ptr96drop_in_place$LT$core..option..Option$LT$alloc..boxed..Box$LT$syn..path..PathSegment$GT$$GT$$GT$17h1891276410ff88caE', symObjAddr: 0x6030, symBinAddr: 0x4F450, symSize: 0x180 }
  - { offsetInCU: 0x1D63B, offset: 0x1C5676, size: 0x8, addend: 0x0, symName: '__ZN4core3ptr97drop_in_place$LT$syn..punctuated..Punctuated$LT$syn..expr..FieldValue$C$syn..token..Comma$GT$$GT$17hed66755c87efe679E', symObjAddr: 0x61B0, symBinAddr: 0x4F5D0, symSize: 0xF0 }
  - { offsetInCU: 0x1D981, offset: 0x1C59BC, size: 0x8, addend: 0x0, symName: '__ZN4core3ptr98drop_in_place$LT$syn..punctuated..Punctuated$LT$syn..lifetime..Lifetime$C$syn..token..Plus$GT$$GT$17h629d02c6fce7523dE', symObjAddr: 0x62A0, symBinAddr: 0x4F6C0, symSize: 0xC0 }
  - { offsetInCU: 0x1E4EA, offset: 0x1C6525, size: 0x8, addend: 0x0, symName: __ZN10proc_macro6bridge6client14HandleCounters3get17h02da01958788119eE, symObjAddr: 0x0, symBinAddr: 0x49420, symSize: 0x10 }
  - { offsetInCU: 0x1E, offset: 0x1CFD4A, size: 0x8, addend: 0x0, symName: __ZN3syn11parse_quote5parse17hc2e1cd2986c71664E, symObjAddr: 0x0, symBinAddr: 0x4F8D0, symSize: 0x500 }
  - { offsetInCU: 0x18EC, offset: 0x1D1618, size: 0x8, addend: 0x0, symName: '__ZN4core3ptr100drop_in_place$LT$core..option..Option$LT$alloc..boxed..Box$LT$syn..path..GenericArgument$GT$$GT$$GT$17h4ad733554d99479dE', symObjAddr: 0x550, symBinAddr: 0x4FDD0, symSize: 0x50 }
  - { offsetInCU: 0x1C8C, offset: 0x1D19B8, size: 0x8, addend: 0x0, symName: '__ZN4core3ptr100drop_in_place$LT$syn..punctuated..Punctuated$LT$syn..path..PathSegment$C$syn..token..PathSep$GT$$GT$17h8ebc154637df8ffbE', symObjAddr: 0x5A0, symBinAddr: 0x4FE20, symSize: 0x280 }
  - { offsetInCU: 0x2739, offset: 0x1D2465, size: 0x8, addend: 0x0, symName: '__ZN4core3ptr103drop_in_place$LT$core..option..Option$LT$alloc..boxed..Box$LT$syn..generics..TypeParamBound$GT$$GT$$GT$17hf0901f177fd8ec83E', symObjAddr: 0x820, symBinAddr: 0x500A0, symSize: 0x50 }
  - { offsetInCU: 0x2946, offset: 0x1D2672, size: 0x8, addend: 0x0, symName: '__ZN4core3ptr103drop_in_place$LT$syn..punctuated..Punctuated$LT$syn..generics..GenericParam$C$syn..token..Comma$GT$$GT$17hc171c18ee53dbad0E', symObjAddr: 0x870, symBinAddr: 0x500F0, symSize: 0xF0 }
  - { offsetInCU: 0x2E28, offset: 0x1D2B54, size: 0x8, addend: 0x0, symName: '__ZN4core3ptr104drop_in_place$LT$syn..punctuated..Punctuated$LT$syn..generics..TypeParamBound$C$syn..token..Plus$GT$$GT$17hcf5b48af9969cc83E', symObjAddr: 0x960, symBinAddr: 0x501E0, symSize: 0x260 }
  - { offsetInCU: 0x381A, offset: 0x1D3546, size: 0x8, addend: 0x0, symName: '__ZN4core3ptr34drop_in_place$LT$syn..lit..Lit$GT$17ha63ef6405732d63fE', symObjAddr: 0xBC0, symBinAddr: 0x50440, symSize: 0x110 }
  - { offsetInCU: 0x3D54, offset: 0x1D3A80, size: 0x8, addend: 0x0, symName: '__ZN4core3ptr34drop_in_place$LT$syn..pat..Pat$GT$17h91c3546b0c499aa4E', symObjAddr: 0xCD0, symBinAddr: 0x50550, symSize: 0xBC0 }
  - { offsetInCU: 0x7391, offset: 0x1D70BD, size: 0x8, addend: 0x0, symName: '__ZN4core3ptr34drop_in_place$LT$syn..ty..Type$GT$17h646f784aaf5cbab1E', symObjAddr: 0x1890, symBinAddr: 0x51110, symSize: 0x510 }
  - { offsetInCU: 0x89F0, offset: 0x1D871C, size: 0x8, addend: 0x0, symName: '__ZN4core3ptr36drop_in_place$LT$syn..expr..Expr$GT$17hb910290a3af1daefE', symObjAddr: 0x1DA0, symBinAddr: 0x51620, symSize: 0x1E10 }
  - { offsetInCU: 0x10BE4, offset: 0x1E0910, size: 0x8, addend: 0x0, symName: '__ZN4core3ptr36drop_in_place$LT$syn..mac..Macro$GT$17h5f1ece46988e9adcE', symObjAddr: 0x3BB0, symBinAddr: 0x53430, symSize: 0x40 }
  - { offsetInCU: 0x10C1E, offset: 0x1E094A, size: 0x8, addend: 0x0, symName: '__ZN4core3ptr36drop_in_place$LT$syn..path..Path$GT$17h00d83a0e1f28cf99E', symObjAddr: 0x3BF0, symBinAddr: 0x53470, symSize: 0x240 }
  - { offsetInCU: 0x11667, offset: 0x1E1393, size: 0x8, addend: 0x0, symName: '__ZN4core3ptr37drop_in_place$LT$syn..stmt..Block$GT$17h33338ad4c6a9f8a8E', symObjAddr: 0x3E30, symBinAddr: 0x536B0, symSize: 0xD0 }
  - { offsetInCU: 0x11949, offset: 0x1E1675, size: 0x8, addend: 0x0, symName: '__ZN4core3ptr38drop_in_place$LT$syn..error..Error$GT$17hcf149843d3ac9f0eE', symObjAddr: 0x3F00, symBinAddr: 0x53780, symSize: 0x80 }
  - { offsetInCU: 0x11C1A, offset: 0x1E1946, size: 0x8, addend: 0x0, symName: '__ZN4core3ptr38drop_in_place$LT$syn..expr..Member$GT$17h97aaa8d7a3825814E', symObjAddr: 0x3F80, symBinAddr: 0x53800, symSize: 0x30 }
  - { offsetInCU: 0x11D17, offset: 0x1E1A43, size: 0x8, addend: 0x0, symName: '__ZN4core3ptr39drop_in_place$LT$proc_macro2..Ident$GT$17h7dde42b28475f68eE', symObjAddr: 0x3FB0, symBinAddr: 0x53830, symSize: 0x30 }
  - { offsetInCU: 0x11F2B, offset: 0x1E1C57, size: 0x8, addend: 0x0, symName: '__ZN4core3ptr39drop_in_place$LT$syn..buffer..Entry$GT$17h9feaea0f507eeb5aE', symObjAddr: 0x3FE0, symBinAddr: 0x53860, symSize: 0xC0 }
  - { offsetInCU: 0x1223F, offset: 0x1E1F6B, size: 0x8, addend: 0x0, symName: '__ZN4core3ptr40drop_in_place$LT$syn..ty..ReturnType$GT$17h88c7077d98a3718fE', symObjAddr: 0x40A0, symBinAddr: 0x53920, symSize: 0x50 }
  - { offsetInCU: 0x123B1, offset: 0x1E20DD, size: 0x8, addend: 0x0, symName: '__ZN4core3ptr41drop_in_place$LT$syn..expr..ExprConst$GT$17h56a43a7f2459f7b8E', symObjAddr: 0x40F0, symBinAddr: 0x53970, symSize: 0x120 }
  - { offsetInCU: 0x12872, offset: 0x1E259E, size: 0x8, addend: 0x0, symName: '__ZN4core3ptr44drop_in_place$LT$syn..lifetime..Lifetime$GT$17h759c84ac0687907aE', symObjAddr: 0x4210, symBinAddr: 0x53A90, symSize: 0x30 }
  - { offsetInCU: 0x1296F, offset: 0x1E269B, size: 0x8, addend: 0x0, symName: '__ZN4core3ptr44drop_in_place$LT$syn..parse..ParseBuffer$GT$17hb2e2b78f44f0e5baE', symObjAddr: 0x4240, symBinAddr: 0x53AC0, symSize: 0x70 }
  - { offsetInCU: 0x12D09, offset: 0x1E2A35, size: 0x8, addend: 0x0, symName: '__ZN4core3ptr45drop_in_place$LT$proc_macro2..TokenStream$GT$17h0753e791e3190ac8E', symObjAddr: 0x42B0, symBinAddr: 0x53B30, symSize: 0x140 }
  - { offsetInCU: 0x1313A, offset: 0x1E2E66, size: 0x8, addend: 0x0, symName: '__ZN4core3ptr45drop_in_place$LT$syn..buffer..TokenBuffer$GT$17h800090e72c42b511E', symObjAddr: 0x43F0, symBinAddr: 0x53C70, symSize: 0xD0 }
  - { offsetInCU: 0x133A0, offset: 0x1E30CC, size: 0x8, addend: 0x0, symName: '__ZN4core3ptr45drop_in_place$LT$syn..generics..TypeParam$GT$17hf6c689bf92fae6b2E', symObjAddr: 0x44C0, symBinAddr: 0x53D40, symSize: 0x1E0 }
  - { offsetInCU: 0x13AFA, offset: 0x1E3826, size: 0x8, addend: 0x0, symName: '__ZN4core3ptr46drop_in_place$LT$syn..generics..ConstParam$GT$17h84ae073706aff006E', symObjAddr: 0x46A0, symBinAddr: 0x53F20, symSize: 0x100 }
  - { offsetInCU: 0x13E82, offset: 0x1E3BAE, size: 0x8, addend: 0x0, symName: '__ZN4core3ptr47drop_in_place$LT$syn..path..GenericArgument$GT$17h1e97a51d0bfa8d79E', symObjAddr: 0x47A0, symBinAddr: 0x54020, symSize: 0x4A0 }
  - { offsetInCU: 0x14F29, offset: 0x1E4C55, size: 0x8, addend: 0x0, symName: '__ZN4core3ptr49drop_in_place$LT$syn..generics..LifetimeParam$GT$17h3c90f2e78b6ca927E', symObjAddr: 0x4C40, symBinAddr: 0x544C0, symSize: 0xA0 }
  - { offsetInCU: 0x15243, offset: 0x1E4F6F, size: 0x8, addend: 0x0, symName: '__ZN4core3ptr50drop_in_place$LT$syn..generics..TypeParamBound$GT$17h7b9343174e39278bE', symObjAddr: 0x4CE0, symBinAddr: 0x54560, symSize: 0xA0 }
  - { offsetInCU: 0x153E8, offset: 0x1E5114, size: 0x8, addend: 0x0, symName: '__ZN4core3ptr50drop_in_place$LT$syn..generics..WherePredicate$GT$17h6015ae7991ca7c6cE', symObjAddr: 0x4D80, symBinAddr: 0x54600, symSize: 0xA0 }
  - { offsetInCU: 0x15589, offset: 0x1E52B5, size: 0x8, addend: 0x0, symName: '__ZN4core3ptr58drop_in_place$LT$alloc..vec..Vec$LT$syn..expr..Arm$GT$$GT$17ha7bc79fcc49d0e19E', symObjAddr: 0x4E20, symBinAddr: 0x546A0, symSize: 0xD0 }
  - { offsetInCU: 0x15816, offset: 0x1E5542, size: 0x8, addend: 0x0, symName: '__ZN4core3ptr59drop_in_place$LT$alloc..boxed..Box$LT$syn..pat..Pat$GT$$GT$17h49ffe6535f47318fE', symObjAddr: 0x4EF0, symBinAddr: 0x54770, symSize: 0x50 }
  - { offsetInCU: 0x15971, offset: 0x1E569D, size: 0x8, addend: 0x0, symName: '__ZN4core3ptr59drop_in_place$LT$alloc..boxed..Box$LT$syn..ty..Type$GT$$GT$17h36cfce59f01f3a8fE', symObjAddr: 0x4F40, symBinAddr: 0x547C0, symSize: 0x50 }
  - { offsetInCU: 0x15ACC, offset: 0x1E57F8, size: 0x8, addend: 0x0, symName: '__ZN4core3ptr61drop_in_place$LT$alloc..boxed..Box$LT$syn..expr..Expr$GT$$GT$17he2adadfca53b3509E', symObjAddr: 0x4F90, symBinAddr: 0x54810, symSize: 0x50 }
  - { offsetInCU: 0x15CA3, offset: 0x1E59CF, size: 0x8, addend: 0x0, symName: '__ZN4core3ptr61drop_in_place$LT$syn..path..ParenthesizedGenericArguments$GT$17h4cd7782735b88d96E', symObjAddr: 0x4FE0, symBinAddr: 0x54860, symSize: 0x170 }
  - { offsetInCU: 0x1626A, offset: 0x1E5F96, size: 0x8, addend: 0x0, symName: '__ZN4core3ptr62drop_in_place$LT$syn..path..AngleBracketedGenericArguments$GT$17hac124dd118513038E', symObjAddr: 0x5150, symBinAddr: 0x549D0, symSize: 0x120 }
  - { offsetInCU: 0x16680, offset: 0x1E63AC, size: 0x8, addend: 0x0, symName: '__ZN4core3ptr63drop_in_place$LT$alloc..boxed..Box$LT$syn..lit..LitRepr$GT$$GT$17hc5bc8ee019cad972E', symObjAddr: 0x5270, symBinAddr: 0x54AF0, symSize: 0x60 }
  - { offsetInCU: 0x16975, offset: 0x1E66A1, size: 0x8, addend: 0x0, symName: '__ZN4core3ptr64drop_in_place$LT$alloc..boxed..Box$LT$syn..pat..FieldPat$GT$$GT$17h770150671720e9c0E', symObjAddr: 0x52D0, symBinAddr: 0x54B50, symSize: 0x100 }
  - { offsetInCU: 0x16F90, offset: 0x1E6CBC, size: 0x8, addend: 0x0, symName: '__ZN4core3ptr64drop_in_place$LT$alloc..boxed..Box$LT$syn..ty..BareFnArg$GT$$GT$17h15a58aeff26cf7b1E', symObjAddr: 0x53D0, symBinAddr: 0x54C50, symSize: 0xF0 }
  - { offsetInCU: 0x17422, offset: 0x1E714E, size: 0x8, addend: 0x0, symName: '__ZN4core3ptr65drop_in_place$LT$core..option..Option$LT$syn..expr..Label$GT$$GT$17hbeb69ff24f6d12a3E', symObjAddr: 0x54C0, symBinAddr: 0x54D40, symSize: 0x30 }
  - { offsetInCU: 0x1755D, offset: 0x1E7289, size: 0x8, addend: 0x0, symName: '__ZN4core3ptr66drop_in_place$LT$core..option..Option$LT$syn..pat..PatRest$GT$$GT$17hb16059a77742bcc2E', symObjAddr: 0x54F0, symBinAddr: 0x54D70, symSize: 0x70 }
  - { offsetInCU: 0x177B3, offset: 0x1E74DF, size: 0x8, addend: 0x0, symName: '__ZN4core3ptr67drop_in_place$LT$alloc..boxed..Box$LT$syn..expr..FieldValue$GT$$GT$17h31092deaee4fbb6bE', symObjAddr: 0x5560, symBinAddr: 0x54DE0, symSize: 0xF0 }
  - { offsetInCU: 0x17C25, offset: 0x1E7951, size: 0x8, addend: 0x0, symName: '__ZN4core3ptr68drop_in_place$LT$alloc..boxed..Box$LT$syn..path..PathSegment$GT$$GT$17h389b073a071a136cE', symObjAddr: 0x5650, symBinAddr: 0x54ED0, symSize: 0x190 }
  - { offsetInCU: 0x18303, offset: 0x1E802F, size: 0x8, addend: 0x0, symName: '__ZN4core3ptr70drop_in_place$LT$core..option..Option$LT$syn..ty..BareVariadic$GT$$GT$17h5d50785ed896ab9aE', symObjAddr: 0x57E0, symBinAddr: 0x55060, symSize: 0xC0 }
  - { offsetInCU: 0x18790, offset: 0x1E84BC, size: 0x8, addend: 0x0, symName: '__ZN4core3ptr72drop_in_place$LT$alloc..boxed..Box$LT$syn..path..GenericArgument$GT$$GT$17h0167b8c28da927e0E', symObjAddr: 0x58A0, symBinAddr: 0x55120, symSize: 0x2B0 }
  - { offsetInCU: 0x1911B, offset: 0x1E8E47, size: 0x8, addend: 0x0, symName: '__ZN4core3ptr72drop_in_place$LT$core..option..Option$LT$syn..lifetime..Lifetime$GT$$GT$17h1cec8fef0bb8367dE', symObjAddr: 0x5B50, symBinAddr: 0x553D0, symSize: 0x30 }
  - { offsetInCU: 0x19237, offset: 0x1E8F63, size: 0x8, addend: 0x0, symName: '__ZN4core3ptr73drop_in_place$LT$alloc..boxed..Box$LT$syn..generics..GenericParam$GT$$GT$17h858b54a69accfd4dE', symObjAddr: 0x5B80, symBinAddr: 0x55400, symSize: 0x80 }
  - { offsetInCU: 0x193AF, offset: 0x1E90DB, size: 0x8, addend: 0x0, symName: '__ZN4core3ptr75drop_in_place$LT$alloc..boxed..Box$LT$syn..generics..TypeParamBound$GT$$GT$17h3da0d8fba9b3862cE', symObjAddr: 0x5C00, symBinAddr: 0x55480, symSize: 0x190 }
  - { offsetInCU: 0x19A89, offset: 0x1E97B5, size: 0x8, addend: 0x0, symName: '__ZN4core3ptr86drop_in_place$LT$syn..punctuated..Punctuated$LT$syn..pat..Pat$C$syn..token..Or$GT$$GT$17h857c4222dd642261E', symObjAddr: 0x5D90, symBinAddr: 0x55610, symSize: 0x120 }
  - { offsetInCU: 0x19ECF, offset: 0x1E9BFB, size: 0x8, addend: 0x0, symName: '__ZN4core3ptr87drop_in_place$LT$core..option..Option$LT$alloc..boxed..Box$LT$syn..pat..Pat$GT$$GT$$GT$17hb3c11e9d12bcdbd1E', symObjAddr: 0x5EB0, symBinAddr: 0x55730, symSize: 0x50 }
  - { offsetInCU: 0x1A041, offset: 0x1E9D6D, size: 0x8, addend: 0x0, symName: '__ZN4core3ptr87drop_in_place$LT$core..option..Option$LT$alloc..boxed..Box$LT$syn..ty..Type$GT$$GT$$GT$17h407163ef6663e2ffE', symObjAddr: 0x5F00, symBinAddr: 0x55780, symSize: 0x50 }
  - { offsetInCU: 0x1A1B3, offset: 0x1E9EDF, size: 0x8, addend: 0x0, symName: '__ZN4core3ptr89drop_in_place$LT$core..option..Option$LT$alloc..boxed..Box$LT$syn..expr..Expr$GT$$GT$$GT$17h8a4fcd655c85b4e5E', symObjAddr: 0x5F50, symBinAddr: 0x557D0, symSize: 0x50 }
  - { offsetInCU: 0x1A363, offset: 0x1EA08F, size: 0x8, addend: 0x0, symName: '__ZN4core3ptr89drop_in_place$LT$syn..punctuated..Punctuated$LT$syn..pat..Pat$C$syn..token..Comma$GT$$GT$17hb086995bcf66ffcdE', symObjAddr: 0x5FA0, symBinAddr: 0x55820, symSize: 0x120 }
  - { offsetInCU: 0x1A7C0, offset: 0x1EA4EC, size: 0x8, addend: 0x0, symName: '__ZN4core3ptr89drop_in_place$LT$syn..punctuated..Punctuated$LT$syn..ty..Type$C$syn..token..Comma$GT$$GT$17h22647ef5f64debb9E', symObjAddr: 0x60C0, symBinAddr: 0x55940, symSize: 0x120 }
  - { offsetInCU: 0x1AC0A, offset: 0x1EA936, size: 0x8, addend: 0x0, symName: '__ZN4core3ptr90drop_in_place$LT$core..option..Option$LT$syn..path..AngleBracketedGenericArguments$GT$$GT$17h2082dea84519cea9E', symObjAddr: 0x61E0, symBinAddr: 0x55A60, symSize: 0x130 }
  - { offsetInCU: 0x1B075, offset: 0x1EADA1, size: 0x8, addend: 0x0, symName: '__ZN4core3ptr91drop_in_place$LT$syn..punctuated..Punctuated$LT$syn..expr..Expr$C$syn..token..Comma$GT$$GT$17h0369d12efd25ffe5E', symObjAddr: 0x6310, symBinAddr: 0x55B90, symSize: 0x120 }
  - { offsetInCU: 0x1B4D2, offset: 0x1EB1FE, size: 0x8, addend: 0x0, symName: '__ZN4core3ptr94drop_in_place$LT$syn..punctuated..Punctuated$LT$syn..pat..FieldPat$C$syn..token..Comma$GT$$GT$17ha79305f2d14a963bE', symObjAddr: 0x6430, symBinAddr: 0x55CB0, symSize: 0xF0 }
  - { offsetInCU: 0x1B79C, offset: 0x1EB4C8, size: 0x8, addend: 0x0, symName: '__ZN4core3ptr94drop_in_place$LT$syn..punctuated..Punctuated$LT$syn..ty..BareFnArg$C$syn..token..Comma$GT$$GT$17h17c7f848dd9be9aeE', symObjAddr: 0x6520, symBinAddr: 0x55DA0, symSize: 0xF0 }
  - { offsetInCU: 0x1BA66, offset: 0x1EB792, size: 0x8, addend: 0x0, symName: '__ZN4core3ptr96drop_in_place$LT$core..option..Option$LT$alloc..boxed..Box$LT$syn..path..PathSegment$GT$$GT$$GT$17h1891276410ff88caE', symObjAddr: 0x6610, symBinAddr: 0x55E90, symSize: 0x90 }
  - { offsetInCU: 0x1BCE8, offset: 0x1EBA14, size: 0x8, addend: 0x0, symName: '__ZN4core3ptr97drop_in_place$LT$syn..punctuated..Punctuated$LT$syn..expr..FieldValue$C$syn..token..Comma$GT$$GT$17hed66755c87efe679E', symObjAddr: 0x66A0, symBinAddr: 0x55F20, symSize: 0xF0 }
  - { offsetInCU: 0x1BFB2, offset: 0x1EBCDE, size: 0x8, addend: 0x0, symName: '__ZN4core3ptr98drop_in_place$LT$alloc..vec..Vec$LT$$LP$syn..path..GenericArgument$C$syn..token..Comma$RP$$GT$$GT$17h21ee089563ac5e47E', symObjAddr: 0x6790, symBinAddr: 0x56010, symSize: 0xD0 }
  - { offsetInCU: 0x1C2BB, offset: 0x1EBFE7, size: 0x8, addend: 0x0, symName: '__ZN4core3ptr98drop_in_place$LT$syn..punctuated..Punctuated$LT$syn..lifetime..Lifetime$C$syn..token..Plus$GT$$GT$17h629d02c6fce7523dE', symObjAddr: 0x6860, symBinAddr: 0x560E0, symSize: 0xB1 }
  - { offsetInCU: 0x230D6, offset: 0x1F2E02, size: 0x8, addend: 0x0, symName: __ZN3syn11parse_quote5parse17hc2e1cd2986c71664E, symObjAddr: 0x0, symBinAddr: 0x4F8D0, symSize: 0x500 }
  - { offsetInCU: 0x23B2A, offset: 0x1F3856, size: 0x8, addend: 0x0, symName: __ZN3syn11parse_quote5parse18panic_cold_display17ha0c319e859ead45dE, symObjAddr: 0x500, symBinAddr: 0x212F60, symSize: 0x50 }
  - { offsetInCU: 0x1E, offset: 0x1F8DA5, size: 0x8, addend: 0x0, symName: __ZN4core5slice4sort10merge_sort17h5efbf2460a283d5bE, symObjAddr: 0x0, symBinAddr: 0x561A0, symSize: 0x8F0 }
  - { offsetInCU: 0x1444, offset: 0x1FA1CB, size: 0x8, addend: 0x0, symName: __ZN4core5slice4sort10merge_sort17h5efbf2460a283d5bE, symObjAddr: 0x0, symBinAddr: 0x561A0, symSize: 0x8F0 }
  - { offsetInCU: 0x2BDC, offset: 0x1FB963, size: 0x8, addend: 0x0, symName: __ZN4core5slice4sort25insertion_sort_shift_left17ha4421c3d4c9504b2E, symObjAddr: 0x8F0, symBinAddr: 0x56A90, symSize: 0xEE }
  - { offsetInCU: 0x1E, offset: 0x1FCFFD, size: 0x8, addend: 0x0, symName: '__ZN102_$LT$core..iter..adapters..map..Map$LT$I$C$F$GT$$u20$as$u20$core..iter..traits..iterator..Iterator$GT$4fold17hc230266446ef1c8bE', symObjAddr: 0x0, symBinAddr: 0x56B80, symSize: 0x820 }
  - { offsetInCU: 0x22D2, offset: 0x1FF2B1, size: 0x8, addend: 0x0, symName: '__ZN4core3ptr37drop_in_place$LT$syn..lit..LitStr$GT$17hf34f6eeaedc0392bE', symObjAddr: 0x1110, symBinAddr: 0x57BA0, symSize: 0x60 }
  - { offsetInCU: 0x26AA, offset: 0x1FF689, size: 0x8, addend: 0x0, symName: '__ZN4core3ptr45drop_in_place$LT$proc_macro2..TokenStream$GT$17h0753e791e3190ac8E', symObjAddr: 0x1170, symBinAddr: 0x57C00, symSize: 0x135 }
  - { offsetInCU: 0x2C02, offset: 0x1FFBE1, size: 0x8, addend: 0x0, symName: '__ZN102_$LT$core..iter..adapters..map..Map$LT$I$C$F$GT$$u20$as$u20$core..iter..traits..iterator..Iterator$GT$4fold17hc230266446ef1c8bE', symObjAddr: 0x0, symBinAddr: 0x56B80, symSize: 0x820 }
  - { offsetInCU: 0x3C8E, offset: 0x200C6D, size: 0x8, addend: 0x0, symName: '__ZN102_$LT$core..iter..adapters..map..Map$LT$I$C$F$GT$$u20$as$u20$core..iter..traits..iterator..Iterator$GT$8try_fold17h45ead6d8c8423cb5E', symObjAddr: 0x910, symBinAddr: 0x573A0, symSize: 0x600 }
  - { offsetInCU: 0x4AE6, offset: 0x201AC5, size: 0x8, addend: 0x0, symName: '__ZN102_$LT$core..iter..adapters..map..Map$LT$I$C$F$GT$$u20$as$u20$core..iter..traits..iterator..Iterator$GT$8try_fold17hdb4214f167d6b8f8E', symObjAddr: 0xF10, symBinAddr: 0x579A0, symSize: 0x200 }
  - { offsetInCU: 0x1E, offset: 0x20DEA8, size: 0x8, addend: 0x0, symName: '__ZN40_$LT$F$u20$as$u20$syn..parse..Parser$GT$6parse217hf31c4f272d1496cbE', symObjAddr: 0x0, symBinAddr: 0x57D40, symSize: 0xB30 }
  - { offsetInCU: 0x2A6, offset: 0x20E130, size: 0x8, addend: 0x0, symName: '__ZN40_$LT$F$u20$as$u20$syn..parse..Parser$GT$6parse217hf31c4f272d1496cbE', symObjAddr: 0x0, symBinAddr: 0x57D40, symSize: 0xB30 }
  - { offsetInCU: 0x3A16, offset: 0x2118A0, size: 0x8, addend: 0x0, symName: '__ZN4core3ptr38drop_in_place$LT$syn..error..Error$GT$17hcf149843d3ac9f0eE', symObjAddr: 0xB30, symBinAddr: 0x58870, symSize: 0x80 }
  - { offsetInCU: 0x3D63, offset: 0x211BED, size: 0x8, addend: 0x0, symName: '__ZN4core3ptr39drop_in_place$LT$syn..buffer..Entry$GT$17h9feaea0f507eeb5aE', symObjAddr: 0xBB0, symBinAddr: 0x588F0, symSize: 0xC0 }
  - { offsetInCU: 0x4077, offset: 0x211F01, size: 0x8, addend: 0x0, symName: '__ZN4core3ptr44drop_in_place$LT$syn..parse..ParseBuffer$GT$17hb2e2b78f44f0e5baE', symObjAddr: 0xC70, symBinAddr: 0x589B0, symSize: 0x70 }
  - { offsetInCU: 0x4376, offset: 0x212200, size: 0x8, addend: 0x0, symName: '__ZN4core3ptr45drop_in_place$LT$syn..buffer..TokenBuffer$GT$17h800090e72c42b511E', symObjAddr: 0xCE0, symBinAddr: 0x58A20, symSize: 0xD0 }
  - { offsetInCU: 0x5EA8, offset: 0x213D32, size: 0x8, addend: 0x0, symName: __ZN14thiserror_impl3fmt8take_int17hfda5df0f74248bdaE, symObjAddr: 0xDB0, symBinAddr: 0x58AF0, symSize: 0x200 }
  - { offsetInCU: 0x645A, offset: 0x2142E4, size: 0x8, addend: 0x0, symName: __ZN14thiserror_impl3fmt10take_ident17h994c8c5fa3f277edE, symObjAddr: 0xFB0, symBinAddr: 0x58CF0, symSize: 0x2FC }
  - { offsetInCU: 0x858, offset: 0x217383, size: 0x8, addend: 0x0, symName: '__ZN68_$LT$$RF$str$u20$as$u20$proc_macro..bridge..rpc..Encode$LT$S$GT$$GT$6encode17h4e9762e9652b8460E', symObjAddr: 0x70, symBinAddr: 0x58FF0, symSize: 0x330 }
  - { offsetInCU: 0x1E, offset: 0x217BBC, size: 0x8, addend: 0x0, symName: '__ZN3std3sys6common12thread_local10fast_local12Key$LT$T$GT$14try_initialize17h6ec8200718968282E.llvm.14553301604275740189', symObjAddr: 0x0, symBinAddr: 0x59320, symSize: 0x150 }
  - { offsetInCU: 0x466, offset: 0x218004, size: 0x8, addend: 0x0, symName: __ZN3std3sys6common12thread_local10fast_local13destroy_value17hdd82de2592422aa5E, symObjAddr: 0x1E0, symBinAddr: 0x594C0, symSize: 0xE0 }
  - { offsetInCU: 0x1013, offset: 0x218BB1, size: 0x8, addend: 0x0, symName: '__ZN4core3ptr81drop_in_place$LT$core..result..Result$LT$$LP$$RP$$C$std..io..error..Error$GT$$GT$17h646e7d754fba8b46E', symObjAddr: 0x2C0, symBinAddr: 0x595A0, symSize: 0xA5 }
  - { offsetInCU: 0x1D28, offset: 0x2198C6, size: 0x8, addend: 0x0, symName: '__ZN3std3sys6common12thread_local10fast_local12Key$LT$T$GT$14try_initialize17h6ec8200718968282E.llvm.14553301604275740189', symObjAddr: 0x0, symBinAddr: 0x59320, symSize: 0x150 }
  - { offsetInCU: 0x219E, offset: 0x219D3C, size: 0x8, addend: 0x0, symName: '__ZN3std3sys6common12thread_local10fast_local12Key$LT$T$GT$14try_initialize17hb38367e9dabb1c64E.llvm.14553301604275740189', symObjAddr: 0x150, symBinAddr: 0x59470, symSize: 0x50 }
  - { offsetInCU: 0x1E, offset: 0x21B31A, size: 0x8, addend: 0x0, symName: __ZN4core3fmt5Write10write_char17h0e5caff467862ccaE, symObjAddr: 0x0, symBinAddr: 0x59650, symSize: 0x100 }
  - { offsetInCU: 0xC8, offset: 0x21B3C4, size: 0x8, addend: 0x0, symName: '__ZN80_$LT$std..io..Write..write_fmt..Adapter$LT$T$GT$$u20$as$u20$core..fmt..Write$GT$9write_str17h54fbf975d9f9c975E', symObjAddr: 0x1E0, symBinAddr: 0x59830, symSize: 0x3E }
  - { offsetInCU: 0x9F7, offset: 0x21BCF3, size: 0x8, addend: 0x0, symName: '__ZN4core3ptr81drop_in_place$LT$core..result..Result$LT$$LP$$RP$$C$std..io..error..Error$GT$$GT$17h646e7d754fba8b46E', symObjAddr: 0x120, symBinAddr: 0x59770, symSize: 0xB0 }
  - { offsetInCU: 0xE69, offset: 0x21C165, size: 0x8, addend: 0x0, symName: '__ZN4core3ptr92drop_in_place$LT$std..io..Write..write_fmt..Adapter$LT$std..sys..unix..stdio..Stderr$GT$$GT$17hf8c737c049029e21E', symObjAddr: 0x1D0, symBinAddr: 0x59820, symSize: 0x10 }
  - { offsetInCU: 0xFEF, offset: 0x21C2EB, size: 0x8, addend: 0x0, symName: __ZN4core3fmt5Write10write_char17h0e5caff467862ccaE, symObjAddr: 0x0, symBinAddr: 0x59650, symSize: 0x100 }
  - { offsetInCU: 0x1158, offset: 0x21C454, size: 0x8, addend: 0x0, symName: __ZN4core3fmt5Write9write_fmt17h84856f9f0b41f576E, symObjAddr: 0x100, symBinAddr: 0x59750, symSize: 0x20 }
  - { offsetInCU: 0x1DBA, offset: 0x21E961, size: 0x8, addend: 0x0, symName: '__ZN9hashbrown3map28HashMap$LT$K$C$V$C$S$C$A$GT$6insert17h34534ff22279d662E', symObjAddr: 0x100, symBinAddr: 0x59870, symSize: 0x1DB }
  - { offsetInCU: 0x1E, offset: 0x21F6A0, size: 0x8, addend: 0x0, symName: __ZN3std2io5Write9write_all17hbf71c29c0770b759E, symObjAddr: 0x0, symBinAddr: 0x59A50, symSize: 0xF0 }
  - { offsetInCU: 0x35, offset: 0x21F6B7, size: 0x8, addend: 0x0, symName: _anon.630e271c04d9ee4f060efe99e56ec06b.6.llvm.12713651512225800437, symObjAddr: 0x328, symBinAddr: 0x280B30, symSize: 0x0 }
  - { offsetInCU: 0xE5, offset: 0x21F767, size: 0x8, addend: 0x0, symName: __ZN3std2io5Write9write_all17hbf71c29c0770b759E, symObjAddr: 0x0, symBinAddr: 0x59A50, symSize: 0xF0 }
  - { offsetInCU: 0x361, offset: 0x21F9E3, size: 0x8, addend: 0x0, symName: __ZN3std2io5Write9write_fmt17hc7809c7c51161863E, symObjAddr: 0xF0, symBinAddr: 0x59B40, symSize: 0x90 }
  - { offsetInCU: 0x141F, offset: 0x220AA1, size: 0x8, addend: 0x0, symName: '__ZN4core3ptr42drop_in_place$LT$std..io..error..Error$GT$17h1ae9a3372b9c4d07E.llvm.12713651512225800437', symObjAddr: 0x180, symBinAddr: 0x59BD0, symSize: 0xA0 }
  - { offsetInCU: 0x1883, offset: 0x220F05, size: 0x8, addend: 0x0, symName: '__ZN4core3ptr92drop_in_place$LT$std..io..Write..write_fmt..Adapter$LT$std..sys..unix..stdio..Stderr$GT$$GT$17hf8c737c049029e21E.llvm.12713651512225800437', symObjAddr: 0x220, symBinAddr: 0x59C70, symSize: 0x15 }
  - { offsetInCU: 0x1E, offset: 0x2218C3, size: 0x8, addend: 0x0, symName: '__ZN4core3ptr43drop_in_place$LT$syn..parse..Unexpected$GT$17hd9be60cd46ad2ae1E.llvm.11375376058830804656', symObjAddr: 0x0, symBinAddr: 0x59C90, symSize: 0x50 }
  - { offsetInCU: 0xB35, offset: 0x2223DA, size: 0x8, addend: 0x0, symName: '__ZN4core3ptr43drop_in_place$LT$syn..parse..Unexpected$GT$17hd9be60cd46ad2ae1E.llvm.11375376058830804656', symObjAddr: 0x0, symBinAddr: 0x59C90, symSize: 0x50 }
  - { offsetInCU: 0x15FE, offset: 0x222EA3, size: 0x8, addend: 0x0, symName: '__ZN68_$LT$alloc..rc..Rc$LT$T$C$A$GT$$u20$as$u20$core..ops..drop..Drop$GT$4drop17h147db372cd25e7f4E', symObjAddr: 0x160, symBinAddr: 0x59CE0, symSize: 0x30 }
  - { offsetInCU: 0x1872, offset: 0x223117, size: 0x8, addend: 0x0, symName: '__ZN68_$LT$alloc..rc..Rc$LT$T$C$A$GT$$u20$as$u20$core..ops..drop..Drop$GT$4drop17h2613cb2f5c4a3f1aE', symObjAddr: 0x190, symBinAddr: 0x59D10, symSize: 0xE0 }
  - { offsetInCU: 0x1D65, offset: 0x22360A, size: 0x8, addend: 0x0, symName: '__ZN68_$LT$alloc..rc..Rc$LT$T$C$A$GT$$u20$as$u20$core..ops..drop..Drop$GT$4drop17he56c8e8d75962c2bE', symObjAddr: 0x270, symBinAddr: 0x59DF0, symSize: 0x3C }
  - { offsetInCU: 0x1E, offset: 0x224686, size: 0x8, addend: 0x0, symName: '__ZN120_$LT$proc_macro2..fallback..TokenStream$u20$as$u20$core..iter..traits..collect..Extend$LT$proc_macro2..TokenTree$GT$$GT$6extend17h85f49ddda8d66039E', symObjAddr: 0x0, symBinAddr: 0x59E30, symSize: 0x110 }
  - { offsetInCU: 0x9D3, offset: 0x22503B, size: 0x8, addend: 0x0, symName: '__ZN120_$LT$proc_macro2..fallback..TokenStream$u20$as$u20$core..iter..traits..collect..Extend$LT$proc_macro2..TokenTree$GT$$GT$6extend17h85f49ddda8d66039E', symObjAddr: 0x0, symBinAddr: 0x59E30, symSize: 0x110 }
  - { offsetInCU: 0xC5D, offset: 0x2252C5, size: 0x8, addend: 0x0, symName: '__ZN126_$LT$proc_macro2..fallback..TokenStream$u20$as$u20$core..iter..traits..collect..FromIterator$LT$proc_macro2..TokenTree$GT$$GT$9from_iter17h906ea607dabf053eE', symObjAddr: 0x110, symBinAddr: 0x59F40, symSize: 0x150 }
  - { offsetInCU: 0xE17, offset: 0x22547F, size: 0x8, addend: 0x0, symName: '__ZN78_$LT$proc_macro2..fallback..Ident$u20$as$u20$core..cmp..PartialEq$LT$T$GT$$GT$2eq17h6046fc702c7d025fE', symObjAddr: 0x620, symBinAddr: 0x5A450, symSize: 0x76 }
  - { offsetInCU: 0x1962, offset: 0x225FCA, size: 0x8, addend: 0x0, symName: '__ZN4core3ptr45drop_in_place$LT$proc_macro2..TokenStream$GT$17h0753e791e3190ac8E.llvm.233051443880823661', symObjAddr: 0x260, symBinAddr: 0x5A090, symSize: 0x140 }
  - { offsetInCU: 0x1D93, offset: 0x2263FB, size: 0x8, addend: 0x0, symName: '__ZN4core3ptr55drop_in_place$LT$proc_macro2..fallback..TokenStream$GT$17hd28af06cb86198e2E.llvm.233051443880823661', symObjAddr: 0x3A0, symBinAddr: 0x5A1D0, symSize: 0x40 }
  - { offsetInCU: 0x2018, offset: 0x226680, size: 0x8, addend: 0x0, symName: '__ZN4core3ptr71drop_in_place$LT$core..option..Option$LT$proc_macro2..TokenTree$GT$$GT$17h7b32711a3b4e9a3fE.llvm.233051443880823661', symObjAddr: 0x3E0, symBinAddr: 0x5A210, symSize: 0xB0 }
  - { offsetInCU: 0x388E, offset: 0x227EF6, size: 0x8, addend: 0x0, symName: '__ZN5alloc2rc15Rc$LT$T$C$A$GT$8make_mut17h023e4482df5d20deE.llvm.233051443880823661', symObjAddr: 0x490, symBinAddr: 0x5A2C0, symSize: 0x190 }
  - { offsetInCU: 0x1E, offset: 0x2292E2, size: 0x8, addend: 0x0, symName: '__ZN4core3ptr37drop_in_place$LT$core..fmt..Error$GT$17h89a04fbb18211e31E.llvm.1982664103959421390', symObjAddr: 0x0, symBinAddr: 0x5A4D0, symSize: 0x10 }
  - { offsetInCU: 0x35, offset: 0x2292F9, size: 0x8, addend: 0x0, symName: _anon.5a730ca937ca26105473734144c01b26.0.llvm.1982664103959421390, symObjAddr: 0x810, symBinAddr: 0x280B78, symSize: 0x0 }
  - { offsetInCU: 0x18B, offset: 0x22944F, size: 0x8, addend: 0x0, symName: '__ZN58_$LT$alloc..string..String$u20$as$u20$core..fmt..Write$GT$10write_char17hd329c0cb943f081aE.llvm.1982664103959421390', symObjAddr: 0x2A0, symBinAddr: 0x5A760, symSize: 0x130 }
  - { offsetInCU: 0x532, offset: 0x2297F6, size: 0x8, addend: 0x0, symName: '__ZN58_$LT$alloc..string..String$u20$as$u20$core..fmt..Write$GT$9write_str17h1ff5aa96ca91c6d5E.llvm.1982664103959421390', symObjAddr: 0x3D0, symBinAddr: 0x5A890, symSize: 0x60 }
  - { offsetInCU: 0xD04, offset: 0x229FC8, size: 0x8, addend: 0x0, symName: '__ZN4core3ptr37drop_in_place$LT$core..fmt..Error$GT$17h89a04fbb18211e31E.llvm.1982664103959421390', symObjAddr: 0x0, symBinAddr: 0x5A4D0, symSize: 0x10 }
  - { offsetInCU: 0xD6E, offset: 0x22A032, size: 0x8, addend: 0x0, symName: '__ZN4core3ptr42drop_in_place$LT$alloc..string..String$GT$17h63c6e5dcbf4cc5c0E.llvm.1982664103959421390', symObjAddr: 0x10, symBinAddr: 0x5A4E0, symSize: 0x20 }
  - { offsetInCU: 0xFAD, offset: 0x22A271, size: 0x8, addend: 0x0, symName: '__ZN4core3ptr45drop_in_place$LT$proc_macro2..TokenStream$GT$17h0753e791e3190ac8E.llvm.1982664103959421390', symObjAddr: 0x30, symBinAddr: 0x5A500, symSize: 0x140 }
  - { offsetInCU: 0x14F8, offset: 0x22A7BC, size: 0x8, addend: 0x0, symName: '__ZN53_$LT$core..fmt..Error$u20$as$u20$core..fmt..Debug$GT$3fmt17h43ae5cec9623af13E.llvm.1982664103959421390', symObjAddr: 0x180, symBinAddr: 0x5A640, symSize: 0x20 }
  - { offsetInCU: 0x1A43, offset: 0x22AD07, size: 0x8, addend: 0x0, symName: '__ZN71_$LT$core..hash..sip..Hasher$LT$S$GT$$u20$as$u20$core..hash..Hasher$GT$5write17h502706ee2fa02f8fE.llvm.1982664103959421390', symObjAddr: 0x540, symBinAddr: 0x5A8F0, symSize: 0x1E0 }
  - { offsetInCU: 0x236B, offset: 0x22B62F, size: 0x8, addend: 0x0, symName: _anon.5a730ca937ca26105473734144c01b26.4.llvm.1982664103959421390, symObjAddr: 0x858, symBinAddr: 0x280BC0, symSize: 0x0 }
  - { offsetInCU: 0x2B9D, offset: 0x22BE61, size: 0x8, addend: 0x0, symName: '__ZN55_$LT$proc_macro2..Ident$u20$as$u20$core..hash..Hash$GT$4hash17hc1a23e7a52cf2a3dE', symObjAddr: 0x1A0, symBinAddr: 0x5A660, symSize: 0x100 }
  - { offsetInCU: 0x35, offset: 0x22CDD3, size: 0x8, addend: 0x0, symName: _anon.1b708bd76e890a176da889fae808e702.2.llvm.9690516261845570620, symObjAddr: 0x13F0, symBinAddr: 0x280BF0, symSize: 0x0 }
  - { offsetInCU: 0x1B2, offset: 0x22CF50, size: 0x8, addend: 0x0, symName: '__ZN58_$LT$alloc..string..String$u20$as$u20$core..fmt..Write$GT$10write_char17hd329c0cb943f081aE.llvm.9690516261845570620', symObjAddr: 0xF90, symBinAddr: 0x5B8F0, symSize: 0x130 }
  - { offsetInCU: 0x559, offset: 0x22D2F7, size: 0x8, addend: 0x0, symName: '__ZN58_$LT$alloc..string..String$u20$as$u20$core..fmt..Write$GT$9write_str17h1ff5aa96ca91c6d5E.llvm.9690516261845570620', symObjAddr: 0x10C0, symBinAddr: 0x5BA20, symSize: 0x5B }
  - { offsetInCU: 0x2178, offset: 0x22EF16, size: 0x8, addend: 0x0, symName: '__ZN4core3ptr37drop_in_place$LT$core..fmt..Error$GT$17h89a04fbb18211e31E.llvm.9690516261845570620', symObjAddr: 0xE00, symBinAddr: 0x5B760, symSize: 0x10 }
  - { offsetInCU: 0x21A4, offset: 0x22EF42, size: 0x8, addend: 0x0, symName: '__ZN4core3ptr42drop_in_place$LT$alloc..string..String$GT$17h63c6e5dcbf4cc5c0E.llvm.9690516261845570620', symObjAddr: 0xE10, symBinAddr: 0x5B770, symSize: 0x20 }
  - { offsetInCU: 0x23E3, offset: 0x22F181, size: 0x8, addend: 0x0, symName: '__ZN4core3ptr45drop_in_place$LT$proc_macro2..TokenStream$GT$17h0753e791e3190ac8E.llvm.9690516261845570620', symObjAddr: 0xE30, symBinAddr: 0x5B790, symSize: 0x140 }
  - { offsetInCU: 0x2C53, offset: 0x22F9F1, size: 0x8, addend: 0x0, symName: '__ZN53_$LT$core..fmt..Error$u20$as$u20$core..fmt..Debug$GT$3fmt17h43ae5cec9623af13E.llvm.9690516261845570620', symObjAddr: 0xF70, symBinAddr: 0x5B8D0, symSize: 0x20 }
  - { offsetInCU: 0x49DE, offset: 0x23177C, size: 0x8, addend: 0x0, symName: _anon.1b708bd76e890a176da889fae808e702.7.llvm.9690516261845570620, symObjAddr: 0x1438, symBinAddr: 0x280C38, symSize: 0x0 }
  - { offsetInCU: 0x54EA, offset: 0x232288, size: 0x8, addend: 0x0, symName: __ZN3syn5error6new_at17h796a0b648f6c0629E, symObjAddr: 0xC20, symBinAddr: 0x5B580, symSize: 0x1E0 }
  - { offsetInCU: 0xA7C7, offset: 0x237565, size: 0x8, addend: 0x0, symName: __ZN3syn5error5Error11new_spanned17h01472f1d955bd74dE, symObjAddr: 0x80, symBinAddr: 0x5AAD0, symSize: 0x120 }
  - { offsetInCU: 0xA9D9, offset: 0x237777, size: 0x8, addend: 0x0, symName: __ZN3syn5error5Error11new_spanned17h13b34743ecdd927bE, symObjAddr: 0x1A0, symBinAddr: 0x5ABF0, symSize: 0x190 }
  - { offsetInCU: 0xAC6A, offset: 0x237A08, size: 0x8, addend: 0x0, symName: __ZN3syn5error5Error11new_spanned17h5867f6062ac2004eE, symObjAddr: 0x330, symBinAddr: 0x5AD80, symSize: 0x180 }
  - { offsetInCU: 0xAED5, offset: 0x237C73, size: 0x8, addend: 0x0, symName: __ZN3syn5error5Error11new_spanned17h777d8fb9768a9743E, symObjAddr: 0x4B0, symBinAddr: 0x5AF00, symSize: 0x180 }
  - { offsetInCU: 0xB14D, offset: 0x237EEB, size: 0x8, addend: 0x0, symName: __ZN3syn5error5Error11new_spanned17h846baab131e11ee8E, symObjAddr: 0x630, symBinAddr: 0x5B080, symSize: 0x120 }
  - { offsetInCU: 0xB35F, offset: 0x2380FD, size: 0x8, addend: 0x0, symName: __ZN3syn5error5Error11new_spanned17h879ece6ca6ce7560E, symObjAddr: 0x750, symBinAddr: 0x5B1A0, symSize: 0x180 }
  - { offsetInCU: 0xB5CA, offset: 0x238368, size: 0x8, addend: 0x0, symName: __ZN3syn5error5Error11new_spanned17hae03122e43ff0b8bE, symObjAddr: 0x8D0, symBinAddr: 0x5B320, symSize: 0x180 }
  - { offsetInCU: 0xBA26, offset: 0x2387C4, size: 0x8, addend: 0x0, symName: __ZN3syn5error5Error3new17hd326a3a50299e60fE, symObjAddr: 0xB40, symBinAddr: 0x5B4A0, symSize: 0xE0 }
  - { offsetInCU: 0x1E, offset: 0x239B0A, size: 0x8, addend: 0x0, symName: '__ZN4core3ptr179drop_in_place$LT$$LP$alloc..collections..btree..set..BTreeSet$LT$alloc..string..String$GT$$C$syn..punctuated..Punctuated$LT$proc_macro2..TokenStream$C$syn..token..Plus$GT$$RP$$GT$17h5c69531a023fca6eE.llvm.1962070910338234399', symObjAddr: 0x0, symBinAddr: 0x5BA80, symSize: 0x1B0 }
  - { offsetInCU: 0x3DA, offset: 0x239EC6, size: 0x8, addend: 0x0, symName: '__ZN4core3ptr179drop_in_place$LT$$LP$alloc..collections..btree..set..BTreeSet$LT$alloc..string..String$GT$$C$syn..punctuated..Punctuated$LT$proc_macro2..TokenStream$C$syn..token..Plus$GT$$RP$$GT$17h5c69531a023fca6eE.llvm.1962070910338234399', symObjAddr: 0x0, symBinAddr: 0x5BA80, symSize: 0x1B0 }
  - { offsetInCU: 0xB7D, offset: 0x23A669, size: 0x8, addend: 0x0, symName: '__ZN4core3ptr39drop_in_place$LT$proc_macro2..Ident$GT$17h7dde42b28475f68eE.llvm.1962070910338234399', symObjAddr: 0x1B0, symBinAddr: 0x5BC30, symSize: 0x30 }
  - { offsetInCU: 0xE20, offset: 0x23A90C, size: 0x8, addend: 0x0, symName: '__ZN4core3ptr98drop_in_place$LT$core..option..Option$LT$alloc..boxed..Box$LT$proc_macro2..TokenStream$GT$$GT$$GT$17h8df648a1d291a1d3E.llvm.1962070910338234399', symObjAddr: 0x200, symBinAddr: 0x5BC60, symSize: 0x160 }
  - { offsetInCU: 0x13AC, offset: 0x23AE98, size: 0x8, addend: 0x0, symName: '__ZN4core3ptr99drop_in_place$LT$syn..punctuated..Punctuated$LT$proc_macro2..TokenStream$C$syn..token..Plus$GT$$GT$17h4046f612d4a68d1cE.llvm.1962070910338234399', symObjAddr: 0x360, symBinAddr: 0x5BDC0, symSize: 0xD0 }
  - { offsetInCU: 0x2886, offset: 0x23C372, size: 0x8, addend: 0x0, symName: '__ZN5alloc11collections5btree3map5entry22Entry$LT$K$C$V$C$A$GT$10or_default17h1b2d079e87eb3b97E', symObjAddr: 0x430, symBinAddr: 0x5BE90, symSize: 0x280 }
  - { offsetInCU: 0x2E86, offset: 0x23C972, size: 0x8, addend: 0x0, symName: '__ZN5alloc11collections5btree3map5entry28VacantEntry$LT$K$C$V$C$A$GT$6insert17h4448dc9941d9b152E', symObjAddr: 0x780, symBinAddr: 0x5C110, symSize: 0x100 }
  - { offsetInCU: 0x331B, offset: 0x23CE07, size: 0x8, addend: 0x0, symName: '__ZN5alloc11collections5btree3map5entry28VacantEntry$LT$K$C$V$C$A$GT$6insert17hd132afb8c7f0c6ffE', symObjAddr: 0x880, symBinAddr: 0x5C210, symSize: 0x110 }
  - { offsetInCU: 0x1E, offset: 0x24028B, size: 0x8, addend: 0x0, symName: '__ZN4core3ptr43drop_in_place$LT$proc_macro2..TokenTree$GT$17h840ac8992bf3df34E.llvm.5312948816116296616', symObjAddr: 0x0, symBinAddr: 0x5C320, symSize: 0xB0 }
  - { offsetInCU: 0xE42, offset: 0x2410AF, size: 0x8, addend: 0x0, symName: '__ZN4core3ptr43drop_in_place$LT$proc_macro2..TokenTree$GT$17h840ac8992bf3df34E.llvm.5312948816116296616', symObjAddr: 0x0, symBinAddr: 0x5C320, symSize: 0xB0 }
  - { offsetInCU: 0x18CC, offset: 0x241B39, size: 0x8, addend: 0x0, symName: '__ZN86_$LT$alloc..vec..into_iter..IntoIter$LT$T$C$A$GT$$u20$as$u20$core..ops..drop..Drop$GT$4drop17h1b98d8b60b6cc81fE', symObjAddr: 0xB0, symBinAddr: 0x5C3D0, symSize: 0xD0 }
  - { offsetInCU: 0x1B9C, offset: 0x241E09, size: 0x8, addend: 0x0, symName: '__ZN86_$LT$alloc..vec..into_iter..IntoIter$LT$T$C$A$GT$$u20$as$u20$core..ops..drop..Drop$GT$4drop17h317a4f87ba147c9dE', symObjAddr: 0x180, symBinAddr: 0x5C4A0, symSize: 0xF0 }
  - { offsetInCU: 0x1E, offset: 0x242B4C, size: 0x8, addend: 0x0, symName: __ZN14thiserror_impl5valid21check_non_field_attrs17had753ec08a8a6461E, symObjAddr: 0x0, symBinAddr: 0x5C590, symSize: 0xC0 }
  - { offsetInCU: 0x3961, offset: 0x24648F, size: 0x8, addend: 0x0, symName: __ZN14thiserror_impl5valid21check_non_field_attrs17had753ec08a8a6461E, symObjAddr: 0x0, symBinAddr: 0x5C590, symSize: 0xC0 }
  - { offsetInCU: 0x3A61, offset: 0x24658F, size: 0x8, addend: 0x0, symName: __ZN14thiserror_impl5valid17check_field_attrs17h9cec70652e3bd392E, symObjAddr: 0xC0, symBinAddr: 0x5C650, symSize: 0x2B0 }
  - { offsetInCU: 0x3D91, offset: 0x2468BF, size: 0x8, addend: 0x0, symName: __ZN14thiserror_impl5valid28contains_non_static_lifetime17h3a63bcee30d2145aE, symObjAddr: 0x370, symBinAddr: 0x5C900, symSize: 0x2BF }
  - { offsetInCU: 0x1E, offset: 0x24E5C5, size: 0x8, addend: 0x0, symName: __ZN3syn4attr9Attribute15parse_args_with17h9b6857889749decfE, symObjAddr: 0x0, symBinAddr: 0x5CBC0, symSize: 0x350 }
  - { offsetInCU: 0x181B, offset: 0x24FDC2, size: 0x8, addend: 0x0, symName: '__ZN4core3ptr45drop_in_place$LT$proc_macro2..TokenStream$GT$17h0753e791e3190ac8E.llvm.10108132489723551561', symObjAddr: 0x350, symBinAddr: 0x5CF10, symSize: 0x140 }
  - { offsetInCU: 0x9E09, offset: 0x2583B0, size: 0x8, addend: 0x0, symName: __ZN3syn4attr9Attribute15parse_args_with17h9b6857889749decfE, symObjAddr: 0x0, symBinAddr: 0x5CBC0, symSize: 0x350 }
  - { offsetInCU: 0x13AA, offset: 0x25B0AE, size: 0x8, addend: 0x0, symName: '__ZN4core3ptr94drop_in_place$LT$core..result..Result$LT$core..convert..Infallible$C$syn..error..Error$GT$$GT$17h127a3c77b1a86e14E.llvm.12637856410597706296', symObjAddr: 0x210, symBinAddr: 0x5D050, symSize: 0x80 }
  - { offsetInCU: 0x1814, offset: 0x25B518, size: 0x8, addend: 0x0, symName: __ZN4core4iter8adapters11try_process17h0ad9b03b01fe8f08E, symObjAddr: 0x290, symBinAddr: 0x5D0D0, symSize: 0x110 }
  - { offsetInCU: 0x1B8E, offset: 0x25B892, size: 0x8, addend: 0x0, symName: __ZN4core4iter8adapters11try_process17h92de069497fc7549E, symObjAddr: 0x3A0, symBinAddr: 0x5D1E0, symSize: 0x17B }
  - { offsetInCU: 0x1E, offset: 0x26489C, size: 0x8, addend: 0x0, symName: '__ZN10proc_macro6bridge11scoped_cell19ScopedCell$LT$T$GT$7replace17h5fb2b64c2b356afcE', symObjAddr: 0x0, symBinAddr: 0x5D360, symSize: 0x380 }
  - { offsetInCU: 0x4EA, offset: 0x264D68, size: 0x8, addend: 0x0, symName: '__ZN4core3ptr145drop_in_place$LT$proc_macro..bridge..scoped_cell..ScopedCell$LT$T$GT$..replace..PutBackOnDrop$LT$proc_macro..bridge..client..BridgeStateL$GT$$GT$17h86d39277334db669E.llvm.13457823797293183429', symObjAddr: 0x550, symBinAddr: 0x5D8B0, symSize: 0xBA }
  - { offsetInCU: 0x1688, offset: 0x265F06, size: 0x8, addend: 0x0, symName: '__ZN10proc_macro6bridge11scoped_cell19ScopedCell$LT$T$GT$7replace17h5fb2b64c2b356afcE', symObjAddr: 0x0, symBinAddr: 0x5D360, symSize: 0x380 }
  - { offsetInCU: 0x206C, offset: 0x2668EA, size: 0x8, addend: 0x0, symName: '__ZN10proc_macro6bridge11scoped_cell19ScopedCell$LT$T$GT$7replace17h8da8ba3319f0c234E', symObjAddr: 0x380, symBinAddr: 0x5D6E0, symSize: 0x1D0 }
  - { offsetInCU: 0x2BF, offset: 0x26763E, size: 0x8, addend: 0x0, symName: __ZN3std9panicking3try17hd6122eeac3a55412E, symObjAddr: 0xA0, symBinAddr: 0x5D970, symSize: 0x390 }
  - { offsetInCU: 0xFC9, offset: 0x268348, size: 0x8, addend: 0x0, symName: '__ZN4core3ptr52drop_in_place$LT$std..thread..local..AccessError$GT$17h2252f421999e1f30E', symObjAddr: 0x430, symBinAddr: 0x5DD00, symSize: 0x6 }
  - { offsetInCU: 0xA87, offset: 0x269958, size: 0x8, addend: 0x0, symName: __ZN14thiserror_impl4prop12source_field17h126ae4bed896d4dcE, symObjAddr: 0x50, symBinAddr: 0x5DD10, symSize: 0x120 }
  - { offsetInCU: 0xEE0, offset: 0x269DB1, size: 0x8, addend: 0x0, symName: __ZN14thiserror_impl4prop17type_is_backtrace17h4dccef7a5d9d8508E, symObjAddr: 0x240, symBinAddr: 0x5DE30, symSize: 0x111 }
  - { offsetInCU: 0x1E, offset: 0x273521, size: 0x8, addend: 0x0, symName: __ZN4core4hash11BuildHasher8hash_one17h8ee99c41d50ca2c8E, symObjAddr: 0x0, symBinAddr: 0x5DF50, symSize: 0x150 }
  - { offsetInCU: 0x26A, offset: 0x27376D, size: 0x8, addend: 0x0, symName: __ZN4core4hash11BuildHasher8hash_one17h8ee99c41d50ca2c8E, symObjAddr: 0x0, symBinAddr: 0x5DF50, symSize: 0x150 }
  - { offsetInCU: 0x53C, offset: 0x273A3F, size: 0x8, addend: 0x0, symName: __ZN4core4hash11BuildHasher8hash_one17h90c2596a4bb82044E, symObjAddr: 0x150, symBinAddr: 0x5E0A0, symSize: 0x140 }
  - { offsetInCU: 0x1E, offset: 0x274760, size: 0x8, addend: 0x0, symName: __ZN3syn5parse6Parser9parse_str17h595e9c742716ef82E, symObjAddr: 0x0, symBinAddr: 0x5E1E0, symSize: 0x5E0 }
  - { offsetInCU: 0x10CF, offset: 0x275811, size: 0x8, addend: 0x0, symName: '__ZN4core3ptr39drop_in_place$LT$syn..buffer..Entry$GT$17h9feaea0f507eeb5aE', symObjAddr: 0x5E0, symBinAddr: 0x5E7C0, symSize: 0xB1 }
  - { offsetInCU: 0x247B, offset: 0x276BBD, size: 0x8, addend: 0x0, symName: __ZN3syn5parse6Parser9parse_str17h595e9c742716ef82E, symObjAddr: 0x0, symBinAddr: 0x5E1E0, symSize: 0x5E0 }
  - { offsetInCU: 0x1E, offset: 0x2786C6, size: 0x8, addend: 0x0, symName: __ZN4core3fmt5Write9write_fmt17h5dffc8d5878d5cf9E, symObjAddr: 0x0, symBinAddr: 0x5E880, symSize: 0x20 }
  - { offsetInCU: 0x89, offset: 0x278731, size: 0x8, addend: 0x0, symName: '__ZN58_$LT$alloc..string..String$u20$as$u20$core..fmt..Write$GT$10write_char17hd329c0cb943f081aE', symObjAddr: 0x40, symBinAddr: 0x5E8C0, symSize: 0x130 }
  - { offsetInCU: 0x430, offset: 0x278AD8, size: 0x8, addend: 0x0, symName: '__ZN58_$LT$alloc..string..String$u20$as$u20$core..fmt..Write$GT$9write_str17h1ff5aa96ca91c6d5E', symObjAddr: 0x170, symBinAddr: 0x5E9F0, symSize: 0x5B }
  - { offsetInCU: 0x956, offset: 0x278FFE, size: 0x8, addend: 0x0, symName: '__ZN4core3ptr42drop_in_place$LT$alloc..string..String$GT$17h63c6e5dcbf4cc5c0E', symObjAddr: 0x20, symBinAddr: 0x5E8A0, symSize: 0x20 }
  - { offsetInCU: 0xC0C, offset: 0x2792B4, size: 0x8, addend: 0x0, symName: __ZN4core3fmt5Write9write_fmt17h5dffc8d5878d5cf9E, symObjAddr: 0x0, symBinAddr: 0x5E880, symSize: 0x20 }
  - { offsetInCU: 0x6ED, offset: 0x27A42F, size: 0x8, addend: 0x0, symName: '__ZN54_$LT$syn..expr..Member$u20$as$u20$core..hash..Hash$GT$4hash17h7905d453c632e9a2E', symObjAddr: 0x20, symBinAddr: 0x5EA50, symSize: 0x180 }
  - { offsetInCU: 0x2E0F, offset: 0x27D9E3, size: 0x8, addend: 0x0, symName: '__ZN120_$LT$alloc..collections..btree..set..BTreeSet$LT$T$GT$$u20$as$u20$core..iter..traits..collect..FromIterator$LT$T$GT$$GT$9from_iter17hcc3df96bd7b2c524E', symObjAddr: 0x40, symBinAddr: 0x5EBD0, symSize: 0x140 }
  - { offsetInCU: 0x1E, offset: 0x284A5B, size: 0x8, addend: 0x0, symName: '__ZN10proc_macro6bridge100_$LT$impl$u20$proc_macro..bridge..rpc..Encode$LT$S$GT$$u20$for$u20$core..option..Option$LT$T$GT$$GT$6encode17hcbb64cf9a8f74649E', symObjAddr: 0x0, symBinAddr: 0x5ED10, symSize: 0x4F0 }
  - { offsetInCU: 0x286F, offset: 0x2872AC, size: 0x8, addend: 0x0, symName: '__ZN10proc_macro6bridge100_$LT$impl$u20$proc_macro..bridge..rpc..Encode$LT$S$GT$$u20$for$u20$core..option..Option$LT$T$GT$$GT$6encode17hcbb64cf9a8f74649E', symObjAddr: 0x0, symBinAddr: 0x5ED10, symSize: 0x4F0 }
  - { offsetInCU: 0x3138, offset: 0x287B75, size: 0x8, addend: 0x0, symName: '__ZN10proc_macro6bridge100_$LT$impl$u20$proc_macro..bridge..rpc..Encode$LT$S$GT$$u20$for$u20$core..option..Option$LT$T$GT$$GT$6encode17hf1a346954f596b9eE', symObjAddr: 0x4F0, symBinAddr: 0x5F200, symSize: 0x370 }
  - { offsetInCU: 0x405D, offset: 0x288A9A, size: 0x8, addend: 0x0, symName: __ZN5quote9to_tokens8ToTokens17into_token_stream17hc255343f438340c1E, symObjAddr: 0x860, symBinAddr: 0x5F570, symSize: 0x110 }
  - { offsetInCU: 0x35, offset: 0x28EC9D, size: 0x8, addend: 0x0, symName: _anon.a6b67ff7f07a6177ea5d3d84efdfe4c1.3.llvm.8538853271757095686, symObjAddr: 0x580, symBinAddr: 0x280E30, symSize: 0x0 }
  - { offsetInCU: 0x2E2, offset: 0x28EF4A, size: 0x8, addend: 0x0, symName: __ZN10proc_macro6bridge6client10run_client17hc49e7435afcbd5a1E, symObjAddr: 0x210, symBinAddr: 0x5F680, symSize: 0x1B0 }
  - { offsetInCU: 0x802, offset: 0x28F46A, size: 0x8, addend: 0x0, symName: '__ZN4core3ptr52drop_in_place$LT$std..thread..local..AccessError$GT$17h2252f421999e1f30E.llvm.8538853271757095686', symObjAddr: 0x490, symBinAddr: 0x5F830, symSize: 0x6 }
  - { offsetInCU: 0x1E, offset: 0x28FAFC, size: 0x8, addend: 0x0, symName: '__ZN115_$LT$proc_macro2..imp..TokenStream$u20$as$u20$core..iter..traits..collect..Extend$LT$proc_macro2..TokenTree$GT$$GT$6extend17he6e18b41f7fa5984E', symObjAddr: 0x0, symBinAddr: 0x5F840, symSize: 0x110 }
  - { offsetInCU: 0x71F, offset: 0x2901FD, size: 0x8, addend: 0x0, symName: '__ZN115_$LT$proc_macro2..imp..TokenStream$u20$as$u20$core..iter..traits..collect..Extend$LT$proc_macro2..TokenTree$GT$$GT$6extend17he6e18b41f7fa5984E', symObjAddr: 0x0, symBinAddr: 0x5F840, symSize: 0x110 }
  - { offsetInCU: 0x14A2, offset: 0x290F80, size: 0x8, addend: 0x0, symName: '__ZN4core3ptr56drop_in_place$LT$proc_macro2..token_stream..IntoIter$GT$17hb261c0af6314bf4eE.llvm.15879043170576858155', symObjAddr: 0x1D0, symBinAddr: 0x5F950, symSize: 0x20 }
  - { offsetInCU: 0x1E, offset: 0x2912CC, size: 0x8, addend: 0x0, symName: '__ZN10proc_macro6bridge104_$LT$impl$u20$proc_macro..bridge..rpc..Encode$LT$S$GT$$u20$for$u20$core..result..Result$LT$T$C$E$GT$$GT$6encode17h385b6f87f160fd09E', symObjAddr: 0x0, symBinAddr: 0x5F970, symSize: 0x450 }
  - { offsetInCU: 0x16E, offset: 0x29141C, size: 0x8, addend: 0x0, symName: '__ZN10proc_macro6bridge104_$LT$impl$u20$proc_macro..bridge..rpc..Encode$LT$S$GT$$u20$for$u20$core..result..Result$LT$T$C$E$GT$$GT$6encode17h385b6f87f160fd09E', symObjAddr: 0x0, symBinAddr: 0x5F970, symSize: 0x450 }
  - { offsetInCU: 0xA1E, offset: 0x291CCC, size: 0x8, addend: 0x0, symName: '__ZN10proc_macro6bridge104_$LT$impl$u20$proc_macro..bridge..rpc..Encode$LT$S$GT$$u20$for$u20$core..result..Result$LT$T$C$E$GT$$GT$6encode17hc4743e8c3a1913e3E', symObjAddr: 0x450, symBinAddr: 0x5FDC0, symSize: 0x3AD }
  - { offsetInCU: 0x1E, offset: 0x292C6F, size: 0x8, addend: 0x0, symName: '__ZN114_$LT$proc_macro..TokenStream$u20$as$u20$core..iter..traits..collect..FromIterator$LT$proc_macro..TokenTree$GT$$GT$9from_iter17h3b2ab81210444dd9E', symObjAddr: 0x0, symBinAddr: 0x60170, symSize: 0x140 }
  - { offsetInCU: 0x50E, offset: 0x29315F, size: 0x8, addend: 0x0, symName: '__ZN114_$LT$proc_macro..TokenStream$u20$as$u20$core..iter..traits..collect..FromIterator$LT$proc_macro..TokenTree$GT$$GT$9from_iter17h3b2ab81210444dd9E', symObjAddr: 0x0, symBinAddr: 0x60170, symSize: 0x140 }
  - { offsetInCU: 0xD48, offset: 0x293999, size: 0x8, addend: 0x0, symName: '__ZN4core3ptr50drop_in_place$LT$proc_macro..ConcatTreesHelper$GT$17hc23aa61a8ba36f55E.llvm.3974572564204022341', symObjAddr: 0x140, symBinAddr: 0x602B0, symSize: 0x117 }
  - { offsetInCU: 0x1E, offset: 0x294B24, size: 0x8, addend: 0x0, symName: __ZN10proc_macro6bridge14selfless_reify31reify_to_extern_c_fn_hrt_bridge7wrapper17h8b16a8ad78f9d6daE, symObjAddr: 0x0, symBinAddr: 0x603D0, symSize: 0x20 }
  - { offsetInCU: 0x176, offset: 0x294C7C, size: 0x8, addend: 0x0, symName: __ZN10proc_macro6bridge14selfless_reify31reify_to_extern_c_fn_hrt_bridge7wrapper17h8b16a8ad78f9d6daE, symObjAddr: 0x0, symBinAddr: 0x603D0, symSize: 0x20 }
  - { offsetInCU: 0x1E, offset: 0x294EA4, size: 0x8, addend: 0x0, symName: '__ZN4core3ptr45drop_in_place$LT$proc_macro2..TokenStream$GT$17h0753e791e3190ac8E.llvm.7259874148879778349', symObjAddr: 0x0, symBinAddr: 0x603F0, symSize: 0x140 }
  - { offsetInCU: 0xA81, offset: 0x295907, size: 0x8, addend: 0x0, symName: '__ZN4core3ptr45drop_in_place$LT$proc_macro2..TokenStream$GT$17h0753e791e3190ac8E.llvm.7259874148879778349', symObjAddr: 0x0, symBinAddr: 0x603F0, symSize: 0x140 }
  - { offsetInCU: 0x1E, offset: 0x296650, size: 0x8, addend: 0x0, symName: '__ZN4core3ptr45drop_in_place$LT$proc_macro2..TokenStream$GT$17h0753e791e3190ac8E.llvm.17210918841553305290', symObjAddr: 0x0, symBinAddr: 0x60530, symSize: 0x140 }
  - { offsetInCU: 0xA81, offset: 0x2970B3, size: 0x8, addend: 0x0, symName: '__ZN4core3ptr45drop_in_place$LT$proc_macro2..TokenStream$GT$17h0753e791e3190ac8E.llvm.17210918841553305290', symObjAddr: 0x0, symBinAddr: 0x60530, symSize: 0x140 }
  - { offsetInCU: 0x1E, offset: 0x297DFC, size: 0x8, addend: 0x0, symName: __ZN5quote9to_tokens8ToTokens17into_token_stream17hd79cafbea32e8bf7E, symObjAddr: 0x0, symBinAddr: 0x60670, symSize: 0x10A }
  - { offsetInCU: 0x906, offset: 0x2986E4, size: 0x8, addend: 0x0, symName: __ZN5quote9to_tokens8ToTokens17into_token_stream17hd79cafbea32e8bf7E, symObjAddr: 0x0, symBinAddr: 0x60670, symSize: 0x10A }
  - { offsetInCU: 0x1E, offset: 0x2A099C, size: 0x8, addend: 0x0, symName: '__ZN4core3ptr45drop_in_place$LT$proc_macro2..TokenStream$GT$17h0753e791e3190ac8E.llvm.8283764458196702388', symObjAddr: 0x0, symBinAddr: 0x60780, symSize: 0x140 }
  - { offsetInCU: 0xA81, offset: 0x2A13FF, size: 0x8, addend: 0x0, symName: '__ZN4core3ptr45drop_in_place$LT$proc_macro2..TokenStream$GT$17h0753e791e3190ac8E.llvm.8283764458196702388', symObjAddr: 0x0, symBinAddr: 0x60780, symSize: 0x140 }
  - { offsetInCU: 0x1E, offset: 0x2A2148, size: 0x8, addend: 0x0, symName: '__ZN44_$LT$$RF$T$u20$as$u20$core..fmt..Display$GT$3fmt17hdfaf8a8f73e2eee2E', symObjAddr: 0x0, symBinAddr: 0x608C0, symSize: 0x17 }
  - { offsetInCU: 0x64, offset: 0x2A218E, size: 0x8, addend: 0x0, symName: '__ZN44_$LT$$RF$T$u20$as$u20$core..fmt..Display$GT$3fmt17hdfaf8a8f73e2eee2E', symObjAddr: 0x0, symBinAddr: 0x608C0, symSize: 0x17 }
  - { offsetInCU: 0x1E, offset: 0x2A23E7, size: 0x8, addend: 0x0, symName: '__ZN77_$LT$$LP$A$C$B$RP$$u20$as$u20$proc_macro..bridge..rpc..DecodeMut$LT$S$GT$$GT$6decode17he42ce3504beb4e09E', symObjAddr: 0x0, symBinAddr: 0x608E0, symSize: 0xD6 }
  - { offsetInCU: 0xB0, offset: 0x2A2479, size: 0x8, addend: 0x0, symName: '__ZN77_$LT$$LP$A$C$B$RP$$u20$as$u20$proc_macro..bridge..rpc..DecodeMut$LT$S$GT$$GT$6decode17he42ce3504beb4e09E', symObjAddr: 0x0, symBinAddr: 0x608E0, symSize: 0xD6 }
  - { offsetInCU: 0x1E, offset: 0x2A35EA, size: 0x8, addend: 0x0, symName: '__ZN86_$LT$quote..__private..IdentFragmentAdapter$LT$T$GT$$u20$as$u20$core..fmt..Display$GT$3fmt17h3b78b5feeaee2d08E', symObjAddr: 0x0, symBinAddr: 0x609C0, symSize: 0x10 }
  - { offsetInCU: 0x77, offset: 0x2A3643, size: 0x8, addend: 0x0, symName: '__ZN86_$LT$quote..__private..IdentFragmentAdapter$LT$T$GT$$u20$as$u20$core..fmt..Display$GT$3fmt17h3b78b5feeaee2d08E', symObjAddr: 0x0, symBinAddr: 0x609C0, symSize: 0x10 }
  - { offsetInCU: 0xE4, offset: 0x2A36B0, size: 0x8, addend: 0x0, symName: '__ZN86_$LT$quote..__private..IdentFragmentAdapter$LT$T$GT$$u20$as$u20$core..fmt..Display$GT$3fmt17h5900e421f0407568E', symObjAddr: 0x10, symBinAddr: 0x609D0, symSize: 0x10 }
  - { offsetInCU: 0x151, offset: 0x2A371D, size: 0x8, addend: 0x0, symName: '__ZN86_$LT$quote..__private..IdentFragmentAdapter$LT$T$GT$$u20$as$u20$core..fmt..Display$GT$3fmt17ha3d95382889594b6E', symObjAddr: 0x20, symBinAddr: 0x609E0, symSize: 0x10 }
  - { offsetInCU: 0x1BE, offset: 0x2A378A, size: 0x8, addend: 0x0, symName: '__ZN86_$LT$quote..__private..IdentFragmentAdapter$LT$T$GT$$u20$as$u20$core..fmt..Display$GT$3fmt17hbbf827f57b8eaa76E', symObjAddr: 0x30, symBinAddr: 0x609F0, symSize: 0x10 }
  - { offsetInCU: 0x1E, offset: 0x2A4003, size: 0x8, addend: 0x0, symName: '__ZN39_$LT$T$u20$as$u20$syn..token..Token$GT$4peek17hd6ebfb806de25e71E', symObjAddr: 0x0, symBinAddr: 0x60A00, symSize: 0xA }
  - { offsetInCU: 0x6C1, offset: 0x2A46A6, size: 0x8, addend: 0x0, symName: '__ZN39_$LT$T$u20$as$u20$syn..token..Token$GT$4peek17hd6ebfb806de25e71E', symObjAddr: 0x0, symBinAddr: 0x60A00, symSize: 0xA }
  - { offsetInCU: 0x4E7F, offset: 0x2A9B80, size: 0x8, addend: 0x0, symName: '__ZN3syn4item7parsing63_$LT$impl$u20$syn..parse..Parse$u20$for$u20$syn..item..Item$GT$5parse17h2dd33e0a14c1cf15E', symObjAddr: 0xCE00, symBinAddr: 0x6C580, symSize: 0x1D0 }
  - { offsetInCU: 0x546C, offset: 0x2AA16D, size: 0x8, addend: 0x0, symName: '__ZN3syn4item7parsing68_$LT$impl$u20$syn..parse..Parse$u20$for$u20$syn..item..ItemMacro$GT$5parse17hd2dbdd16085cb5b3E', symObjAddr: 0xCFD0, symBinAddr: 0x6C750, symSize: 0x690 }
  - { offsetInCU: 0x60BA, offset: 0x2AADBB, size: 0x8, addend: 0x0, symName: '__ZN3syn4item7parsing74_$LT$impl$u20$syn..parse..Parse$u20$for$u20$syn..item..ItemExternCrate$GT$5parse17h6d92f7f00cd41009E', symObjAddr: 0xD660, symBinAddr: 0x6CDE0, symSize: 0x850 }
  - { offsetInCU: 0x72B0, offset: 0x2ABFB1, size: 0x8, addend: 0x0, symName: '__ZN3syn4item7parsing75_$LT$impl$u20$syn..parse..Parse$u20$for$u20$syn..item..StaticMutability$GT$5parse17haf0db4a36b052efeE', symObjAddr: 0x1E720, symBinAddr: 0x77990, symSize: 0x90 }
  - { offsetInCU: 0x7463, offset: 0x2AC164, size: 0x8, addend: 0x0, symName: '__ZN3syn4item7parsing68_$LT$impl$u20$syn..parse..Parse$u20$for$u20$syn..item..Signature$GT$5parse17h046b786ec6aea09bE', symObjAddr: 0xF5D0, symBinAddr: 0x6D630, symSize: 0xA00 }
  - { offsetInCU: 0x8090, offset: 0x2ACD91, size: 0x8, addend: 0x0, symName: '__ZN3syn4item7parsing67_$LT$impl$u20$syn..parse..Parse$u20$for$u20$syn..item..Receiver$GT$5parse17h14ef46bb1836effbE', symObjAddr: 0x10510, symBinAddr: 0x6E030, symSize: 0xA40 }
  - { offsetInCU: 0x92AF, offset: 0x2ADFB0, size: 0x8, addend: 0x0, symName: '__ZN3syn4item7parsing66_$LT$impl$u20$syn..parse..Parse$u20$for$u20$syn..item..ItemMod$GT$5parse17hdc999b9cf7b8d7bdE', symObjAddr: 0x10F50, symBinAddr: 0x6EA70, symSize: 0xC30 }
  - { offsetInCU: 0xAE6F, offset: 0x2AFB70, size: 0x8, addend: 0x0, symName: '__ZN3syn4item7parsing73_$LT$impl$u20$syn..parse..Parse$u20$for$u20$syn..item..ItemForeignMod$GT$5parse17h6272e3455d73c09eE', symObjAddr: 0x11B80, symBinAddr: 0x6F6A0, symSize: 0x6E0 }
  - { offsetInCU: 0xBCDE, offset: 0x2B09DF, size: 0x8, addend: 0x0, symName: '__ZN3syn4item7parsing70_$LT$impl$u20$syn..parse..Parse$u20$for$u20$syn..item..ForeignItem$GT$5parse17hc264003d8c78165cE', symObjAddr: 0x12260, symBinAddr: 0x6FD80, symSize: 0x1A40 }
  - { offsetInCU: 0x1004C, offset: 0x2B4D4D, size: 0x8, addend: 0x0, symName: '__ZN3syn4item7parsing69_$LT$impl$u20$syn..parse..Parse$u20$for$u20$syn..item..ItemStruct$GT$5parse17h9ee5a6f8e0cb788fE', symObjAddr: 0x15D30, symBinAddr: 0x717C0, symSize: 0x730 }
  - { offsetInCU: 0x10AC7, offset: 0x2B57C8, size: 0x8, addend: 0x0, symName: '__ZN3syn4item7parsing67_$LT$impl$u20$syn..parse..Parse$u20$for$u20$syn..item..ItemEnum$GT$5parse17h3908fae5439ca017E', symObjAddr: 0x16460, symBinAddr: 0x71EF0, symSize: 0x6A0 }
  - { offsetInCU: 0x11540, offset: 0x2B6241, size: 0x8, addend: 0x0, symName: '__ZN3syn4item7parsing68_$LT$impl$u20$syn..parse..Parse$u20$for$u20$syn..item..ItemUnion$GT$5parse17hcf21badb7f5d91b4E', symObjAddr: 0x16B00, symBinAddr: 0x72590, symSize: 0x670 }
  - { offsetInCU: 0x11F9F, offset: 0x2B6CA0, size: 0x8, addend: 0x0, symName: '__ZN3syn4item7parsing68_$LT$impl$u20$syn..parse..Parse$u20$for$u20$syn..item..ItemTrait$GT$5parse17he79f83c126b307abE', symObjAddr: 0x17170, symBinAddr: 0x72C00, symSize: 0x690 }
  - { offsetInCU: 0x12C1B, offset: 0x2B791C, size: 0x8, addend: 0x0, symName: '__ZN3syn4item7parsing68_$LT$impl$u20$syn..parse..Parse$u20$for$u20$syn..item..TraitItem$GT$5parse17ha2b7a47a4118920dE', symObjAddr: 0x17940, symBinAddr: 0x73290, symSize: 0x1D60 }
  - { offsetInCU: 0x18785, offset: 0x2BD486, size: 0x8, addend: 0x0, symName: '__ZN3syn4item7parsing70_$LT$impl$u20$syn..parse..Parse$u20$for$u20$syn..item..TraitItemFn$GT$5parse17h2bd112e785c11adaE', symObjAddr: 0x1A020, symBinAddr: 0x74FF0, symSize: 0x9A0 }
  - { offsetInCU: 0x19EA6, offset: 0x2BEBA7, size: 0x8, addend: 0x0, symName: '__ZN3syn4item7parsing67_$LT$impl$u20$syn..parse..Parse$u20$for$u20$syn..item..ImplItem$GT$5parse17h7e88a76fe14f8010E', symObjAddr: 0x1B2D0, symBinAddr: 0x75990, symSize: 0x1CD0 }
  - { offsetInCU: 0x1F01B, offset: 0x2C3D1C, size: 0x8, addend: 0x0, symName: '__ZN3syn4item7parsing72_$LT$impl$u20$syn..parse..Parse$u20$for$u20$syn..item..ImplItemMacro$GT$5parse17h0ef0a527c904192aE', symObjAddr: 0x1E3F0, symBinAddr: 0x77660, symSize: 0x0 }
  - { offsetInCU: 0x1F682, offset: 0x2C4383, size: 0x8, addend: 0x0, symName: '__ZN3syn4item8printing83_$LT$impl$u20$quote..to_tokens..ToTokens$u20$for$u20$syn..item..ItemExternCrate$GT$9to_tokens17h3856a361ae758360E', symObjAddr: 0x1E7B0, symBinAddr: 0x77A20, symSize: 0x250 }
  - { offsetInCU: 0x1FC65, offset: 0x2C4966, size: 0x8, addend: 0x0, symName: '__ZN3syn4item8printing78_$LT$impl$u20$quote..to_tokens..ToTokens$u20$for$u20$syn..item..ItemStatic$GT$9to_tokens17h415e4cd72a569389E', symObjAddr: 0x1EBA0, symBinAddr: 0x77C70, symSize: 0x230 }
  - { offsetInCU: 0x201CC, offset: 0x2C4ECD, size: 0x8, addend: 0x0, symName: '__ZN3syn4item8printing74_$LT$impl$u20$quote..to_tokens..ToTokens$u20$for$u20$syn..item..ItemFn$GT$9to_tokens17h8cdf913637011784E', symObjAddr: 0x1EFA0, symBinAddr: 0x77EA0, symSize: 0x3A0 }
  - { offsetInCU: 0x20B6B, offset: 0x2C586C, size: 0x8, addend: 0x0, symName: '__ZN3syn4item8printing75_$LT$impl$u20$quote..to_tokens..ToTokens$u20$for$u20$syn..item..ItemMod$GT$9to_tokens17h22b2effb376191d4E', symObjAddr: 0x1F340, symBinAddr: 0x78240, symSize: 0x240 }
  - { offsetInCU: 0x210E2, offset: 0x2C5DE3, size: 0x8, addend: 0x0, symName: '__ZN3syn4item8printing78_$LT$impl$u20$quote..to_tokens..ToTokens$u20$for$u20$syn..item..ItemStruct$GT$9to_tokens17h37d4984ce3001d19E', symObjAddr: 0x1FA90, symBinAddr: 0x78480, symSize: 0x230 }
  - { offsetInCU: 0x21503, offset: 0x2C6204, size: 0x8, addend: 0x0, symName: '__ZN3syn4item8printing77_$LT$impl$u20$quote..to_tokens..ToTokens$u20$for$u20$syn..item..ItemTrait$GT$9to_tokens17h5df32068ce60d15cE', symObjAddr: 0x1FE50, symBinAddr: 0x786B0, symSize: 0x350 }
  - { offsetInCU: 0x21E8F, offset: 0x2C6B90, size: 0x8, addend: 0x0, symName: '__ZN3syn4item8printing82_$LT$impl$u20$quote..to_tokens..ToTokens$u20$for$u20$syn..item..ItemTraitAlias$GT$9to_tokens17hc929f21bb6c5846dE', symObjAddr: 0x201A0, symBinAddr: 0x78A00, symSize: 0x240 }
  - { offsetInCU: 0x224D3, offset: 0x2C71D4, size: 0x8, addend: 0x0, symName: '__ZN3syn4item8printing76_$LT$impl$u20$quote..to_tokens..ToTokens$u20$for$u20$syn..item..ItemImpl$GT$9to_tokens17hbc6239c00e6682fbE', symObjAddr: 0x203E0, symBinAddr: 0x78C40, symSize: 0x300 }
  - { offsetInCU: 0x22C5E, offset: 0x2C795F, size: 0x8, addend: 0x0, symName: '__ZN3syn4item8printing77_$LT$impl$u20$quote..to_tokens..ToTokens$u20$for$u20$syn..item..ItemMacro$GT$9to_tokens17hebd52fd8a1615986E', symObjAddr: 0x206E0, symBinAddr: 0x78F40, symSize: 0x180 }
  - { offsetInCU: 0x2300A, offset: 0x2C7D0B, size: 0x8, addend: 0x0, symName: '__ZN3syn4item8printing82_$LT$impl$u20$quote..to_tokens..ToTokens$u20$for$u20$syn..item..TraitItemConst$GT$9to_tokens17h089a36b809968ef3E', symObjAddr: 0x209B0, symBinAddr: 0x790C0, symSize: 0x1D0 }
  - { offsetInCU: 0x23395, offset: 0x2C8096, size: 0x8, addend: 0x0, symName: '__ZN3syn4item8printing79_$LT$impl$u20$quote..to_tokens..ToTokens$u20$for$u20$syn..item..TraitItemFn$GT$9to_tokens17haad3b80ba26c3976E', symObjAddr: 0x20B80, symBinAddr: 0x79290, symSize: 0x420 }
  - { offsetInCU: 0x23DD3, offset: 0x2C8AD4, size: 0x8, addend: 0x0, symName: '__ZN3syn4item8printing81_$LT$impl$u20$quote..to_tokens..ToTokens$u20$for$u20$syn..item..TraitItemType$GT$9to_tokens17h64c3182d37c64beaE', symObjAddr: 0x20FA0, symBinAddr: 0x796B0, symSize: 0x2B0 }
  - { offsetInCU: 0x24519, offset: 0x2C921A, size: 0x8, addend: 0x0, symName: '__ZN3syn4item8printing81_$LT$impl$u20$quote..to_tokens..ToTokens$u20$for$u20$syn..item..ImplItemConst$GT$9to_tokens17hf0f4212b62d7bc92E', symObjAddr: 0x21250, symBinAddr: 0x79960, symSize: 0x250 }
  - { offsetInCU: 0x249C9, offset: 0x2C96CA, size: 0x8, addend: 0x0, symName: '__ZN3syn4item8printing78_$LT$impl$u20$quote..to_tokens..ToTokens$u20$for$u20$syn..item..ImplItemFn$GT$9to_tokens17hd72deb71e24247ddE', symObjAddr: 0x214A0, symBinAddr: 0x79BB0, symSize: 0x410 }
  - { offsetInCU: 0x254BD, offset: 0x2CA1BE, size: 0x8, addend: 0x0, symName: '__ZN3syn4item8printing80_$LT$impl$u20$quote..to_tokens..ToTokens$u20$for$u20$syn..item..ImplItemType$GT$9to_tokens17h633e35cead6fe332E', symObjAddr: 0x218B0, symBinAddr: 0x79FC0, symSize: 0x240 }
  - { offsetInCU: 0x259A3, offset: 0x2CA6A4, size: 0x8, addend: 0x0, symName: '__ZN3syn4item8printing81_$LT$impl$u20$quote..to_tokens..ToTokens$u20$for$u20$syn..item..ForeignItemFn$GT$9to_tokens17hf978c504af4624b9E', symObjAddr: 0x21C00, symBinAddr: 0x7A200, symSize: 0x3C0 }
  - { offsetInCU: 0x2636A, offset: 0x2CB06B, size: 0x8, addend: 0x0, symName: '__ZN3syn4item8printing85_$LT$impl$u20$quote..to_tokens..ToTokens$u20$for$u20$syn..item..ForeignItemStatic$GT$9to_tokens17h6dca73543b11328bE', symObjAddr: 0x21FC0, symBinAddr: 0x7A5C0, symSize: 0x210 }
  - { offsetInCU: 0x26852, offset: 0x2CB553, size: 0x8, addend: 0x0, symName: '__ZN3syn4item8printing76_$LT$impl$u20$quote..to_tokens..ToTokens$u20$for$u20$syn..item..Receiver$GT$9to_tokens17hb998d2cc4ddf9c5aE', symObjAddr: 0x22650, symBinAddr: 0x7A7D0, symSize: 0x2F0 }
  - { offsetInCU: 0x27015, offset: 0x2CBD16, size: 0x8, addend: 0x0, symName: '__ZN3syn4item8printing76_$LT$impl$u20$quote..to_tokens..ToTokens$u20$for$u20$syn..item..Variadic$GT$9to_tokens17h395edb0d0a0434c1E', symObjAddr: 0x22940, symBinAddr: 0x7AAC0, symSize: 0x150 }
  - { offsetInCU: 0x2734C, offset: 0x2CC04D, size: 0x8, addend: 0x0, symName: '__ZN62_$LT$syn..item..Item$u20$as$u20$quote..to_tokens..ToTokens$GT$9to_tokens17h16b724a3317228f3E', symObjAddr: 0x22B20, symBinAddr: 0x7AC10, symSize: 0xB70 }
  - { offsetInCU: 0x289C4, offset: 0x2CD6C5, size: 0x8, addend: 0x0, symName: '__ZN65_$LT$syn..item..UseTree$u20$as$u20$quote..to_tokens..ToTokens$GT$9to_tokens17h058bd86238a4a925E', symObjAddr: 0x23690, symBinAddr: 0x7B780, symSize: 0x300 }
  - { offsetInCU: 0x29281, offset: 0x2CDF82, size: 0x8, addend: 0x0, symName: '__ZN69_$LT$syn..item..ForeignItem$u20$as$u20$quote..to_tokens..ToTokens$GT$9to_tokens17ha60ee0587a491822E', symObjAddr: 0x23990, symBinAddr: 0x7BA80, symSize: 0x320 }
  - { offsetInCU: 0x29829, offset: 0x2CE52A, size: 0x8, addend: 0x0, symName: '__ZN67_$LT$syn..item..TraitItem$u20$as$u20$quote..to_tokens..ToTokens$GT$9to_tokens17hd73ca22881a357f6E', symObjAddr: 0x23CB0, symBinAddr: 0x7BDA0, symSize: 0x1B0 }
  - { offsetInCU: 0x29B02, offset: 0x2CE803, size: 0x8, addend: 0x0, symName: '__ZN66_$LT$syn..item..ImplItem$u20$as$u20$quote..to_tokens..ToTokens$GT$9to_tokens17h8caf1b608d7ccb4bE', symObjAddr: 0x23E60, symBinAddr: 0x7BF50, symSize: 0x1B0 }
  - { offsetInCU: 0x2A025, offset: 0x2CED26, size: 0x8, addend: 0x0, symName: '__ZN3syn3gen5clone71_$LT$impl$u20$core..clone..Clone$u20$for$u20$syn..item..ForeignItem$GT$5clone17h1c1af2fb1e22cf37E', symObjAddr: 0x240B0, symBinAddr: 0x7C100, symSize: 0x2B0 }
  - { offsetInCU: 0x2A43D, offset: 0x2CF13E, size: 0x8, addend: 0x0, symName: '__ZN3syn3gen5clone77_$LT$impl$u20$core..clone..Clone$u20$for$u20$syn..item..ForeignItemStatic$GT$5clone17h9025ae3b0e2de955E', symObjAddr: 0x24450, symBinAddr: 0x7C3B0, symSize: 0x1E0 }
  - { offsetInCU: 0x2A950, offset: 0x2CF651, size: 0x8, addend: 0x0, symName: '__ZN3syn3gen5clone75_$LT$impl$u20$core..clone..Clone$u20$for$u20$syn..item..ForeignItemType$GT$5clone17h01954e3b9fb9f725E', symObjAddr: 0x24630, symBinAddr: 0x7C590, symSize: 0x250 }
  - { offsetInCU: 0x2ACD2, offset: 0x2CF9D3, size: 0x8, addend: 0x0, symName: '__ZN3syn3gen5clone68_$LT$impl$u20$core..clone..Clone$u20$for$u20$syn..item..ImplItem$GT$5clone17hbbdbceaa9dc75fb8E', symObjAddr: 0x24880, symBinAddr: 0x7C7E0, symSize: 0x1F0 }
  - { offsetInCU: 0x2B044, offset: 0x2CFD45, size: 0x8, addend: 0x0, symName: '__ZN3syn3gen5clone73_$LT$impl$u20$core..clone..Clone$u20$for$u20$syn..item..ImplItemConst$GT$5clone17h5bada8c903397ea9E', symObjAddr: 0x24A70, symBinAddr: 0x7C9D0, symSize: 0x390 }
  - { offsetInCU: 0x2B416, offset: 0x2D0117, size: 0x8, addend: 0x0, symName: '__ZN3syn3gen5clone70_$LT$impl$u20$core..clone..Clone$u20$for$u20$syn..item..ImplItemFn$GT$5clone17h569fe64371aceabcE', symObjAddr: 0x24E00, symBinAddr: 0x7CD60, symSize: 0x190 }
  - { offsetInCU: 0x2B499, offset: 0x2D019A, size: 0x8, addend: 0x0, symName: '__ZN3syn3gen5clone72_$LT$impl$u20$core..clone..Clone$u20$for$u20$syn..item..ImplItemType$GT$5clone17h1322b0329e89fcb7E', symObjAddr: 0x25020, symBinAddr: 0x7CEF0, symSize: 0x340 }
  - { offsetInCU: 0x2B83D, offset: 0x2D053E, size: 0x8, addend: 0x0, symName: '__ZN3syn3gen5clone64_$LT$impl$u20$core..clone..Clone$u20$for$u20$syn..item..Item$GT$5clone17h3822ba1a7b611a95E', symObjAddr: 0x25360, symBinAddr: 0x7D230, symSize: 0x3E0 }
  - { offsetInCU: 0x2BCCA, offset: 0x2D09CB, size: 0x8, addend: 0x0, symName: '__ZN3syn3gen5clone69_$LT$impl$u20$core..clone..Clone$u20$for$u20$syn..item..ItemConst$GT$5clone17hf94d4c0cb1435c70E', symObjAddr: 0x25740, symBinAddr: 0x7D610, symSize: 0x3F0 }
  - { offsetInCU: 0x2C527, offset: 0x2D1228, size: 0x8, addend: 0x0, symName: '__ZN3syn3gen5clone68_$LT$impl$u20$core..clone..Clone$u20$for$u20$syn..item..ItemEnum$GT$5clone17h6464ab27732649f4E', symObjAddr: 0x25B30, symBinAddr: 0x7DA00, symSize: 0x2F0 }
  - { offsetInCU: 0x2C856, offset: 0x2D1557, size: 0x8, addend: 0x0, symName: '__ZN3syn3gen5clone75_$LT$impl$u20$core..clone..Clone$u20$for$u20$syn..item..ItemExternCrate$GT$5clone17hd0b8bc33744042bfE', symObjAddr: 0x25E20, symBinAddr: 0x7DCF0, symSize: 0x190 }
  - { offsetInCU: 0x2CBCB, offset: 0x2D18CC, size: 0x8, addend: 0x0, symName: '__ZN3syn3gen5clone66_$LT$impl$u20$core..clone..Clone$u20$for$u20$syn..item..ItemFn$GT$5clone17hdd17c93ecf7b0462E', symObjAddr: 0x25FB0, symBinAddr: 0x7DE80, symSize: 0x1A0 }
  - { offsetInCU: 0x2CE7A, offset: 0x2D1B7B, size: 0x8, addend: 0x0, symName: '__ZN3syn3gen5clone74_$LT$impl$u20$core..clone..Clone$u20$for$u20$syn..item..ItemForeignMod$GT$5clone17hd37d574f73aedecaE', symObjAddr: 0x26150, symBinAddr: 0x7E020, symSize: 0xF0 }
  - { offsetInCU: 0x2CFC4, offset: 0x2D1CC5, size: 0x8, addend: 0x0, symName: '__ZN3syn3gen5clone68_$LT$impl$u20$core..clone..Clone$u20$for$u20$syn..item..ItemImpl$GT$5clone17h661327ebe729eaadE', symObjAddr: 0x26240, symBinAddr: 0x7E110, symSize: 0x400 }
  - { offsetInCU: 0x2D4B2, offset: 0x2D21B3, size: 0x8, addend: 0x0, symName: '__ZN3syn3gen5clone69_$LT$impl$u20$core..clone..Clone$u20$for$u20$syn..item..ItemMacro$GT$5clone17h3526bbfccdbd5b31E', symObjAddr: 0x26640, symBinAddr: 0x7E510, symSize: 0x110 }
  - { offsetInCU: 0x2D71D, offset: 0x2D241E, size: 0x8, addend: 0x0, symName: '__ZN3syn3gen5clone67_$LT$impl$u20$core..clone..Clone$u20$for$u20$syn..item..ItemMod$GT$5clone17h8794abff9978c514E', symObjAddr: 0x26750, symBinAddr: 0x7E620, symSize: 0x1D0 }
  - { offsetInCU: 0x2DA25, offset: 0x2D2726, size: 0x8, addend: 0x0, symName: '__ZN3syn3gen5clone70_$LT$impl$u20$core..clone..Clone$u20$for$u20$syn..item..ItemStatic$GT$5clone17h61a9dbf1056765ccE', symObjAddr: 0x26920, symBinAddr: 0x7E7F0, symSize: 0x290 }
  - { offsetInCU: 0x2E1AB, offset: 0x2D2EAC, size: 0x8, addend: 0x0, symName: '__ZN3syn3gen5clone70_$LT$impl$u20$core..clone..Clone$u20$for$u20$syn..item..ItemStruct$GT$5clone17heb954f61bacea375E', symObjAddr: 0x26BB0, symBinAddr: 0x7EA80, symSize: 0x380 }
  - { offsetInCU: 0x2E579, offset: 0x2D327A, size: 0x8, addend: 0x0, symName: '__ZN3syn3gen5clone69_$LT$impl$u20$core..clone..Clone$u20$for$u20$syn..item..ItemTrait$GT$5clone17h82453ad16e043bb6E', symObjAddr: 0x26F30, symBinAddr: 0x7EE00, symSize: 0x3A0 }
  - { offsetInCU: 0x2E918, offset: 0x2D3619, size: 0x8, addend: 0x0, symName: '__ZN3syn3gen5clone74_$LT$impl$u20$core..clone..Clone$u20$for$u20$syn..item..ItemTraitAlias$GT$5clone17h5350a93e40fedfe9E', symObjAddr: 0x272D0, symBinAddr: 0x7F1A0, symSize: 0x2F0 }
  - { offsetInCU: 0x2ECA3, offset: 0x2D39A4, size: 0x8, addend: 0x0, symName: '__ZN3syn3gen5clone68_$LT$impl$u20$core..clone..Clone$u20$for$u20$syn..item..ItemType$GT$5clone17hb9556c5f3da70cdaE', symObjAddr: 0x275C0, symBinAddr: 0x7F490, symSize: 0x330 }
  - { offsetInCU: 0x2F28B, offset: 0x2D3F8C, size: 0x8, addend: 0x0, symName: '__ZN3syn3gen5clone69_$LT$impl$u20$core..clone..Clone$u20$for$u20$syn..item..ItemUnion$GT$5clone17hb2c9b467b08be8acE', symObjAddr: 0x278F0, symBinAddr: 0x7F7C0, symSize: 0x340 }
  - { offsetInCU: 0x2F5D9, offset: 0x2D42DA, size: 0x8, addend: 0x0, symName: '__ZN3syn3gen5clone67_$LT$impl$u20$core..clone..Clone$u20$for$u20$syn..item..ItemUse$GT$5clone17h5fb5ac7ab331a1f9E', symObjAddr: 0x27C30, symBinAddr: 0x7FB00, symSize: 0x130 }
  - { offsetInCU: 0x2F699, offset: 0x2D439A, size: 0x8, addend: 0x0, symName: '__ZN3syn3gen5clone68_$LT$impl$u20$core..clone..Clone$u20$for$u20$syn..item..Receiver$GT$5clone17he1632aad4eb00ea9E', symObjAddr: 0x27D60, symBinAddr: 0x7FC30, symSize: 0x1C0 }
  - { offsetInCU: 0x2FB1F, offset: 0x2D4820, size: 0x8, addend: 0x0, symName: '__ZN3syn3gen5clone69_$LT$impl$u20$core..clone..Clone$u20$for$u20$syn..item..Signature$GT$5clone17hcd624a7329112f28E', symObjAddr: 0x27F20, symBinAddr: 0x7FDF0, symSize: 0x550 }
  - { offsetInCU: 0x302EE, offset: 0x2D4FEF, size: 0x8, addend: 0x0, symName: '__ZN3syn3gen5clone69_$LT$impl$u20$core..clone..Clone$u20$for$u20$syn..item..TraitItem$GT$5clone17h91969da39aa9081aE', symObjAddr: 0x28470, symBinAddr: 0x80340, symSize: 0x1F0 }
  - { offsetInCU: 0x30660, offset: 0x2D5361, size: 0x8, addend: 0x0, symName: '__ZN3syn3gen5clone74_$LT$impl$u20$core..clone..Clone$u20$for$u20$syn..item..TraitItemConst$GT$5clone17h7b25f837a5eddbbaE', symObjAddr: 0x28660, symBinAddr: 0x80530, symSize: 0x350 }
  - { offsetInCU: 0x30A3C, offset: 0x2D573D, size: 0x8, addend: 0x0, symName: '__ZN3syn3gen5clone71_$LT$impl$u20$core..clone..Clone$u20$for$u20$syn..item..TraitItemFn$GT$5clone17h6b12e4721dd5a3afE', symObjAddr: 0x289B0, symBinAddr: 0x80880, symSize: 0x140 }
  - { offsetInCU: 0x30B05, offset: 0x2D5806, size: 0x8, addend: 0x0, symName: '__ZN3syn3gen5clone73_$LT$impl$u20$core..clone..Clone$u20$for$u20$syn..item..TraitItemType$GT$5clone17h03e91f5baa26948fE', symObjAddr: 0x28AF0, symBinAddr: 0x809C0, symSize: 0x360 }
  - { offsetInCU: 0x30F92, offset: 0x2D5C93, size: 0x8, addend: 0x0, symName: '__ZN3syn3gen5clone67_$LT$impl$u20$core..clone..Clone$u20$for$u20$syn..item..UseTree$GT$5clone17hecc6e062c969de2cE', symObjAddr: 0x29140, symBinAddr: 0x80D20, symSize: 0x390 }
  - { offsetInCU: 0x319B5, offset: 0x2D66B6, size: 0x8, addend: 0x0, symName: '__ZN3syn3gen5clone68_$LT$impl$u20$core..clone..Clone$u20$for$u20$syn..item..Variadic$GT$5clone17h5d88b3ac0ece19b6E', symObjAddr: 0x294D0, symBinAddr: 0x810B0, symSize: 0x110 }
  - { offsetInCU: 0x34215, offset: 0x2D8F16, size: 0x8, addend: 0x0, symName: '__ZN4core3ptr100drop_in_place$LT$core..option..Option$LT$alloc..boxed..Box$LT$syn..path..GenericArgument$GT$$GT$$GT$17h7435c9de74860622E', symObjAddr: 0x300, symBinAddr: 0x60A60, symSize: 0x50 }
  - { offsetInCU: 0x345B5, offset: 0x2D92B6, size: 0x8, addend: 0x0, symName: '__ZN4core3ptr100drop_in_place$LT$syn..punctuated..Punctuated$LT$syn..path..PathSegment$C$syn..token..PathSep$GT$$GT$17hf414cb3581f8337aE', symObjAddr: 0x350, symBinAddr: 0x60AB0, symSize: 0x260 }
  - { offsetInCU: 0x34F4E, offset: 0x2D9C4F, size: 0x8, addend: 0x0, symName: '__ZN4core3ptr103drop_in_place$LT$core..option..Option$LT$alloc..boxed..Box$LT$syn..generics..TypeParamBound$GT$$GT$$GT$17h5974f03e36b1a9c3E', symObjAddr: 0x5C0, symBinAddr: 0x60D10, symSize: 0x50 }
  - { offsetInCU: 0x35199, offset: 0x2D9E9A, size: 0x8, addend: 0x0, symName: '__ZN4core3ptr103drop_in_place$LT$core..option..Option$LT$alloc..boxed..Box$LT$syn..generics..WherePredicate$GT$$GT$$GT$17hdd5111a374d8d6f2E', symObjAddr: 0x610, symBinAddr: 0x60D60, symSize: 0xD0 }
  - { offsetInCU: 0x3552C, offset: 0x2DA22D, size: 0x8, addend: 0x0, symName: '__ZN4core3ptr103drop_in_place$LT$syn..punctuated..Punctuated$LT$syn..generics..GenericParam$C$syn..token..Comma$GT$$GT$17hf42353fa44ed6da8E', symObjAddr: 0x6E0, symBinAddr: 0x60E30, symSize: 0xF0 }
  - { offsetInCU: 0x35992, offset: 0x2DA693, size: 0x8, addend: 0x0, symName: '__ZN4core3ptr104drop_in_place$LT$syn..punctuated..Punctuated$LT$syn..generics..TypeParamBound$C$syn..token..Plus$GT$$GT$17h532f52c4a894b056E', symObjAddr: 0x7D0, symBinAddr: 0x60F20, symSize: 0x190 }
  - { offsetInCU: 0x35FA8, offset: 0x2DACA9, size: 0x8, addend: 0x0, symName: '__ZN4core3ptr107drop_in_place$LT$$LP$syn..restriction..Visibility$C$core..option..Option$LT$syn..token..Default$GT$$RP$$GT$17h8ea01d3f0e99b7f1E', symObjAddr: 0x960, symBinAddr: 0x610B0, symSize: 0x60 }
  - { offsetInCU: 0x36177, offset: 0x2DAE78, size: 0x8, addend: 0x0, symName: '__ZN4core3ptr115drop_in_place$LT$core..option..Option$LT$$LP$alloc..boxed..Box$LT$syn..pat..Pat$GT$$C$syn..token..Colon$RP$$GT$$GT$17he854acc3c4717d92E', symObjAddr: 0x9C0, symBinAddr: 0x61110, symSize: 0x50 }
  - { offsetInCU: 0x3634B, offset: 0x2DB04C, size: 0x8, addend: 0x0, symName: '__ZN4core3ptr115drop_in_place$LT$core..option..Option$LT$$LP$syn..token..Brace$C$alloc..vec..Vec$LT$syn..item..Item$GT$$RP$$GT$$GT$17h6df5bf3d47177236E', symObjAddr: 0xA10, symBinAddr: 0x61160, symSize: 0xE0 }
  - { offsetInCU: 0x365F2, offset: 0x2DB2F3, size: 0x8, addend: 0x0, symName: '__ZN4core3ptr126drop_in_place$LT$core..option..Option$LT$$LP$syn..token..And$C$core..option..Option$LT$syn..lifetime..Lifetime$GT$$RP$$GT$$GT$17hc269ac95805979aaE', symObjAddr: 0xAF0, symBinAddr: 0x61240, symSize: 0x30 }
  - { offsetInCU: 0x368A1, offset: 0x2DB5A2, size: 0x8, addend: 0x0, symName: '__ZN4core3ptr34drop_in_place$LT$syn..lit..Lit$GT$17h8902f5ff67917034E', symObjAddr: 0xBA0, symBinAddr: 0x61270, symSize: 0x110 }
  - { offsetInCU: 0x36DDB, offset: 0x2DBADC, size: 0x8, addend: 0x0, symName: '__ZN4core3ptr34drop_in_place$LT$syn..pat..Pat$GT$17h4581eea028ec0969E', symObjAddr: 0xCB0, symBinAddr: 0x61380, symSize: 0x1000 }
  - { offsetInCU: 0x3A865, offset: 0x2DF566, size: 0x8, addend: 0x0, symName: '__ZN4core3ptr34drop_in_place$LT$syn..ty..Type$GT$17h369e41ad4a9f1ae0E', symObjAddr: 0x1CB0, symBinAddr: 0x62380, symSize: 0x500 }
  - { offsetInCU: 0x3BDE0, offset: 0x2E0AE1, size: 0x8, addend: 0x0, symName: '__ZN4core3ptr36drop_in_place$LT$syn..expr..Expr$GT$17h0f7fd4c749bae801E', symObjAddr: 0x21B0, symBinAddr: 0x62880, symSize: 0x28E0 }
  - { offsetInCU: 0x456AF, offset: 0x2EA3B0, size: 0x8, addend: 0x0, symName: '__ZN4core3ptr36drop_in_place$LT$syn..item..Item$GT$17h13f5a53479ba6379E', symObjAddr: 0x4A90, symBinAddr: 0x65160, symSize: 0x1990 }
  - { offsetInCU: 0x4B35A, offset: 0x2F005B, size: 0x8, addend: 0x0, symName: '__ZN4core3ptr36drop_in_place$LT$syn..mac..Macro$GT$17h4ffde962df30ebe2E', symObjAddr: 0x6420, symBinAddr: 0x66AF0, symSize: 0x40 }
  - { offsetInCU: 0x4B394, offset: 0x2F0095, size: 0x8, addend: 0x0, symName: '__ZN4core3ptr36drop_in_place$LT$syn..path..Path$GT$17habea856181211e1cE', symObjAddr: 0x6460, symBinAddr: 0x66B30, symSize: 0x220 }
  - { offsetInCU: 0x4BCC9, offset: 0x2F09CA, size: 0x8, addend: 0x0, symName: '__ZN4core3ptr37drop_in_place$LT$syn..stmt..Block$GT$17hcc21a21cf949414cE', symObjAddr: 0x6680, symBinAddr: 0x66D50, symSize: 0xD0 }
  - { offsetInCU: 0x4BF8C, offset: 0x2F0C8D, size: 0x8, addend: 0x0, symName: '__ZN4core3ptr38drop_in_place$LT$syn..data..Fields$GT$17h1dd1b203befc1316E', symObjAddr: 0x6750, symBinAddr: 0x66E20, symSize: 0x190 }
  - { offsetInCU: 0x4C3AA, offset: 0x2F10AB, size: 0x8, addend: 0x0, symName: '__ZN4core3ptr38drop_in_place$LT$syn..expr..Member$GT$17h022cbe5553aa40faE', symObjAddr: 0x68E0, symBinAddr: 0x66FB0, symSize: 0x30 }
  - { offsetInCU: 0x4C4A7, offset: 0x2F11A8, size: 0x8, addend: 0x0, symName: '__ZN4core3ptr38drop_in_place$LT$syn..pat..PatType$GT$17hcbbce80a195201a4E.llvm.3361240308741372715', symObjAddr: 0x6910, symBinAddr: 0x66FE0, symSize: 0x140 }
  - { offsetInCU: 0x4C9EF, offset: 0x2F16F0, size: 0x8, addend: 0x0, symName: '__ZN4core3ptr39drop_in_place$LT$proc_macro2..Ident$GT$17h8101e88c3ac359d6E', symObjAddr: 0x6A50, symBinAddr: 0x67120, symSize: 0x30 }
  - { offsetInCU: 0x4CB49, offset: 0x2F184A, size: 0x8, addend: 0x0, symName: '__ZN4core3ptr39drop_in_place$LT$syn..item..UseTree$GT$17h5b1281a5704d139dE', symObjAddr: 0x6B00, symBinAddr: 0x67150, symSize: 0xD0 }
  - { offsetInCU: 0x4CF5B, offset: 0x2F1C5C, size: 0x8, addend: 0x0, symName: '__ZN4core3ptr40drop_in_place$LT$syn..item..ImplItem$GT$17he2e6e8f15695ea55E', symObjAddr: 0x6BD0, symBinAddr: 0x67220, symSize: 0x5E0 }
  - { offsetInCU: 0x4E026, offset: 0x2F2D27, size: 0x8, addend: 0x0, symName: '__ZN4core3ptr40drop_in_place$LT$syn..item..Receiver$GT$17h6743a41cd869c536E.llvm.3361240308741372715', symObjAddr: 0x71B0, symBinAddr: 0x67800, symSize: 0x130 }
  - { offsetInCU: 0x4E5B9, offset: 0x2F32BA, size: 0x8, addend: 0x0, symName: '__ZN4core3ptr40drop_in_place$LT$syn..item..Variadic$GT$17h856c1da4a3922974E', symObjAddr: 0x72F0, symBinAddr: 0x67930, symSize: 0x120 }
  - { offsetInCU: 0x4E9E5, offset: 0x2F36E6, size: 0x8, addend: 0x0, symName: '__ZN4core3ptr40drop_in_place$LT$syn..ty..ReturnType$GT$17h02cf41e2fec63d90E', symObjAddr: 0x7410, symBinAddr: 0x67A50, symSize: 0x50 }
  - { offsetInCU: 0x4EB57, offset: 0x2F3858, size: 0x8, addend: 0x0, symName: '__ZN4core3ptr41drop_in_place$LT$syn..expr..ExprConst$GT$17h725a13e551d9f276E', symObjAddr: 0x7460, symBinAddr: 0x67AA0, symSize: 0x180 }
  - { offsetInCU: 0x4F0CB, offset: 0x2F3DCC, size: 0x8, addend: 0x0, symName: '__ZN4core3ptr41drop_in_place$LT$syn..item..Signature$GT$17h691f115807a5d1eeE', symObjAddr: 0x75E0, symBinAddr: 0x67C20, symSize: 0x160 }
  - { offsetInCU: 0x4F7D1, offset: 0x2F44D2, size: 0x8, addend: 0x0, symName: '__ZN4core3ptr41drop_in_place$LT$syn..item..TraitItem$GT$17hb6f9fbcba8fdea85E', symObjAddr: 0x7740, symBinAddr: 0x67D80, symSize: 0x6E0 }
  - { offsetInCU: 0x50AB8, offset: 0x2F57B9, size: 0x8, addend: 0x0, symName: '__ZN4core3ptr42drop_in_place$LT$syn..item..ImplItemFn$GT$17h753bae801f2662d9E', symObjAddr: 0x7E70, symBinAddr: 0x68460, symSize: 0x200 }
  - { offsetInCU: 0x51188, offset: 0x2F5E89, size: 0x8, addend: 0x0, symName: '__ZN4core3ptr43drop_in_place$LT$syn..data..FieldsNamed$GT$17hb2a97e73a85352cbE', symObjAddr: 0x8070, symBinAddr: 0x68660, symSize: 0xE0 }
  - { offsetInCU: 0x514F3, offset: 0x2F61F4, size: 0x8, addend: 0x0, symName: '__ZN4core3ptr43drop_in_place$LT$syn..item..ForeignItem$GT$17h1398b9aa0a6e4c9dE', symObjAddr: 0x8150, symBinAddr: 0x68740, symSize: 0x610 }
  - { offsetInCU: 0x529E5, offset: 0x2F76E6, size: 0x8, addend: 0x0, symName: '__ZN4core3ptr44drop_in_place$LT$syn..generics..Generics$GT$17h10dea28dec64f81eE', symObjAddr: 0x8760, symBinAddr: 0x68D50, symSize: 0x40 }
  - { offsetInCU: 0x52A02, offset: 0x2F7703, size: 0x8, addend: 0x0, symName: '__ZN4core3ptr44drop_in_place$LT$syn..lifetime..Lifetime$GT$17hf0cdec2e9ec456d6E', symObjAddr: 0x87A0, symBinAddr: 0x68D90, symSize: 0x30 }
  - { offsetInCU: 0x52B7B, offset: 0x2F787C, size: 0x8, addend: 0x0, symName: '__ZN4core3ptr44drop_in_place$LT$syn..parse..ParseBuffer$GT$17hd0dadba44a19aec2E.llvm.3361240308741372715', symObjAddr: 0x87D0, symBinAddr: 0x68DC0, symSize: 0x70 }
  - { offsetInCU: 0x52FB0, offset: 0x2F7CB1, size: 0x8, addend: 0x0, symName: '__ZN4core3ptr45drop_in_place$LT$proc_macro2..TokenStream$GT$17h3405f6c513e9f6cbE', symObjAddr: 0x8840, symBinAddr: 0x68E30, symSize: 0x140 }
  - { offsetInCU: 0x5341F, offset: 0x2F8120, size: 0x8, addend: 0x0, symName: '__ZN4core3ptr45drop_in_place$LT$syn..generics..TypeParam$GT$17he5eda51070b7de47E', symObjAddr: 0x8980, symBinAddr: 0x68F70, symSize: 0x230 }
  - { offsetInCU: 0x53C1B, offset: 0x2F891C, size: 0x8, addend: 0x0, symName: '__ZN4core3ptr46drop_in_place$LT$syn..generics..ConstParam$GT$17hab0a58c4af8c549cE', symObjAddr: 0x8BB0, symBinAddr: 0x691A0, symSize: 0x150 }
  - { offsetInCU: 0x54045, offset: 0x2F8D46, size: 0x8, addend: 0x0, symName: '__ZN4core3ptr47drop_in_place$LT$syn..path..GenericArgument$GT$17h54f8794633f96823E', symObjAddr: 0x8D00, symBinAddr: 0x692F0, symSize: 0x4A0 }
  - { offsetInCU: 0x550EC, offset: 0x2F9DED, size: 0x8, addend: 0x0, symName: '__ZN4core3ptr49drop_in_place$LT$syn..generics..LifetimeParam$GT$17h41a7c7a290ea6289E', symObjAddr: 0x91A0, symBinAddr: 0x69790, symSize: 0xF0 }
  - { offsetInCU: 0x554A6, offset: 0x2FA1A7, size: 0x8, addend: 0x0, symName: '__ZN4core3ptr49drop_in_place$LT$syn..restriction..Visibility$GT$17h2a932c493942ef80E', symObjAddr: 0x9290, symBinAddr: 0x69880, symSize: 0x60 }
  - { offsetInCU: 0x5562D, offset: 0x2FA32E, size: 0x8, addend: 0x0, symName: '__ZN4core3ptr50drop_in_place$LT$syn..generics..TypeParamBound$GT$17hcd7771d4c6c221efE', symObjAddr: 0x92F0, symBinAddr: 0x698E0, symSize: 0x160 }
  - { offsetInCU: 0x55A6C, offset: 0x2FA76D, size: 0x8, addend: 0x0, symName: '__ZN4core3ptr58drop_in_place$LT$alloc..vec..Vec$LT$syn..expr..Arm$GT$$GT$17h1a55df3d2cba1daaE', symObjAddr: 0x9480, symBinAddr: 0x69A40, symSize: 0xD0 }
  - { offsetInCU: 0x55CF9, offset: 0x2FA9FA, size: 0x8, addend: 0x0, symName: '__ZN4core3ptr59drop_in_place$LT$alloc..boxed..Box$LT$syn..pat..Pat$GT$$GT$17h563b135d87aca8abE', symObjAddr: 0x9550, symBinAddr: 0x69B10, symSize: 0x50 }
  - { offsetInCU: 0x55E54, offset: 0x2FAB55, size: 0x8, addend: 0x0, symName: '__ZN4core3ptr59drop_in_place$LT$alloc..boxed..Box$LT$syn..ty..Type$GT$$GT$17hffed36bad83adacbE', symObjAddr: 0x95A0, symBinAddr: 0x69B60, symSize: 0x50 }
  - { offsetInCU: 0x55FAF, offset: 0x2FACB0, size: 0x8, addend: 0x0, symName: '__ZN4core3ptr59drop_in_place$LT$alloc..vec..Vec$LT$syn..item..Item$GT$$GT$17hf874c2ed1282c93cE', symObjAddr: 0x95F0, symBinAddr: 0x69BB0, symSize: 0xD0 }
  - { offsetInCU: 0x5623C, offset: 0x2FAF3D, size: 0x8, addend: 0x0, symName: '__ZN4core3ptr59drop_in_place$LT$alloc..vec..Vec$LT$syn..stmt..Stmt$GT$$GT$17hb5c1acf3c61c43e2E', symObjAddr: 0x96C0, symBinAddr: 0x69C80, symSize: 0xD0 }
  - { offsetInCU: 0x564C9, offset: 0x2FB1CA, size: 0x8, addend: 0x0, symName: '__ZN4core3ptr61drop_in_place$LT$alloc..boxed..Box$LT$syn..expr..Expr$GT$$GT$17h01091e47f131475dE', symObjAddr: 0x9790, symBinAddr: 0x69D50, symSize: 0x50 }
  - { offsetInCU: 0x566A0, offset: 0x2FB3A1, size: 0x8, addend: 0x0, symName: '__ZN4core3ptr61drop_in_place$LT$syn..path..ParenthesizedGenericArguments$GT$17h43d4aac5494326a7E', symObjAddr: 0x9850, symBinAddr: 0x69DA0, symSize: 0x170 }
  - { offsetInCU: 0x56C67, offset: 0x2FB968, size: 0x8, addend: 0x0, symName: '__ZN4core3ptr62drop_in_place$LT$alloc..boxed..Box$LT$syn..stmt..Block$GT$$GT$17h30434998ae0f12a8E', symObjAddr: 0x99C0, symBinAddr: 0x69F10, symSize: 0xE0 }
  - { offsetInCU: 0x57048, offset: 0x2FBD49, size: 0x8, addend: 0x0, symName: '__ZN4core3ptr62drop_in_place$LT$syn..path..AngleBracketedGenericArguments$GT$17hc5b69f68243636ddE', symObjAddr: 0x9AA0, symBinAddr: 0x69FF0, symSize: 0x120 }
  - { offsetInCU: 0x5745E, offset: 0x2FC15F, size: 0x8, addend: 0x0, symName: '__ZN4core3ptr63drop_in_place$LT$alloc..boxed..Box$LT$syn..lit..LitRepr$GT$$GT$17hd8839b7fb35ee7afE', symObjAddr: 0x9BC0, symBinAddr: 0x6A110, symSize: 0x60 }
  - { offsetInCU: 0x57734, offset: 0x2FC435, size: 0x8, addend: 0x0, symName: '__ZN4core3ptr63drop_in_place$LT$alloc..vec..Vec$LT$syn..item..ImplItem$GT$$GT$17hda9ba61cc1df3d0eE', symObjAddr: 0x9C20, symBinAddr: 0x6A170, symSize: 0x80 }
  - { offsetInCU: 0x579D1, offset: 0x2FC6D2, size: 0x8, addend: 0x0, symName: '__ZN4core3ptr64drop_in_place$LT$alloc..boxed..Box$LT$syn..item..UseTree$GT$$GT$17he10cba0a4742709fE', symObjAddr: 0x9CA0, symBinAddr: 0x6A1F0, symSize: 0xF0 }
  - { offsetInCU: 0x57F11, offset: 0x2FCC12, size: 0x8, addend: 0x0, symName: '__ZN4core3ptr64drop_in_place$LT$alloc..boxed..Box$LT$syn..pat..FieldPat$GT$$GT$17h4980b70a7597cc08E', symObjAddr: 0x9D90, symBinAddr: 0x6A2E0, symSize: 0x140 }
  - { offsetInCU: 0x585BC, offset: 0x2FD2BD, size: 0x8, addend: 0x0, symName: '__ZN4core3ptr64drop_in_place$LT$alloc..boxed..Box$LT$syn..ty..BareFnArg$GT$$GT$17h8b34096c620314efE', symObjAddr: 0x9ED0, symBinAddr: 0x6A420, symSize: 0x140 }
  - { offsetInCU: 0x58AE0, offset: 0x2FD7E1, size: 0x8, addend: 0x0, symName: '__ZN4core3ptr64drop_in_place$LT$alloc..vec..Vec$LT$syn..attr..Attribute$GT$$GT$17h3c8f2a04e701c675E', symObjAddr: 0xA010, symBinAddr: 0x6A560, symSize: 0xD0 }
  - { offsetInCU: 0x58D6D, offset: 0x2FDA6E, size: 0x8, addend: 0x0, symName: '__ZN4core3ptr64drop_in_place$LT$alloc..vec..Vec$LT$syn..item..TraitItem$GT$$GT$17h60eb4b8666c57b93E', symObjAddr: 0xA0E0, symBinAddr: 0x6A630, symSize: 0x80 }
  - { offsetInCU: 0x58FEB, offset: 0x2FDCEC, size: 0x8, addend: 0x0, symName: '__ZN4core3ptr65drop_in_place$LT$core..option..Option$LT$syn..expr..Label$GT$$GT$17h78189e72a8cb7951E', symObjAddr: 0xA160, symBinAddr: 0x6A6B0, symSize: 0x30 }
  - { offsetInCU: 0x59126, offset: 0x2FDE27, size: 0x8, addend: 0x0, symName: '__ZN4core3ptr66drop_in_place$LT$alloc..vec..Vec$LT$syn..item..ForeignItem$GT$$GT$17h3e58b8e683c84cf4E', symObjAddr: 0xA270, symBinAddr: 0x6A6E0, symSize: 0x80 }
  - { offsetInCU: 0x593A4, offset: 0x2FE0A5, size: 0x8, addend: 0x0, symName: '__ZN4core3ptr66drop_in_place$LT$core..option..Option$LT$syn..pat..PatRest$GT$$GT$17h61677cf4ff3a7393E', symObjAddr: 0xA2F0, symBinAddr: 0x6A760, symSize: 0xE0 }
  - { offsetInCU: 0x59628, offset: 0x2FE329, size: 0x8, addend: 0x0, symName: '__ZN4core3ptr67drop_in_place$LT$alloc..boxed..Box$LT$syn..expr..FieldValue$GT$$GT$17h93aaccf8aa22ef88E', symObjAddr: 0xA3D0, symBinAddr: 0x6A840, symSize: 0x140 }
  - { offsetInCU: 0x59B2C, offset: 0x2FE82D, size: 0x8, addend: 0x0, symName: '__ZN4core3ptr67drop_in_place$LT$core..option..Option$LT$proc_macro2..Ident$GT$$GT$17hec63a294be1dc410E', symObjAddr: 0xA510, symBinAddr: 0x6A980, symSize: 0x30 }
  - { offsetInCU: 0x59C29, offset: 0x2FE92A, size: 0x8, addend: 0x0, symName: '__ZN4core3ptr68drop_in_place$LT$alloc..boxed..Box$LT$syn..path..PathSegment$GT$$GT$17h709dabdc13b58a71E', symObjAddr: 0xA540, symBinAddr: 0x6A9B0, symSize: 0x190 }
  - { offsetInCU: 0x5A307, offset: 0x2FF008, size: 0x8, addend: 0x0, symName: '__ZN4core3ptr70drop_in_place$LT$core..option..Option$LT$syn..ty..BareVariadic$GT$$GT$17h45399348ea4b8d55E', symObjAddr: 0xA6F0, symBinAddr: 0x6AB40, symSize: 0x120 }
  - { offsetInCU: 0x5A834, offset: 0x2FF535, size: 0x8, addend: 0x0, symName: '__ZN4core3ptr72drop_in_place$LT$alloc..boxed..Box$LT$syn..path..GenericArgument$GT$$GT$17haa7dd8b716637b54E', symObjAddr: 0xA810, symBinAddr: 0x6AC60, symSize: 0x1D0 }
  - { offsetInCU: 0x5ADD7, offset: 0x2FFAD8, size: 0x8, addend: 0x0, symName: '__ZN4core3ptr72drop_in_place$LT$core..option..Option$LT$syn..lifetime..Lifetime$GT$$GT$17hfc363ccdd8bd9c32E', symObjAddr: 0xA9E0, symBinAddr: 0x6AE30, symSize: 0x30 }
  - { offsetInCU: 0x5AEF3, offset: 0x2FFBF4, size: 0x8, addend: 0x0, symName: '__ZN4core3ptr73drop_in_place$LT$alloc..boxed..Box$LT$syn..generics..GenericParam$GT$$GT$17hf6951dcd5ae07324E', symObjAddr: 0xAA10, symBinAddr: 0x6AE60, symSize: 0x80 }
  - { offsetInCU: 0x5B06B, offset: 0x2FFD6C, size: 0x8, addend: 0x0, symName: '__ZN4core3ptr75drop_in_place$LT$alloc..boxed..Box$LT$syn..generics..TypeParamBound$GT$$GT$17he61c00698a311a34E', symObjAddr: 0xAA90, symBinAddr: 0x6AEE0, symSize: 0xB0 }
  - { offsetInCU: 0x5B3E5, offset: 0x3000E6, size: 0x8, addend: 0x0, symName: '__ZN4core3ptr75drop_in_place$LT$core..option..Option$LT$syn..generics..WhereClause$GT$$GT$17hdce7670be9790a3dE', symObjAddr: 0xAB40, symBinAddr: 0x6AF90, symSize: 0x90 }
  - { offsetInCU: 0x5B69B, offset: 0x30039C, size: 0x8, addend: 0x0, symName: '__ZN4core3ptr86drop_in_place$LT$syn..punctuated..Punctuated$LT$syn..pat..Pat$C$syn..token..Or$GT$$GT$17h8e9173df21a44316E', symObjAddr: 0xABE0, symBinAddr: 0x6B020, symSize: 0x120 }
  - { offsetInCU: 0x5BAE1, offset: 0x3007E2, size: 0x8, addend: 0x0, symName: '__ZN4core3ptr87drop_in_place$LT$core..option..Option$LT$alloc..boxed..Box$LT$syn..pat..Pat$GT$$GT$$GT$17hd7b7c69f601b3926E', symObjAddr: 0xAD20, symBinAddr: 0x6B140, symSize: 0x50 }
  - { offsetInCU: 0x5BC53, offset: 0x300954, size: 0x8, addend: 0x0, symName: '__ZN4core3ptr87drop_in_place$LT$core..option..Option$LT$alloc..boxed..Box$LT$syn..ty..Type$GT$$GT$$GT$17hd74f5d971aec2972E', symObjAddr: 0xAD70, symBinAddr: 0x6B190, symSize: 0x50 }
  - { offsetInCU: 0x5BDC5, offset: 0x300AC6, size: 0x8, addend: 0x0, symName: '__ZN4core3ptr89drop_in_place$LT$core..option..Option$LT$alloc..boxed..Box$LT$syn..expr..Expr$GT$$GT$$GT$17h8e135ac1a25a2dc5E', symObjAddr: 0xADE0, symBinAddr: 0x6B1E0, symSize: 0x50 }
  - { offsetInCU: 0x5BF75, offset: 0x300C76, size: 0x8, addend: 0x0, symName: '__ZN4core3ptr89drop_in_place$LT$syn..punctuated..Punctuated$LT$syn..pat..Pat$C$syn..token..Comma$GT$$GT$17h8d60e47f3fb1f87aE', symObjAddr: 0xAE30, symBinAddr: 0x6B230, symSize: 0x120 }
  - { offsetInCU: 0x5C3D2, offset: 0x3010D3, size: 0x8, addend: 0x0, symName: '__ZN4core3ptr89drop_in_place$LT$syn..punctuated..Punctuated$LT$syn..ty..Type$C$syn..token..Comma$GT$$GT$17ha919b3114742fb9dE', symObjAddr: 0xAF50, symBinAddr: 0x6B350, symSize: 0x120 }
  - { offsetInCU: 0x5C85A, offset: 0x30155B, size: 0x8, addend: 0x0, symName: '__ZN4core3ptr90drop_in_place$LT$core..option..Option$LT$alloc..boxed..Box$LT$syn..data..Field$GT$$GT$$GT$17h326c39537b0fcc46E', symObjAddr: 0xB070, symBinAddr: 0x6B470, symSize: 0x200 }
  - { offsetInCU: 0x5D0C3, offset: 0x301DC4, size: 0x8, addend: 0x0, symName: '__ZN4core3ptr90drop_in_place$LT$core..option..Option$LT$alloc..boxed..Box$LT$syn..item..FnArg$GT$$GT$$GT$17hbae3fdd388277508E', symObjAddr: 0xB270, symBinAddr: 0x6B670, symSize: 0x60 }
  - { offsetInCU: 0x5D23F, offset: 0x301F40, size: 0x8, addend: 0x0, symName: '__ZN4core3ptr90drop_in_place$LT$core..option..Option$LT$syn..path..AngleBracketedGenericArguments$GT$$GT$17h80d9a5f0818c8bd9E', symObjAddr: 0xB2D0, symBinAddr: 0x6B6D0, symSize: 0x130 }
  - { offsetInCU: 0x5D6AA, offset: 0x3023AB, size: 0x8, addend: 0x0, symName: '__ZN4core3ptr91drop_in_place$LT$syn..punctuated..Punctuated$LT$syn..expr..Expr$C$syn..token..Comma$GT$$GT$17h4f39b83dc86a4159E', symObjAddr: 0xB400, symBinAddr: 0x6B800, symSize: 0x120 }
  - { offsetInCU: 0x5DB07, offset: 0x302808, size: 0x8, addend: 0x0, symName: '__ZN4core3ptr92drop_in_place$LT$core..option..Option$LT$$LP$syn..token..As$C$proc_macro2..Ident$RP$$GT$$GT$17h5c1a47ccb35d9d7eE', symObjAddr: 0xB520, symBinAddr: 0x6B920, symSize: 0x30 }
  - { offsetInCU: 0x5DC61, offset: 0x302962, size: 0x8, addend: 0x0, symName: '__ZN4core3ptr92drop_in_place$LT$core..option..Option$LT$alloc..boxed..Box$LT$syn..data..Variant$GT$$GT$$GT$17h3f89d7c982191526E', symObjAddr: 0xB550, symBinAddr: 0x6B950, symSize: 0x190 }
  - { offsetInCU: 0x5E30A, offset: 0x30300B, size: 0x8, addend: 0x0, symName: '__ZN4core3ptr92drop_in_place$LT$syn..punctuated..Punctuated$LT$syn..item..FnArg$C$syn..token..Comma$GT$$GT$17h75db9d232662c7d3E', symObjAddr: 0xB6E0, symBinAddr: 0x6BAE0, symSize: 0x140 }
  - { offsetInCU: 0x5E758, offset: 0x303459, size: 0x8, addend: 0x0, symName: '__ZN4core3ptr94drop_in_place$LT$syn..punctuated..Punctuated$LT$syn..data..Variant$C$syn..token..Comma$GT$$GT$17ha69d7e675441c7e2E', symObjAddr: 0xB820, symBinAddr: 0x6BC20, symSize: 0xE0 }
  - { offsetInCU: 0x5EA85, offset: 0x303786, size: 0x8, addend: 0x0, symName: '__ZN4core3ptr94drop_in_place$LT$syn..punctuated..Punctuated$LT$syn..item..UseTree$C$syn..token..Comma$GT$$GT$17h4e4f303ffad9f549E', symObjAddr: 0xB900, symBinAddr: 0x6BD00, symSize: 0xF0 }
  - { offsetInCU: 0x5ED96, offset: 0x303A97, size: 0x8, addend: 0x0, symName: '__ZN4core3ptr94drop_in_place$LT$syn..punctuated..Punctuated$LT$syn..pat..FieldPat$C$syn..token..Comma$GT$$GT$17h112950ea198c8281E', symObjAddr: 0xB9F0, symBinAddr: 0x6BDF0, symSize: 0xF0 }
  - { offsetInCU: 0x5F060, offset: 0x303D61, size: 0x8, addend: 0x0, symName: '__ZN4core3ptr94drop_in_place$LT$syn..punctuated..Punctuated$LT$syn..ty..BareFnArg$C$syn..token..Comma$GT$$GT$17h1c7b44310f06243dE', symObjAddr: 0xBAE0, symBinAddr: 0x6BEE0, symSize: 0xF0 }
  - { offsetInCU: 0x5F32A, offset: 0x30402B, size: 0x8, addend: 0x0, symName: '__ZN4core3ptr96drop_in_place$LT$core..option..Option$LT$alloc..boxed..Box$LT$syn..path..PathSegment$GT$$GT$$GT$17hb447d0f626c86a4eE', symObjAddr: 0xBBD0, symBinAddr: 0x6BFD0, symSize: 0x90 }
  - { offsetInCU: 0x5F5AC, offset: 0x3042AD, size: 0x8, addend: 0x0, symName: '__ZN4core3ptr97drop_in_place$LT$syn..punctuated..Punctuated$LT$syn..expr..FieldValue$C$syn..token..Comma$GT$$GT$17h31b81f7462228dcbE', symObjAddr: 0xBC60, symBinAddr: 0x6C060, symSize: 0xF0 }
  - { offsetInCU: 0x5F876, offset: 0x304577, size: 0x8, addend: 0x0, symName: '__ZN4core3ptr98drop_in_place$LT$alloc..vec..Vec$LT$$LP$syn..path..GenericArgument$C$syn..token..Comma$RP$$GT$$GT$17h0657ff261f33b640E', symObjAddr: 0xBD50, symBinAddr: 0x6C150, symSize: 0xD0 }
  - { offsetInCU: 0x5FB7F, offset: 0x304880, size: 0x8, addend: 0x0, symName: '__ZN4core3ptr98drop_in_place$LT$syn..punctuated..Punctuated$LT$syn..lifetime..Lifetime$C$syn..token..Plus$GT$$GT$17h0f8fc5f20f465f47E', symObjAddr: 0xBE20, symBinAddr: 0x6C220, symSize: 0xC0 }
  - { offsetInCU: 0x6C7D0, offset: 0x3114D1, size: 0x8, addend: 0x0, symName: '__ZN5alloc3vec16Vec$LT$T$C$A$GT$4push17hee7056fca81de2b5E', symObjAddr: 0xC0D0, symBinAddr: 0x6C2E0, symSize: 0x60 }
  - { offsetInCU: 0x6CA0A, offset: 0x31170B, size: 0x8, addend: 0x0, symName: '__ZN5alloc3vec16Vec$LT$T$C$A$GT$6append17h429b9c0d32835dc0E', symObjAddr: 0xC130, symBinAddr: 0x6C340, symSize: 0x80 }
  - { offsetInCU: 0x6CCBF, offset: 0x3119C0, size: 0x8, addend: 0x0, symName: __ZN3syn4item4Item13replace_attrs17hc89b3448d1af9bc5E, symObjAddr: 0xCC00, symBinAddr: 0x6C3C0, symSize: 0x1C0 }
  - { offsetInCU: 0x1E, offset: 0x31FB36, size: 0x8, addend: 0x0, symName: '__ZN4core3ptr100drop_in_place$LT$alloc..vec..Vec$LT$$LP$syn..generics..TypeParamBound$C$syn..token..Plus$RP$$GT$$GT$17h8b4df1d78e856f8eE.llvm.720949811486110776', symObjAddr: 0x0, symBinAddr: 0x811C0, symSize: 0xD0 }
  - { offsetInCU: 0x35, offset: 0x31FB4D, size: 0x8, addend: 0x0, symName: _anon.756ee204431677f15e0e7c03ad545a45.3.llvm.720949811486110776, symObjAddr: 0x12B48, symBinAddr: 0x280F48, symSize: 0x0 }
  - { offsetInCU: 0x1350, offset: 0x320E68, size: 0x8, addend: 0x0, symName: '__ZN111_$LT$syn..punctuated..PrivateIter$LT$T$C$P$GT$$u20$as$u20$core..iter..traits..exact_size..ExactSizeIterator$GT$3len17h1cf8b173bc2fb53fE.llvm.720949811486110776', symObjAddr: 0x10370, symBinAddr: 0x8E0C0, symSize: 0x0 }
  - { offsetInCU: 0x1442, offset: 0x320F5A, size: 0x8, addend: 0x0, symName: '__ZN111_$LT$syn..punctuated..PrivateIter$LT$T$C$P$GT$$u20$as$u20$core..iter..traits..exact_size..ExactSizeIterator$GT$3len17hfca8917a1308f638E.llvm.720949811486110776', symObjAddr: 0x103F0, symBinAddr: 0x8E0F0, symSize: 0x0 }
  - { offsetInCU: 0x165F, offset: 0x321177, size: 0x8, addend: 0x0, symName: '__ZN115_$LT$syn..punctuated..PrivateIter$LT$T$C$P$GT$$u20$as$u20$core..iter..traits..double_ended..DoubleEndedIterator$GT$9next_back17h00773bc662e81ae7E.llvm.720949811486110776', symObjAddr: 0x102B0, symBinAddr: 0x8E060, symSize: 0x0 }
  - { offsetInCU: 0x18F9, offset: 0x321411, size: 0x8, addend: 0x0, symName: '__ZN115_$LT$syn..punctuated..PrivateIter$LT$T$C$P$GT$$u20$as$u20$core..iter..traits..double_ended..DoubleEndedIterator$GT$9next_back17h4e161a362cd3236cE.llvm.720949811486110776', symObjAddr: 0x10310, symBinAddr: 0x8E090, symSize: 0x0 }
  - { offsetInCU: 0x1DEF, offset: 0x321907, size: 0x8, addend: 0x0, symName: '__ZN100_$LT$syn..punctuated..PrivateIter$LT$T$C$P$GT$$u20$as$u20$core..iter..traits..iterator..Iterator$GT$4next17h2288f88597771eccE.llvm.720949811486110776', symObjAddr: 0x101F0, symBinAddr: 0x8DFA0, symSize: 0x30 }
  - { offsetInCU: 0x2082, offset: 0x321B9A, size: 0x8, addend: 0x0, symName: '__ZN100_$LT$syn..punctuated..PrivateIter$LT$T$C$P$GT$$u20$as$u20$core..iter..traits..iterator..Iterator$GT$4next17h2b2ca8d3435ec515E.llvm.720949811486110776', symObjAddr: 0x10220, symBinAddr: 0x8DFD0, symSize: 0x30 }
  - { offsetInCU: 0x2315, offset: 0x321E2D, size: 0x8, addend: 0x0, symName: '__ZN100_$LT$syn..punctuated..PrivateIter$LT$T$C$P$GT$$u20$as$u20$core..iter..traits..iterator..Iterator$GT$4next17h2b5c344e5c67057fE.llvm.720949811486110776', symObjAddr: 0x10250, symBinAddr: 0x8E000, symSize: 0x0 }
  - { offsetInCU: 0x25A8, offset: 0x3220C0, size: 0x8, addend: 0x0, symName: '__ZN100_$LT$syn..punctuated..PrivateIter$LT$T$C$P$GT$$u20$as$u20$core..iter..traits..iterator..Iterator$GT$4next17hf77cc5e76ff9bb52E.llvm.720949811486110776', symObjAddr: 0x10280, symBinAddr: 0x8E030, symSize: 0x0 }
  - { offsetInCU: 0x2D59, offset: 0x322871, size: 0x8, addend: 0x0, symName: '__ZN79_$LT$syn..punctuated..Punctuated$LT$T$C$P$GT$$u20$as$u20$core..clone..Clone$GT$5clone17h1b6336e2635a9e8fE', symObjAddr: 0xC9B0, symBinAddr: 0x8CBE0, symSize: 0x110 }
  - { offsetInCU: 0x315C, offset: 0x322C74, size: 0x8, addend: 0x0, symName: '__ZN79_$LT$syn..punctuated..Punctuated$LT$T$C$P$GT$$u20$as$u20$core..clone..Clone$GT$5clone17h216d0cc9fdbbad96E', symObjAddr: 0xCAC0, symBinAddr: 0x8CCF0, symSize: 0x2C0 }
  - { offsetInCU: 0x369E, offset: 0x3231B6, size: 0x8, addend: 0x0, symName: '__ZN79_$LT$syn..punctuated..Punctuated$LT$T$C$P$GT$$u20$as$u20$core..clone..Clone$GT$5clone17h401205d976f2a24fE', symObjAddr: 0xCD80, symBinAddr: 0x8CFB0, symSize: 0xE0 }
  - { offsetInCU: 0x3968, offset: 0x323480, size: 0x8, addend: 0x0, symName: '__ZN79_$LT$syn..punctuated..Punctuated$LT$T$C$P$GT$$u20$as$u20$core..clone..Clone$GT$5clone17h46c0276e4a1ee5d5E', symObjAddr: 0xCE60, symBinAddr: 0x8D090, symSize: 0x230 }
  - { offsetInCU: 0x3C94, offset: 0x3237AC, size: 0x8, addend: 0x0, symName: '__ZN79_$LT$syn..punctuated..Punctuated$LT$T$C$P$GT$$u20$as$u20$core..clone..Clone$GT$5clone17h52bdce65b2924a44E', symObjAddr: 0xD170, symBinAddr: 0x8D2C0, symSize: 0xE0 }
  - { offsetInCU: 0x3F5E, offset: 0x323A76, size: 0x8, addend: 0x0, symName: '__ZN79_$LT$syn..punctuated..Punctuated$LT$T$C$P$GT$$u20$as$u20$core..clone..Clone$GT$5clone17h6e5c167729c6dc97E', symObjAddr: 0xD330, symBinAddr: 0x8D3A0, symSize: 0x1C0 }
  - { offsetInCU: 0x42A8, offset: 0x323DC0, size: 0x8, addend: 0x0, symName: '__ZN79_$LT$syn..punctuated..Punctuated$LT$T$C$P$GT$$u20$as$u20$core..clone..Clone$GT$5clone17ha8c279133d54c43aE', symObjAddr: 0xD5F0, symBinAddr: 0x8D560, symSize: 0xE0 }
  - { offsetInCU: 0x4571, offset: 0x324089, size: 0x8, addend: 0x0, symName: '__ZN79_$LT$syn..punctuated..Punctuated$LT$T$C$P$GT$$u20$as$u20$core..clone..Clone$GT$5clone17hc59117e85ed64290E', symObjAddr: 0xD8B0, symBinAddr: 0x8D640, symSize: 0xE0 }
  - { offsetInCU: 0x483B, offset: 0x324353, size: 0x8, addend: 0x0, symName: '__ZN79_$LT$syn..punctuated..Punctuated$LT$T$C$P$GT$$u20$as$u20$core..clone..Clone$GT$5clone17hca4078c0b112b9bbE', symObjAddr: 0xD990, symBinAddr: 0x8D720, symSize: 0x140 }
  - { offsetInCU: 0x4CDD, offset: 0x3247F5, size: 0x8, addend: 0x0, symName: '__ZN79_$LT$syn..punctuated..Punctuated$LT$T$C$P$GT$$u20$as$u20$core..clone..Clone$GT$5clone17heb9ec5c115753a9eE', symObjAddr: 0xDAD0, symBinAddr: 0x8D860, symSize: 0xE0 }
  - { offsetInCU: 0x4FA7, offset: 0x324ABF, size: 0x8, addend: 0x0, symName: '__ZN79_$LT$syn..punctuated..Punctuated$LT$T$C$P$GT$$u20$as$u20$core..clone..Clone$GT$5clone17hfc802b453cbd89a2E', symObjAddr: 0xDBB0, symBinAddr: 0x8D940, symSize: 0xE0 }
  - { offsetInCU: 0x5395, offset: 0x324EAD, size: 0x8, addend: 0x0, symName: '__ZN138_$LT$syn..punctuated..Punctuated$LT$T$C$P$GT$$u20$as$u20$core..iter..traits..collect..Extend$LT$syn..punctuated..Pair$LT$T$C$P$GT$$GT$$GT$6extend17h0c12569780469b5fE', symObjAddr: 0xF390, symBinAddr: 0x8DA20, symSize: 0x370 }
  - { offsetInCU: 0x588A, offset: 0x3253A2, size: 0x8, addend: 0x0, symName: '__ZN102_$LT$syn..punctuated..Punctuated$LT$T$C$P$GT$$u20$as$u20$core..iter..traits..collect..IntoIterator$GT$9into_iter17h19dc66090da1f9fdE', symObjAddr: 0xFB40, symBinAddr: 0x8DD90, symSize: 0x210 }
  - { offsetInCU: 0x694E, offset: 0x326466, size: 0x8, addend: 0x0, symName: '__ZN57_$LT$I$u20$as$u20$syn..punctuated..IterTrait$LT$T$GT$$GT$9clone_box17h1c27db5382a2680bE.llvm.720949811486110776', symObjAddr: 0x10420, symBinAddr: 0x8E120, symSize: 0x60 }
  - { offsetInCU: 0x6B62, offset: 0x32667A, size: 0x8, addend: 0x0, symName: '__ZN57_$LT$I$u20$as$u20$syn..punctuated..IterTrait$LT$T$GT$$GT$9clone_box17h362a9bc845fd49e4E.llvm.720949811486110776', symObjAddr: 0x10480, symBinAddr: 0x8E180, symSize: 0x60 }
  - { offsetInCU: 0x6D7C, offset: 0x326894, size: 0x8, addend: 0x0, symName: '__ZN97_$LT$syn..punctuated..Punctuated$LT$T$C$P$GT$$u20$as$u20$core..ops..index..Index$LT$usize$GT$$GT$5index17h4f8cb199669a0d4aE', symObjAddr: 0x105C0, symBinAddr: 0x8E1E0, symSize: 0x40 }
  - { offsetInCU: 0x6EC3, offset: 0x3269DB, size: 0x8, addend: 0x0, symName: '__ZN3syn10punctuated8printing91_$LT$impl$u20$quote..to_tokens..ToTokens$u20$for$u20$syn..punctuated..Pair$LT$T$C$P$GT$$GT$9to_tokens17h1946c43ec2d8cf8fE', symObjAddr: 0x10890, symBinAddr: 0x8E3D0, symSize: 0xC0 }
  - { offsetInCU: 0x70B4, offset: 0x326BCC, size: 0x8, addend: 0x0, symName: '__ZN3syn10punctuated8printing97_$LT$impl$u20$quote..to_tokens..ToTokens$u20$for$u20$syn..punctuated..Punctuated$LT$T$C$P$GT$$GT$9to_tokens17h183c223efb5c6660E', symObjAddr: 0x106E0, symBinAddr: 0x8E220, symSize: 0x1B0 }
  - { offsetInCU: 0x111EB, offset: 0x330D03, size: 0x8, addend: 0x0, symName: '__ZN4core3ptr100drop_in_place$LT$alloc..vec..Vec$LT$$LP$syn..generics..TypeParamBound$C$syn..token..Plus$RP$$GT$$GT$17h8b4df1d78e856f8eE.llvm.720949811486110776', symObjAddr: 0x0, symBinAddr: 0x811C0, symSize: 0xD0 }
  - { offsetInCU: 0x11497, offset: 0x330FAF, size: 0x8, addend: 0x0, symName: '__ZN4core3ptr100drop_in_place$LT$core..option..Option$LT$alloc..boxed..Box$LT$syn..path..GenericArgument$GT$$GT$$GT$17h7435c9de74860622E.llvm.720949811486110776', symObjAddr: 0xD0, symBinAddr: 0x81290, symSize: 0x50 }
  - { offsetInCU: 0x11685, offset: 0x33119D, size: 0x8, addend: 0x0, symName: '__ZN4core3ptr100drop_in_place$LT$syn..punctuated..Punctuated$LT$syn..path..PathSegment$C$syn..token..PathSep$GT$$GT$17hf414cb3581f8337aE', symObjAddr: 0x120, symBinAddr: 0x812E0, symSize: 0x110 }
  - { offsetInCU: 0x11AA3, offset: 0x3315BB, size: 0x8, addend: 0x0, symName: '__ZN4core3ptr101drop_in_place$LT$alloc..vec..Vec$LT$$LP$syn..generics..WherePredicate$C$syn..token..Comma$RP$$GT$$GT$17hb2169051094b4da6E.llvm.720949811486110776', symObjAddr: 0x230, symBinAddr: 0x813F0, symSize: 0x60 }
  - { offsetInCU: 0x11CAB, offset: 0x3317C3, size: 0x8, addend: 0x0, symName: '__ZN4core3ptr101drop_in_place$LT$syn..punctuated..PrivateIter$LT$syn..path..PathSegment$C$syn..token..PathSep$GT$$GT$17hf6d6997603b255a8E.llvm.720949811486110776', symObjAddr: 0x290, symBinAddr: 0x81450, symSize: 0x0 }
  - { offsetInCU: 0x11D34, offset: 0x33184C, size: 0x8, addend: 0x0, symName: '__ZN4core3ptr102drop_in_place$LT$syn..punctuated..Punctuated$LT$syn..path..GenericArgument$C$syn..token..Comma$GT$$GT$17h39496ba4e6dba6cfE', symObjAddr: 0x2A0, symBinAddr: 0x81460, symSize: 0xF0 }
  - { offsetInCU: 0x1201D, offset: 0x331B35, size: 0x8, addend: 0x0, symName: '__ZN4core3ptr103drop_in_place$LT$core..option..Option$LT$alloc..boxed..Box$LT$syn..generics..TypeParamBound$GT$$GT$$GT$17h5974f03e36b1a9c3E.llvm.720949811486110776', symObjAddr: 0x390, symBinAddr: 0x81550, symSize: 0x50 }
  - { offsetInCU: 0x1222A, offset: 0x331D42, size: 0x8, addend: 0x0, symName: '__ZN4core3ptr103drop_in_place$LT$syn..punctuated..Punctuated$LT$syn..generics..GenericParam$C$syn..token..Comma$GT$$GT$17hf42353fa44ed6da8E.llvm.720949811486110776', symObjAddr: 0x3E0, symBinAddr: 0x815A0, symSize: 0xF0 }
  - { offsetInCU: 0x1274A, offset: 0x332262, size: 0x8, addend: 0x0, symName: '__ZN4core3ptr104drop_in_place$LT$syn..punctuated..Punctuated$LT$syn..generics..TypeParamBound$C$syn..token..Plus$GT$$GT$17h532f52c4a894b056E.llvm.720949811486110776', symObjAddr: 0x4D0, symBinAddr: 0x81690, symSize: 0x190 }
  - { offsetInCU: 0x12DBD, offset: 0x3328D5, size: 0x8, addend: 0x0, symName: '__ZN4core3ptr34drop_in_place$LT$syn..lit..Lit$GT$17h8902f5ff67917034E', symObjAddr: 0x660, symBinAddr: 0x81820, symSize: 0x110 }
  - { offsetInCU: 0x13335, offset: 0x332E4D, size: 0x8, addend: 0x0, symName: '__ZN4core3ptr34drop_in_place$LT$syn..pat..Pat$GT$17h4581eea028ec0969E.llvm.720949811486110776', symObjAddr: 0x770, symBinAddr: 0x81930, symSize: 0x1000 }
  - { offsetInCU: 0x16E79, offset: 0x336991, size: 0x8, addend: 0x0, symName: '__ZN4core3ptr34drop_in_place$LT$syn..ty..Type$GT$17h369e41ad4a9f1ae0E.llvm.720949811486110776', symObjAddr: 0x1770, symBinAddr: 0x82930, symSize: 0x4F0 }
  - { offsetInCU: 0x183E3, offset: 0x337EFB, size: 0x8, addend: 0x0, symName: '__ZN4core3ptr36drop_in_place$LT$syn..expr..Expr$GT$17h0f7fd4c749bae801E.llvm.720949811486110776', symObjAddr: 0x1C70, symBinAddr: 0x82E20, symSize: 0x28C0 }
  - { offsetInCU: 0x21888, offset: 0x3413A0, size: 0x8, addend: 0x0, symName: '__ZN4core3ptr36drop_in_place$LT$syn..mac..Macro$GT$17h4ffde962df30ebe2E', symObjAddr: 0x4530, symBinAddr: 0x856E0, symSize: 0x40 }
  - { offsetInCU: 0x218C2, offset: 0x3413DA, size: 0x8, addend: 0x0, symName: '__ZN4core3ptr36drop_in_place$LT$syn..path..Path$GT$17habea856181211e1cE.llvm.720949811486110776', symObjAddr: 0x4570, symBinAddr: 0x85720, symSize: 0xC0 }
  - { offsetInCU: 0x21B9C, offset: 0x3416B4, size: 0x8, addend: 0x0, symName: '__ZN4core3ptr37drop_in_place$LT$syn..data..Field$GT$17h8ecf6e22a67a3b36E.llvm.720949811486110776', symObjAddr: 0x4630, symBinAddr: 0x857E0, symSize: 0x140 }
  - { offsetInCU: 0x21FB8, offset: 0x341AD0, size: 0x8, addend: 0x0, symName: '__ZN4core3ptr37drop_in_place$LT$syn..item..FnArg$GT$17h3308e115b3b3c9adE.llvm.720949811486110776', symObjAddr: 0x4770, symBinAddr: 0x85920, symSize: 0x280 }
  - { offsetInCU: 0x22993, offset: 0x3424AB, size: 0x8, addend: 0x0, symName: '__ZN4core3ptr37drop_in_place$LT$syn..stmt..Block$GT$17hcc21a21cf949414cE', symObjAddr: 0x49F0, symBinAddr: 0x85BA0, symSize: 0xD0 }
  - { offsetInCU: 0x22C37, offset: 0x34274F, size: 0x8, addend: 0x0, symName: '__ZN4core3ptr38drop_in_place$LT$syn..expr..Member$GT$17h022cbe5553aa40faE.llvm.720949811486110776', symObjAddr: 0x4AC0, symBinAddr: 0x85C70, symSize: 0x30 }
  - { offsetInCU: 0x22D34, offset: 0x34284C, size: 0x8, addend: 0x0, symName: '__ZN4core3ptr39drop_in_place$LT$proc_macro2..Ident$GT$17h8101e88c3ac359d6E.llvm.720949811486110776', symObjAddr: 0x4AF0, symBinAddr: 0x85CA0, symSize: 0x30 }
  - { offsetInCU: 0x22E6F, offset: 0x342987, size: 0x8, addend: 0x0, symName: '__ZN4core3ptr39drop_in_place$LT$syn..data..Variant$GT$17h7bd4c363751fc860E', symObjAddr: 0x4B20, symBinAddr: 0x85CD0, symSize: 0x150 }
  - { offsetInCU: 0x233BF, offset: 0x342ED7, size: 0x8, addend: 0x0, symName: '__ZN4core3ptr39drop_in_place$LT$syn..item..UseTree$GT$17h5b1281a5704d139dE.llvm.720949811486110776', symObjAddr: 0x4C70, symBinAddr: 0x85E20, symSize: 0x1D0 }
  - { offsetInCU: 0x23ABF, offset: 0x3435D7, size: 0x8, addend: 0x0, symName: '__ZN4core3ptr39drop_in_place$LT$syn..pat..FieldPat$GT$17h6890d0559a60b030E.llvm.720949811486110776', symObjAddr: 0x4E40, symBinAddr: 0x85FF0, symSize: 0x130 }
  - { offsetInCU: 0x24001, offset: 0x343B19, size: 0x8, addend: 0x0, symName: '__ZN4core3ptr39drop_in_place$LT$syn..ty..BareFnArg$GT$17hac0a1b8fd6f7ad3cE.llvm.720949811486110776', symObjAddr: 0x4F70, symBinAddr: 0x86120, symSize: 0x110 }
  - { offsetInCU: 0x243CD, offset: 0x343EE5, size: 0x8, addend: 0x0, symName: '__ZN4core3ptr40drop_in_place$LT$syn..ty..ReturnType$GT$17h02cf41e2fec63d90E', symObjAddr: 0x5080, symBinAddr: 0x86230, symSize: 0x50 }
  - { offsetInCU: 0x2453F, offset: 0x344057, size: 0x8, addend: 0x0, symName: '__ZN4core3ptr41drop_in_place$LT$syn..expr..ExprConst$GT$17h725a13e551d9f276E', symObjAddr: 0x50D0, symBinAddr: 0x86280, symSize: 0x180 }
  - { offsetInCU: 0x24A94, offset: 0x3445AC, size: 0x8, addend: 0x0, symName: '__ZN4core3ptr42drop_in_place$LT$syn..expr..FieldValue$GT$17h26d594bfbe912662E.llvm.720949811486110776', symObjAddr: 0x5250, symBinAddr: 0x86400, symSize: 0x110 }
  - { offsetInCU: 0x24E7E, offset: 0x344996, size: 0x8, addend: 0x0, symName: '__ZN4core3ptr43drop_in_place$LT$syn..path..PathSegment$GT$17h62e206c29667de7cE.llvm.720949811486110776', symObjAddr: 0x5360, symBinAddr: 0x86510, symSize: 0x170 }
  - { offsetInCU: 0x253B0, offset: 0x344EC8, size: 0x8, addend: 0x0, symName: '__ZN4core3ptr44drop_in_place$LT$syn..lifetime..Lifetime$GT$17hf0cdec2e9ec456d6E.llvm.720949811486110776', symObjAddr: 0x54D0, symBinAddr: 0x86680, symSize: 0x30 }
  - { offsetInCU: 0x255E3, offset: 0x3450FB, size: 0x8, addend: 0x0, symName: '__ZN4core3ptr45drop_in_place$LT$proc_macro2..TokenStream$GT$17h3405f6c513e9f6cbE.llvm.720949811486110776', symObjAddr: 0x5500, symBinAddr: 0x866B0, symSize: 0x140 }
  - { offsetInCU: 0x25A52, offset: 0x34556A, size: 0x8, addend: 0x0, symName: '__ZN4core3ptr45drop_in_place$LT$syn..generics..TypeParam$GT$17he5eda51070b7de47E.llvm.720949811486110776', symObjAddr: 0x5640, symBinAddr: 0x867F0, symSize: 0x230 }
  - { offsetInCU: 0x2624E, offset: 0x345D66, size: 0x8, addend: 0x0, symName: '__ZN4core3ptr46drop_in_place$LT$syn..generics..ConstParam$GT$17hab0a58c4af8c549cE.llvm.720949811486110776', symObjAddr: 0x5870, symBinAddr: 0x86A20, symSize: 0x150 }
  - { offsetInCU: 0x26678, offset: 0x346190, size: 0x8, addend: 0x0, symName: '__ZN4core3ptr47drop_in_place$LT$syn..path..GenericArgument$GT$17h54f8794633f96823E.llvm.720949811486110776', symObjAddr: 0x59C0, symBinAddr: 0x86B70, symSize: 0x460 }
  - { offsetInCU: 0x27381, offset: 0x346E99, size: 0x8, addend: 0x0, symName: '__ZN4core3ptr48drop_in_place$LT$syn..generics..GenericParam$GT$17h9c895978ef08f584E.llvm.720949811486110776', symObjAddr: 0x5E20, symBinAddr: 0x86FD0, symSize: 0x40 }
  - { offsetInCU: 0x2739E, offset: 0x346EB6, size: 0x8, addend: 0x0, symName: '__ZN4core3ptr49drop_in_place$LT$syn..generics..LifetimeParam$GT$17h41a7c7a290ea6289E.llvm.720949811486110776', symObjAddr: 0x5E60, symBinAddr: 0x87010, symSize: 0xF0 }
  - { offsetInCU: 0x27796, offset: 0x3472AE, size: 0x8, addend: 0x0, symName: '__ZN4core3ptr49drop_in_place$LT$syn..restriction..Visibility$GT$17h2a932c493942ef80E', symObjAddr: 0x5F50, symBinAddr: 0x87100, symSize: 0x110 }
  - { offsetInCU: 0x27BC9, offset: 0x3476E1, size: 0x8, addend: 0x0, symName: '__ZN4core3ptr50drop_in_place$LT$syn..generics..TypeParamBound$GT$17hcd7771d4c6c221efE.llvm.720949811486110776', symObjAddr: 0x6060, symBinAddr: 0x87210, symSize: 0x160 }
  - { offsetInCU: 0x28027, offset: 0x347B3F, size: 0x8, addend: 0x0, symName: '__ZN4core3ptr50drop_in_place$LT$syn..generics..WherePredicate$GT$17h1a9d05bc1beb1d91E.llvm.720949811486110776', symObjAddr: 0x61C0, symBinAddr: 0x87370, symSize: 0xA0 }
  - { offsetInCU: 0x281C8, offset: 0x347CE0, size: 0x8, addend: 0x0, symName: '__ZN4core3ptr58drop_in_place$LT$alloc..vec..Vec$LT$syn..expr..Arm$GT$$GT$17h1a55df3d2cba1daaE', symObjAddr: 0x6260, symBinAddr: 0x87410, symSize: 0xD0 }
  - { offsetInCU: 0x28455, offset: 0x347F6D, size: 0x8, addend: 0x0, symName: '__ZN4core3ptr59drop_in_place$LT$alloc..boxed..Box$LT$syn..pat..Pat$GT$$GT$17h563b135d87aca8abE.llvm.720949811486110776', symObjAddr: 0x6330, symBinAddr: 0x874E0, symSize: 0x50 }
  - { offsetInCU: 0x285B0, offset: 0x3480C8, size: 0x8, addend: 0x0, symName: '__ZN4core3ptr59drop_in_place$LT$alloc..boxed..Box$LT$syn..ty..Type$GT$$GT$17hffed36bad83adacbE.llvm.720949811486110776', symObjAddr: 0x6380, symBinAddr: 0x87530, symSize: 0x50 }
  - { offsetInCU: 0x2870B, offset: 0x348223, size: 0x8, addend: 0x0, symName: '__ZN4core3ptr61drop_in_place$LT$alloc..boxed..Box$LT$syn..expr..Expr$GT$$GT$17h01091e47f131475dE.llvm.720949811486110776', symObjAddr: 0x64A0, symBinAddr: 0x87580, symSize: 0x50 }
  - { offsetInCU: 0x288E2, offset: 0x3483FA, size: 0x8, addend: 0x0, symName: '__ZN4core3ptr61drop_in_place$LT$syn..path..ParenthesizedGenericArguments$GT$17h43d4aac5494326a7E.llvm.720949811486110776', symObjAddr: 0x64F0, symBinAddr: 0x875D0, symSize: 0x170 }
  - { offsetInCU: 0x28EBC, offset: 0x3489D4, size: 0x8, addend: 0x0, symName: '__ZN4core3ptr63drop_in_place$LT$alloc..boxed..Box$LT$syn..lit..LitRepr$GT$$GT$17hd8839b7fb35ee7afE', symObjAddr: 0x6700, symBinAddr: 0x87740, symSize: 0x60 }
  - { offsetInCU: 0x29192, offset: 0x348CAA, size: 0x8, addend: 0x0, symName: '__ZN4core3ptr64drop_in_place$LT$alloc..boxed..Box$LT$syn..item..UseTree$GT$$GT$17he10cba0a4742709fE', symObjAddr: 0x67B0, symBinAddr: 0x877A0, symSize: 0x50 }
  - { offsetInCU: 0x2930C, offset: 0x348E24, size: 0x8, addend: 0x0, symName: '__ZN4core3ptr64drop_in_place$LT$alloc..boxed..Box$LT$syn..pat..FieldPat$GT$$GT$17h4980b70a7597cc08E', symObjAddr: 0x6800, symBinAddr: 0x877F0, symSize: 0x140 }
  - { offsetInCU: 0x29979, offset: 0x349491, size: 0x8, addend: 0x0, symName: '__ZN4core3ptr64drop_in_place$LT$alloc..boxed..Box$LT$syn..ty..BareFnArg$GT$$GT$17h8b34096c620314efE', symObjAddr: 0x6940, symBinAddr: 0x87930, symSize: 0x140 }
  - { offsetInCU: 0x29E9D, offset: 0x3499B5, size: 0x8, addend: 0x0, symName: '__ZN4core3ptr65drop_in_place$LT$core..option..Option$LT$syn..expr..Label$GT$$GT$17h78189e72a8cb7951E', symObjAddr: 0x6A80, symBinAddr: 0x87A70, symSize: 0x30 }
  - { offsetInCU: 0x29FD8, offset: 0x349AF0, size: 0x8, addend: 0x0, symName: '__ZN4core3ptr66drop_in_place$LT$core..option..Option$LT$syn..pat..PatRest$GT$$GT$17h61677cf4ff3a7393E', symObjAddr: 0x6AB0, symBinAddr: 0x87AA0, symSize: 0xE0 }
  - { offsetInCU: 0x2A25C, offset: 0x349D74, size: 0x8, addend: 0x0, symName: '__ZN4core3ptr67drop_in_place$LT$alloc..boxed..Box$LT$syn..expr..FieldValue$GT$$GT$17h93aaccf8aa22ef88E', symObjAddr: 0x6B90, symBinAddr: 0x87B80, symSize: 0x140 }
  - { offsetInCU: 0x2A77F, offset: 0x34A297, size: 0x8, addend: 0x0, symName: '__ZN4core3ptr70drop_in_place$LT$core..option..Option$LT$syn..ty..BareVariadic$GT$$GT$17h45399348ea4b8d55E', symObjAddr: 0x6D60, symBinAddr: 0x87CC0, symSize: 0x120 }
  - { offsetInCU: 0x2ACAC, offset: 0x34A7C4, size: 0x8, addend: 0x0, symName: '__ZN4core3ptr72drop_in_place$LT$alloc..boxed..Box$LT$syn..path..GenericArgument$GT$$GT$17haa7dd8b716637b54E', symObjAddr: 0x6E80, symBinAddr: 0x87DE0, symSize: 0x2B0 }
  - { offsetInCU: 0x2B697, offset: 0x34B1AF, size: 0x8, addend: 0x0, symName: '__ZN4core3ptr73drop_in_place$LT$alloc..boxed..Box$LT$syn..generics..GenericParam$GT$$GT$17hf6951dcd5ae07324E.llvm.720949811486110776', symObjAddr: 0x7130, symBinAddr: 0x88090, symSize: 0x80 }
  - { offsetInCU: 0x2B82E, offset: 0x34B346, size: 0x8, addend: 0x0, symName: '__ZN4core3ptr73drop_in_place$LT$alloc..vec..Vec$LT$syn..generics..TypeParamBound$GT$$GT$17hdab4c0986d98765bE.llvm.720949811486110776', symObjAddr: 0x71B0, symBinAddr: 0x88110, symSize: 0xC0 }
  - { offsetInCU: 0x2BACE, offset: 0x34B5E6, size: 0x8, addend: 0x0, symName: '__ZN4core3ptr75drop_in_place$LT$alloc..boxed..Box$LT$syn..generics..TypeParamBound$GT$$GT$17he61c00698a311a34E', symObjAddr: 0x7270, symBinAddr: 0x881D0, symSize: 0xB0 }
  - { offsetInCU: 0x2BDCC, offset: 0x34B8E4, size: 0x8, addend: 0x0, symName: '__ZN4core3ptr76drop_in_place$LT$$LP$syn..generics..GenericParam$C$syn..token..Comma$RP$$GT$17hadd4ee9dc4c521adE.llvm.720949811486110776', symObjAddr: 0x7370, symBinAddr: 0x88280, symSize: 0x40 }
  - { offsetInCU: 0x2BE3A, offset: 0x34B952, size: 0x8, addend: 0x0, symName: '__ZN4core3ptr82drop_in_place$LT$alloc..vec..Vec$LT$$LP$syn..pat..Pat$C$syn..token..Or$RP$$GT$$GT$17h79250e525f9bf0e5E.llvm.720949811486110776', symObjAddr: 0x7480, symBinAddr: 0x882C0, symSize: 0x0 }
  - { offsetInCU: 0x2C0FB, offset: 0x34BC13, size: 0x8, addend: 0x0, symName: '__ZN4core3ptr85drop_in_place$LT$alloc..vec..Vec$LT$$LP$syn..ty..Type$C$syn..token..Comma$RP$$GT$$GT$17hf6a59a148065f17dE.llvm.720949811486110776', symObjAddr: 0x7550, symBinAddr: 0x88390, symSize: 0xD0 }
  - { offsetInCU: 0x2C3FA, offset: 0x34BF12, size: 0x8, addend: 0x0, symName: '__ZN4core3ptr86drop_in_place$LT$syn..punctuated..Punctuated$LT$syn..pat..Pat$C$syn..token..Or$GT$$GT$17h8e9173df21a44316E', symObjAddr: 0x7620, symBinAddr: 0x88460, symSize: 0x120 }
  - { offsetInCU: 0x2C85F, offset: 0x34C377, size: 0x8, addend: 0x0, symName: '__ZN4core3ptr87drop_in_place$LT$alloc..vec..Vec$LT$$LP$syn..expr..Expr$C$syn..token..Comma$RP$$GT$$GT$17hbf3f4cd50fb0b0ecE.llvm.720949811486110776', symObjAddr: 0x7740, symBinAddr: 0x88580, symSize: 0xD0 }
  - { offsetInCU: 0x2CB20, offset: 0x34C638, size: 0x8, addend: 0x0, symName: '__ZN4core3ptr87drop_in_place$LT$core..option..Option$LT$alloc..boxed..Box$LT$syn..pat..Pat$GT$$GT$$GT$17hd7b7c69f601b3926E', symObjAddr: 0x7810, symBinAddr: 0x88650, symSize: 0x50 }
  - { offsetInCU: 0x2CC92, offset: 0x34C7AA, size: 0x8, addend: 0x0, symName: '__ZN4core3ptr87drop_in_place$LT$core..option..Option$LT$alloc..boxed..Box$LT$syn..ty..Type$GT$$GT$$GT$17hd74f5d971aec2972E.llvm.720949811486110776', symObjAddr: 0x7860, symBinAddr: 0x886A0, symSize: 0x50 }
  - { offsetInCU: 0x2CE23, offset: 0x34C93B, size: 0x8, addend: 0x0, symName: '__ZN4core3ptr88drop_in_place$LT$alloc..vec..Vec$LT$$LP$syn..data..Field$C$syn..token..Comma$RP$$GT$$GT$17h02f4d88f184a75f6E.llvm.720949811486110776', symObjAddr: 0x78B0, symBinAddr: 0x886F0, symSize: 0xD0 }
  - { offsetInCU: 0x2D103, offset: 0x34CC1B, size: 0x8, addend: 0x0, symName: '__ZN4core3ptr88drop_in_place$LT$alloc..vec..Vec$LT$$LP$syn..item..FnArg$C$syn..token..Comma$RP$$GT$$GT$17h9235dca64c193d6aE.llvm.720949811486110776', symObjAddr: 0x7980, symBinAddr: 0x887C0, symSize: 0xE0 }
  - { offsetInCU: 0x2D3D1, offset: 0x34CEE9, size: 0x8, addend: 0x0, symName: '__ZN4core3ptr89drop_in_place$LT$core..option..Option$LT$alloc..boxed..Box$LT$syn..expr..Expr$GT$$GT$$GT$17h8e135ac1a25a2dc5E', symObjAddr: 0x7A60, symBinAddr: 0x888A0, symSize: 0x50 }
  - { offsetInCU: 0x2D581, offset: 0x34D099, size: 0x8, addend: 0x0, symName: '__ZN4core3ptr89drop_in_place$LT$syn..punctuated..Punctuated$LT$syn..pat..Pat$C$syn..token..Comma$GT$$GT$17h8d60e47f3fb1f87aE', symObjAddr: 0x7AB0, symBinAddr: 0x888F0, symSize: 0x120 }
  - { offsetInCU: 0x2D9DE, offset: 0x34D4F6, size: 0x8, addend: 0x0, symName: '__ZN4core3ptr89drop_in_place$LT$syn..punctuated..Punctuated$LT$syn..ty..Type$C$syn..token..Comma$GT$$GT$17ha919b3114742fb9dE.llvm.720949811486110776', symObjAddr: 0x7BD0, symBinAddr: 0x88A10, symSize: 0x120 }
  - { offsetInCU: 0x2DE47, offset: 0x34D95F, size: 0x8, addend: 0x0, symName: '__ZN4core3ptr90drop_in_place$LT$alloc..vec..Vec$LT$$LP$syn..data..Variant$C$syn..token..Comma$RP$$GT$$GT$17h680219081cc43a7dE.llvm.720949811486110776', symObjAddr: 0x7CF0, symBinAddr: 0x88B30, symSize: 0xD0 }
  - { offsetInCU: 0x2E108, offset: 0x34DC20, size: 0x8, addend: 0x0, symName: '__ZN4core3ptr90drop_in_place$LT$alloc..vec..Vec$LT$$LP$syn..item..UseTree$C$syn..token..Comma$RP$$GT$$GT$17hac2434f3c2e2707dE.llvm.720949811486110776', symObjAddr: 0x7DC0, symBinAddr: 0x88C00, symSize: 0xD0 }
  - { offsetInCU: 0x2E3C9, offset: 0x34DEE1, size: 0x8, addend: 0x0, symName: '__ZN4core3ptr90drop_in_place$LT$alloc..vec..Vec$LT$$LP$syn..pat..FieldPat$C$syn..token..Comma$RP$$GT$$GT$17hb84c43e95b74d098E.llvm.720949811486110776', symObjAddr: 0x7E90, symBinAddr: 0x88CD0, symSize: 0xD0 }
  - { offsetInCU: 0x2E656, offset: 0x34E16E, size: 0x8, addend: 0x0, symName: '__ZN4core3ptr90drop_in_place$LT$alloc..vec..Vec$LT$$LP$syn..ty..BareFnArg$C$syn..token..Comma$RP$$GT$$GT$17ha1bf96fdde0de332E.llvm.720949811486110776', symObjAddr: 0x7F60, symBinAddr: 0x88DA0, symSize: 0xD0 }
  - { offsetInCU: 0x2E902, offset: 0x34E41A, size: 0x8, addend: 0x0, symName: '__ZN4core3ptr90drop_in_place$LT$core..option..Option$LT$alloc..boxed..Box$LT$syn..data..Field$GT$$GT$$GT$17h326c39537b0fcc46E.llvm.720949811486110776', symObjAddr: 0x8030, symBinAddr: 0x88E70, symSize: 0x50 }
  - { offsetInCU: 0x2EA86, offset: 0x34E59E, size: 0x8, addend: 0x0, symName: '__ZN4core3ptr91drop_in_place$LT$syn..punctuated..Punctuated$LT$syn..expr..Expr$C$syn..token..Comma$GT$$GT$17h4f39b83dc86a4159E.llvm.720949811486110776', symObjAddr: 0x8080, symBinAddr: 0x88EC0, symSize: 0x120 }
  - { offsetInCU: 0x2EF02, offset: 0x34EA1A, size: 0x8, addend: 0x0, symName: '__ZN4core3ptr92drop_in_place$LT$core..option..Option$LT$alloc..boxed..Box$LT$syn..data..Variant$GT$$GT$$GT$17h3f89d7c982191526E', symObjAddr: 0x81A0, symBinAddr: 0x88FE0, symSize: 0x50 }
  - { offsetInCU: 0x2F0A5, offset: 0x34EBBD, size: 0x8, addend: 0x0, symName: '__ZN4core3ptr92drop_in_place$LT$syn..punctuated..Punctuated$LT$syn..data..Field$C$syn..token..Comma$GT$$GT$17hca76f5e010a141e5E', symObjAddr: 0x81F0, symBinAddr: 0x89030, symSize: 0x120 }
  - { offsetInCU: 0x2F4E2, offset: 0x34EFFA, size: 0x8, addend: 0x0, symName: '__ZN4core3ptr93drop_in_place$LT$alloc..vec..Vec$LT$$LP$syn..expr..FieldValue$C$syn..token..Comma$RP$$GT$$GT$17h9295f6966e75a214E.llvm.720949811486110776', symObjAddr: 0x8310, symBinAddr: 0x89150, symSize: 0xD0 }
  - { offsetInCU: 0x2F78E, offset: 0x34F2A6, size: 0x8, addend: 0x0, symName: '__ZN4core3ptr94drop_in_place$LT$alloc..vec..Vec$LT$$LP$syn..lifetime..Lifetime$C$syn..token..Plus$RP$$GT$$GT$17h5bdaba7f0fbee773E.llvm.720949811486110776', symObjAddr: 0x83E0, symBinAddr: 0x89220, symSize: 0x80 }
  - { offsetInCU: 0x2FA53, offset: 0x34F56B, size: 0x8, addend: 0x0, symName: '__ZN4core3ptr94drop_in_place$LT$syn..punctuated..Punctuated$LT$syn..data..Variant$C$syn..token..Comma$GT$$GT$17ha69d7e675441c7e2E', symObjAddr: 0x8460, symBinAddr: 0x892A0, symSize: 0x120 }
  - { offsetInCU: 0x2FE90, offset: 0x34F9A8, size: 0x8, addend: 0x0, symName: '__ZN4core3ptr94drop_in_place$LT$syn..punctuated..Punctuated$LT$syn..pat..FieldPat$C$syn..token..Comma$GT$$GT$17h112950ea198c8281E', symObjAddr: 0x8580, symBinAddr: 0x893C0, symSize: 0xF0 }
  - { offsetInCU: 0x3015A, offset: 0x34FC72, size: 0x8, addend: 0x0, symName: '__ZN4core3ptr94drop_in_place$LT$syn..punctuated..Punctuated$LT$syn..ty..BareFnArg$C$syn..token..Comma$GT$$GT$17h1c7b44310f06243dE', symObjAddr: 0x8670, symBinAddr: 0x894B0, symSize: 0xF0 }
  - { offsetInCU: 0x30424, offset: 0x34FF3C, size: 0x8, addend: 0x0, symName: '__ZN4core3ptr95drop_in_place$LT$core..option..Option$LT$$LP$proc_macro2..Ident$C$syn..token..Colon$RP$$GT$$GT$17ha744bf0f41959716E.llvm.720949811486110776', symObjAddr: 0x8760, symBinAddr: 0x895A0, symSize: 0x30 }
  - { offsetInCU: 0x30540, offset: 0x350058, size: 0x8, addend: 0x0, symName: '__ZN4core3ptr96drop_in_place$LT$alloc..vec..Vec$LT$$LP$syn..path..PathSegment$C$syn..token..PathSep$RP$$GT$$GT$17h42880a1541c295f5E.llvm.720949811486110776', symObjAddr: 0x8790, symBinAddr: 0x895D0, symSize: 0xC0 }
  - { offsetInCU: 0x307EC, offset: 0x350304, size: 0x8, addend: 0x0, symName: '__ZN4core3ptr96drop_in_place$LT$core..option..Option$LT$alloc..boxed..Box$LT$syn..path..PathSegment$GT$$GT$$GT$17hb447d0f626c86a4eE.llvm.720949811486110776', symObjAddr: 0x8850, symBinAddr: 0x89690, symSize: 0x180 }
  - { offsetInCU: 0x30E9C, offset: 0x3509B4, size: 0x8, addend: 0x0, symName: '__ZN4core3ptr97drop_in_place$LT$syn..punctuated..Punctuated$LT$syn..expr..FieldValue$C$syn..token..Comma$GT$$GT$17h31b81f7462228dcbE', symObjAddr: 0x8A20, symBinAddr: 0x89810, symSize: 0xF0 }
  - { offsetInCU: 0x31166, offset: 0x350C7E, size: 0x8, addend: 0x0, symName: '__ZN4core3ptr98drop_in_place$LT$alloc..vec..Vec$LT$$LP$syn..path..GenericArgument$C$syn..token..Comma$RP$$GT$$GT$17h0657ff261f33b640E.llvm.720949811486110776', symObjAddr: 0x8B10, symBinAddr: 0x89900, symSize: 0xD0 }
  - { offsetInCU: 0x31431, offset: 0x350F49, size: 0x8, addend: 0x0, symName: '__ZN4core3ptr98drop_in_place$LT$syn..punctuated..Punctuated$LT$syn..lifetime..Lifetime$C$syn..token..Plus$GT$$GT$17h0f8fc5f20f465f47E.llvm.720949811486110776', symObjAddr: 0x8BE0, symBinAddr: 0x899D0, symSize: 0xC0 }
  - { offsetInCU: 0x318A9, offset: 0x3513C1, size: 0x8, addend: 0x0, symName: '__ZN4core3ptr99drop_in_place$LT$alloc..vec..Vec$LT$$LP$syn..generics..GenericParam$C$syn..token..Comma$RP$$GT$$GT$17h80db164c829d38feE.llvm.720949811486110776', symObjAddr: 0x8CA0, symBinAddr: 0x89A90, symSize: 0x60 }
  - { offsetInCU: 0x31B1A, offset: 0x351632, size: 0x8, addend: 0x0, symName: '__ZN4core3ptr99drop_in_place$LT$syn..punctuated..IntoPairs$LT$syn..path..PathSegment$C$syn..token..PathSep$GT$$GT$17h4470f4520ed6b72cE', symObjAddr: 0x8D00, symBinAddr: 0x89AF0, symSize: 0x50 }
  - { offsetInCU: 0x39BFC, offset: 0x359714, size: 0x8, addend: 0x0, symName: __ZN4core4iter6traits10exact_size17ExactSizeIterator8is_empty17h35ee032e6e88d349E.llvm.720949811486110776, symObjAddr: 0x8D50, symBinAddr: 0x89B40, symSize: 0x0 }
  - { offsetInCU: 0x39DA5, offset: 0x3598BD, size: 0x8, addend: 0x0, symName: __ZN4core4iter6traits10exact_size17ExactSizeIterator8is_empty17h508607d8c3df7979E.llvm.720949811486110776, symObjAddr: 0x8DB0, symBinAddr: 0x89B70, symSize: 0x0 }
  - { offsetInCU: 0x39EF4, offset: 0x359A0C, size: 0x8, addend: 0x0, symName: __ZN4core4iter6traits12double_ended19DoubleEndedIterator15advance_back_by17h4d1e2015fdf30f06E.llvm.720949811486110776, symObjAddr: 0x8E00, symBinAddr: 0x89BA0, symSize: 0x0 }
  - { offsetInCU: 0x3A0F8, offset: 0x359C10, size: 0x8, addend: 0x0, symName: __ZN4core4iter6traits12double_ended19DoubleEndedIterator15advance_back_by17h71a802ac204bbb9cE.llvm.720949811486110776, symObjAddr: 0x8E80, symBinAddr: 0x89C20, symSize: 0x0 }
  - { offsetInCU: 0x3A376, offset: 0x359E8E, size: 0x8, addend: 0x0, symName: __ZN4core4iter6traits12double_ended19DoubleEndedIterator8nth_back17h213ac3cafced8236E.llvm.720949811486110776, symObjAddr: 0x8FE0, symBinAddr: 0x89CA0, symSize: 0x0 }
  - { offsetInCU: 0x3A871, offset: 0x35A389, size: 0x8, addend: 0x0, symName: __ZN4core4iter6traits12double_ended19DoubleEndedIterator8nth_back17h5a89a76496a5f1f6E.llvm.720949811486110776, symObjAddr: 0x9090, symBinAddr: 0x89D50, symSize: 0x0 }
  - { offsetInCU: 0x3AD2C, offset: 0x35A844, size: 0x8, addend: 0x0, symName: __ZN4core4iter6traits8iterator8Iterator10advance_by17h0b5ecbdade63f94bE.llvm.720949811486110776, symObjAddr: 0x92A0, symBinAddr: 0x89E00, symSize: 0x0 }
  - { offsetInCU: 0x3B045, offset: 0x35AB5D, size: 0x8, addend: 0x0, symName: __ZN4core4iter6traits8iterator8Iterator10advance_by17h81fbac6663af7f06E.llvm.720949811486110776, symObjAddr: 0x9370, symBinAddr: 0x89E70, symSize: 0x0 }
  - { offsetInCU: 0x3B3E1, offset: 0x35AEF9, size: 0x8, addend: 0x0, symName: __ZN4core4iter6traits8iterator8Iterator3nth17h2760078497cfc6daE.llvm.720949811486110776, symObjAddr: 0x9450, symBinAddr: 0x89EE0, symSize: 0x0 }
  - { offsetInCU: 0x3B9FC, offset: 0x35B514, size: 0x8, addend: 0x0, symName: __ZN4core4iter6traits8iterator8Iterator3nth17h40c29dc3e10916faE.llvm.720949811486110776, symObjAddr: 0x94D0, symBinAddr: 0x89F60, symSize: 0x0 }
  - { offsetInCU: 0x3BFC6, offset: 0x35BADE, size: 0x8, addend: 0x0, symName: __ZN4core4iter6traits8iterator8Iterator9size_hint17h27d36cc3f9874dd4E.llvm.720949811486110776, symObjAddr: 0x9650, symBinAddr: 0x89FE0, symSize: 0x0 }
  - { offsetInCU: 0x3D692, offset: 0x35D1AA, size: 0x8, addend: 0x0, symName: _anon.756ee204431677f15e0e7c03ad545a45.9.llvm.720949811486110776, symObjAddr: 0x12D68, symBinAddr: 0x281058, symSize: 0x0 }
  - { offsetInCU: 0x3FCC7, offset: 0x35F7DF, size: 0x8, addend: 0x0, symName: '__ZN3syn10punctuated23Punctuated$LT$T$C$P$GT$10push_value17h1464794b59e71484E', symObjAddr: 0x9CF0, symBinAddr: 0x8A000, symSize: 0x110 }
  - { offsetInCU: 0x3FF42, offset: 0x35FA5A, size: 0x8, addend: 0x0, symName: '__ZN3syn10punctuated23Punctuated$LT$T$C$P$GT$10push_value17h19b8fd7bec07dcc7E', symObjAddr: 0x9E00, symBinAddr: 0x8A110, symSize: 0x0 }
  - { offsetInCU: 0x401D7, offset: 0x35FCEF, size: 0x8, addend: 0x0, symName: '__ZN3syn10punctuated23Punctuated$LT$T$C$P$GT$10push_value17h2ac8ee7d941e7bd6E', symObjAddr: 0x9F10, symBinAddr: 0x8A220, symSize: 0x110 }
  - { offsetInCU: 0x40452, offset: 0x35FF6A, size: 0x8, addend: 0x0, symName: '__ZN3syn10punctuated23Punctuated$LT$T$C$P$GT$10push_value17h4d756fff73ab62fcE', symObjAddr: 0xA020, symBinAddr: 0x8A330, symSize: 0x110 }
  - { offsetInCU: 0x406CD, offset: 0x3601E5, size: 0x8, addend: 0x0, symName: '__ZN3syn10punctuated23Punctuated$LT$T$C$P$GT$10push_value17h922210f6ed64bedfE', symObjAddr: 0xA130, symBinAddr: 0x8A440, symSize: 0x110 }
  - { offsetInCU: 0x40948, offset: 0x360460, size: 0x8, addend: 0x0, symName: '__ZN3syn10punctuated23Punctuated$LT$T$C$P$GT$10push_value17h9bf9b9eda25b7b08E', symObjAddr: 0xA240, symBinAddr: 0x8A550, symSize: 0x100 }
  - { offsetInCU: 0x40BC2, offset: 0x3606DA, size: 0x8, addend: 0x0, symName: '__ZN3syn10punctuated23Punctuated$LT$T$C$P$GT$10push_value17ha11f44006af1fce5E', symObjAddr: 0xA340, symBinAddr: 0x8A650, symSize: 0x100 }
  - { offsetInCU: 0x40E33, offset: 0x36094B, size: 0x8, addend: 0x0, symName: '__ZN3syn10punctuated23Punctuated$LT$T$C$P$GT$10push_value17hb125b8a2ccd1d083E', symObjAddr: 0xA440, symBinAddr: 0x8A750, symSize: 0x110 }
  - { offsetInCU: 0x411B8, offset: 0x360CD0, size: 0x8, addend: 0x0, symName: '__ZN3syn10punctuated23Punctuated$LT$T$C$P$GT$10push_value17hbe2de12ba6ba96f3E', symObjAddr: 0xA550, symBinAddr: 0x8A860, symSize: 0xD0 }
  - { offsetInCU: 0x41429, offset: 0x360F41, size: 0x8, addend: 0x0, symName: '__ZN3syn10punctuated23Punctuated$LT$T$C$P$GT$10push_value17hc84f0581e5006d1dE', symObjAddr: 0xA620, symBinAddr: 0x8A930, symSize: 0x110 }
  - { offsetInCU: 0x416A4, offset: 0x3611BC, size: 0x8, addend: 0x0, symName: '__ZN3syn10punctuated23Punctuated$LT$T$C$P$GT$10push_value17hc8f25dfb73f20dfeE', symObjAddr: 0xA730, symBinAddr: 0x8AA40, symSize: 0xF0 }
  - { offsetInCU: 0x41908, offset: 0x361420, size: 0x8, addend: 0x0, symName: '__ZN3syn10punctuated23Punctuated$LT$T$C$P$GT$10push_value17hf794ec4a43a6463aE', symObjAddr: 0xA820, symBinAddr: 0x8AB30, symSize: 0x110 }
  - { offsetInCU: 0x41B9D, offset: 0x3616B5, size: 0x8, addend: 0x0, symName: '__ZN3syn10punctuated23Punctuated$LT$T$C$P$GT$10push_value17hfcd023ac5ed059ccE', symObjAddr: 0xA930, symBinAddr: 0x8AC40, symSize: 0x100 }
  - { offsetInCU: 0x41E28, offset: 0x361940, size: 0x8, addend: 0x0, symName: '__ZN3syn10punctuated23Punctuated$LT$T$C$P$GT$10push_punct17h009caae710d7fa9eE', symObjAddr: 0xAA30, symBinAddr: 0x8AD40, symSize: 0x120 }
  - { offsetInCU: 0x42207, offset: 0x361D1F, size: 0x8, addend: 0x0, symName: '__ZN3syn10punctuated23Punctuated$LT$T$C$P$GT$10push_punct17h466bf79492cbbcb5E', symObjAddr: 0xAB50, symBinAddr: 0x8AE60, symSize: 0x120 }
  - { offsetInCU: 0x42600, offset: 0x362118, size: 0x8, addend: 0x0, symName: '__ZN3syn10punctuated23Punctuated$LT$T$C$P$GT$10push_punct17h4774822b9e0d6ec3E', symObjAddr: 0xAC70, symBinAddr: 0x8AF80, symSize: 0x120 }
  - { offsetInCU: 0x429D2, offset: 0x3624EA, size: 0x8, addend: 0x0, symName: '__ZN3syn10punctuated23Punctuated$LT$T$C$P$GT$10push_punct17h61110cebcbc73b5eE', symObjAddr: 0xAD90, symBinAddr: 0x8B0A0, symSize: 0x120 }
  - { offsetInCU: 0x42D91, offset: 0x3628A9, size: 0x8, addend: 0x0, symName: '__ZN3syn10punctuated23Punctuated$LT$T$C$P$GT$10push_punct17h6c195d18e6105754E', symObjAddr: 0xAEB0, symBinAddr: 0x8B1C0, symSize: 0x120 }
  - { offsetInCU: 0x431BD, offset: 0x362CD5, size: 0x8, addend: 0x0, symName: '__ZN3syn10punctuated23Punctuated$LT$T$C$P$GT$10push_punct17h7570ad2eb8eda148E', symObjAddr: 0xAFD0, symBinAddr: 0x8B2E0, symSize: 0x140 }
  - { offsetInCU: 0x436DF, offset: 0x3631F7, size: 0x8, addend: 0x0, symName: '__ZN3syn10punctuated23Punctuated$LT$T$C$P$GT$10push_punct17h89b356a21cce1885E', symObjAddr: 0xB110, symBinAddr: 0x8B420, symSize: 0x120 }
  - { offsetInCU: 0x43ABE, offset: 0x3635D6, size: 0x8, addend: 0x0, symName: '__ZN3syn10punctuated23Punctuated$LT$T$C$P$GT$10push_punct17h9b1d77aef8736936E', symObjAddr: 0xB230, symBinAddr: 0x8B540, symSize: 0x120 }
  - { offsetInCU: 0x43E9D, offset: 0x3639B5, size: 0x8, addend: 0x0, symName: '__ZN3syn10punctuated23Punctuated$LT$T$C$P$GT$10push_punct17ha8c738426f753245E', symObjAddr: 0xB350, symBinAddr: 0x8B660, symSize: 0x120 }
  - { offsetInCU: 0x4427C, offset: 0x363D94, size: 0x8, addend: 0x0, symName: '__ZN3syn10punctuated23Punctuated$LT$T$C$P$GT$10push_punct17hb0fc5a7a37e2e4edE', symObjAddr: 0xB470, symBinAddr: 0x8B780, symSize: 0x120 }
  - { offsetInCU: 0x4465B, offset: 0x364173, size: 0x8, addend: 0x0, symName: '__ZN3syn10punctuated23Punctuated$LT$T$C$P$GT$10push_punct17hb4e9855c6f264597E', symObjAddr: 0xB590, symBinAddr: 0x8B8A0, symSize: 0x120 }
  - { offsetInCU: 0x44A3A, offset: 0x364552, size: 0x8, addend: 0x0, symName: '__ZN3syn10punctuated23Punctuated$LT$T$C$P$GT$10push_punct17hbb75469815d830eaE', symObjAddr: 0xB6B0, symBinAddr: 0x8B9C0, symSize: 0x110 }
  - { offsetInCU: 0x44E1B, offset: 0x364933, size: 0x8, addend: 0x0, symName: '__ZN3syn10punctuated23Punctuated$LT$T$C$P$GT$10push_punct17hc20d22090670493fE', symObjAddr: 0xB7C0, symBinAddr: 0x8BAD0, symSize: 0xF0 }
  - { offsetInCU: 0x451FA, offset: 0x364D12, size: 0x8, addend: 0x0, symName: '__ZN3syn10punctuated23Punctuated$LT$T$C$P$GT$10push_punct17hc2ba07c343e9a099E', symObjAddr: 0xB8B0, symBinAddr: 0x8BBC0, symSize: 0xF0 }
  - { offsetInCU: 0x455D9, offset: 0x3650F1, size: 0x8, addend: 0x0, symName: '__ZN3syn10punctuated23Punctuated$LT$T$C$P$GT$10push_punct17hfbed3f5b6fa00fbfE', symObjAddr: 0xB9A0, symBinAddr: 0x8BCB0, symSize: 0x120 }
  - { offsetInCU: 0x45A5E, offset: 0x365576, size: 0x8, addend: 0x0, symName: '__ZN3syn10punctuated23Punctuated$LT$T$C$P$GT$3pop17h69e8e60024538083E', symObjAddr: 0xBAC0, symBinAddr: 0x8BDD0, symSize: 0xA0 }
  - { offsetInCU: 0x45E5D, offset: 0x365975, size: 0x8, addend: 0x0, symName: '__ZN3syn10punctuated23Punctuated$LT$T$C$P$GT$4push17hc1655cb815934489E', symObjAddr: 0xBB60, symBinAddr: 0x8BE70, symSize: 0x170 }
  - { offsetInCU: 0x4622B, offset: 0x365D43, size: 0x8, addend: 0x0, symName: '__ZN3syn10punctuated23Punctuated$LT$T$C$P$GT$21parse_terminated_with17h124b73cd374cc0f5E', symObjAddr: 0xBCD0, symBinAddr: 0x8BFE0, symSize: 0x220 }
  - { offsetInCU: 0x467F1, offset: 0x366309, size: 0x8, addend: 0x0, symName: '__ZN3syn10punctuated23Punctuated$LT$T$C$P$GT$21parse_terminated_with17h7169b9f60635eaacE', symObjAddr: 0xBEF0, symBinAddr: 0x8C200, symSize: 0x3E0 }
  - { offsetInCU: 0x470FC, offset: 0x366C14, size: 0x8, addend: 0x0, symName: '__ZN3syn10punctuated23Punctuated$LT$T$C$P$GT$21parse_terminated_with17hf39ea62a3f36347dE', symObjAddr: 0xC2D0, symBinAddr: 0x8C5E0, symSize: 0x220 }
  - { offsetInCU: 0x476A8, offset: 0x3671C0, size: 0x8, addend: 0x0, symName: '__ZN3syn10punctuated23Punctuated$LT$T$C$P$GT$21parse_terminated_with17hf813a9f490e11643E', symObjAddr: 0xC4F0, symBinAddr: 0x8C800, symSize: 0x3E0 }
  - { offsetInCU: 0x2AC3, offset: 0x370297, size: 0x8, addend: 0x0, symName: '__ZN3syn4expr8printing77_$LT$impl$u20$quote..to_tokens..ToTokens$u20$for$u20$syn..expr..ExprArray$GT$9to_tokens17h2ef9833ff7ff7fceE', symObjAddr: 0x10970, symBinAddr: 0x9C810, symSize: 0x90 }
  - { offsetInCU: 0x2C8D, offset: 0x370461, size: 0x8, addend: 0x0, symName: '__ZN3syn4expr8printing77_$LT$impl$u20$quote..to_tokens..ToTokens$u20$for$u20$syn..expr..ExprAsync$GT$9to_tokens17h2495d6e29bb4a201E', symObjAddr: 0x10A10, symBinAddr: 0x9C8A0, symSize: 0x170 }
  - { offsetInCU: 0x3140, offset: 0x370914, size: 0x8, addend: 0x0, symName: '__ZN3syn4expr8printing77_$LT$impl$u20$quote..to_tokens..ToTokens$u20$for$u20$syn..expr..ExprBlock$GT$9to_tokens17hdd73246d789555d5E', symObjAddr: 0x10BA0, symBinAddr: 0x9CA10, symSize: 0x100 }
  - { offsetInCU: 0x34C7, offset: 0x370C9B, size: 0x8, addend: 0x0, symName: '__ZN3syn4expr8printing79_$LT$impl$u20$quote..to_tokens..ToTokens$u20$for$u20$syn..expr..ExprClosure$GT$9to_tokens17h0d6ce1172208619dE', symObjAddr: 0x10CD0, symBinAddr: 0x9CB10, symSize: 0x400 }
  - { offsetInCU: 0x40FA, offset: 0x3718CE, size: 0x8, addend: 0x0, symName: '__ZN3syn4expr8printing77_$LT$impl$u20$quote..to_tokens..ToTokens$u20$for$u20$syn..expr..ExprConst$GT$9to_tokens17hcaf2e3202a16c77aE', symObjAddr: 0x110D0, symBinAddr: 0x9CF10, symSize: 0x100 }
  - { offsetInCU: 0x43A9, offset: 0x371B7D, size: 0x8, addend: 0x0, symName: '__ZN3syn4expr8printing80_$LT$impl$u20$quote..to_tokens..ToTokens$u20$for$u20$syn..expr..ExprContinue$GT$9to_tokens17hebd76b9e5d479ff4E', symObjAddr: 0x111D0, symBinAddr: 0x9D010, symSize: 0x140 }
  - { offsetInCU: 0x47D8, offset: 0x371FAC, size: 0x8, addend: 0x0, symName: '__ZN3syn4expr8printing77_$LT$impl$u20$quote..to_tokens..ToTokens$u20$for$u20$syn..expr..ExprGroup$GT$9to_tokens17h43695a0f104bbad3E', symObjAddr: 0x11560, symBinAddr: 0x9D150, symSize: 0x90 }
  - { offsetInCU: 0x4975, offset: 0x372149, size: 0x8, addend: 0x0, symName: '__ZN3syn4expr8printing74_$LT$impl$u20$quote..to_tokens..ToTokens$u20$for$u20$syn..expr..ExprIf$GT$9to_tokens17h925864585cd53cb7E', symObjAddr: 0x115F0, symBinAddr: 0x9D1E0, symSize: 0x3D0 }
  - { offsetInCU: 0x545C, offset: 0x372C30, size: 0x8, addend: 0x0, symName: '__ZN3syn4expr8printing77_$LT$impl$u20$quote..to_tokens..ToTokens$u20$for$u20$syn..expr..ExprInfer$GT$9to_tokens17he40a1f0c107707dbE', symObjAddr: 0x119D0, symBinAddr: 0x9D5B0, symSize: 0xF0 }
  - { offsetInCU: 0x5708, offset: 0x372EDC, size: 0x8, addend: 0x0, symName: '__ZN3syn4expr8printing75_$LT$impl$u20$quote..to_tokens..ToTokens$u20$for$u20$syn..expr..ExprLit$GT$9to_tokens17ha9f3a462aa7f9b8cE', symObjAddr: 0x11AD0, symBinAddr: 0x9D6A0, symSize: 0x80 }
  - { offsetInCU: 0x589B, offset: 0x37306F, size: 0x8, addend: 0x0, symName: '__ZN3syn4expr8printing76_$LT$impl$u20$quote..to_tokens..ToTokens$u20$for$u20$syn..expr..ExprLoop$GT$9to_tokens17hc6f1b6becf15eae4E', symObjAddr: 0x11B50, symBinAddr: 0x9D720, symSize: 0x170 }
  - { offsetInCU: 0x5CB9, offset: 0x37348D, size: 0x8, addend: 0x0, symName: '__ZN3syn4expr8printing77_$LT$impl$u20$quote..to_tokens..ToTokens$u20$for$u20$syn..expr..ExprMacro$GT$9to_tokens17h1aad6dcc7b88acf6E', symObjAddr: 0x11CC0, symBinAddr: 0x9D890, symSize: 0x90 }
  - { offsetInCU: 0x5EA4, offset: 0x373678, size: 0x8, addend: 0x0, symName: '__ZN3syn4expr8printing77_$LT$impl$u20$quote..to_tokens..ToTokens$u20$for$u20$syn..expr..ExprParen$GT$9to_tokens17hf25c89af93be7f23E', symObjAddr: 0x11ED0, symBinAddr: 0x9D920, symSize: 0x90 }
  - { offsetInCU: 0x6041, offset: 0x373815, size: 0x8, addend: 0x0, symName: '__ZN3syn4expr8printing76_$LT$impl$u20$quote..to_tokens..ToTokens$u20$for$u20$syn..expr..ExprPath$GT$9to_tokens17hab4f628f5b9ed40bE', symObjAddr: 0x11F60, symBinAddr: 0x9D9B0, symSize: 0x90 }
  - { offsetInCU: 0x622E, offset: 0x373A02, size: 0x8, addend: 0x0, symName: '__ZN3syn4expr8printing78_$LT$impl$u20$quote..to_tokens..ToTokens$u20$for$u20$syn..expr..ExprRepeat$GT$9to_tokens17h7f259068e0bd4858E', symObjAddr: 0x12010, symBinAddr: 0x9DA40, symSize: 0x90 }
  - { offsetInCU: 0x63EC, offset: 0x373BC0, size: 0x8, addend: 0x0, symName: '__ZN3syn4expr8printing78_$LT$impl$u20$quote..to_tokens..ToTokens$u20$for$u20$syn..expr..ExprStruct$GT$9to_tokens17h572ac1509ac9915cE', symObjAddr: 0x120B0, symBinAddr: 0x9DAD0, symSize: 0xA0 }
  - { offsetInCU: 0x65AD, offset: 0x373D81, size: 0x8, addend: 0x0, symName: '__ZN3syn4expr8printing80_$LT$impl$u20$quote..to_tokens..ToTokens$u20$for$u20$syn..expr..ExprTryBlock$GT$9to_tokens17h33126d9a5af6a3b9E', symObjAddr: 0x12160, symBinAddr: 0x9DB70, symSize: 0x100 }
  - { offsetInCU: 0x6882, offset: 0x374056, size: 0x8, addend: 0x0, symName: '__ZN3syn4expr8printing77_$LT$impl$u20$quote..to_tokens..ToTokens$u20$for$u20$syn..expr..ExprTuple$GT$9to_tokens17h802dba8012b208d4E', symObjAddr: 0x12260, symBinAddr: 0x9DC70, symSize: 0x90 }
  - { offsetInCU: 0x6A40, offset: 0x374214, size: 0x8, addend: 0x0, symName: '__ZN3syn4expr8printing78_$LT$impl$u20$quote..to_tokens..ToTokens$u20$for$u20$syn..expr..ExprUnsafe$GT$9to_tokens17h40aedefd13b3e1e7E', symObjAddr: 0x12300, symBinAddr: 0x9DD00, symSize: 0x100 }
  - { offsetInCU: 0x6D49, offset: 0x37451D, size: 0x8, addend: 0x0, symName: '__ZN3syn4expr8printing71_$LT$impl$u20$quote..to_tokens..ToTokens$u20$for$u20$syn..expr..Arm$GT$9to_tokens17h78a0e9de12a0eb67E', symObjAddr: 0x125E0, symBinAddr: 0x9DE00, symSize: 0x180 }
  - { offsetInCU: 0x70F2, offset: 0x3748C6, size: 0x8, addend: 0x0, symName: '__ZN3syn4expr8printing74_$LT$impl$u20$quote..to_tokens..ToTokens$u20$for$u20$syn..expr..Member$GT$9to_tokens17hfcc2f8d0a07457a9E', symObjAddr: 0x12970, symBinAddr: 0x9DF80, symSize: 0xD0 }
  - { offsetInCU: 0x7416, offset: 0x374BEA, size: 0x8, addend: 0x0, symName: '__ZN58_$LT$syn..expr..Member$u20$as$u20$core..cmp..PartialEq$GT$2eq17hcadddf9cb95716e8E', symObjAddr: 0x9200, symBinAddr: 0x95F30, symSize: 0x30 }
  - { offsetInCU: 0x7505, offset: 0x374CD9, size: 0x8, addend: 0x0, symName: '__ZN73_$LT$syn..expr..Index$u20$as$u20$quote..ident_fragment..IdentFragment$GT$3fmt17h18265218378a511cE', symObjAddr: 0x9290, symBinAddr: 0x95F60, symSize: 0x10 }
  - { offsetInCU: 0x754E, offset: 0x374D22, size: 0x8, addend: 0x0, symName: '__ZN3syn4expr7parsing63_$LT$impl$u20$syn..parse..Parse$u20$for$u20$syn..expr..Expr$GT$5parse17h55500ba46fd3498aE', symObjAddr: 0x92A0, symBinAddr: 0x95F70, symSize: 0x100 }
  - { offsetInCU: 0x75F6, offset: 0x374DCA, size: 0x8, addend: 0x0, symName: '__ZN3syn4expr7parsing66_$LT$impl$u20$syn..parse..Parse$u20$for$u20$syn..expr..ExprLit$GT$5parse17h503d2569d625f8d4E', symObjAddr: 0x9D30, symBinAddr: 0x96070, symSize: 0xD0 }
  - { offsetInCU: 0x76D5, offset: 0x374EA9, size: 0x8, addend: 0x0, symName: '__ZN3syn4expr7parsing65_$LT$impl$u20$syn..parse..Parse$u20$for$u20$syn..expr..ExprIf$GT$5parse17h47168d1e46c083ceE', symObjAddr: 0x9E40, symBinAddr: 0x96140, symSize: 0x1070 }
  - { offsetInCU: 0x9E5A, offset: 0x37762E, size: 0x8, addend: 0x0, symName: '__ZN3syn4expr7parsing68_$LT$impl$u20$syn..parse..Parse$u20$for$u20$syn..expr..ExprInfer$GT$5parse17h96cf775fe66799ebE', symObjAddr: 0xAEB0, symBinAddr: 0x971B0, symSize: 0x190 }
  - { offsetInCU: 0xA1CB, offset: 0x37799F, size: 0x8, addend: 0x0, symName: '__ZN3syn4expr7parsing70_$LT$impl$u20$syn..parse..Parse$u20$for$u20$syn..expr..ExprForLoop$GT$5parse17hce5f73eac4ad2dc4E', symObjAddr: 0xB040, symBinAddr: 0x97340, symSize: 0x9F0 }
  - { offsetInCU: 0xB3C7, offset: 0x378B9B, size: 0x8, addend: 0x0, symName: '__ZN3syn4expr7parsing67_$LT$impl$u20$syn..parse..Parse$u20$for$u20$syn..expr..ExprLoop$GT$5parse17h1aa74e5d000da669E', symObjAddr: 0xBA30, symBinAddr: 0x97D30, symSize: 0x600 }
  - { offsetInCU: 0xC017, offset: 0x3797EB, size: 0x8, addend: 0x0, symName: '__ZN3syn4expr7parsing68_$LT$impl$u20$syn..parse..Parse$u20$for$u20$syn..expr..ExprMatch$GT$5parse17h352dd08cf5c0778bE', symObjAddr: 0xC030, symBinAddr: 0x98330, symSize: 0x7F0 }
  - { offsetInCU: 0xC9E7, offset: 0x37A1BB, size: 0x8, addend: 0x0, symName: '__ZN3syn4expr7parsing69_$LT$impl$u20$syn..parse..Parse$u20$for$u20$syn..expr..ExprReturn$GT$5parse17h3d5bc077999de314E', symObjAddr: 0xCB30, symBinAddr: 0x98B20, symSize: 0x110 }
  - { offsetInCU: 0xCBCA, offset: 0x37A39E, size: 0x8, addend: 0x0, symName: '__ZN3syn4expr7parsing71_$LT$impl$u20$syn..parse..Parse$u20$for$u20$syn..expr..ExprTryBlock$GT$5parse17hce262d6454af1d4eE', symObjAddr: 0xCC40, symBinAddr: 0x98C30, symSize: 0x140 }
  - { offsetInCU: 0xCD49, offset: 0x37A51D, size: 0x8, addend: 0x0, symName: '__ZN3syn4expr7parsing68_$LT$impl$u20$syn..parse..Parse$u20$for$u20$syn..expr..ExprYield$GT$5parse17h17c1f052e1267cf9E', symObjAddr: 0xCD80, symBinAddr: 0x98D70, symSize: 0x110 }
  - { offsetInCU: 0xCF3A, offset: 0x37A70E, size: 0x8, addend: 0x0, symName: '__ZN3syn4expr7parsing68_$LT$impl$u20$syn..parse..Parse$u20$for$u20$syn..expr..ExprAsync$GT$5parse17h950490ecfb80e9a1E', symObjAddr: 0xCE90, symBinAddr: 0x98E80, symSize: 0x1C0 }
  - { offsetInCU: 0xD23B, offset: 0x37AA0F, size: 0x8, addend: 0x0, symName: '__ZN3syn4expr7parsing68_$LT$impl$u20$syn..parse..Parse$u20$for$u20$syn..expr..ExprWhile$GT$5parse17h571b14b3fd0af108E', symObjAddr: 0xD050, symBinAddr: 0x99040, symSize: 0x910 }
  - { offsetInCU: 0xE0C8, offset: 0x37B89C, size: 0x8, addend: 0x0, symName: '__ZN3syn4expr7parsing68_$LT$impl$u20$syn..parse..Parse$u20$for$u20$syn..expr..ExprConst$GT$5parse17h01369ed4345e6402E', symObjAddr: 0xD960, symBinAddr: 0x99950, symSize: 0x4B0 }
  - { offsetInCU: 0xE9EE, offset: 0x37C1C2, size: 0x8, addend: 0x0, symName: '__ZN3syn4expr7parsing64_$LT$impl$u20$syn..parse..Parse$u20$for$u20$syn..expr..Label$GT$5parse17h93d18de187bdc41eE', symObjAddr: 0xDE10, symBinAddr: 0x99E00, symSize: 0x1D0 }
  - { offsetInCU: 0xEF37, offset: 0x37C70B, size: 0x8, addend: 0x0, symName: '__ZN3syn4expr7parsing71_$LT$impl$u20$syn..parse..Parse$u20$for$u20$syn..expr..ExprContinue$GT$5parse17he5af0a754429df94E', symObjAddr: 0xDFE0, symBinAddr: 0x99FD0, symSize: 0x1A0 }
  - { offsetInCU: 0xF0B1, offset: 0x37C885, size: 0x8, addend: 0x0, symName: '__ZN3syn4expr7parsing69_$LT$impl$u20$syn..parse..Parse$u20$for$u20$syn..expr..FieldValue$GT$5parse17h9c84ab0cc06aa064E', symObjAddr: 0xE180, symBinAddr: 0x9A170, symSize: 0x660 }
  - { offsetInCU: 0xFA9B, offset: 0x37D26F, size: 0x8, addend: 0x0, symName: '__ZN3syn4expr7parsing69_$LT$impl$u20$syn..parse..Parse$u20$for$u20$syn..expr..ExprUnsafe$GT$5parse17he7d1a74465ffba81E', symObjAddr: 0xE930, symBinAddr: 0x9A7D0, symSize: 0x4B0 }
  - { offsetInCU: 0x103C1, offset: 0x37DB95, size: 0x8, addend: 0x0, symName: '__ZN3syn4expr7parsing68_$LT$impl$u20$syn..parse..Parse$u20$for$u20$syn..expr..ExprBlock$GT$5parse17h74103f700210131fE', symObjAddr: 0xEDE0, symBinAddr: 0x9AC80, symSize: 0x5E0 }
  - { offsetInCU: 0x11256, offset: 0x37EA2A, size: 0x8, addend: 0x0, symName: '__ZN3syn4expr7parsing70_$LT$impl$u20$syn..parse..Parse$u20$for$u20$syn..expr..RangeLimits$GT$5parse17hef78e73737c0f24cE', symObjAddr: 0xF3C0, symBinAddr: 0x9B260, symSize: 0x2F0 }
  - { offsetInCU: 0x11E82, offset: 0x37F656, size: 0x8, addend: 0x0, symName: '__ZN3syn4expr7parsing67_$LT$impl$u20$syn..parse..Parse$u20$for$u20$syn..expr..ExprPath$GT$5parse17haeeb72b62ac51e5cE', symObjAddr: 0xFA40, symBinAddr: 0x9B8E0, symSize: 0x2B0 }
  - { offsetInCU: 0x1224C, offset: 0x37FA20, size: 0x8, addend: 0x0, symName: '__ZN3syn4expr7parsing65_$LT$impl$u20$syn..parse..Parse$u20$for$u20$syn..expr..Member$GT$5parse17h60bbc140c6d22534E', symObjAddr: 0xFCF0, symBinAddr: 0x9BB90, symSize: 0x110 }
  - { offsetInCU: 0x1249F, offset: 0x37FC73, size: 0x8, addend: 0x0, symName: '__ZN3syn4expr7parsing62_$LT$impl$u20$syn..parse..Parse$u20$for$u20$syn..expr..Arm$GT$5parse17hbd2ba360fcc9627cE', symObjAddr: 0xFE00, symBinAddr: 0x9BCA0, symSize: 0x900 }
  - { offsetInCU: 0x132BC, offset: 0x380A90, size: 0x8, addend: 0x0, symName: '__ZN3syn4expr7parsing64_$LT$impl$u20$syn..parse..Parse$u20$for$u20$syn..expr..Index$GT$5parse17h213ef4a079d37babE', symObjAddr: 0x10700, symBinAddr: 0x9C5A0, symSize: 0x270 }
  - { offsetInCU: 0x139A9, offset: 0x38117D, size: 0x8, addend: 0x0, symName: '__ZN62_$LT$syn..expr..Expr$u20$as$u20$quote..to_tokens..ToTokens$GT$9to_tokens17h69a442f5848eec7cE', symObjAddr: 0x12AD0, symBinAddr: 0x9E050, symSize: 0x2F80 }
  - { offsetInCU: 0x1DFB1, offset: 0x38B785, size: 0x8, addend: 0x0, symName: '__ZN3syn3gen5clone63_$LT$impl$u20$core..clone..Clone$u20$for$u20$syn..expr..Arm$GT$5clone17h53aa09041e68e579E', symObjAddr: 0x18200, symBinAddr: 0xA0FD0, symSize: 0x1F0 }
  - { offsetInCU: 0x1E963, offset: 0x38C137, size: 0x8, addend: 0x0, symName: '__ZN3syn3gen5clone64_$LT$impl$u20$core..clone..Clone$u20$for$u20$syn..expr..Expr$GT$5clone17h514f3f764121797bE', symObjAddr: 0x183F0, symBinAddr: 0xA11C0, symSize: 0x1F40 }
  - { offsetInCU: 0x22BEA, offset: 0x3903BE, size: 0x8, addend: 0x0, symName: '__ZN3syn3gen5clone69_$LT$impl$u20$core..clone..Clone$u20$for$u20$syn..expr..ExprBlock$GT$5clone17he50df63feb0aac81E', symObjAddr: 0x1A870, symBinAddr: 0xA3100, symSize: 0x160 }
  - { offsetInCU: 0x22F31, offset: 0x390705, size: 0x8, addend: 0x0, symName: '__ZN3syn3gen5clone69_$LT$impl$u20$core..clone..Clone$u20$for$u20$syn..expr..ExprBreak$GT$5clone17h175ec6506dc8ea05E', symObjAddr: 0x1A9D0, symBinAddr: 0xA3260, symSize: 0x190 }
  - { offsetInCU: 0x234A4, offset: 0x390C78, size: 0x8, addend: 0x0, symName: '__ZN3syn3gen5clone71_$LT$impl$u20$core..clone..Clone$u20$for$u20$syn..expr..ExprClosure$GT$5clone17ha9bd9832e2a25c35E', symObjAddr: 0x1AE10, symBinAddr: 0xA33F0, symSize: 0x360 }
  - { offsetInCU: 0x23BD6, offset: 0x3913AA, size: 0x8, addend: 0x0, symName: '__ZN3syn3gen5clone71_$LT$impl$u20$core..clone..Clone$u20$for$u20$syn..expr..ExprForLoop$GT$5clone17h7dcc3a15fa9a1ad7E', symObjAddr: 0x1B440, symBinAddr: 0xA3750, symSize: 0x2D0 }
  - { offsetInCU: 0x24426, offset: 0x391BFA, size: 0x8, addend: 0x0, symName: '__ZN3syn3gen5clone66_$LT$impl$u20$core..clone..Clone$u20$for$u20$syn..expr..ExprIf$GT$5clone17heafdb7ddebd20aa8E', symObjAddr: 0x1B7F0, symBinAddr: 0xA3A20, symSize: 0x200 }
  - { offsetInCU: 0x249A1, offset: 0x392175, size: 0x8, addend: 0x0, symName: '__ZN3syn3gen5clone68_$LT$impl$u20$core..clone..Clone$u20$for$u20$syn..expr..ExprLoop$GT$5clone17h8d0e378c9d11b4faE', symObjAddr: 0x1BDC0, symBinAddr: 0xA3C20, symSize: 0x170 }
  - { offsetInCU: 0x24D16, offset: 0x3924EA, size: 0x8, addend: 0x0, symName: '__ZN3syn3gen5clone69_$LT$impl$u20$core..clone..Clone$u20$for$u20$syn..expr..ExprMatch$GT$5clone17ha6c11e0b0c716b5fE', symObjAddr: 0x1BFC0, symBinAddr: 0xA3D90, symSize: 0x140 }
  - { offsetInCU: 0x24FE1, offset: 0x3927B5, size: 0x8, addend: 0x0, symName: '__ZN3syn3gen5clone74_$LT$impl$u20$core..clone..Clone$u20$for$u20$syn..expr..ExprMethodCall$GT$5clone17h6eda847712eca907E', symObjAddr: 0x1C100, symBinAddr: 0xA3ED0, symSize: 0x340 }
  - { offsetInCU: 0x257D2, offset: 0x392FA6, size: 0x8, addend: 0x0, symName: '__ZN3syn3gen5clone68_$LT$impl$u20$core..clone..Clone$u20$for$u20$syn..expr..ExprPath$GT$5clone17h551c107546a23a5aE', symObjAddr: 0x1C520, symBinAddr: 0xA4210, symSize: 0x1A0 }
  - { offsetInCU: 0x25BA6, offset: 0x39337A, size: 0x8, addend: 0x0, symName: '__ZN3syn3gen5clone69_$LT$impl$u20$core..clone..Clone$u20$for$u20$syn..expr..ExprRange$GT$5clone17h17c522a22b98888cE', symObjAddr: 0x1C6C0, symBinAddr: 0xA43B0, symSize: 0x1A0 }
  - { offsetInCU: 0x260F9, offset: 0x3938CD, size: 0x8, addend: 0x0, symName: '__ZN3syn3gen5clone70_$LT$impl$u20$core..clone..Clone$u20$for$u20$syn..expr..ExprStruct$GT$5clone17ha9a3e7ffe6d95269E', symObjAddr: 0x1CAE0, symBinAddr: 0xA4550, symSize: 0x3C0 }
  - { offsetInCU: 0x269CF, offset: 0x3941A3, size: 0x8, addend: 0x0, symName: '__ZN3syn3gen5clone69_$LT$impl$u20$core..clone..Clone$u20$for$u20$syn..expr..ExprWhile$GT$5clone17h9beced0f1ab317ccE', symObjAddr: 0x1D060, symBinAddr: 0xA4910, symSize: 0x220 }
  - { offsetInCU: 0x26FAC, offset: 0x394780, size: 0x8, addend: 0x0, symName: '__ZN3syn3gen5clone70_$LT$impl$u20$core..clone..Clone$u20$for$u20$syn..expr..FieldValue$GT$5clone17h77ca3a84e53c5c6cE', symObjAddr: 0x1D370, symBinAddr: 0xA4B30, symSize: 0x150 }
  - { offsetInCU: 0x2A781, offset: 0x397F55, size: 0x8, addend: 0x0, symName: '__ZN4core3ptr100drop_in_place$LT$core..option..Option$LT$alloc..boxed..Box$LT$syn..path..GenericArgument$GT$$GT$$GT$17h7435c9de74860622E', symObjAddr: 0x150, symBinAddr: 0x8E490, symSize: 0x50 }
  - { offsetInCU: 0x2AB21, offset: 0x3982F5, size: 0x8, addend: 0x0, symName: '__ZN4core3ptr100drop_in_place$LT$syn..punctuated..Punctuated$LT$syn..path..PathSegment$C$syn..token..PathSep$GT$$GT$17hf414cb3581f8337aE', symObjAddr: 0x1A0, symBinAddr: 0x8E4E0, symSize: 0x260 }
  - { offsetInCU: 0x2B4BA, offset: 0x398C8E, size: 0x8, addend: 0x0, symName: '__ZN4core3ptr103drop_in_place$LT$core..option..Option$LT$alloc..boxed..Box$LT$syn..generics..TypeParamBound$GT$$GT$$GT$17h5974f03e36b1a9c3E', symObjAddr: 0x400, symBinAddr: 0x8E740, symSize: 0x50 }
  - { offsetInCU: 0x2B6C7, offset: 0x398E9B, size: 0x8, addend: 0x0, symName: '__ZN4core3ptr103drop_in_place$LT$syn..punctuated..Punctuated$LT$syn..generics..GenericParam$C$syn..token..Comma$GT$$GT$17hf42353fa44ed6da8E', symObjAddr: 0x450, symBinAddr: 0x8E790, symSize: 0xF0 }
  - { offsetInCU: 0x2BB8A, offset: 0x39935E, size: 0x8, addend: 0x0, symName: '__ZN4core3ptr104drop_in_place$LT$syn..punctuated..Punctuated$LT$syn..generics..TypeParamBound$C$syn..token..Plus$GT$$GT$17h532f52c4a894b056E', symObjAddr: 0x540, symBinAddr: 0x8E880, symSize: 0x190 }
  - { offsetInCU: 0x2C181, offset: 0x399955, size: 0x8, addend: 0x0, symName: '__ZN4core3ptr114drop_in_place$LT$core..option..Option$LT$$LP$syn..token..If$C$alloc..boxed..Box$LT$syn..expr..Expr$GT$$RP$$GT$$GT$17hd695c14b2d7f5b56E.llvm.589876701818171446', symObjAddr: 0x6D0, symBinAddr: 0x8EA10, symSize: 0x50 }
  - { offsetInCU: 0x2C317, offset: 0x399AEB, size: 0x8, addend: 0x0, symName: '__ZN4core3ptr116drop_in_place$LT$core..option..Option$LT$$LP$syn..token..Else$C$alloc..boxed..Box$LT$syn..expr..Expr$GT$$RP$$GT$$GT$17hce47d33a8602d206E', symObjAddr: 0x720, symBinAddr: 0x8EA60, symSize: 0x50 }
  - { offsetInCU: 0x2C551, offset: 0x399D25, size: 0x8, addend: 0x0, symName: '__ZN4core3ptr34drop_in_place$LT$syn..lit..Lit$GT$17h8902f5ff67917034E.llvm.589876701818171446', symObjAddr: 0x770, symBinAddr: 0x8EAB0, symSize: 0x110 }
  - { offsetInCU: 0x2CA8B, offset: 0x39A25F, size: 0x8, addend: 0x0, symName: '__ZN4core3ptr34drop_in_place$LT$syn..pat..Pat$GT$17h4581eea028ec0969E.llvm.589876701818171446', symObjAddr: 0x880, symBinAddr: 0x8EBC0, symSize: 0x1000 }
  - { offsetInCU: 0x305B0, offset: 0x39DD84, size: 0x8, addend: 0x0, symName: '__ZN4core3ptr34drop_in_place$LT$syn..ty..Type$GT$17h369e41ad4a9f1ae0E.llvm.589876701818171446', symObjAddr: 0x1880, symBinAddr: 0x8FBC0, symSize: 0x4F0 }
  - { offsetInCU: 0x3154A, offset: 0x39ED1E, size: 0x8, addend: 0x0, symName: '__ZN4core3ptr35drop_in_place$LT$syn..expr..Arm$GT$17hf2baebe0cd7aed98E', symObjAddr: 0x1D70, symBinAddr: 0x900B0, symSize: 0x180 }
  - { offsetInCU: 0x31FFC, offset: 0x39F7D0, size: 0x8, addend: 0x0, symName: '__ZN4core3ptr36drop_in_place$LT$syn..expr..Expr$GT$17h0f7fd4c749bae801E.llvm.589876701818171446', symObjAddr: 0x1EF0, symBinAddr: 0x90230, symSize: 0x2600 }
  - { offsetInCU: 0x3A8A7, offset: 0x3A807B, size: 0x8, addend: 0x0, symName: '__ZN4core3ptr36drop_in_place$LT$syn..mac..Macro$GT$17h4ffde962df30ebe2E.llvm.589876701818171446', symObjAddr: 0x44F0, symBinAddr: 0x92830, symSize: 0x40 }
  - { offsetInCU: 0x3A8E1, offset: 0x3A80B5, size: 0x8, addend: 0x0, symName: '__ZN4core3ptr36drop_in_place$LT$syn..path..Path$GT$17habea856181211e1cE.llvm.589876701818171446', symObjAddr: 0x4530, symBinAddr: 0x92870, symSize: 0x220 }
  - { offsetInCU: 0x3B254, offset: 0x3A8A28, size: 0x8, addend: 0x0, symName: '__ZN4core3ptr37drop_in_place$LT$syn..lit..LitInt$GT$17hdc2cb2f4b64b71f3E', symObjAddr: 0x4750, symBinAddr: 0x92A90, symSize: 0x70 }
  - { offsetInCU: 0x3B5D4, offset: 0x3A8DA8, size: 0x8, addend: 0x0, symName: '__ZN4core3ptr37drop_in_place$LT$syn..stmt..Block$GT$17hcc21a21cf949414cE.llvm.589876701818171446', symObjAddr: 0x47C0, symBinAddr: 0x92B00, symSize: 0xD0 }
  - { offsetInCU: 0x3B897, offset: 0x3A906B, size: 0x8, addend: 0x0, symName: '__ZN4core3ptr38drop_in_place$LT$syn..expr..ExprIf$GT$17h01a54a489d798b2dE', symObjAddr: 0x4890, symBinAddr: 0x92BD0, symSize: 0x200 }
  - { offsetInCU: 0x3C0BF, offset: 0x3A9893, size: 0x8, addend: 0x0, symName: '__ZN4core3ptr38drop_in_place$LT$syn..expr..Member$GT$17h022cbe5553aa40faE.llvm.589876701818171446', symObjAddr: 0x4A90, symBinAddr: 0x92DD0, symSize: 0x30 }
  - { offsetInCU: 0x3C1BC, offset: 0x3A9990, size: 0x8, addend: 0x0, symName: '__ZN4core3ptr39drop_in_place$LT$proc_macro2..Ident$GT$17h8101e88c3ac359d6E', symObjAddr: 0x4AD0, symBinAddr: 0x92E00, symSize: 0x30 }
  - { offsetInCU: 0x3C29A, offset: 0x3A9A6E, size: 0x8, addend: 0x0, symName: '__ZN4core3ptr40drop_in_place$LT$syn..ty..ReturnType$GT$17h02cf41e2fec63d90E', symObjAddr: 0x4E70, symBinAddr: 0x92E30, symSize: 0x50 }
  - { offsetInCU: 0x3C40C, offset: 0x3A9BE0, size: 0x8, addend: 0x0, symName: '__ZN4core3ptr41drop_in_place$LT$syn..expr..ExprConst$GT$17h725a13e551d9f276E', symObjAddr: 0x4EC0, symBinAddr: 0x92E80, symSize: 0x180 }
  - { offsetInCU: 0x3C961, offset: 0x3AA135, size: 0x8, addend: 0x0, symName: '__ZN4core3ptr44drop_in_place$LT$syn..lifetime..Lifetime$GT$17hf0cdec2e9ec456d6E', symObjAddr: 0x5770, symBinAddr: 0x93000, symSize: 0x30 }
  - { offsetInCU: 0x3CADA, offset: 0x3AA2AE, size: 0x8, addend: 0x0, symName: '__ZN4core3ptr44drop_in_place$LT$syn..parse..ParseBuffer$GT$17hd0dadba44a19aec2E', symObjAddr: 0x57A0, symBinAddr: 0x93030, symSize: 0x70 }
  - { offsetInCU: 0x3CF0F, offset: 0x3AA6E3, size: 0x8, addend: 0x0, symName: '__ZN4core3ptr45drop_in_place$LT$proc_macro2..TokenStream$GT$17h3405f6c513e9f6cbE.llvm.589876701818171446', symObjAddr: 0x5810, symBinAddr: 0x930A0, symSize: 0x140 }
  - { offsetInCU: 0x3D37E, offset: 0x3AAB52, size: 0x8, addend: 0x0, symName: '__ZN4core3ptr45drop_in_place$LT$syn..generics..TypeParam$GT$17he5eda51070b7de47E', symObjAddr: 0x5950, symBinAddr: 0x931E0, symSize: 0x230 }
  - { offsetInCU: 0x3DBD7, offset: 0x3AB3AB, size: 0x8, addend: 0x0, symName: '__ZN4core3ptr46drop_in_place$LT$syn..expr..ExprMethodCall$GT$17hdf90cc01d847f3e4E', symObjAddr: 0x5B80, symBinAddr: 0x93410, symSize: 0x320 }
  - { offsetInCU: 0x3E962, offset: 0x3AC136, size: 0x8, addend: 0x0, symName: '__ZN4core3ptr46drop_in_place$LT$syn..generics..ConstParam$GT$17hab0a58c4af8c549cE', symObjAddr: 0x5EA0, symBinAddr: 0x93730, symSize: 0x150 }
  - { offsetInCU: 0x3EE08, offset: 0x3AC5DC, size: 0x8, addend: 0x0, symName: '__ZN4core3ptr47drop_in_place$LT$syn..path..GenericArgument$GT$17h54f8794633f96823E', symObjAddr: 0x6020, symBinAddr: 0x93880, symSize: 0x4A0 }
  - { offsetInCU: 0x3FEAF, offset: 0x3AD683, size: 0x8, addend: 0x0, symName: '__ZN4core3ptr49drop_in_place$LT$syn..generics..LifetimeParam$GT$17h41a7c7a290ea6289E', symObjAddr: 0x64C0, symBinAddr: 0x93D20, symSize: 0xF0 }
  - { offsetInCU: 0x40269, offset: 0x3ADA3D, size: 0x8, addend: 0x0, symName: '__ZN4core3ptr50drop_in_place$LT$syn..generics..TypeParamBound$GT$17hcd7771d4c6c221efE', symObjAddr: 0x65B0, symBinAddr: 0x93E10, symSize: 0x160 }
  - { offsetInCU: 0x40689, offset: 0x3ADE5D, size: 0x8, addend: 0x0, symName: '__ZN4core3ptr58drop_in_place$LT$alloc..vec..Vec$LT$syn..expr..Arm$GT$$GT$17h1a55df3d2cba1daaE', symObjAddr: 0x6710, symBinAddr: 0x93F70, symSize: 0xD0 }
  - { offsetInCU: 0x40916, offset: 0x3AE0EA, size: 0x8, addend: 0x0, symName: '__ZN4core3ptr59drop_in_place$LT$alloc..boxed..Box$LT$syn..pat..Pat$GT$$GT$17h563b135d87aca8abE', symObjAddr: 0x67E0, symBinAddr: 0x94040, symSize: 0x50 }
  - { offsetInCU: 0x40A71, offset: 0x3AE245, size: 0x8, addend: 0x0, symName: '__ZN4core3ptr59drop_in_place$LT$alloc..boxed..Box$LT$syn..ty..Type$GT$$GT$17hffed36bad83adacbE', symObjAddr: 0x6830, symBinAddr: 0x94090, symSize: 0x50 }
  - { offsetInCU: 0x40BCC, offset: 0x3AE3A0, size: 0x8, addend: 0x0, symName: '__ZN4core3ptr59drop_in_place$LT$alloc..vec..Vec$LT$syn..stmt..Stmt$GT$$GT$17hb5c1acf3c61c43e2E', symObjAddr: 0x6880, symBinAddr: 0x940E0, symSize: 0xD0 }
  - { offsetInCU: 0x40E59, offset: 0x3AE62D, size: 0x8, addend: 0x0, symName: '__ZN4core3ptr61drop_in_place$LT$alloc..boxed..Box$LT$syn..expr..Expr$GT$$GT$17h01091e47f131475dE', symObjAddr: 0x6950, symBinAddr: 0x941B0, symSize: 0x50 }
  - { offsetInCU: 0x40FD3, offset: 0x3AE7A7, size: 0x8, addend: 0x0, symName: '__ZN4core3ptr61drop_in_place$LT$alloc..vec..Vec$LT$syn..expr..ExprIf$GT$$GT$17h0c094efa3006c900E', symObjAddr: 0x69A0, symBinAddr: 0x94200, symSize: 0xD0 }
  - { offsetInCU: 0x412DC, offset: 0x3AEAB0, size: 0x8, addend: 0x0, symName: '__ZN4core3ptr61drop_in_place$LT$syn..path..ParenthesizedGenericArguments$GT$17h43d4aac5494326a7E', symObjAddr: 0x6A70, symBinAddr: 0x942D0, symSize: 0x170 }
  - { offsetInCU: 0x418A3, offset: 0x3AF077, size: 0x8, addend: 0x0, symName: '__ZN4core3ptr62drop_in_place$LT$syn..path..AngleBracketedGenericArguments$GT$17hc5b69f68243636ddE', symObjAddr: 0x6BE0, symBinAddr: 0x94440, symSize: 0x120 }
  - { offsetInCU: 0x41CB9, offset: 0x3AF48D, size: 0x8, addend: 0x0, symName: '__ZN4core3ptr63drop_in_place$LT$alloc..boxed..Box$LT$syn..lit..LitRepr$GT$$GT$17hd8839b7fb35ee7afE', symObjAddr: 0x6D00, symBinAddr: 0x94560, symSize: 0x60 }
  - { offsetInCU: 0x41FAE, offset: 0x3AF782, size: 0x8, addend: 0x0, symName: '__ZN4core3ptr64drop_in_place$LT$alloc..boxed..Box$LT$syn..pat..FieldPat$GT$$GT$17h4980b70a7597cc08E', symObjAddr: 0x6D60, symBinAddr: 0x945C0, symSize: 0x140 }
  - { offsetInCU: 0x42659, offset: 0x3AFE2D, size: 0x8, addend: 0x0, symName: '__ZN4core3ptr64drop_in_place$LT$alloc..boxed..Box$LT$syn..ty..BareFnArg$GT$$GT$17h8b34096c620314efE', symObjAddr: 0x6EA0, symBinAddr: 0x94700, symSize: 0x140 }
  - { offsetInCU: 0x42B7D, offset: 0x3B0351, size: 0x8, addend: 0x0, symName: '__ZN4core3ptr64drop_in_place$LT$alloc..vec..Vec$LT$syn..attr..Attribute$GT$$GT$17h3c8f2a04e701c675E.llvm.589876701818171446', symObjAddr: 0x6FE0, symBinAddr: 0x94840, symSize: 0xD0 }
  - { offsetInCU: 0x42E0A, offset: 0x3B05DE, size: 0x8, addend: 0x0, symName: '__ZN4core3ptr65drop_in_place$LT$core..option..Option$LT$syn..expr..Label$GT$$GT$17h78189e72a8cb7951E', symObjAddr: 0x70B0, symBinAddr: 0x94910, symSize: 0x30 }
  - { offsetInCU: 0x42F45, offset: 0x3B0719, size: 0x8, addend: 0x0, symName: '__ZN4core3ptr65drop_in_place$LT$core..option..Option$LT$syn..path..QSelf$GT$$GT$17h9b72552ca06b7379E.llvm.589876701818171446', symObjAddr: 0x70E0, symBinAddr: 0x94940, symSize: 0x50 }
  - { offsetInCU: 0x430DE, offset: 0x3B08B2, size: 0x8, addend: 0x0, symName: '__ZN4core3ptr66drop_in_place$LT$core..option..Option$LT$syn..pat..PatRest$GT$$GT$17h61677cf4ff3a7393E', symObjAddr: 0x7130, symBinAddr: 0x94990, symSize: 0xE0 }
  - { offsetInCU: 0x43362, offset: 0x3B0B36, size: 0x8, addend: 0x0, symName: '__ZN4core3ptr67drop_in_place$LT$alloc..boxed..Box$LT$syn..expr..FieldValue$GT$$GT$17h93aaccf8aa22ef88E', symObjAddr: 0x7210, symBinAddr: 0x94A70, symSize: 0x140 }
  - { offsetInCU: 0x43866, offset: 0x3B103A, size: 0x8, addend: 0x0, symName: '__ZN4core3ptr68drop_in_place$LT$alloc..boxed..Box$LT$syn..path..PathSegment$GT$$GT$17h709dabdc13b58a71E', symObjAddr: 0x7350, symBinAddr: 0x94BB0, symSize: 0x190 }
  - { offsetInCU: 0x43F44, offset: 0x3B1718, size: 0x8, addend: 0x0, symName: '__ZN4core3ptr70drop_in_place$LT$core..option..Option$LT$syn..ty..BareVariadic$GT$$GT$17h45399348ea4b8d55E', symObjAddr: 0x74E0, symBinAddr: 0x94D40, symSize: 0x120 }
  - { offsetInCU: 0x44471, offset: 0x3B1C45, size: 0x8, addend: 0x0, symName: '__ZN4core3ptr72drop_in_place$LT$alloc..boxed..Box$LT$syn..path..GenericArgument$GT$$GT$17haa7dd8b716637b54E', symObjAddr: 0x7600, symBinAddr: 0x94E60, symSize: 0x1D0 }
  - { offsetInCU: 0x44A14, offset: 0x3B21E8, size: 0x8, addend: 0x0, symName: '__ZN4core3ptr72drop_in_place$LT$core..option..Option$LT$syn..lifetime..Lifetime$GT$$GT$17hfc363ccdd8bd9c32E', symObjAddr: 0x77D0, symBinAddr: 0x95030, symSize: 0x30 }
  - { offsetInCU: 0x44B30, offset: 0x3B2304, size: 0x8, addend: 0x0, symName: '__ZN4core3ptr73drop_in_place$LT$alloc..boxed..Box$LT$syn..generics..GenericParam$GT$$GT$17hf6951dcd5ae07324E', symObjAddr: 0x7800, symBinAddr: 0x95060, symSize: 0x80 }
  - { offsetInCU: 0x44CA8, offset: 0x3B247C, size: 0x8, addend: 0x0, symName: '__ZN4core3ptr75drop_in_place$LT$alloc..boxed..Box$LT$syn..generics..TypeParamBound$GT$$GT$17he61c00698a311a34E', symObjAddr: 0x7880, symBinAddr: 0x950E0, symSize: 0xB0 }
  - { offsetInCU: 0x45003, offset: 0x3B27D7, size: 0x8, addend: 0x0, symName: '__ZN4core3ptr86drop_in_place$LT$syn..punctuated..Punctuated$LT$syn..pat..Pat$C$syn..token..Or$GT$$GT$17h8e9173df21a44316E', symObjAddr: 0x7950, symBinAddr: 0x95190, symSize: 0x120 }
  - { offsetInCU: 0x45449, offset: 0x3B2C1D, size: 0x8, addend: 0x0, symName: '__ZN4core3ptr87drop_in_place$LT$core..option..Option$LT$alloc..boxed..Box$LT$syn..pat..Pat$GT$$GT$$GT$17hd7b7c69f601b3926E', symObjAddr: 0x7A70, symBinAddr: 0x952B0, symSize: 0x50 }
  - { offsetInCU: 0x455BB, offset: 0x3B2D8F, size: 0x8, addend: 0x0, symName: '__ZN4core3ptr87drop_in_place$LT$core..option..Option$LT$alloc..boxed..Box$LT$syn..ty..Type$GT$$GT$$GT$17hd74f5d971aec2972E', symObjAddr: 0x7AC0, symBinAddr: 0x95300, symSize: 0x50 }
  - { offsetInCU: 0x4572D, offset: 0x3B2F01, size: 0x8, addend: 0x0, symName: '__ZN4core3ptr88drop_in_place$LT$$LP$syn..token..Else$C$alloc..boxed..Box$LT$syn..expr..Expr$GT$$RP$$GT$17hba8984e392f62c24E', symObjAddr: 0x7B10, symBinAddr: 0x95350, symSize: 0x50 }
  - { offsetInCU: 0x458A7, offset: 0x3B307B, size: 0x8, addend: 0x0, symName: '__ZN4core3ptr89drop_in_place$LT$core..option..Option$LT$alloc..boxed..Box$LT$syn..expr..Expr$GT$$GT$$GT$17h8e135ac1a25a2dc5E.llvm.589876701818171446', symObjAddr: 0x7B60, symBinAddr: 0x953A0, symSize: 0x50 }
  - { offsetInCU: 0x45A57, offset: 0x3B322B, size: 0x8, addend: 0x0, symName: '__ZN4core3ptr89drop_in_place$LT$syn..punctuated..Punctuated$LT$syn..pat..Pat$C$syn..token..Comma$GT$$GT$17h8d60e47f3fb1f87aE', symObjAddr: 0x7BB0, symBinAddr: 0x953F0, symSize: 0x120 }
  - { offsetInCU: 0x45EB4, offset: 0x3B3688, size: 0x8, addend: 0x0, symName: '__ZN4core3ptr89drop_in_place$LT$syn..punctuated..Punctuated$LT$syn..ty..Type$C$syn..token..Comma$GT$$GT$17ha919b3114742fb9dE', symObjAddr: 0x7CD0, symBinAddr: 0x95510, symSize: 0x120 }
  - { offsetInCU: 0x462FE, offset: 0x3B3AD2, size: 0x8, addend: 0x0, symName: '__ZN4core3ptr90drop_in_place$LT$core..option..Option$LT$syn..path..AngleBracketedGenericArguments$GT$$GT$17h80d9a5f0818c8bd9E', symObjAddr: 0x7DF0, symBinAddr: 0x95630, symSize: 0x130 }
  - { offsetInCU: 0x4672B, offset: 0x3B3EFF, size: 0x8, addend: 0x0, symName: '__ZN4core3ptr91drop_in_place$LT$syn..punctuated..Punctuated$LT$syn..expr..Expr$C$syn..token..Comma$GT$$GT$17h4f39b83dc86a4159E', symObjAddr: 0x7F20, symBinAddr: 0x95760, symSize: 0x120 }
  - { offsetInCU: 0x46B75, offset: 0x3B4349, size: 0x8, addend: 0x0, symName: '__ZN4core3ptr94drop_in_place$LT$syn..punctuated..Punctuated$LT$syn..pat..FieldPat$C$syn..token..Comma$GT$$GT$17h112950ea198c8281E', symObjAddr: 0x8040, symBinAddr: 0x95880, symSize: 0xF0 }
  - { offsetInCU: 0x46E3F, offset: 0x3B4613, size: 0x8, addend: 0x0, symName: '__ZN4core3ptr94drop_in_place$LT$syn..punctuated..Punctuated$LT$syn..ty..BareFnArg$C$syn..token..Comma$GT$$GT$17h1c7b44310f06243dE', symObjAddr: 0x8130, symBinAddr: 0x95970, symSize: 0xF0 }
  - { offsetInCU: 0x47109, offset: 0x3B48DD, size: 0x8, addend: 0x0, symName: '__ZN4core3ptr95drop_in_place$LT$core..option..Option$LT$$LP$proc_macro2..Ident$C$syn..token..Colon$RP$$GT$$GT$17ha744bf0f41959716E', symObjAddr: 0x8220, symBinAddr: 0x95A60, symSize: 0x30 }
  - { offsetInCU: 0x47225, offset: 0x3B49F9, size: 0x8, addend: 0x0, symName: '__ZN4core3ptr96drop_in_place$LT$core..option..Option$LT$alloc..boxed..Box$LT$syn..path..PathSegment$GT$$GT$$GT$17hb447d0f626c86a4eE', symObjAddr: 0x8250, symBinAddr: 0x95A90, symSize: 0x90 }
  - { offsetInCU: 0x474A7, offset: 0x3B4C7B, size: 0x8, addend: 0x0, symName: '__ZN4core3ptr97drop_in_place$LT$syn..punctuated..Punctuated$LT$syn..expr..FieldValue$C$syn..token..Comma$GT$$GT$17h31b81f7462228dcbE', symObjAddr: 0x82E0, symBinAddr: 0x95B20, symSize: 0xF0 }
  - { offsetInCU: 0x477ED, offset: 0x3B4FC1, size: 0x8, addend: 0x0, symName: '__ZN4core3ptr98drop_in_place$LT$syn..punctuated..Punctuated$LT$syn..lifetime..Lifetime$C$syn..token..Plus$GT$$GT$17h0f8fc5f20f465f47E', symObjAddr: 0x83D0, symBinAddr: 0x95C10, symSize: 0xC0 }
  - { offsetInCU: 0x4E285, offset: 0x3BBA59, size: 0x8, addend: 0x0, symName: '__ZN69_$LT$alloc..boxed..Box$LT$T$C$A$GT$$u20$as$u20$core..clone..Clone$GT$5clone17h3b3509f8065d1aa7E', symObjAddr: 0x8B90, symBinAddr: 0x95CD0, symSize: 0x90 }
  - { offsetInCU: 0x4FD2A, offset: 0x3BD4FE, size: 0x8, addend: 0x0, symName: __ZN3syn4expr4Expr13replace_attrs17h8f3cf7f80b801d36E, symObjAddr: 0x8FE0, symBinAddr: 0x95D60, symSize: 0x1D0 }
  - { offsetInCU: 0x50F4E, offset: 0x3BE722, size: 0x8, addend: 0x0, symName: '__ZN3syn4expr7parsing40_$LT$impl$u20$syn..expr..RangeLimits$GT$14parse_obsolete17he567255c2d646d59E', symObjAddr: 0xF6B0, symBinAddr: 0x9B550, symSize: 0x390 }
  - { offsetInCU: 0x1090, offset: 0x3CBEF6, size: 0x8, addend: 0x0, symName: '__ZN42_$LT$$RF$T$u20$as$u20$core..fmt..Debug$GT$3fmt17he3619b2352a5e524E', symObjAddr: 0x180, symBinAddr: 0xA4D20, symSize: 0x80 }
  - { offsetInCU: 0x30BD, offset: 0x3CDF23, size: 0x8, addend: 0x0, symName: '__ZN4core3ptr100drop_in_place$LT$core..option..Option$LT$alloc..boxed..Box$LT$syn..path..GenericArgument$GT$$GT$$GT$17h7435c9de74860622E.llvm.2618680253894991198', symObjAddr: 0x280, symBinAddr: 0xA4DA0, symSize: 0x50 }
  - { offsetInCU: 0x3400, offset: 0x3CE266, size: 0x8, addend: 0x0, symName: '__ZN4core3ptr100drop_in_place$LT$syn..punctuated..Punctuated$LT$syn..path..PathSegment$C$syn..token..PathSep$GT$$GT$17hf414cb3581f8337aE.llvm.2618680253894991198', symObjAddr: 0x2D0, symBinAddr: 0xA4DF0, symSize: 0x1A0 }
  - { offsetInCU: 0x3AD8, offset: 0x3CE93E, size: 0x8, addend: 0x0, symName: '__ZN4core3ptr101drop_in_place$LT$core..option..Option$LT$alloc..boxed..Box$LT$syn..generics..GenericParam$GT$$GT$$GT$17hd5dce04b35fda9feE', symObjAddr: 0x470, symBinAddr: 0xA4F90, symSize: 0x50 }
  - { offsetInCU: 0x3CC6, offset: 0x3CEB2C, size: 0x8, addend: 0x0, symName: '__ZN4core3ptr102drop_in_place$LT$syn..punctuated..Punctuated$LT$syn..path..GenericArgument$C$syn..token..Comma$GT$$GT$17h39496ba4e6dba6cfE.llvm.2618680253894991198', symObjAddr: 0x4C0, symBinAddr: 0xA4FE0, symSize: 0xF0 }
  - { offsetInCU: 0x3FAF, offset: 0x3CEE15, size: 0x8, addend: 0x0, symName: '__ZN4core3ptr103drop_in_place$LT$core..option..Option$LT$alloc..boxed..Box$LT$syn..generics..TypeParamBound$GT$$GT$$GT$17h5974f03e36b1a9c3E.llvm.2618680253894991198', symObjAddr: 0x5B0, symBinAddr: 0xA50D0, symSize: 0x50 }
  - { offsetInCU: 0x4140, offset: 0x3CEFA6, size: 0x8, addend: 0x0, symName: '__ZN4core3ptr103drop_in_place$LT$core..option..Option$LT$alloc..boxed..Box$LT$syn..generics..WherePredicate$GT$$GT$$GT$17hdd5111a374d8d6f2E', symObjAddr: 0x600, symBinAddr: 0xA5120, symSize: 0x50 }
  - { offsetInCU: 0x436C, offset: 0x3CF1D2, size: 0x8, addend: 0x0, symName: '__ZN4core3ptr103drop_in_place$LT$syn..punctuated..Punctuated$LT$syn..generics..GenericParam$C$syn..token..Comma$GT$$GT$17hf42353fa44ed6da8E.llvm.2618680253894991198', symObjAddr: 0x650, symBinAddr: 0xA5170, symSize: 0x1A0 }
  - { offsetInCU: 0x493B, offset: 0x3CF7A1, size: 0x8, addend: 0x0, symName: '__ZN4core3ptr104drop_in_place$LT$syn..punctuated..Punctuated$LT$syn..generics..TypeParamBound$C$syn..token..Plus$GT$$GT$17h532f52c4a894b056E.llvm.2618680253894991198', symObjAddr: 0x7F0, symBinAddr: 0xA5310, symSize: 0x230 }
  - { offsetInCU: 0x526C, offset: 0x3D00D2, size: 0x8, addend: 0x0, symName: '__ZN4core3ptr105drop_in_place$LT$syn..punctuated..Punctuated$LT$syn..generics..WherePredicate$C$syn..token..Comma$GT$$GT$17h935f9826ba562349E', symObjAddr: 0xA20, symBinAddr: 0xA5540, symSize: 0x190 }
  - { offsetInCU: 0x593D, offset: 0x3D07A3, size: 0x8, addend: 0x0, symName: '__ZN4core3ptr116drop_in_place$LT$core..option..Option$LT$$LP$syn..token..Else$C$alloc..boxed..Box$LT$syn..expr..Expr$GT$$RP$$GT$$GT$17hce47d33a8602d206E', symObjAddr: 0xBB0, symBinAddr: 0xA56D0, symSize: 0x50 }
  - { offsetInCU: 0x5AFB, offset: 0x3D0961, size: 0x8, addend: 0x0, symName: '__ZN4core3ptr126drop_in_place$LT$core..option..Option$LT$$LP$syn..token..And$C$core..option..Option$LT$syn..lifetime..Lifetime$GT$$RP$$GT$$GT$17hc269ac95805979aaE', symObjAddr: 0xC00, symBinAddr: 0xA5720, symSize: 0x30 }
  - { offsetInCU: 0x5D8B, offset: 0x3D0BF1, size: 0x8, addend: 0x0, symName: '__ZN4core3ptr33drop_in_place$LT$syn..ty..Abi$GT$17h82d9e208356e7513E', symObjAddr: 0xC30, symBinAddr: 0xA5750, symSize: 0x60 }
  - { offsetInCU: 0x5DA7, offset: 0x3D0C0D, size: 0x8, addend: 0x0, symName: '__ZN4core3ptr33drop_in_place$LT$syn..ty..Abi$GT$17h82d9e208356e7513E', symObjAddr: 0xC30, symBinAddr: 0xA5750, symSize: 0x60 }
  - { offsetInCU: 0x60A1, offset: 0x3D0F07, size: 0x8, addend: 0x0, symName: '__ZN4core3ptr34drop_in_place$LT$syn..lit..Lit$GT$17h8902f5ff67917034E', symObjAddr: 0xC90, symBinAddr: 0xA57B0, symSize: 0x110 }
  - { offsetInCU: 0x6619, offset: 0x3D147F, size: 0x8, addend: 0x0, symName: '__ZN4core3ptr34drop_in_place$LT$syn..pat..Pat$GT$17h4581eea028ec0969E.llvm.2618680253894991198', symObjAddr: 0xDA0, symBinAddr: 0xA58C0, symSize: 0xF50 }
  - { offsetInCU: 0xA0B8, offset: 0x3D4F1E, size: 0x8, addend: 0x0, symName: '__ZN4core3ptr34drop_in_place$LT$syn..ty..Type$GT$17h369e41ad4a9f1ae0E.llvm.2618680253894991198', symObjAddr: 0x1CF0, symBinAddr: 0xA6810, symSize: 0x4E0 }
  - { offsetInCU: 0xB181, offset: 0x3D5FE7, size: 0x8, addend: 0x0, symName: '__ZN4core3ptr35drop_in_place$LT$syn..expr..Arm$GT$17hf2baebe0cd7aed98E.llvm.2618680253894991198', symObjAddr: 0x21D0, symBinAddr: 0xA6CF0, symSize: 0x190 }
  - { offsetInCU: 0xB765, offset: 0x3D65CB, size: 0x8, addend: 0x0, symName: '__ZN4core3ptr36drop_in_place$LT$syn..attr..Meta$GT$17hceda0eaca68b0dd1E.llvm.2618680253894991198', symObjAddr: 0x2360, symBinAddr: 0xA6E80, symSize: 0x220 }
  - { offsetInCU: 0xC264, offset: 0x3D70CA, size: 0x8, addend: 0x0, symName: '__ZN4core3ptr36drop_in_place$LT$syn..expr..Expr$GT$17h0f7fd4c749bae801E.llvm.2618680253894991198', symObjAddr: 0x2580, symBinAddr: 0xA70A0, symSize: 0x2680 }
  - { offsetInCU: 0x15AE3, offset: 0x3E0949, size: 0x8, addend: 0x0, symName: '__ZN4core3ptr36drop_in_place$LT$syn..item..Item$GT$17h13f5a53479ba6379E.llvm.2618680253894991198', symObjAddr: 0x4C00, symBinAddr: 0xA9720, symSize: 0x17D0 }
  - { offsetInCU: 0x1AFE2, offset: 0x3E5E48, size: 0x8, addend: 0x0, symName: '__ZN4core3ptr36drop_in_place$LT$syn..mac..Macro$GT$17h4ffde962df30ebe2E', symObjAddr: 0x63D0, symBinAddr: 0xAAEF0, symSize: 0xE0 }
  - { offsetInCU: 0x1B2EC, offset: 0x3E6152, size: 0x8, addend: 0x0, symName: '__ZN4core3ptr36drop_in_place$LT$syn..path..Path$GT$17habea856181211e1cE.llvm.2618680253894991198', symObjAddr: 0x64B0, symBinAddr: 0xAAFD0, symSize: 0x150 }
  - { offsetInCU: 0x1B899, offset: 0x3E66FF, size: 0x8, addend: 0x0, symName: '__ZN4core3ptr36drop_in_place$LT$syn..stmt..Stmt$GT$17h7826ed37cb9634e5E.llvm.2618680253894991198', symObjAddr: 0x6600, symBinAddr: 0xAB120, symSize: 0x380 }
  - { offsetInCU: 0x1C465, offset: 0x3E72CB, size: 0x8, addend: 0x0, symName: '__ZN4core3ptr37drop_in_place$LT$syn..data..Field$GT$17h8ecf6e22a67a3b36E.llvm.2618680253894991198', symObjAddr: 0x6980, symBinAddr: 0xAB4A0, symSize: 0x180 }
  - { offsetInCU: 0x1CA2A, offset: 0x3E7890, size: 0x8, addend: 0x0, symName: '__ZN4core3ptr37drop_in_place$LT$syn..item..FnArg$GT$17h3308e115b3b3c9adE.llvm.2618680253894991198', symObjAddr: 0x6B00, symBinAddr: 0xAB620, symSize: 0x230 }
  - { offsetInCU: 0x1D2DC, offset: 0x3E8142, size: 0x8, addend: 0x0, symName: '__ZN4core3ptr37drop_in_place$LT$syn..stmt..Block$GT$17hcc21a21cf949414cE', symObjAddr: 0x6D30, symBinAddr: 0xAB850, symSize: 0xD0 }
  - { offsetInCU: 0x1D580, offset: 0x3E83E6, size: 0x8, addend: 0x0, symName: '__ZN4core3ptr38drop_in_place$LT$syn..expr..ExprIf$GT$17h01a54a489d798b2dE.llvm.2618680253894991198', symObjAddr: 0x6E00, symBinAddr: 0xAB920, symSize: 0x1B0 }
  - { offsetInCU: 0x1DDEA, offset: 0x3E8C50, size: 0x8, addend: 0x0, symName: '__ZN4core3ptr38drop_in_place$LT$syn..expr..Member$GT$17h022cbe5553aa40faE.llvm.2618680253894991198', symObjAddr: 0x6FB0, symBinAddr: 0xABAD0, symSize: 0x30 }
  - { offsetInCU: 0x1DEE7, offset: 0x3E8D4D, size: 0x8, addend: 0x0, symName: '__ZN4core3ptr38drop_in_place$LT$syn..pat..PatType$GT$17hcbbce80a195201a4E.llvm.2618680253894991198', symObjAddr: 0x6FE0, symBinAddr: 0xABB00, symSize: 0x140 }
  - { offsetInCU: 0x1E463, offset: 0x3E92C9, size: 0x8, addend: 0x0, symName: '__ZN4core3ptr39drop_in_place$LT$proc_macro2..Ident$GT$17h8101e88c3ac359d6E.llvm.2618680253894991198', symObjAddr: 0x7120, symBinAddr: 0xABC40, symSize: 0x30 }
  - { offsetInCU: 0x1E677, offset: 0x3E94DD, size: 0x8, addend: 0x0, symName: '__ZN4core3ptr39drop_in_place$LT$syn..buffer..Entry$GT$17h8c4c199506966aaeE.llvm.2618680253894991198', symObjAddr: 0x7150, symBinAddr: 0xABC70, symSize: 0xC0 }
  - { offsetInCU: 0x1E9E8, offset: 0x3E984E, size: 0x8, addend: 0x0, symName: '__ZN4core3ptr39drop_in_place$LT$syn..data..Variant$GT$17h7bd4c363751fc860E.llvm.2618680253894991198', symObjAddr: 0x7210, symBinAddr: 0xABD30, symSize: 0x2F0 }
  - { offsetInCU: 0x1F5F6, offset: 0x3EA45C, size: 0x8, addend: 0x0, symName: '__ZN4core3ptr39drop_in_place$LT$syn..item..UseTree$GT$17h5b1281a5704d139dE.llvm.2618680253894991198', symObjAddr: 0x7500, symBinAddr: 0xAC020, symSize: 0x1D0 }
  - { offsetInCU: 0x1FD15, offset: 0x3EAB7B, size: 0x8, addend: 0x0, symName: '__ZN4core3ptr40drop_in_place$LT$syn..item..ImplItem$GT$17he2e6e8f15695ea55E', symObjAddr: 0x76D0, symBinAddr: 0xAC1F0, symSize: 0x240 }
  - { offsetInCU: 0x20310, offset: 0x3EB176, size: 0x8, addend: 0x0, symName: '__ZN4core3ptr40drop_in_place$LT$syn..item..Receiver$GT$17h6743a41cd869c536E.llvm.2618680253894991198', symObjAddr: 0x7910, symBinAddr: 0xAC430, symSize: 0x130 }
  - { offsetInCU: 0x208E3, offset: 0x3EB749, size: 0x8, addend: 0x0, symName: '__ZN4core3ptr40drop_in_place$LT$syn..item..Variadic$GT$17h856c1da4a3922974E', symObjAddr: 0x7A40, symBinAddr: 0xAC560, symSize: 0x120 }
  - { offsetInCU: 0x20D5A, offset: 0x3EBBC0, size: 0x8, addend: 0x0, symName: '__ZN4core3ptr40drop_in_place$LT$syn..ty..ReturnType$GT$17h02cf41e2fec63d90E.llvm.2618680253894991198', symObjAddr: 0x7B60, symBinAddr: 0xAC680, symSize: 0x50 }
  - { offsetInCU: 0x20EEB, offset: 0x3EBD51, size: 0x8, addend: 0x0, symName: '__ZN4core3ptr41drop_in_place$LT$syn..attr..Attribute$GT$17h6038ab1bc013504dE.llvm.2618680253894991198', symObjAddr: 0x7BB0, symBinAddr: 0xAC6D0, symSize: 0x160 }
  - { offsetInCU: 0x213D1, offset: 0x3EC237, size: 0x8, addend: 0x0, symName: '__ZN4core3ptr41drop_in_place$LT$syn..item..Signature$GT$17h691f115807a5d1eeE', symObjAddr: 0x7D10, symBinAddr: 0xAC830, symSize: 0x280 }
  - { offsetInCU: 0x21EC0, offset: 0x3ECD26, size: 0x8, addend: 0x0, symName: '__ZN4core3ptr41drop_in_place$LT$syn..item..TraitItem$GT$17hb6f9fbcba8fdea85E', symObjAddr: 0x7F90, symBinAddr: 0xACAB0, symSize: 0x3E0 }
  - { offsetInCU: 0x229E6, offset: 0x3ED84C, size: 0x8, addend: 0x0, symName: '__ZN4core3ptr41drop_in_place$LT$syn..stmt..LocalInit$GT$17he02c3bb35adaf040E', symObjAddr: 0x8370, symBinAddr: 0xACE90, symSize: 0xC0 }
  - { offsetInCU: 0x22CDA, offset: 0x3EDB40, size: 0x8, addend: 0x0, symName: '__ZN4core3ptr42drop_in_place$LT$syn..item..ImplItemFn$GT$17h753bae801f2662d9E', symObjAddr: 0x8430, symBinAddr: 0xACF50, symSize: 0x230 }
  - { offsetInCU: 0x23435, offset: 0x3EE29B, size: 0x8, addend: 0x0, symName: '__ZN4core3ptr42drop_in_place$LT$syn..path..Constraint$GT$17h07cd69a204b9a6d4E', symObjAddr: 0x8660, symBinAddr: 0xAD180, symSize: 0x160 }
  - { offsetInCU: 0x23995, offset: 0x3EE7FB, size: 0x8, addend: 0x0, symName: '__ZN4core3ptr43drop_in_place$LT$proc_macro2..TokenTree$GT$17h9a731c54895ae11bE.llvm.2618680253894991198', symObjAddr: 0x87C0, symBinAddr: 0xAD2E0, symSize: 0xB0 }
  - { offsetInCU: 0x23CA9, offset: 0x3EEB0F, size: 0x8, addend: 0x0, symName: '__ZN4core3ptr43drop_in_place$LT$syn..data..FieldsNamed$GT$17hb2a97e73a85352cbE', symObjAddr: 0x8870, symBinAddr: 0xAD390, symSize: 0x120 }
  - { offsetInCU: 0x24131, offset: 0x3EEF97, size: 0x8, addend: 0x0, symName: '__ZN4core3ptr43drop_in_place$LT$syn..item..ForeignItem$GT$17h1398b9aa0a6e4c9dE', symObjAddr: 0x8990, symBinAddr: 0xAD4B0, symSize: 0x330 }
  - { offsetInCU: 0x24AB8, offset: 0x3EF91E, size: 0x8, addend: 0x0, symName: '__ZN4core3ptr43drop_in_place$LT$syn..path..PathSegment$GT$17h62e206c29667de7cE.llvm.2618680253894991198', symObjAddr: 0x8CC0, symBinAddr: 0xAD7E0, symSize: 0x170 }
  - { offsetInCU: 0x2505C, offset: 0x3EFEC2, size: 0x8, addend: 0x0, symName: '__ZN4core3ptr44drop_in_place$LT$syn..generics..Generics$GT$17h10dea28dec64f81eE', symObjAddr: 0x8E30, symBinAddr: 0xAD950, symSize: 0x220 }
  - { offsetInCU: 0x258D9, offset: 0x3F073F, size: 0x8, addend: 0x0, symName: '__ZN4core3ptr44drop_in_place$LT$syn..item..ImplItemType$GT$17h9547daf76315cef8E', symObjAddr: 0x9050, symBinAddr: 0xADB70, symSize: 0x1D0 }
  - { offsetInCU: 0x25EC1, offset: 0x3F0D27, size: 0x8, addend: 0x0, symName: '__ZN4core3ptr44drop_in_place$LT$syn..lifetime..Lifetime$GT$17hf0cdec2e9ec456d6E.llvm.2618680253894991198', symObjAddr: 0x9220, symBinAddr: 0xADD40, symSize: 0x30 }
  - { offsetInCU: 0x2601B, offset: 0x3F0E81, size: 0x8, addend: 0x0, symName: '__ZN4core3ptr45drop_in_place$LT$proc_macro2..TokenStream$GT$17h3405f6c513e9f6cbE.llvm.2618680253894991198', symObjAddr: 0x9250, symBinAddr: 0xADD70, symSize: 0x70 }
  - { offsetInCU: 0x26182, offset: 0x3F0FE8, size: 0x8, addend: 0x0, symName: '__ZN4core3ptr45drop_in_place$LT$syn..generics..TypeParam$GT$17he5eda51070b7de47E.llvm.2618680253894991198', symObjAddr: 0x92C0, symBinAddr: 0xADDE0, symSize: 0x230 }
  - { offsetInCU: 0x269C7, offset: 0x3F182D, size: 0x8, addend: 0x0, symName: '__ZN4core3ptr45drop_in_place$LT$syn..item..ImplItemConst$GT$17he90cac64fa027f09E', symObjAddr: 0x94F0, symBinAddr: 0xAE010, symSize: 0x200 }
  - { offsetInCU: 0x26FED, offset: 0x3F1E53, size: 0x8, addend: 0x0, symName: '__ZN4core3ptr45drop_in_place$LT$syn..item..TraitItemType$GT$17hec5203fd126d0733E', symObjAddr: 0x96F0, symBinAddr: 0xAE210, symSize: 0x290 }
  - { offsetInCU: 0x278FE, offset: 0x3F2764, size: 0x8, addend: 0x0, symName: '__ZN4core3ptr46drop_in_place$LT$$u5b$syn..stmt..Stmt$u5d$$GT$17h0a8006ae14c66d0fE.llvm.2618680253894991198', symObjAddr: 0x9980, symBinAddr: 0xAE4A0, symSize: 0x2F0 }
  - { offsetInCU: 0x27F30, offset: 0x3F2D96, size: 0x8, addend: 0x0, symName: '__ZN4core3ptr46drop_in_place$LT$syn..generics..ConstParam$GT$17hab0a58c4af8c549cE.llvm.2618680253894991198', symObjAddr: 0x9C70, symBinAddr: 0xAE790, symSize: 0x150 }
  - { offsetInCU: 0x28331, offset: 0x3F3197, size: 0x8, addend: 0x0, symName: '__ZN4core3ptr46drop_in_place$LT$syn..item..TraitItemConst$GT$17h93b00edde47e0b07E', symObjAddr: 0x9DC0, symBinAddr: 0xAE8E0, symSize: 0x1A0 }
  - { offsetInCU: 0x287E5, offset: 0x3F364B, size: 0x8, addend: 0x0, symName: '__ZN4core3ptr47drop_in_place$LT$syn..generics..WhereClause$GT$17h8d71cc7a854160ddE', symObjAddr: 0x9F60, symBinAddr: 0xAEA80, symSize: 0x120 }
  - { offsetInCU: 0x28C2F, offset: 0x3F3A95, size: 0x8, addend: 0x0, symName: '__ZN4core3ptr47drop_in_place$LT$syn..item..ForeignItemType$GT$17ha1c97c43a7eb44cfE', symObjAddr: 0xA080, symBinAddr: 0xAEBA0, symSize: 0x1A0 }
  - { offsetInCU: 0x29274, offset: 0x3F40DA, size: 0x8, addend: 0x0, symName: '__ZN4core3ptr47drop_in_place$LT$syn..path..GenericArgument$GT$17h54f8794633f96823E.llvm.2618680253894991198', symObjAddr: 0xA220, symBinAddr: 0xAED40, symSize: 0x1C0 }
  - { offsetInCU: 0x29727, offset: 0x3F458D, size: 0x8, addend: 0x0, symName: '__ZN4core3ptr48drop_in_place$LT$syn..generics..GenericParam$GT$17h9c895978ef08f584E.llvm.2618680253894991198', symObjAddr: 0xA3E0, symBinAddr: 0xAEF00, symSize: 0x150 }
  - { offsetInCU: 0x29B19, offset: 0x3F497F, size: 0x8, addend: 0x0, symName: '__ZN4core3ptr49drop_in_place$LT$syn..generics..LifetimeParam$GT$17h41a7c7a290ea6289E.llvm.2618680253894991198', symObjAddr: 0xA530, symBinAddr: 0xAF050, symSize: 0xF0 }
  - { offsetInCU: 0x29EF4, offset: 0x3F4D5A, size: 0x8, addend: 0x0, symName: '__ZN4core3ptr49drop_in_place$LT$syn..generics..PredicateType$GT$17hf38482bec426e936E.llvm.2618680253894991198', symObjAddr: 0xA620, symBinAddr: 0xAF140, symSize: 0x170 }
  - { offsetInCU: 0x2A370, offset: 0x3F51D6, size: 0x8, addend: 0x0, symName: '__ZN4core3ptr49drop_in_place$LT$syn..item..ForeignItemStatic$GT$17h7f3c810db69ed760E', symObjAddr: 0xA790, symBinAddr: 0xAF2B0, symSize: 0x180 }
  - { offsetInCU: 0x2AA49, offset: 0x3F58AF, size: 0x8, addend: 0x0, symName: '__ZN4core3ptr50drop_in_place$LT$$u5b$syn..item..ImplItem$u5d$$GT$17haee7878761be0217E.llvm.2618680253894991198', symObjAddr: 0xA910, symBinAddr: 0xAF430, symSize: 0x230 }
  - { offsetInCU: 0x2AD71, offset: 0x3F5BD7, size: 0x8, addend: 0x0, symName: '__ZN4core3ptr50drop_in_place$LT$syn..generics..TypeParamBound$GT$17hcd7771d4c6c221efE.llvm.2618680253894991198', symObjAddr: 0xAB40, symBinAddr: 0xAF660, symSize: 0xA0 }
  - { offsetInCU: 0x2AEF7, offset: 0x3F5D5D, size: 0x8, addend: 0x0, symName: '__ZN4core3ptr50drop_in_place$LT$syn..generics..WherePredicate$GT$17h1a9d05bc1beb1d91E.llvm.2618680253894991198', symObjAddr: 0xABE0, symBinAddr: 0xAF700, symSize: 0xA0 }
  - { offsetInCU: 0x2B0A4, offset: 0x3F5F0A, size: 0x8, addend: 0x0, symName: '__ZN4core3ptr51drop_in_place$LT$$u5b$syn..item..TraitItem$u5d$$GT$17h64a6457ddfeb24d5E.llvm.2618680253894991198', symObjAddr: 0xAC80, symBinAddr: 0xAF7A0, symSize: 0x3F0 }
  - { offsetInCU: 0x2B8FC, offset: 0x3F6762, size: 0x8, addend: 0x0, symName: '__ZN4core3ptr52drop_in_place$LT$syn..restriction..VisRestricted$GT$17h7de420d0018508c5E', symObjAddr: 0xB070, symBinAddr: 0xAFB90, symSize: 0x50 }
  - { offsetInCU: 0x2BA95, offset: 0x3F68FB, size: 0x8, addend: 0x0, symName: '__ZN4core3ptr53drop_in_place$LT$$u5b$syn..item..ForeignItem$u5d$$GT$17h0fb84ff15c76ad7aE.llvm.2618680253894991198', symObjAddr: 0xB0C0, symBinAddr: 0xAFBE0, symSize: 0x360 }
  - { offsetInCU: 0x2C213, offset: 0x3F7079, size: 0x8, addend: 0x0, symName: '__ZN4core3ptr58drop_in_place$LT$alloc..vec..Vec$LT$syn..expr..Arm$GT$$GT$17h1a55df3d2cba1daaE', symObjAddr: 0xB420, symBinAddr: 0xAFF40, symSize: 0xD0 }
  - { offsetInCU: 0x2C4A0, offset: 0x3F7306, size: 0x8, addend: 0x0, symName: '__ZN4core3ptr59drop_in_place$LT$alloc..boxed..Box$LT$syn..pat..Pat$GT$$GT$17h563b135d87aca8abE.llvm.2618680253894991198', symObjAddr: 0xB4F0, symBinAddr: 0xB0010, symSize: 0x50 }
  - { offsetInCU: 0x2C5FB, offset: 0x3F7461, size: 0x8, addend: 0x0, symName: '__ZN4core3ptr59drop_in_place$LT$alloc..boxed..Box$LT$syn..ty..Type$GT$$GT$17hffed36bad83adacbE.llvm.2618680253894991198', symObjAddr: 0xB540, symBinAddr: 0xB0060, symSize: 0x50 }
  - { offsetInCU: 0x2C756, offset: 0x3F75BC, size: 0x8, addend: 0x0, symName: '__ZN4core3ptr59drop_in_place$LT$alloc..vec..Vec$LT$syn..item..Item$GT$$GT$17hf874c2ed1282c93cE', symObjAddr: 0xB590, symBinAddr: 0xB00B0, symSize: 0xD0 }
  - { offsetInCU: 0x2C9E3, offset: 0x3F7849, size: 0x8, addend: 0x0, symName: '__ZN4core3ptr59drop_in_place$LT$alloc..vec..Vec$LT$syn..stmt..Stmt$GT$$GT$17hb5c1acf3c61c43e2E', symObjAddr: 0xB660, symBinAddr: 0xB0180, symSize: 0x80 }
  - { offsetInCU: 0x2CC61, offset: 0x3F7AC7, size: 0x8, addend: 0x0, symName: '__ZN4core3ptr61drop_in_place$LT$alloc..boxed..Box$LT$syn..expr..Expr$GT$$GT$17h01091e47f131475dE', symObjAddr: 0xB6E0, symBinAddr: 0xB0200, symSize: 0x50 }
  - { offsetInCU: 0x2CDBC, offset: 0x3F7C22, size: 0x8, addend: 0x0, symName: '__ZN4core3ptr61drop_in_place$LT$alloc..boxed..Box$LT$syn..path..Path$GT$$GT$17ha58e58ae7c31ea61E', symObjAddr: 0xB730, symBinAddr: 0xB0250, symSize: 0xF0 }
  - { offsetInCU: 0x2D2A2, offset: 0x3F8108, size: 0x8, addend: 0x0, symName: '__ZN4core3ptr61drop_in_place$LT$syn..path..ParenthesizedGenericArguments$GT$17h43d4aac5494326a7E.llvm.2618680253894991198', symObjAddr: 0xB820, symBinAddr: 0xB0340, symSize: 0x170 }
  - { offsetInCU: 0x2D869, offset: 0x3F86CF, size: 0x8, addend: 0x0, symName: '__ZN4core3ptr62drop_in_place$LT$alloc..boxed..Box$LT$syn..data..Field$GT$$GT$17hebc7cac3b74f311dE', symObjAddr: 0xB990, symBinAddr: 0xB04B0, symSize: 0x50 }
  - { offsetInCU: 0x2D9E3, offset: 0x3F8849, size: 0x8, addend: 0x0, symName: '__ZN4core3ptr62drop_in_place$LT$alloc..boxed..Box$LT$syn..item..FnArg$GT$$GT$17hc527eff785dac3a2E', symObjAddr: 0xB9E0, symBinAddr: 0xB0500, symSize: 0x60 }
  - { offsetInCU: 0x2DB5B, offset: 0x3F89C1, size: 0x8, addend: 0x0, symName: '__ZN4core3ptr62drop_in_place$LT$alloc..boxed..Box$LT$syn..stmt..Block$GT$$GT$17h30434998ae0f12a8E', symObjAddr: 0xBA40, symBinAddr: 0xB0560, symSize: 0xE0 }
  - { offsetInCU: 0x2DF7A, offset: 0x3F8DE0, size: 0x8, addend: 0x0, symName: '__ZN4core3ptr62drop_in_place$LT$alloc..vec..Vec$LT$syn..buffer..Entry$GT$$GT$17h73857e86c6f10397E.llvm.2618680253894991198', symObjAddr: 0xBB20, symBinAddr: 0xB0640, symSize: 0xC0 }
  - { offsetInCU: 0x2E21A, offset: 0x3F9080, size: 0x8, addend: 0x0, symName: '__ZN4core3ptr62drop_in_place$LT$syn..path..AngleBracketedGenericArguments$GT$17hc5b69f68243636ddE.llvm.2618680253894991198', symObjAddr: 0xBBE0, symBinAddr: 0xB0700, symSize: 0x120 }
  - { offsetInCU: 0x2E664, offset: 0x3F94CA, size: 0x8, addend: 0x0, symName: '__ZN4core3ptr63drop_in_place$LT$alloc..vec..Vec$LT$syn..item..ImplItem$GT$$GT$17hda9ba61cc1df3d0eE', symObjAddr: 0xBD00, symBinAddr: 0xB0820, symSize: 0x80 }
  - { offsetInCU: 0x2E8E2, offset: 0x3F9748, size: 0x8, addend: 0x0, symName: '__ZN4core3ptr64drop_in_place$LT$alloc..boxed..Box$LT$syn..data..Variant$GT$$GT$17h4d6d609d76c77795E', symObjAddr: 0xBD80, symBinAddr: 0xB08A0, symSize: 0x50 }
  - { offsetInCU: 0x2EA3D, offset: 0x3F98A3, size: 0x8, addend: 0x0, symName: '__ZN4core3ptr64drop_in_place$LT$alloc..boxed..Box$LT$syn..item..UseTree$GT$$GT$17he10cba0a4742709fE', symObjAddr: 0xBDD0, symBinAddr: 0xB08F0, symSize: 0x50 }
  - { offsetInCU: 0x2EBB7, offset: 0x3F9A1D, size: 0x8, addend: 0x0, symName: '__ZN4core3ptr64drop_in_place$LT$alloc..boxed..Box$LT$syn..pat..FieldPat$GT$$GT$17h4980b70a7597cc08E', symObjAddr: 0xBE20, symBinAddr: 0xB0940, symSize: 0x140 }
  - { offsetInCU: 0x2F258, offset: 0x3FA0BE, size: 0x8, addend: 0x0, symName: '__ZN4core3ptr64drop_in_place$LT$alloc..boxed..Box$LT$syn..ty..BareFnArg$GT$$GT$17h8b34096c620314efE', symObjAddr: 0xBF60, symBinAddr: 0xB0A80, symSize: 0x140 }
  - { offsetInCU: 0x2F7B0, offset: 0x3FA616, size: 0x8, addend: 0x0, symName: '__ZN4core3ptr64drop_in_place$LT$alloc..vec..Vec$LT$syn..attr..Attribute$GT$$GT$17h3c8f2a04e701c675E', symObjAddr: 0xC0A0, symBinAddr: 0xB0BC0, symSize: 0xD0 }
  - { offsetInCU: 0x2FA71, offset: 0x3FA8D7, size: 0x8, addend: 0x0, symName: '__ZN4core3ptr64drop_in_place$LT$alloc..vec..Vec$LT$syn..item..TraitItem$GT$$GT$17h60eb4b8666c57b93E', symObjAddr: 0xC170, symBinAddr: 0xB0C90, symSize: 0x80 }
  - { offsetInCU: 0x2FCEF, offset: 0x3FAB55, size: 0x8, addend: 0x0, symName: '__ZN4core3ptr65drop_in_place$LT$$LP$syn..item..FnArg$C$syn..token..Comma$RP$$GT$17hc164d69e1fc45771E.llvm.2618680253894991198', symObjAddr: 0xC1F0, symBinAddr: 0xB0D10, symSize: 0x20 }
  - { offsetInCU: 0x2FD88, offset: 0x3FABEE, size: 0x8, addend: 0x0, symName: '__ZN4core3ptr65drop_in_place$LT$alloc..vec..Vec$LT$proc_macro..TokenTree$GT$$GT$17h408088468d073beeE.llvm.2618680253894991198', symObjAddr: 0xC210, symBinAddr: 0xB0D30, symSize: 0x120 }
  - { offsetInCU: 0x300FA, offset: 0x3FAF60, size: 0x8, addend: 0x0, symName: '__ZN4core3ptr65drop_in_place$LT$core..option..Option$LT$syn..expr..Label$GT$$GT$17h78189e72a8cb7951E', symObjAddr: 0xC330, symBinAddr: 0xB0E50, symSize: 0x30 }
  - { offsetInCU: 0x30235, offset: 0x3FB09B, size: 0x8, addend: 0x0, symName: '__ZN4core3ptr65drop_in_place$LT$core..option..Option$LT$syn..stmt..Block$GT$$GT$17h7d9c0a54a580a160E', symObjAddr: 0xC360, symBinAddr: 0xB0E80, symSize: 0xE0 }
  - { offsetInCU: 0x3049A, offset: 0x3FB300, size: 0x8, addend: 0x0, symName: '__ZN4core3ptr66drop_in_place$LT$alloc..vec..Vec$LT$syn..item..ForeignItem$GT$$GT$17h3e58b8e683c84cf4E', symObjAddr: 0xC440, symBinAddr: 0xB0F60, symSize: 0x80 }
  - { offsetInCU: 0x30718, offset: 0x3FB57E, size: 0x8, addend: 0x0, symName: '__ZN4core3ptr67drop_in_place$LT$$LP$syn..pat..FieldPat$C$syn..token..Comma$RP$$GT$17h85e934ef4c19bf0fE.llvm.2618680253894991198', symObjAddr: 0xC4C0, symBinAddr: 0xB0FE0, symSize: 0x130 }
  - { offsetInCU: 0x30C82, offset: 0x3FBAE8, size: 0x8, addend: 0x0, symName: '__ZN4core3ptr67drop_in_place$LT$$LP$syn..ty..BareFnArg$C$syn..token..Comma$RP$$GT$17hd93958865c964865E.llvm.2618680253894991198', symObjAddr: 0xC5F0, symBinAddr: 0xB1110, symSize: 0x110 }
  - { offsetInCU: 0x310D3, offset: 0x3FBF39, size: 0x8, addend: 0x0, symName: '__ZN4core3ptr67drop_in_place$LT$alloc..boxed..Box$LT$syn..expr..FieldValue$GT$$GT$17h93aaccf8aa22ef88E', symObjAddr: 0xC700, symBinAddr: 0xB1220, symSize: 0x140 }
  - { offsetInCU: 0x3160B, offset: 0x3FC471, size: 0x8, addend: 0x0, symName: '__ZN4core3ptr68drop_in_place$LT$alloc..boxed..Box$LT$syn..path..PathSegment$GT$$GT$17h709dabdc13b58a71E', symObjAddr: 0xC840, symBinAddr: 0xB1360, symSize: 0xD0 }
  - { offsetInCU: 0x31A09, offset: 0x3FC86F, size: 0x8, addend: 0x0, symName: '__ZN4core3ptr69drop_in_place$LT$core..option..Option$LT$syn..stmt..LocalInit$GT$$GT$17h7427177b3fce4dc2E', symObjAddr: 0xC910, symBinAddr: 0xB1430, symSize: 0xC0 }
  - { offsetInCU: 0x31D31, offset: 0x3FCB97, size: 0x8, addend: 0x0, symName: '__ZN4core3ptr70drop_in_place$LT$$LP$syn..expr..FieldValue$C$syn..token..Comma$RP$$GT$17h490c542958e56dacE.llvm.2618680253894991198', symObjAddr: 0xC9D0, symBinAddr: 0xB14F0, symSize: 0x110 }
  - { offsetInCU: 0x32143, offset: 0x3FCFA9, size: 0x8, addend: 0x0, symName: '__ZN4core3ptr70drop_in_place$LT$core..option..Option$LT$syn..ty..BareVariadic$GT$$GT$17h45399348ea4b8d55E', symObjAddr: 0xCAE0, symBinAddr: 0xB1600, symSize: 0x100 }
  - { offsetInCU: 0x32573, offset: 0x3FD3D9, size: 0x8, addend: 0x0, symName: '__ZN4core3ptr72drop_in_place$LT$alloc..boxed..Box$LT$syn..path..GenericArgument$GT$$GT$17haa7dd8b716637b54E.llvm.2618680253894991198', symObjAddr: 0xCBE0, symBinAddr: 0xB1700, symSize: 0x180 }
  - { offsetInCU: 0x32A48, offset: 0x3FD8AE, size: 0x8, addend: 0x0, symName: '__ZN4core3ptr73drop_in_place$LT$$LP$syn..path..PathSegment$C$syn..token..PathSep$RP$$GT$17hf7a8dbee7b1b25c8E.llvm.2618680253894991198', symObjAddr: 0xCD60, symBinAddr: 0xB1880, symSize: 0xC0 }
  - { offsetInCU: 0x32D0E, offset: 0x3FDB74, size: 0x8, addend: 0x0, symName: '__ZN4core3ptr73drop_in_place$LT$alloc..boxed..Box$LT$syn..generics..GenericParam$GT$$GT$17hf6951dcd5ae07324E', symObjAddr: 0xCE20, symBinAddr: 0xB1940, symSize: 0x80 }
  - { offsetInCU: 0x32E86, offset: 0x3FDCEC, size: 0x8, addend: 0x0, symName: '__ZN4core3ptr75drop_in_place$LT$$LP$syn..path..GenericArgument$C$syn..token..Comma$RP$$GT$17h3ba8f36bbe154baeE.llvm.2618680253894991198', symObjAddr: 0xCEA0, symBinAddr: 0xB19C0, symSize: 0x180 }
  - { offsetInCU: 0x3320E, offset: 0x3FE074, size: 0x8, addend: 0x0, symName: '__ZN4core3ptr75drop_in_place$LT$alloc..boxed..Box$LT$syn..generics..TypeParamBound$GT$$GT$17he61c00698a311a34E', symObjAddr: 0xD020, symBinAddr: 0xB1B40, symSize: 0x160 }
  - { offsetInCU: 0x337AB, offset: 0x3FE611, size: 0x8, addend: 0x0, symName: '__ZN4core3ptr75drop_in_place$LT$alloc..boxed..Box$LT$syn..generics..WherePredicate$GT$$GT$17hb3c3f96fc44a9b07E', symObjAddr: 0xD180, symBinAddr: 0xB1CA0, symSize: 0x80 }
  - { offsetInCU: 0x33A41, offset: 0x3FE8A7, size: 0x8, addend: 0x0, symName: '__ZN4core3ptr76drop_in_place$LT$$LP$syn..generics..GenericParam$C$syn..token..Comma$RP$$GT$17hadd4ee9dc4c521adE.llvm.2618680253894991198', symObjAddr: 0xD200, symBinAddr: 0xB1D20, symSize: 0x40 }
  - { offsetInCU: 0x33A7D, offset: 0x3FE8E3, size: 0x8, addend: 0x0, symName: '__ZN4core3ptr77drop_in_place$LT$$LP$syn..generics..TypeParamBound$C$syn..token..Plus$RP$$GT$17h74b4a4238bdefe04E.llvm.2618680253894991198', symObjAddr: 0xD240, symBinAddr: 0xB1D60, symSize: 0x160 }
  - { offsetInCU: 0x33EE8, offset: 0x3FED4E, size: 0x8, addend: 0x0, symName: '__ZN4core3ptr78drop_in_place$LT$$LP$syn..generics..WherePredicate$C$syn..token..Comma$RP$$GT$17h53972732bf2fc9faE.llvm.2618680253894991198', symObjAddr: 0xD3A0, symBinAddr: 0xB1EC0, symSize: 0x50 }
  - { offsetInCU: 0x34042, offset: 0x3FEEA8, size: 0x8, addend: 0x0, symName: '__ZN4core3ptr86drop_in_place$LT$$LP$syn..token..If$C$alloc..boxed..Box$LT$syn..expr..Expr$GT$$RP$$GT$17h2caf60ff8122e91dE', symObjAddr: 0xD3F0, symBinAddr: 0xB1F10, symSize: 0x50 }
  - { offsetInCU: 0x34257, offset: 0x3FF0BD, size: 0x8, addend: 0x0, symName: '__ZN4core3ptr86drop_in_place$LT$syn..punctuated..Punctuated$LT$syn..pat..Pat$C$syn..token..Or$GT$$GT$17h8e9173df21a44316E', symObjAddr: 0xD440, symBinAddr: 0xB1F60, symSize: 0x120 }
  - { offsetInCU: 0x346B4, offset: 0x3FF51A, size: 0x8, addend: 0x0, symName: '__ZN4core3ptr87drop_in_place$LT$$LP$alloc..boxed..Box$LT$syn..pat..Pat$GT$$C$syn..token..Colon$RP$$GT$17hf8324c490b9b3095E', symObjAddr: 0xD560, symBinAddr: 0xB2080, symSize: 0x50 }
  - { offsetInCU: 0x3482E, offset: 0x3FF694, size: 0x8, addend: 0x0, symName: '__ZN4core3ptr87drop_in_place$LT$core..option..Option$LT$alloc..boxed..Box$LT$syn..ty..Type$GT$$GT$$GT$17hd74f5d971aec2972E', symObjAddr: 0xD5B0, symBinAddr: 0xB20D0, symSize: 0x50 }
  - { offsetInCU: 0x349A0, offset: 0x3FF806, size: 0x8, addend: 0x0, symName: '__ZN4core3ptr89drop_in_place$LT$core..option..Option$LT$alloc..boxed..Box$LT$syn..expr..Expr$GT$$GT$$GT$17h8e135ac1a25a2dc5E', symObjAddr: 0xD600, symBinAddr: 0xB2120, symSize: 0x50 }
  - { offsetInCU: 0x34B12, offset: 0x3FF978, size: 0x8, addend: 0x0, symName: '__ZN4core3ptr89drop_in_place$LT$syn..punctuated..Punctuated$LT$syn..ty..Type$C$syn..token..Comma$GT$$GT$17ha919b3114742fb9dE.llvm.2618680253894991198', symObjAddr: 0xD650, symBinAddr: 0xB2170, symSize: 0x120 }
  - { offsetInCU: 0x34F5C, offset: 0x3FFDC2, size: 0x8, addend: 0x0, symName: '__ZN4core3ptr90drop_in_place$LT$core..option..Option$LT$alloc..boxed..Box$LT$syn..data..Field$GT$$GT$$GT$17h326c39537b0fcc46E', symObjAddr: 0xD770, symBinAddr: 0xB2290, symSize: 0x50 }
  - { offsetInCU: 0x350CE, offset: 0x3FFF34, size: 0x8, addend: 0x0, symName: '__ZN4core3ptr90drop_in_place$LT$core..option..Option$LT$alloc..boxed..Box$LT$syn..item..FnArg$GT$$GT$$GT$17hbae3fdd388277508E', symObjAddr: 0xD7C0, symBinAddr: 0xB22E0, symSize: 0x50 }
  - { offsetInCU: 0x352BC, offset: 0x400122, size: 0x8, addend: 0x0, symName: '__ZN4core3ptr91drop_in_place$LT$syn..punctuated..Punctuated$LT$syn..expr..Expr$C$syn..token..Comma$GT$$GT$17h4f39b83dc86a4159E', symObjAddr: 0xD810, symBinAddr: 0xB2330, symSize: 0x120 }
  - { offsetInCU: 0x35719, offset: 0x40057F, size: 0x8, addend: 0x0, symName: '__ZN4core3ptr92drop_in_place$LT$core..option..Option$LT$$LP$syn..token..As$C$proc_macro2..Ident$RP$$GT$$GT$17h5c1a47ccb35d9d7eE', symObjAddr: 0xD930, symBinAddr: 0xB2450, symSize: 0x30 }
  - { offsetInCU: 0x35835, offset: 0x40069B, size: 0x8, addend: 0x0, symName: '__ZN4core3ptr92drop_in_place$LT$syn..punctuated..Punctuated$LT$syn..data..Field$C$syn..token..Comma$GT$$GT$17hca76f5e010a141e5E', symObjAddr: 0xD960, symBinAddr: 0xB2480, symSize: 0x120 }
  - { offsetInCU: 0x35C7F, offset: 0x400AE5, size: 0x8, addend: 0x0, symName: '__ZN4core3ptr92drop_in_place$LT$syn..punctuated..Punctuated$LT$syn..item..FnArg$C$syn..token..Comma$GT$$GT$17h75db9d232662c7d3E', symObjAddr: 0xDA80, symBinAddr: 0xB25A0, symSize: 0x150 }
  - { offsetInCU: 0x36194, offset: 0x400FFA, size: 0x8, addend: 0x0, symName: '__ZN4core3ptr94drop_in_place$LT$syn..punctuated..Punctuated$LT$syn..data..Variant$C$syn..token..Comma$GT$$GT$17ha69d7e675441c7e2E', symObjAddr: 0xDBD0, symBinAddr: 0xB26F0, symSize: 0x120 }
  - { offsetInCU: 0x3666D, offset: 0x4014D3, size: 0x8, addend: 0x0, symName: '__ZN4core3ptr94drop_in_place$LT$syn..punctuated..Punctuated$LT$syn..pat..FieldPat$C$syn..token..Comma$GT$$GT$17h112950ea198c8281E', symObjAddr: 0xDCF0, symBinAddr: 0xB2810, symSize: 0xF0 }
  - { offsetInCU: 0x369C6, offset: 0x40182C, size: 0x8, addend: 0x0, symName: '__ZN4core3ptr94drop_in_place$LT$syn..punctuated..Punctuated$LT$syn..ty..BareFnArg$C$syn..token..Comma$GT$$GT$17h1c7b44310f06243dE', symObjAddr: 0xDDE0, symBinAddr: 0xB2900, symSize: 0xF0 }
  - { offsetInCU: 0x36CA3, offset: 0x401B09, size: 0x8, addend: 0x0, symName: '__ZN4core3ptr95drop_in_place$LT$core..option..Option$LT$$LP$proc_macro2..Ident$C$syn..token..Colon$RP$$GT$$GT$17ha744bf0f41959716E.llvm.2618680253894991198', symObjAddr: 0xDED0, symBinAddr: 0xB29F0, symSize: 0x30 }
  - { offsetInCU: 0x36DBF, offset: 0x401C25, size: 0x8, addend: 0x0, symName: '__ZN4core3ptr96drop_in_place$LT$core..option..Option$LT$alloc..boxed..Box$LT$syn..path..PathSegment$GT$$GT$$GT$17hb447d0f626c86a4eE.llvm.2618680253894991198', symObjAddr: 0xDF00, symBinAddr: 0xB2A20, symSize: 0x90 }
  - { offsetInCU: 0x370DC, offset: 0x401F42, size: 0x8, addend: 0x0, symName: '__ZN4core3ptr97drop_in_place$LT$syn..punctuated..Punctuated$LT$syn..expr..FieldValue$C$syn..token..Comma$GT$$GT$17h31b81f7462228dcbE', symObjAddr: 0xDFE0, symBinAddr: 0xB2AB0, symSize: 0xF0 }
  - { offsetInCU: 0x37454, offset: 0x4022BA, size: 0x8, addend: 0x0, symName: '__ZN4core3ptr98drop_in_place$LT$syn..punctuated..Punctuated$LT$syn..lifetime..Lifetime$C$syn..token..Plus$GT$$GT$17h0f8fc5f20f465f47E.llvm.2618680253894991198', symObjAddr: 0xE0D0, symBinAddr: 0xB2BA0, symSize: 0xC0 }
  - { offsetInCU: 0x3F092, offset: 0x409EF8, size: 0x8, addend: 0x0, symName: '__ZN136_$LT$alloc..vec..Vec$LT$T$C$A$GT$$u20$as$u20$alloc..vec..spec_extend..SpecExtend$LT$T$C$alloc..vec..into_iter..IntoIter$LT$T$GT$$GT$$GT$11spec_extend17hd3fd65d04ebffaa6E', symObjAddr: 0xE0, symBinAddr: 0xA4C80, symSize: 0xA0 }
  - { offsetInCU: 0x3F397, offset: 0x40A1FD, size: 0x8, addend: 0x0, symName: '__ZN97_$LT$alloc..vec..Vec$LT$T$C$A$GT$$u20$as$u20$alloc..vec..spec_extend..SpecExtend$LT$T$C$I$GT$$GT$11spec_extend17hd1980574a9ec2ab9E', symObjAddr: 0x13110, symBinAddr: 0xB62E0, symSize: 0x100 }
  - { offsetInCU: 0x3F7F5, offset: 0x40A65B, size: 0x8, addend: 0x0, symName: '__ZN97_$LT$alloc..vec..Vec$LT$T$C$A$GT$$u20$as$u20$alloc..vec..spec_extend..SpecExtend$LT$T$C$I$GT$$GT$11spec_extend17he326d35e9b0b5779E', symObjAddr: 0x13210, symBinAddr: 0xB63E0, symSize: 0x670 }
  - { offsetInCU: 0x42746, offset: 0x40D5AC, size: 0x8, addend: 0x0, symName: '__ZN65_$LT$alloc..vec..Vec$LT$T$C$A$GT$$u20$as$u20$core..fmt..Debug$GT$3fmt17h0c44c1490b2d6f02E', symObjAddr: 0xE400, symBinAddr: 0xB2CF0, symSize: 0x80 }
  - { offsetInCU: 0x42927, offset: 0x40D78D, size: 0x8, addend: 0x0, symName: '__ZN65_$LT$alloc..vec..Vec$LT$T$C$A$GT$$u20$as$u20$core..fmt..Debug$GT$3fmt17h3e19e46c95090761E', symObjAddr: 0xE580, symBinAddr: 0xB2D70, symSize: 0x80 }
  - { offsetInCU: 0x42FA7, offset: 0x40DE0D, size: 0x8, addend: 0x0, symName: '__ZN70_$LT$alloc..vec..Vec$LT$T$C$A$GT$$u20$as$u20$core..ops..drop..Drop$GT$4drop17ha1c46ee356be7175E', symObjAddr: 0x12530, symBinAddr: 0xB5FF0, symSize: 0x80 }
  - { offsetInCU: 0x43031, offset: 0x40DE97, size: 0x8, addend: 0x0, symName: '__ZN70_$LT$alloc..vec..Vec$LT$T$C$A$GT$$u20$as$u20$core..ops..drop..Drop$GT$4drop17haac0f2ead37a83a5E', symObjAddr: 0x125B0, symBinAddr: 0xB6070, symSize: 0xB0 }
  - { offsetInCU: 0x43093, offset: 0x40DEF9, size: 0x8, addend: 0x0, symName: '__ZN70_$LT$alloc..vec..Vec$LT$T$C$A$GT$$u20$as$u20$core..ops..drop..Drop$GT$4drop17hb96511c1410270f4E', symObjAddr: 0x12780, symBinAddr: 0xB6120, symSize: 0xB0 }
  - { offsetInCU: 0x4320F, offset: 0x40E075, size: 0x8, addend: 0x0, symName: '__ZN70_$LT$alloc..vec..Vec$LT$T$C$A$GT$$u20$as$u20$core..ops..drop..Drop$GT$4drop17hd1322190145f035dE', symObjAddr: 0x12930, symBinAddr: 0xB61D0, symSize: 0x90 }
  - { offsetInCU: 0x43315, offset: 0x40E17B, size: 0x8, addend: 0x0, symName: '__ZN70_$LT$alloc..vec..Vec$LT$T$C$A$GT$$u20$as$u20$core..ops..drop..Drop$GT$4drop17hfddea9c8473ad6f6E', symObjAddr: 0x12C30, symBinAddr: 0xB6260, symSize: 0x80 }
  - { offsetInCU: 0x434C0, offset: 0x40E326, size: 0x8, addend: 0x0, symName: '__ZN67_$LT$alloc..vec..Vec$LT$T$C$A$GT$$u20$as$u20$core..clone..Clone$GT$5clone17h05b7397ccb30c76cE', symObjAddr: 0xE970, symBinAddr: 0xB2DF0, symSize: 0x1A0 }
  - { offsetInCU: 0x439F2, offset: 0x40E858, size: 0x8, addend: 0x0, symName: '__ZN67_$LT$alloc..vec..Vec$LT$T$C$A$GT$$u20$as$u20$core..clone..Clone$GT$5clone17h1811a554b8ce3b81E', symObjAddr: 0xEB10, symBinAddr: 0xB2F90, symSize: 0x160 }
  - { offsetInCU: 0x43F1F, offset: 0x40ED85, size: 0x8, addend: 0x0, symName: '__ZN67_$LT$alloc..vec..Vec$LT$T$C$A$GT$$u20$as$u20$core..clone..Clone$GT$5clone17h1da16863059762f6E', symObjAddr: 0xEC70, symBinAddr: 0xB30F0, symSize: 0x1A0 }
  - { offsetInCU: 0x444C6, offset: 0x40F32C, size: 0x8, addend: 0x0, symName: '__ZN67_$LT$alloc..vec..Vec$LT$T$C$A$GT$$u20$as$u20$core..clone..Clone$GT$5clone17h200e40873706a1b4E', symObjAddr: 0xEE10, symBinAddr: 0xB3290, symSize: 0x1B0 }
  - { offsetInCU: 0x44AA1, offset: 0x40F907, size: 0x8, addend: 0x0, symName: '__ZN67_$LT$alloc..vec..Vec$LT$T$C$A$GT$$u20$as$u20$core..clone..Clone$GT$5clone17h24997e572bc498a7E', symObjAddr: 0xEFC0, symBinAddr: 0xB3440, symSize: 0x390 }
  - { offsetInCU: 0x45678, offset: 0x4104DE, size: 0x8, addend: 0x0, symName: '__ZN67_$LT$alloc..vec..Vec$LT$T$C$A$GT$$u20$as$u20$core..clone..Clone$GT$5clone17h25ea0f3dfced4ea5E', symObjAddr: 0xF350, symBinAddr: 0xB37D0, symSize: 0x160 }
  - { offsetInCU: 0x45BA5, offset: 0x410A0B, size: 0x8, addend: 0x0, symName: '__ZN67_$LT$alloc..vec..Vec$LT$T$C$A$GT$$u20$as$u20$core..clone..Clone$GT$5clone17h27f26317d0097928E', symObjAddr: 0xF4B0, symBinAddr: 0xB3930, symSize: 0x1B0 }
  - { offsetInCU: 0x46180, offset: 0x410FE6, size: 0x8, addend: 0x0, symName: '__ZN67_$LT$alloc..vec..Vec$LT$T$C$A$GT$$u20$as$u20$core..clone..Clone$GT$5clone17h3929068158b0acf4E', symObjAddr: 0xF800, symBinAddr: 0xB3AE0, symSize: 0x1A0 }
  - { offsetInCU: 0x4675B, offset: 0x4115C1, size: 0x8, addend: 0x0, symName: '__ZN67_$LT$alloc..vec..Vec$LT$T$C$A$GT$$u20$as$u20$core..clone..Clone$GT$5clone17h50b260221468ddc9E', symObjAddr: 0xF9A0, symBinAddr: 0xB3C80, symSize: 0x1A0 }
  - { offsetInCU: 0x46C8D, offset: 0x411AF3, size: 0x8, addend: 0x0, symName: '__ZN67_$LT$alloc..vec..Vec$LT$T$C$A$GT$$u20$as$u20$core..clone..Clone$GT$5clone17h5b4a01bd5f94dc2bE', symObjAddr: 0xFB40, symBinAddr: 0xB3E20, symSize: 0x160 }
  - { offsetInCU: 0x471BA, offset: 0x412020, size: 0x8, addend: 0x0, symName: '__ZN67_$LT$alloc..vec..Vec$LT$T$C$A$GT$$u20$as$u20$core..clone..Clone$GT$5clone17h6690eaf6cf776e41E', symObjAddr: 0xFCA0, symBinAddr: 0xB3F80, symSize: 0x190 }
  - { offsetInCU: 0x47795, offset: 0x4125FB, size: 0x8, addend: 0x0, symName: '__ZN67_$LT$alloc..vec..Vec$LT$T$C$A$GT$$u20$as$u20$core..clone..Clone$GT$5clone17h6e9705d9f6228ac2E', symObjAddr: 0xFE30, symBinAddr: 0xB4110, symSize: 0x1A0 }
  - { offsetInCU: 0x47E2C, offset: 0x412C92, size: 0x8, addend: 0x0, symName: '__ZN67_$LT$alloc..vec..Vec$LT$T$C$A$GT$$u20$as$u20$core..clone..Clone$GT$5clone17h79b62d4fb82adf91E', symObjAddr: 0xFFD0, symBinAddr: 0xB42B0, symSize: 0x1A0 }
  - { offsetInCU: 0x48407, offset: 0x41326D, size: 0x8, addend: 0x0, symName: '__ZN67_$LT$alloc..vec..Vec$LT$T$C$A$GT$$u20$as$u20$core..clone..Clone$GT$5clone17h817f6cb8c675423bE', symObjAddr: 0x10170, symBinAddr: 0xB4450, symSize: 0x1B0 }
  - { offsetInCU: 0x489E2, offset: 0x413848, size: 0x8, addend: 0x0, symName: '__ZN67_$LT$alloc..vec..Vec$LT$T$C$A$GT$$u20$as$u20$core..clone..Clone$GT$5clone17h89b01632558f666bE', symObjAddr: 0x10320, symBinAddr: 0xB4600, symSize: 0x190 }
  - { offsetInCU: 0x48F88, offset: 0x413DEE, size: 0x8, addend: 0x0, symName: '__ZN67_$LT$alloc..vec..Vec$LT$T$C$A$GT$$u20$as$u20$core..clone..Clone$GT$5clone17ha19e75129ceeddc0E', symObjAddr: 0x104B0, symBinAddr: 0xB4790, symSize: 0x3C0 }
  - { offsetInCU: 0x497FE, offset: 0x414664, size: 0x8, addend: 0x0, symName: '__ZN67_$LT$alloc..vec..Vec$LT$T$C$A$GT$$u20$as$u20$core..clone..Clone$GT$5clone17ha225f10e71280eb0E', symObjAddr: 0x10870, symBinAddr: 0xB4B50, symSize: 0x300 }
  - { offsetInCU: 0x49E19, offset: 0x414C7F, size: 0x8, addend: 0x0, symName: '__ZN67_$LT$alloc..vec..Vec$LT$T$C$A$GT$$u20$as$u20$core..clone..Clone$GT$5clone17had2181b83b268436E', symObjAddr: 0x10B70, symBinAddr: 0xB4E50, symSize: 0x1B0 }
  - { offsetInCU: 0x4A3C0, offset: 0x415226, size: 0x8, addend: 0x0, symName: '__ZN67_$LT$alloc..vec..Vec$LT$T$C$A$GT$$u20$as$u20$core..clone..Clone$GT$5clone17hafb9d5c811cb80c1E', symObjAddr: 0x10D20, symBinAddr: 0xB5000, symSize: 0x1B0 }
  - { offsetInCU: 0x4A99B, offset: 0x415801, size: 0x8, addend: 0x0, symName: '__ZN67_$LT$alloc..vec..Vec$LT$T$C$A$GT$$u20$as$u20$core..clone..Clone$GT$5clone17hb28dcdca734aa781E', symObjAddr: 0x10ED0, symBinAddr: 0xB51B0, symSize: 0x2A0 }
  - { offsetInCU: 0x4AFCF, offset: 0x415E35, size: 0x8, addend: 0x0, symName: '__ZN67_$LT$alloc..vec..Vec$LT$T$C$A$GT$$u20$as$u20$core..clone..Clone$GT$5clone17hc247a405aa44e689E', symObjAddr: 0x11170, symBinAddr: 0xB5450, symSize: 0x210 }
  - { offsetInCU: 0x4B619, offset: 0x41647F, size: 0x8, addend: 0x0, symName: '__ZN67_$LT$alloc..vec..Vec$LT$T$C$A$GT$$u20$as$u20$core..clone..Clone$GT$5clone17hc4988e4008115670E', symObjAddr: 0x11380, symBinAddr: 0xB5660, symSize: 0x2B0 }
  - { offsetInCU: 0x4BCDB, offset: 0x416B41, size: 0x8, addend: 0x0, symName: '__ZN67_$LT$alloc..vec..Vec$LT$T$C$A$GT$$u20$as$u20$core..clone..Clone$GT$5clone17hc62fb47f99e4a4d9E', symObjAddr: 0x11630, symBinAddr: 0xB5910, symSize: 0x1A0 }
  - { offsetInCU: 0x4C2B6, offset: 0x41711C, size: 0x8, addend: 0x0, symName: '__ZN67_$LT$alloc..vec..Vec$LT$T$C$A$GT$$u20$as$u20$core..clone..Clone$GT$5clone17hccc28fd2b23933f8E', symObjAddr: 0x117D0, symBinAddr: 0xB5AB0, symSize: 0x250 }
  - { offsetInCU: 0x4CAA6, offset: 0x41790C, size: 0x8, addend: 0x0, symName: '__ZN67_$LT$alloc..vec..Vec$LT$T$C$A$GT$$u20$as$u20$core..clone..Clone$GT$5clone17hf447c6066f04db4fE', symObjAddr: 0x11A20, symBinAddr: 0xB5D00, symSize: 0x160 }
  - { offsetInCU: 0x4CFD3, offset: 0x417E39, size: 0x8, addend: 0x0, symName: '__ZN67_$LT$alloc..vec..Vec$LT$T$C$A$GT$$u20$as$u20$core..clone..Clone$GT$5clone17hffcb5f1b40cb5e9bE', symObjAddr: 0x11B80, symBinAddr: 0xB5E60, symSize: 0x190 }
  - { offsetInCU: 0x58E83, offset: 0x423CE9, size: 0x8, addend: 0x0, symName: '__ZN5alloc3vec16Vec$LT$T$C$A$GT$16into_boxed_slice17h024a9e1f6dd0eb78E', symObjAddr: 0xE190, symBinAddr: 0xB2C60, symSize: 0x90 }
  - { offsetInCU: 0x1E, offset: 0x42DD9A, size: 0x8, addend: 0x0, symName: __ZN5alloc7raw_vec11finish_grow17h835635d1269408a0E.llvm.6325988268937029972, symObjAddr: 0x0, symBinAddr: 0xB6A50, symSize: 0xA0 }
  - { offsetInCU: 0x67A7, offset: 0x434523, size: 0x8, addend: 0x0, symName: __ZN5alloc7raw_vec11finish_grow17h835635d1269408a0E.llvm.6325988268937029972, symObjAddr: 0x0, symBinAddr: 0xB6A50, symSize: 0xA0 }
  - { offsetInCU: 0x875D, offset: 0x4364D9, size: 0x8, addend: 0x0, symName: '__ZN5alloc7raw_vec19RawVec$LT$T$C$A$GT$7reserve21do_reserve_and_handle17h13c018c554f6abd0E', symObjAddr: 0x1FD0, symBinAddr: 0x212FB0, symSize: 0xC0 }
  - { offsetInCU: 0x8AAF, offset: 0x43682B, size: 0x8, addend: 0x0, symName: '__ZN5alloc7raw_vec19RawVec$LT$T$C$A$GT$7reserve21do_reserve_and_handle17h214494add848a148E', symObjAddr: 0x2090, symBinAddr: 0x213070, symSize: 0xC0 }
  - { offsetInCU: 0x8E02, offset: 0x436B7E, size: 0x8, addend: 0x0, symName: '__ZN5alloc7raw_vec19RawVec$LT$T$C$A$GT$7reserve21do_reserve_and_handle17h40bab3f670f64c67E', symObjAddr: 0x2150, symBinAddr: 0x213130, symSize: 0xC0 }
  - { offsetInCU: 0x9154, offset: 0x436ED0, size: 0x8, addend: 0x0, symName: '__ZN5alloc7raw_vec19RawVec$LT$T$C$A$GT$7reserve21do_reserve_and_handle17h797428fa4f38120aE', symObjAddr: 0x23B0, symBinAddr: 0x2131F0, symSize: 0xC0 }
  - { offsetInCU: 0x94A6, offset: 0x437222, size: 0x8, addend: 0x0, symName: '__ZN5alloc7raw_vec19RawVec$LT$T$C$A$GT$7reserve21do_reserve_and_handle17hd888e23e4c2bd144E', symObjAddr: 0x2470, symBinAddr: 0x2132B0, symSize: 0xB0 }
  - { offsetInCU: 0x97E5, offset: 0x437561, size: 0x8, addend: 0x0, symName: '__ZN77_$LT$alloc..raw_vec..RawVec$LT$T$C$A$GT$$u20$as$u20$core..ops..drop..Drop$GT$4drop17h0fe8dc95aa9e13e8E', symObjAddr: 0x2520, symBinAddr: 0xB7D90, symSize: 0x30 }
  - { offsetInCU: 0x98E2, offset: 0x43765E, size: 0x8, addend: 0x0, symName: '__ZN77_$LT$alloc..raw_vec..RawVec$LT$T$C$A$GT$$u20$as$u20$core..ops..drop..Drop$GT$4drop17h393fcfb678582e44E', symObjAddr: 0x25E0, symBinAddr: 0xB7DC0, symSize: 0x30 }
  - { offsetInCU: 0x99DF, offset: 0x43775B, size: 0x8, addend: 0x0, symName: '__ZN77_$LT$alloc..raw_vec..RawVec$LT$T$C$A$GT$$u20$as$u20$core..ops..drop..Drop$GT$4drop17h39c2380cb3828205E', symObjAddr: 0x2610, symBinAddr: 0xB7DF0, symSize: 0x30 }
  - { offsetInCU: 0x9ADC, offset: 0x437858, size: 0x8, addend: 0x0, symName: '__ZN77_$LT$alloc..raw_vec..RawVec$LT$T$C$A$GT$$u20$as$u20$core..ops..drop..Drop$GT$4drop17h3db54f5eb403cd2eE', symObjAddr: 0x2640, symBinAddr: 0xB7E20, symSize: 0x0 }
  - { offsetInCU: 0x9BD9, offset: 0x437955, size: 0x8, addend: 0x0, symName: '__ZN77_$LT$alloc..raw_vec..RawVec$LT$T$C$A$GT$$u20$as$u20$core..ops..drop..Drop$GT$4drop17h48c1e075635f269fE', symObjAddr: 0x2690, symBinAddr: 0xB7E50, symSize: 0x30 }
  - { offsetInCU: 0x9CD6, offset: 0x437A52, size: 0x8, addend: 0x0, symName: '__ZN77_$LT$alloc..raw_vec..RawVec$LT$T$C$A$GT$$u20$as$u20$core..ops..drop..Drop$GT$4drop17h4eece3816eced073E', symObjAddr: 0x26C0, symBinAddr: 0xB7E80, symSize: 0x30 }
  - { offsetInCU: 0x9DD3, offset: 0x437B4F, size: 0x8, addend: 0x0, symName: '__ZN77_$LT$alloc..raw_vec..RawVec$LT$T$C$A$GT$$u20$as$u20$core..ops..drop..Drop$GT$4drop17h6c6fd9c116ad0c74E', symObjAddr: 0x2720, symBinAddr: 0xB7EB0, symSize: 0x0 }
  - { offsetInCU: 0x9ED0, offset: 0x437C4C, size: 0x8, addend: 0x0, symName: '__ZN77_$LT$alloc..raw_vec..RawVec$LT$T$C$A$GT$$u20$as$u20$core..ops..drop..Drop$GT$4drop17h72ca814e81ad633aE', symObjAddr: 0x2750, symBinAddr: 0xB7EE0, symSize: 0x0 }
  - { offsetInCU: 0x9FCD, offset: 0x437D49, size: 0x8, addend: 0x0, symName: '__ZN77_$LT$alloc..raw_vec..RawVec$LT$T$C$A$GT$$u20$as$u20$core..ops..drop..Drop$GT$4drop17h72defe2c2e2b0835E', symObjAddr: 0x2780, symBinAddr: 0xB7F10, symSize: 0x0 }
  - { offsetInCU: 0xA0CA, offset: 0x437E46, size: 0x8, addend: 0x0, symName: '__ZN77_$LT$alloc..raw_vec..RawVec$LT$T$C$A$GT$$u20$as$u20$core..ops..drop..Drop$GT$4drop17h92edcac5527d29cdE', symObjAddr: 0x27E0, symBinAddr: 0xB7F40, symSize: 0x0 }
  - { offsetInCU: 0xA1C7, offset: 0x437F43, size: 0x8, addend: 0x0, symName: '__ZN77_$LT$alloc..raw_vec..RawVec$LT$T$C$A$GT$$u20$as$u20$core..ops..drop..Drop$GT$4drop17ha8195f03b235e910E', symObjAddr: 0x2810, symBinAddr: 0xB7F70, symSize: 0x0 }
  - { offsetInCU: 0xA2C4, offset: 0x438040, size: 0x8, addend: 0x0, symName: '__ZN77_$LT$alloc..raw_vec..RawVec$LT$T$C$A$GT$$u20$as$u20$core..ops..drop..Drop$GT$4drop17hae00cf31628a68d6E', symObjAddr: 0x2840, symBinAddr: 0xB7FA0, symSize: 0x30 }
  - { offsetInCU: 0xA3C1, offset: 0x43813D, size: 0x8, addend: 0x0, symName: '__ZN77_$LT$alloc..raw_vec..RawVec$LT$T$C$A$GT$$u20$as$u20$core..ops..drop..Drop$GT$4drop17hb7ab512d33fb2a25E', symObjAddr: 0x2870, symBinAddr: 0xB7FD0, symSize: 0x30 }
  - { offsetInCU: 0xA4BE, offset: 0x43823A, size: 0x8, addend: 0x0, symName: '__ZN77_$LT$alloc..raw_vec..RawVec$LT$T$C$A$GT$$u20$as$u20$core..ops..drop..Drop$GT$4drop17hba0320ec2f949a38E', symObjAddr: 0x28A0, symBinAddr: 0xB8000, symSize: 0x0 }
  - { offsetInCU: 0xA5BB, offset: 0x438337, size: 0x8, addend: 0x0, symName: '__ZN77_$LT$alloc..raw_vec..RawVec$LT$T$C$A$GT$$u20$as$u20$core..ops..drop..Drop$GT$4drop17hd01e85aba88beac8E', symObjAddr: 0x28D0, symBinAddr: 0xB8030, symSize: 0x30 }
  - { offsetInCU: 0xA6B8, offset: 0x438434, size: 0x8, addend: 0x0, symName: '__ZN77_$LT$alloc..raw_vec..RawVec$LT$T$C$A$GT$$u20$as$u20$core..ops..drop..Drop$GT$4drop17hed57f1d93ce81e98E', symObjAddr: 0x2960, symBinAddr: 0xB8060, symSize: 0x30 }
  - { offsetInCU: 0xA7B5, offset: 0x438531, size: 0x8, addend: 0x0, symName: '__ZN77_$LT$alloc..raw_vec..RawVec$LT$T$C$A$GT$$u20$as$u20$core..ops..drop..Drop$GT$4drop17hf063a1d3cd3b3215E', symObjAddr: 0x2990, symBinAddr: 0xB8090, symSize: 0x30 }
  - { offsetInCU: 0xA8B2, offset: 0x43862E, size: 0x8, addend: 0x0, symName: '__ZN77_$LT$alloc..raw_vec..RawVec$LT$T$C$A$GT$$u20$as$u20$core..ops..drop..Drop$GT$4drop17hf87d3254f6191322E', symObjAddr: 0x29C0, symBinAddr: 0xB80C0, symSize: 0x25 }
  - { offsetInCU: 0x10091, offset: 0x43DE0D, size: 0x8, addend: 0x0, symName: '__ZN5alloc7raw_vec19RawVec$LT$T$C$A$GT$11allocate_in17hb51eef22739192aaE', symObjAddr: 0x870, symBinAddr: 0xB6AF0, symSize: 0x70 }
  - { offsetInCU: 0x10424, offset: 0x43E1A0, size: 0x8, addend: 0x0, symName: '__ZN5alloc7raw_vec19RawVec$LT$T$C$A$GT$16reserve_for_push17h18e1051c99d90182E', symObjAddr: 0xBF0, symBinAddr: 0xB6B60, symSize: 0xD0 }
  - { offsetInCU: 0x108E9, offset: 0x43E665, size: 0x8, addend: 0x0, symName: '__ZN5alloc7raw_vec19RawVec$LT$T$C$A$GT$16reserve_for_push17h1d32b4f94470160eE', symObjAddr: 0xCC0, symBinAddr: 0xB6C30, symSize: 0x0 }
  - { offsetInCU: 0x10DAD, offset: 0x43EB29, size: 0x8, addend: 0x0, symName: '__ZN5alloc7raw_vec19RawVec$LT$T$C$A$GT$16reserve_for_push17h245cfb4a8257421aE', symObjAddr: 0xD80, symBinAddr: 0xB6CF0, symSize: 0xD0 }
  - { offsetInCU: 0x11272, offset: 0x43EFEE, size: 0x8, addend: 0x0, symName: '__ZN5alloc7raw_vec19RawVec$LT$T$C$A$GT$16reserve_for_push17h296e58e879ed95bbE', symObjAddr: 0xE50, symBinAddr: 0xB6DC0, symSize: 0xD0 }
  - { offsetInCU: 0x11737, offset: 0x43F4B3, size: 0x8, addend: 0x0, symName: '__ZN5alloc7raw_vec19RawVec$LT$T$C$A$GT$16reserve_for_push17h2c8e6b8c8c6e5170E', symObjAddr: 0xF20, symBinAddr: 0xB6E90, symSize: 0xD0 }
  - { offsetInCU: 0x11BFC, offset: 0x43F978, size: 0x8, addend: 0x0, symName: '__ZN5alloc7raw_vec19RawVec$LT$T$C$A$GT$16reserve_for_push17h39c2ec84e943635aE', symObjAddr: 0xFF0, symBinAddr: 0xB6F60, symSize: 0xD0 }
  - { offsetInCU: 0x120D5, offset: 0x43FE51, size: 0x8, addend: 0x0, symName: '__ZN5alloc7raw_vec19RawVec$LT$T$C$A$GT$16reserve_for_push17h41d82450e00eae77E', symObjAddr: 0x10C0, symBinAddr: 0xB7030, symSize: 0x0 }
  - { offsetInCU: 0x12599, offset: 0x440315, size: 0x8, addend: 0x0, symName: '__ZN5alloc7raw_vec19RawVec$LT$T$C$A$GT$16reserve_for_push17h4241d3651c582227E', symObjAddr: 0x1180, symBinAddr: 0xB70F0, symSize: 0x0 }
  - { offsetInCU: 0x12A5E, offset: 0x4407DA, size: 0x8, addend: 0x0, symName: '__ZN5alloc7raw_vec19RawVec$LT$T$C$A$GT$16reserve_for_push17h46a23222a4b20700E', symObjAddr: 0x1250, symBinAddr: 0xB71C0, symSize: 0x0 }
  - { offsetInCU: 0x12F23, offset: 0x440C9F, size: 0x8, addend: 0x0, symName: '__ZN5alloc7raw_vec19RawVec$LT$T$C$A$GT$16reserve_for_push17h52de2e841bbd4653E', symObjAddr: 0x1320, symBinAddr: 0xB7290, symSize: 0xD0 }
  - { offsetInCU: 0x133E8, offset: 0x441164, size: 0x8, addend: 0x0, symName: '__ZN5alloc7raw_vec19RawVec$LT$T$C$A$GT$16reserve_for_push17h5435f1226628b70cE', symObjAddr: 0x13F0, symBinAddr: 0xB7360, symSize: 0xD0 }
  - { offsetInCU: 0x138AD, offset: 0x441629, size: 0x8, addend: 0x0, symName: '__ZN5alloc7raw_vec19RawVec$LT$T$C$A$GT$16reserve_for_push17h71935351b86bec57E', symObjAddr: 0x14C0, symBinAddr: 0xB7430, symSize: 0xB0 }
  - { offsetInCU: 0x13D71, offset: 0x441AED, size: 0x8, addend: 0x0, symName: '__ZN5alloc7raw_vec19RawVec$LT$T$C$A$GT$16reserve_for_push17h770742f0033a3542E', symObjAddr: 0x1570, symBinAddr: 0xB74E0, symSize: 0xC0 }
  - { offsetInCU: 0x14235, offset: 0x441FB1, size: 0x8, addend: 0x0, symName: '__ZN5alloc7raw_vec19RawVec$LT$T$C$A$GT$16reserve_for_push17h86f692456b543eb7E', symObjAddr: 0x1630, symBinAddr: 0xB75A0, symSize: 0xC0 }
  - { offsetInCU: 0x146FA, offset: 0x442476, size: 0x8, addend: 0x0, symName: '__ZN5alloc7raw_vec19RawVec$LT$T$C$A$GT$16reserve_for_push17h878804b307f94982E', symObjAddr: 0x16F0, symBinAddr: 0xB7660, symSize: 0xC0 }
  - { offsetInCU: 0x14BBF, offset: 0x44293B, size: 0x8, addend: 0x0, symName: '__ZN5alloc7raw_vec19RawVec$LT$T$C$A$GT$16reserve_for_push17h889a33689b0264dfE', symObjAddr: 0x17B0, symBinAddr: 0xB7720, symSize: 0xD0 }
  - { offsetInCU: 0x150AE, offset: 0x442E2A, size: 0x8, addend: 0x0, symName: '__ZN5alloc7raw_vec19RawVec$LT$T$C$A$GT$16reserve_for_push17h8eafba0cab3c2dcdE', symObjAddr: 0x1880, symBinAddr: 0xB77F0, symSize: 0xC0 }
  - { offsetInCU: 0x15572, offset: 0x4432EE, size: 0x8, addend: 0x0, symName: '__ZN5alloc7raw_vec19RawVec$LT$T$C$A$GT$16reserve_for_push17h98c6de81c43255e3E', symObjAddr: 0x1940, symBinAddr: 0xB78B0, symSize: 0x0 }
  - { offsetInCU: 0x15A37, offset: 0x4437B3, size: 0x8, addend: 0x0, symName: '__ZN5alloc7raw_vec19RawVec$LT$T$C$A$GT$16reserve_for_push17ha7ffa53757f2c194E', symObjAddr: 0x1A10, symBinAddr: 0xB7980, symSize: 0xD0 }
  - { offsetInCU: 0x15EFC, offset: 0x443C78, size: 0x8, addend: 0x0, symName: '__ZN5alloc7raw_vec19RawVec$LT$T$C$A$GT$16reserve_for_push17hbe43935ff1be244bE', symObjAddr: 0x1AE0, symBinAddr: 0xB7A50, symSize: 0x0 }
  - { offsetInCU: 0x163C0, offset: 0x44413C, size: 0x8, addend: 0x0, symName: '__ZN5alloc7raw_vec19RawVec$LT$T$C$A$GT$16reserve_for_push17hcca166daf631fbe0E', symObjAddr: 0x1BB0, symBinAddr: 0xB7B20, symSize: 0xD0 }
  - { offsetInCU: 0x16892, offset: 0x44460E, size: 0x8, addend: 0x0, symName: '__ZN5alloc7raw_vec19RawVec$LT$T$C$A$GT$16reserve_for_push17hd979c897ae7ef7edE', symObjAddr: 0x1C80, symBinAddr: 0xB7BF0, symSize: 0xD0 }
  - { offsetInCU: 0x16D56, offset: 0x444AD2, size: 0x8, addend: 0x0, symName: '__ZN5alloc7raw_vec19RawVec$LT$T$C$A$GT$16reserve_for_push17he5e22af04e3866afE', symObjAddr: 0x1D50, symBinAddr: 0xB7CC0, symSize: 0xD0 }
  - { offsetInCU: 0x1E, offset: 0x4452F7, size: 0x8, addend: 0x0, symName: '__ZN4core3ptr100drop_in_place$LT$core..option..Option$LT$alloc..boxed..Box$LT$syn..path..GenericArgument$GT$$GT$$GT$17h7435c9de74860622E', symObjAddr: 0x0, symBinAddr: 0xB80F0, symSize: 0x50 }
  - { offsetInCU: 0xB0, offset: 0x445389, size: 0x8, addend: 0x0, symName: '__ZN58_$LT$alloc..string..String$u20$as$u20$core..fmt..Write$GT$10write_char17hd329c0cb943f081aE', symObjAddr: 0x6FF0, symBinAddr: 0xBF0E0, symSize: 0x130 }
  - { offsetInCU: 0x457, offset: 0x445730, size: 0x8, addend: 0x0, symName: '__ZN58_$LT$alloc..string..String$u20$as$u20$core..fmt..Write$GT$9write_str17h1ff5aa96ca91c6d5E', symObjAddr: 0x7120, symBinAddr: 0xBF210, symSize: 0x60 }
  - { offsetInCU: 0x3433, offset: 0x44870C, size: 0x8, addend: 0x0, symName: '__ZN4core3ptr100drop_in_place$LT$core..option..Option$LT$alloc..boxed..Box$LT$syn..path..GenericArgument$GT$$GT$$GT$17h7435c9de74860622E', symObjAddr: 0x0, symBinAddr: 0xB80F0, symSize: 0x50 }
  - { offsetInCU: 0x3602, offset: 0x4488DB, size: 0x8, addend: 0x0, symName: '__ZN4core3ptr102drop_in_place$LT$syn..punctuated..Punctuated$LT$syn..path..GenericArgument$C$syn..token..Comma$GT$$GT$17h39496ba4e6dba6cfE', symObjAddr: 0x50, symBinAddr: 0xB8140, symSize: 0xF0 }
  - { offsetInCU: 0x38EB, offset: 0x448BC4, size: 0x8, addend: 0x0, symName: '__ZN4core3ptr103drop_in_place$LT$core..option..Option$LT$alloc..boxed..Box$LT$syn..generics..TypeParamBound$GT$$GT$$GT$17h5974f03e36b1a9c3E', symObjAddr: 0x140, symBinAddr: 0xB8230, symSize: 0x50 }
  - { offsetInCU: 0x3AF8, offset: 0x448DD1, size: 0x8, addend: 0x0, symName: '__ZN4core3ptr103drop_in_place$LT$syn..punctuated..Punctuated$LT$syn..generics..GenericParam$C$syn..token..Comma$GT$$GT$17hf42353fa44ed6da8E', symObjAddr: 0x190, symBinAddr: 0xB8280, symSize: 0xF0 }
  - { offsetInCU: 0x4094, offset: 0x44936D, size: 0x8, addend: 0x0, symName: '__ZN4core3ptr104drop_in_place$LT$syn..punctuated..Punctuated$LT$syn..generics..TypeParamBound$C$syn..token..Plus$GT$$GT$17h532f52c4a894b056E', symObjAddr: 0x280, symBinAddr: 0xB8370, symSize: 0x230 }
  - { offsetInCU: 0x4972, offset: 0x449C4B, size: 0x8, addend: 0x0, symName: '__ZN4core3ptr34drop_in_place$LT$syn..lit..Lit$GT$17h8902f5ff67917034E', symObjAddr: 0x4B0, symBinAddr: 0xB85A0, symSize: 0x110 }
  - { offsetInCU: 0x4ECB, offset: 0x44A1A4, size: 0x8, addend: 0x0, symName: '__ZN4core3ptr34drop_in_place$LT$syn..pat..Pat$GT$17h4581eea028ec0969E', symObjAddr: 0x5C0, symBinAddr: 0xB86B0, symSize: 0xEE0 }
  - { offsetInCU: 0x851A, offset: 0x44D7F3, size: 0x8, addend: 0x0, symName: '__ZN4core3ptr34drop_in_place$LT$syn..ty..Type$GT$17h369e41ad4a9f1ae0E', symObjAddr: 0x14A0, symBinAddr: 0xB9590, symSize: 0x5C0 }
  - { offsetInCU: 0x9D50, offset: 0x44F029, size: 0x8, addend: 0x0, symName: '__ZN4core3ptr36drop_in_place$LT$syn..expr..Expr$GT$17h0f7fd4c749bae801E.llvm.6085117338949153622', symObjAddr: 0x1A60, symBinAddr: 0xB9B50, symSize: 0x2800 }
  - { offsetInCU: 0x12F2D, offset: 0x458206, size: 0x8, addend: 0x0, symName: '__ZN4core3ptr36drop_in_place$LT$syn..mac..Macro$GT$17h4ffde962df30ebe2E', symObjAddr: 0x4260, symBinAddr: 0xBC350, symSize: 0xE0 }
  - { offsetInCU: 0x1329E, offset: 0x458577, size: 0x8, addend: 0x0, symName: '__ZN4core3ptr36drop_in_place$LT$syn..path..Path$GT$17habea856181211e1cE', symObjAddr: 0x4340, symBinAddr: 0xBC430, symSize: 0x220 }
  - { offsetInCU: 0x13BD3, offset: 0x458EAC, size: 0x8, addend: 0x0, symName: '__ZN4core3ptr37drop_in_place$LT$core..fmt..Error$GT$17h8e130a2736288a98E', symObjAddr: 0x4560, symBinAddr: 0xBC650, symSize: 0x10 }
  - { offsetInCU: 0x13BFF, offset: 0x458ED8, size: 0x8, addend: 0x0, symName: '__ZN4core3ptr37drop_in_place$LT$syn..stmt..Block$GT$17hcc21a21cf949414cE', symObjAddr: 0x4570, symBinAddr: 0xBC660, symSize: 0xD0 }
  - { offsetInCU: 0x13EA3, offset: 0x45917C, size: 0x8, addend: 0x0, symName: '__ZN4core3ptr38drop_in_place$LT$syn..expr..Member$GT$17h022cbe5553aa40faE', symObjAddr: 0x4640, symBinAddr: 0xBC730, symSize: 0x30 }
  - { offsetInCU: 0x1403B, offset: 0x459314, size: 0x8, addend: 0x0, symName: '__ZN4core3ptr38drop_in_place$LT$syn..group..Group$GT$17hc3a29a397b30f633E', symObjAddr: 0x4670, symBinAddr: 0xBC760, symSize: 0x70 }
  - { offsetInCU: 0x14351, offset: 0x45962A, size: 0x8, addend: 0x0, symName: '__ZN4core3ptr39drop_in_place$LT$proc_macro2..Ident$GT$17h8101e88c3ac359d6E', symObjAddr: 0x46E0, symBinAddr: 0xBC7D0, symSize: 0x30 }
  - { offsetInCU: 0x1446D, offset: 0x459746, size: 0x8, addend: 0x0, symName: '__ZN4core3ptr39drop_in_place$LT$syn..lit..LitFloat$GT$17h58fbb0bf27438490E', symObjAddr: 0x4710, symBinAddr: 0xBC800, symSize: 0x70 }
  - { offsetInCU: 0x147ED, offset: 0x459AC6, size: 0x8, addend: 0x0, symName: '__ZN4core3ptr40drop_in_place$LT$syn..expr..ExprPath$GT$17h03786fb79b09c4c0E', symObjAddr: 0x4780, symBinAddr: 0xBC870, symSize: 0x110 }
  - { offsetInCU: 0x14BF7, offset: 0x459ED0, size: 0x8, addend: 0x0, symName: '__ZN4core3ptr40drop_in_place$LT$syn..ty..ReturnType$GT$17h02cf41e2fec63d90E', symObjAddr: 0x4890, symBinAddr: 0xBC980, symSize: 0x50 }
  - { offsetInCU: 0x14DC6, offset: 0x45A09F, size: 0x8, addend: 0x0, symName: '__ZN4core3ptr41drop_in_place$LT$syn..attr..Attribute$GT$17h6038ab1bc013504dE', symObjAddr: 0x48E0, symBinAddr: 0xBC9D0, symSize: 0xB0 }
  - { offsetInCU: 0x14E4B, offset: 0x45A124, size: 0x8, addend: 0x0, symName: '__ZN4core3ptr41drop_in_place$LT$syn..expr..ExprConst$GT$17h725a13e551d9f276E', symObjAddr: 0x4990, symBinAddr: 0xBCA80, symSize: 0x180 }
  - { offsetInCU: 0x153A0, offset: 0x45A679, size: 0x8, addend: 0x0, symName: '__ZN4core3ptr42drop_in_place$LT$alloc..string..String$GT$17h781ac6273fa84cb0E', symObjAddr: 0x4B10, symBinAddr: 0xBCC00, symSize: 0x20 }
  - { offsetInCU: 0x154A9, offset: 0x45A782, size: 0x8, addend: 0x0, symName: '__ZN4core3ptr44drop_in_place$LT$syn..lifetime..Lifetime$GT$17hf0cdec2e9ec456d6E', symObjAddr: 0x4B30, symBinAddr: 0xBCC20, symSize: 0x30 }
  - { offsetInCU: 0x155A6, offset: 0x45A87F, size: 0x8, addend: 0x0, symName: '__ZN4core3ptr44drop_in_place$LT$syn..parse..ParseBuffer$GT$17hd0dadba44a19aec2E', symObjAddr: 0x4B60, symBinAddr: 0xBCC50, symSize: 0x70 }
  - { offsetInCU: 0x159DB, offset: 0x45ACB4, size: 0x8, addend: 0x0, symName: '__ZN4core3ptr45drop_in_place$LT$proc_macro2..TokenStream$GT$17h3405f6c513e9f6cbE', symObjAddr: 0x4BD0, symBinAddr: 0xBCCC0, symSize: 0x140 }
  - { offsetInCU: 0x15E4A, offset: 0x45B123, size: 0x8, addend: 0x0, symName: '__ZN4core3ptr45drop_in_place$LT$syn..generics..TypeParam$GT$17he5eda51070b7de47E', symObjAddr: 0x4D10, symBinAddr: 0xBCE00, symSize: 0x230 }
  - { offsetInCU: 0x16646, offset: 0x45B91F, size: 0x8, addend: 0x0, symName: '__ZN4core3ptr46drop_in_place$LT$syn..generics..ConstParam$GT$17hab0a58c4af8c549cE', symObjAddr: 0x4F40, symBinAddr: 0xBD030, symSize: 0x150 }
  - { offsetInCU: 0x16A70, offset: 0x45BD49, size: 0x8, addend: 0x0, symName: '__ZN4core3ptr47drop_in_place$LT$syn..path..GenericArgument$GT$17h54f8794633f96823E', symObjAddr: 0x5090, symBinAddr: 0xBD180, symSize: 0x460 }
  - { offsetInCU: 0x17779, offset: 0x45CA52, size: 0x8, addend: 0x0, symName: '__ZN4core3ptr49drop_in_place$LT$syn..generics..LifetimeParam$GT$17h41a7c7a290ea6289E', symObjAddr: 0x54F0, symBinAddr: 0xBD5E0, symSize: 0xF0 }
  - { offsetInCU: 0x17B33, offset: 0x45CE0C, size: 0x8, addend: 0x0, symName: '__ZN4core3ptr50drop_in_place$LT$syn..generics..TypeParamBound$GT$17hcd7771d4c6c221efE', symObjAddr: 0x55E0, symBinAddr: 0xBD6D0, symSize: 0xA0 }
  - { offsetInCU: 0x17C9A, offset: 0x45CF73, size: 0x8, addend: 0x0, symName: '__ZN4core3ptr58drop_in_place$LT$alloc..vec..Vec$LT$syn..expr..Arm$GT$$GT$17h1a55df3d2cba1daaE', symObjAddr: 0x5680, symBinAddr: 0xBD770, symSize: 0xD0 }
  - { offsetInCU: 0x17F27, offset: 0x45D200, size: 0x8, addend: 0x0, symName: '__ZN4core3ptr59drop_in_place$LT$alloc..boxed..Box$LT$syn..pat..Pat$GT$$GT$17h563b135d87aca8abE', symObjAddr: 0x5750, symBinAddr: 0xBD840, symSize: 0x50 }
  - { offsetInCU: 0x18082, offset: 0x45D35B, size: 0x8, addend: 0x0, symName: '__ZN4core3ptr59drop_in_place$LT$alloc..boxed..Box$LT$syn..ty..Type$GT$$GT$17hffed36bad83adacbE', symObjAddr: 0x57A0, symBinAddr: 0xBD890, symSize: 0x50 }
  - { offsetInCU: 0x181DD, offset: 0x45D4B6, size: 0x8, addend: 0x0, symName: '__ZN4core3ptr61drop_in_place$LT$alloc..boxed..Box$LT$syn..expr..Expr$GT$$GT$17h01091e47f131475dE', symObjAddr: 0x57F0, symBinAddr: 0xBD8E0, symSize: 0x50 }
  - { offsetInCU: 0x18338, offset: 0x45D611, size: 0x8, addend: 0x0, symName: '__ZN4core3ptr61drop_in_place$LT$syn..path..ParenthesizedGenericArguments$GT$17h43d4aac5494326a7E', symObjAddr: 0x5840, symBinAddr: 0xBD930, symSize: 0x170 }
  - { offsetInCU: 0x18912, offset: 0x45DBEB, size: 0x8, addend: 0x0, symName: '__ZN4core3ptr63drop_in_place$LT$alloc..boxed..Box$LT$syn..lit..LitRepr$GT$$GT$17hd8839b7fb35ee7afE', symObjAddr: 0x59B0, symBinAddr: 0xBDAA0, symSize: 0x60 }
  - { offsetInCU: 0x18C07, offset: 0x45DEE0, size: 0x8, addend: 0x0, symName: '__ZN4core3ptr64drop_in_place$LT$alloc..boxed..Box$LT$syn..pat..FieldPat$GT$$GT$17h4980b70a7597cc08E', symObjAddr: 0x5A10, symBinAddr: 0xBDB00, symSize: 0x140 }
  - { offsetInCU: 0x192B2, offset: 0x45E58B, size: 0x8, addend: 0x0, symName: '__ZN4core3ptr64drop_in_place$LT$alloc..boxed..Box$LT$syn..ty..BareFnArg$GT$$GT$17h8b34096c620314efE', symObjAddr: 0x5B50, symBinAddr: 0xBDC40, symSize: 0x140 }
  - { offsetInCU: 0x197D6, offset: 0x45EAAF, size: 0x8, addend: 0x0, symName: '__ZN4core3ptr64drop_in_place$LT$alloc..vec..Vec$LT$syn..attr..Attribute$GT$$GT$17h3c8f2a04e701c675E.llvm.6085117338949153622', symObjAddr: 0x5C90, symBinAddr: 0xBDD80, symSize: 0xD0 }
  - { offsetInCU: 0x19A63, offset: 0x45ED3C, size: 0x8, addend: 0x0, symName: '__ZN4core3ptr65drop_in_place$LT$core..option..Option$LT$syn..expr..Label$GT$$GT$17h78189e72a8cb7951E', symObjAddr: 0x5D60, symBinAddr: 0xBDE50, symSize: 0x30 }
  - { offsetInCU: 0x19B9E, offset: 0x45EE77, size: 0x8, addend: 0x0, symName: '__ZN4core3ptr65drop_in_place$LT$core..option..Option$LT$syn..path..QSelf$GT$$GT$17h9b72552ca06b7379E', symObjAddr: 0x5D90, symBinAddr: 0xBDE80, symSize: 0x50 }
  - { offsetInCU: 0x19D21, offset: 0x45EFFA, size: 0x8, addend: 0x0, symName: '__ZN4core3ptr66drop_in_place$LT$core..option..Option$LT$syn..pat..PatRest$GT$$GT$17h61677cf4ff3a7393E', symObjAddr: 0x5DE0, symBinAddr: 0xBDED0, symSize: 0xE0 }
  - { offsetInCU: 0x19FA5, offset: 0x45F27E, size: 0x8, addend: 0x0, symName: '__ZN4core3ptr67drop_in_place$LT$alloc..boxed..Box$LT$syn..expr..FieldValue$GT$$GT$17h93aaccf8aa22ef88E', symObjAddr: 0x5EC0, symBinAddr: 0xBDFB0, symSize: 0x140 }
  - { offsetInCU: 0x1A4C8, offset: 0x45F7A1, size: 0x8, addend: 0x0, symName: '__ZN4core3ptr70drop_in_place$LT$core..option..Option$LT$syn..ty..BareVariadic$GT$$GT$17h45399348ea4b8d55E', symObjAddr: 0x6000, symBinAddr: 0xBE0F0, symSize: 0x120 }
  - { offsetInCU: 0x1A9F5, offset: 0x45FCCE, size: 0x8, addend: 0x0, symName: '__ZN4core3ptr72drop_in_place$LT$alloc..boxed..Box$LT$syn..path..GenericArgument$GT$$GT$17haa7dd8b716637b54E', symObjAddr: 0x6120, symBinAddr: 0xBE210, symSize: 0x2B0 }
  - { offsetInCU: 0x1B3E0, offset: 0x4606B9, size: 0x8, addend: 0x0, symName: '__ZN4core3ptr72drop_in_place$LT$core..option..Option$LT$syn..lifetime..Lifetime$GT$$GT$17hfc363ccdd8bd9c32E', symObjAddr: 0x63D0, symBinAddr: 0xBE4C0, symSize: 0x30 }
  - { offsetInCU: 0x1B4FC, offset: 0x4607D5, size: 0x8, addend: 0x0, symName: '__ZN4core3ptr73drop_in_place$LT$alloc..boxed..Box$LT$syn..generics..GenericParam$GT$$GT$17hf6951dcd5ae07324E', symObjAddr: 0x6400, symBinAddr: 0xBE4F0, symSize: 0x80 }
  - { offsetInCU: 0x1B674, offset: 0x46094D, size: 0x8, addend: 0x0, symName: '__ZN4core3ptr75drop_in_place$LT$alloc..boxed..Box$LT$syn..generics..TypeParamBound$GT$$GT$17he61c00698a311a34E', symObjAddr: 0x6480, symBinAddr: 0xBE570, symSize: 0x160 }
  - { offsetInCU: 0x1BC3A, offset: 0x460F13, size: 0x8, addend: 0x0, symName: '__ZN4core3ptr83drop_in_place$LT$core..result..Result$LT$syn..op..BinOp$C$syn..error..Error$GT$$GT$17h1f0ce0e4fd241856E', symObjAddr: 0x65E0, symBinAddr: 0xBE6D0, symSize: 0x90 }
  - { offsetInCU: 0x1BF1E, offset: 0x4611F7, size: 0x8, addend: 0x0, symName: '__ZN4core3ptr86drop_in_place$LT$syn..punctuated..Punctuated$LT$syn..pat..Pat$C$syn..token..Or$GT$$GT$17h8e9173df21a44316E', symObjAddr: 0x6670, symBinAddr: 0xBE760, symSize: 0x120 }
  - { offsetInCU: 0x1C364, offset: 0x46163D, size: 0x8, addend: 0x0, symName: '__ZN4core3ptr87drop_in_place$LT$core..option..Option$LT$alloc..boxed..Box$LT$syn..pat..Pat$GT$$GT$$GT$17hd7b7c69f601b3926E', symObjAddr: 0x6790, symBinAddr: 0xBE880, symSize: 0x50 }
  - { offsetInCU: 0x1C4D6, offset: 0x4617AF, size: 0x8, addend: 0x0, symName: '__ZN4core3ptr87drop_in_place$LT$core..option..Option$LT$alloc..boxed..Box$LT$syn..ty..Type$GT$$GT$$GT$17hd74f5d971aec2972E', symObjAddr: 0x67E0, symBinAddr: 0xBE8D0, symSize: 0x50 }
  - { offsetInCU: 0x1C648, offset: 0x461921, size: 0x8, addend: 0x0, symName: '__ZN4core3ptr89drop_in_place$LT$core..option..Option$LT$alloc..boxed..Box$LT$syn..expr..Expr$GT$$GT$$GT$17h8e135ac1a25a2dc5E', symObjAddr: 0x6830, symBinAddr: 0xBE920, symSize: 0x50 }
  - { offsetInCU: 0x1C7F8, offset: 0x461AD1, size: 0x8, addend: 0x0, symName: '__ZN4core3ptr89drop_in_place$LT$syn..punctuated..Punctuated$LT$syn..pat..Pat$C$syn..token..Comma$GT$$GT$17h8d60e47f3fb1f87aE', symObjAddr: 0x6880, symBinAddr: 0xBE970, symSize: 0x120 }
  - { offsetInCU: 0x1CC93, offset: 0x461F6C, size: 0x8, addend: 0x0, symName: '__ZN4core3ptr91drop_in_place$LT$syn..punctuated..Punctuated$LT$syn..expr..Expr$C$syn..token..Comma$GT$$GT$17h4f39b83dc86a4159E', symObjAddr: 0x69A0, symBinAddr: 0xBEA90, symSize: 0x120 }
  - { offsetInCU: 0x1D0DD, offset: 0x4623B6, size: 0x8, addend: 0x0, symName: '__ZN4core3ptr94drop_in_place$LT$syn..punctuated..Punctuated$LT$syn..pat..FieldPat$C$syn..token..Comma$GT$$GT$17h112950ea198c8281E', symObjAddr: 0x6AC0, symBinAddr: 0xBEBB0, symSize: 0xF0 }
  - { offsetInCU: 0x1D3A7, offset: 0x462680, size: 0x8, addend: 0x0, symName: '__ZN4core3ptr94drop_in_place$LT$syn..punctuated..Punctuated$LT$syn..ty..BareFnArg$C$syn..token..Comma$GT$$GT$17h1c7b44310f06243dE', symObjAddr: 0x6BB0, symBinAddr: 0xBECA0, symSize: 0xF0 }
  - { offsetInCU: 0x1D671, offset: 0x46294A, size: 0x8, addend: 0x0, symName: '__ZN4core3ptr96drop_in_place$LT$core..option..Option$LT$alloc..boxed..Box$LT$syn..path..PathSegment$GT$$GT$$GT$17hb447d0f626c86a4eE', symObjAddr: 0x6CA0, symBinAddr: 0xBED90, symSize: 0x180 }
  - { offsetInCU: 0x1DD02, offset: 0x462FDB, size: 0x8, addend: 0x0, symName: '__ZN4core3ptr97drop_in_place$LT$syn..punctuated..Punctuated$LT$syn..expr..FieldValue$C$syn..token..Comma$GT$$GT$17h31b81f7462228dcbE', symObjAddr: 0x6E20, symBinAddr: 0xBEF10, symSize: 0xF0 }
  - { offsetInCU: 0x1E048, offset: 0x463321, size: 0x8, addend: 0x0, symName: '__ZN4core3ptr98drop_in_place$LT$syn..punctuated..Punctuated$LT$syn..lifetime..Lifetime$C$syn..token..Plus$GT$$GT$17h0f8fc5f20f465f47E', symObjAddr: 0x6F10, symBinAddr: 0xBF000, symSize: 0xC0 }
  - { offsetInCU: 0x1EAEC, offset: 0x463DC5, size: 0x8, addend: 0x0, symName: '__ZN53_$LT$core..fmt..Error$u20$as$u20$core..fmt..Debug$GT$3fmt17h43ae5cec9623af13E', symObjAddr: 0x6FD0, symBinAddr: 0xBF0C0, symSize: 0x20 }
  - { offsetInCU: 0x2902F, offset: 0x46E308, size: 0x8, addend: 0x0, symName: __ZN3syn4expr7parsing32parse_with_earlier_boundary_rule17hb02ce308a02a4a1eE, symObjAddr: 0x7180, symBinAddr: 0xBF270, symSize: 0x15B0 }
  - { offsetInCU: 0x2B40E, offset: 0x4706E7, size: 0x8, addend: 0x0, symName: __ZN3syn4expr7parsing14can_begin_expr17hb418906263911ccdE, symObjAddr: 0x8730, symBinAddr: 0xC0820, symSize: 0x4C0 }
  - { offsetInCU: 0x2C9D6, offset: 0x471CAF, size: 0x8, addend: 0x0, symName: __ZN3syn4expr7parsing10parse_expr17h9eb2cb7aa6283d86E.llvm.6085117338949153622, symObjAddr: 0x8BF0, symBinAddr: 0xC0CE0, symSize: 0x12E0 }
  - { offsetInCU: 0x2F6CD, offset: 0x4749A6, size: 0x8, addend: 0x0, symName: __ZN3syn4expr7parsing15parse_binop_rhs17h21ef9d80df571ec4E, symObjAddr: 0x9ED0, symBinAddr: 0xC1FC0, symSize: 0x540 }
  - { offsetInCU: 0x301EC, offset: 0x4754C5, size: 0x8, addend: 0x0, symName: __ZN3syn4expr7parsing14ambiguous_expr17he0894ca122c7f4e6E, symObjAddr: 0xA410, symBinAddr: 0xC2500, symSize: 0x100 }
  - { offsetInCU: 0x30267, offset: 0x475540, size: 0x8, addend: 0x0, symName: __ZN3syn4expr7parsing10expr_attrs17hf14159509fa85ca8E, symObjAddr: 0xA510, symBinAddr: 0xC2600, symSize: 0x2A0 }
  - { offsetInCU: 0x3082D, offset: 0x475B06, size: 0x8, addend: 0x0, symName: __ZN3syn4expr7parsing10unary_expr17h8c2a984611866bdaE, symObjAddr: 0xA7B0, symBinAddr: 0xC28A0, symSize: 0x8C0 }
  - { offsetInCU: 0x31E92, offset: 0x47716B, size: 0x8, addend: 0x0, symName: __ZN3syn4expr7parsing12trailer_expr17h8a2bdad4a40548d7E, symObjAddr: 0xB070, symBinAddr: 0xC3160, symSize: 0x1A90 }
  - { offsetInCU: 0x36106, offset: 0x47B3DF, size: 0x8, addend: 0x0, symName: __ZN3syn4expr7parsing14trailer_helper17h1b30b9a4fbca87bcE, symObjAddr: 0xCB00, symBinAddr: 0xC4BF0, symSize: 0x21A0 }
  - { offsetInCU: 0x3A2CB, offset: 0x47F5A4, size: 0x8, addend: 0x0, symName: __ZN3syn4expr7parsing12atom_labeled17h2b63f0bdbd1ffcf9E, symObjAddr: 0xECA0, symBinAddr: 0xC6D90, symSize: 0x730 }
  - { offsetInCU: 0x3ACA5, offset: 0x47FF7E, size: 0x8, addend: 0x0, symName: __ZN3syn4expr7parsing12expr_builtin17hfe4d7860eb8d93a5E, symObjAddr: 0xF3D0, symBinAddr: 0xC74C0, symSize: 0x3E0 }
  - { offsetInCU: 0x3B6F9, offset: 0x4809D2, size: 0x8, addend: 0x0, symName: __ZN3syn4expr7parsing23path_or_macro_or_struct17h3a35c18dd12111cfE, symObjAddr: 0xF7B0, symBinAddr: 0xC78A0, symSize: 0x160 }
  - { offsetInCU: 0x3B7B3, offset: 0x480A8C, size: 0x8, addend: 0x0, symName: __ZN3syn4expr7parsing31rest_of_path_or_macro_or_struct17h1201e78c90bb81baE, symObjAddr: 0xF910, symBinAddr: 0xC7A00, symSize: 0x460 }
  - { offsetInCU: 0x3C033, offset: 0x48130C, size: 0x8, addend: 0x0, symName: __ZN3syn4expr7parsing14paren_or_tuple17h595ef5967864e1f0E, symObjAddr: 0xFD70, symBinAddr: 0xC7E60, symSize: 0x810 }
  - { offsetInCU: 0x3C966, offset: 0x481C3F, size: 0x8, addend: 0x0, symName: __ZN3syn4expr7parsing15array_or_repeat17h16f1a87c0a940f8cE, symObjAddr: 0x10580, symBinAddr: 0xC8670, symSize: 0x1240 }
  - { offsetInCU: 0x3F92B, offset: 0x484C04, size: 0x8, addend: 0x0, symName: __ZN3syn4expr7parsing10expr_group17h143c5f8a1b43603cE, symObjAddr: 0x117C0, symBinAddr: 0xC98B0, symSize: 0x920 }
  - { offsetInCU: 0x403E7, offset: 0x4856C0, size: 0x8, addend: 0x0, symName: __ZN3syn4expr7parsing8expr_let17h53e6315ac8b5aee1E, symObjAddr: 0x12340, symBinAddr: 0xCA1D0, symSize: 0x560 }
  - { offsetInCU: 0x40BA6, offset: 0x485E7F, size: 0x8, addend: 0x0, symName: __ZN3syn4expr7parsing10expr_unary17haacb582ebfbd68bfE, symObjAddr: 0x128A0, symBinAddr: 0xCA730, symSize: 0x2E0 }
  - { offsetInCU: 0x4112B, offset: 0x486404, size: 0x8, addend: 0x0, symName: __ZN3syn4expr7parsing12expr_closure17h23f22c4f2a9fedcbE, symObjAddr: 0x12B80, symBinAddr: 0xCAA10, symSize: 0x1530 }
  - { offsetInCU: 0x42CF4, offset: 0x487FCD, size: 0x8, addend: 0x0, symName: __ZN3syn4expr7parsing10expr_break17hd5ff63487f71dcffE, symObjAddr: 0x140B0, symBinAddr: 0xCBF40, symSize: 0x7E0 }
  - { offsetInCU: 0x43E45, offset: 0x48911E, size: 0x8, addend: 0x0, symName: __ZN3syn4expr7parsing18expr_struct_helper17h4c61023c9d934da0E, symObjAddr: 0x14890, symBinAddr: 0xCC720, symSize: 0x9C0 }
  - { offsetInCU: 0x44EAC, offset: 0x48A185, size: 0x8, addend: 0x0, symName: __ZN3syn4expr7parsing10expr_range17h09e34d6c6faf79a6E, symObjAddr: 0x15250, symBinAddr: 0xCD0E0, symSize: 0xE0 }
  - { offsetInCU: 0x4506C, offset: 0x48A345, size: 0x8, addend: 0x0, symName: __ZN3syn4expr7parsing15parse_range_end17h0db540d84762afd5E, symObjAddr: 0x15330, symBinAddr: 0xCD1C0, symSize: 0x194 }
  - { offsetInCU: 0x1E, offset: 0x49D0F6, size: 0x8, addend: 0x0, symName: '__ZN4core3ptr100drop_in_place$LT$core..option..Option$LT$alloc..boxed..Box$LT$syn..path..GenericArgument$GT$$GT$$GT$17h7435c9de74860622E', symObjAddr: 0x0, symBinAddr: 0xCD360, symSize: 0x50 }
  - { offsetInCU: 0x18A2, offset: 0x49E97A, size: 0x8, addend: 0x0, symName: '__ZN4core3ptr100drop_in_place$LT$core..option..Option$LT$alloc..boxed..Box$LT$syn..path..GenericArgument$GT$$GT$$GT$17h7435c9de74860622E', symObjAddr: 0x0, symBinAddr: 0xCD360, symSize: 0x50 }
  - { offsetInCU: 0x1A71, offset: 0x49EB49, size: 0x8, addend: 0x0, symName: '__ZN4core3ptr102drop_in_place$LT$syn..punctuated..Punctuated$LT$syn..path..GenericArgument$C$syn..token..Comma$GT$$GT$17h39496ba4e6dba6cfE', symObjAddr: 0x50, symBinAddr: 0xCD3B0, symSize: 0xF0 }
  - { offsetInCU: 0x1D5A, offset: 0x49EE32, size: 0x8, addend: 0x0, symName: '__ZN4core3ptr103drop_in_place$LT$core..option..Option$LT$alloc..boxed..Box$LT$syn..generics..TypeParamBound$GT$$GT$$GT$17h5974f03e36b1a9c3E', symObjAddr: 0x140, symBinAddr: 0xCD4A0, symSize: 0x50 }
  - { offsetInCU: 0x2021, offset: 0x49F0F9, size: 0x8, addend: 0x0, symName: '__ZN4core3ptr103drop_in_place$LT$core..option..Option$LT$alloc..boxed..Box$LT$syn..generics..WherePredicate$GT$$GT$$GT$17hdd5111a374d8d6f2E', symObjAddr: 0x190, symBinAddr: 0xCD4F0, symSize: 0xD0 }
  - { offsetInCU: 0x23B4, offset: 0x49F48C, size: 0x8, addend: 0x0, symName: '__ZN4core3ptr103drop_in_place$LT$syn..punctuated..Punctuated$LT$syn..generics..GenericParam$C$syn..token..Comma$GT$$GT$17hf42353fa44ed6da8E', symObjAddr: 0x260, symBinAddr: 0xCD5C0, symSize: 0xF0 }
  - { offsetInCU: 0x2877, offset: 0x49F94F, size: 0x8, addend: 0x0, symName: '__ZN4core3ptr104drop_in_place$LT$syn..punctuated..Punctuated$LT$syn..generics..TypeParamBound$C$syn..token..Plus$GT$$GT$17h532f52c4a894b056E', symObjAddr: 0x350, symBinAddr: 0xCD6B0, symSize: 0x230 }
  - { offsetInCU: 0x326C, offset: 0x4A0344, size: 0x8, addend: 0x0, symName: '__ZN4core3ptr109drop_in_place$LT$core..result..Result$LT$core..option..Option$LT$syn..ty..Abi$GT$$C$syn..error..Error$GT$$GT$17h8e7e96ef88c194afE', symObjAddr: 0x580, symBinAddr: 0xCD8E0, symSize: 0xD0 }
  - { offsetInCU: 0x384A, offset: 0x4A0922, size: 0x8, addend: 0x0, symName: '__ZN4core3ptr115drop_in_place$LT$core..option..Option$LT$$LP$alloc..boxed..Box$LT$syn..pat..Pat$GT$$C$syn..token..Colon$RP$$GT$$GT$17he854acc3c4717d92E', symObjAddr: 0x650, symBinAddr: 0xCD9B0, symSize: 0x50 }
  - { offsetInCU: 0x3A1A, offset: 0x4A0AF2, size: 0x8, addend: 0x0, symName: '__ZN4core3ptr115drop_in_place$LT$core..option..Option$LT$$LP$syn..token..Brace$C$alloc..vec..Vec$LT$syn..item..Item$GT$$RP$$GT$$GT$17h6df5bf3d47177236E', symObjAddr: 0x6A0, symBinAddr: 0xCDA00, symSize: 0xE0 }
  - { offsetInCU: 0x3CC1, offset: 0x4A0D99, size: 0x8, addend: 0x0, symName: '__ZN4core3ptr126drop_in_place$LT$core..option..Option$LT$$LP$syn..token..And$C$core..option..Option$LT$syn..lifetime..Lifetime$GT$$RP$$GT$$GT$17hc269ac95805979aaE', symObjAddr: 0x780, symBinAddr: 0xCDAE0, symSize: 0x30 }
  - { offsetInCU: 0x3E1B, offset: 0x4A0EF3, size: 0x8, addend: 0x0, symName: '__ZN4core3ptr34drop_in_place$LT$syn..lit..Lit$GT$17h8902f5ff67917034E', symObjAddr: 0x7B0, symBinAddr: 0xCDB10, symSize: 0x110 }
  - { offsetInCU: 0x4355, offset: 0x4A142D, size: 0x8, addend: 0x0, symName: '__ZN4core3ptr34drop_in_place$LT$syn..pat..Pat$GT$17h4581eea028ec0969E', symObjAddr: 0x8C0, symBinAddr: 0xCDC20, symSize: 0xEE0 }
  - { offsetInCU: 0x78CB, offset: 0x4A49A3, size: 0x8, addend: 0x0, symName: '__ZN4core3ptr34drop_in_place$LT$syn..ty..Type$GT$17h369e41ad4a9f1ae0E', symObjAddr: 0x17A0, symBinAddr: 0xCEB00, symSize: 0x5C0 }
  - { offsetInCU: 0x9101, offset: 0x4A61D9, size: 0x8, addend: 0x0, symName: '__ZN4core3ptr36drop_in_place$LT$syn..expr..Expr$GT$17h0f7fd4c749bae801E', symObjAddr: 0x1D60, symBinAddr: 0xCF0C0, symSize: 0x2800 }
  - { offsetInCU: 0x126FC, offset: 0x4AF7D4, size: 0x8, addend: 0x0, symName: '__ZN4core3ptr36drop_in_place$LT$syn..item..Item$GT$17h13f5a53479ba6379E', symObjAddr: 0x4560, symBinAddr: 0xD18C0, symSize: 0x1800 }
  - { offsetInCU: 0x17CD5, offset: 0x4B4DAD, size: 0x8, addend: 0x0, symName: '__ZN4core3ptr36drop_in_place$LT$syn..mac..Macro$GT$17h4ffde962df30ebe2E', symObjAddr: 0x5D60, symBinAddr: 0xD30C0, symSize: 0xE0 }
  - { offsetInCU: 0x18046, offset: 0x4B511E, size: 0x8, addend: 0x0, symName: '__ZN4core3ptr36drop_in_place$LT$syn..path..Path$GT$17habea856181211e1cE', symObjAddr: 0x5E40, symBinAddr: 0xD31A0, symSize: 0x220 }
  - { offsetInCU: 0x1897B, offset: 0x4B5A53, size: 0x8, addend: 0x0, symName: '__ZN4core3ptr37drop_in_place$LT$syn..item..FnArg$GT$17h3308e115b3b3c9adE', symObjAddr: 0x6060, symBinAddr: 0xD33C0, symSize: 0x190 }
  - { offsetInCU: 0x18EB5, offset: 0x4B5F8D, size: 0x8, addend: 0x0, symName: '__ZN4core3ptr37drop_in_place$LT$syn..stmt..Block$GT$17hcc21a21cf949414cE', symObjAddr: 0x61F0, symBinAddr: 0xD3550, symSize: 0xD0 }
  - { offsetInCU: 0x19178, offset: 0x4B6250, size: 0x8, addend: 0x0, symName: '__ZN4core3ptr38drop_in_place$LT$syn..data..Fields$GT$17h1dd1b203befc1316E', symObjAddr: 0x62C0, symBinAddr: 0xD3620, symSize: 0x190 }
  - { offsetInCU: 0x19596, offset: 0x4B666E, size: 0x8, addend: 0x0, symName: '__ZN4core3ptr38drop_in_place$LT$syn..expr..Member$GT$17h022cbe5553aa40faE', symObjAddr: 0x6450, symBinAddr: 0xD37B0, symSize: 0x30 }
  - { offsetInCU: 0x19693, offset: 0x4B676B, size: 0x8, addend: 0x0, symName: '__ZN4core3ptr39drop_in_place$LT$proc_macro2..Ident$GT$17h8101e88c3ac359d6E', symObjAddr: 0x6480, symBinAddr: 0xD37E0, symSize: 0x30 }
  - { offsetInCU: 0x197ED, offset: 0x4B68C5, size: 0x8, addend: 0x0, symName: '__ZN4core3ptr39drop_in_place$LT$syn..item..UseTree$GT$17h5b1281a5704d139dE', symObjAddr: 0x64B0, symBinAddr: 0xD3810, symSize: 0xD0 }
  - { offsetInCU: 0x19BA2, offset: 0x4B6C7A, size: 0x8, addend: 0x0, symName: '__ZN4core3ptr39drop_in_place$LT$syn..ty..TypeGroup$GT$17h40bac393b20ff4afE', symObjAddr: 0x6580, symBinAddr: 0xD38E0, symSize: 0x50 }
  - { offsetInCU: 0x19D8B, offset: 0x4B6E63, size: 0x8, addend: 0x0, symName: '__ZN4core3ptr40drop_in_place$LT$syn..item..ImplItem$GT$17he2e6e8f15695ea55E', symObjAddr: 0x65D0, symBinAddr: 0xD3930, symSize: 0x7D0 }
  - { offsetInCU: 0x1B533, offset: 0x4B860B, size: 0x8, addend: 0x0, symName: '__ZN4core3ptr40drop_in_place$LT$syn..item..ItemImpl$GT$17h1b09f17c1730ab9cE', symObjAddr: 0x6DA0, symBinAddr: 0xD4100, symSize: 0x1F0 }
  - { offsetInCU: 0x1BC6E, offset: 0x4B8D46, size: 0x8, addend: 0x0, symName: '__ZN4core3ptr40drop_in_place$LT$syn..item..Receiver$GT$17h6743a41cd869c536E', symObjAddr: 0x6F90, symBinAddr: 0xD42F0, symSize: 0x130 }
  - { offsetInCU: 0x1C201, offset: 0x4B92D9, size: 0x8, addend: 0x0, symName: '__ZN4core3ptr40drop_in_place$LT$syn..item..Variadic$GT$17h856c1da4a3922974E', symObjAddr: 0x70C0, symBinAddr: 0xD4420, symSize: 0x110 }
  - { offsetInCU: 0x1C624, offset: 0x4B96FC, size: 0x8, addend: 0x0, symName: '__ZN4core3ptr40drop_in_place$LT$syn..ty..ReturnType$GT$17h02cf41e2fec63d90E', symObjAddr: 0x71D0, symBinAddr: 0xD4530, symSize: 0x50 }
  - { offsetInCU: 0x1C796, offset: 0x4B986E, size: 0x8, addend: 0x0, symName: '__ZN4core3ptr41drop_in_place$LT$syn..expr..ExprConst$GT$17h725a13e551d9f276E', symObjAddr: 0x7220, symBinAddr: 0xD4580, symSize: 0x180 }
  - { offsetInCU: 0x1CD0A, offset: 0x4B9DE2, size: 0x8, addend: 0x0, symName: '__ZN4core3ptr41drop_in_place$LT$syn..item..Signature$GT$17h691f115807a5d1eeE', symObjAddr: 0x73A0, symBinAddr: 0xD4700, symSize: 0x160 }
  - { offsetInCU: 0x1D3F6, offset: 0x4BA4CE, size: 0x8, addend: 0x0, symName: '__ZN4core3ptr41drop_in_place$LT$syn..item..TraitItem$GT$17hb6f9fbcba8fdea85E', symObjAddr: 0x7500, symBinAddr: 0xD4860, symSize: 0x6A0 }
  - { offsetInCU: 0x1E675, offset: 0x4BB74D, size: 0x8, addend: 0x0, symName: '__ZN4core3ptr43drop_in_place$LT$syn..data..FieldsNamed$GT$17hb2a97e73a85352cbE', symObjAddr: 0x7BA0, symBinAddr: 0xD4F00, symSize: 0xE0 }
  - { offsetInCU: 0x1E964, offset: 0x4BBA3C, size: 0x8, addend: 0x0, symName: '__ZN4core3ptr44drop_in_place$LT$syn..generics..Generics$GT$17h10dea28dec64f81eE', symObjAddr: 0x7C80, symBinAddr: 0xD4FE0, symSize: 0x40 }
  - { offsetInCU: 0x1E981, offset: 0x4BBA59, size: 0x8, addend: 0x0, symName: '__ZN4core3ptr44drop_in_place$LT$syn..lifetime..Lifetime$GT$17hf0cdec2e9ec456d6E', symObjAddr: 0x7CC0, symBinAddr: 0xD5020, symSize: 0x30 }
  - { offsetInCU: 0x1EAFA, offset: 0x4BBBD2, size: 0x8, addend: 0x0, symName: '__ZN4core3ptr44drop_in_place$LT$syn..parse..ParseBuffer$GT$17hd0dadba44a19aec2E', symObjAddr: 0x7CF0, symBinAddr: 0xD5050, symSize: 0x70 }
  - { offsetInCU: 0x1EF2F, offset: 0x4BC007, size: 0x8, addend: 0x0, symName: '__ZN4core3ptr45drop_in_place$LT$proc_macro2..TokenStream$GT$17h3405f6c513e9f6cbE', symObjAddr: 0x7D60, symBinAddr: 0xD50C0, symSize: 0x140 }
  - { offsetInCU: 0x1F39E, offset: 0x4BC476, size: 0x8, addend: 0x0, symName: '__ZN4core3ptr45drop_in_place$LT$syn..generics..TypeParam$GT$17he5eda51070b7de47E', symObjAddr: 0x7EA0, symBinAddr: 0xD5200, symSize: 0x230 }
  - { offsetInCU: 0x1FB9A, offset: 0x4BCC72, size: 0x8, addend: 0x0, symName: '__ZN4core3ptr46drop_in_place$LT$syn..generics..ConstParam$GT$17hab0a58c4af8c549cE', symObjAddr: 0x80D0, symBinAddr: 0xD5430, symSize: 0x150 }
  - { offsetInCU: 0x1FFC4, offset: 0x4BD09C, size: 0x8, addend: 0x0, symName: '__ZN4core3ptr47drop_in_place$LT$syn..path..GenericArgument$GT$17h54f8794633f96823E', symObjAddr: 0x8220, symBinAddr: 0xD5580, symSize: 0x460 }
  - { offsetInCU: 0x20CCD, offset: 0x4BDDA5, size: 0x8, addend: 0x0, symName: '__ZN4core3ptr49drop_in_place$LT$syn..generics..LifetimeParam$GT$17h41a7c7a290ea6289E', symObjAddr: 0x8680, symBinAddr: 0xD59E0, symSize: 0xF0 }
  - { offsetInCU: 0x21087, offset: 0x4BE15F, size: 0x8, addend: 0x0, symName: '__ZN4core3ptr49drop_in_place$LT$syn..restriction..Visibility$GT$17h2a932c493942ef80E', symObjAddr: 0x8770, symBinAddr: 0xD5AD0, symSize: 0x60 }
  - { offsetInCU: 0x2120A, offset: 0x4BE2E2, size: 0x8, addend: 0x0, symName: '__ZN4core3ptr50drop_in_place$LT$syn..generics..TypeParamBound$GT$17hcd7771d4c6c221efE', symObjAddr: 0x87D0, symBinAddr: 0xD5B30, symSize: 0xA0 }
  - { offsetInCU: 0x21371, offset: 0x4BE449, size: 0x8, addend: 0x0, symName: '__ZN4core3ptr58drop_in_place$LT$alloc..vec..Vec$LT$syn..expr..Arm$GT$$GT$17h1a55df3d2cba1daaE', symObjAddr: 0x8870, symBinAddr: 0xD5BD0, symSize: 0xD0 }
  - { offsetInCU: 0x215FE, offset: 0x4BE6D6, size: 0x8, addend: 0x0, symName: '__ZN4core3ptr59drop_in_place$LT$alloc..boxed..Box$LT$syn..pat..Pat$GT$$GT$17h563b135d87aca8abE', symObjAddr: 0x8940, symBinAddr: 0xD5CA0, symSize: 0x50 }
  - { offsetInCU: 0x21759, offset: 0x4BE831, size: 0x8, addend: 0x0, symName: '__ZN4core3ptr59drop_in_place$LT$alloc..boxed..Box$LT$syn..ty..Type$GT$$GT$17hffed36bad83adacbE', symObjAddr: 0x8990, symBinAddr: 0xD5CF0, symSize: 0x50 }
  - { offsetInCU: 0x218B4, offset: 0x4BE98C, size: 0x8, addend: 0x0, symName: '__ZN4core3ptr61drop_in_place$LT$alloc..boxed..Box$LT$syn..expr..Expr$GT$$GT$17h01091e47f131475dE', symObjAddr: 0x89E0, symBinAddr: 0xD5D40, symSize: 0x50 }
  - { offsetInCU: 0x21A0F, offset: 0x4BEAE7, size: 0x8, addend: 0x0, symName: '__ZN4core3ptr61drop_in_place$LT$syn..path..ParenthesizedGenericArguments$GT$17h43d4aac5494326a7E', symObjAddr: 0x8A30, symBinAddr: 0xD5D90, symSize: 0x170 }
  - { offsetInCU: 0x21FE9, offset: 0x4BF0C1, size: 0x8, addend: 0x0, symName: '__ZN4core3ptr62drop_in_place$LT$alloc..boxed..Box$LT$syn..stmt..Block$GT$$GT$17h30434998ae0f12a8E', symObjAddr: 0x8BA0, symBinAddr: 0xD5F00, symSize: 0xE0 }
  - { offsetInCU: 0x223C6, offset: 0x4BF49E, size: 0x8, addend: 0x0, symName: '__ZN4core3ptr63drop_in_place$LT$alloc..boxed..Box$LT$syn..lit..LitRepr$GT$$GT$17hd8839b7fb35ee7afE', symObjAddr: 0x8C80, symBinAddr: 0xD5FE0, symSize: 0x60 }
  - { offsetInCU: 0x2269C, offset: 0x4BF774, size: 0x8, addend: 0x0, symName: '__ZN4core3ptr63drop_in_place$LT$alloc..vec..Vec$LT$syn..item..ImplItem$GT$$GT$17hda9ba61cc1df3d0eE', symObjAddr: 0x8CE0, symBinAddr: 0xD6040, symSize: 0x80 }
  - { offsetInCU: 0x22939, offset: 0x4BFA11, size: 0x8, addend: 0x0, symName: '__ZN4core3ptr64drop_in_place$LT$alloc..boxed..Box$LT$syn..item..UseTree$GT$$GT$17he10cba0a4742709fE', symObjAddr: 0x8D60, symBinAddr: 0xD60C0, symSize: 0xF0 }
  - { offsetInCU: 0x22E79, offset: 0x4BFF51, size: 0x8, addend: 0x0, symName: '__ZN4core3ptr64drop_in_place$LT$alloc..boxed..Box$LT$syn..pat..FieldPat$GT$$GT$17h4980b70a7597cc08E', symObjAddr: 0x8E50, symBinAddr: 0xD61B0, symSize: 0x140 }
  - { offsetInCU: 0x23524, offset: 0x4C05FC, size: 0x8, addend: 0x0, symName: '__ZN4core3ptr64drop_in_place$LT$alloc..boxed..Box$LT$syn..ty..BareFnArg$GT$$GT$17h8b34096c620314efE', symObjAddr: 0x8F90, symBinAddr: 0xD62F0, symSize: 0x140 }
  - { offsetInCU: 0x23A48, offset: 0x4C0B20, size: 0x8, addend: 0x0, symName: '__ZN4core3ptr64drop_in_place$LT$alloc..vec..Vec$LT$syn..attr..Attribute$GT$$GT$17h3c8f2a04e701c675E', symObjAddr: 0x90D0, symBinAddr: 0xD6430, symSize: 0xD0 }
  - { offsetInCU: 0x23CD5, offset: 0x4C0DAD, size: 0x8, addend: 0x0, symName: '__ZN4core3ptr64drop_in_place$LT$alloc..vec..Vec$LT$syn..item..TraitItem$GT$$GT$17h60eb4b8666c57b93E', symObjAddr: 0x91A0, symBinAddr: 0xD6500, symSize: 0x80 }
  - { offsetInCU: 0x23F53, offset: 0x4C102B, size: 0x8, addend: 0x0, symName: '__ZN4core3ptr65drop_in_place$LT$core..option..Option$LT$syn..expr..Label$GT$$GT$17h78189e72a8cb7951E', symObjAddr: 0x9220, symBinAddr: 0xD6580, symSize: 0x30 }
  - { offsetInCU: 0x2408E, offset: 0x4C1166, size: 0x8, addend: 0x0, symName: '__ZN4core3ptr65drop_in_place$LT$core..option..Option$LT$syn..path..QSelf$GT$$GT$17h9b72552ca06b7379E', symObjAddr: 0x9250, symBinAddr: 0xD65B0, symSize: 0x50 }
  - { offsetInCU: 0x24211, offset: 0x4C12E9, size: 0x8, addend: 0x0, symName: '__ZN4core3ptr66drop_in_place$LT$alloc..vec..Vec$LT$syn..item..ForeignItem$GT$$GT$17h3e58b8e683c84cf4E', symObjAddr: 0x92A0, symBinAddr: 0xD6600, symSize: 0x80 }
  - { offsetInCU: 0x2448F, offset: 0x4C1567, size: 0x8, addend: 0x0, symName: '__ZN4core3ptr66drop_in_place$LT$core..option..Option$LT$syn..pat..PatRest$GT$$GT$17h61677cf4ff3a7393E', symObjAddr: 0x9320, symBinAddr: 0xD6680, symSize: 0xE0 }
  - { offsetInCU: 0x24713, offset: 0x4C17EB, size: 0x8, addend: 0x0, symName: '__ZN4core3ptr67drop_in_place$LT$alloc..boxed..Box$LT$syn..expr..FieldValue$GT$$GT$17h93aaccf8aa22ef88E', symObjAddr: 0x9400, symBinAddr: 0xD6760, symSize: 0x140 }
  - { offsetInCU: 0x24C36, offset: 0x4C1D0E, size: 0x8, addend: 0x0, symName: '__ZN4core3ptr70drop_in_place$LT$core..option..Option$LT$syn..ty..BareVariadic$GT$$GT$17h45399348ea4b8d55E', symObjAddr: 0x9540, symBinAddr: 0xD68A0, symSize: 0x120 }
  - { offsetInCU: 0x25163, offset: 0x4C223B, size: 0x8, addend: 0x0, symName: '__ZN4core3ptr72drop_in_place$LT$alloc..boxed..Box$LT$syn..path..GenericArgument$GT$$GT$17haa7dd8b716637b54E', symObjAddr: 0x9660, symBinAddr: 0xD69C0, symSize: 0x2B0 }
  - { offsetInCU: 0x25B4E, offset: 0x4C2C26, size: 0x8, addend: 0x0, symName: '__ZN4core3ptr72drop_in_place$LT$core..option..Option$LT$syn..lifetime..Lifetime$GT$$GT$17hfc363ccdd8bd9c32E', symObjAddr: 0x9910, symBinAddr: 0xD6C70, symSize: 0x30 }
  - { offsetInCU: 0x25C6A, offset: 0x4C2D42, size: 0x8, addend: 0x0, symName: '__ZN4core3ptr73drop_in_place$LT$alloc..boxed..Box$LT$syn..generics..GenericParam$GT$$GT$17hf6951dcd5ae07324E', symObjAddr: 0x9940, symBinAddr: 0xD6CA0, symSize: 0x80 }
  - { offsetInCU: 0x25DE2, offset: 0x4C2EBA, size: 0x8, addend: 0x0, symName: '__ZN4core3ptr75drop_in_place$LT$alloc..boxed..Box$LT$syn..generics..TypeParamBound$GT$$GT$17he61c00698a311a34E', symObjAddr: 0x99C0, symBinAddr: 0xD6D20, symSize: 0x160 }
  - { offsetInCU: 0x263C7, offset: 0x4C349F, size: 0x8, addend: 0x0, symName: '__ZN4core3ptr75drop_in_place$LT$core..option..Option$LT$syn..generics..WhereClause$GT$$GT$17hdce7670be9790a3dE', symObjAddr: 0x9B20, symBinAddr: 0xD6E80, symSize: 0x90 }
  - { offsetInCU: 0x2667D, offset: 0x4C3755, size: 0x8, addend: 0x0, symName: '__ZN4core3ptr86drop_in_place$LT$syn..punctuated..Punctuated$LT$syn..pat..Pat$C$syn..token..Or$GT$$GT$17h8e9173df21a44316E', symObjAddr: 0x9BB0, symBinAddr: 0xD6F10, symSize: 0x120 }
  - { offsetInCU: 0x26AC3, offset: 0x4C3B9B, size: 0x8, addend: 0x0, symName: '__ZN4core3ptr87drop_in_place$LT$core..option..Option$LT$alloc..boxed..Box$LT$syn..pat..Pat$GT$$GT$$GT$17hd7b7c69f601b3926E', symObjAddr: 0x9CD0, symBinAddr: 0xD7030, symSize: 0x50 }
  - { offsetInCU: 0x26C35, offset: 0x4C3D0D, size: 0x8, addend: 0x0, symName: '__ZN4core3ptr87drop_in_place$LT$core..option..Option$LT$alloc..boxed..Box$LT$syn..ty..Type$GT$$GT$$GT$17hd74f5d971aec2972E', symObjAddr: 0x9D20, symBinAddr: 0xD7080, symSize: 0x50 }
  - { offsetInCU: 0x26DA7, offset: 0x4C3E7F, size: 0x8, addend: 0x0, symName: '__ZN4core3ptr89drop_in_place$LT$core..option..Option$LT$alloc..boxed..Box$LT$syn..expr..Expr$GT$$GT$$GT$17h8e135ac1a25a2dc5E', symObjAddr: 0x9D70, symBinAddr: 0xD70D0, symSize: 0x50 }
  - { offsetInCU: 0x26F57, offset: 0x4C402F, size: 0x8, addend: 0x0, symName: '__ZN4core3ptr89drop_in_place$LT$syn..punctuated..Punctuated$LT$syn..pat..Pat$C$syn..token..Comma$GT$$GT$17h8d60e47f3fb1f87aE', symObjAddr: 0x9DC0, symBinAddr: 0xD7120, symSize: 0x120 }
  - { offsetInCU: 0x273F2, offset: 0x4C44CA, size: 0x8, addend: 0x0, symName: '__ZN4core3ptr90drop_in_place$LT$core..option..Option$LT$alloc..boxed..Box$LT$syn..data..Field$GT$$GT$$GT$17h326c39537b0fcc46E', symObjAddr: 0x9EE0, symBinAddr: 0xD7240, symSize: 0x200 }
  - { offsetInCU: 0x27C48, offset: 0x4C4D20, size: 0x8, addend: 0x0, symName: '__ZN4core3ptr90drop_in_place$LT$core..option..Option$LT$alloc..boxed..Box$LT$syn..item..FnArg$GT$$GT$$GT$17hbae3fdd388277508E', symObjAddr: 0xA0E0, symBinAddr: 0xD7440, symSize: 0x50 }
  - { offsetInCU: 0x27DEB, offset: 0x4C4EC3, size: 0x8, addend: 0x0, symName: '__ZN4core3ptr91drop_in_place$LT$syn..punctuated..Punctuated$LT$syn..expr..Expr$C$syn..token..Comma$GT$$GT$17h4f39b83dc86a4159E', symObjAddr: 0xA130, symBinAddr: 0xD7490, symSize: 0x120 }
  - { offsetInCU: 0x28248, offset: 0x4C5320, size: 0x8, addend: 0x0, symName: '__ZN4core3ptr92drop_in_place$LT$core..option..Option$LT$$LP$syn..token..As$C$proc_macro2..Ident$RP$$GT$$GT$17h5c1a47ccb35d9d7eE', symObjAddr: 0xA250, symBinAddr: 0xD75B0, symSize: 0x30 }
  - { offsetInCU: 0x283A2, offset: 0x4C547A, size: 0x8, addend: 0x0, symName: '__ZN4core3ptr92drop_in_place$LT$core..option..Option$LT$alloc..boxed..Box$LT$syn..data..Variant$GT$$GT$$GT$17h3f89d7c982191526E', symObjAddr: 0xA280, symBinAddr: 0xD75E0, symSize: 0x190 }
  - { offsetInCU: 0x28A4B, offset: 0x4C5B23, size: 0x8, addend: 0x0, symName: '__ZN4core3ptr92drop_in_place$LT$syn..punctuated..Punctuated$LT$syn..item..FnArg$C$syn..token..Comma$GT$$GT$17h75db9d232662c7d3E', symObjAddr: 0xA410, symBinAddr: 0xD7770, symSize: 0x130 }
  - { offsetInCU: 0x28E82, offset: 0x4C5F5A, size: 0x8, addend: 0x0, symName: '__ZN4core3ptr94drop_in_place$LT$syn..punctuated..Punctuated$LT$syn..data..Variant$C$syn..token..Comma$GT$$GT$17ha69d7e675441c7e2E', symObjAddr: 0xA540, symBinAddr: 0xD78A0, symSize: 0xE0 }
  - { offsetInCU: 0x291AF, offset: 0x4C6287, size: 0x8, addend: 0x0, symName: '__ZN4core3ptr94drop_in_place$LT$syn..punctuated..Punctuated$LT$syn..item..UseTree$C$syn..token..Comma$GT$$GT$17h4e4f303ffad9f549E', symObjAddr: 0xA620, symBinAddr: 0xD7980, symSize: 0xF0 }
  - { offsetInCU: 0x294C0, offset: 0x4C6598, size: 0x8, addend: 0x0, symName: '__ZN4core3ptr94drop_in_place$LT$syn..punctuated..Punctuated$LT$syn..pat..FieldPat$C$syn..token..Comma$GT$$GT$17h112950ea198c8281E', symObjAddr: 0xA710, symBinAddr: 0xD7A70, symSize: 0xF0 }
  - { offsetInCU: 0x2978A, offset: 0x4C6862, size: 0x8, addend: 0x0, symName: '__ZN4core3ptr94drop_in_place$LT$syn..punctuated..Punctuated$LT$syn..ty..BareFnArg$C$syn..token..Comma$GT$$GT$17h1c7b44310f06243dE', symObjAddr: 0xA800, symBinAddr: 0xD7B60, symSize: 0xF0 }
  - { offsetInCU: 0x29A54, offset: 0x4C6B2C, size: 0x8, addend: 0x0, symName: '__ZN4core3ptr96drop_in_place$LT$core..option..Option$LT$alloc..boxed..Box$LT$syn..path..PathSegment$GT$$GT$$GT$17hb447d0f626c86a4eE', symObjAddr: 0xA8F0, symBinAddr: 0xD7C50, symSize: 0x180 }
  - { offsetInCU: 0x2A0E5, offset: 0x4C71BD, size: 0x8, addend: 0x0, symName: '__ZN4core3ptr97drop_in_place$LT$syn..punctuated..Punctuated$LT$syn..expr..FieldValue$C$syn..token..Comma$GT$$GT$17h31b81f7462228dcbE', symObjAddr: 0xAA70, symBinAddr: 0xD7DD0, symSize: 0xF0 }
  - { offsetInCU: 0x2A42B, offset: 0x4C7503, size: 0x8, addend: 0x0, symName: '__ZN4core3ptr98drop_in_place$LT$syn..punctuated..Punctuated$LT$syn..lifetime..Lifetime$C$syn..token..Plus$GT$$GT$17h0f8fc5f20f465f47E', symObjAddr: 0xAB60, symBinAddr: 0xD7EC0, symSize: 0xC0 }
  - { offsetInCU: 0x31800, offset: 0x4CE8D8, size: 0x8, addend: 0x0, symName: __ZN3syn4item7parsing18parse_rest_of_item17h8569c0eb1b7d8242E, symObjAddr: 0xAC80, symBinAddr: 0xD7FE0, symSize: 0x4130 }
  - { offsetInCU: 0x3D512, offset: 0x4DA5EA, size: 0x8, addend: 0x0, symName: __ZN3syn4item7parsing12parse_macro217h59aca4032c4075c2E, symObjAddr: 0xFC20, symBinAddr: 0xDCF80, symSize: 0x8D0 }
  - { offsetInCU: 0x3F016, offset: 0x4DC0EE, size: 0x8, addend: 0x0, symName: __ZN3syn4item7parsing14parse_item_use17h87ea73b5b5534563E, symObjAddr: 0x104F0, symBinAddr: 0xDD850, symSize: 0x520 }
  - { offsetInCU: 0x3FA44, offset: 0x4DCB1C, size: 0x8, addend: 0x0, symName: __ZN3syn4item7parsing14parse_use_tree17ha136166ddfa7b0b8E, symObjAddr: 0x10A10, symBinAddr: 0xDDD70, symSize: 0xE80 }
  - { offsetInCU: 0x4220E, offset: 0x4DF2E6, size: 0x8, addend: 0x0, symName: __ZN3syn4item7parsing14peek_signature17h5908d52294220ab3E, symObjAddr: 0x11890, symBinAddr: 0xDEBF0, symSize: 0x380 }
  - { offsetInCU: 0x432AB, offset: 0x4E0383, size: 0x8, addend: 0x0, symName: __ZN3syn4item7parsing16parse_rest_of_fn17hff377dc88eaa3b3fE, symObjAddr: 0x11C10, symBinAddr: 0xDEF70, symSize: 0x560 }
  - { offsetInCU: 0x4401B, offset: 0x4E10F3, size: 0x8, addend: 0x0, symName: __ZN3syn4item7parsing24parse_fn_arg_or_variadic17h0946b5f8092c2f53E, symObjAddr: 0x12170, symBinAddr: 0xDF4D0, symSize: 0xEC0 }
  - { offsetInCU: 0x46C10, offset: 0x4E3CE8, size: 0x8, addend: 0x0, symName: __ZN3syn4item7parsing13parse_fn_args17hfcbadc903471329dE, symObjAddr: 0x13030, symBinAddr: 0xE0390, symSize: 0xA20 }
  - { offsetInCU: 0x47BBA, offset: 0x4E4C92, size: 0x8, addend: 0x0, symName: __ZN3syn4item7parsing23parse_foreign_item_type17hbed431625837dc04E, symObjAddr: 0x13A50, symBinAddr: 0xE0DB0, symSize: 0x450 }
  - { offsetInCU: 0x4829E, offset: 0x4E5376, size: 0x8, addend: 0x0, symName: __ZN3syn4item7parsing15parse_item_type17h69a8e007f956ea7eE, symObjAddr: 0x13EA0, symBinAddr: 0xE1200, symSize: 0x580 }
  - { offsetInCU: 0x48CFE, offset: 0x4E5DD6, size: 0x8, addend: 0x0, symName: __ZN3syn4item7parsing26parse_trait_or_trait_alias17h53e52e5f93715b35E, symObjAddr: 0x14420, symBinAddr: 0xE1780, symSize: 0x880 }
  - { offsetInCU: 0x4A6EF, offset: 0x4E77C7, size: 0x8, addend: 0x0, symName: __ZN3syn4item7parsing19parse_rest_of_trait17h0b8f1e2c2e0da776E, symObjAddr: 0x14CA0, symBinAddr: 0xE2000, symSize: 0xC10 }
  - { offsetInCU: 0x4BB38, offset: 0x4E8C10, size: 0x8, addend: 0x0, symName: __ZN3syn4item7parsing26parse_start_of_trait_alias17h83335d8e31321462E, symObjAddr: 0x158B0, symBinAddr: 0xE2C10, symSize: 0x4F0 }
  - { offsetInCU: 0x4C50F, offset: 0x4E95E7, size: 0x8, addend: 0x0, symName: __ZN3syn4item7parsing25parse_rest_of_trait_alias17hffc9e5855a2cde04E, symObjAddr: 0x15DA0, symBinAddr: 0xE3100, symSize: 0x680 }
  - { offsetInCU: 0x4D0F1, offset: 0x4EA1C9, size: 0x8, addend: 0x0, symName: __ZN3syn4item7parsing21parse_trait_item_type17h95d0bdc458584a4fE, symObjAddr: 0x16420, symBinAddr: 0xE3780, symSize: 0x4C0 }
  - { offsetInCU: 0x4D83A, offset: 0x4EA912, size: 0x8, addend: 0x0, symName: __ZN3syn4item7parsing10parse_impl17he5759138fa3bc5b8E, symObjAddr: 0x168E0, symBinAddr: 0xE3C40, symSize: 0x15F0 }
  - { offsetInCU: 0x4F14E, offset: 0x4EC226, size: 0x8, addend: 0x0, symName: __ZN3syn4item7parsing18parse_impl_item_fn17h96506ae9bfc9db41E, symObjAddr: 0x17ED0, symBinAddr: 0xE5230, symSize: 0x770 }
  - { offsetInCU: 0x4FC71, offset: 0x4ECD49, size: 0x8, addend: 0x0, symName: __ZN3syn4item7parsing20parse_impl_item_type17h3bf2e7aa4b140554E, symObjAddr: 0x18640, symBinAddr: 0xE59A0, symSize: 0x4D7 }
  - { offsetInCU: 0x587D4, offset: 0x4F58AC, size: 0x8, addend: 0x0, symName: '__ZN5alloc3vec16Vec$LT$T$C$A$GT$4push17h3158ebd1c3360f00E', symObjAddr: 0xAC20, symBinAddr: 0xD7F80, symSize: 0x60 }
  - { offsetInCU: 0x59995, offset: 0x4F6A6D, size: 0x8, addend: 0x0, symName: __ZN3syn4item7parsing16FlexibleItemType5parse17ha511062c5b947fc4E, symObjAddr: 0xEDB0, symBinAddr: 0xDC110, symSize: 0xA10 }
  - { offsetInCU: 0x5A713, offset: 0x4F77EB, size: 0x8, addend: 0x0, symName: __ZN3syn4item7parsing16FlexibleItemType21parse_optional_bounds17hbbaebf3e2d169441E, symObjAddr: 0xF7C0, symBinAddr: 0xDCB20, symSize: 0x310 }
  - { offsetInCU: 0x5ADCC, offset: 0x4F7EA4, size: 0x8, addend: 0x0, symName: __ZN3syn4item7parsing16FlexibleItemType25parse_optional_definition17hbde9bf5fd31dafffE, symObjAddr: 0xFAD0, symBinAddr: 0xDCE30, symSize: 0x150 }
  - { offsetInCU: 0x2C9F, offset: 0x50611D, size: 0x8, addend: 0x0, symName: '__ZN84_$LT$syn..generics..TypeParams$u20$as$u20$core..iter..traits..iterator..Iterator$GT$4next17hd9cb9947dcf7dc8eE', symObjAddr: 0x81D0, symBinAddr: 0xED510, symSize: 0x0 }
  - { offsetInCU: 0x2D14, offset: 0x506192, size: 0x8, addend: 0x0, symName: '__ZN3syn8generics7parsing71_$LT$impl$u20$syn..parse..Parse$u20$for$u20$syn..generics..Generics$GT$5parse17h6b35b0a678693bc9E', symObjAddr: 0x8310, symBinAddr: 0xED570, symSize: 0x1010 }
  - { offsetInCU: 0x4E7D, offset: 0x5082FB, size: 0x8, addend: 0x0, symName: '__ZN3syn8generics7parsing76_$LT$impl$u20$syn..parse..Parse$u20$for$u20$syn..generics..LifetimeParam$GT$5parse17h3fc29617c6a43bdcE', symObjAddr: 0x9E70, symBinAddr: 0xEE580, symSize: 0x690 }
  - { offsetInCU: 0x5E16, offset: 0x509294, size: 0x8, addend: 0x0, symName: '__ZN3syn8generics7parsing77_$LT$impl$u20$syn..parse..Parse$u20$for$u20$syn..generics..BoundLifetimes$GT$5parse17h7a7c384f0cdd4b83E', symObjAddr: 0xA500, symBinAddr: 0xEEC10, symSize: 0x620 }
  - { offsetInCU: 0x6B1F, offset: 0x509F9D, size: 0x8, addend: 0x0, symName: '__ZN3syn8generics7parsing72_$LT$impl$u20$syn..parse..Parse$u20$for$u20$syn..generics..TypeParam$GT$5parse17h86074eb5794d472dE', symObjAddr: 0xAB20, symBinAddr: 0xEF230, symSize: 0x7F0 }
  - { offsetInCU: 0x7C0F, offset: 0x50B08D, size: 0x8, addend: 0x0, symName: '__ZN3syn8generics7parsing77_$LT$impl$u20$syn..parse..Parse$u20$for$u20$syn..generics..TypeParamBound$GT$5parse17hef57556d60488532E', symObjAddr: 0xB310, symBinAddr: 0xEFA20, symSize: 0x1300 }
  - { offsetInCU: 0xB6D2, offset: 0x50EB50, size: 0x8, addend: 0x0, symName: '__ZN3syn8generics7parsing73_$LT$impl$u20$syn..parse..Parse$u20$for$u20$syn..generics..TraitBound$GT$5parse17h425a3489f7ef339fE', symObjAddr: 0xCB70, symBinAddr: 0xF1280, symSize: 0x720 }
  - { offsetInCU: 0xC837, offset: 0x50FCB5, size: 0x8, addend: 0x0, symName: '__ZN3syn8generics7parsing73_$LT$impl$u20$syn..parse..Parse$u20$for$u20$syn..generics..ConstParam$GT$5parse17hf00c756c03f8df0bE', symObjAddr: 0xD360, symBinAddr: 0xF19A0, symSize: 0x880 }
  - { offsetInCU: 0xD77D, offset: 0x510BFB, size: 0x8, addend: 0x0, symName: '__ZN3syn8generics7parsing74_$LT$impl$u20$syn..parse..Parse$u20$for$u20$syn..generics..WhereClause$GT$5parse17h0184ea7b8fa9bf5fE', symObjAddr: 0xDBE0, symBinAddr: 0xF2220, symSize: 0x440 }
  - { offsetInCU: 0xE2F6, offset: 0x511774, size: 0x8, addend: 0x0, symName: '__ZN3syn8generics7parsing77_$LT$impl$u20$syn..parse..Parse$u20$for$u20$syn..generics..WherePredicate$GT$5parse17h285530128cf671e6E', symObjAddr: 0xE020, symBinAddr: 0xF2660, symSize: 0xEB0 }
  - { offsetInCU: 0x105F1, offset: 0x513A6F, size: 0x8, addend: 0x0, symName: '__ZN3syn8generics8printing80_$LT$impl$u20$quote..to_tokens..ToTokens$u20$for$u20$syn..generics..Generics$GT$9to_tokens17h0ec80491c61b899eE', symObjAddr: 0xEED0, symBinAddr: 0xF3510, symSize: 0x240 }
  - { offsetInCU: 0x10E17, offset: 0x514295, size: 0x8, addend: 0x0, symName: '__ZN3syn8generics8printing84_$LT$impl$u20$quote..to_tokens..ToTokens$u20$for$u20$syn..generics..ImplGenerics$GT$9to_tokens17hcbc91e4fcbfc3836E', symObjAddr: 0xF110, symBinAddr: 0xF3750, symSize: 0x5B0 }
  - { offsetInCU: 0x12042, offset: 0x5154C0, size: 0x8, addend: 0x0, symName: '__ZN3syn8generics8printing84_$LT$impl$u20$quote..to_tokens..ToTokens$u20$for$u20$syn..generics..TypeGenerics$GT$9to_tokens17heceb5abd9933fc8aE', symObjAddr: 0xF6C0, symBinAddr: 0xF3D00, symSize: 0x300 }
  - { offsetInCU: 0x12B06, offset: 0x515F84, size: 0x8, addend: 0x0, symName: '__ZN3syn8generics8printing86_$LT$impl$u20$quote..to_tokens..ToTokens$u20$for$u20$syn..generics..BoundLifetimes$GT$9to_tokens17hf35c5fa847c9610bE', symObjAddr: 0xFA30, symBinAddr: 0xF4000, symSize: 0x150 }
  - { offsetInCU: 0x12FB1, offset: 0x51642F, size: 0x8, addend: 0x0, symName: '__ZN3syn8generics8printing81_$LT$impl$u20$quote..to_tokens..ToTokens$u20$for$u20$syn..generics..TypeParam$GT$9to_tokens17h67a891f1844b10b9E', symObjAddr: 0xFDA0, symBinAddr: 0xF4150, symSize: 0x210 }
  - { offsetInCU: 0x13691, offset: 0x516B0F, size: 0x8, addend: 0x0, symName: '__ZN3syn8generics8printing82_$LT$impl$u20$quote..to_tokens..ToTokens$u20$for$u20$syn..generics..ConstParam$GT$9to_tokens17h19315c88864bea17E', symObjAddr: 0x10050, symBinAddr: 0xF4360, symSize: 0x1E0 }
  - { offsetInCU: 0x13A4D, offset: 0x516ECB, size: 0x8, addend: 0x0, symName: '__ZN3syn8generics8printing83_$LT$impl$u20$quote..to_tokens..ToTokens$u20$for$u20$syn..generics..WhereClause$GT$9to_tokens17hcd59109d6cd5532bE', symObjAddr: 0x10230, symBinAddr: 0xF4540, symSize: 0x120 }
  - { offsetInCU: 0x13EFF, offset: 0x51737D, size: 0x8, addend: 0x0, symName: '__ZN74_$LT$syn..generics..GenericParam$u20$as$u20$quote..to_tokens..ToTokens$GT$9to_tokens17h7b28c56cca690554E', symObjAddr: 0x10590, symBinAddr: 0xF4660, symSize: 0x280 }
  - { offsetInCU: 0x147E3, offset: 0x517C61, size: 0x8, addend: 0x0, symName: '__ZN76_$LT$syn..generics..TypeParamBound$u20$as$u20$quote..to_tokens..ToTokens$GT$9to_tokens17h626cf29a5d446a91E', symObjAddr: 0x10A70, symBinAddr: 0xF48E0, symSize: 0x110 }
  - { offsetInCU: 0x14A48, offset: 0x517EC6, size: 0x8, addend: 0x0, symName: '__ZN76_$LT$syn..generics..WherePredicate$u20$as$u20$quote..to_tokens..ToTokens$GT$9to_tokens17h17ebe07335d01c13E', symObjAddr: 0x10B80, symBinAddr: 0xF49F0, symSize: 0x220 }
  - { offsetInCU: 0x1740F, offset: 0x51A88D, size: 0x8, addend: 0x0, symName: '__ZN3syn3gen5clone74_$LT$impl$u20$core..clone..Clone$u20$for$u20$syn..generics..ConstParam$GT$5clone17h3026a67a17c10895E', symObjAddr: 0x10E00, symBinAddr: 0xF4C10, symSize: 0x1F0 }
  - { offsetInCU: 0x176E5, offset: 0x51AB63, size: 0x8, addend: 0x0, symName: '__ZN3syn3gen5clone72_$LT$impl$u20$core..clone..Clone$u20$for$u20$syn..generics..Generics$GT$5clone17h6b207d8e85b81f5aE', symObjAddr: 0x110B0, symBinAddr: 0xF4E00, symSize: 0x100 }
  - { offsetInCU: 0x177CC, offset: 0x51AC4A, size: 0x8, addend: 0x0, symName: '__ZN3syn3gen5clone77_$LT$impl$u20$core..clone..Clone$u20$for$u20$syn..generics..LifetimeParam$GT$5clone17ha0c1f4877a12e76eE', symObjAddr: 0x111B0, symBinAddr: 0xF4F00, symSize: 0x130 }
  - { offsetInCU: 0x17A20, offset: 0x51AE9E, size: 0x8, addend: 0x0, symName: '__ZN3syn3gen5clone77_$LT$impl$u20$core..clone..Clone$u20$for$u20$syn..generics..PredicateType$GT$5clone17he478b1727e886ac0E', symObjAddr: 0x113C0, symBinAddr: 0xF5030, symSize: 0x150 }
  - { offsetInCU: 0x17BB4, offset: 0x51B032, size: 0x8, addend: 0x0, symName: '__ZN3syn3gen5clone73_$LT$impl$u20$core..clone..Clone$u20$for$u20$syn..generics..TypeParam$GT$5clone17h94ce523cb3afb45dE', symObjAddr: 0x11640, symBinAddr: 0xF5180, symSize: 0x2B0 }
  - { offsetInCU: 0x180F1, offset: 0x51B56F, size: 0x8, addend: 0x0, symName: '__ZN3syn3gen5clone78_$LT$impl$u20$core..clone..Clone$u20$for$u20$syn..generics..TypeParamBound$GT$5clone17h78cd728b4f45a7a9E', symObjAddr: 0x118F0, symBinAddr: 0xF5430, symSize: 0x230 }
  - { offsetInCU: 0x1AEAE, offset: 0x51E32C, size: 0x8, addend: 0x0, symName: '__ZN4core3ptr100drop_in_place$LT$core..option..Option$LT$alloc..boxed..Box$LT$syn..path..GenericArgument$GT$$GT$$GT$17h7435c9de74860622E', symObjAddr: 0x140, symBinAddr: 0xE5E80, symSize: 0x50 }
  - { offsetInCU: 0x1B137, offset: 0x51E5B5, size: 0x8, addend: 0x0, symName: '__ZN4core3ptr100drop_in_place$LT$syn..punctuated..Punctuated$LT$syn..path..PathSegment$C$syn..token..PathSep$GT$$GT$17hf414cb3581f8337aE', symObjAddr: 0x190, symBinAddr: 0xE5ED0, symSize: 0x140 }
  - { offsetInCU: 0x1B66B, offset: 0x51EAE9, size: 0x8, addend: 0x0, symName: '__ZN4core3ptr103drop_in_place$LT$core..option..Option$LT$alloc..boxed..Box$LT$syn..generics..TypeParamBound$GT$$GT$$GT$17h5974f03e36b1a9c3E', symObjAddr: 0x2D0, symBinAddr: 0xE6010, symSize: 0x50 }
  - { offsetInCU: 0x1B8B6, offset: 0x51ED34, size: 0x8, addend: 0x0, symName: '__ZN4core3ptr103drop_in_place$LT$core..option..Option$LT$alloc..boxed..Box$LT$syn..generics..WherePredicate$GT$$GT$$GT$17hdd5111a374d8d6f2E', symObjAddr: 0x320, symBinAddr: 0xE6060, symSize: 0xD0 }
  - { offsetInCU: 0x1BC49, offset: 0x51F0C7, size: 0x8, addend: 0x0, symName: '__ZN4core3ptr103drop_in_place$LT$syn..punctuated..Punctuated$LT$syn..generics..GenericParam$C$syn..token..Comma$GT$$GT$17hf42353fa44ed6da8E.llvm.14890500243436994185', symObjAddr: 0x3F0, symBinAddr: 0xE6130, symSize: 0xF0 }
  - { offsetInCU: 0x1C071, offset: 0x51F4EF, size: 0x8, addend: 0x0, symName: '__ZN4core3ptr104drop_in_place$LT$syn..punctuated..Punctuated$LT$syn..generics..TypeParamBound$C$syn..token..Plus$GT$$GT$17h532f52c4a894b056E', symObjAddr: 0x4E0, symBinAddr: 0xE6220, symSize: 0x160 }
  - { offsetInCU: 0x1C5DF, offset: 0x51FA5D, size: 0x8, addend: 0x0, symName: '__ZN4core3ptr105drop_in_place$LT$syn..punctuated..Punctuated$LT$syn..generics..WherePredicate$C$syn..token..Comma$GT$$GT$17h935f9826ba562349E', symObjAddr: 0x640, symBinAddr: 0xE6380, symSize: 0x80 }
  - { offsetInCU: 0x1C8A1, offset: 0x51FD1F, size: 0x8, addend: 0x0, symName: '__ZN4core3ptr34drop_in_place$LT$syn..lit..Lit$GT$17h8902f5ff67917034E', symObjAddr: 0x6C0, symBinAddr: 0xE6400, symSize: 0x110 }
  - { offsetInCU: 0x1CE38, offset: 0x5202B6, size: 0x8, addend: 0x0, symName: '__ZN4core3ptr34drop_in_place$LT$syn..pat..Pat$GT$17h4581eea028ec0969E', symObjAddr: 0x7D0, symBinAddr: 0xE6510, symSize: 0x1000 }
  - { offsetInCU: 0x2097C, offset: 0x523DFA, size: 0x8, addend: 0x0, symName: '__ZN4core3ptr34drop_in_place$LT$syn..ty..Type$GT$17h369e41ad4a9f1ae0E.llvm.14890500243436994185', symObjAddr: 0x17D0, symBinAddr: 0xE7510, symSize: 0x4F0 }
  - { offsetInCU: 0x21F05, offset: 0x525383, size: 0x8, addend: 0x0, symName: '__ZN4core3ptr36drop_in_place$LT$syn..expr..Expr$GT$17h0f7fd4c749bae801E.llvm.14890500243436994185', symObjAddr: 0x1CD0, symBinAddr: 0xE7A00, symSize: 0x28E0 }
  - { offsetInCU: 0x2B397, offset: 0x52E815, size: 0x8, addend: 0x0, symName: '__ZN4core3ptr36drop_in_place$LT$syn..mac..Macro$GT$17h4ffde962df30ebe2E', symObjAddr: 0x45B0, symBinAddr: 0xEA2E0, symSize: 0x40 }
  - { offsetInCU: 0x2B44D, offset: 0x52E8CB, size: 0x8, addend: 0x0, symName: '__ZN4core3ptr36drop_in_place$LT$syn..path..Path$GT$17habea856181211e1cE', symObjAddr: 0x45F0, symBinAddr: 0xEA320, symSize: 0x220 }
  - { offsetInCU: 0x2BD82, offset: 0x52F200, size: 0x8, addend: 0x0, symName: '__ZN4core3ptr37drop_in_place$LT$syn..stmt..Block$GT$17hcc21a21cf949414cE', symObjAddr: 0x4810, symBinAddr: 0xEA540, symSize: 0xD0 }
  - { offsetInCU: 0x2C026, offset: 0x52F4A4, size: 0x8, addend: 0x0, symName: '__ZN4core3ptr38drop_in_place$LT$syn..expr..Member$GT$17h022cbe5553aa40faE', symObjAddr: 0x48F0, symBinAddr: 0xEA610, symSize: 0x30 }
  - { offsetInCU: 0x2C123, offset: 0x52F5A1, size: 0x8, addend: 0x0, symName: '__ZN4core3ptr39drop_in_place$LT$proc_macro2..Ident$GT$17h8101e88c3ac359d6E.llvm.14890500243436994185', symObjAddr: 0x4920, symBinAddr: 0xEA640, symSize: 0x30 }
  - { offsetInCU: 0x2C201, offset: 0x52F67F, size: 0x8, addend: 0x0, symName: '__ZN4core3ptr40drop_in_place$LT$syn..ty..ReturnType$GT$17h02cf41e2fec63d90E', symObjAddr: 0x4950, symBinAddr: 0xEA670, symSize: 0x50 }
  - { offsetInCU: 0x2C373, offset: 0x52F7F1, size: 0x8, addend: 0x0, symName: '__ZN4core3ptr41drop_in_place$LT$syn..expr..ExprConst$GT$17h725a13e551d9f276E', symObjAddr: 0x49A0, symBinAddr: 0xEA6C0, symSize: 0x180 }
  - { offsetInCU: 0x2C8C8, offset: 0x52FD46, size: 0x8, addend: 0x0, symName: '__ZN4core3ptr44drop_in_place$LT$syn..lifetime..Lifetime$GT$17hf0cdec2e9ec456d6E.llvm.14890500243436994185', symObjAddr: 0x4B60, symBinAddr: 0xEA840, symSize: 0x30 }
  - { offsetInCU: 0x2CA41, offset: 0x52FEBF, size: 0x8, addend: 0x0, symName: '__ZN4core3ptr44drop_in_place$LT$syn..parse..ParseBuffer$GT$17hd0dadba44a19aec2E', symObjAddr: 0x4B90, symBinAddr: 0xEA870, symSize: 0x70 }
  - { offsetInCU: 0x2CE76, offset: 0x5302F4, size: 0x8, addend: 0x0, symName: '__ZN4core3ptr45drop_in_place$LT$proc_macro2..TokenStream$GT$17h3405f6c513e9f6cbE.llvm.14890500243436994185', symObjAddr: 0x4C00, symBinAddr: 0xEA8E0, symSize: 0x140 }
  - { offsetInCU: 0x2D2E5, offset: 0x530763, size: 0x8, addend: 0x0, symName: '__ZN4core3ptr45drop_in_place$LT$syn..generics..TypeParam$GT$17he5eda51070b7de47E.llvm.14890500243436994185', symObjAddr: 0x4D40, symBinAddr: 0xEAA20, symSize: 0x230 }
  - { offsetInCU: 0x2DAE1, offset: 0x530F5F, size: 0x8, addend: 0x0, symName: '__ZN4core3ptr45drop_in_place$LT$syn..path..PathArguments$GT$17h7160021b3fdea550E', symObjAddr: 0x4F70, symBinAddr: 0xEAC50, symSize: 0x170 }
  - { offsetInCU: 0x2DF7E, offset: 0x5313FC, size: 0x8, addend: 0x0, symName: '__ZN4core3ptr46drop_in_place$LT$syn..generics..ConstParam$GT$17hab0a58c4af8c549cE.llvm.14890500243436994185', symObjAddr: 0x50E0, symBinAddr: 0xEADC0, symSize: 0x150 }
  - { offsetInCU: 0x2E34B, offset: 0x5317C9, size: 0x8, addend: 0x0, symName: '__ZN4core3ptr46drop_in_place$LT$syn..generics..TraitBound$GT$17h73aacd08fea17a2cE.llvm.14890500243436994185', symObjAddr: 0x5230, symBinAddr: 0xEAF10, symSize: 0xF0 }
  - { offsetInCU: 0x2E6B2, offset: 0x531B30, size: 0x8, addend: 0x0, symName: '__ZN4core3ptr47drop_in_place$LT$syn..path..GenericArgument$GT$17h54f8794633f96823E', symObjAddr: 0x5320, symBinAddr: 0xEB000, symSize: 0x4A0 }
  - { offsetInCU: 0x2F759, offset: 0x532BD7, size: 0x8, addend: 0x0, symName: '__ZN4core3ptr49drop_in_place$LT$syn..generics..LifetimeParam$GT$17h41a7c7a290ea6289E.llvm.14890500243436994185', symObjAddr: 0x57C0, symBinAddr: 0xEB4A0, symSize: 0xF0 }
  - { offsetInCU: 0x2FB32, offset: 0x532FB0, size: 0x8, addend: 0x0, symName: '__ZN4core3ptr50drop_in_place$LT$syn..generics..TypeParamBound$GT$17hcd7771d4c6c221efE', symObjAddr: 0x5920, symBinAddr: 0xEB590, symSize: 0xA0 }
  - { offsetInCU: 0x2FC99, offset: 0x533117, size: 0x8, addend: 0x0, symName: '__ZN4core3ptr58drop_in_place$LT$alloc..vec..Vec$LT$syn..expr..Arm$GT$$GT$17h1a55df3d2cba1daaE', symObjAddr: 0x5A00, symBinAddr: 0xEB630, symSize: 0xD0 }
  - { offsetInCU: 0x2FF26, offset: 0x5333A4, size: 0x8, addend: 0x0, symName: '__ZN4core3ptr59drop_in_place$LT$alloc..boxed..Box$LT$syn..pat..Pat$GT$$GT$17h563b135d87aca8abE', symObjAddr: 0x5AD0, symBinAddr: 0xEB700, symSize: 0x50 }
  - { offsetInCU: 0x30081, offset: 0x5334FF, size: 0x8, addend: 0x0, symName: '__ZN4core3ptr59drop_in_place$LT$alloc..boxed..Box$LT$syn..ty..Type$GT$$GT$17hffed36bad83adacbE', symObjAddr: 0x5B20, symBinAddr: 0xEB750, symSize: 0x50 }
  - { offsetInCU: 0x301DC, offset: 0x53365A, size: 0x8, addend: 0x0, symName: '__ZN4core3ptr61drop_in_place$LT$alloc..boxed..Box$LT$syn..expr..Expr$GT$$GT$17h01091e47f131475dE', symObjAddr: 0x5B70, symBinAddr: 0xEB7A0, symSize: 0x50 }
  - { offsetInCU: 0x303B3, offset: 0x533831, size: 0x8, addend: 0x0, symName: '__ZN4core3ptr61drop_in_place$LT$syn..path..ParenthesizedGenericArguments$GT$17h43d4aac5494326a7E', symObjAddr: 0x5BC0, symBinAddr: 0xEB7F0, symSize: 0x170 }
  - { offsetInCU: 0x3097A, offset: 0x533DF8, size: 0x8, addend: 0x0, symName: '__ZN4core3ptr62drop_in_place$LT$syn..path..AngleBracketedGenericArguments$GT$17hc5b69f68243636ddE', symObjAddr: 0x5D50, symBinAddr: 0xEB960, symSize: 0x120 }
  - { offsetInCU: 0x30D90, offset: 0x53420E, size: 0x8, addend: 0x0, symName: '__ZN4core3ptr63drop_in_place$LT$alloc..boxed..Box$LT$syn..lit..LitRepr$GT$$GT$17hd8839b7fb35ee7afE', symObjAddr: 0x5E70, symBinAddr: 0xEBA80, symSize: 0x60 }
  - { offsetInCU: 0x31085, offset: 0x534503, size: 0x8, addend: 0x0, symName: '__ZN4core3ptr64drop_in_place$LT$alloc..boxed..Box$LT$syn..pat..FieldPat$GT$$GT$17h4980b70a7597cc08E', symObjAddr: 0x5ED0, symBinAddr: 0xEBAE0, symSize: 0x140 }
  - { offsetInCU: 0x31730, offset: 0x534BAE, size: 0x8, addend: 0x0, symName: '__ZN4core3ptr64drop_in_place$LT$alloc..boxed..Box$LT$syn..ty..BareFnArg$GT$$GT$17h8b34096c620314efE', symObjAddr: 0x6010, symBinAddr: 0xEBC20, symSize: 0x140 }
  - { offsetInCU: 0x31C54, offset: 0x5350D2, size: 0x8, addend: 0x0, symName: '__ZN4core3ptr64drop_in_place$LT$alloc..vec..Vec$LT$syn..attr..Attribute$GT$$GT$17h3c8f2a04e701c675E.llvm.14890500243436994185', symObjAddr: 0x6150, symBinAddr: 0xEBD60, symSize: 0xD0 }
  - { offsetInCU: 0x31EE1, offset: 0x53535F, size: 0x8, addend: 0x0, symName: '__ZN4core3ptr65drop_in_place$LT$core..option..Option$LT$syn..expr..Label$GT$$GT$17h78189e72a8cb7951E', symObjAddr: 0x6240, symBinAddr: 0xEBE30, symSize: 0x30 }
  - { offsetInCU: 0x3201C, offset: 0x53549A, size: 0x8, addend: 0x0, symName: '__ZN4core3ptr66drop_in_place$LT$core..option..Option$LT$syn..pat..PatRest$GT$$GT$17h61677cf4ff3a7393E', symObjAddr: 0x6270, symBinAddr: 0xEBE60, symSize: 0xE0 }
  - { offsetInCU: 0x322A0, offset: 0x53571E, size: 0x8, addend: 0x0, symName: '__ZN4core3ptr67drop_in_place$LT$alloc..boxed..Box$LT$syn..expr..FieldValue$GT$$GT$17h93aaccf8aa22ef88E', symObjAddr: 0x6350, symBinAddr: 0xEBF40, symSize: 0x140 }
  - { offsetInCU: 0x327A4, offset: 0x535C22, size: 0x8, addend: 0x0, symName: '__ZN4core3ptr68drop_in_place$LT$alloc..boxed..Box$LT$syn..path..PathSegment$GT$$GT$17h709dabdc13b58a71E', symObjAddr: 0x6490, symBinAddr: 0xEC080, symSize: 0x190 }
  - { offsetInCU: 0x32E82, offset: 0x536300, size: 0x8, addend: 0x0, symName: '__ZN4core3ptr70drop_in_place$LT$core..option..Option$LT$syn..ty..BareVariadic$GT$$GT$17h45399348ea4b8d55E', symObjAddr: 0x6620, symBinAddr: 0xEC210, symSize: 0x120 }
  - { offsetInCU: 0x333AF, offset: 0x53682D, size: 0x8, addend: 0x0, symName: '__ZN4core3ptr72drop_in_place$LT$alloc..boxed..Box$LT$syn..path..GenericArgument$GT$$GT$17haa7dd8b716637b54E', symObjAddr: 0x6740, symBinAddr: 0xEC330, symSize: 0x2B0 }
  - { offsetInCU: 0x33D3A, offset: 0x5371B8, size: 0x8, addend: 0x0, symName: '__ZN4core3ptr72drop_in_place$LT$core..option..Option$LT$syn..lifetime..Lifetime$GT$$GT$17hfc363ccdd8bd9c32E', symObjAddr: 0x69F0, symBinAddr: 0xEC5E0, symSize: 0x30 }
  - { offsetInCU: 0x33E56, offset: 0x5372D4, size: 0x8, addend: 0x0, symName: '__ZN4core3ptr73drop_in_place$LT$alloc..boxed..Box$LT$syn..generics..GenericParam$GT$$GT$17hf6951dcd5ae07324E.llvm.14890500243436994185', symObjAddr: 0x6A20, symBinAddr: 0xEC610, symSize: 0x80 }
  - { offsetInCU: 0x33FCE, offset: 0x53744C, size: 0x8, addend: 0x0, symName: '__ZN4core3ptr75drop_in_place$LT$alloc..boxed..Box$LT$syn..generics..TypeParamBound$GT$$GT$17he61c00698a311a34E', symObjAddr: 0x6AA0, symBinAddr: 0xEC690, symSize: 0x160 }
  - { offsetInCU: 0x34575, offset: 0x5379F3, size: 0x8, addend: 0x0, symName: '__ZN4core3ptr75drop_in_place$LT$core..option..Option$LT$syn..generics..WhereClause$GT$$GT$17hdce7670be9790a3dE', symObjAddr: 0x6C00, symBinAddr: 0xEC7F0, symSize: 0x90 }
  - { offsetInCU: 0x3482B, offset: 0x537CA9, size: 0x8, addend: 0x0, symName: '__ZN4core3ptr86drop_in_place$LT$syn..punctuated..Punctuated$LT$syn..pat..Pat$C$syn..token..Or$GT$$GT$17h8e9173df21a44316E', symObjAddr: 0x6CB0, symBinAddr: 0xEC880, symSize: 0x120 }
  - { offsetInCU: 0x34C71, offset: 0x5380EF, size: 0x8, addend: 0x0, symName: '__ZN4core3ptr87drop_in_place$LT$core..option..Option$LT$alloc..boxed..Box$LT$syn..pat..Pat$GT$$GT$$GT$17hd7b7c69f601b3926E', symObjAddr: 0x6DD0, symBinAddr: 0xEC9A0, symSize: 0x50 }
  - { offsetInCU: 0x34DE3, offset: 0x538261, size: 0x8, addend: 0x0, symName: '__ZN4core3ptr87drop_in_place$LT$core..option..Option$LT$alloc..boxed..Box$LT$syn..ty..Type$GT$$GT$$GT$17hd74f5d971aec2972E', symObjAddr: 0x6E20, symBinAddr: 0xEC9F0, symSize: 0x50 }
  - { offsetInCU: 0x34F55, offset: 0x5383D3, size: 0x8, addend: 0x0, symName: '__ZN4core3ptr89drop_in_place$LT$core..option..Option$LT$alloc..boxed..Box$LT$syn..expr..Expr$GT$$GT$$GT$17h8e135ac1a25a2dc5E', symObjAddr: 0x6E70, symBinAddr: 0xECA40, symSize: 0x50 }
  - { offsetInCU: 0x35105, offset: 0x538583, size: 0x8, addend: 0x0, symName: '__ZN4core3ptr89drop_in_place$LT$syn..punctuated..Punctuated$LT$syn..pat..Pat$C$syn..token..Comma$GT$$GT$17h8d60e47f3fb1f87aE', symObjAddr: 0x6EC0, symBinAddr: 0xECA90, symSize: 0x120 }
  - { offsetInCU: 0x35562, offset: 0x5389E0, size: 0x8, addend: 0x0, symName: '__ZN4core3ptr89drop_in_place$LT$syn..punctuated..Punctuated$LT$syn..ty..Type$C$syn..token..Comma$GT$$GT$17ha919b3114742fb9dE', symObjAddr: 0x6FE0, symBinAddr: 0xECBB0, symSize: 0x120 }
  - { offsetInCU: 0x359AC, offset: 0x538E2A, size: 0x8, addend: 0x0, symName: '__ZN4core3ptr90drop_in_place$LT$core..option..Option$LT$syn..path..AngleBracketedGenericArguments$GT$$GT$17h80d9a5f0818c8bd9E', symObjAddr: 0x7100, symBinAddr: 0xECCD0, symSize: 0x130 }
  - { offsetInCU: 0x35E17, offset: 0x539295, size: 0x8, addend: 0x0, symName: '__ZN4core3ptr91drop_in_place$LT$syn..punctuated..Punctuated$LT$syn..expr..Expr$C$syn..token..Comma$GT$$GT$17h4f39b83dc86a4159E', symObjAddr: 0x7230, symBinAddr: 0xECE00, symSize: 0x120 }
  - { offsetInCU: 0x36274, offset: 0x5396F2, size: 0x8, addend: 0x0, symName: '__ZN4core3ptr94drop_in_place$LT$syn..punctuated..Punctuated$LT$syn..pat..FieldPat$C$syn..token..Comma$GT$$GT$17h112950ea198c8281E', symObjAddr: 0x7350, symBinAddr: 0xECF20, symSize: 0xF0 }
  - { offsetInCU: 0x3653E, offset: 0x5399BC, size: 0x8, addend: 0x0, symName: '__ZN4core3ptr94drop_in_place$LT$syn..punctuated..Punctuated$LT$syn..ty..BareFnArg$C$syn..token..Comma$GT$$GT$17h1c7b44310f06243dE', symObjAddr: 0x7440, symBinAddr: 0xED010, symSize: 0xF0 }
  - { offsetInCU: 0x36808, offset: 0x539C86, size: 0x8, addend: 0x0, symName: '__ZN4core3ptr96drop_in_place$LT$core..option..Option$LT$alloc..boxed..Box$LT$syn..path..PathSegment$GT$$GT$$GT$17hb447d0f626c86a4eE', symObjAddr: 0x7530, symBinAddr: 0xED100, symSize: 0x90 }
  - { offsetInCU: 0x36A8A, offset: 0x539F08, size: 0x8, addend: 0x0, symName: '__ZN4core3ptr97drop_in_place$LT$syn..punctuated..Punctuated$LT$syn..expr..FieldValue$C$syn..token..Comma$GT$$GT$17h31b81f7462228dcbE', symObjAddr: 0x75C0, symBinAddr: 0xED190, symSize: 0xF0 }
  - { offsetInCU: 0x36D54, offset: 0x53A1D2, size: 0x8, addend: 0x0, symName: '__ZN4core3ptr98drop_in_place$LT$alloc..vec..Vec$LT$$LP$syn..path..GenericArgument$C$syn..token..Comma$RP$$GT$$GT$17h0657ff261f33b640E', symObjAddr: 0x76B0, symBinAddr: 0xED280, symSize: 0xD0 }
  - { offsetInCU: 0x3705D, offset: 0x53A4DB, size: 0x8, addend: 0x0, symName: '__ZN4core3ptr98drop_in_place$LT$syn..punctuated..Punctuated$LT$syn..lifetime..Lifetime$C$syn..token..Plus$GT$$GT$17h0f8fc5f20f465f47E.llvm.14890500243436994185', symObjAddr: 0x7780, symBinAddr: 0xED350, symSize: 0xC0 }
  - { offsetInCU: 0x3F49F, offset: 0x54291D, size: 0x8, addend: 0x0, symName: __ZN3syn8generics8Generics11type_params17hb9088e2ca60e050aE, symObjAddr: 0x8070, symBinAddr: 0xED410, symSize: 0x0 }
  - { offsetInCU: 0x3F779, offset: 0x542BF7, size: 0x8, addend: 0x0, symName: __ZN3syn8generics8Generics17make_where_clause17had5dcd5f78f89d9dE, symObjAddr: 0x80E0, symBinAddr: 0xED480, symSize: 0x90 }
  - { offsetInCU: 0x4090B, offset: 0x543D89, size: 0x8, addend: 0x0, symName: '__ZN3syn8generics7parsing47_$LT$impl$u20$syn..generics..TypeParamBound$GT$14parse_multiple17h0a18ee52418b5a4eE', symObjAddr: 0xC610, symBinAddr: 0xF0D20, symSize: 0x560 }
  - { offsetInCU: 0xEA2, offset: 0x54EB08, size: 0x8, addend: 0x0, symName: '__ZN63_$LT$syn..token..Plus$u20$as$u20$quote..to_tokens..ToTokens$GT$9to_tokens17hbcc5ab13af0fa3ddE', symObjAddr: 0x5FB0, symBinAddr: 0xF6B10, symSize: 0x30 }
  - { offsetInCU: 0xECE, offset: 0x54EB34, size: 0x8, addend: 0x0, symName: '__ZN60_$LT$syn..token..Underscore$u20$as$u20$syn..token..Token$GT$4peek17h789d27f9bb6ea028E', symObjAddr: 0xA30, symBinAddr: 0xF57A0, symSize: 0x250 }
  - { offsetInCU: 0x16CF, offset: 0x54F335, size: 0x8, addend: 0x0, symName: '__ZN55_$LT$syn..token..Paren$u20$as$u20$syn..token..Token$GT$4peek17h25e234046af6258dE', symObjAddr: 0xEE0, symBinAddr: 0xF5B10, symSize: 0xB0 }
  - { offsetInCU: 0x1721, offset: 0x54F387, size: 0x8, addend: 0x0, symName: '__ZN55_$LT$syn..token..Paren$u20$as$u20$syn..token..Token$GT$4peek17h25e234046af6258dE', symObjAddr: 0xEE0, symBinAddr: 0xF5B10, symSize: 0xB0 }
  - { offsetInCU: 0x1731, offset: 0x54F397, size: 0x8, addend: 0x0, symName: '__ZN55_$LT$syn..token..Paren$u20$as$u20$syn..token..Token$GT$4peek17h25e234046af6258dE', symObjAddr: 0xEE0, symBinAddr: 0xF5B10, symSize: 0xB0 }
  - { offsetInCU: 0x1869, offset: 0x54F4CF, size: 0x8, addend: 0x0, symName: '__ZN55_$LT$syn..token..Brace$u20$as$u20$syn..token..Token$GT$4peek17ha752276b3db9eb99E', symObjAddr: 0xF90, symBinAddr: 0xF5BC0, symSize: 0xB0 }
  - { offsetInCU: 0x18BB, offset: 0x54F521, size: 0x8, addend: 0x0, symName: '__ZN55_$LT$syn..token..Brace$u20$as$u20$syn..token..Token$GT$4peek17ha752276b3db9eb99E', symObjAddr: 0xF90, symBinAddr: 0xF5BC0, symSize: 0xB0 }
  - { offsetInCU: 0x18CB, offset: 0x54F531, size: 0x8, addend: 0x0, symName: '__ZN55_$LT$syn..token..Brace$u20$as$u20$syn..token..Token$GT$4peek17ha752276b3db9eb99E', symObjAddr: 0xF90, symBinAddr: 0xF5BC0, symSize: 0xB0 }
  - { offsetInCU: 0x1A0B, offset: 0x54F671, size: 0x8, addend: 0x0, symName: '__ZN57_$LT$syn..token..Bracket$u20$as$u20$syn..token..Token$GT$4peek17h3f4b3ccc9e26c654E', symObjAddr: 0x1040, symBinAddr: 0xF5C70, symSize: 0xB0 }
  - { offsetInCU: 0x1A5D, offset: 0x54F6C3, size: 0x8, addend: 0x0, symName: '__ZN57_$LT$syn..token..Bracket$u20$as$u20$syn..token..Token$GT$4peek17h3f4b3ccc9e26c654E', symObjAddr: 0x1040, symBinAddr: 0xF5C70, symSize: 0xB0 }
  - { offsetInCU: 0x1A6D, offset: 0x54F6D3, size: 0x8, addend: 0x0, symName: '__ZN57_$LT$syn..token..Bracket$u20$as$u20$syn..token..Token$GT$4peek17h3f4b3ccc9e26c654E', symObjAddr: 0x1040, symBinAddr: 0xF5C70, symSize: 0xB0 }
  - { offsetInCU: 0x1BAD, offset: 0x54F813, size: 0x8, addend: 0x0, symName: '__ZN57_$LT$syn..token..As$u20$as$u20$core..default..Default$GT$7default17h28c8367642c50624E', symObjAddr: 0x12A0, symBinAddr: 0xF5D20, symSize: 0x0 }
  - { offsetInCU: 0x1BFE, offset: 0x54F864, size: 0x8, addend: 0x0, symName: '__ZN52_$LT$syn..token..As$u20$as$u20$syn..parse..Parse$GT$5parse17h85019d46556fbac3E', symObjAddr: 0x1350, symBinAddr: 0xF5D30, symSize: 0x60 }
  - { offsetInCU: 0x1CB2, offset: 0x54F918, size: 0x8, addend: 0x0, symName: '__ZN55_$LT$syn..token..Async$u20$as$u20$syn..token..Token$GT$4peek17h7ff0a4a69488c77fE', symObjAddr: 0x14D0, symBinAddr: 0xF5D90, symSize: 0x20 }
  - { offsetInCU: 0x1CE8, offset: 0x54F94E, size: 0x8, addend: 0x0, symName: '__ZN54_$LT$syn..token..Auto$u20$as$u20$syn..token..Token$GT$4peek17hebee82bb54c38895E', symObjAddr: 0x15F0, symBinAddr: 0xF5DB0, symSize: 0x20 }
  - { offsetInCU: 0x1D4B, offset: 0x54F9B1, size: 0x8, addend: 0x0, symName: '__ZN55_$LT$syn..token..Break$u20$as$u20$syn..token..Token$GT$4peek17h5da906664b470b88E', symObjAddr: 0x1A70, symBinAddr: 0xF5DD0, symSize: 0x20 }
  - { offsetInCU: 0x1DAE, offset: 0x54FA14, size: 0x8, addend: 0x0, symName: '__ZN55_$LT$syn..token..Const$u20$as$u20$syn..parse..Parse$GT$5parse17h46c6cc59779da60bE', symObjAddr: 0x1B30, symBinAddr: 0xF5DF0, symSize: 0x60 }
  - { offsetInCU: 0x1E35, offset: 0x54FA9B, size: 0x8, addend: 0x0, symName: '__ZN55_$LT$syn..token..Const$u20$as$u20$syn..token..Token$GT$4peek17h2d7d2aba6f15afccE', symObjAddr: 0x1B90, symBinAddr: 0xF5E50, symSize: 0x20 }
  - { offsetInCU: 0x1E6B, offset: 0x54FAD1, size: 0x8, addend: 0x0, symName: '__ZN58_$LT$syn..token..Continue$u20$as$u20$syn..token..Token$GT$4peek17h110b82a93c821ef6E', symObjAddr: 0x1CB0, symBinAddr: 0xF5E70, symSize: 0x20 }
  - { offsetInCU: 0x1EA1, offset: 0x54FB07, size: 0x8, addend: 0x0, symName: '__ZN55_$LT$syn..token..Crate$u20$as$u20$syn..token..Token$GT$4peek17hd3ff9f9064291857E', symObjAddr: 0x1DD0, symBinAddr: 0xF5E90, symSize: 0x20 }
  - { offsetInCU: 0x1ED7, offset: 0x54FB3D, size: 0x8, addend: 0x0, symName: '__ZN53_$LT$syn..token..Dyn$u20$as$u20$syn..parse..Parse$GT$5parse17hd552992672026ee9E', symObjAddr: 0x20D0, symBinAddr: 0xF5EB0, symSize: 0x60 }
  - { offsetInCU: 0x1F5E, offset: 0x54FBC4, size: 0x8, addend: 0x0, symName: '__ZN54_$LT$syn..token..Else$u20$as$u20$syn..parse..Parse$GT$5parse17h2b2f89d9de8133a6E', symObjAddr: 0x21F0, symBinAddr: 0xF5F10, symSize: 0x60 }
  - { offsetInCU: 0x1FE5, offset: 0x54FC4B, size: 0x8, addend: 0x0, symName: '__ZN54_$LT$syn..token..Enum$u20$as$u20$syn..token..Token$GT$4peek17h70f8ca6d0a57ae7cE', symObjAddr: 0x2370, symBinAddr: 0xF5F70, symSize: 0x20 }
  - { offsetInCU: 0x201B, offset: 0x54FC81, size: 0x8, addend: 0x0, symName: '__ZN56_$LT$syn..token..Extern$u20$as$u20$syn..token..Token$GT$4peek17h0a1088e1ed9ac636E', symObjAddr: 0x2490, symBinAddr: 0xF5F90, symSize: 0x20 }
  - { offsetInCU: 0x2051, offset: 0x54FCB7, size: 0x8, addend: 0x0, symName: '__ZN52_$LT$syn..token..Fn$u20$as$u20$syn..parse..Parse$GT$5parse17hbae4b7e03a0010e0E', symObjAddr: 0x2670, symBinAddr: 0xF5FB0, symSize: 0x60 }
  - { offsetInCU: 0x20D8, offset: 0x54FD3E, size: 0x8, addend: 0x0, symName: '__ZN52_$LT$syn..token..Fn$u20$as$u20$syn..token..Token$GT$4peek17hc7676a7b46f9ffb9E', symObjAddr: 0x26D0, symBinAddr: 0xF6010, symSize: 0x20 }
  - { offsetInCU: 0x213B, offset: 0x54FDA1, size: 0x8, addend: 0x0, symName: '__ZN53_$LT$syn..token..For$u20$as$u20$syn..parse..Parse$GT$5parse17h7830b2807da6697cE', symObjAddr: 0x2790, symBinAddr: 0xF6030, symSize: 0x60 }
  - { offsetInCU: 0x21C2, offset: 0x54FE28, size: 0x8, addend: 0x0, symName: '__ZN52_$LT$syn..token..If$u20$as$u20$syn..token..Token$GT$4peek17hb53ffde7051292aeE', symObjAddr: 0x2910, symBinAddr: 0xF6090, symSize: 0x20 }
  - { offsetInCU: 0x21F8, offset: 0x54FE5E, size: 0x8, addend: 0x0, symName: '__ZN54_$LT$syn..token..Impl$u20$as$u20$syn..token..Token$GT$4peek17h1bc8c1a17a8ac247E', symObjAddr: 0x2A30, symBinAddr: 0xF60B0, symSize: 0x20 }
  - { offsetInCU: 0x225B, offset: 0x54FEC1, size: 0x8, addend: 0x0, symName: '__ZN52_$LT$syn..token..In$u20$as$u20$syn..parse..Parse$GT$5parse17hec49a7644160a01eE', symObjAddr: 0x2AF0, symBinAddr: 0xF60D0, symSize: 0x60 }
  - { offsetInCU: 0x22E2, offset: 0x54FF48, size: 0x8, addend: 0x0, symName: '__ZN52_$LT$syn..token..In$u20$as$u20$syn..token..Token$GT$4peek17h5d7b494ecb5b40f2E', symObjAddr: 0x2B50, symBinAddr: 0xF6130, symSize: 0x20 }
  - { offsetInCU: 0x2372, offset: 0x54FFD8, size: 0x8, addend: 0x0, symName: '__ZN55_$LT$syn..token..Macro$u20$as$u20$syn..token..Token$GT$4peek17h6210815ff705b39aE', symObjAddr: 0x2EB0, symBinAddr: 0xF6150, symSize: 0x20 }
  - { offsetInCU: 0x23D5, offset: 0x55003B, size: 0x8, addend: 0x0, symName: '__ZN55_$LT$syn..token..Match$u20$as$u20$syn..token..Token$GT$4peek17h4c6330554c8af4a1E', symObjAddr: 0x2FD0, symBinAddr: 0xF6170, symSize: 0x20 }
  - { offsetInCU: 0x240B, offset: 0x550071, size: 0x8, addend: 0x0, symName: '__ZN53_$LT$syn..token..Mod$u20$as$u20$syn..token..Token$GT$4peek17hbe008020d570fc7bE', symObjAddr: 0x30F0, symBinAddr: 0xF6190, symSize: 0x20 }
  - { offsetInCU: 0x246E, offset: 0x5500D4, size: 0x8, addend: 0x0, symName: '__ZN54_$LT$syn..token..Move$u20$as$u20$syn..token..Token$GT$4peek17h64855903f4cc82c7E', symObjAddr: 0x3210, symBinAddr: 0xF61B0, symSize: 0x20 }
  - { offsetInCU: 0x24D1, offset: 0x550137, size: 0x8, addend: 0x0, symName: '__ZN53_$LT$syn..token..Mut$u20$as$u20$syn..token..Token$GT$4peek17hfa3b784a7986bc45E', symObjAddr: 0x3330, symBinAddr: 0xF61D0, symSize: 0x20 }
  - { offsetInCU: 0x2534, offset: 0x55019A, size: 0x8, addend: 0x0, symName: '__ZN53_$LT$syn..token..Ref$u20$as$u20$syn..token..Token$GT$4peek17h767951e2892cf942E', symObjAddr: 0x37B0, symBinAddr: 0xF61F0, symSize: 0x20 }
  - { offsetInCU: 0x256A, offset: 0x5501D0, size: 0x8, addend: 0x0, symName: '__ZN56_$LT$syn..token..Return$u20$as$u20$syn..token..Token$GT$4peek17hb104903481ec0ad4E', symObjAddr: 0x38D0, symBinAddr: 0xF6210, symSize: 0x20 }
  - { offsetInCU: 0x25A0, offset: 0x550206, size: 0x8, addend: 0x0, symName: '__ZN67_$LT$syn..token..SelfType$u20$as$u20$quote..to_tokens..ToTokens$GT$9to_tokens17h65c4b4532850d9ccE', symObjAddr: 0x3910, symBinAddr: 0xF6230, symSize: 0x80 }
  - { offsetInCU: 0x26D6, offset: 0x55033C, size: 0x8, addend: 0x0, symName: '__ZN58_$LT$syn..token..SelfType$u20$as$u20$syn..token..Token$GT$4peek17h0c0bc843190daad6E', symObjAddr: 0x39F0, symBinAddr: 0xF62B0, symSize: 0x20 }
  - { offsetInCU: 0x270C, offset: 0x550372, size: 0x8, addend: 0x0, symName: '__ZN59_$LT$syn..token..SelfValue$u20$as$u20$syn..parse..Parse$GT$5parse17h051d3709124c46d9E', symObjAddr: 0x3AB0, symBinAddr: 0xF62D0, symSize: 0x60 }
  - { offsetInCU: 0x2793, offset: 0x5503F9, size: 0x8, addend: 0x0, symName: '__ZN59_$LT$syn..token..SelfValue$u20$as$u20$syn..token..Token$GT$4peek17h50318bcccdb91ecaE', symObjAddr: 0x3B10, symBinAddr: 0xF6330, symSize: 0x20 }
  - { offsetInCU: 0x27C9, offset: 0x55042F, size: 0x8, addend: 0x0, symName: '__ZN56_$LT$syn..token..Static$u20$as$u20$syn..parse..Parse$GT$5parse17h5bb5f7745c7fe15eE', symObjAddr: 0x3BD0, symBinAddr: 0xF6350, symSize: 0x60 }
  - { offsetInCU: 0x2850, offset: 0x5504B6, size: 0x8, addend: 0x0, symName: '__ZN56_$LT$syn..token..Static$u20$as$u20$syn..token..Token$GT$4peek17he4be23aaf817aacaE', symObjAddr: 0x3C30, symBinAddr: 0xF63B0, symSize: 0x20 }
  - { offsetInCU: 0x2886, offset: 0x5504EC, size: 0x8, addend: 0x0, symName: '__ZN56_$LT$syn..token..Struct$u20$as$u20$syn..token..Token$GT$4peek17h19827cbab69b1623E', symObjAddr: 0x3D50, symBinAddr: 0xF63D0, symSize: 0x20 }
  - { offsetInCU: 0x28BC, offset: 0x550522, size: 0x8, addend: 0x0, symName: '__ZN55_$LT$syn..token..Super$u20$as$u20$syn..token..Token$GT$4peek17h275967d5b34f27d3E', symObjAddr: 0x3E70, symBinAddr: 0xF63F0, symSize: 0x20 }
  - { offsetInCU: 0x28F2, offset: 0x550558, size: 0x8, addend: 0x0, symName: '__ZN55_$LT$syn..token..Trait$u20$as$u20$syn..token..Token$GT$4peek17h02f104e1d9e561e9E', symObjAddr: 0x3F90, symBinAddr: 0xF6410, symSize: 0x20 }
  - { offsetInCU: 0x2955, offset: 0x5505BB, size: 0x8, addend: 0x0, symName: '__ZN53_$LT$syn..token..Try$u20$as$u20$syn..token..Token$GT$4peek17had59752cb32497b6E', symObjAddr: 0x40B0, symBinAddr: 0xF6430, symSize: 0x20 }
  - { offsetInCU: 0x298B, offset: 0x5505F1, size: 0x8, addend: 0x0, symName: '__ZN54_$LT$syn..token..Type$u20$as$u20$syn..token..Token$GT$4peek17hd609b66210c77b34E', symObjAddr: 0x41D0, symBinAddr: 0xF6450, symSize: 0x20 }
  - { offsetInCU: 0x29C1, offset: 0x550627, size: 0x8, addend: 0x0, symName: '__ZN55_$LT$syn..token..Union$u20$as$u20$syn..token..Token$GT$4peek17h95e4cdd0419c4cc2E', symObjAddr: 0x4410, symBinAddr: 0xF6470, symSize: 0x20 }
  - { offsetInCU: 0x2A24, offset: 0x55068A, size: 0x8, addend: 0x0, symName: '__ZN56_$LT$syn..token..Unsafe$u20$as$u20$syn..parse..Parse$GT$5parse17hba2df29f6bec55cdE', symObjAddr: 0x44D0, symBinAddr: 0xF6490, symSize: 0x60 }
  - { offsetInCU: 0x2AAB, offset: 0x550711, size: 0x8, addend: 0x0, symName: '__ZN56_$LT$syn..token..Unsafe$u20$as$u20$syn..token..Token$GT$4peek17h5bb5d41f3ab3faf1E', symObjAddr: 0x4530, symBinAddr: 0xF64F0, symSize: 0x20 }
  - { offsetInCU: 0x2AE1, offset: 0x550747, size: 0x8, addend: 0x0, symName: '__ZN53_$LT$syn..token..Use$u20$as$u20$syn..token..Token$GT$4peek17hb629dd0a0c930e39E', symObjAddr: 0x4770, symBinAddr: 0xF6510, symSize: 0x20 }
  - { offsetInCU: 0x2B44, offset: 0x5507AA, size: 0x8, addend: 0x0, symName: '__ZN55_$LT$syn..token..While$u20$as$u20$syn..token..Token$GT$4peek17h1bdd217e3c510cd5E', symObjAddr: 0x4AD0, symBinAddr: 0xF6530, symSize: 0x20 }
  - { offsetInCU: 0x2BA7, offset: 0x55080D, size: 0x8, addend: 0x0, symName: '__ZN53_$LT$syn..token..And$u20$as$u20$syn..parse..Parse$GT$5parse17h5b38fc9651d95e98E', symObjAddr: 0x4C40, symBinAddr: 0xF6550, symSize: 0x50 }
  - { offsetInCU: 0x2C09, offset: 0x55086F, size: 0x8, addend: 0x0, symName: '__ZN53_$LT$syn..token..And$u20$as$u20$syn..token..Token$GT$4peek17h977f39081b12fb5aE', symObjAddr: 0x4C90, symBinAddr: 0xF65A0, symSize: 0x20 }
  - { offsetInCU: 0x2C3F, offset: 0x5508A5, size: 0x8, addend: 0x0, symName: '__ZN55_$LT$syn..token..Caret$u20$as$u20$syn..parse..Parse$GT$5parse17h985441110bef27beE', symObjAddr: 0x4EC0, symBinAddr: 0xF65C0, symSize: 0x50 }
  - { offsetInCU: 0x2CA1, offset: 0x550907, size: 0x8, addend: 0x0, symName: '__ZN55_$LT$syn..token..Caret$u20$as$u20$syn..token..Token$GT$4peek17h96a9c0bcb6c0e70aE', symObjAddr: 0x4F10, symBinAddr: 0xF6610, symSize: 0x20 }
  - { offsetInCU: 0x2D04, offset: 0x55096A, size: 0x8, addend: 0x0, symName: '__ZN55_$LT$syn..token..Colon$u20$as$u20$syn..parse..Parse$GT$5parse17hb173b91a971bef7cE', symObjAddr: 0x5000, symBinAddr: 0xF6630, symSize: 0x50 }
  - { offsetInCU: 0x2D66, offset: 0x5509CC, size: 0x8, addend: 0x0, symName: '__ZN55_$LT$syn..token..Colon$u20$as$u20$syn..token..Token$GT$4peek17hda082e4f86b2eba7E', symObjAddr: 0x5050, symBinAddr: 0xF6680, symSize: 0x20 }
  - { offsetInCU: 0x2D9C, offset: 0x550A02, size: 0x8, addend: 0x0, symName: '__ZN55_$LT$syn..token..Comma$u20$as$u20$syn..parse..Parse$GT$5parse17hd6bc62bc2c71a22aE', symObjAddr: 0x50A0, symBinAddr: 0xF66A0, symSize: 0x50 }
  - { offsetInCU: 0x2DFE, offset: 0x550A64, size: 0x8, addend: 0x0, symName: '__ZN55_$LT$syn..token..Comma$u20$as$u20$syn..token..Token$GT$4peek17h35a333ecf294aee4E', symObjAddr: 0x50F0, symBinAddr: 0xF66F0, symSize: 0x20 }
  - { offsetInCU: 0x2E61, offset: 0x550AC7, size: 0x8, addend: 0x0, symName: '__ZN53_$LT$syn..token..Dot$u20$as$u20$syn..parse..Parse$GT$5parse17heffd4b06905dd289E', symObjAddr: 0x51E0, symBinAddr: 0xF6710, symSize: 0x50 }
  - { offsetInCU: 0x2EC3, offset: 0x550B29, size: 0x8, addend: 0x0, symName: '__ZN53_$LT$syn..token..Dot$u20$as$u20$syn..token..Token$GT$4peek17h6d86fbdab90dfe7fE', symObjAddr: 0x5230, symBinAddr: 0xF6760, symSize: 0x20 }
  - { offsetInCU: 0x2F26, offset: 0x550B8C, size: 0x8, addend: 0x0, symName: '__ZN56_$LT$syn..token..DotDot$u20$as$u20$syn..token..Token$GT$4peek17hd3bd5b93702b4330E', symObjAddr: 0x52D0, symBinAddr: 0xF6780, symSize: 0x20 }
  - { offsetInCU: 0x2F5C, offset: 0x550BC2, size: 0x8, addend: 0x0, symName: '__ZN59_$LT$syn..token..DotDotDot$u20$as$u20$syn..token..Token$GT$4peek17hb44c133be230bd96E', symObjAddr: 0x5390, symBinAddr: 0xF67A0, symSize: 0x20 }
  - { offsetInCU: 0x2F92, offset: 0x550BF8, size: 0x8, addend: 0x0, symName: '__ZN58_$LT$syn..token..DotDotEq$u20$as$u20$syn..token..Token$GT$4peek17h2fee0dc9b1a6aabeE', symObjAddr: 0x5450, symBinAddr: 0xF67C0, symSize: 0x20 }
  - { offsetInCU: 0x2FF5, offset: 0x550C5B, size: 0x8, addend: 0x0, symName: '__ZN52_$LT$syn..token..Eq$u20$as$u20$syn..parse..Parse$GT$5parse17h9bd44d98b4fba545E', symObjAddr: 0x54A0, symBinAddr: 0xF67E0, symSize: 0x50 }
  - { offsetInCU: 0x3057, offset: 0x550CBD, size: 0x8, addend: 0x0, symName: '__ZN52_$LT$syn..token..Eq$u20$as$u20$syn..token..Token$GT$4peek17hfd0450a878fd20a5E', symObjAddr: 0x54F0, symBinAddr: 0xF6830, symSize: 0x20 }
  - { offsetInCU: 0x308D, offset: 0x550CF3, size: 0x8, addend: 0x0, symName: '__ZN52_$LT$syn..token..Gt$u20$as$u20$syn..parse..Parse$GT$5parse17h280d30dfd0ec0e88E', symObjAddr: 0x5720, symBinAddr: 0xF6850, symSize: 0x50 }
  - { offsetInCU: 0x30EF, offset: 0x550D55, size: 0x8, addend: 0x0, symName: '__ZN52_$LT$syn..token..Gt$u20$as$u20$syn..token..Token$GT$4peek17hbf38b1119d014050E', symObjAddr: 0x5770, symBinAddr: 0xF68A0, symSize: 0x20 }
  - { offsetInCU: 0x3125, offset: 0x550D8B, size: 0x8, addend: 0x0, symName: '__ZN52_$LT$syn..token..Lt$u20$as$u20$syn..parse..Parse$GT$5parse17he341b95b06e78275E', symObjAddr: 0x5900, symBinAddr: 0xF68C0, symSize: 0x50 }
  - { offsetInCU: 0x3187, offset: 0x550DED, size: 0x8, addend: 0x0, symName: '__ZN52_$LT$syn..token..Lt$u20$as$u20$syn..token..Token$GT$4peek17h5fc3809859b7b5faE', symObjAddr: 0x5950, symBinAddr: 0xF6910, symSize: 0x20 }
  - { offsetInCU: 0x31BD, offset: 0x550E23, size: 0x8, addend: 0x0, symName: '__ZN55_$LT$syn..token..Minus$u20$as$u20$syn..parse..Parse$GT$5parse17h477a6d776dd7b43dE', symObjAddr: 0x59A0, symBinAddr: 0xF6930, symSize: 0x50 }
  - { offsetInCU: 0x321F, offset: 0x550E85, size: 0x8, addend: 0x0, symName: '__ZN55_$LT$syn..token..Minus$u20$as$u20$syn..token..Token$GT$4peek17h7a6cf1f090dbf8f6E', symObjAddr: 0x59F0, symBinAddr: 0xF6980, symSize: 0x20 }
  - { offsetInCU: 0x3282, offset: 0x550EE8, size: 0x8, addend: 0x0, symName: '__ZN53_$LT$syn..token..Not$u20$as$u20$syn..parse..Parse$GT$5parse17hed95949511af2130E', symObjAddr: 0x5B80, symBinAddr: 0xF69A0, symSize: 0x50 }
  - { offsetInCU: 0x32E4, offset: 0x550F4A, size: 0x8, addend: 0x0, symName: '__ZN53_$LT$syn..token..Not$u20$as$u20$syn..token..Token$GT$4peek17hc7242dbe39d2cc52E', symObjAddr: 0x5BD0, symBinAddr: 0xF69F0, symSize: 0x20 }
  - { offsetInCU: 0x331A, offset: 0x550F80, size: 0x8, addend: 0x0, symName: '__ZN52_$LT$syn..token..Or$u20$as$u20$syn..parse..Parse$GT$5parse17h9e4bc6c60c89d717E', symObjAddr: 0x5C20, symBinAddr: 0xF6A10, symSize: 0x50 }
  - { offsetInCU: 0x337C, offset: 0x550FE2, size: 0x8, addend: 0x0, symName: '__ZN52_$LT$syn..token..Or$u20$as$u20$syn..token..Token$GT$4peek17hab4246a0272ea64dE', symObjAddr: 0x5C70, symBinAddr: 0xF6A60, symSize: 0x20 }
  - { offsetInCU: 0x33B2, offset: 0x551018, size: 0x8, addend: 0x0, symName: '__ZN57_$LT$syn..token..PathSep$u20$as$u20$syn..token..Token$GT$4peek17ha2b30e581acdbebaE', symObjAddr: 0x5E50, symBinAddr: 0xF6A80, symSize: 0x20 }
  - { offsetInCU: 0x33E8, offset: 0x55104E, size: 0x8, addend: 0x0, symName: '__ZN57_$LT$syn..token..Percent$u20$as$u20$syn..parse..Parse$GT$5parse17h011c51e35c593cf7E', symObjAddr: 0x5EA0, symBinAddr: 0xF6AA0, symSize: 0x50 }
  - { offsetInCU: 0x344A, offset: 0x5510B0, size: 0x8, addend: 0x0, symName: '__ZN57_$LT$syn..token..Percent$u20$as$u20$syn..token..Token$GT$4peek17h5d975aca72633231E', symObjAddr: 0x5EF0, symBinAddr: 0xF6AF0, symSize: 0x20 }
  - { offsetInCU: 0x3480, offset: 0x5510E6, size: 0x8, addend: 0x0, symName: '__ZN54_$LT$syn..token..Plus$u20$as$u20$syn..parse..Parse$GT$5parse17hedad1693d91826e0E', symObjAddr: 0x5FE0, symBinAddr: 0xF6B40, symSize: 0x50 }
  - { offsetInCU: 0x34E2, offset: 0x551148, size: 0x8, addend: 0x0, symName: '__ZN54_$LT$syn..token..Plus$u20$as$u20$syn..token..Token$GT$4peek17h8faecb7b3ba3a03fE', symObjAddr: 0x6030, symBinAddr: 0xF6B90, symSize: 0x20 }
  - { offsetInCU: 0x3545, offset: 0x5511AB, size: 0x8, addend: 0x0, symName: '__ZN55_$LT$syn..token..Pound$u20$as$u20$syn..token..Token$GT$4peek17hd045620e0630b5b3E', symObjAddr: 0x6170, symBinAddr: 0xF6BB0, symSize: 0x20 }
  - { offsetInCU: 0x35A8, offset: 0x55120E, size: 0x8, addend: 0x0, symName: '__ZN58_$LT$syn..token..Question$u20$as$u20$syn..token..Token$GT$4peek17h40ab090367cab48aE', symObjAddr: 0x6210, symBinAddr: 0xF6BD0, symSize: 0x20 }
  - { offsetInCU: 0x360B, offset: 0x551271, size: 0x8, addend: 0x0, symName: '__ZN54_$LT$syn..token..Semi$u20$as$u20$syn..parse..Parse$GT$5parse17h5db424d26dfe3d07E', symObjAddr: 0x6300, symBinAddr: 0xF6BF0, symSize: 0x50 }
  - { offsetInCU: 0x366D, offset: 0x5512D3, size: 0x8, addend: 0x0, symName: '__ZN54_$LT$syn..token..Semi$u20$as$u20$syn..token..Token$GT$4peek17h5a07d3e2a049fb01E', symObjAddr: 0x6350, symBinAddr: 0xF6C40, symSize: 0x20 }
  - { offsetInCU: 0x36A3, offset: 0x551309, size: 0x8, addend: 0x0, symName: '__ZN55_$LT$syn..token..ShlEq$u20$as$u20$syn..parse..Parse$GT$5parse17h0c287701508b04adE', symObjAddr: 0x6440, symBinAddr: 0xF6C60, symSize: 0x70 }
  - { offsetInCU: 0x3758, offset: 0x5513BE, size: 0x8, addend: 0x0, symName: '__ZN55_$LT$syn..token..ShrEq$u20$as$u20$syn..parse..Parse$GT$5parse17h2537afed55ecadcaE', symObjAddr: 0x65A0, symBinAddr: 0xF6CD0, symSize: 0x70 }
  - { offsetInCU: 0x380D, offset: 0x551473, size: 0x8, addend: 0x0, symName: '__ZN55_$LT$syn..token..Slash$u20$as$u20$syn..parse..Parse$GT$5parse17hd6cbb0af0be5e420E', symObjAddr: 0x6660, symBinAddr: 0xF6D40, symSize: 0x50 }
  - { offsetInCU: 0x386F, offset: 0x5514D5, size: 0x8, addend: 0x0, symName: '__ZN55_$LT$syn..token..Slash$u20$as$u20$syn..token..Token$GT$4peek17hef38737ca26d6b89E', symObjAddr: 0x66B0, symBinAddr: 0xF6D90, symSize: 0x20 }
  - { offsetInCU: 0x38A5, offset: 0x55150B, size: 0x8, addend: 0x0, symName: '__ZN54_$LT$syn..token..Star$u20$as$u20$syn..parse..Parse$GT$5parse17hd453253e4a2951caE', symObjAddr: 0x67A0, symBinAddr: 0xF6DB0, symSize: 0x50 }
  - { offsetInCU: 0x3907, offset: 0x55156D, size: 0x8, addend: 0x0, symName: '__ZN54_$LT$syn..token..Star$u20$as$u20$syn..token..Token$GT$4peek17h0f086c1ea8af6077E', symObjAddr: 0x67F0, symBinAddr: 0xF6E00, symSize: 0x20 }
  - { offsetInCU: 0x393D, offset: 0x5515A3, size: 0x8, addend: 0x0, symName: '__ZN57_$LT$syn..token..At$u20$as$u20$core..default..Default$GT$7default17h00b388c888b463ceE', symObjAddr: 0x69B0, symBinAddr: 0xF6E20, symSize: 0x0 }
  - { offsetInCU: 0xA6A1, offset: 0x558307, size: 0x8, addend: 0x0, symName: '__ZN4core3ptr45drop_in_place$LT$proc_macro2..TokenStream$GT$17h3405f6c513e9f6cbE.llvm.7833956513218213385', symObjAddr: 0x730, symBinAddr: 0xF5660, symSize: 0x140 }
  - { offsetInCU: 0x100FE, offset: 0x55DD64, size: 0x8, addend: 0x0, symName: __ZN3syn5token5Group8surround17hfbe81a72805f5875E, symObjAddr: 0xDC0, symBinAddr: 0xF59F0, symSize: 0x120 }
  - { offsetInCU: 0x10392, offset: 0x55DFF8, size: 0x8, addend: 0x0, symName: __ZN3syn5token5Brace8surround17h1609b6061f8050acE, symObjAddr: 0x72E0, symBinAddr: 0xF6E30, symSize: 0x1A0 }
  - { offsetInCU: 0x108A9, offset: 0x55E50F, size: 0x8, addend: 0x0, symName: __ZN3syn5token5Brace8surround17h1616ad3374cfb32bE, symObjAddr: 0x7480, symBinAddr: 0xF6FD0, symSize: 0x250 }
  - { offsetInCU: 0x10D4F, offset: 0x55E9B5, size: 0x8, addend: 0x0, symName: __ZN3syn5token5Brace8surround17h1d2920be538b3d67E, symObjAddr: 0x76D0, symBinAddr: 0xF7220, symSize: 0x230 }
  - { offsetInCU: 0x1119E, offset: 0x55EE04, size: 0x8, addend: 0x0, symName: __ZN3syn5token5Brace8surround17h2f7384e739db3158E, symObjAddr: 0x7900, symBinAddr: 0xF7450, symSize: 0x250 }
  - { offsetInCU: 0x11637, offset: 0x55F29D, size: 0x8, addend: 0x0, symName: __ZN3syn5token5Brace8surround17h3cea1965078b46e8E, symObjAddr: 0x7B50, symBinAddr: 0xF76A0, symSize: 0x230 }
  - { offsetInCU: 0x11B6F, offset: 0x55F7D5, size: 0x8, addend: 0x0, symName: __ZN3syn5token5Brace8surround17h44f34f1ab411b35eE, symObjAddr: 0x7D80, symBinAddr: 0xF78D0, symSize: 0x150 }
  - { offsetInCU: 0x11E59, offset: 0x55FABF, size: 0x8, addend: 0x0, symName: __ZN3syn5token5Brace8surround17h4f53dfd33b0aa4c6E, symObjAddr: 0x7ED0, symBinAddr: 0xF7A20, symSize: 0x230 }
  - { offsetInCU: 0x1239E, offset: 0x560004, size: 0x8, addend: 0x0, symName: __ZN3syn5token5Brace8surround17h658cc35944b0b219E, symObjAddr: 0x8100, symBinAddr: 0xF7C50, symSize: 0x130 }
  - { offsetInCU: 0x125E1, offset: 0x560247, size: 0x8, addend: 0x0, symName: __ZN3syn5token5Brace8surround17h67ec14ac595125f5E, symObjAddr: 0x8230, symBinAddr: 0xF7D80, symSize: 0x460 }
  - { offsetInCU: 0x13216, offset: 0x560E7C, size: 0x8, addend: 0x0, symName: __ZN3syn5token5Brace8surround17h830f66792d95d6a1E, symObjAddr: 0x8690, symBinAddr: 0xF81E0, symSize: 0x190 }
  - { offsetInCU: 0x134B0, offset: 0x561116, size: 0x8, addend: 0x0, symName: __ZN3syn5token5Brace8surround17h93d6e9c0e4ef6056E, symObjAddr: 0x8820, symBinAddr: 0xF8370, symSize: 0x0 }
  - { offsetInCU: 0x139E4, offset: 0x56164A, size: 0x8, addend: 0x0, symName: __ZN3syn5token5Brace8surround17h9a2e80ca99906d35E, symObjAddr: 0x8A50, symBinAddr: 0xF85A0, symSize: 0x0 }
  - { offsetInCU: 0x13C82, offset: 0x5618E8, size: 0x8, addend: 0x0, symName: __ZN3syn5token5Brace8surround17hb0c8276345dde1c2E, symObjAddr: 0x8BD0, symBinAddr: 0xF8720, symSize: 0x1B0 }
  - { offsetInCU: 0x14175, offset: 0x561DDB, size: 0x8, addend: 0x0, symName: __ZN3syn5token5Brace8surround17hb63569a8d18b567dE, symObjAddr: 0x8D80, symBinAddr: 0xF88D0, symSize: 0x230 }
  - { offsetInCU: 0x14605, offset: 0x56226B, size: 0x8, addend: 0x0, symName: __ZN3syn5token5Brace8surround17hc53934dc4c14330eE, symObjAddr: 0x8FB0, symBinAddr: 0xF8B00, symSize: 0x460 }
  - { offsetInCU: 0x15008, offset: 0x562C6E, size: 0x8, addend: 0x0, symName: __ZN3syn5token5Brace8surround17hd5a84cf97badd42dE, symObjAddr: 0x9410, symBinAddr: 0xF8F60, symSize: 0x230 }
  - { offsetInCU: 0x1554D, offset: 0x5631B3, size: 0x8, addend: 0x0, symName: __ZN3syn5token5Brace8surround17hd63b1effe05f3546E, symObjAddr: 0x9640, symBinAddr: 0xF9190, symSize: 0x250 }
  - { offsetInCU: 0x159E6, offset: 0x56364C, size: 0x8, addend: 0x0, symName: __ZN3syn5token5Brace8surround17hdb4abaf7d4aba6dfE, symObjAddr: 0x9890, symBinAddr: 0xF93E0, symSize: 0x230 }
  - { offsetInCU: 0x15E7D, offset: 0x563AE3, size: 0x8, addend: 0x0, symName: __ZN3syn5token5Brace8surround17hdca5a0a12cc0e09cE, symObjAddr: 0x9AC0, symBinAddr: 0xF9610, symSize: 0x250 }
  - { offsetInCU: 0x1638E, offset: 0x563FF4, size: 0x8, addend: 0x0, symName: __ZN3syn5token5Brace8surround17he90b59b4e7ee997dE, symObjAddr: 0x9D10, symBinAddr: 0xF9860, symSize: 0x170 }
  - { offsetInCU: 0x16644, offset: 0x5642AA, size: 0x8, addend: 0x0, symName: __ZN3syn5token5Brace8surround17hecd06f1637cbfb86E, symObjAddr: 0x9E80, symBinAddr: 0xF99D0, symSize: 0x230 }
  - { offsetInCU: 0x16C65, offset: 0x5648CB, size: 0x8, addend: 0x0, symName: __ZN3syn5token5Brace8surround17hf04846c82ffc2b75E, symObjAddr: 0xA0B0, symBinAddr: 0xF9C00, symSize: 0x280 }
  - { offsetInCU: 0x171E7, offset: 0x564E4D, size: 0x8, addend: 0x0, symName: __ZN3syn5token7Bracket8surround17h156a64f8715fd9d7E, symObjAddr: 0xA350, symBinAddr: 0xF9E80, symSize: 0x190 }
  - { offsetInCU: 0x1743E, offset: 0x5650A4, size: 0x8, addend: 0x0, symName: __ZN3syn5token7Bracket8surround17h3268c628a093763bE, symObjAddr: 0xA4E0, symBinAddr: 0xFA010, symSize: 0x160 }
  - { offsetInCU: 0x176B1, offset: 0x565317, size: 0x8, addend: 0x0, symName: __ZN3syn5token7Bracket8surround17h59b80e5c4f1e2536E, symObjAddr: 0xA640, symBinAddr: 0xFA170, symSize: 0x1A0 }
  - { offsetInCU: 0x17B85, offset: 0x5657EB, size: 0x8, addend: 0x0, symName: __ZN3syn5token7Bracket8surround17h666da6b44b8f2314E, symObjAddr: 0xA7E0, symBinAddr: 0xFA310, symSize: 0x130 }
  - { offsetInCU: 0x17DB7, offset: 0x565A1D, size: 0x8, addend: 0x0, symName: __ZN3syn5token7Bracket8surround17he461d4c5258c6ed9E, symObjAddr: 0xAAB0, symBinAddr: 0xFA440, symSize: 0x130 }
  - { offsetInCU: 0x17FC0, offset: 0x565C26, size: 0x8, addend: 0x0, symName: __ZN3syn5token7Bracket8surround17hf2f56b7ec8e6cdfdE, symObjAddr: 0xABE0, symBinAddr: 0xFA570, symSize: 0x150 }
  - { offsetInCU: 0x182F1, offset: 0x565F57, size: 0x8, addend: 0x0, symName: __ZN3syn5token5Paren8surround17h149d374eeacaaaf0E, symObjAddr: 0xAE80, symBinAddr: 0xFA6C0, symSize: 0x360 }
  - { offsetInCU: 0x18CA6, offset: 0x56690C, size: 0x8, addend: 0x0, symName: __ZN3syn5token5Paren8surround17h17edd0d0ba5e5361E, symObjAddr: 0xB1E0, symBinAddr: 0xFAA20, symSize: 0x160 }
  - { offsetInCU: 0x18FD8, offset: 0x566C3E, size: 0x8, addend: 0x0, symName: __ZN3syn5token5Paren8surround17h2a820c17fc4ce3a7E, symObjAddr: 0xB340, symBinAddr: 0xFAB80, symSize: 0x210 }
  - { offsetInCU: 0x1953A, offset: 0x5671A0, size: 0x8, addend: 0x0, symName: __ZN3syn5token5Paren8surround17h618017ebbb591ce6E, symObjAddr: 0xB550, symBinAddr: 0xFAD90, symSize: 0x1A0 }
  - { offsetInCU: 0x19A95, offset: 0x5676FB, size: 0x8, addend: 0x0, symName: __ZN3syn5token5Paren8surround17haf0fe92dddd4f436E, symObjAddr: 0xB930, symBinAddr: 0xFAF30, symSize: 0x210 }
  - { offsetInCU: 0x19FF2, offset: 0x567C58, size: 0x8, addend: 0x0, symName: __ZN3syn5token5Paren8surround17hb26de38efb8247a2E, symObjAddr: 0xBB40, symBinAddr: 0xFB140, symSize: 0x130 }
  - { offsetInCU: 0x1A1C9, offset: 0x567E2F, size: 0x8, addend: 0x0, symName: __ZN3syn5token5Paren8surround17hb614c327a7c4effbE, symObjAddr: 0xBC70, symBinAddr: 0xFB270, symSize: 0x130 }
  - { offsetInCU: 0x1A3CD, offset: 0x568033, size: 0x8, addend: 0x0, symName: __ZN3syn5token5Paren8surround17hb72c32fa2faca43dE, symObjAddr: 0xBDA0, symBinAddr: 0xFB3A0, symSize: 0x120 }
  - { offsetInCU: 0x1A5D6, offset: 0x56823C, size: 0x8, addend: 0x0, symName: __ZN3syn5token5Paren8surround17hbc9cea44f84e7c35E, symObjAddr: 0xBEC0, symBinAddr: 0xFB4C0, symSize: 0x460 }
  - { offsetInCU: 0x1AFD9, offset: 0x568C3F, size: 0x8, addend: 0x0, symName: __ZN3syn5token5Paren8surround17hbe460fe33e1b9807E, symObjAddr: 0xC320, symBinAddr: 0xFB920, symSize: 0x1A0 }
  - { offsetInCU: 0x1B4AF, offset: 0x569115, size: 0x8, addend: 0x0, symName: __ZN3syn5token5Paren8surround17hd6561f4009004b42E, symObjAddr: 0xC660, symBinAddr: 0xFBAC0, symSize: 0x120 }
  - { offsetInCU: 0x1B6B8, offset: 0x56931E, size: 0x8, addend: 0x0, symName: __ZN3syn5token5Paren8surround17he038d9e0318c7237E, symObjAddr: 0xC780, symBinAddr: 0xFBBE0, symSize: 0x1A0 }
  - { offsetInCU: 0x1BC3F, offset: 0x5698A5, size: 0x8, addend: 0x0, symName: __ZN3syn5token5Paren8surround17he1dbac95a537a101E, symObjAddr: 0xC920, symBinAddr: 0xFBD80, symSize: 0x230 }
  - { offsetInCU: 0x1C443, offset: 0x56A0A9, size: 0x8, addend: 0x0, symName: __ZN3syn5token5Paren8surround17he21459b4274789cfE, symObjAddr: 0xCB50, symBinAddr: 0xFBFB0, symSize: 0x27B0 }
  - { offsetInCU: 0x21F28, offset: 0x56FB8E, size: 0x8, addend: 0x0, symName: __ZN3syn5token5Paren8surround17hf739ea3e87afa242E, symObjAddr: 0xF300, symBinAddr: 0xFE760, symSize: 0x260 }
  - { offsetInCU: 0x225FC, offset: 0x570262, size: 0x8, addend: 0x0, symName: __ZN3syn5token5Paren8surround17hfdecddc10755409eE, symObjAddr: 0xF560, symBinAddr: 0xFE9C0, symSize: 0x18F }
  - { offsetInCU: 0x137A, offset: 0x578F23, size: 0x8, addend: 0x0, symName: '__ZN77_$LT$$RF$$u5b$syn..attr..Attribute$u5d$$u20$as$u20$syn..attr..FilterAttrs$GT$5outer8is_outer17h05806f843d7deec4E.llvm.6340778183057508401', symObjAddr: 0x7D20, symBinAddr: 0x105DF0, symSize: 0x20 }
  - { offsetInCU: 0x2116, offset: 0x579CBF, size: 0x8, addend: 0x0, symName: '__ZN3syn2ty8printing78_$LT$impl$u20$quote..to_tokens..ToTokens$u20$for$u20$syn..ty..BareVariadic$GT$9to_tokens17ha9341a662464f4c2E', symObjAddr: 0xBF20, symBinAddr: 0x108130, symSize: 0x150 }
  - { offsetInCU: 0x23C8, offset: 0x579F71, size: 0x8, addend: 0x0, symName: '__ZN3syn2ty7parsing61_$LT$impl$u20$syn..parse..Parse$u20$for$u20$syn..ty..Type$GT$5parse17h889cc5bfbc020ab2E', symObjAddr: 0x7D40, symBinAddr: 0x105E10, symSize: 0x30 }
  - { offsetInCU: 0x244E, offset: 0x579FF7, size: 0x8, addend: 0x0, symName: '__ZN3syn2ty7parsing64_$LT$impl$u20$syn..parse..Parse$u20$for$u20$syn..ty..TypePtr$GT$5parse17h812b205086cf1413E', symObjAddr: 0x85B0, symBinAddr: 0x105E40, symSize: 0x460 }
  - { offsetInCU: 0x3079, offset: 0x57AC22, size: 0x8, addend: 0x0, symName: '__ZN3syn2ty7parsing70_$LT$impl$u20$syn..parse..Parse$u20$for$u20$syn..ty..TypeReference$GT$5parse17h328046432bc63490E', symObjAddr: 0x8A10, symBinAddr: 0x1062A0, symSize: 0x3E0 }
  - { offsetInCU: 0x37FD, offset: 0x57B3A6, size: 0x8, addend: 0x0, symName: '__ZN3syn2ty7parsing67_$LT$impl$u20$syn..parse..Parse$u20$for$u20$syn..ty..TypeBareFn$GT$5parse17h38aebc87a74f9b4cE', symObjAddr: 0x8DF0, symBinAddr: 0x106680, symSize: 0xE10 }
  - { offsetInCU: 0x4AF3, offset: 0x57C69C, size: 0x8, addend: 0x0, symName: '__ZN3syn2ty7parsing66_$LT$impl$u20$syn..parse..Parse$u20$for$u20$syn..ty..TypeNever$GT$5parse17h5e83694d4dbbe60bE', symObjAddr: 0x9C00, symBinAddr: 0x107490, symSize: 0x50 }
  - { offsetInCU: 0x4BA1, offset: 0x57C74A, size: 0x8, addend: 0x0, symName: '__ZN3syn2ty7parsing72_$LT$impl$u20$syn..parse..Parse$u20$for$u20$syn..ty..TypeTraitObject$GT$5parse17h26a0300cf5800a6aE', symObjAddr: 0xA600, symBinAddr: 0x1076A0, symSize: 0x1B0 }
  - { offsetInCU: 0x51E4, offset: 0x57CD8D, size: 0x8, addend: 0x0, symName: '__ZN3syn2ty7parsing66_$LT$impl$u20$syn..parse..Parse$u20$for$u20$syn..ty..TypeGroup$GT$5parse17h39a20901238debb2E', symObjAddr: 0xAFD0, symBinAddr: 0x107E90, symSize: 0x2A0 }
  - { offsetInCU: 0x5762, offset: 0x57D30B, size: 0x8, addend: 0x0, symName: '__ZN60_$LT$syn..ty..Type$u20$as$u20$quote..to_tokens..ToTokens$GT$9to_tokens17hb94ae3e2d75fc0b3E', symObjAddr: 0xC110, symBinAddr: 0x108280, symSize: 0xA30 }
  - { offsetInCU: 0x9B29, offset: 0x5816D2, size: 0x8, addend: 0x0, symName: '__ZN3syn3gen5clone67_$LT$impl$u20$core..clone..Clone$u20$for$u20$syn..ty..BareFnArg$GT$5clone17hbf21853b379f8c0dE', symObjAddr: 0xCB70, symBinAddr: 0x108CB0, symSize: 0x140 }
  - { offsetInCU: 0x9FD3, offset: 0x581B7C, size: 0x8, addend: 0x0, symName: '__ZN3syn3gen5clone62_$LT$impl$u20$core..clone..Clone$u20$for$u20$syn..ty..Type$GT$5clone17h43a77bdbcaae263dE', symObjAddr: 0xCE20, symBinAddr: 0x108DF0, symSize: 0x8C0 }
  - { offsetInCU: 0xBA6E, offset: 0x583617, size: 0x8, addend: 0x0, symName: '__ZN3syn3gen5clone68_$LT$impl$u20$core..clone..Clone$u20$for$u20$syn..ty..TypeBareFn$GT$5clone17h442a28b9c76fb2abE', symObjAddr: 0xD7F0, symBinAddr: 0x1096B0, symSize: 0x490 }
  - { offsetInCU: 0xEA08, offset: 0x5865B1, size: 0x8, addend: 0x0, symName: '__ZN4core3ptr100drop_in_place$LT$core..option..Option$LT$alloc..boxed..Box$LT$syn..path..GenericArgument$GT$$GT$$GT$17h7435c9de74860622E', symObjAddr: 0x150, symBinAddr: 0xFEB50, symSize: 0x50 }
  - { offsetInCU: 0xEDA8, offset: 0x586951, size: 0x8, addend: 0x0, symName: '__ZN4core3ptr100drop_in_place$LT$syn..punctuated..Punctuated$LT$syn..path..PathSegment$C$syn..token..PathSep$GT$$GT$17hf414cb3581f8337aE', symObjAddr: 0x1A0, symBinAddr: 0xFEBA0, symSize: 0x260 }
  - { offsetInCU: 0xF741, offset: 0x5872EA, size: 0x8, addend: 0x0, symName: '__ZN4core3ptr103drop_in_place$LT$core..option..Option$LT$alloc..boxed..Box$LT$syn..generics..TypeParamBound$GT$$GT$$GT$17h5974f03e36b1a9c3E', symObjAddr: 0x400, symBinAddr: 0xFEE00, symSize: 0x50 }
  - { offsetInCU: 0xF94E, offset: 0x5874F7, size: 0x8, addend: 0x0, symName: '__ZN4core3ptr103drop_in_place$LT$syn..punctuated..Punctuated$LT$syn..generics..GenericParam$C$syn..token..Comma$GT$$GT$17hf42353fa44ed6da8E', symObjAddr: 0x450, symBinAddr: 0xFEE50, symSize: 0xF0 }
  - { offsetInCU: 0xFE11, offset: 0x5879BA, size: 0x8, addend: 0x0, symName: '__ZN4core3ptr104drop_in_place$LT$syn..punctuated..Punctuated$LT$syn..generics..TypeParamBound$C$syn..token..Plus$GT$$GT$17h532f52c4a894b056E', symObjAddr: 0x540, symBinAddr: 0xFEF40, symSize: 0x190 }
  - { offsetInCU: 0x10484, offset: 0x58802D, size: 0x8, addend: 0x0, symName: '__ZN4core3ptr34drop_in_place$LT$syn..lit..Lit$GT$17h8902f5ff67917034E', symObjAddr: 0x6D0, symBinAddr: 0xFF0D0, symSize: 0x110 }
  - { offsetInCU: 0x109DD, offset: 0x588586, size: 0x8, addend: 0x0, symName: '__ZN4core3ptr34drop_in_place$LT$syn..pat..Pat$GT$17h4581eea028ec0969E', symObjAddr: 0x7E0, symBinAddr: 0xFF1E0, symSize: 0x1000 }
  - { offsetInCU: 0x14502, offset: 0x58C0AB, size: 0x8, addend: 0x0, symName: '__ZN4core3ptr34drop_in_place$LT$syn..ty..Type$GT$17h369e41ad4a9f1ae0E.llvm.6340778183057508401', symObjAddr: 0x17E0, symBinAddr: 0x1001E0, symSize: 0x500 }
  - { offsetInCU: 0x15A6B, offset: 0x58D614, size: 0x8, addend: 0x0, symName: '__ZN4core3ptr36drop_in_place$LT$syn..expr..Expr$GT$17h0f7fd4c749bae801E', symObjAddr: 0x1CF0, symBinAddr: 0x1006E0, symSize: 0x28E0 }
  - { offsetInCU: 0x1EEFD, offset: 0x596AA6, size: 0x8, addend: 0x0, symName: '__ZN4core3ptr36drop_in_place$LT$syn..mac..Macro$GT$17h4ffde962df30ebe2E', symObjAddr: 0x45D0, symBinAddr: 0x102FC0, symSize: 0x40 }
  - { offsetInCU: 0x1EF37, offset: 0x596AE0, size: 0x8, addend: 0x0, symName: '__ZN4core3ptr36drop_in_place$LT$syn..path..Path$GT$17habea856181211e1cE', symObjAddr: 0x4610, symBinAddr: 0x103000, symSize: 0x220 }
  - { offsetInCU: 0x1F86C, offset: 0x597415, size: 0x8, addend: 0x0, symName: '__ZN4core3ptr37drop_in_place$LT$syn..stmt..Block$GT$17hcc21a21cf949414cE', symObjAddr: 0x4840, symBinAddr: 0x103220, symSize: 0xD0 }
  - { offsetInCU: 0x1FB10, offset: 0x5976B9, size: 0x8, addend: 0x0, symName: '__ZN4core3ptr38drop_in_place$LT$syn..expr..Member$GT$17h022cbe5553aa40faE', symObjAddr: 0x4910, symBinAddr: 0x1032F0, symSize: 0x30 }
  - { offsetInCU: 0x1FCA8, offset: 0x597851, size: 0x8, addend: 0x0, symName: '__ZN4core3ptr38drop_in_place$LT$syn..group..Group$GT$17hc3a29a397b30f633E.llvm.6340778183057508401', symObjAddr: 0x4940, symBinAddr: 0x103320, symSize: 0x70 }
  - { offsetInCU: 0x1FFBE, offset: 0x597B67, size: 0x8, addend: 0x0, symName: '__ZN4core3ptr39drop_in_place$LT$proc_macro2..Ident$GT$17h8101e88c3ac359d6E', symObjAddr: 0x49B0, symBinAddr: 0x103390, symSize: 0x30 }
  - { offsetInCU: 0x2009C, offset: 0x597C45, size: 0x8, addend: 0x0, symName: '__ZN4core3ptr40drop_in_place$LT$syn..ty..ReturnType$GT$17h02cf41e2fec63d90E', symObjAddr: 0x49E0, symBinAddr: 0x1033C0, symSize: 0x50 }
  - { offsetInCU: 0x2020E, offset: 0x597DB7, size: 0x8, addend: 0x0, symName: '__ZN4core3ptr41drop_in_place$LT$syn..expr..ExprConst$GT$17h725a13e551d9f276E', symObjAddr: 0x4A30, symBinAddr: 0x103410, symSize: 0x180 }
  - { offsetInCU: 0x20763, offset: 0x59830C, size: 0x8, addend: 0x0, symName: '__ZN4core3ptr44drop_in_place$LT$syn..lifetime..Lifetime$GT$17hf0cdec2e9ec456d6E', symObjAddr: 0x4BB0, symBinAddr: 0x103590, symSize: 0x30 }
  - { offsetInCU: 0x20860, offset: 0x598409, size: 0x8, addend: 0x0, symName: '__ZN4core3ptr44drop_in_place$LT$syn..parse..ParseBuffer$GT$17hd0dadba44a19aec2E', symObjAddr: 0x4BE0, symBinAddr: 0x1035C0, symSize: 0x70 }
  - { offsetInCU: 0x20C95, offset: 0x59883E, size: 0x8, addend: 0x0, symName: '__ZN4core3ptr45drop_in_place$LT$proc_macro2..TokenStream$GT$17h3405f6c513e9f6cbE.llvm.6340778183057508401', symObjAddr: 0x4C50, symBinAddr: 0x103630, symSize: 0x140 }
  - { offsetInCU: 0x21104, offset: 0x598CAD, size: 0x8, addend: 0x0, symName: '__ZN4core3ptr45drop_in_place$LT$syn..generics..TypeParam$GT$17he5eda51070b7de47E', symObjAddr: 0x4D90, symBinAddr: 0x103770, symSize: 0x230 }
  - { offsetInCU: 0x21900, offset: 0x5994A9, size: 0x8, addend: 0x0, symName: '__ZN4core3ptr46drop_in_place$LT$syn..generics..ConstParam$GT$17hab0a58c4af8c549cE', symObjAddr: 0x4FC0, symBinAddr: 0x1039A0, symSize: 0x150 }
  - { offsetInCU: 0x21D2A, offset: 0x5998D3, size: 0x8, addend: 0x0, symName: '__ZN4core3ptr47drop_in_place$LT$syn..path..GenericArgument$GT$17h54f8794633f96823E', symObjAddr: 0x5110, symBinAddr: 0x103AF0, symSize: 0x4A0 }
  - { offsetInCU: 0x22DD1, offset: 0x59A97A, size: 0x8, addend: 0x0, symName: '__ZN4core3ptr49drop_in_place$LT$syn..generics..LifetimeParam$GT$17h41a7c7a290ea6289E', symObjAddr: 0x55B0, symBinAddr: 0x103F90, symSize: 0xF0 }
  - { offsetInCU: 0x2318B, offset: 0x59AD34, size: 0x8, addend: 0x0, symName: '__ZN4core3ptr50drop_in_place$LT$syn..generics..TypeParamBound$GT$17hcd7771d4c6c221efE', symObjAddr: 0x56A0, symBinAddr: 0x104080, symSize: 0x160 }
  - { offsetInCU: 0x235AB, offset: 0x59B154, size: 0x8, addend: 0x0, symName: '__ZN4core3ptr58drop_in_place$LT$alloc..vec..Vec$LT$syn..expr..Arm$GT$$GT$17h1a55df3d2cba1daaE', symObjAddr: 0x5800, symBinAddr: 0x1041E0, symSize: 0xD0 }
  - { offsetInCU: 0x23838, offset: 0x59B3E1, size: 0x8, addend: 0x0, symName: '__ZN4core3ptr59drop_in_place$LT$alloc..boxed..Box$LT$syn..pat..Pat$GT$$GT$17h563b135d87aca8abE', symObjAddr: 0x58D0, symBinAddr: 0x1042B0, symSize: 0x50 }
  - { offsetInCU: 0x23993, offset: 0x59B53C, size: 0x8, addend: 0x0, symName: '__ZN4core3ptr59drop_in_place$LT$alloc..boxed..Box$LT$syn..ty..Type$GT$$GT$17hffed36bad83adacbE', symObjAddr: 0x5920, symBinAddr: 0x104300, symSize: 0x50 }
  - { offsetInCU: 0x23AEE, offset: 0x59B697, size: 0x8, addend: 0x0, symName: '__ZN4core3ptr61drop_in_place$LT$alloc..boxed..Box$LT$syn..expr..Expr$GT$$GT$17h01091e47f131475dE', symObjAddr: 0x5970, symBinAddr: 0x104350, symSize: 0x50 }
  - { offsetInCU: 0x23CC5, offset: 0x59B86E, size: 0x8, addend: 0x0, symName: '__ZN4core3ptr61drop_in_place$LT$syn..path..ParenthesizedGenericArguments$GT$17h43d4aac5494326a7E', symObjAddr: 0x5A30, symBinAddr: 0x1043A0, symSize: 0x170 }
  - { offsetInCU: 0x2428C, offset: 0x59BE35, size: 0x8, addend: 0x0, symName: '__ZN4core3ptr62drop_in_place$LT$syn..path..AngleBracketedGenericArguments$GT$17hc5b69f68243636ddE', symObjAddr: 0x5BA0, symBinAddr: 0x104510, symSize: 0x120 }
  - { offsetInCU: 0x246A2, offset: 0x59C24B, size: 0x8, addend: 0x0, symName: '__ZN4core3ptr63drop_in_place$LT$alloc..boxed..Box$LT$syn..lit..LitRepr$GT$$GT$17hd8839b7fb35ee7afE', symObjAddr: 0x5CC0, symBinAddr: 0x104630, symSize: 0x60 }
  - { offsetInCU: 0x24997, offset: 0x59C540, size: 0x8, addend: 0x0, symName: '__ZN4core3ptr64drop_in_place$LT$alloc..boxed..Box$LT$syn..pat..FieldPat$GT$$GT$17h4980b70a7597cc08E', symObjAddr: 0x5D20, symBinAddr: 0x104690, symSize: 0x140 }
  - { offsetInCU: 0x25042, offset: 0x59CBEB, size: 0x8, addend: 0x0, symName: '__ZN4core3ptr64drop_in_place$LT$alloc..boxed..Box$LT$syn..ty..BareFnArg$GT$$GT$17h8b34096c620314efE', symObjAddr: 0x5E60, symBinAddr: 0x1047D0, symSize: 0x140 }
  - { offsetInCU: 0x25566, offset: 0x59D10F, size: 0x8, addend: 0x0, symName: '__ZN4core3ptr64drop_in_place$LT$alloc..vec..Vec$LT$syn..attr..Attribute$GT$$GT$17h3c8f2a04e701c675E.llvm.6340778183057508401', symObjAddr: 0x5FA0, symBinAddr: 0x104910, symSize: 0xD0 }
  - { offsetInCU: 0x257F3, offset: 0x59D39C, size: 0x8, addend: 0x0, symName: '__ZN4core3ptr65drop_in_place$LT$core..option..Option$LT$syn..expr..Label$GT$$GT$17h78189e72a8cb7951E', symObjAddr: 0x6070, symBinAddr: 0x1049E0, symSize: 0x30 }
  - { offsetInCU: 0x2592E, offset: 0x59D4D7, size: 0x8, addend: 0x0, symName: '__ZN4core3ptr65drop_in_place$LT$core..option..Option$LT$syn..path..QSelf$GT$$GT$17h9b72552ca06b7379E', symObjAddr: 0x6100, symBinAddr: 0x104A10, symSize: 0x50 }
  - { offsetInCU: 0x25AC7, offset: 0x59D670, size: 0x8, addend: 0x0, symName: '__ZN4core3ptr66drop_in_place$LT$core..option..Option$LT$syn..pat..PatRest$GT$$GT$17h61677cf4ff3a7393E', symObjAddr: 0x6150, symBinAddr: 0x104A60, symSize: 0xE0 }
  - { offsetInCU: 0x25D4B, offset: 0x59D8F4, size: 0x8, addend: 0x0, symName: '__ZN4core3ptr67drop_in_place$LT$alloc..boxed..Box$LT$syn..expr..FieldValue$GT$$GT$17h93aaccf8aa22ef88E', symObjAddr: 0x6230, symBinAddr: 0x104B40, symSize: 0x140 }
  - { offsetInCU: 0x2624F, offset: 0x59DDF8, size: 0x8, addend: 0x0, symName: '__ZN4core3ptr68drop_in_place$LT$alloc..boxed..Box$LT$syn..path..PathSegment$GT$$GT$17h709dabdc13b58a71E', symObjAddr: 0x6370, symBinAddr: 0x104C80, symSize: 0x190 }
  - { offsetInCU: 0x2692D, offset: 0x59E4D6, size: 0x8, addend: 0x0, symName: '__ZN4core3ptr70drop_in_place$LT$core..option..Option$LT$syn..ty..BareVariadic$GT$$GT$17h45399348ea4b8d55E', symObjAddr: 0x6500, symBinAddr: 0x104E10, symSize: 0x120 }
  - { offsetInCU: 0x26E5A, offset: 0x59EA03, size: 0x8, addend: 0x0, symName: '__ZN4core3ptr72drop_in_place$LT$alloc..boxed..Box$LT$syn..path..GenericArgument$GT$$GT$17haa7dd8b716637b54E', symObjAddr: 0x6620, symBinAddr: 0x104F30, symSize: 0x1D0 }
  - { offsetInCU: 0x273FD, offset: 0x59EFA6, size: 0x8, addend: 0x0, symName: '__ZN4core3ptr73drop_in_place$LT$alloc..boxed..Box$LT$syn..generics..GenericParam$GT$$GT$17hf6951dcd5ae07324E', symObjAddr: 0x67F0, symBinAddr: 0x105100, symSize: 0x80 }
  - { offsetInCU: 0x27575, offset: 0x59F11E, size: 0x8, addend: 0x0, symName: '__ZN4core3ptr75drop_in_place$LT$alloc..boxed..Box$LT$syn..generics..TypeParamBound$GT$$GT$17he61c00698a311a34E', symObjAddr: 0x6870, symBinAddr: 0x105180, symSize: 0xB0 }
  - { offsetInCU: 0x278D0, offset: 0x59F479, size: 0x8, addend: 0x0, symName: '__ZN4core3ptr86drop_in_place$LT$syn..punctuated..Punctuated$LT$syn..pat..Pat$C$syn..token..Or$GT$$GT$17h8e9173df21a44316E', symObjAddr: 0x6940, symBinAddr: 0x105230, symSize: 0x120 }
  - { offsetInCU: 0x27D16, offset: 0x59F8BF, size: 0x8, addend: 0x0, symName: '__ZN4core3ptr87drop_in_place$LT$core..option..Option$LT$alloc..boxed..Box$LT$syn..pat..Pat$GT$$GT$$GT$17hd7b7c69f601b3926E', symObjAddr: 0x6A60, symBinAddr: 0x105350, symSize: 0x50 }
  - { offsetInCU: 0x27E88, offset: 0x59FA31, size: 0x8, addend: 0x0, symName: '__ZN4core3ptr87drop_in_place$LT$core..option..Option$LT$alloc..boxed..Box$LT$syn..ty..Type$GT$$GT$$GT$17hd74f5d971aec2972E', symObjAddr: 0x6AB0, symBinAddr: 0x1053A0, symSize: 0x50 }
  - { offsetInCU: 0x27FFA, offset: 0x59FBA3, size: 0x8, addend: 0x0, symName: '__ZN4core3ptr89drop_in_place$LT$core..option..Option$LT$alloc..boxed..Box$LT$syn..expr..Expr$GT$$GT$$GT$17h8e135ac1a25a2dc5E', symObjAddr: 0x6B00, symBinAddr: 0x1053F0, symSize: 0x50 }
  - { offsetInCU: 0x281AA, offset: 0x59FD53, size: 0x8, addend: 0x0, symName: '__ZN4core3ptr89drop_in_place$LT$syn..punctuated..Punctuated$LT$syn..pat..Pat$C$syn..token..Comma$GT$$GT$17h8d60e47f3fb1f87aE', symObjAddr: 0x6B50, symBinAddr: 0x105440, symSize: 0x120 }
  - { offsetInCU: 0x28607, offset: 0x5A01B0, size: 0x8, addend: 0x0, symName: '__ZN4core3ptr89drop_in_place$LT$syn..punctuated..Punctuated$LT$syn..ty..Type$C$syn..token..Comma$GT$$GT$17ha919b3114742fb9dE', symObjAddr: 0x6C70, symBinAddr: 0x105560, symSize: 0x120 }
  - { offsetInCU: 0x28A51, offset: 0x5A05FA, size: 0x8, addend: 0x0, symName: '__ZN4core3ptr90drop_in_place$LT$core..option..Option$LT$syn..path..AngleBracketedGenericArguments$GT$$GT$17h80d9a5f0818c8bd9E', symObjAddr: 0x6D90, symBinAddr: 0x105680, symSize: 0x130 }
  - { offsetInCU: 0x28EBC, offset: 0x5A0A65, size: 0x8, addend: 0x0, symName: '__ZN4core3ptr91drop_in_place$LT$syn..punctuated..Punctuated$LT$syn..expr..Expr$C$syn..token..Comma$GT$$GT$17h4f39b83dc86a4159E', symObjAddr: 0x6EC0, symBinAddr: 0x1057B0, symSize: 0x120 }
  - { offsetInCU: 0x29319, offset: 0x5A0EC2, size: 0x8, addend: 0x0, symName: '__ZN4core3ptr94drop_in_place$LT$syn..punctuated..Punctuated$LT$syn..pat..FieldPat$C$syn..token..Comma$GT$$GT$17h112950ea198c8281E', symObjAddr: 0x6FE0, symBinAddr: 0x1058D0, symSize: 0xF0 }
  - { offsetInCU: 0x295E3, offset: 0x5A118C, size: 0x8, addend: 0x0, symName: '__ZN4core3ptr94drop_in_place$LT$syn..punctuated..Punctuated$LT$syn..ty..BareFnArg$C$syn..token..Comma$GT$$GT$17h1c7b44310f06243dE', symObjAddr: 0x70D0, symBinAddr: 0x1059C0, symSize: 0xF0 }
  - { offsetInCU: 0x298AD, offset: 0x5A1456, size: 0x8, addend: 0x0, symName: '__ZN4core3ptr95drop_in_place$LT$core..option..Option$LT$$LP$proc_macro2..Ident$C$syn..token..Colon$RP$$GT$$GT$17ha744bf0f41959716E.llvm.6340778183057508401', symObjAddr: 0x71C0, symBinAddr: 0x105AB0, symSize: 0x30 }
  - { offsetInCU: 0x299C9, offset: 0x5A1572, size: 0x8, addend: 0x0, symName: '__ZN4core3ptr96drop_in_place$LT$core..option..Option$LT$alloc..boxed..Box$LT$syn..path..PathSegment$GT$$GT$$GT$17hb447d0f626c86a4eE', symObjAddr: 0x71F0, symBinAddr: 0x105AE0, symSize: 0x90 }
  - { offsetInCU: 0x29C4B, offset: 0x5A17F4, size: 0x8, addend: 0x0, symName: '__ZN4core3ptr97drop_in_place$LT$syn..punctuated..Punctuated$LT$syn..expr..FieldValue$C$syn..token..Comma$GT$$GT$17h31b81f7462228dcbE', symObjAddr: 0x7280, symBinAddr: 0x105B70, symSize: 0xF0 }
  - { offsetInCU: 0x29F15, offset: 0x5A1ABE, size: 0x8, addend: 0x0, symName: '__ZN4core3ptr98drop_in_place$LT$alloc..vec..Vec$LT$$LP$syn..path..GenericArgument$C$syn..token..Comma$RP$$GT$$GT$17h0657ff261f33b640E', symObjAddr: 0x7370, symBinAddr: 0x105C60, symSize: 0xD0 }
  - { offsetInCU: 0x2A21E, offset: 0x5A1DC7, size: 0x8, addend: 0x0, symName: '__ZN4core3ptr98drop_in_place$LT$syn..punctuated..Punctuated$LT$syn..lifetime..Lifetime$C$syn..token..Plus$GT$$GT$17h0f8fc5f20f465f47E', symObjAddr: 0x7440, symBinAddr: 0x105D30, symSize: 0xC0 }
  - { offsetInCU: 0x31D9F, offset: 0x5A9948, size: 0x8, addend: 0x0, symName: '__ZN3syn2ty7parsing37_$LT$impl$u20$syn..ty..ReturnType$GT$5parse17he324a0d79314d8d8E.llvm.6340778183057508401', symObjAddr: 0xA420, symBinAddr: 0x1074E0, symSize: 0x1C0 }
  - { offsetInCU: 0x322B6, offset: 0x5A9E5F, size: 0x8, addend: 0x0, symName: '__ZN3syn2ty7parsing42_$LT$impl$u20$syn..ty..TypeTraitObject$GT$12parse_bounds17hef91dc1b8f27672eE', symObjAddr: 0xA950, symBinAddr: 0x107850, symSize: 0x2F0 }
  - { offsetInCU: 0x3297B, offset: 0x5AA524, size: 0x8, addend: 0x0, symName: '__ZN3syn2ty7parsing40_$LT$impl$u20$syn..ty..TypeImplTrait$GT$5parse17hd7958562640d7c66E', symObjAddr: 0xAC80, symBinAddr: 0x107B40, symSize: 0x350 }
  - { offsetInCU: 0xE0A, offset: 0x5B2964, size: 0x8, addend: 0x0, symName: '__ZN3syn3pat8printing75_$LT$impl$u20$quote..to_tokens..ToTokens$u20$for$u20$syn..pat..PatIdent$GT$9to_tokens17h348ed871f50ef358E', symObjAddr: 0x8BC0, symBinAddr: 0x111B60, symSize: 0x200 }
  - { offsetInCU: 0x1390, offset: 0x5B2EEA, size: 0x8, addend: 0x0, symName: '__ZN3syn3pat8printing74_$LT$impl$u20$quote..to_tokens..ToTokens$u20$for$u20$syn..pat..PatRest$GT$9to_tokens17hbab31be22b0a07a1E', symObjAddr: 0x9180, symBinAddr: 0x111D60, symSize: 0xF0 }
  - { offsetInCU: 0x1661, offset: 0x5B31BB, size: 0x8, addend: 0x0, symName: '__ZN3syn3pat8printing74_$LT$impl$u20$quote..to_tokens..ToTokens$u20$for$u20$syn..pat..PatType$GT$9to_tokens17h413fc48f12d68c5eE', symObjAddr: 0x9610, symBinAddr: 0x111E50, symSize: 0x100 }
  - { offsetInCU: 0x18FA, offset: 0x5B3454, size: 0x8, addend: 0x0, symName: '__ZN60_$LT$syn..pat..Pat$u20$as$u20$quote..to_tokens..ToTokens$GT$9to_tokens17hd89cff4ed8404be9E', symObjAddr: 0x9960, symBinAddr: 0x111F50, symSize: 0xDC0 }
  - { offsetInCU: 0x3D25, offset: 0x5B587F, size: 0x8, addend: 0x0, symName: '__ZN77_$LT$$RF$$u5b$syn..attr..Attribute$u5d$$u20$as$u20$syn..attr..FilterAttrs$GT$5outer8is_outer17h05806f843d7deec4E.llvm.16708040419612450194', symObjAddr: 0x75A0, symBinAddr: 0x1109D0, symSize: 0x20 }
  - { offsetInCU: 0x7653, offset: 0x5B91AD, size: 0x8, addend: 0x0, symName: '__ZN3syn3gen5clone67_$LT$impl$u20$core..clone..Clone$u20$for$u20$syn..pat..FieldPat$GT$5clone17h554250375942a4a5E', symObjAddr: 0xA720, symBinAddr: 0x112D10, symSize: 0x180 }
  - { offsetInCU: 0x7C8E, offset: 0x5B97E8, size: 0x8, addend: 0x0, symName: '__ZN3syn3gen5clone66_$LT$impl$u20$core..clone..Clone$u20$for$u20$syn..pat..PatType$GT$5clone17h3c0c450348e02b94E', symObjAddr: 0xC120, symBinAddr: 0x114380, symSize: 0x170 }
  - { offsetInCU: 0x81A5, offset: 0x5B9CFF, size: 0x8, addend: 0x0, symName: '__ZN3syn3gen5clone62_$LT$impl$u20$core..clone..Clone$u20$for$u20$syn..pat..Pat$GT$5clone17h09eb0d2ca566db48E', symObjAddr: 0xA8A0, symBinAddr: 0x112E90, symSize: 0xCB0 }
  - { offsetInCU: 0x99FF, offset: 0x5BB559, size: 0x8, addend: 0x0, symName: '__ZN3syn3gen5clone67_$LT$impl$u20$core..clone..Clone$u20$for$u20$syn..pat..PatIdent$GT$5clone17h798d2bf2d3132ef3E', symObjAddr: 0xB550, symBinAddr: 0x113B40, symSize: 0x1A0 }
  - { offsetInCU: 0x9EFE, offset: 0x5BBA58, size: 0x8, addend: 0x0, symName: '__ZN3syn3gen5clone68_$LT$impl$u20$core..clone..Clone$u20$for$u20$syn..pat..PatStruct$GT$5clone17h2daee392d264362dE', symObjAddr: 0xBA80, symBinAddr: 0x113CE0, symSize: 0x3D0 }
  - { offsetInCU: 0xA59D, offset: 0x5BC0F7, size: 0x8, addend: 0x0, symName: '__ZN3syn3gen5clone73_$LT$impl$u20$core..clone..Clone$u20$for$u20$syn..pat..PatTupleStruct$GT$5clone17hcb5aab059582244bE', symObjAddr: 0xBE50, symBinAddr: 0x1140B0, symSize: 0x2D0 }
  - { offsetInCU: 0xC879, offset: 0x5BE3D3, size: 0x8, addend: 0x0, symName: '__ZN4core3ptr100drop_in_place$LT$core..option..Option$LT$alloc..boxed..Box$LT$syn..path..GenericArgument$GT$$GT$$GT$17h7435c9de74860622E', symObjAddr: 0x80, symBinAddr: 0x109B40, symSize: 0x50 }
  - { offsetInCU: 0xCC19, offset: 0x5BE773, size: 0x8, addend: 0x0, symName: '__ZN4core3ptr100drop_in_place$LT$syn..punctuated..Punctuated$LT$syn..path..PathSegment$C$syn..token..PathSep$GT$$GT$17hf414cb3581f8337aE', symObjAddr: 0xD0, symBinAddr: 0x109B90, symSize: 0x260 }
  - { offsetInCU: 0xD593, offset: 0x5BF0ED, size: 0x8, addend: 0x0, symName: '__ZN4core3ptr102drop_in_place$LT$syn..punctuated..Punctuated$LT$syn..path..GenericArgument$C$syn..token..Comma$GT$$GT$17h39496ba4e6dba6cfE', symObjAddr: 0x330, symBinAddr: 0x109DF0, symSize: 0xF0 }
  - { offsetInCU: 0xD87C, offset: 0x5BF3D6, size: 0x8, addend: 0x0, symName: '__ZN4core3ptr103drop_in_place$LT$core..option..Option$LT$alloc..boxed..Box$LT$syn..generics..TypeParamBound$GT$$GT$$GT$17h5974f03e36b1a9c3E', symObjAddr: 0x420, symBinAddr: 0x109EE0, symSize: 0x50 }
  - { offsetInCU: 0xDA89, offset: 0x5BF5E3, size: 0x8, addend: 0x0, symName: '__ZN4core3ptr103drop_in_place$LT$syn..punctuated..Punctuated$LT$syn..generics..GenericParam$C$syn..token..Comma$GT$$GT$17hf42353fa44ed6da8E', symObjAddr: 0x470, symBinAddr: 0x109F30, symSize: 0xF0 }
  - { offsetInCU: 0xDF6B, offset: 0x5BFAC5, size: 0x8, addend: 0x0, symName: '__ZN4core3ptr104drop_in_place$LT$syn..punctuated..Punctuated$LT$syn..generics..TypeParamBound$C$syn..token..Plus$GT$$GT$17h532f52c4a894b056E', symObjAddr: 0x560, symBinAddr: 0x10A020, symSize: 0x230 }
  - { offsetInCU: 0xE887, offset: 0x5C03E1, size: 0x8, addend: 0x0, symName: '__ZN4core3ptr34drop_in_place$LT$syn..lit..Lit$GT$17h8902f5ff67917034E', symObjAddr: 0x7E0, symBinAddr: 0x10A250, symSize: 0x110 }
  - { offsetInCU: 0xED83, offset: 0x5C08DD, size: 0x8, addend: 0x0, symName: '__ZN4core3ptr34drop_in_place$LT$syn..pat..Pat$GT$17h4581eea028ec0969E.llvm.16708040419612450194', symObjAddr: 0x8F0, symBinAddr: 0x10A360, symSize: 0xFF0 }
  - { offsetInCU: 0x128A8, offset: 0x5C4402, size: 0x8, addend: 0x0, symName: '__ZN4core3ptr34drop_in_place$LT$syn..ty..Type$GT$17h369e41ad4a9f1ae0E', symObjAddr: 0x18E0, symBinAddr: 0x10B350, symSize: 0x460 }
  - { offsetInCU: 0x13B3A, offset: 0x5C5694, size: 0x8, addend: 0x0, symName: '__ZN4core3ptr36drop_in_place$LT$syn..expr..Expr$GT$17h0f7fd4c749bae801E', symObjAddr: 0x1D40, symBinAddr: 0x10B7B0, symSize: 0x2770 }
  - { offsetInCU: 0x1CA6C, offset: 0x5CE5C6, size: 0x8, addend: 0x0, symName: '__ZN4core3ptr36drop_in_place$LT$syn..mac..Macro$GT$17h4ffde962df30ebe2E', symObjAddr: 0x44B0, symBinAddr: 0x10DF20, symSize: 0x40 }
  - { offsetInCU: 0x1CAA6, offset: 0x5CE600, size: 0x8, addend: 0x0, symName: '__ZN4core3ptr36drop_in_place$LT$syn..path..Path$GT$17habea856181211e1cE', symObjAddr: 0x44F0, symBinAddr: 0x10DF60, symSize: 0x220 }
  - { offsetInCU: 0x1D3DB, offset: 0x5CEF35, size: 0x8, addend: 0x0, symName: '__ZN4core3ptr37drop_in_place$LT$syn..stmt..Block$GT$17hcc21a21cf949414cE', symObjAddr: 0x4710, symBinAddr: 0x10E180, symSize: 0xD0 }
  - { offsetInCU: 0x1D67F, offset: 0x5CF1D9, size: 0x8, addend: 0x0, symName: '__ZN4core3ptr38drop_in_place$LT$syn..expr..Member$GT$17h022cbe5553aa40faE.llvm.16708040419612450194', symObjAddr: 0x47E0, symBinAddr: 0x10E250, symSize: 0x30 }
  - { offsetInCU: 0x1D77C, offset: 0x5CF2D6, size: 0x8, addend: 0x0, symName: '__ZN4core3ptr39drop_in_place$LT$proc_macro2..Ident$GT$17h8101e88c3ac359d6E', symObjAddr: 0x4820, symBinAddr: 0x10E280, symSize: 0x30 }
  - { offsetInCU: 0x1D85A, offset: 0x5CF3B4, size: 0x8, addend: 0x0, symName: '__ZN4core3ptr40drop_in_place$LT$syn..ty..ReturnType$GT$17h02cf41e2fec63d90E', symObjAddr: 0x4850, symBinAddr: 0x10E2B0, symSize: 0x50 }
  - { offsetInCU: 0x1D9CC, offset: 0x5CF526, size: 0x8, addend: 0x0, symName: '__ZN4core3ptr41drop_in_place$LT$syn..expr..ExprConst$GT$17h725a13e551d9f276E', symObjAddr: 0x48A0, symBinAddr: 0x10E300, symSize: 0x180 }
  - { offsetInCU: 0x1DF21, offset: 0x5CFA7B, size: 0x8, addend: 0x0, symName: '__ZN4core3ptr44drop_in_place$LT$syn..lifetime..Lifetime$GT$17hf0cdec2e9ec456d6E', symObjAddr: 0x4A20, symBinAddr: 0x10E480, symSize: 0x30 }
  - { offsetInCU: 0x1E09A, offset: 0x5CFBF4, size: 0x8, addend: 0x0, symName: '__ZN4core3ptr44drop_in_place$LT$syn..parse..ParseBuffer$GT$17hd0dadba44a19aec2E', symObjAddr: 0x4A50, symBinAddr: 0x10E4B0, symSize: 0x70 }
  - { offsetInCU: 0x1E4CF, offset: 0x5D0029, size: 0x8, addend: 0x0, symName: '__ZN4core3ptr45drop_in_place$LT$proc_macro2..TokenStream$GT$17h3405f6c513e9f6cbE', symObjAddr: 0x4AC0, symBinAddr: 0x10E520, symSize: 0x140 }
  - { offsetInCU: 0x1E93E, offset: 0x5D0498, size: 0x8, addend: 0x0, symName: '__ZN4core3ptr45drop_in_place$LT$syn..generics..TypeParam$GT$17he5eda51070b7de47E', symObjAddr: 0x4C00, symBinAddr: 0x10E660, symSize: 0x230 }
  - { offsetInCU: 0x1F13A, offset: 0x5D0C94, size: 0x8, addend: 0x0, symName: '__ZN4core3ptr46drop_in_place$LT$syn..generics..ConstParam$GT$17hab0a58c4af8c549cE', symObjAddr: 0x4E30, symBinAddr: 0x10E890, symSize: 0x150 }
  - { offsetInCU: 0x1F564, offset: 0x5D10BE, size: 0x8, addend: 0x0, symName: '__ZN4core3ptr47drop_in_place$LT$syn..path..GenericArgument$GT$17h54f8794633f96823E', symObjAddr: 0x4F80, symBinAddr: 0x10E9E0, symSize: 0x460 }
  - { offsetInCU: 0x2026D, offset: 0x5D1DC7, size: 0x8, addend: 0x0, symName: '__ZN4core3ptr49drop_in_place$LT$syn..generics..LifetimeParam$GT$17h41a7c7a290ea6289E', symObjAddr: 0x53E0, symBinAddr: 0x10EE40, symSize: 0xF0 }
  - { offsetInCU: 0x20627, offset: 0x5D2181, size: 0x8, addend: 0x0, symName: '__ZN4core3ptr50drop_in_place$LT$syn..generics..TypeParamBound$GT$17hcd7771d4c6c221efE', symObjAddr: 0x54D0, symBinAddr: 0x10EF30, symSize: 0xA0 }
  - { offsetInCU: 0x2078E, offset: 0x5D22E8, size: 0x8, addend: 0x0, symName: '__ZN4core3ptr58drop_in_place$LT$alloc..vec..Vec$LT$syn..expr..Arm$GT$$GT$17h1a55df3d2cba1daaE', symObjAddr: 0x5570, symBinAddr: 0x10EFD0, symSize: 0xD0 }
  - { offsetInCU: 0x20A1B, offset: 0x5D2575, size: 0x8, addend: 0x0, symName: '__ZN4core3ptr59drop_in_place$LT$alloc..boxed..Box$LT$syn..pat..Pat$GT$$GT$17h563b135d87aca8abE.llvm.16708040419612450194', symObjAddr: 0x5640, symBinAddr: 0x10F0A0, symSize: 0x50 }
  - { offsetInCU: 0x20B76, offset: 0x5D26D0, size: 0x8, addend: 0x0, symName: '__ZN4core3ptr59drop_in_place$LT$alloc..boxed..Box$LT$syn..ty..Type$GT$$GT$17hffed36bad83adacbE', symObjAddr: 0x5690, symBinAddr: 0x10F0F0, symSize: 0x50 }
  - { offsetInCU: 0x20CD1, offset: 0x5D282B, size: 0x8, addend: 0x0, symName: '__ZN4core3ptr61drop_in_place$LT$alloc..boxed..Box$LT$syn..expr..Expr$GT$$GT$17h01091e47f131475dE', symObjAddr: 0x56E0, symBinAddr: 0x10F140, symSize: 0x50 }
  - { offsetInCU: 0x20EA8, offset: 0x5D2A02, size: 0x8, addend: 0x0, symName: '__ZN4core3ptr61drop_in_place$LT$syn..path..ParenthesizedGenericArguments$GT$17h43d4aac5494326a7E', symObjAddr: 0x5730, symBinAddr: 0x10F190, symSize: 0x170 }
  - { offsetInCU: 0x2146F, offset: 0x5D2FC9, size: 0x8, addend: 0x0, symName: '__ZN4core3ptr63drop_in_place$LT$alloc..boxed..Box$LT$syn..lit..LitRepr$GT$$GT$17hd8839b7fb35ee7afE', symObjAddr: 0x58A0, symBinAddr: 0x10F300, symSize: 0x60 }
  - { offsetInCU: 0x21764, offset: 0x5D32BE, size: 0x8, addend: 0x0, symName: '__ZN4core3ptr64drop_in_place$LT$alloc..boxed..Box$LT$syn..pat..FieldPat$GT$$GT$17h4980b70a7597cc08E', symObjAddr: 0x5900, symBinAddr: 0x10F360, symSize: 0x140 }
  - { offsetInCU: 0x21E0F, offset: 0x5D3969, size: 0x8, addend: 0x0, symName: '__ZN4core3ptr64drop_in_place$LT$alloc..boxed..Box$LT$syn..ty..BareFnArg$GT$$GT$17h8b34096c620314efE', symObjAddr: 0x5A40, symBinAddr: 0x10F4A0, symSize: 0x140 }
  - { offsetInCU: 0x22333, offset: 0x5D3E8D, size: 0x8, addend: 0x0, symName: '__ZN4core3ptr64drop_in_place$LT$alloc..vec..Vec$LT$syn..attr..Attribute$GT$$GT$17h3c8f2a04e701c675E.llvm.16708040419612450194', symObjAddr: 0x5B80, symBinAddr: 0x10F5E0, symSize: 0xD0 }
  - { offsetInCU: 0x225C0, offset: 0x5D411A, size: 0x8, addend: 0x0, symName: '__ZN4core3ptr65drop_in_place$LT$core..option..Option$LT$syn..expr..Label$GT$$GT$17h78189e72a8cb7951E', symObjAddr: 0x5C50, symBinAddr: 0x10F6B0, symSize: 0x30 }
  - { offsetInCU: 0x226FB, offset: 0x5D4255, size: 0x8, addend: 0x0, symName: '__ZN4core3ptr65drop_in_place$LT$core..option..Option$LT$syn..path..QSelf$GT$$GT$17h9b72552ca06b7379E', symObjAddr: 0x5C80, symBinAddr: 0x10F6E0, symSize: 0x50 }
  - { offsetInCU: 0x22894, offset: 0x5D43EE, size: 0x8, addend: 0x0, symName: '__ZN4core3ptr66drop_in_place$LT$core..option..Option$LT$syn..pat..PatRest$GT$$GT$17h61677cf4ff3a7393E', symObjAddr: 0x5CD0, symBinAddr: 0x10F730, symSize: 0xE0 }
  - { offsetInCU: 0x22B18, offset: 0x5D4672, size: 0x8, addend: 0x0, symName: '__ZN4core3ptr67drop_in_place$LT$alloc..boxed..Box$LT$syn..expr..FieldValue$GT$$GT$17h93aaccf8aa22ef88E', symObjAddr: 0x5DC0, symBinAddr: 0x10F810, symSize: 0x140 }
  - { offsetInCU: 0x2301C, offset: 0x5D4B76, size: 0x8, addend: 0x0, symName: '__ZN4core3ptr68drop_in_place$LT$alloc..boxed..Box$LT$syn..path..PathSegment$GT$$GT$17h709dabdc13b58a71E', symObjAddr: 0x5F00, symBinAddr: 0x10F950, symSize: 0x190 }
  - { offsetInCU: 0x236FA, offset: 0x5D5254, size: 0x8, addend: 0x0, symName: '__ZN4core3ptr70drop_in_place$LT$core..option..Option$LT$syn..ty..BareVariadic$GT$$GT$17h45399348ea4b8d55E', symObjAddr: 0x6090, symBinAddr: 0x10FAE0, symSize: 0x120 }
  - { offsetInCU: 0x23C27, offset: 0x5D5781, size: 0x8, addend: 0x0, symName: '__ZN4core3ptr72drop_in_place$LT$alloc..boxed..Box$LT$syn..path..GenericArgument$GT$$GT$17haa7dd8b716637b54E', symObjAddr: 0x61B0, symBinAddr: 0x10FC00, symSize: 0x2B0 }
  - { offsetInCU: 0x24612, offset: 0x5D616C, size: 0x8, addend: 0x0, symName: '__ZN4core3ptr72drop_in_place$LT$core..option..Option$LT$syn..lifetime..Lifetime$GT$$GT$17hfc363ccdd8bd9c32E', symObjAddr: 0x6460, symBinAddr: 0x10FEB0, symSize: 0x30 }
  - { offsetInCU: 0x2472E, offset: 0x5D6288, size: 0x8, addend: 0x0, symName: '__ZN4core3ptr73drop_in_place$LT$alloc..boxed..Box$LT$syn..generics..GenericParam$GT$$GT$17hf6951dcd5ae07324E', symObjAddr: 0x6490, symBinAddr: 0x10FEE0, symSize: 0x80 }
  - { offsetInCU: 0x248A6, offset: 0x5D6400, size: 0x8, addend: 0x0, symName: '__ZN4core3ptr75drop_in_place$LT$alloc..boxed..Box$LT$syn..generics..TypeParamBound$GT$$GT$17he61c00698a311a34E', symObjAddr: 0x6510, symBinAddr: 0x10FF60, symSize: 0x160 }
  - { offsetInCU: 0x24E6C, offset: 0x5D69C6, size: 0x8, addend: 0x0, symName: '__ZN4core3ptr86drop_in_place$LT$syn..punctuated..Punctuated$LT$syn..pat..Pat$C$syn..token..Or$GT$$GT$17h8e9173df21a44316E', symObjAddr: 0x6670, symBinAddr: 0x1100C0, symSize: 0x120 }
  - { offsetInCU: 0x252C9, offset: 0x5D6E23, size: 0x8, addend: 0x0, symName: '__ZN4core3ptr87drop_in_place$LT$core..option..Option$LT$alloc..boxed..Box$LT$syn..ty..Type$GT$$GT$$GT$17hd74f5d971aec2972E', symObjAddr: 0x6790, symBinAddr: 0x1101E0, symSize: 0x50 }
  - { offsetInCU: 0x2543B, offset: 0x5D6F95, size: 0x8, addend: 0x0, symName: '__ZN4core3ptr89drop_in_place$LT$core..option..Option$LT$alloc..boxed..Box$LT$syn..expr..Expr$GT$$GT$$GT$17h8e135ac1a25a2dc5E', symObjAddr: 0x67E0, symBinAddr: 0x110230, symSize: 0x50 }
  - { offsetInCU: 0x255AD, offset: 0x5D7107, size: 0x8, addend: 0x0, symName: '__ZN4core3ptr89drop_in_place$LT$syn..punctuated..Punctuated$LT$syn..ty..Type$C$syn..token..Comma$GT$$GT$17ha919b3114742fb9dE', symObjAddr: 0x6830, symBinAddr: 0x110280, symSize: 0x120 }
  - { offsetInCU: 0x25A35, offset: 0x5D758F, size: 0x8, addend: 0x0, symName: '__ZN4core3ptr91drop_in_place$LT$syn..punctuated..Punctuated$LT$syn..expr..Expr$C$syn..token..Comma$GT$$GT$17h4f39b83dc86a4159E', symObjAddr: 0x6950, symBinAddr: 0x1103A0, symSize: 0x120 }
  - { offsetInCU: 0x25E92, offset: 0x5D79EC, size: 0x8, addend: 0x0, symName: '__ZN4core3ptr94drop_in_place$LT$syn..punctuated..Punctuated$LT$syn..pat..FieldPat$C$syn..token..Comma$GT$$GT$17h112950ea198c8281E', symObjAddr: 0x6A70, symBinAddr: 0x1104C0, symSize: 0xF0 }
  - { offsetInCU: 0x2615C, offset: 0x5D7CB6, size: 0x8, addend: 0x0, symName: '__ZN4core3ptr94drop_in_place$LT$syn..punctuated..Punctuated$LT$syn..ty..BareFnArg$C$syn..token..Comma$GT$$GT$17h1c7b44310f06243dE', symObjAddr: 0x6B60, symBinAddr: 0x1105B0, symSize: 0xF0 }
  - { offsetInCU: 0x26426, offset: 0x5D7F80, size: 0x8, addend: 0x0, symName: '__ZN4core3ptr96drop_in_place$LT$core..option..Option$LT$alloc..boxed..Box$LT$syn..path..PathSegment$GT$$GT$$GT$17hb447d0f626c86a4eE', symObjAddr: 0x6C50, symBinAddr: 0x1106A0, symSize: 0x180 }
  - { offsetInCU: 0x26AB7, offset: 0x5D8611, size: 0x8, addend: 0x0, symName: '__ZN4core3ptr97drop_in_place$LT$syn..punctuated..Punctuated$LT$syn..expr..FieldValue$C$syn..token..Comma$GT$$GT$17h31b81f7462228dcbE', symObjAddr: 0x6DD0, symBinAddr: 0x110820, symSize: 0xF0 }
  - { offsetInCU: 0x26DFD, offset: 0x5D8957, size: 0x8, addend: 0x0, symName: '__ZN4core3ptr98drop_in_place$LT$syn..punctuated..Punctuated$LT$syn..lifetime..Lifetime$C$syn..token..Plus$GT$$GT$17h0f8fc5f20f465f47E', symObjAddr: 0x6EC0, symBinAddr: 0x110910, symSize: 0xC0 }
  - { offsetInCU: 0x2D0B3, offset: 0x5DEC0D, size: 0x8, addend: 0x0, symName: '__ZN3syn3pat7parsing31_$LT$impl$u20$syn..pat..Pat$GT$12parse_single17he8272f3d05bd5b62E', symObjAddr: 0x7690, symBinAddr: 0x1109F0, symSize: 0x10A0 }
  - { offsetInCU: 0x31B8D, offset: 0x5E36E7, size: 0x8, addend: 0x0, symName: '__ZN3syn3pat7parsing31_$LT$impl$u20$syn..pat..Pat$GT$29parse_multi_with_leading_vert17hff4a0f009e279073E', symObjAddr: 0x8750, symBinAddr: 0x111A90, symSize: 0xD0 }
  - { offsetInCU: 0x35, offset: 0x5EA983, size: 0x8, addend: 0x0, symName: _anon.9fa2b4368973a3c0948f9ae02c44caa7.1.llvm.11936935375936494365, symObjAddr: 0xDA20, symBinAddr: 0x2812E0, symSize: 0x0 }
  - { offsetInCU: 0x1D9A, offset: 0x5EC6E8, size: 0x8, addend: 0x0, symName: '__ZN4core3ptr100drop_in_place$LT$syn..punctuated..Punctuated$LT$syn..path..PathSegment$C$syn..token..PathSep$GT$$GT$17hf414cb3581f8337aE.llvm.11936935375936494365', symObjAddr: 0x250, symBinAddr: 0x1144F0, symSize: 0x140 }
  - { offsetInCU: 0x22ED, offset: 0x5ECC3B, size: 0x8, addend: 0x0, symName: '__ZN4core3ptr101drop_in_place$LT$core..option..Option$LT$alloc..boxed..Box$LT$syn..generics..GenericParam$GT$$GT$$GT$17hd5dce04b35fda9feE', symObjAddr: 0x390, symBinAddr: 0x114630, symSize: 0x90 }
  - { offsetInCU: 0x24D3, offset: 0x5ECE21, size: 0x8, addend: 0x0, symName: '__ZN4core3ptr102drop_in_place$LT$syn..punctuated..Punctuated$LT$syn..path..GenericArgument$C$syn..token..Comma$GT$$GT$17h39496ba4e6dba6cfE.llvm.11936935375936494365', symObjAddr: 0x420, symBinAddr: 0x1146C0, symSize: 0xF0 }
  - { offsetInCU: 0x27CF, offset: 0x5ED11D, size: 0x8, addend: 0x0, symName: '__ZN4core3ptr103drop_in_place$LT$core..option..Option$LT$alloc..boxed..Box$LT$syn..generics..TypeParamBound$GT$$GT$$GT$17h5974f03e36b1a9c3E', symObjAddr: 0x510, symBinAddr: 0x1147B0, symSize: 0x50 }
  - { offsetInCU: 0x299E, offset: 0x5ED2EC, size: 0x8, addend: 0x0, symName: '__ZN4core3ptr103drop_in_place$LT$syn..punctuated..Punctuated$LT$syn..generics..GenericParam$C$syn..token..Comma$GT$$GT$17hf42353fa44ed6da8E', symObjAddr: 0x560, symBinAddr: 0x114800, symSize: 0xF0 }
  - { offsetInCU: 0x2E6D, offset: 0x5ED7BB, size: 0x8, addend: 0x0, symName: '__ZN4core3ptr104drop_in_place$LT$syn..punctuated..Punctuated$LT$syn..generics..TypeParamBound$C$syn..token..Plus$GT$$GT$17h532f52c4a894b056E', symObjAddr: 0x650, symBinAddr: 0x1148F0, symSize: 0x260 }
  - { offsetInCU: 0x3857, offset: 0x5EE1A5, size: 0x8, addend: 0x0, symName: '__ZN4core3ptr34drop_in_place$LT$syn..lit..Lit$GT$17h8902f5ff67917034E', symObjAddr: 0x8C0, symBinAddr: 0x114B50, symSize: 0x110 }
  - { offsetInCU: 0x3DCF, offset: 0x5EE71D, size: 0x8, addend: 0x0, symName: '__ZN4core3ptr34drop_in_place$LT$syn..pat..Pat$GT$17h4581eea028ec0969E', symObjAddr: 0x9D0, symBinAddr: 0x114C60, symSize: 0x1000 }
  - { offsetInCU: 0x7913, offset: 0x5F2261, size: 0x8, addend: 0x0, symName: '__ZN4core3ptr34drop_in_place$LT$syn..ty..Type$GT$17h369e41ad4a9f1ae0E.llvm.11936935375936494365', symObjAddr: 0x19D0, symBinAddr: 0x115C60, symSize: 0x4F0 }
  - { offsetInCU: 0x8E7D, offset: 0x5F37CB, size: 0x8, addend: 0x0, symName: '__ZN4core3ptr36drop_in_place$LT$syn..expr..Expr$GT$17h0f7fd4c749bae801E.llvm.11936935375936494365', symObjAddr: 0x1EC0, symBinAddr: 0x116150, symSize: 0x28C0 }
  - { offsetInCU: 0x12322, offset: 0x5FCC70, size: 0x8, addend: 0x0, symName: '__ZN4core3ptr36drop_in_place$LT$syn..mac..Macro$GT$17h4ffde962df30ebe2E', symObjAddr: 0x4780, symBinAddr: 0x118A10, symSize: 0x40 }
  - { offsetInCU: 0x1237B, offset: 0x5FCCC9, size: 0x8, addend: 0x0, symName: '__ZN4core3ptr36drop_in_place$LT$syn..path..Path$GT$17habea856181211e1cE.llvm.11936935375936494365', symObjAddr: 0x47C0, symBinAddr: 0x118A50, symSize: 0x140 }
  - { offsetInCU: 0x128C0, offset: 0x5FD20E, size: 0x8, addend: 0x0, symName: '__ZN4core3ptr37drop_in_place$LT$syn..stmt..Block$GT$17hcc21a21cf949414cE', symObjAddr: 0x4900, symBinAddr: 0x118B90, symSize: 0xD0 }
  - { offsetInCU: 0x12B64, offset: 0x5FD4B2, size: 0x8, addend: 0x0, symName: '__ZN4core3ptr38drop_in_place$LT$syn..expr..Member$GT$17h022cbe5553aa40faE', symObjAddr: 0x49D0, symBinAddr: 0x118C60, symSize: 0x30 }
  - { offsetInCU: 0x12C61, offset: 0x5FD5AF, size: 0x8, addend: 0x0, symName: '__ZN4core3ptr38drop_in_place$LT$syn..ty..TypePath$GT$17he8f590b78af8d8f3E', symObjAddr: 0x4A00, symBinAddr: 0x118C90, symSize: 0x80 }
  - { offsetInCU: 0x12DE0, offset: 0x5FD72E, size: 0x8, addend: 0x0, symName: '__ZN4core3ptr39drop_in_place$LT$proc_macro2..Ident$GT$17h8101e88c3ac359d6E.llvm.11936935375936494365', symObjAddr: 0x4A80, symBinAddr: 0x118D10, symSize: 0x30 }
  - { offsetInCU: 0x12EBE, offset: 0x5FD80C, size: 0x8, addend: 0x0, symName: '__ZN4core3ptr40drop_in_place$LT$syn..ty..ReturnType$GT$17h02cf41e2fec63d90E', symObjAddr: 0x4AB0, symBinAddr: 0x118D40, symSize: 0x50 }
  - { offsetInCU: 0x13030, offset: 0x5FD97E, size: 0x8, addend: 0x0, symName: '__ZN4core3ptr41drop_in_place$LT$syn..expr..ExprConst$GT$17h725a13e551d9f276E', symObjAddr: 0x4B00, symBinAddr: 0x118D90, symSize: 0x180 }
  - { offsetInCU: 0x135A4, offset: 0x5FDEF2, size: 0x8, addend: 0x0, symName: '__ZN4core3ptr42drop_in_place$LT$syn..path..Constraint$GT$17h07cd69a204b9a6d4E.llvm.11936935375936494365', symObjAddr: 0x4D60, symBinAddr: 0x118F10, symSize: 0x160 }
  - { offsetInCU: 0x13AE3, offset: 0x5FE431, size: 0x8, addend: 0x0, symName: '__ZN4core3ptr44drop_in_place$LT$syn..lifetime..Lifetime$GT$17hf0cdec2e9ec456d6E.llvm.11936935375936494365', symObjAddr: 0x4EC0, symBinAddr: 0x119070, symSize: 0x30 }
  - { offsetInCU: 0x13C5C, offset: 0x5FE5AA, size: 0x8, addend: 0x0, symName: '__ZN4core3ptr44drop_in_place$LT$syn..parse..ParseBuffer$GT$17hd0dadba44a19aec2E', symObjAddr: 0x4EF0, symBinAddr: 0x1190A0, symSize: 0x70 }
  - { offsetInCU: 0x14091, offset: 0x5FE9DF, size: 0x8, addend: 0x0, symName: '__ZN4core3ptr45drop_in_place$LT$proc_macro2..TokenStream$GT$17h3405f6c513e9f6cbE', symObjAddr: 0x4F60, symBinAddr: 0x119110, symSize: 0x140 }
  - { offsetInCU: 0x144E1, offset: 0x5FEE2F, size: 0x8, addend: 0x0, symName: '__ZN4core3ptr45drop_in_place$LT$syn..generics..TypeParam$GT$17he5eda51070b7de47E', symObjAddr: 0x50A0, symBinAddr: 0x119250, symSize: 0x140 }
  - { offsetInCU: 0x148D3, offset: 0x5FF221, size: 0x8, addend: 0x0, symName: '__ZN4core3ptr45drop_in_place$LT$syn..path..PathArguments$GT$17h7160021b3fdea550E.llvm.11936935375936494365', symObjAddr: 0x51E0, symBinAddr: 0x119390, symSize: 0xA0 }
  - { offsetInCU: 0x14AA8, offset: 0x5FF3F6, size: 0x8, addend: 0x0, symName: '__ZN4core3ptr46drop_in_place$LT$syn..generics..ConstParam$GT$17hab0a58c4af8c549cE', symObjAddr: 0x5280, symBinAddr: 0x119430, symSize: 0x150 }
  - { offsetInCU: 0x14E75, offset: 0x5FF7C3, size: 0x8, addend: 0x0, symName: '__ZN4core3ptr49drop_in_place$LT$syn..generics..LifetimeParam$GT$17h41a7c7a290ea6289E', symObjAddr: 0x53D0, symBinAddr: 0x119580, symSize: 0xF0 }
  - { offsetInCU: 0x1522F, offset: 0x5FFB7D, size: 0x8, addend: 0x0, symName: '__ZN4core3ptr50drop_in_place$LT$syn..generics..TypeParamBound$GT$17hcd7771d4c6c221efE', symObjAddr: 0x54C0, symBinAddr: 0x119670, symSize: 0x160 }
  - { offsetInCU: 0x1564F, offset: 0x5FFF9D, size: 0x8, addend: 0x0, symName: '__ZN4core3ptr58drop_in_place$LT$alloc..vec..Vec$LT$syn..expr..Arm$GT$$GT$17h1a55df3d2cba1daaE', symObjAddr: 0x5620, symBinAddr: 0x1197D0, symSize: 0xD0 }
  - { offsetInCU: 0x158DC, offset: 0x60022A, size: 0x8, addend: 0x0, symName: '__ZN4core3ptr59drop_in_place$LT$alloc..boxed..Box$LT$syn..pat..Pat$GT$$GT$17h563b135d87aca8abE', symObjAddr: 0x56F0, symBinAddr: 0x1198A0, symSize: 0x50 }
  - { offsetInCU: 0x15A37, offset: 0x600385, size: 0x8, addend: 0x0, symName: '__ZN4core3ptr59drop_in_place$LT$alloc..boxed..Box$LT$syn..ty..Type$GT$$GT$17hffed36bad83adacbE.llvm.11936935375936494365', symObjAddr: 0x5740, symBinAddr: 0x1198F0, symSize: 0x50 }
  - { offsetInCU: 0x15B92, offset: 0x6004E0, size: 0x8, addend: 0x0, symName: '__ZN4core3ptr61drop_in_place$LT$alloc..boxed..Box$LT$syn..expr..Expr$GT$$GT$17h01091e47f131475dE', symObjAddr: 0x5790, symBinAddr: 0x119940, symSize: 0x50 }
  - { offsetInCU: 0x15D69, offset: 0x6006B7, size: 0x8, addend: 0x0, symName: '__ZN4core3ptr61drop_in_place$LT$syn..path..ParenthesizedGenericArguments$GT$17h43d4aac5494326a7E.llvm.11936935375936494365', symObjAddr: 0x57E0, symBinAddr: 0x119990, symSize: 0x170 }
  - { offsetInCU: 0x16330, offset: 0x600C7E, size: 0x8, addend: 0x0, symName: '__ZN4core3ptr63drop_in_place$LT$alloc..boxed..Box$LT$syn..lit..LitRepr$GT$$GT$17hd8839b7fb35ee7afE', symObjAddr: 0x5950, symBinAddr: 0x119B00, symSize: 0x60 }
  - { offsetInCU: 0x16625, offset: 0x600F73, size: 0x8, addend: 0x0, symName: '__ZN4core3ptr64drop_in_place$LT$alloc..boxed..Box$LT$syn..pat..FieldPat$GT$$GT$17h4980b70a7597cc08E', symObjAddr: 0x59B0, symBinAddr: 0x119B60, symSize: 0x140 }
  - { offsetInCU: 0x16CD0, offset: 0x60161E, size: 0x8, addend: 0x0, symName: '__ZN4core3ptr64drop_in_place$LT$alloc..boxed..Box$LT$syn..ty..BareFnArg$GT$$GT$17h8b34096c620314efE', symObjAddr: 0x5AF0, symBinAddr: 0x119CA0, symSize: 0x140 }
  - { offsetInCU: 0x171F4, offset: 0x601B42, size: 0x8, addend: 0x0, symName: '__ZN4core3ptr65drop_in_place$LT$core..option..Option$LT$syn..expr..Label$GT$$GT$17h78189e72a8cb7951E', symObjAddr: 0x5C30, symBinAddr: 0x119DE0, symSize: 0x30 }
