---
triple:          'x86_64-apple-darwin'
binary-path:     "/Users/justinlanouette/Chaos/ChaöS-Token/hello_world/target/release/deps/libark_ff_macros-14722b270b11249f.dylib"
relocations:
  - { offsetInCU: 0x1E, offset: 0x1E, size: 0x8, addend: 0x0, symName: '__ZN136_$LT$alloc..vec..Vec$LT$T$C$A$GT$$u20$as$u20$alloc..vec..spec_extend..SpecExtend$LT$T$C$alloc..vec..into_iter..IntoIter$LT$T$GT$$GT$$GT$11spec_extend17h5ab91cb30cffe296E', symObjAddr: 0x0, symBinAddr: 0x3180, symSize: 0xB0 }
  - { offsetInCU: 0x1171, offset: 0x1171, size: 0x8, addend: 0x0, symName: '__ZN4core3ptr100drop_in_place$LT$core..option..Option$LT$alloc..boxed..Box$LT$syn..generics..LifetimeDef$GT$$GT$$GT$17h3899ca5c2432ed32E', symObjAddr: 0x3E0, symBinAddr: 0x3560, symSize: 0x50 }
  - { offsetInCU: 0x1300, offset: 0x1300, size: 0x8, addend: 0x0, symName: '__ZN4core3ptr100drop_in_place$LT$core..option..Option$LT$alloc..boxed..Box$LT$syn..path..GenericArgument$GT$$GT$$GT$17h8f0a837edb1aa051E', symObjAddr: 0x430, symBinAddr: 0x35B0, symSize: 0x50 }
  - { offsetInCU: 0x148F, offset: 0x148F, size: 0x8, addend: 0x0, symName: '__ZN4core3ptr101drop_in_place$LT$core..option..Option$LT$alloc..boxed..Box$LT$syn..generics..GenericParam$GT$$GT$$GT$17hd5fe1fed536eea79E', symObjAddr: 0x480, symBinAddr: 0x3600, symSize: 0x50 }
  - { offsetInCU: 0x1754, offset: 0x1754, size: 0x8, addend: 0x0, symName: '__ZN4core3ptr102drop_in_place$LT$syn..punctuated..Punctuated$LT$syn..generics..LifetimeDef$C$syn..token..Comma$GT$$GT$17he4140115b7a94851E', symObjAddr: 0x4D0, symBinAddr: 0x3650, symSize: 0x170 }
  - { offsetInCU: 0x1C4B, offset: 0x1C4B, size: 0x8, addend: 0x0, symName: '__ZN4core3ptr102drop_in_place$LT$syn..punctuated..Punctuated$LT$syn..path..GenericArgument$C$syn..token..Comma$GT$$GT$17h41b34498e2281225E.llvm.7077907673834236586', symObjAddr: 0x640, symBinAddr: 0x37C0, symSize: 0xF0 }
  - { offsetInCU: 0x1FEA, offset: 0x1FEA, size: 0x8, addend: 0x0, symName: '__ZN4core3ptr103drop_in_place$LT$core..option..Option$LT$alloc..boxed..Box$LT$syn..generics..TypeParamBound$GT$$GT$$GT$17h1c75c1ec3b9bf3b0E', symObjAddr: 0x730, symBinAddr: 0x38B0, symSize: 0xA0 }
  - { offsetInCU: 0x22D9, offset: 0x22D9, size: 0x8, addend: 0x0, symName: '__ZN4core3ptr103drop_in_place$LT$core..option..Option$LT$alloc..boxed..Box$LT$syn..generics..WherePredicate$GT$$GT$$GT$17h58b010433e2ef286E', symObjAddr: 0x7D0, symBinAddr: 0x3950, symSize: 0x50 }
  - { offsetInCU: 0x2503, offset: 0x2503, size: 0x8, addend: 0x0, symName: '__ZN4core3ptr103drop_in_place$LT$syn..punctuated..Punctuated$LT$syn..generics..GenericParam$C$syn..token..Comma$GT$$GT$17h00a435e0611e4c54E', symObjAddr: 0x820, symBinAddr: 0x39A0, symSize: 0x1A0 }
  - { offsetInCU: 0x2AEF, offset: 0x2AEF, size: 0x8, addend: 0x0, symName: '__ZN4core3ptr103drop_in_place$LT$syn..punctuated..Punctuated$LT$syn..generics..TypeParamBound$C$syn..token..Add$GT$$GT$17h9e2d2e603068e83aE', symObjAddr: 0x9C0, symBinAddr: 0x3B40, symSize: 0x2E0 }
  - { offsetInCU: 0x38DD, offset: 0x38DD, size: 0x8, addend: 0x0, symName: '__ZN4core3ptr105drop_in_place$LT$syn..punctuated..Punctuated$LT$syn..generics..WherePredicate$C$syn..token..Comma$GT$$GT$17h6c66e91bbaa16a4fE', symObjAddr: 0xCA0, symBinAddr: 0x3E20, symSize: 0x1A0 }
  - { offsetInCU: 0x3F53, offset: 0x3F53, size: 0x8, addend: 0x0, symName: '__ZN4core3ptr108drop_in_place$LT$syn..punctuated..Punctuated$LT$syn..expr..GenericMethodArgument$C$syn..token..Comma$GT$$GT$17h4b6587da36ced0fcE', symObjAddr: 0xE40, symBinAddr: 0x3FC0, symSize: 0x150 }
  - { offsetInCU: 0x4437, offset: 0x4437, size: 0x8, addend: 0x0, symName: '__ZN4core3ptr126drop_in_place$LT$core..option..Option$LT$$LP$syn..token..And$C$core..option..Option$LT$syn..lifetime..Lifetime$GT$$RP$$GT$$GT$17h0470d71f478a1896E', symObjAddr: 0xF90, symBinAddr: 0x4110, symSize: 0x30 }
  - { offsetInCU: 0x45ED, offset: 0x45ED, size: 0x8, addend: 0x0, symName: '__ZN4core3ptr205drop_in_place$LT$core..iter..adapters..flatten..FlatMap$LT$core..ops..range..Range$LT$usize$GT$$C$alloc..vec..Vec$LT$syn..stmt..Stmt$GT$$C$ark_ff_macros..unroll..unroll..$u7b$$u7b$closure$u7d$$u7d$$GT$$GT$17h276eef5bb719749fE', symObjAddr: 0xFC0, symBinAddr: 0x4140, symSize: 0x60 }
  - { offsetInCU: 0x47FD, offset: 0x47FD, size: 0x8, addend: 0x0, symName: '__ZN4core3ptr33drop_in_place$LT$syn..ty..Abi$GT$17ha47644fca835a47cE', symObjAddr: 0x1020, symBinAddr: 0x41A0, symSize: 0x70 }
  - { offsetInCU: 0x4819, offset: 0x4819, size: 0x8, addend: 0x0, symName: '__ZN4core3ptr33drop_in_place$LT$syn..ty..Abi$GT$17ha47644fca835a47cE', symObjAddr: 0x1020, symBinAddr: 0x41A0, symSize: 0x70 }
  - { offsetInCU: 0x4AF1, offset: 0x4AF1, size: 0x8, addend: 0x0, symName: '__ZN4core3ptr34drop_in_place$LT$syn..lit..Lit$GT$17h13298495a2f812f1E.llvm.7077907673834236586', symObjAddr: 0x1090, symBinAddr: 0x4210, symSize: 0x120 }
  - { offsetInCU: 0x4FCD, offset: 0x4FCD, size: 0x8, addend: 0x0, symName: '__ZN4core3ptr34drop_in_place$LT$syn..pat..Pat$GT$17h0d0a9b563b5dbf26E.llvm.7077907673834236586', symObjAddr: 0x11B0, symBinAddr: 0x4330, symSize: 0xBE0 }
  - { offsetInCU: 0x8AB2, offset: 0x8AB2, size: 0x8, addend: 0x0, symName: '__ZN4core3ptr34drop_in_place$LT$syn..ty..Type$GT$17h27c6c91ce96053beE.llvm.7077907673834236586', symObjAddr: 0x1D90, symBinAddr: 0x4F10, symSize: 0x410 }
  - { offsetInCU: 0x97CD, offset: 0x97CD, size: 0x8, addend: 0x0, symName: '__ZN4core3ptr35drop_in_place$LT$syn..expr..Arm$GT$17h7f8f1669dc681c88E.llvm.7077907673834236586', symObjAddr: 0x21A0, symBinAddr: 0x5320, symSize: 0x1A0 }
  - { offsetInCU: 0x9ECF, offset: 0x9ECF, size: 0x8, addend: 0x0, symName: '__ZN4core3ptr36drop_in_place$LT$syn..attr..Meta$GT$17hace024f094043921E.llvm.7077907673834236586', symObjAddr: 0x2340, symBinAddr: 0x54C0, symSize: 0x1B0 }
  - { offsetInCU: 0xA897, offset: 0xA897, size: 0x8, addend: 0x0, symName: '__ZN4core3ptr36drop_in_place$LT$syn..expr..Expr$GT$17h22b5966f62e8bb79E.llvm.7077907673834236586', symObjAddr: 0x24F0, symBinAddr: 0x5670, symSize: 0x1D50 }
  - { offsetInCU: 0x14BE7, offset: 0x14BE7, size: 0x8, addend: 0x0, symName: '__ZN4core3ptr36drop_in_place$LT$syn..item..Item$GT$17he67e385dd44ec589E.llvm.7077907673834236586', symObjAddr: 0x4240, symBinAddr: 0x73C0, symSize: 0x1680 }
  - { offsetInCU: 0x1B7C4, offset: 0x1B7C4, size: 0x8, addend: 0x0, symName: '__ZN4core3ptr36drop_in_place$LT$syn..mac..Macro$GT$17h51b7807cf53b2cdeE', symObjAddr: 0x58C0, symBinAddr: 0x8A40, symSize: 0xE0 }
  - { offsetInCU: 0x1BB6A, offset: 0x1BB6A, size: 0x8, addend: 0x0, symName: '__ZN4core3ptr36drop_in_place$LT$syn..path..Path$GT$17h0dfa334735d579c8E.llvm.7077907673834236586', symObjAddr: 0x59A0, symBinAddr: 0x8B20, symSize: 0x160 }
  - { offsetInCU: 0x1C112, offset: 0x1C112, size: 0x8, addend: 0x0, symName: '__ZN4core3ptr36drop_in_place$LT$syn..stmt..Stmt$GT$17h77edc66dbadb6c85E', symObjAddr: 0x5B00, symBinAddr: 0x8C80, symSize: 0x140 }
  - { offsetInCU: 0x1C591, offset: 0x1C591, size: 0x8, addend: 0x0, symName: '__ZN4core3ptr37drop_in_place$LT$syn..data..Field$GT$17h199deafc19d48249E.llvm.7077907673834236586', symObjAddr: 0x5C40, symBinAddr: 0x8DC0, symSize: 0x1B0 }
  - { offsetInCU: 0x1CB8B, offset: 0x1CB8B, size: 0x8, addend: 0x0, symName: '__ZN4core3ptr37drop_in_place$LT$syn..item..FnArg$GT$17h750068898b4623a0E', symObjAddr: 0x5DF0, symBinAddr: 0x8F70, symSize: 0x190 }
  - { offsetInCU: 0x1D52D, offset: 0x1D52D, size: 0x8, addend: 0x0, symName: '__ZN4core3ptr37drop_in_place$LT$syn..stmt..Block$GT$17h3230a4b6b50a27e7E', symObjAddr: 0x5F80, symBinAddr: 0x9100, symSize: 0x80 }
  - { offsetInCU: 0x1D7FA, offset: 0x1D7FA, size: 0x8, addend: 0x0, symName: '__ZN4core3ptr38drop_in_place$LT$syn..expr..Member$GT$17h6e2c1a9be08e300fE.llvm.7077907673834236586', symObjAddr: 0x6000, symBinAddr: 0x9180, symSize: 0x30 }
  - { offsetInCU: 0x1D8F6, offset: 0x1D8F6, size: 0x8, addend: 0x0, symName: '__ZN4core3ptr38drop_in_place$LT$syn..pat..PatType$GT$17h9375fc5e3e5d425cE.llvm.7077907673834236586', symObjAddr: 0x6030, symBinAddr: 0x91B0, symSize: 0x160 }
  - { offsetInCU: 0x1DEAE, offset: 0x1DEAE, size: 0x8, addend: 0x0, symName: '__ZN4core3ptr38drop_in_place$LT$syn..ty..Variadic$GT$17h95b017f701518b64E', symObjAddr: 0x6190, symBinAddr: 0x9310, symSize: 0x80 }
  - { offsetInCU: 0x1E17D, offset: 0x1E17D, size: 0x8, addend: 0x0, symName: '__ZN4core3ptr39drop_in_place$LT$proc_macro2..Ident$GT$17hf70eea798d50d675E', symObjAddr: 0x6210, symBinAddr: 0x9390, symSize: 0x30 }
  - { offsetInCU: 0x1E2B7, offset: 0x1E2B7, size: 0x8, addend: 0x0, symName: '__ZN4core3ptr39drop_in_place$LT$syn..data..Variant$GT$17hd7d3ea05e0924bf3E.llvm.7077907673834236586', symObjAddr: 0x6240, symBinAddr: 0x93C0, symSize: 0x330 }
  - { offsetInCU: 0x1EF60, offset: 0x1EF60, size: 0x8, addend: 0x0, symName: '__ZN4core3ptr39drop_in_place$LT$syn..item..UseTree$GT$17hd64afb304856727bE.llvm.7077907673834236586', symObjAddr: 0x6570, symBinAddr: 0x96F0, symSize: 0x1F0 }
  - { offsetInCU: 0x1F67E, offset: 0x1F67E, size: 0x8, addend: 0x0, symName: '__ZN4core3ptr39drop_in_place$LT$syn..pat..PatTuple$GT$17h6d4a0b41d9218ac5E', symObjAddr: 0x6760, symBinAddr: 0x98E0, symSize: 0x100 }
  - { offsetInCU: 0x1F9CC, offset: 0x1F9CC, size: 0x8, addend: 0x0, symName: '__ZN4core3ptr40drop_in_place$LT$syn..attr..MetaList$GT$17hd261ba66447d6025E.llvm.7077907673834236586', symObjAddr: 0x6860, symBinAddr: 0x99E0, symSize: 0x1C0 }
  - { offsetInCU: 0x1FE5F, offset: 0x1FE5F, size: 0x8, addend: 0x0, symName: '__ZN4core3ptr40drop_in_place$LT$syn..item..ImplItem$GT$17h5a84b469d69de54cE', symObjAddr: 0x6A20, symBinAddr: 0x9BA0, symSize: 0x1F0 }
  - { offsetInCU: 0x2046B, offset: 0x2046B, size: 0x8, addend: 0x0, symName: '__ZN4core3ptr40drop_in_place$LT$syn..item..Receiver$GT$17h9dde2ef111b23d2bE.llvm.7077907673834236586', symObjAddr: 0x6C10, symBinAddr: 0x9D90, symSize: 0x140 }
  - { offsetInCU: 0x208F9, offset: 0x208F9, size: 0x8, addend: 0x0, symName: '__ZN4core3ptr40drop_in_place$LT$syn..ty..ReturnType$GT$17h6d1198a11ecff8e0E.llvm.7077907673834236586', symObjAddr: 0x6D50, symBinAddr: 0x9ED0, symSize: 0x50 }
  - { offsetInCU: 0x20A69, offset: 0x20A69, size: 0x8, addend: 0x0, symName: '__ZN4core3ptr41drop_in_place$LT$syn..attr..Attribute$GT$17h1405b59bbc177c83E.llvm.7077907673834236586', symObjAddr: 0x6DA0, symBinAddr: 0x9F20, symSize: 0x40 }
  - { offsetInCU: 0x20BD9, offset: 0x20BD9, size: 0x8, addend: 0x0, symName: '__ZN4core3ptr41drop_in_place$LT$syn..item..Signature$GT$17h152298e86bbf24c8E', symObjAddr: 0x6DE0, symBinAddr: 0x9F60, symSize: 0x2C0 }
  - { offsetInCU: 0x21A9D, offset: 0x21A9D, size: 0x8, addend: 0x0, symName: '__ZN4core3ptr43drop_in_place$LT$proc_macro2..TokenTree$GT$17hbc0c499a00696c98E.llvm.7077907673834236586', symObjAddr: 0x7130, symBinAddr: 0xA220, symSize: 0xB0 }
  - { offsetInCU: 0x21DF8, offset: 0x21DF8, size: 0x8, addend: 0x0, symName: '__ZN4core3ptr43drop_in_place$LT$syn..data..FieldsNamed$GT$17heb994b0126b76658E', symObjAddr: 0x71E0, symBinAddr: 0xA2D0, symSize: 0x120 }
  - { offsetInCU: 0x222D7, offset: 0x222D7, size: 0x8, addend: 0x0, symName: '__ZN4core3ptr43drop_in_place$LT$syn..path..PathSegment$GT$17h22739ad2f8fca293E.llvm.7077907673834236586', symObjAddr: 0x7300, symBinAddr: 0xA3F0, symSize: 0x170 }
  - { offsetInCU: 0x228D1, offset: 0x228D1, size: 0x8, addend: 0x0, symName: '__ZN4core3ptr44drop_in_place$LT$syn..generics..Generics$GT$17heeb08408b55fcc00E', symObjAddr: 0x7470, symBinAddr: 0xA560, symSize: 0x230 }
  - { offsetInCU: 0x2320E, offset: 0x2320E, size: 0x8, addend: 0x0, symName: '__ZN4core3ptr44drop_in_place$LT$syn..item..ImplItemType$GT$17h4b7a60713e0c0628E', symObjAddr: 0x76A0, symBinAddr: 0xA790, symSize: 0x200 }
  - { offsetInCU: 0x2382B, offset: 0x2382B, size: 0x8, addend: 0x0, symName: '__ZN4core3ptr44drop_in_place$LT$syn..lifetime..Lifetime$GT$17ha37ed2c944b75f70E.llvm.7077907673834236586', symObjAddr: 0x78A0, symBinAddr: 0xA990, symSize: 0x30 }
  - { offsetInCU: 0x23984, offset: 0x23984, size: 0x8, addend: 0x0, symName: '__ZN4core3ptr45drop_in_place$LT$proc_macro2..TokenStream$GT$17hb999668eb610a023E.llvm.7077907673834236586', symObjAddr: 0x78D0, symBinAddr: 0xA9C0, symSize: 0x70 }
  - { offsetInCU: 0x23AB9, offset: 0x23AB9, size: 0x8, addend: 0x0, symName: '__ZN4core3ptr45drop_in_place$LT$syn..data..VisRestricted$GT$17ha34c40c9f310f808E', symObjAddr: 0x7940, symBinAddr: 0xAA30, symSize: 0x100 }
  - { offsetInCU: 0x23F7C, offset: 0x23F7C, size: 0x8, addend: 0x0, symName: '__ZN4core3ptr45drop_in_place$LT$syn..generics..TypeParam$GT$17h5643fa2033355e89E.llvm.7077907673834236586', symObjAddr: 0x7A40, symBinAddr: 0xAB30, symSize: 0x260 }
  - { offsetInCU: 0x24939, offset: 0x24939, size: 0x8, addend: 0x0, symName: '__ZN4core3ptr45drop_in_place$LT$syn..item..ImplItemConst$GT$17h27bb88e6913a3382E', symObjAddr: 0x7CA0, symBinAddr: 0xAD90, symSize: 0x1D0 }
  - { offsetInCU: 0x24F13, offset: 0x24F13, size: 0x8, addend: 0x0, symName: '__ZN4core3ptr45drop_in_place$LT$syn..item..TraitItemType$GT$17h9d7d88ee7ddacfebE', symObjAddr: 0x7E70, symBinAddr: 0xAF60, symSize: 0x2D0 }
  - { offsetInCU: 0x25A44, offset: 0x25A44, size: 0x8, addend: 0x0, symName: '__ZN4core3ptr46drop_in_place$LT$$u5b$syn..stmt..Stmt$u5d$$GT$17hc3acd7d1c2f79d90E.llvm.7077907673834236586', symObjAddr: 0x8140, symBinAddr: 0xB230, symSize: 0x400 }
  - { offsetInCU: 0x26338, offset: 0x26338, size: 0x8, addend: 0x0, symName: '__ZN4core3ptr46drop_in_place$LT$syn..generics..ConstParam$GT$17h3d9fd280ba828396E.llvm.7077907673834236586', symObjAddr: 0x8540, symBinAddr: 0xB630, symSize: 0x180 }
  - { offsetInCU: 0x26770, offset: 0x26770, size: 0x8, addend: 0x0, symName: '__ZN4core3ptr46drop_in_place$LT$syn..item..ImplItemMethod$GT$17h2f0c10574a38bdd4E', symObjAddr: 0x86C0, symBinAddr: 0xB7B0, symSize: 0x200 }
  - { offsetInCU: 0x26EFD, offset: 0x26EFD, size: 0x8, addend: 0x0, symName: '__ZN4core3ptr46drop_in_place$LT$syn..item..TraitItemConst$GT$17h3f37cdec8c60a0c7E', symObjAddr: 0x88C0, symBinAddr: 0xB9B0, symSize: 0x180 }
  - { offsetInCU: 0x27367, offset: 0x27367, size: 0x8, addend: 0x0, symName: '__ZN4core3ptr47drop_in_place$LT$syn..generics..LifetimeDef$GT$17ha72cc6e71d0d64c2E.llvm.7077907673834236586', symObjAddr: 0x8A40, symBinAddr: 0xBB30, symSize: 0xB0 }
  - { offsetInCU: 0x2772F, offset: 0x2772F, size: 0x8, addend: 0x0, symName: '__ZN4core3ptr47drop_in_place$LT$syn..generics..WhereClause$GT$17hc84d225d5fef52b4E', symObjAddr: 0x8AF0, symBinAddr: 0xBBE0, symSize: 0x120 }
  - { offsetInCU: 0x27BEF, offset: 0x27BEF, size: 0x8, addend: 0x0, symName: '__ZN4core3ptr47drop_in_place$LT$syn..path..GenericArgument$GT$17h813827156c9b04d4E', symObjAddr: 0x8C10, symBinAddr: 0xBD00, symSize: 0x110 }
  - { offsetInCU: 0x27F0A, offset: 0x27F0A, size: 0x8, addend: 0x0, symName: '__ZN4core3ptr48drop_in_place$LT$syn..generics..GenericParam$GT$17ha04ce4da1e986852E', symObjAddr: 0x8D20, symBinAddr: 0xBE10, symSize: 0xF0 }
  - { offsetInCU: 0x282EF, offset: 0x282EF, size: 0x8, addend: 0x0, symName: '__ZN4core3ptr49drop_in_place$LT$syn..generics..PredicateType$GT$17h8d2f0238e32d3dbdE.llvm.7077907673834236586', symObjAddr: 0x8E10, symBinAddr: 0xBF00, symSize: 0x230 }
  - { offsetInCU: 0x28D13, offset: 0x28D13, size: 0x8, addend: 0x0, symName: '__ZN4core3ptr49drop_in_place$LT$syn..item..ForeignItemStatic$GT$17hc31a5cb163cc046bE', symObjAddr: 0x9040, symBinAddr: 0xC130, symSize: 0x1D0 }
  - { offsetInCU: 0x2943C, offset: 0x2943C, size: 0x8, addend: 0x0, symName: '__ZN4core3ptr50drop_in_place$LT$$u5b$syn..item..ImplItem$u5d$$GT$17h5f642e9eef43f55eE.llvm.7077907673834236586', symObjAddr: 0x9210, symBinAddr: 0xC300, symSize: 0x420 }
  - { offsetInCU: 0x29B9A, offset: 0x29B9A, size: 0x8, addend: 0x0, symName: '__ZN4core3ptr50drop_in_place$LT$syn..generics..BoundLifetimes$GT$17h1056e839e2e2bc26E.llvm.7077907673834236586', symObjAddr: 0x9630, symBinAddr: 0xC720, symSize: 0x110 }
  - { offsetInCU: 0x2A01A, offset: 0x2A01A, size: 0x8, addend: 0x0, symName: '__ZN4core3ptr50drop_in_place$LT$syn..generics..TypeParamBound$GT$17had8bff03738f8324E', symObjAddr: 0x9740, symBinAddr: 0xC830, symSize: 0x80 }
  - { offsetInCU: 0x2A19F, offset: 0x2A19F, size: 0x8, addend: 0x0, symName: '__ZN4core3ptr50drop_in_place$LT$syn..generics..WherePredicate$GT$17h5708661b286a80c3E', symObjAddr: 0x97C0, symBinAddr: 0xC8B0, symSize: 0x110 }
  - { offsetInCU: 0x2A33F, offset: 0x2A33F, size: 0x8, addend: 0x0, symName: '__ZN4core3ptr51drop_in_place$LT$$u5b$syn..attr..Attribute$u5d$$GT$17h738196dd0bbcbfc0E.llvm.7077907673834236586', symObjAddr: 0x98D0, symBinAddr: 0xC9C0, symSize: 0x1A0 }
  - { offsetInCU: 0x2A725, offset: 0x2A725, size: 0x8, addend: 0x0, symName: '__ZN4core3ptr51drop_in_place$LT$$u5b$syn..item..TraitItem$u5d$$GT$17h71520bf63ab7bedaE.llvm.7077907673834236586', symObjAddr: 0x9A70, symBinAddr: 0xCB60, symSize: 0x9E0 }
  - { offsetInCU: 0x2C4CD, offset: 0x2C4CD, size: 0x8, addend: 0x0, symName: '__ZN4core3ptr53drop_in_place$LT$$u5b$syn..item..ForeignItem$u5d$$GT$17h19c1c098219e07f0E.llvm.7077907673834236586', symObjAddr: 0xA450, symBinAddr: 0xD540, symSize: 0xEC0 }
  - { offsetInCU: 0x2F481, offset: 0x2F481, size: 0x8, addend: 0x0, symName: '__ZN4core3ptr58drop_in_place$LT$alloc..vec..Vec$LT$syn..expr..Arm$GT$$GT$17hccb9a95c06f20bd3E', symObjAddr: 0xB310, symBinAddr: 0xE400, symSize: 0xD0 }
  - { offsetInCU: 0x2F748, offset: 0x2F748, size: 0x8, addend: 0x0, symName: '__ZN4core3ptr59drop_in_place$LT$alloc..boxed..Box$LT$syn..pat..Pat$GT$$GT$17h9bff5caf34a61968E.llvm.7077907673834236586', symObjAddr: 0xB3E0, symBinAddr: 0xE4D0, symSize: 0x50 }
  - { offsetInCU: 0x2F8A1, offset: 0x2F8A1, size: 0x8, addend: 0x0, symName: '__ZN4core3ptr59drop_in_place$LT$alloc..boxed..Box$LT$syn..ty..Type$GT$$GT$17hb6c1bba0aff0f067E.llvm.7077907673834236586', symObjAddr: 0xB430, symBinAddr: 0xE520, symSize: 0x50 }
  - { offsetInCU: 0x2F9FA, offset: 0x2F9FA, size: 0x8, addend: 0x0, symName: '__ZN4core3ptr59drop_in_place$LT$alloc..vec..Vec$LT$syn..item..Item$GT$$GT$17h21e4139acebccaf3E', symObjAddr: 0xB480, symBinAddr: 0xE570, symSize: 0xD0 }
  - { offsetInCU: 0x2FCC1, offset: 0x2FCC1, size: 0x8, addend: 0x0, symName: '__ZN4core3ptr59drop_in_place$LT$alloc..vec..Vec$LT$syn..stmt..Stmt$GT$$GT$17hadacb1ddbcf8869aE.llvm.7077907673834236586', symObjAddr: 0xB550, symBinAddr: 0xE640, symSize: 0x80 }
  - { offsetInCU: 0x2FF79, offset: 0x2FF79, size: 0x8, addend: 0x0, symName: '__ZN4core3ptr61drop_in_place$LT$alloc..boxed..Box$LT$syn..expr..Expr$GT$$GT$17h90106686e1a1275fE', symObjAddr: 0xB5D0, symBinAddr: 0xE6C0, symSize: 0x50 }
  - { offsetInCU: 0x300D2, offset: 0x300D2, size: 0x8, addend: 0x0, symName: '__ZN4core3ptr61drop_in_place$LT$alloc..boxed..Box$LT$syn..path..Path$GT$$GT$17h1845c1283f4ca7acE', symObjAddr: 0xB620, symBinAddr: 0xE710, symSize: 0x50 }
  - { offsetInCU: 0x30302, offset: 0x30302, size: 0x8, addend: 0x0, symName: '__ZN4core3ptr61drop_in_place$LT$syn..path..ParenthesizedGenericArguments$GT$17h64f1a6d01ff2b0dcE.llvm.7077907673834236586', symObjAddr: 0xB670, symBinAddr: 0xE760, symSize: 0x170 }
  - { offsetInCU: 0x308FF, offset: 0x308FF, size: 0x8, addend: 0x0, symName: '__ZN4core3ptr62drop_in_place$LT$alloc..boxed..Box$LT$syn..data..Field$GT$$GT$17h82c2660598f56ea7E', symObjAddr: 0xB7E0, symBinAddr: 0xE8D0, symSize: 0x50 }
  - { offsetInCU: 0x30A77, offset: 0x30A77, size: 0x8, addend: 0x0, symName: '__ZN4core3ptr62drop_in_place$LT$alloc..boxed..Box$LT$syn..item..FnArg$GT$$GT$17h877c1636c7fef846E', symObjAddr: 0xB830, symBinAddr: 0xE920, symSize: 0x60 }
  - { offsetInCU: 0x30BED, offset: 0x30BED, size: 0x8, addend: 0x0, symName: '__ZN4core3ptr62drop_in_place$LT$alloc..boxed..Box$LT$syn..stmt..Block$GT$$GT$17h202f83029423bd6fE', symObjAddr: 0xB890, symBinAddr: 0xE980, symSize: 0x90 }
  - { offsetInCU: 0x30FF5, offset: 0x30FF5, size: 0x8, addend: 0x0, symName: '__ZN4core3ptr62drop_in_place$LT$syn..path..AngleBracketedGenericArguments$GT$17h55553767c09a41feE.llvm.7077907673834236586', symObjAddr: 0xB920, symBinAddr: 0xEA10, symSize: 0x120 }
  - { offsetInCU: 0x31477, offset: 0x31477, size: 0x8, addend: 0x0, symName: '__ZN4core3ptr63drop_in_place$LT$alloc..vec..Vec$LT$syn..item..ImplItem$GT$$GT$17h9e8ea4c33cf8e01fE', symObjAddr: 0xBA40, symBinAddr: 0xEB30, symSize: 0x80 }
  - { offsetInCU: 0x3172F, offset: 0x3172F, size: 0x8, addend: 0x0, symName: '__ZN4core3ptr64drop_in_place$LT$alloc..boxed..Box$LT$syn..data..Variant$GT$$GT$17hddc71ca8adbb333fE', symObjAddr: 0xBAC0, symBinAddr: 0xEBB0, symSize: 0x50 }
  - { offsetInCU: 0x31888, offset: 0x31888, size: 0x8, addend: 0x0, symName: '__ZN4core3ptr64drop_in_place$LT$alloc..boxed..Box$LT$syn..item..UseTree$GT$$GT$17h720b632bb959368fE', symObjAddr: 0xBB10, symBinAddr: 0xEC00, symSize: 0x50 }
  - { offsetInCU: 0x31A1F, offset: 0x31A1F, size: 0x8, addend: 0x0, symName: '__ZN4core3ptr64drop_in_place$LT$alloc..boxed..Box$LT$syn..pat..FieldPat$GT$$GT$17h03d264fdc78b562bE', symObjAddr: 0xBB60, symBinAddr: 0xEC50, symSize: 0x100 }
  - { offsetInCU: 0x320E4, offset: 0x320E4, size: 0x8, addend: 0x0, symName: '__ZN4core3ptr64drop_in_place$LT$alloc..boxed..Box$LT$syn..ty..BareFnArg$GT$$GT$17he8d97e39f0b89c78E', symObjAddr: 0xBC60, symBinAddr: 0xED50, symSize: 0xA0 }
  - { offsetInCU: 0x32388, offset: 0x32388, size: 0x8, addend: 0x0, symName: '__ZN4core3ptr64drop_in_place$LT$alloc..vec..Vec$LT$syn..attr..Attribute$GT$$GT$17h1fd79fc0acd41e39E.llvm.7077907673834236586', symObjAddr: 0xBD00, symBinAddr: 0xEDF0, symSize: 0xF0 }
  - { offsetInCU: 0x32668, offset: 0x32668, size: 0x8, addend: 0x0, symName: '__ZN4core3ptr64drop_in_place$LT$alloc..vec..Vec$LT$syn..item..TraitItem$GT$$GT$17h6716fb999698345aE', symObjAddr: 0xBDF0, symBinAddr: 0xEEE0, symSize: 0x80 }
  - { offsetInCU: 0x32920, offset: 0x32920, size: 0x8, addend: 0x0, symName: '__ZN4core3ptr65drop_in_place$LT$$LP$syn..item..FnArg$C$syn..token..Comma$RP$$GT$17hc1b41e290d81ee8cE.llvm.7077907673834236586', symObjAddr: 0xBE70, symBinAddr: 0xEF60, symSize: 0x20 }
  - { offsetInCU: 0x3299A, offset: 0x3299A, size: 0x8, addend: 0x0, symName: '__ZN4core3ptr65drop_in_place$LT$alloc..vec..Vec$LT$alloc..string..String$GT$$GT$17h301d10e63243b027E.llvm.7077907673834236586', symObjAddr: 0xBE90, symBinAddr: 0xEF80, symSize: 0x90 }
  - { offsetInCU: 0x32C2E, offset: 0x32C2E, size: 0x8, addend: 0x0, symName: '__ZN4core3ptr65drop_in_place$LT$alloc..vec..Vec$LT$proc_macro..TokenTree$GT$$GT$17hde00f9b38ede6167E.llvm.7077907673834236586', symObjAddr: 0xBF20, symBinAddr: 0xF010, symSize: 0x110 }
  - { offsetInCU: 0x3302D, offset: 0x3302D, size: 0x8, addend: 0x0, symName: '__ZN4core3ptr65drop_in_place$LT$core..option..Option$LT$syn..expr..Label$GT$$GT$17he64e3930a30e77f6E', symObjAddr: 0xC030, symBinAddr: 0xF120, symSize: 0x30 }
  - { offsetInCU: 0x331A5, offset: 0x331A5, size: 0x8, addend: 0x0, symName: '__ZN4core3ptr66drop_in_place$LT$alloc..vec..Vec$LT$proc_macro2..TokenTree$GT$$GT$17h58a9e98693a26ea3E', symObjAddr: 0xC060, symBinAddr: 0xF150, symSize: 0xC0 }
  - { offsetInCU: 0x3347D, offset: 0x3347D, size: 0x8, addend: 0x0, symName: '__ZN4core3ptr66drop_in_place$LT$alloc..vec..Vec$LT$syn..item..ForeignItem$GT$$GT$17hadc53e2868c0bce5E', symObjAddr: 0xC120, symBinAddr: 0xF210, symSize: 0x80 }
  - { offsetInCU: 0x33735, offset: 0x33735, size: 0x8, addend: 0x0, symName: '__ZN4core3ptr67drop_in_place$LT$$LP$syn..pat..FieldPat$C$syn..token..Comma$RP$$GT$17h21637fb303279f28E.llvm.7077907673834236586', symObjAddr: 0xC1A0, symBinAddr: 0xF290, symSize: 0xF0 }
  - { offsetInCU: 0x33C87, offset: 0x33C87, size: 0x8, addend: 0x0, symName: '__ZN4core3ptr67drop_in_place$LT$$LP$syn..ty..BareFnArg$C$syn..token..Comma$RP$$GT$17h35703698b834f776E.llvm.7077907673834236586', symObjAddr: 0xC290, symBinAddr: 0xF380, symSize: 0x80 }
  - { offsetInCU: 0x33DE4, offset: 0x33DE4, size: 0x8, addend: 0x0, symName: '__ZN4core3ptr67drop_in_place$LT$alloc..boxed..Box$LT$syn..attr..NestedMeta$GT$$GT$17h2f331786b6207a45E.llvm.7077907673834236586', symObjAddr: 0xC310, symBinAddr: 0xF400, symSize: 0x180 }
  - { offsetInCU: 0x3411D, offset: 0x3411D, size: 0x8, addend: 0x0, symName: '__ZN4core3ptr67drop_in_place$LT$alloc..boxed..Box$LT$syn..expr..FieldValue$GT$$GT$17h6c7d8efb2b208feeE', symObjAddr: 0xC490, symBinAddr: 0xF580, symSize: 0xE0 }
  - { offsetInCU: 0x3465A, offset: 0x3465A, size: 0x8, addend: 0x0, symName: '__ZN4core3ptr68drop_in_place$LT$alloc..boxed..Box$LT$syn..path..PathSegment$GT$$GT$17hc7e1d64fe882c378E', symObjAddr: 0xC570, symBinAddr: 0xF660, symSize: 0xD0 }
  - { offsetInCU: 0x34A53, offset: 0x34A53, size: 0x8, addend: 0x0, symName: '__ZN4core3ptr70drop_in_place$LT$$LP$syn..attr..NestedMeta$C$syn..token..Comma$RP$$GT$17hd81588fa8bb7c03dE.llvm.7077907673834236586', symObjAddr: 0xC640, symBinAddr: 0xF730, symSize: 0x30 }
  - { offsetInCU: 0x34A8F, offset: 0x34A8F, size: 0x8, addend: 0x0, symName: '__ZN4core3ptr70drop_in_place$LT$$LP$syn..expr..FieldValue$C$syn..token..Comma$RP$$GT$17h2d207fbf9c6524a8E.llvm.7077907673834236586', symObjAddr: 0xC670, symBinAddr: 0xF760, symSize: 0xD0 }
  - { offsetInCU: 0x34E89, offset: 0x34E89, size: 0x8, addend: 0x0, symName: '__ZN4core3ptr72drop_in_place$LT$$LP$syn..path..PathSegment$C$syn..token..Colon2$RP$$GT$17hbc56e697bd2d4321E.llvm.7077907673834236586', symObjAddr: 0xC740, symBinAddr: 0xF830, symSize: 0xC0 }
  - { offsetInCU: 0x3514C, offset: 0x3514C, size: 0x8, addend: 0x0, symName: '__ZN4core3ptr72drop_in_place$LT$alloc..boxed..Box$LT$syn..generics..LifetimeDef$GT$$GT$17h7b1fb05184fd15feE', symObjAddr: 0xC800, symBinAddr: 0xF8F0, symSize: 0x80 }
  - { offsetInCU: 0x353FB, offset: 0x353FB, size: 0x8, addend: 0x0, symName: '__ZN4core3ptr72drop_in_place$LT$alloc..boxed..Box$LT$syn..path..GenericArgument$GT$$GT$17hbeacc7d49176e2b8E.llvm.7077907673834236586', symObjAddr: 0xC880, symBinAddr: 0xF970, symSize: 0x220 }
  - { offsetInCU: 0x35C6B, offset: 0x35C6B, size: 0x8, addend: 0x0, symName: '__ZN4core3ptr73drop_in_place$LT$alloc..boxed..Box$LT$syn..generics..GenericParam$GT$$GT$17ha372b17d4001c959E', symObjAddr: 0xCAA0, symBinAddr: 0xFB90, symSize: 0x80 }
  - { offsetInCU: 0x35DE1, offset: 0x35DE1, size: 0x8, addend: 0x0, symName: '__ZN4core3ptr75drop_in_place$LT$$LP$syn..generics..LifetimeDef$C$syn..token..Comma$RP$$GT$17h08625ac287b4c772E.llvm.7077907673834236586', symObjAddr: 0xCB20, symBinAddr: 0xFC10, symSize: 0x60 }
  - { offsetInCU: 0x35F1E, offset: 0x35F1E, size: 0x8, addend: 0x0, symName: '__ZN4core3ptr75drop_in_place$LT$$LP$syn..path..GenericArgument$C$syn..token..Comma$RP$$GT$17h3185464eb61c0fb0E.llvm.7077907673834236586', symObjAddr: 0xCB80, symBinAddr: 0xFC70, symSize: 0x220 }
  - { offsetInCU: 0x36652, offset: 0x36652, size: 0x8, addend: 0x0, symName: '__ZN4core3ptr75drop_in_place$LT$alloc..boxed..Box$LT$syn..generics..TypeParamBound$GT$$GT$17hd37835668efda9f9E', symObjAddr: 0xCDA0, symBinAddr: 0xFE90, symSize: 0x150 }
  - { offsetInCU: 0x36BFF, offset: 0x36BFF, size: 0x8, addend: 0x0, symName: '__ZN4core3ptr75drop_in_place$LT$alloc..boxed..Box$LT$syn..generics..WherePredicate$GT$$GT$17h97fd30fadcf9c7e0E', symObjAddr: 0xCEF0, symBinAddr: 0xFFE0, symSize: 0xD0 }
  - { offsetInCU: 0x36EA7, offset: 0x36EA7, size: 0x8, addend: 0x0, symName: '__ZN4core3ptr76drop_in_place$LT$$LP$syn..generics..GenericParam$C$syn..token..Comma$RP$$GT$17h555d6bea25a0dcbfE.llvm.7077907673834236586', symObjAddr: 0xCFC0, symBinAddr: 0x100B0, symSize: 0x50 }
  - { offsetInCU: 0x36EE3, offset: 0x36EE3, size: 0x8, addend: 0x0, symName: '__ZN4core3ptr76drop_in_place$LT$$LP$syn..generics..TypeParamBound$C$syn..token..Add$RP$$GT$17h79be05d0047c9e87E.llvm.7077907673834236586', symObjAddr: 0xD010, symBinAddr: 0x10100, symSize: 0x160 }
  - { offsetInCU: 0x37362, offset: 0x37362, size: 0x8, addend: 0x0, symName: '__ZN4core3ptr78drop_in_place$LT$$LP$syn..generics..WherePredicate$C$syn..token..Comma$RP$$GT$17h164f3f60e9ce90f8E.llvm.7077907673834236586', symObjAddr: 0xD170, symBinAddr: 0x10260, symSize: 0xA0 }
  - { offsetInCU: 0x374DA, offset: 0x374DA, size: 0x8, addend: 0x0, symName: '__ZN4core3ptr78drop_in_place$LT$alloc..boxed..Box$LT$syn..expr..GenericMethodArgument$GT$$GT$17h2ba1c45210c2d620E', symObjAddr: 0xD210, symBinAddr: 0x10300, symSize: 0x60 }
  - { offsetInCU: 0x37650, offset: 0x37650, size: 0x8, addend: 0x0, symName: '__ZN4core3ptr81drop_in_place$LT$$LP$syn..expr..GenericMethodArgument$C$syn..token..Comma$RP$$GT$17h5bacf102eab1069fE.llvm.7077907673834236586', symObjAddr: 0xD270, symBinAddr: 0x10360, symSize: 0x30 }
  - { offsetInCU: 0x3768C, offset: 0x3768C, size: 0x8, addend: 0x0, symName: '__ZN4core3ptr86drop_in_place$LT$$LP$syn..token..Eq$C$alloc..boxed..Box$LT$syn..expr..Expr$GT$$RP$$GT$17hf0c18bb5e8232bf3E', symObjAddr: 0xD2A0, symBinAddr: 0x10390, symSize: 0x50 }
  - { offsetInCU: 0x37804, offset: 0x37804, size: 0x8, addend: 0x0, symName: '__ZN4core3ptr86drop_in_place$LT$$u5b$$LP$syn..generics..TypeParamBound$C$syn..token..Add$RP$$u5d$$GT$17h209a7fa8291fb8f8E', symObjAddr: 0xD2F0, symBinAddr: 0x103E0, symSize: 0xE0 }
  - { offsetInCU: 0x37A56, offset: 0x37A56, size: 0x8, addend: 0x0, symName: '__ZN4core3ptr86drop_in_place$LT$syn..punctuated..Punctuated$LT$syn..pat..Pat$C$syn..token..Or$GT$$GT$17h079000a46246a98aE', symObjAddr: 0xD3D0, symBinAddr: 0x104C0, symSize: 0x120 }
  - { offsetInCU: 0x37EEF, offset: 0x37EEF, size: 0x8, addend: 0x0, symName: '__ZN4core3ptr87drop_in_place$LT$core..option..Option$LT$alloc..boxed..Box$LT$syn..ty..Type$GT$$GT$$GT$17h7b310415308d2219E', symObjAddr: 0xD4F0, symBinAddr: 0x105E0, symSize: 0x50 }
  - { offsetInCU: 0x3805F, offset: 0x3805F, size: 0x8, addend: 0x0, symName: '__ZN4core3ptr89drop_in_place$LT$core..option..Option$LT$alloc..boxed..Box$LT$syn..expr..Expr$GT$$GT$$GT$17h1862cb574e5ecf32E', symObjAddr: 0xD540, symBinAddr: 0x10630, symSize: 0x50 }
  - { offsetInCU: 0x381CF, offset: 0x381CF, size: 0x8, addend: 0x0, symName: '__ZN4core3ptr89drop_in_place$LT$syn..punctuated..Punctuated$LT$syn..ty..Type$C$syn..token..Comma$GT$$GT$17h2c59318ff8918ba8E.llvm.7077907673834236586', symObjAddr: 0xD590, symBinAddr: 0x10680, symSize: 0x120 }
  - { offsetInCU: 0x38651, offset: 0x38651, size: 0x8, addend: 0x0, symName: '__ZN4core3ptr90drop_in_place$LT$core..option..Option$LT$alloc..boxed..Box$LT$syn..data..Field$GT$$GT$$GT$17h98623dd57475901eE', symObjAddr: 0xD6B0, symBinAddr: 0x107A0, symSize: 0x50 }
  - { offsetInCU: 0x387C1, offset: 0x387C1, size: 0x8, addend: 0x0, symName: '__ZN4core3ptr90drop_in_place$LT$core..option..Option$LT$alloc..boxed..Box$LT$syn..item..FnArg$GT$$GT$$GT$17hbfc8915c06bc453aE', symObjAddr: 0xD700, symBinAddr: 0x107F0, symSize: 0x50 }
  - { offsetInCU: 0x389AD, offset: 0x389AD, size: 0x8, addend: 0x0, symName: '__ZN4core3ptr91drop_in_place$LT$syn..punctuated..Punctuated$LT$syn..expr..Expr$C$syn..token..Comma$GT$$GT$17hab7a0b21dd305247E', symObjAddr: 0xD750, symBinAddr: 0x10840, symSize: 0x120 }
  - { offsetInCU: 0x38E42, offset: 0x38E42, size: 0x8, addend: 0x0, symName: '__ZN4core3ptr92drop_in_place$LT$core..option..Option$LT$$LP$syn..token..As$C$proc_macro2..Ident$RP$$GT$$GT$17habfef0f4ad2bce69E', symObjAddr: 0xD870, symBinAddr: 0x10960, symSize: 0x30 }
  - { offsetInCU: 0x38F5D, offset: 0x38F5D, size: 0x8, addend: 0x0, symName: '__ZN4core3ptr92drop_in_place$LT$syn..punctuated..Punctuated$LT$syn..data..Field$C$syn..token..Comma$GT$$GT$17h4da5fda87ccf2ef4E', symObjAddr: 0xD8A0, symBinAddr: 0x10990, symSize: 0x120 }
  - { offsetInCU: 0x393DF, offset: 0x393DF, size: 0x8, addend: 0x0, symName: '__ZN4core3ptr92drop_in_place$LT$syn..punctuated..Punctuated$LT$syn..item..FnArg$C$syn..token..Comma$GT$$GT$17he189c5c7fc43a249E', symObjAddr: 0xD9C0, symBinAddr: 0x10AB0, symSize: 0x150 }
  - { offsetInCU: 0x39870, offset: 0x39870, size: 0x8, addend: 0x0, symName: '__ZN4core3ptr93drop_in_place$LT$alloc..vec..Vec$LT$$LP$syn..attr..NestedMeta$C$syn..token..Comma$RP$$GT$$GT$17h2ce055e17472dcacE.llvm.7077907673834236586', symObjAddr: 0xDB10, symBinAddr: 0x10C00, symSize: 0xF0 }
  - { offsetInCU: 0x39C21, offset: 0x39C21, size: 0x8, addend: 0x0, symName: '__ZN4core3ptr94drop_in_place$LT$syn..punctuated..Punctuated$LT$syn..data..Variant$C$syn..token..Comma$GT$$GT$17h3a247c2fcfb0cc38E', symObjAddr: 0xDC00, symBinAddr: 0x10CF0, symSize: 0x120 }
  - { offsetInCU: 0x3A132, offset: 0x3A132, size: 0x8, addend: 0x0, symName: '__ZN4core3ptr94drop_in_place$LT$syn..punctuated..Punctuated$LT$syn..pat..FieldPat$C$syn..token..Comma$GT$$GT$17he7e26d1e1aa55800E', symObjAddr: 0xDD20, symBinAddr: 0x10E10, symSize: 0xF0 }
  - { offsetInCU: 0x3A4E6, offset: 0x3A4E6, size: 0x8, addend: 0x0, symName: '__ZN4core3ptr94drop_in_place$LT$syn..punctuated..Punctuated$LT$syn..ty..BareFnArg$C$syn..token..Comma$GT$$GT$17hc9e70e44d16cbea3E', symObjAddr: 0xDE10, symBinAddr: 0x10F00, symSize: 0x1B0 }
  - { offsetInCU: 0x3A9AC, offset: 0x3A9AC, size: 0x8, addend: 0x0, symName: '__ZN4core3ptr95drop_in_place$LT$core..option..Option$LT$$LP$proc_macro2..Ident$C$syn..token..Colon$RP$$GT$$GT$17h3c30e51f13a9aba8E.llvm.7077907673834236586', symObjAddr: 0xDFC0, symBinAddr: 0x110B0, symSize: 0x30 }
  - { offsetInCU: 0x3AAC7, offset: 0x3AAC7, size: 0x8, addend: 0x0, symName: '__ZN4core3ptr95drop_in_place$LT$core..option..Option$LT$alloc..boxed..Box$LT$syn..attr..NestedMeta$GT$$GT$$GT$17h66db5944eacf134eE.llvm.7077907673834236586', symObjAddr: 0xDFF0, symBinAddr: 0x110E0, symSize: 0xC0 }
  - { offsetInCU: 0x3AC21, offset: 0x3AC21, size: 0x8, addend: 0x0, symName: '__ZN4core3ptr96drop_in_place$LT$core..option..Option$LT$alloc..boxed..Box$LT$syn..path..PathSegment$GT$$GT$$GT$17h736d4914be8ccd56E.llvm.7077907673834236586', symObjAddr: 0xE0B0, symBinAddr: 0x111A0, symSize: 0x90 }
  - { offsetInCU: 0x3AEBF, offset: 0x3AEBF, size: 0x8, addend: 0x0, symName: '__ZN4core3ptr97drop_in_place$LT$syn..punctuated..Punctuated$LT$syn..attr..NestedMeta$C$syn..token..Comma$GT$$GT$17h219fa196e5f53ad5E.llvm.7077907673834236586', symObjAddr: 0xE190, symBinAddr: 0x11230, symSize: 0x110 }
  - { offsetInCU: 0x3B268, offset: 0x3B268, size: 0x8, addend: 0x0, symName: '__ZN4core3ptr97drop_in_place$LT$syn..punctuated..Punctuated$LT$syn..expr..FieldValue$C$syn..token..Comma$GT$$GT$17hebc649b207814284E', symObjAddr: 0xE2A0, symBinAddr: 0x11340, symSize: 0xF0 }
  - { offsetInCU: 0x3B61A, offset: 0x3B61A, size: 0x8, addend: 0x0, symName: '__ZN4core3ptr97drop_in_place$LT$syn..punctuated..Punctuated$LT$syn..lifetime..Lifetime$C$syn..token..Add$GT$$GT$17h0798ccbf56150115E.llvm.7077907673834236586', symObjAddr: 0xE390, symBinAddr: 0x11430, symSize: 0xD0 }
  - { offsetInCU: 0x3BA8C, offset: 0x3BA8C, size: 0x8, addend: 0x0, symName: '__ZN4core3ptr99drop_in_place$LT$syn..punctuated..Punctuated$LT$syn..path..PathSegment$C$syn..token..Colon2$GT$$GT$17hc0e11ab31c22306eE.llvm.7077907673834236586', symObjAddr: 0xE460, symBinAddr: 0x11500, symSize: 0x1A0 }
  - { offsetInCU: 0x3D999, offset: 0x3D999, size: 0x8, addend: 0x0, symName: '__ZN48_$LT$T$u20$as$u20$core..clone..CloneToUninit$GT$15clone_to_uninit17h63c332d41bc48d15E', symObjAddr: 0xB0, symBinAddr: 0x3230, symSize: 0x330 }
  - { offsetInCU: 0x3E758, offset: 0x3E758, size: 0x8, addend: 0x0, symName: '__ZN136_$LT$alloc..vec..Vec$LT$T$C$A$GT$$u20$as$u20$alloc..vec..spec_extend..SpecExtend$LT$T$C$alloc..vec..into_iter..IntoIter$LT$T$GT$$GT$$GT$11spec_extend17h5ab91cb30cffe296E', symObjAddr: 0x0, symBinAddr: 0x3180, symSize: 0xB0 }
  - { offsetInCU: 0x3EB0D, offset: 0x3EB0D, size: 0x8, addend: 0x0, symName: '__ZN97_$LT$alloc..vec..Vec$LT$T$C$A$GT$$u20$as$u20$alloc..vec..spec_extend..SpecExtend$LT$T$C$I$GT$$GT$11spec_extend17h3396ce1d208118efE', symObjAddr: 0xF8E0, symBinAddr: 0x11ED0, symSize: 0x0 }
  - { offsetInCU: 0x3F52A, offset: 0x3F52A, size: 0x8, addend: 0x0, symName: '__ZN67_$LT$alloc..vec..Vec$LT$T$C$A$GT$$u20$as$u20$core..clone..Clone$GT$5clone17h6e8e02e8dacbbddaE', symObjAddr: 0xE760, symBinAddr: 0x11800, symSize: 0x140 }
  - { offsetInCU: 0x3F906, offset: 0x3F906, size: 0x8, addend: 0x0, symName: '__ZN67_$LT$alloc..vec..Vec$LT$T$C$A$GT$$u20$as$u20$core..clone..Clone$GT$5clone17he111b53e13009e78E', symObjAddr: 0xE950, symBinAddr: 0x11940, symSize: 0x130 }
  - { offsetInCU: 0x401E2, offset: 0x401E2, size: 0x8, addend: 0x0, symName: '__ZN70_$LT$alloc..vec..Vec$LT$T$C$A$GT$$u20$as$u20$core..ops..drop..Drop$GT$4drop17h544cf39d5d82d456E', symObjAddr: 0xEBD0, symBinAddr: 0x11A70, symSize: 0x80 }
  - { offsetInCU: 0x4026C, offset: 0x4026C, size: 0x8, addend: 0x0, symName: '__ZN70_$LT$alloc..vec..Vec$LT$T$C$A$GT$$u20$as$u20$core..ops..drop..Drop$GT$4drop17h76093fd6e7ae65d8E', symObjAddr: 0xEE40, symBinAddr: 0x11AF0, symSize: 0xC0 }
  - { offsetInCU: 0x402CE, offset: 0x402CE, size: 0x8, addend: 0x0, symName: '__ZN70_$LT$alloc..vec..Vec$LT$T$C$A$GT$$u20$as$u20$core..ops..drop..Drop$GT$4drop17h7c81a2cccab4ddd8E', symObjAddr: 0xEF00, symBinAddr: 0x11BB0, symSize: 0xB0 }
  - { offsetInCU: 0x40405, offset: 0x40405, size: 0x8, addend: 0x0, symName: '__ZN70_$LT$alloc..vec..Vec$LT$T$C$A$GT$$u20$as$u20$core..ops..drop..Drop$GT$4drop17h85c1071db46e3915E', symObjAddr: 0xEFB0, symBinAddr: 0x11C60, symSize: 0x80 }
  - { offsetInCU: 0x404C3, offset: 0x404C3, size: 0x8, addend: 0x0, symName: '__ZN70_$LT$alloc..vec..Vec$LT$T$C$A$GT$$u20$as$u20$core..ops..drop..Drop$GT$4drop17hcaa4fbee3b619ad6E', symObjAddr: 0xF3C0, symBinAddr: 0x11CE0, symSize: 0xA0 }
  - { offsetInCU: 0x40578, offset: 0x40578, size: 0x8, addend: 0x0, symName: '__ZN70_$LT$alloc..vec..Vec$LT$T$C$A$GT$$u20$as$u20$core..ops..drop..Drop$GT$4drop17hdedba46975e7126cE', symObjAddr: 0xF480, symBinAddr: 0x11D80, symSize: 0xD0 }
  - { offsetInCU: 0x406C5, offset: 0x406C5, size: 0x8, addend: 0x0, symName: '__ZN70_$LT$alloc..vec..Vec$LT$T$C$A$GT$$u20$as$u20$core..ops..drop..Drop$GT$4drop17he8d32e57369360a1E', symObjAddr: 0xF620, symBinAddr: 0x11E50, symSize: 0x80 }
  - { offsetInCU: 0x40962, offset: 0x40962, size: 0x8, addend: 0x0, symName: '__ZN5alloc3vec16in_place_collect108_$LT$impl$u20$alloc..vec..spec_from_iter..SpecFromIter$LT$T$C$I$GT$$u20$for$u20$alloc..vec..Vec$LT$T$GT$$GT$9from_iter17h5ec0fd5fc543c069E', symObjAddr: 0xE600, symBinAddr: 0x116A0, symSize: 0x160 }
  - { offsetInCU: 0x4103E, offset: 0x4103E, size: 0x8, addend: 0x0, symName: '__ZN98_$LT$alloc..vec..Vec$LT$T$GT$$u20$as$u20$alloc..vec..spec_from_iter..SpecFromIter$LT$T$C$I$GT$$GT$9from_iter17hdd453abd2bc4433dE', symObjAddr: 0xFBF0, symBinAddr: 0x121E0, symSize: 0x232 }
  - { offsetInCU: 0x1E, offset: 0x52B42, size: 0x8, addend: 0x0, symName: __ZN5alloc7raw_vec11finish_grow17h9fa3d6c6c185ab94E.llvm.1307534604953085414, symObjAddr: 0x0, symBinAddr: 0x12420, symSize: 0xA0 }
  - { offsetInCU: 0x4235, offset: 0x56D59, size: 0x8, addend: 0x0, symName: __ZN5alloc7raw_vec11finish_grow17h9fa3d6c6c185ab94E.llvm.1307534604953085414, symObjAddr: 0x0, symBinAddr: 0x12420, symSize: 0xA0 }
  - { offsetInCU: 0x5311, offset: 0x57E35, size: 0x8, addend: 0x0, symName: '__ZN5alloc7raw_vec19RawVec$LT$T$C$A$GT$7reserve21do_reserve_and_handle17h5b474897dc76aff1E', symObjAddr: 0x510, symBinAddr: 0x217880, symSize: 0xA0 }
  - { offsetInCU: 0x5609, offset: 0x5812D, size: 0x8, addend: 0x0, symName: '__ZN5alloc7raw_vec19RawVec$LT$T$C$A$GT$7reserve21do_reserve_and_handle17hb399663564997de3E', symObjAddr: 0x5B0, symBinAddr: 0x217920, symSize: 0xC0 }
  - { offsetInCU: 0x5936, offset: 0x5845A, size: 0x8, addend: 0x0, symName: '__ZN5alloc7raw_vec19RawVec$LT$T$C$A$GT$7reserve21do_reserve_and_handle17hf096cb64a3662f46E', symObjAddr: 0x7E0, symBinAddr: 0x2179E0, symSize: 0xC0 }
  - { offsetInCU: 0xC152, offset: 0x5EC76, size: 0x8, addend: 0x0, symName: '__ZN5alloc7raw_vec19RawVec$LT$T$C$A$GT$8grow_one17h83ec99a0894f47edE', symObjAddr: 0x8A0, symBinAddr: 0x124C0, symSize: 0xC0 }
  - { offsetInCU: 0xC491, offset: 0x5EFB5, size: 0x8, addend: 0x0, symName: '__ZN5alloc7raw_vec19RawVec$LT$T$C$A$GT$8grow_one17h8aee104b9f0346ceE', symObjAddr: 0x960, symBinAddr: 0x12580, symSize: 0xB0 }
  - { offsetInCU: 0xC7D0, offset: 0x5F2F4, size: 0x8, addend: 0x0, symName: '__ZN5alloc7raw_vec19RawVec$LT$T$C$A$GT$8grow_one17hc8508cb8efbe2a3cE', symObjAddr: 0xA10, symBinAddr: 0x12630, symSize: 0xA0 }
  - { offsetInCU: 0xCAD2, offset: 0x5F5F6, size: 0x8, addend: 0x0, symName: '__ZN5alloc7raw_vec19RawVec$LT$T$C$A$GT$8grow_one17hd03b445dfa44a1c2E', symObjAddr: 0xAB0, symBinAddr: 0x126D0, symSize: 0xC0 }
  - { offsetInCU: 0x1E, offset: 0x5FA59, size: 0x8, addend: 0x0, symName: __ZN10proc_macro6bridge6client14HandleCounters3get17h2c76d49220b98e92E, symObjAddr: 0x0, symBinAddr: 0x12790, symSize: 0x10 }
  - { offsetInCU: 0xBE, offset: 0x5FAF9, size: 0x8, addend: 0x0, symName: '__ZN58_$LT$alloc..string..String$u20$as$u20$core..fmt..Write$GT$10write_char17h04bc467bd68a934bE', symObjAddr: 0xAA60, symBinAddr: 0x1D1F0, symSize: 0x140 }
  - { offsetInCU: 0x4C3, offset: 0x5FEFE, size: 0x8, addend: 0x0, symName: '__ZN58_$LT$alloc..string..String$u20$as$u20$core..fmt..Write$GT$9write_str17h46a93205c3443fbaE', symObjAddr: 0xABA0, symBinAddr: 0x1D330, symSize: 0x60 }
  - { offsetInCU: 0x454C, offset: 0x63F87, size: 0x8, addend: 0x0, symName: '__ZN4core3ptr100drop_in_place$LT$core..option..Option$LT$alloc..boxed..Box$LT$syn..generics..LifetimeDef$GT$$GT$$GT$17h3899ca5c2432ed32E', symObjAddr: 0x10, symBinAddr: 0x127A0, symSize: 0x50 }
  - { offsetInCU: 0x46CE, offset: 0x64109, size: 0x8, addend: 0x0, symName: '__ZN4core3ptr100drop_in_place$LT$core..option..Option$LT$alloc..boxed..Box$LT$syn..path..GenericArgument$GT$$GT$$GT$17h8f0a837edb1aa051E', symObjAddr: 0x60, symBinAddr: 0x127F0, symSize: 0x50 }
  - { offsetInCU: 0x49B2, offset: 0x643ED, size: 0x8, addend: 0x0, symName: '__ZN4core3ptr101drop_in_place$LT$core..option..Option$LT$alloc..boxed..Box$LT$syn..generics..GenericParam$GT$$GT$$GT$17hd5fe1fed536eea79E', symObjAddr: 0xB0, symBinAddr: 0x12840, symSize: 0x310 }
  - { offsetInCU: 0x53ED, offset: 0x64E28, size: 0x8, addend: 0x0, symName: '__ZN4core3ptr103drop_in_place$LT$core..option..Option$LT$alloc..boxed..Box$LT$syn..generics..WherePredicate$GT$$GT$$GT$17h58b010433e2ef286E', symObjAddr: 0x3C0, symBinAddr: 0x12B50, symSize: 0x120 }
  - { offsetInCU: 0x57A2, offset: 0x651DD, size: 0x8, addend: 0x0, symName: '__ZN4core3ptr103drop_in_place$LT$syn..punctuated..Punctuated$LT$syn..generics..TypeParamBound$C$syn..token..Add$GT$$GT$17h9e2d2e603068e83aE', symObjAddr: 0x4E0, symBinAddr: 0x12C70, symSize: 0x160 }
  - { offsetInCU: 0x5DFB, offset: 0x65836, size: 0x8, addend: 0x0, symName: '__ZN4core3ptr108drop_in_place$LT$syn..punctuated..Punctuated$LT$syn..expr..GenericMethodArgument$C$syn..token..Comma$GT$$GT$17h4b6587da36ced0fcE', symObjAddr: 0x640, symBinAddr: 0x12DD0, symSize: 0x150 }
  - { offsetInCU: 0x62F7, offset: 0x65D32, size: 0x8, addend: 0x0, symName: '__ZN4core3ptr115drop_in_place$LT$core..option..Option$LT$$LP$syn..token..Brace$C$alloc..vec..Vec$LT$syn..item..Item$GT$$RP$$GT$$GT$17he932d4f54e38b009E', symObjAddr: 0x790, symBinAddr: 0x12F20, symSize: 0xD0 }
  - { offsetInCU: 0x660E, offset: 0x66049, size: 0x8, addend: 0x0, symName: '__ZN4core3ptr126drop_in_place$LT$core..option..Option$LT$$LP$syn..token..And$C$core..option..Option$LT$syn..lifetime..Lifetime$GT$$RP$$GT$$GT$17h0470d71f478a1896E', symObjAddr: 0x860, symBinAddr: 0x12FF0, symSize: 0x30 }
  - { offsetInCU: 0x6821, offset: 0x6625C, size: 0x8, addend: 0x0, symName: '__ZN4core3ptr34drop_in_place$LT$syn..lit..Lit$GT$17h13298495a2f812f1E', symObjAddr: 0x890, symBinAddr: 0x13020, symSize: 0x110 }
  - { offsetInCU: 0x6CF0, offset: 0x6672B, size: 0x8, addend: 0x0, symName: '__ZN4core3ptr34drop_in_place$LT$syn..pat..Pat$GT$17h0d0a9b563b5dbf26E', symObjAddr: 0x9A0, symBinAddr: 0x13130, symSize: 0x1190 }
  - { offsetInCU: 0xABE9, offset: 0x6A624, size: 0x8, addend: 0x0, symName: '__ZN4core3ptr34drop_in_place$LT$syn..ty..Type$GT$17h27c6c91ce96053beE', symObjAddr: 0x1B30, symBinAddr: 0x142C0, symSize: 0x540 }
  - { offsetInCU: 0xBE06, offset: 0x6B841, size: 0x8, addend: 0x0, symName: '__ZN4core3ptr36drop_in_place$LT$syn..attr..Meta$GT$17hace024f094043921E', symObjAddr: 0x2070, symBinAddr: 0x14800, symSize: 0xB0 }
  - { offsetInCU: 0xC515, offset: 0x6BF50, size: 0x8, addend: 0x0, symName: '__ZN4core3ptr36drop_in_place$LT$syn..expr..Expr$GT$17h22b5966f62e8bb79E', symObjAddr: 0x2120, symBinAddr: 0x148B0, symSize: 0x3050 }
  - { offsetInCU: 0x1729E, offset: 0x76CD9, size: 0x8, addend: 0x0, symName: '__ZN4core3ptr36drop_in_place$LT$syn..item..Item$GT$17he67e385dd44ec589E', symObjAddr: 0x5170, symBinAddr: 0x17900, symSize: 0x1950 }
  - { offsetInCU: 0x1D189, offset: 0x7CBC4, size: 0x8, addend: 0x0, symName: '__ZN4core3ptr36drop_in_place$LT$syn..mac..Macro$GT$17h51b7807cf53b2cdeE', symObjAddr: 0x6AC0, symBinAddr: 0x19250, symSize: 0x40 }
  - { offsetInCU: 0x1D2DA, offset: 0x7CD15, size: 0x8, addend: 0x0, symName: '__ZN4core3ptr36drop_in_place$LT$syn..path..Path$GT$17h0dfa334735d579c8E', symObjAddr: 0x6B00, symBinAddr: 0x19290, symSize: 0x230 }
  - { offsetInCU: 0x1DCAE, offset: 0x7D6E9, size: 0x8, addend: 0x0, symName: '__ZN4core3ptr37drop_in_place$LT$syn..lit..LitInt$GT$17h2a2e50e91e3acaafE', symObjAddr: 0x6D30, symBinAddr: 0x194C0, symSize: 0x70 }
  - { offsetInCU: 0x1E020, offset: 0x7DA5B, size: 0x8, addend: 0x0, symName: '__ZN4core3ptr37drop_in_place$LT$syn..stmt..Block$GT$17h3230a4b6b50a27e7E', symObjAddr: 0x6DA0, symBinAddr: 0x19530, symSize: 0x80 }
  - { offsetInCU: 0x1E30E, offset: 0x7DD49, size: 0x8, addend: 0x0, symName: '__ZN4core3ptr38drop_in_place$LT$syn..data..Fields$GT$17h464fe1332032af7dE', symObjAddr: 0x6E20, symBinAddr: 0x195B0, symSize: 0x180 }
  - { offsetInCU: 0x1E7B1, offset: 0x7E1EC, size: 0x8, addend: 0x0, symName: '__ZN4core3ptr38drop_in_place$LT$syn..derive..Data$GT$17hf6aea7b13f14b177E', symObjAddr: 0x6FA0, symBinAddr: 0x19730, symSize: 0x1C0 }
  - { offsetInCU: 0x1EE91, offset: 0x7E8CC, size: 0x8, addend: 0x0, symName: '__ZN4core3ptr38drop_in_place$LT$syn..error..Error$GT$17hc2001f61878b5c9eE', symObjAddr: 0x7160, symBinAddr: 0x198F0, symSize: 0x80 }
  - { offsetInCU: 0x1F13D, offset: 0x7EB78, size: 0x8, addend: 0x0, symName: '__ZN4core3ptr38drop_in_place$LT$syn..expr..Member$GT$17h6e2c1a9be08e300fE', symObjAddr: 0x71E0, symBinAddr: 0x19970, symSize: 0x30 }
  - { offsetInCU: 0x1F258, offset: 0x7EC93, size: 0x8, addend: 0x0, symName: '__ZN4core3ptr38drop_in_place$LT$syn..item..ItemFn$GT$17hb4c0cb3260ee6b58E', symObjAddr: 0x7210, symBinAddr: 0x199A0, symSize: 0x200 }
  - { offsetInCU: 0x1FADC, offset: 0x7F517, size: 0x8, addend: 0x0, symName: '__ZN4core3ptr39drop_in_place$LT$proc_macro2..Ident$GT$17hf70eea798d50d675E', symObjAddr: 0x7410, symBinAddr: 0x19BA0, symSize: 0x30 }
  - { offsetInCU: 0x1FCD0, offset: 0x7F70B, size: 0x8, addend: 0x0, symName: '__ZN4core3ptr39drop_in_place$LT$syn..item..UseTree$GT$17hd64afb304856727bE', symObjAddr: 0x7440, symBinAddr: 0x19BD0, symSize: 0x1F0 }
  - { offsetInCU: 0x203E7, offset: 0x7FE22, size: 0x8, addend: 0x0, symName: '__ZN4core3ptr39drop_in_place$LT$syn..pat..PatTuple$GT$17h6d4a0b41d9218ac5E', symObjAddr: 0x7630, symBinAddr: 0x19DC0, symSize: 0x100 }
  - { offsetInCU: 0x206F0, offset: 0x8012B, size: 0x8, addend: 0x0, symName: '__ZN4core3ptr40drop_in_place$LT$syn..ty..ReturnType$GT$17h6d1198a11ecff8e0E', symObjAddr: 0x7730, symBinAddr: 0x19EC0, symSize: 0x50 }
  - { offsetInCU: 0x208BD, offset: 0x802F8, size: 0x8, addend: 0x0, symName: '__ZN4core3ptr41drop_in_place$LT$syn..item..Signature$GT$17h152298e86bbf24c8E', symObjAddr: 0x7780, symBinAddr: 0x19F10, symSize: 0x2D0 }
  - { offsetInCU: 0x2146C, offset: 0x80EA7, size: 0x8, addend: 0x0, symName: '__ZN4core3ptr42drop_in_place$LT$alloc..string..String$GT$17hbabb203281c04810E', symObjAddr: 0x7A50, symBinAddr: 0x1A1E0, symSize: 0x20 }
  - { offsetInCU: 0x21574, offset: 0x80FAF, size: 0x8, addend: 0x0, symName: '__ZN4core3ptr42drop_in_place$LT$syn..data..Visibility$GT$17hda085215a409a8d0E', symObjAddr: 0x7A70, symBinAddr: 0x1A200, symSize: 0x60 }
  - { offsetInCU: 0x216E5, offset: 0x81120, size: 0x8, addend: 0x0, symName: '__ZN4core3ptr43drop_in_place$LT$syn..data..FieldsNamed$GT$17heb994b0126b76658E', symObjAddr: 0x7AD0, symBinAddr: 0x1A260, symSize: 0xE0 }
  - { offsetInCU: 0x21A64, offset: 0x8149F, size: 0x8, addend: 0x0, symName: '__ZN4core3ptr44drop_in_place$LT$syn..generics..Generics$GT$17heeb08408b55fcc00E', symObjAddr: 0x7BB0, symBinAddr: 0x1A340, symSize: 0xA0 }
  - { offsetInCU: 0x21CD0, offset: 0x8170B, size: 0x8, addend: 0x0, symName: '__ZN4core3ptr44drop_in_place$LT$syn..lifetime..Lifetime$GT$17ha37ed2c944b75f70E', symObjAddr: 0x7C50, symBinAddr: 0x1A3E0, symSize: 0x30 }
  - { offsetInCU: 0x21F02, offset: 0x8193D, size: 0x8, addend: 0x0, symName: '__ZN4core3ptr45drop_in_place$LT$proc_macro2..TokenStream$GT$17hb999668eb610a023E', symObjAddr: 0x7C80, symBinAddr: 0x1A410, symSize: 0x140 }
  - { offsetInCU: 0x2235E, offset: 0x81D99, size: 0x8, addend: 0x0, symName: '__ZN4core3ptr45drop_in_place$LT$syn..attr..MetaNameValue$GT$17hd141c3f54b89fd18E', symObjAddr: 0x7DC0, symBinAddr: 0x1A550, symSize: 0x40 }
  - { offsetInCU: 0x2237B, offset: 0x81DB6, size: 0x8, addend: 0x0, symName: '__ZN4core3ptr47drop_in_place$LT$syn..generics..LifetimeDef$GT$17ha72cc6e71d0d64c2E', symObjAddr: 0x7E00, symBinAddr: 0x1A590, symSize: 0x120 }
  - { offsetInCU: 0x227D6, offset: 0x82211, size: 0x8, addend: 0x0, symName: '__ZN4core3ptr47drop_in_place$LT$syn..path..GenericArgument$GT$17h813827156c9b04d4E', symObjAddr: 0x7F20, symBinAddr: 0x1A6B0, symSize: 0x110 }
  - { offsetInCU: 0x22AF1, offset: 0x8252C, size: 0x8, addend: 0x0, symName: '__ZN4core3ptr58drop_in_place$LT$alloc..vec..Vec$LT$syn..expr..Arm$GT$$GT$17hccb9a95c06f20bd3E', symObjAddr: 0x8030, symBinAddr: 0x1A7C0, symSize: 0xD0 }
  - { offsetInCU: 0x22DB1, offset: 0x827EC, size: 0x8, addend: 0x0, symName: '__ZN4core3ptr59drop_in_place$LT$alloc..boxed..Box$LT$syn..pat..Pat$GT$$GT$17h9bff5caf34a61968E', symObjAddr: 0x8100, symBinAddr: 0x1A890, symSize: 0x50 }
  - { offsetInCU: 0x22F0A, offset: 0x82945, size: 0x8, addend: 0x0, symName: '__ZN4core3ptr59drop_in_place$LT$alloc..boxed..Box$LT$syn..ty..Type$GT$$GT$17hb6c1bba0aff0f067E', symObjAddr: 0x8150, symBinAddr: 0x1A8E0, symSize: 0x50 }
  - { offsetInCU: 0x23063, offset: 0x82A9E, size: 0x8, addend: 0x0, symName: '__ZN4core3ptr61drop_in_place$LT$alloc..boxed..Box$LT$syn..expr..Expr$GT$$GT$17h90106686e1a1275fE', symObjAddr: 0x81A0, symBinAddr: 0x1A930, symSize: 0x50 }
  - { offsetInCU: 0x23238, offset: 0x82C73, size: 0x8, addend: 0x0, symName: '__ZN4core3ptr61drop_in_place$LT$syn..path..ParenthesizedGenericArguments$GT$17h64f1a6d01ff2b0dcE', symObjAddr: 0x81F0, symBinAddr: 0x1A980, symSize: 0x170 }
  - { offsetInCU: 0x2382E, offset: 0x83269, size: 0x8, addend: 0x0, symName: '__ZN4core3ptr62drop_in_place$LT$alloc..boxed..Box$LT$syn..stmt..Block$GT$$GT$17h202f83029423bd6fE', symObjAddr: 0x8360, symBinAddr: 0x1AAF0, symSize: 0x90 }
  - { offsetInCU: 0x23C34, offset: 0x8366F, size: 0x8, addend: 0x0, symName: '__ZN4core3ptr63drop_in_place$LT$alloc..boxed..Box$LT$syn..lit..LitRepr$GT$$GT$17h66c34f31c78f7006E', symObjAddr: 0x83F0, symBinAddr: 0x1AB80, symSize: 0x60 }
  - { offsetInCU: 0x23EFD, offset: 0x83938, size: 0x8, addend: 0x0, symName: '__ZN4core3ptr63drop_in_place$LT$alloc..vec..Vec$LT$syn..item..ImplItem$GT$$GT$17h9e8ea4c33cf8e01fE', symObjAddr: 0x8450, symBinAddr: 0x1ABE0, symSize: 0x80 }
  - { offsetInCU: 0x241B5, offset: 0x83BF0, size: 0x8, addend: 0x0, symName: '__ZN4core3ptr64drop_in_place$LT$alloc..boxed..Box$LT$syn..item..UseTree$GT$$GT$17h720b632bb959368fE', symObjAddr: 0x84D0, symBinAddr: 0x1AC60, symSize: 0x50 }
  - { offsetInCU: 0x2434C, offset: 0x83D87, size: 0x8, addend: 0x0, symName: '__ZN4core3ptr64drop_in_place$LT$alloc..boxed..Box$LT$syn..pat..FieldPat$GT$$GT$17h03d264fdc78b562bE', symObjAddr: 0x8520, symBinAddr: 0x1ACB0, symSize: 0x180 }
  - { offsetInCU: 0x24A69, offset: 0x844A4, size: 0x8, addend: 0x0, symName: '__ZN4core3ptr64drop_in_place$LT$alloc..boxed..Box$LT$syn..ty..BareFnArg$GT$$GT$17he8d97e39f0b89c78E', symObjAddr: 0x86A0, symBinAddr: 0x1AE30, symSize: 0x160 }
  - { offsetInCU: 0x24FFF, offset: 0x84A3A, size: 0x8, addend: 0x0, symName: '__ZN4core3ptr64drop_in_place$LT$alloc..vec..Vec$LT$syn..attr..Attribute$GT$$GT$17h1fd79fc0acd41e39E', symObjAddr: 0x8800, symBinAddr: 0x1AF90, symSize: 0xF0 }
  - { offsetInCU: 0x252F5, offset: 0x84D30, size: 0x8, addend: 0x0, symName: '__ZN4core3ptr64drop_in_place$LT$alloc..vec..Vec$LT$syn..item..TraitItem$GT$$GT$17h6716fb999698345aE', symObjAddr: 0x88F0, symBinAddr: 0x1B080, symSize: 0x80 }
  - { offsetInCU: 0x255CC, offset: 0x85007, size: 0x8, addend: 0x0, symName: '__ZN4core3ptr65drop_in_place$LT$alloc..vec..Vec$LT$alloc..string..String$GT$$GT$17h301d10e63243b027E', symObjAddr: 0x8970, symBinAddr: 0x1B100, symSize: 0x90 }
  - { offsetInCU: 0x2584D, offset: 0x85288, size: 0x8, addend: 0x0, symName: '__ZN4core3ptr65drop_in_place$LT$alloc..vec..Vec$LT$proc_macro..TokenTree$GT$$GT$17hde00f9b38ede6167E', symObjAddr: 0x8A00, symBinAddr: 0x1B190, symSize: 0x110 }
  - { offsetInCU: 0x25C45, offset: 0x85680, size: 0x8, addend: 0x0, symName: '__ZN4core3ptr65drop_in_place$LT$core..option..Option$LT$syn..expr..Label$GT$$GT$17he64e3930a30e77f6E', symObjAddr: 0x8B10, symBinAddr: 0x1B2A0, symSize: 0x30 }
  - { offsetInCU: 0x25D7F, offset: 0x857BA, size: 0x8, addend: 0x0, symName: '__ZN4core3ptr66drop_in_place$LT$alloc..vec..Vec$LT$syn..item..ForeignItem$GT$$GT$17hadc53e2868c0bce5E', symObjAddr: 0x8B40, symBinAddr: 0x1B2D0, symSize: 0x80 }
  - { offsetInCU: 0x26037, offset: 0x85A72, size: 0x8, addend: 0x0, symName: '__ZN4core3ptr66drop_in_place$LT$core..option..Option$LT$syn..ty..Variadic$GT$$GT$17h737c6fa0779b3868E', symObjAddr: 0x8BC0, symBinAddr: 0x1B350, symSize: 0xF0 }
  - { offsetInCU: 0x26361, offset: 0x85D9C, size: 0x8, addend: 0x0, symName: '__ZN4core3ptr67drop_in_place$LT$alloc..boxed..Box$LT$syn..attr..NestedMeta$GT$$GT$17h2f331786b6207a45E', symObjAddr: 0x8CB0, symBinAddr: 0x1B440, symSize: 0x70 }
  - { offsetInCU: 0x264F6, offset: 0x85F31, size: 0x8, addend: 0x0, symName: '__ZN4core3ptr67drop_in_place$LT$alloc..boxed..Box$LT$syn..expr..FieldValue$GT$$GT$17h6c7d8efb2b208feeE', symObjAddr: 0x8D20, symBinAddr: 0x1B4B0, symSize: 0x160 }
  - { offsetInCU: 0x26A8B, offset: 0x864C6, size: 0x8, addend: 0x0, symName: '__ZN4core3ptr68drop_in_place$LT$alloc..boxed..Box$LT$syn..path..PathSegment$GT$$GT$17hc7e1d64fe882c378E', symObjAddr: 0x8E80, symBinAddr: 0x1B610, symSize: 0x190 }
  - { offsetInCU: 0x27195, offset: 0x86BD0, size: 0x8, addend: 0x0, symName: '__ZN4core3ptr72drop_in_place$LT$alloc..boxed..Box$LT$syn..path..GenericArgument$GT$$GT$17hbeacc7d49176e2b8E', symObjAddr: 0x9010, symBinAddr: 0x1B7A0, symSize: 0x120 }
  - { offsetInCU: 0x2760D, offset: 0x87048, size: 0x8, addend: 0x0, symName: '__ZN4core3ptr72drop_in_place$LT$core..option..Option$LT$syn..lifetime..Lifetime$GT$$GT$17h0acdf036efb385bcE', symObjAddr: 0x9130, symBinAddr: 0x1B8C0, symSize: 0x30 }
  - { offsetInCU: 0x27728, offset: 0x87163, size: 0x8, addend: 0x0, symName: '__ZN4core3ptr75drop_in_place$LT$alloc..boxed..Box$LT$syn..generics..TypeParamBound$GT$$GT$17hd37835668efda9f9E', symObjAddr: 0x9160, symBinAddr: 0x1B8F0, symSize: 0x90 }
  - { offsetInCU: 0x27A67, offset: 0x874A2, size: 0x8, addend: 0x0, symName: '__ZN4core3ptr75drop_in_place$LT$core..option..Option$LT$syn..generics..WhereClause$GT$$GT$17hd730665f4beca4a5E', symObjAddr: 0x91F0, symBinAddr: 0x1B980, symSize: 0xF0 }
  - { offsetInCU: 0x27D89, offset: 0x877C4, size: 0x8, addend: 0x0, symName: '__ZN4core3ptr78drop_in_place$LT$alloc..boxed..Box$LT$syn..expr..GenericMethodArgument$GT$$GT$17h2ba1c45210c2d620E', symObjAddr: 0x92E0, symBinAddr: 0x1BA70, symSize: 0x60 }
  - { offsetInCU: 0x27F9A, offset: 0x879D5, size: 0x8, addend: 0x0, symName: '__ZN4core3ptr78drop_in_place$LT$core..option..Option$LT$syn..generics..BoundLifetimes$GT$$GT$17hfe0b2832f27903aaE', symObjAddr: 0x9340, symBinAddr: 0x1BAD0, symSize: 0xC0 }
  - { offsetInCU: 0x28392, offset: 0x87DCD, size: 0x8, addend: 0x0, symName: '__ZN4core3ptr84drop_in_place$LT$core..result..Result$LT$syn..attr..Meta$C$syn..error..Error$GT$$GT$17h32b1409c85804864E', symObjAddr: 0x9400, symBinAddr: 0x1BB90, symSize: 0x90 }
  - { offsetInCU: 0x286B0, offset: 0x880EB, size: 0x8, addend: 0x0, symName: '__ZN4core3ptr86drop_in_place$LT$syn..punctuated..Punctuated$LT$syn..pat..Pat$C$syn..token..Or$GT$$GT$17h079000a46246a98aE', symObjAddr: 0x9490, symBinAddr: 0x1BC20, symSize: 0x120 }
  - { offsetInCU: 0x28B2B, offset: 0x88566, size: 0x8, addend: 0x0, symName: '__ZN4core3ptr87drop_in_place$LT$core..option..Option$LT$alloc..boxed..Box$LT$syn..pat..Pat$GT$$GT$$GT$17h3bebdc7d61d8f4efE', symObjAddr: 0x95B0, symBinAddr: 0x1BD40, symSize: 0x50 }
  - { offsetInCU: 0x28C9B, offset: 0x886D6, size: 0x8, addend: 0x0, symName: '__ZN4core3ptr87drop_in_place$LT$core..option..Option$LT$alloc..boxed..Box$LT$syn..ty..Type$GT$$GT$$GT$17h7b310415308d2219E', symObjAddr: 0x9600, symBinAddr: 0x1BD90, symSize: 0x50 }
  - { offsetInCU: 0x28E0B, offset: 0x88846, size: 0x8, addend: 0x0, symName: '__ZN4core3ptr89drop_in_place$LT$core..option..Option$LT$alloc..boxed..Box$LT$syn..expr..Expr$GT$$GT$$GT$17h1862cb574e5ecf32E', symObjAddr: 0x9650, symBinAddr: 0x1BDE0, symSize: 0x50 }
  - { offsetInCU: 0x28FB9, offset: 0x889F4, size: 0x8, addend: 0x0, symName: '__ZN4core3ptr89drop_in_place$LT$syn..punctuated..Punctuated$LT$syn..pat..Pat$C$syn..token..Comma$GT$$GT$17h487291e67ef6ac2bE', symObjAddr: 0x96A0, symBinAddr: 0x1BE30, symSize: 0x120 }
  - { offsetInCU: 0x2944B, offset: 0x88E86, size: 0x8, addend: 0x0, symName: '__ZN4core3ptr89drop_in_place$LT$syn..punctuated..Punctuated$LT$syn..ty..Type$C$syn..token..Comma$GT$$GT$17h2c59318ff8918ba8E', symObjAddr: 0x97C0, symBinAddr: 0x1BF50, symSize: 0x120 }
  - { offsetInCU: 0x29904, offset: 0x8933F, size: 0x8, addend: 0x0, symName: '__ZN4core3ptr90drop_in_place$LT$core..option..Option$LT$alloc..boxed..Box$LT$syn..data..Field$GT$$GT$$GT$17h98623dd57475901eE', symObjAddr: 0x98E0, symBinAddr: 0x1C070, symSize: 0x1D0 }
  - { offsetInCU: 0x2A03D, offset: 0x89A78, size: 0x8, addend: 0x0, symName: '__ZN4core3ptr90drop_in_place$LT$core..option..Option$LT$alloc..boxed..Box$LT$syn..item..FnArg$GT$$GT$$GT$17hbfc8915c06bc453aE', symObjAddr: 0x9AB0, symBinAddr: 0x1C240, symSize: 0x280 }
  - { offsetInCU: 0x2ABD3, offset: 0x8A60E, size: 0x8, addend: 0x0, symName: '__ZN4core3ptr91drop_in_place$LT$syn..punctuated..Punctuated$LT$syn..expr..Expr$C$syn..token..Comma$GT$$GT$17hab7a0b21dd305247E', symObjAddr: 0x9D30, symBinAddr: 0x1C4C0, symSize: 0x120 }
  - { offsetInCU: 0x2B061, offset: 0x8AA9C, size: 0x8, addend: 0x0, symName: '__ZN4core3ptr92drop_in_place$LT$core..option..Option$LT$$LP$syn..token..As$C$proc_macro2..Ident$RP$$GT$$GT$17habfef0f4ad2bce69E', symObjAddr: 0x9E50, symBinAddr: 0x1C5E0, symSize: 0x30 }
  - { offsetInCU: 0x2B1F8, offset: 0x8AC33, size: 0x8, addend: 0x0, symName: '__ZN4core3ptr92drop_in_place$LT$core..option..Option$LT$alloc..boxed..Box$LT$syn..data..Variant$GT$$GT$$GT$17h825c4de8cc7cd365E', symObjAddr: 0x9E80, symBinAddr: 0x1C610, symSize: 0x1A0 }
  - { offsetInCU: 0x2B7BF, offset: 0x8B1FA, size: 0x8, addend: 0x0, symName: '__ZN4core3ptr92drop_in_place$LT$syn..punctuated..Punctuated$LT$syn..item..FnArg$C$syn..token..Comma$GT$$GT$17he189c5c7fc43a249E', symObjAddr: 0xA020, symBinAddr: 0x1C7B0, symSize: 0xE0 }
  - { offsetInCU: 0x2BABA, offset: 0x8B4F5, size: 0x8, addend: 0x0, symName: '__ZN4core3ptr94drop_in_place$LT$syn..punctuated..Punctuated$LT$syn..data..Variant$C$syn..token..Comma$GT$$GT$17h3a247c2fcfb0cc38E', symObjAddr: 0xA100, symBinAddr: 0x1C890, symSize: 0xE0 }
  - { offsetInCU: 0x2BDBD, offset: 0x8B7F8, size: 0x8, addend: 0x0, symName: '__ZN4core3ptr94drop_in_place$LT$syn..punctuated..Punctuated$LT$syn..pat..FieldPat$C$syn..token..Comma$GT$$GT$17he7e26d1e1aa55800E', symObjAddr: 0xA1E0, symBinAddr: 0x1C970, symSize: 0xF0 }
  - { offsetInCU: 0x2C0BC, offset: 0x8BAF7, size: 0x8, addend: 0x0, symName: '__ZN4core3ptr94drop_in_place$LT$syn..punctuated..Punctuated$LT$syn..ty..BareFnArg$C$syn..token..Comma$GT$$GT$17hc9e70e44d16cbea3E', symObjAddr: 0xA2D0, symBinAddr: 0x1CA60, symSize: 0x90 }
  - { offsetInCU: 0x2C32C, offset: 0x8BD67, size: 0x8, addend: 0x0, symName: '__ZN4core3ptr96drop_in_place$LT$core..option..Option$LT$alloc..boxed..Box$LT$syn..path..PathSegment$GT$$GT$$GT$17h736d4914be8ccd56E', symObjAddr: 0xA360, symBinAddr: 0x1CAF0, symSize: 0x180 }
  - { offsetInCU: 0x2CA65, offset: 0x8C4A0, size: 0x8, addend: 0x0, symName: '__ZN4core3ptr97drop_in_place$LT$syn..punctuated..Punctuated$LT$syn..attr..NestedMeta$C$syn..token..Comma$GT$$GT$17h219fa196e5f53ad5E', symObjAddr: 0xA4E0, symBinAddr: 0x1CC70, symSize: 0x150 }
  - { offsetInCU: 0x2CF06, offset: 0x8C941, size: 0x8, addend: 0x0, symName: '__ZN4core3ptr97drop_in_place$LT$syn..punctuated..Punctuated$LT$syn..expr..FieldValue$C$syn..token..Comma$GT$$GT$17hebc649b207814284E', symObjAddr: 0xA630, symBinAddr: 0x1CDC0, symSize: 0xF0 }
  - { offsetInCU: 0x2D27F, offset: 0x8CCBA, size: 0x8, addend: 0x0, symName: '__ZN4core3ptr97drop_in_place$LT$syn..punctuated..Punctuated$LT$syn..lifetime..Lifetime$C$syn..token..Add$GT$$GT$17h0798ccbf56150115E', symObjAddr: 0xA720, symBinAddr: 0x1CEB0, symSize: 0xD0 }
  - { offsetInCU: 0x2D6F3, offset: 0x8D12E, size: 0x8, addend: 0x0, symName: '__ZN4core3ptr99drop_in_place$LT$syn..punctuated..Punctuated$LT$syn..path..PathSegment$C$syn..token..Colon2$GT$$GT$17hc0e11ab31c22306eE', symObjAddr: 0xA7F0, symBinAddr: 0x1CF80, symSize: 0x250 }
  - { offsetInCU: 0x2E79C, offset: 0x8E1D7, size: 0x8, addend: 0x0, symName: '__ZN68_$LT$core..num..error..ParseIntError$u20$as$u20$core..fmt..Debug$GT$3fmt17h96ecbd66dfb72074E', symObjAddr: 0xAC50, symBinAddr: 0x1D3E0, symSize: 0x50 }
  - { offsetInCU: 0x2E9F4, offset: 0x8E42F, size: 0x8, addend: 0x0, symName: '__ZN53_$LT$core..fmt..Error$u20$as$u20$core..fmt..Debug$GT$3fmt17h03dc662ab152f3aeE', symObjAddr: 0xAA40, symBinAddr: 0x1D1D0, symSize: 0x20 }
  - { offsetInCU: 0x37188, offset: 0x96BC3, size: 0x8, addend: 0x0, symName: '__ZN65_$LT$num_bigint..ParseBigIntError$u20$as$u20$core..fmt..Debug$GT$3fmt17h30ccf17c99ce4bc6E', symObjAddr: 0xAC00, symBinAddr: 0x1D390, symSize: 0x50 }
  - { offsetInCU: 0x3722D, offset: 0x96C68, size: 0x8, addend: 0x0, symName: ___rustc_proc_macro_decls_e8b1e7af479cad28__, symObjAddr: 0xE378, symBinAddr: 0x288578, symSize: 0x0 }
  - { offsetInCU: 0x3723B, offset: 0x96C76, size: 0x8, addend: 0x0, symName: __ZN13ark_ff_macros17to_sign_and_limbs17h40d851fe08fcc885E, symObjAddr: 0xACA0, symBinAddr: 0x1D430, symSize: 0x5B0 }
  - { offsetInCU: 0x38A19, offset: 0x98454, size: 0x8, addend: 0x0, symName: __ZN13ark_ff_macros11mont_config17hd8c9837776ccf512E, symObjAddr: 0xB250, symBinAddr: 0x1D9E0, symSize: 0x720 }
  - { offsetInCU: 0x39CD6, offset: 0x99711, size: 0x8, addend: 0x0, symName: __ZN13ark_ff_macros16unroll_for_loops17hb4d2ef4d6403e144E, symObjAddr: 0xB970, symBinAddr: 0x1E100, symSize: 0x6D0 }
  - { offsetInCU: 0x3AA45, offset: 0x9A480, size: 0x8, addend: 0x0, symName: __ZN13ark_ff_macros10fetch_attr17h7b145ed5e93aca5bE, symObjAddr: 0xC040, symBinAddr: 0x1E7D0, symSize: 0x680 }
  - { offsetInCU: 0x3B9F4, offset: 0x9B42F, size: 0x8, addend: 0x0, symName: __ZN13ark_ff_macros16unroll_for_loops18panic_cold_display17h8bb6bc63a9032b41E, symObjAddr: 0xC6C0, symBinAddr: 0x217AA0, symSize: 0x59 }
  - { offsetInCU: 0x3BC10, offset: 0x9B64B, size: 0x8, addend: 0x0, symName: __ZN10proc_macro6bridge6client14HandleCounters3get17h2c76d49220b98e92E, symObjAddr: 0x0, symBinAddr: 0x12790, symSize: 0x10 }
  - { offsetInCU: 0x1B0C, offset: 0xA3C33, size: 0x8, addend: 0x0, symName: '__ZN4core3ptr100drop_in_place$LT$core..option..Option$LT$alloc..boxed..Box$LT$syn..generics..LifetimeDef$GT$$GT$$GT$17h3899ca5c2432ed32E', symObjAddr: 0x20, symBinAddr: 0x1EE50, symSize: 0x50 }
  - { offsetInCU: 0x1C8E, offset: 0xA3DB5, size: 0x8, addend: 0x0, symName: '__ZN4core3ptr100drop_in_place$LT$core..option..Option$LT$alloc..boxed..Box$LT$syn..path..GenericArgument$GT$$GT$$GT$17h8f0a837edb1aa051E', symObjAddr: 0x70, symBinAddr: 0x1EEA0, symSize: 0x50 }
  - { offsetInCU: 0x1F72, offset: 0xA4099, size: 0x8, addend: 0x0, symName: '__ZN4core3ptr101drop_in_place$LT$core..option..Option$LT$alloc..boxed..Box$LT$syn..generics..GenericParam$GT$$GT$$GT$17hd5fe1fed536eea79E', symObjAddr: 0xC0, symBinAddr: 0x1EEF0, symSize: 0x310 }
  - { offsetInCU: 0x29AD, offset: 0xA4AD4, size: 0x8, addend: 0x0, symName: '__ZN4core3ptr103drop_in_place$LT$core..option..Option$LT$alloc..boxed..Box$LT$syn..generics..WherePredicate$GT$$GT$$GT$17h58b010433e2ef286E', symObjAddr: 0x3D0, symBinAddr: 0x1F200, symSize: 0x120 }
  - { offsetInCU: 0x2D62, offset: 0xA4E89, size: 0x8, addend: 0x0, symName: '__ZN4core3ptr103drop_in_place$LT$syn..punctuated..Punctuated$LT$syn..generics..TypeParamBound$C$syn..token..Add$GT$$GT$17h9e2d2e603068e83aE', symObjAddr: 0x4F0, symBinAddr: 0x1F320, symSize: 0x160 }
  - { offsetInCU: 0x33BB, offset: 0xA54E2, size: 0x8, addend: 0x0, symName: '__ZN4core3ptr108drop_in_place$LT$syn..punctuated..Punctuated$LT$syn..expr..GenericMethodArgument$C$syn..token..Comma$GT$$GT$17h4b6587da36ced0fcE', symObjAddr: 0x650, symBinAddr: 0x1F480, symSize: 0x150 }
  - { offsetInCU: 0x3898, offset: 0xA59BF, size: 0x8, addend: 0x0, symName: '__ZN4core3ptr114drop_in_place$LT$core..option..Option$LT$$LP$syn..token..Eq$C$alloc..boxed..Box$LT$syn..expr..Expr$GT$$RP$$GT$$GT$17haf933d5e5d5cce54E', symObjAddr: 0x7A0, symBinAddr: 0x1F5D0, symSize: 0x50 }
  - { offsetInCU: 0x3A66, offset: 0xA5B8D, size: 0x8, addend: 0x0, symName: '__ZN4core3ptr115drop_in_place$LT$core..option..Option$LT$$LP$syn..token..Brace$C$alloc..vec..Vec$LT$syn..item..Item$GT$$RP$$GT$$GT$17he932d4f54e38b009E', symObjAddr: 0x7F0, symBinAddr: 0x1F620, symSize: 0xD0 }
  - { offsetInCU: 0x3D7D, offset: 0xA5EA4, size: 0x8, addend: 0x0, symName: '__ZN4core3ptr126drop_in_place$LT$core..option..Option$LT$$LP$syn..token..And$C$core..option..Option$LT$syn..lifetime..Lifetime$GT$$RP$$GT$$GT$17h0470d71f478a1896E', symObjAddr: 0x8C0, symBinAddr: 0x1F6F0, symSize: 0x30 }
  - { offsetInCU: 0x3F90, offset: 0xA60B7, size: 0x8, addend: 0x0, symName: '__ZN4core3ptr34drop_in_place$LT$syn..lit..Lit$GT$17h13298495a2f812f1E', symObjAddr: 0x8F0, symBinAddr: 0x1F720, symSize: 0x110 }
  - { offsetInCU: 0x4440, offset: 0xA6567, size: 0x8, addend: 0x0, symName: '__ZN4core3ptr34drop_in_place$LT$syn..pat..Pat$GT$17h0d0a9b563b5dbf26E', symObjAddr: 0xA00, symBinAddr: 0x1F830, symSize: 0x1190 }
  - { offsetInCU: 0x8339, offset: 0xAA460, size: 0x8, addend: 0x0, symName: '__ZN4core3ptr34drop_in_place$LT$syn..ty..Type$GT$17h27c6c91ce96053beE', symObjAddr: 0x1B90, symBinAddr: 0x209C0, symSize: 0x540 }
  - { offsetInCU: 0x9BA2, offset: 0xABCC9, size: 0x8, addend: 0x0, symName: '__ZN4core3ptr36drop_in_place$LT$syn..expr..Expr$GT$17h22b5966f62e8bb79E', symObjAddr: 0x20D0, symBinAddr: 0x20F00, symSize: 0x2EA0 }
  - { offsetInCU: 0x13C82, offset: 0xB5DA9, size: 0x8, addend: 0x0, symName: '__ZN4core3ptr36drop_in_place$LT$syn..mac..Macro$GT$17h51b7807cf53b2cdeE', symObjAddr: 0x4F70, symBinAddr: 0x23DA0, symSize: 0x40 }
  - { offsetInCU: 0x13DD3, offset: 0xB5EFA, size: 0x8, addend: 0x0, symName: '__ZN4core3ptr36drop_in_place$LT$syn..path..Path$GT$17h0dfa334735d579c8E', symObjAddr: 0x4FB0, symBinAddr: 0x23DE0, symSize: 0x230 }
  - { offsetInCU: 0x14C7F, offset: 0xB6DA6, size: 0x8, addend: 0x0, symName: '__ZN4core3ptr36drop_in_place$LT$syn..stmt..Stmt$GT$17h77edc66dbadb6c85E', symObjAddr: 0x51E0, symBinAddr: 0x24010, symSize: 0x1520 }
  - { offsetInCU: 0x1A72C, offset: 0xBC853, size: 0x8, addend: 0x0, symName: '__ZN4core3ptr37drop_in_place$LT$syn..stmt..Block$GT$17h3230a4b6b50a27e7E', symObjAddr: 0x6700, symBinAddr: 0x25530, symSize: 0x80 }
  - { offsetInCU: 0x1AA1A, offset: 0xBCB41, size: 0x8, addend: 0x0, symName: '__ZN4core3ptr38drop_in_place$LT$syn..data..Fields$GT$17h464fe1332032af7dE', symObjAddr: 0x6780, symBinAddr: 0x255B0, symSize: 0x180 }
  - { offsetInCU: 0x1AE60, offset: 0xBCF87, size: 0x8, addend: 0x0, symName: '__ZN4core3ptr38drop_in_place$LT$syn..expr..Member$GT$17h6e2c1a9be08e300fE', symObjAddr: 0x6900, symBinAddr: 0x25730, symSize: 0x30 }
  - { offsetInCU: 0x1AF5C, offset: 0xBD083, size: 0x8, addend: 0x0, symName: '__ZN4core3ptr39drop_in_place$LT$proc_macro2..Ident$GT$17hf70eea798d50d675E', symObjAddr: 0x6930, symBinAddr: 0x25760, symSize: 0x30 }
  - { offsetInCU: 0x1B150, offset: 0xBD277, size: 0x8, addend: 0x0, symName: '__ZN4core3ptr39drop_in_place$LT$syn..item..UseTree$GT$17hd64afb304856727bE', symObjAddr: 0x6960, symBinAddr: 0x25790, symSize: 0x1F0 }
  - { offsetInCU: 0x1B867, offset: 0xBD98E, size: 0x8, addend: 0x0, symName: '__ZN4core3ptr39drop_in_place$LT$syn..pat..PatTuple$GT$17h6d4a0b41d9218ac5E', symObjAddr: 0x6B50, symBinAddr: 0x25980, symSize: 0x100 }
  - { offsetInCU: 0x1BB70, offset: 0xBDC97, size: 0x8, addend: 0x0, symName: '__ZN4core3ptr40drop_in_place$LT$syn..ty..ReturnType$GT$17h6d1198a11ecff8e0E', symObjAddr: 0x6C50, symBinAddr: 0x25A80, symSize: 0x50 }
  - { offsetInCU: 0x1BD3D, offset: 0xBDE64, size: 0x8, addend: 0x0, symName: '__ZN4core3ptr41drop_in_place$LT$syn..item..Signature$GT$17h152298e86bbf24c8E', symObjAddr: 0x6CA0, symBinAddr: 0x25AD0, symSize: 0x2D0 }
  - { offsetInCU: 0x1C8EC, offset: 0xBEA13, size: 0x8, addend: 0x0, symName: '__ZN4core3ptr42drop_in_place$LT$syn..data..Visibility$GT$17hda085215a409a8d0E', symObjAddr: 0x6F70, symBinAddr: 0x25DA0, symSize: 0x60 }
  - { offsetInCU: 0x1CA5D, offset: 0xBEB84, size: 0x8, addend: 0x0, symName: '__ZN4core3ptr43drop_in_place$LT$syn..data..FieldsNamed$GT$17heb994b0126b76658E', symObjAddr: 0x6FD0, symBinAddr: 0x25E00, symSize: 0xE0 }
  - { offsetInCU: 0x1CD7F, offset: 0xBEEA6, size: 0x8, addend: 0x0, symName: '__ZN4core3ptr43drop_in_place$LT$syn..expr..ExprForLoop$GT$17hbe12995e533aeebcE', symObjAddr: 0x70B0, symBinAddr: 0x25EE0, symSize: 0x200 }
  - { offsetInCU: 0x1D64D, offset: 0xBF774, size: 0x8, addend: 0x0, symName: '__ZN4core3ptr44drop_in_place$LT$syn..generics..Generics$GT$17heeb08408b55fcc00E', symObjAddr: 0x72B0, symBinAddr: 0x260E0, symSize: 0xA0 }
  - { offsetInCU: 0x1D8B9, offset: 0xBF9E0, size: 0x8, addend: 0x0, symName: '__ZN4core3ptr44drop_in_place$LT$syn..lifetime..Lifetime$GT$17ha37ed2c944b75f70E', symObjAddr: 0x7350, symBinAddr: 0x26180, symSize: 0x30 }
  - { offsetInCU: 0x1DAEB, offset: 0xBFC12, size: 0x8, addend: 0x0, symName: '__ZN4core3ptr45drop_in_place$LT$proc_macro2..TokenStream$GT$17hb999668eb610a023E', symObjAddr: 0x7380, symBinAddr: 0x261B0, symSize: 0x140 }
  - { offsetInCU: 0x1DF47, offset: 0xC006E, size: 0x8, addend: 0x0, symName: '__ZN4core3ptr47drop_in_place$LT$syn..generics..LifetimeDef$GT$17ha72cc6e71d0d64c2E', symObjAddr: 0x74C0, symBinAddr: 0x262F0, symSize: 0x120 }
  - { offsetInCU: 0x1E3A2, offset: 0xC04C9, size: 0x8, addend: 0x0, symName: '__ZN4core3ptr47drop_in_place$LT$syn..path..GenericArgument$GT$17h813827156c9b04d4E', symObjAddr: 0x75E0, symBinAddr: 0x26410, symSize: 0x110 }
  - { offsetInCU: 0x1E6BD, offset: 0xC07E4, size: 0x8, addend: 0x0, symName: '__ZN4core3ptr58drop_in_place$LT$alloc..vec..Vec$LT$syn..expr..Arm$GT$$GT$17hccb9a95c06f20bd3E', symObjAddr: 0x76F0, symBinAddr: 0x26520, symSize: 0xD0 }
  - { offsetInCU: 0x1E97D, offset: 0xC0AA4, size: 0x8, addend: 0x0, symName: '__ZN4core3ptr59drop_in_place$LT$alloc..boxed..Box$LT$syn..pat..Pat$GT$$GT$17h9bff5caf34a61968E', symObjAddr: 0x77C0, symBinAddr: 0x265F0, symSize: 0x50 }
  - { offsetInCU: 0x1EAD6, offset: 0xC0BFD, size: 0x8, addend: 0x0, symName: '__ZN4core3ptr59drop_in_place$LT$alloc..boxed..Box$LT$syn..ty..Type$GT$$GT$17hb6c1bba0aff0f067E', symObjAddr: 0x7810, symBinAddr: 0x26640, symSize: 0x50 }
  - { offsetInCU: 0x1EC2F, offset: 0xC0D56, size: 0x8, addend: 0x0, symName: '__ZN4core3ptr59drop_in_place$LT$alloc..vec..Vec$LT$syn..stmt..Stmt$GT$$GT$17hadacb1ddbcf8869aE', symObjAddr: 0x7860, symBinAddr: 0x26690, symSize: 0x80 }
  - { offsetInCU: 0x1EEE7, offset: 0xC100E, size: 0x8, addend: 0x0, symName: '__ZN4core3ptr61drop_in_place$LT$alloc..boxed..Box$LT$syn..expr..Expr$GT$$GT$17h90106686e1a1275fE', symObjAddr: 0x78E0, symBinAddr: 0x26710, symSize: 0x50 }
  - { offsetInCU: 0x1F0BC, offset: 0xC11E3, size: 0x8, addend: 0x0, symName: '__ZN4core3ptr61drop_in_place$LT$syn..path..ParenthesizedGenericArguments$GT$17h64f1a6d01ff2b0dcE', symObjAddr: 0x7930, symBinAddr: 0x26760, symSize: 0x170 }
  - { offsetInCU: 0x1F6B2, offset: 0xC17D9, size: 0x8, addend: 0x0, symName: '__ZN4core3ptr62drop_in_place$LT$alloc..boxed..Box$LT$syn..stmt..Block$GT$$GT$17h202f83029423bd6fE', symObjAddr: 0x7AA0, symBinAddr: 0x268D0, symSize: 0x90 }
  - { offsetInCU: 0x1FAB8, offset: 0xC1BDF, size: 0x8, addend: 0x0, symName: '__ZN4core3ptr63drop_in_place$LT$alloc..boxed..Box$LT$syn..lit..LitRepr$GT$$GT$17h66c34f31c78f7006E', symObjAddr: 0x7B30, symBinAddr: 0x26960, symSize: 0x60 }
  - { offsetInCU: 0x1FD81, offset: 0xC1EA8, size: 0x8, addend: 0x0, symName: '__ZN4core3ptr63drop_in_place$LT$alloc..vec..Vec$LT$syn..item..ImplItem$GT$$GT$17h9e8ea4c33cf8e01fE', symObjAddr: 0x7B90, symBinAddr: 0x269C0, symSize: 0x80 }
  - { offsetInCU: 0x20039, offset: 0xC2160, size: 0x8, addend: 0x0, symName: '__ZN4core3ptr64drop_in_place$LT$alloc..boxed..Box$LT$syn..item..UseTree$GT$$GT$17h720b632bb959368fE', symObjAddr: 0x7C10, symBinAddr: 0x26A40, symSize: 0x50 }
  - { offsetInCU: 0x201D0, offset: 0xC22F7, size: 0x8, addend: 0x0, symName: '__ZN4core3ptr64drop_in_place$LT$alloc..boxed..Box$LT$syn..pat..FieldPat$GT$$GT$17h03d264fdc78b562bE', symObjAddr: 0x7C60, symBinAddr: 0x26A90, symSize: 0x180 }
  - { offsetInCU: 0x208ED, offset: 0xC2A14, size: 0x8, addend: 0x0, symName: '__ZN4core3ptr64drop_in_place$LT$alloc..boxed..Box$LT$syn..ty..BareFnArg$GT$$GT$17he8d97e39f0b89c78E', symObjAddr: 0x7DE0, symBinAddr: 0x26C10, symSize: 0x160 }
  - { offsetInCU: 0x20E83, offset: 0xC2FAA, size: 0x8, addend: 0x0, symName: '__ZN4core3ptr64drop_in_place$LT$alloc..vec..Vec$LT$syn..attr..Attribute$GT$$GT$17h1fd79fc0acd41e39E', symObjAddr: 0x7F40, symBinAddr: 0x26D70, symSize: 0xF0 }
  - { offsetInCU: 0x21179, offset: 0xC32A0, size: 0x8, addend: 0x0, symName: '__ZN4core3ptr64drop_in_place$LT$alloc..vec..Vec$LT$syn..item..TraitItem$GT$$GT$17h6716fb999698345aE', symObjAddr: 0x8030, symBinAddr: 0x26E60, symSize: 0x80 }
  - { offsetInCU: 0x21431, offset: 0xC3558, size: 0x8, addend: 0x0, symName: '__ZN4core3ptr65drop_in_place$LT$alloc..vec..Vec$LT$proc_macro..TokenTree$GT$$GT$17hde00f9b38ede6167E', symObjAddr: 0x80B0, symBinAddr: 0x26EE0, symSize: 0x110 }
  - { offsetInCU: 0x21829, offset: 0xC3950, size: 0x8, addend: 0x0, symName: '__ZN4core3ptr65drop_in_place$LT$core..option..Option$LT$syn..expr..Label$GT$$GT$17he64e3930a30e77f6E', symObjAddr: 0x81C0, symBinAddr: 0x26FF0, symSize: 0x30 }
  - { offsetInCU: 0x21963, offset: 0xC3A8A, size: 0x8, addend: 0x0, symName: '__ZN4core3ptr66drop_in_place$LT$alloc..vec..Vec$LT$syn..item..ForeignItem$GT$$GT$17hadc53e2868c0bce5E', symObjAddr: 0x81F0, symBinAddr: 0x27020, symSize: 0x80 }
  - { offsetInCU: 0x21C1B, offset: 0xC3D42, size: 0x8, addend: 0x0, symName: '__ZN4core3ptr66drop_in_place$LT$core..option..Option$LT$syn..ty..Variadic$GT$$GT$17h737c6fa0779b3868E', symObjAddr: 0x8270, symBinAddr: 0x270A0, symSize: 0xF0 }
  - { offsetInCU: 0x21F45, offset: 0xC406C, size: 0x8, addend: 0x0, symName: '__ZN4core3ptr67drop_in_place$LT$alloc..boxed..Box$LT$syn..expr..FieldValue$GT$$GT$17h6c7d8efb2b208feeE', symObjAddr: 0x8360, symBinAddr: 0x27190, symSize: 0x160 }
  - { offsetInCU: 0x224DA, offset: 0xC4601, size: 0x8, addend: 0x0, symName: '__ZN4core3ptr68drop_in_place$LT$alloc..boxed..Box$LT$syn..path..PathSegment$GT$$GT$17hc7e1d64fe882c378E', symObjAddr: 0x84C0, symBinAddr: 0x272F0, symSize: 0x190 }
  - { offsetInCU: 0x22BE4, offset: 0xC4D0B, size: 0x8, addend: 0x0, symName: '__ZN4core3ptr72drop_in_place$LT$alloc..boxed..Box$LT$syn..path..GenericArgument$GT$$GT$17hbeacc7d49176e2b8E', symObjAddr: 0x8650, symBinAddr: 0x27480, symSize: 0x120 }
  - { offsetInCU: 0x2305C, offset: 0xC5183, size: 0x8, addend: 0x0, symName: '__ZN4core3ptr72drop_in_place$LT$core..option..Option$LT$syn..lifetime..Lifetime$GT$$GT$17h0acdf036efb385bcE', symObjAddr: 0x8770, symBinAddr: 0x275A0, symSize: 0x30 }
  - { offsetInCU: 0x23177, offset: 0xC529E, size: 0x8, addend: 0x0, symName: '__ZN4core3ptr75drop_in_place$LT$alloc..boxed..Box$LT$syn..generics..TypeParamBound$GT$$GT$17hd37835668efda9f9E', symObjAddr: 0x87A0, symBinAddr: 0x275D0, symSize: 0x90 }
  - { offsetInCU: 0x234B6, offset: 0xC55DD, size: 0x8, addend: 0x0, symName: '__ZN4core3ptr75drop_in_place$LT$core..option..Option$LT$syn..generics..WhereClause$GT$$GT$17hd730665f4beca4a5E', symObjAddr: 0x8830, symBinAddr: 0x27660, symSize: 0xF0 }
  - { offsetInCU: 0x237D8, offset: 0xC58FF, size: 0x8, addend: 0x0, symName: '__ZN4core3ptr78drop_in_place$LT$alloc..boxed..Box$LT$syn..expr..GenericMethodArgument$GT$$GT$17h2ba1c45210c2d620E', symObjAddr: 0x8920, symBinAddr: 0x27750, symSize: 0x60 }
  - { offsetInCU: 0x239E9, offset: 0xC5B10, size: 0x8, addend: 0x0, symName: '__ZN4core3ptr78drop_in_place$LT$core..option..Option$LT$syn..generics..BoundLifetimes$GT$$GT$17hfe0b2832f27903aaE', symObjAddr: 0x8980, symBinAddr: 0x277B0, symSize: 0xC0 }
  - { offsetInCU: 0x23E1F, offset: 0xC5F46, size: 0x8, addend: 0x0, symName: '__ZN4core3ptr86drop_in_place$LT$syn..punctuated..Punctuated$LT$syn..pat..Pat$C$syn..token..Or$GT$$GT$17h079000a46246a98aE', symObjAddr: 0x8A40, symBinAddr: 0x27870, symSize: 0x120 }
  - { offsetInCU: 0x2429A, offset: 0xC63C1, size: 0x8, addend: 0x0, symName: '__ZN4core3ptr87drop_in_place$LT$core..option..Option$LT$alloc..boxed..Box$LT$syn..pat..Pat$GT$$GT$$GT$17h3bebdc7d61d8f4efE', symObjAddr: 0x8B60, symBinAddr: 0x27990, symSize: 0x50 }
  - { offsetInCU: 0x2440A, offset: 0xC6531, size: 0x8, addend: 0x0, symName: '__ZN4core3ptr87drop_in_place$LT$core..option..Option$LT$alloc..boxed..Box$LT$syn..ty..Type$GT$$GT$$GT$17h7b310415308d2219E', symObjAddr: 0x8BB0, symBinAddr: 0x279E0, symSize: 0x50 }
  - { offsetInCU: 0x2457A, offset: 0xC66A1, size: 0x8, addend: 0x0, symName: '__ZN4core3ptr89drop_in_place$LT$core..option..Option$LT$alloc..boxed..Box$LT$syn..expr..Expr$GT$$GT$$GT$17h1862cb574e5ecf32E', symObjAddr: 0x8C00, symBinAddr: 0x27A30, symSize: 0x50 }
  - { offsetInCU: 0x24728, offset: 0xC684F, size: 0x8, addend: 0x0, symName: '__ZN4core3ptr89drop_in_place$LT$syn..punctuated..Punctuated$LT$syn..pat..Pat$C$syn..token..Comma$GT$$GT$17h487291e67ef6ac2bE', symObjAddr: 0x8C50, symBinAddr: 0x27A80, symSize: 0x120 }
  - { offsetInCU: 0x24BBA, offset: 0xC6CE1, size: 0x8, addend: 0x0, symName: '__ZN4core3ptr89drop_in_place$LT$syn..punctuated..Punctuated$LT$syn..ty..Type$C$syn..token..Comma$GT$$GT$17h2c59318ff8918ba8E', symObjAddr: 0x8D70, symBinAddr: 0x27BA0, symSize: 0x120 }
  - { offsetInCU: 0x25073, offset: 0xC719A, size: 0x8, addend: 0x0, symName: '__ZN4core3ptr90drop_in_place$LT$core..option..Option$LT$alloc..boxed..Box$LT$syn..data..Field$GT$$GT$$GT$17h98623dd57475901eE', symObjAddr: 0x8E90, symBinAddr: 0x27CC0, symSize: 0x1D0 }
  - { offsetInCU: 0x257AC, offset: 0xC78D3, size: 0x8, addend: 0x0, symName: '__ZN4core3ptr90drop_in_place$LT$core..option..Option$LT$alloc..boxed..Box$LT$syn..item..FnArg$GT$$GT$$GT$17hbfc8915c06bc453aE', symObjAddr: 0x9060, symBinAddr: 0x27E90, symSize: 0x280 }
  - { offsetInCU: 0x26342, offset: 0xC8469, size: 0x8, addend: 0x0, symName: '__ZN4core3ptr91drop_in_place$LT$syn..punctuated..Punctuated$LT$syn..expr..Expr$C$syn..token..Comma$GT$$GT$17hab7a0b21dd305247E', symObjAddr: 0x92E0, symBinAddr: 0x28110, symSize: 0x120 }
  - { offsetInCU: 0x267D0, offset: 0xC88F7, size: 0x8, addend: 0x0, symName: '__ZN4core3ptr92drop_in_place$LT$core..option..Option$LT$$LP$syn..token..As$C$proc_macro2..Ident$RP$$GT$$GT$17habfef0f4ad2bce69E', symObjAddr: 0x9400, symBinAddr: 0x28230, symSize: 0x30 }
  - { offsetInCU: 0x26967, offset: 0xC8A8E, size: 0x8, addend: 0x0, symName: '__ZN4core3ptr92drop_in_place$LT$core..option..Option$LT$alloc..boxed..Box$LT$syn..data..Variant$GT$$GT$$GT$17h825c4de8cc7cd365E', symObjAddr: 0x9430, symBinAddr: 0x28260, symSize: 0x1A0 }
  - { offsetInCU: 0x26F2E, offset: 0xC9055, size: 0x8, addend: 0x0, symName: '__ZN4core3ptr92drop_in_place$LT$syn..punctuated..Punctuated$LT$syn..item..FnArg$C$syn..token..Comma$GT$$GT$17he189c5c7fc43a249E', symObjAddr: 0x95D0, symBinAddr: 0x28400, symSize: 0xE0 }
  - { offsetInCU: 0x27229, offset: 0xC9350, size: 0x8, addend: 0x0, symName: '__ZN4core3ptr94drop_in_place$LT$syn..punctuated..Punctuated$LT$syn..data..Variant$C$syn..token..Comma$GT$$GT$17h3a247c2fcfb0cc38E', symObjAddr: 0x96B0, symBinAddr: 0x284E0, symSize: 0xE0 }
  - { offsetInCU: 0x2752C, offset: 0xC9653, size: 0x8, addend: 0x0, symName: '__ZN4core3ptr94drop_in_place$LT$syn..punctuated..Punctuated$LT$syn..pat..FieldPat$C$syn..token..Comma$GT$$GT$17he7e26d1e1aa55800E', symObjAddr: 0x9790, symBinAddr: 0x285C0, symSize: 0xF0 }
  - { offsetInCU: 0x2782B, offset: 0xC9952, size: 0x8, addend: 0x0, symName: '__ZN4core3ptr94drop_in_place$LT$syn..punctuated..Punctuated$LT$syn..ty..BareFnArg$C$syn..token..Comma$GT$$GT$17hc9e70e44d16cbea3E', symObjAddr: 0x9880, symBinAddr: 0x286B0, symSize: 0x90 }
  - { offsetInCU: 0x27A9B, offset: 0xC9BC2, size: 0x8, addend: 0x0, symName: '__ZN4core3ptr96drop_in_place$LT$core..option..Option$LT$alloc..boxed..Box$LT$syn..path..PathSegment$GT$$GT$$GT$17h736d4914be8ccd56E', symObjAddr: 0x9910, symBinAddr: 0x28740, symSize: 0x180 }
  - { offsetInCU: 0x28158, offset: 0xCA27F, size: 0x8, addend: 0x0, symName: '__ZN4core3ptr97drop_in_place$LT$syn..punctuated..Punctuated$LT$syn..expr..FieldValue$C$syn..token..Comma$GT$$GT$17hebc649b207814284E', symObjAddr: 0x9A90, symBinAddr: 0x288C0, symSize: 0xF0 }
  - { offsetInCU: 0x284D1, offset: 0xCA5F8, size: 0x8, addend: 0x0, symName: '__ZN4core3ptr97drop_in_place$LT$syn..punctuated..Punctuated$LT$syn..lifetime..Lifetime$C$syn..token..Add$GT$$GT$17h0798ccbf56150115E', symObjAddr: 0x9B80, symBinAddr: 0x289B0, symSize: 0xD0 }
  - { offsetInCU: 0x28945, offset: 0xCAA6C, size: 0x8, addend: 0x0, symName: '__ZN4core3ptr99drop_in_place$LT$syn..punctuated..Punctuated$LT$syn..path..PathSegment$C$syn..token..Colon2$GT$$GT$17hc0e11ab31c22306eE', symObjAddr: 0x9C50, symBinAddr: 0x28A80, symSize: 0x250 }
  - { offsetInCU: 0x2BA9B, offset: 0xCDBC2, size: 0x8, addend: 0x0, symName: '__ZN13ark_ff_macros6unroll6unroll28_$u7b$$u7b$closure$u7d$$u7d$17h9cfdc179d63ca1fcE', symObjAddr: 0xBCE0, symBinAddr: 0x2AB10, symSize: 0x184 }
  - { offsetInCU: 0x2BDB7, offset: 0xCDEDE, size: 0x8, addend: 0x0, symName: __ZN13ark_ff_macros6unroll15unroll_in_block17hae82e5e0fd344172E, symObjAddr: 0x9FE0, symBinAddr: 0x28E10, symSize: 0x220 }
  - { offsetInCU: 0x2BFCE, offset: 0xCE0F5, size: 0x8, addend: 0x0, symName: __ZN13ark_ff_macros6unroll6unroll17hb976b8fcf53e6126E, symObjAddr: 0xA200, symBinAddr: 0x29030, symSize: 0x1AE0 }
  - { offsetInCU: 0x2E3AB, offset: 0xD04D2, size: 0x8, addend: 0x0, symName: __ZN5alloc5alloc15exchange_malloc17h9a87608d0224859dE, symObjAddr: 0x9F10, symBinAddr: 0x28D40, symSize: 0x40 }
  - { offsetInCU: 0x2FBA3, offset: 0xD1CCA, size: 0x8, addend: 0x0, symName: '__ZN69_$LT$alloc..boxed..Box$LT$T$C$A$GT$$u20$as$u20$core..clone..Clone$GT$5clone17h02353b2cbc28c678E', symObjAddr: 0x9F50, symBinAddr: 0x28D80, symSize: 0x90 }
  - { offsetInCU: 0x364F7, offset: 0xD861E, size: 0x8, addend: 0x0, symName: '__ZN5alloc3vec16Vec$LT$T$C$A$GT$4push17h64a7efbf17daaed1E', symObjAddr: 0x9EA0, symBinAddr: 0x28CD0, symSize: 0x70 }
  - { offsetInCU: 0x1E, offset: 0xDBAD6, size: 0x8, addend: 0x0, symName: '__ZN4core3ptr39drop_in_place$LT$proc_macro2..Ident$GT$17hf70eea798d50d675E', symObjAddr: 0x0, symBinAddr: 0x2ACA0, symSize: 0x30 }
  - { offsetInCU: 0xA8, offset: 0xDBB60, size: 0x8, addend: 0x0, symName: '__ZN58_$LT$alloc..string..String$u20$as$u20$core..fmt..Write$GT$10write_char17h04bc467bd68a934bE', symObjAddr: 0x2C0, symBinAddr: 0x2AF60, symSize: 0x140 }
  - { offsetInCU: 0x4AD, offset: 0xDBF65, size: 0x8, addend: 0x0, symName: '__ZN58_$LT$alloc..string..String$u20$as$u20$core..fmt..Write$GT$9write_str17h46a93205c3443fbaE', symObjAddr: 0x400, symBinAddr: 0x2B0A0, symSize: 0x60 }
  - { offsetInCU: 0x184D, offset: 0xDD305, size: 0x8, addend: 0x0, symName: '__ZN4core3ptr39drop_in_place$LT$proc_macro2..Ident$GT$17hf70eea798d50d675E', symObjAddr: 0x0, symBinAddr: 0x2ACA0, symSize: 0x30 }
  - { offsetInCU: 0x1968, offset: 0xDD420, size: 0x8, addend: 0x0, symName: '__ZN4core3ptr42drop_in_place$LT$alloc..string..String$GT$17hbabb203281c04810E', symObjAddr: 0x30, symBinAddr: 0x2ACD0, symSize: 0x20 }
  - { offsetInCU: 0x1BA6, offset: 0xDD65E, size: 0x8, addend: 0x0, symName: '__ZN4core3ptr45drop_in_place$LT$proc_macro2..TokenStream$GT$17hb999668eb610a023E', symObjAddr: 0x50, symBinAddr: 0x2ACF0, symSize: 0x140 }
  - { offsetInCU: 0x2002, offset: 0xDDABA, size: 0x8, addend: 0x0, symName: '__ZN4core3ptr65drop_in_place$LT$alloc..vec..Vec$LT$proc_macro..TokenTree$GT$$GT$17hde00f9b38ede6167E', symObjAddr: 0x190, symBinAddr: 0x2AE30, symSize: 0x110 }
  - { offsetInCU: 0x2859, offset: 0xDE311, size: 0x8, addend: 0x0, symName: '__ZN53_$LT$core..fmt..Error$u20$as$u20$core..fmt..Debug$GT$3fmt17h03dc662ab152f3aeE', symObjAddr: 0x2A0, symBinAddr: 0x2AF40, symSize: 0x20 }
  - { offsetInCU: 0x38BD, offset: 0xDF375, size: 0x8, addend: 0x0, symName: '__ZN65_$LT$num_bigint..ParseBigIntError$u20$as$u20$core..fmt..Debug$GT$3fmt17h30ccf17c99ce4bc6E', symObjAddr: 0x460, symBinAddr: 0x2B100, symSize: 0x50 }
  - { offsetInCU: 0x5099, offset: 0xE0B51, size: 0x8, addend: 0x0, symName: __ZN13ark_ff_macros10montgomery18mont_config_helper17hd98a0ea32a07286bE, symObjAddr: 0x4B0, symBinAddr: 0x2B150, symSize: 0x387D }
  - { offsetInCU: 0x1E, offset: 0xE67CB, size: 0x8, addend: 0x0, symName: '__ZN103_$LT$alloc..vec..into_iter..IntoIter$LT$T$C$A$GT$$u20$as$u20$core..iter..traits..iterator..Iterator$GT$4fold17h9780069e4e48eba9E', symObjAddr: 0x0, symBinAddr: 0x2E9D0, symSize: 0x140 }
  - { offsetInCU: 0x2022, offset: 0xE87CF, size: 0x8, addend: 0x0, symName: '__ZN4core3ptr100drop_in_place$LT$core..option..Option$LT$alloc..boxed..Box$LT$syn..generics..LifetimeDef$GT$$GT$$GT$17h3899ca5c2432ed32E', symObjAddr: 0x140, symBinAddr: 0x2EB10, symSize: 0x50 }
  - { offsetInCU: 0x21A4, offset: 0xE8951, size: 0x8, addend: 0x0, symName: '__ZN4core3ptr100drop_in_place$LT$core..option..Option$LT$alloc..boxed..Box$LT$syn..path..GenericArgument$GT$$GT$$GT$17h8f0a837edb1aa051E', symObjAddr: 0x190, symBinAddr: 0x2EB60, symSize: 0x50 }
  - { offsetInCU: 0x2488, offset: 0xE8C35, size: 0x8, addend: 0x0, symName: '__ZN4core3ptr101drop_in_place$LT$core..option..Option$LT$alloc..boxed..Box$LT$syn..generics..GenericParam$GT$$GT$$GT$17hd5fe1fed536eea79E', symObjAddr: 0x1E0, symBinAddr: 0x2EBB0, symSize: 0x310 }
  - { offsetInCU: 0x2EC3, offset: 0xE9670, size: 0x8, addend: 0x0, symName: '__ZN4core3ptr103drop_in_place$LT$core..option..Option$LT$alloc..boxed..Box$LT$syn..generics..WherePredicate$GT$$GT$$GT$17h58b010433e2ef286E', symObjAddr: 0x4F0, symBinAddr: 0x2EEC0, symSize: 0x120 }
  - { offsetInCU: 0x3278, offset: 0xE9A25, size: 0x8, addend: 0x0, symName: '__ZN4core3ptr103drop_in_place$LT$syn..punctuated..Punctuated$LT$syn..generics..TypeParamBound$C$syn..token..Add$GT$$GT$17h9e2d2e603068e83aE', symObjAddr: 0x610, symBinAddr: 0x2EFE0, symSize: 0x160 }
  - { offsetInCU: 0x38D1, offset: 0xEA07E, size: 0x8, addend: 0x0, symName: '__ZN4core3ptr108drop_in_place$LT$syn..punctuated..Punctuated$LT$syn..expr..GenericMethodArgument$C$syn..token..Comma$GT$$GT$17h4b6587da36ced0fcE', symObjAddr: 0x770, symBinAddr: 0x2F140, symSize: 0x150 }
  - { offsetInCU: 0x3DAE, offset: 0xEA55B, size: 0x8, addend: 0x0, symName: '__ZN4core3ptr114drop_in_place$LT$core..option..Option$LT$$LP$syn..token..Eq$C$alloc..boxed..Box$LT$syn..expr..Expr$GT$$RP$$GT$$GT$17haf933d5e5d5cce54E', symObjAddr: 0x8C0, symBinAddr: 0x2F290, symSize: 0x50 }
  - { offsetInCU: 0x3F7C, offset: 0xEA729, size: 0x8, addend: 0x0, symName: '__ZN4core3ptr115drop_in_place$LT$core..option..Option$LT$$LP$syn..token..Brace$C$alloc..vec..Vec$LT$syn..item..Item$GT$$RP$$GT$$GT$17he932d4f54e38b009E', symObjAddr: 0x910, symBinAddr: 0x2F2E0, symSize: 0xD0 }
  - { offsetInCU: 0x4293, offset: 0xEAA40, size: 0x8, addend: 0x0, symName: '__ZN4core3ptr126drop_in_place$LT$core..option..Option$LT$$LP$syn..token..And$C$core..option..Option$LT$syn..lifetime..Lifetime$GT$$RP$$GT$$GT$17h0470d71f478a1896E', symObjAddr: 0x9E0, symBinAddr: 0x2F3B0, symSize: 0x30 }
  - { offsetInCU: 0x44A6, offset: 0xEAC53, size: 0x8, addend: 0x0, symName: '__ZN4core3ptr34drop_in_place$LT$syn..lit..Lit$GT$17h13298495a2f812f1E', symObjAddr: 0xA10, symBinAddr: 0x2F3E0, symSize: 0x110 }
  - { offsetInCU: 0x4956, offset: 0xEB103, size: 0x8, addend: 0x0, symName: '__ZN4core3ptr34drop_in_place$LT$syn..pat..Pat$GT$17h0d0a9b563b5dbf26E', symObjAddr: 0xB20, symBinAddr: 0x2F4F0, symSize: 0x1190 }
  - { offsetInCU: 0x884F, offset: 0xEEFFC, size: 0x8, addend: 0x0, symName: '__ZN4core3ptr34drop_in_place$LT$syn..ty..Type$GT$17h27c6c91ce96053beE', symObjAddr: 0x1CB0, symBinAddr: 0x30680, symSize: 0x540 }
  - { offsetInCU: 0xA0D7, offset: 0xF0884, size: 0x8, addend: 0x0, symName: '__ZN4core3ptr36drop_in_place$LT$syn..expr..Expr$GT$17h22b5966f62e8bb79E', symObjAddr: 0x21F0, symBinAddr: 0x30BC0, symSize: 0x3050 }
  - { offsetInCU: 0x149E5, offset: 0xFB192, size: 0x8, addend: 0x0, symName: '__ZN4core3ptr36drop_in_place$LT$syn..mac..Macro$GT$17h51b7807cf53b2cdeE', symObjAddr: 0x5240, symBinAddr: 0x33C10, symSize: 0x40 }
  - { offsetInCU: 0x14B36, offset: 0xFB2E3, size: 0x8, addend: 0x0, symName: '__ZN4core3ptr36drop_in_place$LT$syn..path..Path$GT$17h0dfa334735d579c8E.llvm.6444472231622503715', symObjAddr: 0x5280, symBinAddr: 0x33C50, symSize: 0x230 }
  - { offsetInCU: 0x159E2, offset: 0xFC18F, size: 0x8, addend: 0x0, symName: '__ZN4core3ptr36drop_in_place$LT$syn..stmt..Stmt$GT$17h77edc66dbadb6c85E.llvm.6444472231622503715', symObjAddr: 0x54B0, symBinAddr: 0x33E80, symSize: 0x1520 }
  - { offsetInCU: 0x1B48F, offset: 0x101C3C, size: 0x8, addend: 0x0, symName: '__ZN4core3ptr37drop_in_place$LT$syn..stmt..Block$GT$17h3230a4b6b50a27e7E', symObjAddr: 0x69D0, symBinAddr: 0x353A0, symSize: 0x80 }
  - { offsetInCU: 0x1B77D, offset: 0x101F2A, size: 0x8, addend: 0x0, symName: '__ZN4core3ptr38drop_in_place$LT$syn..data..Fields$GT$17h464fe1332032af7dE', symObjAddr: 0x6A50, symBinAddr: 0x35420, symSize: 0x180 }
  - { offsetInCU: 0x1BBC3, offset: 0x102370, size: 0x8, addend: 0x0, symName: '__ZN4core3ptr38drop_in_place$LT$syn..expr..Member$GT$17h6e2c1a9be08e300fE', symObjAddr: 0x6BD0, symBinAddr: 0x355A0, symSize: 0x30 }
  - { offsetInCU: 0x1BCBF, offset: 0x10246C, size: 0x8, addend: 0x0, symName: '__ZN4core3ptr39drop_in_place$LT$proc_macro2..Ident$GT$17hf70eea798d50d675E', symObjAddr: 0x6C00, symBinAddr: 0x355D0, symSize: 0x30 }
  - { offsetInCU: 0x1BEB3, offset: 0x102660, size: 0x8, addend: 0x0, symName: '__ZN4core3ptr39drop_in_place$LT$syn..item..UseTree$GT$17hd64afb304856727bE', symObjAddr: 0x6C30, symBinAddr: 0x35600, symSize: 0x1F0 }
  - { offsetInCU: 0x1C5CA, offset: 0x102D77, size: 0x8, addend: 0x0, symName: '__ZN4core3ptr39drop_in_place$LT$syn..pat..PatTuple$GT$17h6d4a0b41d9218ac5E', symObjAddr: 0x6E20, symBinAddr: 0x357F0, symSize: 0x100 }
  - { offsetInCU: 0x1C8D3, offset: 0x103080, size: 0x8, addend: 0x0, symName: '__ZN4core3ptr40drop_in_place$LT$syn..ty..ReturnType$GT$17h6d1198a11ecff8e0E', symObjAddr: 0x6F20, symBinAddr: 0x358F0, symSize: 0x50 }
  - { offsetInCU: 0x1CA43, offset: 0x1031F0, size: 0x8, addend: 0x0, symName: '__ZN4core3ptr41drop_in_place$LT$syn..attr..Attribute$GT$17h1405b59bbc177c83E.llvm.6444472231622503715', symObjAddr: 0x6F70, symBinAddr: 0x35940, symSize: 0x40 }
  - { offsetInCU: 0x1CABD, offset: 0x10326A, size: 0x8, addend: 0x0, symName: '__ZN4core3ptr41drop_in_place$LT$syn..item..Signature$GT$17h152298e86bbf24c8E', symObjAddr: 0x6FB0, symBinAddr: 0x35980, symSize: 0x2D0 }
  - { offsetInCU: 0x1D66C, offset: 0x103E19, size: 0x8, addend: 0x0, symName: '__ZN4core3ptr42drop_in_place$LT$syn..data..Visibility$GT$17hda085215a409a8d0E', symObjAddr: 0x7280, symBinAddr: 0x35C50, symSize: 0x60 }
  - { offsetInCU: 0x1D913, offset: 0x1040C0, size: 0x8, addend: 0x0, symName: '__ZN4core3ptr43drop_in_place$LT$proc_macro2..TokenTree$GT$17hbc0c499a00696c98E.llvm.6444472231622503715', symObjAddr: 0x72E0, symBinAddr: 0x35CB0, symSize: 0xB0 }
  - { offsetInCU: 0x1DC6E, offset: 0x10441B, size: 0x8, addend: 0x0, symName: '__ZN4core3ptr43drop_in_place$LT$syn..data..FieldsNamed$GT$17heb994b0126b76658E', symObjAddr: 0x7390, symBinAddr: 0x35D60, symSize: 0xE0 }
  - { offsetInCU: 0x1DFED, offset: 0x10479A, size: 0x8, addend: 0x0, symName: '__ZN4core3ptr44drop_in_place$LT$syn..generics..Generics$GT$17heeb08408b55fcc00E', symObjAddr: 0x7470, symBinAddr: 0x35E40, symSize: 0xA0 }
  - { offsetInCU: 0x1E259, offset: 0x104A06, size: 0x8, addend: 0x0, symName: '__ZN4core3ptr44drop_in_place$LT$syn..lifetime..Lifetime$GT$17ha37ed2c944b75f70E', symObjAddr: 0x7510, symBinAddr: 0x35EE0, symSize: 0x30 }
  - { offsetInCU: 0x1E3F0, offset: 0x104B9D, size: 0x8, addend: 0x0, symName: '__ZN4core3ptr45drop_in_place$LT$proc_macro2..TokenStream$GT$17hb999668eb610a023E.llvm.6444472231622503715', symObjAddr: 0x7540, symBinAddr: 0x35F10, symSize: 0x140 }
  - { offsetInCU: 0x1E84C, offset: 0x104FF9, size: 0x8, addend: 0x0, symName: '__ZN4core3ptr47drop_in_place$LT$syn..generics..LifetimeDef$GT$17ha72cc6e71d0d64c2E', symObjAddr: 0x7680, symBinAddr: 0x36050, symSize: 0x120 }
  - { offsetInCU: 0x1ECA7, offset: 0x105454, size: 0x8, addend: 0x0, symName: '__ZN4core3ptr47drop_in_place$LT$syn..path..GenericArgument$GT$17h813827156c9b04d4E', symObjAddr: 0x77A0, symBinAddr: 0x36170, symSize: 0x110 }
  - { offsetInCU: 0x1EFC2, offset: 0x10576F, size: 0x8, addend: 0x0, symName: '__ZN4core3ptr58drop_in_place$LT$alloc..vec..Vec$LT$syn..expr..Arm$GT$$GT$17hccb9a95c06f20bd3E', symObjAddr: 0x78B0, symBinAddr: 0x36280, symSize: 0xD0 }
  - { offsetInCU: 0x1F282, offset: 0x105A2F, size: 0x8, addend: 0x0, symName: '__ZN4core3ptr59drop_in_place$LT$alloc..boxed..Box$LT$syn..pat..Pat$GT$$GT$17h9bff5caf34a61968E', symObjAddr: 0x7980, symBinAddr: 0x36350, symSize: 0x50 }
  - { offsetInCU: 0x1F3DB, offset: 0x105B88, size: 0x8, addend: 0x0, symName: '__ZN4core3ptr59drop_in_place$LT$alloc..boxed..Box$LT$syn..ty..Type$GT$$GT$17hb6c1bba0aff0f067E', symObjAddr: 0x79D0, symBinAddr: 0x363A0, symSize: 0x50 }
  - { offsetInCU: 0x1F534, offset: 0x105CE1, size: 0x8, addend: 0x0, symName: '__ZN4core3ptr61drop_in_place$LT$alloc..boxed..Box$LT$syn..expr..Expr$GT$$GT$17h90106686e1a1275fE', symObjAddr: 0x7A20, symBinAddr: 0x363F0, symSize: 0x50 }
  - { offsetInCU: 0x1F709, offset: 0x105EB6, size: 0x8, addend: 0x0, symName: '__ZN4core3ptr61drop_in_place$LT$syn..path..ParenthesizedGenericArguments$GT$17h64f1a6d01ff2b0dcE', symObjAddr: 0x7A70, symBinAddr: 0x36440, symSize: 0x170 }
  - { offsetInCU: 0x1FCFF, offset: 0x1064AC, size: 0x8, addend: 0x0, symName: '__ZN4core3ptr62drop_in_place$LT$alloc..boxed..Box$LT$syn..stmt..Block$GT$$GT$17h202f83029423bd6fE', symObjAddr: 0x7BE0, symBinAddr: 0x365B0, symSize: 0x90 }
  - { offsetInCU: 0x20105, offset: 0x1068B2, size: 0x8, addend: 0x0, symName: '__ZN4core3ptr63drop_in_place$LT$alloc..boxed..Box$LT$syn..lit..LitRepr$GT$$GT$17h66c34f31c78f7006E', symObjAddr: 0x7C70, symBinAddr: 0x36640, symSize: 0x60 }
  - { offsetInCU: 0x203CE, offset: 0x106B7B, size: 0x8, addend: 0x0, symName: '__ZN4core3ptr63drop_in_place$LT$alloc..vec..Vec$LT$syn..item..ImplItem$GT$$GT$17h9e8ea4c33cf8e01fE', symObjAddr: 0x7CD0, symBinAddr: 0x366A0, symSize: 0x80 }
  - { offsetInCU: 0x20686, offset: 0x106E33, size: 0x8, addend: 0x0, symName: '__ZN4core3ptr64drop_in_place$LT$alloc..boxed..Box$LT$syn..item..UseTree$GT$$GT$17h720b632bb959368fE', symObjAddr: 0x7D50, symBinAddr: 0x36720, symSize: 0x50 }
  - { offsetInCU: 0x2081D, offset: 0x106FCA, size: 0x8, addend: 0x0, symName: '__ZN4core3ptr64drop_in_place$LT$alloc..boxed..Box$LT$syn..pat..FieldPat$GT$$GT$17h03d264fdc78b562bE', symObjAddr: 0x7DA0, symBinAddr: 0x36770, symSize: 0x180 }
  - { offsetInCU: 0x20F3A, offset: 0x1076E7, size: 0x8, addend: 0x0, symName: '__ZN4core3ptr64drop_in_place$LT$alloc..boxed..Box$LT$syn..ty..BareFnArg$GT$$GT$17he8d97e39f0b89c78E', symObjAddr: 0x7F20, symBinAddr: 0x368F0, symSize: 0x160 }
  - { offsetInCU: 0x214D0, offset: 0x107C7D, size: 0x8, addend: 0x0, symName: '__ZN4core3ptr64drop_in_place$LT$alloc..vec..Vec$LT$syn..item..TraitItem$GT$$GT$17h6716fb999698345aE', symObjAddr: 0x8080, symBinAddr: 0x36A50, symSize: 0x80 }
  - { offsetInCU: 0x21788, offset: 0x107F35, size: 0x8, addend: 0x0, symName: '__ZN4core3ptr65drop_in_place$LT$alloc..vec..Vec$LT$proc_macro..TokenTree$GT$$GT$17hde00f9b38ede6167E.llvm.6444472231622503715', symObjAddr: 0x8100, symBinAddr: 0x36AD0, symSize: 0x110 }
  - { offsetInCU: 0x21B80, offset: 0x10832D, size: 0x8, addend: 0x0, symName: '__ZN4core3ptr65drop_in_place$LT$core..option..Option$LT$syn..expr..Label$GT$$GT$17he64e3930a30e77f6E', symObjAddr: 0x8210, symBinAddr: 0x36BE0, symSize: 0x30 }
  - { offsetInCU: 0x21CBA, offset: 0x108467, size: 0x8, addend: 0x0, symName: '__ZN4core3ptr66drop_in_place$LT$alloc..vec..Vec$LT$syn..item..ForeignItem$GT$$GT$17hadc53e2868c0bce5E', symObjAddr: 0x8240, symBinAddr: 0x36C10, symSize: 0x80 }
  - { offsetInCU: 0x21F72, offset: 0x10871F, size: 0x8, addend: 0x0, symName: '__ZN4core3ptr66drop_in_place$LT$core..option..Option$LT$syn..ty..Variadic$GT$$GT$17h737c6fa0779b3868E', symObjAddr: 0x82C0, symBinAddr: 0x36C90, symSize: 0xF0 }
  - { offsetInCU: 0x2229C, offset: 0x108A49, size: 0x8, addend: 0x0, symName: '__ZN4core3ptr67drop_in_place$LT$alloc..boxed..Box$LT$syn..expr..FieldValue$GT$$GT$17h6c7d8efb2b208feeE', symObjAddr: 0x83B0, symBinAddr: 0x36D80, symSize: 0x160 }
  - { offsetInCU: 0x22831, offset: 0x108FDE, size: 0x8, addend: 0x0, symName: '__ZN4core3ptr68drop_in_place$LT$alloc..boxed..Box$LT$syn..path..PathSegment$GT$$GT$17hc7e1d64fe882c378E', symObjAddr: 0x8510, symBinAddr: 0x36EE0, symSize: 0x190 }
  - { offsetInCU: 0x22F3B, offset: 0x1096E8, size: 0x8, addend: 0x0, symName: '__ZN4core3ptr72drop_in_place$LT$alloc..boxed..Box$LT$syn..path..GenericArgument$GT$$GT$17hbeacc7d49176e2b8E', symObjAddr: 0x86A0, symBinAddr: 0x37070, symSize: 0x120 }
  - { offsetInCU: 0x233B3, offset: 0x109B60, size: 0x8, addend: 0x0, symName: '__ZN4core3ptr72drop_in_place$LT$core..option..Option$LT$syn..lifetime..Lifetime$GT$$GT$17h0acdf036efb385bcE', symObjAddr: 0x87C0, symBinAddr: 0x37190, symSize: 0x30 }
  - { offsetInCU: 0x234CE, offset: 0x109C7B, size: 0x8, addend: 0x0, symName: '__ZN4core3ptr75drop_in_place$LT$alloc..boxed..Box$LT$syn..generics..TypeParamBound$GT$$GT$17hd37835668efda9f9E', symObjAddr: 0x87F0, symBinAddr: 0x371C0, symSize: 0x90 }
  - { offsetInCU: 0x2380D, offset: 0x109FBA, size: 0x8, addend: 0x0, symName: '__ZN4core3ptr75drop_in_place$LT$core..option..Option$LT$syn..generics..WhereClause$GT$$GT$17hd730665f4beca4a5E', symObjAddr: 0x8880, symBinAddr: 0x37250, symSize: 0xF0 }
  - { offsetInCU: 0x23B2F, offset: 0x10A2DC, size: 0x8, addend: 0x0, symName: '__ZN4core3ptr78drop_in_place$LT$alloc..boxed..Box$LT$syn..expr..GenericMethodArgument$GT$$GT$17h2ba1c45210c2d620E', symObjAddr: 0x8970, symBinAddr: 0x37340, symSize: 0x60 }
  - { offsetInCU: 0x23D40, offset: 0x10A4ED, size: 0x8, addend: 0x0, symName: '__ZN4core3ptr78drop_in_place$LT$core..option..Option$LT$syn..generics..BoundLifetimes$GT$$GT$17hfe0b2832f27903aaE', symObjAddr: 0x89D0, symBinAddr: 0x373A0, symSize: 0xC0 }
  - { offsetInCU: 0x24176, offset: 0x10A923, size: 0x8, addend: 0x0, symName: '__ZN4core3ptr86drop_in_place$LT$syn..punctuated..Punctuated$LT$syn..pat..Pat$C$syn..token..Or$GT$$GT$17h079000a46246a98aE', symObjAddr: 0x8A90, symBinAddr: 0x37460, symSize: 0x120 }
  - { offsetInCU: 0x245F1, offset: 0x10AD9E, size: 0x8, addend: 0x0, symName: '__ZN4core3ptr87drop_in_place$LT$core..option..Option$LT$alloc..boxed..Box$LT$syn..pat..Pat$GT$$GT$$GT$17h3bebdc7d61d8f4efE', symObjAddr: 0x8BB0, symBinAddr: 0x37580, symSize: 0x50 }
  - { offsetInCU: 0x24761, offset: 0x10AF0E, size: 0x8, addend: 0x0, symName: '__ZN4core3ptr87drop_in_place$LT$core..option..Option$LT$alloc..boxed..Box$LT$syn..ty..Type$GT$$GT$$GT$17h7b310415308d2219E', symObjAddr: 0x8C00, symBinAddr: 0x375D0, symSize: 0x50 }
  - { offsetInCU: 0x248D1, offset: 0x10B07E, size: 0x8, addend: 0x0, symName: '__ZN4core3ptr89drop_in_place$LT$core..option..Option$LT$alloc..boxed..Box$LT$syn..expr..Expr$GT$$GT$$GT$17h1862cb574e5ecf32E', symObjAddr: 0x8C50, symBinAddr: 0x37620, symSize: 0x50 }
  - { offsetInCU: 0x24A7F, offset: 0x10B22C, size: 0x8, addend: 0x0, symName: '__ZN4core3ptr89drop_in_place$LT$syn..punctuated..Punctuated$LT$syn..pat..Pat$C$syn..token..Comma$GT$$GT$17h487291e67ef6ac2bE', symObjAddr: 0x8CA0, symBinAddr: 0x37670, symSize: 0x120 }
  - { offsetInCU: 0x24F11, offset: 0x10B6BE, size: 0x8, addend: 0x0, symName: '__ZN4core3ptr89drop_in_place$LT$syn..punctuated..Punctuated$LT$syn..ty..Type$C$syn..token..Comma$GT$$GT$17h2c59318ff8918ba8E', symObjAddr: 0x8DC0, symBinAddr: 0x37790, symSize: 0x120 }
  - { offsetInCU: 0x253CA, offset: 0x10BB77, size: 0x8, addend: 0x0, symName: '__ZN4core3ptr90drop_in_place$LT$core..option..Option$LT$alloc..boxed..Box$LT$syn..data..Field$GT$$GT$$GT$17h98623dd57475901eE', symObjAddr: 0x8EE0, symBinAddr: 0x378B0, symSize: 0x1D0 }
  - { offsetInCU: 0x25B03, offset: 0x10C2B0, size: 0x8, addend: 0x0, symName: '__ZN4core3ptr90drop_in_place$LT$core..option..Option$LT$alloc..boxed..Box$LT$syn..item..FnArg$GT$$GT$$GT$17hbfc8915c06bc453aE', symObjAddr: 0x90B0, symBinAddr: 0x37A80, symSize: 0x280 }
  - { offsetInCU: 0x26699, offset: 0x10CE46, size: 0x8, addend: 0x0, symName: '__ZN4core3ptr91drop_in_place$LT$syn..punctuated..Punctuated$LT$syn..expr..Expr$C$syn..token..Comma$GT$$GT$17hab7a0b21dd305247E', symObjAddr: 0x9330, symBinAddr: 0x37D00, symSize: 0x120 }
  - { offsetInCU: 0x26B27, offset: 0x10D2D4, size: 0x8, addend: 0x0, symName: '__ZN4core3ptr92drop_in_place$LT$core..option..Option$LT$$LP$syn..token..As$C$proc_macro2..Ident$RP$$GT$$GT$17habfef0f4ad2bce69E', symObjAddr: 0x9450, symBinAddr: 0x37E20, symSize: 0x30 }
  - { offsetInCU: 0x26CBE, offset: 0x10D46B, size: 0x8, addend: 0x0, symName: '__ZN4core3ptr92drop_in_place$LT$core..option..Option$LT$alloc..boxed..Box$LT$syn..data..Variant$GT$$GT$$GT$17h825c4de8cc7cd365E', symObjAddr: 0x9480, symBinAddr: 0x37E50, symSize: 0x1A0 }
  - { offsetInCU: 0x27285, offset: 0x10DA32, size: 0x8, addend: 0x0, symName: '__ZN4core3ptr92drop_in_place$LT$syn..punctuated..Punctuated$LT$syn..item..FnArg$C$syn..token..Comma$GT$$GT$17he189c5c7fc43a249E', symObjAddr: 0x9620, symBinAddr: 0x37FF0, symSize: 0xE0 }
  - { offsetInCU: 0x27580, offset: 0x10DD2D, size: 0x8, addend: 0x0, symName: '__ZN4core3ptr94drop_in_place$LT$syn..punctuated..Punctuated$LT$syn..data..Variant$C$syn..token..Comma$GT$$GT$17h3a247c2fcfb0cc38E', symObjAddr: 0x9700, symBinAddr: 0x380D0, symSize: 0xE0 }
  - { offsetInCU: 0x27883, offset: 0x10E030, size: 0x8, addend: 0x0, symName: '__ZN4core3ptr94drop_in_place$LT$syn..punctuated..Punctuated$LT$syn..pat..FieldPat$C$syn..token..Comma$GT$$GT$17he7e26d1e1aa55800E', symObjAddr: 0x97E0, symBinAddr: 0x381B0, symSize: 0xF0 }
  - { offsetInCU: 0x27B82, offset: 0x10E32F, size: 0x8, addend: 0x0, symName: '__ZN4core3ptr94drop_in_place$LT$syn..punctuated..Punctuated$LT$syn..ty..BareFnArg$C$syn..token..Comma$GT$$GT$17hc9e70e44d16cbea3E', symObjAddr: 0x98D0, symBinAddr: 0x382A0, symSize: 0x90 }
  - { offsetInCU: 0x27DF2, offset: 0x10E59F, size: 0x8, addend: 0x0, symName: '__ZN4core3ptr96drop_in_place$LT$core..option..Option$LT$alloc..boxed..Box$LT$syn..path..PathSegment$GT$$GT$$GT$17h736d4914be8ccd56E', symObjAddr: 0x9960, symBinAddr: 0x38330, symSize: 0x180 }
  - { offsetInCU: 0x284AF, offset: 0x10EC5C, size: 0x8, addend: 0x0, symName: '__ZN4core3ptr97drop_in_place$LT$syn..punctuated..Punctuated$LT$syn..expr..FieldValue$C$syn..token..Comma$GT$$GT$17hebc649b207814284E', symObjAddr: 0x9AE0, symBinAddr: 0x384B0, symSize: 0xF0 }
  - { offsetInCU: 0x28828, offset: 0x10EFD5, size: 0x8, addend: 0x0, symName: '__ZN4core3ptr97drop_in_place$LT$syn..punctuated..Punctuated$LT$syn..lifetime..Lifetime$C$syn..token..Add$GT$$GT$17h0798ccbf56150115E', symObjAddr: 0x9BD0, symBinAddr: 0x385A0, symSize: 0xD0 }
  - { offsetInCU: 0x28C9C, offset: 0x10F449, size: 0x8, addend: 0x0, symName: '__ZN4core3ptr99drop_in_place$LT$syn..punctuated..Punctuated$LT$syn..path..PathSegment$C$syn..token..Colon2$GT$$GT$17hc0e11ab31c22306eE', symObjAddr: 0x9CA0, symBinAddr: 0x38670, symSize: 0x250 }
  - { offsetInCU: 0x2C351, offset: 0x112AFE, size: 0x8, addend: 0x0, symName: '__ZN86_$LT$alloc..vec..into_iter..IntoIter$LT$T$C$A$GT$$u20$as$u20$core..ops..drop..Drop$GT$4drop17h32480080c383d42cE', symObjAddr: 0x9F50, symBinAddr: 0x388C0, symSize: 0xF0 }
  - { offsetInCU: 0x2C6BE, offset: 0x112E6B, size: 0x8, addend: 0x0, symName: '__ZN86_$LT$alloc..vec..into_iter..IntoIter$LT$T$C$A$GT$$u20$as$u20$core..ops..drop..Drop$GT$4drop17h7ca1c558d4c581caE', symObjAddr: 0xA040, symBinAddr: 0x389B0, symSize: 0x100 }
  - { offsetInCU: 0x2CA38, offset: 0x1131E5, size: 0x8, addend: 0x0, symName: '__ZN86_$LT$alloc..vec..into_iter..IntoIter$LT$T$C$A$GT$$u20$as$u20$core..ops..drop..Drop$GT$4drop17h912d118e0d1ba70fE', symObjAddr: 0xA140, symBinAddr: 0x38AB0, symSize: 0xD0 }
  - { offsetInCU: 0x2CDA2, offset: 0x11354F, size: 0x8, addend: 0x0, symName: '__ZN86_$LT$alloc..vec..into_iter..IntoIter$LT$T$C$A$GT$$u20$as$u20$core..ops..drop..Drop$GT$4drop17hc580be4aebb15bdbE', symObjAddr: 0xA210, symBinAddr: 0x38B80, symSize: 0x105 }
  - { offsetInCU: 0x2D19E, offset: 0x11394B, size: 0x8, addend: 0x0, symName: '__ZN103_$LT$alloc..vec..into_iter..IntoIter$LT$T$C$A$GT$$u20$as$u20$core..iter..traits..iterator..Iterator$GT$4fold17h9780069e4e48eba9E', symObjAddr: 0x0, symBinAddr: 0x2E9D0, symSize: 0x140 }
  - { offsetInCU: 0x1E, offset: 0x11FE1F, size: 0x8, addend: 0x0, symName: __ZN3syn11parse_quote5parse17h006e38bf02bd35ecE, symObjAddr: 0x0, symBinAddr: 0x38C90, symSize: 0x4A0 }
  - { offsetInCU: 0x1E69, offset: 0x121C6A, size: 0x8, addend: 0x0, symName: '__ZN4core3ptr100drop_in_place$LT$core..option..Option$LT$alloc..boxed..Box$LT$syn..generics..LifetimeDef$GT$$GT$$GT$17h3899ca5c2432ed32E', symObjAddr: 0x1790, symBinAddr: 0x3A420, symSize: 0x50 }
  - { offsetInCU: 0x1FEB, offset: 0x121DEC, size: 0x8, addend: 0x0, symName: '__ZN4core3ptr100drop_in_place$LT$core..option..Option$LT$alloc..boxed..Box$LT$syn..path..GenericArgument$GT$$GT$$GT$17h8f0a837edb1aa051E', symObjAddr: 0x17E0, symBinAddr: 0x3A470, symSize: 0x50 }
  - { offsetInCU: 0x22CF, offset: 0x1220D0, size: 0x8, addend: 0x0, symName: '__ZN4core3ptr101drop_in_place$LT$core..option..Option$LT$alloc..boxed..Box$LT$syn..generics..GenericParam$GT$$GT$$GT$17hd5fe1fed536eea79E', symObjAddr: 0x1830, symBinAddr: 0x3A4C0, symSize: 0x310 }
  - { offsetInCU: 0x2D0A, offset: 0x122B0B, size: 0x8, addend: 0x0, symName: '__ZN4core3ptr103drop_in_place$LT$core..option..Option$LT$alloc..boxed..Box$LT$syn..generics..WherePredicate$GT$$GT$$GT$17h58b010433e2ef286E', symObjAddr: 0x1B40, symBinAddr: 0x3A7D0, symSize: 0x120 }
  - { offsetInCU: 0x30BF, offset: 0x122EC0, size: 0x8, addend: 0x0, symName: '__ZN4core3ptr103drop_in_place$LT$syn..punctuated..Punctuated$LT$syn..generics..TypeParamBound$C$syn..token..Add$GT$$GT$17h9e2d2e603068e83aE', symObjAddr: 0x1C60, symBinAddr: 0x3A8F0, symSize: 0x160 }
  - { offsetInCU: 0x3718, offset: 0x123519, size: 0x8, addend: 0x0, symName: '__ZN4core3ptr108drop_in_place$LT$syn..punctuated..Punctuated$LT$syn..expr..GenericMethodArgument$C$syn..token..Comma$GT$$GT$17h4b6587da36ced0fcE', symObjAddr: 0x1DC0, symBinAddr: 0x3AA50, symSize: 0x150 }
  - { offsetInCU: 0x3BF5, offset: 0x1239F6, size: 0x8, addend: 0x0, symName: '__ZN4core3ptr114drop_in_place$LT$core..option..Option$LT$$LP$syn..token..Eq$C$alloc..boxed..Box$LT$syn..expr..Expr$GT$$RP$$GT$$GT$17haf933d5e5d5cce54E', symObjAddr: 0x1F10, symBinAddr: 0x3ABA0, symSize: 0x50 }
  - { offsetInCU: 0x3DC3, offset: 0x123BC4, size: 0x8, addend: 0x0, symName: '__ZN4core3ptr115drop_in_place$LT$core..option..Option$LT$$LP$syn..token..Brace$C$alloc..vec..Vec$LT$syn..item..Item$GT$$RP$$GT$$GT$17he932d4f54e38b009E', symObjAddr: 0x1F60, symBinAddr: 0x3ABF0, symSize: 0xD0 }
  - { offsetInCU: 0x40DA, offset: 0x123EDB, size: 0x8, addend: 0x0, symName: '__ZN4core3ptr126drop_in_place$LT$core..option..Option$LT$$LP$syn..token..And$C$core..option..Option$LT$syn..lifetime..Lifetime$GT$$RP$$GT$$GT$17h0470d71f478a1896E', symObjAddr: 0x2030, symBinAddr: 0x3ACC0, symSize: 0x30 }
  - { offsetInCU: 0x42ED, offset: 0x1240EE, size: 0x8, addend: 0x0, symName: '__ZN4core3ptr34drop_in_place$LT$syn..lit..Lit$GT$17h13298495a2f812f1E', symObjAddr: 0x2060, symBinAddr: 0x3ACF0, symSize: 0x110 }
  - { offsetInCU: 0x479D, offset: 0x12459E, size: 0x8, addend: 0x0, symName: '__ZN4core3ptr34drop_in_place$LT$syn..pat..Pat$GT$17h0d0a9b563b5dbf26E', symObjAddr: 0x2170, symBinAddr: 0x3AE00, symSize: 0x1090 }
  - { offsetInCU: 0x8295, offset: 0x128096, size: 0x8, addend: 0x0, symName: '__ZN4core3ptr34drop_in_place$LT$syn..ty..Type$GT$17h27c6c91ce96053beE', symObjAddr: 0x3200, symBinAddr: 0x3BE90, symSize: 0x540 }
  - { offsetInCU: 0x9AC0, offset: 0x1298C1, size: 0x8, addend: 0x0, symName: '__ZN4core3ptr36drop_in_place$LT$syn..expr..Expr$GT$17h22b5966f62e8bb79E', symObjAddr: 0x3740, symBinAddr: 0x3C3D0, symSize: 0x2EA0 }
  - { offsetInCU: 0x13BA0, offset: 0x1339A1, size: 0x8, addend: 0x0, symName: '__ZN4core3ptr36drop_in_place$LT$syn..mac..Macro$GT$17h51b7807cf53b2cdeE', symObjAddr: 0x65E0, symBinAddr: 0x3F270, symSize: 0x40 }
  - { offsetInCU: 0x13CF1, offset: 0x133AF2, size: 0x8, addend: 0x0, symName: '__ZN4core3ptr36drop_in_place$LT$syn..path..Path$GT$17h0dfa334735d579c8E', symObjAddr: 0x6620, symBinAddr: 0x3F2B0, symSize: 0x230 }
  - { offsetInCU: 0x14B9D, offset: 0x13499E, size: 0x8, addend: 0x0, symName: '__ZN4core3ptr36drop_in_place$LT$syn..stmt..Stmt$GT$17h77edc66dbadb6c85E', symObjAddr: 0x6850, symBinAddr: 0x3F4E0, symSize: 0x1520 }
  - { offsetInCU: 0x1A64A, offset: 0x13A44B, size: 0x8, addend: 0x0, symName: '__ZN4core3ptr37drop_in_place$LT$syn..stmt..Block$GT$17h3230a4b6b50a27e7E', symObjAddr: 0x7D70, symBinAddr: 0x40A00, symSize: 0x80 }
  - { offsetInCU: 0x1A938, offset: 0x13A739, size: 0x8, addend: 0x0, symName: '__ZN4core3ptr38drop_in_place$LT$syn..data..Fields$GT$17h464fe1332032af7dE', symObjAddr: 0x7DF0, symBinAddr: 0x40A80, symSize: 0x180 }
  - { offsetInCU: 0x1ADBC, offset: 0x13ABBD, size: 0x8, addend: 0x0, symName: '__ZN4core3ptr38drop_in_place$LT$syn..error..Error$GT$17hc2001f61878b5c9eE', symObjAddr: 0x7F70, symBinAddr: 0x40C00, symSize: 0x80 }
  - { offsetInCU: 0x1B07B, offset: 0x13AE7C, size: 0x8, addend: 0x0, symName: '__ZN4core3ptr38drop_in_place$LT$syn..expr..Member$GT$17h6e2c1a9be08e300fE', symObjAddr: 0x7FF0, symBinAddr: 0x40C80, symSize: 0x30 }
  - { offsetInCU: 0x1B177, offset: 0x13AF78, size: 0x8, addend: 0x0, symName: '__ZN4core3ptr39drop_in_place$LT$proc_macro2..Ident$GT$17hf70eea798d50d675E', symObjAddr: 0x8020, symBinAddr: 0x40CB0, symSize: 0x30 }
  - { offsetInCU: 0x1B38A, offset: 0x13B18B, size: 0x8, addend: 0x0, symName: '__ZN4core3ptr39drop_in_place$LT$syn..buffer..Entry$GT$17hfadab1029b890467E', symObjAddr: 0x8050, symBinAddr: 0x40CE0, symSize: 0xB0 }
  - { offsetInCU: 0x1B82C, offset: 0x13B62D, size: 0x8, addend: 0x0, symName: '__ZN4core3ptr39drop_in_place$LT$syn..item..UseTree$GT$17hd64afb304856727bE', symObjAddr: 0x8100, symBinAddr: 0x40D90, symSize: 0x1F0 }
  - { offsetInCU: 0x1BFBF, offset: 0x13BDC0, size: 0x8, addend: 0x0, symName: '__ZN4core3ptr39drop_in_place$LT$syn..pat..PatTuple$GT$17h6d4a0b41d9218ac5E', symObjAddr: 0x82F0, symBinAddr: 0x40F80, symSize: 0x1F0 }
  - { offsetInCU: 0x1C734, offset: 0x13C535, size: 0x8, addend: 0x0, symName: '__ZN4core3ptr40drop_in_place$LT$syn..ty..ReturnType$GT$17h6d1198a11ecff8e0E', symObjAddr: 0x84E0, symBinAddr: 0x41170, symSize: 0x50 }
  - { offsetInCU: 0x1C8A4, offset: 0x13C6A5, size: 0x8, addend: 0x0, symName: '__ZN4core3ptr41drop_in_place$LT$syn..attr..Attribute$GT$17h1405b59bbc177c83E', symObjAddr: 0x8530, symBinAddr: 0x411C0, symSize: 0x40 }
  - { offsetInCU: 0x1C91E, offset: 0x13C71F, size: 0x8, addend: 0x0, symName: '__ZN4core3ptr41drop_in_place$LT$syn..item..Signature$GT$17h152298e86bbf24c8E', symObjAddr: 0x8570, symBinAddr: 0x41200, symSize: 0x2D0 }
  - { offsetInCU: 0x1D4CD, offset: 0x13D2CE, size: 0x8, addend: 0x0, symName: '__ZN4core3ptr42drop_in_place$LT$syn..data..Visibility$GT$17hda085215a409a8d0E', symObjAddr: 0x8840, symBinAddr: 0x414D0, symSize: 0x60 }
  - { offsetInCU: 0x1D63E, offset: 0x13D43F, size: 0x8, addend: 0x0, symName: '__ZN4core3ptr43drop_in_place$LT$syn..data..FieldsNamed$GT$17heb994b0126b76658E', symObjAddr: 0x88A0, symBinAddr: 0x41530, symSize: 0xE0 }
  - { offsetInCU: 0x1D960, offset: 0x13D761, size: 0x8, addend: 0x0, symName: '__ZN4core3ptr43drop_in_place$LT$syn..expr..ExprForLoop$GT$17hbe12995e533aeebcE', symObjAddr: 0x8980, symBinAddr: 0x41610, symSize: 0x200 }
  - { offsetInCU: 0x1E22E, offset: 0x13E02F, size: 0x8, addend: 0x0, symName: '__ZN4core3ptr44drop_in_place$LT$syn..generics..Generics$GT$17heeb08408b55fcc00E', symObjAddr: 0x8B80, symBinAddr: 0x41810, symSize: 0xA0 }
  - { offsetInCU: 0x1E49A, offset: 0x13E29B, size: 0x8, addend: 0x0, symName: '__ZN4core3ptr44drop_in_place$LT$syn..lifetime..Lifetime$GT$17ha37ed2c944b75f70E', symObjAddr: 0x8C20, symBinAddr: 0x418B0, symSize: 0x30 }
  - { offsetInCU: 0x1E596, offset: 0x13E397, size: 0x8, addend: 0x0, symName: '__ZN4core3ptr44drop_in_place$LT$syn..parse..ParseBuffer$GT$17h37514422232f6f53E', symObjAddr: 0x8C50, symBinAddr: 0x418E0, symSize: 0x70 }
  - { offsetInCU: 0x1E912, offset: 0x13E713, size: 0x8, addend: 0x0, symName: '__ZN4core3ptr45drop_in_place$LT$proc_macro2..TokenStream$GT$17hb999668eb610a023E', symObjAddr: 0x8CC0, symBinAddr: 0x41950, symSize: 0x140 }
  - { offsetInCU: 0x1ED6E, offset: 0x13EB6F, size: 0x8, addend: 0x0, symName: '__ZN4core3ptr45drop_in_place$LT$syn..buffer..TokenBuffer$GT$17h13ac8f98b490bed3E', symObjAddr: 0x8E00, symBinAddr: 0x41A90, symSize: 0xC0 }
  - { offsetInCU: 0x1EF98, offset: 0x13ED99, size: 0x8, addend: 0x0, symName: '__ZN4core3ptr47drop_in_place$LT$syn..generics..LifetimeDef$GT$17ha72cc6e71d0d64c2E', symObjAddr: 0x8EC0, symBinAddr: 0x41B50, symSize: 0x120 }
  - { offsetInCU: 0x1F3F3, offset: 0x13F1F4, size: 0x8, addend: 0x0, symName: '__ZN4core3ptr47drop_in_place$LT$syn..path..GenericArgument$GT$17h813827156c9b04d4E', symObjAddr: 0x8FE0, symBinAddr: 0x41C70, symSize: 0x110 }
  - { offsetInCU: 0x1F70E, offset: 0x13F50F, size: 0x8, addend: 0x0, symName: '__ZN4core3ptr58drop_in_place$LT$alloc..vec..Vec$LT$syn..expr..Arm$GT$$GT$17hccb9a95c06f20bd3E', symObjAddr: 0x90F0, symBinAddr: 0x41D80, symSize: 0xD0 }
  - { offsetInCU: 0x1F9CE, offset: 0x13F7CF, size: 0x8, addend: 0x0, symName: '__ZN4core3ptr59drop_in_place$LT$alloc..boxed..Box$LT$syn..pat..Pat$GT$$GT$17h9bff5caf34a61968E', symObjAddr: 0x91C0, symBinAddr: 0x41E50, symSize: 0x50 }
  - { offsetInCU: 0x1FB27, offset: 0x13F928, size: 0x8, addend: 0x0, symName: '__ZN4core3ptr59drop_in_place$LT$alloc..boxed..Box$LT$syn..ty..Type$GT$$GT$17hb6c1bba0aff0f067E', symObjAddr: 0x9210, symBinAddr: 0x41EA0, symSize: 0x50 }
  - { offsetInCU: 0x1FC80, offset: 0x13FA81, size: 0x8, addend: 0x0, symName: '__ZN4core3ptr59drop_in_place$LT$alloc..vec..Vec$LT$syn..stmt..Stmt$GT$$GT$17hadacb1ddbcf8869aE', symObjAddr: 0x9260, symBinAddr: 0x41EF0, symSize: 0x80 }
  - { offsetInCU: 0x1FF38, offset: 0x13FD39, size: 0x8, addend: 0x0, symName: '__ZN4core3ptr61drop_in_place$LT$alloc..boxed..Box$LT$syn..expr..Expr$GT$$GT$17h90106686e1a1275fE', symObjAddr: 0x92E0, symBinAddr: 0x41F70, symSize: 0x50 }
  - { offsetInCU: 0x2010D, offset: 0x13FF0E, size: 0x8, addend: 0x0, symName: '__ZN4core3ptr61drop_in_place$LT$syn..path..ParenthesizedGenericArguments$GT$17h64f1a6d01ff2b0dcE', symObjAddr: 0x9330, symBinAddr: 0x41FC0, symSize: 0x170 }
  - { offsetInCU: 0x20703, offset: 0x140504, size: 0x8, addend: 0x0, symName: '__ZN4core3ptr62drop_in_place$LT$alloc..boxed..Box$LT$syn..stmt..Block$GT$$GT$17h202f83029423bd6fE', symObjAddr: 0x94A0, symBinAddr: 0x42130, symSize: 0x90 }
  - { offsetInCU: 0x20B09, offset: 0x14090A, size: 0x8, addend: 0x0, symName: '__ZN4core3ptr63drop_in_place$LT$alloc..boxed..Box$LT$syn..lit..LitRepr$GT$$GT$17h66c34f31c78f7006E', symObjAddr: 0x9530, symBinAddr: 0x421C0, symSize: 0x60 }
  - { offsetInCU: 0x20DD2, offset: 0x140BD3, size: 0x8, addend: 0x0, symName: '__ZN4core3ptr63drop_in_place$LT$alloc..vec..Vec$LT$syn..item..ImplItem$GT$$GT$17h9e8ea4c33cf8e01fE', symObjAddr: 0x9590, symBinAddr: 0x42220, symSize: 0x80 }
  - { offsetInCU: 0x2108A, offset: 0x140E8B, size: 0x8, addend: 0x0, symName: '__ZN4core3ptr64drop_in_place$LT$alloc..boxed..Box$LT$syn..item..UseTree$GT$$GT$17h720b632bb959368fE', symObjAddr: 0x9610, symBinAddr: 0x422A0, symSize: 0x50 }
  - { offsetInCU: 0x21221, offset: 0x141022, size: 0x8, addend: 0x0, symName: '__ZN4core3ptr64drop_in_place$LT$alloc..boxed..Box$LT$syn..pat..FieldPat$GT$$GT$17h03d264fdc78b562bE', symObjAddr: 0x9660, symBinAddr: 0x422F0, symSize: 0x180 }
  - { offsetInCU: 0x2193E, offset: 0x14173F, size: 0x8, addend: 0x0, symName: '__ZN4core3ptr64drop_in_place$LT$alloc..boxed..Box$LT$syn..ty..BareFnArg$GT$$GT$17he8d97e39f0b89c78E', symObjAddr: 0x97E0, symBinAddr: 0x42470, symSize: 0x160 }
  - { offsetInCU: 0x21ED4, offset: 0x141CD5, size: 0x8, addend: 0x0, symName: '__ZN4core3ptr64drop_in_place$LT$alloc..vec..Vec$LT$syn..item..TraitItem$GT$$GT$17h6716fb999698345aE', symObjAddr: 0x9940, symBinAddr: 0x425D0, symSize: 0x80 }
  - { offsetInCU: 0x2218C, offset: 0x141F8D, size: 0x8, addend: 0x0, symName: '__ZN4core3ptr65drop_in_place$LT$alloc..vec..Vec$LT$proc_macro..TokenTree$GT$$GT$17hde00f9b38ede6167E', symObjAddr: 0x99C0, symBinAddr: 0x42650, symSize: 0x110 }
  - { offsetInCU: 0x22584, offset: 0x142385, size: 0x8, addend: 0x0, symName: '__ZN4core3ptr65drop_in_place$LT$core..option..Option$LT$syn..expr..Label$GT$$GT$17he64e3930a30e77f6E', symObjAddr: 0x9AD0, symBinAddr: 0x42760, symSize: 0x30 }
  - { offsetInCU: 0x226BE, offset: 0x1424BF, size: 0x8, addend: 0x0, symName: '__ZN4core3ptr66drop_in_place$LT$alloc..vec..Vec$LT$syn..item..ForeignItem$GT$$GT$17hadc53e2868c0bce5E', symObjAddr: 0x9B00, symBinAddr: 0x42790, symSize: 0x80 }
  - { offsetInCU: 0x22976, offset: 0x142777, size: 0x8, addend: 0x0, symName: '__ZN4core3ptr66drop_in_place$LT$core..option..Option$LT$syn..ty..Variadic$GT$$GT$17h737c6fa0779b3868E', symObjAddr: 0x9B80, symBinAddr: 0x42810, symSize: 0xF0 }
  - { offsetInCU: 0x22CA0, offset: 0x142AA1, size: 0x8, addend: 0x0, symName: '__ZN4core3ptr67drop_in_place$LT$alloc..boxed..Box$LT$syn..expr..FieldValue$GT$$GT$17h6c7d8efb2b208feeE', symObjAddr: 0x9C70, symBinAddr: 0x42900, symSize: 0x160 }
  - { offsetInCU: 0x23235, offset: 0x143036, size: 0x8, addend: 0x0, symName: '__ZN4core3ptr68drop_in_place$LT$alloc..boxed..Box$LT$syn..path..PathSegment$GT$$GT$17hc7e1d64fe882c378E', symObjAddr: 0x9DD0, symBinAddr: 0x42A60, symSize: 0x190 }
  - { offsetInCU: 0x2393F, offset: 0x143740, size: 0x8, addend: 0x0, symName: '__ZN4core3ptr72drop_in_place$LT$alloc..boxed..Box$LT$syn..path..GenericArgument$GT$$GT$17hbeacc7d49176e2b8E', symObjAddr: 0x9F60, symBinAddr: 0x42BF0, symSize: 0x120 }
  - { offsetInCU: 0x23DB7, offset: 0x143BB8, size: 0x8, addend: 0x0, symName: '__ZN4core3ptr72drop_in_place$LT$core..option..Option$LT$syn..lifetime..Lifetime$GT$$GT$17h0acdf036efb385bcE', symObjAddr: 0xA080, symBinAddr: 0x42D10, symSize: 0x30 }
  - { offsetInCU: 0x23ED2, offset: 0x143CD3, size: 0x8, addend: 0x0, symName: '__ZN4core3ptr75drop_in_place$LT$alloc..boxed..Box$LT$syn..generics..TypeParamBound$GT$$GT$17hd37835668efda9f9E', symObjAddr: 0xA0B0, symBinAddr: 0x42D40, symSize: 0x90 }
  - { offsetInCU: 0x24211, offset: 0x144012, size: 0x8, addend: 0x0, symName: '__ZN4core3ptr75drop_in_place$LT$core..option..Option$LT$syn..generics..WhereClause$GT$$GT$17hd730665f4beca4a5E', symObjAddr: 0xA140, symBinAddr: 0x42DD0, symSize: 0xF0 }
  - { offsetInCU: 0x24533, offset: 0x144334, size: 0x8, addend: 0x0, symName: '__ZN4core3ptr78drop_in_place$LT$alloc..boxed..Box$LT$syn..expr..GenericMethodArgument$GT$$GT$17h2ba1c45210c2d620E', symObjAddr: 0xA230, symBinAddr: 0x42EC0, symSize: 0x60 }
  - { offsetInCU: 0x24744, offset: 0x144545, size: 0x8, addend: 0x0, symName: '__ZN4core3ptr78drop_in_place$LT$core..option..Option$LT$syn..generics..BoundLifetimes$GT$$GT$17hfe0b2832f27903aaE', symObjAddr: 0xA290, symBinAddr: 0x42F20, symSize: 0xC0 }
  - { offsetInCU: 0x24B5B, offset: 0x14495C, size: 0x8, addend: 0x0, symName: '__ZN4core3ptr86drop_in_place$LT$syn..punctuated..Punctuated$LT$syn..pat..Pat$C$syn..token..Or$GT$$GT$17h079000a46246a98aE', symObjAddr: 0xA350, symBinAddr: 0x42FE0, symSize: 0x120 }
  - { offsetInCU: 0x24FED, offset: 0x144DEE, size: 0x8, addend: 0x0, symName: '__ZN4core3ptr87drop_in_place$LT$core..option..Option$LT$alloc..boxed..Box$LT$syn..pat..Pat$GT$$GT$$GT$17h3bebdc7d61d8f4efE', symObjAddr: 0xA470, symBinAddr: 0x43100, symSize: 0x50 }
  - { offsetInCU: 0x2515D, offset: 0x144F5E, size: 0x8, addend: 0x0, symName: '__ZN4core3ptr87drop_in_place$LT$core..option..Option$LT$alloc..boxed..Box$LT$syn..ty..Type$GT$$GT$$GT$17h7b310415308d2219E', symObjAddr: 0xA4C0, symBinAddr: 0x43150, symSize: 0x50 }
  - { offsetInCU: 0x252CD, offset: 0x1450CE, size: 0x8, addend: 0x0, symName: '__ZN4core3ptr89drop_in_place$LT$core..option..Option$LT$alloc..boxed..Box$LT$syn..expr..Expr$GT$$GT$$GT$17h1862cb574e5ecf32E', symObjAddr: 0xA510, symBinAddr: 0x431A0, symSize: 0x50 }
  - { offsetInCU: 0x2543D, offset: 0x14523E, size: 0x8, addend: 0x0, symName: '__ZN4core3ptr89drop_in_place$LT$syn..punctuated..Punctuated$LT$syn..ty..Type$C$syn..token..Comma$GT$$GT$17h2c59318ff8918ba8E', symObjAddr: 0xA560, symBinAddr: 0x431F0, symSize: 0x120 }
  - { offsetInCU: 0x258F6, offset: 0x1456F7, size: 0x8, addend: 0x0, symName: '__ZN4core3ptr90drop_in_place$LT$core..option..Option$LT$alloc..boxed..Box$LT$syn..data..Field$GT$$GT$$GT$17h98623dd57475901eE', symObjAddr: 0xA680, symBinAddr: 0x43310, symSize: 0x1D0 }
  - { offsetInCU: 0x2602F, offset: 0x145E30, size: 0x8, addend: 0x0, symName: '__ZN4core3ptr90drop_in_place$LT$core..option..Option$LT$alloc..boxed..Box$LT$syn..item..FnArg$GT$$GT$$GT$17hbfc8915c06bc453aE', symObjAddr: 0xA850, symBinAddr: 0x434E0, symSize: 0x280 }
  - { offsetInCU: 0x26BC5, offset: 0x1469C6, size: 0x8, addend: 0x0, symName: '__ZN4core3ptr91drop_in_place$LT$syn..punctuated..Punctuated$LT$syn..expr..Expr$C$syn..token..Comma$GT$$GT$17hab7a0b21dd305247E', symObjAddr: 0xAAD0, symBinAddr: 0x43760, symSize: 0x120 }
  - { offsetInCU: 0x27053, offset: 0x146E54, size: 0x8, addend: 0x0, symName: '__ZN4core3ptr92drop_in_place$LT$core..option..Option$LT$$LP$syn..token..As$C$proc_macro2..Ident$RP$$GT$$GT$17habfef0f4ad2bce69E', symObjAddr: 0xABF0, symBinAddr: 0x43880, symSize: 0x30 }
  - { offsetInCU: 0x271EA, offset: 0x146FEB, size: 0x8, addend: 0x0, symName: '__ZN4core3ptr92drop_in_place$LT$core..option..Option$LT$alloc..boxed..Box$LT$syn..data..Variant$GT$$GT$$GT$17h825c4de8cc7cd365E', symObjAddr: 0xAC20, symBinAddr: 0x438B0, symSize: 0x1A0 }
  - { offsetInCU: 0x277B1, offset: 0x1475B2, size: 0x8, addend: 0x0, symName: '__ZN4core3ptr92drop_in_place$LT$syn..punctuated..Punctuated$LT$syn..item..FnArg$C$syn..token..Comma$GT$$GT$17he189c5c7fc43a249E', symObjAddr: 0xADC0, symBinAddr: 0x43A50, symSize: 0xE0 }
  - { offsetInCU: 0x27AAC, offset: 0x1478AD, size: 0x8, addend: 0x0, symName: '__ZN4core3ptr94drop_in_place$LT$syn..punctuated..Punctuated$LT$syn..data..Variant$C$syn..token..Comma$GT$$GT$17h3a247c2fcfb0cc38E', symObjAddr: 0xAEA0, symBinAddr: 0x43B30, symSize: 0xE0 }
  - { offsetInCU: 0x27DAF, offset: 0x147BB0, size: 0x8, addend: 0x0, symName: '__ZN4core3ptr94drop_in_place$LT$syn..punctuated..Punctuated$LT$syn..pat..FieldPat$C$syn..token..Comma$GT$$GT$17he7e26d1e1aa55800E', symObjAddr: 0xAF80, symBinAddr: 0x43C10, symSize: 0xF0 }
  - { offsetInCU: 0x280AE, offset: 0x147EAF, size: 0x8, addend: 0x0, symName: '__ZN4core3ptr94drop_in_place$LT$syn..punctuated..Punctuated$LT$syn..ty..BareFnArg$C$syn..token..Comma$GT$$GT$17hc9e70e44d16cbea3E', symObjAddr: 0xB070, symBinAddr: 0x43D00, symSize: 0x90 }
  - { offsetInCU: 0x2831E, offset: 0x14811F, size: 0x8, addend: 0x0, symName: '__ZN4core3ptr96drop_in_place$LT$core..option..Option$LT$alloc..boxed..Box$LT$syn..path..PathSegment$GT$$GT$$GT$17h736d4914be8ccd56E', symObjAddr: 0xB100, symBinAddr: 0x43D90, symSize: 0x180 }
  - { offsetInCU: 0x289DB, offset: 0x1487DC, size: 0x8, addend: 0x0, symName: '__ZN4core3ptr97drop_in_place$LT$syn..punctuated..Punctuated$LT$syn..expr..FieldValue$C$syn..token..Comma$GT$$GT$17hebc649b207814284E', symObjAddr: 0xB280, symBinAddr: 0x43F10, symSize: 0xF0 }
  - { offsetInCU: 0x28D54, offset: 0x148B55, size: 0x8, addend: 0x0, symName: '__ZN4core3ptr97drop_in_place$LT$syn..punctuated..Punctuated$LT$syn..lifetime..Lifetime$C$syn..token..Add$GT$$GT$17h0798ccbf56150115E', symObjAddr: 0xB370, symBinAddr: 0x44000, symSize: 0xD0 }
  - { offsetInCU: 0x291C8, offset: 0x148FC9, size: 0x8, addend: 0x0, symName: '__ZN4core3ptr99drop_in_place$LT$syn..punctuated..Punctuated$LT$syn..path..PathSegment$C$syn..token..Colon2$GT$$GT$17hc0e11ab31c22306eE', symObjAddr: 0xB440, symBinAddr: 0x440D0, symSize: 0x24A }
  - { offsetInCU: 0x31AAA, offset: 0x1518AB, size: 0x8, addend: 0x0, symName: __ZN3syn11parse_quote5parse17h006e38bf02bd35ecE, symObjAddr: 0x0, symBinAddr: 0x38C90, symSize: 0x4A0 }
  - { offsetInCU: 0x3283F, offset: 0x152640, size: 0x8, addend: 0x0, symName: __ZN3syn11parse_quote5parse17h44e72340c3bb3e47E, symObjAddr: 0x4A0, symBinAddr: 0x39130, symSize: 0x470 }
  - { offsetInCU: 0x330A0, offset: 0x152EA1, size: 0x8, addend: 0x0, symName: __ZN3syn11parse_quote5parse17h95f3614ae8fd9f0bE, symObjAddr: 0x910, symBinAddr: 0x395A0, symSize: 0x460 }
  - { offsetInCU: 0x33901, offset: 0x153702, size: 0x8, addend: 0x0, symName: __ZN3syn11parse_quote5parse17hd82ebd3f552ac400E, symObjAddr: 0xD70, symBinAddr: 0x39A00, symSize: 0x480 }
  - { offsetInCU: 0x34162, offset: 0x153F63, size: 0x8, addend: 0x0, symName: __ZN3syn11parse_quote5parse17he575052854268fc6E, symObjAddr: 0x11F0, symBinAddr: 0x39E80, symSize: 0x5A0 }
  - { offsetInCU: 0x1BD2, offset: 0x15D7BB, size: 0x8, addend: 0x0, symName: '__ZN4core3ptr100drop_in_place$LT$core..option..Option$LT$alloc..boxed..Box$LT$syn..generics..LifetimeDef$GT$$GT$$GT$17h3899ca5c2432ed32E', symObjAddr: 0xDE0, symBinAddr: 0x45080, symSize: 0x50 }
  - { offsetInCU: 0x1D54, offset: 0x15D93D, size: 0x8, addend: 0x0, symName: '__ZN4core3ptr100drop_in_place$LT$core..option..Option$LT$alloc..boxed..Box$LT$syn..path..GenericArgument$GT$$GT$$GT$17h8f0a837edb1aa051E', symObjAddr: 0xE30, symBinAddr: 0x450D0, symSize: 0x50 }
  - { offsetInCU: 0x2038, offset: 0x15DC21, size: 0x8, addend: 0x0, symName: '__ZN4core3ptr101drop_in_place$LT$core..option..Option$LT$alloc..boxed..Box$LT$syn..generics..GenericParam$GT$$GT$$GT$17hd5fe1fed536eea79E', symObjAddr: 0xE80, symBinAddr: 0x45120, symSize: 0x310 }
  - { offsetInCU: 0x2A73, offset: 0x15E65C, size: 0x8, addend: 0x0, symName: '__ZN4core3ptr103drop_in_place$LT$core..option..Option$LT$alloc..boxed..Box$LT$syn..generics..WherePredicate$GT$$GT$$GT$17h58b010433e2ef286E', symObjAddr: 0x1190, symBinAddr: 0x45430, symSize: 0x120 }
  - { offsetInCU: 0x2E28, offset: 0x15EA11, size: 0x8, addend: 0x0, symName: '__ZN4core3ptr103drop_in_place$LT$syn..punctuated..Punctuated$LT$syn..generics..TypeParamBound$C$syn..token..Add$GT$$GT$17h9e2d2e603068e83aE', symObjAddr: 0x12B0, symBinAddr: 0x45550, symSize: 0x160 }
  - { offsetInCU: 0x3481, offset: 0x15F06A, size: 0x8, addend: 0x0, symName: '__ZN4core3ptr108drop_in_place$LT$syn..punctuated..Punctuated$LT$syn..expr..GenericMethodArgument$C$syn..token..Comma$GT$$GT$17h4b6587da36ced0fcE', symObjAddr: 0x1410, symBinAddr: 0x456B0, symSize: 0x150 }
  - { offsetInCU: 0x397D, offset: 0x15F566, size: 0x8, addend: 0x0, symName: '__ZN4core3ptr115drop_in_place$LT$core..option..Option$LT$$LP$syn..token..Brace$C$alloc..vec..Vec$LT$syn..item..Item$GT$$RP$$GT$$GT$17he932d4f54e38b009E', symObjAddr: 0x1560, symBinAddr: 0x45800, symSize: 0xD0 }
  - { offsetInCU: 0x3C94, offset: 0x15F87D, size: 0x8, addend: 0x0, symName: '__ZN4core3ptr126drop_in_place$LT$core..option..Option$LT$$LP$syn..token..And$C$core..option..Option$LT$syn..lifetime..Lifetime$GT$$RP$$GT$$GT$17h0470d71f478a1896E', symObjAddr: 0x1630, symBinAddr: 0x458D0, symSize: 0x30 }
  - { offsetInCU: 0x3EA7, offset: 0x15FA90, size: 0x8, addend: 0x0, symName: '__ZN4core3ptr34drop_in_place$LT$syn..lit..Lit$GT$17h13298495a2f812f1E', symObjAddr: 0x1660, symBinAddr: 0x45900, symSize: 0x110 }
  - { offsetInCU: 0x4376, offset: 0x15FF5F, size: 0x8, addend: 0x0, symName: '__ZN4core3ptr34drop_in_place$LT$syn..pat..Pat$GT$17h0d0a9b563b5dbf26E', symObjAddr: 0x1770, symBinAddr: 0x45A10, symSize: 0x1190 }
  - { offsetInCU: 0x826F, offset: 0x163E58, size: 0x8, addend: 0x0, symName: '__ZN4core3ptr34drop_in_place$LT$syn..ty..Type$GT$17h27c6c91ce96053beE', symObjAddr: 0x2900, symBinAddr: 0x46BA0, symSize: 0x540 }
  - { offsetInCU: 0x9AF7, offset: 0x1656E0, size: 0x8, addend: 0x0, symName: '__ZN4core3ptr36drop_in_place$LT$syn..expr..Expr$GT$17h22b5966f62e8bb79E', symObjAddr: 0x2E40, symBinAddr: 0x470E0, symSize: 0x3050 }
  - { offsetInCU: 0x148BE, offset: 0x1704A7, size: 0x8, addend: 0x0, symName: '__ZN4core3ptr36drop_in_place$LT$syn..item..Item$GT$17he67e385dd44ec589E', symObjAddr: 0x5E90, symBinAddr: 0x4A130, symSize: 0x1AF0 }
  - { offsetInCU: 0x1AFF1, offset: 0x176BDA, size: 0x8, addend: 0x0, symName: '__ZN4core3ptr36drop_in_place$LT$syn..mac..Macro$GT$17h51b7807cf53b2cdeE', symObjAddr: 0x7980, symBinAddr: 0x4BC20, symSize: 0x40 }
  - { offsetInCU: 0x1B142, offset: 0x176D2B, size: 0x8, addend: 0x0, symName: '__ZN4core3ptr36drop_in_place$LT$syn..path..Path$GT$17h0dfa334735d579c8E', symObjAddr: 0x79C0, symBinAddr: 0x4BC60, symSize: 0x230 }
  - { offsetInCU: 0x1BAD8, offset: 0x1776C1, size: 0x8, addend: 0x0, symName: '__ZN4core3ptr37drop_in_place$LT$syn..stmt..Block$GT$17h3230a4b6b50a27e7E', symObjAddr: 0x7BF0, symBinAddr: 0x4BE90, symSize: 0x80 }
  - { offsetInCU: 0x1BDC6, offset: 0x1779AF, size: 0x8, addend: 0x0, symName: '__ZN4core3ptr38drop_in_place$LT$syn..data..Fields$GT$17h464fe1332032af7dE', symObjAddr: 0x7C70, symBinAddr: 0x4BF10, symSize: 0x180 }
  - { offsetInCU: 0x1C269, offset: 0x177E52, size: 0x8, addend: 0x0, symName: '__ZN4core3ptr38drop_in_place$LT$syn..derive..Data$GT$17hf6aea7b13f14b177E', symObjAddr: 0x7DF0, symBinAddr: 0x4C090, symSize: 0x1C0 }
  - { offsetInCU: 0x1C90B, offset: 0x1784F4, size: 0x8, addend: 0x0, symName: '__ZN4core3ptr38drop_in_place$LT$syn..expr..Member$GT$17h6e2c1a9be08e300fE', symObjAddr: 0x7FB0, symBinAddr: 0x4C250, symSize: 0x30 }
  - { offsetInCU: 0x1CA07, offset: 0x1785F0, size: 0x8, addend: 0x0, symName: '__ZN4core3ptr39drop_in_place$LT$proc_macro2..Ident$GT$17hf70eea798d50d675E', symObjAddr: 0x7FE0, symBinAddr: 0x4C280, symSize: 0x30 }
  - { offsetInCU: 0x1CC1A, offset: 0x178803, size: 0x8, addend: 0x0, symName: '__ZN4core3ptr39drop_in_place$LT$syn..buffer..Entry$GT$17hfadab1029b890467E', symObjAddr: 0x8010, symBinAddr: 0x4C2B0, symSize: 0xB0 }
  - { offsetInCU: 0x1D0BC, offset: 0x178CA5, size: 0x8, addend: 0x0, symName: '__ZN4core3ptr39drop_in_place$LT$syn..item..UseTree$GT$17hd64afb304856727bE', symObjAddr: 0x80C0, symBinAddr: 0x4C360, symSize: 0x1F0 }
  - { offsetInCU: 0x1D7D3, offset: 0x1793BC, size: 0x8, addend: 0x0, symName: '__ZN4core3ptr39drop_in_place$LT$syn..pat..PatTuple$GT$17h6d4a0b41d9218ac5E', symObjAddr: 0x82B0, symBinAddr: 0x4C550, symSize: 0x100 }
  - { offsetInCU: 0x1DADC, offset: 0x1796C5, size: 0x8, addend: 0x0, symName: '__ZN4core3ptr40drop_in_place$LT$syn..ty..ReturnType$GT$17h6d1198a11ecff8e0E', symObjAddr: 0x83B0, symBinAddr: 0x4C650, symSize: 0x50 }
  - { offsetInCU: 0x1DCA9, offset: 0x179892, size: 0x8, addend: 0x0, symName: '__ZN4core3ptr41drop_in_place$LT$syn..item..Signature$GT$17h152298e86bbf24c8E', symObjAddr: 0x8400, symBinAddr: 0x4C6A0, symSize: 0x2D0 }
  - { offsetInCU: 0x1E858, offset: 0x17A441, size: 0x8, addend: 0x0, symName: '__ZN4core3ptr42drop_in_place$LT$syn..data..Visibility$GT$17hda085215a409a8d0E', symObjAddr: 0x86D0, symBinAddr: 0x4C970, symSize: 0x60 }
  - { offsetInCU: 0x1E9C9, offset: 0x17A5B2, size: 0x8, addend: 0x0, symName: '__ZN4core3ptr43drop_in_place$LT$syn..data..FieldsNamed$GT$17heb994b0126b76658E', symObjAddr: 0x8730, symBinAddr: 0x4C9D0, symSize: 0xE0 }
  - { offsetInCU: 0x1ED48, offset: 0x17A931, size: 0x8, addend: 0x0, symName: '__ZN4core3ptr44drop_in_place$LT$syn..generics..Generics$GT$17heeb08408b55fcc00E', symObjAddr: 0x8810, symBinAddr: 0x4CAB0, symSize: 0xA0 }
  - { offsetInCU: 0x1EFB4, offset: 0x17AB9D, size: 0x8, addend: 0x0, symName: '__ZN4core3ptr44drop_in_place$LT$syn..lifetime..Lifetime$GT$17ha37ed2c944b75f70E', symObjAddr: 0x88B0, symBinAddr: 0x4CB50, symSize: 0x30 }
  - { offsetInCU: 0x1F0B0, offset: 0x17AC99, size: 0x8, addend: 0x0, symName: '__ZN4core3ptr44drop_in_place$LT$syn..parse..ParseBuffer$GT$17h37514422232f6f53E', symObjAddr: 0x88E0, symBinAddr: 0x4CB80, symSize: 0x70 }
  - { offsetInCU: 0x1F42C, offset: 0x17B015, size: 0x8, addend: 0x0, symName: '__ZN4core3ptr45drop_in_place$LT$proc_macro2..TokenStream$GT$17hb999668eb610a023E', symObjAddr: 0x8950, symBinAddr: 0x4CBF0, symSize: 0x140 }
  - { offsetInCU: 0x1F888, offset: 0x17B471, size: 0x8, addend: 0x0, symName: '__ZN4core3ptr45drop_in_place$LT$syn..buffer..TokenBuffer$GT$17h13ac8f98b490bed3E', symObjAddr: 0x8A90, symBinAddr: 0x4CD30, symSize: 0xC0 }
  - { offsetInCU: 0x1FAB2, offset: 0x17B69B, size: 0x8, addend: 0x0, symName: '__ZN4core3ptr45drop_in_place$LT$syn..derive..DeriveInput$GT$17h90b6b6a1bf41b4e6E', symObjAddr: 0x8B50, symBinAddr: 0x4CDF0, symSize: 0x190 }
  - { offsetInCU: 0x2001E, offset: 0x17BC07, size: 0x8, addend: 0x0, symName: '__ZN4core3ptr47drop_in_place$LT$syn..generics..LifetimeDef$GT$17ha72cc6e71d0d64c2E', symObjAddr: 0x8CE0, symBinAddr: 0x4CF80, symSize: 0x120 }
  - { offsetInCU: 0x20479, offset: 0x17C062, size: 0x8, addend: 0x0, symName: '__ZN4core3ptr47drop_in_place$LT$syn..path..GenericArgument$GT$17h813827156c9b04d4E', symObjAddr: 0x8E00, symBinAddr: 0x4D0A0, symSize: 0x110 }
  - { offsetInCU: 0x20794, offset: 0x17C37D, size: 0x8, addend: 0x0, symName: '__ZN4core3ptr58drop_in_place$LT$alloc..vec..Vec$LT$syn..expr..Arm$GT$$GT$17hccb9a95c06f20bd3E', symObjAddr: 0x8F10, symBinAddr: 0x4D1B0, symSize: 0xD0 }
  - { offsetInCU: 0x20A54, offset: 0x17C63D, size: 0x8, addend: 0x0, symName: '__ZN4core3ptr59drop_in_place$LT$alloc..boxed..Box$LT$syn..pat..Pat$GT$$GT$17h9bff5caf34a61968E', symObjAddr: 0x8FE0, symBinAddr: 0x4D280, symSize: 0x50 }
  - { offsetInCU: 0x20BAD, offset: 0x17C796, size: 0x8, addend: 0x0, symName: '__ZN4core3ptr59drop_in_place$LT$alloc..boxed..Box$LT$syn..ty..Type$GT$$GT$17hb6c1bba0aff0f067E', symObjAddr: 0x9030, symBinAddr: 0x4D2D0, symSize: 0x50 }
  - { offsetInCU: 0x20D06, offset: 0x17C8EF, size: 0x8, addend: 0x0, symName: '__ZN4core3ptr61drop_in_place$LT$alloc..boxed..Box$LT$syn..expr..Expr$GT$$GT$17h90106686e1a1275fE', symObjAddr: 0x9080, symBinAddr: 0x4D320, symSize: 0x50 }
  - { offsetInCU: 0x20EDB, offset: 0x17CAC4, size: 0x8, addend: 0x0, symName: '__ZN4core3ptr61drop_in_place$LT$syn..path..ParenthesizedGenericArguments$GT$17h64f1a6d01ff2b0dcE', symObjAddr: 0x90D0, symBinAddr: 0x4D370, symSize: 0x170 }
  - { offsetInCU: 0x214D1, offset: 0x17D0BA, size: 0x8, addend: 0x0, symName: '__ZN4core3ptr62drop_in_place$LT$alloc..boxed..Box$LT$syn..stmt..Block$GT$$GT$17h202f83029423bd6fE', symObjAddr: 0x9240, symBinAddr: 0x4D4E0, symSize: 0x90 }
  - { offsetInCU: 0x218D7, offset: 0x17D4C0, size: 0x8, addend: 0x0, symName: '__ZN4core3ptr63drop_in_place$LT$alloc..boxed..Box$LT$syn..lit..LitRepr$GT$$GT$17h66c34f31c78f7006E', symObjAddr: 0x92D0, symBinAddr: 0x4D570, symSize: 0x60 }
  - { offsetInCU: 0x21BA0, offset: 0x17D789, size: 0x8, addend: 0x0, symName: '__ZN4core3ptr63drop_in_place$LT$alloc..vec..Vec$LT$syn..item..ImplItem$GT$$GT$17h9e8ea4c33cf8e01fE', symObjAddr: 0x9330, symBinAddr: 0x4D5D0, symSize: 0x80 }
  - { offsetInCU: 0x21E58, offset: 0x17DA41, size: 0x8, addend: 0x0, symName: '__ZN4core3ptr64drop_in_place$LT$alloc..boxed..Box$LT$syn..item..UseTree$GT$$GT$17h720b632bb959368fE', symObjAddr: 0x93B0, symBinAddr: 0x4D650, symSize: 0x50 }
  - { offsetInCU: 0x21FEF, offset: 0x17DBD8, size: 0x8, addend: 0x0, symName: '__ZN4core3ptr64drop_in_place$LT$alloc..boxed..Box$LT$syn..pat..FieldPat$GT$$GT$17h03d264fdc78b562bE', symObjAddr: 0x9400, symBinAddr: 0x4D6A0, symSize: 0x180 }
  - { offsetInCU: 0x2270C, offset: 0x17E2F5, size: 0x8, addend: 0x0, symName: '__ZN4core3ptr64drop_in_place$LT$alloc..boxed..Box$LT$syn..ty..BareFnArg$GT$$GT$17he8d97e39f0b89c78E', symObjAddr: 0x9580, symBinAddr: 0x4D820, symSize: 0x160 }
  - { offsetInCU: 0x22CA2, offset: 0x17E88B, size: 0x8, addend: 0x0, symName: '__ZN4core3ptr64drop_in_place$LT$alloc..vec..Vec$LT$syn..item..TraitItem$GT$$GT$17h6716fb999698345aE', symObjAddr: 0x96E0, symBinAddr: 0x4D980, symSize: 0x80 }
  - { offsetInCU: 0x22F5A, offset: 0x17EB43, size: 0x8, addend: 0x0, symName: '__ZN4core3ptr65drop_in_place$LT$alloc..vec..Vec$LT$proc_macro..TokenTree$GT$$GT$17hde00f9b38ede6167E', symObjAddr: 0x9760, symBinAddr: 0x4DA00, symSize: 0x110 }
  - { offsetInCU: 0x23352, offset: 0x17EF3B, size: 0x8, addend: 0x0, symName: '__ZN4core3ptr65drop_in_place$LT$core..option..Option$LT$syn..expr..Label$GT$$GT$17he64e3930a30e77f6E', symObjAddr: 0x9870, symBinAddr: 0x4DB10, symSize: 0x30 }
  - { offsetInCU: 0x2348C, offset: 0x17F075, size: 0x8, addend: 0x0, symName: '__ZN4core3ptr66drop_in_place$LT$alloc..vec..Vec$LT$syn..item..ForeignItem$GT$$GT$17hadc53e2868c0bce5E', symObjAddr: 0x98A0, symBinAddr: 0x4DB40, symSize: 0x80 }
  - { offsetInCU: 0x23744, offset: 0x17F32D, size: 0x8, addend: 0x0, symName: '__ZN4core3ptr66drop_in_place$LT$core..option..Option$LT$syn..ty..Variadic$GT$$GT$17h737c6fa0779b3868E', symObjAddr: 0x9920, symBinAddr: 0x4DBC0, symSize: 0xF0 }
  - { offsetInCU: 0x23A6E, offset: 0x17F657, size: 0x8, addend: 0x0, symName: '__ZN4core3ptr67drop_in_place$LT$alloc..boxed..Box$LT$syn..expr..FieldValue$GT$$GT$17h6c7d8efb2b208feeE', symObjAddr: 0x9A10, symBinAddr: 0x4DCB0, symSize: 0x160 }
  - { offsetInCU: 0x24003, offset: 0x17FBEC, size: 0x8, addend: 0x0, symName: '__ZN4core3ptr68drop_in_place$LT$alloc..boxed..Box$LT$syn..path..PathSegment$GT$$GT$17hc7e1d64fe882c378E', symObjAddr: 0x9B70, symBinAddr: 0x4DE10, symSize: 0x190 }
  - { offsetInCU: 0x2470D, offset: 0x1802F6, size: 0x8, addend: 0x0, symName: '__ZN4core3ptr72drop_in_place$LT$alloc..boxed..Box$LT$syn..path..GenericArgument$GT$$GT$17hbeacc7d49176e2b8E', symObjAddr: 0x9D00, symBinAddr: 0x4DFA0, symSize: 0x120 }
  - { offsetInCU: 0x24B85, offset: 0x18076E, size: 0x8, addend: 0x0, symName: '__ZN4core3ptr72drop_in_place$LT$core..option..Option$LT$syn..lifetime..Lifetime$GT$$GT$17h0acdf036efb385bcE', symObjAddr: 0x9E20, symBinAddr: 0x4E0C0, symSize: 0x30 }
  - { offsetInCU: 0x24CA0, offset: 0x180889, size: 0x8, addend: 0x0, symName: '__ZN4core3ptr75drop_in_place$LT$alloc..boxed..Box$LT$syn..generics..TypeParamBound$GT$$GT$17hd37835668efda9f9E', symObjAddr: 0x9E50, symBinAddr: 0x4E0F0, symSize: 0x90 }
  - { offsetInCU: 0x24FDF, offset: 0x180BC8, size: 0x8, addend: 0x0, symName: '__ZN4core3ptr75drop_in_place$LT$core..option..Option$LT$syn..generics..WhereClause$GT$$GT$17hd730665f4beca4a5E', symObjAddr: 0x9EE0, symBinAddr: 0x4E180, symSize: 0xF0 }
  - { offsetInCU: 0x25301, offset: 0x180EEA, size: 0x8, addend: 0x0, symName: '__ZN4core3ptr78drop_in_place$LT$alloc..boxed..Box$LT$syn..expr..GenericMethodArgument$GT$$GT$17h2ba1c45210c2d620E', symObjAddr: 0x9FD0, symBinAddr: 0x4E270, symSize: 0x60 }
  - { offsetInCU: 0x25512, offset: 0x1810FB, size: 0x8, addend: 0x0, symName: '__ZN4core3ptr78drop_in_place$LT$core..option..Option$LT$syn..generics..BoundLifetimes$GT$$GT$17hfe0b2832f27903aaE', symObjAddr: 0xA030, symBinAddr: 0x4E2D0, symSize: 0xC0 }
  - { offsetInCU: 0x25948, offset: 0x181531, size: 0x8, addend: 0x0, symName: '__ZN4core3ptr86drop_in_place$LT$syn..punctuated..Punctuated$LT$syn..pat..Pat$C$syn..token..Or$GT$$GT$17h079000a46246a98aE', symObjAddr: 0xA0F0, symBinAddr: 0x4E390, symSize: 0x120 }
  - { offsetInCU: 0x25DC3, offset: 0x1819AC, size: 0x8, addend: 0x0, symName: '__ZN4core3ptr87drop_in_place$LT$core..option..Option$LT$alloc..boxed..Box$LT$syn..pat..Pat$GT$$GT$$GT$17h3bebdc7d61d8f4efE', symObjAddr: 0xA210, symBinAddr: 0x4E4B0, symSize: 0x50 }
  - { offsetInCU: 0x25F33, offset: 0x181B1C, size: 0x8, addend: 0x0, symName: '__ZN4core3ptr87drop_in_place$LT$core..option..Option$LT$alloc..boxed..Box$LT$syn..ty..Type$GT$$GT$$GT$17h7b310415308d2219E', symObjAddr: 0xA260, symBinAddr: 0x4E500, symSize: 0x50 }
  - { offsetInCU: 0x260A3, offset: 0x181C8C, size: 0x8, addend: 0x0, symName: '__ZN4core3ptr89drop_in_place$LT$core..option..Option$LT$alloc..boxed..Box$LT$syn..expr..Expr$GT$$GT$$GT$17h1862cb574e5ecf32E', symObjAddr: 0xA2B0, symBinAddr: 0x4E550, symSize: 0x50 }
  - { offsetInCU: 0x26251, offset: 0x181E3A, size: 0x8, addend: 0x0, symName: '__ZN4core3ptr89drop_in_place$LT$syn..punctuated..Punctuated$LT$syn..pat..Pat$C$syn..token..Comma$GT$$GT$17h487291e67ef6ac2bE', symObjAddr: 0xA300, symBinAddr: 0x4E5A0, symSize: 0x120 }
  - { offsetInCU: 0x266E3, offset: 0x1822CC, size: 0x8, addend: 0x0, symName: '__ZN4core3ptr89drop_in_place$LT$syn..punctuated..Punctuated$LT$syn..ty..Type$C$syn..token..Comma$GT$$GT$17h2c59318ff8918ba8E', symObjAddr: 0xA420, symBinAddr: 0x4E6C0, symSize: 0x120 }
  - { offsetInCU: 0x26B9C, offset: 0x182785, size: 0x8, addend: 0x0, symName: '__ZN4core3ptr90drop_in_place$LT$core..option..Option$LT$alloc..boxed..Box$LT$syn..data..Field$GT$$GT$$GT$17h98623dd57475901eE', symObjAddr: 0xA540, symBinAddr: 0x4E7E0, symSize: 0x1D0 }
  - { offsetInCU: 0x272D5, offset: 0x182EBE, size: 0x8, addend: 0x0, symName: '__ZN4core3ptr90drop_in_place$LT$core..option..Option$LT$alloc..boxed..Box$LT$syn..item..FnArg$GT$$GT$$GT$17hbfc8915c06bc453aE', symObjAddr: 0xA710, symBinAddr: 0x4E9B0, symSize: 0x280 }
  - { offsetInCU: 0x27E6B, offset: 0x183A54, size: 0x8, addend: 0x0, symName: '__ZN4core3ptr91drop_in_place$LT$syn..punctuated..Punctuated$LT$syn..expr..Expr$C$syn..token..Comma$GT$$GT$17hab7a0b21dd305247E', symObjAddr: 0xA990, symBinAddr: 0x4EC30, symSize: 0x120 }
  - { offsetInCU: 0x282F9, offset: 0x183EE2, size: 0x8, addend: 0x0, symName: '__ZN4core3ptr92drop_in_place$LT$core..option..Option$LT$$LP$syn..token..As$C$proc_macro2..Ident$RP$$GT$$GT$17habfef0f4ad2bce69E', symObjAddr: 0xAAB0, symBinAddr: 0x4ED50, symSize: 0x30 }
  - { offsetInCU: 0x28490, offset: 0x184079, size: 0x8, addend: 0x0, symName: '__ZN4core3ptr92drop_in_place$LT$core..option..Option$LT$alloc..boxed..Box$LT$syn..data..Variant$GT$$GT$$GT$17h825c4de8cc7cd365E', symObjAddr: 0xAAE0, symBinAddr: 0x4ED80, symSize: 0x1A0 }
  - { offsetInCU: 0x28A57, offset: 0x184640, size: 0x8, addend: 0x0, symName: '__ZN4core3ptr92drop_in_place$LT$syn..punctuated..Punctuated$LT$syn..item..FnArg$C$syn..token..Comma$GT$$GT$17he189c5c7fc43a249E', symObjAddr: 0xAC80, symBinAddr: 0x4EF20, symSize: 0xE0 }
  - { offsetInCU: 0x28D52, offset: 0x18493B, size: 0x8, addend: 0x0, symName: '__ZN4core3ptr94drop_in_place$LT$syn..punctuated..Punctuated$LT$syn..data..Variant$C$syn..token..Comma$GT$$GT$17h3a247c2fcfb0cc38E', symObjAddr: 0xAD60, symBinAddr: 0x4F000, symSize: 0xE0 }
  - { offsetInCU: 0x29055, offset: 0x184C3E, size: 0x8, addend: 0x0, symName: '__ZN4core3ptr94drop_in_place$LT$syn..punctuated..Punctuated$LT$syn..pat..FieldPat$C$syn..token..Comma$GT$$GT$17he7e26d1e1aa55800E', symObjAddr: 0xAE40, symBinAddr: 0x4F0E0, symSize: 0xF0 }
  - { offsetInCU: 0x29354, offset: 0x184F3D, size: 0x8, addend: 0x0, symName: '__ZN4core3ptr94drop_in_place$LT$syn..punctuated..Punctuated$LT$syn..ty..BareFnArg$C$syn..token..Comma$GT$$GT$17hc9e70e44d16cbea3E', symObjAddr: 0xAF30, symBinAddr: 0x4F1D0, symSize: 0x90 }
  - { offsetInCU: 0x295C4, offset: 0x1851AD, size: 0x8, addend: 0x0, symName: '__ZN4core3ptr96drop_in_place$LT$core..option..Option$LT$alloc..boxed..Box$LT$syn..path..PathSegment$GT$$GT$$GT$17h736d4914be8ccd56E', symObjAddr: 0xAFC0, symBinAddr: 0x4F260, symSize: 0x180 }
  - { offsetInCU: 0x29C81, offset: 0x18586A, size: 0x8, addend: 0x0, symName: '__ZN4core3ptr97drop_in_place$LT$syn..punctuated..Punctuated$LT$syn..expr..FieldValue$C$syn..token..Comma$GT$$GT$17hebc649b207814284E', symObjAddr: 0xB140, symBinAddr: 0x4F3E0, symSize: 0xF0 }
  - { offsetInCU: 0x29FFA, offset: 0x185BE3, size: 0x8, addend: 0x0, symName: '__ZN4core3ptr97drop_in_place$LT$syn..punctuated..Punctuated$LT$syn..lifetime..Lifetime$C$syn..token..Add$GT$$GT$17h0798ccbf56150115E', symObjAddr: 0xB230, symBinAddr: 0x4F4D0, symSize: 0xD0 }
  - { offsetInCU: 0x2A46E, offset: 0x186057, size: 0x8, addend: 0x0, symName: '__ZN4core3ptr99drop_in_place$LT$syn..punctuated..Punctuated$LT$syn..path..PathSegment$C$syn..token..Colon2$GT$$GT$17hc0e11ab31c22306eE', symObjAddr: 0xB300, symBinAddr: 0x4F5A0, symSize: 0x24A }
  - { offsetInCU: 0x348EF, offset: 0x1904D8, size: 0x8, addend: 0x0, symName: '__ZN40_$LT$F$u20$as$u20$syn..parse..Parser$GT$6parse217h35e023a7350cb761E', symObjAddr: 0x80, symBinAddr: 0x44320, symSize: 0x2E0 }
  - { offsetInCU: 0x35128, offset: 0x190D11, size: 0x8, addend: 0x0, symName: '__ZN40_$LT$F$u20$as$u20$syn..parse..Parser$GT$6parse217ha29390c1d76b7232E', symObjAddr: 0x360, symBinAddr: 0x44600, symSize: 0x380 }
  - { offsetInCU: 0x35969, offset: 0x191552, size: 0x8, addend: 0x0, symName: '__ZN40_$LT$F$u20$as$u20$syn..parse..Parser$GT$6parse217hc841b65d333bc942E', symObjAddr: 0x6E0, symBinAddr: 0x44980, symSize: 0x380 }
  - { offsetInCU: 0x361AA, offset: 0x191D93, size: 0x8, addend: 0x0, symName: '__ZN40_$LT$F$u20$as$u20$syn..parse..Parser$GT$6parse217hcef10a98174b7ce5E', symObjAddr: 0xA60, symBinAddr: 0x44D00, symSize: 0x380 }
  - { offsetInCU: 0x1E, offset: 0x1973F3, size: 0x8, addend: 0x0, symName: '__ZN4core3ptr100drop_in_place$LT$core..option..Option$LT$alloc..boxed..Box$LT$syn..generics..LifetimeDef$GT$$GT$$GT$17h3899ca5c2432ed32E', symObjAddr: 0x0, symBinAddr: 0x4F7F0, symSize: 0x150 }
  - { offsetInCU: 0x1DF, offset: 0x1975B4, size: 0x8, addend: 0x0, symName: '__ZN65_$LT$num_bigint..ParseBigIntError$u20$as$u20$core..fmt..Debug$GT$3fmt17h30ccf17c99ce4bc6E', symObjAddr: 0x6FF0, symBinAddr: 0x567E0, symSize: 0x50 }
  - { offsetInCU: 0x1A32, offset: 0x198E07, size: 0x8, addend: 0x0, symName: '__ZN4core3ptr100drop_in_place$LT$core..option..Option$LT$alloc..boxed..Box$LT$syn..generics..LifetimeDef$GT$$GT$$GT$17h3899ca5c2432ed32E', symObjAddr: 0x0, symBinAddr: 0x4F7F0, symSize: 0x150 }
  - { offsetInCU: 0x1FAE, offset: 0x199383, size: 0x8, addend: 0x0, symName: '__ZN4core3ptr100drop_in_place$LT$core..option..Option$LT$alloc..boxed..Box$LT$syn..path..GenericArgument$GT$$GT$$GT$17h8f0a837edb1aa051E', symObjAddr: 0x150, symBinAddr: 0x4F940, symSize: 0x50 }
  - { offsetInCU: 0x21F7, offset: 0x1995CC, size: 0x8, addend: 0x0, symName: '__ZN4core3ptr103drop_in_place$LT$syn..punctuated..Punctuated$LT$syn..generics..TypeParamBound$C$syn..token..Add$GT$$GT$17h9e2d2e603068e83aE', symObjAddr: 0x1A0, symBinAddr: 0x4F990, symSize: 0x160 }
  - { offsetInCU: 0x2850, offset: 0x199C25, size: 0x8, addend: 0x0, symName: '__ZN4core3ptr108drop_in_place$LT$syn..punctuated..Punctuated$LT$syn..expr..GenericMethodArgument$C$syn..token..Comma$GT$$GT$17h4b6587da36ced0fcE', symObjAddr: 0x300, symBinAddr: 0x4FAF0, symSize: 0x150 }
  - { offsetInCU: 0x2DA9, offset: 0x19A17E, size: 0x8, addend: 0x0, symName: '__ZN4core3ptr34drop_in_place$LT$syn..lit..Lit$GT$17h13298495a2f812f1E', symObjAddr: 0x450, symBinAddr: 0x4FC40, symSize: 0x110 }
  - { offsetInCU: 0x3278, offset: 0x19A64D, size: 0x8, addend: 0x0, symName: '__ZN4core3ptr34drop_in_place$LT$syn..pat..Pat$GT$17h0d0a9b563b5dbf26E', symObjAddr: 0x560, symBinAddr: 0x4FD50, symSize: 0x1190 }
  - { offsetInCU: 0x7190, offset: 0x19E565, size: 0x8, addend: 0x0, symName: '__ZN4core3ptr34drop_in_place$LT$syn..ty..Type$GT$17h27c6c91ce96053beE', symObjAddr: 0x16F0, symBinAddr: 0x50EE0, symSize: 0x540 }
  - { offsetInCU: 0x8A18, offset: 0x19FDED, size: 0x8, addend: 0x0, symName: '__ZN4core3ptr36drop_in_place$LT$syn..expr..Expr$GT$17h22b5966f62e8bb79E', symObjAddr: 0x1C30, symBinAddr: 0x51420, symSize: 0x3050 }
  - { offsetInCU: 0x13326, offset: 0x1AA6FB, size: 0x8, addend: 0x0, symName: '__ZN4core3ptr36drop_in_place$LT$syn..mac..Macro$GT$17h51b7807cf53b2cdeE', symObjAddr: 0x4C80, symBinAddr: 0x54470, symSize: 0x40 }
  - { offsetInCU: 0x13477, offset: 0x1AA84C, size: 0x8, addend: 0x0, symName: '__ZN4core3ptr36drop_in_place$LT$syn..path..Path$GT$17h0dfa334735d579c8E', symObjAddr: 0x4CC0, symBinAddr: 0x544B0, symSize: 0x230 }
  - { offsetInCU: 0x13E0D, offset: 0x1AB1E2, size: 0x8, addend: 0x0, symName: '__ZN4core3ptr37drop_in_place$LT$syn..stmt..Block$GT$17h3230a4b6b50a27e7E', symObjAddr: 0x4EF0, symBinAddr: 0x546E0, symSize: 0x80 }
  - { offsetInCU: 0x1411A, offset: 0x1AB4EF, size: 0x8, addend: 0x0, symName: '__ZN4core3ptr38drop_in_place$LT$syn..error..Error$GT$17hc2001f61878b5c9eE', symObjAddr: 0x4F70, symBinAddr: 0x54760, symSize: 0x80 }
  - { offsetInCU: 0x143D9, offset: 0x1AB7AE, size: 0x8, addend: 0x0, symName: '__ZN4core3ptr38drop_in_place$LT$syn..expr..Member$GT$17h6e2c1a9be08e300fE', symObjAddr: 0x4FF0, symBinAddr: 0x547E0, symSize: 0x30 }
  - { offsetInCU: 0x144D5, offset: 0x1AB8AA, size: 0x8, addend: 0x0, symName: '__ZN4core3ptr39drop_in_place$LT$proc_macro2..Ident$GT$17hf70eea798d50d675E', symObjAddr: 0x5020, symBinAddr: 0x54810, symSize: 0x30 }
  - { offsetInCU: 0x145B2, offset: 0x1AB987, size: 0x8, addend: 0x0, symName: '__ZN4core3ptr39drop_in_place$LT$syn..pat..PatTuple$GT$17h6d4a0b41d9218ac5E', symObjAddr: 0x5050, symBinAddr: 0x54840, symSize: 0x100 }
  - { offsetInCU: 0x148BB, offset: 0x1ABC90, size: 0x8, addend: 0x0, symName: '__ZN4core3ptr40drop_in_place$LT$syn..ty..ReturnType$GT$17h6d1198a11ecff8e0E', symObjAddr: 0x5150, symBinAddr: 0x54940, symSize: 0x50 }
  - { offsetInCU: 0x14A2B, offset: 0x1ABE00, size: 0x8, addend: 0x0, symName: '__ZN4core3ptr44drop_in_place$LT$syn..lifetime..Lifetime$GT$17ha37ed2c944b75f70E', symObjAddr: 0x51A0, symBinAddr: 0x54990, symSize: 0x30 }
  - { offsetInCU: 0x14C5D, offset: 0x1AC032, size: 0x8, addend: 0x0, symName: '__ZN4core3ptr45drop_in_place$LT$proc_macro2..TokenStream$GT$17hb999668eb610a023E', symObjAddr: 0x51D0, symBinAddr: 0x549C0, symSize: 0x140 }
  - { offsetInCU: 0x150F7, offset: 0x1AC4CC, size: 0x8, addend: 0x0, symName: '__ZN4core3ptr47drop_in_place$LT$syn..path..GenericArgument$GT$17h813827156c9b04d4E', symObjAddr: 0x5310, symBinAddr: 0x54B00, symSize: 0x110 }
  - { offsetInCU: 0x15412, offset: 0x1AC7E7, size: 0x8, addend: 0x0, symName: '__ZN4core3ptr58drop_in_place$LT$alloc..vec..Vec$LT$syn..expr..Arm$GT$$GT$17hccb9a95c06f20bd3E', symObjAddr: 0x5420, symBinAddr: 0x54C10, symSize: 0xD0 }
  - { offsetInCU: 0x156D2, offset: 0x1ACAA7, size: 0x8, addend: 0x0, symName: '__ZN4core3ptr59drop_in_place$LT$alloc..boxed..Box$LT$syn..pat..Pat$GT$$GT$17h9bff5caf34a61968E', symObjAddr: 0x54F0, symBinAddr: 0x54CE0, symSize: 0x50 }
  - { offsetInCU: 0x1582B, offset: 0x1ACC00, size: 0x8, addend: 0x0, symName: '__ZN4core3ptr59drop_in_place$LT$alloc..boxed..Box$LT$syn..ty..Type$GT$$GT$17hb6c1bba0aff0f067E', symObjAddr: 0x5540, symBinAddr: 0x54D30, symSize: 0x50 }
  - { offsetInCU: 0x15984, offset: 0x1ACD59, size: 0x8, addend: 0x0, symName: '__ZN4core3ptr61drop_in_place$LT$alloc..boxed..Box$LT$syn..expr..Expr$GT$$GT$17h90106686e1a1275fE', symObjAddr: 0x5590, symBinAddr: 0x54D80, symSize: 0x50 }
  - { offsetInCU: 0x15B59, offset: 0x1ACF2E, size: 0x8, addend: 0x0, symName: '__ZN4core3ptr61drop_in_place$LT$syn..path..ParenthesizedGenericArguments$GT$17h64f1a6d01ff2b0dcE', symObjAddr: 0x55E0, symBinAddr: 0x54DD0, symSize: 0x170 }
  - { offsetInCU: 0x1614F, offset: 0x1AD524, size: 0x8, addend: 0x0, symName: '__ZN4core3ptr63drop_in_place$LT$alloc..boxed..Box$LT$syn..lit..LitRepr$GT$$GT$17h66c34f31c78f7006E', symObjAddr: 0x5750, symBinAddr: 0x54F40, symSize: 0x60 }
  - { offsetInCU: 0x16456, offset: 0x1AD82B, size: 0x8, addend: 0x0, symName: '__ZN4core3ptr64drop_in_place$LT$alloc..boxed..Box$LT$syn..pat..FieldPat$GT$$GT$17h03d264fdc78b562bE', symObjAddr: 0x57B0, symBinAddr: 0x54FA0, symSize: 0x180 }
  - { offsetInCU: 0x16B73, offset: 0x1ADF48, size: 0x8, addend: 0x0, symName: '__ZN4core3ptr64drop_in_place$LT$alloc..boxed..Box$LT$syn..ty..BareFnArg$GT$$GT$17he8d97e39f0b89c78E', symObjAddr: 0x5930, symBinAddr: 0x55120, symSize: 0x160 }
  - { offsetInCU: 0x17109, offset: 0x1AE4DE, size: 0x8, addend: 0x0, symName: '__ZN4core3ptr64drop_in_place$LT$alloc..vec..Vec$LT$syn..attr..Attribute$GT$$GT$17h1fd79fc0acd41e39E', symObjAddr: 0x5A90, symBinAddr: 0x55280, symSize: 0xF0 }
  - { offsetInCU: 0x173FF, offset: 0x1AE7D4, size: 0x8, addend: 0x0, symName: '__ZN4core3ptr65drop_in_place$LT$alloc..vec..Vec$LT$proc_macro..TokenTree$GT$$GT$17hde00f9b38ede6167E', symObjAddr: 0x5B80, symBinAddr: 0x55370, symSize: 0x110 }
  - { offsetInCU: 0x177F7, offset: 0x1AEBCC, size: 0x8, addend: 0x0, symName: '__ZN4core3ptr65drop_in_place$LT$core..option..Option$LT$syn..expr..Label$GT$$GT$17he64e3930a30e77f6E', symObjAddr: 0x5C90, symBinAddr: 0x55480, symSize: 0x30 }
  - { offsetInCU: 0x17931, offset: 0x1AED06, size: 0x8, addend: 0x0, symName: '__ZN4core3ptr66drop_in_place$LT$core..option..Option$LT$syn..ty..Variadic$GT$$GT$17h737c6fa0779b3868E', symObjAddr: 0x5CC0, symBinAddr: 0x554B0, symSize: 0xF0 }
  - { offsetInCU: 0x17C5B, offset: 0x1AF030, size: 0x8, addend: 0x0, symName: '__ZN4core3ptr67drop_in_place$LT$alloc..boxed..Box$LT$syn..expr..FieldValue$GT$$GT$17h6c7d8efb2b208feeE', symObjAddr: 0x5DB0, symBinAddr: 0x555A0, symSize: 0x160 }
  - { offsetInCU: 0x181F0, offset: 0x1AF5C5, size: 0x8, addend: 0x0, symName: '__ZN4core3ptr68drop_in_place$LT$alloc..boxed..Box$LT$syn..path..PathSegment$GT$$GT$17hc7e1d64fe882c378E', symObjAddr: 0x5F10, symBinAddr: 0x55700, symSize: 0x190 }
  - { offsetInCU: 0x188FA, offset: 0x1AFCCF, size: 0x8, addend: 0x0, symName: '__ZN4core3ptr72drop_in_place$LT$alloc..boxed..Box$LT$syn..path..GenericArgument$GT$$GT$17hbeacc7d49176e2b8E', symObjAddr: 0x60A0, symBinAddr: 0x55890, symSize: 0x120 }
  - { offsetInCU: 0x18D72, offset: 0x1B0147, size: 0x8, addend: 0x0, symName: '__ZN4core3ptr72drop_in_place$LT$core..option..Option$LT$syn..lifetime..Lifetime$GT$$GT$17h0acdf036efb385bcE', symObjAddr: 0x61C0, symBinAddr: 0x559B0, symSize: 0x30 }
  - { offsetInCU: 0x18E8D, offset: 0x1B0262, size: 0x8, addend: 0x0, symName: '__ZN4core3ptr75drop_in_place$LT$alloc..boxed..Box$LT$syn..generics..TypeParamBound$GT$$GT$17hd37835668efda9f9E', symObjAddr: 0x61F0, symBinAddr: 0x559E0, symSize: 0x90 }
  - { offsetInCU: 0x19150, offset: 0x1B0525, size: 0x8, addend: 0x0, symName: '__ZN4core3ptr78drop_in_place$LT$alloc..boxed..Box$LT$syn..expr..GenericMethodArgument$GT$$GT$17h2ba1c45210c2d620E', symObjAddr: 0x6280, symBinAddr: 0x55A70, symSize: 0x60 }
  - { offsetInCU: 0x19342, offset: 0x1B0717, size: 0x8, addend: 0x0, symName: '__ZN4core3ptr78drop_in_place$LT$core..option..Option$LT$syn..generics..BoundLifetimes$GT$$GT$17hfe0b2832f27903aaE', symObjAddr: 0x62E0, symBinAddr: 0x55AD0, symSize: 0x90 }
  - { offsetInCU: 0x19630, offset: 0x1B0A05, size: 0x8, addend: 0x0, symName: '__ZN4core3ptr86drop_in_place$LT$syn..punctuated..Punctuated$LT$syn..pat..Pat$C$syn..token..Or$GT$$GT$17h079000a46246a98aE', symObjAddr: 0x6370, symBinAddr: 0x55B60, symSize: 0x120 }
  - { offsetInCU: 0x19AAB, offset: 0x1B0E80, size: 0x8, addend: 0x0, symName: '__ZN4core3ptr87drop_in_place$LT$core..option..Option$LT$alloc..boxed..Box$LT$syn..pat..Pat$GT$$GT$$GT$17h3bebdc7d61d8f4efE', symObjAddr: 0x6490, symBinAddr: 0x55C80, symSize: 0x50 }
  - { offsetInCU: 0x19C1B, offset: 0x1B0FF0, size: 0x8, addend: 0x0, symName: '__ZN4core3ptr87drop_in_place$LT$core..option..Option$LT$alloc..boxed..Box$LT$syn..ty..Type$GT$$GT$$GT$17h7b310415308d2219E', symObjAddr: 0x64E0, symBinAddr: 0x55CD0, symSize: 0x50 }
  - { offsetInCU: 0x19D8B, offset: 0x1B1160, size: 0x8, addend: 0x0, symName: '__ZN4core3ptr89drop_in_place$LT$core..option..Option$LT$alloc..boxed..Box$LT$syn..expr..Expr$GT$$GT$$GT$17h1862cb574e5ecf32E', symObjAddr: 0x6530, symBinAddr: 0x55D20, symSize: 0x50 }
  - { offsetInCU: 0x19F39, offset: 0x1B130E, size: 0x8, addend: 0x0, symName: '__ZN4core3ptr89drop_in_place$LT$syn..punctuated..Punctuated$LT$syn..pat..Pat$C$syn..token..Comma$GT$$GT$17h487291e67ef6ac2bE', symObjAddr: 0x6580, symBinAddr: 0x55D70, symSize: 0x120 }
  - { offsetInCU: 0x1A3CB, offset: 0x1B17A0, size: 0x8, addend: 0x0, symName: '__ZN4core3ptr89drop_in_place$LT$syn..punctuated..Punctuated$LT$syn..ty..Type$C$syn..token..Comma$GT$$GT$17h2c59318ff8918ba8E', symObjAddr: 0x66A0, symBinAddr: 0x55E90, symSize: 0x120 }
  - { offsetInCU: 0x1A884, offset: 0x1B1C59, size: 0x8, addend: 0x0, symName: '__ZN4core3ptr91drop_in_place$LT$syn..punctuated..Punctuated$LT$syn..expr..Expr$C$syn..token..Comma$GT$$GT$17hab7a0b21dd305247E', symObjAddr: 0x67C0, symBinAddr: 0x55FB0, symSize: 0x120 }
  - { offsetInCU: 0x1AD12, offset: 0x1B20E7, size: 0x8, addend: 0x0, symName: '__ZN4core3ptr94drop_in_place$LT$syn..punctuated..Punctuated$LT$syn..pat..FieldPat$C$syn..token..Comma$GT$$GT$17he7e26d1e1aa55800E', symObjAddr: 0x68E0, symBinAddr: 0x560D0, symSize: 0xF0 }
  - { offsetInCU: 0x1B011, offset: 0x1B23E6, size: 0x8, addend: 0x0, symName: '__ZN4core3ptr94drop_in_place$LT$syn..punctuated..Punctuated$LT$syn..ty..BareFnArg$C$syn..token..Comma$GT$$GT$17hc9e70e44d16cbea3E', symObjAddr: 0x69D0, symBinAddr: 0x561C0, symSize: 0x90 }
  - { offsetInCU: 0x1B281, offset: 0x1B2656, size: 0x8, addend: 0x0, symName: '__ZN4core3ptr96drop_in_place$LT$core..option..Option$LT$alloc..boxed..Box$LT$syn..path..PathSegment$GT$$GT$$GT$17h736d4914be8ccd56E', symObjAddr: 0x6A60, symBinAddr: 0x56250, symSize: 0x180 }
  - { offsetInCU: 0x1B93E, offset: 0x1B2D13, size: 0x8, addend: 0x0, symName: '__ZN4core3ptr97drop_in_place$LT$syn..punctuated..Punctuated$LT$syn..expr..FieldValue$C$syn..token..Comma$GT$$GT$17hebc649b207814284E', symObjAddr: 0x6BE0, symBinAddr: 0x563D0, symSize: 0xF0 }
  - { offsetInCU: 0x1BCB7, offset: 0x1B308C, size: 0x8, addend: 0x0, symName: '__ZN4core3ptr97drop_in_place$LT$syn..punctuated..Punctuated$LT$syn..lifetime..Lifetime$C$syn..token..Add$GT$$GT$17h0798ccbf56150115E', symObjAddr: 0x6CD0, symBinAddr: 0x564C0, symSize: 0xD0 }
  - { offsetInCU: 0x1C12B, offset: 0x1B3500, size: 0x8, addend: 0x0, symName: '__ZN4core3ptr99drop_in_place$LT$syn..punctuated..Punctuated$LT$syn..path..PathSegment$C$syn..token..Colon2$GT$$GT$17hc0e11ab31c22306eE', symObjAddr: 0x6DA0, symBinAddr: 0x56590, symSize: 0x250 }
  - { offsetInCU: 0x1E49E, offset: 0x1B5873, size: 0x8, addend: 0x0, symName: __ZN13ark_ff_macros5utils12parse_string17hca247b3704b28d81E, symObjAddr: 0x7040, symBinAddr: 0x56830, symSize: 0x5D0 }
  - { offsetInCU: 0x1F384, offset: 0x1B6759, size: 0x8, addend: 0x0, symName: __ZN13ark_ff_macros5utils16str_to_limbs_u6417h809eab6be9e2fdd1E, symObjAddr: 0x7670, symBinAddr: 0x56E00, symSize: 0x1B9 }
  - { offsetInCU: 0x1E, offset: 0x1C2990, size: 0x8, addend: 0x0, symName: '__ZN4core3ptr45drop_in_place$LT$proc_macro2..TokenStream$GT$17hb999668eb610a023E', symObjAddr: 0x0, symBinAddr: 0x56FC0, symSize: 0x140 }
  - { offsetInCU: 0xDD8, offset: 0x1C374A, size: 0x8, addend: 0x0, symName: '__ZN4core3ptr45drop_in_place$LT$proc_macro2..TokenStream$GT$17hb999668eb610a023E', symObjAddr: 0x0, symBinAddr: 0x56FC0, symSize: 0x140 }
  - { offsetInCU: 0x1234, offset: 0x1C3BA6, size: 0x8, addend: 0x0, symName: '__ZN4core3ptr65drop_in_place$LT$alloc..vec..Vec$LT$proc_macro..TokenTree$GT$$GT$17hde00f9b38ede6167E', symObjAddr: 0x140, symBinAddr: 0x57100, symSize: 0x110 }
  - { offsetInCU: 0x2728, offset: 0x1C509A, size: 0x8, addend: 0x0, symName: __ZN13ark_ff_macros10montgomery3mul15mul_assign_impl17ha68e1770e344b560E, symObjAddr: 0x250, symBinAddr: 0x57210, symSize: 0x3879 }
  - { offsetInCU: 0x1E, offset: 0x1C786C, size: 0x8, addend: 0x0, symName: '__ZN4core3ptr45drop_in_place$LT$proc_macro2..TokenStream$GT$17hb999668eb610a023E', symObjAddr: 0x0, symBinAddr: 0x5AA90, symSize: 0x140 }
  - { offsetInCU: 0xD80, offset: 0x1C85CE, size: 0x8, addend: 0x0, symName: '__ZN4core3ptr45drop_in_place$LT$proc_macro2..TokenStream$GT$17hb999668eb610a023E', symObjAddr: 0x0, symBinAddr: 0x5AA90, symSize: 0x140 }
  - { offsetInCU: 0x11DC, offset: 0x1C8A2A, size: 0x8, addend: 0x0, symName: '__ZN4core3ptr65drop_in_place$LT$alloc..vec..Vec$LT$proc_macro..TokenTree$GT$$GT$17hde00f9b38ede6167E', symObjAddr: 0x140, symBinAddr: 0x5ABD0, symSize: 0x110 }
  - { offsetInCU: 0x2633, offset: 0x1C9E81, size: 0x8, addend: 0x0, symName: __ZN13ark_ff_macros10montgomery6square20square_in_place_impl17hca719c3ecc201d8fE, symObjAddr: 0x250, symBinAddr: 0x5ACE0, symSize: 0x343E }
  - { offsetInCU: 0x1E, offset: 0x1CC217, size: 0x8, addend: 0x0, symName: '__ZN4core3ptr45drop_in_place$LT$proc_macro2..TokenStream$GT$17hb999668eb610a023E', symObjAddr: 0x0, symBinAddr: 0x5E120, symSize: 0x140 }
  - { offsetInCU: 0xBF0, offset: 0x1CCDE9, size: 0x8, addend: 0x0, symName: '__ZN4core3ptr45drop_in_place$LT$proc_macro2..TokenStream$GT$17hb999668eb610a023E', symObjAddr: 0x0, symBinAddr: 0x5E120, symSize: 0x140 }
  - { offsetInCU: 0x104C, offset: 0x1CD245, size: 0x8, addend: 0x0, symName: '__ZN4core3ptr65drop_in_place$LT$alloc..vec..Vec$LT$proc_macro..TokenTree$GT$$GT$17hde00f9b38ede6167E', symObjAddr: 0x140, symBinAddr: 0x5E260, symSize: 0x110 }
  - { offsetInCU: 0x2300, offset: 0x1CE4F9, size: 0x8, addend: 0x0, symName: __ZN13ark_ff_macros10montgomery15sum_of_products20sum_of_products_impl17hae5a52520d13f438E, symObjAddr: 0x250, symBinAddr: 0x5E370, symSize: 0x2F66 }
  - { offsetInCU: 0x1E, offset: 0x1CF217, size: 0x8, addend: 0x0, symName: __ZN5alloc3str17join_generic_copy17h61dc2fba4f7749baE, symObjAddr: 0x0, symBinAddr: 0x612E0, symSize: 0x468 }
  - { offsetInCU: 0x18F5, offset: 0x1D0AEE, size: 0x8, addend: 0x0, symName: __ZN5alloc3str17join_generic_copy17h61dc2fba4f7749baE, symObjAddr: 0x0, symBinAddr: 0x612E0, symSize: 0x468 }
  - { offsetInCU: 0x1A5, offset: 0x1D3543, size: 0x8, addend: 0x0, symName: '__ZN77_$LT$$LP$A$C$B$RP$$u20$as$u20$proc_macro..bridge..rpc..DecodeMut$LT$S$GT$$GT$6decode17h3b52c031a0ac2af1E', symObjAddr: 0xA30, symBinAddr: 0x61FF0, symSize: 0xAA }
  - { offsetInCU: 0xBB1, offset: 0x1D3F4F, size: 0x8, addend: 0x0, symName: __ZN10proc_macro6bridge6client10run_client17h1b1062e5021cf7a4E, symObjAddr: 0x190, symBinAddr: 0x61750, symSize: 0x2E0 }
  - { offsetInCU: 0x128C, offset: 0x1D462A, size: 0x8, addend: 0x0, symName: __ZN10proc_macro6bridge6client10run_client17h9a32086075640c5dE, symObjAddr: 0x470, symBinAddr: 0x61A30, symSize: 0x2E0 }
  - { offsetInCU: 0x198C, offset: 0x1D4D2A, size: 0x8, addend: 0x0, symName: __ZN10proc_macro6bridge6client10run_client17hcb42a1c5de2cc99fE, symObjAddr: 0x750, symBinAddr: 0x61D10, symSize: 0x2E0 }
  - { offsetInCU: 0x1E, offset: 0x1D75F6, size: 0x8, addend: 0x0, symName: '__ZN4core3ptr73drop_in_place$LT$core..cell..UnsafeCell$LT$syn..parse..Unexpected$GT$$GT$17h2e9c948e578b2890E.llvm.14043016033785704971', symObjAddr: 0x0, symBinAddr: 0x620A0, symSize: 0x50 }
  - { offsetInCU: 0xB7D, offset: 0x1D8155, size: 0x8, addend: 0x0, symName: '__ZN4core3ptr73drop_in_place$LT$core..cell..UnsafeCell$LT$syn..parse..Unexpected$GT$$GT$17h2e9c948e578b2890E.llvm.14043016033785704971', symObjAddr: 0x0, symBinAddr: 0x620A0, symSize: 0x50 }
  - { offsetInCU: 0x171C, offset: 0x1D8CF4, size: 0x8, addend: 0x0, symName: '__ZN68_$LT$alloc..rc..Rc$LT$T$C$A$GT$$u20$as$u20$core..ops..drop..Drop$GT$4drop17ha95b11660c9dff6bE', symObjAddr: 0x100, symBinAddr: 0x620F0, symSize: 0x40 }
  - { offsetInCU: 0x1990, offset: 0x1D8F68, size: 0x8, addend: 0x0, symName: '__ZN68_$LT$alloc..rc..Rc$LT$T$C$A$GT$$u20$as$u20$core..ops..drop..Drop$GT$4drop17heb976a9361dd2df9E', symObjAddr: 0x140, symBinAddr: 0x62130, symSize: 0xE0 }
  - { offsetInCU: 0x2149, offset: 0x1D9721, size: 0x8, addend: 0x0, symName: '__ZN80_$LT$alloc..rc..UniqueRcUninit$LT$T$C$A$GT$$u20$as$u20$core..ops..drop..Drop$GT$4drop17h732863918a12beffE', symObjAddr: 0x220, symBinAddr: 0x62210, symSize: 0x4F }
  - { offsetInCU: 0x7AF, offset: 0x1DA921, size: 0x8, addend: 0x0, symName: '__ZN68_$LT$$RF$str$u20$as$u20$proc_macro..bridge..rpc..Encode$LT$S$GT$$GT$6encode17he69f3bc6f4d637f7E', symObjAddr: 0x80, symBinAddr: 0x62260, symSize: 0x230 }
  - { offsetInCU: 0x1E, offset: 0x1DAF7C, size: 0x8, addend: 0x0, symName: '__ZN4core3ptr45drop_in_place$LT$proc_macro2..TokenStream$GT$17hb999668eb610a023E', symObjAddr: 0x0, symBinAddr: 0x62490, symSize: 0x140 }
  - { offsetInCU: 0xBFC, offset: 0x1DBB5A, size: 0x8, addend: 0x0, symName: '__ZN4core3ptr45drop_in_place$LT$proc_macro2..TokenStream$GT$17hb999668eb610a023E', symObjAddr: 0x0, symBinAddr: 0x62490, symSize: 0x140 }
  - { offsetInCU: 0x1058, offset: 0x1DBFB6, size: 0x8, addend: 0x0, symName: '__ZN4core3ptr65drop_in_place$LT$alloc..vec..Vec$LT$proc_macro..TokenTree$GT$$GT$17hde00f9b38ede6167E', symObjAddr: 0x140, symBinAddr: 0x625D0, symSize: 0x110 }
  - { offsetInCU: 0x1C7A, offset: 0x1DCBD8, size: 0x8, addend: 0x0, symName: __ZN13ark_ff_macros10montgomery10biginteger19add_with_carry_impl17hedb26ce7759ea671E, symObjAddr: 0x250, symBinAddr: 0x626E0, symSize: 0x770 }
  - { offsetInCU: 0x1EEA, offset: 0x1DCE48, size: 0x8, addend: 0x0, symName: __ZN13ark_ff_macros10montgomery10biginteger20sub_with_borrow_impl17h64ac95249591c176E, symObjAddr: 0x9C0, symBinAddr: 0x62E50, symSize: 0x770 }
  - { offsetInCU: 0x215A, offset: 0x1DD0B8, size: 0x8, addend: 0x0, symName: __ZN13ark_ff_macros10montgomery10biginteger21subtract_modulus_impl17h6cbc83def00a38a5E, symObjAddr: 0x1130, symBinAddr: 0x635C0, symSize: 0x7D2 }
  - { offsetInCU: 0x1E, offset: 0x1DD681, size: 0x8, addend: 0x0, symName: __ZN3syn5error5Error3new17h0f0faa35063a58dcE, symObjAddr: 0x0, symBinAddr: 0x63DA0, symSize: 0x100 }
  - { offsetInCU: 0x35, offset: 0x1DD698, size: 0x8, addend: 0x0, symName: _anon.ca0c024914173daf98e5b492a0a04310.0.llvm.14343971039674459617, symObjAddr: 0x410, symBinAddr: 0x288898, symSize: 0x0 }
  - { offsetInCU: 0x19B, offset: 0x1DD7FE, size: 0x8, addend: 0x0, symName: '__ZN58_$LT$alloc..string..String$u20$as$u20$core..fmt..Write$GT$10write_char17h04bc467bd68a934bE.llvm.14343971039674459617', symObjAddr: 0x230, symBinAddr: 0x63FD0, symSize: 0x140 }
  - { offsetInCU: 0x5A0, offset: 0x1DDC03, size: 0x8, addend: 0x0, symName: '__ZN58_$LT$alloc..string..String$u20$as$u20$core..fmt..Write$GT$9write_str17h46a93205c3443fbaE.llvm.14343971039674459617', symObjAddr: 0x370, symBinAddr: 0x64110, symSize: 0x5B }
  - { offsetInCU: 0xD18, offset: 0x1DE37B, size: 0x8, addend: 0x0, symName: '__ZN4core3ptr42drop_in_place$LT$alloc..string..String$GT$17hbabb203281c04810E.llvm.14343971039674459617', symObjAddr: 0x1F0, symBinAddr: 0x63F90, symSize: 0x20 }
  - { offsetInCU: 0xFA8, offset: 0x1DE60B, size: 0x8, addend: 0x0, symName: '__ZN53_$LT$core..fmt..Error$u20$as$u20$core..fmt..Debug$GT$3fmt17h03dc662ab152f3aeE.llvm.14343971039674459617', symObjAddr: 0x210, symBinAddr: 0x63FB0, symSize: 0x20 }
  - { offsetInCU: 0x146D, offset: 0x1DEAD0, size: 0x8, addend: 0x0, symName: _anon.ca0c024914173daf98e5b492a0a04310.4.llvm.14343971039674459617, symObjAddr: 0x458, symBinAddr: 0x2888E0, symSize: 0x0 }
  - { offsetInCU: 0x17F7, offset: 0x1DEE5A, size: 0x8, addend: 0x0, symName: __ZN3syn5error5Error3new17h0f0faa35063a58dcE, symObjAddr: 0x0, symBinAddr: 0x63DA0, symSize: 0x100 }
  - { offsetInCU: 0x1A11, offset: 0x1DF074, size: 0x8, addend: 0x0, symName: __ZN3syn5error5Error3new17hdc5fb01be748e320E, symObjAddr: 0x100, symBinAddr: 0x63EA0, symSize: 0xF0 }
  - { offsetInCU: 0x1E, offset: 0x1DF7D0, size: 0x8, addend: 0x0, symName: __ZN4core3fmt5Write9write_fmt17hb2e813a0ccfcfb5eE, symObjAddr: 0x0, symBinAddr: 0x64170, symSize: 0x20 }
  - { offsetInCU: 0x98, offset: 0x1DF84A, size: 0x8, addend: 0x0, symName: '__ZN58_$LT$alloc..string..String$u20$as$u20$core..fmt..Write$GT$10write_char17h04bc467bd68a934bE', symObjAddr: 0x40, symBinAddr: 0x641B0, symSize: 0x140 }
  - { offsetInCU: 0x49D, offset: 0x1DFC4F, size: 0x8, addend: 0x0, symName: '__ZN58_$LT$alloc..string..String$u20$as$u20$core..fmt..Write$GT$9write_str17h46a93205c3443fbaE', symObjAddr: 0x180, symBinAddr: 0x642F0, symSize: 0x60 }
  - { offsetInCU: 0xAC1, offset: 0x1E0273, size: 0x8, addend: 0x0, symName: '__ZN4core3ptr42drop_in_place$LT$alloc..string..String$GT$17hbabb203281c04810E', symObjAddr: 0x20, symBinAddr: 0x64190, symSize: 0x20 }
  - { offsetInCU: 0xE54, offset: 0x1E0606, size: 0x8, addend: 0x0, symName: __ZN4core3fmt5Write9write_fmt17hb2e813a0ccfcfb5eE, symObjAddr: 0x0, symBinAddr: 0x64170, symSize: 0x20 }
  - { offsetInCU: 0x1E, offset: 0x1E10BB, size: 0x8, addend: 0x0, symName: '__ZN120_$LT$proc_macro2..fallback..TokenStream$u20$as$u20$core..iter..traits..collect..Extend$LT$proc_macro2..TokenTree$GT$$GT$6extend17hf05878632ca437a8E', symObjAddr: 0x0, symBinAddr: 0x64350, symSize: 0x280 }
  - { offsetInCU: 0x9AC, offset: 0x1E1A49, size: 0x8, addend: 0x0, symName: '__ZN120_$LT$proc_macro2..fallback..TokenStream$u20$as$u20$core..iter..traits..collect..Extend$LT$proc_macro2..TokenTree$GT$$GT$6extend17hf05878632ca437a8E', symObjAddr: 0x0, symBinAddr: 0x64350, symSize: 0x280 }
  - { offsetInCU: 0x1B81, offset: 0x1E2C1E, size: 0x8, addend: 0x0, symName: '__ZN4core3ptr45drop_in_place$LT$proc_macro2..TokenStream$GT$17hb999668eb610a023E', symObjAddr: 0x280, symBinAddr: 0x645D0, symSize: 0x140 }
  - { offsetInCU: 0x1FDD, offset: 0x1E307A, size: 0x8, addend: 0x0, symName: '__ZN4core3ptr56drop_in_place$LT$proc_macro2..token_stream..IntoIter$GT$17h65cf07cae638c7adE', symObjAddr: 0x3C0, symBinAddr: 0x64710, symSize: 0x20 }
  - { offsetInCU: 0x208D, offset: 0x1E312A, size: 0x8, addend: 0x0, symName: '__ZN4core3ptr65drop_in_place$LT$alloc..vec..Vec$LT$proc_macro..TokenTree$GT$$GT$17hde00f9b38ede6167E', symObjAddr: 0x3E0, symBinAddr: 0x64730, symSize: 0x107 }
  - { offsetInCU: 0x1E, offset: 0x1E4E05, size: 0x8, addend: 0x0, symName: '__ZN10proc_macro6bridge104_$LT$impl$u20$proc_macro..bridge..rpc..Encode$LT$S$GT$$u20$for$u20$core..result..Result$LT$T$C$E$GT$$GT$6encode17h2f053dd8f17e2c11E', symObjAddr: 0x0, symBinAddr: 0x64840, symSize: 0x300 }
  - { offsetInCU: 0x148, offset: 0x1E4F2F, size: 0x8, addend: 0x0, symName: '__ZN10proc_macro6bridge104_$LT$impl$u20$proc_macro..bridge..rpc..Encode$LT$S$GT$$u20$for$u20$core..result..Result$LT$T$C$E$GT$$GT$6encode17h2f053dd8f17e2c11E', symObjAddr: 0x0, symBinAddr: 0x64840, symSize: 0x300 }
  - { offsetInCU: 0x5E3, offset: 0x1E53CA, size: 0x8, addend: 0x0, symName: '__ZN10proc_macro6bridge104_$LT$impl$u20$proc_macro..bridge..rpc..Encode$LT$S$GT$$u20$for$u20$core..result..Result$LT$T$C$E$GT$$GT$6encode17h4b1b94efcf84d0faE', symObjAddr: 0x300, symBinAddr: 0x64B40, symSize: 0x280 }
  - { offsetInCU: 0x1E, offset: 0x1E6084, size: 0x8, addend: 0x0, symName: '__ZN4core3ptr45drop_in_place$LT$proc_macro2..TokenStream$GT$17hb999668eb610a023E', symObjAddr: 0x0, symBinAddr: 0x64DC0, symSize: 0x140 }
  - { offsetInCU: 0xB2C, offset: 0x1E6B92, size: 0x8, addend: 0x0, symName: '__ZN4core3ptr45drop_in_place$LT$proc_macro2..TokenStream$GT$17hb999668eb610a023E', symObjAddr: 0x0, symBinAddr: 0x64DC0, symSize: 0x140 }
  - { offsetInCU: 0xF88, offset: 0x1E6FEE, size: 0x8, addend: 0x0, symName: '__ZN4core3ptr65drop_in_place$LT$alloc..vec..Vec$LT$proc_macro..TokenTree$GT$$GT$17hde00f9b38ede6167E', symObjAddr: 0x140, symBinAddr: 0x64F00, symSize: 0x110 }
  - { offsetInCU: 0x19A7, offset: 0x1E7A0D, size: 0x8, addend: 0x0, symName: __ZN13ark_ff_macros10montgomery3add15add_assign_impl17h384d9951f456e761E, symObjAddr: 0x250, symBinAddr: 0x65010, symSize: 0x3B3 }
  - { offsetInCU: 0x1E, offset: 0x1E7E5B, size: 0x8, addend: 0x0, symName: '__ZN10proc_macro6bridge100_$LT$impl$u20$proc_macro..bridge..rpc..Encode$LT$S$GT$$u20$for$u20$core..option..Option$LT$T$GT$$GT$6encode17hb8302cfa79ffee72E', symObjAddr: 0x0, symBinAddr: 0x653D0, symSize: 0x240 }
  - { offsetInCU: 0x352, offset: 0x1E818F, size: 0x8, addend: 0x0, symName: '__ZN10proc_macro6bridge100_$LT$impl$u20$proc_macro..bridge..rpc..Encode$LT$S$GT$$u20$for$u20$core..option..Option$LT$T$GT$$GT$6encode17hb8302cfa79ffee72E', symObjAddr: 0x0, symBinAddr: 0x653D0, symSize: 0x240 }
  - { offsetInCU: 0x6D4, offset: 0x1E8511, size: 0x8, addend: 0x0, symName: '__ZN10proc_macro6bridge100_$LT$impl$u20$proc_macro..bridge..rpc..Encode$LT$S$GT$$u20$for$u20$core..option..Option$LT$T$GT$$GT$6encode17hf73356d34b9e3398E', symObjAddr: 0x240, symBinAddr: 0x65610, symSize: 0x345 }
  - { offsetInCU: 0x1E, offset: 0x1E8F23, size: 0x8, addend: 0x0, symName: '__ZN4core3ptr45drop_in_place$LT$proc_macro2..TokenStream$GT$17hb999668eb610a023E.llvm.12348756855876390652', symObjAddr: 0x0, symBinAddr: 0x65960, symSize: 0x140 }
  - { offsetInCU: 0xB2C, offset: 0x1E9A31, size: 0x8, addend: 0x0, symName: '__ZN4core3ptr45drop_in_place$LT$proc_macro2..TokenStream$GT$17hb999668eb610a023E.llvm.12348756855876390652', symObjAddr: 0x0, symBinAddr: 0x65960, symSize: 0x140 }
  - { offsetInCU: 0xF88, offset: 0x1E9E8D, size: 0x8, addend: 0x0, symName: '__ZN4core3ptr65drop_in_place$LT$alloc..vec..Vec$LT$proc_macro..TokenTree$GT$$GT$17hde00f9b38ede6167E.llvm.12348756855876390652', symObjAddr: 0x140, symBinAddr: 0x65AA0, symSize: 0x110 }
  - { offsetInCU: 0x19A7, offset: 0x1EA8AC, size: 0x8, addend: 0x0, symName: __ZN13ark_ff_macros10montgomery6double20double_in_place_impl17hd983a6faf4f8db06E, symObjAddr: 0x250, symBinAddr: 0x65BB0, symSize: 0x2A3 }
  - { offsetInCU: 0x1E, offset: 0x1EACBE, size: 0x8, addend: 0x0, symName: '__ZN115_$LT$proc_macro2..imp..TokenStream$u20$as$u20$core..iter..traits..collect..Extend$LT$proc_macro2..TokenTree$GT$$GT$6extend17hd977eb2718ef31cbE', symObjAddr: 0x0, symBinAddr: 0x65E60, symSize: 0x110 }
  - { offsetInCU: 0x78B, offset: 0x1EB42B, size: 0x8, addend: 0x0, symName: '__ZN115_$LT$proc_macro2..imp..TokenStream$u20$as$u20$core..iter..traits..collect..Extend$LT$proc_macro2..TokenTree$GT$$GT$6extend17hd977eb2718ef31cbE', symObjAddr: 0x0, symBinAddr: 0x65E60, symSize: 0x110 }
  - { offsetInCU: 0x15DF, offset: 0x1EC27F, size: 0x8, addend: 0x0, symName: '__ZN4core3ptr56drop_in_place$LT$proc_macro2..token_stream..IntoIter$GT$17h65cf07cae638c7adE.llvm.14233739598244118373', symObjAddr: 0x110, symBinAddr: 0x65F70, symSize: 0x1C }
  - { offsetInCU: 0x1E, offset: 0x1EC5D4, size: 0x8, addend: 0x0, symName: __ZN10proc_macro6bridge14selfless_reify31reify_to_extern_c_fn_hrt_bridge7wrapper17h15a8fef9e364bbf1E, symObjAddr: 0x0, symBinAddr: 0x65F90, symSize: 0x30 }
  - { offsetInCU: 0x221, offset: 0x1EC7D7, size: 0x8, addend: 0x0, symName: __ZN10proc_macro6bridge14selfless_reify31reify_to_extern_c_fn_hrt_bridge7wrapper17h15a8fef9e364bbf1E, symObjAddr: 0x0, symBinAddr: 0x65F90, symSize: 0x30 }
  - { offsetInCU: 0x299, offset: 0x1EC84F, size: 0x8, addend: 0x0, symName: __ZN10proc_macro6bridge14selfless_reify31reify_to_extern_c_fn_hrt_bridge7wrapper17h2a432744636aea50E, symObjAddr: 0x30, symBinAddr: 0x65FC0, symSize: 0x30 }
  - { offsetInCU: 0x311, offset: 0x1EC8C7, size: 0x8, addend: 0x0, symName: __ZN10proc_macro6bridge14selfless_reify31reify_to_extern_c_fn_hrt_bridge7wrapper17hfb6216fc74bdd709E, symObjAddr: 0x60, symBinAddr: 0x65FF0, symSize: 0x25 }
  - { offsetInCU: 0x1E, offset: 0x1ECB3A, size: 0x8, addend: 0x0, symName: '__ZN77_$LT$$LP$A$C$B$RP$$u20$as$u20$proc_macro..bridge..rpc..DecodeMut$LT$S$GT$$GT$6decode17h061487859ef68f8cE', symObjAddr: 0x0, symBinAddr: 0x66020, symSize: 0xD0 }
  - { offsetInCU: 0xB4, offset: 0x1ECBD0, size: 0x8, addend: 0x0, symName: '__ZN77_$LT$$LP$A$C$B$RP$$u20$as$u20$proc_macro..bridge..rpc..DecodeMut$LT$S$GT$$GT$6decode17h061487859ef68f8cE', symObjAddr: 0x0, symBinAddr: 0x66020, symSize: 0xD0 }
  - { offsetInCU: 0xC85, offset: 0x1ED7A1, size: 0x8, addend: 0x0, symName: '__ZN77_$LT$$LP$A$C$B$RP$$u20$as$u20$proc_macro..bridge..rpc..DecodeMut$LT$S$GT$$GT$6decode17h2fac0a328ff57045E', symObjAddr: 0xD0, symBinAddr: 0x660F0, symSize: 0xCE }
  - { offsetInCU: 0x1E, offset: 0x1EE818, size: 0x8, addend: 0x0, symName: '__ZN44_$LT$$RF$T$u20$as$u20$core..fmt..Display$GT$3fmt17h45b1ccf6f300ca05E', symObjAddr: 0x0, symBinAddr: 0x661C0, symSize: 0x17 }
  - { offsetInCU: 0x64, offset: 0x1EE85E, size: 0x8, addend: 0x0, symName: '__ZN44_$LT$$RF$T$u20$as$u20$core..fmt..Display$GT$3fmt17h45b1ccf6f300ca05E', symObjAddr: 0x0, symBinAddr: 0x661C0, symSize: 0x17 }
  - { offsetInCU: 0x1E, offset: 0x1EEAC8, size: 0x8, addend: 0x0, symName: '__ZN42_$LT$$RF$T$u20$as$u20$core..fmt..Debug$GT$3fmt17hbe1b22f7235a2fc5E', symObjAddr: 0x0, symBinAddr: 0x661E0, symSize: 0x2F }
  - { offsetInCU: 0x120, offset: 0x1EEBCA, size: 0x8, addend: 0x0, symName: '__ZN42_$LT$$RF$T$u20$as$u20$core..fmt..Debug$GT$3fmt17hbe1b22f7235a2fc5E', symObjAddr: 0x0, symBinAddr: 0x661E0, symSize: 0x2F }
  - { offsetInCU: 0x1E, offset: 0x1EEDE0, size: 0x8, addend: 0x0, symName: '__ZN42_$LT$$RF$T$u20$as$u20$core..fmt..Debug$GT$3fmt17h81ae85195ef74cadE', symObjAddr: 0x0, symBinAddr: 0x66210, symSize: 0x36 }
  - { offsetInCU: 0x10F, offset: 0x1EEED1, size: 0x8, addend: 0x0, symName: '__ZN42_$LT$$RF$T$u20$as$u20$core..fmt..Debug$GT$3fmt17h81ae85195ef74cadE', symObjAddr: 0x0, symBinAddr: 0x66210, symSize: 0x36 }
  - { offsetInCU: 0x1E, offset: 0x1EF0E0, size: 0x8, addend: 0x0, symName: '__ZN86_$LT$quote..__private..IdentFragmentAdapter$LT$T$GT$$u20$as$u20$core..fmt..Display$GT$3fmt17hc2e2e05d2240213fE', symObjAddr: 0x0, symBinAddr: 0x66250, symSize: 0xD }
  - { offsetInCU: 0x77, offset: 0x1EF139, size: 0x8, addend: 0x0, symName: '__ZN86_$LT$quote..__private..IdentFragmentAdapter$LT$T$GT$$u20$as$u20$core..fmt..Display$GT$3fmt17hc2e2e05d2240213fE', symObjAddr: 0x0, symBinAddr: 0x66250, symSize: 0xD }
  - { offsetInCU: 0xB1, offset: 0x1EF613, size: 0x8, addend: 0x0, symName: '__ZN58_$LT$alloc..string..String$u20$as$u20$core..fmt..Write$GT$10write_char17h04bc467bd68a934bE', symObjAddr: 0xC7F0, symBinAddr: 0x724D0, symSize: 0x140 }
  - { offsetInCU: 0x4B6, offset: 0x1EFA18, size: 0x8, addend: 0x0, symName: '__ZN58_$LT$alloc..string..String$u20$as$u20$core..fmt..Write$GT$9write_str17h46a93205c3443fbaE', symObjAddr: 0xC930, symBinAddr: 0x72610, symSize: 0x60 }
  - { offsetInCU: 0x500F, offset: 0x1F4571, size: 0x8, addend: 0x0, symName: '__ZN4core3ptr100drop_in_place$LT$$LP$syn..data..Visibility$C$core..option..Option$LT$syn..token..Default$GT$$RP$$GT$17hf4681ce2d035d32cE', symObjAddr: 0x5B0, symBinAddr: 0x665E0, symSize: 0x60 }
  - { offsetInCU: 0x51AD, offset: 0x1F470F, size: 0x8, addend: 0x0, symName: '__ZN4core3ptr100drop_in_place$LT$core..option..Option$LT$alloc..boxed..Box$LT$syn..generics..LifetimeDef$GT$$GT$$GT$17h75a6086997697dd7E', symObjAddr: 0x610, symBinAddr: 0x66640, symSize: 0x50 }
  - { offsetInCU: 0x532F, offset: 0x1F4891, size: 0x8, addend: 0x0, symName: '__ZN4core3ptr100drop_in_place$LT$core..option..Option$LT$alloc..boxed..Box$LT$syn..path..GenericArgument$GT$$GT$$GT$17h3d29ec00a8f1918dE', symObjAddr: 0x660, symBinAddr: 0x66690, symSize: 0x50 }
  - { offsetInCU: 0x5597, offset: 0x1F4AF9, size: 0x8, addend: 0x0, symName: '__ZN4core3ptr101drop_in_place$LT$core..option..Option$LT$alloc..boxed..Box$LT$syn..generics..GenericParam$GT$$GT$$GT$17h1fee4f1c7bd902c4E', symObjAddr: 0x6B0, symBinAddr: 0x666E0, symSize: 0x310 }
  - { offsetInCU: 0x5F94, offset: 0x1F54F6, size: 0x8, addend: 0x0, symName: '__ZN4core3ptr103drop_in_place$LT$core..option..Option$LT$alloc..boxed..Box$LT$syn..generics..TypeParamBound$GT$$GT$$GT$17h6cee73bc2b2ecea8E', symObjAddr: 0x9C0, symBinAddr: 0x669F0, symSize: 0x90 }
  - { offsetInCU: 0x62CB, offset: 0x1F582D, size: 0x8, addend: 0x0, symName: '__ZN4core3ptr103drop_in_place$LT$core..option..Option$LT$alloc..boxed..Box$LT$syn..generics..WherePredicate$GT$$GT$$GT$17headad361972eced7E', symObjAddr: 0xA50, symBinAddr: 0x66A80, symSize: 0x120 }
  - { offsetInCU: 0x65E5, offset: 0x1F5B47, size: 0x8, addend: 0x0, symName: '__ZN4core3ptr103drop_in_place$LT$syn..punctuated..Punctuated$LT$syn..generics..GenericParam$C$syn..token..Comma$GT$$GT$17hae00367f0c570156E', symObjAddr: 0xB70, symBinAddr: 0x66BA0, symSize: 0x70 }
  - { offsetInCU: 0x6900, offset: 0x1F5E62, size: 0x8, addend: 0x0, symName: '__ZN4core3ptr103drop_in_place$LT$syn..punctuated..Punctuated$LT$syn..generics..TypeParamBound$C$syn..token..Add$GT$$GT$17he811d520c92af08aE', symObjAddr: 0xBE0, symBinAddr: 0x66C10, symSize: 0x1C0 }
  - { offsetInCU: 0x7151, offset: 0x1F66B3, size: 0x8, addend: 0x0, symName: '__ZN4core3ptr108drop_in_place$LT$syn..punctuated..Punctuated$LT$syn..expr..GenericMethodArgument$C$syn..token..Comma$GT$$GT$17h92cbabe4862b2183E', symObjAddr: 0xDA0, symBinAddr: 0x66DD0, symSize: 0x150 }
  - { offsetInCU: 0x764D, offset: 0x1F6BAF, size: 0x8, addend: 0x0, symName: '__ZN4core3ptr115drop_in_place$LT$core..option..Option$LT$$LP$syn..token..Brace$C$alloc..vec..Vec$LT$syn..item..Item$GT$$RP$$GT$$GT$17hab9d60ee568bdf60E', symObjAddr: 0xEF0, symBinAddr: 0x66F20, symSize: 0xD0 }
  - { offsetInCU: 0x7964, offset: 0x1F6EC6, size: 0x8, addend: 0x0, symName: '__ZN4core3ptr126drop_in_place$LT$core..option..Option$LT$$LP$syn..token..And$C$core..option..Option$LT$syn..lifetime..Lifetime$GT$$RP$$GT$$GT$17h5979d670cb45416cE', symObjAddr: 0xFC0, symBinAddr: 0x66FF0, symSize: 0x30 }
  - { offsetInCU: 0x7C12, offset: 0x1F7174, size: 0x8, addend: 0x0, symName: '__ZN4core3ptr34drop_in_place$LT$syn..lit..Lit$GT$17hbe1efe749a08dd9aE', symObjAddr: 0x1070, symBinAddr: 0x67020, symSize: 0x110 }
  - { offsetInCU: 0x8065, offset: 0x1F75C7, size: 0x8, addend: 0x0, symName: '__ZN4core3ptr34drop_in_place$LT$syn..pat..Pat$GT$17h3201f642e43ac2a2E', symObjAddr: 0x1180, symBinAddr: 0x67130, symSize: 0xFA0 }
  - { offsetInCU: 0xB61A, offset: 0x1FAB7C, size: 0x8, addend: 0x0, symName: '__ZN4core3ptr34drop_in_place$LT$syn..ty..Type$GT$17hfb5d159a08190130E', symObjAddr: 0x2120, symBinAddr: 0x680D0, symSize: 0x4B0 }
  - { offsetInCU: 0xCC51, offset: 0x1FC1B3, size: 0x8, addend: 0x0, symName: '__ZN4core3ptr36drop_in_place$LT$syn..expr..Expr$GT$17hf1921d1b09462bc3E', symObjAddr: 0x25D0, symBinAddr: 0x68580, symSize: 0x3110 }
  - { offsetInCU: 0x16ED8, offset: 0x20643A, size: 0x8, addend: 0x0, symName: '__ZN4core3ptr36drop_in_place$LT$syn..item..Item$GT$17hf1fe4e69bb0a9b43E', symObjAddr: 0x56E0, symBinAddr: 0x6B690, symSize: 0x120 }
  - { offsetInCU: 0x16F27, offset: 0x206489, size: 0x8, addend: 0x0, symName: '__ZN4core3ptr36drop_in_place$LT$syn..mac..Macro$GT$17h205613d7ad575f72E', symObjAddr: 0x5800, symBinAddr: 0x6B7B0, symSize: 0x100 }
  - { offsetInCU: 0x1734F, offset: 0x2068B1, size: 0x8, addend: 0x0, symName: '__ZN4core3ptr36drop_in_place$LT$syn..path..Path$GT$17he6d0bec66d66b98aE', symObjAddr: 0x5900, symBinAddr: 0x6B8B0, symSize: 0x230 }
  - { offsetInCU: 0x17CE5, offset: 0x207247, size: 0x8, addend: 0x0, symName: '__ZN4core3ptr37drop_in_place$LT$syn..stmt..Block$GT$17h3aa429e75a234230E', symObjAddr: 0x5B30, symBinAddr: 0x6BAE0, symSize: 0xD0 }
  - { offsetInCU: 0x18057, offset: 0x2075B9, size: 0x8, addend: 0x0, symName: '__ZN4core3ptr38drop_in_place$LT$syn..data..Fields$GT$17h0c48fa2402a42137E', symObjAddr: 0x5C00, symBinAddr: 0x6BBB0, symSize: 0x180 }
  - { offsetInCU: 0x1849D, offset: 0x2079FF, size: 0x8, addend: 0x0, symName: '__ZN4core3ptr38drop_in_place$LT$syn..expr..Member$GT$17ha113d37a67d27aafE', symObjAddr: 0x5D80, symBinAddr: 0x6BD30, symSize: 0x30 }
  - { offsetInCU: 0x185B8, offset: 0x207B1A, size: 0x8, addend: 0x0, symName: '__ZN4core3ptr38drop_in_place$LT$syn..item..ItemFn$GT$17h92bc8390e1d02672E', symObjAddr: 0x5DB0, symBinAddr: 0x6BD60, symSize: 0x230 }
  - { offsetInCU: 0x18E58, offset: 0x2083BA, size: 0x8, addend: 0x0, symName: '__ZN4core3ptr38drop_in_place$LT$syn..pat..PatType$GT$17h833e3c7992399b01E.llvm.2762174853176263616', symObjAddr: 0x5FE0, symBinAddr: 0x6BF90, symSize: 0x160 }
  - { offsetInCU: 0x19520, offset: 0x208A82, size: 0x8, addend: 0x0, symName: '__ZN4core3ptr39drop_in_place$LT$proc_macro2..Group$GT$17ha95b199d42755248E', symObjAddr: 0x6140, symBinAddr: 0x6C0F0, symSize: 0x60 }
  - { offsetInCU: 0x1967F, offset: 0x208BE1, size: 0x8, addend: 0x0, symName: '__ZN4core3ptr39drop_in_place$LT$proc_macro2..Ident$GT$17hdeec010483268a0dE', symObjAddr: 0x61A0, symBinAddr: 0x6C150, symSize: 0x30 }
  - { offsetInCU: 0x1977B, offset: 0x208CDD, size: 0x8, addend: 0x0, symName: '__ZN4core3ptr39drop_in_place$LT$syn..item..ItemMod$GT$17hd095082f1c98971dE', symObjAddr: 0x61D0, symBinAddr: 0x6C180, symSize: 0x210 }
  - { offsetInCU: 0x19FB4, offset: 0x209516, size: 0x8, addend: 0x0, symName: '__ZN4core3ptr39drop_in_place$LT$syn..item..ItemUse$GT$17hfee3fd59e1327e89E', symObjAddr: 0x63E0, symBinAddr: 0x6C390, symSize: 0x150 }
  - { offsetInCU: 0x1A4B5, offset: 0x209A17, size: 0x8, addend: 0x0, symName: '__ZN4core3ptr39drop_in_place$LT$syn..item..UseTree$GT$17h78d4ed19b48b8cbfE', symObjAddr: 0x65A0, symBinAddr: 0x6C4E0, symSize: 0xE0 }
  - { offsetInCU: 0x1A85C, offset: 0x209DBE, size: 0x8, addend: 0x0, symName: '__ZN4core3ptr39drop_in_place$LT$syn..pat..PatTuple$GT$17h96faeea9832d4c4bE', symObjAddr: 0x6680, symBinAddr: 0x6C5C0, symSize: 0x100 }
  - { offsetInCU: 0x1AB84, offset: 0x20A0E6, size: 0x8, addend: 0x0, symName: '__ZN4core3ptr40drop_in_place$LT$syn..item..ImplItem$GT$17hb8d8f44c0f04c0e3E', symObjAddr: 0x6780, symBinAddr: 0x6C6C0, symSize: 0x1B0 }
  - { offsetInCU: 0x1AF01, offset: 0x20A463, size: 0x8, addend: 0x0, symName: '__ZN4core3ptr40drop_in_place$LT$syn..item..ItemEnum$GT$17hc99b161df783a633E', symObjAddr: 0x6930, symBinAddr: 0x6C870, symSize: 0x250 }
  - { offsetInCU: 0x1B7D0, offset: 0x20AD32, size: 0x8, addend: 0x0, symName: '__ZN4core3ptr40drop_in_place$LT$syn..item..ItemImpl$GT$17haba540031ec64537E', symObjAddr: 0x6B80, symBinAddr: 0x6CAC0, symSize: 0x1E0 }
  - { offsetInCU: 0x1BF60, offset: 0x20B4C2, size: 0x8, addend: 0x0, symName: '__ZN4core3ptr40drop_in_place$LT$syn..item..ItemType$GT$17hf26044957f69ac44E', symObjAddr: 0x6D60, symBinAddr: 0x6CCA0, symSize: 0x1C0 }
  - { offsetInCU: 0x1C638, offset: 0x20BB9A, size: 0x8, addend: 0x0, symName: '__ZN4core3ptr40drop_in_place$LT$syn..item..Receiver$GT$17hc8a432a931462f79E.llvm.2762174853176263616', symObjAddr: 0x6F20, symBinAddr: 0x6CE60, symSize: 0x120 }
  - { offsetInCU: 0x1CAAF, offset: 0x20C011, size: 0x8, addend: 0x0, symName: '__ZN4core3ptr40drop_in_place$LT$syn..ty..ReturnType$GT$17h6f97c9fdb958983eE', symObjAddr: 0x7050, symBinAddr: 0x6CF80, symSize: 0x50 }
  - { offsetInCU: 0x1CC1F, offset: 0x20C181, size: 0x8, addend: 0x0, symName: '__ZN4core3ptr41drop_in_place$LT$syn..item..ItemConst$GT$17hf37a2991989c7e8eE', symObjAddr: 0x70A0, symBinAddr: 0x6CFD0, symSize: 0x1E0 }
  - { offsetInCU: 0x1D442, offset: 0x20C9A4, size: 0x8, addend: 0x0, symName: '__ZN4core3ptr41drop_in_place$LT$syn..item..ItemMacro$GT$17h4cf9ca59f66b14edE', symObjAddr: 0x7280, symBinAddr: 0x6D1B0, symSize: 0x120 }
  - { offsetInCU: 0x1D880, offset: 0x20CDE2, size: 0x8, addend: 0x0, symName: '__ZN4core3ptr41drop_in_place$LT$syn..item..ItemTrait$GT$17h2de0174f2f014913E', symObjAddr: 0x73A0, symBinAddr: 0x6D2D0, symSize: 0x220 }
  - { offsetInCU: 0x1E0A5, offset: 0x20D607, size: 0x8, addend: 0x0, symName: '__ZN4core3ptr41drop_in_place$LT$syn..item..ItemUnion$GT$17h03d15eff3b9ef21aE', symObjAddr: 0x75C0, symBinAddr: 0x6D4F0, symSize: 0x250 }
  - { offsetInCU: 0x1E92E, offset: 0x20DE90, size: 0x8, addend: 0x0, symName: '__ZN4core3ptr41drop_in_place$LT$syn..item..Signature$GT$17hd57cfba25994ce69E', symObjAddr: 0x7810, symBinAddr: 0x6D740, symSize: 0x210 }
  - { offsetInCU: 0x1F208, offset: 0x20E76A, size: 0x8, addend: 0x0, symName: '__ZN4core3ptr41drop_in_place$LT$syn..item..TraitItem$GT$17h4b7d90364e3eddf8E', symObjAddr: 0x7A20, symBinAddr: 0x6D950, symSize: 0x1B0 }
  - { offsetInCU: 0x1F528, offset: 0x20EA8A, size: 0x8, addend: 0x0, symName: '__ZN4core3ptr42drop_in_place$LT$alloc..string..String$GT$17hef974c60cd9900dbE', symObjAddr: 0x7C20, symBinAddr: 0x6DB00, symSize: 0x20 }
  - { offsetInCU: 0x1F630, offset: 0x20EB92, size: 0x8, addend: 0x0, symName: '__ZN4core3ptr42drop_in_place$LT$syn..data..Visibility$GT$17h27e8b6ad307fcbc7E', symObjAddr: 0x7C40, symBinAddr: 0x6DB20, symSize: 0x60 }
  - { offsetInCU: 0x1F7A5, offset: 0x20ED07, size: 0x8, addend: 0x0, symName: '__ZN4core3ptr42drop_in_place$LT$syn..item..ItemMacro2$GT$17h642967b8eb4a8104E', symObjAddr: 0x7CA0, symBinAddr: 0x6DB80, symSize: 0x170 }
  - { offsetInCU: 0x1FCEE, offset: 0x20F250, size: 0x8, addend: 0x0, symName: '__ZN4core3ptr42drop_in_place$LT$syn..item..ItemStatic$GT$17hc6b586b851814ed2E', symObjAddr: 0x7E10, symBinAddr: 0x6DCF0, symSize: 0x1E0 }
  - { offsetInCU: 0x204F2, offset: 0x20FA54, size: 0x8, addend: 0x0, symName: '__ZN4core3ptr42drop_in_place$LT$syn..item..ItemStruct$GT$17h3f822312b443c40dE', symObjAddr: 0x7FF0, symBinAddr: 0x6DED0, symSize: 0x190 }
  - { offsetInCU: 0x20A62, offset: 0x20FFC4, size: 0x8, addend: 0x0, symName: '__ZN4core3ptr43drop_in_place$LT$syn..data..FieldsNamed$GT$17h73293dd81bcfeab6E', symObjAddr: 0x8180, symBinAddr: 0x6E060, symSize: 0xE0 }
  - { offsetInCU: 0x20DA3, offset: 0x210305, size: 0x8, addend: 0x0, symName: '__ZN4core3ptr43drop_in_place$LT$syn..item..ForeignItem$GT$17h21c815f2fbdfe296E', symObjAddr: 0x8260, symBinAddr: 0x6E140, symSize: 0x1A0 }
  - { offsetInCU: 0x210E2, offset: 0x210644, size: 0x8, addend: 0x0, symName: '__ZN4core3ptr44drop_in_place$LT$syn..generics..Generics$GT$17he0d6eb6045503c84E', symObjAddr: 0x8400, symBinAddr: 0x6E2E0, symSize: 0xA0 }
  - { offsetInCU: 0x2134E, offset: 0x2108B0, size: 0x8, addend: 0x0, symName: '__ZN4core3ptr44drop_in_place$LT$syn..item..ImplItemType$GT$17hfa117ac59836f12aE', symObjAddr: 0x84A0, symBinAddr: 0x6E380, symSize: 0x190 }
  - { offsetInCU: 0x21897, offset: 0x210DF9, size: 0x8, addend: 0x0, symName: '__ZN4core3ptr44drop_in_place$LT$syn..lifetime..Lifetime$GT$17h3858225df033648aE', symObjAddr: 0x8630, symBinAddr: 0x6E510, symSize: 0x30 }
  - { offsetInCU: 0x21A0F, offset: 0x210F71, size: 0x8, addend: 0x0, symName: '__ZN4core3ptr44drop_in_place$LT$syn..parse..ParseBuffer$GT$17h19c266fcccc430cbE', symObjAddr: 0x8660, symBinAddr: 0x6E540, symSize: 0x70 }
  - { offsetInCU: 0x21D8B, offset: 0x2112ED, size: 0x8, addend: 0x0, symName: '__ZN4core3ptr45drop_in_place$LT$proc_macro2..TokenStream$GT$17h2507cb30e765dc85E', symObjAddr: 0x86D0, symBinAddr: 0x6E5B0, symSize: 0x140 }
  - { offsetInCU: 0x221E7, offset: 0x211749, size: 0x8, addend: 0x0, symName: '__ZN4core3ptr45drop_in_place$LT$syn..item..ForeignItemFn$GT$17hac464df7ca671242E', symObjAddr: 0x8810, symBinAddr: 0x6E6F0, symSize: 0x160 }
  - { offsetInCU: 0x2267B, offset: 0x211BDD, size: 0x8, addend: 0x0, symName: '__ZN4core3ptr45drop_in_place$LT$syn..item..ImplItemConst$GT$17hcd481022683c9056E', symObjAddr: 0x8970, symBinAddr: 0x6E850, symSize: 0x1A0 }
  - { offsetInCU: 0x22C02, offset: 0x212164, size: 0x8, addend: 0x0, symName: '__ZN4core3ptr45drop_in_place$LT$syn..item..TraitItemType$GT$17hff73dc4d6b73b6f1E', symObjAddr: 0x8C10, symBinAddr: 0x6E9F0, symSize: 0x190 }
  - { offsetInCU: 0x23042, offset: 0x2125A4, size: 0x8, addend: 0x0, symName: '__ZN4core3ptr46drop_in_place$LT$syn..item..ImplItemMethod$GT$17h81d5acf604d84d52E', symObjAddr: 0x8DA0, symBinAddr: 0x6EB80, symSize: 0x230 }
  - { offsetInCU: 0x237EE, offset: 0x212D50, size: 0x8, addend: 0x0, symName: '__ZN4core3ptr46drop_in_place$LT$syn..item..ItemForeignMod$GT$17he0cb10e3a3005942E', symObjAddr: 0x8FD0, symBinAddr: 0x6EDB0, symSize: 0x1C0 }
  - { offsetInCU: 0x24113, offset: 0x213675, size: 0x8, addend: 0x0, symName: '__ZN4core3ptr46drop_in_place$LT$syn..item..ItemTraitAlias$GT$17h92af75cf6c1f4732E', symObjAddr: 0x9190, symBinAddr: 0x6EF70, symSize: 0x190 }
  - { offsetInCU: 0x246B7, offset: 0x213C19, size: 0x8, addend: 0x0, symName: '__ZN4core3ptr46drop_in_place$LT$syn..item..TraitItemConst$GT$17ha3f3e5595f870971E', symObjAddr: 0x9320, symBinAddr: 0x6F100, symSize: 0x170 }
  - { offsetInCU: 0x24AF7, offset: 0x214059, size: 0x8, addend: 0x0, symName: '__ZN4core3ptr47drop_in_place$LT$syn..generics..LifetimeDef$GT$17hd04bc9e6ed9dfb47E', symObjAddr: 0x9490, symBinAddr: 0x6F270, symSize: 0x120 }
  - { offsetInCU: 0x24F14, offset: 0x214476, size: 0x8, addend: 0x0, symName: '__ZN4core3ptr47drop_in_place$LT$syn..item..ForeignItemType$GT$17h1c4d82a7ec021a30E', symObjAddr: 0x95B0, symBinAddr: 0x6F390, symSize: 0x170 }
  - { offsetInCU: 0x254B6, offset: 0x214A18, size: 0x8, addend: 0x0, symName: '__ZN4core3ptr47drop_in_place$LT$syn..item..ItemExternCrate$GT$17h97b05889785eea32E', symObjAddr: 0x9720, symBinAddr: 0x6F500, symSize: 0x1A0 }
  - { offsetInCU: 0x25B56, offset: 0x2150B8, size: 0x8, addend: 0x0, symName: '__ZN4core3ptr47drop_in_place$LT$syn..item..TraitItemMethod$GT$17h21cb304020f3ba1eE', symObjAddr: 0x98C0, symBinAddr: 0x6F6A0, symSize: 0x1F0 }
  - { offsetInCU: 0x26194, offset: 0x2156F6, size: 0x8, addend: 0x0, symName: '__ZN4core3ptr47drop_in_place$LT$syn..path..GenericArgument$GT$17h8c0a0d8c6deaefb4E', symObjAddr: 0x9AB0, symBinAddr: 0x6F890, symSize: 0x110 }
  - { offsetInCU: 0x264AF, offset: 0x215A11, size: 0x8, addend: 0x0, symName: '__ZN4core3ptr49drop_in_place$LT$syn..item..ForeignItemStatic$GT$17hfe9f44f9dab5bcd1E', symObjAddr: 0x9BC0, symBinAddr: 0x6F9A0, symSize: 0x190 }
  - { offsetInCU: 0x26B66, offset: 0x2160C8, size: 0x8, addend: 0x0, symName: '__ZN4core3ptr58drop_in_place$LT$alloc..vec..Vec$LT$syn..expr..Arm$GT$$GT$17hf3db0825f3d9c861E', symObjAddr: 0x9D50, symBinAddr: 0x6FB30, symSize: 0xD0 }
  - { offsetInCU: 0x26E26, offset: 0x216388, size: 0x8, addend: 0x0, symName: '__ZN4core3ptr59drop_in_place$LT$alloc..boxed..Box$LT$syn..pat..Pat$GT$$GT$17h7037ce9bbd3729c6E', symObjAddr: 0x9E20, symBinAddr: 0x6FC00, symSize: 0x50 }
  - { offsetInCU: 0x26F7F, offset: 0x2164E1, size: 0x8, addend: 0x0, symName: '__ZN4core3ptr59drop_in_place$LT$alloc..boxed..Box$LT$syn..ty..Type$GT$$GT$17h2eccd13329dbe4faE', symObjAddr: 0x9E70, symBinAddr: 0x6FC50, symSize: 0x50 }
  - { offsetInCU: 0x270D8, offset: 0x21663A, size: 0x8, addend: 0x0, symName: '__ZN4core3ptr59drop_in_place$LT$alloc..vec..Vec$LT$syn..item..Item$GT$$GT$17h544d8e20d05b2f97E', symObjAddr: 0x9EC0, symBinAddr: 0x6FCA0, symSize: 0xD0 }
  - { offsetInCU: 0x27398, offset: 0x2168FA, size: 0x8, addend: 0x0, symName: '__ZN4core3ptr59drop_in_place$LT$alloc..vec..Vec$LT$syn..stmt..Stmt$GT$$GT$17hed4646381107e302E', symObjAddr: 0x9F90, symBinAddr: 0x6FD70, symSize: 0xD0 }
  - { offsetInCU: 0x27658, offset: 0x216BBA, size: 0x8, addend: 0x0, symName: '__ZN4core3ptr61drop_in_place$LT$alloc..boxed..Box$LT$syn..expr..Expr$GT$$GT$17h66094ddc89015516E', symObjAddr: 0xA060, symBinAddr: 0x6FE40, symSize: 0x50 }
  - { offsetInCU: 0x2782D, offset: 0x216D8F, size: 0x8, addend: 0x0, symName: '__ZN4core3ptr61drop_in_place$LT$syn..path..ParenthesizedGenericArguments$GT$17h21be9b1d7a6fab55E', symObjAddr: 0xA120, symBinAddr: 0x6FE90, symSize: 0x170 }
  - { offsetInCU: 0x27E23, offset: 0x217385, size: 0x8, addend: 0x0, symName: '__ZN4core3ptr62drop_in_place$LT$alloc..boxed..Box$LT$syn..stmt..Block$GT$$GT$17h0633c21446a415f4E', symObjAddr: 0xA290, symBinAddr: 0x70000, symSize: 0xE0 }
  - { offsetInCU: 0x28235, offset: 0x217797, size: 0x8, addend: 0x0, symName: '__ZN4core3ptr63drop_in_place$LT$alloc..boxed..Box$LT$syn..lit..LitRepr$GT$$GT$17h9c509b794406150eE', symObjAddr: 0xA370, symBinAddr: 0x700E0, symSize: 0x60 }
  - { offsetInCU: 0x284FE, offset: 0x217A60, size: 0x8, addend: 0x0, symName: '__ZN4core3ptr63drop_in_place$LT$alloc..vec..Vec$LT$syn..item..ImplItem$GT$$GT$17ha4d5b54edb0d5cb7E', symObjAddr: 0xA3D0, symBinAddr: 0x70140, symSize: 0x80 }
  - { offsetInCU: 0x287D5, offset: 0x217D37, size: 0x8, addend: 0x0, symName: '__ZN4core3ptr64drop_in_place$LT$alloc..boxed..Box$LT$syn..item..UseTree$GT$$GT$17h2fbb30105f88b737E', symObjAddr: 0xA450, symBinAddr: 0x701C0, symSize: 0x100 }
  - { offsetInCU: 0x28D22, offset: 0x218284, size: 0x8, addend: 0x0, symName: '__ZN4core3ptr64drop_in_place$LT$alloc..boxed..Box$LT$syn..pat..FieldPat$GT$$GT$17hb167b355d0d4733fE', symObjAddr: 0xA550, symBinAddr: 0x702C0, symSize: 0x180 }
  - { offsetInCU: 0x2943F, offset: 0x2189A1, size: 0x8, addend: 0x0, symName: '__ZN4core3ptr64drop_in_place$LT$alloc..boxed..Box$LT$syn..ty..BareFnArg$GT$$GT$17h6488be9448346678E', symObjAddr: 0xA6D0, symBinAddr: 0x70440, symSize: 0x160 }
  - { offsetInCU: 0x299D5, offset: 0x218F37, size: 0x8, addend: 0x0, symName: '__ZN4core3ptr64drop_in_place$LT$alloc..vec..Vec$LT$syn..attr..Attribute$GT$$GT$17h386324d8ea9bc309E.llvm.2762174853176263616', symObjAddr: 0xA830, symBinAddr: 0x705A0, symSize: 0xF0 }
  - { offsetInCU: 0x29CCB, offset: 0x21922D, size: 0x8, addend: 0x0, symName: '__ZN4core3ptr64drop_in_place$LT$alloc..vec..Vec$LT$syn..item..TraitItem$GT$$GT$17h0ef3c4b7ce592e9eE', symObjAddr: 0xA920, symBinAddr: 0x70690, symSize: 0x80 }
  - { offsetInCU: 0x29F83, offset: 0x2194E5, size: 0x8, addend: 0x0, symName: '__ZN4core3ptr65drop_in_place$LT$alloc..vec..Vec$LT$proc_macro..TokenTree$GT$$GT$17hc3670dd5608d5259E', symObjAddr: 0xA9A0, symBinAddr: 0x70710, symSize: 0x110 }
  - { offsetInCU: 0x2A37B, offset: 0x2198DD, size: 0x8, addend: 0x0, symName: '__ZN4core3ptr65drop_in_place$LT$core..option..Option$LT$syn..expr..Label$GT$$GT$17ha723640fd01bec5dE', symObjAddr: 0xAAB0, symBinAddr: 0x70820, symSize: 0x30 }
  - { offsetInCU: 0x2A4B5, offset: 0x219A17, size: 0x8, addend: 0x0, symName: '__ZN4core3ptr65drop_in_place$LT$core..option..Option$LT$syn..stmt..Block$GT$$GT$17hdff81fd7cb2986caE', symObjAddr: 0xAAE0, symBinAddr: 0x70850, symSize: 0xD0 }
  - { offsetInCU: 0x2A78A, offset: 0x219CEC, size: 0x8, addend: 0x0, symName: '__ZN4core3ptr66drop_in_place$LT$alloc..vec..Vec$LT$syn..item..ForeignItem$GT$$GT$17hc5d281d65e9f4398E', symObjAddr: 0xABB0, symBinAddr: 0x70920, symSize: 0x80 }
  - { offsetInCU: 0x2AA42, offset: 0x219FA4, size: 0x8, addend: 0x0, symName: '__ZN4core3ptr66drop_in_place$LT$core..option..Option$LT$syn..ty..Variadic$GT$$GT$17hc32134bb3933b0dfE', symObjAddr: 0xAC30, symBinAddr: 0x709A0, symSize: 0xF0 }
  - { offsetInCU: 0x2AD6C, offset: 0x21A2CE, size: 0x8, addend: 0x0, symName: '__ZN4core3ptr67drop_in_place$LT$alloc..boxed..Box$LT$syn..expr..FieldValue$GT$$GT$17h8df780aa600ea8c2E', symObjAddr: 0xAD20, symBinAddr: 0x70A90, symSize: 0x160 }
  - { offsetInCU: 0x2B2E2, offset: 0x21A844, size: 0x8, addend: 0x0, symName: '__ZN4core3ptr67drop_in_place$LT$core..option..Option$LT$proc_macro2..Ident$GT$$GT$17h67578850954384a1E', symObjAddr: 0xAE80, symBinAddr: 0x70BF0, symSize: 0x30 }
  - { offsetInCU: 0x2B3FD, offset: 0x21A95F, size: 0x8, addend: 0x0, symName: '__ZN4core3ptr68drop_in_place$LT$alloc..boxed..Box$LT$syn..path..PathSegment$GT$$GT$17h1957b54eed39c0bbE', symObjAddr: 0xAEB0, symBinAddr: 0x70C20, symSize: 0x190 }
  - { offsetInCU: 0x2BB26, offset: 0x21B088, size: 0x8, addend: 0x0, symName: '__ZN4core3ptr72drop_in_place$LT$alloc..boxed..Box$LT$syn..path..GenericArgument$GT$$GT$17ha8f8136d0c2b505bE', symObjAddr: 0xB040, symBinAddr: 0x70DB0, symSize: 0x180 }
  - { offsetInCU: 0x2C1C6, offset: 0x21B728, size: 0x8, addend: 0x0, symName: '__ZN4core3ptr72drop_in_place$LT$core..option..Option$LT$syn..lifetime..Lifetime$GT$$GT$17h31b55b93749c174dE', symObjAddr: 0xB1C0, symBinAddr: 0x70F30, symSize: 0x30 }
  - { offsetInCU: 0x2C2E1, offset: 0x21B843, size: 0x8, addend: 0x0, symName: '__ZN4core3ptr75drop_in_place$LT$alloc..boxed..Box$LT$syn..generics..TypeParamBound$GT$$GT$17h8f156ce07ea0b8b2E', symObjAddr: 0xB1F0, symBinAddr: 0x70F60, symSize: 0x140 }
  - { offsetInCU: 0x2C8B8, offset: 0x21BE1A, size: 0x8, addend: 0x0, symName: '__ZN4core3ptr75drop_in_place$LT$core..option..Option$LT$syn..generics..WhereClause$GT$$GT$17h9a6b9b305741da86E', symObjAddr: 0xB330, symBinAddr: 0x710A0, symSize: 0xF0 }
  - { offsetInCU: 0x2CBDA, offset: 0x21C13C, size: 0x8, addend: 0x0, symName: '__ZN4core3ptr78drop_in_place$LT$alloc..boxed..Box$LT$syn..expr..GenericMethodArgument$GT$$GT$17h3384c00b5bd54c2aE', symObjAddr: 0xB420, symBinAddr: 0x71190, symSize: 0x60 }
  - { offsetInCU: 0x2CDEB, offset: 0x21C34D, size: 0x8, addend: 0x0, symName: '__ZN4core3ptr78drop_in_place$LT$core..option..Option$LT$syn..generics..BoundLifetimes$GT$$GT$17h8175e66ad0c4a156E', symObjAddr: 0xB480, symBinAddr: 0x711F0, symSize: 0x120 }
  - { offsetInCU: 0x2D2B0, offset: 0x21C812, size: 0x8, addend: 0x0, symName: '__ZN4core3ptr86drop_in_place$LT$syn..punctuated..Punctuated$LT$syn..pat..Pat$C$syn..token..Or$GT$$GT$17h1078c5d178d382b7E', symObjAddr: 0xB5A0, symBinAddr: 0x71310, symSize: 0x120 }
  - { offsetInCU: 0x2D72B, offset: 0x21CC8D, size: 0x8, addend: 0x0, symName: '__ZN4core3ptr87drop_in_place$LT$core..option..Option$LT$alloc..boxed..Box$LT$syn..pat..Pat$GT$$GT$$GT$17ha7f5fe0e6f73e820E', symObjAddr: 0xB6E0, symBinAddr: 0x71430, symSize: 0x50 }
  - { offsetInCU: 0x2D89B, offset: 0x21CDFD, size: 0x8, addend: 0x0, symName: '__ZN4core3ptr87drop_in_place$LT$core..option..Option$LT$alloc..boxed..Box$LT$syn..ty..Type$GT$$GT$$GT$17hc8292da82d129de3E', symObjAddr: 0xB730, symBinAddr: 0x71480, symSize: 0x50 }
  - { offsetInCU: 0x2DA0B, offset: 0x21CF6D, size: 0x8, addend: 0x0, symName: '__ZN4core3ptr89drop_in_place$LT$core..option..Option$LT$alloc..boxed..Box$LT$syn..expr..Expr$GT$$GT$$GT$17hdc211ccd33f196f2E', symObjAddr: 0xB7A0, symBinAddr: 0x714D0, symSize: 0x50 }
  - { offsetInCU: 0x2DBB9, offset: 0x21D11B, size: 0x8, addend: 0x0, symName: '__ZN4core3ptr89drop_in_place$LT$syn..punctuated..Punctuated$LT$syn..pat..Pat$C$syn..token..Comma$GT$$GT$17hf8371102b0500adcE', symObjAddr: 0xB7F0, symBinAddr: 0x71520, symSize: 0x120 }
  - { offsetInCU: 0x2E04B, offset: 0x21D5AD, size: 0x8, addend: 0x0, symName: '__ZN4core3ptr89drop_in_place$LT$syn..punctuated..Punctuated$LT$syn..ty..Type$C$syn..token..Comma$GT$$GT$17h1c6e43341fabea97E', symObjAddr: 0xB910, symBinAddr: 0x71640, symSize: 0x120 }
  - { offsetInCU: 0x2E504, offset: 0x21DA66, size: 0x8, addend: 0x0, symName: '__ZN4core3ptr90drop_in_place$LT$core..option..Option$LT$alloc..boxed..Box$LT$syn..data..Field$GT$$GT$$GT$17he146e9f4e32c136fE', symObjAddr: 0xBA30, symBinAddr: 0x71760, symSize: 0x1C0 }
  - { offsetInCU: 0x2EC08, offset: 0x21E16A, size: 0x8, addend: 0x0, symName: '__ZN4core3ptr90drop_in_place$LT$core..option..Option$LT$alloc..boxed..Box$LT$syn..item..FnArg$GT$$GT$$GT$17ha72e545cf6ea6548E', symObjAddr: 0xBBF0, symBinAddr: 0x71920, symSize: 0x70 }
  - { offsetInCU: 0x2EDC0, offset: 0x21E322, size: 0x8, addend: 0x0, symName: '__ZN4core3ptr91drop_in_place$LT$syn..punctuated..Punctuated$LT$syn..expr..Expr$C$syn..token..Comma$GT$$GT$17hd2dfeb0c522d9a18E', symObjAddr: 0xBC60, symBinAddr: 0x71990, symSize: 0x120 }
  - { offsetInCU: 0x2F24E, offset: 0x21E7B0, size: 0x8, addend: 0x0, symName: '__ZN4core3ptr92drop_in_place$LT$core..option..Option$LT$$LP$syn..token..As$C$proc_macro2..Ident$RP$$GT$$GT$17hdb8e08992a006501E', symObjAddr: 0xBD80, symBinAddr: 0x71AB0, symSize: 0x30 }
  - { offsetInCU: 0x2F3A7, offset: 0x21E909, size: 0x8, addend: 0x0, symName: '__ZN4core3ptr92drop_in_place$LT$core..option..Option$LT$alloc..boxed..Box$LT$syn..data..Variant$GT$$GT$$GT$17h9c9c8f3c1dc56a70E', symObjAddr: 0xBDB0, symBinAddr: 0x71AE0, symSize: 0x1A0 }
  - { offsetInCU: 0x2F9CB, offset: 0x21EF2D, size: 0x8, addend: 0x0, symName: '__ZN4core3ptr92drop_in_place$LT$syn..punctuated..Punctuated$LT$syn..item..FnArg$C$syn..token..Comma$GT$$GT$17h3049a14d789de61dE', symObjAddr: 0xBF50, symBinAddr: 0x71C80, symSize: 0x140 }
  - { offsetInCU: 0x2FE48, offset: 0x21F3AA, size: 0x8, addend: 0x0, symName: '__ZN4core3ptr94drop_in_place$LT$syn..punctuated..Punctuated$LT$syn..data..Variant$C$syn..token..Comma$GT$$GT$17hb4480d65f74dc9d7E', symObjAddr: 0xC090, symBinAddr: 0x71DC0, symSize: 0xE0 }
  - { offsetInCU: 0x301A8, offset: 0x21F70A, size: 0x8, addend: 0x0, symName: '__ZN4core3ptr94drop_in_place$LT$syn..punctuated..Punctuated$LT$syn..item..UseTree$C$syn..token..Comma$GT$$GT$17ha837d38586774c87E', symObjAddr: 0xC170, symBinAddr: 0x71EA0, symSize: 0xF0 }
  - { offsetInCU: 0x304EA, offset: 0x21FA4C, size: 0x8, addend: 0x0, symName: '__ZN4core3ptr94drop_in_place$LT$syn..punctuated..Punctuated$LT$syn..pat..FieldPat$C$syn..token..Comma$GT$$GT$17h612cbc9066d5afb1E', symObjAddr: 0xC260, symBinAddr: 0x71F90, symSize: 0xF0 }
  - { offsetInCU: 0x307E9, offset: 0x21FD4B, size: 0x8, addend: 0x0, symName: '__ZN4core3ptr94drop_in_place$LT$syn..punctuated..Punctuated$LT$syn..ty..BareFnArg$C$syn..token..Comma$GT$$GT$17ha9a668ce9972795bE', symObjAddr: 0xC350, symBinAddr: 0x72080, symSize: 0xF0 }
  - { offsetInCU: 0x30AE6, offset: 0x220048, size: 0x8, addend: 0x0, symName: '__ZN4core3ptr96drop_in_place$LT$core..option..Option$LT$alloc..boxed..Box$LT$syn..path..PathSegment$GT$$GT$$GT$17h2e81cbe3c70bb71cE', symObjAddr: 0xC440, symBinAddr: 0x72170, symSize: 0x180 }
  - { offsetInCU: 0x311A3, offset: 0x220705, size: 0x8, addend: 0x0, symName: '__ZN4core3ptr97drop_in_place$LT$syn..punctuated..Punctuated$LT$syn..expr..FieldValue$C$syn..token..Comma$GT$$GT$17h11a5fffb46adfb11E', symObjAddr: 0xC5C0, symBinAddr: 0x722F0, symSize: 0xF0 }
  - { offsetInCU: 0x3151C, offset: 0x220A7E, size: 0x8, addend: 0x0, symName: '__ZN4core3ptr97drop_in_place$LT$syn..punctuated..Punctuated$LT$syn..lifetime..Lifetime$C$syn..token..Add$GT$$GT$17h5c54dea2c838d109E', symObjAddr: 0xC6B0, symBinAddr: 0x723E0, symSize: 0xD0 }
  - { offsetInCU: 0x32280, offset: 0x2217E2, size: 0x8, addend: 0x0, symName: '__ZN53_$LT$core..fmt..Error$u20$as$u20$core..fmt..Debug$GT$3fmt17h03dc662ab152f3aeE', symObjAddr: 0xC7D0, symBinAddr: 0x724B0, symSize: 0x20 }
  - { offsetInCU: 0x39A3A, offset: 0x228F9C, size: 0x8, addend: 0x0, symName: '__ZN48_$LT$T$u20$as$u20$core..clone..CloneToUninit$GT$15clone_to_uninit17h1e72921f8281f1fbE', symObjAddr: 0x240, symBinAddr: 0x662B0, symSize: 0x330 }
  - { offsetInCU: 0x41607, offset: 0x230B69, size: 0x8, addend: 0x0, symName: '__ZN3syn4item7parsing63_$LT$impl$u20$syn..parse..Parse$u20$for$u20$syn..item..Item$GT$5parse17hd5092b6f019cd3c8E', symObjAddr: 0xD550, symBinAddr: 0x728A0, symSize: 0x48A0 }
  - { offsetInCU: 0x4F824, offset: 0x23ED86, size: 0x8, addend: 0x0, symName: '__ZN3syn4item7parsing68_$LT$impl$u20$syn..parse..Parse$u20$for$u20$syn..item..ItemMacro$GT$5parse17h31dd6e83a6883425E', symObjAddr: 0x11DF0, symBinAddr: 0x77140, symSize: 0x620 }
  - { offsetInCU: 0x502C7, offset: 0x23F829, size: 0x8, addend: 0x0, symName: '__ZN3syn4item7parsing69_$LT$impl$u20$syn..parse..Parse$u20$for$u20$syn..item..ItemMacro2$GT$5parse17hcf95eda47eb68e7aE', symObjAddr: 0x12410, symBinAddr: 0x77760, symSize: 0xC30 }
  - { offsetInCU: 0x520B0, offset: 0x241612, size: 0x8, addend: 0x0, symName: '__ZN3syn4item7parsing74_$LT$impl$u20$syn..parse..Parse$u20$for$u20$syn..item..ItemExternCrate$GT$5parse17hae0345cc168adf0eE', symObjAddr: 0x13040, symBinAddr: 0x78390, symSize: 0x930 }
  - { offsetInCU: 0x5341A, offset: 0x24297C, size: 0x8, addend: 0x0, symName: '__ZN3syn4item7parsing66_$LT$impl$u20$syn..parse..Parse$u20$for$u20$syn..item..ItemUse$GT$5parse17h5d348ec602c9bbe4E', symObjAddr: 0x13970, symBinAddr: 0x78CC0, symSize: 0x800 }
  - { offsetInCU: 0x53F19, offset: 0x24347B, size: 0x8, addend: 0x0, symName: '__ZN3syn4item7parsing66_$LT$impl$u20$syn..parse..Parse$u20$for$u20$syn..item..UseTree$GT$5parse17hf6a79245528f6b50E', symObjAddr: 0x14170, symBinAddr: 0x794C0, symSize: 0xA90 }
  - { offsetInCU: 0x56410, offset: 0x245972, size: 0x8, addend: 0x0, symName: '__ZN3syn4item7parsing68_$LT$impl$u20$syn..parse..Parse$u20$for$u20$syn..item..Signature$GT$5parse17h48c646b2b2858734E', symObjAddr: 0x16420, symBinAddr: 0x79F50, symSize: 0x9D0 }
  - { offsetInCU: 0x573FB, offset: 0x24695D, size: 0x8, addend: 0x0, symName: '__ZN3syn4item7parsing64_$LT$impl$u20$syn..parse..Parse$u20$for$u20$syn..item..FnArg$GT$5parse17h6d8e7150f511bd86E', symObjAddr: 0x17130, symBinAddr: 0x7A920, symSize: 0x710 }
  - { offsetInCU: 0x588F9, offset: 0x247E5B, size: 0x8, addend: 0x0, symName: '__ZN3syn4item7parsing67_$LT$impl$u20$syn..parse..Parse$u20$for$u20$syn..item..Receiver$GT$5parse17h7c57eea315a0342bE', symObjAddr: 0x17840, symBinAddr: 0x7B030, symSize: 0x420 }
  - { offsetInCU: 0x58F22, offset: 0x248484, size: 0x8, addend: 0x0, symName: '__ZN3syn4item7parsing66_$LT$impl$u20$syn..parse..Parse$u20$for$u20$syn..item..ItemMod$GT$5parse17h7fe32aa4c994dc9bE', symObjAddr: 0x17C60, symBinAddr: 0x7B450, symSize: 0xC90 }
  - { offsetInCU: 0x5ABAC, offset: 0x24A10E, size: 0x8, addend: 0x0, symName: '__ZN3syn4item7parsing73_$LT$impl$u20$syn..parse..Parse$u20$for$u20$syn..item..ItemForeignMod$GT$5parse17hcca74002a17b2fcbE', symObjAddr: 0x188F0, symBinAddr: 0x7C0E0, symSize: 0x670 }
  - { offsetInCU: 0x5C07C, offset: 0x24B5DE, size: 0x8, addend: 0x0, symName: '__ZN3syn4item7parsing70_$LT$impl$u20$syn..parse..Parse$u20$for$u20$syn..item..ForeignItem$GT$5parse17h24f40baa602f1278E', symObjAddr: 0x18F60, symBinAddr: 0x7C750, symSize: 0x1B10 }
  - { offsetInCU: 0x607B1, offset: 0x24FD13, size: 0x8, addend: 0x0, symName: '__ZN3syn4item7parsing69_$LT$impl$u20$syn..parse..Parse$u20$for$u20$syn..item..ItemStruct$GT$5parse17he3cfb27f1405a441E', symObjAddr: 0x1C9C0, symBinAddr: 0x7E260, symSize: 0x700 }
  - { offsetInCU: 0x612A9, offset: 0x25080B, size: 0x8, addend: 0x0, symName: '__ZN3syn4item7parsing67_$LT$impl$u20$syn..parse..Parse$u20$for$u20$syn..item..ItemEnum$GT$5parse17hb2912ec4b9be8655E', symObjAddr: 0x1D0C0, symBinAddr: 0x7E960, symSize: 0x700 }
  - { offsetInCU: 0x61DA6, offset: 0x251308, size: 0x8, addend: 0x0, symName: '__ZN3syn4item7parsing68_$LT$impl$u20$syn..parse..Parse$u20$for$u20$syn..item..ItemUnion$GT$5parse17hc3f05c1ec1b84162E', symObjAddr: 0x1D7C0, symBinAddr: 0x7F060, symSize: 0x700 }
  - { offsetInCU: 0x62894, offset: 0x251DF6, size: 0x8, addend: 0x0, symName: '__ZN3syn4item7parsing68_$LT$impl$u20$syn..parse..Parse$u20$for$u20$syn..item..ItemTrait$GT$5parse17h99b2153937d5d77aE', symObjAddr: 0x1DEC0, symBinAddr: 0x7F760, symSize: 0x640 }
  - { offsetInCU: 0x635C8, offset: 0x252B2A, size: 0x8, addend: 0x0, symName: '__ZN3syn4item7parsing68_$LT$impl$u20$syn..parse..Parse$u20$for$u20$syn..item..TraitItem$GT$5parse17h4e734d2779733d06E', symObjAddr: 0x1E650, symBinAddr: 0x7FDA0, symSize: 0x14D0 }
  - { offsetInCU: 0x68945, offset: 0x257EA7, size: 0x8, addend: 0x0, symName: '__ZN3syn4item7parsing73_$LT$impl$u20$syn..parse..Parse$u20$for$u20$syn..item..TraitItemConst$GT$5parse17h1b0135dfda89c9c6E', symObjAddr: 0x1FB20, symBinAddr: 0x81270, symSize: 0xAC0 }
  - { offsetInCU: 0x6A5A9, offset: 0x259B0B, size: 0x8, addend: 0x0, symName: '__ZN3syn4item7parsing74_$LT$impl$u20$syn..parse..Parse$u20$for$u20$syn..item..TraitItemMethod$GT$5parse17hc56523647cfaf282E', symObjAddr: 0x205E0, symBinAddr: 0x81D30, symSize: 0x7F0 }
  - { offsetInCU: 0x6BBF1, offset: 0x25B153, size: 0x8, addend: 0x0, symName: '__ZN3syn4item7parsing67_$LT$impl$u20$syn..parse..Parse$u20$for$u20$syn..item..ImplItem$GT$5parse17hd0abc4995f0e27e6E', symObjAddr: 0x218C0, symBinAddr: 0x82520, symSize: 0x1CE0 }
  - { offsetInCU: 0x717D6, offset: 0x260D38, size: 0x8, addend: 0x0, symName: '__ZN3syn4item7parsing73_$LT$impl$u20$syn..parse..Parse$u20$for$u20$syn..item..ImplItemMethod$GT$5parse17h40b89290a7d05ae0E', symObjAddr: 0x243E0, symBinAddr: 0x84200, symSize: 0x7B0 }
  - { offsetInCU: 0x72741, offset: 0x261CA3, size: 0x8, addend: 0x0, symName: '__ZN3syn4item7parsing72_$LT$impl$u20$syn..parse..Parse$u20$for$u20$syn..item..ImplItemMacro$GT$5parse17h684a98d429e3ccb0E', symObjAddr: 0x25480, symBinAddr: 0x849B0, symSize: 0x0 }
  - { offsetInCU: 0x72CC0, offset: 0x262222, size: 0x8, addend: 0x0, symName: '__ZN3syn4item8printing83_$LT$impl$u20$quote..to_tokens..ToTokens$u20$for$u20$syn..item..ItemExternCrate$GT$9to_tokens17h7f9bd73caf323e58E', symObjAddr: 0x257D0, symBinAddr: 0x84D00, symSize: 0x250 }
  - { offsetInCU: 0x732E2, offset: 0x262844, size: 0x8, addend: 0x0, symName: '__ZN3syn4item8printing78_$LT$impl$u20$quote..to_tokens..ToTokens$u20$for$u20$syn..item..ItemStatic$GT$9to_tokens17h08058ed00f2b3dddE', symObjAddr: 0x25BB0, symBinAddr: 0x84F50, symSize: 0x230 }
  - { offsetInCU: 0x73910, offset: 0x262E72, size: 0x8, addend: 0x0, symName: '__ZN3syn4item8printing75_$LT$impl$u20$quote..to_tokens..ToTokens$u20$for$u20$syn..item..ItemMod$GT$9to_tokens17hc86d6254ff17a890E', symObjAddr: 0x260B0, symBinAddr: 0x85180, symSize: 0x1D0 }
  - { offsetInCU: 0x73D70, offset: 0x2632D2, size: 0x8, addend: 0x0, symName: '__ZN3syn4item8printing76_$LT$impl$u20$quote..to_tokens..ToTokens$u20$for$u20$syn..item..ItemType$GT$9to_tokens17hb83cbc1a01934084E', symObjAddr: 0x263F0, symBinAddr: 0x85350, symSize: 0x1D0 }
  - { offsetInCU: 0x74192, offset: 0x2636F4, size: 0x8, addend: 0x0, symName: '__ZN3syn4item8printing76_$LT$impl$u20$quote..to_tokens..ToTokens$u20$for$u20$syn..item..ItemEnum$GT$9to_tokens17h842d495a33b205f9E', symObjAddr: 0x265C0, symBinAddr: 0x85520, symSize: 0x1A0 }
  - { offsetInCU: 0x7452C, offset: 0x263A8E, size: 0x8, addend: 0x0, symName: '__ZN3syn4item8printing78_$LT$impl$u20$quote..to_tokens..ToTokens$u20$for$u20$syn..item..ItemStruct$GT$9to_tokens17h10e0d38d73f156efE', symObjAddr: 0x26760, symBinAddr: 0x856C0, symSize: 0x230 }
  - { offsetInCU: 0x74A4B, offset: 0x263FAD, size: 0x8, addend: 0x0, symName: '__ZN3syn4item8printing77_$LT$impl$u20$quote..to_tokens..ToTokens$u20$for$u20$syn..item..ItemUnion$GT$9to_tokens17h21c08048e1f3d099E', symObjAddr: 0x26990, symBinAddr: 0x858F0, symSize: 0x1A0 }
  - { offsetInCU: 0x74E55, offset: 0x2643B7, size: 0x8, addend: 0x0, symName: '__ZN3syn4item8printing77_$LT$impl$u20$quote..to_tokens..ToTokens$u20$for$u20$syn..item..ItemTrait$GT$9to_tokens17h0ddcf38549076bc2E', symObjAddr: 0x26B30, symBinAddr: 0x85A90, symSize: 0x310 }
  - { offsetInCU: 0x75762, offset: 0x264CC4, size: 0x8, addend: 0x0, symName: '__ZN3syn4item8printing82_$LT$impl$u20$quote..to_tokens..ToTokens$u20$for$u20$syn..item..ItemTraitAlias$GT$9to_tokens17hf80e15e3335a9024E', symObjAddr: 0x26E40, symBinAddr: 0x85DA0, symSize: 0x1F0 }
  - { offsetInCU: 0x75D03, offset: 0x265265, size: 0x8, addend: 0x0, symName: '__ZN3syn4item8printing76_$LT$impl$u20$quote..to_tokens..ToTokens$u20$for$u20$syn..item..ItemImpl$GT$9to_tokens17h30df070e852a5931E', symObjAddr: 0x27030, symBinAddr: 0x85F90, symSize: 0x360 }
  - { offsetInCU: 0x76628, offset: 0x265B8A, size: 0x8, addend: 0x0, symName: '__ZN3syn4item8printing77_$LT$impl$u20$quote..to_tokens..ToTokens$u20$for$u20$syn..item..ItemMacro$GT$9to_tokens17h481af589de6f9dcbE', symObjAddr: 0x27390, symBinAddr: 0x862F0, symSize: 0x1D0 }
  - { offsetInCU: 0x76B87, offset: 0x2660E9, size: 0x8, addend: 0x0, symName: '__ZN3syn4item8printing82_$LT$impl$u20$quote..to_tokens..ToTokens$u20$for$u20$syn..item..TraitItemConst$GT$9to_tokens17h48ef6e80aa5ee690E', symObjAddr: 0x27820, symBinAddr: 0x864C0, symSize: 0x1E0 }
  - { offsetInCU: 0x76FE8, offset: 0x26654A, size: 0x8, addend: 0x0, symName: '__ZN3syn4item8printing81_$LT$impl$u20$quote..to_tokens..ToTokens$u20$for$u20$syn..item..TraitItemType$GT$9to_tokens17ha773e15de198d60bE', symObjAddr: 0x27B60, symBinAddr: 0x866A0, symSize: 0x290 }
  - { offsetInCU: 0x77684, offset: 0x266BE6, size: 0x8, addend: 0x0, symName: '__ZN3syn4item8printing81_$LT$impl$u20$quote..to_tokens..ToTokens$u20$for$u20$syn..item..ImplItemConst$GT$9to_tokens17h93720e24ccbf6f9aE', symObjAddr: 0x27DF0, symBinAddr: 0x86930, symSize: 0x250 }
  - { offsetInCU: 0x77BC8, offset: 0x26712A, size: 0x8, addend: 0x0, symName: '__ZN3syn4item8printing82_$LT$impl$u20$quote..to_tokens..ToTokens$u20$for$u20$syn..item..ImplItemMethod$GT$9to_tokens17h6dcd8d204ee3d041E', symObjAddr: 0x28040, symBinAddr: 0x86B80, symSize: 0x2C0 }
  - { offsetInCU: 0x784F3, offset: 0x267A55, size: 0x8, addend: 0x0, symName: '__ZN3syn4item8printing80_$LT$impl$u20$quote..to_tokens..ToTokens$u20$for$u20$syn..item..ImplItemType$GT$9to_tokens17h10f82f78812ca34bE', symObjAddr: 0x28300, symBinAddr: 0x86E40, symSize: 0x240 }
  - { offsetInCU: 0x78A8E, offset: 0x267FF0, size: 0x8, addend: 0x0, symName: '__ZN3syn4item8printing85_$LT$impl$u20$quote..to_tokens..ToTokens$u20$for$u20$syn..item..ForeignItemStatic$GT$9to_tokens17heca0d869ed2edd6aE', symObjAddr: 0x28760, symBinAddr: 0x87080, symSize: 0x210 }
  - { offsetInCU: 0x79016, offset: 0x268578, size: 0x8, addend: 0x0, symName: '__ZN3syn4item8printing77_$LT$impl$u20$quote..to_tokens..ToTokens$u20$for$u20$syn..item..Signature$GT$9to_tokens17hd3d401bd2710c1d3E', symObjAddr: 0x28AE0, symBinAddr: 0x87290, symSize: 0x340 }
  - { offsetInCU: 0x79818, offset: 0x268D7A, size: 0x8, addend: 0x0, symName: '__ZN3syn4item8printing76_$LT$impl$u20$quote..to_tokens..ToTokens$u20$for$u20$syn..item..Receiver$GT$9to_tokens17h7bfe4f0f0a2e4435E', symObjAddr: 0x28E20, symBinAddr: 0x875D0, symSize: 0x220 }
  - { offsetInCU: 0x79ECC, offset: 0x26942E, size: 0x8, addend: 0x0, symName: '__ZN62_$LT$syn..item..Item$u20$as$u20$quote..to_tokens..ToTokens$GT$9to_tokens17hcfb6fa0e89cea6efE', symObjAddr: 0x29040, symBinAddr: 0x877F0, symSize: 0x810 }
  - { offsetInCU: 0x7B211, offset: 0x26A773, size: 0x8, addend: 0x0, symName: '__ZN65_$LT$syn..item..UseTree$u20$as$u20$quote..to_tokens..ToTokens$GT$9to_tokens17h73b4f1c675b83d74E', symObjAddr: 0x29850, symBinAddr: 0x88000, symSize: 0x180 }
  - { offsetInCU: 0x7B52C, offset: 0x26AA8E, size: 0x8, addend: 0x0, symName: '__ZN69_$LT$syn..item..ForeignItem$u20$as$u20$quote..to_tokens..ToTokens$GT$9to_tokens17h5811b213ecf647c3E', symObjAddr: 0x299D0, symBinAddr: 0x88180, symSize: 0x350 }
  - { offsetInCU: 0x7BDFF, offset: 0x26B361, size: 0x8, addend: 0x0, symName: '__ZN67_$LT$syn..item..TraitItem$u20$as$u20$quote..to_tokens..ToTokens$GT$9to_tokens17he9bf5a11f5abb64eE', symObjAddr: 0x29D20, symBinAddr: 0x884D0, symSize: 0x2E0 }
  - { offsetInCU: 0x7C498, offset: 0x26B9FA, size: 0x8, addend: 0x0, symName: '__ZN66_$LT$syn..item..ImplItem$u20$as$u20$quote..to_tokens..ToTokens$GT$9to_tokens17hc241889665e48d04E', symObjAddr: 0x2A000, symBinAddr: 0x887B0, symSize: 0x1B0 }
  - { offsetInCU: 0x7CF3C, offset: 0x26C49E, size: 0x8, addend: 0x0, symName: '__ZN3syn3gen5clone67_$LT$impl$u20$core..clone..Clone$u20$for$u20$syn..item..UseTree$GT$5clone17h8f561418b2b5e44fE', symObjAddr: 0x2EE50, symBinAddr: 0x8CE30, symSize: 0x290 }
  - { offsetInCU: 0x7D847, offset: 0x26CDA9, size: 0x8, addend: 0x0, symName: '__ZN3syn3gen5clone65_$LT$impl$u20$core..clone..Clone$u20$for$u20$syn..item..FnArg$GT$5clone17h66f8181604bce7dcE', symObjAddr: 0x2A3F0, symBinAddr: 0x88960, symSize: 0x100 }
  - { offsetInCU: 0x7DAAC, offset: 0x26D00E, size: 0x8, addend: 0x0, symName: '__ZN3syn3gen5clone71_$LT$impl$u20$core..clone..Clone$u20$for$u20$syn..item..ForeignItem$GT$5clone17h70e70dae6a5d9f7fE', symObjAddr: 0x2A4F0, symBinAddr: 0x88A60, symSize: 0x290 }
  - { offsetInCU: 0x7DE27, offset: 0x26D389, size: 0x8, addend: 0x0, symName: '__ZN3syn3gen5clone77_$LT$impl$u20$core..clone..Clone$u20$for$u20$syn..item..ForeignItemStatic$GT$5clone17h3664278b73a68d1fE', symObjAddr: 0x2A860, symBinAddr: 0x88CF0, symSize: 0x1D0 }
  - { offsetInCU: 0x7E2C8, offset: 0x26D82A, size: 0x8, addend: 0x0, symName: '__ZN3syn3gen5clone75_$LT$impl$u20$core..clone..Clone$u20$for$u20$syn..item..ForeignItemType$GT$5clone17h0605ebd979d8e0f9E', symObjAddr: 0x2AA30, symBinAddr: 0x88EC0, symSize: 0xE0 }
  - { offsetInCU: 0x7E42E, offset: 0x26D990, size: 0x8, addend: 0x0, symName: '__ZN3syn3gen5clone68_$LT$impl$u20$core..clone..Clone$u20$for$u20$syn..item..ImplItem$GT$5clone17h9da0c001cb875335E', symObjAddr: 0x2AB10, symBinAddr: 0x88FA0, symSize: 0x1E0 }
  - { offsetInCU: 0x7E76F, offset: 0x26DCD1, size: 0x8, addend: 0x0, symName: '__ZN3syn3gen5clone73_$LT$impl$u20$core..clone..Clone$u20$for$u20$syn..item..ImplItemConst$GT$5clone17h6c1bdd3e9a111bc9E', symObjAddr: 0x2ACF0, symBinAddr: 0x89180, symSize: 0x200 }
  - { offsetInCU: 0x7EA25, offset: 0x26DF87, size: 0x8, addend: 0x0, symName: '__ZN3syn3gen5clone74_$LT$impl$u20$core..clone..Clone$u20$for$u20$syn..item..ImplItemMethod$GT$5clone17hc69c6508711c3562E', symObjAddr: 0x2AF80, symBinAddr: 0x89380, symSize: 0x160 }
  - { offsetInCU: 0x7EAB4, offset: 0x26E016, size: 0x8, addend: 0x0, symName: '__ZN3syn3gen5clone72_$LT$impl$u20$core..clone..Clone$u20$for$u20$syn..item..ImplItemType$GT$5clone17h11bf73316dc36436E', symObjAddr: 0x2B0E0, symBinAddr: 0x894E0, symSize: 0x330 }
  - { offsetInCU: 0x7EE67, offset: 0x26E3C9, size: 0x8, addend: 0x0, symName: '__ZN3syn3gen5clone64_$LT$impl$u20$core..clone..Clone$u20$for$u20$syn..item..Item$GT$5clone17hc6ebbc1fee216c73E', symObjAddr: 0x2B410, symBinAddr: 0x89810, symSize: 0x390 }
  - { offsetInCU: 0x7F3F9, offset: 0x26E95B, size: 0x8, addend: 0x0, symName: '__ZN3syn3gen5clone69_$LT$impl$u20$core..clone..Clone$u20$for$u20$syn..item..ItemConst$GT$5clone17he7f8218fcd09ece6E', symObjAddr: 0x2B7A0, symBinAddr: 0x89BA0, symSize: 0x260 }
  - { offsetInCU: 0x7FA9D, offset: 0x26EFFF, size: 0x8, addend: 0x0, symName: '__ZN3syn3gen5clone68_$LT$impl$u20$core..clone..Clone$u20$for$u20$syn..item..ItemEnum$GT$5clone17hf4df4a6f7e7b24e5E', symObjAddr: 0x2BA00, symBinAddr: 0x89E00, symSize: 0x300 }
  - { offsetInCU: 0x7FDCF, offset: 0x26F331, size: 0x8, addend: 0x0, symName: '__ZN3syn3gen5clone75_$LT$impl$u20$core..clone..Clone$u20$for$u20$syn..item..ItemExternCrate$GT$5clone17h627a0e79ce1fe893E', symObjAddr: 0x2BD00, symBinAddr: 0x8A100, symSize: 0x180 }
  - { offsetInCU: 0x800E4, offset: 0x26F646, size: 0x8, addend: 0x0, symName: '__ZN3syn3gen5clone66_$LT$impl$u20$core..clone..Clone$u20$for$u20$syn..item..ItemFn$GT$5clone17h940429ce1f3d8207E', symObjAddr: 0x2BE80, symBinAddr: 0x8A280, symSize: 0x180 }
  - { offsetInCU: 0x8037C, offset: 0x26F8DE, size: 0x8, addend: 0x0, symName: '__ZN3syn3gen5clone68_$LT$impl$u20$core..clone..Clone$u20$for$u20$syn..item..ItemImpl$GT$5clone17h99822f22f76475b6E', symObjAddr: 0x2C0D0, symBinAddr: 0x8A400, symSize: 0x460 }
  - { offsetInCU: 0x8087D, offset: 0x26FDDF, size: 0x8, addend: 0x0, symName: '__ZN3syn3gen5clone69_$LT$impl$u20$core..clone..Clone$u20$for$u20$syn..item..ItemMacro$GT$5clone17h65b79b89ccdb0674E', symObjAddr: 0x2C530, symBinAddr: 0x8A860, symSize: 0x110 }
  - { offsetInCU: 0x80AB9, offset: 0x27001B, size: 0x8, addend: 0x0, symName: '__ZN3syn3gen5clone70_$LT$impl$u20$core..clone..Clone$u20$for$u20$syn..item..ItemMacro2$GT$5clone17h991c2df9fefed252E', symObjAddr: 0x2C640, symBinAddr: 0x8A970, symSize: 0x1A0 }
  - { offsetInCU: 0x80EC2, offset: 0x270424, size: 0x8, addend: 0x0, symName: '__ZN3syn3gen5clone67_$LT$impl$u20$core..clone..Clone$u20$for$u20$syn..item..ItemMod$GT$5clone17h56cf528e17dd7490E', symObjAddr: 0x2C7E0, symBinAddr: 0x8AB10, symSize: 0x160 }
  - { offsetInCU: 0x8113C, offset: 0x27069E, size: 0x8, addend: 0x0, symName: '__ZN3syn3gen5clone70_$LT$impl$u20$core..clone..Clone$u20$for$u20$syn..item..ItemStatic$GT$5clone17hdf091bb88ac38b47E', symObjAddr: 0x2C940, symBinAddr: 0x8AC70, symSize: 0x280 }
  - { offsetInCU: 0x8180D, offset: 0x270D6F, size: 0x8, addend: 0x0, symName: '__ZN3syn3gen5clone70_$LT$impl$u20$core..clone..Clone$u20$for$u20$syn..item..ItemStruct$GT$5clone17hd8a59448b138557aE', symObjAddr: 0x2CBC0, symBinAddr: 0x8AEF0, symSize: 0x380 }
  - { offsetInCU: 0x81C22, offset: 0x271184, size: 0x8, addend: 0x0, symName: '__ZN3syn3gen5clone69_$LT$impl$u20$core..clone..Clone$u20$for$u20$syn..item..ItemTrait$GT$5clone17h05a37713845a0c0bE', symObjAddr: 0x2CF40, symBinAddr: 0x8B270, symSize: 0x3C0 }
  - { offsetInCU: 0x81FE0, offset: 0x271542, size: 0x8, addend: 0x0, symName: '__ZN3syn3gen5clone74_$LT$impl$u20$core..clone..Clone$u20$for$u20$syn..item..ItemTraitAlias$GT$5clone17hf8c8d2db95754afdE', symObjAddr: 0x2D300, symBinAddr: 0x8B630, symSize: 0x310 }
  - { offsetInCU: 0x82340, offset: 0x2718A2, size: 0x8, addend: 0x0, symName: '__ZN3syn3gen5clone68_$LT$impl$u20$core..clone..Clone$u20$for$u20$syn..item..ItemType$GT$5clone17h1d1420c2f836bc7eE', symObjAddr: 0x2D610, symBinAddr: 0x8B940, symSize: 0x340 }
  - { offsetInCU: 0x828BC, offset: 0x271E1E, size: 0x8, addend: 0x0, symName: '__ZN3syn3gen5clone69_$LT$impl$u20$core..clone..Clone$u20$for$u20$syn..item..ItemUnion$GT$5clone17h7b2f56fc86343981E', symObjAddr: 0x2D950, symBinAddr: 0x8BC80, symSize: 0x310 }
  - { offsetInCU: 0x82BEC, offset: 0x27214E, size: 0x8, addend: 0x0, symName: '__ZN3syn3gen5clone67_$LT$impl$u20$core..clone..Clone$u20$for$u20$syn..item..ItemUse$GT$5clone17h16e4d2ca744347fbE', symObjAddr: 0x2DC60, symBinAddr: 0x8BF90, symSize: 0x110 }
  - { offsetInCU: 0x82CAC, offset: 0x27220E, size: 0x8, addend: 0x0, symName: '__ZN3syn3gen5clone69_$LT$impl$u20$core..clone..Clone$u20$for$u20$syn..item..Signature$GT$5clone17h527c1da3117ac0c2E', symObjAddr: 0x2DE50, symBinAddr: 0x8C0A0, symSize: 0x530 }
  - { offsetInCU: 0x834B1, offset: 0x272A13, size: 0x8, addend: 0x0, symName: '__ZN3syn3gen5clone69_$LT$impl$u20$core..clone..Clone$u20$for$u20$syn..item..TraitItem$GT$5clone17h3b82f8b5271b5af7E', symObjAddr: 0x2E380, symBinAddr: 0x8C5D0, symSize: 0x1E0 }
  - { offsetInCU: 0x837F2, offset: 0x272D54, size: 0x8, addend: 0x0, symName: '__ZN3syn3gen5clone74_$LT$impl$u20$core..clone..Clone$u20$for$u20$syn..item..TraitItemConst$GT$5clone17ha12a3469e74263a0E', symObjAddr: 0x2E560, symBinAddr: 0x8C7B0, symSize: 0x1E0 }
  - { offsetInCU: 0x83AAF, offset: 0x273011, size: 0x8, addend: 0x0, symName: '__ZN3syn3gen5clone75_$LT$impl$u20$core..clone..Clone$u20$for$u20$syn..item..TraitItemMethod$GT$5clone17hc5f98fa3110d949bE', symObjAddr: 0x2E740, symBinAddr: 0x8C990, symSize: 0x130 }
  - { offsetInCU: 0x83BA3, offset: 0x273105, size: 0x8, addend: 0x0, symName: '__ZN3syn3gen5clone73_$LT$impl$u20$core..clone..Clone$u20$for$u20$syn..item..TraitItemType$GT$5clone17h322c8f681c4ed7c4E', symObjAddr: 0x2E870, symBinAddr: 0x8CAC0, symSize: 0x370 }
  - { offsetInCU: 0x87AC5, offset: 0x277027, size: 0x8, addend: 0x0, symName: '__ZN5alloc3vec16Vec$LT$T$C$A$GT$15append_elements17h515b13e7a2841833E', symObjAddr: 0xC990, symBinAddr: 0x72670, symSize: 0x70 }
  - { offsetInCU: 0x87CFB, offset: 0x27725D, size: 0x8, addend: 0x0, symName: __ZN3syn4item4Item13replace_attrs17h27bc8d233ea7e24cE, symObjAddr: 0xD2C0, symBinAddr: 0x726E0, symSize: 0x1C0 }
  - { offsetInCU: 0x1E, offset: 0x2897D8, size: 0x8, addend: 0x0, symName: '__ZN4core3ptr100drop_in_place$LT$core..option..Option$LT$alloc..boxed..Box$LT$syn..generics..LifetimeDef$GT$$GT$$GT$17h75a6086997697dd7E.llvm.16532739692444164112', symObjAddr: 0x0, symBinAddr: 0x8D0C0, symSize: 0x50 }
  - { offsetInCU: 0x167A, offset: 0x28AE34, size: 0x8, addend: 0x0, symName: '__ZN111_$LT$syn..punctuated..PrivateIter$LT$T$C$P$GT$$u20$as$u20$core..iter..traits..exact_size..ExactSizeIterator$GT$3len17hf961cff6ad363ebcE.llvm.16532739692444164112', symObjAddr: 0x12520, symBinAddr: 0x9AC80, symSize: 0x30 }
  - { offsetInCU: 0x182F, offset: 0x28AFE9, size: 0x8, addend: 0x0, symName: '__ZN115_$LT$syn..punctuated..PrivateIter$LT$T$C$P$GT$$u20$as$u20$core..iter..traits..double_ended..DoubleEndedIterator$GT$9next_back17h511dcfc6e4846953E.llvm.16532739692444164112', symObjAddr: 0x12400, symBinAddr: 0x9AC50, symSize: 0x30 }
  - { offsetInCU: 0x1C0F, offset: 0x28B3C9, size: 0x8, addend: 0x0, symName: '__ZN100_$LT$syn..punctuated..PrivateIter$LT$T$C$P$GT$$u20$as$u20$core..iter..traits..iterator..Iterator$GT$4next17h6d856dbf85f5e49bE.llvm.16532739692444164112', symObjAddr: 0x12340, symBinAddr: 0x9ABF0, symSize: 0x30 }
  - { offsetInCU: 0x1E89, offset: 0x28B643, size: 0x8, addend: 0x0, symName: '__ZN100_$LT$syn..punctuated..PrivateIter$LT$T$C$P$GT$$u20$as$u20$core..iter..traits..iterator..Iterator$GT$4next17h7d8b0100903e1490E.llvm.16532739692444164112', symObjAddr: 0x123A0, symBinAddr: 0x9AC20, symSize: 0x30 }
  - { offsetInCU: 0x264A, offset: 0x28BE04, size: 0x8, addend: 0x0, symName: '__ZN79_$LT$syn..punctuated..Punctuated$LT$T$C$P$GT$$u20$as$u20$core..clone..Clone$GT$5clone17h11f716f7c70263efE', symObjAddr: 0xDDE0, symBinAddr: 0x99640, symSize: 0xE0 }
  - { offsetInCU: 0x28D0, offset: 0x28C08A, size: 0x8, addend: 0x0, symName: '__ZN79_$LT$syn..punctuated..Punctuated$LT$T$C$P$GT$$u20$as$u20$core..clone..Clone$GT$5clone17h16b574025162a927E', symObjAddr: 0xDEC0, symBinAddr: 0x99720, symSize: 0xC0 }
  - { offsetInCU: 0x2AFE, offset: 0x28C2B8, size: 0x8, addend: 0x0, symName: '__ZN79_$LT$syn..punctuated..Punctuated$LT$T$C$P$GT$$u20$as$u20$core..clone..Clone$GT$5clone17h248ce364975e5563E', symObjAddr: 0xDF80, symBinAddr: 0x997E0, symSize: 0xE0 }
  - { offsetInCU: 0x2D85, offset: 0x28C53F, size: 0x8, addend: 0x0, symName: '__ZN79_$LT$syn..punctuated..Punctuated$LT$T$C$P$GT$$u20$as$u20$core..clone..Clone$GT$5clone17h2cb3b5c3adb260feE', symObjAddr: 0xE060, symBinAddr: 0x998C0, symSize: 0xE0 }
  - { offsetInCU: 0x300C, offset: 0x28C7C6, size: 0x8, addend: 0x0, symName: '__ZN79_$LT$syn..punctuated..Punctuated$LT$T$C$P$GT$$u20$as$u20$core..clone..Clone$GT$5clone17h56e1f4ad041a44ceE', symObjAddr: 0xE240, symBinAddr: 0x999A0, symSize: 0xE0 }
  - { offsetInCU: 0x3293, offset: 0x28CA4D, size: 0x8, addend: 0x0, symName: '__ZN79_$LT$syn..punctuated..Punctuated$LT$T$C$P$GT$$u20$as$u20$core..clone..Clone$GT$5clone17h5806b3a5c1b4f2a6E', symObjAddr: 0xE320, symBinAddr: 0x99A80, symSize: 0xE0 }
  - { offsetInCU: 0x3519, offset: 0x28CCD3, size: 0x8, addend: 0x0, symName: '__ZN79_$LT$syn..punctuated..Punctuated$LT$T$C$P$GT$$u20$as$u20$core..clone..Clone$GT$5clone17h682a84abd40a7cfeE', symObjAddr: 0xE400, symBinAddr: 0x99B60, symSize: 0xE0 }
  - { offsetInCU: 0x37A0, offset: 0x28CF5A, size: 0x8, addend: 0x0, symName: '__ZN79_$LT$syn..punctuated..Punctuated$LT$T$C$P$GT$$u20$as$u20$core..clone..Clone$GT$5clone17h748e57bad821d612E', symObjAddr: 0xE4E0, symBinAddr: 0x99C40, symSize: 0xD0 }
  - { offsetInCU: 0x3A26, offset: 0x28D1E0, size: 0x8, addend: 0x0, symName: '__ZN79_$LT$syn..punctuated..Punctuated$LT$T$C$P$GT$$u20$as$u20$core..clone..Clone$GT$5clone17h7dc69fd3509f726bE', symObjAddr: 0xE6D0, symBinAddr: 0x99D10, symSize: 0xE0 }
  - { offsetInCU: 0x3CAD, offset: 0x28D467, size: 0x8, addend: 0x0, symName: '__ZN79_$LT$syn..punctuated..Punctuated$LT$T$C$P$GT$$u20$as$u20$core..clone..Clone$GT$5clone17had7f902178348c63E', symObjAddr: 0xE9A0, symBinAddr: 0x99DF0, symSize: 0x180 }
  - { offsetInCU: 0x407F, offset: 0x28D839, size: 0x8, addend: 0x0, symName: '__ZN79_$LT$syn..punctuated..Punctuated$LT$T$C$P$GT$$u20$as$u20$core..clone..Clone$GT$5clone17hb75d2d633cc2d1edE', symObjAddr: 0xEB20, symBinAddr: 0x99F70, symSize: 0x110 }
  - { offsetInCU: 0x43E2, offset: 0x28DB9C, size: 0x8, addend: 0x0, symName: '__ZN79_$LT$syn..punctuated..Punctuated$LT$T$C$P$GT$$u20$as$u20$core..clone..Clone$GT$5clone17hd0e9f97bdac7287eE', symObjAddr: 0xED10, symBinAddr: 0x9A080, symSize: 0x150 }
  - { offsetInCU: 0x46B5, offset: 0x28DE6F, size: 0x8, addend: 0x0, symName: '__ZN79_$LT$syn..punctuated..Punctuated$LT$T$C$P$GT$$u20$as$u20$core..clone..Clone$GT$5clone17he55a9d80253adee0E', symObjAddr: 0xEF40, symBinAddr: 0x9A1D0, symSize: 0xE0 }
  - { offsetInCU: 0x49D9, offset: 0x28E193, size: 0x8, addend: 0x0, symName: '__ZN138_$LT$syn..punctuated..Punctuated$LT$T$C$P$GT$$u20$as$u20$core..iter..traits..collect..Extend$LT$syn..punctuated..Pair$LT$T$C$P$GT$$GT$$GT$6extend17h46e8b111646272d1E', symObjAddr: 0x110F0, symBinAddr: 0x9A5F0, symSize: 0x340 }
  - { offsetInCU: 0x51D0, offset: 0x28E98A, size: 0x8, addend: 0x0, symName: '__ZN144_$LT$syn..punctuated..Punctuated$LT$T$C$P$GT$$u20$as$u20$core..iter..traits..collect..FromIterator$LT$syn..punctuated..Pair$LT$T$C$P$GT$$GT$$GT$9from_iter17he2cbff5f009ca769E', symObjAddr: 0x10DB0, symBinAddr: 0x9A2B0, symSize: 0x340 }
  - { offsetInCU: 0x5805, offset: 0x28EFBF, size: 0x8, addend: 0x0, symName: '__ZN102_$LT$syn..punctuated..Punctuated$LT$T$C$P$GT$$u20$as$u20$core..iter..traits..collect..IntoIterator$GT$9into_iter17h83e18cee80a4ec2fE', symObjAddr: 0x11710, symBinAddr: 0x9A930, symSize: 0x2C0 }
  - { offsetInCU: 0x6F52, offset: 0x29070C, size: 0x8, addend: 0x0, symName: '__ZN57_$LT$I$u20$as$u20$syn..punctuated..IterTrait$LT$T$GT$$GT$9clone_box17hf91e00e1143972f2E.llvm.16532739692444164112', symObjAddr: 0x12670, symBinAddr: 0x9ACB0, symSize: 0x60 }
  - { offsetInCU: 0x7165, offset: 0x29091F, size: 0x8, addend: 0x0, symName: '__ZN97_$LT$syn..punctuated..Punctuated$LT$T$C$P$GT$$u20$as$u20$core..ops..index..Index$LT$usize$GT$$GT$5index17ha3e39e7328b6f7abE', symObjAddr: 0x126D0, symBinAddr: 0x9AD10, symSize: 0x50 }
  - { offsetInCU: 0x72B3, offset: 0x290A6D, size: 0x8, addend: 0x0, symName: '__ZN3syn10punctuated8printing97_$LT$impl$u20$quote..to_tokens..ToTokens$u20$for$u20$syn..punctuated..Punctuated$LT$T$C$P$GT$$GT$9to_tokens17h4c504ab6a95422ddE', symObjAddr: 0x12880, symBinAddr: 0x9AD60, symSize: 0x150 }
  - { offsetInCU: 0x1348B, offset: 0x29CC45, size: 0x8, addend: 0x0, symName: '__ZN4core3ptr100drop_in_place$LT$core..option..Option$LT$alloc..boxed..Box$LT$syn..generics..LifetimeDef$GT$$GT$$GT$17h75a6086997697dd7E.llvm.16532739692444164112', symObjAddr: 0x0, symBinAddr: 0x8D0C0, symSize: 0x50 }
  - { offsetInCU: 0x1360D, offset: 0x29CDC7, size: 0x8, addend: 0x0, symName: '__ZN4core3ptr100drop_in_place$LT$core..option..Option$LT$alloc..boxed..Box$LT$syn..path..GenericArgument$GT$$GT$$GT$17h3d29ec00a8f1918dE.llvm.16532739692444164112', symObjAddr: 0x50, symBinAddr: 0x8D110, symSize: 0x50 }
  - { offsetInCU: 0x1379C, offset: 0x29CF56, size: 0x8, addend: 0x0, symName: '__ZN4core3ptr101drop_in_place$LT$alloc..vec..Vec$LT$$LP$syn..generics..WherePredicate$C$syn..token..Comma$RP$$GT$$GT$17h08dfdcabd164aa70E.llvm.16532739692444164112', symObjAddr: 0xA0, symBinAddr: 0x8D160, symSize: 0xD0 }
  - { offsetInCU: 0x13BE3, offset: 0x29D39D, size: 0x8, addend: 0x0, symName: '__ZN4core3ptr103drop_in_place$LT$core..option..Option$LT$alloc..boxed..Box$LT$syn..generics..TypeParamBound$GT$$GT$$GT$17h6cee73bc2b2ecea8E.llvm.16532739692444164112', symObjAddr: 0x170, symBinAddr: 0x8D230, symSize: 0x150 }
  - { offsetInCU: 0x141A1, offset: 0x29D95B, size: 0x8, addend: 0x0, symName: '__ZN4core3ptr103drop_in_place$LT$syn..punctuated..Punctuated$LT$syn..generics..TypeParamBound$C$syn..token..Add$GT$$GT$17he811d520c92af08aE.llvm.16532739692444164112', symObjAddr: 0x2C0, symBinAddr: 0x8D380, symSize: 0xF0 }
  - { offsetInCU: 0x146DE, offset: 0x29DE98, size: 0x8, addend: 0x0, symName: '__ZN4core3ptr104drop_in_place$LT$alloc..vec..Vec$LT$$LP$syn..expr..GenericMethodArgument$C$syn..token..Comma$RP$$GT$$GT$17heae48b13c44e912aE.llvm.16532739692444164112', symObjAddr: 0x3B0, symBinAddr: 0x8D470, symSize: 0xF0 }
  - { offsetInCU: 0x14A48, offset: 0x29E202, size: 0x8, addend: 0x0, symName: '__ZN4core3ptr108drop_in_place$LT$syn..punctuated..Punctuated$LT$syn..expr..GenericMethodArgument$C$syn..token..Comma$GT$$GT$17h92cbabe4862b2183E', symObjAddr: 0x4A0, symBinAddr: 0x8D560, symSize: 0x150 }
  - { offsetInCU: 0x14F25, offset: 0x29E6DF, size: 0x8, addend: 0x0, symName: '__ZN4core3ptr126drop_in_place$LT$core..option..Option$LT$$LP$syn..token..And$C$core..option..Option$LT$syn..lifetime..Lifetime$GT$$RP$$GT$$GT$17h5979d670cb45416cE', symObjAddr: 0x5F0, symBinAddr: 0x8D6B0, symSize: 0x30 }
  - { offsetInCU: 0x15138, offset: 0x29E8F2, size: 0x8, addend: 0x0, symName: '__ZN4core3ptr34drop_in_place$LT$syn..lit..Lit$GT$17hbe1efe749a08dd9aE', symObjAddr: 0x620, symBinAddr: 0x8D6E0, symSize: 0x110 }
  - { offsetInCU: 0x155E8, offset: 0x29EDA2, size: 0x8, addend: 0x0, symName: '__ZN4core3ptr34drop_in_place$LT$syn..pat..Pat$GT$17h3201f642e43ac2a2E.llvm.16532739692444164112', symObjAddr: 0x730, symBinAddr: 0x8D7F0, symSize: 0x1190 }
  - { offsetInCU: 0x194E1, offset: 0x2A2C9B, size: 0x8, addend: 0x0, symName: '__ZN4core3ptr34drop_in_place$LT$syn..ty..Type$GT$17hfb5d159a08190130E.llvm.16532739692444164112', symObjAddr: 0x18C0, symBinAddr: 0x8E980, symSize: 0x580 }
  - { offsetInCU: 0x1A787, offset: 0x2A3F41, size: 0x8, addend: 0x0, symName: '__ZN4core3ptr36drop_in_place$LT$syn..attr..Meta$GT$17ha0d33cab48037a79E', symObjAddr: 0x1E40, symBinAddr: 0x8EF00, symSize: 0x2C0 }
  - { offsetInCU: 0x1B74A, offset: 0x2A4F04, size: 0x8, addend: 0x0, symName: '__ZN4core3ptr36drop_in_place$LT$syn..expr..Expr$GT$17hf1921d1b09462bc3E.llvm.16532739692444164112', symObjAddr: 0x2100, symBinAddr: 0x8F1C0, symSize: 0x3290 }
  - { offsetInCU: 0x25FDB, offset: 0x2AF795, size: 0x8, addend: 0x0, symName: '__ZN4core3ptr36drop_in_place$LT$syn..mac..Macro$GT$17h205613d7ad575f72E', symObjAddr: 0x5390, symBinAddr: 0x92450, symSize: 0x40 }
  - { offsetInCU: 0x26015, offset: 0x2AF7CF, size: 0x8, addend: 0x0, symName: '__ZN4core3ptr36drop_in_place$LT$syn..path..Path$GT$17he6d0bec66d66b98aE.llvm.16532739692444164112', symObjAddr: 0x53D0, symBinAddr: 0x92490, symSize: 0xE0 }
  - { offsetInCU: 0x26324, offset: 0x2AFADE, size: 0x8, addend: 0x0, symName: '__ZN4core3ptr37drop_in_place$LT$syn..data..Field$GT$17h6bfcb460cfa4c863E.llvm.16532739692444164112', symObjAddr: 0x54B0, symBinAddr: 0x92570, symSize: 0x150 }
  - { offsetInCU: 0x26762, offset: 0x2AFF1C, size: 0x8, addend: 0x0, symName: '__ZN4core3ptr37drop_in_place$LT$syn..item..FnArg$GT$17h52a13b3505938de2E.llvm.16532739692444164112', symObjAddr: 0x5600, symBinAddr: 0x926C0, symSize: 0x290 }
  - { offsetInCU: 0x271B9, offset: 0x2B0973, size: 0x8, addend: 0x0, symName: '__ZN4core3ptr37drop_in_place$LT$syn..stmt..Block$GT$17h3aa429e75a234230E', symObjAddr: 0x5890, symBinAddr: 0x92950, symSize: 0xD0 }
  - { offsetInCU: 0x27490, offset: 0x2B0C4A, size: 0x8, addend: 0x0, symName: '__ZN4core3ptr38drop_in_place$LT$syn..expr..Member$GT$17ha113d37a67d27aafE.llvm.16532739692444164112', symObjAddr: 0x5960, symBinAddr: 0x92A20, symSize: 0x30 }
  - { offsetInCU: 0x2758C, offset: 0x2B0D46, size: 0x8, addend: 0x0, symName: '__ZN4core3ptr39drop_in_place$LT$proc_macro2..Ident$GT$17hdeec010483268a0dE', symObjAddr: 0x5990, symBinAddr: 0x92A50, symSize: 0x30 }
  - { offsetInCU: 0x276C6, offset: 0x2B0E80, size: 0x8, addend: 0x0, symName: '__ZN4core3ptr39drop_in_place$LT$syn..data..Variant$GT$17hdf59a2045a52b17cE', symObjAddr: 0x59C0, symBinAddr: 0x92A80, symSize: 0x170 }
  - { offsetInCU: 0x27BC6, offset: 0x2B1380, size: 0x8, addend: 0x0, symName: '__ZN4core3ptr39drop_in_place$LT$syn..item..UseTree$GT$17h78d4ed19b48b8cbfE', symObjAddr: 0x5B30, symBinAddr: 0x92BF0, symSize: 0xE0 }
  - { offsetInCU: 0x27F8C, offset: 0x2B1746, size: 0x8, addend: 0x0, symName: '__ZN4core3ptr39drop_in_place$LT$syn..pat..FieldPat$GT$17hbb4451e28b58676aE.llvm.16532739692444164112', symObjAddr: 0x5C10, symBinAddr: 0x92CD0, symSize: 0x150 }
  - { offsetInCU: 0x284EE, offset: 0x2B1CA8, size: 0x8, addend: 0x0, symName: '__ZN4core3ptr39drop_in_place$LT$syn..pat..PatTuple$GT$17h96faeea9832d4c4bE', symObjAddr: 0x5D60, symBinAddr: 0x92E20, symSize: 0x100 }
  - { offsetInCU: 0x28835, offset: 0x2B1FEF, size: 0x8, addend: 0x0, symName: '__ZN4core3ptr39drop_in_place$LT$syn..ty..BareFnArg$GT$17hed52ce54f3b53a34E.llvm.16532739692444164112', symObjAddr: 0x5E60, symBinAddr: 0x92F20, symSize: 0x120 }
  - { offsetInCU: 0x28C42, offset: 0x2B23FC, size: 0x8, addend: 0x0, symName: '__ZN4core3ptr40drop_in_place$LT$syn..ty..ReturnType$GT$17h6f97c9fdb958983eE', symObjAddr: 0x5F80, symBinAddr: 0x93040, symSize: 0x50 }
  - { offsetInCU: 0x28DB2, offset: 0x2B256C, size: 0x8, addend: 0x0, symName: '__ZN4core3ptr42drop_in_place$LT$syn..attr..NestedMeta$GT$17hb8773e095b93d12eE', symObjAddr: 0x5FD0, symBinAddr: 0x93090, symSize: 0x30 }
  - { offsetInCU: 0x28E0D, offset: 0x2B25C7, size: 0x8, addend: 0x0, symName: '__ZN4core3ptr42drop_in_place$LT$syn..data..Visibility$GT$17h27e8b6ad307fcbc7E', symObjAddr: 0x6000, symBinAddr: 0x930C0, symSize: 0x120 }
  - { offsetInCU: 0x29263, offset: 0x2B2A1D, size: 0x8, addend: 0x0, symName: '__ZN4core3ptr42drop_in_place$LT$syn..expr..FieldValue$GT$17h42a16bcbdc918058E.llvm.16532739692444164112', symObjAddr: 0x6120, symBinAddr: 0x931E0, symSize: 0x120 }
  - { offsetInCU: 0x2970A, offset: 0x2B2EC4, size: 0x8, addend: 0x0, symName: '__ZN4core3ptr43drop_in_place$LT$syn..path..PathSegment$GT$17h3d0f44137dd31bf9E.llvm.16532739692444164112', symObjAddr: 0x6240, symBinAddr: 0x93300, symSize: 0x170 }
  - { offsetInCU: 0x29C6A, offset: 0x2B3424, size: 0x8, addend: 0x0, symName: '__ZN4core3ptr44drop_in_place$LT$syn..lifetime..Lifetime$GT$17h3858225df033648aE.llvm.16532739692444164112', symObjAddr: 0x63B0, symBinAddr: 0x93470, symSize: 0x30 }
  - { offsetInCU: 0x29E9C, offset: 0x2B3656, size: 0x8, addend: 0x0, symName: '__ZN4core3ptr45drop_in_place$LT$proc_macro2..TokenStream$GT$17h2507cb30e765dc85E', symObjAddr: 0x63E0, symBinAddr: 0x934A0, symSize: 0x140 }
  - { offsetInCU: 0x2A2F8, offset: 0x2B3AB2, size: 0x8, addend: 0x0, symName: '__ZN4core3ptr47drop_in_place$LT$syn..generics..LifetimeDef$GT$17hd04bc9e6ed9dfb47E.llvm.16532739692444164112', symObjAddr: 0x6520, symBinAddr: 0x935E0, symSize: 0x120 }
  - { offsetInCU: 0x2A753, offset: 0x2B3F0D, size: 0x8, addend: 0x0, symName: '__ZN4core3ptr47drop_in_place$LT$syn..path..GenericArgument$GT$17h8c0a0d8c6deaefb4E.llvm.16532739692444164112', symObjAddr: 0x6640, symBinAddr: 0x93700, symSize: 0x110 }
  - { offsetInCU: 0x2AAEA, offset: 0x2B42A4, size: 0x8, addend: 0x0, symName: '__ZN4core3ptr48drop_in_place$LT$syn..generics..GenericParam$GT$17h9292481f35bf25edE.llvm.16532739692444164112', symObjAddr: 0x6750, symBinAddr: 0x93810, symSize: 0x300 }
  - { offsetInCU: 0x2B30E, offset: 0x2B4AC8, size: 0x8, addend: 0x0, symName: '__ZN4core3ptr50drop_in_place$LT$syn..generics..TypeParamBound$GT$17h8d9a306b4a7f920fE.llvm.16532739692444164112', symObjAddr: 0x6A50, symBinAddr: 0x93B10, symSize: 0x150 }
  - { offsetInCU: 0x2B781, offset: 0x2B4F3B, size: 0x8, addend: 0x0, symName: '__ZN4core3ptr50drop_in_place$LT$syn..generics..WherePredicate$GT$17h1fc5b3da95266304E.llvm.16532739692444164112', symObjAddr: 0x6BA0, symBinAddr: 0x93C60, symSize: 0x100 }
  - { offsetInCU: 0x2B908, offset: 0x2B50C2, size: 0x8, addend: 0x0, symName: '__ZN4core3ptr53drop_in_place$LT$syn..expr..GenericMethodArgument$GT$17h74a5a2396c2f7da6E.llvm.16532739692444164112', symObjAddr: 0x6CA0, symBinAddr: 0x93D60, symSize: 0x30 }
  - { offsetInCU: 0x2B925, offset: 0x2B50DF, size: 0x8, addend: 0x0, symName: '__ZN4core3ptr58drop_in_place$LT$alloc..vec..Vec$LT$syn..expr..Arm$GT$$GT$17hf3db0825f3d9c861E', symObjAddr: 0x6CD0, symBinAddr: 0x93D90, symSize: 0xD0 }
  - { offsetInCU: 0x2BBE5, offset: 0x2B539F, size: 0x8, addend: 0x0, symName: '__ZN4core3ptr59drop_in_place$LT$alloc..boxed..Box$LT$syn..pat..Pat$GT$$GT$17h7037ce9bbd3729c6E.llvm.16532739692444164112', symObjAddr: 0x6DA0, symBinAddr: 0x93E60, symSize: 0x50 }
  - { offsetInCU: 0x2BD3E, offset: 0x2B54F8, size: 0x8, addend: 0x0, symName: '__ZN4core3ptr59drop_in_place$LT$alloc..boxed..Box$LT$syn..ty..Type$GT$$GT$17h2eccd13329dbe4faE.llvm.16532739692444164112', symObjAddr: 0x6DF0, symBinAddr: 0x93EB0, symSize: 0x50 }
  - { offsetInCU: 0x2BE97, offset: 0x2B5651, size: 0x8, addend: 0x0, symName: '__ZN4core3ptr61drop_in_place$LT$alloc..boxed..Box$LT$syn..expr..Expr$GT$$GT$17h66094ddc89015516E.llvm.16532739692444164112', symObjAddr: 0x6F10, symBinAddr: 0x93F00, symSize: 0x50 }
  - { offsetInCU: 0x2C06C, offset: 0x2B5826, size: 0x8, addend: 0x0, symName: '__ZN4core3ptr61drop_in_place$LT$syn..path..ParenthesizedGenericArguments$GT$17h21be9b1d7a6fab55E.llvm.16532739692444164112', symObjAddr: 0x6F60, symBinAddr: 0x93F50, symSize: 0x170 }
  - { offsetInCU: 0x2C675, offset: 0x2B5E2F, size: 0x8, addend: 0x0, symName: '__ZN4core3ptr63drop_in_place$LT$alloc..boxed..Box$LT$syn..lit..LitRepr$GT$$GT$17h9c509b794406150eE', symObjAddr: 0x7170, symBinAddr: 0x940C0, symSize: 0x60 }
  - { offsetInCU: 0x2C95D, offset: 0x2B6117, size: 0x8, addend: 0x0, symName: '__ZN4core3ptr64drop_in_place$LT$alloc..boxed..Box$LT$syn..item..UseTree$GT$$GT$17h2fbb30105f88b737E', symObjAddr: 0x7220, symBinAddr: 0x94120, symSize: 0x100 }
  - { offsetInCU: 0x2CE8B, offset: 0x2B6645, size: 0x8, addend: 0x0, symName: '__ZN4core3ptr64drop_in_place$LT$alloc..boxed..Box$LT$syn..pat..FieldPat$GT$$GT$17hb167b355d0d4733fE', symObjAddr: 0x7320, symBinAddr: 0x94220, symSize: 0x180 }
  - { offsetInCU: 0x2D56A, offset: 0x2B6D24, size: 0x8, addend: 0x0, symName: '__ZN4core3ptr64drop_in_place$LT$alloc..boxed..Box$LT$syn..ty..BareFnArg$GT$$GT$17h6488be9448346678E', symObjAddr: 0x74A0, symBinAddr: 0x943A0, symSize: 0x160 }
  - { offsetInCU: 0x2DB00, offset: 0x2B72BA, size: 0x8, addend: 0x0, symName: '__ZN4core3ptr65drop_in_place$LT$alloc..vec..Vec$LT$proc_macro..TokenTree$GT$$GT$17hc3670dd5608d5259E', symObjAddr: 0x7600, symBinAddr: 0x94500, symSize: 0x110 }
  - { offsetInCU: 0x2DEF8, offset: 0x2B76B2, size: 0x8, addend: 0x0, symName: '__ZN4core3ptr65drop_in_place$LT$core..option..Option$LT$syn..expr..Label$GT$$GT$17ha723640fd01bec5dE', symObjAddr: 0x7710, symBinAddr: 0x94610, symSize: 0x30 }
  - { offsetInCU: 0x2E032, offset: 0x2B77EC, size: 0x8, addend: 0x0, symName: '__ZN4core3ptr66drop_in_place$LT$core..option..Option$LT$syn..ty..Variadic$GT$$GT$17hc32134bb3933b0dfE', symObjAddr: 0x7740, symBinAddr: 0x94640, symSize: 0xF0 }
  - { offsetInCU: 0x2E35C, offset: 0x2B7B16, size: 0x8, addend: 0x0, symName: '__ZN4core3ptr67drop_in_place$LT$alloc..boxed..Box$LT$syn..attr..NestedMeta$GT$$GT$17hd0c3b988a8621445E', symObjAddr: 0x7830, symBinAddr: 0x94730, symSize: 0x70 }
  - { offsetInCU: 0x2E4F1, offset: 0x2B7CAB, size: 0x8, addend: 0x0, symName: '__ZN4core3ptr67drop_in_place$LT$alloc..boxed..Box$LT$syn..expr..FieldValue$GT$$GT$17h8df780aa600ea8c2E', symObjAddr: 0x78A0, symBinAddr: 0x947A0, symSize: 0x160 }
  - { offsetInCU: 0x2EA67, offset: 0x2B8221, size: 0x8, addend: 0x0, symName: '__ZN4core3ptr70drop_in_place$LT$$LP$syn..attr..NestedMeta$C$syn..token..Comma$RP$$GT$17he1b545a7aa3daf93E', symObjAddr: 0x7AA0, symBinAddr: 0x94900, symSize: 0x30 }
  - { offsetInCU: 0x2EB13, offset: 0x2B82CD, size: 0x8, addend: 0x0, symName: '__ZN4core3ptr73drop_in_place$LT$alloc..vec..Vec$LT$syn..generics..TypeParamBound$GT$$GT$17h5d27515ea87a306aE.llvm.16532739692444164112', symObjAddr: 0x7CF0, symBinAddr: 0x94930, symSize: 0xC0 }
  - { offsetInCU: 0x2EDE4, offset: 0x2B859E, size: 0x8, addend: 0x0, symName: '__ZN4core3ptr75drop_in_place$LT$alloc..boxed..Box$LT$syn..generics..TypeParamBound$GT$$GT$17h8f156ce07ea0b8b2E', symObjAddr: 0x7DB0, symBinAddr: 0x949F0, symSize: 0x90 }
  - { offsetInCU: 0x2F0A7, offset: 0x2B8861, size: 0x8, addend: 0x0, symName: '__ZN4core3ptr78drop_in_place$LT$alloc..boxed..Box$LT$syn..expr..GenericMethodArgument$GT$$GT$17h3384c00b5bd54c2aE', symObjAddr: 0x7E90, symBinAddr: 0x94A80, symSize: 0x60 }
  - { offsetInCU: 0x2F2B8, offset: 0x2B8A72, size: 0x8, addend: 0x0, symName: '__ZN4core3ptr78drop_in_place$LT$core..option..Option$LT$syn..generics..BoundLifetimes$GT$$GT$17h8175e66ad0c4a156E.llvm.16532739692444164112', symObjAddr: 0x7EF0, symBinAddr: 0x94AE0, symSize: 0x120 }
  - { offsetInCU: 0x2F720, offset: 0x2B8EDA, size: 0x8, addend: 0x0, symName: '__ZN4core3ptr81drop_in_place$LT$$LP$syn..expr..GenericMethodArgument$C$syn..token..Comma$RP$$GT$17h6cb8506ab56d85d6E.llvm.16532739692444164112', symObjAddr: 0x80E0, symBinAddr: 0x94C00, symSize: 0x30 }
  - { offsetInCU: 0x2F78E, offset: 0x2B8F48, size: 0x8, addend: 0x0, symName: '__ZN4core3ptr82drop_in_place$LT$alloc..vec..Vec$LT$$LP$syn..pat..Pat$C$syn..token..Or$RP$$GT$$GT$17he4f1446f4dd0391dE.llvm.16532739692444164112', symObjAddr: 0x8110, symBinAddr: 0x94C30, symSize: 0x0 }
  - { offsetInCU: 0x2FA86, offset: 0x2B9240, size: 0x8, addend: 0x0, symName: '__ZN4core3ptr85drop_in_place$LT$alloc..vec..Vec$LT$$LP$syn..ty..Type$C$syn..token..Comma$RP$$GT$$GT$17h2558a6f370e75802E.llvm.16532739692444164112', symObjAddr: 0x81E0, symBinAddr: 0x94D00, symSize: 0xD0 }
  - { offsetInCU: 0x2FDB8, offset: 0x2B9572, size: 0x8, addend: 0x0, symName: '__ZN4core3ptr86drop_in_place$LT$syn..punctuated..Punctuated$LT$syn..pat..Pat$C$syn..token..Or$GT$$GT$17h1078c5d178d382b7E', symObjAddr: 0x82B0, symBinAddr: 0x94DD0, symSize: 0x120 }
  - { offsetInCU: 0x30252, offset: 0x2B9A0C, size: 0x8, addend: 0x0, symName: '__ZN4core3ptr87drop_in_place$LT$alloc..vec..Vec$LT$$LP$syn..expr..Expr$C$syn..token..Comma$RP$$GT$$GT$17ha5588c79c88b2eb2E.llvm.16532739692444164112', symObjAddr: 0x83D0, symBinAddr: 0x94EF0, symSize: 0xD0 }
  - { offsetInCU: 0x30546, offset: 0x2B9D00, size: 0x8, addend: 0x0, symName: '__ZN4core3ptr87drop_in_place$LT$core..option..Option$LT$alloc..boxed..Box$LT$syn..pat..Pat$GT$$GT$$GT$17ha7f5fe0e6f73e820E', symObjAddr: 0x84A0, symBinAddr: 0x94FC0, symSize: 0x50 }
  - { offsetInCU: 0x306B6, offset: 0x2B9E70, size: 0x8, addend: 0x0, symName: '__ZN4core3ptr87drop_in_place$LT$core..option..Option$LT$alloc..boxed..Box$LT$syn..ty..Type$GT$$GT$$GT$17hc8292da82d129de3E.llvm.16532739692444164112', symObjAddr: 0x84F0, symBinAddr: 0x95010, symSize: 0x50 }
  - { offsetInCU: 0x30845, offset: 0x2B9FFF, size: 0x8, addend: 0x0, symName: '__ZN4core3ptr88drop_in_place$LT$alloc..vec..Vec$LT$$LP$syn..data..Field$C$syn..token..Comma$RP$$GT$$GT$17h92f883c9746a1265E.llvm.16532739692444164112', symObjAddr: 0x8540, symBinAddr: 0x95060, symSize: 0xD0 }
  - { offsetInCU: 0x30B58, offset: 0x2BA312, size: 0x8, addend: 0x0, symName: '__ZN4core3ptr88drop_in_place$LT$alloc..vec..Vec$LT$$LP$syn..item..FnArg$C$syn..token..Comma$RP$$GT$$GT$17h4467406a7c8f89d5E.llvm.16532739692444164112', symObjAddr: 0x8610, symBinAddr: 0x95130, symSize: 0xD0 }
  - { offsetInCU: 0x30E57, offset: 0x2BA611, size: 0x8, addend: 0x0, symName: '__ZN4core3ptr89drop_in_place$LT$core..option..Option$LT$alloc..boxed..Box$LT$syn..expr..Expr$GT$$GT$$GT$17hdc211ccd33f196f2E', symObjAddr: 0x86E0, symBinAddr: 0x95200, symSize: 0x50 }
  - { offsetInCU: 0x31005, offset: 0x2BA7BF, size: 0x8, addend: 0x0, symName: '__ZN4core3ptr89drop_in_place$LT$syn..punctuated..Punctuated$LT$syn..pat..Pat$C$syn..token..Comma$GT$$GT$17hf8371102b0500adcE', symObjAddr: 0x8730, symBinAddr: 0x95250, symSize: 0x120 }
  - { offsetInCU: 0x31497, offset: 0x2BAC51, size: 0x8, addend: 0x0, symName: '__ZN4core3ptr89drop_in_place$LT$syn..punctuated..Punctuated$LT$syn..ty..Type$C$syn..token..Comma$GT$$GT$17h1c6e43341fabea97E.llvm.16532739692444164112', symObjAddr: 0x8850, symBinAddr: 0x95370, symSize: 0x120 }
  - { offsetInCU: 0x31931, offset: 0x2BB0EB, size: 0x8, addend: 0x0, symName: '__ZN4core3ptr90drop_in_place$LT$alloc..vec..Vec$LT$$LP$syn..data..Variant$C$syn..token..Comma$RP$$GT$$GT$17h7886d5ad254619b6E.llvm.16532739692444164112', symObjAddr: 0x8970, symBinAddr: 0x95490, symSize: 0xD0 }
  - { offsetInCU: 0x31C44, offset: 0x2BB3FE, size: 0x8, addend: 0x0, symName: '__ZN4core3ptr90drop_in_place$LT$alloc..vec..Vec$LT$$LP$syn..item..UseTree$C$syn..token..Comma$RP$$GT$$GT$17hd641cf5199af6a96E.llvm.16532739692444164112', symObjAddr: 0x8A40, symBinAddr: 0x95560, symSize: 0xC0 }
  - { offsetInCU: 0x31F36, offset: 0x2BB6F0, size: 0x8, addend: 0x0, symName: '__ZN4core3ptr90drop_in_place$LT$alloc..vec..Vec$LT$$LP$syn..pat..FieldPat$C$syn..token..Comma$RP$$GT$$GT$17h821f3c6217b2c623E.llvm.16532739692444164112', symObjAddr: 0x8B00, symBinAddr: 0x95620, symSize: 0xD0 }
  - { offsetInCU: 0x321F8, offset: 0x2BB9B2, size: 0x8, addend: 0x0, symName: '__ZN4core3ptr90drop_in_place$LT$alloc..vec..Vec$LT$$LP$syn..ty..BareFnArg$C$syn..token..Comma$RP$$GT$$GT$17hb8d63f816cfff9deE.llvm.16532739692444164112', symObjAddr: 0x8BD0, symBinAddr: 0x956F0, symSize: 0xD0 }
  - { offsetInCU: 0x324D7, offset: 0x2BBC91, size: 0x8, addend: 0x0, symName: '__ZN4core3ptr90drop_in_place$LT$core..option..Option$LT$alloc..boxed..Box$LT$syn..data..Field$GT$$GT$$GT$17he146e9f4e32c136fE.llvm.16532739692444164112', symObjAddr: 0x8CA0, symBinAddr: 0x957C0, symSize: 0x50 }
  - { offsetInCU: 0x32659, offset: 0x2BBE13, size: 0x8, addend: 0x0, symName: '__ZN4core3ptr91drop_in_place$LT$syn..punctuated..Punctuated$LT$syn..expr..Expr$C$syn..token..Comma$GT$$GT$17hd2dfeb0c522d9a18E.llvm.16532739692444164112', symObjAddr: 0x8CF0, symBinAddr: 0x95810, symSize: 0x120 }
  - { offsetInCU: 0x32B06, offset: 0x2BC2C0, size: 0x8, addend: 0x0, symName: '__ZN4core3ptr92drop_in_place$LT$core..option..Option$LT$alloc..boxed..Box$LT$syn..data..Variant$GT$$GT$$GT$17h9c9c8f3c1dc56a70E', symObjAddr: 0x8E10, symBinAddr: 0x95930, symSize: 0x50 }
  - { offsetInCU: 0x32CA7, offset: 0x2BC461, size: 0x8, addend: 0x0, symName: '__ZN4core3ptr92drop_in_place$LT$syn..punctuated..Punctuated$LT$syn..data..Field$C$syn..token..Comma$GT$$GT$17h907c4fed8ae64bc3E', symObjAddr: 0x8E60, symBinAddr: 0x95980, symSize: 0x120 }
  - { offsetInCU: 0x33134, offset: 0x2BC8EE, size: 0x8, addend: 0x0, symName: '__ZN4core3ptr93drop_in_place$LT$alloc..vec..Vec$LT$$LP$syn..expr..FieldValue$C$syn..token..Comma$RP$$GT$$GT$17hd798ac33b9d22184E.llvm.16532739692444164112', symObjAddr: 0x9050, symBinAddr: 0x95AA0, symSize: 0xD0 }
  - { offsetInCU: 0x33413, offset: 0x2BCBCD, size: 0x8, addend: 0x0, symName: '__ZN4core3ptr93drop_in_place$LT$alloc..vec..Vec$LT$$LP$syn..lifetime..Lifetime$C$syn..token..Add$RP$$GT$$GT$17hde298d17c652af62E.llvm.16532739692444164112', symObjAddr: 0x9120, symBinAddr: 0x95B70, symSize: 0x90 }
  - { offsetInCU: 0x336F5, offset: 0x2BCEAF, size: 0x8, addend: 0x0, symName: '__ZN4core3ptr94drop_in_place$LT$syn..punctuated..Punctuated$LT$syn..data..Variant$C$syn..token..Comma$GT$$GT$17hb4480d65f74dc9d7E', symObjAddr: 0x91B0, symBinAddr: 0x95C00, symSize: 0x120 }
  - { offsetInCU: 0x33BA1, offset: 0x2BD35B, size: 0x8, addend: 0x0, symName: '__ZN4core3ptr94drop_in_place$LT$syn..punctuated..Punctuated$LT$syn..item..UseTree$C$syn..token..Comma$GT$$GT$17ha837d38586774c87E', symObjAddr: 0x92D0, symBinAddr: 0x95D20, symSize: 0xF0 }
  - { offsetInCU: 0x33EE3, offset: 0x2BD69D, size: 0x8, addend: 0x0, symName: '__ZN4core3ptr94drop_in_place$LT$syn..punctuated..Punctuated$LT$syn..pat..FieldPat$C$syn..token..Comma$GT$$GT$17h612cbc9066d5afb1E', symObjAddr: 0x93C0, symBinAddr: 0x95E10, symSize: 0xF0 }
  - { offsetInCU: 0x341E2, offset: 0x2BD99C, size: 0x8, addend: 0x0, symName: '__ZN4core3ptr94drop_in_place$LT$syn..punctuated..Punctuated$LT$syn..ty..BareFnArg$C$syn..token..Comma$GT$$GT$17ha9a668ce9972795bE', symObjAddr: 0x94B0, symBinAddr: 0x95F00, symSize: 0xF0 }
  - { offsetInCU: 0x344DF, offset: 0x2BDC99, size: 0x8, addend: 0x0, symName: '__ZN4core3ptr95drop_in_place$LT$alloc..vec..Vec$LT$$LP$syn..path..PathSegment$C$syn..token..Colon2$RP$$GT$$GT$17hd4ac5ab6c0f8b220E.llvm.16532739692444164112', symObjAddr: 0x95A0, symBinAddr: 0x95FF0, symSize: 0xD0 }
  - { offsetInCU: 0x347A1, offset: 0x2BDF5B, size: 0x8, addend: 0x0, symName: '__ZN4core3ptr95drop_in_place$LT$core..option..Option$LT$$LP$proc_macro2..Ident$C$syn..token..Colon$RP$$GT$$GT$17h7314df562090eafdE.llvm.16532739692444164112', symObjAddr: 0x9670, symBinAddr: 0x960C0, symSize: 0x30 }
  - { offsetInCU: 0x348FA, offset: 0x2BE0B4, size: 0x8, addend: 0x0, symName: '__ZN4core3ptr96drop_in_place$LT$core..option..Option$LT$alloc..boxed..Box$LT$syn..path..PathSegment$GT$$GT$$GT$17h2e81cbe3c70bb71cE.llvm.16532739692444164112', symObjAddr: 0x96A0, symBinAddr: 0x960F0, symSize: 0x180 }
  - { offsetInCU: 0x35033, offset: 0x2BE7ED, size: 0x8, addend: 0x0, symName: '__ZN4core3ptr97drop_in_place$LT$syn..punctuated..Punctuated$LT$syn..attr..NestedMeta$C$syn..token..Comma$GT$$GT$17h975d4de078ee9c5cE', symObjAddr: 0x9870, symBinAddr: 0x96270, symSize: 0x140 }
  - { offsetInCU: 0x354A6, offset: 0x2BEC60, size: 0x8, addend: 0x0, symName: '__ZN4core3ptr97drop_in_place$LT$syn..punctuated..Punctuated$LT$syn..expr..FieldValue$C$syn..token..Comma$GT$$GT$17h11a5fffb46adfb11E', symObjAddr: 0x99B0, symBinAddr: 0x963B0, symSize: 0xF0 }
  - { offsetInCU: 0x357E1, offset: 0x2BEF9B, size: 0x8, addend: 0x0, symName: '__ZN4core3ptr97drop_in_place$LT$syn..punctuated..Punctuated$LT$syn..lifetime..Lifetime$C$syn..token..Add$GT$$GT$17h5c54dea2c838d109E.llvm.16532739692444164112', symObjAddr: 0x9AA0, symBinAddr: 0x964A0, symSize: 0xD0 }
  - { offsetInCU: 0x35C55, offset: 0x2BF40F, size: 0x8, addend: 0x0, symName: '__ZN4core3ptr98drop_in_place$LT$alloc..vec..Vec$LT$$LP$syn..generics..LifetimeDef$C$syn..token..Comma$RP$$GT$$GT$17h1ff3008828a3546eE.llvm.16532739692444164112', symObjAddr: 0x9B70, symBinAddr: 0x96570, symSize: 0xC0 }
  - { offsetInCU: 0x35F13, offset: 0x2BF6CD, size: 0x8, addend: 0x0, symName: '__ZN4core3ptr98drop_in_place$LT$alloc..vec..Vec$LT$$LP$syn..path..GenericArgument$C$syn..token..Comma$RP$$GT$$GT$17ha8e33b474744c469E.llvm.16532739692444164112', symObjAddr: 0x9C30, symBinAddr: 0x96630, symSize: 0xD0 }
  - { offsetInCU: 0x3624F, offset: 0x2BFA09, size: 0x8, addend: 0x0, symName: '__ZN4core3ptr98drop_in_place$LT$syn..punctuated..IntoPairs$LT$syn..path..PathSegment$C$syn..token..Colon2$GT$$GT$17ha9c816c5dc080402E', symObjAddr: 0x9D00, symBinAddr: 0x96700, symSize: 0x50 }
  - { offsetInCU: 0x36344, offset: 0x2BFAFE, size: 0x8, addend: 0x0, symName: '__ZN4core3ptr99drop_in_place$LT$alloc..vec..Vec$LT$$LP$syn..generics..GenericParam$C$syn..token..Comma$RP$$GT$$GT$17h6a63382b7b118436E.llvm.16532739692444164112', symObjAddr: 0x9D50, symBinAddr: 0x96750, symSize: 0x60 }
  - { offsetInCU: 0x36586, offset: 0x2BFD40, size: 0x8, addend: 0x0, symName: '__ZN4core3ptr99drop_in_place$LT$alloc..vec..Vec$LT$$LP$syn..generics..TypeParamBound$C$syn..token..Add$RP$$GT$$GT$17h1faee7dfcf042dc4E.llvm.16532739692444164112', symObjAddr: 0x9DB0, symBinAddr: 0x967B0, symSize: 0x60 }
  - { offsetInCU: 0x367D2, offset: 0x2BFF8C, size: 0x8, addend: 0x0, symName: '__ZN4core3ptr99drop_in_place$LT$syn..punctuated..Punctuated$LT$syn..path..PathSegment$C$syn..token..Colon2$GT$$GT$17hb961e4d7989a33ceE', symObjAddr: 0x9E10, symBinAddr: 0x96810, symSize: 0x120 }
  - { offsetInCU: 0x3EF1B, offset: 0x2C86D5, size: 0x8, addend: 0x0, symName: __ZN4core4iter6traits10exact_size17ExactSizeIterator8is_empty17h1bc6241bf1888e40E.llvm.16532739692444164112, symObjAddr: 0x9F30, symBinAddr: 0x96930, symSize: 0x30 }
  - { offsetInCU: 0x3F093, offset: 0x2C884D, size: 0x8, addend: 0x0, symName: __ZN4core4iter6traits12double_ended19DoubleEndedIterator15advance_back_by17h653dda07e28b399cE.llvm.16532739692444164112, symObjAddr: 0xA0F0, symBinAddr: 0x96960, symSize: 0x70 }
  - { offsetInCU: 0x3F2F8, offset: 0x2C8AB2, size: 0x8, addend: 0x0, symName: __ZN4core4iter6traits12double_ended19DoubleEndedIterator8nth_back17hed9022273c30defeE.llvm.16532739692444164112, symObjAddr: 0xA3B0, symBinAddr: 0x969D0, symSize: 0xA0 }
  - { offsetInCU: 0x3F793, offset: 0x2C8F4D, size: 0x8, addend: 0x0, symName: __ZN4core4iter6traits8iterator8Iterator10advance_by17he4016f4f7eb36f58E.llvm.16532739692444164112, symObjAddr: 0xA590, symBinAddr: 0x96A70, symSize: 0x60 }
  - { offsetInCU: 0x3FAE5, offset: 0x2C929F, size: 0x8, addend: 0x0, symName: __ZN4core4iter6traits8iterator8Iterator3nth17he19de029313aec56E.llvm.16532739692444164112, symObjAddr: 0xA770, symBinAddr: 0x96AD0, symSize: 0x80 }
  - { offsetInCU: 0x4007F, offset: 0x2C9839, size: 0x8, addend: 0x0, symName: __ZN4core4iter6traits8iterator8Iterator9size_hint17h0104108dabb19d93E.llvm.16532739692444164112, symObjAddr: 0xA7F0, symBinAddr: 0x96B50, symSize: 0x0 }
  - { offsetInCU: 0x41A41, offset: 0x2CB1FB, size: 0x8, addend: 0x0, symName: _anon.6d16f1a36471c80d3de82dc9b4f7a556.7.llvm.16532739692444164112, symObjAddr: 0x156C8, symBinAddr: 0x288A10, symSize: 0x0 }
  - { offsetInCU: 0x4376E, offset: 0x2CCF28, size: 0x8, addend: 0x0, symName: '__ZN3syn10punctuated23Punctuated$LT$T$C$P$GT$4iter17hb5b1f3ac16f65eacE', symObjAddr: 0xAA10, symBinAddr: 0x96B70, symSize: 0x70 }
  - { offsetInCU: 0x44139, offset: 0x2CD8F3, size: 0x8, addend: 0x0, symName: '__ZN3syn10punctuated23Punctuated$LT$T$C$P$GT$10push_value17h14b7c2c4fe5ffb09E', symObjAddr: 0xAF00, symBinAddr: 0x96BE0, symSize: 0xA0 }
  - { offsetInCU: 0x44378, offset: 0x2CDB32, size: 0x8, addend: 0x0, symName: '__ZN3syn10punctuated23Punctuated$LT$T$C$P$GT$10push_value17h39f3d53d0765bd8bE', symObjAddr: 0xAFA0, symBinAddr: 0x96C80, symSize: 0x0 }
  - { offsetInCU: 0x445AB, offset: 0x2CDD65, size: 0x8, addend: 0x0, symName: '__ZN3syn10punctuated23Punctuated$LT$T$C$P$GT$10push_value17h3ebbefe6892129a3E', symObjAddr: 0xB070, symBinAddr: 0x96D50, symSize: 0xA0 }
  - { offsetInCU: 0x447DD, offset: 0x2CDF97, size: 0x8, addend: 0x0, symName: '__ZN3syn10punctuated23Punctuated$LT$T$C$P$GT$10push_value17h6654a5202d87b9adE', symObjAddr: 0xB110, symBinAddr: 0x96DF0, symSize: 0xD0 }
  - { offsetInCU: 0x44A10, offset: 0x2CE1CA, size: 0x8, addend: 0x0, symName: '__ZN3syn10punctuated23Punctuated$LT$T$C$P$GT$10push_value17h68728aa7418e1828E', symObjAddr: 0xB1E0, symBinAddr: 0x96EC0, symSize: 0xE0 }
  - { offsetInCU: 0x44D4D, offset: 0x2CE507, size: 0x8, addend: 0x0, symName: '__ZN3syn10punctuated23Punctuated$LT$T$C$P$GT$10push_value17h734c18a193061288E', symObjAddr: 0xB2C0, symBinAddr: 0x96FA0, symSize: 0xD0 }
  - { offsetInCU: 0x44F72, offset: 0x2CE72C, size: 0x8, addend: 0x0, symName: '__ZN3syn10punctuated23Punctuated$LT$T$C$P$GT$10push_value17h738c10366c9a624bE', symObjAddr: 0xB390, symBinAddr: 0x97070, symSize: 0xD0 }
  - { offsetInCU: 0x451A5, offset: 0x2CE95F, size: 0x8, addend: 0x0, symName: '__ZN3syn10punctuated23Punctuated$LT$T$C$P$GT$10push_value17h8a453bad6a782ffeE', symObjAddr: 0xB460, symBinAddr: 0x97140, symSize: 0xD0 }
  - { offsetInCU: 0x453CB, offset: 0x2CEB85, size: 0x8, addend: 0x0, symName: '__ZN3syn10punctuated23Punctuated$LT$T$C$P$GT$10push_value17h958c5485234fa2d2E', symObjAddr: 0xB530, symBinAddr: 0x97210, symSize: 0xA0 }
  - { offsetInCU: 0x45617, offset: 0x2CEDD1, size: 0x8, addend: 0x0, symName: '__ZN3syn10punctuated23Punctuated$LT$T$C$P$GT$10push_value17ha121070897ba71bbE', symObjAddr: 0xB5D0, symBinAddr: 0x972B0, symSize: 0xD0 }
  - { offsetInCU: 0x4584A, offset: 0x2CF004, size: 0x8, addend: 0x0, symName: '__ZN3syn10punctuated23Punctuated$LT$T$C$P$GT$10push_value17hc23a986ec6344064E', symObjAddr: 0xB6A0, symBinAddr: 0x97380, symSize: 0xD0 }
  - { offsetInCU: 0x45A7C, offset: 0x2CF236, size: 0x8, addend: 0x0, symName: '__ZN3syn10punctuated23Punctuated$LT$T$C$P$GT$10push_value17hc8fea27b62230799E', symObjAddr: 0xB770, symBinAddr: 0x97450, symSize: 0xD0 }
  - { offsetInCU: 0x45CAF, offset: 0x2CF469, size: 0x8, addend: 0x0, symName: '__ZN3syn10punctuated23Punctuated$LT$T$C$P$GT$10push_value17hd58984c4db98708fE', symObjAddr: 0xB840, symBinAddr: 0x97520, symSize: 0xD0 }
  - { offsetInCU: 0x45EE2, offset: 0x2CF69C, size: 0x8, addend: 0x0, symName: '__ZN3syn10punctuated23Punctuated$LT$T$C$P$GT$10push_value17he9d5642b6abab872E', symObjAddr: 0xB910, symBinAddr: 0x975F0, symSize: 0xD0 }
  - { offsetInCU: 0x4613E, offset: 0x2CF8F8, size: 0x8, addend: 0x0, symName: '__ZN3syn10punctuated23Punctuated$LT$T$C$P$GT$10push_punct17h05097ced3e641863E', symObjAddr: 0xB9E0, symBinAddr: 0x976C0, symSize: 0xE0 }
  - { offsetInCU: 0x464EE, offset: 0x2CFCA8, size: 0x8, addend: 0x0, symName: '__ZN3syn10punctuated23Punctuated$LT$T$C$P$GT$10push_punct17h11ba52321bf5bea8E', symObjAddr: 0xBAC0, symBinAddr: 0x977A0, symSize: 0xE0 }
  - { offsetInCU: 0x468BE, offset: 0x2D0078, size: 0x8, addend: 0x0, symName: '__ZN3syn10punctuated23Punctuated$LT$T$C$P$GT$10push_punct17h2dceda0901d1267aE', symObjAddr: 0xBBA0, symBinAddr: 0x97880, symSize: 0xE0 }
  - { offsetInCU: 0x46C8E, offset: 0x2D0448, size: 0x8, addend: 0x0, symName: '__ZN3syn10punctuated23Punctuated$LT$T$C$P$GT$10push_punct17h30da73095861d121E', symObjAddr: 0xBC80, symBinAddr: 0x97960, symSize: 0xE0 }
  - { offsetInCU: 0x470AC, offset: 0x2D0866, size: 0x8, addend: 0x0, symName: '__ZN3syn10punctuated23Punctuated$LT$T$C$P$GT$10push_punct17h400c66537f83dc5bE', symObjAddr: 0xBD60, symBinAddr: 0x97A40, symSize: 0x120 }
  - { offsetInCU: 0x475DC, offset: 0x2D0D96, size: 0x8, addend: 0x0, symName: '__ZN3syn10punctuated23Punctuated$LT$T$C$P$GT$10push_punct17h500d37b1c0505005E', symObjAddr: 0xBE80, symBinAddr: 0x97B60, symSize: 0xE0 }
  - { offsetInCU: 0x479AC, offset: 0x2D1166, size: 0x8, addend: 0x0, symName: '__ZN3syn10punctuated23Punctuated$LT$T$C$P$GT$10push_punct17h53a23ce0aae9ffc1E', symObjAddr: 0xBF60, symBinAddr: 0x97C40, symSize: 0xC0 }
  - { offsetInCU: 0x47D6F, offset: 0x2D1529, size: 0x8, addend: 0x0, symName: '__ZN3syn10punctuated23Punctuated$LT$T$C$P$GT$10push_punct17h70a79c86c88cff65E', symObjAddr: 0xC020, symBinAddr: 0x97D00, symSize: 0xC0 }
  - { offsetInCU: 0x4814C, offset: 0x2D1906, size: 0x8, addend: 0x0, symName: '__ZN3syn10punctuated23Punctuated$LT$T$C$P$GT$10push_punct17h79f957a4f7bfa4bdE', symObjAddr: 0xC0E0, symBinAddr: 0x97DC0, symSize: 0xD0 }
  - { offsetInCU: 0x4851C, offset: 0x2D1CD6, size: 0x8, addend: 0x0, symName: '__ZN3syn10punctuated23Punctuated$LT$T$C$P$GT$10push_punct17h9ff63fe42d8a305bE', symObjAddr: 0xC1B0, symBinAddr: 0x97E90, symSize: 0xE0 }
  - { offsetInCU: 0x488EC, offset: 0x2D20A6, size: 0x8, addend: 0x0, symName: '__ZN3syn10punctuated23Punctuated$LT$T$C$P$GT$10push_punct17haa5636a409edefeeE', symObjAddr: 0xC290, symBinAddr: 0x97F70, symSize: 0xE0 }
  - { offsetInCU: 0x48CBC, offset: 0x2D2476, size: 0x8, addend: 0x0, symName: '__ZN3syn10punctuated23Punctuated$LT$T$C$P$GT$10push_punct17had77e3ca97751ca0E', symObjAddr: 0xC370, symBinAddr: 0x98050, symSize: 0x100 }
  - { offsetInCU: 0x4908C, offset: 0x2D2846, size: 0x8, addend: 0x0, symName: '__ZN3syn10punctuated23Punctuated$LT$T$C$P$GT$10push_punct17hd1e26f9cc5ff1a0fE', symObjAddr: 0xC470, symBinAddr: 0x98150, symSize: 0xD0 }
  - { offsetInCU: 0x49469, offset: 0x2D2C23, size: 0x8, addend: 0x0, symName: '__ZN3syn10punctuated23Punctuated$LT$T$C$P$GT$10push_punct17hd921c69c8d719ce4E', symObjAddr: 0xC540, symBinAddr: 0x98220, symSize: 0xE0 }
  - { offsetInCU: 0x4982C, offset: 0x2D2FE6, size: 0x8, addend: 0x0, symName: '__ZN3syn10punctuated23Punctuated$LT$T$C$P$GT$10push_punct17he79340c1cde0cc34E', symObjAddr: 0xC620, symBinAddr: 0x98300, symSize: 0xE0 }
  - { offsetInCU: 0x49BEF, offset: 0x2D33A9, size: 0x8, addend: 0x0, symName: '__ZN3syn10punctuated23Punctuated$LT$T$C$P$GT$10push_punct17hec278db3946341f0E', symObjAddr: 0xC700, symBinAddr: 0x983E0, symSize: 0xE0 }
  - { offsetInCU: 0x4A06E, offset: 0x2D3828, size: 0x8, addend: 0x0, symName: '__ZN3syn10punctuated23Punctuated$LT$T$C$P$GT$3pop17h5d3ca22f68e5e0caE', symObjAddr: 0xC7E0, symBinAddr: 0x984C0, symSize: 0x90 }
  - { offsetInCU: 0x4A45C, offset: 0x2D3C16, size: 0x8, addend: 0x0, symName: '__ZN3syn10punctuated23Punctuated$LT$T$C$P$GT$4push17hcfa9ee726330b377E', symObjAddr: 0xC870, symBinAddr: 0x98550, symSize: 0x130 }
  - { offsetInCU: 0x4A7CB, offset: 0x2D3F85, size: 0x8, addend: 0x0, symName: '__ZN3syn10punctuated23Punctuated$LT$T$C$P$GT$6insert17h4136fb255bf8292aE', symObjAddr: 0xC9A0, symBinAddr: 0x98680, symSize: 0x170 }
  - { offsetInCU: 0x4ABB1, offset: 0x2D436B, size: 0x8, addend: 0x0, symName: '__ZN3syn10punctuated23Punctuated$LT$T$C$P$GT$5clear17h2c657785aa52c10eE', symObjAddr: 0xCB10, symBinAddr: 0x987F0, symSize: 0xA0 }
  - { offsetInCU: 0x4AFD2, offset: 0x2D478C, size: 0x8, addend: 0x0, symName: '__ZN3syn10punctuated23Punctuated$LT$T$C$P$GT$21parse_terminated_with17h0d42de968702d743E', symObjAddr: 0xCBB0, symBinAddr: 0x98890, symSize: 0x320 }
  - { offsetInCU: 0x4B9A5, offset: 0x2D515F, size: 0x8, addend: 0x0, symName: '__ZN3syn10punctuated23Punctuated$LT$T$C$P$GT$21parse_terminated_with17h3502cbc50f6e66fbE', symObjAddr: 0xCED0, symBinAddr: 0x98BB0, symSize: 0x340 }
  - { offsetInCU: 0x4C355, offset: 0x2D5B0F, size: 0x8, addend: 0x0, symName: '__ZN3syn10punctuated23Punctuated$LT$T$C$P$GT$21parse_terminated_with17h5843760d31b55a9fE', symObjAddr: 0xD3E0, symBinAddr: 0x98EF0, symSize: 0x330 }
  - { offsetInCU: 0x4CDA8, offset: 0x2D6562, size: 0x8, addend: 0x0, symName: '__ZN3syn10punctuated23Punctuated$LT$T$C$P$GT$21parse_terminated_with17ha0e926b3a5c69310E', symObjAddr: 0xD8E0, symBinAddr: 0x99220, symSize: 0x420 }
  - { offsetInCU: 0x2340, offset: 0x2DFDA1, size: 0x8, addend: 0x0, symName: '__ZN3syn4expr8printing82_$LT$impl$u20$quote..to_tokens..ToTokens$u20$for$u20$syn..expr..ExprMethodCall$GT$9to_tokens17h52deca7c2bdcde8fE', symObjAddr: 0x11080, symBinAddr: 0xA8B80, symSize: 0x260 }
  - { offsetInCU: 0x2E0C, offset: 0x2E086D, size: 0x8, addend: 0x0, symName: '__ZN3syn4expr8printing77_$LT$impl$u20$quote..to_tokens..ToTokens$u20$for$u20$syn..expr..ExprWhile$GT$9to_tokens17hb73b17451a9f393bE', symObjAddr: 0x11DD0, symBinAddr: 0xA8DE0, symSize: 0x220 }
  - { offsetInCU: 0x3503, offset: 0x2E0F64, size: 0x8, addend: 0x0, symName: '__ZN3syn4expr8printing79_$LT$impl$u20$quote..to_tokens..ToTokens$u20$for$u20$syn..expr..ExprForLoop$GT$9to_tokens17hc158e0517546c263E', symObjAddr: 0x11FF0, symBinAddr: 0xA9000, symSize: 0x2A0 }
  - { offsetInCU: 0x3E31, offset: 0x2E1892, size: 0x8, addend: 0x0, symName: '__ZN3syn4expr8printing79_$LT$impl$u20$quote..to_tokens..ToTokens$u20$for$u20$syn..expr..ExprClosure$GT$9to_tokens17h02addd229d205f12E', symObjAddr: 0x12C10, symBinAddr: 0xA92A0, symSize: 0x350 }
  - { offsetInCU: 0x4B6A, offset: 0x2E25CB, size: 0x8, addend: 0x0, symName: '__ZN3syn4expr8printing74_$LT$impl$u20$quote..to_tokens..ToTokens$u20$for$u20$syn..expr..Member$GT$9to_tokens17hc47f96e76f134d40E', symObjAddr: 0x134F0, symBinAddr: 0xA95F0, symSize: 0xC0 }
  - { offsetInCU: 0x5161, offset: 0x2E2BC2, size: 0x8, addend: 0x0, symName: '__ZN3syn4expr8printing78_$LT$impl$u20$quote..to_tokens..ToTokens$u20$for$u20$syn..expr..FieldValue$GT$9to_tokens17hca3924738fecf8aaE', symObjAddr: 0x14670, symBinAddr: 0xA96B0, symSize: 0x1C0 }
  - { offsetInCU: 0x57EF, offset: 0x2E3250, size: 0x8, addend: 0x0, symName: '__ZN3syn4expr8printing71_$LT$impl$u20$quote..to_tokens..ToTokens$u20$for$u20$syn..expr..Arm$GT$9to_tokens17hfe03b45f4f23e934E', symObjAddr: 0x14830, symBinAddr: 0xA9870, symSize: 0x1D0 }
  - { offsetInCU: 0x5C26, offset: 0x2E3687, size: 0x8, addend: 0x0, symName: '__ZN3syn4expr7parsing63_$LT$impl$u20$syn..parse..Parse$u20$for$u20$syn..expr..Expr$GT$5parse17hc5dd14a6ed6ae10aE', symObjAddr: 0xA160, symBinAddr: 0xA2D20, symSize: 0xF0 }
  - { offsetInCU: 0x5CD6, offset: 0x2E3737, size: 0x8, addend: 0x0, symName: '__ZN3syn4expr7parsing66_$LT$impl$u20$syn..parse..Parse$u20$for$u20$syn..expr..ExprLit$GT$5parse17hcc638e3114e2713bE', symObjAddr: 0xAB80, symBinAddr: 0xA2E10, symSize: 0xF0 }
  - { offsetInCU: 0x5DE9, offset: 0x2E384A, size: 0x8, addend: 0x0, symName: '__ZN3syn4expr7parsing80_$LT$impl$u20$syn..parse..Parse$u20$for$u20$syn..expr..GenericMethodArgument$GT$5parse17h9e0e87e386c05d46E', symObjAddr: 0xAC90, symBinAddr: 0xA2F00, symSize: 0x2E0 }
  - { offsetInCU: 0x6189, offset: 0x2E3BEA, size: 0x8, addend: 0x0, symName: '__ZN3syn4expr7parsing74_$LT$impl$u20$syn..parse..Parse$u20$for$u20$syn..expr..MethodTurbofish$GT$5parse17hc687ec8e69e7b20fE', symObjAddr: 0xAF70, symBinAddr: 0xA31E0, symSize: 0x350 }
  - { offsetInCU: 0x669B, offset: 0x2E40FC, size: 0x8, addend: 0x0, symName: '__ZN3syn4expr7parsing66_$LT$impl$u20$syn..parse..Parse$u20$for$u20$syn..expr..ExprLet$GT$5parse17hb569fb53f5daeca8E', symObjAddr: 0xB2C0, symBinAddr: 0xA3530, symSize: 0x4C0 }
  - { offsetInCU: 0x6C40, offset: 0x2E46A1, size: 0x8, addend: 0x0, symName: '__ZN3syn4expr7parsing65_$LT$impl$u20$syn..parse..Parse$u20$for$u20$syn..expr..ExprIf$GT$5parse17hc3bbb8a442518a70E', symObjAddr: 0xB780, symBinAddr: 0xA39F0, symSize: 0x700 }
  - { offsetInCU: 0x75EE, offset: 0x2E504F, size: 0x8, addend: 0x0, symName: '__ZN3syn4expr7parsing70_$LT$impl$u20$syn..parse..Parse$u20$for$u20$syn..expr..ExprForLoop$GT$5parse17h70f397294e42a49dE', symObjAddr: 0xBE80, symBinAddr: 0xA40F0, symSize: 0xA40 }
  - { offsetInCU: 0x84C7, offset: 0x2E5F28, size: 0x8, addend: 0x0, symName: '__ZN3syn4expr7parsing67_$LT$impl$u20$syn..parse..Parse$u20$for$u20$syn..expr..ExprLoop$GT$5parse17h2feb6f1c5e586e7dE', symObjAddr: 0xC8C0, symBinAddr: 0xA4B30, symSize: 0x560 }
  - { offsetInCU: 0x91C3, offset: 0x2E6C24, size: 0x8, addend: 0x0, symName: '__ZN3syn4expr7parsing68_$LT$impl$u20$syn..parse..Parse$u20$for$u20$syn..expr..ExprMatch$GT$5parse17hd6f41d4fa4c8de12E', symObjAddr: 0xCE20, symBinAddr: 0xA5090, symSize: 0x820 }
  - { offsetInCU: 0xA114, offset: 0x2E7B75, size: 0x8, addend: 0x0, symName: '__ZN3syn4expr7parsing71_$LT$impl$u20$syn..parse..Parse$u20$for$u20$syn..expr..ExprTryBlock$GT$5parse17h5554543154d3c4b6E', symObjAddr: 0xD9A0, symBinAddr: 0xA58B0, symSize: 0x140 }
  - { offsetInCU: 0xA2A5, offset: 0x2E7D06, size: 0x8, addend: 0x0, symName: '__ZN3syn4expr7parsing68_$LT$impl$u20$syn..parse..Parse$u20$for$u20$syn..expr..ExprYield$GT$5parse17hc3f7685155a8ca99E', symObjAddr: 0xDAE0, symBinAddr: 0xA59F0, symSize: 0x150 }
  - { offsetInCU: 0xA629, offset: 0x2E808A, size: 0x8, addend: 0x0, symName: '__ZN3syn4expr7parsing68_$LT$impl$u20$syn..parse..Parse$u20$for$u20$syn..expr..ExprAsync$GT$5parse17he43ed43a6e470a06E', symObjAddr: 0xDC30, symBinAddr: 0xA5B40, symSize: 0x1D0 }
  - { offsetInCU: 0xA93D, offset: 0x2E839E, size: 0x8, addend: 0x0, symName: '__ZN3syn4expr7parsing68_$LT$impl$u20$syn..parse..Parse$u20$for$u20$syn..expr..ExprWhile$GT$5parse17h94fbc04744e04bd5E', symObjAddr: 0xDE00, symBinAddr: 0xA5D10, symSize: 0x8A0 }
  - { offsetInCU: 0xB664, offset: 0x2E90C5, size: 0x8, addend: 0x0, symName: '__ZN3syn4expr7parsing64_$LT$impl$u20$syn..parse..Parse$u20$for$u20$syn..expr..Label$GT$5parse17h4b99929e595412a8E', symObjAddr: 0xE6A0, symBinAddr: 0xA65B0, symSize: 0x230 }
  - { offsetInCU: 0xBB1C, offset: 0x2E957D, size: 0x8, addend: 0x0, symName: '__ZN3syn4expr7parsing71_$LT$impl$u20$syn..parse..Parse$u20$for$u20$syn..expr..ExprContinue$GT$5parse17hd8b0e00434855c5dE', symObjAddr: 0xE8D0, symBinAddr: 0xA67E0, symSize: 0x1B0 }
  - { offsetInCU: 0xBC9E, offset: 0x2E96FF, size: 0x8, addend: 0x0, symName: '__ZN3syn4expr7parsing69_$LT$impl$u20$syn..parse..Parse$u20$for$u20$syn..expr..FieldValue$GT$5parse17h789c7fa607c23413E', symObjAddr: 0xEA80, symBinAddr: 0xA6990, symSize: 0x6D0 }
  - { offsetInCU: 0xC761, offset: 0x2EA1C2, size: 0x8, addend: 0x0, symName: '__ZN3syn4expr7parsing69_$LT$impl$u20$syn..parse..Parse$u20$for$u20$syn..expr..ExprUnsafe$GT$5parse17ha2c47789b9924b10E', symObjAddr: 0xF210, symBinAddr: 0xA7060, symSize: 0x3A0 }
  - { offsetInCU: 0xCFA4, offset: 0x2EAA05, size: 0x8, addend: 0x0, symName: '__ZN3syn4expr7parsing68_$LT$impl$u20$syn..parse..Parse$u20$for$u20$syn..expr..ExprBlock$GT$5parse17h5f8eacd79eed7a3aE', symObjAddr: 0xF5B0, symBinAddr: 0xA7400, symSize: 0x540 }
  - { offsetInCU: 0xDC92, offset: 0x2EB6F3, size: 0x8, addend: 0x0, symName: '__ZN3syn4expr7parsing70_$LT$impl$u20$syn..parse..Parse$u20$for$u20$syn..expr..RangeLimits$GT$5parse17h55d2abebfdd8f5b2E', symObjAddr: 0xFAF0, symBinAddr: 0xA7940, symSize: 0x330 }
  - { offsetInCU: 0xEB4A, offset: 0x2EC5AB, size: 0x8, addend: 0x0, symName: '__ZN3syn4expr7parsing67_$LT$impl$u20$syn..parse..Parse$u20$for$u20$syn..expr..ExprPath$GT$5parse17h5999d7526d4caa01E', symObjAddr: 0xFE20, symBinAddr: 0xA7C70, symSize: 0x270 }
  - { offsetInCU: 0xEF99, offset: 0x2EC9FA, size: 0x8, addend: 0x0, symName: '__ZN3syn4expr7parsing65_$LT$impl$u20$syn..parse..Parse$u20$for$u20$syn..expr..Member$GT$5parse17h3c1f6e1ffd72b36eE', symObjAddr: 0x10090, symBinAddr: 0xA7EE0, symSize: 0xE0 }
  - { offsetInCU: 0xF209, offset: 0x2ECC6A, size: 0x8, addend: 0x0, symName: '__ZN3syn4expr7parsing62_$LT$impl$u20$syn..parse..Parse$u20$for$u20$syn..expr..Arm$GT$5parse17h4853f2ad1c1812eeE', symObjAddr: 0x10170, symBinAddr: 0xA7FC0, symSize: 0xA40 }
  - { offsetInCU: 0x10149, offset: 0x2EDBAA, size: 0x8, addend: 0x0, symName: '__ZN3syn4expr7parsing64_$LT$impl$u20$syn..parse..Parse$u20$for$u20$syn..expr..Index$GT$5parse17hde4030d96c40375eE', symObjAddr: 0x10BB0, symBinAddr: 0xA8A00, symSize: 0x180 }
  - { offsetInCU: 0x107D1, offset: 0x2EE232, size: 0x8, addend: 0x0, symName: '__ZN62_$LT$syn..expr..Expr$u20$as$u20$quote..to_tokens..ToTokens$GT$9to_tokens17h26366c1ee5ef5979E', symObjAddr: 0x14A00, symBinAddr: 0xA9A40, symSize: 0x2820 }
  - { offsetInCU: 0x1D90B, offset: 0x2FB36C, size: 0x8, addend: 0x0, symName: '__ZN3syn3gen5clone63_$LT$impl$u20$core..clone..Clone$u20$for$u20$syn..expr..Arm$GT$5clone17head7f5f2381c2f20E', symObjAddr: 0x1E2C0, symBinAddr: 0xAC260, symSize: 0x1F0 }
  - { offsetInCU: 0x1E17B, offset: 0x2FBBDC, size: 0x8, addend: 0x0, symName: '__ZN3syn3gen5clone67_$LT$impl$u20$core..clone..Clone$u20$for$u20$syn..expr..ExprLet$GT$5clone17h5cc8a7fbdbedf0d0E', symObjAddr: 0x21B30, symBinAddr: 0xAEEA0, symSize: 0x140 }
  - { offsetInCU: 0x1E548, offset: 0x2FBFA9, size: 0x8, addend: 0x0, symName: '__ZN3syn3gen5clone64_$LT$impl$u20$core..clone..Clone$u20$for$u20$syn..expr..Expr$GT$5clone17h8dc5de0cb7452941E', symObjAddr: 0x1E4B0, symBinAddr: 0xAC450, symSize: 0x2100 }
  - { offsetInCU: 0x22D65, offset: 0x3007C6, size: 0x8, addend: 0x0, symName: '__ZN3syn3gen5clone65_$LT$impl$u20$core..clone..Clone$u20$for$u20$syn..expr..Label$GT$5clone17h6ae51c4b2a42159cE', symObjAddr: 0x23480, symBinAddr: 0xAFE20, symSize: 0x70 }
  - { offsetInCU: 0x22EB6, offset: 0x300917, size: 0x8, addend: 0x0, symName: '__ZN3syn3gen5clone69_$LT$impl$u20$core..clone..Clone$u20$for$u20$syn..expr..ExprBlock$GT$5clone17ha50b14e34c23c7c7E', symObjAddr: 0x20AD0, symBinAddr: 0xAE550, symSize: 0x130 }
  - { offsetInCU: 0x2316D, offset: 0x300BCE, size: 0x8, addend: 0x0, symName: '__ZN3syn3gen5clone69_$LT$impl$u20$core..clone..Clone$u20$for$u20$syn..expr..ExprBreak$GT$5clone17hf7f419b5514dda66E', symObjAddr: 0x20CE0, symBinAddr: 0xAE680, symSize: 0x1A0 }
  - { offsetInCU: 0x2361D, offset: 0x30107E, size: 0x8, addend: 0x0, symName: '__ZN3syn3gen5clone71_$LT$impl$u20$core..clone..Clone$u20$for$u20$syn..expr..ExprClosure$GT$5clone17ha4bc3a4adb677c0bE', symObjAddr: 0x21130, symBinAddr: 0xAE820, symSize: 0x240 }
  - { offsetInCU: 0x23BD6, offset: 0x301637, size: 0x8, addend: 0x0, symName: '__ZN3syn3gen5clone71_$LT$impl$u20$core..clone..Clone$u20$for$u20$syn..expr..ExprForLoop$GT$5clone17hb2e9cd210a53c157E', symObjAddr: 0x21580, symBinAddr: 0xAEA60, symSize: 0x270 }
  - { offsetInCU: 0x2410F, offset: 0x301B70, size: 0x8, addend: 0x0, symName: '__ZN3syn3gen5clone66_$LT$impl$u20$core..clone..Clone$u20$for$u20$syn..expr..ExprIf$GT$5clone17habee9e19780c03d0E', symObjAddr: 0x217F0, symBinAddr: 0xAECD0, symSize: 0x1D0 }
  - { offsetInCU: 0x24630, offset: 0x302091, size: 0x8, addend: 0x0, symName: '__ZN3syn3gen5clone68_$LT$impl$u20$core..clone..Clone$u20$for$u20$syn..expr..ExprLoop$GT$5clone17hbfc8e04a26dc7d1cE', symObjAddr: 0x21CF0, symBinAddr: 0xAEFE0, symSize: 0x140 }
  - { offsetInCU: 0x24921, offset: 0x302382, size: 0x8, addend: 0x0, symName: '__ZN3syn3gen5clone74_$LT$impl$u20$core..clone..Clone$u20$for$u20$syn..expr..ExprMethodCall$GT$5clone17h19dd05a260dc7f51E', symObjAddr: 0x22000, symBinAddr: 0xAF120, symSize: 0x400 }
  - { offsetInCU: 0x252F5, offset: 0x302D56, size: 0x8, addend: 0x0, symName: '__ZN3syn3gen5clone68_$LT$impl$u20$core..clone..Clone$u20$for$u20$syn..expr..ExprPath$GT$5clone17hf4002bcc8fbcc188E', symObjAddr: 0x22400, symBinAddr: 0xAF520, symSize: 0x1B0 }
  - { offsetInCU: 0x25662, offset: 0x3030C3, size: 0x8, addend: 0x0, symName: '__ZN3syn3gen5clone69_$LT$impl$u20$core..clone..Clone$u20$for$u20$syn..expr..ExprRange$GT$5clone17hd8f8dbfaae951ec7E', symObjAddr: 0x225B0, symBinAddr: 0xAF6D0, symSize: 0x1A0 }
  - { offsetInCU: 0x25B6F, offset: 0x3035D0, size: 0x8, addend: 0x0, symName: '__ZN3syn3gen5clone70_$LT$impl$u20$core..clone..Clone$u20$for$u20$syn..expr..ExprStruct$GT$5clone17h0216c4a487034cceE', symObjAddr: 0x229D0, symBinAddr: 0xAF870, symSize: 0x270 }
  - { offsetInCU: 0x260F9, offset: 0x303B5A, size: 0x8, addend: 0x0, symName: '__ZN3syn3gen5clone69_$LT$impl$u20$core..clone..Clone$u20$for$u20$syn..expr..ExprWhile$GT$5clone17h9117bae495ae712bE', symObjAddr: 0x23010, symBinAddr: 0xAFAE0, symSize: 0x1F0 }
  - { offsetInCU: 0x26603, offset: 0x304064, size: 0x8, addend: 0x0, symName: '__ZN3syn3gen5clone70_$LT$impl$u20$core..clone..Clone$u20$for$u20$syn..expr..FieldValue$GT$5clone17hca1e6a1a3e6abb5fE', symObjAddr: 0x232F0, symBinAddr: 0xAFCD0, symSize: 0x150 }
  - { offsetInCU: 0x28AA1, offset: 0x306502, size: 0x8, addend: 0x0, symName: '__ZN4core3ptr100drop_in_place$LT$core..option..Option$LT$alloc..boxed..Box$LT$syn..generics..LifetimeDef$GT$$GT$$GT$17h75a6086997697dd7E', symObjAddr: 0x300, symBinAddr: 0x9AEB0, symSize: 0x150 }
  - { offsetInCU: 0x2901D, offset: 0x306A7E, size: 0x8, addend: 0x0, symName: '__ZN4core3ptr100drop_in_place$LT$core..option..Option$LT$alloc..boxed..Box$LT$syn..path..GenericArgument$GT$$GT$$GT$17h3d29ec00a8f1918dE', symObjAddr: 0x450, symBinAddr: 0x9B000, symSize: 0x50 }
  - { offsetInCU: 0x29266, offset: 0x306CC7, size: 0x8, addend: 0x0, symName: '__ZN4core3ptr103drop_in_place$LT$syn..punctuated..Punctuated$LT$syn..generics..TypeParamBound$C$syn..token..Add$GT$$GT$17he811d520c92af08aE', symObjAddr: 0x4A0, symBinAddr: 0x9B050, symSize: 0xF0 }
  - { offsetInCU: 0x297D5, offset: 0x307236, size: 0x8, addend: 0x0, symName: '__ZN4core3ptr106drop_in_place$LT$core..option..Option$LT$alloc..boxed..Box$LT$syn..expr..GenericMethodArgument$GT$$GT$$GT$17h96ed0a5acdf7b53bE', symObjAddr: 0x590, symBinAddr: 0x9B140, symSize: 0x70 }
  - { offsetInCU: 0x299B9, offset: 0x30741A, size: 0x8, addend: 0x0, symName: '__ZN4core3ptr108drop_in_place$LT$syn..punctuated..Punctuated$LT$syn..expr..GenericMethodArgument$C$syn..token..Comma$GT$$GT$17h92cbabe4862b2183E', symObjAddr: 0x600, symBinAddr: 0x9B1B0, symSize: 0x150 }
  - { offsetInCU: 0x29E6C, offset: 0x3078CD, size: 0x8, addend: 0x0, symName: '__ZN4core3ptr114drop_in_place$LT$core..option..Option$LT$$LP$syn..token..If$C$alloc..boxed..Box$LT$syn..expr..Expr$GT$$RP$$GT$$GT$17hf2aa3e1ea6c77ac4E.llvm.8444515518860579797', symObjAddr: 0x750, symBinAddr: 0x9B300, symSize: 0x50 }
  - { offsetInCU: 0x2A09B, offset: 0x307AFC, size: 0x8, addend: 0x0, symName: '__ZN4core3ptr34drop_in_place$LT$syn..lit..Lit$GT$17hbe1efe749a08dd9aE', symObjAddr: 0x7A0, symBinAddr: 0x9B350, symSize: 0x120 }
  - { offsetInCU: 0x2A5B5, offset: 0x308016, size: 0x8, addend: 0x0, symName: '__ZN4core3ptr34drop_in_place$LT$syn..pat..Pat$GT$17h3201f642e43ac2a2E.llvm.8444515518860579797', symObjAddr: 0x8C0, symBinAddr: 0x9B470, symSize: 0x1190 }
  - { offsetInCU: 0x2E4CD, offset: 0x30BF2E, size: 0x8, addend: 0x0, symName: '__ZN4core3ptr34drop_in_place$LT$syn..ty..Type$GT$17hfb5d159a08190130E.llvm.8444515518860579797', symObjAddr: 0x1A50, symBinAddr: 0x9C600, symSize: 0x580 }
  - { offsetInCU: 0x2F754, offset: 0x30D1B5, size: 0x8, addend: 0x0, symName: '__ZN4core3ptr35drop_in_place$LT$syn..expr..Arm$GT$17h2f058dcaecfc86d5E', symObjAddr: 0x1FD0, symBinAddr: 0x9CB80, symSize: 0x190 }
  - { offsetInCU: 0x300D0, offset: 0x30DB31, size: 0x8, addend: 0x0, symName: '__ZN4core3ptr36drop_in_place$LT$syn..expr..Expr$GT$17hf1921d1b09462bc3E.llvm.8444515518860579797', symObjAddr: 0x2160, symBinAddr: 0x9CD10, symSize: 0x1E60 }
  - { offsetInCU: 0x3698C, offset: 0x3143ED, size: 0x8, addend: 0x0, symName: '__ZN4core3ptr36drop_in_place$LT$syn..mac..Macro$GT$17h205613d7ad575f72E', symObjAddr: 0x3FC0, symBinAddr: 0x9EB70, symSize: 0x40 }
  - { offsetInCU: 0x36ADD, offset: 0x31453E, size: 0x8, addend: 0x0, symName: '__ZN4core3ptr36drop_in_place$LT$syn..path..Path$GT$17he6d0bec66d66b98aE', symObjAddr: 0x4000, symBinAddr: 0x9EBB0, symSize: 0x230 }
  - { offsetInCU: 0x374B1, offset: 0x314F12, size: 0x8, addend: 0x0, symName: '__ZN4core3ptr37drop_in_place$LT$syn..lit..LitInt$GT$17h81ad5befc6ce2d73E.llvm.8444515518860579797', symObjAddr: 0x4230, symBinAddr: 0x9EDE0, symSize: 0x70 }
  - { offsetInCU: 0x37861, offset: 0x3152C2, size: 0x8, addend: 0x0, symName: '__ZN4core3ptr37drop_in_place$LT$syn..stmt..Block$GT$17h3aa429e75a234230E', symObjAddr: 0x42A0, symBinAddr: 0x9EE50, symSize: 0xD0 }
  - { offsetInCU: 0x37B95, offset: 0x3155F6, size: 0x8, addend: 0x0, symName: '__ZN4core3ptr38drop_in_place$LT$syn..expr..ExprIf$GT$17hec63a1943e3da109E', symObjAddr: 0x4370, symBinAddr: 0x9EF20, symSize: 0x220 }
  - { offsetInCU: 0x38457, offset: 0x315EB8, size: 0x8, addend: 0x0, symName: '__ZN4core3ptr38drop_in_place$LT$syn..expr..Member$GT$17ha113d37a67d27aafE.llvm.8444515518860579797', symObjAddr: 0x4590, symBinAddr: 0x9F140, symSize: 0x30 }
  - { offsetInCU: 0x38553, offset: 0x315FB4, size: 0x8, addend: 0x0, symName: '__ZN4core3ptr39drop_in_place$LT$proc_macro2..Ident$GT$17hdeec010483268a0dE', symObjAddr: 0x45C0, symBinAddr: 0x9F170, symSize: 0x30 }
  - { offsetInCU: 0x38630, offset: 0x316091, size: 0x8, addend: 0x0, symName: '__ZN4core3ptr39drop_in_place$LT$syn..pat..PatTuple$GT$17h96faeea9832d4c4bE', symObjAddr: 0x4950, symBinAddr: 0x9F1A0, symSize: 0x100 }
  - { offsetInCU: 0x38977, offset: 0x3163D8, size: 0x8, addend: 0x0, symName: '__ZN4core3ptr40drop_in_place$LT$syn..expr..ExprLoop$GT$17h9e505579fd62ef6fE', symObjAddr: 0x4CE0, symBinAddr: 0x9F2A0, symSize: 0x1D0 }
  - { offsetInCU: 0x390A6, offset: 0x316B07, size: 0x8, addend: 0x0, symName: '__ZN4core3ptr40drop_in_place$LT$syn..ty..ReturnType$GT$17h6f97c9fdb958983eE', symObjAddr: 0x4FF0, symBinAddr: 0x9F470, symSize: 0x50 }
  - { offsetInCU: 0x39216, offset: 0x316C77, size: 0x8, addend: 0x0, symName: '__ZN4core3ptr41drop_in_place$LT$syn..expr..ExprAsync$GT$17ha9124cede2896008E', symObjAddr: 0x5170, symBinAddr: 0x9F4C0, symSize: 0x1B0 }
  - { offsetInCU: 0x39809, offset: 0x31726A, size: 0x8, addend: 0x0, symName: '__ZN4core3ptr41drop_in_place$LT$syn..expr..ExprBlock$GT$17h7a5a7c5008d30d27E', symObjAddr: 0x5320, symBinAddr: 0x9F670, symSize: 0x1D0 }
  - { offsetInCU: 0x39F57, offset: 0x3179B8, size: 0x8, addend: 0x0, symName: '__ZN4core3ptr41drop_in_place$LT$syn..expr..ExprWhile$GT$17hf221395746fac5b6E', symObjAddr: 0x5EC0, symBinAddr: 0x9F840, symSize: 0x220 }
  - { offsetInCU: 0x3A891, offset: 0x3182F2, size: 0x8, addend: 0x0, symName: '__ZN4core3ptr42drop_in_place$LT$syn..expr..ExprStruct$GT$17hcd4a233ae9f7b2e4E', symObjAddr: 0x6380, symBinAddr: 0x9FA60, symSize: 0x250 }
  - { offsetInCU: 0x3B19B, offset: 0x318BFC, size: 0x8, addend: 0x0, symName: '__ZN4core3ptr42drop_in_place$LT$syn..expr..ExprUnsafe$GT$17h1385f05be3ed92a0E', symObjAddr: 0x65D0, symBinAddr: 0x9FCB0, symSize: 0x1B0 }
  - { offsetInCU: 0x3B78E, offset: 0x3191EF, size: 0x8, addend: 0x0, symName: '__ZN4core3ptr42drop_in_place$LT$syn..expr..FieldValue$GT$17h42a16bcbdc918058E', symObjAddr: 0x6780, symBinAddr: 0x9FE60, symSize: 0x140 }
  - { offsetInCU: 0x3BC1A, offset: 0x31967B, size: 0x8, addend: 0x0, symName: '__ZN4core3ptr43drop_in_place$LT$syn..expr..ExprClosure$GT$17h33394450256957a8E', symObjAddr: 0x68C0, symBinAddr: 0x9FFA0, symSize: 0x270 }
  - { offsetInCU: 0x3C673, offset: 0x31A0D4, size: 0x8, addend: 0x0, symName: '__ZN4core3ptr43drop_in_place$LT$syn..expr..ExprForLoop$GT$17hdb72d4fbe32f57c8E', symObjAddr: 0x6B30, symBinAddr: 0xA0210, symSize: 0x240 }
  - { offsetInCU: 0x3CEEA, offset: 0x31A94B, size: 0x8, addend: 0x0, symName: '__ZN4core3ptr44drop_in_place$LT$syn..lifetime..Lifetime$GT$17h3858225df033648aE', symObjAddr: 0x6E80, symBinAddr: 0xA0450, symSize: 0x30 }
  - { offsetInCU: 0x3D062, offset: 0x31AAC3, size: 0x8, addend: 0x0, symName: '__ZN4core3ptr44drop_in_place$LT$syn..parse..ParseBuffer$GT$17h19c266fcccc430cbE', symObjAddr: 0x6EB0, symBinAddr: 0xA0480, symSize: 0x70 }
  - { offsetInCU: 0x3D479, offset: 0x31AEDA, size: 0x8, addend: 0x0, symName: '__ZN4core3ptr45drop_in_place$LT$proc_macro2..TokenStream$GT$17h2507cb30e765dc85E.llvm.8444515518860579797', symObjAddr: 0x6F20, symBinAddr: 0xA04F0, symSize: 0x140 }
  - { offsetInCU: 0x3D98F, offset: 0x31B3F0, size: 0x8, addend: 0x0, symName: '__ZN4core3ptr46drop_in_place$LT$syn..expr..ExprMethodCall$GT$17hc2c41e6c148679f7E', symObjAddr: 0x7190, symBinAddr: 0xA0630, symSize: 0x3A0 }
  - { offsetInCU: 0x3E82F, offset: 0x31C290, size: 0x8, addend: 0x0, symName: '__ZN4core3ptr47drop_in_place$LT$syn..expr..MethodTurbofish$GT$17hfb737c85726076f0E', symObjAddr: 0x7530, symBinAddr: 0xA09D0, symSize: 0x150 }
  - { offsetInCU: 0x3ECF9, offset: 0x31C75A, size: 0x8, addend: 0x0, symName: '__ZN4core3ptr47drop_in_place$LT$syn..path..GenericArgument$GT$17h8c0a0d8c6deaefb4E', symObjAddr: 0x7680, symBinAddr: 0xA0B20, symSize: 0x110 }
  - { offsetInCU: 0x3F014, offset: 0x31CA75, size: 0x8, addend: 0x0, symName: '__ZN4core3ptr58drop_in_place$LT$alloc..vec..Vec$LT$syn..expr..Arm$GT$$GT$17hf3db0825f3d9c861E', symObjAddr: 0x7790, symBinAddr: 0xA0C30, symSize: 0xD0 }
  - { offsetInCU: 0x3F2D4, offset: 0x31CD35, size: 0x8, addend: 0x0, symName: '__ZN4core3ptr59drop_in_place$LT$alloc..boxed..Box$LT$syn..pat..Pat$GT$$GT$17h7037ce9bbd3729c6E', symObjAddr: 0x7860, symBinAddr: 0xA0D00, symSize: 0x50 }
  - { offsetInCU: 0x3F42D, offset: 0x31CE8E, size: 0x8, addend: 0x0, symName: '__ZN4core3ptr59drop_in_place$LT$alloc..boxed..Box$LT$syn..ty..Type$GT$$GT$17h2eccd13329dbe4faE', symObjAddr: 0x78B0, symBinAddr: 0xA0D50, symSize: 0x50 }
  - { offsetInCU: 0x3F586, offset: 0x31CFE7, size: 0x8, addend: 0x0, symName: '__ZN4core3ptr59drop_in_place$LT$alloc..vec..Vec$LT$syn..stmt..Stmt$GT$$GT$17hed4646381107e302E', symObjAddr: 0x7900, symBinAddr: 0xA0DA0, symSize: 0xD0 }
  - { offsetInCU: 0x3F846, offset: 0x31D2A7, size: 0x8, addend: 0x0, symName: '__ZN4core3ptr61drop_in_place$LT$alloc..boxed..Box$LT$syn..expr..Expr$GT$$GT$17h66094ddc89015516E', symObjAddr: 0x79D0, symBinAddr: 0xA0E70, symSize: 0x50 }
  - { offsetInCU: 0x3FA1B, offset: 0x31D47C, size: 0x8, addend: 0x0, symName: '__ZN4core3ptr61drop_in_place$LT$syn..path..ParenthesizedGenericArguments$GT$17h21be9b1d7a6fab55E', symObjAddr: 0x7A20, symBinAddr: 0xA0EC0, symSize: 0x170 }
  - { offsetInCU: 0x40011, offset: 0x31DA72, size: 0x8, addend: 0x0, symName: '__ZN4core3ptr63drop_in_place$LT$alloc..boxed..Box$LT$syn..lit..LitRepr$GT$$GT$17h9c509b794406150eE', symObjAddr: 0x7B90, symBinAddr: 0xA1030, symSize: 0x60 }
  - { offsetInCU: 0x402F9, offset: 0x31DD5A, size: 0x8, addend: 0x0, symName: '__ZN4core3ptr64drop_in_place$LT$alloc..boxed..Box$LT$syn..pat..FieldPat$GT$$GT$17hb167b355d0d4733fE', symObjAddr: 0x7BF0, symBinAddr: 0xA1090, symSize: 0x180 }
  - { offsetInCU: 0x40A16, offset: 0x31E477, size: 0x8, addend: 0x0, symName: '__ZN4core3ptr64drop_in_place$LT$alloc..boxed..Box$LT$syn..ty..BareFnArg$GT$$GT$17h6488be9448346678E', symObjAddr: 0x7D70, symBinAddr: 0xA1210, symSize: 0x160 }
  - { offsetInCU: 0x40FAC, offset: 0x31EA0D, size: 0x8, addend: 0x0, symName: '__ZN4core3ptr64drop_in_place$LT$alloc..vec..Vec$LT$syn..attr..Attribute$GT$$GT$17h386324d8ea9bc309E.llvm.8444515518860579797', symObjAddr: 0x7ED0, symBinAddr: 0xA1370, symSize: 0xF0 }
  - { offsetInCU: 0x412A2, offset: 0x31ED03, size: 0x8, addend: 0x0, symName: '__ZN4core3ptr65drop_in_place$LT$alloc..vec..Vec$LT$proc_macro..TokenTree$GT$$GT$17hc3670dd5608d5259E.llvm.8444515518860579797', symObjAddr: 0x7FC0, symBinAddr: 0xA1460, symSize: 0x110 }
  - { offsetInCU: 0x4169A, offset: 0x31F0FB, size: 0x8, addend: 0x0, symName: '__ZN4core3ptr65drop_in_place$LT$core..option..Option$LT$syn..expr..Label$GT$$GT$17ha723640fd01bec5dE', symObjAddr: 0x80D0, symBinAddr: 0xA1570, symSize: 0x30 }
  - { offsetInCU: 0x417D4, offset: 0x31F235, size: 0x8, addend: 0x0, symName: '__ZN4core3ptr65drop_in_place$LT$core..option..Option$LT$syn..path..QSelf$GT$$GT$17h213ca1c3399df9f2E', symObjAddr: 0x8100, symBinAddr: 0xA15A0, symSize: 0x50 }
  - { offsetInCU: 0x4196B, offset: 0x31F3CC, size: 0x8, addend: 0x0, symName: '__ZN4core3ptr66drop_in_place$LT$core..option..Option$LT$syn..ty..Variadic$GT$$GT$17hc32134bb3933b0dfE', symObjAddr: 0x8150, symBinAddr: 0xA15F0, symSize: 0xF0 }
  - { offsetInCU: 0x41C95, offset: 0x31F6F6, size: 0x8, addend: 0x0, symName: '__ZN4core3ptr67drop_in_place$LT$alloc..boxed..Box$LT$syn..expr..FieldValue$GT$$GT$17h8df780aa600ea8c2E', symObjAddr: 0x8240, symBinAddr: 0xA16E0, symSize: 0x160 }
  - { offsetInCU: 0x42217, offset: 0x31FC78, size: 0x8, addend: 0x0, symName: '__ZN4core3ptr68drop_in_place$LT$alloc..boxed..Box$LT$syn..path..PathSegment$GT$$GT$17h1957b54eed39c0bbE', symObjAddr: 0x83A0, symBinAddr: 0xA1840, symSize: 0x190 }
  - { offsetInCU: 0x42921, offset: 0x320382, size: 0x8, addend: 0x0, symName: '__ZN4core3ptr72drop_in_place$LT$alloc..boxed..Box$LT$syn..path..GenericArgument$GT$$GT$17ha8f8136d0c2b505bE', symObjAddr: 0x8530, symBinAddr: 0xA19D0, symSize: 0x120 }
  - { offsetInCU: 0x42D99, offset: 0x3207FA, size: 0x8, addend: 0x0, symName: '__ZN4core3ptr72drop_in_place$LT$core..option..Option$LT$syn..lifetime..Lifetime$GT$$GT$17h31b55b93749c174dE', symObjAddr: 0x8650, symBinAddr: 0xA1AF0, symSize: 0x30 }
  - { offsetInCU: 0x42EB4, offset: 0x320915, size: 0x8, addend: 0x0, symName: '__ZN4core3ptr75drop_in_place$LT$alloc..boxed..Box$LT$syn..generics..TypeParamBound$GT$$GT$17h8f156ce07ea0b8b2E', symObjAddr: 0x8680, symBinAddr: 0xA1B20, symSize: 0x90 }
  - { offsetInCU: 0x431F3, offset: 0x320C54, size: 0x8, addend: 0x0, symName: '__ZN4core3ptr78drop_in_place$LT$core..option..Option$LT$syn..generics..BoundLifetimes$GT$$GT$17h8175e66ad0c4a156E', symObjAddr: 0x8730, symBinAddr: 0xA1BB0, symSize: 0xE0 }
  - { offsetInCU: 0x43551, offset: 0x320FB2, size: 0x8, addend: 0x0, symName: '__ZN4core3ptr86drop_in_place$LT$syn..punctuated..Punctuated$LT$syn..pat..Pat$C$syn..token..Or$GT$$GT$17h1078c5d178d382b7E', symObjAddr: 0x8810, symBinAddr: 0xA1C90, symSize: 0x120 }
  - { offsetInCU: 0x439CC, offset: 0x32142D, size: 0x8, addend: 0x0, symName: '__ZN4core3ptr87drop_in_place$LT$core..option..Option$LT$alloc..boxed..Box$LT$syn..pat..Pat$GT$$GT$$GT$17ha7f5fe0e6f73e820E', symObjAddr: 0x8930, symBinAddr: 0xA1DB0, symSize: 0x50 }
  - { offsetInCU: 0x43B3C, offset: 0x32159D, size: 0x8, addend: 0x0, symName: '__ZN4core3ptr87drop_in_place$LT$core..option..Option$LT$alloc..boxed..Box$LT$syn..ty..Type$GT$$GT$$GT$17hc8292da82d129de3E', symObjAddr: 0x8980, symBinAddr: 0xA1E00, symSize: 0x50 }
  - { offsetInCU: 0x43CAC, offset: 0x32170D, size: 0x8, addend: 0x0, symName: '__ZN4core3ptr88drop_in_place$LT$$LP$syn..token..Else$C$alloc..boxed..Box$LT$syn..expr..Expr$GT$$RP$$GT$17h7dd7c259e93fb46bE', symObjAddr: 0x89D0, symBinAddr: 0xA1E50, symSize: 0x50 }
  - { offsetInCU: 0x43E24, offset: 0x321885, size: 0x8, addend: 0x0, symName: '__ZN4core3ptr89drop_in_place$LT$core..option..Option$LT$alloc..boxed..Box$LT$syn..expr..Expr$GT$$GT$$GT$17hdc211ccd33f196f2E', symObjAddr: 0x8A20, symBinAddr: 0xA1EA0, symSize: 0x50 }
  - { offsetInCU: 0x43F94, offset: 0x3219F5, size: 0x8, addend: 0x0, symName: '__ZN4core3ptr89drop_in_place$LT$syn..punctuated..Punctuated$LT$syn..pat..Pat$C$syn..token..Comma$GT$$GT$17hf8371102b0500adcE', symObjAddr: 0x8A70, symBinAddr: 0xA1EF0, symSize: 0x120 }
  - { offsetInCU: 0x44413, offset: 0x321E74, size: 0x8, addend: 0x0, symName: '__ZN4core3ptr89drop_in_place$LT$syn..punctuated..Punctuated$LT$syn..ty..Type$C$syn..token..Comma$GT$$GT$17h1c6e43341fabea97E', symObjAddr: 0x8B90, symBinAddr: 0xA2010, symSize: 0x120 }
  - { offsetInCU: 0x4488E, offset: 0x3222EF, size: 0x8, addend: 0x0, symName: '__ZN4core3ptr91drop_in_place$LT$syn..punctuated..Punctuated$LT$syn..expr..Expr$C$syn..token..Comma$GT$$GT$17hd2dfeb0c522d9a18E', symObjAddr: 0x8CB0, symBinAddr: 0xA2130, symSize: 0x120 }
  - { offsetInCU: 0x44D09, offset: 0x32276A, size: 0x8, addend: 0x0, symName: '__ZN4core3ptr94drop_in_place$LT$syn..punctuated..Punctuated$LT$syn..pat..FieldPat$C$syn..token..Comma$GT$$GT$17h612cbc9066d5afb1E', symObjAddr: 0x8DD0, symBinAddr: 0xA2250, symSize: 0xF0 }
  - { offsetInCU: 0x45008, offset: 0x322A69, size: 0x8, addend: 0x0, symName: '__ZN4core3ptr94drop_in_place$LT$syn..punctuated..Punctuated$LT$syn..ty..BareFnArg$C$syn..token..Comma$GT$$GT$17ha9a668ce9972795bE', symObjAddr: 0x8EC0, symBinAddr: 0xA2340, symSize: 0xF0 }
  - { offsetInCU: 0x45305, offset: 0x322D66, size: 0x8, addend: 0x0, symName: '__ZN4core3ptr95drop_in_place$LT$core..option..Option$LT$$LP$proc_macro2..Ident$C$syn..token..Colon$RP$$GT$$GT$17h7314df562090eafdE', symObjAddr: 0x8FB0, symBinAddr: 0xA2430, symSize: 0x30 }
  - { offsetInCU: 0x45420, offset: 0x322E81, size: 0x8, addend: 0x0, symName: '__ZN4core3ptr95drop_in_place$LT$core..option..Option$LT$alloc..boxed..Box$LT$syn..expr..FieldValue$GT$$GT$$GT$17hd0d57ae8c6b091c1E', symObjAddr: 0x8FE0, symBinAddr: 0xA2460, symSize: 0x50 }
  - { offsetInCU: 0x45590, offset: 0x322FF1, size: 0x8, addend: 0x0, symName: '__ZN4core3ptr96drop_in_place$LT$core..option..Option$LT$alloc..boxed..Box$LT$syn..path..PathSegment$GT$$GT$$GT$17h2e81cbe3c70bb71cE', symObjAddr: 0x9030, symBinAddr: 0xA24B0, symSize: 0x180 }
  - { offsetInCU: 0x45C4D, offset: 0x3236AE, size: 0x8, addend: 0x0, symName: '__ZN4core3ptr97drop_in_place$LT$syn..punctuated..Punctuated$LT$syn..expr..FieldValue$C$syn..token..Comma$GT$$GT$17h11a5fffb46adfb11E', symObjAddr: 0x91B0, symBinAddr: 0xA2630, symSize: 0xF0 }
  - { offsetInCU: 0x45FC6, offset: 0x323A27, size: 0x8, addend: 0x0, symName: '__ZN4core3ptr97drop_in_place$LT$syn..punctuated..Punctuated$LT$syn..lifetime..Lifetime$C$syn..token..Add$GT$$GT$17h5c54dea2c838d109E', symObjAddr: 0x92A0, symBinAddr: 0xA2720, symSize: 0xD0 }
  - { offsetInCU: 0x4643A, offset: 0x323E9B, size: 0x8, addend: 0x0, symName: '__ZN4core3ptr99drop_in_place$LT$syn..punctuated..Punctuated$LT$syn..path..PathSegment$C$syn..token..Colon2$GT$$GT$17hb961e4d7989a33ceE', symObjAddr: 0x9370, symBinAddr: 0xA27F0, symSize: 0x250 }
  - { offsetInCU: 0x4CEC6, offset: 0x32A927, size: 0x8, addend: 0x0, symName: __ZN5alloc5alloc15exchange_malloc17h9a87608d0224859dE, symObjAddr: 0x9610, symBinAddr: 0xA2A40, symSize: 0x40 }
  - { offsetInCU: 0x4F30C, offset: 0x32CD6D, size: 0x8, addend: 0x0, symName: '__ZN69_$LT$alloc..boxed..Box$LT$T$C$A$GT$$u20$as$u20$core..clone..Clone$GT$5clone17hb1b95e73f0a2c98fE', symObjAddr: 0x9BB0, symBinAddr: 0xA2A80, symSize: 0x90 }
  - { offsetInCU: 0x5135E, offset: 0x32EDBF, size: 0x8, addend: 0x0, symName: __ZN3syn4expr4Expr13replace_attrs17h45273f69f34fc620E, symObjAddr: 0x9E60, symBinAddr: 0xA2B10, symSize: 0x210 }
  - { offsetInCU: 0x19B7, offset: 0x33D28D, size: 0x8, addend: 0x0, symName: '__ZN4core3ptr100drop_in_place$LT$core..option..Option$LT$alloc..boxed..Box$LT$syn..generics..LifetimeDef$GT$$GT$$GT$17h75a6086997697dd7E.llvm.2919429348807089406', symObjAddr: 0x560, symBinAddr: 0xB0280, symSize: 0x50 }
  - { offsetInCU: 0x1B46, offset: 0x33D41C, size: 0x8, addend: 0x0, symName: '__ZN4core3ptr100drop_in_place$LT$core..option..Option$LT$alloc..boxed..Box$LT$syn..path..GenericArgument$GT$$GT$$GT$17h3d29ec00a8f1918dE', symObjAddr: 0x5B0, symBinAddr: 0xB02D0, symSize: 0x50 }
  - { offsetInCU: 0x1D13, offset: 0x33D5E9, size: 0x8, addend: 0x0, symName: '__ZN4core3ptr101drop_in_place$LT$alloc..vec..Vec$LT$$LP$syn..generics..WherePredicate$C$syn..token..Comma$RP$$GT$$GT$17h08dfdcabd164aa70E.llvm.2919429348807089406', symObjAddr: 0x600, symBinAddr: 0xB0320, symSize: 0xD0 }
  - { offsetInCU: 0x202D, offset: 0x33D903, size: 0x8, addend: 0x0, symName: '__ZN4core3ptr101drop_in_place$LT$core..option..Option$LT$alloc..boxed..Box$LT$syn..generics..GenericParam$GT$$GT$$GT$17h1fee4f1c7bd902c4E', symObjAddr: 0x6D0, symBinAddr: 0xB03F0, symSize: 0x50 }
  - { offsetInCU: 0x2219, offset: 0x33DAEF, size: 0x8, addend: 0x0, symName: '__ZN4core3ptr102drop_in_place$LT$syn..punctuated..Punctuated$LT$syn..generics..LifetimeDef$C$syn..token..Comma$GT$$GT$17h6013ea99e87d4528E.llvm.2919429348807089406', symObjAddr: 0x720, symBinAddr: 0xB0440, symSize: 0xF0 }
  - { offsetInCU: 0x2597, offset: 0x33DE6D, size: 0x8, addend: 0x0, symName: '__ZN4core3ptr102drop_in_place$LT$syn..punctuated..Punctuated$LT$syn..path..GenericArgument$C$syn..token..Comma$GT$$GT$17h4b445f97c5aefb0eE.llvm.2919429348807089406', symObjAddr: 0x810, symBinAddr: 0xB0530, symSize: 0xF0 }
  - { offsetInCU: 0x29D1, offset: 0x33E2A7, size: 0x8, addend: 0x0, symName: '__ZN4core3ptr103drop_in_place$LT$core..option..Option$LT$alloc..boxed..Box$LT$syn..generics..TypeParamBound$GT$$GT$$GT$17h6cee73bc2b2ecea8E', symObjAddr: 0x900, symBinAddr: 0xB0620, symSize: 0xA0 }
  - { offsetInCU: 0x2CC0, offset: 0x33E596, size: 0x8, addend: 0x0, symName: '__ZN4core3ptr103drop_in_place$LT$core..option..Option$LT$alloc..boxed..Box$LT$syn..generics..WherePredicate$GT$$GT$$GT$17headad361972eced7E', symObjAddr: 0x9A0, symBinAddr: 0xB06C0, symSize: 0x50 }
  - { offsetInCU: 0x2EEA, offset: 0x33E7C0, size: 0x8, addend: 0x0, symName: '__ZN4core3ptr103drop_in_place$LT$syn..punctuated..Punctuated$LT$syn..generics..GenericParam$C$syn..token..Comma$GT$$GT$17hae00367f0c570156E', symObjAddr: 0x9F0, symBinAddr: 0xB0710, symSize: 0x1A0 }
  - { offsetInCU: 0x3479, offset: 0x33ED4F, size: 0x8, addend: 0x0, symName: '__ZN4core3ptr103drop_in_place$LT$syn..punctuated..Punctuated$LT$syn..generics..TypeParamBound$C$syn..token..Add$GT$$GT$17he811d520c92af08aE', symObjAddr: 0xB90, symBinAddr: 0xB08B0, symSize: 0x290 }
  - { offsetInCU: 0x40CF, offset: 0x33F9A5, size: 0x8, addend: 0x0, symName: '__ZN4core3ptr104drop_in_place$LT$alloc..vec..Vec$LT$$LP$syn..expr..GenericMethodArgument$C$syn..token..Comma$RP$$GT$$GT$17heae48b13c44e912aE.llvm.2919429348807089406', symObjAddr: 0xE20, symBinAddr: 0xB0B40, symSize: 0xF0 }
  - { offsetInCU: 0x445F, offset: 0x33FD35, size: 0x8, addend: 0x0, symName: '__ZN4core3ptr105drop_in_place$LT$syn..punctuated..Punctuated$LT$syn..generics..WherePredicate$C$syn..token..Comma$GT$$GT$17h53c71b5d1c98483dE', symObjAddr: 0xF10, symBinAddr: 0xB0C30, symSize: 0x1A0 }
  - { offsetInCU: 0x4A59, offset: 0x34032F, size: 0x8, addend: 0x0, symName: '__ZN4core3ptr108drop_in_place$LT$syn..punctuated..Punctuated$LT$syn..expr..GenericMethodArgument$C$syn..token..Comma$GT$$GT$17h92cbabe4862b2183E', symObjAddr: 0x10B0, symBinAddr: 0xB0DD0, symSize: 0x150 }
  - { offsetInCU: 0x4F3D, offset: 0x340813, size: 0x8, addend: 0x0, symName: '__ZN4core3ptr126drop_in_place$LT$core..option..Option$LT$$LP$syn..token..And$C$core..option..Option$LT$syn..lifetime..Lifetime$GT$$RP$$GT$$GT$17h5979d670cb45416cE', symObjAddr: 0x1260, symBinAddr: 0xB0F20, symSize: 0x30 }
  - { offsetInCU: 0x51CC, offset: 0x340AA2, size: 0x8, addend: 0x0, symName: '__ZN4core3ptr33drop_in_place$LT$syn..ty..Abi$GT$17h723a10e1a0acbd58E', symObjAddr: 0x1290, symBinAddr: 0xB0F50, symSize: 0x70 }
  - { offsetInCU: 0x51E8, offset: 0x340ABE, size: 0x8, addend: 0x0, symName: '__ZN4core3ptr33drop_in_place$LT$syn..ty..Abi$GT$17h723a10e1a0acbd58E', symObjAddr: 0x1290, symBinAddr: 0xB0F50, symSize: 0x70 }
  - { offsetInCU: 0x54C0, offset: 0x340D96, size: 0x8, addend: 0x0, symName: '__ZN4core3ptr34drop_in_place$LT$syn..lit..Lit$GT$17hbe1efe749a08dd9aE.llvm.2919429348807089406', symObjAddr: 0x1300, symBinAddr: 0xB0FC0, symSize: 0x120 }
  - { offsetInCU: 0x59BB, offset: 0x341291, size: 0x8, addend: 0x0, symName: '__ZN4core3ptr34drop_in_place$LT$syn..pat..Pat$GT$17h3201f642e43ac2a2E.llvm.2919429348807089406', symObjAddr: 0x1420, symBinAddr: 0xB10E0, symSize: 0x930 }
  - { offsetInCU: 0x8A07, offset: 0x3442DD, size: 0x8, addend: 0x0, symName: '__ZN4core3ptr34drop_in_place$LT$syn..ty..Type$GT$17hfb5d159a08190130E.llvm.2919429348807089406', symObjAddr: 0x1D50, symBinAddr: 0xB1A10, symSize: 0x380 }
  - { offsetInCU: 0x95ED, offset: 0x344EC3, size: 0x8, addend: 0x0, symName: '__ZN4core3ptr35drop_in_place$LT$syn..expr..Arm$GT$17h2f058dcaecfc86d5E.llvm.2919429348807089406', symObjAddr: 0x20D0, symBinAddr: 0xB1D90, symSize: 0x1A0 }
  - { offsetInCU: 0xA243, offset: 0x345B19, size: 0x8, addend: 0x0, symName: '__ZN4core3ptr36drop_in_place$LT$syn..expr..Expr$GT$17hf1921d1b09462bc3E.llvm.2919429348807089406', symObjAddr: 0x2270, symBinAddr: 0xB1F30, symSize: 0x1E10 }
  - { offsetInCU: 0x13F94, offset: 0x34F86A, size: 0x8, addend: 0x0, symName: '__ZN4core3ptr36drop_in_place$LT$syn..item..Item$GT$17hf1fe4e69bb0a9b43E.llvm.2919429348807089406', symObjAddr: 0x4080, symBinAddr: 0xB3D40, symSize: 0x1650 }
  - { offsetInCU: 0x1A921, offset: 0x3561F7, size: 0x8, addend: 0x0, symName: '__ZN4core3ptr36drop_in_place$LT$syn..path..Path$GT$17he6d0bec66d66b98aE.llvm.2919429348807089406', symObjAddr: 0x56D0, symBinAddr: 0xB5390, symSize: 0x150 }
  - { offsetInCU: 0x1AEE1, offset: 0x3567B7, size: 0x8, addend: 0x0, symName: '__ZN4core3ptr36drop_in_place$LT$syn..stmt..Stmt$GT$17h1cbf7c4dce3085eaE.llvm.2919429348807089406', symObjAddr: 0x5820, symBinAddr: 0xB54E0, symSize: 0x140 }
  - { offsetInCU: 0x1B373, offset: 0x356C49, size: 0x8, addend: 0x0, symName: '__ZN4core3ptr37drop_in_place$LT$syn..data..Field$GT$17h6bfcb460cfa4c863E.llvm.2919429348807089406', symObjAddr: 0x5960, symBinAddr: 0xB5620, symSize: 0x1B0 }
  - { offsetInCU: 0x1B96D, offset: 0x357243, size: 0x8, addend: 0x0, symName: '__ZN4core3ptr37drop_in_place$LT$syn..item..FnArg$GT$17h52a13b3505938de2E.llvm.2919429348807089406', symObjAddr: 0x5B10, symBinAddr: 0xB57D0, symSize: 0x190 }
  - { offsetInCU: 0x1C30F, offset: 0x357BE5, size: 0x8, addend: 0x0, symName: '__ZN4core3ptr37drop_in_place$LT$syn..stmt..Block$GT$17h3aa429e75a234230E', symObjAddr: 0x5CA0, symBinAddr: 0xB5960, symSize: 0xD0 }
  - { offsetInCU: 0x1C5ED, offset: 0x357EC3, size: 0x8, addend: 0x0, symName: '__ZN4core3ptr38drop_in_place$LT$syn..expr..Member$GT$17ha113d37a67d27aafE.llvm.2919429348807089406', symObjAddr: 0x5D70, symBinAddr: 0xB5A30, symSize: 0x30 }
  - { offsetInCU: 0x1C6E9, offset: 0x357FBF, size: 0x8, addend: 0x0, symName: '__ZN4core3ptr38drop_in_place$LT$syn..pat..PatType$GT$17h833e3c7992399b01E.llvm.2919429348807089406', symObjAddr: 0x5DA0, symBinAddr: 0xB5A60, symSize: 0x160 }
  - { offsetInCU: 0x1CCA1, offset: 0x358577, size: 0x8, addend: 0x0, symName: '__ZN4core3ptr38drop_in_place$LT$syn..ty..Variadic$GT$17h354585068960ea23E', symObjAddr: 0x5F00, symBinAddr: 0xB5BC0, symSize: 0xF0 }
  - { offsetInCU: 0x1CFB5, offset: 0x35888B, size: 0x8, addend: 0x0, symName: '__ZN4core3ptr39drop_in_place$LT$proc_macro2..Ident$GT$17hdeec010483268a0dE', symObjAddr: 0x5FF0, symBinAddr: 0xB5CB0, symSize: 0x30 }
  - { offsetInCU: 0x1D1C8, offset: 0x358A9E, size: 0x8, addend: 0x0, symName: '__ZN4core3ptr39drop_in_place$LT$syn..buffer..Entry$GT$17hefeddf49a31e1f79E.llvm.2919429348807089406', symObjAddr: 0x6020, symBinAddr: 0xB5CE0, symSize: 0xB0 }
  - { offsetInCU: 0x1D5B0, offset: 0x358E86, size: 0x8, addend: 0x0, symName: '__ZN4core3ptr39drop_in_place$LT$syn..data..Variant$GT$17hdf59a2045a52b17cE.llvm.2919429348807089406', symObjAddr: 0x60D0, symBinAddr: 0xB5D90, symSize: 0x330 }
  - { offsetInCU: 0x1E259, offset: 0x359B2F, size: 0x8, addend: 0x0, symName: '__ZN4core3ptr39drop_in_place$LT$syn..item..UseTree$GT$17h78d4ed19b48b8cbfE.llvm.2919429348807089406', symObjAddr: 0x6400, symBinAddr: 0xB60C0, symSize: 0x1F0 }
  - { offsetInCU: 0x1EA31, offset: 0x35A307, size: 0x8, addend: 0x0, symName: '__ZN4core3ptr39drop_in_place$LT$syn..pat..PatTuple$GT$17h96faeea9832d4c4bE', symObjAddr: 0x65F0, symBinAddr: 0xB62B0, symSize: 0x1F0 }
  - { offsetInCU: 0x1F28F, offset: 0x35AB65, size: 0x8, addend: 0x0, symName: '__ZN4core3ptr40drop_in_place$LT$syn..attr..MetaList$GT$17h9457f32d77a909ccE.llvm.2919429348807089406', symObjAddr: 0x67E0, symBinAddr: 0xB64A0, symSize: 0x140 }
  - { offsetInCU: 0x1F716, offset: 0x35AFEC, size: 0x8, addend: 0x0, symName: '__ZN4core3ptr40drop_in_place$LT$syn..item..Receiver$GT$17hc8a432a931462f79E.llvm.2919429348807089406', symObjAddr: 0x6920, symBinAddr: 0xB65E0, symSize: 0x140 }
  - { offsetInCU: 0x1FBA4, offset: 0x35B47A, size: 0x8, addend: 0x0, symName: '__ZN4core3ptr40drop_in_place$LT$syn..ty..ReturnType$GT$17h6f97c9fdb958983eE.llvm.2919429348807089406', symObjAddr: 0x6A60, symBinAddr: 0xB6720, symSize: 0x50 }
  - { offsetInCU: 0x1FD14, offset: 0x35B5EA, size: 0x8, addend: 0x0, symName: '__ZN4core3ptr41drop_in_place$LT$syn..attr..Attribute$GT$17h01ed88f7d2878bfcE.llvm.2919429348807089406', symObjAddr: 0x6AB0, symBinAddr: 0xB6770, symSize: 0x40 }
  - { offsetInCU: 0x1FE84, offset: 0x35B75A, size: 0x8, addend: 0x0, symName: '__ZN4core3ptr41drop_in_place$LT$syn..item..Signature$GT$17hd57cfba25994ce69E', symObjAddr: 0x6AF0, symBinAddr: 0xB67B0, symSize: 0x330 }
  - { offsetInCU: 0x20CB3, offset: 0x35C589, size: 0x8, addend: 0x0, symName: '__ZN4core3ptr42drop_in_place$LT$syn..attr..NestedMeta$GT$17hb8773e095b93d12eE.llvm.2919429348807089406', symObjAddr: 0x6E20, symBinAddr: 0xB6AE0, symSize: 0x120 }
  - { offsetInCU: 0x20E8D, offset: 0x35C763, size: 0x8, addend: 0x0, symName: '__ZN4core3ptr43drop_in_place$LT$proc_macro2..TokenTree$GT$17h7270f34cee6d919dE.llvm.2919429348807089406', symObjAddr: 0x6F40, symBinAddr: 0xB6C00, symSize: 0xB0 }
  - { offsetInCU: 0x211E8, offset: 0x35CABE, size: 0x8, addend: 0x0, symName: '__ZN4core3ptr43drop_in_place$LT$syn..data..FieldsNamed$GT$17h73293dd81bcfeab6E', symObjAddr: 0x6FF0, symBinAddr: 0xB6CB0, symSize: 0x120 }
  - { offsetInCU: 0x216E6, offset: 0x35CFBC, size: 0x8, addend: 0x0, symName: '__ZN4core3ptr43drop_in_place$LT$syn..path..PathSegment$GT$17h3d0f44137dd31bf9E.llvm.2919429348807089406', symObjAddr: 0x7110, symBinAddr: 0xB6DD0, symSize: 0x170 }
  - { offsetInCU: 0x21CC1, offset: 0x35D597, size: 0x8, addend: 0x0, symName: '__ZN4core3ptr44drop_in_place$LT$syn..generics..Generics$GT$17he0d6eb6045503c84E', symObjAddr: 0x7280, symBinAddr: 0xB6F40, symSize: 0x230 }
  - { offsetInCU: 0x225FE, offset: 0x35DED4, size: 0x8, addend: 0x0, symName: '__ZN4core3ptr44drop_in_place$LT$syn..item..ImplItemType$GT$17hfa117ac59836f12aE', symObjAddr: 0x74B0, symBinAddr: 0xB7170, symSize: 0x200 }
  - { offsetInCU: 0x22C1B, offset: 0x35E4F1, size: 0x8, addend: 0x0, symName: '__ZN4core3ptr44drop_in_place$LT$syn..lifetime..Lifetime$GT$17h3858225df033648aE.llvm.2919429348807089406', symObjAddr: 0x76B0, symBinAddr: 0xB7370, symSize: 0x30 }
  - { offsetInCU: 0x22D74, offset: 0x35E64A, size: 0x8, addend: 0x0, symName: '__ZN4core3ptr45drop_in_place$LT$proc_macro2..TokenStream$GT$17h2507cb30e765dc85E.llvm.2919429348807089406', symObjAddr: 0x76E0, symBinAddr: 0xB73A0, symSize: 0x70 }
  - { offsetInCU: 0x22EA9, offset: 0x35E77F, size: 0x8, addend: 0x0, symName: '__ZN4core3ptr45drop_in_place$LT$syn..data..VisRestricted$GT$17hcb973457cb67885aE', symObjAddr: 0x7750, symBinAddr: 0xB7410, symSize: 0xA0 }
  - { offsetInCU: 0x231F1, offset: 0x35EAC7, size: 0x8, addend: 0x0, symName: '__ZN4core3ptr45drop_in_place$LT$syn..generics..TypeParam$GT$17h2de9c744cc1fcd2cE.llvm.2919429348807089406', symObjAddr: 0x77F0, symBinAddr: 0xB74B0, symSize: 0x200 }
  - { offsetInCU: 0x23A48, offset: 0x35F31E, size: 0x8, addend: 0x0, symName: '__ZN4core3ptr45drop_in_place$LT$syn..item..ImplItemConst$GT$17hcd481022683c9056E', symObjAddr: 0x79F0, symBinAddr: 0xB76B0, symSize: 0x1D0 }
  - { offsetInCU: 0x24022, offset: 0x35F8F8, size: 0x8, addend: 0x0, symName: '__ZN4core3ptr45drop_in_place$LT$syn..item..TraitItemType$GT$17hff73dc4d6b73b6f1E', symObjAddr: 0x7BC0, symBinAddr: 0xB7880, symSize: 0x280 }
  - { offsetInCU: 0x24952, offset: 0x360228, size: 0x8, addend: 0x0, symName: '__ZN4core3ptr45drop_in_place$LT$syn..path..PathArguments$GT$17h9dd953520dcdc907E.llvm.2919429348807089406', symObjAddr: 0x7E40, symBinAddr: 0xB7B00, symSize: 0xA0 }
  - { offsetInCU: 0x24B23, offset: 0x3603F9, size: 0x8, addend: 0x0, symName: '__ZN4core3ptr46drop_in_place$LT$syn..generics..ConstParam$GT$17hcae189adf84ad8c9E.llvm.2919429348807089406', symObjAddr: 0x7EE0, symBinAddr: 0xB7BA0, symSize: 0x180 }
  - { offsetInCU: 0x24F5B, offset: 0x360831, size: 0x8, addend: 0x0, symName: '__ZN4core3ptr46drop_in_place$LT$syn..item..ImplItemMethod$GT$17h81d5acf604d84d52E', symObjAddr: 0x8060, symBinAddr: 0xB7D20, symSize: 0x240 }
  - { offsetInCU: 0x256D9, offset: 0x360FAF, size: 0x8, addend: 0x0, symName: '__ZN4core3ptr46drop_in_place$LT$syn..item..TraitItemConst$GT$17ha3f3e5595f870971E', symObjAddr: 0x82A0, symBinAddr: 0xB7F60, symSize: 0x180 }
  - { offsetInCU: 0x25B43, offset: 0x361419, size: 0x8, addend: 0x0, symName: '__ZN4core3ptr47drop_in_place$LT$syn..generics..LifetimeDef$GT$17hd04bc9e6ed9dfb47E.llvm.2919429348807089406', symObjAddr: 0x8420, symBinAddr: 0xB80E0, symSize: 0x140 }
  - { offsetInCU: 0x25F77, offset: 0x36184D, size: 0x8, addend: 0x0, symName: '__ZN4core3ptr47drop_in_place$LT$syn..generics..WhereClause$GT$17hb4cbc6f597fb20f3E', symObjAddr: 0x8560, symBinAddr: 0xB8220, symSize: 0x120 }
  - { offsetInCU: 0x26437, offset: 0x361D0D, size: 0x8, addend: 0x0, symName: '__ZN4core3ptr47drop_in_place$LT$syn..path..GenericArgument$GT$17h8c0a0d8c6deaefb4E.llvm.2919429348807089406', symObjAddr: 0x8680, symBinAddr: 0xB8340, symSize: 0x110 }
  - { offsetInCU: 0x26771, offset: 0x362047, size: 0x8, addend: 0x0, symName: '__ZN4core3ptr48drop_in_place$LT$syn..generics..GenericParam$GT$17h9292481f35bf25edE.llvm.2919429348807089406', symObjAddr: 0x8790, symBinAddr: 0xB8450, symSize: 0xF0 }
  - { offsetInCU: 0x26B56, offset: 0x36242C, size: 0x8, addend: 0x0, symName: '__ZN4core3ptr49drop_in_place$LT$syn..generics..PredicateType$GT$17h1613bfd7dd5d96f2E.llvm.2919429348807089406', symObjAddr: 0x8880, symBinAddr: 0xB8540, symSize: 0x1E0 }
  - { offsetInCU: 0x27411, offset: 0x362CE7, size: 0x8, addend: 0x0, symName: '__ZN4core3ptr49drop_in_place$LT$syn..item..ForeignItemStatic$GT$17hfe9f44f9dab5bcd1E', symObjAddr: 0x8A60, symBinAddr: 0xB8720, symSize: 0x1D0 }
  - { offsetInCU: 0x27CAE, offset: 0x363584, size: 0x8, addend: 0x0, symName: '__ZN4core3ptr50drop_in_place$LT$$u5b$syn..item..ImplItem$u5d$$GT$17h234f53b7b0028fc3E.llvm.2919429348807089406', symObjAddr: 0x8C30, symBinAddr: 0xB88F0, symSize: 0x900 }
  - { offsetInCU: 0x29461, offset: 0x364D37, size: 0x8, addend: 0x0, symName: '__ZN4core3ptr50drop_in_place$LT$syn..generics..BoundLifetimes$GT$17hff8599a8d1e3c70cE.llvm.2919429348807089406', symObjAddr: 0x9530, symBinAddr: 0xB91F0, symSize: 0x110 }
  - { offsetInCU: 0x298E1, offset: 0x3651B7, size: 0x8, addend: 0x0, symName: '__ZN4core3ptr50drop_in_place$LT$syn..generics..TypeParamBound$GT$17h8d9a306b4a7f920fE.llvm.2919429348807089406', symObjAddr: 0x9640, symBinAddr: 0xB9300, symSize: 0xD0 }
  - { offsetInCU: 0x29BEF, offset: 0x3654C5, size: 0x8, addend: 0x0, symName: '__ZN4core3ptr50drop_in_place$LT$syn..generics..WherePredicate$GT$17h1fc5b3da95266304E.llvm.2919429348807089406', symObjAddr: 0x9710, symBinAddr: 0xB93D0, symSize: 0x110 }
  - { offsetInCU: 0x29D8F, offset: 0x365665, size: 0x8, addend: 0x0, symName: '__ZN4core3ptr51drop_in_place$LT$$u5b$syn..attr..Attribute$u5d$$GT$17h98bc8e7c97002f1bE.llvm.2919429348807089406', symObjAddr: 0x9820, symBinAddr: 0xB94E0, symSize: 0xE0 }
  - { offsetInCU: 0x29FA4, offset: 0x36587A, size: 0x8, addend: 0x0, symName: '__ZN4core3ptr51drop_in_place$LT$$u5b$syn..item..TraitItem$u5d$$GT$17h6f6b1abc16bc25ccE.llvm.2919429348807089406', symObjAddr: 0x9900, symBinAddr: 0xB95C0, symSize: 0x1100 }
  - { offsetInCU: 0x2D538, offset: 0x368E0E, size: 0x8, addend: 0x0, symName: '__ZN4core3ptr53drop_in_place$LT$$u5b$syn..item..ForeignItem$u5d$$GT$17ha5d8369d024c9578E.llvm.2919429348807089406', symObjAddr: 0xAA00, symBinAddr: 0xBA6C0, symSize: 0x1880 }
  - { offsetInCU: 0x325B2, offset: 0x36DE88, size: 0x8, addend: 0x0, symName: '__ZN4core3ptr58drop_in_place$LT$alloc..vec..Vec$LT$syn..expr..Arm$GT$$GT$17hf3db0825f3d9c861E.llvm.2919429348807089406', symObjAddr: 0xC2A0, symBinAddr: 0xBBF40, symSize: 0xD0 }
  - { offsetInCU: 0x32879, offset: 0x36E14F, size: 0x8, addend: 0x0, symName: '__ZN4core3ptr59drop_in_place$LT$alloc..boxed..Box$LT$syn..pat..Pat$GT$$GT$17h7037ce9bbd3729c6E.llvm.2919429348807089406', symObjAddr: 0xC370, symBinAddr: 0xBC010, symSize: 0x50 }
  - { offsetInCU: 0x329D2, offset: 0x36E2A8, size: 0x8, addend: 0x0, symName: '__ZN4core3ptr59drop_in_place$LT$alloc..boxed..Box$LT$syn..ty..Type$GT$$GT$17h2eccd13329dbe4faE.llvm.2919429348807089406', symObjAddr: 0xC3C0, symBinAddr: 0xBC060, symSize: 0x50 }
  - { offsetInCU: 0x32B2B, offset: 0x36E401, size: 0x8, addend: 0x0, symName: '__ZN4core3ptr59drop_in_place$LT$alloc..vec..Vec$LT$syn..item..Item$GT$$GT$17h544d8e20d05b2f97E.llvm.2919429348807089406', symObjAddr: 0xC410, symBinAddr: 0xBC0B0, symSize: 0xD0 }
  - { offsetInCU: 0x32DF2, offset: 0x36E6C8, size: 0x8, addend: 0x0, symName: '__ZN4core3ptr59drop_in_place$LT$alloc..vec..Vec$LT$syn..stmt..Stmt$GT$$GT$17hed4646381107e302E.llvm.2919429348807089406', symObjAddr: 0xC4E0, symBinAddr: 0xBC180, symSize: 0xD0 }
  - { offsetInCU: 0x330B9, offset: 0x36E98F, size: 0x8, addend: 0x0, symName: '__ZN4core3ptr61drop_in_place$LT$alloc..boxed..Box$LT$syn..expr..Expr$GT$$GT$17h66094ddc89015516E.llvm.2919429348807089406', symObjAddr: 0xC5B0, symBinAddr: 0xBC250, symSize: 0x50 }
  - { offsetInCU: 0x33212, offset: 0x36EAE8, size: 0x8, addend: 0x0, symName: '__ZN4core3ptr61drop_in_place$LT$alloc..boxed..Box$LT$syn..path..Path$GT$$GT$17h2d3525cb73f7a6b0E', symObjAddr: 0xC600, symBinAddr: 0xBC2A0, symSize: 0x50 }
  - { offsetInCU: 0x33388, offset: 0x36EC5E, size: 0x8, addend: 0x0, symName: '__ZN4core3ptr61drop_in_place$LT$syn..path..ParenthesizedGenericArguments$GT$17h21be9b1d7a6fab55E', symObjAddr: 0xC650, symBinAddr: 0xBC2F0, symSize: 0x170 }
  - { offsetInCU: 0x33985, offset: 0x36F25B, size: 0x8, addend: 0x0, symName: '__ZN4core3ptr62drop_in_place$LT$alloc..boxed..Box$LT$syn..data..Field$GT$$GT$17h262ebccfc4519882E', symObjAddr: 0xC7C0, symBinAddr: 0xBC460, symSize: 0x50 }
  - { offsetInCU: 0x33AFD, offset: 0x36F3D3, size: 0x8, addend: 0x0, symName: '__ZN4core3ptr62drop_in_place$LT$alloc..boxed..Box$LT$syn..item..FnArg$GT$$GT$17h0b51ffa358d2119aE', symObjAddr: 0xC810, symBinAddr: 0xBC4B0, symSize: 0x60 }
  - { offsetInCU: 0x33C73, offset: 0x36F549, size: 0x8, addend: 0x0, symName: '__ZN4core3ptr62drop_in_place$LT$alloc..boxed..Box$LT$syn..stmt..Block$GT$$GT$17h0633c21446a415f4E', symObjAddr: 0xC870, symBinAddr: 0xBC510, symSize: 0xE0 }
  - { offsetInCU: 0x340CA, offset: 0x36F9A0, size: 0x8, addend: 0x0, symName: '__ZN4core3ptr62drop_in_place$LT$alloc..vec..Vec$LT$syn..buffer..Entry$GT$$GT$17hd4c03db647ab81bdE.llvm.2919429348807089406', symObjAddr: 0xC950, symBinAddr: 0xBC5F0, symSize: 0xC0 }
  - { offsetInCU: 0x343A2, offset: 0x36FC78, size: 0x8, addend: 0x0, symName: '__ZN4core3ptr63drop_in_place$LT$alloc..vec..Vec$LT$syn..item..ImplItem$GT$$GT$17ha4d5b54edb0d5cb7E.llvm.2919429348807089406', symObjAddr: 0xCA10, symBinAddr: 0xBC6B0, symSize: 0x80 }
  - { offsetInCU: 0x3465A, offset: 0x36FF30, size: 0x8, addend: 0x0, symName: '__ZN4core3ptr64drop_in_place$LT$alloc..boxed..Box$LT$syn..data..Variant$GT$$GT$17hc82ad80f9b8d8bfeE', symObjAddr: 0xCA90, symBinAddr: 0xBC730, symSize: 0x50 }
  - { offsetInCU: 0x347B3, offset: 0x370089, size: 0x8, addend: 0x0, symName: '__ZN4core3ptr64drop_in_place$LT$alloc..boxed..Box$LT$syn..item..UseTree$GT$$GT$17h2fbb30105f88b737E', symObjAddr: 0xCAE0, symBinAddr: 0xBC780, symSize: 0x50 }
  - { offsetInCU: 0x3494A, offset: 0x370220, size: 0x8, addend: 0x0, symName: '__ZN4core3ptr64drop_in_place$LT$alloc..boxed..Box$LT$syn..pat..FieldPat$GT$$GT$17hb167b355d0d4733fE', symObjAddr: 0xCB30, symBinAddr: 0xBC7D0, symSize: 0x100 }
  - { offsetInCU: 0x3500F, offset: 0x3708E5, size: 0x8, addend: 0x0, symName: '__ZN4core3ptr64drop_in_place$LT$alloc..boxed..Box$LT$syn..ty..BareFnArg$GT$$GT$17h6488be9448346678E', symObjAddr: 0xCC30, symBinAddr: 0xBC8D0, symSize: 0xE0 }
  - { offsetInCU: 0x3554D, offset: 0x370E23, size: 0x8, addend: 0x0, symName: '__ZN4core3ptr64drop_in_place$LT$alloc..vec..Vec$LT$syn..attr..Attribute$GT$$GT$17h386324d8ea9bc309E.llvm.2919429348807089406', symObjAddr: 0xCD10, symBinAddr: 0xBC9B0, symSize: 0xF0 }
  - { offsetInCU: 0x3582D, offset: 0x371103, size: 0x8, addend: 0x0, symName: '__ZN4core3ptr64drop_in_place$LT$alloc..vec..Vec$LT$syn..item..TraitItem$GT$$GT$17h0ef3c4b7ce592e9eE.llvm.2919429348807089406', symObjAddr: 0xCE00, symBinAddr: 0xBCAA0, symSize: 0x80 }
  - { offsetInCU: 0x35AE5, offset: 0x3713BB, size: 0x8, addend: 0x0, symName: '__ZN4core3ptr65drop_in_place$LT$$LP$syn..item..FnArg$C$syn..token..Comma$RP$$GT$17h36dd53979a5809e4E.llvm.2919429348807089406', symObjAddr: 0xCE80, symBinAddr: 0xBCB20, symSize: 0x20 }
  - { offsetInCU: 0x35B21, offset: 0x3713F7, size: 0x8, addend: 0x0, symName: '__ZN4core3ptr65drop_in_place$LT$alloc..vec..Vec$LT$proc_macro..TokenTree$GT$$GT$17hc3670dd5608d5259E.llvm.2919429348807089406', symObjAddr: 0xCEA0, symBinAddr: 0xBCB40, symSize: 0x110 }
  - { offsetInCU: 0x35F20, offset: 0x3717F6, size: 0x8, addend: 0x0, symName: '__ZN4core3ptr65drop_in_place$LT$core..option..Option$LT$syn..expr..Label$GT$$GT$17ha723640fd01bec5dE', symObjAddr: 0xD070, symBinAddr: 0xBCC50, symSize: 0x30 }
  - { offsetInCU: 0x3605A, offset: 0x371930, size: 0x8, addend: 0x0, symName: '__ZN4core3ptr65drop_in_place$LT$core..option..Option$LT$syn..stmt..Block$GT$$GT$17hdff81fd7cb2986caE', symObjAddr: 0xD0A0, symBinAddr: 0xBCC80, symSize: 0xD0 }
  - { offsetInCU: 0x3636D, offset: 0x371C43, size: 0x8, addend: 0x0, symName: '__ZN4core3ptr66drop_in_place$LT$alloc..vec..Vec$LT$proc_macro2..TokenTree$GT$$GT$17h10186b8404a77a46E', symObjAddr: 0xD170, symBinAddr: 0xBCD50, symSize: 0xC0 }
  - { offsetInCU: 0x36645, offset: 0x371F1B, size: 0x8, addend: 0x0, symName: '__ZN4core3ptr66drop_in_place$LT$alloc..vec..Vec$LT$syn..item..ForeignItem$GT$$GT$17hc5d281d65e9f4398E.llvm.2919429348807089406', symObjAddr: 0xD230, symBinAddr: 0xBCE10, symSize: 0x80 }
  - { offsetInCU: 0x368FD, offset: 0x3721D3, size: 0x8, addend: 0x0, symName: '__ZN4core3ptr67drop_in_place$LT$$LP$syn..pat..FieldPat$C$syn..token..Comma$RP$$GT$17h28f8e87199173f9eE.llvm.2919429348807089406', symObjAddr: 0xD2B0, symBinAddr: 0xBCE90, symSize: 0xF0 }
  - { offsetInCU: 0x36E4F, offset: 0x372725, size: 0x8, addend: 0x0, symName: '__ZN4core3ptr67drop_in_place$LT$$LP$syn..ty..BareFnArg$C$syn..token..Comma$RP$$GT$17h9078c1a50219df0bE.llvm.2919429348807089406', symObjAddr: 0xD3A0, symBinAddr: 0xBCF80, symSize: 0xD0 }
  - { offsetInCU: 0x37288, offset: 0x372B5E, size: 0x8, addend: 0x0, symName: '__ZN4core3ptr67drop_in_place$LT$alloc..boxed..Box$LT$syn..attr..NestedMeta$GT$$GT$17hd0c3b988a8621445E.llvm.2919429348807089406', symObjAddr: 0xD470, symBinAddr: 0xBD050, symSize: 0xB0 }
  - { offsetInCU: 0x37445, offset: 0x372D1B, size: 0x8, addend: 0x0, symName: '__ZN4core3ptr67drop_in_place$LT$alloc..boxed..Box$LT$syn..expr..FieldValue$GT$$GT$17h8df780aa600ea8c2E', symObjAddr: 0xD520, symBinAddr: 0xBD100, symSize: 0xE0 }
  - { offsetInCU: 0x37963, offset: 0x373239, size: 0x8, addend: 0x0, symName: '__ZN4core3ptr68drop_in_place$LT$alloc..boxed..Box$LT$syn..path..PathSegment$GT$$GT$17h1957b54eed39c0bbE.llvm.2919429348807089406', symObjAddr: 0xD600, symBinAddr: 0xBD1E0, symSize: 0x170 }
  - { offsetInCU: 0x38046, offset: 0x37391C, size: 0x8, addend: 0x0, symName: '__ZN4core3ptr70drop_in_place$LT$$LP$syn..attr..NestedMeta$C$syn..token..Comma$RP$$GT$17he1b545a7aa3daf93E.llvm.2919429348807089406', symObjAddr: 0xD7F0, symBinAddr: 0xBD350, symSize: 0x90 }
  - { offsetInCU: 0x380B0, offset: 0x373986, size: 0x8, addend: 0x0, symName: '__ZN4core3ptr70drop_in_place$LT$$LP$syn..expr..FieldValue$C$syn..token..Comma$RP$$GT$17he025dc5053bc6a8bE.llvm.2919429348807089406', symObjAddr: 0xD880, symBinAddr: 0xBD3E0, symSize: 0xD0 }
  - { offsetInCU: 0x384AA, offset: 0x373D80, size: 0x8, addend: 0x0, symName: '__ZN4core3ptr72drop_in_place$LT$$LP$syn..path..PathSegment$C$syn..token..Colon2$RP$$GT$17h1baf491dcf9e7063E.llvm.2919429348807089406', symObjAddr: 0xD950, symBinAddr: 0xBD4B0, symSize: 0xC0 }
  - { offsetInCU: 0x3876D, offset: 0x374043, size: 0x8, addend: 0x0, symName: '__ZN4core3ptr72drop_in_place$LT$alloc..boxed..Box$LT$syn..generics..LifetimeDef$GT$$GT$17h05409fc29b94598aE.llvm.2919429348807089406', symObjAddr: 0xDA10, symBinAddr: 0xBD570, symSize: 0xC0 }
  - { offsetInCU: 0x38C97, offset: 0x37456D, size: 0x8, addend: 0x0, symName: '__ZN4core3ptr72drop_in_place$LT$alloc..boxed..Box$LT$syn..path..GenericArgument$GT$$GT$17ha8f8136d0c2b505bE.llvm.2919429348807089406', symObjAddr: 0xDAD0, symBinAddr: 0xBD630, symSize: 0x1D0 }
  - { offsetInCU: 0x393FB, offset: 0x374CD1, size: 0x8, addend: 0x0, symName: '__ZN4core3ptr73drop_in_place$LT$alloc..boxed..Box$LT$syn..generics..GenericParam$GT$$GT$17he12c7a4a5320b13eE', symObjAddr: 0xDCA0, symBinAddr: 0xBD800, symSize: 0x80 }
  - { offsetInCU: 0x39571, offset: 0x374E47, size: 0x8, addend: 0x0, symName: '__ZN4core3ptr75drop_in_place$LT$$LP$syn..generics..LifetimeDef$C$syn..token..Comma$RP$$GT$17h3ec14722aacb36caE.llvm.2919429348807089406', symObjAddr: 0xDD20, symBinAddr: 0xBD880, symSize: 0xB0 }
  - { offsetInCU: 0x39958, offset: 0x37522E, size: 0x8, addend: 0x0, symName: '__ZN4core3ptr75drop_in_place$LT$$LP$syn..path..GenericArgument$C$syn..token..Comma$RP$$GT$17hae99285c368746d4E.llvm.2919429348807089406', symObjAddr: 0xDDD0, symBinAddr: 0xBD930, symSize: 0x1E0 }
  - { offsetInCU: 0x39F1A, offset: 0x3757F0, size: 0x8, addend: 0x0, symName: '__ZN4core3ptr75drop_in_place$LT$alloc..boxed..Box$LT$syn..generics..TypeParamBound$GT$$GT$17h8f156ce07ea0b8b2E', symObjAddr: 0xDFB0, symBinAddr: 0xBDB10, symSize: 0xA0 }
  - { offsetInCU: 0x3A1F4, offset: 0x375ACA, size: 0x8, addend: 0x0, symName: '__ZN4core3ptr75drop_in_place$LT$alloc..boxed..Box$LT$syn..generics..WherePredicate$GT$$GT$17he9159676146cdcc0E', symObjAddr: 0xE050, symBinAddr: 0xBDBB0, symSize: 0xD0 }
  - { offsetInCU: 0x3A49C, offset: 0x375D72, size: 0x8, addend: 0x0, symName: '__ZN4core3ptr76drop_in_place$LT$$LP$syn..generics..GenericParam$C$syn..token..Comma$RP$$GT$17hb608b85cca720f66E.llvm.2919429348807089406', symObjAddr: 0xE120, symBinAddr: 0xBDC80, symSize: 0x50 }
  - { offsetInCU: 0x3A4D8, offset: 0x375DAE, size: 0x8, addend: 0x0, symName: '__ZN4core3ptr76drop_in_place$LT$$LP$syn..generics..TypeParamBound$C$syn..token..Add$RP$$GT$17h559c9012209c93bfE.llvm.2919429348807089406', symObjAddr: 0xE170, symBinAddr: 0xBDCD0, symSize: 0x80 }
  - { offsetInCU: 0x3A674, offset: 0x375F4A, size: 0x8, addend: 0x0, symName: '__ZN4core3ptr78drop_in_place$LT$$LP$syn..generics..WherePredicate$C$syn..token..Comma$RP$$GT$17he7c688f56dbd96f3E.llvm.2919429348807089406', symObjAddr: 0xE1F0, symBinAddr: 0xBDD50, symSize: 0xA0 }
  - { offsetInCU: 0x3A7EC, offset: 0x3760C2, size: 0x8, addend: 0x0, symName: '__ZN4core3ptr78drop_in_place$LT$alloc..boxed..Box$LT$syn..expr..GenericMethodArgument$GT$$GT$17h3384c00b5bd54c2aE', symObjAddr: 0xE290, symBinAddr: 0xBDDF0, symSize: 0x60 }
  - { offsetInCU: 0x3A962, offset: 0x376238, size: 0x8, addend: 0x0, symName: '__ZN4core3ptr81drop_in_place$LT$$LP$syn..expr..GenericMethodArgument$C$syn..token..Comma$RP$$GT$17h6cb8506ab56d85d6E.llvm.2919429348807089406', symObjAddr: 0xE370, symBinAddr: 0xBDE50, symSize: 0x30 }
  - { offsetInCU: 0x3A9FB, offset: 0x3762D1, size: 0x8, addend: 0x0, symName: '__ZN4core3ptr82drop_in_place$LT$alloc..vec..Vec$LT$$LP$syn..pat..Pat$C$syn..token..Or$RP$$GT$$GT$17he4f1446f4dd0391dE.llvm.2919429348807089406', symObjAddr: 0xE3A0, symBinAddr: 0xBDE80, symSize: 0xD0 }
  - { offsetInCU: 0x3ACFA, offset: 0x3765D0, size: 0x8, addend: 0x0, symName: '__ZN4core3ptr85drop_in_place$LT$alloc..vec..Vec$LT$$LP$syn..pat..Pat$C$syn..token..Comma$RP$$GT$$GT$17h8ead75bf9213bc10E.llvm.2919429348807089406', symObjAddr: 0xE470, symBinAddr: 0xBDF50, symSize: 0xD0 }
  - { offsetInCU: 0x3AFF9, offset: 0x3768CF, size: 0x8, addend: 0x0, symName: '__ZN4core3ptr85drop_in_place$LT$alloc..vec..Vec$LT$$LP$syn..ty..Type$C$syn..token..Comma$RP$$GT$$GT$17h2558a6f370e75802E.llvm.2919429348807089406', symObjAddr: 0xE540, symBinAddr: 0xBE020, symSize: 0xD0 }
  - { offsetInCU: 0x3B2F4, offset: 0x376BCA, size: 0x8, addend: 0x0, symName: '__ZN4core3ptr86drop_in_place$LT$$LP$syn..token..If$C$alloc..boxed..Box$LT$syn..expr..Expr$GT$$RP$$GT$17he48bd3f744075dddE', symObjAddr: 0xE610, symBinAddr: 0xBE0F0, symSize: 0x50 }
  - { offsetInCU: 0x3B46C, offset: 0x376D42, size: 0x8, addend: 0x0, symName: '__ZN4core3ptr86drop_in_place$LT$$u5b$$LP$syn..generics..TypeParamBound$C$syn..token..Add$RP$$u5d$$GT$17h0b00def6dc905f2cE', symObjAddr: 0xE660, symBinAddr: 0xBE140, symSize: 0xE0 }
  - { offsetInCU: 0x3B642, offset: 0x376F18, size: 0x8, addend: 0x0, symName: '__ZN4core3ptr86drop_in_place$LT$syn..punctuated..Punctuated$LT$syn..pat..Pat$C$syn..token..Or$GT$$GT$17h1078c5d178d382b7E', symObjAddr: 0xE740, symBinAddr: 0xBE220, symSize: 0x120 }
  - { offsetInCU: 0x3BB38, offset: 0x37740E, size: 0x8, addend: 0x0, symName: '__ZN4core3ptr87drop_in_place$LT$alloc..vec..Vec$LT$$LP$syn..expr..Expr$C$syn..token..Comma$RP$$GT$$GT$17ha5588c79c88b2eb2E.llvm.2919429348807089406', symObjAddr: 0xE860, symBinAddr: 0xBE340, symSize: 0xD0 }
  - { offsetInCU: 0x3BE33, offset: 0x377709, size: 0x8, addend: 0x0, symName: '__ZN4core3ptr87drop_in_place$LT$core..option..Option$LT$alloc..boxed..Box$LT$syn..pat..Pat$GT$$GT$$GT$17ha7f5fe0e6f73e820E', symObjAddr: 0xE930, symBinAddr: 0xBE410, symSize: 0x50 }
  - { offsetInCU: 0x3BFA3, offset: 0x377879, size: 0x8, addend: 0x0, symName: '__ZN4core3ptr87drop_in_place$LT$core..option..Option$LT$alloc..boxed..Box$LT$syn..ty..Type$GT$$GT$$GT$17hc8292da82d129de3E', symObjAddr: 0xE980, symBinAddr: 0xBE460, symSize: 0x50 }
  - { offsetInCU: 0x3C113, offset: 0x3779E9, size: 0x8, addend: 0x0, symName: '__ZN4core3ptr88drop_in_place$LT$alloc..vec..Vec$LT$$LP$syn..data..Field$C$syn..token..Comma$RP$$GT$$GT$17h92f883c9746a1265E.llvm.2919429348807089406', symObjAddr: 0xE9D0, symBinAddr: 0xBE4B0, symSize: 0xD0 }
  - { offsetInCU: 0x3C40E, offset: 0x377CE4, size: 0x8, addend: 0x0, symName: '__ZN4core3ptr88drop_in_place$LT$alloc..vec..Vec$LT$$LP$syn..item..FnArg$C$syn..token..Comma$RP$$GT$$GT$17h4467406a7c8f89d5E.llvm.2919429348807089406', symObjAddr: 0xEAA0, symBinAddr: 0xBE580, symSize: 0xC0 }
  - { offsetInCU: 0x3C707, offset: 0x377FDD, size: 0x8, addend: 0x0, symName: '__ZN4core3ptr89drop_in_place$LT$core..option..Option$LT$alloc..boxed..Box$LT$syn..expr..Expr$GT$$GT$$GT$17hdc211ccd33f196f2E', symObjAddr: 0xEB60, symBinAddr: 0xBE640, symSize: 0x50 }
  - { offsetInCU: 0x3C877, offset: 0x37814D, size: 0x8, addend: 0x0, symName: '__ZN4core3ptr89drop_in_place$LT$syn..punctuated..Punctuated$LT$syn..ty..Type$C$syn..token..Comma$GT$$GT$17h1c6e43341fabea97E.llvm.2919429348807089406', symObjAddr: 0xEBB0, symBinAddr: 0xBE690, symSize: 0x120 }
  - { offsetInCU: 0x3CD56, offset: 0x37862C, size: 0x8, addend: 0x0, symName: '__ZN4core3ptr90drop_in_place$LT$alloc..vec..Vec$LT$$LP$syn..data..Variant$C$syn..token..Comma$RP$$GT$$GT$17h7886d5ad254619b6E.llvm.2919429348807089406', symObjAddr: 0xECD0, symBinAddr: 0xBE7B0, symSize: 0xD0 }
  - { offsetInCU: 0x3D051, offset: 0x378927, size: 0x8, addend: 0x0, symName: '__ZN4core3ptr90drop_in_place$LT$alloc..vec..Vec$LT$$LP$syn..item..UseTree$C$syn..token..Comma$RP$$GT$$GT$17hd641cf5199af6a96E.llvm.2919429348807089406', symObjAddr: 0xEDA0, symBinAddr: 0xBE880, symSize: 0xC0 }
  - { offsetInCU: 0x3D388, offset: 0x378C5E, size: 0x8, addend: 0x0, symName: '__ZN4core3ptr90drop_in_place$LT$alloc..vec..Vec$LT$$LP$syn..pat..FieldPat$C$syn..token..Comma$RP$$GT$$GT$17h821f3c6217b2c623E.llvm.2919429348807089406', symObjAddr: 0xEE60, symBinAddr: 0xBE940, symSize: 0xD0 }
  - { offsetInCU: 0x3D68F, offset: 0x378F65, size: 0x8, addend: 0x0, symName: '__ZN4core3ptr90drop_in_place$LT$alloc..vec..Vec$LT$$LP$syn..ty..BareFnArg$C$syn..token..Comma$RP$$GT$$GT$17hb8d63f816cfff9deE.llvm.2919429348807089406', symObjAddr: 0xEF30, symBinAddr: 0xBEA10, symSize: 0xD0 }
  - { offsetInCU: 0x3D956, offset: 0x37922C, size: 0x8, addend: 0x0, symName: '__ZN4core3ptr90drop_in_place$LT$core..option..Option$LT$alloc..boxed..Box$LT$syn..data..Field$GT$$GT$$GT$17he146e9f4e32c136fE', symObjAddr: 0xF000, symBinAddr: 0xBEAE0, symSize: 0x50 }
  - { offsetInCU: 0x3DAC6, offset: 0x37939C, size: 0x8, addend: 0x0, symName: '__ZN4core3ptr90drop_in_place$LT$core..option..Option$LT$alloc..boxed..Box$LT$syn..item..FnArg$GT$$GT$$GT$17ha72e545cf6ea6548E', symObjAddr: 0xF050, symBinAddr: 0xBEB30, symSize: 0x50 }
  - { offsetInCU: 0x3DC55, offset: 0x37952B, size: 0x8, addend: 0x0, symName: '__ZN4core3ptr91drop_in_place$LT$syn..punctuated..Punctuated$LT$syn..expr..Expr$C$syn..token..Comma$GT$$GT$17hd2dfeb0c522d9a18E', symObjAddr: 0xF0A0, symBinAddr: 0xBEB80, symSize: 0x120 }
  - { offsetInCU: 0x3E0EA, offset: 0x3799C0, size: 0x8, addend: 0x0, symName: '__ZN4core3ptr92drop_in_place$LT$core..option..Option$LT$$LP$syn..token..As$C$proc_macro2..Ident$RP$$GT$$GT$17hdb8e08992a006501E', symObjAddr: 0xF1C0, symBinAddr: 0xBECA0, symSize: 0x30 }
  - { offsetInCU: 0x3E205, offset: 0x379ADB, size: 0x8, addend: 0x0, symName: '__ZN4core3ptr92drop_in_place$LT$syn..punctuated..Punctuated$LT$syn..data..Field$C$syn..token..Comma$GT$$GT$17h907c4fed8ae64bc3E', symObjAddr: 0xF1F0, symBinAddr: 0xBECD0, symSize: 0x120 }
  - { offsetInCU: 0x3E687, offset: 0x379F5D, size: 0x8, addend: 0x0, symName: '__ZN4core3ptr92drop_in_place$LT$syn..punctuated..Punctuated$LT$syn..item..FnArg$C$syn..token..Comma$GT$$GT$17h3049a14d789de61dE', symObjAddr: 0xF310, symBinAddr: 0xBEDF0, symSize: 0x150 }
  - { offsetInCU: 0x3EB18, offset: 0x37A3EE, size: 0x8, addend: 0x0, symName: '__ZN4core3ptr93drop_in_place$LT$alloc..vec..Vec$LT$$LP$syn..attr..NestedMeta$C$syn..token..Comma$RP$$GT$$GT$17h53ae1922cd101034E.llvm.2919429348807089406', symObjAddr: 0xF460, symBinAddr: 0xBEF40, symSize: 0xD0 }
  - { offsetInCU: 0x3EE4C, offset: 0x37A722, size: 0x8, addend: 0x0, symName: '__ZN4core3ptr93drop_in_place$LT$alloc..vec..Vec$LT$$LP$syn..expr..FieldValue$C$syn..token..Comma$RP$$GT$$GT$17hd798ac33b9d22184E.llvm.2919429348807089406', symObjAddr: 0xF530, symBinAddr: 0xBF010, symSize: 0xD0 }
  - { offsetInCU: 0x3F170, offset: 0x37AA46, size: 0x8, addend: 0x0, symName: '__ZN4core3ptr93drop_in_place$LT$alloc..vec..Vec$LT$$LP$syn..lifetime..Lifetime$C$syn..token..Add$RP$$GT$$GT$17hde298d17c652af62E.llvm.2919429348807089406', symObjAddr: 0xF600, symBinAddr: 0xBF0E0, symSize: 0x90 }
  - { offsetInCU: 0x3F471, offset: 0x37AD47, size: 0x8, addend: 0x0, symName: '__ZN4core3ptr94drop_in_place$LT$syn..punctuated..Punctuated$LT$syn..data..Variant$C$syn..token..Comma$GT$$GT$17hb4480d65f74dc9d7E', symObjAddr: 0xF690, symBinAddr: 0xBF170, symSize: 0x120 }
  - { offsetInCU: 0x3F944, offset: 0x37B21A, size: 0x8, addend: 0x0, symName: '__ZN4core3ptr94drop_in_place$LT$syn..punctuated..Punctuated$LT$syn..pat..FieldPat$C$syn..token..Comma$GT$$GT$17h612cbc9066d5afb1E', symObjAddr: 0xF7B0, symBinAddr: 0xBF290, symSize: 0xF0 }
  - { offsetInCU: 0x3FC9B, offset: 0x37B571, size: 0x8, addend: 0x0, symName: '__ZN4core3ptr94drop_in_place$LT$syn..punctuated..Punctuated$LT$syn..ty..BareFnArg$C$syn..token..Comma$GT$$GT$17ha9a668ce9972795bE', symObjAddr: 0xF8A0, symBinAddr: 0xBF380, symSize: 0xF0 }
  - { offsetInCU: 0x3FFB2, offset: 0x37B888, size: 0x8, addend: 0x0, symName: '__ZN4core3ptr95drop_in_place$LT$alloc..vec..Vec$LT$$LP$syn..path..PathSegment$C$syn..token..Colon2$RP$$GT$$GT$17hd4ac5ab6c0f8b220E.llvm.2919429348807089406', symObjAddr: 0xF990, symBinAddr: 0xBF470, symSize: 0x100 }
  - { offsetInCU: 0x4038E, offset: 0x37BC64, size: 0x8, addend: 0x0, symName: '__ZN4core3ptr95drop_in_place$LT$core..option..Option$LT$$LP$proc_macro2..Ident$C$syn..token..Colon$RP$$GT$$GT$17h7314df562090eafdE.llvm.2919429348807089406', symObjAddr: 0xFA90, symBinAddr: 0xBF570, symSize: 0x30 }
  - { offsetInCU: 0x404A9, offset: 0x37BD7F, size: 0x8, addend: 0x0, symName: '__ZN4core3ptr95drop_in_place$LT$core..option..Option$LT$alloc..boxed..Box$LT$syn..attr..NestedMeta$GT$$GT$$GT$17hc6a9c17daba692ddE.llvm.2919429348807089406', symObjAddr: 0xFAC0, symBinAddr: 0xBF5A0, symSize: 0x50 }
  - { offsetInCU: 0x40619, offset: 0x37BEEF, size: 0x8, addend: 0x0, symName: '__ZN4core3ptr96drop_in_place$LT$core..option..Option$LT$alloc..boxed..Box$LT$syn..path..PathSegment$GT$$GT$$GT$17h2e81cbe3c70bb71cE.llvm.2919429348807089406', symObjAddr: 0xFB10, symBinAddr: 0xBF5F0, symSize: 0x50 }
  - { offsetInCU: 0x40789, offset: 0x37C05F, size: 0x8, addend: 0x0, symName: '__ZN4core3ptr97drop_in_place$LT$syn..punctuated..Punctuated$LT$syn..attr..NestedMeta$C$syn..token..Comma$GT$$GT$17h975d4de078ee9c5cE.llvm.2919429348807089406', symObjAddr: 0xFB60, symBinAddr: 0xBF640, symSize: 0x190 }
  - { offsetInCU: 0x40B29, offset: 0x37C3FF, size: 0x8, addend: 0x0, symName: '__ZN4core3ptr97drop_in_place$LT$syn..punctuated..Punctuated$LT$syn..expr..FieldValue$C$syn..token..Comma$GT$$GT$17h11a5fffb46adfb11E', symObjAddr: 0xFCF0, symBinAddr: 0xBF7D0, symSize: 0xF0 }
  - { offsetInCU: 0x40E9D, offset: 0x37C773, size: 0x8, addend: 0x0, symName: '__ZN4core3ptr97drop_in_place$LT$syn..punctuated..Punctuated$LT$syn..lifetime..Lifetime$C$syn..token..Add$GT$$GT$17h5c54dea2c838d109E.llvm.2919429348807089406', symObjAddr: 0xFDE0, symBinAddr: 0xBF8C0, symSize: 0xD0 }
  - { offsetInCU: 0x4130F, offset: 0x37CBE5, size: 0x8, addend: 0x0, symName: '__ZN4core3ptr98drop_in_place$LT$alloc..vec..Vec$LT$$LP$syn..generics..LifetimeDef$C$syn..token..Comma$RP$$GT$$GT$17h1ff3008828a3546eE.llvm.2919429348807089406', symObjAddr: 0xFEB0, symBinAddr: 0xBF990, symSize: 0xC0 }
  - { offsetInCU: 0x41608, offset: 0x37CEDE, size: 0x8, addend: 0x0, symName: '__ZN4core3ptr98drop_in_place$LT$alloc..vec..Vec$LT$$LP$syn..path..GenericArgument$C$syn..token..Comma$RP$$GT$$GT$17ha8e33b474744c469E.llvm.2919429348807089406', symObjAddr: 0xFF70, symBinAddr: 0xBFA50, symSize: 0xD0 }
  - { offsetInCU: 0x41903, offset: 0x37D1D9, size: 0x8, addend: 0x0, symName: '__ZN4core3ptr99drop_in_place$LT$alloc..vec..Vec$LT$$LP$syn..generics..GenericParam$C$syn..token..Comma$RP$$GT$$GT$17h6a63382b7b118436E.llvm.2919429348807089406', symObjAddr: 0x10040, symBinAddr: 0xBFB20, symSize: 0xD0 }
  - { offsetInCU: 0x41BFE, offset: 0x37D4D4, size: 0x8, addend: 0x0, symName: '__ZN4core3ptr99drop_in_place$LT$alloc..vec..Vec$LT$$LP$syn..generics..TypeParamBound$C$syn..token..Add$RP$$GT$$GT$17h1faee7dfcf042dc4E.llvm.2919429348807089406', symObjAddr: 0x10110, symBinAddr: 0xBFBF0, symSize: 0xC0 }
  - { offsetInCU: 0x41EF7, offset: 0x37D7CD, size: 0x8, addend: 0x0, symName: '__ZN4core3ptr99drop_in_place$LT$syn..punctuated..Punctuated$LT$syn..path..PathSegment$C$syn..token..Colon2$GT$$GT$17hb961e4d7989a33ceE.llvm.2919429348807089406', symObjAddr: 0x101D0, symBinAddr: 0xBFCB0, symSize: 0xF0 }
  - { offsetInCU: 0x47BF0, offset: 0x3834C6, size: 0x8, addend: 0x0, symName: '__ZN48_$LT$T$u20$as$u20$core..clone..CloneToUninit$GT$15clone_to_uninit17h4ec7541d8e1e05f7E', symObjAddr: 0x220, symBinAddr: 0xAFF40, symSize: 0x340 }
  - { offsetInCU: 0x490D5, offset: 0x3849AB, size: 0x8, addend: 0x0, symName: '__ZN136_$LT$alloc..vec..Vec$LT$T$C$A$GT$$u20$as$u20$alloc..vec..spec_extend..SpecExtend$LT$T$C$alloc..vec..into_iter..IntoIter$LT$T$GT$$GT$$GT$11spec_extend17h8843d0dbc1b1f870E', symObjAddr: 0x20, symBinAddr: 0xAFE90, symSize: 0xB0 }
  - { offsetInCU: 0x49B0C, offset: 0x3853E2, size: 0x8, addend: 0x0, symName: '__ZN65_$LT$alloc..vec..Vec$LT$T$C$A$GT$$u20$as$u20$core..fmt..Debug$GT$3fmt17h4b81b50d8fe38c59E', symObjAddr: 0x106C0, symBinAddr: 0xBFE30, symSize: 0x80 }
  - { offsetInCU: 0x49CEF, offset: 0x3855C5, size: 0x8, addend: 0x0, symName: '__ZN65_$LT$alloc..vec..Vec$LT$T$C$A$GT$$u20$as$u20$core..fmt..Debug$GT$3fmt17hf50488d82a0ae802E', symObjAddr: 0x10940, symBinAddr: 0xBFEB0, symSize: 0x80 }
  - { offsetInCU: 0x49F30, offset: 0x385806, size: 0x8, addend: 0x0, symName: '__ZN67_$LT$alloc..vec..Vec$LT$T$C$A$GT$$u20$as$u20$core..clone..Clone$GT$5clone17h067ba7b3e9618fa6E', symObjAddr: 0x109C0, symBinAddr: 0xBFF30, symSize: 0x140 }
  - { offsetInCU: 0x4A3C0, offset: 0x385C96, size: 0x8, addend: 0x0, symName: '__ZN67_$LT$alloc..vec..Vec$LT$T$C$A$GT$$u20$as$u20$core..clone..Clone$GT$5clone17h0f27e1d119576456E', symObjAddr: 0x10C70, symBinAddr: 0xC0070, symSize: 0x170 }
  - { offsetInCU: 0x4A921, offset: 0x3861F7, size: 0x8, addend: 0x0, symName: '__ZN67_$LT$alloc..vec..Vec$LT$T$C$A$GT$$u20$as$u20$core..clone..Clone$GT$5clone17h0f34a8bef598482cE', symObjAddr: 0x10DE0, symBinAddr: 0xC01E0, symSize: 0x140 }
  - { offsetInCU: 0x4AD5D, offset: 0x386633, size: 0x8, addend: 0x0, symName: '__ZN67_$LT$alloc..vec..Vec$LT$T$C$A$GT$$u20$as$u20$core..clone..Clone$GT$5clone17h1e9d5b5197ca3b27E', symObjAddr: 0x10F20, symBinAddr: 0xC0320, symSize: 0x140 }
  - { offsetInCU: 0x4B199, offset: 0x386A6F, size: 0x8, addend: 0x0, symName: '__ZN67_$LT$alloc..vec..Vec$LT$T$C$A$GT$$u20$as$u20$core..clone..Clone$GT$5clone17h3324310790ff34b9E', symObjAddr: 0x11060, symBinAddr: 0xC0460, symSize: 0x150 }
  - { offsetInCU: 0x4B632, offset: 0x386F08, size: 0x8, addend: 0x0, symName: '__ZN67_$LT$alloc..vec..Vec$LT$T$C$A$GT$$u20$as$u20$core..clone..Clone$GT$5clone17h39a7f38aecdcfd11E', symObjAddr: 0x111B0, symBinAddr: 0xC05B0, symSize: 0x170 }
  - { offsetInCU: 0x4BAC9, offset: 0x38739F, size: 0x8, addend: 0x0, symName: '__ZN67_$LT$alloc..vec..Vec$LT$T$C$A$GT$$u20$as$u20$core..clone..Clone$GT$5clone17h4551f673e813c809E', symObjAddr: 0x11320, symBinAddr: 0xC0720, symSize: 0x140 }
  - { offsetInCU: 0x4BF02, offset: 0x3877D8, size: 0x8, addend: 0x0, symName: '__ZN67_$LT$alloc..vec..Vec$LT$T$C$A$GT$$u20$as$u20$core..clone..Clone$GT$5clone17h4b655b5cddcadd6aE', symObjAddr: 0x11460, symBinAddr: 0xC0860, symSize: 0x150 }
  - { offsetInCU: 0x4C39B, offset: 0x387C71, size: 0x8, addend: 0x0, symName: '__ZN67_$LT$alloc..vec..Vec$LT$T$C$A$GT$$u20$as$u20$core..clone..Clone$GT$5clone17h4b9e2160401b16dbE', symObjAddr: 0x115B0, symBinAddr: 0xC09B0, symSize: 0x1F0 }
  - { offsetInCU: 0x4C8BD, offset: 0x388193, size: 0x8, addend: 0x0, symName: '__ZN67_$LT$alloc..vec..Vec$LT$T$C$A$GT$$u20$as$u20$core..clone..Clone$GT$5clone17h60e34a1d98492b9fE', symObjAddr: 0x117A0, symBinAddr: 0xC0BA0, symSize: 0x140 }
  - { offsetInCU: 0x4CCF9, offset: 0x3885CF, size: 0x8, addend: 0x0, symName: '__ZN67_$LT$alloc..vec..Vec$LT$T$C$A$GT$$u20$as$u20$core..clone..Clone$GT$5clone17h636bcaf8346666b7E', symObjAddr: 0x118E0, symBinAddr: 0xC0CE0, symSize: 0x150 }
  - { offsetInCU: 0x4D192, offset: 0x388A68, size: 0x8, addend: 0x0, symName: '__ZN67_$LT$alloc..vec..Vec$LT$T$C$A$GT$$u20$as$u20$core..clone..Clone$GT$5clone17h65a8d92620c35388E', symObjAddr: 0x11A30, symBinAddr: 0xC0E30, symSize: 0x140 }
  - { offsetInCU: 0x4D622, offset: 0x388EF8, size: 0x8, addend: 0x0, symName: '__ZN67_$LT$alloc..vec..Vec$LT$T$C$A$GT$$u20$as$u20$core..clone..Clone$GT$5clone17h6fe6598834fbef78E', symObjAddr: 0x11B70, symBinAddr: 0xC0F70, symSize: 0x260 }
  - { offsetInCU: 0x4DC7A, offset: 0x389550, size: 0x8, addend: 0x0, symName: '__ZN67_$LT$alloc..vec..Vec$LT$T$C$A$GT$$u20$as$u20$core..clone..Clone$GT$5clone17h747a3e779494bc62E', symObjAddr: 0x11DD0, symBinAddr: 0xC11D0, symSize: 0x140 }
  - { offsetInCU: 0x4E0B6, offset: 0x38998C, size: 0x8, addend: 0x0, symName: '__ZN67_$LT$alloc..vec..Vec$LT$T$C$A$GT$$u20$as$u20$core..clone..Clone$GT$5clone17h795c7b2b8807866bE', symObjAddr: 0x11F10, symBinAddr: 0xC1310, symSize: 0x140 }
  - { offsetInCU: 0x4E546, offset: 0x389E1C, size: 0x8, addend: 0x0, symName: '__ZN67_$LT$alloc..vec..Vec$LT$T$C$A$GT$$u20$as$u20$core..clone..Clone$GT$5clone17h81b703d64d075dc5E', symObjAddr: 0x12050, symBinAddr: 0xC1450, symSize: 0x140 }
  - { offsetInCU: 0x4E9D6, offset: 0x38A2AC, size: 0x8, addend: 0x0, symName: '__ZN67_$LT$alloc..vec..Vec$LT$T$C$A$GT$$u20$as$u20$core..clone..Clone$GT$5clone17h86a578e0279be320E', symObjAddr: 0x12190, symBinAddr: 0xC1590, symSize: 0x140 }
  - { offsetInCU: 0x4EE64, offset: 0x38A73A, size: 0x8, addend: 0x0, symName: '__ZN67_$LT$alloc..vec..Vec$LT$T$C$A$GT$$u20$as$u20$core..clone..Clone$GT$5clone17h99b2d10e8bd6b5ceE', symObjAddr: 0x122D0, symBinAddr: 0xC16D0, symSize: 0x140 }
  - { offsetInCU: 0x4F2FB, offset: 0x38ABD1, size: 0x8, addend: 0x0, symName: '__ZN67_$LT$alloc..vec..Vec$LT$T$C$A$GT$$u20$as$u20$core..clone..Clone$GT$5clone17ha807b77bd68b1261E', symObjAddr: 0x12410, symBinAddr: 0xC1810, symSize: 0x140 }
  - { offsetInCU: 0x4F737, offset: 0x38B00D, size: 0x8, addend: 0x0, symName: '__ZN67_$LT$alloc..vec..Vec$LT$T$C$A$GT$$u20$as$u20$core..clone..Clone$GT$5clone17hb04bb518124eb3baE', symObjAddr: 0x12550, symBinAddr: 0xC1950, symSize: 0x230 }
  - { offsetInCU: 0x4FDB4, offset: 0x38B68A, size: 0x8, addend: 0x0, symName: '__ZN67_$LT$alloc..vec..Vec$LT$T$C$A$GT$$u20$as$u20$core..clone..Clone$GT$5clone17hb8d479b5bf54a37fE', symObjAddr: 0x12780, symBinAddr: 0xC1B80, symSize: 0x1D0 }
  - { offsetInCU: 0x5029D, offset: 0x38BB73, size: 0x8, addend: 0x0, symName: '__ZN67_$LT$alloc..vec..Vec$LT$T$C$A$GT$$u20$as$u20$core..clone..Clone$GT$5clone17hbfebd22721a45af6E', symObjAddr: 0x12950, symBinAddr: 0xC1D50, symSize: 0x140 }
  - { offsetInCU: 0x5072D, offset: 0x38C003, size: 0x8, addend: 0x0, symName: '__ZN67_$LT$alloc..vec..Vec$LT$T$C$A$GT$$u20$as$u20$core..clone..Clone$GT$5clone17hc639d5dcb2253337E', symObjAddr: 0x12A90, symBinAddr: 0xC1E90, symSize: 0x140 }
  - { offsetInCU: 0x50BBD, offset: 0x38C493, size: 0x8, addend: 0x0, symName: '__ZN67_$LT$alloc..vec..Vec$LT$T$C$A$GT$$u20$as$u20$core..clone..Clone$GT$5clone17hd173e8be3de648d9E', symObjAddr: 0x12D20, symBinAddr: 0xC1FD0, symSize: 0x180 }
  - { offsetInCU: 0x5108F, offset: 0x38C965, size: 0x8, addend: 0x0, symName: '__ZN67_$LT$alloc..vec..Vec$LT$T$C$A$GT$$u20$as$u20$core..clone..Clone$GT$5clone17hd3cfc84b2b5e9b62E', symObjAddr: 0x12EA0, symBinAddr: 0xC2150, symSize: 0x140 }
  - { offsetInCU: 0x5151D, offset: 0x38CDF3, size: 0x8, addend: 0x0, symName: '__ZN67_$LT$alloc..vec..Vec$LT$T$C$A$GT$$u20$as$u20$core..clone..Clone$GT$5clone17hf688e6ba0ffa0a5dE', symObjAddr: 0x12FE0, symBinAddr: 0xC2290, symSize: 0x140 }
  - { offsetInCU: 0x519AB, offset: 0x38D281, size: 0x8, addend: 0x0, symName: '__ZN67_$LT$alloc..vec..Vec$LT$T$C$A$GT$$u20$as$u20$core..clone..Clone$GT$5clone17hfda9ff849246773aE', symObjAddr: 0x13120, symBinAddr: 0xC23D0, symSize: 0x140 }
  - { offsetInCU: 0x52369, offset: 0x38DC3F, size: 0x8, addend: 0x0, symName: '__ZN70_$LT$alloc..vec..Vec$LT$T$C$A$GT$$u20$as$u20$core..ops..drop..Drop$GT$4drop17h22c555aa9db299d4E', symObjAddr: 0x13360, symBinAddr: 0xC2510, symSize: 0xA0 }
  - { offsetInCU: 0x5241E, offset: 0x38DCF4, size: 0x8, addend: 0x0, symName: '__ZN70_$LT$alloc..vec..Vec$LT$T$C$A$GT$$u20$as$u20$core..ops..drop..Drop$GT$4drop17h3e7660583633fff8E', symObjAddr: 0x13570, symBinAddr: 0xC25B0, symSize: 0xC0 }
  - { offsetInCU: 0x52480, offset: 0x38DD56, size: 0x8, addend: 0x0, symName: '__ZN70_$LT$alloc..vec..Vec$LT$T$C$A$GT$$u20$as$u20$core..ops..drop..Drop$GT$4drop17h3fa7ae0a6bee11e1E', symObjAddr: 0x13630, symBinAddr: 0xC2670, symSize: 0xE0 }
  - { offsetInCU: 0x5596F, offset: 0x391245, size: 0x8, addend: 0x0, symName: '__ZN87_$LT$alloc..vec..Vec$LT$syn..stmt..Stmt$GT$$u20$as$u20$syn..parse_quote..ParseQuote$GT$5parse17hfdb0e93f7cbc47adE', symObjAddr: 0x14F10, symBinAddr: 0xC2750, symSize: 0x20 }
  - { offsetInCU: 0x58275, offset: 0x393B4B, size: 0x8, addend: 0x0, symName: '__ZN5alloc3vec16Vec$LT$T$C$A$GT$16into_boxed_slice17hc26dbb1317cd1ac6E', symObjAddr: 0x10350, symBinAddr: 0xBFDA0, symSize: 0x90 }
  - { offsetInCU: 0x1E, offset: 0x3A8D20, size: 0x8, addend: 0x0, symName: '__ZN4core3ptr100drop_in_place$LT$core..option..Option$LT$alloc..boxed..Box$LT$syn..generics..LifetimeDef$GT$$GT$$GT$17h75a6086997697dd7E', symObjAddr: 0x0, symBinAddr: 0xC2770, symSize: 0x150 }
  - { offsetInCU: 0xBE, offset: 0x3A8DC0, size: 0x8, addend: 0x0, symName: '__ZN58_$LT$alloc..string..String$u20$as$u20$core..fmt..Write$GT$10write_char17h04bc467bd68a934bE', symObjAddr: 0x7450, symBinAddr: 0xC9BC0, symSize: 0x140 }
  - { offsetInCU: 0x4C3, offset: 0x3A91C5, size: 0x8, addend: 0x0, symName: '__ZN58_$LT$alloc..string..String$u20$as$u20$core..fmt..Write$GT$9write_str17h46a93205c3443fbaE', symObjAddr: 0x7590, symBinAddr: 0xC9D00, symSize: 0x60 }
  - { offsetInCU: 0xC32, offset: 0x3A9934, size: 0x8, addend: 0x0, symName: __ZN5alloc5alloc15exchange_malloc17h9a87608d0224859dE, symObjAddr: 0x75F0, symBinAddr: 0xC9D60, symSize: 0x40 }
  - { offsetInCU: 0x1E27, offset: 0x3AAB29, size: 0x8, addend: 0x0, symName: '__ZN4core3ptr100drop_in_place$LT$core..option..Option$LT$alloc..boxed..Box$LT$syn..generics..LifetimeDef$GT$$GT$$GT$17h75a6086997697dd7E', symObjAddr: 0x0, symBinAddr: 0xC2770, symSize: 0x150 }
  - { offsetInCU: 0x23A3, offset: 0x3AB0A5, size: 0x8, addend: 0x0, symName: '__ZN4core3ptr100drop_in_place$LT$core..option..Option$LT$alloc..boxed..Box$LT$syn..path..GenericArgument$GT$$GT$$GT$17h3d29ec00a8f1918dE', symObjAddr: 0x150, symBinAddr: 0xC28C0, symSize: 0x50 }
  - { offsetInCU: 0x2649, offset: 0x3AB34B, size: 0x8, addend: 0x0, symName: '__ZN4core3ptr103drop_in_place$LT$syn..punctuated..Punctuated$LT$syn..generics..TypeParamBound$C$syn..token..Add$GT$$GT$17he811d520c92af08aE', symObjAddr: 0x1A0, symBinAddr: 0xC2910, symSize: 0x1C0 }
  - { offsetInCU: 0x2EAD, offset: 0x3ABBAF, size: 0x8, addend: 0x0, symName: '__ZN4core3ptr108drop_in_place$LT$syn..punctuated..Punctuated$LT$syn..expr..GenericMethodArgument$C$syn..token..Comma$GT$$GT$17h92cbabe4862b2183E', symObjAddr: 0x360, symBinAddr: 0xC2AD0, symSize: 0x150 }
  - { offsetInCU: 0x3406, offset: 0x3AC108, size: 0x8, addend: 0x0, symName: '__ZN4core3ptr34drop_in_place$LT$syn..lit..Lit$GT$17hbe1efe749a08dd9aE', symObjAddr: 0x4B0, symBinAddr: 0xC2C20, symSize: 0x110 }
  - { offsetInCU: 0x3878, offset: 0x3AC57A, size: 0x8, addend: 0x0, symName: '__ZN4core3ptr34drop_in_place$LT$syn..pat..Pat$GT$17h3201f642e43ac2a2E', symObjAddr: 0x5C0, symBinAddr: 0xC2D30, symSize: 0x1050 }
  - { offsetInCU: 0x7237, offset: 0x3AFF39, size: 0x8, addend: 0x0, symName: '__ZN4core3ptr34drop_in_place$LT$syn..ty..Type$GT$17hfb5d159a08190130E', symObjAddr: 0x1610, symBinAddr: 0xC3D80, symSize: 0x620 }
  - { offsetInCU: 0x8DB5, offset: 0x3B1AB7, size: 0x8, addend: 0x0, symName: '__ZN4core3ptr36drop_in_place$LT$syn..expr..Expr$GT$17hf1921d1b09462bc3E.llvm.1415980140280537373', symObjAddr: 0x1C30, symBinAddr: 0xC43A0, symSize: 0x2EA0 }
  - { offsetInCU: 0x12809, offset: 0x3BB50B, size: 0x8, addend: 0x0, symName: '__ZN4core3ptr36drop_in_place$LT$syn..mac..Macro$GT$17h205613d7ad575f72E', symObjAddr: 0x4AD0, symBinAddr: 0xC7240, symSize: 0xE0 }
  - { offsetInCU: 0x12C0F, offset: 0x3BB911, size: 0x8, addend: 0x0, symName: '__ZN4core3ptr36drop_in_place$LT$syn..path..Path$GT$17he6d0bec66d66b98aE', symObjAddr: 0x4BB0, symBinAddr: 0xC7320, symSize: 0x230 }
  - { offsetInCU: 0x135A5, offset: 0x3BC2A7, size: 0x8, addend: 0x0, symName: '__ZN4core3ptr37drop_in_place$LT$syn..stmt..Block$GT$17h3aa429e75a234230E', symObjAddr: 0x4DE0, symBinAddr: 0xC7550, symSize: 0xD0 }
  - { offsetInCU: 0x1387C, offset: 0x3BC57E, size: 0x8, addend: 0x0, symName: '__ZN4core3ptr38drop_in_place$LT$syn..expr..Member$GT$17ha113d37a67d27aafE', symObjAddr: 0x4EB0, symBinAddr: 0xC7620, symSize: 0x30 }
  - { offsetInCU: 0x13A13, offset: 0x3BC715, size: 0x8, addend: 0x0, symName: '__ZN4core3ptr38drop_in_place$LT$syn..group..Group$GT$17h0fddc99b7dc4ab91E', symObjAddr: 0x4EE0, symBinAddr: 0xC7650, symSize: 0x70 }
  - { offsetInCU: 0x13D0B, offset: 0x3BCA0D, size: 0x8, addend: 0x0, symName: '__ZN4core3ptr39drop_in_place$LT$proc_macro2..Ident$GT$17hdeec010483268a0dE', symObjAddr: 0x4F50, symBinAddr: 0xC76C0, symSize: 0x30 }
  - { offsetInCU: 0x13E26, offset: 0x3BCB28, size: 0x8, addend: 0x0, symName: '__ZN4core3ptr39drop_in_place$LT$syn..lit..LitFloat$GT$17h89b7791cfce3cb6aE', symObjAddr: 0x4F80, symBinAddr: 0xC76F0, symSize: 0x70 }
  - { offsetInCU: 0x14198, offset: 0x3BCE9A, size: 0x8, addend: 0x0, symName: '__ZN4core3ptr39drop_in_place$LT$syn..pat..PatTuple$GT$17h96faeea9832d4c4bE', symObjAddr: 0x4FF0, symBinAddr: 0xC7760, symSize: 0x100 }
  - { offsetInCU: 0x144A1, offset: 0x3BD1A3, size: 0x8, addend: 0x0, symName: '__ZN4core3ptr40drop_in_place$LT$syn..ty..ReturnType$GT$17h6f97c9fdb958983eE', symObjAddr: 0x50F0, symBinAddr: 0xC7860, symSize: 0x50 }
  - { offsetInCU: 0x14611, offset: 0x3BD313, size: 0x8, addend: 0x0, symName: '__ZN4core3ptr41drop_in_place$LT$syn..attr..Attribute$GT$17h01ed88f7d2878bfcE', symObjAddr: 0x5140, symBinAddr: 0xC78B0, symSize: 0x40 }
  - { offsetInCU: 0x1462E, offset: 0x3BD330, size: 0x8, addend: 0x0, symName: '__ZN4core3ptr42drop_in_place$LT$alloc..string..String$GT$17hef974c60cd9900dbE', symObjAddr: 0x5180, symBinAddr: 0xC78F0, symSize: 0x20 }
  - { offsetInCU: 0x147D1, offset: 0x3BD4D3, size: 0x8, addend: 0x0, symName: '__ZN4core3ptr42drop_in_place$LT$syn..expr..ExprStruct$GT$17hcd4a233ae9f7b2e4E', symObjAddr: 0x51A0, symBinAddr: 0xC7910, symSize: 0x300 }
  - { offsetInCU: 0x153AC, offset: 0x3BE0AE, size: 0x8, addend: 0x0, symName: '__ZN4core3ptr42drop_in_place$LT$syn..expr..FieldValue$GT$17h42a16bcbdc918058E', symObjAddr: 0x54A0, symBinAddr: 0xC7C10, symSize: 0x140 }
  - { offsetInCU: 0x15838, offset: 0x3BE53A, size: 0x8, addend: 0x0, symName: '__ZN4core3ptr43drop_in_place$LT$syn..expr..ExprClosure$GT$17h33394450256957a8E', symObjAddr: 0x55E0, symBinAddr: 0xC7D50, symSize: 0x270 }
  - { offsetInCU: 0x16291, offset: 0x3BEF93, size: 0x8, addend: 0x0, symName: '__ZN4core3ptr44drop_in_place$LT$syn..lifetime..Lifetime$GT$17h3858225df033648aE', symObjAddr: 0x5850, symBinAddr: 0xC7FC0, symSize: 0x30 }
  - { offsetInCU: 0x1638D, offset: 0x3BF08F, size: 0x8, addend: 0x0, symName: '__ZN4core3ptr44drop_in_place$LT$syn..parse..ParseBuffer$GT$17h19c266fcccc430cbE', symObjAddr: 0x5880, symBinAddr: 0xC7FF0, symSize: 0x70 }
  - { offsetInCU: 0x167A4, offset: 0x3BF4A6, size: 0x8, addend: 0x0, symName: '__ZN4core3ptr45drop_in_place$LT$proc_macro2..TokenStream$GT$17h2507cb30e765dc85E', symObjAddr: 0x58F0, symBinAddr: 0xC8060, symSize: 0x140 }
  - { offsetInCU: 0x16C3E, offset: 0x3BF940, size: 0x8, addend: 0x0, symName: '__ZN4core3ptr47drop_in_place$LT$syn..path..GenericArgument$GT$17h8c0a0d8c6deaefb4E', symObjAddr: 0x5A30, symBinAddr: 0xC81A0, symSize: 0x110 }
  - { offsetInCU: 0x16FC9, offset: 0x3BFCCB, size: 0x8, addend: 0x0, symName: '__ZN4core3ptr50drop_in_place$LT$syn..generics..BoundLifetimes$GT$17hff8599a8d1e3c70cE', symObjAddr: 0x5B40, symBinAddr: 0xC82B0, symSize: 0xC0 }
  - { offsetInCU: 0x172B5, offset: 0x3BFFB7, size: 0x8, addend: 0x0, symName: '__ZN4core3ptr58drop_in_place$LT$alloc..vec..Vec$LT$syn..expr..Arm$GT$$GT$17hf3db0825f3d9c861E', symObjAddr: 0x5C00, symBinAddr: 0xC8370, symSize: 0xD0 }
  - { offsetInCU: 0x17575, offset: 0x3C0277, size: 0x8, addend: 0x0, symName: '__ZN4core3ptr59drop_in_place$LT$alloc..boxed..Box$LT$syn..pat..Pat$GT$$GT$17h7037ce9bbd3729c6E', symObjAddr: 0x5CD0, symBinAddr: 0xC8440, symSize: 0x50 }
  - { offsetInCU: 0x176CE, offset: 0x3C03D0, size: 0x8, addend: 0x0, symName: '__ZN4core3ptr59drop_in_place$LT$alloc..boxed..Box$LT$syn..ty..Type$GT$$GT$17h2eccd13329dbe4faE', symObjAddr: 0x5D20, symBinAddr: 0xC8490, symSize: 0x50 }
  - { offsetInCU: 0x17827, offset: 0x3C0529, size: 0x8, addend: 0x0, symName: '__ZN4core3ptr61drop_in_place$LT$alloc..boxed..Box$LT$syn..expr..Expr$GT$$GT$17h66094ddc89015516E', symObjAddr: 0x5D70, symBinAddr: 0xC84E0, symSize: 0x50 }
  - { offsetInCU: 0x17980, offset: 0x3C0682, size: 0x8, addend: 0x0, symName: '__ZN4core3ptr61drop_in_place$LT$syn..path..ParenthesizedGenericArguments$GT$17h21be9b1d7a6fab55E', symObjAddr: 0x5DC0, symBinAddr: 0xC8530, symSize: 0x170 }
  - { offsetInCU: 0x17F89, offset: 0x3C0C8B, size: 0x8, addend: 0x0, symName: '__ZN4core3ptr63drop_in_place$LT$alloc..boxed..Box$LT$syn..lit..LitRepr$GT$$GT$17h9c509b794406150eE', symObjAddr: 0x5F30, symBinAddr: 0xC86A0, symSize: 0x60 }
  - { offsetInCU: 0x18271, offset: 0x3C0F73, size: 0x8, addend: 0x0, symName: '__ZN4core3ptr64drop_in_place$LT$alloc..boxed..Box$LT$syn..pat..FieldPat$GT$$GT$17hb167b355d0d4733fE', symObjAddr: 0x5F90, symBinAddr: 0xC8700, symSize: 0x180 }
  - { offsetInCU: 0x1898E, offset: 0x3C1690, size: 0x8, addend: 0x0, symName: '__ZN4core3ptr64drop_in_place$LT$alloc..boxed..Box$LT$syn..ty..BareFnArg$GT$$GT$17h6488be9448346678E', symObjAddr: 0x6110, symBinAddr: 0xC8880, symSize: 0x160 }
  - { offsetInCU: 0x18F24, offset: 0x3C1C26, size: 0x8, addend: 0x0, symName: '__ZN4core3ptr64drop_in_place$LT$alloc..vec..Vec$LT$syn..attr..Attribute$GT$$GT$17h386324d8ea9bc309E.llvm.1415980140280537373', symObjAddr: 0x6270, symBinAddr: 0xC89E0, symSize: 0xF0 }
  - { offsetInCU: 0x1921A, offset: 0x3C1F1C, size: 0x8, addend: 0x0, symName: '__ZN4core3ptr65drop_in_place$LT$alloc..vec..Vec$LT$proc_macro..TokenTree$GT$$GT$17hc3670dd5608d5259E', symObjAddr: 0x6360, symBinAddr: 0xC8AD0, symSize: 0x110 }
  - { offsetInCU: 0x19612, offset: 0x3C2314, size: 0x8, addend: 0x0, symName: '__ZN4core3ptr65drop_in_place$LT$core..option..Option$LT$syn..expr..Label$GT$$GT$17ha723640fd01bec5dE', symObjAddr: 0x6470, symBinAddr: 0xC8BE0, symSize: 0x30 }
  - { offsetInCU: 0x1974C, offset: 0x3C244E, size: 0x8, addend: 0x0, symName: '__ZN4core3ptr65drop_in_place$LT$core..option..Option$LT$syn..path..QSelf$GT$$GT$17h213ca1c3399df9f2E', symObjAddr: 0x64A0, symBinAddr: 0xC8C10, symSize: 0x50 }
  - { offsetInCU: 0x198CD, offset: 0x3C25CF, size: 0x8, addend: 0x0, symName: '__ZN4core3ptr66drop_in_place$LT$core..option..Option$LT$syn..ty..Variadic$GT$$GT$17hc32134bb3933b0dfE', symObjAddr: 0x64F0, symBinAddr: 0xC8C60, symSize: 0xF0 }
  - { offsetInCU: 0x19BF7, offset: 0x3C28F9, size: 0x8, addend: 0x0, symName: '__ZN4core3ptr67drop_in_place$LT$alloc..boxed..Box$LT$syn..expr..FieldValue$GT$$GT$17h8df780aa600ea8c2E', symObjAddr: 0x65E0, symBinAddr: 0xC8D50, symSize: 0x160 }
  - { offsetInCU: 0x1A15A, offset: 0x3C2E5C, size: 0x8, addend: 0x0, symName: '__ZN4core3ptr72drop_in_place$LT$core..option..Option$LT$syn..lifetime..Lifetime$GT$$GT$17h31b55b93749c174dE', symObjAddr: 0x6740, symBinAddr: 0xC8EB0, symSize: 0x30 }
  - { offsetInCU: 0x1A275, offset: 0x3C2F77, size: 0x8, addend: 0x0, symName: '__ZN4core3ptr75drop_in_place$LT$alloc..boxed..Box$LT$syn..generics..TypeParamBound$GT$$GT$17h8f156ce07ea0b8b2E', symObjAddr: 0x6770, symBinAddr: 0xC8EE0, symSize: 0x140 }
  - { offsetInCU: 0x1A7D0, offset: 0x3C34D2, size: 0x8, addend: 0x0, symName: '__ZN4core3ptr78drop_in_place$LT$alloc..boxed..Box$LT$syn..expr..GenericMethodArgument$GT$$GT$17h3384c00b5bd54c2aE', symObjAddr: 0x68B0, symBinAddr: 0xC9020, symSize: 0x60 }
  - { offsetInCU: 0x1A965, offset: 0x3C3667, size: 0x8, addend: 0x0, symName: '__ZN4core3ptr78drop_in_place$LT$core..option..Option$LT$syn..generics..BoundLifetimes$GT$$GT$17h8175e66ad0c4a156E', symObjAddr: 0x6910, symBinAddr: 0xC9080, symSize: 0xE0 }
  - { offsetInCU: 0x1ACE2, offset: 0x3C39E4, size: 0x8, addend: 0x0, symName: '__ZN4core3ptr83drop_in_place$LT$core..result..Result$LT$syn..op..BinOp$C$syn..error..Error$GT$$GT$17hf42bffcbc93954faE', symObjAddr: 0x69F0, symBinAddr: 0xC9160, symSize: 0x80 }
  - { offsetInCU: 0x1AFDB, offset: 0x3C3CDD, size: 0x8, addend: 0x0, symName: '__ZN4core3ptr86drop_in_place$LT$syn..punctuated..Punctuated$LT$syn..pat..Pat$C$syn..token..Or$GT$$GT$17h1078c5d178d382b7E', symObjAddr: 0x6A70, symBinAddr: 0xC91E0, symSize: 0x120 }
  - { offsetInCU: 0x1B456, offset: 0x3C4158, size: 0x8, addend: 0x0, symName: '__ZN4core3ptr87drop_in_place$LT$core..option..Option$LT$alloc..boxed..Box$LT$syn..pat..Pat$GT$$GT$$GT$17ha7f5fe0e6f73e820E', symObjAddr: 0x6B90, symBinAddr: 0xC9300, symSize: 0x50 }
  - { offsetInCU: 0x1B5C6, offset: 0x3C42C8, size: 0x8, addend: 0x0, symName: '__ZN4core3ptr87drop_in_place$LT$core..option..Option$LT$alloc..boxed..Box$LT$syn..ty..Type$GT$$GT$$GT$17hc8292da82d129de3E', symObjAddr: 0x6BE0, symBinAddr: 0xC9350, symSize: 0x50 }
  - { offsetInCU: 0x1B736, offset: 0x3C4438, size: 0x8, addend: 0x0, symName: '__ZN4core3ptr89drop_in_place$LT$core..option..Option$LT$alloc..boxed..Box$LT$syn..expr..Expr$GT$$GT$$GT$17hdc211ccd33f196f2E', symObjAddr: 0x6C30, symBinAddr: 0xC93A0, symSize: 0x50 }
  - { offsetInCU: 0x1B8A6, offset: 0x3C45A8, size: 0x8, addend: 0x0, symName: '__ZN4core3ptr89drop_in_place$LT$syn..punctuated..Punctuated$LT$syn..pat..Pat$C$syn..token..Comma$GT$$GT$17hf8371102b0500adcE', symObjAddr: 0x6C80, symBinAddr: 0xC93F0, symSize: 0x120 }
  - { offsetInCU: 0x1BD63, offset: 0x3C4A65, size: 0x8, addend: 0x0, symName: '__ZN4core3ptr91drop_in_place$LT$syn..punctuated..Punctuated$LT$syn..expr..Expr$C$syn..token..Comma$GT$$GT$17hd2dfeb0c522d9a18E', symObjAddr: 0x6DA0, symBinAddr: 0xC9510, symSize: 0x120 }
  - { offsetInCU: 0x1C1F1, offset: 0x3C4EF3, size: 0x8, addend: 0x0, symName: '__ZN4core3ptr94drop_in_place$LT$syn..punctuated..Punctuated$LT$syn..pat..FieldPat$C$syn..token..Comma$GT$$GT$17h612cbc9066d5afb1E', symObjAddr: 0x6EC0, symBinAddr: 0xC9630, symSize: 0xF0 }
  - { offsetInCU: 0x1C4F0, offset: 0x3C51F2, size: 0x8, addend: 0x0, symName: '__ZN4core3ptr94drop_in_place$LT$syn..punctuated..Punctuated$LT$syn..ty..BareFnArg$C$syn..token..Comma$GT$$GT$17ha9a668ce9972795bE', symObjAddr: 0x6FB0, symBinAddr: 0xC9720, symSize: 0xF0 }
  - { offsetInCU: 0x1C7ED, offset: 0x3C54EF, size: 0x8, addend: 0x0, symName: '__ZN4core3ptr95drop_in_place$LT$core..option..Option$LT$alloc..boxed..Box$LT$syn..expr..FieldValue$GT$$GT$$GT$17hd0d57ae8c6b091c1E', symObjAddr: 0x70A0, symBinAddr: 0xC9810, symSize: 0x50 }
  - { offsetInCU: 0x1C95D, offset: 0x3C565F, size: 0x8, addend: 0x0, symName: '__ZN4core3ptr96drop_in_place$LT$core..option..Option$LT$alloc..boxed..Box$LT$syn..path..PathSegment$GT$$GT$$GT$17h2e81cbe3c70bb71cE', symObjAddr: 0x70F0, symBinAddr: 0xC9860, symSize: 0x180 }
  - { offsetInCU: 0x1D01A, offset: 0x3C5D1C, size: 0x8, addend: 0x0, symName: '__ZN4core3ptr97drop_in_place$LT$syn..punctuated..Punctuated$LT$syn..expr..FieldValue$C$syn..token..Comma$GT$$GT$17h11a5fffb46adfb11E', symObjAddr: 0x7270, symBinAddr: 0xC99E0, symSize: 0xF0 }
  - { offsetInCU: 0x1D393, offset: 0x3C6095, size: 0x8, addend: 0x0, symName: '__ZN4core3ptr97drop_in_place$LT$syn..punctuated..Punctuated$LT$syn..lifetime..Lifetime$C$syn..token..Add$GT$$GT$17h5c54dea2c838d109E', symObjAddr: 0x7360, symBinAddr: 0xC9AD0, symSize: 0xD0 }
  - { offsetInCU: 0x1DE1C, offset: 0x3C6B1E, size: 0x8, addend: 0x0, symName: '__ZN53_$LT$core..fmt..Error$u20$as$u20$core..fmt..Debug$GT$3fmt17h03dc662ab152f3aeE', symObjAddr: 0x7430, symBinAddr: 0xC9BA0, symSize: 0x20 }
  - { offsetInCU: 0x25AD6, offset: 0x3CE7D8, size: 0x8, addend: 0x0, symName: __ZN3syn4expr7parsing10parse_expr17h684b3b78faf213b4E, symObjAddr: 0x7630, symBinAddr: 0xC9DA0, symSize: 0x19D0 }
  - { offsetInCU: 0x28268, offset: 0x3D0F6A, size: 0x8, addend: 0x0, symName: __ZN3syn4expr7parsing15peek_precedence17h786832174e665121E, symObjAddr: 0x9000, symBinAddr: 0xCB770, symSize: 0x240 }
  - { offsetInCU: 0x28E1B, offset: 0x3D1B1D, size: 0x8, addend: 0x0, symName: __ZN3syn4expr7parsing14ambiguous_expr17h7c73b0ab5ad50f5aE, symObjAddr: 0x9240, symBinAddr: 0xCB9B0, symSize: 0xF0 }
  - { offsetInCU: 0x28E9E, offset: 0x3D1BA0, size: 0x8, addend: 0x0, symName: __ZN3syn4expr7parsing10expr_attrs17h66bc2999eaa82c1dE, symObjAddr: 0x9330, symBinAddr: 0xCBAA0, symSize: 0x940 }
  - { offsetInCU: 0x2AE73, offset: 0x3D3B75, size: 0x8, addend: 0x0, symName: __ZN3syn4expr7parsing10unary_expr17hdaadc2ad74ecc4a2E, symObjAddr: 0x9C70, symBinAddr: 0xCC3E0, symSize: 0xB80 }
  - { offsetInCU: 0x2CBD9, offset: 0x3D58DB, size: 0x8, addend: 0x0, symName: __ZN3syn4expr7parsing12trailer_expr17hd9e88d5ec011f83cE, symObjAddr: 0xA7F0, symBinAddr: 0xCCF60, symSize: 0x2990 }
  - { offsetInCU: 0x31C06, offset: 0x3DA908, size: 0x8, addend: 0x0, symName: __ZN3syn4expr7parsing14trailer_helper17hd9c2c92d36c55114E, symObjAddr: 0xD180, symBinAddr: 0xCF8F0, symSize: 0x24F0 }
  - { offsetInCU: 0x36179, offset: 0x3DEE7B, size: 0x8, addend: 0x0, symName: __ZN3syn4expr7parsing23path_or_macro_or_struct17had39e9f11aec7b68E, symObjAddr: 0xF670, symBinAddr: 0xD1DE0, symSize: 0x970 }
  - { offsetInCU: 0x376F7, offset: 0x3E03F9, size: 0x8, addend: 0x0, symName: __ZN3syn4expr7parsing14paren_or_tuple17h1b66161ba42304d6E, symObjAddr: 0xFFE0, symBinAddr: 0xD2750, symSize: 0x720 }
  - { offsetInCU: 0x37FF7, offset: 0x3E0CF9, size: 0x8, addend: 0x0, symName: __ZN3syn4expr7parsing15array_or_repeat17h2d084d601409b71aE, symObjAddr: 0x10700, symBinAddr: 0xD2E70, symSize: 0x8C0 }
  - { offsetInCU: 0x38B67, offset: 0x3E1869, size: 0x8, addend: 0x0, symName: __ZN3syn4expr7parsing10expr_early17h31e19cd3df74af45E, symObjAddr: 0x10FC0, symBinAddr: 0xD3730, symSize: 0x1200 }
  - { offsetInCU: 0x3AD9B, offset: 0x3E3A9D, size: 0x8, addend: 0x0, symName: __ZN3syn4expr7parsing10else_block17h85af2da261a7a0efE, symObjAddr: 0x12390, symBinAddr: 0xD4930, symSize: 0x460 }
  - { offsetInCU: 0x3B373, offset: 0x3E4075, size: 0x8, addend: 0x0, symName: __ZN3syn4expr7parsing8expr_box17h788652fdd35874adE, symObjAddr: 0x127F0, symBinAddr: 0xD4D90, symSize: 0x350 }
  - { offsetInCU: 0x3B85D, offset: 0x3E455F, size: 0x8, addend: 0x0, symName: __ZN3syn4expr7parsing10expr_unary17h8078eda13c99e202E, symObjAddr: 0x12B40, symBinAddr: 0xD50E0, symSize: 0x330 }
  - { offsetInCU: 0x3BE29, offset: 0x3E4B2B, size: 0x8, addend: 0x0, symName: __ZN3syn4expr7parsing12expr_closure17h5b6e444b2a8149e2E, symObjAddr: 0x12E70, symBinAddr: 0xD5410, symSize: 0x12B0 }
  - { offsetInCU: 0x3D785, offset: 0x3E6487, size: 0x8, addend: 0x0, symName: __ZN3syn4expr7parsing10expr_break17h7b566e31f8d9a5f2E, symObjAddr: 0x14120, symBinAddr: 0xD66C0, symSize: 0x530 }
  - { offsetInCU: 0x3E10E, offset: 0x3E6E10, size: 0x8, addend: 0x0, symName: __ZN3syn4expr7parsing8expr_ret17h5b82e5b7191096ffE, symObjAddr: 0x14650, symBinAddr: 0xD6BF0, symSize: 0x310 }
  - { offsetInCU: 0x3E5B5, offset: 0x3E72B7, size: 0x8, addend: 0x0, symName: __ZN3syn4expr7parsing18expr_struct_helper17h9236744648974cbcE, symObjAddr: 0x14960, symBinAddr: 0xD6F00, symSize: 0x7C0 }
  - { offsetInCU: 0x3F24D, offset: 0x3E7F4F, size: 0x8, addend: 0x0, symName: __ZN3syn4expr7parsing10expr_const17hb9a9a735044bf46dE, symObjAddr: 0x15120, symBinAddr: 0xD76C0, symSize: 0x510 }
  - { offsetInCU: 0x400AF, offset: 0x3E8DB1, size: 0x8, addend: 0x0, symName: __ZN3syn4expr7parsing10expr_range17h02863b30abf98d84E, symObjAddr: 0x15630, symBinAddr: 0xD7BD0, symSize: 0x410 }
  - { offsetInCU: 0x40884, offset: 0x3E9586, size: 0x8, addend: 0x0, symName: __ZN3syn4expr7parsing10check_cast17h642668a83e43dc17E, symObjAddr: 0x15A40, symBinAddr: 0xD7FE0, symSize: 0x440 }
  - { offsetInCU: 0x4144F, offset: 0x3EA151, size: 0x8, addend: 0x0, symName: '__ZN67_$LT$syn..expr..parsing..raw$u20$as$u20$syn..token..CustomToken$GT$4peek17h916728f6ab7642fdE', symObjAddr: 0x15E90, symBinAddr: 0xD8420, symSize: 0x180 }
  - { offsetInCU: 0x1E, offset: 0x401EFF, size: 0x8, addend: 0x0, symName: __ZN5alloc7raw_vec11finish_grow17h0495c2f2131df753E.llvm.7436538866384912358, symObjAddr: 0x0, symBinAddr: 0xD85A0, symSize: 0xA0 }
  - { offsetInCU: 0x6B6B, offset: 0x408A4C, size: 0x8, addend: 0x0, symName: __ZN5alloc7raw_vec11finish_grow17h0495c2f2131df753E.llvm.7436538866384912358, symObjAddr: 0x0, symBinAddr: 0xD85A0, symSize: 0xA0 }
  - { offsetInCU: 0x8AC3, offset: 0x40A9A4, size: 0x8, addend: 0x0, symName: '__ZN5alloc7raw_vec19RawVec$LT$T$C$A$GT$7reserve21do_reserve_and_handle17ha205d1e810429fe7E', symObjAddr: 0x1540, symBinAddr: 0x217B00, symSize: 0xA0 }
  - { offsetInCU: 0x8DBB, offset: 0x40AC9C, size: 0x8, addend: 0x0, symName: '__ZN5alloc7raw_vec19RawVec$LT$T$C$A$GT$7reserve21do_reserve_and_handle17hdc9e8bbb6589329bE', symObjAddr: 0x1750, symBinAddr: 0x217BA0, symSize: 0xB0 }
  - { offsetInCU: 0x90E6, offset: 0x40AFC7, size: 0x8, addend: 0x0, symName: '__ZN5alloc7raw_vec19RawVec$LT$T$C$A$GT$7reserve21do_reserve_and_handle17he214000fe5ef06eeE', symObjAddr: 0x1800, symBinAddr: 0x217C50, symSize: 0xC0 }
  - { offsetInCU: 0xFD2B, offset: 0x411C0C, size: 0x8, addend: 0x0, symName: '__ZN5alloc7raw_vec19RawVec$LT$T$C$A$GT$8grow_one17h08605552f4f70285E', symObjAddr: 0x18C0, symBinAddr: 0xD8640, symSize: 0xC0 }
  - { offsetInCU: 0x101F9, offset: 0x4120DA, size: 0x8, addend: 0x0, symName: '__ZN5alloc7raw_vec19RawVec$LT$T$C$A$GT$8grow_one17h0d1d7d47ecb5d181E', symObjAddr: 0x1980, symBinAddr: 0xD8700, symSize: 0x0 }
  - { offsetInCU: 0x106C7, offset: 0x4125A8, size: 0x8, addend: 0x0, symName: '__ZN5alloc7raw_vec19RawVec$LT$T$C$A$GT$8grow_one17h1630aee03a584a55E', symObjAddr: 0x1A40, symBinAddr: 0xD87C0, symSize: 0x0 }
  - { offsetInCU: 0x10B95, offset: 0x412A76, size: 0x8, addend: 0x0, symName: '__ZN5alloc7raw_vec19RawVec$LT$T$C$A$GT$8grow_one17h1e9702a0556e0dd1E', symObjAddr: 0x1B00, symBinAddr: 0xD8880, symSize: 0xC0 }
  - { offsetInCU: 0x11063, offset: 0x412F44, size: 0x8, addend: 0x0, symName: '__ZN5alloc7raw_vec19RawVec$LT$T$C$A$GT$8grow_one17h3330ea55ea3e3f66E', symObjAddr: 0x1BC0, symBinAddr: 0xD8940, symSize: 0x0 }
  - { offsetInCU: 0x11539, offset: 0x41341A, size: 0x8, addend: 0x0, symName: '__ZN5alloc7raw_vec19RawVec$LT$T$C$A$GT$8grow_one17h3ccc35cc0e1c9bbaE', symObjAddr: 0x1C80, symBinAddr: 0xD8A00, symSize: 0xC0 }
  - { offsetInCU: 0x11A0B, offset: 0x4138EC, size: 0x8, addend: 0x0, symName: '__ZN5alloc7raw_vec19RawVec$LT$T$C$A$GT$8grow_one17h3ecbe6fe516c3f85E', symObjAddr: 0x1D40, symBinAddr: 0xD8AC0, symSize: 0x0 }
  - { offsetInCU: 0x11EEC, offset: 0x413DCD, size: 0x8, addend: 0x0, symName: '__ZN5alloc7raw_vec19RawVec$LT$T$C$A$GT$8grow_one17h4bde22c6c3628c35E', symObjAddr: 0x1E00, symBinAddr: 0xD8B80, symSize: 0x0 }
  - { offsetInCU: 0x1234C, offset: 0x41422D, size: 0x8, addend: 0x0, symName: '__ZN5alloc7raw_vec19RawVec$LT$T$C$A$GT$8grow_one17h5489e10a8b77bab8E', symObjAddr: 0x1EB0, symBinAddr: 0xD8C30, symSize: 0x0 }
  - { offsetInCU: 0x12818, offset: 0x4146F9, size: 0x8, addend: 0x0, symName: '__ZN5alloc7raw_vec19RawVec$LT$T$C$A$GT$8grow_one17h59ec294e1c1da808E', symObjAddr: 0x1F60, symBinAddr: 0xD8CE0, symSize: 0xB0 }
  - { offsetInCU: 0x12CE6, offset: 0x414BC7, size: 0x8, addend: 0x0, symName: '__ZN5alloc7raw_vec19RawVec$LT$T$C$A$GT$8grow_one17h5aa64db5fa0642f7E', symObjAddr: 0x2010, symBinAddr: 0xD8D90, symSize: 0xC0 }
  - { offsetInCU: 0x13027, offset: 0x414F08, size: 0x8, addend: 0x0, symName: '__ZN5alloc7raw_vec19RawVec$LT$T$C$A$GT$8grow_one17h68de9c252237170dE', symObjAddr: 0x20D0, symBinAddr: 0xD8E50, symSize: 0xA0 }
  - { offsetInCU: 0x134B6, offset: 0x415397, size: 0x8, addend: 0x0, symName: '__ZN5alloc7raw_vec19RawVec$LT$T$C$A$GT$8grow_one17h6fd080ba3921d078E', symObjAddr: 0x2170, symBinAddr: 0xD8EF0, symSize: 0x0 }
  - { offsetInCU: 0x13984, offset: 0x415865, size: 0x8, addend: 0x0, symName: '__ZN5alloc7raw_vec19RawVec$LT$T$C$A$GT$8grow_one17h7488afcced04fb61E', symObjAddr: 0x2230, symBinAddr: 0xD8FB0, symSize: 0xC0 }
  - { offsetInCU: 0x13E52, offset: 0x415D33, size: 0x8, addend: 0x0, symName: '__ZN5alloc7raw_vec19RawVec$LT$T$C$A$GT$8grow_one17h7b67068b95f3a015E', symObjAddr: 0x22F0, symBinAddr: 0xD9070, symSize: 0xC0 }
  - { offsetInCU: 0x1434B, offset: 0x41622C, size: 0x8, addend: 0x0, symName: '__ZN5alloc7raw_vec19RawVec$LT$T$C$A$GT$8grow_one17h7f8f3ce9755569dfE', symObjAddr: 0x23B0, symBinAddr: 0xD9130, symSize: 0xB0 }
  - { offsetInCU: 0x14817, offset: 0x4166F8, size: 0x8, addend: 0x0, symName: '__ZN5alloc7raw_vec19RawVec$LT$T$C$A$GT$8grow_one17h8a66c2aa27418570E', symObjAddr: 0x2460, symBinAddr: 0xD91E0, symSize: 0xB0 }
  - { offsetInCU: 0x14CE3, offset: 0x416BC4, size: 0x8, addend: 0x0, symName: '__ZN5alloc7raw_vec19RawVec$LT$T$C$A$GT$8grow_one17h936b8e68541504a4E', symObjAddr: 0x2510, symBinAddr: 0xD9290, symSize: 0xC0 }
  - { offsetInCU: 0x151B1, offset: 0x417092, size: 0x8, addend: 0x0, symName: '__ZN5alloc7raw_vec19RawVec$LT$T$C$A$GT$8grow_one17hbcead0d4d18ace99E', symObjAddr: 0x25D0, symBinAddr: 0xD9350, symSize: 0xC0 }
  - { offsetInCU: 0x15685, offset: 0x417566, size: 0x8, addend: 0x0, symName: '__ZN5alloc7raw_vec19RawVec$LT$T$C$A$GT$8grow_one17hc527c0f89616509aE', symObjAddr: 0x2690, symBinAddr: 0xD9410, symSize: 0xB0 }
  - { offsetInCU: 0x15B51, offset: 0x417A32, size: 0x8, addend: 0x0, symName: '__ZN5alloc7raw_vec19RawVec$LT$T$C$A$GT$8grow_one17hcdcf6148bc2fe027E', symObjAddr: 0x2740, symBinAddr: 0xD94C0, symSize: 0xC0 }
  - { offsetInCU: 0x1601F, offset: 0x417F00, size: 0x8, addend: 0x0, symName: '__ZN5alloc7raw_vec19RawVec$LT$T$C$A$GT$8grow_one17hd0099d1a8d5d37ccE', symObjAddr: 0x2800, symBinAddr: 0xD9580, symSize: 0xB0 }
  - { offsetInCU: 0x164EB, offset: 0x4183CC, size: 0x8, addend: 0x0, symName: '__ZN5alloc7raw_vec19RawVec$LT$T$C$A$GT$8grow_one17he6f91a044893fcdcE', symObjAddr: 0x28B0, symBinAddr: 0xD9630, symSize: 0xC0 }
  - { offsetInCU: 0x50A, offset: 0x418C6B, size: 0x8, addend: 0x0, symName: '__ZN3syn8generics8printing80_$LT$impl$u20$quote..to_tokens..ToTokens$u20$for$u20$syn..generics..Generics$GT$9to_tokens17hc516f0ca57e61ab8E', symObjAddr: 0xF0D0, symBinAddr: 0xE6C40, symSize: 0x240 }
  - { offsetInCU: 0xD1D, offset: 0x41947E, size: 0x8, addend: 0x0, symName: '__ZN3syn8generics8printing86_$LT$impl$u20$quote..to_tokens..ToTokens$u20$for$u20$syn..generics..BoundLifetimes$GT$9to_tokens17he45909f9777a2097E', symObjAddr: 0xFC50, symBinAddr: 0xE6E80, symSize: 0x160 }
  - { offsetInCU: 0x12D8, offset: 0x419A39, size: 0x8, addend: 0x0, symName: '__ZN3syn8generics8printing81_$LT$impl$u20$quote..to_tokens..ToTokens$u20$for$u20$syn..generics..TypeParam$GT$9to_tokens17hcaef93599cfca25cE', symObjAddr: 0xFFD0, symBinAddr: 0xE6FE0, symSize: 0x620 }
  - { offsetInCU: 0x25DA, offset: 0x41AD3B, size: 0x8, addend: 0x0, symName: '__ZN3syn8generics8printing82_$LT$impl$u20$quote..to_tokens..ToTokens$u20$for$u20$syn..generics..TraitBound$GT$9to_tokens17he474479258d3148eE', symObjAddr: 0x105F0, symBinAddr: 0xE7600, symSize: 0x470 }
  - { offsetInCU: 0x3654, offset: 0x41BDB5, size: 0x8, addend: 0x0, symName: '__ZN3syn8generics8printing82_$LT$impl$u20$quote..to_tokens..ToTokens$u20$for$u20$syn..generics..ConstParam$GT$9to_tokens17h36d48730b501dc3bE', symObjAddr: 0x10A90, symBinAddr: 0xE7A70, symSize: 0x1E0 }
  - { offsetInCU: 0x3A9A, offset: 0x41C1FB, size: 0x8, addend: 0x0, symName: '__ZN3syn8generics8printing83_$LT$impl$u20$quote..to_tokens..ToTokens$u20$for$u20$syn..generics..WhereClause$GT$9to_tokens17hef22306b14050697E', symObjAddr: 0x10C70, symBinAddr: 0xE7C50, symSize: 0x130 }
  - { offsetInCU: 0x3F60, offset: 0x41C6C1, size: 0x8, addend: 0x0, symName: '__ZN3syn8generics8printing85_$LT$impl$u20$quote..to_tokens..ToTokens$u20$for$u20$syn..generics..PredicateType$GT$9to_tokens17hef8e2cddb761bcdcE', symObjAddr: 0x10DA0, symBinAddr: 0xE7D80, symSize: 0x1C0 }
  - { offsetInCU: 0x47BE, offset: 0x41CF1F, size: 0x8, addend: 0x0, symName: '__ZN3syn8generics7parsing71_$LT$impl$u20$syn..parse..Parse$u20$for$u20$syn..generics..Generics$GT$5parse17hd28783ad0738943bE', symObjAddr: 0x9000, symBinAddr: 0xE16F0, symSize: 0x1050 }
  - { offsetInCU: 0x6D56, offset: 0x41F4B7, size: 0x8, addend: 0x0, symName: '__ZN3syn8generics7parsing74_$LT$impl$u20$syn..parse..Parse$u20$for$u20$syn..generics..LifetimeDef$GT$5parse17h6b48105c285d7c8dE', symObjAddr: 0xAB40, symBinAddr: 0xE2740, symSize: 0x740 }
  - { offsetInCU: 0x7BB7, offset: 0x420318, size: 0x8, addend: 0x0, symName: '__ZN3syn8generics7parsing77_$LT$impl$u20$syn..parse..Parse$u20$for$u20$syn..generics..BoundLifetimes$GT$5parse17h15c1b0ce740aaaaeE', symObjAddr: 0xB280, symBinAddr: 0xE2E80, symSize: 0x350 }
  - { offsetInCU: 0x8053, offset: 0x4207B4, size: 0x8, addend: 0x0, symName: '__ZN3syn8generics7parsing72_$LT$impl$u20$syn..parse..Parse$u20$for$u20$syn..generics..TypeParam$GT$5parse17hc27b5d6b1736a231E', symObjAddr: 0xB5D0, symBinAddr: 0xE31D0, symSize: 0xCD0 }
  - { offsetInCU: 0x99CF, offset: 0x422130, size: 0x8, addend: 0x0, symName: '__ZN3syn8generics7parsing77_$LT$impl$u20$syn..parse..Parse$u20$for$u20$syn..generics..TypeParamBound$GT$5parse17hb4643a841c373f4aE', symObjAddr: 0xC2A0, symBinAddr: 0xE3EA0, symSize: 0x440 }
  - { offsetInCU: 0xA2D0, offset: 0x422A31, size: 0x8, addend: 0x0, symName: '__ZN3syn8generics7parsing73_$LT$impl$u20$syn..parse..Parse$u20$for$u20$syn..generics..TraitBound$GT$5parse17hf6a49d61f3b13819E', symObjAddr: 0xCB60, symBinAddr: 0xE4760, symSize: 0x960 }
  - { offsetInCU: 0xB924, offset: 0x424085, size: 0x8, addend: 0x0, symName: '__ZN3syn8generics7parsing73_$LT$impl$u20$syn..parse..Parse$u20$for$u20$syn..generics..ConstParam$GT$5parse17hd78f2ac884064914E', symObjAddr: 0xD550, symBinAddr: 0xE50C0, symSize: 0x9D0 }
  - { offsetInCU: 0xCCE5, offset: 0x425446, size: 0x8, addend: 0x0, symName: '__ZN3syn8generics7parsing74_$LT$impl$u20$syn..parse..Parse$u20$for$u20$syn..generics..WhereClause$GT$5parse17h226f401ead5bb3e0E', symObjAddr: 0xDF20, symBinAddr: 0xE5A90, symSize: 0x410 }
  - { offsetInCU: 0xD800, offset: 0x425F61, size: 0x8, addend: 0x0, symName: '__ZN3syn8generics7parsing77_$LT$impl$u20$syn..parse..Parse$u20$for$u20$syn..generics..WherePredicate$GT$5parse17h1ac1764ff88b87b3E', symObjAddr: 0xE330, symBinAddr: 0xE5EA0, symSize: 0xDA0 }
  - { offsetInCU: 0xF405, offset: 0x427B66, size: 0x8, addend: 0x0, symName: '__ZN74_$LT$syn..generics..GenericParam$u20$as$u20$quote..to_tokens..ToTokens$GT$9to_tokens17h97d754f607da3f78E', symObjAddr: 0x11110, symBinAddr: 0xE7F40, symSize: 0x280 }
  - { offsetInCU: 0xFD98, offset: 0x4284F9, size: 0x8, addend: 0x0, symName: '__ZN76_$LT$syn..generics..WherePredicate$u20$as$u20$quote..to_tokens..ToTokens$GT$9to_tokens17he06ae6ad5c5834ebE', symObjAddr: 0x11660, symBinAddr: 0xE81C0, symSize: 0x1F0 }
  - { offsetInCU: 0x15403, offset: 0x42DB64, size: 0x8, addend: 0x0, symName: '__ZN3syn3gen5clone74_$LT$impl$u20$core..clone..Clone$u20$for$u20$syn..generics..ConstParam$GT$5clone17h0fa17406df606518E', symObjAddr: 0x11890, symBinAddr: 0xE83B0, symSize: 0x1E0 }
  - { offsetInCU: 0x15697, offset: 0x42DDF8, size: 0x8, addend: 0x0, symName: '__ZN3syn3gen5clone75_$LT$impl$u20$core..clone..Clone$u20$for$u20$syn..generics..LifetimeDef$GT$5clone17hb15b48a68f8d5022E', symObjAddr: 0x11BF0, symBinAddr: 0xE8590, symSize: 0x130 }
  - { offsetInCU: 0x15906, offset: 0x42E067, size: 0x8, addend: 0x0, symName: '__ZN3syn3gen5clone77_$LT$impl$u20$core..clone..Clone$u20$for$u20$syn..generics..PredicateType$GT$5clone17he0efb0081e32a613E', symObjAddr: 0x11EB0, symBinAddr: 0xE86C0, symSize: 0x120 }
  - { offsetInCU: 0x15A98, offset: 0x42E1F9, size: 0x8, addend: 0x0, symName: '__ZN3syn3gen5clone73_$LT$impl$u20$core..clone..Clone$u20$for$u20$syn..generics..TypeParam$GT$5clone17hc1e4709c965fdb45E', symObjAddr: 0x12100, symBinAddr: 0xE87E0, symSize: 0x1E0 }
  - { offsetInCU: 0x15D06, offset: 0x42E467, size: 0x8, addend: 0x0, symName: '__ZN3syn3gen5clone78_$LT$impl$u20$core..clone..Clone$u20$for$u20$syn..generics..TypeParamBound$GT$5clone17h7cca5a3d039926f0E', symObjAddr: 0x122E0, symBinAddr: 0xE89C0, symSize: 0x1C0 }
  - { offsetInCU: 0x15F91, offset: 0x42E6F2, size: 0x8, addend: 0x0, symName: '__ZN3syn3gen5clone78_$LT$impl$u20$core..clone..Clone$u20$for$u20$syn..generics..WherePredicate$GT$5clone17h0e532bcca303cf29E', symObjAddr: 0x124C0, symBinAddr: 0xE8B80, symSize: 0x1E0 }
  - { offsetInCU: 0x1900A, offset: 0x43176B, size: 0x8, addend: 0x0, symName: '__ZN4core3ptr100drop_in_place$LT$core..option..Option$LT$alloc..boxed..Box$LT$syn..generics..LifetimeDef$GT$$GT$$GT$17h75a6086997697dd7E.llvm.15033232405655643010', symObjAddr: 0x2A0, symBinAddr: 0xD96F0, symSize: 0x50 }
  - { offsetInCU: 0x1918C, offset: 0x4318ED, size: 0x8, addend: 0x0, symName: '__ZN4core3ptr100drop_in_place$LT$core..option..Option$LT$alloc..boxed..Box$LT$syn..path..GenericArgument$GT$$GT$$GT$17h3d29ec00a8f1918dE', symObjAddr: 0x2F0, symBinAddr: 0xD9740, symSize: 0x50 }
  - { offsetInCU: 0x1933A, offset: 0x431A9B, size: 0x8, addend: 0x0, symName: '__ZN4core3ptr101drop_in_place$LT$core..option..Option$LT$alloc..boxed..Box$LT$syn..generics..GenericParam$GT$$GT$$GT$17h1fee4f1c7bd902c4E.llvm.15033232405655643010', symObjAddr: 0x340, symBinAddr: 0xD9790, symSize: 0x90 }
  - { offsetInCU: 0x19511, offset: 0x431C72, size: 0x8, addend: 0x0, symName: '__ZN4core3ptr102drop_in_place$LT$syn..punctuated..Punctuated$LT$syn..generics..LifetimeDef$C$syn..token..Comma$GT$$GT$17h6013ea99e87d4528E.llvm.15033232405655643010', symObjAddr: 0x3D0, symBinAddr: 0xD9820, symSize: 0x110 }
  - { offsetInCU: 0x19A7F, offset: 0x4321E0, size: 0x8, addend: 0x0, symName: '__ZN4core3ptr103drop_in_place$LT$core..option..Option$LT$alloc..boxed..Box$LT$syn..generics..TypeParamBound$GT$$GT$$GT$17h6cee73bc2b2ecea8E', symObjAddr: 0x4E0, symBinAddr: 0xD9930, symSize: 0xA0 }
  - { offsetInCU: 0x19DEA, offset: 0x43254B, size: 0x8, addend: 0x0, symName: '__ZN4core3ptr103drop_in_place$LT$core..option..Option$LT$alloc..boxed..Box$LT$syn..generics..WherePredicate$GT$$GT$$GT$17headad361972eced7E', symObjAddr: 0x580, symBinAddr: 0xD99D0, symSize: 0x130 }
  - { offsetInCU: 0x1A157, offset: 0x4328B8, size: 0x8, addend: 0x0, symName: '__ZN4core3ptr103drop_in_place$LT$syn..punctuated..Punctuated$LT$syn..generics..GenericParam$C$syn..token..Comma$GT$$GT$17hae00367f0c570156E.llvm.15033232405655643010', symObjAddr: 0x6B0, symBinAddr: 0xD9B00, symSize: 0xF0 }
  - { offsetInCU: 0x1A578, offset: 0x432CD9, size: 0x8, addend: 0x0, symName: '__ZN4core3ptr103drop_in_place$LT$syn..punctuated..Punctuated$LT$syn..generics..TypeParamBound$C$syn..token..Add$GT$$GT$17he811d520c92af08aE.llvm.15033232405655643010', symObjAddr: 0x7A0, symBinAddr: 0xD9BF0, symSize: 0xE0 }
  - { offsetInCU: 0x1AB41, offset: 0x4332A2, size: 0x8, addend: 0x0, symName: '__ZN4core3ptr104drop_in_place$LT$core..iter..adapters..peekable..Peekable$LT$proc_macro2..token_stream..IntoIter$GT$$GT$17h4b50db874834a2f0E', symObjAddr: 0x880, symBinAddr: 0xD9CD0, symSize: 0x70 }
  - { offsetInCU: 0x1ACAA, offset: 0x43340B, size: 0x8, addend: 0x0, symName: '__ZN4core3ptr105drop_in_place$LT$syn..punctuated..Punctuated$LT$syn..generics..WherePredicate$C$syn..token..Comma$GT$$GT$17h53c71b5d1c98483dE', symObjAddr: 0x8F0, symBinAddr: 0xD9D40, symSize: 0xE0 }
  - { offsetInCU: 0x1B014, offset: 0x433775, size: 0x8, addend: 0x0, symName: '__ZN4core3ptr108drop_in_place$LT$syn..punctuated..Punctuated$LT$syn..expr..GenericMethodArgument$C$syn..token..Comma$GT$$GT$17h92cbabe4862b2183E', symObjAddr: 0x9D0, symBinAddr: 0xD9E20, symSize: 0x150 }
  - { offsetInCU: 0x1B56D, offset: 0x433CCE, size: 0x8, addend: 0x0, symName: '__ZN4core3ptr34drop_in_place$LT$syn..lit..Lit$GT$17hbe1efe749a08dd9aE', symObjAddr: 0xB20, symBinAddr: 0xD9F70, symSize: 0x110 }
  - { offsetInCU: 0x1BA99, offset: 0x4341FA, size: 0x8, addend: 0x0, symName: '__ZN4core3ptr34drop_in_place$LT$syn..pat..Pat$GT$17h3201f642e43ac2a2E', symObjAddr: 0xC30, symBinAddr: 0xDA080, symSize: 0x1190 }
  - { offsetInCU: 0x1F9B1, offset: 0x438112, size: 0x8, addend: 0x0, symName: '__ZN4core3ptr34drop_in_place$LT$syn..ty..Type$GT$17hfb5d159a08190130E.llvm.15033232405655643010', symObjAddr: 0x1DC0, symBinAddr: 0xDB210, symSize: 0x580 }
  - { offsetInCU: 0x212F6, offset: 0x439A57, size: 0x8, addend: 0x0, symName: '__ZN4core3ptr36drop_in_place$LT$syn..expr..Expr$GT$17hf1921d1b09462bc3E.llvm.15033232405655643010', symObjAddr: 0x2340, symBinAddr: 0xDB790, symSize: 0x3290 }
  - { offsetInCU: 0x2BB87, offset: 0x4442E8, size: 0x8, addend: 0x0, symName: '__ZN4core3ptr36drop_in_place$LT$syn..mac..Macro$GT$17h205613d7ad575f72E', symObjAddr: 0x55D0, symBinAddr: 0xDEA20, symSize: 0x40 }
  - { offsetInCU: 0x2BCD8, offset: 0x444439, size: 0x8, addend: 0x0, symName: '__ZN4core3ptr36drop_in_place$LT$syn..path..Path$GT$17he6d0bec66d66b98aE', symObjAddr: 0x5610, symBinAddr: 0xDEA60, symSize: 0x230 }
  - { offsetInCU: 0x2C66E, offset: 0x444DCF, size: 0x8, addend: 0x0, symName: '__ZN4core3ptr37drop_in_place$LT$syn..stmt..Block$GT$17h3aa429e75a234230E', symObjAddr: 0x5840, symBinAddr: 0xDEC90, symSize: 0xD0 }
  - { offsetInCU: 0x2C945, offset: 0x4450A6, size: 0x8, addend: 0x0, symName: '__ZN4core3ptr38drop_in_place$LT$syn..expr..Member$GT$17ha113d37a67d27aafE', symObjAddr: 0x5910, symBinAddr: 0xDED60, symSize: 0x30 }
  - { offsetInCU: 0x2CA41, offset: 0x4451A2, size: 0x8, addend: 0x0, symName: '__ZN4core3ptr39drop_in_place$LT$proc_macro2..Ident$GT$17hdeec010483268a0dE.llvm.15033232405655643010', symObjAddr: 0x5940, symBinAddr: 0xDED90, symSize: 0x30 }
  - { offsetInCU: 0x2CB1E, offset: 0x44527F, size: 0x8, addend: 0x0, symName: '__ZN4core3ptr39drop_in_place$LT$syn..pat..PatTuple$GT$17h96faeea9832d4c4bE', symObjAddr: 0x5970, symBinAddr: 0xDEDC0, symSize: 0x100 }
  - { offsetInCU: 0x2CE27, offset: 0x445588, size: 0x8, addend: 0x0, symName: '__ZN4core3ptr40drop_in_place$LT$syn..ty..ReturnType$GT$17h6f97c9fdb958983eE', symObjAddr: 0x5A70, symBinAddr: 0xDEEC0, symSize: 0x50 }
  - { offsetInCU: 0x2D0CD, offset: 0x44582E, size: 0x8, addend: 0x0, symName: '__ZN4core3ptr43drop_in_place$LT$proc_macro2..TokenTree$GT$17h7270f34cee6d919dE', symObjAddr: 0x5AC0, symBinAddr: 0xDEF10, symSize: 0xB0 }
  - { offsetInCU: 0x2D428, offset: 0x445B89, size: 0x8, addend: 0x0, symName: '__ZN4core3ptr44drop_in_place$LT$syn..lifetime..Lifetime$GT$17h3858225df033648aE.llvm.15033232405655643010', symObjAddr: 0x5BB0, symBinAddr: 0xDEFC0, symSize: 0x30 }
  - { offsetInCU: 0x2D5A0, offset: 0x445D01, size: 0x8, addend: 0x0, symName: '__ZN4core3ptr44drop_in_place$LT$syn..parse..ParseBuffer$GT$17h19c266fcccc430cbE', symObjAddr: 0x5BE0, symBinAddr: 0xDEFF0, symSize: 0x70 }
  - { offsetInCU: 0x2D91C, offset: 0x44607D, size: 0x8, addend: 0x0, symName: '__ZN4core3ptr45drop_in_place$LT$proc_macro2..TokenStream$GT$17h2507cb30e765dc85E', symObjAddr: 0x5C50, symBinAddr: 0xDF060, symSize: 0x140 }
  - { offsetInCU: 0x2DD97, offset: 0x4464F8, size: 0x8, addend: 0x0, symName: '__ZN4core3ptr45drop_in_place$LT$syn..generics..TypeParam$GT$17h2de9c744cc1fcd2cE.llvm.15033232405655643010', symObjAddr: 0x5D90, symBinAddr: 0xDF1A0, symSize: 0x160 }
  - { offsetInCU: 0x2E1C4, offset: 0x446925, size: 0x8, addend: 0x0, symName: '__ZN4core3ptr45drop_in_place$LT$syn..path..PathArguments$GT$17h9dd953520dcdc907E', symObjAddr: 0x5EF0, symBinAddr: 0xDF300, symSize: 0x170 }
  - { offsetInCU: 0x2E690, offset: 0x446DF1, size: 0x8, addend: 0x0, symName: '__ZN4core3ptr46drop_in_place$LT$syn..generics..ConstParam$GT$17hcae189adf84ad8c9E.llvm.15033232405655643010', symObjAddr: 0x6060, symBinAddr: 0xDF470, symSize: 0x170 }
  - { offsetInCU: 0x2EA9E, offset: 0x4471FF, size: 0x8, addend: 0x0, symName: '__ZN4core3ptr46drop_in_place$LT$syn..generics..TraitBound$GT$17hbb0e80d4578d441cE.llvm.15033232405655643010', symObjAddr: 0x61D0, symBinAddr: 0xDF5E0, symSize: 0x100 }
  - { offsetInCU: 0x2EDD1, offset: 0x447532, size: 0x8, addend: 0x0, symName: '__ZN4core3ptr47drop_in_place$LT$syn..generics..LifetimeDef$GT$17hd04bc9e6ed9dfb47E.llvm.15033232405655643010', symObjAddr: 0x62D0, symBinAddr: 0xDF6E0, symSize: 0x120 }
  - { offsetInCU: 0x2F22C, offset: 0x44798D, size: 0x8, addend: 0x0, symName: '__ZN4core3ptr47drop_in_place$LT$syn..path..GenericArgument$GT$17h8c0a0d8c6deaefb4E', symObjAddr: 0x6440, symBinAddr: 0xDF800, symSize: 0x110 }
  - { offsetInCU: 0x2F547, offset: 0x447CA8, size: 0x8, addend: 0x0, symName: '__ZN4core3ptr58drop_in_place$LT$alloc..vec..Vec$LT$syn..expr..Arm$GT$$GT$17hf3db0825f3d9c861E', symObjAddr: 0x65F0, symBinAddr: 0xDF910, symSize: 0xD0 }
  - { offsetInCU: 0x2F807, offset: 0x447F68, size: 0x8, addend: 0x0, symName: '__ZN4core3ptr59drop_in_place$LT$alloc..boxed..Box$LT$syn..pat..Pat$GT$$GT$17h7037ce9bbd3729c6E', symObjAddr: 0x66C0, symBinAddr: 0xDF9E0, symSize: 0x50 }
  - { offsetInCU: 0x2F960, offset: 0x4480C1, size: 0x8, addend: 0x0, symName: '__ZN4core3ptr59drop_in_place$LT$alloc..boxed..Box$LT$syn..ty..Type$GT$$GT$17h2eccd13329dbe4faE', symObjAddr: 0x6710, symBinAddr: 0xDFA30, symSize: 0x50 }
  - { offsetInCU: 0x2FAB9, offset: 0x44821A, size: 0x8, addend: 0x0, symName: '__ZN4core3ptr61drop_in_place$LT$alloc..boxed..Box$LT$syn..expr..Expr$GT$$GT$17h66094ddc89015516E', symObjAddr: 0x6760, symBinAddr: 0xDFA80, symSize: 0x50 }
  - { offsetInCU: 0x2FC8E, offset: 0x4483EF, size: 0x8, addend: 0x0, symName: '__ZN4core3ptr61drop_in_place$LT$syn..path..ParenthesizedGenericArguments$GT$17h21be9b1d7a6fab55E', symObjAddr: 0x67B0, symBinAddr: 0xDFAD0, symSize: 0x170 }
  - { offsetInCU: 0x30284, offset: 0x4489E5, size: 0x8, addend: 0x0, symName: '__ZN4core3ptr63drop_in_place$LT$alloc..boxed..Box$LT$syn..lit..LitRepr$GT$$GT$17h9c509b794406150eE', symObjAddr: 0x6940, symBinAddr: 0xDFC40, symSize: 0x60 }
  - { offsetInCU: 0x3058B, offset: 0x448CEC, size: 0x8, addend: 0x0, symName: '__ZN4core3ptr64drop_in_place$LT$alloc..boxed..Box$LT$syn..pat..FieldPat$GT$$GT$17hb167b355d0d4733fE', symObjAddr: 0x69A0, symBinAddr: 0xDFCA0, symSize: 0x180 }
  - { offsetInCU: 0x30CA8, offset: 0x449409, size: 0x8, addend: 0x0, symName: '__ZN4core3ptr64drop_in_place$LT$alloc..boxed..Box$LT$syn..ty..BareFnArg$GT$$GT$17h6488be9448346678E', symObjAddr: 0x6B20, symBinAddr: 0xDFE20, symSize: 0x160 }
  - { offsetInCU: 0x3123E, offset: 0x44999F, size: 0x8, addend: 0x0, symName: '__ZN4core3ptr64drop_in_place$LT$alloc..vec..Vec$LT$syn..attr..Attribute$GT$$GT$17h386324d8ea9bc309E.llvm.15033232405655643010', symObjAddr: 0x6C80, symBinAddr: 0xDFF80, symSize: 0xF0 }
  - { offsetInCU: 0x31534, offset: 0x449C95, size: 0x8, addend: 0x0, symName: '__ZN4core3ptr65drop_in_place$LT$alloc..vec..Vec$LT$proc_macro..TokenTree$GT$$GT$17hc3670dd5608d5259E', symObjAddr: 0x6D90, symBinAddr: 0xE0070, symSize: 0x110 }
  - { offsetInCU: 0x3192C, offset: 0x44A08D, size: 0x8, addend: 0x0, symName: '__ZN4core3ptr65drop_in_place$LT$core..option..Option$LT$syn..expr..Label$GT$$GT$17ha723640fd01bec5dE', symObjAddr: 0x6EA0, symBinAddr: 0xE0180, symSize: 0x30 }
  - { offsetInCU: 0x31A66, offset: 0x44A1C7, size: 0x8, addend: 0x0, symName: '__ZN4core3ptr66drop_in_place$LT$core..option..Option$LT$syn..ty..Variadic$GT$$GT$17hc32134bb3933b0dfE', symObjAddr: 0x6ED0, symBinAddr: 0xE01B0, symSize: 0xF0 }
  - { offsetInCU: 0x31D90, offset: 0x44A4F1, size: 0x8, addend: 0x0, symName: '__ZN4core3ptr67drop_in_place$LT$alloc..boxed..Box$LT$syn..expr..FieldValue$GT$$GT$17h8df780aa600ea8c2E', symObjAddr: 0x6FC0, symBinAddr: 0xE02A0, symSize: 0x160 }
  - { offsetInCU: 0x32306, offset: 0x44AA67, size: 0x8, addend: 0x0, symName: '__ZN4core3ptr68drop_in_place$LT$alloc..boxed..Box$LT$syn..path..PathSegment$GT$$GT$17h1957b54eed39c0bbE', symObjAddr: 0x7120, symBinAddr: 0xE0400, symSize: 0x190 }
  - { offsetInCU: 0x32A2F, offset: 0x44B190, size: 0x8, addend: 0x0, symName: '__ZN4core3ptr72drop_in_place$LT$alloc..boxed..Box$LT$syn..path..GenericArgument$GT$$GT$17ha8f8136d0c2b505bE', symObjAddr: 0x72B0, symBinAddr: 0xE0590, symSize: 0x180 }
  - { offsetInCU: 0x330CF, offset: 0x44B830, size: 0x8, addend: 0x0, symName: '__ZN4core3ptr72drop_in_place$LT$core..option..Option$LT$syn..lifetime..Lifetime$GT$$GT$17h31b55b93749c174dE', symObjAddr: 0x7430, symBinAddr: 0xE0710, symSize: 0x30 }
  - { offsetInCU: 0x331EA, offset: 0x44B94B, size: 0x8, addend: 0x0, symName: '__ZN4core3ptr75drop_in_place$LT$alloc..boxed..Box$LT$syn..generics..TypeParamBound$GT$$GT$17h8f156ce07ea0b8b2E', symObjAddr: 0x7460, symBinAddr: 0xE0740, symSize: 0x150 }
  - { offsetInCU: 0x33798, offset: 0x44BEF9, size: 0x8, addend: 0x0, symName: '__ZN4core3ptr78drop_in_place$LT$alloc..boxed..Box$LT$syn..expr..GenericMethodArgument$GT$$GT$17h3384c00b5bd54c2aE', symObjAddr: 0x76A0, symBinAddr: 0xE0890, symSize: 0x60 }
  - { offsetInCU: 0x3396B, offset: 0x44C0CC, size: 0x8, addend: 0x0, symName: '__ZN4core3ptr86drop_in_place$LT$syn..punctuated..Punctuated$LT$syn..pat..Pat$C$syn..token..Or$GT$$GT$17h1078c5d178d382b7E', symObjAddr: 0x7720, symBinAddr: 0xE08F0, symSize: 0x120 }
  - { offsetInCU: 0x33DE6, offset: 0x44C547, size: 0x8, addend: 0x0, symName: '__ZN4core3ptr87drop_in_place$LT$core..option..Option$LT$alloc..boxed..Box$LT$syn..pat..Pat$GT$$GT$$GT$17ha7f5fe0e6f73e820E', symObjAddr: 0x7840, symBinAddr: 0xE0A10, symSize: 0x50 }
  - { offsetInCU: 0x33F56, offset: 0x44C6B7, size: 0x8, addend: 0x0, symName: '__ZN4core3ptr87drop_in_place$LT$core..option..Option$LT$alloc..boxed..Box$LT$syn..ty..Type$GT$$GT$$GT$17hc8292da82d129de3E', symObjAddr: 0x7890, symBinAddr: 0xE0A60, symSize: 0x50 }
  - { offsetInCU: 0x340C6, offset: 0x44C827, size: 0x8, addend: 0x0, symName: '__ZN4core3ptr89drop_in_place$LT$core..option..Option$LT$alloc..boxed..Box$LT$syn..expr..Expr$GT$$GT$$GT$17hdc211ccd33f196f2E', symObjAddr: 0x78E0, symBinAddr: 0xE0AB0, symSize: 0x50 }
  - { offsetInCU: 0x34274, offset: 0x44C9D5, size: 0x8, addend: 0x0, symName: '__ZN4core3ptr89drop_in_place$LT$syn..punctuated..Punctuated$LT$syn..pat..Pat$C$syn..token..Comma$GT$$GT$17hf8371102b0500adcE', symObjAddr: 0x7930, symBinAddr: 0xE0B00, symSize: 0x120 }
  - { offsetInCU: 0x34706, offset: 0x44CE67, size: 0x8, addend: 0x0, symName: '__ZN4core3ptr89drop_in_place$LT$syn..punctuated..Punctuated$LT$syn..ty..Type$C$syn..token..Comma$GT$$GT$17h1c6e43341fabea97E', symObjAddr: 0x7A50, symBinAddr: 0xE0C20, symSize: 0x120 }
  - { offsetInCU: 0x34BBF, offset: 0x44D320, size: 0x8, addend: 0x0, symName: '__ZN4core3ptr91drop_in_place$LT$syn..punctuated..Punctuated$LT$syn..expr..Expr$C$syn..token..Comma$GT$$GT$17hd2dfeb0c522d9a18E', symObjAddr: 0x7B70, symBinAddr: 0xE0D40, symSize: 0x120 }
  - { offsetInCU: 0x3504D, offset: 0x44D7AE, size: 0x8, addend: 0x0, symName: '__ZN4core3ptr94drop_in_place$LT$syn..punctuated..Punctuated$LT$syn..pat..FieldPat$C$syn..token..Comma$GT$$GT$17h612cbc9066d5afb1E', symObjAddr: 0x7C90, symBinAddr: 0xE0E60, symSize: 0xF0 }
  - { offsetInCU: 0x3534C, offset: 0x44DAAD, size: 0x8, addend: 0x0, symName: '__ZN4core3ptr94drop_in_place$LT$syn..punctuated..Punctuated$LT$syn..ty..BareFnArg$C$syn..token..Comma$GT$$GT$17ha9a668ce9972795bE', symObjAddr: 0x7D80, symBinAddr: 0xE0F50, symSize: 0xF0 }
  - { offsetInCU: 0x35649, offset: 0x44DDAA, size: 0x8, addend: 0x0, symName: '__ZN4core3ptr96drop_in_place$LT$core..option..Option$LT$alloc..boxed..Box$LT$syn..path..PathSegment$GT$$GT$$GT$17h2e81cbe3c70bb71cE', symObjAddr: 0x7E70, symBinAddr: 0xE1040, symSize: 0x180 }
  - { offsetInCU: 0x35D06, offset: 0x44E467, size: 0x8, addend: 0x0, symName: '__ZN4core3ptr97drop_in_place$LT$syn..punctuated..Punctuated$LT$syn..expr..FieldValue$C$syn..token..Comma$GT$$GT$17h11a5fffb46adfb11E', symObjAddr: 0x7FF0, symBinAddr: 0xE11C0, symSize: 0xF0 }
  - { offsetInCU: 0x3607F, offset: 0x44E7E0, size: 0x8, addend: 0x0, symName: '__ZN4core3ptr97drop_in_place$LT$syn..punctuated..Punctuated$LT$syn..lifetime..Lifetime$C$syn..token..Add$GT$$GT$17h5c54dea2c838d109E.llvm.15033232405655643010', symObjAddr: 0x80E0, symBinAddr: 0xE12B0, symSize: 0xD0 }
  - { offsetInCU: 0x364F3, offset: 0x44EC54, size: 0x8, addend: 0x0, symName: '__ZN4core3ptr99drop_in_place$LT$syn..punctuated..Punctuated$LT$syn..path..PathSegment$C$syn..token..Colon2$GT$$GT$17hb961e4d7989a33ceE', symObjAddr: 0x81B0, symBinAddr: 0xE1380, symSize: 0x140 }
  - { offsetInCU: 0x40104, offset: 0x458865, size: 0x8, addend: 0x0, symName: '__ZN52_$LT$$RF$T$u20$as$u20$quote..to_tokens..ToTokens$GT$9to_tokens17h763a6e2187bc8438E', symObjAddr: 0x8300, symBinAddr: 0xE14C0, symSize: 0x230 }
  - { offsetInCU: 0x41D5D, offset: 0x45A4BE, size: 0x8, addend: 0x0, symName: '__ZN3syn8generics7parsing47_$LT$impl$u20$syn..generics..TypeParamBound$GT$14parse_multiple17h414c253044b9c9bcE', symObjAddr: 0xC6E0, symBinAddr: 0xE42E0, symSize: 0x480 }
  - { offsetInCU: 0x1E, offset: 0x46483C, size: 0x8, addend: 0x0, symName: '__ZN4core3ptr39drop_in_place$LT$proc_macro2..Group$GT$17ha95b199d42755248E.llvm.14211237159924200989', symObjAddr: 0x0, symBinAddr: 0xE8D60, symSize: 0x60 }
  - { offsetInCU: 0xEDD, offset: 0x4656FB, size: 0x8, addend: 0x0, symName: '__ZN4core3ptr39drop_in_place$LT$proc_macro2..Group$GT$17ha95b199d42755248E.llvm.14211237159924200989', symObjAddr: 0x0, symBinAddr: 0xE8D60, symSize: 0x60 }
  - { offsetInCU: 0x10D7, offset: 0x4658F5, size: 0x8, addend: 0x0, symName: '__ZN4core3ptr45drop_in_place$LT$proc_macro2..TokenStream$GT$17h2507cb30e765dc85E.llvm.14211237159924200989', symObjAddr: 0x60, symBinAddr: 0xE8DC0, symSize: 0x140 }
  - { offsetInCU: 0x1533, offset: 0x465D51, size: 0x8, addend: 0x0, symName: '__ZN4core3ptr65drop_in_place$LT$alloc..vec..Vec$LT$proc_macro..TokenTree$GT$$GT$17hc3670dd5608d5259E.llvm.14211237159924200989', symObjAddr: 0x1A0, symBinAddr: 0xE8F00, symSize: 0x110 }
  - { offsetInCU: 0x69A8, offset: 0x46B1C6, size: 0x8, addend: 0x0, symName: __ZN3syn5token8printing5punct17h3863ab1e289f621aE, symObjAddr: 0x2B0, symBinAddr: 0xE9010, symSize: 0x260 }
  - { offsetInCU: 0x70C7, offset: 0x46B8E5, size: 0x8, addend: 0x0, symName: __ZN3syn5token8printing5delim17h019e4cc80eeedf30E, symObjAddr: 0x590, symBinAddr: 0xE9270, symSize: 0x2A0 }
  - { offsetInCU: 0x7A14, offset: 0x46C232, size: 0x8, addend: 0x0, symName: __ZN3syn5token8printing5delim17h023deeaed71bf710E, symObjAddr: 0x830, symBinAddr: 0xE9510, symSize: 0x220 }
  - { offsetInCU: 0x822B, offset: 0x46CA49, size: 0x8, addend: 0x0, symName: __ZN3syn5token8printing5delim17h02d9b44466875e2dE, symObjAddr: 0xA50, symBinAddr: 0xE9730, symSize: 0x0 }
  - { offsetInCU: 0x8BCD, offset: 0x46D3EB, size: 0x8, addend: 0x0, symName: __ZN3syn5token8printing5delim17h0f7beeba14842f12E, symObjAddr: 0xCE0, symBinAddr: 0xE99C0, symSize: 0x220 }
  - { offsetInCU: 0x93C0, offset: 0x46DBDE, size: 0x8, addend: 0x0, symName: __ZN3syn5token8printing5delim17h1415f7450635a452E, symObjAddr: 0xF00, symBinAddr: 0xE9BE0, symSize: 0x2B0 }
  - { offsetInCU: 0x9974, offset: 0x46E192, size: 0x8, addend: 0x0, symName: __ZN3syn5token8printing5delim17h142f2f3e7a9b62eaE, symObjAddr: 0x11B0, symBinAddr: 0xE9E90, symSize: 0x3B0 }
  - { offsetInCU: 0xA709, offset: 0x46EF27, size: 0x8, addend: 0x0, symName: __ZN3syn5token8printing5delim17h17575311f406a584E, symObjAddr: 0x1560, symBinAddr: 0xEA240, symSize: 0x0 }
  - { offsetInCU: 0xAF16, offset: 0x46F734, size: 0x8, addend: 0x0, symName: __ZN3syn5token8printing5delim17h29531b57c5122a96E, symObjAddr: 0x1780, symBinAddr: 0xEA460, symSize: 0x1E0 }
  - { offsetInCU: 0xB454, offset: 0x46FC72, size: 0x8, addend: 0x0, symName: __ZN3syn5token8printing5delim17h2ef8d94ef3494686E, symObjAddr: 0x1960, symBinAddr: 0xEA640, symSize: 0x290 }
  - { offsetInCU: 0xBE11, offset: 0x47062F, size: 0x8, addend: 0x0, symName: __ZN3syn5token8printing5delim17h38a487055f1d8275E, symObjAddr: 0x1BF0, symBinAddr: 0xEA8D0, symSize: 0x220 }
  - { offsetInCU: 0xC5F6, offset: 0x470E14, size: 0x8, addend: 0x0, symName: __ZN3syn5token8printing5delim17h41a5957732e23308E, symObjAddr: 0x1E10, symBinAddr: 0xEAAF0, symSize: 0x1D0 }
  - { offsetInCU: 0xCB35, offset: 0x471353, size: 0x8, addend: 0x0, symName: __ZN3syn5token8printing5delim17h4c4a22211c6808c1E, symObjAddr: 0x2230, symBinAddr: 0xEACC0, symSize: 0x2B0 }
  - { offsetInCU: 0xD0EC, offset: 0x47190A, size: 0x8, addend: 0x0, symName: __ZN3syn5token8printing5delim17h554a28bddf415661E, symObjAddr: 0x24E0, symBinAddr: 0xEAF70, symSize: 0x220 }
  - { offsetInCU: 0xD8F5, offset: 0x472113, size: 0x8, addend: 0x0, symName: __ZN3syn5token8printing5delim17h5ba0d0e92cd9def8E, symObjAddr: 0x2700, symBinAddr: 0xEB190, symSize: 0x2B0 }
  - { offsetInCU: 0xDEAC, offset: 0x4726CA, size: 0x8, addend: 0x0, symName: __ZN3syn5token8printing5delim17h6182b83866d9b87fE, symObjAddr: 0x29B0, symBinAddr: 0xEB440, symSize: 0x2B0 }
  - { offsetInCU: 0xE460, offset: 0x472C7E, size: 0x8, addend: 0x0, symName: __ZN3syn5token8printing5delim17h6526a3890d5c3217E, symObjAddr: 0x2C60, symBinAddr: 0xEB6F0, symSize: 0x0 }
  - { offsetInCU: 0xE909, offset: 0x473127, size: 0x8, addend: 0x0, symName: __ZN3syn5token8printing5delim17h79fcc5f00065522aE, symObjAddr: 0x3030, symBinAddr: 0xEB8A0, symSize: 0x0 }
  - { offsetInCU: 0xEDB2, offset: 0x4735D0, size: 0x8, addend: 0x0, symName: __ZN3syn5token8printing5delim17h9bad1fca4733ca63E, symObjAddr: 0x31E0, symBinAddr: 0xEBA50, symSize: 0x310 }
  - { offsetInCU: 0xF749, offset: 0x473F67, size: 0x8, addend: 0x0, symName: __ZN3syn5token8printing5delim17h9c26cfb3a4335be2E, symObjAddr: 0x34F0, symBinAddr: 0xEBD60, symSize: 0x1B0 }
  - { offsetInCU: 0xFC27, offset: 0x474445, size: 0x8, addend: 0x0, symName: __ZN3syn5token8printing5delim17h9c4685bad8e071f9E, symObjAddr: 0x36A0, symBinAddr: 0xEBF10, symSize: 0x0 }
  - { offsetInCU: 0x10105, offset: 0x474923, size: 0x8, addend: 0x0, symName: __ZN3syn5token8printing5delim17ha14b854924d5b49aE, symObjAddr: 0x3850, symBinAddr: 0xEC0C0, symSize: 0x2C0 }
  - { offsetInCU: 0x106B0, offset: 0x474ECE, size: 0x8, addend: 0x0, symName: __ZN3syn5token8printing5delim17ha638675b96107a06E, symObjAddr: 0x3B10, symBinAddr: 0xEC380, symSize: 0x280 }
  - { offsetInCU: 0x10F9F, offset: 0x4757BD, size: 0x8, addend: 0x0, symName: __ZN3syn5token8printing5delim17haae905c69d3b60bbE, symObjAddr: 0x3D90, symBinAddr: 0xEC600, symSize: 0x1E0 }
  - { offsetInCU: 0x11584, offset: 0x475DA2, size: 0x8, addend: 0x0, symName: __ZN3syn5token8printing5delim17hb06a3e7d045ef858E, symObjAddr: 0x3F70, symBinAddr: 0xEC7E0, symSize: 0x220 }
  - { offsetInCU: 0x11D9F, offset: 0x4765BD, size: 0x8, addend: 0x0, symName: __ZN3syn5token8printing5delim17hb93d963452f86111E, symObjAddr: 0x4190, symBinAddr: 0xECA00, symSize: 0x220 }
  - { offsetInCU: 0x1259F, offset: 0x476DBD, size: 0x8, addend: 0x0, symName: __ZN3syn5token8printing5delim17hba5a61f4b62d8fa5E, symObjAddr: 0x43B0, symBinAddr: 0xECC20, symSize: 0x0 }
  - { offsetInCU: 0x12A48, offset: 0x477266, size: 0x8, addend: 0x0, symName: __ZN3syn5token8printing5delim17hbd8f8399d02f362eE, symObjAddr: 0x4560, symBinAddr: 0xECDD0, symSize: 0x2B0 }
  - { offsetInCU: 0x12FEA, offset: 0x477808, size: 0x8, addend: 0x0, symName: __ZN3syn5token8printing5delim17hc23d09e6e4d63ad7E, symObjAddr: 0x4810, symBinAddr: 0xED080, symSize: 0x400 }
  - { offsetInCU: 0x13F9E, offset: 0x4787BC, size: 0x8, addend: 0x0, symName: __ZN3syn5token8printing5delim17hc2bd52a28a8d51abE, symObjAddr: 0x4C10, symBinAddr: 0xED480, symSize: 0x2B0 }
  - { offsetInCU: 0x14542, offset: 0x478D60, size: 0x8, addend: 0x0, symName: __ZN3syn5token8printing5delim17hd014cb93879100d4E, symObjAddr: 0x4EC0, symBinAddr: 0xED730, symSize: 0x1B0 }
  - { offsetInCU: 0x14A22, offset: 0x479240, size: 0x8, addend: 0x0, symName: __ZN3syn5token8printing5delim17hd09f06ee19add108E, symObjAddr: 0x5070, symBinAddr: 0xED8E0, symSize: 0x220 }
  - { offsetInCU: 0x15207, offset: 0x479A25, size: 0x8, addend: 0x0, symName: __ZN3syn5token8printing5delim17hde66530421cb3a84E, symObjAddr: 0x5290, symBinAddr: 0xEDB00, symSize: 0x220 }
  - { offsetInCU: 0x15A0C, offset: 0x47A22A, size: 0x8, addend: 0x0, symName: __ZN3syn5token8printing5delim17he21ecbe2536ad586E, symObjAddr: 0x54B0, symBinAddr: 0xEDD20, symSize: 0x1E0 }
  - { offsetInCU: 0x15F14, offset: 0x47A732, size: 0x8, addend: 0x0, symName: __ZN3syn5token8printing5delim17he85d0be4d6469f76E, symObjAddr: 0x5690, symBinAddr: 0xEDF00, symSize: 0x220 }
  - { offsetInCU: 0x16707, offset: 0x47AF25, size: 0x8, addend: 0x0, symName: __ZN3syn5token8printing5delim17he920daaed1c3e39aE, symObjAddr: 0x58B0, symBinAddr: 0xEE120, symSize: 0x0 }
  - { offsetInCU: 0x16BE7, offset: 0x47B405, size: 0x8, addend: 0x0, symName: __ZN3syn5token8printing5delim17hefb765d07a8d3e16E, symObjAddr: 0x5A60, symBinAddr: 0xEE2D0, symSize: 0x3A0 }
  - { offsetInCU: 0x17A9A, offset: 0x47C2B8, size: 0x8, addend: 0x0, symName: __ZN3syn5token8printing5delim17hf8761a6bae6544d4E, symObjAddr: 0x5E00, symBinAddr: 0xEE670, symSize: 0x260 }
  - { offsetInCU: 0x1E, offset: 0x48E8AE, size: 0x8, addend: 0x0, symName: '__ZN4core3ptr100drop_in_place$LT$core..option..Option$LT$alloc..boxed..Box$LT$syn..generics..LifetimeDef$GT$$GT$$GT$17h75a6086997697dd7E', symObjAddr: 0x0, symBinAddr: 0xEE8D0, symSize: 0x50 }
  - { offsetInCU: 0xB1, offset: 0x48E941, size: 0x8, addend: 0x0, symName: '__ZN58_$LT$alloc..string..String$u20$as$u20$core..fmt..Write$GT$10write_char17h04bc467bd68a934bE', symObjAddr: 0x8F90, symBinAddr: 0xF7860, symSize: 0x140 }
  - { offsetInCU: 0x4B6, offset: 0x48ED46, size: 0x8, addend: 0x0, symName: '__ZN58_$LT$alloc..string..String$u20$as$u20$core..fmt..Write$GT$9write_str17h46a93205c3443fbaE', symObjAddr: 0x90D0, symBinAddr: 0xF79A0, symSize: 0x60 }
  - { offsetInCU: 0x15CF, offset: 0x48FE5F, size: 0x8, addend: 0x0, symName: __ZN5alloc5alloc15exchange_malloc17h9a87608d0224859dE, symObjAddr: 0x91A0, symBinAddr: 0xF7A70, symSize: 0x40 }
  - { offsetInCU: 0x41A7, offset: 0x492A37, size: 0x8, addend: 0x0, symName: '__ZN4core3ptr100drop_in_place$LT$core..option..Option$LT$alloc..boxed..Box$LT$syn..generics..LifetimeDef$GT$$GT$$GT$17h75a6086997697dd7E', symObjAddr: 0x0, symBinAddr: 0xEE8D0, symSize: 0x50 }
  - { offsetInCU: 0x4329, offset: 0x492BB9, size: 0x8, addend: 0x0, symName: '__ZN4core3ptr100drop_in_place$LT$core..option..Option$LT$alloc..boxed..Box$LT$syn..path..GenericArgument$GT$$GT$$GT$17h3d29ec00a8f1918dE', symObjAddr: 0x50, symBinAddr: 0xEE920, symSize: 0x50 }
  - { offsetInCU: 0x460D, offset: 0x492E9D, size: 0x8, addend: 0x0, symName: '__ZN4core3ptr101drop_in_place$LT$core..option..Option$LT$alloc..boxed..Box$LT$syn..generics..GenericParam$GT$$GT$$GT$17h1fee4f1c7bd902c4E', symObjAddr: 0xA0, symBinAddr: 0xEE970, symSize: 0x310 }
  - { offsetInCU: 0x5048, offset: 0x4938D8, size: 0x8, addend: 0x0, symName: '__ZN4core3ptr103drop_in_place$LT$core..option..Option$LT$alloc..boxed..Box$LT$syn..generics..WherePredicate$GT$$GT$$GT$17headad361972eced7E', symObjAddr: 0x3B0, symBinAddr: 0xEEC80, symSize: 0x120 }
  - { offsetInCU: 0x5362, offset: 0x493BF2, size: 0x8, addend: 0x0, symName: '__ZN4core3ptr103drop_in_place$LT$syn..punctuated..Punctuated$LT$syn..generics..GenericParam$C$syn..token..Comma$GT$$GT$17hae00367f0c570156E', symObjAddr: 0x4D0, symBinAddr: 0xEEDA0, symSize: 0x70 }
  - { offsetInCU: 0x567D, offset: 0x493F0D, size: 0x8, addend: 0x0, symName: '__ZN4core3ptr103drop_in_place$LT$syn..punctuated..Punctuated$LT$syn..generics..TypeParamBound$C$syn..token..Add$GT$$GT$17he811d520c92af08aE', symObjAddr: 0x540, symBinAddr: 0xEEE10, symSize: 0xF0 }
  - { offsetInCU: 0x5C49, offset: 0x4944D9, size: 0x8, addend: 0x0, symName: '__ZN4core3ptr108drop_in_place$LT$syn..punctuated..Punctuated$LT$syn..expr..GenericMethodArgument$C$syn..token..Comma$GT$$GT$17h92cbabe4862b2183E', symObjAddr: 0x630, symBinAddr: 0xEEF00, symSize: 0x150 }
  - { offsetInCU: 0x6126, offset: 0x4949B6, size: 0x8, addend: 0x0, symName: '__ZN4core3ptr126drop_in_place$LT$core..option..Option$LT$$LP$syn..token..And$C$core..option..Option$LT$syn..lifetime..Lifetime$GT$$RP$$GT$$GT$17h5979d670cb45416cE', symObjAddr: 0x780, symBinAddr: 0xEF050, symSize: 0x30 }
  - { offsetInCU: 0x6339, offset: 0x494BC9, size: 0x8, addend: 0x0, symName: '__ZN4core3ptr34drop_in_place$LT$syn..lit..Lit$GT$17hbe1efe749a08dd9aE', symObjAddr: 0x7B0, symBinAddr: 0xEF080, symSize: 0x110 }
  - { offsetInCU: 0x67E9, offset: 0x495079, size: 0x8, addend: 0x0, symName: '__ZN4core3ptr34drop_in_place$LT$syn..pat..Pat$GT$17h3201f642e43ac2a2E', symObjAddr: 0x8C0, symBinAddr: 0xEF190, symSize: 0xFA0 }
  - { offsetInCU: 0x9D57, offset: 0x4985E7, size: 0x8, addend: 0x0, symName: '__ZN4core3ptr34drop_in_place$LT$syn..ty..Type$GT$17hfb5d159a08190130E', symObjAddr: 0x1860, symBinAddr: 0xF0130, symSize: 0x580 }
  - { offsetInCU: 0xB668, offset: 0x499EF8, size: 0x8, addend: 0x0, symName: '__ZN4core3ptr36drop_in_place$LT$syn..expr..Expr$GT$17hf1921d1b09462bc3E', symObjAddr: 0x1DE0, symBinAddr: 0xF06B0, symSize: 0x3290 }
  - { offsetInCU: 0x15EF9, offset: 0x4A4789, size: 0x8, addend: 0x0, symName: '__ZN4core3ptr36drop_in_place$LT$syn..mac..Macro$GT$17h205613d7ad575f72E', symObjAddr: 0x5070, symBinAddr: 0xF3940, symSize: 0x40 }
  - { offsetInCU: 0x1604A, offset: 0x4A48DA, size: 0x8, addend: 0x0, symName: '__ZN4core3ptr36drop_in_place$LT$syn..path..Path$GT$17he6d0bec66d66b98aE', symObjAddr: 0x50B0, symBinAddr: 0xF3980, symSize: 0x230 }
  - { offsetInCU: 0x16A1E, offset: 0x4A52AE, size: 0x8, addend: 0x0, symName: '__ZN4core3ptr37drop_in_place$LT$syn..item..FnArg$GT$17h52a13b3505938de2E', symObjAddr: 0x52E0, symBinAddr: 0xF3BB0, symSize: 0x160 }
  - { offsetInCU: 0x16EAA, offset: 0x4A573A, size: 0x8, addend: 0x0, symName: '__ZN4core3ptr37drop_in_place$LT$syn..stmt..Block$GT$17h3aa429e75a234230E', symObjAddr: 0x5440, symBinAddr: 0xF3D10, symSize: 0xD0 }
  - { offsetInCU: 0x17181, offset: 0x4A5A11, size: 0x8, addend: 0x0, symName: '__ZN4core3ptr38drop_in_place$LT$syn..expr..Member$GT$17ha113d37a67d27aafE', symObjAddr: 0x5510, symBinAddr: 0xF3DE0, symSize: 0x30 }
  - { offsetInCU: 0x1727D, offset: 0x4A5B0D, size: 0x8, addend: 0x0, symName: '__ZN4core3ptr38drop_in_place$LT$syn..pat..PatType$GT$17h833e3c7992399b01E', symObjAddr: 0x5540, symBinAddr: 0xF3E10, symSize: 0x160 }
  - { offsetInCU: 0x17841, offset: 0x4A60D1, size: 0x8, addend: 0x0, symName: '__ZN4core3ptr38drop_in_place$LT$syn..ty..Variadic$GT$17h354585068960ea23E', symObjAddr: 0x56A0, symBinAddr: 0xF3F70, symSize: 0xF0 }
  - { offsetInCU: 0x17B4E, offset: 0x4A63DE, size: 0x8, addend: 0x0, symName: '__ZN4core3ptr39drop_in_place$LT$proc_macro2..Ident$GT$17hdeec010483268a0dE', symObjAddr: 0x5790, symBinAddr: 0xF4060, symSize: 0x30 }
  - { offsetInCU: 0x17CA7, offset: 0x4A6537, size: 0x8, addend: 0x0, symName: '__ZN4core3ptr39drop_in_place$LT$syn..pat..PatTuple$GT$17h96faeea9832d4c4bE', symObjAddr: 0x57C0, symBinAddr: 0xF4090, symSize: 0x1F0 }
  - { offsetInCU: 0x1841C, offset: 0x4A6CAC, size: 0x8, addend: 0x0, symName: '__ZN4core3ptr39drop_in_place$LT$syn..ty..TypeGroup$GT$17h120a69ce327d3900E', symObjAddr: 0x59B0, symBinAddr: 0xF4280, symSize: 0x50 }
  - { offsetInCU: 0x18660, offset: 0x4A6EF0, size: 0x8, addend: 0x0, symName: '__ZN4core3ptr40drop_in_place$LT$syn..item..ImplItem$GT$17hb8d8f44c0f04c0e3E', symObjAddr: 0x5A00, symBinAddr: 0xF42D0, symSize: 0x6C0 }
  - { offsetInCU: 0x19B2B, offset: 0x4A83BB, size: 0x8, addend: 0x0, symName: '__ZN4core3ptr40drop_in_place$LT$syn..ty..ReturnType$GT$17h6f97c9fdb958983eE', symObjAddr: 0x60C0, symBinAddr: 0xF4990, symSize: 0x50 }
  - { offsetInCU: 0x19C9B, offset: 0x4A852B, size: 0x8, addend: 0x0, symName: '__ZN4core3ptr41drop_in_place$LT$syn..item..Signature$GT$17hd57cfba25994ce69E', symObjAddr: 0x6110, symBinAddr: 0xF49E0, symSize: 0x220 }
  - { offsetInCU: 0x1A65D, offset: 0x4A8EED, size: 0x8, addend: 0x0, symName: '__ZN4core3ptr41drop_in_place$LT$syn..item..TraitItem$GT$17h4b7d90364e3eddf8E', symObjAddr: 0x6330, symBinAddr: 0xF4C00, symSize: 0x630 }
  - { offsetInCU: 0x1B7EF, offset: 0x4AA07F, size: 0x8, addend: 0x0, symName: '__ZN4core3ptr42drop_in_place$LT$alloc..string..String$GT$17hef974c60cd9900dbE', symObjAddr: 0x6960, symBinAddr: 0xF5230, symSize: 0x20 }
  - { offsetInCU: 0x1B8F7, offset: 0x4AA187, size: 0x8, addend: 0x0, symName: '__ZN4core3ptr42drop_in_place$LT$syn..data..Visibility$GT$17h27e8b6ad307fcbc7E', symObjAddr: 0x6980, symBinAddr: 0xF5250, symSize: 0x60 }
  - { offsetInCU: 0x1BB9E, offset: 0x4AA42E, size: 0x8, addend: 0x0, symName: '__ZN4core3ptr43drop_in_place$LT$proc_macro2..TokenTree$GT$17h7270f34cee6d919dE', symObjAddr: 0x69E0, symBinAddr: 0xF52B0, symSize: 0xB0 }
  - { offsetInCU: 0x1BF18, offset: 0x4AA7A8, size: 0x8, addend: 0x0, symName: '__ZN4core3ptr44drop_in_place$LT$syn..generics..Generics$GT$17he0d6eb6045503c84E', symObjAddr: 0x6A90, symBinAddr: 0xF5360, symSize: 0xA0 }
  - { offsetInCU: 0x1C184, offset: 0x4AAA14, size: 0x8, addend: 0x0, symName: '__ZN4core3ptr44drop_in_place$LT$syn..lifetime..Lifetime$GT$17h3858225df033648aE', symObjAddr: 0x6B30, symBinAddr: 0xF5400, symSize: 0x30 }
  - { offsetInCU: 0x1C2FC, offset: 0x4AAB8C, size: 0x8, addend: 0x0, symName: '__ZN4core3ptr44drop_in_place$LT$syn..parse..ParseBuffer$GT$17h19c266fcccc430cbE', symObjAddr: 0x6B60, symBinAddr: 0xF5430, symSize: 0x70 }
  - { offsetInCU: 0x1C678, offset: 0x4AAF08, size: 0x8, addend: 0x0, symName: '__ZN4core3ptr45drop_in_place$LT$proc_macro2..TokenStream$GT$17h2507cb30e765dc85E', symObjAddr: 0x6BD0, symBinAddr: 0xF54A0, symSize: 0x140 }
  - { offsetInCU: 0x1CAD4, offset: 0x4AB364, size: 0x8, addend: 0x0, symName: '__ZN4core3ptr47drop_in_place$LT$syn..generics..LifetimeDef$GT$17hd04bc9e6ed9dfb47E', symObjAddr: 0x6D10, symBinAddr: 0xF55E0, symSize: 0x120 }
  - { offsetInCU: 0x1CF2F, offset: 0x4AB7BF, size: 0x8, addend: 0x0, symName: '__ZN4core3ptr47drop_in_place$LT$syn..path..GenericArgument$GT$17h8c0a0d8c6deaefb4E', symObjAddr: 0x6E30, symBinAddr: 0xF5700, symSize: 0x110 }
  - { offsetInCU: 0x1D24A, offset: 0x4ABADA, size: 0x8, addend: 0x0, symName: '__ZN4core3ptr58drop_in_place$LT$alloc..vec..Vec$LT$syn..expr..Arm$GT$$GT$17hf3db0825f3d9c861E', symObjAddr: 0x6F40, symBinAddr: 0xF5810, symSize: 0xD0 }
  - { offsetInCU: 0x1D50A, offset: 0x4ABD9A, size: 0x8, addend: 0x0, symName: '__ZN4core3ptr59drop_in_place$LT$alloc..boxed..Box$LT$syn..pat..Pat$GT$$GT$17h7037ce9bbd3729c6E', symObjAddr: 0x7010, symBinAddr: 0xF58E0, symSize: 0x50 }
  - { offsetInCU: 0x1D663, offset: 0x4ABEF3, size: 0x8, addend: 0x0, symName: '__ZN4core3ptr59drop_in_place$LT$alloc..boxed..Box$LT$syn..ty..Type$GT$$GT$17h2eccd13329dbe4faE', symObjAddr: 0x7060, symBinAddr: 0xF5930, symSize: 0x50 }
  - { offsetInCU: 0x1D7BC, offset: 0x4AC04C, size: 0x8, addend: 0x0, symName: '__ZN4core3ptr61drop_in_place$LT$alloc..boxed..Box$LT$syn..expr..Expr$GT$$GT$17h66094ddc89015516E', symObjAddr: 0x70B0, symBinAddr: 0xF5980, symSize: 0x50 }
  - { offsetInCU: 0x1D991, offset: 0x4AC221, size: 0x8, addend: 0x0, symName: '__ZN4core3ptr61drop_in_place$LT$syn..path..ParenthesizedGenericArguments$GT$17h21be9b1d7a6fab55E', symObjAddr: 0x7100, symBinAddr: 0xF59D0, symSize: 0x170 }
  - { offsetInCU: 0x1DF87, offset: 0x4AC817, size: 0x8, addend: 0x0, symName: '__ZN4core3ptr63drop_in_place$LT$alloc..boxed..Box$LT$syn..lit..LitRepr$GT$$GT$17h9c509b794406150eE', symObjAddr: 0x7270, symBinAddr: 0xF5B40, symSize: 0x60 }
  - { offsetInCU: 0x1E26F, offset: 0x4ACAFF, size: 0x8, addend: 0x0, symName: '__ZN4core3ptr63drop_in_place$LT$alloc..vec..Vec$LT$syn..item..ImplItem$GT$$GT$17ha4d5b54edb0d5cb7E', symObjAddr: 0x72D0, symBinAddr: 0xF5BA0, symSize: 0x80 }
  - { offsetInCU: 0x1E578, offset: 0x4ACE08, size: 0x8, addend: 0x0, symName: '__ZN4core3ptr64drop_in_place$LT$alloc..boxed..Box$LT$syn..pat..FieldPat$GT$$GT$17hb167b355d0d4733fE', symObjAddr: 0x7350, symBinAddr: 0xF5C20, symSize: 0x180 }
  - { offsetInCU: 0x1EC95, offset: 0x4AD525, size: 0x8, addend: 0x0, symName: '__ZN4core3ptr64drop_in_place$LT$alloc..boxed..Box$LT$syn..ty..BareFnArg$GT$$GT$17h6488be9448346678E', symObjAddr: 0x74D0, symBinAddr: 0xF5DA0, symSize: 0x160 }
  - { offsetInCU: 0x1F22B, offset: 0x4ADABB, size: 0x8, addend: 0x0, symName: '__ZN4core3ptr64drop_in_place$LT$alloc..vec..Vec$LT$syn..attr..Attribute$GT$$GT$17h386324d8ea9bc309E', symObjAddr: 0x7630, symBinAddr: 0xF5F00, symSize: 0xF0 }
  - { offsetInCU: 0x1F540, offset: 0x4ADDD0, size: 0x8, addend: 0x0, symName: '__ZN4core3ptr64drop_in_place$LT$alloc..vec..Vec$LT$syn..item..TraitItem$GT$$GT$17h0ef3c4b7ce592e9eE', symObjAddr: 0x7720, symBinAddr: 0xF5FF0, symSize: 0x80 }
  - { offsetInCU: 0x1F7F8, offset: 0x4AE088, size: 0x8, addend: 0x0, symName: '__ZN4core3ptr65drop_in_place$LT$alloc..vec..Vec$LT$proc_macro..TokenTree$GT$$GT$17hc3670dd5608d5259E', symObjAddr: 0x77A0, symBinAddr: 0xF6070, symSize: 0x110 }
  - { offsetInCU: 0x1FBF0, offset: 0x4AE480, size: 0x8, addend: 0x0, symName: '__ZN4core3ptr65drop_in_place$LT$core..option..Option$LT$syn..expr..Label$GT$$GT$17ha723640fd01bec5dE', symObjAddr: 0x78B0, symBinAddr: 0xF6180, symSize: 0x30 }
  - { offsetInCU: 0x1FD2A, offset: 0x4AE5BA, size: 0x8, addend: 0x0, symName: '__ZN4core3ptr65drop_in_place$LT$core..option..Option$LT$syn..path..QSelf$GT$$GT$17h213ca1c3399df9f2E', symObjAddr: 0x78E0, symBinAddr: 0xF61B0, symSize: 0x50 }
  - { offsetInCU: 0x1FEAB, offset: 0x4AE73B, size: 0x8, addend: 0x0, symName: '__ZN4core3ptr65drop_in_place$LT$core..option..Option$LT$syn..stmt..Block$GT$$GT$17hdff81fd7cb2986caE', symObjAddr: 0x7930, symBinAddr: 0xF6200, symSize: 0xD0 }
  - { offsetInCU: 0x20180, offset: 0x4AEA10, size: 0x8, addend: 0x0, symName: '__ZN4core3ptr66drop_in_place$LT$core..option..Option$LT$syn..ty..Variadic$GT$$GT$17hc32134bb3933b0dfE', symObjAddr: 0x7A00, symBinAddr: 0xF62D0, symSize: 0xF0 }
  - { offsetInCU: 0x204AA, offset: 0x4AED3A, size: 0x8, addend: 0x0, symName: '__ZN4core3ptr67drop_in_place$LT$alloc..boxed..Box$LT$syn..expr..FieldValue$GT$$GT$17h8df780aa600ea8c2E', symObjAddr: 0x7AF0, symBinAddr: 0xF63C0, symSize: 0x160 }
  - { offsetInCU: 0x20A3F, offset: 0x4AF2CF, size: 0x8, addend: 0x0, symName: '__ZN4core3ptr68drop_in_place$LT$alloc..boxed..Box$LT$syn..path..PathSegment$GT$$GT$17h1957b54eed39c0bbE', symObjAddr: 0x7C50, symBinAddr: 0xF6520, symSize: 0x190 }
  - { offsetInCU: 0x21149, offset: 0x4AF9D9, size: 0x8, addend: 0x0, symName: '__ZN4core3ptr72drop_in_place$LT$alloc..boxed..Box$LT$syn..path..GenericArgument$GT$$GT$17ha8f8136d0c2b505bE', symObjAddr: 0x7DE0, symBinAddr: 0xF66B0, symSize: 0x120 }
  - { offsetInCU: 0x215C1, offset: 0x4AFE51, size: 0x8, addend: 0x0, symName: '__ZN4core3ptr72drop_in_place$LT$core..option..Option$LT$syn..lifetime..Lifetime$GT$$GT$17h31b55b93749c174dE', symObjAddr: 0x7F00, symBinAddr: 0xF67D0, symSize: 0x30 }
  - { offsetInCU: 0x216DC, offset: 0x4AFF6C, size: 0x8, addend: 0x0, symName: '__ZN4core3ptr75drop_in_place$LT$alloc..boxed..Box$LT$syn..generics..TypeParamBound$GT$$GT$17h8f156ce07ea0b8b2E', symObjAddr: 0x7F30, symBinAddr: 0xF6800, symSize: 0x90 }
  - { offsetInCU: 0x21A1B, offset: 0x4B02AB, size: 0x8, addend: 0x0, symName: '__ZN4core3ptr75drop_in_place$LT$core..option..Option$LT$syn..generics..WhereClause$GT$$GT$17h9a6b9b305741da86E', symObjAddr: 0x7FC0, symBinAddr: 0xF6890, symSize: 0xF0 }
  - { offsetInCU: 0x21D3D, offset: 0x4B05CD, size: 0x8, addend: 0x0, symName: '__ZN4core3ptr78drop_in_place$LT$alloc..boxed..Box$LT$syn..expr..GenericMethodArgument$GT$$GT$17h3384c00b5bd54c2aE', symObjAddr: 0x80B0, symBinAddr: 0xF6980, symSize: 0x60 }
  - { offsetInCU: 0x21F4E, offset: 0x4B07DE, size: 0x8, addend: 0x0, symName: '__ZN4core3ptr78drop_in_place$LT$core..option..Option$LT$syn..generics..BoundLifetimes$GT$$GT$17h8175e66ad0c4a156E', symObjAddr: 0x8110, symBinAddr: 0xF69E0, symSize: 0x120 }
  - { offsetInCU: 0x223F4, offset: 0x4B0C84, size: 0x8, addend: 0x0, symName: '__ZN4core3ptr86drop_in_place$LT$syn..punctuated..Punctuated$LT$syn..pat..Pat$C$syn..token..Or$GT$$GT$17h1078c5d178d382b7E', symObjAddr: 0x8230, symBinAddr: 0xF6B00, symSize: 0x120 }
  - { offsetInCU: 0x22886, offset: 0x4B1116, size: 0x8, addend: 0x0, symName: '__ZN4core3ptr87drop_in_place$LT$core..option..Option$LT$alloc..boxed..Box$LT$syn..pat..Pat$GT$$GT$$GT$17ha7f5fe0e6f73e820E', symObjAddr: 0x8350, symBinAddr: 0xF6C20, symSize: 0x50 }
  - { offsetInCU: 0x229F6, offset: 0x4B1286, size: 0x8, addend: 0x0, symName: '__ZN4core3ptr87drop_in_place$LT$core..option..Option$LT$alloc..boxed..Box$LT$syn..ty..Type$GT$$GT$$GT$17hc8292da82d129de3E', symObjAddr: 0x83A0, symBinAddr: 0xF6C70, symSize: 0x50 }
  - { offsetInCU: 0x22B66, offset: 0x4B13F6, size: 0x8, addend: 0x0, symName: '__ZN4core3ptr89drop_in_place$LT$core..option..Option$LT$alloc..boxed..Box$LT$syn..expr..Expr$GT$$GT$$GT$17hdc211ccd33f196f2E', symObjAddr: 0x83F0, symBinAddr: 0xF6CC0, symSize: 0x50 }
  - { offsetInCU: 0x22CD6, offset: 0x4B1566, size: 0x8, addend: 0x0, symName: '__ZN4core3ptr89drop_in_place$LT$syn..punctuated..Punctuated$LT$syn..ty..Type$C$syn..token..Comma$GT$$GT$17h1c6e43341fabea97E', symObjAddr: 0x8440, symBinAddr: 0xF6D10, symSize: 0x120 }
  - { offsetInCU: 0x23170, offset: 0x4B1A00, size: 0x8, addend: 0x0, symName: '__ZN4core3ptr90drop_in_place$LT$core..option..Option$LT$alloc..boxed..Box$LT$syn..item..FnArg$GT$$GT$$GT$17ha72e545cf6ea6548E', symObjAddr: 0x8560, symBinAddr: 0xF6E30, symSize: 0x50 }
  - { offsetInCU: 0x23311, offset: 0x4B1BA1, size: 0x8, addend: 0x0, symName: '__ZN4core3ptr91drop_in_place$LT$syn..punctuated..Punctuated$LT$syn..expr..Expr$C$syn..token..Comma$GT$$GT$17hd2dfeb0c522d9a18E', symObjAddr: 0x85B0, symBinAddr: 0xF6E80, symSize: 0x120 }
  - { offsetInCU: 0x237FC, offset: 0x4B208C, size: 0x8, addend: 0x0, symName: '__ZN4core3ptr92drop_in_place$LT$syn..punctuated..Punctuated$LT$syn..item..FnArg$C$syn..token..Comma$GT$$GT$17h3049a14d789de61dE', symObjAddr: 0x86D0, symBinAddr: 0xF6FA0, symSize: 0x130 }
  - { offsetInCU: 0x23C62, offset: 0x4B24F2, size: 0x8, addend: 0x0, symName: '__ZN4core3ptr94drop_in_place$LT$syn..punctuated..Punctuated$LT$syn..pat..FieldPat$C$syn..token..Comma$GT$$GT$17h612cbc9066d5afb1E', symObjAddr: 0x8800, symBinAddr: 0xF70D0, symSize: 0xF0 }
  - { offsetInCU: 0x23F61, offset: 0x4B27F1, size: 0x8, addend: 0x0, symName: '__ZN4core3ptr94drop_in_place$LT$syn..punctuated..Punctuated$LT$syn..ty..BareFnArg$C$syn..token..Comma$GT$$GT$17ha9a668ce9972795bE', symObjAddr: 0x88F0, symBinAddr: 0xF71C0, symSize: 0xF0 }
  - { offsetInCU: 0x2425E, offset: 0x4B2AEE, size: 0x8, addend: 0x0, symName: '__ZN4core3ptr96drop_in_place$LT$core..option..Option$LT$alloc..boxed..Box$LT$syn..path..PathSegment$GT$$GT$$GT$17h2e81cbe3c70bb71cE', symObjAddr: 0x89E0, symBinAddr: 0xF72B0, symSize: 0x180 }
  - { offsetInCU: 0x2491B, offset: 0x4B31AB, size: 0x8, addend: 0x0, symName: '__ZN4core3ptr97drop_in_place$LT$syn..punctuated..Punctuated$LT$syn..expr..FieldValue$C$syn..token..Comma$GT$$GT$17h11a5fffb46adfb11E', symObjAddr: 0x8B60, symBinAddr: 0xF7430, symSize: 0xF0 }
  - { offsetInCU: 0x24C94, offset: 0x4B3524, size: 0x8, addend: 0x0, symName: '__ZN4core3ptr97drop_in_place$LT$syn..punctuated..Punctuated$LT$syn..lifetime..Lifetime$C$syn..token..Add$GT$$GT$17h5c54dea2c838d109E', symObjAddr: 0x8C50, symBinAddr: 0xF7520, symSize: 0xD0 }
  - { offsetInCU: 0x25108, offset: 0x4B3998, size: 0x8, addend: 0x0, symName: '__ZN4core3ptr99drop_in_place$LT$syn..punctuated..Punctuated$LT$syn..path..PathSegment$C$syn..token..Colon2$GT$$GT$17hb961e4d7989a33ceE', symObjAddr: 0x8D20, symBinAddr: 0xF75F0, symSize: 0x250 }
  - { offsetInCU: 0x26366, offset: 0x4B4BF6, size: 0x8, addend: 0x0, symName: '__ZN53_$LT$core..fmt..Error$u20$as$u20$core..fmt..Debug$GT$3fmt17h03dc662ab152f3aeE', symObjAddr: 0x8F70, symBinAddr: 0xF7840, symSize: 0x20 }
  - { offsetInCU: 0x2D1D9, offset: 0x4BBA69, size: 0x8, addend: 0x0, symName: __ZN3syn4item7parsing12pop_variadic17hefc9ebad1f916af5E, symObjAddr: 0x9DC0, symBinAddr: 0xF8690, symSize: 0x440 }
  - { offsetInCU: 0x2E05B, offset: 0x4BC8EB, size: 0x8, addend: 0x0, symName: __ZN3syn4item7parsing18variadic_to_tokens17h4981663a913b676cE, symObjAddr: 0xA200, symBinAddr: 0xF8AD0, symSize: 0x1F0 }
  - { offsetInCU: 0x2E464, offset: 0x4BCCF4, size: 0x8, addend: 0x0, symName: __ZN3syn4item7parsing14peek_signature17h6f78099971b850e3E, symObjAddr: 0xA3F0, symBinAddr: 0xF8CC0, symSize: 0x3C0 }
  - { offsetInCU: 0x2F7B9, offset: 0x4BE049, size: 0x8, addend: 0x0, symName: __ZN3syn4item7parsing16parse_rest_of_fn17hb7cd50c8099731a3E, symObjAddr: 0xA7B0, symBinAddr: 0xF9080, symSize: 0x510 }
  - { offsetInCU: 0x30487, offset: 0x4BED17, size: 0x8, addend: 0x0, symName: __ZN3syn4item7parsing13parse_fn_args17h79232dee74d02222E, symObjAddr: 0xACC0, symBinAddr: 0xF9590, symSize: 0x9F0 }
  - { offsetInCU: 0x314FD, offset: 0x4BFD8D, size: 0x8, addend: 0x0, symName: __ZN3syn4item7parsing12fn_arg_typed17h50de50b9cbd2986aE, symObjAddr: 0xB6B0, symBinAddr: 0xF9F80, symSize: 0x9D0 }
  - { offsetInCU: 0x32E3E, offset: 0x4C16CE, size: 0x8, addend: 0x0, symName: __ZN3syn4item7parsing23parse_foreign_item_type17h0d1b34a49c3e53f1E, symObjAddr: 0xC080, symBinAddr: 0xFA950, symSize: 0x4B0 }
  - { offsetInCU: 0x33681, offset: 0x4C1F11, size: 0x8, addend: 0x0, symName: __ZN3syn4item7parsing15parse_item_type17h2a4edd2d7d3363beE, symObjAddr: 0xC530, symBinAddr: 0xFAE00, symSize: 0x5E0 }
  - { offsetInCU: 0x3407F, offset: 0x4C290F, size: 0x8, addend: 0x0, symName: __ZN3syn4item7parsing26parse_trait_or_trait_alias17h4e444327f476e99fE, symObjAddr: 0xCB10, symBinAddr: 0xFB3E0, symSize: 0x870 }
  - { offsetInCU: 0x35AE3, offset: 0x4C4373, size: 0x8, addend: 0x0, symName: __ZN3syn4item7parsing19parse_rest_of_trait17h9a6eb98dff16ebf5E, symObjAddr: 0xD380, symBinAddr: 0xFBC50, symSize: 0xBD0 }
  - { offsetInCU: 0x37571, offset: 0x4C5E01, size: 0x8, addend: 0x0, symName: __ZN3syn4item7parsing26parse_start_of_trait_alias17h7cea34b753daf1f6E, symObjAddr: 0xDF50, symBinAddr: 0xFC820, symSize: 0x4B0 }
  - { offsetInCU: 0x37FEC, offset: 0x4C687C, size: 0x8, addend: 0x0, symName: __ZN3syn4item7parsing25parse_rest_of_trait_alias17he4a9d17c688ffe1fE, symObjAddr: 0xE400, symBinAddr: 0xFCCD0, symSize: 0x670 }
  - { offsetInCU: 0x38C82, offset: 0x4C7512, size: 0x8, addend: 0x0, symName: __ZN3syn4item7parsing21parse_trait_item_type17h1cedbc1ccb5d043dE, symObjAddr: 0xEA70, symBinAddr: 0xFD340, symSize: 0x540 }
  - { offsetInCU: 0x3948E, offset: 0x4C7D1E, size: 0x8, addend: 0x0, symName: __ZN3syn4item7parsing10parse_impl17h07469f6aaa82ca90E, symObjAddr: 0xEFB0, symBinAddr: 0xFD880, symSize: 0x1830 }
  - { offsetInCU: 0x3B64A, offset: 0x4C9EDA, size: 0x8, addend: 0x0, symName: __ZN3syn4item7parsing20parse_impl_item_type17h92af03b3393e3946E, symObjAddr: 0x107E0, symBinAddr: 0xFF0B0, symSize: 0x4E0 }
  - { offsetInCU: 0x3BEE0, offset: 0x4CA770, size: 0x8, addend: 0x0, symName: '__ZN75_$LT$syn..item..parsing..macro_rules$u20$as$u20$syn..token..CustomToken$GT$4peek17h3d8b08d687f899bdE', symObjAddr: 0x10CD0, symBinAddr: 0xFF590, symSize: 0x1A0 }
  - { offsetInCU: 0x43AF2, offset: 0x4D2382, size: 0x8, addend: 0x0, symName: '__ZN5alloc3vec16Vec$LT$T$C$A$GT$4push17hb65366a36844e569E', symObjAddr: 0x9130, symBinAddr: 0xF7A00, symSize: 0x70 }
  - { offsetInCU: 0x44069, offset: 0x4D28F9, size: 0x8, addend: 0x0, symName: __ZN3syn4item7parsing16FlexibleItemType5parse17h6bd33458371dd534E, symObjAddr: 0x91E0, symBinAddr: 0xF7AB0, symSize: 0xBE0 }
  - { offsetInCU: 0x7FF, offset: 0x4DB9A2, size: 0x8, addend: 0x0, symName: '__ZN3syn2ty8printing76_$LT$impl$u20$quote..to_tokens..ToTokens$u20$for$u20$syn..ty..TypeBareFn$GT$9to_tokens17hf8e3645850a7f57dE', symObjAddr: 0xB0E0, symBinAddr: 0x108690, symSize: 0x220 }
  - { offsetInCU: 0xF7F, offset: 0x4DC122, size: 0x8, addend: 0x0, symName: '__ZN3syn2ty8printing74_$LT$impl$u20$quote..to_tokens..ToTokens$u20$for$u20$syn..ty..Variadic$GT$9to_tokens17h602db0fc51cb75f0E', symObjAddr: 0xB740, symBinAddr: 0x1088B0, symSize: 0xF0 }
  - { offsetInCU: 0x122A, offset: 0x4DC3CD, size: 0x8, addend: 0x0, symName: '__ZN3syn2ty7parsing64_$LT$impl$u20$syn..parse..Parse$u20$for$u20$syn..ty..TypePtr$GT$5parse17hef0fb55c13186374E', symObjAddr: 0x8A90, symBinAddr: 0x106E50, symSize: 0x430 }
  - { offsetInCU: 0x1E5E, offset: 0x4DD001, size: 0x8, addend: 0x0, symName: '__ZN3syn2ty7parsing70_$LT$impl$u20$syn..parse..Parse$u20$for$u20$syn..ty..TypeReference$GT$5parse17h3c90af1f397abba9E', symObjAddr: 0x8EC0, symBinAddr: 0x107280, symSize: 0x390 }
  - { offsetInCU: 0x2481, offset: 0x4DD624, size: 0x8, addend: 0x0, symName: '__ZN3syn2ty7parsing65_$LT$impl$u20$syn..parse..Parse$u20$for$u20$syn..ty..TypePath$GT$5parse17h6f2fa59546a9bb19E', symObjAddr: 0x9870, symBinAddr: 0x107610, symSize: 0x6E0 }
  - { offsetInCU: 0x33F8, offset: 0x4DE59B, size: 0x8, addend: 0x0, symName: '__ZN3syn2ty7parsing72_$LT$impl$u20$syn..parse..Parse$u20$for$u20$syn..ty..TypeTraitObject$GT$5parse17h8d2459023d47504fE', symObjAddr: 0xA140, symBinAddr: 0x107EA0, symSize: 0x170 }
  - { offsetInCU: 0x396C, offset: 0x4DEB0F, size: 0x8, addend: 0x0, symName: '__ZN3syn2ty7parsing66_$LT$impl$u20$syn..parse..Parse$u20$for$u20$syn..ty..TypeGroup$GT$5parse17hc50e3255a8ef2de6E', symObjAddr: 0xA8C0, symBinAddr: 0x108470, symSize: 0x220 }
  - { offsetInCU: 0x3EA3, offset: 0x4DF046, size: 0x8, addend: 0x0, symName: '__ZN60_$LT$syn..ty..Type$u20$as$u20$quote..to_tokens..ToTokens$GT$9to_tokens17h2c655419af4841c7E', symObjAddr: 0xB8D0, symBinAddr: 0x1089A0, symSize: 0x560 }
  - { offsetInCU: 0x6AF8, offset: 0x4E1C9B, size: 0x8, addend: 0x0, symName: '__ZN77_$LT$$RF$$u5b$syn..attr..Attribute$u5d$$u20$as$u20$syn..attr..FilterAttrs$GT$5outer8is_outer17ha84f9abf7d7fa408E.llvm.17741849970464361583', symObjAddr: 0x8350, symBinAddr: 0x106E40, symSize: 0x10 }
  - { offsetInCU: 0x9559, offset: 0x4E46FC, size: 0x8, addend: 0x0, symName: '__ZN3syn3gen5clone67_$LT$impl$u20$core..clone..Clone$u20$for$u20$syn..ty..BareFnArg$GT$5clone17h1c2692312dc62665E', symObjAddr: 0xBE60, symBinAddr: 0x108F00, symSize: 0x130 }
  - { offsetInCU: 0x99AB, offset: 0x4E4B4E, size: 0x8, addend: 0x0, symName: '__ZN3syn3gen5clone62_$LT$impl$u20$core..clone..Clone$u20$for$u20$syn..ty..Type$GT$5clone17he3f6a02c91d89fc4E', symObjAddr: 0xC040, symBinAddr: 0x109030, symSize: 0x870 }
  - { offsetInCU: 0xB289, offset: 0x4E642C, size: 0x8, addend: 0x0, symName: '__ZN3syn3gen5clone68_$LT$impl$u20$core..clone..Clone$u20$for$u20$syn..ty..TypeBareFn$GT$5clone17h7002a5899e824f54E', symObjAddr: 0xC9C0, symBinAddr: 0x1098A0, symSize: 0x3E0 }
  - { offsetInCU: 0xE328, offset: 0x4E94CB, size: 0x8, addend: 0x0, symName: '__ZN4core3ptr100drop_in_place$LT$core..option..Option$LT$alloc..boxed..Box$LT$syn..generics..LifetimeDef$GT$$GT$$GT$17h75a6086997697dd7E', symObjAddr: 0x190, symBinAddr: 0xFF730, symSize: 0x150 }
  - { offsetInCU: 0xE8A4, offset: 0x4E9A47, size: 0x8, addend: 0x0, symName: '__ZN4core3ptr100drop_in_place$LT$core..option..Option$LT$alloc..boxed..Box$LT$syn..path..GenericArgument$GT$$GT$$GT$17h3d29ec00a8f1918dE', symObjAddr: 0x2E0, symBinAddr: 0xFF880, symSize: 0x50 }
  - { offsetInCU: 0xEA71, offset: 0x4E9C14, size: 0x8, addend: 0x0, symName: '__ZN4core3ptr103drop_in_place$LT$core..option..Option$LT$alloc..boxed..Box$LT$syn..generics..TypeParamBound$GT$$GT$$GT$17h6cee73bc2b2ecea8E', symObjAddr: 0x330, symBinAddr: 0xFF8D0, symSize: 0x90 }
  - { offsetInCU: 0xEDE6, offset: 0x4E9F89, size: 0x8, addend: 0x0, symName: '__ZN4core3ptr103drop_in_place$LT$syn..punctuated..Punctuated$LT$syn..generics..TypeParamBound$C$syn..token..Add$GT$$GT$17he811d520c92af08aE', symObjAddr: 0x3C0, symBinAddr: 0xFF960, symSize: 0x1C0 }
  - { offsetInCU: 0xF637, offset: 0x4EA7DA, size: 0x8, addend: 0x0, symName: '__ZN4core3ptr108drop_in_place$LT$syn..punctuated..Punctuated$LT$syn..expr..GenericMethodArgument$C$syn..token..Comma$GT$$GT$17h92cbabe4862b2183E', symObjAddr: 0x580, symBinAddr: 0xFFB20, symSize: 0x150 }
  - { offsetInCU: 0xFB90, offset: 0x4EAD33, size: 0x8, addend: 0x0, symName: '__ZN4core3ptr34drop_in_place$LT$syn..lit..Lit$GT$17hbe1efe749a08dd9aE', symObjAddr: 0x6D0, symBinAddr: 0xFFC70, symSize: 0x110 }
  - { offsetInCU: 0x10002, offset: 0x4EB1A5, size: 0x8, addend: 0x0, symName: '__ZN4core3ptr34drop_in_place$LT$syn..pat..Pat$GT$17h3201f642e43ac2a2E', symObjAddr: 0x7E0, symBinAddr: 0xFFD80, symSize: 0x1190 }
  - { offsetInCU: 0x13D68, offset: 0x4EEF0B, size: 0x8, addend: 0x0, symName: '__ZN4core3ptr34drop_in_place$LT$syn..ty..Type$GT$17hfb5d159a08190130E.llvm.17741849970464361583', symObjAddr: 0x1970, symBinAddr: 0x100F10, symSize: 0x360 }
  - { offsetInCU: 0x14CDD, offset: 0x4EFE80, size: 0x8, addend: 0x0, symName: '__ZN4core3ptr36drop_in_place$LT$syn..expr..Expr$GT$17hf1921d1b09462bc3E', symObjAddr: 0x1CD0, symBinAddr: 0x101270, symSize: 0x3290 }
  - { offsetInCU: 0x1F56E, offset: 0x4FA711, size: 0x8, addend: 0x0, symName: '__ZN4core3ptr36drop_in_place$LT$syn..mac..Macro$GT$17h205613d7ad575f72E', symObjAddr: 0x4F60, symBinAddr: 0x104500, symSize: 0x40 }
  - { offsetInCU: 0x1F6DE, offset: 0x4FA881, size: 0x8, addend: 0x0, symName: '__ZN4core3ptr36drop_in_place$LT$syn..path..Path$GT$17he6d0bec66d66b98aE', symObjAddr: 0x4FA0, symBinAddr: 0x104540, symSize: 0x260 }
  - { offsetInCU: 0x20206, offset: 0x4FB3A9, size: 0x8, addend: 0x0, symName: '__ZN4core3ptr37drop_in_place$LT$syn..stmt..Block$GT$17h3aa429e75a234230E', symObjAddr: 0x5200, symBinAddr: 0x1047A0, symSize: 0xD0 }
  - { offsetInCU: 0x204DD, offset: 0x4FB680, size: 0x8, addend: 0x0, symName: '__ZN4core3ptr38drop_in_place$LT$syn..expr..Member$GT$17ha113d37a67d27aafE', symObjAddr: 0x5320, symBinAddr: 0x104870, symSize: 0x30 }
  - { offsetInCU: 0x20674, offset: 0x4FB817, size: 0x8, addend: 0x0, symName: '__ZN4core3ptr38drop_in_place$LT$syn..group..Group$GT$17h0fddc99b7dc4ab91E.llvm.17741849970464361583', symObjAddr: 0x5350, symBinAddr: 0x1048A0, symSize: 0x70 }
  - { offsetInCU: 0x2096C, offset: 0x4FBB0F, size: 0x8, addend: 0x0, symName: '__ZN4core3ptr39drop_in_place$LT$proc_macro2..Ident$GT$17hdeec010483268a0dE', symObjAddr: 0x5430, symBinAddr: 0x104910, symSize: 0x30 }
  - { offsetInCU: 0x20A49, offset: 0x4FBBEC, size: 0x8, addend: 0x0, symName: '__ZN4core3ptr39drop_in_place$LT$syn..pat..PatTuple$GT$17h96faeea9832d4c4bE', symObjAddr: 0x5460, symBinAddr: 0x104940, symSize: 0x100 }
  - { offsetInCU: 0x20D90, offset: 0x4FBF33, size: 0x8, addend: 0x0, symName: '__ZN4core3ptr39drop_in_place$LT$syn..ty..BareFnArg$GT$17hed52ce54f3b53a34E', symObjAddr: 0x5560, symBinAddr: 0x104A40, symSize: 0x140 }
  - { offsetInCU: 0x211C0, offset: 0x4FC363, size: 0x8, addend: 0x0, symName: '__ZN4core3ptr40drop_in_place$LT$syn..ty..ReturnType$GT$17h6f97c9fdb958983eE', symObjAddr: 0x57B0, symBinAddr: 0x104B80, symSize: 0x50 }
  - { offsetInCU: 0x214C3, offset: 0x4FC666, size: 0x8, addend: 0x0, symName: '__ZN4core3ptr40drop_in_place$LT$syn..ty..TypeBareFn$GT$17h1010a3edced8ab67E', symObjAddr: 0x5800, symBinAddr: 0x104BD0, symSize: 0x2F0 }
  - { offsetInCU: 0x2214A, offset: 0x4FD2ED, size: 0x8, addend: 0x0, symName: '__ZN4core3ptr44drop_in_place$LT$syn..lifetime..Lifetime$GT$17h3858225df033648aE', symObjAddr: 0x5B80, symBinAddr: 0x104EC0, symSize: 0x30 }
  - { offsetInCU: 0x2237C, offset: 0x4FD51F, size: 0x8, addend: 0x0, symName: '__ZN4core3ptr45drop_in_place$LT$proc_macro2..TokenStream$GT$17h2507cb30e765dc85E.llvm.17741849970464361583', symObjAddr: 0x5C20, symBinAddr: 0x104EF0, symSize: 0x140 }
  - { offsetInCU: 0x227D8, offset: 0x4FD97B, size: 0x8, addend: 0x0, symName: '__ZN4core3ptr45drop_in_place$LT$syn..path..PathArguments$GT$17h9dd953520dcdc907E', symObjAddr: 0x5D60, symBinAddr: 0x105030, symSize: 0x170 }
  - { offsetInCU: 0x22CC3, offset: 0x4FDE66, size: 0x8, addend: 0x0, symName: '__ZN4core3ptr47drop_in_place$LT$syn..path..GenericArgument$GT$17h8c0a0d8c6deaefb4E', symObjAddr: 0x5ED0, symBinAddr: 0x1051A0, symSize: 0x110 }
  - { offsetInCU: 0x22FDE, offset: 0x4FE181, size: 0x8, addend: 0x0, symName: '__ZN4core3ptr58drop_in_place$LT$alloc..vec..Vec$LT$syn..expr..Arm$GT$$GT$17hf3db0825f3d9c861E', symObjAddr: 0x5FE0, symBinAddr: 0x1052B0, symSize: 0xD0 }
  - { offsetInCU: 0x2329E, offset: 0x4FE441, size: 0x8, addend: 0x0, symName: '__ZN4core3ptr59drop_in_place$LT$alloc..boxed..Box$LT$syn..pat..Pat$GT$$GT$17h7037ce9bbd3729c6E', symObjAddr: 0x60B0, symBinAddr: 0x105380, symSize: 0x50 }
  - { offsetInCU: 0x233F7, offset: 0x4FE59A, size: 0x8, addend: 0x0, symName: '__ZN4core3ptr59drop_in_place$LT$alloc..boxed..Box$LT$syn..ty..Type$GT$$GT$17h2eccd13329dbe4faE', symObjAddr: 0x6100, symBinAddr: 0x1053D0, symSize: 0x50 }
  - { offsetInCU: 0x23550, offset: 0x4FE6F3, size: 0x8, addend: 0x0, symName: '__ZN4core3ptr61drop_in_place$LT$alloc..boxed..Box$LT$syn..expr..Expr$GT$$GT$17h66094ddc89015516E', symObjAddr: 0x6150, symBinAddr: 0x105420, symSize: 0x50 }
  - { offsetInCU: 0x236A9, offset: 0x4FE84C, size: 0x8, addend: 0x0, symName: '__ZN4core3ptr63drop_in_place$LT$alloc..boxed..Box$LT$syn..lit..LitRepr$GT$$GT$17h9c509b794406150eE', symObjAddr: 0x6210, symBinAddr: 0x105470, symSize: 0x60 }
  - { offsetInCU: 0x239B0, offset: 0x4FEB53, size: 0x8, addend: 0x0, symName: '__ZN4core3ptr64drop_in_place$LT$alloc..boxed..Box$LT$syn..pat..FieldPat$GT$$GT$17hb167b355d0d4733fE', symObjAddr: 0x6270, symBinAddr: 0x1054D0, symSize: 0x180 }
  - { offsetInCU: 0x2408F, offset: 0x4FF232, size: 0x8, addend: 0x0, symName: '__ZN4core3ptr64drop_in_place$LT$alloc..boxed..Box$LT$syn..ty..BareFnArg$GT$$GT$17h6488be9448346678E', symObjAddr: 0x63F0, symBinAddr: 0x105650, symSize: 0x160 }
  - { offsetInCU: 0x24612, offset: 0x4FF7B5, size: 0x8, addend: 0x0, symName: '__ZN4core3ptr64drop_in_place$LT$alloc..vec..Vec$LT$syn..attr..Attribute$GT$$GT$17h386324d8ea9bc309E.llvm.17741849970464361583', symObjAddr: 0x6550, symBinAddr: 0x1057B0, symSize: 0xF0 }
  - { offsetInCU: 0x24908, offset: 0x4FFAAB, size: 0x8, addend: 0x0, symName: '__ZN4core3ptr65drop_in_place$LT$alloc..vec..Vec$LT$proc_macro..TokenTree$GT$$GT$17hc3670dd5608d5259E.llvm.17741849970464361583', symObjAddr: 0x6640, symBinAddr: 0x1058A0, symSize: 0x110 }
  - { offsetInCU: 0x24D00, offset: 0x4FFEA3, size: 0x8, addend: 0x0, symName: '__ZN4core3ptr65drop_in_place$LT$core..option..Option$LT$syn..expr..Label$GT$$GT$17ha723640fd01bec5dE', symObjAddr: 0x6750, symBinAddr: 0x1059B0, symSize: 0x30 }
  - { offsetInCU: 0x24E3A, offset: 0x4FFFDD, size: 0x8, addend: 0x0, symName: '__ZN4core3ptr65drop_in_place$LT$core..option..Option$LT$syn..path..QSelf$GT$$GT$17h213ca1c3399df9f2E', symObjAddr: 0x67E0, symBinAddr: 0x1059E0, symSize: 0x50 }
  - { offsetInCU: 0x24FD1, offset: 0x500174, size: 0x8, addend: 0x0, symName: '__ZN4core3ptr66drop_in_place$LT$core..option..Option$LT$syn..ty..Variadic$GT$$GT$17hc32134bb3933b0dfE', symObjAddr: 0x6830, symBinAddr: 0x105A30, symSize: 0xF0 }
  - { offsetInCU: 0x252FB, offset: 0x50049E, size: 0x8, addend: 0x0, symName: '__ZN4core3ptr67drop_in_place$LT$alloc..boxed..Box$LT$syn..expr..FieldValue$GT$$GT$17h8df780aa600ea8c2E', symObjAddr: 0x6920, symBinAddr: 0x105B20, symSize: 0x160 }
  - { offsetInCU: 0x25871, offset: 0x500A14, size: 0x8, addend: 0x0, symName: '__ZN4core3ptr68drop_in_place$LT$alloc..boxed..Box$LT$syn..path..PathSegment$GT$$GT$17h1957b54eed39c0bbE', symObjAddr: 0x6A80, symBinAddr: 0x105C80, symSize: 0x190 }
  - { offsetInCU: 0x25F9A, offset: 0x50113D, size: 0x8, addend: 0x0, symName: '__ZN4core3ptr72drop_in_place$LT$alloc..boxed..Box$LT$syn..path..GenericArgument$GT$$GT$17ha8f8136d0c2b505bE', symObjAddr: 0x6C10, symBinAddr: 0x105E10, symSize: 0x180 }
  - { offsetInCU: 0x2663A, offset: 0x5017DD, size: 0x8, addend: 0x0, symName: '__ZN4core3ptr75drop_in_place$LT$alloc..boxed..Box$LT$syn..generics..TypeParamBound$GT$$GT$17h8f156ce07ea0b8b2E', symObjAddr: 0x6D90, symBinAddr: 0x105F90, symSize: 0x140 }
  - { offsetInCU: 0x26B95, offset: 0x501D38, size: 0x8, addend: 0x0, symName: '__ZN4core3ptr78drop_in_place$LT$alloc..boxed..Box$LT$syn..expr..GenericMethodArgument$GT$$GT$17h3384c00b5bd54c2aE', symObjAddr: 0x6ED0, symBinAddr: 0x1060D0, symSize: 0x60 }
  - { offsetInCU: 0x26D87, offset: 0x501F2A, size: 0x8, addend: 0x0, symName: '__ZN4core3ptr78drop_in_place$LT$core..option..Option$LT$syn..generics..BoundLifetimes$GT$$GT$17h8175e66ad0c4a156E', symObjAddr: 0x6F30, symBinAddr: 0x106130, symSize: 0xE0 }
  - { offsetInCU: 0x27104, offset: 0x5022A7, size: 0x8, addend: 0x0, symName: '__ZN4core3ptr86drop_in_place$LT$syn..punctuated..Punctuated$LT$syn..pat..Pat$C$syn..token..Or$GT$$GT$17h1078c5d178d382b7E', symObjAddr: 0x7010, symBinAddr: 0x106210, symSize: 0x120 }
  - { offsetInCU: 0x2757F, offset: 0x502722, size: 0x8, addend: 0x0, symName: '__ZN4core3ptr87drop_in_place$LT$core..option..Option$LT$alloc..boxed..Box$LT$syn..pat..Pat$GT$$GT$$GT$17ha7f5fe0e6f73e820E', symObjAddr: 0x7130, symBinAddr: 0x106330, symSize: 0x50 }
  - { offsetInCU: 0x276EF, offset: 0x502892, size: 0x8, addend: 0x0, symName: '__ZN4core3ptr89drop_in_place$LT$core..option..Option$LT$alloc..boxed..Box$LT$syn..expr..Expr$GT$$GT$$GT$17hdc211ccd33f196f2E', symObjAddr: 0x7180, symBinAddr: 0x106380, symSize: 0x50 }
  - { offsetInCU: 0x2789D, offset: 0x502A40, size: 0x8, addend: 0x0, symName: '__ZN4core3ptr89drop_in_place$LT$syn..punctuated..Punctuated$LT$syn..pat..Pat$C$syn..token..Comma$GT$$GT$17hf8371102b0500adcE', symObjAddr: 0x71D0, symBinAddr: 0x1063D0, symSize: 0x120 }
  - { offsetInCU: 0x27D8C, offset: 0x502F2F, size: 0x8, addend: 0x0, symName: '__ZN4core3ptr89drop_in_place$LT$syn..punctuated..Punctuated$LT$syn..ty..Type$C$syn..token..Comma$GT$$GT$17h1c6e43341fabea97E', symObjAddr: 0x72F0, symBinAddr: 0x1064F0, symSize: 0x120 }
  - { offsetInCU: 0x28258, offset: 0x5033FB, size: 0x8, addend: 0x0, symName: '__ZN4core3ptr91drop_in_place$LT$syn..punctuated..Punctuated$LT$syn..expr..Expr$C$syn..token..Comma$GT$$GT$17hd2dfeb0c522d9a18E', symObjAddr: 0x7410, symBinAddr: 0x106610, symSize: 0x120 }
  - { offsetInCU: 0x286E6, offset: 0x503889, size: 0x8, addend: 0x0, symName: '__ZN4core3ptr92drop_in_place$LT$core..option..Option$LT$alloc..boxed..Box$LT$syn..ty..BareFnArg$GT$$GT$$GT$17h2b57ab7ac835f762E', symObjAddr: 0x7530, symBinAddr: 0x106730, symSize: 0x50 }
  - { offsetInCU: 0x28856, offset: 0x5039F9, size: 0x8, addend: 0x0, symName: '__ZN4core3ptr94drop_in_place$LT$syn..punctuated..Punctuated$LT$syn..pat..FieldPat$C$syn..token..Comma$GT$$GT$17h612cbc9066d5afb1E', symObjAddr: 0x7580, symBinAddr: 0x106780, symSize: 0xF0 }
  - { offsetInCU: 0x28B55, offset: 0x503CF8, size: 0x8, addend: 0x0, symName: '__ZN4core3ptr94drop_in_place$LT$syn..punctuated..Punctuated$LT$syn..ty..BareFnArg$C$syn..token..Comma$GT$$GT$17ha9a668ce9972795bE', symObjAddr: 0x7670, symBinAddr: 0x106870, symSize: 0xF0 }
  - { offsetInCU: 0x28E52, offset: 0x503FF5, size: 0x8, addend: 0x0, symName: '__ZN4core3ptr95drop_in_place$LT$core..option..Option$LT$$LP$proc_macro2..Ident$C$syn..token..Colon$RP$$GT$$GT$17h7314df562090eafdE.llvm.17741849970464361583', symObjAddr: 0x7760, symBinAddr: 0x106960, symSize: 0x30 }
  - { offsetInCU: 0x28F6D, offset: 0x504110, size: 0x8, addend: 0x0, symName: '__ZN4core3ptr96drop_in_place$LT$core..option..Option$LT$alloc..boxed..Box$LT$syn..path..PathSegment$GT$$GT$$GT$17h2e81cbe3c70bb71cE', symObjAddr: 0x7790, symBinAddr: 0x106990, symSize: 0x1B0 }
  - { offsetInCU: 0x297BC, offset: 0x50495F, size: 0x8, addend: 0x0, symName: '__ZN4core3ptr97drop_in_place$LT$syn..punctuated..Punctuated$LT$syn..expr..FieldValue$C$syn..token..Comma$GT$$GT$17h11a5fffb46adfb11E', symObjAddr: 0x7940, symBinAddr: 0x106B40, symSize: 0xF0 }
  - { offsetInCU: 0x29B35, offset: 0x504CD8, size: 0x8, addend: 0x0, symName: '__ZN4core3ptr97drop_in_place$LT$syn..punctuated..Punctuated$LT$syn..lifetime..Lifetime$C$syn..token..Add$GT$$GT$17h5c54dea2c838d109E', symObjAddr: 0x7A30, symBinAddr: 0x106C30, symSize: 0xD0 }
  - { offsetInCU: 0x29FA9, offset: 0x50514C, size: 0x8, addend: 0x0, symName: '__ZN4core3ptr99drop_in_place$LT$syn..punctuated..Punctuated$LT$syn..path..PathSegment$C$syn..token..Colon2$GT$$GT$17hb961e4d7989a33ceE', symObjAddr: 0x7B00, symBinAddr: 0x106D00, symSize: 0x140 }
  - { offsetInCU: 0x3238B, offset: 0x50D52E, size: 0x8, addend: 0x0, symName: '__ZN3syn2ty7parsing37_$LT$impl$u20$syn..ty..ReturnType$GT$5parse17hdab9ab74dcb18a9dE.llvm.17741849970464361583', symObjAddr: 0x9F70, symBinAddr: 0x107CF0, symSize: 0x1B0 }
  - { offsetInCU: 0x32889, offset: 0x50DA2C, size: 0x8, addend: 0x0, symName: '__ZN3syn2ty7parsing42_$LT$impl$u20$syn..ty..TypeTraitObject$GT$12parse_bounds17h8ca5731c28835e0dE', symObjAddr: 0xA420, symBinAddr: 0x108010, symSize: 0x200 }
  - { offsetInCU: 0x32E40, offset: 0x50DFE3, size: 0x8, addend: 0x0, symName: '__ZN3syn2ty7parsing40_$LT$impl$u20$syn..ty..TypeImplTrait$GT$5parse17h544f3b1c82318627E', symObjAddr: 0xA660, symBinAddr: 0x108210, symSize: 0x260 }
  - { offsetInCU: 0x23EA, offset: 0x51669B, size: 0x8, addend: 0x0, symName: '__ZN77_$LT$$RF$$u5b$syn..attr..Attribute$u5d$$u20$as$u20$syn..attr..FilterAttrs$GT$5outer8is_outer17ha84f9abf7d7fa408E.llvm.5972456844166134669', symObjAddr: 0x8AF0, symBinAddr: 0x1112C0, symSize: 0x10 }
  - { offsetInCU: 0x3829, offset: 0x517ADA, size: 0x8, addend: 0x0, symName: '__ZN3syn3pat8printing75_$LT$impl$u20$quote..to_tokens..ToTokens$u20$for$u20$syn..pat..PatIdent$GT$9to_tokens17h55aee6efd36f4a0dE', symObjAddr: 0x9D90, symBinAddr: 0x112420, symSize: 0x200 }
  - { offsetInCU: 0x3E70, offset: 0x518121, size: 0x8, addend: 0x0, symName: '__ZN3syn3pat8printing74_$LT$impl$u20$quote..to_tokens..ToTokens$u20$for$u20$syn..pat..PatType$GT$9to_tokens17h6ec4b08e3c7074d0E', symObjAddr: 0xA280, symBinAddr: 0x112620, symSize: 0x100 }
  - { offsetInCU: 0x42EA, offset: 0x51859B, size: 0x8, addend: 0x0, symName: '__ZN3syn3pat7parsing61_$LT$impl$u20$syn..parse..Parse$u20$for$u20$syn..pat..Pat$GT$5parse17h00d83816bfe2b60bE', symObjAddr: 0x8B00, symBinAddr: 0x1112D0, symSize: 0x1150 }
  - { offsetInCU: 0x998B, offset: 0x51DC3C, size: 0x8, addend: 0x0, symName: '__ZN60_$LT$syn..pat..Pat$u20$as$u20$quote..to_tokens..ToTokens$GT$9to_tokens17hdecd0772527fa157E', symObjAddr: 0xAF30, symBinAddr: 0x112720, symSize: 0xF50 }
  - { offsetInCU: 0xD965, offset: 0x521C16, size: 0x8, addend: 0x0, symName: '__ZN3syn3gen5clone67_$LT$impl$u20$core..clone..Clone$u20$for$u20$syn..pat..FieldPat$GT$5clone17ha7bb360920a258c2E', symObjAddr: 0xBE80, symBinAddr: 0x113670, symSize: 0x180 }
  - { offsetInCU: 0xDF4E, offset: 0x5221FF, size: 0x8, addend: 0x0, symName: '__ZN3syn3gen5clone66_$LT$impl$u20$core..clone..Clone$u20$for$u20$syn..pat..PatType$GT$5clone17haca043f7fca6f73aE', symObjAddr: 0xD840, symBinAddr: 0x114B70, symSize: 0x170 }
  - { offsetInCU: 0xE3DF, offset: 0x522690, size: 0x8, addend: 0x0, symName: '__ZN3syn3gen5clone62_$LT$impl$u20$core..clone..Clone$u20$for$u20$syn..pat..Pat$GT$5clone17h2c8337b388f09352E', symObjAddr: 0xC000, symBinAddr: 0x1137F0, symSize: 0xA90 }
  - { offsetInCU: 0xFB70, offset: 0x523E21, size: 0x8, addend: 0x0, symName: '__ZN3syn3gen5clone67_$LT$impl$u20$core..clone..Clone$u20$for$u20$syn..pat..PatIdent$GT$5clone17hdf62d7b536629cd2E', symObjAddr: 0xCB70, symBinAddr: 0x114280, symSize: 0x1A0 }
  - { offsetInCU: 0xFFFD, offset: 0x5242AE, size: 0x8, addend: 0x0, symName: '__ZN3syn3gen5clone66_$LT$impl$u20$core..clone..Clone$u20$for$u20$syn..pat..PatPath$GT$5clone17h71a9bc7ac1757f8cE', symObjAddr: 0xCF20, symBinAddr: 0x114420, symSize: 0x1B0 }
  - { offsetInCU: 0x1036A, offset: 0x52461B, size: 0x8, addend: 0x0, symName: '__ZN3syn3gen5clone67_$LT$impl$u20$core..clone..Clone$u20$for$u20$syn..pat..PatRange$GT$5clone17ha1f679345e2631edE', symObjAddr: 0xD0D0, symBinAddr: 0x1145D0, symSize: 0x180 }
  - { offsetInCU: 0x107E6, offset: 0x524A97, size: 0x8, addend: 0x0, symName: '__ZN3syn3gen5clone68_$LT$impl$u20$core..clone..Clone$u20$for$u20$syn..pat..PatStruct$GT$5clone17h1e9b775403ba6afcE', symObjAddr: 0xD420, symBinAddr: 0x114750, symSize: 0x1F0 }
  - { offsetInCU: 0x10B20, offset: 0x524DD1, size: 0x8, addend: 0x0, symName: '__ZN3syn3gen5clone73_$LT$impl$u20$core..clone..Clone$u20$for$u20$syn..pat..PatTupleStruct$GT$5clone17h08e3cd449581fccbE', symObjAddr: 0xD610, symBinAddr: 0x114940, symSize: 0x230 }
  - { offsetInCU: 0x12E2C, offset: 0x5270DD, size: 0x8, addend: 0x0, symName: '__ZN4core3ptr100drop_in_place$LT$core..option..Option$LT$alloc..boxed..Box$LT$syn..generics..LifetimeDef$GT$$GT$$GT$17h75a6086997697dd7E', symObjAddr: 0xA0, symBinAddr: 0x109C80, symSize: 0x150 }
  - { offsetInCU: 0x133A8, offset: 0x527659, size: 0x8, addend: 0x0, symName: '__ZN4core3ptr100drop_in_place$LT$core..option..Option$LT$alloc..boxed..Box$LT$syn..path..GenericArgument$GT$$GT$$GT$17h3d29ec00a8f1918dE', symObjAddr: 0x1F0, symBinAddr: 0x109DD0, symSize: 0x50 }
  - { offsetInCU: 0x13575, offset: 0x527826, size: 0x8, addend: 0x0, symName: '__ZN4core3ptr103drop_in_place$LT$core..option..Option$LT$alloc..boxed..Box$LT$syn..generics..TypeParamBound$GT$$GT$$GT$17h6cee73bc2b2ecea8E', symObjAddr: 0x240, symBinAddr: 0x109E20, symSize: 0x90 }
  - { offsetInCU: 0x138EA, offset: 0x527B9B, size: 0x8, addend: 0x0, symName: '__ZN4core3ptr103drop_in_place$LT$syn..punctuated..Punctuated$LT$syn..generics..TypeParamBound$C$syn..token..Add$GT$$GT$17he811d520c92af08aE', symObjAddr: 0x2D0, symBinAddr: 0x109EB0, symSize: 0x1C0 }
  - { offsetInCU: 0x1413B, offset: 0x5283EC, size: 0x8, addend: 0x0, symName: '__ZN4core3ptr108drop_in_place$LT$syn..punctuated..Punctuated$LT$syn..expr..GenericMethodArgument$C$syn..token..Comma$GT$$GT$17h92cbabe4862b2183E', symObjAddr: 0x490, symBinAddr: 0x10A070, symSize: 0x150 }
  - { offsetInCU: 0x146D2, offset: 0x528983, size: 0x8, addend: 0x0, symName: '__ZN4core3ptr34drop_in_place$LT$syn..lit..Lit$GT$17hbe1efe749a08dd9aE', symObjAddr: 0x630, symBinAddr: 0x10A1C0, symSize: 0x110 }
  - { offsetInCU: 0x14B06, offset: 0x528DB7, size: 0x8, addend: 0x0, symName: '__ZN4core3ptr34drop_in_place$LT$syn..pat..Pat$GT$17h3201f642e43ac2a2E.llvm.5972456844166134669', symObjAddr: 0x740, symBinAddr: 0x10A2D0, symSize: 0x1180 }
  - { offsetInCU: 0x189DE, offset: 0x52CC8F, size: 0x8, addend: 0x0, symName: '__ZN4core3ptr34drop_in_place$LT$syn..ty..Type$GT$17hfb5d159a08190130E', symObjAddr: 0x18C0, symBinAddr: 0x10B450, symSize: 0x580 }
  - { offsetInCU: 0x1A2EF, offset: 0x52E5A0, size: 0x8, addend: 0x0, symName: '__ZN4core3ptr36drop_in_place$LT$syn..expr..Expr$GT$17hf1921d1b09462bc3E', symObjAddr: 0x1E40, symBinAddr: 0x10B9D0, symSize: 0x32B0 }
  - { offsetInCU: 0x24C73, offset: 0x538F24, size: 0x8, addend: 0x0, symName: '__ZN4core3ptr36drop_in_place$LT$syn..mac..Macro$GT$17h205613d7ad575f72E', symObjAddr: 0x50F0, symBinAddr: 0x10EC80, symSize: 0x40 }
  - { offsetInCU: 0x24DC4, offset: 0x539075, size: 0x8, addend: 0x0, symName: '__ZN4core3ptr36drop_in_place$LT$syn..path..Path$GT$17he6d0bec66d66b98aE', symObjAddr: 0x5230, symBinAddr: 0x10ECC0, symSize: 0x230 }
  - { offsetInCU: 0x2575A, offset: 0x539A0B, size: 0x8, addend: 0x0, symName: '__ZN4core3ptr37drop_in_place$LT$syn..stmt..Block$GT$17h3aa429e75a234230E', symObjAddr: 0x56C0, symBinAddr: 0x10EEF0, symSize: 0xD0 }
  - { offsetInCU: 0x25A31, offset: 0x539CE2, size: 0x8, addend: 0x0, symName: '__ZN4core3ptr38drop_in_place$LT$syn..expr..Member$GT$17ha113d37a67d27aafE.llvm.5972456844166134669', symObjAddr: 0x5790, symBinAddr: 0x10EFC0, symSize: 0x30 }
  - { offsetInCU: 0x25B2D, offset: 0x539DDE, size: 0x8, addend: 0x0, symName: '__ZN4core3ptr39drop_in_place$LT$proc_macro2..Ident$GT$17hdeec010483268a0dE', symObjAddr: 0x5B50, symBinAddr: 0x10EFF0, symSize: 0x30 }
  - { offsetInCU: 0x25C0A, offset: 0x539EBB, size: 0x8, addend: 0x0, symName: '__ZN4core3ptr39drop_in_place$LT$syn..pat..PatSlice$GT$17h8e69deb461f13c8dE', symObjAddr: 0x5F50, symBinAddr: 0x10F020, symSize: 0x100 }
  - { offsetInCU: 0x25F13, offset: 0x53A1C4, size: 0x8, addend: 0x0, symName: '__ZN4core3ptr40drop_in_place$LT$syn..ty..ReturnType$GT$17h6f97c9fdb958983eE', symObjAddr: 0x6160, symBinAddr: 0x10F120, symSize: 0x50 }
  - { offsetInCU: 0x26083, offset: 0x53A334, size: 0x8, addend: 0x0, symName: '__ZN4core3ptr44drop_in_place$LT$syn..lifetime..Lifetime$GT$17h3858225df033648aE', symObjAddr: 0x62E0, symBinAddr: 0x10F170, symSize: 0x30 }
  - { offsetInCU: 0x261FB, offset: 0x53A4AC, size: 0x8, addend: 0x0, symName: '__ZN4core3ptr44drop_in_place$LT$syn..parse..ParseBuffer$GT$17h19c266fcccc430cbE', symObjAddr: 0x6310, symBinAddr: 0x10F1A0, symSize: 0x70 }
  - { offsetInCU: 0x26612, offset: 0x53A8C3, size: 0x8, addend: 0x0, symName: '__ZN4core3ptr45drop_in_place$LT$proc_macro2..TokenStream$GT$17h2507cb30e765dc85E', symObjAddr: 0x6380, symBinAddr: 0x10F210, symSize: 0x140 }
  - { offsetInCU: 0x26AAC, offset: 0x53AD5D, size: 0x8, addend: 0x0, symName: '__ZN4core3ptr47drop_in_place$LT$syn..path..GenericArgument$GT$17h8c0a0d8c6deaefb4E', symObjAddr: 0x66A0, symBinAddr: 0x10F350, symSize: 0x110 }
  - { offsetInCU: 0x26DC7, offset: 0x53B078, size: 0x8, addend: 0x0, symName: '__ZN4core3ptr58drop_in_place$LT$alloc..vec..Vec$LT$syn..expr..Arm$GT$$GT$17hf3db0825f3d9c861E', symObjAddr: 0x67B0, symBinAddr: 0x10F460, symSize: 0xD0 }
  - { offsetInCU: 0x27087, offset: 0x53B338, size: 0x8, addend: 0x0, symName: '__ZN4core3ptr59drop_in_place$LT$alloc..boxed..Box$LT$syn..pat..Pat$GT$$GT$17h7037ce9bbd3729c6E.llvm.5972456844166134669', symObjAddr: 0x6880, symBinAddr: 0x10F530, symSize: 0x50 }
  - { offsetInCU: 0x271E0, offset: 0x53B491, size: 0x8, addend: 0x0, symName: '__ZN4core3ptr59drop_in_place$LT$alloc..boxed..Box$LT$syn..ty..Type$GT$$GT$17h2eccd13329dbe4faE', symObjAddr: 0x68D0, symBinAddr: 0x10F580, symSize: 0x50 }
  - { offsetInCU: 0x27339, offset: 0x53B5EA, size: 0x8, addend: 0x0, symName: '__ZN4core3ptr61drop_in_place$LT$alloc..boxed..Box$LT$syn..expr..Expr$GT$$GT$17h66094ddc89015516E', symObjAddr: 0x6920, symBinAddr: 0x10F5D0, symSize: 0x50 }
  - { offsetInCU: 0x2750E, offset: 0x53B7BF, size: 0x8, addend: 0x0, symName: '__ZN4core3ptr61drop_in_place$LT$syn..path..ParenthesizedGenericArguments$GT$17h21be9b1d7a6fab55E', symObjAddr: 0x6970, symBinAddr: 0x10F620, symSize: 0x170 }
  - { offsetInCU: 0x27B04, offset: 0x53BDB5, size: 0x8, addend: 0x0, symName: '__ZN4core3ptr63drop_in_place$LT$alloc..boxed..Box$LT$syn..lit..LitRepr$GT$$GT$17h9c509b794406150eE', symObjAddr: 0x6AE0, symBinAddr: 0x10F790, symSize: 0x60 }
  - { offsetInCU: 0x27E0B, offset: 0x53C0BC, size: 0x8, addend: 0x0, symName: '__ZN4core3ptr64drop_in_place$LT$alloc..boxed..Box$LT$syn..pat..FieldPat$GT$$GT$17hb167b355d0d4733fE', symObjAddr: 0x6B40, symBinAddr: 0x10F7F0, symSize: 0x180 }
  - { offsetInCU: 0x28528, offset: 0x53C7D9, size: 0x8, addend: 0x0, symName: '__ZN4core3ptr64drop_in_place$LT$alloc..boxed..Box$LT$syn..ty..BareFnArg$GT$$GT$17h6488be9448346678E', symObjAddr: 0x6CC0, symBinAddr: 0x10F970, symSize: 0x160 }
  - { offsetInCU: 0x28ABE, offset: 0x53CD6F, size: 0x8, addend: 0x0, symName: '__ZN4core3ptr64drop_in_place$LT$alloc..vec..Vec$LT$syn..attr..Attribute$GT$$GT$17h386324d8ea9bc309E.llvm.5972456844166134669', symObjAddr: 0x6E20, symBinAddr: 0x10FAD0, symSize: 0xF0 }
  - { offsetInCU: 0x28DB4, offset: 0x53D065, size: 0x8, addend: 0x0, symName: '__ZN4core3ptr65drop_in_place$LT$alloc..vec..Vec$LT$proc_macro..TokenTree$GT$$GT$17hc3670dd5608d5259E', symObjAddr: 0x6F10, symBinAddr: 0x10FBC0, symSize: 0x110 }
  - { offsetInCU: 0x291AC, offset: 0x53D45D, size: 0x8, addend: 0x0, symName: '__ZN4core3ptr65drop_in_place$LT$core..option..Option$LT$syn..expr..Label$GT$$GT$17ha723640fd01bec5dE', symObjAddr: 0x7020, symBinAddr: 0x10FCD0, symSize: 0x30 }
  - { offsetInCU: 0x292E6, offset: 0x53D597, size: 0x8, addend: 0x0, symName: '__ZN4core3ptr65drop_in_place$LT$core..option..Option$LT$syn..path..QSelf$GT$$GT$17h213ca1c3399df9f2E', symObjAddr: 0x7050, symBinAddr: 0x10FD00, symSize: 0x50 }
  - { offsetInCU: 0x2947D, offset: 0x53D72E, size: 0x8, addend: 0x0, symName: '__ZN4core3ptr66drop_in_place$LT$core..option..Option$LT$syn..ty..Variadic$GT$$GT$17hc32134bb3933b0dfE', symObjAddr: 0x70A0, symBinAddr: 0x10FD50, symSize: 0xF0 }
  - { offsetInCU: 0x297A7, offset: 0x53DA58, size: 0x8, addend: 0x0, symName: '__ZN4core3ptr67drop_in_place$LT$alloc..boxed..Box$LT$syn..expr..FieldValue$GT$$GT$17h8df780aa600ea8c2E', symObjAddr: 0x7190, symBinAddr: 0x10FE40, symSize: 0x160 }
  - { offsetInCU: 0x29D3C, offset: 0x53DFED, size: 0x8, addend: 0x0, symName: '__ZN4core3ptr68drop_in_place$LT$alloc..boxed..Box$LT$syn..path..PathSegment$GT$$GT$17h1957b54eed39c0bbE', symObjAddr: 0x72F0, symBinAddr: 0x10FFA0, symSize: 0x190 }
  - { offsetInCU: 0x2A465, offset: 0x53E716, size: 0x8, addend: 0x0, symName: '__ZN4core3ptr72drop_in_place$LT$alloc..boxed..Box$LT$syn..path..GenericArgument$GT$$GT$17ha8f8136d0c2b505bE', symObjAddr: 0x7480, symBinAddr: 0x110130, symSize: 0x180 }
  - { offsetInCU: 0x2AB05, offset: 0x53EDB6, size: 0x8, addend: 0x0, symName: '__ZN4core3ptr72drop_in_place$LT$core..option..Option$LT$syn..lifetime..Lifetime$GT$$GT$17h31b55b93749c174dE', symObjAddr: 0x7600, symBinAddr: 0x1102B0, symSize: 0x30 }
  - { offsetInCU: 0x2AC20, offset: 0x53EED1, size: 0x8, addend: 0x0, symName: '__ZN4core3ptr75drop_in_place$LT$alloc..boxed..Box$LT$syn..generics..TypeParamBound$GT$$GT$17h8f156ce07ea0b8b2E', symObjAddr: 0x7630, symBinAddr: 0x1102E0, symSize: 0x140 }
  - { offsetInCU: 0x2B17B, offset: 0x53F42C, size: 0x8, addend: 0x0, symName: '__ZN4core3ptr78drop_in_place$LT$alloc..boxed..Box$LT$syn..expr..GenericMethodArgument$GT$$GT$17h3384c00b5bd54c2aE', symObjAddr: 0x7770, symBinAddr: 0x110420, symSize: 0x60 }
  - { offsetInCU: 0x2B36D, offset: 0x53F61E, size: 0x8, addend: 0x0, symName: '__ZN4core3ptr78drop_in_place$LT$core..option..Option$LT$syn..generics..BoundLifetimes$GT$$GT$17h8175e66ad0c4a156E', symObjAddr: 0x77D0, symBinAddr: 0x110480, symSize: 0xE0 }
  - { offsetInCU: 0x2B6EA, offset: 0x53F99B, size: 0x8, addend: 0x0, symName: '__ZN4core3ptr86drop_in_place$LT$syn..punctuated..Punctuated$LT$syn..pat..Pat$C$syn..token..Or$GT$$GT$17h1078c5d178d382b7E', symObjAddr: 0x78B0, symBinAddr: 0x110560, symSize: 0x120 }
  - { offsetInCU: 0x2BB65, offset: 0x53FE16, size: 0x8, addend: 0x0, symName: '__ZN4core3ptr87drop_in_place$LT$core..option..Option$LT$alloc..boxed..Box$LT$syn..pat..Pat$GT$$GT$$GT$17ha7f5fe0e6f73e820E', symObjAddr: 0x79D0, symBinAddr: 0x110680, symSize: 0x50 }
  - { offsetInCU: 0x2BCD5, offset: 0x53FF86, size: 0x8, addend: 0x0, symName: '__ZN4core3ptr87drop_in_place$LT$core..option..Option$LT$alloc..boxed..Box$LT$syn..ty..Type$GT$$GT$$GT$17hc8292da82d129de3E', symObjAddr: 0x7A20, symBinAddr: 0x1106D0, symSize: 0x50 }
  - { offsetInCU: 0x2BE45, offset: 0x5400F6, size: 0x8, addend: 0x0, symName: '__ZN4core3ptr89drop_in_place$LT$core..option..Option$LT$alloc..boxed..Box$LT$syn..expr..Expr$GT$$GT$$GT$17hdc211ccd33f196f2E', symObjAddr: 0x7A70, symBinAddr: 0x110720, symSize: 0x50 }
  - { offsetInCU: 0x2BFF3, offset: 0x5402A4, size: 0x8, addend: 0x0, symName: '__ZN4core3ptr89drop_in_place$LT$syn..punctuated..Punctuated$LT$syn..pat..Pat$C$syn..token..Comma$GT$$GT$17hf8371102b0500adcE', symObjAddr: 0x7AC0, symBinAddr: 0x110770, symSize: 0x120 }
  - { offsetInCU: 0x2C485, offset: 0x540736, size: 0x8, addend: 0x0, symName: '__ZN4core3ptr89drop_in_place$LT$syn..punctuated..Punctuated$LT$syn..ty..Type$C$syn..token..Comma$GT$$GT$17h1c6e43341fabea97E', symObjAddr: 0x7BE0, symBinAddr: 0x110890, symSize: 0x120 }
  - { offsetInCU: 0x2C95D, offset: 0x540C0E, size: 0x8, addend: 0x0, symName: '__ZN4core3ptr91drop_in_place$LT$core..result..Result$LT$syn..expr..RangeLimits$C$syn..error..Error$GT$$GT$17h30583de0c0dd5b5eE', symObjAddr: 0x7D00, symBinAddr: 0x1109B0, symSize: 0x80 }
  - { offsetInCU: 0x2CC69, offset: 0x540F1A, size: 0x8, addend: 0x0, symName: '__ZN4core3ptr91drop_in_place$LT$syn..punctuated..Punctuated$LT$syn..expr..Expr$C$syn..token..Comma$GT$$GT$17hd2dfeb0c522d9a18E', symObjAddr: 0x7D80, symBinAddr: 0x110A30, symSize: 0x120 }
  - { offsetInCU: 0x2D0F7, offset: 0x5413A8, size: 0x8, addend: 0x0, symName: '__ZN4core3ptr94drop_in_place$LT$syn..punctuated..Punctuated$LT$syn..pat..FieldPat$C$syn..token..Comma$GT$$GT$17h612cbc9066d5afb1E', symObjAddr: 0x7EA0, symBinAddr: 0x110B50, symSize: 0xF0 }
  - { offsetInCU: 0x2D3F6, offset: 0x5416A7, size: 0x8, addend: 0x0, symName: '__ZN4core3ptr94drop_in_place$LT$syn..punctuated..Punctuated$LT$syn..ty..BareFnArg$C$syn..token..Comma$GT$$GT$17ha9a668ce9972795bE', symObjAddr: 0x7F90, symBinAddr: 0x110C40, symSize: 0xF0 }
  - { offsetInCU: 0x2D6F3, offset: 0x5419A4, size: 0x8, addend: 0x0, symName: '__ZN4core3ptr96drop_in_place$LT$core..option..Option$LT$alloc..boxed..Box$LT$syn..path..PathSegment$GT$$GT$$GT$17h2e81cbe3c70bb71cE', symObjAddr: 0x8080, symBinAddr: 0x110D30, symSize: 0x180 }
  - { offsetInCU: 0x2DDB0, offset: 0x542061, size: 0x8, addend: 0x0, symName: '__ZN4core3ptr97drop_in_place$LT$syn..punctuated..Punctuated$LT$syn..expr..FieldValue$C$syn..token..Comma$GT$$GT$17h11a5fffb46adfb11E', symObjAddr: 0x8200, symBinAddr: 0x110EB0, symSize: 0xF0 }
  - { offsetInCU: 0x2E129, offset: 0x5423DA, size: 0x8, addend: 0x0, symName: '__ZN4core3ptr97drop_in_place$LT$syn..punctuated..Punctuated$LT$syn..lifetime..Lifetime$C$syn..token..Add$GT$$GT$17h5c54dea2c838d109E', symObjAddr: 0x82F0, symBinAddr: 0x110FA0, symSize: 0xD0 }
  - { offsetInCU: 0x2E59D, offset: 0x54284E, size: 0x8, addend: 0x0, symName: '__ZN4core3ptr99drop_in_place$LT$syn..punctuated..Punctuated$LT$syn..path..PathSegment$C$syn..token..Colon2$GT$$GT$17hb961e4d7989a33ceE', symObjAddr: 0x83C0, symBinAddr: 0x111070, symSize: 0x250 }
  - { offsetInCU: 0x4A1, offset: 0x550A51, size: 0x8, addend: 0x0, symName: '__ZN60_$LT$syn..token..Underscore$u20$as$u20$syn..token..Token$GT$4peek17h317380a22d771ac2E', symObjAddr: 0xA60, symBinAddr: 0x114D50, symSize: 0x1F0 }
  - { offsetInCU: 0xD58, offset: 0x551308, size: 0x8, addend: 0x0, symName: '__ZN55_$LT$syn..token..Paren$u20$as$u20$syn..token..Token$GT$4peek17h1176b0ebdf7fbaffE', symObjAddr: 0xC50, symBinAddr: 0x114F40, symSize: 0x90 }
  - { offsetInCU: 0xEDE, offset: 0x55148E, size: 0x8, addend: 0x0, symName: '__ZN55_$LT$syn..token..Brace$u20$as$u20$syn..token..Token$GT$4peek17ha2a9fdfc170453eeE', symObjAddr: 0xCE0, symBinAddr: 0x114FD0, symSize: 0x90 }
  - { offsetInCU: 0x1064, offset: 0x551614, size: 0x8, addend: 0x0, symName: '__ZN57_$LT$syn..token..Bracket$u20$as$u20$syn..token..Token$GT$4peek17hd07fe36d9434f21aE', symObjAddr: 0xD70, symBinAddr: 0x115060, symSize: 0x90 }
  - { offsetInCU: 0x11EF, offset: 0x55179F, size: 0x8, addend: 0x0, symName: '__ZN61_$LT$syn..lifetime..Lifetime$u20$as$u20$syn..token..Token$GT$4peek4peek17h57048675f5c5e816E', symObjAddr: 0xE50, symBinAddr: 0x1150F0, symSize: 0x120 }
  - { offsetInCU: 0x167A, offset: 0x551C2A, size: 0x8, addend: 0x0, symName: '__ZN51_$LT$syn..lit..Lit$u20$as$u20$syn..token..Token$GT$4peek4peek17h9e486ca1f0623f23E', symObjAddr: 0xF70, symBinAddr: 0x115210, symSize: 0x190 }
  - { offsetInCU: 0x1B02, offset: 0x5520B2, size: 0x8, addend: 0x0, symName: '__ZN54_$LT$syn..lit..LitStr$u20$as$u20$syn..token..Token$GT$4peek4peek17h9ad1d9e62f20247dE', symObjAddr: 0x1100, symBinAddr: 0x1153A0, symSize: 0xE0 }
  - { offsetInCU: 0x2094, offset: 0x552644, size: 0x8, addend: 0x0, symName: '__ZN54_$LT$syn..lit..LitInt$u20$as$u20$syn..token..Token$GT$4peek4peek17h588562dc8a95e218E', symObjAddr: 0x1480, symBinAddr: 0x115480, symSize: 0xF0 }
  - { offsetInCU: 0x26B9, offset: 0x552C69, size: 0x8, addend: 0x0, symName: '__ZN56_$LT$syn..lit..LitFloat$u20$as$u20$syn..token..Token$GT$4peek4peek17he805574610dc5ccaE', symObjAddr: 0x1570, symBinAddr: 0x115570, symSize: 0xF0 }
  - { offsetInCU: 0x2CDE, offset: 0x55328E, size: 0x8, addend: 0x0, symName: '__ZN55_$LT$syn..lit..LitBool$u20$as$u20$syn..token..Token$GT$4peek4peek17h3fa21828d8ab51e9E', symObjAddr: 0x1660, symBinAddr: 0x115660, symSize: 0x90 }
  - { offsetInCU: 0x2FFC, offset: 0x5535AC, size: 0x8, addend: 0x0, symName: '__ZN57_$LT$syn..token..As$u20$as$u20$core..default..Default$GT$7default17hfc175aec325b5363E', symObjAddr: 0x1910, symBinAddr: 0x1156F0, symSize: 0x0 }
  - { offsetInCU: 0x3021, offset: 0x5535D1, size: 0x8, addend: 0x0, symName: '__ZN52_$LT$syn..token..As$u20$as$u20$syn..parse..Parse$GT$5parse17hf7e5fe9d4df66d35E', symObjAddr: 0x19C0, symBinAddr: 0x115700, symSize: 0x60 }
  - { offsetInCU: 0x30A8, offset: 0x553658, size: 0x8, addend: 0x0, symName: '__ZN55_$LT$syn..token..Async$u20$as$u20$syn..token..Token$GT$4peek17hf28061e6deb47530E', symObjAddr: 0x1B40, symBinAddr: 0x115760, symSize: 0x20 }
  - { offsetInCU: 0x30DE, offset: 0x55368E, size: 0x8, addend: 0x0, symName: '__ZN55_$LT$syn..token..Const$u20$as$u20$syn..parse..Parse$GT$5parse17h9cfc851e259773e6E', symObjAddr: 0x21A0, symBinAddr: 0x115780, symSize: 0x60 }
  - { offsetInCU: 0x3165, offset: 0x553715, size: 0x8, addend: 0x0, symName: '__ZN55_$LT$syn..token..Const$u20$as$u20$syn..token..Token$GT$4peek17hbda999978db8b1ddE', symObjAddr: 0x2200, symBinAddr: 0x1157E0, symSize: 0x20 }
  - { offsetInCU: 0x319B, offset: 0x55374B, size: 0x8, addend: 0x0, symName: '__ZN55_$LT$syn..token..Crate$u20$as$u20$syn..token..Token$GT$4peek17h0102053751e9950dE', symObjAddr: 0x2440, symBinAddr: 0x115800, symSize: 0x20 }
  - { offsetInCU: 0x31D1, offset: 0x553781, size: 0x8, addend: 0x0, symName: '__ZN63_$LT$syn..token..Else$u20$as$u20$quote..to_tokens..ToTokens$GT$9to_tokens17h2257515c434df017E', symObjAddr: 0x27E0, symBinAddr: 0x115820, symSize: 0x80 }
  - { offsetInCU: 0x3307, offset: 0x5538B7, size: 0x8, addend: 0x0, symName: '__ZN54_$LT$syn..token..Else$u20$as$u20$syn..parse..Parse$GT$5parse17h200a2b149f0173abE', symObjAddr: 0x2860, symBinAddr: 0x1158A0, symSize: 0x60 }
  - { offsetInCU: 0x338E, offset: 0x55393E, size: 0x8, addend: 0x0, symName: '__ZN54_$LT$syn..token..Enum$u20$as$u20$syn..token..Token$GT$4peek17hdf067724bfda19f1E', symObjAddr: 0x29E0, symBinAddr: 0x115900, symSize: 0x20 }
  - { offsetInCU: 0x33C4, offset: 0x553974, size: 0x8, addend: 0x0, symName: '__ZN56_$LT$syn..token..Extern$u20$as$u20$syn..token..Token$GT$4peek17hbc8c8b2eec164cceE', symObjAddr: 0x2B00, symBinAddr: 0x115920, symSize: 0x20 }
  - { offsetInCU: 0x33FA, offset: 0x5539AA, size: 0x8, addend: 0x0, symName: '__ZN52_$LT$syn..token..Fn$u20$as$u20$syn..token..Token$GT$4peek17h381f871829dfc359E', symObjAddr: 0x2D40, symBinAddr: 0x115940, symSize: 0x20 }
  - { offsetInCU: 0x3430, offset: 0x5539E0, size: 0x8, addend: 0x0, symName: '__ZN53_$LT$syn..token..For$u20$as$u20$syn..parse..Parse$GT$5parse17he7b20b521a21b84eE', symObjAddr: 0x2E00, symBinAddr: 0x115960, symSize: 0x60 }
  - { offsetInCU: 0x34B7, offset: 0x553A67, size: 0x8, addend: 0x0, symName: '__ZN54_$LT$syn..token..Impl$u20$as$u20$syn..token..Token$GT$4peek17hf980431ae56a44a6E', symObjAddr: 0x30A0, symBinAddr: 0x1159C0, symSize: 0x20 }
  - { offsetInCU: 0x34ED, offset: 0x553A9D, size: 0x8, addend: 0x0, symName: '__ZN52_$LT$syn..token..In$u20$as$u20$syn..parse..Parse$GT$5parse17h65dbe5bb6b8095e9E', symObjAddr: 0x3160, symBinAddr: 0x1159E0, symSize: 0x60 }
  - { offsetInCU: 0x3574, offset: 0x553B24, size: 0x8, addend: 0x0, symName: '__ZN55_$LT$syn..token..Macro$u20$as$u20$syn..token..Token$GT$4peek17h87bd4d537cf63922E', symObjAddr: 0x3520, symBinAddr: 0x115A40, symSize: 0x20 }
  - { offsetInCU: 0x35AA, offset: 0x553B5A, size: 0x8, addend: 0x0, symName: '__ZN53_$LT$syn..token..Mod$u20$as$u20$syn..token..Token$GT$4peek17h900d5a7aa00fc086E', symObjAddr: 0x3760, symBinAddr: 0x115A60, symSize: 0x20 }
  - { offsetInCU: 0x35E0, offset: 0x553B90, size: 0x8, addend: 0x0, symName: '__ZN63_$LT$syn..token..Move$u20$as$u20$quote..to_tokens..ToTokens$GT$9to_tokens17hadcab21f454dea95E', symObjAddr: 0x37A0, symBinAddr: 0x115A80, symSize: 0x80 }
  - { offsetInCU: 0x3716, offset: 0x553CC6, size: 0x8, addend: 0x0, symName: '__ZN54_$LT$syn..token..Move$u20$as$u20$syn..token..Token$GT$4peek17hd5bfc120a547f5d8E', symObjAddr: 0x3880, symBinAddr: 0x115B00, symSize: 0x20 }
  - { offsetInCU: 0x374C, offset: 0x553CFC, size: 0x8, addend: 0x0, symName: '__ZN53_$LT$syn..token..Mut$u20$as$u20$syn..parse..Parse$GT$5parse17h64eb87b20c591c4bE', symObjAddr: 0x3940, symBinAddr: 0x115B20, symSize: 0x60 }
  - { offsetInCU: 0x37D3, offset: 0x553D83, size: 0x8, addend: 0x0, symName: '__ZN53_$LT$syn..token..Mut$u20$as$u20$syn..token..Token$GT$4peek17h468e412e57d48e2dE', symObjAddr: 0x39A0, symBinAddr: 0x115B80, symSize: 0x20 }
  - { offsetInCU: 0x3809, offset: 0x553DB9, size: 0x8, addend: 0x0, symName: '__ZN53_$LT$syn..token..Ref$u20$as$u20$syn..token..Token$GT$4peek17hf6a89d3c80970251E', symObjAddr: 0x3E20, symBinAddr: 0x115BA0, symSize: 0x20 }
  - { offsetInCU: 0x383F, offset: 0x553DEF, size: 0x8, addend: 0x0, symName: '__ZN58_$LT$syn..token..SelfType$u20$as$u20$syn..token..Token$GT$4peek17h48c5b3c68bc4f6ddE', symObjAddr: 0x4060, symBinAddr: 0x115BC0, symSize: 0x20 }
  - { offsetInCU: 0x3875, offset: 0x553E25, size: 0x8, addend: 0x0, symName: '__ZN59_$LT$syn..token..SelfValue$u20$as$u20$syn..parse..Parse$GT$5parse17h599ea90be910718cE', symObjAddr: 0x4120, symBinAddr: 0x115BE0, symSize: 0x60 }
  - { offsetInCU: 0x38FC, offset: 0x553EAC, size: 0x8, addend: 0x0, symName: '__ZN59_$LT$syn..token..SelfValue$u20$as$u20$syn..token..Token$GT$4peek17h977c80f8bb7263c6E', symObjAddr: 0x4180, symBinAddr: 0x115C40, symSize: 0x20 }
  - { offsetInCU: 0x3932, offset: 0x553EE2, size: 0x8, addend: 0x0, symName: '__ZN56_$LT$syn..token..Static$u20$as$u20$syn..parse..Parse$GT$5parse17hf6715be49cb792c1E', symObjAddr: 0x4240, symBinAddr: 0x115C60, symSize: 0x60 }
  - { offsetInCU: 0x39B9, offset: 0x553F69, size: 0x8, addend: 0x0, symName: '__ZN56_$LT$syn..token..Static$u20$as$u20$syn..token..Token$GT$4peek17hc33d10c74e5d2420E', symObjAddr: 0x42A0, symBinAddr: 0x115CC0, symSize: 0x20 }
  - { offsetInCU: 0x39EF, offset: 0x553F9F, size: 0x8, addend: 0x0, symName: '__ZN56_$LT$syn..token..Struct$u20$as$u20$syn..token..Token$GT$4peek17hc66adbd2d4d075ecE', symObjAddr: 0x43C0, symBinAddr: 0x115CE0, symSize: 0x20 }
  - { offsetInCU: 0x3A25, offset: 0x553FD5, size: 0x8, addend: 0x0, symName: '__ZN55_$LT$syn..token..Super$u20$as$u20$syn..token..Token$GT$4peek17hb0faae556d6a701cE', symObjAddr: 0x44E0, symBinAddr: 0x115D00, symSize: 0x20 }
  - { offsetInCU: 0x3A5B, offset: 0x55400B, size: 0x8, addend: 0x0, symName: '__ZN55_$LT$syn..token..Trait$u20$as$u20$syn..token..Token$GT$4peek17h18da2eeff7308a98E', symObjAddr: 0x4600, symBinAddr: 0x115D20, symSize: 0x20 }
  - { offsetInCU: 0x3A91, offset: 0x554041, size: 0x8, addend: 0x0, symName: '__ZN54_$LT$syn..token..Type$u20$as$u20$syn..token..Token$GT$4peek17h8205f1d24b4cb545E', symObjAddr: 0x4840, symBinAddr: 0x115D40, symSize: 0x20 }
  - { offsetInCU: 0x3AC7, offset: 0x554077, size: 0x8, addend: 0x0, symName: '__ZN55_$LT$syn..token..Union$u20$as$u20$syn..token..Token$GT$4peek17h966de8b349adc97bE', symObjAddr: 0x4A80, symBinAddr: 0x115D60, symSize: 0x20 }
  - { offsetInCU: 0x3AFD, offset: 0x5540AD, size: 0x8, addend: 0x0, symName: '__ZN56_$LT$syn..token..Unsafe$u20$as$u20$syn..parse..Parse$GT$5parse17h484e0b1c0019a7c7E', symObjAddr: 0x4B40, symBinAddr: 0x115D80, symSize: 0x60 }
  - { offsetInCU: 0x3B84, offset: 0x554134, size: 0x8, addend: 0x0, symName: '__ZN56_$LT$syn..token..Unsafe$u20$as$u20$syn..token..Token$GT$4peek17h9a9808380733e7dcE', symObjAddr: 0x4BA0, symBinAddr: 0x115DE0, symSize: 0x20 }
  - { offsetInCU: 0x3BBA, offset: 0x55416A, size: 0x8, addend: 0x0, symName: '__ZN53_$LT$syn..token..Use$u20$as$u20$syn..token..Token$GT$4peek17he04822efc14fd67fE', symObjAddr: 0x4DE0, symBinAddr: 0x115E00, symSize: 0x20 }
  - { offsetInCU: 0x3BF0, offset: 0x5541A0, size: 0x8, addend: 0x0, symName: '__ZN53_$LT$syn..token..Add$u20$as$u20$syn..parse..Parse$GT$5parse17h1dda5a473e9be607E', symObjAddr: 0x52B0, symBinAddr: 0x115E20, symSize: 0xF0 }
  - { offsetInCU: 0x3FDD, offset: 0x55458D, size: 0x8, addend: 0x0, symName: '__ZN55_$LT$syn..token..AddEq$u20$as$u20$syn..parse..Parse$GT$5parse17hd9f523013b43ac1cE', symObjAddr: 0x53F0, symBinAddr: 0x115F10, symSize: 0xF0 }
  - { offsetInCU: 0x442D, offset: 0x5549DD, size: 0x8, addend: 0x0, symName: '__ZN53_$LT$syn..token..And$u20$as$u20$syn..parse..Parse$GT$5parse17h55f93cc54c8ec066E', symObjAddr: 0x5530, symBinAddr: 0x116000, symSize: 0xF0 }
  - { offsetInCU: 0x481A, offset: 0x554DCA, size: 0x8, addend: 0x0, symName: '__ZN53_$LT$syn..token..And$u20$as$u20$syn..token..Token$GT$4peek17he0d708c3bca08a87E', symObjAddr: 0x5620, symBinAddr: 0x1160F0, symSize: 0x20 }
  - { offsetInCU: 0x4850, offset: 0x554E00, size: 0x8, addend: 0x0, symName: '__ZN56_$LT$syn..token..AndAnd$u20$as$u20$syn..parse..Parse$GT$5parse17h08ea561b44634998E', symObjAddr: 0x5670, symBinAddr: 0x116110, symSize: 0xF0 }
  - { offsetInCU: 0x4CA0, offset: 0x555250, size: 0x8, addend: 0x0, symName: '__ZN55_$LT$syn..token..AndEq$u20$as$u20$syn..parse..Parse$GT$5parse17hc149706100d8d362E', symObjAddr: 0x57B0, symBinAddr: 0x116200, symSize: 0xF0 }
  - { offsetInCU: 0x50F0, offset: 0x5556A0, size: 0x8, addend: 0x0, symName: '__ZN52_$LT$syn..token..At$u20$as$u20$syn..parse..Parse$GT$5parse17h1a5d0ac797f8a578E', symObjAddr: 0x58F0, symBinAddr: 0x1162F0, symSize: 0xF0 }
  - { offsetInCU: 0x54DD, offset: 0x555A8D, size: 0x8, addend: 0x0, symName: '__ZN54_$LT$syn..token..Bang$u20$as$u20$syn..parse..Parse$GT$5parse17h30e109aaf2cc2f6eE', symObjAddr: 0x5A30, symBinAddr: 0x1163E0, symSize: 0xF0 }
  - { offsetInCU: 0x58CA, offset: 0x555E7A, size: 0x8, addend: 0x0, symName: '__ZN54_$LT$syn..token..Bang$u20$as$u20$syn..token..Token$GT$4peek17h9a2155dd43324085E', symObjAddr: 0x5B20, symBinAddr: 0x1164D0, symSize: 0x20 }
  - { offsetInCU: 0x5900, offset: 0x555EB0, size: 0x8, addend: 0x0, symName: '__ZN55_$LT$syn..token..Caret$u20$as$u20$syn..parse..Parse$GT$5parse17hb8b88de2ed51e15bE', symObjAddr: 0x5B70, symBinAddr: 0x1164F0, symSize: 0xF0 }
  - { offsetInCU: 0x5CED, offset: 0x55629D, size: 0x8, addend: 0x0, symName: '__ZN57_$LT$syn..token..CaretEq$u20$as$u20$syn..parse..Parse$GT$5parse17h63f026941eec0eabE', symObjAddr: 0x5CB0, symBinAddr: 0x1165E0, symSize: 0xF0 }
  - { offsetInCU: 0x613D, offset: 0x5566ED, size: 0x8, addend: 0x0, symName: '__ZN55_$LT$syn..token..Colon$u20$as$u20$syn..parse..Parse$GT$5parse17h662b8e9ef6fda689E', symObjAddr: 0x5DF0, symBinAddr: 0x1166D0, symSize: 0xF0 }
  - { offsetInCU: 0x652A, offset: 0x556ADA, size: 0x8, addend: 0x0, symName: '__ZN55_$LT$syn..token..Colon$u20$as$u20$syn..token..Token$GT$4peek17h91207a2cea0fedeaE', symObjAddr: 0x5EE0, symBinAddr: 0x1167C0, symSize: 0x20 }
  - { offsetInCU: 0x6560, offset: 0x556B10, size: 0x8, addend: 0x0, symName: '__ZN56_$LT$syn..token..Colon2$u20$as$u20$syn..parse..Parse$GT$5parse17h16bb85b9e7152ff9E', symObjAddr: 0x5F30, symBinAddr: 0x1167E0, symSize: 0xF0 }
  - { offsetInCU: 0x69B0, offset: 0x556F60, size: 0x8, addend: 0x0, symName: '__ZN56_$LT$syn..token..Colon2$u20$as$u20$syn..token..Token$GT$4peek17h0cc65d9c34032667E', symObjAddr: 0x6020, symBinAddr: 0x1168D0, symSize: 0x20 }
  - { offsetInCU: 0x69E6, offset: 0x556F96, size: 0x8, addend: 0x0, symName: '__ZN55_$LT$syn..token..Comma$u20$as$u20$syn..parse..Parse$GT$5parse17h831e301633086efeE', symObjAddr: 0x6070, symBinAddr: 0x1168F0, symSize: 0xF0 }
  - { offsetInCU: 0x6DD3, offset: 0x557383, size: 0x8, addend: 0x0, symName: '__ZN55_$LT$syn..token..Comma$u20$as$u20$syn..token..Token$GT$4peek17h2f704c2cc620ccc4E', symObjAddr: 0x6160, symBinAddr: 0x1169E0, symSize: 0x20 }
  - { offsetInCU: 0x6E09, offset: 0x5573B9, size: 0x8, addend: 0x0, symName: '__ZN53_$LT$syn..token..Div$u20$as$u20$syn..parse..Parse$GT$5parse17ha1af9382269f520cE', symObjAddr: 0x61B0, symBinAddr: 0x116A00, symSize: 0xF0 }
  - { offsetInCU: 0x71F6, offset: 0x5577A6, size: 0x8, addend: 0x0, symName: '__ZN55_$LT$syn..token..DivEq$u20$as$u20$syn..parse..Parse$GT$5parse17hee49103f780697baE', symObjAddr: 0x62F0, symBinAddr: 0x116AF0, symSize: 0xF0 }
  - { offsetInCU: 0x7646, offset: 0x557BF6, size: 0x8, addend: 0x0, symName: '__ZN53_$LT$syn..token..Dot$u20$as$u20$syn..parse..Parse$GT$5parse17h645c53d81704d55dE', symObjAddr: 0x6570, symBinAddr: 0x116BE0, symSize: 0xF0 }
  - { offsetInCU: 0x7A33, offset: 0x557FE3, size: 0x8, addend: 0x0, symName: '__ZN53_$LT$syn..token..Dot$u20$as$u20$syn..token..Token$GT$4peek17hb9226f13159ad3deE', symObjAddr: 0x6660, symBinAddr: 0x116CD0, symSize: 0x20 }
  - { offsetInCU: 0x7A69, offset: 0x558019, size: 0x8, addend: 0x0, symName: '__ZN54_$LT$syn..token..Dot2$u20$as$u20$syn..parse..Parse$GT$5parse17hd6ed967b916ff304E', symObjAddr: 0x66B0, symBinAddr: 0x116CF0, symSize: 0xF0 }
  - { offsetInCU: 0x7EB9, offset: 0x558469, size: 0x8, addend: 0x0, symName: '__ZN54_$LT$syn..token..Dot2$u20$as$u20$syn..token..Token$GT$4peek17h573e64320d27cce6E', symObjAddr: 0x67A0, symBinAddr: 0x116DE0, symSize: 0x20 }
  - { offsetInCU: 0x7EEF, offset: 0x55849F, size: 0x8, addend: 0x0, symName: '__ZN54_$LT$syn..token..Dot3$u20$as$u20$syn..parse..Parse$GT$5parse17h13b325bc7782712aE', symObjAddr: 0x67F0, symBinAddr: 0x116E00, symSize: 0x100 }
  - { offsetInCU: 0x8340, offset: 0x5588F0, size: 0x8, addend: 0x0, symName: '__ZN54_$LT$syn..token..Dot3$u20$as$u20$syn..token..Token$GT$4peek17h41d1dfda94a232cbE', symObjAddr: 0x68F0, symBinAddr: 0x116F00, symSize: 0x20 }
  - { offsetInCU: 0x8376, offset: 0x558926, size: 0x8, addend: 0x0, symName: '__ZN58_$LT$syn..token..DotDotEq$u20$as$u20$syn..parse..Parse$GT$5parse17h2dc13f55f15ad788E', symObjAddr: 0x6940, symBinAddr: 0x116F20, symSize: 0x100 }
  - { offsetInCU: 0x87C7, offset: 0x558D77, size: 0x8, addend: 0x0, symName: '__ZN58_$LT$syn..token..DotDotEq$u20$as$u20$syn..token..Token$GT$4peek17h2ce6a1f5ceb8ec7cE', symObjAddr: 0x6A40, symBinAddr: 0x117020, symSize: 0x20 }
  - { offsetInCU: 0x87FD, offset: 0x558DAD, size: 0x8, addend: 0x0, symName: '__ZN52_$LT$syn..token..Eq$u20$as$u20$syn..parse..Parse$GT$5parse17hf670361ef5401661E', symObjAddr: 0x6A90, symBinAddr: 0x117040, symSize: 0xF0 }
  - { offsetInCU: 0x8BEA, offset: 0x55919A, size: 0x8, addend: 0x0, symName: '__ZN52_$LT$syn..token..Eq$u20$as$u20$syn..token..Token$GT$4peek17h05c22733b5331a7cE', symObjAddr: 0x6B80, symBinAddr: 0x117130, symSize: 0x20 }
  - { offsetInCU: 0x8C20, offset: 0x5591D0, size: 0x8, addend: 0x0, symName: '__ZN54_$LT$syn..token..EqEq$u20$as$u20$syn..parse..Parse$GT$5parse17h204af16177a13672E', symObjAddr: 0x6BD0, symBinAddr: 0x117150, symSize: 0xF0 }
  - { offsetInCU: 0x9070, offset: 0x559620, size: 0x8, addend: 0x0, symName: '__ZN52_$LT$syn..token..Ge$u20$as$u20$syn..parse..Parse$GT$5parse17hfed93823fde8364aE', symObjAddr: 0x6D10, symBinAddr: 0x117240, symSize: 0xF0 }
  - { offsetInCU: 0x94C0, offset: 0x559A70, size: 0x8, addend: 0x0, symName: '__ZN52_$LT$syn..token..Gt$u20$as$u20$syn..parse..Parse$GT$5parse17hf5a84a9a6a694d11E', symObjAddr: 0x6E50, symBinAddr: 0x117330, symSize: 0xF0 }
  - { offsetInCU: 0x98AD, offset: 0x559E5D, size: 0x8, addend: 0x0, symName: '__ZN52_$LT$syn..token..Gt$u20$as$u20$syn..token..Token$GT$4peek17h98356010add60e42E', symObjAddr: 0x6F40, symBinAddr: 0x117420, symSize: 0x20 }
  - { offsetInCU: 0x98E3, offset: 0x559E93, size: 0x8, addend: 0x0, symName: '__ZN52_$LT$syn..token..Le$u20$as$u20$syn..parse..Parse$GT$5parse17hfb9cc07368390e04E', symObjAddr: 0x6F90, symBinAddr: 0x117440, symSize: 0xF0 }
  - { offsetInCU: 0x9D33, offset: 0x55A2E3, size: 0x8, addend: 0x0, symName: '__ZN52_$LT$syn..token..Lt$u20$as$u20$syn..parse..Parse$GT$5parse17he57e541ef90bd84cE', symObjAddr: 0x70D0, symBinAddr: 0x117530, symSize: 0xF0 }
  - { offsetInCU: 0xA120, offset: 0x55A6D0, size: 0x8, addend: 0x0, symName: '__ZN52_$LT$syn..token..Lt$u20$as$u20$syn..token..Token$GT$4peek17haf82e8207765aaa4E', symObjAddr: 0x71C0, symBinAddr: 0x117620, symSize: 0x20 }
  - { offsetInCU: 0xA156, offset: 0x55A706, size: 0x8, addend: 0x0, symName: '__ZN55_$LT$syn..token..MulEq$u20$as$u20$syn..parse..Parse$GT$5parse17h51ad66f694e37bcaE', symObjAddr: 0x7210, symBinAddr: 0x117640, symSize: 0xF0 }
  - { offsetInCU: 0xA5A6, offset: 0x55AB56, size: 0x8, addend: 0x0, symName: '__ZN52_$LT$syn..token..Ne$u20$as$u20$syn..parse..Parse$GT$5parse17h57464c88099918f5E', symObjAddr: 0x7350, symBinAddr: 0x117730, symSize: 0xF0 }
  - { offsetInCU: 0xA9F6, offset: 0x55AFA6, size: 0x8, addend: 0x0, symName: '__ZN52_$LT$syn..token..Or$u20$as$u20$syn..parse..Parse$GT$5parse17h588c16379aa53707E', symObjAddr: 0x7490, symBinAddr: 0x117820, symSize: 0xF0 }
  - { offsetInCU: 0xADE3, offset: 0x55B393, size: 0x8, addend: 0x0, symName: '__ZN52_$LT$syn..token..Or$u20$as$u20$syn..token..Token$GT$4peek17h30c14b3683f882b2E', symObjAddr: 0x7580, symBinAddr: 0x117910, symSize: 0x20 }
  - { offsetInCU: 0xAE19, offset: 0x55B3C9, size: 0x8, addend: 0x0, symName: '__ZN54_$LT$syn..token..OrEq$u20$as$u20$syn..parse..Parse$GT$5parse17hb3e6ce79f9aa8136E', symObjAddr: 0x75D0, symBinAddr: 0x117930, symSize: 0xF0 }
  - { offsetInCU: 0xB269, offset: 0x55B819, size: 0x8, addend: 0x0, symName: '__ZN54_$LT$syn..token..OrOr$u20$as$u20$syn..parse..Parse$GT$5parse17h86a9c8a1cdffb373E', symObjAddr: 0x7710, symBinAddr: 0x117A20, symSize: 0xF0 }
  - { offsetInCU: 0xB6B9, offset: 0x55BC69, size: 0x8, addend: 0x0, symName: '__ZN55_$LT$syn..token..Pound$u20$as$u20$syn..parse..Parse$GT$5parse17h3d6f7658c2ba179fE', symObjAddr: 0x7850, symBinAddr: 0x117B10, symSize: 0xF0 }
  - { offsetInCU: 0xBAA6, offset: 0x55C056, size: 0x8, addend: 0x0, symName: '__ZN55_$LT$syn..token..Pound$u20$as$u20$syn..token..Token$GT$4peek17h5b4b210b91548700E', symObjAddr: 0x7940, symBinAddr: 0x117C00, symSize: 0x20 }
  - { offsetInCU: 0xBADC, offset: 0x55C08C, size: 0x8, addend: 0x0, symName: '__ZN58_$LT$syn..token..Question$u20$as$u20$syn..parse..Parse$GT$5parse17h91bf3e414f5a6551E', symObjAddr: 0x7990, symBinAddr: 0x117C20, symSize: 0xF0 }
  - { offsetInCU: 0xBEC9, offset: 0x55C479, size: 0x8, addend: 0x0, symName: '__ZN58_$LT$syn..token..Question$u20$as$u20$syn..token..Token$GT$4peek17h4419ac6afbb9beb2E', symObjAddr: 0x7A80, symBinAddr: 0x117D10, symSize: 0x20 }
  - { offsetInCU: 0xBEFF, offset: 0x55C4AF, size: 0x8, addend: 0x0, symName: '__ZN56_$LT$syn..token..RArrow$u20$as$u20$syn..parse..Parse$GT$5parse17hd4db42c362da45f6E', symObjAddr: 0x7AD0, symBinAddr: 0x117D30, symSize: 0xF0 }
  - { offsetInCU: 0xC34F, offset: 0x55C8FF, size: 0x8, addend: 0x0, symName: '__ZN53_$LT$syn..token..Rem$u20$as$u20$syn..parse..Parse$GT$5parse17h3f49caa3c53e0c4aE', symObjAddr: 0x7D50, symBinAddr: 0x117E20, symSize: 0xF0 }
  - { offsetInCU: 0xC73C, offset: 0x55CCEC, size: 0x8, addend: 0x0, symName: '__ZN55_$LT$syn..token..RemEq$u20$as$u20$syn..parse..Parse$GT$5parse17h58fd9d0bcbd6933eE', symObjAddr: 0x7E90, symBinAddr: 0x117F10, symSize: 0xF0 }
  - { offsetInCU: 0xCB8C, offset: 0x55D13C, size: 0x8, addend: 0x0, symName: '__ZN58_$LT$syn..token..FatArrow$u20$as$u20$syn..parse..Parse$GT$5parse17he89db532ff09a67bE', symObjAddr: 0x7FD0, symBinAddr: 0x118000, symSize: 0xF0 }
  - { offsetInCU: 0xCFDC, offset: 0x55D58C, size: 0x8, addend: 0x0, symName: '__ZN54_$LT$syn..token..Semi$u20$as$u20$syn..parse..Parse$GT$5parse17hb74ddd1bf271ceb8E', symObjAddr: 0x8110, symBinAddr: 0x1180F0, symSize: 0xF0 }
  - { offsetInCU: 0xD3C9, offset: 0x55D979, size: 0x8, addend: 0x0, symName: '__ZN54_$LT$syn..token..Semi$u20$as$u20$syn..token..Token$GT$4peek17h04a09e27e4939dadE', symObjAddr: 0x8200, symBinAddr: 0x1181E0, symSize: 0x20 }
  - { offsetInCU: 0xD3FF, offset: 0x55D9AF, size: 0x8, addend: 0x0, symName: '__ZN53_$LT$syn..token..Shl$u20$as$u20$syn..parse..Parse$GT$5parse17hc76f0d624281ae34E', symObjAddr: 0x8250, symBinAddr: 0x118200, symSize: 0xF0 }
  - { offsetInCU: 0xD84F, offset: 0x55DDFF, size: 0x8, addend: 0x0, symName: '__ZN55_$LT$syn..token..ShlEq$u20$as$u20$syn..parse..Parse$GT$5parse17h981982885f868d4dE', symObjAddr: 0x8390, symBinAddr: 0x1182F0, symSize: 0x100 }
  - { offsetInCU: 0xDCA0, offset: 0x55E250, size: 0x8, addend: 0x0, symName: '__ZN53_$LT$syn..token..Shr$u20$as$u20$syn..parse..Parse$GT$5parse17h657b3cc0e355fadaE', symObjAddr: 0x84E0, symBinAddr: 0x1183F0, symSize: 0xF0 }
  - { offsetInCU: 0xE0F0, offset: 0x55E6A0, size: 0x8, addend: 0x0, symName: '__ZN55_$LT$syn..token..ShrEq$u20$as$u20$syn..parse..Parse$GT$5parse17h29381819b3c034f9E', symObjAddr: 0x8620, symBinAddr: 0x1184E0, symSize: 0x100 }
  - { offsetInCU: 0xE541, offset: 0x55EAF1, size: 0x8, addend: 0x0, symName: '__ZN54_$LT$syn..token..Star$u20$as$u20$syn..parse..Parse$GT$5parse17he445204c6f6147b2E', symObjAddr: 0x8770, symBinAddr: 0x1185E0, symSize: 0xF0 }
  - { offsetInCU: 0xE92E, offset: 0x55EEDE, size: 0x8, addend: 0x0, symName: '__ZN54_$LT$syn..token..Star$u20$as$u20$syn..token..Token$GT$4peek17h9ae594d0c59c0616E', symObjAddr: 0x8860, symBinAddr: 0x1186D0, symSize: 0x20 }
  - { offsetInCU: 0xE964, offset: 0x55EF14, size: 0x8, addend: 0x0, symName: '__ZN53_$LT$syn..token..Sub$u20$as$u20$syn..parse..Parse$GT$5parse17hc24d7efe68285f8cE', symObjAddr: 0x88B0, symBinAddr: 0x1186F0, symSize: 0xF0 }
  - { offsetInCU: 0xED51, offset: 0x55F301, size: 0x8, addend: 0x0, symName: '__ZN53_$LT$syn..token..Sub$u20$as$u20$syn..token..Token$GT$4peek17h78e2cdadf59b7658E', symObjAddr: 0x89A0, symBinAddr: 0x1187E0, symSize: 0x20 }
  - { offsetInCU: 0xED87, offset: 0x55F337, size: 0x8, addend: 0x0, symName: '__ZN55_$LT$syn..token..SubEq$u20$as$u20$syn..parse..Parse$GT$5parse17hdce11e191eed7488E', symObjAddr: 0x89F0, symBinAddr: 0x118800, symSize: 0xF0 }
  - { offsetInCU: 0xF1D7, offset: 0x55F787, size: 0x8, addend: 0x0, symName: '__ZN55_$LT$syn..token..Tilde$u20$as$u20$syn..parse..Parse$GT$5parse17hc34dc7972cbf05b8E', symObjAddr: 0x8B30, symBinAddr: 0x1188F0, symSize: 0xF0 }
  - { offsetInCU: 0x10D41, offset: 0x5612F1, size: 0x8, addend: 0x0, symName: '__ZN4core3ptr44drop_in_place$LT$syn..parse..ParseBuffer$GT$17h19c266fcccc430cbE.llvm.10394053633799031531', symObjAddr: 0x790, symBinAddr: 0x114CE0, symSize: 0x70 }
  - { offsetInCU: 0x1E, offset: 0x56707E, size: 0x8, addend: 0x0, symName: '__ZN4core3ptr100drop_in_place$LT$core..option..Option$LT$alloc..boxed..Box$LT$syn..generics..LifetimeDef$GT$$GT$$GT$17h75a6086997697dd7E', symObjAddr: 0x0, symBinAddr: 0x1189E0, symSize: 0x150 }
  - { offsetInCU: 0x9CB, offset: 0x567A2B, size: 0x8, addend: 0x0, symName: '__ZN4core3ptr100drop_in_place$LT$core..option..Option$LT$alloc..boxed..Box$LT$syn..generics..LifetimeDef$GT$$GT$$GT$17h75a6086997697dd7E', symObjAddr: 0x0, symBinAddr: 0x1189E0, symSize: 0x150 }
  - { offsetInCU: 0xF47, offset: 0x567FA7, size: 0x8, addend: 0x0, symName: '__ZN4core3ptr100drop_in_place$LT$core..option..Option$LT$alloc..boxed..Box$LT$syn..path..GenericArgument$GT$$GT$$GT$17h3d29ec00a8f1918dE', symObjAddr: 0x150, symBinAddr: 0x118B30, symSize: 0x50 }
  - { offsetInCU: 0x1114, offset: 0x568174, size: 0x8, addend: 0x0, symName: '__ZN4core3ptr103drop_in_place$LT$core..option..Option$LT$alloc..boxed..Box$LT$syn..generics..TypeParamBound$GT$$GT$$GT$17h6cee73bc2b2ecea8E', symObjAddr: 0x1A0, symBinAddr: 0x118B80, symSize: 0x90 }
  - { offsetInCU: 0x1489, offset: 0x5684E9, size: 0x8, addend: 0x0, symName: '__ZN4core3ptr103drop_in_place$LT$syn..punctuated..Punctuated$LT$syn..generics..TypeParamBound$C$syn..token..Add$GT$$GT$17he811d520c92af08aE', symObjAddr: 0x230, symBinAddr: 0x118C10, symSize: 0x1C0 }
  - { offsetInCU: 0x1CDA, offset: 0x568D3A, size: 0x8, addend: 0x0, symName: '__ZN4core3ptr108drop_in_place$LT$syn..punctuated..Punctuated$LT$syn..expr..GenericMethodArgument$C$syn..token..Comma$GT$$GT$17h92cbabe4862b2183E', symObjAddr: 0x3F0, symBinAddr: 0x118DD0, symSize: 0x150 }
  - { offsetInCU: 0x2233, offset: 0x569293, size: 0x8, addend: 0x0, symName: '__ZN4core3ptr34drop_in_place$LT$syn..lit..Lit$GT$17hbe1efe749a08dd9aE', symObjAddr: 0x540, symBinAddr: 0x118F20, symSize: 0x110 }
  - { offsetInCU: 0x26A5, offset: 0x569705, size: 0x8, addend: 0x0, symName: '__ZN4core3ptr34drop_in_place$LT$syn..pat..Pat$GT$17h3201f642e43ac2a2E', symObjAddr: 0x650, symBinAddr: 0x119030, symSize: 0x1190 }
  - { offsetInCU: 0x640B, offset: 0x56D46B, size: 0x8, addend: 0x0, symName: '__ZN4core3ptr34drop_in_place$LT$syn..ty..Type$GT$17hfb5d159a08190130E', symObjAddr: 0x17E0, symBinAddr: 0x11A1C0, symSize: 0x360 }
  - { offsetInCU: 0x7380, offset: 0x56E3E0, size: 0x8, addend: 0x0, symName: '__ZN4core3ptr36drop_in_place$LT$syn..expr..Expr$GT$17hf1921d1b09462bc3E', symObjAddr: 0x1B40, symBinAddr: 0x11A520, symSize: 0x3290 }
  - { offsetInCU: 0x11C11, offset: 0x578C71, size: 0x8, addend: 0x0, symName: '__ZN4core3ptr36drop_in_place$LT$syn..mac..Macro$GT$17h205613d7ad575f72E', symObjAddr: 0x4DD0, symBinAddr: 0x11D7B0, symSize: 0x40 }
  - { offsetInCU: 0x11D62, offset: 0x578DC2, size: 0x8, addend: 0x0, symName: '__ZN4core3ptr36drop_in_place$LT$syn..path..Path$GT$17he6d0bec66d66b98aE', symObjAddr: 0x4E10, symBinAddr: 0x11D7F0, symSize: 0x230 }
  - { offsetInCU: 0x126F8, offset: 0x579758, size: 0x8, addend: 0x0, symName: '__ZN4core3ptr37drop_in_place$LT$syn..stmt..Block$GT$17h3aa429e75a234230E', symObjAddr: 0x5040, symBinAddr: 0x11DA20, symSize: 0xD0 }
  - { offsetInCU: 0x129CF, offset: 0x579A2F, size: 0x8, addend: 0x0, symName: '__ZN4core3ptr38drop_in_place$LT$syn..expr..Member$GT$17ha113d37a67d27aafE', symObjAddr: 0x5110, symBinAddr: 0x11DAF0, symSize: 0x30 }
  - { offsetInCU: 0x12ACB, offset: 0x579B2B, size: 0x8, addend: 0x0, symName: '__ZN4core3ptr38drop_in_place$LT$syn..ty..TypePath$GT$17hee875f09231160b9E', symObjAddr: 0x5140, symBinAddr: 0x11DB20, symSize: 0x70 }
  - { offsetInCU: 0x12C48, offset: 0x579CA8, size: 0x8, addend: 0x0, symName: '__ZN4core3ptr39drop_in_place$LT$proc_macro2..Ident$GT$17hdeec010483268a0dE', symObjAddr: 0x51B0, symBinAddr: 0x11DB90, symSize: 0x30 }
  - { offsetInCU: 0x12D25, offset: 0x579D85, size: 0x8, addend: 0x0, symName: '__ZN4core3ptr39drop_in_place$LT$syn..pat..PatTuple$GT$17h96faeea9832d4c4bE', symObjAddr: 0x51E0, symBinAddr: 0x11DBC0, symSize: 0x100 }
  - { offsetInCU: 0x1306C, offset: 0x57A0CC, size: 0x8, addend: 0x0, symName: '__ZN4core3ptr39drop_in_place$LT$syn..ty..BareFnArg$GT$17hed52ce54f3b53a34E', symObjAddr: 0x52E0, symBinAddr: 0x11DCC0, symSize: 0x140 }
  - { offsetInCU: 0x1349C, offset: 0x57A4FC, size: 0x8, addend: 0x0, symName: '__ZN4core3ptr40drop_in_place$LT$syn..ty..ReturnType$GT$17h6f97c9fdb958983eE', symObjAddr: 0x5420, symBinAddr: 0x11DE00, symSize: 0x50 }
  - { offsetInCU: 0x1379F, offset: 0x57A7FF, size: 0x8, addend: 0x0, symName: '__ZN4core3ptr40drop_in_place$LT$syn..ty..TypeBareFn$GT$17h1010a3edced8ab67E', symObjAddr: 0x5470, symBinAddr: 0x11DE50, symSize: 0x2F0 }
  - { offsetInCU: 0x1454D, offset: 0x57B5AD, size: 0x8, addend: 0x0, symName: '__ZN4core3ptr43drop_in_place$LT$proc_macro2..TokenTree$GT$17h7270f34cee6d919dE', symObjAddr: 0x5760, symBinAddr: 0x11E140, symSize: 0xB0 }
  - { offsetInCU: 0x148A8, offset: 0x57B908, size: 0x8, addend: 0x0, symName: '__ZN4core3ptr44drop_in_place$LT$syn..lifetime..Lifetime$GT$17h3858225df033648aE', symObjAddr: 0x5810, symBinAddr: 0x11E1F0, symSize: 0x30 }
  - { offsetInCU: 0x14A20, offset: 0x57BA80, size: 0x8, addend: 0x0, symName: '__ZN4core3ptr44drop_in_place$LT$syn..parse..ParseBuffer$GT$17h19c266fcccc430cbE', symObjAddr: 0x5840, symBinAddr: 0x11E220, symSize: 0x70 }
  - { offsetInCU: 0x14D9C, offset: 0x57BDFC, size: 0x8, addend: 0x0, symName: '__ZN4core3ptr45drop_in_place$LT$proc_macro2..TokenStream$GT$17h2507cb30e765dc85E', symObjAddr: 0x58B0, symBinAddr: 0x11E290, symSize: 0x140 }
  - { offsetInCU: 0x15217, offset: 0x57C277, size: 0x8, addend: 0x0, symName: '__ZN4core3ptr45drop_in_place$LT$syn..path..PathArguments$GT$17h9dd953520dcdc907E', symObjAddr: 0x59F0, symBinAddr: 0x11E3D0, symSize: 0x170 }
  - { offsetInCU: 0x15702, offset: 0x57C762, size: 0x8, addend: 0x0, symName: '__ZN4core3ptr47drop_in_place$LT$syn..path..GenericArgument$GT$17h8c0a0d8c6deaefb4E', symObjAddr: 0x5B60, symBinAddr: 0x11E540, symSize: 0x110 }
  - { offsetInCU: 0x15A1D, offset: 0x57CA7D, size: 0x8, addend: 0x0, symName: '__ZN4core3ptr58drop_in_place$LT$alloc..vec..Vec$LT$syn..expr..Arm$GT$$GT$17hf3db0825f3d9c861E', symObjAddr: 0x5C70, symBinAddr: 0x11E650, symSize: 0xD0 }
  - { offsetInCU: 0x15CDD, offset: 0x57CD3D, size: 0x8, addend: 0x0, symName: '__ZN4core3ptr59drop_in_place$LT$alloc..boxed..Box$LT$syn..pat..Pat$GT$$GT$17h7037ce9bbd3729c6E', symObjAddr: 0x5D40, symBinAddr: 0x11E720, symSize: 0x50 }
  - { offsetInCU: 0x15E36, offset: 0x57CE96, size: 0x8, addend: 0x0, symName: '__ZN4core3ptr59drop_in_place$LT$alloc..boxed..Box$LT$syn..ty..Type$GT$$GT$17h2eccd13329dbe4faE', symObjAddr: 0x5D90, symBinAddr: 0x11E770, symSize: 0x50 }
  - { offsetInCU: 0x15F8F, offset: 0x57CFEF, size: 0x8, addend: 0x0, symName: '__ZN4core3ptr61drop_in_place$LT$alloc..boxed..Box$LT$syn..expr..Expr$GT$$GT$17h66094ddc89015516E', symObjAddr: 0x5DE0, symBinAddr: 0x11E7C0, symSize: 0x50 }
  - { offsetInCU: 0x16164, offset: 0x57D1C4, size: 0x8, addend: 0x0, symName: '__ZN4core3ptr61drop_in_place$LT$syn..path..ParenthesizedGenericArguments$GT$17h21be9b1d7a6fab55E', symObjAddr: 0x5E30, symBinAddr: 0x11E810, symSize: 0x170 }
  - { offsetInCU: 0x1675A, offset: 0x57D7BA, size: 0x8, addend: 0x0, symName: '__ZN4core3ptr63drop_in_place$LT$alloc..boxed..Box$LT$syn..lit..LitRepr$GT$$GT$17h9c509b794406150eE', symObjAddr: 0x5FA0, symBinAddr: 0x11E980, symSize: 0x60 }
  - { offsetInCU: 0x16A61, offset: 0x57DAC1, size: 0x8, addend: 0x0, symName: '__ZN4core3ptr64drop_in_place$LT$alloc..boxed..Box$LT$syn..pat..FieldPat$GT$$GT$17hb167b355d0d4733fE', symObjAddr: 0x6000, symBinAddr: 0x11E9E0, symSize: 0x180 }
  - { offsetInCU: 0x17140, offset: 0x57E1A0, size: 0x8, addend: 0x0, symName: '__ZN4core3ptr64drop_in_place$LT$alloc..boxed..Box$LT$syn..ty..BareFnArg$GT$$GT$17h6488be9448346678E', symObjAddr: 0x6180, symBinAddr: 0x11EB60, symSize: 0x160 }
  - { offsetInCU: 0x176C3, offset: 0x57E723, size: 0x8, addend: 0x0, symName: '__ZN4core3ptr64drop_in_place$LT$alloc..vec..Vec$LT$syn..attr..Attribute$GT$$GT$17h386324d8ea9bc309E', symObjAddr: 0x62E0, symBinAddr: 0x11ECC0, symSize: 0xF0 }
  - { offsetInCU: 0x179B9, offset: 0x57EA19, size: 0x8, addend: 0x0, symName: '__ZN4core3ptr65drop_in_place$LT$alloc..vec..Vec$LT$proc_macro..TokenTree$GT$$GT$17hc3670dd5608d5259E', symObjAddr: 0x63D0, symBinAddr: 0x11EDB0, symSize: 0x110 }
  - { offsetInCU: 0x17DB1, offset: 0x57EE11, size: 0x8, addend: 0x0, symName: '__ZN4core3ptr65drop_in_place$LT$core..option..Option$LT$syn..expr..Label$GT$$GT$17ha723640fd01bec5dE', symObjAddr: 0x64E0, symBinAddr: 0x11EEC0, symSize: 0x30 }
  - { offsetInCU: 0x17EEB, offset: 0x57EF4B, size: 0x8, addend: 0x0, symName: '__ZN4core3ptr65drop_in_place$LT$core..option..Option$LT$syn..path..QSelf$GT$$GT$17h213ca1c3399df9f2E', symObjAddr: 0x6510, symBinAddr: 0x11EEF0, symSize: 0x50 }
  - { offsetInCU: 0x1806C, offset: 0x57F0CC, size: 0x8, addend: 0x0, symName: '__ZN4core3ptr66drop_in_place$LT$core..option..Option$LT$syn..ty..Variadic$GT$$GT$17hc32134bb3933b0dfE', symObjAddr: 0x6560, symBinAddr: 0x11EF40, symSize: 0xF0 }
  - { offsetInCU: 0x18396, offset: 0x57F3F6, size: 0x8, addend: 0x0, symName: '__ZN4core3ptr67drop_in_place$LT$alloc..boxed..Box$LT$syn..expr..FieldValue$GT$$GT$17h8df780aa600ea8c2E', symObjAddr: 0x6650, symBinAddr: 0x11F030, symSize: 0x160 }
  - { offsetInCU: 0x1890C, offset: 0x57F96C, size: 0x8, addend: 0x0, symName: '__ZN4core3ptr68drop_in_place$LT$alloc..boxed..Box$LT$syn..path..PathSegment$GT$$GT$17h1957b54eed39c0bbE', symObjAddr: 0x67B0, symBinAddr: 0x11F190, symSize: 0x190 }
  - { offsetInCU: 0x19035, offset: 0x580095, size: 0x8, addend: 0x0, symName: '__ZN4core3ptr72drop_in_place$LT$alloc..boxed..Box$LT$syn..path..GenericArgument$GT$$GT$17ha8f8136d0c2b505bE', symObjAddr: 0x6940, symBinAddr: 0x11F320, symSize: 0x180 }
  - { offsetInCU: 0x196D5, offset: 0x580735, size: 0x8, addend: 0x0, symName: '__ZN4core3ptr72drop_in_place$LT$core..option..Option$LT$syn..lifetime..Lifetime$GT$$GT$17h31b55b93749c174dE', symObjAddr: 0x6AC0, symBinAddr: 0x11F4A0, symSize: 0x30 }
  - { offsetInCU: 0x197F0, offset: 0x580850, size: 0x8, addend: 0x0, symName: '__ZN4core3ptr75drop_in_place$LT$alloc..boxed..Box$LT$syn..generics..TypeParamBound$GT$$GT$17h8f156ce07ea0b8b2E', symObjAddr: 0x6AF0, symBinAddr: 0x11F4D0, symSize: 0x140 }
  - { offsetInCU: 0x19D4B, offset: 0x580DAB, size: 0x8, addend: 0x0, symName: '__ZN4core3ptr78drop_in_place$LT$alloc..boxed..Box$LT$syn..expr..GenericMethodArgument$GT$$GT$17h3384c00b5bd54c2aE', symObjAddr: 0x6C30, symBinAddr: 0x11F610, symSize: 0x60 }
  - { offsetInCU: 0x19F3D, offset: 0x580F9D, size: 0x8, addend: 0x0, symName: '__ZN4core3ptr78drop_in_place$LT$core..option..Option$LT$syn..generics..BoundLifetimes$GT$$GT$17h8175e66ad0c4a156E', symObjAddr: 0x6C90, symBinAddr: 0x11F670, symSize: 0xE0 }
  - { offsetInCU: 0x1A2BA, offset: 0x58131A, size: 0x8, addend: 0x0, symName: '__ZN4core3ptr86drop_in_place$LT$syn..punctuated..Punctuated$LT$syn..pat..Pat$C$syn..token..Or$GT$$GT$17h1078c5d178d382b7E', symObjAddr: 0x6D70, symBinAddr: 0x11F750, symSize: 0x120 }
  - { offsetInCU: 0x1A735, offset: 0x581795, size: 0x8, addend: 0x0, symName: '__ZN4core3ptr87drop_in_place$LT$core..option..Option$LT$alloc..boxed..Box$LT$syn..pat..Pat$GT$$GT$$GT$17ha7f5fe0e6f73e820E', symObjAddr: 0x6E90, symBinAddr: 0x11F870, symSize: 0x50 }
  - { offsetInCU: 0x1A8A5, offset: 0x581905, size: 0x8, addend: 0x0, symName: '__ZN4core3ptr87drop_in_place$LT$core..option..Option$LT$alloc..boxed..Box$LT$syn..ty..Type$GT$$GT$$GT$17hc8292da82d129de3E', symObjAddr: 0x6EE0, symBinAddr: 0x11F8C0, symSize: 0x50 }
  - { offsetInCU: 0x1AA15, offset: 0x581A75, size: 0x8, addend: 0x0, symName: '__ZN4core3ptr89drop_in_place$LT$core..option..Option$LT$alloc..boxed..Box$LT$syn..expr..Expr$GT$$GT$$GT$17hdc211ccd33f196f2E', symObjAddr: 0x6F30, symBinAddr: 0x11F910, symSize: 0x50 }
  - { offsetInCU: 0x1ABC3, offset: 0x581C23, size: 0x8, addend: 0x0, symName: '__ZN4core3ptr89drop_in_place$LT$syn..punctuated..Punctuated$LT$syn..pat..Pat$C$syn..token..Comma$GT$$GT$17hf8371102b0500adcE', symObjAddr: 0x6F80, symBinAddr: 0x11F960, symSize: 0x120 }
  - { offsetInCU: 0x1B055, offset: 0x5820B5, size: 0x8, addend: 0x0, symName: '__ZN4core3ptr89drop_in_place$LT$syn..punctuated..Punctuated$LT$syn..ty..Type$C$syn..token..Comma$GT$$GT$17h1c6e43341fabea97E', symObjAddr: 0x70A0, symBinAddr: 0x11FA80, symSize: 0x120 }
  - { offsetInCU: 0x1B50E, offset: 0x58256E, size: 0x8, addend: 0x0, symName: '__ZN4core3ptr91drop_in_place$LT$syn..punctuated..Punctuated$LT$syn..expr..Expr$C$syn..token..Comma$GT$$GT$17hd2dfeb0c522d9a18E', symObjAddr: 0x71C0, symBinAddr: 0x11FBA0, symSize: 0x120 }
  - { offsetInCU: 0x1B99C, offset: 0x5829FC, size: 0x8, addend: 0x0, symName: '__ZN4core3ptr92drop_in_place$LT$core..option..Option$LT$alloc..boxed..Box$LT$syn..ty..BareFnArg$GT$$GT$$GT$17h2b57ab7ac835f762E', symObjAddr: 0x72E0, symBinAddr: 0x11FCC0, symSize: 0x50 }
  - { offsetInCU: 0x1BB0C, offset: 0x582B6C, size: 0x8, addend: 0x0, symName: '__ZN4core3ptr94drop_in_place$LT$syn..punctuated..Punctuated$LT$syn..pat..FieldPat$C$syn..token..Comma$GT$$GT$17h612cbc9066d5afb1E', symObjAddr: 0x7330, symBinAddr: 0x11FD10, symSize: 0xF0 }
  - { offsetInCU: 0x1BE0B, offset: 0x582E6B, size: 0x8, addend: 0x0, symName: '__ZN4core3ptr94drop_in_place$LT$syn..punctuated..Punctuated$LT$syn..ty..BareFnArg$C$syn..token..Comma$GT$$GT$17ha9a668ce9972795bE', symObjAddr: 0x7420, symBinAddr: 0x11FE00, symSize: 0xF0 }
  - { offsetInCU: 0x1C108, offset: 0x583168, size: 0x8, addend: 0x0, symName: '__ZN4core3ptr96drop_in_place$LT$core..option..Option$LT$alloc..boxed..Box$LT$syn..path..PathSegment$GT$$GT$$GT$17h2e81cbe3c70bb71cE', symObjAddr: 0x7510, symBinAddr: 0x11FEF0, symSize: 0x180 }
  - { offsetInCU: 0x1C7C5, offset: 0x583825, size: 0x8, addend: 0x0, symName: '__ZN4core3ptr97drop_in_place$LT$syn..punctuated..Punctuated$LT$syn..expr..FieldValue$C$syn..token..Comma$GT$$GT$17h11a5fffb46adfb11E', symObjAddr: 0x7690, symBinAddr: 0x120070, symSize: 0xF0 }
  - { offsetInCU: 0x1CB3E, offset: 0x583B9E, size: 0x8, addend: 0x0, symName: '__ZN4core3ptr97drop_in_place$LT$syn..punctuated..Punctuated$LT$syn..lifetime..Lifetime$C$syn..token..Add$GT$$GT$17h5c54dea2c838d109E', symObjAddr: 0x7780, symBinAddr: 0x120160, symSize: 0xD0 }
  - { offsetInCU: 0x1CFB2, offset: 0x584012, size: 0x8, addend: 0x0, symName: '__ZN4core3ptr99drop_in_place$LT$syn..punctuated..Punctuated$LT$syn..path..PathSegment$C$syn..token..Colon2$GT$$GT$17hb961e4d7989a33ceE', symObjAddr: 0x7850, symBinAddr: 0x120230, symSize: 0x140 }
  - { offsetInCU: 0x20C7A, offset: 0x587CDA, size: 0x8, addend: 0x0, symName: __ZN5alloc5alloc15exchange_malloc17h9a87608d0224859dE, symObjAddr: 0x7990, symBinAddr: 0x120370, symSize: 0x40 }
  - { offsetInCU: 0x20FC5, offset: 0x588025, size: 0x8, addend: 0x0, symName: __ZN3syn2ty7parsing8ambig_ty17h2f1b8039981072ecE, symObjAddr: 0x79D0, symBinAddr: 0x1203B0, symSize: 0x3E30 }
  - { offsetInCU: 0x2AAB3, offset: 0x591B13, size: 0x8, addend: 0x0, symName: __ZN3syn2ty7parsing13parse_bare_fn17h80d317b9b25c1545E, symObjAddr: 0xB800, symBinAddr: 0x1241E0, symSize: 0x1020 }
  - { offsetInCU: 0x2C64F, offset: 0x5936AF, size: 0x8, addend: 0x0, symName: __ZN3syn2ty7parsing17parse_bare_fn_arg17hdc78aa118c86362cE, symObjAddr: 0xC820, symBinAddr: 0x125200, symSize: 0x1074 }
  - { offsetInCU: 0x11A0, offset: 0x5A9F3E, size: 0x8, addend: 0x0, symName: '__ZN3syn4path8printing79_$LT$impl$u20$quote..to_tokens..ToTokens$u20$for$u20$syn..path..PathSegment$GT$9to_tokens17h5780093d5322a054E', symObjAddr: 0xAD90, symBinAddr: 0x130620, symSize: 0xB0 }
  - { offsetInCU: 0x13F7, offset: 0x5AA195, size: 0x8, addend: 0x0, symName: '__ZN3syn4path8printing83_$LT$impl$u20$quote..to_tokens..ToTokens$u20$for$u20$syn..path..GenericArgument$GT$9to_tokens17he2f471d37de2478bE', symObjAddr: 0xAEE0, symBinAddr: 0x1306D0, symSize: 0x1B0 }
  - { offsetInCU: 0x180A, offset: 0x5AA5A8, size: 0x8, addend: 0x0, symName: '__ZN3syn4path8printing98_$LT$impl$u20$quote..to_tokens..ToTokens$u20$for$u20$syn..path..AngleBracketedGenericArguments$GT$9to_tokens17h32f87affd9416c73E', symObjAddr: 0xB090, symBinAddr: 0x130880, symSize: 0x1F0 }
  - { offsetInCU: 0x1FAD, offset: 0x5AAD4B, size: 0x8, addend: 0x0, symName: '__ZN64_$LT$syn..path..Path$u20$as$u20$core..convert..From$LT$T$GT$$GT$4from17h30da9cf1d495a6b9E', symObjAddr: 0x7E50, symBinAddr: 0x12D980, symSize: 0xD0 }
  - { offsetInCU: 0x207B, offset: 0x5AAE19, size: 0x8, addend: 0x0, symName: '__ZN64_$LT$syn..path..Path$u20$as$u20$core..convert..From$LT$T$GT$$GT$4from17h73328aa137b29f75E', symObjAddr: 0x7F20, symBinAddr: 0x12DA50, symSize: 0xC0 }
  - { offsetInCU: 0x2115, offset: 0x5AAEB3, size: 0x8, addend: 0x0, symName: '__ZN3syn4path7parsing74_$LT$impl$u20$syn..parse..Parse$u20$for$u20$syn..path..GenericArgument$GT$5parse17h441792ad5874dae2E', symObjAddr: 0x8000, symBinAddr: 0x12DB10, symSize: 0x1510 }
  - { offsetInCU: 0x4A63, offset: 0x5AD801, size: 0x8, addend: 0x0, symName: '__ZN3syn4path7parsing89_$LT$impl$u20$syn..parse..Parse$u20$for$u20$syn..path..AngleBracketedGenericArguments$GT$5parse17h5114b408010754bbE', symObjAddr: 0x9510, symBinAddr: 0x12F020, symSize: 0x3C0 }
  - { offsetInCU: 0x5053, offset: 0x5ADDF1, size: 0x8, addend: 0x0, symName: '__ZN3syn4path7parsing88_$LT$impl$u20$syn..parse..Parse$u20$for$u20$syn..path..ParenthesizedGenericArguments$GT$5parse17h1bef1f4d9d5a8f24E', symObjAddr: 0x98D0, symBinAddr: 0x12F3E0, symSize: 0x4D0 }
  - { offsetInCU: 0x56F4, offset: 0x5AE492, size: 0x8, addend: 0x0, symName: '__ZN3syn4path7parsing69_$LT$impl$u20$syn..parse..Parse$u20$for$u20$syn..path..Constraint$GT$5parse17ha9fdfd7091174960E', symObjAddr: 0xA2E0, symBinAddr: 0x12FBC0, symSize: 0x190 }
  - { offsetInCU: 0x9821, offset: 0x5B25BF, size: 0x8, addend: 0x0, symName: '__ZN3syn3gen5clone75_$LT$impl$u20$core..clone..Clone$u20$for$u20$syn..path..GenericArgument$GT$5clone17h7d33ab627c63aaf0E', symObjAddr: 0xB5B0, symBinAddr: 0x130A70, symSize: 0x260 }
