---
triple:          'x86_64-apple-darwin'
binary-path:     "/Users/justinlanouette/Chaos/ChaöS-Token/hello_world/target/release/deps/libborsh_derive-99da1f14d03c51db.dylib"
relocations:
  - { offsetInCU: 0x1E, offset: 0x1E, size: 0x8, addend: 0x0, symName: '__ZN4core3ptr100drop_in_place$LT$core..option..Option$LT$alloc..boxed..Box$LT$syn..generics..LifetimeDef$GT$$GT$$GT$17heca4dd4a539d82f5E', symObjAddr: 0x0, symBinAddr: 0x3CA0, symSize: 0x50 }
  - { offsetInCU: 0x1A41, offset: 0x1A41, size: 0x8, addend: 0x0, symName: '__ZN4core3ptr100drop_in_place$LT$core..option..Option$LT$alloc..boxed..Box$LT$syn..generics..LifetimeDef$GT$$GT$$GT$17heca4dd4a539d82f5E', symObjAddr: 0x0, symBinAddr: 0x3CA0, symSize: 0x50 }
  - { offsetInCU: 0x1BD0, offset: 0x1BD0, size: 0x8, addend: 0x0, symName: '__ZN4core3ptr100drop_in_place$LT$core..option..Option$LT$alloc..boxed..Box$LT$syn..path..GenericArgument$GT$$GT$$GT$17h0265bf412e95ab5fE', symObjAddr: 0x50, symBinAddr: 0x3CF0, symSize: 0x50 }
  - { offsetInCU: 0x1D5F, offset: 0x1D5F, size: 0x8, addend: 0x0, symName: '__ZN4core3ptr101drop_in_place$LT$core..option..Option$LT$alloc..boxed..Box$LT$syn..generics..GenericParam$GT$$GT$$GT$17h655d5cce205367fbE', symObjAddr: 0xA0, symBinAddr: 0x3D40, symSize: 0x50 }
  - { offsetInCU: 0x2024, offset: 0x2024, size: 0x8, addend: 0x0, symName: '__ZN4core3ptr102drop_in_place$LT$syn..punctuated..Punctuated$LT$syn..generics..LifetimeDef$C$syn..token..Comma$GT$$GT$17h0885a367fa4c8c27E', symObjAddr: 0xF0, symBinAddr: 0x3D90, symSize: 0x170 }
  - { offsetInCU: 0x251B, offset: 0x251B, size: 0x8, addend: 0x0, symName: '__ZN4core3ptr102drop_in_place$LT$syn..punctuated..Punctuated$LT$syn..path..GenericArgument$C$syn..token..Comma$GT$$GT$17hbdeda3af3a53c46bE.llvm.939768034938816390', symObjAddr: 0x260, symBinAddr: 0x3F00, symSize: 0xF0 }
  - { offsetInCU: 0x28BA, offset: 0x28BA, size: 0x8, addend: 0x0, symName: '__ZN4core3ptr103drop_in_place$LT$core..option..Option$LT$alloc..boxed..Box$LT$syn..generics..TypeParamBound$GT$$GT$$GT$17h5c9b8e1ec0eee363E', symObjAddr: 0x350, symBinAddr: 0x3FF0, symSize: 0xA0 }
  - { offsetInCU: 0x2BA9, offset: 0x2BA9, size: 0x8, addend: 0x0, symName: '__ZN4core3ptr103drop_in_place$LT$core..option..Option$LT$alloc..boxed..Box$LT$syn..generics..WherePredicate$GT$$GT$$GT$17h7c7eeb16d4d29800E', symObjAddr: 0x3F0, symBinAddr: 0x4090, symSize: 0x50 }
  - { offsetInCU: 0x2DD3, offset: 0x2DD3, size: 0x8, addend: 0x0, symName: '__ZN4core3ptr103drop_in_place$LT$syn..punctuated..Punctuated$LT$syn..generics..GenericParam$C$syn..token..Comma$GT$$GT$17h094a179b34697b8fE', symObjAddr: 0x440, symBinAddr: 0x40E0, symSize: 0x1A0 }
  - { offsetInCU: 0x33BF, offset: 0x33BF, size: 0x8, addend: 0x0, symName: '__ZN4core3ptr103drop_in_place$LT$syn..punctuated..Punctuated$LT$syn..generics..TypeParamBound$C$syn..token..Add$GT$$GT$17h4e7d175ca9340c4dE', symObjAddr: 0x5E0, symBinAddr: 0x4280, symSize: 0x2E0 }
  - { offsetInCU: 0x41AD, offset: 0x41AD, size: 0x8, addend: 0x0, symName: '__ZN4core3ptr105drop_in_place$LT$syn..punctuated..Punctuated$LT$syn..generics..WherePredicate$C$syn..token..Comma$GT$$GT$17h014a47b9fe2dad04E', symObjAddr: 0x8C0, symBinAddr: 0x4560, symSize: 0x1A0 }
  - { offsetInCU: 0x4823, offset: 0x4823, size: 0x8, addend: 0x0, symName: '__ZN4core3ptr108drop_in_place$LT$syn..punctuated..Punctuated$LT$syn..expr..GenericMethodArgument$C$syn..token..Comma$GT$$GT$17hed32f3f59481d034E', symObjAddr: 0xA60, symBinAddr: 0x4700, symSize: 0x150 }
  - { offsetInCU: 0x4D07, offset: 0x4D07, size: 0x8, addend: 0x0, symName: '__ZN4core3ptr126drop_in_place$LT$core..option..Option$LT$$LP$syn..token..And$C$core..option..Option$LT$syn..lifetime..Lifetime$GT$$RP$$GT$$GT$17h1217765d09251056E', symObjAddr: 0xBB0, symBinAddr: 0x4850, symSize: 0x30 }
  - { offsetInCU: 0x4F96, offset: 0x4F96, size: 0x8, addend: 0x0, symName: '__ZN4core3ptr33drop_in_place$LT$syn..ty..Abi$GT$17h33445efe154f0176E', symObjAddr: 0xBE0, symBinAddr: 0x4880, symSize: 0x70 }
  - { offsetInCU: 0x4FB2, offset: 0x4FB2, size: 0x8, addend: 0x0, symName: '__ZN4core3ptr33drop_in_place$LT$syn..ty..Abi$GT$17h33445efe154f0176E', symObjAddr: 0xBE0, symBinAddr: 0x4880, symSize: 0x70 }
  - { offsetInCU: 0x528A, offset: 0x528A, size: 0x8, addend: 0x0, symName: '__ZN4core3ptr34drop_in_place$LT$syn..lit..Lit$GT$17h056ccb2d7e6af650E', symObjAddr: 0xC50, symBinAddr: 0x48F0, symSize: 0x110 }
  - { offsetInCU: 0x5642, offset: 0x5642, size: 0x8, addend: 0x0, symName: '__ZN4core3ptr34drop_in_place$LT$syn..pat..Pat$GT$17he693a8164df5cedaE.llvm.939768034938816390', symObjAddr: 0xD60, symBinAddr: 0x4A00, symSize: 0x5C0 }
  - { offsetInCU: 0x6495, offset: 0x6495, size: 0x8, addend: 0x0, symName: '__ZN4core3ptr34drop_in_place$LT$syn..ty..Type$GT$17h78a1474f4fed38adE.llvm.939768034938816390', symObjAddr: 0x1320, symBinAddr: 0x4FC0, symSize: 0x480 }
  - { offsetInCU: 0x7458, offset: 0x7458, size: 0x8, addend: 0x0, symName: '__ZN4core3ptr35drop_in_place$LT$syn..expr..Arm$GT$17hd213845d652413a1E.llvm.939768034938816390', symObjAddr: 0x17A0, symBinAddr: 0x5440, symSize: 0x130 }
  - { offsetInCU: 0x8082, offset: 0x8082, size: 0x8, addend: 0x0, symName: '__ZN4core3ptr36drop_in_place$LT$syn..expr..Expr$GT$17h9146b4ce2a54298aE.llvm.939768034938816390', symObjAddr: 0x18D0, symBinAddr: 0x5570, symSize: 0x1450 }
  - { offsetInCU: 0xB821, offset: 0xB821, size: 0x8, addend: 0x0, symName: '__ZN4core3ptr36drop_in_place$LT$syn..item..Item$GT$17had3712c99c3e0d32E.llvm.939768034938816390', symObjAddr: 0x2D20, symBinAddr: 0x69C0, symSize: 0x10F0 }
  - { offsetInCU: 0xE808, offset: 0xE808, size: 0x8, addend: 0x0, symName: '__ZN4core3ptr36drop_in_place$LT$syn..mac..Macro$GT$17h4e569b9558cc0bd3E', symObjAddr: 0x3E10, symBinAddr: 0x7AB0, symSize: 0xE0 }
  - { offsetInCU: 0xEBAE, offset: 0xEBAE, size: 0x8, addend: 0x0, symName: '__ZN4core3ptr36drop_in_place$LT$syn..path..Path$GT$17h70b7dcaeac6e290eE.llvm.939768034938816390', symObjAddr: 0x3EF0, symBinAddr: 0x7B90, symSize: 0x160 }
  - { offsetInCU: 0xF156, offset: 0xF156, size: 0x8, addend: 0x0, symName: '__ZN4core3ptr36drop_in_place$LT$syn..stmt..Stmt$GT$17he891fb7edb3b3560E.llvm.939768034938816390', symObjAddr: 0x4050, symBinAddr: 0x7CF0, symSize: 0xF0 }
  - { offsetInCU: 0xF358, offset: 0xF358, size: 0x8, addend: 0x0, symName: '__ZN4core3ptr37drop_in_place$LT$syn..data..Field$GT$17h6d5b5990c7289f66E.llvm.939768034938816390', symObjAddr: 0x4140, symBinAddr: 0x7DE0, symSize: 0x140 }
  - { offsetInCU: 0xF903, offset: 0xF903, size: 0x8, addend: 0x0, symName: '__ZN4core3ptr37drop_in_place$LT$syn..item..FnArg$GT$17h672ee26af12d45fbE', symObjAddr: 0x4280, symBinAddr: 0x7F20, symSize: 0x110 }
  - { offsetInCU: 0xFD43, offset: 0xFD43, size: 0x8, addend: 0x0, symName: '__ZN4core3ptr37drop_in_place$LT$syn..stmt..Block$GT$17h033137929d851544E', symObjAddr: 0x4390, symBinAddr: 0x8030, symSize: 0xD0 }
  - { offsetInCU: 0x10021, offset: 0x10021, size: 0x8, addend: 0x0, symName: '__ZN4core3ptr38drop_in_place$LT$syn..expr..Member$GT$17hbe81c2e49eacb2f2E.llvm.939768034938816390', symObjAddr: 0x4460, symBinAddr: 0x8100, symSize: 0x0 }
  - { offsetInCU: 0x1011D, offset: 0x1011D, size: 0x8, addend: 0x0, symName: '__ZN4core3ptr38drop_in_place$LT$syn..pat..PatType$GT$17h9e77b0dddf5807eaE', symObjAddr: 0x4490, symBinAddr: 0x8130, symSize: 0x100 }
  - { offsetInCU: 0x1068C, offset: 0x1068C, size: 0x8, addend: 0x0, symName: '__ZN4core3ptr38drop_in_place$LT$syn..ty..Variadic$GT$17h229eac15e7be6d20E', symObjAddr: 0x4590, symBinAddr: 0x8230, symSize: 0x80 }
  - { offsetInCU: 0x1095B, offset: 0x1095B, size: 0x8, addend: 0x0, symName: '__ZN4core3ptr39drop_in_place$LT$proc_macro2..Ident$GT$17hb7c7393ff8c82a63E.llvm.939768034938816390', symObjAddr: 0x4610, symBinAddr: 0x82B0, symSize: 0x30 }
  - { offsetInCU: 0x10A95, offset: 0x10A95, size: 0x8, addend: 0x0, symName: '__ZN4core3ptr39drop_in_place$LT$syn..data..Variant$GT$17h4363932e8a479f82E.llvm.939768034938816390', symObjAddr: 0x4640, symBinAddr: 0x82E0, symSize: 0x2B0 }
  - { offsetInCU: 0x116E1, offset: 0x116E1, size: 0x8, addend: 0x0, symName: '__ZN4core3ptr39drop_in_place$LT$syn..item..UseTree$GT$17hd7e69210481b6b70E', symObjAddr: 0x48F0, symBinAddr: 0x8590, symSize: 0x1F0 }
  - { offsetInCU: 0x11EB9, offset: 0x11EB9, size: 0x8, addend: 0x0, symName: '__ZN4core3ptr39drop_in_place$LT$syn..pat..PatTuple$GT$17h249755afb23cfc0bE', symObjAddr: 0x4AE0, symBinAddr: 0x8780, symSize: 0x180 }
  - { offsetInCU: 0x12614, offset: 0x12614, size: 0x8, addend: 0x0, symName: '__ZN4core3ptr40drop_in_place$LT$syn..item..ImplItem$GT$17hf56e6564a64d579fE', symObjAddr: 0x4C60, symBinAddr: 0x8900, symSize: 0x1B0 }
  - { offsetInCU: 0x1297C, offset: 0x1297C, size: 0x8, addend: 0x0, symName: '__ZN4core3ptr40drop_in_place$LT$syn..ty..ReturnType$GT$17h2e76c8e673a0a762E.llvm.939768034938816390', symObjAddr: 0x4E10, symBinAddr: 0x8AB0, symSize: 0x50 }
  - { offsetInCU: 0x12AEC, offset: 0x12AEC, size: 0x8, addend: 0x0, symName: '__ZN4core3ptr41drop_in_place$LT$syn..attr..Attribute$GT$17h2d16c47b8376f6f3E.llvm.939768034938816390', symObjAddr: 0x4E60, symBinAddr: 0x8B00, symSize: 0x40 }
  - { offsetInCU: 0x12C5C, offset: 0x12C5C, size: 0x8, addend: 0x0, symName: '__ZN4core3ptr41drop_in_place$LT$syn..item..Signature$GT$17h6514c963e5bd87b8E', symObjAddr: 0x4EA0, symBinAddr: 0x8B40, symSize: 0x2C0 }
  - { offsetInCU: 0x13A47, offset: 0x13A47, size: 0x8, addend: 0x0, symName: '__ZN4core3ptr41drop_in_place$LT$syn..item..TraitItem$GT$17h2fd8071a181967f3E', symObjAddr: 0x5160, symBinAddr: 0x8E00, symSize: 0x2A0 }
  - { offsetInCU: 0x141E3, offset: 0x141E3, size: 0x8, addend: 0x0, symName: '__ZN4core3ptr43drop_in_place$LT$proc_macro2..TokenTree$GT$17h64f1e46bfa1ea3c3E.llvm.939768034938816390', symObjAddr: 0x5400, symBinAddr: 0x90A0, symSize: 0xB0 }
  - { offsetInCU: 0x1453E, offset: 0x1453E, size: 0x8, addend: 0x0, symName: '__ZN4core3ptr43drop_in_place$LT$syn..data..FieldsNamed$GT$17h18db3fe42020ace4E', symObjAddr: 0x54B0, symBinAddr: 0x9150, symSize: 0x120 }
  - { offsetInCU: 0x14A1D, offset: 0x14A1D, size: 0x8, addend: 0x0, symName: '__ZN4core3ptr43drop_in_place$LT$syn..item..ForeignItem$GT$17h57d1d15fa8953528E', symObjAddr: 0x55D0, symBinAddr: 0x9270, symSize: 0x2B0 }
  - { offsetInCU: 0x14FE7, offset: 0x14FE7, size: 0x8, addend: 0x0, symName: '__ZN4core3ptr43drop_in_place$LT$syn..path..PathSegment$GT$17hadd5be772b62705eE.llvm.939768034938816390', symObjAddr: 0x5880, symBinAddr: 0x9520, symSize: 0x170 }
  - { offsetInCU: 0x155E1, offset: 0x155E1, size: 0x8, addend: 0x0, symName: '__ZN4core3ptr44drop_in_place$LT$syn..generics..Generics$GT$17h307a4919c818e7b9E', symObjAddr: 0x59F0, symBinAddr: 0x9690, symSize: 0x230 }
  - { offsetInCU: 0x15F1E, offset: 0x15F1E, size: 0x8, addend: 0x0, symName: '__ZN4core3ptr44drop_in_place$LT$syn..item..ImplItemType$GT$17h9d251cbb11b170e8E', symObjAddr: 0x5C20, symBinAddr: 0x98C0, symSize: 0x180 }
  - { offsetInCU: 0x164EC, offset: 0x164EC, size: 0x8, addend: 0x0, symName: '__ZN4core3ptr44drop_in_place$LT$syn..lifetime..Lifetime$GT$17h31fd42a72858128cE.llvm.939768034938816390', symObjAddr: 0x5DA0, symBinAddr: 0x9A40, symSize: 0x30 }
  - { offsetInCU: 0x16645, offset: 0x16645, size: 0x8, addend: 0x0, symName: '__ZN4core3ptr45drop_in_place$LT$proc_macro2..TokenStream$GT$17h6d79eac43fbe9840E.llvm.939768034938816390', symObjAddr: 0x5DD0, symBinAddr: 0x9A70, symSize: 0x70 }
  - { offsetInCU: 0x1678D, offset: 0x1678D, size: 0x8, addend: 0x0, symName: '__ZN4core3ptr45drop_in_place$LT$syn..data..VisRestricted$GT$17hb5b2a445d5700d11E.llvm.939768034938816390', symObjAddr: 0x5E40, symBinAddr: 0x9AE0, symSize: 0x50 }
  - { offsetInCU: 0x16943, offset: 0x16943, size: 0x8, addend: 0x0, symName: '__ZN4core3ptr45drop_in_place$LT$syn..generics..TypeParam$GT$17hed150ee7e08aa8aaE.llvm.939768034938816390', symObjAddr: 0x5E90, symBinAddr: 0x9B30, symSize: 0x1D0 }
  - { offsetInCU: 0x172A1, offset: 0x172A1, size: 0x8, addend: 0x0, symName: '__ZN4core3ptr45drop_in_place$LT$syn..item..ImplItemConst$GT$17h7332cd2c285cf112E', symObjAddr: 0x6060, symBinAddr: 0x9D00, symSize: 0x150 }
  - { offsetInCU: 0x1782C, offset: 0x1782C, size: 0x8, addend: 0x0, symName: '__ZN4core3ptr45drop_in_place$LT$syn..item..TraitItemType$GT$17h02dac9875694e17bE', symObjAddr: 0x61B0, symBinAddr: 0x9E50, symSize: 0x230 }
  - { offsetInCU: 0x18263, offset: 0x18263, size: 0x8, addend: 0x0, symName: '__ZN4core3ptr46drop_in_place$LT$syn..generics..ConstParam$GT$17h9829da7d08a52759E.llvm.939768034938816390', symObjAddr: 0x63E0, symBinAddr: 0xA080, symSize: 0x110 }
  - { offsetInCU: 0x1864C, offset: 0x1864C, size: 0x8, addend: 0x0, symName: '__ZN4core3ptr46drop_in_place$LT$syn..item..ImplItemMethod$GT$17h71e2a8cbcc71e9e4E', symObjAddr: 0x64F0, symBinAddr: 0xA190, symSize: 0x1E0 }
  - { offsetInCU: 0x18DB1, offset: 0x18DB1, size: 0x8, addend: 0x0, symName: '__ZN4core3ptr46drop_in_place$LT$syn..item..TraitItemConst$GT$17he2cda4c3a35141ecE', symObjAddr: 0x66D0, symBinAddr: 0xA370, symSize: 0x110 }
  - { offsetInCU: 0x191CC, offset: 0x191CC, size: 0x8, addend: 0x0, symName: '__ZN4core3ptr47drop_in_place$LT$syn..generics..LifetimeDef$GT$17h1ceca33afd67dbc0E.llvm.939768034938816390', symObjAddr: 0x67E0, symBinAddr: 0xA480, symSize: 0xB0 }
  - { offsetInCU: 0x19594, offset: 0x19594, size: 0x8, addend: 0x0, symName: '__ZN4core3ptr47drop_in_place$LT$syn..generics..WhereClause$GT$17hd4bf7bb6341752b0E', symObjAddr: 0x6890, symBinAddr: 0xA530, symSize: 0x120 }
  - { offsetInCU: 0x19A54, offset: 0x19A54, size: 0x8, addend: 0x0, symName: '__ZN4core3ptr47drop_in_place$LT$syn..path..GenericArgument$GT$17hdf9c3b0338bb26a1E', symObjAddr: 0x69B0, symBinAddr: 0xA650, symSize: 0x110 }
  - { offsetInCU: 0x19D6F, offset: 0x19D6F, size: 0x8, addend: 0x0, symName: '__ZN4core3ptr48drop_in_place$LT$syn..generics..GenericParam$GT$17hc894e1b9a5e462aeE', symObjAddr: 0x6AC0, symBinAddr: 0xA760, symSize: 0xA0 }
  - { offsetInCU: 0x19EA8, offset: 0x19EA8, size: 0x8, addend: 0x0, symName: '__ZN4core3ptr49drop_in_place$LT$syn..generics..PredicateType$GT$17ha77caed7541bccd6E.llvm.939768034938816390', symObjAddr: 0x6B60, symBinAddr: 0xA800, symSize: 0x230 }
  - { offsetInCU: 0x1A8CC, offset: 0x1A8CC, size: 0x8, addend: 0x0, symName: '__ZN4core3ptr49drop_in_place$LT$syn..item..ForeignItemStatic$GT$17hde59cc3abd0d395fE', symObjAddr: 0x6D90, symBinAddr: 0xAA30, symSize: 0x150 }
  - { offsetInCU: 0x1AF89, offset: 0x1AF89, size: 0x8, addend: 0x0, symName: '__ZN4core3ptr50drop_in_place$LT$$u5b$syn..item..ImplItem$u5d$$GT$17hc8a1806ff6c47c56E', symObjAddr: 0x6EE0, symBinAddr: 0xAB80, symSize: 0x1C0 }
  - { offsetInCU: 0x1B229, offset: 0x1B229, size: 0x8, addend: 0x0, symName: '__ZN4core3ptr50drop_in_place$LT$syn..generics..BoundLifetimes$GT$17h40b344a3f82a3adaE.llvm.939768034938816390', symObjAddr: 0x70A0, symBinAddr: 0xAD40, symSize: 0x110 }
  - { offsetInCU: 0x1B6A9, offset: 0x1B6A9, size: 0x8, addend: 0x0, symName: '__ZN4core3ptr50drop_in_place$LT$syn..generics..TypeParamBound$GT$17h6439871f824080f3E', symObjAddr: 0x71B0, symBinAddr: 0xAE50, symSize: 0x80 }
  - { offsetInCU: 0x1B82E, offset: 0x1B82E, size: 0x8, addend: 0x0, symName: '__ZN4core3ptr50drop_in_place$LT$syn..generics..WherePredicate$GT$17hf0deda372564860cE', symObjAddr: 0x7230, symBinAddr: 0xAED0, symSize: 0x110 }
  - { offsetInCU: 0x1B9ED, offset: 0x1B9ED, size: 0x8, addend: 0x0, symName: '__ZN4core3ptr51drop_in_place$LT$$u5b$syn..attr..Attribute$u5d$$GT$17ha1a9cf3a091117b9E.llvm.939768034938816390', symObjAddr: 0x7340, symBinAddr: 0xAFE0, symSize: 0x1A0 }
  - { offsetInCU: 0x1BD95, offset: 0x1BD95, size: 0x8, addend: 0x0, symName: '__ZN4core3ptr51drop_in_place$LT$$u5b$syn..item..TraitItem$u5d$$GT$17h2a5236fb50cf8825E', symObjAddr: 0x74E0, symBinAddr: 0xB180, symSize: 0x440 }
  - { offsetInCU: 0x1C828, offset: 0x1C828, size: 0x8, addend: 0x0, symName: '__ZN4core3ptr53drop_in_place$LT$$u5b$syn..item..ForeignItem$u5d$$GT$17ha0413d8f1d3d2cb7E', symObjAddr: 0x7920, symBinAddr: 0xB5C0, symSize: 0x3A0 }
  - { offsetInCU: 0x1D321, offset: 0x1D321, size: 0x8, addend: 0x0, symName: '__ZN4core3ptr58drop_in_place$LT$alloc..vec..Vec$LT$syn..expr..Arm$GT$$GT$17h32017793af80fdaeE', symObjAddr: 0x7CC0, symBinAddr: 0xB960, symSize: 0xD0 }
  - { offsetInCU: 0x1D5E8, offset: 0x1D5E8, size: 0x8, addend: 0x0, symName: '__ZN4core3ptr59drop_in_place$LT$alloc..boxed..Box$LT$syn..pat..Pat$GT$$GT$17h58a1a5269129f9e5E.llvm.939768034938816390', symObjAddr: 0x7D90, symBinAddr: 0xBA30, symSize: 0x50 }
  - { offsetInCU: 0x1D741, offset: 0x1D741, size: 0x8, addend: 0x0, symName: '__ZN4core3ptr59drop_in_place$LT$alloc..boxed..Box$LT$syn..ty..Type$GT$$GT$17hae85202e7f8fd9acE', symObjAddr: 0x7DE0, symBinAddr: 0xBA80, symSize: 0x50 }
  - { offsetInCU: 0x1D89A, offset: 0x1D89A, size: 0x8, addend: 0x0, symName: '__ZN4core3ptr59drop_in_place$LT$alloc..vec..Vec$LT$syn..item..Item$GT$$GT$17h1ca5981d9cf80c37E', symObjAddr: 0x7E30, symBinAddr: 0xBAD0, symSize: 0xD0 }
  - { offsetInCU: 0x1DB61, offset: 0x1DB61, size: 0x8, addend: 0x0, symName: '__ZN4core3ptr61drop_in_place$LT$alloc..boxed..Box$LT$syn..expr..Expr$GT$$GT$17h8834ebc9bb9d7020E.llvm.939768034938816390', symObjAddr: 0x7F00, symBinAddr: 0xBBA0, symSize: 0x50 }
  - { offsetInCU: 0x1DCBA, offset: 0x1DCBA, size: 0x8, addend: 0x0, symName: '__ZN4core3ptr61drop_in_place$LT$alloc..boxed..Box$LT$syn..path..Path$GT$$GT$17h32566cae5b3c6155E', symObjAddr: 0x7F50, symBinAddr: 0xBBF0, symSize: 0x100 }
  - { offsetInCU: 0x1E1DA, offset: 0x1E1DA, size: 0x8, addend: 0x0, symName: '__ZN4core3ptr61drop_in_place$LT$syn..path..ParenthesizedGenericArguments$GT$17hfd5307c8b4b443f5E.llvm.939768034938816390', symObjAddr: 0x8050, symBinAddr: 0xBCF0, symSize: 0x170 }
  - { offsetInCU: 0x1E7D7, offset: 0x1E7D7, size: 0x8, addend: 0x0, symName: '__ZN4core3ptr62drop_in_place$LT$alloc..boxed..Box$LT$syn..data..Field$GT$$GT$17h3014a6a9d292aadbE', symObjAddr: 0x81C0, symBinAddr: 0xBE60, symSize: 0x50 }
  - { offsetInCU: 0x1E94F, offset: 0x1E94F, size: 0x8, addend: 0x0, symName: '__ZN4core3ptr62drop_in_place$LT$alloc..boxed..Box$LT$syn..item..FnArg$GT$$GT$17h9a270a9ceba226a9E', symObjAddr: 0x8210, symBinAddr: 0xBEB0, symSize: 0xD0 }
  - { offsetInCU: 0x1EE70, offset: 0x1EE70, size: 0x8, addend: 0x0, symName: '__ZN4core3ptr62drop_in_place$LT$alloc..boxed..Box$LT$syn..stmt..Block$GT$$GT$17h08f130726c9f0d3bE', symObjAddr: 0x82E0, symBinAddr: 0xBF80, symSize: 0xE0 }
  - { offsetInCU: 0x1F289, offset: 0x1F289, size: 0x8, addend: 0x0, symName: '__ZN4core3ptr62drop_in_place$LT$syn..path..AngleBracketedGenericArguments$GT$17h51f331ec9c7e74c9E.llvm.939768034938816390', symObjAddr: 0x83C0, symBinAddr: 0xC060, symSize: 0x120 }
  - { offsetInCU: 0x1F70B, offset: 0x1F70B, size: 0x8, addend: 0x0, symName: '__ZN4core3ptr63drop_in_place$LT$alloc..vec..Vec$LT$syn..item..ImplItem$GT$$GT$17h36dde71c65281d9fE', symObjAddr: 0x84E0, symBinAddr: 0xC180, symSize: 0x80 }
  - { offsetInCU: 0x1F9C3, offset: 0x1F9C3, size: 0x8, addend: 0x0, symName: '__ZN4core3ptr64drop_in_place$LT$alloc..boxed..Box$LT$syn..data..Variant$GT$$GT$17h1fba13d06b963b65E', symObjAddr: 0x8560, symBinAddr: 0xC200, symSize: 0x50 }
  - { offsetInCU: 0x1FB1C, offset: 0x1FB1C, size: 0x8, addend: 0x0, symName: '__ZN4core3ptr64drop_in_place$LT$alloc..boxed..Box$LT$syn..item..UseTree$GT$$GT$17hb6360f7b7738c34bE', symObjAddr: 0x85B0, symBinAddr: 0xC250, symSize: 0x50 }
  - { offsetInCU: 0x1FCB3, offset: 0x1FCB3, size: 0x8, addend: 0x0, symName: '__ZN4core3ptr64drop_in_place$LT$alloc..boxed..Box$LT$syn..pat..FieldPat$GT$$GT$17h49cd6902461c48d7E', symObjAddr: 0x8600, symBinAddr: 0xC2A0, symSize: 0xC0 }
  - { offsetInCU: 0x200FD, offset: 0x200FD, size: 0x8, addend: 0x0, symName: '__ZN4core3ptr64drop_in_place$LT$alloc..boxed..Box$LT$syn..ty..BareFnArg$GT$$GT$17h846dccdf0c7d14fbE', symObjAddr: 0x86C0, symBinAddr: 0xC360, symSize: 0x160 }
  - { offsetInCU: 0x2069A, offset: 0x2069A, size: 0x8, addend: 0x0, symName: '__ZN4core3ptr64drop_in_place$LT$alloc..vec..Vec$LT$syn..attr..Attribute$GT$$GT$17h224cba14c0ca67a2E.llvm.939768034938816390', symObjAddr: 0x8820, symBinAddr: 0xC4C0, symSize: 0xF0 }
  - { offsetInCU: 0x2097A, offset: 0x2097A, size: 0x8, addend: 0x0, symName: '__ZN4core3ptr64drop_in_place$LT$alloc..vec..Vec$LT$syn..item..TraitItem$GT$$GT$17h7031aa962d74f0bcE', symObjAddr: 0x8910, symBinAddr: 0xC5B0, symSize: 0x80 }
  - { offsetInCU: 0x20C32, offset: 0x20C32, size: 0x8, addend: 0x0, symName: '__ZN4core3ptr65drop_in_place$LT$$LP$syn..item..FnArg$C$syn..token..Comma$RP$$GT$17h7b2063e46f600603E', symObjAddr: 0x8990, symBinAddr: 0xC630, symSize: 0xC0 }
  - { offsetInCU: 0x210E1, offset: 0x210E1, size: 0x8, addend: 0x0, symName: '__ZN4core3ptr65drop_in_place$LT$alloc..vec..Vec$LT$proc_macro..TokenTree$GT$$GT$17he43190246ec7c99fE.llvm.939768034938816390', symObjAddr: 0x8A50, symBinAddr: 0xC6F0, symSize: 0x110 }
  - { offsetInCU: 0x214F3, offset: 0x214F3, size: 0x8, addend: 0x0, symName: '__ZN4core3ptr65drop_in_place$LT$core..option..Option$LT$syn..expr..Label$GT$$GT$17hdbe8c86c5e3ce558E', symObjAddr: 0x8B60, symBinAddr: 0xC800, symSize: 0x30 }
  - { offsetInCU: 0x2162D, offset: 0x2162D, size: 0x8, addend: 0x0, symName: '__ZN4core3ptr65drop_in_place$LT$core..option..Option$LT$syn..stmt..Block$GT$$GT$17hf9dabdbc0d240ff9E', symObjAddr: 0x8B90, symBinAddr: 0xC830, symSize: 0xD0 }
  - { offsetInCU: 0x21902, offset: 0x21902, size: 0x8, addend: 0x0, symName: '__ZN4core3ptr66drop_in_place$LT$alloc..vec..Vec$LT$syn..item..ForeignItem$GT$$GT$17hefaa01c1b17ad534E', symObjAddr: 0x8C60, symBinAddr: 0xC900, symSize: 0x80 }
  - { offsetInCU: 0x21BBA, offset: 0x21BBA, size: 0x8, addend: 0x0, symName: '__ZN4core3ptr67drop_in_place$LT$$LP$syn..pat..FieldPat$C$syn..token..Comma$RP$$GT$17h75e61d48ebec4213E.llvm.939768034938816390', symObjAddr: 0x8CE0, symBinAddr: 0xC980, symSize: 0xA0 }
  - { offsetInCU: 0x21E62, offset: 0x21E62, size: 0x8, addend: 0x0, symName: '__ZN4core3ptr67drop_in_place$LT$$LP$syn..ty..BareFnArg$C$syn..token..Comma$RP$$GT$17hb109b47850716fafE.llvm.939768034938816390', symObjAddr: 0x8D80, symBinAddr: 0xCA20, symSize: 0xD0 }
  - { offsetInCU: 0x22288, offset: 0x22288, size: 0x8, addend: 0x0, symName: '__ZN4core3ptr67drop_in_place$LT$alloc..boxed..Box$LT$syn..expr..FieldValue$GT$$GT$17hc9dd6d6b08e4f22dE', symObjAddr: 0x8E50, symBinAddr: 0xCAF0, symSize: 0xA0 }
  - { offsetInCU: 0x2252B, offset: 0x2252B, size: 0x8, addend: 0x0, symName: '__ZN4core3ptr68drop_in_place$LT$alloc..boxed..Box$LT$syn..path..PathSegment$GT$$GT$17h9e5c6847f847e044E', symObjAddr: 0x8EF0, symBinAddr: 0xCB90, symSize: 0xD0 }
  - { offsetInCU: 0x22924, offset: 0x22924, size: 0x8, addend: 0x0, symName: '__ZN4core3ptr70drop_in_place$LT$$LP$syn..expr..FieldValue$C$syn..token..Comma$RP$$GT$17hccfd8b7bf54e586bE.llvm.939768034938816390', symObjAddr: 0x8FC0, symBinAddr: 0xCC60, symSize: 0x80 }
  - { offsetInCU: 0x22A61, offset: 0x22A61, size: 0x8, addend: 0x0, symName: '__ZN4core3ptr72drop_in_place$LT$$LP$syn..path..PathSegment$C$syn..token..Colon2$RP$$GT$17h366b6ef974039fb8E.llvm.939768034938816390', symObjAddr: 0x9040, symBinAddr: 0xCCE0, symSize: 0xC0 }
  - { offsetInCU: 0x22D24, offset: 0x22D24, size: 0x8, addend: 0x0, symName: '__ZN4core3ptr72drop_in_place$LT$alloc..boxed..Box$LT$syn..generics..LifetimeDef$GT$$GT$17h0793de62ac7a8478E', symObjAddr: 0x9100, symBinAddr: 0xCDA0, symSize: 0x80 }
  - { offsetInCU: 0x22FD3, offset: 0x22FD3, size: 0x8, addend: 0x0, symName: '__ZN4core3ptr72drop_in_place$LT$alloc..boxed..Box$LT$syn..path..GenericArgument$GT$$GT$17h5025e7443e461704E.llvm.939768034938816390', symObjAddr: 0x9180, symBinAddr: 0xCE20, symSize: 0x220 }
  - { offsetInCU: 0x23843, offset: 0x23843, size: 0x8, addend: 0x0, symName: '__ZN4core3ptr73drop_in_place$LT$alloc..boxed..Box$LT$syn..generics..GenericParam$GT$$GT$17hbd97583410779d61E', symObjAddr: 0x93A0, symBinAddr: 0xD040, symSize: 0x80 }
  - { offsetInCU: 0x239B9, offset: 0x239B9, size: 0x8, addend: 0x0, symName: '__ZN4core3ptr75drop_in_place$LT$$LP$syn..generics..LifetimeDef$C$syn..token..Comma$RP$$GT$17hb4ec27b627757080E.llvm.939768034938816390', symObjAddr: 0x9420, symBinAddr: 0xD0C0, symSize: 0x60 }
  - { offsetInCU: 0x23AF6, offset: 0x23AF6, size: 0x8, addend: 0x0, symName: '__ZN4core3ptr75drop_in_place$LT$$LP$syn..path..GenericArgument$C$syn..token..Comma$RP$$GT$17hb72a61b222a64a3dE.llvm.939768034938816390', symObjAddr: 0x9480, symBinAddr: 0xD120, symSize: 0x220 }
  - { offsetInCU: 0x2422A, offset: 0x2422A, size: 0x8, addend: 0x0, symName: '__ZN4core3ptr75drop_in_place$LT$alloc..boxed..Box$LT$syn..generics..TypeParamBound$GT$$GT$17h4e7d1cc3f3abb6aaE', symObjAddr: 0x96A0, symBinAddr: 0xD340, symSize: 0x150 }
  - { offsetInCU: 0x247D7, offset: 0x247D7, size: 0x8, addend: 0x0, symName: '__ZN4core3ptr75drop_in_place$LT$alloc..boxed..Box$LT$syn..generics..WherePredicate$GT$$GT$17hc323ccf643e72550E', symObjAddr: 0x97F0, symBinAddr: 0xD490, symSize: 0xD0 }
  - { offsetInCU: 0x24A7F, offset: 0x24A7F, size: 0x8, addend: 0x0, symName: '__ZN4core3ptr76drop_in_place$LT$$LP$syn..generics..GenericParam$C$syn..token..Comma$RP$$GT$17h1971d6607a71c0c8E.llvm.939768034938816390', symObjAddr: 0x98C0, symBinAddr: 0xD560, symSize: 0x50 }
  - { offsetInCU: 0x24ABB, offset: 0x24ABB, size: 0x8, addend: 0x0, symName: '__ZN4core3ptr76drop_in_place$LT$$LP$syn..generics..TypeParamBound$C$syn..token..Add$RP$$GT$17h6eb60a1a4fda5fffE.llvm.939768034938816390', symObjAddr: 0x9910, symBinAddr: 0xD5B0, symSize: 0x160 }
  - { offsetInCU: 0x24F3A, offset: 0x24F3A, size: 0x8, addend: 0x0, symName: '__ZN4core3ptr78drop_in_place$LT$$LP$syn..generics..WherePredicate$C$syn..token..Comma$RP$$GT$17h9be8da22d93ab471E.llvm.939768034938816390', symObjAddr: 0x9A70, symBinAddr: 0xD710, symSize: 0xA0 }
  - { offsetInCU: 0x250B2, offset: 0x250B2, size: 0x8, addend: 0x0, symName: '__ZN4core3ptr78drop_in_place$LT$alloc..boxed..Box$LT$syn..expr..GenericMethodArgument$GT$$GT$17head13ac139055865E', symObjAddr: 0x9B10, symBinAddr: 0xD7B0, symSize: 0x60 }
  - { offsetInCU: 0x25228, offset: 0x25228, size: 0x8, addend: 0x0, symName: '__ZN4core3ptr81drop_in_place$LT$$LP$syn..expr..GenericMethodArgument$C$syn..token..Comma$RP$$GT$17h272338bd278e78e0E.llvm.939768034938816390', symObjAddr: 0x9B70, symBinAddr: 0xD810, symSize: 0x30 }
  - { offsetInCU: 0x25264, offset: 0x25264, size: 0x8, addend: 0x0, symName: '__ZN4core3ptr86drop_in_place$LT$$LP$syn..token..If$C$alloc..boxed..Box$LT$syn..expr..Expr$GT$$RP$$GT$17hed082fb1871e2ebbE.llvm.939768034938816390', symObjAddr: 0x9BA0, symBinAddr: 0xD840, symSize: 0x50 }
  - { offsetInCU: 0x253DC, offset: 0x253DC, size: 0x8, addend: 0x0, symName: '__ZN4core3ptr86drop_in_place$LT$$u5b$$LP$syn..generics..TypeParamBound$C$syn..token..Add$RP$$u5d$$GT$17hb6d00bb0760270e4E', symObjAddr: 0x9BF0, symBinAddr: 0xD890, symSize: 0xE0 }
  - { offsetInCU: 0x2560F, offset: 0x2560F, size: 0x8, addend: 0x0, symName: '__ZN4core3ptr86drop_in_place$LT$syn..punctuated..Punctuated$LT$syn..pat..Pat$C$syn..token..Or$GT$$GT$17ha58520160b1d360dE', symObjAddr: 0x9CD0, symBinAddr: 0xD970, symSize: 0x120 }
  - { offsetInCU: 0x25AA8, offset: 0x25AA8, size: 0x8, addend: 0x0, symName: '__ZN4core3ptr87drop_in_place$LT$core..option..Option$LT$alloc..boxed..Box$LT$syn..pat..Pat$GT$$GT$$GT$17h0dffa6d84d5c4fbaE', symObjAddr: 0x9DF0, symBinAddr: 0xDA90, symSize: 0x50 }
  - { offsetInCU: 0x25C18, offset: 0x25C18, size: 0x8, addend: 0x0, symName: '__ZN4core3ptr87drop_in_place$LT$core..option..Option$LT$alloc..boxed..Box$LT$syn..ty..Type$GT$$GT$$GT$17h69da1ee2feed0dc2E', symObjAddr: 0x9E40, symBinAddr: 0xDAE0, symSize: 0x50 }
  - { offsetInCU: 0x25D88, offset: 0x25D88, size: 0x8, addend: 0x0, symName: '__ZN4core3ptr89drop_in_place$LT$core..option..Option$LT$alloc..boxed..Box$LT$syn..expr..Expr$GT$$GT$$GT$17h83abe39972f7b29dE', symObjAddr: 0x9E90, symBinAddr: 0xDB30, symSize: 0x50 }
  - { offsetInCU: 0x25EF8, offset: 0x25EF8, size: 0x8, addend: 0x0, symName: '__ZN4core3ptr89drop_in_place$LT$syn..punctuated..Punctuated$LT$syn..ty..Type$C$syn..token..Comma$GT$$GT$17h0f50aea9d64364abE.llvm.939768034938816390', symObjAddr: 0x9EE0, symBinAddr: 0xDB80, symSize: 0x120 }
  - { offsetInCU: 0x2637A, offset: 0x2637A, size: 0x8, addend: 0x0, symName: '__ZN4core3ptr90drop_in_place$LT$core..option..Option$LT$alloc..boxed..Box$LT$syn..data..Field$GT$$GT$$GT$17hf02ba374f2fabd95E', symObjAddr: 0xA000, symBinAddr: 0xDCA0, symSize: 0x50 }
  - { offsetInCU: 0x264EA, offset: 0x264EA, size: 0x8, addend: 0x0, symName: '__ZN4core3ptr90drop_in_place$LT$core..option..Option$LT$alloc..boxed..Box$LT$syn..item..FnArg$GT$$GT$$GT$17hfea249f0ca8836d1E', symObjAddr: 0xA050, symBinAddr: 0xDCF0, symSize: 0x50 }
  - { offsetInCU: 0x266D6, offset: 0x266D6, size: 0x8, addend: 0x0, symName: '__ZN4core3ptr91drop_in_place$LT$syn..punctuated..Punctuated$LT$syn..expr..Expr$C$syn..token..Comma$GT$$GT$17h3cb7acf382083f31E', symObjAddr: 0xA0A0, symBinAddr: 0xDD40, symSize: 0x120 }
  - { offsetInCU: 0x26B6B, offset: 0x26B6B, size: 0x8, addend: 0x0, symName: '__ZN4core3ptr92drop_in_place$LT$core..option..Option$LT$$LP$syn..token..As$C$proc_macro2..Ident$RP$$GT$$GT$17h48d7266e2832b120E', symObjAddr: 0xA1C0, symBinAddr: 0xDE60, symSize: 0x30 }
  - { offsetInCU: 0x26C86, offset: 0x26C86, size: 0x8, addend: 0x0, symName: '__ZN4core3ptr92drop_in_place$LT$syn..punctuated..Punctuated$LT$syn..data..Field$C$syn..token..Comma$GT$$GT$17h3db14c903d975d04E', symObjAddr: 0xA1F0, symBinAddr: 0xDE90, symSize: 0x120 }
  - { offsetInCU: 0x27108, offset: 0x27108, size: 0x8, addend: 0x0, symName: '__ZN4core3ptr92drop_in_place$LT$syn..punctuated..Punctuated$LT$syn..item..FnArg$C$syn..token..Comma$GT$$GT$17h0fa2ae69e491e4f3E', symObjAddr: 0xA310, symBinAddr: 0xDFB0, symSize: 0x2C0 }
  - { offsetInCU: 0x27ED9, offset: 0x27ED9, size: 0x8, addend: 0x0, symName: '__ZN4core3ptr94drop_in_place$LT$syn..punctuated..Punctuated$LT$syn..data..Variant$C$syn..token..Comma$GT$$GT$17h29bf4c5f92a5a84aE', symObjAddr: 0xA5D0, symBinAddr: 0xE270, symSize: 0x120 }
  - { offsetInCU: 0x283EA, offset: 0x283EA, size: 0x8, addend: 0x0, symName: '__ZN4core3ptr94drop_in_place$LT$syn..punctuated..Punctuated$LT$syn..pat..FieldPat$C$syn..token..Comma$GT$$GT$17h7c4a0b0d0fbca91fE', symObjAddr: 0xA6F0, symBinAddr: 0xE390, symSize: 0xF0 }
  - { offsetInCU: 0x28703, offset: 0x28703, size: 0x8, addend: 0x0, symName: '__ZN4core3ptr94drop_in_place$LT$syn..punctuated..Punctuated$LT$syn..ty..BareFnArg$C$syn..token..Comma$GT$$GT$17ha36b55139ea8d3caE', symObjAddr: 0xA7E0, symBinAddr: 0xE480, symSize: 0x90 }
  - { offsetInCU: 0x28973, offset: 0x28973, size: 0x8, addend: 0x0, symName: '__ZN4core3ptr95drop_in_place$LT$core..option..Option$LT$$LP$proc_macro2..Ident$C$syn..token..Colon$RP$$GT$$GT$17h2aefc0141f5abb00E.llvm.939768034938816390', symObjAddr: 0xA870, symBinAddr: 0xE510, symSize: 0x30 }
  - { offsetInCU: 0x28A8E, offset: 0x28A8E, size: 0x8, addend: 0x0, symName: '__ZN4core3ptr96drop_in_place$LT$core..option..Option$LT$alloc..boxed..Box$LT$syn..path..PathSegment$GT$$GT$$GT$17hbfad780e20336cc9E.llvm.939768034938816390', symObjAddr: 0xA8A0, symBinAddr: 0xE540, symSize: 0x90 }
  - { offsetInCU: 0x28DC7, offset: 0x28DC7, size: 0x8, addend: 0x0, symName: '__ZN4core3ptr97drop_in_place$LT$syn..punctuated..Punctuated$LT$syn..expr..FieldValue$C$syn..token..Comma$GT$$GT$17h2e8f72bf8395ce2cE', symObjAddr: 0xA980, symBinAddr: 0xE5D0, symSize: 0x1B0 }
  - { offsetInCU: 0x292F4, offset: 0x292F4, size: 0x8, addend: 0x0, symName: '__ZN4core3ptr97drop_in_place$LT$syn..punctuated..Punctuated$LT$syn..lifetime..Lifetime$C$syn..token..Add$GT$$GT$17h506bc9a0f6160950E.llvm.939768034938816390', symObjAddr: 0xAB30, symBinAddr: 0xE780, symSize: 0xD0 }
  - { offsetInCU: 0x29766, offset: 0x29766, size: 0x8, addend: 0x0, symName: '__ZN4core3ptr99drop_in_place$LT$syn..punctuated..Punctuated$LT$syn..path..PathSegment$C$syn..token..Colon2$GT$$GT$17h72b063353557a4fbE.llvm.939768034938816390', symObjAddr: 0xAC00, symBinAddr: 0xE850, symSize: 0x1A0 }
  - { offsetInCU: 0x3174D, offset: 0x3174D, size: 0x8, addend: 0x0, symName: '__ZN70_$LT$alloc..vec..Vec$LT$T$C$A$GT$$u20$as$u20$core..ops..drop..Drop$GT$4drop17h035931160e4cb0bfE', symObjAddr: 0xADA0, symBinAddr: 0xE9F0, symSize: 0xD0 }
  - { offsetInCU: 0x318BA, offset: 0x318BA, size: 0x8, addend: 0x0, symName: '__ZN70_$LT$alloc..vec..Vec$LT$T$C$A$GT$$u20$as$u20$core..ops..drop..Drop$GT$4drop17h6d49070087733f45E', symObjAddr: 0xB170, symBinAddr: 0xEAC0, symSize: 0xC0 }
  - { offsetInCU: 0x3191C, offset: 0x3191C, size: 0x8, addend: 0x0, symName: '__ZN70_$LT$alloc..vec..Vec$LT$T$C$A$GT$$u20$as$u20$core..ops..drop..Drop$GT$4drop17haddd35bf71c43cecE', symObjAddr: 0xB520, symBinAddr: 0xEB80, symSize: 0xB0 }
  - { offsetInCU: 0x31A53, offset: 0x31A53, size: 0x8, addend: 0x0, symName: '__ZN70_$LT$alloc..vec..Vec$LT$T$C$A$GT$$u20$as$u20$core..ops..drop..Drop$GT$4drop17hdd5124504d6ea3feE', symObjAddr: 0xB800, symBinAddr: 0xEC30, symSize: 0xD0 }
  - { offsetInCU: 0x1E, offset: 0x374A6, size: 0x8, addend: 0x0, symName: __ZN5alloc7raw_vec11finish_grow17hd6135e86cab890a4E.llvm.13445795875943453394, symObjAddr: 0x0, symBinAddr: 0xED00, symSize: 0xA0 }
  - { offsetInCU: 0xCA7, offset: 0x3812F, size: 0x8, addend: 0x0, symName: __ZN5alloc7raw_vec11finish_grow17hd6135e86cab890a4E.llvm.13445795875943453394, symObjAddr: 0x0, symBinAddr: 0xED00, symSize: 0xA0 }
  - { offsetInCU: 0x1018, offset: 0x384A0, size: 0x8, addend: 0x0, symName: '__ZN5alloc7raw_vec19RawVec$LT$T$C$A$GT$7reserve21do_reserve_and_handle17h4d9b69976e7a1750E', symObjAddr: 0x140, symBinAddr: 0x25E5B0, symSize: 0xA0 }
  - { offsetInCU: 0x183A, offset: 0x38CC2, size: 0x8, addend: 0x0, symName: '__ZN5alloc7raw_vec19RawVec$LT$T$C$A$GT$8grow_one17h9c1618c89d6197d1E', symObjAddr: 0x1E0, symBinAddr: 0xEDA0, symSize: 0xA0 }
  - { offsetInCU: 0x1E, offset: 0x39004, size: 0x8, addend: 0x0, symName: __ZN10proc_macro6bridge6client14HandleCounters3get17h2c76d49220b98e92E, symObjAddr: 0x0, symBinAddr: 0xEE40, symSize: 0x10 }
  - { offsetInCU: 0x40, offset: 0x39026, size: 0x8, addend: 0x0, symName: ___rustc_proc_macro_decls_e0ac7d06a245a547__, symObjAddr: 0xA7F8, symBinAddr: 0x2E0348, symSize: 0x0 }
  - { offsetInCU: 0x7A, offset: 0x39060, size: 0x8, addend: 0x0, symName: __ZN12borsh_derive15borsh_serialize17h22185413f1384a6fE, symObjAddr: 0x8070, symBinAddr: 0x16EB0, symSize: 0x610 }
  - { offsetInCU: 0x11C8, offset: 0x3A1AE, size: 0x8, addend: 0x0, symName: __ZN12borsh_derive17borsh_deserialize17h38e1e85823075f76E, symObjAddr: 0x8680, symBinAddr: 0x174C0, symSize: 0x610 }
  - { offsetInCU: 0x2316, offset: 0x3B2FC, size: 0x8, addend: 0x0, symName: __ZN12borsh_derive12borsh_schema17he32dfab34d18a63eE, symObjAddr: 0x8C90, symBinAddr: 0x17AD0, symSize: 0x621 }
  - { offsetInCU: 0x6E7B, offset: 0x3FE61, size: 0x8, addend: 0x0, symName: '__ZN4core3ptr100drop_in_place$LT$core..option..Option$LT$alloc..boxed..Box$LT$syn..generics..LifetimeDef$GT$$GT$$GT$17heca4dd4a539d82f5E', symObjAddr: 0x10, symBinAddr: 0xEE50, symSize: 0x50 }
  - { offsetInCU: 0x6FFD, offset: 0x3FFE3, size: 0x8, addend: 0x0, symName: '__ZN4core3ptr100drop_in_place$LT$core..option..Option$LT$alloc..boxed..Box$LT$syn..path..GenericArgument$GT$$GT$$GT$17h0265bf412e95ab5fE', symObjAddr: 0x60, symBinAddr: 0xEEA0, symSize: 0x50 }
  - { offsetInCU: 0x72E1, offset: 0x402C7, size: 0x8, addend: 0x0, symName: '__ZN4core3ptr101drop_in_place$LT$core..option..Option$LT$alloc..boxed..Box$LT$syn..generics..GenericParam$GT$$GT$$GT$17h655d5cce205367fbE', symObjAddr: 0xB0, symBinAddr: 0xEEF0, symSize: 0x310 }
  - { offsetInCU: 0x7D1C, offset: 0x40D02, size: 0x8, addend: 0x0, symName: '__ZN4core3ptr103drop_in_place$LT$core..option..Option$LT$alloc..boxed..Box$LT$syn..generics..WherePredicate$GT$$GT$$GT$17h7c7eeb16d4d29800E', symObjAddr: 0x3C0, symBinAddr: 0xF200, symSize: 0x120 }
  - { offsetInCU: 0x812E, offset: 0x41114, size: 0x8, addend: 0x0, symName: '__ZN4core3ptr103drop_in_place$LT$syn..punctuated..Punctuated$LT$syn..generics..TypeParamBound$C$syn..token..Add$GT$$GT$17h4e7d175ca9340c4dE', symObjAddr: 0x4E0, symBinAddr: 0xF320, symSize: 0x200 }
  - { offsetInCU: 0x8A1F, offset: 0x41A05, size: 0x8, addend: 0x0, symName: '__ZN4core3ptr108drop_in_place$LT$syn..punctuated..Punctuated$LT$syn..expr..GenericMethodArgument$C$syn..token..Comma$GT$$GT$17hed32f3f59481d034E', symObjAddr: 0x6E0, symBinAddr: 0xF520, symSize: 0x150 }
  - { offsetInCU: 0x8F78, offset: 0x41F5E, size: 0x8, addend: 0x0, symName: '__ZN4core3ptr34drop_in_place$LT$syn..lit..Lit$GT$17h056ccb2d7e6af650E', symObjAddr: 0x830, symBinAddr: 0xF670, symSize: 0x110 }
  - { offsetInCU: 0x93EA, offset: 0x423D0, size: 0x8, addend: 0x0, symName: '__ZN4core3ptr34drop_in_place$LT$syn..pat..Pat$GT$17he693a8164df5cedaE', symObjAddr: 0x940, symBinAddr: 0xF780, symSize: 0x1050 }
  - { offsetInCU: 0xCDA9, offset: 0x45D8F, size: 0x8, addend: 0x0, symName: '__ZN4core3ptr34drop_in_place$LT$syn..ty..Type$GT$17h78a1474f4fed38adE', symObjAddr: 0x1990, symBinAddr: 0x107D0, symSize: 0x5F0 }
  - { offsetInCU: 0xE958, offset: 0x4793E, size: 0x8, addend: 0x0, symName: '__ZN4core3ptr36drop_in_place$LT$syn..expr..Expr$GT$17h9146b4ce2a54298aE', symObjAddr: 0x1F80, symBinAddr: 0x10DC0, symSize: 0x3180 }
  - { offsetInCU: 0x18E4B, offset: 0x51E31, size: 0x8, addend: 0x0, symName: '__ZN4core3ptr36drop_in_place$LT$syn..mac..Macro$GT$17h4e569b9558cc0bd3E', symObjAddr: 0x5100, symBinAddr: 0x13F40, symSize: 0xE0 }
  - { offsetInCU: 0x19251, offset: 0x52237, size: 0x8, addend: 0x0, symName: '__ZN4core3ptr36drop_in_place$LT$syn..path..Path$GT$17h70b7dcaeac6e290eE', symObjAddr: 0x51E0, symBinAddr: 0x14020, symSize: 0x230 }
  - { offsetInCU: 0x19BE7, offset: 0x52BCD, size: 0x8, addend: 0x0, symName: '__ZN4core3ptr37drop_in_place$LT$syn..stmt..Block$GT$17h033137929d851544E', symObjAddr: 0x5410, symBinAddr: 0x14250, symSize: 0xD0 }
  - { offsetInCU: 0x19F59, offset: 0x52F3F, size: 0x8, addend: 0x0, symName: '__ZN4core3ptr38drop_in_place$LT$syn..data..Fields$GT$17hb943cc8f3829b6e8E', symObjAddr: 0x54E0, symBinAddr: 0x14320, symSize: 0x180 }
  - { offsetInCU: 0x1A3DD, offset: 0x533C3, size: 0x8, addend: 0x0, symName: '__ZN4core3ptr38drop_in_place$LT$syn..error..Error$GT$17h2918003b0244db9dE', symObjAddr: 0x5660, symBinAddr: 0x144A0, symSize: 0x80 }
  - { offsetInCU: 0x1A689, offset: 0x5366F, size: 0x8, addend: 0x0, symName: '__ZN4core3ptr38drop_in_place$LT$syn..expr..Member$GT$17hbe81c2e49eacb2f2E', symObjAddr: 0x56E0, symBinAddr: 0x14520, symSize: 0x30 }
  - { offsetInCU: 0x1A785, offset: 0x5376B, size: 0x8, addend: 0x0, symName: '__ZN4core3ptr39drop_in_place$LT$proc_macro2..Ident$GT$17hb7c7393ff8c82a63E', symObjAddr: 0x5710, symBinAddr: 0x14550, symSize: 0x30 }
  - { offsetInCU: 0x1A862, offset: 0x53848, size: 0x8, addend: 0x0, symName: '__ZN4core3ptr39drop_in_place$LT$syn..pat..PatTuple$GT$17h249755afb23cfc0bE', symObjAddr: 0x5740, symBinAddr: 0x14580, symSize: 0x100 }
  - { offsetInCU: 0x1AC25, offset: 0x53C0B, size: 0x8, addend: 0x0, symName: '__ZN4core3ptr40drop_in_place$LT$syn..item..ItemEnum$GT$17h6e640eb725392f95E', symObjAddr: 0x5840, symBinAddr: 0x14680, symSize: 0x250 }
  - { offsetInCU: 0x1B48E, offset: 0x54474, size: 0x8, addend: 0x0, symName: '__ZN4core3ptr40drop_in_place$LT$syn..ty..ReturnType$GT$17h2e76c8e673a0a762E', symObjAddr: 0x5A90, symBinAddr: 0x148D0, symSize: 0x50 }
  - { offsetInCU: 0x1B5FE, offset: 0x545E4, size: 0x8, addend: 0x0, symName: '__ZN4core3ptr41drop_in_place$LT$syn..item..ItemUnion$GT$17h7bedcb3791c912adE', symObjAddr: 0x5AE0, symBinAddr: 0x14920, symSize: 0x250 }
  - { offsetInCU: 0x1BE7E, offset: 0x54E64, size: 0x8, addend: 0x0, symName: '__ZN4core3ptr42drop_in_place$LT$syn..data..Visibility$GT$17h561163bc57e2f411E', symObjAddr: 0x5D30, symBinAddr: 0x14B70, symSize: 0x60 }
  - { offsetInCU: 0x1BFEF, offset: 0x54FD5, size: 0x8, addend: 0x0, symName: '__ZN4core3ptr42drop_in_place$LT$syn..item..ItemStruct$GT$17h54feca840d0fbf3eE', symObjAddr: 0x5D90, symBinAddr: 0x14BD0, symSize: 0x190 }
  - { offsetInCU: 0x1C556, offset: 0x5553C, size: 0x8, addend: 0x0, symName: '__ZN4core3ptr43drop_in_place$LT$syn..data..FieldsNamed$GT$17h18db3fe42020ace4E', symObjAddr: 0x5F20, symBinAddr: 0x14D60, symSize: 0xE0 }
  - { offsetInCU: 0x1C8D5, offset: 0x558BB, size: 0x8, addend: 0x0, symName: '__ZN4core3ptr44drop_in_place$LT$syn..generics..Generics$GT$17h307a4919c818e7b9E', symObjAddr: 0x6000, symBinAddr: 0x14E40, symSize: 0xA0 }
  - { offsetInCU: 0x1CB41, offset: 0x55B27, size: 0x8, addend: 0x0, symName: '__ZN4core3ptr44drop_in_place$LT$syn..lifetime..Lifetime$GT$17h31fd42a72858128cE', symObjAddr: 0x60A0, symBinAddr: 0x14EE0, symSize: 0x30 }
  - { offsetInCU: 0x1CD73, offset: 0x55D59, size: 0x8, addend: 0x0, symName: '__ZN4core3ptr45drop_in_place$LT$proc_macro2..TokenStream$GT$17h6d79eac43fbe9840E', symObjAddr: 0x60D0, symBinAddr: 0x14F10, symSize: 0x140 }
  - { offsetInCU: 0x1D1CF, offset: 0x561B5, size: 0x8, addend: 0x0, symName: '__ZN4core3ptr47drop_in_place$LT$syn..generics..LifetimeDef$GT$17h1ceca33afd67dbc0E', symObjAddr: 0x6210, symBinAddr: 0x15050, symSize: 0x120 }
  - { offsetInCU: 0x1D62A, offset: 0x56610, size: 0x8, addend: 0x0, symName: '__ZN4core3ptr47drop_in_place$LT$syn..path..GenericArgument$GT$17hdf9c3b0338bb26a1E', symObjAddr: 0x6330, symBinAddr: 0x15170, symSize: 0x110 }
  - { offsetInCU: 0x1D958, offset: 0x5693E, size: 0x8, addend: 0x0, symName: '__ZN4core3ptr58drop_in_place$LT$alloc..vec..Vec$LT$syn..expr..Arm$GT$$GT$17h32017793af80fdaeE', symObjAddr: 0x6440, symBinAddr: 0x15280, symSize: 0xD0 }
  - { offsetInCU: 0x1DC18, offset: 0x56BFE, size: 0x8, addend: 0x0, symName: '__ZN4core3ptr59drop_in_place$LT$alloc..boxed..Box$LT$syn..pat..Pat$GT$$GT$17h58a1a5269129f9e5E', symObjAddr: 0x6510, symBinAddr: 0x15350, symSize: 0x50 }
  - { offsetInCU: 0x1DD71, offset: 0x56D57, size: 0x8, addend: 0x0, symName: '__ZN4core3ptr59drop_in_place$LT$alloc..boxed..Box$LT$syn..ty..Type$GT$$GT$17hae85202e7f8fd9acE', symObjAddr: 0x6560, symBinAddr: 0x153A0, symSize: 0x50 }
  - { offsetInCU: 0x1DECA, offset: 0x56EB0, size: 0x8, addend: 0x0, symName: '__ZN4core3ptr61drop_in_place$LT$alloc..boxed..Box$LT$syn..expr..Expr$GT$$GT$17h8834ebc9bb9d7020E', symObjAddr: 0x65B0, symBinAddr: 0x153F0, symSize: 0x50 }
  - { offsetInCU: 0x1E023, offset: 0x57009, size: 0x8, addend: 0x0, symName: '__ZN4core3ptr61drop_in_place$LT$syn..path..ParenthesizedGenericArguments$GT$17hfd5307c8b4b443f5E', symObjAddr: 0x6600, symBinAddr: 0x15440, symSize: 0x170 }
  - { offsetInCU: 0x1E62C, offset: 0x57612, size: 0x8, addend: 0x0, symName: '__ZN4core3ptr63drop_in_place$LT$alloc..boxed..Box$LT$syn..lit..LitRepr$GT$$GT$17hf86a0ab2d8b42535E', symObjAddr: 0x6770, symBinAddr: 0x155B0, symSize: 0x60 }
  - { offsetInCU: 0x1E933, offset: 0x57919, size: 0x8, addend: 0x0, symName: '__ZN4core3ptr64drop_in_place$LT$alloc..boxed..Box$LT$syn..pat..FieldPat$GT$$GT$17h49cd6902461c48d7E', symObjAddr: 0x67D0, symBinAddr: 0x15610, symSize: 0x180 }
  - { offsetInCU: 0x1F050, offset: 0x58036, size: 0x8, addend: 0x0, symName: '__ZN4core3ptr64drop_in_place$LT$alloc..boxed..Box$LT$syn..ty..BareFnArg$GT$$GT$17h846dccdf0c7d14fbE', symObjAddr: 0x6950, symBinAddr: 0x15790, symSize: 0x160 }
  - { offsetInCU: 0x1F5E6, offset: 0x585CC, size: 0x8, addend: 0x0, symName: '__ZN4core3ptr65drop_in_place$LT$alloc..vec..Vec$LT$proc_macro..TokenTree$GT$$GT$17he43190246ec7c99fE', symObjAddr: 0x6AB0, symBinAddr: 0x158F0, symSize: 0x110 }
  - { offsetInCU: 0x1F9DE, offset: 0x589C4, size: 0x8, addend: 0x0, symName: '__ZN4core3ptr65drop_in_place$LT$core..option..Option$LT$syn..expr..Label$GT$$GT$17hdbe8c86c5e3ce558E', symObjAddr: 0x6BC0, symBinAddr: 0x15A00, symSize: 0x30 }
  - { offsetInCU: 0x1FB18, offset: 0x58AFE, size: 0x8, addend: 0x0, symName: '__ZN4core3ptr66drop_in_place$LT$core..option..Option$LT$syn..ty..Variadic$GT$$GT$17h3ca2b142fa1ffaa7E', symObjAddr: 0x6BF0, symBinAddr: 0x15A30, symSize: 0xF0 }
  - { offsetInCU: 0x1FE42, offset: 0x58E28, size: 0x8, addend: 0x0, symName: '__ZN4core3ptr67drop_in_place$LT$alloc..boxed..Box$LT$syn..expr..FieldValue$GT$$GT$17hc9dd6d6b08e4f22dE', symObjAddr: 0x6CE0, symBinAddr: 0x15B20, symSize: 0x160 }
  - { offsetInCU: 0x203B8, offset: 0x5939E, size: 0x8, addend: 0x0, symName: '__ZN4core3ptr72drop_in_place$LT$core..option..Option$LT$syn..lifetime..Lifetime$GT$$GT$17h1f13bcf24b8b5069E', symObjAddr: 0x6E40, symBinAddr: 0x15C80, symSize: 0x30 }
  - { offsetInCU: 0x204D3, offset: 0x594B9, size: 0x8, addend: 0x0, symName: '__ZN4core3ptr75drop_in_place$LT$alloc..boxed..Box$LT$syn..generics..TypeParamBound$GT$$GT$17h4e7d1cc3f3abb6aaE', symObjAddr: 0x6E70, symBinAddr: 0x15CB0, symSize: 0x140 }
  - { offsetInCU: 0x20AAA, offset: 0x59A90, size: 0x8, addend: 0x0, symName: '__ZN4core3ptr75drop_in_place$LT$core..option..Option$LT$syn..generics..WhereClause$GT$$GT$17h9c70a0f3bd0d6770E', symObjAddr: 0x6FB0, symBinAddr: 0x15DF0, symSize: 0xF0 }
  - { offsetInCU: 0x20DCC, offset: 0x59DB2, size: 0x8, addend: 0x0, symName: '__ZN4core3ptr78drop_in_place$LT$alloc..boxed..Box$LT$syn..expr..GenericMethodArgument$GT$$GT$17head13ac139055865E', symObjAddr: 0x70A0, symBinAddr: 0x15EE0, symSize: 0x60 }
  - { offsetInCU: 0x20FDD, offset: 0x59FC3, size: 0x8, addend: 0x0, symName: '__ZN4core3ptr78drop_in_place$LT$core..option..Option$LT$syn..generics..BoundLifetimes$GT$$GT$17hc3d9a05adf93d08cE', symObjAddr: 0x7100, symBinAddr: 0x15F40, symSize: 0xC0 }
  - { offsetInCU: 0x21413, offset: 0x5A3F9, size: 0x8, addend: 0x0, symName: '__ZN4core3ptr86drop_in_place$LT$syn..punctuated..Punctuated$LT$syn..pat..Pat$C$syn..token..Or$GT$$GT$17ha58520160b1d360dE', symObjAddr: 0x71C0, symBinAddr: 0x16000, symSize: 0x120 }
  - { offsetInCU: 0x2188E, offset: 0x5A874, size: 0x8, addend: 0x0, symName: '__ZN4core3ptr87drop_in_place$LT$core..option..Option$LT$alloc..boxed..Box$LT$syn..pat..Pat$GT$$GT$$GT$17h0dffa6d84d5c4fbaE', symObjAddr: 0x72E0, symBinAddr: 0x16120, symSize: 0x50 }
  - { offsetInCU: 0x219FE, offset: 0x5A9E4, size: 0x8, addend: 0x0, symName: '__ZN4core3ptr87drop_in_place$LT$core..option..Option$LT$alloc..boxed..Box$LT$syn..ty..Type$GT$$GT$$GT$17h69da1ee2feed0dc2E', symObjAddr: 0x7330, symBinAddr: 0x16170, symSize: 0x50 }
  - { offsetInCU: 0x21B8D, offset: 0x5AB73, size: 0x8, addend: 0x0, symName: '__ZN4core3ptr88drop_in_place$LT$core..result..Result$LT$syn..item..ItemEnum$C$syn..error..Error$GT$$GT$17hc700b71adb2b1c15E', symObjAddr: 0x7380, symBinAddr: 0x161C0, symSize: 0x90 }
  - { offsetInCU: 0x21E4E, offset: 0x5AE34, size: 0x8, addend: 0x0, symName: '__ZN4core3ptr89drop_in_place$LT$core..option..Option$LT$alloc..boxed..Box$LT$syn..expr..Expr$GT$$GT$$GT$17h83abe39972f7b29dE', symObjAddr: 0x7410, symBinAddr: 0x16250, symSize: 0x50 }
  - { offsetInCU: 0x21FBE, offset: 0x5AFA4, size: 0x8, addend: 0x0, symName: '__ZN4core3ptr89drop_in_place$LT$core..result..Result$LT$syn..item..ItemUnion$C$syn..error..Error$GT$$GT$17h20c68ac3a5fc992cE', symObjAddr: 0x7460, symBinAddr: 0x162A0, symSize: 0x90 }
  - { offsetInCU: 0x222BD, offset: 0x5B2A3, size: 0x8, addend: 0x0, symName: '__ZN4core3ptr89drop_in_place$LT$syn..punctuated..Punctuated$LT$syn..pat..Pat$C$syn..token..Comma$GT$$GT$17hfcecf23ee209601dE', symObjAddr: 0x74F0, symBinAddr: 0x16330, symSize: 0x120 }
  - { offsetInCU: 0x227AC, offset: 0x5B792, size: 0x8, addend: 0x0, symName: '__ZN4core3ptr90drop_in_place$LT$core..option..Option$LT$alloc..boxed..Box$LT$syn..data..Field$GT$$GT$$GT$17hf02ba374f2fabd95E', symObjAddr: 0x7610, symBinAddr: 0x16450, symSize: 0x1D0 }
  - { offsetInCU: 0x22E69, offset: 0x5BE4F, size: 0x8, addend: 0x0, symName: '__ZN4core3ptr90drop_in_place$LT$core..result..Result$LT$syn..item..ItemStruct$C$syn..error..Error$GT$$GT$17he5d55d0a918fcb9aE', symObjAddr: 0x77E0, symBinAddr: 0x16620, symSize: 0x90 }
  - { offsetInCU: 0x23168, offset: 0x5C14E, size: 0x8, addend: 0x0, symName: '__ZN4core3ptr91drop_in_place$LT$syn..punctuated..Punctuated$LT$syn..expr..Expr$C$syn..token..Comma$GT$$GT$17h3cb7acf382083f31E', symObjAddr: 0x7870, symBinAddr: 0x166B0, symSize: 0x120 }
  - { offsetInCU: 0x23672, offset: 0x5C658, size: 0x8, addend: 0x0, symName: '__ZN4core3ptr92drop_in_place$LT$core..option..Option$LT$alloc..boxed..Box$LT$syn..data..Variant$GT$$GT$$GT$17h3661affd622a2794E', symObjAddr: 0x7990, symBinAddr: 0x167D0, symSize: 0x1A0 }
  - { offsetInCU: 0x23C39, offset: 0x5CC1F, size: 0x8, addend: 0x0, symName: '__ZN4core3ptr94drop_in_place$LT$syn..punctuated..Punctuated$LT$syn..data..Variant$C$syn..token..Comma$GT$$GT$17h29bf4c5f92a5a84aE', symObjAddr: 0x7B30, symBinAddr: 0x16970, symSize: 0xE0 }
  - { offsetInCU: 0x23F3C, offset: 0x5CF22, size: 0x8, addend: 0x0, symName: '__ZN4core3ptr94drop_in_place$LT$syn..punctuated..Punctuated$LT$syn..pat..FieldPat$C$syn..token..Comma$GT$$GT$17h7c4a0b0d0fbca91fE', symObjAddr: 0x7C10, symBinAddr: 0x16A50, symSize: 0xF0 }
  - { offsetInCU: 0x2423B, offset: 0x5D221, size: 0x8, addend: 0x0, symName: '__ZN4core3ptr94drop_in_place$LT$syn..punctuated..Punctuated$LT$syn..ty..BareFnArg$C$syn..token..Comma$GT$$GT$17ha36b55139ea8d3caE', symObjAddr: 0x7D00, symBinAddr: 0x16B40, symSize: 0x90 }
  - { offsetInCU: 0x244AB, offset: 0x5D491, size: 0x8, addend: 0x0, symName: '__ZN4core3ptr96drop_in_place$LT$core..option..Option$LT$alloc..boxed..Box$LT$syn..path..PathSegment$GT$$GT$$GT$17hbfad780e20336cc9E', symObjAddr: 0x7D90, symBinAddr: 0x16BD0, symSize: 0x180 }
  - { offsetInCU: 0x24B68, offset: 0x5DB4E, size: 0x8, addend: 0x0, symName: '__ZN4core3ptr97drop_in_place$LT$syn..punctuated..Punctuated$LT$syn..expr..FieldValue$C$syn..token..Comma$GT$$GT$17h2e8f72bf8395ce2cE', symObjAddr: 0x7F10, symBinAddr: 0x16D50, symSize: 0x90 }
  - { offsetInCU: 0x24E54, offset: 0x5DE3A, size: 0x8, addend: 0x0, symName: '__ZN4core3ptr97drop_in_place$LT$syn..punctuated..Punctuated$LT$syn..lifetime..Lifetime$C$syn..token..Add$GT$$GT$17h506bc9a0f6160950E', symObjAddr: 0x7FA0, symBinAddr: 0x16DE0, symSize: 0xD0 }
  - { offsetInCU: 0x25E13, offset: 0x5EDF9, size: 0x8, addend: 0x0, symName: __ZN10proc_macro6bridge6client14HandleCounters3get17h2c76d49220b98e92E, symObjAddr: 0x0, symBinAddr: 0xEE40, symSize: 0x10 }
  - { offsetInCU: 0x1E, offset: 0x6A3DD, size: 0x8, addend: 0x0, symName: '__ZN40_$LT$F$u20$as$u20$syn..parse..Parser$GT$6parse217h7cca736d57c6869cE', symObjAddr: 0x0, symBinAddr: 0x18100, symSize: 0x380 }
  - { offsetInCU: 0x1AFA, offset: 0x6BEB9, size: 0x8, addend: 0x0, symName: '__ZN4core3ptr100drop_in_place$LT$core..option..Option$LT$alloc..boxed..Box$LT$syn..generics..LifetimeDef$GT$$GT$$GT$17heca4dd4a539d82f5E', symObjAddr: 0xA80, symBinAddr: 0x18B80, symSize: 0x50 }
  - { offsetInCU: 0x1C7C, offset: 0x6C03B, size: 0x8, addend: 0x0, symName: '__ZN4core3ptr100drop_in_place$LT$core..option..Option$LT$alloc..boxed..Box$LT$syn..path..GenericArgument$GT$$GT$$GT$17h0265bf412e95ab5fE', symObjAddr: 0xAD0, symBinAddr: 0x18BD0, symSize: 0x50 }
  - { offsetInCU: 0x1F60, offset: 0x6C31F, size: 0x8, addend: 0x0, symName: '__ZN4core3ptr101drop_in_place$LT$core..option..Option$LT$alloc..boxed..Box$LT$syn..generics..GenericParam$GT$$GT$$GT$17h655d5cce205367fbE', symObjAddr: 0xB20, symBinAddr: 0x18C20, symSize: 0x310 }
  - { offsetInCU: 0x299B, offset: 0x6CD5A, size: 0x8, addend: 0x0, symName: '__ZN4core3ptr103drop_in_place$LT$core..option..Option$LT$alloc..boxed..Box$LT$syn..generics..WherePredicate$GT$$GT$$GT$17h7c7eeb16d4d29800E', symObjAddr: 0xE30, symBinAddr: 0x18F30, symSize: 0x120 }
  - { offsetInCU: 0x2DAD, offset: 0x6D16C, size: 0x8, addend: 0x0, symName: '__ZN4core3ptr103drop_in_place$LT$syn..punctuated..Punctuated$LT$syn..generics..TypeParamBound$C$syn..token..Add$GT$$GT$17h4e7d175ca9340c4dE', symObjAddr: 0xF50, symBinAddr: 0x19050, symSize: 0x200 }
  - { offsetInCU: 0x369E, offset: 0x6DA5D, size: 0x8, addend: 0x0, symName: '__ZN4core3ptr108drop_in_place$LT$syn..punctuated..Punctuated$LT$syn..expr..GenericMethodArgument$C$syn..token..Comma$GT$$GT$17hed32f3f59481d034E', symObjAddr: 0x1150, symBinAddr: 0x19250, symSize: 0x150 }
  - { offsetInCU: 0x3BF7, offset: 0x6DFB6, size: 0x8, addend: 0x0, symName: '__ZN4core3ptr34drop_in_place$LT$syn..lit..Lit$GT$17h056ccb2d7e6af650E', symObjAddr: 0x12A0, symBinAddr: 0x193A0, symSize: 0x110 }
  - { offsetInCU: 0x4069, offset: 0x6E428, size: 0x8, addend: 0x0, symName: '__ZN4core3ptr34drop_in_place$LT$syn..pat..Pat$GT$17he693a8164df5cedaE', symObjAddr: 0x13B0, symBinAddr: 0x194B0, symSize: 0x1050 }
  - { offsetInCU: 0x7A28, offset: 0x71DE7, size: 0x8, addend: 0x0, symName: '__ZN4core3ptr34drop_in_place$LT$syn..ty..Type$GT$17h78a1474f4fed38adE', symObjAddr: 0x2400, symBinAddr: 0x1A500, symSize: 0x5F0 }
  - { offsetInCU: 0x95D7, offset: 0x73996, size: 0x8, addend: 0x0, symName: '__ZN4core3ptr36drop_in_place$LT$syn..expr..Expr$GT$17h9146b4ce2a54298aE', symObjAddr: 0x29F0, symBinAddr: 0x1AAF0, symSize: 0x3180 }
  - { offsetInCU: 0x13ACA, offset: 0x7DE89, size: 0x8, addend: 0x0, symName: '__ZN4core3ptr36drop_in_place$LT$syn..mac..Macro$GT$17h4e569b9558cc0bd3E', symObjAddr: 0x5B70, symBinAddr: 0x1DC70, symSize: 0xE0 }
  - { offsetInCU: 0x13ED0, offset: 0x7E28F, size: 0x8, addend: 0x0, symName: '__ZN4core3ptr36drop_in_place$LT$syn..path..Path$GT$17h70b7dcaeac6e290eE', symObjAddr: 0x5C50, symBinAddr: 0x1DD50, symSize: 0x230 }
  - { offsetInCU: 0x14866, offset: 0x7EC25, size: 0x8, addend: 0x0, symName: '__ZN4core3ptr37drop_in_place$LT$syn..stmt..Block$GT$17h033137929d851544E', symObjAddr: 0x5E80, symBinAddr: 0x1DF80, symSize: 0xD0 }
  - { offsetInCU: 0x14BD8, offset: 0x7EF97, size: 0x8, addend: 0x0, symName: '__ZN4core3ptr38drop_in_place$LT$syn..data..Fields$GT$17hb943cc8f3829b6e8E', symObjAddr: 0x5F50, symBinAddr: 0x1E050, symSize: 0x180 }
  - { offsetInCU: 0x1501E, offset: 0x7F3DD, size: 0x8, addend: 0x0, symName: '__ZN4core3ptr38drop_in_place$LT$syn..expr..Member$GT$17hbe81c2e49eacb2f2E', symObjAddr: 0x60D0, symBinAddr: 0x1E1D0, symSize: 0x30 }
  - { offsetInCU: 0x1511A, offset: 0x7F4D9, size: 0x8, addend: 0x0, symName: '__ZN4core3ptr39drop_in_place$LT$proc_macro2..Ident$GT$17hb7c7393ff8c82a63E', symObjAddr: 0x6100, symBinAddr: 0x1E200, symSize: 0x30 }
  - { offsetInCU: 0x1532D, offset: 0x7F6EC, size: 0x8, addend: 0x0, symName: '__ZN4core3ptr39drop_in_place$LT$syn..buffer..Entry$GT$17hdb017724ac62e744E', symObjAddr: 0x6130, symBinAddr: 0x1E230, symSize: 0xB0 }
  - { offsetInCU: 0x156B8, offset: 0x7FA77, size: 0x8, addend: 0x0, symName: '__ZN4core3ptr39drop_in_place$LT$syn..pat..PatTuple$GT$17h249755afb23cfc0bE', symObjAddr: 0x61E0, symBinAddr: 0x1E2E0, symSize: 0x100 }
  - { offsetInCU: 0x15A7B, offset: 0x7FE3A, size: 0x8, addend: 0x0, symName: '__ZN4core3ptr40drop_in_place$LT$syn..item..ItemEnum$GT$17h6e640eb725392f95E', symObjAddr: 0x62E0, symBinAddr: 0x1E3E0, symSize: 0x250 }
  - { offsetInCU: 0x162E4, offset: 0x806A3, size: 0x8, addend: 0x0, symName: '__ZN4core3ptr40drop_in_place$LT$syn..ty..ReturnType$GT$17h2e76c8e673a0a762E', symObjAddr: 0x6530, symBinAddr: 0x1E630, symSize: 0x50 }
  - { offsetInCU: 0x16454, offset: 0x80813, size: 0x8, addend: 0x0, symName: '__ZN4core3ptr41drop_in_place$LT$syn..item..ItemUnion$GT$17h7bedcb3791c912adE', symObjAddr: 0x6580, symBinAddr: 0x1E680, symSize: 0x250 }
  - { offsetInCU: 0x16CD4, offset: 0x81093, size: 0x8, addend: 0x0, symName: '__ZN4core3ptr42drop_in_place$LT$syn..data..Visibility$GT$17h561163bc57e2f411E', symObjAddr: 0x67D0, symBinAddr: 0x1E8D0, symSize: 0x60 }
  - { offsetInCU: 0x16E45, offset: 0x81204, size: 0x8, addend: 0x0, symName: '__ZN4core3ptr42drop_in_place$LT$syn..item..ItemStruct$GT$17h54feca840d0fbf3eE', symObjAddr: 0x6830, symBinAddr: 0x1E930, symSize: 0x190 }
  - { offsetInCU: 0x173AC, offset: 0x8176B, size: 0x8, addend: 0x0, symName: '__ZN4core3ptr43drop_in_place$LT$syn..data..FieldsNamed$GT$17h18db3fe42020ace4E', symObjAddr: 0x69C0, symBinAddr: 0x1EAC0, symSize: 0xE0 }
  - { offsetInCU: 0x1772B, offset: 0x81AEA, size: 0x8, addend: 0x0, symName: '__ZN4core3ptr44drop_in_place$LT$syn..generics..Generics$GT$17h307a4919c818e7b9E', symObjAddr: 0x6AA0, symBinAddr: 0x1EBA0, symSize: 0xA0 }
  - { offsetInCU: 0x17997, offset: 0x81D56, size: 0x8, addend: 0x0, symName: '__ZN4core3ptr44drop_in_place$LT$syn..lifetime..Lifetime$GT$17h31fd42a72858128cE', symObjAddr: 0x6B40, symBinAddr: 0x1EC40, symSize: 0x30 }
  - { offsetInCU: 0x17A93, offset: 0x81E52, size: 0x8, addend: 0x0, symName: '__ZN4core3ptr44drop_in_place$LT$syn..parse..ParseBuffer$GT$17hcb634e474ddf8e69E', symObjAddr: 0x6B70, symBinAddr: 0x1EC70, symSize: 0x70 }
  - { offsetInCU: 0x17E0F, offset: 0x821CE, size: 0x8, addend: 0x0, symName: '__ZN4core3ptr45drop_in_place$LT$proc_macro2..TokenStream$GT$17h6d79eac43fbe9840E', symObjAddr: 0x6BE0, symBinAddr: 0x1ECE0, symSize: 0x140 }
  - { offsetInCU: 0x1826B, offset: 0x8262A, size: 0x8, addend: 0x0, symName: '__ZN4core3ptr45drop_in_place$LT$syn..buffer..TokenBuffer$GT$17hd54b58166a6223ffE', symObjAddr: 0x6D20, symBinAddr: 0x1EE20, symSize: 0xC0 }
  - { offsetInCU: 0x18495, offset: 0x82854, size: 0x8, addend: 0x0, symName: '__ZN4core3ptr47drop_in_place$LT$syn..generics..LifetimeDef$GT$17h1ceca33afd67dbc0E', symObjAddr: 0x6DE0, symBinAddr: 0x1EEE0, symSize: 0x120 }
  - { offsetInCU: 0x188F0, offset: 0x82CAF, size: 0x8, addend: 0x0, symName: '__ZN4core3ptr47drop_in_place$LT$syn..path..GenericArgument$GT$17hdf9c3b0338bb26a1E', symObjAddr: 0x6F00, symBinAddr: 0x1F000, symSize: 0x110 }
  - { offsetInCU: 0x18C1E, offset: 0x82FDD, size: 0x8, addend: 0x0, symName: '__ZN4core3ptr58drop_in_place$LT$alloc..vec..Vec$LT$syn..expr..Arm$GT$$GT$17h32017793af80fdaeE', symObjAddr: 0x7010, symBinAddr: 0x1F110, symSize: 0xD0 }
  - { offsetInCU: 0x18EDE, offset: 0x8329D, size: 0x8, addend: 0x0, symName: '__ZN4core3ptr59drop_in_place$LT$alloc..boxed..Box$LT$syn..pat..Pat$GT$$GT$17h58a1a5269129f9e5E', symObjAddr: 0x70E0, symBinAddr: 0x1F1E0, symSize: 0x50 }
  - { offsetInCU: 0x19037, offset: 0x833F6, size: 0x8, addend: 0x0, symName: '__ZN4core3ptr59drop_in_place$LT$alloc..boxed..Box$LT$syn..ty..Type$GT$$GT$17hae85202e7f8fd9acE', symObjAddr: 0x7130, symBinAddr: 0x1F230, symSize: 0x50 }
  - { offsetInCU: 0x19190, offset: 0x8354F, size: 0x8, addend: 0x0, symName: '__ZN4core3ptr61drop_in_place$LT$alloc..boxed..Box$LT$syn..expr..Expr$GT$$GT$17h8834ebc9bb9d7020E', symObjAddr: 0x7180, symBinAddr: 0x1F280, symSize: 0x50 }
  - { offsetInCU: 0x192E9, offset: 0x836A8, size: 0x8, addend: 0x0, symName: '__ZN4core3ptr61drop_in_place$LT$syn..path..ParenthesizedGenericArguments$GT$17hfd5307c8b4b443f5E', symObjAddr: 0x71D0, symBinAddr: 0x1F2D0, symSize: 0x170 }
  - { offsetInCU: 0x198F2, offset: 0x83CB1, size: 0x8, addend: 0x0, symName: '__ZN4core3ptr63drop_in_place$LT$alloc..boxed..Box$LT$syn..lit..LitRepr$GT$$GT$17hf86a0ab2d8b42535E', symObjAddr: 0x7340, symBinAddr: 0x1F440, symSize: 0x60 }
  - { offsetInCU: 0x19BF9, offset: 0x83FB8, size: 0x8, addend: 0x0, symName: '__ZN4core3ptr64drop_in_place$LT$alloc..boxed..Box$LT$syn..pat..FieldPat$GT$$GT$17h49cd6902461c48d7E', symObjAddr: 0x73A0, symBinAddr: 0x1F4A0, symSize: 0x180 }
  - { offsetInCU: 0x1A316, offset: 0x846D5, size: 0x8, addend: 0x0, symName: '__ZN4core3ptr64drop_in_place$LT$alloc..boxed..Box$LT$syn..ty..BareFnArg$GT$$GT$17h846dccdf0c7d14fbE', symObjAddr: 0x7520, symBinAddr: 0x1F620, symSize: 0x160 }
  - { offsetInCU: 0x1A8AC, offset: 0x84C6B, size: 0x8, addend: 0x0, symName: '__ZN4core3ptr65drop_in_place$LT$alloc..vec..Vec$LT$proc_macro..TokenTree$GT$$GT$17he43190246ec7c99fE', symObjAddr: 0x7680, symBinAddr: 0x1F780, symSize: 0x110 }
  - { offsetInCU: 0x1ACA4, offset: 0x85063, size: 0x8, addend: 0x0, symName: '__ZN4core3ptr65drop_in_place$LT$core..option..Option$LT$syn..expr..Label$GT$$GT$17hdbe8c86c5e3ce558E', symObjAddr: 0x7790, symBinAddr: 0x1F890, symSize: 0x30 }
  - { offsetInCU: 0x1ADDE, offset: 0x8519D, size: 0x8, addend: 0x0, symName: '__ZN4core3ptr66drop_in_place$LT$core..option..Option$LT$syn..ty..Variadic$GT$$GT$17h3ca2b142fa1ffaa7E', symObjAddr: 0x77C0, symBinAddr: 0x1F8C0, symSize: 0xF0 }
  - { offsetInCU: 0x1B108, offset: 0x854C7, size: 0x8, addend: 0x0, symName: '__ZN4core3ptr67drop_in_place$LT$alloc..boxed..Box$LT$syn..expr..FieldValue$GT$$GT$17hc9dd6d6b08e4f22dE', symObjAddr: 0x78B0, symBinAddr: 0x1F9B0, symSize: 0x160 }
  - { offsetInCU: 0x1B67E, offset: 0x85A3D, size: 0x8, addend: 0x0, symName: '__ZN4core3ptr72drop_in_place$LT$core..option..Option$LT$syn..lifetime..Lifetime$GT$$GT$17h1f13bcf24b8b5069E', symObjAddr: 0x7A10, symBinAddr: 0x1FB10, symSize: 0x30 }
  - { offsetInCU: 0x1B799, offset: 0x85B58, size: 0x8, addend: 0x0, symName: '__ZN4core3ptr75drop_in_place$LT$alloc..boxed..Box$LT$syn..generics..TypeParamBound$GT$$GT$17h4e7d1cc3f3abb6aaE', symObjAddr: 0x7A40, symBinAddr: 0x1FB40, symSize: 0x140 }
  - { offsetInCU: 0x1BD70, offset: 0x8612F, size: 0x8, addend: 0x0, symName: '__ZN4core3ptr75drop_in_place$LT$core..option..Option$LT$syn..generics..WhereClause$GT$$GT$17h9c70a0f3bd0d6770E', symObjAddr: 0x7B80, symBinAddr: 0x1FC80, symSize: 0xF0 }
  - { offsetInCU: 0x1C092, offset: 0x86451, size: 0x8, addend: 0x0, symName: '__ZN4core3ptr78drop_in_place$LT$alloc..boxed..Box$LT$syn..expr..GenericMethodArgument$GT$$GT$17head13ac139055865E', symObjAddr: 0x7C70, symBinAddr: 0x1FD70, symSize: 0x60 }
  - { offsetInCU: 0x1C2A3, offset: 0x86662, size: 0x8, addend: 0x0, symName: '__ZN4core3ptr78drop_in_place$LT$core..option..Option$LT$syn..generics..BoundLifetimes$GT$$GT$17hc3d9a05adf93d08cE', symObjAddr: 0x7CD0, symBinAddr: 0x1FDD0, symSize: 0xC0 }
  - { offsetInCU: 0x1C6D9, offset: 0x86A98, size: 0x8, addend: 0x0, symName: '__ZN4core3ptr86drop_in_place$LT$syn..punctuated..Punctuated$LT$syn..pat..Pat$C$syn..token..Or$GT$$GT$17ha58520160b1d360dE', symObjAddr: 0x7D90, symBinAddr: 0x1FE90, symSize: 0x120 }
  - { offsetInCU: 0x1CB54, offset: 0x86F13, size: 0x8, addend: 0x0, symName: '__ZN4core3ptr87drop_in_place$LT$core..option..Option$LT$alloc..boxed..Box$LT$syn..pat..Pat$GT$$GT$$GT$17h0dffa6d84d5c4fbaE', symObjAddr: 0x7EB0, symBinAddr: 0x1FFB0, symSize: 0x50 }
  - { offsetInCU: 0x1CCC4, offset: 0x87083, size: 0x8, addend: 0x0, symName: '__ZN4core3ptr87drop_in_place$LT$core..option..Option$LT$alloc..boxed..Box$LT$syn..ty..Type$GT$$GT$$GT$17h69da1ee2feed0dc2E', symObjAddr: 0x7F00, symBinAddr: 0x20000, symSize: 0x50 }
  - { offsetInCU: 0x1CE34, offset: 0x871F3, size: 0x8, addend: 0x0, symName: '__ZN4core3ptr89drop_in_place$LT$core..option..Option$LT$alloc..boxed..Box$LT$syn..expr..Expr$GT$$GT$$GT$17h83abe39972f7b29dE', symObjAddr: 0x7F50, symBinAddr: 0x20050, symSize: 0x50 }
  - { offsetInCU: 0x1CFE2, offset: 0x873A1, size: 0x8, addend: 0x0, symName: '__ZN4core3ptr89drop_in_place$LT$syn..punctuated..Punctuated$LT$syn..pat..Pat$C$syn..token..Comma$GT$$GT$17hfcecf23ee209601dE', symObjAddr: 0x7FA0, symBinAddr: 0x200A0, symSize: 0x120 }
  - { offsetInCU: 0x1D4D1, offset: 0x87890, size: 0x8, addend: 0x0, symName: '__ZN4core3ptr90drop_in_place$LT$core..option..Option$LT$alloc..boxed..Box$LT$syn..data..Field$GT$$GT$$GT$17hf02ba374f2fabd95E', symObjAddr: 0x80C0, symBinAddr: 0x201C0, symSize: 0x1D0 }
  - { offsetInCU: 0x1DBCC, offset: 0x87F8B, size: 0x8, addend: 0x0, symName: '__ZN4core3ptr91drop_in_place$LT$syn..punctuated..Punctuated$LT$syn..expr..Expr$C$syn..token..Comma$GT$$GT$17h3cb7acf382083f31E', symObjAddr: 0x8290, symBinAddr: 0x20390, symSize: 0x120 }
  - { offsetInCU: 0x1E0D6, offset: 0x88495, size: 0x8, addend: 0x0, symName: '__ZN4core3ptr92drop_in_place$LT$core..option..Option$LT$alloc..boxed..Box$LT$syn..data..Variant$GT$$GT$$GT$17h3661affd622a2794E', symObjAddr: 0x83B0, symBinAddr: 0x204B0, symSize: 0x1A0 }
  - { offsetInCU: 0x1E69D, offset: 0x88A5C, size: 0x8, addend: 0x0, symName: '__ZN4core3ptr94drop_in_place$LT$syn..punctuated..Punctuated$LT$syn..data..Variant$C$syn..token..Comma$GT$$GT$17h29bf4c5f92a5a84aE', symObjAddr: 0x8550, symBinAddr: 0x20650, symSize: 0xE0 }
  - { offsetInCU: 0x1E9A0, offset: 0x88D5F, size: 0x8, addend: 0x0, symName: '__ZN4core3ptr94drop_in_place$LT$syn..punctuated..Punctuated$LT$syn..pat..FieldPat$C$syn..token..Comma$GT$$GT$17h7c4a0b0d0fbca91fE', symObjAddr: 0x8630, symBinAddr: 0x20730, symSize: 0xF0 }
  - { offsetInCU: 0x1EC9F, offset: 0x8905E, size: 0x8, addend: 0x0, symName: '__ZN4core3ptr94drop_in_place$LT$syn..punctuated..Punctuated$LT$syn..ty..BareFnArg$C$syn..token..Comma$GT$$GT$17ha36b55139ea8d3caE', symObjAddr: 0x8720, symBinAddr: 0x20820, symSize: 0x90 }
  - { offsetInCU: 0x1EF0F, offset: 0x892CE, size: 0x8, addend: 0x0, symName: '__ZN4core3ptr96drop_in_place$LT$core..option..Option$LT$alloc..boxed..Box$LT$syn..path..PathSegment$GT$$GT$$GT$17hbfad780e20336cc9E', symObjAddr: 0x87B0, symBinAddr: 0x208B0, symSize: 0x180 }
  - { offsetInCU: 0x1F5CC, offset: 0x8998B, size: 0x8, addend: 0x0, symName: '__ZN4core3ptr97drop_in_place$LT$syn..punctuated..Punctuated$LT$syn..expr..FieldValue$C$syn..token..Comma$GT$$GT$17h2e8f72bf8395ce2cE', symObjAddr: 0x8930, symBinAddr: 0x20A30, symSize: 0x90 }
  - { offsetInCU: 0x1F8B8, offset: 0x89C77, size: 0x8, addend: 0x0, symName: '__ZN4core3ptr97drop_in_place$LT$syn..punctuated..Punctuated$LT$syn..lifetime..Lifetime$C$syn..token..Add$GT$$GT$17h506bc9a0f6160950E', symObjAddr: 0x89C0, symBinAddr: 0x20AC0, symSize: 0xC6 }
  - { offsetInCU: 0x2734C, offset: 0x9170B, size: 0x8, addend: 0x0, symName: '__ZN40_$LT$F$u20$as$u20$syn..parse..Parser$GT$6parse217h7cca736d57c6869cE', symObjAddr: 0x0, symBinAddr: 0x18100, symSize: 0x380 }
  - { offsetInCU: 0x27B87, offset: 0x91F46, size: 0x8, addend: 0x0, symName: '__ZN40_$LT$F$u20$as$u20$syn..parse..Parser$GT$6parse217h8147b4c9d0b418b5E', symObjAddr: 0x380, symBinAddr: 0x18480, symSize: 0x380 }
  - { offsetInCU: 0x283C2, offset: 0x92781, size: 0x8, addend: 0x0, symName: '__ZN40_$LT$F$u20$as$u20$syn..parse..Parser$GT$6parse217h82cdfeb6fa22ddacE', symObjAddr: 0x700, symBinAddr: 0x18800, symSize: 0x380 }
  - { offsetInCU: 0x5ED, offset: 0x99382, size: 0x8, addend: 0x0, symName: __ZN10proc_macro6bridge6client10run_client17h1c8bf50100b98f50E, symObjAddr: 0x190, symBinAddr: 0x20B90, symSize: 0x2E0 }
  - { offsetInCU: 0xCC7, offset: 0x99A5C, size: 0x8, addend: 0x0, symName: __ZN10proc_macro6bridge6client10run_client17h48ff662a4ecdd01fE, symObjAddr: 0x470, symBinAddr: 0x20E70, symSize: 0x2E0 }
  - { offsetInCU: 0x13A1, offset: 0x9A136, size: 0x8, addend: 0x0, symName: __ZN10proc_macro6bridge6client10run_client17h98b1a3a90a413f6fE, symObjAddr: 0x750, symBinAddr: 0x21150, symSize: 0x2DB }
  - { offsetInCU: 0x7AF, offset: 0x9CCDF, size: 0x8, addend: 0x0, symName: '__ZN68_$LT$$RF$str$u20$as$u20$proc_macro..bridge..rpc..Encode$LT$S$GT$$GT$6encode17hffbaaef9121e59b5E', symObjAddr: 0x80, symBinAddr: 0x21430, symSize: 0x230 }
  - { offsetInCU: 0x1E, offset: 0x9D339, size: 0x8, addend: 0x0, symName: __ZN4core3fmt5Write9write_fmt17hccf7019ed33e1b4eE, symObjAddr: 0x0, symBinAddr: 0x21660, symSize: 0x20 }
  - { offsetInCU: 0x98, offset: 0x9D3B3, size: 0x8, addend: 0x0, symName: '__ZN58_$LT$alloc..string..String$u20$as$u20$core..fmt..Write$GT$10write_char17h04bc467bd68a934bE', symObjAddr: 0x40, symBinAddr: 0x216A0, symSize: 0x140 }
  - { offsetInCU: 0x49D, offset: 0x9D7B8, size: 0x8, addend: 0x0, symName: '__ZN58_$LT$alloc..string..String$u20$as$u20$core..fmt..Write$GT$9write_str17h46a93205c3443fbaE', symObjAddr: 0x180, symBinAddr: 0x217E0, symSize: 0x5B }
  - { offsetInCU: 0xAC1, offset: 0x9DDDC, size: 0x8, addend: 0x0, symName: '__ZN4core3ptr42drop_in_place$LT$alloc..string..String$GT$17h93f2e1412f6023b3E', symObjAddr: 0x20, symBinAddr: 0x21680, symSize: 0x20 }
  - { offsetInCU: 0xE54, offset: 0x9E16F, size: 0x8, addend: 0x0, symName: __ZN4core3fmt5Write9write_fmt17hccf7019ed33e1b4eE, symObjAddr: 0x0, symBinAddr: 0x21660, symSize: 0x20 }
  - { offsetInCU: 0x1E, offset: 0x9EC23, size: 0x8, addend: 0x0, symName: __ZN3syn5error5Error3new17h601e9e6b9db0b246E, symObjAddr: 0x0, symBinAddr: 0x21840, symSize: 0xF0 }
  - { offsetInCU: 0x35, offset: 0x9EC3A, size: 0x8, addend: 0x0, symName: _anon.eedc1b9951df5ac4b10d70707bde1734.0.llvm.17347589742085867873, symObjAddr: 0x300, symBinAddr: 0x2E03A0, symSize: 0x0 }
  - { offsetInCU: 0x154, offset: 0x9ED59, size: 0x8, addend: 0x0, symName: '__ZN58_$LT$alloc..string..String$u20$as$u20$core..fmt..Write$GT$10write_char17h04bc467bd68a934bE.llvm.17347589742085867873', symObjAddr: 0x130, symBinAddr: 0x21970, symSize: 0x140 }
  - { offsetInCU: 0x559, offset: 0x9F15E, size: 0x8, addend: 0x0, symName: '__ZN58_$LT$alloc..string..String$u20$as$u20$core..fmt..Write$GT$9write_str17h46a93205c3443fbaE.llvm.17347589742085867873', symObjAddr: 0x270, symBinAddr: 0x21AB0, symSize: 0x5B }
  - { offsetInCU: 0xCD1, offset: 0x9F8D6, size: 0x8, addend: 0x0, symName: '__ZN4core3ptr42drop_in_place$LT$alloc..string..String$GT$17h93f2e1412f6023b3E.llvm.17347589742085867873', symObjAddr: 0xF0, symBinAddr: 0x21930, symSize: 0x20 }
  - { offsetInCU: 0xF61, offset: 0x9FB66, size: 0x8, addend: 0x0, symName: '__ZN53_$LT$core..fmt..Error$u20$as$u20$core..fmt..Debug$GT$3fmt17h03dc662ab152f3aeE.llvm.17347589742085867873', symObjAddr: 0x110, symBinAddr: 0x21950, symSize: 0x20 }
  - { offsetInCU: 0x12F4, offset: 0x9FEF9, size: 0x8, addend: 0x0, symName: _anon.eedc1b9951df5ac4b10d70707bde1734.4.llvm.17347589742085867873, symObjAddr: 0x348, symBinAddr: 0x2E03E8, symSize: 0x0 }
  - { offsetInCU: 0x164B, offset: 0xA0250, size: 0x8, addend: 0x0, symName: __ZN3syn5error5Error3new17h601e9e6b9db0b246E, symObjAddr: 0x0, symBinAddr: 0x21840, symSize: 0xF0 }
  - { offsetInCU: 0x1E, offset: 0xA0AA6, size: 0x8, addend: 0x0, symName: '__ZN4core3ptr73drop_in_place$LT$core..cell..UnsafeCell$LT$syn..parse..Unexpected$GT$$GT$17hec328da030164e71E.llvm.2426267004542047806', symObjAddr: 0x0, symBinAddr: 0x21B10, symSize: 0x50 }
  - { offsetInCU: 0xB5F, offset: 0xA15E7, size: 0x8, addend: 0x0, symName: '__ZN4core3ptr73drop_in_place$LT$core..cell..UnsafeCell$LT$syn..parse..Unexpected$GT$$GT$17hec328da030164e71E.llvm.2426267004542047806', symObjAddr: 0x0, symBinAddr: 0x21B10, symSize: 0x50 }
  - { offsetInCU: 0x1468, offset: 0xA1EF0, size: 0x8, addend: 0x0, symName: '__ZN68_$LT$alloc..rc..Rc$LT$T$C$A$GT$$u20$as$u20$core..ops..drop..Drop$GT$4drop17h52000d8748a6c001E', symObjAddr: 0x50, symBinAddr: 0x21B60, symSize: 0xE0 }
  - { offsetInCU: 0x1989, offset: 0xA2411, size: 0x8, addend: 0x0, symName: '__ZN68_$LT$alloc..rc..Rc$LT$T$C$A$GT$$u20$as$u20$core..ops..drop..Drop$GT$4drop17h7c04edd6905fcd29E', symObjAddr: 0x130, symBinAddr: 0x21C40, symSize: 0x3C }
  - { offsetInCU: 0x1E, offset: 0xA2FFD, size: 0x8, addend: 0x0, symName: '__ZN10proc_macro6bridge104_$LT$impl$u20$proc_macro..bridge..rpc..Encode$LT$S$GT$$u20$for$u20$core..result..Result$LT$T$C$E$GT$$GT$6encode17h53f34bd83f25b9b4E', symObjAddr: 0x0, symBinAddr: 0x21C80, symSize: 0x300 }
  - { offsetInCU: 0x148, offset: 0xA3127, size: 0x8, addend: 0x0, symName: '__ZN10proc_macro6bridge104_$LT$impl$u20$proc_macro..bridge..rpc..Encode$LT$S$GT$$u20$for$u20$core..result..Result$LT$T$C$E$GT$$GT$6encode17h53f34bd83f25b9b4E', symObjAddr: 0x0, symBinAddr: 0x21C80, symSize: 0x300 }
  - { offsetInCU: 0x5E3, offset: 0xA35C2, size: 0x8, addend: 0x0, symName: '__ZN10proc_macro6bridge104_$LT$impl$u20$proc_macro..bridge..rpc..Encode$LT$S$GT$$u20$for$u20$core..result..Result$LT$T$C$E$GT$$GT$6encode17hbb0dc46ee566694cE', symObjAddr: 0x300, symBinAddr: 0x21F80, symSize: 0x280 }
  - { offsetInCU: 0x1E, offset: 0xA427C, size: 0x8, addend: 0x0, symName: '__ZN10proc_macro6bridge100_$LT$impl$u20$proc_macro..bridge..rpc..Encode$LT$S$GT$$u20$for$u20$core..option..Option$LT$T$GT$$GT$6encode17h0f755b610892e914E', symObjAddr: 0x0, symBinAddr: 0x22200, symSize: 0x240 }
  - { offsetInCU: 0x15E, offset: 0xA43BC, size: 0x8, addend: 0x0, symName: '__ZN10proc_macro6bridge100_$LT$impl$u20$proc_macro..bridge..rpc..Encode$LT$S$GT$$u20$for$u20$core..option..Option$LT$T$GT$$GT$6encode17h0f755b610892e914E', symObjAddr: 0x0, symBinAddr: 0x22200, symSize: 0x240 }
  - { offsetInCU: 0x4E0, offset: 0xA473E, size: 0x8, addend: 0x0, symName: '__ZN10proc_macro6bridge100_$LT$impl$u20$proc_macro..bridge..rpc..Encode$LT$S$GT$$u20$for$u20$core..option..Option$LT$T$GT$$GT$6encode17h2133fa4ee63c0440E', symObjAddr: 0x240, symBinAddr: 0x22440, symSize: 0x345 }
  - { offsetInCU: 0x1E, offset: 0xA5343, size: 0x8, addend: 0x0, symName: __ZN10proc_macro6bridge14selfless_reify31reify_to_extern_c_fn_hrt_bridge7wrapper17h1481f78c8f4883bfE, symObjAddr: 0x0, symBinAddr: 0x22790, symSize: 0x30 }
  - { offsetInCU: 0x215, offset: 0xA553A, size: 0x8, addend: 0x0, symName: __ZN10proc_macro6bridge14selfless_reify31reify_to_extern_c_fn_hrt_bridge7wrapper17h1481f78c8f4883bfE, symObjAddr: 0x0, symBinAddr: 0x22790, symSize: 0x30 }
  - { offsetInCU: 0x28D, offset: 0xA55B2, size: 0x8, addend: 0x0, symName: __ZN10proc_macro6bridge14selfless_reify31reify_to_extern_c_fn_hrt_bridge7wrapper17h749ba94429b3d308E, symObjAddr: 0x30, symBinAddr: 0x227C0, symSize: 0x30 }
  - { offsetInCU: 0x305, offset: 0xA562A, size: 0x8, addend: 0x0, symName: __ZN10proc_macro6bridge14selfless_reify31reify_to_extern_c_fn_hrt_bridge7wrapper17hb106c2f747d1cb40E, symObjAddr: 0x60, symBinAddr: 0x227F0, symSize: 0x25 }
  - { offsetInCU: 0x1E, offset: 0xA587F, size: 0x8, addend: 0x0, symName: '__ZN77_$LT$$LP$A$C$B$RP$$u20$as$u20$proc_macro..bridge..rpc..DecodeMut$LT$S$GT$$GT$6decode17h3c4db135a1850cdeE', symObjAddr: 0x0, symBinAddr: 0x22820, symSize: 0xCA }
  - { offsetInCU: 0xB4, offset: 0xA5915, size: 0x8, addend: 0x0, symName: '__ZN77_$LT$$LP$A$C$B$RP$$u20$as$u20$proc_macro..bridge..rpc..DecodeMut$LT$S$GT$$GT$6decode17h3c4db135a1850cdeE', symObjAddr: 0x0, symBinAddr: 0x22820, symSize: 0xCA }
  - { offsetInCU: 0x1E, offset: 0xA6B83, size: 0x8, addend: 0x0, symName: '__ZN48_$LT$T$u20$as$u20$core..clone..CloneToUninit$GT$15clone_to_uninit17h8246064fb51d50fcE', symObjAddr: 0x0, symBinAddr: 0x22930, symSize: 0x330 }
  - { offsetInCU: 0x18BB, offset: 0xA8420, size: 0x8, addend: 0x0, symName: '__ZN4core3ptr100drop_in_place$LT$core..option..Option$LT$alloc..boxed..Box$LT$syn..generics..LifetimeDef$GT$$GT$$GT$17h40a0d77786a054abE', symObjAddr: 0x330, symBinAddr: 0x22C60, symSize: 0x50 }
  - { offsetInCU: 0x1A4A, offset: 0xA85AF, size: 0x8, addend: 0x0, symName: '__ZN4core3ptr100drop_in_place$LT$core..option..Option$LT$alloc..boxed..Box$LT$syn..path..GenericArgument$GT$$GT$$GT$17h39a7974da1f3f4fdE', symObjAddr: 0x380, symBinAddr: 0x22CB0, symSize: 0x50 }
  - { offsetInCU: 0x1BD9, offset: 0xA873E, size: 0x8, addend: 0x0, symName: '__ZN4core3ptr101drop_in_place$LT$core..option..Option$LT$alloc..boxed..Box$LT$syn..generics..GenericParam$GT$$GT$$GT$17h660fc266b8626d34E', symObjAddr: 0x3D0, symBinAddr: 0x22D00, symSize: 0x50 }
  - { offsetInCU: 0x1E9E, offset: 0xA8A03, size: 0x8, addend: 0x0, symName: '__ZN4core3ptr102drop_in_place$LT$syn..punctuated..Punctuated$LT$syn..generics..LifetimeDef$C$syn..token..Comma$GT$$GT$17hfaf98fff1b12f28bE', symObjAddr: 0x420, symBinAddr: 0x22D50, symSize: 0x170 }
  - { offsetInCU: 0x2395, offset: 0xA8EFA, size: 0x8, addend: 0x0, symName: '__ZN4core3ptr102drop_in_place$LT$syn..punctuated..Punctuated$LT$syn..path..GenericArgument$C$syn..token..Comma$GT$$GT$17h3d8029a06098402cE.llvm.8685067142109120557', symObjAddr: 0x590, symBinAddr: 0x22EC0, symSize: 0xF0 }
  - { offsetInCU: 0x2734, offset: 0xA9299, size: 0x8, addend: 0x0, symName: '__ZN4core3ptr103drop_in_place$LT$core..option..Option$LT$alloc..boxed..Box$LT$syn..generics..TypeParamBound$GT$$GT$$GT$17hec5fbe9b1f83c525E', symObjAddr: 0x680, symBinAddr: 0x22FB0, symSize: 0xA0 }
  - { offsetInCU: 0x2A23, offset: 0xA9588, size: 0x8, addend: 0x0, symName: '__ZN4core3ptr103drop_in_place$LT$core..option..Option$LT$alloc..boxed..Box$LT$syn..generics..WherePredicate$GT$$GT$$GT$17h72068fd3c4de2287E', symObjAddr: 0x720, symBinAddr: 0x23050, symSize: 0x50 }
  - { offsetInCU: 0x2C4D, offset: 0xA97B2, size: 0x8, addend: 0x0, symName: '__ZN4core3ptr103drop_in_place$LT$syn..punctuated..Punctuated$LT$syn..generics..GenericParam$C$syn..token..Comma$GT$$GT$17h614b410794923e64E', symObjAddr: 0x770, symBinAddr: 0x230A0, symSize: 0x1A0 }
  - { offsetInCU: 0x3239, offset: 0xA9D9E, size: 0x8, addend: 0x0, symName: '__ZN4core3ptr103drop_in_place$LT$syn..punctuated..Punctuated$LT$syn..generics..TypeParamBound$C$syn..token..Add$GT$$GT$17h3bdde3b855232bd4E', symObjAddr: 0x910, symBinAddr: 0x23240, symSize: 0x2E0 }
  - { offsetInCU: 0x4027, offset: 0xAAB8C, size: 0x8, addend: 0x0, symName: '__ZN4core3ptr105drop_in_place$LT$syn..punctuated..Punctuated$LT$syn..generics..WherePredicate$C$syn..token..Comma$GT$$GT$17heb19772f020818a4E', symObjAddr: 0xBF0, symBinAddr: 0x23520, symSize: 0x1A0 }
  - { offsetInCU: 0x469D, offset: 0xAB202, size: 0x8, addend: 0x0, symName: '__ZN4core3ptr108drop_in_place$LT$syn..punctuated..Punctuated$LT$syn..expr..GenericMethodArgument$C$syn..token..Comma$GT$$GT$17h067c2d9775c1442dE', symObjAddr: 0xD90, symBinAddr: 0x236C0, symSize: 0x150 }
  - { offsetInCU: 0x4B81, offset: 0xAB6E6, size: 0x8, addend: 0x0, symName: '__ZN4core3ptr126drop_in_place$LT$core..option..Option$LT$$LP$syn..token..And$C$core..option..Option$LT$syn..lifetime..Lifetime$GT$$RP$$GT$$GT$17h3c4694f26244c798E', symObjAddr: 0xEE0, symBinAddr: 0x23810, symSize: 0x30 }
  - { offsetInCU: 0x4E10, offset: 0xAB975, size: 0x8, addend: 0x0, symName: '__ZN4core3ptr33drop_in_place$LT$syn..ty..Abi$GT$17hec8e137044747e82E', symObjAddr: 0xF10, symBinAddr: 0x23840, symSize: 0x70 }
  - { offsetInCU: 0x4E2C, offset: 0xAB991, size: 0x8, addend: 0x0, symName: '__ZN4core3ptr33drop_in_place$LT$syn..ty..Abi$GT$17hec8e137044747e82E', symObjAddr: 0xF10, symBinAddr: 0x23840, symSize: 0x70 }
  - { offsetInCU: 0x5104, offset: 0xABC69, size: 0x8, addend: 0x0, symName: '__ZN4core3ptr34drop_in_place$LT$syn..lit..Lit$GT$17h3500dc1c4a376e74E.llvm.8685067142109120557', symObjAddr: 0xF80, symBinAddr: 0x238B0, symSize: 0x120 }
  - { offsetInCU: 0x55E0, offset: 0xAC145, size: 0x8, addend: 0x0, symName: '__ZN4core3ptr34drop_in_place$LT$syn..pat..Pat$GT$17hb3f462a8dc558397E.llvm.8685067142109120557', symObjAddr: 0x10A0, symBinAddr: 0x239D0, symSize: 0xBE0 }
  - { offsetInCU: 0x90C5, offset: 0xAFC2A, size: 0x8, addend: 0x0, symName: '__ZN4core3ptr34drop_in_place$LT$syn..ty..Type$GT$17h84fc7cfc1cfc210aE.llvm.8685067142109120557', symObjAddr: 0x1C80, symBinAddr: 0x245B0, symSize: 0x410 }
  - { offsetInCU: 0x9DE0, offset: 0xB0945, size: 0x8, addend: 0x0, symName: '__ZN4core3ptr35drop_in_place$LT$syn..expr..Arm$GT$17h03c90304d01b05a5E.llvm.8685067142109120557', symObjAddr: 0x2090, symBinAddr: 0x249C0, symSize: 0x1A0 }
  - { offsetInCU: 0xA4E2, offset: 0xB1047, size: 0x8, addend: 0x0, symName: '__ZN4core3ptr36drop_in_place$LT$syn..attr..Meta$GT$17ha3fa60286024e217E.llvm.8685067142109120557', symObjAddr: 0x2230, symBinAddr: 0x24B60, symSize: 0x1B0 }
  - { offsetInCU: 0xAEC9, offset: 0xB1A2E, size: 0x8, addend: 0x0, symName: '__ZN4core3ptr36drop_in_place$LT$syn..expr..Expr$GT$17hf5da8a3cfdf7003bE.llvm.8685067142109120557', symObjAddr: 0x23E0, symBinAddr: 0x24D10, symSize: 0x1F80 }
  - { offsetInCU: 0x1522D, offset: 0xBBD92, size: 0x8, addend: 0x0, symName: '__ZN4core3ptr36drop_in_place$LT$syn..item..Item$GT$17h9d235d5f7f63a78eE.llvm.8685067142109120557', symObjAddr: 0x4360, symBinAddr: 0x26C90, symSize: 0x16D0 }
  - { offsetInCU: 0x1BE1B, offset: 0xC2980, size: 0x8, addend: 0x0, symName: '__ZN4core3ptr36drop_in_place$LT$syn..mac..Macro$GT$17h52d7aaa7f89c3f3bE', symObjAddr: 0x5A30, symBinAddr: 0x28360, symSize: 0xE0 }
  - { offsetInCU: 0x1C1C1, offset: 0xC2D26, size: 0x8, addend: 0x0, symName: '__ZN4core3ptr36drop_in_place$LT$syn..path..Path$GT$17h4e8f0505e88b5f17E.llvm.8685067142109120557', symObjAddr: 0x5B10, symBinAddr: 0x28440, symSize: 0x160 }
  - { offsetInCU: 0x1C769, offset: 0xC32CE, size: 0x8, addend: 0x0, symName: '__ZN4core3ptr36drop_in_place$LT$syn..stmt..Stmt$GT$17hf59af2f9709f183eE.llvm.8685067142109120557', symObjAddr: 0x5C70, symBinAddr: 0x285A0, symSize: 0x140 }
  - { offsetInCU: 0x1CBFB, offset: 0xC3760, size: 0x8, addend: 0x0, symName: '__ZN4core3ptr37drop_in_place$LT$syn..data..Field$GT$17h5d2d66d741019d9dE.llvm.8685067142109120557', symObjAddr: 0x5DB0, symBinAddr: 0x286E0, symSize: 0x1B0 }
  - { offsetInCU: 0x1D1F5, offset: 0xC3D5A, size: 0x8, addend: 0x0, symName: '__ZN4core3ptr37drop_in_place$LT$syn..item..FnArg$GT$17h8299610a32d709c3E', symObjAddr: 0x5F60, symBinAddr: 0x28890, symSize: 0x190 }
  - { offsetInCU: 0x1DB97, offset: 0xC46FC, size: 0x8, addend: 0x0, symName: '__ZN4core3ptr37drop_in_place$LT$syn..stmt..Block$GT$17hdf76f23a32aaf3e1E', symObjAddr: 0x60F0, symBinAddr: 0x28A20, symSize: 0xD0 }
  - { offsetInCU: 0x1DE75, offset: 0xC49DA, size: 0x8, addend: 0x0, symName: '__ZN4core3ptr38drop_in_place$LT$syn..expr..Member$GT$17h7784fb248c0746b9E.llvm.8685067142109120557', symObjAddr: 0x61C0, symBinAddr: 0x28AF0, symSize: 0x30 }
  - { offsetInCU: 0x1DF71, offset: 0xC4AD6, size: 0x8, addend: 0x0, symName: '__ZN4core3ptr38drop_in_place$LT$syn..pat..PatType$GT$17h8e7e6e0724f50d0eE', symObjAddr: 0x61F0, symBinAddr: 0x28B20, symSize: 0x160 }
  - { offsetInCU: 0x1E529, offset: 0xC508E, size: 0x8, addend: 0x0, symName: '__ZN4core3ptr38drop_in_place$LT$syn..ty..Variadic$GT$17h1c7c59481e3bbac7E', symObjAddr: 0x6350, symBinAddr: 0x28C80, symSize: 0x80 }
  - { offsetInCU: 0x1E7F8, offset: 0xC535D, size: 0x8, addend: 0x0, symName: '__ZN4core3ptr39drop_in_place$LT$proc_macro2..Ident$GT$17h1395e068b10d22cfE', symObjAddr: 0x63D0, symBinAddr: 0x28D00, symSize: 0x30 }
  - { offsetInCU: 0x1E932, offset: 0xC5497, size: 0x8, addend: 0x0, symName: '__ZN4core3ptr39drop_in_place$LT$syn..data..Variant$GT$17h616575f8eb5a63a0E', symObjAddr: 0x6400, symBinAddr: 0x28D30, symSize: 0x330 }
  - { offsetInCU: 0x1F5DB, offset: 0xC6140, size: 0x8, addend: 0x0, symName: '__ZN4core3ptr39drop_in_place$LT$syn..item..UseTree$GT$17h6610c270b1db5412E', symObjAddr: 0x6730, symBinAddr: 0x29060, symSize: 0x1F0 }
  - { offsetInCU: 0x1FCF9, offset: 0xC685E, size: 0x8, addend: 0x0, symName: '__ZN4core3ptr39drop_in_place$LT$syn..pat..PatTuple$GT$17h6967ce12d932909dE', symObjAddr: 0x6920, symBinAddr: 0x29250, symSize: 0x100 }
  - { offsetInCU: 0x20047, offset: 0xC6BAC, size: 0x8, addend: 0x0, symName: '__ZN4core3ptr40drop_in_place$LT$syn..attr..MetaList$GT$17h327676033d229476E.llvm.8685067142109120557', symObjAddr: 0x6A20, symBinAddr: 0x29350, symSize: 0x1C0 }
  - { offsetInCU: 0x204DA, offset: 0xC703F, size: 0x8, addend: 0x0, symName: '__ZN4core3ptr40drop_in_place$LT$syn..item..ImplItem$GT$17h6a3af606fa1fc06eE', symObjAddr: 0x6BE0, symBinAddr: 0x29510, symSize: 0x1F0 }
  - { offsetInCU: 0x20AE6, offset: 0xC764B, size: 0x8, addend: 0x0, symName: '__ZN4core3ptr40drop_in_place$LT$syn..item..Receiver$GT$17hdd81fbcefb2c07f5E', symObjAddr: 0x6DD0, symBinAddr: 0x29700, symSize: 0x140 }
  - { offsetInCU: 0x20F74, offset: 0xC7AD9, size: 0x8, addend: 0x0, symName: '__ZN4core3ptr40drop_in_place$LT$syn..ty..ReturnType$GT$17h42802d49262fb18dE.llvm.8685067142109120557', symObjAddr: 0x6F10, symBinAddr: 0x29840, symSize: 0x50 }
  - { offsetInCU: 0x210E4, offset: 0xC7C49, size: 0x8, addend: 0x0, symName: '__ZN4core3ptr41drop_in_place$LT$syn..attr..Attribute$GT$17h80b1f95587629046E.llvm.8685067142109120557', symObjAddr: 0x6F60, symBinAddr: 0x29890, symSize: 0x40 }
  - { offsetInCU: 0x21254, offset: 0xC7DB9, size: 0x8, addend: 0x0, symName: '__ZN4core3ptr41drop_in_place$LT$syn..item..Signature$GT$17hdb2567744d434ac9E', symObjAddr: 0x6FA0, symBinAddr: 0x298D0, symSize: 0x2C0 }
  - { offsetInCU: 0x22137, offset: 0xC8C9C, size: 0x8, addend: 0x0, symName: '__ZN4core3ptr43drop_in_place$LT$proc_macro2..TokenTree$GT$17h1bd00184d2fb9668E.llvm.8685067142109120557', symObjAddr: 0x72F0, symBinAddr: 0x29B90, symSize: 0x180 }
  - { offsetInCU: 0x2297E, offset: 0xC94E3, size: 0x8, addend: 0x0, symName: '__ZN4core3ptr43drop_in_place$LT$syn..data..FieldsNamed$GT$17h6aece2840349cf94E', symObjAddr: 0x7470, symBinAddr: 0x29D10, symSize: 0x120 }
  - { offsetInCU: 0x22E5D, offset: 0xC99C2, size: 0x8, addend: 0x0, symName: '__ZN4core3ptr43drop_in_place$LT$syn..path..PathSegment$GT$17h7dcfaf989da700bdE.llvm.8685067142109120557', symObjAddr: 0x7590, symBinAddr: 0x29E30, symSize: 0x170 }
  - { offsetInCU: 0x23457, offset: 0xC9FBC, size: 0x8, addend: 0x0, symName: '__ZN4core3ptr44drop_in_place$LT$syn..generics..Generics$GT$17h7718d037d2e238ceE', symObjAddr: 0x7700, symBinAddr: 0x29FA0, symSize: 0x230 }
  - { offsetInCU: 0x23D94, offset: 0xCA8F9, size: 0x8, addend: 0x0, symName: '__ZN4core3ptr44drop_in_place$LT$syn..item..ImplItemType$GT$17hec300ab299fe74baE', symObjAddr: 0x7930, symBinAddr: 0x2A1D0, symSize: 0x200 }
  - { offsetInCU: 0x243B1, offset: 0xCAF16, size: 0x8, addend: 0x0, symName: '__ZN4core3ptr44drop_in_place$LT$syn..lifetime..Lifetime$GT$17h09354e19213b8912E.llvm.8685067142109120557', symObjAddr: 0x7B30, symBinAddr: 0x2A3D0, symSize: 0x30 }
  - { offsetInCU: 0x2450A, offset: 0xCB06F, size: 0x8, addend: 0x0, symName: '__ZN4core3ptr45drop_in_place$LT$proc_macro2..TokenStream$GT$17hc7bf2ec3a51790edE.llvm.8685067142109120557', symObjAddr: 0x7B60, symBinAddr: 0x2A400, symSize: 0x70 }
  - { offsetInCU: 0x2463F, offset: 0xCB1A4, size: 0x8, addend: 0x0, symName: '__ZN4core3ptr45drop_in_place$LT$syn..data..VisRestricted$GT$17hf0b89e1790cfd92fE', symObjAddr: 0x7BD0, symBinAddr: 0x2A470, symSize: 0x100 }
  - { offsetInCU: 0x24B02, offset: 0xCB667, size: 0x8, addend: 0x0, symName: '__ZN4core3ptr45drop_in_place$LT$syn..generics..TypeParam$GT$17h4006cea5920534f4E.llvm.8685067142109120557', symObjAddr: 0x7CD0, symBinAddr: 0x2A570, symSize: 0x260 }
  - { offsetInCU: 0x254BF, offset: 0xCC024, size: 0x8, addend: 0x0, symName: '__ZN4core3ptr45drop_in_place$LT$syn..item..ImplItemConst$GT$17h1c6ab87742d9e876E', symObjAddr: 0x7F30, symBinAddr: 0x2A7D0, symSize: 0x1D0 }
  - { offsetInCU: 0x25A99, offset: 0xCC5FE, size: 0x8, addend: 0x0, symName: '__ZN4core3ptr45drop_in_place$LT$syn..item..TraitItemType$GT$17hb9883d155cdcc2acE', symObjAddr: 0x8100, symBinAddr: 0x2A9A0, symSize: 0x2D0 }
  - { offsetInCU: 0x2652F, offset: 0xCD094, size: 0x8, addend: 0x0, symName: '__ZN4core3ptr46drop_in_place$LT$syn..generics..ConstParam$GT$17h1c41046fa938d09bE.llvm.8685067142109120557', symObjAddr: 0x83D0, symBinAddr: 0x2AC70, symSize: 0x180 }
  - { offsetInCU: 0x26967, offset: 0xCD4CC, size: 0x8, addend: 0x0, symName: '__ZN4core3ptr46drop_in_place$LT$syn..item..ImplItemMethod$GT$17h22529d820099cdb9E', symObjAddr: 0x8550, symBinAddr: 0x2ADF0, symSize: 0x240 }
  - { offsetInCU: 0x27102, offset: 0xCDC67, size: 0x8, addend: 0x0, symName: '__ZN4core3ptr46drop_in_place$LT$syn..item..TraitItemConst$GT$17ha901a5833ea73f95E', symObjAddr: 0x8790, symBinAddr: 0x2B030, symSize: 0x180 }
  - { offsetInCU: 0x2756C, offset: 0xCE0D1, size: 0x8, addend: 0x0, symName: '__ZN4core3ptr47drop_in_place$LT$syn..generics..LifetimeDef$GT$17h1f669b6597c86502E.llvm.8685067142109120557', symObjAddr: 0x8910, symBinAddr: 0x2B1B0, symSize: 0xB0 }
  - { offsetInCU: 0x27934, offset: 0xCE499, size: 0x8, addend: 0x0, symName: '__ZN4core3ptr47drop_in_place$LT$syn..generics..WhereClause$GT$17hbcb0481bdb9e3a33E', symObjAddr: 0x89C0, symBinAddr: 0x2B260, symSize: 0x120 }
  - { offsetInCU: 0x27DF4, offset: 0xCE959, size: 0x8, addend: 0x0, symName: '__ZN4core3ptr47drop_in_place$LT$syn..path..GenericArgument$GT$17hbb3f78ff6fd92a54E', symObjAddr: 0x8AE0, symBinAddr: 0x2B380, symSize: 0x110 }
  - { offsetInCU: 0x2810F, offset: 0xCEC74, size: 0x8, addend: 0x0, symName: '__ZN4core3ptr48drop_in_place$LT$syn..generics..GenericParam$GT$17hfe666ec0842d0534E', symObjAddr: 0x8BF0, symBinAddr: 0x2B490, symSize: 0xF0 }
  - { offsetInCU: 0x284F4, offset: 0xCF059, size: 0x8, addend: 0x0, symName: '__ZN4core3ptr49drop_in_place$LT$syn..generics..PredicateType$GT$17h0c4766e6ad98df21E.llvm.8685067142109120557', symObjAddr: 0x8CE0, symBinAddr: 0x2B580, symSize: 0x230 }
  - { offsetInCU: 0x28F18, offset: 0xCFA7D, size: 0x8, addend: 0x0, symName: '__ZN4core3ptr49drop_in_place$LT$syn..item..ForeignItemStatic$GT$17hbfa672545cb3cb35E', symObjAddr: 0x8F10, symBinAddr: 0x2B7B0, symSize: 0x1D0 }
  - { offsetInCU: 0x296DC, offset: 0xD0241, size: 0x8, addend: 0x0, symName: '__ZN4core3ptr50drop_in_place$LT$$u5b$syn..item..ImplItem$u5d$$GT$17hb6a93028ef2df03dE', symObjAddr: 0x90E0, symBinAddr: 0x2B980, symSize: 0x420 }
  - { offsetInCU: 0x29E3A, offset: 0xD099F, size: 0x8, addend: 0x0, symName: '__ZN4core3ptr50drop_in_place$LT$syn..generics..BoundLifetimes$GT$17hd45793597db90ccbE.llvm.8685067142109120557', symObjAddr: 0x9500, symBinAddr: 0x2BDA0, symSize: 0x110 }
  - { offsetInCU: 0x2A2BA, offset: 0xD0E1F, size: 0x8, addend: 0x0, symName: '__ZN4core3ptr50drop_in_place$LT$syn..generics..TypeParamBound$GT$17h8813cb649f777d26E', symObjAddr: 0x9610, symBinAddr: 0x2BEB0, symSize: 0x80 }
  - { offsetInCU: 0x2A43F, offset: 0xD0FA4, size: 0x8, addend: 0x0, symName: '__ZN4core3ptr50drop_in_place$LT$syn..generics..WherePredicate$GT$17h11fab6c437ce9ec1E', symObjAddr: 0x9690, symBinAddr: 0x2BF30, symSize: 0x110 }
  - { offsetInCU: 0x2A5DF, offset: 0xD1144, size: 0x8, addend: 0x0, symName: '__ZN4core3ptr51drop_in_place$LT$$u5b$syn..attr..Attribute$u5d$$GT$17h8af4c1333ce4a15eE.llvm.8685067142109120557', symObjAddr: 0x97A0, symBinAddr: 0x2C040, symSize: 0x1A0 }
  - { offsetInCU: 0x2A9C5, offset: 0xD152A, size: 0x8, addend: 0x0, symName: '__ZN4core3ptr51drop_in_place$LT$$u5b$syn..item..TraitItem$u5d$$GT$17hc75fa98f2603bdf5E', symObjAddr: 0x9940, symBinAddr: 0x2C1E0, symSize: 0xA90 }
  - { offsetInCU: 0x2C79E, offset: 0xD3303, size: 0x8, addend: 0x0, symName: '__ZN4core3ptr53drop_in_place$LT$$u5b$syn..item..ForeignItem$u5d$$GT$17h2acd6a153b55bd10E', symObjAddr: 0xA3D0, symBinAddr: 0x2CC70, symSize: 0xEC0 }
  - { offsetInCU: 0x2F752, offset: 0xD62B7, size: 0x8, addend: 0x0, symName: '__ZN4core3ptr58drop_in_place$LT$alloc..vec..Vec$LT$syn..expr..Arm$GT$$GT$17ha22998a4c7aaecabE', symObjAddr: 0xB290, symBinAddr: 0x2DB30, symSize: 0xD0 }
  - { offsetInCU: 0x2FA19, offset: 0xD657E, size: 0x8, addend: 0x0, symName: '__ZN4core3ptr59drop_in_place$LT$alloc..boxed..Box$LT$syn..pat..Pat$GT$$GT$17h67dbd0eb65b754a2E.llvm.8685067142109120557', symObjAddr: 0xB360, symBinAddr: 0x2DC00, symSize: 0x50 }
  - { offsetInCU: 0x2FB72, offset: 0xD66D7, size: 0x8, addend: 0x0, symName: '__ZN4core3ptr59drop_in_place$LT$alloc..boxed..Box$LT$syn..ty..Type$GT$$GT$17hccde48193744ef9eE', symObjAddr: 0xB3B0, symBinAddr: 0x2DC50, symSize: 0x50 }
  - { offsetInCU: 0x2FCCB, offset: 0xD6830, size: 0x8, addend: 0x0, symName: '__ZN4core3ptr59drop_in_place$LT$alloc..vec..Vec$LT$syn..item..Item$GT$$GT$17h1fb5a84658b30115E', symObjAddr: 0xB400, symBinAddr: 0x2DCA0, symSize: 0xD0 }
  - { offsetInCU: 0x2FF92, offset: 0xD6AF7, size: 0x8, addend: 0x0, symName: '__ZN4core3ptr59drop_in_place$LT$alloc..vec..Vec$LT$syn..stmt..Stmt$GT$$GT$17h97e30d6272e96003E', symObjAddr: 0xB4D0, symBinAddr: 0x2DD70, symSize: 0xD0 }
  - { offsetInCU: 0x30259, offset: 0xD6DBE, size: 0x8, addend: 0x0, symName: '__ZN4core3ptr61drop_in_place$LT$alloc..boxed..Box$LT$syn..expr..Expr$GT$$GT$17h4aad3cbbe3c740ecE.llvm.8685067142109120557', symObjAddr: 0xB5A0, symBinAddr: 0x2DE40, symSize: 0x50 }
  - { offsetInCU: 0x303B2, offset: 0xD6F17, size: 0x8, addend: 0x0, symName: '__ZN4core3ptr61drop_in_place$LT$alloc..boxed..Box$LT$syn..path..Path$GT$$GT$17ha241a127e393b23dE', symObjAddr: 0xB5F0, symBinAddr: 0x2DE90, symSize: 0x50 }
  - { offsetInCU: 0x305E2, offset: 0xD7147, size: 0x8, addend: 0x0, symName: '__ZN4core3ptr61drop_in_place$LT$syn..path..ParenthesizedGenericArguments$GT$17h9873048f96d6b23aE.llvm.8685067142109120557', symObjAddr: 0xB640, symBinAddr: 0x2DEE0, symSize: 0x170 }
  - { offsetInCU: 0x30BDF, offset: 0xD7744, size: 0x8, addend: 0x0, symName: '__ZN4core3ptr62drop_in_place$LT$alloc..boxed..Box$LT$syn..data..Field$GT$$GT$17h0c1a6d0573ce7e71E', symObjAddr: 0xB7B0, symBinAddr: 0x2E050, symSize: 0x50 }
  - { offsetInCU: 0x30D57, offset: 0xD78BC, size: 0x8, addend: 0x0, symName: '__ZN4core3ptr62drop_in_place$LT$alloc..boxed..Box$LT$syn..item..FnArg$GT$$GT$17h43713556b2ca8d73E', symObjAddr: 0xB800, symBinAddr: 0x2E0A0, symSize: 0x60 }
  - { offsetInCU: 0x30ECD, offset: 0xD7A32, size: 0x8, addend: 0x0, symName: '__ZN4core3ptr62drop_in_place$LT$alloc..boxed..Box$LT$syn..stmt..Block$GT$$GT$17he7b4a31e11251124E', symObjAddr: 0xB860, symBinAddr: 0x2E100, symSize: 0xE0 }
  - { offsetInCU: 0x312E6, offset: 0xD7E4B, size: 0x8, addend: 0x0, symName: '__ZN4core3ptr62drop_in_place$LT$syn..path..AngleBracketedGenericArguments$GT$17he2a860d28837f2f3E.llvm.8685067142109120557', symObjAddr: 0xB940, symBinAddr: 0x2E1E0, symSize: 0x120 }
  - { offsetInCU: 0x31768, offset: 0xD82CD, size: 0x8, addend: 0x0, symName: '__ZN4core3ptr63drop_in_place$LT$alloc..vec..Vec$LT$syn..item..ImplItem$GT$$GT$17h8cd7023c62ce62f7E', symObjAddr: 0xBA60, symBinAddr: 0x2E300, symSize: 0x80 }
  - { offsetInCU: 0x31A20, offset: 0xD8585, size: 0x8, addend: 0x0, symName: '__ZN4core3ptr64drop_in_place$LT$alloc..boxed..Box$LT$syn..data..Variant$GT$$GT$17h5d98cce226bb976bE', symObjAddr: 0xBAE0, symBinAddr: 0x2E380, symSize: 0x50 }
  - { offsetInCU: 0x31B79, offset: 0xD86DE, size: 0x8, addend: 0x0, symName: '__ZN4core3ptr64drop_in_place$LT$alloc..boxed..Box$LT$syn..item..UseTree$GT$$GT$17h03f640fcde2df3d6E', symObjAddr: 0xBB30, symBinAddr: 0x2E3D0, symSize: 0x50 }
  - { offsetInCU: 0x31D10, offset: 0xD8875, size: 0x8, addend: 0x0, symName: '__ZN4core3ptr64drop_in_place$LT$alloc..boxed..Box$LT$syn..pat..FieldPat$GT$$GT$17h6ec0c46fcae11decE', symObjAddr: 0xBB80, symBinAddr: 0x2E420, symSize: 0x100 }
  - { offsetInCU: 0x323D5, offset: 0xD8F3A, size: 0x8, addend: 0x0, symName: '__ZN4core3ptr64drop_in_place$LT$alloc..boxed..Box$LT$syn..ty..BareFnArg$GT$$GT$17h917bce14c66a90e1E', symObjAddr: 0xBC80, symBinAddr: 0x2E520, symSize: 0xA0 }
  - { offsetInCU: 0x32679, offset: 0xD91DE, size: 0x8, addend: 0x0, symName: '__ZN4core3ptr64drop_in_place$LT$alloc..vec..Vec$LT$syn..attr..Attribute$GT$$GT$17h4e6374d2285ccb07E.llvm.8685067142109120557', symObjAddr: 0xBD20, symBinAddr: 0x2E5C0, symSize: 0xF0 }
  - { offsetInCU: 0x32959, offset: 0xD94BE, size: 0x8, addend: 0x0, symName: '__ZN4core3ptr64drop_in_place$LT$alloc..vec..Vec$LT$syn..item..TraitItem$GT$$GT$17hffb953fdc6476177E', symObjAddr: 0xBE10, symBinAddr: 0x2E6B0, symSize: 0x80 }
  - { offsetInCU: 0x32C11, offset: 0xD9776, size: 0x8, addend: 0x0, symName: '__ZN4core3ptr65drop_in_place$LT$$LP$syn..item..FnArg$C$syn..token..Comma$RP$$GT$17h9dad039df1597661E', symObjAddr: 0xBE90, symBinAddr: 0x2E730, symSize: 0x20 }
  - { offsetInCU: 0x32C4D, offset: 0xD97B2, size: 0x8, addend: 0x0, symName: '__ZN4core3ptr65drop_in_place$LT$alloc..vec..Vec$LT$proc_macro..TokenTree$GT$$GT$17h08ebe6987ad77745E.llvm.8685067142109120557', symObjAddr: 0xBEB0, symBinAddr: 0x2E750, symSize: 0x110 }
  - { offsetInCU: 0x3304C, offset: 0xD9BB1, size: 0x8, addend: 0x0, symName: '__ZN4core3ptr65drop_in_place$LT$core..option..Option$LT$syn..expr..Label$GT$$GT$17h72a768dd9fe97001E', symObjAddr: 0xBFC0, symBinAddr: 0x2E860, symSize: 0x30 }
  - { offsetInCU: 0x331A5, offset: 0xD9D0A, size: 0x8, addend: 0x0, symName: '__ZN4core3ptr66drop_in_place$LT$alloc..vec..Vec$LT$proc_macro2..TokenTree$GT$$GT$17h813a6b5e5c61a8b8E', symObjAddr: 0xBFF0, symBinAddr: 0x2E890, symSize: 0xC0 }
  - { offsetInCU: 0x3347D, offset: 0xD9FE2, size: 0x8, addend: 0x0, symName: '__ZN4core3ptr66drop_in_place$LT$alloc..vec..Vec$LT$syn..item..ForeignItem$GT$$GT$17h9adf4b3b55b18fb5E', symObjAddr: 0xC0B0, symBinAddr: 0x2E950, symSize: 0x80 }
  - { offsetInCU: 0x33735, offset: 0xDA29A, size: 0x8, addend: 0x0, symName: '__ZN4core3ptr67drop_in_place$LT$$LP$syn..pat..FieldPat$C$syn..token..Comma$RP$$GT$17h742302675f62febdE.llvm.8685067142109120557', symObjAddr: 0xC130, symBinAddr: 0x2E9D0, symSize: 0xF0 }
  - { offsetInCU: 0x33C87, offset: 0xDA7EC, size: 0x8, addend: 0x0, symName: '__ZN4core3ptr67drop_in_place$LT$$LP$syn..ty..BareFnArg$C$syn..token..Comma$RP$$GT$17h1ea1c85a7c9bded1E.llvm.8685067142109120557', symObjAddr: 0xC220, symBinAddr: 0x2EAC0, symSize: 0x80 }
  - { offsetInCU: 0x33DE4, offset: 0xDA949, size: 0x8, addend: 0x0, symName: '__ZN4core3ptr67drop_in_place$LT$alloc..boxed..Box$LT$syn..attr..NestedMeta$GT$$GT$17h3aa080ef5ccf366dE.llvm.8685067142109120557', symObjAddr: 0xC2A0, symBinAddr: 0x2EB40, symSize: 0x180 }
  - { offsetInCU: 0x3411D, offset: 0xDAC82, size: 0x8, addend: 0x0, symName: '__ZN4core3ptr67drop_in_place$LT$alloc..boxed..Box$LT$syn..expr..FieldValue$GT$$GT$17heeac0703e2f64716E', symObjAddr: 0xC420, symBinAddr: 0x2ECC0, symSize: 0xE0 }
  - { offsetInCU: 0x3465A, offset: 0xDB1BF, size: 0x8, addend: 0x0, symName: '__ZN4core3ptr68drop_in_place$LT$alloc..boxed..Box$LT$syn..path..PathSegment$GT$$GT$17h1fb43a74fca37f34E', symObjAddr: 0xC500, symBinAddr: 0x2EDA0, symSize: 0xD0 }
  - { offsetInCU: 0x34A53, offset: 0xDB5B8, size: 0x8, addend: 0x0, symName: '__ZN4core3ptr70drop_in_place$LT$$LP$syn..attr..NestedMeta$C$syn..token..Comma$RP$$GT$17h2a2ce65fe68f4938E.llvm.8685067142109120557', symObjAddr: 0xC5D0, symBinAddr: 0x2EE70, symSize: 0x30 }
  - { offsetInCU: 0x34A8F, offset: 0xDB5F4, size: 0x8, addend: 0x0, symName: '__ZN4core3ptr70drop_in_place$LT$$LP$syn..expr..FieldValue$C$syn..token..Comma$RP$$GT$17he0889fc8b0fc604eE.llvm.8685067142109120557', symObjAddr: 0xC600, symBinAddr: 0x2EEA0, symSize: 0xD0 }
  - { offsetInCU: 0x34E89, offset: 0xDB9EE, size: 0x8, addend: 0x0, symName: '__ZN4core3ptr72drop_in_place$LT$$LP$syn..path..PathSegment$C$syn..token..Colon2$RP$$GT$17h5be938cd0f83b232E.llvm.8685067142109120557', symObjAddr: 0xC6D0, symBinAddr: 0x2EF70, symSize: 0xC0 }
  - { offsetInCU: 0x3514C, offset: 0xDBCB1, size: 0x8, addend: 0x0, symName: '__ZN4core3ptr72drop_in_place$LT$alloc..boxed..Box$LT$syn..generics..LifetimeDef$GT$$GT$17hc8f4907faa3f6377E', symObjAddr: 0xC790, symBinAddr: 0x2F030, symSize: 0x80 }
  - { offsetInCU: 0x353FB, offset: 0xDBF60, size: 0x8, addend: 0x0, symName: '__ZN4core3ptr72drop_in_place$LT$alloc..boxed..Box$LT$syn..path..GenericArgument$GT$$GT$17ha1236ffbe33cc128E.llvm.8685067142109120557', symObjAddr: 0xC810, symBinAddr: 0x2F0B0, symSize: 0x220 }
  - { offsetInCU: 0x35C6B, offset: 0xDC7D0, size: 0x8, addend: 0x0, symName: '__ZN4core3ptr73drop_in_place$LT$alloc..boxed..Box$LT$syn..generics..GenericParam$GT$$GT$17he448ce685cce0e93E', symObjAddr: 0xCA30, symBinAddr: 0x2F2D0, symSize: 0x80 }
  - { offsetInCU: 0x35DE1, offset: 0xDC946, size: 0x8, addend: 0x0, symName: '__ZN4core3ptr75drop_in_place$LT$$LP$syn..generics..LifetimeDef$C$syn..token..Comma$RP$$GT$17h823aa8e6a0825cfaE.llvm.8685067142109120557', symObjAddr: 0xCAB0, symBinAddr: 0x2F350, symSize: 0x60 }
  - { offsetInCU: 0x35F1E, offset: 0xDCA83, size: 0x8, addend: 0x0, symName: '__ZN4core3ptr75drop_in_place$LT$$LP$syn..path..GenericArgument$C$syn..token..Comma$RP$$GT$17h7da23f3aaf92a0ceE.llvm.8685067142109120557', symObjAddr: 0xCB10, symBinAddr: 0x2F3B0, symSize: 0x220 }
  - { offsetInCU: 0x36652, offset: 0xDD1B7, size: 0x8, addend: 0x0, symName: '__ZN4core3ptr75drop_in_place$LT$alloc..boxed..Box$LT$syn..generics..TypeParamBound$GT$$GT$17h2fcd34561891f8d0E', symObjAddr: 0xCD30, symBinAddr: 0x2F5D0, symSize: 0x150 }
  - { offsetInCU: 0x36BFF, offset: 0xDD764, size: 0x8, addend: 0x0, symName: '__ZN4core3ptr75drop_in_place$LT$alloc..boxed..Box$LT$syn..generics..WherePredicate$GT$$GT$17hc18899f3fb3dac74E', symObjAddr: 0xCE80, symBinAddr: 0x2F720, symSize: 0xD0 }
  - { offsetInCU: 0x36EA7, offset: 0xDDA0C, size: 0x8, addend: 0x0, symName: '__ZN4core3ptr76drop_in_place$LT$$LP$syn..generics..GenericParam$C$syn..token..Comma$RP$$GT$17h623ce3c8e31d0ba0E.llvm.8685067142109120557', symObjAddr: 0xCF50, symBinAddr: 0x2F7F0, symSize: 0x50 }
  - { offsetInCU: 0x36EE3, offset: 0xDDA48, size: 0x8, addend: 0x0, symName: '__ZN4core3ptr76drop_in_place$LT$$LP$syn..generics..TypeParamBound$C$syn..token..Add$RP$$GT$17hab48774597bb9122E.llvm.8685067142109120557', symObjAddr: 0xCFA0, symBinAddr: 0x2F840, symSize: 0x160 }
  - { offsetInCU: 0x37362, offset: 0xDDEC7, size: 0x8, addend: 0x0, symName: '__ZN4core3ptr78drop_in_place$LT$$LP$syn..generics..WherePredicate$C$syn..token..Comma$RP$$GT$17h7b1adfd6d23e4728E.llvm.8685067142109120557', symObjAddr: 0xD100, symBinAddr: 0x2F9A0, symSize: 0xA0 }
  - { offsetInCU: 0x374DA, offset: 0xDE03F, size: 0x8, addend: 0x0, symName: '__ZN4core3ptr78drop_in_place$LT$alloc..boxed..Box$LT$syn..expr..GenericMethodArgument$GT$$GT$17h1d1506ef719f9ff3E', symObjAddr: 0xD1A0, symBinAddr: 0x2FA40, symSize: 0x60 }
  - { offsetInCU: 0x37650, offset: 0xDE1B5, size: 0x8, addend: 0x0, symName: '__ZN4core3ptr81drop_in_place$LT$$LP$syn..expr..GenericMethodArgument$C$syn..token..Comma$RP$$GT$17h89191ee76332ea78E.llvm.8685067142109120557', symObjAddr: 0xD200, symBinAddr: 0x2FAA0, symSize: 0x30 }
  - { offsetInCU: 0x3768C, offset: 0xDE1F1, size: 0x8, addend: 0x0, symName: '__ZN4core3ptr86drop_in_place$LT$$LP$syn..token..If$C$alloc..boxed..Box$LT$syn..expr..Expr$GT$$RP$$GT$17ha662190ca39a2347E', symObjAddr: 0xD230, symBinAddr: 0x2FAD0, symSize: 0x50 }
  - { offsetInCU: 0x37804, offset: 0xDE369, size: 0x8, addend: 0x0, symName: '__ZN4core3ptr86drop_in_place$LT$$u5b$$LP$syn..generics..TypeParamBound$C$syn..token..Add$RP$$u5d$$GT$17he69d2b85f2578cd0E', symObjAddr: 0xD280, symBinAddr: 0x2FB20, symSize: 0xE0 }
  - { offsetInCU: 0x37A56, offset: 0xDE5BB, size: 0x8, addend: 0x0, symName: '__ZN4core3ptr86drop_in_place$LT$syn..punctuated..Punctuated$LT$syn..pat..Pat$C$syn..token..Or$GT$$GT$17h8677625794e672fbE', symObjAddr: 0xD360, symBinAddr: 0x2FC00, symSize: 0x120 }
  - { offsetInCU: 0x37EEF, offset: 0xDEA54, size: 0x8, addend: 0x0, symName: '__ZN4core3ptr87drop_in_place$LT$core..option..Option$LT$alloc..boxed..Box$LT$syn..ty..Type$GT$$GT$$GT$17h7dacba09c4a321b0E', symObjAddr: 0xD480, symBinAddr: 0x2FD20, symSize: 0x50 }
  - { offsetInCU: 0x3805F, offset: 0xDEBC4, size: 0x8, addend: 0x0, symName: '__ZN4core3ptr89drop_in_place$LT$core..option..Option$LT$alloc..boxed..Box$LT$syn..expr..Expr$GT$$GT$$GT$17hb0305b940876c4d8E', symObjAddr: 0xD4D0, symBinAddr: 0x2FD70, symSize: 0x50 }
  - { offsetInCU: 0x381CF, offset: 0xDED34, size: 0x8, addend: 0x0, symName: '__ZN4core3ptr89drop_in_place$LT$syn..punctuated..Punctuated$LT$syn..ty..Type$C$syn..token..Comma$GT$$GT$17h6e2c55dfd5877c8fE.llvm.8685067142109120557', symObjAddr: 0xD520, symBinAddr: 0x2FDC0, symSize: 0x120 }
  - { offsetInCU: 0x38651, offset: 0xDF1B6, size: 0x8, addend: 0x0, symName: '__ZN4core3ptr90drop_in_place$LT$core..option..Option$LT$alloc..boxed..Box$LT$syn..data..Field$GT$$GT$$GT$17hee03a7c964e8a11cE', symObjAddr: 0xD640, symBinAddr: 0x2FEE0, symSize: 0x50 }
  - { offsetInCU: 0x387C1, offset: 0xDF326, size: 0x8, addend: 0x0, symName: '__ZN4core3ptr90drop_in_place$LT$core..option..Option$LT$alloc..boxed..Box$LT$syn..item..FnArg$GT$$GT$$GT$17h145a65039aacf9c8E', symObjAddr: 0xD690, symBinAddr: 0x2FF30, symSize: 0x50 }
  - { offsetInCU: 0x389AD, offset: 0xDF512, size: 0x8, addend: 0x0, symName: '__ZN4core3ptr91drop_in_place$LT$syn..punctuated..Punctuated$LT$syn..expr..Expr$C$syn..token..Comma$GT$$GT$17h362c5eebd58bdd5eE', symObjAddr: 0xD6E0, symBinAddr: 0x2FF80, symSize: 0x120 }
  - { offsetInCU: 0x38E42, offset: 0xDF9A7, size: 0x8, addend: 0x0, symName: '__ZN4core3ptr92drop_in_place$LT$core..option..Option$LT$$LP$syn..token..As$C$proc_macro2..Ident$RP$$GT$$GT$17hf1d558fb5f3e0654E', symObjAddr: 0xD800, symBinAddr: 0x300A0, symSize: 0x30 }
  - { offsetInCU: 0x38F5D, offset: 0xDFAC2, size: 0x8, addend: 0x0, symName: '__ZN4core3ptr92drop_in_place$LT$syn..punctuated..Punctuated$LT$syn..data..Field$C$syn..token..Comma$GT$$GT$17h06e8c7f77012e766E', symObjAddr: 0xD830, symBinAddr: 0x300D0, symSize: 0x120 }
  - { offsetInCU: 0x393DF, offset: 0xDFF44, size: 0x8, addend: 0x0, symName: '__ZN4core3ptr92drop_in_place$LT$syn..punctuated..Punctuated$LT$syn..item..FnArg$C$syn..token..Comma$GT$$GT$17hdbdab56e04412186E', symObjAddr: 0xD950, symBinAddr: 0x301F0, symSize: 0x150 }
  - { offsetInCU: 0x39870, offset: 0xE03D5, size: 0x8, addend: 0x0, symName: '__ZN4core3ptr93drop_in_place$LT$alloc..vec..Vec$LT$$LP$syn..attr..NestedMeta$C$syn..token..Comma$RP$$GT$$GT$17h47878424d8002b69E.llvm.8685067142109120557', symObjAddr: 0xDAA0, symBinAddr: 0x30340, symSize: 0xF0 }
  - { offsetInCU: 0x39C21, offset: 0xE0786, size: 0x8, addend: 0x0, symName: '__ZN4core3ptr94drop_in_place$LT$syn..punctuated..Punctuated$LT$syn..data..Variant$C$syn..token..Comma$GT$$GT$17h94c189d6ebf3aa88E', symObjAddr: 0xDB90, symBinAddr: 0x30430, symSize: 0x120 }
  - { offsetInCU: 0x3A132, offset: 0xE0C97, size: 0x8, addend: 0x0, symName: '__ZN4core3ptr94drop_in_place$LT$syn..punctuated..Punctuated$LT$syn..pat..FieldPat$C$syn..token..Comma$GT$$GT$17h753e7c59509db6b4E', symObjAddr: 0xDCB0, symBinAddr: 0x30550, symSize: 0xF0 }
  - { offsetInCU: 0x3A4E6, offset: 0xE104B, size: 0x8, addend: 0x0, symName: '__ZN4core3ptr94drop_in_place$LT$syn..punctuated..Punctuated$LT$syn..ty..BareFnArg$C$syn..token..Comma$GT$$GT$17h0b7107d96c875a70E', symObjAddr: 0xDDA0, symBinAddr: 0x30640, symSize: 0x1B0 }
  - { offsetInCU: 0x3A9AC, offset: 0xE1511, size: 0x8, addend: 0x0, symName: '__ZN4core3ptr95drop_in_place$LT$core..option..Option$LT$$LP$proc_macro2..Ident$C$syn..token..Colon$RP$$GT$$GT$17h0859fcb328a232b5E.llvm.8685067142109120557', symObjAddr: 0xDF50, symBinAddr: 0x307F0, symSize: 0x30 }
  - { offsetInCU: 0x3AAC7, offset: 0xE162C, size: 0x8, addend: 0x0, symName: '__ZN4core3ptr95drop_in_place$LT$core..option..Option$LT$alloc..boxed..Box$LT$syn..attr..NestedMeta$GT$$GT$$GT$17h2d792e7c8406a8c1E.llvm.8685067142109120557', symObjAddr: 0xDF80, symBinAddr: 0x30820, symSize: 0xC0 }
  - { offsetInCU: 0x3AC21, offset: 0xE1786, size: 0x8, addend: 0x0, symName: '__ZN4core3ptr96drop_in_place$LT$core..option..Option$LT$alloc..boxed..Box$LT$syn..path..PathSegment$GT$$GT$$GT$17h6c3967a4b4d05614E.llvm.8685067142109120557', symObjAddr: 0xE040, symBinAddr: 0x308E0, symSize: 0x90 }
  - { offsetInCU: 0x3AEBF, offset: 0xE1A24, size: 0x8, addend: 0x0, symName: '__ZN4core3ptr97drop_in_place$LT$syn..punctuated..Punctuated$LT$syn..attr..NestedMeta$C$syn..token..Comma$GT$$GT$17hc2b3810b6d2283d0E.llvm.8685067142109120557', symObjAddr: 0xE120, symBinAddr: 0x30970, symSize: 0x110 }
  - { offsetInCU: 0x3B268, offset: 0xE1DCD, size: 0x8, addend: 0x0, symName: '__ZN4core3ptr97drop_in_place$LT$syn..punctuated..Punctuated$LT$syn..expr..FieldValue$C$syn..token..Comma$GT$$GT$17h67baaacd0e7405d8E', symObjAddr: 0xE230, symBinAddr: 0x30A80, symSize: 0xF0 }
  - { offsetInCU: 0x3B61A, offset: 0xE217F, size: 0x8, addend: 0x0, symName: '__ZN4core3ptr97drop_in_place$LT$syn..punctuated..Punctuated$LT$syn..lifetime..Lifetime$C$syn..token..Add$GT$$GT$17h82a397fa2949afd1E.llvm.8685067142109120557', symObjAddr: 0xE320, symBinAddr: 0x30B70, symSize: 0xD0 }
  - { offsetInCU: 0x3BA8C, offset: 0xE25F1, size: 0x8, addend: 0x0, symName: '__ZN4core3ptr99drop_in_place$LT$syn..punctuated..Punctuated$LT$syn..path..PathSegment$C$syn..token..Colon2$GT$$GT$17h2a71af21d617cd63E.llvm.8685067142109120557', symObjAddr: 0xE3F0, symBinAddr: 0x30C40, symSize: 0x1A0 }
  - { offsetInCU: 0x3E286, offset: 0xE4DEB, size: 0x8, addend: 0x0, symName: '__ZN48_$LT$T$u20$as$u20$core..clone..CloneToUninit$GT$15clone_to_uninit17h8246064fb51d50fcE', symObjAddr: 0x0, symBinAddr: 0x22930, symSize: 0x330 }
  - { offsetInCU: 0x40AAA, offset: 0xE760F, size: 0x8, addend: 0x0, symName: '__ZN70_$LT$alloc..vec..Vec$LT$T$C$A$GT$$u20$as$u20$core..ops..drop..Drop$GT$4drop17h420862df07f9a715E', symObjAddr: 0xE710, symBinAddr: 0x30DE0, symSize: 0xD0 }
  - { offsetInCU: 0x40BF7, offset: 0xE775C, size: 0x8, addend: 0x0, symName: '__ZN70_$LT$alloc..vec..Vec$LT$T$C$A$GT$$u20$as$u20$core..ops..drop..Drop$GT$4drop17h5f220e033c0372a3E', symObjAddr: 0xE960, symBinAddr: 0x30EB0, symSize: 0xC0 }
  - { offsetInCU: 0x40C59, offset: 0xE77BE, size: 0x8, addend: 0x0, symName: '__ZN70_$LT$alloc..vec..Vec$LT$T$C$A$GT$$u20$as$u20$core..ops..drop..Drop$GT$4drop17h82f6389efb1e8793E', symObjAddr: 0xEC70, symBinAddr: 0x30F70, symSize: 0xB0 }
  - { offsetInCU: 0x1E, offset: 0xF2B62, size: 0x8, addend: 0x0, symName: '__ZN4core3ptr100drop_in_place$LT$core..option..Option$LT$alloc..boxed..Box$LT$syn..generics..LifetimeDef$GT$$GT$$GT$17h40a0d77786a054abE', symObjAddr: 0x0, symBinAddr: 0x31020, symSize: 0x50 }
  - { offsetInCU: 0xA8, offset: 0xF2BEC, size: 0x8, addend: 0x0, symName: '__ZN58_$LT$alloc..string..String$u20$as$u20$core..fmt..Write$GT$10write_char17h04bc467bd68a934bE', symObjAddr: 0x79F0, symBinAddr: 0x38A10, symSize: 0x140 }
  - { offsetInCU: 0x4AD, offset: 0xF2FF1, size: 0x8, addend: 0x0, symName: '__ZN58_$LT$alloc..string..String$u20$as$u20$core..fmt..Write$GT$9write_str17h46a93205c3443fbaE', symObjAddr: 0x7B30, symBinAddr: 0x38B50, symSize: 0x60 }
  - { offsetInCU: 0x764, offset: 0xF32A8, size: 0x8, addend: 0x0, symName: '__ZN60_$LT$alloc..string..String$u20$as$u20$core..fmt..Display$GT$3fmt17h0d0eb46f3054e2dfE', symObjAddr: 0x7B90, symBinAddr: 0x38BB0, symSize: 0x20 }
  - { offsetInCU: 0x3E99, offset: 0xF69DD, size: 0x8, addend: 0x0, symName: '__ZN4core3ptr100drop_in_place$LT$core..option..Option$LT$alloc..boxed..Box$LT$syn..generics..LifetimeDef$GT$$GT$$GT$17h40a0d77786a054abE', symObjAddr: 0x0, symBinAddr: 0x31020, symSize: 0x50 }
  - { offsetInCU: 0x401B, offset: 0xF6B5F, size: 0x8, addend: 0x0, symName: '__ZN4core3ptr100drop_in_place$LT$core..option..Option$LT$alloc..boxed..Box$LT$syn..path..GenericArgument$GT$$GT$$GT$17h39a7974da1f3f4fdE', symObjAddr: 0x50, symBinAddr: 0x31070, symSize: 0x50 }
  - { offsetInCU: 0x42FF, offset: 0xF6E43, size: 0x8, addend: 0x0, symName: '__ZN4core3ptr101drop_in_place$LT$core..option..Option$LT$alloc..boxed..Box$LT$syn..generics..GenericParam$GT$$GT$$GT$17h660fc266b8626d34E', symObjAddr: 0xA0, symBinAddr: 0x310C0, symSize: 0x310 }
  - { offsetInCU: 0x4D3A, offset: 0xF787E, size: 0x8, addend: 0x0, symName: '__ZN4core3ptr103drop_in_place$LT$core..option..Option$LT$alloc..boxed..Box$LT$syn..generics..WherePredicate$GT$$GT$$GT$17h72068fd3c4de2287E', symObjAddr: 0x3B0, symBinAddr: 0x313D0, symSize: 0x120 }
  - { offsetInCU: 0x514C, offset: 0xF7C90, size: 0x8, addend: 0x0, symName: '__ZN4core3ptr103drop_in_place$LT$syn..punctuated..Punctuated$LT$syn..generics..TypeParamBound$C$syn..token..Add$GT$$GT$17h3bdde3b855232bd4E', symObjAddr: 0x4D0, symBinAddr: 0x314F0, symSize: 0x200 }
  - { offsetInCU: 0x5A3D, offset: 0xF8581, size: 0x8, addend: 0x0, symName: '__ZN4core3ptr108drop_in_place$LT$syn..punctuated..Punctuated$LT$syn..expr..GenericMethodArgument$C$syn..token..Comma$GT$$GT$17h067c2d9775c1442dE', symObjAddr: 0x6D0, symBinAddr: 0x316F0, symSize: 0x150 }
  - { offsetInCU: 0x5F96, offset: 0xF8ADA, size: 0x8, addend: 0x0, symName: '__ZN4core3ptr34drop_in_place$LT$syn..lit..Lit$GT$17h3500dc1c4a376e74E', symObjAddr: 0x820, symBinAddr: 0x31840, symSize: 0x110 }
  - { offsetInCU: 0x6408, offset: 0xF8F4C, size: 0x8, addend: 0x0, symName: '__ZN4core3ptr34drop_in_place$LT$syn..pat..Pat$GT$17hb3f462a8dc558397E', symObjAddr: 0x930, symBinAddr: 0x31950, symSize: 0x1050 }
  - { offsetInCU: 0x9DC7, offset: 0xFC90B, size: 0x8, addend: 0x0, symName: '__ZN4core3ptr34drop_in_place$LT$syn..ty..Type$GT$17h84fc7cfc1cfc210aE', symObjAddr: 0x1980, symBinAddr: 0x329A0, symSize: 0x5F0 }
  - { offsetInCU: 0xB976, offset: 0xFE4BA, size: 0x8, addend: 0x0, symName: '__ZN4core3ptr36drop_in_place$LT$syn..expr..Expr$GT$17hf5da8a3cfdf7003bE', symObjAddr: 0x1F70, symBinAddr: 0x32F90, symSize: 0x31D0 }
  - { offsetInCU: 0x15EFF, offset: 0x108A43, size: 0x8, addend: 0x0, symName: '__ZN4core3ptr36drop_in_place$LT$syn..mac..Macro$GT$17h52d7aaa7f89c3f3bE', symObjAddr: 0x5140, symBinAddr: 0x36160, symSize: 0xE0 }
  - { offsetInCU: 0x16305, offset: 0x108E49, size: 0x8, addend: 0x0, symName: '__ZN4core3ptr36drop_in_place$LT$syn..path..Path$GT$17h4e8f0505e88b5f17E', symObjAddr: 0x5220, symBinAddr: 0x36240, symSize: 0x230 }
  - { offsetInCU: 0x16C9B, offset: 0x1097DF, size: 0x8, addend: 0x0, symName: '__ZN4core3ptr37drop_in_place$LT$syn..stmt..Block$GT$17hdf76f23a32aaf3e1E', symObjAddr: 0x5450, symBinAddr: 0x36470, symSize: 0xD0 }
  - { offsetInCU: 0x1700D, offset: 0x109B51, size: 0x8, addend: 0x0, symName: '__ZN4core3ptr38drop_in_place$LT$syn..data..Fields$GT$17h8b9808b72c16eb3eE', symObjAddr: 0x5520, symBinAddr: 0x36540, symSize: 0x180 }
  - { offsetInCU: 0x17453, offset: 0x109F97, size: 0x8, addend: 0x0, symName: '__ZN4core3ptr38drop_in_place$LT$syn..expr..Member$GT$17h7784fb248c0746b9E', symObjAddr: 0x56A0, symBinAddr: 0x366C0, symSize: 0x30 }
  - { offsetInCU: 0x1754F, offset: 0x10A093, size: 0x8, addend: 0x0, symName: '__ZN4core3ptr39drop_in_place$LT$proc_macro2..Ident$GT$17h1395e068b10d22cfE', symObjAddr: 0x56D0, symBinAddr: 0x366F0, symSize: 0x30 }
  - { offsetInCU: 0x1762C, offset: 0x10A170, size: 0x8, addend: 0x0, symName: '__ZN4core3ptr39drop_in_place$LT$syn..pat..PatTuple$GT$17h6967ce12d932909dE', symObjAddr: 0x5700, symBinAddr: 0x36720, symSize: 0x100 }
  - { offsetInCU: 0x17935, offset: 0x10A479, size: 0x8, addend: 0x0, symName: '__ZN4core3ptr40drop_in_place$LT$syn..ty..ReturnType$GT$17h42802d49262fb18dE', symObjAddr: 0x5800, symBinAddr: 0x36820, symSize: 0x50 }
  - { offsetInCU: 0x17AA5, offset: 0x10A5E9, size: 0x8, addend: 0x0, symName: '__ZN4core3ptr41drop_in_place$LT$syn..attr..Attribute$GT$17h80b1f95587629046E', symObjAddr: 0x5850, symBinAddr: 0x36870, symSize: 0x40 }
  - { offsetInCU: 0x17AC2, offset: 0x10A606, size: 0x8, addend: 0x0, symName: '__ZN4core3ptr42drop_in_place$LT$alloc..string..String$GT$17h57b3bd4f14f8a296E', symObjAddr: 0x5890, symBinAddr: 0x368B0, symSize: 0x20 }
  - { offsetInCU: 0x17C08, offset: 0x10A74C, size: 0x8, addend: 0x0, symName: '__ZN4core3ptr42drop_in_place$LT$syn..data..Visibility$GT$17h024306b53472a237E', symObjAddr: 0x58B0, symBinAddr: 0x368D0, symSize: 0x60 }
  - { offsetInCU: 0x17D98, offset: 0x10A8DC, size: 0x8, addend: 0x0, symName: '__ZN4core3ptr42drop_in_place$LT$syn..item..ItemStruct$GT$17h4bef94b0c3066f5aE', symObjAddr: 0x5910, symBinAddr: 0x36930, symSize: 0x190 }
  - { offsetInCU: 0x1835C, offset: 0x10AEA0, size: 0x8, addend: 0x0, symName: '__ZN4core3ptr44drop_in_place$LT$syn..generics..Generics$GT$17h7718d037d2e238ceE', symObjAddr: 0x5AA0, symBinAddr: 0x36AC0, symSize: 0xA0 }
  - { offsetInCU: 0x185C8, offset: 0x10B10C, size: 0x8, addend: 0x0, symName: '__ZN4core3ptr44drop_in_place$LT$syn..lifetime..Lifetime$GT$17h09354e19213b8912E', symObjAddr: 0x5B40, symBinAddr: 0x36B60, symSize: 0x30 }
  - { offsetInCU: 0x187FA, offset: 0x10B33E, size: 0x8, addend: 0x0, symName: '__ZN4core3ptr45drop_in_place$LT$proc_macro2..TokenStream$GT$17hc7bf2ec3a51790edE', symObjAddr: 0x5B70, symBinAddr: 0x36B90, symSize: 0x140 }
  - { offsetInCU: 0x18C43, offset: 0x10B787, size: 0x8, addend: 0x0, symName: '__ZN4core3ptr45drop_in_place$LT$syn..data..FieldsUnnamed$GT$17h1b427c4bc0abd93eE', symObjAddr: 0x5CB0, symBinAddr: 0x36CD0, symSize: 0xE0 }
  - { offsetInCU: 0x18F65, offset: 0x10BAA9, size: 0x8, addend: 0x0, symName: '__ZN4core3ptr47drop_in_place$LT$syn..generics..LifetimeDef$GT$17h1f669b6597c86502E', symObjAddr: 0x5D90, symBinAddr: 0x36DB0, symSize: 0x120 }
  - { offsetInCU: 0x193C0, offset: 0x10BF04, size: 0x8, addend: 0x0, symName: '__ZN4core3ptr47drop_in_place$LT$syn..path..GenericArgument$GT$17hbb3f78ff6fd92a54E', symObjAddr: 0x5EB0, symBinAddr: 0x36ED0, symSize: 0x110 }
  - { offsetInCU: 0x196EE, offset: 0x10C232, size: 0x8, addend: 0x0, symName: '__ZN4core3ptr58drop_in_place$LT$alloc..vec..Vec$LT$syn..expr..Arm$GT$$GT$17ha22998a4c7aaecabE', symObjAddr: 0x5FC0, symBinAddr: 0x36FE0, symSize: 0xD0 }
  - { offsetInCU: 0x199AE, offset: 0x10C4F2, size: 0x8, addend: 0x0, symName: '__ZN4core3ptr59drop_in_place$LT$alloc..boxed..Box$LT$syn..pat..Pat$GT$$GT$17h67dbd0eb65b754a2E', symObjAddr: 0x6090, symBinAddr: 0x370B0, symSize: 0x50 }
  - { offsetInCU: 0x19B07, offset: 0x10C64B, size: 0x8, addend: 0x0, symName: '__ZN4core3ptr59drop_in_place$LT$alloc..boxed..Box$LT$syn..ty..Type$GT$$GT$17hccde48193744ef9eE', symObjAddr: 0x60E0, symBinAddr: 0x37100, symSize: 0x50 }
  - { offsetInCU: 0x19C60, offset: 0x10C7A4, size: 0x8, addend: 0x0, symName: '__ZN4core3ptr61drop_in_place$LT$alloc..boxed..Box$LT$syn..expr..Expr$GT$$GT$17h4aad3cbbe3c740ecE', symObjAddr: 0x6130, symBinAddr: 0x37150, symSize: 0x50 }
  - { offsetInCU: 0x19DB9, offset: 0x10C8FD, size: 0x8, addend: 0x0, symName: '__ZN4core3ptr61drop_in_place$LT$syn..path..ParenthesizedGenericArguments$GT$17h9873048f96d6b23aE', symObjAddr: 0x6180, symBinAddr: 0x371A0, symSize: 0x170 }
  - { offsetInCU: 0x1A3C2, offset: 0x10CF06, size: 0x8, addend: 0x0, symName: '__ZN4core3ptr63drop_in_place$LT$alloc..boxed..Box$LT$syn..lit..LitRepr$GT$$GT$17h057f2da5c89855e0E', symObjAddr: 0x62F0, symBinAddr: 0x37310, symSize: 0x60 }
  - { offsetInCU: 0x1A6C9, offset: 0x10D20D, size: 0x8, addend: 0x0, symName: '__ZN4core3ptr64drop_in_place$LT$alloc..boxed..Box$LT$syn..pat..FieldPat$GT$$GT$17h6ec0c46fcae11decE', symObjAddr: 0x6350, symBinAddr: 0x37370, symSize: 0x180 }
  - { offsetInCU: 0x1ADE6, offset: 0x10D92A, size: 0x8, addend: 0x0, symName: '__ZN4core3ptr64drop_in_place$LT$alloc..boxed..Box$LT$syn..ty..BareFnArg$GT$$GT$17h917bce14c66a90e1E', symObjAddr: 0x64D0, symBinAddr: 0x374F0, symSize: 0x160 }
  - { offsetInCU: 0x1B37C, offset: 0x10DEC0, size: 0x8, addend: 0x0, symName: '__ZN4core3ptr64drop_in_place$LT$alloc..vec..Vec$LT$syn..attr..Attribute$GT$$GT$17h4e6374d2285ccb07E', symObjAddr: 0x6630, symBinAddr: 0x37650, symSize: 0xF0 }
  - { offsetInCU: 0x1B672, offset: 0x10E1B6, size: 0x8, addend: 0x0, symName: '__ZN4core3ptr65drop_in_place$LT$alloc..vec..Vec$LT$proc_macro..TokenTree$GT$$GT$17h08ebe6987ad77745E', symObjAddr: 0x6720, symBinAddr: 0x37740, symSize: 0x110 }
  - { offsetInCU: 0x1BA6A, offset: 0x10E5AE, size: 0x8, addend: 0x0, symName: '__ZN4core3ptr65drop_in_place$LT$core..option..Option$LT$syn..expr..Label$GT$$GT$17h72a768dd9fe97001E', symObjAddr: 0x6830, symBinAddr: 0x37850, symSize: 0x30 }
  - { offsetInCU: 0x1BBA4, offset: 0x10E6E8, size: 0x8, addend: 0x0, symName: '__ZN4core3ptr66drop_in_place$LT$core..option..Option$LT$syn..ty..Variadic$GT$$GT$17h7883b411235ba0d7E', symObjAddr: 0x6860, symBinAddr: 0x37880, symSize: 0xF0 }
  - { offsetInCU: 0x1BECE, offset: 0x10EA12, size: 0x8, addend: 0x0, symName: '__ZN4core3ptr67drop_in_place$LT$alloc..boxed..Box$LT$syn..expr..FieldValue$GT$$GT$17heeac0703e2f64716E', symObjAddr: 0x6950, symBinAddr: 0x37970, symSize: 0x160 }
  - { offsetInCU: 0x1C463, offset: 0x10EFA7, size: 0x8, addend: 0x0, symName: '__ZN4core3ptr68drop_in_place$LT$alloc..vec..Vec$LT$proc_macro2..TokenStream$GT$$GT$17h30928b44f288c886E', symObjAddr: 0x6AB0, symBinAddr: 0x37AD0, symSize: 0xC0 }
  - { offsetInCU: 0x1C721, offset: 0x10F265, size: 0x8, addend: 0x0, symName: '__ZN4core3ptr72drop_in_place$LT$core..option..Option$LT$syn..lifetime..Lifetime$GT$$GT$17h202ec0a71a372640E', symObjAddr: 0x6B70, symBinAddr: 0x37B90, symSize: 0x30 }
  - { offsetInCU: 0x1C83C, offset: 0x10F380, size: 0x8, addend: 0x0, symName: '__ZN4core3ptr75drop_in_place$LT$alloc..boxed..Box$LT$syn..generics..TypeParamBound$GT$$GT$17h2fcd34561891f8d0E', symObjAddr: 0x6BA0, symBinAddr: 0x37BC0, symSize: 0x140 }
  - { offsetInCU: 0x1CE13, offset: 0x10F957, size: 0x8, addend: 0x0, symName: '__ZN4core3ptr75drop_in_place$LT$core..option..Option$LT$syn..generics..WhereClause$GT$$GT$17hc0d91d2531d68f75E', symObjAddr: 0x6CE0, symBinAddr: 0x37D00, symSize: 0xF0 }
  - { offsetInCU: 0x1D135, offset: 0x10FC79, size: 0x8, addend: 0x0, symName: '__ZN4core3ptr78drop_in_place$LT$alloc..boxed..Box$LT$syn..expr..GenericMethodArgument$GT$$GT$17h1d1506ef719f9ff3E', symObjAddr: 0x6DD0, symBinAddr: 0x37DF0, symSize: 0x60 }
  - { offsetInCU: 0x1D346, offset: 0x10FE8A, size: 0x8, addend: 0x0, symName: '__ZN4core3ptr78drop_in_place$LT$core..option..Option$LT$syn..generics..BoundLifetimes$GT$$GT$17h0bc587c1c638e696E', symObjAddr: 0x6E30, symBinAddr: 0x37E50, symSize: 0xC0 }
  - { offsetInCU: 0x1D77C, offset: 0x1102C0, size: 0x8, addend: 0x0, symName: '__ZN4core3ptr86drop_in_place$LT$syn..punctuated..Punctuated$LT$syn..pat..Pat$C$syn..token..Or$GT$$GT$17h8677625794e672fbE', symObjAddr: 0x6EF0, symBinAddr: 0x37F10, symSize: 0x120 }
  - { offsetInCU: 0x1DBF7, offset: 0x11073B, size: 0x8, addend: 0x0, symName: '__ZN4core3ptr87drop_in_place$LT$core..option..Option$LT$alloc..boxed..Box$LT$syn..pat..Pat$GT$$GT$$GT$17h3ddee4c5327d170bE', symObjAddr: 0x7010, symBinAddr: 0x38030, symSize: 0x50 }
  - { offsetInCU: 0x1DD67, offset: 0x1108AB, size: 0x8, addend: 0x0, symName: '__ZN4core3ptr87drop_in_place$LT$core..option..Option$LT$alloc..boxed..Box$LT$syn..ty..Type$GT$$GT$$GT$17h7dacba09c4a321b0E', symObjAddr: 0x7060, symBinAddr: 0x38080, symSize: 0x50 }
  - { offsetInCU: 0x1DED7, offset: 0x110A1B, size: 0x8, addend: 0x0, symName: '__ZN4core3ptr89drop_in_place$LT$core..option..Option$LT$alloc..boxed..Box$LT$syn..expr..Expr$GT$$GT$$GT$17hb0305b940876c4d8E', symObjAddr: 0x70B0, symBinAddr: 0x380D0, symSize: 0x50 }
  - { offsetInCU: 0x1E085, offset: 0x110BC9, size: 0x8, addend: 0x0, symName: '__ZN4core3ptr89drop_in_place$LT$syn..punctuated..Punctuated$LT$syn..pat..Pat$C$syn..token..Comma$GT$$GT$17hb966506de2c8c6a8E', symObjAddr: 0x7100, symBinAddr: 0x38120, symSize: 0x120 }
  - { offsetInCU: 0x1E574, offset: 0x1110B8, size: 0x8, addend: 0x0, symName: '__ZN4core3ptr90drop_in_place$LT$core..option..Option$LT$alloc..boxed..Box$LT$syn..data..Field$GT$$GT$$GT$17hee03a7c964e8a11cE', symObjAddr: 0x7220, symBinAddr: 0x38240, symSize: 0x1D0 }
  - { offsetInCU: 0x1EC6F, offset: 0x1117B3, size: 0x8, addend: 0x0, symName: '__ZN4core3ptr91drop_in_place$LT$syn..punctuated..Punctuated$LT$syn..expr..Expr$C$syn..token..Comma$GT$$GT$17h362c5eebd58bdd5eE', symObjAddr: 0x73F0, symBinAddr: 0x38410, symSize: 0x120 }
  - { offsetInCU: 0x1F0FD, offset: 0x111C41, size: 0x8, addend: 0x0, symName: '__ZN4core3ptr94drop_in_place$LT$syn..punctuated..Punctuated$LT$syn..pat..FieldPat$C$syn..token..Comma$GT$$GT$17h753e7c59509db6b4E', symObjAddr: 0x7510, symBinAddr: 0x38530, symSize: 0xF0 }
  - { offsetInCU: 0x1F3FC, offset: 0x111F40, size: 0x8, addend: 0x0, symName: '__ZN4core3ptr94drop_in_place$LT$syn..punctuated..Punctuated$LT$syn..ty..BareFnArg$C$syn..token..Comma$GT$$GT$17h0b7107d96c875a70E', symObjAddr: 0x7600, symBinAddr: 0x38620, symSize: 0x90 }
  - { offsetInCU: 0x1F66C, offset: 0x1121B0, size: 0x8, addend: 0x0, symName: '__ZN4core3ptr96drop_in_place$LT$core..option..Option$LT$alloc..boxed..Box$LT$syn..path..PathSegment$GT$$GT$$GT$17h6c3967a4b4d05614E', symObjAddr: 0x7690, symBinAddr: 0x386B0, symSize: 0x180 }
  - { offsetInCU: 0x1FD29, offset: 0x11286D, size: 0x8, addend: 0x0, symName: '__ZN4core3ptr97drop_in_place$LT$syn..punctuated..Punctuated$LT$syn..expr..FieldValue$C$syn..token..Comma$GT$$GT$17h67baaacd0e7405d8E', symObjAddr: 0x7810, symBinAddr: 0x38830, symSize: 0xF0 }
  - { offsetInCU: 0x200A2, offset: 0x112BE6, size: 0x8, addend: 0x0, symName: '__ZN4core3ptr97drop_in_place$LT$syn..punctuated..Punctuated$LT$syn..lifetime..Lifetime$C$syn..token..Add$GT$$GT$17h82a397fa2949afd1E', symObjAddr: 0x7900, symBinAddr: 0x38920, symSize: 0xD0 }
  - { offsetInCU: 0x20CC4, offset: 0x113808, size: 0x8, addend: 0x0, symName: '__ZN53_$LT$core..fmt..Error$u20$as$u20$core..fmt..Debug$GT$3fmt17h03dc662ab152f3aeE', symObjAddr: 0x79D0, symBinAddr: 0x389F0, symSize: 0x20 }
  - { offsetInCU: 0x2A833, offset: 0x11D377, size: 0x8, addend: 0x0, symName: __ZN28borsh_schema_derive_internal11enum_schema12process_enum17h4451eb56a2d93cd6E, symObjAddr: 0x7BB0, symBinAddr: 0x38BD0, symSize: 0x27A7 }
  - { offsetInCU: 0x1E, offset: 0x123A6C, size: 0x8, addend: 0x0, symName: '__ZN100_$LT$syn..punctuated..PrivateIter$LT$T$C$P$GT$$u20$as$u20$core..iter..traits..iterator..Iterator$GT$4next17h54194f822e1765eaE.llvm.14983211868764099088', symObjAddr: 0x0, symBinAddr: 0x3B380, symSize: 0x30 }
  - { offsetInCU: 0x619, offset: 0x124067, size: 0x8, addend: 0x0, symName: '__ZN100_$LT$syn..punctuated..PrivateIter$LT$T$C$P$GT$$u20$as$u20$core..iter..traits..iterator..Iterator$GT$4next17h54194f822e1765eaE.llvm.14983211868764099088', symObjAddr: 0x0, symBinAddr: 0x3B380, symSize: 0x30 }
  - { offsetInCU: 0x893, offset: 0x1242E1, size: 0x8, addend: 0x0, symName: '__ZN100_$LT$syn..punctuated..PrivateIter$LT$T$C$P$GT$$u20$as$u20$core..iter..traits..iterator..Iterator$GT$4next17hc32a64eb8e817f69E.llvm.14983211868764099088', symObjAddr: 0x30, symBinAddr: 0x3B3B0, symSize: 0x30 }
  - { offsetInCU: 0x933F, offset: 0x12CD8D, size: 0x8, addend: 0x0, symName: '__ZN4core3ptr100drop_in_place$LT$core..option..Option$LT$alloc..boxed..Box$LT$syn..generics..LifetimeDef$GT$$GT$$GT$17h40a0d77786a054abE', symObjAddr: 0x430, symBinAddr: 0x3B5A0, symSize: 0x150 }
  - { offsetInCU: 0x98BB, offset: 0x12D309, size: 0x8, addend: 0x0, symName: '__ZN4core3ptr100drop_in_place$LT$core..option..Option$LT$alloc..boxed..Box$LT$syn..path..GenericArgument$GT$$GT$$GT$17h39a7974da1f3f4fdE', symObjAddr: 0x580, symBinAddr: 0x3B6F0, symSize: 0x50 }
  - { offsetInCU: 0x9B61, offset: 0x12D5AF, size: 0x8, addend: 0x0, symName: '__ZN4core3ptr103drop_in_place$LT$syn..punctuated..Punctuated$LT$syn..generics..TypeParamBound$C$syn..token..Add$GT$$GT$17h3bdde3b855232bd4E', symObjAddr: 0x5D0, symBinAddr: 0x3B740, symSize: 0x200 }
  - { offsetInCU: 0xA452, offset: 0x12DEA0, size: 0x8, addend: 0x0, symName: '__ZN4core3ptr108drop_in_place$LT$syn..punctuated..Punctuated$LT$syn..expr..GenericMethodArgument$C$syn..token..Comma$GT$$GT$17h067c2d9775c1442dE', symObjAddr: 0x7D0, symBinAddr: 0x3B940, symSize: 0x150 }
  - { offsetInCU: 0xA9AB, offset: 0x12E3F9, size: 0x8, addend: 0x0, symName: '__ZN4core3ptr34drop_in_place$LT$syn..lit..Lit$GT$17h3500dc1c4a376e74E', symObjAddr: 0x920, symBinAddr: 0x3BA90, symSize: 0x110 }
  - { offsetInCU: 0xAE1D, offset: 0x12E86B, size: 0x8, addend: 0x0, symName: '__ZN4core3ptr34drop_in_place$LT$syn..pat..Pat$GT$17hb3f462a8dc558397E', symObjAddr: 0xA30, symBinAddr: 0x3BBA0, symSize: 0x1050 }
  - { offsetInCU: 0xE7DC, offset: 0x13222A, size: 0x8, addend: 0x0, symName: '__ZN4core3ptr34drop_in_place$LT$syn..ty..Type$GT$17h84fc7cfc1cfc210aE.llvm.14983211868764099088', symObjAddr: 0x1A80, symBinAddr: 0x3CBF0, symSize: 0x5F0 }
  - { offsetInCU: 0x1038B, offset: 0x133DD9, size: 0x8, addend: 0x0, symName: '__ZN4core3ptr36drop_in_place$LT$syn..expr..Expr$GT$17hf5da8a3cfdf7003bE', symObjAddr: 0x2070, symBinAddr: 0x3D1E0, symSize: 0x31D0 }
  - { offsetInCU: 0x1A914, offset: 0x13E362, size: 0x8, addend: 0x0, symName: '__ZN4core3ptr36drop_in_place$LT$syn..mac..Macro$GT$17h52d7aaa7f89c3f3bE', symObjAddr: 0x5240, symBinAddr: 0x403B0, symSize: 0xE0 }
  - { offsetInCU: 0x1AD1A, offset: 0x13E768, size: 0x8, addend: 0x0, symName: '__ZN4core3ptr36drop_in_place$LT$syn..path..Path$GT$17h4e8f0505e88b5f17E.llvm.14983211868764099088', symObjAddr: 0x5320, symBinAddr: 0x40490, symSize: 0x230 }
  - { offsetInCU: 0x1B72C, offset: 0x13F17A, size: 0x8, addend: 0x0, symName: '__ZN4core3ptr37drop_in_place$LT$syn..data..Field$GT$17h5d2d66d741019d9dE.llvm.14983211868764099088', symObjAddr: 0x5550, symBinAddr: 0x406C0, symSize: 0x190 }
  - { offsetInCU: 0x1BC8C, offset: 0x13F6DA, size: 0x8, addend: 0x0, symName: '__ZN4core3ptr37drop_in_place$LT$syn..stmt..Block$GT$17hdf76f23a32aaf3e1E', symObjAddr: 0x56E0, symBinAddr: 0x40850, symSize: 0xD0 }
  - { offsetInCU: 0x1BF63, offset: 0x13F9B1, size: 0x8, addend: 0x0, symName: '__ZN4core3ptr39drop_in_place$LT$proc_macro2..Ident$GT$17h1395e068b10d22cfE', symObjAddr: 0x57B0, symBinAddr: 0x40920, symSize: 0x30 }
  - { offsetInCU: 0x1C040, offset: 0x13FA8E, size: 0x8, addend: 0x0, symName: '__ZN4core3ptr39drop_in_place$LT$syn..pat..PatTuple$GT$17h6967ce12d932909dE', symObjAddr: 0x57E0, symBinAddr: 0x40950, symSize: 0x100 }
  - { offsetInCU: 0x1C349, offset: 0x13FD97, size: 0x8, addend: 0x0, symName: '__ZN4core3ptr40drop_in_place$LT$syn..ty..ReturnType$GT$17h42802d49262fb18dE', symObjAddr: 0x58E0, symBinAddr: 0x40A50, symSize: 0x50 }
  - { offsetInCU: 0x1C4B9, offset: 0x13FF07, size: 0x8, addend: 0x0, symName: '__ZN4core3ptr42drop_in_place$LT$syn..data..Visibility$GT$17h024306b53472a237E.llvm.14983211868764099088', symObjAddr: 0x5930, symBinAddr: 0x40AA0, symSize: 0x60 }
  - { offsetInCU: 0x1C62A, offset: 0x140078, size: 0x8, addend: 0x0, symName: '__ZN4core3ptr44drop_in_place$LT$syn..lifetime..Lifetime$GT$17h09354e19213b8912E', symObjAddr: 0x5990, symBinAddr: 0x40B00, symSize: 0x30 }
  - { offsetInCU: 0x1C85C, offset: 0x1402AA, size: 0x8, addend: 0x0, symName: '__ZN4core3ptr45drop_in_place$LT$proc_macro2..TokenStream$GT$17hc7bf2ec3a51790edE', symObjAddr: 0x59C0, symBinAddr: 0x40B30, symSize: 0x140 }
  - { offsetInCU: 0x1CCF6, offset: 0x140744, size: 0x8, addend: 0x0, symName: '__ZN4core3ptr47drop_in_place$LT$syn..path..GenericArgument$GT$17hbb3f78ff6fd92a54E', symObjAddr: 0x5B00, symBinAddr: 0x40C70, symSize: 0x110 }
  - { offsetInCU: 0x1D024, offset: 0x140A72, size: 0x8, addend: 0x0, symName: '__ZN4core3ptr58drop_in_place$LT$alloc..vec..Vec$LT$syn..expr..Arm$GT$$GT$17ha22998a4c7aaecabE', symObjAddr: 0x5C10, symBinAddr: 0x40D80, symSize: 0xD0 }
  - { offsetInCU: 0x1D2E4, offset: 0x140D32, size: 0x8, addend: 0x0, symName: '__ZN4core3ptr59drop_in_place$LT$alloc..boxed..Box$LT$syn..pat..Pat$GT$$GT$17h67dbd0eb65b754a2E', symObjAddr: 0x5CE0, symBinAddr: 0x40E50, symSize: 0x50 }
  - { offsetInCU: 0x1D43D, offset: 0x140E8B, size: 0x8, addend: 0x0, symName: '__ZN4core3ptr59drop_in_place$LT$alloc..boxed..Box$LT$syn..ty..Type$GT$$GT$17hccde48193744ef9eE', symObjAddr: 0x5D30, symBinAddr: 0x40EA0, symSize: 0x50 }
  - { offsetInCU: 0x1D596, offset: 0x140FE4, size: 0x8, addend: 0x0, symName: '__ZN4core3ptr61drop_in_place$LT$alloc..boxed..Box$LT$syn..expr..Expr$GT$$GT$17h4aad3cbbe3c740ecE', symObjAddr: 0x5D80, symBinAddr: 0x40EF0, symSize: 0x50 }
  - { offsetInCU: 0x1D6EF, offset: 0x14113D, size: 0x8, addend: 0x0, symName: '__ZN4core3ptr61drop_in_place$LT$syn..path..ParenthesizedGenericArguments$GT$17h9873048f96d6b23aE', symObjAddr: 0x5DD0, symBinAddr: 0x40F40, symSize: 0x170 }
  - { offsetInCU: 0x1DCF8, offset: 0x141746, size: 0x8, addend: 0x0, symName: '__ZN4core3ptr63drop_in_place$LT$alloc..boxed..Box$LT$syn..lit..LitRepr$GT$$GT$17h057f2da5c89855e0E', symObjAddr: 0x5F40, symBinAddr: 0x410B0, symSize: 0x60 }
  - { offsetInCU: 0x1DFFF, offset: 0x141A4D, size: 0x8, addend: 0x0, symName: '__ZN4core3ptr64drop_in_place$LT$alloc..boxed..Box$LT$syn..pat..FieldPat$GT$$GT$17h6ec0c46fcae11decE', symObjAddr: 0x5FA0, symBinAddr: 0x41110, symSize: 0x180 }
  - { offsetInCU: 0x1E71C, offset: 0x14216A, size: 0x8, addend: 0x0, symName: '__ZN4core3ptr64drop_in_place$LT$alloc..boxed..Box$LT$syn..ty..BareFnArg$GT$$GT$17h917bce14c66a90e1E', symObjAddr: 0x6120, symBinAddr: 0x41290, symSize: 0x160 }
  - { offsetInCU: 0x1ECB2, offset: 0x142700, size: 0x8, addend: 0x0, symName: '__ZN4core3ptr65drop_in_place$LT$alloc..vec..Vec$LT$proc_macro..TokenTree$GT$$GT$17h08ebe6987ad77745E', symObjAddr: 0x6280, symBinAddr: 0x413F0, symSize: 0x110 }
  - { offsetInCU: 0x1F0AA, offset: 0x142AF8, size: 0x8, addend: 0x0, symName: '__ZN4core3ptr65drop_in_place$LT$core..option..Option$LT$syn..expr..Label$GT$$GT$17h72a768dd9fe97001E', symObjAddr: 0x6390, symBinAddr: 0x41500, symSize: 0x30 }
  - { offsetInCU: 0x1F1E4, offset: 0x142C32, size: 0x8, addend: 0x0, symName: '__ZN4core3ptr66drop_in_place$LT$core..option..Option$LT$syn..ty..Variadic$GT$$GT$17h7883b411235ba0d7E', symObjAddr: 0x63C0, symBinAddr: 0x41530, symSize: 0xF0 }
  - { offsetInCU: 0x1F50E, offset: 0x142F5C, size: 0x8, addend: 0x0, symName: '__ZN4core3ptr67drop_in_place$LT$alloc..boxed..Box$LT$syn..expr..FieldValue$GT$$GT$17heeac0703e2f64716E', symObjAddr: 0x64B0, symBinAddr: 0x41620, symSize: 0x160 }
  - { offsetInCU: 0x1FA84, offset: 0x1434D2, size: 0x8, addend: 0x0, symName: '__ZN4core3ptr67drop_in_place$LT$core..option..Option$LT$proc_macro2..Ident$GT$$GT$17h870b19fef5582b37E.llvm.14983211868764099088', symObjAddr: 0x6610, symBinAddr: 0x41780, symSize: 0x30 }
  - { offsetInCU: 0x1FB80, offset: 0x1435CE, size: 0x8, addend: 0x0, symName: '__ZN4core3ptr72drop_in_place$LT$core..option..Option$LT$syn..lifetime..Lifetime$GT$$GT$17h202ec0a71a372640E', symObjAddr: 0x6640, symBinAddr: 0x417B0, symSize: 0x30 }
  - { offsetInCU: 0x1FC9B, offset: 0x1436E9, size: 0x8, addend: 0x0, symName: '__ZN4core3ptr75drop_in_place$LT$alloc..boxed..Box$LT$syn..generics..TypeParamBound$GT$$GT$17h2fcd34561891f8d0E', symObjAddr: 0x6670, symBinAddr: 0x417E0, symSize: 0x140 }
  - { offsetInCU: 0x201F6, offset: 0x143C44, size: 0x8, addend: 0x0, symName: '__ZN4core3ptr78drop_in_place$LT$alloc..boxed..Box$LT$syn..expr..GenericMethodArgument$GT$$GT$17h1d1506ef719f9ff3E', symObjAddr: 0x67B0, symBinAddr: 0x41920, symSize: 0x60 }
  - { offsetInCU: 0x203E8, offset: 0x143E36, size: 0x8, addend: 0x0, symName: '__ZN4core3ptr78drop_in_place$LT$core..option..Option$LT$syn..generics..BoundLifetimes$GT$$GT$17h0bc587c1c638e696E', symObjAddr: 0x6810, symBinAddr: 0x41980, symSize: 0x90 }
  - { offsetInCU: 0x206D6, offset: 0x144124, size: 0x8, addend: 0x0, symName: '__ZN4core3ptr86drop_in_place$LT$syn..punctuated..Punctuated$LT$syn..pat..Pat$C$syn..token..Or$GT$$GT$17h8677625794e672fbE', symObjAddr: 0x68A0, symBinAddr: 0x41A10, symSize: 0x120 }
  - { offsetInCU: 0x20B51, offset: 0x14459F, size: 0x8, addend: 0x0, symName: '__ZN4core3ptr87drop_in_place$LT$core..option..Option$LT$alloc..boxed..Box$LT$syn..pat..Pat$GT$$GT$$GT$17h3ddee4c5327d170bE', symObjAddr: 0x69C0, symBinAddr: 0x41B30, symSize: 0x50 }
  - { offsetInCU: 0x20CC1, offset: 0x14470F, size: 0x8, addend: 0x0, symName: '__ZN4core3ptr87drop_in_place$LT$core..option..Option$LT$alloc..boxed..Box$LT$syn..ty..Type$GT$$GT$$GT$17h7dacba09c4a321b0E', symObjAddr: 0x6A10, symBinAddr: 0x41B80, symSize: 0x50 }
  - { offsetInCU: 0x20E31, offset: 0x14487F, size: 0x8, addend: 0x0, symName: '__ZN4core3ptr89drop_in_place$LT$core..option..Option$LT$alloc..boxed..Box$LT$syn..expr..Expr$GT$$GT$$GT$17hb0305b940876c4d8E', symObjAddr: 0x6A60, symBinAddr: 0x41BD0, symSize: 0x50 }
  - { offsetInCU: 0x20FDF, offset: 0x144A2D, size: 0x8, addend: 0x0, symName: '__ZN4core3ptr89drop_in_place$LT$syn..punctuated..Punctuated$LT$syn..pat..Pat$C$syn..token..Comma$GT$$GT$17hb966506de2c8c6a8E', symObjAddr: 0x6AB0, symBinAddr: 0x41C20, symSize: 0x120 }
  - { offsetInCU: 0x214AF, offset: 0x144EFD, size: 0x8, addend: 0x0, symName: '__ZN4core3ptr91drop_in_place$LT$syn..punctuated..Punctuated$LT$syn..expr..Expr$C$syn..token..Comma$GT$$GT$17h362c5eebd58bdd5eE', symObjAddr: 0x6BD0, symBinAddr: 0x41D40, symSize: 0x120 }
  - { offsetInCU: 0x2193D, offset: 0x14538B, size: 0x8, addend: 0x0, symName: '__ZN4core3ptr94drop_in_place$LT$syn..punctuated..Punctuated$LT$syn..pat..FieldPat$C$syn..token..Comma$GT$$GT$17h753e7c59509db6b4E', symObjAddr: 0x6CF0, symBinAddr: 0x41E60, symSize: 0xF0 }
  - { offsetInCU: 0x21C3C, offset: 0x14568A, size: 0x8, addend: 0x0, symName: '__ZN4core3ptr94drop_in_place$LT$syn..punctuated..Punctuated$LT$syn..ty..BareFnArg$C$syn..token..Comma$GT$$GT$17h0b7107d96c875a70E', symObjAddr: 0x6DE0, symBinAddr: 0x41F50, symSize: 0x90 }
  - { offsetInCU: 0x21EAC, offset: 0x1458FA, size: 0x8, addend: 0x0, symName: '__ZN4core3ptr96drop_in_place$LT$core..option..Option$LT$alloc..boxed..Box$LT$syn..path..PathSegment$GT$$GT$$GT$17h6c3967a4b4d05614E', symObjAddr: 0x6E70, symBinAddr: 0x41FE0, symSize: 0x180 }
  - { offsetInCU: 0x22569, offset: 0x145FB7, size: 0x8, addend: 0x0, symName: '__ZN4core3ptr97drop_in_place$LT$syn..punctuated..Punctuated$LT$syn..expr..FieldValue$C$syn..token..Comma$GT$$GT$17h67baaacd0e7405d8E', symObjAddr: 0x6FF0, symBinAddr: 0x42160, symSize: 0xF0 }
  - { offsetInCU: 0x228E2, offset: 0x146330, size: 0x8, addend: 0x0, symName: '__ZN4core3ptr97drop_in_place$LT$syn..punctuated..Punctuated$LT$syn..lifetime..Lifetime$C$syn..token..Add$GT$$GT$17h82a397fa2949afd1E', symObjAddr: 0x70E0, symBinAddr: 0x42250, symSize: 0xD0 }
  - { offsetInCU: 0x261DB, offset: 0x149C29, size: 0x8, addend: 0x0, symName: '__ZN3syn10punctuated23Punctuated$LT$T$C$P$GT$4push17h6fce8b927b9260d7E', symObjAddr: 0x200, symBinAddr: 0x3B3E0, symSize: 0x1C0 }
  - { offsetInCU: 0x1E, offset: 0x14CCEB, size: 0x8, addend: 0x0, symName: __ZN5alloc7raw_vec11finish_grow17h411bc9f2d88be0c7E.llvm.11519797625793402020, symObjAddr: 0x0, symBinAddr: 0x42320, symSize: 0xA0 }
  - { offsetInCU: 0x3EAF, offset: 0x150B7C, size: 0x8, addend: 0x0, symName: __ZN5alloc7raw_vec11finish_grow17h411bc9f2d88be0c7E.llvm.11519797625793402020, symObjAddr: 0x0, symBinAddr: 0x42320, symSize: 0xA0 }
  - { offsetInCU: 0x4287, offset: 0x150F54, size: 0x8, addend: 0x0, symName: '__ZN5alloc7raw_vec19RawVec$LT$T$C$A$GT$7reserve21do_reserve_and_handle17hc97d7a252379182cE', symObjAddr: 0x160, symBinAddr: 0x25E650, symSize: 0xA0 }
  - { offsetInCU: 0x5F33, offset: 0x152C00, size: 0x8, addend: 0x0, symName: '__ZN5alloc7raw_vec19RawVec$LT$T$C$A$GT$8grow_one17h030946818bd2c910E', symObjAddr: 0x200, symBinAddr: 0x423C0, symSize: 0xC0 }
  - { offsetInCU: 0x6272, offset: 0x152F3F, size: 0x8, addend: 0x0, symName: '__ZN5alloc7raw_vec19RawVec$LT$T$C$A$GT$8grow_one17h13c6c46c9c78ef83E', symObjAddr: 0x2C0, symBinAddr: 0x42480, symSize: 0xA0 }
  - { offsetInCU: 0xB940, offset: 0x15860D, size: 0x8, addend: 0x0, symName: '__ZN5alloc7raw_vec19RawVec$LT$T$C$A$GT$8grow_one17h4568810b75b7bb04E', symObjAddr: 0x360, symBinAddr: 0x42520, symSize: 0xC0 }
  - { offsetInCU: 0xBE1B, offset: 0x158AE8, size: 0x8, addend: 0x0, symName: '__ZN5alloc7raw_vec19RawVec$LT$T$C$A$GT$8grow_one17hf14200a55355a1b6E', symObjAddr: 0x420, symBinAddr: 0x425E0, symSize: 0xB0 }
  - { offsetInCU: 0x1E, offset: 0x158F49, size: 0x8, addend: 0x0, symName: '__ZN4core3ptr100drop_in_place$LT$core..option..Option$LT$alloc..boxed..Box$LT$syn..generics..LifetimeDef$GT$$GT$$GT$17h40a0d77786a054abE', symObjAddr: 0x0, symBinAddr: 0x42690, symSize: 0x150 }
  - { offsetInCU: 0x9B, offset: 0x158FC6, size: 0x8, addend: 0x0, symName: '__ZN58_$LT$alloc..string..String$u20$as$u20$core..fmt..Write$GT$10write_char17h04bc467bd68a934bE', symObjAddr: 0x6F00, symBinAddr: 0x49590, symSize: 0x140 }
  - { offsetInCU: 0x4A1, offset: 0x1593CC, size: 0x8, addend: 0x0, symName: '__ZN58_$LT$alloc..string..String$u20$as$u20$core..fmt..Write$GT$9write_str17h46a93205c3443fbaE', symObjAddr: 0x7040, symBinAddr: 0x496D0, symSize: 0x60 }
  - { offsetInCU: 0x1A0F, offset: 0x15A93A, size: 0x8, addend: 0x0, symName: '__ZN4core3ptr100drop_in_place$LT$core..option..Option$LT$alloc..boxed..Box$LT$syn..generics..LifetimeDef$GT$$GT$$GT$17h40a0d77786a054abE', symObjAddr: 0x0, symBinAddr: 0x42690, symSize: 0x150 }
  - { offsetInCU: 0x1F8B, offset: 0x15AEB6, size: 0x8, addend: 0x0, symName: '__ZN4core3ptr100drop_in_place$LT$core..option..Option$LT$alloc..boxed..Box$LT$syn..path..GenericArgument$GT$$GT$$GT$17h39a7974da1f3f4fdE', symObjAddr: 0x150, symBinAddr: 0x427E0, symSize: 0x50 }
  - { offsetInCU: 0x2231, offset: 0x15B15C, size: 0x8, addend: 0x0, symName: '__ZN4core3ptr103drop_in_place$LT$syn..punctuated..Punctuated$LT$syn..generics..TypeParamBound$C$syn..token..Add$GT$$GT$17h3bdde3b855232bd4E', symObjAddr: 0x1A0, symBinAddr: 0x42830, symSize: 0x200 }
  - { offsetInCU: 0x2B22, offset: 0x15BA4D, size: 0x8, addend: 0x0, symName: '__ZN4core3ptr108drop_in_place$LT$syn..punctuated..Punctuated$LT$syn..expr..GenericMethodArgument$C$syn..token..Comma$GT$$GT$17h067c2d9775c1442dE', symObjAddr: 0x3A0, symBinAddr: 0x42A30, symSize: 0x150 }
  - { offsetInCU: 0x307B, offset: 0x15BFA6, size: 0x8, addend: 0x0, symName: '__ZN4core3ptr34drop_in_place$LT$syn..lit..Lit$GT$17h3500dc1c4a376e74E', symObjAddr: 0x4F0, symBinAddr: 0x42B80, symSize: 0x110 }
  - { offsetInCU: 0x34ED, offset: 0x15C418, size: 0x8, addend: 0x0, symName: '__ZN4core3ptr34drop_in_place$LT$syn..pat..Pat$GT$17hb3f462a8dc558397E', symObjAddr: 0x600, symBinAddr: 0x42C90, symSize: 0x1050 }
  - { offsetInCU: 0x6EAC, offset: 0x15FDD7, size: 0x8, addend: 0x0, symName: '__ZN4core3ptr34drop_in_place$LT$syn..ty..Type$GT$17h84fc7cfc1cfc210aE', symObjAddr: 0x1650, symBinAddr: 0x43CE0, symSize: 0x5F0 }
  - { offsetInCU: 0x83F0, offset: 0x16131B, size: 0x8, addend: 0x0, symName: '__ZN4core3ptr36drop_in_place$LT$syn..attr..Meta$GT$17ha3fa60286024e217E', symObjAddr: 0x1C40, symBinAddr: 0x442D0, symSize: 0xB0 }
  - { offsetInCU: 0x8AFF, offset: 0x161A2A, size: 0x8, addend: 0x0, symName: '__ZN4core3ptr36drop_in_place$LT$syn..expr..Expr$GT$17hf5da8a3cfdf7003bE', symObjAddr: 0x1CF0, symBinAddr: 0x44380, symSize: 0x31D0 }
  - { offsetInCU: 0x13088, offset: 0x16BFB3, size: 0x8, addend: 0x0, symName: '__ZN4core3ptr36drop_in_place$LT$syn..mac..Macro$GT$17h52d7aaa7f89c3f3bE', symObjAddr: 0x4EC0, symBinAddr: 0x47550, symSize: 0xE0 }
  - { offsetInCU: 0x1348E, offset: 0x16C3B9, size: 0x8, addend: 0x0, symName: '__ZN4core3ptr36drop_in_place$LT$syn..path..Path$GT$17h4e8f0505e88b5f17E', symObjAddr: 0x4FA0, symBinAddr: 0x47630, symSize: 0x230 }
  - { offsetInCU: 0x13E24, offset: 0x16CD4F, size: 0x8, addend: 0x0, symName: '__ZN4core3ptr37drop_in_place$LT$syn..stmt..Block$GT$17hdf76f23a32aaf3e1E', symObjAddr: 0x51D0, symBinAddr: 0x47860, symSize: 0xD0 }
  - { offsetInCU: 0x140FB, offset: 0x16D026, size: 0x8, addend: 0x0, symName: '__ZN4core3ptr38drop_in_place$LT$syn..expr..Member$GT$17h7784fb248c0746b9E', symObjAddr: 0x52A0, symBinAddr: 0x47930, symSize: 0x30 }
  - { offsetInCU: 0x141F7, offset: 0x16D122, size: 0x8, addend: 0x0, symName: '__ZN4core3ptr39drop_in_place$LT$proc_macro2..Ident$GT$17h1395e068b10d22cfE', symObjAddr: 0x52D0, symBinAddr: 0x47960, symSize: 0x30 }
  - { offsetInCU: 0x142D4, offset: 0x16D1FF, size: 0x8, addend: 0x0, symName: '__ZN4core3ptr39drop_in_place$LT$syn..pat..PatTuple$GT$17h6967ce12d932909dE', symObjAddr: 0x5300, symBinAddr: 0x47990, symSize: 0x100 }
  - { offsetInCU: 0x145DD, offset: 0x16D508, size: 0x8, addend: 0x0, symName: '__ZN4core3ptr40drop_in_place$LT$syn..ty..ReturnType$GT$17h42802d49262fb18dE', symObjAddr: 0x5400, symBinAddr: 0x47A90, symSize: 0x50 }
  - { offsetInCU: 0x1474D, offset: 0x16D678, size: 0x8, addend: 0x0, symName: '__ZN4core3ptr42drop_in_place$LT$alloc..string..String$GT$17h57b3bd4f14f8a296E', symObjAddr: 0x5450, symBinAddr: 0x47AE0, symSize: 0x20 }
  - { offsetInCU: 0x14855, offset: 0x16D780, size: 0x8, addend: 0x0, symName: '__ZN4core3ptr44drop_in_place$LT$syn..lifetime..Lifetime$GT$17h09354e19213b8912E', symObjAddr: 0x5470, symBinAddr: 0x47B00, symSize: 0x30 }
  - { offsetInCU: 0x14A87, offset: 0x16D9B2, size: 0x8, addend: 0x0, symName: '__ZN4core3ptr45drop_in_place$LT$proc_macro2..TokenStream$GT$17hc7bf2ec3a51790edE', symObjAddr: 0x54A0, symBinAddr: 0x47B30, symSize: 0x140 }
  - { offsetInCU: 0x14F22, offset: 0x16DE4D, size: 0x8, addend: 0x0, symName: '__ZN4core3ptr47drop_in_place$LT$syn..path..GenericArgument$GT$17hbb3f78ff6fd92a54E', symObjAddr: 0x55E0, symBinAddr: 0x47C70, symSize: 0x110 }
  - { offsetInCU: 0x15250, offset: 0x16E17B, size: 0x8, addend: 0x0, symName: '__ZN4core3ptr58drop_in_place$LT$alloc..vec..Vec$LT$syn..expr..Arm$GT$$GT$17ha22998a4c7aaecabE', symObjAddr: 0x56F0, symBinAddr: 0x47D80, symSize: 0xD0 }
  - { offsetInCU: 0x15510, offset: 0x16E43B, size: 0x8, addend: 0x0, symName: '__ZN4core3ptr59drop_in_place$LT$alloc..boxed..Box$LT$syn..pat..Pat$GT$$GT$17h67dbd0eb65b754a2E', symObjAddr: 0x57C0, symBinAddr: 0x47E50, symSize: 0x50 }
  - { offsetInCU: 0x15669, offset: 0x16E594, size: 0x8, addend: 0x0, symName: '__ZN4core3ptr59drop_in_place$LT$alloc..boxed..Box$LT$syn..ty..Type$GT$$GT$17hccde48193744ef9eE', symObjAddr: 0x5810, symBinAddr: 0x47EA0, symSize: 0x50 }
  - { offsetInCU: 0x157C2, offset: 0x16E6ED, size: 0x8, addend: 0x0, symName: '__ZN4core3ptr61drop_in_place$LT$alloc..boxed..Box$LT$syn..expr..Expr$GT$$GT$17h4aad3cbbe3c740ecE', symObjAddr: 0x5860, symBinAddr: 0x47EF0, symSize: 0x50 }
  - { offsetInCU: 0x1591B, offset: 0x16E846, size: 0x8, addend: 0x0, symName: '__ZN4core3ptr61drop_in_place$LT$syn..path..ParenthesizedGenericArguments$GT$17h9873048f96d6b23aE', symObjAddr: 0x58B0, symBinAddr: 0x47F40, symSize: 0x170 }
  - { offsetInCU: 0x15F24, offset: 0x16EE4F, size: 0x8, addend: 0x0, symName: '__ZN4core3ptr63drop_in_place$LT$alloc..boxed..Box$LT$syn..lit..LitRepr$GT$$GT$17h057f2da5c89855e0E', symObjAddr: 0x5A20, symBinAddr: 0x480B0, symSize: 0x60 }
  - { offsetInCU: 0x1622B, offset: 0x16F156, size: 0x8, addend: 0x0, symName: '__ZN4core3ptr64drop_in_place$LT$alloc..boxed..Box$LT$syn..pat..FieldPat$GT$$GT$17h6ec0c46fcae11decE', symObjAddr: 0x5A80, symBinAddr: 0x48110, symSize: 0x180 }
  - { offsetInCU: 0x16948, offset: 0x16F873, size: 0x8, addend: 0x0, symName: '__ZN4core3ptr64drop_in_place$LT$alloc..boxed..Box$LT$syn..ty..BareFnArg$GT$$GT$17h917bce14c66a90e1E', symObjAddr: 0x5C00, symBinAddr: 0x48290, symSize: 0x160 }
  - { offsetInCU: 0x16EDE, offset: 0x16FE09, size: 0x8, addend: 0x0, symName: '__ZN4core3ptr65drop_in_place$LT$alloc..vec..Vec$LT$proc_macro..TokenTree$GT$$GT$17h08ebe6987ad77745E', symObjAddr: 0x5D60, symBinAddr: 0x483F0, symSize: 0x110 }
  - { offsetInCU: 0x172D6, offset: 0x170201, size: 0x8, addend: 0x0, symName: '__ZN4core3ptr65drop_in_place$LT$core..option..Option$LT$syn..expr..Label$GT$$GT$17h72a768dd9fe97001E', symObjAddr: 0x5E70, symBinAddr: 0x48500, symSize: 0x30 }
  - { offsetInCU: 0x17410, offset: 0x17033B, size: 0x8, addend: 0x0, symName: '__ZN4core3ptr66drop_in_place$LT$core..option..Option$LT$syn..ty..Variadic$GT$$GT$17h7883b411235ba0d7E', symObjAddr: 0x5EA0, symBinAddr: 0x48530, symSize: 0xF0 }
  - { offsetInCU: 0x1773A, offset: 0x170665, size: 0x8, addend: 0x0, symName: '__ZN4core3ptr67drop_in_place$LT$alloc..boxed..Box$LT$syn..attr..NestedMeta$GT$$GT$17h3aa080ef5ccf366dE', symObjAddr: 0x5F90, symBinAddr: 0x48620, symSize: 0x70 }
  - { offsetInCU: 0x178CF, offset: 0x1707FA, size: 0x8, addend: 0x0, symName: '__ZN4core3ptr67drop_in_place$LT$alloc..boxed..Box$LT$syn..expr..FieldValue$GT$$GT$17heeac0703e2f64716E', symObjAddr: 0x6000, symBinAddr: 0x48690, symSize: 0x160 }
  - { offsetInCU: 0x17E64, offset: 0x170D8F, size: 0x8, addend: 0x0, symName: '__ZN4core3ptr68drop_in_place$LT$alloc..vec..Vec$LT$proc_macro2..TokenStream$GT$$GT$17h30928b44f288c886E', symObjAddr: 0x6160, symBinAddr: 0x487F0, symSize: 0xC0 }
  - { offsetInCU: 0x18122, offset: 0x17104D, size: 0x8, addend: 0x0, symName: '__ZN4core3ptr72drop_in_place$LT$core..option..Option$LT$syn..lifetime..Lifetime$GT$$GT$17h202ec0a71a372640E', symObjAddr: 0x6220, symBinAddr: 0x488B0, symSize: 0x30 }
  - { offsetInCU: 0x1823D, offset: 0x171168, size: 0x8, addend: 0x0, symName: '__ZN4core3ptr75drop_in_place$LT$alloc..boxed..Box$LT$syn..generics..TypeParamBound$GT$$GT$17h2fcd34561891f8d0E', symObjAddr: 0x6250, symBinAddr: 0x488E0, symSize: 0x140 }
  - { offsetInCU: 0x18798, offset: 0x1716C3, size: 0x8, addend: 0x0, symName: '__ZN4core3ptr78drop_in_place$LT$alloc..boxed..Box$LT$syn..expr..GenericMethodArgument$GT$$GT$17h1d1506ef719f9ff3E', symObjAddr: 0x6390, symBinAddr: 0x48A20, symSize: 0x60 }
  - { offsetInCU: 0x1898A, offset: 0x1718B5, size: 0x8, addend: 0x0, symName: '__ZN4core3ptr78drop_in_place$LT$core..option..Option$LT$syn..generics..BoundLifetimes$GT$$GT$17h0bc587c1c638e696E', symObjAddr: 0x63F0, symBinAddr: 0x48A80, symSize: 0x90 }
  - { offsetInCU: 0x18C78, offset: 0x171BA3, size: 0x8, addend: 0x0, symName: '__ZN4core3ptr86drop_in_place$LT$syn..punctuated..Punctuated$LT$syn..pat..Pat$C$syn..token..Or$GT$$GT$17h8677625794e672fbE', symObjAddr: 0x6480, symBinAddr: 0x48B10, symSize: 0x120 }
  - { offsetInCU: 0x190F3, offset: 0x17201E, size: 0x8, addend: 0x0, symName: '__ZN4core3ptr87drop_in_place$LT$core..option..Option$LT$alloc..boxed..Box$LT$syn..pat..Pat$GT$$GT$$GT$17h3ddee4c5327d170bE', symObjAddr: 0x65A0, symBinAddr: 0x48C30, symSize: 0x50 }
  - { offsetInCU: 0x19263, offset: 0x17218E, size: 0x8, addend: 0x0, symName: '__ZN4core3ptr87drop_in_place$LT$core..option..Option$LT$alloc..boxed..Box$LT$syn..ty..Type$GT$$GT$$GT$17h7dacba09c4a321b0E', symObjAddr: 0x65F0, symBinAddr: 0x48C80, symSize: 0x50 }
  - { offsetInCU: 0x193D3, offset: 0x1722FE, size: 0x8, addend: 0x0, symName: '__ZN4core3ptr89drop_in_place$LT$core..option..Option$LT$alloc..boxed..Box$LT$syn..expr..Expr$GT$$GT$$GT$17hb0305b940876c4d8E', symObjAddr: 0x6640, symBinAddr: 0x48CD0, symSize: 0x50 }
  - { offsetInCU: 0x19581, offset: 0x1724AC, size: 0x8, addend: 0x0, symName: '__ZN4core3ptr89drop_in_place$LT$syn..punctuated..Punctuated$LT$syn..pat..Pat$C$syn..token..Comma$GT$$GT$17hb966506de2c8c6a8E', symObjAddr: 0x6690, symBinAddr: 0x48D20, symSize: 0x120 }
  - { offsetInCU: 0x19A51, offset: 0x17297C, size: 0x8, addend: 0x0, symName: '__ZN4core3ptr91drop_in_place$LT$syn..punctuated..Punctuated$LT$syn..expr..Expr$C$syn..token..Comma$GT$$GT$17h362c5eebd58bdd5eE', symObjAddr: 0x67B0, symBinAddr: 0x48E40, symSize: 0x120 }
  - { offsetInCU: 0x19EDF, offset: 0x172E0A, size: 0x8, addend: 0x0, symName: '__ZN4core3ptr94drop_in_place$LT$syn..punctuated..Punctuated$LT$syn..pat..FieldPat$C$syn..token..Comma$GT$$GT$17h753e7c59509db6b4E', symObjAddr: 0x68D0, symBinAddr: 0x48F60, symSize: 0xF0 }
  - { offsetInCU: 0x1A1DE, offset: 0x173109, size: 0x8, addend: 0x0, symName: '__ZN4core3ptr94drop_in_place$LT$syn..punctuated..Punctuated$LT$syn..ty..BareFnArg$C$syn..token..Comma$GT$$GT$17h0b7107d96c875a70E', symObjAddr: 0x69C0, symBinAddr: 0x49050, symSize: 0x90 }
  - { offsetInCU: 0x1A44E, offset: 0x173379, size: 0x8, addend: 0x0, symName: '__ZN4core3ptr96drop_in_place$LT$core..option..Option$LT$alloc..boxed..Box$LT$syn..path..PathSegment$GT$$GT$$GT$17h6c3967a4b4d05614E', symObjAddr: 0x6A50, symBinAddr: 0x490E0, symSize: 0x180 }
  - { offsetInCU: 0x1AB87, offset: 0x173AB2, size: 0x8, addend: 0x0, symName: '__ZN4core3ptr97drop_in_place$LT$syn..punctuated..Punctuated$LT$syn..attr..NestedMeta$C$syn..token..Comma$GT$$GT$17hc2b3810b6d2283d0E', symObjAddr: 0x6BD0, symBinAddr: 0x49260, symSize: 0x150 }
  - { offsetInCU: 0x1B028, offset: 0x173F53, size: 0x8, addend: 0x0, symName: '__ZN4core3ptr97drop_in_place$LT$syn..punctuated..Punctuated$LT$syn..expr..FieldValue$C$syn..token..Comma$GT$$GT$17h67baaacd0e7405d8E', symObjAddr: 0x6D20, symBinAddr: 0x493B0, symSize: 0xF0 }
  - { offsetInCU: 0x1B3A1, offset: 0x1742CC, size: 0x8, addend: 0x0, symName: '__ZN4core3ptr97drop_in_place$LT$syn..punctuated..Punctuated$LT$syn..lifetime..Lifetime$C$syn..token..Add$GT$$GT$17h82a397fa2949afd1E', symObjAddr: 0x6E10, symBinAddr: 0x494A0, symSize: 0xD0 }
  - { offsetInCU: 0x1BBA2, offset: 0x174ACD, size: 0x8, addend: 0x0, symName: '__ZN53_$LT$core..fmt..Error$u20$as$u20$core..fmt..Debug$GT$3fmt17h03dc662ab152f3aeE', symObjAddr: 0x6EE0, symBinAddr: 0x49570, symSize: 0x20 }
  - { offsetInCU: 0x1D7A2, offset: 0x1766CD, size: 0x8, addend: 0x0, symName: __ZN28borsh_schema_derive_internal7helpers13contains_skip17he9ef0a22cf10024cE, symObjAddr: 0x70A0, symBinAddr: 0x49730, symSize: 0x320 }
  - { offsetInCU: 0x1DF1E, offset: 0x176E49, size: 0x8, addend: 0x0, symName: __ZN28borsh_schema_derive_internal7helpers11declaration17ha15d73ae548831edE, symObjAddr: 0x73C0, symBinAddr: 0x49A50, symSize: 0x7F0 }
  - { offsetInCU: 0x1EAAD, offset: 0x1779D8, size: 0x8, addend: 0x0, symName: __ZN28borsh_schema_derive_internal7helpers18quote_where_clause17h3cf375946c1a784dE, symObjAddr: 0x7BB0, symBinAddr: 0x4A240, symSize: 0x3A3 }
  - { offsetInCU: 0x1E, offset: 0x1859F5, size: 0x8, addend: 0x0, symName: '__ZN4core3ptr39drop_in_place$LT$proc_macro2..Ident$GT$17h1395e068b10d22cfE', symObjAddr: 0x0, symBinAddr: 0x4A5F0, symSize: 0x30 }
  - { offsetInCU: 0x9B, offset: 0x185A72, size: 0x8, addend: 0x0, symName: '__ZN58_$LT$alloc..string..String$u20$as$u20$core..fmt..Write$GT$10write_char17h04bc467bd68a934bE', symObjAddr: 0x380, symBinAddr: 0x4A970, symSize: 0x140 }
  - { offsetInCU: 0x4A0, offset: 0x185E77, size: 0x8, addend: 0x0, symName: '__ZN58_$LT$alloc..string..String$u20$as$u20$core..fmt..Write$GT$9write_str17h46a93205c3443fbaE', symObjAddr: 0x4C0, symBinAddr: 0x4AAB0, symSize: 0x60 }
  - { offsetInCU: 0x277C, offset: 0x188153, size: 0x8, addend: 0x0, symName: '__ZN4core3ptr39drop_in_place$LT$proc_macro2..Ident$GT$17h1395e068b10d22cfE', symObjAddr: 0x0, symBinAddr: 0x4A5F0, symSize: 0x30 }
  - { offsetInCU: 0x2897, offset: 0x18826E, size: 0x8, addend: 0x0, symName: '__ZN4core3ptr42drop_in_place$LT$alloc..string..String$GT$17h57b3bd4f14f8a296E', symObjAddr: 0x30, symBinAddr: 0x4A620, symSize: 0x20 }
  - { offsetInCU: 0x2AD5, offset: 0x1884AC, size: 0x8, addend: 0x0, symName: '__ZN4core3ptr45drop_in_place$LT$proc_macro2..TokenStream$GT$17hc7bf2ec3a51790edE', symObjAddr: 0x50, symBinAddr: 0x4A640, symSize: 0x140 }
  - { offsetInCU: 0x2F32, offset: 0x188909, size: 0x8, addend: 0x0, symName: '__ZN4core3ptr65drop_in_place$LT$alloc..vec..Vec$LT$proc_macro..TokenTree$GT$$GT$17h08ebe6987ad77745E', symObjAddr: 0x190, symBinAddr: 0x4A780, symSize: 0x110 }
  - { offsetInCU: 0x3349, offset: 0x188D20, size: 0x8, addend: 0x0, symName: '__ZN4core3ptr68drop_in_place$LT$alloc..vec..Vec$LT$proc_macro2..TokenStream$GT$$GT$17h30928b44f288c886E', symObjAddr: 0x2A0, symBinAddr: 0x4A890, symSize: 0xC0 }
  - { offsetInCU: 0x3A7B, offset: 0x189452, size: 0x8, addend: 0x0, symName: '__ZN53_$LT$core..fmt..Error$u20$as$u20$core..fmt..Debug$GT$3fmt17h03dc662ab152f3aeE', symObjAddr: 0x360, symBinAddr: 0x4A950, symSize: 0x20 }
  - { offsetInCU: 0xC74C, offset: 0x192123, size: 0x8, addend: 0x0, symName: __ZN28borsh_schema_derive_internal13struct_schema14process_struct17hac988723490e21bcE, symObjAddr: 0x520, symBinAddr: 0x4AB10, symSize: 0x1D55 }
  - { offsetInCU: 0x1E, offset: 0x1951C1, size: 0x8, addend: 0x0, symName: __ZN3syn11parse_quote5parse17h4eee38850f7fbd37E, symObjAddr: 0x0, symBinAddr: 0x4C870, symSize: 0x470 }
  - { offsetInCU: 0x1CC4, offset: 0x196E67, size: 0x8, addend: 0x0, symName: '__ZN4core3ptr100drop_in_place$LT$core..option..Option$LT$alloc..boxed..Box$LT$syn..generics..LifetimeDef$GT$$GT$$GT$17h40a0d77786a054abE', symObjAddr: 0x8F0, symBinAddr: 0x4D160, symSize: 0x150 }
  - { offsetInCU: 0x2240, offset: 0x1973E3, size: 0x8, addend: 0x0, symName: '__ZN4core3ptr100drop_in_place$LT$core..option..Option$LT$alloc..boxed..Box$LT$syn..path..GenericArgument$GT$$GT$$GT$17h39a7974da1f3f4fdE', symObjAddr: 0xA40, symBinAddr: 0x4D2B0, symSize: 0x50 }
  - { offsetInCU: 0x24E6, offset: 0x197689, size: 0x8, addend: 0x0, symName: '__ZN4core3ptr103drop_in_place$LT$syn..punctuated..Punctuated$LT$syn..generics..TypeParamBound$C$syn..token..Add$GT$$GT$17h3bdde3b855232bd4E', symObjAddr: 0xA90, symBinAddr: 0x4D300, symSize: 0x200 }
  - { offsetInCU: 0x2DD7, offset: 0x197F7A, size: 0x8, addend: 0x0, symName: '__ZN4core3ptr108drop_in_place$LT$syn..punctuated..Punctuated$LT$syn..expr..GenericMethodArgument$C$syn..token..Comma$GT$$GT$17h067c2d9775c1442dE', symObjAddr: 0xC90, symBinAddr: 0x4D500, symSize: 0x150 }
  - { offsetInCU: 0x3330, offset: 0x1984D3, size: 0x8, addend: 0x0, symName: '__ZN4core3ptr34drop_in_place$LT$syn..lit..Lit$GT$17h3500dc1c4a376e74E', symObjAddr: 0xDE0, symBinAddr: 0x4D650, symSize: 0x110 }
  - { offsetInCU: 0x37A2, offset: 0x198945, size: 0x8, addend: 0x0, symName: '__ZN4core3ptr34drop_in_place$LT$syn..pat..Pat$GT$17hb3f462a8dc558397E', symObjAddr: 0xEF0, symBinAddr: 0x4D760, symSize: 0x1050 }
  - { offsetInCU: 0x7161, offset: 0x19C304, size: 0x8, addend: 0x0, symName: '__ZN4core3ptr34drop_in_place$LT$syn..ty..Type$GT$17h84fc7cfc1cfc210aE', symObjAddr: 0x1F40, symBinAddr: 0x4E7B0, symSize: 0x5F0 }
  - { offsetInCU: 0x8D10, offset: 0x19DEB3, size: 0x8, addend: 0x0, symName: '__ZN4core3ptr36drop_in_place$LT$syn..expr..Expr$GT$17hf5da8a3cfdf7003bE', symObjAddr: 0x2530, symBinAddr: 0x4EDA0, symSize: 0x31D0 }
  - { offsetInCU: 0x13299, offset: 0x1A843C, size: 0x8, addend: 0x0, symName: '__ZN4core3ptr36drop_in_place$LT$syn..mac..Macro$GT$17h52d7aaa7f89c3f3bE', symObjAddr: 0x5700, symBinAddr: 0x51F70, symSize: 0xE0 }
  - { offsetInCU: 0x1369F, offset: 0x1A8842, size: 0x8, addend: 0x0, symName: '__ZN4core3ptr36drop_in_place$LT$syn..path..Path$GT$17h4e8f0505e88b5f17E', symObjAddr: 0x57E0, symBinAddr: 0x52050, symSize: 0x230 }
  - { offsetInCU: 0x14035, offset: 0x1A91D8, size: 0x8, addend: 0x0, symName: '__ZN4core3ptr37drop_in_place$LT$syn..stmt..Block$GT$17hdf76f23a32aaf3e1E', symObjAddr: 0x5A10, symBinAddr: 0x52280, symSize: 0xD0 }
  - { offsetInCU: 0x1434A, offset: 0x1A94ED, size: 0x8, addend: 0x0, symName: '__ZN4core3ptr38drop_in_place$LT$syn..error..Error$GT$17h75193c904cb51826E', symObjAddr: 0x5AE0, symBinAddr: 0x52350, symSize: 0x80 }
  - { offsetInCU: 0x14609, offset: 0x1A97AC, size: 0x8, addend: 0x0, symName: '__ZN4core3ptr38drop_in_place$LT$syn..expr..Member$GT$17h7784fb248c0746b9E', symObjAddr: 0x5B60, symBinAddr: 0x523D0, symSize: 0x30 }
  - { offsetInCU: 0x14705, offset: 0x1A98A8, size: 0x8, addend: 0x0, symName: '__ZN4core3ptr39drop_in_place$LT$proc_macro2..Ident$GT$17h1395e068b10d22cfE', symObjAddr: 0x5B90, symBinAddr: 0x52400, symSize: 0x30 }
  - { offsetInCU: 0x14918, offset: 0x1A9ABB, size: 0x8, addend: 0x0, symName: '__ZN4core3ptr39drop_in_place$LT$syn..buffer..Entry$GT$17h1fc24e2846fd1550E', symObjAddr: 0x5BC0, symBinAddr: 0x52430, symSize: 0xB0 }
  - { offsetInCU: 0x14CA3, offset: 0x1A9E46, size: 0x8, addend: 0x0, symName: '__ZN4core3ptr39drop_in_place$LT$syn..pat..PatTuple$GT$17h6967ce12d932909dE', symObjAddr: 0x5C70, symBinAddr: 0x524E0, symSize: 0x100 }
  - { offsetInCU: 0x14FAC, offset: 0x1AA14F, size: 0x8, addend: 0x0, symName: '__ZN4core3ptr40drop_in_place$LT$syn..ty..ReturnType$GT$17h42802d49262fb18dE', symObjAddr: 0x5D70, symBinAddr: 0x525E0, symSize: 0x50 }
  - { offsetInCU: 0x1511C, offset: 0x1AA2BF, size: 0x8, addend: 0x0, symName: '__ZN4core3ptr44drop_in_place$LT$syn..lifetime..Lifetime$GT$17h09354e19213b8912E', symObjAddr: 0x5DC0, symBinAddr: 0x52630, symSize: 0x30 }
  - { offsetInCU: 0x15218, offset: 0x1AA3BB, size: 0x8, addend: 0x0, symName: '__ZN4core3ptr44drop_in_place$LT$syn..parse..ParseBuffer$GT$17h8ef32cb91fe24750E', symObjAddr: 0x5DF0, symBinAddr: 0x52660, symSize: 0x70 }
  - { offsetInCU: 0x15594, offset: 0x1AA737, size: 0x8, addend: 0x0, symName: '__ZN4core3ptr45drop_in_place$LT$proc_macro2..TokenStream$GT$17hc7bf2ec3a51790edE', symObjAddr: 0x5E60, symBinAddr: 0x526D0, symSize: 0x140 }
  - { offsetInCU: 0x159F0, offset: 0x1AAB93, size: 0x8, addend: 0x0, symName: '__ZN4core3ptr45drop_in_place$LT$syn..buffer..TokenBuffer$GT$17hfce55881631a9231E', symObjAddr: 0x5FA0, symBinAddr: 0x52810, symSize: 0xC0 }
  - { offsetInCU: 0x15C58, offset: 0x1AADFB, size: 0x8, addend: 0x0, symName: '__ZN4core3ptr47drop_in_place$LT$syn..path..GenericArgument$GT$17hbb3f78ff6fd92a54E', symObjAddr: 0x6060, symBinAddr: 0x528D0, symSize: 0x110 }
  - { offsetInCU: 0x15F86, offset: 0x1AB129, size: 0x8, addend: 0x0, symName: '__ZN4core3ptr58drop_in_place$LT$alloc..vec..Vec$LT$syn..expr..Arm$GT$$GT$17ha22998a4c7aaecabE', symObjAddr: 0x6170, symBinAddr: 0x529E0, symSize: 0xD0 }
  - { offsetInCU: 0x16246, offset: 0x1AB3E9, size: 0x8, addend: 0x0, symName: '__ZN4core3ptr59drop_in_place$LT$alloc..boxed..Box$LT$syn..pat..Pat$GT$$GT$17h67dbd0eb65b754a2E', symObjAddr: 0x6240, symBinAddr: 0x52AB0, symSize: 0x50 }
  - { offsetInCU: 0x1639F, offset: 0x1AB542, size: 0x8, addend: 0x0, symName: '__ZN4core3ptr59drop_in_place$LT$alloc..boxed..Box$LT$syn..ty..Type$GT$$GT$17hccde48193744ef9eE', symObjAddr: 0x6290, symBinAddr: 0x52B00, symSize: 0x50 }
  - { offsetInCU: 0x164F8, offset: 0x1AB69B, size: 0x8, addend: 0x0, symName: '__ZN4core3ptr61drop_in_place$LT$alloc..boxed..Box$LT$syn..expr..Expr$GT$$GT$17h4aad3cbbe3c740ecE', symObjAddr: 0x62E0, symBinAddr: 0x52B50, symSize: 0x50 }
  - { offsetInCU: 0x16651, offset: 0x1AB7F4, size: 0x8, addend: 0x0, symName: '__ZN4core3ptr61drop_in_place$LT$syn..path..ParenthesizedGenericArguments$GT$17h9873048f96d6b23aE', symObjAddr: 0x6330, symBinAddr: 0x52BA0, symSize: 0x170 }
  - { offsetInCU: 0x16C5A, offset: 0x1ABDFD, size: 0x8, addend: 0x0, symName: '__ZN4core3ptr63drop_in_place$LT$alloc..boxed..Box$LT$syn..lit..LitRepr$GT$$GT$17h057f2da5c89855e0E', symObjAddr: 0x64A0, symBinAddr: 0x52D10, symSize: 0x60 }
  - { offsetInCU: 0x16F61, offset: 0x1AC104, size: 0x8, addend: 0x0, symName: '__ZN4core3ptr64drop_in_place$LT$alloc..boxed..Box$LT$syn..pat..FieldPat$GT$$GT$17h6ec0c46fcae11decE', symObjAddr: 0x6500, symBinAddr: 0x52D70, symSize: 0x180 }
  - { offsetInCU: 0x1767E, offset: 0x1AC821, size: 0x8, addend: 0x0, symName: '__ZN4core3ptr64drop_in_place$LT$alloc..boxed..Box$LT$syn..ty..BareFnArg$GT$$GT$17h917bce14c66a90e1E', symObjAddr: 0x6680, symBinAddr: 0x52EF0, symSize: 0x160 }
  - { offsetInCU: 0x17C14, offset: 0x1ACDB7, size: 0x8, addend: 0x0, symName: '__ZN4core3ptr65drop_in_place$LT$alloc..vec..Vec$LT$proc_macro..TokenTree$GT$$GT$17h08ebe6987ad77745E', symObjAddr: 0x67E0, symBinAddr: 0x53050, symSize: 0x110 }
  - { offsetInCU: 0x1800C, offset: 0x1AD1AF, size: 0x8, addend: 0x0, symName: '__ZN4core3ptr65drop_in_place$LT$core..option..Option$LT$syn..expr..Label$GT$$GT$17h72a768dd9fe97001E', symObjAddr: 0x68F0, symBinAddr: 0x53160, symSize: 0x30 }
  - { offsetInCU: 0x18146, offset: 0x1AD2E9, size: 0x8, addend: 0x0, symName: '__ZN4core3ptr66drop_in_place$LT$core..option..Option$LT$syn..ty..Variadic$GT$$GT$17h7883b411235ba0d7E', symObjAddr: 0x6920, symBinAddr: 0x53190, symSize: 0xF0 }
  - { offsetInCU: 0x18470, offset: 0x1AD613, size: 0x8, addend: 0x0, symName: '__ZN4core3ptr67drop_in_place$LT$alloc..boxed..Box$LT$syn..expr..FieldValue$GT$$GT$17heeac0703e2f64716E', symObjAddr: 0x6A10, symBinAddr: 0x53280, symSize: 0x160 }
  - { offsetInCU: 0x189E6, offset: 0x1ADB89, size: 0x8, addend: 0x0, symName: '__ZN4core3ptr72drop_in_place$LT$core..option..Option$LT$syn..lifetime..Lifetime$GT$$GT$17h202ec0a71a372640E', symObjAddr: 0x6B70, symBinAddr: 0x533E0, symSize: 0x30 }
  - { offsetInCU: 0x18B01, offset: 0x1ADCA4, size: 0x8, addend: 0x0, symName: '__ZN4core3ptr75drop_in_place$LT$alloc..boxed..Box$LT$syn..generics..TypeParamBound$GT$$GT$17h2fcd34561891f8d0E', symObjAddr: 0x6BA0, symBinAddr: 0x53410, symSize: 0x140 }
  - { offsetInCU: 0x1905C, offset: 0x1AE1FF, size: 0x8, addend: 0x0, symName: '__ZN4core3ptr78drop_in_place$LT$alloc..boxed..Box$LT$syn..expr..GenericMethodArgument$GT$$GT$17h1d1506ef719f9ff3E', symObjAddr: 0x6CE0, symBinAddr: 0x53550, symSize: 0x60 }
  - { offsetInCU: 0x1924E, offset: 0x1AE3F1, size: 0x8, addend: 0x0, symName: '__ZN4core3ptr78drop_in_place$LT$core..option..Option$LT$syn..generics..BoundLifetimes$GT$$GT$17h0bc587c1c638e696E', symObjAddr: 0x6D40, symBinAddr: 0x535B0, symSize: 0x90 }
  - { offsetInCU: 0x1953C, offset: 0x1AE6DF, size: 0x8, addend: 0x0, symName: '__ZN4core3ptr86drop_in_place$LT$syn..punctuated..Punctuated$LT$syn..pat..Pat$C$syn..token..Or$GT$$GT$17h8677625794e672fbE', symObjAddr: 0x6DD0, symBinAddr: 0x53640, symSize: 0x120 }
  - { offsetInCU: 0x199B7, offset: 0x1AEB5A, size: 0x8, addend: 0x0, symName: '__ZN4core3ptr87drop_in_place$LT$core..option..Option$LT$alloc..boxed..Box$LT$syn..pat..Pat$GT$$GT$$GT$17h3ddee4c5327d170bE', symObjAddr: 0x6EF0, symBinAddr: 0x53760, symSize: 0x50 }
  - { offsetInCU: 0x19B27, offset: 0x1AECCA, size: 0x8, addend: 0x0, symName: '__ZN4core3ptr87drop_in_place$LT$core..option..Option$LT$alloc..boxed..Box$LT$syn..ty..Type$GT$$GT$$GT$17h7dacba09c4a321b0E', symObjAddr: 0x6F40, symBinAddr: 0x537B0, symSize: 0x50 }
  - { offsetInCU: 0x19C97, offset: 0x1AEE3A, size: 0x8, addend: 0x0, symName: '__ZN4core3ptr89drop_in_place$LT$core..option..Option$LT$alloc..boxed..Box$LT$syn..expr..Expr$GT$$GT$$GT$17hb0305b940876c4d8E', symObjAddr: 0x6F90, symBinAddr: 0x53800, symSize: 0x50 }
  - { offsetInCU: 0x19E45, offset: 0x1AEFE8, size: 0x8, addend: 0x0, symName: '__ZN4core3ptr89drop_in_place$LT$syn..punctuated..Punctuated$LT$syn..pat..Pat$C$syn..token..Comma$GT$$GT$17hb966506de2c8c6a8E', symObjAddr: 0x6FE0, symBinAddr: 0x53850, symSize: 0x120 }
  - { offsetInCU: 0x1A315, offset: 0x1AF4B8, size: 0x8, addend: 0x0, symName: '__ZN4core3ptr91drop_in_place$LT$syn..punctuated..Punctuated$LT$syn..expr..Expr$C$syn..token..Comma$GT$$GT$17h362c5eebd58bdd5eE', symObjAddr: 0x7100, symBinAddr: 0x53970, symSize: 0x120 }
  - { offsetInCU: 0x1A7A3, offset: 0x1AF946, size: 0x8, addend: 0x0, symName: '__ZN4core3ptr94drop_in_place$LT$syn..punctuated..Punctuated$LT$syn..pat..FieldPat$C$syn..token..Comma$GT$$GT$17h753e7c59509db6b4E', symObjAddr: 0x7220, symBinAddr: 0x53A90, symSize: 0xF0 }
  - { offsetInCU: 0x1AAA2, offset: 0x1AFC45, size: 0x8, addend: 0x0, symName: '__ZN4core3ptr94drop_in_place$LT$syn..punctuated..Punctuated$LT$syn..ty..BareFnArg$C$syn..token..Comma$GT$$GT$17h0b7107d96c875a70E', symObjAddr: 0x7310, symBinAddr: 0x53B80, symSize: 0x90 }
  - { offsetInCU: 0x1AD12, offset: 0x1AFEB5, size: 0x8, addend: 0x0, symName: '__ZN4core3ptr96drop_in_place$LT$core..option..Option$LT$alloc..boxed..Box$LT$syn..path..PathSegment$GT$$GT$$GT$17h6c3967a4b4d05614E', symObjAddr: 0x73A0, symBinAddr: 0x53C10, symSize: 0x180 }
  - { offsetInCU: 0x1B3CF, offset: 0x1B0572, size: 0x8, addend: 0x0, symName: '__ZN4core3ptr97drop_in_place$LT$syn..punctuated..Punctuated$LT$syn..expr..FieldValue$C$syn..token..Comma$GT$$GT$17h67baaacd0e7405d8E', symObjAddr: 0x7520, symBinAddr: 0x53D90, symSize: 0xF0 }
  - { offsetInCU: 0x1B748, offset: 0x1B08EB, size: 0x8, addend: 0x0, symName: '__ZN4core3ptr97drop_in_place$LT$syn..punctuated..Punctuated$LT$syn..lifetime..Lifetime$C$syn..token..Add$GT$$GT$17h82a397fa2949afd1E', symObjAddr: 0x7610, symBinAddr: 0x53E80, symSize: 0xC6 }
  - { offsetInCU: 0x23291, offset: 0x1B8434, size: 0x8, addend: 0x0, symName: __ZN3syn11parse_quote5parse17h4eee38850f7fbd37E, symObjAddr: 0x0, symBinAddr: 0x4C870, symSize: 0x470 }
  - { offsetInCU: 0x23B09, offset: 0x1B8CAC, size: 0x8, addend: 0x0, symName: __ZN3syn11parse_quote5parse17hef81b0224aa0b03dE, symObjAddr: 0x470, symBinAddr: 0x4CCE0, symSize: 0x480 }
  - { offsetInCU: 0x1E, offset: 0x1BEC01, size: 0x8, addend: 0x0, symName: '__ZN4core3ptr73drop_in_place$LT$core..cell..UnsafeCell$LT$syn..parse..Unexpected$GT$$GT$17hce95d092fbf585c0E.llvm.17370921367638835353', symObjAddr: 0x0, symBinAddr: 0x53F50, symSize: 0x50 }
  - { offsetInCU: 0xB7D, offset: 0x1BF760, size: 0x8, addend: 0x0, symName: '__ZN4core3ptr73drop_in_place$LT$core..cell..UnsafeCell$LT$syn..parse..Unexpected$GT$$GT$17hce95d092fbf585c0E.llvm.17370921367638835353', symObjAddr: 0x0, symBinAddr: 0x53F50, symSize: 0x50 }
  - { offsetInCU: 0x171C, offset: 0x1C02FF, size: 0x8, addend: 0x0, symName: '__ZN68_$LT$alloc..rc..Rc$LT$T$C$A$GT$$u20$as$u20$core..ops..drop..Drop$GT$4drop17h4e45b52d931f3724E', symObjAddr: 0x100, symBinAddr: 0x53FA0, symSize: 0xE0 }
  - { offsetInCU: 0x1C3D, offset: 0x1C0820, size: 0x8, addend: 0x0, symName: '__ZN68_$LT$alloc..rc..Rc$LT$T$C$A$GT$$u20$as$u20$core..ops..drop..Drop$GT$4drop17h84a85c914a4db2e0E', symObjAddr: 0x1E0, symBinAddr: 0x54080, symSize: 0x40 }
  - { offsetInCU: 0x2149, offset: 0x1C0D2C, size: 0x8, addend: 0x0, symName: '__ZN80_$LT$alloc..rc..UniqueRcUninit$LT$T$C$A$GT$$u20$as$u20$core..ops..drop..Drop$GT$4drop17h991a21aef310be63E', symObjAddr: 0x220, symBinAddr: 0x540C0, symSize: 0x4F }
  - { offsetInCU: 0x1E, offset: 0x1C179B, size: 0x8, addend: 0x0, symName: __ZN4core3fmt5Write9write_fmt17h54e4a787d8311dc5E, symObjAddr: 0x0, symBinAddr: 0x54110, symSize: 0x20 }
  - { offsetInCU: 0x98, offset: 0x1C1815, size: 0x8, addend: 0x0, symName: '__ZN58_$LT$alloc..string..String$u20$as$u20$core..fmt..Write$GT$10write_char17h04bc467bd68a934bE', symObjAddr: 0x40, symBinAddr: 0x54150, symSize: 0x140 }
  - { offsetInCU: 0x49D, offset: 0x1C1C1A, size: 0x8, addend: 0x0, symName: '__ZN58_$LT$alloc..string..String$u20$as$u20$core..fmt..Write$GT$9write_str17h46a93205c3443fbaE', symObjAddr: 0x180, symBinAddr: 0x54290, symSize: 0x5B }
  - { offsetInCU: 0xAC1, offset: 0x1C223E, size: 0x8, addend: 0x0, symName: '__ZN4core3ptr42drop_in_place$LT$alloc..string..String$GT$17h57b3bd4f14f8a296E', symObjAddr: 0x20, symBinAddr: 0x54130, symSize: 0x20 }
  - { offsetInCU: 0xE54, offset: 0x1C25D1, size: 0x8, addend: 0x0, symName: __ZN4core3fmt5Write9write_fmt17h54e4a787d8311dc5E, symObjAddr: 0x0, symBinAddr: 0x54110, symSize: 0x20 }
  - { offsetInCU: 0x1E, offset: 0x1C3085, size: 0x8, addend: 0x0, symName: __ZN3syn5error5Error3new17h5ab09dfbdfbd3feaE, symObjAddr: 0x0, symBinAddr: 0x542F0, symSize: 0xF0 }
  - { offsetInCU: 0x35, offset: 0x1C309C, size: 0x8, addend: 0x0, symName: _anon.2753ddc8eb15d6939f2cc1d3b91af2b5.0.llvm.18035050874349924886, symObjAddr: 0x300, symBinAddr: 0x2E0630, symSize: 0x0 }
  - { offsetInCU: 0x154, offset: 0x1C31BB, size: 0x8, addend: 0x0, symName: '__ZN58_$LT$alloc..string..String$u20$as$u20$core..fmt..Write$GT$10write_char17h04bc467bd68a934bE.llvm.18035050874349924886', symObjAddr: 0x130, symBinAddr: 0x54420, symSize: 0x140 }
  - { offsetInCU: 0x559, offset: 0x1C35C0, size: 0x8, addend: 0x0, symName: '__ZN58_$LT$alloc..string..String$u20$as$u20$core..fmt..Write$GT$9write_str17h46a93205c3443fbaE.llvm.18035050874349924886', symObjAddr: 0x270, symBinAddr: 0x54560, symSize: 0x5B }
  - { offsetInCU: 0xCD1, offset: 0x1C3D38, size: 0x8, addend: 0x0, symName: '__ZN4core3ptr42drop_in_place$LT$alloc..string..String$GT$17h57b3bd4f14f8a296E.llvm.18035050874349924886', symObjAddr: 0xF0, symBinAddr: 0x543E0, symSize: 0x20 }
  - { offsetInCU: 0xF61, offset: 0x1C3FC8, size: 0x8, addend: 0x0, symName: '__ZN53_$LT$core..fmt..Error$u20$as$u20$core..fmt..Debug$GT$3fmt17h03dc662ab152f3aeE.llvm.18035050874349924886', symObjAddr: 0x110, symBinAddr: 0x54400, symSize: 0x20 }
  - { offsetInCU: 0x12F4, offset: 0x1C435B, size: 0x8, addend: 0x0, symName: _anon.2753ddc8eb15d6939f2cc1d3b91af2b5.4.llvm.18035050874349924886, symObjAddr: 0x348, symBinAddr: 0x2E0678, symSize: 0x0 }
  - { offsetInCU: 0x164B, offset: 0x1C46B2, size: 0x8, addend: 0x0, symName: __ZN3syn5error5Error3new17h5ab09dfbdfbd3feaE, symObjAddr: 0x0, symBinAddr: 0x542F0, symSize: 0xF0 }
  - { offsetInCU: 0x1E, offset: 0x1C4F08, size: 0x8, addend: 0x0, symName: '__ZN120_$LT$proc_macro2..fallback..TokenStream$u20$as$u20$core..iter..traits..collect..Extend$LT$proc_macro2..TokenTree$GT$$GT$6extend17had8c1b10b2ec790dE', symObjAddr: 0x0, symBinAddr: 0x545C0, symSize: 0x280 }
  - { offsetInCU: 0x9AC, offset: 0x1C5896, size: 0x8, addend: 0x0, symName: '__ZN120_$LT$proc_macro2..fallback..TokenStream$u20$as$u20$core..iter..traits..collect..Extend$LT$proc_macro2..TokenTree$GT$$GT$6extend17had8c1b10b2ec790dE', symObjAddr: 0x0, symBinAddr: 0x545C0, symSize: 0x280 }
  - { offsetInCU: 0x1B81, offset: 0x1C6A6B, size: 0x8, addend: 0x0, symName: '__ZN4core3ptr45drop_in_place$LT$proc_macro2..TokenStream$GT$17hc7bf2ec3a51790edE', symObjAddr: 0x280, symBinAddr: 0x54840, symSize: 0x140 }
  - { offsetInCU: 0x1FDD, offset: 0x1C6EC7, size: 0x8, addend: 0x0, symName: '__ZN4core3ptr56drop_in_place$LT$proc_macro2..token_stream..IntoIter$GT$17h5d861b0d70069466E', symObjAddr: 0x3C0, symBinAddr: 0x54980, symSize: 0x20 }
  - { offsetInCU: 0x208D, offset: 0x1C6F77, size: 0x8, addend: 0x0, symName: '__ZN4core3ptr65drop_in_place$LT$alloc..vec..Vec$LT$proc_macro..TokenTree$GT$$GT$17h08ebe6987ad77745E', symObjAddr: 0x3E0, symBinAddr: 0x549A0, symSize: 0x107 }
  - { offsetInCU: 0x1E, offset: 0x1C8C53, size: 0x8, addend: 0x0, symName: '__ZN4core3ptr43drop_in_place$LT$proc_macro2..TokenTree$GT$17h1bd00184d2fb9668E.llvm.974405425232669698', symObjAddr: 0x0, symBinAddr: 0x54AB0, symSize: 0xB0 }
  - { offsetInCU: 0xF36, offset: 0x1C9B6B, size: 0x8, addend: 0x0, symName: '__ZN4core3ptr43drop_in_place$LT$proc_macro2..TokenTree$GT$17h1bd00184d2fb9668E.llvm.974405425232669698', symObjAddr: 0x0, symBinAddr: 0x54AB0, symSize: 0xB0 }
  - { offsetInCU: 0x1BF6, offset: 0x1CA82B, size: 0x8, addend: 0x0, symName: '__ZN86_$LT$alloc..vec..into_iter..IntoIter$LT$T$C$A$GT$$u20$as$u20$core..ops..drop..Drop$GT$4drop17h487826fa334f7befE', symObjAddr: 0xB0, symBinAddr: 0x54B60, symSize: 0x110 }
  - { offsetInCU: 0x1FEC, offset: 0x1CAC21, size: 0x8, addend: 0x0, symName: '__ZN86_$LT$alloc..vec..into_iter..IntoIter$LT$T$C$A$GT$$u20$as$u20$core..ops..drop..Drop$GT$4drop17hf053e5fd16d16c12E', symObjAddr: 0x1C0, symBinAddr: 0x54C70, symSize: 0xCD }
  - { offsetInCU: 0x1E, offset: 0x1CB889, size: 0x8, addend: 0x0, symName: __ZN3std9panicking11begin_panic17h5747e553da46d9c5E, symObjAddr: 0x0, symBinAddr: 0x25E6F0, symSize: 0x20 }
  - { offsetInCU: 0x7A7, offset: 0x1CC012, size: 0x8, addend: 0x0, symName: __ZN3std9panicking11begin_panic17h5747e553da46d9c5E, symObjAddr: 0x0, symBinAddr: 0x25E6F0, symSize: 0x20 }
  - { offsetInCU: 0x803, offset: 0x1CC06E, size: 0x8, addend: 0x0, symName: '__ZN84_$LT$std..panicking..begin_panic..Payload$LT$A$GT$$u20$as$u20$core..fmt..Display$GT$3fmt17hf38ca5e32ccec7deE', symObjAddr: 0x20, symBinAddr: 0x54D40, symSize: 0x40 }
  - { offsetInCU: 0x870, offset: 0x1CC0DB, size: 0x8, addend: 0x0, symName: '__ZN91_$LT$std..panicking..begin_panic..Payload$LT$A$GT$$u20$as$u20$core..panic..PanicPayload$GT$3get17hb71e6046142ffc96E', symObjAddr: 0x60, symBinAddr: 0x54D80, symSize: 0x20 }
  - { offsetInCU: 0x8A8, offset: 0x1CC113, size: 0x8, addend: 0x0, symName: '__ZN91_$LT$std..panicking..begin_panic..Payload$LT$A$GT$$u20$as$u20$core..panic..PanicPayload$GT$8take_box17hc1eab7d3cc0ac5fbE', symObjAddr: 0x80, symBinAddr: 0x54DA0, symSize: 0x5F }
  - { offsetInCU: 0x1E, offset: 0x1CC664, size: 0x8, addend: 0x0, symName: '__ZN115_$LT$proc_macro2..imp..TokenStream$u20$as$u20$core..iter..traits..collect..Extend$LT$proc_macro2..TokenTree$GT$$GT$6extend17hb6f4da46e4b6b368E', symObjAddr: 0x0, symBinAddr: 0x54E00, symSize: 0x110 }
  - { offsetInCU: 0x78B, offset: 0x1CCDD1, size: 0x8, addend: 0x0, symName: '__ZN115_$LT$proc_macro2..imp..TokenStream$u20$as$u20$core..iter..traits..collect..Extend$LT$proc_macro2..TokenTree$GT$$GT$6extend17hb6f4da46e4b6b368E', symObjAddr: 0x0, symBinAddr: 0x54E00, symSize: 0x110 }
  - { offsetInCU: 0x15DF, offset: 0x1CDC25, size: 0x8, addend: 0x0, symName: '__ZN4core3ptr56drop_in_place$LT$proc_macro2..token_stream..IntoIter$GT$17h5d861b0d70069466E.llvm.2479998543755159937', symObjAddr: 0x110, symBinAddr: 0x54F10, symSize: 0x1C }
  - { offsetInCU: 0x1E, offset: 0x1CDF7A, size: 0x8, addend: 0x0, symName: '__ZN4core3ptr45drop_in_place$LT$proc_macro2..TokenStream$GT$17hc7bf2ec3a51790edE.llvm.16868660383336720533', symObjAddr: 0x0, symBinAddr: 0x54F30, symSize: 0x140 }
  - { offsetInCU: 0xB0B, offset: 0x1CEA67, size: 0x8, addend: 0x0, symName: '__ZN4core3ptr45drop_in_place$LT$proc_macro2..TokenStream$GT$17hc7bf2ec3a51790edE.llvm.16868660383336720533', symObjAddr: 0x0, symBinAddr: 0x54F30, symSize: 0x140 }
  - { offsetInCU: 0xF67, offset: 0x1CEEC3, size: 0x8, addend: 0x0, symName: '__ZN4core3ptr65drop_in_place$LT$alloc..vec..Vec$LT$proc_macro..TokenTree$GT$$GT$17h08ebe6987ad77745E.llvm.16868660383336720533', symObjAddr: 0x140, symBinAddr: 0x55070, symSize: 0x110 }
  - { offsetInCU: 0x1E, offset: 0x1CFC98, size: 0x8, addend: 0x0, symName: '__ZN4core3ptr45drop_in_place$LT$proc_macro2..TokenStream$GT$17hc7bf2ec3a51790edE.llvm.11987754280767513949', symObjAddr: 0x0, symBinAddr: 0x55180, symSize: 0x140 }
  - { offsetInCU: 0xB2C, offset: 0x1D07A6, size: 0x8, addend: 0x0, symName: '__ZN4core3ptr45drop_in_place$LT$proc_macro2..TokenStream$GT$17hc7bf2ec3a51790edE.llvm.11987754280767513949', symObjAddr: 0x0, symBinAddr: 0x55180, symSize: 0x140 }
  - { offsetInCU: 0xF88, offset: 0x1D0C02, size: 0x8, addend: 0x0, symName: '__ZN4core3ptr65drop_in_place$LT$alloc..vec..Vec$LT$proc_macro..TokenTree$GT$$GT$17h08ebe6987ad77745E.llvm.11987754280767513949', symObjAddr: 0x140, symBinAddr: 0x552C0, symSize: 0x110 }
  - { offsetInCU: 0x1E, offset: 0x1D1998, size: 0x8, addend: 0x0, symName: __ZN3std3sys9backtrace26__rust_end_short_backtrace17ha389f556e05b226eE, symObjAddr: 0x0, symBinAddr: 0x553D0, symSize: 0x10 }
  - { offsetInCU: 0x66, offset: 0x1D19E0, size: 0x8, addend: 0x0, symName: '__ZN3std9panicking11begin_panic28_$u7b$$u7b$closure$u7d$$u7d$17ha98950927df663cdE', symObjAddr: 0x10, symBinAddr: 0x553E0, symSize: 0x40 }
  - { offsetInCU: 0xD7, offset: 0x1D1A51, size: 0x8, addend: 0x0, symName: __ZN3std3sys9backtrace26__rust_end_short_backtrace17ha389f556e05b226eE, symObjAddr: 0x0, symBinAddr: 0x553D0, symSize: 0x10 }
  - { offsetInCU: 0x1BA, offset: 0x1D1B34, size: 0x8, addend: 0x0, symName: __ZN4core5panic12PanicPayload6as_str17h24dad88c107250cdE, symObjAddr: 0x50, symBinAddr: 0x55420, symSize: 0x8 }
  - { offsetInCU: 0x1E, offset: 0x1D1BE9, size: 0x8, addend: 0x0, symName: '__ZN36_$LT$T$u20$as$u20$core..any..Any$GT$7type_id17he9d6e0fc14a6a183E', symObjAddr: 0x0, symBinAddr: 0x55430, symSize: 0x1A }
  - { offsetInCU: 0x3A, offset: 0x1D1C05, size: 0x8, addend: 0x0, symName: '__ZN36_$LT$T$u20$as$u20$core..any..Any$GT$7type_id17he9d6e0fc14a6a183E', symObjAddr: 0x0, symBinAddr: 0x55430, symSize: 0x1A }
  - { offsetInCU: 0x1E, offset: 0x1D1CD6, size: 0x8, addend: 0x0, symName: '__ZN100_$LT$syn..punctuated..PrivateIter$LT$T$C$P$GT$$u20$as$u20$core..iter..traits..iterator..Iterator$GT$4next17h0bd6665afc8df02aE.llvm.15217368329388643332', symObjAddr: 0x0, symBinAddr: 0x55450, symSize: 0x30 }
  - { offsetInCU: 0x35, offset: 0x1D1CED, size: 0x8, addend: 0x0, symName: _anon.218f03585e05f96fb25c902ee1745fbc.4.llvm.15217368329388643332, symObjAddr: 0x9230, symBinAddr: 0x2E0750, symSize: 0x0 }
  - { offsetInCU: 0x789, offset: 0x1D2441, size: 0x8, addend: 0x0, symName: '__ZN100_$LT$syn..punctuated..PrivateIter$LT$T$C$P$GT$$u20$as$u20$core..iter..traits..iterator..Iterator$GT$4next17h0bd6665afc8df02aE.llvm.15217368329388643332', symObjAddr: 0x0, symBinAddr: 0x55450, symSize: 0x30 }
  - { offsetInCU: 0xA03, offset: 0x1D26BB, size: 0x8, addend: 0x0, symName: '__ZN100_$LT$syn..punctuated..PrivateIter$LT$T$C$P$GT$$u20$as$u20$core..iter..traits..iterator..Iterator$GT$4next17h5fc8bd472567ed69E.llvm.15217368329388643332', symObjAddr: 0x30, symBinAddr: 0x55480, symSize: 0x30 }
  - { offsetInCU: 0xC7D, offset: 0x1D2935, size: 0x8, addend: 0x0, symName: '__ZN100_$LT$syn..punctuated..PrivateIter$LT$T$C$P$GT$$u20$as$u20$core..iter..traits..iterator..Iterator$GT$4next17hcec0b4be2451d22bE.llvm.15217368329388643332', symObjAddr: 0x60, symBinAddr: 0x554B0, symSize: 0x30 }
  - { offsetInCU: 0xF8D, offset: 0x1D2C45, size: 0x8, addend: 0x0, symName: '__ZN111_$LT$syn..punctuated..PrivateIter$LT$T$C$P$GT$$u20$as$u20$core..iter..traits..exact_size..ExactSizeIterator$GT$3len17hc72c7630b4d29232E.llvm.15217368329388643332', symObjAddr: 0xC0, symBinAddr: 0x554E0, symSize: 0x30 }
  - { offsetInCU: 0x10FD, offset: 0x1D2DB5, size: 0x8, addend: 0x0, symName: '__ZN115_$LT$syn..punctuated..PrivateIter$LT$T$C$P$GT$$u20$as$u20$core..iter..traits..double_ended..DoubleEndedIterator$GT$9next_back17hb8d03ddf7cf381e0E.llvm.15217368329388643332', symObjAddr: 0x150, symBinAddr: 0x55510, symSize: 0x30 }
  - { offsetInCU: 0x146A, offset: 0x1D3122, size: 0x8, addend: 0x0, symName: '__ZN57_$LT$I$u20$as$u20$syn..punctuated..IterTrait$LT$T$GT$$GT$9clone_box17h882e734a76bd361cE.llvm.15217368329388643332', symObjAddr: 0x8020, symBinAddr: 0x5CD30, symSize: 0x60 }
  - { offsetInCU: 0x9F52, offset: 0x1DBC0A, size: 0x8, addend: 0x0, symName: '__ZN4core3ptr100drop_in_place$LT$core..option..Option$LT$alloc..boxed..Box$LT$syn..generics..LifetimeDef$GT$$GT$$GT$17h37a42be7919e8ee0E.llvm.15217368329388643332', symObjAddr: 0x4C0, symBinAddr: 0x55700, symSize: 0x150 }
  - { offsetInCU: 0xA4CE, offset: 0x1DC186, size: 0x8, addend: 0x0, symName: '__ZN4core3ptr100drop_in_place$LT$core..option..Option$LT$alloc..boxed..Box$LT$syn..path..GenericArgument$GT$$GT$$GT$17h56b44935b850a0e0E', symObjAddr: 0x610, symBinAddr: 0x55850, symSize: 0x50 }
  - { offsetInCU: 0xA69B, offset: 0x1DC353, size: 0x8, addend: 0x0, symName: '__ZN4core3ptr103drop_in_place$LT$core..option..Option$LT$alloc..boxed..Box$LT$syn..generics..TypeParamBound$GT$$GT$$GT$17ha4f14f3147120e74E', symObjAddr: 0x660, symBinAddr: 0x558A0, symSize: 0x90 }
  - { offsetInCU: 0xAA10, offset: 0x1DC6C8, size: 0x8, addend: 0x0, symName: '__ZN4core3ptr103drop_in_place$LT$syn..punctuated..Punctuated$LT$syn..generics..TypeParamBound$C$syn..token..Add$GT$$GT$17h3d13fe0092df77aeE.llvm.15217368329388643332', symObjAddr: 0x6F0, symBinAddr: 0x55930, symSize: 0x200 }
  - { offsetInCU: 0xB2EE, offset: 0x1DCFA6, size: 0x8, addend: 0x0, symName: '__ZN4core3ptr108drop_in_place$LT$syn..punctuated..Punctuated$LT$syn..expr..GenericMethodArgument$C$syn..token..Comma$GT$$GT$17h982883b999b6ac61E', symObjAddr: 0x8F0, symBinAddr: 0x55B30, symSize: 0x150 }
  - { offsetInCU: 0xB847, offset: 0x1DD4FF, size: 0x8, addend: 0x0, symName: '__ZN4core3ptr34drop_in_place$LT$syn..lit..Lit$GT$17h0dfe857ab92abdb4E', symObjAddr: 0xA40, symBinAddr: 0x55C80, symSize: 0x110 }
  - { offsetInCU: 0xBCB9, offset: 0x1DD971, size: 0x8, addend: 0x0, symName: '__ZN4core3ptr34drop_in_place$LT$syn..pat..Pat$GT$17he8adeea7ef215e45E', symObjAddr: 0xB50, symBinAddr: 0x55D90, symSize: 0x1190 }
  - { offsetInCU: 0xFBD1, offset: 0x1E1889, size: 0x8, addend: 0x0, symName: '__ZN4core3ptr34drop_in_place$LT$syn..ty..Type$GT$17hc0db84af17a0c354E.llvm.15217368329388643332', symObjAddr: 0x1CE0, symBinAddr: 0x56F20, symSize: 0x540 }
  - { offsetInCU: 0x11459, offset: 0x1E3111, size: 0x8, addend: 0x0, symName: '__ZN4core3ptr36drop_in_place$LT$syn..expr..Expr$GT$17hb7ba80408adcdaa0E', symObjAddr: 0x2220, symBinAddr: 0x57460, symSize: 0x3240 }
  - { offsetInCU: 0x1BC54, offset: 0x1ED90C, size: 0x8, addend: 0x0, symName: '__ZN4core3ptr36drop_in_place$LT$syn..mac..Macro$GT$17hfed7c41953ee11d3E', symObjAddr: 0x5460, symBinAddr: 0x5A6A0, symSize: 0x40 }
  - { offsetInCU: 0x1BDA5, offset: 0x1EDA5D, size: 0x8, addend: 0x0, symName: '__ZN4core3ptr36drop_in_place$LT$syn..path..Path$GT$17h6a40221ee38ae5b2E', symObjAddr: 0x54A0, symBinAddr: 0x5A6E0, symSize: 0x230 }
  - { offsetInCU: 0x1C73B, offset: 0x1EE3F3, size: 0x8, addend: 0x0, symName: '__ZN4core3ptr37drop_in_place$LT$syn..stmt..Block$GT$17h81806b3cd3ffe3baE', symObjAddr: 0x56D0, symBinAddr: 0x5A910, symSize: 0xD0 }
  - { offsetInCU: 0x1CA12, offset: 0x1EE6CA, size: 0x8, addend: 0x0, symName: '__ZN4core3ptr38drop_in_place$LT$syn..expr..Member$GT$17he44029471db3e184E', symObjAddr: 0x57A0, symBinAddr: 0x5A9E0, symSize: 0x30 }
  - { offsetInCU: 0x1CB0E, offset: 0x1EE7C6, size: 0x8, addend: 0x0, symName: '__ZN4core3ptr39drop_in_place$LT$proc_macro2..Ident$GT$17hb706ee28ee340dc7E', symObjAddr: 0x57D0, symBinAddr: 0x5AA10, symSize: 0x30 }
  - { offsetInCU: 0x1CBEB, offset: 0x1EE8A3, size: 0x8, addend: 0x0, symName: '__ZN4core3ptr39drop_in_place$LT$syn..pat..PatTuple$GT$17h7802ae4b3ffe01c7E', symObjAddr: 0x5800, symBinAddr: 0x5AA40, symSize: 0x100 }
  - { offsetInCU: 0x1CEF4, offset: 0x1EEBAC, size: 0x8, addend: 0x0, symName: '__ZN4core3ptr40drop_in_place$LT$syn..ty..ReturnType$GT$17h9bf1c0655e864d42E', symObjAddr: 0x5900, symBinAddr: 0x5AB40, symSize: 0x50 }
  - { offsetInCU: 0x1D064, offset: 0x1EED1C, size: 0x8, addend: 0x0, symName: '__ZN4core3ptr44drop_in_place$LT$syn..lifetime..Lifetime$GT$17h48bc6c724783eee4E', symObjAddr: 0x5950, symBinAddr: 0x5AB90, symSize: 0x30 }
  - { offsetInCU: 0x1D296, offset: 0x1EEF4E, size: 0x8, addend: 0x0, symName: '__ZN4core3ptr45drop_in_place$LT$proc_macro2..TokenStream$GT$17h5bbd4eaf0ff620e4E', symObjAddr: 0x5980, symBinAddr: 0x5ABC0, symSize: 0x140 }
  - { offsetInCU: 0x1D730, offset: 0x1EF3E8, size: 0x8, addend: 0x0, symName: '__ZN4core3ptr47drop_in_place$LT$syn..path..GenericArgument$GT$17hd4e7f6d0e01e8914E', symObjAddr: 0x5AC0, symBinAddr: 0x5AD00, symSize: 0x110 }
  - { offsetInCU: 0x1DAA8, offset: 0x1EF760, size: 0x8, addend: 0x0, symName: '__ZN4core3ptr50drop_in_place$LT$syn..generics..WherePredicate$GT$17h5aa8d2159c445688E.llvm.15217368329388643332', symObjAddr: 0x5BD0, symBinAddr: 0x5AE10, symSize: 0x100 }
  - { offsetInCU: 0x1DC2F, offset: 0x1EF8E7, size: 0x8, addend: 0x0, symName: '__ZN4core3ptr58drop_in_place$LT$alloc..vec..Vec$LT$syn..expr..Arm$GT$$GT$17ha68719cfbd883529E', symObjAddr: 0x5CD0, symBinAddr: 0x5AF10, symSize: 0xD0 }
  - { offsetInCU: 0x1DEEF, offset: 0x1EFBA7, size: 0x8, addend: 0x0, symName: '__ZN4core3ptr59drop_in_place$LT$alloc..boxed..Box$LT$syn..pat..Pat$GT$$GT$17hcdad39076eac1fa6E', symObjAddr: 0x5DA0, symBinAddr: 0x5AFE0, symSize: 0x50 }
  - { offsetInCU: 0x1E048, offset: 0x1EFD00, size: 0x8, addend: 0x0, symName: '__ZN4core3ptr59drop_in_place$LT$alloc..boxed..Box$LT$syn..ty..Type$GT$$GT$17heff72eb37aa4106cE', symObjAddr: 0x5DF0, symBinAddr: 0x5B030, symSize: 0x50 }
  - { offsetInCU: 0x1E1A1, offset: 0x1EFE59, size: 0x8, addend: 0x0, symName: '__ZN4core3ptr61drop_in_place$LT$alloc..boxed..Box$LT$syn..expr..Expr$GT$$GT$17h67843661e4b55b11E', symObjAddr: 0x5E40, symBinAddr: 0x5B080, symSize: 0x50 }
  - { offsetInCU: 0x1E376, offset: 0x1F002E, size: 0x8, addend: 0x0, symName: '__ZN4core3ptr61drop_in_place$LT$syn..path..ParenthesizedGenericArguments$GT$17he42ca826fd29664aE', symObjAddr: 0x5E90, symBinAddr: 0x5B0D0, symSize: 0x170 }
  - { offsetInCU: 0x1E96C, offset: 0x1F0624, size: 0x8, addend: 0x0, symName: '__ZN4core3ptr63drop_in_place$LT$alloc..boxed..Box$LT$syn..lit..LitRepr$GT$$GT$17h8222a56e6c683c5aE', symObjAddr: 0x6000, symBinAddr: 0x5B240, symSize: 0x60 }
  - { offsetInCU: 0x1EC73, offset: 0x1F092B, size: 0x8, addend: 0x0, symName: '__ZN4core3ptr64drop_in_place$LT$alloc..boxed..Box$LT$syn..pat..FieldPat$GT$$GT$17h66e88fe42bce0514E', symObjAddr: 0x6060, symBinAddr: 0x5B2A0, symSize: 0x180 }
  - { offsetInCU: 0x1F390, offset: 0x1F1048, size: 0x8, addend: 0x0, symName: '__ZN4core3ptr64drop_in_place$LT$alloc..boxed..Box$LT$syn..ty..BareFnArg$GT$$GT$17hc55aee6adabce0e0E', symObjAddr: 0x61E0, symBinAddr: 0x5B420, symSize: 0x160 }
  - { offsetInCU: 0x1F926, offset: 0x1F15DE, size: 0x8, addend: 0x0, symName: '__ZN4core3ptr65drop_in_place$LT$alloc..vec..Vec$LT$proc_macro..TokenTree$GT$$GT$17h8835dbfce829562fE', symObjAddr: 0x6340, symBinAddr: 0x5B580, symSize: 0x110 }
  - { offsetInCU: 0x1FD1E, offset: 0x1F19D6, size: 0x8, addend: 0x0, symName: '__ZN4core3ptr65drop_in_place$LT$core..option..Option$LT$syn..expr..Label$GT$$GT$17h1335ae7a7e0cb02bE', symObjAddr: 0x6450, symBinAddr: 0x5B690, symSize: 0x30 }
  - { offsetInCU: 0x1FE58, offset: 0x1F1B10, size: 0x8, addend: 0x0, symName: '__ZN4core3ptr66drop_in_place$LT$core..option..Option$LT$syn..ty..Variadic$GT$$GT$17h37054875f7f27315E', symObjAddr: 0x6480, symBinAddr: 0x5B6C0, symSize: 0xF0 }
  - { offsetInCU: 0x20182, offset: 0x1F1E3A, size: 0x8, addend: 0x0, symName: '__ZN4core3ptr67drop_in_place$LT$alloc..boxed..Box$LT$syn..expr..FieldValue$GT$$GT$17hce04fc28c268bc19E', symObjAddr: 0x6570, symBinAddr: 0x5B7B0, symSize: 0x160 }
  - { offsetInCU: 0x20717, offset: 0x1F23CF, size: 0x8, addend: 0x0, symName: '__ZN4core3ptr68drop_in_place$LT$alloc..boxed..Box$LT$syn..path..PathSegment$GT$$GT$17h5126e1cca9e13262E', symObjAddr: 0x66D0, symBinAddr: 0x5B910, symSize: 0x190 }
  - { offsetInCU: 0x20E40, offset: 0x1F2AF8, size: 0x8, addend: 0x0, symName: '__ZN4core3ptr72drop_in_place$LT$alloc..boxed..Box$LT$syn..path..GenericArgument$GT$$GT$17h688d94234e40ccdbE', symObjAddr: 0x6860, symBinAddr: 0x5BAA0, symSize: 0x1D0 }
  - { offsetInCU: 0x21567, offset: 0x1F321F, size: 0x8, addend: 0x0, symName: '__ZN4core3ptr72drop_in_place$LT$core..option..Option$LT$syn..lifetime..Lifetime$GT$$GT$17h55f693312904278fE', symObjAddr: 0x6A30, symBinAddr: 0x5BC70, symSize: 0x30 }
  - { offsetInCU: 0x21682, offset: 0x1F333A, size: 0x8, addend: 0x0, symName: '__ZN4core3ptr75drop_in_place$LT$alloc..boxed..Box$LT$syn..generics..TypeParamBound$GT$$GT$17h03630f28dbdf1321E', symObjAddr: 0x6A60, symBinAddr: 0x5BCA0, symSize: 0x140 }
  - { offsetInCU: 0x21BDD, offset: 0x1F3895, size: 0x8, addend: 0x0, symName: '__ZN4core3ptr78drop_in_place$LT$alloc..boxed..Box$LT$syn..expr..GenericMethodArgument$GT$$GT$17ha89dc9e7cfdf6f4dE', symObjAddr: 0x6BA0, symBinAddr: 0x5BDE0, symSize: 0x60 }
  - { offsetInCU: 0x21DCF, offset: 0x1F3A87, size: 0x8, addend: 0x0, symName: '__ZN4core3ptr78drop_in_place$LT$core..option..Option$LT$syn..generics..BoundLifetimes$GT$$GT$17h356c1327dde9200fE.llvm.15217368329388643332', symObjAddr: 0x6C00, symBinAddr: 0x5BE40, symSize: 0x90 }
  - { offsetInCU: 0x220BD, offset: 0x1F3D75, size: 0x8, addend: 0x0, symName: '__ZN4core3ptr86drop_in_place$LT$syn..punctuated..Punctuated$LT$syn..pat..Pat$C$syn..token..Or$GT$$GT$17h6ce24f9373f60dcbE', symObjAddr: 0x6C90, symBinAddr: 0x5BED0, symSize: 0x120 }
  - { offsetInCU: 0x22538, offset: 0x1F41F0, size: 0x8, addend: 0x0, symName: '__ZN4core3ptr87drop_in_place$LT$core..option..Option$LT$alloc..boxed..Box$LT$syn..pat..Pat$GT$$GT$$GT$17h0a540d9434f61900E', symObjAddr: 0x6DB0, symBinAddr: 0x5BFF0, symSize: 0x50 }
  - { offsetInCU: 0x226A8, offset: 0x1F4360, size: 0x8, addend: 0x0, symName: '__ZN4core3ptr87drop_in_place$LT$core..option..Option$LT$alloc..boxed..Box$LT$syn..ty..Type$GT$$GT$$GT$17h18108c56275e206bE', symObjAddr: 0x6E00, symBinAddr: 0x5C040, symSize: 0x50 }
  - { offsetInCU: 0x22818, offset: 0x1F44D0, size: 0x8, addend: 0x0, symName: '__ZN4core3ptr89drop_in_place$LT$core..option..Option$LT$alloc..boxed..Box$LT$syn..expr..Expr$GT$$GT$$GT$17hf18b288419ab9305E', symObjAddr: 0x6E50, symBinAddr: 0x5C090, symSize: 0x50 }
  - { offsetInCU: 0x229C6, offset: 0x1F467E, size: 0x8, addend: 0x0, symName: '__ZN4core3ptr89drop_in_place$LT$syn..punctuated..Punctuated$LT$syn..pat..Pat$C$syn..token..Comma$GT$$GT$17hde91c7229067911aE', symObjAddr: 0x6EA0, symBinAddr: 0x5C0E0, symSize: 0x120 }
  - { offsetInCU: 0x22E58, offset: 0x1F4B10, size: 0x8, addend: 0x0, symName: '__ZN4core3ptr89drop_in_place$LT$syn..punctuated..Punctuated$LT$syn..ty..Type$C$syn..token..Comma$GT$$GT$17hec4fba0d089f0e7dE', symObjAddr: 0x6FC0, symBinAddr: 0x5C200, symSize: 0x120 }
  - { offsetInCU: 0x23311, offset: 0x1F4FC9, size: 0x8, addend: 0x0, symName: '__ZN4core3ptr91drop_in_place$LT$syn..punctuated..Punctuated$LT$syn..expr..Expr$C$syn..token..Comma$GT$$GT$17h0c87a5b43a1d72edE', symObjAddr: 0x70E0, symBinAddr: 0x5C320, symSize: 0x120 }
  - { offsetInCU: 0x2379F, offset: 0x1F5457, size: 0x8, addend: 0x0, symName: '__ZN4core3ptr94drop_in_place$LT$syn..punctuated..Punctuated$LT$syn..pat..FieldPat$C$syn..token..Comma$GT$$GT$17h42d90ac6ad8fddbbE', symObjAddr: 0x7200, symBinAddr: 0x5C440, symSize: 0xF0 }
  - { offsetInCU: 0x23A9E, offset: 0x1F5756, size: 0x8, addend: 0x0, symName: '__ZN4core3ptr94drop_in_place$LT$syn..punctuated..Punctuated$LT$syn..ty..BareFnArg$C$syn..token..Comma$GT$$GT$17h19ad16c4f7981402E', symObjAddr: 0x72F0, symBinAddr: 0x5C530, symSize: 0x90 }
  - { offsetInCU: 0x23D0E, offset: 0x1F59C6, size: 0x8, addend: 0x0, symName: '__ZN4core3ptr96drop_in_place$LT$core..option..Option$LT$alloc..boxed..Box$LT$syn..path..PathSegment$GT$$GT$$GT$17h2353022cffaa67a2E', symObjAddr: 0x7380, symBinAddr: 0x5C5C0, symSize: 0x180 }
  - { offsetInCU: 0x243EA, offset: 0x1F60A2, size: 0x8, addend: 0x0, symName: '__ZN4core3ptr97drop_in_place$LT$syn..punctuated..Punctuated$LT$syn..expr..FieldValue$C$syn..token..Comma$GT$$GT$17hc2ecca3911a607ecE', symObjAddr: 0x7550, symBinAddr: 0x5C740, symSize: 0x90 }
  - { offsetInCU: 0x246B7, offset: 0x1F636F, size: 0x8, addend: 0x0, symName: '__ZN4core3ptr97drop_in_place$LT$syn..punctuated..Punctuated$LT$syn..lifetime..Lifetime$C$syn..token..Add$GT$$GT$17h6cafbe16207b9c08E.llvm.15217368329388643332', symObjAddr: 0x75E0, symBinAddr: 0x5C7D0, symSize: 0xD0 }
  - { offsetInCU: 0x24B2B, offset: 0x1F67E3, size: 0x8, addend: 0x0, symName: '__ZN4core3ptr99drop_in_place$LT$syn..punctuated..Punctuated$LT$syn..path..PathSegment$C$syn..token..Colon2$GT$$GT$17hfc92522704956751E', symObjAddr: 0x76B0, symBinAddr: 0x5C8A0, symSize: 0x250 }
  - { offsetInCU: 0x25D62, offset: 0x1F7A1A, size: 0x8, addend: 0x0, symName: __ZN4core4iter6traits10exact_size17ExactSizeIterator8is_empty17hef4695b4a6f0958aE.llvm.15217368329388643332, symObjAddr: 0x7960, symBinAddr: 0x5CAF0, symSize: 0x30 }
  - { offsetInCU: 0x25ED9, offset: 0x1F7B91, size: 0x8, addend: 0x0, symName: __ZN4core4iter6traits12double_ended19DoubleEndedIterator15advance_back_by17hb210025e3bfe8e32E.llvm.15217368329388643332, symObjAddr: 0x7A90, symBinAddr: 0x5CB20, symSize: 0x70 }
  - { offsetInCU: 0x2613E, offset: 0x1F7DF6, size: 0x8, addend: 0x0, symName: __ZN4core4iter6traits12double_ended19DoubleEndedIterator8nth_back17hef1e5f3e65648af0E.llvm.15217368329388643332, symObjAddr: 0x7C40, symBinAddr: 0x5CB90, symSize: 0xA0 }
  - { offsetInCU: 0x265D7, offset: 0x1F828F, size: 0x8, addend: 0x0, symName: __ZN4core4iter6traits8iterator8Iterator10advance_by17h0266399f9d662ee9E.llvm.15217368329388643332, symObjAddr: 0x7CE0, symBinAddr: 0x5CC30, symSize: 0x60 }
  - { offsetInCU: 0x26929, offset: 0x1F85E1, size: 0x8, addend: 0x0, symName: __ZN4core4iter6traits8iterator8Iterator3nth17hf76d5275c212e024E.llvm.15217368329388643332, symObjAddr: 0x7F20, symBinAddr: 0x5CC90, symSize: 0x80 }
  - { offsetInCU: 0x26EC3, offset: 0x1F8B7B, size: 0x8, addend: 0x0, symName: __ZN4core4iter6traits8iterator8Iterator9size_hint17h3f223bdde67c4575E.llvm.15217368329388643332, symObjAddr: 0x7FA0, symBinAddr: 0x5CD10, symSize: 0x0 }
  - { offsetInCU: 0x2A7C1, offset: 0x1FC479, size: 0x8, addend: 0x0, symName: '__ZN3syn10punctuated23Punctuated$LT$T$C$P$GT$4push17hab32a622e995dacdE', symObjAddr: 0x300, symBinAddr: 0x55540, symSize: 0x1C0 }
  - { offsetInCU: 0x1E, offset: 0x1FF450, size: 0x8, addend: 0x0, symName: '__ZN48_$LT$T$u20$as$u20$core..clone..CloneToUninit$GT$15clone_to_uninit17h9c811a831975dc8bE', symObjAddr: 0x0, symBinAddr: 0x5CD90, symSize: 0x330 }
  - { offsetInCU: 0x18BB, offset: 0x200CED, size: 0x8, addend: 0x0, symName: '__ZN4core3ptr100drop_in_place$LT$core..option..Option$LT$alloc..boxed..Box$LT$syn..generics..LifetimeDef$GT$$GT$$GT$17h37a42be7919e8ee0E', symObjAddr: 0x330, symBinAddr: 0x5D0C0, symSize: 0x50 }
  - { offsetInCU: 0x1A4A, offset: 0x200E7C, size: 0x8, addend: 0x0, symName: '__ZN4core3ptr100drop_in_place$LT$core..option..Option$LT$alloc..boxed..Box$LT$syn..path..GenericArgument$GT$$GT$$GT$17h56b44935b850a0e0E', symObjAddr: 0x380, symBinAddr: 0x5D110, symSize: 0x50 }
  - { offsetInCU: 0x1BD9, offset: 0x20100B, size: 0x8, addend: 0x0, symName: '__ZN4core3ptr101drop_in_place$LT$core..option..Option$LT$alloc..boxed..Box$LT$syn..generics..GenericParam$GT$$GT$$GT$17h29c7f7cb11a3f422E', symObjAddr: 0x3D0, symBinAddr: 0x5D160, symSize: 0x50 }
  - { offsetInCU: 0x1E9E, offset: 0x2012D0, size: 0x8, addend: 0x0, symName: '__ZN4core3ptr102drop_in_place$LT$syn..punctuated..Punctuated$LT$syn..generics..LifetimeDef$C$syn..token..Comma$GT$$GT$17h782beb3a79cf4efdE', symObjAddr: 0x420, symBinAddr: 0x5D1B0, symSize: 0x170 }
  - { offsetInCU: 0x2395, offset: 0x2017C7, size: 0x8, addend: 0x0, symName: '__ZN4core3ptr102drop_in_place$LT$syn..punctuated..Punctuated$LT$syn..path..GenericArgument$C$syn..token..Comma$GT$$GT$17ha634dcfab7322d78E.llvm.11979415971153298889', symObjAddr: 0x590, symBinAddr: 0x5D320, symSize: 0xF0 }
  - { offsetInCU: 0x2734, offset: 0x201B66, size: 0x8, addend: 0x0, symName: '__ZN4core3ptr103drop_in_place$LT$core..option..Option$LT$alloc..boxed..Box$LT$syn..generics..TypeParamBound$GT$$GT$$GT$17ha4f14f3147120e74E', symObjAddr: 0x680, symBinAddr: 0x5D410, symSize: 0xA0 }
  - { offsetInCU: 0x2A23, offset: 0x201E55, size: 0x8, addend: 0x0, symName: '__ZN4core3ptr103drop_in_place$LT$core..option..Option$LT$alloc..boxed..Box$LT$syn..generics..WherePredicate$GT$$GT$$GT$17h41482e2912c9a9eaE', symObjAddr: 0x720, symBinAddr: 0x5D4B0, symSize: 0x50 }
  - { offsetInCU: 0x2C4D, offset: 0x20207F, size: 0x8, addend: 0x0, symName: '__ZN4core3ptr103drop_in_place$LT$syn..punctuated..Punctuated$LT$syn..generics..GenericParam$C$syn..token..Comma$GT$$GT$17hd6fa75ffbd4a480dE', symObjAddr: 0x770, symBinAddr: 0x5D500, symSize: 0x1A0 }
  - { offsetInCU: 0x3239, offset: 0x20266B, size: 0x8, addend: 0x0, symName: '__ZN4core3ptr103drop_in_place$LT$syn..punctuated..Punctuated$LT$syn..generics..TypeParamBound$C$syn..token..Add$GT$$GT$17h3d13fe0092df77aeE', symObjAddr: 0x910, symBinAddr: 0x5D6A0, symSize: 0x2E0 }
  - { offsetInCU: 0x4027, offset: 0x203459, size: 0x8, addend: 0x0, symName: '__ZN4core3ptr105drop_in_place$LT$syn..punctuated..Punctuated$LT$syn..generics..WherePredicate$C$syn..token..Comma$GT$$GT$17h9a407d0c3253e141E', symObjAddr: 0xBF0, symBinAddr: 0x5D980, symSize: 0x1A0 }
  - { offsetInCU: 0x469D, offset: 0x203ACF, size: 0x8, addend: 0x0, symName: '__ZN4core3ptr108drop_in_place$LT$syn..punctuated..Punctuated$LT$syn..expr..GenericMethodArgument$C$syn..token..Comma$GT$$GT$17h982883b999b6ac61E', symObjAddr: 0xD90, symBinAddr: 0x5DB20, symSize: 0x150 }
  - { offsetInCU: 0x4B81, offset: 0x203FB3, size: 0x8, addend: 0x0, symName: '__ZN4core3ptr126drop_in_place$LT$core..option..Option$LT$$LP$syn..token..And$C$core..option..Option$LT$syn..lifetime..Lifetime$GT$$RP$$GT$$GT$17h4d9e4d38fa9955ecE', symObjAddr: 0xEE0, symBinAddr: 0x5DC70, symSize: 0x30 }
  - { offsetInCU: 0x4E10, offset: 0x204242, size: 0x8, addend: 0x0, symName: '__ZN4core3ptr33drop_in_place$LT$syn..ty..Abi$GT$17hc807ab73475413f7E', symObjAddr: 0xF10, symBinAddr: 0x5DCA0, symSize: 0x70 }
  - { offsetInCU: 0x4E2C, offset: 0x20425E, size: 0x8, addend: 0x0, symName: '__ZN4core3ptr33drop_in_place$LT$syn..ty..Abi$GT$17hc807ab73475413f7E', symObjAddr: 0xF10, symBinAddr: 0x5DCA0, symSize: 0x70 }
  - { offsetInCU: 0x5104, offset: 0x204536, size: 0x8, addend: 0x0, symName: '__ZN4core3ptr34drop_in_place$LT$syn..lit..Lit$GT$17h0dfe857ab92abdb4E.llvm.11979415971153298889', symObjAddr: 0xF80, symBinAddr: 0x5DD10, symSize: 0x120 }
  - { offsetInCU: 0x5526, offset: 0x204958, size: 0x8, addend: 0x0, symName: '__ZN4core3ptr34drop_in_place$LT$syn..pat..Pat$GT$17he8adeea7ef215e45E.llvm.11979415971153298889', symObjAddr: 0x10A0, symBinAddr: 0x5DE30, symSize: 0x5C0 }
  - { offsetInCU: 0x62FD, offset: 0x20572F, size: 0x8, addend: 0x0, symName: '__ZN4core3ptr34drop_in_place$LT$syn..ty..Type$GT$17hc0db84af17a0c354E.llvm.11979415971153298889', symObjAddr: 0x1660, symBinAddr: 0x5E3F0, symSize: 0x410 }
  - { offsetInCU: 0x7056, offset: 0x206488, size: 0x8, addend: 0x0, symName: '__ZN4core3ptr35drop_in_place$LT$syn..expr..Arm$GT$17h4c88b23235a2a0b4E.llvm.11979415971153298889', symObjAddr: 0x1A70, symBinAddr: 0x5E800, symSize: 0x130 }
  - { offsetInCU: 0x772C, offset: 0x206B5E, size: 0x8, addend: 0x0, symName: '__ZN4core3ptr36drop_in_place$LT$syn..attr..Meta$GT$17he4e1d8973d5c26a4E.llvm.11979415971153298889', symObjAddr: 0x1BA0, symBinAddr: 0x5E930, symSize: 0x1B0 }
  - { offsetInCU: 0x818F, offset: 0x2075C1, size: 0x8, addend: 0x0, symName: '__ZN4core3ptr36drop_in_place$LT$syn..expr..Expr$GT$17hb7ba80408adcdaa0E.llvm.11979415971153298889', symObjAddr: 0x1D50, symBinAddr: 0x5EAE0, symSize: 0x14C0 }
  - { offsetInCU: 0xBB98, offset: 0x20AFCA, size: 0x8, addend: 0x0, symName: '__ZN4core3ptr36drop_in_place$LT$syn..item..Item$GT$17h2d19ae36ba0296b9E.llvm.11979415971153298889', symObjAddr: 0x3210, symBinAddr: 0x5FFA0, symSize: 0x10F0 }
  - { offsetInCU: 0xEB7F, offset: 0x20DFB1, size: 0x8, addend: 0x0, symName: '__ZN4core3ptr36drop_in_place$LT$syn..mac..Macro$GT$17hfed7c41953ee11d3E', symObjAddr: 0x4300, symBinAddr: 0x61090, symSize: 0xE0 }
  - { offsetInCU: 0xEF25, offset: 0x20E357, size: 0x8, addend: 0x0, symName: '__ZN4core3ptr36drop_in_place$LT$syn..path..Path$GT$17h6a40221ee38ae5b2E.llvm.11979415971153298889', symObjAddr: 0x43E0, symBinAddr: 0x61170, symSize: 0x160 }
  - { offsetInCU: 0xF4CD, offset: 0x20E8FF, size: 0x8, addend: 0x0, symName: '__ZN4core3ptr36drop_in_place$LT$syn..stmt..Stmt$GT$17hcd6a232765b604d3E.llvm.11979415971153298889', symObjAddr: 0x4540, symBinAddr: 0x612D0, symSize: 0xF0 }
  - { offsetInCU: 0xF6CF, offset: 0x20EB01, size: 0x8, addend: 0x0, symName: '__ZN4core3ptr37drop_in_place$LT$syn..data..Field$GT$17h1af72aa6d249fbf7E', symObjAddr: 0x4630, symBinAddr: 0x613C0, symSize: 0x140 }
  - { offsetInCU: 0xFC7A, offset: 0x20F0AC, size: 0x8, addend: 0x0, symName: '__ZN4core3ptr37drop_in_place$LT$syn..item..FnArg$GT$17ha40f9cacbec118e4E', symObjAddr: 0x4770, symBinAddr: 0x61500, symSize: 0x110 }
  - { offsetInCU: 0x100BA, offset: 0x20F4EC, size: 0x8, addend: 0x0, symName: '__ZN4core3ptr37drop_in_place$LT$syn..stmt..Block$GT$17h81806b3cd3ffe3baE', symObjAddr: 0x4880, symBinAddr: 0x61610, symSize: 0xD0 }
  - { offsetInCU: 0x10398, offset: 0x20F7CA, size: 0x8, addend: 0x0, symName: '__ZN4core3ptr38drop_in_place$LT$syn..expr..Member$GT$17he44029471db3e184E.llvm.11979415971153298889', symObjAddr: 0x4950, symBinAddr: 0x616E0, symSize: 0x30 }
  - { offsetInCU: 0x10494, offset: 0x20F8C6, size: 0x8, addend: 0x0, symName: '__ZN4core3ptr38drop_in_place$LT$syn..pat..PatType$GT$17hf906d2a798f44b85E', symObjAddr: 0x4980, symBinAddr: 0x61710, symSize: 0x100 }
  - { offsetInCU: 0x10A03, offset: 0x20FE35, size: 0x8, addend: 0x0, symName: '__ZN4core3ptr38drop_in_place$LT$syn..ty..Variadic$GT$17hfdb24f2d69303d84E', symObjAddr: 0x4A80, symBinAddr: 0x61810, symSize: 0x80 }
  - { offsetInCU: 0x10CD2, offset: 0x210104, size: 0x8, addend: 0x0, symName: '__ZN4core3ptr39drop_in_place$LT$proc_macro2..Ident$GT$17hb706ee28ee340dc7E', symObjAddr: 0x4B00, symBinAddr: 0x61890, symSize: 0x30 }
  - { offsetInCU: 0x10E0C, offset: 0x21023E, size: 0x8, addend: 0x0, symName: '__ZN4core3ptr39drop_in_place$LT$syn..data..Variant$GT$17h521c3d8f458a72e9E', symObjAddr: 0x4B30, symBinAddr: 0x618C0, symSize: 0x2B0 }
  - { offsetInCU: 0x11A58, offset: 0x210E8A, size: 0x8, addend: 0x0, symName: '__ZN4core3ptr39drop_in_place$LT$syn..item..UseTree$GT$17h88d8572ce2ce0d49E', symObjAddr: 0x4DE0, symBinAddr: 0x61B70, symSize: 0x1F0 }
  - { offsetInCU: 0x12230, offset: 0x211662, size: 0x8, addend: 0x0, symName: '__ZN4core3ptr39drop_in_place$LT$syn..pat..PatTuple$GT$17h7802ae4b3ffe01c7E', symObjAddr: 0x4FD0, symBinAddr: 0x61D60, symSize: 0x180 }
  - { offsetInCU: 0x129AA, offset: 0x211DDC, size: 0x8, addend: 0x0, symName: '__ZN4core3ptr40drop_in_place$LT$syn..attr..MetaList$GT$17h373c0c65ee8b7e2bE.llvm.11979415971153298889', symObjAddr: 0x5150, symBinAddr: 0x61EE0, symSize: 0x1C0 }
  - { offsetInCU: 0x12E3D, offset: 0x21226F, size: 0x8, addend: 0x0, symName: '__ZN4core3ptr40drop_in_place$LT$syn..item..ImplItem$GT$17h603332621e6cab41E', symObjAddr: 0x5310, symBinAddr: 0x620A0, symSize: 0x1B0 }
  - { offsetInCU: 0x131A5, offset: 0x2125D7, size: 0x8, addend: 0x0, symName: '__ZN4core3ptr40drop_in_place$LT$syn..ty..ReturnType$GT$17h9bf1c0655e864d42E.llvm.11979415971153298889', symObjAddr: 0x54C0, symBinAddr: 0x62250, symSize: 0x50 }
  - { offsetInCU: 0x13315, offset: 0x212747, size: 0x8, addend: 0x0, symName: '__ZN4core3ptr41drop_in_place$LT$syn..attr..Attribute$GT$17h06c4ec47f6d4f5d3E.llvm.11979415971153298889', symObjAddr: 0x5510, symBinAddr: 0x622A0, symSize: 0x40 }
  - { offsetInCU: 0x13485, offset: 0x2128B7, size: 0x8, addend: 0x0, symName: '__ZN4core3ptr41drop_in_place$LT$syn..item..Signature$GT$17h152bc2dd39d0e782E', symObjAddr: 0x5550, symBinAddr: 0x622E0, symSize: 0x2C0 }
  - { offsetInCU: 0x14270, offset: 0x2136A2, size: 0x8, addend: 0x0, symName: '__ZN4core3ptr41drop_in_place$LT$syn..item..TraitItem$GT$17h1a7dd5d49fcc4a08E', symObjAddr: 0x5810, symBinAddr: 0x625A0, symSize: 0x2A0 }
  - { offsetInCU: 0x14A2B, offset: 0x213E5D, size: 0x8, addend: 0x0, symName: '__ZN4core3ptr43drop_in_place$LT$proc_macro2..TokenTree$GT$17hf3adf4fd905203f6E.llvm.11979415971153298889', symObjAddr: 0x5B40, symBinAddr: 0x62840, symSize: 0x180 }
  - { offsetInCU: 0x15272, offset: 0x2146A4, size: 0x8, addend: 0x0, symName: '__ZN4core3ptr43drop_in_place$LT$syn..data..FieldsNamed$GT$17hbf4d1d3b6831bdb5E', symObjAddr: 0x5CC0, symBinAddr: 0x629C0, symSize: 0x120 }
  - { offsetInCU: 0x15751, offset: 0x214B83, size: 0x8, addend: 0x0, symName: '__ZN4core3ptr43drop_in_place$LT$syn..item..ForeignItem$GT$17hf0ff8745b64c5212E', symObjAddr: 0x5DE0, symBinAddr: 0x62AE0, symSize: 0x2B0 }
  - { offsetInCU: 0x15D1B, offset: 0x21514D, size: 0x8, addend: 0x0, symName: '__ZN4core3ptr43drop_in_place$LT$syn..path..PathSegment$GT$17haa9e9819a6f43220E.llvm.11979415971153298889', symObjAddr: 0x6090, symBinAddr: 0x62D90, symSize: 0x170 }
  - { offsetInCU: 0x16315, offset: 0x215747, size: 0x8, addend: 0x0, symName: '__ZN4core3ptr44drop_in_place$LT$syn..generics..Generics$GT$17he90fe75a150cc078E', symObjAddr: 0x6200, symBinAddr: 0x62F00, symSize: 0x230 }
  - { offsetInCU: 0x16C52, offset: 0x216084, size: 0x8, addend: 0x0, symName: '__ZN4core3ptr44drop_in_place$LT$syn..item..ImplItemType$GT$17h81096b4545bdc56fE', symObjAddr: 0x6430, symBinAddr: 0x63130, symSize: 0x180 }
  - { offsetInCU: 0x17220, offset: 0x216652, size: 0x8, addend: 0x0, symName: '__ZN4core3ptr44drop_in_place$LT$syn..lifetime..Lifetime$GT$17h48bc6c724783eee4E.llvm.11979415971153298889', symObjAddr: 0x65B0, symBinAddr: 0x632B0, symSize: 0x30 }
  - { offsetInCU: 0x17379, offset: 0x2167AB, size: 0x8, addend: 0x0, symName: '__ZN4core3ptr45drop_in_place$LT$proc_macro2..TokenStream$GT$17h5bbd4eaf0ff620e4E.llvm.11979415971153298889', symObjAddr: 0x65E0, symBinAddr: 0x632E0, symSize: 0x70 }
  - { offsetInCU: 0x174C1, offset: 0x2168F3, size: 0x8, addend: 0x0, symName: '__ZN4core3ptr45drop_in_place$LT$syn..data..VisRestricted$GT$17ha1f19904d9b6e3bbE', symObjAddr: 0x6650, symBinAddr: 0x63350, symSize: 0x50 }
  - { offsetInCU: 0x17677, offset: 0x216AA9, size: 0x8, addend: 0x0, symName: '__ZN4core3ptr45drop_in_place$LT$syn..generics..TypeParam$GT$17h58fd746bd1b205edE', symObjAddr: 0x66A0, symBinAddr: 0x633A0, symSize: 0x1D0 }
  - { offsetInCU: 0x17FD5, offset: 0x217407, size: 0x8, addend: 0x0, symName: '__ZN4core3ptr45drop_in_place$LT$syn..item..ImplItemConst$GT$17hd919852d5e5c2cdbE', symObjAddr: 0x6870, symBinAddr: 0x63570, symSize: 0x150 }
  - { offsetInCU: 0x18560, offset: 0x217992, size: 0x8, addend: 0x0, symName: '__ZN4core3ptr45drop_in_place$LT$syn..item..TraitItemType$GT$17hc9b5a65525e7e43bE', symObjAddr: 0x69C0, symBinAddr: 0x636C0, symSize: 0x230 }
  - { offsetInCU: 0x18F97, offset: 0x2183C9, size: 0x8, addend: 0x0, symName: '__ZN4core3ptr46drop_in_place$LT$syn..generics..ConstParam$GT$17ha07a799e665de74aE', symObjAddr: 0x6BF0, symBinAddr: 0x638F0, symSize: 0x110 }
  - { offsetInCU: 0x19380, offset: 0x2187B2, size: 0x8, addend: 0x0, symName: '__ZN4core3ptr46drop_in_place$LT$syn..item..ImplItemMethod$GT$17hdd87aab31348dd45E', symObjAddr: 0x6D00, symBinAddr: 0x63A00, symSize: 0x1E0 }
  - { offsetInCU: 0x19AE5, offset: 0x218F17, size: 0x8, addend: 0x0, symName: '__ZN4core3ptr46drop_in_place$LT$syn..item..TraitItemConst$GT$17he41dd3028dda8f6fE', symObjAddr: 0x6EE0, symBinAddr: 0x63BE0, symSize: 0x110 }
  - { offsetInCU: 0x19F00, offset: 0x219332, size: 0x8, addend: 0x0, symName: '__ZN4core3ptr47drop_in_place$LT$syn..generics..LifetimeDef$GT$17h4f6e39ca705d0552E', symObjAddr: 0x6FF0, symBinAddr: 0x63CF0, symSize: 0xB0 }
  - { offsetInCU: 0x1A2C8, offset: 0x2196FA, size: 0x8, addend: 0x0, symName: '__ZN4core3ptr47drop_in_place$LT$syn..generics..WhereClause$GT$17hd6a0c88787d20795E', symObjAddr: 0x70A0, symBinAddr: 0x63DA0, symSize: 0x120 }
  - { offsetInCU: 0x1A788, offset: 0x219BBA, size: 0x8, addend: 0x0, symName: '__ZN4core3ptr47drop_in_place$LT$syn..path..GenericArgument$GT$17hd4e7f6d0e01e8914E', symObjAddr: 0x71C0, symBinAddr: 0x63EC0, symSize: 0x110 }
  - { offsetInCU: 0x1AAA3, offset: 0x219ED5, size: 0x8, addend: 0x0, symName: '__ZN4core3ptr48drop_in_place$LT$syn..generics..GenericParam$GT$17h3f7a46559ac23e77E', symObjAddr: 0x72D0, symBinAddr: 0x63FD0, symSize: 0xA0 }
  - { offsetInCU: 0x1ABDC, offset: 0x21A00E, size: 0x8, addend: 0x0, symName: '__ZN4core3ptr49drop_in_place$LT$syn..generics..PredicateType$GT$17had2193fd1bad2d42E.llvm.11979415971153298889', symObjAddr: 0x7370, symBinAddr: 0x64070, symSize: 0x230 }
  - { offsetInCU: 0x1B600, offset: 0x21AA32, size: 0x8, addend: 0x0, symName: '__ZN4core3ptr49drop_in_place$LT$syn..item..ForeignItemStatic$GT$17h18d3bcda99be6051E', symObjAddr: 0x75A0, symBinAddr: 0x642A0, symSize: 0x150 }
  - { offsetInCU: 0x1BCBD, offset: 0x21B0EF, size: 0x8, addend: 0x0, symName: '__ZN4core3ptr50drop_in_place$LT$$u5b$syn..item..ImplItem$u5d$$GT$17hd5c9626da0fe696cE', symObjAddr: 0x76F0, symBinAddr: 0x643F0, symSize: 0x1C0 }
  - { offsetInCU: 0x1BF5D, offset: 0x21B38F, size: 0x8, addend: 0x0, symName: '__ZN4core3ptr50drop_in_place$LT$syn..generics..BoundLifetimes$GT$17hefb14378a89da81dE.llvm.11979415971153298889', symObjAddr: 0x78B0, symBinAddr: 0x645B0, symSize: 0x110 }
  - { offsetInCU: 0x1C3DD, offset: 0x21B80F, size: 0x8, addend: 0x0, symName: '__ZN4core3ptr50drop_in_place$LT$syn..generics..TypeParamBound$GT$17h48b9bfd60434cd2cE', symObjAddr: 0x79C0, symBinAddr: 0x646C0, symSize: 0x80 }
  - { offsetInCU: 0x1C562, offset: 0x21B994, size: 0x8, addend: 0x0, symName: '__ZN4core3ptr50drop_in_place$LT$syn..generics..WherePredicate$GT$17h5aa8d2159c445688E', symObjAddr: 0x7A40, symBinAddr: 0x64740, symSize: 0x110 }
  - { offsetInCU: 0x1C721, offset: 0x21BB53, size: 0x8, addend: 0x0, symName: '__ZN4core3ptr51drop_in_place$LT$$u5b$syn..attr..Attribute$u5d$$GT$17h13ca78a948973da6E.llvm.11979415971153298889', symObjAddr: 0x7B50, symBinAddr: 0x64850, symSize: 0x1A0 }
  - { offsetInCU: 0x1CAC9, offset: 0x21BEFB, size: 0x8, addend: 0x0, symName: '__ZN4core3ptr51drop_in_place$LT$$u5b$syn..item..TraitItem$u5d$$GT$17he845b2eb5818afb6E', symObjAddr: 0x7CF0, symBinAddr: 0x649F0, symSize: 0x440 }
  - { offsetInCU: 0x1D55C, offset: 0x21C98E, size: 0x8, addend: 0x0, symName: '__ZN4core3ptr53drop_in_place$LT$$u5b$syn..item..ForeignItem$u5d$$GT$17hd12923fe984e7584E', symObjAddr: 0x8130, symBinAddr: 0x64E30, symSize: 0x3A0 }
  - { offsetInCU: 0x1E055, offset: 0x21D487, size: 0x8, addend: 0x0, symName: '__ZN4core3ptr58drop_in_place$LT$alloc..vec..Vec$LT$syn..expr..Arm$GT$$GT$17ha68719cfbd883529E', symObjAddr: 0x84D0, symBinAddr: 0x651D0, symSize: 0xD0 }
  - { offsetInCU: 0x1E31C, offset: 0x21D74E, size: 0x8, addend: 0x0, symName: '__ZN4core3ptr59drop_in_place$LT$alloc..boxed..Box$LT$syn..pat..Pat$GT$$GT$17hcdad39076eac1fa6E.llvm.11979415971153298889', symObjAddr: 0x85A0, symBinAddr: 0x652A0, symSize: 0x50 }
  - { offsetInCU: 0x1E475, offset: 0x21D8A7, size: 0x8, addend: 0x0, symName: '__ZN4core3ptr59drop_in_place$LT$alloc..boxed..Box$LT$syn..ty..Type$GT$$GT$17heff72eb37aa4106cE', symObjAddr: 0x85F0, symBinAddr: 0x652F0, symSize: 0x50 }
  - { offsetInCU: 0x1E5CE, offset: 0x21DA00, size: 0x8, addend: 0x0, symName: '__ZN4core3ptr59drop_in_place$LT$alloc..vec..Vec$LT$syn..item..Item$GT$$GT$17h43c613fbbddaeb66E', symObjAddr: 0x8640, symBinAddr: 0x65340, symSize: 0xD0 }
  - { offsetInCU: 0x1E895, offset: 0x21DCC7, size: 0x8, addend: 0x0, symName: '__ZN4core3ptr61drop_in_place$LT$alloc..boxed..Box$LT$syn..expr..Expr$GT$$GT$17h67843661e4b55b11E.llvm.11979415971153298889', symObjAddr: 0x8710, symBinAddr: 0x65410, symSize: 0x50 }
  - { offsetInCU: 0x1E9EE, offset: 0x21DE20, size: 0x8, addend: 0x0, symName: '__ZN4core3ptr61drop_in_place$LT$alloc..boxed..Box$LT$syn..path..Path$GT$$GT$17h14b2d87cdb3c9173E', symObjAddr: 0x8760, symBinAddr: 0x65460, symSize: 0x100 }
  - { offsetInCU: 0x1EF0E, offset: 0x21E340, size: 0x8, addend: 0x0, symName: '__ZN4core3ptr61drop_in_place$LT$syn..path..ParenthesizedGenericArguments$GT$17he42ca826fd29664aE.llvm.11979415971153298889', symObjAddr: 0x8860, symBinAddr: 0x65560, symSize: 0x170 }
  - { offsetInCU: 0x1F50B, offset: 0x21E93D, size: 0x8, addend: 0x0, symName: '__ZN4core3ptr62drop_in_place$LT$alloc..boxed..Box$LT$syn..data..Field$GT$$GT$17h653a1a930486ba66E', symObjAddr: 0x89D0, symBinAddr: 0x656D0, symSize: 0x50 }
  - { offsetInCU: 0x1F683, offset: 0x21EAB5, size: 0x8, addend: 0x0, symName: '__ZN4core3ptr62drop_in_place$LT$alloc..boxed..Box$LT$syn..item..FnArg$GT$$GT$17h500f862038960852E', symObjAddr: 0x8A20, symBinAddr: 0x65720, symSize: 0xD0 }
  - { offsetInCU: 0x1FBA4, offset: 0x21EFD6, size: 0x8, addend: 0x0, symName: '__ZN4core3ptr62drop_in_place$LT$alloc..boxed..Box$LT$syn..stmt..Block$GT$$GT$17h77499aa688b58014E', symObjAddr: 0x8AF0, symBinAddr: 0x657F0, symSize: 0xE0 }
  - { offsetInCU: 0x1FFBD, offset: 0x21F3EF, size: 0x8, addend: 0x0, symName: '__ZN4core3ptr62drop_in_place$LT$syn..path..AngleBracketedGenericArguments$GT$17hd86160a5e9678ba7E.llvm.11979415971153298889', symObjAddr: 0x8BD0, symBinAddr: 0x658D0, symSize: 0x120 }
  - { offsetInCU: 0x2043F, offset: 0x21F871, size: 0x8, addend: 0x0, symName: '__ZN4core3ptr63drop_in_place$LT$alloc..vec..Vec$LT$syn..item..ImplItem$GT$$GT$17h95571c22a9940de2E', symObjAddr: 0x8CF0, symBinAddr: 0x659F0, symSize: 0x80 }
  - { offsetInCU: 0x206F7, offset: 0x21FB29, size: 0x8, addend: 0x0, symName: '__ZN4core3ptr64drop_in_place$LT$alloc..boxed..Box$LT$syn..data..Variant$GT$$GT$17h7bbddfa1c4ceba69E', symObjAddr: 0x8D70, symBinAddr: 0x65A70, symSize: 0x50 }
  - { offsetInCU: 0x20850, offset: 0x21FC82, size: 0x8, addend: 0x0, symName: '__ZN4core3ptr64drop_in_place$LT$alloc..boxed..Box$LT$syn..item..UseTree$GT$$GT$17h7466635d3764b37fE', symObjAddr: 0x8DC0, symBinAddr: 0x65AC0, symSize: 0x50 }
  - { offsetInCU: 0x209E7, offset: 0x21FE19, size: 0x8, addend: 0x0, symName: '__ZN4core3ptr64drop_in_place$LT$alloc..boxed..Box$LT$syn..pat..FieldPat$GT$$GT$17h66e88fe42bce0514E', symObjAddr: 0x8E10, symBinAddr: 0x65B10, symSize: 0xC0 }
  - { offsetInCU: 0x20E12, offset: 0x220244, size: 0x8, addend: 0x0, symName: '__ZN4core3ptr64drop_in_place$LT$alloc..boxed..Box$LT$syn..ty..BareFnArg$GT$$GT$17hc55aee6adabce0e0E', symObjAddr: 0x8ED0, symBinAddr: 0x65BD0, symSize: 0xA0 }
  - { offsetInCU: 0x210D5, offset: 0x220507, size: 0x8, addend: 0x0, symName: '__ZN4core3ptr64drop_in_place$LT$alloc..vec..Vec$LT$syn..attr..Attribute$GT$$GT$17h5762185cfe0975ddE.llvm.11979415971153298889', symObjAddr: 0x8F70, symBinAddr: 0x65C70, symSize: 0xF0 }
  - { offsetInCU: 0x213B5, offset: 0x2207E7, size: 0x8, addend: 0x0, symName: '__ZN4core3ptr64drop_in_place$LT$alloc..vec..Vec$LT$syn..item..TraitItem$GT$$GT$17h4e9850354f0bfa3cE', symObjAddr: 0x9060, symBinAddr: 0x65D60, symSize: 0x80 }
  - { offsetInCU: 0x2166D, offset: 0x220A9F, size: 0x8, addend: 0x0, symName: '__ZN4core3ptr65drop_in_place$LT$$LP$syn..item..FnArg$C$syn..token..Comma$RP$$GT$17h30feab7c8d320c7aE', symObjAddr: 0x90E0, symBinAddr: 0x65DE0, symSize: 0xC0 }
  - { offsetInCU: 0x21B1C, offset: 0x220F4E, size: 0x8, addend: 0x0, symName: '__ZN4core3ptr65drop_in_place$LT$alloc..vec..Vec$LT$proc_macro..TokenTree$GT$$GT$17h8835dbfce829562fE.llvm.11979415971153298889', symObjAddr: 0x91A0, symBinAddr: 0x65EA0, symSize: 0x110 }
  - { offsetInCU: 0x21F2E, offset: 0x221360, size: 0x8, addend: 0x0, symName: '__ZN4core3ptr65drop_in_place$LT$core..option..Option$LT$syn..expr..Label$GT$$GT$17h1335ae7a7e0cb02bE', symObjAddr: 0x92B0, symBinAddr: 0x65FB0, symSize: 0x30 }
  - { offsetInCU: 0x22068, offset: 0x22149A, size: 0x8, addend: 0x0, symName: '__ZN4core3ptr65drop_in_place$LT$core..option..Option$LT$syn..stmt..Block$GT$$GT$17h8f52c441ba6a85dfE', symObjAddr: 0x92E0, symBinAddr: 0x65FE0, symSize: 0xD0 }
  - { offsetInCU: 0x2235C, offset: 0x22178E, size: 0x8, addend: 0x0, symName: '__ZN4core3ptr66drop_in_place$LT$alloc..vec..Vec$LT$proc_macro2..TokenTree$GT$$GT$17hbcffcd2066602b9fE', symObjAddr: 0x93B0, symBinAddr: 0x660B0, symSize: 0xC0 }
  - { offsetInCU: 0x22634, offset: 0x221A66, size: 0x8, addend: 0x0, symName: '__ZN4core3ptr66drop_in_place$LT$alloc..vec..Vec$LT$syn..item..ForeignItem$GT$$GT$17h05d03b26ba1c5c7aE', symObjAddr: 0x9470, symBinAddr: 0x66170, symSize: 0x80 }
  - { offsetInCU: 0x228EC, offset: 0x221D1E, size: 0x8, addend: 0x0, symName: '__ZN4core3ptr67drop_in_place$LT$$LP$syn..pat..FieldPat$C$syn..token..Comma$RP$$GT$17h4b6e06e882472584E.llvm.11979415971153298889', symObjAddr: 0x94F0, symBinAddr: 0x661F0, symSize: 0xA0 }
  - { offsetInCU: 0x22B94, offset: 0x221FC6, size: 0x8, addend: 0x0, symName: '__ZN4core3ptr67drop_in_place$LT$$LP$syn..ty..BareFnArg$C$syn..token..Comma$RP$$GT$17ha8dffe85fb98e794E.llvm.11979415971153298889', symObjAddr: 0x9590, symBinAddr: 0x66290, symSize: 0x80 }
  - { offsetInCU: 0x22CF1, offset: 0x222123, size: 0x8, addend: 0x0, symName: '__ZN4core3ptr67drop_in_place$LT$alloc..boxed..Box$LT$syn..attr..NestedMeta$GT$$GT$17h73c626672b70023aE.llvm.11979415971153298889', symObjAddr: 0x9610, symBinAddr: 0x66310, symSize: 0x180 }
  - { offsetInCU: 0x2302A, offset: 0x22245C, size: 0x8, addend: 0x0, symName: '__ZN4core3ptr67drop_in_place$LT$alloc..boxed..Box$LT$syn..expr..FieldValue$GT$$GT$17hce04fc28c268bc19E', symObjAddr: 0x9790, symBinAddr: 0x66490, symSize: 0x160 }
  - { offsetInCU: 0x235C6, offset: 0x2229F8, size: 0x8, addend: 0x0, symName: '__ZN4core3ptr68drop_in_place$LT$alloc..boxed..Box$LT$syn..path..PathSegment$GT$$GT$17h5126e1cca9e13262E', symObjAddr: 0x98F0, symBinAddr: 0x665F0, symSize: 0xD0 }
  - { offsetInCU: 0x239BF, offset: 0x222DF1, size: 0x8, addend: 0x0, symName: '__ZN4core3ptr70drop_in_place$LT$$LP$syn..attr..NestedMeta$C$syn..token..Comma$RP$$GT$17h15f40a16524ecd08E.llvm.11979415971153298889', symObjAddr: 0x99C0, symBinAddr: 0x666C0, symSize: 0x30 }
  - { offsetInCU: 0x239FB, offset: 0x222E2D, size: 0x8, addend: 0x0, symName: '__ZN4core3ptr70drop_in_place$LT$$LP$syn..expr..FieldValue$C$syn..token..Comma$RP$$GT$17h874faefec9f5b93eE.llvm.11979415971153298889', symObjAddr: 0x99F0, symBinAddr: 0x666F0, symSize: 0xD0 }
  - { offsetInCU: 0x23DE2, offset: 0x223214, size: 0x8, addend: 0x0, symName: '__ZN4core3ptr72drop_in_place$LT$$LP$syn..path..PathSegment$C$syn..token..Colon2$RP$$GT$17hcc8bc0135ef21124E.llvm.11979415971153298889', symObjAddr: 0x9AC0, symBinAddr: 0x667C0, symSize: 0xC0 }
  - { offsetInCU: 0x240A5, offset: 0x2234D7, size: 0x8, addend: 0x0, symName: '__ZN4core3ptr72drop_in_place$LT$alloc..boxed..Box$LT$syn..generics..LifetimeDef$GT$$GT$17h5ebca8cd390cdd94E', symObjAddr: 0x9B80, symBinAddr: 0x66880, symSize: 0x80 }
  - { offsetInCU: 0x24354, offset: 0x223786, size: 0x8, addend: 0x0, symName: '__ZN4core3ptr72drop_in_place$LT$alloc..boxed..Box$LT$syn..path..GenericArgument$GT$$GT$17h688d94234e40ccdbE.llvm.11979415971153298889', symObjAddr: 0x9C00, symBinAddr: 0x66900, symSize: 0x220 }
  - { offsetInCU: 0x24BC4, offset: 0x223FF6, size: 0x8, addend: 0x0, symName: '__ZN4core3ptr73drop_in_place$LT$alloc..boxed..Box$LT$syn..generics..GenericParam$GT$$GT$17h81c506f6d7f2b723E', symObjAddr: 0x9E20, symBinAddr: 0x66B20, symSize: 0x80 }
  - { offsetInCU: 0x24D3A, offset: 0x22416C, size: 0x8, addend: 0x0, symName: '__ZN4core3ptr75drop_in_place$LT$$LP$syn..generics..LifetimeDef$C$syn..token..Comma$RP$$GT$17h3619c2021883e427E.llvm.11979415971153298889', symObjAddr: 0x9EA0, symBinAddr: 0x66BA0, symSize: 0x60 }
  - { offsetInCU: 0x24E77, offset: 0x2242A9, size: 0x8, addend: 0x0, symName: '__ZN4core3ptr75drop_in_place$LT$$LP$syn..path..GenericArgument$C$syn..token..Comma$RP$$GT$17h39b1843647e25d1aE.llvm.11979415971153298889', symObjAddr: 0x9F00, symBinAddr: 0x66C00, symSize: 0x220 }
  - { offsetInCU: 0x255AB, offset: 0x2249DD, size: 0x8, addend: 0x0, symName: '__ZN4core3ptr75drop_in_place$LT$alloc..boxed..Box$LT$syn..generics..TypeParamBound$GT$$GT$17h03630f28dbdf1321E', symObjAddr: 0xA120, symBinAddr: 0x66E20, symSize: 0x150 }
  - { offsetInCU: 0x25B58, offset: 0x224F8A, size: 0x8, addend: 0x0, symName: '__ZN4core3ptr75drop_in_place$LT$alloc..boxed..Box$LT$syn..generics..WherePredicate$GT$$GT$17h9a4df28f59394cc0E', symObjAddr: 0xA270, symBinAddr: 0x66F70, symSize: 0xD0 }
  - { offsetInCU: 0x25E00, offset: 0x225232, size: 0x8, addend: 0x0, symName: '__ZN4core3ptr76drop_in_place$LT$$LP$syn..generics..GenericParam$C$syn..token..Comma$RP$$GT$17ha6b1c76a238337afE', symObjAddr: 0xA340, symBinAddr: 0x67040, symSize: 0x50 }
  - { offsetInCU: 0x25E3C, offset: 0x22526E, size: 0x8, addend: 0x0, symName: '__ZN4core3ptr76drop_in_place$LT$$LP$syn..generics..TypeParamBound$C$syn..token..Add$RP$$GT$17h87e3754947779a7dE.llvm.11979415971153298889', symObjAddr: 0xA390, symBinAddr: 0x67090, symSize: 0x160 }
  - { offsetInCU: 0x262BB, offset: 0x2256ED, size: 0x8, addend: 0x0, symName: '__ZN4core3ptr78drop_in_place$LT$$LP$syn..generics..WherePredicate$C$syn..token..Comma$RP$$GT$17h057b7587f293b093E.llvm.11979415971153298889', symObjAddr: 0xA4F0, symBinAddr: 0x671F0, symSize: 0xA0 }
  - { offsetInCU: 0x26433, offset: 0x225865, size: 0x8, addend: 0x0, symName: '__ZN4core3ptr78drop_in_place$LT$alloc..boxed..Box$LT$syn..expr..GenericMethodArgument$GT$$GT$17ha89dc9e7cfdf6f4dE', symObjAddr: 0xA590, symBinAddr: 0x67290, symSize: 0x60 }
  - { offsetInCU: 0x265A9, offset: 0x2259DB, size: 0x8, addend: 0x0, symName: '__ZN4core3ptr81drop_in_place$LT$$LP$syn..expr..GenericMethodArgument$C$syn..token..Comma$RP$$GT$17h092bb700fc74879cE.llvm.11979415971153298889', symObjAddr: 0xA5F0, symBinAddr: 0x672F0, symSize: 0x30 }
  - { offsetInCU: 0x265E5, offset: 0x225A17, size: 0x8, addend: 0x0, symName: '__ZN4core3ptr86drop_in_place$LT$$LP$syn..token..If$C$alloc..boxed..Box$LT$syn..expr..Expr$GT$$RP$$GT$17h569afb09805d3fa1E.llvm.11979415971153298889', symObjAddr: 0xA620, symBinAddr: 0x67320, symSize: 0x50 }
  - { offsetInCU: 0x2675D, offset: 0x225B8F, size: 0x8, addend: 0x0, symName: '__ZN4core3ptr86drop_in_place$LT$$u5b$$LP$syn..generics..TypeParamBound$C$syn..token..Add$RP$$u5d$$GT$17hea1eace956c70c73E', symObjAddr: 0xA670, symBinAddr: 0x67370, symSize: 0xE0 }
  - { offsetInCU: 0x26990, offset: 0x225DC2, size: 0x8, addend: 0x0, symName: '__ZN4core3ptr86drop_in_place$LT$syn..punctuated..Punctuated$LT$syn..pat..Pat$C$syn..token..Or$GT$$GT$17h6ce24f9373f60dcbE', symObjAddr: 0xA750, symBinAddr: 0x67450, symSize: 0x120 }
  - { offsetInCU: 0x26E29, offset: 0x22625B, size: 0x8, addend: 0x0, symName: '__ZN4core3ptr87drop_in_place$LT$core..option..Option$LT$alloc..boxed..Box$LT$syn..pat..Pat$GT$$GT$$GT$17h0a540d9434f61900E', symObjAddr: 0xA870, symBinAddr: 0x67570, symSize: 0x50 }
  - { offsetInCU: 0x26F99, offset: 0x2263CB, size: 0x8, addend: 0x0, symName: '__ZN4core3ptr87drop_in_place$LT$core..option..Option$LT$alloc..boxed..Box$LT$syn..ty..Type$GT$$GT$$GT$17h18108c56275e206bE', symObjAddr: 0xA8C0, symBinAddr: 0x675C0, symSize: 0x50 }
  - { offsetInCU: 0x27109, offset: 0x22653B, size: 0x8, addend: 0x0, symName: '__ZN4core3ptr89drop_in_place$LT$core..option..Option$LT$alloc..boxed..Box$LT$syn..expr..Expr$GT$$GT$$GT$17hf18b288419ab9305E', symObjAddr: 0xA910, symBinAddr: 0x67610, symSize: 0x50 }
  - { offsetInCU: 0x27279, offset: 0x2266AB, size: 0x8, addend: 0x0, symName: '__ZN4core3ptr89drop_in_place$LT$syn..punctuated..Punctuated$LT$syn..ty..Type$C$syn..token..Comma$GT$$GT$17hec4fba0d089f0e7dE.llvm.11979415971153298889', symObjAddr: 0xA960, symBinAddr: 0x67660, symSize: 0x120 }
  - { offsetInCU: 0x276FB, offset: 0x226B2D, size: 0x8, addend: 0x0, symName: '__ZN4core3ptr90drop_in_place$LT$core..option..Option$LT$alloc..boxed..Box$LT$syn..data..Field$GT$$GT$$GT$17h68904ab70ccbe5d8E', symObjAddr: 0xAA80, symBinAddr: 0x67780, symSize: 0x50 }
  - { offsetInCU: 0x2786B, offset: 0x226C9D, size: 0x8, addend: 0x0, symName: '__ZN4core3ptr90drop_in_place$LT$core..option..Option$LT$alloc..boxed..Box$LT$syn..item..FnArg$GT$$GT$$GT$17h7c944f371d7167c2E', symObjAddr: 0xAAD0, symBinAddr: 0x677D0, symSize: 0x50 }
  - { offsetInCU: 0x27A57, offset: 0x226E89, size: 0x8, addend: 0x0, symName: '__ZN4core3ptr91drop_in_place$LT$syn..punctuated..Punctuated$LT$syn..expr..Expr$C$syn..token..Comma$GT$$GT$17h0c87a5b43a1d72edE', symObjAddr: 0xAB20, symBinAddr: 0x67820, symSize: 0x120 }
  - { offsetInCU: 0x27EEC, offset: 0x22731E, size: 0x8, addend: 0x0, symName: '__ZN4core3ptr92drop_in_place$LT$core..option..Option$LT$$LP$syn..token..As$C$proc_macro2..Ident$RP$$GT$$GT$17hefd4df6a8f102b52E', symObjAddr: 0xAC40, symBinAddr: 0x67940, symSize: 0x30 }
  - { offsetInCU: 0x28007, offset: 0x227439, size: 0x8, addend: 0x0, symName: '__ZN4core3ptr92drop_in_place$LT$syn..punctuated..Punctuated$LT$syn..data..Field$C$syn..token..Comma$GT$$GT$17h99275da21c63b6f4E', symObjAddr: 0xAC70, symBinAddr: 0x67970, symSize: 0x120 }
  - { offsetInCU: 0x28489, offset: 0x2278BB, size: 0x8, addend: 0x0, symName: '__ZN4core3ptr92drop_in_place$LT$syn..punctuated..Punctuated$LT$syn..item..FnArg$C$syn..token..Comma$GT$$GT$17h7908ed0942ca32e8E', symObjAddr: 0xAD90, symBinAddr: 0x67A90, symSize: 0x2C0 }
  - { offsetInCU: 0x291A0, offset: 0x2285D2, size: 0x8, addend: 0x0, symName: '__ZN4core3ptr93drop_in_place$LT$alloc..vec..Vec$LT$$LP$syn..attr..NestedMeta$C$syn..token..Comma$RP$$GT$$GT$17hdf06e6c2013bb190E.llvm.11979415971153298889', symObjAddr: 0xB050, symBinAddr: 0x67D50, symSize: 0xF0 }
  - { offsetInCU: 0x29551, offset: 0x228983, size: 0x8, addend: 0x0, symName: '__ZN4core3ptr94drop_in_place$LT$syn..punctuated..Punctuated$LT$syn..data..Variant$C$syn..token..Comma$GT$$GT$17h29513c97d9d2d9a3E', symObjAddr: 0xB140, symBinAddr: 0x67E40, symSize: 0x120 }
  - { offsetInCU: 0x29A62, offset: 0x228E94, size: 0x8, addend: 0x0, symName: '__ZN4core3ptr94drop_in_place$LT$syn..punctuated..Punctuated$LT$syn..pat..FieldPat$C$syn..token..Comma$GT$$GT$17h42d90ac6ad8fddbbE', symObjAddr: 0xB260, symBinAddr: 0x67F60, symSize: 0xF0 }
  - { offsetInCU: 0x29E16, offset: 0x229248, size: 0x8, addend: 0x0, symName: '__ZN4core3ptr94drop_in_place$LT$syn..punctuated..Punctuated$LT$syn..ty..BareFnArg$C$syn..token..Comma$GT$$GT$17h19ad16c4f7981402E', symObjAddr: 0xB350, symBinAddr: 0x68050, symSize: 0x1B0 }
  - { offsetInCU: 0x2A2DC, offset: 0x22970E, size: 0x8, addend: 0x0, symName: '__ZN4core3ptr95drop_in_place$LT$core..option..Option$LT$$LP$proc_macro2..Ident$C$syn..token..Colon$RP$$GT$$GT$17ha6ac4b277a07bc00E.llvm.11979415971153298889', symObjAddr: 0xB500, symBinAddr: 0x68200, symSize: 0x30 }
  - { offsetInCU: 0x2A3F7, offset: 0x229829, size: 0x8, addend: 0x0, symName: '__ZN4core3ptr95drop_in_place$LT$core..option..Option$LT$alloc..boxed..Box$LT$syn..attr..NestedMeta$GT$$GT$$GT$17h808e827057cb1ae2E.llvm.11979415971153298889', symObjAddr: 0xB530, symBinAddr: 0x68230, symSize: 0xC0 }
  - { offsetInCU: 0x2A551, offset: 0x229983, size: 0x8, addend: 0x0, symName: '__ZN4core3ptr96drop_in_place$LT$core..option..Option$LT$alloc..boxed..Box$LT$syn..path..PathSegment$GT$$GT$$GT$17h2353022cffaa67a2E.llvm.11979415971153298889', symObjAddr: 0xB5F0, symBinAddr: 0x682F0, symSize: 0x90 }
  - { offsetInCU: 0x2A7EF, offset: 0x229C21, size: 0x8, addend: 0x0, symName: '__ZN4core3ptr97drop_in_place$LT$syn..punctuated..Punctuated$LT$syn..attr..NestedMeta$C$syn..token..Comma$GT$$GT$17hf3ba01aad1996e56E.llvm.11979415971153298889', symObjAddr: 0xB6D0, symBinAddr: 0x68380, symSize: 0x110 }
  - { offsetInCU: 0x2AB1C, offset: 0x229F4E, size: 0x8, addend: 0x0, symName: '__ZN4core3ptr97drop_in_place$LT$syn..punctuated..Punctuated$LT$syn..expr..FieldValue$C$syn..token..Comma$GT$$GT$17hc2ecca3911a607ecE', symObjAddr: 0xB7E0, symBinAddr: 0x68490, symSize: 0x90 }
  - { offsetInCU: 0x2AE27, offset: 0x22A259, size: 0x8, addend: 0x0, symName: '__ZN4core3ptr97drop_in_place$LT$syn..punctuated..Punctuated$LT$syn..lifetime..Lifetime$C$syn..token..Add$GT$$GT$17h6cafbe16207b9c08E.llvm.11979415971153298889', symObjAddr: 0xB870, symBinAddr: 0x68520, symSize: 0xD0 }
  - { offsetInCU: 0x2B299, offset: 0x22A6CB, size: 0x8, addend: 0x0, symName: '__ZN4core3ptr99drop_in_place$LT$syn..punctuated..Punctuated$LT$syn..path..PathSegment$C$syn..token..Colon2$GT$$GT$17hfc92522704956751E.llvm.11979415971153298889', symObjAddr: 0xB940, symBinAddr: 0x685F0, symSize: 0x1A0 }
  - { offsetInCU: 0x2DAD1, offset: 0x22CF03, size: 0x8, addend: 0x0, symName: '__ZN48_$LT$T$u20$as$u20$core..clone..CloneToUninit$GT$15clone_to_uninit17h9c811a831975dc8bE', symObjAddr: 0x0, symBinAddr: 0x5CD90, symSize: 0x330 }
  - { offsetInCU: 0x302CD, offset: 0x22F6FF, size: 0x8, addend: 0x0, symName: '__ZN70_$LT$alloc..vec..Vec$LT$T$C$A$GT$$u20$as$u20$core..ops..drop..Drop$GT$4drop17h099b51b7b2332647E', symObjAddr: 0xBAE0, symBinAddr: 0x68790, symSize: 0xD0 }
  - { offsetInCU: 0x30424, offset: 0x22F856, size: 0x8, addend: 0x0, symName: '__ZN70_$LT$alloc..vec..Vec$LT$T$C$A$GT$$u20$as$u20$core..ops..drop..Drop$GT$4drop17h7543629c3c6c5c2fE', symObjAddr: 0xBEE0, symBinAddr: 0x68860, symSize: 0xB0 }
  - { offsetInCU: 0x3055B, offset: 0x22F98D, size: 0x8, addend: 0x0, symName: '__ZN70_$LT$alloc..vec..Vec$LT$T$C$A$GT$$u20$as$u20$core..ops..drop..Drop$GT$4drop17hd23af77eea366372E', symObjAddr: 0xC2E0, symBinAddr: 0x68910, symSize: 0xD0 }
  - { offsetInCU: 0x1E, offset: 0x23AE4E, size: 0x8, addend: 0x0, symName: __ZN5alloc7raw_vec11finish_grow17hd1ef8a1f1b21ed14E.llvm.8291680477578151372, symObjAddr: 0x0, symBinAddr: 0x689E0, symSize: 0xA0 }
  - { offsetInCU: 0x3CEE, offset: 0x23EB1E, size: 0x8, addend: 0x0, symName: __ZN5alloc7raw_vec11finish_grow17hd1ef8a1f1b21ed14E.llvm.8291680477578151372, symObjAddr: 0x0, symBinAddr: 0x689E0, symSize: 0xA0 }
  - { offsetInCU: 0x40C6, offset: 0x23EEF6, size: 0x8, addend: 0x0, symName: '__ZN5alloc7raw_vec19RawVec$LT$T$C$A$GT$7reserve21do_reserve_and_handle17hdb8aa95b9af62d20E', symObjAddr: 0x160, symBinAddr: 0x25E710, symSize: 0xA0 }
  - { offsetInCU: 0x5C87, offset: 0x240AB7, size: 0x8, addend: 0x0, symName: '__ZN5alloc7raw_vec19RawVec$LT$T$C$A$GT$8grow_one17h5c643bdd09a95726E', symObjAddr: 0x200, symBinAddr: 0x68A80, symSize: 0xC0 }
  - { offsetInCU: 0xB392, offset: 0x2461C2, size: 0x8, addend: 0x0, symName: '__ZN5alloc7raw_vec19RawVec$LT$T$C$A$GT$8grow_one17hcaafabb0efa9f6ebE', symObjAddr: 0x2C0, symBinAddr: 0x68B40, symSize: 0xC0 }
  - { offsetInCU: 0xB6D3, offset: 0x246503, size: 0x8, addend: 0x0, symName: '__ZN5alloc7raw_vec19RawVec$LT$T$C$A$GT$8grow_one17hd377c6517d363523E', symObjAddr: 0x380, symBinAddr: 0x68C00, symSize: 0xA0 }
  - { offsetInCU: 0x1E, offset: 0x246927, size: 0x8, addend: 0x0, symName: '__ZN4core3ptr100drop_in_place$LT$core..option..Option$LT$alloc..boxed..Box$LT$syn..generics..LifetimeDef$GT$$GT$$GT$17h37a42be7919e8ee0E', symObjAddr: 0x0, symBinAddr: 0x68CA0, symSize: 0x150 }
  - { offsetInCU: 0x6F, offset: 0x246978, size: 0x8, addend: 0x0, symName: '__ZN70_$LT$core..num..error..TryFromIntError$u20$as$u20$core..fmt..Debug$GT$3fmt17h1128a7e265c9ce9aE', symObjAddr: 0x7490, symBinAddr: 0x70130, symSize: 0x40 }
  - { offsetInCU: 0xC17, offset: 0x247520, size: 0x8, addend: 0x0, symName: '__ZN4core3ptr100drop_in_place$LT$core..option..Option$LT$alloc..boxed..Box$LT$syn..generics..LifetimeDef$GT$$GT$$GT$17h37a42be7919e8ee0E', symObjAddr: 0x0, symBinAddr: 0x68CA0, symSize: 0x150 }
  - { offsetInCU: 0x1193, offset: 0x247A9C, size: 0x8, addend: 0x0, symName: '__ZN4core3ptr100drop_in_place$LT$core..option..Option$LT$alloc..boxed..Box$LT$syn..path..GenericArgument$GT$$GT$$GT$17h56b44935b850a0e0E', symObjAddr: 0x150, symBinAddr: 0x68DF0, symSize: 0x50 }
  - { offsetInCU: 0x1360, offset: 0x247C69, size: 0x8, addend: 0x0, symName: '__ZN4core3ptr103drop_in_place$LT$core..option..Option$LT$alloc..boxed..Box$LT$syn..generics..TypeParamBound$GT$$GT$$GT$17ha4f14f3147120e74E', symObjAddr: 0x1A0, symBinAddr: 0x68E40, symSize: 0x90 }
  - { offsetInCU: 0x1697, offset: 0x247FA0, size: 0x8, addend: 0x0, symName: '__ZN4core3ptr103drop_in_place$LT$core..option..Option$LT$alloc..boxed..Box$LT$syn..generics..WherePredicate$GT$$GT$$GT$17h41482e2912c9a9eaE', symObjAddr: 0x230, symBinAddr: 0x68ED0, symSize: 0x120 }
  - { offsetInCU: 0x1A4C, offset: 0x248355, size: 0x8, addend: 0x0, symName: '__ZN4core3ptr103drop_in_place$LT$syn..punctuated..Punctuated$LT$syn..generics..TypeParamBound$C$syn..token..Add$GT$$GT$17h3d13fe0092df77aeE', symObjAddr: 0x350, symBinAddr: 0x68FF0, symSize: 0x200 }
  - { offsetInCU: 0x232A, offset: 0x248C33, size: 0x8, addend: 0x0, symName: '__ZN4core3ptr108drop_in_place$LT$syn..punctuated..Punctuated$LT$syn..expr..GenericMethodArgument$C$syn..token..Comma$GT$$GT$17h982883b999b6ac61E', symObjAddr: 0x550, symBinAddr: 0x691F0, symSize: 0x150 }
  - { offsetInCU: 0x2883, offset: 0x24918C, size: 0x8, addend: 0x0, symName: '__ZN4core3ptr34drop_in_place$LT$syn..lit..Lit$GT$17h0dfe857ab92abdb4E', symObjAddr: 0x6A0, symBinAddr: 0x69340, symSize: 0x110 }
  - { offsetInCU: 0x2CF5, offset: 0x2495FE, size: 0x8, addend: 0x0, symName: '__ZN4core3ptr34drop_in_place$LT$syn..pat..Pat$GT$17he8adeea7ef215e45E', symObjAddr: 0x7B0, symBinAddr: 0x69450, symSize: 0x1190 }
  - { offsetInCU: 0x6C0D, offset: 0x24D516, size: 0x8, addend: 0x0, symName: '__ZN4core3ptr34drop_in_place$LT$syn..ty..Type$GT$17hc0db84af17a0c354E', symObjAddr: 0x1940, symBinAddr: 0x6A5E0, symSize: 0x540 }
  - { offsetInCU: 0x8495, offset: 0x24ED9E, size: 0x8, addend: 0x0, symName: '__ZN4core3ptr36drop_in_place$LT$syn..expr..Expr$GT$17hb7ba80408adcdaa0E', symObjAddr: 0x1E80, symBinAddr: 0x6AB20, symSize: 0x3240 }
  - { offsetInCU: 0x12C90, offset: 0x259599, size: 0x8, addend: 0x0, symName: '__ZN4core3ptr36drop_in_place$LT$syn..mac..Macro$GT$17hfed7c41953ee11d3E', symObjAddr: 0x50C0, symBinAddr: 0x6DD60, symSize: 0x40 }
  - { offsetInCU: 0x12DE1, offset: 0x2596EA, size: 0x8, addend: 0x0, symName: '__ZN4core3ptr36drop_in_place$LT$syn..path..Path$GT$17h6a40221ee38ae5b2E', symObjAddr: 0x5100, symBinAddr: 0x6DDA0, symSize: 0x230 }
  - { offsetInCU: 0x13777, offset: 0x25A080, size: 0x8, addend: 0x0, symName: '__ZN4core3ptr37drop_in_place$LT$syn..stmt..Block$GT$17h81806b3cd3ffe3baE', symObjAddr: 0x5330, symBinAddr: 0x6DFD0, symSize: 0xD0 }
  - { offsetInCU: 0x13A8C, offset: 0x25A395, size: 0x8, addend: 0x0, symName: '__ZN4core3ptr38drop_in_place$LT$syn..error..Error$GT$17h6e80730249f74eacE', symObjAddr: 0x5400, symBinAddr: 0x6E0A0, symSize: 0x80 }
  - { offsetInCU: 0x13D4B, offset: 0x25A654, size: 0x8, addend: 0x0, symName: '__ZN4core3ptr38drop_in_place$LT$syn..expr..Member$GT$17he44029471db3e184E', symObjAddr: 0x5480, symBinAddr: 0x6E120, symSize: 0x30 }
  - { offsetInCU: 0x13E47, offset: 0x25A750, size: 0x8, addend: 0x0, symName: '__ZN4core3ptr39drop_in_place$LT$proc_macro2..Ident$GT$17hb706ee28ee340dc7E', symObjAddr: 0x54B0, symBinAddr: 0x6E150, symSize: 0x30 }
  - { offsetInCU: 0x13F24, offset: 0x25A82D, size: 0x8, addend: 0x0, symName: '__ZN4core3ptr39drop_in_place$LT$syn..pat..PatTuple$GT$17h7802ae4b3ffe01c7E', symObjAddr: 0x54E0, symBinAddr: 0x6E180, symSize: 0x100 }
  - { offsetInCU: 0x1422D, offset: 0x25AB36, size: 0x8, addend: 0x0, symName: '__ZN4core3ptr40drop_in_place$LT$syn..ty..ReturnType$GT$17h9bf1c0655e864d42E', symObjAddr: 0x55E0, symBinAddr: 0x6E280, symSize: 0x50 }
  - { offsetInCU: 0x1439D, offset: 0x25ACA6, size: 0x8, addend: 0x0, symName: '__ZN4core3ptr44drop_in_place$LT$syn..lifetime..Lifetime$GT$17h48bc6c724783eee4E', symObjAddr: 0x5630, symBinAddr: 0x6E2D0, symSize: 0x30 }
  - { offsetInCU: 0x145CF, offset: 0x25AED8, size: 0x8, addend: 0x0, symName: '__ZN4core3ptr45drop_in_place$LT$proc_macro2..TokenStream$GT$17h5bbd4eaf0ff620e4E', symObjAddr: 0x5660, symBinAddr: 0x6E300, symSize: 0x140 }
  - { offsetInCU: 0x14A69, offset: 0x25B372, size: 0x8, addend: 0x0, symName: '__ZN4core3ptr47drop_in_place$LT$syn..path..GenericArgument$GT$17hd4e7f6d0e01e8914E', symObjAddr: 0x57A0, symBinAddr: 0x6E440, symSize: 0x110 }
  - { offsetInCU: 0x14D84, offset: 0x25B68D, size: 0x8, addend: 0x0, symName: '__ZN4core3ptr58drop_in_place$LT$alloc..vec..Vec$LT$syn..expr..Arm$GT$$GT$17ha68719cfbd883529E', symObjAddr: 0x58B0, symBinAddr: 0x6E550, symSize: 0xD0 }
  - { offsetInCU: 0x15044, offset: 0x25B94D, size: 0x8, addend: 0x0, symName: '__ZN4core3ptr59drop_in_place$LT$alloc..boxed..Box$LT$syn..pat..Pat$GT$$GT$17hcdad39076eac1fa6E', symObjAddr: 0x5980, symBinAddr: 0x6E620, symSize: 0x50 }
  - { offsetInCU: 0x1519D, offset: 0x25BAA6, size: 0x8, addend: 0x0, symName: '__ZN4core3ptr59drop_in_place$LT$alloc..boxed..Box$LT$syn..ty..Type$GT$$GT$17heff72eb37aa4106cE', symObjAddr: 0x59D0, symBinAddr: 0x6E670, symSize: 0x50 }
  - { offsetInCU: 0x152F6, offset: 0x25BBFF, size: 0x8, addend: 0x0, symName: '__ZN4core3ptr61drop_in_place$LT$alloc..boxed..Box$LT$syn..expr..Expr$GT$$GT$17h67843661e4b55b11E', symObjAddr: 0x5A20, symBinAddr: 0x6E6C0, symSize: 0x50 }
  - { offsetInCU: 0x154CB, offset: 0x25BDD4, size: 0x8, addend: 0x0, symName: '__ZN4core3ptr61drop_in_place$LT$syn..path..ParenthesizedGenericArguments$GT$17he42ca826fd29664aE', symObjAddr: 0x5A70, symBinAddr: 0x6E710, symSize: 0x170 }
  - { offsetInCU: 0x15AC1, offset: 0x25C3CA, size: 0x8, addend: 0x0, symName: '__ZN4core3ptr63drop_in_place$LT$alloc..boxed..Box$LT$syn..lit..LitRepr$GT$$GT$17h8222a56e6c683c5aE', symObjAddr: 0x5BE0, symBinAddr: 0x6E880, symSize: 0x60 }
  - { offsetInCU: 0x15DC8, offset: 0x25C6D1, size: 0x8, addend: 0x0, symName: '__ZN4core3ptr64drop_in_place$LT$alloc..boxed..Box$LT$syn..pat..FieldPat$GT$$GT$17h66e88fe42bce0514E', symObjAddr: 0x5C40, symBinAddr: 0x6E8E0, symSize: 0x180 }
  - { offsetInCU: 0x164E5, offset: 0x25CDEE, size: 0x8, addend: 0x0, symName: '__ZN4core3ptr64drop_in_place$LT$alloc..boxed..Box$LT$syn..ty..BareFnArg$GT$$GT$17hc55aee6adabce0e0E', symObjAddr: 0x5DC0, symBinAddr: 0x6EA60, symSize: 0x160 }
  - { offsetInCU: 0x16A7B, offset: 0x25D384, size: 0x8, addend: 0x0, symName: '__ZN4core3ptr65drop_in_place$LT$alloc..vec..Vec$LT$proc_macro..TokenTree$GT$$GT$17h8835dbfce829562fE', symObjAddr: 0x5F20, symBinAddr: 0x6EBC0, symSize: 0x110 }
  - { offsetInCU: 0x16E73, offset: 0x25D77C, size: 0x8, addend: 0x0, symName: '__ZN4core3ptr65drop_in_place$LT$core..option..Option$LT$syn..expr..Label$GT$$GT$17h1335ae7a7e0cb02bE', symObjAddr: 0x6030, symBinAddr: 0x6ECD0, symSize: 0x30 }
  - { offsetInCU: 0x16FAD, offset: 0x25D8B6, size: 0x8, addend: 0x0, symName: '__ZN4core3ptr66drop_in_place$LT$core..option..Option$LT$syn..ty..Variadic$GT$$GT$17h37054875f7f27315E', symObjAddr: 0x6060, symBinAddr: 0x6ED00, symSize: 0xF0 }
  - { offsetInCU: 0x172D7, offset: 0x25DBE0, size: 0x8, addend: 0x0, symName: '__ZN4core3ptr67drop_in_place$LT$alloc..boxed..Box$LT$syn..expr..FieldValue$GT$$GT$17hce04fc28c268bc19E', symObjAddr: 0x6150, symBinAddr: 0x6EDF0, symSize: 0x160 }
  - { offsetInCU: 0x1786C, offset: 0x25E175, size: 0x8, addend: 0x0, symName: '__ZN4core3ptr68drop_in_place$LT$alloc..boxed..Box$LT$syn..path..PathSegment$GT$$GT$17h5126e1cca9e13262E', symObjAddr: 0x62B0, symBinAddr: 0x6EF50, symSize: 0x190 }
  - { offsetInCU: 0x17F95, offset: 0x25E89E, size: 0x8, addend: 0x0, symName: '__ZN4core3ptr72drop_in_place$LT$alloc..boxed..Box$LT$syn..path..GenericArgument$GT$$GT$17h688d94234e40ccdbE', symObjAddr: 0x6440, symBinAddr: 0x6F0E0, symSize: 0x1D0 }
  - { offsetInCU: 0x186BC, offset: 0x25EFC5, size: 0x8, addend: 0x0, symName: '__ZN4core3ptr72drop_in_place$LT$core..option..Option$LT$syn..lifetime..Lifetime$GT$$GT$17h55f693312904278fE', symObjAddr: 0x6610, symBinAddr: 0x6F2B0, symSize: 0x30 }
  - { offsetInCU: 0x187D7, offset: 0x25F0E0, size: 0x8, addend: 0x0, symName: '__ZN4core3ptr75drop_in_place$LT$alloc..boxed..Box$LT$syn..generics..TypeParamBound$GT$$GT$17h03630f28dbdf1321E', symObjAddr: 0x6640, symBinAddr: 0x6F2E0, symSize: 0x140 }
  - { offsetInCU: 0x18D32, offset: 0x25F63B, size: 0x8, addend: 0x0, symName: '__ZN4core3ptr78drop_in_place$LT$alloc..boxed..Box$LT$syn..expr..GenericMethodArgument$GT$$GT$17ha89dc9e7cfdf6f4dE', symObjAddr: 0x6780, symBinAddr: 0x6F420, symSize: 0x60 }
  - { offsetInCU: 0x18F24, offset: 0x25F82D, size: 0x8, addend: 0x0, symName: '__ZN4core3ptr78drop_in_place$LT$core..option..Option$LT$syn..generics..BoundLifetimes$GT$$GT$17h356c1327dde9200fE', symObjAddr: 0x67E0, symBinAddr: 0x6F480, symSize: 0x90 }
  - { offsetInCU: 0x19212, offset: 0x25FB1B, size: 0x8, addend: 0x0, symName: '__ZN4core3ptr86drop_in_place$LT$syn..punctuated..Punctuated$LT$syn..pat..Pat$C$syn..token..Or$GT$$GT$17h6ce24f9373f60dcbE', symObjAddr: 0x6870, symBinAddr: 0x6F510, symSize: 0x120 }
  - { offsetInCU: 0x1968D, offset: 0x25FF96, size: 0x8, addend: 0x0, symName: '__ZN4core3ptr87drop_in_place$LT$core..option..Option$LT$alloc..boxed..Box$LT$syn..pat..Pat$GT$$GT$$GT$17h0a540d9434f61900E', symObjAddr: 0x6990, symBinAddr: 0x6F630, symSize: 0x50 }
  - { offsetInCU: 0x197FD, offset: 0x260106, size: 0x8, addend: 0x0, symName: '__ZN4core3ptr87drop_in_place$LT$core..option..Option$LT$alloc..boxed..Box$LT$syn..ty..Type$GT$$GT$$GT$17h18108c56275e206bE', symObjAddr: 0x69E0, symBinAddr: 0x6F680, symSize: 0x50 }
  - { offsetInCU: 0x1996D, offset: 0x260276, size: 0x8, addend: 0x0, symName: '__ZN4core3ptr89drop_in_place$LT$core..option..Option$LT$alloc..boxed..Box$LT$syn..expr..Expr$GT$$GT$$GT$17hf18b288419ab9305E', symObjAddr: 0x6A30, symBinAddr: 0x6F6D0, symSize: 0x50 }
  - { offsetInCU: 0x19B1B, offset: 0x260424, size: 0x8, addend: 0x0, symName: '__ZN4core3ptr89drop_in_place$LT$syn..punctuated..Punctuated$LT$syn..pat..Pat$C$syn..token..Comma$GT$$GT$17hde91c7229067911aE', symObjAddr: 0x6A80, symBinAddr: 0x6F720, symSize: 0x120 }
  - { offsetInCU: 0x19FAD, offset: 0x2608B6, size: 0x8, addend: 0x0, symName: '__ZN4core3ptr89drop_in_place$LT$syn..punctuated..Punctuated$LT$syn..ty..Type$C$syn..token..Comma$GT$$GT$17hec4fba0d089f0e7dE', symObjAddr: 0x6BA0, symBinAddr: 0x6F840, symSize: 0x120 }
  - { offsetInCU: 0x1A466, offset: 0x260D6F, size: 0x8, addend: 0x0, symName: '__ZN4core3ptr91drop_in_place$LT$syn..punctuated..Punctuated$LT$syn..expr..Expr$C$syn..token..Comma$GT$$GT$17h0c87a5b43a1d72edE', symObjAddr: 0x6CC0, symBinAddr: 0x6F960, symSize: 0x120 }
  - { offsetInCU: 0x1A8F4, offset: 0x2611FD, size: 0x8, addend: 0x0, symName: '__ZN4core3ptr94drop_in_place$LT$syn..punctuated..Punctuated$LT$syn..pat..FieldPat$C$syn..token..Comma$GT$$GT$17h42d90ac6ad8fddbbE', symObjAddr: 0x6DE0, symBinAddr: 0x6FA80, symSize: 0xF0 }
  - { offsetInCU: 0x1ABF3, offset: 0x2614FC, size: 0x8, addend: 0x0, symName: '__ZN4core3ptr94drop_in_place$LT$syn..punctuated..Punctuated$LT$syn..ty..BareFnArg$C$syn..token..Comma$GT$$GT$17h19ad16c4f7981402E', symObjAddr: 0x6ED0, symBinAddr: 0x6FB70, symSize: 0x90 }
  - { offsetInCU: 0x1AE63, offset: 0x26176C, size: 0x8, addend: 0x0, symName: '__ZN4core3ptr96drop_in_place$LT$core..option..Option$LT$alloc..boxed..Box$LT$syn..path..PathSegment$GT$$GT$$GT$17h2353022cffaa67a2E', symObjAddr: 0x6F60, symBinAddr: 0x6FC00, symSize: 0x180 }
  - { offsetInCU: 0x1B520, offset: 0x261E29, size: 0x8, addend: 0x0, symName: '__ZN4core3ptr97drop_in_place$LT$syn..punctuated..Punctuated$LT$syn..expr..FieldValue$C$syn..token..Comma$GT$$GT$17hc2ecca3911a607ecE', symObjAddr: 0x70E0, symBinAddr: 0x6FD80, symSize: 0x90 }
  - { offsetInCU: 0x1B80C, offset: 0x262115, size: 0x8, addend: 0x0, symName: '__ZN4core3ptr97drop_in_place$LT$syn..punctuated..Punctuated$LT$syn..lifetime..Lifetime$C$syn..token..Add$GT$$GT$17h6cafbe16207b9c08E', symObjAddr: 0x7170, symBinAddr: 0x6FE10, symSize: 0xD0 }
  - { offsetInCU: 0x1BC80, offset: 0x262589, size: 0x8, addend: 0x0, symName: '__ZN4core3ptr99drop_in_place$LT$syn..punctuated..Punctuated$LT$syn..path..PathSegment$C$syn..token..Colon2$GT$$GT$17hfc92522704956751E', symObjAddr: 0x7240, symBinAddr: 0x6FEE0, symSize: 0x250 }
  - { offsetInCU: 0x1EBCC, offset: 0x2654D5, size: 0x8, addend: 0x0, symName: __ZN21borsh_derive_internal8enum_ser8enum_ser17h4d2d9544f389560fE, symObjAddr: 0x74D0, symBinAddr: 0x70170, symSize: 0x23FB }
  - { offsetInCU: 0x1E, offset: 0x275733, size: 0x8, addend: 0x0, symName: '__ZN4core3ptr100drop_in_place$LT$core..option..Option$LT$alloc..boxed..Box$LT$syn..generics..LifetimeDef$GT$$GT$$GT$17h37a42be7919e8ee0E', symObjAddr: 0x0, symBinAddr: 0x72570, symSize: 0x150 }
  - { offsetInCU: 0x62, offset: 0x275777, size: 0x8, addend: 0x0, symName: '__ZN70_$LT$core..num..error..TryFromIntError$u20$as$u20$core..fmt..Debug$GT$3fmt17h1128a7e265c9ce9aE', symObjAddr: 0x7570, symBinAddr: 0x79AE0, symSize: 0x40 }
  - { offsetInCU: 0xBDA, offset: 0x2762EF, size: 0x8, addend: 0x0, symName: '__ZN4core3ptr100drop_in_place$LT$core..option..Option$LT$alloc..boxed..Box$LT$syn..generics..LifetimeDef$GT$$GT$$GT$17h37a42be7919e8ee0E', symObjAddr: 0x0, symBinAddr: 0x72570, symSize: 0x150 }
  - { offsetInCU: 0x1156, offset: 0x27686B, size: 0x8, addend: 0x0, symName: '__ZN4core3ptr100drop_in_place$LT$core..option..Option$LT$alloc..boxed..Box$LT$syn..path..GenericArgument$GT$$GT$$GT$17h56b44935b850a0e0E', symObjAddr: 0x150, symBinAddr: 0x726C0, symSize: 0x50 }
  - { offsetInCU: 0x1323, offset: 0x276A38, size: 0x8, addend: 0x0, symName: '__ZN4core3ptr103drop_in_place$LT$core..option..Option$LT$alloc..boxed..Box$LT$syn..generics..TypeParamBound$GT$$GT$$GT$17ha4f14f3147120e74E', symObjAddr: 0x1A0, symBinAddr: 0x72710, symSize: 0x90 }
  - { offsetInCU: 0x165A, offset: 0x276D6F, size: 0x8, addend: 0x0, symName: '__ZN4core3ptr103drop_in_place$LT$core..option..Option$LT$alloc..boxed..Box$LT$syn..generics..WherePredicate$GT$$GT$$GT$17h41482e2912c9a9eaE', symObjAddr: 0x230, symBinAddr: 0x727A0, symSize: 0x120 }
  - { offsetInCU: 0x1A0F, offset: 0x277124, size: 0x8, addend: 0x0, symName: '__ZN4core3ptr103drop_in_place$LT$syn..punctuated..Punctuated$LT$syn..generics..TypeParamBound$C$syn..token..Add$GT$$GT$17h3d13fe0092df77aeE', symObjAddr: 0x350, symBinAddr: 0x728C0, symSize: 0x200 }
  - { offsetInCU: 0x22ED, offset: 0x277A02, size: 0x8, addend: 0x0, symName: '__ZN4core3ptr108drop_in_place$LT$syn..punctuated..Punctuated$LT$syn..expr..GenericMethodArgument$C$syn..token..Comma$GT$$GT$17h982883b999b6ac61E', symObjAddr: 0x550, symBinAddr: 0x72AC0, symSize: 0x150 }
  - { offsetInCU: 0x2846, offset: 0x277F5B, size: 0x8, addend: 0x0, symName: '__ZN4core3ptr34drop_in_place$LT$syn..lit..Lit$GT$17h0dfe857ab92abdb4E', symObjAddr: 0x6A0, symBinAddr: 0x72C10, symSize: 0x110 }
  - { offsetInCU: 0x2CB8, offset: 0x2783CD, size: 0x8, addend: 0x0, symName: '__ZN4core3ptr34drop_in_place$LT$syn..pat..Pat$GT$17he8adeea7ef215e45E', symObjAddr: 0x7B0, symBinAddr: 0x72D20, symSize: 0x1190 }
  - { offsetInCU: 0x6BD0, offset: 0x27C2E5, size: 0x8, addend: 0x0, symName: '__ZN4core3ptr34drop_in_place$LT$syn..ty..Type$GT$17hc0db84af17a0c354E', symObjAddr: 0x1940, symBinAddr: 0x73EB0, symSize: 0x540 }
  - { offsetInCU: 0x8458, offset: 0x27DB6D, size: 0x8, addend: 0x0, symName: '__ZN4core3ptr36drop_in_place$LT$syn..expr..Expr$GT$17hb7ba80408adcdaa0E', symObjAddr: 0x1E80, symBinAddr: 0x743F0, symSize: 0x3240 }
  - { offsetInCU: 0x12C53, offset: 0x288368, size: 0x8, addend: 0x0, symName: '__ZN4core3ptr36drop_in_place$LT$syn..mac..Macro$GT$17hfed7c41953ee11d3E', symObjAddr: 0x50C0, symBinAddr: 0x77630, symSize: 0x40 }
  - { offsetInCU: 0x12DA4, offset: 0x2884B9, size: 0x8, addend: 0x0, symName: '__ZN4core3ptr36drop_in_place$LT$syn..path..Path$GT$17h6a40221ee38ae5b2E', symObjAddr: 0x5100, symBinAddr: 0x77670, symSize: 0x230 }
  - { offsetInCU: 0x1373A, offset: 0x288E4F, size: 0x8, addend: 0x0, symName: '__ZN4core3ptr37drop_in_place$LT$syn..stmt..Block$GT$17h81806b3cd3ffe3baE', symObjAddr: 0x5330, symBinAddr: 0x778A0, symSize: 0xD0 }
  - { offsetInCU: 0x13A4F, offset: 0x289164, size: 0x8, addend: 0x0, symName: '__ZN4core3ptr38drop_in_place$LT$syn..error..Error$GT$17h6e80730249f74eacE', symObjAddr: 0x5400, symBinAddr: 0x77970, symSize: 0x80 }
  - { offsetInCU: 0x13D0E, offset: 0x289423, size: 0x8, addend: 0x0, symName: '__ZN4core3ptr38drop_in_place$LT$syn..expr..Member$GT$17he44029471db3e184E', symObjAddr: 0x5480, symBinAddr: 0x779F0, symSize: 0x30 }
  - { offsetInCU: 0x13E0A, offset: 0x28951F, size: 0x8, addend: 0x0, symName: '__ZN4core3ptr39drop_in_place$LT$proc_macro2..Ident$GT$17hb706ee28ee340dc7E', symObjAddr: 0x54B0, symBinAddr: 0x77A20, symSize: 0x30 }
  - { offsetInCU: 0x13EE7, offset: 0x2895FC, size: 0x8, addend: 0x0, symName: '__ZN4core3ptr39drop_in_place$LT$syn..pat..PatTuple$GT$17h7802ae4b3ffe01c7E', symObjAddr: 0x54E0, symBinAddr: 0x77A50, symSize: 0x100 }
  - { offsetInCU: 0x141F0, offset: 0x289905, size: 0x8, addend: 0x0, symName: '__ZN4core3ptr40drop_in_place$LT$syn..ty..ReturnType$GT$17h9bf1c0655e864d42E', symObjAddr: 0x55E0, symBinAddr: 0x77B50, symSize: 0x50 }
  - { offsetInCU: 0x14360, offset: 0x289A75, size: 0x8, addend: 0x0, symName: '__ZN4core3ptr44drop_in_place$LT$syn..lifetime..Lifetime$GT$17h48bc6c724783eee4E', symObjAddr: 0x5630, symBinAddr: 0x77BA0, symSize: 0x30 }
  - { offsetInCU: 0x14592, offset: 0x289CA7, size: 0x8, addend: 0x0, symName: '__ZN4core3ptr45drop_in_place$LT$proc_macro2..TokenStream$GT$17h5bbd4eaf0ff620e4E', symObjAddr: 0x5660, symBinAddr: 0x77BD0, symSize: 0x140 }
  - { offsetInCU: 0x14A4B, offset: 0x28A160, size: 0x8, addend: 0x0, symName: '__ZN4core3ptr47drop_in_place$LT$syn..generics..WhereClause$GT$17hd6a0c88787d20795E', symObjAddr: 0x57A0, symBinAddr: 0x77D10, symSize: 0xE0 }
  - { offsetInCU: 0x14D77, offset: 0x28A48C, size: 0x8, addend: 0x0, symName: '__ZN4core3ptr47drop_in_place$LT$syn..path..GenericArgument$GT$17hd4e7f6d0e01e8914E', symObjAddr: 0x5880, symBinAddr: 0x77DF0, symSize: 0x110 }
  - { offsetInCU: 0x15092, offset: 0x28A7A7, size: 0x8, addend: 0x0, symName: '__ZN4core3ptr58drop_in_place$LT$alloc..vec..Vec$LT$syn..expr..Arm$GT$$GT$17ha68719cfbd883529E', symObjAddr: 0x5990, symBinAddr: 0x77F00, symSize: 0xD0 }
  - { offsetInCU: 0x15352, offset: 0x28AA67, size: 0x8, addend: 0x0, symName: '__ZN4core3ptr59drop_in_place$LT$alloc..boxed..Box$LT$syn..pat..Pat$GT$$GT$17hcdad39076eac1fa6E', symObjAddr: 0x5A60, symBinAddr: 0x77FD0, symSize: 0x50 }
  - { offsetInCU: 0x154AB, offset: 0x28ABC0, size: 0x8, addend: 0x0, symName: '__ZN4core3ptr59drop_in_place$LT$alloc..boxed..Box$LT$syn..ty..Type$GT$$GT$17heff72eb37aa4106cE', symObjAddr: 0x5AB0, symBinAddr: 0x78020, symSize: 0x50 }
  - { offsetInCU: 0x15604, offset: 0x28AD19, size: 0x8, addend: 0x0, symName: '__ZN4core3ptr61drop_in_place$LT$alloc..boxed..Box$LT$syn..expr..Expr$GT$$GT$17h67843661e4b55b11E', symObjAddr: 0x5B00, symBinAddr: 0x78070, symSize: 0x50 }
  - { offsetInCU: 0x157D9, offset: 0x28AEEE, size: 0x8, addend: 0x0, symName: '__ZN4core3ptr61drop_in_place$LT$syn..path..ParenthesizedGenericArguments$GT$17he42ca826fd29664aE', symObjAddr: 0x5B50, symBinAddr: 0x780C0, symSize: 0x170 }
  - { offsetInCU: 0x15DCF, offset: 0x28B4E4, size: 0x8, addend: 0x0, symName: '__ZN4core3ptr63drop_in_place$LT$alloc..boxed..Box$LT$syn..lit..LitRepr$GT$$GT$17h8222a56e6c683c5aE', symObjAddr: 0x5CC0, symBinAddr: 0x78230, symSize: 0x60 }
  - { offsetInCU: 0x160D6, offset: 0x28B7EB, size: 0x8, addend: 0x0, symName: '__ZN4core3ptr64drop_in_place$LT$alloc..boxed..Box$LT$syn..pat..FieldPat$GT$$GT$17h66e88fe42bce0514E', symObjAddr: 0x5D20, symBinAddr: 0x78290, symSize: 0x180 }
  - { offsetInCU: 0x167F3, offset: 0x28BF08, size: 0x8, addend: 0x0, symName: '__ZN4core3ptr64drop_in_place$LT$alloc..boxed..Box$LT$syn..ty..BareFnArg$GT$$GT$17hc55aee6adabce0e0E', symObjAddr: 0x5EA0, symBinAddr: 0x78410, symSize: 0x160 }
  - { offsetInCU: 0x16D89, offset: 0x28C49E, size: 0x8, addend: 0x0, symName: '__ZN4core3ptr65drop_in_place$LT$alloc..vec..Vec$LT$proc_macro..TokenTree$GT$$GT$17h8835dbfce829562fE', symObjAddr: 0x6000, symBinAddr: 0x78570, symSize: 0x110 }
  - { offsetInCU: 0x17181, offset: 0x28C896, size: 0x8, addend: 0x0, symName: '__ZN4core3ptr65drop_in_place$LT$core..option..Option$LT$syn..expr..Label$GT$$GT$17h1335ae7a7e0cb02bE', symObjAddr: 0x6110, symBinAddr: 0x78680, symSize: 0x30 }
  - { offsetInCU: 0x172BB, offset: 0x28C9D0, size: 0x8, addend: 0x0, symName: '__ZN4core3ptr66drop_in_place$LT$core..option..Option$LT$syn..ty..Variadic$GT$$GT$17h37054875f7f27315E', symObjAddr: 0x6140, symBinAddr: 0x786B0, symSize: 0xF0 }
  - { offsetInCU: 0x175E5, offset: 0x28CCFA, size: 0x8, addend: 0x0, symName: '__ZN4core3ptr67drop_in_place$LT$alloc..boxed..Box$LT$syn..expr..FieldValue$GT$$GT$17hce04fc28c268bc19E', symObjAddr: 0x6230, symBinAddr: 0x787A0, symSize: 0x160 }
  - { offsetInCU: 0x17B7A, offset: 0x28D28F, size: 0x8, addend: 0x0, symName: '__ZN4core3ptr68drop_in_place$LT$alloc..boxed..Box$LT$syn..path..PathSegment$GT$$GT$17h5126e1cca9e13262E', symObjAddr: 0x6390, symBinAddr: 0x78900, symSize: 0x190 }
  - { offsetInCU: 0x182A3, offset: 0x28D9B8, size: 0x8, addend: 0x0, symName: '__ZN4core3ptr72drop_in_place$LT$alloc..boxed..Box$LT$syn..path..GenericArgument$GT$$GT$17h688d94234e40ccdbE', symObjAddr: 0x6520, symBinAddr: 0x78A90, symSize: 0x1D0 }
  - { offsetInCU: 0x189CA, offset: 0x28E0DF, size: 0x8, addend: 0x0, symName: '__ZN4core3ptr72drop_in_place$LT$core..option..Option$LT$syn..lifetime..Lifetime$GT$$GT$17h55f693312904278fE', symObjAddr: 0x66F0, symBinAddr: 0x78C60, symSize: 0x30 }
  - { offsetInCU: 0x18AE5, offset: 0x28E1FA, size: 0x8, addend: 0x0, symName: '__ZN4core3ptr75drop_in_place$LT$alloc..boxed..Box$LT$syn..generics..TypeParamBound$GT$$GT$17h03630f28dbdf1321E', symObjAddr: 0x6720, symBinAddr: 0x78C90, symSize: 0x140 }
  - { offsetInCU: 0x19040, offset: 0x28E755, size: 0x8, addend: 0x0, symName: '__ZN4core3ptr78drop_in_place$LT$alloc..boxed..Box$LT$syn..expr..GenericMethodArgument$GT$$GT$17ha89dc9e7cfdf6f4dE', symObjAddr: 0x6860, symBinAddr: 0x78DD0, symSize: 0x60 }
  - { offsetInCU: 0x19232, offset: 0x28E947, size: 0x8, addend: 0x0, symName: '__ZN4core3ptr78drop_in_place$LT$core..option..Option$LT$syn..generics..BoundLifetimes$GT$$GT$17h356c1327dde9200fE', symObjAddr: 0x68C0, symBinAddr: 0x78E30, symSize: 0x90 }
  - { offsetInCU: 0x19520, offset: 0x28EC35, size: 0x8, addend: 0x0, symName: '__ZN4core3ptr86drop_in_place$LT$syn..punctuated..Punctuated$LT$syn..pat..Pat$C$syn..token..Or$GT$$GT$17h6ce24f9373f60dcbE', symObjAddr: 0x6950, symBinAddr: 0x78EC0, symSize: 0x120 }
  - { offsetInCU: 0x1999B, offset: 0x28F0B0, size: 0x8, addend: 0x0, symName: '__ZN4core3ptr87drop_in_place$LT$core..option..Option$LT$alloc..boxed..Box$LT$syn..pat..Pat$GT$$GT$$GT$17h0a540d9434f61900E', symObjAddr: 0x6A70, symBinAddr: 0x78FE0, symSize: 0x50 }
  - { offsetInCU: 0x19B0B, offset: 0x28F220, size: 0x8, addend: 0x0, symName: '__ZN4core3ptr87drop_in_place$LT$core..option..Option$LT$alloc..boxed..Box$LT$syn..ty..Type$GT$$GT$$GT$17h18108c56275e206bE', symObjAddr: 0x6AC0, symBinAddr: 0x79030, symSize: 0x50 }
  - { offsetInCU: 0x19C7B, offset: 0x28F390, size: 0x8, addend: 0x0, symName: '__ZN4core3ptr89drop_in_place$LT$core..option..Option$LT$alloc..boxed..Box$LT$syn..expr..Expr$GT$$GT$$GT$17hf18b288419ab9305E', symObjAddr: 0x6B10, symBinAddr: 0x79080, symSize: 0x50 }
  - { offsetInCU: 0x19E29, offset: 0x28F53E, size: 0x8, addend: 0x0, symName: '__ZN4core3ptr89drop_in_place$LT$syn..punctuated..Punctuated$LT$syn..pat..Pat$C$syn..token..Comma$GT$$GT$17hde91c7229067911aE', symObjAddr: 0x6B60, symBinAddr: 0x790D0, symSize: 0x120 }
  - { offsetInCU: 0x1A2BB, offset: 0x28F9D0, size: 0x8, addend: 0x0, symName: '__ZN4core3ptr89drop_in_place$LT$syn..punctuated..Punctuated$LT$syn..ty..Type$C$syn..token..Comma$GT$$GT$17hec4fba0d089f0e7dE', symObjAddr: 0x6C80, symBinAddr: 0x791F0, symSize: 0x120 }
  - { offsetInCU: 0x1A774, offset: 0x28FE89, size: 0x8, addend: 0x0, symName: '__ZN4core3ptr91drop_in_place$LT$syn..punctuated..Punctuated$LT$syn..expr..Expr$C$syn..token..Comma$GT$$GT$17h0c87a5b43a1d72edE', symObjAddr: 0x6DA0, symBinAddr: 0x79310, symSize: 0x120 }
  - { offsetInCU: 0x1AC02, offset: 0x290317, size: 0x8, addend: 0x0, symName: '__ZN4core3ptr94drop_in_place$LT$syn..punctuated..Punctuated$LT$syn..pat..FieldPat$C$syn..token..Comma$GT$$GT$17h42d90ac6ad8fddbbE', symObjAddr: 0x6EC0, symBinAddr: 0x79430, symSize: 0xF0 }
  - { offsetInCU: 0x1AF01, offset: 0x290616, size: 0x8, addend: 0x0, symName: '__ZN4core3ptr94drop_in_place$LT$syn..punctuated..Punctuated$LT$syn..ty..BareFnArg$C$syn..token..Comma$GT$$GT$17h19ad16c4f7981402E', symObjAddr: 0x6FB0, symBinAddr: 0x79520, symSize: 0x90 }
  - { offsetInCU: 0x1B171, offset: 0x290886, size: 0x8, addend: 0x0, symName: '__ZN4core3ptr96drop_in_place$LT$core..option..Option$LT$alloc..boxed..Box$LT$syn..path..PathSegment$GT$$GT$$GT$17h2353022cffaa67a2E', symObjAddr: 0x7040, symBinAddr: 0x795B0, symSize: 0x180 }
  - { offsetInCU: 0x1B82E, offset: 0x290F43, size: 0x8, addend: 0x0, symName: '__ZN4core3ptr97drop_in_place$LT$syn..punctuated..Punctuated$LT$syn..expr..FieldValue$C$syn..token..Comma$GT$$GT$17hc2ecca3911a607ecE', symObjAddr: 0x71C0, symBinAddr: 0x79730, symSize: 0x90 }
  - { offsetInCU: 0x1BB1A, offset: 0x29122F, size: 0x8, addend: 0x0, symName: '__ZN4core3ptr97drop_in_place$LT$syn..punctuated..Punctuated$LT$syn..lifetime..Lifetime$C$syn..token..Add$GT$$GT$17h6cafbe16207b9c08E', symObjAddr: 0x7250, symBinAddr: 0x797C0, symSize: 0xD0 }
  - { offsetInCU: 0x1BF8E, offset: 0x2916A3, size: 0x8, addend: 0x0, symName: '__ZN4core3ptr99drop_in_place$LT$syn..punctuated..Punctuated$LT$syn..path..PathSegment$C$syn..token..Colon2$GT$$GT$17hfc92522704956751E', symObjAddr: 0x7320, symBinAddr: 0x79890, symSize: 0x250 }
  - { offsetInCU: 0x1EB4A, offset: 0x29425F, size: 0x8, addend: 0x0, symName: __ZN21borsh_derive_internal7enum_de7enum_de17h325dcbd16619d336E, symObjAddr: 0x75B0, symBinAddr: 0x79B20, symSize: 0x2679 }
  - { offsetInCU: 0x1E, offset: 0x2A3362, size: 0x8, addend: 0x0, symName: '__ZN4core3ptr100drop_in_place$LT$core..option..Option$LT$alloc..boxed..Box$LT$syn..generics..LifetimeDef$GT$$GT$$GT$17h37a42be7919e8ee0E', symObjAddr: 0x0, symBinAddr: 0x7C1A0, symSize: 0x150 }
  - { offsetInCU: 0x9B, offset: 0x2A33DF, size: 0x8, addend: 0x0, symName: '__ZN58_$LT$alloc..string..String$u20$as$u20$core..fmt..Write$GT$10write_char17h04bc467bd68a934bE', symObjAddr: 0x6E00, symBinAddr: 0x82FA0, symSize: 0x140 }
  - { offsetInCU: 0x4A1, offset: 0x2A37E5, size: 0x8, addend: 0x0, symName: '__ZN58_$LT$alloc..string..String$u20$as$u20$core..fmt..Write$GT$9write_str17h46a93205c3443fbaE', symObjAddr: 0x6F40, symBinAddr: 0x830E0, symSize: 0x60 }
  - { offsetInCU: 0x19C4, offset: 0x2A4D08, size: 0x8, addend: 0x0, symName: '__ZN4core3ptr100drop_in_place$LT$core..option..Option$LT$alloc..boxed..Box$LT$syn..generics..LifetimeDef$GT$$GT$$GT$17h37a42be7919e8ee0E', symObjAddr: 0x0, symBinAddr: 0x7C1A0, symSize: 0x150 }
  - { offsetInCU: 0x1F40, offset: 0x2A5284, size: 0x8, addend: 0x0, symName: '__ZN4core3ptr100drop_in_place$LT$core..option..Option$LT$alloc..boxed..Box$LT$syn..path..GenericArgument$GT$$GT$$GT$17h56b44935b850a0e0E', symObjAddr: 0x150, symBinAddr: 0x7C2F0, symSize: 0x50 }
  - { offsetInCU: 0x21E6, offset: 0x2A552A, size: 0x8, addend: 0x0, symName: '__ZN4core3ptr103drop_in_place$LT$syn..punctuated..Punctuated$LT$syn..generics..TypeParamBound$C$syn..token..Add$GT$$GT$17h3d13fe0092df77aeE', symObjAddr: 0x1A0, symBinAddr: 0x7C340, symSize: 0x200 }
  - { offsetInCU: 0x2AD7, offset: 0x2A5E1B, size: 0x8, addend: 0x0, symName: '__ZN4core3ptr108drop_in_place$LT$syn..punctuated..Punctuated$LT$syn..expr..GenericMethodArgument$C$syn..token..Comma$GT$$GT$17h982883b999b6ac61E', symObjAddr: 0x3A0, symBinAddr: 0x7C540, symSize: 0x150 }
  - { offsetInCU: 0x3030, offset: 0x2A6374, size: 0x8, addend: 0x0, symName: '__ZN4core3ptr34drop_in_place$LT$syn..lit..Lit$GT$17h0dfe857ab92abdb4E', symObjAddr: 0x4F0, symBinAddr: 0x7C690, symSize: 0x110 }
  - { offsetInCU: 0x34A2, offset: 0x2A67E6, size: 0x8, addend: 0x0, symName: '__ZN4core3ptr34drop_in_place$LT$syn..pat..Pat$GT$17he8adeea7ef215e45E', symObjAddr: 0x600, symBinAddr: 0x7C7A0, symSize: 0x1050 }
  - { offsetInCU: 0x6E61, offset: 0x2AA1A5, size: 0x8, addend: 0x0, symName: '__ZN4core3ptr34drop_in_place$LT$syn..ty..Type$GT$17hc0db84af17a0c354E', symObjAddr: 0x1650, symBinAddr: 0x7D7F0, symSize: 0x5F0 }
  - { offsetInCU: 0x83A5, offset: 0x2AB6E9, size: 0x8, addend: 0x0, symName: '__ZN4core3ptr36drop_in_place$LT$syn..attr..Meta$GT$17he4e1d8973d5c26a4E', symObjAddr: 0x1C40, symBinAddr: 0x7DDE0, symSize: 0xB0 }
  - { offsetInCU: 0x8AB4, offset: 0x2ABDF8, size: 0x8, addend: 0x0, symName: '__ZN4core3ptr36drop_in_place$LT$syn..expr..Expr$GT$17hb7ba80408adcdaa0E', symObjAddr: 0x1CF0, symBinAddr: 0x7DE90, symSize: 0x3180 }
  - { offsetInCU: 0x12FA7, offset: 0x2B62EB, size: 0x8, addend: 0x0, symName: '__ZN4core3ptr36drop_in_place$LT$syn..mac..Macro$GT$17hfed7c41953ee11d3E', symObjAddr: 0x4E70, symBinAddr: 0x81010, symSize: 0xE0 }
  - { offsetInCU: 0x133AD, offset: 0x2B66F1, size: 0x8, addend: 0x0, symName: '__ZN4core3ptr36drop_in_place$LT$syn..path..Path$GT$17h6a40221ee38ae5b2E', symObjAddr: 0x4F50, symBinAddr: 0x810F0, symSize: 0x230 }
  - { offsetInCU: 0x13D43, offset: 0x2B7087, size: 0x8, addend: 0x0, symName: '__ZN4core3ptr37drop_in_place$LT$syn..stmt..Block$GT$17h81806b3cd3ffe3baE', symObjAddr: 0x5180, symBinAddr: 0x81320, symSize: 0xD0 }
  - { offsetInCU: 0x1401A, offset: 0x2B735E, size: 0x8, addend: 0x0, symName: '__ZN4core3ptr38drop_in_place$LT$syn..expr..Member$GT$17he44029471db3e184E', symObjAddr: 0x5250, symBinAddr: 0x813F0, symSize: 0x30 }
  - { offsetInCU: 0x14116, offset: 0x2B745A, size: 0x8, addend: 0x0, symName: '__ZN4core3ptr39drop_in_place$LT$proc_macro2..Ident$GT$17hb706ee28ee340dc7E', symObjAddr: 0x5280, symBinAddr: 0x81420, symSize: 0x30 }
  - { offsetInCU: 0x141F3, offset: 0x2B7537, size: 0x8, addend: 0x0, symName: '__ZN4core3ptr39drop_in_place$LT$syn..pat..PatTuple$GT$17h7802ae4b3ffe01c7E', symObjAddr: 0x52B0, symBinAddr: 0x81450, symSize: 0x100 }
  - { offsetInCU: 0x144FC, offset: 0x2B7840, size: 0x8, addend: 0x0, symName: '__ZN4core3ptr40drop_in_place$LT$syn..attr..MetaList$GT$17h373c0c65ee8b7e2bE', symObjAddr: 0x53B0, symBinAddr: 0x81550, symSize: 0x40 }
  - { offsetInCU: 0x14519, offset: 0x2B785D, size: 0x8, addend: 0x0, symName: '__ZN4core3ptr40drop_in_place$LT$syn..ty..ReturnType$GT$17h9bf1c0655e864d42E', symObjAddr: 0x53F0, symBinAddr: 0x81590, symSize: 0x50 }
  - { offsetInCU: 0x14689, offset: 0x2B79CD, size: 0x8, addend: 0x0, symName: '__ZN4core3ptr42drop_in_place$LT$alloc..string..String$GT$17h03533ce4740bee06E', symObjAddr: 0x5440, symBinAddr: 0x815E0, symSize: 0x20 }
  - { offsetInCU: 0x14791, offset: 0x2B7AD5, size: 0x8, addend: 0x0, symName: '__ZN4core3ptr44drop_in_place$LT$syn..lifetime..Lifetime$GT$17h48bc6c724783eee4E', symObjAddr: 0x5460, symBinAddr: 0x81600, symSize: 0x30 }
  - { offsetInCU: 0x149C3, offset: 0x2B7D07, size: 0x8, addend: 0x0, symName: '__ZN4core3ptr45drop_in_place$LT$proc_macro2..TokenStream$GT$17h5bbd4eaf0ff620e4E', symObjAddr: 0x5490, symBinAddr: 0x81630, symSize: 0x140 }
  - { offsetInCU: 0x14E5D, offset: 0x2B81A1, size: 0x8, addend: 0x0, symName: '__ZN4core3ptr47drop_in_place$LT$syn..path..GenericArgument$GT$17hd4e7f6d0e01e8914E', symObjAddr: 0x55D0, symBinAddr: 0x81770, symSize: 0x110 }
  - { offsetInCU: 0x1518B, offset: 0x2B84CF, size: 0x8, addend: 0x0, symName: '__ZN4core3ptr58drop_in_place$LT$alloc..vec..Vec$LT$syn..expr..Arm$GT$$GT$17ha68719cfbd883529E', symObjAddr: 0x56E0, symBinAddr: 0x81880, symSize: 0xD0 }
  - { offsetInCU: 0x1544B, offset: 0x2B878F, size: 0x8, addend: 0x0, symName: '__ZN4core3ptr59drop_in_place$LT$alloc..boxed..Box$LT$syn..pat..Pat$GT$$GT$17hcdad39076eac1fa6E', symObjAddr: 0x57B0, symBinAddr: 0x81950, symSize: 0x50 }
  - { offsetInCU: 0x155A4, offset: 0x2B88E8, size: 0x8, addend: 0x0, symName: '__ZN4core3ptr59drop_in_place$LT$alloc..boxed..Box$LT$syn..ty..Type$GT$$GT$17heff72eb37aa4106cE', symObjAddr: 0x5800, symBinAddr: 0x819A0, symSize: 0x50 }
  - { offsetInCU: 0x156FD, offset: 0x2B8A41, size: 0x8, addend: 0x0, symName: '__ZN4core3ptr61drop_in_place$LT$alloc..boxed..Box$LT$syn..expr..Expr$GT$$GT$17h67843661e4b55b11E', symObjAddr: 0x5850, symBinAddr: 0x819F0, symSize: 0x50 }
  - { offsetInCU: 0x15856, offset: 0x2B8B9A, size: 0x8, addend: 0x0, symName: '__ZN4core3ptr61drop_in_place$LT$syn..path..ParenthesizedGenericArguments$GT$17he42ca826fd29664aE', symObjAddr: 0x58A0, symBinAddr: 0x81A40, symSize: 0x170 }
  - { offsetInCU: 0x15E5F, offset: 0x2B91A3, size: 0x8, addend: 0x0, symName: '__ZN4core3ptr63drop_in_place$LT$alloc..boxed..Box$LT$syn..lit..LitRepr$GT$$GT$17h8222a56e6c683c5aE', symObjAddr: 0x5A10, symBinAddr: 0x81BB0, symSize: 0x60 }
  - { offsetInCU: 0x16166, offset: 0x2B94AA, size: 0x8, addend: 0x0, symName: '__ZN4core3ptr64drop_in_place$LT$alloc..boxed..Box$LT$syn..pat..FieldPat$GT$$GT$17h66e88fe42bce0514E', symObjAddr: 0x5A70, symBinAddr: 0x81C10, symSize: 0x180 }
  - { offsetInCU: 0x16883, offset: 0x2B9BC7, size: 0x8, addend: 0x0, symName: '__ZN4core3ptr64drop_in_place$LT$alloc..boxed..Box$LT$syn..ty..BareFnArg$GT$$GT$17hc55aee6adabce0e0E', symObjAddr: 0x5BF0, symBinAddr: 0x81D90, symSize: 0x160 }
  - { offsetInCU: 0x16E19, offset: 0x2BA15D, size: 0x8, addend: 0x0, symName: '__ZN4core3ptr65drop_in_place$LT$alloc..vec..Vec$LT$proc_macro..TokenTree$GT$$GT$17h8835dbfce829562fE', symObjAddr: 0x5D50, symBinAddr: 0x81EF0, symSize: 0x110 }
  - { offsetInCU: 0x17211, offset: 0x2BA555, size: 0x8, addend: 0x0, symName: '__ZN4core3ptr65drop_in_place$LT$core..option..Option$LT$syn..expr..Label$GT$$GT$17h1335ae7a7e0cb02bE', symObjAddr: 0x5E60, symBinAddr: 0x82000, symSize: 0x30 }
  - { offsetInCU: 0x1734B, offset: 0x2BA68F, size: 0x8, addend: 0x0, symName: '__ZN4core3ptr66drop_in_place$LT$core..option..Option$LT$syn..ty..Variadic$GT$$GT$17h37054875f7f27315E', symObjAddr: 0x5E90, symBinAddr: 0x82030, symSize: 0xF0 }
  - { offsetInCU: 0x17675, offset: 0x2BA9B9, size: 0x8, addend: 0x0, symName: '__ZN4core3ptr67drop_in_place$LT$alloc..boxed..Box$LT$syn..attr..NestedMeta$GT$$GT$17h73c626672b70023aE', symObjAddr: 0x5F80, symBinAddr: 0x82120, symSize: 0x70 }
  - { offsetInCU: 0x1780A, offset: 0x2BAB4E, size: 0x8, addend: 0x0, symName: '__ZN4core3ptr67drop_in_place$LT$alloc..boxed..Box$LT$syn..expr..FieldValue$GT$$GT$17hce04fc28c268bc19E', symObjAddr: 0x5FF0, symBinAddr: 0x82190, symSize: 0x160 }
  - { offsetInCU: 0x17D9F, offset: 0x2BB0E3, size: 0x8, addend: 0x0, symName: '__ZN4core3ptr71drop_in_place$LT$syn..punctuated..Iter$LT$syn..attr..NestedMeta$GT$$GT$17hf497f630132ede62E', symObjAddr: 0x6150, symBinAddr: 0x822F0, symSize: 0x30 }
  - { offsetInCU: 0x17EC4, offset: 0x2BB208, size: 0x8, addend: 0x0, symName: '__ZN4core3ptr72drop_in_place$LT$core..option..Option$LT$syn..lifetime..Lifetime$GT$$GT$17h55f693312904278fE', symObjAddr: 0x6180, symBinAddr: 0x82320, symSize: 0x30 }
  - { offsetInCU: 0x17FDF, offset: 0x2BB323, size: 0x8, addend: 0x0, symName: '__ZN4core3ptr75drop_in_place$LT$alloc..boxed..Box$LT$syn..generics..TypeParamBound$GT$$GT$17h03630f28dbdf1321E', symObjAddr: 0x61B0, symBinAddr: 0x82350, symSize: 0x140 }
  - { offsetInCU: 0x1853A, offset: 0x2BB87E, size: 0x8, addend: 0x0, symName: '__ZN4core3ptr78drop_in_place$LT$alloc..boxed..Box$LT$syn..expr..GenericMethodArgument$GT$$GT$17ha89dc9e7cfdf6f4dE', symObjAddr: 0x62F0, symBinAddr: 0x82490, symSize: 0x60 }
  - { offsetInCU: 0x1872C, offset: 0x2BBA70, size: 0x8, addend: 0x0, symName: '__ZN4core3ptr78drop_in_place$LT$core..option..Option$LT$syn..generics..BoundLifetimes$GT$$GT$17h356c1327dde9200fE', symObjAddr: 0x6350, symBinAddr: 0x824F0, symSize: 0x90 }
  - { offsetInCU: 0x18A1A, offset: 0x2BBD5E, size: 0x8, addend: 0x0, symName: '__ZN4core3ptr86drop_in_place$LT$syn..punctuated..Punctuated$LT$syn..pat..Pat$C$syn..token..Or$GT$$GT$17h6ce24f9373f60dcbE', symObjAddr: 0x63E0, symBinAddr: 0x82580, symSize: 0x120 }
  - { offsetInCU: 0x18E95, offset: 0x2BC1D9, size: 0x8, addend: 0x0, symName: '__ZN4core3ptr87drop_in_place$LT$core..option..Option$LT$alloc..boxed..Box$LT$syn..pat..Pat$GT$$GT$$GT$17h0a540d9434f61900E', symObjAddr: 0x6500, symBinAddr: 0x826A0, symSize: 0x50 }
  - { offsetInCU: 0x19005, offset: 0x2BC349, size: 0x8, addend: 0x0, symName: '__ZN4core3ptr87drop_in_place$LT$core..option..Option$LT$alloc..boxed..Box$LT$syn..ty..Type$GT$$GT$$GT$17h18108c56275e206bE', symObjAddr: 0x6550, symBinAddr: 0x826F0, symSize: 0x50 }
  - { offsetInCU: 0x19175, offset: 0x2BC4B9, size: 0x8, addend: 0x0, symName: '__ZN4core3ptr89drop_in_place$LT$core..option..Option$LT$alloc..boxed..Box$LT$syn..expr..Expr$GT$$GT$$GT$17hf18b288419ab9305E', symObjAddr: 0x65A0, symBinAddr: 0x82740, symSize: 0x50 }
  - { offsetInCU: 0x19323, offset: 0x2BC667, size: 0x8, addend: 0x0, symName: '__ZN4core3ptr89drop_in_place$LT$syn..punctuated..Punctuated$LT$syn..pat..Pat$C$syn..token..Comma$GT$$GT$17hde91c7229067911aE', symObjAddr: 0x65F0, symBinAddr: 0x82790, symSize: 0x120 }
  - { offsetInCU: 0x197F3, offset: 0x2BCB37, size: 0x8, addend: 0x0, symName: '__ZN4core3ptr91drop_in_place$LT$syn..punctuated..Punctuated$LT$syn..expr..Expr$C$syn..token..Comma$GT$$GT$17h0c87a5b43a1d72edE', symObjAddr: 0x6710, symBinAddr: 0x828B0, symSize: 0x120 }
  - { offsetInCU: 0x19C81, offset: 0x2BCFC5, size: 0x8, addend: 0x0, symName: '__ZN4core3ptr94drop_in_place$LT$syn..punctuated..Punctuated$LT$syn..pat..FieldPat$C$syn..token..Comma$GT$$GT$17h42d90ac6ad8fddbbE', symObjAddr: 0x6830, symBinAddr: 0x829D0, symSize: 0xF0 }
  - { offsetInCU: 0x19F80, offset: 0x2BD2C4, size: 0x8, addend: 0x0, symName: '__ZN4core3ptr94drop_in_place$LT$syn..punctuated..Punctuated$LT$syn..ty..BareFnArg$C$syn..token..Comma$GT$$GT$17h19ad16c4f7981402E', symObjAddr: 0x6920, symBinAddr: 0x82AC0, symSize: 0x90 }
  - { offsetInCU: 0x1A1F0, offset: 0x2BD534, size: 0x8, addend: 0x0, symName: '__ZN4core3ptr96drop_in_place$LT$core..option..Option$LT$alloc..boxed..Box$LT$syn..path..PathSegment$GT$$GT$$GT$17h2353022cffaa67a2E', symObjAddr: 0x69B0, symBinAddr: 0x82B50, symSize: 0x180 }
  - { offsetInCU: 0x1A929, offset: 0x2BDC6D, size: 0x8, addend: 0x0, symName: '__ZN4core3ptr97drop_in_place$LT$syn..punctuated..Punctuated$LT$syn..attr..NestedMeta$C$syn..token..Comma$GT$$GT$17hf3ba01aad1996e56E', symObjAddr: 0x6B30, symBinAddr: 0x82CD0, symSize: 0x150 }
  - { offsetInCU: 0x1ADCA, offset: 0x2BE10E, size: 0x8, addend: 0x0, symName: '__ZN4core3ptr97drop_in_place$LT$syn..punctuated..Punctuated$LT$syn..expr..FieldValue$C$syn..token..Comma$GT$$GT$17hc2ecca3911a607ecE', symObjAddr: 0x6C80, symBinAddr: 0x82E20, symSize: 0x90 }
  - { offsetInCU: 0x1B0B6, offset: 0x2BE3FA, size: 0x8, addend: 0x0, symName: '__ZN4core3ptr97drop_in_place$LT$syn..punctuated..Punctuated$LT$syn..lifetime..Lifetime$C$syn..token..Add$GT$$GT$17h6cafbe16207b9c08E', symObjAddr: 0x6D10, symBinAddr: 0x82EB0, symSize: 0xD0 }
  - { offsetInCU: 0x1B7E2, offset: 0x2BEB26, size: 0x8, addend: 0x0, symName: '__ZN53_$LT$core..fmt..Error$u20$as$u20$core..fmt..Debug$GT$3fmt17h03dc662ab152f3aeE', symObjAddr: 0x6DE0, symBinAddr: 0x82F80, symSize: 0x20 }
  - { offsetInCU: 0x1D5AE, offset: 0x2C08F2, size: 0x8, addend: 0x0, symName: __ZN21borsh_derive_internal17attribute_helpers13contains_skip17h39fca360ede9fd3bE, symObjAddr: 0x6FA0, symBinAddr: 0x83140, symSize: 0x320 }
  - { offsetInCU: 0x1DD2A, offset: 0x2C106E, size: 0x8, addend: 0x0, symName: __ZN21borsh_derive_internal17attribute_helpers24contains_initialize_with17hbf1dcf7840287a5aE, symObjAddr: 0x72C0, symBinAddr: 0x83460, symSize: 0x5C6 }
  - { offsetInCU: 0x1E, offset: 0x2CDCCA, size: 0x8, addend: 0x0, symName: '__ZN4core3ptr100drop_in_place$LT$core..option..Option$LT$alloc..boxed..Box$LT$syn..generics..LifetimeDef$GT$$GT$$GT$17h37a42be7919e8ee0E', symObjAddr: 0x0, symBinAddr: 0x83A30, symSize: 0x150 }
  - { offsetInCU: 0x15A2, offset: 0x2CF24E, size: 0x8, addend: 0x0, symName: '__ZN4core3ptr100drop_in_place$LT$core..option..Option$LT$alloc..boxed..Box$LT$syn..generics..LifetimeDef$GT$$GT$$GT$17h37a42be7919e8ee0E', symObjAddr: 0x0, symBinAddr: 0x83A30, symSize: 0x150 }
  - { offsetInCU: 0x1B1E, offset: 0x2CF7CA, size: 0x8, addend: 0x0, symName: '__ZN4core3ptr100drop_in_place$LT$core..option..Option$LT$alloc..boxed..Box$LT$syn..path..GenericArgument$GT$$GT$$GT$17h56b44935b850a0e0E', symObjAddr: 0x150, symBinAddr: 0x83B80, symSize: 0x50 }
  - { offsetInCU: 0x1CEB, offset: 0x2CF997, size: 0x8, addend: 0x0, symName: '__ZN4core3ptr103drop_in_place$LT$core..option..Option$LT$alloc..boxed..Box$LT$syn..generics..TypeParamBound$GT$$GT$$GT$17ha4f14f3147120e74E', symObjAddr: 0x1A0, symBinAddr: 0x83BD0, symSize: 0x90 }
  - { offsetInCU: 0x2022, offset: 0x2CFCCE, size: 0x8, addend: 0x0, symName: '__ZN4core3ptr103drop_in_place$LT$core..option..Option$LT$alloc..boxed..Box$LT$syn..generics..WherePredicate$GT$$GT$$GT$17h41482e2912c9a9eaE', symObjAddr: 0x230, symBinAddr: 0x83C60, symSize: 0x120 }
  - { offsetInCU: 0x23D7, offset: 0x2D0083, size: 0x8, addend: 0x0, symName: '__ZN4core3ptr103drop_in_place$LT$syn..punctuated..Punctuated$LT$syn..generics..TypeParamBound$C$syn..token..Add$GT$$GT$17h3d13fe0092df77aeE', symObjAddr: 0x350, symBinAddr: 0x83D80, symSize: 0x200 }
  - { offsetInCU: 0x2CB5, offset: 0x2D0961, size: 0x8, addend: 0x0, symName: '__ZN4core3ptr108drop_in_place$LT$syn..punctuated..Punctuated$LT$syn..expr..GenericMethodArgument$C$syn..token..Comma$GT$$GT$17h982883b999b6ac61E', symObjAddr: 0x550, symBinAddr: 0x83F80, symSize: 0x150 }
  - { offsetInCU: 0x320E, offset: 0x2D0EBA, size: 0x8, addend: 0x0, symName: '__ZN4core3ptr34drop_in_place$LT$syn..lit..Lit$GT$17h0dfe857ab92abdb4E', symObjAddr: 0x6A0, symBinAddr: 0x840D0, symSize: 0x110 }
  - { offsetInCU: 0x3680, offset: 0x2D132C, size: 0x8, addend: 0x0, symName: '__ZN4core3ptr34drop_in_place$LT$syn..pat..Pat$GT$17he8adeea7ef215e45E', symObjAddr: 0x7B0, symBinAddr: 0x841E0, symSize: 0x1190 }
  - { offsetInCU: 0x7598, offset: 0x2D5244, size: 0x8, addend: 0x0, symName: '__ZN4core3ptr34drop_in_place$LT$syn..ty..Type$GT$17hc0db84af17a0c354E', symObjAddr: 0x1940, symBinAddr: 0x85370, symSize: 0x540 }
  - { offsetInCU: 0x8E20, offset: 0x2D6ACC, size: 0x8, addend: 0x0, symName: '__ZN4core3ptr36drop_in_place$LT$syn..expr..Expr$GT$17hb7ba80408adcdaa0E', symObjAddr: 0x1E80, symBinAddr: 0x858B0, symSize: 0x3240 }
  - { offsetInCU: 0x1361B, offset: 0x2E12C7, size: 0x8, addend: 0x0, symName: '__ZN4core3ptr36drop_in_place$LT$syn..mac..Macro$GT$17hfed7c41953ee11d3E', symObjAddr: 0x50C0, symBinAddr: 0x88AF0, symSize: 0x40 }
  - { offsetInCU: 0x1376C, offset: 0x2E1418, size: 0x8, addend: 0x0, symName: '__ZN4core3ptr36drop_in_place$LT$syn..path..Path$GT$17h6a40221ee38ae5b2E', symObjAddr: 0x5100, symBinAddr: 0x88B30, symSize: 0x230 }
  - { offsetInCU: 0x14102, offset: 0x2E1DAE, size: 0x8, addend: 0x0, symName: '__ZN4core3ptr37drop_in_place$LT$syn..stmt..Block$GT$17h81806b3cd3ffe3baE', symObjAddr: 0x5330, symBinAddr: 0x88D60, symSize: 0xD0 }
  - { offsetInCU: 0x14417, offset: 0x2E20C3, size: 0x8, addend: 0x0, symName: '__ZN4core3ptr38drop_in_place$LT$syn..error..Error$GT$17h6e80730249f74eacE', symObjAddr: 0x5400, symBinAddr: 0x88E30, symSize: 0x80 }
  - { offsetInCU: 0x146D6, offset: 0x2E2382, size: 0x8, addend: 0x0, symName: '__ZN4core3ptr38drop_in_place$LT$syn..expr..Member$GT$17he44029471db3e184E', symObjAddr: 0x5480, symBinAddr: 0x88EB0, symSize: 0x30 }
  - { offsetInCU: 0x147D2, offset: 0x2E247E, size: 0x8, addend: 0x0, symName: '__ZN4core3ptr39drop_in_place$LT$proc_macro2..Ident$GT$17hb706ee28ee340dc7E', symObjAddr: 0x54B0, symBinAddr: 0x88EE0, symSize: 0x30 }
  - { offsetInCU: 0x148AF, offset: 0x2E255B, size: 0x8, addend: 0x0, symName: '__ZN4core3ptr39drop_in_place$LT$syn..pat..PatTuple$GT$17h7802ae4b3ffe01c7E', symObjAddr: 0x54E0, symBinAddr: 0x88F10, symSize: 0x100 }
  - { offsetInCU: 0x14BB8, offset: 0x2E2864, size: 0x8, addend: 0x0, symName: '__ZN4core3ptr40drop_in_place$LT$syn..ty..ReturnType$GT$17h9bf1c0655e864d42E', symObjAddr: 0x55E0, symBinAddr: 0x89010, symSize: 0x50 }
  - { offsetInCU: 0x14D28, offset: 0x2E29D4, size: 0x8, addend: 0x0, symName: '__ZN4core3ptr44drop_in_place$LT$syn..lifetime..Lifetime$GT$17h48bc6c724783eee4E', symObjAddr: 0x5630, symBinAddr: 0x89060, symSize: 0x30 }
  - { offsetInCU: 0x14F5A, offset: 0x2E2C06, size: 0x8, addend: 0x0, symName: '__ZN4core3ptr45drop_in_place$LT$proc_macro2..TokenStream$GT$17h5bbd4eaf0ff620e4E', symObjAddr: 0x5660, symBinAddr: 0x89090, symSize: 0x140 }
  - { offsetInCU: 0x15413, offset: 0x2E30BF, size: 0x8, addend: 0x0, symName: '__ZN4core3ptr47drop_in_place$LT$syn..generics..WhereClause$GT$17hd6a0c88787d20795E', symObjAddr: 0x57A0, symBinAddr: 0x891D0, symSize: 0xE0 }
  - { offsetInCU: 0x1573F, offset: 0x2E33EB, size: 0x8, addend: 0x0, symName: '__ZN4core3ptr47drop_in_place$LT$syn..path..GenericArgument$GT$17hd4e7f6d0e01e8914E', symObjAddr: 0x5880, symBinAddr: 0x892B0, symSize: 0x110 }
  - { offsetInCU: 0x15A5A, offset: 0x2E3706, size: 0x8, addend: 0x0, symName: '__ZN4core3ptr58drop_in_place$LT$alloc..vec..Vec$LT$syn..expr..Arm$GT$$GT$17ha68719cfbd883529E', symObjAddr: 0x5990, symBinAddr: 0x893C0, symSize: 0xD0 }
  - { offsetInCU: 0x15D1A, offset: 0x2E39C6, size: 0x8, addend: 0x0, symName: '__ZN4core3ptr59drop_in_place$LT$alloc..boxed..Box$LT$syn..pat..Pat$GT$$GT$17hcdad39076eac1fa6E', symObjAddr: 0x5A60, symBinAddr: 0x89490, symSize: 0x50 }
  - { offsetInCU: 0x15E73, offset: 0x2E3B1F, size: 0x8, addend: 0x0, symName: '__ZN4core3ptr59drop_in_place$LT$alloc..boxed..Box$LT$syn..ty..Type$GT$$GT$17heff72eb37aa4106cE', symObjAddr: 0x5AB0, symBinAddr: 0x894E0, symSize: 0x50 }
  - { offsetInCU: 0x15FCC, offset: 0x2E3C78, size: 0x8, addend: 0x0, symName: '__ZN4core3ptr61drop_in_place$LT$alloc..boxed..Box$LT$syn..expr..Expr$GT$$GT$17h67843661e4b55b11E', symObjAddr: 0x5B00, symBinAddr: 0x89530, symSize: 0x50 }
  - { offsetInCU: 0x161A1, offset: 0x2E3E4D, size: 0x8, addend: 0x0, symName: '__ZN4core3ptr61drop_in_place$LT$syn..path..ParenthesizedGenericArguments$GT$17he42ca826fd29664aE', symObjAddr: 0x5B50, symBinAddr: 0x89580, symSize: 0x170 }
  - { offsetInCU: 0x16797, offset: 0x2E4443, size: 0x8, addend: 0x0, symName: '__ZN4core3ptr63drop_in_place$LT$alloc..boxed..Box$LT$syn..lit..LitRepr$GT$$GT$17h8222a56e6c683c5aE', symObjAddr: 0x5CC0, symBinAddr: 0x896F0, symSize: 0x60 }
  - { offsetInCU: 0x16A9E, offset: 0x2E474A, size: 0x8, addend: 0x0, symName: '__ZN4core3ptr64drop_in_place$LT$alloc..boxed..Box$LT$syn..pat..FieldPat$GT$$GT$17h66e88fe42bce0514E', symObjAddr: 0x5D20, symBinAddr: 0x89750, symSize: 0x180 }
  - { offsetInCU: 0x171BB, offset: 0x2E4E67, size: 0x8, addend: 0x0, symName: '__ZN4core3ptr64drop_in_place$LT$alloc..boxed..Box$LT$syn..ty..BareFnArg$GT$$GT$17hc55aee6adabce0e0E', symObjAddr: 0x5EA0, symBinAddr: 0x898D0, symSize: 0x160 }
  - { offsetInCU: 0x17751, offset: 0x2E53FD, size: 0x8, addend: 0x0, symName: '__ZN4core3ptr65drop_in_place$LT$alloc..vec..Vec$LT$proc_macro..TokenTree$GT$$GT$17h8835dbfce829562fE', symObjAddr: 0x6000, symBinAddr: 0x89A30, symSize: 0x110 }
  - { offsetInCU: 0x17B49, offset: 0x2E57F5, size: 0x8, addend: 0x0, symName: '__ZN4core3ptr65drop_in_place$LT$core..option..Option$LT$syn..expr..Label$GT$$GT$17h1335ae7a7e0cb02bE', symObjAddr: 0x6110, symBinAddr: 0x89B40, symSize: 0x30 }
  - { offsetInCU: 0x17C83, offset: 0x2E592F, size: 0x8, addend: 0x0, symName: '__ZN4core3ptr66drop_in_place$LT$core..option..Option$LT$syn..ty..Variadic$GT$$GT$17h37054875f7f27315E', symObjAddr: 0x6140, symBinAddr: 0x89B70, symSize: 0xF0 }
  - { offsetInCU: 0x17FAD, offset: 0x2E5C59, size: 0x8, addend: 0x0, symName: '__ZN4core3ptr67drop_in_place$LT$alloc..boxed..Box$LT$syn..expr..FieldValue$GT$$GT$17hce04fc28c268bc19E', symObjAddr: 0x6230, symBinAddr: 0x89C60, symSize: 0x160 }
  - { offsetInCU: 0x18542, offset: 0x2E61EE, size: 0x8, addend: 0x0, symName: '__ZN4core3ptr68drop_in_place$LT$alloc..boxed..Box$LT$syn..path..PathSegment$GT$$GT$17h5126e1cca9e13262E', symObjAddr: 0x6390, symBinAddr: 0x89DC0, symSize: 0x190 }
  - { offsetInCU: 0x18C6B, offset: 0x2E6917, size: 0x8, addend: 0x0, symName: '__ZN4core3ptr72drop_in_place$LT$alloc..boxed..Box$LT$syn..path..GenericArgument$GT$$GT$17h688d94234e40ccdbE', symObjAddr: 0x6520, symBinAddr: 0x89F50, symSize: 0x1D0 }
  - { offsetInCU: 0x19392, offset: 0x2E703E, size: 0x8, addend: 0x0, symName: '__ZN4core3ptr72drop_in_place$LT$core..option..Option$LT$syn..lifetime..Lifetime$GT$$GT$17h55f693312904278fE', symObjAddr: 0x66F0, symBinAddr: 0x8A120, symSize: 0x30 }
  - { offsetInCU: 0x194AD, offset: 0x2E7159, size: 0x8, addend: 0x0, symName: '__ZN4core3ptr75drop_in_place$LT$alloc..boxed..Box$LT$syn..generics..TypeParamBound$GT$$GT$17h03630f28dbdf1321E', symObjAddr: 0x6720, symBinAddr: 0x8A150, symSize: 0x140 }
  - { offsetInCU: 0x19A08, offset: 0x2E76B4, size: 0x8, addend: 0x0, symName: '__ZN4core3ptr78drop_in_place$LT$alloc..boxed..Box$LT$syn..expr..GenericMethodArgument$GT$$GT$17ha89dc9e7cfdf6f4dE', symObjAddr: 0x6860, symBinAddr: 0x8A290, symSize: 0x60 }
  - { offsetInCU: 0x19BFA, offset: 0x2E78A6, size: 0x8, addend: 0x0, symName: '__ZN4core3ptr78drop_in_place$LT$core..option..Option$LT$syn..generics..BoundLifetimes$GT$$GT$17h356c1327dde9200fE', symObjAddr: 0x68C0, symBinAddr: 0x8A2F0, symSize: 0x90 }
  - { offsetInCU: 0x19EE8, offset: 0x2E7B94, size: 0x8, addend: 0x0, symName: '__ZN4core3ptr86drop_in_place$LT$syn..punctuated..Punctuated$LT$syn..pat..Pat$C$syn..token..Or$GT$$GT$17h6ce24f9373f60dcbE', symObjAddr: 0x6950, symBinAddr: 0x8A380, symSize: 0x120 }
  - { offsetInCU: 0x1A363, offset: 0x2E800F, size: 0x8, addend: 0x0, symName: '__ZN4core3ptr87drop_in_place$LT$core..option..Option$LT$alloc..boxed..Box$LT$syn..pat..Pat$GT$$GT$$GT$17h0a540d9434f61900E', symObjAddr: 0x6A70, symBinAddr: 0x8A4A0, symSize: 0x50 }
  - { offsetInCU: 0x1A4D3, offset: 0x2E817F, size: 0x8, addend: 0x0, symName: '__ZN4core3ptr87drop_in_place$LT$core..option..Option$LT$alloc..boxed..Box$LT$syn..ty..Type$GT$$GT$$GT$17h18108c56275e206bE', symObjAddr: 0x6AC0, symBinAddr: 0x8A4F0, symSize: 0x50 }
  - { offsetInCU: 0x1A643, offset: 0x2E82EF, size: 0x8, addend: 0x0, symName: '__ZN4core3ptr89drop_in_place$LT$core..option..Option$LT$alloc..boxed..Box$LT$syn..expr..Expr$GT$$GT$$GT$17hf18b288419ab9305E', symObjAddr: 0x6B10, symBinAddr: 0x8A540, symSize: 0x50 }
  - { offsetInCU: 0x1A7F1, offset: 0x2E849D, size: 0x8, addend: 0x0, symName: '__ZN4core3ptr89drop_in_place$LT$syn..punctuated..Punctuated$LT$syn..pat..Pat$C$syn..token..Comma$GT$$GT$17hde91c7229067911aE', symObjAddr: 0x6B60, symBinAddr: 0x8A590, symSize: 0x120 }
  - { offsetInCU: 0x1AC83, offset: 0x2E892F, size: 0x8, addend: 0x0, symName: '__ZN4core3ptr89drop_in_place$LT$syn..punctuated..Punctuated$LT$syn..ty..Type$C$syn..token..Comma$GT$$GT$17hec4fba0d089f0e7dE', symObjAddr: 0x6C80, symBinAddr: 0x8A6B0, symSize: 0x120 }
  - { offsetInCU: 0x1B13C, offset: 0x2E8DE8, size: 0x8, addend: 0x0, symName: '__ZN4core3ptr91drop_in_place$LT$syn..punctuated..Punctuated$LT$syn..expr..Expr$C$syn..token..Comma$GT$$GT$17h0c87a5b43a1d72edE', symObjAddr: 0x6DA0, symBinAddr: 0x8A7D0, symSize: 0x120 }
  - { offsetInCU: 0x1B5CA, offset: 0x2E9276, size: 0x8, addend: 0x0, symName: '__ZN4core3ptr94drop_in_place$LT$syn..punctuated..Punctuated$LT$syn..pat..FieldPat$C$syn..token..Comma$GT$$GT$17h42d90ac6ad8fddbbE', symObjAddr: 0x6EC0, symBinAddr: 0x8A8F0, symSize: 0xF0 }
  - { offsetInCU: 0x1B8C9, offset: 0x2E9575, size: 0x8, addend: 0x0, symName: '__ZN4core3ptr94drop_in_place$LT$syn..punctuated..Punctuated$LT$syn..ty..BareFnArg$C$syn..token..Comma$GT$$GT$17h19ad16c4f7981402E', symObjAddr: 0x6FB0, symBinAddr: 0x8A9E0, symSize: 0x90 }
  - { offsetInCU: 0x1BB39, offset: 0x2E97E5, size: 0x8, addend: 0x0, symName: '__ZN4core3ptr96drop_in_place$LT$core..option..Option$LT$alloc..boxed..Box$LT$syn..path..PathSegment$GT$$GT$$GT$17h2353022cffaa67a2E', symObjAddr: 0x7040, symBinAddr: 0x8AA70, symSize: 0x180 }
  - { offsetInCU: 0x1C1F6, offset: 0x2E9EA2, size: 0x8, addend: 0x0, symName: '__ZN4core3ptr97drop_in_place$LT$syn..punctuated..Punctuated$LT$syn..expr..FieldValue$C$syn..token..Comma$GT$$GT$17hc2ecca3911a607ecE', symObjAddr: 0x71C0, symBinAddr: 0x8ABF0, symSize: 0x90 }
  - { offsetInCU: 0x1C4E2, offset: 0x2EA18E, size: 0x8, addend: 0x0, symName: '__ZN4core3ptr97drop_in_place$LT$syn..punctuated..Punctuated$LT$syn..lifetime..Lifetime$C$syn..token..Add$GT$$GT$17h6cafbe16207b9c08E', symObjAddr: 0x7250, symBinAddr: 0x8AC80, symSize: 0xD0 }
  - { offsetInCU: 0x1C956, offset: 0x2EA602, size: 0x8, addend: 0x0, symName: '__ZN4core3ptr99drop_in_place$LT$syn..punctuated..Punctuated$LT$syn..path..PathSegment$C$syn..token..Colon2$GT$$GT$17hfc92522704956751E', symObjAddr: 0x7320, symBinAddr: 0x8AD50, symSize: 0x250 }
  - { offsetInCU: 0x1E626, offset: 0x2EC2D2, size: 0x8, addend: 0x0, symName: __ZN21borsh_derive_internal9struct_de9struct_de17hf69c7f5134e3f358E, symObjAddr: 0x7570, symBinAddr: 0x8AFA0, symSize: 0x1824 }
  - { offsetInCU: 0x1E, offset: 0x2F96DF, size: 0x8, addend: 0x0, symName: '__ZN4core3ptr100drop_in_place$LT$core..option..Option$LT$alloc..boxed..Box$LT$syn..generics..LifetimeDef$GT$$GT$$GT$17h37a42be7919e8ee0E', symObjAddr: 0x0, symBinAddr: 0x8C7D0, symSize: 0x150 }
  - { offsetInCU: 0x62, offset: 0x2F9723, size: 0x8, addend: 0x0, symName: '__ZN70_$LT$core..num..error..TryFromIntError$u20$as$u20$core..fmt..Debug$GT$3fmt17h1128a7e265c9ce9aE', symObjAddr: 0x7570, symBinAddr: 0x93D40, symSize: 0x40 }
  - { offsetInCU: 0xB80, offset: 0x2FA241, size: 0x8, addend: 0x0, symName: '__ZN4core3ptr100drop_in_place$LT$core..option..Option$LT$alloc..boxed..Box$LT$syn..generics..LifetimeDef$GT$$GT$$GT$17h37a42be7919e8ee0E', symObjAddr: 0x0, symBinAddr: 0x8C7D0, symSize: 0x150 }
  - { offsetInCU: 0x10FC, offset: 0x2FA7BD, size: 0x8, addend: 0x0, symName: '__ZN4core3ptr100drop_in_place$LT$core..option..Option$LT$alloc..boxed..Box$LT$syn..path..GenericArgument$GT$$GT$$GT$17h56b44935b850a0e0E', symObjAddr: 0x150, symBinAddr: 0x8C920, symSize: 0x50 }
  - { offsetInCU: 0x12C9, offset: 0x2FA98A, size: 0x8, addend: 0x0, symName: '__ZN4core3ptr103drop_in_place$LT$core..option..Option$LT$alloc..boxed..Box$LT$syn..generics..TypeParamBound$GT$$GT$$GT$17ha4f14f3147120e74E', symObjAddr: 0x1A0, symBinAddr: 0x8C970, symSize: 0x90 }
  - { offsetInCU: 0x1600, offset: 0x2FACC1, size: 0x8, addend: 0x0, symName: '__ZN4core3ptr103drop_in_place$LT$core..option..Option$LT$alloc..boxed..Box$LT$syn..generics..WherePredicate$GT$$GT$$GT$17h41482e2912c9a9eaE', symObjAddr: 0x230, symBinAddr: 0x8CA00, symSize: 0x120 }
  - { offsetInCU: 0x19B5, offset: 0x2FB076, size: 0x8, addend: 0x0, symName: '__ZN4core3ptr103drop_in_place$LT$syn..punctuated..Punctuated$LT$syn..generics..TypeParamBound$C$syn..token..Add$GT$$GT$17h3d13fe0092df77aeE', symObjAddr: 0x350, symBinAddr: 0x8CB20, symSize: 0x200 }
  - { offsetInCU: 0x2293, offset: 0x2FB954, size: 0x8, addend: 0x0, symName: '__ZN4core3ptr108drop_in_place$LT$syn..punctuated..Punctuated$LT$syn..expr..GenericMethodArgument$C$syn..token..Comma$GT$$GT$17h982883b999b6ac61E', symObjAddr: 0x550, symBinAddr: 0x8CD20, symSize: 0x150 }
  - { offsetInCU: 0x27EC, offset: 0x2FBEAD, size: 0x8, addend: 0x0, symName: '__ZN4core3ptr34drop_in_place$LT$syn..lit..Lit$GT$17h0dfe857ab92abdb4E', symObjAddr: 0x6A0, symBinAddr: 0x8CE70, symSize: 0x110 }
  - { offsetInCU: 0x2C5E, offset: 0x2FC31F, size: 0x8, addend: 0x0, symName: '__ZN4core3ptr34drop_in_place$LT$syn..pat..Pat$GT$17he8adeea7ef215e45E', symObjAddr: 0x7B0, symBinAddr: 0x8CF80, symSize: 0x1190 }
  - { offsetInCU: 0x6B76, offset: 0x300237, size: 0x8, addend: 0x0, symName: '__ZN4core3ptr34drop_in_place$LT$syn..ty..Type$GT$17hc0db84af17a0c354E', symObjAddr: 0x1940, symBinAddr: 0x8E110, symSize: 0x540 }
  - { offsetInCU: 0x83FE, offset: 0x301ABF, size: 0x8, addend: 0x0, symName: '__ZN4core3ptr36drop_in_place$LT$syn..expr..Expr$GT$17hb7ba80408adcdaa0E', symObjAddr: 0x1E80, symBinAddr: 0x8E650, symSize: 0x3240 }
  - { offsetInCU: 0x12BF9, offset: 0x30C2BA, size: 0x8, addend: 0x0, symName: '__ZN4core3ptr36drop_in_place$LT$syn..mac..Macro$GT$17hfed7c41953ee11d3E', symObjAddr: 0x50C0, symBinAddr: 0x91890, symSize: 0x40 }
  - { offsetInCU: 0x12D4A, offset: 0x30C40B, size: 0x8, addend: 0x0, symName: '__ZN4core3ptr36drop_in_place$LT$syn..path..Path$GT$17h6a40221ee38ae5b2E', symObjAddr: 0x5100, symBinAddr: 0x918D0, symSize: 0x230 }
  - { offsetInCU: 0x136E0, offset: 0x30CDA1, size: 0x8, addend: 0x0, symName: '__ZN4core3ptr37drop_in_place$LT$syn..stmt..Block$GT$17h81806b3cd3ffe3baE', symObjAddr: 0x5330, symBinAddr: 0x91B00, symSize: 0xD0 }
  - { offsetInCU: 0x139F5, offset: 0x30D0B6, size: 0x8, addend: 0x0, symName: '__ZN4core3ptr38drop_in_place$LT$syn..error..Error$GT$17h6e80730249f74eacE', symObjAddr: 0x5400, symBinAddr: 0x91BD0, symSize: 0x80 }
  - { offsetInCU: 0x13CB4, offset: 0x30D375, size: 0x8, addend: 0x0, symName: '__ZN4core3ptr38drop_in_place$LT$syn..expr..Member$GT$17he44029471db3e184E', symObjAddr: 0x5480, symBinAddr: 0x91C50, symSize: 0x30 }
  - { offsetInCU: 0x13DB0, offset: 0x30D471, size: 0x8, addend: 0x0, symName: '__ZN4core3ptr39drop_in_place$LT$proc_macro2..Ident$GT$17hb706ee28ee340dc7E', symObjAddr: 0x54B0, symBinAddr: 0x91C80, symSize: 0x30 }
  - { offsetInCU: 0x13E8D, offset: 0x30D54E, size: 0x8, addend: 0x0, symName: '__ZN4core3ptr39drop_in_place$LT$syn..pat..PatTuple$GT$17h7802ae4b3ffe01c7E', symObjAddr: 0x54E0, symBinAddr: 0x91CB0, symSize: 0x100 }
  - { offsetInCU: 0x14196, offset: 0x30D857, size: 0x8, addend: 0x0, symName: '__ZN4core3ptr40drop_in_place$LT$syn..ty..ReturnType$GT$17h9bf1c0655e864d42E', symObjAddr: 0x55E0, symBinAddr: 0x91DB0, symSize: 0x50 }
  - { offsetInCU: 0x14306, offset: 0x30D9C7, size: 0x8, addend: 0x0, symName: '__ZN4core3ptr44drop_in_place$LT$syn..lifetime..Lifetime$GT$17h48bc6c724783eee4E', symObjAddr: 0x5630, symBinAddr: 0x91E00, symSize: 0x30 }
  - { offsetInCU: 0x14538, offset: 0x30DBF9, size: 0x8, addend: 0x0, symName: '__ZN4core3ptr45drop_in_place$LT$proc_macro2..TokenStream$GT$17h5bbd4eaf0ff620e4E', symObjAddr: 0x5660, symBinAddr: 0x91E30, symSize: 0x140 }
  - { offsetInCU: 0x149F1, offset: 0x30E0B2, size: 0x8, addend: 0x0, symName: '__ZN4core3ptr47drop_in_place$LT$syn..generics..WhereClause$GT$17hd6a0c88787d20795E', symObjAddr: 0x57A0, symBinAddr: 0x91F70, symSize: 0xE0 }
  - { offsetInCU: 0x14D1D, offset: 0x30E3DE, size: 0x8, addend: 0x0, symName: '__ZN4core3ptr47drop_in_place$LT$syn..path..GenericArgument$GT$17hd4e7f6d0e01e8914E', symObjAddr: 0x5880, symBinAddr: 0x92050, symSize: 0x110 }
  - { offsetInCU: 0x15038, offset: 0x30E6F9, size: 0x8, addend: 0x0, symName: '__ZN4core3ptr58drop_in_place$LT$alloc..vec..Vec$LT$syn..expr..Arm$GT$$GT$17ha68719cfbd883529E', symObjAddr: 0x5990, symBinAddr: 0x92160, symSize: 0xD0 }
  - { offsetInCU: 0x152F8, offset: 0x30E9B9, size: 0x8, addend: 0x0, symName: '__ZN4core3ptr59drop_in_place$LT$alloc..boxed..Box$LT$syn..pat..Pat$GT$$GT$17hcdad39076eac1fa6E', symObjAddr: 0x5A60, symBinAddr: 0x92230, symSize: 0x50 }
  - { offsetInCU: 0x15451, offset: 0x30EB12, size: 0x8, addend: 0x0, symName: '__ZN4core3ptr59drop_in_place$LT$alloc..boxed..Box$LT$syn..ty..Type$GT$$GT$17heff72eb37aa4106cE', symObjAddr: 0x5AB0, symBinAddr: 0x92280, symSize: 0x50 }
  - { offsetInCU: 0x155AA, offset: 0x30EC6B, size: 0x8, addend: 0x0, symName: '__ZN4core3ptr61drop_in_place$LT$alloc..boxed..Box$LT$syn..expr..Expr$GT$$GT$17h67843661e4b55b11E', symObjAddr: 0x5B00, symBinAddr: 0x922D0, symSize: 0x50 }
  - { offsetInCU: 0x1577F, offset: 0x30EE40, size: 0x8, addend: 0x0, symName: '__ZN4core3ptr61drop_in_place$LT$syn..path..ParenthesizedGenericArguments$GT$17he42ca826fd29664aE', symObjAddr: 0x5B50, symBinAddr: 0x92320, symSize: 0x170 }
  - { offsetInCU: 0x15D75, offset: 0x30F436, size: 0x8, addend: 0x0, symName: '__ZN4core3ptr63drop_in_place$LT$alloc..boxed..Box$LT$syn..lit..LitRepr$GT$$GT$17h8222a56e6c683c5aE', symObjAddr: 0x5CC0, symBinAddr: 0x92490, symSize: 0x60 }
  - { offsetInCU: 0x1607C, offset: 0x30F73D, size: 0x8, addend: 0x0, symName: '__ZN4core3ptr64drop_in_place$LT$alloc..boxed..Box$LT$syn..pat..FieldPat$GT$$GT$17h66e88fe42bce0514E', symObjAddr: 0x5D20, symBinAddr: 0x924F0, symSize: 0x180 }
  - { offsetInCU: 0x16799, offset: 0x30FE5A, size: 0x8, addend: 0x0, symName: '__ZN4core3ptr64drop_in_place$LT$alloc..boxed..Box$LT$syn..ty..BareFnArg$GT$$GT$17hc55aee6adabce0e0E', symObjAddr: 0x5EA0, symBinAddr: 0x92670, symSize: 0x160 }
  - { offsetInCU: 0x16D2F, offset: 0x3103F0, size: 0x8, addend: 0x0, symName: '__ZN4core3ptr65drop_in_place$LT$alloc..vec..Vec$LT$proc_macro..TokenTree$GT$$GT$17h8835dbfce829562fE', symObjAddr: 0x6000, symBinAddr: 0x927D0, symSize: 0x110 }
  - { offsetInCU: 0x17127, offset: 0x3107E8, size: 0x8, addend: 0x0, symName: '__ZN4core3ptr65drop_in_place$LT$core..option..Option$LT$syn..expr..Label$GT$$GT$17h1335ae7a7e0cb02bE', symObjAddr: 0x6110, symBinAddr: 0x928E0, symSize: 0x30 }
  - { offsetInCU: 0x17261, offset: 0x310922, size: 0x8, addend: 0x0, symName: '__ZN4core3ptr66drop_in_place$LT$core..option..Option$LT$syn..ty..Variadic$GT$$GT$17h37054875f7f27315E', symObjAddr: 0x6140, symBinAddr: 0x92910, symSize: 0xF0 }
  - { offsetInCU: 0x1758B, offset: 0x310C4C, size: 0x8, addend: 0x0, symName: '__ZN4core3ptr67drop_in_place$LT$alloc..boxed..Box$LT$syn..expr..FieldValue$GT$$GT$17hce04fc28c268bc19E', symObjAddr: 0x6230, symBinAddr: 0x92A00, symSize: 0x160 }
  - { offsetInCU: 0x17B20, offset: 0x3111E1, size: 0x8, addend: 0x0, symName: '__ZN4core3ptr68drop_in_place$LT$alloc..boxed..Box$LT$syn..path..PathSegment$GT$$GT$17h5126e1cca9e13262E', symObjAddr: 0x6390, symBinAddr: 0x92B60, symSize: 0x190 }
  - { offsetInCU: 0x18249, offset: 0x31190A, size: 0x8, addend: 0x0, symName: '__ZN4core3ptr72drop_in_place$LT$alloc..boxed..Box$LT$syn..path..GenericArgument$GT$$GT$17h688d94234e40ccdbE', symObjAddr: 0x6520, symBinAddr: 0x92CF0, symSize: 0x1D0 }
  - { offsetInCU: 0x18970, offset: 0x312031, size: 0x8, addend: 0x0, symName: '__ZN4core3ptr72drop_in_place$LT$core..option..Option$LT$syn..lifetime..Lifetime$GT$$GT$17h55f693312904278fE', symObjAddr: 0x66F0, symBinAddr: 0x92EC0, symSize: 0x30 }
  - { offsetInCU: 0x18A8B, offset: 0x31214C, size: 0x8, addend: 0x0, symName: '__ZN4core3ptr75drop_in_place$LT$alloc..boxed..Box$LT$syn..generics..TypeParamBound$GT$$GT$17h03630f28dbdf1321E', symObjAddr: 0x6720, symBinAddr: 0x92EF0, symSize: 0x140 }
  - { offsetInCU: 0x18FE6, offset: 0x3126A7, size: 0x8, addend: 0x0, symName: '__ZN4core3ptr78drop_in_place$LT$alloc..boxed..Box$LT$syn..expr..GenericMethodArgument$GT$$GT$17ha89dc9e7cfdf6f4dE', symObjAddr: 0x6860, symBinAddr: 0x93030, symSize: 0x60 }
  - { offsetInCU: 0x191D8, offset: 0x312899, size: 0x8, addend: 0x0, symName: '__ZN4core3ptr78drop_in_place$LT$core..option..Option$LT$syn..generics..BoundLifetimes$GT$$GT$17h356c1327dde9200fE', symObjAddr: 0x68C0, symBinAddr: 0x93090, symSize: 0x90 }
  - { offsetInCU: 0x194C6, offset: 0x312B87, size: 0x8, addend: 0x0, symName: '__ZN4core3ptr86drop_in_place$LT$syn..punctuated..Punctuated$LT$syn..pat..Pat$C$syn..token..Or$GT$$GT$17h6ce24f9373f60dcbE', symObjAddr: 0x6950, symBinAddr: 0x93120, symSize: 0x120 }
  - { offsetInCU: 0x19941, offset: 0x313002, size: 0x8, addend: 0x0, symName: '__ZN4core3ptr87drop_in_place$LT$core..option..Option$LT$alloc..boxed..Box$LT$syn..pat..Pat$GT$$GT$$GT$17h0a540d9434f61900E', symObjAddr: 0x6A70, symBinAddr: 0x93240, symSize: 0x50 }
  - { offsetInCU: 0x19AB1, offset: 0x313172, size: 0x8, addend: 0x0, symName: '__ZN4core3ptr87drop_in_place$LT$core..option..Option$LT$alloc..boxed..Box$LT$syn..ty..Type$GT$$GT$$GT$17h18108c56275e206bE', symObjAddr: 0x6AC0, symBinAddr: 0x93290, symSize: 0x50 }
  - { offsetInCU: 0x19C21, offset: 0x3132E2, size: 0x8, addend: 0x0, symName: '__ZN4core3ptr89drop_in_place$LT$core..option..Option$LT$alloc..boxed..Box$LT$syn..expr..Expr$GT$$GT$$GT$17hf18b288419ab9305E', symObjAddr: 0x6B10, symBinAddr: 0x932E0, symSize: 0x50 }
  - { offsetInCU: 0x19DCF, offset: 0x313490, size: 0x8, addend: 0x0, symName: '__ZN4core3ptr89drop_in_place$LT$syn..punctuated..Punctuated$LT$syn..pat..Pat$C$syn..token..Comma$GT$$GT$17hde91c7229067911aE', symObjAddr: 0x6B60, symBinAddr: 0x93330, symSize: 0x120 }
  - { offsetInCU: 0x1A261, offset: 0x313922, size: 0x8, addend: 0x0, symName: '__ZN4core3ptr89drop_in_place$LT$syn..punctuated..Punctuated$LT$syn..ty..Type$C$syn..token..Comma$GT$$GT$17hec4fba0d089f0e7dE', symObjAddr: 0x6C80, symBinAddr: 0x93450, symSize: 0x120 }
  - { offsetInCU: 0x1A71A, offset: 0x313DDB, size: 0x8, addend: 0x0, symName: '__ZN4core3ptr91drop_in_place$LT$syn..punctuated..Punctuated$LT$syn..expr..Expr$C$syn..token..Comma$GT$$GT$17h0c87a5b43a1d72edE', symObjAddr: 0x6DA0, symBinAddr: 0x93570, symSize: 0x120 }
  - { offsetInCU: 0x1ABA8, offset: 0x314269, size: 0x8, addend: 0x0, symName: '__ZN4core3ptr94drop_in_place$LT$syn..punctuated..Punctuated$LT$syn..pat..FieldPat$C$syn..token..Comma$GT$$GT$17h42d90ac6ad8fddbbE', symObjAddr: 0x6EC0, symBinAddr: 0x93690, symSize: 0xF0 }
  - { offsetInCU: 0x1AEA7, offset: 0x314568, size: 0x8, addend: 0x0, symName: '__ZN4core3ptr94drop_in_place$LT$syn..punctuated..Punctuated$LT$syn..ty..BareFnArg$C$syn..token..Comma$GT$$GT$17h19ad16c4f7981402E', symObjAddr: 0x6FB0, symBinAddr: 0x93780, symSize: 0x90 }
  - { offsetInCU: 0x1B117, offset: 0x3147D8, size: 0x8, addend: 0x0, symName: '__ZN4core3ptr96drop_in_place$LT$core..option..Option$LT$alloc..boxed..Box$LT$syn..path..PathSegment$GT$$GT$$GT$17h2353022cffaa67a2E', symObjAddr: 0x7040, symBinAddr: 0x93810, symSize: 0x180 }
  - { offsetInCU: 0x1B7D4, offset: 0x314E95, size: 0x8, addend: 0x0, symName: '__ZN4core3ptr97drop_in_place$LT$syn..punctuated..Punctuated$LT$syn..expr..FieldValue$C$syn..token..Comma$GT$$GT$17hc2ecca3911a607ecE', symObjAddr: 0x71C0, symBinAddr: 0x93990, symSize: 0x90 }
  - { offsetInCU: 0x1BAC0, offset: 0x315181, size: 0x8, addend: 0x0, symName: '__ZN4core3ptr97drop_in_place$LT$syn..punctuated..Punctuated$LT$syn..lifetime..Lifetime$C$syn..token..Add$GT$$GT$17h6cafbe16207b9c08E', symObjAddr: 0x7250, symBinAddr: 0x93A20, symSize: 0xD0 }
  - { offsetInCU: 0x1BF34, offset: 0x3155F5, size: 0x8, addend: 0x0, symName: '__ZN4core3ptr99drop_in_place$LT$syn..punctuated..Punctuated$LT$syn..path..PathSegment$C$syn..token..Colon2$GT$$GT$17hfc92522704956751E', symObjAddr: 0x7320, symBinAddr: 0x93AF0, symSize: 0x250 }
  - { offsetInCU: 0x1E5FC, offset: 0x317CBD, size: 0x8, addend: 0x0, symName: __ZN21borsh_derive_internal10struct_ser10struct_ser17he6f7986cb51230ffE, symObjAddr: 0x75B0, symBinAddr: 0x93D80, symSize: 0xD0A }
  - { offsetInCU: 0x1E, offset: 0x324BCF, size: 0x8, addend: 0x0, symName: '__ZN40_$LT$F$u20$as$u20$syn..parse..Parser$GT$6parse217hb701dadbe326dd0dE', symObjAddr: 0x0, symBinAddr: 0x94A90, symSize: 0x380 }
  - { offsetInCU: 0x1A8A, offset: 0x32663B, size: 0x8, addend: 0x0, symName: '__ZN4core3ptr100drop_in_place$LT$core..option..Option$LT$alloc..boxed..Box$LT$syn..generics..LifetimeDef$GT$$GT$$GT$17h37a42be7919e8ee0E', symObjAddr: 0x380, symBinAddr: 0x94E10, symSize: 0x150 }
  - { offsetInCU: 0x2006, offset: 0x326BB7, size: 0x8, addend: 0x0, symName: '__ZN4core3ptr100drop_in_place$LT$core..option..Option$LT$alloc..boxed..Box$LT$syn..path..GenericArgument$GT$$GT$$GT$17h56b44935b850a0e0E', symObjAddr: 0x4D0, symBinAddr: 0x94F60, symSize: 0x50 }
  - { offsetInCU: 0x21D3, offset: 0x326D84, size: 0x8, addend: 0x0, symName: '__ZN4core3ptr103drop_in_place$LT$core..option..Option$LT$alloc..boxed..Box$LT$syn..generics..TypeParamBound$GT$$GT$$GT$17ha4f14f3147120e74E', symObjAddr: 0x520, symBinAddr: 0x94FB0, symSize: 0x90 }
  - { offsetInCU: 0x2548, offset: 0x3270F9, size: 0x8, addend: 0x0, symName: '__ZN4core3ptr103drop_in_place$LT$syn..punctuated..Punctuated$LT$syn..generics..TypeParamBound$C$syn..token..Add$GT$$GT$17h3d13fe0092df77aeE', symObjAddr: 0x5B0, symBinAddr: 0x95040, symSize: 0x200 }
  - { offsetInCU: 0x2E26, offset: 0x3279D7, size: 0x8, addend: 0x0, symName: '__ZN4core3ptr108drop_in_place$LT$syn..punctuated..Punctuated$LT$syn..expr..GenericMethodArgument$C$syn..token..Comma$GT$$GT$17h982883b999b6ac61E', symObjAddr: 0x7B0, symBinAddr: 0x95240, symSize: 0x150 }
  - { offsetInCU: 0x337F, offset: 0x327F30, size: 0x8, addend: 0x0, symName: '__ZN4core3ptr34drop_in_place$LT$syn..lit..Lit$GT$17h0dfe857ab92abdb4E', symObjAddr: 0x900, symBinAddr: 0x95390, symSize: 0x110 }
  - { offsetInCU: 0x37F1, offset: 0x3283A2, size: 0x8, addend: 0x0, symName: '__ZN4core3ptr34drop_in_place$LT$syn..pat..Pat$GT$17he8adeea7ef215e45E', symObjAddr: 0xA10, symBinAddr: 0x954A0, symSize: 0x1190 }
  - { offsetInCU: 0x7709, offset: 0x32C2BA, size: 0x8, addend: 0x0, symName: '__ZN4core3ptr34drop_in_place$LT$syn..ty..Type$GT$17hc0db84af17a0c354E', symObjAddr: 0x1BA0, symBinAddr: 0x96630, symSize: 0x540 }
  - { offsetInCU: 0x8F91, offset: 0x32DB42, size: 0x8, addend: 0x0, symName: '__ZN4core3ptr36drop_in_place$LT$syn..expr..Expr$GT$17hb7ba80408adcdaa0E', symObjAddr: 0x20E0, symBinAddr: 0x96B70, symSize: 0x3240 }
  - { offsetInCU: 0x1378C, offset: 0x33833D, size: 0x8, addend: 0x0, symName: '__ZN4core3ptr36drop_in_place$LT$syn..mac..Macro$GT$17hfed7c41953ee11d3E', symObjAddr: 0x5320, symBinAddr: 0x99DB0, symSize: 0x40 }
  - { offsetInCU: 0x138DD, offset: 0x33848E, size: 0x8, addend: 0x0, symName: '__ZN4core3ptr36drop_in_place$LT$syn..path..Path$GT$17h6a40221ee38ae5b2E', symObjAddr: 0x5360, symBinAddr: 0x99DF0, symSize: 0x230 }
  - { offsetInCU: 0x14273, offset: 0x338E24, size: 0x8, addend: 0x0, symName: '__ZN4core3ptr37drop_in_place$LT$syn..stmt..Block$GT$17h81806b3cd3ffe3baE', symObjAddr: 0x5590, symBinAddr: 0x9A020, symSize: 0xD0 }
  - { offsetInCU: 0x1454A, offset: 0x3390FB, size: 0x8, addend: 0x0, symName: '__ZN4core3ptr38drop_in_place$LT$syn..expr..Member$GT$17he44029471db3e184E', symObjAddr: 0x5660, symBinAddr: 0x9A0F0, symSize: 0x30 }
  - { offsetInCU: 0x14646, offset: 0x3391F7, size: 0x8, addend: 0x0, symName: '__ZN4core3ptr39drop_in_place$LT$proc_macro2..Ident$GT$17hb706ee28ee340dc7E', symObjAddr: 0x5690, symBinAddr: 0x9A120, symSize: 0x30 }
  - { offsetInCU: 0x14859, offset: 0x33940A, size: 0x8, addend: 0x0, symName: '__ZN4core3ptr39drop_in_place$LT$syn..buffer..Entry$GT$17h07d4bd8f860a854fE', symObjAddr: 0x56C0, symBinAddr: 0x9A150, symSize: 0xB0 }
  - { offsetInCU: 0x14BE4, offset: 0x339795, size: 0x8, addend: 0x0, symName: '__ZN4core3ptr39drop_in_place$LT$syn..pat..PatTuple$GT$17h7802ae4b3ffe01c7E', symObjAddr: 0x5770, symBinAddr: 0x9A200, symSize: 0x100 }
  - { offsetInCU: 0x14EED, offset: 0x339A9E, size: 0x8, addend: 0x0, symName: '__ZN4core3ptr40drop_in_place$LT$syn..ty..ReturnType$GT$17h9bf1c0655e864d42E', symObjAddr: 0x5870, symBinAddr: 0x9A300, symSize: 0x50 }
  - { offsetInCU: 0x1505D, offset: 0x339C0E, size: 0x8, addend: 0x0, symName: '__ZN4core3ptr44drop_in_place$LT$syn..lifetime..Lifetime$GT$17h48bc6c724783eee4E', symObjAddr: 0x58C0, symBinAddr: 0x9A350, symSize: 0x30 }
  - { offsetInCU: 0x15159, offset: 0x339D0A, size: 0x8, addend: 0x0, symName: '__ZN4core3ptr44drop_in_place$LT$syn..parse..ParseBuffer$GT$17h156270625edb72ebE', symObjAddr: 0x58F0, symBinAddr: 0x9A380, symSize: 0x70 }
  - { offsetInCU: 0x154D5, offset: 0x33A086, size: 0x8, addend: 0x0, symName: '__ZN4core3ptr45drop_in_place$LT$proc_macro2..TokenStream$GT$17h5bbd4eaf0ff620e4E', symObjAddr: 0x5960, symBinAddr: 0x9A3F0, symSize: 0x140 }
  - { offsetInCU: 0x15931, offset: 0x33A4E2, size: 0x8, addend: 0x0, symName: '__ZN4core3ptr45drop_in_place$LT$syn..buffer..TokenBuffer$GT$17h1f29dbd35526083eE', symObjAddr: 0x5AA0, symBinAddr: 0x9A530, symSize: 0xC0 }
  - { offsetInCU: 0x15B99, offset: 0x33A74A, size: 0x8, addend: 0x0, symName: '__ZN4core3ptr47drop_in_place$LT$syn..path..GenericArgument$GT$17hd4e7f6d0e01e8914E', symObjAddr: 0x5B60, symBinAddr: 0x9A5F0, symSize: 0x110 }
  - { offsetInCU: 0x15F11, offset: 0x33AAC2, size: 0x8, addend: 0x0, symName: '__ZN4core3ptr50drop_in_place$LT$syn..generics..WherePredicate$GT$17h5aa8d2159c445688E', symObjAddr: 0x5C70, symBinAddr: 0x9A700, symSize: 0x100 }
  - { offsetInCU: 0x16098, offset: 0x33AC49, size: 0x8, addend: 0x0, symName: '__ZN4core3ptr58drop_in_place$LT$alloc..vec..Vec$LT$syn..expr..Arm$GT$$GT$17ha68719cfbd883529E', symObjAddr: 0x5D70, symBinAddr: 0x9A800, symSize: 0xD0 }
  - { offsetInCU: 0x16358, offset: 0x33AF09, size: 0x8, addend: 0x0, symName: '__ZN4core3ptr59drop_in_place$LT$alloc..boxed..Box$LT$syn..pat..Pat$GT$$GT$17hcdad39076eac1fa6E', symObjAddr: 0x5E40, symBinAddr: 0x9A8D0, symSize: 0x50 }
  - { offsetInCU: 0x164B1, offset: 0x33B062, size: 0x8, addend: 0x0, symName: '__ZN4core3ptr59drop_in_place$LT$alloc..boxed..Box$LT$syn..ty..Type$GT$$GT$17heff72eb37aa4106cE', symObjAddr: 0x5E90, symBinAddr: 0x9A920, symSize: 0x50 }
  - { offsetInCU: 0x1660A, offset: 0x33B1BB, size: 0x8, addend: 0x0, symName: '__ZN4core3ptr61drop_in_place$LT$alloc..boxed..Box$LT$syn..expr..Expr$GT$$GT$17h67843661e4b55b11E', symObjAddr: 0x5EE0, symBinAddr: 0x9A970, symSize: 0x50 }
  - { offsetInCU: 0x167DF, offset: 0x33B390, size: 0x8, addend: 0x0, symName: '__ZN4core3ptr61drop_in_place$LT$syn..path..ParenthesizedGenericArguments$GT$17he42ca826fd29664aE', symObjAddr: 0x5F30, symBinAddr: 0x9A9C0, symSize: 0x170 }
  - { offsetInCU: 0x16DD5, offset: 0x33B986, size: 0x8, addend: 0x0, symName: '__ZN4core3ptr63drop_in_place$LT$alloc..boxed..Box$LT$syn..lit..LitRepr$GT$$GT$17h8222a56e6c683c5aE', symObjAddr: 0x60A0, symBinAddr: 0x9AB30, symSize: 0x60 }
  - { offsetInCU: 0x170DC, offset: 0x33BC8D, size: 0x8, addend: 0x0, symName: '__ZN4core3ptr64drop_in_place$LT$alloc..boxed..Box$LT$syn..pat..FieldPat$GT$$GT$17h66e88fe42bce0514E', symObjAddr: 0x6100, symBinAddr: 0x9AB90, symSize: 0x180 }
  - { offsetInCU: 0x177F9, offset: 0x33C3AA, size: 0x8, addend: 0x0, symName: '__ZN4core3ptr64drop_in_place$LT$alloc..boxed..Box$LT$syn..ty..BareFnArg$GT$$GT$17hc55aee6adabce0e0E', symObjAddr: 0x6280, symBinAddr: 0x9AD10, symSize: 0x160 }
  - { offsetInCU: 0x17D8F, offset: 0x33C940, size: 0x8, addend: 0x0, symName: '__ZN4core3ptr65drop_in_place$LT$alloc..vec..Vec$LT$proc_macro..TokenTree$GT$$GT$17h8835dbfce829562fE', symObjAddr: 0x63E0, symBinAddr: 0x9AE70, symSize: 0x110 }
  - { offsetInCU: 0x18187, offset: 0x33CD38, size: 0x8, addend: 0x0, symName: '__ZN4core3ptr65drop_in_place$LT$core..option..Option$LT$syn..expr..Label$GT$$GT$17h1335ae7a7e0cb02bE', symObjAddr: 0x64F0, symBinAddr: 0x9AF80, symSize: 0x30 }
  - { offsetInCU: 0x182C1, offset: 0x33CE72, size: 0x8, addend: 0x0, symName: '__ZN4core3ptr66drop_in_place$LT$core..option..Option$LT$syn..ty..Variadic$GT$$GT$17h37054875f7f27315E', symObjAddr: 0x6520, symBinAddr: 0x9AFB0, symSize: 0xF0 }
  - { offsetInCU: 0x185EB, offset: 0x33D19C, size: 0x8, addend: 0x0, symName: '__ZN4core3ptr67drop_in_place$LT$alloc..boxed..Box$LT$syn..expr..FieldValue$GT$$GT$17hce04fc28c268bc19E', symObjAddr: 0x6610, symBinAddr: 0x9B0A0, symSize: 0x160 }
  - { offsetInCU: 0x18B80, offset: 0x33D731, size: 0x8, addend: 0x0, symName: '__ZN4core3ptr68drop_in_place$LT$alloc..boxed..Box$LT$syn..path..PathSegment$GT$$GT$17h5126e1cca9e13262E', symObjAddr: 0x6770, symBinAddr: 0x9B200, symSize: 0x190 }
  - { offsetInCU: 0x192A9, offset: 0x33DE5A, size: 0x8, addend: 0x0, symName: '__ZN4core3ptr72drop_in_place$LT$alloc..boxed..Box$LT$syn..path..GenericArgument$GT$$GT$17h688d94234e40ccdbE', symObjAddr: 0x6900, symBinAddr: 0x9B390, symSize: 0x1D0 }
  - { offsetInCU: 0x199D0, offset: 0x33E581, size: 0x8, addend: 0x0, symName: '__ZN4core3ptr72drop_in_place$LT$core..option..Option$LT$syn..lifetime..Lifetime$GT$$GT$17h55f693312904278fE', symObjAddr: 0x6AD0, symBinAddr: 0x9B560, symSize: 0x30 }
  - { offsetInCU: 0x19AEB, offset: 0x33E69C, size: 0x8, addend: 0x0, symName: '__ZN4core3ptr75drop_in_place$LT$alloc..boxed..Box$LT$syn..generics..TypeParamBound$GT$$GT$17h03630f28dbdf1321E', symObjAddr: 0x6B00, symBinAddr: 0x9B590, symSize: 0x140 }
  - { offsetInCU: 0x1A046, offset: 0x33EBF7, size: 0x8, addend: 0x0, symName: '__ZN4core3ptr78drop_in_place$LT$alloc..boxed..Box$LT$syn..expr..GenericMethodArgument$GT$$GT$17ha89dc9e7cfdf6f4dE', symObjAddr: 0x6C40, symBinAddr: 0x9B6D0, symSize: 0x60 }
  - { offsetInCU: 0x1A238, offset: 0x33EDE9, size: 0x8, addend: 0x0, symName: '__ZN4core3ptr78drop_in_place$LT$core..option..Option$LT$syn..generics..BoundLifetimes$GT$$GT$17h356c1327dde9200fE', symObjAddr: 0x6CA0, symBinAddr: 0x9B730, symSize: 0x90 }
  - { offsetInCU: 0x1A526, offset: 0x33F0D7, size: 0x8, addend: 0x0, symName: '__ZN4core3ptr86drop_in_place$LT$syn..punctuated..Punctuated$LT$syn..pat..Pat$C$syn..token..Or$GT$$GT$17h6ce24f9373f60dcbE', symObjAddr: 0x6D30, symBinAddr: 0x9B7C0, symSize: 0x120 }
  - { offsetInCU: 0x1A9A1, offset: 0x33F552, size: 0x8, addend: 0x0, symName: '__ZN4core3ptr87drop_in_place$LT$core..option..Option$LT$alloc..boxed..Box$LT$syn..pat..Pat$GT$$GT$$GT$17h0a540d9434f61900E', symObjAddr: 0x6E50, symBinAddr: 0x9B8E0, symSize: 0x50 }
  - { offsetInCU: 0x1AB11, offset: 0x33F6C2, size: 0x8, addend: 0x0, symName: '__ZN4core3ptr87drop_in_place$LT$core..option..Option$LT$alloc..boxed..Box$LT$syn..ty..Type$GT$$GT$$GT$17h18108c56275e206bE', symObjAddr: 0x6EA0, symBinAddr: 0x9B930, symSize: 0x50 }
  - { offsetInCU: 0x1AC81, offset: 0x33F832, size: 0x8, addend: 0x0, symName: '__ZN4core3ptr89drop_in_place$LT$core..option..Option$LT$alloc..boxed..Box$LT$syn..expr..Expr$GT$$GT$$GT$17hf18b288419ab9305E', symObjAddr: 0x6EF0, symBinAddr: 0x9B980, symSize: 0x50 }
  - { offsetInCU: 0x1AE2F, offset: 0x33F9E0, size: 0x8, addend: 0x0, symName: '__ZN4core3ptr89drop_in_place$LT$syn..punctuated..Punctuated$LT$syn..pat..Pat$C$syn..token..Comma$GT$$GT$17hde91c7229067911aE', symObjAddr: 0x6F40, symBinAddr: 0x9B9D0, symSize: 0x120 }
  - { offsetInCU: 0x1B2C1, offset: 0x33FE72, size: 0x8, addend: 0x0, symName: '__ZN4core3ptr89drop_in_place$LT$syn..punctuated..Punctuated$LT$syn..ty..Type$C$syn..token..Comma$GT$$GT$17hec4fba0d089f0e7dE', symObjAddr: 0x7060, symBinAddr: 0x9BAF0, symSize: 0x120 }
  - { offsetInCU: 0x1B77A, offset: 0x34032B, size: 0x8, addend: 0x0, symName: '__ZN4core3ptr91drop_in_place$LT$syn..punctuated..Punctuated$LT$syn..expr..Expr$C$syn..token..Comma$GT$$GT$17h0c87a5b43a1d72edE', symObjAddr: 0x7180, symBinAddr: 0x9BC10, symSize: 0x120 }
  - { offsetInCU: 0x1BC08, offset: 0x3407B9, size: 0x8, addend: 0x0, symName: '__ZN4core3ptr94drop_in_place$LT$syn..punctuated..Punctuated$LT$syn..pat..FieldPat$C$syn..token..Comma$GT$$GT$17h42d90ac6ad8fddbbE', symObjAddr: 0x72A0, symBinAddr: 0x9BD30, symSize: 0xF0 }
  - { offsetInCU: 0x1BF07, offset: 0x340AB8, size: 0x8, addend: 0x0, symName: '__ZN4core3ptr94drop_in_place$LT$syn..punctuated..Punctuated$LT$syn..ty..BareFnArg$C$syn..token..Comma$GT$$GT$17h19ad16c4f7981402E', symObjAddr: 0x7390, symBinAddr: 0x9BE20, symSize: 0x90 }
  - { offsetInCU: 0x1C177, offset: 0x340D28, size: 0x8, addend: 0x0, symName: '__ZN4core3ptr96drop_in_place$LT$core..option..Option$LT$alloc..boxed..Box$LT$syn..path..PathSegment$GT$$GT$$GT$17h2353022cffaa67a2E', symObjAddr: 0x7420, symBinAddr: 0x9BEB0, symSize: 0x180 }
  - { offsetInCU: 0x1C834, offset: 0x3413E5, size: 0x8, addend: 0x0, symName: '__ZN4core3ptr97drop_in_place$LT$syn..punctuated..Punctuated$LT$syn..expr..FieldValue$C$syn..token..Comma$GT$$GT$17hc2ecca3911a607ecE', symObjAddr: 0x75A0, symBinAddr: 0x9C030, symSize: 0x90 }
  - { offsetInCU: 0x1CB20, offset: 0x3416D1, size: 0x8, addend: 0x0, symName: '__ZN4core3ptr97drop_in_place$LT$syn..punctuated..Punctuated$LT$syn..lifetime..Lifetime$C$syn..token..Add$GT$$GT$17h6cafbe16207b9c08E', symObjAddr: 0x7630, symBinAddr: 0x9C0C0, symSize: 0xD0 }
  - { offsetInCU: 0x1CF94, offset: 0x341B45, size: 0x8, addend: 0x0, symName: '__ZN4core3ptr99drop_in_place$LT$syn..punctuated..Punctuated$LT$syn..path..PathSegment$C$syn..token..Colon2$GT$$GT$17hfc92522704956751E', symObjAddr: 0x7700, symBinAddr: 0x9C190, symSize: 0x24A }
  - { offsetInCU: 0x24A68, offset: 0x349619, size: 0x8, addend: 0x0, symName: '__ZN40_$LT$F$u20$as$u20$syn..parse..Parser$GT$6parse217hb701dadbe326dd0dE', symObjAddr: 0x0, symBinAddr: 0x94A90, symSize: 0x380 }
  - { offsetInCU: 0x1E, offset: 0x34F026, size: 0x8, addend: 0x0, symName: '__ZN4core3ptr73drop_in_place$LT$core..cell..UnsafeCell$LT$syn..parse..Unexpected$GT$$GT$17h9563e41e8859d6aeE.llvm.2074186999105663991', symObjAddr: 0x0, symBinAddr: 0x9C3E0, symSize: 0x50 }
  - { offsetInCU: 0xB7D, offset: 0x34FB85, size: 0x8, addend: 0x0, symName: '__ZN4core3ptr73drop_in_place$LT$core..cell..UnsafeCell$LT$syn..parse..Unexpected$GT$$GT$17h9563e41e8859d6aeE.llvm.2074186999105663991', symObjAddr: 0x0, symBinAddr: 0x9C3E0, symSize: 0x50 }
  - { offsetInCU: 0x171C, offset: 0x350724, size: 0x8, addend: 0x0, symName: '__ZN68_$LT$alloc..rc..Rc$LT$T$C$A$GT$$u20$as$u20$core..ops..drop..Drop$GT$4drop17h8cce0355980f738aE', symObjAddr: 0x100, symBinAddr: 0x9C430, symSize: 0x40 }
  - { offsetInCU: 0x1990, offset: 0x350998, size: 0x8, addend: 0x0, symName: '__ZN68_$LT$alloc..rc..Rc$LT$T$C$A$GT$$u20$as$u20$core..ops..drop..Drop$GT$4drop17he782894c3e18b3adE', symObjAddr: 0x140, symBinAddr: 0x9C470, symSize: 0xE0 }
  - { offsetInCU: 0x2149, offset: 0x351151, size: 0x8, addend: 0x0, symName: '__ZN80_$LT$alloc..rc..UniqueRcUninit$LT$T$C$A$GT$$u20$as$u20$core..ops..drop..Drop$GT$4drop17he20be6d1e6df0f37E', symObjAddr: 0x220, symBinAddr: 0x9C550, symSize: 0x4F }
  - { offsetInCU: 0x1E, offset: 0x351BC0, size: 0x8, addend: 0x0, symName: __ZN4core3fmt5Write9write_fmt17h6f7ee2d16d70e35fE, symObjAddr: 0x0, symBinAddr: 0x9C5A0, symSize: 0x20 }
  - { offsetInCU: 0x98, offset: 0x351C3A, size: 0x8, addend: 0x0, symName: '__ZN58_$LT$alloc..string..String$u20$as$u20$core..fmt..Write$GT$10write_char17h04bc467bd68a934bE', symObjAddr: 0x40, symBinAddr: 0x9C5E0, symSize: 0x140 }
  - { offsetInCU: 0x49D, offset: 0x35203F, size: 0x8, addend: 0x0, symName: '__ZN58_$LT$alloc..string..String$u20$as$u20$core..fmt..Write$GT$9write_str17h46a93205c3443fbaE', symObjAddr: 0x180, symBinAddr: 0x9C720, symSize: 0x5B }
  - { offsetInCU: 0xAC1, offset: 0x352663, size: 0x8, addend: 0x0, symName: '__ZN4core3ptr42drop_in_place$LT$alloc..string..String$GT$17h03533ce4740bee06E', symObjAddr: 0x20, symBinAddr: 0x9C5C0, symSize: 0x20 }
  - { offsetInCU: 0xE54, offset: 0x3529F6, size: 0x8, addend: 0x0, symName: __ZN4core3fmt5Write9write_fmt17h6f7ee2d16d70e35fE, symObjAddr: 0x0, symBinAddr: 0x9C5A0, symSize: 0x20 }
  - { offsetInCU: 0x1E, offset: 0x3534AA, size: 0x8, addend: 0x0, symName: __ZN3syn5error5Error3new17h2e55c9d52d1517c6E, symObjAddr: 0x0, symBinAddr: 0x9C780, symSize: 0xF0 }
  - { offsetInCU: 0x35, offset: 0x3534C1, size: 0x8, addend: 0x0, symName: _anon.a6ab7262ea7af94391e9c7bdd7afc4cc.0.llvm.2706648746343261837, symObjAddr: 0x300, symBinAddr: 0x2E0B80, symSize: 0x0 }
  - { offsetInCU: 0x154, offset: 0x3535E0, size: 0x8, addend: 0x0, symName: '__ZN58_$LT$alloc..string..String$u20$as$u20$core..fmt..Write$GT$10write_char17h04bc467bd68a934bE.llvm.2706648746343261837', symObjAddr: 0x130, symBinAddr: 0x9C8B0, symSize: 0x140 }
  - { offsetInCU: 0x559, offset: 0x3539E5, size: 0x8, addend: 0x0, symName: '__ZN58_$LT$alloc..string..String$u20$as$u20$core..fmt..Write$GT$9write_str17h46a93205c3443fbaE.llvm.2706648746343261837', symObjAddr: 0x270, symBinAddr: 0x9C9F0, symSize: 0x5B }
  - { offsetInCU: 0xCD1, offset: 0x35415D, size: 0x8, addend: 0x0, symName: '__ZN4core3ptr42drop_in_place$LT$alloc..string..String$GT$17h03533ce4740bee06E.llvm.2706648746343261837', symObjAddr: 0xF0, symBinAddr: 0x9C870, symSize: 0x20 }
  - { offsetInCU: 0xF61, offset: 0x3543ED, size: 0x8, addend: 0x0, symName: '__ZN53_$LT$core..fmt..Error$u20$as$u20$core..fmt..Debug$GT$3fmt17h03dc662ab152f3aeE.llvm.2706648746343261837', symObjAddr: 0x110, symBinAddr: 0x9C890, symSize: 0x20 }
  - { offsetInCU: 0x12F4, offset: 0x354780, size: 0x8, addend: 0x0, symName: _anon.a6ab7262ea7af94391e9c7bdd7afc4cc.4.llvm.2706648746343261837, symObjAddr: 0x348, symBinAddr: 0x2E0BC8, symSize: 0x0 }
  - { offsetInCU: 0x164B, offset: 0x354AD7, size: 0x8, addend: 0x0, symName: __ZN3syn5error5Error3new17h2e55c9d52d1517c6E, symObjAddr: 0x0, symBinAddr: 0x9C780, symSize: 0xF0 }
  - { offsetInCU: 0x1E, offset: 0x35532D, size: 0x8, addend: 0x0, symName: '__ZN120_$LT$proc_macro2..fallback..TokenStream$u20$as$u20$core..iter..traits..collect..Extend$LT$proc_macro2..TokenTree$GT$$GT$6extend17ha97f0e526d330c84E', symObjAddr: 0x0, symBinAddr: 0x9CA50, symSize: 0x280 }
  - { offsetInCU: 0x9AC, offset: 0x355CBB, size: 0x8, addend: 0x0, symName: '__ZN120_$LT$proc_macro2..fallback..TokenStream$u20$as$u20$core..iter..traits..collect..Extend$LT$proc_macro2..TokenTree$GT$$GT$6extend17ha97f0e526d330c84E', symObjAddr: 0x0, symBinAddr: 0x9CA50, symSize: 0x280 }
  - { offsetInCU: 0x1B81, offset: 0x356E90, size: 0x8, addend: 0x0, symName: '__ZN4core3ptr45drop_in_place$LT$proc_macro2..TokenStream$GT$17h5bbd4eaf0ff620e4E', symObjAddr: 0x280, symBinAddr: 0x9CCD0, symSize: 0x140 }
  - { offsetInCU: 0x1FDD, offset: 0x3572EC, size: 0x8, addend: 0x0, symName: '__ZN4core3ptr56drop_in_place$LT$proc_macro2..token_stream..IntoIter$GT$17h5197a0650b7cfff3E', symObjAddr: 0x3C0, symBinAddr: 0x9CE10, symSize: 0x20 }
  - { offsetInCU: 0x208D, offset: 0x35739C, size: 0x8, addend: 0x0, symName: '__ZN4core3ptr65drop_in_place$LT$alloc..vec..Vec$LT$proc_macro..TokenTree$GT$$GT$17h8835dbfce829562fE', symObjAddr: 0x3E0, symBinAddr: 0x9CE30, symSize: 0x107 }
  - { offsetInCU: 0x1E, offset: 0x359078, size: 0x8, addend: 0x0, symName: '__ZN4core3ptr43drop_in_place$LT$proc_macro2..TokenTree$GT$17hf3adf4fd905203f6E.llvm.12228575634065625411', symObjAddr: 0x0, symBinAddr: 0x9CF40, symSize: 0xB0 }
  - { offsetInCU: 0xF36, offset: 0x359F90, size: 0x8, addend: 0x0, symName: '__ZN4core3ptr43drop_in_place$LT$proc_macro2..TokenTree$GT$17hf3adf4fd905203f6E.llvm.12228575634065625411', symObjAddr: 0x0, symBinAddr: 0x9CF40, symSize: 0xB0 }
  - { offsetInCU: 0x1BF6, offset: 0x35AC50, size: 0x8, addend: 0x0, symName: '__ZN86_$LT$alloc..vec..into_iter..IntoIter$LT$T$C$A$GT$$u20$as$u20$core..ops..drop..Drop$GT$4drop17h0fda40ba46515ec8E', symObjAddr: 0xB0, symBinAddr: 0x9CFF0, symSize: 0xD0 }
  - { offsetInCU: 0x1F60, offset: 0x35AFBA, size: 0x8, addend: 0x0, symName: '__ZN86_$LT$alloc..vec..into_iter..IntoIter$LT$T$C$A$GT$$u20$as$u20$core..ops..drop..Drop$GT$4drop17hd2d1b5d559d5c6cbE', symObjAddr: 0x180, symBinAddr: 0x9D0C0, symSize: 0x105 }
  - { offsetInCU: 0x1E, offset: 0x35BCAE, size: 0x8, addend: 0x0, symName: __ZN3std9panicking11begin_panic17he48e54c2557f2f4bE, symObjAddr: 0x0, symBinAddr: 0x25E7B0, symSize: 0x20 }
  - { offsetInCU: 0x7A7, offset: 0x35C437, size: 0x8, addend: 0x0, symName: __ZN3std9panicking11begin_panic17he48e54c2557f2f4bE, symObjAddr: 0x0, symBinAddr: 0x25E7B0, symSize: 0x20 }
  - { offsetInCU: 0x803, offset: 0x35C493, size: 0x8, addend: 0x0, symName: '__ZN84_$LT$std..panicking..begin_panic..Payload$LT$A$GT$$u20$as$u20$core..fmt..Display$GT$3fmt17h1df3c1147edc0e53E', symObjAddr: 0x20, symBinAddr: 0x9D1D0, symSize: 0x40 }
  - { offsetInCU: 0x870, offset: 0x35C500, size: 0x8, addend: 0x0, symName: '__ZN91_$LT$std..panicking..begin_panic..Payload$LT$A$GT$$u20$as$u20$core..panic..PanicPayload$GT$3get17h035f1b013d67e64dE', symObjAddr: 0x60, symBinAddr: 0x9D210, symSize: 0x20 }
  - { offsetInCU: 0x8A8, offset: 0x35C538, size: 0x8, addend: 0x0, symName: '__ZN91_$LT$std..panicking..begin_panic..Payload$LT$A$GT$$u20$as$u20$core..panic..PanicPayload$GT$8take_box17h345d07ee7d9eb573E', symObjAddr: 0x80, symBinAddr: 0x9D230, symSize: 0x5F }
  - { offsetInCU: 0x1E, offset: 0x35CA89, size: 0x8, addend: 0x0, symName: '__ZN115_$LT$proc_macro2..imp..TokenStream$u20$as$u20$core..iter..traits..collect..Extend$LT$proc_macro2..TokenTree$GT$$GT$6extend17h186e7d57dc6629f7E', symObjAddr: 0x0, symBinAddr: 0x9D290, symSize: 0x110 }
  - { offsetInCU: 0x78B, offset: 0x35D1F6, size: 0x8, addend: 0x0, symName: '__ZN115_$LT$proc_macro2..imp..TokenStream$u20$as$u20$core..iter..traits..collect..Extend$LT$proc_macro2..TokenTree$GT$$GT$6extend17h186e7d57dc6629f7E', symObjAddr: 0x0, symBinAddr: 0x9D290, symSize: 0x110 }
  - { offsetInCU: 0x15DF, offset: 0x35E04A, size: 0x8, addend: 0x0, symName: '__ZN4core3ptr56drop_in_place$LT$proc_macro2..token_stream..IntoIter$GT$17h5197a0650b7cfff3E.llvm.4047767428938062454', symObjAddr: 0x110, symBinAddr: 0x9D3A0, symSize: 0x1C }
  - { offsetInCU: 0x1E, offset: 0x35E39F, size: 0x8, addend: 0x0, symName: __ZN21borsh_derive_internal9union_ser9union_ser17he43813e2aaf4a495E, symObjAddr: 0x0, symBinAddr: 0x9D3C0, symSize: 0x4D }
  - { offsetInCU: 0x4317, offset: 0x362698, size: 0x8, addend: 0x0, symName: __ZN21borsh_derive_internal9union_ser9union_ser17he43813e2aaf4a495E, symObjAddr: 0x0, symBinAddr: 0x9D3C0, symSize: 0x4D }
  - { offsetInCU: 0x1E, offset: 0x367AF7, size: 0x8, addend: 0x0, symName: __ZN21borsh_derive_internal8union_de8union_de17hdce8e1fb17f22619E, symObjAddr: 0x0, symBinAddr: 0x9D410, symSize: 0x4D }
  - { offsetInCU: 0x4317, offset: 0x36BDF0, size: 0x8, addend: 0x0, symName: __ZN21borsh_derive_internal8union_de8union_de17hdce8e1fb17f22619E, symObjAddr: 0x0, symBinAddr: 0x9D410, symSize: 0x4D }
  - { offsetInCU: 0x1E, offset: 0x37124F, size: 0x8, addend: 0x0, symName: '__ZN4core3ptr45drop_in_place$LT$proc_macro2..TokenStream$GT$17h5bbd4eaf0ff620e4E.llvm.13180818191199521302', symObjAddr: 0x0, symBinAddr: 0x9D460, symSize: 0x140 }
  - { offsetInCU: 0xB2C, offset: 0x371D5D, size: 0x8, addend: 0x0, symName: '__ZN4core3ptr45drop_in_place$LT$proc_macro2..TokenStream$GT$17h5bbd4eaf0ff620e4E.llvm.13180818191199521302', symObjAddr: 0x0, symBinAddr: 0x9D460, symSize: 0x140 }
  - { offsetInCU: 0xF88, offset: 0x3721B9, size: 0x8, addend: 0x0, symName: '__ZN4core3ptr65drop_in_place$LT$alloc..vec..Vec$LT$proc_macro..TokenTree$GT$$GT$17h8835dbfce829562fE.llvm.13180818191199521302', symObjAddr: 0x140, symBinAddr: 0x9D5A0, symSize: 0x110 }
  - { offsetInCU: 0x1E, offset: 0x372F48, size: 0x8, addend: 0x0, symName: '__ZN4core3ptr45drop_in_place$LT$proc_macro2..TokenStream$GT$17h5bbd4eaf0ff620e4E.llvm.14524867639577884429', symObjAddr: 0x0, symBinAddr: 0x9D6B0, symSize: 0x140 }
  - { offsetInCU: 0xB2C, offset: 0x373A56, size: 0x8, addend: 0x0, symName: '__ZN4core3ptr45drop_in_place$LT$proc_macro2..TokenStream$GT$17h5bbd4eaf0ff620e4E.llvm.14524867639577884429', symObjAddr: 0x0, symBinAddr: 0x9D6B0, symSize: 0x140 }
  - { offsetInCU: 0xF88, offset: 0x373EB2, size: 0x8, addend: 0x0, symName: '__ZN4core3ptr65drop_in_place$LT$alloc..vec..Vec$LT$proc_macro..TokenTree$GT$$GT$17h8835dbfce829562fE.llvm.14524867639577884429', symObjAddr: 0x140, symBinAddr: 0x9D7F0, symSize: 0x110 }
  - { offsetInCU: 0x1E, offset: 0x374C41, size: 0x8, addend: 0x0, symName: '__ZN42_$LT$$RF$T$u20$as$u20$core..fmt..Debug$GT$3fmt17hb281c383a9eb4617E', symObjAddr: 0x0, symBinAddr: 0x9D900, symSize: 0x20 }
  - { offsetInCU: 0xED, offset: 0x374D10, size: 0x8, addend: 0x0, symName: '__ZN42_$LT$$RF$T$u20$as$u20$core..fmt..Debug$GT$3fmt17hb281c383a9eb4617E', symObjAddr: 0x0, symBinAddr: 0x9D900, symSize: 0x20 }
  - { offsetInCU: 0x1E, offset: 0x374F26, size: 0x8, addend: 0x0, symName: __ZN3std3sys9backtrace26__rust_end_short_backtrace17h31cdb34ec5ce6360E, symObjAddr: 0x0, symBinAddr: 0x9D920, symSize: 0x10 }
  - { offsetInCU: 0x66, offset: 0x374F6E, size: 0x8, addend: 0x0, symName: '__ZN3std9panicking11begin_panic28_$u7b$$u7b$closure$u7d$$u7d$17h3cdc732dc90b3086E', symObjAddr: 0x10, symBinAddr: 0x9D930, symSize: 0x40 }
  - { offsetInCU: 0xD7, offset: 0x374FDF, size: 0x8, addend: 0x0, symName: __ZN3std3sys9backtrace26__rust_end_short_backtrace17h31cdb34ec5ce6360E, symObjAddr: 0x0, symBinAddr: 0x9D920, symSize: 0x10 }
  - { offsetInCU: 0x1BA, offset: 0x3750C2, size: 0x8, addend: 0x0, symName: __ZN4core5panic12PanicPayload6as_str17h7389adc70efe520dE, symObjAddr: 0x50, symBinAddr: 0x9D970, symSize: 0x8 }
  - { offsetInCU: 0x1E, offset: 0x375177, size: 0x8, addend: 0x0, symName: '__ZN36_$LT$T$u20$as$u20$core..any..Any$GT$7type_id17h9a0addcbab8f57bfE', symObjAddr: 0x0, symBinAddr: 0x9D980, symSize: 0x1A }
  - { offsetInCU: 0x3A, offset: 0x375193, size: 0x8, addend: 0x0, symName: '__ZN36_$LT$T$u20$as$u20$core..any..Any$GT$7type_id17h9a0addcbab8f57bfE', symObjAddr: 0x0, symBinAddr: 0x9D980, symSize: 0x1A }
  - { offsetInCU: 0xB1, offset: 0x3752F7, size: 0x8, addend: 0x0, symName: '__ZN58_$LT$alloc..string..String$u20$as$u20$core..fmt..Write$GT$10write_char17h04bc467bd68a934bE', symObjAddr: 0xC7F0, symBinAddr: 0xA9BC0, symSize: 0x140 }
  - { offsetInCU: 0x4B6, offset: 0x3756FC, size: 0x8, addend: 0x0, symName: '__ZN58_$LT$alloc..string..String$u20$as$u20$core..fmt..Write$GT$9write_str17h46a93205c3443fbaE', symObjAddr: 0xC930, symBinAddr: 0xA9D00, symSize: 0x60 }
  - { offsetInCU: 0x500F, offset: 0x37A255, size: 0x8, addend: 0x0, symName: '__ZN4core3ptr100drop_in_place$LT$$LP$syn..data..Visibility$C$core..option..Option$LT$syn..token..Default$GT$$RP$$GT$17hf4681ce2d035d32cE', symObjAddr: 0x5B0, symBinAddr: 0x9DCD0, symSize: 0x60 }
  - { offsetInCU: 0x51AD, offset: 0x37A3F3, size: 0x8, addend: 0x0, symName: '__ZN4core3ptr100drop_in_place$LT$core..option..Option$LT$alloc..boxed..Box$LT$syn..generics..LifetimeDef$GT$$GT$$GT$17h75a6086997697dd7E', symObjAddr: 0x610, symBinAddr: 0x9DD30, symSize: 0x50 }
  - { offsetInCU: 0x532F, offset: 0x37A575, size: 0x8, addend: 0x0, symName: '__ZN4core3ptr100drop_in_place$LT$core..option..Option$LT$alloc..boxed..Box$LT$syn..path..GenericArgument$GT$$GT$$GT$17h3d29ec00a8f1918dE', symObjAddr: 0x660, symBinAddr: 0x9DD80, symSize: 0x50 }
  - { offsetInCU: 0x5597, offset: 0x37A7DD, size: 0x8, addend: 0x0, symName: '__ZN4core3ptr101drop_in_place$LT$core..option..Option$LT$alloc..boxed..Box$LT$syn..generics..GenericParam$GT$$GT$$GT$17h1fee4f1c7bd902c4E', symObjAddr: 0x6B0, symBinAddr: 0x9DDD0, symSize: 0x310 }
  - { offsetInCU: 0x5F94, offset: 0x37B1DA, size: 0x8, addend: 0x0, symName: '__ZN4core3ptr103drop_in_place$LT$core..option..Option$LT$alloc..boxed..Box$LT$syn..generics..TypeParamBound$GT$$GT$$GT$17h6cee73bc2b2ecea8E', symObjAddr: 0x9C0, symBinAddr: 0x9E0E0, symSize: 0x90 }
  - { offsetInCU: 0x62CB, offset: 0x37B511, size: 0x8, addend: 0x0, symName: '__ZN4core3ptr103drop_in_place$LT$core..option..Option$LT$alloc..boxed..Box$LT$syn..generics..WherePredicate$GT$$GT$$GT$17headad361972eced7E', symObjAddr: 0xA50, symBinAddr: 0x9E170, symSize: 0x120 }
  - { offsetInCU: 0x65E5, offset: 0x37B82B, size: 0x8, addend: 0x0, symName: '__ZN4core3ptr103drop_in_place$LT$syn..punctuated..Punctuated$LT$syn..generics..GenericParam$C$syn..token..Comma$GT$$GT$17hae00367f0c570156E', symObjAddr: 0xB70, symBinAddr: 0x9E290, symSize: 0x70 }
  - { offsetInCU: 0x6900, offset: 0x37BB46, size: 0x8, addend: 0x0, symName: '__ZN4core3ptr103drop_in_place$LT$syn..punctuated..Punctuated$LT$syn..generics..TypeParamBound$C$syn..token..Add$GT$$GT$17he811d520c92af08aE', symObjAddr: 0xBE0, symBinAddr: 0x9E300, symSize: 0x1C0 }
  - { offsetInCU: 0x7151, offset: 0x37C397, size: 0x8, addend: 0x0, symName: '__ZN4core3ptr108drop_in_place$LT$syn..punctuated..Punctuated$LT$syn..expr..GenericMethodArgument$C$syn..token..Comma$GT$$GT$17h92cbabe4862b2183E', symObjAddr: 0xDA0, symBinAddr: 0x9E4C0, symSize: 0x150 }
  - { offsetInCU: 0x764D, offset: 0x37C893, size: 0x8, addend: 0x0, symName: '__ZN4core3ptr115drop_in_place$LT$core..option..Option$LT$$LP$syn..token..Brace$C$alloc..vec..Vec$LT$syn..item..Item$GT$$RP$$GT$$GT$17hab9d60ee568bdf60E', symObjAddr: 0xEF0, symBinAddr: 0x9E610, symSize: 0xD0 }
  - { offsetInCU: 0x7964, offset: 0x37CBAA, size: 0x8, addend: 0x0, symName: '__ZN4core3ptr126drop_in_place$LT$core..option..Option$LT$$LP$syn..token..And$C$core..option..Option$LT$syn..lifetime..Lifetime$GT$$RP$$GT$$GT$17h5979d670cb45416cE', symObjAddr: 0xFC0, symBinAddr: 0x9E6E0, symSize: 0x30 }
  - { offsetInCU: 0x7C12, offset: 0x37CE58, size: 0x8, addend: 0x0, symName: '__ZN4core3ptr34drop_in_place$LT$syn..lit..Lit$GT$17hbe1efe749a08dd9aE', symObjAddr: 0x1070, symBinAddr: 0x9E710, symSize: 0x110 }
  - { offsetInCU: 0x8065, offset: 0x37D2AB, size: 0x8, addend: 0x0, symName: '__ZN4core3ptr34drop_in_place$LT$syn..pat..Pat$GT$17h3201f642e43ac2a2E', symObjAddr: 0x1180, symBinAddr: 0x9E820, symSize: 0xFA0 }
  - { offsetInCU: 0xB61A, offset: 0x380860, size: 0x8, addend: 0x0, symName: '__ZN4core3ptr34drop_in_place$LT$syn..ty..Type$GT$17hfb5d159a08190130E', symObjAddr: 0x2120, symBinAddr: 0x9F7C0, symSize: 0x4B0 }
  - { offsetInCU: 0xCC52, offset: 0x381E98, size: 0x8, addend: 0x0, symName: '__ZN4core3ptr36drop_in_place$LT$syn..expr..Expr$GT$17hf1921d1b09462bc3E', symObjAddr: 0x25D0, symBinAddr: 0x9FC70, symSize: 0x3110 }
  - { offsetInCU: 0x16EDA, offset: 0x38C120, size: 0x8, addend: 0x0, symName: '__ZN4core3ptr36drop_in_place$LT$syn..item..Item$GT$17hf1fe4e69bb0a9b43E', symObjAddr: 0x56E0, symBinAddr: 0xA2D80, symSize: 0x120 }
  - { offsetInCU: 0x16F29, offset: 0x38C16F, size: 0x8, addend: 0x0, symName: '__ZN4core3ptr36drop_in_place$LT$syn..mac..Macro$GT$17h205613d7ad575f72E', symObjAddr: 0x5800, symBinAddr: 0xA2EA0, symSize: 0x100 }
  - { offsetInCU: 0x17351, offset: 0x38C597, size: 0x8, addend: 0x0, symName: '__ZN4core3ptr36drop_in_place$LT$syn..path..Path$GT$17he6d0bec66d66b98aE', symObjAddr: 0x5900, symBinAddr: 0xA2FA0, symSize: 0x230 }
  - { offsetInCU: 0x17CE7, offset: 0x38CF2D, size: 0x8, addend: 0x0, symName: '__ZN4core3ptr37drop_in_place$LT$syn..stmt..Block$GT$17h3aa429e75a234230E', symObjAddr: 0x5B30, symBinAddr: 0xA31D0, symSize: 0xD0 }
  - { offsetInCU: 0x18059, offset: 0x38D29F, size: 0x8, addend: 0x0, symName: '__ZN4core3ptr38drop_in_place$LT$syn..data..Fields$GT$17h0c48fa2402a42137E', symObjAddr: 0x5C00, symBinAddr: 0xA32A0, symSize: 0x180 }
  - { offsetInCU: 0x1849F, offset: 0x38D6E5, size: 0x8, addend: 0x0, symName: '__ZN4core3ptr38drop_in_place$LT$syn..expr..Member$GT$17ha113d37a67d27aafE', symObjAddr: 0x5D80, symBinAddr: 0xA3420, symSize: 0x30 }
  - { offsetInCU: 0x185BA, offset: 0x38D800, size: 0x8, addend: 0x0, symName: '__ZN4core3ptr38drop_in_place$LT$syn..item..ItemFn$GT$17h92bc8390e1d02672E', symObjAddr: 0x5DB0, symBinAddr: 0xA3450, symSize: 0x230 }
  - { offsetInCU: 0x18E5A, offset: 0x38E0A0, size: 0x8, addend: 0x0, symName: '__ZN4core3ptr38drop_in_place$LT$syn..pat..PatType$GT$17h833e3c7992399b01E.llvm.2762174853176263616', symObjAddr: 0x5FE0, symBinAddr: 0xA3680, symSize: 0x160 }
  - { offsetInCU: 0x19522, offset: 0x38E768, size: 0x8, addend: 0x0, symName: '__ZN4core3ptr39drop_in_place$LT$proc_macro2..Group$GT$17ha95b199d42755248E', symObjAddr: 0x6140, symBinAddr: 0xA37E0, symSize: 0x60 }
  - { offsetInCU: 0x19681, offset: 0x38E8C7, size: 0x8, addend: 0x0, symName: '__ZN4core3ptr39drop_in_place$LT$proc_macro2..Ident$GT$17hdeec010483268a0dE', symObjAddr: 0x61A0, symBinAddr: 0xA3840, symSize: 0x30 }
  - { offsetInCU: 0x1977D, offset: 0x38E9C3, size: 0x8, addend: 0x0, symName: '__ZN4core3ptr39drop_in_place$LT$syn..item..ItemMod$GT$17hd095082f1c98971dE', symObjAddr: 0x61D0, symBinAddr: 0xA3870, symSize: 0x210 }
  - { offsetInCU: 0x19FB6, offset: 0x38F1FC, size: 0x8, addend: 0x0, symName: '__ZN4core3ptr39drop_in_place$LT$syn..item..ItemUse$GT$17hfee3fd59e1327e89E', symObjAddr: 0x63E0, symBinAddr: 0xA3A80, symSize: 0x150 }
  - { offsetInCU: 0x1A4B7, offset: 0x38F6FD, size: 0x8, addend: 0x0, symName: '__ZN4core3ptr39drop_in_place$LT$syn..item..UseTree$GT$17h78d4ed19b48b8cbfE', symObjAddr: 0x65A0, symBinAddr: 0xA3BD0, symSize: 0xE0 }
  - { offsetInCU: 0x1A85E, offset: 0x38FAA4, size: 0x8, addend: 0x0, symName: '__ZN4core3ptr39drop_in_place$LT$syn..pat..PatTuple$GT$17h96faeea9832d4c4bE', symObjAddr: 0x6680, symBinAddr: 0xA3CB0, symSize: 0x100 }
  - { offsetInCU: 0x1AB86, offset: 0x38FDCC, size: 0x8, addend: 0x0, symName: '__ZN4core3ptr40drop_in_place$LT$syn..item..ImplItem$GT$17hb8d8f44c0f04c0e3E', symObjAddr: 0x6780, symBinAddr: 0xA3DB0, symSize: 0x1B0 }
  - { offsetInCU: 0x1AF03, offset: 0x390149, size: 0x8, addend: 0x0, symName: '__ZN4core3ptr40drop_in_place$LT$syn..item..ItemEnum$GT$17hc99b161df783a633E', symObjAddr: 0x6930, symBinAddr: 0xA3F60, symSize: 0x250 }
  - { offsetInCU: 0x1B7D2, offset: 0x390A18, size: 0x8, addend: 0x0, symName: '__ZN4core3ptr40drop_in_place$LT$syn..item..ItemImpl$GT$17haba540031ec64537E', symObjAddr: 0x6B80, symBinAddr: 0xA41B0, symSize: 0x1E0 }
  - { offsetInCU: 0x1BF62, offset: 0x3911A8, size: 0x8, addend: 0x0, symName: '__ZN4core3ptr40drop_in_place$LT$syn..item..ItemType$GT$17hf26044957f69ac44E', symObjAddr: 0x6D60, symBinAddr: 0xA4390, symSize: 0x1C0 }
  - { offsetInCU: 0x1C63A, offset: 0x391880, size: 0x8, addend: 0x0, symName: '__ZN4core3ptr40drop_in_place$LT$syn..item..Receiver$GT$17hc8a432a931462f79E.llvm.2762174853176263616', symObjAddr: 0x6F20, symBinAddr: 0xA4550, symSize: 0x120 }
  - { offsetInCU: 0x1CAB1, offset: 0x391CF7, size: 0x8, addend: 0x0, symName: '__ZN4core3ptr40drop_in_place$LT$syn..ty..ReturnType$GT$17h6f97c9fdb958983eE', symObjAddr: 0x7050, symBinAddr: 0xA4670, symSize: 0x50 }
  - { offsetInCU: 0x1CC21, offset: 0x391E67, size: 0x8, addend: 0x0, symName: '__ZN4core3ptr41drop_in_place$LT$syn..item..ItemConst$GT$17hf37a2991989c7e8eE', symObjAddr: 0x70A0, symBinAddr: 0xA46C0, symSize: 0x1E0 }
  - { offsetInCU: 0x1D444, offset: 0x39268A, size: 0x8, addend: 0x0, symName: '__ZN4core3ptr41drop_in_place$LT$syn..item..ItemMacro$GT$17h4cf9ca59f66b14edE', symObjAddr: 0x7280, symBinAddr: 0xA48A0, symSize: 0x120 }
  - { offsetInCU: 0x1D882, offset: 0x392AC8, size: 0x8, addend: 0x0, symName: '__ZN4core3ptr41drop_in_place$LT$syn..item..ItemTrait$GT$17h2de0174f2f014913E', symObjAddr: 0x73A0, symBinAddr: 0xA49C0, symSize: 0x220 }
  - { offsetInCU: 0x1E0A7, offset: 0x3932ED, size: 0x8, addend: 0x0, symName: '__ZN4core3ptr41drop_in_place$LT$syn..item..ItemUnion$GT$17h03d15eff3b9ef21aE', symObjAddr: 0x75C0, symBinAddr: 0xA4BE0, symSize: 0x250 }
  - { offsetInCU: 0x1E930, offset: 0x393B76, size: 0x8, addend: 0x0, symName: '__ZN4core3ptr41drop_in_place$LT$syn..item..Signature$GT$17hd57cfba25994ce69E', symObjAddr: 0x7810, symBinAddr: 0xA4E30, symSize: 0x210 }
  - { offsetInCU: 0x1F20A, offset: 0x394450, size: 0x8, addend: 0x0, symName: '__ZN4core3ptr41drop_in_place$LT$syn..item..TraitItem$GT$17h4b7d90364e3eddf8E', symObjAddr: 0x7A20, symBinAddr: 0xA5040, symSize: 0x1B0 }
  - { offsetInCU: 0x1F52A, offset: 0x394770, size: 0x8, addend: 0x0, symName: '__ZN4core3ptr42drop_in_place$LT$alloc..string..String$GT$17hef974c60cd9900dbE', symObjAddr: 0x7C20, symBinAddr: 0xA51F0, symSize: 0x20 }
  - { offsetInCU: 0x1F632, offset: 0x394878, size: 0x8, addend: 0x0, symName: '__ZN4core3ptr42drop_in_place$LT$syn..data..Visibility$GT$17h27e8b6ad307fcbc7E', symObjAddr: 0x7C40, symBinAddr: 0xA5210, symSize: 0x60 }
  - { offsetInCU: 0x1F7A7, offset: 0x3949ED, size: 0x8, addend: 0x0, symName: '__ZN4core3ptr42drop_in_place$LT$syn..item..ItemMacro2$GT$17h642967b8eb4a8104E', symObjAddr: 0x7CA0, symBinAddr: 0xA5270, symSize: 0x170 }
  - { offsetInCU: 0x1FCF0, offset: 0x394F36, size: 0x8, addend: 0x0, symName: '__ZN4core3ptr42drop_in_place$LT$syn..item..ItemStatic$GT$17hc6b586b851814ed2E', symObjAddr: 0x7E10, symBinAddr: 0xA53E0, symSize: 0x1E0 }
  - { offsetInCU: 0x204F4, offset: 0x39573A, size: 0x8, addend: 0x0, symName: '__ZN4core3ptr42drop_in_place$LT$syn..item..ItemStruct$GT$17h3f822312b443c40dE', symObjAddr: 0x7FF0, symBinAddr: 0xA55C0, symSize: 0x190 }
  - { offsetInCU: 0x20A64, offset: 0x395CAA, size: 0x8, addend: 0x0, symName: '__ZN4core3ptr43drop_in_place$LT$syn..data..FieldsNamed$GT$17h73293dd81bcfeab6E', symObjAddr: 0x8180, symBinAddr: 0xA5750, symSize: 0xE0 }
  - { offsetInCU: 0x20DA5, offset: 0x395FEB, size: 0x8, addend: 0x0, symName: '__ZN4core3ptr43drop_in_place$LT$syn..item..ForeignItem$GT$17h21c815f2fbdfe296E', symObjAddr: 0x8260, symBinAddr: 0xA5830, symSize: 0x1A0 }
  - { offsetInCU: 0x210E4, offset: 0x39632A, size: 0x8, addend: 0x0, symName: '__ZN4core3ptr44drop_in_place$LT$syn..generics..Generics$GT$17he0d6eb6045503c84E', symObjAddr: 0x8400, symBinAddr: 0xA59D0, symSize: 0xA0 }
  - { offsetInCU: 0x21350, offset: 0x396596, size: 0x8, addend: 0x0, symName: '__ZN4core3ptr44drop_in_place$LT$syn..item..ImplItemType$GT$17hfa117ac59836f12aE', symObjAddr: 0x84A0, symBinAddr: 0xA5A70, symSize: 0x190 }
  - { offsetInCU: 0x21899, offset: 0x396ADF, size: 0x8, addend: 0x0, symName: '__ZN4core3ptr44drop_in_place$LT$syn..lifetime..Lifetime$GT$17h3858225df033648aE', symObjAddr: 0x8630, symBinAddr: 0xA5C00, symSize: 0x30 }
  - { offsetInCU: 0x21A11, offset: 0x396C57, size: 0x8, addend: 0x0, symName: '__ZN4core3ptr44drop_in_place$LT$syn..parse..ParseBuffer$GT$17h19c266fcccc430cbE', symObjAddr: 0x8660, symBinAddr: 0xA5C30, symSize: 0x70 }
  - { offsetInCU: 0x21D8D, offset: 0x396FD3, size: 0x8, addend: 0x0, symName: '__ZN4core3ptr45drop_in_place$LT$proc_macro2..TokenStream$GT$17h2507cb30e765dc85E', symObjAddr: 0x86D0, symBinAddr: 0xA5CA0, symSize: 0x140 }
  - { offsetInCU: 0x221E9, offset: 0x39742F, size: 0x8, addend: 0x0, symName: '__ZN4core3ptr45drop_in_place$LT$syn..item..ForeignItemFn$GT$17hac464df7ca671242E', symObjAddr: 0x8810, symBinAddr: 0xA5DE0, symSize: 0x160 }
  - { offsetInCU: 0x2267D, offset: 0x3978C3, size: 0x8, addend: 0x0, symName: '__ZN4core3ptr45drop_in_place$LT$syn..item..ImplItemConst$GT$17hcd481022683c9056E', symObjAddr: 0x8970, symBinAddr: 0xA5F40, symSize: 0x1A0 }
  - { offsetInCU: 0x22C04, offset: 0x397E4A, size: 0x8, addend: 0x0, symName: '__ZN4core3ptr45drop_in_place$LT$syn..item..TraitItemType$GT$17hff73dc4d6b73b6f1E', symObjAddr: 0x8C10, symBinAddr: 0xA60E0, symSize: 0x190 }
  - { offsetInCU: 0x23044, offset: 0x39828A, size: 0x8, addend: 0x0, symName: '__ZN4core3ptr46drop_in_place$LT$syn..item..ImplItemMethod$GT$17h81d5acf604d84d52E', symObjAddr: 0x8DA0, symBinAddr: 0xA6270, symSize: 0x230 }
  - { offsetInCU: 0x237F0, offset: 0x398A36, size: 0x8, addend: 0x0, symName: '__ZN4core3ptr46drop_in_place$LT$syn..item..ItemForeignMod$GT$17he0cb10e3a3005942E', symObjAddr: 0x8FD0, symBinAddr: 0xA64A0, symSize: 0x1C0 }
  - { offsetInCU: 0x24115, offset: 0x39935B, size: 0x8, addend: 0x0, symName: '__ZN4core3ptr46drop_in_place$LT$syn..item..ItemTraitAlias$GT$17h92af75cf6c1f4732E', symObjAddr: 0x9190, symBinAddr: 0xA6660, symSize: 0x190 }
  - { offsetInCU: 0x246B9, offset: 0x3998FF, size: 0x8, addend: 0x0, symName: '__ZN4core3ptr46drop_in_place$LT$syn..item..TraitItemConst$GT$17ha3f3e5595f870971E', symObjAddr: 0x9320, symBinAddr: 0xA67F0, symSize: 0x170 }
  - { offsetInCU: 0x24AF9, offset: 0x399D3F, size: 0x8, addend: 0x0, symName: '__ZN4core3ptr47drop_in_place$LT$syn..generics..LifetimeDef$GT$17hd04bc9e6ed9dfb47E', symObjAddr: 0x9490, symBinAddr: 0xA6960, symSize: 0x120 }
  - { offsetInCU: 0x24F16, offset: 0x39A15C, size: 0x8, addend: 0x0, symName: '__ZN4core3ptr47drop_in_place$LT$syn..item..ForeignItemType$GT$17h1c4d82a7ec021a30E', symObjAddr: 0x95B0, symBinAddr: 0xA6A80, symSize: 0x170 }
  - { offsetInCU: 0x254B8, offset: 0x39A6FE, size: 0x8, addend: 0x0, symName: '__ZN4core3ptr47drop_in_place$LT$syn..item..ItemExternCrate$GT$17h97b05889785eea32E', symObjAddr: 0x9720, symBinAddr: 0xA6BF0, symSize: 0x1A0 }
  - { offsetInCU: 0x25B58, offset: 0x39AD9E, size: 0x8, addend: 0x0, symName: '__ZN4core3ptr47drop_in_place$LT$syn..item..TraitItemMethod$GT$17h21cb304020f3ba1eE', symObjAddr: 0x98C0, symBinAddr: 0xA6D90, symSize: 0x1F0 }
  - { offsetInCU: 0x26196, offset: 0x39B3DC, size: 0x8, addend: 0x0, symName: '__ZN4core3ptr47drop_in_place$LT$syn..path..GenericArgument$GT$17h8c0a0d8c6deaefb4E', symObjAddr: 0x9AB0, symBinAddr: 0xA6F80, symSize: 0x110 }
  - { offsetInCU: 0x264B1, offset: 0x39B6F7, size: 0x8, addend: 0x0, symName: '__ZN4core3ptr49drop_in_place$LT$syn..item..ForeignItemStatic$GT$17hfe9f44f9dab5bcd1E', symObjAddr: 0x9BC0, symBinAddr: 0xA7090, symSize: 0x190 }
  - { offsetInCU: 0x26B68, offset: 0x39BDAE, size: 0x8, addend: 0x0, symName: '__ZN4core3ptr58drop_in_place$LT$alloc..vec..Vec$LT$syn..expr..Arm$GT$$GT$17hf3db0825f3d9c861E', symObjAddr: 0x9D50, symBinAddr: 0xA7220, symSize: 0xD0 }
  - { offsetInCU: 0x26E28, offset: 0x39C06E, size: 0x8, addend: 0x0, symName: '__ZN4core3ptr59drop_in_place$LT$alloc..boxed..Box$LT$syn..pat..Pat$GT$$GT$17h7037ce9bbd3729c6E', symObjAddr: 0x9E20, symBinAddr: 0xA72F0, symSize: 0x50 }
  - { offsetInCU: 0x26F81, offset: 0x39C1C7, size: 0x8, addend: 0x0, symName: '__ZN4core3ptr59drop_in_place$LT$alloc..boxed..Box$LT$syn..ty..Type$GT$$GT$17h2eccd13329dbe4faE', symObjAddr: 0x9E70, symBinAddr: 0xA7340, symSize: 0x50 }
  - { offsetInCU: 0x270DA, offset: 0x39C320, size: 0x8, addend: 0x0, symName: '__ZN4core3ptr59drop_in_place$LT$alloc..vec..Vec$LT$syn..item..Item$GT$$GT$17h544d8e20d05b2f97E', symObjAddr: 0x9EC0, symBinAddr: 0xA7390, symSize: 0xD0 }
  - { offsetInCU: 0x2739A, offset: 0x39C5E0, size: 0x8, addend: 0x0, symName: '__ZN4core3ptr59drop_in_place$LT$alloc..vec..Vec$LT$syn..stmt..Stmt$GT$$GT$17hed4646381107e302E', symObjAddr: 0x9F90, symBinAddr: 0xA7460, symSize: 0xD0 }
  - { offsetInCU: 0x2765A, offset: 0x39C8A0, size: 0x8, addend: 0x0, symName: '__ZN4core3ptr61drop_in_place$LT$alloc..boxed..Box$LT$syn..expr..Expr$GT$$GT$17h66094ddc89015516E', symObjAddr: 0xA060, symBinAddr: 0xA7530, symSize: 0x50 }
  - { offsetInCU: 0x2782F, offset: 0x39CA75, size: 0x8, addend: 0x0, symName: '__ZN4core3ptr61drop_in_place$LT$syn..path..ParenthesizedGenericArguments$GT$17h21be9b1d7a6fab55E', symObjAddr: 0xA120, symBinAddr: 0xA7580, symSize: 0x170 }
  - { offsetInCU: 0x27E25, offset: 0x39D06B, size: 0x8, addend: 0x0, symName: '__ZN4core3ptr62drop_in_place$LT$alloc..boxed..Box$LT$syn..stmt..Block$GT$$GT$17h0633c21446a415f4E', symObjAddr: 0xA290, symBinAddr: 0xA76F0, symSize: 0xE0 }
  - { offsetInCU: 0x28237, offset: 0x39D47D, size: 0x8, addend: 0x0, symName: '__ZN4core3ptr63drop_in_place$LT$alloc..boxed..Box$LT$syn..lit..LitRepr$GT$$GT$17h9c509b794406150eE', symObjAddr: 0xA370, symBinAddr: 0xA77D0, symSize: 0x60 }
  - { offsetInCU: 0x28500, offset: 0x39D746, size: 0x8, addend: 0x0, symName: '__ZN4core3ptr63drop_in_place$LT$alloc..vec..Vec$LT$syn..item..ImplItem$GT$$GT$17ha4d5b54edb0d5cb7E', symObjAddr: 0xA3D0, symBinAddr: 0xA7830, symSize: 0x80 }
  - { offsetInCU: 0x287D7, offset: 0x39DA1D, size: 0x8, addend: 0x0, symName: '__ZN4core3ptr64drop_in_place$LT$alloc..boxed..Box$LT$syn..item..UseTree$GT$$GT$17h2fbb30105f88b737E', symObjAddr: 0xA450, symBinAddr: 0xA78B0, symSize: 0x100 }
  - { offsetInCU: 0x28D24, offset: 0x39DF6A, size: 0x8, addend: 0x0, symName: '__ZN4core3ptr64drop_in_place$LT$alloc..boxed..Box$LT$syn..pat..FieldPat$GT$$GT$17hb167b355d0d4733fE', symObjAddr: 0xA550, symBinAddr: 0xA79B0, symSize: 0x180 }
  - { offsetInCU: 0x29441, offset: 0x39E687, size: 0x8, addend: 0x0, symName: '__ZN4core3ptr64drop_in_place$LT$alloc..boxed..Box$LT$syn..ty..BareFnArg$GT$$GT$17h6488be9448346678E', symObjAddr: 0xA6D0, symBinAddr: 0xA7B30, symSize: 0x160 }
  - { offsetInCU: 0x299D7, offset: 0x39EC1D, size: 0x8, addend: 0x0, symName: '__ZN4core3ptr64drop_in_place$LT$alloc..vec..Vec$LT$syn..attr..Attribute$GT$$GT$17h386324d8ea9bc309E.llvm.2762174853176263616', symObjAddr: 0xA830, symBinAddr: 0xA7C90, symSize: 0xF0 }
  - { offsetInCU: 0x29CCD, offset: 0x39EF13, size: 0x8, addend: 0x0, symName: '__ZN4core3ptr64drop_in_place$LT$alloc..vec..Vec$LT$syn..item..TraitItem$GT$$GT$17h0ef3c4b7ce592e9eE', symObjAddr: 0xA920, symBinAddr: 0xA7D80, symSize: 0x80 }
  - { offsetInCU: 0x29F85, offset: 0x39F1CB, size: 0x8, addend: 0x0, symName: '__ZN4core3ptr65drop_in_place$LT$alloc..vec..Vec$LT$proc_macro..TokenTree$GT$$GT$17hc3670dd5608d5259E', symObjAddr: 0xA9A0, symBinAddr: 0xA7E00, symSize: 0x110 }
  - { offsetInCU: 0x2A37D, offset: 0x39F5C3, size: 0x8, addend: 0x0, symName: '__ZN4core3ptr65drop_in_place$LT$core..option..Option$LT$syn..expr..Label$GT$$GT$17ha723640fd01bec5dE', symObjAddr: 0xAAB0, symBinAddr: 0xA7F10, symSize: 0x30 }
  - { offsetInCU: 0x2A4B7, offset: 0x39F6FD, size: 0x8, addend: 0x0, symName: '__ZN4core3ptr65drop_in_place$LT$core..option..Option$LT$syn..stmt..Block$GT$$GT$17hdff81fd7cb2986caE', symObjAddr: 0xAAE0, symBinAddr: 0xA7F40, symSize: 0xD0 }
  - { offsetInCU: 0x2A78C, offset: 0x39F9D2, size: 0x8, addend: 0x0, symName: '__ZN4core3ptr66drop_in_place$LT$alloc..vec..Vec$LT$syn..item..ForeignItem$GT$$GT$17hc5d281d65e9f4398E', symObjAddr: 0xABB0, symBinAddr: 0xA8010, symSize: 0x80 }
  - { offsetInCU: 0x2AA44, offset: 0x39FC8A, size: 0x8, addend: 0x0, symName: '__ZN4core3ptr66drop_in_place$LT$core..option..Option$LT$syn..ty..Variadic$GT$$GT$17hc32134bb3933b0dfE', symObjAddr: 0xAC30, symBinAddr: 0xA8090, symSize: 0xF0 }
  - { offsetInCU: 0x2AD6E, offset: 0x39FFB4, size: 0x8, addend: 0x0, symName: '__ZN4core3ptr67drop_in_place$LT$alloc..boxed..Box$LT$syn..expr..FieldValue$GT$$GT$17h8df780aa600ea8c2E', symObjAddr: 0xAD20, symBinAddr: 0xA8180, symSize: 0x160 }
  - { offsetInCU: 0x2B2E4, offset: 0x3A052A, size: 0x8, addend: 0x0, symName: '__ZN4core3ptr67drop_in_place$LT$core..option..Option$LT$proc_macro2..Ident$GT$$GT$17h67578850954384a1E', symObjAddr: 0xAE80, symBinAddr: 0xA82E0, symSize: 0x30 }
  - { offsetInCU: 0x2B3FF, offset: 0x3A0645, size: 0x8, addend: 0x0, symName: '__ZN4core3ptr68drop_in_place$LT$alloc..boxed..Box$LT$syn..path..PathSegment$GT$$GT$17h1957b54eed39c0bbE', symObjAddr: 0xAEB0, symBinAddr: 0xA8310, symSize: 0x190 }
  - { offsetInCU: 0x2BB28, offset: 0x3A0D6E, size: 0x8, addend: 0x0, symName: '__ZN4core3ptr72drop_in_place$LT$alloc..boxed..Box$LT$syn..path..GenericArgument$GT$$GT$17ha8f8136d0c2b505bE', symObjAddr: 0xB040, symBinAddr: 0xA84A0, symSize: 0x180 }
  - { offsetInCU: 0x2C1C8, offset: 0x3A140E, size: 0x8, addend: 0x0, symName: '__ZN4core3ptr72drop_in_place$LT$core..option..Option$LT$syn..lifetime..Lifetime$GT$$GT$17h31b55b93749c174dE', symObjAddr: 0xB1C0, symBinAddr: 0xA8620, symSize: 0x30 }
  - { offsetInCU: 0x2C2E3, offset: 0x3A1529, size: 0x8, addend: 0x0, symName: '__ZN4core3ptr75drop_in_place$LT$alloc..boxed..Box$LT$syn..generics..TypeParamBound$GT$$GT$17h8f156ce07ea0b8b2E', symObjAddr: 0xB1F0, symBinAddr: 0xA8650, symSize: 0x140 }
  - { offsetInCU: 0x2C8BA, offset: 0x3A1B00, size: 0x8, addend: 0x0, symName: '__ZN4core3ptr75drop_in_place$LT$core..option..Option$LT$syn..generics..WhereClause$GT$$GT$17h9a6b9b305741da86E', symObjAddr: 0xB330, symBinAddr: 0xA8790, symSize: 0xF0 }
  - { offsetInCU: 0x2CBDC, offset: 0x3A1E22, size: 0x8, addend: 0x0, symName: '__ZN4core3ptr78drop_in_place$LT$alloc..boxed..Box$LT$syn..expr..GenericMethodArgument$GT$$GT$17h3384c00b5bd54c2aE', symObjAddr: 0xB420, symBinAddr: 0xA8880, symSize: 0x60 }
  - { offsetInCU: 0x2CDED, offset: 0x3A2033, size: 0x8, addend: 0x0, symName: '__ZN4core3ptr78drop_in_place$LT$core..option..Option$LT$syn..generics..BoundLifetimes$GT$$GT$17h8175e66ad0c4a156E', symObjAddr: 0xB480, symBinAddr: 0xA88E0, symSize: 0x120 }
  - { offsetInCU: 0x2D2B2, offset: 0x3A24F8, size: 0x8, addend: 0x0, symName: '__ZN4core3ptr86drop_in_place$LT$syn..punctuated..Punctuated$LT$syn..pat..Pat$C$syn..token..Or$GT$$GT$17h1078c5d178d382b7E', symObjAddr: 0xB5A0, symBinAddr: 0xA8A00, symSize: 0x120 }
  - { offsetInCU: 0x2D72D, offset: 0x3A2973, size: 0x8, addend: 0x0, symName: '__ZN4core3ptr87drop_in_place$LT$core..option..Option$LT$alloc..boxed..Box$LT$syn..pat..Pat$GT$$GT$$GT$17ha7f5fe0e6f73e820E', symObjAddr: 0xB6E0, symBinAddr: 0xA8B20, symSize: 0x50 }
  - { offsetInCU: 0x2D89D, offset: 0x3A2AE3, size: 0x8, addend: 0x0, symName: '__ZN4core3ptr87drop_in_place$LT$core..option..Option$LT$alloc..boxed..Box$LT$syn..ty..Type$GT$$GT$$GT$17hc8292da82d129de3E', symObjAddr: 0xB730, symBinAddr: 0xA8B70, symSize: 0x50 }
  - { offsetInCU: 0x2DA0D, offset: 0x3A2C53, size: 0x8, addend: 0x0, symName: '__ZN4core3ptr89drop_in_place$LT$core..option..Option$LT$alloc..boxed..Box$LT$syn..expr..Expr$GT$$GT$$GT$17hdc211ccd33f196f2E', symObjAddr: 0xB7A0, symBinAddr: 0xA8BC0, symSize: 0x50 }
  - { offsetInCU: 0x2DBBB, offset: 0x3A2E01, size: 0x8, addend: 0x0, symName: '__ZN4core3ptr89drop_in_place$LT$syn..punctuated..Punctuated$LT$syn..pat..Pat$C$syn..token..Comma$GT$$GT$17hf8371102b0500adcE', symObjAddr: 0xB7F0, symBinAddr: 0xA8C10, symSize: 0x120 }
  - { offsetInCU: 0x2E04D, offset: 0x3A3293, size: 0x8, addend: 0x0, symName: '__ZN4core3ptr89drop_in_place$LT$syn..punctuated..Punctuated$LT$syn..ty..Type$C$syn..token..Comma$GT$$GT$17h1c6e43341fabea97E', symObjAddr: 0xB910, symBinAddr: 0xA8D30, symSize: 0x120 }
  - { offsetInCU: 0x2E506, offset: 0x3A374C, size: 0x8, addend: 0x0, symName: '__ZN4core3ptr90drop_in_place$LT$core..option..Option$LT$alloc..boxed..Box$LT$syn..data..Field$GT$$GT$$GT$17he146e9f4e32c136fE', symObjAddr: 0xBA30, symBinAddr: 0xA8E50, symSize: 0x1C0 }
  - { offsetInCU: 0x2EC0A, offset: 0x3A3E50, size: 0x8, addend: 0x0, symName: '__ZN4core3ptr90drop_in_place$LT$core..option..Option$LT$alloc..boxed..Box$LT$syn..item..FnArg$GT$$GT$$GT$17ha72e545cf6ea6548E', symObjAddr: 0xBBF0, symBinAddr: 0xA9010, symSize: 0x70 }
  - { offsetInCU: 0x2EDC2, offset: 0x3A4008, size: 0x8, addend: 0x0, symName: '__ZN4core3ptr91drop_in_place$LT$syn..punctuated..Punctuated$LT$syn..expr..Expr$C$syn..token..Comma$GT$$GT$17hd2dfeb0c522d9a18E', symObjAddr: 0xBC60, symBinAddr: 0xA9080, symSize: 0x120 }
  - { offsetInCU: 0x2F250, offset: 0x3A4496, size: 0x8, addend: 0x0, symName: '__ZN4core3ptr92drop_in_place$LT$core..option..Option$LT$$LP$syn..token..As$C$proc_macro2..Ident$RP$$GT$$GT$17hdb8e08992a006501E', symObjAddr: 0xBD80, symBinAddr: 0xA91A0, symSize: 0x30 }
  - { offsetInCU: 0x2F3A9, offset: 0x3A45EF, size: 0x8, addend: 0x0, symName: '__ZN4core3ptr92drop_in_place$LT$core..option..Option$LT$alloc..boxed..Box$LT$syn..data..Variant$GT$$GT$$GT$17h9c9c8f3c1dc56a70E', symObjAddr: 0xBDB0, symBinAddr: 0xA91D0, symSize: 0x1A0 }
  - { offsetInCU: 0x2F9CD, offset: 0x3A4C13, size: 0x8, addend: 0x0, symName: '__ZN4core3ptr92drop_in_place$LT$syn..punctuated..Punctuated$LT$syn..item..FnArg$C$syn..token..Comma$GT$$GT$17h3049a14d789de61dE', symObjAddr: 0xBF50, symBinAddr: 0xA9370, symSize: 0x140 }
  - { offsetInCU: 0x2FE4A, offset: 0x3A5090, size: 0x8, addend: 0x0, symName: '__ZN4core3ptr94drop_in_place$LT$syn..punctuated..Punctuated$LT$syn..data..Variant$C$syn..token..Comma$GT$$GT$17hb4480d65f74dc9d7E', symObjAddr: 0xC090, symBinAddr: 0xA94B0, symSize: 0xE0 }
  - { offsetInCU: 0x301AA, offset: 0x3A53F0, size: 0x8, addend: 0x0, symName: '__ZN4core3ptr94drop_in_place$LT$syn..punctuated..Punctuated$LT$syn..item..UseTree$C$syn..token..Comma$GT$$GT$17ha837d38586774c87E', symObjAddr: 0xC170, symBinAddr: 0xA9590, symSize: 0xF0 }
  - { offsetInCU: 0x304EC, offset: 0x3A5732, size: 0x8, addend: 0x0, symName: '__ZN4core3ptr94drop_in_place$LT$syn..punctuated..Punctuated$LT$syn..pat..FieldPat$C$syn..token..Comma$GT$$GT$17h612cbc9066d5afb1E', symObjAddr: 0xC260, symBinAddr: 0xA9680, symSize: 0xF0 }
  - { offsetInCU: 0x307EB, offset: 0x3A5A31, size: 0x8, addend: 0x0, symName: '__ZN4core3ptr94drop_in_place$LT$syn..punctuated..Punctuated$LT$syn..ty..BareFnArg$C$syn..token..Comma$GT$$GT$17ha9a668ce9972795bE', symObjAddr: 0xC350, symBinAddr: 0xA9770, symSize: 0xF0 }
  - { offsetInCU: 0x30AE8, offset: 0x3A5D2E, size: 0x8, addend: 0x0, symName: '__ZN4core3ptr96drop_in_place$LT$core..option..Option$LT$alloc..boxed..Box$LT$syn..path..PathSegment$GT$$GT$$GT$17h2e81cbe3c70bb71cE', symObjAddr: 0xC440, symBinAddr: 0xA9860, symSize: 0x180 }
  - { offsetInCU: 0x311A5, offset: 0x3A63EB, size: 0x8, addend: 0x0, symName: '__ZN4core3ptr97drop_in_place$LT$syn..punctuated..Punctuated$LT$syn..expr..FieldValue$C$syn..token..Comma$GT$$GT$17h11a5fffb46adfb11E', symObjAddr: 0xC5C0, symBinAddr: 0xA99E0, symSize: 0xF0 }
  - { offsetInCU: 0x3151E, offset: 0x3A6764, size: 0x8, addend: 0x0, symName: '__ZN4core3ptr97drop_in_place$LT$syn..punctuated..Punctuated$LT$syn..lifetime..Lifetime$C$syn..token..Add$GT$$GT$17h5c54dea2c838d109E', symObjAddr: 0xC6B0, symBinAddr: 0xA9AD0, symSize: 0xD0 }
  - { offsetInCU: 0x32282, offset: 0x3A74C8, size: 0x8, addend: 0x0, symName: '__ZN53_$LT$core..fmt..Error$u20$as$u20$core..fmt..Debug$GT$3fmt17h03dc662ab152f3aeE', symObjAddr: 0xC7D0, symBinAddr: 0xA9BA0, symSize: 0x20 }
  - { offsetInCU: 0x39A3C, offset: 0x3AEC82, size: 0x8, addend: 0x0, symName: '__ZN48_$LT$T$u20$as$u20$core..clone..CloneToUninit$GT$15clone_to_uninit17h1e72921f8281f1fbE', symObjAddr: 0x240, symBinAddr: 0x9D9A0, symSize: 0x330 }
  - { offsetInCU: 0x4160C, offset: 0x3B6852, size: 0x8, addend: 0x0, symName: '__ZN3syn4item7parsing63_$LT$impl$u20$syn..parse..Parse$u20$for$u20$syn..item..Item$GT$5parse17hd5092b6f019cd3c8E', symObjAddr: 0xD550, symBinAddr: 0xA9F90, symSize: 0x48A0 }
  - { offsetInCU: 0x4F833, offset: 0x3C4A79, size: 0x8, addend: 0x0, symName: '__ZN3syn4item7parsing68_$LT$impl$u20$syn..parse..Parse$u20$for$u20$syn..item..ItemMacro$GT$5parse17h31dd6e83a6883425E', symObjAddr: 0x11DF0, symBinAddr: 0xAE830, symSize: 0x620 }
  - { offsetInCU: 0x502D0, offset: 0x3C5516, size: 0x8, addend: 0x0, symName: '__ZN3syn4item7parsing69_$LT$impl$u20$syn..parse..Parse$u20$for$u20$syn..item..ItemMacro2$GT$5parse17hcf95eda47eb68e7aE', symObjAddr: 0x12410, symBinAddr: 0xAEE50, symSize: 0xC30 }
  - { offsetInCU: 0x520B6, offset: 0x3C72FC, size: 0x8, addend: 0x0, symName: '__ZN3syn4item7parsing74_$LT$impl$u20$syn..parse..Parse$u20$for$u20$syn..item..ItemExternCrate$GT$5parse17hae0345cc168adf0eE', symObjAddr: 0x13040, symBinAddr: 0xAFA80, symSize: 0x930 }
  - { offsetInCU: 0x5341F, offset: 0x3C8665, size: 0x8, addend: 0x0, symName: '__ZN3syn4item7parsing66_$LT$impl$u20$syn..parse..Parse$u20$for$u20$syn..item..ItemUse$GT$5parse17h5d348ec602c9bbe4E', symObjAddr: 0x13970, symBinAddr: 0xB03B0, symSize: 0x800 }
  - { offsetInCU: 0x53F1E, offset: 0x3C9164, size: 0x8, addend: 0x0, symName: '__ZN3syn4item7parsing66_$LT$impl$u20$syn..parse..Parse$u20$for$u20$syn..item..UseTree$GT$5parse17hf6a79245528f6b50E', symObjAddr: 0x14170, symBinAddr: 0xB0BB0, symSize: 0xA90 }
  - { offsetInCU: 0x5641E, offset: 0x3CB664, size: 0x8, addend: 0x0, symName: '__ZN3syn4item7parsing68_$LT$impl$u20$syn..parse..Parse$u20$for$u20$syn..item..Signature$GT$5parse17h48c646b2b2858734E', symObjAddr: 0x16420, symBinAddr: 0xB1640, symSize: 0x9D0 }
  - { offsetInCU: 0x573FD, offset: 0x3CC643, size: 0x8, addend: 0x0, symName: '__ZN3syn4item7parsing64_$LT$impl$u20$syn..parse..Parse$u20$for$u20$syn..item..FnArg$GT$5parse17h6d8e7150f511bd86E', symObjAddr: 0x17130, symBinAddr: 0xB2010, symSize: 0x710 }
  - { offsetInCU: 0x588F9, offset: 0x3CDB3F, size: 0x8, addend: 0x0, symName: '__ZN3syn4item7parsing67_$LT$impl$u20$syn..parse..Parse$u20$for$u20$syn..item..Receiver$GT$5parse17h7c57eea315a0342bE', symObjAddr: 0x17840, symBinAddr: 0xB2720, symSize: 0x420 }
  - { offsetInCU: 0x58F23, offset: 0x3CE169, size: 0x8, addend: 0x0, symName: '__ZN3syn4item7parsing66_$LT$impl$u20$syn..parse..Parse$u20$for$u20$syn..item..ItemMod$GT$5parse17h7fe32aa4c994dc9bE', symObjAddr: 0x17C60, symBinAddr: 0xB2B40, symSize: 0xC90 }
  - { offsetInCU: 0x5ABAE, offset: 0x3CFDF4, size: 0x8, addend: 0x0, symName: '__ZN3syn4item7parsing73_$LT$impl$u20$syn..parse..Parse$u20$for$u20$syn..item..ItemForeignMod$GT$5parse17hcca74002a17b2fcbE', symObjAddr: 0x188F0, symBinAddr: 0xB37D0, symSize: 0x670 }
  - { offsetInCU: 0x5C07E, offset: 0x3D12C4, size: 0x8, addend: 0x0, symName: '__ZN3syn4item7parsing70_$LT$impl$u20$syn..parse..Parse$u20$for$u20$syn..item..ForeignItem$GT$5parse17h24f40baa602f1278E', symObjAddr: 0x18F60, symBinAddr: 0xB3E40, symSize: 0x1B10 }
  - { offsetInCU: 0x607B1, offset: 0x3D59F7, size: 0x8, addend: 0x0, symName: '__ZN3syn4item7parsing69_$LT$impl$u20$syn..parse..Parse$u20$for$u20$syn..item..ItemStruct$GT$5parse17he3cfb27f1405a441E', symObjAddr: 0x1C9C0, symBinAddr: 0xB5950, symSize: 0x700 }
  - { offsetInCU: 0x612A4, offset: 0x3D64EA, size: 0x8, addend: 0x0, symName: '__ZN3syn4item7parsing67_$LT$impl$u20$syn..parse..Parse$u20$for$u20$syn..item..ItemEnum$GT$5parse17hb2912ec4b9be8655E', symObjAddr: 0x1D0C0, symBinAddr: 0xB6050, symSize: 0x700 }
  - { offsetInCU: 0x61D9B, offset: 0x3D6FE1, size: 0x8, addend: 0x0, symName: '__ZN3syn4item7parsing68_$LT$impl$u20$syn..parse..Parse$u20$for$u20$syn..item..ItemUnion$GT$5parse17hc3f05c1ec1b84162E', symObjAddr: 0x1D7C0, symBinAddr: 0xB6750, symSize: 0x700 }
  - { offsetInCU: 0x62883, offset: 0x3D7AC9, size: 0x8, addend: 0x0, symName: '__ZN3syn4item7parsing68_$LT$impl$u20$syn..parse..Parse$u20$for$u20$syn..item..ItemTrait$GT$5parse17h99b2153937d5d77aE', symObjAddr: 0x1DEC0, symBinAddr: 0xB6E50, symSize: 0x640 }
  - { offsetInCU: 0x635B1, offset: 0x3D87F7, size: 0x8, addend: 0x0, symName: '__ZN3syn4item7parsing68_$LT$impl$u20$syn..parse..Parse$u20$for$u20$syn..item..TraitItem$GT$5parse17h4e734d2779733d06E', symObjAddr: 0x1E650, symBinAddr: 0xB7490, symSize: 0x14D0 }
  - { offsetInCU: 0x68932, offset: 0x3DDB78, size: 0x8, addend: 0x0, symName: '__ZN3syn4item7parsing73_$LT$impl$u20$syn..parse..Parse$u20$for$u20$syn..item..TraitItemConst$GT$5parse17h1b0135dfda89c9c6E', symObjAddr: 0x1FB20, symBinAddr: 0xB8960, symSize: 0xAC0 }
  - { offsetInCU: 0x6A597, offset: 0x3DF7DD, size: 0x8, addend: 0x0, symName: '__ZN3syn4item7parsing74_$LT$impl$u20$syn..parse..Parse$u20$for$u20$syn..item..TraitItemMethod$GT$5parse17hc56523647cfaf282E', symObjAddr: 0x205E0, symBinAddr: 0xB9420, symSize: 0x7F0 }
  - { offsetInCU: 0x6BBE1, offset: 0x3E0E27, size: 0x8, addend: 0x0, symName: '__ZN3syn4item7parsing67_$LT$impl$u20$syn..parse..Parse$u20$for$u20$syn..item..ImplItem$GT$5parse17hd0abc4995f0e27e6E', symObjAddr: 0x218C0, symBinAddr: 0xB9C10, symSize: 0x1CE0 }
  - { offsetInCU: 0x717C3, offset: 0x3E6A09, size: 0x8, addend: 0x0, symName: '__ZN3syn4item7parsing73_$LT$impl$u20$syn..parse..Parse$u20$for$u20$syn..item..ImplItemMethod$GT$5parse17h40b89290a7d05ae0E', symObjAddr: 0x243E0, symBinAddr: 0xBB8F0, symSize: 0x7B0 }
  - { offsetInCU: 0x72729, offset: 0x3E796F, size: 0x8, addend: 0x0, symName: '__ZN3syn4item7parsing72_$LT$impl$u20$syn..parse..Parse$u20$for$u20$syn..item..ImplItemMacro$GT$5parse17h684a98d429e3ccb0E', symObjAddr: 0x25480, symBinAddr: 0xBC0A0, symSize: 0x0 }
  - { offsetInCU: 0x72CA5, offset: 0x3E7EEB, size: 0x8, addend: 0x0, symName: '__ZN3syn4item8printing83_$LT$impl$u20$quote..to_tokens..ToTokens$u20$for$u20$syn..item..ItemExternCrate$GT$9to_tokens17h7f9bd73caf323e58E', symObjAddr: 0x257D0, symBinAddr: 0xBC3F0, symSize: 0x250 }
  - { offsetInCU: 0x732CA, offset: 0x3E8510, size: 0x8, addend: 0x0, symName: '__ZN3syn4item8printing78_$LT$impl$u20$quote..to_tokens..ToTokens$u20$for$u20$syn..item..ItemStatic$GT$9to_tokens17h08058ed00f2b3dddE', symObjAddr: 0x25BB0, symBinAddr: 0xBC640, symSize: 0x230 }
  - { offsetInCU: 0x738FB, offset: 0x3E8B41, size: 0x8, addend: 0x0, symName: '__ZN3syn4item8printing75_$LT$impl$u20$quote..to_tokens..ToTokens$u20$for$u20$syn..item..ItemMod$GT$9to_tokens17hc86d6254ff17a890E', symObjAddr: 0x260B0, symBinAddr: 0xBC870, symSize: 0x1D0 }
  - { offsetInCU: 0x73D5E, offset: 0x3E8FA4, size: 0x8, addend: 0x0, symName: '__ZN3syn4item8printing76_$LT$impl$u20$quote..to_tokens..ToTokens$u20$for$u20$syn..item..ItemType$GT$9to_tokens17hb83cbc1a01934084E', symObjAddr: 0x263F0, symBinAddr: 0xBCA40, symSize: 0x1D0 }
  - { offsetInCU: 0x74183, offset: 0x3E93C9, size: 0x8, addend: 0x0, symName: '__ZN3syn4item8printing76_$LT$impl$u20$quote..to_tokens..ToTokens$u20$for$u20$syn..item..ItemEnum$GT$9to_tokens17h842d495a33b205f9E', symObjAddr: 0x265C0, symBinAddr: 0xBCC10, symSize: 0x1A0 }
  - { offsetInCU: 0x74520, offset: 0x3E9766, size: 0x8, addend: 0x0, symName: '__ZN3syn4item8printing78_$LT$impl$u20$quote..to_tokens..ToTokens$u20$for$u20$syn..item..ItemStruct$GT$9to_tokens17h10e0d38d73f156efE', symObjAddr: 0x26760, symBinAddr: 0xBCDB0, symSize: 0x230 }
  - { offsetInCU: 0x74A45, offset: 0x3E9C8B, size: 0x8, addend: 0x0, symName: '__ZN3syn4item8printing77_$LT$impl$u20$quote..to_tokens..ToTokens$u20$for$u20$syn..item..ItemUnion$GT$9to_tokens17h21c08048e1f3d099E', symObjAddr: 0x26990, symBinAddr: 0xBCFE0, symSize: 0x1A0 }
  - { offsetInCU: 0x74E52, offset: 0x3EA098, size: 0x8, addend: 0x0, symName: '__ZN3syn4item8printing77_$LT$impl$u20$quote..to_tokens..ToTokens$u20$for$u20$syn..item..ItemTrait$GT$9to_tokens17h0ddcf38549076bc2E', symObjAddr: 0x26B30, symBinAddr: 0xBD180, symSize: 0x310 }
  - { offsetInCU: 0x75763, offset: 0x3EA9A9, size: 0x8, addend: 0x0, symName: '__ZN3syn4item8printing82_$LT$impl$u20$quote..to_tokens..ToTokens$u20$for$u20$syn..item..ItemTraitAlias$GT$9to_tokens17hf80e15e3335a9024E', symObjAddr: 0x26E40, symBinAddr: 0xBD490, symSize: 0x1F0 }
  - { offsetInCU: 0x75D07, offset: 0x3EAF4D, size: 0x8, addend: 0x0, symName: '__ZN3syn4item8printing76_$LT$impl$u20$quote..to_tokens..ToTokens$u20$for$u20$syn..item..ItemImpl$GT$9to_tokens17h30df070e852a5931E', symObjAddr: 0x27030, symBinAddr: 0xBD680, symSize: 0x360 }
  - { offsetInCU: 0x7662F, offset: 0x3EB875, size: 0x8, addend: 0x0, symName: '__ZN3syn4item8printing77_$LT$impl$u20$quote..to_tokens..ToTokens$u20$for$u20$syn..item..ItemMacro$GT$9to_tokens17h481af589de6f9dcbE', symObjAddr: 0x27390, symBinAddr: 0xBD9E0, symSize: 0x1D0 }
  - { offsetInCU: 0x76B8E, offset: 0x3EBDD4, size: 0x8, addend: 0x0, symName: '__ZN3syn4item8printing82_$LT$impl$u20$quote..to_tokens..ToTokens$u20$for$u20$syn..item..TraitItemConst$GT$9to_tokens17h48ef6e80aa5ee690E', symObjAddr: 0x27820, symBinAddr: 0xBDBB0, symSize: 0x1E0 }
  - { offsetInCU: 0x76FF2, offset: 0x3EC238, size: 0x8, addend: 0x0, symName: '__ZN3syn4item8printing81_$LT$impl$u20$quote..to_tokens..ToTokens$u20$for$u20$syn..item..TraitItemType$GT$9to_tokens17ha773e15de198d60bE', symObjAddr: 0x27B60, symBinAddr: 0xBDD90, symSize: 0x290 }
  - { offsetInCU: 0x77692, offset: 0x3EC8D8, size: 0x8, addend: 0x0, symName: '__ZN3syn4item8printing81_$LT$impl$u20$quote..to_tokens..ToTokens$u20$for$u20$syn..item..ImplItemConst$GT$9to_tokens17h93720e24ccbf6f9aE', symObjAddr: 0x27DF0, symBinAddr: 0xBE020, symSize: 0x250 }
  - { offsetInCU: 0x77BD9, offset: 0x3ECE1F, size: 0x8, addend: 0x0, symName: '__ZN3syn4item8printing82_$LT$impl$u20$quote..to_tokens..ToTokens$u20$for$u20$syn..item..ImplItemMethod$GT$9to_tokens17h6dcd8d204ee3d041E', symObjAddr: 0x28040, symBinAddr: 0xBE270, symSize: 0x2C0 }
  - { offsetInCU: 0x78507, offset: 0x3ED74D, size: 0x8, addend: 0x0, symName: '__ZN3syn4item8printing80_$LT$impl$u20$quote..to_tokens..ToTokens$u20$for$u20$syn..item..ImplItemType$GT$9to_tokens17h10f82f78812ca34bE', symObjAddr: 0x28300, symBinAddr: 0xBE530, symSize: 0x240 }
  - { offsetInCU: 0x78AA5, offset: 0x3EDCEB, size: 0x8, addend: 0x0, symName: '__ZN3syn4item8printing85_$LT$impl$u20$quote..to_tokens..ToTokens$u20$for$u20$syn..item..ForeignItemStatic$GT$9to_tokens17heca0d869ed2edd6aE', symObjAddr: 0x28760, symBinAddr: 0xBE770, symSize: 0x210 }
  - { offsetInCU: 0x79030, offset: 0x3EE276, size: 0x8, addend: 0x0, symName: '__ZN3syn4item8printing77_$LT$impl$u20$quote..to_tokens..ToTokens$u20$for$u20$syn..item..Signature$GT$9to_tokens17hd3d401bd2710c1d3E', symObjAddr: 0x28AE0, symBinAddr: 0xBE980, symSize: 0x340 }
  - { offsetInCU: 0x79832, offset: 0x3EEA78, size: 0x8, addend: 0x0, symName: '__ZN3syn4item8printing76_$LT$impl$u20$quote..to_tokens..ToTokens$u20$for$u20$syn..item..Receiver$GT$9to_tokens17h7bfe4f0f0a2e4435E', symObjAddr: 0x28E20, symBinAddr: 0xBECC0, symSize: 0x220 }
  - { offsetInCU: 0x79EE9, offset: 0x3EF12F, size: 0x8, addend: 0x0, symName: '__ZN62_$LT$syn..item..Item$u20$as$u20$quote..to_tokens..ToTokens$GT$9to_tokens17hcfb6fa0e89cea6efE', symObjAddr: 0x29040, symBinAddr: 0xBEEE0, symSize: 0x810 }
  - { offsetInCU: 0x7B249, offset: 0x3F048F, size: 0x8, addend: 0x0, symName: '__ZN65_$LT$syn..item..UseTree$u20$as$u20$quote..to_tokens..ToTokens$GT$9to_tokens17h73b4f1c675b83d74E', symObjAddr: 0x29850, symBinAddr: 0xBF6F0, symSize: 0x180 }
  - { offsetInCU: 0x7B564, offset: 0x3F07AA, size: 0x8, addend: 0x0, symName: '__ZN69_$LT$syn..item..ForeignItem$u20$as$u20$quote..to_tokens..ToTokens$GT$9to_tokens17h5811b213ecf647c3E', symObjAddr: 0x299D0, symBinAddr: 0xBF870, symSize: 0x350 }
  - { offsetInCU: 0x7BE45, offset: 0x3F108B, size: 0x8, addend: 0x0, symName: '__ZN67_$LT$syn..item..TraitItem$u20$as$u20$quote..to_tokens..ToTokens$GT$9to_tokens17he9bf5a11f5abb64eE', symObjAddr: 0x29D20, symBinAddr: 0xBFBC0, symSize: 0x2E0 }
  - { offsetInCU: 0x7C4E8, offset: 0x3F172E, size: 0x8, addend: 0x0, symName: '__ZN66_$LT$syn..item..ImplItem$u20$as$u20$quote..to_tokens..ToTokens$GT$9to_tokens17hc241889665e48d04E', symObjAddr: 0x2A000, symBinAddr: 0xBFEA0, symSize: 0x1B0 }
  - { offsetInCU: 0x7CF94, offset: 0x3F21DA, size: 0x8, addend: 0x0, symName: '__ZN3syn3gen5clone67_$LT$impl$u20$core..clone..Clone$u20$for$u20$syn..item..UseTree$GT$5clone17h8f561418b2b5e44fE', symObjAddr: 0x2EE50, symBinAddr: 0xC4520, symSize: 0x290 }
  - { offsetInCU: 0x7D89F, offset: 0x3F2AE5, size: 0x8, addend: 0x0, symName: '__ZN3syn3gen5clone65_$LT$impl$u20$core..clone..Clone$u20$for$u20$syn..item..FnArg$GT$5clone17h66f8181604bce7dcE', symObjAddr: 0x2A3F0, symBinAddr: 0xC0050, symSize: 0x100 }
  - { offsetInCU: 0x7DB05, offset: 0x3F2D4B, size: 0x8, addend: 0x0, symName: '__ZN3syn3gen5clone71_$LT$impl$u20$core..clone..Clone$u20$for$u20$syn..item..ForeignItem$GT$5clone17h70e70dae6a5d9f7fE', symObjAddr: 0x2A4F0, symBinAddr: 0xC0150, symSize: 0x290 }
  - { offsetInCU: 0x7DE7F, offset: 0x3F30C5, size: 0x8, addend: 0x0, symName: '__ZN3syn3gen5clone77_$LT$impl$u20$core..clone..Clone$u20$for$u20$syn..item..ForeignItemStatic$GT$5clone17h3664278b73a68d1fE', symObjAddr: 0x2A860, symBinAddr: 0xC03E0, symSize: 0x1D0 }
  - { offsetInCU: 0x7E320, offset: 0x3F3566, size: 0x8, addend: 0x0, symName: '__ZN3syn3gen5clone75_$LT$impl$u20$core..clone..Clone$u20$for$u20$syn..item..ForeignItemType$GT$5clone17h0605ebd979d8e0f9E', symObjAddr: 0x2AA30, symBinAddr: 0xC05B0, symSize: 0xE0 }
  - { offsetInCU: 0x7E486, offset: 0x3F36CC, size: 0x8, addend: 0x0, symName: '__ZN3syn3gen5clone68_$LT$impl$u20$core..clone..Clone$u20$for$u20$syn..item..ImplItem$GT$5clone17h9da0c001cb875335E', symObjAddr: 0x2AB10, symBinAddr: 0xC0690, symSize: 0x1E0 }
  - { offsetInCU: 0x7E7C7, offset: 0x3F3A0D, size: 0x8, addend: 0x0, symName: '__ZN3syn3gen5clone73_$LT$impl$u20$core..clone..Clone$u20$for$u20$syn..item..ImplItemConst$GT$5clone17h6c1bdd3e9a111bc9E', symObjAddr: 0x2ACF0, symBinAddr: 0xC0870, symSize: 0x200 }
  - { offsetInCU: 0x7EA7D, offset: 0x3F3CC3, size: 0x8, addend: 0x0, symName: '__ZN3syn3gen5clone74_$LT$impl$u20$core..clone..Clone$u20$for$u20$syn..item..ImplItemMethod$GT$5clone17hc69c6508711c3562E', symObjAddr: 0x2AF80, symBinAddr: 0xC0A70, symSize: 0x160 }
  - { offsetInCU: 0x7EB0D, offset: 0x3F3D53, size: 0x8, addend: 0x0, symName: '__ZN3syn3gen5clone72_$LT$impl$u20$core..clone..Clone$u20$for$u20$syn..item..ImplItemType$GT$5clone17h11bf73316dc36436E', symObjAddr: 0x2B0E0, symBinAddr: 0xC0BD0, symSize: 0x330 }
  - { offsetInCU: 0x7EEC0, offset: 0x3F4106, size: 0x8, addend: 0x0, symName: '__ZN3syn3gen5clone64_$LT$impl$u20$core..clone..Clone$u20$for$u20$syn..item..Item$GT$5clone17hc6ebbc1fee216c73E', symObjAddr: 0x2B410, symBinAddr: 0xC0F00, symSize: 0x390 }
  - { offsetInCU: 0x7F444, offset: 0x3F468A, size: 0x8, addend: 0x0, symName: '__ZN3syn3gen5clone69_$LT$impl$u20$core..clone..Clone$u20$for$u20$syn..item..ItemConst$GT$5clone17he7f8218fcd09ece6E', symObjAddr: 0x2B7A0, symBinAddr: 0xC1290, symSize: 0x260 }
  - { offsetInCU: 0x7FAE9, offset: 0x3F4D2F, size: 0x8, addend: 0x0, symName: '__ZN3syn3gen5clone68_$LT$impl$u20$core..clone..Clone$u20$for$u20$syn..item..ItemEnum$GT$5clone17hf4df4a6f7e7b24e5E', symObjAddr: 0x2BA00, symBinAddr: 0xC14F0, symSize: 0x300 }
  - { offsetInCU: 0x7FE1B, offset: 0x3F5061, size: 0x8, addend: 0x0, symName: '__ZN3syn3gen5clone75_$LT$impl$u20$core..clone..Clone$u20$for$u20$syn..item..ItemExternCrate$GT$5clone17h627a0e79ce1fe893E', symObjAddr: 0x2BD00, symBinAddr: 0xC17F0, symSize: 0x180 }
  - { offsetInCU: 0x80130, offset: 0x3F5376, size: 0x8, addend: 0x0, symName: '__ZN3syn3gen5clone66_$LT$impl$u20$core..clone..Clone$u20$for$u20$syn..item..ItemFn$GT$5clone17h940429ce1f3d8207E', symObjAddr: 0x2BE80, symBinAddr: 0xC1970, symSize: 0x180 }
  - { offsetInCU: 0x803C8, offset: 0x3F560E, size: 0x8, addend: 0x0, symName: '__ZN3syn3gen5clone68_$LT$impl$u20$core..clone..Clone$u20$for$u20$syn..item..ItemImpl$GT$5clone17h99822f22f76475b6E', symObjAddr: 0x2C0D0, symBinAddr: 0xC1AF0, symSize: 0x460 }
  - { offsetInCU: 0x808C9, offset: 0x3F5B0F, size: 0x8, addend: 0x0, symName: '__ZN3syn3gen5clone69_$LT$impl$u20$core..clone..Clone$u20$for$u20$syn..item..ItemMacro$GT$5clone17h65b79b89ccdb0674E', symObjAddr: 0x2C530, symBinAddr: 0xC1F50, symSize: 0x110 }
  - { offsetInCU: 0x80B05, offset: 0x3F5D4B, size: 0x8, addend: 0x0, symName: '__ZN3syn3gen5clone70_$LT$impl$u20$core..clone..Clone$u20$for$u20$syn..item..ItemMacro2$GT$5clone17h991c2df9fefed252E', symObjAddr: 0x2C640, symBinAddr: 0xC2060, symSize: 0x1A0 }
  - { offsetInCU: 0x80F0E, offset: 0x3F6154, size: 0x8, addend: 0x0, symName: '__ZN3syn3gen5clone67_$LT$impl$u20$core..clone..Clone$u20$for$u20$syn..item..ItemMod$GT$5clone17h56cf528e17dd7490E', symObjAddr: 0x2C7E0, symBinAddr: 0xC2200, symSize: 0x160 }
  - { offsetInCU: 0x81188, offset: 0x3F63CE, size: 0x8, addend: 0x0, symName: '__ZN3syn3gen5clone70_$LT$impl$u20$core..clone..Clone$u20$for$u20$syn..item..ItemStatic$GT$5clone17hdf091bb88ac38b47E', symObjAddr: 0x2C940, symBinAddr: 0xC2360, symSize: 0x280 }
  - { offsetInCU: 0x8185A, offset: 0x3F6AA0, size: 0x8, addend: 0x0, symName: '__ZN3syn3gen5clone70_$LT$impl$u20$core..clone..Clone$u20$for$u20$syn..item..ItemStruct$GT$5clone17hd8a59448b138557aE', symObjAddr: 0x2CBC0, symBinAddr: 0xC25E0, symSize: 0x380 }
  - { offsetInCU: 0x81C6F, offset: 0x3F6EB5, size: 0x8, addend: 0x0, symName: '__ZN3syn3gen5clone69_$LT$impl$u20$core..clone..Clone$u20$for$u20$syn..item..ItemTrait$GT$5clone17h05a37713845a0c0bE', symObjAddr: 0x2CF40, symBinAddr: 0xC2960, symSize: 0x3C0 }
  - { offsetInCU: 0x8202D, offset: 0x3F7273, size: 0x8, addend: 0x0, symName: '__ZN3syn3gen5clone74_$LT$impl$u20$core..clone..Clone$u20$for$u20$syn..item..ItemTraitAlias$GT$5clone17hf8c8d2db95754afdE', symObjAddr: 0x2D300, symBinAddr: 0xC2D20, symSize: 0x310 }
  - { offsetInCU: 0x8238D, offset: 0x3F75D3, size: 0x8, addend: 0x0, symName: '__ZN3syn3gen5clone68_$LT$impl$u20$core..clone..Clone$u20$for$u20$syn..item..ItemType$GT$5clone17h1d1420c2f836bc7eE', symObjAddr: 0x2D610, symBinAddr: 0xC3030, symSize: 0x340 }
  - { offsetInCU: 0x82909, offset: 0x3F7B4F, size: 0x8, addend: 0x0, symName: '__ZN3syn3gen5clone69_$LT$impl$u20$core..clone..Clone$u20$for$u20$syn..item..ItemUnion$GT$5clone17h7b2f56fc86343981E', symObjAddr: 0x2D950, symBinAddr: 0xC3370, symSize: 0x310 }
  - { offsetInCU: 0x82C39, offset: 0x3F7E7F, size: 0x8, addend: 0x0, symName: '__ZN3syn3gen5clone67_$LT$impl$u20$core..clone..Clone$u20$for$u20$syn..item..ItemUse$GT$5clone17h16e4d2ca744347fbE', symObjAddr: 0x2DC60, symBinAddr: 0xC3680, symSize: 0x110 }
  - { offsetInCU: 0x82CF9, offset: 0x3F7F3F, size: 0x8, addend: 0x0, symName: '__ZN3syn3gen5clone69_$LT$impl$u20$core..clone..Clone$u20$for$u20$syn..item..Signature$GT$5clone17h527c1da3117ac0c2E', symObjAddr: 0x2DE50, symBinAddr: 0xC3790, symSize: 0x530 }
  - { offsetInCU: 0x834FE, offset: 0x3F8744, size: 0x8, addend: 0x0, symName: '__ZN3syn3gen5clone69_$LT$impl$u20$core..clone..Clone$u20$for$u20$syn..item..TraitItem$GT$5clone17h3b82f8b5271b5af7E', symObjAddr: 0x2E380, symBinAddr: 0xC3CC0, symSize: 0x1E0 }
  - { offsetInCU: 0x8383F, offset: 0x3F8A85, size: 0x8, addend: 0x0, symName: '__ZN3syn3gen5clone74_$LT$impl$u20$core..clone..Clone$u20$for$u20$syn..item..TraitItemConst$GT$5clone17ha12a3469e74263a0E', symObjAddr: 0x2E560, symBinAddr: 0xC3EA0, symSize: 0x1E0 }
  - { offsetInCU: 0x83AFC, offset: 0x3F8D42, size: 0x8, addend: 0x0, symName: '__ZN3syn3gen5clone75_$LT$impl$u20$core..clone..Clone$u20$for$u20$syn..item..TraitItemMethod$GT$5clone17hc5f98fa3110d949bE', symObjAddr: 0x2E740, symBinAddr: 0xC4080, symSize: 0x130 }
  - { offsetInCU: 0x83BF0, offset: 0x3F8E36, size: 0x8, addend: 0x0, symName: '__ZN3syn3gen5clone73_$LT$impl$u20$core..clone..Clone$u20$for$u20$syn..item..TraitItemType$GT$5clone17h322c8f681c4ed7c4E', symObjAddr: 0x2E870, symBinAddr: 0xC41B0, symSize: 0x370 }
  - { offsetInCU: 0x87B12, offset: 0x3FCD58, size: 0x8, addend: 0x0, symName: '__ZN5alloc3vec16Vec$LT$T$C$A$GT$15append_elements17h515b13e7a2841833E', symObjAddr: 0xC990, symBinAddr: 0xA9D60, symSize: 0x70 }
  - { offsetInCU: 0x87D48, offset: 0x3FCF8E, size: 0x8, addend: 0x0, symName: __ZN3syn4item4Item13replace_attrs17h27bc8d233ea7e24cE, symObjAddr: 0xD2C0, symBinAddr: 0xA9DD0, symSize: 0x1C0 }
  - { offsetInCU: 0x1E, offset: 0x40F5B2, size: 0x8, addend: 0x0, symName: '__ZN4core3ptr100drop_in_place$LT$core..option..Option$LT$alloc..boxed..Box$LT$syn..generics..LifetimeDef$GT$$GT$$GT$17h75a6086997697dd7E.llvm.16532739692444164112', symObjAddr: 0x0, symBinAddr: 0xC47B0, symSize: 0x50 }
  - { offsetInCU: 0x16AA, offset: 0x410C3E, size: 0x8, addend: 0x0, symName: '__ZN111_$LT$syn..punctuated..PrivateIter$LT$T$C$P$GT$$u20$as$u20$core..iter..traits..exact_size..ExactSizeIterator$GT$3len17hf0eb6e48e300523aE.llvm.16532739692444164112', symObjAddr: 0x124F0, symBinAddr: 0xD2610, symSize: 0x0 }
  - { offsetInCU: 0x1775, offset: 0x410D09, size: 0x8, addend: 0x0, symName: '__ZN111_$LT$syn..punctuated..PrivateIter$LT$T$C$P$GT$$u20$as$u20$core..iter..traits..exact_size..ExactSizeIterator$GT$3len17hf961cff6ad363ebcE.llvm.16532739692444164112', symObjAddr: 0x12520, symBinAddr: 0xD2640, symSize: 0x30 }
  - { offsetInCU: 0x19EC, offset: 0x410F80, size: 0x8, addend: 0x0, symName: '__ZN115_$LT$syn..punctuated..PrivateIter$LT$T$C$P$GT$$u20$as$u20$core..iter..traits..double_ended..DoubleEndedIterator$GT$9next_back17h511dcfc6e4846953E.llvm.16532739692444164112', symObjAddr: 0x12400, symBinAddr: 0xD25B0, symSize: 0x30 }
  - { offsetInCU: 0x1C93, offset: 0x411227, size: 0x8, addend: 0x0, symName: '__ZN115_$LT$syn..punctuated..PrivateIter$LT$T$C$P$GT$$u20$as$u20$core..iter..traits..double_ended..DoubleEndedIterator$GT$9next_back17hb6748fd670fb3ec7E.llvm.16532739692444164112', symObjAddr: 0x12460, symBinAddr: 0xD25E0, symSize: 0x0 }
  - { offsetInCU: 0x2135, offset: 0x4116C9, size: 0x8, addend: 0x0, symName: '__ZN100_$LT$syn..punctuated..PrivateIter$LT$T$C$P$GT$$u20$as$u20$core..iter..traits..iterator..Iterator$GT$4next17h6d856dbf85f5e49bE.llvm.16532739692444164112', symObjAddr: 0x12340, symBinAddr: 0xD2520, symSize: 0x30 }
  - { offsetInCU: 0x23AF, offset: 0x411943, size: 0x8, addend: 0x0, symName: '__ZN100_$LT$syn..punctuated..PrivateIter$LT$T$C$P$GT$$u20$as$u20$core..iter..traits..iterator..Iterator$GT$4next17h7d488a113c538d31E.llvm.16532739692444164112', symObjAddr: 0x12370, symBinAddr: 0xD2550, symSize: 0x0 }
  - { offsetInCU: 0x2629, offset: 0x411BBD, size: 0x8, addend: 0x0, symName: '__ZN100_$LT$syn..punctuated..PrivateIter$LT$T$C$P$GT$$u20$as$u20$core..iter..traits..iterator..Iterator$GT$4next17h7d8b0100903e1490E.llvm.16532739692444164112', symObjAddr: 0x123A0, symBinAddr: 0xD2580, symSize: 0x30 }
  - { offsetInCU: 0x2DEA, offset: 0x41237E, size: 0x8, addend: 0x0, symName: '__ZN79_$LT$syn..punctuated..Punctuated$LT$T$C$P$GT$$u20$as$u20$core..clone..Clone$GT$5clone17h11f716f7c70263efE', symObjAddr: 0xDDE0, symBinAddr: 0xD0F70, symSize: 0xE0 }
  - { offsetInCU: 0x3070, offset: 0x412604, size: 0x8, addend: 0x0, symName: '__ZN79_$LT$syn..punctuated..Punctuated$LT$T$C$P$GT$$u20$as$u20$core..clone..Clone$GT$5clone17h16b574025162a927E', symObjAddr: 0xDEC0, symBinAddr: 0xD1050, symSize: 0xC0 }
  - { offsetInCU: 0x329E, offset: 0x412832, size: 0x8, addend: 0x0, symName: '__ZN79_$LT$syn..punctuated..Punctuated$LT$T$C$P$GT$$u20$as$u20$core..clone..Clone$GT$5clone17h248ce364975e5563E', symObjAddr: 0xDF80, symBinAddr: 0xD1110, symSize: 0xE0 }
  - { offsetInCU: 0x3525, offset: 0x412AB9, size: 0x8, addend: 0x0, symName: '__ZN79_$LT$syn..punctuated..Punctuated$LT$T$C$P$GT$$u20$as$u20$core..clone..Clone$GT$5clone17h2cb3b5c3adb260feE', symObjAddr: 0xE060, symBinAddr: 0xD11F0, symSize: 0xE0 }
  - { offsetInCU: 0x37AC, offset: 0x412D40, size: 0x8, addend: 0x0, symName: '__ZN79_$LT$syn..punctuated..Punctuated$LT$T$C$P$GT$$u20$as$u20$core..clone..Clone$GT$5clone17h56e1f4ad041a44ceE', symObjAddr: 0xE240, symBinAddr: 0xD12D0, symSize: 0xE0 }
  - { offsetInCU: 0x3A33, offset: 0x412FC7, size: 0x8, addend: 0x0, symName: '__ZN79_$LT$syn..punctuated..Punctuated$LT$T$C$P$GT$$u20$as$u20$core..clone..Clone$GT$5clone17h5806b3a5c1b4f2a6E', symObjAddr: 0xE320, symBinAddr: 0xD13B0, symSize: 0xE0 }
  - { offsetInCU: 0x3CB9, offset: 0x41324D, size: 0x8, addend: 0x0, symName: '__ZN79_$LT$syn..punctuated..Punctuated$LT$T$C$P$GT$$u20$as$u20$core..clone..Clone$GT$5clone17h682a84abd40a7cfeE', symObjAddr: 0xE400, symBinAddr: 0xD1490, symSize: 0xE0 }
  - { offsetInCU: 0x3F40, offset: 0x4134D4, size: 0x8, addend: 0x0, symName: '__ZN79_$LT$syn..punctuated..Punctuated$LT$T$C$P$GT$$u20$as$u20$core..clone..Clone$GT$5clone17h748e57bad821d612E', symObjAddr: 0xE4E0, symBinAddr: 0xD1570, symSize: 0xD0 }
  - { offsetInCU: 0x41C6, offset: 0x41375A, size: 0x8, addend: 0x0, symName: '__ZN79_$LT$syn..punctuated..Punctuated$LT$T$C$P$GT$$u20$as$u20$core..clone..Clone$GT$5clone17h7dc69fd3509f726bE', symObjAddr: 0xE6D0, symBinAddr: 0xD1640, symSize: 0xE0 }
  - { offsetInCU: 0x444D, offset: 0x4139E1, size: 0x8, addend: 0x0, symName: '__ZN79_$LT$syn..punctuated..Punctuated$LT$T$C$P$GT$$u20$as$u20$core..clone..Clone$GT$5clone17had7f902178348c63E', symObjAddr: 0xE9A0, symBinAddr: 0xD1720, symSize: 0x180 }
  - { offsetInCU: 0x481F, offset: 0x413DB3, size: 0x8, addend: 0x0, symName: '__ZN79_$LT$syn..punctuated..Punctuated$LT$T$C$P$GT$$u20$as$u20$core..clone..Clone$GT$5clone17hb75d2d633cc2d1edE', symObjAddr: 0xEB20, symBinAddr: 0xD18A0, symSize: 0x110 }
  - { offsetInCU: 0x4B83, offset: 0x414117, size: 0x8, addend: 0x0, symName: '__ZN79_$LT$syn..punctuated..Punctuated$LT$T$C$P$GT$$u20$as$u20$core..clone..Clone$GT$5clone17hd0e9f97bdac7287eE', symObjAddr: 0xED10, symBinAddr: 0xD19B0, symSize: 0x150 }
  - { offsetInCU: 0x4E56, offset: 0x4143EA, size: 0x8, addend: 0x0, symName: '__ZN79_$LT$syn..punctuated..Punctuated$LT$T$C$P$GT$$u20$as$u20$core..clone..Clone$GT$5clone17he55a9d80253adee0E', symObjAddr: 0xEF40, symBinAddr: 0xD1B00, symSize: 0xE0 }
  - { offsetInCU: 0x517A, offset: 0x41470E, size: 0x8, addend: 0x0, symName: '__ZN138_$LT$syn..punctuated..Punctuated$LT$T$C$P$GT$$u20$as$u20$core..iter..traits..collect..Extend$LT$syn..punctuated..Pair$LT$T$C$P$GT$$GT$$GT$6extend17h46e8b111646272d1E', symObjAddr: 0x110F0, symBinAddr: 0xD1F20, symSize: 0x340 }
  - { offsetInCU: 0x5974, offset: 0x414F08, size: 0x8, addend: 0x0, symName: '__ZN144_$LT$syn..punctuated..Punctuated$LT$T$C$P$GT$$u20$as$u20$core..iter..traits..collect..FromIterator$LT$syn..punctuated..Pair$LT$T$C$P$GT$$GT$$GT$9from_iter17he2cbff5f009ca769E', symObjAddr: 0x10DB0, symBinAddr: 0xD1BE0, symSize: 0x340 }
  - { offsetInCU: 0x5FAC, offset: 0x415540, size: 0x8, addend: 0x0, symName: '__ZN102_$LT$syn..punctuated..Punctuated$LT$T$C$P$GT$$u20$as$u20$core..iter..traits..collect..IntoIterator$GT$9into_iter17h83e18cee80a4ec2fE', symObjAddr: 0x11710, symBinAddr: 0xD2260, symSize: 0x2C0 }
  - { offsetInCU: 0x772B, offset: 0x416CBF, size: 0x8, addend: 0x0, symName: '__ZN57_$LT$I$u20$as$u20$syn..punctuated..IterTrait$LT$T$GT$$GT$9clone_box17h4a399b36d0c6d85cE.llvm.16532739692444164112', symObjAddr: 0x125B0, symBinAddr: 0xD2670, symSize: 0x60 }
  - { offsetInCU: 0x7938, offset: 0x416ECC, size: 0x8, addend: 0x0, symName: '__ZN57_$LT$I$u20$as$u20$syn..punctuated..IterTrait$LT$T$GT$$GT$9clone_box17hf91e00e1143972f2E.llvm.16532739692444164112', symObjAddr: 0x12670, symBinAddr: 0xD26D0, symSize: 0x60 }
  - { offsetInCU: 0x7B4B, offset: 0x4170DF, size: 0x8, addend: 0x0, symName: '__ZN97_$LT$syn..punctuated..Punctuated$LT$T$C$P$GT$$u20$as$u20$core..ops..index..Index$LT$usize$GT$$GT$5index17ha3e39e7328b6f7abE', symObjAddr: 0x126D0, symBinAddr: 0xD2730, symSize: 0x50 }
  - { offsetInCU: 0x7C98, offset: 0x41722C, size: 0x8, addend: 0x0, symName: '__ZN3syn10punctuated8printing97_$LT$impl$u20$quote..to_tokens..ToTokens$u20$for$u20$syn..punctuated..Punctuated$LT$T$C$P$GT$$GT$9to_tokens17h4c504ab6a95422ddE', symObjAddr: 0x12880, symBinAddr: 0xD2780, symSize: 0x150 }
  - { offsetInCU: 0x13F89, offset: 0x42351D, size: 0x8, addend: 0x0, symName: '__ZN4core3ptr100drop_in_place$LT$core..option..Option$LT$alloc..boxed..Box$LT$syn..generics..LifetimeDef$GT$$GT$$GT$17h75a6086997697dd7E.llvm.16532739692444164112', symObjAddr: 0x0, symBinAddr: 0xC47B0, symSize: 0x50 }
  - { offsetInCU: 0x1410B, offset: 0x42369F, size: 0x8, addend: 0x0, symName: '__ZN4core3ptr100drop_in_place$LT$core..option..Option$LT$alloc..boxed..Box$LT$syn..path..GenericArgument$GT$$GT$$GT$17h3d29ec00a8f1918dE.llvm.16532739692444164112', symObjAddr: 0x50, symBinAddr: 0xC4800, symSize: 0x50 }
  - { offsetInCU: 0x1429A, offset: 0x42382E, size: 0x8, addend: 0x0, symName: '__ZN4core3ptr101drop_in_place$LT$alloc..vec..Vec$LT$$LP$syn..generics..WherePredicate$C$syn..token..Comma$RP$$GT$$GT$17h08dfdcabd164aa70E.llvm.16532739692444164112', symObjAddr: 0xA0, symBinAddr: 0xC4850, symSize: 0xD0 }
  - { offsetInCU: 0x146E1, offset: 0x423C75, size: 0x8, addend: 0x0, symName: '__ZN4core3ptr103drop_in_place$LT$core..option..Option$LT$alloc..boxed..Box$LT$syn..generics..TypeParamBound$GT$$GT$$GT$17h6cee73bc2b2ecea8E.llvm.16532739692444164112', symObjAddr: 0x170, symBinAddr: 0xC4920, symSize: 0x150 }
  - { offsetInCU: 0x14C9F, offset: 0x424233, size: 0x8, addend: 0x0, symName: '__ZN4core3ptr103drop_in_place$LT$syn..punctuated..Punctuated$LT$syn..generics..TypeParamBound$C$syn..token..Add$GT$$GT$17he811d520c92af08aE.llvm.16532739692444164112', symObjAddr: 0x2C0, symBinAddr: 0xC4A70, symSize: 0xF0 }
  - { offsetInCU: 0x151DC, offset: 0x424770, size: 0x8, addend: 0x0, symName: '__ZN4core3ptr104drop_in_place$LT$alloc..vec..Vec$LT$$LP$syn..expr..GenericMethodArgument$C$syn..token..Comma$RP$$GT$$GT$17heae48b13c44e912aE.llvm.16532739692444164112', symObjAddr: 0x3B0, symBinAddr: 0xC4B60, symSize: 0xF0 }
  - { offsetInCU: 0x15546, offset: 0x424ADA, size: 0x8, addend: 0x0, symName: '__ZN4core3ptr108drop_in_place$LT$syn..punctuated..Punctuated$LT$syn..expr..GenericMethodArgument$C$syn..token..Comma$GT$$GT$17h92cbabe4862b2183E', symObjAddr: 0x4A0, symBinAddr: 0xC4C50, symSize: 0x150 }
  - { offsetInCU: 0x15A23, offset: 0x424FB7, size: 0x8, addend: 0x0, symName: '__ZN4core3ptr126drop_in_place$LT$core..option..Option$LT$$LP$syn..token..And$C$core..option..Option$LT$syn..lifetime..Lifetime$GT$$RP$$GT$$GT$17h5979d670cb45416cE', symObjAddr: 0x5F0, symBinAddr: 0xC4DA0, symSize: 0x30 }
  - { offsetInCU: 0x15C36, offset: 0x4251CA, size: 0x8, addend: 0x0, symName: '__ZN4core3ptr34drop_in_place$LT$syn..lit..Lit$GT$17hbe1efe749a08dd9aE', symObjAddr: 0x620, symBinAddr: 0xC4DD0, symSize: 0x110 }
  - { offsetInCU: 0x160E6, offset: 0x42567A, size: 0x8, addend: 0x0, symName: '__ZN4core3ptr34drop_in_place$LT$syn..pat..Pat$GT$17h3201f642e43ac2a2E.llvm.16532739692444164112', symObjAddr: 0x730, symBinAddr: 0xC4EE0, symSize: 0x1190 }
  - { offsetInCU: 0x19FE0, offset: 0x429574, size: 0x8, addend: 0x0, symName: '__ZN4core3ptr34drop_in_place$LT$syn..ty..Type$GT$17hfb5d159a08190130E.llvm.16532739692444164112', symObjAddr: 0x18C0, symBinAddr: 0xC6070, symSize: 0x580 }
  - { offsetInCU: 0x1B287, offset: 0x42A81B, size: 0x8, addend: 0x0, symName: '__ZN4core3ptr36drop_in_place$LT$syn..attr..Meta$GT$17ha0d33cab48037a79E', symObjAddr: 0x1E40, symBinAddr: 0xC65F0, symSize: 0x2C0 }
  - { offsetInCU: 0x1C24A, offset: 0x42B7DE, size: 0x8, addend: 0x0, symName: '__ZN4core3ptr36drop_in_place$LT$syn..expr..Expr$GT$17hf1921d1b09462bc3E.llvm.16532739692444164112', symObjAddr: 0x2100, symBinAddr: 0xC68B0, symSize: 0x3290 }
  - { offsetInCU: 0x26ADC, offset: 0x436070, size: 0x8, addend: 0x0, symName: '__ZN4core3ptr36drop_in_place$LT$syn..mac..Macro$GT$17h205613d7ad575f72E', symObjAddr: 0x5390, symBinAddr: 0xC9B40, symSize: 0x40 }
  - { offsetInCU: 0x26B16, offset: 0x4360AA, size: 0x8, addend: 0x0, symName: '__ZN4core3ptr36drop_in_place$LT$syn..path..Path$GT$17he6d0bec66d66b98aE.llvm.16532739692444164112', symObjAddr: 0x53D0, symBinAddr: 0xC9B80, symSize: 0xE0 }
  - { offsetInCU: 0x26E25, offset: 0x4363B9, size: 0x8, addend: 0x0, symName: '__ZN4core3ptr37drop_in_place$LT$syn..data..Field$GT$17h6bfcb460cfa4c863E.llvm.16532739692444164112', symObjAddr: 0x54B0, symBinAddr: 0xC9C60, symSize: 0x150 }
  - { offsetInCU: 0x27264, offset: 0x4367F8, size: 0x8, addend: 0x0, symName: '__ZN4core3ptr37drop_in_place$LT$syn..item..FnArg$GT$17h52a13b3505938de2E.llvm.16532739692444164112', symObjAddr: 0x5600, symBinAddr: 0xC9DB0, symSize: 0x290 }
  - { offsetInCU: 0x27CBC, offset: 0x437250, size: 0x8, addend: 0x0, symName: '__ZN4core3ptr37drop_in_place$LT$syn..stmt..Block$GT$17h3aa429e75a234230E', symObjAddr: 0x5890, symBinAddr: 0xCA040, symSize: 0xD0 }
  - { offsetInCU: 0x27F93, offset: 0x437527, size: 0x8, addend: 0x0, symName: '__ZN4core3ptr38drop_in_place$LT$syn..expr..Member$GT$17ha113d37a67d27aafE.llvm.16532739692444164112', symObjAddr: 0x5960, symBinAddr: 0xCA110, symSize: 0x30 }
  - { offsetInCU: 0x2808F, offset: 0x437623, size: 0x8, addend: 0x0, symName: '__ZN4core3ptr39drop_in_place$LT$proc_macro2..Ident$GT$17hdeec010483268a0dE', symObjAddr: 0x5990, symBinAddr: 0xCA140, symSize: 0x30 }
  - { offsetInCU: 0x281C9, offset: 0x43775D, size: 0x8, addend: 0x0, symName: '__ZN4core3ptr39drop_in_place$LT$syn..data..Variant$GT$17hdf59a2045a52b17cE', symObjAddr: 0x59C0, symBinAddr: 0xCA170, symSize: 0x170 }
  - { offsetInCU: 0x286CA, offset: 0x437C5E, size: 0x8, addend: 0x0, symName: '__ZN4core3ptr39drop_in_place$LT$syn..item..UseTree$GT$17h78d4ed19b48b8cbfE', symObjAddr: 0x5B30, symBinAddr: 0xCA2E0, symSize: 0xE0 }
  - { offsetInCU: 0x28A90, offset: 0x438024, size: 0x8, addend: 0x0, symName: '__ZN4core3ptr39drop_in_place$LT$syn..pat..FieldPat$GT$17hbb4451e28b58676aE.llvm.16532739692444164112', symObjAddr: 0x5C10, symBinAddr: 0xCA3C0, symSize: 0x150 }
  - { offsetInCU: 0x28FF2, offset: 0x438586, size: 0x8, addend: 0x0, symName: '__ZN4core3ptr39drop_in_place$LT$syn..pat..PatTuple$GT$17h96faeea9832d4c4bE', symObjAddr: 0x5D60, symBinAddr: 0xCA510, symSize: 0x100 }
  - { offsetInCU: 0x29339, offset: 0x4388CD, size: 0x8, addend: 0x0, symName: '__ZN4core3ptr39drop_in_place$LT$syn..ty..BareFnArg$GT$17hed52ce54f3b53a34E.llvm.16532739692444164112', symObjAddr: 0x5E60, symBinAddr: 0xCA610, symSize: 0x120 }
  - { offsetInCU: 0x29746, offset: 0x438CDA, size: 0x8, addend: 0x0, symName: '__ZN4core3ptr40drop_in_place$LT$syn..ty..ReturnType$GT$17h6f97c9fdb958983eE', symObjAddr: 0x5F80, symBinAddr: 0xCA730, symSize: 0x50 }
  - { offsetInCU: 0x298B6, offset: 0x438E4A, size: 0x8, addend: 0x0, symName: '__ZN4core3ptr42drop_in_place$LT$syn..attr..NestedMeta$GT$17hb8773e095b93d12eE', symObjAddr: 0x5FD0, symBinAddr: 0xCA780, symSize: 0x30 }
  - { offsetInCU: 0x29911, offset: 0x438EA5, size: 0x8, addend: 0x0, symName: '__ZN4core3ptr42drop_in_place$LT$syn..data..Visibility$GT$17h27e8b6ad307fcbc7E', symObjAddr: 0x6000, symBinAddr: 0xCA7B0, symSize: 0x120 }
  - { offsetInCU: 0x29D67, offset: 0x4392FB, size: 0x8, addend: 0x0, symName: '__ZN4core3ptr42drop_in_place$LT$syn..expr..FieldValue$GT$17h42a16bcbdc918058E.llvm.16532739692444164112', symObjAddr: 0x6120, symBinAddr: 0xCA8D0, symSize: 0x120 }
  - { offsetInCU: 0x2A20E, offset: 0x4397A2, size: 0x8, addend: 0x0, symName: '__ZN4core3ptr43drop_in_place$LT$syn..path..PathSegment$GT$17h3d0f44137dd31bf9E.llvm.16532739692444164112', symObjAddr: 0x6240, symBinAddr: 0xCA9F0, symSize: 0x170 }
  - { offsetInCU: 0x2A76E, offset: 0x439D02, size: 0x8, addend: 0x0, symName: '__ZN4core3ptr44drop_in_place$LT$syn..lifetime..Lifetime$GT$17h3858225df033648aE.llvm.16532739692444164112', symObjAddr: 0x63B0, symBinAddr: 0xCAB60, symSize: 0x30 }
  - { offsetInCU: 0x2A9A0, offset: 0x439F34, size: 0x8, addend: 0x0, symName: '__ZN4core3ptr45drop_in_place$LT$proc_macro2..TokenStream$GT$17h2507cb30e765dc85E', symObjAddr: 0x63E0, symBinAddr: 0xCAB90, symSize: 0x140 }
  - { offsetInCU: 0x2ADFC, offset: 0x43A390, size: 0x8, addend: 0x0, symName: '__ZN4core3ptr47drop_in_place$LT$syn..generics..LifetimeDef$GT$17hd04bc9e6ed9dfb47E.llvm.16532739692444164112', symObjAddr: 0x6520, symBinAddr: 0xCACD0, symSize: 0x120 }
  - { offsetInCU: 0x2B258, offset: 0x43A7EC, size: 0x8, addend: 0x0, symName: '__ZN4core3ptr47drop_in_place$LT$syn..path..GenericArgument$GT$17h8c0a0d8c6deaefb4E.llvm.16532739692444164112', symObjAddr: 0x6640, symBinAddr: 0xCADF0, symSize: 0x110 }
  - { offsetInCU: 0x2B5EF, offset: 0x43AB83, size: 0x8, addend: 0x0, symName: '__ZN4core3ptr48drop_in_place$LT$syn..generics..GenericParam$GT$17h9292481f35bf25edE.llvm.16532739692444164112', symObjAddr: 0x6750, symBinAddr: 0xCAF00, symSize: 0x300 }
  - { offsetInCU: 0x2BE14, offset: 0x43B3A8, size: 0x8, addend: 0x0, symName: '__ZN4core3ptr50drop_in_place$LT$syn..generics..TypeParamBound$GT$17h8d9a306b4a7f920fE.llvm.16532739692444164112', symObjAddr: 0x6A50, symBinAddr: 0xCB200, symSize: 0x150 }
  - { offsetInCU: 0x2C287, offset: 0x43B81B, size: 0x8, addend: 0x0, symName: '__ZN4core3ptr50drop_in_place$LT$syn..generics..WherePredicate$GT$17h1fc5b3da95266304E.llvm.16532739692444164112', symObjAddr: 0x6BA0, symBinAddr: 0xCB350, symSize: 0x100 }
  - { offsetInCU: 0x2C40F, offset: 0x43B9A3, size: 0x8, addend: 0x0, symName: '__ZN4core3ptr53drop_in_place$LT$syn..expr..GenericMethodArgument$GT$17h74a5a2396c2f7da6E.llvm.16532739692444164112', symObjAddr: 0x6CA0, symBinAddr: 0xCB450, symSize: 0x30 }
  - { offsetInCU: 0x2C42C, offset: 0x43B9C0, size: 0x8, addend: 0x0, symName: '__ZN4core3ptr58drop_in_place$LT$alloc..vec..Vec$LT$syn..expr..Arm$GT$$GT$17hf3db0825f3d9c861E', symObjAddr: 0x6CD0, symBinAddr: 0xCB480, symSize: 0xD0 }
  - { offsetInCU: 0x2C6EC, offset: 0x43BC80, size: 0x8, addend: 0x0, symName: '__ZN4core3ptr59drop_in_place$LT$alloc..boxed..Box$LT$syn..pat..Pat$GT$$GT$17h7037ce9bbd3729c6E.llvm.16532739692444164112', symObjAddr: 0x6DA0, symBinAddr: 0xCB550, symSize: 0x50 }
  - { offsetInCU: 0x2C845, offset: 0x43BDD9, size: 0x8, addend: 0x0, symName: '__ZN4core3ptr59drop_in_place$LT$alloc..boxed..Box$LT$syn..ty..Type$GT$$GT$17h2eccd13329dbe4faE.llvm.16532739692444164112', symObjAddr: 0x6DF0, symBinAddr: 0xCB5A0, symSize: 0x50 }
  - { offsetInCU: 0x2C99E, offset: 0x43BF32, size: 0x8, addend: 0x0, symName: '__ZN4core3ptr61drop_in_place$LT$alloc..boxed..Box$LT$syn..expr..Expr$GT$$GT$17h66094ddc89015516E.llvm.16532739692444164112', symObjAddr: 0x6F10, symBinAddr: 0xCB5F0, symSize: 0x50 }
  - { offsetInCU: 0x2CB73, offset: 0x43C107, size: 0x8, addend: 0x0, symName: '__ZN4core3ptr61drop_in_place$LT$syn..path..ParenthesizedGenericArguments$GT$17h21be9b1d7a6fab55E.llvm.16532739692444164112', symObjAddr: 0x6F60, symBinAddr: 0xCB640, symSize: 0x170 }
  - { offsetInCU: 0x2D17C, offset: 0x43C710, size: 0x8, addend: 0x0, symName: '__ZN4core3ptr63drop_in_place$LT$alloc..boxed..Box$LT$syn..lit..LitRepr$GT$$GT$17h9c509b794406150eE', symObjAddr: 0x7170, symBinAddr: 0xCB7B0, symSize: 0x60 }
  - { offsetInCU: 0x2D464, offset: 0x43C9F8, size: 0x8, addend: 0x0, symName: '__ZN4core3ptr64drop_in_place$LT$alloc..boxed..Box$LT$syn..item..UseTree$GT$$GT$17h2fbb30105f88b737E', symObjAddr: 0x7220, symBinAddr: 0xCB810, symSize: 0x100 }
  - { offsetInCU: 0x2D992, offset: 0x43CF26, size: 0x8, addend: 0x0, symName: '__ZN4core3ptr64drop_in_place$LT$alloc..boxed..Box$LT$syn..pat..FieldPat$GT$$GT$17hb167b355d0d4733fE', symObjAddr: 0x7320, symBinAddr: 0xCB910, symSize: 0x180 }
  - { offsetInCU: 0x2E071, offset: 0x43D605, size: 0x8, addend: 0x0, symName: '__ZN4core3ptr64drop_in_place$LT$alloc..boxed..Box$LT$syn..ty..BareFnArg$GT$$GT$17h6488be9448346678E', symObjAddr: 0x74A0, symBinAddr: 0xCBA90, symSize: 0x160 }
  - { offsetInCU: 0x2E607, offset: 0x43DB9B, size: 0x8, addend: 0x0, symName: '__ZN4core3ptr65drop_in_place$LT$alloc..vec..Vec$LT$proc_macro..TokenTree$GT$$GT$17hc3670dd5608d5259E', symObjAddr: 0x7600, symBinAddr: 0xCBBF0, symSize: 0x110 }
  - { offsetInCU: 0x2E9FF, offset: 0x43DF93, size: 0x8, addend: 0x0, symName: '__ZN4core3ptr65drop_in_place$LT$core..option..Option$LT$syn..expr..Label$GT$$GT$17ha723640fd01bec5dE', symObjAddr: 0x7710, symBinAddr: 0xCBD00, symSize: 0x30 }
  - { offsetInCU: 0x2EB39, offset: 0x43E0CD, size: 0x8, addend: 0x0, symName: '__ZN4core3ptr66drop_in_place$LT$core..option..Option$LT$syn..ty..Variadic$GT$$GT$17hc32134bb3933b0dfE', symObjAddr: 0x7740, symBinAddr: 0xCBD30, symSize: 0xF0 }
  - { offsetInCU: 0x2EE63, offset: 0x43E3F7, size: 0x8, addend: 0x0, symName: '__ZN4core3ptr67drop_in_place$LT$alloc..boxed..Box$LT$syn..attr..NestedMeta$GT$$GT$17hd0c3b988a8621445E', symObjAddr: 0x7830, symBinAddr: 0xCBE20, symSize: 0x70 }
  - { offsetInCU: 0x2EFF8, offset: 0x43E58C, size: 0x8, addend: 0x0, symName: '__ZN4core3ptr67drop_in_place$LT$alloc..boxed..Box$LT$syn..expr..FieldValue$GT$$GT$17h8df780aa600ea8c2E', symObjAddr: 0x78A0, symBinAddr: 0xCBE90, symSize: 0x160 }
  - { offsetInCU: 0x2F56E, offset: 0x43EB02, size: 0x8, addend: 0x0, symName: '__ZN4core3ptr70drop_in_place$LT$$LP$syn..attr..NestedMeta$C$syn..token..Comma$RP$$GT$17he1b545a7aa3daf93E', symObjAddr: 0x7AA0, symBinAddr: 0xCBFF0, symSize: 0x30 }
  - { offsetInCU: 0x2F61A, offset: 0x43EBAE, size: 0x8, addend: 0x0, symName: '__ZN4core3ptr73drop_in_place$LT$alloc..vec..Vec$LT$syn..generics..TypeParamBound$GT$$GT$17h5d27515ea87a306aE.llvm.16532739692444164112', symObjAddr: 0x7CF0, symBinAddr: 0xCC020, symSize: 0xC0 }
  - { offsetInCU: 0x2F8EB, offset: 0x43EE7F, size: 0x8, addend: 0x0, symName: '__ZN4core3ptr75drop_in_place$LT$alloc..boxed..Box$LT$syn..generics..TypeParamBound$GT$$GT$17h8f156ce07ea0b8b2E', symObjAddr: 0x7DB0, symBinAddr: 0xCC0E0, symSize: 0x90 }
  - { offsetInCU: 0x2FBAE, offset: 0x43F142, size: 0x8, addend: 0x0, symName: '__ZN4core3ptr78drop_in_place$LT$alloc..boxed..Box$LT$syn..expr..GenericMethodArgument$GT$$GT$17h3384c00b5bd54c2aE', symObjAddr: 0x7E90, symBinAddr: 0xCC170, symSize: 0x60 }
  - { offsetInCU: 0x2FDBF, offset: 0x43F353, size: 0x8, addend: 0x0, symName: '__ZN4core3ptr78drop_in_place$LT$core..option..Option$LT$syn..generics..BoundLifetimes$GT$$GT$17h8175e66ad0c4a156E.llvm.16532739692444164112', symObjAddr: 0x7EF0, symBinAddr: 0xCC1D0, symSize: 0x120 }
  - { offsetInCU: 0x30227, offset: 0x43F7BB, size: 0x8, addend: 0x0, symName: '__ZN4core3ptr81drop_in_place$LT$$LP$syn..expr..GenericMethodArgument$C$syn..token..Comma$RP$$GT$17h6cb8506ab56d85d6E.llvm.16532739692444164112', symObjAddr: 0x80E0, symBinAddr: 0xCC2F0, symSize: 0x30 }
  - { offsetInCU: 0x30295, offset: 0x43F829, size: 0x8, addend: 0x0, symName: '__ZN4core3ptr82drop_in_place$LT$alloc..vec..Vec$LT$$LP$syn..pat..Pat$C$syn..token..Or$RP$$GT$$GT$17he4f1446f4dd0391dE.llvm.16532739692444164112', symObjAddr: 0x8110, symBinAddr: 0xCC320, symSize: 0x0 }
  - { offsetInCU: 0x3058D, offset: 0x43FB21, size: 0x8, addend: 0x0, symName: '__ZN4core3ptr85drop_in_place$LT$alloc..vec..Vec$LT$$LP$syn..ty..Type$C$syn..token..Comma$RP$$GT$$GT$17h2558a6f370e75802E.llvm.16532739692444164112', symObjAddr: 0x81E0, symBinAddr: 0xCC3F0, symSize: 0xD0 }
  - { offsetInCU: 0x308BF, offset: 0x43FE53, size: 0x8, addend: 0x0, symName: '__ZN4core3ptr86drop_in_place$LT$syn..punctuated..Punctuated$LT$syn..pat..Pat$C$syn..token..Or$GT$$GT$17h1078c5d178d382b7E', symObjAddr: 0x82B0, symBinAddr: 0xCC4C0, symSize: 0x120 }
  - { offsetInCU: 0x30D59, offset: 0x4402ED, size: 0x8, addend: 0x0, symName: '__ZN4core3ptr87drop_in_place$LT$alloc..vec..Vec$LT$$LP$syn..expr..Expr$C$syn..token..Comma$RP$$GT$$GT$17ha5588c79c88b2eb2E.llvm.16532739692444164112', symObjAddr: 0x83D0, symBinAddr: 0xCC5E0, symSize: 0xD0 }
  - { offsetInCU: 0x3104D, offset: 0x4405E1, size: 0x8, addend: 0x0, symName: '__ZN4core3ptr87drop_in_place$LT$core..option..Option$LT$alloc..boxed..Box$LT$syn..pat..Pat$GT$$GT$$GT$17ha7f5fe0e6f73e820E', symObjAddr: 0x84A0, symBinAddr: 0xCC6B0, symSize: 0x50 }
  - { offsetInCU: 0x311BD, offset: 0x440751, size: 0x8, addend: 0x0, symName: '__ZN4core3ptr87drop_in_place$LT$core..option..Option$LT$alloc..boxed..Box$LT$syn..ty..Type$GT$$GT$$GT$17hc8292da82d129de3E.llvm.16532739692444164112', symObjAddr: 0x84F0, symBinAddr: 0xCC700, symSize: 0x50 }
  - { offsetInCU: 0x3134C, offset: 0x4408E0, size: 0x8, addend: 0x0, symName: '__ZN4core3ptr88drop_in_place$LT$alloc..vec..Vec$LT$$LP$syn..data..Field$C$syn..token..Comma$RP$$GT$$GT$17h92f883c9746a1265E.llvm.16532739692444164112', symObjAddr: 0x8540, symBinAddr: 0xCC750, symSize: 0xD0 }
  - { offsetInCU: 0x3165F, offset: 0x440BF3, size: 0x8, addend: 0x0, symName: '__ZN4core3ptr88drop_in_place$LT$alloc..vec..Vec$LT$$LP$syn..item..FnArg$C$syn..token..Comma$RP$$GT$$GT$17h4467406a7c8f89d5E.llvm.16532739692444164112', symObjAddr: 0x8610, symBinAddr: 0xCC820, symSize: 0xD0 }
  - { offsetInCU: 0x3195E, offset: 0x440EF2, size: 0x8, addend: 0x0, symName: '__ZN4core3ptr89drop_in_place$LT$core..option..Option$LT$alloc..boxed..Box$LT$syn..expr..Expr$GT$$GT$$GT$17hdc211ccd33f196f2E', symObjAddr: 0x86E0, symBinAddr: 0xCC8F0, symSize: 0x50 }
  - { offsetInCU: 0x31B0C, offset: 0x4410A0, size: 0x8, addend: 0x0, symName: '__ZN4core3ptr89drop_in_place$LT$syn..punctuated..Punctuated$LT$syn..pat..Pat$C$syn..token..Comma$GT$$GT$17hf8371102b0500adcE', symObjAddr: 0x8730, symBinAddr: 0xCC940, symSize: 0x120 }
  - { offsetInCU: 0x31F9E, offset: 0x441532, size: 0x8, addend: 0x0, symName: '__ZN4core3ptr89drop_in_place$LT$syn..punctuated..Punctuated$LT$syn..ty..Type$C$syn..token..Comma$GT$$GT$17h1c6e43341fabea97E.llvm.16532739692444164112', symObjAddr: 0x8850, symBinAddr: 0xCCA60, symSize: 0x120 }
  - { offsetInCU: 0x32438, offset: 0x4419CC, size: 0x8, addend: 0x0, symName: '__ZN4core3ptr90drop_in_place$LT$alloc..vec..Vec$LT$$LP$syn..data..Variant$C$syn..token..Comma$RP$$GT$$GT$17h7886d5ad254619b6E.llvm.16532739692444164112', symObjAddr: 0x8970, symBinAddr: 0xCCB80, symSize: 0xD0 }
  - { offsetInCU: 0x3274B, offset: 0x441CDF, size: 0x8, addend: 0x0, symName: '__ZN4core3ptr90drop_in_place$LT$alloc..vec..Vec$LT$$LP$syn..item..UseTree$C$syn..token..Comma$RP$$GT$$GT$17hd641cf5199af6a96E.llvm.16532739692444164112', symObjAddr: 0x8A40, symBinAddr: 0xCCC50, symSize: 0xC0 }
  - { offsetInCU: 0x32A3D, offset: 0x441FD1, size: 0x8, addend: 0x0, symName: '__ZN4core3ptr90drop_in_place$LT$alloc..vec..Vec$LT$$LP$syn..pat..FieldPat$C$syn..token..Comma$RP$$GT$$GT$17h821f3c6217b2c623E.llvm.16532739692444164112', symObjAddr: 0x8B00, symBinAddr: 0xCCD10, symSize: 0xD0 }
  - { offsetInCU: 0x32CFF, offset: 0x442293, size: 0x8, addend: 0x0, symName: '__ZN4core3ptr90drop_in_place$LT$alloc..vec..Vec$LT$$LP$syn..ty..BareFnArg$C$syn..token..Comma$RP$$GT$$GT$17hb8d63f816cfff9deE.llvm.16532739692444164112', symObjAddr: 0x8BD0, symBinAddr: 0xCCDE0, symSize: 0xD0 }
  - { offsetInCU: 0x32FDE, offset: 0x442572, size: 0x8, addend: 0x0, symName: '__ZN4core3ptr90drop_in_place$LT$core..option..Option$LT$alloc..boxed..Box$LT$syn..data..Field$GT$$GT$$GT$17he146e9f4e32c136fE.llvm.16532739692444164112', symObjAddr: 0x8CA0, symBinAddr: 0xCCEB0, symSize: 0x50 }
  - { offsetInCU: 0x33160, offset: 0x4426F4, size: 0x8, addend: 0x0, symName: '__ZN4core3ptr91drop_in_place$LT$syn..punctuated..Punctuated$LT$syn..expr..Expr$C$syn..token..Comma$GT$$GT$17hd2dfeb0c522d9a18E.llvm.16532739692444164112', symObjAddr: 0x8CF0, symBinAddr: 0xCCF00, symSize: 0x120 }
  - { offsetInCU: 0x3360D, offset: 0x442BA1, size: 0x8, addend: 0x0, symName: '__ZN4core3ptr92drop_in_place$LT$core..option..Option$LT$alloc..boxed..Box$LT$syn..data..Variant$GT$$GT$$GT$17h9c9c8f3c1dc56a70E', symObjAddr: 0x8E10, symBinAddr: 0xCD020, symSize: 0x50 }
  - { offsetInCU: 0x337AE, offset: 0x442D42, size: 0x8, addend: 0x0, symName: '__ZN4core3ptr92drop_in_place$LT$syn..punctuated..Punctuated$LT$syn..data..Field$C$syn..token..Comma$GT$$GT$17h907c4fed8ae64bc3E', symObjAddr: 0x8E60, symBinAddr: 0xCD070, symSize: 0x120 }
  - { offsetInCU: 0x33C3B, offset: 0x4431CF, size: 0x8, addend: 0x0, symName: '__ZN4core3ptr93drop_in_place$LT$alloc..vec..Vec$LT$$LP$syn..expr..FieldValue$C$syn..token..Comma$RP$$GT$$GT$17hd798ac33b9d22184E.llvm.16532739692444164112', symObjAddr: 0x9050, symBinAddr: 0xCD190, symSize: 0xD0 }
  - { offsetInCU: 0x33F1A, offset: 0x4434AE, size: 0x8, addend: 0x0, symName: '__ZN4core3ptr93drop_in_place$LT$alloc..vec..Vec$LT$$LP$syn..lifetime..Lifetime$C$syn..token..Add$RP$$GT$$GT$17hde298d17c652af62E.llvm.16532739692444164112', symObjAddr: 0x9120, symBinAddr: 0xCD260, symSize: 0x90 }
  - { offsetInCU: 0x341FC, offset: 0x443790, size: 0x8, addend: 0x0, symName: '__ZN4core3ptr94drop_in_place$LT$syn..punctuated..Punctuated$LT$syn..data..Variant$C$syn..token..Comma$GT$$GT$17hb4480d65f74dc9d7E', symObjAddr: 0x91B0, symBinAddr: 0xCD2F0, symSize: 0x120 }
  - { offsetInCU: 0x346A8, offset: 0x443C3C, size: 0x8, addend: 0x0, symName: '__ZN4core3ptr94drop_in_place$LT$syn..punctuated..Punctuated$LT$syn..item..UseTree$C$syn..token..Comma$GT$$GT$17ha837d38586774c87E', symObjAddr: 0x92D0, symBinAddr: 0xCD410, symSize: 0xF0 }
  - { offsetInCU: 0x349EA, offset: 0x443F7E, size: 0x8, addend: 0x0, symName: '__ZN4core3ptr94drop_in_place$LT$syn..punctuated..Punctuated$LT$syn..pat..FieldPat$C$syn..token..Comma$GT$$GT$17h612cbc9066d5afb1E', symObjAddr: 0x93C0, symBinAddr: 0xCD500, symSize: 0xF0 }
  - { offsetInCU: 0x34CE9, offset: 0x44427D, size: 0x8, addend: 0x0, symName: '__ZN4core3ptr94drop_in_place$LT$syn..punctuated..Punctuated$LT$syn..ty..BareFnArg$C$syn..token..Comma$GT$$GT$17ha9a668ce9972795bE', symObjAddr: 0x94B0, symBinAddr: 0xCD5F0, symSize: 0xF0 }
  - { offsetInCU: 0x34FE6, offset: 0x44457A, size: 0x8, addend: 0x0, symName: '__ZN4core3ptr95drop_in_place$LT$alloc..vec..Vec$LT$$LP$syn..path..PathSegment$C$syn..token..Colon2$RP$$GT$$GT$17hd4ac5ab6c0f8b220E.llvm.16532739692444164112', symObjAddr: 0x95A0, symBinAddr: 0xCD6E0, symSize: 0xD0 }
  - { offsetInCU: 0x352A8, offset: 0x44483C, size: 0x8, addend: 0x0, symName: '__ZN4core3ptr95drop_in_place$LT$core..option..Option$LT$$LP$proc_macro2..Ident$C$syn..token..Colon$RP$$GT$$GT$17h7314df562090eafdE.llvm.16532739692444164112', symObjAddr: 0x9670, symBinAddr: 0xCD7B0, symSize: 0x30 }
  - { offsetInCU: 0x35401, offset: 0x444995, size: 0x8, addend: 0x0, symName: '__ZN4core3ptr96drop_in_place$LT$core..option..Option$LT$alloc..boxed..Box$LT$syn..path..PathSegment$GT$$GT$$GT$17h2e81cbe3c70bb71cE.llvm.16532739692444164112', symObjAddr: 0x96A0, symBinAddr: 0xCD7E0, symSize: 0x180 }
  - { offsetInCU: 0x35B3A, offset: 0x4450CE, size: 0x8, addend: 0x0, symName: '__ZN4core3ptr97drop_in_place$LT$syn..punctuated..Punctuated$LT$syn..attr..NestedMeta$C$syn..token..Comma$GT$$GT$17h975d4de078ee9c5cE', symObjAddr: 0x9870, symBinAddr: 0xCD960, symSize: 0x140 }
  - { offsetInCU: 0x35FAD, offset: 0x445541, size: 0x8, addend: 0x0, symName: '__ZN4core3ptr97drop_in_place$LT$syn..punctuated..Punctuated$LT$syn..expr..FieldValue$C$syn..token..Comma$GT$$GT$17h11a5fffb46adfb11E', symObjAddr: 0x99B0, symBinAddr: 0xCDAA0, symSize: 0xF0 }
  - { offsetInCU: 0x362E8, offset: 0x44587C, size: 0x8, addend: 0x0, symName: '__ZN4core3ptr97drop_in_place$LT$syn..punctuated..Punctuated$LT$syn..lifetime..Lifetime$C$syn..token..Add$GT$$GT$17h5c54dea2c838d109E.llvm.16532739692444164112', symObjAddr: 0x9AA0, symBinAddr: 0xCDB90, symSize: 0xD0 }
  - { offsetInCU: 0x3675C, offset: 0x445CF0, size: 0x8, addend: 0x0, symName: '__ZN4core3ptr98drop_in_place$LT$alloc..vec..Vec$LT$$LP$syn..generics..LifetimeDef$C$syn..token..Comma$RP$$GT$$GT$17h1ff3008828a3546eE.llvm.16532739692444164112', symObjAddr: 0x9B70, symBinAddr: 0xCDC60, symSize: 0xC0 }
  - { offsetInCU: 0x36A1A, offset: 0x445FAE, size: 0x8, addend: 0x0, symName: '__ZN4core3ptr98drop_in_place$LT$alloc..vec..Vec$LT$$LP$syn..path..GenericArgument$C$syn..token..Comma$RP$$GT$$GT$17ha8e33b474744c469E.llvm.16532739692444164112', symObjAddr: 0x9C30, symBinAddr: 0xCDD20, symSize: 0xD0 }
  - { offsetInCU: 0x36D56, offset: 0x4462EA, size: 0x8, addend: 0x0, symName: '__ZN4core3ptr98drop_in_place$LT$syn..punctuated..IntoPairs$LT$syn..path..PathSegment$C$syn..token..Colon2$GT$$GT$17ha9c816c5dc080402E', symObjAddr: 0x9D00, symBinAddr: 0xCDDF0, symSize: 0x50 }
  - { offsetInCU: 0x36E4B, offset: 0x4463DF, size: 0x8, addend: 0x0, symName: '__ZN4core3ptr99drop_in_place$LT$alloc..vec..Vec$LT$$LP$syn..generics..GenericParam$C$syn..token..Comma$RP$$GT$$GT$17h6a63382b7b118436E.llvm.16532739692444164112', symObjAddr: 0x9D50, symBinAddr: 0xCDE40, symSize: 0x60 }
  - { offsetInCU: 0x3708D, offset: 0x446621, size: 0x8, addend: 0x0, symName: '__ZN4core3ptr99drop_in_place$LT$alloc..vec..Vec$LT$$LP$syn..generics..TypeParamBound$C$syn..token..Add$RP$$GT$$GT$17h1faee7dfcf042dc4E.llvm.16532739692444164112', symObjAddr: 0x9DB0, symBinAddr: 0xCDEA0, symSize: 0x60 }
  - { offsetInCU: 0x372D9, offset: 0x44686D, size: 0x8, addend: 0x0, symName: '__ZN4core3ptr99drop_in_place$LT$syn..punctuated..Punctuated$LT$syn..path..PathSegment$C$syn..token..Colon2$GT$$GT$17hb961e4d7989a33ceE', symObjAddr: 0x9E10, symBinAddr: 0xCDF00, symSize: 0x120 }
  - { offsetInCU: 0x40203, offset: 0x44F797, size: 0x8, addend: 0x0, symName: __ZN4core4iter6traits10exact_size17ExactSizeIterator8is_empty17h1bc6241bf1888e40E.llvm.16532739692444164112, symObjAddr: 0x9F30, symBinAddr: 0xCE020, symSize: 0x30 }
  - { offsetInCU: 0x403D4, offset: 0x44F968, size: 0x8, addend: 0x0, symName: __ZN4core4iter6traits10exact_size17ExactSizeIterator8is_empty17h79802a601d507adbE.llvm.16532739692444164112, symObjAddr: 0x9F90, symBinAddr: 0xCE050, symSize: 0x0 }
  - { offsetInCU: 0x4054C, offset: 0x44FAE0, size: 0x8, addend: 0x0, symName: __ZN4core4iter6traits12double_ended19DoubleEndedIterator15advance_back_by17h5eed97009e157134E.llvm.16532739692444164112, symObjAddr: 0xA070, symBinAddr: 0xCE080, symSize: 0x0 }
  - { offsetInCU: 0x40794, offset: 0x44FD28, size: 0x8, addend: 0x0, symName: __ZN4core4iter6traits12double_ended19DoubleEndedIterator15advance_back_by17h653dda07e28b399cE.llvm.16532739692444164112, symObjAddr: 0xA0F0, symBinAddr: 0xCE100, symSize: 0x70 }
  - { offsetInCU: 0x409F9, offset: 0x44FF8D, size: 0x8, addend: 0x0, symName: __ZN4core4iter6traits12double_ended19DoubleEndedIterator8nth_back17h9993a40d5425cb19E.llvm.16532739692444164112, symObjAddr: 0xA310, symBinAddr: 0xCE170, symSize: 0x0 }
  - { offsetInCU: 0x40ED2, offset: 0x450466, size: 0x8, addend: 0x0, symName: __ZN4core4iter6traits12double_ended19DoubleEndedIterator8nth_back17hed9022273c30defeE.llvm.16532739692444164112, symObjAddr: 0xA3B0, symBinAddr: 0xCE210, symSize: 0xA0 }
  - { offsetInCU: 0x4136B, offset: 0x4508FF, size: 0x8, addend: 0x0, symName: __ZN4core4iter6traits8iterator8Iterator10advance_by17h184fda4dfe2fd7b2E.llvm.16532739692444164112, symObjAddr: 0xA450, symBinAddr: 0xCE2B0, symSize: 0x0 }
  - { offsetInCU: 0x4169E, offset: 0x450C32, size: 0x8, addend: 0x0, symName: __ZN4core4iter6traits8iterator8Iterator10advance_by17he4016f4f7eb36f58E.llvm.16532739692444164112, symObjAddr: 0xA590, symBinAddr: 0xCE320, symSize: 0x60 }
  - { offsetInCU: 0x419F0, offset: 0x450F84, size: 0x8, addend: 0x0, symName: __ZN4core4iter6traits8iterator8Iterator3nth17h5c22b47f8967379dE.llvm.16532739692444164112, symObjAddr: 0xA670, symBinAddr: 0xCE380, symSize: 0x0 }
  - { offsetInCU: 0x41FDB, offset: 0x45156F, size: 0x8, addend: 0x0, symName: __ZN4core4iter6traits8iterator8Iterator3nth17he19de029313aec56E.llvm.16532739692444164112, symObjAddr: 0xA770, symBinAddr: 0xCE400, symSize: 0x80 }
  - { offsetInCU: 0x42575, offset: 0x451B09, size: 0x8, addend: 0x0, symName: __ZN4core4iter6traits8iterator8Iterator9size_hint17h0104108dabb19d93E.llvm.16532739692444164112, symObjAddr: 0xA7F0, symBinAddr: 0xCE480, symSize: 0x0 }
  - { offsetInCU: 0x44151, offset: 0x4536E5, size: 0x8, addend: 0x0, symName: _anon.6d16f1a36471c80d3de82dc9b4f7a556.5.llvm.16532739692444164112, symObjAddr: 0x15610, symBinAddr: 0x2E0D38, symSize: 0x0 }
  - { offsetInCU: 0x44224, offset: 0x4537B8, size: 0x8, addend: 0x0, symName: _anon.6d16f1a36471c80d3de82dc9b4f7a556.7.llvm.16532739692444164112, symObjAddr: 0x156C8, symBinAddr: 0x2E0DF0, symSize: 0x0 }
  - { offsetInCU: 0x46491, offset: 0x455A25, size: 0x8, addend: 0x0, symName: '__ZN3syn10punctuated23Punctuated$LT$T$C$P$GT$4iter17hb5b1f3ac16f65eacE', symObjAddr: 0xAA10, symBinAddr: 0xCE4A0, symSize: 0x70 }
  - { offsetInCU: 0x46E5C, offset: 0x4563F0, size: 0x8, addend: 0x0, symName: '__ZN3syn10punctuated23Punctuated$LT$T$C$P$GT$10push_value17h14b7c2c4fe5ffb09E', symObjAddr: 0xAF00, symBinAddr: 0xCE510, symSize: 0xA0 }
  - { offsetInCU: 0x4709B, offset: 0x45662F, size: 0x8, addend: 0x0, symName: '__ZN3syn10punctuated23Punctuated$LT$T$C$P$GT$10push_value17h39f3d53d0765bd8bE', symObjAddr: 0xAFA0, symBinAddr: 0xCE5B0, symSize: 0x0 }
  - { offsetInCU: 0x472CE, offset: 0x456862, size: 0x8, addend: 0x0, symName: '__ZN3syn10punctuated23Punctuated$LT$T$C$P$GT$10push_value17h3ebbefe6892129a3E', symObjAddr: 0xB070, symBinAddr: 0xCE680, symSize: 0xA0 }
  - { offsetInCU: 0x47500, offset: 0x456A94, size: 0x8, addend: 0x0, symName: '__ZN3syn10punctuated23Punctuated$LT$T$C$P$GT$10push_value17h6654a5202d87b9adE', symObjAddr: 0xB110, symBinAddr: 0xCE720, symSize: 0xD0 }
  - { offsetInCU: 0x47733, offset: 0x456CC7, size: 0x8, addend: 0x0, symName: '__ZN3syn10punctuated23Punctuated$LT$T$C$P$GT$10push_value17h68728aa7418e1828E', symObjAddr: 0xB1E0, symBinAddr: 0xCE7F0, symSize: 0xE0 }
  - { offsetInCU: 0x47A70, offset: 0x457004, size: 0x8, addend: 0x0, symName: '__ZN3syn10punctuated23Punctuated$LT$T$C$P$GT$10push_value17h734c18a193061288E', symObjAddr: 0xB2C0, symBinAddr: 0xCE8D0, symSize: 0xD0 }
  - { offsetInCU: 0x47C95, offset: 0x457229, size: 0x8, addend: 0x0, symName: '__ZN3syn10punctuated23Punctuated$LT$T$C$P$GT$10push_value17h738c10366c9a624bE', symObjAddr: 0xB390, symBinAddr: 0xCE9A0, symSize: 0xD0 }
  - { offsetInCU: 0x47EC8, offset: 0x45745C, size: 0x8, addend: 0x0, symName: '__ZN3syn10punctuated23Punctuated$LT$T$C$P$GT$10push_value17h8a453bad6a782ffeE', symObjAddr: 0xB460, symBinAddr: 0xCEA70, symSize: 0xD0 }
  - { offsetInCU: 0x480EE, offset: 0x457682, size: 0x8, addend: 0x0, symName: '__ZN3syn10punctuated23Punctuated$LT$T$C$P$GT$10push_value17h958c5485234fa2d2E', symObjAddr: 0xB530, symBinAddr: 0xCEB40, symSize: 0xA0 }
  - { offsetInCU: 0x4833A, offset: 0x4578CE, size: 0x8, addend: 0x0, symName: '__ZN3syn10punctuated23Punctuated$LT$T$C$P$GT$10push_value17ha121070897ba71bbE', symObjAddr: 0xB5D0, symBinAddr: 0xCEBE0, symSize: 0xD0 }
  - { offsetInCU: 0x4856D, offset: 0x457B01, size: 0x8, addend: 0x0, symName: '__ZN3syn10punctuated23Punctuated$LT$T$C$P$GT$10push_value17hc23a986ec6344064E', symObjAddr: 0xB6A0, symBinAddr: 0xCECB0, symSize: 0xD0 }
  - { offsetInCU: 0x4879F, offset: 0x457D33, size: 0x8, addend: 0x0, symName: '__ZN3syn10punctuated23Punctuated$LT$T$C$P$GT$10push_value17hc8fea27b62230799E', symObjAddr: 0xB770, symBinAddr: 0xCED80, symSize: 0xD0 }
  - { offsetInCU: 0x489D2, offset: 0x457F66, size: 0x8, addend: 0x0, symName: '__ZN3syn10punctuated23Punctuated$LT$T$C$P$GT$10push_value17hd58984c4db98708fE', symObjAddr: 0xB840, symBinAddr: 0xCEE50, symSize: 0xD0 }
  - { offsetInCU: 0x48C05, offset: 0x458199, size: 0x8, addend: 0x0, symName: '__ZN3syn10punctuated23Punctuated$LT$T$C$P$GT$10push_value17he9d5642b6abab872E', symObjAddr: 0xB910, symBinAddr: 0xCEF20, symSize: 0xD0 }
  - { offsetInCU: 0x48E61, offset: 0x4583F5, size: 0x8, addend: 0x0, symName: '__ZN3syn10punctuated23Punctuated$LT$T$C$P$GT$10push_punct17h05097ced3e641863E', symObjAddr: 0xB9E0, symBinAddr: 0xCEFF0, symSize: 0xE0 }
  - { offsetInCU: 0x49212, offset: 0x4587A6, size: 0x8, addend: 0x0, symName: '__ZN3syn10punctuated23Punctuated$LT$T$C$P$GT$10push_punct17h11ba52321bf5bea8E', symObjAddr: 0xBAC0, symBinAddr: 0xCF0D0, symSize: 0xE0 }
  - { offsetInCU: 0x495E3, offset: 0x458B77, size: 0x8, addend: 0x0, symName: '__ZN3syn10punctuated23Punctuated$LT$T$C$P$GT$10push_punct17h2dceda0901d1267aE', symObjAddr: 0xBBA0, symBinAddr: 0xCF1B0, symSize: 0xE0 }
  - { offsetInCU: 0x499B4, offset: 0x458F48, size: 0x8, addend: 0x0, symName: '__ZN3syn10punctuated23Punctuated$LT$T$C$P$GT$10push_punct17h30da73095861d121E', symObjAddr: 0xBC80, symBinAddr: 0xCF290, symSize: 0xE0 }
  - { offsetInCU: 0x49DD3, offset: 0x459367, size: 0x8, addend: 0x0, symName: '__ZN3syn10punctuated23Punctuated$LT$T$C$P$GT$10push_punct17h400c66537f83dc5bE', symObjAddr: 0xBD60, symBinAddr: 0xCF370, symSize: 0x120 }
  - { offsetInCU: 0x4A304, offset: 0x459898, size: 0x8, addend: 0x0, symName: '__ZN3syn10punctuated23Punctuated$LT$T$C$P$GT$10push_punct17h500d37b1c0505005E', symObjAddr: 0xBE80, symBinAddr: 0xCF490, symSize: 0xE0 }
  - { offsetInCU: 0x4A6D5, offset: 0x459C69, size: 0x8, addend: 0x0, symName: '__ZN3syn10punctuated23Punctuated$LT$T$C$P$GT$10push_punct17h53a23ce0aae9ffc1E', symObjAddr: 0xBF60, symBinAddr: 0xCF570, symSize: 0xC0 }
  - { offsetInCU: 0x4AA99, offset: 0x45A02D, size: 0x8, addend: 0x0, symName: '__ZN3syn10punctuated23Punctuated$LT$T$C$P$GT$10push_punct17h70a79c86c88cff65E', symObjAddr: 0xC020, symBinAddr: 0xCF630, symSize: 0xC0 }
  - { offsetInCU: 0x4AE77, offset: 0x45A40B, size: 0x8, addend: 0x0, symName: '__ZN3syn10punctuated23Punctuated$LT$T$C$P$GT$10push_punct17h79f957a4f7bfa4bdE', symObjAddr: 0xC0E0, symBinAddr: 0xCF6F0, symSize: 0xD0 }
  - { offsetInCU: 0x4B248, offset: 0x45A7DC, size: 0x8, addend: 0x0, symName: '__ZN3syn10punctuated23Punctuated$LT$T$C$P$GT$10push_punct17h9ff63fe42d8a305bE', symObjAddr: 0xC1B0, symBinAddr: 0xCF7C0, symSize: 0xE0 }
  - { offsetInCU: 0x4B619, offset: 0x45ABAD, size: 0x8, addend: 0x0, symName: '__ZN3syn10punctuated23Punctuated$LT$T$C$P$GT$10push_punct17haa5636a409edefeeE', symObjAddr: 0xC290, symBinAddr: 0xCF8A0, symSize: 0xE0 }
  - { offsetInCU: 0x4B9EA, offset: 0x45AF7E, size: 0x8, addend: 0x0, symName: '__ZN3syn10punctuated23Punctuated$LT$T$C$P$GT$10push_punct17had77e3ca97751ca0E', symObjAddr: 0xC370, symBinAddr: 0xCF980, symSize: 0x100 }
  - { offsetInCU: 0x4BDBB, offset: 0x45B34F, size: 0x8, addend: 0x0, symName: '__ZN3syn10punctuated23Punctuated$LT$T$C$P$GT$10push_punct17hd1e26f9cc5ff1a0fE', symObjAddr: 0xC470, symBinAddr: 0xCFA80, symSize: 0xD0 }
  - { offsetInCU: 0x4C199, offset: 0x45B72D, size: 0x8, addend: 0x0, symName: '__ZN3syn10punctuated23Punctuated$LT$T$C$P$GT$10push_punct17hd921c69c8d719ce4E', symObjAddr: 0xC540, symBinAddr: 0xCFB50, symSize: 0xE0 }
  - { offsetInCU: 0x4C55D, offset: 0x45BAF1, size: 0x8, addend: 0x0, symName: '__ZN3syn10punctuated23Punctuated$LT$T$C$P$GT$10push_punct17he79340c1cde0cc34E', symObjAddr: 0xC620, symBinAddr: 0xCFC30, symSize: 0xE0 }
  - { offsetInCU: 0x4C921, offset: 0x45BEB5, size: 0x8, addend: 0x0, symName: '__ZN3syn10punctuated23Punctuated$LT$T$C$P$GT$10push_punct17hec278db3946341f0E', symObjAddr: 0xC700, symBinAddr: 0xCFD10, symSize: 0xE0 }
  - { offsetInCU: 0x4CDA1, offset: 0x45C335, size: 0x8, addend: 0x0, symName: '__ZN3syn10punctuated23Punctuated$LT$T$C$P$GT$3pop17h5d3ca22f68e5e0caE', symObjAddr: 0xC7E0, symBinAddr: 0xCFDF0, symSize: 0x90 }
  - { offsetInCU: 0x4D18F, offset: 0x45C723, size: 0x8, addend: 0x0, symName: '__ZN3syn10punctuated23Punctuated$LT$T$C$P$GT$4push17hcfa9ee726330b377E', symObjAddr: 0xC870, symBinAddr: 0xCFE80, symSize: 0x130 }
  - { offsetInCU: 0x4D4FF, offset: 0x45CA93, size: 0x8, addend: 0x0, symName: '__ZN3syn10punctuated23Punctuated$LT$T$C$P$GT$6insert17h4136fb255bf8292aE', symObjAddr: 0xC9A0, symBinAddr: 0xCFFB0, symSize: 0x170 }
  - { offsetInCU: 0x4D8E8, offset: 0x45CE7C, size: 0x8, addend: 0x0, symName: '__ZN3syn10punctuated23Punctuated$LT$T$C$P$GT$5clear17h2c657785aa52c10eE', symObjAddr: 0xCB10, symBinAddr: 0xD0120, symSize: 0xA0 }
  - { offsetInCU: 0x4DD09, offset: 0x45D29D, size: 0x8, addend: 0x0, symName: '__ZN3syn10punctuated23Punctuated$LT$T$C$P$GT$21parse_terminated_with17h0d42de968702d743E', symObjAddr: 0xCBB0, symBinAddr: 0xD01C0, symSize: 0x320 }
  - { offsetInCU: 0x4E6D9, offset: 0x45DC6D, size: 0x8, addend: 0x0, symName: '__ZN3syn10punctuated23Punctuated$LT$T$C$P$GT$21parse_terminated_with17h3502cbc50f6e66fbE', symObjAddr: 0xCED0, symBinAddr: 0xD04E0, symSize: 0x340 }
  - { offsetInCU: 0x4F086, offset: 0x45E61A, size: 0x8, addend: 0x0, symName: '__ZN3syn10punctuated23Punctuated$LT$T$C$P$GT$21parse_terminated_with17h5843760d31b55a9fE', symObjAddr: 0xD3E0, symBinAddr: 0xD0820, symSize: 0x330 }
  - { offsetInCU: 0x4FAD6, offset: 0x45F06A, size: 0x8, addend: 0x0, symName: '__ZN3syn10punctuated23Punctuated$LT$T$C$P$GT$21parse_terminated_with17ha0e926b3a5c69310E', symObjAddr: 0xD8E0, symBinAddr: 0xD0B50, symSize: 0x420 }
  - { offsetInCU: 0x2340, offset: 0x4688BD, size: 0x8, addend: 0x0, symName: '__ZN3syn4expr8printing82_$LT$impl$u20$quote..to_tokens..ToTokens$u20$for$u20$syn..expr..ExprMethodCall$GT$9to_tokens17h52deca7c2bdcde8fE', symObjAddr: 0x11080, symBinAddr: 0xE05A0, symSize: 0x260 }
  - { offsetInCU: 0x2E12, offset: 0x46938F, size: 0x8, addend: 0x0, symName: '__ZN3syn4expr8printing77_$LT$impl$u20$quote..to_tokens..ToTokens$u20$for$u20$syn..expr..ExprWhile$GT$9to_tokens17hb73b17451a9f393bE', symObjAddr: 0x11DD0, symBinAddr: 0xE0800, symSize: 0x220 }
  - { offsetInCU: 0x350A, offset: 0x469A87, size: 0x8, addend: 0x0, symName: '__ZN3syn4expr8printing79_$LT$impl$u20$quote..to_tokens..ToTokens$u20$for$u20$syn..expr..ExprForLoop$GT$9to_tokens17hc158e0517546c263E', symObjAddr: 0x11FF0, symBinAddr: 0xE0A20, symSize: 0x2A0 }
  - { offsetInCU: 0x3E39, offset: 0x46A3B6, size: 0x8, addend: 0x0, symName: '__ZN3syn4expr8printing79_$LT$impl$u20$quote..to_tokens..ToTokens$u20$for$u20$syn..expr..ExprClosure$GT$9to_tokens17h02addd229d205f12E', symObjAddr: 0x12C10, symBinAddr: 0xE0CC0, symSize: 0x350 }
  - { offsetInCU: 0x4B75, offset: 0x46B0F2, size: 0x8, addend: 0x0, symName: '__ZN3syn4expr8printing74_$LT$impl$u20$quote..to_tokens..ToTokens$u20$for$u20$syn..expr..Member$GT$9to_tokens17hc47f96e76f134d40E', symObjAddr: 0x134F0, symBinAddr: 0xE1010, symSize: 0xC0 }
  - { offsetInCU: 0x4E42, offset: 0x46B3BF, size: 0x8, addend: 0x0, symName: '__ZN3syn4expr8printing73_$LT$impl$u20$quote..to_tokens..ToTokens$u20$for$u20$syn..expr..Index$GT$9to_tokens17h24b137fc9fb1190eE', symObjAddr: 0x135B0, symBinAddr: 0xE10D0, symSize: 0xB0 }
  - { offsetInCU: 0x53B9, offset: 0x46B936, size: 0x8, addend: 0x0, symName: '__ZN3syn4expr8printing78_$LT$impl$u20$quote..to_tokens..ToTokens$u20$for$u20$syn..expr..FieldValue$GT$9to_tokens17hca3924738fecf8aaE', symObjAddr: 0x14670, symBinAddr: 0xE1180, symSize: 0x1C0 }
  - { offsetInCU: 0x5A48, offset: 0x46BFC5, size: 0x8, addend: 0x0, symName: '__ZN3syn4expr8printing71_$LT$impl$u20$quote..to_tokens..ToTokens$u20$for$u20$syn..expr..Arm$GT$9to_tokens17hfe03b45f4f23e934E', symObjAddr: 0x14830, symBinAddr: 0xE1340, symSize: 0x1D0 }
  - { offsetInCU: 0x5E83, offset: 0x46C400, size: 0x8, addend: 0x0, symName: '__ZN3syn4expr7parsing63_$LT$impl$u20$syn..parse..Parse$u20$for$u20$syn..expr..Expr$GT$5parse17hc5dd14a6ed6ae10aE', symObjAddr: 0xA160, symBinAddr: 0xDA740, symSize: 0xF0 }
  - { offsetInCU: 0x5F33, offset: 0x46C4B0, size: 0x8, addend: 0x0, symName: '__ZN3syn4expr7parsing66_$LT$impl$u20$syn..parse..Parse$u20$for$u20$syn..expr..ExprLit$GT$5parse17hcc638e3114e2713bE', symObjAddr: 0xAB80, symBinAddr: 0xDA830, symSize: 0xF0 }
  - { offsetInCU: 0x6046, offset: 0x46C5C3, size: 0x8, addend: 0x0, symName: '__ZN3syn4expr7parsing80_$LT$impl$u20$syn..parse..Parse$u20$for$u20$syn..expr..GenericMethodArgument$GT$5parse17h9e0e87e386c05d46E', symObjAddr: 0xAC90, symBinAddr: 0xDA920, symSize: 0x2E0 }
  - { offsetInCU: 0x63E5, offset: 0x46C962, size: 0x8, addend: 0x0, symName: '__ZN3syn4expr7parsing74_$LT$impl$u20$syn..parse..Parse$u20$for$u20$syn..expr..MethodTurbofish$GT$5parse17hc687ec8e69e7b20fE', symObjAddr: 0xAF70, symBinAddr: 0xDAC00, symSize: 0x350 }
  - { offsetInCU: 0x68F5, offset: 0x46CE72, size: 0x8, addend: 0x0, symName: '__ZN3syn4expr7parsing66_$LT$impl$u20$syn..parse..Parse$u20$for$u20$syn..expr..ExprLet$GT$5parse17hb569fb53f5daeca8E', symObjAddr: 0xB2C0, symBinAddr: 0xDAF50, symSize: 0x4C0 }
  - { offsetInCU: 0x6E9A, offset: 0x46D417, size: 0x8, addend: 0x0, symName: '__ZN3syn4expr7parsing65_$LT$impl$u20$syn..parse..Parse$u20$for$u20$syn..expr..ExprIf$GT$5parse17hc3bbb8a442518a70E', symObjAddr: 0xB780, symBinAddr: 0xDB410, symSize: 0x700 }
  - { offsetInCU: 0x7848, offset: 0x46DDC5, size: 0x8, addend: 0x0, symName: '__ZN3syn4expr7parsing70_$LT$impl$u20$syn..parse..Parse$u20$for$u20$syn..expr..ExprForLoop$GT$5parse17h70f397294e42a49dE', symObjAddr: 0xBE80, symBinAddr: 0xDBB10, symSize: 0xA40 }
  - { offsetInCU: 0x871A, offset: 0x46EC97, size: 0x8, addend: 0x0, symName: '__ZN3syn4expr7parsing67_$LT$impl$u20$syn..parse..Parse$u20$for$u20$syn..expr..ExprLoop$GT$5parse17h2feb6f1c5e586e7dE', symObjAddr: 0xC8C0, symBinAddr: 0xDC550, symSize: 0x560 }
  - { offsetInCU: 0x9415, offset: 0x46F992, size: 0x8, addend: 0x0, symName: '__ZN3syn4expr7parsing68_$LT$impl$u20$syn..parse..Parse$u20$for$u20$syn..expr..ExprMatch$GT$5parse17hd6f41d4fa4c8de12E', symObjAddr: 0xCE20, symBinAddr: 0xDCAB0, symSize: 0x820 }
  - { offsetInCU: 0xA364, offset: 0x4708E1, size: 0x8, addend: 0x0, symName: '__ZN3syn4expr7parsing71_$LT$impl$u20$syn..parse..Parse$u20$for$u20$syn..expr..ExprTryBlock$GT$5parse17h5554543154d3c4b6E', symObjAddr: 0xD9A0, symBinAddr: 0xDD2D0, symSize: 0x140 }
  - { offsetInCU: 0xA4F6, offset: 0x470A73, size: 0x8, addend: 0x0, symName: '__ZN3syn4expr7parsing68_$LT$impl$u20$syn..parse..Parse$u20$for$u20$syn..expr..ExprYield$GT$5parse17hc3f7685155a8ca99E', symObjAddr: 0xDAE0, symBinAddr: 0xDD410, symSize: 0x150 }
  - { offsetInCU: 0xA87B, offset: 0x470DF8, size: 0x8, addend: 0x0, symName: '__ZN3syn4expr7parsing68_$LT$impl$u20$syn..parse..Parse$u20$for$u20$syn..expr..ExprAsync$GT$5parse17he43ed43a6e470a06E', symObjAddr: 0xDC30, symBinAddr: 0xDD560, symSize: 0x1D0 }
  - { offsetInCU: 0xAB90, offset: 0x47110D, size: 0x8, addend: 0x0, symName: '__ZN3syn4expr7parsing68_$LT$impl$u20$syn..parse..Parse$u20$for$u20$syn..expr..ExprWhile$GT$5parse17h94fbc04744e04bd5E', symObjAddr: 0xDE00, symBinAddr: 0xDD730, symSize: 0x8A0 }
  - { offsetInCU: 0xB8B4, offset: 0x471E31, size: 0x8, addend: 0x0, symName: '__ZN3syn4expr7parsing64_$LT$impl$u20$syn..parse..Parse$u20$for$u20$syn..expr..Label$GT$5parse17h4b99929e595412a8E', symObjAddr: 0xE6A0, symBinAddr: 0xDDFD0, symSize: 0x230 }
  - { offsetInCU: 0xBD6E, offset: 0x4722EB, size: 0x8, addend: 0x0, symName: '__ZN3syn4expr7parsing71_$LT$impl$u20$syn..parse..Parse$u20$for$u20$syn..expr..ExprContinue$GT$5parse17hd8b0e00434855c5dE', symObjAddr: 0xE8D0, symBinAddr: 0xDE200, symSize: 0x1B0 }
  - { offsetInCU: 0xBEF1, offset: 0x47246E, size: 0x8, addend: 0x0, symName: '__ZN3syn4expr7parsing69_$LT$impl$u20$syn..parse..Parse$u20$for$u20$syn..expr..FieldValue$GT$5parse17h789c7fa607c23413E', symObjAddr: 0xEA80, symBinAddr: 0xDE3B0, symSize: 0x6D0 }
  - { offsetInCU: 0xC9B0, offset: 0x472F2D, size: 0x8, addend: 0x0, symName: '__ZN3syn4expr7parsing69_$LT$impl$u20$syn..parse..Parse$u20$for$u20$syn..expr..ExprUnsafe$GT$5parse17ha2c47789b9924b10E', symObjAddr: 0xF210, symBinAddr: 0xDEA80, symSize: 0x3A0 }
  - { offsetInCU: 0xD1F4, offset: 0x473771, size: 0x8, addend: 0x0, symName: '__ZN3syn4expr7parsing68_$LT$impl$u20$syn..parse..Parse$u20$for$u20$syn..expr..ExprBlock$GT$5parse17h5f8eacd79eed7a3aE', symObjAddr: 0xF5B0, symBinAddr: 0xDEE20, symSize: 0x540 }
  - { offsetInCU: 0xDEE2, offset: 0x47445F, size: 0x8, addend: 0x0, symName: '__ZN3syn4expr7parsing70_$LT$impl$u20$syn..parse..Parse$u20$for$u20$syn..expr..RangeLimits$GT$5parse17h55d2abebfdd8f5b2E', symObjAddr: 0xFAF0, symBinAddr: 0xDF360, symSize: 0x330 }
  - { offsetInCU: 0xED9F, offset: 0x47531C, size: 0x8, addend: 0x0, symName: '__ZN3syn4expr7parsing67_$LT$impl$u20$syn..parse..Parse$u20$for$u20$syn..expr..ExprPath$GT$5parse17h5999d7526d4caa01E', symObjAddr: 0xFE20, symBinAddr: 0xDF690, symSize: 0x270 }
  - { offsetInCU: 0xF1ED, offset: 0x47576A, size: 0x8, addend: 0x0, symName: '__ZN3syn4expr7parsing65_$LT$impl$u20$syn..parse..Parse$u20$for$u20$syn..expr..Member$GT$5parse17h3c1f6e1ffd72b36eE', symObjAddr: 0x10090, symBinAddr: 0xDF900, symSize: 0xE0 }
  - { offsetInCU: 0xF45E, offset: 0x4759DB, size: 0x8, addend: 0x0, symName: '__ZN3syn4expr7parsing62_$LT$impl$u20$syn..parse..Parse$u20$for$u20$syn..expr..Arm$GT$5parse17h4853f2ad1c1812eeE', symObjAddr: 0x10170, symBinAddr: 0xDF9E0, symSize: 0xA40 }
  - { offsetInCU: 0x1039B, offset: 0x476918, size: 0x8, addend: 0x0, symName: '__ZN3syn4expr7parsing64_$LT$impl$u20$syn..parse..Parse$u20$for$u20$syn..expr..Index$GT$5parse17hde4030d96c40375eE', symObjAddr: 0x10BB0, symBinAddr: 0xE0420, symSize: 0x180 }
  - { offsetInCU: 0x10A24, offset: 0x476FA1, size: 0x8, addend: 0x0, symName: '__ZN62_$LT$syn..expr..Expr$u20$as$u20$quote..to_tokens..ToTokens$GT$9to_tokens17h26366c1ee5ef5979E', symObjAddr: 0x14A00, symBinAddr: 0xE1510, symSize: 0x2820 }
  - { offsetInCU: 0x1DB91, offset: 0x48410E, size: 0x8, addend: 0x0, symName: '__ZN3syn3gen5clone63_$LT$impl$u20$core..clone..Clone$u20$for$u20$syn..expr..Arm$GT$5clone17head7f5f2381c2f20E', symObjAddr: 0x1E2C0, symBinAddr: 0xE3D30, symSize: 0x1F0 }
  - { offsetInCU: 0x1E530, offset: 0x484AAD, size: 0x8, addend: 0x0, symName: '__ZN3syn3gen5clone64_$LT$impl$u20$core..clone..Clone$u20$for$u20$syn..expr..Expr$GT$5clone17h8dc5de0cb7452941E', symObjAddr: 0x1E4B0, symBinAddr: 0xE3F20, symSize: 0x2100 }
  - { offsetInCU: 0x22D67, offset: 0x4892E4, size: 0x8, addend: 0x0, symName: '__ZN3syn3gen5clone69_$LT$impl$u20$core..clone..Clone$u20$for$u20$syn..expr..ExprBlock$GT$5clone17ha50b14e34c23c7c7E', symObjAddr: 0x20AD0, symBinAddr: 0xE6020, symSize: 0x130 }
  - { offsetInCU: 0x23020, offset: 0x48959D, size: 0x8, addend: 0x0, symName: '__ZN3syn3gen5clone69_$LT$impl$u20$core..clone..Clone$u20$for$u20$syn..expr..ExprBreak$GT$5clone17hf7f419b5514dda66E', symObjAddr: 0x20CE0, symBinAddr: 0xE6150, symSize: 0x1A0 }
  - { offsetInCU: 0x234D1, offset: 0x489A4E, size: 0x8, addend: 0x0, symName: '__ZN3syn3gen5clone71_$LT$impl$u20$core..clone..Clone$u20$for$u20$syn..expr..ExprClosure$GT$5clone17ha4bc3a4adb677c0bE', symObjAddr: 0x21130, symBinAddr: 0xE62F0, symSize: 0x240 }
  - { offsetInCU: 0x23A8A, offset: 0x48A007, size: 0x8, addend: 0x0, symName: '__ZN3syn3gen5clone71_$LT$impl$u20$core..clone..Clone$u20$for$u20$syn..expr..ExprForLoop$GT$5clone17hb2e9cd210a53c157E', symObjAddr: 0x21580, symBinAddr: 0xE6530, symSize: 0x270 }
  - { offsetInCU: 0x23FC5, offset: 0x48A542, size: 0x8, addend: 0x0, symName: '__ZN3syn3gen5clone66_$LT$impl$u20$core..clone..Clone$u20$for$u20$syn..expr..ExprIf$GT$5clone17habee9e19780c03d0E', symObjAddr: 0x217F0, symBinAddr: 0xE67A0, symSize: 0x1D0 }
  - { offsetInCU: 0x244E7, offset: 0x48AA64, size: 0x8, addend: 0x0, symName: '__ZN3syn3gen5clone68_$LT$impl$u20$core..clone..Clone$u20$for$u20$syn..expr..ExprLoop$GT$5clone17hbfc8e04a26dc7d1cE', symObjAddr: 0x21CF0, symBinAddr: 0xE6970, symSize: 0x140 }
  - { offsetInCU: 0x247DA, offset: 0x48AD57, size: 0x8, addend: 0x0, symName: '__ZN3syn3gen5clone74_$LT$impl$u20$core..clone..Clone$u20$for$u20$syn..expr..ExprMethodCall$GT$5clone17h19dd05a260dc7f51E', symObjAddr: 0x22000, symBinAddr: 0xE6AB0, symSize: 0x400 }
  - { offsetInCU: 0x251B0, offset: 0x48B72D, size: 0x8, addend: 0x0, symName: '__ZN3syn3gen5clone68_$LT$impl$u20$core..clone..Clone$u20$for$u20$syn..expr..ExprPath$GT$5clone17hf4002bcc8fbcc188E', symObjAddr: 0x22400, symBinAddr: 0xE6EB0, symSize: 0x1B0 }
  - { offsetInCU: 0x2551D, offset: 0x48BA9A, size: 0x8, addend: 0x0, symName: '__ZN3syn3gen5clone69_$LT$impl$u20$core..clone..Clone$u20$for$u20$syn..expr..ExprRange$GT$5clone17hd8f8dbfaae951ec7E', symObjAddr: 0x225B0, symBinAddr: 0xE7060, symSize: 0x1A0 }
  - { offsetInCU: 0x25A2A, offset: 0x48BFA7, size: 0x8, addend: 0x0, symName: '__ZN3syn3gen5clone70_$LT$impl$u20$core..clone..Clone$u20$for$u20$syn..expr..ExprStruct$GT$5clone17h0216c4a487034cceE', symObjAddr: 0x229D0, symBinAddr: 0xE7200, symSize: 0x270 }
  - { offsetInCU: 0x25FB4, offset: 0x48C531, size: 0x8, addend: 0x0, symName: '__ZN3syn3gen5clone69_$LT$impl$u20$core..clone..Clone$u20$for$u20$syn..expr..ExprWhile$GT$5clone17h9117bae495ae712bE', symObjAddr: 0x23010, symBinAddr: 0xE7470, symSize: 0x1F0 }
  - { offsetInCU: 0x264C0, offset: 0x48CA3D, size: 0x8, addend: 0x0, symName: '__ZN3syn3gen5clone70_$LT$impl$u20$core..clone..Clone$u20$for$u20$syn..expr..FieldValue$GT$5clone17hca1e6a1a3e6abb5fE', symObjAddr: 0x232F0, symBinAddr: 0xE7660, symSize: 0x150 }
  - { offsetInCU: 0x2895E, offset: 0x48EEDB, size: 0x8, addend: 0x0, symName: '__ZN4core3ptr100drop_in_place$LT$core..option..Option$LT$alloc..boxed..Box$LT$syn..generics..LifetimeDef$GT$$GT$$GT$17h75a6086997697dd7E', symObjAddr: 0x300, symBinAddr: 0xD28D0, symSize: 0x150 }
  - { offsetInCU: 0x28EDA, offset: 0x48F457, size: 0x8, addend: 0x0, symName: '__ZN4core3ptr100drop_in_place$LT$core..option..Option$LT$alloc..boxed..Box$LT$syn..path..GenericArgument$GT$$GT$$GT$17h3d29ec00a8f1918dE', symObjAddr: 0x450, symBinAddr: 0xD2A20, symSize: 0x50 }
  - { offsetInCU: 0x29123, offset: 0x48F6A0, size: 0x8, addend: 0x0, symName: '__ZN4core3ptr103drop_in_place$LT$syn..punctuated..Punctuated$LT$syn..generics..TypeParamBound$C$syn..token..Add$GT$$GT$17he811d520c92af08aE', symObjAddr: 0x4A0, symBinAddr: 0xD2A70, symSize: 0xF0 }
  - { offsetInCU: 0x29692, offset: 0x48FC0F, size: 0x8, addend: 0x0, symName: '__ZN4core3ptr106drop_in_place$LT$core..option..Option$LT$alloc..boxed..Box$LT$syn..expr..GenericMethodArgument$GT$$GT$$GT$17h96ed0a5acdf7b53bE', symObjAddr: 0x590, symBinAddr: 0xD2B60, symSize: 0x70 }
  - { offsetInCU: 0x29876, offset: 0x48FDF3, size: 0x8, addend: 0x0, symName: '__ZN4core3ptr108drop_in_place$LT$syn..punctuated..Punctuated$LT$syn..expr..GenericMethodArgument$C$syn..token..Comma$GT$$GT$17h92cbabe4862b2183E', symObjAddr: 0x600, symBinAddr: 0xD2BD0, symSize: 0x150 }
  - { offsetInCU: 0x29D29, offset: 0x4902A6, size: 0x8, addend: 0x0, symName: '__ZN4core3ptr114drop_in_place$LT$core..option..Option$LT$$LP$syn..token..If$C$alloc..boxed..Box$LT$syn..expr..Expr$GT$$RP$$GT$$GT$17hf2aa3e1ea6c77ac4E.llvm.8444515518860579797', symObjAddr: 0x750, symBinAddr: 0xD2D20, symSize: 0x50 }
  - { offsetInCU: 0x29F58, offset: 0x4904D5, size: 0x8, addend: 0x0, symName: '__ZN4core3ptr34drop_in_place$LT$syn..lit..Lit$GT$17hbe1efe749a08dd9aE', symObjAddr: 0x7A0, symBinAddr: 0xD2D70, symSize: 0x120 }
  - { offsetInCU: 0x2A472, offset: 0x4909EF, size: 0x8, addend: 0x0, symName: '__ZN4core3ptr34drop_in_place$LT$syn..pat..Pat$GT$17h3201f642e43ac2a2E.llvm.8444515518860579797', symObjAddr: 0x8C0, symBinAddr: 0xD2E90, symSize: 0x1190 }
  - { offsetInCU: 0x2E38A, offset: 0x494907, size: 0x8, addend: 0x0, symName: '__ZN4core3ptr34drop_in_place$LT$syn..ty..Type$GT$17hfb5d159a08190130E.llvm.8444515518860579797', symObjAddr: 0x1A50, symBinAddr: 0xD4020, symSize: 0x580 }
  - { offsetInCU: 0x2F612, offset: 0x495B8F, size: 0x8, addend: 0x0, symName: '__ZN4core3ptr35drop_in_place$LT$syn..expr..Arm$GT$17h2f058dcaecfc86d5E', symObjAddr: 0x1FD0, symBinAddr: 0xD45A0, symSize: 0x190 }
  - { offsetInCU: 0x2FF8E, offset: 0x49650B, size: 0x8, addend: 0x0, symName: '__ZN4core3ptr36drop_in_place$LT$syn..expr..Expr$GT$17hf1921d1b09462bc3E.llvm.8444515518860579797', symObjAddr: 0x2160, symBinAddr: 0xD4730, symSize: 0x1E60 }
  - { offsetInCU: 0x3684A, offset: 0x49CDC7, size: 0x8, addend: 0x0, symName: '__ZN4core3ptr36drop_in_place$LT$syn..mac..Macro$GT$17h205613d7ad575f72E', symObjAddr: 0x3FC0, symBinAddr: 0xD6590, symSize: 0x40 }
  - { offsetInCU: 0x3699B, offset: 0x49CF18, size: 0x8, addend: 0x0, symName: '__ZN4core3ptr36drop_in_place$LT$syn..path..Path$GT$17he6d0bec66d66b98aE', symObjAddr: 0x4000, symBinAddr: 0xD65D0, symSize: 0x230 }
  - { offsetInCU: 0x3736F, offset: 0x49D8EC, size: 0x8, addend: 0x0, symName: '__ZN4core3ptr37drop_in_place$LT$syn..lit..LitInt$GT$17h81ad5befc6ce2d73E.llvm.8444515518860579797', symObjAddr: 0x4230, symBinAddr: 0xD6800, symSize: 0x70 }
  - { offsetInCU: 0x3771F, offset: 0x49DC9C, size: 0x8, addend: 0x0, symName: '__ZN4core3ptr37drop_in_place$LT$syn..stmt..Block$GT$17h3aa429e75a234230E', symObjAddr: 0x42A0, symBinAddr: 0xD6870, symSize: 0xD0 }
  - { offsetInCU: 0x37A53, offset: 0x49DFD0, size: 0x8, addend: 0x0, symName: '__ZN4core3ptr38drop_in_place$LT$syn..expr..ExprIf$GT$17hec63a1943e3da109E', symObjAddr: 0x4370, symBinAddr: 0xD6940, symSize: 0x220 }
  - { offsetInCU: 0x38315, offset: 0x49E892, size: 0x8, addend: 0x0, symName: '__ZN4core3ptr38drop_in_place$LT$syn..expr..Member$GT$17ha113d37a67d27aafE.llvm.8444515518860579797', symObjAddr: 0x4590, symBinAddr: 0xD6B60, symSize: 0x30 }
  - { offsetInCU: 0x38411, offset: 0x49E98E, size: 0x8, addend: 0x0, symName: '__ZN4core3ptr39drop_in_place$LT$proc_macro2..Ident$GT$17hdeec010483268a0dE', symObjAddr: 0x45C0, symBinAddr: 0xD6B90, symSize: 0x30 }
  - { offsetInCU: 0x384EE, offset: 0x49EA6B, size: 0x8, addend: 0x0, symName: '__ZN4core3ptr39drop_in_place$LT$syn..pat..PatTuple$GT$17h96faeea9832d4c4bE', symObjAddr: 0x4950, symBinAddr: 0xD6BC0, symSize: 0x100 }
  - { offsetInCU: 0x38835, offset: 0x49EDB2, size: 0x8, addend: 0x0, symName: '__ZN4core3ptr40drop_in_place$LT$syn..expr..ExprLoop$GT$17h9e505579fd62ef6fE', symObjAddr: 0x4CE0, symBinAddr: 0xD6CC0, symSize: 0x1D0 }
  - { offsetInCU: 0x38F64, offset: 0x49F4E1, size: 0x8, addend: 0x0, symName: '__ZN4core3ptr40drop_in_place$LT$syn..ty..ReturnType$GT$17h6f97c9fdb958983eE', symObjAddr: 0x4FF0, symBinAddr: 0xD6E90, symSize: 0x50 }
  - { offsetInCU: 0x390D4, offset: 0x49F651, size: 0x8, addend: 0x0, symName: '__ZN4core3ptr41drop_in_place$LT$syn..expr..ExprAsync$GT$17ha9124cede2896008E', symObjAddr: 0x5170, symBinAddr: 0xD6EE0, symSize: 0x1B0 }
  - { offsetInCU: 0x396C7, offset: 0x49FC44, size: 0x8, addend: 0x0, symName: '__ZN4core3ptr41drop_in_place$LT$syn..expr..ExprBlock$GT$17h7a5a7c5008d30d27E', symObjAddr: 0x5320, symBinAddr: 0xD7090, symSize: 0x1D0 }
  - { offsetInCU: 0x39E15, offset: 0x4A0392, size: 0x8, addend: 0x0, symName: '__ZN4core3ptr41drop_in_place$LT$syn..expr..ExprWhile$GT$17hf221395746fac5b6E', symObjAddr: 0x5EC0, symBinAddr: 0xD7260, symSize: 0x220 }
  - { offsetInCU: 0x3A74F, offset: 0x4A0CCC, size: 0x8, addend: 0x0, symName: '__ZN4core3ptr42drop_in_place$LT$syn..expr..ExprStruct$GT$17hcd4a233ae9f7b2e4E', symObjAddr: 0x6380, symBinAddr: 0xD7480, symSize: 0x250 }
  - { offsetInCU: 0x3B059, offset: 0x4A15D6, size: 0x8, addend: 0x0, symName: '__ZN4core3ptr42drop_in_place$LT$syn..expr..ExprUnsafe$GT$17h1385f05be3ed92a0E', symObjAddr: 0x65D0, symBinAddr: 0xD76D0, symSize: 0x1B0 }
  - { offsetInCU: 0x3B64C, offset: 0x4A1BC9, size: 0x8, addend: 0x0, symName: '__ZN4core3ptr42drop_in_place$LT$syn..expr..FieldValue$GT$17h42a16bcbdc918058E', symObjAddr: 0x6780, symBinAddr: 0xD7880, symSize: 0x140 }
  - { offsetInCU: 0x3BAD8, offset: 0x4A2055, size: 0x8, addend: 0x0, symName: '__ZN4core3ptr43drop_in_place$LT$syn..expr..ExprClosure$GT$17h33394450256957a8E', symObjAddr: 0x68C0, symBinAddr: 0xD79C0, symSize: 0x270 }
  - { offsetInCU: 0x3C531, offset: 0x4A2AAE, size: 0x8, addend: 0x0, symName: '__ZN4core3ptr43drop_in_place$LT$syn..expr..ExprForLoop$GT$17hdb72d4fbe32f57c8E', symObjAddr: 0x6B30, symBinAddr: 0xD7C30, symSize: 0x240 }
  - { offsetInCU: 0x3CDA8, offset: 0x4A3325, size: 0x8, addend: 0x0, symName: '__ZN4core3ptr44drop_in_place$LT$syn..lifetime..Lifetime$GT$17h3858225df033648aE', symObjAddr: 0x6E80, symBinAddr: 0xD7E70, symSize: 0x30 }
  - { offsetInCU: 0x3CF20, offset: 0x4A349D, size: 0x8, addend: 0x0, symName: '__ZN4core3ptr44drop_in_place$LT$syn..parse..ParseBuffer$GT$17h19c266fcccc430cbE', symObjAddr: 0x6EB0, symBinAddr: 0xD7EA0, symSize: 0x70 }
  - { offsetInCU: 0x3D337, offset: 0x4A38B4, size: 0x8, addend: 0x0, symName: '__ZN4core3ptr45drop_in_place$LT$proc_macro2..TokenStream$GT$17h2507cb30e765dc85E.llvm.8444515518860579797', symObjAddr: 0x6F20, symBinAddr: 0xD7F10, symSize: 0x140 }
  - { offsetInCU: 0x3D84E, offset: 0x4A3DCB, size: 0x8, addend: 0x0, symName: '__ZN4core3ptr46drop_in_place$LT$syn..expr..ExprMethodCall$GT$17hc2c41e6c148679f7E', symObjAddr: 0x7190, symBinAddr: 0xD8050, symSize: 0x3A0 }
  - { offsetInCU: 0x3E6EE, offset: 0x4A4C6B, size: 0x8, addend: 0x0, symName: '__ZN4core3ptr47drop_in_place$LT$syn..expr..MethodTurbofish$GT$17hfb737c85726076f0E', symObjAddr: 0x7530, symBinAddr: 0xD83F0, symSize: 0x150 }
  - { offsetInCU: 0x3EBB8, offset: 0x4A5135, size: 0x8, addend: 0x0, symName: '__ZN4core3ptr47drop_in_place$LT$syn..path..GenericArgument$GT$17h8c0a0d8c6deaefb4E', symObjAddr: 0x7680, symBinAddr: 0xD8540, symSize: 0x110 }
  - { offsetInCU: 0x3EED3, offset: 0x4A5450, size: 0x8, addend: 0x0, symName: '__ZN4core3ptr58drop_in_place$LT$alloc..vec..Vec$LT$syn..expr..Arm$GT$$GT$17hf3db0825f3d9c861E', symObjAddr: 0x7790, symBinAddr: 0xD8650, symSize: 0xD0 }
  - { offsetInCU: 0x3F193, offset: 0x4A5710, size: 0x8, addend: 0x0, symName: '__ZN4core3ptr59drop_in_place$LT$alloc..boxed..Box$LT$syn..pat..Pat$GT$$GT$17h7037ce9bbd3729c6E', symObjAddr: 0x7860, symBinAddr: 0xD8720, symSize: 0x50 }
  - { offsetInCU: 0x3F2EC, offset: 0x4A5869, size: 0x8, addend: 0x0, symName: '__ZN4core3ptr59drop_in_place$LT$alloc..boxed..Box$LT$syn..ty..Type$GT$$GT$17h2eccd13329dbe4faE', symObjAddr: 0x78B0, symBinAddr: 0xD8770, symSize: 0x50 }
  - { offsetInCU: 0x3F445, offset: 0x4A59C2, size: 0x8, addend: 0x0, symName: '__ZN4core3ptr59drop_in_place$LT$alloc..vec..Vec$LT$syn..stmt..Stmt$GT$$GT$17hed4646381107e302E', symObjAddr: 0x7900, symBinAddr: 0xD87C0, symSize: 0xD0 }
  - { offsetInCU: 0x3F705, offset: 0x4A5C82, size: 0x8, addend: 0x0, symName: '__ZN4core3ptr61drop_in_place$LT$alloc..boxed..Box$LT$syn..expr..Expr$GT$$GT$17h66094ddc89015516E', symObjAddr: 0x79D0, symBinAddr: 0xD8890, symSize: 0x50 }
  - { offsetInCU: 0x3F8DA, offset: 0x4A5E57, size: 0x8, addend: 0x0, symName: '__ZN4core3ptr61drop_in_place$LT$syn..path..ParenthesizedGenericArguments$GT$17h21be9b1d7a6fab55E', symObjAddr: 0x7A20, symBinAddr: 0xD88E0, symSize: 0x170 }
  - { offsetInCU: 0x3FED0, offset: 0x4A644D, size: 0x8, addend: 0x0, symName: '__ZN4core3ptr63drop_in_place$LT$alloc..boxed..Box$LT$syn..lit..LitRepr$GT$$GT$17h9c509b794406150eE', symObjAddr: 0x7B90, symBinAddr: 0xD8A50, symSize: 0x60 }
  - { offsetInCU: 0x401B8, offset: 0x4A6735, size: 0x8, addend: 0x0, symName: '__ZN4core3ptr64drop_in_place$LT$alloc..boxed..Box$LT$syn..pat..FieldPat$GT$$GT$17hb167b355d0d4733fE', symObjAddr: 0x7BF0, symBinAddr: 0xD8AB0, symSize: 0x180 }
  - { offsetInCU: 0x408D5, offset: 0x4A6E52, size: 0x8, addend: 0x0, symName: '__ZN4core3ptr64drop_in_place$LT$alloc..boxed..Box$LT$syn..ty..BareFnArg$GT$$GT$17h6488be9448346678E', symObjAddr: 0x7D70, symBinAddr: 0xD8C30, symSize: 0x160 }
  - { offsetInCU: 0x40E6B, offset: 0x4A73E8, size: 0x8, addend: 0x0, symName: '__ZN4core3ptr64drop_in_place$LT$alloc..vec..Vec$LT$syn..attr..Attribute$GT$$GT$17h386324d8ea9bc309E.llvm.8444515518860579797', symObjAddr: 0x7ED0, symBinAddr: 0xD8D90, symSize: 0xF0 }
  - { offsetInCU: 0x41161, offset: 0x4A76DE, size: 0x8, addend: 0x0, symName: '__ZN4core3ptr65drop_in_place$LT$alloc..vec..Vec$LT$proc_macro..TokenTree$GT$$GT$17hc3670dd5608d5259E.llvm.8444515518860579797', symObjAddr: 0x7FC0, symBinAddr: 0xD8E80, symSize: 0x110 }
  - { offsetInCU: 0x41559, offset: 0x4A7AD6, size: 0x8, addend: 0x0, symName: '__ZN4core3ptr65drop_in_place$LT$core..option..Option$LT$syn..expr..Label$GT$$GT$17ha723640fd01bec5dE', symObjAddr: 0x80D0, symBinAddr: 0xD8F90, symSize: 0x30 }
  - { offsetInCU: 0x41693, offset: 0x4A7C10, size: 0x8, addend: 0x0, symName: '__ZN4core3ptr65drop_in_place$LT$core..option..Option$LT$syn..path..QSelf$GT$$GT$17h213ca1c3399df9f2E', symObjAddr: 0x8100, symBinAddr: 0xD8FC0, symSize: 0x50 }
  - { offsetInCU: 0x4182A, offset: 0x4A7DA7, size: 0x8, addend: 0x0, symName: '__ZN4core3ptr66drop_in_place$LT$core..option..Option$LT$syn..ty..Variadic$GT$$GT$17hc32134bb3933b0dfE', symObjAddr: 0x8150, symBinAddr: 0xD9010, symSize: 0xF0 }
  - { offsetInCU: 0x41B54, offset: 0x4A80D1, size: 0x8, addend: 0x0, symName: '__ZN4core3ptr67drop_in_place$LT$alloc..boxed..Box$LT$syn..expr..FieldValue$GT$$GT$17h8df780aa600ea8c2E', symObjAddr: 0x8240, symBinAddr: 0xD9100, symSize: 0x160 }
  - { offsetInCU: 0x420D6, offset: 0x4A8653, size: 0x8, addend: 0x0, symName: '__ZN4core3ptr68drop_in_place$LT$alloc..boxed..Box$LT$syn..path..PathSegment$GT$$GT$17h1957b54eed39c0bbE', symObjAddr: 0x83A0, symBinAddr: 0xD9260, symSize: 0x190 }
  - { offsetInCU: 0x427E0, offset: 0x4A8D5D, size: 0x8, addend: 0x0, symName: '__ZN4core3ptr72drop_in_place$LT$alloc..boxed..Box$LT$syn..path..GenericArgument$GT$$GT$17ha8f8136d0c2b505bE', symObjAddr: 0x8530, symBinAddr: 0xD93F0, symSize: 0x120 }
  - { offsetInCU: 0x42C58, offset: 0x4A91D5, size: 0x8, addend: 0x0, symName: '__ZN4core3ptr72drop_in_place$LT$core..option..Option$LT$syn..lifetime..Lifetime$GT$$GT$17h31b55b93749c174dE', symObjAddr: 0x8650, symBinAddr: 0xD9510, symSize: 0x30 }
  - { offsetInCU: 0x42D73, offset: 0x4A92F0, size: 0x8, addend: 0x0, symName: '__ZN4core3ptr75drop_in_place$LT$alloc..boxed..Box$LT$syn..generics..TypeParamBound$GT$$GT$17h8f156ce07ea0b8b2E', symObjAddr: 0x8680, symBinAddr: 0xD9540, symSize: 0x90 }
  - { offsetInCU: 0x430B2, offset: 0x4A962F, size: 0x8, addend: 0x0, symName: '__ZN4core3ptr78drop_in_place$LT$core..option..Option$LT$syn..generics..BoundLifetimes$GT$$GT$17h8175e66ad0c4a156E', symObjAddr: 0x8730, symBinAddr: 0xD95D0, symSize: 0xE0 }
  - { offsetInCU: 0x43410, offset: 0x4A998D, size: 0x8, addend: 0x0, symName: '__ZN4core3ptr86drop_in_place$LT$syn..punctuated..Punctuated$LT$syn..pat..Pat$C$syn..token..Or$GT$$GT$17h1078c5d178d382b7E', symObjAddr: 0x8810, symBinAddr: 0xD96B0, symSize: 0x120 }
  - { offsetInCU: 0x4388B, offset: 0x4A9E08, size: 0x8, addend: 0x0, symName: '__ZN4core3ptr87drop_in_place$LT$core..option..Option$LT$alloc..boxed..Box$LT$syn..pat..Pat$GT$$GT$$GT$17ha7f5fe0e6f73e820E', symObjAddr: 0x8930, symBinAddr: 0xD97D0, symSize: 0x50 }
  - { offsetInCU: 0x439FB, offset: 0x4A9F78, size: 0x8, addend: 0x0, symName: '__ZN4core3ptr87drop_in_place$LT$core..option..Option$LT$alloc..boxed..Box$LT$syn..ty..Type$GT$$GT$$GT$17hc8292da82d129de3E', symObjAddr: 0x8980, symBinAddr: 0xD9820, symSize: 0x50 }
  - { offsetInCU: 0x43B6B, offset: 0x4AA0E8, size: 0x8, addend: 0x0, symName: '__ZN4core3ptr88drop_in_place$LT$$LP$syn..token..Else$C$alloc..boxed..Box$LT$syn..expr..Expr$GT$$RP$$GT$17h7dd7c259e93fb46bE', symObjAddr: 0x89D0, symBinAddr: 0xD9870, symSize: 0x50 }
  - { offsetInCU: 0x43CE3, offset: 0x4AA260, size: 0x8, addend: 0x0, symName: '__ZN4core3ptr89drop_in_place$LT$core..option..Option$LT$alloc..boxed..Box$LT$syn..expr..Expr$GT$$GT$$GT$17hdc211ccd33f196f2E', symObjAddr: 0x8A20, symBinAddr: 0xD98C0, symSize: 0x50 }
  - { offsetInCU: 0x43E53, offset: 0x4AA3D0, size: 0x8, addend: 0x0, symName: '__ZN4core3ptr89drop_in_place$LT$syn..punctuated..Punctuated$LT$syn..pat..Pat$C$syn..token..Comma$GT$$GT$17hf8371102b0500adcE', symObjAddr: 0x8A70, symBinAddr: 0xD9910, symSize: 0x120 }
  - { offsetInCU: 0x442D2, offset: 0x4AA84F, size: 0x8, addend: 0x0, symName: '__ZN4core3ptr89drop_in_place$LT$syn..punctuated..Punctuated$LT$syn..ty..Type$C$syn..token..Comma$GT$$GT$17h1c6e43341fabea97E', symObjAddr: 0x8B90, symBinAddr: 0xD9A30, symSize: 0x120 }
  - { offsetInCU: 0x4474D, offset: 0x4AACCA, size: 0x8, addend: 0x0, symName: '__ZN4core3ptr91drop_in_place$LT$syn..punctuated..Punctuated$LT$syn..expr..Expr$C$syn..token..Comma$GT$$GT$17hd2dfeb0c522d9a18E', symObjAddr: 0x8CB0, symBinAddr: 0xD9B50, symSize: 0x120 }
  - { offsetInCU: 0x44BC8, offset: 0x4AB145, size: 0x8, addend: 0x0, symName: '__ZN4core3ptr94drop_in_place$LT$syn..punctuated..Punctuated$LT$syn..pat..FieldPat$C$syn..token..Comma$GT$$GT$17h612cbc9066d5afb1E', symObjAddr: 0x8DD0, symBinAddr: 0xD9C70, symSize: 0xF0 }
  - { offsetInCU: 0x44EC7, offset: 0x4AB444, size: 0x8, addend: 0x0, symName: '__ZN4core3ptr94drop_in_place$LT$syn..punctuated..Punctuated$LT$syn..ty..BareFnArg$C$syn..token..Comma$GT$$GT$17ha9a668ce9972795bE', symObjAddr: 0x8EC0, symBinAddr: 0xD9D60, symSize: 0xF0 }
  - { offsetInCU: 0x451C4, offset: 0x4AB741, size: 0x8, addend: 0x0, symName: '__ZN4core3ptr95drop_in_place$LT$core..option..Option$LT$$LP$proc_macro2..Ident$C$syn..token..Colon$RP$$GT$$GT$17h7314df562090eafdE', symObjAddr: 0x8FB0, symBinAddr: 0xD9E50, symSize: 0x30 }
  - { offsetInCU: 0x452DF, offset: 0x4AB85C, size: 0x8, addend: 0x0, symName: '__ZN4core3ptr95drop_in_place$LT$core..option..Option$LT$alloc..boxed..Box$LT$syn..expr..FieldValue$GT$$GT$$GT$17hd0d57ae8c6b091c1E', symObjAddr: 0x8FE0, symBinAddr: 0xD9E80, symSize: 0x50 }
  - { offsetInCU: 0x4544F, offset: 0x4AB9CC, size: 0x8, addend: 0x0, symName: '__ZN4core3ptr96drop_in_place$LT$core..option..Option$LT$alloc..boxed..Box$LT$syn..path..PathSegment$GT$$GT$$GT$17h2e81cbe3c70bb71cE', symObjAddr: 0x9030, symBinAddr: 0xD9ED0, symSize: 0x180 }
  - { offsetInCU: 0x45B0C, offset: 0x4AC089, size: 0x8, addend: 0x0, symName: '__ZN4core3ptr97drop_in_place$LT$syn..punctuated..Punctuated$LT$syn..expr..FieldValue$C$syn..token..Comma$GT$$GT$17h11a5fffb46adfb11E', symObjAddr: 0x91B0, symBinAddr: 0xDA050, symSize: 0xF0 }
  - { offsetInCU: 0x45E85, offset: 0x4AC402, size: 0x8, addend: 0x0, symName: '__ZN4core3ptr97drop_in_place$LT$syn..punctuated..Punctuated$LT$syn..lifetime..Lifetime$C$syn..token..Add$GT$$GT$17h5c54dea2c838d109E', symObjAddr: 0x92A0, symBinAddr: 0xDA140, symSize: 0xD0 }
  - { offsetInCU: 0x462F9, offset: 0x4AC876, size: 0x8, addend: 0x0, symName: '__ZN4core3ptr99drop_in_place$LT$syn..punctuated..Punctuated$LT$syn..path..PathSegment$C$syn..token..Colon2$GT$$GT$17hb961e4d7989a33ceE', symObjAddr: 0x9370, symBinAddr: 0xDA210, symSize: 0x250 }
  - { offsetInCU: 0x4CD85, offset: 0x4B3302, size: 0x8, addend: 0x0, symName: __ZN5alloc5alloc15exchange_malloc17h9a87608d0224859dE, symObjAddr: 0x9610, symBinAddr: 0xDA460, symSize: 0x40 }
  - { offsetInCU: 0x4F1CB, offset: 0x4B5748, size: 0x8, addend: 0x0, symName: '__ZN69_$LT$alloc..boxed..Box$LT$T$C$A$GT$$u20$as$u20$core..clone..Clone$GT$5clone17hb1b95e73f0a2c98fE', symObjAddr: 0x9BB0, symBinAddr: 0xDA4A0, symSize: 0x90 }
  - { offsetInCU: 0x5121D, offset: 0x4B779A, size: 0x8, addend: 0x0, symName: __ZN3syn4expr4Expr13replace_attrs17h45273f69f34fc620E, symObjAddr: 0x9E60, symBinAddr: 0xDA530, symSize: 0x210 }
  - { offsetInCU: 0x1A03, offset: 0x4C5CD7, size: 0x8, addend: 0x0, symName: '__ZN4core3ptr100drop_in_place$LT$core..option..Option$LT$alloc..boxed..Box$LT$syn..generics..LifetimeDef$GT$$GT$$GT$17h75a6086997697dd7E.llvm.2919429348807089406', symObjAddr: 0x560, symBinAddr: 0xE7BA0, symSize: 0x50 }
  - { offsetInCU: 0x1B92, offset: 0x4C5E66, size: 0x8, addend: 0x0, symName: '__ZN4core3ptr100drop_in_place$LT$core..option..Option$LT$alloc..boxed..Box$LT$syn..path..GenericArgument$GT$$GT$$GT$17h3d29ec00a8f1918dE', symObjAddr: 0x5B0, symBinAddr: 0xE7BF0, symSize: 0x50 }
  - { offsetInCU: 0x1D5F, offset: 0x4C6033, size: 0x8, addend: 0x0, symName: '__ZN4core3ptr101drop_in_place$LT$alloc..vec..Vec$LT$$LP$syn..generics..WherePredicate$C$syn..token..Comma$RP$$GT$$GT$17h08dfdcabd164aa70E.llvm.2919429348807089406', symObjAddr: 0x600, symBinAddr: 0xE7C40, symSize: 0xD0 }
  - { offsetInCU: 0x2079, offset: 0x4C634D, size: 0x8, addend: 0x0, symName: '__ZN4core3ptr101drop_in_place$LT$core..option..Option$LT$alloc..boxed..Box$LT$syn..generics..GenericParam$GT$$GT$$GT$17h1fee4f1c7bd902c4E', symObjAddr: 0x6D0, symBinAddr: 0xE7D10, symSize: 0x50 }
  - { offsetInCU: 0x2265, offset: 0x4C6539, size: 0x8, addend: 0x0, symName: '__ZN4core3ptr102drop_in_place$LT$syn..punctuated..Punctuated$LT$syn..generics..LifetimeDef$C$syn..token..Comma$GT$$GT$17h6013ea99e87d4528E.llvm.2919429348807089406', symObjAddr: 0x720, symBinAddr: 0xE7D60, symSize: 0xF0 }
  - { offsetInCU: 0x25E3, offset: 0x4C68B7, size: 0x8, addend: 0x0, symName: '__ZN4core3ptr102drop_in_place$LT$syn..punctuated..Punctuated$LT$syn..path..GenericArgument$C$syn..token..Comma$GT$$GT$17h4b445f97c5aefb0eE.llvm.2919429348807089406', symObjAddr: 0x810, symBinAddr: 0xE7E50, symSize: 0xF0 }
  - { offsetInCU: 0x2A1D, offset: 0x4C6CF1, size: 0x8, addend: 0x0, symName: '__ZN4core3ptr103drop_in_place$LT$core..option..Option$LT$alloc..boxed..Box$LT$syn..generics..TypeParamBound$GT$$GT$$GT$17h6cee73bc2b2ecea8E', symObjAddr: 0x900, symBinAddr: 0xE7F40, symSize: 0xA0 }
  - { offsetInCU: 0x2D0C, offset: 0x4C6FE0, size: 0x8, addend: 0x0, symName: '__ZN4core3ptr103drop_in_place$LT$core..option..Option$LT$alloc..boxed..Box$LT$syn..generics..WherePredicate$GT$$GT$$GT$17headad361972eced7E', symObjAddr: 0x9A0, symBinAddr: 0xE7FE0, symSize: 0x50 }
  - { offsetInCU: 0x2F36, offset: 0x4C720A, size: 0x8, addend: 0x0, symName: '__ZN4core3ptr103drop_in_place$LT$syn..punctuated..Punctuated$LT$syn..generics..GenericParam$C$syn..token..Comma$GT$$GT$17hae00367f0c570156E', symObjAddr: 0x9F0, symBinAddr: 0xE8030, symSize: 0x1A0 }
  - { offsetInCU: 0x34C5, offset: 0x4C7799, size: 0x8, addend: 0x0, symName: '__ZN4core3ptr103drop_in_place$LT$syn..punctuated..Punctuated$LT$syn..generics..TypeParamBound$C$syn..token..Add$GT$$GT$17he811d520c92af08aE', symObjAddr: 0xB90, symBinAddr: 0xE81D0, symSize: 0x290 }
  - { offsetInCU: 0x411B, offset: 0x4C83EF, size: 0x8, addend: 0x0, symName: '__ZN4core3ptr104drop_in_place$LT$alloc..vec..Vec$LT$$LP$syn..expr..GenericMethodArgument$C$syn..token..Comma$RP$$GT$$GT$17heae48b13c44e912aE.llvm.2919429348807089406', symObjAddr: 0xE20, symBinAddr: 0xE8460, symSize: 0xF0 }
  - { offsetInCU: 0x44AB, offset: 0x4C877F, size: 0x8, addend: 0x0, symName: '__ZN4core3ptr105drop_in_place$LT$syn..punctuated..Punctuated$LT$syn..generics..WherePredicate$C$syn..token..Comma$GT$$GT$17h53c71b5d1c98483dE', symObjAddr: 0xF10, symBinAddr: 0xE8550, symSize: 0x1A0 }
  - { offsetInCU: 0x4AA5, offset: 0x4C8D79, size: 0x8, addend: 0x0, symName: '__ZN4core3ptr108drop_in_place$LT$syn..punctuated..Punctuated$LT$syn..expr..GenericMethodArgument$C$syn..token..Comma$GT$$GT$17h92cbabe4862b2183E', symObjAddr: 0x10B0, symBinAddr: 0xE86F0, symSize: 0x150 }
  - { offsetInCU: 0x4FC7, offset: 0x4C929B, size: 0x8, addend: 0x0, symName: '__ZN4core3ptr1247drop_in_place$LT$core..iter..adapters..flatten..Flatten$LT$core..iter..adapters..map..Map$LT$core..iter..adapters..map..Map$LT$core..iter..adapters..map..Map$LT$core..slice..iter..Iter$LT$syn..error..ErrorMessage$GT$$C$syn..error..ErrorMessage..to_compile_error$GT$$C$$LT$proc_macro2..TokenStream$u20$as$u20$core..iter..traits..collect..FromIterator$LT$proc_macro2..TokenStream$GT$$GT$..from_iter$LT$core..iter..adapters..map..Map$LT$core..slice..iter..Iter$LT$syn..error..ErrorMessage$GT$$C$syn..error..ErrorMessage..to_compile_error$GT$$GT$..$u7b$$u7b$closure$u7d$$u7d$$GT$$C$$LT$proc_macro2..imp..TokenStream$u20$as$u20$core..iter..traits..collect..FromIterator$LT$proc_macro2..imp..TokenStream$GT$$GT$..from_iter$LT$core..iter..adapters..map..Map$LT$core..iter..adapters..map..Map$LT$core..slice..iter..Iter$LT$syn..error..ErrorMessage$GT$$C$syn..error..ErrorMessage..to_compile_error$GT$$C$$LT$proc_macro2..TokenStream$u20$as$u20$core..iter..traits..collect..FromIterator$LT$proc_macro2..TokenStream$GT$$GT$..from_iter$LT$core..iter..adapters..map..Map$LT$core..slice..iter..Iter$LT$syn..error..ErrorMessage$GT$$C$syn..error..ErrorMessage..to_compile_error$GT$$GT$..$u7b$$u7b$closure$u7d$$u7d$$GT$$GT$..$u7b$$u7b$closure$u7d$$u7d$$GT$$GT$$GT$17he27900d9b890586cE', symObjAddr: 0x1200, symBinAddr: 0xE8840, symSize: 0x60 }
  - { offsetInCU: 0x514B, offset: 0x4C941F, size: 0x8, addend: 0x0, symName: '__ZN4core3ptr126drop_in_place$LT$core..option..Option$LT$$LP$syn..token..And$C$core..option..Option$LT$syn..lifetime..Lifetime$GT$$RP$$GT$$GT$17h5979d670cb45416cE', symObjAddr: 0x1260, symBinAddr: 0xE88A0, symSize: 0x30 }
  - { offsetInCU: 0x53DA, offset: 0x4C96AE, size: 0x8, addend: 0x0, symName: '__ZN4core3ptr33drop_in_place$LT$syn..ty..Abi$GT$17h723a10e1a0acbd58E', symObjAddr: 0x1290, symBinAddr: 0xE88D0, symSize: 0x70 }
  - { offsetInCU: 0x53F6, offset: 0x4C96CA, size: 0x8, addend: 0x0, symName: '__ZN4core3ptr33drop_in_place$LT$syn..ty..Abi$GT$17h723a10e1a0acbd58E', symObjAddr: 0x1290, symBinAddr: 0xE88D0, symSize: 0x70 }
  - { offsetInCU: 0x56CE, offset: 0x4C99A2, size: 0x8, addend: 0x0, symName: '__ZN4core3ptr34drop_in_place$LT$syn..lit..Lit$GT$17hbe1efe749a08dd9aE.llvm.2919429348807089406', symObjAddr: 0x1300, symBinAddr: 0xE8940, symSize: 0x120 }
  - { offsetInCU: 0x5BC9, offset: 0x4C9E9D, size: 0x8, addend: 0x0, symName: '__ZN4core3ptr34drop_in_place$LT$syn..pat..Pat$GT$17h3201f642e43ac2a2E.llvm.2919429348807089406', symObjAddr: 0x1420, symBinAddr: 0xE8A60, symSize: 0x930 }
  - { offsetInCU: 0x8C15, offset: 0x4CCEE9, size: 0x8, addend: 0x0, symName: '__ZN4core3ptr34drop_in_place$LT$syn..ty..Type$GT$17hfb5d159a08190130E.llvm.2919429348807089406', symObjAddr: 0x1D50, symBinAddr: 0xE9390, symSize: 0x380 }
  - { offsetInCU: 0x97FB, offset: 0x4CDACF, size: 0x8, addend: 0x0, symName: '__ZN4core3ptr35drop_in_place$LT$syn..expr..Arm$GT$17h2f058dcaecfc86d5E.llvm.2919429348807089406', symObjAddr: 0x20D0, symBinAddr: 0xE9710, symSize: 0x1A0 }
  - { offsetInCU: 0xA452, offset: 0x4CE726, size: 0x8, addend: 0x0, symName: '__ZN4core3ptr36drop_in_place$LT$syn..expr..Expr$GT$17hf1921d1b09462bc3E.llvm.2919429348807089406', symObjAddr: 0x2270, symBinAddr: 0xE98B0, symSize: 0x1E10 }
  - { offsetInCU: 0x141A3, offset: 0x4D8477, size: 0x8, addend: 0x0, symName: '__ZN4core3ptr36drop_in_place$LT$syn..item..Item$GT$17hf1fe4e69bb0a9b43E.llvm.2919429348807089406', symObjAddr: 0x4080, symBinAddr: 0xEB6C0, symSize: 0x1650 }
  - { offsetInCU: 0x1AB31, offset: 0x4DEE05, size: 0x8, addend: 0x0, symName: '__ZN4core3ptr36drop_in_place$LT$syn..path..Path$GT$17he6d0bec66d66b98aE.llvm.2919429348807089406', symObjAddr: 0x56D0, symBinAddr: 0xECD10, symSize: 0x150 }
  - { offsetInCU: 0x1B0F1, offset: 0x4DF3C5, size: 0x8, addend: 0x0, symName: '__ZN4core3ptr36drop_in_place$LT$syn..stmt..Stmt$GT$17h1cbf7c4dce3085eaE.llvm.2919429348807089406', symObjAddr: 0x5820, symBinAddr: 0xECE60, symSize: 0x140 }
  - { offsetInCU: 0x1B584, offset: 0x4DF858, size: 0x8, addend: 0x0, symName: '__ZN4core3ptr37drop_in_place$LT$syn..data..Field$GT$17h6bfcb460cfa4c863E.llvm.2919429348807089406', symObjAddr: 0x5960, symBinAddr: 0xECFA0, symSize: 0x1B0 }
  - { offsetInCU: 0x1BB7E, offset: 0x4DFE52, size: 0x8, addend: 0x0, symName: '__ZN4core3ptr37drop_in_place$LT$syn..item..FnArg$GT$17h52a13b3505938de2E.llvm.2919429348807089406', symObjAddr: 0x5B10, symBinAddr: 0xED150, symSize: 0x190 }
  - { offsetInCU: 0x1C520, offset: 0x4E07F4, size: 0x8, addend: 0x0, symName: '__ZN4core3ptr37drop_in_place$LT$syn..stmt..Block$GT$17h3aa429e75a234230E', symObjAddr: 0x5CA0, symBinAddr: 0xED2E0, symSize: 0xD0 }
  - { offsetInCU: 0x1C7FE, offset: 0x4E0AD2, size: 0x8, addend: 0x0, symName: '__ZN4core3ptr38drop_in_place$LT$syn..expr..Member$GT$17ha113d37a67d27aafE.llvm.2919429348807089406', symObjAddr: 0x5D70, symBinAddr: 0xED3B0, symSize: 0x30 }
  - { offsetInCU: 0x1C8FA, offset: 0x4E0BCE, size: 0x8, addend: 0x0, symName: '__ZN4core3ptr38drop_in_place$LT$syn..pat..PatType$GT$17h833e3c7992399b01E.llvm.2919429348807089406', symObjAddr: 0x5DA0, symBinAddr: 0xED3E0, symSize: 0x160 }
  - { offsetInCU: 0x1CEB2, offset: 0x4E1186, size: 0x8, addend: 0x0, symName: '__ZN4core3ptr38drop_in_place$LT$syn..ty..Variadic$GT$17h354585068960ea23E', symObjAddr: 0x5F00, symBinAddr: 0xED540, symSize: 0xF0 }
  - { offsetInCU: 0x1D1C6, offset: 0x4E149A, size: 0x8, addend: 0x0, symName: '__ZN4core3ptr39drop_in_place$LT$proc_macro2..Ident$GT$17hdeec010483268a0dE', symObjAddr: 0x5FF0, symBinAddr: 0xED630, symSize: 0x30 }
  - { offsetInCU: 0x1D3D9, offset: 0x4E16AD, size: 0x8, addend: 0x0, symName: '__ZN4core3ptr39drop_in_place$LT$syn..buffer..Entry$GT$17hefeddf49a31e1f79E.llvm.2919429348807089406', symObjAddr: 0x6020, symBinAddr: 0xED660, symSize: 0xB0 }
  - { offsetInCU: 0x1D7C1, offset: 0x4E1A95, size: 0x8, addend: 0x0, symName: '__ZN4core3ptr39drop_in_place$LT$syn..data..Variant$GT$17hdf59a2045a52b17cE.llvm.2919429348807089406', symObjAddr: 0x60D0, symBinAddr: 0xED710, symSize: 0x330 }
  - { offsetInCU: 0x1E46A, offset: 0x4E273E, size: 0x8, addend: 0x0, symName: '__ZN4core3ptr39drop_in_place$LT$syn..item..UseTree$GT$17h78d4ed19b48b8cbfE.llvm.2919429348807089406', symObjAddr: 0x6400, symBinAddr: 0xEDA40, symSize: 0x1F0 }
  - { offsetInCU: 0x1EC42, offset: 0x4E2F16, size: 0x8, addend: 0x0, symName: '__ZN4core3ptr39drop_in_place$LT$syn..pat..PatTuple$GT$17h96faeea9832d4c4bE', symObjAddr: 0x65F0, symBinAddr: 0xEDC30, symSize: 0x1F0 }
  - { offsetInCU: 0x1F4A0, offset: 0x4E3774, size: 0x8, addend: 0x0, symName: '__ZN4core3ptr40drop_in_place$LT$syn..attr..MetaList$GT$17h9457f32d77a909ccE.llvm.2919429348807089406', symObjAddr: 0x67E0, symBinAddr: 0xEDE20, symSize: 0x140 }
  - { offsetInCU: 0x1F927, offset: 0x4E3BFB, size: 0x8, addend: 0x0, symName: '__ZN4core3ptr40drop_in_place$LT$syn..item..Receiver$GT$17hc8a432a931462f79E.llvm.2919429348807089406', symObjAddr: 0x6920, symBinAddr: 0xEDF60, symSize: 0x140 }
  - { offsetInCU: 0x1FDB5, offset: 0x4E4089, size: 0x8, addend: 0x0, symName: '__ZN4core3ptr40drop_in_place$LT$syn..ty..ReturnType$GT$17h6f97c9fdb958983eE.llvm.2919429348807089406', symObjAddr: 0x6A60, symBinAddr: 0xEE0A0, symSize: 0x50 }
  - { offsetInCU: 0x1FF25, offset: 0x4E41F9, size: 0x8, addend: 0x0, symName: '__ZN4core3ptr41drop_in_place$LT$syn..attr..Attribute$GT$17h01ed88f7d2878bfcE.llvm.2919429348807089406', symObjAddr: 0x6AB0, symBinAddr: 0xEE0F0, symSize: 0x40 }
  - { offsetInCU: 0x20095, offset: 0x4E4369, size: 0x8, addend: 0x0, symName: '__ZN4core3ptr41drop_in_place$LT$syn..item..Signature$GT$17hd57cfba25994ce69E', symObjAddr: 0x6AF0, symBinAddr: 0xEE130, symSize: 0x330 }
  - { offsetInCU: 0x20EC4, offset: 0x4E5198, size: 0x8, addend: 0x0, symName: '__ZN4core3ptr42drop_in_place$LT$syn..attr..NestedMeta$GT$17hb8773e095b93d12eE.llvm.2919429348807089406', symObjAddr: 0x6E20, symBinAddr: 0xEE460, symSize: 0x120 }
  - { offsetInCU: 0x2109E, offset: 0x4E5372, size: 0x8, addend: 0x0, symName: '__ZN4core3ptr43drop_in_place$LT$proc_macro2..TokenTree$GT$17h7270f34cee6d919dE.llvm.2919429348807089406', symObjAddr: 0x6F40, symBinAddr: 0xEE580, symSize: 0xB0 }
  - { offsetInCU: 0x213FA, offset: 0x4E56CE, size: 0x8, addend: 0x0, symName: '__ZN4core3ptr43drop_in_place$LT$syn..data..FieldsNamed$GT$17h73293dd81bcfeab6E', symObjAddr: 0x6FF0, symBinAddr: 0xEE630, symSize: 0x120 }
  - { offsetInCU: 0x218F8, offset: 0x4E5BCC, size: 0x8, addend: 0x0, symName: '__ZN4core3ptr43drop_in_place$LT$syn..path..PathSegment$GT$17h3d0f44137dd31bf9E.llvm.2919429348807089406', symObjAddr: 0x7110, symBinAddr: 0xEE750, symSize: 0x170 }
  - { offsetInCU: 0x21ED3, offset: 0x4E61A7, size: 0x8, addend: 0x0, symName: '__ZN4core3ptr44drop_in_place$LT$syn..generics..Generics$GT$17he0d6eb6045503c84E', symObjAddr: 0x7280, symBinAddr: 0xEE8C0, symSize: 0x230 }
  - { offsetInCU: 0x22810, offset: 0x4E6AE4, size: 0x8, addend: 0x0, symName: '__ZN4core3ptr44drop_in_place$LT$syn..item..ImplItemType$GT$17hfa117ac59836f12aE', symObjAddr: 0x74B0, symBinAddr: 0xEEAF0, symSize: 0x200 }
  - { offsetInCU: 0x22E2D, offset: 0x4E7101, size: 0x8, addend: 0x0, symName: '__ZN4core3ptr44drop_in_place$LT$syn..lifetime..Lifetime$GT$17h3858225df033648aE.llvm.2919429348807089406', symObjAddr: 0x76B0, symBinAddr: 0xEECF0, symSize: 0x30 }
  - { offsetInCU: 0x22F86, offset: 0x4E725A, size: 0x8, addend: 0x0, symName: '__ZN4core3ptr45drop_in_place$LT$proc_macro2..TokenStream$GT$17h2507cb30e765dc85E.llvm.2919429348807089406', symObjAddr: 0x76E0, symBinAddr: 0xEED20, symSize: 0x70 }
  - { offsetInCU: 0x230BB, offset: 0x4E738F, size: 0x8, addend: 0x0, symName: '__ZN4core3ptr45drop_in_place$LT$syn..data..VisRestricted$GT$17hcb973457cb67885aE', symObjAddr: 0x7750, symBinAddr: 0xEED90, symSize: 0xA0 }
  - { offsetInCU: 0x23403, offset: 0x4E76D7, size: 0x8, addend: 0x0, symName: '__ZN4core3ptr45drop_in_place$LT$syn..generics..TypeParam$GT$17h2de9c744cc1fcd2cE.llvm.2919429348807089406', symObjAddr: 0x77F0, symBinAddr: 0xEEE30, symSize: 0x200 }
  - { offsetInCU: 0x23C5A, offset: 0x4E7F2E, size: 0x8, addend: 0x0, symName: '__ZN4core3ptr45drop_in_place$LT$syn..item..ImplItemConst$GT$17hcd481022683c9056E', symObjAddr: 0x79F0, symBinAddr: 0xEF030, symSize: 0x1D0 }
  - { offsetInCU: 0x24234, offset: 0x4E8508, size: 0x8, addend: 0x0, symName: '__ZN4core3ptr45drop_in_place$LT$syn..item..TraitItemType$GT$17hff73dc4d6b73b6f1E', symObjAddr: 0x7BC0, symBinAddr: 0xEF200, symSize: 0x280 }
  - { offsetInCU: 0x24B64, offset: 0x4E8E38, size: 0x8, addend: 0x0, symName: '__ZN4core3ptr45drop_in_place$LT$syn..path..PathArguments$GT$17h9dd953520dcdc907E.llvm.2919429348807089406', symObjAddr: 0x7E40, symBinAddr: 0xEF480, symSize: 0xA0 }
  - { offsetInCU: 0x24D35, offset: 0x4E9009, size: 0x8, addend: 0x0, symName: '__ZN4core3ptr46drop_in_place$LT$syn..generics..ConstParam$GT$17hcae189adf84ad8c9E.llvm.2919429348807089406', symObjAddr: 0x7EE0, symBinAddr: 0xEF520, symSize: 0x180 }
  - { offsetInCU: 0x2516D, offset: 0x4E9441, size: 0x8, addend: 0x0, symName: '__ZN4core3ptr46drop_in_place$LT$syn..item..ImplItemMethod$GT$17h81d5acf604d84d52E', symObjAddr: 0x8060, symBinAddr: 0xEF6A0, symSize: 0x240 }
  - { offsetInCU: 0x258EB, offset: 0x4E9BBF, size: 0x8, addend: 0x0, symName: '__ZN4core3ptr46drop_in_place$LT$syn..item..TraitItemConst$GT$17ha3f3e5595f870971E', symObjAddr: 0x82A0, symBinAddr: 0xEF8E0, symSize: 0x180 }
  - { offsetInCU: 0x25D55, offset: 0x4EA029, size: 0x8, addend: 0x0, symName: '__ZN4core3ptr47drop_in_place$LT$syn..generics..LifetimeDef$GT$17hd04bc9e6ed9dfb47E.llvm.2919429348807089406', symObjAddr: 0x8420, symBinAddr: 0xEFA60, symSize: 0x140 }
  - { offsetInCU: 0x26189, offset: 0x4EA45D, size: 0x8, addend: 0x0, symName: '__ZN4core3ptr47drop_in_place$LT$syn..generics..WhereClause$GT$17hb4cbc6f597fb20f3E', symObjAddr: 0x8560, symBinAddr: 0xEFBA0, symSize: 0x120 }
  - { offsetInCU: 0x26649, offset: 0x4EA91D, size: 0x8, addend: 0x0, symName: '__ZN4core3ptr47drop_in_place$LT$syn..path..GenericArgument$GT$17h8c0a0d8c6deaefb4E.llvm.2919429348807089406', symObjAddr: 0x8680, symBinAddr: 0xEFCC0, symSize: 0x110 }
  - { offsetInCU: 0x26983, offset: 0x4EAC57, size: 0x8, addend: 0x0, symName: '__ZN4core3ptr48drop_in_place$LT$syn..generics..GenericParam$GT$17h9292481f35bf25edE.llvm.2919429348807089406', symObjAddr: 0x8790, symBinAddr: 0xEFDD0, symSize: 0xF0 }
  - { offsetInCU: 0x26D68, offset: 0x4EB03C, size: 0x8, addend: 0x0, symName: '__ZN4core3ptr49drop_in_place$LT$syn..generics..PredicateType$GT$17h1613bfd7dd5d96f2E.llvm.2919429348807089406', symObjAddr: 0x8880, symBinAddr: 0xEFEC0, symSize: 0x1E0 }
  - { offsetInCU: 0x27623, offset: 0x4EB8F7, size: 0x8, addend: 0x0, symName: '__ZN4core3ptr49drop_in_place$LT$syn..item..ForeignItemStatic$GT$17hfe9f44f9dab5bcd1E', symObjAddr: 0x8A60, symBinAddr: 0xF00A0, symSize: 0x1D0 }
  - { offsetInCU: 0x27EC0, offset: 0x4EC194, size: 0x8, addend: 0x0, symName: '__ZN4core3ptr50drop_in_place$LT$$u5b$syn..item..ImplItem$u5d$$GT$17h234f53b7b0028fc3E.llvm.2919429348807089406', symObjAddr: 0x8C30, symBinAddr: 0xF0270, symSize: 0x900 }
  - { offsetInCU: 0x29673, offset: 0x4ED947, size: 0x8, addend: 0x0, symName: '__ZN4core3ptr50drop_in_place$LT$syn..generics..BoundLifetimes$GT$17hff8599a8d1e3c70cE.llvm.2919429348807089406', symObjAddr: 0x9530, symBinAddr: 0xF0B70, symSize: 0x110 }
  - { offsetInCU: 0x29AF3, offset: 0x4EDDC7, size: 0x8, addend: 0x0, symName: '__ZN4core3ptr50drop_in_place$LT$syn..generics..TypeParamBound$GT$17h8d9a306b4a7f920fE.llvm.2919429348807089406', symObjAddr: 0x9640, symBinAddr: 0xF0C80, symSize: 0xD0 }
  - { offsetInCU: 0x29E01, offset: 0x4EE0D5, size: 0x8, addend: 0x0, symName: '__ZN4core3ptr50drop_in_place$LT$syn..generics..WherePredicate$GT$17h1fc5b3da95266304E.llvm.2919429348807089406', symObjAddr: 0x9710, symBinAddr: 0xF0D50, symSize: 0x110 }
  - { offsetInCU: 0x29FA1, offset: 0x4EE275, size: 0x8, addend: 0x0, symName: '__ZN4core3ptr51drop_in_place$LT$$u5b$syn..attr..Attribute$u5d$$GT$17h98bc8e7c97002f1bE.llvm.2919429348807089406', symObjAddr: 0x9820, symBinAddr: 0xF0E60, symSize: 0xE0 }
  - { offsetInCU: 0x2A1B6, offset: 0x4EE48A, size: 0x8, addend: 0x0, symName: '__ZN4core3ptr51drop_in_place$LT$$u5b$syn..item..TraitItem$u5d$$GT$17h6f6b1abc16bc25ccE.llvm.2919429348807089406', symObjAddr: 0x9900, symBinAddr: 0xF0F40, symSize: 0x1100 }
  - { offsetInCU: 0x2D74A, offset: 0x4F1A1E, size: 0x8, addend: 0x0, symName: '__ZN4core3ptr53drop_in_place$LT$$u5b$syn..item..ForeignItem$u5d$$GT$17ha5d8369d024c9578E.llvm.2919429348807089406', symObjAddr: 0xAA00, symBinAddr: 0xF2040, symSize: 0x1880 }
  - { offsetInCU: 0x327C4, offset: 0x4F6A98, size: 0x8, addend: 0x0, symName: '__ZN4core3ptr58drop_in_place$LT$alloc..vec..Vec$LT$syn..expr..Arm$GT$$GT$17hf3db0825f3d9c861E.llvm.2919429348807089406', symObjAddr: 0xC2A0, symBinAddr: 0xF38C0, symSize: 0xD0 }
  - { offsetInCU: 0x32A8B, offset: 0x4F6D5F, size: 0x8, addend: 0x0, symName: '__ZN4core3ptr59drop_in_place$LT$alloc..boxed..Box$LT$syn..pat..Pat$GT$$GT$17h7037ce9bbd3729c6E.llvm.2919429348807089406', symObjAddr: 0xC370, symBinAddr: 0xF3990, symSize: 0x50 }
  - { offsetInCU: 0x32BE4, offset: 0x4F6EB8, size: 0x8, addend: 0x0, symName: '__ZN4core3ptr59drop_in_place$LT$alloc..boxed..Box$LT$syn..ty..Type$GT$$GT$17h2eccd13329dbe4faE.llvm.2919429348807089406', symObjAddr: 0xC3C0, symBinAddr: 0xF39E0, symSize: 0x50 }
  - { offsetInCU: 0x32D3D, offset: 0x4F7011, size: 0x8, addend: 0x0, symName: '__ZN4core3ptr59drop_in_place$LT$alloc..vec..Vec$LT$syn..item..Item$GT$$GT$17h544d8e20d05b2f97E.llvm.2919429348807089406', symObjAddr: 0xC410, symBinAddr: 0xF3A30, symSize: 0xD0 }
  - { offsetInCU: 0x33004, offset: 0x4F72D8, size: 0x8, addend: 0x0, symName: '__ZN4core3ptr59drop_in_place$LT$alloc..vec..Vec$LT$syn..stmt..Stmt$GT$$GT$17hed4646381107e302E.llvm.2919429348807089406', symObjAddr: 0xC4E0, symBinAddr: 0xF3B00, symSize: 0xD0 }
  - { offsetInCU: 0x332CB, offset: 0x4F759F, size: 0x8, addend: 0x0, symName: '__ZN4core3ptr61drop_in_place$LT$alloc..boxed..Box$LT$syn..expr..Expr$GT$$GT$17h66094ddc89015516E.llvm.2919429348807089406', symObjAddr: 0xC5B0, symBinAddr: 0xF3BD0, symSize: 0x50 }
  - { offsetInCU: 0x33424, offset: 0x4F76F8, size: 0x8, addend: 0x0, symName: '__ZN4core3ptr61drop_in_place$LT$alloc..boxed..Box$LT$syn..path..Path$GT$$GT$17h2d3525cb73f7a6b0E', symObjAddr: 0xC600, symBinAddr: 0xF3C20, symSize: 0x50 }
  - { offsetInCU: 0x3359A, offset: 0x4F786E, size: 0x8, addend: 0x0, symName: '__ZN4core3ptr61drop_in_place$LT$syn..path..ParenthesizedGenericArguments$GT$17h21be9b1d7a6fab55E', symObjAddr: 0xC650, symBinAddr: 0xF3C70, symSize: 0x170 }
  - { offsetInCU: 0x33B97, offset: 0x4F7E6B, size: 0x8, addend: 0x0, symName: '__ZN4core3ptr62drop_in_place$LT$alloc..boxed..Box$LT$syn..data..Field$GT$$GT$17h262ebccfc4519882E', symObjAddr: 0xC7C0, symBinAddr: 0xF3DE0, symSize: 0x50 }
  - { offsetInCU: 0x33D0F, offset: 0x4F7FE3, size: 0x8, addend: 0x0, symName: '__ZN4core3ptr62drop_in_place$LT$alloc..boxed..Box$LT$syn..item..FnArg$GT$$GT$17h0b51ffa358d2119aE', symObjAddr: 0xC810, symBinAddr: 0xF3E30, symSize: 0x60 }
  - { offsetInCU: 0x33E85, offset: 0x4F8159, size: 0x8, addend: 0x0, symName: '__ZN4core3ptr62drop_in_place$LT$alloc..boxed..Box$LT$syn..stmt..Block$GT$$GT$17h0633c21446a415f4E', symObjAddr: 0xC870, symBinAddr: 0xF3E90, symSize: 0xE0 }
  - { offsetInCU: 0x342DC, offset: 0x4F85B0, size: 0x8, addend: 0x0, symName: '__ZN4core3ptr62drop_in_place$LT$alloc..vec..Vec$LT$syn..buffer..Entry$GT$$GT$17hd4c03db647ab81bdE.llvm.2919429348807089406', symObjAddr: 0xC950, symBinAddr: 0xF3F70, symSize: 0xC0 }
  - { offsetInCU: 0x345B4, offset: 0x4F8888, size: 0x8, addend: 0x0, symName: '__ZN4core3ptr63drop_in_place$LT$alloc..vec..Vec$LT$syn..item..ImplItem$GT$$GT$17ha4d5b54edb0d5cb7E.llvm.2919429348807089406', symObjAddr: 0xCA10, symBinAddr: 0xF4030, symSize: 0x80 }
  - { offsetInCU: 0x3486C, offset: 0x4F8B40, size: 0x8, addend: 0x0, symName: '__ZN4core3ptr64drop_in_place$LT$alloc..boxed..Box$LT$syn..data..Variant$GT$$GT$17hc82ad80f9b8d8bfeE', symObjAddr: 0xCA90, symBinAddr: 0xF40B0, symSize: 0x50 }
  - { offsetInCU: 0x349C5, offset: 0x4F8C99, size: 0x8, addend: 0x0, symName: '__ZN4core3ptr64drop_in_place$LT$alloc..boxed..Box$LT$syn..item..UseTree$GT$$GT$17h2fbb30105f88b737E', symObjAddr: 0xCAE0, symBinAddr: 0xF4100, symSize: 0x50 }
  - { offsetInCU: 0x34B5C, offset: 0x4F8E30, size: 0x8, addend: 0x0, symName: '__ZN4core3ptr64drop_in_place$LT$alloc..boxed..Box$LT$syn..pat..FieldPat$GT$$GT$17hb167b355d0d4733fE', symObjAddr: 0xCB30, symBinAddr: 0xF4150, symSize: 0x100 }
  - { offsetInCU: 0x35221, offset: 0x4F94F5, size: 0x8, addend: 0x0, symName: '__ZN4core3ptr64drop_in_place$LT$alloc..boxed..Box$LT$syn..ty..BareFnArg$GT$$GT$17h6488be9448346678E', symObjAddr: 0xCC30, symBinAddr: 0xF4250, symSize: 0xE0 }
  - { offsetInCU: 0x3575F, offset: 0x4F9A33, size: 0x8, addend: 0x0, symName: '__ZN4core3ptr64drop_in_place$LT$alloc..vec..Vec$LT$syn..attr..Attribute$GT$$GT$17h386324d8ea9bc309E.llvm.2919429348807089406', symObjAddr: 0xCD10, symBinAddr: 0xF4330, symSize: 0xF0 }
  - { offsetInCU: 0x35A3F, offset: 0x4F9D13, size: 0x8, addend: 0x0, symName: '__ZN4core3ptr64drop_in_place$LT$alloc..vec..Vec$LT$syn..item..TraitItem$GT$$GT$17h0ef3c4b7ce592e9eE.llvm.2919429348807089406', symObjAddr: 0xCE00, symBinAddr: 0xF4420, symSize: 0x80 }
  - { offsetInCU: 0x35CF7, offset: 0x4F9FCB, size: 0x8, addend: 0x0, symName: '__ZN4core3ptr65drop_in_place$LT$$LP$syn..item..FnArg$C$syn..token..Comma$RP$$GT$17h36dd53979a5809e4E.llvm.2919429348807089406', symObjAddr: 0xCE80, symBinAddr: 0xF44A0, symSize: 0x20 }
  - { offsetInCU: 0x35D33, offset: 0x4FA007, size: 0x8, addend: 0x0, symName: '__ZN4core3ptr65drop_in_place$LT$alloc..vec..Vec$LT$proc_macro..TokenTree$GT$$GT$17hc3670dd5608d5259E.llvm.2919429348807089406', symObjAddr: 0xCEA0, symBinAddr: 0xF44C0, symSize: 0x110 }
  - { offsetInCU: 0x36132, offset: 0x4FA406, size: 0x8, addend: 0x0, symName: '__ZN4core3ptr65drop_in_place$LT$core..option..Option$LT$syn..expr..Label$GT$$GT$17ha723640fd01bec5dE', symObjAddr: 0xD070, symBinAddr: 0xF45D0, symSize: 0x30 }
  - { offsetInCU: 0x3626C, offset: 0x4FA540, size: 0x8, addend: 0x0, symName: '__ZN4core3ptr65drop_in_place$LT$core..option..Option$LT$syn..stmt..Block$GT$$GT$17hdff81fd7cb2986caE', symObjAddr: 0xD0A0, symBinAddr: 0xF4600, symSize: 0xD0 }
  - { offsetInCU: 0x3657F, offset: 0x4FA853, size: 0x8, addend: 0x0, symName: '__ZN4core3ptr66drop_in_place$LT$alloc..vec..Vec$LT$proc_macro2..TokenTree$GT$$GT$17h10186b8404a77a46E', symObjAddr: 0xD170, symBinAddr: 0xF46D0, symSize: 0xC0 }
  - { offsetInCU: 0x36857, offset: 0x4FAB2B, size: 0x8, addend: 0x0, symName: '__ZN4core3ptr66drop_in_place$LT$alloc..vec..Vec$LT$syn..item..ForeignItem$GT$$GT$17hc5d281d65e9f4398E.llvm.2919429348807089406', symObjAddr: 0xD230, symBinAddr: 0xF4790, symSize: 0x80 }
  - { offsetInCU: 0x36B0F, offset: 0x4FADE3, size: 0x8, addend: 0x0, symName: '__ZN4core3ptr67drop_in_place$LT$$LP$syn..pat..FieldPat$C$syn..token..Comma$RP$$GT$17h28f8e87199173f9eE.llvm.2919429348807089406', symObjAddr: 0xD2B0, symBinAddr: 0xF4810, symSize: 0xF0 }
  - { offsetInCU: 0x37062, offset: 0x4FB336, size: 0x8, addend: 0x0, symName: '__ZN4core3ptr67drop_in_place$LT$$LP$syn..ty..BareFnArg$C$syn..token..Comma$RP$$GT$17h9078c1a50219df0bE.llvm.2919429348807089406', symObjAddr: 0xD3A0, symBinAddr: 0xF4900, symSize: 0xD0 }
  - { offsetInCU: 0x3749C, offset: 0x4FB770, size: 0x8, addend: 0x0, symName: '__ZN4core3ptr67drop_in_place$LT$alloc..boxed..Box$LT$syn..attr..NestedMeta$GT$$GT$17hd0c3b988a8621445E.llvm.2919429348807089406', symObjAddr: 0xD470, symBinAddr: 0xF49D0, symSize: 0xB0 }
  - { offsetInCU: 0x37659, offset: 0x4FB92D, size: 0x8, addend: 0x0, symName: '__ZN4core3ptr67drop_in_place$LT$alloc..boxed..Box$LT$syn..expr..FieldValue$GT$$GT$17h8df780aa600ea8c2E', symObjAddr: 0xD520, symBinAddr: 0xF4A80, symSize: 0xE0 }
  - { offsetInCU: 0x37B77, offset: 0x4FBE4B, size: 0x8, addend: 0x0, symName: '__ZN4core3ptr68drop_in_place$LT$alloc..boxed..Box$LT$syn..path..PathSegment$GT$$GT$17h1957b54eed39c0bbE.llvm.2919429348807089406', symObjAddr: 0xD600, symBinAddr: 0xF4B60, symSize: 0x170 }
  - { offsetInCU: 0x3825A, offset: 0x4FC52E, size: 0x8, addend: 0x0, symName: '__ZN4core3ptr70drop_in_place$LT$$LP$syn..attr..NestedMeta$C$syn..token..Comma$RP$$GT$17he1b545a7aa3daf93E.llvm.2919429348807089406', symObjAddr: 0xD7F0, symBinAddr: 0xF4CD0, symSize: 0x90 }
  - { offsetInCU: 0x382C4, offset: 0x4FC598, size: 0x8, addend: 0x0, symName: '__ZN4core3ptr70drop_in_place$LT$$LP$syn..expr..FieldValue$C$syn..token..Comma$RP$$GT$17he025dc5053bc6a8bE.llvm.2919429348807089406', symObjAddr: 0xD880, symBinAddr: 0xF4D60, symSize: 0xD0 }
  - { offsetInCU: 0x386BF, offset: 0x4FC993, size: 0x8, addend: 0x0, symName: '__ZN4core3ptr72drop_in_place$LT$$LP$syn..path..PathSegment$C$syn..token..Colon2$RP$$GT$17h1baf491dcf9e7063E.llvm.2919429348807089406', symObjAddr: 0xD950, symBinAddr: 0xF4E30, symSize: 0xC0 }
  - { offsetInCU: 0x38982, offset: 0x4FCC56, size: 0x8, addend: 0x0, symName: '__ZN4core3ptr72drop_in_place$LT$alloc..boxed..Box$LT$syn..generics..LifetimeDef$GT$$GT$17h05409fc29b94598aE.llvm.2919429348807089406', symObjAddr: 0xDA10, symBinAddr: 0xF4EF0, symSize: 0xC0 }
  - { offsetInCU: 0x38EAC, offset: 0x4FD180, size: 0x8, addend: 0x0, symName: '__ZN4core3ptr72drop_in_place$LT$alloc..boxed..Box$LT$syn..path..GenericArgument$GT$$GT$17ha8f8136d0c2b505bE.llvm.2919429348807089406', symObjAddr: 0xDAD0, symBinAddr: 0xF4FB0, symSize: 0x1D0 }
  - { offsetInCU: 0x39610, offset: 0x4FD8E4, size: 0x8, addend: 0x0, symName: '__ZN4core3ptr73drop_in_place$LT$alloc..boxed..Box$LT$syn..generics..GenericParam$GT$$GT$17he12c7a4a5320b13eE', symObjAddr: 0xDCA0, symBinAddr: 0xF5180, symSize: 0x80 }
  - { offsetInCU: 0x39786, offset: 0x4FDA5A, size: 0x8, addend: 0x0, symName: '__ZN4core3ptr75drop_in_place$LT$$LP$syn..generics..LifetimeDef$C$syn..token..Comma$RP$$GT$17h3ec14722aacb36caE.llvm.2919429348807089406', symObjAddr: 0xDD20, symBinAddr: 0xF5200, symSize: 0xB0 }
  - { offsetInCU: 0x39B6D, offset: 0x4FDE41, size: 0x8, addend: 0x0, symName: '__ZN4core3ptr75drop_in_place$LT$$LP$syn..path..GenericArgument$C$syn..token..Comma$RP$$GT$17hae99285c368746d4E.llvm.2919429348807089406', symObjAddr: 0xDDD0, symBinAddr: 0xF52B0, symSize: 0x1E0 }
  - { offsetInCU: 0x3A12F, offset: 0x4FE403, size: 0x8, addend: 0x0, symName: '__ZN4core3ptr75drop_in_place$LT$alloc..boxed..Box$LT$syn..generics..TypeParamBound$GT$$GT$17h8f156ce07ea0b8b2E', symObjAddr: 0xDFB0, symBinAddr: 0xF5490, symSize: 0xA0 }
  - { offsetInCU: 0x3A409, offset: 0x4FE6DD, size: 0x8, addend: 0x0, symName: '__ZN4core3ptr75drop_in_place$LT$alloc..boxed..Box$LT$syn..generics..WherePredicate$GT$$GT$17he9159676146cdcc0E', symObjAddr: 0xE050, symBinAddr: 0xF5530, symSize: 0xD0 }
  - { offsetInCU: 0x3A6B1, offset: 0x4FE985, size: 0x8, addend: 0x0, symName: '__ZN4core3ptr76drop_in_place$LT$$LP$syn..generics..GenericParam$C$syn..token..Comma$RP$$GT$17hb608b85cca720f66E.llvm.2919429348807089406', symObjAddr: 0xE120, symBinAddr: 0xF5600, symSize: 0x50 }
  - { offsetInCU: 0x3A6ED, offset: 0x4FE9C1, size: 0x8, addend: 0x0, symName: '__ZN4core3ptr76drop_in_place$LT$$LP$syn..generics..TypeParamBound$C$syn..token..Add$RP$$GT$17h559c9012209c93bfE.llvm.2919429348807089406', symObjAddr: 0xE170, symBinAddr: 0xF5650, symSize: 0x80 }
  - { offsetInCU: 0x3A889, offset: 0x4FEB5D, size: 0x8, addend: 0x0, symName: '__ZN4core3ptr78drop_in_place$LT$$LP$syn..generics..WherePredicate$C$syn..token..Comma$RP$$GT$17he7c688f56dbd96f3E.llvm.2919429348807089406', symObjAddr: 0xE1F0, symBinAddr: 0xF56D0, symSize: 0xA0 }
  - { offsetInCU: 0x3AA01, offset: 0x4FECD5, size: 0x8, addend: 0x0, symName: '__ZN4core3ptr78drop_in_place$LT$alloc..boxed..Box$LT$syn..expr..GenericMethodArgument$GT$$GT$17h3384c00b5bd54c2aE', symObjAddr: 0xE290, symBinAddr: 0xF5770, symSize: 0x60 }
  - { offsetInCU: 0x3AB77, offset: 0x4FEE4B, size: 0x8, addend: 0x0, symName: '__ZN4core3ptr81drop_in_place$LT$$LP$syn..expr..GenericMethodArgument$C$syn..token..Comma$RP$$GT$17h6cb8506ab56d85d6E.llvm.2919429348807089406', symObjAddr: 0xE370, symBinAddr: 0xF57D0, symSize: 0x30 }
  - { offsetInCU: 0x3AC10, offset: 0x4FEEE4, size: 0x8, addend: 0x0, symName: '__ZN4core3ptr82drop_in_place$LT$alloc..vec..Vec$LT$$LP$syn..pat..Pat$C$syn..token..Or$RP$$GT$$GT$17he4f1446f4dd0391dE.llvm.2919429348807089406', symObjAddr: 0xE3A0, symBinAddr: 0xF5800, symSize: 0xD0 }
  - { offsetInCU: 0x3AF0F, offset: 0x4FF1E3, size: 0x8, addend: 0x0, symName: '__ZN4core3ptr85drop_in_place$LT$alloc..vec..Vec$LT$$LP$syn..pat..Pat$C$syn..token..Comma$RP$$GT$$GT$17h8ead75bf9213bc10E.llvm.2919429348807089406', symObjAddr: 0xE470, symBinAddr: 0xF58D0, symSize: 0xD0 }
  - { offsetInCU: 0x3B20E, offset: 0x4FF4E2, size: 0x8, addend: 0x0, symName: '__ZN4core3ptr85drop_in_place$LT$alloc..vec..Vec$LT$$LP$syn..ty..Type$C$syn..token..Comma$RP$$GT$$GT$17h2558a6f370e75802E.llvm.2919429348807089406', symObjAddr: 0xE540, symBinAddr: 0xF59A0, symSize: 0xD0 }
  - { offsetInCU: 0x3B509, offset: 0x4FF7DD, size: 0x8, addend: 0x0, symName: '__ZN4core3ptr86drop_in_place$LT$$LP$syn..token..If$C$alloc..boxed..Box$LT$syn..expr..Expr$GT$$RP$$GT$17he48bd3f744075dddE', symObjAddr: 0xE610, symBinAddr: 0xF5A70, symSize: 0x50 }
  - { offsetInCU: 0x3B681, offset: 0x4FF955, size: 0x8, addend: 0x0, symName: '__ZN4core3ptr86drop_in_place$LT$$u5b$$LP$syn..generics..TypeParamBound$C$syn..token..Add$RP$$u5d$$GT$17h0b00def6dc905f2cE', symObjAddr: 0xE660, symBinAddr: 0xF5AC0, symSize: 0xE0 }
  - { offsetInCU: 0x3B857, offset: 0x4FFB2B, size: 0x8, addend: 0x0, symName: '__ZN4core3ptr86drop_in_place$LT$syn..punctuated..Punctuated$LT$syn..pat..Pat$C$syn..token..Or$GT$$GT$17h1078c5d178d382b7E', symObjAddr: 0xE740, symBinAddr: 0xF5BA0, symSize: 0x120 }
  - { offsetInCU: 0x3BD4D, offset: 0x500021, size: 0x8, addend: 0x0, symName: '__ZN4core3ptr87drop_in_place$LT$alloc..vec..Vec$LT$$LP$syn..expr..Expr$C$syn..token..Comma$RP$$GT$$GT$17ha5588c79c88b2eb2E.llvm.2919429348807089406', symObjAddr: 0xE860, symBinAddr: 0xF5CC0, symSize: 0xD0 }
  - { offsetInCU: 0x3C048, offset: 0x50031C, size: 0x8, addend: 0x0, symName: '__ZN4core3ptr87drop_in_place$LT$core..option..Option$LT$alloc..boxed..Box$LT$syn..pat..Pat$GT$$GT$$GT$17ha7f5fe0e6f73e820E', symObjAddr: 0xE930, symBinAddr: 0xF5D90, symSize: 0x50 }
  - { offsetInCU: 0x3C1B8, offset: 0x50048C, size: 0x8, addend: 0x0, symName: '__ZN4core3ptr87drop_in_place$LT$core..option..Option$LT$alloc..boxed..Box$LT$syn..ty..Type$GT$$GT$$GT$17hc8292da82d129de3E', symObjAddr: 0xE980, symBinAddr: 0xF5DE0, symSize: 0x50 }
  - { offsetInCU: 0x3C328, offset: 0x5005FC, size: 0x8, addend: 0x0, symName: '__ZN4core3ptr88drop_in_place$LT$alloc..vec..Vec$LT$$LP$syn..data..Field$C$syn..token..Comma$RP$$GT$$GT$17h92f883c9746a1265E.llvm.2919429348807089406', symObjAddr: 0xE9D0, symBinAddr: 0xF5E30, symSize: 0xD0 }
  - { offsetInCU: 0x3C623, offset: 0x5008F7, size: 0x8, addend: 0x0, symName: '__ZN4core3ptr88drop_in_place$LT$alloc..vec..Vec$LT$$LP$syn..item..FnArg$C$syn..token..Comma$RP$$GT$$GT$17h4467406a7c8f89d5E.llvm.2919429348807089406', symObjAddr: 0xEAA0, symBinAddr: 0xF5F00, symSize: 0xC0 }
  - { offsetInCU: 0x3C91C, offset: 0x500BF0, size: 0x8, addend: 0x0, symName: '__ZN4core3ptr89drop_in_place$LT$core..option..Option$LT$alloc..boxed..Box$LT$syn..expr..Expr$GT$$GT$$GT$17hdc211ccd33f196f2E', symObjAddr: 0xEB60, symBinAddr: 0xF5FC0, symSize: 0x50 }
  - { offsetInCU: 0x3CA8C, offset: 0x500D60, size: 0x8, addend: 0x0, symName: '__ZN4core3ptr89drop_in_place$LT$syn..punctuated..Punctuated$LT$syn..ty..Type$C$syn..token..Comma$GT$$GT$17h1c6e43341fabea97E.llvm.2919429348807089406', symObjAddr: 0xEBB0, symBinAddr: 0xF6010, symSize: 0x120 }
  - { offsetInCU: 0x3CF6B, offset: 0x50123F, size: 0x8, addend: 0x0, symName: '__ZN4core3ptr90drop_in_place$LT$alloc..vec..Vec$LT$$LP$syn..data..Variant$C$syn..token..Comma$RP$$GT$$GT$17h7886d5ad254619b6E.llvm.2919429348807089406', symObjAddr: 0xECD0, symBinAddr: 0xF6130, symSize: 0xD0 }
  - { offsetInCU: 0x3D266, offset: 0x50153A, size: 0x8, addend: 0x0, symName: '__ZN4core3ptr90drop_in_place$LT$alloc..vec..Vec$LT$$LP$syn..item..UseTree$C$syn..token..Comma$RP$$GT$$GT$17hd641cf5199af6a96E.llvm.2919429348807089406', symObjAddr: 0xEDA0, symBinAddr: 0xF6200, symSize: 0xC0 }
  - { offsetInCU: 0x3D59D, offset: 0x501871, size: 0x8, addend: 0x0, symName: '__ZN4core3ptr90drop_in_place$LT$alloc..vec..Vec$LT$$LP$syn..pat..FieldPat$C$syn..token..Comma$RP$$GT$$GT$17h821f3c6217b2c623E.llvm.2919429348807089406', symObjAddr: 0xEE60, symBinAddr: 0xF62C0, symSize: 0xD0 }
  - { offsetInCU: 0x3D8A4, offset: 0x501B78, size: 0x8, addend: 0x0, symName: '__ZN4core3ptr90drop_in_place$LT$alloc..vec..Vec$LT$$LP$syn..ty..BareFnArg$C$syn..token..Comma$RP$$GT$$GT$17hb8d63f816cfff9deE.llvm.2919429348807089406', symObjAddr: 0xEF30, symBinAddr: 0xF6390, symSize: 0xD0 }
  - { offsetInCU: 0x3DB6B, offset: 0x501E3F, size: 0x8, addend: 0x0, symName: '__ZN4core3ptr90drop_in_place$LT$core..option..Option$LT$alloc..boxed..Box$LT$syn..data..Field$GT$$GT$$GT$17he146e9f4e32c136fE', symObjAddr: 0xF000, symBinAddr: 0xF6460, symSize: 0x50 }
  - { offsetInCU: 0x3DCDB, offset: 0x501FAF, size: 0x8, addend: 0x0, symName: '__ZN4core3ptr90drop_in_place$LT$core..option..Option$LT$alloc..boxed..Box$LT$syn..item..FnArg$GT$$GT$$GT$17ha72e545cf6ea6548E', symObjAddr: 0xF050, symBinAddr: 0xF64B0, symSize: 0x50 }
  - { offsetInCU: 0x3DE6A, offset: 0x50213E, size: 0x8, addend: 0x0, symName: '__ZN4core3ptr91drop_in_place$LT$syn..punctuated..Punctuated$LT$syn..expr..Expr$C$syn..token..Comma$GT$$GT$17hd2dfeb0c522d9a18E', symObjAddr: 0xF0A0, symBinAddr: 0xF6500, symSize: 0x120 }
  - { offsetInCU: 0x3E2FF, offset: 0x5025D3, size: 0x8, addend: 0x0, symName: '__ZN4core3ptr92drop_in_place$LT$core..option..Option$LT$$LP$syn..token..As$C$proc_macro2..Ident$RP$$GT$$GT$17hdb8e08992a006501E', symObjAddr: 0xF1C0, symBinAddr: 0xF6620, symSize: 0x30 }
  - { offsetInCU: 0x3E41A, offset: 0x5026EE, size: 0x8, addend: 0x0, symName: '__ZN4core3ptr92drop_in_place$LT$syn..punctuated..Punctuated$LT$syn..data..Field$C$syn..token..Comma$GT$$GT$17h907c4fed8ae64bc3E', symObjAddr: 0xF1F0, symBinAddr: 0xF6650, symSize: 0x120 }
  - { offsetInCU: 0x3E89C, offset: 0x502B70, size: 0x8, addend: 0x0, symName: '__ZN4core3ptr92drop_in_place$LT$syn..punctuated..Punctuated$LT$syn..item..FnArg$C$syn..token..Comma$GT$$GT$17h3049a14d789de61dE', symObjAddr: 0xF310, symBinAddr: 0xF6770, symSize: 0x150 }
  - { offsetInCU: 0x3ED2D, offset: 0x503001, size: 0x8, addend: 0x0, symName: '__ZN4core3ptr93drop_in_place$LT$alloc..vec..Vec$LT$$LP$syn..attr..NestedMeta$C$syn..token..Comma$RP$$GT$$GT$17h53ae1922cd101034E.llvm.2919429348807089406', symObjAddr: 0xF460, symBinAddr: 0xF68C0, symSize: 0xD0 }
  - { offsetInCU: 0x3F061, offset: 0x503335, size: 0x8, addend: 0x0, symName: '__ZN4core3ptr93drop_in_place$LT$alloc..vec..Vec$LT$$LP$syn..expr..FieldValue$C$syn..token..Comma$RP$$GT$$GT$17hd798ac33b9d22184E.llvm.2919429348807089406', symObjAddr: 0xF530, symBinAddr: 0xF6990, symSize: 0xD0 }
  - { offsetInCU: 0x3F385, offset: 0x503659, size: 0x8, addend: 0x0, symName: '__ZN4core3ptr93drop_in_place$LT$alloc..vec..Vec$LT$$LP$syn..lifetime..Lifetime$C$syn..token..Add$RP$$GT$$GT$17hde298d17c652af62E.llvm.2919429348807089406', symObjAddr: 0xF600, symBinAddr: 0xF6A60, symSize: 0x90 }
  - { offsetInCU: 0x3F686, offset: 0x50395A, size: 0x8, addend: 0x0, symName: '__ZN4core3ptr94drop_in_place$LT$syn..punctuated..Punctuated$LT$syn..data..Variant$C$syn..token..Comma$GT$$GT$17hb4480d65f74dc9d7E', symObjAddr: 0xF690, symBinAddr: 0xF6AF0, symSize: 0x120 }
  - { offsetInCU: 0x3FB59, offset: 0x503E2D, size: 0x8, addend: 0x0, symName: '__ZN4core3ptr94drop_in_place$LT$syn..punctuated..Punctuated$LT$syn..pat..FieldPat$C$syn..token..Comma$GT$$GT$17h612cbc9066d5afb1E', symObjAddr: 0xF7B0, symBinAddr: 0xF6C10, symSize: 0xF0 }
  - { offsetInCU: 0x3FEB0, offset: 0x504184, size: 0x8, addend: 0x0, symName: '__ZN4core3ptr94drop_in_place$LT$syn..punctuated..Punctuated$LT$syn..ty..BareFnArg$C$syn..token..Comma$GT$$GT$17ha9a668ce9972795bE', symObjAddr: 0xF8A0, symBinAddr: 0xF6D00, symSize: 0xF0 }
  - { offsetInCU: 0x401C7, offset: 0x50449B, size: 0x8, addend: 0x0, symName: '__ZN4core3ptr95drop_in_place$LT$alloc..vec..Vec$LT$$LP$syn..path..PathSegment$C$syn..token..Colon2$RP$$GT$$GT$17hd4ac5ab6c0f8b220E.llvm.2919429348807089406', symObjAddr: 0xF990, symBinAddr: 0xF6DF0, symSize: 0x100 }
  - { offsetInCU: 0x405A3, offset: 0x504877, size: 0x8, addend: 0x0, symName: '__ZN4core3ptr95drop_in_place$LT$core..option..Option$LT$$LP$proc_macro2..Ident$C$syn..token..Colon$RP$$GT$$GT$17h7314df562090eafdE.llvm.2919429348807089406', symObjAddr: 0xFA90, symBinAddr: 0xF6EF0, symSize: 0x30 }
  - { offsetInCU: 0x406BE, offset: 0x504992, size: 0x8, addend: 0x0, symName: '__ZN4core3ptr95drop_in_place$LT$core..option..Option$LT$alloc..boxed..Box$LT$syn..attr..NestedMeta$GT$$GT$$GT$17hc6a9c17daba692ddE.llvm.2919429348807089406', symObjAddr: 0xFAC0, symBinAddr: 0xF6F20, symSize: 0x50 }
  - { offsetInCU: 0x4082E, offset: 0x504B02, size: 0x8, addend: 0x0, symName: '__ZN4core3ptr96drop_in_place$LT$core..option..Option$LT$alloc..boxed..Box$LT$syn..path..PathSegment$GT$$GT$$GT$17h2e81cbe3c70bb71cE.llvm.2919429348807089406', symObjAddr: 0xFB10, symBinAddr: 0xF6F70, symSize: 0x50 }
  - { offsetInCU: 0x4099E, offset: 0x504C72, size: 0x8, addend: 0x0, symName: '__ZN4core3ptr97drop_in_place$LT$syn..punctuated..Punctuated$LT$syn..attr..NestedMeta$C$syn..token..Comma$GT$$GT$17h975d4de078ee9c5cE.llvm.2919429348807089406', symObjAddr: 0xFB60, symBinAddr: 0xF6FC0, symSize: 0x190 }
  - { offsetInCU: 0x40D3E, offset: 0x505012, size: 0x8, addend: 0x0, symName: '__ZN4core3ptr97drop_in_place$LT$syn..punctuated..Punctuated$LT$syn..expr..FieldValue$C$syn..token..Comma$GT$$GT$17h11a5fffb46adfb11E', symObjAddr: 0xFCF0, symBinAddr: 0xF7150, symSize: 0xF0 }
  - { offsetInCU: 0x410B2, offset: 0x505386, size: 0x8, addend: 0x0, symName: '__ZN4core3ptr97drop_in_place$LT$syn..punctuated..Punctuated$LT$syn..lifetime..Lifetime$C$syn..token..Add$GT$$GT$17h5c54dea2c838d109E.llvm.2919429348807089406', symObjAddr: 0xFDE0, symBinAddr: 0xF7240, symSize: 0xD0 }
  - { offsetInCU: 0x41524, offset: 0x5057F8, size: 0x8, addend: 0x0, symName: '__ZN4core3ptr98drop_in_place$LT$alloc..vec..Vec$LT$$LP$syn..generics..LifetimeDef$C$syn..token..Comma$RP$$GT$$GT$17h1ff3008828a3546eE.llvm.2919429348807089406', symObjAddr: 0xFEB0, symBinAddr: 0xF7310, symSize: 0xC0 }
  - { offsetInCU: 0x4181D, offset: 0x505AF1, size: 0x8, addend: 0x0, symName: '__ZN4core3ptr98drop_in_place$LT$alloc..vec..Vec$LT$$LP$syn..path..GenericArgument$C$syn..token..Comma$RP$$GT$$GT$17ha8e33b474744c469E.llvm.2919429348807089406', symObjAddr: 0xFF70, symBinAddr: 0xF73D0, symSize: 0xD0 }
  - { offsetInCU: 0x41B18, offset: 0x505DEC, size: 0x8, addend: 0x0, symName: '__ZN4core3ptr99drop_in_place$LT$alloc..vec..Vec$LT$$LP$syn..generics..GenericParam$C$syn..token..Comma$RP$$GT$$GT$17h6a63382b7b118436E.llvm.2919429348807089406', symObjAddr: 0x10040, symBinAddr: 0xF74A0, symSize: 0xD0 }
  - { offsetInCU: 0x41E13, offset: 0x5060E7, size: 0x8, addend: 0x0, symName: '__ZN4core3ptr99drop_in_place$LT$alloc..vec..Vec$LT$$LP$syn..generics..TypeParamBound$C$syn..token..Add$RP$$GT$$GT$17h1faee7dfcf042dc4E.llvm.2919429348807089406', symObjAddr: 0x10110, symBinAddr: 0xF7570, symSize: 0xC0 }
  - { offsetInCU: 0x4210C, offset: 0x5063E0, size: 0x8, addend: 0x0, symName: '__ZN4core3ptr99drop_in_place$LT$syn..punctuated..Punctuated$LT$syn..path..PathSegment$C$syn..token..Colon2$GT$$GT$17hb961e4d7989a33ceE.llvm.2919429348807089406', symObjAddr: 0x101D0, symBinAddr: 0xF7630, symSize: 0xF0 }
  - { offsetInCU: 0x48105, offset: 0x50C3D9, size: 0x8, addend: 0x0, symName: '__ZN48_$LT$T$u20$as$u20$core..clone..CloneToUninit$GT$15clone_to_uninit17h4ec7541d8e1e05f7E', symObjAddr: 0x220, symBinAddr: 0xE7860, symSize: 0x340 }
  - { offsetInCU: 0x49630, offset: 0x50D904, size: 0x8, addend: 0x0, symName: '__ZN136_$LT$alloc..vec..Vec$LT$T$C$A$GT$$u20$as$u20$alloc..vec..spec_extend..SpecExtend$LT$T$C$alloc..vec..into_iter..IntoIter$LT$T$GT$$GT$$GT$11spec_extend17h8843d0dbc1b1f870E', symObjAddr: 0x20, symBinAddr: 0xE77B0, symSize: 0xB0 }
  - { offsetInCU: 0x49963, offset: 0x50DC37, size: 0x8, addend: 0x0, symName: '__ZN97_$LT$alloc..vec..Vec$LT$T$C$A$GT$$u20$as$u20$alloc..vec..spec_extend..SpecExtend$LT$T$C$I$GT$$GT$11spec_extend17hd5c233121a9f5638E', symObjAddr: 0x14720, symBinAddr: 0xFA0D0, symSize: 0x330 }
  - { offsetInCU: 0x4A998, offset: 0x50EC6C, size: 0x8, addend: 0x0, symName: '__ZN65_$LT$alloc..vec..Vec$LT$T$C$A$GT$$u20$as$u20$core..fmt..Debug$GT$3fmt17h4b81b50d8fe38c59E', symObjAddr: 0x106C0, symBinAddr: 0xF77B0, symSize: 0x80 }
  - { offsetInCU: 0x4AB7B, offset: 0x50EE4F, size: 0x8, addend: 0x0, symName: '__ZN65_$LT$alloc..vec..Vec$LT$T$C$A$GT$$u20$as$u20$core..fmt..Debug$GT$3fmt17hf50488d82a0ae802E', symObjAddr: 0x10940, symBinAddr: 0xF7830, symSize: 0x80 }
  - { offsetInCU: 0x4ADBC, offset: 0x50F090, size: 0x8, addend: 0x0, symName: '__ZN67_$LT$alloc..vec..Vec$LT$T$C$A$GT$$u20$as$u20$core..clone..Clone$GT$5clone17h067ba7b3e9618fa6E', symObjAddr: 0x109C0, symBinAddr: 0xF78B0, symSize: 0x140 }
  - { offsetInCU: 0x4B24E, offset: 0x50F522, size: 0x8, addend: 0x0, symName: '__ZN67_$LT$alloc..vec..Vec$LT$T$C$A$GT$$u20$as$u20$core..clone..Clone$GT$5clone17h0f27e1d119576456E', symObjAddr: 0x10C70, symBinAddr: 0xF79F0, symSize: 0x170 }
  - { offsetInCU: 0x4B7B3, offset: 0x50FA87, size: 0x8, addend: 0x0, symName: '__ZN67_$LT$alloc..vec..Vec$LT$T$C$A$GT$$u20$as$u20$core..clone..Clone$GT$5clone17h0f34a8bef598482cE', symObjAddr: 0x10DE0, symBinAddr: 0xF7B60, symSize: 0x140 }
  - { offsetInCU: 0x4BBF2, offset: 0x50FEC6, size: 0x8, addend: 0x0, symName: '__ZN67_$LT$alloc..vec..Vec$LT$T$C$A$GT$$u20$as$u20$core..clone..Clone$GT$5clone17h1e9d5b5197ca3b27E', symObjAddr: 0x10F20, symBinAddr: 0xF7CA0, symSize: 0x140 }
  - { offsetInCU: 0x4C031, offset: 0x510305, size: 0x8, addend: 0x0, symName: '__ZN67_$LT$alloc..vec..Vec$LT$T$C$A$GT$$u20$as$u20$core..clone..Clone$GT$5clone17h3324310790ff34b9E', symObjAddr: 0x11060, symBinAddr: 0xF7DE0, symSize: 0x150 }
  - { offsetInCU: 0x4C4CC, offset: 0x5107A0, size: 0x8, addend: 0x0, symName: '__ZN67_$LT$alloc..vec..Vec$LT$T$C$A$GT$$u20$as$u20$core..clone..Clone$GT$5clone17h39a7f38aecdcfd11E', symObjAddr: 0x111B0, symBinAddr: 0xF7F30, symSize: 0x170 }
  - { offsetInCU: 0x4C965, offset: 0x510C39, size: 0x8, addend: 0x0, symName: '__ZN67_$LT$alloc..vec..Vec$LT$T$C$A$GT$$u20$as$u20$core..clone..Clone$GT$5clone17h4551f673e813c809E', symObjAddr: 0x11320, symBinAddr: 0xF80A0, symSize: 0x140 }
  - { offsetInCU: 0x4CDA1, offset: 0x511075, size: 0x8, addend: 0x0, symName: '__ZN67_$LT$alloc..vec..Vec$LT$T$C$A$GT$$u20$as$u20$core..clone..Clone$GT$5clone17h4b655b5cddcadd6aE', symObjAddr: 0x11460, symBinAddr: 0xF81E0, symSize: 0x150 }
  - { offsetInCU: 0x4D23C, offset: 0x511510, size: 0x8, addend: 0x0, symName: '__ZN67_$LT$alloc..vec..Vec$LT$T$C$A$GT$$u20$as$u20$core..clone..Clone$GT$5clone17h4b9e2160401b16dbE', symObjAddr: 0x115B0, symBinAddr: 0xF8330, symSize: 0x1F0 }
  - { offsetInCU: 0x4D762, offset: 0x511A36, size: 0x8, addend: 0x0, symName: '__ZN67_$LT$alloc..vec..Vec$LT$T$C$A$GT$$u20$as$u20$core..clone..Clone$GT$5clone17h60e34a1d98492b9fE', symObjAddr: 0x117A0, symBinAddr: 0xF8520, symSize: 0x140 }
  - { offsetInCU: 0x4DBA1, offset: 0x511E75, size: 0x8, addend: 0x0, symName: '__ZN67_$LT$alloc..vec..Vec$LT$T$C$A$GT$$u20$as$u20$core..clone..Clone$GT$5clone17h636bcaf8346666b7E', symObjAddr: 0x118E0, symBinAddr: 0xF8660, symSize: 0x150 }
  - { offsetInCU: 0x4E03C, offset: 0x512310, size: 0x8, addend: 0x0, symName: '__ZN67_$LT$alloc..vec..Vec$LT$T$C$A$GT$$u20$as$u20$core..clone..Clone$GT$5clone17h65a8d92620c35388E', symObjAddr: 0x11A30, symBinAddr: 0xF87B0, symSize: 0x140 }
  - { offsetInCU: 0x4E4CE, offset: 0x5127A2, size: 0x8, addend: 0x0, symName: '__ZN67_$LT$alloc..vec..Vec$LT$T$C$A$GT$$u20$as$u20$core..clone..Clone$GT$5clone17h6fe6598834fbef78E', symObjAddr: 0x11B70, symBinAddr: 0xF88F0, symSize: 0x260 }
  - { offsetInCU: 0x4EB2A, offset: 0x512DFE, size: 0x8, addend: 0x0, symName: '__ZN67_$LT$alloc..vec..Vec$LT$T$C$A$GT$$u20$as$u20$core..clone..Clone$GT$5clone17h747a3e779494bc62E', symObjAddr: 0x11DD0, symBinAddr: 0xF8B50, symSize: 0x140 }
  - { offsetInCU: 0x4EF69, offset: 0x51323D, size: 0x8, addend: 0x0, symName: '__ZN67_$LT$alloc..vec..Vec$LT$T$C$A$GT$$u20$as$u20$core..clone..Clone$GT$5clone17h795c7b2b8807866bE', symObjAddr: 0x11F10, symBinAddr: 0xF8C90, symSize: 0x140 }
  - { offsetInCU: 0x4F3FB, offset: 0x5136CF, size: 0x8, addend: 0x0, symName: '__ZN67_$LT$alloc..vec..Vec$LT$T$C$A$GT$$u20$as$u20$core..clone..Clone$GT$5clone17h81b703d64d075dc5E', symObjAddr: 0x12050, symBinAddr: 0xF8DD0, symSize: 0x140 }
  - { offsetInCU: 0x4F88D, offset: 0x513B61, size: 0x8, addend: 0x0, symName: '__ZN67_$LT$alloc..vec..Vec$LT$T$C$A$GT$$u20$as$u20$core..clone..Clone$GT$5clone17h86a578e0279be320E', symObjAddr: 0x12190, symBinAddr: 0xF8F10, symSize: 0x140 }
  - { offsetInCU: 0x4FD1D, offset: 0x513FF1, size: 0x8, addend: 0x0, symName: '__ZN67_$LT$alloc..vec..Vec$LT$T$C$A$GT$$u20$as$u20$core..clone..Clone$GT$5clone17h99b2d10e8bd6b5ceE', symObjAddr: 0x122D0, symBinAddr: 0xF9050, symSize: 0x140 }
  - { offsetInCU: 0x501B6, offset: 0x51448A, size: 0x8, addend: 0x0, symName: '__ZN67_$LT$alloc..vec..Vec$LT$T$C$A$GT$$u20$as$u20$core..clone..Clone$GT$5clone17ha807b77bd68b1261E', symObjAddr: 0x12410, symBinAddr: 0xF9190, symSize: 0x140 }
  - { offsetInCU: 0x505F5, offset: 0x5148C9, size: 0x8, addend: 0x0, symName: '__ZN67_$LT$alloc..vec..Vec$LT$T$C$A$GT$$u20$as$u20$core..clone..Clone$GT$5clone17hb04bb518124eb3baE', symObjAddr: 0x12550, symBinAddr: 0xF92D0, symSize: 0x230 }
  - { offsetInCU: 0x50C74, offset: 0x514F48, size: 0x8, addend: 0x0, symName: '__ZN67_$LT$alloc..vec..Vec$LT$T$C$A$GT$$u20$as$u20$core..clone..Clone$GT$5clone17hb8d479b5bf54a37fE', symObjAddr: 0x12780, symBinAddr: 0xF9500, symSize: 0x1D0 }
  - { offsetInCU: 0x51160, offset: 0x515434, size: 0x8, addend: 0x0, symName: '__ZN67_$LT$alloc..vec..Vec$LT$T$C$A$GT$$u20$as$u20$core..clone..Clone$GT$5clone17hbfebd22721a45af6E', symObjAddr: 0x12950, symBinAddr: 0xF96D0, symSize: 0x140 }
  - { offsetInCU: 0x515F2, offset: 0x5158C6, size: 0x8, addend: 0x0, symName: '__ZN67_$LT$alloc..vec..Vec$LT$T$C$A$GT$$u20$as$u20$core..clone..Clone$GT$5clone17hc639d5dcb2253337E', symObjAddr: 0x12A90, symBinAddr: 0xF9810, symSize: 0x140 }
  - { offsetInCU: 0x51A84, offset: 0x515D58, size: 0x8, addend: 0x0, symName: '__ZN67_$LT$alloc..vec..Vec$LT$T$C$A$GT$$u20$as$u20$core..clone..Clone$GT$5clone17hd173e8be3de648d9E', symObjAddr: 0x12D20, symBinAddr: 0xF9950, symSize: 0x180 }
  - { offsetInCU: 0x51F59, offset: 0x51622D, size: 0x8, addend: 0x0, symName: '__ZN67_$LT$alloc..vec..Vec$LT$T$C$A$GT$$u20$as$u20$core..clone..Clone$GT$5clone17hd3cfc84b2b5e9b62E', symObjAddr: 0x12EA0, symBinAddr: 0xF9AD0, symSize: 0x140 }
  - { offsetInCU: 0x523E9, offset: 0x5166BD, size: 0x8, addend: 0x0, symName: '__ZN67_$LT$alloc..vec..Vec$LT$T$C$A$GT$$u20$as$u20$core..clone..Clone$GT$5clone17hf688e6ba0ffa0a5dE', symObjAddr: 0x12FE0, symBinAddr: 0xF9C10, symSize: 0x140 }
  - { offsetInCU: 0x52879, offset: 0x516B4D, size: 0x8, addend: 0x0, symName: '__ZN67_$LT$alloc..vec..Vec$LT$T$C$A$GT$$u20$as$u20$core..clone..Clone$GT$5clone17hfda9ff849246773aE', symObjAddr: 0x13120, symBinAddr: 0xF9D50, symSize: 0x140 }
  - { offsetInCU: 0x53239, offset: 0x51750D, size: 0x8, addend: 0x0, symName: '__ZN70_$LT$alloc..vec..Vec$LT$T$C$A$GT$$u20$as$u20$core..ops..drop..Drop$GT$4drop17h22c555aa9db299d4E', symObjAddr: 0x13360, symBinAddr: 0xF9E90, symSize: 0xA0 }
  - { offsetInCU: 0x532EE, offset: 0x5175C2, size: 0x8, addend: 0x0, symName: '__ZN70_$LT$alloc..vec..Vec$LT$T$C$A$GT$$u20$as$u20$core..ops..drop..Drop$GT$4drop17h3e7660583633fff8E', symObjAddr: 0x13570, symBinAddr: 0xF9F30, symSize: 0xC0 }
  - { offsetInCU: 0x53350, offset: 0x517624, size: 0x8, addend: 0x0, symName: '__ZN70_$LT$alloc..vec..Vec$LT$T$C$A$GT$$u20$as$u20$core..ops..drop..Drop$GT$4drop17h3fa7ae0a6bee11e1E', symObjAddr: 0x13630, symBinAddr: 0xF9FF0, symSize: 0xE0 }
  - { offsetInCU: 0x58F53, offset: 0x51D227, size: 0x8, addend: 0x0, symName: '__ZN5alloc3vec16Vec$LT$T$C$A$GT$16into_boxed_slice17hc26dbb1317cd1ac6E', symObjAddr: 0x10350, symBinAddr: 0xF7720, symSize: 0x90 }
  - { offsetInCU: 0x1E, offset: 0x532B2A, size: 0x8, addend: 0x0, symName: '__ZN4core3ptr100drop_in_place$LT$core..option..Option$LT$alloc..boxed..Box$LT$syn..generics..LifetimeDef$GT$$GT$$GT$17h75a6086997697dd7E', symObjAddr: 0x0, symBinAddr: 0xFA400, symSize: 0x150 }
  - { offsetInCU: 0xBE, offset: 0x532BCA, size: 0x8, addend: 0x0, symName: '__ZN58_$LT$alloc..string..String$u20$as$u20$core..fmt..Write$GT$10write_char17h04bc467bd68a934bE', symObjAddr: 0x7450, symBinAddr: 0x101850, symSize: 0x140 }
  - { offsetInCU: 0x4C4, offset: 0x532FD0, size: 0x8, addend: 0x0, symName: '__ZN58_$LT$alloc..string..String$u20$as$u20$core..fmt..Write$GT$9write_str17h46a93205c3443fbaE', symObjAddr: 0x7590, symBinAddr: 0x101990, symSize: 0x60 }
  - { offsetInCU: 0xC33, offset: 0x53373F, size: 0x8, addend: 0x0, symName: __ZN5alloc5alloc15exchange_malloc17h9a87608d0224859dE, symObjAddr: 0x75F0, symBinAddr: 0x1019F0, symSize: 0x40 }
  - { offsetInCU: 0x1E28, offset: 0x534934, size: 0x8, addend: 0x0, symName: '__ZN4core3ptr100drop_in_place$LT$core..option..Option$LT$alloc..boxed..Box$LT$syn..generics..LifetimeDef$GT$$GT$$GT$17h75a6086997697dd7E', symObjAddr: 0x0, symBinAddr: 0xFA400, symSize: 0x150 }
  - { offsetInCU: 0x23A4, offset: 0x534EB0, size: 0x8, addend: 0x0, symName: '__ZN4core3ptr100drop_in_place$LT$core..option..Option$LT$alloc..boxed..Box$LT$syn..path..GenericArgument$GT$$GT$$GT$17h3d29ec00a8f1918dE', symObjAddr: 0x150, symBinAddr: 0xFA550, symSize: 0x50 }
  - { offsetInCU: 0x264A, offset: 0x535156, size: 0x8, addend: 0x0, symName: '__ZN4core3ptr103drop_in_place$LT$syn..punctuated..Punctuated$LT$syn..generics..TypeParamBound$C$syn..token..Add$GT$$GT$17he811d520c92af08aE', symObjAddr: 0x1A0, symBinAddr: 0xFA5A0, symSize: 0x1C0 }
  - { offsetInCU: 0x2EAE, offset: 0x5359BA, size: 0x8, addend: 0x0, symName: '__ZN4core3ptr108drop_in_place$LT$syn..punctuated..Punctuated$LT$syn..expr..GenericMethodArgument$C$syn..token..Comma$GT$$GT$17h92cbabe4862b2183E', symObjAddr: 0x360, symBinAddr: 0xFA760, symSize: 0x150 }
  - { offsetInCU: 0x3407, offset: 0x535F13, size: 0x8, addend: 0x0, symName: '__ZN4core3ptr34drop_in_place$LT$syn..lit..Lit$GT$17hbe1efe749a08dd9aE', symObjAddr: 0x4B0, symBinAddr: 0xFA8B0, symSize: 0x110 }
  - { offsetInCU: 0x3879, offset: 0x536385, size: 0x8, addend: 0x0, symName: '__ZN4core3ptr34drop_in_place$LT$syn..pat..Pat$GT$17h3201f642e43ac2a2E', symObjAddr: 0x5C0, symBinAddr: 0xFA9C0, symSize: 0x1050 }
  - { offsetInCU: 0x7238, offset: 0x539D44, size: 0x8, addend: 0x0, symName: '__ZN4core3ptr34drop_in_place$LT$syn..ty..Type$GT$17hfb5d159a08190130E', symObjAddr: 0x1610, symBinAddr: 0xFBA10, symSize: 0x620 }
  - { offsetInCU: 0x8DB6, offset: 0x53B8C2, size: 0x8, addend: 0x0, symName: '__ZN4core3ptr36drop_in_place$LT$syn..expr..Expr$GT$17hf1921d1b09462bc3E.llvm.1415980140280537373', symObjAddr: 0x1C30, symBinAddr: 0xFC030, symSize: 0x2EA0 }
  - { offsetInCU: 0x1280A, offset: 0x545316, size: 0x8, addend: 0x0, symName: '__ZN4core3ptr36drop_in_place$LT$syn..mac..Macro$GT$17h205613d7ad575f72E', symObjAddr: 0x4AD0, symBinAddr: 0xFEED0, symSize: 0xE0 }
  - { offsetInCU: 0x12C10, offset: 0x54571C, size: 0x8, addend: 0x0, symName: '__ZN4core3ptr36drop_in_place$LT$syn..path..Path$GT$17he6d0bec66d66b98aE', symObjAddr: 0x4BB0, symBinAddr: 0xFEFB0, symSize: 0x230 }
  - { offsetInCU: 0x135A6, offset: 0x5460B2, size: 0x8, addend: 0x0, symName: '__ZN4core3ptr37drop_in_place$LT$syn..stmt..Block$GT$17h3aa429e75a234230E', symObjAddr: 0x4DE0, symBinAddr: 0xFF1E0, symSize: 0xD0 }
  - { offsetInCU: 0x1387D, offset: 0x546389, size: 0x8, addend: 0x0, symName: '__ZN4core3ptr38drop_in_place$LT$syn..expr..Member$GT$17ha113d37a67d27aafE', symObjAddr: 0x4EB0, symBinAddr: 0xFF2B0, symSize: 0x30 }
  - { offsetInCU: 0x13A14, offset: 0x546520, size: 0x8, addend: 0x0, symName: '__ZN4core3ptr38drop_in_place$LT$syn..group..Group$GT$17h0fddc99b7dc4ab91E', symObjAddr: 0x4EE0, symBinAddr: 0xFF2E0, symSize: 0x70 }
  - { offsetInCU: 0x13D0C, offset: 0x546818, size: 0x8, addend: 0x0, symName: '__ZN4core3ptr39drop_in_place$LT$proc_macro2..Ident$GT$17hdeec010483268a0dE', symObjAddr: 0x4F50, symBinAddr: 0xFF350, symSize: 0x30 }
  - { offsetInCU: 0x13E27, offset: 0x546933, size: 0x8, addend: 0x0, symName: '__ZN4core3ptr39drop_in_place$LT$syn..lit..LitFloat$GT$17h89b7791cfce3cb6aE', symObjAddr: 0x4F80, symBinAddr: 0xFF380, symSize: 0x70 }
  - { offsetInCU: 0x14199, offset: 0x546CA5, size: 0x8, addend: 0x0, symName: '__ZN4core3ptr39drop_in_place$LT$syn..pat..PatTuple$GT$17h96faeea9832d4c4bE', symObjAddr: 0x4FF0, symBinAddr: 0xFF3F0, symSize: 0x100 }
  - { offsetInCU: 0x144A2, offset: 0x546FAE, size: 0x8, addend: 0x0, symName: '__ZN4core3ptr40drop_in_place$LT$syn..ty..ReturnType$GT$17h6f97c9fdb958983eE', symObjAddr: 0x50F0, symBinAddr: 0xFF4F0, symSize: 0x50 }
  - { offsetInCU: 0x14612, offset: 0x54711E, size: 0x8, addend: 0x0, symName: '__ZN4core3ptr41drop_in_place$LT$syn..attr..Attribute$GT$17h01ed88f7d2878bfcE', symObjAddr: 0x5140, symBinAddr: 0xFF540, symSize: 0x40 }
  - { offsetInCU: 0x1462F, offset: 0x54713B, size: 0x8, addend: 0x0, symName: '__ZN4core3ptr42drop_in_place$LT$alloc..string..String$GT$17hef974c60cd9900dbE', symObjAddr: 0x5180, symBinAddr: 0xFF580, symSize: 0x20 }
  - { offsetInCU: 0x147D2, offset: 0x5472DE, size: 0x8, addend: 0x0, symName: '__ZN4core3ptr42drop_in_place$LT$syn..expr..ExprStruct$GT$17hcd4a233ae9f7b2e4E', symObjAddr: 0x51A0, symBinAddr: 0xFF5A0, symSize: 0x300 }
  - { offsetInCU: 0x153AD, offset: 0x547EB9, size: 0x8, addend: 0x0, symName: '__ZN4core3ptr42drop_in_place$LT$syn..expr..FieldValue$GT$17h42a16bcbdc918058E', symObjAddr: 0x54A0, symBinAddr: 0xFF8A0, symSize: 0x140 }
  - { offsetInCU: 0x15839, offset: 0x548345, size: 0x8, addend: 0x0, symName: '__ZN4core3ptr43drop_in_place$LT$syn..expr..ExprClosure$GT$17h33394450256957a8E', symObjAddr: 0x55E0, symBinAddr: 0xFF9E0, symSize: 0x270 }
  - { offsetInCU: 0x16292, offset: 0x548D9E, size: 0x8, addend: 0x0, symName: '__ZN4core3ptr44drop_in_place$LT$syn..lifetime..Lifetime$GT$17h3858225df033648aE', symObjAddr: 0x5850, symBinAddr: 0xFFC50, symSize: 0x30 }
