---
triple:          'x86_64-apple-darwin'
binary-path:     "/Users/justinlanouette/Chaos/ChaöS-Token/hello_world/target/release/build/generic-array-1037b414b3507902/build_script_build-1037b414b3507902"
relocations:
  - { offsetInCU: 0x1E, offset: 0x1E, size: 0x8, addend: 0x0, symName: __ZN18build_script_build4main17h943f01e074ee0c14E, symObjAddr: 0x0, symBinAddr: 0x100003C50, symSize: 0x60 }
  - { offsetInCU: 0x53A, offset: 0x53A, size: 0x8, addend: 0x0, symName: __ZN18build_script_build4main17h943f01e074ee0c14E, symObjAddr: 0x0, symBinAddr: 0x100003C50, symSize: 0x60 }
  - { offsetInCU: 0x1E, offset: 0x5CF, size: 0x8, addend: 0x0, symName: __ZN3std2rt10lang_start17hfed0c88083718ebfE, symObjAddr: 0x0, symBinAddr: 0x100003CD0, symSize: 0x30 }
  - { offsetInCU: 0x5B, offset: 0x60C, size: 0x8, addend: 0x0, symName: '__ZN3std2rt10lang_start28_$u7b$$u7b$closure$u7d$$u7d$17hb4e6f294c51e2898E', symObjAddr: 0x30, symBinAddr: 0x100003D00, symSize: 0x10 }
  - { offsetInCU: 0x9F, offset: 0x650, size: 0x8, addend: 0x0, symName: __ZN3std2rt10lang_start17hfed0c88083718ebfE, symObjAddr: 0x0, symBinAddr: 0x100003CD0, symSize: 0x30 }
  - { offsetInCU: 0x15E, offset: 0x70F, size: 0x8, addend: 0x0, symName: '__ZN4core3ops8function6FnOnce40call_once$u7b$$u7b$vtable.shim$u7d$$u7d$17hce4e2f8a42b293efE', symObjAddr: 0x40, symBinAddr: 0x100003D10, symSize: 0x10 }
  - { offsetInCU: 0x1D8, offset: 0x789, size: 0x8, addend: 0x0, symName: '__ZN4core3ptr85drop_in_place$LT$std..rt..lang_start$LT$$LP$$RP$$GT$..$u7b$$u7b$closure$u7d$$u7d$$GT$17he41def3683cc1ed9E', symObjAddr: 0x50, symBinAddr: 0x100003D20, symSize: 0x6 }
  - { offsetInCU: 0x1E, offset: 0x80A, size: 0x8, addend: 0x0, symName: __ZN3std10sys_common9backtrace28__rust_begin_short_backtrace17h3d8fdb696d9633b0E, symObjAddr: 0x0, symBinAddr: 0x100003D30, symSize: 0x8 }
  - { offsetInCU: 0xBF, offset: 0x8AB, size: 0x8, addend: 0x0, symName: __ZN3std10sys_common9backtrace28__rust_begin_short_backtrace17h3d8fdb696d9633b0E, symObjAddr: 0x0, symBinAddr: 0x100003D30, symSize: 0x8 }
  - { offsetInCU: 0x1E, offset: 0x950, size: 0x8, addend: 0x0, symName: '__ZN4core3ptr42drop_in_place$LT$std..process..Command$GT$17h8b065d755e101fe0E', symObjAddr: 0x0, symBinAddr: 0x100003D80, symSize: 0x250 }
  - { offsetInCU: 0xEFE, offset: 0x1830, size: 0x8, addend: 0x0, symName: '__ZN4core3ptr42drop_in_place$LT$std..process..Command$GT$17h8b065d755e101fe0E', symObjAddr: 0x0, symBinAddr: 0x100003D80, symSize: 0x250 }
  - { offsetInCU: 0x3139, offset: 0x3A6B, size: 0x8, addend: 0x0, symName: '__ZN81_$LT$core..str..pattern..CharSearcher$u20$as$u20$core..str..pattern..Searcher$GT$10next_match17hc7a77fb1661897c4E', symObjAddr: 0x9A0, symBinAddr: 0x100004720, symSize: 0x200 }
  - { offsetInCU: 0x4EE3, offset: 0x5815, size: 0x8, addend: 0x0, symName: '__ZN13version_check43version_and_date_from_rustc_verbose_version28_$u7b$$u7b$closure$u7d$$u7d$17h4fb9aa5ad5da3a21E', symObjAddr: 0xBA0, symBinAddr: 0x100004920, symSize: 0x140 }
  - { offsetInCU: 0x5679, offset: 0x5FAB, size: 0x8, addend: 0x0, symName: __ZN13version_check20get_version_and_date17h8cceddac134abb74E, symObjAddr: 0xCE0, symBinAddr: 0x100004A60, symSize: 0xB10 }
  - { offsetInCU: 0x8AF0, offset: 0x9422, size: 0x8, addend: 0x0, symName: __ZN13version_check14is_min_version17h5071d040413df2f4E, symObjAddr: 0x1A40, symBinAddr: 0x100005570, symSize: 0x50 }
  - { offsetInCU: 0x9A84, offset: 0xA3B6, size: 0x8, addend: 0x0, symName: '__ZN4core3str4iter22SplitInternal$LT$P$GT$19next_back_inclusive17h15ec9d8aff1bf50cE', symObjAddr: 0x250, symBinAddr: 0x100003FD0, symSize: 0x1F0 }
  - { offsetInCU: 0x9FC7, offset: 0xA8F9, size: 0x8, addend: 0x0, symName: '__ZN4core3str4iter22SplitInternal$LT$P$GT$4next17h6e8f1040ff85ba34E', symObjAddr: 0x440, symBinAddr: 0x1000041C0, symSize: 0x560 }
  - { offsetInCU: 0xBA7, offset: 0xD4C8, size: 0x8, addend: 0x0, symName: '__ZN4core3str21_$LT$impl$u20$str$GT$12trim_matches17hba6316cc224fda15E', symObjAddr: 0x40, symBinAddr: 0x1000055C0, symSize: 0x2D0 }
  - { offsetInCU: 0x14D9, offset: 0xDDFA, size: 0x8, addend: 0x0, symName: '__ZN4core3str21_$LT$impl$u20$str$GT$16trim_end_matches17h1f23a69ffe20f705E', symObjAddr: 0x310, symBinAddr: 0x100005890, symSize: 0x5E0 }
  - { offsetInCU: 0x19FB, offset: 0xE31C, size: 0x8, addend: 0x0, symName: '__ZN4core3str21_$LT$impl$u20$str$GT$16trim_end_matches17hc21b4bceb5532df4E', symObjAddr: 0x8F0, symBinAddr: 0x100005E70, symSize: 0x130 }
  - { offsetInCU: 0x1F81, offset: 0xE8A2, size: 0x8, addend: 0x0, symName: '__ZN4core3str21_$LT$impl$u20$str$GT$18trim_start_matches17hbd683a569d9479acE', symObjAddr: 0x1010, symBinAddr: 0x100005FA0, symSize: 0x191 }
  - { offsetInCU: 0x72A, offset: 0x1081E, size: 0x8, addend: 0x0, symName: '__ZN90_$LT$core..str..iter..Split$LT$P$GT$$u20$as$u20$core..iter..traits..iterator..Iterator$GT$4next17h63510ed30587137fE', symObjAddr: 0x30, symBinAddr: 0x100006140, symSize: 0x220 }
  - { offsetInCU: 0x194C, offset: 0x11A40, size: 0x8, addend: 0x0, symName: __ZN13version_check7version7Version4read17hf4e160da44b602a4E, symObjAddr: 0x250, symBinAddr: 0x100006360, symSize: 0xB0 }
  - { offsetInCU: 0x1DA7, offset: 0x11E9B, size: 0x8, addend: 0x0, symName: __ZN13version_check7version7Version5parse17hce6c79ff7c0ea755E, symObjAddr: 0x300, symBinAddr: 0x100006410, symSize: 0x140 }
  - { offsetInCU: 0x53E, offset: 0x1287F, size: 0x8, addend: 0x0, symName: '__ZN70_$LT$alloc..vec..Vec$LT$T$C$A$GT$$u20$as$u20$core..ops..drop..Drop$GT$4drop17hef4d2a026fd19792E', symObjAddr: 0x60, symBinAddr: 0x100006550, symSize: 0xE8 }
  - { offsetInCU: 0x1E, offset: 0x12E80, size: 0x8, addend: 0x0, symName: '__ZN99_$LT$alloc..collections..btree..map..BTreeMap$LT$K$C$V$C$A$GT$$u20$as$u20$core..ops..drop..Drop$GT$4drop17h03d19f9a512d0f97E', symObjAddr: 0x0, symBinAddr: 0x100006640, symSize: 0x3A8 }
  - { offsetInCU: 0xA24, offset: 0x13886, size: 0x8, addend: 0x0, symName: '__ZN99_$LT$alloc..collections..btree..map..BTreeMap$LT$K$C$V$C$A$GT$$u20$as$u20$core..ops..drop..Drop$GT$4drop17h03d19f9a512d0f97E', symObjAddr: 0x0, symBinAddr: 0x100006640, symSize: 0x3A8 }
...
