---
triple:          'x86_64-apple-darwin'
binary-path:     "/Users/justinlanouette/Chaos/ChaöS-Token/hello_world/target/release/build/blake3-2a35fa9cf090d053/build_script_build-2a35fa9cf090d053"
relocations:
  - { offsetInCU: 0x1E, offset: 0x1E, size: 0x8, addend: 0x0, symName: '__ZN46_$LT$cc..Error$u20$as$u20$core..fmt..Debug$GT$3fmt17hb0fcc16e22953c77E', symObjAddr: 0x0, symBinAddr: 0x1000021F0, symSize: 0x70 }
  - { offsetInCU: 0xF5, offset: 0xF5, size: 0x8, addend: 0x0, symName: '__ZN46_$LT$cc..Error$u20$as$u20$core..fmt..Debug$GT$3fmt17hb0fcc16e22953c77E', symObjAddr: 0x0, symBinAddr: 0x1000021F0, symSize: 0x70 }
  - { offsetInCU: 0x24B, offset: 0x24B, size: 0x8, addend: 0x0, symName: '__ZN50_$LT$cc..ErrorKind$u20$as$u20$core..fmt..Debug$GT$3fmt17h3a7d179dc127a9efE', symObjAddr: 0x1280, symBinAddr: 0x1000033F0, symSize: 0x30 }
  - { offsetInCU: 0x165E, offset: 0x165E, size: 0x8, addend: 0x0, symName: '__ZN4core3ptr104drop_in_place$LT$core..option..Option$LT$core..option..Option$LT$alloc..sync..Arc$LT$str$GT$$GT$$GT$$GT$17h702926c7f6b565c7E', symObjAddr: 0xF0, symBinAddr: 0x100002260, symSize: 0x30 }
  - { offsetInCU: 0x174D, offset: 0x174D, size: 0x8, addend: 0x0, symName: '__ZN4core3ptr137drop_in_place$LT$alloc..vec..Vec$LT$$LP$alloc..sync..Arc$LT$str$GT$$C$core..option..Option$LT$alloc..sync..Arc$LT$str$GT$$GT$$RP$$GT$$GT$17h4a6cc73a332ba28aE', symObjAddr: 0x120, symBinAddr: 0x100002290, symSize: 0x60 }
  - { offsetInCU: 0x1961, offset: 0x1961, size: 0x8, addend: 0x0, symName: '__ZN4core3ptr149drop_in_place$LT$alloc..vec..Vec$LT$$LP$alloc..sync..Arc$LT$std..ffi..os_str..OsStr$GT$$C$alloc..sync..Arc$LT$std..ffi..os_str..OsStr$GT$$RP$$GT$$GT$17he87c747a5185edd0E', symObjAddr: 0x180, symBinAddr: 0x1000022F0, symSize: 0x60 }
  - { offsetInCU: 0x1D46, offset: 0x1D46, size: 0x8, addend: 0x0, symName: '__ZN4core3ptr30drop_in_place$LT$cc..Build$GT$17hc238df781cc290d1E', symObjAddr: 0x1E0, symBinAddr: 0x100002350, symSize: 0xB60 }
  - { offsetInCU: 0x587E, offset: 0x587E, size: 0x8, addend: 0x0, symName: '__ZN4core3ptr34drop_in_place$LT$cc..ErrorKind$GT$17h7fcb66a3243aa69eE', symObjAddr: 0xD40, symBinAddr: 0x100002EB0, symSize: 0x10 }
  - { offsetInCU: 0x59E0, offset: 0x59E0, size: 0x8, addend: 0x0, symName: '__ZN4core3ptr35drop_in_place$LT$cc..tool..Tool$GT$17h0b9bebb2f34ad504E', symObjAddr: 0xD50, symBinAddr: 0x100002EC0, symSize: 0x1F0 }
  - { offsetInCU: 0x6808, offset: 0x6808, size: 0x8, addend: 0x0, symName: '__ZN4core3ptr39drop_in_place$LT$std..env..VarError$GT$17h4b71ee3a98b19741E', symObjAddr: 0xF40, symBinAddr: 0x1000030B0, symSize: 0x30 }
  - { offsetInCU: 0x6A8E, offset: 0x6A8E, size: 0x8, addend: 0x0, symName: '__ZN4core3ptr42drop_in_place$LT$std..io..error..Error$GT$17h92b7ca07df300d76E', symObjAddr: 0xF70, symBinAddr: 0x1000030E0, symSize: 0xB0 }
  - { offsetInCU: 0x6EF5, offset: 0x6EF5, size: 0x8, addend: 0x0, symName: '__ZN4core3ptr51drop_in_place$LT$$RF$std..ffi..os_str..OsString$GT$17h334ac3c9029db854E', symObjAddr: 0x1020, symBinAddr: 0x100003190, symSize: 0x10 }
  - { offsetInCU: 0x6F40, offset: 0x6F40, size: 0x8, addend: 0x0, symName: '__ZN4core3ptr65drop_in_place$LT$alloc..vec..Vec$LT$alloc..string..String$GT$$GT$17hf3a63ce1cee7406eE', symObjAddr: 0x1030, symBinAddr: 0x1000031A0, symSize: 0x80 }
  - { offsetInCU: 0x71A4, offset: 0x71A4, size: 0x8, addend: 0x0, symName: '__ZN4core3ptr83drop_in_place$LT$alloc..vec..Vec$LT$alloc..sync..Arc$LT$std..path..Path$GT$$GT$$GT$17h18bbf04b82659aacE', symObjAddr: 0x10B0, symBinAddr: 0x100003220, symSize: 0xE0 }
  - { offsetInCU: 0x757E, offset: 0x757E, size: 0x8, addend: 0x0, symName: '__ZN4core3ptr91drop_in_place$LT$alloc..vec..Vec$LT$alloc..sync..Arc$LT$std..ffi..os_str..OsStr$GT$$GT$$GT$17he0b5fba495667655E', symObjAddr: 0x1190, symBinAddr: 0x100003300, symSize: 0xE0 }
  - { offsetInCU: 0x8C92, offset: 0x8C92, size: 0x8, addend: 0x0, symName: __ZN4core5error5Error7provide17h7666c2972318804eE, symObjAddr: 0x1270, symBinAddr: 0x1000033E0, symSize: 0x10 }
  - { offsetInCU: 0x93C8, offset: 0x93C8, size: 0x8, addend: 0x0, symName: '__ZN55_$LT$std..env..VarError$u20$as$u20$core..fmt..Debug$GT$3fmt17hf9237b4ce8a4fbe3E', symObjAddr: 0x12B0, symBinAddr: 0x100003420, symSize: 0x50 }
  - { offsetInCU: 0x9CC5, offset: 0x9CC5, size: 0x8, addend: 0x0, symName: __ZN18build_script_build4warn17h451bc3d183d495e7E, symObjAddr: 0x1300, symBinAddr: 0x100003470, symSize: 0x180 }
  - { offsetInCU: 0xA0DE, offset: 0xA0DE, size: 0x8, addend: 0x0, symName: __ZN18build_script_build17target_components17h852ade26663d1f76E, symObjAddr: 0x1480, symBinAddr: 0x1000035F0, symSize: 0x170 }
  - { offsetInCU: 0xA57E, offset: 0xA57E, size: 0x8, addend: 0x0, symName: __ZN18build_script_build9is_x86_6417h24bcb68bd45917a7E, symObjAddr: 0x15F0, symBinAddr: 0x100003760, symSize: 0xE0 }
  - { offsetInCU: 0xA889, offset: 0xA889, size: 0x8, addend: 0x0, symName: __ZN18build_script_build9is_x86_3217h27dd33e3e6c16500E, symObjAddr: 0x16D0, symBinAddr: 0x100003840, symSize: 0xE0 }
  - { offsetInCU: 0xADDA, offset: 0xADDA, size: 0x8, addend: 0x0, symName: __ZN18build_script_build10is_aarch6417h7998f1bb0d1d9f69E, symObjAddr: 0x17B0, symBinAddr: 0x100003920, symSize: 0xE0 }
  - { offsetInCU: 0xB0E5, offset: 0xB0E5, size: 0x8, addend: 0x0, symName: __ZN18build_script_build8is_armv717h316965ba84ea8e21E, symObjAddr: 0x1890, symBinAddr: 0x100003A00, symSize: 0xE0 }
  - { offsetInCU: 0xB3F0, offset: 0xB3F0, size: 0x8, addend: 0x0, symName: __ZN18build_script_build10endianness17h9dd78fb406f3f2c3E, symObjAddr: 0x1970, symBinAddr: 0x100003AE0, symSize: 0x120 }
  - { offsetInCU: 0xB7FD, offset: 0xB7FD, size: 0x8, addend: 0x0, symName: __ZN18build_script_build15is_windows_msvc17hcd6ee0a83befd2abE, symObjAddr: 0x1A90, symBinAddr: 0x100003C00, symSize: 0x2A0 }
  - { offsetInCU: 0xC389, offset: 0xC389, size: 0x8, addend: 0x0, symName: __ZN18build_script_build14is_windows_gnu17h31802b7432d93360E, symObjAddr: 0x1D30, symBinAddr: 0x100003EA0, symSize: 0x2B0 }
  - { offsetInCU: 0xD08F, offset: 0xD08F, size: 0x8, addend: 0x0, symName: __ZN18build_script_build4main17h2ca210079d89d144E, symObjAddr: 0x1FE0, symBinAddr: 0x100004150, symSize: 0x1A10 }
  - { offsetInCU: 0x1E, offset: 0x13E00, size: 0x8, addend: 0x0, symName: '__ZN79_$LT$hashbrown..raw..RawTable$LT$T$C$A$GT$$u20$as$u20$core..ops..drop..Drop$GT$4drop17h84baf9f0a99282d2E', symObjAddr: 0x0, symBinAddr: 0x100005B80, symSize: 0x110 }
  - { offsetInCU: 0x1AE7, offset: 0x158C9, size: 0x8, addend: 0x0, symName: '__ZN79_$LT$hashbrown..raw..RawTable$LT$T$C$A$GT$$u20$as$u20$core..ops..drop..Drop$GT$4drop17h84baf9f0a99282d2E', symObjAddr: 0x0, symBinAddr: 0x100005B80, symSize: 0x110 }
  - { offsetInCU: 0x1B15, offset: 0x158F7, size: 0x8, addend: 0x0, symName: '__ZN79_$LT$hashbrown..raw..RawTable$LT$T$C$A$GT$$u20$as$u20$core..ops..drop..Drop$GT$4drop17h84baf9f0a99282d2E', symObjAddr: 0x0, symBinAddr: 0x100005B80, symSize: 0x110 }
  - { offsetInCU: 0x1B3C, offset: 0x1591E, size: 0x8, addend: 0x0, symName: '__ZN79_$LT$hashbrown..raw..RawTable$LT$T$C$A$GT$$u20$as$u20$core..ops..drop..Drop$GT$4drop17h84baf9f0a99282d2E', symObjAddr: 0x0, symBinAddr: 0x100005B80, symSize: 0x110 }
  - { offsetInCU: 0x1B4D, offset: 0x1592F, size: 0x8, addend: 0x0, symName: '__ZN79_$LT$hashbrown..raw..RawTable$LT$T$C$A$GT$$u20$as$u20$core..ops..drop..Drop$GT$4drop17h84baf9f0a99282d2E', symObjAddr: 0x0, symBinAddr: 0x100005B80, symSize: 0x110 }
  - { offsetInCU: 0x22BB, offset: 0x1609D, size: 0x8, addend: 0x0, symName: '__ZN79_$LT$hashbrown..raw..RawTable$LT$T$C$A$GT$$u20$as$u20$core..ops..drop..Drop$GT$4drop17h96cb29c37798ef5eE', symObjAddr: 0x110, symBinAddr: 0x100005C90, symSize: 0x110 }
  - { offsetInCU: 0x29F3, offset: 0x167D5, size: 0x8, addend: 0x0, symName: '__ZN79_$LT$hashbrown..raw..RawTable$LT$T$C$A$GT$$u20$as$u20$core..ops..drop..Drop$GT$4drop17ha635cf89dfbef6daE', symObjAddr: 0x220, symBinAddr: 0x100005DA0, symSize: 0x110 }
  - { offsetInCU: 0x31BD, offset: 0x16F9F, size: 0x8, addend: 0x0, symName: '__ZN79_$LT$hashbrown..raw..RawTable$LT$T$C$A$GT$$u20$as$u20$core..ops..drop..Drop$GT$4drop17had0219994e70568fE', symObjAddr: 0x330, symBinAddr: 0x100005EB0, symSize: 0x110 }
  - { offsetInCU: 0x31EB, offset: 0x16FCD, size: 0x8, addend: 0x0, symName: '__ZN79_$LT$hashbrown..raw..RawTable$LT$T$C$A$GT$$u20$as$u20$core..ops..drop..Drop$GT$4drop17had0219994e70568fE', symObjAddr: 0x330, symBinAddr: 0x100005EB0, symSize: 0x110 }
  - { offsetInCU: 0x3212, offset: 0x16FF4, size: 0x8, addend: 0x0, symName: '__ZN79_$LT$hashbrown..raw..RawTable$LT$T$C$A$GT$$u20$as$u20$core..ops..drop..Drop$GT$4drop17had0219994e70568fE', symObjAddr: 0x330, symBinAddr: 0x100005EB0, symSize: 0x110 }
  - { offsetInCU: 0x3223, offset: 0x17005, size: 0x8, addend: 0x0, symName: '__ZN79_$LT$hashbrown..raw..RawTable$LT$T$C$A$GT$$u20$as$u20$core..ops..drop..Drop$GT$4drop17had0219994e70568fE', symObjAddr: 0x330, symBinAddr: 0x100005EB0, symSize: 0x110 }
  - { offsetInCU: 0x3991, offset: 0x17773, size: 0x8, addend: 0x0, symName: '__ZN79_$LT$hashbrown..raw..RawTable$LT$T$C$A$GT$$u20$as$u20$core..ops..drop..Drop$GT$4drop17he6cab02708ed65ecE', symObjAddr: 0x440, symBinAddr: 0x100005FC0, symSize: 0x126 }
  - { offsetInCU: 0x1E, offset: 0x19F2E, size: 0x8, addend: 0x0, symName: __ZN5alloc7raw_vec11finish_grow17h2b243d213d22193aE.llvm.4708155675081478778, symObjAddr: 0x0, symBinAddr: 0x1000060F0, symSize: 0xA0 }
  - { offsetInCU: 0xF4F, offset: 0x1AE5F, size: 0x8, addend: 0x0, symName: __ZN5alloc7raw_vec11finish_grow17h2b243d213d22193aE.llvm.4708155675081478778, symObjAddr: 0x0, symBinAddr: 0x1000060F0, symSize: 0xA0 }
  - { offsetInCU: 0x1415, offset: 0x1B325, size: 0x8, addend: 0x0, symName: '__ZN5alloc7raw_vec19RawVec$LT$T$C$A$GT$7reserve21do_reserve_and_handle17hd4f39608d65edd7aE', symObjAddr: 0x260, symBinAddr: 0x100090040, symSize: 0xD0 }
  - { offsetInCU: 0x1E04, offset: 0x1BD14, size: 0x8, addend: 0x0, symName: '__ZN5alloc7raw_vec19RawVec$LT$T$C$A$GT$16reserve_for_push17he133d26816b4ccc2E', symObjAddr: 0x1A0, symBinAddr: 0x100006190, symSize: 0x0 }
  - { offsetInCU: 0x1E, offset: 0x1C210, size: 0x8, addend: 0x0, symName: '__ZN102_$LT$core..iter..adapters..map..Map$LT$I$C$F$GT$$u20$as$u20$core..iter..traits..iterator..Iterator$GT$4next17h6ab0f305ac0fc2beE', symObjAddr: 0x0, symBinAddr: 0x100006250, symSize: 0x5D0 }
  - { offsetInCU: 0x113E, offset: 0x1D330, size: 0x8, addend: 0x0, symName: '__ZN102_$LT$core..iter..adapters..map..Map$LT$I$C$F$GT$$u20$as$u20$core..iter..traits..iterator..Iterator$GT$4next17h6ab0f305ac0fc2beE', symObjAddr: 0x0, symBinAddr: 0x100006250, symSize: 0x5D0 }
  - { offsetInCU: 0x1F99, offset: 0x1E18B, size: 0x8, addend: 0x0, symName: '__ZN70_$LT$alloc..vec..Vec$LT$T$C$A$GT$$u20$as$u20$core..ops..drop..Drop$GT$4drop17h541015c00f9004e1E', symObjAddr: 0x790, symBinAddr: 0x100006820, symSize: 0x110 }
  - { offsetInCU: 0x2403, offset: 0x1E5F5, size: 0x8, addend: 0x0, symName: '__ZN70_$LT$alloc..vec..Vec$LT$T$C$A$GT$$u20$as$u20$core..ops..drop..Drop$GT$4drop17hb7372c10a5c90a08E', symObjAddr: 0x950, symBinAddr: 0x100006930, symSize: 0x100 }
  - { offsetInCU: 0x2B14, offset: 0x1ED06, size: 0x8, addend: 0x0, symName: '__ZN98_$LT$alloc..vec..Vec$LT$T$GT$$u20$as$u20$alloc..vec..spec_from_iter..SpecFromIter$LT$T$C$I$GT$$GT$9from_iter17h80a4bb1c42af33ecE', symObjAddr: 0xA50, symBinAddr: 0x100006A30, symSize: 0x201 }
  - { offsetInCU: 0x1E, offset: 0x2096B, size: 0x8, addend: 0x0, symName: '__ZN4core3ptr53drop_in_place$LT$core..alloc..layout..LayoutError$GT$17hc98496ddd1cc9161E.llvm.4068055554852904207', symObjAddr: 0x0, symBinAddr: 0x100006C40, symSize: 0x10 }
  - { offsetInCU: 0x35, offset: 0x20982, size: 0x8, addend: 0x0, symName: _anon.024c78218ab52d5430b17ceb59e97b96.1.llvm.4068055554852904207, symObjAddr: 0x500, symBinAddr: 0x1000B48F0, symSize: 0x0 }
  - { offsetInCU: 0x107, offset: 0x20A54, size: 0x8, addend: 0x0, symName: '__ZN69_$LT$core..alloc..layout..LayoutError$u20$as$u20$core..fmt..Debug$GT$3fmt17h4a4fe23c9d7564f3E.llvm.4068055554852904207', symObjAddr: 0x3E0, symBinAddr: 0x100006F50, symSize: 0x19 }
  - { offsetInCU: 0x43C, offset: 0x20D89, size: 0x8, addend: 0x0, symName: '__ZN4core3ptr53drop_in_place$LT$core..alloc..layout..LayoutError$GT$17hc98496ddd1cc9161E.llvm.4068055554852904207', symObjAddr: 0x0, symBinAddr: 0x100006C40, symSize: 0x10 }
  - { offsetInCU: 0x2B38, offset: 0x23485, size: 0x8, addend: 0x0, symName: '__ZN5alloc4sync16Arc$LT$T$C$A$GT$9drop_slow17h13773b8f862316b1E', symObjAddr: 0x20, symBinAddr: 0x100006C50, symSize: 0x70 }
  - { offsetInCU: 0x2F53, offset: 0x238A0, size: 0x8, addend: 0x0, symName: '__ZN5alloc4sync16Arc$LT$T$C$A$GT$9drop_slow17h68dc8699c51d249bE', symObjAddr: 0x90, symBinAddr: 0x100006CC0, symSize: 0x30 }
  - { offsetInCU: 0x322E, offset: 0x23B7B, size: 0x8, addend: 0x0, symName: '__ZN5alloc4sync16Arc$LT$T$C$A$GT$9drop_slow17h69219719014c0954E', symObjAddr: 0xC0, symBinAddr: 0x100006CF0, symSize: 0x0 }
  - { offsetInCU: 0x3588, offset: 0x23ED5, size: 0x8, addend: 0x0, symName: '__ZN5alloc4sync16Arc$LT$T$C$A$GT$9drop_slow17h8a6752aed4ebb525E', symObjAddr: 0x100, symBinAddr: 0x100006D30, symSize: 0x80 }
  - { offsetInCU: 0x3C48, offset: 0x24595, size: 0x8, addend: 0x0, symName: '__ZN5alloc4sync16Arc$LT$T$C$A$GT$9drop_slow17hbe844c1994a63400E', symObjAddr: 0x180, symBinAddr: 0x100006DB0, symSize: 0x60 }
  - { offsetInCU: 0x40F6, offset: 0x24A43, size: 0x8, addend: 0x0, symName: '__ZN5alloc4sync16Arc$LT$T$C$A$GT$9drop_slow17hd872eafe8838e5deE', symObjAddr: 0x1E0, symBinAddr: 0x100006E10, symSize: 0x70 }
  - { offsetInCU: 0x45A4, offset: 0x24EF1, size: 0x8, addend: 0x0, symName: '__ZN5alloc4sync16Arc$LT$T$C$A$GT$9drop_slow17hf1a54a93ace91388E', symObjAddr: 0x250, symBinAddr: 0x100006E80, symSize: 0x70 }
  - { offsetInCU: 0x4A79, offset: 0x253C6, size: 0x8, addend: 0x0, symName: '__ZN5alloc4sync16Arc$LT$T$C$A$GT$9drop_slow17hf7b70060dfb8c9d9E', symObjAddr: 0x2C0, symBinAddr: 0x100006EF0, symSize: 0x60 }
  - { offsetInCU: 0x1E, offset: 0x259C6, size: 0x8, addend: 0x0, symName: __ZN2cc5Build17is_flag_supported17hfd23c84abd6ed2c8E, symObjAddr: 0x0, symBinAddr: 0x100006F70, symSize: 0x1E0 }
  - { offsetInCU: 0xE4D, offset: 0x267F5, size: 0x8, addend: 0x0, symName: '__ZN4core3ptr35drop_in_place$LT$cc..tool..Tool$GT$17h0b9bebb2f34ad504E.llvm.1986169801044821650', symObjAddr: 0x430, symBinAddr: 0x1000073A0, symSize: 0x1F0 }
  - { offsetInCU: 0x3A5F, offset: 0x29407, size: 0x8, addend: 0x0, symName: __ZN2cc5Build17is_flag_supported17hfd23c84abd6ed2c8E, symObjAddr: 0x0, symBinAddr: 0x100006F70, symSize: 0x1E0 }
  - { offsetInCU: 0x4073, offset: 0x29A1B, size: 0x8, addend: 0x0, symName: __ZN2cc5Build4file17hae13ae0ddfbc8cbbE, symObjAddr: 0x1E0, symBinAddr: 0x100007150, symSize: 0x130 }
  - { offsetInCU: 0x4676, offset: 0x2A01E, size: 0x8, addend: 0x0, symName: __ZN2cc5Build4flag17he3f7271de2142243E, symObjAddr: 0x310, symBinAddr: 0x100007280, symSize: 0x120 }
  - { offsetInCU: 0x1E, offset: 0x2B29B, size: 0x8, addend: 0x0, symName: '__ZN4core3ptr72drop_in_place$LT$alloc..boxed..Box$LT$dyn$u20$core..error..Error$GT$$GT$17h0d056f4807bf4a15E.llvm.8624264864282008212', symObjAddr: 0x0, symBinAddr: 0x100007590, symSize: 0x60 }
  - { offsetInCU: 0x4F0, offset: 0x2B76D, size: 0x8, addend: 0x0, symName: '__ZN4core3ptr72drop_in_place$LT$alloc..boxed..Box$LT$dyn$u20$core..error..Error$GT$$GT$17h0d056f4807bf4a15E.llvm.8624264864282008212', symObjAddr: 0x0, symBinAddr: 0x100007590, symSize: 0x60 }
  - { offsetInCU: 0xC56, offset: 0x2BED3, size: 0x8, addend: 0x0, symName: '__ZN79_$LT$core..result..Result$LT$T$C$E$GT$$u20$as$u20$std..process..Termination$GT$6report17hc21dbbdeb32c6e18E', symObjAddr: 0x60, symBinAddr: 0x1000075F0, symSize: 0xD2 }
  - { offsetInCU: 0x1E, offset: 0x2C1A5, size: 0x8, addend: 0x0, symName: '__ZN42_$LT$$RF$T$u20$as$u20$core..fmt..Debug$GT$3fmt17h0326a01a56059477E', symObjAddr: 0x0, symBinAddr: 0x1000076D0, symSize: 0x20 }
  - { offsetInCU: 0xB5, offset: 0x2C23C, size: 0x8, addend: 0x0, symName: '__ZN42_$LT$$RF$T$u20$as$u20$core..fmt..Debug$GT$3fmt17h0326a01a56059477E', symObjAddr: 0x0, symBinAddr: 0x1000076D0, symSize: 0x20 }
  - { offsetInCU: 0x1E, offset: 0x2C672, size: 0x8, addend: 0x0, symName: __ZN3std2rt10lang_start17h675b97feb8f2c30bE, symObjAddr: 0x0, symBinAddr: 0x1000076F0, symSize: 0x30 }
  - { offsetInCU: 0x5B, offset: 0x2C6AF, size: 0x8, addend: 0x0, symName: '__ZN3std2rt10lang_start28_$u7b$$u7b$closure$u7d$$u7d$17h8d5b5f7abc6fd7feE', symObjAddr: 0x30, symBinAddr: 0x100007720, symSize: 0x20 }
  - { offsetInCU: 0xDE, offset: 0x2C732, size: 0x8, addend: 0x0, symName: __ZN3std2rt10lang_start17h675b97feb8f2c30bE, symObjAddr: 0x0, symBinAddr: 0x1000076F0, symSize: 0x30 }
  - { offsetInCU: 0x28A, offset: 0x2C8DE, size: 0x8, addend: 0x0, symName: '__ZN4core3ops8function6FnOnce40call_once$u7b$$u7b$vtable.shim$u7d$$u7d$17h05556cbac0497404E', symObjAddr: 0x50, symBinAddr: 0x100007740, symSize: 0x20 }
  - { offsetInCU: 0x346, offset: 0x2C99A, size: 0x8, addend: 0x0, symName: '__ZN4core3ptr167drop_in_place$LT$std..rt..lang_start$LT$core..result..Result$LT$$LP$$RP$$C$alloc..boxed..Box$LT$dyn$u20$core..error..Error$GT$$GT$$GT$..$u7b$$u7b$closure$u7d$$u7d$$GT$17h2b5f3ec2b4125fd2E', symObjAddr: 0x70, symBinAddr: 0x100007760, symSize: 0x6 }
  - { offsetInCU: 0x1E, offset: 0x2CAAF, size: 0x8, addend: 0x0, symName: '__ZN67_$LT$alloc..boxed..Box$LT$T$C$A$GT$$u20$as$u20$core..fmt..Debug$GT$3fmt17hcfc2e2fa8ea24768E', symObjAddr: 0x0, symBinAddr: 0x100007770, symSize: 0x15 }
  - { offsetInCU: 0x1AD, offset: 0x2CC3E, size: 0x8, addend: 0x0, symName: '__ZN67_$LT$alloc..boxed..Box$LT$T$C$A$GT$$u20$as$u20$core..fmt..Debug$GT$3fmt17hcfc2e2fa8ea24768E', symObjAddr: 0x0, symBinAddr: 0x100007770, symSize: 0x15 }
  - { offsetInCU: 0x1E, offset: 0x2CD75, size: 0x8, addend: 0x0, symName: __ZN4core5error5Error7type_id17hd54570524efeb21dE, symObjAddr: 0x0, symBinAddr: 0x100007790, symSize: 0x1A }
  - { offsetInCU: 0x285, offset: 0x2CFDC, size: 0x8, addend: 0x0, symName: __ZN4core5error5Error7type_id17hd54570524efeb21dE, symObjAddr: 0x0, symBinAddr: 0x100007790, symSize: 0x1A }
  - { offsetInCU: 0x1E, offset: 0x2D163, size: 0x8, addend: 0x0, symName: __ZN3std10sys_common9backtrace28__rust_begin_short_backtrace17h1a54c1b55552684aE, symObjAddr: 0x0, symBinAddr: 0x1000077B0, symSize: 0x8 }
  - { offsetInCU: 0x1A4, offset: 0x2D2E9, size: 0x8, addend: 0x0, symName: __ZN3std10sys_common9backtrace28__rust_begin_short_backtrace17h1a54c1b55552684aE, symObjAddr: 0x0, symBinAddr: 0x1000077B0, symSize: 0x8 }
  - { offsetInCU: 0x1E, offset: 0x2D393, size: 0x8, addend: 0x0, symName: '__ZN42_$LT$$RF$T$u20$as$u20$core..fmt..Debug$GT$3fmt17h2bfbe441a39bb4d6E', symObjAddr: 0x0, symBinAddr: 0x1000077C0, symSize: 0x17 }
  - { offsetInCU: 0x64, offset: 0x2D3D9, size: 0x8, addend: 0x0, symName: '__ZN42_$LT$$RF$T$u20$as$u20$core..fmt..Debug$GT$3fmt17h2bfbe441a39bb4d6E', symObjAddr: 0x0, symBinAddr: 0x1000077C0, symSize: 0x17 }
  - { offsetInCU: 0x1E, offset: 0x2D695, size: 0x8, addend: 0x0, symName: '__ZN42_$LT$$RF$T$u20$as$u20$core..fmt..Debug$GT$3fmt17h79eec2260217d492E', symObjAddr: 0x0, symBinAddr: 0x1000077E0, symSize: 0xD }
  - { offsetInCU: 0x64, offset: 0x2D6DB, size: 0x8, addend: 0x0, symName: '__ZN42_$LT$$RF$T$u20$as$u20$core..fmt..Debug$GT$3fmt17h79eec2260217d492E', symObjAddr: 0x0, symBinAddr: 0x1000077E0, symSize: 0xD }
  - { offsetInCU: 0x1E, offset: 0x2DA65, size: 0x8, addend: 0x0, symName: '__ZN44_$LT$$RF$T$u20$as$u20$core..fmt..Display$GT$3fmt17ha02ec6f282134b6dE', symObjAddr: 0x0, symBinAddr: 0x1000077F0, symSize: 0x17 }
  - { offsetInCU: 0x64, offset: 0x2DAAB, size: 0x8, addend: 0x0, symName: '__ZN44_$LT$$RF$T$u20$as$u20$core..fmt..Display$GT$3fmt17ha02ec6f282134b6dE', symObjAddr: 0x0, symBinAddr: 0x1000077F0, symSize: 0x17 }
  - { offsetInCU: 0x1E, offset: 0x2DD04, size: 0x8, addend: 0x0, symName: '__ZN3std3ffi6os_str132_$LT$impl$u20$core..convert..From$LT$$RF$std..ffi..os_str..OsStr$GT$$u20$for$u20$alloc..sync..Arc$LT$std..ffi..os_str..OsStr$GT$$GT$4from17ha884cf242456ad37E', symObjAddr: 0x0, symBinAddr: 0x100007860, symSize: 0xC0 }
  - { offsetInCU: 0x2D3, offset: 0x2DFB9, size: 0x8, addend: 0x0, symName: '__ZN58_$LT$alloc..string..String$u20$as$u20$core..fmt..Write$GT$10write_char17hd329c0cb943f081aE', symObjAddr: 0x3790, symBinAddr: 0x10000AE10, symSize: 0x130 }
  - { offsetInCU: 0x67A, offset: 0x2E360, size: 0x8, addend: 0x0, symName: '__ZN58_$LT$alloc..string..String$u20$as$u20$core..fmt..Write$GT$9write_str17h1ff5aa96ca91c6d5E', symObjAddr: 0x38C0, symBinAddr: 0x10000AF40, symSize: 0x60 }
  - { offsetInCU: 0x99A, offset: 0x2E680, size: 0x8, addend: 0x0, symName: '__ZN60_$LT$alloc..string..String$u20$as$u20$core..fmt..Display$GT$3fmt17hc365578c40090489E', symObjAddr: 0x3C20, symBinAddr: 0x10000B2A0, symSize: 0x20 }
  - { offsetInCU: 0x4437, offset: 0x3211D, size: 0x8, addend: 0x0, symName: '__ZN5alloc3str21_$LT$impl$u20$str$GT$7replace17he78ca78a05350ba1E', symObjAddr: 0x39E0, symBinAddr: 0x10000B060, symSize: 0x1D0 }
  - { offsetInCU: 0x5765, offset: 0x3344B, size: 0x8, addend: 0x0, symName: __ZN5alloc3fmt6format17h0a81fc4f18a8ee07E, symObjAddr: 0x3920, symBinAddr: 0x10000AFA0, symSize: 0xC0 }
  - { offsetInCU: 0x6DAE, offset: 0x34A94, size: 0x8, addend: 0x0, symName: '__ZN4core3ptr104drop_in_place$LT$core..option..Option$LT$core..option..Option$LT$alloc..sync..Arc$LT$str$GT$$GT$$GT$$GT$17h91bf01afa4e01fb1E', symObjAddr: 0x390, symBinAddr: 0x100007B70, symSize: 0x30 }
  - { offsetInCU: 0x6F38, offset: 0x34C1E, size: 0x8, addend: 0x0, symName: '__ZN4core3ptr108drop_in_place$LT$core..result..Result$LT$alloc..sync..Arc$LT$std..ffi..os_str..OsStr$GT$$C$cc..Error$GT$$GT$17h47fa7cdd887bc02cE', symObjAddr: 0x3C0, symBinAddr: 0x100007BA0, symSize: 0x40 }
  - { offsetInCU: 0x71BB, offset: 0x34EA1, size: 0x8, addend: 0x0, symName: '__ZN4core3ptr137drop_in_place$LT$alloc..vec..Vec$LT$$LP$alloc..sync..Arc$LT$str$GT$$C$core..option..Option$LT$alloc..sync..Arc$LT$str$GT$$GT$$RP$$GT$$GT$17hcdccb9ba7563cb53E', symObjAddr: 0x400, symBinAddr: 0x100007BE0, symSize: 0x60 }
  - { offsetInCU: 0x73CF, offset: 0x350B5, size: 0x8, addend: 0x0, symName: '__ZN4core3ptr149drop_in_place$LT$alloc..vec..Vec$LT$$LP$alloc..sync..Arc$LT$std..ffi..os_str..OsStr$GT$$C$alloc..sync..Arc$LT$std..ffi..os_str..OsStr$GT$$RP$$GT$$GT$17h8c204838cb93a14dE', symObjAddr: 0x460, symBinAddr: 0x100007C40, symSize: 0x60 }
  - { offsetInCU: 0x769D, offset: 0x35383, size: 0x8, addend: 0x0, symName: '__ZN4core3ptr150drop_in_place$LT$alloc..sync..ArcInner$LT$std..sync..rwlock..RwLock$LT$std..collections..hash..map..HashMap$LT$cc..CompilerFlag$C$bool$GT$$GT$$GT$$GT$17h3ef4e34f7af4e4c8E', symObjAddr: 0x4C0, symBinAddr: 0x100007CA0, symSize: 0x40 }
  - { offsetInCU: 0x786D, offset: 0x35553, size: 0x8, addend: 0x0, symName: '__ZN4core3ptr168drop_in_place$LT$std..sync..poison..PoisonError$LT$std..sync..rwlock..RwLockReadGuard$LT$std..collections..hash..map..HashMap$LT$cc..CompilerFlag$C$bool$GT$$GT$$GT$$GT$17h50f6ac0e613c89ddE', symObjAddr: 0x500, symBinAddr: 0x100007CE0, symSize: 0x50 }
  - { offsetInCU: 0x7B1A, offset: 0x35800, size: 0x8, addend: 0x0, symName: '__ZN4core3ptr169drop_in_place$LT$std..sync..poison..PoisonError$LT$std..sync..rwlock..RwLockWriteGuard$LT$std..collections..hash..map..HashMap$LT$cc..CompilerFlag$C$bool$GT$$GT$$GT$$GT$17h24187c1e0be28d05E', symObjAddr: 0x550, symBinAddr: 0x100007D30, symSize: 0x70 }
  - { offsetInCU: 0x7FF0, offset: 0x35CD6, size: 0x8, addend: 0x0, symName: '__ZN4core3ptr171drop_in_place$LT$$LP$std..process..Command$C$alloc..borrow..Cow$LT$std..path..Path$GT$$C$cc..Build..compile_objects..KillOnDrop$C$cc..parallel..job_token..JobToken$RP$$GT$17h28e9d190cb1f0633E.llvm.753258070251100709', symObjAddr: 0x5C0, symBinAddr: 0x100007DA0, symSize: 0x1A0 }
  - { offsetInCU: 0x8862, offset: 0x36548, size: 0x8, addend: 0x0, symName: '__ZN4core3ptr185drop_in_place$LT$alloc..sync..ArcInner$LT$std..sync..rwlock..RwLock$LT$std..collections..hash..map..HashMap$LT$alloc..boxed..Box$LT$str$GT$$C$alloc..sync..Arc$LT$str$GT$$GT$$GT$$GT$$GT$17h140bf592e1875ee5E', symObjAddr: 0x760, symBinAddr: 0x100007F40, symSize: 0x50 }
  - { offsetInCU: 0x8AAE, offset: 0x36794, size: 0x8, addend: 0x0, symName: '__ZN4core3ptr190drop_in_place$LT$alloc..sync..ArcInner$LT$std..sync..rwlock..RwLock$LT$std..collections..hash..map..HashMap$LT$alloc..boxed..Box$LT$std..path..Path$GT$$C$cc..tool..ToolFamily$GT$$GT$$GT$$GT$17he72b0a6a5e43a28dE', symObjAddr: 0x7B0, symBinAddr: 0x100007F90, symSize: 0x40 }
  - { offsetInCU: 0x8C7E, offset: 0x36964, size: 0x8, addend: 0x0, symName: '__ZN4core3ptr194drop_in_place$LT$alloc..vec..Vec$LT$$LP$std..process..Command$C$alloc..borrow..Cow$LT$std..path..Path$GT$$C$cc..Build..compile_objects..KillOnDrop$C$cc..parallel..job_token..JobToken$RP$$GT$$GT$17h19a2172bc31fa9d5E.llvm.753258070251100709', symObjAddr: 0x7F0, symBinAddr: 0x100007FD0, symSize: 0xD0 }
  - { offsetInCU: 0x8FA6, offset: 0x36C8C, size: 0x8, addend: 0x0, symName: '__ZN4core3ptr205drop_in_place$LT$alloc..sync..ArcInner$LT$std..sync..rwlock..RwLock$LT$std..collections..hash..map..HashMap$LT$alloc..boxed..Box$LT$str$GT$$C$alloc..sync..Arc$LT$std..ffi..os_str..OsStr$GT$$GT$$GT$$GT$$GT$17h40ba80cfdbaec613E', symObjAddr: 0x8C0, symBinAddr: 0x1000080A0, symSize: 0x50 }
  - { offsetInCU: 0x9195, offset: 0x36E7B, size: 0x8, addend: 0x0, symName: '__ZN4core3ptr218drop_in_place$LT$core..cell..Cell$LT$alloc..vec..Vec$LT$$LP$std..process..Command$C$alloc..borrow..Cow$LT$std..path..Path$GT$$C$cc..Build..compile_objects..KillOnDrop$C$cc..parallel..job_token..JobToken$RP$$GT$$GT$$GT$17h9e497498a7ec8e06E', symObjAddr: 0x910, symBinAddr: 0x1000080F0, symSize: 0xD0 }
  - { offsetInCU: 0x94EB, offset: 0x371D1, size: 0x8, addend: 0x0, symName: '__ZN4core3ptr233drop_in_place$LT$alloc..sync..ArcInner$LT$std..sync..rwlock..RwLock$LT$std..collections..hash..map..HashMap$LT$alloc..boxed..Box$LT$str$GT$$C$core..option..Option$LT$alloc..sync..Arc$LT$std..ffi..os_str..OsStr$GT$$GT$$GT$$GT$$GT$$GT$17h6d3ed7af63486f93E', symObjAddr: 0x9E0, symBinAddr: 0x1000081C0, symSize: 0x50 }
  - { offsetInCU: 0x969C, offset: 0x37382, size: 0x8, addend: 0x0, symName: '__ZN4core3ptr28drop_in_place$LT$$RF$str$GT$17hbed132c5579d96d0E', symObjAddr: 0xA30, symBinAddr: 0x100008210, symSize: 0x10 }
  - { offsetInCU: 0x98B8, offset: 0x3759E, size: 0x8, addend: 0x0, symName: '__ZN4core3ptr30drop_in_place$LT$cc..Build$GT$17hb21ec76a2ae9c79dE', symObjAddr: 0xA40, symBinAddr: 0x100008220, symSize: 0xB60 }
  - { offsetInCU: 0xD48B, offset: 0x3B171, size: 0x8, addend: 0x0, symName: '__ZN4core3ptr35drop_in_place$LT$cc..tool..Tool$GT$17h5ab7c356d2d2a08eE', symObjAddr: 0x15A0, symBinAddr: 0x100008D80, symSize: 0x1F0 }
  - { offsetInCU: 0xE2F1, offset: 0x3BFD7, size: 0x8, addend: 0x0, symName: '__ZN4core3ptr37drop_in_place$LT$cc..CompilerFlag$GT$17h3a8127a80dcd81c8E', symObjAddr: 0x1790, symBinAddr: 0x100008F70, symSize: 0x50 }
  - { offsetInCU: 0xE436, offset: 0x3C11C, size: 0x8, addend: 0x0, symName: '__ZN4core3ptr37drop_in_place$LT$core..fmt..Error$GT$17hcf62fa5f02710aa0E', symObjAddr: 0x17E0, symBinAddr: 0x100008FC0, symSize: 0x10 }
  - { offsetInCU: 0xE4FD, offset: 0x3C1E3, size: 0x8, addend: 0x0, symName: '__ZN4core3ptr40drop_in_place$LT$std..process..Child$GT$17h373d5d7b85fd1421E.llvm.753258070251100709', symObjAddr: 0x17F0, symBinAddr: 0x100008FD0, symSize: 0x70 }
  - { offsetInCU: 0xE7BC, offset: 0x3C4A2, size: 0x8, addend: 0x0, symName: '__ZN4core3ptr41drop_in_place$LT$std..process..Output$GT$17he6936574326c7edbE', symObjAddr: 0x1860, symBinAddr: 0x100009040, symSize: 0x50 }
  - { offsetInCU: 0xE9AF, offset: 0x3C695, size: 0x8, addend: 0x0, symName: '__ZN4core3ptr42drop_in_place$LT$alloc..string..String$GT$17h59f79daa9132c7bfE.llvm.753258070251100709', symObjAddr: 0x18B0, symBinAddr: 0x100009090, symSize: 0x20 }
  - { offsetInCU: 0xEEEF, offset: 0x3CBD5, size: 0x8, addend: 0x0, symName: '__ZN4core3ptr42drop_in_place$LT$std..io..error..Error$GT$17h02d38141fa47cc0cE.llvm.753258070251100709', symObjAddr: 0x18D0, symBinAddr: 0x1000090B0, symSize: 0xA0 }
  - { offsetInCU: 0xF54E, offset: 0x3D234, size: 0x8, addend: 0x0, symName: '__ZN4core3ptr42drop_in_place$LT$std..process..Command$GT$17h197492d0668fbe45E.llvm.753258070251100709', symObjAddr: 0x1970, symBinAddr: 0x100009150, symSize: 0x250 }
  - { offsetInCU: 0x102EB, offset: 0x3DFD1, size: 0x8, addend: 0x0, symName: '__ZN4core3ptr52drop_in_place$LT$core..num..error..ParseIntError$GT$17hdd1756148484b659E', symObjAddr: 0x1BC0, symBinAddr: 0x1000093A0, symSize: 0x10 }
  - { offsetInCU: 0x10336, offset: 0x3E01C, size: 0x8, addend: 0x0, symName: '__ZN4core3ptr54drop_in_place$LT$alloc..vec..Vec$LT$cc..Object$GT$$GT$17h8bad2661fde0f2ccE', symObjAddr: 0x1BD0, symBinAddr: 0x1000093B0, symSize: 0x90 }
  - { offsetInCU: 0x1074C, offset: 0x3E432, size: 0x8, addend: 0x0, symName: '__ZN4core3ptr57drop_in_place$LT$cc..command_helpers..StderrForwarder$GT$17h2d834e1cdd3fa4b4E.llvm.753258070251100709', symObjAddr: 0x1C60, symBinAddr: 0x100009440, symSize: 0x60 }
  - { offsetInCU: 0x109DC, offset: 0x3E6C2, size: 0x8, addend: 0x0, symName: '__ZN4core3ptr59drop_in_place$LT$cc..Build..compile_objects..KillOnDrop$GT$17h93eb93490819bb01E.llvm.753258070251100709', symObjAddr: 0x1CC0, symBinAddr: 0x1000094A0, symSize: 0xA0 }
  - { offsetInCU: 0x10D1C, offset: 0x3EA02, size: 0x8, addend: 0x0, symName: '__ZN4core3ptr65drop_in_place$LT$alloc..vec..Vec$LT$alloc..string..String$GT$$GT$17h8d84ba12bb9056ecE', symObjAddr: 0x1D90, symBinAddr: 0x100009540, symSize: 0x80 }
  - { offsetInCU: 0x1106C, offset: 0x3ED52, size: 0x8, addend: 0x0, symName: '__ZN4core3ptr66drop_in_place$LT$cc..parallel..job_token..ActiveJobTokenServer$GT$17h890986c15dae7d6dE', symObjAddr: 0x1E10, symBinAddr: 0x1000095C0, symSize: 0xA0 }
  - { offsetInCU: 0x1146A, offset: 0x3F150, size: 0x8, addend: 0x0, symName: '__ZN4core3ptr71drop_in_place$LT$core..option..Option$LT$jobserver..imp..Helper$GT$$GT$17h362b71dbb3bb4c50E', symObjAddr: 0x1EB0, symBinAddr: 0x100009660, symSize: 0xC0 }
  - { offsetInCU: 0x11A88, offset: 0x3F76E, size: 0x8, addend: 0x0, symName: '__ZN4core3ptr83drop_in_place$LT$alloc..vec..Vec$LT$alloc..sync..Arc$LT$std..path..Path$GT$$GT$$GT$17h283ce1ce8a68f52cE', symObjAddr: 0x1F70, symBinAddr: 0x100009720, symSize: 0xE0 }
  - { offsetInCU: 0x11E62, offset: 0x3FB48, size: 0x8, addend: 0x0, symName: '__ZN4core3ptr84drop_in_place$LT$$LP$std..ffi..os_str..OsString$C$std..ffi..os_str..OsString$RP$$GT$17h9abe811c952e7c5fE', symObjAddr: 0x2050, symBinAddr: 0x100009800, symSize: 0x50 }
  - { offsetInCU: 0x120E5, offset: 0x3FDCB, size: 0x8, addend: 0x0, symName: '__ZN4core3ptr91drop_in_place$LT$alloc..vec..Vec$LT$alloc..sync..Arc$LT$std..ffi..os_str..OsStr$GT$$GT$$GT$17he87d1a1b0cce2756E', symObjAddr: 0x20A0, symBinAddr: 0x100009850, symSize: 0xE0 }
  - { offsetInCU: 0x124DE, offset: 0x401C4, size: 0x8, addend: 0x0, symName: '__ZN4core3ptr93drop_in_place$LT$core..result..Result$LT$std..process..Output$C$std..io..error..Error$GT$$GT$17h8e260dcd77510e49E', symObjAddr: 0x2180, symBinAddr: 0x100009930, symSize: 0x60 }
  - { offsetInCU: 0x13C53, offset: 0x41939, size: 0x8, addend: 0x0, symName: '__ZN68_$LT$core..num..error..ParseIntError$u20$as$u20$core..fmt..Debug$GT$3fmt17h93ff3d1c7b04da6fE', symObjAddr: 0x3C40, symBinAddr: 0x10000B2C0, symSize: 0x50 }
  - { offsetInCU: 0x13FAE, offset: 0x41C94, size: 0x8, addend: 0x0, symName: '__ZN4core3fmt3num50_$LT$impl$u20$core..fmt..Debug$u20$for$u20$i32$GT$3fmt17hf6bc5c265673d8e1E', symObjAddr: 0x2E0, symBinAddr: 0x100007B40, symSize: 0x30 }
  - { offsetInCU: 0x14017, offset: 0x41CFD, size: 0x8, addend: 0x0, symName: '__ZN53_$LT$core..fmt..Error$u20$as$u20$core..fmt..Debug$GT$3fmt17h43ae5cec9623af13E', symObjAddr: 0x31E0, symBinAddr: 0x10000A860, symSize: 0x20 }
  - { offsetInCU: 0x1CA4C, offset: 0x4A732, size: 0x8, addend: 0x0, symName: '__ZN4core3str7pattern13simd_contains28_$u7b$$u7b$closure$u7d$$u7d$17hce6f1e89daa5eeadE', symObjAddr: 0x22A0, symBinAddr: 0x100090110, symSize: 0x130 }
  - { offsetInCU: 0x1D54B, offset: 0x4B231, size: 0x8, addend: 0x0, symName: '__ZN55_$LT$$RF$str$u20$as$u20$core..str..pattern..Pattern$GT$15is_contained_in17hbbef826cef545265E', symObjAddr: 0x3200, symBinAddr: 0x10000A880, symSize: 0x590 }
  - { offsetInCU: 0x1EB77, offset: 0x4C85D, size: 0x8, addend: 0x0, symName: '__ZN80_$LT$core..str..pattern..StrSearcher$u20$as$u20$core..str..pattern..Searcher$GT$10next_match17hc6c6cf0d606b107cE', symObjAddr: 0x3C90, symBinAddr: 0x10000B310, symSize: 0x1D0 }
  - { offsetInCU: 0x1EECB, offset: 0x4CBB1, size: 0x8, addend: 0x0, symName: '__ZN81_$LT$core..str..pattern..CharSearcher$u20$as$u20$core..str..pattern..Searcher$GT$10next_match17hc7a77fb1661897c4E', symObjAddr: 0x3E60, symBinAddr: 0x10000B4E0, symSize: 0x200 }
  - { offsetInCU: 0x1F3A7, offset: 0x4D08D, size: 0x8, addend: 0x0, symName: '__ZN4core3str21_$LT$impl$u20$str$GT$5rfind17h89634948fb436d7dE', symObjAddr: 0x21E0, symBinAddr: 0x100009990, symSize: 0x80 }
  - { offsetInCU: 0x1F5DB, offset: 0x4D2C1, size: 0x8, addend: 0x0, symName: '__ZN4core3str21_$LT$impl$u20$str$GT$8split_at17h19357611ccb7ff3eE', symObjAddr: 0x2260, symBinAddr: 0x100009A10, symSize: 0x40 }
  - { offsetInCU: 0x1F61B, offset: 0x4D301, size: 0x8, addend: 0x0, symName: '__ZN4core3str21_$LT$impl$u20$str$GT$8split_at17h19357611ccb7ff3eE', symObjAddr: 0x2260, symBinAddr: 0x100009A10, symSize: 0x40 }
  - { offsetInCU: 0x24257, offset: 0x51F3D, size: 0x8, addend: 0x0, symName: '__ZN4core5slice29_$LT$impl$u20$$u5b$T$u5d$$GT$20binary_search_by_key17h74ccee315d59c4b6E', symObjAddr: 0x2B80, symBinAddr: 0x10000A200, symSize: 0xC0 }
  - { offsetInCU: 0x26A08, offset: 0x546EE, size: 0x8, addend: 0x0, symName: __ZN4core4iter6traits8iterator8Iterator4find17h4bb5f828971c7f53E, symObjAddr: 0x2700, symBinAddr: 0x100009D80, symSize: 0x100 }
  - { offsetInCU: 0x26F37, offset: 0x54C1D, size: 0x8, addend: 0x0, symName: __ZN4core4iter6traits8iterator8Iterator8find_map17he03e2bbbc9d76481E, symObjAddr: 0x2800, symBinAddr: 0x100009E80, symSize: 0x180 }
  - { offsetInCU: 0x2767A, offset: 0x55360, size: 0x8, addend: 0x0, symName: __ZN4core4iter6traits8iterator8Iterator8try_fold17he9129b19462d2d02E, symObjAddr: 0x2980, symBinAddr: 0x10000A000, symSize: 0x200 }
  - { offsetInCU: 0x29E19, offset: 0x57AFF, size: 0x8, addend: 0x0, symName: '__ZN3std3ffi6os_str132_$LT$impl$u20$core..convert..From$LT$$RF$std..ffi..os_str..OsStr$GT$$u20$for$u20$alloc..sync..Arc$LT$std..ffi..os_str..OsStr$GT$$GT$4from17ha884cf242456ad37E', symObjAddr: 0x0, symBinAddr: 0x100007860, symSize: 0xC0 }
  - { offsetInCU: 0x2D265, offset: 0x5AF4B, size: 0x8, addend: 0x0, symName: '__ZN52_$LT$Q$u20$as$u20$hashbrown..Equivalent$LT$K$GT$$GT$10equivalent17h298e59b7e0b164f1E', symObjAddr: 0x2FA0, symBinAddr: 0x10000A620, symSize: 0x240 }
  - { offsetInCU: 0x2DA4B, offset: 0x5B731, size: 0x8, addend: 0x0, symName: '__ZN108_$LT$cc..Build..windows_registry_find_tool..BuildEnvGetter$u20$as$u20$cc..windows..find_tools..EnvGetter$GT$7get_env17hfd33b80d6283ba39E', symObjAddr: 0x1D600, symBinAddr: 0x100023760, symSize: 0x50 }
  - { offsetInCU: 0x2DBDA, offset: 0x5B8C0, size: 0x8, addend: 0x0, symName: __ZN2cc5Build15compile_objects11cell_update17h3d65a340f744b3a1E, symObjAddr: 0x94F0, symBinAddr: 0x100010050, symSize: 0x160 }
  - { offsetInCU: 0x2E145, offset: 0x5BE2B, size: 0x8, addend: 0x0, symName: __ZN2cc5Build15compile_objects11cell_update17hffb5b6ea34c25269E, symObjAddr: 0x9650, symBinAddr: 0x1000101B0, symSize: 0x270 }
  - { offsetInCU: 0x2EE5F, offset: 0x5CB45, size: 0x8, addend: 0x0, symName: '__ZN2cc5Build24apple_deployment_version28_$u7b$$u7b$closure$u7d$$u7d$17hffd0bc5409762bb9E', symObjAddr: 0x1CD10, symBinAddr: 0x100022E70, symSize: 0x1A0 }
  - { offsetInCU: 0x2F5BC, offset: 0x5D2A2, size: 0x8, addend: 0x0, symName: '__ZN2cc5Build24apple_deployment_version28_$u7b$$u7b$closure$u7d$$u7d$17hfa58c21d44abfda7E', symObjAddr: 0x1CEB0, symBinAddr: 0x100023010, symSize: 0x4B0 }
  - { offsetInCU: 0x305D8, offset: 0x5E2BE, size: 0x8, addend: 0x0, symName: '__ZN2cc5Build20apple_sdk_root_inner28_$u7b$$u7b$closure$u7d$$u7d$17h43c3328e67eb3930E', symObjAddr: 0x1C350, symBinAddr: 0x1000224B0, symSize: 0xD0 }
  - { offsetInCU: 0x31DA4, offset: 0x5FA8A, size: 0x8, addend: 0x0, symName: '__ZN57_$LT$cc..tool..ToolFamily$u20$as$u20$core..fmt..Debug$GT$3fmt17h6780bf19a381a2c8E', symObjAddr: 0x1E3E0, symBinAddr: 0x100024520, symSize: 0xA0 }
  - { offsetInCU: 0x31E30, offset: 0x5FB16, size: 0x8, addend: 0x0, symName: __ZN2cc32NEW_STANDALONE_ANDROID_COMPILERS17h1d2085b012f36da8E, symObjAddr: 0x23940, symBinAddr: 0x1000B5818, symSize: 0x0 }
  - { offsetInCU: 0x3231A, offset: 0x60000, size: 0x8, addend: 0x0, symName: '__ZN78_$LT$cc..Error$u20$as$u20$core..convert..From$LT$std..io..error..Error$GT$$GT$4from17hdbead968a0c607beE', symObjAddr: 0x4080, symBinAddr: 0x10000B6E0, symSize: 0xB0 }
  - { offsetInCU: 0x32474, offset: 0x6015A, size: 0x8, addend: 0x0, symName: '__ZN48_$LT$cc..Error$u20$as$u20$core..fmt..Display$GT$3fmt17h6146f77c13d1f7ffE', symObjAddr: 0x4130, symBinAddr: 0x10000B790, symSize: 0x70 }
  - { offsetInCU: 0x32706, offset: 0x603EC, size: 0x8, addend: 0x0, symName: __ZN2cc4fail17h5307092db5f08a4cE, symObjAddr: 0x1D670, symBinAddr: 0x1000237B0, symSize: 0x70 }
  - { offsetInCU: 0x3275D, offset: 0x60443, size: 0x8, addend: 0x0, symName: '__ZN48_$LT$cc..AppleOs$u20$as$u20$core..fmt..Debug$GT$3fmt17h1b5b3efeb461cc28E', symObjAddr: 0x1D6E0, symBinAddr: 0x100023820, symSize: 0xA0 }
  - { offsetInCU: 0x3279E, offset: 0x60484, size: 0x8, addend: 0x0, symName: __ZN2cc18apple_os_sdk_parts17h084b0a43c09e7e7dE, symObjAddr: 0x1D780, symBinAddr: 0x1000238C0, symSize: 0x160 }
  - { offsetInCU: 0x32A6A, offset: 0x60750, size: 0x8, addend: 0x0, symName: __ZN2cc27autodetect_android_compiler17h3d8ef226c20d1033E, symObjAddr: 0x1D8E0, symBinAddr: 0x100023A20, symSize: 0x920 }
  - { offsetInCU: 0x34F84, offset: 0x62C6A, size: 0x8, addend: 0x0, symName: __ZN2cc52map_darwin_target_from_rust_to_compiler_architecture17he28407fb46c05cffE, symObjAddr: 0x1E200, symBinAddr: 0x100024340, symSize: 0x140 }
  - { offsetInCU: 0x35144, offset: 0x62E2A, size: 0x8, addend: 0x0, symName: '__ZN50_$LT$cc..ErrorKind$u20$as$u20$core..fmt..Debug$GT$3fmt17h3a7d179dc127a9efE', symObjAddr: 0x1E480, symBinAddr: 0x1000245C0, symSize: 0x2C }
  - { offsetInCU: 0x356A1, offset: 0x63387, size: 0x8, addend: 0x0, symName: __ZN3std3sys4unix5locks14pthread_rwlock6RwLock4read17h9838cca42f0b344eE, symObjAddr: 0xC0, symBinAddr: 0x100007920, symSize: 0x150 }
  - { offsetInCU: 0x359F1, offset: 0x636D7, size: 0x8, addend: 0x0, symName: __ZN3std3sys4unix5locks14pthread_rwlock6RwLock5write17h1a16beb6e703d03bE, symObjAddr: 0x210, symBinAddr: 0x100007A70, symSize: 0xD0 }
  - { offsetInCU: 0x36F8E, offset: 0x64C74, size: 0x8, addend: 0x0, symName: __ZN4core3str7pattern14TwoWaySearcher4next17hd6a2e67a40bad666E, symObjAddr: 0x23D0, symBinAddr: 0x100009A50, symSize: 0x330 }
  - { offsetInCU: 0x37801, offset: 0x654E7, size: 0x8, addend: 0x0, symName: '__ZN4core6option15Option$LT$T$GT$7or_else17hdd4c4a06371c6aecE', symObjAddr: 0x2C40, symBinAddr: 0x10000A2C0, symSize: 0x2F0 }
  - { offsetInCU: 0x381C5, offset: 0x65EAB, size: 0x8, addend: 0x0, symName: '__ZN4core6result19Result$LT$T$C$E$GT$6unwrap17h974c4424d9ddd2b1E', symObjAddr: 0x2F30, symBinAddr: 0x10000A5B0, symSize: 0x70 }
  - { offsetInCU: 0x387B6, offset: 0x6649C, size: 0x8, addend: 0x0, symName: '__ZN5alloc3vec16Vec$LT$T$C$A$GT$4push17h1663e1e7c6bb5aa6E', symObjAddr: 0x3BB0, symBinAddr: 0x10000B230, symSize: 0x70 }
  - { offsetInCU: 0x38E76, offset: 0x66B5C, size: 0x8, addend: 0x0, symName: __ZN2cc5Build3new17h4f35596704b7445eE, symObjAddr: 0x41A0, symBinAddr: 0x10000B800, symSize: 0xC90 }
  - { offsetInCU: 0x3B723, offset: 0x69409, size: 0x8, addend: 0x0, symName: __ZN2cc5Build23is_flag_supported_inner17h1ccf6740518dc732E, symObjAddr: 0x4E60, symBinAddr: 0x10000C490, symSize: 0x1460 }
  - { offsetInCU: 0x40303, offset: 0x6DFE9, size: 0x8, addend: 0x0, symName: __ZN2cc5Build9opt_level17hfde2b616507dc7ffE, symObjAddr: 0x6940, symBinAddr: 0x10000D8F0, symSize: 0x200 }
  - { offsetInCU: 0x41821, offset: 0x6F507, size: 0x8, addend: 0x0, symName: __ZN2cc5Build11try_compile17hbc6441e6e53103d2E, symObjAddr: 0x6C50, symBinAddr: 0x10000DAF0, symSize: 0x2060 }
  - { offsetInCU: 0x47D56, offset: 0x75A3C, size: 0x8, addend: 0x0, symName: __ZN2cc5Build7compile17h9a7c51dfee641514E, symObjAddr: 0x8CB0, symBinAddr: 0x10000FB50, symSize: 0x80 }
  - { offsetInCU: 0x47F72, offset: 0x75C58, size: 0x8, addend: 0x0, symName: __ZN2cc5Build15compile_objects17hb9b92a1904058657E, symObjAddr: 0x9050, symBinAddr: 0x10000FBD0, symSize: 0x480 }
  - { offsetInCU: 0x4943A, offset: 0x77120, size: 0x8, addend: 0x0, symName: __ZN2cc5Build25create_compile_object_cmd17h2fe5fee4c9b25b2eE, symObjAddr: 0x98C0, symBinAddr: 0x100010420, symSize: 0x1570 }
  - { offsetInCU: 0x4CEB8, offset: 0x7AB9E, size: 0x8, addend: 0x0, symName: __ZN2cc5Build12get_compiler17h8e3ad8db4238527dE, symObjAddr: 0xB1D0, symBinAddr: 0x100011990, symSize: 0xA0 }
  - { offsetInCU: 0x4D3AF, offset: 0x7B095, size: 0x8, addend: 0x0, symName: __ZN2cc5Build16try_get_compiler17h946990d98e425ca7E, symObjAddr: 0xB270, symBinAddr: 0x100011A30, symSize: 0xE40 }
  - { offsetInCU: 0x51041, offset: 0x7ED27, size: 0x8, addend: 0x0, symName: __ZN2cc5Build17add_default_flags17hb958f4882df981e4E, symObjAddr: 0xC0B0, symBinAddr: 0x100012870, symSize: 0x6EC0 }
  - { offsetInCU: 0x66A5B, offset: 0x94741, size: 0x8, addend: 0x0, symName: __ZN2cc5Build20assemble_progressive17hfe407c28cc50c4afE, symObjAddr: 0x12F70, symBinAddr: 0x100019730, symSize: 0x630 }
  - { offsetInCU: 0x67D6B, offset: 0x95A51, size: 0x8, addend: 0x0, symName: __ZN2cc5Build3cmd17h43a196ef39418828E, symObjAddr: 0x135A0, symBinAddr: 0x100019D60, symSize: 0xC0 }
  - { offsetInCU: 0x67F3D, offset: 0x95C23, size: 0x8, addend: 0x0, symName: __ZN2cc5Build3cmd17h941c82f391a24f74E, symObjAddr: 0x13660, symBinAddr: 0x100019E20, symSize: 0xC0 }
  - { offsetInCU: 0x688D1, offset: 0x965B7, size: 0x8, addend: 0x0, symName: __ZN2cc5Build17get_base_compiler17h20feb186368dd908E, symObjAddr: 0x13720, symBinAddr: 0x100019EE0, symSize: 0x2AC0 }
  - { offsetInCU: 0x70083, offset: 0x9DD69, size: 0x8, addend: 0x0, symName: __ZN2cc5Build22rustc_wrapper_fallback17hd27ef62557aa410eE, symObjAddr: 0x161E0, symBinAddr: 0x10001C9A0, symSize: 0xF0 }
  - { offsetInCU: 0x706A0, offset: 0x9E386, size: 0x8, addend: 0x0, symName: __ZN2cc5Build8env_tool17h734e5afe0abc76e5E, symObjAddr: 0x162D0, symBinAddr: 0x10001CA90, symSize: 0x5B0 }
  - { offsetInCU: 0x7195A, offset: 0x9F640, size: 0x8, addend: 0x0, symName: __ZN2cc5Build19get_cpp_link_stdlib17hbd2c297c88875289E, symObjAddr: 0x16880, symBinAddr: 0x10001D040, symSize: 0x3A0 }
  - { offsetInCU: 0x723D6, offset: 0xA00BC, size: 0x8, addend: 0x0, symName: __ZN2cc5Build26try_get_archiver_and_flags17he6347127efb37371E, symObjAddr: 0x16E50, symBinAddr: 0x10001D3E0, symSize: 0x3E0 }
  - { offsetInCU: 0x731EB, offset: 0xA0ED1, size: 0x8, addend: 0x0, symName: __ZN2cc5Build25get_base_archiver_variant17h0707bd66e5668dd6E, symObjAddr: 0x17660, symBinAddr: 0x10001D7C0, symSize: 0x1D60 }
  - { offsetInCU: 0x78A14, offset: 0xA66FA, size: 0x8, addend: 0x0, symName: __ZN2cc5Build17prefix_for_target17h1c46fb2d4ca0d546E, symObjAddr: 0x193C0, symBinAddr: 0x10001F520, symSize: 0x1470 }
  - { offsetInCU: 0x7DB6B, offset: 0xAB851, size: 0x8, addend: 0x0, symName: __ZN2cc5Build23find_working_gnu_prefix17h7e645043a191ccc8E, symObjAddr: 0x1A830, symBinAddr: 0x100020990, symSize: 0x440 }
  - { offsetInCU: 0x7EF32, offset: 0xACC18, size: 0x8, addend: 0x0, symName: __ZN2cc5Build10get_target17hdee42d69165f940aE, symObjAddr: 0x1AC70, symBinAddr: 0x100020DD0, symSize: 0xA0 }
  - { offsetInCU: 0x7F007, offset: 0xACCED, size: 0x8, addend: 0x0, symName: __ZN2cc5Build8get_host17h463d066ac15849deE, symObjAddr: 0x1AD10, symBinAddr: 0x100020E70, symSize: 0xA0 }
  - { offsetInCU: 0x7F0DC, offset: 0xACDC2, size: 0x8, addend: 0x0, symName: __ZN2cc5Build9get_debug17hc89d4f21e6ed5745E, symObjAddr: 0x1ADB0, symBinAddr: 0x100020F10, symSize: 0x80 }
  - { offsetInCU: 0x7F35D, offset: 0xAD043, size: 0x8, addend: 0x0, symName: __ZN2cc5Build11get_out_dir17hc2b240c45184c423E, symObjAddr: 0x1AE30, symBinAddr: 0x100020F90, symSize: 0x140 }
  - { offsetInCU: 0x7FB78, offset: 0xAD85E, size: 0x8, addend: 0x0, symName: __ZN2cc5Build6getenv17haa5cb2694da3ef95E, symObjAddr: 0x1AF70, symBinAddr: 0x1000210D0, symSize: 0x960 }
  - { offsetInCU: 0x82418, offset: 0xB00FE, size: 0x8, addend: 0x0, symName: __ZN2cc5Build17getenv_unwrap_str17hbb75f59aa088c565E, symObjAddr: 0x1B8D0, symBinAddr: 0x100021A30, symSize: 0x200 }
  - { offsetInCU: 0x82D13, offset: 0xB09F9, size: 0x8, addend: 0x0, symName: __ZN2cc5Build27getenv_with_target_prefixes17h1f855b81565ece8cE, symObjAddr: 0x1BAD0, symBinAddr: 0x100021C30, symSize: 0x740 }
  - { offsetInCU: 0x848A1, offset: 0xB2587, size: 0x8, addend: 0x0, symName: __ZN2cc5Build8envflags17h19b96b5bf5fa4e65E, symObjAddr: 0x1C210, symBinAddr: 0x100022370, symSize: 0x140 }
  - { offsetInCU: 0x85443, offset: 0xB3129, size: 0x8, addend: 0x0, symName: __ZN2cc5Build24apple_deployment_version17h9b7627d76a3e02ceE, symObjAddr: 0x1C420, symBinAddr: 0x100022580, symSize: 0x8F0 }
  - { offsetInCU: 0x882A1, offset: 0xB5F87, size: 0x8, addend: 0x0, symName: __ZN2cc5Build5which17hdf2bd45bd900f755E, symObjAddr: 0x1D360, symBinAddr: 0x1000234C0, symSize: 0x2A0 }
  - { offsetInCU: 0x89034, offset: 0xB6D1A, size: 0x8, addend: 0x0, symName: __ZN2cc10AsmFileExt9from_path17h50aacb93bae3c9a6E, symObjAddr: 0x1E340, symBinAddr: 0x100024480, symSize: 0xA0 }
  - { offsetInCU: 0x1E, offset: 0xC0944, size: 0x8, addend: 0x0, symName: '__ZN4core3fmt3num50_$LT$impl$u20$core..fmt..Debug$u20$for$u20$i32$GT$3fmt17hf6bc5c265673d8e1E', symObjAddr: 0x0, symBinAddr: 0x1000245F0, symSize: 0x30 }
  - { offsetInCU: 0x1140, offset: 0xC1A66, size: 0x8, addend: 0x0, symName: __ZN2cc4tool4Tool13with_features9is_zig_cc17hf9d28186f30b302bE, symObjAddr: 0x23D0, symBinAddr: 0x100026750, symSize: 0x170 }
  - { offsetInCU: 0x35E4, offset: 0xC3F0A, size: 0x8, addend: 0x0, symName: '__ZN4core3ptr208drop_in_place$LT$std..sync..poison..PoisonError$LT$std..sync..rwlock..RwLockReadGuard$LT$std..collections..hash..map..HashMap$LT$alloc..boxed..Box$LT$std..path..Path$GT$$C$cc..tool..ToolFamily$GT$$GT$$GT$$GT$17h52afc6d0aaac7c34E', symObjAddr: 0xB0, symBinAddr: 0x100024620, symSize: 0x50 }
  - { offsetInCU: 0x3891, offset: 0xC41B7, size: 0x8, addend: 0x0, symName: '__ZN4core3ptr209drop_in_place$LT$std..sync..poison..PoisonError$LT$std..sync..rwlock..RwLockWriteGuard$LT$std..collections..hash..map..HashMap$LT$alloc..boxed..Box$LT$std..path..Path$GT$$C$cc..tool..ToolFamily$GT$$GT$$GT$$GT$17hbf9f520e2af68195E', symObjAddr: 0x100, symBinAddr: 0x100024670, symSize: 0x70 }
  - { offsetInCU: 0x3BB5, offset: 0xC44DB, size: 0x8, addend: 0x0, symName: '__ZN4core3ptr28drop_in_place$LT$$RF$str$GT$17hbed132c5579d96d0E', symObjAddr: 0x170, symBinAddr: 0x1000246E0, symSize: 0x10 }
  - { offsetInCU: 0x3E00, offset: 0xC4726, size: 0x8, addend: 0x0, symName: '__ZN4core3ptr42drop_in_place$LT$std..io..error..Error$GT$17h02d38141fa47cc0cE', symObjAddr: 0x180, symBinAddr: 0x1000246F0, symSize: 0xA0 }
  - { offsetInCU: 0x44B0, offset: 0xC4DD6, size: 0x8, addend: 0x0, symName: '__ZN4core3ptr42drop_in_place$LT$std..process..Command$GT$17h197492d0668fbe45E.llvm.13991993495973667919', symObjAddr: 0x220, symBinAddr: 0x100024790, symSize: 0x250 }
  - { offsetInCU: 0x52E8, offset: 0xC5C0E, size: 0x8, addend: 0x0, symName: '__ZN4core3ptr48drop_in_place$LT$cc..tempfile..NamedTempfile$GT$17h5d06c5c33874f9baE', symObjAddr: 0x490, symBinAddr: 0x1000249E0, symSize: 0x80 }
  - { offsetInCU: 0x5718, offset: 0xC603E, size: 0x8, addend: 0x0, symName: '__ZN4core3ptr50drop_in_place$LT$alloc..borrow..Cow$LT$str$GT$$GT$17hded487487506faecE.llvm.13991993495973667919', symObjAddr: 0x510, symBinAddr: 0x100024A60, symSize: 0x30 }
  - { offsetInCU: 0x64ED, offset: 0xC6E13, size: 0x8, addend: 0x0, symName: '__ZN4core3fmt3num50_$LT$impl$u20$core..fmt..Debug$u20$for$u20$i32$GT$3fmt17hf6bc5c265673d8e1E', symObjAddr: 0x0, symBinAddr: 0x1000245F0, symSize: 0x30 }
  - { offsetInCU: 0x8D99, offset: 0xC96BF, size: 0x8, addend: 0x0, symName: '__ZN4core3str7pattern13simd_contains28_$u7b$$u7b$closure$u7d$$u7d$17hce6f1e89daa5eeadE', symObjAddr: 0x570, symBinAddr: 0x100090240, symSize: 0x130 }
  - { offsetInCU: 0x95D6, offset: 0xC9EFC, size: 0x8, addend: 0x0, symName: '__ZN55_$LT$$RF$str$u20$as$u20$core..str..pattern..Pattern$GT$15is_contained_in17hbbef826cef545265E.llvm.13991993495973667919', symObjAddr: 0x9D0, symBinAddr: 0x100024DC0, symSize: 0x6C0 }
  - { offsetInCU: 0xC48F, offset: 0xCCDB5, size: 0x8, addend: 0x0, symName: __ZN4core3str7pattern14TwoWaySearcher4next17hd6a2e67a40bad666E, symObjAddr: 0x6A0, symBinAddr: 0x100024A90, symSize: 0x330 }
  - { offsetInCU: 0xD6D8, offset: 0xCDFFE, size: 0x8, addend: 0x0, symName: __ZN2cc4tool4Tool13with_features17hafe53a7d02ee15d9E, symObjAddr: 0x1100, symBinAddr: 0x100025480, symSize: 0x12D0 }
  - { offsetInCU: 0x118A6, offset: 0xD21CC, size: 0x8, addend: 0x0, symName: __ZN2cc4tool4Tool10remove_arg17h1cdfb357695dc220E, symObjAddr: 0x2540, symBinAddr: 0x1000268C0, symSize: 0x80 }
  - { offsetInCU: 0x11A89, offset: 0xD23AF, size: 0x8, addend: 0x0, symName: __ZN2cc4tool4Tool11push_cc_arg17hb6d8f3ca6e4e5ad0E, symObjAddr: 0x25C0, symBinAddr: 0x100026940, symSize: 0x120 }
  - { offsetInCU: 0x12216, offset: 0xD2B3C, size: 0x8, addend: 0x0, symName: __ZN2cc4tool4Tool25push_opt_unless_duplicate17h68497e26ab0670d7E, symObjAddr: 0x26E0, symBinAddr: 0x100026A60, symSize: 0x440 }
  - { offsetInCU: 0x13079, offset: 0xD399F, size: 0x8, addend: 0x0, symName: __ZN2cc4tool4Tool10to_command17h0a1b3ef5303b3a91E, symObjAddr: 0x2B20, symBinAddr: 0x100026EA0, symSize: 0x220 }
  - { offsetInCU: 0x13A52, offset: 0xD4378, size: 0x8, addend: 0x0, symName: __ZN2cc4tool10ToolFamily15add_debug_flags17h2b9ebd434b866d55E, symObjAddr: 0x3060, symBinAddr: 0x1000270C0, symSize: 0x100 }
  - { offsetInCU: 0x1E, offset: 0xD6BAA, size: 0x8, addend: 0x0, symName: '__ZN4core3ptr171drop_in_place$LT$$LP$std..process..Command$C$alloc..borrow..Cow$LT$std..path..Path$GT$$C$cc..Build..compile_objects..KillOnDrop$C$cc..parallel..job_token..JobToken$RP$$GT$17h28e9d190cb1f0633E.llvm.5346914834034152749', symObjAddr: 0x0, symBinAddr: 0x1000271C0, symSize: 0x330 }
  - { offsetInCU: 0x109, offset: 0xD6C95, size: 0x8, addend: 0x0, symName: '__ZN83_$LT$std..io..buffered..bufwriter..BufWriter$LT$W$GT$$u20$as$u20$std..io..Write$GT$17is_write_vectored17hd73fae62c3a2ed54E', symObjAddr: 0x17B0, symBinAddr: 0x100028180, symSize: 0x10 }
  - { offsetInCU: 0x13D, offset: 0xD6CC9, size: 0x8, addend: 0x0, symName: '__ZN83_$LT$std..io..buffered..bufwriter..BufWriter$LT$W$GT$$u20$as$u20$std..io..Write$GT$5write17h8518a7dd0ed3f10bE', symObjAddr: 0x17C0, symBinAddr: 0x100028190, symSize: 0x70 }
  - { offsetInCU: 0x33A, offset: 0xD6EC6, size: 0x8, addend: 0x0, symName: '__ZN83_$LT$std..io..buffered..bufwriter..BufWriter$LT$W$GT$$u20$as$u20$std..io..Write$GT$9write_all17ha6021cda4170532cE', symObjAddr: 0x1830, symBinAddr: 0x100028200, symSize: 0x60 }
  - { offsetInCU: 0x20BB, offset: 0xD8C47, size: 0x8, addend: 0x0, symName: '__ZN4core3ptr171drop_in_place$LT$$LP$std..process..Command$C$alloc..borrow..Cow$LT$std..path..Path$GT$$C$cc..Build..compile_objects..KillOnDrop$C$cc..parallel..job_token..JobToken$RP$$GT$17h28e9d190cb1f0633E.llvm.5346914834034152749', symObjAddr: 0x0, symBinAddr: 0x1000271C0, symSize: 0x330 }
  - { offsetInCU: 0x33D7, offset: 0xD9F63, size: 0x8, addend: 0x0, symName: '__ZN4core3ptr40drop_in_place$LT$std..process..Child$GT$17h373d5d7b85fd1421E', symObjAddr: 0x330, symBinAddr: 0x1000274F0, symSize: 0x70 }
  - { offsetInCU: 0x36D4, offset: 0xDA260, size: 0x8, addend: 0x0, symName: '__ZN4core3ptr57drop_in_place$LT$cc..command_helpers..StderrForwarder$GT$17h2d834e1cdd3fa4b4E', symObjAddr: 0x3A0, symBinAddr: 0x100027560, symSize: 0x60 }
  - { offsetInCU: 0x3983, offset: 0xDA50F, size: 0x8, addend: 0x0, symName: '__ZN4core3ptr59drop_in_place$LT$cc..Build..compile_objects..KillOnDrop$GT$17h93eb93490819bb01E', symObjAddr: 0x400, symBinAddr: 0x1000275C0, symSize: 0xA0 }
  - { offsetInCU: 0x3CB7, offset: 0xDA843, size: 0x8, addend: 0x0, symName: '__ZN4core3ptr90drop_in_place$LT$std..io..buffered..bufwriter..BufWriter$LT$std..io..stdio..Stdout$GT$$GT$17h216063db76eebe97E', symObjAddr: 0x4A0, symBinAddr: 0x100027660, symSize: 0x70 }
  - { offsetInCU: 0x7728, offset: 0xDE2B4, size: 0x8, addend: 0x0, symName: '__ZN91_$LT$core..str..iter..SplitWhitespace$u20$as$u20$core..iter..traits..iterator..Iterator$GT$4next17hfcf148fc315d60bdE', symObjAddr: 0x1890, symBinAddr: 0x100028260, symSize: 0x200 }
  - { offsetInCU: 0x86B7, offset: 0xDF243, size: 0x8, addend: 0x0, symName: '__ZN70_$LT$alloc..vec..Vec$LT$T$C$A$GT$$u20$as$u20$core..ops..drop..Drop$GT$4drop17h3b2751d23604d12dE', symObjAddr: 0x1070, symBinAddr: 0x100027D50, symSize: 0x50 }
  - { offsetInCU: 0x87B4, offset: 0xDF340, size: 0x8, addend: 0x0, symName: '__ZN70_$LT$alloc..vec..Vec$LT$T$C$A$GT$$u20$as$u20$core..ops..drop..Drop$GT$4drop17h40389d8c9ba7706dE', symObjAddr: 0x10C0, symBinAddr: 0x100027DA0, symSize: 0x60 }
  - { offsetInCU: 0x8A3F, offset: 0xDF5CB, size: 0x8, addend: 0x0, symName: '__ZN70_$LT$alloc..vec..Vec$LT$T$C$A$GT$$u20$as$u20$core..ops..drop..Drop$GT$4drop17h908975063e8dcca7E', symObjAddr: 0x12D0, symBinAddr: 0x100027E00, symSize: 0x100 }
  - { offsetInCU: 0x8F0D, offset: 0xDFA99, size: 0x8, addend: 0x0, symName: '__ZN70_$LT$alloc..vec..Vec$LT$T$C$A$GT$$u20$as$u20$core..ops..drop..Drop$GT$4drop17hb49590d5df142ebcE', symObjAddr: 0x13D0, symBinAddr: 0x100027F00, symSize: 0x110 }
  - { offsetInCU: 0x9377, offset: 0xDFF03, size: 0x8, addend: 0x0, symName: '__ZN70_$LT$alloc..vec..Vec$LT$T$C$A$GT$$u20$as$u20$core..ops..drop..Drop$GT$4drop17hf2d212cda91c7096E', symObjAddr: 0x1640, symBinAddr: 0x100028010, symSize: 0x80 }
  - { offsetInCU: 0x9421, offset: 0xDFFAD, size: 0x8, addend: 0x0, symName: '__ZN70_$LT$alloc..vec..Vec$LT$T$C$A$GT$$u20$as$u20$core..ops..drop..Drop$GT$4drop17hfa3677ad8930f726E', symObjAddr: 0x16C0, symBinAddr: 0x100028090, symSize: 0xF0 }
  - { offsetInCU: 0xA325, offset: 0xE0EB1, size: 0x8, addend: 0x0, symName: '__ZN67_$LT$alloc..vec..Vec$LT$T$C$A$GT$$u20$as$u20$core..clone..Clone$GT$5clone17h19214024255f7110E', symObjAddr: 0xBD0, symBinAddr: 0x100027940, symSize: 0x250 }
  - { offsetInCU: 0xACFF, offset: 0xE188B, size: 0x8, addend: 0x0, symName: '__ZN67_$LT$alloc..vec..Vec$LT$T$C$A$GT$$u20$as$u20$core..clone..Clone$GT$5clone17h9aa205b19f8c1e3bE', symObjAddr: 0xEA0, symBinAddr: 0x100027B90, symSize: 0x1C0 }
  - { offsetInCU: 0xB763, offset: 0xE22EF, size: 0x8, addend: 0x0, symName: '__ZN98_$LT$alloc..vec..Vec$LT$T$GT$$u20$as$u20$alloc..vec..spec_from_iter..SpecFromIter$LT$T$C$I$GT$$GT$9from_iter17h33bba9d3e173eb8cE', symObjAddr: 0x1BE0, symBinAddr: 0x100028460, symSize: 0x350 }
  - { offsetInCU: 0xCC42, offset: 0xE37CE, size: 0x8, addend: 0x0, symName: '__ZN98_$LT$alloc..vec..Vec$LT$T$GT$$u20$as$u20$alloc..vec..spec_from_iter..SpecFromIter$LT$T$C$I$GT$$GT$9from_iter17h422e20fafee84ca9E', symObjAddr: 0x1F30, symBinAddr: 0x1000287B0, symSize: 0x360 }
  - { offsetInCU: 0xDA9A, offset: 0xE4626, size: 0x8, addend: 0x0, symName: '__ZN98_$LT$alloc..vec..Vec$LT$T$GT$$u20$as$u20$alloc..vec..spec_from_iter..SpecFromIter$LT$T$C$I$GT$$GT$9from_iter17h4463472f336424e3E', symObjAddr: 0x2290, symBinAddr: 0x100028B10, symSize: 0x280 }
  - { offsetInCU: 0xE37D, offset: 0xE4F09, size: 0x8, addend: 0x0, symName: '__ZN98_$LT$alloc..vec..Vec$LT$T$GT$$u20$as$u20$alloc..vec..spec_from_iter..SpecFromIter$LT$T$C$I$GT$$GT$9from_iter17h5469d63823627fb3E', symObjAddr: 0x2510, symBinAddr: 0x100028D90, symSize: 0x0 }
  - { offsetInCU: 0x10D7C, offset: 0xE7908, size: 0x8, addend: 0x0, symName: '__ZN2cc5Build15compile_objects28_$u7b$$u7b$closure$u7d$$u7d$28_$u7b$$u7b$closure$u7d$$u7d$28_$u7b$$u7b$closure$u7d$$u7d$17h10b143c13883376aE.llvm.5346914834034152749', symObjAddr: 0x27F0, symBinAddr: 0x100029070, symSize: 0x295 }
  - { offsetInCU: 0x125FB, offset: 0xE9187, size: 0x8, addend: 0x0, symName: '__ZN5alloc3vec16Vec$LT$T$C$A$GT$10retain_mut17h017ee50444f274ecE', symObjAddr: 0x510, symBinAddr: 0x1000276D0, symSize: 0x190 }
  - { offsetInCU: 0x12ADA, offset: 0xE9666, size: 0x8, addend: 0x0, symName: '__ZN5alloc3vec16Vec$LT$T$C$A$GT$17extend_from_slice17h4726967c29720f0cE', symObjAddr: 0x6A0, symBinAddr: 0x100027860, symSize: 0x60 }
  - { offsetInCU: 0x12E19, offset: 0xE99A5, size: 0x8, addend: 0x0, symName: '__ZN5alloc3vec16Vec$LT$T$C$A$GT$6remove17h27aaf757e54bc1a0E', symObjAddr: 0x790, symBinAddr: 0x1000278C0, symSize: 0x80 }
  - { offsetInCU: 0x1E, offset: 0xEE7ED, size: 0x8, addend: 0x0, symName: __ZN3std2io5error5Error4kind17hc9fcce601089e16fE, symObjAddr: 0x0, symBinAddr: 0x100029310, symSize: 0x1C0 }
  - { offsetInCU: 0x1658, offset: 0xEFE27, size: 0x8, addend: 0x0, symName: '__ZN4core3ptr110drop_in_place$LT$core..option..Option$LT$$LP$std..process..ChildStderr$C$alloc..vec..Vec$LT$u8$GT$$RP$$GT$$GT$17ha5f2c873c003cc2dE', symObjAddr: 0x1C0, symBinAddr: 0x1000294D0, symSize: 0x60 }
  - { offsetInCU: 0x192E, offset: 0xF00FD, size: 0x8, addend: 0x0, symName: '__ZN4core3ptr31drop_in_place$LT$cc..Object$GT$17h7344b5cb524c406eE', symObjAddr: 0x220, symBinAddr: 0x100029530, symSize: 0x50 }
  - { offsetInCU: 0x1C8A, offset: 0xF0459, size: 0x8, addend: 0x0, symName: '__ZN4core3ptr40drop_in_place$LT$std..process..Child$GT$17h373d5d7b85fd1421E.llvm.3393459328770001536', symObjAddr: 0x270, symBinAddr: 0x100029580, symSize: 0x70 }
  - { offsetInCU: 0x1F36, offset: 0xF0705, size: 0x8, addend: 0x0, symName: '__ZN4core3ptr41drop_in_place$LT$core..fmt..Arguments$GT$17h88c434eccc510509E', symObjAddr: 0x2E0, symBinAddr: 0x1000295F0, symSize: 0x10 }
  - { offsetInCU: 0x2115, offset: 0xF08E4, size: 0x8, addend: 0x0, symName: '__ZN4core3ptr42drop_in_place$LT$std..io..error..Error$GT$17h02d38141fa47cc0cE', symObjAddr: 0x2F0, symBinAddr: 0x100029600, symSize: 0xB0 }
  - { offsetInCU: 0x257C, offset: 0xF0D4B, size: 0x8, addend: 0x0, symName: '__ZN4core3ptr45drop_in_place$LT$std..process..ExitStatus$GT$17h6338cc1c8273c07fE', symObjAddr: 0x3A0, symBinAddr: 0x1000296B0, symSize: 0x10 }
  - { offsetInCU: 0x25C7, offset: 0xF0D96, size: 0x8, addend: 0x0, symName: '__ZN4core3ptr47drop_in_place$LT$std..io..stdio..StdoutLock$GT$17h4cce4ad4d63eb668E', symObjAddr: 0x3D0, symBinAddr: 0x1000296C0, symSize: 0x60 }
  - { offsetInCU: 0x2808, offset: 0xF0FD7, size: 0x8, addend: 0x0, symName: '__ZN4core3ptr54drop_in_place$LT$alloc..vec..Vec$LT$cc..Object$GT$$GT$17h8bad2661fde0f2ccE', symObjAddr: 0x430, symBinAddr: 0x100029720, symSize: 0x90 }
  - { offsetInCU: 0x5E4A, offset: 0xF4619, size: 0x8, addend: 0x0, symName: __ZN2cc15command_helpers13write_warning17h47e06e6b5aefde0fE, symObjAddr: 0xCC0, symBinAddr: 0x100029E60, symSize: 0x190 }
  - { offsetInCU: 0x6182, offset: 0xF4951, size: 0x8, addend: 0x0, symName: __ZN2cc15command_helpers13wait_on_child17h9504f451db406499E.llvm.3393459328770001536, symObjAddr: 0xE50, symBinAddr: 0x100029FF0, symSize: 0x3C0 }
  - { offsetInCU: 0x6BCC, offset: 0xF539B, size: 0x8, addend: 0x0, symName: __ZN2cc15command_helpers18objects_from_files17h977f5c2baf8251c4E, symObjAddr: 0x1210, symBinAddr: 0x10002A3B0, symSize: 0xA80 }
  - { offsetInCU: 0x8DF2, offset: 0xF75C1, size: 0x8, addend: 0x0, symName: __ZN2cc15command_helpers3run17h2caeca9d1150129eE, symObjAddr: 0x1C90, symBinAddr: 0x10002AE30, symSize: 0x140 }
  - { offsetInCU: 0x91FD, offset: 0xF79CC, size: 0x8, addend: 0x0, symName: __ZN2cc15command_helpers3run17h5b786dd8d239e09fE, symObjAddr: 0x1DD0, symBinAddr: 0x10002AF70, symSize: 0x0 }
  - { offsetInCU: 0x95B7, offset: 0xF7D86, size: 0x8, addend: 0x0, symName: __ZN2cc15command_helpers3run17hc7066742875ca430E, symObjAddr: 0x1EF0, symBinAddr: 0x10002B090, symSize: 0x130 }
  - { offsetInCU: 0x99A8, offset: 0xF8177, size: 0x8, addend: 0x0, symName: __ZN2cc15command_helpers10run_output17h3864bea30b378619E, symObjAddr: 0x2020, symBinAddr: 0x10002B1C0, symSize: 0x0 }
  - { offsetInCU: 0xA6E8, offset: 0xF8EB7, size: 0x8, addend: 0x0, symName: __ZN2cc15command_helpers5spawn17he3d9d3d69f55cc92E, symObjAddr: 0x2370, symBinAddr: 0x10002B510, symSize: 0x3A0 }
  - { offsetInCU: 0xAD32, offset: 0xF9501, size: 0x8, addend: 0x0, symName: __ZN2cc15command_helpers23command_add_output_file17habb93ab7346e7aeaE, symObjAddr: 0x2720, symBinAddr: 0x10002B8B0, symSize: 0x110 }
  - { offsetInCU: 0xB19A, offset: 0xF9969, size: 0x8, addend: 0x0, symName: __ZN2cc15command_helpers17try_wait_on_child17h83e631ad184a5f46E, symObjAddr: 0x2830, symBinAddr: 0x10002B9C0, symSize: 0x2DF }
  - { offsetInCU: 0xB57B, offset: 0xF9D4A, size: 0x8, addend: 0x0, symName: __ZN3std2io5error5Error4kind17hc9fcce601089e16fE, symObjAddr: 0x0, symBinAddr: 0x100029310, symSize: 0x1C0 }
  - { offsetInCU: 0xC697, offset: 0xFAE66, size: 0x8, addend: 0x0, symName: __ZN2cc15command_helpers11CargoOutput3new17h49fcca60cda494edE, symObjAddr: 0x4F0, symBinAddr: 0x1000297B0, symSize: 0xD0 }
  - { offsetInCU: 0xCAE9, offset: 0xFB2B8, size: 0x8, addend: 0x0, symName: __ZN2cc15command_helpers11CargoOutput14print_metadata17hf1ed6fb83f4299bcE, symObjAddr: 0x5C0, symBinAddr: 0x100029880, symSize: 0x70 }
  - { offsetInCU: 0xCB41, offset: 0xFB310, size: 0x8, addend: 0x0, symName: __ZN2cc15command_helpers11CargoOutput13print_warning17ha5eed02d36fc98c8E, symObjAddr: 0x630, symBinAddr: 0x1000298F0, symSize: 0x70 }
  - { offsetInCU: 0xCC91, offset: 0xFB460, size: 0x8, addend: 0x0, symName: __ZN2cc15command_helpers11CargoOutput11print_debug17h7c83861e40e5e6a5E, symObjAddr: 0x6A0, symBinAddr: 0x100029960, symSize: 0xC0 }
  - { offsetInCU: 0xD276, offset: 0xFBA45, size: 0x8, addend: 0x0, symName: __ZN2cc15command_helpers15StderrForwarder17forward_available17h94e7f8eb8592f87aE, symObjAddr: 0x7F0, symBinAddr: 0x100029A20, symSize: 0x440 }
  - { offsetInCU: 0x1E, offset: 0xFF51C, size: 0x8, addend: 0x0, symName: '__ZN3std4sync4mpmc4list16Channel$LT$T$GT$18disconnect_senders17h4dc3f74c23675d7eE', symObjAddr: 0x0, symBinAddr: 0x10002BCA0, symSize: 0x2D0 }
  - { offsetInCU: 0x2FEF, offset: 0x1024ED, size: 0x8, addend: 0x0, symName: '__ZN4core3ptr124drop_in_place$LT$std..sync..poison..PoisonError$LT$std..sync..mutex..MutexGuard$LT$std..sync..mpmc..waker..Waker$GT$$GT$$GT$17h94a951694ba4aaacE', symObjAddr: 0x1400, symBinAddr: 0x10002D0A0, symSize: 0x70 }
  - { offsetInCU: 0x33B6, offset: 0x1028B4, size: 0x8, addend: 0x0, symName: '__ZN4core3ptr92drop_in_place$LT$core..result..Result$LT$jobserver..Acquired$C$std..io..error..Error$GT$$GT$17h1458f7f7cb9e6240E.llvm.12942987368097449863', symObjAddr: 0x1470, symBinAddr: 0x10002D110, symSize: 0xF0 }
  - { offsetInCU: 0x528D, offset: 0x10478B, size: 0x8, addend: 0x0, symName: '__ZN3std4sync4mpmc4list16Channel$LT$T$GT$18disconnect_senders17h4dc3f74c23675d7eE', symObjAddr: 0x0, symBinAddr: 0x10002BCA0, symSize: 0x2D0 }
  - { offsetInCU: 0x6648, offset: 0x105B46, size: 0x8, addend: 0x0, symName: '__ZN3std4sync4mpmc4list16Channel$LT$T$GT$20disconnect_receivers17h657df21fe96ddf5eE', symObjAddr: 0x2D0, symBinAddr: 0x10002BF70, symSize: 0x390 }
  - { offsetInCU: 0x666F, offset: 0x105B6D, size: 0x8, addend: 0x0, symName: '__ZN3std4sync4mpmc4list16Channel$LT$T$GT$20disconnect_receivers17h657df21fe96ddf5eE', symObjAddr: 0x2D0, symBinAddr: 0x10002BF70, symSize: 0x390 }
  - { offsetInCU: 0x6680, offset: 0x105B7E, size: 0x8, addend: 0x0, symName: '__ZN3std4sync4mpmc4list16Channel$LT$T$GT$20disconnect_receivers17h657df21fe96ddf5eE', symObjAddr: 0x2D0, symBinAddr: 0x10002BF70, symSize: 0x390 }
  - { offsetInCU: 0x66A7, offset: 0x105BA5, size: 0x8, addend: 0x0, symName: '__ZN3std4sync4mpmc4list16Channel$LT$T$GT$20disconnect_receivers17h657df21fe96ddf5eE', symObjAddr: 0x2D0, symBinAddr: 0x10002BF70, symSize: 0x390 }
  - { offsetInCU: 0x66B8, offset: 0x105BB6, size: 0x8, addend: 0x0, symName: '__ZN3std4sync4mpmc4list16Channel$LT$T$GT$20disconnect_receivers17h657df21fe96ddf5eE', symObjAddr: 0x2D0, symBinAddr: 0x10002BF70, symSize: 0x390 }
  - { offsetInCU: 0x7A0B, offset: 0x106F09, size: 0x8, addend: 0x0, symName: '__ZN3std4sync4mpmc4list16Channel$LT$T$GT$4send17h83de6f91171e0cdcE', symObjAddr: 0x660, symBinAddr: 0x10002C300, symSize: 0x7F0 }
  - { offsetInCU: 0x9F45, offset: 0x109443, size: 0x8, addend: 0x0, symName: '__ZN3std4sync4mpmc4list16Channel$LT$T$GT$8try_recv17hb4950cfe25aed974E', symObjAddr: 0xE50, symBinAddr: 0x10002CAF0, symSize: 0x4A0 }
  - { offsetInCU: 0xAE02, offset: 0x10A300, size: 0x8, addend: 0x0, symName: __ZN3std4sync4mpmc5waker5Waker6notify17h1ac1acbd94bb01e7E, symObjAddr: 0x12F0, symBinAddr: 0x10002CF90, symSize: 0x110 }
  - { offsetInCU: 0x1E, offset: 0x10B73E, size: 0x8, addend: 0x0, symName: '__ZN4core3ptr107drop_in_place$LT$$LP$alloc..boxed..Box$LT$str$GT$$C$alloc..sync..Arc$LT$std..ffi..os_str..OsStr$GT$$RP$$GT$17he5aaac23f61a056cE', symObjAddr: 0x0, symBinAddr: 0x10002D200, symSize: 0x50 }
  - { offsetInCU: 0xE9F, offset: 0x10C5BF, size: 0x8, addend: 0x0, symName: '__ZN79_$LT$hashbrown..raw..RawTable$LT$T$C$A$GT$$u20$as$u20$core..ops..drop..Drop$GT$4drop17h0a5ba24d02a823c5E', symObjAddr: 0x260, symBinAddr: 0x10002D460, symSize: 0x110 }
  - { offsetInCU: 0x1669, offset: 0x10CD89, size: 0x8, addend: 0x0, symName: '__ZN79_$LT$hashbrown..raw..RawTable$LT$T$C$A$GT$$u20$as$u20$core..ops..drop..Drop$GT$4drop17h1407fa0e5e55d3e0E', symObjAddr: 0x370, symBinAddr: 0x10002D570, symSize: 0x110 }
  - { offsetInCU: 0x1DAA, offset: 0x10D4CA, size: 0x8, addend: 0x0, symName: '__ZN79_$LT$hashbrown..raw..RawTable$LT$T$C$A$GT$$u20$as$u20$core..ops..drop..Drop$GT$4drop17h3786fccb724289b3E', symObjAddr: 0x480, symBinAddr: 0x10002D680, symSize: 0x110 }
  - { offsetInCU: 0x1DD8, offset: 0x10D4F8, size: 0x8, addend: 0x0, symName: '__ZN79_$LT$hashbrown..raw..RawTable$LT$T$C$A$GT$$u20$as$u20$core..ops..drop..Drop$GT$4drop17h3786fccb724289b3E', symObjAddr: 0x480, symBinAddr: 0x10002D680, symSize: 0x110 }
  - { offsetInCU: 0x1DFF, offset: 0x10D51F, size: 0x8, addend: 0x0, symName: '__ZN79_$LT$hashbrown..raw..RawTable$LT$T$C$A$GT$$u20$as$u20$core..ops..drop..Drop$GT$4drop17h3786fccb724289b3E', symObjAddr: 0x480, symBinAddr: 0x10002D680, symSize: 0x110 }
  - { offsetInCU: 0x1E10, offset: 0x10D530, size: 0x8, addend: 0x0, symName: '__ZN79_$LT$hashbrown..raw..RawTable$LT$T$C$A$GT$$u20$as$u20$core..ops..drop..Drop$GT$4drop17h3786fccb724289b3E', symObjAddr: 0x480, symBinAddr: 0x10002D680, symSize: 0x110 }
  - { offsetInCU: 0x257E, offset: 0x10DC9E, size: 0x8, addend: 0x0, symName: '__ZN79_$LT$hashbrown..raw..RawTable$LT$T$C$A$GT$$u20$as$u20$core..ops..drop..Drop$GT$4drop17hd80cec2ed834d494E', symObjAddr: 0x590, symBinAddr: 0x10002D790, symSize: 0x110 }
  - { offsetInCU: 0x25AC, offset: 0x10DCCC, size: 0x8, addend: 0x0, symName: '__ZN79_$LT$hashbrown..raw..RawTable$LT$T$C$A$GT$$u20$as$u20$core..ops..drop..Drop$GT$4drop17hd80cec2ed834d494E', symObjAddr: 0x590, symBinAddr: 0x10002D790, symSize: 0x110 }
  - { offsetInCU: 0x25D3, offset: 0x10DCF3, size: 0x8, addend: 0x0, symName: '__ZN79_$LT$hashbrown..raw..RawTable$LT$T$C$A$GT$$u20$as$u20$core..ops..drop..Drop$GT$4drop17hd80cec2ed834d494E', symObjAddr: 0x590, symBinAddr: 0x10002D790, symSize: 0x110 }
  - { offsetInCU: 0x25E4, offset: 0x10DD04, size: 0x8, addend: 0x0, symName: '__ZN79_$LT$hashbrown..raw..RawTable$LT$T$C$A$GT$$u20$as$u20$core..ops..drop..Drop$GT$4drop17hd80cec2ed834d494E', symObjAddr: 0x590, symBinAddr: 0x10002D790, symSize: 0x110 }
  - { offsetInCU: 0x2D52, offset: 0x10E472, size: 0x8, addend: 0x0, symName: '__ZN79_$LT$hashbrown..raw..RawTable$LT$T$C$A$GT$$u20$as$u20$core..ops..drop..Drop$GT$4drop17he8f96ff184e3d744E', symObjAddr: 0x6A0, symBinAddr: 0x10002D8A0, symSize: 0x130 }
  - { offsetInCU: 0x4B79, offset: 0x110299, size: 0x8, addend: 0x0, symName: '__ZN4core3ptr107drop_in_place$LT$$LP$alloc..boxed..Box$LT$str$GT$$C$alloc..sync..Arc$LT$std..ffi..os_str..OsStr$GT$$RP$$GT$17he5aaac23f61a056cE', symObjAddr: 0x0, symBinAddr: 0x10002D200, symSize: 0x50 }
  - { offsetInCU: 0x4D10, offset: 0x110430, size: 0x8, addend: 0x0, symName: '__ZN4core3ptr135drop_in_place$LT$$LP$alloc..boxed..Box$LT$str$GT$$C$core..option..Option$LT$alloc..sync..Arc$LT$std..ffi..os_str..OsStr$GT$$GT$$RP$$GT$17hc349c9bd49639221E', symObjAddr: 0x50, symBinAddr: 0x10002D250, symSize: 0x50 }
  - { offsetInCU: 0x4E74, offset: 0x110594, size: 0x8, addend: 0x0, symName: '__ZN4core3ptr181drop_in_place$LT$hashbrown..scopeguard..ScopeGuard$LT$$RF$mut$u20$hashbrown..raw..RawTableInner$C$hashbrown..raw..RawTableInner..rehash_in_place..$u7b$$u7b$closure$u7d$$u7d$$GT$$GT$17h23c10f991c6aac21E', symObjAddr: 0xA0, symBinAddr: 0x10002D2A0, symSize: 0xC0 }
  - { offsetInCU: 0x59F9, offset: 0x111119, size: 0x8, addend: 0x0, symName: '__ZN4core3ptr196drop_in_place$LT$hashbrown..scopeguard..ScopeGuard$LT$hashbrown..raw..RawTableInner$C$hashbrown..raw..RawTableInner..prepare_resize$LT$alloc..alloc..Global$GT$..$u7b$$u7b$closure$u7d$$u7d$$GT$$GT$17hf31d3481476eae64E', symObjAddr: 0x160, symBinAddr: 0x10002D360, symSize: 0x40 }
  - { offsetInCU: 0x5C62, offset: 0x111382, size: 0x8, addend: 0x0, symName: '__ZN4core3ptr52drop_in_place$LT$$LP$cc..CompilerFlag$C$bool$RP$$GT$17hc0396b468bf6899eE', symObjAddr: 0x1A0, symBinAddr: 0x10002D3A0, symSize: 0x50 }
  - { offsetInCU: 0x5DE5, offset: 0x111505, size: 0x8, addend: 0x0, symName: '__ZN4core3ptr87drop_in_place$LT$$LP$alloc..boxed..Box$LT$str$GT$$C$alloc..sync..Arc$LT$str$GT$$RP$$GT$17haea441f2e0217fe8E', symObjAddr: 0x1F0, symBinAddr: 0x10002D3F0, symSize: 0x50 }
  - { offsetInCU: 0x5F5D, offset: 0x11167D, size: 0x8, addend: 0x0, symName: '__ZN4core3ptr92drop_in_place$LT$$LP$alloc..boxed..Box$LT$std..path..Path$GT$$C$cc..tool..ToolFamily$RP$$GT$17h28c4661c36b8fd89E', symObjAddr: 0x240, symBinAddr: 0x10002D440, symSize: 0x20 }
  - { offsetInCU: 0xA5A1, offset: 0x115CC1, size: 0x8, addend: 0x0, symName: '__ZN9hashbrown3raw21RawTable$LT$T$C$A$GT$14reserve_rehash17h20ca06a650aeb0d4E.llvm.16055088952298811423', symObjAddr: 0x7D0, symBinAddr: 0x100090370, symSize: 0x910 }
  - { offsetInCU: 0xC5A1, offset: 0x117CC1, size: 0x8, addend: 0x0, symName: '__ZN9hashbrown3raw21RawTable$LT$T$C$A$GT$14reserve_rehash17h5c9765605fe486caE.llvm.16055088952298811423', symObjAddr: 0x10E0, symBinAddr: 0x100090C80, symSize: 0x910 }
  - { offsetInCU: 0xE5AE, offset: 0x119CCE, size: 0x8, addend: 0x0, symName: '__ZN9hashbrown3raw21RawTable$LT$T$C$A$GT$14reserve_rehash17h75724669e4408885E.llvm.16055088952298811423', symObjAddr: 0x19F0, symBinAddr: 0x100091590, symSize: 0x8A0 }
  - { offsetInCU: 0x10634, offset: 0x11BD54, size: 0x8, addend: 0x0, symName: '__ZN9hashbrown3raw21RawTable$LT$T$C$A$GT$14reserve_rehash17h8aff480003678cadE.llvm.16055088952298811423', symObjAddr: 0x2290, symBinAddr: 0x100091E30, symSize: 0x9C0 }
  - { offsetInCU: 0x126AF, offset: 0x11DDCF, size: 0x8, addend: 0x0, symName: '__ZN9hashbrown3raw21RawTable$LT$T$C$A$GT$14reserve_rehash17hc4e7e809bc2280f1E.llvm.16055088952298811423', symObjAddr: 0x2C50, symBinAddr: 0x1000927F0, symSize: 0x910 }
  - { offsetInCU: 0xCD2, offset: 0x120B3C, size: 0x8, addend: 0x0, symName: '__ZN3std4sync4mpmc5array16Channel$LT$T$GT$4send28_$u7b$$u7b$closure$u7d$$u7d$17h25374e81a95e030bE', symObjAddr: 0x6D0, symBinAddr: 0x10002E040, symSize: 0x590 }
  - { offsetInCU: 0x4C3B, offset: 0x124AA5, size: 0x8, addend: 0x0, symName: '__ZN4core3ptr124drop_in_place$LT$std..sync..poison..PoisonError$LT$std..sync..mutex..MutexGuard$LT$std..sync..mpmc..waker..Waker$GT$$GT$$GT$17h94a951694ba4aaacE', symObjAddr: 0x14B0, symBinAddr: 0x10002EE20, symSize: 0x70 }
  - { offsetInCU: 0x4F1D, offset: 0x124D87, size: 0x8, addend: 0x0, symName: '__ZN4core3ptr86drop_in_place$LT$std..sync..mutex..MutexGuard$LT$std..sync..mpmc..waker..Waker$GT$$GT$17hdd354cc6790ae6efE', symObjAddr: 0x1520, symBinAddr: 0x10002EE90, symSize: 0x70 }
  - { offsetInCU: 0x52CA, offset: 0x125134, size: 0x8, addend: 0x0, symName: '__ZN4core3ptr92drop_in_place$LT$core..result..Result$LT$jobserver..Acquired$C$std..io..error..Error$GT$$GT$17h1458f7f7cb9e6240E.llvm.4734378931287815690', symObjAddr: 0x1590, symBinAddr: 0x10002EF00, symSize: 0xEE }
  - { offsetInCU: 0x6FF7, offset: 0x126E61, size: 0x8, addend: 0x0, symName: '__ZN3std4sync4mpmc5array16Channel$LT$T$GT$20disconnect_receivers17h170e1ae869173e93E', symObjAddr: 0x60, symBinAddr: 0x10002D9D0, symSize: 0x180 }
  - { offsetInCU: 0x7AC3, offset: 0x12792D, size: 0x8, addend: 0x0, symName: '__ZN3std4sync4mpmc5array16Channel$LT$T$GT$4send17h4f16aaedae2247b1E', symObjAddr: 0x1E0, symBinAddr: 0x10002DB50, symSize: 0x4F0 }
  - { offsetInCU: 0x9754, offset: 0x1295BE, size: 0x8, addend: 0x0, symName: '__ZN3std4sync4mpmc5array16Channel$LT$T$GT$8try_recv17h5fb45b1a685dc017E', symObjAddr: 0xC60, symBinAddr: 0x10002E5D0, symSize: 0x2A0 }
  - { offsetInCU: 0x9FC7, offset: 0x129E31, size: 0x8, addend: 0x0, symName: __ZN3std4sync4mpmc5waker5Waker6notify17h1ac1acbd94bb01e7E, symObjAddr: 0xF00, symBinAddr: 0x10002E870, symSize: 0x110 }
  - { offsetInCU: 0xAB05, offset: 0x12A96F, size: 0x8, addend: 0x0, symName: __ZN3std4sync4mpmc5waker9SyncWaker10disconnect17hb74ce42b997d52f1E.llvm.4734378931287815690, symObjAddr: 0x1010, symBinAddr: 0x10002E980, symSize: 0x1D0 }
  - { offsetInCU: 0xB97B, offset: 0x12B7E5, size: 0x8, addend: 0x0, symName: __ZN3std4sync4mpmc5waker9SyncWaker6notify17h820dcf8c8fe5f6dfE, symObjAddr: 0x11E0, symBinAddr: 0x10002EB50, symSize: 0x2D0 }
  - { offsetInCU: 0x1E, offset: 0x12D80C, size: 0x8, addend: 0x0, symName: __ZN5alloc7raw_vec11finish_grow17h95b61990e06e6675E.llvm.1779146591246848866, symObjAddr: 0x0, symBinAddr: 0x10002EFF0, symSize: 0xA0 }
  - { offsetInCU: 0x2260, offset: 0x12FA4E, size: 0x8, addend: 0x0, symName: __ZN5alloc7raw_vec11finish_grow17h95b61990e06e6675E.llvm.1779146591246848866, symObjAddr: 0x0, symBinAddr: 0x10002EFF0, symSize: 0xA0 }
  - { offsetInCU: 0x2C3B, offset: 0x130429, size: 0x8, addend: 0x0, symName: '__ZN5alloc7raw_vec19RawVec$LT$T$C$A$GT$7reserve21do_reserve_and_handle17h35bc246b9904dc36E', symObjAddr: 0x710, symBinAddr: 0x100093100, symSize: 0x0 }
  - { offsetInCU: 0x2F8D, offset: 0x13077B, size: 0x8, addend: 0x0, symName: '__ZN5alloc7raw_vec19RawVec$LT$T$C$A$GT$7reserve21do_reserve_and_handle17h5673826e9da2f0baE', symObjAddr: 0x7E0, symBinAddr: 0x1000931D0, symSize: 0xC0 }
  - { offsetInCU: 0x32DF, offset: 0x130ACD, size: 0x8, addend: 0x0, symName: '__ZN5alloc7raw_vec19RawVec$LT$T$C$A$GT$7reserve21do_reserve_and_handle17h672fa14ed71cbd43E', symObjAddr: 0x8A0, symBinAddr: 0x100093290, symSize: 0x0 }
  - { offsetInCU: 0x3631, offset: 0x130E1F, size: 0x8, addend: 0x0, symName: '__ZN5alloc7raw_vec19RawVec$LT$T$C$A$GT$7reserve21do_reserve_and_handle17hbf69ddf3b17bca0fE', symObjAddr: 0x960, symBinAddr: 0x100093350, symSize: 0xB0 }
  - { offsetInCU: 0x3970, offset: 0x13115E, size: 0x8, addend: 0x0, symName: '__ZN77_$LT$alloc..raw_vec..RawVec$LT$T$C$A$GT$$u20$as$u20$core..ops..drop..Drop$GT$4drop17hc34973958d5c2807E', symObjAddr: 0xB20, symBinAddr: 0x10002F4E0, symSize: 0x24 }
  - { offsetInCU: 0x47B4, offset: 0x131FA2, size: 0x8, addend: 0x0, symName: '__ZN5alloc7raw_vec19RawVec$LT$T$C$A$GT$11allocate_in17h15178fb13b936ebdE', symObjAddr: 0xA0, symBinAddr: 0x10002F090, symSize: 0x70 }
  - { offsetInCU: 0x4BB3, offset: 0x1323A1, size: 0x8, addend: 0x0, symName: '__ZN5alloc7raw_vec19RawVec$LT$T$C$A$GT$16reserve_for_push17h0aa273bcf63ad8d9E', symObjAddr: 0x330, symBinAddr: 0x10002F100, symSize: 0xB0 }
  - { offsetInCU: 0x505D, offset: 0x13284B, size: 0x8, addend: 0x0, symName: '__ZN5alloc7raw_vec19RawVec$LT$T$C$A$GT$16reserve_for_push17h0f6ceab49a407196E', symObjAddr: 0x3E0, symBinAddr: 0x10002F1B0, symSize: 0x0 }
  - { offsetInCU: 0x5775, offset: 0x132F63, size: 0x8, addend: 0x0, symName: '__ZN5alloc7raw_vec19RawVec$LT$T$C$A$GT$16reserve_for_push17h3224b5b9aa357164E', symObjAddr: 0x4B0, symBinAddr: 0x10002F280, symSize: 0xD0 }
  - { offsetInCU: 0x5C7B, offset: 0x133469, size: 0x8, addend: 0x0, symName: '__ZN5alloc7raw_vec19RawVec$LT$T$C$A$GT$16reserve_for_push17h771319b923933006E', symObjAddr: 0x580, symBinAddr: 0x10002F350, symSize: 0x0 }
  - { offsetInCU: 0x6173, offset: 0x133961, size: 0x8, addend: 0x0, symName: '__ZN5alloc7raw_vec19RawVec$LT$T$C$A$GT$16reserve_for_push17h9717d92e32e49034E', symObjAddr: 0x650, symBinAddr: 0x10002F420, symSize: 0xC0 }
  - { offsetInCU: 0x1E, offset: 0x133FF3, size: 0x8, addend: 0x0, symName: '__ZN3std4sync4mpmc4zero16Channel$LT$T$GT$10disconnect17hd163d6afaeb1a0d4E', symObjAddr: 0x0, symBinAddr: 0x10002F510, symSize: 0x230 }
  - { offsetInCU: 0x5B1, offset: 0x134586, size: 0x8, addend: 0x0, symName: '__ZN3std4sync4mpmc4zero16Channel$LT$T$GT$4send28_$u7b$$u7b$closure$u7d$$u7d$17h47cc52d5ba78baafE', symObjAddr: 0xA10, symBinAddr: 0x10002FF20, symSize: 0x800 }
  - { offsetInCU: 0x542D, offset: 0x139402, size: 0x8, addend: 0x0, symName: '__ZN4core3ptr123drop_in_place$LT$std..sync..poison..PoisonError$LT$std..sync..mutex..MutexGuard$LT$std..sync..mpmc..zero..Inner$GT$$GT$$GT$17h83111a4a35d3d4fdE', symObjAddr: 0x18B0, symBinAddr: 0x100030DC0, symSize: 0x70 }
  - { offsetInCU: 0x572E, offset: 0x139703, size: 0x8, addend: 0x0, symName: '__ZN4core3ptr193drop_in_place$LT$core..option..Option$LT$std..sync..mpmc..zero..Channel$LT$core..result..Result$LT$jobserver..Acquired$C$std..io..error..Error$GT$$GT$..send..$u7b$$u7b$closure$u7d$$u7d$$GT$$GT$17he5e291b1485c475bE', symObjAddr: 0x1920, symBinAddr: 0x100030E30, symSize: 0xF0 }
  - { offsetInCU: 0x5D55, offset: 0x139D2A, size: 0x8, addend: 0x0, symName: '__ZN4core3ptr85drop_in_place$LT$std..sync..mutex..MutexGuard$LT$std..sync..mpmc..zero..Inner$GT$$GT$17h95c5b9087c75934fE', symObjAddr: 0x1A10, symBinAddr: 0x100030F20, symSize: 0x70 }
  - { offsetInCU: 0x6102, offset: 0x13A0D7, size: 0x8, addend: 0x0, symName: '__ZN4core3ptr92drop_in_place$LT$core..result..Result$LT$jobserver..Acquired$C$std..io..error..Error$GT$$GT$17h1458f7f7cb9e6240E', symObjAddr: 0x1A80, symBinAddr: 0x100030F90, symSize: 0xEE }
  - { offsetInCU: 0x80AA, offset: 0x13C07F, size: 0x8, addend: 0x0, symName: '__ZN3std4sync4mpmc4zero16Channel$LT$T$GT$10disconnect17hd163d6afaeb1a0d4E', symObjAddr: 0x0, symBinAddr: 0x10002F510, symSize: 0x230 }
  - { offsetInCU: 0x966B, offset: 0x13D640, size: 0x8, addend: 0x0, symName: '__ZN3std4sync4mpmc4zero16Channel$LT$T$GT$4send17h7840c046249b1660E', symObjAddr: 0x230, symBinAddr: 0x10002F740, symSize: 0x7E0 }
  - { offsetInCU: 0xBE24, offset: 0x13FDF9, size: 0x8, addend: 0x0, symName: '__ZN3std4sync4mpmc4zero16Channel$LT$T$GT$8try_recv17h2fd7babdfb1f17dcE', symObjAddr: 0x1210, symBinAddr: 0x100030720, symSize: 0x590 }
  - { offsetInCU: 0xDAFB, offset: 0x141AD0, size: 0x8, addend: 0x0, symName: __ZN3std4sync4mpmc5waker5Waker6notify17h1ac1acbd94bb01e7E, symObjAddr: 0x17A0, symBinAddr: 0x100030CB0, symSize: 0x110 }
  - { offsetInCU: 0x1E, offset: 0x143489, size: 0x8, addend: 0x0, symName: '__ZN4core3ptr104drop_in_place$LT$cc..parallel..job_token..ActiveJobTokenServer..acquire..$u7b$$u7b$closure$u7d$$u7d$$GT$17h80b38199d3c6fa14E', symObjAddr: 0x0, symBinAddr: 0x100031080, symSize: 0x60 }
  - { offsetInCU: 0x831, offset: 0x143C9C, size: 0x8, addend: 0x0, symName: __ZN2cc8parallel14async_executor8block_on17h2e23b2c635f0707cE, symObjAddr: 0x770, symBinAddr: 0x1000317F0, symSize: 0x19D4 }
  - { offsetInCU: 0x6614, offset: 0x149A7F, size: 0x8, addend: 0x0, symName: '__ZN4core3ptr104drop_in_place$LT$cc..parallel..job_token..ActiveJobTokenServer..acquire..$u7b$$u7b$closure$u7d$$u7d$$GT$17h80b38199d3c6fa14E', symObjAddr: 0x0, symBinAddr: 0x100031080, symSize: 0x60 }
  - { offsetInCU: 0x665B, offset: 0x149AC6, size: 0x8, addend: 0x0, symName: '__ZN4core3ptr120drop_in_place$LT$cc..parallel..job_token..inherited_jobserver..ActiveJobServer..acquire..$u7b$$u7b$closure$u7d$$u7d$$GT$17h7d16bb9990524867E', symObjAddr: 0x60, symBinAddr: 0x1000310E0, symSize: 0x50 }
  - { offsetInCU: 0x67AA, offset: 0x149C15, size: 0x8, addend: 0x0, symName: '__ZN4core3ptr40drop_in_place$LT$std..process..Child$GT$17h373d5d7b85fd1421E', symObjAddr: 0xB0, symBinAddr: 0x100031130, symSize: 0x70 }
  - { offsetInCU: 0x6B9F, offset: 0x14A00A, size: 0x8, addend: 0x0, symName: '__ZN4core3ptr42drop_in_place$LT$std..io..error..Error$GT$17h02d38141fa47cc0cE', symObjAddr: 0x120, symBinAddr: 0x1000311A0, symSize: 0xA0 }
  - { offsetInCU: 0x7211, offset: 0x14A67C, size: 0x8, addend: 0x0, symName: '__ZN4core3ptr42drop_in_place$LT$std..process..Command$GT$17h197492d0668fbe45E', symObjAddr: 0x1C0, symBinAddr: 0x100031240, symSize: 0x250 }
  - { offsetInCU: 0x802A, offset: 0x14B495, size: 0x8, addend: 0x0, symName: '__ZN4core3ptr57drop_in_place$LT$cc..command_helpers..StderrForwarder$GT$17h2d834e1cdd3fa4b4E', symObjAddr: 0x410, symBinAddr: 0x100031490, symSize: 0x60 }
  - { offsetInCU: 0x8317, offset: 0x14B782, size: 0x8, addend: 0x0, symName: '__ZN4core3ptr58drop_in_place$LT$core..option..Option$LT$cc..Error$GT$$GT$17hee627b63f9f1dc31E', symObjAddr: 0x470, symBinAddr: 0x1000314F0, symSize: 0x30 }
  - { offsetInCU: 0x8588, offset: 0x14B9F3, size: 0x8, addend: 0x0, symName: '__ZN4core3ptr71drop_in_place$LT$core..option..Option$LT$jobserver..imp..Helper$GT$$GT$17h362b71dbb3bb4c50E', symObjAddr: 0x4A0, symBinAddr: 0x100031520, symSize: 0xC0 }
  - { offsetInCU: 0x8CB2, offset: 0x14C11D, size: 0x8, addend: 0x0, symName: '__ZN4core3ptr76drop_in_place$LT$cc..Build..compile_objects..$u7b$$u7b$closure$u7d$$u7d$$GT$17hb73aa3481ce632b3E', symObjAddr: 0x560, symBinAddr: 0x1000315E0, symSize: 0xF0 }
  - { offsetInCU: 0x904D, offset: 0x14C4B8, size: 0x8, addend: 0x0, symName: '__ZN4core3ptr76drop_in_place$LT$cc..Build..compile_objects..$u7b$$u7b$closure$u7d$$u7d$$GT$17hf15c7bcb8c8e265fE', symObjAddr: 0x650, symBinAddr: 0x1000316D0, symSize: 0xB0 }
  - { offsetInCU: 0x9401, offset: 0x14C86C, size: 0x8, addend: 0x0, symName: '__ZN4core3ptr90drop_in_place$LT$std..io..buffered..bufwriter..BufWriter$LT$std..io..stdio..Stdout$GT$$GT$17h216063db76eebe97E', symObjAddr: 0x700, symBinAddr: 0x100031780, symSize: 0x70 }
  - { offsetInCU: 0x116, offset: 0x153B03, size: 0x8, addend: 0x0, symName: __ZN2cc7windows10find_tools15find_tool_inner17h72bb18cae80636beE, symObjAddr: 0xE70, symBinAddr: 0x100033B90, symSize: 0x1B0 }
  - { offsetInCU: 0x1660, offset: 0x15504D, size: 0x8, addend: 0x0, symName: '__ZN4core3str7pattern13simd_contains28_$u7b$$u7b$closure$u7d$$u7d$17hce6f1e89daa5eeadE', symObjAddr: 0x200, symBinAddr: 0x100093400, symSize: 0x130 }
  - { offsetInCU: 0x1E9D, offset: 0x15588A, size: 0x8, addend: 0x0, symName: '__ZN55_$LT$$RF$str$u20$as$u20$core..str..pattern..Pattern$GT$15is_contained_in17hbbef826cef545265E', symObjAddr: 0x660, symBinAddr: 0x100033500, symSize: 0x690 }
  - { offsetInCU: 0x521E, offset: 0x158C0B, size: 0x8, addend: 0x0, symName: __ZN4core3str7pattern14TwoWaySearcher4next17hd6a2e67a40bad666E, symObjAddr: 0x330, symBinAddr: 0x1000331D0, symSize: 0x330 }
  - { offsetInCU: 0x1E, offset: 0x159A71, size: 0x8, addend: 0x0, symName: __ZN3std2io5Write18write_all_vectored17hd2e7385a9f4f25b1E, symObjAddr: 0x0, symBinAddr: 0x100033D40, symSize: 0x240 }
  - { offsetInCU: 0x35, offset: 0x159A88, size: 0x8, addend: 0x0, symName: _anon.137a54d4ae5517a0fc9794a1faeae3a2.4.llvm.6264745095112301367, symObjAddr: 0xC00, symBinAddr: 0x1000B6288, symSize: 0x0 }
  - { offsetInCU: 0xE3, offset: 0x159B36, size: 0x8, addend: 0x0, symName: __ZN3std2io5Write18write_all_vectored17hd2e7385a9f4f25b1E, symObjAddr: 0x0, symBinAddr: 0x100033D40, symSize: 0x240 }
  - { offsetInCU: 0x710, offset: 0x15A163, size: 0x8, addend: 0x0, symName: __ZN3std2io5Write9write_fmt17hd08dd1ada3919a44E, symObjAddr: 0x240, symBinAddr: 0x100033F80, symSize: 0x90 }
  - { offsetInCU: 0x9E9, offset: 0x15A43C, size: 0x8, addend: 0x0, symName: '__ZN83_$LT$std..io..buffered..bufwriter..BufWriter$LT$W$GT$$u20$as$u20$std..io..Write$GT$14write_vectored17hc0600541f6484505E', symObjAddr: 0x6A0, symBinAddr: 0x100034220, symSize: 0x2D0 }
  - { offsetInCU: 0x1405, offset: 0x15AE58, size: 0x8, addend: 0x0, symName: '__ZN83_$LT$std..io..buffered..bufwriter..BufWriter$LT$W$GT$$u20$as$u20$std..io..Write$GT$5flush17h495bb7a556a7ba59E', symObjAddr: 0x970, symBinAddr: 0x1000344F0, symSize: 0x30 }
  - { offsetInCU: 0x295D, offset: 0x15C3B0, size: 0x8, addend: 0x0, symName: '__ZN4core3ptr132drop_in_place$LT$std..io..Write..write_fmt..Adapter$LT$std..io..buffered..bufwriter..BufWriter$LT$std..io..stdio..Stdout$GT$$GT$$GT$17h7cf18ccdc48f9be0E.llvm.6264745095112301367', symObjAddr: 0x5E0, symBinAddr: 0x100034160, symSize: 0x20 }
  - { offsetInCU: 0x2A2A, offset: 0x15C47D, size: 0x8, addend: 0x0, symName: '__ZN4core3ptr42drop_in_place$LT$std..io..error..Error$GT$17h02d38141fa47cc0cE.llvm.6264745095112301367', symObjAddr: 0x600, symBinAddr: 0x100034180, symSize: 0xA0 }
  - { offsetInCU: 0x489B, offset: 0x15E2EE, size: 0x8, addend: 0x0, symName: '__ZN3std2io8buffered9bufwriter18BufWriter$LT$W$GT$10write_cold17hb239b78ac2d83720E', symObjAddr: 0x2D0, symBinAddr: 0x100093530, symSize: 0xC0 }
  - { offsetInCU: 0x4D0E, offset: 0x15E761, size: 0x8, addend: 0x0, symName: '__ZN3std2io8buffered9bufwriter18BufWriter$LT$W$GT$14write_all_cold17h29d20c4b105274f9E', symObjAddr: 0x410, symBinAddr: 0x1000935F0, symSize: 0x80 }
  - { offsetInCU: 0x4FDC, offset: 0x15EA2F, size: 0x8, addend: 0x0, symName: '__ZN3std2io8buffered9bufwriter18BufWriter$LT$W$GT$9flush_buf17hd18e2ab56cd71ca1E.llvm.6264745095112301367', symObjAddr: 0x490, symBinAddr: 0x100034010, symSize: 0x150 }
  - { offsetInCU: 0x1E, offset: 0x15F513, size: 0x8, addend: 0x0, symName: '__ZN44_$LT$$RF$T$u20$as$u20$core..fmt..Display$GT$3fmt17haccf435a97e81fa1E', symObjAddr: 0x0, symBinAddr: 0x100034520, symSize: 0x20 }
  - { offsetInCU: 0x35, offset: 0x15F52A, size: 0x8, addend: 0x0, symName: _anon.2dfc88087d4b967f782d574c43786bfa.1.llvm.1766768160636811217, symObjAddr: 0x890, symBinAddr: 0x1000B6350, symSize: 0x0 }
  - { offsetInCU: 0x176, offset: 0x15F66B, size: 0x8, addend: 0x0, symName: '__ZN69_$LT$core..alloc..layout..LayoutError$u20$as$u20$core..fmt..Debug$GT$3fmt17h4a4fe23c9d7564f3E.llvm.1766768160636811217', symObjAddr: 0x710, symBinAddr: 0x100034C20, symSize: 0x19 }
  - { offsetInCU: 0x281, offset: 0x15F776, size: 0x8, addend: 0x0, symName: '__ZN44_$LT$$RF$T$u20$as$u20$core..fmt..Display$GT$3fmt17haccf435a97e81fa1E', symObjAddr: 0x0, symBinAddr: 0x100034520, symSize: 0x20 }
  - { offsetInCU: 0x895, offset: 0x15FD8A, size: 0x8, addend: 0x0, symName: '__ZN4core3ptr53drop_in_place$LT$core..alloc..layout..LayoutError$GT$17h85d6aaee9170b53eE.llvm.1766768160636811217', symObjAddr: 0x20, symBinAddr: 0x100034540, symSize: 0x10 }
  - { offsetInCU: 0x2560, offset: 0x161A55, size: 0x8, addend: 0x0, symName: '__ZN68_$LT$alloc..sync..Arc$LT$T$C$A$GT$$u20$as$u20$core..fmt..Display$GT$3fmt17h02f5cfb217ab2044E', symObjAddr: 0x6F0, symBinAddr: 0x100034C00, symSize: 0x20 }
  - { offsetInCU: 0x47FC, offset: 0x163CF1, size: 0x8, addend: 0x0, symName: '__ZN5alloc4sync16Arc$LT$T$C$A$GT$9drop_slow17h01af99bf6f9da28cE', symObjAddr: 0x40, symBinAddr: 0x100034550, symSize: 0x120 }
  - { offsetInCU: 0x54B8, offset: 0x1649AD, size: 0x8, addend: 0x0, symName: '__ZN5alloc4sync16Arc$LT$T$C$A$GT$9drop_slow17h1b421e16a75c1905E', symObjAddr: 0x160, symBinAddr: 0x100034670, symSize: 0x70 }
  - { offsetInCU: 0x5973, offset: 0x164E68, size: 0x8, addend: 0x0, symName: '__ZN5alloc4sync16Arc$LT$T$C$A$GT$9drop_slow17h1c90f768d7d06a77E', symObjAddr: 0x1D0, symBinAddr: 0x1000346E0, symSize: 0x60 }
  - { offsetInCU: 0x5E2E, offset: 0x165323, size: 0x8, addend: 0x0, symName: '__ZN5alloc4sync16Arc$LT$T$C$A$GT$9drop_slow17h38453fceae4c7594E', symObjAddr: 0x230, symBinAddr: 0x100034740, symSize: 0x50 }
  - { offsetInCU: 0x6246, offset: 0x16573B, size: 0x8, addend: 0x0, symName: '__ZN5alloc4sync16Arc$LT$T$C$A$GT$9drop_slow17h3eed0cb8cebfc7b9E', symObjAddr: 0x280, symBinAddr: 0x100034790, symSize: 0x0 }
  - { offsetInCU: 0x658A, offset: 0x165A7F, size: 0x8, addend: 0x0, symName: '__ZN5alloc4sync16Arc$LT$T$C$A$GT$9drop_slow17h3f63b88e194d0803E', symObjAddr: 0x2C0, symBinAddr: 0x1000347D0, symSize: 0x70 }
  - { offsetInCU: 0x69A5, offset: 0x165E9A, size: 0x8, addend: 0x0, symName: '__ZN5alloc4sync16Arc$LT$T$C$A$GT$9drop_slow17h4d175b2a0f372d36E', symObjAddr: 0x330, symBinAddr: 0x100034840, symSize: 0x30 }
  - { offsetInCU: 0x6DD6, offset: 0x1662CB, size: 0x8, addend: 0x0, symName: '__ZN5alloc4sync16Arc$LT$T$C$A$GT$9drop_slow17h5597a21d1272e545E', symObjAddr: 0x360, symBinAddr: 0x100034870, symSize: 0xB0 }
  - { offsetInCU: 0x7412, offset: 0x166907, size: 0x8, addend: 0x0, symName: '__ZN5alloc4sync16Arc$LT$T$C$A$GT$9drop_slow17h712449e167aff5f0E', symObjAddr: 0x410, symBinAddr: 0x100034920, symSize: 0x70 }
  - { offsetInCU: 0x797D, offset: 0x166E72, size: 0x8, addend: 0x0, symName: '__ZN5alloc4sync16Arc$LT$T$C$A$GT$9drop_slow17h7241680cb06bb1deE', symObjAddr: 0x480, symBinAddr: 0x100034990, symSize: 0x60 }
  - { offsetInCU: 0x7DE6, offset: 0x1672DB, size: 0x8, addend: 0x0, symName: '__ZN5alloc4sync16Arc$LT$T$C$A$GT$9drop_slow17h8eb9b3892240c65aE', symObjAddr: 0x4E0, symBinAddr: 0x1000349F0, symSize: 0x50 }
  - { offsetInCU: 0x8263, offset: 0x167758, size: 0x8, addend: 0x0, symName: '__ZN5alloc4sync16Arc$LT$T$C$A$GT$9drop_slow17hbde7f06218b42b12E', symObjAddr: 0x530, symBinAddr: 0x100034A40, symSize: 0xA0 }
  - { offsetInCU: 0x88A9, offset: 0x167D9E, size: 0x8, addend: 0x0, symName: '__ZN5alloc4sync16Arc$LT$T$C$A$GT$9drop_slow17hc61affb86f530a97E', symObjAddr: 0x5D0, symBinAddr: 0x100034AE0, symSize: 0x60 }
  - { offsetInCU: 0x8EC6, offset: 0x1683BB, size: 0x8, addend: 0x0, symName: '__ZN5alloc4sync22Arc$LT$$u5b$T$u5d$$GT$15copy_from_slice17h4ddfbfaeeac8c825E', symObjAddr: 0x630, symBinAddr: 0x100034B40, symSize: 0xC0 }
  - { offsetInCU: 0xA37, offset: 0x169411, size: 0x8, addend: 0x0, symName: '__ZN102_$LT$core..iter..adapters..map..Map$LT$I$C$F$GT$$u20$as$u20$core..iter..traits..iterator..Iterator$GT$8try_fold17hca4682adfb14e486E', symObjAddr: 0x6D0, symBinAddr: 0x100034C40, symSize: 0x1E0 }
  - { offsetInCU: 0x1E, offset: 0x16AFA5, size: 0x8, addend: 0x0, symName: '__ZN4core3ptr37drop_in_place$LT$cc..CompilerFlag$GT$17h3a8127a80dcd81c8E', symObjAddr: 0x0, symBinAddr: 0x100034E20, symSize: 0x50 }
  - { offsetInCU: 0x1C54, offset: 0x16CBDB, size: 0x8, addend: 0x0, symName: '__ZN4core3ptr37drop_in_place$LT$cc..CompilerFlag$GT$17h3a8127a80dcd81c8E', symObjAddr: 0x0, symBinAddr: 0x100034E20, symSize: 0x50 }
  - { offsetInCU: 0x3FDD, offset: 0x16EF64, size: 0x8, addend: 0x0, symName: '__ZN9hashbrown3map28HashMap$LT$K$C$V$C$S$C$A$GT$6insert17h320d2cfa91e96a82E', symObjAddr: 0x50, symBinAddr: 0x100034E70, symSize: 0x2A0 }
  - { offsetInCU: 0x507E, offset: 0x170005, size: 0x8, addend: 0x0, symName: '__ZN9hashbrown3map28HashMap$LT$K$C$V$C$S$C$A$GT$6insert17h879240e066208acfE', symObjAddr: 0x2F0, symBinAddr: 0x100035110, symSize: 0x270 }
  - { offsetInCU: 0x61EE, offset: 0x171175, size: 0x8, addend: 0x0, symName: '__ZN9hashbrown3map28HashMap$LT$K$C$V$C$S$C$A$GT$6insert17hbee623981b08c0f7E', symObjAddr: 0x560, symBinAddr: 0x100035380, symSize: 0x250 }
  - { offsetInCU: 0x70C2, offset: 0x172049, size: 0x8, addend: 0x0, symName: '__ZN9hashbrown3map28HashMap$LT$K$C$V$C$S$C$A$GT$6insert17hd52d195027dae2caE', symObjAddr: 0x7B0, symBinAddr: 0x1000355D0, symSize: 0x270 }
  - { offsetInCU: 0x826E, offset: 0x1731F5, size: 0x8, addend: 0x0, symName: '__ZN9hashbrown3map28HashMap$LT$K$C$V$C$S$C$A$GT$6insert17hedf795504cfc799aE', symObjAddr: 0xA20, symBinAddr: 0x100035840, symSize: 0x216 }
  - { offsetInCU: 0x1E, offset: 0x174199, size: 0x8, addend: 0x0, symName: '__ZN4core3ptr42drop_in_place$LT$std..io..error..Error$GT$17h02d38141fa47cc0cE.llvm.16095262366139375207', symObjAddr: 0x0, symBinAddr: 0x100035A60, symSize: 0xA0 }
  - { offsetInCU: 0x13C8, offset: 0x175543, size: 0x8, addend: 0x0, symName: '__ZN4core3ptr42drop_in_place$LT$std..io..error..Error$GT$17h02d38141fa47cc0cE.llvm.16095262366139375207', symObjAddr: 0x0, symBinAddr: 0x100035A60, symSize: 0xA0 }
  - { offsetInCU: 0x316B, offset: 0x1772E6, size: 0x8, addend: 0x0, symName: __ZN2cc8tempfile13NamedTempfile3new17h41a8433d037ca99cE, symObjAddr: 0xA0, symBinAddr: 0x100035B00, symSize: 0x620 }
  - { offsetInCU: 0x246, offset: 0x1789B7, size: 0x8, addend: 0x0, symName: '__ZN4core3str21_$LT$impl$u20$str$GT$12trim_matches17hd13b25958b07fb9fE', symObjAddr: 0x20, symBinAddr: 0x100036120, symSize: 0x2D0 }
  - { offsetInCU: 0x657, offset: 0x17A913, size: 0x8, addend: 0x0, symName: '__ZN42_$LT$$RF$T$u20$as$u20$core..fmt..Debug$GT$3fmt17hd65903f63c62592aE', symObjAddr: 0x650, symBinAddr: 0x1000365E0, symSize: 0x0 }
  - { offsetInCU: 0x1B5C, offset: 0x17BE18, size: 0x8, addend: 0x0, symName: __ZN3std7process7Command3new17h6e94ec15dbeaf9eaE, symObjAddr: 0x220, symBinAddr: 0x1000363F0, symSize: 0x90 }
  - { offsetInCU: 0x1F71, offset: 0x17C22D, size: 0x8, addend: 0x0, symName: __ZN3std7process7Command4args17hea3ade2f11e76dfbE, symObjAddr: 0x4B0, symBinAddr: 0x100036480, symSize: 0x160 }
  - { offsetInCU: 0x1E, offset: 0x17CF29, size: 0x8, addend: 0x0, symName: '__ZN3std3sys6common12thread_local10fast_local12Key$LT$T$GT$14try_initialize17h37789ab0f2033424E.llvm.12707742563472893344', symObjAddr: 0x0, symBinAddr: 0x1000365F0, symSize: 0x50 }
  - { offsetInCU: 0x4E5, offset: 0x17D3F0, size: 0x8, addend: 0x0, symName: __ZN3std3sys6common12thread_local10fast_local13destroy_value17hcfc118277df18d54E, symObjAddr: 0x180, symBinAddr: 0x100036710, symSize: 0xA0 }
  - { offsetInCU: 0x1204, offset: 0x17E10F, size: 0x8, addend: 0x0, symName: '__ZN4core3ptr81drop_in_place$LT$core..result..Result$LT$$LP$$RP$$C$std..io..error..Error$GT$$GT$17ha7f1bf29d05648c5E', symObjAddr: 0x220, symBinAddr: 0x1000367B0, symSize: 0xA5 }
  - { offsetInCU: 0x1DC1, offset: 0x17ECCC, size: 0x8, addend: 0x0, symName: '__ZN3std3sys6common12thread_local10fast_local12Key$LT$T$GT$14try_initialize17h37789ab0f2033424E.llvm.12707742563472893344', symObjAddr: 0x0, symBinAddr: 0x1000365F0, symSize: 0x50 }
  - { offsetInCU: 0x233F, offset: 0x17F24A, size: 0x8, addend: 0x0, symName: '__ZN3std3sys6common12thread_local10fast_local12Key$LT$T$GT$14try_initialize17h72297433f7d8906bE.llvm.12707742563472893344', symObjAddr: 0x50, symBinAddr: 0x100036640, symSize: 0xA0 }
  - { offsetInCU: 0x277C, offset: 0x17F687, size: 0x8, addend: 0x0, symName: '__ZN3std3sys6common12thread_local10fast_local12Key$LT$T$GT$14try_initialize17h7ac481a69cc6560bE.llvm.12707742563472893344', symObjAddr: 0xF0, symBinAddr: 0x1000366E0, symSize: 0x30 }
  - { offsetInCU: 0x1E, offset: 0x180EE3, size: 0x8, addend: 0x0, symName: '__ZN4core3ptr61drop_in_place$LT$std..sync..mutex..MutexGuard$LT$bool$GT$$GT$17h62e93efe9087b190E.llvm.11288778860347971247', symObjAddr: 0x0, symBinAddr: 0x100036860, symSize: 0x70 }
  - { offsetInCU: 0x559, offset: 0x18141E, size: 0x8, addend: 0x0, symName: '__ZN4core3ptr61drop_in_place$LT$std..sync..mutex..MutexGuard$LT$bool$GT$$GT$17h62e93efe9087b190E.llvm.11288778860347971247', symObjAddr: 0x0, symBinAddr: 0x100036860, symSize: 0x70 }
  - { offsetInCU: 0x2615, offset: 0x1834DA, size: 0x8, addend: 0x0, symName: __ZN2cc8parallel9job_token19inherited_jobserver9JobServer17release_token_raw17h5600e7102c8034afE, symObjAddr: 0x110, symBinAddr: 0x1000368D0, symSize: 0x190 }
  - { offsetInCU: 0x3174, offset: 0x184039, size: 0x8, addend: 0x0, symName: __ZN2cc8parallel9job_token19inherited_jobserver12HelperThread3new17h7a861cc3eaede173E, symObjAddr: 0x2A0, symBinAddr: 0x100036A60, symSize: 0x2DA }
  - { offsetInCU: 0x1E, offset: 0x185C23, size: 0x8, addend: 0x0, symName: '__ZN4core3ptr33drop_in_place$LT$$RF$$LP$$RP$$GT$17heaa6473310cde617E', symObjAddr: 0x0, symBinAddr: 0x100036D40, symSize: 0x10 }
  - { offsetInCU: 0x35, offset: 0x185C3A, size: 0x8, addend: 0x0, symName: _anon.fb07979d575d79946cc32155970564ff.1.llvm.7861240667358781678, symObjAddr: 0x5A8, symBinAddr: 0x1000B63E8, symSize: 0x0 }
  - { offsetInCU: 0xB8, offset: 0x185CBD, size: 0x8, addend: 0x0, symName: '__ZN70_$LT$core..num..error..TryFromIntError$u20$as$u20$core..fmt..Debug$GT$3fmt17hc0f971d0e5e88256E.llvm.7861240667358781678', symObjAddr: 0xE0, symBinAddr: 0x100036E00, symSize: 0x40 }
  - { offsetInCU: 0x539, offset: 0x18613E, size: 0x8, addend: 0x0, symName: '__ZN4core3ptr33drop_in_place$LT$$RF$$LP$$RP$$GT$17heaa6473310cde617E', symObjAddr: 0x0, symBinAddr: 0x100036D40, symSize: 0x10 }
  - { offsetInCU: 0x79A, offset: 0x18639F, size: 0x8, addend: 0x0, symName: '__ZN4core3ptr42drop_in_place$LT$std..io..error..Error$GT$17h02d38141fa47cc0cE.llvm.7861240667358781678', symObjAddr: 0x30, symBinAddr: 0x100036D50, symSize: 0xA0 }
  - { offsetInCU: 0xBFD, offset: 0x186802, size: 0x8, addend: 0x0, symName: '__ZN4core3ptr54drop_in_place$LT$core..num..error..TryFromIntError$GT$17h087f1e74569fe4daE.llvm.7861240667358781678', symObjAddr: 0xD0, symBinAddr: 0x100036DF0, symSize: 0x10 }
  - { offsetInCU: 0x1776, offset: 0x18737B, size: 0x8, addend: 0x0, symName: __ZN2cc8parallel6stderr16set_non_blocking17hae4a5bc15a199c7aE, symObjAddr: 0x120, symBinAddr: 0x100036E40, symSize: 0x1F0 }
  - { offsetInCU: 0x1AF3, offset: 0x1876F8, size: 0x8, addend: 0x0, symName: __ZN2cc8parallel6stderr15bytes_available17ha4ac64b04d807bccE, symObjAddr: 0x310, symBinAddr: 0x100037030, symSize: 0x125 }
  - { offsetInCU: 0x1E, offset: 0x1884FE, size: 0x8, addend: 0x0, symName: '__ZN4core3ops8function6FnOnce40call_once$u7b$$u7b$vtable.shim$u7d$$u7d$17h1a3fb1f22376c604E', symObjAddr: 0x0, symBinAddr: 0x100037160, symSize: 0x60 }
  - { offsetInCU: 0x77, offset: 0x188557, size: 0x8, addend: 0x0, symName: '__ZN2cc8parallel9job_token19inherited_jobserver12HelperThread3new28_$u7b$$u7b$closure$u7d$$u7d$17hce72be9a4432b6daE', symObjAddr: 0x340, symBinAddr: 0x1000374A0, symSize: 0x113 }
  - { offsetInCU: 0x22DF, offset: 0x18A7BF, size: 0x8, addend: 0x0, symName: '__ZN4core3ptr113drop_in_place$LT$cc..parallel..job_token..inherited_jobserver..HelperThread..new..$u7b$$u7b$closure$u7d$$u7d$$GT$17hcfcc9a029c62c4e0E', symObjAddr: 0x60, symBinAddr: 0x1000371C0, symSize: 0x10 }
  - { offsetInCU: 0x240D, offset: 0x18A8ED, size: 0x8, addend: 0x0, symName: '__ZN4core3ptr72drop_in_place$LT$alloc..sync..ArcInner$LT$jobserver..HelperState$GT$$GT$17h348352670997f80bE', symObjAddr: 0x70, symBinAddr: 0x1000371D0, symSize: 0x80 }
  - { offsetInCU: 0x2BBC, offset: 0x18B09C, size: 0x8, addend: 0x0, symName: '__ZN4core3ops8function6FnOnce40call_once$u7b$$u7b$vtable.shim$u7d$$u7d$17h1a3fb1f22376c604E', symObjAddr: 0x0, symBinAddr: 0x100037160, symSize: 0x60 }
  - { offsetInCU: 0x3B7E, offset: 0x18C05E, size: 0x8, addend: 0x0, symName: __ZN9jobserver6Client18into_helper_thread17hb7cd47e688d624c9E, symObjAddr: 0xF0, symBinAddr: 0x100037250, symSize: 0x250 }
  - { offsetInCU: 0x1E, offset: 0x18CE7A, size: 0x8, addend: 0x0, symName: __ZN4core3fmt5Write10write_char17h034f85464cc2c6c1E, symObjAddr: 0x0, symBinAddr: 0x1000375C0, symSize: 0x140 }
  - { offsetInCU: 0x19A, offset: 0x18CFF6, size: 0x8, addend: 0x0, symName: '__ZN80_$LT$std..io..Write..write_fmt..Adapter$LT$T$GT$$u20$as$u20$core..fmt..Write$GT$9write_str17h2afe0c00b6c97da7E', symObjAddr: 0x460, symBinAddr: 0x100037A20, symSize: 0x80 }
  - { offsetInCU: 0x3A9, offset: 0x18D205, size: 0x8, addend: 0x0, symName: '__ZN80_$LT$std..io..Write..write_fmt..Adapter$LT$T$GT$$u20$as$u20$core..fmt..Write$GT$9write_str17h464e3e65b6cf9c08E', symObjAddr: 0x4E0, symBinAddr: 0x100037AA0, symSize: 0x40 }
  - { offsetInCU: 0x3DE, offset: 0x18D23A, size: 0x8, addend: 0x0, symName: '__ZN80_$LT$std..io..Write..write_fmt..Adapter$LT$T$GT$$u20$as$u20$core..fmt..Write$GT$9write_str17hc9576802913c217bE', symObjAddr: 0x520, symBinAddr: 0x100037AE0, symSize: 0x3E }
  - { offsetInCU: 0xF1D, offset: 0x18DD79, size: 0x8, addend: 0x0, symName: '__ZN4core3ptr132drop_in_place$LT$std..io..Write..write_fmt..Adapter$LT$std..io..buffered..bufwriter..BufWriter$LT$std..io..stdio..Stdout$GT$$GT$$GT$17h7cf18ccdc48f9be0E', symObjAddr: 0x3A0, symBinAddr: 0x100037960, symSize: 0x10 }
  - { offsetInCU: 0x1007, offset: 0x18DE63, size: 0x8, addend: 0x0, symName: '__ZN4core3ptr81drop_in_place$LT$core..result..Result$LT$$LP$$RP$$C$std..io..error..Error$GT$$GT$17ha7f1bf29d05648c5E', symObjAddr: 0x3B0, symBinAddr: 0x100037970, symSize: 0xB0 }
  - { offsetInCU: 0x171C, offset: 0x18E578, size: 0x8, addend: 0x0, symName: __ZN4core3fmt5Write10write_char17h034f85464cc2c6c1E, symObjAddr: 0x0, symBinAddr: 0x1000375C0, symSize: 0x140 }
  - { offsetInCU: 0x1A23, offset: 0x18E87F, size: 0x8, addend: 0x0, symName: __ZN4core3fmt5Write10write_char17h9fe993190131feffE, symObjAddr: 0x140, symBinAddr: 0x100037700, symSize: 0x100 }
  - { offsetInCU: 0x1B50, offset: 0x18E9AC, size: 0x8, addend: 0x0, symName: __ZN4core3fmt5Write10write_char17hdb72df10620e30eaE, symObjAddr: 0x240, symBinAddr: 0x100037800, symSize: 0x100 }
  - { offsetInCU: 0x1D19, offset: 0x18EB75, size: 0x8, addend: 0x0, symName: __ZN4core3fmt5Write9write_fmt17h3a85729459dce252E, symObjAddr: 0x340, symBinAddr: 0x100037900, symSize: 0x20 }
  - { offsetInCU: 0x1D81, offset: 0x18EBDD, size: 0x8, addend: 0x0, symName: __ZN4core3fmt5Write9write_fmt17h69781ae85ad2a34aE, symObjAddr: 0x360, symBinAddr: 0x100037920, symSize: 0x20 }
  - { offsetInCU: 0x1DE9, offset: 0x18EC45, size: 0x8, addend: 0x0, symName: __ZN4core3fmt5Write9write_fmt17hbb08064ae31ddaefE, symObjAddr: 0x380, symBinAddr: 0x100037940, symSize: 0x20 }
  - { offsetInCU: 0x35, offset: 0x18F7F3, size: 0x8, addend: 0x0, symName: _anon.07de656e09b42ba7b3b949af8b714358.6.llvm.10049401140872274676, symObjAddr: 0x4E8, symBinAddr: 0x1000B6590, symSize: 0x0 }
  - { offsetInCU: 0xE3, offset: 0x18F8A1, size: 0x8, addend: 0x0, symName: __ZN3std2io5Write9write_all17hf670b2c91ed1c68cE, symObjAddr: 0x1C0, symBinAddr: 0x100037B20, symSize: 0xF0 }
  - { offsetInCU: 0x1469, offset: 0x190C27, size: 0x8, addend: 0x0, symName: '__ZN4core3ptr42drop_in_place$LT$std..io..error..Error$GT$17h02d38141fa47cc0cE.llvm.10049401140872274676', symObjAddr: 0x340, symBinAddr: 0x100037C10, symSize: 0xA0 }
  - { offsetInCU: 0x18CC, offset: 0x19108A, size: 0x8, addend: 0x0, symName: '__ZN4core3ptr76drop_in_place$LT$std..io..Write..write_fmt..Adapter$LT$std..fs..File$GT$$GT$17h6e601ac410c0b25aE.llvm.10049401140872274676', symObjAddr: 0x3E0, symBinAddr: 0x100037CB0, symSize: 0x15 }
  - { offsetInCU: 0xF31, offset: 0x1926D7, size: 0x8, addend: 0x0, symName: '__ZN4core3ptr171drop_in_place$LT$std..sync..mpmc..counter..Counter$LT$std..sync..mpmc..list..Channel$LT$core..result..Result$LT$jobserver..Acquired$C$std..io..error..Error$GT$$GT$$GT$$GT$17h39e0cf7371131af5E.llvm.11514031709156406873', symObjAddr: 0x2E0, symBinAddr: 0x100037CD0, symSize: 0x120 }
  - { offsetInCU: 0x1682, offset: 0x192E28, size: 0x8, addend: 0x0, symName: '__ZN4core3ptr196drop_in_place$LT$alloc..boxed..Box$LT$std..sync..mpmc..counter..Counter$LT$std..sync..mpmc..zero..Channel$LT$core..result..Result$LT$jobserver..Acquired$C$std..io..error..Error$GT$$GT$$GT$$GT$$GT$17h92fcd257a123cc6cE.llvm.11514031709156406873', symObjAddr: 0x400, symBinAddr: 0x100037DF0, symSize: 0xB0 }
  - { offsetInCU: 0x195C, offset: 0x193102, size: 0x8, addend: 0x0, symName: '__ZN4core3ptr197drop_in_place$LT$alloc..boxed..Box$LT$std..sync..mpmc..counter..Counter$LT$std..sync..mpmc..array..Channel$LT$core..result..Result$LT$jobserver..Acquired$C$std..io..error..Error$GT$$GT$$GT$$GT$$GT$17hb6729518e0180fd5E.llvm.11514031709156406873', symObjAddr: 0x4B0, symBinAddr: 0x100037EA0, symSize: 0x110 }
  - { offsetInCU: 0x1EBA, offset: 0x193660, size: 0x8, addend: 0x0, symName: '__ZN4core3ptr50drop_in_place$LT$std..sync..mpmc..waker..Waker$GT$17h347910537b5a60b8E.llvm.11514031709156406873', symObjAddr: 0x5C0, symBinAddr: 0x100037FB0, symSize: 0x1C0 }
  - { offsetInCU: 0x274A, offset: 0x193EF0, size: 0x8, addend: 0x0, symName: '__ZN4core3ptr73drop_in_place$LT$alloc..vec..Vec$LT$std..sync..mpmc..waker..Entry$GT$$GT$17h750ba848c524ab90E.llvm.11514031709156406873', symObjAddr: 0x780, symBinAddr: 0x100038170, symSize: 0xE1 }
  - { offsetInCU: 0x4C3, offset: 0x195E23, size: 0x8, addend: 0x0, symName: '__ZN52_$LT$std..path..Path$u20$as$u20$core..hash..Hash$GT$4hash17h4ac17cfd34128527E', symObjAddr: 0x3C0, symBinAddr: 0x100038540, symSize: 0x120 }
  - { offsetInCU: 0x981, offset: 0x1962E1, size: 0x8, addend: 0x0, symName: '__ZN81_$LT$std..collections..hash..map..DefaultHasher$u20$as$u20$core..hash..Hasher$GT$5write17ha4b8860a9beeb33eE.llvm.7859195924338916342', symObjAddr: 0x4E0, symBinAddr: 0x100038660, symSize: 0x1E0 }
  - { offsetInCU: 0x1E9F, offset: 0x1977FF, size: 0x8, addend: 0x0, symName: __ZN3std4path4Path14with_file_name17h937f7da8abb8cfcfE, symObjAddr: 0x20, symBinAddr: 0x100038260, symSize: 0x70 }
  - { offsetInCU: 0x20E2, offset: 0x197A42, size: 0x8, addend: 0x0, symName: __ZN3std4path4Path4join17h4e478d1fbb5b54edE, symObjAddr: 0xC0, symBinAddr: 0x1000382D0, symSize: 0x70 }
  - { offsetInCU: 0x249E, offset: 0x197DFE, size: 0x8, addend: 0x0, symName: '__ZN52_$LT$Q$u20$as$u20$hashbrown..Equivalent$LT$K$GT$$GT$10equivalent17h4656287aeb335077E', symObjAddr: 0x1C0, symBinAddr: 0x100038340, symSize: 0x200 }
  - { offsetInCU: 0x1E, offset: 0x198635, size: 0x8, addend: 0x0, symName: __ZN3std2io5Write9write_all17hc2db69a23b620e51E, symObjAddr: 0x0, symBinAddr: 0x100038840, symSize: 0xF0 }
  - { offsetInCU: 0x35, offset: 0x19864C, size: 0x8, addend: 0x0, symName: _anon.ae2164c5977e7eb418327cb8dcd0833a.6.llvm.7408753383401647291, symObjAddr: 0x328, symBinAddr: 0x1000B6608, symSize: 0x0 }
  - { offsetInCU: 0xE3, offset: 0x1986FA, size: 0x8, addend: 0x0, symName: __ZN3std2io5Write9write_all17hc2db69a23b620e51E, symObjAddr: 0x0, symBinAddr: 0x100038840, symSize: 0xF0 }
  - { offsetInCU: 0x35D, offset: 0x198974, size: 0x8, addend: 0x0, symName: __ZN3std2io5Write9write_fmt17hba2c50a258985e06E, symObjAddr: 0xF0, symBinAddr: 0x100038930, symSize: 0x90 }
  - { offsetInCU: 0x141B, offset: 0x199A32, size: 0x8, addend: 0x0, symName: '__ZN4core3ptr42drop_in_place$LT$std..io..error..Error$GT$17h02d38141fa47cc0cE.llvm.7408753383401647291', symObjAddr: 0x180, symBinAddr: 0x1000389C0, symSize: 0xA0 }
  - { offsetInCU: 0x187E, offset: 0x199E95, size: 0x8, addend: 0x0, symName: '__ZN4core3ptr92drop_in_place$LT$std..io..Write..write_fmt..Adapter$LT$std..sys..unix..stdio..Stderr$GT$$GT$17haa3c82c36dd816e5E.llvm.7408753383401647291', symObjAddr: 0x220, symBinAddr: 0x100038A60, symSize: 0x15 }
  - { offsetInCU: 0x1E, offset: 0x19A853, size: 0x8, addend: 0x0, symName: '__ZN3std4sync4mpmc15Sender$LT$T$GT$4send17h38ee04a699a801b1E', symObjAddr: 0x0, symBinAddr: 0x100038A80, symSize: 0x1E0 }
  - { offsetInCU: 0xC69, offset: 0x19B49E, size: 0x8, addend: 0x0, symName: '__ZN74_$LT$std..sync..mpmc..Sender$LT$T$GT$$u20$as$u20$core..ops..drop..Drop$GT$4drop17hcf557b9e3afa1365E', symObjAddr: 0x360, symBinAddr: 0x100038C60, symSize: 0x120 }
  - { offsetInCU: 0x12F6, offset: 0x19BB2B, size: 0x8, addend: 0x0, symName: '__ZN76_$LT$std..sync..mpmc..Receiver$LT$T$GT$$u20$as$u20$core..ops..drop..Drop$GT$4drop17h70b70d34a344f9c6E', symObjAddr: 0x480, symBinAddr: 0x100038D80, symSize: 0xD4 }
  - { offsetInCU: 0x324C, offset: 0x19DA81, size: 0x8, addend: 0x0, symName: '__ZN3std4sync4mpmc15Sender$LT$T$GT$4send17h38ee04a699a801b1E', symObjAddr: 0x0, symBinAddr: 0x100038A80, symSize: 0x1E0 }
  - { offsetInCU: 0x1E, offset: 0x19EF1D, size: 0x8, addend: 0x0, symName: '__ZN4core3ptr130drop_in_place$LT$core..result..Result$LT$$LP$$RP$$C$alloc..boxed..Box$LT$dyn$u20$core..any..Any$u2b$core..marker..Send$GT$$GT$$GT$17hff18ad87a7cfb94fE.llvm.10549059320802547873', symObjAddr: 0x0, symBinAddr: 0x100038E60, symSize: 0x70 }
  - { offsetInCU: 0x358, offset: 0x19F257, size: 0x8, addend: 0x0, symName: '__ZN70_$LT$std..thread..Packet$LT$T$GT$$u20$as$u20$core..ops..drop..Drop$GT$4drop17hdd298c652bfe43e7E', symObjAddr: 0x120, symBinAddr: 0x100038F80, symSize: 0x122 }
  - { offsetInCU: 0xD80, offset: 0x19FC7F, size: 0x8, addend: 0x0, symName: '__ZN4core3ptr130drop_in_place$LT$core..result..Result$LT$$LP$$RP$$C$alloc..boxed..Box$LT$dyn$u20$core..any..Any$u2b$core..marker..Send$GT$$GT$$GT$17hff18ad87a7cfb94fE.llvm.10549059320802547873', symObjAddr: 0x0, symBinAddr: 0x100038E60, symSize: 0x70 }
  - { offsetInCU: 0x1104, offset: 0x1A0003, size: 0x8, addend: 0x0, symName: '__ZN4core3ptr81drop_in_place$LT$core..result..Result$LT$$LP$$RP$$C$std..io..error..Error$GT$$GT$17ha7f1bf29d05648c5E.llvm.10549059320802547873', symObjAddr: 0x70, symBinAddr: 0x100038ED0, symSize: 0xB0 }
  - { offsetInCU: 0x11F, offset: 0x1A15EA, size: 0x8, addend: 0x0, symName: '__ZN85_$LT$std..sync..rwlock..RwLockReadGuard$LT$T$GT$$u20$as$u20$core..ops..drop..Drop$GT$4drop17h08fbcb0e71a02399E', symObjAddr: 0x110, symBinAddr: 0x1000390B0, symSize: 0x0 }
  - { offsetInCU: 0x38C, offset: 0x1A1857, size: 0x8, addend: 0x0, symName: '__ZN86_$LT$std..sync..rwlock..RwLockWriteGuard$LT$T$GT$$u20$as$u20$core..ops..drop..Drop$GT$4drop17h744dd850333783c7E', symObjAddr: 0x160, symBinAddr: 0x100039100, symSize: 0x0 }
  - { offsetInCU: 0x1E, offset: 0x1A2B79, size: 0x8, addend: 0x0, symName: __ZN4core4hash11BuildHasher8hash_one17h4e136aefb46df824E, symObjAddr: 0x0, symBinAddr: 0x100039170, symSize: 0x180 }
  - { offsetInCU: 0x305, offset: 0x1A2E60, size: 0x8, addend: 0x0, symName: '__ZN71_$LT$core..hash..sip..Hasher$LT$S$GT$$u20$as$u20$core..hash..Hasher$GT$5write17h933edf9387a07a14E', symObjAddr: 0x6F0, symBinAddr: 0x100039860, symSize: 0x1DC }
  - { offsetInCU: 0xB60, offset: 0x1A36BB, size: 0x8, addend: 0x0, symName: __ZN4core4hash11BuildHasher8hash_one17h4e136aefb46df824E, symObjAddr: 0x0, symBinAddr: 0x100039170, symSize: 0x180 }
  - { offsetInCU: 0x10C9, offset: 0x1A3C24, size: 0x8, addend: 0x0, symName: __ZN4core4hash11BuildHasher8hash_one17h5b705922b696868bE, symObjAddr: 0x180, symBinAddr: 0x1000392F0, symSize: 0x150 }
  - { offsetInCU: 0x139B, offset: 0x1A3EF6, size: 0x8, addend: 0x0, symName: __ZN4core4hash11BuildHasher8hash_one17h66814ab1bfec1907E, symObjAddr: 0x2D0, symBinAddr: 0x100039440, symSize: 0x160 }
  - { offsetInCU: 0x1769, offset: 0x1A42C4, size: 0x8, addend: 0x0, symName: __ZN4core4hash11BuildHasher8hash_one17ha4197c1dc7e1aeedE, symObjAddr: 0x430, symBinAddr: 0x1000395A0, symSize: 0x170 }
  - { offsetInCU: 0x1B81, offset: 0x1A46DC, size: 0x8, addend: 0x0, symName: __ZN4core4hash11BuildHasher8hash_one17hbee5e5a3e76c5e06E, symObjAddr: 0x5A0, symBinAddr: 0x100039710, symSize: 0x150 }
  - { offsetInCU: 0x1E, offset: 0x1A5665, size: 0x8, addend: 0x0, symName: __ZN3std9panicking11begin_panic17h804236136836a08eE, symObjAddr: 0x0, symBinAddr: 0x100093670, symSize: 0x20 }
  - { offsetInCU: 0x71, offset: 0x1A56B8, size: 0x8, addend: 0x0, symName: __ZN3std9panicking11begin_panic17h804236136836a08eE, symObjAddr: 0x0, symBinAddr: 0x100093670, symSize: 0x20 }
  - { offsetInCU: 0xCD, offset: 0x1A5714, size: 0x8, addend: 0x0, symName: '__ZN91_$LT$std..panicking..begin_panic..Payload$LT$A$GT$$u20$as$u20$core..panic..PanicPayload$GT$3get17h973531039cd09715E', symObjAddr: 0x120, symBinAddr: 0x100039A50, symSize: 0x20 }
  - { offsetInCU: 0x105, offset: 0x1A574C, size: 0x8, addend: 0x0, symName: '__ZN91_$LT$std..panicking..begin_panic..Payload$LT$A$GT$$u20$as$u20$core..panic..PanicPayload$GT$8take_box17hd08d5e98214482d8E', symObjAddr: 0x140, symBinAddr: 0x100039A70, symSize: 0x5F }
  - { offsetInCU: 0x641, offset: 0x1A5C88, size: 0x8, addend: 0x0, symName: '__ZN4core3ptr28drop_in_place$LT$$RF$str$GT$17hbed132c5579d96d0E', symObjAddr: 0x110, symBinAddr: 0x100039A40, symSize: 0x10 }
  - { offsetInCU: 0x1E, offset: 0x1A6257, size: 0x8, addend: 0x0, symName: '__ZN4core3ptr176drop_in_place$LT$$LT$alloc..vec..drain..Drain$LT$T$C$A$GT$$u20$as$u20$core..ops..drop..Drop$GT$..drop..DropGuard$LT$std..sync..mpmc..waker..Entry$C$alloc..alloc..Global$GT$$GT$17hd7ddb39541fa5f44E', symObjAddr: 0x0, symBinAddr: 0x100039AD0, symSize: 0x60 }
  - { offsetInCU: 0x458, offset: 0x1A6691, size: 0x8, addend: 0x0, symName: '__ZN4core3ptr176drop_in_place$LT$$LT$alloc..vec..drain..Drain$LT$T$C$A$GT$$u20$as$u20$core..ops..drop..Drop$GT$..drop..DropGuard$LT$std..sync..mpmc..waker..Entry$C$alloc..alloc..Global$GT$$GT$17hd7ddb39541fa5f44E', symObjAddr: 0x0, symBinAddr: 0x100039AD0, symSize: 0x60 }
  - { offsetInCU: 0x474, offset: 0x1A66AD, size: 0x8, addend: 0x0, symName: '__ZN4core3ptr176drop_in_place$LT$$LT$alloc..vec..drain..Drain$LT$T$C$A$GT$$u20$as$u20$core..ops..drop..Drop$GT$..drop..DropGuard$LT$std..sync..mpmc..waker..Entry$C$alloc..alloc..Global$GT$$GT$17hd7ddb39541fa5f44E', symObjAddr: 0x0, symBinAddr: 0x100039AD0, symSize: 0x60 }
  - { offsetInCU: 0x99E, offset: 0x1A6BD7, size: 0x8, addend: 0x0, symName: '__ZN79_$LT$alloc..vec..drain..Drain$LT$T$C$A$GT$$u20$as$u20$core..ops..drop..Drop$GT$4drop17h3012b49fcd8d310aE', symObjAddr: 0x60, symBinAddr: 0x100039B30, symSize: 0x150 }
  - { offsetInCU: 0x1E, offset: 0x1A7A16, size: 0x8, addend: 0x0, symName: __ZN4core5error5Error5cause17h422cf1043b324284E, symObjAddr: 0x0, symBinAddr: 0x100039C80, symSize: 0x10 }
  - { offsetInCU: 0x510, offset: 0x1A7F08, size: 0x8, addend: 0x0, symName: __ZN4core5error5Error5cause17h422cf1043b324284E, symObjAddr: 0x0, symBinAddr: 0x100039C80, symSize: 0x10 }
  - { offsetInCU: 0x544, offset: 0x1A7F3C, size: 0x8, addend: 0x0, symName: __ZN4core5error5Error7type_id17h48137fa4f92607f8E, symObjAddr: 0x10, symBinAddr: 0x100039C90, symSize: 0x20 }
  - { offsetInCU: 0x90A, offset: 0x1A8302, size: 0x8, addend: 0x0, symName: '__ZN71_$LT$core..hash..sip..Hasher$LT$S$GT$$u20$as$u20$core..hash..Hasher$GT$5write17h933edf9387a07a14E.llvm.8317656913606152330', symObjAddr: 0x2C0, symBinAddr: 0x100039EB0, symSize: 0x1DC }
  - { offsetInCU: 0x14A2, offset: 0x1A8E9A, size: 0x8, addend: 0x0, symName: '__ZN52_$LT$Q$u20$as$u20$hashbrown..Equivalent$LT$K$GT$$GT$10equivalent17h5d8d786629ad6441E', symObjAddr: 0x30, symBinAddr: 0x100039CB0, symSize: 0x200 }
  - { offsetInCU: 0x1E, offset: 0x1A957B, size: 0x8, addend: 0x0, symName: __ZN4core4iter6traits8iterator8Iterator5eq_by17h85d6b65fce406cc8E, symObjAddr: 0x0, symBinAddr: 0x10003A090, symSize: 0x258 }
  - { offsetInCU: 0x371, offset: 0x1A98CE, size: 0x8, addend: 0x0, symName: __ZN4core4iter6traits8iterator8Iterator5eq_by17h85d6b65fce406cc8E, symObjAddr: 0x0, symBinAddr: 0x10003A090, symSize: 0x258 }
  - { offsetInCU: 0x2FC, offset: 0x1AA9BC, size: 0x8, addend: 0x0, symName: '__ZN76_$LT$std..sync..poison..PoisonError$LT$T$GT$$u20$as$u20$core..fmt..Debug$GT$3fmt17h13f5a0802eb86cd9E', symObjAddr: 0x40, symBinAddr: 0x10003A2F0, symSize: 0x0 }
  - { offsetInCU: 0x1E, offset: 0x1AAE1E, size: 0x8, addend: 0x0, symName: __ZN4core3fmt5Write9write_fmt17h7f209dc84ab84a9cE, symObjAddr: 0x0, symBinAddr: 0x10003A320, symSize: 0x20 }
  - { offsetInCU: 0x9F, offset: 0x1AAE9F, size: 0x8, addend: 0x0, symName: '__ZN58_$LT$alloc..string..String$u20$as$u20$core..fmt..Write$GT$10write_char17hd329c0cb943f081aE', symObjAddr: 0xC0, symBinAddr: 0x10003A360, symSize: 0x130 }
  - { offsetInCU: 0x446, offset: 0x1AB246, size: 0x8, addend: 0x0, symName: '__ZN58_$LT$alloc..string..String$u20$as$u20$core..fmt..Write$GT$9write_str17h1ff5aa96ca91c6d5E', symObjAddr: 0x1F0, symBinAddr: 0x10003A490, symSize: 0x5B }
  - { offsetInCU: 0xA2E, offset: 0x1AB82E, size: 0x8, addend: 0x0, symName: '__ZN4core3ptr42drop_in_place$LT$alloc..string..String$GT$17h59f79daa9132c7bfE', symObjAddr: 0xA0, symBinAddr: 0x10003A340, symSize: 0x20 }
  - { offsetInCU: 0xCE4, offset: 0x1ABAE4, size: 0x8, addend: 0x0, symName: __ZN4core3fmt5Write9write_fmt17h7f209dc84ab84a9cE, symObjAddr: 0x0, symBinAddr: 0x10003A320, symSize: 0x20 }
  - { offsetInCU: 0xAD, offset: 0x1AC642, size: 0x8, addend: 0x0, symName: '__ZN85_$LT$std..sys_common..lazy_box..LazyBox$LT$T$GT$$u20$as$u20$core..ops..drop..Drop$GT$4drop17h72cda7af7626aabaE', symObjAddr: 0xA0, symBinAddr: 0x10003A4F0, symSize: 0x4F }
  - { offsetInCU: 0x3DC, offset: 0x1ACF63, size: 0x8, addend: 0x0, symName: '__ZN86_$LT$alloc..vec..into_iter..IntoIter$LT$T$C$A$GT$$u20$as$u20$core..ops..drop..Drop$GT$4drop17hc74a9cad5e078038E', symObjAddr: 0x140, symBinAddr: 0x10003A540, symSize: 0x94 }
  - { offsetInCU: 0x1E, offset: 0x1AD7AE, size: 0x8, addend: 0x0, symName: '__ZN73_$LT$cc..utilities..JoinOsStrs$LT$T$GT$$u20$as$u20$core..fmt..Display$GT$3fmt17h3b07d2307d3490d9E', symObjAddr: 0x0, symBinAddr: 0x10003A5E0, symSize: 0xF0 }
  - { offsetInCU: 0xB40, offset: 0x1AE2D0, size: 0x8, addend: 0x0, symName: '__ZN73_$LT$cc..utilities..JoinOsStrs$LT$T$GT$$u20$as$u20$core..fmt..Display$GT$3fmt17h3b07d2307d3490d9E', symObjAddr: 0x0, symBinAddr: 0x10003A5E0, symSize: 0xF0 }
  - { offsetInCU: 0xCCA, offset: 0x1AE45A, size: 0x8, addend: 0x0, symName: '__ZN81_$LT$cc..utilities..OptionOsStrDisplay$LT$T$GT$$u20$as$u20$core..fmt..Display$GT$3fmt17h778906f1afd5d089E', symObjAddr: 0xF0, symBinAddr: 0x10003A6D0, symSize: 0x83 }
  - { offsetInCU: 0x1E, offset: 0x1AE669, size: 0x8, addend: 0x0, symName: '__ZN4core3ptr49drop_in_place$LT$cc..windows..find_tools..Env$GT$17had5a60f0c9274a27E', symObjAddr: 0x0, symBinAddr: 0x10003A760, symSize: 0x40 }
  - { offsetInCU: 0x1F4, offset: 0x1AE83F, size: 0x8, addend: 0x0, symName: '__ZN4core3ptr49drop_in_place$LT$cc..windows..find_tools..Env$GT$17had5a60f0c9274a27E', symObjAddr: 0x0, symBinAddr: 0x10003A760, symSize: 0x40 }
  - { offsetInCU: 0x52F, offset: 0x1AEB7A, size: 0x8, addend: 0x0, symName: '__ZN4core3ptr63drop_in_place$LT$core..option..Option$LT$cc..tool..Tool$GT$$GT$17ha9d3230d2f428f8dE', symObjAddr: 0x40, symBinAddr: 0x10003A7A0, symSize: 0x1F0 }
  - { offsetInCU: 0x1395, offset: 0x1AF9E0, size: 0x8, addend: 0x0, symName: '__ZN4core3ptr77drop_in_place$LT$core..option..Option$LT$cc..windows..find_tools..Env$GT$$GT$17hc13a8a678b636925E', symObjAddr: 0x230, symBinAddr: 0x10003A990, symSize: 0x40 }
  - { offsetInCU: 0x23AC, offset: 0x1B09F7, size: 0x8, addend: 0x0, symName: __ZN2cc7windows10find_tools5impl_21find_msvc_environment17h5f1f050a85d298bbE, symObjAddr: 0x270, symBinAddr: 0x10003A9D0, symSize: 0x5F7 }
  - { offsetInCU: 0x1E, offset: 0x1B21C1, size: 0x8, addend: 0x0, symName: '__ZN223_$LT$$LT$alloc..boxed..Box$LT$dyn$u20$core..error..Error$u2b$core..marker..Send$u2b$core..marker..Sync$GT$$u20$as$u20$core..convert..From$LT$alloc..string..String$GT$$GT$..from..StringError$u20$as$u20$core..error..Error$GT$11description17h72eeffc27add5e21E', symObjAddr: 0x0, symBinAddr: 0x10003AFD0, symSize: 0x10 }
  - { offsetInCU: 0x72, offset: 0x1B2215, size: 0x8, addend: 0x0, symName: '__ZN223_$LT$$LT$alloc..boxed..Box$LT$dyn$u20$core..error..Error$u2b$core..marker..Send$u2b$core..marker..Sync$GT$$u20$as$u20$core..convert..From$LT$alloc..string..String$GT$$GT$..from..StringError$u20$as$u20$core..error..Error$GT$11description17h72eeffc27add5e21E', symObjAddr: 0x0, symBinAddr: 0x10003AFD0, symSize: 0x10 }
  - { offsetInCU: 0x7A8, offset: 0x1B294B, size: 0x8, addend: 0x0, symName: '__ZN4core3ptr205drop_in_place$LT$$LT$alloc..boxed..Box$LT$dyn$u20$core..error..Error$u2b$core..marker..Send$u2b$core..marker..Sync$GT$$u20$as$u20$core..convert..From$LT$alloc..string..String$GT$$GT$..from..StringError$GT$17h1f6a7914b600c929E', symObjAddr: 0xA0, symBinAddr: 0x10003B070, symSize: 0x20 }
  - { offsetInCU: 0xAD0, offset: 0x1B2C73, size: 0x8, addend: 0x0, symName: __ZN4core5error5Error6source17h5923845b0a1d6db5E, symObjAddr: 0xC0, symBinAddr: 0x10003B090, symSize: 0x10 }
  - { offsetInCU: 0xB02, offset: 0x1B2CA5, size: 0x8, addend: 0x0, symName: __ZN4core5error5Error7provide17had23fef2a0aa31fbE, symObjAddr: 0xD0, symBinAddr: 0x10003B0A0, symSize: 0x6 }
  - { offsetInCU: 0xFE3, offset: 0x1B3186, size: 0x8, addend: 0x0, symName: __ZN3std2io5error5Error3new17h4302e5036d2db15eE, symObjAddr: 0x10, symBinAddr: 0x10003AFE0, symSize: 0x90 }
  - { offsetInCU: 0x1E, offset: 0x1B35CE, size: 0x8, addend: 0x0, symName: '__ZN42_$LT$$RF$T$u20$as$u20$core..fmt..Debug$GT$3fmt17h5c6fcfd9da54b6c2E', symObjAddr: 0x0, symBinAddr: 0x10003B0B0, symSize: 0x10 }
  - { offsetInCU: 0x64, offset: 0x1B3614, size: 0x8, addend: 0x0, symName: '__ZN42_$LT$$RF$T$u20$as$u20$core..fmt..Debug$GT$3fmt17h5c6fcfd9da54b6c2E', symObjAddr: 0x0, symBinAddr: 0x10003B0B0, symSize: 0x10 }
  - { offsetInCU: 0x1E, offset: 0x1B39A5, size: 0x8, addend: 0x0, symName: '__ZN99_$LT$alloc..collections..btree..map..BTreeMap$LT$K$C$V$C$A$GT$$u20$as$u20$core..ops..drop..Drop$GT$4drop17h01485e17b6dbff47E', symObjAddr: 0x0, symBinAddr: 0x10003B0C0, symSize: 0x3A8 }
  - { offsetInCU: 0xA28, offset: 0x1B43AF, size: 0x8, addend: 0x0, symName: '__ZN99_$LT$alloc..collections..btree..map..BTreeMap$LT$K$C$V$C$A$GT$$u20$as$u20$core..ops..drop..Drop$GT$4drop17h01485e17b6dbff47E', symObjAddr: 0x0, symBinAddr: 0x10003B0C0, symSize: 0x3A8 }
  - { offsetInCU: 0x1E, offset: 0x1B6610, size: 0x8, addend: 0x0, symName: '__ZN3std4sync4once4Once9call_once28_$u7b$$u7b$closure$u7d$$u7d$17h48d17a4ef7775f02E.llvm.12900046169015327523', symObjAddr: 0x0, symBinAddr: 0x10003B470, symSize: 0x70 }
  - { offsetInCU: 0x35, offset: 0x1B6627, size: 0x8, addend: 0x0, symName: _anon.b0682f4e21342ce2e02715c3c3abb249.0.llvm.12900046169015327523, symObjAddr: 0x140, symBinAddr: 0x1000B6790, symSize: 0x0 }
  - { offsetInCU: 0xC8, offset: 0x1B66BA, size: 0x8, addend: 0x0, symName: '__ZN3std4sync4once4Once9call_once28_$u7b$$u7b$closure$u7d$$u7d$17h48d17a4ef7775f02E.llvm.12900046169015327523', symObjAddr: 0x0, symBinAddr: 0x10003B470, symSize: 0x70 }
  - { offsetInCU: 0x9D1, offset: 0x1B6FC3, size: 0x8, addend: 0x0, symName: '__ZN4core3ptr293drop_in_place$LT$std..sync..once..Once..call_once$LT$cc..parallel..once_lock..OnceLock$LT$cc..parallel..job_token..JobTokenServer$GT$..get_or_init$LT$cc..parallel..job_token..JobTokenServer..new..$u7b$$u7b$closure$u7d$$u7d$$GT$..$u7b$$u7b$closure$u7d$$u7d$$GT$..$u7b$$u7b$closure$u7d$$u7d$$GT$17hac8b155e2d06bb3fE.llvm.12900046169015327523', symObjAddr: 0xE0, symBinAddr: 0x10003B550, symSize: 0x10 }
  - { offsetInCU: 0xB2D, offset: 0x1B711F, size: 0x8, addend: 0x0, symName: '__ZN4core3ops8function6FnOnce40call_once$u7b$$u7b$vtable.shim$u7d$$u7d$17h81ab1ed832a0b365E.llvm.12900046169015327523', symObjAddr: 0x70, symBinAddr: 0x10003B4E0, symSize: 0x70 }
  - { offsetInCU: 0x1E, offset: 0x1B7A0F, size: 0x8, addend: 0x0, symName: '__ZN75_$LT$cc..parallel..job_token..JobToken$u20$as$u20$core..ops..drop..Drop$GT$4drop17hfc873ad3d25fcfabE', symObjAddr: 0x0, symBinAddr: 0x10003B560, symSize: 0x80 }
  - { offsetInCU: 0x51, offset: 0x1B7A42, size: 0x8, addend: 0x0, symName: __ZN2cc8parallel9job_token14JobTokenServer3new9JOBSERVER17h8cbde7f0030e98b0E.llvm.17642499288065060686, symObjAddr: 0x86C0, symBinAddr: 0x1000BC1F8, symSize: 0x0 }
  - { offsetInCU: 0x121, offset: 0x1B7B12, size: 0x8, addend: 0x0, symName: '__ZN75_$LT$cc..parallel..job_token..JobToken$u20$as$u20$core..ops..drop..Drop$GT$4drop17hfc873ad3d25fcfabE', symObjAddr: 0x0, symBinAddr: 0x10003B560, symSize: 0x80 }
  - { offsetInCU: 0x1E, offset: 0x1B86F7, size: 0x8, addend: 0x0, symName: '__ZN66_$LT$alloc..borrow..Cow$LT$B$GT$$u20$as$u20$core..fmt..Display$GT$3fmt17h54c81a580c3d61a5E', symObjAddr: 0x0, symBinAddr: 0x10003B5E0, symSize: 0x20 }
  - { offsetInCU: 0x219, offset: 0x1B88F2, size: 0x8, addend: 0x0, symName: '__ZN66_$LT$alloc..borrow..Cow$LT$B$GT$$u20$as$u20$core..fmt..Display$GT$3fmt17h54c81a580c3d61a5E', symObjAddr: 0x0, symBinAddr: 0x10003B5E0, symSize: 0x20 }
  - { offsetInCU: 0x44, offset: 0x1B8B46, size: 0x8, addend: 0x0, symName: __ZN3std3sys4unix2os11split_paths12is_separator17h1951445fff7f8abaE.llvm.14908922190436476178, symObjAddr: 0xF0, symBinAddr: 0x10003B600, symSize: 0xC }
  - { offsetInCU: 0x3D5, offset: 0x1B8F74, size: 0x8, addend: 0x0, symName: __ZN2cc8parallel9job_token19inprocess_jobserver9JobServer3new17h5d2244a54c4a0a83E, symObjAddr: 0x50, symBinAddr: 0x10003B610, symSize: 0xB0 }
  - { offsetInCU: 0x1E, offset: 0x1B9681, size: 0x8, addend: 0x0, symName: '__ZN82_$LT$core..array..iter..IntoIter$LT$T$C$_$GT$$u20$as$u20$core..ops..drop..Drop$GT$4drop17h578cddb1c4864c29E', symObjAddr: 0x0, symBinAddr: 0x10003B6C0, symSize: 0x51 }
  - { offsetInCU: 0x10F, offset: 0x1B9772, size: 0x8, addend: 0x0, symName: '__ZN82_$LT$core..array..iter..IntoIter$LT$T$C$_$GT$$u20$as$u20$core..ops..drop..Drop$GT$4drop17h578cddb1c4864c29E', symObjAddr: 0x0, symBinAddr: 0x10003B6C0, symSize: 0x51 }
  - { offsetInCU: 0x1E, offset: 0x1B9E4A, size: 0x8, addend: 0x0, symName: '__ZN42_$LT$$RF$T$u20$as$u20$core..fmt..Debug$GT$3fmt17ha603d4e7aef3989bE', symObjAddr: 0x0, symBinAddr: 0x10003B720, symSize: 0x10 }
  - { offsetInCU: 0xFB, offset: 0x1B9F27, size: 0x8, addend: 0x0, symName: '__ZN42_$LT$$RF$T$u20$as$u20$core..fmt..Debug$GT$3fmt17ha603d4e7aef3989bE', symObjAddr: 0x0, symBinAddr: 0x10003B720, symSize: 0x10 }
  - { offsetInCU: 0x165, offset: 0x1B9F91, size: 0x8, addend: 0x0, symName: '__ZN42_$LT$$RF$T$u20$as$u20$core..fmt..Debug$GT$3fmt17hb8c894779b5b69e7E', symObjAddr: 0x10, symBinAddr: 0x10003B730, symSize: 0x20 }
  - { offsetInCU: 0x1CC, offset: 0x1B9FF8, size: 0x8, addend: 0x0, symName: '__ZN42_$LT$$RF$T$u20$as$u20$core..fmt..Debug$GT$3fmt17heef1144aad6d9369E', symObjAddr: 0x30, symBinAddr: 0x10003B750, symSize: 0x30 }
  - { offsetInCU: 0x2FC, offset: 0x1BA128, size: 0x8, addend: 0x0, symName: '__ZN44_$LT$$RF$T$u20$as$u20$core..fmt..Display$GT$3fmt17h0cf63ce126bc0759E', symObjAddr: 0x60, symBinAddr: 0x10003B780, symSize: 0x20 }
  - { offsetInCU: 0x36A, offset: 0x1BA196, size: 0x8, addend: 0x0, symName: '__ZN44_$LT$$RF$T$u20$as$u20$core..fmt..Display$GT$3fmt17h63978621ca36e07dE', symObjAddr: 0x80, symBinAddr: 0x10003B7A0, symSize: 0x20 }
  - { offsetInCU: 0x390, offset: 0x1BA1BC, size: 0x8, addend: 0x0, symName: '__ZN44_$LT$$RF$T$u20$as$u20$core..fmt..Display$GT$3fmt17hb250c7be9d1a6de9E', symObjAddr: 0xA0, symBinAddr: 0x10003B7C0, symSize: 0x15 }
  - { offsetInCU: 0x1E, offset: 0x1BA488, size: 0x8, addend: 0x0, symName: '__ZN42_$LT$$RF$T$u20$as$u20$core..fmt..Debug$GT$3fmt17h33ce2ff3116a2174E', symObjAddr: 0x0, symBinAddr: 0x10003B7E0, symSize: 0x2F }
  - { offsetInCU: 0x118, offset: 0x1BA582, size: 0x8, addend: 0x0, symName: '__ZN42_$LT$$RF$T$u20$as$u20$core..fmt..Debug$GT$3fmt17h33ce2ff3116a2174E', symObjAddr: 0x0, symBinAddr: 0x10003B7E0, symSize: 0x2F }
  - { offsetInCU: 0x1E, offset: 0x1BA78F, size: 0x8, addend: 0x0, symName: '__ZN4core3ptr28drop_in_place$LT$$RF$i32$GT$17hc01699e7f9d91abdE', symObjAddr: 0x0, symBinAddr: 0x10003B810, symSize: 0x10 }
  - { offsetInCU: 0x193, offset: 0x1BA904, size: 0x8, addend: 0x0, symName: __ZN4core9panicking13assert_failed17h041f1e52b843469cE, symObjAddr: 0x10, symBinAddr: 0x100093690, symSize: 0x2E }
  - { offsetInCU: 0x392, offset: 0x1BAB03, size: 0x8, addend: 0x0, symName: '__ZN4core3ptr28drop_in_place$LT$$RF$i32$GT$17hc01699e7f9d91abdE', symObjAddr: 0x0, symBinAddr: 0x10003B810, symSize: 0x10 }
  - { offsetInCU: 0x1E, offset: 0x1BAD1B, size: 0x8, addend: 0x0, symName: __ZN3std10sys_common9backtrace26__rust_end_short_backtrace17ha5bd92633833e920E, symObjAddr: 0x0, symBinAddr: 0x10003B820, symSize: 0x10 }
  - { offsetInCU: 0x83, offset: 0x1BAD80, size: 0x8, addend: 0x0, symName: '__ZN3std9panicking11begin_panic28_$u7b$$u7b$closure$u7d$$u7d$17h2de1e8a6e819deb1E', symObjAddr: 0x10, symBinAddr: 0x10003B830, symSize: 0x40 }
  - { offsetInCU: 0x121, offset: 0x1BAE1E, size: 0x8, addend: 0x0, symName: __ZN3std10sys_common9backtrace26__rust_end_short_backtrace17ha5bd92633833e920E, symObjAddr: 0x0, symBinAddr: 0x10003B820, symSize: 0x10 }
  - { offsetInCU: 0x1FB, offset: 0x1BAEF8, size: 0x8, addend: 0x0, symName: '__ZN4core3ptr72drop_in_place$LT$std..panicking..begin_panic..Payload$LT$$RF$str$GT$$GT$17hbf0e0aa232e75d20E', symObjAddr: 0x50, symBinAddr: 0x10003B870, symSize: 0x6 }
  - { offsetInCU: 0x1E, offset: 0x1BAFC6, size: 0x8, addend: 0x0, symName: '__ZN36_$LT$T$u20$as$u20$core..any..Any$GT$7type_id17h735184607c9959a2E', symObjAddr: 0x0, symBinAddr: 0x10003B880, symSize: 0x1A }
  - { offsetInCU: 0x3A, offset: 0x1BAFE2, size: 0x8, addend: 0x0, symName: '__ZN36_$LT$T$u20$as$u20$core..any..Any$GT$7type_id17h735184607c9959a2E', symObjAddr: 0x0, symBinAddr: 0x10003B880, symSize: 0x1A }
  - { offsetInCU: 0x1E, offset: 0x1BB093, size: 0x8, addend: 0x0, symName: __ZN3std2io5error5Error4kind17hc9fcce601089e16fE.llvm.12040432752783394689, symObjAddr: 0x0, symBinAddr: 0x10003B8A0, symSize: 0x1C0 }
  - { offsetInCU: 0x72, offset: 0x1BB0E7, size: 0x8, addend: 0x0, symName: '__ZN3std4sync4once4Once9call_once28_$u7b$$u7b$closure$u7d$$u7d$17hafe46480470d1f10E', symObjAddr: 0x1C0, symBinAddr: 0x10003BA60, symSize: 0xA0 }
  - { offsetInCU: 0x2437, offset: 0x1BD4AC, size: 0x8, addend: 0x0, symName: '__ZN4core3ptr147drop_in_place$LT$std..sync..once..Once..call_once$LT$jobserver..imp..spawn_helper..$u7b$$u7b$closure$u7d$$u7d$$GT$..$u7b$$u7b$closure$u7d$$u7d$$GT$17hcf9754dbfd7e5153E', symObjAddr: 0x300, symBinAddr: 0x10003BBA0, symSize: 0x10 }
  - { offsetInCU: 0x252C, offset: 0x1BD5A1, size: 0x8, addend: 0x0, symName: '__ZN4core3ptr227drop_in_place$LT$alloc..boxed..Box$LT$dyn$u20$core..ops..function..FnMut$LT$$LP$core..result..Result$LT$jobserver..Acquired$C$std..io..error..Error$GT$$C$$RP$$GT$$u2b$Output$u20$$u3d$$u20$$LP$$RP$$u2b$core..marker..Send$GT$$GT$17hbad378cc0e25a533E', symObjAddr: 0x310, symBinAddr: 0x10003BBB0, symSize: 0x60 }
  - { offsetInCU: 0x27C2, offset: 0x1BD837, size: 0x8, addend: 0x0, symName: '__ZN4core3ptr42drop_in_place$LT$std..io..error..Error$GT$17hb23f0e2f76b01d09E.llvm.12040432752783394689', symObjAddr: 0x370, symBinAddr: 0x10003BC10, symSize: 0xA0 }
  - { offsetInCU: 0x2D5B, offset: 0x1BDDD0, size: 0x8, addend: 0x0, symName: '__ZN4core3ptr60drop_in_place$LT$std..thread..JoinHandle$LT$$LP$$RP$$GT$$GT$17h740e0773b5ce4adcE', symObjAddr: 0x490, symBinAddr: 0x10003BCB0, symSize: 0x80 }
  - { offsetInCU: 0x31BD, offset: 0x1BE232, size: 0x8, addend: 0x0, symName: '__ZN4core3ptr79drop_in_place$LT$std..sync..mutex..MutexGuard$LT$jobserver..HelperInner$GT$$GT$17h50feb83de9bdb063E', symObjAddr: 0x510, symBinAddr: 0x10003BD30, symSize: 0x70 }
  - { offsetInCU: 0x34EE, offset: 0x1BE563, size: 0x8, addend: 0x0, symName: '__ZN4core3ptr95drop_in_place$LT$core..result..Result$LT$$LP$$RP$$C$jobserver..error..FromEnvErrorInner$GT$$GT$17h55d1f6176bc4a451E', symObjAddr: 0x580, symBinAddr: 0x10003BDA0, symSize: 0xB0 }
  - { offsetInCU: 0x4740, offset: 0x1BF7B5, size: 0x8, addend: 0x0, symName: '__ZN4core3ops8function6FnOnce40call_once$u7b$$u7b$vtable.shim$u7d$$u7d$17h4be1314b39653c23E', symObjAddr: 0x260, symBinAddr: 0x10003BB00, symSize: 0xA0 }
  - { offsetInCU: 0x5D70, offset: 0x1C0DE5, size: 0x8, addend: 0x0, symName: '__ZN91_$LT$core..str..iter..SplitN$LT$P$GT$$u20$as$u20$core..iter..traits..iterator..Iterator$GT$4next17h87089c3b6cdb78c0E', symObjAddr: 0x630, symBinAddr: 0x10003BE50, symSize: 0x280 }
  - { offsetInCU: 0x694A, offset: 0x1C19BF, size: 0x8, addend: 0x0, symName: __ZN9jobserver3imp12spawn_helper9USR1_INIT17h324fb826fcf8ee72E, symObjAddr: 0x36B40, symBinAddr: 0x1000BC2B8, symSize: 0x0 }
  - { offsetInCU: 0x6D64, offset: 0x1C1DD9, size: 0x8, addend: 0x0, symName: __ZN9jobserver3imp12spawn_helper17hd86809e34371d1d0E, symObjAddr: 0x1A90, symBinAddr: 0x10003CD80, symSize: 0x240 }
  - { offsetInCU: 0x7692, offset: 0x1C2707, size: 0x8, addend: 0x0, symName: __ZN9jobserver3imp8fd_check17hfe8bcdcae672ad07E, symObjAddr: 0x1F80, symBinAddr: 0x10003D270, symSize: 0x130 }
  - { offsetInCU: 0x79A2, offset: 0x1C2A17, size: 0x8, addend: 0x0, symName: __ZN9jobserver3imp24clone_fd_and_set_cloexec17he3675f4b66abbea0E, symObjAddr: 0x20B0, symBinAddr: 0x10003D3A0, symSize: 0x70 }
  - { offsetInCU: 0x7A47, offset: 0x1C2ABC, size: 0x8, addend: 0x0, symName: __ZN9jobserver3imp15sigusr1_handler17hfde9f0a7667c6e57E, symObjAddr: 0x2180, symBinAddr: 0x10003D410, symSize: 0x6 }
  - { offsetInCU: 0x7D40, offset: 0x1C2DB5, size: 0x8, addend: 0x0, symName: __ZN3std2io5error5Error4kind17hc9fcce601089e16fE.llvm.12040432752783394689, symObjAddr: 0x0, symBinAddr: 0x10003B8A0, symSize: 0x1C0 }
  - { offsetInCU: 0x9A17, offset: 0x1C4A8C, size: 0x8, addend: 0x0, symName: __ZN9jobserver3imp6Client4open17h83b6851a75993afeE, symObjAddr: 0xB30, symBinAddr: 0x10003C0D0, symSize: 0xA20 }
  - { offsetInCU: 0xAE25, offset: 0x1C5E9A, size: 0x8, addend: 0x0, symName: __ZN9jobserver3imp6Client24acquire_allow_interrupts17h65aeb277bb46081eE, symObjAddr: 0x15B0, symBinAddr: 0x10003CAF0, symSize: 0x150 }
  - { offsetInCU: 0xB08E, offset: 0x1C6103, size: 0x8, addend: 0x0, symName: __ZN9jobserver3imp6Client11try_acquire17h36bf7feb0a105fddE, symObjAddr: 0x1700, symBinAddr: 0x10003CC40, symSize: 0x140 }
  - { offsetInCU: 0xB7E8, offset: 0x1C685D, size: 0x8, addend: 0x0, symName: __ZN9jobserver3imp6Helper4join17h259b29bd80867454E, symObjAddr: 0x1CD0, symBinAddr: 0x10003CFC0, symSize: 0x2B0 }
  - { offsetInCU: 0x1E, offset: 0x1C8CDD, size: 0x8, addend: 0x0, symName: '__ZN4core3ptr42drop_in_place$LT$std..io..error..Error$GT$17hb23f0e2f76b01d09E', symObjAddr: 0x0, symBinAddr: 0x10003D420, symSize: 0xA0 }
  - { offsetInCU: 0xB00, offset: 0x1C97BF, size: 0x8, addend: 0x0, symName: '__ZN4core3ptr42drop_in_place$LT$std..io..error..Error$GT$17hb23f0e2f76b01d09E', symObjAddr: 0x0, symBinAddr: 0x10003D420, symSize: 0xA0 }
  - { offsetInCU: 0x103C, offset: 0x1C9CFB, size: 0x8, addend: 0x0, symName: '__ZN4core3ptr72drop_in_place$LT$alloc..sync..ArcInner$LT$jobserver..imp..Client$GT$$GT$17h1fe20218a99cf87dE', symObjAddr: 0xA0, symBinAddr: 0x10003D4C0, symSize: 0x80 }
  - { offsetInCU: 0x134E, offset: 0x1CA00D, size: 0x8, addend: 0x0, symName: '__ZN4core3ptr79drop_in_place$LT$std..sync..mutex..MutexGuard$LT$jobserver..HelperInner$GT$$GT$17h50feb83de9bdb063E', symObjAddr: 0x120, symBinAddr: 0x10003D540, symSize: 0x70 }
  - { offsetInCU: 0x558F, offset: 0x1CE24E, size: 0x8, addend: 0x0, symName: '__ZN61_$LT$jobserver..Acquired$u20$as$u20$core..ops..drop..Drop$GT$4drop17he4f40d03cbae4414E', symObjAddr: 0x13E0, symBinAddr: 0x10003E1C0, symSize: 0x80 }
  - { offsetInCU: 0x57E3, offset: 0x1CE4A2, size: 0x8, addend: 0x0, symName: '__ZN65_$LT$jobserver..HelperThread$u20$as$u20$core..ops..drop..Drop$GT$4drop17hc54d186789d7c6e3E', symObjAddr: 0x1540, symBinAddr: 0x10003E320, symSize: 0x160 }
  - { offsetInCU: 0x63A3, offset: 0x1CF062, size: 0x8, addend: 0x0, symName: __ZN9jobserver8Acquired22drop_without_releasing17h0ce5f6f43bc32656E, symObjAddr: 0x1B0, symBinAddr: 0x10003D5B0, symSize: 0x20 }
  - { offsetInCU: 0x6A3E, offset: 0x1CF6FD, size: 0x8, addend: 0x0, symName: __ZN9jobserver6Client12from_env_ext17h1299a72e43fae81eE, symObjAddr: 0x2C0, symBinAddr: 0x10003D5D0, symSize: 0xA20 }
  - { offsetInCU: 0x7C1A, offset: 0x1D08D9, size: 0x8, addend: 0x0, symName: __ZN9jobserver6Client8from_env17h47da2cbabc52f98dE, symObjAddr: 0xCE0, symBinAddr: 0x10003DFF0, symSize: 0x100 }
  - { offsetInCU: 0x8209, offset: 0x1D0EC8, size: 0x8, addend: 0x0, symName: __ZN9jobserver6Client11try_acquire17h4ec582e530c401c5E, symObjAddr: 0xE50, symBinAddr: 0x10003E0F0, symSize: 0x60 }
  - { offsetInCU: 0x8414, offset: 0x1D10D3, size: 0x8, addend: 0x0, symName: __ZN9jobserver6Client11release_raw17hcab51280b2665549E, symObjAddr: 0x1370, symBinAddr: 0x10003E150, symSize: 0x70 }
  - { offsetInCU: 0x86BE, offset: 0x1D137D, size: 0x8, addend: 0x0, symName: __ZN9jobserver12HelperThread13request_token17h192e78801fcadedcE, symObjAddr: 0x1460, symBinAddr: 0x10003E240, symSize: 0xE0 }
  - { offsetInCU: 0x8E1F, offset: 0x1D1ADE, size: 0x8, addend: 0x0, symName: __ZN9jobserver11HelperState16for_each_request17h804d43176bab6127E, symObjAddr: 0x1700, symBinAddr: 0x10003E480, symSize: 0x3D1 }
  - { offsetInCU: 0x1E, offset: 0x1D4F46, size: 0x8, addend: 0x0, symName: '__ZN3std6thread18JoinInner$LT$T$GT$4join17h1597844d42b326d5E', symObjAddr: 0x0, symBinAddr: 0x10003E860, symSize: 0x100 }
  - { offsetInCU: 0x354, offset: 0x1D527C, size: 0x8, addend: 0x0, symName: '__ZN70_$LT$std..thread..Packet$LT$T$GT$$u20$as$u20$core..ops..drop..Drop$GT$4drop17h4994f72270681115E', symObjAddr: 0xC30, symBinAddr: 0x10003F490, symSize: 0x122 }
  - { offsetInCU: 0x1F25, offset: 0x1D6E4D, size: 0x8, addend: 0x0, symName: '__ZN4core3ptr130drop_in_place$LT$core..result..Result$LT$$LP$$RP$$C$alloc..boxed..Box$LT$dyn$u20$core..any..Any$u2b$core..marker..Send$GT$$GT$$GT$17h5edab4cb3f889289E.llvm.16616884698633565204', symObjAddr: 0x8C0, symBinAddr: 0x10003F120, symSize: 0x70 }
  - { offsetInCU: 0x212E, offset: 0x1D7056, size: 0x8, addend: 0x0, symName: '__ZN4core3ptr164drop_in_place$LT$std..thread..Builder..spawn_unchecked_$LT$jobserver..imp..spawn_helper..$u7b$$u7b$closure$u7d$$u7d$$C$$LP$$RP$$GT$..$u7b$$u7b$closure$u7d$$u7d$$GT$17h289cd407531ff189E', symObjAddr: 0x930, symBinAddr: 0x10003F190, symSize: 0xB0 }
  - { offsetInCU: 0x265A, offset: 0x1D7582, size: 0x8, addend: 0x0, symName: '__ZN4core3ptr227drop_in_place$LT$alloc..boxed..Box$LT$dyn$u20$core..ops..function..FnMut$LT$$LP$core..result..Result$LT$jobserver..Acquired$C$std..io..error..Error$GT$$C$$RP$$GT$$u2b$Output$u20$$u3d$$u20$$LP$$RP$$u2b$core..marker..Send$GT$$GT$17hbad378cc0e25a533E', symObjAddr: 0x9E0, symBinAddr: 0x10003F240, symSize: 0x60 }
  - { offsetInCU: 0x2855, offset: 0x1D777D, size: 0x8, addend: 0x0, symName: '__ZN4core3ptr26drop_in_place$LT$usize$GT$17h9d9d4ba0342dacc9E', symObjAddr: 0xA40, symBinAddr: 0x10003F2A0, symSize: 0x10 }
  - { offsetInCU: 0x2881, offset: 0x1D77A9, size: 0x8, addend: 0x0, symName: '__ZN4core3ptr48drop_in_place$LT$alloc..ffi..c_str..NulError$GT$17hb7fb65a65b9c31b4E', symObjAddr: 0xA50, symBinAddr: 0x10003F2B0, symSize: 0x20 }
  - { offsetInCU: 0x29E7, offset: 0x1D790F, size: 0x8, addend: 0x0, symName: '__ZN4core3ptr78drop_in_place$LT$jobserver..imp..spawn_helper..$u7b$$u7b$closure$u7d$$u7d$$GT$17h3e65510646983faeE', symObjAddr: 0xA70, symBinAddr: 0x10003F2D0, symSize: 0xC0 }
  - { offsetInCU: 0x2FFB, offset: 0x1D7F23, size: 0x8, addend: 0x0, symName: '__ZN4core3ptr81drop_in_place$LT$core..result..Result$LT$$LP$$RP$$C$std..io..error..Error$GT$$GT$17hc10226141cf57ca3E.llvm.16616884698633565204', symObjAddr: 0xB30, symBinAddr: 0x10003F390, symSize: 0xB0 }
  - { offsetInCU: 0x3D21, offset: 0x1D8C49, size: 0x8, addend: 0x0, symName: '__ZN4core3fmt3num52_$LT$impl$u20$core..fmt..Debug$u20$for$u20$usize$GT$3fmt17h05928cb6857c498fE', symObjAddr: 0x690, symBinAddr: 0x10003EEF0, symSize: 0x30 }
  - { offsetInCU: 0x3E55, offset: 0x1D8D7D, size: 0x8, addend: 0x0, symName: '__ZN4core3ops8function6FnOnce40call_once$u7b$$u7b$vtable.shim$u7d$$u7d$17hd68b5f6025341a0eE', symObjAddr: 0x6C0, symBinAddr: 0x10003EF20, symSize: 0x200 }
  - { offsetInCU: 0x4E0C, offset: 0x1D9D34, size: 0x8, addend: 0x0, symName: '__ZN64_$LT$alloc..ffi..c_str..NulError$u20$as$u20$core..fmt..Debug$GT$3fmt17h27eb6f0aef87a2a7E', symObjAddr: 0xBE0, symBinAddr: 0x10003F440, symSize: 0x50 }
  - { offsetInCU: 0x5720, offset: 0x1DA648, size: 0x8, addend: 0x0, symName: '__ZN3std6thread18JoinInner$LT$T$GT$4join17h1597844d42b326d5E', symObjAddr: 0x0, symBinAddr: 0x10003E860, symSize: 0x100 }
  - { offsetInCU: 0x64F5, offset: 0x1DB41D, size: 0x8, addend: 0x0, symName: __ZN3std6thread7Builder15spawn_unchecked17ha81b5db56bb1eccbE, symObjAddr: 0x100, symBinAddr: 0x10003E960, symSize: 0x590 }
  - { offsetInCU: 0x1E, offset: 0x1DDBC8, size: 0x8, addend: 0x0, symName: '__ZN5alloc4sync16Arc$LT$T$C$A$GT$9drop_slow17h7ef00eac72cf0407E', symObjAddr: 0x0, symBinAddr: 0x10003F5C0, symSize: 0x80 }
  - { offsetInCU: 0x2593, offset: 0x1E013D, size: 0x8, addend: 0x0, symName: '__ZN5alloc4sync16Arc$LT$T$C$A$GT$9drop_slow17h7ef00eac72cf0407E', symObjAddr: 0x0, symBinAddr: 0x10003F5C0, symSize: 0x80 }
  - { offsetInCU: 0x2C33, offset: 0x1E07DD, size: 0x8, addend: 0x0, symName: '__ZN5alloc4sync16Arc$LT$T$C$A$GT$9drop_slow17h84265cc2f1d0d63dE', symObjAddr: 0x80, symBinAddr: 0x10003F640, symSize: 0x50 }
  - { offsetInCU: 0x316D, offset: 0x1E0D17, size: 0x8, addend: 0x0, symName: '__ZN5alloc4sync16Arc$LT$T$C$A$GT$9drop_slow17ha1c57cccf12413e6E', symObjAddr: 0xD0, symBinAddr: 0x10003F690, symSize: 0xB0 }
  - { offsetInCU: 0x3891, offset: 0x1E143B, size: 0x8, addend: 0x0, symName: '__ZN5alloc4sync16Arc$LT$T$C$A$GT$9drop_slow17hac9df4eac56ea55cE', symObjAddr: 0x180, symBinAddr: 0x10003F740, symSize: 0x120 }
  - { offsetInCU: 0x41FF, offset: 0x1E1DA9, size: 0x8, addend: 0x0, symName: '__ZN5alloc4sync16Arc$LT$T$C$A$GT$9drop_slow17had5d399086ab5654E', symObjAddr: 0x2A0, symBinAddr: 0x10003F860, symSize: 0xA0 }
  - { offsetInCU: 0x481E, offset: 0x1E23C8, size: 0x8, addend: 0x0, symName: '__ZN5alloc4sync16Arc$LT$T$C$A$GT$9drop_slow17hcbe028709ee287cfE', symObjAddr: 0x340, symBinAddr: 0x10003F900, symSize: 0x60 }
  - { offsetInCU: 0x1E, offset: 0x1E2BD2, size: 0x8, addend: 0x0, symName: __ZN4core3fmt5Write10write_char17hac38b8f579faa4e6E, symObjAddr: 0x0, symBinAddr: 0x10003F960, symSize: 0x100 }
  - { offsetInCU: 0xC8, offset: 0x1E2C7C, size: 0x8, addend: 0x0, symName: '__ZN80_$LT$std..io..Write..write_fmt..Adapter$LT$T$GT$$u20$as$u20$core..fmt..Write$GT$9write_str17h698fb39bc2d6a308E', symObjAddr: 0x1E0, symBinAddr: 0x10003FB40, symSize: 0x3E }
  - { offsetInCU: 0x9F7, offset: 0x1E35AB, size: 0x8, addend: 0x0, symName: '__ZN4core3ptr81drop_in_place$LT$core..result..Result$LT$$LP$$RP$$C$std..io..error..Error$GT$$GT$17hc10226141cf57ca3E', symObjAddr: 0x120, symBinAddr: 0x10003FA80, symSize: 0xB0 }
  - { offsetInCU: 0xE68, offset: 0x1E3A1C, size: 0x8, addend: 0x0, symName: '__ZN4core3ptr92drop_in_place$LT$std..io..Write..write_fmt..Adapter$LT$std..sys..unix..stdio..Stderr$GT$$GT$17hf62592297cabab17E', symObjAddr: 0x1D0, symBinAddr: 0x10003FB30, symSize: 0x10 }
  - { offsetInCU: 0xFEE, offset: 0x1E3BA2, size: 0x8, addend: 0x0, symName: __ZN4core3fmt5Write10write_char17hac38b8f579faa4e6E, symObjAddr: 0x0, symBinAddr: 0x10003F960, symSize: 0x100 }
  - { offsetInCU: 0x1157, offset: 0x1E3D0B, size: 0x8, addend: 0x0, symName: __ZN4core3fmt5Write9write_fmt17h9591030a4b8faa01E, symObjAddr: 0x100, symBinAddr: 0x10003FA60, symSize: 0x20 }
  - { offsetInCU: 0x1E, offset: 0x1E447B, size: 0x8, addend: 0x0, symName: __ZN3std2io5Write9write_all17he0f010483822c3adE, symObjAddr: 0x0, symBinAddr: 0x10003FB80, symSize: 0xF0 }
  - { offsetInCU: 0x35, offset: 0x1E4492, size: 0x8, addend: 0x0, symName: _anon.8e7b9d1b0a14e180be3773ef20003be4.6.llvm.14880922089559980700, symObjAddr: 0x328, symBinAddr: 0x1000B6B28, symSize: 0x0 }
  - { offsetInCU: 0xE3, offset: 0x1E4540, size: 0x8, addend: 0x0, symName: __ZN3std2io5Write9write_all17he0f010483822c3adE, symObjAddr: 0x0, symBinAddr: 0x10003FB80, symSize: 0xF0 }
  - { offsetInCU: 0x35D, offset: 0x1E47BA, size: 0x8, addend: 0x0, symName: __ZN3std2io5Write9write_fmt17he3a9ea833d340070E, symObjAddr: 0xF0, symBinAddr: 0x10003FC70, symSize: 0x90 }
  - { offsetInCU: 0x141B, offset: 0x1E5878, size: 0x8, addend: 0x0, symName: '__ZN4core3ptr42drop_in_place$LT$std..io..error..Error$GT$17hb23f0e2f76b01d09E.llvm.14880922089559980700', symObjAddr: 0x180, symBinAddr: 0x10003FD00, symSize: 0xA0 }
  - { offsetInCU: 0x187E, offset: 0x1E5CDB, size: 0x8, addend: 0x0, symName: '__ZN4core3ptr92drop_in_place$LT$std..io..Write..write_fmt..Adapter$LT$std..sys..unix..stdio..Stderr$GT$$GT$17hf62592297cabab17E.llvm.14880922089559980700', symObjAddr: 0x220, symBinAddr: 0x10003FDA0, symSize: 0x15 }
  - { offsetInCU: 0x91B, offset: 0x1E6F96, size: 0x8, addend: 0x0, symName: '__ZN4core3ptr79drop_in_place$LT$std..sync..mutex..MutexGuard$LT$jobserver..HelperInner$GT$$GT$17h50feb83de9bdb063E.llvm.4426533464425285362', symObjAddr: 0x180, symBinAddr: 0x10003FEC0, symSize: 0x69 }
  - { offsetInCU: 0x1523, offset: 0x1E7B9E, size: 0x8, addend: 0x0, symName: __ZN3std4sync7condvar7Condvar4wait17hbd1537645253be13E, symObjAddr: 0x80, symBinAddr: 0x10003FDC0, symSize: 0x100 }
  - { offsetInCU: 0x1E, offset: 0x1E8227, size: 0x8, addend: 0x0, symName: '__ZN3std10sys_common8lazy_box16LazyBox$LT$T$GT$10initialize17h37c3982800cf3425E', symObjAddr: 0x0, symBinAddr: 0x1000936C0, symSize: 0x60 }
  - { offsetInCU: 0x296, offset: 0x1E849F, size: 0x8, addend: 0x0, symName: '__ZN85_$LT$std..sys_common..lazy_box..LazyBox$LT$T$GT$$u20$as$u20$core..ops..drop..Drop$GT$4drop17hc8c10d78c3472b07E', symObjAddr: 0xB0, symBinAddr: 0x10003FF30, symSize: 0x4F }
  - { offsetInCU: 0x551, offset: 0x1E875A, size: 0x8, addend: 0x0, symName: '__ZN3std10sys_common8lazy_box16LazyBox$LT$T$GT$10initialize17h37c3982800cf3425E', symObjAddr: 0x0, symBinAddr: 0x1000936C0, symSize: 0x60 }
  - { offsetInCU: 0x1E, offset: 0x1E8C97, size: 0x8, addend: 0x0, symName: '__ZN223_$LT$$LT$alloc..boxed..Box$LT$dyn$u20$core..error..Error$u2b$core..marker..Send$u2b$core..marker..Sync$GT$$u20$as$u20$core..convert..From$LT$alloc..string..String$GT$$GT$..from..StringError$u20$as$u20$core..error..Error$GT$11description17h72eeffc27add5e21E', symObjAddr: 0x0, symBinAddr: 0x10003FF80, symSize: 0x10 }
  - { offsetInCU: 0x72, offset: 0x1E8CEB, size: 0x8, addend: 0x0, symName: '__ZN223_$LT$$LT$alloc..boxed..Box$LT$dyn$u20$core..error..Error$u2b$core..marker..Send$u2b$core..marker..Sync$GT$$u20$as$u20$core..convert..From$LT$alloc..string..String$GT$$GT$..from..StringError$u20$as$u20$core..error..Error$GT$11description17h72eeffc27add5e21E', symObjAddr: 0x0, symBinAddr: 0x10003FF80, symSize: 0x10 }
  - { offsetInCU: 0xA0A, offset: 0x1E9683, size: 0x8, addend: 0x0, symName: '__ZN4core3ptr205drop_in_place$LT$$LT$alloc..boxed..Box$LT$dyn$u20$core..error..Error$u2b$core..marker..Send$u2b$core..marker..Sync$GT$$u20$as$u20$core..convert..From$LT$alloc..string..String$GT$$GT$..from..StringError$GT$17h5e763a39ea35585eE', symObjAddr: 0x110, symBinAddr: 0x100040080, symSize: 0x20 }
  - { offsetInCU: 0xC4D, offset: 0x1E98C6, size: 0x8, addend: 0x0, symName: __ZN4core5error5Error6source17h1f75d2c483343de3E, symObjAddr: 0x130, symBinAddr: 0x1000400A0, symSize: 0x10 }
  - { offsetInCU: 0xC7F, offset: 0x1E98F8, size: 0x8, addend: 0x0, symName: __ZN4core5error5Error7provide17h8a8077f5e963bc2bE, symObjAddr: 0x140, symBinAddr: 0x1000400B0, symSize: 0x6 }
  - { offsetInCU: 0x11A6, offset: 0x1E9E1F, size: 0x8, addend: 0x0, symName: __ZN3std2io5error5Error3new17h147a63bf5e0b610aE, symObjAddr: 0x10, symBinAddr: 0x10003FF90, symSize: 0xF0 }
  - { offsetInCU: 0x1E, offset: 0x1EA7C9, size: 0x8, addend: 0x0, symName: __ZN3std10sys_common9backtrace28__rust_begin_short_backtrace17h9c22652226906429E, symObjAddr: 0x0, symBinAddr: 0x1000400C0, symSize: 0x50 }
  - { offsetInCU: 0x3C0, offset: 0x1EAB6B, size: 0x8, addend: 0x0, symName: '__ZN4core3ptr227drop_in_place$LT$alloc..boxed..Box$LT$dyn$u20$core..ops..function..FnMut$LT$$LP$core..result..Result$LT$jobserver..Acquired$C$std..io..error..Error$GT$$C$$RP$$GT$$u2b$Output$u20$$u3d$$u20$$LP$$RP$$u2b$core..marker..Send$GT$$GT$17hbad378cc0e25a533E', symObjAddr: 0x50, symBinAddr: 0x100040110, symSize: 0x60 }
  - { offsetInCU: 0x618, offset: 0x1EADC3, size: 0x8, addend: 0x0, symName: '__ZN4core3ptr78drop_in_place$LT$jobserver..imp..spawn_helper..$u7b$$u7b$closure$u7d$$u7d$$GT$17h3e65510646983faeE', symObjAddr: 0xB0, symBinAddr: 0x100040170, symSize: 0xB7 }
  - { offsetInCU: 0x13D6, offset: 0x1EBB81, size: 0x8, addend: 0x0, symName: __ZN3std10sys_common9backtrace28__rust_begin_short_backtrace17h9c22652226906429E, symObjAddr: 0x0, symBinAddr: 0x1000400C0, symSize: 0x50 }
  - { offsetInCU: 0x35, offset: 0x1EC0FF, size: 0x8, addend: 0x0, symName: _anon.052f1dac0385aa7ccefe4edfa4921e88.0.llvm.7790572121385920598, symObjAddr: 0x68, symBinAddr: 0x1000B6BF8, symSize: 0x0 }
  - { offsetInCU: 0xAF, offset: 0x1EC179, size: 0x8, addend: 0x0, symName: '__ZN4core3ptr27drop_in_place$LT$$RF$u8$GT$17h37dd6013b2d289c8E.llvm.7790572121385920598', symObjAddr: 0x60, symBinAddr: 0x100040230, symSize: 0x6 }
  - { offsetInCU: 0xFE, offset: 0x1EC2D5, size: 0x8, addend: 0x0, symName: '__ZN42_$LT$$RF$T$u20$as$u20$core..fmt..Debug$GT$3fmt17ha50d0e483910af04E', symObjAddr: 0x30, symBinAddr: 0x100040240, symSize: 0x30 }
  - { offsetInCU: 0x198, offset: 0x1EC36F, size: 0x8, addend: 0x0, symName: '__ZN44_$LT$$RF$T$u20$as$u20$core..fmt..Display$GT$3fmt17hb0718730f4129ae6E', symObjAddr: 0x60, symBinAddr: 0x100040270, symSize: 0x20 }
  - { offsetInCU: 0x1E, offset: 0x1EC5C1, size: 0x8, addend: 0x0, symName: '__ZN42_$LT$$RF$T$u20$as$u20$core..fmt..Debug$GT$3fmt17h518cde4329f22aa9E', symObjAddr: 0x0, symBinAddr: 0x100040290, symSize: 0x80 }
  - { offsetInCU: 0x64, offset: 0x1EC607, size: 0x8, addend: 0x0, symName: '__ZN42_$LT$$RF$T$u20$as$u20$core..fmt..Debug$GT$3fmt17h518cde4329f22aa9E', symObjAddr: 0x0, symBinAddr: 0x100040290, symSize: 0x80 }
  - { offsetInCU: 0x1E, offset: 0x1ECE03, size: 0x8, addend: 0x0, symName: __ZN4core5error5Error5cause17h3fc3fcd0fce62b88E, symObjAddr: 0x0, symBinAddr: 0x100040310, symSize: 0x10 }
  - { offsetInCU: 0x41, offset: 0x1ECE26, size: 0x8, addend: 0x0, symName: __ZN4core5error5Error5cause17h3fc3fcd0fce62b88E, symObjAddr: 0x0, symBinAddr: 0x100040310, symSize: 0x10 }
  - { offsetInCU: 0x75, offset: 0x1ECE5A, size: 0x8, addend: 0x0, symName: __ZN4core5error5Error7type_id17h5fdb0f37bf180966E, symObjAddr: 0x10, symBinAddr: 0x100040320, symSize: 0x20 }
...
