---
triple:          'x86_64-apple-darwin'
binary-path:     "/Users/justinlanouette/Chaos/ChaöS-Token/hello_world/target/release/deps/libthiserror_impl-71121bba97a1f92e.dylib"
relocations:
  - { offsetInCU: 0x1E, offset: 0x1E, size: 0x8, addend: 0x0, symName: '__ZN4core3ptr179drop_in_place$LT$$LP$alloc..collections..btree..set..BTreeSet$LT$alloc..string..String$GT$$C$syn..punctuated..Punctuated$LT$proc_macro2..TokenStream$C$syn..token..Plus$GT$$RP$$GT$17h9e64340bace67316E.llvm.14281652237460771086', symObjAddr: 0x0, symBinAddr: 0x4660, symSize: 0x1B0 }
  - { offsetInCU: 0x464, offset: 0x464, size: 0x8, addend: 0x0, symName: '__ZN4core3ptr179drop_in_place$LT$$LP$alloc..collections..btree..set..BTreeSet$LT$alloc..string..String$GT$$C$syn..punctuated..Punctuated$LT$proc_macro2..TokenStream$C$syn..token..Plus$GT$$RP$$GT$17h9e64340bace67316E.llvm.14281652237460771086', symObjAddr: 0x0, symBinAddr: 0x4660, symSize: 0x1B0 }
  - { offsetInCU: 0xB19, offset: 0xB19, size: 0x8, addend: 0x0, symName: '__ZN4core3ptr211drop_in_place$LT$$LP$alloc..string..String$C$$LP$alloc..collections..btree..set..BTreeSet$LT$alloc..string..String$GT$$C$syn..punctuated..Punctuated$LT$proc_macro2..TokenStream$C$syn..token..Plus$GT$$RP$$RP$$GT$17h4809a6e7e4fffd92E', symObjAddr: 0x1B0, symBinAddr: 0x4810, symSize: 0x40 }
  - { offsetInCU: 0xB43, offset: 0xB43, size: 0x8, addend: 0x0, symName: '__ZN4core3ptr211drop_in_place$LT$$LP$alloc..string..String$C$$LP$alloc..collections..btree..set..BTreeSet$LT$alloc..string..String$GT$$C$syn..punctuated..Punctuated$LT$proc_macro2..TokenStream$C$syn..token..Plus$GT$$RP$$RP$$GT$17h4809a6e7e4fffd92E', symObjAddr: 0x1B0, symBinAddr: 0x4810, symSize: 0x40 }
  - { offsetInCU: 0xB61, offset: 0xB61, size: 0x8, addend: 0x0, symName: '__ZN4core3ptr211drop_in_place$LT$$LP$alloc..string..String$C$$LP$alloc..collections..btree..set..BTreeSet$LT$alloc..string..String$GT$$C$syn..punctuated..Punctuated$LT$proc_macro2..TokenStream$C$syn..token..Plus$GT$$RP$$RP$$GT$17h4809a6e7e4fffd92E', symObjAddr: 0x1B0, symBinAddr: 0x4810, symSize: 0x40 }
  - { offsetInCU: 0xB7F, offset: 0xB7F, size: 0x8, addend: 0x0, symName: '__ZN4core3ptr211drop_in_place$LT$$LP$alloc..string..String$C$$LP$alloc..collections..btree..set..BTreeSet$LT$alloc..string..String$GT$$C$syn..punctuated..Punctuated$LT$proc_macro2..TokenStream$C$syn..token..Plus$GT$$RP$$RP$$GT$17h4809a6e7e4fffd92E', symObjAddr: 0x1B0, symBinAddr: 0x4810, symSize: 0x40 }
  - { offsetInCU: 0xB9D, offset: 0xB9D, size: 0x8, addend: 0x0, symName: '__ZN4core3ptr211drop_in_place$LT$$LP$alloc..string..String$C$$LP$alloc..collections..btree..set..BTreeSet$LT$alloc..string..String$GT$$C$syn..punctuated..Punctuated$LT$proc_macro2..TokenStream$C$syn..token..Plus$GT$$RP$$RP$$GT$17h4809a6e7e4fffd92E', symObjAddr: 0x1B0, symBinAddr: 0x4810, symSize: 0x40 }
  - { offsetInCU: 0xBB7, offset: 0xBB7, size: 0x8, addend: 0x0, symName: '__ZN4core3ptr211drop_in_place$LT$$LP$alloc..string..String$C$$LP$alloc..collections..btree..set..BTreeSet$LT$alloc..string..String$GT$$C$syn..punctuated..Punctuated$LT$proc_macro2..TokenStream$C$syn..token..Plus$GT$$RP$$RP$$GT$17h4809a6e7e4fffd92E', symObjAddr: 0x1B0, symBinAddr: 0x4810, symSize: 0x40 }
  - { offsetInCU: 0xFEB, offset: 0xFEB, size: 0x8, addend: 0x0, symName: '__ZN4core3ptr65drop_in_place$LT$alloc..vec..Vec$LT$proc_macro..TokenTree$GT$$GT$17he8dd9759c088f459E.llvm.14281652237460771086', symObjAddr: 0x240, symBinAddr: 0x4850, symSize: 0x110 }
  - { offsetInCU: 0x1538, offset: 0x1538, size: 0x8, addend: 0x0, symName: '__ZN4core3ptr98drop_in_place$LT$core..option..Option$LT$alloc..boxed..Box$LT$proc_macro2..TokenStream$GT$$GT$$GT$17h7ec8b936484f1959E.llvm.14281652237460771086', symObjAddr: 0x350, symBinAddr: 0x4960, symSize: 0x170 }
  - { offsetInCU: 0x1AE9, offset: 0x1AE9, size: 0x8, addend: 0x0, symName: '__ZN4core3ptr99drop_in_place$LT$syn..punctuated..Punctuated$LT$proc_macro2..TokenStream$C$syn..token..Plus$GT$$GT$17hfe450300067cc071E.llvm.14281652237460771086', symObjAddr: 0x4C0, symBinAddr: 0x4AD0, symSize: 0xC0 }
  - { offsetInCU: 0xF81F, offset: 0xF81F, size: 0x8, addend: 0x0, symName: '__ZN5alloc11collections5btree4node208Handle$LT$alloc..collections..btree..node..NodeRef$LT$alloc..collections..btree..node..marker..Mut$C$K$C$V$C$alloc..collections..btree..node..marker..Leaf$GT$$C$alloc..collections..btree..node..marker..KV$GT$5split17h1058d6095a679f82E', symObjAddr: 0xB70, symBinAddr: 0x4B90, symSize: 0x280 }
  - { offsetInCU: 0x1045A, offset: 0x1045A, size: 0x8, addend: 0x0, symName: '__ZN5alloc11collections5btree4node208Handle$LT$alloc..collections..btree..node..NodeRef$LT$alloc..collections..btree..node..marker..Mut$C$K$C$V$C$alloc..collections..btree..node..marker..Leaf$GT$$C$alloc..collections..btree..node..marker..KV$GT$5split17h73e3b21c699655d7E', symObjAddr: 0xDF0, symBinAddr: 0x4E10, symSize: 0x1B0 }
  - { offsetInCU: 0x10DAF, offset: 0x10DAF, size: 0x8, addend: 0x0, symName: '__ZN5alloc11collections5btree4node208Handle$LT$alloc..collections..btree..node..NodeRef$LT$alloc..collections..btree..node..marker..Mut$C$K$C$V$C$alloc..collections..btree..node..marker..Leaf$GT$$C$alloc..collections..btree..node..marker..KV$GT$5split17heba0f2f2549086e7E', symObjAddr: 0xFA0, symBinAddr: 0x4FC0, symSize: 0x180 }
  - { offsetInCU: 0x12210, offset: 0x12210, size: 0x8, addend: 0x0, symName: '__ZN5alloc11collections5btree4node210Handle$LT$alloc..collections..btree..node..NodeRef$LT$alloc..collections..btree..node..marker..Mut$C$K$C$V$C$alloc..collections..btree..node..marker..Leaf$GT$$C$alloc..collections..btree..node..marker..Edge$GT$16insert_recursing17h22daabbb957dd00eE', symObjAddr: 0x1120, symBinAddr: 0x5140, symSize: 0xA30 }
  - { offsetInCU: 0x1485F, offset: 0x1485F, size: 0x8, addend: 0x0, symName: '__ZN5alloc11collections5btree4node210Handle$LT$alloc..collections..btree..node..NodeRef$LT$alloc..collections..btree..node..marker..Mut$C$K$C$V$C$alloc..collections..btree..node..marker..Leaf$GT$$C$alloc..collections..btree..node..marker..Edge$GT$16insert_recursing17h6d1b9cfae9a976a7E', symObjAddr: 0x1B50, symBinAddr: 0x5B70, symSize: 0xA10 }
  - { offsetInCU: 0x17B6B, offset: 0x17B6B, size: 0x8, addend: 0x0, symName: '__ZN5alloc11collections5btree4node210Handle$LT$alloc..collections..btree..node..NodeRef$LT$alloc..collections..btree..node..marker..Mut$C$K$C$V$C$alloc..collections..btree..node..marker..Leaf$GT$$C$alloc..collections..btree..node..marker..Edge$GT$16insert_recursing17hb54283a3e6e9b647E', symObjAddr: 0x2560, symBinAddr: 0x6580, symSize: 0x9C0 }
  - { offsetInCU: 0x1A1D8, offset: 0x1A1D8, size: 0x8, addend: 0x0, symName: '__ZN5alloc11collections5btree4node210Handle$LT$alloc..collections..btree..node..NodeRef$LT$alloc..collections..btree..node..marker..Mut$C$K$C$V$C$alloc..collections..btree..node..marker..Leaf$GT$$C$alloc..collections..btree..node..marker..Edge$GT$16insert_recursing17hd600ebc2355e7429E', symObjAddr: 0x2F20, symBinAddr: 0x6F40, symSize: 0x11F0 }
  - { offsetInCU: 0x1C43D, offset: 0x1C43D, size: 0x8, addend: 0x0, symName: '__ZN5alloc11collections5btree4node212Handle$LT$alloc..collections..btree..node..NodeRef$LT$alloc..collections..btree..node..marker..Mut$C$K$C$V$C$alloc..collections..btree..node..marker..Internal$GT$$C$alloc..collections..btree..node..marker..KV$GT$5split17h1459582ed93fc58eE', symObjAddr: 0x4110, symBinAddr: 0x8130, symSize: 0x270 }
  - { offsetInCU: 0x1D16D, offset: 0x1D16D, size: 0x8, addend: 0x0, symName: '__ZN5alloc11collections5btree4node212Handle$LT$alloc..collections..btree..node..NodeRef$LT$alloc..collections..btree..node..marker..Mut$C$K$C$V$C$alloc..collections..btree..node..marker..Internal$GT$$C$alloc..collections..btree..node..marker..KV$GT$5split17h1da054f88c204a3dE', symObjAddr: 0x4380, symBinAddr: 0x83A0, symSize: 0x200 }
  - { offsetInCU: 0x1DE07, offset: 0x1DE07, size: 0x8, addend: 0x0, symName: '__ZN5alloc11collections5btree4node212Handle$LT$alloc..collections..btree..node..NodeRef$LT$alloc..collections..btree..node..marker..Mut$C$K$C$V$C$alloc..collections..btree..node..marker..Internal$GT$$C$alloc..collections..btree..node..marker..KV$GT$5split17h24d1bee5f9c99cc8E', symObjAddr: 0x4580, symBinAddr: 0x85A0, symSize: 0x230 }
  - { offsetInCU: 0x1EC5C, offset: 0x1EC5C, size: 0x8, addend: 0x0, symName: '__ZN5alloc11collections5btree4node212Handle$LT$alloc..collections..btree..node..NodeRef$LT$alloc..collections..btree..node..marker..Mut$C$K$C$V$C$alloc..collections..btree..node..marker..Internal$GT$$C$alloc..collections..btree..node..marker..KV$GT$5split17hd09803eec309c3e4E', symObjAddr: 0x47B0, symBinAddr: 0x87D0, symSize: 0x360 }
  - { offsetInCU: 0x208EF, offset: 0x208EF, size: 0x8, addend: 0x0, symName: '__ZN5alloc11collections5btree6append178_$LT$impl$u20$alloc..collections..btree..node..NodeRef$LT$alloc..collections..btree..node..marker..Owned$C$K$C$V$C$alloc..collections..btree..node..marker..LeafOrInternal$GT$$GT$9bulk_push17hf0e98a0ece771475E', symObjAddr: 0x4C00, symBinAddr: 0x8B30, symSize: 0x650 }
  - { offsetInCU: 0x1E, offset: 0x26CC6, size: 0x8, addend: 0x0, symName: '__ZN39_$LT$T$u20$as$u20$syn..token..Token$GT$4peek17h1ca12e86888337f2E', symObjAddr: 0x0, symBinAddr: 0x9180, symSize: 0x100 }
  - { offsetInCU: 0xBE, offset: 0x26D66, size: 0x8, addend: 0x0, symName: '__ZN58_$LT$alloc..string..String$u20$as$u20$core..fmt..Write$GT$10write_char17h04bc467bd68a934bE', symObjAddr: 0x1510, symBinAddr: 0xA690, symSize: 0x140 }
  - { offsetInCU: 0x4C3, offset: 0x2716B, size: 0x8, addend: 0x0, symName: '__ZN58_$LT$alloc..string..String$u20$as$u20$core..fmt..Write$GT$9write_str17h46a93205c3443fbaE', symObjAddr: 0x1650, symBinAddr: 0xA7D0, symSize: 0x60 }
  - { offsetInCU: 0x3791, offset: 0x2A439, size: 0x8, addend: 0x0, symName: '__ZN4core3ptr113drop_in_place$LT$core..option..Option$LT$core..result..Result$LT$syn..expr..Index$C$syn..error..Error$GT$$GT$$GT$17haab0ea8e6c216fcbE', symObjAddr: 0x960, symBinAddr: 0x9AE0, symSize: 0x80 }
  - { offsetInCU: 0x3A83, offset: 0x2A72B, size: 0x8, addend: 0x0, symName: '__ZN4core3ptr311drop_in_place$LT$$LP$core..option..Option$LT$core..result..Result$LT$syn..expr..Index$C$syn..error..Error$GT$$GT$$C$core..option..Option$LT$core..result..Result$LT$syn..expr..Index$C$syn..error..Error$GT$$GT$$C$core..option..Option$LT$core..result..Result$LT$syn..expr..Index$C$syn..error..Error$GT$$GT$$RP$$GT$17hf6977ebe2b6749a6E', symObjAddr: 0x9E0, symBinAddr: 0x9B60, symSize: 0x170 }
  - { offsetInCU: 0x434C, offset: 0x2AFF4, size: 0x8, addend: 0x0, symName: '__ZN4core3ptr37drop_in_place$LT$syn..lit..LitStr$GT$17h315bcd607dd52a16E', symObjAddr: 0xB50, symBinAddr: 0x9CD0, symSize: 0x60 }
  - { offsetInCU: 0x462B, offset: 0x2B2D3, size: 0x8, addend: 0x0, symName: '__ZN4core3ptr38drop_in_place$LT$syn..error..Error$GT$17h60d9715b3711fe29E', symObjAddr: 0xBB0, symBinAddr: 0x9D30, symSize: 0x90 }
  - { offsetInCU: 0x49F0, offset: 0x2B698, size: 0x8, addend: 0x0, symName: '__ZN4core3ptr39drop_in_place$LT$proc_macro2..Group$GT$17h4a08d16fc57a777fE', symObjAddr: 0xC40, symBinAddr: 0x9DC0, symSize: 0x60 }
  - { offsetInCU: 0x4B5B, offset: 0x2B803, size: 0x8, addend: 0x0, symName: '__ZN4core3ptr39drop_in_place$LT$syn..buffer..Entry$GT$17h5f59d0ea8883583dE', symObjAddr: 0xCA0, symBinAddr: 0x9E20, symSize: 0xB0 }
  - { offsetInCU: 0x4F24, offset: 0x2BBCC, size: 0x8, addend: 0x0, symName: '__ZN4core3ptr39drop_in_place$LT$syn..lit..LitFloat$GT$17h246c7bce166ef43eE', symObjAddr: 0xD50, symBinAddr: 0x9ED0, symSize: 0x70 }
  - { offsetInCU: 0x5296, offset: 0x2BF3E, size: 0x8, addend: 0x0, symName: '__ZN4core3ptr42drop_in_place$LT$alloc..string..String$GT$17h0d927eaf88a82778E', symObjAddr: 0xDC0, symBinAddr: 0x9F40, symSize: 0x20 }
  - { offsetInCU: 0x539E, offset: 0x2C046, size: 0x8, addend: 0x0, symName: '__ZN4core3ptr43drop_in_place$LT$proc_macro2..TokenTree$GT$17h41d0da0efc36b9f5E', symObjAddr: 0xDE0, symBinAddr: 0x9F60, symSize: 0xB0 }
  - { offsetInCU: 0x56F9, offset: 0x2C3A1, size: 0x8, addend: 0x0, symName: '__ZN4core3ptr44drop_in_place$LT$syn..parse..ParseBuffer$GT$17h28209f0774cc033fE', symObjAddr: 0xE90, symBinAddr: 0xA010, symSize: 0x70 }
  - { offsetInCU: 0x5A75, offset: 0x2C71D, size: 0x8, addend: 0x0, symName: '__ZN4core3ptr45drop_in_place$LT$proc_macro2..TokenStream$GT$17h79bed4734ce05ff0E.llvm.923547007971599034', symObjAddr: 0xF00, symBinAddr: 0xA080, symSize: 0x140 }
  - { offsetInCU: 0x5ED1, offset: 0x2CB79, size: 0x8, addend: 0x0, symName: '__ZN4core3ptr45drop_in_place$LT$syn..buffer..TokenBuffer$GT$17h3870206a0a71feebE', symObjAddr: 0x1040, symBinAddr: 0xA1C0, symSize: 0xC0 }
  - { offsetInCU: 0x611A, offset: 0x2CDC2, size: 0x8, addend: 0x0, symName: '__ZN4core3ptr48drop_in_place$LT$thiserror_impl..attr..Attrs$GT$17hba26ad72f8a8a551E', symObjAddr: 0x1100, symBinAddr: 0xA280, symSize: 0x110 }
  - { offsetInCU: 0x659F, offset: 0x2D247, size: 0x8, addend: 0x0, symName: '__ZN4core3ptr50drop_in_place$LT$thiserror_impl..attr..Display$GT$17hc21e53533fe03b8cE', symObjAddr: 0x1210, symBinAddr: 0xA390, symSize: 0xF0 }
  - { offsetInCU: 0x6A91, offset: 0x2D739, size: 0x8, addend: 0x0, symName: '__ZN4core3ptr56drop_in_place$LT$proc_macro2..token_stream..IntoIter$GT$17hf9ec3ce0adbb0736E', symObjAddr: 0x1300, symBinAddr: 0xA480, symSize: 0x20 }
  - { offsetInCU: 0x6B41, offset: 0x2D7E9, size: 0x8, addend: 0x0, symName: '__ZN4core3ptr65drop_in_place$LT$alloc..vec..Vec$LT$proc_macro..TokenTree$GT$$GT$17he8dd9759c088f459E.llvm.923547007971599034', symObjAddr: 0x1320, symBinAddr: 0xA4A0, symSize: 0x110 }
  - { offsetInCU: 0x6F58, offset: 0x2DC00, size: 0x8, addend: 0x0, symName: '__ZN4core3ptr66drop_in_place$LT$alloc..vec..Vec$LT$proc_macro2..TokenTree$GT$$GT$17h815474eb6e30bbcdE', symObjAddr: 0x1430, symBinAddr: 0xA5B0, symSize: 0xC0 }
  - { offsetInCU: 0x7A68, offset: 0x2E710, size: 0x8, addend: 0x0, symName: '__ZN53_$LT$core..fmt..Error$u20$as$u20$core..fmt..Debug$GT$3fmt17h03dc662ab152f3aeE', symObjAddr: 0x14F0, symBinAddr: 0xA670, symSize: 0x20 }
  - { offsetInCU: 0xC63D, offset: 0x332E5, size: 0x8, addend: 0x0, symName: '__ZN81_$LT$core..str..pattern..CharSearcher$u20$as$u20$core..str..pattern..Searcher$GT$10next_match17had7e2e2870f26130E', symObjAddr: 0x18A0, symBinAddr: 0xA9B0, symSize: 0x210 }
  - { offsetInCU: 0xF0D7, offset: 0x35D7F, size: 0x8, addend: 0x0, symName: '__ZN39_$LT$T$u20$as$u20$syn..token..Token$GT$4peek17h1ca12e86888337f2E', symObjAddr: 0x0, symBinAddr: 0x9180, symSize: 0x100 }
  - { offsetInCU: 0x103DB, offset: 0x37083, size: 0x8, addend: 0x0, symName: '__ZN40_$LT$F$u20$as$u20$syn..parse..Parser$GT$14__parse_scoped17h169982a7d28c9914E', symObjAddr: 0x100, symBinAddr: 0x9280, symSize: 0x860 }
  - { offsetInCU: 0x16A35, offset: 0x3D6DD, size: 0x8, addend: 0x0, symName: __ZN14thiserror_impl4attr3get17h47d4fe54ea460d4bE, symObjAddr: 0x1AB0, symBinAddr: 0xABC0, symSize: 0xAC0 }
  - { offsetInCU: 0x19B3F, offset: 0x407E7, size: 0x8, addend: 0x0, symName: __ZN14thiserror_impl4attr16parse_token_expr17h817ae41a06e5db29E, symObjAddr: 0x2570, symBinAddr: 0xB680, symSize: 0x1910 }
  - { offsetInCU: 0x1DF0F, offset: 0x44BB7, size: 0x8, addend: 0x0, symName: '__ZN76_$LT$thiserror_impl..attr..Display$u20$as$u20$quote..to_tokens..ToTokens$GT$9to_tokens17h44fc7eb3292ffcf7E', symObjAddr: 0x3E80, symBinAddr: 0xCF90, symSize: 0x1F0 }
  - { offsetInCU: 0x1F19C, offset: 0x45E44, size: 0x8, addend: 0x0, symName: __ZN5quote9to_tokens8ToTokens15to_token_stream17h19b3b9ee2624e9e5E, symObjAddr: 0x16B0, symBinAddr: 0xA830, symSize: 0x180 }
  - { offsetInCU: 0x21C51, offset: 0x488F9, size: 0x8, addend: 0x0, symName: '__ZN14thiserror_impl3fmt47_$LT$impl$u20$thiserror_impl..attr..Display$GT$16expand_shorthand17h5a4ce098dc94b53cE', symObjAddr: 0x4070, symBinAddr: 0xD180, symSize: 0x2110 }
  - { offsetInCU: 0x1E, offset: 0x52EB6, size: 0x8, addend: 0x0, symName: '__ZN4core3ptr100drop_in_place$LT$core..option..Option$LT$alloc..boxed..Box$LT$syn..path..GenericArgument$GT$$GT$$GT$17h2e23fcc665c67bbcE', symObjAddr: 0x0, symBinAddr: 0xF290, symSize: 0x50 }
  - { offsetInCU: 0xC01, offset: 0x53A99, size: 0x8, addend: 0x0, symName: __ZN14thiserror_impl6expand6derive17h88e24e5c9b489006E, symObjAddr: 0x7A90, symBinAddr: 0x16D20, symSize: 0xBE0 }
  - { offsetInCU: 0x1723, offset: 0x545BB, size: 0x8, addend: 0x0, symName: __ZN14thiserror_impl6expand11impl_struct17h14bf9c94e99ed044E, symObjAddr: 0x8670, symBinAddr: 0x17900, symSize: 0x4570 }
  - { offsetInCU: 0x6C05, offset: 0x59A9D, size: 0x8, addend: 0x0, symName: __ZN14thiserror_impl6expand9impl_enum17h66cde43e5a255014E, symObjAddr: 0xCBE0, symBinAddr: 0x1BE70, symSize: 0x53E0 }
  - { offsetInCU: 0xDFAD, offset: 0x60E45, size: 0x8, addend: 0x0, symName: __ZN14thiserror_impl6expand10fields_pat17heb4612eac9d8b338E, symObjAddr: 0x11FC0, symBinAddr: 0x21250, symSize: 0x500 }
  - { offsetInCU: 0xE977, offset: 0x6180F, size: 0x8, addend: 0x0, symName: __ZN14thiserror_impl6expand14use_as_display17h4e138f9d272f6bbcE, symObjAddr: 0x124C0, symBinAddr: 0x21750, symSize: 0x100 }
  - { offsetInCU: 0xEA42, offset: 0x618DA, size: 0x8, addend: 0x0, symName: __ZN14thiserror_impl6expand16from_initializer17h850d10dccf5481eeE, symObjAddr: 0x125C0, symBinAddr: 0x21850, symSize: 0x930 }
  - { offsetInCU: 0xFD37, offset: 0x62BCF, size: 0x8, addend: 0x0, symName: __ZN14thiserror_impl6expand15unoptional_type17h08766c7cd575f933E, symObjAddr: 0x12EF0, symBinAddr: 0x22180, symSize: 0x1AB }
  - { offsetInCU: 0x11BFA, offset: 0x64A92, size: 0x8, addend: 0x0, symName: '__ZN4core3ptr100drop_in_place$LT$core..option..Option$LT$alloc..boxed..Box$LT$syn..path..GenericArgument$GT$$GT$$GT$17h2e23fcc665c67bbcE', symObjAddr: 0x0, symBinAddr: 0xF290, symSize: 0x50 }
  - { offsetInCU: 0x11F98, offset: 0x64E30, size: 0x8, addend: 0x0, symName: '__ZN4core3ptr100drop_in_place$LT$syn..punctuated..Punctuated$LT$syn..path..PathSegment$C$syn..token..PathSep$GT$$GT$17h88ef499c0d6aef1eE', symObjAddr: 0x50, symBinAddr: 0xF2E0, symSize: 0x270 }
  - { offsetInCU: 0x1293B, offset: 0x657D3, size: 0x8, addend: 0x0, symName: '__ZN4core3ptr103drop_in_place$LT$core..option..Option$LT$alloc..boxed..Box$LT$syn..generics..TypeParamBound$GT$$GT$$GT$17hc183cdae32d85933E', symObjAddr: 0x2C0, symBinAddr: 0xF550, symSize: 0x50 }
  - { offsetInCU: 0x12B84, offset: 0x65A1C, size: 0x8, addend: 0x0, symName: '__ZN4core3ptr103drop_in_place$LT$core..option..Option$LT$alloc..boxed..Box$LT$syn..generics..WherePredicate$GT$$GT$$GT$17h518662c9f24c7a0eE', symObjAddr: 0x310, symBinAddr: 0xF5A0, symSize: 0xD0 }
  - { offsetInCU: 0x12F18, offset: 0x65DB0, size: 0x8, addend: 0x0, symName: '__ZN4core3ptr103drop_in_place$LT$syn..punctuated..Punctuated$LT$syn..generics..GenericParam$C$syn..token..Comma$GT$$GT$17h37065c338362bf57E', symObjAddr: 0x3E0, symBinAddr: 0xF670, symSize: 0xF0 }
  - { offsetInCU: 0x133D5, offset: 0x6626D, size: 0x8, addend: 0x0, symName: '__ZN4core3ptr104drop_in_place$LT$syn..punctuated..Punctuated$LT$syn..generics..TypeParamBound$C$syn..token..Plus$GT$$GT$17h1dd988e400e12830E', symObjAddr: 0x4D0, symBinAddr: 0xF760, symSize: 0x200 }
  - { offsetInCU: 0x13C7F, offset: 0x66B17, size: 0x8, addend: 0x0, symName: '__ZN4core3ptr34drop_in_place$LT$syn..lit..Lit$GT$17hdbaf11022e700012E', symObjAddr: 0x6D0, symBinAddr: 0xF960, symSize: 0x120 }
  - { offsetInCU: 0x1414E, offset: 0x66FE6, size: 0x8, addend: 0x0, symName: '__ZN4core3ptr34drop_in_place$LT$syn..pat..Pat$GT$17h5538560f99962f8fE', symObjAddr: 0x7F0, symBinAddr: 0xFA80, symSize: 0x1090 }
  - { offsetInCU: 0x1814E, offset: 0x6AFE6, size: 0x8, addend: 0x0, symName: '__ZN4core3ptr34drop_in_place$LT$syn..ty..Type$GT$17hd3c45f8e21f379c6E', symObjAddr: 0x1880, symBinAddr: 0x10B10, symSize: 0x4F0 }
  - { offsetInCU: 0x19691, offset: 0x6C529, size: 0x8, addend: 0x0, symName: '__ZN4core3ptr36drop_in_place$LT$syn..expr..Expr$GT$17h60475bc4bd2b1229E', symObjAddr: 0x1D70, symBinAddr: 0x11000, symSize: 0x27D0 }
  - { offsetInCU: 0x22DC5, offset: 0x75C5D, size: 0x8, addend: 0x0, symName: '__ZN4core3ptr36drop_in_place$LT$syn..mac..Macro$GT$17hb9e660146ef6b080E', symObjAddr: 0x4540, symBinAddr: 0x137D0, symSize: 0x40 }
  - { offsetInCU: 0x22DFF, offset: 0x75C97, size: 0x8, addend: 0x0, symName: '__ZN4core3ptr36drop_in_place$LT$syn..path..Path$GT$17h0b7d6e52e7c99d5dE', symObjAddr: 0x4580, symBinAddr: 0x13810, symSize: 0x240 }
  - { offsetInCU: 0x23799, offset: 0x76631, size: 0x8, addend: 0x0, symName: '__ZN4core3ptr37drop_in_place$LT$syn..stmt..Block$GT$17h905d97237c7d3a4cE', symObjAddr: 0x47C0, symBinAddr: 0x13A50, symSize: 0xD0 }
  - { offsetInCU: 0x23AAE, offset: 0x76946, size: 0x8, addend: 0x0, symName: '__ZN4core3ptr38drop_in_place$LT$syn..error..Error$GT$17h60d9715b3711fe29E', symObjAddr: 0x4890, symBinAddr: 0x13B20, symSize: 0x90 }
  - { offsetInCU: 0x23D5C, offset: 0x76BF4, size: 0x8, addend: 0x0, symName: '__ZN4core3ptr38drop_in_place$LT$syn..expr..Member$GT$17hae9680cbed81db26E', symObjAddr: 0x4920, symBinAddr: 0x13BB0, symSize: 0x30 }
  - { offsetInCU: 0x23E58, offset: 0x76CF0, size: 0x8, addend: 0x0, symName: '__ZN4core3ptr39drop_in_place$LT$proc_macro2..Ident$GT$17h292f8e82fbbdec86E', symObjAddr: 0x4950, symBinAddr: 0x13BE0, symSize: 0x30 }
  - { offsetInCU: 0x23F35, offset: 0x76DCD, size: 0x8, addend: 0x0, symName: '__ZN4core3ptr40drop_in_place$LT$syn..ty..ReturnType$GT$17hffa13b3500dec046E', symObjAddr: 0x4980, symBinAddr: 0x13C10, symSize: 0x50 }
  - { offsetInCU: 0x240A5, offset: 0x76F3D, size: 0x8, addend: 0x0, symName: '__ZN4core3ptr41drop_in_place$LT$syn..expr..ExprConst$GT$17h1920e50ebeb8637eE', symObjAddr: 0x49D0, symBinAddr: 0x13C60, symSize: 0x180 }
  - { offsetInCU: 0x2465E, offset: 0x774F6, size: 0x8, addend: 0x0, symName: '__ZN4core3ptr44drop_in_place$LT$syn..lifetime..Lifetime$GT$17h72b16210698c11d3E', symObjAddr: 0x4B50, symBinAddr: 0x13DE0, symSize: 0x30 }
  - { offsetInCU: 0x24890, offset: 0x77728, size: 0x8, addend: 0x0, symName: '__ZN4core3ptr45drop_in_place$LT$proc_macro2..TokenStream$GT$17h79bed4734ce05ff0E', symObjAddr: 0x4B80, symBinAddr: 0x13E10, symSize: 0x140 }
  - { offsetInCU: 0x24D17, offset: 0x77BAF, size: 0x8, addend: 0x0, symName: '__ZN4core3ptr45drop_in_place$LT$syn..generics..TypeParam$GT$17h64d3a4e29c55c328E', symObjAddr: 0x4CC0, symBinAddr: 0x13F50, symSize: 0x1D0 }
  - { offsetInCU: 0x254CC, offset: 0x78364, size: 0x8, addend: 0x0, symName: '__ZN4core3ptr46drop_in_place$LT$syn..generics..ConstParam$GT$17hc25aa244545a099bE', symObjAddr: 0x4E90, symBinAddr: 0x14120, symSize: 0x150 }
  - { offsetInCU: 0x25995, offset: 0x7882D, size: 0x8, addend: 0x0, symName: '__ZN4core3ptr46drop_in_place$LT$thiserror_impl..ast..Enum$GT$17he6b7bcafc1c675f4E', symObjAddr: 0x4FE0, symBinAddr: 0x14270, symSize: 0x210 }
  - { offsetInCU: 0x26218, offset: 0x790B0, size: 0x8, addend: 0x0, symName: '__ZN4core3ptr47drop_in_place$LT$syn..generics..WhereClause$GT$17hdb4e39c791b9b62fE', symObjAddr: 0x51F0, symBinAddr: 0x14480, symSize: 0x80 }
  - { offsetInCU: 0x264DA, offset: 0x79372, size: 0x8, addend: 0x0, symName: '__ZN4core3ptr47drop_in_place$LT$syn..path..GenericArgument$GT$17h45e5488e96fea2b3E', symObjAddr: 0x5270, symBinAddr: 0x14500, symSize: 0x4A0 }
  - { offsetInCU: 0x2761E, offset: 0x7A4B6, size: 0x8, addend: 0x0, symName: '__ZN4core3ptr48drop_in_place$LT$thiserror_impl..ast..Struct$GT$17h7d29918e96b40c9aE', symObjAddr: 0x5710, symBinAddr: 0x149A0, symSize: 0x1B0 }
  - { offsetInCU: 0x27DCB, offset: 0x7AC63, size: 0x8, addend: 0x0, symName: '__ZN4core3ptr49drop_in_place$LT$syn..generics..LifetimeParam$GT$17h651cc10f73fac619E', symObjAddr: 0x58C0, symBinAddr: 0x14B50, symSize: 0xF0 }
  - { offsetInCU: 0x281AE, offset: 0x7B046, size: 0x8, addend: 0x0, symName: '__ZN4core3ptr50drop_in_place$LT$syn..generics..TypeParamBound$GT$17h6e04ab046a111c8aE', symObjAddr: 0x59B0, symBinAddr: 0x14C40, symSize: 0xA0 }
  - { offsetInCU: 0x28314, offset: 0x7B1AC, size: 0x8, addend: 0x0, symName: '__ZN4core3ptr58drop_in_place$LT$alloc..vec..Vec$LT$syn..expr..Arm$GT$$GT$17hcff966161a65fe13E', symObjAddr: 0x5A50, symBinAddr: 0x14CE0, symSize: 0xD0 }
  - { offsetInCU: 0x285D4, offset: 0x7B46C, size: 0x8, addend: 0x0, symName: '__ZN4core3ptr59drop_in_place$LT$alloc..boxed..Box$LT$syn..pat..Pat$GT$$GT$17hfea3558566170af4E', symObjAddr: 0x5B20, symBinAddr: 0x14DB0, symSize: 0x50 }
  - { offsetInCU: 0x2872D, offset: 0x7B5C5, size: 0x8, addend: 0x0, symName: '__ZN4core3ptr59drop_in_place$LT$alloc..boxed..Box$LT$syn..ty..Type$GT$$GT$17h1e3ded19ecfd1814E', symObjAddr: 0x5B70, symBinAddr: 0x14E00, symSize: 0x50 }
  - { offsetInCU: 0x28886, offset: 0x7B71E, size: 0x8, addend: 0x0, symName: '__ZN4core3ptr61drop_in_place$LT$alloc..boxed..Box$LT$syn..expr..Expr$GT$$GT$17h19b34da7a94e76aaE', symObjAddr: 0x5BC0, symBinAddr: 0x14E50, symSize: 0x50 }
  - { offsetInCU: 0x28A5B, offset: 0x7B8F3, size: 0x8, addend: 0x0, symName: '__ZN4core3ptr61drop_in_place$LT$syn..path..ParenthesizedGenericArguments$GT$17ha6f1dbee6b0dc59aE', symObjAddr: 0x5C10, symBinAddr: 0x14EA0, symSize: 0x170 }
  - { offsetInCU: 0x290AE, offset: 0x7BF46, size: 0x8, addend: 0x0, symName: '__ZN4core3ptr61drop_in_place$LT$thiserror_impl..generics..InferredBounds$GT$17hac2b9321b10e6076E', symObjAddr: 0x5D80, symBinAddr: 0x15010, symSize: 0xE0 }
  - { offsetInCU: 0x293A0, offset: 0x7C238, size: 0x8, addend: 0x0, symName: '__ZN4core3ptr62drop_in_place$LT$syn..path..AngleBracketedGenericArguments$GT$17h180db4a5977d3b65E', symObjAddr: 0x5E60, symBinAddr: 0x150F0, symSize: 0x120 }
  - { offsetInCU: 0x297EB, offset: 0x7C683, size: 0x8, addend: 0x0, symName: '__ZN4core3ptr63drop_in_place$LT$alloc..boxed..Box$LT$syn..lit..LitRepr$GT$$GT$17hb26c2abcbf18777fE', symObjAddr: 0x5F80, symBinAddr: 0x15210, symSize: 0x60 }
  - { offsetInCU: 0x29AF2, offset: 0x7C98A, size: 0x8, addend: 0x0, symName: '__ZN4core3ptr64drop_in_place$LT$alloc..boxed..Box$LT$syn..pat..FieldPat$GT$$GT$17h00d9a44ce68ea19aE', symObjAddr: 0x5FE0, symBinAddr: 0x15270, symSize: 0x140 }
  - { offsetInCU: 0x2A1BF, offset: 0x7D057, size: 0x8, addend: 0x0, symName: '__ZN4core3ptr64drop_in_place$LT$alloc..boxed..Box$LT$syn..ty..BareFnArg$GT$$GT$17h44003be2c1a41840E', symObjAddr: 0x6120, symBinAddr: 0x153B0, symSize: 0x140 }
  - { offsetInCU: 0x2A714, offset: 0x7D5AC, size: 0x8, addend: 0x0, symName: '__ZN4core3ptr65drop_in_place$LT$alloc..vec..Vec$LT$proc_macro..TokenTree$GT$$GT$17he8dd9759c088f459E', symObjAddr: 0x6260, symBinAddr: 0x154F0, symSize: 0x110 }
  - { offsetInCU: 0x2AB0C, offset: 0x7D9A4, size: 0x8, addend: 0x0, symName: '__ZN4core3ptr65drop_in_place$LT$core..option..Option$LT$syn..expr..Label$GT$$GT$17hbd2e98b9a59ab4e4E', symObjAddr: 0x6370, symBinAddr: 0x15600, symSize: 0x30 }
  - { offsetInCU: 0x2AC46, offset: 0x7DADE, size: 0x8, addend: 0x0, symName: '__ZN4core3ptr66drop_in_place$LT$core..option..Option$LT$syn..pat..PatRest$GT$$GT$17h314d0b73337583caE', symObjAddr: 0x63A0, symBinAddr: 0x15630, symSize: 0xE0 }
  - { offsetInCU: 0x2AF3A, offset: 0x7DDD2, size: 0x8, addend: 0x0, symName: '__ZN4core3ptr67drop_in_place$LT$alloc..boxed..Box$LT$syn..expr..FieldValue$GT$$GT$17hdc8182e95ad58ca9E', symObjAddr: 0x6480, symBinAddr: 0x15710, symSize: 0x140 }
  - { offsetInCU: 0x2B46F, offset: 0x7E307, size: 0x8, addend: 0x0, symName: '__ZN4core3ptr68drop_in_place$LT$alloc..boxed..Box$LT$syn..path..PathSegment$GT$$GT$17hfa8f9118d564b9d1E', symObjAddr: 0x65C0, symBinAddr: 0x15850, symSize: 0x1B0 }
  - { offsetInCU: 0x2BB5E, offset: 0x7E9F6, size: 0x8, addend: 0x0, symName: '__ZN4core3ptr68drop_in_place$LT$alloc..vec..Vec$LT$proc_macro2..TokenStream$GT$$GT$17h06e883ec5540a4abE', symObjAddr: 0x6770, symBinAddr: 0x15A00, symSize: 0xC0 }
  - { offsetInCU: 0x2BE1C, offset: 0x7ECB4, size: 0x8, addend: 0x0, symName: '__ZN4core3ptr70drop_in_place$LT$alloc..vec..Vec$LT$thiserror_impl..ast..Field$GT$$GT$17haacc92e9d8b2c0b6E', symObjAddr: 0x6830, symBinAddr: 0x15AC0, symSize: 0x60 }
  - { offsetInCU: 0x2C06A, offset: 0x7EF02, size: 0x8, addend: 0x0, symName: '__ZN4core3ptr70drop_in_place$LT$core..option..Option$LT$syn..ty..BareVariadic$GT$$GT$17hc28c51edcca3a76bE', symObjAddr: 0x6890, symBinAddr: 0x15B20, symSize: 0x100 }
  - { offsetInCU: 0x2C4A1, offset: 0x7F339, size: 0x8, addend: 0x0, symName: '__ZN4core3ptr72drop_in_place$LT$alloc..boxed..Box$LT$syn..path..GenericArgument$GT$$GT$17h1de85139d5b36a20E', symObjAddr: 0x6990, symBinAddr: 0x15C20, symSize: 0x250 }
  - { offsetInCU: 0x2CDDC, offset: 0x7FC74, size: 0x8, addend: 0x0, symName: '__ZN4core3ptr72drop_in_place$LT$alloc..vec..Vec$LT$thiserror_impl..ast..Variant$GT$$GT$17hbd49886b508ef17eE', symObjAddr: 0x6BE0, symBinAddr: 0x15E70, symSize: 0xD0 }
  - { offsetInCU: 0x2D09C, offset: 0x7FF34, size: 0x8, addend: 0x0, symName: '__ZN4core3ptr72drop_in_place$LT$core..option..Option$LT$syn..lifetime..Lifetime$GT$$GT$17h457419cdc338c730E', symObjAddr: 0x6CB0, symBinAddr: 0x15F40, symSize: 0x30 }
  - { offsetInCU: 0x2D1B7, offset: 0x8004F, size: 0x8, addend: 0x0, symName: '__ZN4core3ptr73drop_in_place$LT$alloc..boxed..Box$LT$syn..generics..GenericParam$GT$$GT$17hba85bedf707f5b56E', symObjAddr: 0x6CE0, symBinAddr: 0x15F70, symSize: 0x80 }
  - { offsetInCU: 0x2D32D, offset: 0x801C5, size: 0x8, addend: 0x0, symName: '__ZN4core3ptr75drop_in_place$LT$alloc..boxed..Box$LT$syn..generics..TypeParamBound$GT$$GT$17h9de6927003c48175E', symObjAddr: 0x6D60, symBinAddr: 0x15FF0, symSize: 0x180 }
  - { offsetInCU: 0x2D919, offset: 0x807B1, size: 0x8, addend: 0x0, symName: '__ZN4core3ptr86drop_in_place$LT$syn..punctuated..Punctuated$LT$syn..pat..Pat$C$syn..token..Or$GT$$GT$17hcbb22f36ec6c0d61E', symObjAddr: 0x6EE0, symBinAddr: 0x16170, symSize: 0x120 }
  - { offsetInCU: 0x2DD94, offset: 0x80C2C, size: 0x8, addend: 0x0, symName: '__ZN4core3ptr87drop_in_place$LT$core..option..Option$LT$alloc..boxed..Box$LT$syn..pat..Pat$GT$$GT$$GT$17h1156bf901b21da7bE', symObjAddr: 0x7000, symBinAddr: 0x16290, symSize: 0x50 }
  - { offsetInCU: 0x2DF04, offset: 0x80D9C, size: 0x8, addend: 0x0, symName: '__ZN4core3ptr87drop_in_place$LT$core..option..Option$LT$alloc..boxed..Box$LT$syn..ty..Type$GT$$GT$$GT$17h88cbffe9c17480a4E', symObjAddr: 0x7050, symBinAddr: 0x162E0, symSize: 0x50 }
  - { offsetInCU: 0x2E074, offset: 0x80F0C, size: 0x8, addend: 0x0, symName: '__ZN4core3ptr89drop_in_place$LT$core..option..Option$LT$alloc..boxed..Box$LT$syn..expr..Expr$GT$$GT$$GT$17h08776c37df2bd779E', symObjAddr: 0x70A0, symBinAddr: 0x16330, symSize: 0x50 }
  - { offsetInCU: 0x2E222, offset: 0x810BA, size: 0x8, addend: 0x0, symName: '__ZN4core3ptr89drop_in_place$LT$syn..punctuated..Punctuated$LT$syn..pat..Pat$C$syn..token..Comma$GT$$GT$17h737401909f20a8f9E', symObjAddr: 0x70F0, symBinAddr: 0x16380, symSize: 0x120 }
  - { offsetInCU: 0x2E6B4, offset: 0x8154C, size: 0x8, addend: 0x0, symName: '__ZN4core3ptr89drop_in_place$LT$syn..punctuated..Punctuated$LT$syn..ty..Type$C$syn..token..Comma$GT$$GT$17h0b943ea2167fa893E', symObjAddr: 0x7210, symBinAddr: 0x164A0, symSize: 0x120 }
  - { offsetInCU: 0x2EB2F, offset: 0x819C7, size: 0x8, addend: 0x0, symName: '__ZN4core3ptr90drop_in_place$LT$core..option..Option$LT$syn..path..AngleBracketedGenericArguments$GT$$GT$17hd88fdf829c06df5cE', symObjAddr: 0x7330, symBinAddr: 0x165C0, symSize: 0x130 }
  - { offsetInCU: 0x2EFD1, offset: 0x81E69, size: 0x8, addend: 0x0, symName: '__ZN4core3ptr91drop_in_place$LT$syn..punctuated..Punctuated$LT$syn..expr..Expr$C$syn..token..Comma$GT$$GT$17h103f0875eb2ccdb7E', symObjAddr: 0x7460, symBinAddr: 0x166F0, symSize: 0x120 }
  - { offsetInCU: 0x2F45F, offset: 0x822F7, size: 0x8, addend: 0x0, symName: '__ZN4core3ptr94drop_in_place$LT$syn..punctuated..Punctuated$LT$syn..pat..FieldPat$C$syn..token..Comma$GT$$GT$17hb87a72edd8fbc6f6E', symObjAddr: 0x7580, symBinAddr: 0x16810, symSize: 0xF0 }
  - { offsetInCU: 0x2F75E, offset: 0x825F6, size: 0x8, addend: 0x0, symName: '__ZN4core3ptr94drop_in_place$LT$syn..punctuated..Punctuated$LT$syn..ty..BareFnArg$C$syn..token..Comma$GT$$GT$17h4b6dd11643d0cec0E', symObjAddr: 0x7670, symBinAddr: 0x16900, symSize: 0xF0 }
  - { offsetInCU: 0x2FA5F, offset: 0x828F7, size: 0x8, addend: 0x0, symName: '__ZN4core3ptr96drop_in_place$LT$core..option..Option$LT$alloc..boxed..Box$LT$syn..path..PathSegment$GT$$GT$$GT$17hf77f7ee83a6d4461E', symObjAddr: 0x7760, symBinAddr: 0x169F0, symSize: 0xA0 }
  - { offsetInCU: 0x2FCDE, offset: 0x82B76, size: 0x8, addend: 0x0, symName: '__ZN4core3ptr97drop_in_place$LT$syn..punctuated..Punctuated$LT$syn..expr..FieldValue$C$syn..token..Comma$GT$$GT$17h0c5ae3e5b554adb1E', symObjAddr: 0x7800, symBinAddr: 0x16A90, symSize: 0xF0 }
  - { offsetInCU: 0x2FFDB, offset: 0x82E73, size: 0x8, addend: 0x0, symName: '__ZN4core3ptr98drop_in_place$LT$alloc..vec..Vec$LT$$LP$syn..path..GenericArgument$C$syn..token..Comma$RP$$GT$$GT$17haaa4e1d34a7f8334E', symObjAddr: 0x78F0, symBinAddr: 0x16B80, symSize: 0xD0 }
  - { offsetInCU: 0x3031B, offset: 0x831B3, size: 0x8, addend: 0x0, symName: '__ZN4core3ptr98drop_in_place$LT$syn..punctuated..Punctuated$LT$syn..lifetime..Lifetime$C$syn..token..Plus$GT$$GT$17h353e19c7a7747f49E', symObjAddr: 0x79C0, symBinAddr: 0x16C50, symSize: 0xD0 }
  - { offsetInCU: 0x1E, offset: 0x96E4E, size: 0x8, addend: 0x0, symName: '__ZN48_$LT$T$u20$as$u20$core..clone..CloneToUninit$GT$15clone_to_uninit17h18547f6f1b000c0eE', symObjAddr: 0x0, symBinAddr: 0x22330, symSize: 0x330 }
  - { offsetInCU: 0x1DAC, offset: 0x98BDC, size: 0x8, addend: 0x0, symName: '__ZN4core3ptr100drop_in_place$LT$core..option..Option$LT$alloc..boxed..Box$LT$syn..path..GenericArgument$GT$$GT$$GT$17h2e23fcc665c67bbcE', symObjAddr: 0x330, symBinAddr: 0x22660, symSize: 0x50 }
  - { offsetInCU: 0x20ED, offset: 0x98F1D, size: 0x8, addend: 0x0, symName: '__ZN4core3ptr100drop_in_place$LT$syn..punctuated..Punctuated$LT$syn..path..PathSegment$C$syn..token..PathSep$GT$$GT$17h88ef499c0d6aef1eE.llvm.13111819262576482254', symObjAddr: 0x380, symBinAddr: 0x226B0, symSize: 0x1C0 }
  - { offsetInCU: 0x27AA, offset: 0x995DA, size: 0x8, addend: 0x0, symName: '__ZN4core3ptr101drop_in_place$LT$core..option..Option$LT$alloc..boxed..Box$LT$syn..generics..GenericParam$GT$$GT$$GT$17h5efbe11a9b222663E.llvm.13111819262576482254', symObjAddr: 0x540, symBinAddr: 0x22870, symSize: 0x50 }
  - { offsetInCU: 0x2996, offset: 0x997C6, size: 0x8, addend: 0x0, symName: '__ZN4core3ptr102drop_in_place$LT$syn..punctuated..Punctuated$LT$syn..path..GenericArgument$C$syn..token..Comma$GT$$GT$17hfe232bdb162c7f96E.llvm.13111819262576482254', symObjAddr: 0x590, symBinAddr: 0x228C0, symSize: 0xF0 }
  - { offsetInCU: 0x2CBD, offset: 0x99AED, size: 0x8, addend: 0x0, symName: '__ZN4core3ptr103drop_in_place$LT$core..option..Option$LT$alloc..boxed..Box$LT$syn..generics..TypeParamBound$GT$$GT$$GT$17hc183cdae32d85933E.llvm.13111819262576482254', symObjAddr: 0x680, symBinAddr: 0x229B0, symSize: 0x50 }
  - { offsetInCU: 0x2E4C, offset: 0x99C7C, size: 0x8, addend: 0x0, symName: '__ZN4core3ptr103drop_in_place$LT$core..option..Option$LT$alloc..boxed..Box$LT$syn..generics..WherePredicate$GT$$GT$$GT$17h518662c9f24c7a0eE', symObjAddr: 0x6D0, symBinAddr: 0x22A00, symSize: 0x50 }
  - { offsetInCU: 0x3076, offset: 0x99EA6, size: 0x8, addend: 0x0, symName: '__ZN4core3ptr103drop_in_place$LT$syn..punctuated..Punctuated$LT$syn..generics..GenericParam$C$syn..token..Comma$GT$$GT$17h37065c338362bf57E.llvm.13111819262576482254', symObjAddr: 0x720, symBinAddr: 0x22A50, symSize: 0x1A0 }
  - { offsetInCU: 0x35E2, offset: 0x9A412, size: 0x8, addend: 0x0, symName: '__ZN4core3ptr104drop_in_place$LT$syn..punctuated..Punctuated$LT$syn..generics..TypeParamBound$C$syn..token..Plus$GT$$GT$17h1dd988e400e12830E.llvm.13111819262576482254', symObjAddr: 0x8C0, symBinAddr: 0x22BF0, symSize: 0x190 }
  - { offsetInCU: 0x3C4E, offset: 0x9AA7E, size: 0x8, addend: 0x0, symName: '__ZN4core3ptr105drop_in_place$LT$syn..punctuated..Punctuated$LT$syn..generics..WherePredicate$C$syn..token..Comma$GT$$GT$17heec6616554b3ec39E', symObjAddr: 0xA50, symBinAddr: 0x22D80, symSize: 0x1A0 }
  - { offsetInCU: 0x435D, offset: 0x9B18D, size: 0x8, addend: 0x0, symName: '__ZN4core3ptr116drop_in_place$LT$core..option..Option$LT$$LP$syn..token..Else$C$alloc..boxed..Box$LT$syn..expr..Expr$GT$$RP$$GT$$GT$17he80704ddafc74db5E', symObjAddr: 0xBF0, symBinAddr: 0x22F20, symSize: 0x50 }
  - { offsetInCU: 0x4522, offset: 0x9B352, size: 0x8, addend: 0x0, symName: '__ZN4core3ptr126drop_in_place$LT$core..option..Option$LT$$LP$syn..token..And$C$core..option..Option$LT$syn..lifetime..Lifetime$GT$$RP$$GT$$GT$17h8634259c283c1dd0E', symObjAddr: 0xC40, symBinAddr: 0x22F70, symSize: 0x30 }
  - { offsetInCU: 0x47B1, offset: 0x9B5E1, size: 0x8, addend: 0x0, symName: '__ZN4core3ptr33drop_in_place$LT$syn..ty..Abi$GT$17h5560ef36d810dc2dE', symObjAddr: 0xC70, symBinAddr: 0x22FA0, symSize: 0x70 }
  - { offsetInCU: 0x47CD, offset: 0x9B5FD, size: 0x8, addend: 0x0, symName: '__ZN4core3ptr33drop_in_place$LT$syn..ty..Abi$GT$17h5560ef36d810dc2dE', symObjAddr: 0xC70, symBinAddr: 0x22FA0, symSize: 0x70 }
  - { offsetInCU: 0x4AA5, offset: 0x9B8D5, size: 0x8, addend: 0x0, symName: '__ZN4core3ptr34drop_in_place$LT$syn..lit..Lit$GT$17hdbaf11022e700012E', symObjAddr: 0xCE0, symBinAddr: 0x23010, symSize: 0x120 }
  - { offsetInCU: 0x500F, offset: 0x9BE3F, size: 0x8, addend: 0x0, symName: '__ZN4core3ptr34drop_in_place$LT$syn..pat..Pat$GT$17h5538560f99962f8fE.llvm.13111819262576482254', symObjAddr: 0xE00, symBinAddr: 0x23130, symSize: 0xF90 }
  - { offsetInCU: 0x8F73, offset: 0x9FDA3, size: 0x8, addend: 0x0, symName: '__ZN4core3ptr34drop_in_place$LT$syn..ty..Type$GT$17hd3c45f8e21f379c6E.llvm.13111819262576482254', symObjAddr: 0x1D90, symBinAddr: 0x240C0, symSize: 0x510 }
  - { offsetInCU: 0x9FB5, offset: 0xA0DE5, size: 0x8, addend: 0x0, symName: '__ZN4core3ptr35drop_in_place$LT$syn..expr..Arm$GT$17h6880e983c2bc9fceE.llvm.13111819262576482254', symObjAddr: 0x22A0, symBinAddr: 0x245D0, symSize: 0x170 }
  - { offsetInCU: 0xA5E5, offset: 0xA1415, size: 0x8, addend: 0x0, symName: '__ZN4core3ptr36drop_in_place$LT$syn..attr..Meta$GT$17hcb3a8d8719d837f9E.llvm.13111819262576482254', symObjAddr: 0x2410, symBinAddr: 0x24740, symSize: 0x220 }
  - { offsetInCU: 0xB15F, offset: 0xA1F8F, size: 0x8, addend: 0x0, symName: '__ZN4core3ptr36drop_in_place$LT$syn..expr..Expr$GT$17h60475bc4bd2b1229E.llvm.13111819262576482254', symObjAddr: 0x2630, symBinAddr: 0x24960, symSize: 0x2790 }
  - { offsetInCU: 0x154BC, offset: 0xAC2EC, size: 0x8, addend: 0x0, symName: '__ZN4core3ptr36drop_in_place$LT$syn..item..Item$GT$17he1cc27693d827627E', symObjAddr: 0x4DC0, symBinAddr: 0x270F0, symSize: 0x1980 }
  - { offsetInCU: 0x1B112, offset: 0xB1F42, size: 0x8, addend: 0x0, symName: '__ZN4core3ptr36drop_in_place$LT$syn..mac..Macro$GT$17hb9e660146ef6b080E', symObjAddr: 0x6740, symBinAddr: 0x28A70, symSize: 0xE0 }
  - { offsetInCU: 0x1B43C, offset: 0xB226C, size: 0x8, addend: 0x0, symName: '__ZN4core3ptr36drop_in_place$LT$syn..path..Path$GT$17h0b7d6e52e7c99d5dE', symObjAddr: 0x6820, symBinAddr: 0x28B50, symSize: 0x180 }
  - { offsetInCU: 0x1BA47, offset: 0xB2877, size: 0x8, addend: 0x0, symName: '__ZN4core3ptr36drop_in_place$LT$syn..stmt..Stmt$GT$17h9953f8164c4ffe82E.llvm.13111819262576482254', symObjAddr: 0x69A0, symBinAddr: 0x28CD0, symSize: 0x380 }
  - { offsetInCU: 0x1C6B0, offset: 0xB34E0, size: 0x8, addend: 0x0, symName: '__ZN4core3ptr37drop_in_place$LT$syn..data..Field$GT$17h2b46779de4c8a618E.llvm.13111819262576482254', symObjAddr: 0x6D20, symBinAddr: 0x29050, symSize: 0x190 }
  - { offsetInCU: 0x1CCA0, offset: 0xB3AD0, size: 0x8, addend: 0x0, symName: '__ZN4core3ptr37drop_in_place$LT$syn..item..FnArg$GT$17h903655c749aa5eccE', symObjAddr: 0x6EB0, symBinAddr: 0x291E0, symSize: 0x230 }
  - { offsetInCU: 0x1D5B7, offset: 0xB43E7, size: 0x8, addend: 0x0, symName: '__ZN4core3ptr37drop_in_place$LT$syn..stmt..Block$GT$17h905d97237c7d3a4cE', symObjAddr: 0x70E0, symBinAddr: 0x29410, symSize: 0xD0 }
  - { offsetInCU: 0x1D895, offset: 0xB46C5, size: 0x8, addend: 0x0, symName: '__ZN4core3ptr38drop_in_place$LT$syn..expr..Member$GT$17hae9680cbed81db26E.llvm.13111819262576482254', symObjAddr: 0x71B0, symBinAddr: 0x294E0, symSize: 0x30 }
  - { offsetInCU: 0x1D991, offset: 0xB47C1, size: 0x8, addend: 0x0, symName: '__ZN4core3ptr38drop_in_place$LT$syn..pat..PatType$GT$17hccd6d54ba529e69aE', symObjAddr: 0x71E0, symBinAddr: 0x29510, symSize: 0x140 }
  - { offsetInCU: 0x1DF43, offset: 0xB4D73, size: 0x8, addend: 0x0, symName: '__ZN4core3ptr39drop_in_place$LT$proc_macro2..Ident$GT$17h292f8e82fbbdec86E.llvm.13111819262576482254', symObjAddr: 0x7320, symBinAddr: 0x29650, symSize: 0x30 }
  - { offsetInCU: 0x1E07D, offset: 0xB4EAD, size: 0x8, addend: 0x0, symName: '__ZN4core3ptr39drop_in_place$LT$syn..data..Variant$GT$17h922d7ee90bd68f05E.llvm.13111819262576482254', symObjAddr: 0x7350, symBinAddr: 0x29680, symSize: 0x2F0 }
  - { offsetInCU: 0x1ED18, offset: 0xB5B48, size: 0x8, addend: 0x0, symName: '__ZN4core3ptr39drop_in_place$LT$syn..item..UseTree$GT$17hbb77eae734904abcE', symObjAddr: 0x7640, symBinAddr: 0x29970, symSize: 0x1E0 }
  - { offsetInCU: 0x1F471, offset: 0xB62A1, size: 0x8, addend: 0x0, symName: '__ZN4core3ptr40drop_in_place$LT$syn..item..ImplItem$GT$17h7ebfb8b399a2e753E', symObjAddr: 0x7820, symBinAddr: 0x29B50, symSize: 0x220 }
  - { offsetInCU: 0x1FABE, offset: 0xB68EE, size: 0x8, addend: 0x0, symName: '__ZN4core3ptr40drop_in_place$LT$syn..item..Receiver$GT$17he07ec151e065581dE', symObjAddr: 0x7A40, symBinAddr: 0x29D70, symSize: 0x130 }
  - { offsetInCU: 0x200BC, offset: 0xB6EEC, size: 0x8, addend: 0x0, symName: '__ZN4core3ptr40drop_in_place$LT$syn..item..Variadic$GT$17ha6bf85015f597ddcE', symObjAddr: 0x7B70, symBinAddr: 0x29EA0, symSize: 0x120 }
  - { offsetInCU: 0x2055F, offset: 0xB738F, size: 0x8, addend: 0x0, symName: '__ZN4core3ptr40drop_in_place$LT$syn..ty..ReturnType$GT$17hffa13b3500dec046E.llvm.13111819262576482254', symObjAddr: 0x7C90, symBinAddr: 0x29FC0, symSize: 0x50 }
  - { offsetInCU: 0x206EE, offset: 0xB751E, size: 0x8, addend: 0x0, symName: '__ZN4core3ptr41drop_in_place$LT$syn..attr..Attribute$GT$17h0fd66c7b3a9f8d5cE.llvm.13111819262576482254', symObjAddr: 0x7CE0, symBinAddr: 0x2A010, symSize: 0x160 }
  - { offsetInCU: 0x20BC2, offset: 0xB79F2, size: 0x8, addend: 0x0, symName: '__ZN4core3ptr41drop_in_place$LT$syn..item..Signature$GT$17heb1e7304719b82eeE', symObjAddr: 0x7E40, symBinAddr: 0x2A170, symSize: 0x270 }
  - { offsetInCU: 0x216D7, offset: 0xB8507, size: 0x8, addend: 0x0, symName: '__ZN4core3ptr41drop_in_place$LT$syn..item..TraitItem$GT$17ha9cf38d6b0d23268E', symObjAddr: 0x80B0, symBinAddr: 0x2A3E0, symSize: 0x3D0 }
  - { offsetInCU: 0x22315, offset: 0xB9145, size: 0x8, addend: 0x0, symName: '__ZN4core3ptr42drop_in_place$LT$syn..item..ImplItemFn$GT$17h3f9e5bb58d928d24E', symObjAddr: 0x8480, symBinAddr: 0x2A7B0, symSize: 0x230 }
  - { offsetInCU: 0x22AB9, offset: 0xB98E9, size: 0x8, addend: 0x0, symName: '__ZN4core3ptr42drop_in_place$LT$syn..path..Constraint$GT$17ha8fe58155f080929E', symObjAddr: 0x86B0, symBinAddr: 0x2A9E0, symSize: 0x160 }
  - { offsetInCU: 0x23171, offset: 0xB9FA1, size: 0x8, addend: 0x0, symName: '__ZN4core3ptr43drop_in_place$LT$proc_macro2..TokenTree$GT$17h41d0da0efc36b9f5E.llvm.13111819262576482254', symObjAddr: 0x8810, symBinAddr: 0x2AB40, symSize: 0x180 }
  - { offsetInCU: 0x239B8, offset: 0xBA7E8, size: 0x8, addend: 0x0, symName: '__ZN4core3ptr43drop_in_place$LT$syn..data..FieldsNamed$GT$17h10255c241fc78231E', symObjAddr: 0x8990, symBinAddr: 0x2ACC0, symSize: 0x120 }
  - { offsetInCU: 0x23E7C, offset: 0xBACAC, size: 0x8, addend: 0x0, symName: '__ZN4core3ptr43drop_in_place$LT$syn..item..ForeignItem$GT$17h0515f4d6934c281dE', symObjAddr: 0x8AB0, symBinAddr: 0x2ADE0, symSize: 0x340 }
  - { offsetInCU: 0x2488D, offset: 0xBB6BD, size: 0x8, addend: 0x0, symName: '__ZN4core3ptr43drop_in_place$LT$syn..path..PathSegment$GT$17he6d3b8dfb6b51d2bE.llvm.13111819262576482254', symObjAddr: 0x8DF0, symBinAddr: 0x2B120, symSize: 0x190 }
  - { offsetInCU: 0x24E4D, offset: 0xBBC7D, size: 0x8, addend: 0x0, symName: '__ZN4core3ptr44drop_in_place$LT$syn..generics..Generics$GT$17hd99a40daa399962cE', symObjAddr: 0x8F80, symBinAddr: 0x2B2B0, symSize: 0x160 }
  - { offsetInCU: 0x25326, offset: 0xBC156, size: 0x8, addend: 0x0, symName: '__ZN4core3ptr44drop_in_place$LT$syn..item..ImplItemType$GT$17h03f71b654672d2efE', symObjAddr: 0x90E0, symBinAddr: 0x2B410, symSize: 0x1F0 }
  - { offsetInCU: 0x25939, offset: 0xBC769, size: 0x8, addend: 0x0, symName: '__ZN4core3ptr44drop_in_place$LT$syn..lifetime..Lifetime$GT$17h72b16210698c11d3E.llvm.13111819262576482254', symObjAddr: 0x92D0, symBinAddr: 0x2B600, symSize: 0x30 }
  - { offsetInCU: 0x25A92, offset: 0xBC8C2, size: 0x8, addend: 0x0, symName: '__ZN4core3ptr45drop_in_place$LT$proc_macro2..TokenStream$GT$17h79bed4734ce05ff0E.llvm.13111819262576482254', symObjAddr: 0x9300, symBinAddr: 0x2B630, symSize: 0x70 }
  - { offsetInCU: 0x25BF9, offset: 0xBCA29, size: 0x8, addend: 0x0, symName: '__ZN4core3ptr45drop_in_place$LT$syn..generics..TypeParam$GT$17h64d3a4e29c55c328E.llvm.13111819262576482254', symObjAddr: 0x9370, symBinAddr: 0x2B6A0, symSize: 0x230 }
  - { offsetInCU: 0x2642F, offset: 0xBD25F, size: 0x8, addend: 0x0, symName: '__ZN4core3ptr45drop_in_place$LT$syn..item..ImplItemConst$GT$17h38feb12463a689bcE', symObjAddr: 0x95A0, symBinAddr: 0x2B8D0, symSize: 0x210 }
  - { offsetInCU: 0x26A80, offset: 0xBD8B0, size: 0x8, addend: 0x0, symName: '__ZN4core3ptr45drop_in_place$LT$syn..item..TraitItemType$GT$17h9062ad520353f874E', symObjAddr: 0x97B0, symBinAddr: 0x2BAE0, symSize: 0x290 }
  - { offsetInCU: 0x273B6, offset: 0xBE1E6, size: 0x8, addend: 0x0, symName: '__ZN4core3ptr46drop_in_place$LT$syn..generics..ConstParam$GT$17hc25aa244545a099bE.llvm.13111819262576482254', symObjAddr: 0x9A40, symBinAddr: 0x2BD70, symSize: 0x150 }
  - { offsetInCU: 0x277CF, offset: 0xBE5FF, size: 0x8, addend: 0x0, symName: '__ZN4core3ptr46drop_in_place$LT$syn..generics..TraitBound$GT$17he190c5d6513a0f29E.llvm.13111819262576482254', symObjAddr: 0x9B90, symBinAddr: 0x2BEC0, symSize: 0x120 }
  - { offsetInCU: 0x27CCC, offset: 0xBEAFC, size: 0x8, addend: 0x0, symName: '__ZN4core3ptr46drop_in_place$LT$syn..item..TraitItemConst$GT$17h2b4e12295e86a94bE', symObjAddr: 0x9CB0, symBinAddr: 0x2BFE0, symSize: 0x1B0 }
  - { offsetInCU: 0x281AD, offset: 0xBEFDD, size: 0x8, addend: 0x0, symName: '__ZN4core3ptr47drop_in_place$LT$syn..generics..WhereClause$GT$17hdb4e39c791b9b62fE', symObjAddr: 0x9E60, symBinAddr: 0x2C190, symSize: 0x120 }
  - { offsetInCU: 0x28633, offset: 0xBF463, size: 0x8, addend: 0x0, symName: '__ZN4core3ptr47drop_in_place$LT$syn..item..ForeignItemType$GT$17he899ff6daa7cd757E', symObjAddr: 0x9F80, symBinAddr: 0x2C2B0, symSize: 0x1B0 }
  - { offsetInCU: 0x28CA1, offset: 0xBFAD1, size: 0x8, addend: 0x0, symName: '__ZN4core3ptr47drop_in_place$LT$syn..path..GenericArgument$GT$17h45e5488e96fea2b3E', symObjAddr: 0xA130, symBinAddr: 0x2C460, symSize: 0x1C0 }
  - { offsetInCU: 0x29165, offset: 0xBFF95, size: 0x8, addend: 0x0, symName: '__ZN4core3ptr47drop_in_place$LT$thiserror_impl..ast..Field$GT$17h69ed990bfc654c36E.llvm.13111819262576482254', symObjAddr: 0xA2F0, symBinAddr: 0x2C620, symSize: 0x60 }
  - { offsetInCU: 0x2929F, offset: 0xC00CF, size: 0x8, addend: 0x0, symName: '__ZN4core3ptr48drop_in_place$LT$syn..generics..GenericParam$GT$17hc0b31dd7e1adacbeE.llvm.13111819262576482254', symObjAddr: 0xA350, symBinAddr: 0x2C680, symSize: 0x150 }
  - { offsetInCU: 0x29741, offset: 0xC0571, size: 0x8, addend: 0x0, symName: '__ZN4core3ptr48drop_in_place$LT$thiserror_impl..attr..Attrs$GT$17hba26ad72f8a8a551E.llvm.13111819262576482254', symObjAddr: 0xA4A0, symBinAddr: 0x2C7D0, symSize: 0x110 }
  - { offsetInCU: 0x29BD9, offset: 0xC0A09, size: 0x8, addend: 0x0, symName: '__ZN4core3ptr49drop_in_place$LT$syn..generics..LifetimeParam$GT$17h651cc10f73fac619E.llvm.13111819262576482254', symObjAddr: 0xA5B0, symBinAddr: 0x2C8E0, symSize: 0xF0 }
  - { offsetInCU: 0x29FB0, offset: 0xC0DE0, size: 0x8, addend: 0x0, symName: '__ZN4core3ptr49drop_in_place$LT$syn..generics..PredicateType$GT$17h83e62e515d771e9fE.llvm.13111819262576482254', symObjAddr: 0xA6A0, symBinAddr: 0x2C9D0, symSize: 0x180 }
  - { offsetInCU: 0x2A434, offset: 0xC1264, size: 0x8, addend: 0x0, symName: '__ZN4core3ptr49drop_in_place$LT$syn..item..ForeignItemStatic$GT$17hb29acd9503ba529bE', symObjAddr: 0xA820, symBinAddr: 0x2CB50, symSize: 0x190 }
  - { offsetInCU: 0x2AB55, offset: 0xC1985, size: 0x8, addend: 0x0, symName: '__ZN4core3ptr49drop_in_place$LT$thiserror_impl..ast..Variant$GT$17hb9966c286ac8ef3dE.llvm.13111819262576482254', symObjAddr: 0xA9B0, symBinAddr: 0x2CCE0, symSize: 0xC0 }
  - { offsetInCU: 0x2AEB2, offset: 0xC1CE2, size: 0x8, addend: 0x0, symName: '__ZN4core3ptr50drop_in_place$LT$$u5b$syn..item..ImplItem$u5d$$GT$17h6ed7764f6274510bE', symObjAddr: 0xAA70, symBinAddr: 0x2CDA0, symSize: 0x210 }
  - { offsetInCU: 0x2B245, offset: 0xC2075, size: 0x8, addend: 0x0, symName: '__ZN4core3ptr50drop_in_place$LT$syn..generics..TypeParamBound$GT$17h6e04ab046a111c8aE.llvm.13111819262576482254', symObjAddr: 0xAC80, symBinAddr: 0x2CFB0, symSize: 0x180 }
  - { offsetInCU: 0x2B6E9, offset: 0xC2519, size: 0x8, addend: 0x0, symName: '__ZN4core3ptr50drop_in_place$LT$syn..generics..WherePredicate$GT$17hafe61824884fd47cE', symObjAddr: 0xAE00, symBinAddr: 0x2D130, symSize: 0xA0 }
  - { offsetInCU: 0x2B899, offset: 0xC26C9, size: 0x8, addend: 0x0, symName: '__ZN4core3ptr51drop_in_place$LT$$u5b$syn..item..TraitItem$u5d$$GT$17hd59e1a4d490aa6f0E', symObjAddr: 0xAEA0, symBinAddr: 0x2D1D0, symSize: 0x3E0 }
  - { offsetInCU: 0x2C23B, offset: 0xC306B, size: 0x8, addend: 0x0, symName: '__ZN4core3ptr52drop_in_place$LT$syn..restriction..VisRestricted$GT$17h3b63dc342fbce1baE', symObjAddr: 0xB280, symBinAddr: 0x2D5B0, symSize: 0x50 }
  - { offsetInCU: 0x2C3D2, offset: 0xC3202, size: 0x8, addend: 0x0, symName: '__ZN4core3ptr53drop_in_place$LT$$u5b$syn..item..ForeignItem$u5d$$GT$17hf55a12612d7f886fE', symObjAddr: 0xB2D0, symBinAddr: 0x2D600, symSize: 0x370 }
  - { offsetInCU: 0x2CBF0, offset: 0xC3A20, size: 0x8, addend: 0x0, symName: '__ZN4core3ptr58drop_in_place$LT$alloc..vec..Vec$LT$syn..expr..Arm$GT$$GT$17hcff966161a65fe13E', symObjAddr: 0xB640, symBinAddr: 0x2D970, symSize: 0xD0 }
  - { offsetInCU: 0x2CEB7, offset: 0xC3CE7, size: 0x8, addend: 0x0, symName: '__ZN4core3ptr59drop_in_place$LT$alloc..boxed..Box$LT$syn..pat..Pat$GT$$GT$17hfea3558566170af4E.llvm.13111819262576482254', symObjAddr: 0xB710, symBinAddr: 0x2DA40, symSize: 0x50 }
  - { offsetInCU: 0x2D010, offset: 0xC3E40, size: 0x8, addend: 0x0, symName: '__ZN4core3ptr59drop_in_place$LT$alloc..boxed..Box$LT$syn..ty..Type$GT$$GT$17h1e3ded19ecfd1814E', symObjAddr: 0xB760, symBinAddr: 0x2DA90, symSize: 0x50 }
  - { offsetInCU: 0x2D169, offset: 0xC3F99, size: 0x8, addend: 0x0, symName: '__ZN4core3ptr59drop_in_place$LT$alloc..vec..Vec$LT$syn..item..Item$GT$$GT$17h81cb2f4e87a040a9E', symObjAddr: 0xB7B0, symBinAddr: 0x2DAE0, symSize: 0xD0 }
  - { offsetInCU: 0x2D430, offset: 0xC4260, size: 0x8, addend: 0x0, symName: '__ZN4core3ptr61drop_in_place$LT$alloc..boxed..Box$LT$syn..expr..Expr$GT$$GT$17h19b34da7a94e76aaE', symObjAddr: 0xB880, symBinAddr: 0x2DBB0, symSize: 0x50 }
  - { offsetInCU: 0x2D589, offset: 0xC43B9, size: 0x8, addend: 0x0, symName: '__ZN4core3ptr61drop_in_place$LT$alloc..boxed..Box$LT$syn..path..Path$GT$$GT$17h7d7916c2d1987564E', symObjAddr: 0xB8D0, symBinAddr: 0x2DC00, symSize: 0x100 }
  - { offsetInCU: 0x2DAA9, offset: 0xC48D9, size: 0x8, addend: 0x0, symName: '__ZN4core3ptr61drop_in_place$LT$syn..path..ParenthesizedGenericArguments$GT$17ha6f1dbee6b0dc59aE.llvm.13111819262576482254', symObjAddr: 0xB9D0, symBinAddr: 0x2DD00, symSize: 0x170 }
  - { offsetInCU: 0x2E0A6, offset: 0xC4ED6, size: 0x8, addend: 0x0, symName: '__ZN4core3ptr62drop_in_place$LT$alloc..boxed..Box$LT$syn..data..Field$GT$$GT$17h3aba1f010a585014E', symObjAddr: 0xBB40, symBinAddr: 0x2DE70, symSize: 0x50 }
  - { offsetInCU: 0x2E21E, offset: 0xC504E, size: 0x8, addend: 0x0, symName: '__ZN4core3ptr62drop_in_place$LT$alloc..boxed..Box$LT$syn..item..FnArg$GT$$GT$17h96b58976235fe3fdE', symObjAddr: 0xBB90, symBinAddr: 0x2DEC0, symSize: 0x60 }
  - { offsetInCU: 0x2E394, offset: 0xC51C4, size: 0x8, addend: 0x0, symName: '__ZN4core3ptr62drop_in_place$LT$alloc..boxed..Box$LT$syn..stmt..Block$GT$$GT$17h2aa3f86546ffc83bE', symObjAddr: 0xBBF0, symBinAddr: 0x2DF20, symSize: 0xE0 }
  - { offsetInCU: 0x2E7AD, offset: 0xC55DD, size: 0x8, addend: 0x0, symName: '__ZN4core3ptr62drop_in_place$LT$syn..path..AngleBracketedGenericArguments$GT$17h180db4a5977d3b65E.llvm.13111819262576482254', symObjAddr: 0xBCD0, symBinAddr: 0x2E000, symSize: 0x120 }
  - { offsetInCU: 0x2EC33, offset: 0xC5A63, size: 0x8, addend: 0x0, symName: '__ZN4core3ptr63drop_in_place$LT$alloc..vec..Vec$LT$syn..item..ImplItem$GT$$GT$17h09a490b0679b45e4E', symObjAddr: 0xBDF0, symBinAddr: 0x2E120, symSize: 0x80 }
  - { offsetInCU: 0x2EEEB, offset: 0xC5D1B, size: 0x8, addend: 0x0, symName: '__ZN4core3ptr64drop_in_place$LT$alloc..boxed..Box$LT$syn..data..Variant$GT$$GT$17h6628f341a8acd867E', symObjAddr: 0xBE70, symBinAddr: 0x2E1A0, symSize: 0x50 }
  - { offsetInCU: 0x2F044, offset: 0xC5E74, size: 0x8, addend: 0x0, symName: '__ZN4core3ptr64drop_in_place$LT$alloc..boxed..Box$LT$syn..item..UseTree$GT$$GT$17h8d390060c7d3633fE', symObjAddr: 0xBEC0, symBinAddr: 0x2E1F0, symSize: 0x50 }
  - { offsetInCU: 0x2F1BC, offset: 0xC5FEC, size: 0x8, addend: 0x0, symName: '__ZN4core3ptr64drop_in_place$LT$alloc..boxed..Box$LT$syn..pat..FieldPat$GT$$GT$17h00d9a44ce68ea19aE', symObjAddr: 0xBF10, symBinAddr: 0x2E240, symSize: 0x140 }
  - { offsetInCU: 0x2F886, offset: 0xC66B6, size: 0x8, addend: 0x0, symName: '__ZN4core3ptr64drop_in_place$LT$alloc..boxed..Box$LT$syn..ty..BareFnArg$GT$$GT$17h44003be2c1a41840E', symObjAddr: 0xC050, symBinAddr: 0x2E380, symSize: 0x140 }
  - { offsetInCU: 0x2FE19, offset: 0xC6C49, size: 0x8, addend: 0x0, symName: '__ZN4core3ptr64drop_in_place$LT$alloc..vec..Vec$LT$syn..attr..Attribute$GT$$GT$17he78d6a99b3d23420E', symObjAddr: 0xC190, symBinAddr: 0x2E4C0, symSize: 0xD0 }
  - { offsetInCU: 0x30114, offset: 0xC6F44, size: 0x8, addend: 0x0, symName: '__ZN4core3ptr64drop_in_place$LT$alloc..vec..Vec$LT$syn..item..TraitItem$GT$$GT$17h9c27f95d393ca7e0E', symObjAddr: 0xC260, symBinAddr: 0x2E590, symSize: 0x80 }
  - { offsetInCU: 0x303CC, offset: 0xC71FC, size: 0x8, addend: 0x0, symName: '__ZN4core3ptr65drop_in_place$LT$$LP$syn..item..FnArg$C$syn..token..Comma$RP$$GT$17h3dd655e8a6d1440fE', symObjAddr: 0xC2E0, symBinAddr: 0x2E610, symSize: 0x20 }
  - { offsetInCU: 0x30465, offset: 0xC7295, size: 0x8, addend: 0x0, symName: '__ZN4core3ptr65drop_in_place$LT$alloc..vec..Vec$LT$proc_macro..TokenTree$GT$$GT$17he8dd9759c088f459E.llvm.13111819262576482254', symObjAddr: 0xC300, symBinAddr: 0x2E630, symSize: 0x110 }
  - { offsetInCU: 0x30877, offset: 0xC76A7, size: 0x8, addend: 0x0, symName: '__ZN4core3ptr65drop_in_place$LT$core..option..Option$LT$syn..expr..Label$GT$$GT$17hbd2e98b9a59ab4e4E', symObjAddr: 0xC410, symBinAddr: 0x2E740, symSize: 0x30 }
  - { offsetInCU: 0x309B1, offset: 0xC77E1, size: 0x8, addend: 0x0, symName: '__ZN4core3ptr65drop_in_place$LT$core..option..Option$LT$syn..stmt..Block$GT$$GT$17h27157b69ce418ac4E', symObjAddr: 0xC440, symBinAddr: 0x2E770, symSize: 0xD0 }
  - { offsetInCU: 0x30CA5, offset: 0xC7AD5, size: 0x8, addend: 0x0, symName: '__ZN4core3ptr66drop_in_place$LT$alloc..vec..Vec$LT$proc_macro2..TokenTree$GT$$GT$17h815474eb6e30bbcdE', symObjAddr: 0xC510, symBinAddr: 0x2E840, symSize: 0xC0 }
  - { offsetInCU: 0x30F7D, offset: 0xC7DAD, size: 0x8, addend: 0x0, symName: '__ZN4core3ptr66drop_in_place$LT$alloc..vec..Vec$LT$syn..item..ForeignItem$GT$$GT$17h3fad8c8456cdb51fE', symObjAddr: 0xC5D0, symBinAddr: 0x2E900, symSize: 0x80 }
  - { offsetInCU: 0x31235, offset: 0xC8065, size: 0x8, addend: 0x0, symName: '__ZN4core3ptr67drop_in_place$LT$$LP$syn..pat..FieldPat$C$syn..token..Comma$RP$$GT$17hc36eea2d79bc90fcE.llvm.13111819262576482254', symObjAddr: 0xC650, symBinAddr: 0x2E980, symSize: 0x120 }
  - { offsetInCU: 0x317CA, offset: 0xC85FA, size: 0x8, addend: 0x0, symName: '__ZN4core3ptr67drop_in_place$LT$$LP$syn..ty..BareFnArg$C$syn..token..Comma$RP$$GT$17h69ba3fcdc3fedb7dE.llvm.13111819262576482254', symObjAddr: 0xC770, symBinAddr: 0x2EAA0, symSize: 0x110 }
  - { offsetInCU: 0x31C48, offset: 0xC8A78, size: 0x8, addend: 0x0, symName: '__ZN4core3ptr67drop_in_place$LT$alloc..boxed..Box$LT$syn..expr..FieldValue$GT$$GT$17hdc8182e95ad58ca9E', symObjAddr: 0xC880, symBinAddr: 0x2EBB0, symSize: 0x140 }
  - { offsetInCU: 0x321BB, offset: 0xC8FEB, size: 0x8, addend: 0x0, symName: '__ZN4core3ptr68drop_in_place$LT$alloc..boxed..Box$LT$syn..path..PathSegment$GT$$GT$17hfa8f9118d564b9d1E', symObjAddr: 0xC9C0, symBinAddr: 0x2ECF0, symSize: 0xF0 }
  - { offsetInCU: 0x325FB, offset: 0xC942B, size: 0x8, addend: 0x0, symName: '__ZN4core3ptr68drop_in_place$LT$alloc..vec..Vec$LT$proc_macro2..TokenStream$GT$$GT$17h06e883ec5540a4abE.llvm.13111819262576482254', symObjAddr: 0xCAB0, symBinAddr: 0x2EDE0, symSize: 0xC0 }
  - { offsetInCU: 0x328D3, offset: 0xC9703, size: 0x8, addend: 0x0, symName: '__ZN4core3ptr69drop_in_place$LT$core..option..Option$LT$syn..stmt..LocalInit$GT$$GT$17hf46b0f056000d24aE', symObjAddr: 0xCB70, symBinAddr: 0x2EEA0, symSize: 0xC0 }
  - { offsetInCU: 0x32BF7, offset: 0xC9A27, size: 0x8, addend: 0x0, symName: '__ZN4core3ptr70drop_in_place$LT$$LP$syn..expr..FieldValue$C$syn..token..Comma$RP$$GT$17h21d700883d5d16d5E.llvm.13111819262576482254', symObjAddr: 0xCC30, symBinAddr: 0x2EF60, symSize: 0x110 }
  - { offsetInCU: 0x33036, offset: 0xC9E66, size: 0x8, addend: 0x0, symName: '__ZN4core3ptr70drop_in_place$LT$alloc..vec..Vec$LT$thiserror_impl..ast..Field$GT$$GT$17haacc92e9d8b2c0b6E.llvm.13111819262576482254', symObjAddr: 0xCD40, symBinAddr: 0x2F070, symSize: 0x60 }
  - { offsetInCU: 0x33265, offset: 0xCA095, size: 0x8, addend: 0x0, symName: '__ZN4core3ptr70drop_in_place$LT$core..option..Option$LT$syn..ty..BareVariadic$GT$$GT$17hc28c51edcca3a76bE', symObjAddr: 0xCDA0, symBinAddr: 0x2F0D0, symSize: 0x100 }
  - { offsetInCU: 0x336C4, offset: 0xCA4F4, size: 0x8, addend: 0x0, symName: '__ZN4core3ptr72drop_in_place$LT$alloc..boxed..Box$LT$syn..path..GenericArgument$GT$$GT$17h1de85139d5b36a20E.llvm.13111819262576482254', symObjAddr: 0xCEA0, symBinAddr: 0x2F1D0, symSize: 0x190 }
  - { offsetInCU: 0x33BCA, offset: 0xCA9FA, size: 0x8, addend: 0x0, symName: '__ZN4core3ptr72drop_in_place$LT$alloc..vec..Vec$LT$thiserror_impl..ast..Variant$GT$$GT$17hbd49886b508ef17eE', symObjAddr: 0xD030, symBinAddr: 0x2F360, symSize: 0xD0 }
  - { offsetInCU: 0x33EA4, offset: 0xCACD4, size: 0x8, addend: 0x0, symName: '__ZN4core3ptr73drop_in_place$LT$$LP$syn..path..PathSegment$C$syn..token..PathSep$RP$$GT$17he1c27636cafbcf62E.llvm.13111819262576482254', symObjAddr: 0xD100, symBinAddr: 0x2F430, symSize: 0xD0 }
  - { offsetInCU: 0x34167, offset: 0xCAF97, size: 0x8, addend: 0x0, symName: '__ZN4core3ptr73drop_in_place$LT$alloc..boxed..Box$LT$syn..generics..GenericParam$GT$$GT$17hba85bedf707f5b56E', symObjAddr: 0xD1D0, symBinAddr: 0x2F500, symSize: 0x80 }
  - { offsetInCU: 0x342DD, offset: 0xCB10D, size: 0x8, addend: 0x0, symName: '__ZN4core3ptr75drop_in_place$LT$$LP$syn..path..GenericArgument$C$syn..token..Comma$RP$$GT$17h7944d87a44d68abeE.llvm.13111819262576482254', symObjAddr: 0xD250, symBinAddr: 0x2F580, symSize: 0x180 }
  - { offsetInCU: 0x3466B, offset: 0xCB49B, size: 0x8, addend: 0x0, symName: '__ZN4core3ptr75drop_in_place$LT$alloc..boxed..Box$LT$syn..generics..TypeParamBound$GT$$GT$17h9de6927003c48175E', symObjAddr: 0xD3D0, symBinAddr: 0x2F700, symSize: 0x50 }
  - { offsetInCU: 0x347C4, offset: 0xCB5F4, size: 0x8, addend: 0x0, symName: '__ZN4core3ptr75drop_in_place$LT$alloc..boxed..Box$LT$syn..generics..WherePredicate$GT$$GT$17h4118f5b2a5ecd392E', symObjAddr: 0xD420, symBinAddr: 0x2F750, symSize: 0x80 }
  - { offsetInCU: 0x34A5B, offset: 0xCB88B, size: 0x8, addend: 0x0, symName: '__ZN4core3ptr76drop_in_place$LT$$LP$syn..generics..GenericParam$C$syn..token..Comma$RP$$GT$17hc9e7db4259d192bdE.llvm.13111819262576482254', symObjAddr: 0xD4A0, symBinAddr: 0x2F7D0, symSize: 0x40 }
  - { offsetInCU: 0x34A97, offset: 0xCB8C7, size: 0x8, addend: 0x0, symName: '__ZN4core3ptr77drop_in_place$LT$$LP$syn..generics..TypeParamBound$C$syn..token..Plus$RP$$GT$17he75e6876285450efE.llvm.13111819262576482254', symObjAddr: 0xD4E0, symBinAddr: 0x2F810, symSize: 0x1B0 }
  - { offsetInCU: 0x350C0, offset: 0xCBEF0, size: 0x8, addend: 0x0, symName: '__ZN4core3ptr78drop_in_place$LT$$LP$syn..generics..WherePredicate$C$syn..token..Comma$RP$$GT$17h5fa5109d438de0ffE.llvm.13111819262576482254', symObjAddr: 0xD690, symBinAddr: 0x2F9C0, symSize: 0x60 }
  - { offsetInCU: 0x3521D, offset: 0xCC04D, size: 0x8, addend: 0x0, symName: '__ZN4core3ptr86drop_in_place$LT$$LP$syn..token..If$C$alloc..boxed..Box$LT$syn..expr..Expr$GT$$RP$$GT$17hf084f20e51243924E', symObjAddr: 0xD6F0, symBinAddr: 0x2FA20, symSize: 0x50 }
  - { offsetInCU: 0x35430, offset: 0xCC260, size: 0x8, addend: 0x0, symName: '__ZN4core3ptr86drop_in_place$LT$syn..punctuated..Punctuated$LT$syn..pat..Pat$C$syn..token..Or$GT$$GT$17hcbb22f36ec6c0d61E', symObjAddr: 0xD740, symBinAddr: 0x2FA70, symSize: 0x120 }
  - { offsetInCU: 0x358C9, offset: 0xCC6F9, size: 0x8, addend: 0x0, symName: '__ZN4core3ptr87drop_in_place$LT$$LP$alloc..boxed..Box$LT$syn..pat..Pat$GT$$C$syn..token..Colon$RP$$GT$17h620550c7c02154f6E', symObjAddr: 0xD860, symBinAddr: 0x2FB90, symSize: 0x50 }
  - { offsetInCU: 0x35A41, offset: 0xCC871, size: 0x8, addend: 0x0, symName: '__ZN4core3ptr87drop_in_place$LT$core..option..Option$LT$alloc..boxed..Box$LT$syn..ty..Type$GT$$GT$$GT$17h88cbffe9c17480a4E', symObjAddr: 0xD8B0, symBinAddr: 0x2FBE0, symSize: 0x50 }
  - { offsetInCU: 0x35BB1, offset: 0xCC9E1, size: 0x8, addend: 0x0, symName: '__ZN4core3ptr89drop_in_place$LT$core..option..Option$LT$alloc..boxed..Box$LT$syn..expr..Expr$GT$$GT$$GT$17h08776c37df2bd779E', symObjAddr: 0xD900, symBinAddr: 0x2FC30, symSize: 0x50 }
  - { offsetInCU: 0x35D21, offset: 0xCCB51, size: 0x8, addend: 0x0, symName: '__ZN4core3ptr89drop_in_place$LT$syn..punctuated..Punctuated$LT$syn..ty..Type$C$syn..token..Comma$GT$$GT$17h0b943ea2167fa893E.llvm.13111819262576482254', symObjAddr: 0xD950, symBinAddr: 0x2FC80, symSize: 0x120 }
  - { offsetInCU: 0x361A3, offset: 0xCCFD3, size: 0x8, addend: 0x0, symName: '__ZN4core3ptr90drop_in_place$LT$core..option..Option$LT$alloc..boxed..Box$LT$syn..data..Field$GT$$GT$$GT$17hf2a65f6b3039afc7E', symObjAddr: 0xDA70, symBinAddr: 0x2FDA0, symSize: 0x50 }
  - { offsetInCU: 0x36313, offset: 0xCD143, size: 0x8, addend: 0x0, symName: '__ZN4core3ptr90drop_in_place$LT$core..option..Option$LT$alloc..boxed..Box$LT$syn..item..FnArg$GT$$GT$$GT$17h13ae8b5283b03c58E', symObjAddr: 0xDAC0, symBinAddr: 0x2FDF0, symSize: 0x50 }
  - { offsetInCU: 0x364FF, offset: 0xCD32F, size: 0x8, addend: 0x0, symName: '__ZN4core3ptr91drop_in_place$LT$syn..punctuated..Punctuated$LT$syn..expr..Expr$C$syn..token..Comma$GT$$GT$17h103f0875eb2ccdb7E', symObjAddr: 0xDB10, symBinAddr: 0x2FE40, symSize: 0x120 }
  - { offsetInCU: 0x36994, offset: 0xCD7C4, size: 0x8, addend: 0x0, symName: '__ZN4core3ptr92drop_in_place$LT$core..option..Option$LT$$LP$syn..token..As$C$proc_macro2..Ident$RP$$GT$$GT$17h50e780e076db044cE', symObjAddr: 0xDC30, symBinAddr: 0x2FF60, symSize: 0x30 }
  - { offsetInCU: 0x36AAF, offset: 0xCD8DF, size: 0x8, addend: 0x0, symName: '__ZN4core3ptr92drop_in_place$LT$syn..punctuated..Punctuated$LT$syn..data..Field$C$syn..token..Comma$GT$$GT$17hb5d41729697bba6dE', symObjAddr: 0xDC60, symBinAddr: 0x2FF90, symSize: 0x120 }
  - { offsetInCU: 0x36F35, offset: 0xCDD65, size: 0x8, addend: 0x0, symName: '__ZN4core3ptr92drop_in_place$LT$syn..punctuated..Punctuated$LT$syn..item..FnArg$C$syn..token..Comma$GT$$GT$17h665ca7d96003c339E', symObjAddr: 0xDD80, symBinAddr: 0x300B0, symSize: 0x150 }
  - { offsetInCU: 0x37480, offset: 0xCE2B0, size: 0x8, addend: 0x0, symName: '__ZN4core3ptr94drop_in_place$LT$syn..punctuated..Punctuated$LT$syn..data..Variant$C$syn..token..Comma$GT$$GT$17h7378c508f0aa6e6aE', symObjAddr: 0xDED0, symBinAddr: 0x30200, symSize: 0x120 }
  - { offsetInCU: 0x37991, offset: 0xCE7C1, size: 0x8, addend: 0x0, symName: '__ZN4core3ptr94drop_in_place$LT$syn..punctuated..Punctuated$LT$syn..pat..FieldPat$C$syn..token..Comma$GT$$GT$17hb87a72edd8fbc6f6E', symObjAddr: 0xDFF0, symBinAddr: 0x30320, symSize: 0xF0 }
  - { offsetInCU: 0x37D26, offset: 0xCEB56, size: 0x8, addend: 0x0, symName: '__ZN4core3ptr94drop_in_place$LT$syn..punctuated..Punctuated$LT$syn..ty..BareFnArg$C$syn..token..Comma$GT$$GT$17h4b6dd11643d0cec0E', symObjAddr: 0xE0E0, symBinAddr: 0x30410, symSize: 0xF0 }
  - { offsetInCU: 0x38041, offset: 0xCEE71, size: 0x8, addend: 0x0, symName: '__ZN4core3ptr95drop_in_place$LT$core..option..Option$LT$$LP$proc_macro2..Ident$C$syn..token..Colon$RP$$GT$$GT$17h456e81210e33d398E.llvm.13111819262576482254', symObjAddr: 0xE1D0, symBinAddr: 0x30500, symSize: 0x30 }
  - { offsetInCU: 0x3815C, offset: 0xCEF8C, size: 0x8, addend: 0x0, symName: '__ZN4core3ptr96drop_in_place$LT$core..option..Option$LT$alloc..boxed..Box$LT$syn..path..PathSegment$GT$$GT$$GT$17hf77f7ee83a6d4461E.llvm.13111819262576482254', symObjAddr: 0xE200, symBinAddr: 0x30530, symSize: 0xA0 }
  - { offsetInCU: 0x38476, offset: 0xCF2A6, size: 0x8, addend: 0x0, symName: '__ZN4core3ptr97drop_in_place$LT$syn..punctuated..Punctuated$LT$syn..expr..FieldValue$C$syn..token..Comma$GT$$GT$17h0c5ae3e5b554adb1E', symObjAddr: 0xE2F0, symBinAddr: 0x305D0, symSize: 0xF0 }
  - { offsetInCU: 0x38828, offset: 0xCF658, size: 0x8, addend: 0x0, symName: '__ZN4core3ptr98drop_in_place$LT$syn..punctuated..Punctuated$LT$syn..lifetime..Lifetime$C$syn..token..Plus$GT$$GT$17h353e19c7a7747f49E.llvm.13111819262576482254', symObjAddr: 0xE3E0, symBinAddr: 0x306C0, symSize: 0xD0 }
  - { offsetInCU: 0x3BF14, offset: 0xD2D44, size: 0x8, addend: 0x0, symName: '__ZN48_$LT$T$u20$as$u20$core..clone..CloneToUninit$GT$15clone_to_uninit17h18547f6f1b000c0eE', symObjAddr: 0x0, symBinAddr: 0x22330, symSize: 0x330 }
  - { offsetInCU: 0x3DFCE, offset: 0xD4DFE, size: 0x8, addend: 0x0, symName: '__ZN67_$LT$alloc..vec..Vec$LT$T$C$A$GT$$u20$as$u20$core..clone..Clone$GT$5clone17h1a55b6f6b778986eE', symObjAddr: 0xE550, symBinAddr: 0x30790, symSize: 0x240 }
  - { offsetInCU: 0x3F3D1, offset: 0xD6201, size: 0x8, addend: 0x0, symName: '__ZN70_$LT$alloc..vec..Vec$LT$T$C$A$GT$$u20$as$u20$core..ops..drop..Drop$GT$4drop17h062a69478664faddE', symObjAddr: 0xE790, symBinAddr: 0x309D0, symSize: 0xE0 }
  - { offsetInCU: 0x3F535, offset: 0xD6365, size: 0x8, addend: 0x0, symName: '__ZN70_$LT$alloc..vec..Vec$LT$T$C$A$GT$$u20$as$u20$core..ops..drop..Drop$GT$4drop17ha0ae4c928b5b340eE', symObjAddr: 0xF100, symBinAddr: 0x30AB0, symSize: 0xB0 }
  - { offsetInCU: 0x3F69C, offset: 0xD64CC, size: 0x8, addend: 0x0, symName: '__ZN70_$LT$alloc..vec..Vec$LT$T$C$A$GT$$u20$as$u20$core..ops..drop..Drop$GT$4drop17hdad056977f2ec5a6E', symObjAddr: 0xF300, symBinAddr: 0x30B60, symSize: 0xB0 }
  - { offsetInCU: 0x3F6FE, offset: 0xD652E, size: 0x8, addend: 0x0, symName: '__ZN70_$LT$alloc..vec..Vec$LT$T$C$A$GT$$u20$as$u20$core..ops..drop..Drop$GT$4drop17hde439c1020d71170E', symObjAddr: 0xF3B0, symBinAddr: 0x30C10, symSize: 0xB0 }
  - { offsetInCU: 0x400A9, offset: 0xD6ED9, size: 0x8, addend: 0x0, symName: '__ZN98_$LT$alloc..vec..Vec$LT$T$GT$$u20$as$u20$alloc..vec..spec_from_iter..SpecFromIter$LT$T$C$I$GT$$GT$9from_iter17h28f49fe1fcb7415fE', symObjAddr: 0xF510, symBinAddr: 0x30CC0, symSize: 0x3E0 }
  - { offsetInCU: 0x40B69, offset: 0xD7999, size: 0x8, addend: 0x0, symName: '__ZN98_$LT$alloc..vec..Vec$LT$T$GT$$u20$as$u20$alloc..vec..spec_from_iter..SpecFromIter$LT$T$C$I$GT$$GT$9from_iter17h3658fd00721b8ff4E', symObjAddr: 0xF8F0, symBinAddr: 0x310A0, symSize: 0x200 }
  - { offsetInCU: 0x4151B, offset: 0xD834B, size: 0x8, addend: 0x0, symName: '__ZN98_$LT$alloc..vec..Vec$LT$T$GT$$u20$as$u20$alloc..vec..spec_from_iter..SpecFromIter$LT$T$C$I$GT$$GT$9from_iter17h3b14e9e4d217c3abE', symObjAddr: 0xFAF0, symBinAddr: 0x312A0, symSize: 0x3B0 }
  - { offsetInCU: 0x4204C, offset: 0xD8E7C, size: 0x8, addend: 0x0, symName: '__ZN98_$LT$alloc..vec..Vec$LT$T$GT$$u20$as$u20$alloc..vec..spec_from_iter..SpecFromIter$LT$T$C$I$GT$$GT$9from_iter17h530040bbefd2bcc3E', symObjAddr: 0xFEA0, symBinAddr: 0x31650, symSize: 0x105 }
  - { offsetInCU: 0x1E, offset: 0xE6A74, size: 0x8, addend: 0x0, symName: '__ZN100_$LT$syn..punctuated..PrivateIter$LT$T$C$P$GT$$u20$as$u20$core..iter..traits..iterator..Iterator$GT$4next17h9cf73c583b5c1d82E.llvm.12214128097774580257', symObjAddr: 0x0, symBinAddr: 0x31760, symSize: 0x30 }
  - { offsetInCU: 0x6AC, offset: 0xE7102, size: 0x8, addend: 0x0, symName: '__ZN100_$LT$syn..punctuated..PrivateIter$LT$T$C$P$GT$$u20$as$u20$core..iter..traits..iterator..Iterator$GT$4next17h9cf73c583b5c1d82E.llvm.12214128097774580257', symObjAddr: 0x0, symBinAddr: 0x31760, symSize: 0x30 }
  - { offsetInCU: 0x939, offset: 0xE738F, size: 0x8, addend: 0x0, symName: '__ZN100_$LT$syn..punctuated..PrivateIter$LT$T$C$P$GT$$u20$as$u20$core..iter..traits..iterator..Iterator$GT$4next17hc84c35b5701875a0E.llvm.12214128097774580257', symObjAddr: 0x30, symBinAddr: 0x31790, symSize: 0x30 }
  - { offsetInCU: 0xBC6, offset: 0xE761C, size: 0x8, addend: 0x0, symName: '__ZN100_$LT$syn..punctuated..PrivateIter$LT$T$C$P$GT$$u20$as$u20$core..iter..traits..iterator..Iterator$GT$4next17hf7cfc8463b90feecE.llvm.12214128097774580257', symObjAddr: 0x60, symBinAddr: 0x317C0, symSize: 0x30 }
  - { offsetInCU: 0xEE9, offset: 0xE793F, size: 0x8, addend: 0x0, symName: '__ZN111_$LT$syn..punctuated..PrivateIter$LT$T$C$P$GT$$u20$as$u20$core..iter..traits..exact_size..ExactSizeIterator$GT$3len17hebd7b8b0966f48b4E.llvm.12214128097774580257', symObjAddr: 0xF0, symBinAddr: 0x317F0, symSize: 0x30 }
  - { offsetInCU: 0x105A, offset: 0xE7AB0, size: 0x8, addend: 0x0, symName: '__ZN115_$LT$syn..punctuated..PrivateIter$LT$T$C$P$GT$$u20$as$u20$core..iter..traits..double_ended..DoubleEndedIterator$GT$9next_back17h4036b9b370838b37E.llvm.12214128097774580257', symObjAddr: 0x120, symBinAddr: 0x31820, symSize: 0x30 }
  - { offsetInCU: 0x14FC, offset: 0xE7F52, size: 0x8, addend: 0x0, symName: '__ZN57_$LT$I$u20$as$u20$syn..punctuated..IterTrait$LT$T$GT$$GT$9clone_box17h4103079a7d22e65dE.llvm.12214128097774580257', symObjAddr: 0x8230, symBinAddr: 0x39190, symSize: 0x60 }
  - { offsetInCU: 0x17B9, offset: 0xE820F, size: 0x8, addend: 0x0, symName: '__ZN97_$LT$syn..punctuated..Punctuated$LT$T$C$P$GT$$u20$as$u20$core..ops..index..Index$LT$usize$GT$$GT$5index17h432fc72b9d077b31E', symObjAddr: 0x83E0, symBinAddr: 0x391F0, symSize: 0x44 }
  - { offsetInCU: 0x830A, offset: 0xEED60, size: 0x8, addend: 0x0, symName: '__ZN4core3ptr100drop_in_place$LT$core..option..Option$LT$alloc..boxed..Box$LT$syn..path..GenericArgument$GT$$GT$$GT$17h2e23fcc665c67bbcE', symObjAddr: 0x800, symBinAddr: 0x31C70, symSize: 0x50 }
  - { offsetInCU: 0x86A8, offset: 0xEF0FE, size: 0x8, addend: 0x0, symName: '__ZN4core3ptr100drop_in_place$LT$syn..punctuated..Punctuated$LT$syn..path..PathSegment$C$syn..token..PathSep$GT$$GT$17h88ef499c0d6aef1eE', symObjAddr: 0x850, symBinAddr: 0x31CC0, symSize: 0x270 }
  - { offsetInCU: 0x904B, offset: 0xEFAA1, size: 0x8, addend: 0x0, symName: '__ZN4core3ptr103drop_in_place$LT$core..option..Option$LT$alloc..boxed..Box$LT$syn..generics..TypeParamBound$GT$$GT$$GT$17hc183cdae32d85933E', symObjAddr: 0xAC0, symBinAddr: 0x31F30, symSize: 0x50 }
  - { offsetInCU: 0x9256, offset: 0xEFCAC, size: 0x8, addend: 0x0, symName: '__ZN4core3ptr103drop_in_place$LT$syn..punctuated..Punctuated$LT$syn..generics..GenericParam$C$syn..token..Comma$GT$$GT$17h37065c338362bf57E.llvm.12214128097774580257', symObjAddr: 0xB10, symBinAddr: 0x31F80, symSize: 0xF0 }
  - { offsetInCU: 0x9770, offset: 0xF01C6, size: 0x8, addend: 0x0, symName: '__ZN4core3ptr104drop_in_place$LT$syn..punctuated..Punctuated$LT$syn..generics..TypeParamBound$C$syn..token..Plus$GT$$GT$17h1dd988e400e12830E.llvm.12214128097774580257', symObjAddr: 0xC00, symBinAddr: 0x32070, symSize: 0x200 }
  - { offsetInCU: 0xA01A, offset: 0xF0A70, size: 0x8, addend: 0x0, symName: '__ZN4core3ptr34drop_in_place$LT$syn..lit..Lit$GT$17hdbaf11022e700012E', symObjAddr: 0xE00, symBinAddr: 0x32270, symSize: 0x120 }
  - { offsetInCU: 0xA4E9, offset: 0xF0F3F, size: 0x8, addend: 0x0, symName: '__ZN4core3ptr34drop_in_place$LT$syn..pat..Pat$GT$17h5538560f99962f8fE', symObjAddr: 0xF20, symBinAddr: 0x32390, symSize: 0x1090 }
  - { offsetInCU: 0xE4E9, offset: 0xF4F3F, size: 0x8, addend: 0x0, symName: '__ZN4core3ptr34drop_in_place$LT$syn..ty..Type$GT$17hd3c45f8e21f379c6E.llvm.12214128097774580257', symObjAddr: 0x1FB0, symBinAddr: 0x33420, symSize: 0x4F0 }
  - { offsetInCU: 0xFA2C, offset: 0xF6482, size: 0x8, addend: 0x0, symName: '__ZN4core3ptr36drop_in_place$LT$syn..expr..Expr$GT$17h60475bc4bd2b1229E', symObjAddr: 0x24A0, symBinAddr: 0x33910, symSize: 0x27D0 }
  - { offsetInCU: 0x19160, offset: 0xFFBB6, size: 0x8, addend: 0x0, symName: '__ZN4core3ptr36drop_in_place$LT$syn..mac..Macro$GT$17hb9e660146ef6b080E', symObjAddr: 0x4C70, symBinAddr: 0x360E0, symSize: 0x40 }
  - { offsetInCU: 0x1919A, offset: 0xFFBF0, size: 0x8, addend: 0x0, symName: '__ZN4core3ptr36drop_in_place$LT$syn..path..Path$GT$17h0b7d6e52e7c99d5dE', symObjAddr: 0x4CB0, symBinAddr: 0x36120, symSize: 0x240 }
  - { offsetInCU: 0x19B34, offset: 0x10058A, size: 0x8, addend: 0x0, symName: '__ZN4core3ptr37drop_in_place$LT$syn..stmt..Block$GT$17h905d97237c7d3a4cE', symObjAddr: 0x4EF0, symBinAddr: 0x36360, symSize: 0xD0 }
  - { offsetInCU: 0x19E0B, offset: 0x100861, size: 0x8, addend: 0x0, symName: '__ZN4core3ptr38drop_in_place$LT$syn..expr..Member$GT$17hae9680cbed81db26E', symObjAddr: 0x4FC0, symBinAddr: 0x36430, symSize: 0x30 }
  - { offsetInCU: 0x19F07, offset: 0x10095D, size: 0x8, addend: 0x0, symName: '__ZN4core3ptr39drop_in_place$LT$proc_macro2..Ident$GT$17h292f8e82fbbdec86E', symObjAddr: 0x4FF0, symBinAddr: 0x36460, symSize: 0x30 }
  - { offsetInCU: 0x19FE4, offset: 0x100A3A, size: 0x8, addend: 0x0, symName: '__ZN4core3ptr40drop_in_place$LT$syn..ty..ReturnType$GT$17hffa13b3500dec046E', symObjAddr: 0x5020, symBinAddr: 0x36490, symSize: 0x50 }
  - { offsetInCU: 0x1A154, offset: 0x100BAA, size: 0x8, addend: 0x0, symName: '__ZN4core3ptr41drop_in_place$LT$syn..expr..ExprConst$GT$17h1920e50ebeb8637eE', symObjAddr: 0x5070, symBinAddr: 0x364E0, symSize: 0x180 }
  - { offsetInCU: 0x1A70D, offset: 0x101163, size: 0x8, addend: 0x0, symName: '__ZN4core3ptr44drop_in_place$LT$syn..lifetime..Lifetime$GT$17h72b16210698c11d3E', symObjAddr: 0x51F0, symBinAddr: 0x36660, symSize: 0x30 }
  - { offsetInCU: 0x1A93F, offset: 0x101395, size: 0x8, addend: 0x0, symName: '__ZN4core3ptr45drop_in_place$LT$proc_macro2..TokenStream$GT$17h79bed4734ce05ff0E.llvm.12214128097774580257', symObjAddr: 0x5220, symBinAddr: 0x36690, symSize: 0x140 }
  - { offsetInCU: 0x1ADD9, offset: 0x10182F, size: 0x8, addend: 0x0, symName: '__ZN4core3ptr45drop_in_place$LT$syn..generics..TypeParam$GT$17h64d3a4e29c55c328E.llvm.12214128097774580257', symObjAddr: 0x5360, symBinAddr: 0x367D0, symSize: 0x1D0 }
  - { offsetInCU: 0x1B58E, offset: 0x101FE4, size: 0x8, addend: 0x0, symName: '__ZN4core3ptr46drop_in_place$LT$syn..generics..ConstParam$GT$17hc25aa244545a099bE.llvm.12214128097774580257', symObjAddr: 0x5530, symBinAddr: 0x369A0, symSize: 0x150 }
  - { offsetInCU: 0x1B9DB, offset: 0x102431, size: 0x8, addend: 0x0, symName: '__ZN4core3ptr47drop_in_place$LT$syn..path..GenericArgument$GT$17h45e5488e96fea2b3E', symObjAddr: 0x5680, symBinAddr: 0x36AF0, symSize: 0x4A0 }
  - { offsetInCU: 0x1CAE1, offset: 0x103537, size: 0x8, addend: 0x0, symName: '__ZN4core3ptr49drop_in_place$LT$syn..generics..LifetimeParam$GT$17h651cc10f73fac619E.llvm.12214128097774580257', symObjAddr: 0x5B20, symBinAddr: 0x36F90, symSize: 0xF0 }
  - { offsetInCU: 0x1CEC4, offset: 0x10391A, size: 0x8, addend: 0x0, symName: '__ZN4core3ptr50drop_in_place$LT$syn..generics..TypeParamBound$GT$17h6e04ab046a111c8aE', symObjAddr: 0x5C10, symBinAddr: 0x37080, symSize: 0xA0 }
  - { offsetInCU: 0x1D068, offset: 0x103ABE, size: 0x8, addend: 0x0, symName: '__ZN4core3ptr50drop_in_place$LT$syn..generics..WherePredicate$GT$17hafe61824884fd47cE.llvm.12214128097774580257', symObjAddr: 0x5CB0, symBinAddr: 0x37120, symSize: 0xA0 }
  - { offsetInCU: 0x1D20C, offset: 0x103C62, size: 0x8, addend: 0x0, symName: '__ZN4core3ptr58drop_in_place$LT$alloc..vec..Vec$LT$syn..expr..Arm$GT$$GT$17hcff966161a65fe13E', symObjAddr: 0x5D50, symBinAddr: 0x371C0, symSize: 0xD0 }
  - { offsetInCU: 0x1D4CC, offset: 0x103F22, size: 0x8, addend: 0x0, symName: '__ZN4core3ptr59drop_in_place$LT$alloc..boxed..Box$LT$syn..pat..Pat$GT$$GT$17hfea3558566170af4E', symObjAddr: 0x5E20, symBinAddr: 0x37290, symSize: 0x50 }
  - { offsetInCU: 0x1D625, offset: 0x10407B, size: 0x8, addend: 0x0, symName: '__ZN4core3ptr59drop_in_place$LT$alloc..boxed..Box$LT$syn..ty..Type$GT$$GT$17h1e3ded19ecfd1814E', symObjAddr: 0x5E70, symBinAddr: 0x372E0, symSize: 0x50 }
  - { offsetInCU: 0x1D77E, offset: 0x1041D4, size: 0x8, addend: 0x0, symName: '__ZN4core3ptr61drop_in_place$LT$alloc..boxed..Box$LT$syn..expr..Expr$GT$$GT$17h19b34da7a94e76aaE', symObjAddr: 0x5EC0, symBinAddr: 0x37330, symSize: 0x50 }
  - { offsetInCU: 0x1D953, offset: 0x1043A9, size: 0x8, addend: 0x0, symName: '__ZN4core3ptr61drop_in_place$LT$syn..path..ParenthesizedGenericArguments$GT$17ha6f1dbee6b0dc59aE', symObjAddr: 0x5F10, symBinAddr: 0x37380, symSize: 0x170 }
  - { offsetInCU: 0x1DF49, offset: 0x10499F, size: 0x8, addend: 0x0, symName: '__ZN4core3ptr62drop_in_place$LT$syn..path..AngleBracketedGenericArguments$GT$17h180db4a5977d3b65E', symObjAddr: 0x6080, symBinAddr: 0x374F0, symSize: 0x120 }
  - { offsetInCU: 0x1E394, offset: 0x104DEA, size: 0x8, addend: 0x0, symName: '__ZN4core3ptr63drop_in_place$LT$alloc..boxed..Box$LT$syn..lit..LitRepr$GT$$GT$17hb26c2abcbf18777fE', symObjAddr: 0x61A0, symBinAddr: 0x37610, symSize: 0x60 }
  - { offsetInCU: 0x1E69B, offset: 0x1050F1, size: 0x8, addend: 0x0, symName: '__ZN4core3ptr64drop_in_place$LT$alloc..boxed..Box$LT$syn..pat..FieldPat$GT$$GT$17h00d9a44ce68ea19aE', symObjAddr: 0x6200, symBinAddr: 0x37670, symSize: 0x140 }
  - { offsetInCU: 0x1ED68, offset: 0x1057BE, size: 0x8, addend: 0x0, symName: '__ZN4core3ptr64drop_in_place$LT$alloc..boxed..Box$LT$syn..ty..BareFnArg$GT$$GT$17h44003be2c1a41840E', symObjAddr: 0x6340, symBinAddr: 0x377B0, symSize: 0x140 }
  - { offsetInCU: 0x1F2BD, offset: 0x105D13, size: 0x8, addend: 0x0, symName: '__ZN4core3ptr65drop_in_place$LT$alloc..vec..Vec$LT$proc_macro..TokenTree$GT$$GT$17he8dd9759c088f459E.llvm.12214128097774580257', symObjAddr: 0x6480, symBinAddr: 0x378F0, symSize: 0x110 }
  - { offsetInCU: 0x1F6B5, offset: 0x10610B, size: 0x8, addend: 0x0, symName: '__ZN4core3ptr65drop_in_place$LT$core..option..Option$LT$syn..expr..Label$GT$$GT$17hbd2e98b9a59ab4e4E', symObjAddr: 0x6590, symBinAddr: 0x37A00, symSize: 0x30 }
  - { offsetInCU: 0x1F7EF, offset: 0x106245, size: 0x8, addend: 0x0, symName: '__ZN4core3ptr66drop_in_place$LT$core..option..Option$LT$syn..pat..PatRest$GT$$GT$17h314d0b73337583caE', symObjAddr: 0x65C0, symBinAddr: 0x37A30, symSize: 0xE0 }
  - { offsetInCU: 0x1FAE3, offset: 0x106539, size: 0x8, addend: 0x0, symName: '__ZN4core3ptr67drop_in_place$LT$alloc..boxed..Box$LT$syn..expr..FieldValue$GT$$GT$17hdc8182e95ad58ca9E', symObjAddr: 0x66A0, symBinAddr: 0x37B10, symSize: 0x140 }
  - { offsetInCU: 0x20018, offset: 0x106A6E, size: 0x8, addend: 0x0, symName: '__ZN4core3ptr68drop_in_place$LT$alloc..boxed..Box$LT$syn..path..PathSegment$GT$$GT$17hfa8f9118d564b9d1E', symObjAddr: 0x67E0, symBinAddr: 0x37C50, symSize: 0x1B0 }
  - { offsetInCU: 0x20726, offset: 0x10717C, size: 0x8, addend: 0x0, symName: '__ZN4core3ptr70drop_in_place$LT$core..option..Option$LT$syn..ty..BareVariadic$GT$$GT$17hc28c51edcca3a76bE', symObjAddr: 0x6990, symBinAddr: 0x37E00, symSize: 0x100 }
  - { offsetInCU: 0x20B5D, offset: 0x1075B3, size: 0x8, addend: 0x0, symName: '__ZN4core3ptr72drop_in_place$LT$alloc..boxed..Box$LT$syn..path..GenericArgument$GT$$GT$17h1de85139d5b36a20E', symObjAddr: 0x6A90, symBinAddr: 0x37F00, symSize: 0x250 }
  - { offsetInCU: 0x21498, offset: 0x107EEE, size: 0x8, addend: 0x0, symName: '__ZN4core3ptr72drop_in_place$LT$core..option..Option$LT$syn..lifetime..Lifetime$GT$$GT$17h457419cdc338c730E', symObjAddr: 0x6CE0, symBinAddr: 0x38150, symSize: 0x30 }
  - { offsetInCU: 0x215B3, offset: 0x108009, size: 0x8, addend: 0x0, symName: '__ZN4core3ptr73drop_in_place$LT$alloc..boxed..Box$LT$syn..generics..GenericParam$GT$$GT$17hba85bedf707f5b56E.llvm.12214128097774580257', symObjAddr: 0x6D10, symBinAddr: 0x38180, symSize: 0x80 }
  - { offsetInCU: 0x21729, offset: 0x10817F, size: 0x8, addend: 0x0, symName: '__ZN4core3ptr75drop_in_place$LT$alloc..boxed..Box$LT$syn..generics..TypeParamBound$GT$$GT$17h9de6927003c48175E', symObjAddr: 0x6D90, symBinAddr: 0x38200, symSize: 0x180 }
  - { offsetInCU: 0x21D15, offset: 0x10876B, size: 0x8, addend: 0x0, symName: '__ZN4core3ptr86drop_in_place$LT$syn..punctuated..Punctuated$LT$syn..pat..Pat$C$syn..token..Or$GT$$GT$17hcbb22f36ec6c0d61E', symObjAddr: 0x6F10, symBinAddr: 0x38380, symSize: 0x120 }
  - { offsetInCU: 0x22190, offset: 0x108BE6, size: 0x8, addend: 0x0, symName: '__ZN4core3ptr87drop_in_place$LT$core..option..Option$LT$alloc..boxed..Box$LT$syn..pat..Pat$GT$$GT$$GT$17h1156bf901b21da7bE', symObjAddr: 0x7030, symBinAddr: 0x384A0, symSize: 0x50 }
  - { offsetInCU: 0x22300, offset: 0x108D56, size: 0x8, addend: 0x0, symName: '__ZN4core3ptr87drop_in_place$LT$core..option..Option$LT$alloc..boxed..Box$LT$syn..ty..Type$GT$$GT$$GT$17h88cbffe9c17480a4E', symObjAddr: 0x7080, symBinAddr: 0x384F0, symSize: 0x50 }
  - { offsetInCU: 0x22470, offset: 0x108EC6, size: 0x8, addend: 0x0, symName: '__ZN4core3ptr89drop_in_place$LT$core..option..Option$LT$alloc..boxed..Box$LT$syn..expr..Expr$GT$$GT$$GT$17h08776c37df2bd779E', symObjAddr: 0x70D0, symBinAddr: 0x38540, symSize: 0x50 }
  - { offsetInCU: 0x2261E, offset: 0x109074, size: 0x8, addend: 0x0, symName: '__ZN4core3ptr89drop_in_place$LT$syn..punctuated..Punctuated$LT$syn..pat..Pat$C$syn..token..Comma$GT$$GT$17h737401909f20a8f9E', symObjAddr: 0x7120, symBinAddr: 0x38590, symSize: 0x120 }
  - { offsetInCU: 0x22AB0, offset: 0x109506, size: 0x8, addend: 0x0, symName: '__ZN4core3ptr89drop_in_place$LT$syn..punctuated..Punctuated$LT$syn..ty..Type$C$syn..token..Comma$GT$$GT$17h0b943ea2167fa893E', symObjAddr: 0x7240, symBinAddr: 0x386B0, symSize: 0x120 }
  - { offsetInCU: 0x22F2B, offset: 0x109981, size: 0x8, addend: 0x0, symName: '__ZN4core3ptr90drop_in_place$LT$core..option..Option$LT$syn..path..AngleBracketedGenericArguments$GT$$GT$17hd88fdf829c06df5cE', symObjAddr: 0x7360, symBinAddr: 0x387D0, symSize: 0x130 }
  - { offsetInCU: 0x233CD, offset: 0x109E23, size: 0x8, addend: 0x0, symName: '__ZN4core3ptr91drop_in_place$LT$syn..punctuated..Punctuated$LT$syn..expr..Expr$C$syn..token..Comma$GT$$GT$17h103f0875eb2ccdb7E', symObjAddr: 0x7490, symBinAddr: 0x38900, symSize: 0x120 }
  - { offsetInCU: 0x2385B, offset: 0x10A2B1, size: 0x8, addend: 0x0, symName: '__ZN4core3ptr94drop_in_place$LT$syn..punctuated..Punctuated$LT$syn..pat..FieldPat$C$syn..token..Comma$GT$$GT$17hb87a72edd8fbc6f6E', symObjAddr: 0x75B0, symBinAddr: 0x38A20, symSize: 0xF0 }
  - { offsetInCU: 0x23B5A, offset: 0x10A5B0, size: 0x8, addend: 0x0, symName: '__ZN4core3ptr94drop_in_place$LT$syn..punctuated..Punctuated$LT$syn..ty..BareFnArg$C$syn..token..Comma$GT$$GT$17h4b6dd11643d0cec0E', symObjAddr: 0x76A0, symBinAddr: 0x38B10, symSize: 0xF0 }
  - { offsetInCU: 0x23E5B, offset: 0x10A8B1, size: 0x8, addend: 0x0, symName: '__ZN4core3ptr96drop_in_place$LT$core..option..Option$LT$alloc..boxed..Box$LT$syn..path..PathSegment$GT$$GT$$GT$17hf77f7ee83a6d4461E', symObjAddr: 0x7790, symBinAddr: 0x38C00, symSize: 0xA0 }
  - { offsetInCU: 0x240F9, offset: 0x10AB4F, size: 0x8, addend: 0x0, symName: '__ZN4core3ptr97drop_in_place$LT$syn..punctuated..Punctuated$LT$syn..expr..FieldValue$C$syn..token..Comma$GT$$GT$17h0c5ae3e5b554adb1E', symObjAddr: 0x7880, symBinAddr: 0x38CA0, symSize: 0xF0 }
  - { offsetInCU: 0x243F6, offset: 0x10AE4C, size: 0x8, addend: 0x0, symName: '__ZN4core3ptr98drop_in_place$LT$alloc..vec..Vec$LT$$LP$syn..path..GenericArgument$C$syn..token..Comma$RP$$GT$$GT$17haaa4e1d34a7f8334E', symObjAddr: 0x7970, symBinAddr: 0x38D90, symSize: 0xD0 }
  - { offsetInCU: 0x24717, offset: 0x10B16D, size: 0x8, addend: 0x0, symName: '__ZN4core3ptr98drop_in_place$LT$syn..punctuated..Punctuated$LT$syn..lifetime..Lifetime$C$syn..token..Plus$GT$$GT$17h353e19c7a7747f49E.llvm.12214128097774580257', symObjAddr: 0x7A40, symBinAddr: 0x38E60, symSize: 0xD0 }
  - { offsetInCU: 0x2803E, offset: 0x10EA94, size: 0x8, addend: 0x0, symName: __ZN4core4iter6traits10exact_size17ExactSizeIterator8is_empty17h661be0528949a423E.llvm.12214128097774580257, symObjAddr: 0x7B10, symBinAddr: 0x38F30, symSize: 0x30 }
  - { offsetInCU: 0x281B7, offset: 0x10EC0D, size: 0x8, addend: 0x0, symName: __ZN4core4iter6traits12double_ended19DoubleEndedIterator15advance_back_by17hb67c55073ff1a7b1E.llvm.12214128097774580257, symObjAddr: 0x7C90, symBinAddr: 0x38F60, symSize: 0x80 }
  - { offsetInCU: 0x28425, offset: 0x10EE7B, size: 0x8, addend: 0x0, symName: __ZN4core4iter6traits12double_ended19DoubleEndedIterator8nth_back17hcdff8d78606973ffE.llvm.12214128097774580257, symObjAddr: 0x7DB0, symBinAddr: 0x38FE0, symSize: 0xA0 }
  - { offsetInCU: 0x288D2, offset: 0x10F328, size: 0x8, addend: 0x0, symName: __ZN4core4iter6traits8iterator8Iterator10advance_by17hdb3d8c078369edb8E.llvm.12214128097774580257, symObjAddr: 0x7FC0, symBinAddr: 0x39080, symSize: 0x70 }
  - { offsetInCU: 0x28C37, offset: 0x10F68D, size: 0x8, addend: 0x0, symName: __ZN4core4iter6traits8iterator8Iterator3nth17he2149030070f2087E.llvm.12214128097774580257, symObjAddr: 0x8130, symBinAddr: 0x390F0, symSize: 0x80 }
  - { offsetInCU: 0x291F7, offset: 0x10FC4D, size: 0x8, addend: 0x0, symName: __ZN4core4iter6traits8iterator8Iterator9size_hint17ha38608373ea1b465E.llvm.12214128097774580257, symObjAddr: 0x81B0, symBinAddr: 0x39170, symSize: 0x0 }
  - { offsetInCU: 0x2B859, offset: 0x1122AF, size: 0x8, addend: 0x0, symName: _anon.e7604a77920fc156440bbb25bcc0034d.12.llvm.12214128097774580257, symObjAddr: 0x9650, symBinAddr: 0x2805E0, symSize: 0x0 }
  - { offsetInCU: 0x2C4C9, offset: 0x112F1F, size: 0x8, addend: 0x0, symName: '__ZN3syn10punctuated23Punctuated$LT$T$C$P$GT$4push17h0988d57a38989eaaE', symObjAddr: 0x340, symBinAddr: 0x31850, symSize: 0x220 }
  - { offsetInCU: 0x2CC36, offset: 0x11368C, size: 0x8, addend: 0x0, symName: '__ZN3syn10punctuated23Punctuated$LT$T$C$P$GT$4push17hff661fc2b7169c0cE', symObjAddr: 0x560, symBinAddr: 0x31A70, symSize: 0x200 }
  - { offsetInCU: 0x1E, offset: 0x1165BE, size: 0x8, addend: 0x0, symName: __ZN5alloc7raw_vec11finish_grow17hb981b763b150817aE.llvm.14712951387573354975, symObjAddr: 0x0, symBinAddr: 0x39240, symSize: 0xA0 }
  - { offsetInCU: 0x4DA3, offset: 0x11B343, size: 0x8, addend: 0x0, symName: __ZN5alloc7raw_vec11finish_grow17hb981b763b150817aE.llvm.14712951387573354975, symObjAddr: 0x0, symBinAddr: 0x39240, symSize: 0xA0 }
  - { offsetInCU: 0x5FAF, offset: 0x11C54F, size: 0x8, addend: 0x0, symName: '__ZN5alloc7raw_vec19RawVec$LT$T$C$A$GT$7reserve21do_reserve_and_handle17h43417f060d231cc0E', symObjAddr: 0x500, symBinAddr: 0x215830, symSize: 0xA0 }
  - { offsetInCU: 0x62A7, offset: 0x11C847, size: 0x8, addend: 0x0, symName: '__ZN5alloc7raw_vec19RawVec$LT$T$C$A$GT$7reserve21do_reserve_and_handle17h9a01872d1a34087bE', symObjAddr: 0x5A0, symBinAddr: 0x2158D0, symSize: 0xC0 }
  - { offsetInCU: 0x65D4, offset: 0x11CB74, size: 0x8, addend: 0x0, symName: '__ZN5alloc7raw_vec19RawVec$LT$T$C$A$GT$7reserve21do_reserve_and_handle17hb319d0f2f326856eE', symObjAddr: 0x710, symBinAddr: 0x215990, symSize: 0xC0 }
  - { offsetInCU: 0x6901, offset: 0x11CEA1, size: 0x8, addend: 0x0, symName: '__ZN5alloc7raw_vec19RawVec$LT$T$C$A$GT$7reserve21do_reserve_and_handle17hef8cfdc8629f19d6E', symObjAddr: 0x7D0, symBinAddr: 0x215A50, symSize: 0xB0 }
  - { offsetInCU: 0xD406, offset: 0x1239A6, size: 0x8, addend: 0x0, symName: '__ZN5alloc7raw_vec19RawVec$LT$T$C$A$GT$8grow_one17h1acb941691ac3d30E', symObjAddr: 0x880, symBinAddr: 0x392E0, symSize: 0xC0 }
  - { offsetInCU: 0xD749, offset: 0x123CE9, size: 0x8, addend: 0x0, symName: '__ZN5alloc7raw_vec19RawVec$LT$T$C$A$GT$8grow_one17hc6791949ea8e187fE', symObjAddr: 0x940, symBinAddr: 0x393A0, symSize: 0xA0 }
  - { offsetInCU: 0xDC03, offset: 0x1241A3, size: 0x8, addend: 0x0, symName: '__ZN5alloc7raw_vec19RawVec$LT$T$C$A$GT$8grow_one17hd1e4728b896ef019E', symObjAddr: 0x9E0, symBinAddr: 0x39440, symSize: 0xC0 }
  - { offsetInCU: 0xE0D1, offset: 0x124671, size: 0x8, addend: 0x0, symName: '__ZN5alloc7raw_vec19RawVec$LT$T$C$A$GT$8grow_one17hd370540db4d5cb84E', symObjAddr: 0xAA0, symBinAddr: 0x39500, symSize: 0xC0 }
  - { offsetInCU: 0xE410, offset: 0x1249B0, size: 0x8, addend: 0x0, symName: '__ZN5alloc7raw_vec19RawVec$LT$T$C$A$GT$8grow_one17he8322ccabeaecc92E', symObjAddr: 0xB60, symBinAddr: 0x395C0, symSize: 0x0 }
  - { offsetInCU: 0x1E, offset: 0x124DF7, size: 0x8, addend: 0x0, symName: '__ZN4core3ptr42drop_in_place$LT$alloc..string..String$GT$17h0d927eaf88a82778E', symObjAddr: 0x0, symBinAddr: 0x39670, symSize: 0x20 }
  - { offsetInCU: 0xB1, offset: 0x124E8A, size: 0x8, addend: 0x0, symName: '__ZN58_$LT$alloc..string..String$u20$as$u20$core..fmt..Write$GT$10write_char17h04bc467bd68a934bE', symObjAddr: 0x4D0, symBinAddr: 0x39B40, symSize: 0x140 }
  - { offsetInCU: 0x4B6, offset: 0x12528F, size: 0x8, addend: 0x0, symName: '__ZN58_$LT$alloc..string..String$u20$as$u20$core..fmt..Write$GT$9write_str17h46a93205c3443fbaE', symObjAddr: 0x610, symBinAddr: 0x39C80, symSize: 0x60 }
  - { offsetInCU: 0x2D5B, offset: 0x127B34, size: 0x8, addend: 0x0, symName: '__ZN4core3ptr42drop_in_place$LT$alloc..string..String$GT$17h0d927eaf88a82778E', symObjAddr: 0x0, symBinAddr: 0x39670, symSize: 0x20 }
  - { offsetInCU: 0x2F99, offset: 0x127D72, size: 0x8, addend: 0x0, symName: '__ZN4core3ptr45drop_in_place$LT$proc_macro2..TokenStream$GT$17h79bed4734ce05ff0E.llvm.1525182902383561080', symObjAddr: 0x20, symBinAddr: 0x39690, symSize: 0x140 }
  - { offsetInCU: 0x3569, offset: 0x128342, size: 0x8, addend: 0x0, symName: '__ZN4core3ptr48drop_in_place$LT$thiserror_impl..attr..Attrs$GT$17hba26ad72f8a8a551E.llvm.1525182902383561080', symObjAddr: 0x160, symBinAddr: 0x397D0, symSize: 0x110 }
  - { offsetInCU: 0x3A01, offset: 0x1287DA, size: 0x8, addend: 0x0, symName: '__ZN4core3ptr65drop_in_place$LT$alloc..vec..Vec$LT$proc_macro..TokenTree$GT$$GT$17he8dd9759c088f459E.llvm.1525182902383561080', symObjAddr: 0x270, symBinAddr: 0x398E0, symSize: 0x110 }
  - { offsetInCU: 0x3E18, offset: 0x128BF1, size: 0x8, addend: 0x0, symName: '__ZN4core3ptr70drop_in_place$LT$alloc..vec..Vec$LT$thiserror_impl..ast..Field$GT$$GT$17haacc92e9d8b2c0b6E', symObjAddr: 0x380, symBinAddr: 0x399F0, symSize: 0x60 }
  - { offsetInCU: 0x4079, offset: 0x128E52, size: 0x8, addend: 0x0, symName: '__ZN4core3ptr72drop_in_place$LT$alloc..vec..Vec$LT$thiserror_impl..ast..Variant$GT$$GT$17hbd49886b508ef17eE', symObjAddr: 0x3E0, symBinAddr: 0x39A50, symSize: 0xD0 }
  - { offsetInCU: 0x47E8, offset: 0x1295C1, size: 0x8, addend: 0x0, symName: '__ZN53_$LT$core..fmt..Error$u20$as$u20$core..fmt..Debug$GT$3fmt17h03dc662ab152f3aeE', symObjAddr: 0x4B0, symBinAddr: 0x39B20, symSize: 0x20 }
  - { offsetInCU: 0xF207, offset: 0x133FE0, size: 0x8, addend: 0x0, symName: __ZN14thiserror_impl3ast5Input8from_syn17h7ebf9e30714124d8E, symObjAddr: 0x670, symBinAddr: 0x39CE0, symSize: 0x870 }
  - { offsetInCU: 0x10102, offset: 0x134EDB, size: 0x8, addend: 0x0, symName: __ZN14thiserror_impl3ast7Variant8from_syn17h11dd77fa3d4f6198E, symObjAddr: 0xEE0, symBinAddr: 0x3A550, symSize: 0x3E0 }
  - { offsetInCU: 0x1079D, offset: 0x135576, size: 0x8, addend: 0x0, symName: __ZN14thiserror_impl3ast5Field8from_syn17h1ccdab82733583e2E, symObjAddr: 0x12C0, symBinAddr: 0x3A930, symSize: 0x1D0 }
  - { offsetInCU: 0x10CB9, offset: 0x135A92, size: 0x8, addend: 0x0, symName: '__ZN14thiserror_impl4prop43_$LT$impl$u20$thiserror_impl..ast..Enum$GT$13has_backtrace17h46ea957fae3736a5E', symObjAddr: 0x16D0, symBinAddr: 0x3AB00, symSize: 0x220 }
  - { offsetInCU: 0x119E9, offset: 0x1367C2, size: 0x8, addend: 0x0, symName: '__ZN14thiserror_impl4prop44_$LT$impl$u20$thiserror_impl..ast..Field$GT$11source_span17h38398020a592c5deE', symObjAddr: 0x19B0, symBinAddr: 0x3AD20, symSize: 0xB0 }
  - { offsetInCU: 0x12228, offset: 0x137001, size: 0x8, addend: 0x0, symName: '__ZN14thiserror_impl5valid44_$LT$impl$u20$thiserror_impl..ast..Input$GT$8validate17h7b5d0411ddabd248E', symObjAddr: 0x1A60, symBinAddr: 0x3ADD0, symSize: 0xABF }
  - { offsetInCU: 0x1E, offset: 0x13AE34, size: 0x8, addend: 0x0, symName: '__ZN4core3ptr181drop_in_place$LT$hashbrown..scopeguard..ScopeGuard$LT$$RF$mut$u20$hashbrown..raw..RawTableInner$C$hashbrown..raw..RawTableInner..rehash_in_place..$u7b$$u7b$closure$u7d$$u7d$$GT$$GT$17h357a73b0f9e72cfaE', symObjAddr: 0x0, symBinAddr: 0x3B890, symSize: 0xC0 }
  - { offsetInCU: 0x655, offset: 0x13B46B, size: 0x8, addend: 0x0, symName: '__ZN79_$LT$hashbrown..raw..RawTable$LT$T$C$A$GT$$u20$as$u20$core..ops..drop..Drop$GT$4drop17h7f28af6b42de1ec8E', symObjAddr: 0x100, symBinAddr: 0x3B990, symSize: 0x40 }
  - { offsetInCU: 0x13D0, offset: 0x13C1E6, size: 0x8, addend: 0x0, symName: '__ZN4core3ptr181drop_in_place$LT$hashbrown..scopeguard..ScopeGuard$LT$$RF$mut$u20$hashbrown..raw..RawTableInner$C$hashbrown..raw..RawTableInner..rehash_in_place..$u7b$$u7b$closure$u7d$$u7d$$GT$$GT$17h357a73b0f9e72cfaE', symObjAddr: 0x0, symBinAddr: 0x3B890, symSize: 0xC0 }
  - { offsetInCU: 0x1A04, offset: 0x13C81A, size: 0x8, addend: 0x0, symName: '__ZN4core3ptr196drop_in_place$LT$hashbrown..scopeguard..ScopeGuard$LT$hashbrown..raw..RawTableInner$C$hashbrown..raw..RawTableInner..prepare_resize$LT$alloc..alloc..Global$GT$..$u7b$$u7b$closure$u7d$$u7d$$GT$$GT$17h9212df07eca99572E', symObjAddr: 0xC0, symBinAddr: 0x3B950, symSize: 0x40 }
  - { offsetInCU: 0x4B66, offset: 0x13F97C, size: 0x8, addend: 0x0, symName: '__ZN9hashbrown3raw21RawTable$LT$T$C$A$GT$14reserve_rehash17h81412965f2d29512E.llvm.15573222482656942946', symObjAddr: 0x140, symBinAddr: 0x215B00, symSize: 0x750 }
  - { offsetInCU: 0x9B, offset: 0x141E1D, size: 0x8, addend: 0x0, symName: '__ZN58_$LT$alloc..string..String$u20$as$u20$core..fmt..Write$GT$10write_char17h04bc467bd68a934bE', symObjAddr: 0x73D0, symBinAddr: 0x42D90, symSize: 0x140 }
  - { offsetInCU: 0x4A0, offset: 0x142222, size: 0x8, addend: 0x0, symName: '__ZN58_$LT$alloc..string..String$u20$as$u20$core..fmt..Write$GT$9write_str17h46a93205c3443fbaE', symObjAddr: 0x7510, symBinAddr: 0x42ED0, symSize: 0x60 }
  - { offsetInCU: 0x3785, offset: 0x145507, size: 0x8, addend: 0x0, symName: '__ZN4core3ptr100drop_in_place$LT$core..option..Option$LT$alloc..boxed..Box$LT$syn..path..GenericArgument$GT$$GT$$GT$17h2e23fcc665c67bbcE', symObjAddr: 0x10, symBinAddr: 0x3B9D0, symSize: 0x50 }
  - { offsetInCU: 0x3B23, offset: 0x1458A5, size: 0x8, addend: 0x0, symName: '__ZN4core3ptr100drop_in_place$LT$syn..punctuated..Punctuated$LT$syn..path..PathSegment$C$syn..token..PathSep$GT$$GT$17h88ef499c0d6aef1eE', symObjAddr: 0x60, symBinAddr: 0x3BA20, symSize: 0x270 }
  - { offsetInCU: 0x44C6, offset: 0x146248, size: 0x8, addend: 0x0, symName: '__ZN4core3ptr103drop_in_place$LT$core..option..Option$LT$alloc..boxed..Box$LT$syn..generics..TypeParamBound$GT$$GT$$GT$17hc183cdae32d85933E', symObjAddr: 0x2D0, symBinAddr: 0x3BC90, symSize: 0x50 }
  - { offsetInCU: 0x470F, offset: 0x146491, size: 0x8, addend: 0x0, symName: '__ZN4core3ptr103drop_in_place$LT$core..option..Option$LT$alloc..boxed..Box$LT$syn..generics..WherePredicate$GT$$GT$$GT$17h518662c9f24c7a0eE', symObjAddr: 0x320, symBinAddr: 0x3BCE0, symSize: 0xD0 }
  - { offsetInCU: 0x4AA3, offset: 0x146825, size: 0x8, addend: 0x0, symName: '__ZN4core3ptr103drop_in_place$LT$syn..punctuated..Punctuated$LT$syn..generics..GenericParam$C$syn..token..Comma$GT$$GT$17h37065c338362bf57E', symObjAddr: 0x3F0, symBinAddr: 0x3BDB0, symSize: 0xF0 }
  - { offsetInCU: 0x4F60, offset: 0x146CE2, size: 0x8, addend: 0x0, symName: '__ZN4core3ptr104drop_in_place$LT$syn..punctuated..Punctuated$LT$syn..generics..TypeParamBound$C$syn..token..Plus$GT$$GT$17h1dd988e400e12830E', symObjAddr: 0x4E0, symBinAddr: 0x3BEA0, symSize: 0x200 }
  - { offsetInCU: 0x580A, offset: 0x14758C, size: 0x8, addend: 0x0, symName: '__ZN4core3ptr34drop_in_place$LT$syn..lit..Lit$GT$17hdbaf11022e700012E', symObjAddr: 0x6E0, symBinAddr: 0x3C0A0, symSize: 0x120 }
  - { offsetInCU: 0x5CD9, offset: 0x147A5B, size: 0x8, addend: 0x0, symName: '__ZN4core3ptr34drop_in_place$LT$syn..pat..Pat$GT$17h5538560f99962f8fE', symObjAddr: 0x800, symBinAddr: 0x3C1C0, symSize: 0x1090 }
  - { offsetInCU: 0x9CD9, offset: 0x14BA5B, size: 0x8, addend: 0x0, symName: '__ZN4core3ptr34drop_in_place$LT$syn..ty..Type$GT$17hd3c45f8e21f379c6E', symObjAddr: 0x1890, symBinAddr: 0x3D250, symSize: 0x4F0 }
  - { offsetInCU: 0xB21C, offset: 0x14CF9E, size: 0x8, addend: 0x0, symName: '__ZN4core3ptr36drop_in_place$LT$syn..expr..Expr$GT$17h60475bc4bd2b1229E', symObjAddr: 0x1D80, symBinAddr: 0x3D740, symSize: 0x27D0 }
  - { offsetInCU: 0x14950, offset: 0x1566D2, size: 0x8, addend: 0x0, symName: '__ZN4core3ptr36drop_in_place$LT$syn..mac..Macro$GT$17hb9e660146ef6b080E', symObjAddr: 0x4550, symBinAddr: 0x3FF10, symSize: 0x40 }
  - { offsetInCU: 0x1498A, offset: 0x15670C, size: 0x8, addend: 0x0, symName: '__ZN4core3ptr36drop_in_place$LT$syn..path..Path$GT$17h0b7d6e52e7c99d5dE', symObjAddr: 0x4590, symBinAddr: 0x3FF50, symSize: 0x240 }
  - { offsetInCU: 0x15324, offset: 0x1570A6, size: 0x8, addend: 0x0, symName: '__ZN4core3ptr37drop_in_place$LT$syn..stmt..Block$GT$17h905d97237c7d3a4cE', symObjAddr: 0x47D0, symBinAddr: 0x40190, symSize: 0xD0 }
  - { offsetInCU: 0x155FB, offset: 0x15737D, size: 0x8, addend: 0x0, symName: '__ZN4core3ptr38drop_in_place$LT$syn..expr..Member$GT$17hae9680cbed81db26E', symObjAddr: 0x48A0, symBinAddr: 0x40260, symSize: 0x30 }
  - { offsetInCU: 0x156F7, offset: 0x157479, size: 0x8, addend: 0x0, symName: '__ZN4core3ptr39drop_in_place$LT$proc_macro2..Ident$GT$17h292f8e82fbbdec86E', symObjAddr: 0x48D0, symBinAddr: 0x40290, symSize: 0x30 }
  - { offsetInCU: 0x157D4, offset: 0x157556, size: 0x8, addend: 0x0, symName: '__ZN4core3ptr40drop_in_place$LT$syn..ty..ReturnType$GT$17hffa13b3500dec046E', symObjAddr: 0x4900, symBinAddr: 0x402C0, symSize: 0x50 }
  - { offsetInCU: 0x15944, offset: 0x1576C6, size: 0x8, addend: 0x0, symName: '__ZN4core3ptr41drop_in_place$LT$syn..expr..ExprConst$GT$17h1920e50ebeb8637eE', symObjAddr: 0x4950, symBinAddr: 0x40310, symSize: 0x180 }
  - { offsetInCU: 0x15EFD, offset: 0x157C7F, size: 0x8, addend: 0x0, symName: '__ZN4core3ptr42drop_in_place$LT$alloc..string..String$GT$17h0d927eaf88a82778E', symObjAddr: 0x4AD0, symBinAddr: 0x40490, symSize: 0x20 }
  - { offsetInCU: 0x16005, offset: 0x157D87, size: 0x8, addend: 0x0, symName: '__ZN4core3ptr44drop_in_place$LT$syn..lifetime..Lifetime$GT$17h72b16210698c11d3E', symObjAddr: 0x4AF0, symBinAddr: 0x404B0, symSize: 0x30 }
  - { offsetInCU: 0x16237, offset: 0x157FB9, size: 0x8, addend: 0x0, symName: '__ZN4core3ptr45drop_in_place$LT$proc_macro2..TokenStream$GT$17h79bed4734ce05ff0E', symObjAddr: 0x4B20, symBinAddr: 0x404E0, symSize: 0x140 }
  - { offsetInCU: 0x166D1, offset: 0x158453, size: 0x8, addend: 0x0, symName: '__ZN4core3ptr45drop_in_place$LT$syn..generics..TypeParam$GT$17h64d3a4e29c55c328E', symObjAddr: 0x4C60, symBinAddr: 0x40620, symSize: 0x1D0 }
  - { offsetInCU: 0x16E86, offset: 0x158C08, size: 0x8, addend: 0x0, symName: '__ZN4core3ptr46drop_in_place$LT$syn..generics..ConstParam$GT$17hc25aa244545a099bE', symObjAddr: 0x4E30, symBinAddr: 0x407F0, symSize: 0x150 }
  - { offsetInCU: 0x172D3, offset: 0x159055, size: 0x8, addend: 0x0, symName: '__ZN4core3ptr47drop_in_place$LT$syn..path..GenericArgument$GT$17h45e5488e96fea2b3E', symObjAddr: 0x4F80, symBinAddr: 0x40940, symSize: 0x4A0 }
  - { offsetInCU: 0x183D9, offset: 0x15A15B, size: 0x8, addend: 0x0, symName: '__ZN4core3ptr49drop_in_place$LT$syn..generics..LifetimeParam$GT$17h651cc10f73fac619E', symObjAddr: 0x5420, symBinAddr: 0x40DE0, symSize: 0xF0 }
  - { offsetInCU: 0x187BC, offset: 0x15A53E, size: 0x8, addend: 0x0, symName: '__ZN4core3ptr50drop_in_place$LT$syn..generics..TypeParamBound$GT$17h6e04ab046a111c8aE', symObjAddr: 0x5510, symBinAddr: 0x40ED0, symSize: 0xA0 }
  - { offsetInCU: 0x18922, offset: 0x15A6A4, size: 0x8, addend: 0x0, symName: '__ZN4core3ptr58drop_in_place$LT$alloc..vec..Vec$LT$syn..expr..Arm$GT$$GT$17hcff966161a65fe13E', symObjAddr: 0x55B0, symBinAddr: 0x40F70, symSize: 0xD0 }
  - { offsetInCU: 0x18BE2, offset: 0x15A964, size: 0x8, addend: 0x0, symName: '__ZN4core3ptr59drop_in_place$LT$alloc..boxed..Box$LT$syn..pat..Pat$GT$$GT$17hfea3558566170af4E', symObjAddr: 0x5680, symBinAddr: 0x41040, symSize: 0x50 }
  - { offsetInCU: 0x18D3B, offset: 0x15AABD, size: 0x8, addend: 0x0, symName: '__ZN4core3ptr59drop_in_place$LT$alloc..boxed..Box$LT$syn..ty..Type$GT$$GT$17h1e3ded19ecfd1814E', symObjAddr: 0x56D0, symBinAddr: 0x41090, symSize: 0x50 }
  - { offsetInCU: 0x18E94, offset: 0x15AC16, size: 0x8, addend: 0x0, symName: '__ZN4core3ptr61drop_in_place$LT$alloc..boxed..Box$LT$syn..expr..Expr$GT$$GT$17h19b34da7a94e76aaE', symObjAddr: 0x5720, symBinAddr: 0x410E0, symSize: 0x50 }
  - { offsetInCU: 0x19069, offset: 0x15ADEB, size: 0x8, addend: 0x0, symName: '__ZN4core3ptr61drop_in_place$LT$syn..path..ParenthesizedGenericArguments$GT$17ha6f1dbee6b0dc59aE', symObjAddr: 0x5770, symBinAddr: 0x41130, symSize: 0x170 }
  - { offsetInCU: 0x1965F, offset: 0x15B3E1, size: 0x8, addend: 0x0, symName: '__ZN4core3ptr62drop_in_place$LT$syn..path..AngleBracketedGenericArguments$GT$17h180db4a5977d3b65E', symObjAddr: 0x58E0, symBinAddr: 0x412A0, symSize: 0x120 }
  - { offsetInCU: 0x19AAA, offset: 0x15B82C, size: 0x8, addend: 0x0, symName: '__ZN4core3ptr63drop_in_place$LT$alloc..boxed..Box$LT$syn..lit..LitRepr$GT$$GT$17hb26c2abcbf18777fE', symObjAddr: 0x5A00, symBinAddr: 0x413C0, symSize: 0x60 }
  - { offsetInCU: 0x19DB1, offset: 0x15BB33, size: 0x8, addend: 0x0, symName: '__ZN4core3ptr64drop_in_place$LT$alloc..boxed..Box$LT$syn..pat..FieldPat$GT$$GT$17h00d9a44ce68ea19aE', symObjAddr: 0x5A60, symBinAddr: 0x41420, symSize: 0x140 }
  - { offsetInCU: 0x1A47E, offset: 0x15C200, size: 0x8, addend: 0x0, symName: '__ZN4core3ptr64drop_in_place$LT$alloc..boxed..Box$LT$syn..ty..BareFnArg$GT$$GT$17h44003be2c1a41840E', symObjAddr: 0x5BA0, symBinAddr: 0x41560, symSize: 0x140 }
  - { offsetInCU: 0x1A9D3, offset: 0x15C755, size: 0x8, addend: 0x0, symName: '__ZN4core3ptr65drop_in_place$LT$alloc..vec..Vec$LT$proc_macro..TokenTree$GT$$GT$17he8dd9759c088f459E', symObjAddr: 0x5CE0, symBinAddr: 0x416A0, symSize: 0x110 }
  - { offsetInCU: 0x1ADCB, offset: 0x15CB4D, size: 0x8, addend: 0x0, symName: '__ZN4core3ptr65drop_in_place$LT$core..option..Option$LT$syn..expr..Label$GT$$GT$17hbd2e98b9a59ab4e4E', symObjAddr: 0x5DF0, symBinAddr: 0x417B0, symSize: 0x30 }
  - { offsetInCU: 0x1AF05, offset: 0x15CC87, size: 0x8, addend: 0x0, symName: '__ZN4core3ptr66drop_in_place$LT$core..option..Option$LT$syn..pat..PatRest$GT$$GT$17h314d0b73337583caE', symObjAddr: 0x5E20, symBinAddr: 0x417E0, symSize: 0xE0 }
  - { offsetInCU: 0x1B1F9, offset: 0x15CF7B, size: 0x8, addend: 0x0, symName: '__ZN4core3ptr67drop_in_place$LT$alloc..boxed..Box$LT$syn..expr..FieldValue$GT$$GT$17hdc8182e95ad58ca9E', symObjAddr: 0x5F00, symBinAddr: 0x418C0, symSize: 0x140 }
  - { offsetInCU: 0x1B72E, offset: 0x15D4B0, size: 0x8, addend: 0x0, symName: '__ZN4core3ptr68drop_in_place$LT$alloc..boxed..Box$LT$syn..path..PathSegment$GT$$GT$17hfa8f9118d564b9d1E', symObjAddr: 0x6040, symBinAddr: 0x41A00, symSize: 0x1B0 }
  - { offsetInCU: 0x1BE3C, offset: 0x15DBBE, size: 0x8, addend: 0x0, symName: '__ZN4core3ptr70drop_in_place$LT$core..option..Option$LT$syn..ty..BareVariadic$GT$$GT$17hc28c51edcca3a76bE', symObjAddr: 0x61F0, symBinAddr: 0x41BB0, symSize: 0x100 }
  - { offsetInCU: 0x1C273, offset: 0x15DFF5, size: 0x8, addend: 0x0, symName: '__ZN4core3ptr72drop_in_place$LT$alloc..boxed..Box$LT$syn..path..GenericArgument$GT$$GT$17h1de85139d5b36a20E', symObjAddr: 0x62F0, symBinAddr: 0x41CB0, symSize: 0x250 }
  - { offsetInCU: 0x1CBAE, offset: 0x15E930, size: 0x8, addend: 0x0, symName: '__ZN4core3ptr72drop_in_place$LT$core..option..Option$LT$syn..lifetime..Lifetime$GT$$GT$17h457419cdc338c730E', symObjAddr: 0x6540, symBinAddr: 0x41F00, symSize: 0x30 }
  - { offsetInCU: 0x1CCC9, offset: 0x15EA4B, size: 0x8, addend: 0x0, symName: '__ZN4core3ptr73drop_in_place$LT$alloc..boxed..Box$LT$syn..generics..GenericParam$GT$$GT$17hba85bedf707f5b56E', symObjAddr: 0x6570, symBinAddr: 0x41F30, symSize: 0x80 }
  - { offsetInCU: 0x1CE3F, offset: 0x15EBC1, size: 0x8, addend: 0x0, symName: '__ZN4core3ptr75drop_in_place$LT$alloc..boxed..Box$LT$syn..generics..TypeParamBound$GT$$GT$17h9de6927003c48175E', symObjAddr: 0x65F0, symBinAddr: 0x41FB0, symSize: 0x180 }
  - { offsetInCU: 0x1D44A, offset: 0x15F1CC, size: 0x8, addend: 0x0, symName: '__ZN4core3ptr75drop_in_place$LT$core..option..Option$LT$syn..generics..WhereClause$GT$$GT$17h91d6110c9cc0c9e5E', symObjAddr: 0x6770, symBinAddr: 0x42130, symSize: 0x90 }
  - { offsetInCU: 0x1D73E, offset: 0x15F4C0, size: 0x8, addend: 0x0, symName: '__ZN4core3ptr86drop_in_place$LT$syn..punctuated..Punctuated$LT$syn..pat..Pat$C$syn..token..Or$GT$$GT$17hcbb22f36ec6c0d61E', symObjAddr: 0x6800, symBinAddr: 0x421C0, symSize: 0x120 }
  - { offsetInCU: 0x1DBB9, offset: 0x15F93B, size: 0x8, addend: 0x0, symName: '__ZN4core3ptr87drop_in_place$LT$core..option..Option$LT$alloc..boxed..Box$LT$syn..pat..Pat$GT$$GT$$GT$17h1156bf901b21da7bE', symObjAddr: 0x6920, symBinAddr: 0x422E0, symSize: 0x50 }
  - { offsetInCU: 0x1DD29, offset: 0x15FAAB, size: 0x8, addend: 0x0, symName: '__ZN4core3ptr87drop_in_place$LT$core..option..Option$LT$alloc..boxed..Box$LT$syn..ty..Type$GT$$GT$$GT$17h88cbffe9c17480a4E', symObjAddr: 0x6970, symBinAddr: 0x42330, symSize: 0x50 }
  - { offsetInCU: 0x1DE99, offset: 0x15FC1B, size: 0x8, addend: 0x0, symName: '__ZN4core3ptr89drop_in_place$LT$core..option..Option$LT$alloc..boxed..Box$LT$syn..expr..Expr$GT$$GT$$GT$17h08776c37df2bd779E', symObjAddr: 0x69C0, symBinAddr: 0x42380, symSize: 0x50 }
  - { offsetInCU: 0x1E047, offset: 0x15FDC9, size: 0x8, addend: 0x0, symName: '__ZN4core3ptr89drop_in_place$LT$syn..punctuated..Punctuated$LT$syn..pat..Pat$C$syn..token..Comma$GT$$GT$17h737401909f20a8f9E', symObjAddr: 0x6A10, symBinAddr: 0x423D0, symSize: 0x120 }
  - { offsetInCU: 0x1E4D9, offset: 0x16025B, size: 0x8, addend: 0x0, symName: '__ZN4core3ptr89drop_in_place$LT$syn..punctuated..Punctuated$LT$syn..ty..Type$C$syn..token..Comma$GT$$GT$17h0b943ea2167fa893E', symObjAddr: 0x6B30, symBinAddr: 0x424F0, symSize: 0x120 }
  - { offsetInCU: 0x1E954, offset: 0x1606D6, size: 0x8, addend: 0x0, symName: '__ZN4core3ptr90drop_in_place$LT$core..option..Option$LT$syn..path..AngleBracketedGenericArguments$GT$$GT$17hd88fdf829c06df5cE', symObjAddr: 0x6C50, symBinAddr: 0x42610, symSize: 0x130 }
  - { offsetInCU: 0x1EDF6, offset: 0x160B78, size: 0x8, addend: 0x0, symName: '__ZN4core3ptr91drop_in_place$LT$syn..punctuated..Punctuated$LT$syn..expr..Expr$C$syn..token..Comma$GT$$GT$17h103f0875eb2ccdb7E', symObjAddr: 0x6D80, symBinAddr: 0x42740, symSize: 0x120 }
  - { offsetInCU: 0x1F284, offset: 0x161006, size: 0x8, addend: 0x0, symName: '__ZN4core3ptr94drop_in_place$LT$syn..punctuated..Punctuated$LT$syn..pat..FieldPat$C$syn..token..Comma$GT$$GT$17hb87a72edd8fbc6f6E', symObjAddr: 0x6EA0, symBinAddr: 0x42860, symSize: 0xF0 }
  - { offsetInCU: 0x1F583, offset: 0x161305, size: 0x8, addend: 0x0, symName: '__ZN4core3ptr94drop_in_place$LT$syn..punctuated..Punctuated$LT$syn..ty..BareFnArg$C$syn..token..Comma$GT$$GT$17h4b6dd11643d0cec0E', symObjAddr: 0x6F90, symBinAddr: 0x42950, symSize: 0xF0 }
  - { offsetInCU: 0x1F884, offset: 0x161606, size: 0x8, addend: 0x0, symName: '__ZN4core3ptr96drop_in_place$LT$core..option..Option$LT$alloc..boxed..Box$LT$syn..path..PathSegment$GT$$GT$$GT$17hf77f7ee83a6d4461E', symObjAddr: 0x7080, symBinAddr: 0x42A40, symSize: 0xA0 }
  - { offsetInCU: 0x1FB03, offset: 0x161885, size: 0x8, addend: 0x0, symName: '__ZN4core3ptr97drop_in_place$LT$syn..punctuated..Punctuated$LT$syn..expr..FieldValue$C$syn..token..Comma$GT$$GT$17h0c5ae3e5b554adb1E', symObjAddr: 0x7120, symBinAddr: 0x42AE0, symSize: 0xF0 }
  - { offsetInCU: 0x1FE00, offset: 0x161B82, size: 0x8, addend: 0x0, symName: '__ZN4core3ptr98drop_in_place$LT$alloc..vec..Vec$LT$$LP$syn..path..GenericArgument$C$syn..token..Comma$RP$$GT$$GT$17haaa4e1d34a7f8334E', symObjAddr: 0x7210, symBinAddr: 0x42BD0, symSize: 0xD0 }
  - { offsetInCU: 0x20140, offset: 0x161EC2, size: 0x8, addend: 0x0, symName: '__ZN4core3ptr98drop_in_place$LT$syn..punctuated..Punctuated$LT$syn..lifetime..Lifetime$C$syn..token..Plus$GT$$GT$17h353e19c7a7747f49E', symObjAddr: 0x72E0, symBinAddr: 0x42CA0, symSize: 0xD0 }
  - { offsetInCU: 0x20B31, offset: 0x1628B3, size: 0x8, addend: 0x0, symName: '__ZN53_$LT$core..fmt..Error$u20$as$u20$core..fmt..Debug$GT$3fmt17h03dc662ab152f3aeE', symObjAddr: 0x73B0, symBinAddr: 0x42D70, symSize: 0x20 }
  - { offsetInCU: 0x23A61, offset: 0x1657E3, size: 0x8, addend: 0x0, symName: __ZN14thiserror_impl8generics5crawl17h49c5eeb45983bcfbE.llvm.14432837026329938274, symObjAddr: 0x75C0, symBinAddr: 0x42F30, symSize: 0x290 }
  - { offsetInCU: 0x2B073, offset: 0x16CDF5, size: 0x8, addend: 0x0, symName: __ZN14thiserror_impl8generics14InferredBounds6insert17h57486590a98cc4c8E, symObjAddr: 0x7850, symBinAddr: 0x431C0, symSize: 0x560 }
  - { offsetInCU: 0x2BC07, offset: 0x16D989, size: 0x8, addend: 0x0, symName: __ZN14thiserror_impl8generics14InferredBounds6insert17h802377326e691401E, symObjAddr: 0x7DB0, symBinAddr: 0x43720, symSize: 0x5A0 }
  - { offsetInCU: 0x2C7EB, offset: 0x16E56D, size: 0x8, addend: 0x0, symName: __ZN14thiserror_impl8generics14InferredBounds6insert17hc2946f59e9185743E, symObjAddr: 0x8350, symBinAddr: 0x43CC0, symSize: 0x560 }
  - { offsetInCU: 0x2D394, offset: 0x16F116, size: 0x8, addend: 0x0, symName: __ZN14thiserror_impl8generics14InferredBounds6insert17hf29ebf27115e59d7E, symObjAddr: 0x88B0, symBinAddr: 0x44220, symSize: 0x600 }
  - { offsetInCU: 0x2E051, offset: 0x16FDD3, size: 0x8, addend: 0x0, symName: __ZN14thiserror_impl8generics14InferredBounds20augment_where_clause17h85af727158b644adE, symObjAddr: 0x8EB0, symBinAddr: 0x44820, symSize: 0x4C5 }
  - { offsetInCU: 0xE7F, offset: 0x176882, size: 0x8, addend: 0x0, symName: '__ZN4core3ptr160drop_in_place$LT$alloc..collections..btree..map..BTreeMap$LT$$LP$usize$C$thiserror_impl..attr..Trait$RP$$C$alloc..collections..btree..set_val..SetValZST$GT$$GT$17h6e00e97700a1f055E', symObjAddr: 0x40, symBinAddr: 0x44CF0, symSize: 0x80 }
  - { offsetInCU: 0x10FF, offset: 0x176B02, size: 0x8, addend: 0x0, symName: '__ZN4core3ptr349drop_in_place$LT$$LT$alloc..collections..btree..map..IntoIter$LT$K$C$V$C$A$GT$$u20$as$u20$core..ops..drop..Drop$GT$..drop..DropGuard$LT$alloc..string..String$C$$LP$alloc..collections..btree..set..BTreeSet$LT$alloc..string..String$GT$$C$syn..punctuated..Punctuated$LT$proc_macro2..TokenStream$C$syn..token..Plus$GT$$RP$$C$alloc..alloc..Global$GT$$GT$17h976d26475c067b67E.llvm.946694133791154522', symObjAddr: 0x140, symBinAddr: 0x44D70, symSize: 0x60 }
  - { offsetInCU: 0x11B5, offset: 0x176BB8, size: 0x8, addend: 0x0, symName: '__ZN4core3ptr39drop_in_place$LT$proc_macro2..Ident$GT$17h292f8e82fbbdec86E.llvm.946694133791154522', symObjAddr: 0x1A0, symBinAddr: 0x44DD0, symSize: 0x30 }
  - { offsetInCU: 0x12B1, offset: 0x176CB4, size: 0x8, addend: 0x0, symName: '__ZN4core3ptr65drop_in_place$LT$alloc..vec..Vec$LT$proc_macro..TokenTree$GT$$GT$17he8dd9759c088f459E.llvm.946694133791154522', symObjAddr: 0x1F0, symBinAddr: 0x44E00, symSize: 0x110 }
  - { offsetInCU: 0x17FE, offset: 0x177201, size: 0x8, addend: 0x0, symName: '__ZN4core3ptr98drop_in_place$LT$core..option..Option$LT$alloc..boxed..Box$LT$proc_macro2..TokenStream$GT$$GT$$GT$17h7ec8b936484f1959E.llvm.946694133791154522', symObjAddr: 0x300, symBinAddr: 0x44F10, symSize: 0x170 }
  - { offsetInCU: 0x1DED, offset: 0x1777F0, size: 0x8, addend: 0x0, symName: '__ZN4core3ptr99drop_in_place$LT$syn..punctuated..Punctuated$LT$proc_macro2..TokenStream$C$syn..token..Plus$GT$$GT$17hfe450300067cc071E.llvm.946694133791154522', symObjAddr: 0x470, symBinAddr: 0x45080, symSize: 0xC0 }
  - { offsetInCU: 0x63F9, offset: 0x17BDFC, size: 0x8, addend: 0x0, symName: '__ZN99_$LT$alloc..collections..btree..map..BTreeMap$LT$K$C$V$C$A$GT$$u20$as$u20$core..ops..drop..Drop$GT$4drop17h44f1cc9d1ced1f90E', symObjAddr: 0x1FD0, symBinAddr: 0x46830, symSize: 0xD0 }
  - { offsetInCU: 0x66E2, offset: 0x17C0E5, size: 0x8, addend: 0x0, symName: '__ZN99_$LT$alloc..collections..btree..map..BTreeMap$LT$K$C$V$C$A$GT$$u20$as$u20$core..ops..drop..Drop$GT$4drop17h984c59110ccd21f7E', symObjAddr: 0x20A0, symBinAddr: 0x46900, symSize: 0xD0 }
  - { offsetInCU: 0x69E0, offset: 0x17C3E3, size: 0x8, addend: 0x0, symName: '__ZN99_$LT$alloc..collections..btree..map..BTreeMap$LT$K$C$V$C$A$GT$$u20$as$u20$core..ops..drop..Drop$GT$4drop17h9fc94b43be8168eaE', symObjAddr: 0x2170, symBinAddr: 0x469D0, symSize: 0x80 }
  - { offsetInCU: 0x6ACE, offset: 0x17C4D1, size: 0x8, addend: 0x0, symName: '__ZN99_$LT$alloc..collections..btree..map..BTreeMap$LT$K$C$V$C$A$GT$$u20$as$u20$core..ops..drop..Drop$GT$4drop17he529f73fb73bd1e8E', symObjAddr: 0x21F0, symBinAddr: 0x46A50, symSize: 0x310 }
  - { offsetInCU: 0x7298, offset: 0x17CC9B, size: 0x8, addend: 0x0, symName: '__ZN99_$LT$alloc..collections..btree..map..BTreeMap$LT$K$C$V$C$A$GT$$u20$as$u20$core..ops..drop..Drop$GT$4drop17hf3e0ca4c2e01a90eE', symObjAddr: 0x2500, symBinAddr: 0x46D60, symSize: 0xB0 }
  - { offsetInCU: 0x8330, offset: 0x17DD33, size: 0x8, addend: 0x0, symName: '__ZN96_$LT$alloc..collections..btree..map..BTreeMap$LT$K$C$V$C$A$GT$$u20$as$u20$core..clone..Clone$GT$5clone13clone_subtree17h08f1d56b3097020fE.llvm.946694133791154522', symObjAddr: 0x1B50, symBinAddr: 0x46410, symSize: 0x420 }
  - { offsetInCU: 0xACFA, offset: 0x1806FD, size: 0x8, addend: 0x0, symName: '__ZN5alloc11collections5btree3map25BTreeMap$LT$K$C$V$C$A$GT$27bulk_build_from_sorted_iter17hab3af3a7c0d96477E', symObjAddr: 0x530, symBinAddr: 0x45140, symSize: 0xF0 }
  - { offsetInCU: 0xB376, offset: 0x180D79, size: 0x8, addend: 0x0, symName: '__ZN5alloc11collections5btree3map25BTreeMap$LT$K$C$V$C$A$GT$6insert17h34c6ec7230b8c334E', symObjAddr: 0x970, symBinAddr: 0x45230, symSize: 0x190 }
  - { offsetInCU: 0xBA32, offset: 0x181435, size: 0x8, addend: 0x0, symName: '__ZN5alloc11collections5btree3map25BTreeMap$LT$K$C$V$C$A$GT$6insert17he6e4777bbe45a4caE', symObjAddr: 0xB00, symBinAddr: 0x453C0, symSize: 0x190 }
  - { offsetInCU: 0xC25A, offset: 0x181C5D, size: 0x8, addend: 0x0, symName: '__ZN5alloc11collections5btree3map25BTreeMap$LT$K$C$V$C$A$GT$6insert17hfcd30347e2bd14d8E', symObjAddr: 0xC90, symBinAddr: 0x45550, symSize: 0x150 }
  - { offsetInCU: 0xC802, offset: 0x182205, size: 0x8, addend: 0x0, symName: '__ZN5alloc11collections5btree3map25IntoIter$LT$K$C$V$C$A$GT$10dying_next17h66d247f0fcfda915E.llvm.946694133791154522', symObjAddr: 0xDE0, symBinAddr: 0x456A0, symSize: 0x3E0 }
  - { offsetInCU: 0xD1FC, offset: 0x182BFF, size: 0x8, addend: 0x0, symName: '__ZN5alloc11collections5btree3map25IntoIter$LT$K$C$V$C$A$GT$10dying_next17hb5dd580c34c7370eE.llvm.946694133791154522', symObjAddr: 0x11C0, symBinAddr: 0x45A80, symSize: 0x0 }
  - { offsetInCU: 0xDC21, offset: 0x183624, size: 0x8, addend: 0x0, symName: '__ZN5alloc11collections5btree3map25IntoIter$LT$K$C$V$C$A$GT$10dying_next17hc1e271e03fd00aefE.llvm.946694133791154522', symObjAddr: 0x15A0, symBinAddr: 0x45E60, symSize: 0x3E0 }
  - { offsetInCU: 0xE5BB, offset: 0x183FBE, size: 0x8, addend: 0x0, symName: '__ZN5alloc11collections5btree4node173Handle$LT$alloc..collections..btree..node..NodeRef$LT$alloc..collections..btree..node..marker..Dying$C$K$C$V$C$NodeType$GT$$C$alloc..collections..btree..node..marker..KV$GT$12drop_key_val17h38518d02bdf28e69E.llvm.946694133791154522', symObjAddr: 0x1980, symBinAddr: 0x46240, symSize: 0x1D0 }
  - { offsetInCU: 0x1E, offset: 0x18B49F, size: 0x8, addend: 0x0, symName: __ZN3syn5parse11ParseBuffer4step17h7d44ccf000c2e40cE, symObjAddr: 0x0, symBinAddr: 0x46E10, symSize: 0x1E0 }
  - { offsetInCU: 0x1C39, offset: 0x18D0BA, size: 0x8, addend: 0x0, symName: '__ZN4core3ptr100drop_in_place$LT$core..option..Option$LT$alloc..boxed..Box$LT$syn..path..GenericArgument$GT$$GT$$GT$17h2e23fcc665c67bbcE', symObjAddr: 0x870, symBinAddr: 0x47680, symSize: 0x50 }
  - { offsetInCU: 0x1E06, offset: 0x18D287, size: 0x8, addend: 0x0, symName: '__ZN4core3ptr102drop_in_place$LT$syn..punctuated..Punctuated$LT$syn..path..GenericArgument$C$syn..token..Comma$GT$$GT$17hfe232bdb162c7f96E', symObjAddr: 0x8C0, symBinAddr: 0x476D0, symSize: 0xF0 }
  - { offsetInCU: 0x2126, offset: 0x18D5A7, size: 0x8, addend: 0x0, symName: '__ZN4core3ptr103drop_in_place$LT$core..option..Option$LT$alloc..boxed..Box$LT$syn..generics..TypeParamBound$GT$$GT$$GT$17hc183cdae32d85933E', symObjAddr: 0x9B0, symBinAddr: 0x477C0, symSize: 0x50 }
  - { offsetInCU: 0x236F, offset: 0x18D7F0, size: 0x8, addend: 0x0, symName: '__ZN4core3ptr103drop_in_place$LT$core..option..Option$LT$alloc..boxed..Box$LT$syn..generics..WherePredicate$GT$$GT$$GT$17h518662c9f24c7a0eE', symObjAddr: 0xA00, symBinAddr: 0x47810, symSize: 0xD0 }
  - { offsetInCU: 0x2703, offset: 0x18DB84, size: 0x8, addend: 0x0, symName: '__ZN4core3ptr103drop_in_place$LT$syn..punctuated..Punctuated$LT$syn..generics..GenericParam$C$syn..token..Comma$GT$$GT$17h37065c338362bf57E', symObjAddr: 0xAD0, symBinAddr: 0x478E0, symSize: 0xF0 }
  - { offsetInCU: 0x2BFE, offset: 0x18E07F, size: 0x8, addend: 0x0, symName: '__ZN4core3ptr104drop_in_place$LT$syn..punctuated..Punctuated$LT$syn..generics..TypeParamBound$C$syn..token..Plus$GT$$GT$17h1dd988e400e12830E', symObjAddr: 0xBC0, symBinAddr: 0x479D0, symSize: 0x200 }
  - { offsetInCU: 0x34A8, offset: 0x18E929, size: 0x8, addend: 0x0, symName: '__ZN4core3ptr34drop_in_place$LT$syn..lit..Lit$GT$17hdbaf11022e700012E', symObjAddr: 0xDC0, symBinAddr: 0x47BD0, symSize: 0x120 }
  - { offsetInCU: 0x3996, offset: 0x18EE17, size: 0x8, addend: 0x0, symName: '__ZN4core3ptr34drop_in_place$LT$syn..pat..Pat$GT$17h5538560f99962f8fE', symObjAddr: 0xEE0, symBinAddr: 0x47CF0, symSize: 0xF40 }
  - { offsetInCU: 0x745C, offset: 0x1928DD, size: 0x8, addend: 0x0, symName: '__ZN4core3ptr34drop_in_place$LT$syn..ty..Type$GT$17hd3c45f8e21f379c6E', symObjAddr: 0x1E20, symBinAddr: 0x48C30, symSize: 0x580 }
  - { offsetInCU: 0x8CE5, offset: 0x194166, size: 0x8, addend: 0x0, symName: '__ZN4core3ptr36drop_in_place$LT$syn..expr..Expr$GT$17h60475bc4bd2b1229E', symObjAddr: 0x23A0, symBinAddr: 0x491B0, symSize: 0x2730 }
  - { offsetInCU: 0x12145, offset: 0x19D5C6, size: 0x8, addend: 0x0, symName: '__ZN4core3ptr36drop_in_place$LT$syn..mac..Macro$GT$17hb9e660146ef6b080E', symObjAddr: 0x4AD0, symBinAddr: 0x4B8E0, symSize: 0xE0 }
  - { offsetInCU: 0x124CF, offset: 0x19D950, size: 0x8, addend: 0x0, symName: '__ZN4core3ptr36drop_in_place$LT$syn..path..Path$GT$17h0b7d6e52e7c99d5dE', symObjAddr: 0x4BB0, symBinAddr: 0x4B9C0, symSize: 0x240 }
  - { offsetInCU: 0x12E69, offset: 0x19E2EA, size: 0x8, addend: 0x0, symName: '__ZN4core3ptr37drop_in_place$LT$syn..stmt..Block$GT$17h905d97237c7d3a4cE', symObjAddr: 0x4DF0, symBinAddr: 0x4BC00, symSize: 0xD0 }
  - { offsetInCU: 0x131DB, offset: 0x19E65C, size: 0x8, addend: 0x0, symName: '__ZN4core3ptr38drop_in_place$LT$syn..data..Fields$GT$17h43d9b4f771445255E', symObjAddr: 0x4EC0, symBinAddr: 0x4BCD0, symSize: 0x190 }
  - { offsetInCU: 0x136DF, offset: 0x19EB60, size: 0x8, addend: 0x0, symName: '__ZN4core3ptr38drop_in_place$LT$syn..derive..Data$GT$17hf084be50e23ad0eeE', symObjAddr: 0x5050, symBinAddr: 0x4BE60, symSize: 0x1D0 }
  - { offsetInCU: 0x13D85, offset: 0x19F206, size: 0x8, addend: 0x0, symName: '__ZN4core3ptr38drop_in_place$LT$syn..expr..Member$GT$17hae9680cbed81db26E', symObjAddr: 0x5220, symBinAddr: 0x4C030, symSize: 0x30 }
  - { offsetInCU: 0x13E81, offset: 0x19F302, size: 0x8, addend: 0x0, symName: '__ZN4core3ptr39drop_in_place$LT$proc_macro2..Ident$GT$17h292f8e82fbbdec86E', symObjAddr: 0x5250, symBinAddr: 0x4C060, symSize: 0x30 }
  - { offsetInCU: 0x14094, offset: 0x19F515, size: 0x8, addend: 0x0, symName: '__ZN4core3ptr39drop_in_place$LT$syn..buffer..Entry$GT$17h5f59d0ea8883583dE', symObjAddr: 0x5280, symBinAddr: 0x4C090, symSize: 0xB0 }
  - { offsetInCU: 0x1441F, offset: 0x19F8A0, size: 0x8, addend: 0x0, symName: '__ZN4core3ptr40drop_in_place$LT$syn..ty..ReturnType$GT$17hffa13b3500dec046E', symObjAddr: 0x5330, symBinAddr: 0x4C140, symSize: 0x50 }
  - { offsetInCU: 0x1458F, offset: 0x19FA10, size: 0x8, addend: 0x0, symName: '__ZN4core3ptr41drop_in_place$LT$syn..expr..ExprConst$GT$17h1920e50ebeb8637eE', symObjAddr: 0x5380, symBinAddr: 0x4C190, symSize: 0x180 }
  - { offsetInCU: 0x14B48, offset: 0x19FFC9, size: 0x8, addend: 0x0, symName: '__ZN4core3ptr44drop_in_place$LT$syn..generics..Generics$GT$17hd99a40daa399962cE', symObjAddr: 0x5500, symBinAddr: 0x4C310, symSize: 0x40 }
  - { offsetInCU: 0x14B65, offset: 0x19FFE6, size: 0x8, addend: 0x0, symName: '__ZN4core3ptr44drop_in_place$LT$syn..lifetime..Lifetime$GT$17h72b16210698c11d3E', symObjAddr: 0x5540, symBinAddr: 0x4C350, symSize: 0x30 }
  - { offsetInCU: 0x14C61, offset: 0x1A00E2, size: 0x8, addend: 0x0, symName: '__ZN4core3ptr44drop_in_place$LT$syn..parse..ParseBuffer$GT$17h28209f0774cc033fE', symObjAddr: 0x5570, symBinAddr: 0x4C380, symSize: 0x70 }
  - { offsetInCU: 0x14FDD, offset: 0x1A045E, size: 0x8, addend: 0x0, symName: '__ZN4core3ptr45drop_in_place$LT$proc_macro2..TokenStream$GT$17h79bed4734ce05ff0E', symObjAddr: 0x55E0, symBinAddr: 0x4C3F0, symSize: 0x140 }
  - { offsetInCU: 0x15439, offset: 0x1A08BA, size: 0x8, addend: 0x0, symName: '__ZN4core3ptr45drop_in_place$LT$syn..buffer..TokenBuffer$GT$17h3870206a0a71feebE', symObjAddr: 0x5720, symBinAddr: 0x4C530, symSize: 0xC0 }
  - { offsetInCU: 0x156DF, offset: 0x1A0B60, size: 0x8, addend: 0x0, symName: '__ZN4core3ptr45drop_in_place$LT$syn..derive..DeriveInput$GT$17hf8168ef17682e60eE', symObjAddr: 0x57E0, symBinAddr: 0x4C5F0, symSize: 0x190 }
  - { offsetInCU: 0x15C66, offset: 0x1A10E7, size: 0x8, addend: 0x0, symName: '__ZN4core3ptr45drop_in_place$LT$syn..generics..TypeParam$GT$17h64d3a4e29c55c328E', symObjAddr: 0x5970, symBinAddr: 0x4C780, symSize: 0x1D0 }
  - { offsetInCU: 0x1641B, offset: 0x1A189C, size: 0x8, addend: 0x0, symName: '__ZN4core3ptr46drop_in_place$LT$syn..generics..ConstParam$GT$17hc25aa244545a099bE', symObjAddr: 0x5B40, symBinAddr: 0x4C950, symSize: 0x150 }
  - { offsetInCU: 0x16868, offset: 0x1A1CE9, size: 0x8, addend: 0x0, symName: '__ZN4core3ptr47drop_in_place$LT$syn..path..GenericArgument$GT$17h45e5488e96fea2b3E', symObjAddr: 0x5C90, symBinAddr: 0x4CAA0, symSize: 0x450 }
  - { offsetInCU: 0x175DE, offset: 0x1A2A5F, size: 0x8, addend: 0x0, symName: '__ZN4core3ptr49drop_in_place$LT$syn..generics..LifetimeParam$GT$17h651cc10f73fac619E', symObjAddr: 0x60E0, symBinAddr: 0x4CEF0, symSize: 0xF0 }
  - { offsetInCU: 0x179C1, offset: 0x1A2E42, size: 0x8, addend: 0x0, symName: '__ZN4core3ptr49drop_in_place$LT$syn..restriction..Visibility$GT$17h2702546c727a98fcE', symObjAddr: 0x61D0, symBinAddr: 0x4CFE0, symSize: 0x60 }
  - { offsetInCU: 0x17B32, offset: 0x1A2FB3, size: 0x8, addend: 0x0, symName: '__ZN4core3ptr50drop_in_place$LT$syn..generics..TypeParamBound$GT$17h6e04ab046a111c8aE', symObjAddr: 0x6230, symBinAddr: 0x4D040, symSize: 0xA0 }
  - { offsetInCU: 0x17C98, offset: 0x1A3119, size: 0x8, addend: 0x0, symName: '__ZN4core3ptr58drop_in_place$LT$alloc..vec..Vec$LT$syn..expr..Arm$GT$$GT$17hcff966161a65fe13E', symObjAddr: 0x62D0, symBinAddr: 0x4D0E0, symSize: 0xD0 }
  - { offsetInCU: 0x17F58, offset: 0x1A33D9, size: 0x8, addend: 0x0, symName: '__ZN4core3ptr59drop_in_place$LT$alloc..boxed..Box$LT$syn..pat..Pat$GT$$GT$17hfea3558566170af4E', symObjAddr: 0x63A0, symBinAddr: 0x4D1B0, symSize: 0x50 }
  - { offsetInCU: 0x180B1, offset: 0x1A3532, size: 0x8, addend: 0x0, symName: '__ZN4core3ptr59drop_in_place$LT$alloc..boxed..Box$LT$syn..ty..Type$GT$$GT$17h1e3ded19ecfd1814E', symObjAddr: 0x63F0, symBinAddr: 0x4D200, symSize: 0x50 }
  - { offsetInCU: 0x1820A, offset: 0x1A368B, size: 0x8, addend: 0x0, symName: '__ZN4core3ptr61drop_in_place$LT$alloc..boxed..Box$LT$syn..expr..Expr$GT$$GT$17h19b34da7a94e76aaE', symObjAddr: 0x6440, symBinAddr: 0x4D250, symSize: 0x50 }
  - { offsetInCU: 0x18363, offset: 0x1A37E4, size: 0x8, addend: 0x0, symName: '__ZN4core3ptr61drop_in_place$LT$syn..path..ParenthesizedGenericArguments$GT$17ha6f1dbee6b0dc59aE', symObjAddr: 0x6490, symBinAddr: 0x4D2A0, symSize: 0x170 }
  - { offsetInCU: 0x1896C, offset: 0x1A3DED, size: 0x8, addend: 0x0, symName: '__ZN4core3ptr63drop_in_place$LT$alloc..boxed..Box$LT$syn..lit..LitRepr$GT$$GT$17hb26c2abcbf18777fE', symObjAddr: 0x6600, symBinAddr: 0x4D410, symSize: 0x60 }
  - { offsetInCU: 0x18C73, offset: 0x1A40F4, size: 0x8, addend: 0x0, symName: '__ZN4core3ptr64drop_in_place$LT$alloc..boxed..Box$LT$syn..pat..FieldPat$GT$$GT$17h00d9a44ce68ea19aE', symObjAddr: 0x6660, symBinAddr: 0x4D470, symSize: 0x140 }
  - { offsetInCU: 0x19340, offset: 0x1A47C1, size: 0x8, addend: 0x0, symName: '__ZN4core3ptr64drop_in_place$LT$alloc..boxed..Box$LT$syn..ty..BareFnArg$GT$$GT$17h44003be2c1a41840E', symObjAddr: 0x67A0, symBinAddr: 0x4D5B0, symSize: 0x140 }
  - { offsetInCU: 0x19895, offset: 0x1A4D16, size: 0x8, addend: 0x0, symName: '__ZN4core3ptr65drop_in_place$LT$alloc..vec..Vec$LT$proc_macro..TokenTree$GT$$GT$17he8dd9759c088f459E', symObjAddr: 0x68E0, symBinAddr: 0x4D6F0, symSize: 0x110 }
  - { offsetInCU: 0x19C8D, offset: 0x1A510E, size: 0x8, addend: 0x0, symName: '__ZN4core3ptr65drop_in_place$LT$core..option..Option$LT$syn..expr..Label$GT$$GT$17hbd2e98b9a59ab4e4E', symObjAddr: 0x69F0, symBinAddr: 0x4D800, symSize: 0x30 }
  - { offsetInCU: 0x19DC7, offset: 0x1A5248, size: 0x8, addend: 0x0, symName: '__ZN4core3ptr66drop_in_place$LT$core..option..Option$LT$syn..pat..PatRest$GT$$GT$17h314d0b73337583caE', symObjAddr: 0x6A20, symBinAddr: 0x4D830, symSize: 0xE0 }
  - { offsetInCU: 0x1A0BB, offset: 0x1A553C, size: 0x8, addend: 0x0, symName: '__ZN4core3ptr67drop_in_place$LT$alloc..boxed..Box$LT$syn..expr..FieldValue$GT$$GT$17hdc8182e95ad58ca9E', symObjAddr: 0x6B00, symBinAddr: 0x4D910, symSize: 0x140 }
  - { offsetInCU: 0x1A60F, offset: 0x1A5A90, size: 0x8, addend: 0x0, symName: '__ZN4core3ptr70drop_in_place$LT$core..option..Option$LT$syn..ty..BareVariadic$GT$$GT$17hc28c51edcca3a76bE', symObjAddr: 0x6C40, symBinAddr: 0x4DA50, symSize: 0x100 }
  - { offsetInCU: 0x1AA46, offset: 0x1A5EC7, size: 0x8, addend: 0x0, symName: '__ZN4core3ptr72drop_in_place$LT$alloc..boxed..Box$LT$syn..path..GenericArgument$GT$$GT$17h1de85139d5b36a20E', symObjAddr: 0x6D40, symBinAddr: 0x4DB50, symSize: 0x250 }
  - { offsetInCU: 0x1B3DA, offset: 0x1A685B, size: 0x8, addend: 0x0, symName: '__ZN4core3ptr72drop_in_place$LT$core..option..Option$LT$syn..lifetime..Lifetime$GT$$GT$17h457419cdc338c730E', symObjAddr: 0x6F90, symBinAddr: 0x4DDA0, symSize: 0x30 }
  - { offsetInCU: 0x1B4F5, offset: 0x1A6976, size: 0x8, addend: 0x0, symName: '__ZN4core3ptr73drop_in_place$LT$alloc..boxed..Box$LT$syn..generics..GenericParam$GT$$GT$17hba85bedf707f5b56E', symObjAddr: 0x6FC0, symBinAddr: 0x4DDD0, symSize: 0x80 }
  - { offsetInCU: 0x1B66B, offset: 0x1A6AEC, size: 0x8, addend: 0x0, symName: '__ZN4core3ptr75drop_in_place$LT$alloc..boxed..Box$LT$syn..generics..TypeParamBound$GT$$GT$17h9de6927003c48175E', symObjAddr: 0x7040, symBinAddr: 0x4DE50, symSize: 0x180 }
  - { offsetInCU: 0x1BC76, offset: 0x1A70F7, size: 0x8, addend: 0x0, symName: '__ZN4core3ptr75drop_in_place$LT$core..option..Option$LT$syn..generics..WhereClause$GT$$GT$17h91d6110c9cc0c9e5E', symObjAddr: 0x71C0, symBinAddr: 0x4DFD0, symSize: 0x90 }
  - { offsetInCU: 0x1BF6A, offset: 0x1A73EB, size: 0x8, addend: 0x0, symName: '__ZN4core3ptr86drop_in_place$LT$syn..punctuated..Punctuated$LT$syn..pat..Pat$C$syn..token..Or$GT$$GT$17hcbb22f36ec6c0d61E', symObjAddr: 0x7250, symBinAddr: 0x4E060, symSize: 0x120 }
  - { offsetInCU: 0x1C3E5, offset: 0x1A7866, size: 0x8, addend: 0x0, symName: '__ZN4core3ptr87drop_in_place$LT$core..option..Option$LT$alloc..boxed..Box$LT$syn..pat..Pat$GT$$GT$$GT$17h1156bf901b21da7bE', symObjAddr: 0x7370, symBinAddr: 0x4E180, symSize: 0x50 }
  - { offsetInCU: 0x1C555, offset: 0x1A79D6, size: 0x8, addend: 0x0, symName: '__ZN4core3ptr87drop_in_place$LT$core..option..Option$LT$alloc..boxed..Box$LT$syn..ty..Type$GT$$GT$$GT$17h88cbffe9c17480a4E', symObjAddr: 0x73C0, symBinAddr: 0x4E1D0, symSize: 0x50 }
  - { offsetInCU: 0x1C6C5, offset: 0x1A7B46, size: 0x8, addend: 0x0, symName: '__ZN4core3ptr89drop_in_place$LT$core..option..Option$LT$alloc..boxed..Box$LT$syn..expr..Expr$GT$$GT$$GT$17h08776c37df2bd779E', symObjAddr: 0x7410, symBinAddr: 0x4E220, symSize: 0x50 }
  - { offsetInCU: 0x1C873, offset: 0x1A7CF4, size: 0x8, addend: 0x0, symName: '__ZN4core3ptr89drop_in_place$LT$syn..punctuated..Punctuated$LT$syn..pat..Pat$C$syn..token..Comma$GT$$GT$17h737401909f20a8f9E', symObjAddr: 0x7460, symBinAddr: 0x4E270, symSize: 0x120 }
  - { offsetInCU: 0x1CD62, offset: 0x1A81E3, size: 0x8, addend: 0x0, symName: '__ZN4core3ptr90drop_in_place$LT$core..option..Option$LT$alloc..boxed..Box$LT$syn..data..Field$GT$$GT$$GT$17hf2a65f6b3039afc7E', symObjAddr: 0x7580, symBinAddr: 0x4E390, symSize: 0x1B0 }
  - { offsetInCU: 0x1D43F, offset: 0x1A88C0, size: 0x8, addend: 0x0, symName: '__ZN4core3ptr91drop_in_place$LT$syn..punctuated..Punctuated$LT$syn..expr..Expr$C$syn..token..Comma$GT$$GT$17h103f0875eb2ccdb7E', symObjAddr: 0x7730, symBinAddr: 0x4E540, symSize: 0x120 }
  - { offsetInCU: 0x1D949, offset: 0x1A8DCA, size: 0x8, addend: 0x0, symName: '__ZN4core3ptr92drop_in_place$LT$core..option..Option$LT$alloc..boxed..Box$LT$syn..data..Variant$GT$$GT$$GT$17h82e87e4bbbf8c471E', symObjAddr: 0x7850, symBinAddr: 0x4E660, symSize: 0x170 }
  - { offsetInCU: 0x1DEE4, offset: 0x1A9365, size: 0x8, addend: 0x0, symName: '__ZN4core3ptr94drop_in_place$LT$syn..punctuated..Punctuated$LT$syn..pat..FieldPat$C$syn..token..Comma$GT$$GT$17hb87a72edd8fbc6f6E', symObjAddr: 0x79C0, symBinAddr: 0x4E7D0, symSize: 0xF0 }
  - { offsetInCU: 0x1E1E3, offset: 0x1A9664, size: 0x8, addend: 0x0, symName: '__ZN4core3ptr94drop_in_place$LT$syn..punctuated..Punctuated$LT$syn..ty..BareFnArg$C$syn..token..Comma$GT$$GT$17h4b6dd11643d0cec0E', symObjAddr: 0x7AB0, symBinAddr: 0x4E8C0, symSize: 0xF0 }
  - { offsetInCU: 0x1E4E4, offset: 0x1A9965, size: 0x8, addend: 0x0, symName: '__ZN4core3ptr96drop_in_place$LT$core..option..Option$LT$alloc..boxed..Box$LT$syn..path..PathSegment$GT$$GT$$GT$17hf77f7ee83a6d4461E', symObjAddr: 0x7BA0, symBinAddr: 0x4E9B0, symSize: 0x1A0 }
  - { offsetInCU: 0x1EBA5, offset: 0x1AA026, size: 0x8, addend: 0x0, symName: '__ZN4core3ptr97drop_in_place$LT$syn..punctuated..Punctuated$LT$syn..expr..FieldValue$C$syn..token..Comma$GT$$GT$17h0c5ae3e5b554adb1E', symObjAddr: 0x7D40, symBinAddr: 0x4EB50, symSize: 0xF0 }
  - { offsetInCU: 0x1EF1E, offset: 0x1AA39F, size: 0x8, addend: 0x0, symName: '__ZN4core3ptr98drop_in_place$LT$syn..punctuated..Punctuated$LT$syn..lifetime..Lifetime$C$syn..token..Plus$GT$$GT$17h353e19c7a7747f49E', symObjAddr: 0x7E30, symBinAddr: 0x4EC40, symSize: 0xC6 }
  - { offsetInCU: 0x222E9, offset: 0x1AD76A, size: 0x8, addend: 0x0, symName: '__ZN40_$LT$F$u20$as$u20$syn..parse..Parser$GT$6parse217h6050e91597ddbbbdE', symObjAddr: 0x4F0, symBinAddr: 0x47300, symSize: 0x380 }
  - { offsetInCU: 0x22B2A, offset: 0x1ADFAB, size: 0x8, addend: 0x0, symName: __ZN3syn5parse6Parser9parse_str17h0a50df6d3aaa4191E, symObjAddr: 0x1E0, symBinAddr: 0x46FF0, symSize: 0x310 }
  - { offsetInCU: 0x29F84, offset: 0x1B5405, size: 0x8, addend: 0x0, symName: __ZN3syn5parse11ParseBuffer4step17h7d44ccf000c2e40cE, symObjAddr: 0x0, symBinAddr: 0x46E10, symSize: 0x1E0 }
  - { offsetInCU: 0x1E, offset: 0x1B9ADC, size: 0x8, addend: 0x0, symName: __ZN10proc_macro6bridge6client14HandleCounters3get17h2c76d49220b98e92E, symObjAddr: 0x0, symBinAddr: 0x4ED10, symSize: 0x10 }
  - { offsetInCU: 0x40, offset: 0x1B9AFE, size: 0x8, addend: 0x0, symName: ___rustc_proc_macro_decls_c5af9423346e3cac__, symObjAddr: 0x85D8, symBinAddr: 0x280878, symSize: 0x0 }
  - { offsetInCU: 0x4F, offset: 0x1B9B0D, size: 0x8, addend: 0x0, symName: __ZN14thiserror_impl12derive_error17h1b75f76383bf51a2E, symObjAddr: 0x7550, symBinAddr: 0x56260, symSize: 0x156 }
  - { offsetInCU: 0x3A79, offset: 0x1BD537, size: 0x8, addend: 0x0, symName: '__ZN4core3ptr100drop_in_place$LT$core..option..Option$LT$alloc..boxed..Box$LT$syn..path..GenericArgument$GT$$GT$$GT$17h2e23fcc665c67bbcE', symObjAddr: 0x10, symBinAddr: 0x4ED20, symSize: 0x50 }
  - { offsetInCU: 0x3C46, offset: 0x1BD704, size: 0x8, addend: 0x0, symName: '__ZN4core3ptr102drop_in_place$LT$syn..punctuated..Punctuated$LT$syn..path..GenericArgument$C$syn..token..Comma$GT$$GT$17hfe232bdb162c7f96E', symObjAddr: 0x60, symBinAddr: 0x4ED70, symSize: 0xF0 }
  - { offsetInCU: 0x3F66, offset: 0x1BDA24, size: 0x8, addend: 0x0, symName: '__ZN4core3ptr103drop_in_place$LT$core..option..Option$LT$alloc..boxed..Box$LT$syn..generics..TypeParamBound$GT$$GT$$GT$17hc183cdae32d85933E', symObjAddr: 0x150, symBinAddr: 0x4EE60, symSize: 0x50 }
  - { offsetInCU: 0x422B, offset: 0x1BDCE9, size: 0x8, addend: 0x0, symName: '__ZN4core3ptr103drop_in_place$LT$core..option..Option$LT$alloc..boxed..Box$LT$syn..generics..WherePredicate$GT$$GT$$GT$17h518662c9f24c7a0eE', symObjAddr: 0x1A0, symBinAddr: 0x4EEB0, symSize: 0xD0 }
  - { offsetInCU: 0x45BF, offset: 0x1BE07D, size: 0x8, addend: 0x0, symName: '__ZN4core3ptr103drop_in_place$LT$syn..punctuated..Punctuated$LT$syn..generics..GenericParam$C$syn..token..Comma$GT$$GT$17h37065c338362bf57E', symObjAddr: 0x270, symBinAddr: 0x4EF80, symSize: 0xF0 }
  - { offsetInCU: 0x4ABA, offset: 0x1BE578, size: 0x8, addend: 0x0, symName: '__ZN4core3ptr104drop_in_place$LT$syn..punctuated..Punctuated$LT$syn..generics..TypeParamBound$C$syn..token..Plus$GT$$GT$17h1dd988e400e12830E', symObjAddr: 0x360, symBinAddr: 0x4F070, symSize: 0x200 }
  - { offsetInCU: 0x5364, offset: 0x1BEE22, size: 0x8, addend: 0x0, symName: '__ZN4core3ptr34drop_in_place$LT$syn..lit..Lit$GT$17hdbaf11022e700012E', symObjAddr: 0x560, symBinAddr: 0x4F270, symSize: 0x120 }
  - { offsetInCU: 0x5852, offset: 0x1BF310, size: 0x8, addend: 0x0, symName: '__ZN4core3ptr34drop_in_place$LT$syn..pat..Pat$GT$17h5538560f99962f8fE', symObjAddr: 0x680, symBinAddr: 0x4F390, symSize: 0xF40 }
  - { offsetInCU: 0x9318, offset: 0x1C2DD6, size: 0x8, addend: 0x0, symName: '__ZN4core3ptr34drop_in_place$LT$syn..ty..Type$GT$17hd3c45f8e21f379c6E', symObjAddr: 0x15C0, symBinAddr: 0x502D0, symSize: 0x580 }
  - { offsetInCU: 0xABA1, offset: 0x1C465F, size: 0x8, addend: 0x0, symName: '__ZN4core3ptr36drop_in_place$LT$syn..expr..Expr$GT$17h60475bc4bd2b1229E', symObjAddr: 0x1B40, symBinAddr: 0x50850, symSize: 0x2730 }
  - { offsetInCU: 0x14001, offset: 0x1CDABF, size: 0x8, addend: 0x0, symName: '__ZN4core3ptr36drop_in_place$LT$syn..mac..Macro$GT$17hb9e660146ef6b080E', symObjAddr: 0x4270, symBinAddr: 0x52F80, symSize: 0xE0 }
  - { offsetInCU: 0x1438B, offset: 0x1CDE49, size: 0x8, addend: 0x0, symName: '__ZN4core3ptr36drop_in_place$LT$syn..path..Path$GT$17h0b7d6e52e7c99d5dE', symObjAddr: 0x4350, symBinAddr: 0x53060, symSize: 0x240 }
  - { offsetInCU: 0x14D25, offset: 0x1CE7E3, size: 0x8, addend: 0x0, symName: '__ZN4core3ptr37drop_in_place$LT$syn..stmt..Block$GT$17h905d97237c7d3a4cE', symObjAddr: 0x4590, symBinAddr: 0x532A0, symSize: 0xD0 }
  - { offsetInCU: 0x15097, offset: 0x1CEB55, size: 0x8, addend: 0x0, symName: '__ZN4core3ptr38drop_in_place$LT$syn..data..Fields$GT$17h43d9b4f771445255E', symObjAddr: 0x4660, symBinAddr: 0x53370, symSize: 0x190 }
  - { offsetInCU: 0x1559B, offset: 0x1CF059, size: 0x8, addend: 0x0, symName: '__ZN4core3ptr38drop_in_place$LT$syn..derive..Data$GT$17hf084be50e23ad0eeE', symObjAddr: 0x47F0, symBinAddr: 0x53500, symSize: 0x1D0 }
  - { offsetInCU: 0x15C7F, offset: 0x1CF73D, size: 0x8, addend: 0x0, symName: '__ZN4core3ptr38drop_in_place$LT$syn..error..Error$GT$17h60d9715b3711fe29E.llvm.16378854447822449893', symObjAddr: 0x49C0, symBinAddr: 0x536D0, symSize: 0x90 }
  - { offsetInCU: 0x15F2D, offset: 0x1CF9EB, size: 0x8, addend: 0x0, symName: '__ZN4core3ptr38drop_in_place$LT$syn..expr..Member$GT$17hae9680cbed81db26E', symObjAddr: 0x4A50, symBinAddr: 0x53760, symSize: 0x30 }
  - { offsetInCU: 0x16029, offset: 0x1CFAE7, size: 0x8, addend: 0x0, symName: '__ZN4core3ptr39drop_in_place$LT$proc_macro2..Ident$GT$17h292f8e82fbbdec86E', symObjAddr: 0x4A80, symBinAddr: 0x53790, symSize: 0x30 }
  - { offsetInCU: 0x16106, offset: 0x1CFBC4, size: 0x8, addend: 0x0, symName: '__ZN4core3ptr40drop_in_place$LT$syn..ty..ReturnType$GT$17hffa13b3500dec046E', symObjAddr: 0x4AB0, symBinAddr: 0x537C0, symSize: 0x50 }
  - { offsetInCU: 0x16276, offset: 0x1CFD34, size: 0x8, addend: 0x0, symName: '__ZN4core3ptr41drop_in_place$LT$syn..expr..ExprConst$GT$17h1920e50ebeb8637eE', symObjAddr: 0x4B00, symBinAddr: 0x53810, symSize: 0x180 }
  - { offsetInCU: 0x1682F, offset: 0x1D02ED, size: 0x8, addend: 0x0, symName: '__ZN4core3ptr44drop_in_place$LT$syn..generics..Generics$GT$17hd99a40daa399962cE', symObjAddr: 0x4C80, symBinAddr: 0x53990, symSize: 0x40 }
  - { offsetInCU: 0x1684C, offset: 0x1D030A, size: 0x8, addend: 0x0, symName: '__ZN4core3ptr44drop_in_place$LT$syn..lifetime..Lifetime$GT$17h72b16210698c11d3E', symObjAddr: 0x4CC0, symBinAddr: 0x539D0, symSize: 0x30 }
  - { offsetInCU: 0x16A7E, offset: 0x1D053C, size: 0x8, addend: 0x0, symName: '__ZN4core3ptr45drop_in_place$LT$proc_macro2..TokenStream$GT$17h79bed4734ce05ff0E', symObjAddr: 0x4CF0, symBinAddr: 0x53A00, symSize: 0x140 }
  - { offsetInCU: 0x16F56, offset: 0x1D0A14, size: 0x8, addend: 0x0, symName: '__ZN4core3ptr45drop_in_place$LT$syn..derive..DeriveInput$GT$17hf8168ef17682e60eE.llvm.16378854447822449893', symObjAddr: 0x4E30, symBinAddr: 0x53B40, symSize: 0x190 }
  - { offsetInCU: 0x174DD, offset: 0x1D0F9B, size: 0x8, addend: 0x0, symName: '__ZN4core3ptr45drop_in_place$LT$syn..generics..TypeParam$GT$17h64d3a4e29c55c328E', symObjAddr: 0x4FC0, symBinAddr: 0x53CD0, symSize: 0x1D0 }
  - { offsetInCU: 0x17C92, offset: 0x1D1750, size: 0x8, addend: 0x0, symName: '__ZN4core3ptr46drop_in_place$LT$syn..generics..ConstParam$GT$17hc25aa244545a099bE', symObjAddr: 0x5190, symBinAddr: 0x53EA0, symSize: 0x150 }
  - { offsetInCU: 0x180DF, offset: 0x1D1B9D, size: 0x8, addend: 0x0, symName: '__ZN4core3ptr47drop_in_place$LT$syn..path..GenericArgument$GT$17h45e5488e96fea2b3E', symObjAddr: 0x52E0, symBinAddr: 0x53FF0, symSize: 0x450 }
  - { offsetInCU: 0x18E55, offset: 0x1D2913, size: 0x8, addend: 0x0, symName: '__ZN4core3ptr49drop_in_place$LT$syn..generics..LifetimeParam$GT$17h651cc10f73fac619E', symObjAddr: 0x5730, symBinAddr: 0x54440, symSize: 0xF0 }
  - { offsetInCU: 0x19238, offset: 0x1D2CF6, size: 0x8, addend: 0x0, symName: '__ZN4core3ptr49drop_in_place$LT$syn..restriction..Visibility$GT$17h2702546c727a98fcE', symObjAddr: 0x5820, symBinAddr: 0x54530, symSize: 0x60 }
  - { offsetInCU: 0x193A9, offset: 0x1D2E67, size: 0x8, addend: 0x0, symName: '__ZN4core3ptr50drop_in_place$LT$syn..generics..TypeParamBound$GT$17h6e04ab046a111c8aE', symObjAddr: 0x5880, symBinAddr: 0x54590, symSize: 0xA0 }
  - { offsetInCU: 0x1950F, offset: 0x1D2FCD, size: 0x8, addend: 0x0, symName: '__ZN4core3ptr58drop_in_place$LT$alloc..vec..Vec$LT$syn..expr..Arm$GT$$GT$17hcff966161a65fe13E', symObjAddr: 0x5920, symBinAddr: 0x54630, symSize: 0xD0 }
  - { offsetInCU: 0x197CF, offset: 0x1D328D, size: 0x8, addend: 0x0, symName: '__ZN4core3ptr59drop_in_place$LT$alloc..boxed..Box$LT$syn..pat..Pat$GT$$GT$17hfea3558566170af4E', symObjAddr: 0x59F0, symBinAddr: 0x54700, symSize: 0x50 }
  - { offsetInCU: 0x19928, offset: 0x1D33E6, size: 0x8, addend: 0x0, symName: '__ZN4core3ptr59drop_in_place$LT$alloc..boxed..Box$LT$syn..ty..Type$GT$$GT$17h1e3ded19ecfd1814E', symObjAddr: 0x5A40, symBinAddr: 0x54750, symSize: 0x50 }
  - { offsetInCU: 0x19A81, offset: 0x1D353F, size: 0x8, addend: 0x0, symName: '__ZN4core3ptr61drop_in_place$LT$alloc..boxed..Box$LT$syn..expr..Expr$GT$$GT$17h19b34da7a94e76aaE', symObjAddr: 0x5A90, symBinAddr: 0x547A0, symSize: 0x50 }
  - { offsetInCU: 0x19BDA, offset: 0x1D3698, size: 0x8, addend: 0x0, symName: '__ZN4core3ptr61drop_in_place$LT$syn..path..ParenthesizedGenericArguments$GT$17ha6f1dbee6b0dc59aE', symObjAddr: 0x5AE0, symBinAddr: 0x547F0, symSize: 0x170 }
  - { offsetInCU: 0x1A1E3, offset: 0x1D3CA1, size: 0x8, addend: 0x0, symName: '__ZN4core3ptr63drop_in_place$LT$alloc..boxed..Box$LT$syn..lit..LitRepr$GT$$GT$17hb26c2abcbf18777fE', symObjAddr: 0x5C50, symBinAddr: 0x54960, symSize: 0x60 }
  - { offsetInCU: 0x1A4EA, offset: 0x1D3FA8, size: 0x8, addend: 0x0, symName: '__ZN4core3ptr64drop_in_place$LT$alloc..boxed..Box$LT$syn..pat..FieldPat$GT$$GT$17h00d9a44ce68ea19aE', symObjAddr: 0x5CB0, symBinAddr: 0x549C0, symSize: 0x140 }
  - { offsetInCU: 0x1ABB7, offset: 0x1D4675, size: 0x8, addend: 0x0, symName: '__ZN4core3ptr64drop_in_place$LT$alloc..boxed..Box$LT$syn..ty..BareFnArg$GT$$GT$17h44003be2c1a41840E', symObjAddr: 0x5DF0, symBinAddr: 0x54B00, symSize: 0x140 }
  - { offsetInCU: 0x1B10C, offset: 0x1D4BCA, size: 0x8, addend: 0x0, symName: '__ZN4core3ptr65drop_in_place$LT$alloc..vec..Vec$LT$proc_macro..TokenTree$GT$$GT$17he8dd9759c088f459E', symObjAddr: 0x5F30, symBinAddr: 0x54C40, symSize: 0x110 }
  - { offsetInCU: 0x1B504, offset: 0x1D4FC2, size: 0x8, addend: 0x0, symName: '__ZN4core3ptr65drop_in_place$LT$core..option..Option$LT$syn..expr..Label$GT$$GT$17hbd2e98b9a59ab4e4E', symObjAddr: 0x6040, symBinAddr: 0x54D50, symSize: 0x30 }
  - { offsetInCU: 0x1B63E, offset: 0x1D50FC, size: 0x8, addend: 0x0, symName: '__ZN4core3ptr66drop_in_place$LT$core..option..Option$LT$syn..pat..PatRest$GT$$GT$17h314d0b73337583caE', symObjAddr: 0x6070, symBinAddr: 0x54D80, symSize: 0xE0 }
  - { offsetInCU: 0x1B932, offset: 0x1D53F0, size: 0x8, addend: 0x0, symName: '__ZN4core3ptr67drop_in_place$LT$alloc..boxed..Box$LT$syn..expr..FieldValue$GT$$GT$17hdc8182e95ad58ca9E', symObjAddr: 0x6150, symBinAddr: 0x54E60, symSize: 0x140 }
  - { offsetInCU: 0x1BE86, offset: 0x1D5944, size: 0x8, addend: 0x0, symName: '__ZN4core3ptr70drop_in_place$LT$core..option..Option$LT$syn..ty..BareVariadic$GT$$GT$17hc28c51edcca3a76bE', symObjAddr: 0x6290, symBinAddr: 0x54FA0, symSize: 0x100 }
  - { offsetInCU: 0x1C2BD, offset: 0x1D5D7B, size: 0x8, addend: 0x0, symName: '__ZN4core3ptr72drop_in_place$LT$alloc..boxed..Box$LT$syn..path..GenericArgument$GT$$GT$17h1de85139d5b36a20E', symObjAddr: 0x6390, symBinAddr: 0x550A0, symSize: 0x250 }
  - { offsetInCU: 0x1CC51, offset: 0x1D670F, size: 0x8, addend: 0x0, symName: '__ZN4core3ptr72drop_in_place$LT$core..option..Option$LT$syn..lifetime..Lifetime$GT$$GT$17h457419cdc338c730E', symObjAddr: 0x65E0, symBinAddr: 0x552F0, symSize: 0x30 }
  - { offsetInCU: 0x1CD6C, offset: 0x1D682A, size: 0x8, addend: 0x0, symName: '__ZN4core3ptr73drop_in_place$LT$alloc..boxed..Box$LT$syn..generics..GenericParam$GT$$GT$17hba85bedf707f5b56E', symObjAddr: 0x6610, symBinAddr: 0x55320, symSize: 0x80 }
  - { offsetInCU: 0x1CEE2, offset: 0x1D69A0, size: 0x8, addend: 0x0, symName: '__ZN4core3ptr75drop_in_place$LT$alloc..boxed..Box$LT$syn..generics..TypeParamBound$GT$$GT$17h9de6927003c48175E', symObjAddr: 0x6690, symBinAddr: 0x553A0, symSize: 0x180 }
  - { offsetInCU: 0x1D4ED, offset: 0x1D6FAB, size: 0x8, addend: 0x0, symName: '__ZN4core3ptr75drop_in_place$LT$core..option..Option$LT$syn..generics..WhereClause$GT$$GT$17h91d6110c9cc0c9e5E', symObjAddr: 0x6810, symBinAddr: 0x55520, symSize: 0x90 }
  - { offsetInCU: 0x1D7E1, offset: 0x1D729F, size: 0x8, addend: 0x0, symName: '__ZN4core3ptr86drop_in_place$LT$syn..punctuated..Punctuated$LT$syn..pat..Pat$C$syn..token..Or$GT$$GT$17hcbb22f36ec6c0d61E', symObjAddr: 0x68A0, symBinAddr: 0x555B0, symSize: 0x120 }
  - { offsetInCU: 0x1DC5C, offset: 0x1D771A, size: 0x8, addend: 0x0, symName: '__ZN4core3ptr87drop_in_place$LT$core..option..Option$LT$alloc..boxed..Box$LT$syn..pat..Pat$GT$$GT$$GT$17h1156bf901b21da7bE', symObjAddr: 0x69C0, symBinAddr: 0x556D0, symSize: 0x50 }
  - { offsetInCU: 0x1DDCC, offset: 0x1D788A, size: 0x8, addend: 0x0, symName: '__ZN4core3ptr87drop_in_place$LT$core..option..Option$LT$alloc..boxed..Box$LT$syn..ty..Type$GT$$GT$$GT$17h88cbffe9c17480a4E', symObjAddr: 0x6A10, symBinAddr: 0x55720, symSize: 0x50 }
  - { offsetInCU: 0x1DF3C, offset: 0x1D79FA, size: 0x8, addend: 0x0, symName: '__ZN4core3ptr89drop_in_place$LT$core..option..Option$LT$alloc..boxed..Box$LT$syn..expr..Expr$GT$$GT$$GT$17h08776c37df2bd779E', symObjAddr: 0x6A60, symBinAddr: 0x55770, symSize: 0x50 }
  - { offsetInCU: 0x1E0EA, offset: 0x1D7BA8, size: 0x8, addend: 0x0, symName: '__ZN4core3ptr89drop_in_place$LT$syn..punctuated..Punctuated$LT$syn..pat..Pat$C$syn..token..Comma$GT$$GT$17h737401909f20a8f9E', symObjAddr: 0x6AB0, symBinAddr: 0x557C0, symSize: 0x120 }
  - { offsetInCU: 0x1E5D9, offset: 0x1D8097, size: 0x8, addend: 0x0, symName: '__ZN4core3ptr90drop_in_place$LT$core..option..Option$LT$alloc..boxed..Box$LT$syn..data..Field$GT$$GT$$GT$17hf2a65f6b3039afc7E', symObjAddr: 0x6BD0, symBinAddr: 0x558E0, symSize: 0x1B0 }
  - { offsetInCU: 0x1ECB6, offset: 0x1D8774, size: 0x8, addend: 0x0, symName: '__ZN4core3ptr91drop_in_place$LT$syn..punctuated..Punctuated$LT$syn..expr..Expr$C$syn..token..Comma$GT$$GT$17h103f0875eb2ccdb7E', symObjAddr: 0x6D80, symBinAddr: 0x55A90, symSize: 0x120 }
  - { offsetInCU: 0x1F1C0, offset: 0x1D8C7E, size: 0x8, addend: 0x0, symName: '__ZN4core3ptr92drop_in_place$LT$core..option..Option$LT$alloc..boxed..Box$LT$syn..data..Variant$GT$$GT$$GT$17h82e87e4bbbf8c471E', symObjAddr: 0x6EA0, symBinAddr: 0x55BB0, symSize: 0x170 }
  - { offsetInCU: 0x1F75B, offset: 0x1D9219, size: 0x8, addend: 0x0, symName: '__ZN4core3ptr94drop_in_place$LT$syn..punctuated..Punctuated$LT$syn..pat..FieldPat$C$syn..token..Comma$GT$$GT$17hb87a72edd8fbc6f6E', symObjAddr: 0x7010, symBinAddr: 0x55D20, symSize: 0xF0 }
  - { offsetInCU: 0x1FA5A, offset: 0x1D9518, size: 0x8, addend: 0x0, symName: '__ZN4core3ptr94drop_in_place$LT$syn..punctuated..Punctuated$LT$syn..ty..BareFnArg$C$syn..token..Comma$GT$$GT$17h4b6dd11643d0cec0E', symObjAddr: 0x7100, symBinAddr: 0x55E10, symSize: 0xF0 }
  - { offsetInCU: 0x1FD5B, offset: 0x1D9819, size: 0x8, addend: 0x0, symName: '__ZN4core3ptr96drop_in_place$LT$core..option..Option$LT$alloc..boxed..Box$LT$syn..path..PathSegment$GT$$GT$$GT$17hf77f7ee83a6d4461E', symObjAddr: 0x71F0, symBinAddr: 0x55F00, symSize: 0x1A0 }
  - { offsetInCU: 0x2041C, offset: 0x1D9EDA, size: 0x8, addend: 0x0, symName: '__ZN4core3ptr97drop_in_place$LT$syn..punctuated..Punctuated$LT$syn..expr..FieldValue$C$syn..token..Comma$GT$$GT$17h0c5ae3e5b554adb1E', symObjAddr: 0x7390, symBinAddr: 0x560A0, symSize: 0xF0 }
  - { offsetInCU: 0x20795, offset: 0x1DA253, size: 0x8, addend: 0x0, symName: '__ZN4core3ptr98drop_in_place$LT$syn..punctuated..Punctuated$LT$syn..lifetime..Lifetime$C$syn..token..Plus$GT$$GT$17h353e19c7a7747f49E', symObjAddr: 0x7480, symBinAddr: 0x56190, symSize: 0xD0 }
  - { offsetInCU: 0x213A3, offset: 0x1DAE61, size: 0x8, addend: 0x0, symName: __ZN10proc_macro6bridge6client14HandleCounters3get17h2c76d49220b98e92E, symObjAddr: 0x0, symBinAddr: 0x4ED10, symSize: 0x10 }
  - { offsetInCU: 0x1E, offset: 0x1E511B, size: 0x8, addend: 0x0, symName: '__ZN40_$LT$F$u20$as$u20$syn..parse..Parser$GT$6parse217h1bed6331936c8c20E', symObjAddr: 0x0, symBinAddr: 0x563C0, symSize: 0xAB0 }
  - { offsetInCU: 0x299, offset: 0x1E5396, size: 0x8, addend: 0x0, symName: '__ZN40_$LT$F$u20$as$u20$syn..parse..Parser$GT$6parse217h1bed6331936c8c20E', symObjAddr: 0x0, symBinAddr: 0x563C0, symSize: 0xAB0 }
  - { offsetInCU: 0x3CA6, offset: 0x1E8DA3, size: 0x8, addend: 0x0, symName: '__ZN4core3ptr38drop_in_place$LT$syn..error..Error$GT$17h60d9715b3711fe29E', symObjAddr: 0xAB0, symBinAddr: 0x56E70, symSize: 0x90 }
  - { offsetInCU: 0x3F67, offset: 0x1E9064, size: 0x8, addend: 0x0, symName: '__ZN4core3ptr39drop_in_place$LT$syn..buffer..Entry$GT$17h5f59d0ea8883583dE', symObjAddr: 0xB40, symBinAddr: 0x56F00, symSize: 0xB0 }
  - { offsetInCU: 0x42F2, offset: 0x1E93EF, size: 0x8, addend: 0x0, symName: '__ZN4core3ptr44drop_in_place$LT$syn..parse..ParseBuffer$GT$17h28209f0774cc033fE', symObjAddr: 0xC10, symBinAddr: 0x56FB0, symSize: 0x70 }
  - { offsetInCU: 0x45D3, offset: 0x1E96D0, size: 0x8, addend: 0x0, symName: '__ZN4core3ptr45drop_in_place$LT$syn..buffer..TokenBuffer$GT$17h3870206a0a71feebE', symObjAddr: 0xC80, symBinAddr: 0x57020, symSize: 0xC0 }
  - { offsetInCU: 0x653B, offset: 0x1EB638, size: 0x8, addend: 0x0, symName: __ZN14thiserror_impl3fmt8take_int17hfd8830f259a8d808E, symObjAddr: 0xE70, symBinAddr: 0x570E0, symSize: 0x1C0 }
  - { offsetInCU: 0x6BD6, offset: 0x1EBCD3, size: 0x8, addend: 0x0, symName: __ZN14thiserror_impl3fmt10take_ident17h55f73bcb1e5a5e0eE, symObjAddr: 0x1030, symBinAddr: 0x572A0, symSize: 0x3FB }
  - { offsetInCU: 0x1C58, offset: 0x1F02ED, size: 0x8, addend: 0x0, symName: '__ZN4core3ptr37drop_in_place$LT$syn..lit..LitStr$GT$17h315bcd607dd52a16E', symObjAddr: 0x11C0, symBinAddr: 0x587A0, symSize: 0x60 }
  - { offsetInCU: 0x1F37, offset: 0x1F05CC, size: 0x8, addend: 0x0, symName: '__ZN4core3ptr39drop_in_place$LT$proc_macro2..Ident$GT$17h292f8e82fbbdec86E', symObjAddr: 0x1220, symBinAddr: 0x58800, symSize: 0x30 }
  - { offsetInCU: 0x20ED, offset: 0x1F0782, size: 0x8, addend: 0x0, symName: '__ZN4core3ptr45drop_in_place$LT$proc_macro2..TokenStream$GT$17h79bed4734ce05ff0E', symObjAddr: 0x1250, symBinAddr: 0x58830, symSize: 0x140 }
  - { offsetInCU: 0x25A6, offset: 0x1F0C3B, size: 0x8, addend: 0x0, symName: '__ZN4core3ptr49drop_in_place$LT$thiserror_impl..ast..Variant$GT$17hb9966c286ac8ef3dE', symObjAddr: 0x1390, symBinAddr: 0x58970, symSize: 0x1B0 }
  - { offsetInCU: 0x2D53, offset: 0x1F13E8, size: 0x8, addend: 0x0, symName: '__ZN4core3ptr65drop_in_place$LT$alloc..vec..Vec$LT$proc_macro..TokenTree$GT$$GT$17he8dd9759c088f459E', symObjAddr: 0x1540, symBinAddr: 0x58B20, symSize: 0x110 }
  - { offsetInCU: 0x314B, offset: 0x1F17E0, size: 0x8, addend: 0x0, symName: '__ZN4core3ptr70drop_in_place$LT$alloc..vec..Vec$LT$thiserror_impl..ast..Field$GT$$GT$17haacc92e9d8b2c0b6E', symObjAddr: 0x1650, symBinAddr: 0x58C30, symSize: 0x5D }
  - { offsetInCU: 0x338F, offset: 0x1F1A24, size: 0x8, addend: 0x0, symName: '__ZN102_$LT$core..iter..adapters..map..Map$LT$I$C$F$GT$$u20$as$u20$core..iter..traits..iterator..Iterator$GT$4fold17h825c700280c66c6dE', symObjAddr: 0xC0, symBinAddr: 0x576A0, symSize: 0x820 }
  - { offsetInCU: 0x451B, offset: 0x1F2BB0, size: 0x8, addend: 0x0, symName: '__ZN102_$LT$core..iter..adapters..map..Map$LT$I$C$F$GT$$u20$as$u20$core..iter..traits..iterator..Iterator$GT$8try_fold17h1d5599c196bc6065E', symObjAddr: 0x8E0, symBinAddr: 0x57EC0, symSize: 0x1D0 }
  - { offsetInCU: 0x49EB, offset: 0x1F3080, size: 0x8, addend: 0x0, symName: '__ZN102_$LT$core..iter..adapters..map..Map$LT$I$C$F$GT$$u20$as$u20$core..iter..traits..iterator..Iterator$GT$8try_fold17he5b74169a06f0938E', symObjAddr: 0xAB0, symBinAddr: 0x58090, symSize: 0x710 }
  - { offsetInCU: 0x1E, offset: 0x201364, size: 0x8, addend: 0x0, symName: __ZN3syn11parse_quote5parse17haeb5076dc50eb040E, symObjAddr: 0x0, symBinAddr: 0x58C90, symSize: 0x420 }
  - { offsetInCU: 0x1B8E, offset: 0x202ED4, size: 0x8, addend: 0x0, symName: '__ZN4core3ptr100drop_in_place$LT$core..option..Option$LT$alloc..boxed..Box$LT$syn..path..GenericArgument$GT$$GT$$GT$17h2e23fcc665c67bbcE', symObjAddr: 0x470, symBinAddr: 0x590B0, symSize: 0x50 }
  - { offsetInCU: 0x1F2C, offset: 0x203272, size: 0x8, addend: 0x0, symName: '__ZN4core3ptr100drop_in_place$LT$syn..punctuated..Punctuated$LT$syn..path..PathSegment$C$syn..token..PathSep$GT$$GT$17h88ef499c0d6aef1eE', symObjAddr: 0x4C0, symBinAddr: 0x59100, symSize: 0x270 }
  - { offsetInCU: 0x28CF, offset: 0x203C15, size: 0x8, addend: 0x0, symName: '__ZN4core3ptr103drop_in_place$LT$core..option..Option$LT$alloc..boxed..Box$LT$syn..generics..TypeParamBound$GT$$GT$$GT$17hc183cdae32d85933E', symObjAddr: 0x730, symBinAddr: 0x59370, symSize: 0x50 }
  - { offsetInCU: 0x2ADA, offset: 0x203E20, size: 0x8, addend: 0x0, symName: '__ZN4core3ptr103drop_in_place$LT$syn..punctuated..Punctuated$LT$syn..generics..GenericParam$C$syn..token..Comma$GT$$GT$17h37065c338362bf57E', symObjAddr: 0x780, symBinAddr: 0x593C0, symSize: 0xF0 }
  - { offsetInCU: 0x2FF4, offset: 0x20433A, size: 0x8, addend: 0x0, symName: '__ZN4core3ptr104drop_in_place$LT$syn..punctuated..Punctuated$LT$syn..generics..TypeParamBound$C$syn..token..Plus$GT$$GT$17h1dd988e400e12830E', symObjAddr: 0x870, symBinAddr: 0x594B0, symSize: 0x200 }
  - { offsetInCU: 0x389E, offset: 0x204BE4, size: 0x8, addend: 0x0, symName: '__ZN4core3ptr34drop_in_place$LT$syn..lit..Lit$GT$17hdbaf11022e700012E', symObjAddr: 0xA70, symBinAddr: 0x596B0, symSize: 0x120 }
  - { offsetInCU: 0x3D6D, offset: 0x2050B3, size: 0x8, addend: 0x0, symName: '__ZN4core3ptr34drop_in_place$LT$syn..pat..Pat$GT$17h5538560f99962f8fE', symObjAddr: 0xB90, symBinAddr: 0x597D0, symSize: 0x1090 }
  - { offsetInCU: 0x7D6D, offset: 0x2090B3, size: 0x8, addend: 0x0, symName: '__ZN4core3ptr34drop_in_place$LT$syn..ty..Type$GT$17hd3c45f8e21f379c6E', symObjAddr: 0x1C20, symBinAddr: 0x5A860, symSize: 0x4F0 }
  - { offsetInCU: 0x92B0, offset: 0x20A5F6, size: 0x8, addend: 0x0, symName: '__ZN4core3ptr36drop_in_place$LT$syn..expr..Expr$GT$17h60475bc4bd2b1229E', symObjAddr: 0x2110, symBinAddr: 0x5AD50, symSize: 0x27D0 }
  - { offsetInCU: 0x129E4, offset: 0x213D2A, size: 0x8, addend: 0x0, symName: '__ZN4core3ptr36drop_in_place$LT$syn..mac..Macro$GT$17hb9e660146ef6b080E', symObjAddr: 0x48E0, symBinAddr: 0x5D520, symSize: 0x40 }
  - { offsetInCU: 0x12A1E, offset: 0x213D64, size: 0x8, addend: 0x0, symName: '__ZN4core3ptr36drop_in_place$LT$syn..path..Path$GT$17h0b7d6e52e7c99d5dE', symObjAddr: 0x4920, symBinAddr: 0x5D560, symSize: 0x240 }
  - { offsetInCU: 0x133B8, offset: 0x2146FE, size: 0x8, addend: 0x0, symName: '__ZN4core3ptr37drop_in_place$LT$syn..stmt..Block$GT$17h905d97237c7d3a4cE', symObjAddr: 0x4B60, symBinAddr: 0x5D7A0, symSize: 0xD0 }
  - { offsetInCU: 0x136CD, offset: 0x214A13, size: 0x8, addend: 0x0, symName: '__ZN4core3ptr38drop_in_place$LT$syn..error..Error$GT$17h60d9715b3711fe29E', symObjAddr: 0x4C30, symBinAddr: 0x5D870, symSize: 0x90 }
  - { offsetInCU: 0x1398E, offset: 0x214CD4, size: 0x8, addend: 0x0, symName: '__ZN4core3ptr38drop_in_place$LT$syn..expr..Member$GT$17hae9680cbed81db26E', symObjAddr: 0x4CC0, symBinAddr: 0x5D900, symSize: 0x30 }
  - { offsetInCU: 0x13A8A, offset: 0x214DD0, size: 0x8, addend: 0x0, symName: '__ZN4core3ptr39drop_in_place$LT$proc_macro2..Ident$GT$17h292f8e82fbbdec86E', symObjAddr: 0x4CF0, symBinAddr: 0x5D930, symSize: 0x30 }
  - { offsetInCU: 0x13C9D, offset: 0x214FE3, size: 0x8, addend: 0x0, symName: '__ZN4core3ptr39drop_in_place$LT$syn..buffer..Entry$GT$17h5f59d0ea8883583dE', symObjAddr: 0x4D20, symBinAddr: 0x5D960, symSize: 0xB0 }
  - { offsetInCU: 0x14028, offset: 0x21536E, size: 0x8, addend: 0x0, symName: '__ZN4core3ptr40drop_in_place$LT$syn..ty..ReturnType$GT$17hffa13b3500dec046E', symObjAddr: 0x4DD0, symBinAddr: 0x5DA10, symSize: 0x50 }
  - { offsetInCU: 0x14198, offset: 0x2154DE, size: 0x8, addend: 0x0, symName: '__ZN4core3ptr41drop_in_place$LT$syn..expr..ExprConst$GT$17h1920e50ebeb8637eE', symObjAddr: 0x4E20, symBinAddr: 0x5DA60, symSize: 0x180 }
  - { offsetInCU: 0x14751, offset: 0x215A97, size: 0x8, addend: 0x0, symName: '__ZN4core3ptr44drop_in_place$LT$syn..lifetime..Lifetime$GT$17h72b16210698c11d3E', symObjAddr: 0x4FA0, symBinAddr: 0x5DBE0, symSize: 0x30 }
  - { offsetInCU: 0x1484D, offset: 0x215B93, size: 0x8, addend: 0x0, symName: '__ZN4core3ptr44drop_in_place$LT$syn..parse..ParseBuffer$GT$17h28209f0774cc033fE', symObjAddr: 0x4FD0, symBinAddr: 0x5DC10, symSize: 0x70 }
  - { offsetInCU: 0x14BC9, offset: 0x215F0F, size: 0x8, addend: 0x0, symName: '__ZN4core3ptr45drop_in_place$LT$proc_macro2..TokenStream$GT$17h79bed4734ce05ff0E', symObjAddr: 0x5040, symBinAddr: 0x5DC80, symSize: 0x140 }
  - { offsetInCU: 0x15025, offset: 0x21636B, size: 0x8, addend: 0x0, symName: '__ZN4core3ptr45drop_in_place$LT$syn..buffer..TokenBuffer$GT$17h3870206a0a71feebE', symObjAddr: 0x5180, symBinAddr: 0x5DDC0, symSize: 0xC0 }
  - { offsetInCU: 0x1528D, offset: 0x2165D3, size: 0x8, addend: 0x0, symName: '__ZN4core3ptr45drop_in_place$LT$syn..generics..TypeParam$GT$17h64d3a4e29c55c328E', symObjAddr: 0x5240, symBinAddr: 0x5DE80, symSize: 0x1D0 }
  - { offsetInCU: 0x15A42, offset: 0x216D88, size: 0x8, addend: 0x0, symName: '__ZN4core3ptr46drop_in_place$LT$syn..generics..ConstParam$GT$17hc25aa244545a099bE', symObjAddr: 0x5410, symBinAddr: 0x5E050, symSize: 0x150 }
  - { offsetInCU: 0x15E8F, offset: 0x2171D5, size: 0x8, addend: 0x0, symName: '__ZN4core3ptr47drop_in_place$LT$syn..path..GenericArgument$GT$17h45e5488e96fea2b3E', symObjAddr: 0x5560, symBinAddr: 0x5E1A0, symSize: 0x4A0 }
  - { offsetInCU: 0x16F95, offset: 0x2182DB, size: 0x8, addend: 0x0, symName: '__ZN4core3ptr49drop_in_place$LT$syn..generics..LifetimeParam$GT$17h651cc10f73fac619E', symObjAddr: 0x5A00, symBinAddr: 0x5E640, symSize: 0xF0 }
  - { offsetInCU: 0x17378, offset: 0x2186BE, size: 0x8, addend: 0x0, symName: '__ZN4core3ptr50drop_in_place$LT$syn..generics..TypeParamBound$GT$17h6e04ab046a111c8aE', symObjAddr: 0x5AF0, symBinAddr: 0x5E730, symSize: 0xA0 }
  - { offsetInCU: 0x1751C, offset: 0x218862, size: 0x8, addend: 0x0, symName: '__ZN4core3ptr50drop_in_place$LT$syn..generics..WherePredicate$GT$17hafe61824884fd47cE', symObjAddr: 0x5B90, symBinAddr: 0x5E7D0, symSize: 0xA0 }
  - { offsetInCU: 0x176C0, offset: 0x218A06, size: 0x8, addend: 0x0, symName: '__ZN4core3ptr58drop_in_place$LT$alloc..vec..Vec$LT$syn..expr..Arm$GT$$GT$17hcff966161a65fe13E', symObjAddr: 0x5C30, symBinAddr: 0x5E870, symSize: 0xD0 }
  - { offsetInCU: 0x17980, offset: 0x218CC6, size: 0x8, addend: 0x0, symName: '__ZN4core3ptr59drop_in_place$LT$alloc..boxed..Box$LT$syn..pat..Pat$GT$$GT$17hfea3558566170af4E', symObjAddr: 0x5D00, symBinAddr: 0x5E940, symSize: 0x50 }
  - { offsetInCU: 0x17AD9, offset: 0x218E1F, size: 0x8, addend: 0x0, symName: '__ZN4core3ptr59drop_in_place$LT$alloc..boxed..Box$LT$syn..ty..Type$GT$$GT$17h1e3ded19ecfd1814E', symObjAddr: 0x5D50, symBinAddr: 0x5E990, symSize: 0x50 }
  - { offsetInCU: 0x17C32, offset: 0x218F78, size: 0x8, addend: 0x0, symName: '__ZN4core3ptr61drop_in_place$LT$alloc..boxed..Box$LT$syn..expr..Expr$GT$$GT$17h19b34da7a94e76aaE', symObjAddr: 0x5DA0, symBinAddr: 0x5E9E0, symSize: 0x50 }
  - { offsetInCU: 0x17E07, offset: 0x21914D, size: 0x8, addend: 0x0, symName: '__ZN4core3ptr61drop_in_place$LT$syn..path..ParenthesizedGenericArguments$GT$17ha6f1dbee6b0dc59aE', symObjAddr: 0x5DF0, symBinAddr: 0x5EA30, symSize: 0x170 }
  - { offsetInCU: 0x183FD, offset: 0x219743, size: 0x8, addend: 0x0, symName: '__ZN4core3ptr62drop_in_place$LT$syn..path..AngleBracketedGenericArguments$GT$17h180db4a5977d3b65E', symObjAddr: 0x5F60, symBinAddr: 0x5EBA0, symSize: 0x120 }
  - { offsetInCU: 0x18848, offset: 0x219B8E, size: 0x8, addend: 0x0, symName: '__ZN4core3ptr63drop_in_place$LT$alloc..boxed..Box$LT$syn..lit..LitRepr$GT$$GT$17hb26c2abcbf18777fE', symObjAddr: 0x6080, symBinAddr: 0x5ECC0, symSize: 0x60 }
  - { offsetInCU: 0x18B4F, offset: 0x219E95, size: 0x8, addend: 0x0, symName: '__ZN4core3ptr64drop_in_place$LT$alloc..boxed..Box$LT$syn..pat..FieldPat$GT$$GT$17h00d9a44ce68ea19aE', symObjAddr: 0x60E0, symBinAddr: 0x5ED20, symSize: 0x140 }
  - { offsetInCU: 0x1921C, offset: 0x21A562, size: 0x8, addend: 0x0, symName: '__ZN4core3ptr64drop_in_place$LT$alloc..boxed..Box$LT$syn..ty..BareFnArg$GT$$GT$17h44003be2c1a41840E', symObjAddr: 0x6220, symBinAddr: 0x5EE60, symSize: 0x140 }
  - { offsetInCU: 0x19771, offset: 0x21AAB7, size: 0x8, addend: 0x0, symName: '__ZN4core3ptr65drop_in_place$LT$alloc..vec..Vec$LT$proc_macro..TokenTree$GT$$GT$17he8dd9759c088f459E', symObjAddr: 0x6360, symBinAddr: 0x5EFA0, symSize: 0x110 }
  - { offsetInCU: 0x19B69, offset: 0x21AEAF, size: 0x8, addend: 0x0, symName: '__ZN4core3ptr65drop_in_place$LT$core..option..Option$LT$syn..expr..Label$GT$$GT$17hbd2e98b9a59ab4e4E', symObjAddr: 0x6470, symBinAddr: 0x5F0B0, symSize: 0x30 }
  - { offsetInCU: 0x19CA3, offset: 0x21AFE9, size: 0x8, addend: 0x0, symName: '__ZN4core3ptr66drop_in_place$LT$core..option..Option$LT$syn..pat..PatRest$GT$$GT$17h314d0b73337583caE', symObjAddr: 0x64A0, symBinAddr: 0x5F0E0, symSize: 0xE0 }
  - { offsetInCU: 0x19F97, offset: 0x21B2DD, size: 0x8, addend: 0x0, symName: '__ZN4core3ptr67drop_in_place$LT$alloc..boxed..Box$LT$syn..expr..FieldValue$GT$$GT$17hdc8182e95ad58ca9E', symObjAddr: 0x6580, symBinAddr: 0x5F1C0, symSize: 0x140 }
  - { offsetInCU: 0x1A4CC, offset: 0x21B812, size: 0x8, addend: 0x0, symName: '__ZN4core3ptr68drop_in_place$LT$alloc..boxed..Box$LT$syn..path..PathSegment$GT$$GT$17hfa8f9118d564b9d1E', symObjAddr: 0x66C0, symBinAddr: 0x5F300, symSize: 0x1B0 }
  - { offsetInCU: 0x1ABDA, offset: 0x21BF20, size: 0x8, addend: 0x0, symName: '__ZN4core3ptr70drop_in_place$LT$core..option..Option$LT$syn..ty..BareVariadic$GT$$GT$17hc28c51edcca3a76bE', symObjAddr: 0x6870, symBinAddr: 0x5F4B0, symSize: 0x100 }
  - { offsetInCU: 0x1B011, offset: 0x21C357, size: 0x8, addend: 0x0, symName: '__ZN4core3ptr72drop_in_place$LT$alloc..boxed..Box$LT$syn..path..GenericArgument$GT$$GT$17h1de85139d5b36a20E', symObjAddr: 0x6970, symBinAddr: 0x5F5B0, symSize: 0x250 }
  - { offsetInCU: 0x1B94C, offset: 0x21CC92, size: 0x8, addend: 0x0, symName: '__ZN4core3ptr72drop_in_place$LT$core..option..Option$LT$syn..lifetime..Lifetime$GT$$GT$17h457419cdc338c730E', symObjAddr: 0x6BC0, symBinAddr: 0x5F800, symSize: 0x30 }
  - { offsetInCU: 0x1BA67, offset: 0x21CDAD, size: 0x8, addend: 0x0, symName: '__ZN4core3ptr73drop_in_place$LT$alloc..boxed..Box$LT$syn..generics..GenericParam$GT$$GT$17hba85bedf707f5b56E', symObjAddr: 0x6BF0, symBinAddr: 0x5F830, symSize: 0x80 }
  - { offsetInCU: 0x1BBDD, offset: 0x21CF23, size: 0x8, addend: 0x0, symName: '__ZN4core3ptr75drop_in_place$LT$alloc..boxed..Box$LT$syn..generics..TypeParamBound$GT$$GT$17h9de6927003c48175E', symObjAddr: 0x6C70, symBinAddr: 0x5F8B0, symSize: 0x180 }
  - { offsetInCU: 0x1C1C9, offset: 0x21D50F, size: 0x8, addend: 0x0, symName: '__ZN4core3ptr86drop_in_place$LT$syn..punctuated..Punctuated$LT$syn..pat..Pat$C$syn..token..Or$GT$$GT$17hcbb22f36ec6c0d61E', symObjAddr: 0x6DF0, symBinAddr: 0x5FA30, symSize: 0x120 }
  - { offsetInCU: 0x1C644, offset: 0x21D98A, size: 0x8, addend: 0x0, symName: '__ZN4core3ptr87drop_in_place$LT$core..option..Option$LT$alloc..boxed..Box$LT$syn..pat..Pat$GT$$GT$$GT$17h1156bf901b21da7bE', symObjAddr: 0x6F10, symBinAddr: 0x5FB50, symSize: 0x50 }
  - { offsetInCU: 0x1C7B4, offset: 0x21DAFA, size: 0x8, addend: 0x0, symName: '__ZN4core3ptr87drop_in_place$LT$core..option..Option$LT$alloc..boxed..Box$LT$syn..ty..Type$GT$$GT$$GT$17h88cbffe9c17480a4E', symObjAddr: 0x6F60, symBinAddr: 0x5FBA0, symSize: 0x50 }
  - { offsetInCU: 0x1C924, offset: 0x21DC6A, size: 0x8, addend: 0x0, symName: '__ZN4core3ptr89drop_in_place$LT$core..option..Option$LT$alloc..boxed..Box$LT$syn..expr..Expr$GT$$GT$$GT$17h08776c37df2bd779E', symObjAddr: 0x6FB0, symBinAddr: 0x5FBF0, symSize: 0x50 }
  - { offsetInCU: 0x1CAD2, offset: 0x21DE18, size: 0x8, addend: 0x0, symName: '__ZN4core3ptr89drop_in_place$LT$syn..punctuated..Punctuated$LT$syn..pat..Pat$C$syn..token..Comma$GT$$GT$17h737401909f20a8f9E', symObjAddr: 0x7000, symBinAddr: 0x5FC40, symSize: 0x120 }
  - { offsetInCU: 0x1CF64, offset: 0x21E2AA, size: 0x8, addend: 0x0, symName: '__ZN4core3ptr89drop_in_place$LT$syn..punctuated..Punctuated$LT$syn..ty..Type$C$syn..token..Comma$GT$$GT$17h0b943ea2167fa893E', symObjAddr: 0x7120, symBinAddr: 0x5FD60, symSize: 0x120 }
  - { offsetInCU: 0x1D3DF, offset: 0x21E725, size: 0x8, addend: 0x0, symName: '__ZN4core3ptr90drop_in_place$LT$core..option..Option$LT$syn..path..AngleBracketedGenericArguments$GT$$GT$17hd88fdf829c06df5cE', symObjAddr: 0x7240, symBinAddr: 0x5FE80, symSize: 0x130 }
  - { offsetInCU: 0x1D881, offset: 0x21EBC7, size: 0x8, addend: 0x0, symName: '__ZN4core3ptr91drop_in_place$LT$syn..punctuated..Punctuated$LT$syn..expr..Expr$C$syn..token..Comma$GT$$GT$17h103f0875eb2ccdb7E', symObjAddr: 0x7370, symBinAddr: 0x5FFB0, symSize: 0x120 }
  - { offsetInCU: 0x1DD0F, offset: 0x21F055, size: 0x8, addend: 0x0, symName: '__ZN4core3ptr94drop_in_place$LT$syn..punctuated..Punctuated$LT$syn..pat..FieldPat$C$syn..token..Comma$GT$$GT$17hb87a72edd8fbc6f6E', symObjAddr: 0x7490, symBinAddr: 0x600D0, symSize: 0xF0 }
  - { offsetInCU: 0x1E00E, offset: 0x21F354, size: 0x8, addend: 0x0, symName: '__ZN4core3ptr94drop_in_place$LT$syn..punctuated..Punctuated$LT$syn..ty..BareFnArg$C$syn..token..Comma$GT$$GT$17h4b6dd11643d0cec0E', symObjAddr: 0x7580, symBinAddr: 0x601C0, symSize: 0xF0 }
  - { offsetInCU: 0x1E30F, offset: 0x21F655, size: 0x8, addend: 0x0, symName: '__ZN4core3ptr96drop_in_place$LT$core..option..Option$LT$alloc..boxed..Box$LT$syn..path..PathSegment$GT$$GT$$GT$17hf77f7ee83a6d4461E', symObjAddr: 0x7670, symBinAddr: 0x602B0, symSize: 0xA0 }
  - { offsetInCU: 0x1E58E, offset: 0x21F8D4, size: 0x8, addend: 0x0, symName: '__ZN4core3ptr97drop_in_place$LT$syn..punctuated..Punctuated$LT$syn..expr..FieldValue$C$syn..token..Comma$GT$$GT$17h0c5ae3e5b554adb1E', symObjAddr: 0x7710, symBinAddr: 0x60350, symSize: 0xF0 }
  - { offsetInCU: 0x1E88B, offset: 0x21FBD1, size: 0x8, addend: 0x0, symName: '__ZN4core3ptr98drop_in_place$LT$alloc..vec..Vec$LT$$LP$syn..path..GenericArgument$C$syn..token..Comma$RP$$GT$$GT$17haaa4e1d34a7f8334E', symObjAddr: 0x7800, symBinAddr: 0x60440, symSize: 0xD0 }
  - { offsetInCU: 0x1EBCB, offset: 0x21FF11, size: 0x8, addend: 0x0, symName: '__ZN4core3ptr98drop_in_place$LT$syn..punctuated..Punctuated$LT$syn..lifetime..Lifetime$C$syn..token..Plus$GT$$GT$17h353e19c7a7747f49E', symObjAddr: 0x78D0, symBinAddr: 0x60510, symSize: 0xC6 }
  - { offsetInCU: 0x2632E, offset: 0x227674, size: 0x8, addend: 0x0, symName: __ZN3syn11parse_quote5parse17haeb5076dc50eb040E, symObjAddr: 0x0, symBinAddr: 0x58C90, symSize: 0x420 }
  - { offsetInCU: 0x26B38, offset: 0x227E7E, size: 0x8, addend: 0x0, symName: __ZN3syn11parse_quote5parse18panic_cold_display17hd23c4d98262b876aE, symObjAddr: 0x420, symBinAddr: 0x216250, symSize: 0x50 }
  - { offsetInCU: 0x1E, offset: 0x22D0EC, size: 0x8, addend: 0x0, symName: __ZN4core5slice4sort6shared9smallsort12sort8_stable17h3a446e8cce5ff568E, symObjAddr: 0x0, symBinAddr: 0x605E0, symSize: 0x400 }
  - { offsetInCU: 0x4E4, offset: 0x22D5B2, size: 0x8, addend: 0x0, symName: __ZN4core5slice4sort6shared9smallsort12sort8_stable17h3a446e8cce5ff568E, symObjAddr: 0x0, symBinAddr: 0x605E0, symSize: 0x400 }
  - { offsetInCU: 0xF01, offset: 0x22DFCF, size: 0x8, addend: 0x0, symName: __ZN4core5slice4sort6shared9smallsort31small_sort_general_with_scratch17h3e9eeeb53ace951bE, symObjAddr: 0x4C0, symBinAddr: 0x609E0, symSize: 0x4D4 }
  - { offsetInCU: 0x1E, offset: 0x2305E4, size: 0x8, addend: 0x0, symName: '__ZN4core3ptr42drop_in_place$LT$alloc..string..String$GT$17h0d927eaf88a82778E.llvm.11411319846468182859', symObjAddr: 0x0, symBinAddr: 0x60EC0, symSize: 0x20 }
  - { offsetInCU: 0x35, offset: 0x2305FB, size: 0x8, addend: 0x0, symName: _anon.5f1bfb31e385eb885c91562db338e1d1.0.llvm.11411319846468182859, symObjAddr: 0x950, symBinAddr: 0x280948, symSize: 0x0 }
  - { offsetInCU: 0x1A3, offset: 0x230769, size: 0x8, addend: 0x0, symName: '__ZN58_$LT$alloc..string..String$u20$as$u20$core..fmt..Write$GT$10write_char17h04bc467bd68a934bE.llvm.11411319846468182859', symObjAddr: 0x3A0, symBinAddr: 0x61250, symSize: 0x140 }
  - { offsetInCU: 0x5A8, offset: 0x230B6E, size: 0x8, addend: 0x0, symName: '__ZN58_$LT$alloc..string..String$u20$as$u20$core..fmt..Write$GT$9write_str17h46a93205c3443fbaE.llvm.11411319846468182859', symObjAddr: 0x4E0, symBinAddr: 0x61390, symSize: 0x60 }
  - { offsetInCU: 0xEEE, offset: 0x2314B4, size: 0x8, addend: 0x0, symName: '__ZN4core3ptr42drop_in_place$LT$alloc..string..String$GT$17h0d927eaf88a82778E.llvm.11411319846468182859', symObjAddr: 0x0, symBinAddr: 0x60EC0, symSize: 0x20 }
  - { offsetInCU: 0x112C, offset: 0x2316F2, size: 0x8, addend: 0x0, symName: '__ZN4core3ptr45drop_in_place$LT$proc_macro2..TokenStream$GT$17h79bed4734ce05ff0E.llvm.11411319846468182859', symObjAddr: 0x20, symBinAddr: 0x60EE0, symSize: 0x140 }
  - { offsetInCU: 0x1588, offset: 0x231B4E, size: 0x8, addend: 0x0, symName: '__ZN4core3ptr65drop_in_place$LT$alloc..vec..Vec$LT$proc_macro..TokenTree$GT$$GT$17he8dd9759c088f459E.llvm.11411319846468182859', symObjAddr: 0x160, symBinAddr: 0x61020, symSize: 0x110 }
  - { offsetInCU: 0x1B51, offset: 0x232117, size: 0x8, addend: 0x0, symName: '__ZN53_$LT$core..fmt..Error$u20$as$u20$core..fmt..Debug$GT$3fmt17h03dc662ab152f3aeE.llvm.11411319846468182859', symObjAddr: 0x280, symBinAddr: 0x61130, symSize: 0x20 }
  - { offsetInCU: 0x2114, offset: 0x2326DA, size: 0x8, addend: 0x0, symName: '__ZN71_$LT$core..hash..sip..Hasher$LT$S$GT$$u20$as$u20$core..hash..Hasher$GT$5write17h1df1dfca5f0e103eE.llvm.11411319846468182859', symObjAddr: 0x650, symBinAddr: 0x613F0, symSize: 0x1E0 }
  - { offsetInCU: 0x2D35, offset: 0x2332FB, size: 0x8, addend: 0x0, symName: _anon.5f1bfb31e385eb885c91562db338e1d1.4.llvm.11411319846468182859, symObjAddr: 0x998, symBinAddr: 0x280990, symSize: 0x0 }
  - { offsetInCU: 0x35FC, offset: 0x233BC2, size: 0x8, addend: 0x0, symName: '__ZN55_$LT$proc_macro2..Ident$u20$as$u20$core..hash..Hash$GT$4hash17hc68db69dc383fdafE', symObjAddr: 0x2A0, symBinAddr: 0x61150, symSize: 0x100 }
  - { offsetInCU: 0x1E, offset: 0x234A67, size: 0x8, addend: 0x0, symName: __ZN4core5slice4sort6stable5drift4sort17had467c63c9b1bfa2E, symObjAddr: 0x0, symBinAddr: 0x615D0, symSize: 0x6DA }
  - { offsetInCU: 0x473, offset: 0x234EBC, size: 0x8, addend: 0x0, symName: __ZN4core5slice4sort6stable5drift4sort17had467c63c9b1bfa2E, symObjAddr: 0x0, symBinAddr: 0x615D0, symSize: 0x6DA }
  - { offsetInCU: 0x1E, offset: 0x23739E, size: 0x8, addend: 0x0, symName: __ZN4core5slice4sort6stable9quicksort9quicksort17hde8414aa1918b529E, symObjAddr: 0x0, symBinAddr: 0x61CB0, symSize: 0x765 }
  - { offsetInCU: 0x59B, offset: 0x23791B, size: 0x8, addend: 0x0, symName: __ZN4core5slice4sort6stable9quicksort9quicksort17hde8414aa1918b529E, symObjAddr: 0x0, symBinAddr: 0x61CB0, symSize: 0x765 }
  - { offsetInCU: 0x35, offset: 0x23A7A9, size: 0x8, addend: 0x0, symName: _anon.4af827825cc8eb9a012e0b02f7121f6c.2.llvm.2487219332024471140, symObjAddr: 0x14F0, symBinAddr: 0x280A00, symSize: 0x0 }
  - { offsetInCU: 0x1B4, offset: 0x23A928, size: 0x8, addend: 0x0, symName: '__ZN58_$LT$alloc..string..String$u20$as$u20$core..fmt..Write$GT$10write_char17h04bc467bd68a934bE.llvm.2487219332024471140', symObjAddr: 0x1080, symBinAddr: 0x63420, symSize: 0x140 }
  - { offsetInCU: 0x5BA, offset: 0x23AD2E, size: 0x8, addend: 0x0, symName: '__ZN58_$LT$alloc..string..String$u20$as$u20$core..fmt..Write$GT$9write_str17h46a93205c3443fbaE.llvm.2487219332024471140', symObjAddr: 0x11C0, symBinAddr: 0x63560, symSize: 0x5B }
  - { offsetInCU: 0x1262, offset: 0x23B9D6, size: 0x8, addend: 0x0, symName: '__ZN4core3ptr42drop_in_place$LT$alloc..string..String$GT$17h0d927eaf88a82778E.llvm.2487219332024471140', symObjAddr: 0xDF0, symBinAddr: 0x63190, symSize: 0x20 }
  - { offsetInCU: 0x14A0, offset: 0x23BC14, size: 0x8, addend: 0x0, symName: '__ZN4core3ptr45drop_in_place$LT$proc_macro2..TokenStream$GT$17h79bed4734ce05ff0E.llvm.2487219332024471140', symObjAddr: 0xE10, symBinAddr: 0x631B0, symSize: 0x140 }
  - { offsetInCU: 0x18FC, offset: 0x23C070, size: 0x8, addend: 0x0, symName: '__ZN4core3ptr65drop_in_place$LT$alloc..vec..Vec$LT$proc_macro..TokenTree$GT$$GT$17he8dd9759c088f459E.llvm.2487219332024471140', symObjAddr: 0xF50, symBinAddr: 0x632F0, symSize: 0x110 }
  - { offsetInCU: 0x2013, offset: 0x23C787, size: 0x8, addend: 0x0, symName: '__ZN53_$LT$core..fmt..Error$u20$as$u20$core..fmt..Debug$GT$3fmt17h03dc662ab152f3aeE.llvm.2487219332024471140', symObjAddr: 0x1060, symBinAddr: 0x63400, symSize: 0x20 }
  - { offsetInCU: 0x24C5, offset: 0x23CC39, size: 0x8, addend: 0x0, symName: _anon.4af827825cc8eb9a012e0b02f7121f6c.6.llvm.2487219332024471140, symObjAddr: 0x1538, symBinAddr: 0x280A48, symSize: 0x0 }
  - { offsetInCU: 0x27BA, offset: 0x23CF2E, size: 0x8, addend: 0x0, symName: __ZN3syn5error6new_at17hff43362409068170E, symObjAddr: 0xCF0, symBinAddr: 0x63090, symSize: 0x100 }
  - { offsetInCU: 0x2DC6, offset: 0x23D53A, size: 0x8, addend: 0x0, symName: __ZN3syn5error5Error11new_spanned17h3b21bff45a158222E, symObjAddr: 0x80, symBinAddr: 0x62420, symSize: 0x180 }
  - { offsetInCU: 0x3030, offset: 0x23D7A4, size: 0x8, addend: 0x0, symName: __ZN3syn5error5Error11new_spanned17h5d8458613b3810c0E, symObjAddr: 0x200, symBinAddr: 0x625A0, symSize: 0x180 }
  - { offsetInCU: 0x329A, offset: 0x23DA0E, size: 0x8, addend: 0x0, symName: __ZN3syn5error5Error11new_spanned17h5ff38d1ed9ca2e38E, symObjAddr: 0x380, symBinAddr: 0x62720, symSize: 0x180 }
  - { offsetInCU: 0x3504, offset: 0x23DC78, size: 0x8, addend: 0x0, symName: __ZN3syn5error5Error11new_spanned17h74e6b8e6bcab459eE, symObjAddr: 0x500, symBinAddr: 0x628A0, symSize: 0x180 }
  - { offsetInCU: 0x378D, offset: 0x23DF01, size: 0x8, addend: 0x0, symName: __ZN3syn5error5Error11new_spanned17hae71b2d6cee758cfE, symObjAddr: 0x680, symBinAddr: 0x62A20, symSize: 0x180 }
  - { offsetInCU: 0x39F7, offset: 0x23E16B, size: 0x8, addend: 0x0, symName: __ZN3syn5error5Error11new_spanned17hd54498fe2e61c948E, symObjAddr: 0x800, symBinAddr: 0x62BA0, symSize: 0x180 }
  - { offsetInCU: 0x3C61, offset: 0x23E3D5, size: 0x8, addend: 0x0, symName: __ZN3syn5error5Error11new_spanned17hde72a36a35f91e56E, symObjAddr: 0x980, symBinAddr: 0x62D20, symSize: 0x190 }
  - { offsetInCU: 0x3EF1, offset: 0x23E665, size: 0x8, addend: 0x0, symName: __ZN3syn5error5Error3new17h3fb4b75621ccfb5dE, symObjAddr: 0xB10, symBinAddr: 0x62EB0, symSize: 0xF0 }
  - { offsetInCU: 0x4306, offset: 0x23EA7A, size: 0x8, addend: 0x0, symName: __ZN3syn5error5Error3new17hfcca1c924286a4e0E, symObjAddr: 0xC00, symBinAddr: 0x62FA0, symSize: 0xF0 }
  - { offsetInCU: 0xFA3, offset: 0x249C28, size: 0x8, addend: 0x0, symName: '__ZN4core3ptr43drop_in_place$LT$proc_macro2..TokenTree$GT$17h41d0da0efc36b9f5E.llvm.8070343173492081065', symObjAddr: 0x150, symBinAddr: 0x635C0, symSize: 0xB0 }
  - { offsetInCU: 0x1BAC, offset: 0x24A831, size: 0x8, addend: 0x0, symName: '__ZN86_$LT$alloc..vec..into_iter..IntoIter$LT$T$C$A$GT$$u20$as$u20$core..ops..drop..Drop$GT$4drop17h33a63d5469d7c431E', symObjAddr: 0x200, symBinAddr: 0x63670, symSize: 0xD0 }
  - { offsetInCU: 0x1F16, offset: 0x24AB9B, size: 0x8, addend: 0x0, symName: '__ZN86_$LT$alloc..vec..into_iter..IntoIter$LT$T$C$A$GT$$u20$as$u20$core..ops..drop..Drop$GT$4drop17hb439892e1f2ff516E', symObjAddr: 0x2D0, symBinAddr: 0x63740, symSize: 0x110 }
  - { offsetInCU: 0x1E, offset: 0x24B910, size: 0x8, addend: 0x0, symName: '__ZN4core3ptr73drop_in_place$LT$core..cell..UnsafeCell$LT$syn..parse..Unexpected$GT$$GT$17h1e5e1e9f773406feE.llvm.9401547221786958915', symObjAddr: 0x0, symBinAddr: 0x63850, symSize: 0x50 }
  - { offsetInCU: 0xB7D, offset: 0x24C46F, size: 0x8, addend: 0x0, symName: '__ZN4core3ptr73drop_in_place$LT$core..cell..UnsafeCell$LT$syn..parse..Unexpected$GT$$GT$17h1e5e1e9f773406feE.llvm.9401547221786958915', symObjAddr: 0x0, symBinAddr: 0x63850, symSize: 0x50 }
  - { offsetInCU: 0x171C, offset: 0x24D00E, size: 0x8, addend: 0x0, symName: '__ZN68_$LT$alloc..rc..Rc$LT$T$C$A$GT$$u20$as$u20$core..ops..drop..Drop$GT$4drop17h6b19c61ae430a19cE', symObjAddr: 0x100, symBinAddr: 0x638A0, symSize: 0xE0 }
  - { offsetInCU: 0x1C3D, offset: 0x24D52F, size: 0x8, addend: 0x0, symName: '__ZN68_$LT$alloc..rc..Rc$LT$T$C$A$GT$$u20$as$u20$core..ops..drop..Drop$GT$4drop17hea0ae5a036e7454cE', symObjAddr: 0x1E0, symBinAddr: 0x63980, symSize: 0x40 }
  - { offsetInCU: 0x2149, offset: 0x24DA3B, size: 0x8, addend: 0x0, symName: '__ZN80_$LT$alloc..rc..UniqueRcUninit$LT$T$C$A$GT$$u20$as$u20$core..ops..drop..Drop$GT$4drop17h1fdc848669b3db24E', symObjAddr: 0x220, symBinAddr: 0x639C0, symSize: 0x4F }
  - { offsetInCU: 0x7AF, offset: 0x24EC3B, size: 0x8, addend: 0x0, symName: '__ZN68_$LT$$RF$str$u20$as$u20$proc_macro..bridge..rpc..Encode$LT$S$GT$$GT$6encode17h36b0e52161d6a10eE', symObjAddr: 0x80, symBinAddr: 0x63A10, symSize: 0x230 }
  - { offsetInCU: 0x1E, offset: 0x24F298, size: 0x8, addend: 0x0, symName: '__ZN9hashbrown3map28HashMap$LT$K$C$V$C$S$C$A$GT$6insert17hdafd4c1f83247545E', symObjAddr: 0x0, symBinAddr: 0x63C40, symSize: 0x1D3 }
  - { offsetInCU: 0x1C10, offset: 0x250E8A, size: 0x8, addend: 0x0, symName: '__ZN9hashbrown3map28HashMap$LT$K$C$V$C$S$C$A$GT$6insert17hdafd4c1f83247545E', symObjAddr: 0x0, symBinAddr: 0x63C40, symSize: 0x1D3 }
  - { offsetInCU: 0x1E, offset: 0x251C19, size: 0x8, addend: 0x0, symName: '__ZN120_$LT$proc_macro2..fallback..TokenStream$u20$as$u20$core..iter..traits..collect..Extend$LT$proc_macro2..TokenTree$GT$$GT$6extend17hb2930485ade1c605E', symObjAddr: 0x0, symBinAddr: 0x63E20, symSize: 0x100 }
  - { offsetInCU: 0xA3D, offset: 0x252638, size: 0x8, addend: 0x0, symName: '__ZN120_$LT$proc_macro2..fallback..TokenStream$u20$as$u20$core..iter..traits..collect..Extend$LT$proc_macro2..TokenTree$GT$$GT$6extend17hb2930485ade1c605E', symObjAddr: 0x0, symBinAddr: 0x63E20, symSize: 0x100 }
  - { offsetInCU: 0xC21, offset: 0x25281C, size: 0x8, addend: 0x0, symName: '__ZN126_$LT$proc_macro2..fallback..TokenStream$u20$as$u20$core..iter..traits..collect..FromIterator$LT$proc_macro2..TokenTree$GT$$GT$9from_iter17h50f0c895ef799694E', symObjAddr: 0x100, symBinAddr: 0x63F20, symSize: 0x100 }
  - { offsetInCU: 0xE3E, offset: 0x252A39, size: 0x8, addend: 0x0, symName: '__ZN78_$LT$proc_macro2..fallback..Ident$u20$as$u20$core..cmp..PartialEq$LT$T$GT$$GT$2eq17h2b5fa52ff9c5d17aE', symObjAddr: 0x660, symBinAddr: 0x64480, symSize: 0x72 }
  - { offsetInCU: 0x1975, offset: 0x253570, size: 0x8, addend: 0x0, symName: '__ZN4core3ptr45drop_in_place$LT$proc_macro2..TokenStream$GT$17h79bed4734ce05ff0E.llvm.5272739958246948783', symObjAddr: 0x200, symBinAddr: 0x64020, symSize: 0x140 }
  - { offsetInCU: 0x1DD1, offset: 0x2539CC, size: 0x8, addend: 0x0, symName: '__ZN4core3ptr55drop_in_place$LT$proc_macro2..fallback..TokenStream$GT$17hc3c62df62e4a5a7fE.llvm.5272739958246948783', symObjAddr: 0x340, symBinAddr: 0x64160, symSize: 0x40 }
  - { offsetInCU: 0x1E66, offset: 0x253A61, size: 0x8, addend: 0x0, symName: '__ZN4core3ptr56drop_in_place$LT$proc_macro2..token_stream..IntoIter$GT$17hf9ec3ce0adbb0736E.llvm.5272739958246948783', symObjAddr: 0x380, symBinAddr: 0x641A0, symSize: 0x20 }
  - { offsetInCU: 0x1F16, offset: 0x253B11, size: 0x8, addend: 0x0, symName: '__ZN4core3ptr65drop_in_place$LT$alloc..vec..Vec$LT$proc_macro..TokenTree$GT$$GT$17he8dd9759c088f459E.llvm.5272739958246948783', symObjAddr: 0x3A0, symBinAddr: 0x641C0, symSize: 0x110 }
  - { offsetInCU: 0x3697, offset: 0x255292, size: 0x8, addend: 0x0, symName: '__ZN5alloc2rc15Rc$LT$T$C$A$GT$8make_mut17h0ae379c78a2e74e2E.llvm.5272739958246948783', symObjAddr: 0x4B0, symBinAddr: 0x642D0, symSize: 0x1B0 }
  - { offsetInCU: 0x1E, offset: 0x256A3E, size: 0x8, addend: 0x0, symName: '__ZN4core3ptr179drop_in_place$LT$$LP$alloc..collections..btree..set..BTreeSet$LT$alloc..string..String$GT$$C$syn..punctuated..Punctuated$LT$proc_macro2..TokenStream$C$syn..token..Plus$GT$$RP$$GT$17h9e64340bace67316E.llvm.6088974467165979905', symObjAddr: 0x0, symBinAddr: 0x64500, symSize: 0x1B0 }
  - { offsetInCU: 0x3DA, offset: 0x256DFA, size: 0x8, addend: 0x0, symName: '__ZN4core3ptr179drop_in_place$LT$$LP$alloc..collections..btree..set..BTreeSet$LT$alloc..string..String$GT$$C$syn..punctuated..Punctuated$LT$proc_macro2..TokenStream$C$syn..token..Plus$GT$$RP$$GT$17h9e64340bace67316E.llvm.6088974467165979905', symObjAddr: 0x0, symBinAddr: 0x64500, symSize: 0x1B0 }
  - { offsetInCU: 0xB85, offset: 0x2575A5, size: 0x8, addend: 0x0, symName: '__ZN4core3ptr39drop_in_place$LT$proc_macro2..Ident$GT$17h292f8e82fbbdec86E.llvm.6088974467165979905', symObjAddr: 0x1B0, symBinAddr: 0x646B0, symSize: 0x30 }
  - { offsetInCU: 0xCD2, offset: 0x2576F2, size: 0x8, addend: 0x0, symName: '__ZN4core3ptr65drop_in_place$LT$alloc..vec..Vec$LT$proc_macro..TokenTree$GT$$GT$17he8dd9759c088f459E.llvm.6088974467165979905', symObjAddr: 0x200, symBinAddr: 0x646E0, symSize: 0x110 }
  - { offsetInCU: 0x121F, offset: 0x257C3F, size: 0x8, addend: 0x0, symName: '__ZN4core3ptr98drop_in_place$LT$core..option..Option$LT$alloc..boxed..Box$LT$proc_macro2..TokenStream$GT$$GT$$GT$17h7ec8b936484f1959E.llvm.6088974467165979905', symObjAddr: 0x310, symBinAddr: 0x647F0, symSize: 0x170 }
  - { offsetInCU: 0x17D0, offset: 0x2581F0, size: 0x8, addend: 0x0, symName: '__ZN4core3ptr99drop_in_place$LT$syn..punctuated..Punctuated$LT$proc_macro2..TokenStream$C$syn..token..Plus$GT$$GT$17hfe450300067cc071E.llvm.6088974467165979905', symObjAddr: 0x480, symBinAddr: 0x64960, symSize: 0xC0 }
  - { offsetInCU: 0x2C5C, offset: 0x25967C, size: 0x8, addend: 0x0, symName: '__ZN5alloc11collections5btree3map5entry22Entry$LT$K$C$V$C$A$GT$10or_default17h703a7e49472105a8E', symObjAddr: 0x540, symBinAddr: 0x64A20, symSize: 0x280 }
  - { offsetInCU: 0x331E, offset: 0x259D3E, size: 0x8, addend: 0x0, symName: '__ZN5alloc11collections5btree3map5entry28VacantEntry$LT$K$C$V$C$A$GT$6insert17h0fde26e0137be493E', symObjAddr: 0x7C0, symBinAddr: 0x64CA0, symSize: 0x110 }
  - { offsetInCU: 0x3867, offset: 0x25A287, size: 0x8, addend: 0x0, symName: '__ZN5alloc11collections5btree3map5entry28VacantEntry$LT$K$C$V$C$A$GT$6insert17h8433c1d3fe88d46eE', symObjAddr: 0x8D0, symBinAddr: 0x64DB0, symSize: 0x110 }
  - { offsetInCU: 0x1E, offset: 0x25DAB5, size: 0x8, addend: 0x0, symName: __ZN4core3fmt5Write9write_fmt17h34736b337847a8f2E, symObjAddr: 0x0, symBinAddr: 0x64EC0, symSize: 0x20 }
  - { offsetInCU: 0x98, offset: 0x25DB2F, size: 0x8, addend: 0x0, symName: '__ZN58_$LT$alloc..string..String$u20$as$u20$core..fmt..Write$GT$10write_char17h04bc467bd68a934bE', symObjAddr: 0x40, symBinAddr: 0x64F00, symSize: 0x140 }
  - { offsetInCU: 0x49D, offset: 0x25DF34, size: 0x8, addend: 0x0, symName: '__ZN58_$LT$alloc..string..String$u20$as$u20$core..fmt..Write$GT$9write_str17h46a93205c3443fbaE', symObjAddr: 0x180, symBinAddr: 0x65040, symSize: 0x5B }
  - { offsetInCU: 0xAC1, offset: 0x25E558, size: 0x8, addend: 0x0, symName: '__ZN4core3ptr42drop_in_place$LT$alloc..string..String$GT$17h0d927eaf88a82778E', symObjAddr: 0x20, symBinAddr: 0x64EE0, symSize: 0x20 }
  - { offsetInCU: 0xE54, offset: 0x25E8EB, size: 0x8, addend: 0x0, symName: __ZN4core3fmt5Write9write_fmt17h34736b337847a8f2E, symObjAddr: 0x0, symBinAddr: 0x64EC0, symSize: 0x20 }
  - { offsetInCU: 0x3D23, offset: 0x2630A6, size: 0x8, addend: 0x0, symName: __ZN14thiserror_impl5valid17check_field_attrs17hf77473fb65ffe32fE, symObjAddr: 0xA0, symBinAddr: 0x650A0, symSize: 0x270 }
  - { offsetInCU: 0x406E, offset: 0x2633F1, size: 0x8, addend: 0x0, symName: __ZN14thiserror_impl5valid28contains_non_static_lifetime17h92b599dd3512a00dE, symObjAddr: 0x310, symBinAddr: 0x65310, symSize: 0x2A2 }
  - { offsetInCU: 0x1E, offset: 0x26BC4C, size: 0x8, addend: 0x0, symName: __ZN3syn4attr9Attribute15parse_args_with17h893d41462d2e048dE, symObjAddr: 0x0, symBinAddr: 0x655C0, symSize: 0x2F0 }
  - { offsetInCU: 0x17D3, offset: 0x26D401, size: 0x8, addend: 0x0, symName: '__ZN4core3ptr45drop_in_place$LT$proc_macro2..TokenStream$GT$17h79bed4734ce05ff0E.llvm.13282935390800292491', symObjAddr: 0x2F0, symBinAddr: 0x658B0, symSize: 0x140 }
  - { offsetInCU: 0x1C2F, offset: 0x26D85D, size: 0x8, addend: 0x0, symName: '__ZN4core3ptr65drop_in_place$LT$alloc..vec..Vec$LT$proc_macro..TokenTree$GT$$GT$17he8dd9759c088f459E.llvm.13282935390800292491', symObjAddr: 0x430, symBinAddr: 0x659F0, symSize: 0x110 }
  - { offsetInCU: 0xAFA6, offset: 0x276BD4, size: 0x8, addend: 0x0, symName: __ZN3syn4attr9Attribute15parse_args_with17h893d41462d2e048dE, symObjAddr: 0x0, symBinAddr: 0x655C0, symSize: 0x2F0 }
  - { offsetInCU: 0x150B, offset: 0x27981C, size: 0x8, addend: 0x0, symName: '__ZN4core3ptr94drop_in_place$LT$core..result..Result$LT$core..convert..Infallible$C$syn..error..Error$GT$$GT$17h2eae10518f1c49bdE.llvm.15832483861426145911', symObjAddr: 0x1C0, symBinAddr: 0x65B00, symSize: 0x90 }
  - { offsetInCU: 0x1974, offset: 0x279C85, size: 0x8, addend: 0x0, symName: __ZN4core4iter8adapters11try_process17h7328f3242e186c4cE, symObjAddr: 0x250, symBinAddr: 0x65B90, symSize: 0x190 }
  - { offsetInCU: 0x1DAC, offset: 0x27A0BD, size: 0x8, addend: 0x0, symName: __ZN4core4iter8adapters11try_process17h7b1337f8185b4b45E, symObjAddr: 0x3E0, symBinAddr: 0x65D20, symSize: 0x116 }
  - { offsetInCU: 0x1E, offset: 0x283A06, size: 0x8, addend: 0x0, symName: __ZN4core4hash11BuildHasher8hash_one17h8e5feb51a141fa6aE, symObjAddr: 0x0, symBinAddr: 0x65E40, symSize: 0x140 }
  - { offsetInCU: 0x278, offset: 0x283C60, size: 0x8, addend: 0x0, symName: __ZN4core4hash11BuildHasher8hash_one17h8e5feb51a141fa6aE, symObjAddr: 0x0, symBinAddr: 0x65E40, symSize: 0x140 }
  - { offsetInCU: 0x95B, offset: 0x284343, size: 0x8, addend: 0x0, symName: __ZN4core4hash11BuildHasher8hash_one17h97e2db10d7894f2bE, symObjAddr: 0x140, symBinAddr: 0x65F80, symSize: 0x143 }
  - { offsetInCU: 0x728, offset: 0x285B9F, size: 0x8, addend: 0x0, symName: '__ZN54_$LT$syn..expr..Member$u20$as$u20$core..hash..Hash$GT$4hash17h66a476a04fc66251E', symObjAddr: 0x20, symBinAddr: 0x660D0, symSize: 0x180 }
  - { offsetInCU: 0xB40, offset: 0x286FB6, size: 0x8, addend: 0x0, symName: __ZN14thiserror_impl4prop12source_field17hab6223a678a80d3cE, symObjAddr: 0x50, symBinAddr: 0x66250, symSize: 0x120 }
  - { offsetInCU: 0x10A3, offset: 0x287519, size: 0x8, addend: 0x0, symName: __ZN14thiserror_impl4prop17type_is_backtrace17hbff5406eb0bcaa85E, symObjAddr: 0x240, symBinAddr: 0x66370, symSize: 0x11C }
  - { offsetInCU: 0x331, offset: 0x291DED, size: 0x8, addend: 0x0, symName: __ZN10proc_macro6bridge6client10run_client17h6329e8760f882e2bE, symObjAddr: 0x190, symBinAddr: 0x66490, symSize: 0x2DB }
  - { offsetInCU: 0x1E, offset: 0x2936E5, size: 0x8, addend: 0x0, symName: __ZN3syn5parse6Parser9parse_str17h4068a709ce1f43f7E, symObjAddr: 0x0, symBinAddr: 0x66770, symSize: 0x3F0 }
  - { offsetInCU: 0x1197, offset: 0x29485E, size: 0x8, addend: 0x0, symName: '__ZN4core3ptr39drop_in_place$LT$syn..buffer..Entry$GT$17h5f59d0ea8883583dE', symObjAddr: 0x3F0, symBinAddr: 0x66B60, symSize: 0xB0 }
  - { offsetInCU: 0x1522, offset: 0x294BE9, size: 0x8, addend: 0x0, symName: '__ZN4core3ptr44drop_in_place$LT$syn..parse..ParseBuffer$GT$17h28209f0774cc033fE', symObjAddr: 0x4A0, symBinAddr: 0x66C10, symSize: 0x70 }
  - { offsetInCU: 0x1803, offset: 0x294ECA, size: 0x8, addend: 0x0, symName: '__ZN4core3ptr45drop_in_place$LT$syn..buffer..TokenBuffer$GT$17h3870206a0a71feebE', symObjAddr: 0x510, symBinAddr: 0x66C80, symSize: 0xB9 }
  - { offsetInCU: 0x2BA8, offset: 0x29626F, size: 0x8, addend: 0x0, symName: __ZN3syn5parse6Parser9parse_str17h4068a709ce1f43f7E, symObjAddr: 0x0, symBinAddr: 0x66770, symSize: 0x3F0 }
  - { offsetInCU: 0x1E, offset: 0x2977BE, size: 0x8, addend: 0x0, symName: '__ZN10proc_macro6bridge100_$LT$impl$u20$proc_macro..bridge..rpc..Encode$LT$S$GT$$u20$for$u20$core..option..Option$LT$T$GT$$GT$6encode17hf02273ed2881d219E', symObjAddr: 0x0, symBinAddr: 0x66D40, symSize: 0x350 }
  - { offsetInCU: 0x312, offset: 0x297AB2, size: 0x8, addend: 0x0, symName: '__ZN4core3ptr45drop_in_place$LT$proc_macro2..TokenStream$GT$17h79bed4734ce05ff0E.llvm.17651332119997860081', symObjAddr: 0x590, symBinAddr: 0x672D0, symSize: 0x140 }
  - { offsetInCU: 0x76E, offset: 0x297F0E, size: 0x8, addend: 0x0, symName: '__ZN4core3ptr65drop_in_place$LT$alloc..vec..Vec$LT$proc_macro..TokenTree$GT$$GT$17he8dd9759c088f459E.llvm.17651332119997860081', symObjAddr: 0x6D0, symBinAddr: 0x67410, symSize: 0x110 }
  - { offsetInCU: 0xF44, offset: 0x2986E4, size: 0x8, addend: 0x0, symName: '__ZN10proc_macro6bridge100_$LT$impl$u20$proc_macro..bridge..rpc..Encode$LT$S$GT$$u20$for$u20$core..option..Option$LT$T$GT$$GT$6encode17hf02273ed2881d219E', symObjAddr: 0x0, symBinAddr: 0x66D40, symSize: 0x350 }
  - { offsetInCU: 0x14EA, offset: 0x298C8A, size: 0x8, addend: 0x0, symName: '__ZN10proc_macro6bridge100_$LT$impl$u20$proc_macro..bridge..rpc..Encode$LT$S$GT$$u20$for$u20$core..option..Option$LT$T$GT$$GT$6encode17hf555368dc57921fbE', symObjAddr: 0x350, symBinAddr: 0x67090, symSize: 0x240 }
  - { offsetInCU: 0x1E, offset: 0x29A3E0, size: 0x8, addend: 0x0, symName: '__ZN115_$LT$proc_macro2..imp..TokenStream$u20$as$u20$core..iter..traits..collect..Extend$LT$proc_macro2..TokenTree$GT$$GT$6extend17h6e4026dcbd4ba1adE', symObjAddr: 0x0, symBinAddr: 0x67520, symSize: 0x110 }
  - { offsetInCU: 0x78B, offset: 0x29AB4D, size: 0x8, addend: 0x0, symName: '__ZN115_$LT$proc_macro2..imp..TokenStream$u20$as$u20$core..iter..traits..collect..Extend$LT$proc_macro2..TokenTree$GT$$GT$6extend17h6e4026dcbd4ba1adE', symObjAddr: 0x0, symBinAddr: 0x67520, symSize: 0x110 }
  - { offsetInCU: 0x1673, offset: 0x29BA35, size: 0x8, addend: 0x0, symName: '__ZN4core3ptr56drop_in_place$LT$proc_macro2..token_stream..IntoIter$GT$17hf9ec3ce0adbb0736E.llvm.12932895218794474956', symObjAddr: 0x1D0, symBinAddr: 0x67630, symSize: 0x20 }
  - { offsetInCU: 0x1E, offset: 0x29BDFB, size: 0x8, addend: 0x0, symName: '__ZN120_$LT$alloc..collections..btree..set..BTreeSet$LT$T$GT$$u20$as$u20$core..iter..traits..collect..FromIterator$LT$T$GT$$GT$9from_iter17h866a644b8bcdcc60E', symObjAddr: 0x0, symBinAddr: 0x67650, symSize: 0x170 }
  - { offsetInCU: 0x1A50, offset: 0x29D82D, size: 0x8, addend: 0x0, symName: '__ZN120_$LT$alloc..collections..btree..set..BTreeSet$LT$T$GT$$u20$as$u20$core..iter..traits..collect..FromIterator$LT$T$GT$$GT$9from_iter17h866a644b8bcdcc60E', symObjAddr: 0x0, symBinAddr: 0x67650, symSize: 0x170 }
  - { offsetInCU: 0x1E, offset: 0x2A65D1, size: 0x8, addend: 0x0, symName: __ZN4core5slice4sort6shared5pivot11median3_rec17h30f97ef1684bf9c1E.llvm.9546223049094781417, symObjAddr: 0x0, symBinAddr: 0x677C0, symSize: 0xE0 }
  - { offsetInCU: 0x26A, offset: 0x2A681D, size: 0x8, addend: 0x0, symName: __ZN4core5slice4sort6shared5pivot11median3_rec17h30f97ef1684bf9c1E.llvm.9546223049094781417, symObjAddr: 0x0, symBinAddr: 0x677C0, symSize: 0xE0 }
  - { offsetInCU: 0x1E, offset: 0x2A6ECF, size: 0x8, addend: 0x0, symName: __ZN4core5slice4sort6stable14driftsort_main17hd920b962f69000ccE, symObjAddr: 0x0, symBinAddr: 0x678A0, symSize: 0x130 }
  - { offsetInCU: 0x24A, offset: 0x2A70FB, size: 0x8, addend: 0x0, symName: __ZN4core5slice4sort6stable14driftsort_main17hd920b962f69000ccE, symObjAddr: 0x0, symBinAddr: 0x678A0, symSize: 0x130 }
  - { offsetInCU: 0x1E, offset: 0x2A8182, size: 0x8, addend: 0x0, symName: '__ZN10proc_macro6bridge104_$LT$impl$u20$proc_macro..bridge..rpc..Encode$LT$S$GT$$u20$for$u20$core..result..Result$LT$T$C$E$GT$$GT$6encode17h754f4fea19c4dc84E', symObjAddr: 0x0, symBinAddr: 0x679D0, symSize: 0x300 }
  - { offsetInCU: 0x148, offset: 0x2A82AC, size: 0x8, addend: 0x0, symName: '__ZN10proc_macro6bridge104_$LT$impl$u20$proc_macro..bridge..rpc..Encode$LT$S$GT$$u20$for$u20$core..result..Result$LT$T$C$E$GT$$GT$6encode17h754f4fea19c4dc84E', symObjAddr: 0x0, symBinAddr: 0x679D0, symSize: 0x300 }
  - { offsetInCU: 0x5E3, offset: 0x2A8747, size: 0x8, addend: 0x0, symName: '__ZN10proc_macro6bridge104_$LT$impl$u20$proc_macro..bridge..rpc..Encode$LT$S$GT$$u20$for$u20$core..result..Result$LT$T$C$E$GT$$GT$6encode17h80ceb6250e6a21d0E', symObjAddr: 0x300, symBinAddr: 0x67CD0, symSize: 0x280 }
  - { offsetInCU: 0x1E, offset: 0x2A9403, size: 0x8, addend: 0x0, symName: '__ZN114_$LT$proc_macro..TokenStream$u20$as$u20$core..iter..traits..collect..FromIterator$LT$proc_macro..TokenTree$GT$$GT$9from_iter17h6bf4edb64bda91b9E', symObjAddr: 0x0, symBinAddr: 0x67F50, symSize: 0x120 }
  - { offsetInCU: 0x556, offset: 0x2A993B, size: 0x8, addend: 0x0, symName: '__ZN114_$LT$proc_macro..TokenStream$u20$as$u20$core..iter..traits..collect..FromIterator$LT$proc_macro..TokenTree$GT$$GT$9from_iter17h6bf4edb64bda91b9E', symObjAddr: 0x0, symBinAddr: 0x67F50, symSize: 0x120 }
  - { offsetInCU: 0xE83, offset: 0x2AA268, size: 0x8, addend: 0x0, symName: '__ZN4core3ptr50drop_in_place$LT$proc_macro..ConcatTreesHelper$GT$17h64dbc2638b76b403E.llvm.5128195588155749755', symObjAddr: 0x120, symBinAddr: 0x68070, symSize: 0x107 }
  - { offsetInCU: 0x1E, offset: 0x2AB60D, size: 0x8, addend: 0x0, symName: '__ZN4core3ptr45drop_in_place$LT$proc_macro2..TokenStream$GT$17h79bed4734ce05ff0E.llvm.3868405341647221026', symObjAddr: 0x0, symBinAddr: 0x68180, symSize: 0x140 }
  - { offsetInCU: 0xB2C, offset: 0x2AC11B, size: 0x8, addend: 0x0, symName: '__ZN4core3ptr45drop_in_place$LT$proc_macro2..TokenStream$GT$17h79bed4734ce05ff0E.llvm.3868405341647221026', symObjAddr: 0x0, symBinAddr: 0x68180, symSize: 0x140 }
  - { offsetInCU: 0xF88, offset: 0x2AC577, size: 0x8, addend: 0x0, symName: '__ZN4core3ptr65drop_in_place$LT$alloc..vec..Vec$LT$proc_macro..TokenTree$GT$$GT$17he8dd9759c088f459E.llvm.3868405341647221026', symObjAddr: 0x140, symBinAddr: 0x682C0, symSize: 0x110 }
  - { offsetInCU: 0x1E, offset: 0x2AD306, size: 0x8, addend: 0x0, symName: '__ZN4core3ptr45drop_in_place$LT$proc_macro2..TokenStream$GT$17h79bed4734ce05ff0E.llvm.7385020663080662837', symObjAddr: 0x0, symBinAddr: 0x683D0, symSize: 0x140 }
  - { offsetInCU: 0xB2C, offset: 0x2ADE14, size: 0x8, addend: 0x0, symName: '__ZN4core3ptr45drop_in_place$LT$proc_macro2..TokenStream$GT$17h79bed4734ce05ff0E.llvm.7385020663080662837', symObjAddr: 0x0, symBinAddr: 0x683D0, symSize: 0x140 }
  - { offsetInCU: 0xF88, offset: 0x2AE270, size: 0x8, addend: 0x0, symName: '__ZN4core3ptr65drop_in_place$LT$alloc..vec..Vec$LT$proc_macro..TokenTree$GT$$GT$17he8dd9759c088f459E.llvm.7385020663080662837', symObjAddr: 0x140, symBinAddr: 0x68510, symSize: 0x110 }
  - { offsetInCU: 0x1E, offset: 0x2AEFFF, size: 0x8, addend: 0x0, symName: '__ZN4core3ptr45drop_in_place$LT$proc_macro2..TokenStream$GT$17h79bed4734ce05ff0E.llvm.6694871281335422771', symObjAddr: 0x0, symBinAddr: 0x68620, symSize: 0x140 }
  - { offsetInCU: 0xB2C, offset: 0x2AFB0D, size: 0x8, addend: 0x0, symName: '__ZN4core3ptr45drop_in_place$LT$proc_macro2..TokenStream$GT$17h79bed4734ce05ff0E.llvm.6694871281335422771', symObjAddr: 0x0, symBinAddr: 0x68620, symSize: 0x140 }
  - { offsetInCU: 0xF88, offset: 0x2AFF69, size: 0x8, addend: 0x0, symName: '__ZN4core3ptr65drop_in_place$LT$alloc..vec..Vec$LT$proc_macro..TokenTree$GT$$GT$17he8dd9759c088f459E.llvm.6694871281335422771', symObjAddr: 0x140, symBinAddr: 0x68760, symSize: 0x110 }
  - { offsetInCU: 0x1E, offset: 0x2B0CF8, size: 0x8, addend: 0x0, symName: '__ZN4core3ptr45drop_in_place$LT$proc_macro2..TokenStream$GT$17h79bed4734ce05ff0E.llvm.10350218511552739343', symObjAddr: 0x0, symBinAddr: 0x68870, symSize: 0x140 }
  - { offsetInCU: 0xB2C, offset: 0x2B1806, size: 0x8, addend: 0x0, symName: '__ZN4core3ptr45drop_in_place$LT$proc_macro2..TokenStream$GT$17h79bed4734ce05ff0E.llvm.10350218511552739343', symObjAddr: 0x0, symBinAddr: 0x68870, symSize: 0x140 }
  - { offsetInCU: 0xF88, offset: 0x2B1C62, size: 0x8, addend: 0x0, symName: '__ZN4core3ptr65drop_in_place$LT$alloc..vec..Vec$LT$proc_macro..TokenTree$GT$$GT$17he8dd9759c088f459E.llvm.10350218511552739343', symObjAddr: 0x140, symBinAddr: 0x689B0, symSize: 0x110 }
  - { offsetInCU: 0x1E, offset: 0x2B29F1, size: 0x8, addend: 0x0, symName: '__ZN44_$LT$$RF$T$u20$as$u20$core..fmt..Display$GT$3fmt17h2228760ea00699c8E', symObjAddr: 0x0, symBinAddr: 0x68AC0, symSize: 0x17 }
  - { offsetInCU: 0x64, offset: 0x2B2A37, size: 0x8, addend: 0x0, symName: '__ZN44_$LT$$RF$T$u20$as$u20$core..fmt..Display$GT$3fmt17h2228760ea00699c8E', symObjAddr: 0x0, symBinAddr: 0x68AC0, symSize: 0x17 }
  - { offsetInCU: 0x1E, offset: 0x2B2CA1, size: 0x8, addend: 0x0, symName: __ZN10proc_macro6bridge14selfless_reify31reify_to_extern_c_fn_hrt_bridge7wrapper17h4ba5657f6bd899ffE, symObjAddr: 0x0, symBinAddr: 0x68AE0, symSize: 0x25 }
  - { offsetInCU: 0x189, offset: 0x2B2E0C, size: 0x8, addend: 0x0, symName: __ZN10proc_macro6bridge14selfless_reify31reify_to_extern_c_fn_hrt_bridge7wrapper17h4ba5657f6bd899ffE, symObjAddr: 0x0, symBinAddr: 0x68AE0, symSize: 0x25 }
  - { offsetInCU: 0x1E, offset: 0x2B3065, size: 0x8, addend: 0x0, symName: '__ZN77_$LT$$LP$A$C$B$RP$$u20$as$u20$proc_macro..bridge..rpc..DecodeMut$LT$S$GT$$GT$6decode17h19ef42ca66a437efE', symObjAddr: 0x0, symBinAddr: 0x68B10, symSize: 0xCA }
  - { offsetInCU: 0xB4, offset: 0x2B30FB, size: 0x8, addend: 0x0, symName: '__ZN77_$LT$$LP$A$C$B$RP$$u20$as$u20$proc_macro..bridge..rpc..DecodeMut$LT$S$GT$$GT$6decode17h19ef42ca66a437efE', symObjAddr: 0x0, symBinAddr: 0x68B10, symSize: 0xCA }
  - { offsetInCU: 0x1E, offset: 0x2B4364, size: 0x8, addend: 0x0, symName: '__ZN86_$LT$quote..__private..IdentFragmentAdapter$LT$T$GT$$u20$as$u20$core..fmt..Display$GT$3fmt17h2f61db70fdab5720E', symObjAddr: 0x0, symBinAddr: 0x68BE0, symSize: 0x10 }
  - { offsetInCU: 0x77, offset: 0x2B43BD, size: 0x8, addend: 0x0, symName: '__ZN86_$LT$quote..__private..IdentFragmentAdapter$LT$T$GT$$u20$as$u20$core..fmt..Display$GT$3fmt17h2f61db70fdab5720E', symObjAddr: 0x0, symBinAddr: 0x68BE0, symSize: 0x10 }
  - { offsetInCU: 0xE5, offset: 0x2B442B, size: 0x8, addend: 0x0, symName: '__ZN86_$LT$quote..__private..IdentFragmentAdapter$LT$T$GT$$u20$as$u20$core..fmt..Display$GT$3fmt17h3d34fc6bebf2fad6E', symObjAddr: 0x10, symBinAddr: 0x68BF0, symSize: 0x10 }
  - { offsetInCU: 0x176, offset: 0x2B44BC, size: 0x8, addend: 0x0, symName: '__ZN86_$LT$quote..__private..IdentFragmentAdapter$LT$T$GT$$u20$as$u20$core..fmt..Display$GT$3fmt17h544f80d3a58fc3ebE', symObjAddr: 0x20, symBinAddr: 0x68C00, symSize: 0x10 }
  - { offsetInCU: 0x1E4, offset: 0x2B452A, size: 0x8, addend: 0x0, symName: '__ZN86_$LT$quote..__private..IdentFragmentAdapter$LT$T$GT$$u20$as$u20$core..fmt..Display$GT$3fmt17hb1550dfba6a750eaE', symObjAddr: 0x30, symBinAddr: 0x68C10, symSize: 0xD }
  - { offsetInCU: 0x1E, offset: 0x2B4DF9, size: 0x8, addend: 0x0, symName: '__ZN39_$LT$T$u20$as$u20$syn..token..Token$GT$4peek17h59902434f1d00145E', symObjAddr: 0x0, symBinAddr: 0x68C20, symSize: 0xA }
  - { offsetInCU: 0x736, offset: 0x2B5511, size: 0x8, addend: 0x0, symName: '__ZN39_$LT$T$u20$as$u20$syn..token..Token$GT$4peek17h59902434f1d00145E', symObjAddr: 0x0, symBinAddr: 0x68C20, symSize: 0xA }
  - { offsetInCU: 0x4FCF, offset: 0x2BABCA, size: 0x8, addend: 0x0, symName: '__ZN3syn4item7parsing63_$LT$impl$u20$syn..parse..Parse$u20$for$u20$syn..item..Item$GT$5parse17h80cf7aab904a267aE', symObjAddr: 0xCD50, symBinAddr: 0x74A70, symSize: 0x190 }
  - { offsetInCU: 0x555B, offset: 0x2BB156, size: 0x8, addend: 0x0, symName: '__ZN3syn4item7parsing68_$LT$impl$u20$syn..parse..Parse$u20$for$u20$syn..item..ItemMacro$GT$5parse17hc5bb9427f98c7017E', symObjAddr: 0xCEE0, symBinAddr: 0x74C00, symSize: 0x6B0 }
  - { offsetInCU: 0x61E8, offset: 0x2BBDE3, size: 0x8, addend: 0x0, symName: '__ZN3syn4item7parsing74_$LT$impl$u20$syn..parse..Parse$u20$for$u20$syn..item..ItemExternCrate$GT$5parse17h6d46d67dd87b398fE', symObjAddr: 0xD590, symBinAddr: 0x752B0, symSize: 0x910 }
  - { offsetInCU: 0x75A7, offset: 0x2BD1A2, size: 0x8, addend: 0x0, symName: '__ZN3syn4item7parsing75_$LT$impl$u20$syn..parse..Parse$u20$for$u20$syn..item..StaticMutability$GT$5parse17h60646f4bbad23fa9E', symObjAddr: 0x1E6F0, symBinAddr: 0x7FD30, symSize: 0xA0 }
  - { offsetInCU: 0x7758, offset: 0x2BD353, size: 0x8, addend: 0x0, symName: '__ZN3syn4item7parsing68_$LT$impl$u20$syn..parse..Parse$u20$for$u20$syn..item..Signature$GT$5parse17h055acddcceb01c9aE', symObjAddr: 0xF690, symBinAddr: 0x75BC0, symSize: 0xA90 }
  - { offsetInCU: 0x86F9, offset: 0x2BE2F4, size: 0x8, addend: 0x0, symName: '__ZN3syn4item7parsing67_$LT$impl$u20$syn..parse..Parse$u20$for$u20$syn..item..Receiver$GT$5parse17h7c38822b1e4d7a06E', symObjAddr: 0x10630, symBinAddr: 0x76650, symSize: 0xA20 }
  - { offsetInCU: 0x98B8, offset: 0x2BF4B3, size: 0x8, addend: 0x0, symName: '__ZN3syn4item7parsing66_$LT$impl$u20$syn..parse..Parse$u20$for$u20$syn..item..ItemMod$GT$5parse17h216506bc1f5b0b64E', symObjAddr: 0x11050, symBinAddr: 0x77070, symSize: 0xD80 }
  - { offsetInCU: 0xB616, offset: 0x2C1211, size: 0x8, addend: 0x0, symName: '__ZN3syn4item7parsing73_$LT$impl$u20$syn..parse..Parse$u20$for$u20$syn..item..ItemForeignMod$GT$5parse17ha80c1978f8841fabE', symObjAddr: 0x11DD0, symBinAddr: 0x77DF0, symSize: 0x720 }
  - { offsetInCU: 0xC9ED, offset: 0x2C25E8, size: 0x8, addend: 0x0, symName: '__ZN3syn4item7parsing70_$LT$impl$u20$syn..parse..Parse$u20$for$u20$syn..item..ForeignItem$GT$5parse17hae52281c277c1a2fE', symObjAddr: 0x124F0, symBinAddr: 0x78510, symSize: 0x19B0 }
  - { offsetInCU: 0x10EB6, offset: 0x2C6AB1, size: 0x8, addend: 0x0, symName: '__ZN3syn4item7parsing69_$LT$impl$u20$syn..parse..Parse$u20$for$u20$syn..item..ItemStruct$GT$5parse17h5f37d45d0509ea74E', symObjAddr: 0x160C0, symBinAddr: 0x79EC0, symSize: 0x720 }
  - { offsetInCU: 0x119A2, offset: 0x2C759D, size: 0x8, addend: 0x0, symName: '__ZN3syn4item7parsing67_$LT$impl$u20$syn..parse..Parse$u20$for$u20$syn..item..ItemEnum$GT$5parse17hcfc041400e96f868E', symObjAddr: 0x167E0, symBinAddr: 0x7A5E0, symSize: 0x720 }
  - { offsetInCU: 0x12490, offset: 0x2C808B, size: 0x8, addend: 0x0, symName: '__ZN3syn4item7parsing68_$LT$impl$u20$syn..parse..Parse$u20$for$u20$syn..item..ItemUnion$GT$5parse17h3bd0150048f99936E', symObjAddr: 0x16F00, symBinAddr: 0x7AD00, symSize: 0x710 }
  - { offsetInCU: 0x12F72, offset: 0x2C8B6D, size: 0x8, addend: 0x0, symName: '__ZN3syn4item7parsing68_$LT$impl$u20$syn..parse..Parse$u20$for$u20$syn..item..ItemTrait$GT$5parse17hba3917e64180f729E', symObjAddr: 0x17610, symBinAddr: 0x7B410, symSize: 0x630 }
  - { offsetInCU: 0x13C99, offset: 0x2C9894, size: 0x8, addend: 0x0, symName: '__ZN3syn4item7parsing68_$LT$impl$u20$syn..parse..Parse$u20$for$u20$syn..item..TraitItem$GT$5parse17h5e01dedab6d196dfE', symObjAddr: 0x17DA0, symBinAddr: 0x7BA40, symSize: 0x1B80 }
  - { offsetInCU: 0x1988D, offset: 0x2CF488, size: 0x8, addend: 0x0, symName: '__ZN3syn4item7parsing70_$LT$impl$u20$syn..parse..Parse$u20$for$u20$syn..item..TraitItemFn$GT$5parse17h386721044cd912e3E', symObjAddr: 0x1A250, symBinAddr: 0x7D5C0, symSize: 0x850 }
  - { offsetInCU: 0x1AEBF, offset: 0x2D0ABA, size: 0x8, addend: 0x0, symName: '__ZN3syn4item7parsing67_$LT$impl$u20$syn..parse..Parse$u20$for$u20$syn..item..ImplItem$GT$5parse17h6b1c6f6f70b03df2E', symObjAddr: 0x1B350, symBinAddr: 0x7DE10, symSize: 0x1BE0 }
  - { offsetInCU: 0x204B8, offset: 0x2D60B3, size: 0x8, addend: 0x0, symName: '__ZN3syn4item7parsing72_$LT$impl$u20$syn..parse..Parse$u20$for$u20$syn..item..ImplItemMacro$GT$5parse17h34a4a0c85418b70aE', symObjAddr: 0x1E3B0, symBinAddr: 0x7F9F0, symSize: 0x0 }
  - { offsetInCU: 0x20B84, offset: 0x2D677F, size: 0x8, addend: 0x0, symName: '__ZN3syn4item8printing83_$LT$impl$u20$quote..to_tokens..ToTokens$u20$for$u20$syn..item..ItemExternCrate$GT$9to_tokens17hfe36bc772e4277a0E', symObjAddr: 0x1E790, symBinAddr: 0x7FDD0, symSize: 0x250 }
  - { offsetInCU: 0x21140, offset: 0x2D6D3B, size: 0x8, addend: 0x0, symName: '__ZN3syn4item8printing78_$LT$impl$u20$quote..to_tokens..ToTokens$u20$for$u20$syn..item..ItemStatic$GT$9to_tokens17hbc3d5375fc6c771cE', symObjAddr: 0x1EB70, symBinAddr: 0x80020, symSize: 0x220 }
  - { offsetInCU: 0x21676, offset: 0x2D7271, size: 0x8, addend: 0x0, symName: '__ZN3syn4item8printing75_$LT$impl$u20$quote..to_tokens..ToTokens$u20$for$u20$syn..item..ItemMod$GT$9to_tokens17h0200f7c6912b0a1cE', symObjAddr: 0x1F050, symBinAddr: 0x80240, symSize: 0x230 }
  - { offsetInCU: 0x21B72, offset: 0x2D776D, size: 0x8, addend: 0x0, symName: '__ZN3syn4item8printing76_$LT$impl$u20$quote..to_tokens..ToTokens$u20$for$u20$syn..item..ItemType$GT$9to_tokens17he708c67807a0f5e7E', symObjAddr: 0x1F440, symBinAddr: 0x80470, symSize: 0x1C0 }
  - { offsetInCU: 0x21ED1, offset: 0x2D7ACC, size: 0x8, addend: 0x0, symName: '__ZN3syn4item8printing76_$LT$impl$u20$quote..to_tokens..ToTokens$u20$for$u20$syn..item..ItemEnum$GT$9to_tokens17h182a12d3a154632dE', symObjAddr: 0x1F600, symBinAddr: 0x80630, symSize: 0x180 }
  - { offsetInCU: 0x221B6, offset: 0x2D7DB1, size: 0x8, addend: 0x0, symName: '__ZN3syn4item8printing78_$LT$impl$u20$quote..to_tokens..ToTokens$u20$for$u20$syn..item..ItemStruct$GT$9to_tokens17h8172cc7233ca8fbeE', symObjAddr: 0x1F780, symBinAddr: 0x807B0, symSize: 0x220 }
  - { offsetInCU: 0x2259B, offset: 0x2D8196, size: 0x8, addend: 0x0, symName: '__ZN3syn4item8printing77_$LT$impl$u20$quote..to_tokens..ToTokens$u20$for$u20$syn..item..ItemUnion$GT$9to_tokens17h6c795ad402d2a166E', symObjAddr: 0x1F9A0, symBinAddr: 0x809D0, symSize: 0x180 }
  - { offsetInCU: 0x228A6, offset: 0x2D84A1, size: 0x8, addend: 0x0, symName: '__ZN3syn4item8printing77_$LT$impl$u20$quote..to_tokens..ToTokens$u20$for$u20$syn..item..ItemTrait$GT$9to_tokens17h8121c5f1327add6eE', symObjAddr: 0x1FB20, symBinAddr: 0x80B50, symSize: 0x320 }
  - { offsetInCU: 0x232F3, offset: 0x2D8EEE, size: 0x8, addend: 0x0, symName: '__ZN3syn4item8printing82_$LT$impl$u20$quote..to_tokens..ToTokens$u20$for$u20$syn..item..ItemTraitAlias$GT$9to_tokens17hc5f43bf815c68949E', symObjAddr: 0x1FE40, symBinAddr: 0x80E70, symSize: 0x330 }
  - { offsetInCU: 0x23BCA, offset: 0x2D97C5, size: 0x8, addend: 0x0, symName: '__ZN3syn4item8printing76_$LT$impl$u20$quote..to_tokens..ToTokens$u20$for$u20$syn..item..ItemImpl$GT$9to_tokens17h0c3a9ddae74c937dE', symObjAddr: 0x20170, symBinAddr: 0x811A0, symSize: 0x340 }
  - { offsetInCU: 0x24417, offset: 0x2DA012, size: 0x8, addend: 0x0, symName: '__ZN3syn4item8printing77_$LT$impl$u20$quote..to_tokens..ToTokens$u20$for$u20$syn..item..ItemMacro$GT$9to_tokens17haec818905d80644fE', symObjAddr: 0x204B0, symBinAddr: 0x814E0, symSize: 0x190 }
  - { offsetInCU: 0x2484B, offset: 0x2DA446, size: 0x8, addend: 0x0, symName: '__ZN3syn4item8printing82_$LT$impl$u20$quote..to_tokens..ToTokens$u20$for$u20$syn..item..TraitItemConst$GT$9to_tokens17h76e791416bf823d1E', symObjAddr: 0x20790, symBinAddr: 0x81670, symSize: 0x1C0 }
  - { offsetInCU: 0x24BE2, offset: 0x2DA7DD, size: 0x8, addend: 0x0, symName: '__ZN3syn4item8printing81_$LT$impl$u20$quote..to_tokens..ToTokens$u20$for$u20$syn..item..TraitItemType$GT$9to_tokens17hbe42b3bab95c6768E', symObjAddr: 0x20AB0, symBinAddr: 0x81830, symSize: 0x240 }
  - { offsetInCU: 0x25026, offset: 0x2DAC21, size: 0x8, addend: 0x0, symName: '__ZN3syn4item8printing81_$LT$impl$u20$quote..to_tokens..ToTokens$u20$for$u20$syn..item..ImplItemConst$GT$9to_tokens17hdd48b33068953141E', symObjAddr: 0x20CF0, symBinAddr: 0x81A70, symSize: 0x240 }
  - { offsetInCU: 0x254DE, offset: 0x2DB0D9, size: 0x8, addend: 0x0, symName: '__ZN3syn4item8printing80_$LT$impl$u20$quote..to_tokens..ToTokens$u20$for$u20$syn..item..ImplItemType$GT$9to_tokens17hbce09990808c878cE', symObjAddr: 0x21090, symBinAddr: 0x81CB0, symSize: 0x230 }
  - { offsetInCU: 0x259CC, offset: 0x2DB5C7, size: 0x8, addend: 0x0, symName: '__ZN3syn4item8printing85_$LT$impl$u20$quote..to_tokens..ToTokens$u20$for$u20$syn..item..ForeignItemStatic$GT$9to_tokens17h378f5a1dfc9fdf33E', symObjAddr: 0x214C0, symBinAddr: 0x81EE0, symSize: 0x200 }
  - { offsetInCU: 0x25E56, offset: 0x2DBA51, size: 0x8, addend: 0x0, symName: '__ZN3syn4item8printing83_$LT$impl$u20$quote..to_tokens..ToTokens$u20$for$u20$syn..item..ForeignItemType$GT$9to_tokens17h4ed6b28f8ddb36b2E', symObjAddr: 0x216C0, symBinAddr: 0x820E0, symSize: 0x190 }
  - { offsetInCU: 0x26163, offset: 0x2DBD5E, size: 0x8, addend: 0x0, symName: '__ZN3syn4item8printing77_$LT$impl$u20$quote..to_tokens..ToTokens$u20$for$u20$syn..item..Signature$GT$9to_tokens17h487e336073ff52a3E', symObjAddr: 0x21850, symBinAddr: 0x82270, symSize: 0x330 }
  - { offsetInCU: 0x2693A, offset: 0x2DC535, size: 0x8, addend: 0x0, symName: '__ZN3syn4item8printing76_$LT$impl$u20$quote..to_tokens..ToTokens$u20$for$u20$syn..item..Receiver$GT$9to_tokens17h0593f180191f94a9E', symObjAddr: 0x21B80, symBinAddr: 0x825A0, symSize: 0x2E0 }
  - { offsetInCU: 0x270E9, offset: 0x2DCCE4, size: 0x8, addend: 0x0, symName: '__ZN3syn4item8printing76_$LT$impl$u20$quote..to_tokens..ToTokens$u20$for$u20$syn..item..Variadic$GT$9to_tokens17h5d9696317f3ad996E', symObjAddr: 0x21E60, symBinAddr: 0x82880, symSize: 0x130 }
  - { offsetInCU: 0x27400, offset: 0x2DCFFB, size: 0x8, addend: 0x0, symName: '__ZN62_$LT$syn..item..Item$u20$as$u20$quote..to_tokens..ToTokens$GT$9to_tokens17he7e69ecbc61b7b2cE', symObjAddr: 0x22010, symBinAddr: 0x829B0, symSize: 0x730 }
  - { offsetInCU: 0x28278, offset: 0x2DDE73, size: 0x8, addend: 0x0, symName: '__ZN65_$LT$syn..item..UseTree$u20$as$u20$quote..to_tokens..ToTokens$GT$9to_tokens17hee39f883784acb47E', symObjAddr: 0x22740, symBinAddr: 0x830E0, symSize: 0x310 }
  - { offsetInCU: 0x28B2E, offset: 0x2DE729, size: 0x8, addend: 0x0, symName: '__ZN69_$LT$syn..item..ForeignItem$u20$as$u20$quote..to_tokens..ToTokens$GT$9to_tokens17hb7bfc5d782828218E', symObjAddr: 0x22A50, symBinAddr: 0x833F0, symSize: 0x250 }
  - { offsetInCU: 0x28F51, offset: 0x2DEB4C, size: 0x8, addend: 0x0, symName: '__ZN67_$LT$syn..item..TraitItem$u20$as$u20$quote..to_tokens..ToTokens$GT$9to_tokens17h9010403c8466e854E', symObjAddr: 0x22CA0, symBinAddr: 0x83640, symSize: 0x2B0 }
  - { offsetInCU: 0x293E3, offset: 0x2DEFDE, size: 0x8, addend: 0x0, symName: '__ZN66_$LT$syn..item..ImplItem$u20$as$u20$quote..to_tokens..ToTokens$GT$9to_tokens17h9ce4fd01d680c33dE', symObjAddr: 0x22F50, symBinAddr: 0x838F0, symSize: 0x2E0 }
  - { offsetInCU: 0x2A07D, offset: 0x2DFC78, size: 0x8, addend: 0x0, symName: '__ZN3syn3gen5clone67_$LT$impl$u20$core..clone..Clone$u20$for$u20$syn..item..UseTree$GT$5clone17he4721d92d6223b97E', symObjAddr: 0x28540, symBinAddr: 0x889A0, symSize: 0x2A0 }
  - { offsetInCU: 0x2A761, offset: 0x2E035C, size: 0x8, addend: 0x0, symName: '__ZN3syn3gen5clone71_$LT$impl$u20$core..clone..Clone$u20$for$u20$syn..item..ForeignItem$GT$5clone17hee3f13bdccecaf04E', symObjAddr: 0x23290, symBinAddr: 0x83BD0, symSize: 0x2A0 }
  - { offsetInCU: 0x2AB3F, offset: 0x2E073A, size: 0x8, addend: 0x0, symName: '__ZN3syn3gen5clone77_$LT$impl$u20$core..clone..Clone$u20$for$u20$syn..item..ForeignItemStatic$GT$5clone17h1c013599a1b7e0d2E', symObjAddr: 0x23620, symBinAddr: 0x83E70, symSize: 0x1E0 }
  - { offsetInCU: 0x2AFE0, offset: 0x2E0BDB, size: 0x8, addend: 0x0, symName: '__ZN3syn3gen5clone75_$LT$impl$u20$core..clone..Clone$u20$for$u20$syn..item..ForeignItemType$GT$5clone17h39c42a7ed9f93bc7E', symObjAddr: 0x23800, symBinAddr: 0x84050, symSize: 0x290 }
  - { offsetInCU: 0x2B321, offset: 0x2E0F1C, size: 0x8, addend: 0x0, symName: '__ZN3syn3gen5clone68_$LT$impl$u20$core..clone..Clone$u20$for$u20$syn..item..ImplItem$GT$5clone17hfcffd5bef6db6eefE', symObjAddr: 0x23A90, symBinAddr: 0x842E0, symSize: 0x1E0 }
  - { offsetInCU: 0x2B662, offset: 0x2E125D, size: 0x8, addend: 0x0, symName: '__ZN3syn3gen5clone73_$LT$impl$u20$core..clone..Clone$u20$for$u20$syn..item..ImplItemConst$GT$5clone17hcba22f66f4790359E', symObjAddr: 0x23C70, symBinAddr: 0x844C0, symSize: 0x3C0 }
  - { offsetInCU: 0x2BA20, offset: 0x2E161B, size: 0x8, addend: 0x0, symName: '__ZN3syn3gen5clone70_$LT$impl$u20$core..clone..Clone$u20$for$u20$syn..item..ImplItemFn$GT$5clone17hfa99a17b751a231eE', symObjAddr: 0x24030, symBinAddr: 0x84880, symSize: 0x170 }
  - { offsetInCU: 0x2BACD, offset: 0x2E16C8, size: 0x8, addend: 0x0, symName: '__ZN3syn3gen5clone72_$LT$impl$u20$core..clone..Clone$u20$for$u20$syn..item..ImplItemType$GT$5clone17h0cbe501e4ceb9fa6E', symObjAddr: 0x24230, symBinAddr: 0x849F0, symSize: 0x360 }
  - { offsetInCU: 0x2BE82, offset: 0x2E1A7D, size: 0x8, addend: 0x0, symName: '__ZN3syn3gen5clone64_$LT$impl$u20$core..clone..Clone$u20$for$u20$syn..item..Item$GT$5clone17h88393b98a180baddE', symObjAddr: 0x24590, symBinAddr: 0x84D50, symSize: 0x3C0 }
  - { offsetInCU: 0x2C3D6, offset: 0x2E1FD1, size: 0x8, addend: 0x0, symName: '__ZN3syn3gen5clone69_$LT$impl$u20$core..clone..Clone$u20$for$u20$syn..item..ItemConst$GT$5clone17h625d5dfdf97f0db7E', symObjAddr: 0x24950, symBinAddr: 0x85110, symSize: 0x410 }
  - { offsetInCU: 0x2CB82, offset: 0x2E277D, size: 0x8, addend: 0x0, symName: '__ZN3syn3gen5clone68_$LT$impl$u20$core..clone..Clone$u20$for$u20$syn..item..ItemEnum$GT$5clone17hcbd28186f3af1a48E', symObjAddr: 0x24D60, symBinAddr: 0x85520, symSize: 0x320 }
  - { offsetInCU: 0x2CE86, offset: 0x2E2A81, size: 0x8, addend: 0x0, symName: '__ZN3syn3gen5clone75_$LT$impl$u20$core..clone..Clone$u20$for$u20$syn..item..ItemExternCrate$GT$5clone17heae6e2f0373fe0bbE', symObjAddr: 0x25080, symBinAddr: 0x85840, symSize: 0x1A0 }
  - { offsetInCU: 0x2D19B, offset: 0x2E2D96, size: 0x8, addend: 0x0, symName: '__ZN3syn3gen5clone66_$LT$impl$u20$core..clone..Clone$u20$for$u20$syn..item..ItemFn$GT$5clone17h4e6ff2347c0f748eE', symObjAddr: 0x25220, symBinAddr: 0x859E0, symSize: 0x190 }
  - { offsetInCU: 0x2D433, offset: 0x2E302E, size: 0x8, addend: 0x0, symName: '__ZN3syn3gen5clone68_$LT$impl$u20$core..clone..Clone$u20$for$u20$syn..item..ItemImpl$GT$5clone17hd2b1c2db65c8a4ebE', symObjAddr: 0x25490, symBinAddr: 0x85B70, symSize: 0x470 }
  - { offsetInCU: 0x2D906, offset: 0x2E3501, size: 0x8, addend: 0x0, symName: '__ZN3syn3gen5clone69_$LT$impl$u20$core..clone..Clone$u20$for$u20$syn..item..ItemMacro$GT$5clone17h7d6f56f137cac903E', symObjAddr: 0x25900, symBinAddr: 0x85FE0, symSize: 0x120 }
  - { offsetInCU: 0x2DB42, offset: 0x2E373D, size: 0x8, addend: 0x0, symName: '__ZN3syn3gen5clone67_$LT$impl$u20$core..clone..Clone$u20$for$u20$syn..item..ItemMod$GT$5clone17h08b706d9debac69fE', symObjAddr: 0x25A20, symBinAddr: 0x86100, symSize: 0x200 }
  - { offsetInCU: 0x2DE09, offset: 0x2E3A04, size: 0x8, addend: 0x0, symName: '__ZN3syn3gen5clone70_$LT$impl$u20$core..clone..Clone$u20$for$u20$syn..item..ItemStatic$GT$5clone17h7d89c79988a48493E', symObjAddr: 0x25C20, symBinAddr: 0x86300, symSize: 0x290 }
  - { offsetInCU: 0x2E4DA, offset: 0x2E40D5, size: 0x8, addend: 0x0, symName: '__ZN3syn3gen5clone70_$LT$impl$u20$core..clone..Clone$u20$for$u20$syn..item..ItemStruct$GT$5clone17h25082ded106363f3E', symObjAddr: 0x25EB0, symBinAddr: 0x86590, symSize: 0x3D0 }
  - { offsetInCU: 0x2E8EF, offset: 0x2E44EA, size: 0x8, addend: 0x0, symName: '__ZN3syn3gen5clone69_$LT$impl$u20$core..clone..Clone$u20$for$u20$syn..item..ItemTrait$GT$5clone17ha34a4241e37415ecE', symObjAddr: 0x26280, symBinAddr: 0x86960, symSize: 0x3E0 }
  - { offsetInCU: 0x2EC7F, offset: 0x2E487A, size: 0x8, addend: 0x0, symName: '__ZN3syn3gen5clone74_$LT$impl$u20$core..clone..Clone$u20$for$u20$syn..item..ItemTraitAlias$GT$5clone17hef59f8a644aff956E', symObjAddr: 0x26660, symBinAddr: 0x86D40, symSize: 0x320 }
  - { offsetInCU: 0x2EFDF, offset: 0x2E4BDA, size: 0x8, addend: 0x0, symName: '__ZN3syn3gen5clone68_$LT$impl$u20$core..clone..Clone$u20$for$u20$syn..item..ItemType$GT$5clone17h2cc3a1af26227a5bE', symObjAddr: 0x26980, symBinAddr: 0x87060, symSize: 0x350 }
  - { offsetInCU: 0x2F55B, offset: 0x2E5156, size: 0x8, addend: 0x0, symName: '__ZN3syn3gen5clone69_$LT$impl$u20$core..clone..Clone$u20$for$u20$syn..item..ItemUnion$GT$5clone17h9499aeac8cc94731E', symObjAddr: 0x26CD0, symBinAddr: 0x873B0, symSize: 0x340 }
  - { offsetInCU: 0x2F8A9, offset: 0x2E54A4, size: 0x8, addend: 0x0, symName: '__ZN3syn3gen5clone67_$LT$impl$u20$core..clone..Clone$u20$for$u20$syn..item..ItemUse$GT$5clone17h83cf32ef390bdd8aE', symObjAddr: 0x27010, symBinAddr: 0x876F0, symSize: 0x130 }
  - { offsetInCU: 0x2F969, offset: 0x2E5564, size: 0x8, addend: 0x0, symName: '__ZN3syn3gen5clone68_$LT$impl$u20$core..clone..Clone$u20$for$u20$syn..item..Receiver$GT$5clone17h3f91689b2c338982E', symObjAddr: 0x27140, symBinAddr: 0x87820, symSize: 0x1B0 }
  - { offsetInCU: 0x2FD7E, offset: 0x2E5979, size: 0x8, addend: 0x0, symName: '__ZN3syn3gen5clone69_$LT$impl$u20$core..clone..Clone$u20$for$u20$syn..item..Signature$GT$5clone17hf28c97c0572e4c68E', symObjAddr: 0x272F0, symBinAddr: 0x879D0, symSize: 0x5A0 }
  - { offsetInCU: 0x30536, offset: 0x2E6131, size: 0x8, addend: 0x0, symName: '__ZN3syn3gen5clone69_$LT$impl$u20$core..clone..Clone$u20$for$u20$syn..item..TraitItem$GT$5clone17hd22c218447a047bfE', symObjAddr: 0x27890, symBinAddr: 0x87F70, symSize: 0x1E0 }
  - { offsetInCU: 0x30877, offset: 0x2E6472, size: 0x8, addend: 0x0, symName: '__ZN3syn3gen5clone74_$LT$impl$u20$core..clone..Clone$u20$for$u20$syn..item..TraitItemConst$GT$5clone17he22a2ce3bf5c1704E', symObjAddr: 0x27A70, symBinAddr: 0x88150, symSize: 0x370 }
  - { offsetInCU: 0x30C3F, offset: 0x2E683A, size: 0x8, addend: 0x0, symName: '__ZN3syn3gen5clone71_$LT$impl$u20$core..clone..Clone$u20$for$u20$syn..item..TraitItemFn$GT$5clone17h7ac8fc7a77eb5240E', symObjAddr: 0x27DE0, symBinAddr: 0x884C0, symSize: 0x150 }
  - { offsetInCU: 0x30D31, offset: 0x2E692C, size: 0x8, addend: 0x0, symName: '__ZN3syn3gen5clone73_$LT$impl$u20$core..clone..Clone$u20$for$u20$syn..item..TraitItemType$GT$5clone17h83742b5ed183cb22E', symObjAddr: 0x27F30, symBinAddr: 0x88610, symSize: 0x390 }
  - { offsetInCU: 0x310F0, offset: 0x2E6CEB, size: 0x8, addend: 0x0, symName: '__ZN3syn3gen5clone68_$LT$impl$u20$core..clone..Clone$u20$for$u20$syn..item..Variadic$GT$5clone17h397fcedc25d54663E', symObjAddr: 0x287E0, symBinAddr: 0x88C40, symSize: 0x110 }
  - { offsetInCU: 0x33B34, offset: 0x2E972F, size: 0x8, addend: 0x0, symName: '__ZN4core3ptr100drop_in_place$LT$core..option..Option$LT$alloc..boxed..Box$LT$syn..path..GenericArgument$GT$$GT$$GT$17h3a7c44b9e57fe410E', symObjAddr: 0x6C0, symBinAddr: 0x68FD0, symSize: 0x50 }
  - { offsetInCU: 0x33E56, offset: 0x2E9A51, size: 0x8, addend: 0x0, symName: '__ZN4core3ptr100drop_in_place$LT$syn..punctuated..Punctuated$LT$syn..path..PathSegment$C$syn..token..PathSep$GT$$GT$17he41ef64147139591E', symObjAddr: 0x710, symBinAddr: 0x69020, symSize: 0x2B0 }
  - { offsetInCU: 0x3490C, offset: 0x2EA507, size: 0x8, addend: 0x0, symName: '__ZN4core3ptr103drop_in_place$LT$core..option..Option$LT$alloc..boxed..Box$LT$syn..generics..TypeParamBound$GT$$GT$$GT$17hb14e4384a768542bE', symObjAddr: 0x9C0, symBinAddr: 0x692D0, symSize: 0x50 }
  - { offsetInCU: 0x34B55, offset: 0x2EA750, size: 0x8, addend: 0x0, symName: '__ZN4core3ptr103drop_in_place$LT$core..option..Option$LT$alloc..boxed..Box$LT$syn..generics..WherePredicate$GT$$GT$$GT$17he190813f4819c5dbE', symObjAddr: 0xA10, symBinAddr: 0x69320, symSize: 0xD0 }
  - { offsetInCU: 0x34EE9, offset: 0x2EAAE4, size: 0x8, addend: 0x0, symName: '__ZN4core3ptr103drop_in_place$LT$syn..punctuated..Punctuated$LT$syn..generics..GenericParam$C$syn..token..Comma$GT$$GT$17h0c6077a988036760E', symObjAddr: 0xAE0, symBinAddr: 0x693F0, symSize: 0xF0 }
  - { offsetInCU: 0x35387, offset: 0x2EAF82, size: 0x8, addend: 0x0, symName: '__ZN4core3ptr104drop_in_place$LT$syn..punctuated..Punctuated$LT$syn..generics..TypeParamBound$C$syn..token..Plus$GT$$GT$17h724e4d9d1d65061aE', symObjAddr: 0xBD0, symBinAddr: 0x694E0, symSize: 0x190 }
  - { offsetInCU: 0x359C9, offset: 0x2EB5C4, size: 0x8, addend: 0x0, symName: '__ZN4core3ptr107drop_in_place$LT$$LP$syn..restriction..Visibility$C$core..option..Option$LT$syn..token..Default$GT$$RP$$GT$17h7dbdeb5ac6957065E', symObjAddr: 0xD60, symBinAddr: 0x69670, symSize: 0x60 }
  - { offsetInCU: 0x35B86, offset: 0x2EB781, size: 0x8, addend: 0x0, symName: '__ZN4core3ptr115drop_in_place$LT$core..option..Option$LT$$LP$alloc..boxed..Box$LT$syn..pat..Pat$GT$$C$syn..token..Colon$RP$$GT$$GT$17h787822396d5dcd7bE', symObjAddr: 0xDC0, symBinAddr: 0x696D0, symSize: 0x50 }
  - { offsetInCU: 0x35D58, offset: 0x2EB953, size: 0x8, addend: 0x0, symName: '__ZN4core3ptr115drop_in_place$LT$core..option..Option$LT$$LP$syn..token..Brace$C$alloc..vec..Vec$LT$syn..item..Item$GT$$RP$$GT$$GT$17h4f61046186bbd7c9E', symObjAddr: 0xE10, symBinAddr: 0x69720, symSize: 0xD0 }
  - { offsetInCU: 0x3606F, offset: 0x2EBC6A, size: 0x8, addend: 0x0, symName: '__ZN4core3ptr126drop_in_place$LT$core..option..Option$LT$$LP$syn..token..And$C$core..option..Option$LT$syn..lifetime..Lifetime$GT$$RP$$GT$$GT$17h45c5d73e12cdf6f0E', symObjAddr: 0xEE0, symBinAddr: 0x697F0, symSize: 0x30 }
  - { offsetInCU: 0x3631D, offset: 0x2EBF18, size: 0x8, addend: 0x0, symName: '__ZN4core3ptr34drop_in_place$LT$syn..lit..Lit$GT$17hd64dde89a262341dE', symObjAddr: 0xF90, symBinAddr: 0x69820, symSize: 0x120 }
  - { offsetInCU: 0x367EC, offset: 0x2EC3E7, size: 0x8, addend: 0x0, symName: '__ZN4core3ptr34drop_in_place$LT$syn..pat..Pat$GT$17hf88887878261d63cE', symObjAddr: 0x10B0, symBinAddr: 0x69940, symSize: 0x1100 }
  - { offsetInCU: 0x3ADCB, offset: 0x2F09C6, size: 0x8, addend: 0x0, symName: '__ZN4core3ptr34drop_in_place$LT$syn..ty..Type$GT$17ha80dd29b0f9d4a3fE', symObjAddr: 0x21B0, symBinAddr: 0x6AA40, symSize: 0x510 }
  - { offsetInCU: 0x3C444, offset: 0x2F203F, size: 0x8, addend: 0x0, symName: '__ZN4core3ptr36drop_in_place$LT$syn..expr..Expr$GT$17h10f573b40ddd212cE', symObjAddr: 0x26C0, symBinAddr: 0x6AF50, symSize: 0x2840 }
  - { offsetInCU: 0x46960, offset: 0x2FC55B, size: 0x8, addend: 0x0, symName: '__ZN4core3ptr36drop_in_place$LT$syn..item..Item$GT$17haa59cf9e39ab8cebE', symObjAddr: 0x4F00, symBinAddr: 0x6D790, symSize: 0x1940 }
  - { offsetInCU: 0x4CD23, offset: 0x30291E, size: 0x8, addend: 0x0, symName: '__ZN4core3ptr36drop_in_place$LT$syn..mac..Macro$GT$17hc3b30a7a8a34cc2dE', symObjAddr: 0x6840, symBinAddr: 0x6F0D0, symSize: 0x40 }
  - { offsetInCU: 0x4CD5D, offset: 0x302958, size: 0x8, addend: 0x0, symName: '__ZN4core3ptr36drop_in_place$LT$syn..path..Path$GT$17h75c74a97d5f0a03bE', symObjAddr: 0x6880, symBinAddr: 0x6F110, symSize: 0x280 }
  - { offsetInCU: 0x4D80A, offset: 0x303405, size: 0x8, addend: 0x0, symName: '__ZN4core3ptr37drop_in_place$LT$syn..stmt..Block$GT$17h6fc3254d5688f2c3E', symObjAddr: 0x6B00, symBinAddr: 0x6F390, symSize: 0xD0 }
  - { offsetInCU: 0x4DB00, offset: 0x3036FB, size: 0x8, addend: 0x0, symName: '__ZN4core3ptr38drop_in_place$LT$syn..data..Fields$GT$17h79840861dd1f691dE', symObjAddr: 0x6BD0, symBinAddr: 0x6F460, symSize: 0x190 }
  - { offsetInCU: 0x4DF4A, offset: 0x303B45, size: 0x8, addend: 0x0, symName: '__ZN4core3ptr38drop_in_place$LT$syn..expr..Member$GT$17h6b0cf84594ce6bceE', symObjAddr: 0x6D60, symBinAddr: 0x6F5F0, symSize: 0x30 }
  - { offsetInCU: 0x4E046, offset: 0x303C41, size: 0x8, addend: 0x0, symName: '__ZN4core3ptr38drop_in_place$LT$syn..pat..PatType$GT$17h835dce85ba90235eE.llvm.18308377727791997679', symObjAddr: 0x6D90, symBinAddr: 0x6F620, symSize: 0x140 }
  - { offsetInCU: 0x4E5F1, offset: 0x3041EC, size: 0x8, addend: 0x0, symName: '__ZN4core3ptr39drop_in_place$LT$proc_macro2..Ident$GT$17ha28fef9769e267d9E', symObjAddr: 0x6ED0, symBinAddr: 0x6F760, symSize: 0x30 }
  - { offsetInCU: 0x4E74A, offset: 0x304345, size: 0x8, addend: 0x0, symName: '__ZN4core3ptr39drop_in_place$LT$syn..item..UseTree$GT$17h7288572c631f954aE', symObjAddr: 0x6F70, symBinAddr: 0x6F790, symSize: 0xE0 }
  - { offsetInCU: 0x4EB4E, offset: 0x304749, size: 0x8, addend: 0x0, symName: '__ZN4core3ptr40drop_in_place$LT$syn..item..ImplItem$GT$17h98907b2080b0ccb0E', symObjAddr: 0x7050, symBinAddr: 0x6F870, symSize: 0x4D0 }
  - { offsetInCU: 0x4F982, offset: 0x30557D, size: 0x8, addend: 0x0, symName: '__ZN4core3ptr40drop_in_place$LT$syn..item..Receiver$GT$17h5e68a437c3b8e574E.llvm.18308377727791997679', symObjAddr: 0x7520, symBinAddr: 0x6FD40, symSize: 0x130 }
  - { offsetInCU: 0x4FF6D, offset: 0x305B68, size: 0x8, addend: 0x0, symName: '__ZN4core3ptr40drop_in_place$LT$syn..item..Variadic$GT$17hf9d4ebdb0f5e723aE', symObjAddr: 0x7660, symBinAddr: 0x6FE70, symSize: 0x120 }
  - { offsetInCU: 0x503F2, offset: 0x305FED, size: 0x8, addend: 0x0, symName: '__ZN4core3ptr40drop_in_place$LT$syn..ty..ReturnType$GT$17h035a612e322b6510E', symObjAddr: 0x7780, symBinAddr: 0x6FF90, symSize: 0x50 }
  - { offsetInCU: 0x50562, offset: 0x30615D, size: 0x8, addend: 0x0, symName: '__ZN4core3ptr41drop_in_place$LT$syn..expr..ExprConst$GT$17hbfe19d5d621e6836E', symObjAddr: 0x77D0, symBinAddr: 0x6FFE0, symSize: 0x180 }
  - { offsetInCU: 0x50B6E, offset: 0x306769, size: 0x8, addend: 0x0, symName: '__ZN4core3ptr41drop_in_place$LT$syn..item..Signature$GT$17h41f785211ad8eb02E', symObjAddr: 0x7950, symBinAddr: 0x70160, symSize: 0x180 }
  - { offsetInCU: 0x5125E, offset: 0x306E59, size: 0x8, addend: 0x0, symName: '__ZN4core3ptr41drop_in_place$LT$syn..item..TraitItem$GT$17hc74edaa948c160a2E', symObjAddr: 0x7AD0, symBinAddr: 0x702E0, symSize: 0x5F0 }
  - { offsetInCU: 0x5244E, offset: 0x308049, size: 0x8, addend: 0x0, symName: '__ZN4core3ptr42drop_in_place$LT$syn..item..ImplItemFn$GT$17haf8f89161f0a8aa1E', symObjAddr: 0x8110, symBinAddr: 0x708D0, symSize: 0x200 }
  - { offsetInCU: 0x52BB6, offset: 0x3087B1, size: 0x8, addend: 0x0, symName: '__ZN4core3ptr43drop_in_place$LT$syn..data..FieldsNamed$GT$17h56bef6f151514865E', symObjAddr: 0x8310, symBinAddr: 0x70AD0, symSize: 0xE0 }
  - { offsetInCU: 0x52F58, offset: 0x308B53, size: 0x8, addend: 0x0, symName: '__ZN4core3ptr43drop_in_place$LT$syn..item..ForeignItem$GT$17h8033abfc56dac52fE', symObjAddr: 0x83F0, symBinAddr: 0x70BB0, symSize: 0x520 }
  - { offsetInCU: 0x54304, offset: 0x309EFF, size: 0x8, addend: 0x0, symName: '__ZN4core3ptr44drop_in_place$LT$syn..generics..Generics$GT$17h671de917167f8b66E', symObjAddr: 0x8910, symBinAddr: 0x710D0, symSize: 0x40 }
  - { offsetInCU: 0x54321, offset: 0x309F1C, size: 0x8, addend: 0x0, symName: '__ZN4core3ptr44drop_in_place$LT$syn..lifetime..Lifetime$GT$17he37fa474f03de7b1E', symObjAddr: 0x8950, symBinAddr: 0x71110, symSize: 0x30 }
  - { offsetInCU: 0x54499, offset: 0x30A094, size: 0x8, addend: 0x0, symName: '__ZN4core3ptr44drop_in_place$LT$syn..parse..ParseBuffer$GT$17hf792ff20095efc35E.llvm.18308377727791997679', symObjAddr: 0x8980, symBinAddr: 0x71140, symSize: 0x70 }
  - { offsetInCU: 0x548B0, offset: 0x30A4AB, size: 0x8, addend: 0x0, symName: '__ZN4core3ptr45drop_in_place$LT$proc_macro2..TokenStream$GT$17h76e8e68015f4924dE', symObjAddr: 0x89F0, symBinAddr: 0x711B0, symSize: 0x140 }
  - { offsetInCU: 0x54D4A, offset: 0x30A945, size: 0x8, addend: 0x0, symName: '__ZN4core3ptr45drop_in_place$LT$syn..generics..TypeParam$GT$17h188a459c1380ac75E', symObjAddr: 0x8B30, symBinAddr: 0x712F0, symSize: 0x230 }
  - { offsetInCU: 0x555BF, offset: 0x30B1BA, size: 0x8, addend: 0x0, symName: '__ZN4core3ptr46drop_in_place$LT$syn..generics..ConstParam$GT$17h7a9b900b2b88bfcdE', symObjAddr: 0x8D60, symBinAddr: 0x71520, symSize: 0x150 }
  - { offsetInCU: 0x55A40, offset: 0x30B63B, size: 0x8, addend: 0x0, symName: '__ZN4core3ptr47drop_in_place$LT$syn..path..GenericArgument$GT$17h593f06d6ca9a94d2E', symObjAddr: 0x8EB0, symBinAddr: 0x71670, symSize: 0x4A0 }
  - { offsetInCU: 0x56B46, offset: 0x30C741, size: 0x8, addend: 0x0, symName: '__ZN4core3ptr49drop_in_place$LT$syn..generics..LifetimeParam$GT$17h3a8835ab294bfd16E', symObjAddr: 0x9350, symBinAddr: 0x71B10, symSize: 0xF0 }
  - { offsetInCU: 0x56F5D, offset: 0x30CB58, size: 0x8, addend: 0x0, symName: '__ZN4core3ptr49drop_in_place$LT$syn..restriction..Visibility$GT$17h3e52b998838defb1E', symObjAddr: 0x9440, symBinAddr: 0x71C00, symSize: 0x60 }
  - { offsetInCU: 0x570D2, offset: 0x30CCCD, size: 0x8, addend: 0x0, symName: '__ZN4core3ptr50drop_in_place$LT$syn..generics..TypeParamBound$GT$17h81b4325b5900604dE', symObjAddr: 0x94A0, symBinAddr: 0x71C60, symSize: 0x1C0 }
  - { offsetInCU: 0x5764E, offset: 0x30D249, size: 0x8, addend: 0x0, symName: '__ZN4core3ptr58drop_in_place$LT$alloc..vec..Vec$LT$syn..expr..Arm$GT$$GT$17hff9224aadf2233b8E', symObjAddr: 0x96A0, symBinAddr: 0x71E20, symSize: 0xD0 }
  - { offsetInCU: 0x5790E, offset: 0x30D509, size: 0x8, addend: 0x0, symName: '__ZN4core3ptr59drop_in_place$LT$alloc..boxed..Box$LT$syn..pat..Pat$GT$$GT$17h622b0c1db21c0742E', symObjAddr: 0x9770, symBinAddr: 0x71EF0, symSize: 0x50 }
  - { offsetInCU: 0x57A67, offset: 0x30D662, size: 0x8, addend: 0x0, symName: '__ZN4core3ptr59drop_in_place$LT$alloc..boxed..Box$LT$syn..ty..Type$GT$$GT$17hde45fa887dd8b605E', symObjAddr: 0x97C0, symBinAddr: 0x71F40, symSize: 0x50 }
  - { offsetInCU: 0x57BC0, offset: 0x30D7BB, size: 0x8, addend: 0x0, symName: '__ZN4core3ptr59drop_in_place$LT$alloc..vec..Vec$LT$syn..item..Item$GT$$GT$17h8590e8c8e196c3c2E', symObjAddr: 0x9810, symBinAddr: 0x71F90, symSize: 0xD0 }
  - { offsetInCU: 0x57E80, offset: 0x30DA7B, size: 0x8, addend: 0x0, symName: '__ZN4core3ptr59drop_in_place$LT$alloc..vec..Vec$LT$syn..stmt..Stmt$GT$$GT$17h6cf3e54f41bc03bdE', symObjAddr: 0x98E0, symBinAddr: 0x72060, symSize: 0xD0 }
  - { offsetInCU: 0x58140, offset: 0x30DD3B, size: 0x8, addend: 0x0, symName: '__ZN4core3ptr61drop_in_place$LT$alloc..boxed..Box$LT$syn..expr..Expr$GT$$GT$17hbb42293869113942E', symObjAddr: 0x99B0, symBinAddr: 0x72130, symSize: 0x50 }
  - { offsetInCU: 0x58315, offset: 0x30DF10, size: 0x8, addend: 0x0, symName: '__ZN4core3ptr61drop_in_place$LT$syn..path..ParenthesizedGenericArguments$GT$17h6b1731382637937fE', symObjAddr: 0x9A70, symBinAddr: 0x72180, symSize: 0x170 }
  - { offsetInCU: 0x5890B, offset: 0x30E506, size: 0x8, addend: 0x0, symName: '__ZN4core3ptr62drop_in_place$LT$alloc..boxed..Box$LT$syn..stmt..Block$GT$$GT$17h21dcb5adf0237a12E', symObjAddr: 0x9BE0, symBinAddr: 0x722F0, symSize: 0xE0 }
  - { offsetInCU: 0x58D1D, offset: 0x30E918, size: 0x8, addend: 0x0, symName: '__ZN4core3ptr62drop_in_place$LT$syn..path..AngleBracketedGenericArguments$GT$17hf8fa172f007a1473E', symObjAddr: 0x9CC0, symBinAddr: 0x723D0, symSize: 0x120 }
  - { offsetInCU: 0x59168, offset: 0x30ED63, size: 0x8, addend: 0x0, symName: '__ZN4core3ptr63drop_in_place$LT$alloc..boxed..Box$LT$syn..lit..LitRepr$GT$$GT$17h6e3a82ea4de7b84cE', symObjAddr: 0x9DE0, symBinAddr: 0x724F0, symSize: 0x60 }
  - { offsetInCU: 0x59431, offset: 0x30F02C, size: 0x8, addend: 0x0, symName: '__ZN4core3ptr63drop_in_place$LT$alloc..vec..Vec$LT$syn..item..ImplItem$GT$$GT$17hc51fca07e67d35aeE', symObjAddr: 0x9E40, symBinAddr: 0x72550, symSize: 0x80 }
  - { offsetInCU: 0x59708, offset: 0x30F303, size: 0x8, addend: 0x0, symName: '__ZN4core3ptr64drop_in_place$LT$alloc..boxed..Box$LT$syn..item..UseTree$GT$$GT$17he4d7024582150632E', symObjAddr: 0x9EC0, symBinAddr: 0x725D0, symSize: 0xF0 }
  - { offsetInCU: 0x59C23, offset: 0x30F81E, size: 0x8, addend: 0x0, symName: '__ZN4core3ptr64drop_in_place$LT$alloc..boxed..Box$LT$syn..pat..FieldPat$GT$$GT$17hbf8f4867d84bd25dE', symObjAddr: 0x9FB0, symBinAddr: 0x726C0, symSize: 0x140 }
  - { offsetInCU: 0x5A324, offset: 0x30FF1F, size: 0x8, addend: 0x0, symName: '__ZN4core3ptr64drop_in_place$LT$alloc..boxed..Box$LT$syn..ty..BareFnArg$GT$$GT$17h6be6354eb1d1364dE', symObjAddr: 0xA0F0, symBinAddr: 0x72800, symSize: 0x140 }
  - { offsetInCU: 0x5A8AD, offset: 0x3104A8, size: 0x8, addend: 0x0, symName: '__ZN4core3ptr64drop_in_place$LT$alloc..vec..Vec$LT$syn..attr..Attribute$GT$$GT$17he33e25539d5885aeE', symObjAddr: 0xA230, symBinAddr: 0x72940, symSize: 0xD0 }
  - { offsetInCU: 0x5ABA1, offset: 0x31079C, size: 0x8, addend: 0x0, symName: '__ZN4core3ptr64drop_in_place$LT$alloc..vec..Vec$LT$syn..item..TraitItem$GT$$GT$17hff1cc01ccae80d7aE', symObjAddr: 0xA300, symBinAddr: 0x72A10, symSize: 0x80 }
  - { offsetInCU: 0x5AE59, offset: 0x310A54, size: 0x8, addend: 0x0, symName: '__ZN4core3ptr65drop_in_place$LT$alloc..vec..Vec$LT$proc_macro..TokenTree$GT$$GT$17h8abd81f8596dbc59E', symObjAddr: 0xA380, symBinAddr: 0x72A90, symSize: 0x110 }
  - { offsetInCU: 0x5B251, offset: 0x310E4C, size: 0x8, addend: 0x0, symName: '__ZN4core3ptr65drop_in_place$LT$core..option..Option$LT$syn..expr..Label$GT$$GT$17hac599686b33ef364E', symObjAddr: 0xA490, symBinAddr: 0x72BA0, symSize: 0x30 }
  - { offsetInCU: 0x5B38B, offset: 0x310F86, size: 0x8, addend: 0x0, symName: '__ZN4core3ptr65drop_in_place$LT$core..option..Option$LT$syn..stmt..Block$GT$$GT$17h74f2551ed24e2d27E', symObjAddr: 0xA4C0, symBinAddr: 0x72BD0, symSize: 0xD0 }
  - { offsetInCU: 0x5B660, offset: 0x31125B, size: 0x8, addend: 0x0, symName: '__ZN4core3ptr66drop_in_place$LT$alloc..vec..Vec$LT$syn..item..ForeignItem$GT$$GT$17h1f176e04eaf5e0dfE', symObjAddr: 0xA590, symBinAddr: 0x72CA0, symSize: 0x80 }
  - { offsetInCU: 0x5B918, offset: 0x311513, size: 0x8, addend: 0x0, symName: '__ZN4core3ptr66drop_in_place$LT$core..option..Option$LT$syn..pat..PatRest$GT$$GT$17hd5bb3bc28aa78ac1E', symObjAddr: 0xA610, symBinAddr: 0x72D20, symSize: 0xE0 }
  - { offsetInCU: 0x5BC40, offset: 0x31183B, size: 0x8, addend: 0x0, symName: '__ZN4core3ptr67drop_in_place$LT$alloc..boxed..Box$LT$syn..expr..FieldValue$GT$$GT$17hbbcf67a9d5e9863cE', symObjAddr: 0xA6F0, symBinAddr: 0x72E00, symSize: 0x140 }
  - { offsetInCU: 0x5C1A9, offset: 0x311DA4, size: 0x8, addend: 0x0, symName: '__ZN4core3ptr67drop_in_place$LT$core..option..Option$LT$proc_macro2..Ident$GT$$GT$17h430b2bec25099623E', symObjAddr: 0xA830, symBinAddr: 0x72F40, symSize: 0x30 }
  - { offsetInCU: 0x5C2A5, offset: 0x311EA0, size: 0x8, addend: 0x0, symName: '__ZN4core3ptr68drop_in_place$LT$alloc..boxed..Box$LT$syn..path..PathSegment$GT$$GT$17h99aaf90b3262bc1eE', symObjAddr: 0xA860, symBinAddr: 0x72F70, symSize: 0x1B0 }
  - { offsetInCU: 0x5C9B3, offset: 0x3125AE, size: 0x8, addend: 0x0, symName: '__ZN4core3ptr70drop_in_place$LT$core..option..Option$LT$syn..ty..BareVariadic$GT$$GT$17h79a19250e9f043b1E', symObjAddr: 0xAA30, symBinAddr: 0x73120, symSize: 0x100 }
  - { offsetInCU: 0x5CE1E, offset: 0x312A19, size: 0x8, addend: 0x0, symName: '__ZN4core3ptr72drop_in_place$LT$alloc..boxed..Box$LT$syn..path..GenericArgument$GT$$GT$17hfd308d374af4273dE', symObjAddr: 0xAB30, symBinAddr: 0x73220, symSize: 0x1D0 }
  - { offsetInCU: 0x5D3B9, offset: 0x312FB4, size: 0x8, addend: 0x0, symName: '__ZN4core3ptr72drop_in_place$LT$core..option..Option$LT$syn..lifetime..Lifetime$GT$$GT$17h49cce6f02f9c0590E', symObjAddr: 0xAD00, symBinAddr: 0x733F0, symSize: 0x30 }
  - { offsetInCU: 0x5D4D4, offset: 0x3130CF, size: 0x8, addend: 0x0, symName: '__ZN4core3ptr73drop_in_place$LT$alloc..boxed..Box$LT$syn..generics..GenericParam$GT$$GT$17ha26d5d145af4b203E', symObjAddr: 0xAD30, symBinAddr: 0x73420, symSize: 0x80 }
  - { offsetInCU: 0x5D64A, offset: 0x313245, size: 0x8, addend: 0x0, symName: '__ZN4core3ptr75drop_in_place$LT$alloc..boxed..Box$LT$syn..generics..TypeParamBound$GT$$GT$17h129a4e927e5eb81bE', symObjAddr: 0xADB0, symBinAddr: 0x734A0, symSize: 0xC0 }
  - { offsetInCU: 0x5D9BD, offset: 0x3135B8, size: 0x8, addend: 0x0, symName: '__ZN4core3ptr75drop_in_place$LT$core..option..Option$LT$syn..generics..WhereClause$GT$$GT$17haaf63f327098cdccE', symObjAddr: 0xAE70, symBinAddr: 0x73560, symSize: 0x90 }
  - { offsetInCU: 0x5DCB1, offset: 0x3138AC, size: 0x8, addend: 0x0, symName: '__ZN4core3ptr86drop_in_place$LT$syn..punctuated..Punctuated$LT$syn..pat..Pat$C$syn..token..Or$GT$$GT$17h9cc6b5f7b6d3a555E', symObjAddr: 0xAF00, symBinAddr: 0x735F0, symSize: 0x120 }
  - { offsetInCU: 0x5E12C, offset: 0x313D27, size: 0x8, addend: 0x0, symName: '__ZN4core3ptr87drop_in_place$LT$core..option..Option$LT$alloc..boxed..Box$LT$syn..pat..Pat$GT$$GT$$GT$17h51cd48973d96c411E', symObjAddr: 0xB040, symBinAddr: 0x73710, symSize: 0x50 }
  - { offsetInCU: 0x5E29C, offset: 0x313E97, size: 0x8, addend: 0x0, symName: '__ZN4core3ptr87drop_in_place$LT$core..option..Option$LT$alloc..boxed..Box$LT$syn..ty..Type$GT$$GT$$GT$17h103a25a4a7d7374eE', symObjAddr: 0xB090, symBinAddr: 0x73760, symSize: 0x50 }
  - { offsetInCU: 0x5E40C, offset: 0x314007, size: 0x8, addend: 0x0, symName: '__ZN4core3ptr89drop_in_place$LT$core..option..Option$LT$alloc..boxed..Box$LT$syn..expr..Expr$GT$$GT$$GT$17h9e02509cb2345d44E', symObjAddr: 0xB100, symBinAddr: 0x737B0, symSize: 0x50 }
  - { offsetInCU: 0x5E5BA, offset: 0x3141B5, size: 0x8, addend: 0x0, symName: '__ZN4core3ptr89drop_in_place$LT$syn..punctuated..Punctuated$LT$syn..pat..Pat$C$syn..token..Comma$GT$$GT$17hd3a83c36827f210aE', symObjAddr: 0xB150, symBinAddr: 0x73800, symSize: 0x120 }
  - { offsetInCU: 0x5EA4C, offset: 0x314647, size: 0x8, addend: 0x0, symName: '__ZN4core3ptr89drop_in_place$LT$syn..punctuated..Punctuated$LT$syn..ty..Type$C$syn..token..Comma$GT$$GT$17he030c4b7f24a5848E', symObjAddr: 0xB270, symBinAddr: 0x73920, symSize: 0x120 }
  - { offsetInCU: 0x5EF05, offset: 0x314B00, size: 0x8, addend: 0x0, symName: '__ZN4core3ptr90drop_in_place$LT$core..option..Option$LT$alloc..boxed..Box$LT$syn..data..Field$GT$$GT$$GT$17h9f1aee8cd56c6727E', symObjAddr: 0xB390, symBinAddr: 0x73A40, symSize: 0x1B0 }
  - { offsetInCU: 0x5F600, offset: 0x3151FB, size: 0x8, addend: 0x0, symName: '__ZN4core3ptr90drop_in_place$LT$core..option..Option$LT$alloc..boxed..Box$LT$syn..item..FnArg$GT$$GT$$GT$17h8635495a730dc0bfE', symObjAddr: 0xB540, symBinAddr: 0x73BF0, symSize: 0x70 }
  - { offsetInCU: 0x5F77A, offset: 0x315375, size: 0x8, addend: 0x0, symName: '__ZN4core3ptr90drop_in_place$LT$core..option..Option$LT$syn..path..AngleBracketedGenericArguments$GT$$GT$17ha307713a95a0671eE', symObjAddr: 0xB5B0, symBinAddr: 0x73C60, symSize: 0x130 }
  - { offsetInCU: 0x5FC1C, offset: 0x315817, size: 0x8, addend: 0x0, symName: '__ZN4core3ptr91drop_in_place$LT$syn..punctuated..Punctuated$LT$syn..expr..Expr$C$syn..token..Comma$GT$$GT$17h6f261e8f470c81f2E', symObjAddr: 0xB6E0, symBinAddr: 0x73D90, symSize: 0x120 }
  - { offsetInCU: 0x600AA, offset: 0x315CA5, size: 0x8, addend: 0x0, symName: '__ZN4core3ptr92drop_in_place$LT$core..option..Option$LT$$LP$syn..token..As$C$proc_macro2..Ident$RP$$GT$$GT$17h12a88945917fa9dbE', symObjAddr: 0xB800, symBinAddr: 0x73EB0, symSize: 0x30 }
  - { offsetInCU: 0x60203, offset: 0x315DFE, size: 0x8, addend: 0x0, symName: '__ZN4core3ptr92drop_in_place$LT$core..option..Option$LT$alloc..boxed..Box$LT$syn..data..Variant$GT$$GT$$GT$17hb65f9b5d99f448afE', symObjAddr: 0xB830, symBinAddr: 0x73EE0, symSize: 0x170 }
  - { offsetInCU: 0x6082F, offset: 0x31642A, size: 0x8, addend: 0x0, symName: '__ZN4core3ptr92drop_in_place$LT$syn..punctuated..Punctuated$LT$syn..item..FnArg$C$syn..token..Comma$GT$$GT$17h7de33e77eabaea82E', symObjAddr: 0xB9A0, symBinAddr: 0x74050, symSize: 0x140 }
  - { offsetInCU: 0x60CAC, offset: 0x3168A7, size: 0x8, addend: 0x0, symName: '__ZN4core3ptr94drop_in_place$LT$syn..punctuated..Punctuated$LT$syn..data..Variant$C$syn..token..Comma$GT$$GT$17h310cd79aba4529ccE', symObjAddr: 0xBAE0, symBinAddr: 0x74190, symSize: 0xE0 }
  - { offsetInCU: 0x6100C, offset: 0x316C07, size: 0x8, addend: 0x0, symName: '__ZN4core3ptr94drop_in_place$LT$syn..punctuated..Punctuated$LT$syn..item..UseTree$C$syn..token..Comma$GT$$GT$17h6236871345889df7E', symObjAddr: 0xBBC0, symBinAddr: 0x74270, symSize: 0xF0 }
  - { offsetInCU: 0x61352, offset: 0x316F4D, size: 0x8, addend: 0x0, symName: '__ZN4core3ptr94drop_in_place$LT$syn..punctuated..Punctuated$LT$syn..pat..FieldPat$C$syn..token..Comma$GT$$GT$17h43ec25af986ef674E', symObjAddr: 0xBCB0, symBinAddr: 0x74360, symSize: 0xF0 }
  - { offsetInCU: 0x61651, offset: 0x31724C, size: 0x8, addend: 0x0, symName: '__ZN4core3ptr94drop_in_place$LT$syn..punctuated..Punctuated$LT$syn..ty..BareFnArg$C$syn..token..Comma$GT$$GT$17h7ba4c699ee390ebaE', symObjAddr: 0xBDA0, symBinAddr: 0x74450, symSize: 0xF0 }
  - { offsetInCU: 0x61952, offset: 0x31754D, size: 0x8, addend: 0x0, symName: '__ZN4core3ptr96drop_in_place$LT$core..option..Option$LT$alloc..boxed..Box$LT$syn..path..PathSegment$GT$$GT$$GT$17h5de12a5a0f9e9ef9E', symObjAddr: 0xBE90, symBinAddr: 0x74540, symSize: 0xA0 }
  - { offsetInCU: 0x61BD1, offset: 0x3177CC, size: 0x8, addend: 0x0, symName: '__ZN4core3ptr97drop_in_place$LT$syn..punctuated..Punctuated$LT$syn..expr..FieldValue$C$syn..token..Comma$GT$$GT$17hf58d0a9a09266ab3E', symObjAddr: 0xBF30, symBinAddr: 0x745E0, symSize: 0xF0 }
  - { offsetInCU: 0x61ECE, offset: 0x317AC9, size: 0x8, addend: 0x0, symName: '__ZN4core3ptr98drop_in_place$LT$alloc..vec..Vec$LT$$LP$syn..path..GenericArgument$C$syn..token..Comma$RP$$GT$$GT$17h0dee282a026d5a38E', symObjAddr: 0xC020, symBinAddr: 0x746D0, symSize: 0xD0 }
  - { offsetInCU: 0x6220E, offset: 0x317E09, size: 0x8, addend: 0x0, symName: '__ZN4core3ptr98drop_in_place$LT$syn..punctuated..Punctuated$LT$syn..lifetime..Lifetime$C$syn..token..Plus$GT$$GT$17h600c2b78f78fd2b9E', symObjAddr: 0xC0F0, symBinAddr: 0x747A0, symSize: 0xD0 }
  - { offsetInCU: 0x68F4A, offset: 0x31EB45, size: 0x8, addend: 0x0, symName: '__ZN48_$LT$T$u20$as$u20$core..clone..CloneToUninit$GT$15clone_to_uninit17h4081700a47491491E', symObjAddr: 0x300, symBinAddr: 0x68C70, symSize: 0x360 }
  - { offsetInCU: 0x70245, offset: 0x325E40, size: 0x8, addend: 0x0, symName: '__ZN5alloc3vec16Vec$LT$T$C$A$GT$15append_elements17h17d0f6dcdaba10bcE', symObjAddr: 0xC230, symBinAddr: 0x74870, symSize: 0x70 }
  - { offsetInCU: 0x7049B, offset: 0x326096, size: 0x8, addend: 0x0, symName: __ZN3syn4item4Item13replace_attrs17h0529b41fa0d8dba2E, symObjAddr: 0xCB80, symBinAddr: 0x748E0, symSize: 0x190 }
  - { offsetInCU: 0x1E, offset: 0x334460, size: 0x8, addend: 0x0, symName: '__ZN4core3ptr100drop_in_place$LT$alloc..vec..Vec$LT$$LP$syn..generics..TypeParamBound$C$syn..token..Plus$RP$$GT$$GT$17hea181150e4b37806E.llvm.991277207215265740', symObjAddr: 0x0, symBinAddr: 0x88D50, symSize: 0xD0 }
  - { offsetInCU: 0x12ED, offset: 0x33572F, size: 0x8, addend: 0x0, symName: '__ZN111_$LT$syn..punctuated..PrivateIter$LT$T$C$P$GT$$u20$as$u20$core..iter..traits..exact_size..ExactSizeIterator$GT$3len17h50a0616fbc194d0cE.llvm.991277207215265740', symObjAddr: 0x10550, symBinAddr: 0x95A60, symSize: 0x0 }
  - { offsetInCU: 0x13DD, offset: 0x33581F, size: 0x8, addend: 0x0, symName: '__ZN111_$LT$syn..punctuated..PrivateIter$LT$T$C$P$GT$$u20$as$u20$core..iter..traits..exact_size..ExactSizeIterator$GT$3len17hd03ac3201b3cfde6E.llvm.991277207215265740', symObjAddr: 0x105D0, symBinAddr: 0x95A90, symSize: 0x0 }
  - { offsetInCU: 0x16CD, offset: 0x335B0F, size: 0x8, addend: 0x0, symName: '__ZN115_$LT$syn..punctuated..PrivateIter$LT$T$C$P$GT$$u20$as$u20$core..iter..traits..double_ended..DoubleEndedIterator$GT$9next_back17h7f4f61270a4204d7E.llvm.991277207215265740', symObjAddr: 0x104C0, symBinAddr: 0x95A00, symSize: 0x0 }
  - { offsetInCU: 0x197D, offset: 0x335DBF, size: 0x8, addend: 0x0, symName: '__ZN115_$LT$syn..punctuated..PrivateIter$LT$T$C$P$GT$$u20$as$u20$core..iter..traits..double_ended..DoubleEndedIterator$GT$9next_back17ha17ab53f0e146145E.llvm.991277207215265740', symObjAddr: 0x10520, symBinAddr: 0x95A30, symSize: 0x0 }
  - { offsetInCU: 0x1E59, offset: 0x33629B, size: 0x8, addend: 0x0, symName: '__ZN100_$LT$syn..punctuated..PrivateIter$LT$T$C$P$GT$$u20$as$u20$core..iter..traits..iterator..Iterator$GT$4next17h2a509a6c34848c4aE.llvm.991277207215265740', symObjAddr: 0x103D0, symBinAddr: 0x95940, symSize: 0x0 }
  - { offsetInCU: 0x210B, offset: 0x33654D, size: 0x8, addend: 0x0, symName: '__ZN100_$LT$syn..punctuated..PrivateIter$LT$T$C$P$GT$$u20$as$u20$core..iter..traits..iterator..Iterator$GT$4next17h5eda91cdb09673d1E.llvm.991277207215265740', symObjAddr: 0x10400, symBinAddr: 0x95970, symSize: 0x0 }
  - { offsetInCU: 0x2398, offset: 0x3367DA, size: 0x8, addend: 0x0, symName: '__ZN100_$LT$syn..punctuated..PrivateIter$LT$T$C$P$GT$$u20$as$u20$core..iter..traits..iterator..Iterator$GT$4next17h63cbef55dd3a9f53E.llvm.991277207215265740', symObjAddr: 0x10430, symBinAddr: 0x959A0, symSize: 0x30 }
  - { offsetInCU: 0x2625, offset: 0x336A67, size: 0x8, addend: 0x0, symName: '__ZN100_$LT$syn..punctuated..PrivateIter$LT$T$C$P$GT$$u20$as$u20$core..iter..traits..iterator..Iterator$GT$4next17h6b4639ca1419e80fE.llvm.991277207215265740', symObjAddr: 0x10460, symBinAddr: 0x959D0, symSize: 0x30 }
  - { offsetInCU: 0x2D75, offset: 0x3371B7, size: 0x8, addend: 0x0, symName: '__ZN79_$LT$syn..punctuated..Punctuated$LT$T$C$P$GT$$u20$as$u20$core..clone..Clone$GT$5clone17h123489863670ef82E', symObjAddr: 0xCAC0, symBinAddr: 0x94730, symSize: 0x150 }
  - { offsetInCU: 0x3048, offset: 0x33748A, size: 0x8, addend: 0x0, symName: '__ZN79_$LT$syn..punctuated..Punctuated$LT$T$C$P$GT$$u20$as$u20$core..clone..Clone$GT$5clone17h22992bcace29f499E', symObjAddr: 0xCC10, symBinAddr: 0x94880, symSize: 0xE0 }
  - { offsetInCU: 0x32CF, offset: 0x337711, size: 0x8, addend: 0x0, symName: '__ZN79_$LT$syn..punctuated..Punctuated$LT$T$C$P$GT$$u20$as$u20$core..clone..Clone$GT$5clone17h2892afd7277887d8E', symObjAddr: 0xCCF0, symBinAddr: 0x94960, symSize: 0xE0 }
  - { offsetInCU: 0x3556, offset: 0x337998, size: 0x8, addend: 0x0, symName: '__ZN79_$LT$syn..punctuated..Punctuated$LT$T$C$P$GT$$u20$as$u20$core..clone..Clone$GT$5clone17h4f35f72a65007a75E', symObjAddr: 0xCDD0, symBinAddr: 0x94A40, symSize: 0xC0 }
  - { offsetInCU: 0x3785, offset: 0x337BC7, size: 0x8, addend: 0x0, symName: '__ZN79_$LT$syn..punctuated..Punctuated$LT$T$C$P$GT$$u20$as$u20$core..clone..Clone$GT$5clone17h5b87dcc40d8ae16cE', symObjAddr: 0xCE90, symBinAddr: 0x94B00, symSize: 0xE0 }
  - { offsetInCU: 0x3A0C, offset: 0x337E4E, size: 0x8, addend: 0x0, symName: '__ZN79_$LT$syn..punctuated..Punctuated$LT$T$C$P$GT$$u20$as$u20$core..clone..Clone$GT$5clone17h5e7cb3171b95369bE', symObjAddr: 0xCF70, symBinAddr: 0x94BE0, symSize: 0xC0 }
  - { offsetInCU: 0x3C3A, offset: 0x33807C, size: 0x8, addend: 0x0, symName: '__ZN79_$LT$syn..punctuated..Punctuated$LT$T$C$P$GT$$u20$as$u20$core..clone..Clone$GT$5clone17h71b1884f4462d97bE', symObjAddr: 0xD030, symBinAddr: 0x94CA0, symSize: 0xE0 }
  - { offsetInCU: 0x3EC1, offset: 0x338303, size: 0x8, addend: 0x0, symName: '__ZN79_$LT$syn..punctuated..Punctuated$LT$T$C$P$GT$$u20$as$u20$core..clone..Clone$GT$5clone17h795b6e9f94c0c96cE', symObjAddr: 0xD110, symBinAddr: 0x94D80, symSize: 0xE0 }
  - { offsetInCU: 0x4148, offset: 0x33858A, size: 0x8, addend: 0x0, symName: '__ZN79_$LT$syn..punctuated..Punctuated$LT$T$C$P$GT$$u20$as$u20$core..clone..Clone$GT$5clone17h7b959744e3d5b8dbE', symObjAddr: 0xD1F0, symBinAddr: 0x94E60, symSize: 0x110 }
  - { offsetInCU: 0x4405, offset: 0x338847, size: 0x8, addend: 0x0, symName: '__ZN79_$LT$syn..punctuated..Punctuated$LT$T$C$P$GT$$u20$as$u20$core..clone..Clone$GT$5clone17h8ecfcac09434508eE', symObjAddr: 0xD3E0, symBinAddr: 0x94F70, symSize: 0x180 }
  - { offsetInCU: 0x47D7, offset: 0x338C19, size: 0x8, addend: 0x0, symName: '__ZN79_$LT$syn..punctuated..Punctuated$LT$T$C$P$GT$$u20$as$u20$core..clone..Clone$GT$5clone17ha7ab2dd954c80b81E', symObjAddr: 0xD560, symBinAddr: 0x950F0, symSize: 0xE0 }
  - { offsetInCU: 0x4A5D, offset: 0x338E9F, size: 0x8, addend: 0x0, symName: '__ZN79_$LT$syn..punctuated..Punctuated$LT$T$C$P$GT$$u20$as$u20$core..clone..Clone$GT$5clone17hc80da0ae5e8a9a5aE', symObjAddr: 0xD640, symBinAddr: 0x951D0, symSize: 0x110 }
  - { offsetInCU: 0x4EE4, offset: 0x339326, size: 0x8, addend: 0x0, symName: '__ZN138_$LT$syn..punctuated..Punctuated$LT$T$C$P$GT$$u20$as$u20$core..iter..traits..collect..Extend$LT$syn..punctuated..Pair$LT$T$C$P$GT$$GT$$GT$6extend17hd3a7828e12a2fa09E', symObjAddr: 0xF2D0, symBinAddr: 0x952E0, symSize: 0x3A0 }
  - { offsetInCU: 0x543A, offset: 0x33987C, size: 0x8, addend: 0x0, symName: '__ZN102_$LT$syn..punctuated..Punctuated$LT$T$C$P$GT$$u20$as$u20$core..iter..traits..collect..IntoIterator$GT$9into_iter17h9fd0831bc615f074E', symObjAddr: 0xF940, symBinAddr: 0x95680, symSize: 0x2C0 }
  - { offsetInCU: 0x6B20, offset: 0x33AF62, size: 0x8, addend: 0x0, symName: '__ZN57_$LT$I$u20$as$u20$syn..punctuated..IterTrait$LT$T$GT$$GT$9clone_box17hbe556fca14490948E.llvm.991277207215265740', symObjAddr: 0x106C0, symBinAddr: 0x95AC0, symSize: 0x60 }
  - { offsetInCU: 0x6D2D, offset: 0x33B16F, size: 0x8, addend: 0x0, symName: '__ZN57_$LT$I$u20$as$u20$syn..punctuated..IterTrait$LT$T$GT$$GT$9clone_box17hc37750fcf967705cE.llvm.991277207215265740', symObjAddr: 0x10720, symBinAddr: 0x95B20, symSize: 0x60 }
  - { offsetInCU: 0x6F40, offset: 0x33B382, size: 0x8, addend: 0x0, symName: '__ZN97_$LT$syn..punctuated..Punctuated$LT$T$C$P$GT$$u20$as$u20$core..ops..index..Index$LT$usize$GT$$GT$5index17h20cbc4df05d7c9eaE', symObjAddr: 0x10780, symBinAddr: 0x95B80, symSize: 0x50 }
  - { offsetInCU: 0x70EA, offset: 0x33B52C, size: 0x8, addend: 0x0, symName: '__ZN3syn10punctuated8printing91_$LT$impl$u20$quote..to_tokens..ToTokens$u20$for$u20$syn..punctuated..Pair$LT$T$C$P$GT$$GT$9to_tokens17h6dc2c5660e354e29E', symObjAddr: 0x110C0, symBinAddr: 0x95EA0, symSize: 0xD0 }
  - { offsetInCU: 0x72B4, offset: 0x33B6F6, size: 0x8, addend: 0x0, symName: '__ZN3syn10punctuated8printing91_$LT$impl$u20$quote..to_tokens..ToTokens$u20$for$u20$syn..punctuated..Pair$LT$T$C$P$GT$$GT$9to_tokens17hc2518142b17a3489E', symObjAddr: 0x11360, symBinAddr: 0x95F70, symSize: 0xF3 }
  - { offsetInCU: 0x749D, offset: 0x33B8DF, size: 0x8, addend: 0x0, symName: '__ZN3syn10punctuated8printing97_$LT$impl$u20$quote..to_tokens..ToTokens$u20$for$u20$syn..punctuated..Punctuated$LT$T$C$P$GT$$GT$9to_tokens17h060d1d80f541d446E', symObjAddr: 0x10820, symBinAddr: 0x95BD0, symSize: 0x150 }
  - { offsetInCU: 0x79E2, offset: 0x33BE24, size: 0x8, addend: 0x0, symName: '__ZN3syn10punctuated8printing97_$LT$impl$u20$quote..to_tokens..ToTokens$u20$for$u20$syn..punctuated..Punctuated$LT$T$C$P$GT$$GT$9to_tokens17h7327b9d2fa65c2baE', symObjAddr: 0x10B90, symBinAddr: 0x95D20, symSize: 0x180 }
  - { offsetInCU: 0xF2B1, offset: 0x3436F3, size: 0x8, addend: 0x0, symName: '__ZN4core3ptr100drop_in_place$LT$alloc..vec..Vec$LT$$LP$syn..generics..TypeParamBound$C$syn..token..Plus$RP$$GT$$GT$17hea181150e4b37806E.llvm.991277207215265740', symObjAddr: 0x0, symBinAddr: 0x88D50, symSize: 0xD0 }
  - { offsetInCU: 0xF590, offset: 0x3439D2, size: 0x8, addend: 0x0, symName: '__ZN4core3ptr100drop_in_place$LT$core..option..Option$LT$alloc..boxed..Box$LT$syn..path..GenericArgument$GT$$GT$$GT$17h3a7c44b9e57fe410E.llvm.991277207215265740', symObjAddr: 0xD0, symBinAddr: 0x88E20, symSize: 0x50 }
  - { offsetInCU: 0xF77C, offset: 0x343BBE, size: 0x8, addend: 0x0, symName: '__ZN4core3ptr100drop_in_place$LT$syn..punctuated..Punctuated$LT$syn..path..PathSegment$C$syn..token..PathSep$GT$$GT$17he41ef64147139591E', symObjAddr: 0x120, symBinAddr: 0x88E70, symSize: 0x150 }
  - { offsetInCU: 0xFCE0, offset: 0x344122, size: 0x8, addend: 0x0, symName: '__ZN4core3ptr101drop_in_place$LT$alloc..vec..Vec$LT$$LP$syn..generics..WherePredicate$C$syn..token..Comma$RP$$GT$$GT$17h480aa68a207f67a8E.llvm.991277207215265740', symObjAddr: 0x270, symBinAddr: 0x88FC0, symSize: 0x60 }
  - { offsetInCU: 0xFF83, offset: 0x3443C5, size: 0x8, addend: 0x0, symName: '__ZN4core3ptr102drop_in_place$LT$syn..punctuated..Punctuated$LT$syn..path..GenericArgument$C$syn..token..Comma$GT$$GT$17h8b1978399cfff48bE', symObjAddr: 0x2D0, symBinAddr: 0x89020, symSize: 0xF0 }
  - { offsetInCU: 0x102A3, offset: 0x3446E5, size: 0x8, addend: 0x0, symName: '__ZN4core3ptr103drop_in_place$LT$core..option..Option$LT$alloc..boxed..Box$LT$syn..generics..TypeParamBound$GT$$GT$$GT$17hb14e4384a768542bE.llvm.991277207215265740', symObjAddr: 0x3C0, symBinAddr: 0x89110, symSize: 0x50 }
  - { offsetInCU: 0x104AE, offset: 0x3448F0, size: 0x8, addend: 0x0, symName: '__ZN4core3ptr103drop_in_place$LT$syn..punctuated..Punctuated$LT$syn..generics..GenericParam$C$syn..token..Comma$GT$$GT$17h0c6077a988036760E.llvm.991277207215265740', symObjAddr: 0x410, symBinAddr: 0x89160, symSize: 0xF0 }
  - { offsetInCU: 0x10A06, offset: 0x344E48, size: 0x8, addend: 0x0, symName: '__ZN4core3ptr104drop_in_place$LT$syn..punctuated..Punctuated$LT$syn..generics..TypeParamBound$C$syn..token..Plus$GT$$GT$17h724e4d9d1d65061aE.llvm.991277207215265740', symObjAddr: 0x500, symBinAddr: 0x89250, symSize: 0x190 }
  - { offsetInCU: 0x11029, offset: 0x34546B, size: 0x8, addend: 0x0, symName: '__ZN4core3ptr126drop_in_place$LT$core..option..Option$LT$$LP$syn..token..And$C$core..option..Option$LT$syn..lifetime..Lifetime$GT$$RP$$GT$$GT$17h45c5d73e12cdf6f0E', symObjAddr: 0x690, symBinAddr: 0x893E0, symSize: 0x30 }
  - { offsetInCU: 0x1123C, offset: 0x34567E, size: 0x8, addend: 0x0, symName: '__ZN4core3ptr34drop_in_place$LT$syn..lit..Lit$GT$17hd64dde89a262341dE', symObjAddr: 0x6C0, symBinAddr: 0x89410, symSize: 0x120 }
  - { offsetInCU: 0x11749, offset: 0x345B8B, size: 0x8, addend: 0x0, symName: '__ZN4core3ptr34drop_in_place$LT$syn..pat..Pat$GT$17hf88887878261d63cE.llvm.991277207215265740', symObjAddr: 0x7E0, symBinAddr: 0x89530, symSize: 0x1100 }
  - { offsetInCU: 0x15DC3, offset: 0x34A205, size: 0x8, addend: 0x0, symName: '__ZN4core3ptr34drop_in_place$LT$syn..ty..Type$GT$17ha80dd29b0f9d4a3fE.llvm.991277207215265740', symObjAddr: 0x18E0, symBinAddr: 0x8A630, symSize: 0x520 }
  - { offsetInCU: 0x17439, offset: 0x34B87B, size: 0x8, addend: 0x0, symName: '__ZN4core3ptr36drop_in_place$LT$syn..expr..Expr$GT$17h10f573b40ddd212cE.llvm.991277207215265740', symObjAddr: 0x1E00, symBinAddr: 0x8AB50, symSize: 0x2830 }
  - { offsetInCU: 0x2153D, offset: 0x35597F, size: 0x8, addend: 0x0, symName: '__ZN4core3ptr36drop_in_place$LT$syn..mac..Macro$GT$17hc3b30a7a8a34cc2dE', symObjAddr: 0x4630, symBinAddr: 0x8D380, symSize: 0x40 }
  - { offsetInCU: 0x21577, offset: 0x3559B9, size: 0x8, addend: 0x0, symName: '__ZN4core3ptr36drop_in_place$LT$syn..path..Path$GT$17h75c74a97d5f0a03bE.llvm.991277207215265740', symObjAddr: 0x4670, symBinAddr: 0x8D3C0, symSize: 0x110 }
  - { offsetInCU: 0x21999, offset: 0x355DDB, size: 0x8, addend: 0x0, symName: '__ZN4core3ptr37drop_in_place$LT$syn..data..Field$GT$17hb03070569ab32babE.llvm.991277207215265740', symObjAddr: 0x4780, symBinAddr: 0x8D4D0, symSize: 0x140 }
  - { offsetInCU: 0x21DEE, offset: 0x356230, size: 0x8, addend: 0x0, symName: '__ZN4core3ptr37drop_in_place$LT$syn..item..FnArg$GT$17h470fdeee5cba5e3aE.llvm.991277207215265740', symObjAddr: 0x48C0, symBinAddr: 0x8D610, symSize: 0x230 }
  - { offsetInCU: 0x22709, offset: 0x356B4B, size: 0x8, addend: 0x0, symName: '__ZN4core3ptr37drop_in_place$LT$syn..stmt..Block$GT$17h6fc3254d5688f2c3E', symObjAddr: 0x4AF0, symBinAddr: 0x8D840, symSize: 0xD0 }
  - { offsetInCU: 0x229E0, offset: 0x356E22, size: 0x8, addend: 0x0, symName: '__ZN4core3ptr38drop_in_place$LT$syn..expr..Member$GT$17h6b0cf84594ce6bceE.llvm.991277207215265740', symObjAddr: 0x4BC0, symBinAddr: 0x8D910, symSize: 0x30 }
  - { offsetInCU: 0x22ADC, offset: 0x356F1E, size: 0x8, addend: 0x0, symName: '__ZN4core3ptr39drop_in_place$LT$proc_macro2..Ident$GT$17ha28fef9769e267d9E.llvm.991277207215265740', symObjAddr: 0x4BF0, symBinAddr: 0x8D940, symSize: 0x30 }
  - { offsetInCU: 0x22C16, offset: 0x357058, size: 0x8, addend: 0x0, symName: '__ZN4core3ptr39drop_in_place$LT$syn..data..Variant$GT$17h92766dd8637b4069E', symObjAddr: 0x4C20, symBinAddr: 0x8D970, symSize: 0x150 }
  - { offsetInCU: 0x231BE, offset: 0x357600, size: 0x8, addend: 0x0, symName: '__ZN4core3ptr39drop_in_place$LT$syn..item..UseTree$GT$17h7288572c631f954aE.llvm.991277207215265740', symObjAddr: 0x4D70, symBinAddr: 0x8DAC0, symSize: 0x1E0 }
  - { offsetInCU: 0x2390E, offset: 0x357D50, size: 0x8, addend: 0x0, symName: '__ZN4core3ptr39drop_in_place$LT$syn..pat..FieldPat$GT$17he93d151251e1075bE.llvm.991277207215265740', symObjAddr: 0x4F50, symBinAddr: 0x8DCA0, symSize: 0x120 }
  - { offsetInCU: 0x23EA8, offset: 0x3582EA, size: 0x8, addend: 0x0, symName: '__ZN4core3ptr39drop_in_place$LT$syn..ty..BareFnArg$GT$17h06523caf0a2ebe3aE.llvm.991277207215265740', symObjAddr: 0x5070, symBinAddr: 0x8DDC0, symSize: 0x110 }
  - { offsetInCU: 0x242CB, offset: 0x35870D, size: 0x8, addend: 0x0, symName: '__ZN4core3ptr40drop_in_place$LT$syn..ty..ReturnType$GT$17h035a612e322b6510E', symObjAddr: 0x5180, symBinAddr: 0x8DED0, symSize: 0x50 }
  - { offsetInCU: 0x2443B, offset: 0x35887D, size: 0x8, addend: 0x0, symName: '__ZN4core3ptr41drop_in_place$LT$syn..expr..ExprConst$GT$17hbfe19d5d621e6836E', symObjAddr: 0x51D0, symBinAddr: 0x8DF20, symSize: 0x180 }
  - { offsetInCU: 0x24A28, offset: 0x358E6A, size: 0x8, addend: 0x0, symName: '__ZN4core3ptr42drop_in_place$LT$syn..expr..FieldValue$GT$17heed77b5eea8beaa5E.llvm.991277207215265740', symObjAddr: 0x5350, symBinAddr: 0x8E0A0, symSize: 0x110 }
  - { offsetInCU: 0x24E69, offset: 0x3592AB, size: 0x8, addend: 0x0, symName: '__ZN4core3ptr43drop_in_place$LT$syn..path..PathSegment$GT$17h903332e979944cf4E.llvm.991277207215265740', symObjAddr: 0x5460, symBinAddr: 0x8E1B0, symSize: 0x190 }
  - { offsetInCU: 0x253CD, offset: 0x35980F, size: 0x8, addend: 0x0, symName: '__ZN4core3ptr44drop_in_place$LT$syn..lifetime..Lifetime$GT$17he37fa474f03de7b1E.llvm.991277207215265740', symObjAddr: 0x55F0, symBinAddr: 0x8E340, symSize: 0x30 }
  - { offsetInCU: 0x255FF, offset: 0x359A41, size: 0x8, addend: 0x0, symName: '__ZN4core3ptr45drop_in_place$LT$proc_macro2..TokenStream$GT$17h76e8e68015f4924dE.llvm.991277207215265740', symObjAddr: 0x5620, symBinAddr: 0x8E370, symSize: 0x140 }
  - { offsetInCU: 0x25A99, offset: 0x359EDB, size: 0x8, addend: 0x0, symName: '__ZN4core3ptr45drop_in_place$LT$syn..generics..TypeParam$GT$17h188a459c1380ac75E.llvm.991277207215265740', symObjAddr: 0x5760, symBinAddr: 0x8E4B0, symSize: 0x230 }
  - { offsetInCU: 0x2630E, offset: 0x35A750, size: 0x8, addend: 0x0, symName: '__ZN4core3ptr46drop_in_place$LT$syn..generics..ConstParam$GT$17h7a9b900b2b88bfcdE.llvm.991277207215265740', symObjAddr: 0x5990, symBinAddr: 0x8E6E0, symSize: 0x150 }
  - { offsetInCU: 0x2678F, offset: 0x35ABD1, size: 0x8, addend: 0x0, symName: '__ZN4core3ptr47drop_in_place$LT$syn..path..GenericArgument$GT$17h593f06d6ca9a94d2E.llvm.991277207215265740', symObjAddr: 0x5AE0, symBinAddr: 0x8E830, symSize: 0x450 }
  - { offsetInCU: 0x27505, offset: 0x35B947, size: 0x8, addend: 0x0, symName: '__ZN4core3ptr48drop_in_place$LT$syn..generics..GenericParam$GT$17hd6859d95c1b7c168E.llvm.991277207215265740', symObjAddr: 0x5F30, symBinAddr: 0x8EC80, symSize: 0x40 }
  - { offsetInCU: 0x27522, offset: 0x35B964, size: 0x8, addend: 0x0, symName: '__ZN4core3ptr49drop_in_place$LT$syn..generics..LifetimeParam$GT$17h3a8835ab294bfd16E.llvm.991277207215265740', symObjAddr: 0x5F70, symBinAddr: 0x8ECC0, symSize: 0xF0 }
  - { offsetInCU: 0x27977, offset: 0x35BDB9, size: 0x8, addend: 0x0, symName: '__ZN4core3ptr49drop_in_place$LT$syn..restriction..Visibility$GT$17h3e52b998838defb1E', symObjAddr: 0x6060, symBinAddr: 0x8EDB0, symSize: 0x150 }
  - { offsetInCU: 0x27EE0, offset: 0x35C322, size: 0x8, addend: 0x0, symName: '__ZN4core3ptr50drop_in_place$LT$syn..generics..TypeParamBound$GT$17h81b4325b5900604dE.llvm.991277207215265740', symObjAddr: 0x61B0, symBinAddr: 0x8EF00, symSize: 0x1C0 }
  - { offsetInCU: 0x2847B, offset: 0x35C8BD, size: 0x8, addend: 0x0, symName: '__ZN4core3ptr50drop_in_place$LT$syn..generics..WherePredicate$GT$17h1dcd41fbf166681cE.llvm.991277207215265740', symObjAddr: 0x6370, symBinAddr: 0x8F0C0, symSize: 0xA0 }
  - { offsetInCU: 0x2861F, offset: 0x35CA61, size: 0x8, addend: 0x0, symName: '__ZN4core3ptr58drop_in_place$LT$alloc..vec..Vec$LT$syn..expr..Arm$GT$$GT$17hff9224aadf2233b8E', symObjAddr: 0x6410, symBinAddr: 0x8F160, symSize: 0xD0 }
  - { offsetInCU: 0x288DF, offset: 0x35CD21, size: 0x8, addend: 0x0, symName: '__ZN4core3ptr59drop_in_place$LT$alloc..boxed..Box$LT$syn..pat..Pat$GT$$GT$17h622b0c1db21c0742E.llvm.991277207215265740', symObjAddr: 0x64E0, symBinAddr: 0x8F230, symSize: 0x50 }
  - { offsetInCU: 0x28A38, offset: 0x35CE7A, size: 0x8, addend: 0x0, symName: '__ZN4core3ptr59drop_in_place$LT$alloc..boxed..Box$LT$syn..ty..Type$GT$$GT$17hde45fa887dd8b605E.llvm.991277207215265740', symObjAddr: 0x6530, symBinAddr: 0x8F280, symSize: 0x50 }
  - { offsetInCU: 0x28B91, offset: 0x35CFD3, size: 0x8, addend: 0x0, symName: '__ZN4core3ptr61drop_in_place$LT$alloc..boxed..Box$LT$syn..expr..Expr$GT$$GT$17hbb42293869113942E.llvm.991277207215265740', symObjAddr: 0x6650, symBinAddr: 0x8F2D0, symSize: 0x50 }
  - { offsetInCU: 0x28D66, offset: 0x35D1A8, size: 0x8, addend: 0x0, symName: '__ZN4core3ptr61drop_in_place$LT$syn..path..ParenthesizedGenericArguments$GT$17h6b1731382637937fE.llvm.991277207215265740', symObjAddr: 0x66A0, symBinAddr: 0x8F320, symSize: 0x170 }
  - { offsetInCU: 0x2936F, offset: 0x35D7B1, size: 0x8, addend: 0x0, symName: '__ZN4core3ptr63drop_in_place$LT$alloc..boxed..Box$LT$syn..lit..LitRepr$GT$$GT$17h6e3a82ea4de7b84cE', symObjAddr: 0x68B0, symBinAddr: 0x8F490, symSize: 0x60 }
  - { offsetInCU: 0x29638, offset: 0x35DA7A, size: 0x8, addend: 0x0, symName: '__ZN4core3ptr64drop_in_place$LT$alloc..boxed..Box$LT$syn..item..UseTree$GT$$GT$17he4d7024582150632E', symObjAddr: 0x6960, symBinAddr: 0x8F4F0, symSize: 0x50 }
  - { offsetInCU: 0x297B0, offset: 0x35DBF2, size: 0x8, addend: 0x0, symName: '__ZN4core3ptr64drop_in_place$LT$alloc..boxed..Box$LT$syn..pat..FieldPat$GT$$GT$17hbf8f4867d84bd25dE', symObjAddr: 0x69B0, symBinAddr: 0x8F540, symSize: 0x140 }
  - { offsetInCU: 0x29E73, offset: 0x35E2B5, size: 0x8, addend: 0x0, symName: '__ZN4core3ptr64drop_in_place$LT$alloc..boxed..Box$LT$syn..ty..BareFnArg$GT$$GT$17h6be6354eb1d1364dE', symObjAddr: 0x6AF0, symBinAddr: 0x8F680, symSize: 0x140 }
  - { offsetInCU: 0x2A3FC, offset: 0x35E83E, size: 0x8, addend: 0x0, symName: '__ZN4core3ptr65drop_in_place$LT$alloc..vec..Vec$LT$proc_macro..TokenTree$GT$$GT$17h8abd81f8596dbc59E.llvm.991277207215265740', symObjAddr: 0x6C30, symBinAddr: 0x8F7C0, symSize: 0x110 }
  - { offsetInCU: 0x2A7F4, offset: 0x35EC36, size: 0x8, addend: 0x0, symName: '__ZN4core3ptr65drop_in_place$LT$core..option..Option$LT$syn..expr..Label$GT$$GT$17hac599686b33ef364E', symObjAddr: 0x6D40, symBinAddr: 0x8F8D0, symSize: 0x30 }
  - { offsetInCU: 0x2A92E, offset: 0x35ED70, size: 0x8, addend: 0x0, symName: '__ZN4core3ptr66drop_in_place$LT$core..option..Option$LT$syn..pat..PatRest$GT$$GT$17hd5bb3bc28aa78ac1E', symObjAddr: 0x6D70, symBinAddr: 0x8F900, symSize: 0xE0 }
  - { offsetInCU: 0x2AC56, offset: 0x35F098, size: 0x8, addend: 0x0, symName: '__ZN4core3ptr67drop_in_place$LT$alloc..boxed..Box$LT$syn..expr..FieldValue$GT$$GT$17hbbcf67a9d5e9863cE', symObjAddr: 0x6E50, symBinAddr: 0x8F9E0, symSize: 0x140 }
  - { offsetInCU: 0x2B1DE, offset: 0x35F620, size: 0x8, addend: 0x0, symName: '__ZN4core3ptr70drop_in_place$LT$core..option..Option$LT$syn..ty..BareVariadic$GT$$GT$17h79a19250e9f043b1E', symObjAddr: 0x7030, symBinAddr: 0x8FB20, symSize: 0x100 }
  - { offsetInCU: 0x2B649, offset: 0x35FA8B, size: 0x8, addend: 0x0, symName: '__ZN4core3ptr72drop_in_place$LT$alloc..boxed..Box$LT$syn..path..GenericArgument$GT$$GT$17hfd308d374af4273dE', symObjAddr: 0x7130, symBinAddr: 0x8FC20, symSize: 0x2B0 }
  - { offsetInCU: 0x2C05A, offset: 0x36049C, size: 0x8, addend: 0x0, symName: '__ZN4core3ptr73drop_in_place$LT$alloc..boxed..Box$LT$syn..generics..GenericParam$GT$$GT$17ha26d5d145af4b203E.llvm.991277207215265740', symObjAddr: 0x73E0, symBinAddr: 0x8FED0, symSize: 0x80 }
  - { offsetInCU: 0x2C1EF, offset: 0x360631, size: 0x8, addend: 0x0, symName: '__ZN4core3ptr73drop_in_place$LT$alloc..vec..Vec$LT$syn..generics..TypeParamBound$GT$$GT$17h559d22d805be3033E.llvm.991277207215265740', symObjAddr: 0x7460, symBinAddr: 0x8FF50, symSize: 0xC0 }
  - { offsetInCU: 0x2C4C0, offset: 0x360902, size: 0x8, addend: 0x0, symName: '__ZN4core3ptr75drop_in_place$LT$alloc..boxed..Box$LT$syn..generics..TypeParamBound$GT$$GT$17h129a4e927e5eb81bE', symObjAddr: 0x7520, symBinAddr: 0x90010, symSize: 0xC0 }
  - { offsetInCU: 0x2C7B7, offset: 0x360BF9, size: 0x8, addend: 0x0, symName: '__ZN4core3ptr76drop_in_place$LT$$LP$syn..generics..GenericParam$C$syn..token..Comma$RP$$GT$17hfa938bd7ff9e78c2E.llvm.991277207215265740', symObjAddr: 0x7630, symBinAddr: 0x900D0, symSize: 0x40 }
  - { offsetInCU: 0x2C825, offset: 0x360C67, size: 0x8, addend: 0x0, symName: '__ZN4core3ptr82drop_in_place$LT$alloc..vec..Vec$LT$$LP$syn..pat..Pat$C$syn..token..Or$RP$$GT$$GT$17h1f0f428d7b2d8011E.llvm.991277207215265740', symObjAddr: 0x7740, symBinAddr: 0x90110, symSize: 0x0 }
  - { offsetInCU: 0x2CB1D, offset: 0x360F5F, size: 0x8, addend: 0x0, symName: '__ZN4core3ptr85drop_in_place$LT$alloc..vec..Vec$LT$$LP$syn..ty..Type$C$syn..token..Comma$RP$$GT$$GT$17h0cf4844ea7ad9568E.llvm.991277207215265740', symObjAddr: 0x7810, symBinAddr: 0x901E0, symSize: 0xD0 }
  - { offsetInCU: 0x2CE4F, offset: 0x361291, size: 0x8, addend: 0x0, symName: '__ZN4core3ptr86drop_in_place$LT$syn..punctuated..Punctuated$LT$syn..pat..Pat$C$syn..token..Or$GT$$GT$17h9cc6b5f7b6d3a555E', symObjAddr: 0x78E0, symBinAddr: 0x902B0, symSize: 0x120 }
  - { offsetInCU: 0x2D2E9, offset: 0x36172B, size: 0x8, addend: 0x0, symName: '__ZN4core3ptr87drop_in_place$LT$alloc..vec..Vec$LT$$LP$syn..expr..Expr$C$syn..token..Comma$RP$$GT$$GT$17hd1036fba4025974bE.llvm.991277207215265740', symObjAddr: 0x7A00, symBinAddr: 0x903D0, symSize: 0xD0 }
  - { offsetInCU: 0x2D5DD, offset: 0x361A1F, size: 0x8, addend: 0x0, symName: '__ZN4core3ptr87drop_in_place$LT$core..option..Option$LT$alloc..boxed..Box$LT$syn..pat..Pat$GT$$GT$$GT$17h51cd48973d96c411E', symObjAddr: 0x7AD0, symBinAddr: 0x904A0, symSize: 0x50 }
  - { offsetInCU: 0x2D74D, offset: 0x361B8F, size: 0x8, addend: 0x0, symName: '__ZN4core3ptr87drop_in_place$LT$core..option..Option$LT$alloc..boxed..Box$LT$syn..ty..Type$GT$$GT$$GT$17h103a25a4a7d7374eE.llvm.991277207215265740', symObjAddr: 0x7B20, symBinAddr: 0x904F0, symSize: 0x50 }
  - { offsetInCU: 0x2D8DC, offset: 0x361D1E, size: 0x8, addend: 0x0, symName: '__ZN4core3ptr88drop_in_place$LT$alloc..vec..Vec$LT$$LP$syn..data..Field$C$syn..token..Comma$RP$$GT$$GT$17h066c67d26ce3e154E.llvm.991277207215265740', symObjAddr: 0x7B70, symBinAddr: 0x90540, symSize: 0xD0 }
  - { offsetInCU: 0x2DBF3, offset: 0x362035, size: 0x8, addend: 0x0, symName: '__ZN4core3ptr88drop_in_place$LT$alloc..vec..Vec$LT$$LP$syn..item..FnArg$C$syn..token..Comma$RP$$GT$$GT$17he8d49cd20c575884E.llvm.991277207215265740', symObjAddr: 0x7C40, symBinAddr: 0x90610, symSize: 0xD0 }
  - { offsetInCU: 0x2DEF2, offset: 0x362334, size: 0x8, addend: 0x0, symName: '__ZN4core3ptr89drop_in_place$LT$core..option..Option$LT$alloc..boxed..Box$LT$syn..expr..Expr$GT$$GT$$GT$17h9e02509cb2345d44E', symObjAddr: 0x7D10, symBinAddr: 0x906E0, symSize: 0x50 }
  - { offsetInCU: 0x2E0A0, offset: 0x3624E2, size: 0x8, addend: 0x0, symName: '__ZN4core3ptr89drop_in_place$LT$syn..punctuated..Punctuated$LT$syn..pat..Pat$C$syn..token..Comma$GT$$GT$17hd3a83c36827f210aE', symObjAddr: 0x7D60, symBinAddr: 0x90730, symSize: 0x120 }
  - { offsetInCU: 0x2E532, offset: 0x362974, size: 0x8, addend: 0x0, symName: '__ZN4core3ptr89drop_in_place$LT$syn..punctuated..Punctuated$LT$syn..ty..Type$C$syn..token..Comma$GT$$GT$17he030c4b7f24a5848E.llvm.991277207215265740', symObjAddr: 0x7E80, symBinAddr: 0x90850, symSize: 0x120 }
  - { offsetInCU: 0x2E9CC, offset: 0x362E0E, size: 0x8, addend: 0x0, symName: '__ZN4core3ptr90drop_in_place$LT$alloc..vec..Vec$LT$$LP$syn..data..Variant$C$syn..token..Comma$RP$$GT$$GT$17h3ac8ecccf673c389E.llvm.991277207215265740', symObjAddr: 0x7FA0, symBinAddr: 0x90970, symSize: 0xD0 }
  - { offsetInCU: 0x2ECC0, offset: 0x363102, size: 0x8, addend: 0x0, symName: '__ZN4core3ptr90drop_in_place$LT$alloc..vec..Vec$LT$$LP$syn..item..UseTree$C$syn..token..Comma$RP$$GT$$GT$17h1e4fface25e12fe6E.llvm.991277207215265740', symObjAddr: 0x8070, symBinAddr: 0x90A40, symSize: 0xD0 }
  - { offsetInCU: 0x2EFB6, offset: 0x3633F8, size: 0x8, addend: 0x0, symName: '__ZN4core3ptr90drop_in_place$LT$alloc..vec..Vec$LT$$LP$syn..pat..FieldPat$C$syn..token..Comma$RP$$GT$$GT$17h4d0a520927a96123E.llvm.991277207215265740', symObjAddr: 0x8140, symBinAddr: 0x90B10, symSize: 0xD0 }
  - { offsetInCU: 0x2F278, offset: 0x3636BA, size: 0x8, addend: 0x0, symName: '__ZN4core3ptr90drop_in_place$LT$alloc..vec..Vec$LT$$LP$syn..ty..BareFnArg$C$syn..token..Comma$RP$$GT$$GT$17h86271563b6e0e7d6E.llvm.991277207215265740', symObjAddr: 0x8210, symBinAddr: 0x90BE0, symSize: 0xD0 }
  - { offsetInCU: 0x2F55B, offset: 0x36399D, size: 0x8, addend: 0x0, symName: '__ZN4core3ptr90drop_in_place$LT$core..option..Option$LT$alloc..boxed..Box$LT$syn..data..Field$GT$$GT$$GT$17h9f1aee8cd56c6727E.llvm.991277207215265740', symObjAddr: 0x82E0, symBinAddr: 0x90CB0, symSize: 0x50 }
  - { offsetInCU: 0x2F6DD, offset: 0x363B1F, size: 0x8, addend: 0x0, symName: '__ZN4core3ptr91drop_in_place$LT$syn..punctuated..Punctuated$LT$syn..expr..Expr$C$syn..token..Comma$GT$$GT$17h6f261e8f470c81f2E.llvm.991277207215265740', symObjAddr: 0x8330, symBinAddr: 0x90D00, symSize: 0x120 }
  - { offsetInCU: 0x2FB8A, offset: 0x363FCC, size: 0x8, addend: 0x0, symName: '__ZN4core3ptr92drop_in_place$LT$core..option..Option$LT$alloc..boxed..Box$LT$syn..data..Variant$GT$$GT$$GT$17hb65f9b5d99f448afE', symObjAddr: 0x8450, symBinAddr: 0x90E20, symSize: 0x50 }
  - { offsetInCU: 0x2FD2B, offset: 0x36416D, size: 0x8, addend: 0x0, symName: '__ZN4core3ptr92drop_in_place$LT$syn..punctuated..Punctuated$LT$syn..data..Field$C$syn..token..Comma$GT$$GT$17hf8968831c552f88dE', symObjAddr: 0x84A0, symBinAddr: 0x90E70, symSize: 0x120 }
  - { offsetInCU: 0x3019D, offset: 0x3645DF, size: 0x8, addend: 0x0, symName: '__ZN4core3ptr93drop_in_place$LT$alloc..vec..Vec$LT$$LP$syn..expr..FieldValue$C$syn..token..Comma$RP$$GT$$GT$17hf889827bae7d8b64E.llvm.991277207215265740', symObjAddr: 0x85C0, symBinAddr: 0x90F90, symSize: 0xD0 }
  - { offsetInCU: 0x3047C, offset: 0x3648BE, size: 0x8, addend: 0x0, symName: '__ZN4core3ptr94drop_in_place$LT$alloc..vec..Vec$LT$$LP$syn..lifetime..Lifetime$C$syn..token..Plus$RP$$GT$$GT$17h446c63e6d8248f75E.llvm.991277207215265740', symObjAddr: 0x8690, symBinAddr: 0x91060, symSize: 0x90 }
  - { offsetInCU: 0x3075E, offset: 0x364BA0, size: 0x8, addend: 0x0, symName: '__ZN4core3ptr94drop_in_place$LT$syn..punctuated..Punctuated$LT$syn..data..Variant$C$syn..token..Comma$GT$$GT$17h310cd79aba4529ccE', symObjAddr: 0x8720, symBinAddr: 0x910F0, symSize: 0x120 }
  - { offsetInCU: 0x30BCC, offset: 0x36500E, size: 0x8, addend: 0x0, symName: '__ZN4core3ptr94drop_in_place$LT$syn..punctuated..Punctuated$LT$syn..pat..FieldPat$C$syn..token..Comma$GT$$GT$17h43ec25af986ef674E', symObjAddr: 0x8840, symBinAddr: 0x91210, symSize: 0xF0 }
  - { offsetInCU: 0x30ECB, offset: 0x36530D, size: 0x8, addend: 0x0, symName: '__ZN4core3ptr94drop_in_place$LT$syn..punctuated..Punctuated$LT$syn..ty..BareFnArg$C$syn..token..Comma$GT$$GT$17h7ba4c699ee390ebaE', symObjAddr: 0x8930, symBinAddr: 0x91300, symSize: 0xF0 }
  - { offsetInCU: 0x311CC, offset: 0x36560E, size: 0x8, addend: 0x0, symName: '__ZN4core3ptr95drop_in_place$LT$core..option..Option$LT$$LP$proc_macro2..Ident$C$syn..token..Colon$RP$$GT$$GT$17h59fe297999aa3329E.llvm.991277207215265740', symObjAddr: 0x8A20, symBinAddr: 0x913F0, symSize: 0x30 }
  - { offsetInCU: 0x312E7, offset: 0x365729, size: 0x8, addend: 0x0, symName: '__ZN4core3ptr96drop_in_place$LT$alloc..vec..Vec$LT$$LP$syn..path..PathSegment$C$syn..token..PathSep$RP$$GT$$GT$17h69d97f03bb66469bE.llvm.991277207215265740', symObjAddr: 0x8A50, symBinAddr: 0x91420, symSize: 0x100 }
  - { offsetInCU: 0x316DB, offset: 0x365B1D, size: 0x8, addend: 0x0, symName: '__ZN4core3ptr96drop_in_place$LT$core..option..Option$LT$alloc..boxed..Box$LT$syn..path..PathSegment$GT$$GT$$GT$17h5de12a5a0f9e9ef9E.llvm.991277207215265740', symObjAddr: 0x8B50, symBinAddr: 0x91520, symSize: 0x1A0 }
  - { offsetInCU: 0x31DBB, offset: 0x3661FD, size: 0x8, addend: 0x0, symName: '__ZN4core3ptr97drop_in_place$LT$syn..punctuated..Punctuated$LT$syn..expr..FieldValue$C$syn..token..Comma$GT$$GT$17hf58d0a9a09266ab3E', symObjAddr: 0x8D40, symBinAddr: 0x916C0, symSize: 0xF0 }
  - { offsetInCU: 0x320B8, offset: 0x3664FA, size: 0x8, addend: 0x0, symName: '__ZN4core3ptr98drop_in_place$LT$alloc..vec..Vec$LT$$LP$syn..path..GenericArgument$C$syn..token..Comma$RP$$GT$$GT$17h0dee282a026d5a38E.llvm.991277207215265740', symObjAddr: 0x8E30, symBinAddr: 0x917B0, symSize: 0xD0 }
  - { offsetInCU: 0x323BA, offset: 0x3667FC, size: 0x8, addend: 0x0, symName: '__ZN4core3ptr98drop_in_place$LT$syn..punctuated..Punctuated$LT$syn..lifetime..Lifetime$C$syn..token..Plus$GT$$GT$17h600c2b78f78fd2b9E.llvm.991277207215265740', symObjAddr: 0x8F00, symBinAddr: 0x91880, symSize: 0xD0 }
  - { offsetInCU: 0x3282E, offset: 0x366C70, size: 0x8, addend: 0x0, symName: '__ZN4core3ptr99drop_in_place$LT$alloc..vec..Vec$LT$$LP$syn..generics..GenericParam$C$syn..token..Comma$RP$$GT$$GT$17haeaa257234ab8b89E.llvm.991277207215265740', symObjAddr: 0x8FD0, symBinAddr: 0x91950, symSize: 0x60 }
  - { offsetInCU: 0x32AD9, offset: 0x366F1B, size: 0x8, addend: 0x0, symName: '__ZN4core3ptr99drop_in_place$LT$syn..punctuated..IntoPairs$LT$syn..path..PathSegment$C$syn..token..PathSep$GT$$GT$17h7bc58557d0a760d7E', symObjAddr: 0x9030, symBinAddr: 0x919B0, symSize: 0x60 }
  - { offsetInCU: 0x3ADA2, offset: 0x36F1E4, size: 0x8, addend: 0x0, symName: __ZN4core4iter6traits10exact_size17ExactSizeIterator8is_empty17h1a227f857cbffbf0E.llvm.991277207215265740, symObjAddr: 0x90F0, symBinAddr: 0x91A10, symSize: 0x0 }
  - { offsetInCU: 0x3AF75, offset: 0x36F3B7, size: 0x8, addend: 0x0, symName: __ZN4core4iter6traits10exact_size17ExactSizeIterator8is_empty17h8e26652340b1cc60E.llvm.991277207215265740, symObjAddr: 0x9120, symBinAddr: 0x91A40, symSize: 0x0 }
  - { offsetInCU: 0x3B0EE, offset: 0x36F530, size: 0x8, addend: 0x0, symName: __ZN4core4iter6traits12double_ended19DoubleEndedIterator15advance_back_by17h1140f40754684fb9E.llvm.991277207215265740, symObjAddr: 0x9150, symBinAddr: 0x91A70, symSize: 0x0 }
  - { offsetInCU: 0x3B33E, offset: 0x36F780, size: 0x8, addend: 0x0, symName: __ZN4core4iter6traits12double_ended19DoubleEndedIterator15advance_back_by17h8a4e4fb504e13f9aE.llvm.991277207215265740, symObjAddr: 0x9240, symBinAddr: 0x91AF0, symSize: 0x0 }
  - { offsetInCU: 0x3B5AC, offset: 0x36F9EE, size: 0x8, addend: 0x0, symName: __ZN4core4iter6traits12double_ended19DoubleEndedIterator8nth_back17h012b67c1856b5774E.llvm.991277207215265740, symObjAddr: 0x9330, symBinAddr: 0x91B70, symSize: 0x0 }
  - { offsetInCU: 0x3BA99, offset: 0x36FEDB, size: 0x8, addend: 0x0, symName: __ZN4core4iter6traits12double_ended19DoubleEndedIterator8nth_back17h318f60fcaf78f97eE.llvm.991277207215265740, symObjAddr: 0x93D0, symBinAddr: 0x91C10, symSize: 0x0 }
  - { offsetInCU: 0x3BF46, offset: 0x370388, size: 0x8, addend: 0x0, symName: __ZN4core4iter6traits8iterator8Iterator10advance_by17h3d527f137a6d7fdfE.llvm.991277207215265740, symObjAddr: 0x95B0, symBinAddr: 0x91CB0, symSize: 0x0 }
  - { offsetInCU: 0x3C25A, offset: 0x37069C, size: 0x8, addend: 0x0, symName: __ZN4core4iter6traits8iterator8Iterator10advance_by17h7c4ef1b391a0bc39E.llvm.991277207215265740, symObjAddr: 0x9620, symBinAddr: 0x91D20, symSize: 0x0 }
  - { offsetInCU: 0x3C5BF, offset: 0x370A01, size: 0x8, addend: 0x0, symName: __ZN4core4iter6traits8iterator8Iterator3nth17h1e8866c786c3aeccE.llvm.991277207215265740, symObjAddr: 0x9760, symBinAddr: 0x91D90, symSize: 0x0 }
  - { offsetInCU: 0x3CBD0, offset: 0x371012, size: 0x8, addend: 0x0, symName: __ZN4core4iter6traits8iterator8Iterator3nth17h6888513c7a8c22bfE.llvm.991277207215265740, symObjAddr: 0x9860, symBinAddr: 0x91E10, symSize: 0x0 }
  - { offsetInCU: 0x3D190, offset: 0x3715D2, size: 0x8, addend: 0x0, symName: __ZN4core4iter6traits8iterator8Iterator9size_hint17h01b8df23581c5177E.llvm.991277207215265740, symObjAddr: 0x9960, symBinAddr: 0x91E90, symSize: 0x0 }
  - { offsetInCU: 0x42442, offset: 0x376884, size: 0x8, addend: 0x0, symName: _anon.13e9612c7f1e77365c13ade4b7a3f6db.8.llvm.991277207215265740, symObjAddr: 0x13228, symBinAddr: 0x280CC8, symSize: 0x0 }
  - { offsetInCU: 0x42522, offset: 0x376964, size: 0x8, addend: 0x0, symName: _anon.13e9612c7f1e77365c13ade4b7a3f6db.11.llvm.991277207215265740, symObjAddr: 0x13338, symBinAddr: 0x280DD8, symSize: 0x0 }
  - { offsetInCU: 0x44C6C, offset: 0x3790AE, size: 0x8, addend: 0x0, symName: '__ZN3syn10punctuated23Punctuated$LT$T$C$P$GT$10push_value17h2697ae8d07ed6279E', symObjAddr: 0xA040, symBinAddr: 0x91EB0, symSize: 0x0 }
  - { offsetInCU: 0x44EC9, offset: 0x37930B, size: 0x8, addend: 0x0, symName: '__ZN3syn10punctuated23Punctuated$LT$T$C$P$GT$10push_value17h45c7a985809b3219E', symObjAddr: 0xA140, symBinAddr: 0x91FB0, symSize: 0x110 }
  - { offsetInCU: 0x45230, offset: 0x379672, size: 0x8, addend: 0x0, symName: '__ZN3syn10punctuated23Punctuated$LT$T$C$P$GT$10push_value17h473f367d939ee38aE', symObjAddr: 0xA250, symBinAddr: 0x920C0, symSize: 0x100 }
  - { offsetInCU: 0x4548C, offset: 0x3798CE, size: 0x8, addend: 0x0, symName: '__ZN3syn10punctuated23Punctuated$LT$T$C$P$GT$10push_value17h4975d8317d65554cE', symObjAddr: 0xA350, symBinAddr: 0x921C0, symSize: 0x100 }
  - { offsetInCU: 0x45703, offset: 0x379B45, size: 0x8, addend: 0x0, symName: '__ZN3syn10punctuated23Punctuated$LT$T$C$P$GT$10push_value17h56f029a21ae32372E', symObjAddr: 0xA450, symBinAddr: 0x922C0, symSize: 0x100 }
  - { offsetInCU: 0x45960, offset: 0x379DA2, size: 0x8, addend: 0x0, symName: '__ZN3syn10punctuated23Punctuated$LT$T$C$P$GT$10push_value17h63a58ef4bac63b37E', symObjAddr: 0xA550, symBinAddr: 0x923C0, symSize: 0x100 }
  - { offsetInCU: 0x45BBD, offset: 0x379FFF, size: 0x8, addend: 0x0, symName: '__ZN3syn10punctuated23Punctuated$LT$T$C$P$GT$10push_value17h7a3a23979d9f27d8E', symObjAddr: 0xA650, symBinAddr: 0x924C0, symSize: 0x100 }
  - { offsetInCU: 0x45E1A, offset: 0x37A25C, size: 0x8, addend: 0x0, symName: '__ZN3syn10punctuated23Punctuated$LT$T$C$P$GT$10push_value17h7b8b7e7a7cc7f473E', symObjAddr: 0xA750, symBinAddr: 0x925C0, symSize: 0x100 }
  - { offsetInCU: 0x4606A, offset: 0x37A4AC, size: 0x8, addend: 0x0, symName: '__ZN3syn10punctuated23Punctuated$LT$T$C$P$GT$10push_value17h93661bd9a728ecd1E', symObjAddr: 0xA850, symBinAddr: 0x926C0, symSize: 0x100 }
  - { offsetInCU: 0x462D4, offset: 0x37A716, size: 0x8, addend: 0x0, symName: '__ZN3syn10punctuated23Punctuated$LT$T$C$P$GT$10push_value17hb6a278bfa99a1718E', symObjAddr: 0xA950, symBinAddr: 0x927C0, symSize: 0xD0 }
  - { offsetInCU: 0x46530, offset: 0x37A972, size: 0x8, addend: 0x0, symName: '__ZN3syn10punctuated23Punctuated$LT$T$C$P$GT$10push_value17hc6035201a10f0061E', symObjAddr: 0xAA20, symBinAddr: 0x92890, symSize: 0xF0 }
  - { offsetInCU: 0x4678C, offset: 0x37ABCE, size: 0x8, addend: 0x0, symName: '__ZN3syn10punctuated23Punctuated$LT$T$C$P$GT$10push_value17hd429ee0060d42f76E', symObjAddr: 0xAB10, symBinAddr: 0x92980, symSize: 0xF0 }
  - { offsetInCU: 0x469E8, offset: 0x37AE2A, size: 0x8, addend: 0x0, symName: '__ZN3syn10punctuated23Punctuated$LT$T$C$P$GT$10push_value17hdab02e89b3ba5c00E', symObjAddr: 0xAC00, symBinAddr: 0x92A70, symSize: 0x100 }
  - { offsetInCU: 0x46C6D, offset: 0x37B0AF, size: 0x8, addend: 0x0, symName: '__ZN3syn10punctuated23Punctuated$LT$T$C$P$GT$10push_punct17h06896b7cca64befbE', symObjAddr: 0xAD00, symBinAddr: 0x92B70, symSize: 0x110 }
  - { offsetInCU: 0x47067, offset: 0x37B4A9, size: 0x8, addend: 0x0, symName: '__ZN3syn10punctuated23Punctuated$LT$T$C$P$GT$10push_punct17h0e6070274da9870bE', symObjAddr: 0xAE10, symBinAddr: 0x92C80, symSize: 0x120 }
  - { offsetInCU: 0x47461, offset: 0x37B8A3, size: 0x8, addend: 0x0, symName: '__ZN3syn10punctuated23Punctuated$LT$T$C$P$GT$10push_punct17h24286cd6641c5efeE', symObjAddr: 0xAF30, symBinAddr: 0x92DA0, symSize: 0xF0 }
  - { offsetInCU: 0x4785B, offset: 0x37BC9D, size: 0x8, addend: 0x0, symName: '__ZN3syn10punctuated23Punctuated$LT$T$C$P$GT$10push_punct17h27450a552d2ea5c7E', symObjAddr: 0xB020, symBinAddr: 0x92E90, symSize: 0x110 }
  - { offsetInCU: 0x47C62, offset: 0x37C0A4, size: 0x8, addend: 0x0, symName: '__ZN3syn10punctuated23Punctuated$LT$T$C$P$GT$10push_punct17h44bfb8b49b59ff15E', symObjAddr: 0xB130, symBinAddr: 0x92FA0, symSize: 0x110 }
  - { offsetInCU: 0x4805C, offset: 0x37C49E, size: 0x8, addend: 0x0, symName: '__ZN3syn10punctuated23Punctuated$LT$T$C$P$GT$10push_punct17h7ab9900f429df4d2E', symObjAddr: 0xB240, symBinAddr: 0x930B0, symSize: 0x110 }
  - { offsetInCU: 0x48449, offset: 0x37C88B, size: 0x8, addend: 0x0, symName: '__ZN3syn10punctuated23Punctuated$LT$T$C$P$GT$10push_punct17h9e503a1a499ffaa4E', symObjAddr: 0xB350, symBinAddr: 0x931C0, symSize: 0x110 }
  - { offsetInCU: 0x48871, offset: 0x37CCB3, size: 0x8, addend: 0x0, symName: '__ZN3syn10punctuated23Punctuated$LT$T$C$P$GT$10push_punct17haecab6c445d3d0a0E', symObjAddr: 0xB460, symBinAddr: 0x932D0, symSize: 0x140 }
  - { offsetInCU: 0x48DBE, offset: 0x37D200, size: 0x8, addend: 0x0, symName: '__ZN3syn10punctuated23Punctuated$LT$T$C$P$GT$10push_punct17hb0efd3086160dde8E', symObjAddr: 0xB5A0, symBinAddr: 0x93410, symSize: 0xF0 }
  - { offsetInCU: 0x491B8, offset: 0x37D5FA, size: 0x8, addend: 0x0, symName: '__ZN3syn10punctuated23Punctuated$LT$T$C$P$GT$10push_punct17hdafa07dad0c325a7E', symObjAddr: 0xB690, symBinAddr: 0x93500, symSize: 0x110 }
  - { offsetInCU: 0x495CC, offset: 0x37DA0E, size: 0x8, addend: 0x0, symName: '__ZN3syn10punctuated23Punctuated$LT$T$C$P$GT$10push_punct17hdd359bad1ebfd945E', symObjAddr: 0xB7A0, symBinAddr: 0x93610, symSize: 0x110 }
  - { offsetInCU: 0x499C6, offset: 0x37DE08, size: 0x8, addend: 0x0, symName: '__ZN3syn10punctuated23Punctuated$LT$T$C$P$GT$10push_punct17he61ebefe1fbd6233E', symObjAddr: 0xB8B0, symBinAddr: 0x93720, symSize: 0x110 }
  - { offsetInCU: 0x49DC0, offset: 0x37E202, size: 0x8, addend: 0x0, symName: '__ZN3syn10punctuated23Punctuated$LT$T$C$P$GT$10push_punct17hedabbd3c35f4a750E', symObjAddr: 0xB9C0, symBinAddr: 0x93830, symSize: 0x110 }
  - { offsetInCU: 0x4A1BA, offset: 0x37E5FC, size: 0x8, addend: 0x0, symName: '__ZN3syn10punctuated23Punctuated$LT$T$C$P$GT$10push_punct17hfa5ffee47f85172bE', symObjAddr: 0xBAD0, symBinAddr: 0x93940, symSize: 0x110 }
  - { offsetInCU: 0x4A5B4, offset: 0x37E9F6, size: 0x8, addend: 0x0, symName: '__ZN3syn10punctuated23Punctuated$LT$T$C$P$GT$10push_punct17hff6cad691140237dE', symObjAddr: 0xBBE0, symBinAddr: 0x93A50, symSize: 0x120 }
  - { offsetInCU: 0x4AA47, offset: 0x37EE89, size: 0x8, addend: 0x0, symName: '__ZN3syn10punctuated23Punctuated$LT$T$C$P$GT$3pop17h6c6e5aa8da1faf58E', symObjAddr: 0xBD00, symBinAddr: 0x93B70, symSize: 0xA0 }
  - { offsetInCU: 0x4AE4D, offset: 0x37F28F, size: 0x8, addend: 0x0, symName: '__ZN3syn10punctuated23Punctuated$LT$T$C$P$GT$4push17hdc36ad8613c26a5bE', symObjAddr: 0xBDA0, symBinAddr: 0x93C10, symSize: 0x170 }
  - { offsetInCU: 0x4B1FF, offset: 0x37F641, size: 0x8, addend: 0x0, symName: '__ZN3syn10punctuated23Punctuated$LT$T$C$P$GT$21parse_terminated_with17h19cf4460b97e8380E', symObjAddr: 0xBF10, symBinAddr: 0x93D80, symSize: 0x200 }
  - { offsetInCU: 0x4B7F9, offset: 0x37FC3B, size: 0x8, addend: 0x0, symName: '__ZN3syn10punctuated23Punctuated$LT$T$C$P$GT$21parse_terminated_with17h804f2bc7bf3e5193E', symObjAddr: 0xC310, symBinAddr: 0x93F80, symSize: 0x3D0 }
  - { offsetInCU: 0x4C29D, offset: 0x3806DF, size: 0x8, addend: 0x0, symName: '__ZN3syn10punctuated23Punctuated$LT$T$C$P$GT$21parse_terminated_with17h88338cd3dff110dcE', symObjAddr: 0xC6E0, symBinAddr: 0x94350, symSize: 0x3E0 }
  - { offsetInCU: 0x2DB1, offset: 0x38A61C, size: 0x8, addend: 0x0, symName: '__ZN58_$LT$syn..expr..Member$u20$as$u20$core..cmp..PartialEq$GT$2eq17hedd9289cc4d26714E', symObjAddr: 0x92E0, symBinAddr: 0x9DD30, symSize: 0x30 }
  - { offsetInCU: 0x2EA0, offset: 0x38A70B, size: 0x8, addend: 0x0, symName: '__ZN73_$LT$syn..expr..Index$u20$as$u20$quote..ident_fragment..IdentFragment$GT$3fmt17hbf2f65fde5a290c4E', symObjAddr: 0x9370, symBinAddr: 0x9DD60, symSize: 0x10 }
  - { offsetInCU: 0x2EE9, offset: 0x38A754, size: 0x8, addend: 0x0, symName: '__ZN3syn4expr7parsing63_$LT$impl$u20$syn..parse..Parse$u20$for$u20$syn..expr..Expr$GT$5parse17h2dd32c2563b281f1E', symObjAddr: 0x9380, symBinAddr: 0x9DD70, symSize: 0xF0 }
  - { offsetInCU: 0x2F99, offset: 0x38A804, size: 0x8, addend: 0x0, symName: '__ZN3syn4expr7parsing66_$LT$impl$u20$syn..parse..Parse$u20$for$u20$syn..expr..ExprLit$GT$5parse17h037323e67b33f4e0E', symObjAddr: 0x9D40, symBinAddr: 0x9DE60, symSize: 0xF0 }
  - { offsetInCU: 0x3089, offset: 0x38A8F4, size: 0x8, addend: 0x0, symName: '__ZN3syn4expr7parsing65_$LT$impl$u20$syn..parse..Parse$u20$for$u20$syn..expr..ExprIf$GT$5parse17h057f7aac17b81ecfE', symObjAddr: 0x9E70, symBinAddr: 0x9DF50, symSize: 0x10D0 }
  - { offsetInCU: 0x59EA, offset: 0x38D255, size: 0x8, addend: 0x0, symName: '__ZN3syn4expr7parsing68_$LT$impl$u20$syn..parse..Parse$u20$for$u20$syn..expr..ExprInfer$GT$5parse17hee2966860a129500E', symObjAddr: 0xAF40, symBinAddr: 0x9F020, symSize: 0x190 }
  - { offsetInCU: 0x5DD9, offset: 0x38D644, size: 0x8, addend: 0x0, symName: '__ZN3syn4expr7parsing70_$LT$impl$u20$syn..parse..Parse$u20$for$u20$syn..expr..ExprForLoop$GT$5parse17hedfbb0907538a2b3E', symObjAddr: 0xB0D0, symBinAddr: 0x9F1B0, symSize: 0xAE0 }
  - { offsetInCU: 0x6E3C, offset: 0x38E6A7, size: 0x8, addend: 0x0, symName: '__ZN3syn4expr7parsing67_$LT$impl$u20$syn..parse..Parse$u20$for$u20$syn..expr..ExprLoop$GT$5parse17h7ed0d5dbbb60f303E', symObjAddr: 0xBBB0, symBinAddr: 0x9FC90, symSize: 0x670 }
  - { offsetInCU: 0x7CAA, offset: 0x38F515, size: 0x8, addend: 0x0, symName: '__ZN3syn4expr7parsing68_$LT$impl$u20$syn..parse..Parse$u20$for$u20$syn..expr..ExprMatch$GT$5parse17h34519e3f1e766752E', symObjAddr: 0xC220, symBinAddr: 0xA0300, symSize: 0x870 }
  - { offsetInCU: 0x8BDD, offset: 0x390448, size: 0x8, addend: 0x0, symName: '__ZN3syn4expr7parsing69_$LT$impl$u20$syn..parse..Parse$u20$for$u20$syn..expr..ExprReturn$GT$5parse17hc1b56b8a902787dbE', symObjAddr: 0xCDA0, symBinAddr: 0xA0B70, symSize: 0x120 }
  - { offsetInCU: 0x8DC0, offset: 0x39062B, size: 0x8, addend: 0x0, symName: '__ZN3syn4expr7parsing71_$LT$impl$u20$syn..parse..Parse$u20$for$u20$syn..expr..ExprTryBlock$GT$5parse17h57d58ae4f0ae4d64E', symObjAddr: 0xCEC0, symBinAddr: 0xA0C90, symSize: 0x140 }
  - { offsetInCU: 0x8F3F, offset: 0x3907AA, size: 0x8, addend: 0x0, symName: '__ZN3syn4expr7parsing68_$LT$impl$u20$syn..parse..Parse$u20$for$u20$syn..expr..ExprYield$GT$5parse17h1274dc253af9a55dE', symObjAddr: 0xD000, symBinAddr: 0xA0DD0, symSize: 0x120 }
  - { offsetInCU: 0x9122, offset: 0x39098D, size: 0x8, addend: 0x0, symName: '__ZN3syn4expr7parsing68_$LT$impl$u20$syn..parse..Parse$u20$for$u20$syn..expr..ExprAsync$GT$5parse17h1b9426392ef89a9dE', symObjAddr: 0xD120, symBinAddr: 0xA0EF0, symSize: 0x1E0 }
  - { offsetInCU: 0x9423, offset: 0x390C8E, size: 0x8, addend: 0x0, symName: '__ZN3syn4expr7parsing68_$LT$impl$u20$syn..parse..Parse$u20$for$u20$syn..expr..ExprWhile$GT$5parse17h632c2901c80fa142E', symObjAddr: 0xD300, symBinAddr: 0xA10D0, symSize: 0x940 }
  - { offsetInCU: 0xA2B5, offset: 0x391B20, size: 0x8, addend: 0x0, symName: '__ZN3syn4expr7parsing68_$LT$impl$u20$syn..parse..Parse$u20$for$u20$syn..expr..ExprConst$GT$5parse17h3cb83d630e04595bE', symObjAddr: 0xDC40, symBinAddr: 0xA1A10, symSize: 0x480 }
  - { offsetInCU: 0xAAE9, offset: 0x392354, size: 0x8, addend: 0x0, symName: '__ZN3syn4expr7parsing64_$LT$impl$u20$syn..parse..Parse$u20$for$u20$syn..expr..Label$GT$5parse17hef86b1bab95aa7abE', symObjAddr: 0xE0C0, symBinAddr: 0xA1E90, symSize: 0x240 }
  - { offsetInCU: 0xAFA8, offset: 0x392813, size: 0x8, addend: 0x0, symName: '__ZN3syn4expr7parsing71_$LT$impl$u20$syn..parse..Parse$u20$for$u20$syn..expr..ExprContinue$GT$5parse17h63c6d49ae369ea01E', symObjAddr: 0xE300, symBinAddr: 0xA20D0, symSize: 0x1B0 }
  - { offsetInCU: 0xB128, offset: 0x392993, size: 0x8, addend: 0x0, symName: '__ZN3syn4expr7parsing69_$LT$impl$u20$syn..parse..Parse$u20$for$u20$syn..expr..FieldValue$GT$5parse17hcbc1792fb9342612E', symObjAddr: 0xE4B0, symBinAddr: 0xA2280, symSize: 0x670 }
  - { offsetInCU: 0xBBBA, offset: 0x393425, size: 0x8, addend: 0x0, symName: '__ZN3syn4expr7parsing69_$LT$impl$u20$syn..parse..Parse$u20$for$u20$syn..expr..ExprUnsafe$GT$5parse17hd34f309eaaaddbf9E', symObjAddr: 0xEC40, symBinAddr: 0xA28F0, symSize: 0x480 }
  - { offsetInCU: 0xC3EE, offset: 0x393C59, size: 0x8, addend: 0x0, symName: '__ZN3syn4expr7parsing68_$LT$impl$u20$syn..parse..Parse$u20$for$u20$syn..expr..ExprBlock$GT$5parse17h61a2a565a082b026E', symObjAddr: 0xF0C0, symBinAddr: 0xA2D70, symSize: 0x620 }
  - { offsetInCU: 0xD248, offset: 0x394AB3, size: 0x8, addend: 0x0, symName: '__ZN3syn4expr7parsing70_$LT$impl$u20$syn..parse..Parse$u20$for$u20$syn..expr..RangeLimits$GT$5parse17hafc71f8b1811b3d4E', symObjAddr: 0xF6E0, symBinAddr: 0xA3390, symSize: 0x2F0 }
  - { offsetInCU: 0xDEC4, offset: 0x39572F, size: 0x8, addend: 0x0, symName: '__ZN3syn4expr7parsing67_$LT$impl$u20$syn..parse..Parse$u20$for$u20$syn..expr..ExprPath$GT$5parse17hcfacd5d2290fdd20E', symObjAddr: 0xFD70, symBinAddr: 0xA3A20, symSize: 0x240 }
  - { offsetInCU: 0xE307, offset: 0x395B72, size: 0x8, addend: 0x0, symName: '__ZN3syn4expr7parsing65_$LT$impl$u20$syn..parse..Parse$u20$for$u20$syn..expr..Member$GT$5parse17h207aacc2d4c7579fE', symObjAddr: 0xFFB0, symBinAddr: 0xA3C60, symSize: 0xE0 }
  - { offsetInCU: 0xE577, offset: 0x395DE2, size: 0x8, addend: 0x0, symName: '__ZN3syn4expr7parsing62_$LT$impl$u20$syn..parse..Parse$u20$for$u20$syn..expr..Arm$GT$5parse17h512532f6f815234dE', symObjAddr: 0x10090, symBinAddr: 0xA3D40, symSize: 0xA10 }
  - { offsetInCU: 0xF498, offset: 0x396D03, size: 0x8, addend: 0x0, symName: '__ZN3syn4expr7parsing64_$LT$impl$u20$syn..parse..Parse$u20$for$u20$syn..expr..Index$GT$5parse17h5b2fe44bac761272E', symObjAddr: 0x10AA0, symBinAddr: 0xA4750, symSize: 0x180 }
  - { offsetInCU: 0xFB68, offset: 0x3973D3, size: 0x8, addend: 0x0, symName: '__ZN3syn4expr8printing77_$LT$impl$u20$quote..to_tokens..ToTokens$u20$for$u20$syn..expr..ExprAsync$GT$9to_tokens17h7671d28113e1e04eE', symObjAddr: 0x10CC0, symBinAddr: 0xA48D0, symSize: 0x160 }
  - { offsetInCU: 0x101F3, offset: 0x397A5E, size: 0x8, addend: 0x0, symName: '__ZN3syn4expr8printing77_$LT$impl$u20$quote..to_tokens..ToTokens$u20$for$u20$syn..expr..ExprBlock$GT$9to_tokens17h25103e38a45e4c1aE', symObjAddr: 0x10E40, symBinAddr: 0xA4A30, symSize: 0xF0 }
  - { offsetInCU: 0x1075B, offset: 0x397FC6, size: 0x8, addend: 0x0, symName: '__ZN3syn4expr8printing79_$LT$impl$u20$quote..to_tokens..ToTokens$u20$for$u20$syn..expr..ExprClosure$GT$9to_tokens17h22aefaf35f6b4a17E', symObjAddr: 0x10F60, symBinAddr: 0xA4B20, symSize: 0x400 }
  - { offsetInCU: 0x114A5, offset: 0x398D10, size: 0x8, addend: 0x0, symName: '__ZN3syn4expr8printing77_$LT$impl$u20$quote..to_tokens..ToTokens$u20$for$u20$syn..expr..ExprConst$GT$9to_tokens17hfc10e9b463dc8ee9E', symObjAddr: 0x11360, symBinAddr: 0xA4F20, symSize: 0xF0 }
  - { offsetInCU: 0x11923, offset: 0x39918E, size: 0x8, addend: 0x0, symName: '__ZN3syn4expr8printing80_$LT$impl$u20$quote..to_tokens..ToTokens$u20$for$u20$syn..expr..ExprContinue$GT$9to_tokens17h5bfb9035b6328620E', symObjAddr: 0x11450, symBinAddr: 0xA5010, symSize: 0x130 }
  - { offsetInCU: 0x11F07, offset: 0x399772, size: 0x8, addend: 0x0, symName: '__ZN3syn4expr8printing79_$LT$impl$u20$quote..to_tokens..ToTokens$u20$for$u20$syn..expr..ExprForLoop$GT$9to_tokens17h240fbce8573b3e2aE', symObjAddr: 0x11590, symBinAddr: 0xA5140, symSize: 0x240 }
  - { offsetInCU: 0x127BE, offset: 0x39A029, size: 0x8, addend: 0x0, symName: '__ZN3syn4expr8printing74_$LT$impl$u20$quote..to_tokens..ToTokens$u20$for$u20$syn..expr..ExprIf$GT$9to_tokens17hf717ea11b1d1406aE', symObjAddr: 0x11860, symBinAddr: 0xA5380, symSize: 0x330 }
  - { offsetInCU: 0x1342A, offset: 0x39AC95, size: 0x8, addend: 0x0, symName: '__ZN3syn4expr8printing77_$LT$impl$u20$quote..to_tokens..ToTokens$u20$for$u20$syn..expr..ExprInfer$GT$9to_tokens17h66f2f3192152ee7bE', symObjAddr: 0x11BA0, symBinAddr: 0xA56B0, symSize: 0xE0 }
  - { offsetInCU: 0x138D2, offset: 0x39B13D, size: 0x8, addend: 0x0, symName: '__ZN3syn4expr8printing76_$LT$impl$u20$quote..to_tokens..ToTokens$u20$for$u20$syn..expr..ExprLoop$GT$9to_tokens17h32916f0a6a52df29E', symObjAddr: 0x11D20, symBinAddr: 0xA5790, symSize: 0x160 }
  - { offsetInCU: 0x14074, offset: 0x39B8DF, size: 0x8, addend: 0x0, symName: '__ZN3syn4expr8printing78_$LT$impl$u20$quote..to_tokens..ToTokens$u20$for$u20$syn..expr..ExprStruct$GT$9to_tokens17h5b9d34ef7b745589E', symObjAddr: 0x12260, symBinAddr: 0xA58F0, symSize: 0xA0 }
  - { offsetInCU: 0x143FF, offset: 0x39BC6A, size: 0x8, addend: 0x0, symName: '__ZN3syn4expr8printing80_$LT$impl$u20$quote..to_tokens..ToTokens$u20$for$u20$syn..expr..ExprTryBlock$GT$9to_tokens17h21b1a3e7eeb0a009E', symObjAddr: 0x12310, symBinAddr: 0xA5990, symSize: 0xF0 }
  - { offsetInCU: 0x148FD, offset: 0x39C168, size: 0x8, addend: 0x0, symName: '__ZN3syn4expr8printing78_$LT$impl$u20$quote..to_tokens..ToTokens$u20$for$u20$syn..expr..ExprUnsafe$GT$9to_tokens17h4dfc36d6c64a764dE', symObjAddr: 0x124A0, symBinAddr: 0xA5A80, symSize: 0xF0 }
  - { offsetInCU: 0x14DD5, offset: 0x39C640, size: 0x8, addend: 0x0, symName: '__ZN3syn4expr8printing71_$LT$impl$u20$quote..to_tokens..ToTokens$u20$for$u20$syn..expr..Arm$GT$9to_tokens17hb5881eaa41e95cfeE', symObjAddr: 0x12770, symBinAddr: 0xA5B70, symSize: 0x180 }
  - { offsetInCU: 0x151D0, offset: 0x39CA3B, size: 0x8, addend: 0x0, symName: '__ZN3syn4expr8printing74_$LT$impl$u20$quote..to_tokens..ToTokens$u20$for$u20$syn..expr..Member$GT$9to_tokens17h4e2d160d172ed775E', symObjAddr: 0x12BC0, symBinAddr: 0xA5E90, symSize: 0xC0 }
  - { offsetInCU: 0x154A3, offset: 0x39CD0E, size: 0x8, addend: 0x0, symName: '__ZN3syn4expr8printing78_$LT$impl$u20$quote..to_tokens..ToTokens$u20$for$u20$syn..expr..FieldValue$GT$9to_tokens17heb932e58796058afE', symObjAddr: 0x128F0, symBinAddr: 0xA5CF0, symSize: 0x1A0 }
  - { offsetInCU: 0x15B07, offset: 0x39D372, size: 0x8, addend: 0x0, symName: '__ZN62_$LT$syn..expr..Expr$u20$as$u20$quote..to_tokens..ToTokens$GT$9to_tokens17h591e04bab5b62929E', symObjAddr: 0x12D00, symBinAddr: 0xA5F50, symSize: 0x22C0 }
  - { offsetInCU: 0x216CD, offset: 0x3A8F38, size: 0x8, addend: 0x0, symName: '__ZN3syn3gen5clone63_$LT$impl$u20$core..clone..Clone$u20$for$u20$syn..expr..Arm$GT$5clone17h731a332d9e810dfbE', symObjAddr: 0x174C0, symBinAddr: 0xA8210, symSize: 0x1F0 }
  - { offsetInCU: 0x22022, offset: 0x3A988D, size: 0x8, addend: 0x0, symName: '__ZN3syn3gen5clone64_$LT$impl$u20$core..clone..Clone$u20$for$u20$syn..expr..Expr$GT$5clone17hd0fbb57decae682fE', symObjAddr: 0x176B0, symBinAddr: 0xA8400, symSize: 0x1DF0 }
  - { offsetInCU: 0x25CEC, offset: 0x3AD557, size: 0x8, addend: 0x0, symName: '__ZN3syn3gen5clone69_$LT$impl$u20$core..clone..Clone$u20$for$u20$syn..expr..ExprBlock$GT$5clone17hc672c8361322b75dE', symObjAddr: 0x199C0, symBinAddr: 0xAA1F0, symSize: 0x140 }
  - { offsetInCU: 0x25FC2, offset: 0x3AD82D, size: 0x8, addend: 0x0, symName: '__ZN3syn3gen5clone69_$LT$impl$u20$core..clone..Clone$u20$for$u20$syn..expr..ExprBreak$GT$5clone17h7bd0ca0880b96178E', symObjAddr: 0x19B00, symBinAddr: 0xAA330, symSize: 0x1A0 }
  - { offsetInCU: 0x26472, offset: 0x3ADCDD, size: 0x8, addend: 0x0, symName: '__ZN3syn3gen5clone71_$LT$impl$u20$core..clone..Clone$u20$for$u20$syn..expr..ExprClosure$GT$5clone17h793550ac36ec18ecE', symObjAddr: 0x19F50, symBinAddr: 0xAA4D0, symSize: 0x380 }
  - { offsetInCU: 0x26B3D, offset: 0x3AE3A8, size: 0x8, addend: 0x0, symName: '__ZN3syn3gen5clone71_$LT$impl$u20$core..clone..Clone$u20$for$u20$syn..expr..ExprForLoop$GT$5clone17h43600741ac808a48E', symObjAddr: 0x1A590, symBinAddr: 0xAA850, symSize: 0x2A0 }
  - { offsetInCU: 0x27296, offset: 0x3AEB01, size: 0x8, addend: 0x0, symName: '__ZN3syn3gen5clone66_$LT$impl$u20$core..clone..Clone$u20$for$u20$syn..expr..ExprIf$GT$5clone17h1d1ef5ce5034df51E', symObjAddr: 0x1A910, symBinAddr: 0xAAAF0, symSize: 0x1E0 }
  - { offsetInCU: 0x277B5, offset: 0x3AF020, size: 0x8, addend: 0x0, symName: '__ZN3syn3gen5clone68_$LT$impl$u20$core..clone..Clone$u20$for$u20$syn..expr..ExprLoop$GT$5clone17h5ec892bf07c52e97E', symObjAddr: 0x1AE90, symBinAddr: 0xAACD0, symSize: 0x150 }
  - { offsetInCU: 0x27AB9, offset: 0x3AF324, size: 0x8, addend: 0x0, symName: '__ZN3syn3gen5clone69_$LT$impl$u20$core..clone..Clone$u20$for$u20$syn..expr..ExprMatch$GT$5clone17ha5b2779974051841E', symObjAddr: 0x1B070, symBinAddr: 0xAAE20, symSize: 0x140 }
  - { offsetInCU: 0x27D41, offset: 0x3AF5AC, size: 0x8, addend: 0x0, symName: '__ZN3syn3gen5clone74_$LT$impl$u20$core..clone..Clone$u20$for$u20$syn..expr..ExprMethodCall$GT$5clone17h4d51c2e74302fd51E', symObjAddr: 0x1B1B0, symBinAddr: 0xAAF60, symSize: 0x3A0 }
  - { offsetInCU: 0x28448, offset: 0x3AFCB3, size: 0x8, addend: 0x0, symName: '__ZN3syn3gen5clone68_$LT$impl$u20$core..clone..Clone$u20$for$u20$syn..expr..ExprPath$GT$5clone17h5e066ec238ed93d5E', symObjAddr: 0x1B630, symBinAddr: 0xAB300, symSize: 0x1B0 }
  - { offsetInCU: 0x287B5, offset: 0x3B0020, size: 0x8, addend: 0x0, symName: '__ZN3syn3gen5clone69_$LT$impl$u20$core..clone..Clone$u20$for$u20$syn..expr..ExprRange$GT$5clone17h9227c42eb2ce8610E', symObjAddr: 0x1B7E0, symBinAddr: 0xAB4B0, symSize: 0x1A0 }
  - { offsetInCU: 0x28CC2, offset: 0x3B052D, size: 0x8, addend: 0x0, symName: '__ZN3syn3gen5clone70_$LT$impl$u20$core..clone..Clone$u20$for$u20$syn..expr..ExprStruct$GT$5clone17h182ae561ae6d6028E', symObjAddr: 0x1BC00, symBinAddr: 0xAB650, symSize: 0x390 }
  - { offsetInCU: 0x29509, offset: 0x3B0D74, size: 0x8, addend: 0x0, symName: '__ZN3syn3gen5clone69_$LT$impl$u20$core..clone..Clone$u20$for$u20$syn..expr..ExprWhile$GT$5clone17hc9698df3873ae4b0E', symObjAddr: 0x1C150, symBinAddr: 0xAB9E0, symSize: 0x200 }
  - { offsetInCU: 0x29A32, offset: 0x3B129D, size: 0x8, addend: 0x0, symName: '__ZN3syn3gen5clone70_$LT$impl$u20$core..clone..Clone$u20$for$u20$syn..expr..FieldValue$GT$5clone17he5e5e61c3443e293E', symObjAddr: 0x1C440, symBinAddr: 0xABBE0, symSize: 0x150 }
  - { offsetInCU: 0x2BD72, offset: 0x3B35DD, size: 0x8, addend: 0x0, symName: '__ZN4core3ptr100drop_in_place$LT$core..option..Option$LT$alloc..boxed..Box$LT$syn..path..GenericArgument$GT$$GT$$GT$17h3a7c44b9e57fe410E', symObjAddr: 0x1D0, symBinAddr: 0x96070, symSize: 0x50 }
  - { offsetInCU: 0x2C110, offset: 0x3B397B, size: 0x8, addend: 0x0, symName: '__ZN4core3ptr100drop_in_place$LT$syn..punctuated..Punctuated$LT$syn..path..PathSegment$C$syn..token..PathSep$GT$$GT$17he41ef64147139591E', symObjAddr: 0x220, symBinAddr: 0x960C0, symSize: 0x2B0 }
  - { offsetInCU: 0x2CBC6, offset: 0x3B4431, size: 0x8, addend: 0x0, symName: '__ZN4core3ptr103drop_in_place$LT$core..option..Option$LT$alloc..boxed..Box$LT$syn..generics..TypeParamBound$GT$$GT$$GT$17hb14e4384a768542bE', symObjAddr: 0x4D0, symBinAddr: 0x96370, symSize: 0x50 }
  - { offsetInCU: 0x2CDD1, offset: 0x3B463C, size: 0x8, addend: 0x0, symName: '__ZN4core3ptr103drop_in_place$LT$syn..punctuated..Punctuated$LT$syn..generics..GenericParam$C$syn..token..Comma$GT$$GT$17h0c6077a988036760E', symObjAddr: 0x520, symBinAddr: 0x963C0, symSize: 0xF0 }
  - { offsetInCU: 0x2D2CC, offset: 0x3B4B37, size: 0x8, addend: 0x0, symName: '__ZN4core3ptr104drop_in_place$LT$syn..punctuated..Punctuated$LT$syn..generics..TypeParamBound$C$syn..token..Plus$GT$$GT$17h724e4d9d1d65061aE', symObjAddr: 0x610, symBinAddr: 0x964B0, symSize: 0x190 }
  - { offsetInCU: 0x2D8EF, offset: 0x3B515A, size: 0x8, addend: 0x0, symName: '__ZN4core3ptr114drop_in_place$LT$core..option..Option$LT$$LP$syn..token..If$C$alloc..boxed..Box$LT$syn..expr..Expr$GT$$RP$$GT$$GT$17h65df04de8e20ab0aE.llvm.3179342279309578476', symObjAddr: 0x7A0, symBinAddr: 0x96640, symSize: 0x0 }
  - { offsetInCU: 0x2DB1E, offset: 0x3B5389, size: 0x8, addend: 0x0, symName: '__ZN4core3ptr34drop_in_place$LT$syn..lit..Lit$GT$17hd64dde89a262341dE.llvm.3179342279309578476', symObjAddr: 0x7F0, symBinAddr: 0x96690, symSize: 0x130 }
  - { offsetInCU: 0x2E057, offset: 0x3B58C2, size: 0x8, addend: 0x0, symName: '__ZN4core3ptr34drop_in_place$LT$syn..pat..Pat$GT$17hf88887878261d63cE.llvm.3179342279309578476', symObjAddr: 0x920, symBinAddr: 0x967C0, symSize: 0x1100 }
  - { offsetInCU: 0x326D1, offset: 0x3B9F3C, size: 0x8, addend: 0x0, symName: '__ZN4core3ptr34drop_in_place$LT$syn..ty..Type$GT$17ha80dd29b0f9d4a3fE.llvm.3179342279309578476', symObjAddr: 0x1A20, symBinAddr: 0x978C0, symSize: 0x520 }
  - { offsetInCU: 0x33796, offset: 0x3BB001, size: 0x8, addend: 0x0, symName: '__ZN4core3ptr35drop_in_place$LT$syn..expr..Arm$GT$17hd729aea1406305a9E', symObjAddr: 0x1F40, symBinAddr: 0x97DE0, symSize: 0x160 }
  - { offsetInCU: 0x3424F, offset: 0x3BBABA, size: 0x8, addend: 0x0, symName: '__ZN4core3ptr36drop_in_place$LT$syn..expr..Expr$GT$17h10f573b40ddd212cE.llvm.3179342279309578476', symObjAddr: 0x20A0, symBinAddr: 0x97F40, symSize: 0x2550 }
  - { offsetInCU: 0x3D666, offset: 0x3C4ED1, size: 0x8, addend: 0x0, symName: '__ZN4core3ptr36drop_in_place$LT$syn..mac..Macro$GT$17hc3b30a7a8a34cc2dE.llvm.3179342279309578476', symObjAddr: 0x45F0, symBinAddr: 0x9A490, symSize: 0x40 }
  - { offsetInCU: 0x3D6A0, offset: 0x3C4F0B, size: 0x8, addend: 0x0, symName: '__ZN4core3ptr36drop_in_place$LT$syn..path..Path$GT$17h75c74a97d5f0a03bE.llvm.3179342279309578476', symObjAddr: 0x4630, symBinAddr: 0x9A4D0, symSize: 0x280 }
  - { offsetInCU: 0x3E18B, offset: 0x3C59F6, size: 0x8, addend: 0x0, symName: '__ZN4core3ptr37drop_in_place$LT$syn..lit..LitInt$GT$17hb1d9c894162666f0E.llvm.3179342279309578476', symObjAddr: 0x48B0, symBinAddr: 0x9A750, symSize: 0x70 }
  - { offsetInCU: 0x3E51C, offset: 0x3C5D87, size: 0x8, addend: 0x0, symName: '__ZN4core3ptr37drop_in_place$LT$syn..stmt..Block$GT$17h6fc3254d5688f2c3E.llvm.3179342279309578476', symObjAddr: 0x4920, symBinAddr: 0x9A7C0, symSize: 0xD0 }
  - { offsetInCU: 0x3E831, offset: 0x3C609C, size: 0x8, addend: 0x0, symName: '__ZN4core3ptr38drop_in_place$LT$syn..expr..ExprIf$GT$17ha8d3c2042f45d05fE', symObjAddr: 0x49F0, symBinAddr: 0x9A890, symSize: 0x200 }
  - { offsetInCU: 0x3F0EE, offset: 0x3C6959, size: 0x8, addend: 0x0, symName: '__ZN4core3ptr38drop_in_place$LT$syn..expr..Member$GT$17h6b0cf84594ce6bceE.llvm.3179342279309578476', symObjAddr: 0x4BF0, symBinAddr: 0x9AA90, symSize: 0x30 }
  - { offsetInCU: 0x3F1EA, offset: 0x3C6A55, size: 0x8, addend: 0x0, symName: '__ZN4core3ptr39drop_in_place$LT$proc_macro2..Ident$GT$17ha28fef9769e267d9E.llvm.3179342279309578476', symObjAddr: 0x4C20, symBinAddr: 0x9AAC0, symSize: 0x30 }
  - { offsetInCU: 0x3F2C7, offset: 0x3C6B32, size: 0x8, addend: 0x0, symName: '__ZN4core3ptr40drop_in_place$LT$syn..ty..ReturnType$GT$17h035a612e322b6510E.llvm.3179342279309578476', symObjAddr: 0x4FB0, symBinAddr: 0x9AAF0, symSize: 0x50 }
  - { offsetInCU: 0x3F437, offset: 0x3C6CA2, size: 0x8, addend: 0x0, symName: '__ZN4core3ptr41drop_in_place$LT$syn..expr..ExprConst$GT$17hbfe19d5d621e6836E', symObjAddr: 0x5030, symBinAddr: 0x9AB40, symSize: 0x180 }
  - { offsetInCU: 0x3FA43, offset: 0x3C72AE, size: 0x8, addend: 0x0, symName: '__ZN4core3ptr44drop_in_place$LT$syn..lifetime..Lifetime$GT$17he37fa474f03de7b1E', symObjAddr: 0x58E0, symBinAddr: 0x9ACC0, symSize: 0x30 }
  - { offsetInCU: 0x3FBBB, offset: 0x3C7426, size: 0x8, addend: 0x0, symName: '__ZN4core3ptr44drop_in_place$LT$syn..parse..ParseBuffer$GT$17hf792ff20095efc35E', symObjAddr: 0x5910, symBinAddr: 0x9ACF0, symSize: 0x70 }
  - { offsetInCU: 0x3FFD2, offset: 0x3C783D, size: 0x8, addend: 0x0, symName: '__ZN4core3ptr45drop_in_place$LT$proc_macro2..TokenStream$GT$17h76e8e68015f4924dE.llvm.3179342279309578476', symObjAddr: 0x5980, symBinAddr: 0x9AD60, symSize: 0x140 }
  - { offsetInCU: 0x4046C, offset: 0x3C7CD7, size: 0x8, addend: 0x0, symName: '__ZN4core3ptr45drop_in_place$LT$syn..generics..TypeParam$GT$17h188a459c1380ac75E', symObjAddr: 0x5AC0, symBinAddr: 0x9AEA0, symSize: 0x230 }
  - { offsetInCU: 0x40D3E, offset: 0x3C85A9, size: 0x8, addend: 0x0, symName: '__ZN4core3ptr46drop_in_place$LT$syn..expr..ExprMethodCall$GT$17hcac390ae151688a0E', symObjAddr: 0x5CF0, symBinAddr: 0x9B0D0, symSize: 0x340 }
  - { offsetInCU: 0x41B8B, offset: 0x3C93F6, size: 0x8, addend: 0x0, symName: '__ZN4core3ptr46drop_in_place$LT$syn..generics..ConstParam$GT$17h7a9b900b2b88bfcdE', symObjAddr: 0x6030, symBinAddr: 0x9B410, symSize: 0x150 }
  - { offsetInCU: 0x42088, offset: 0x3C98F3, size: 0x8, addend: 0x0, symName: '__ZN4core3ptr47drop_in_place$LT$syn..path..GenericArgument$GT$17h593f06d6ca9a94d2E', symObjAddr: 0x61B0, symBinAddr: 0x9B560, symSize: 0x4A0 }
  - { offsetInCU: 0x4318E, offset: 0x3CA9F9, size: 0x8, addend: 0x0, symName: '__ZN4core3ptr49drop_in_place$LT$syn..generics..LifetimeParam$GT$17h3a8835ab294bfd16E', symObjAddr: 0x6650, symBinAddr: 0x9BA00, symSize: 0xF0 }
  - { offsetInCU: 0x435A5, offset: 0x3CAE10, size: 0x8, addend: 0x0, symName: '__ZN4core3ptr50drop_in_place$LT$syn..generics..TypeParamBound$GT$17h81b4325b5900604dE', symObjAddr: 0x6740, symBinAddr: 0x9BAF0, symSize: 0x1C0 }
  - { offsetInCU: 0x43B02, offset: 0x3CB36D, size: 0x8, addend: 0x0, symName: '__ZN4core3ptr58drop_in_place$LT$alloc..vec..Vec$LT$syn..expr..Arm$GT$$GT$17hff9224aadf2233b8E.llvm.3179342279309578476', symObjAddr: 0x6900, symBinAddr: 0x9BCB0, symSize: 0xD0 }
  - { offsetInCU: 0x43DC2, offset: 0x3CB62D, size: 0x8, addend: 0x0, symName: '__ZN4core3ptr59drop_in_place$LT$alloc..boxed..Box$LT$syn..pat..Pat$GT$$GT$17h622b0c1db21c0742E.llvm.3179342279309578476', symObjAddr: 0x69D0, symBinAddr: 0x9BD80, symSize: 0x50 }
  - { offsetInCU: 0x43F1B, offset: 0x3CB786, size: 0x8, addend: 0x0, symName: '__ZN4core3ptr59drop_in_place$LT$alloc..boxed..Box$LT$syn..ty..Type$GT$$GT$17hde45fa887dd8b605E.llvm.3179342279309578476', symObjAddr: 0x6A20, symBinAddr: 0x9BDD0, symSize: 0x50 }
  - { offsetInCU: 0x44074, offset: 0x3CB8DF, size: 0x8, addend: 0x0, symName: '__ZN4core3ptr59drop_in_place$LT$alloc..vec..Vec$LT$syn..stmt..Stmt$GT$$GT$17h6cf3e54f41bc03bdE', symObjAddr: 0x6A70, symBinAddr: 0x9BE20, symSize: 0xD0 }
  - { offsetInCU: 0x44334, offset: 0x3CBB9F, size: 0x8, addend: 0x0, symName: '__ZN4core3ptr61drop_in_place$LT$alloc..boxed..Box$LT$syn..expr..Expr$GT$$GT$17hbb42293869113942E.llvm.3179342279309578476', symObjAddr: 0x6B40, symBinAddr: 0x9BEF0, symSize: 0x50 }
  - { offsetInCU: 0x444AC, offset: 0x3CBD17, size: 0x8, addend: 0x0, symName: '__ZN4core3ptr61drop_in_place$LT$alloc..vec..Vec$LT$syn..expr..ExprIf$GT$$GT$17h974b97c8babb35d3E', symObjAddr: 0x6B90, symBinAddr: 0x9BF40, symSize: 0xD0 }
  - { offsetInCU: 0x447EA, offset: 0x3CC055, size: 0x8, addend: 0x0, symName: '__ZN4core3ptr61drop_in_place$LT$syn..path..ParenthesizedGenericArguments$GT$17h6b1731382637937fE', symObjAddr: 0x6C60, symBinAddr: 0x9C010, symSize: 0x170 }
  - { offsetInCU: 0x44DE0, offset: 0x3CC64B, size: 0x8, addend: 0x0, symName: '__ZN4core3ptr62drop_in_place$LT$syn..path..AngleBracketedGenericArguments$GT$17hf8fa172f007a1473E', symObjAddr: 0x6DD0, symBinAddr: 0x9C180, symSize: 0x120 }
  - { offsetInCU: 0x4522B, offset: 0x3CCA96, size: 0x8, addend: 0x0, symName: '__ZN4core3ptr63drop_in_place$LT$alloc..boxed..Box$LT$syn..lit..LitRepr$GT$$GT$17h6e3a82ea4de7b84cE', symObjAddr: 0x6EF0, symBinAddr: 0x9C2A0, symSize: 0x60 }
  - { offsetInCU: 0x45513, offset: 0x3CCD7E, size: 0x8, addend: 0x0, symName: '__ZN4core3ptr64drop_in_place$LT$alloc..boxed..Box$LT$syn..pat..FieldPat$GT$$GT$17hbf8f4867d84bd25dE', symObjAddr: 0x6F50, symBinAddr: 0x9C300, symSize: 0x140 }
  - { offsetInCU: 0x45C14, offset: 0x3CD47F, size: 0x8, addend: 0x0, symName: '__ZN4core3ptr64drop_in_place$LT$alloc..boxed..Box$LT$syn..ty..BareFnArg$GT$$GT$17h6be6354eb1d1364dE', symObjAddr: 0x7090, symBinAddr: 0x9C440, symSize: 0x140 }
  - { offsetInCU: 0x4619D, offset: 0x3CDA08, size: 0x8, addend: 0x0, symName: '__ZN4core3ptr64drop_in_place$LT$alloc..vec..Vec$LT$syn..attr..Attribute$GT$$GT$17he33e25539d5885aeE.llvm.3179342279309578476', symObjAddr: 0x71D0, symBinAddr: 0x9C580, symSize: 0xD0 }
  - { offsetInCU: 0x46491, offset: 0x3CDCFC, size: 0x8, addend: 0x0, symName: '__ZN4core3ptr65drop_in_place$LT$alloc..vec..Vec$LT$proc_macro..TokenTree$GT$$GT$17h8abd81f8596dbc59E.llvm.3179342279309578476', symObjAddr: 0x72A0, symBinAddr: 0x9C650, symSize: 0x110 }
  - { offsetInCU: 0x46889, offset: 0x3CE0F4, size: 0x8, addend: 0x0, symName: '__ZN4core3ptr65drop_in_place$LT$core..option..Option$LT$syn..expr..Label$GT$$GT$17hac599686b33ef364E.llvm.3179342279309578476', symObjAddr: 0x73B0, symBinAddr: 0x9C760, symSize: 0x30 }
  - { offsetInCU: 0x469C3, offset: 0x3CE22E, size: 0x8, addend: 0x0, symName: '__ZN4core3ptr65drop_in_place$LT$core..option..Option$LT$syn..path..QSelf$GT$$GT$17h0b8dd5cda5f2cd6bE.llvm.3179342279309578476', symObjAddr: 0x73E0, symBinAddr: 0x9C790, symSize: 0x50 }
  - { offsetInCU: 0x46B5A, offset: 0x3CE3C5, size: 0x8, addend: 0x0, symName: '__ZN4core3ptr66drop_in_place$LT$core..option..Option$LT$syn..pat..PatRest$GT$$GT$17hd5bb3bc28aa78ac1E', symObjAddr: 0x7430, symBinAddr: 0x9C7E0, symSize: 0xE0 }
  - { offsetInCU: 0x46E82, offset: 0x3CE6ED, size: 0x8, addend: 0x0, symName: '__ZN4core3ptr67drop_in_place$LT$alloc..boxed..Box$LT$syn..expr..FieldValue$GT$$GT$17hbbcf67a9d5e9863cE', symObjAddr: 0x7510, symBinAddr: 0x9C8C0, symSize: 0x140 }
  - { offsetInCU: 0x473EB, offset: 0x3CEC56, size: 0x8, addend: 0x0, symName: '__ZN4core3ptr68drop_in_place$LT$alloc..boxed..Box$LT$syn..path..PathSegment$GT$$GT$17h99aaf90b3262bc1eE', symObjAddr: 0x7650, symBinAddr: 0x9CA00, symSize: 0x1B0 }
  - { offsetInCU: 0x47AF9, offset: 0x3CF364, size: 0x8, addend: 0x0, symName: '__ZN4core3ptr70drop_in_place$LT$core..option..Option$LT$syn..ty..BareVariadic$GT$$GT$17h79a19250e9f043b1E', symObjAddr: 0x7800, symBinAddr: 0x9CBB0, symSize: 0x100 }
  - { offsetInCU: 0x47F64, offset: 0x3CF7CF, size: 0x8, addend: 0x0, symName: '__ZN4core3ptr72drop_in_place$LT$alloc..boxed..Box$LT$syn..path..GenericArgument$GT$$GT$17hfd308d374af4273dE', symObjAddr: 0x7900, symBinAddr: 0x9CCB0, symSize: 0x1D0 }
  - { offsetInCU: 0x484FF, offset: 0x3CFD6A, size: 0x8, addend: 0x0, symName: '__ZN4core3ptr72drop_in_place$LT$core..option..Option$LT$syn..lifetime..Lifetime$GT$$GT$17h49cce6f02f9c0590E.llvm.3179342279309578476', symObjAddr: 0x7AD0, symBinAddr: 0x9CE80, symSize: 0x30 }
  - { offsetInCU: 0x4861A, offset: 0x3CFE85, size: 0x8, addend: 0x0, symName: '__ZN4core3ptr73drop_in_place$LT$alloc..boxed..Box$LT$syn..generics..GenericParam$GT$$GT$17ha26d5d145af4b203E', symObjAddr: 0x7B00, symBinAddr: 0x9CEB0, symSize: 0x80 }
  - { offsetInCU: 0x48790, offset: 0x3CFFFB, size: 0x8, addend: 0x0, symName: '__ZN4core3ptr75drop_in_place$LT$alloc..boxed..Box$LT$syn..generics..TypeParamBound$GT$$GT$17h129a4e927e5eb81bE', symObjAddr: 0x7B80, symBinAddr: 0x9CF30, symSize: 0xC0 }
  - { offsetInCU: 0x48AE4, offset: 0x3D034F, size: 0x8, addend: 0x0, symName: '__ZN4core3ptr86drop_in_place$LT$syn..punctuated..Punctuated$LT$syn..pat..Pat$C$syn..token..Or$GT$$GT$17h9cc6b5f7b6d3a555E', symObjAddr: 0x7C60, symBinAddr: 0x9CFF0, symSize: 0x120 }
  - { offsetInCU: 0x48F5F, offset: 0x3D07CA, size: 0x8, addend: 0x0, symName: '__ZN4core3ptr87drop_in_place$LT$core..option..Option$LT$alloc..boxed..Box$LT$syn..pat..Pat$GT$$GT$$GT$17h51cd48973d96c411E', symObjAddr: 0x7D80, symBinAddr: 0x9D110, symSize: 0x50 }
  - { offsetInCU: 0x490CF, offset: 0x3D093A, size: 0x8, addend: 0x0, symName: '__ZN4core3ptr87drop_in_place$LT$core..option..Option$LT$alloc..boxed..Box$LT$syn..ty..Type$GT$$GT$$GT$17h103a25a4a7d7374eE', symObjAddr: 0x7DD0, symBinAddr: 0x9D160, symSize: 0x50 }
  - { offsetInCU: 0x4923F, offset: 0x3D0AAA, size: 0x8, addend: 0x0, symName: '__ZN4core3ptr88drop_in_place$LT$$LP$syn..token..Else$C$alloc..boxed..Box$LT$syn..expr..Expr$GT$$RP$$GT$17ha4aa82534fb17f55E', symObjAddr: 0x7E20, symBinAddr: 0x9D1B0, symSize: 0x50 }
  - { offsetInCU: 0x493B7, offset: 0x3D0C22, size: 0x8, addend: 0x0, symName: '__ZN4core3ptr89drop_in_place$LT$core..option..Option$LT$alloc..boxed..Box$LT$syn..expr..Expr$GT$$GT$$GT$17h9e02509cb2345d44E.llvm.3179342279309578476', symObjAddr: 0x7E70, symBinAddr: 0x9D200, symSize: 0x50 }
  - { offsetInCU: 0x49565, offset: 0x3D0DD0, size: 0x8, addend: 0x0, symName: '__ZN4core3ptr89drop_in_place$LT$syn..punctuated..Punctuated$LT$syn..pat..Pat$C$syn..token..Comma$GT$$GT$17hd3a83c36827f210aE.llvm.3179342279309578476', symObjAddr: 0x7EC0, symBinAddr: 0x9D250, symSize: 0x120 }
  - { offsetInCU: 0x499F7, offset: 0x3D1262, size: 0x8, addend: 0x0, symName: '__ZN4core3ptr89drop_in_place$LT$syn..punctuated..Punctuated$LT$syn..ty..Type$C$syn..token..Comma$GT$$GT$17he030c4b7f24a5848E', symObjAddr: 0x7FE0, symBinAddr: 0x9D370, symSize: 0x120 }
  - { offsetInCU: 0x49E72, offset: 0x3D16DD, size: 0x8, addend: 0x0, symName: '__ZN4core3ptr90drop_in_place$LT$core..option..Option$LT$syn..path..AngleBracketedGenericArguments$GT$$GT$17ha307713a95a0671eE.llvm.3179342279309578476', symObjAddr: 0x8100, symBinAddr: 0x9D490, symSize: 0x130 }
  - { offsetInCU: 0x4A2D6, offset: 0x3D1B41, size: 0x8, addend: 0x0, symName: '__ZN4core3ptr91drop_in_place$LT$syn..punctuated..Punctuated$LT$syn..expr..Expr$C$syn..token..Comma$GT$$GT$17h6f261e8f470c81f2E.llvm.3179342279309578476', symObjAddr: 0x8230, symBinAddr: 0x9D5C0, symSize: 0x120 }
  - { offsetInCU: 0x4A751, offset: 0x3D1FBC, size: 0x8, addend: 0x0, symName: '__ZN4core3ptr94drop_in_place$LT$syn..punctuated..Punctuated$LT$syn..pat..FieldPat$C$syn..token..Comma$GT$$GT$17h43ec25af986ef674E', symObjAddr: 0x8350, symBinAddr: 0x9D6E0, symSize: 0xF0 }
  - { offsetInCU: 0x4AA50, offset: 0x3D22BB, size: 0x8, addend: 0x0, symName: '__ZN4core3ptr94drop_in_place$LT$syn..punctuated..Punctuated$LT$syn..ty..BareFnArg$C$syn..token..Comma$GT$$GT$17h7ba4c699ee390ebaE', symObjAddr: 0x8440, symBinAddr: 0x9D7D0, symSize: 0xF0 }
  - { offsetInCU: 0x4AD51, offset: 0x3D25BC, size: 0x8, addend: 0x0, symName: '__ZN4core3ptr95drop_in_place$LT$core..option..Option$LT$$LP$proc_macro2..Ident$C$syn..token..Colon$RP$$GT$$GT$17h59fe297999aa3329E', symObjAddr: 0x8530, symBinAddr: 0x9D8C0, symSize: 0x30 }
  - { offsetInCU: 0x4AE6C, offset: 0x3D26D7, size: 0x8, addend: 0x0, symName: '__ZN4core3ptr96drop_in_place$LT$core..option..Option$LT$alloc..boxed..Box$LT$syn..path..PathSegment$GT$$GT$$GT$17h5de12a5a0f9e9ef9E', symObjAddr: 0x8560, symBinAddr: 0x9D8F0, symSize: 0xA0 }
  - { offsetInCU: 0x4B0EB, offset: 0x3D2956, size: 0x8, addend: 0x0, symName: '__ZN4core3ptr97drop_in_place$LT$syn..punctuated..Punctuated$LT$syn..expr..FieldValue$C$syn..token..Comma$GT$$GT$17hf58d0a9a09266ab3E.llvm.3179342279309578476', symObjAddr: 0x8600, symBinAddr: 0x9D990, symSize: 0xF0 }
  - { offsetInCU: 0x4B464, offset: 0x3D2CCF, size: 0x8, addend: 0x0, symName: '__ZN4core3ptr98drop_in_place$LT$syn..punctuated..Punctuated$LT$syn..lifetime..Lifetime$C$syn..token..Plus$GT$$GT$17h600c2b78f78fd2b9E', symObjAddr: 0x86F0, symBinAddr: 0x9DA80, symSize: 0xD0 }
  - { offsetInCU: 0x5182C, offset: 0x3D9097, size: 0x8, addend: 0x0, symName: __ZN5alloc5alloc15exchange_malloc17h9a87608d0224859dE, symObjAddr: 0x87E0, symBinAddr: 0x9DB50, symSize: 0x40 }
  - { offsetInCU: 0x537D2, offset: 0x3DB03D, size: 0x8, addend: 0x0, symName: '__ZN69_$LT$alloc..boxed..Box$LT$T$C$A$GT$$u20$as$u20$core..clone..Clone$GT$5clone17h4fb5c51762622d36E', symObjAddr: 0x8E30, symBinAddr: 0x9DB90, symSize: 0x90 }
  - { offsetInCU: 0x554C9, offset: 0x3DCD34, size: 0x8, addend: 0x0, symName: __ZN3syn4expr4Expr13replace_attrs17h81659526e8109ac8E, symObjAddr: 0x9180, symBinAddr: 0x9DC20, symSize: 0x110 }
  - { offsetInCU: 0x56792, offset: 0x3DDFFD, size: 0x8, addend: 0x0, symName: '__ZN3syn4expr7parsing40_$LT$impl$u20$syn..expr..RangeLimits$GT$14parse_obsolete17he8a69cc7d9cd98eeE', symObjAddr: 0xF9D0, symBinAddr: 0xA3680, symSize: 0x3A0 }
  - { offsetInCU: 0x185E, offset: 0x3ECAC7, size: 0x8, addend: 0x0, symName: '__ZN4core3ptr100drop_in_place$LT$alloc..vec..Vec$LT$$LP$syn..generics..TypeParamBound$C$syn..token..Plus$RP$$GT$$GT$17hea181150e4b37806E.llvm.14025449986115119833', symObjAddr: 0x5D0, symBinAddr: 0xAC180, symSize: 0xD0 }
  - { offsetInCU: 0x1B78, offset: 0x3ECDE1, size: 0x8, addend: 0x0, symName: '__ZN4core3ptr100drop_in_place$LT$core..option..Option$LT$alloc..boxed..Box$LT$syn..path..GenericArgument$GT$$GT$$GT$17h3a7c44b9e57fe410E', symObjAddr: 0x6A0, symBinAddr: 0xAC250, symSize: 0x50 }
  - { offsetInCU: 0x1D45, offset: 0x3ECFAE, size: 0x8, addend: 0x0, symName: '__ZN4core3ptr101drop_in_place$LT$alloc..vec..Vec$LT$$LP$syn..generics..WherePredicate$C$syn..token..Comma$RP$$GT$$GT$17h480aa68a207f67a8E.llvm.14025449986115119833', symObjAddr: 0x6F0, symBinAddr: 0xAC2A0, symSize: 0xD0 }
  - { offsetInCU: 0x2063, offset: 0x3ED2CC, size: 0x8, addend: 0x0, symName: '__ZN4core3ptr101drop_in_place$LT$core..option..Option$LT$alloc..boxed..Box$LT$syn..generics..GenericParam$GT$$GT$$GT$17h2bff155591650989E', symObjAddr: 0x7C0, symBinAddr: 0xAC370, symSize: 0x50 }
  - { offsetInCU: 0x224F, offset: 0x3ED4B8, size: 0x8, addend: 0x0, symName: '__ZN4core3ptr102drop_in_place$LT$syn..punctuated..Punctuated$LT$syn..path..GenericArgument$C$syn..token..Comma$GT$$GT$17h8b1978399cfff48bE.llvm.14025449986115119833', symObjAddr: 0x810, symBinAddr: 0xAC3C0, symSize: 0xF0 }
  - { offsetInCU: 0x2576, offset: 0x3ED7DF, size: 0x8, addend: 0x0, symName: '__ZN4core3ptr103drop_in_place$LT$core..option..Option$LT$alloc..boxed..Box$LT$syn..generics..TypeParamBound$GT$$GT$$GT$17hb14e4384a768542bE.llvm.14025449986115119833', symObjAddr: 0x900, symBinAddr: 0xAC4B0, symSize: 0x50 }
  - { offsetInCU: 0x2705, offset: 0x3ED96E, size: 0x8, addend: 0x0, symName: '__ZN4core3ptr103drop_in_place$LT$core..option..Option$LT$alloc..boxed..Box$LT$syn..generics..WherePredicate$GT$$GT$$GT$17he190813f4819c5dbE', symObjAddr: 0x950, symBinAddr: 0xAC500, symSize: 0x50 }
  - { offsetInCU: 0x292F, offset: 0x3EDB98, size: 0x8, addend: 0x0, symName: '__ZN4core3ptr103drop_in_place$LT$syn..punctuated..Punctuated$LT$syn..generics..GenericParam$C$syn..token..Comma$GT$$GT$17h0c6077a988036760E.llvm.14025449986115119833', symObjAddr: 0x9A0, symBinAddr: 0xAC550, symSize: 0x1A0 }
  - { offsetInCU: 0x2FD1, offset: 0x3EE23A, size: 0x8, addend: 0x0, symName: '__ZN4core3ptr104drop_in_place$LT$syn..punctuated..Punctuated$LT$syn..generics..TypeParamBound$C$syn..token..Plus$GT$$GT$17h724e4d9d1d65061aE.llvm.14025449986115119833', symObjAddr: 0xB40, symBinAddr: 0xAC6F0, symSize: 0x240 }
  - { offsetInCU: 0x390C, offset: 0x3EEB75, size: 0x8, addend: 0x0, symName: '__ZN4core3ptr105drop_in_place$LT$syn..punctuated..Punctuated$LT$syn..generics..WherePredicate$C$syn..token..Comma$GT$$GT$17h18b5b213db2a676cE', symObjAddr: 0xD80, symBinAddr: 0xAC930, symSize: 0x1A0 }
  - { offsetInCU: 0x401B, offset: 0x3EF284, size: 0x8, addend: 0x0, symName: '__ZN4core3ptr116drop_in_place$LT$core..option..Option$LT$$LP$syn..token..Else$C$alloc..boxed..Box$LT$syn..expr..Expr$GT$$RP$$GT$$GT$17h60c68b89176741daE', symObjAddr: 0xF20, symBinAddr: 0xACAD0, symSize: 0x50 }
  - { offsetInCU: 0x421E, offset: 0x3EF487, size: 0x8, addend: 0x0, symName: '__ZN4core3ptr1247drop_in_place$LT$core..iter..adapters..flatten..Flatten$LT$core..iter..adapters..map..Map$LT$core..iter..adapters..map..Map$LT$core..iter..adapters..map..Map$LT$core..slice..iter..Iter$LT$syn..error..ErrorMessage$GT$$C$syn..error..ErrorMessage..to_compile_error$GT$$C$$LT$proc_macro2..TokenStream$u20$as$u20$core..iter..traits..collect..FromIterator$LT$proc_macro2..TokenStream$GT$$GT$..from_iter$LT$core..iter..adapters..map..Map$LT$core..slice..iter..Iter$LT$syn..error..ErrorMessage$GT$$C$syn..error..ErrorMessage..to_compile_error$GT$$GT$..$u7b$$u7b$closure$u7d$$u7d$$GT$$C$$LT$proc_macro2..imp..TokenStream$u20$as$u20$core..iter..traits..collect..FromIterator$LT$proc_macro2..imp..TokenStream$GT$$GT$..from_iter$LT$core..iter..adapters..map..Map$LT$core..iter..adapters..map..Map$LT$core..slice..iter..Iter$LT$syn..error..ErrorMessage$GT$$C$syn..error..ErrorMessage..to_compile_error$GT$$C$$LT$proc_macro2..TokenStream$u20$as$u20$core..iter..traits..collect..FromIterator$LT$proc_macro2..TokenStream$GT$$GT$..from_iter$LT$core..iter..adapters..map..Map$LT$core..slice..iter..Iter$LT$syn..error..ErrorMessage$GT$$C$syn..error..ErrorMessage..to_compile_error$GT$$GT$..$u7b$$u7b$closure$u7d$$u7d$$GT$$GT$..$u7b$$u7b$closure$u7d$$u7d$$GT$$GT$$GT$17hbfd06aec0e095371E', symObjAddr: 0xF70, symBinAddr: 0xACB20, symSize: 0x60 }
  - { offsetInCU: 0x43A2, offset: 0x3EF60B, size: 0x8, addend: 0x0, symName: '__ZN4core3ptr126drop_in_place$LT$core..option..Option$LT$$LP$syn..token..And$C$core..option..Option$LT$syn..lifetime..Lifetime$GT$$RP$$GT$$GT$17h45c5d73e12cdf6f0E', symObjAddr: 0xFD0, symBinAddr: 0xACB80, symSize: 0x30 }
  - { offsetInCU: 0x4631, offset: 0x3EF89A, size: 0x8, addend: 0x0, symName: '__ZN4core3ptr33drop_in_place$LT$syn..ty..Abi$GT$17h24b86e0564a98339E', symObjAddr: 0x1000, symBinAddr: 0xACBB0, symSize: 0x70 }
  - { offsetInCU: 0x464D, offset: 0x3EF8B6, size: 0x8, addend: 0x0, symName: '__ZN4core3ptr33drop_in_place$LT$syn..ty..Abi$GT$17h24b86e0564a98339E', symObjAddr: 0x1000, symBinAddr: 0xACBB0, symSize: 0x70 }
  - { offsetInCU: 0x4925, offset: 0x3EFB8E, size: 0x8, addend: 0x0, symName: '__ZN4core3ptr34drop_in_place$LT$syn..lit..Lit$GT$17hd64dde89a262341dE', symObjAddr: 0x1070, symBinAddr: 0xACC20, symSize: 0x120 }
  - { offsetInCU: 0x4E51, offset: 0x3F00BA, size: 0x8, addend: 0x0, symName: '__ZN4core3ptr34drop_in_place$LT$syn..pat..Pat$GT$17hf88887878261d63cE.llvm.14025449986115119833', symObjAddr: 0x1190, symBinAddr: 0xACD40, symSize: 0x11B0 }
  - { offsetInCU: 0x96E1, offset: 0x3F494A, size: 0x8, addend: 0x0, symName: '__ZN4core3ptr34drop_in_place$LT$syn..ty..Type$GT$17ha80dd29b0f9d4a3fE.llvm.14025449986115119833', symObjAddr: 0x2340, symBinAddr: 0xADEF0, symSize: 0x510 }
  - { offsetInCU: 0xA723, offset: 0x3F598C, size: 0x8, addend: 0x0, symName: '__ZN4core3ptr35drop_in_place$LT$syn..expr..Arm$GT$17hd729aea1406305a9E.llvm.14025449986115119833', symObjAddr: 0x2850, symBinAddr: 0xAE400, symSize: 0x170 }
  - { offsetInCU: 0xAD92, offset: 0x3F5FFB, size: 0x8, addend: 0x0, symName: '__ZN4core3ptr36drop_in_place$LT$syn..attr..Meta$GT$17h10362c0b846e6e23E.llvm.14025449986115119833', symObjAddr: 0x29C0, symBinAddr: 0xAE570, symSize: 0x320 }
  - { offsetInCU: 0xBD07, offset: 0x3F6F70, size: 0x8, addend: 0x0, symName: '__ZN4core3ptr36drop_in_place$LT$syn..expr..Expr$GT$17h10f573b40ddd212cE.llvm.14025449986115119833', symObjAddr: 0x2CE0, symBinAddr: 0xAE890, symSize: 0x25E0 }
  - { offsetInCU: 0x158AF, offset: 0x400B18, size: 0x8, addend: 0x0, symName: '__ZN4core3ptr36drop_in_place$LT$syn..item..Item$GT$17haa59cf9e39ab8cebE.llvm.14025449986115119833', symObjAddr: 0x52C0, symBinAddr: 0xB0E70, symSize: 0x17C0 }
  - { offsetInCU: 0x1B2DE, offset: 0x406547, size: 0x8, addend: 0x0, symName: '__ZN4core3ptr36drop_in_place$LT$syn..mac..Macro$GT$17hc3b30a7a8a34cc2dE', symObjAddr: 0x6A80, symBinAddr: 0xB2630, symSize: 0xE0 }
  - { offsetInCU: 0x1B646, offset: 0x4068AF, size: 0x8, addend: 0x0, symName: '__ZN4core3ptr36drop_in_place$LT$syn..path..Path$GT$17h75c74a97d5f0a03bE.llvm.14025449986115119833', symObjAddr: 0x6B60, symBinAddr: 0xB2710, symSize: 0x180 }
  - { offsetInCU: 0x1BC70, offset: 0x406ED9, size: 0x8, addend: 0x0, symName: '__ZN4core3ptr36drop_in_place$LT$syn..stmt..Stmt$GT$17hc4f94563f060e25dE.llvm.14025449986115119833', symObjAddr: 0x6CE0, symBinAddr: 0xB2890, symSize: 0x380 }
  - { offsetInCU: 0x1C8C6, offset: 0x407B2F, size: 0x8, addend: 0x0, symName: '__ZN4core3ptr37drop_in_place$LT$syn..data..Field$GT$17hb03070569ab32babE.llvm.14025449986115119833', symObjAddr: 0x7060, symBinAddr: 0xB2C10, symSize: 0x190 }
  - { offsetInCU: 0x1CEB6, offset: 0x40811F, size: 0x8, addend: 0x0, symName: '__ZN4core3ptr37drop_in_place$LT$syn..item..FnArg$GT$17h470fdeee5cba5e3aE.llvm.14025449986115119833', symObjAddr: 0x71F0, symBinAddr: 0xB2DA0, symSize: 0x230 }
  - { offsetInCU: 0x1D7CD, offset: 0x408A36, size: 0x8, addend: 0x0, symName: '__ZN4core3ptr37drop_in_place$LT$syn..stmt..Block$GT$17h6fc3254d5688f2c3E', symObjAddr: 0x7420, symBinAddr: 0xB2FD0, symSize: 0xD0 }
  - { offsetInCU: 0x1DAAB, offset: 0x408D14, size: 0x8, addend: 0x0, symName: '__ZN4core3ptr38drop_in_place$LT$syn..expr..ExprIf$GT$17ha8d3c2042f45d05fE.llvm.14025449986115119833', symObjAddr: 0x74F0, symBinAddr: 0xB30A0, symSize: 0x1B0 }
  - { offsetInCU: 0x1E385, offset: 0x4095EE, size: 0x8, addend: 0x0, symName: '__ZN4core3ptr38drop_in_place$LT$syn..expr..Member$GT$17h6b0cf84594ce6bceE.llvm.14025449986115119833', symObjAddr: 0x76A0, symBinAddr: 0xB3250, symSize: 0x30 }
  - { offsetInCU: 0x1E481, offset: 0x4096EA, size: 0x8, addend: 0x0, symName: '__ZN4core3ptr38drop_in_place$LT$syn..pat..PatType$GT$17h835dce85ba90235eE.llvm.14025449986115119833', symObjAddr: 0x76D0, symBinAddr: 0xB3280, symSize: 0x140 }
  - { offsetInCU: 0x1EA33, offset: 0x409C9C, size: 0x8, addend: 0x0, symName: '__ZN4core3ptr39drop_in_place$LT$proc_macro2..Ident$GT$17ha28fef9769e267d9E.llvm.14025449986115119833', symObjAddr: 0x7810, symBinAddr: 0xB33C0, symSize: 0x30 }
  - { offsetInCU: 0x1EC46, offset: 0x409EAF, size: 0x8, addend: 0x0, symName: '__ZN4core3ptr39drop_in_place$LT$syn..buffer..Entry$GT$17he93ada413d4474f7E.llvm.14025449986115119833', symObjAddr: 0x7840, symBinAddr: 0xB33F0, symSize: 0xB0 }
  - { offsetInCU: 0x1F02E, offset: 0x40A297, size: 0x8, addend: 0x0, symName: '__ZN4core3ptr39drop_in_place$LT$syn..data..Variant$GT$17h92766dd8637b4069E.llvm.14025449986115119833', symObjAddr: 0x78F0, symBinAddr: 0xB34A0, symSize: 0x2F0 }
  - { offsetInCU: 0x1FCC9, offset: 0x40AF32, size: 0x8, addend: 0x0, symName: '__ZN4core3ptr39drop_in_place$LT$syn..item..UseTree$GT$17h7288572c631f954aE.llvm.14025449986115119833', symObjAddr: 0x7BE0, symBinAddr: 0xB3790, symSize: 0x1E0 }
  - { offsetInCU: 0x20422, offset: 0x40B68B, size: 0x8, addend: 0x0, symName: '__ZN4core3ptr40drop_in_place$LT$syn..item..ImplItem$GT$17h98907b2080b0ccb0E', symObjAddr: 0x7DC0, symBinAddr: 0xB3970, symSize: 0x220 }
  - { offsetInCU: 0x20A6F, offset: 0x40BCD8, size: 0x8, addend: 0x0, symName: '__ZN4core3ptr40drop_in_place$LT$syn..item..Receiver$GT$17h5e68a437c3b8e574E.llvm.14025449986115119833', symObjAddr: 0x7FE0, symBinAddr: 0xB3B90, symSize: 0x130 }
  - { offsetInCU: 0x2106D, offset: 0x40C2D6, size: 0x8, addend: 0x0, symName: '__ZN4core3ptr40drop_in_place$LT$syn..item..Variadic$GT$17hf9d4ebdb0f5e723aE', symObjAddr: 0x8110, symBinAddr: 0xB3CC0, symSize: 0x120 }
  - { offsetInCU: 0x21510, offset: 0x40C779, size: 0x8, addend: 0x0, symName: '__ZN4core3ptr40drop_in_place$LT$syn..ty..ReturnType$GT$17h035a612e322b6510E.llvm.14025449986115119833', symObjAddr: 0x8230, symBinAddr: 0xB3DE0, symSize: 0x50 }
  - { offsetInCU: 0x217D5, offset: 0x40CA3E, size: 0x8, addend: 0x0, symName: '__ZN4core3ptr41drop_in_place$LT$syn..item..Signature$GT$17h41f785211ad8eb02E', symObjAddr: 0x8280, symBinAddr: 0xB3E30, symSize: 0x270 }
  - { offsetInCU: 0x222EA, offset: 0x40D553, size: 0x8, addend: 0x0, symName: '__ZN4core3ptr41drop_in_place$LT$syn..item..TraitItem$GT$17hc74edaa948c160a2E', symObjAddr: 0x84F0, symBinAddr: 0xB40A0, symSize: 0x3D0 }
  - { offsetInCU: 0x22F28, offset: 0x40E191, size: 0x8, addend: 0x0, symName: '__ZN4core3ptr41drop_in_place$LT$syn..stmt..LocalInit$GT$17h30b5fda37459e0baE', symObjAddr: 0x88C0, symBinAddr: 0xB4470, symSize: 0xC0 }
  - { offsetInCU: 0x23218, offset: 0x40E481, size: 0x8, addend: 0x0, symName: '__ZN4core3ptr42drop_in_place$LT$syn..item..ImplItemFn$GT$17haf8f89161f0a8aa1E', symObjAddr: 0x8980, symBinAddr: 0xB4530, symSize: 0x230 }
  - { offsetInCU: 0x239BC, offset: 0x40EC25, size: 0x8, addend: 0x0, symName: '__ZN4core3ptr42drop_in_place$LT$syn..path..Constraint$GT$17h367871d1e7e54db0E', symObjAddr: 0x8BB0, symBinAddr: 0xB4760, symSize: 0x160 }
  - { offsetInCU: 0x23F53, offset: 0x40F1BC, size: 0x8, addend: 0x0, symName: '__ZN4core3ptr43drop_in_place$LT$proc_macro2..TokenTree$GT$17h3cbee0aa221130b6E.llvm.14025449986115119833', symObjAddr: 0x8D10, symBinAddr: 0xB48C0, symSize: 0xB0 }
  - { offsetInCU: 0x242AF, offset: 0x40F518, size: 0x8, addend: 0x0, symName: '__ZN4core3ptr43drop_in_place$LT$syn..data..FieldsNamed$GT$17h56bef6f151514865E', symObjAddr: 0x8DC0, symBinAddr: 0xB4970, symSize: 0x120 }
  - { offsetInCU: 0x24773, offset: 0x40F9DC, size: 0x8, addend: 0x0, symName: '__ZN4core3ptr43drop_in_place$LT$syn..item..ForeignItem$GT$17h8033abfc56dac52fE', symObjAddr: 0x8EE0, symBinAddr: 0xB4A90, symSize: 0x340 }
  - { offsetInCU: 0x25184, offset: 0x4103ED, size: 0x8, addend: 0x0, symName: '__ZN4core3ptr43drop_in_place$LT$syn..path..PathSegment$GT$17h903332e979944cf4E.llvm.14025449986115119833', symObjAddr: 0x9220, symBinAddr: 0xB4DD0, symSize: 0x190 }
  - { offsetInCU: 0x25763, offset: 0x4109CC, size: 0x8, addend: 0x0, symName: '__ZN4core3ptr44drop_in_place$LT$syn..generics..Generics$GT$17h671de917167f8b66E', symObjAddr: 0x93B0, symBinAddr: 0xB4F60, symSize: 0x240 }
  - { offsetInCU: 0x260A4, offset: 0x41130D, size: 0x8, addend: 0x0, symName: '__ZN4core3ptr44drop_in_place$LT$syn..item..ImplItemType$GT$17hb32b6c30c762cdafE', symObjAddr: 0x95F0, symBinAddr: 0xB51A0, symSize: 0x1F0 }
  - { offsetInCU: 0x266B7, offset: 0x411920, size: 0x8, addend: 0x0, symName: '__ZN4core3ptr44drop_in_place$LT$syn..lifetime..Lifetime$GT$17he37fa474f03de7b1E.llvm.14025449986115119833', symObjAddr: 0x97E0, symBinAddr: 0xB5390, symSize: 0x30 }
  - { offsetInCU: 0x26810, offset: 0x411A79, size: 0x8, addend: 0x0, symName: '__ZN4core3ptr45drop_in_place$LT$proc_macro2..TokenStream$GT$17h76e8e68015f4924dE.llvm.14025449986115119833', symObjAddr: 0x9810, symBinAddr: 0xB53C0, symSize: 0x70 }
  - { offsetInCU: 0x26977, offset: 0x411BE0, size: 0x8, addend: 0x0, symName: '__ZN4core3ptr45drop_in_place$LT$syn..generics..TypeParam$GT$17h188a459c1380ac75E.llvm.14025449986115119833', symObjAddr: 0x9880, symBinAddr: 0xB5430, symSize: 0x230 }
  - { offsetInCU: 0x27215, offset: 0x41247E, size: 0x8, addend: 0x0, symName: '__ZN4core3ptr45drop_in_place$LT$syn..item..ImplItemConst$GT$17he161f4752ea1c79dE', symObjAddr: 0x9AB0, symBinAddr: 0xB5660, symSize: 0x210 }
  - { offsetInCU: 0x27866, offset: 0x412ACF, size: 0x8, addend: 0x0, symName: '__ZN4core3ptr45drop_in_place$LT$syn..item..TraitItemType$GT$17h3e36cd56ba987949E', symObjAddr: 0x9CC0, symBinAddr: 0xB5870, symSize: 0x290 }
  - { offsetInCU: 0x281D0, offset: 0x413439, size: 0x8, addend: 0x0, symName: '__ZN4core3ptr45drop_in_place$LT$syn..path..PathArguments$GT$17hdbc6dfac6f3334e6E.llvm.14025449986115119833', symObjAddr: 0x9F50, symBinAddr: 0xB5B00, symSize: 0xB0 }
  - { offsetInCU: 0x283A1, offset: 0x41360A, size: 0x8, addend: 0x0, symName: '__ZN4core3ptr46drop_in_place$LT$$u5b$syn..stmt..Stmt$u5d$$GT$17h24e62e137a325f40E.llvm.14025449986115119833', symObjAddr: 0xA000, symBinAddr: 0xB5BB0, symSize: 0x2F0 }
  - { offsetInCU: 0x28A51, offset: 0x413CBA, size: 0x8, addend: 0x0, symName: '__ZN4core3ptr46drop_in_place$LT$syn..generics..ConstParam$GT$17h7a9b900b2b88bfcdE.llvm.14025449986115119833', symObjAddr: 0xA2F0, symBinAddr: 0xB5EA0, symSize: 0x150 }
  - { offsetInCU: 0x28E7F, offset: 0x4140E8, size: 0x8, addend: 0x0, symName: '__ZN4core3ptr46drop_in_place$LT$syn..item..TraitItemConst$GT$17h1a851cb668e4b13cE', symObjAddr: 0xA440, symBinAddr: 0xB5FF0, symSize: 0x1B0 }
  - { offsetInCU: 0x29360, offset: 0x4145C9, size: 0x8, addend: 0x0, symName: '__ZN4core3ptr47drop_in_place$LT$syn..generics..WhereClause$GT$17h1a748a69ca415614E', symObjAddr: 0xA5F0, symBinAddr: 0xB61A0, symSize: 0x120 }
  - { offsetInCU: 0x297E6, offset: 0x414A4F, size: 0x8, addend: 0x0, symName: '__ZN4core3ptr47drop_in_place$LT$syn..item..ForeignItemType$GT$17ha3462b8591c7bc98E', symObjAddr: 0xA710, symBinAddr: 0xB62C0, symSize: 0x1B0 }
  - { offsetInCU: 0x29E54, offset: 0x4150BD, size: 0x8, addend: 0x0, symName: '__ZN4core3ptr47drop_in_place$LT$syn..path..GenericArgument$GT$17h593f06d6ca9a94d2E.llvm.14025449986115119833', symObjAddr: 0xA8C0, symBinAddr: 0xB6470, symSize: 0x1C0 }
  - { offsetInCU: 0x2A318, offset: 0x415581, size: 0x8, addend: 0x0, symName: '__ZN4core3ptr48drop_in_place$LT$syn..generics..GenericParam$GT$17hd6859d95c1b7c168E.llvm.14025449986115119833', symObjAddr: 0xAA80, symBinAddr: 0xB6630, symSize: 0x150 }
  - { offsetInCU: 0x2A73E, offset: 0x4159A7, size: 0x8, addend: 0x0, symName: '__ZN4core3ptr49drop_in_place$LT$syn..generics..LifetimeParam$GT$17h3a8835ab294bfd16E.llvm.14025449986115119833', symObjAddr: 0xABD0, symBinAddr: 0xB6780, symSize: 0xF0 }
  - { offsetInCU: 0x2AB49, offset: 0x415DB2, size: 0x8, addend: 0x0, symName: '__ZN4core3ptr49drop_in_place$LT$syn..generics..PredicateType$GT$17h28460a55196bd45fE.llvm.14025449986115119833', symObjAddr: 0xACC0, symBinAddr: 0xB6870, symSize: 0x180 }
  - { offsetInCU: 0x2B001, offset: 0x41626A, size: 0x8, addend: 0x0, symName: '__ZN4core3ptr49drop_in_place$LT$syn..item..ForeignItemStatic$GT$17h0b4273b292bce45dE', symObjAddr: 0xAE40, symBinAddr: 0xB69F0, symSize: 0x190 }
  - { offsetInCU: 0x2B703, offset: 0x41696C, size: 0x8, addend: 0x0, symName: '__ZN4core3ptr50drop_in_place$LT$$u5b$syn..item..ImplItem$u5d$$GT$17h9b63e3c09d4f2fecE.llvm.14025449986115119833', symObjAddr: 0xAFD0, symBinAddr: 0xB6B80, symSize: 0x210 }
  - { offsetInCU: 0x2BA77, offset: 0x416CE0, size: 0x8, addend: 0x0, symName: '__ZN4core3ptr50drop_in_place$LT$syn..generics..TypeParamBound$GT$17h81b4325b5900604dE.llvm.14025449986115119833', symObjAddr: 0xB1E0, symBinAddr: 0xB6D90, symSize: 0xA0 }
  - { offsetInCU: 0x2BBFC, offset: 0x416E65, size: 0x8, addend: 0x0, symName: '__ZN4core3ptr50drop_in_place$LT$syn..generics..WherePredicate$GT$17h1dcd41fbf166681cE.llvm.14025449986115119833', symObjAddr: 0xB280, symBinAddr: 0xB6E30, symSize: 0xA0 }
  - { offsetInCU: 0x2BDAC, offset: 0x417015, size: 0x8, addend: 0x0, symName: '__ZN4core3ptr51drop_in_place$LT$$u5b$syn..item..TraitItem$u5d$$GT$17hfac7130e0b19ef2eE.llvm.14025449986115119833', symObjAddr: 0xB320, symBinAddr: 0xB6ED0, symSize: 0x3E0 }
  - { offsetInCU: 0x2C74E, offset: 0x4179B7, size: 0x8, addend: 0x0, symName: '__ZN4core3ptr52drop_in_place$LT$syn..restriction..VisRestricted$GT$17h3b9d7a9742b1c345E', symObjAddr: 0xB700, symBinAddr: 0xB72B0, symSize: 0x50 }
  - { offsetInCU: 0x2C8E5, offset: 0x417B4E, size: 0x8, addend: 0x0, symName: '__ZN4core3ptr53drop_in_place$LT$$u5b$syn..item..ForeignItem$u5d$$GT$17h566f3fc649dbb42bE.llvm.14025449986115119833', symObjAddr: 0xB750, symBinAddr: 0xB7300, symSize: 0x370 }
  - { offsetInCU: 0x2D103, offset: 0x41836C, size: 0x8, addend: 0x0, symName: '__ZN4core3ptr58drop_in_place$LT$alloc..vec..Vec$LT$syn..expr..Arm$GT$$GT$17hff9224aadf2233b8E.llvm.14025449986115119833', symObjAddr: 0xBAE0, symBinAddr: 0xB7670, symSize: 0xD0 }
  - { offsetInCU: 0x2D3CA, offset: 0x418633, size: 0x8, addend: 0x0, symName: '__ZN4core3ptr59drop_in_place$LT$alloc..boxed..Box$LT$syn..pat..Pat$GT$$GT$17h622b0c1db21c0742E.llvm.14025449986115119833', symObjAddr: 0xBBB0, symBinAddr: 0xB7740, symSize: 0x50 }
  - { offsetInCU: 0x2D523, offset: 0x41878C, size: 0x8, addend: 0x0, symName: '__ZN4core3ptr59drop_in_place$LT$alloc..boxed..Box$LT$syn..ty..Type$GT$$GT$17hde45fa887dd8b605E.llvm.14025449986115119833', symObjAddr: 0xBC00, symBinAddr: 0xB7790, symSize: 0x50 }
  - { offsetInCU: 0x2D67C, offset: 0x4188E5, size: 0x8, addend: 0x0, symName: '__ZN4core3ptr59drop_in_place$LT$alloc..vec..Vec$LT$syn..item..Item$GT$$GT$17h8590e8c8e196c3c2E.llvm.14025449986115119833', symObjAddr: 0xBC50, symBinAddr: 0xB77E0, symSize: 0xD0 }
  - { offsetInCU: 0x2D943, offset: 0x418BAC, size: 0x8, addend: 0x0, symName: '__ZN4core3ptr59drop_in_place$LT$alloc..vec..Vec$LT$syn..stmt..Stmt$GT$$GT$17h6cf3e54f41bc03bdE.llvm.14025449986115119833', symObjAddr: 0xBD20, symBinAddr: 0xB78B0, symSize: 0x80 }
  - { offsetInCU: 0x2DBFB, offset: 0x418E64, size: 0x8, addend: 0x0, symName: '__ZN4core3ptr61drop_in_place$LT$alloc..boxed..Box$LT$syn..expr..Expr$GT$$GT$17hbb42293869113942E', symObjAddr: 0xBDA0, symBinAddr: 0xB7930, symSize: 0x50 }
  - { offsetInCU: 0x2DD54, offset: 0x418FBD, size: 0x8, addend: 0x0, symName: '__ZN4core3ptr61drop_in_place$LT$alloc..boxed..Box$LT$syn..path..Path$GT$$GT$17h038a2aea8fe87c28E', symObjAddr: 0xBDF0, symBinAddr: 0xB7980, symSize: 0x100 }
  - { offsetInCU: 0x2E274, offset: 0x4194DD, size: 0x8, addend: 0x0, symName: '__ZN4core3ptr61drop_in_place$LT$syn..path..ParenthesizedGenericArguments$GT$17h6b1731382637937fE', symObjAddr: 0xBEF0, symBinAddr: 0xB7A80, symSize: 0x170 }
  - { offsetInCU: 0x2E871, offset: 0x419ADA, size: 0x8, addend: 0x0, symName: '__ZN4core3ptr62drop_in_place$LT$alloc..boxed..Box$LT$syn..data..Field$GT$$GT$17hd46c7cc6f292f643E', symObjAddr: 0xC060, symBinAddr: 0xB7BF0, symSize: 0x50 }
  - { offsetInCU: 0x2E9E9, offset: 0x419C52, size: 0x8, addend: 0x0, symName: '__ZN4core3ptr62drop_in_place$LT$alloc..boxed..Box$LT$syn..item..FnArg$GT$$GT$17haeb55dec21588d58E', symObjAddr: 0xC0B0, symBinAddr: 0xB7C40, symSize: 0x60 }
  - { offsetInCU: 0x2EB5F, offset: 0x419DC8, size: 0x8, addend: 0x0, symName: '__ZN4core3ptr62drop_in_place$LT$alloc..boxed..Box$LT$syn..stmt..Block$GT$$GT$17h21dcb5adf0237a12E', symObjAddr: 0xC110, symBinAddr: 0xB7CA0, symSize: 0xE0 }
  - { offsetInCU: 0x2EFB6, offset: 0x41A21F, size: 0x8, addend: 0x0, symName: '__ZN4core3ptr62drop_in_place$LT$alloc..vec..Vec$LT$syn..buffer..Entry$GT$$GT$17h17f61a784aa49e8bE.llvm.14025449986115119833', symObjAddr: 0xC1F0, symBinAddr: 0xB7D80, symSize: 0xC0 }
  - { offsetInCU: 0x2F28E, offset: 0x41A4F7, size: 0x8, addend: 0x0, symName: '__ZN4core3ptr62drop_in_place$LT$syn..path..AngleBracketedGenericArguments$GT$17hf8fa172f007a1473E', symObjAddr: 0xC2B0, symBinAddr: 0xB7E40, symSize: 0x120 }
  - { offsetInCU: 0x2F714, offset: 0x41A97D, size: 0x8, addend: 0x0, symName: '__ZN4core3ptr63drop_in_place$LT$alloc..vec..Vec$LT$syn..item..ImplItem$GT$$GT$17hc51fca07e67d35aeE.llvm.14025449986115119833', symObjAddr: 0xC3D0, symBinAddr: 0xB7F60, symSize: 0x80 }
  - { offsetInCU: 0x2F9CC, offset: 0x41AC35, size: 0x8, addend: 0x0, symName: '__ZN4core3ptr64drop_in_place$LT$alloc..boxed..Box$LT$syn..data..Variant$GT$$GT$17h9ea21bed4984fdbcE', symObjAddr: 0xC450, symBinAddr: 0xB7FE0, symSize: 0x50 }
  - { offsetInCU: 0x2FB25, offset: 0x41AD8E, size: 0x8, addend: 0x0, symName: '__ZN4core3ptr64drop_in_place$LT$alloc..boxed..Box$LT$syn..item..UseTree$GT$$GT$17he4d7024582150632E', symObjAddr: 0xC4A0, symBinAddr: 0xB8030, symSize: 0x50 }
  - { offsetInCU: 0x2FCBC, offset: 0x41AF25, size: 0x8, addend: 0x0, symName: '__ZN4core3ptr64drop_in_place$LT$alloc..boxed..Box$LT$syn..pat..FieldPat$GT$$GT$17hbf8f4867d84bd25dE', symObjAddr: 0xC4F0, symBinAddr: 0xB8080, symSize: 0x140 }
  - { offsetInCU: 0x30386, offset: 0x41B5EF, size: 0x8, addend: 0x0, symName: '__ZN4core3ptr64drop_in_place$LT$alloc..boxed..Box$LT$syn..ty..BareFnArg$GT$$GT$17h6be6354eb1d1364dE', symObjAddr: 0xC630, symBinAddr: 0xB81C0, symSize: 0x140 }
  - { offsetInCU: 0x30919, offset: 0x41BB82, size: 0x8, addend: 0x0, symName: '__ZN4core3ptr64drop_in_place$LT$alloc..vec..Vec$LT$syn..attr..Attribute$GT$$GT$17he33e25539d5885aeE.llvm.14025449986115119833', symObjAddr: 0xC770, symBinAddr: 0xB8300, symSize: 0xD0 }
  - { offsetInCU: 0x30C14, offset: 0x41BE7D, size: 0x8, addend: 0x0, symName: '__ZN4core3ptr64drop_in_place$LT$alloc..vec..Vec$LT$syn..item..TraitItem$GT$$GT$17hff1cc01ccae80d7aE.llvm.14025449986115119833', symObjAddr: 0xC840, symBinAddr: 0xB83D0, symSize: 0x80 }
  - { offsetInCU: 0x30ECC, offset: 0x41C135, size: 0x8, addend: 0x0, symName: '__ZN4core3ptr65drop_in_place$LT$$LP$syn..item..FnArg$C$syn..token..Comma$RP$$GT$17heafa789770a727bbE.llvm.14025449986115119833', symObjAddr: 0xC8C0, symBinAddr: 0xB8450, symSize: 0x20 }
  - { offsetInCU: 0x30F65, offset: 0x41C1CE, size: 0x8, addend: 0x0, symName: '__ZN4core3ptr65drop_in_place$LT$alloc..vec..Vec$LT$proc_macro..TokenTree$GT$$GT$17h8abd81f8596dbc59E.llvm.14025449986115119833', symObjAddr: 0xC8E0, symBinAddr: 0xB8470, symSize: 0x110 }
  - { offsetInCU: 0x31377, offset: 0x41C5E0, size: 0x8, addend: 0x0, symName: '__ZN4core3ptr65drop_in_place$LT$core..option..Option$LT$syn..expr..Label$GT$$GT$17hac599686b33ef364E', symObjAddr: 0xC9F0, symBinAddr: 0xB8580, symSize: 0x30 }
  - { offsetInCU: 0x314B1, offset: 0x41C71A, size: 0x8, addend: 0x0, symName: '__ZN4core3ptr65drop_in_place$LT$core..option..Option$LT$syn..stmt..Block$GT$$GT$17h74f2551ed24e2d27E', symObjAddr: 0xCA20, symBinAddr: 0xB85B0, symSize: 0xD0 }
  - { offsetInCU: 0x317C4, offset: 0x41CA2D, size: 0x8, addend: 0x0, symName: '__ZN4core3ptr66drop_in_place$LT$alloc..vec..Vec$LT$proc_macro2..TokenTree$GT$$GT$17hddd511686bdb58d1E', symObjAddr: 0xCAF0, symBinAddr: 0xB8680, symSize: 0xC0 }
  - { offsetInCU: 0x31A9C, offset: 0x41CD05, size: 0x8, addend: 0x0, symName: '__ZN4core3ptr66drop_in_place$LT$alloc..vec..Vec$LT$syn..item..ForeignItem$GT$$GT$17h1f176e04eaf5e0dfE.llvm.14025449986115119833', symObjAddr: 0xCBB0, symBinAddr: 0xB8740, symSize: 0x80 }
  - { offsetInCU: 0x31D54, offset: 0x41CFBD, size: 0x8, addend: 0x0, symName: '__ZN4core3ptr67drop_in_place$LT$$LP$syn..pat..FieldPat$C$syn..token..Comma$RP$$GT$17h27317b85bbb0d5a5E.llvm.14025449986115119833', symObjAddr: 0xCC30, symBinAddr: 0xB87C0, symSize: 0x120 }
  - { offsetInCU: 0x322EA, offset: 0x41D553, size: 0x8, addend: 0x0, symName: '__ZN4core3ptr67drop_in_place$LT$$LP$syn..ty..BareFnArg$C$syn..token..Comma$RP$$GT$17h983f3d51957c3a07E.llvm.14025449986115119833', symObjAddr: 0xCD50, symBinAddr: 0xB88E0, symSize: 0x110 }
  - { offsetInCU: 0x32769, offset: 0x41D9D2, size: 0x8, addend: 0x0, symName: '__ZN4core3ptr67drop_in_place$LT$alloc..boxed..Box$LT$syn..expr..FieldValue$GT$$GT$17hbbcf67a9d5e9863cE', symObjAddr: 0xCE60, symBinAddr: 0xB89F0, symSize: 0x140 }
  - { offsetInCU: 0x32CDC, offset: 0x41DF45, size: 0x8, addend: 0x0, symName: '__ZN4core3ptr68drop_in_place$LT$alloc..boxed..Box$LT$syn..path..PathSegment$GT$$GT$17h99aaf90b3262bc1eE', symObjAddr: 0xCFA0, symBinAddr: 0xB8B30, symSize: 0xF0 }
  - { offsetInCU: 0x330DE, offset: 0x41E347, size: 0x8, addend: 0x0, symName: '__ZN4core3ptr69drop_in_place$LT$core..option..Option$LT$syn..stmt..LocalInit$GT$$GT$17h0978f9ea6e6b3bd1E', symObjAddr: 0xD120, symBinAddr: 0xB8C20, symSize: 0xC0 }
  - { offsetInCU: 0x33402, offset: 0x41E66B, size: 0x8, addend: 0x0, symName: '__ZN4core3ptr70drop_in_place$LT$$LP$syn..expr..FieldValue$C$syn..token..Comma$RP$$GT$17h7bfdad78936e9ce8E.llvm.14025449986115119833', symObjAddr: 0xD1E0, symBinAddr: 0xB8CE0, symSize: 0x110 }
  - { offsetInCU: 0x33842, offset: 0x41EAAB, size: 0x8, addend: 0x0, symName: '__ZN4core3ptr70drop_in_place$LT$core..option..Option$LT$syn..ty..BareVariadic$GT$$GT$17h79a19250e9f043b1E', symObjAddr: 0xD2F0, symBinAddr: 0xB8DF0, symSize: 0x100 }
  - { offsetInCU: 0x33CA1, offset: 0x41EF0A, size: 0x8, addend: 0x0, symName: '__ZN4core3ptr72drop_in_place$LT$alloc..boxed..Box$LT$syn..path..GenericArgument$GT$$GT$17hfd308d374af4273dE.llvm.14025449986115119833', symObjAddr: 0xD3F0, symBinAddr: 0xB8EF0, symSize: 0x190 }
  - { offsetInCU: 0x34169, offset: 0x41F3D2, size: 0x8, addend: 0x0, symName: '__ZN4core3ptr73drop_in_place$LT$$LP$syn..path..PathSegment$C$syn..token..PathSep$RP$$GT$17he36d39e19c04f3acE.llvm.14025449986115119833', symObjAddr: 0xD580, symBinAddr: 0xB9080, symSize: 0xD0 }
  - { offsetInCU: 0x3442C, offset: 0x41F695, size: 0x8, addend: 0x0, symName: '__ZN4core3ptr73drop_in_place$LT$alloc..boxed..Box$LT$syn..generics..GenericParam$GT$$GT$17ha26d5d145af4b203E', symObjAddr: 0xD650, symBinAddr: 0xB9150, symSize: 0x80 }
  - { offsetInCU: 0x345A2, offset: 0x41F80B, size: 0x8, addend: 0x0, symName: '__ZN4core3ptr75drop_in_place$LT$$LP$syn..path..GenericArgument$C$syn..token..Comma$RP$$GT$17hfc5ffe6787775104E.llvm.14025449986115119833', symObjAddr: 0xD6D0, symBinAddr: 0xB91D0, symSize: 0x180 }
  - { offsetInCU: 0x34930, offset: 0x41FB99, size: 0x8, addend: 0x0, symName: '__ZN4core3ptr75drop_in_place$LT$alloc..boxed..Box$LT$syn..generics..TypeParamBound$GT$$GT$17h129a4e927e5eb81bE', symObjAddr: 0xD850, symBinAddr: 0xB9350, symSize: 0x180 }
  - { offsetInCU: 0x34EFA, offset: 0x420163, size: 0x8, addend: 0x0, symName: '__ZN4core3ptr75drop_in_place$LT$alloc..boxed..Box$LT$syn..generics..WherePredicate$GT$$GT$17h9bdeede2dbadbeb6E', symObjAddr: 0xD9D0, symBinAddr: 0xB94D0, symSize: 0x80 }
  - { offsetInCU: 0x35191, offset: 0x4203FA, size: 0x8, addend: 0x0, symName: '__ZN4core3ptr76drop_in_place$LT$$LP$syn..generics..GenericParam$C$syn..token..Comma$RP$$GT$17hfa938bd7ff9e78c2E.llvm.14025449986115119833', symObjAddr: 0xDA50, symBinAddr: 0xB9550, symSize: 0x40 }
  - { offsetInCU: 0x351CD, offset: 0x420436, size: 0x8, addend: 0x0, symName: '__ZN4core3ptr77drop_in_place$LT$$LP$syn..generics..TypeParamBound$C$syn..token..Plus$RP$$GT$17h900d162b03245e2aE.llvm.14025449986115119833', symObjAddr: 0xDA90, symBinAddr: 0xB9590, symSize: 0x180 }
  - { offsetInCU: 0x35669, offset: 0x4208D2, size: 0x8, addend: 0x0, symName: '__ZN4core3ptr78drop_in_place$LT$$LP$syn..generics..WherePredicate$C$syn..token..Comma$RP$$GT$17hdfe19ac5c370d71bE.llvm.14025449986115119833', symObjAddr: 0xDC10, symBinAddr: 0xB9710, symSize: 0x60 }
  - { offsetInCU: 0x35823, offset: 0x420A8C, size: 0x8, addend: 0x0, symName: '__ZN4core3ptr82drop_in_place$LT$alloc..vec..Vec$LT$$LP$syn..pat..Pat$C$syn..token..Or$RP$$GT$$GT$17h1f0f428d7b2d8011E.llvm.14025449986115119833', symObjAddr: 0xDC70, symBinAddr: 0xB9770, symSize: 0x0 }
  - { offsetInCU: 0x35B22, offset: 0x420D8B, size: 0x8, addend: 0x0, symName: '__ZN4core3ptr85drop_in_place$LT$alloc..vec..Vec$LT$$LP$syn..ty..Type$C$syn..token..Comma$RP$$GT$$GT$17h0cf4844ea7ad9568E.llvm.14025449986115119833', symObjAddr: 0xDD40, symBinAddr: 0xB9840, symSize: 0xD0 }
  - { offsetInCU: 0x35E1D, offset: 0x421086, size: 0x8, addend: 0x0, symName: '__ZN4core3ptr86drop_in_place$LT$$LP$syn..token..If$C$alloc..boxed..Box$LT$syn..expr..Expr$GT$$RP$$GT$17hf09fe3e5c3a4feb0E', symObjAddr: 0xDE10, symBinAddr: 0xB9910, symSize: 0x50 }
  - { offsetInCU: 0x35FD3, offset: 0x42123C, size: 0x8, addend: 0x0, symName: '__ZN4core3ptr86drop_in_place$LT$syn..punctuated..Punctuated$LT$syn..pat..Pat$C$syn..token..Or$GT$$GT$17h9cc6b5f7b6d3a555E', symObjAddr: 0xDE60, symBinAddr: 0xB9960, symSize: 0x120 }
  - { offsetInCU: 0x3646C, offset: 0x4216D5, size: 0x8, addend: 0x0, symName: '__ZN4core3ptr87drop_in_place$LT$$LP$alloc..boxed..Box$LT$syn..pat..Pat$GT$$C$syn..token..Colon$RP$$GT$17h1f05e7b69125af95E', symObjAddr: 0xDF80, symBinAddr: 0xB9A80, symSize: 0x50 }
  - { offsetInCU: 0x36641, offset: 0x4218AA, size: 0x8, addend: 0x0, symName: '__ZN4core3ptr87drop_in_place$LT$alloc..vec..Vec$LT$$LP$syn..expr..Expr$C$syn..token..Comma$RP$$GT$$GT$17hd1036fba4025974bE.llvm.14025449986115119833', symObjAddr: 0xDFD0, symBinAddr: 0xB9AD0, symSize: 0xD0 }
  - { offsetInCU: 0x3693C, offset: 0x421BA5, size: 0x8, addend: 0x0, symName: '__ZN4core3ptr87drop_in_place$LT$core..option..Option$LT$alloc..boxed..Box$LT$syn..ty..Type$GT$$GT$$GT$17h103a25a4a7d7374eE', symObjAddr: 0xE0A0, symBinAddr: 0xB9BA0, symSize: 0x50 }
  - { offsetInCU: 0x36AAC, offset: 0x421D15, size: 0x8, addend: 0x0, symName: '__ZN4core3ptr88drop_in_place$LT$alloc..vec..Vec$LT$$LP$syn..data..Field$C$syn..token..Comma$RP$$GT$$GT$17h066c67d26ce3e154E.llvm.14025449986115119833', symObjAddr: 0xE0F0, symBinAddr: 0xB9BF0, symSize: 0xD0 }
  - { offsetInCU: 0x36DAB, offset: 0x422014, size: 0x8, addend: 0x0, symName: '__ZN4core3ptr88drop_in_place$LT$alloc..vec..Vec$LT$$LP$syn..item..FnArg$C$syn..token..Comma$RP$$GT$$GT$17he8d49cd20c575884E.llvm.14025449986115119833', symObjAddr: 0xE1C0, symBinAddr: 0xB9CC0, symSize: 0xC0 }
  - { offsetInCU: 0x370A4, offset: 0x42230D, size: 0x8, addend: 0x0, symName: '__ZN4core3ptr89drop_in_place$LT$core..option..Option$LT$alloc..boxed..Box$LT$syn..expr..Expr$GT$$GT$$GT$17h9e02509cb2345d44E', symObjAddr: 0xE280, symBinAddr: 0xB9D80, symSize: 0x50 }
  - { offsetInCU: 0x37214, offset: 0x42247D, size: 0x8, addend: 0x0, symName: '__ZN4core3ptr89drop_in_place$LT$syn..punctuated..Punctuated$LT$syn..ty..Type$C$syn..token..Comma$GT$$GT$17he030c4b7f24a5848E.llvm.14025449986115119833', symObjAddr: 0xE2D0, symBinAddr: 0xB9DD0, symSize: 0x120 }
  - { offsetInCU: 0x376F3, offset: 0x42295C, size: 0x8, addend: 0x0, symName: '__ZN4core3ptr90drop_in_place$LT$alloc..vec..Vec$LT$$LP$syn..data..Variant$C$syn..token..Comma$RP$$GT$$GT$17h3ac8ecccf673c389E.llvm.14025449986115119833', symObjAddr: 0xE3F0, symBinAddr: 0xB9EF0, symSize: 0xD0 }
  - { offsetInCU: 0x379EE, offset: 0x422C57, size: 0x8, addend: 0x0, symName: '__ZN4core3ptr90drop_in_place$LT$alloc..vec..Vec$LT$$LP$syn..item..UseTree$C$syn..token..Comma$RP$$GT$$GT$17h1e4fface25e12fe6E.llvm.14025449986115119833', symObjAddr: 0xE4C0, symBinAddr: 0xB9FC0, symSize: 0xD0 }
  - { offsetInCU: 0x37D29, offset: 0x422F92, size: 0x8, addend: 0x0, symName: '__ZN4core3ptr90drop_in_place$LT$alloc..vec..Vec$LT$$LP$syn..pat..FieldPat$C$syn..token..Comma$RP$$GT$$GT$17h4d0a520927a96123E.llvm.14025449986115119833', symObjAddr: 0xE590, symBinAddr: 0xBA090, symSize: 0xD0 }
  - { offsetInCU: 0x38030, offset: 0x423299, size: 0x8, addend: 0x0, symName: '__ZN4core3ptr90drop_in_place$LT$alloc..vec..Vec$LT$$LP$syn..ty..BareFnArg$C$syn..token..Comma$RP$$GT$$GT$17h86271563b6e0e7d6E.llvm.14025449986115119833', symObjAddr: 0xE660, symBinAddr: 0xBA160, symSize: 0xD0 }
  - { offsetInCU: 0x382FB, offset: 0x423564, size: 0x8, addend: 0x0, symName: '__ZN4core3ptr90drop_in_place$LT$core..option..Option$LT$alloc..boxed..Box$LT$syn..data..Field$GT$$GT$$GT$17h9f1aee8cd56c6727E', symObjAddr: 0xE730, symBinAddr: 0xBA230, symSize: 0x50 }
  - { offsetInCU: 0x3846B, offset: 0x4236D4, size: 0x8, addend: 0x0, symName: '__ZN4core3ptr90drop_in_place$LT$core..option..Option$LT$alloc..boxed..Box$LT$syn..item..FnArg$GT$$GT$$GT$17h8635495a730dc0bfE', symObjAddr: 0xE780, symBinAddr: 0xBA280, symSize: 0x50 }
  - { offsetInCU: 0x385FA, offset: 0x423863, size: 0x8, addend: 0x0, symName: '__ZN4core3ptr91drop_in_place$LT$syn..punctuated..Punctuated$LT$syn..expr..Expr$C$syn..token..Comma$GT$$GT$17h6f261e8f470c81f2E', symObjAddr: 0xE7D0, symBinAddr: 0xBA2D0, symSize: 0x120 }
  - { offsetInCU: 0x38A8F, offset: 0x423CF8, size: 0x8, addend: 0x0, symName: '__ZN4core3ptr92drop_in_place$LT$core..option..Option$LT$$LP$syn..token..As$C$proc_macro2..Ident$RP$$GT$$GT$17h12a88945917fa9dbE', symObjAddr: 0xE8F0, symBinAddr: 0xBA3F0, symSize: 0x30 }
  - { offsetInCU: 0x38BAA, offset: 0x423E13, size: 0x8, addend: 0x0, symName: '__ZN4core3ptr92drop_in_place$LT$syn..punctuated..Punctuated$LT$syn..data..Field$C$syn..token..Comma$GT$$GT$17hf8968831c552f88dE', symObjAddr: 0xE920, symBinAddr: 0xBA420, symSize: 0x120 }
  - { offsetInCU: 0x39030, offset: 0x424299, size: 0x8, addend: 0x0, symName: '__ZN4core3ptr92drop_in_place$LT$syn..punctuated..Punctuated$LT$syn..item..FnArg$C$syn..token..Comma$GT$$GT$17h7de33e77eabaea82E', symObjAddr: 0xEA40, symBinAddr: 0xBA540, symSize: 0x150 }
  - { offsetInCU: 0x394FF, offset: 0x424768, size: 0x8, addend: 0x0, symName: '__ZN4core3ptr93drop_in_place$LT$alloc..vec..Vec$LT$$LP$syn..expr..FieldValue$C$syn..token..Comma$RP$$GT$$GT$17hf889827bae7d8b64E.llvm.14025449986115119833', symObjAddr: 0xEB90, symBinAddr: 0xBA690, symSize: 0xD0 }
  - { offsetInCU: 0x39823, offset: 0x424A8C, size: 0x8, addend: 0x0, symName: '__ZN4core3ptr94drop_in_place$LT$alloc..vec..Vec$LT$$LP$syn..lifetime..Lifetime$C$syn..token..Plus$RP$$GT$$GT$17h446c63e6d8248f75E.llvm.14025449986115119833', symObjAddr: 0xEC60, symBinAddr: 0xBA760, symSize: 0x90 }
  - { offsetInCU: 0x39B24, offset: 0x424D8D, size: 0x8, addend: 0x0, symName: '__ZN4core3ptr94drop_in_place$LT$syn..punctuated..Punctuated$LT$syn..data..Variant$C$syn..token..Comma$GT$$GT$17h310cd79aba4529ccE', symObjAddr: 0xECF0, symBinAddr: 0xBA7F0, symSize: 0x120 }
  - { offsetInCU: 0x39FF7, offset: 0x425260, size: 0x8, addend: 0x0, symName: '__ZN4core3ptr94drop_in_place$LT$syn..punctuated..Punctuated$LT$syn..pat..FieldPat$C$syn..token..Comma$GT$$GT$17h43ec25af986ef674E', symObjAddr: 0xEE10, symBinAddr: 0xBA910, symSize: 0xF0 }
  - { offsetInCU: 0x3A34E, offset: 0x4255B7, size: 0x8, addend: 0x0, symName: '__ZN4core3ptr94drop_in_place$LT$syn..punctuated..Punctuated$LT$syn..ty..BareFnArg$C$syn..token..Comma$GT$$GT$17h7ba4c699ee390ebaE', symObjAddr: 0xEF00, symBinAddr: 0xBAA00, symSize: 0xF0 }
  - { offsetInCU: 0x3A669, offset: 0x4258D2, size: 0x8, addend: 0x0, symName: '__ZN4core3ptr95drop_in_place$LT$core..option..Option$LT$$LP$proc_macro2..Ident$C$syn..token..Colon$RP$$GT$$GT$17h59fe297999aa3329E.llvm.14025449986115119833', symObjAddr: 0xEFF0, symBinAddr: 0xBAAF0, symSize: 0x30 }
  - { offsetInCU: 0x3A784, offset: 0x4259ED, size: 0x8, addend: 0x0, symName: '__ZN4core3ptr96drop_in_place$LT$alloc..vec..Vec$LT$$LP$syn..path..PathSegment$C$syn..token..PathSep$RP$$GT$$GT$17h69d97f03bb66469bE.llvm.14025449986115119833', symObjAddr: 0xF020, symBinAddr: 0xBAB20, symSize: 0xD0 }
  - { offsetInCU: 0x3AA81, offset: 0x425CEA, size: 0x8, addend: 0x0, symName: '__ZN4core3ptr96drop_in_place$LT$core..option..Option$LT$alloc..boxed..Box$LT$syn..path..PathSegment$GT$$GT$$GT$17h5de12a5a0f9e9ef9E', symObjAddr: 0xF0F0, symBinAddr: 0xBABF0, symSize: 0xA0 }
  - { offsetInCU: 0x3AD5D, offset: 0x425FC6, size: 0x8, addend: 0x0, symName: '__ZN4core3ptr97drop_in_place$LT$syn..punctuated..Punctuated$LT$syn..expr..FieldValue$C$syn..token..Comma$GT$$GT$17hf58d0a9a09266ab3E', symObjAddr: 0xF1E0, symBinAddr: 0xBAC90, symSize: 0xF0 }
  - { offsetInCU: 0x3B074, offset: 0x4262DD, size: 0x8, addend: 0x0, symName: '__ZN4core3ptr98drop_in_place$LT$alloc..vec..Vec$LT$$LP$syn..path..GenericArgument$C$syn..token..Comma$RP$$GT$$GT$17h0dee282a026d5a38E.llvm.14025449986115119833', symObjAddr: 0xF2D0, symBinAddr: 0xBAD80, symSize: 0xD0 }
  - { offsetInCU: 0x3B3B1, offset: 0x42661A, size: 0x8, addend: 0x0, symName: '__ZN4core3ptr98drop_in_place$LT$syn..punctuated..Punctuated$LT$syn..lifetime..Lifetime$C$syn..token..Plus$GT$$GT$17h600c2b78f78fd2b9E.llvm.14025449986115119833', symObjAddr: 0xF3A0, symBinAddr: 0xBAE50, symSize: 0xD0 }
  - { offsetInCU: 0x3B823, offset: 0x426A8C, size: 0x8, addend: 0x0, symName: '__ZN4core3ptr99drop_in_place$LT$alloc..vec..Vec$LT$$LP$syn..generics..GenericParam$C$syn..token..Comma$RP$$GT$$GT$17haeaa257234ab8b89E.llvm.14025449986115119833', symObjAddr: 0xF470, symBinAddr: 0xBAF20, symSize: 0xD0 }
  - { offsetInCU: 0x3BEC5, offset: 0x42712E, size: 0x8, addend: 0x0, symName: '__ZN42_$LT$$RF$T$u20$as$u20$core..fmt..Debug$GT$3fmt17hd75f14d0cf92e165E', symObjAddr: 0x220, symBinAddr: 0xABDD0, symSize: 0x80 }
  - { offsetInCU: 0x41088, offset: 0x42C2F1, size: 0x8, addend: 0x0, symName: '__ZN48_$LT$T$u20$as$u20$core..clone..CloneToUninit$GT$15clone_to_uninit17h573d7a4ee27ed36aE', symObjAddr: 0x2A0, symBinAddr: 0xABE50, symSize: 0x330 }
  - { offsetInCU: 0x42559, offset: 0x42D7C2, size: 0x8, addend: 0x0, symName: '__ZN136_$LT$alloc..vec..Vec$LT$T$C$A$GT$$u20$as$u20$alloc..vec..spec_extend..SpecExtend$LT$T$C$alloc..vec..into_iter..IntoIter$LT$T$GT$$GT$$GT$11spec_extend17hccc28cc1a2272c75E', symObjAddr: 0x100, symBinAddr: 0xABD30, symSize: 0xA0 }
  - { offsetInCU: 0x4288A, offset: 0x42DAF3, size: 0x8, addend: 0x0, symName: '__ZN97_$LT$alloc..vec..Vec$LT$T$C$A$GT$$u20$as$u20$alloc..vec..spec_extend..SpecExtend$LT$T$C$I$GT$$GT$11spec_extend17ha7b17e62345c5d54E', symObjAddr: 0x13200, symBinAddr: 0xBD4F0, symSize: 0x330 }
  - { offsetInCU: 0x43713, offset: 0x42E97C, size: 0x8, addend: 0x0, symName: '__ZN65_$LT$alloc..vec..Vec$LT$T$C$A$GT$$u20$as$u20$core..fmt..Debug$GT$3fmt17h54a5de57d1ec4d2eE', symObjAddr: 0xF890, symBinAddr: 0xBB080, symSize: 0x80 }
  - { offsetInCU: 0x438F5, offset: 0x42EB5E, size: 0x8, addend: 0x0, symName: '__ZN65_$LT$alloc..vec..Vec$LT$T$C$A$GT$$u20$as$u20$core..fmt..Debug$GT$3fmt17h7df35ea0f5de10d6E', symObjAddr: 0xFA90, symBinAddr: 0xBB100, symSize: 0x80 }
  - { offsetInCU: 0x43B0A, offset: 0x42ED73, size: 0x8, addend: 0x0, symName: '__ZN67_$LT$alloc..vec..Vec$LT$T$C$A$GT$$u20$as$u20$core..clone..Clone$GT$5clone17h0918c192fa05002fE', symObjAddr: 0xFC70, symBinAddr: 0xBB180, symSize: 0x0 }
  - { offsetInCU: 0x43F3D, offset: 0x42F1A6, size: 0x8, addend: 0x0, symName: '__ZN67_$LT$alloc..vec..Vec$LT$T$C$A$GT$$u20$as$u20$core..clone..Clone$GT$5clone17h12f34926ea9f1126E', symObjAddr: 0xFDC0, symBinAddr: 0xBB2D0, symSize: 0x140 }
  - { offsetInCU: 0x4436F, offset: 0x42F5D8, size: 0x8, addend: 0x0, symName: '__ZN67_$LT$alloc..vec..Vec$LT$T$C$A$GT$$u20$as$u20$core..clone..Clone$GT$5clone17h198f7ad4e9731601E', symObjAddr: 0xFF00, symBinAddr: 0xBB410, symSize: 0x150 }
  - { offsetInCU: 0x447A2, offset: 0x42FA0B, size: 0x8, addend: 0x0, symName: '__ZN67_$LT$alloc..vec..Vec$LT$T$C$A$GT$$u20$as$u20$core..clone..Clone$GT$5clone17h1c4556f52f9d0d47E', symObjAddr: 0x10050, symBinAddr: 0xBB560, symSize: 0x140 }
  - { offsetInCU: 0x44B7F, offset: 0x42FDE8, size: 0x8, addend: 0x0, symName: '__ZN67_$LT$alloc..vec..Vec$LT$T$C$A$GT$$u20$as$u20$core..clone..Clone$GT$5clone17h231253a81e7a58bbE', symObjAddr: 0x10190, symBinAddr: 0xBB6A0, symSize: 0x140 }
  - { offsetInCU: 0x44FB2, offset: 0x43021B, size: 0x8, addend: 0x0, symName: '__ZN67_$LT$alloc..vec..Vec$LT$T$C$A$GT$$u20$as$u20$core..clone..Clone$GT$5clone17h26458e8ef80c3a9bE', symObjAddr: 0x102D0, symBinAddr: 0xBB7E0, symSize: 0x150 }
  - { offsetInCU: 0x453E5, offset: 0x43064E, size: 0x8, addend: 0x0, symName: '__ZN67_$LT$alloc..vec..Vec$LT$T$C$A$GT$$u20$as$u20$core..clone..Clone$GT$5clone17h2b24796f45520c7bE', symObjAddr: 0x10420, symBinAddr: 0xBB930, symSize: 0x140 }
  - { offsetInCU: 0x457C2, offset: 0x430A2B, size: 0x8, addend: 0x0, symName: '__ZN67_$LT$alloc..vec..Vec$LT$T$C$A$GT$$u20$as$u20$core..clone..Clone$GT$5clone17h2f79e88de7934928E', symObjAddr: 0x10560, symBinAddr: 0xBBA70, symSize: 0x140 }
  - { offsetInCU: 0x45B9F, offset: 0x430E08, size: 0x8, addend: 0x0, symName: '__ZN67_$LT$alloc..vec..Vec$LT$T$C$A$GT$$u20$as$u20$core..clone..Clone$GT$5clone17h31bc48edccfa1915E', symObjAddr: 0x106A0, symBinAddr: 0xBBBB0, symSize: 0x240 }
  - { offsetInCU: 0x461C0, offset: 0x431429, size: 0x8, addend: 0x0, symName: '__ZN67_$LT$alloc..vec..Vec$LT$T$C$A$GT$$u20$as$u20$core..clone..Clone$GT$5clone17h363befc284095627E', symObjAddr: 0x108E0, symBinAddr: 0xBBDF0, symSize: 0x150 }
  - { offsetInCU: 0x465F3, offset: 0x43185C, size: 0x8, addend: 0x0, symName: '__ZN67_$LT$alloc..vec..Vec$LT$T$C$A$GT$$u20$as$u20$core..clone..Clone$GT$5clone17h4573a12392f30b82E', symObjAddr: 0x10A30, symBinAddr: 0xBBF40, symSize: 0x1A0 }
  - { offsetInCU: 0x46A7F, offset: 0x431CE8, size: 0x8, addend: 0x0, symName: '__ZN67_$LT$alloc..vec..Vec$LT$T$C$A$GT$$u20$as$u20$core..clone..Clone$GT$5clone17h66d29e7a7f7f75a3E', symObjAddr: 0x10BD0, symBinAddr: 0xBC0E0, symSize: 0x140 }
  - { offsetInCU: 0x46E5C, offset: 0x4320C5, size: 0x8, addend: 0x0, symName: '__ZN67_$LT$alloc..vec..Vec$LT$T$C$A$GT$$u20$as$u20$core..clone..Clone$GT$5clone17h6e06f5a531199142E', symObjAddr: 0x10D10, symBinAddr: 0xBC220, symSize: 0x180 }
  - { offsetInCU: 0x47334, offset: 0x43259D, size: 0x8, addend: 0x0, symName: '__ZN67_$LT$alloc..vec..Vec$LT$T$C$A$GT$$u20$as$u20$core..clone..Clone$GT$5clone17h7130fcf6814bc045E', symObjAddr: 0x10E90, symBinAddr: 0xBC3A0, symSize: 0x150 }
  - { offsetInCU: 0x47767, offset: 0x4329D0, size: 0x8, addend: 0x0, symName: '__ZN67_$LT$alloc..vec..Vec$LT$T$C$A$GT$$u20$as$u20$core..clone..Clone$GT$5clone17h7665f3814d75ccf2E', symObjAddr: 0x10FE0, symBinAddr: 0xBC4F0, symSize: 0x150 }
  - { offsetInCU: 0x47B9A, offset: 0x432E03, size: 0x8, addend: 0x0, symName: '__ZN67_$LT$alloc..vec..Vec$LT$T$C$A$GT$$u20$as$u20$core..clone..Clone$GT$5clone17h81c8c2fa81ddf714E', symObjAddr: 0x11130, symBinAddr: 0xBC640, symSize: 0x160 }
  - { offsetInCU: 0x4800E, offset: 0x433277, size: 0x8, addend: 0x0, symName: '__ZN67_$LT$alloc..vec..Vec$LT$T$C$A$GT$$u20$as$u20$core..clone..Clone$GT$5clone17h95e57492d3a10cc0E', symObjAddr: 0x113F0, symBinAddr: 0xBC7A0, symSize: 0x140 }
  - { offsetInCU: 0x483EB, offset: 0x433654, size: 0x8, addend: 0x0, symName: '__ZN67_$LT$alloc..vec..Vec$LT$T$C$A$GT$$u20$as$u20$core..clone..Clone$GT$5clone17ha4bb515f2984f91aE', symObjAddr: 0x11530, symBinAddr: 0xBC8E0, symSize: 0x150 }
  - { offsetInCU: 0x4881E, offset: 0x433A87, size: 0x8, addend: 0x0, symName: '__ZN67_$LT$alloc..vec..Vec$LT$T$C$A$GT$$u20$as$u20$core..clone..Clone$GT$5clone17haa8bb6b2679cb284E', symObjAddr: 0x11680, symBinAddr: 0xBCA30, symSize: 0x240 }
  - { offsetInCU: 0x48E17, offset: 0x434080, size: 0x8, addend: 0x0, symName: '__ZN67_$LT$alloc..vec..Vec$LT$T$C$A$GT$$u20$as$u20$core..clone..Clone$GT$5clone17hbc42148281c8a2c5E', symObjAddr: 0x118C0, symBinAddr: 0xBCC70, symSize: 0x150 }
  - { offsetInCU: 0x4924A, offset: 0x4344B3, size: 0x8, addend: 0x0, symName: '__ZN67_$LT$alloc..vec..Vec$LT$T$C$A$GT$$u20$as$u20$core..clone..Clone$GT$5clone17hdea0838f2711b888E', symObjAddr: 0x11A10, symBinAddr: 0xBCDC0, symSize: 0x180 }
  - { offsetInCU: 0x4974C, offset: 0x4349B5, size: 0x8, addend: 0x0, symName: '__ZN67_$LT$alloc..vec..Vec$LT$T$C$A$GT$$u20$as$u20$core..clone..Clone$GT$5clone17he6fccb5bd9282467E', symObjAddr: 0x11B90, symBinAddr: 0xBCF40, symSize: 0x150 }
  - { offsetInCU: 0x49B7F, offset: 0x434DE8, size: 0x8, addend: 0x0, symName: '__ZN67_$LT$alloc..vec..Vec$LT$T$C$A$GT$$u20$as$u20$core..clone..Clone$GT$5clone17hfc43050c7448a50aE', symObjAddr: 0x11CE0, symBinAddr: 0xBD090, symSize: 0x140 }
  - { offsetInCU: 0x49F5C, offset: 0x4351C5, size: 0x8, addend: 0x0, symName: '__ZN67_$LT$alloc..vec..Vec$LT$T$C$A$GT$$u20$as$u20$core..clone..Clone$GT$5clone17hffa782808f95fe1aE', symObjAddr: 0x11E20, symBinAddr: 0xBD1D0, symSize: 0x140 }
  - { offsetInCU: 0x4A80C, offset: 0x435A75, size: 0x8, addend: 0x0, symName: '__ZN70_$LT$alloc..vec..Vec$LT$T$C$A$GT$$u20$as$u20$core..ops..drop..Drop$GT$4drop17h04459a2ad506febfE', symObjAddr: 0x11F60, symBinAddr: 0xBD310, symSize: 0xB0 }
  - { offsetInCU: 0x4A86E, offset: 0x435AD7, size: 0x8, addend: 0x0, symName: '__ZN70_$LT$alloc..vec..Vec$LT$T$C$A$GT$$u20$as$u20$core..ops..drop..Drop$GT$4drop17h16fdfee690a97aabE', symObjAddr: 0x12150, symBinAddr: 0xBD3C0, symSize: 0xB0 }
  - { offsetInCU: 0x4A9E9, offset: 0x435C52, size: 0x8, addend: 0x0, symName: '__ZN70_$LT$alloc..vec..Vec$LT$T$C$A$GT$$u20$as$u20$core..ops..drop..Drop$GT$4drop17h24dac77de93830d0E', symObjAddr: 0x12330, symBinAddr: 0xBD470, symSize: 0x80 }
  - { offsetInCU: 0x4FA37, offset: 0x43ACA0, size: 0x8, addend: 0x0, symName: '__ZN5alloc3vec16Vec$LT$T$C$A$GT$16into_boxed_slice17hf01fc5c9dc27910bE', symObjAddr: 0xF5D0, symBinAddr: 0xBAFF0, symSize: 0x90 }
  - { offsetInCU: 0x1E, offset: 0x44F0B6, size: 0x8, addend: 0x0, symName: '__ZN4core3ptr100drop_in_place$LT$core..option..Option$LT$alloc..boxed..Box$LT$syn..path..GenericArgument$GT$$GT$$GT$17h3a7c44b9e57fe410E', symObjAddr: 0x0, symBinAddr: 0xBD820, symSize: 0x50 }
  - { offsetInCU: 0xA8, offset: 0x44F140, size: 0x8, addend: 0x0, symName: '__ZN58_$LT$alloc..string..String$u20$as$u20$core..fmt..Write$GT$10write_char17h04bc467bd68a934bE', symObjAddr: 0x71C0, symBinAddr: 0xC49E0, symSize: 0x140 }
  - { offsetInCU: 0x4AD, offset: 0x44F545, size: 0x8, addend: 0x0, symName: '__ZN58_$LT$alloc..string..String$u20$as$u20$core..fmt..Write$GT$9write_str17h46a93205c3443fbaE', symObjAddr: 0x7300, symBinAddr: 0xC4B20, symSize: 0x60 }
  - { offsetInCU: 0x1454, offset: 0x4504EC, size: 0x8, addend: 0x0, symName: __ZN5alloc5alloc15exchange_malloc17h9a87608d0224859dE, symObjAddr: 0x7360, symBinAddr: 0xC4B80, symSize: 0x40 }
  - { offsetInCU: 0x37F7, offset: 0x45288F, size: 0x8, addend: 0x0, symName: '__ZN4core3ptr100drop_in_place$LT$core..option..Option$LT$alloc..boxed..Box$LT$syn..path..GenericArgument$GT$$GT$$GT$17h3a7c44b9e57fe410E', symObjAddr: 0x0, symBinAddr: 0xBD820, symSize: 0x50 }
  - { offsetInCU: 0x39C4, offset: 0x452A5C, size: 0x8, addend: 0x0, symName: '__ZN4core3ptr102drop_in_place$LT$syn..punctuated..Punctuated$LT$syn..path..GenericArgument$C$syn..token..Comma$GT$$GT$17h8b1978399cfff48bE', symObjAddr: 0x50, symBinAddr: 0xBD870, symSize: 0xF0 }
  - { offsetInCU: 0x3CE4, offset: 0x452D7C, size: 0x8, addend: 0x0, symName: '__ZN4core3ptr103drop_in_place$LT$core..option..Option$LT$alloc..boxed..Box$LT$syn..generics..TypeParamBound$GT$$GT$$GT$17hb14e4384a768542bE', symObjAddr: 0x140, symBinAddr: 0xBD960, symSize: 0x50 }
  - { offsetInCU: 0x3EEF, offset: 0x452F87, size: 0x8, addend: 0x0, symName: '__ZN4core3ptr103drop_in_place$LT$syn..punctuated..Punctuated$LT$syn..generics..GenericParam$C$syn..token..Comma$GT$$GT$17h0c6077a988036760E', symObjAddr: 0x190, symBinAddr: 0xBD9B0, symSize: 0xF0 }
  - { offsetInCU: 0x44C3, offset: 0x45355B, size: 0x8, addend: 0x0, symName: '__ZN4core3ptr104drop_in_place$LT$syn..punctuated..Punctuated$LT$syn..generics..TypeParamBound$C$syn..token..Plus$GT$$GT$17h724e4d9d1d65061aE', symObjAddr: 0x280, symBinAddr: 0xBDAA0, symSize: 0x260 }
  - { offsetInCU: 0x4F0D, offset: 0x453FA5, size: 0x8, addend: 0x0, symName: '__ZN4core3ptr34drop_in_place$LT$syn..lit..Lit$GT$17hd64dde89a262341dE', symObjAddr: 0x4E0, symBinAddr: 0xBDD00, symSize: 0x120 }
  - { offsetInCU: 0x53FB, offset: 0x454493, size: 0x8, addend: 0x0, symName: '__ZN4core3ptr34drop_in_place$LT$syn..pat..Pat$GT$17hf88887878261d63cE', symObjAddr: 0x600, symBinAddr: 0xBDE20, symSize: 0xF70 }
  - { offsetInCU: 0x9314, offset: 0x4583AC, size: 0x8, addend: 0x0, symName: '__ZN4core3ptr34drop_in_place$LT$syn..ty..Type$GT$17ha80dd29b0f9d4a3fE', symObjAddr: 0x1570, symBinAddr: 0xBED90, symSize: 0x5A0 }
  - { offsetInCU: 0xACB0, offset: 0x459D48, size: 0x8, addend: 0x0, symName: '__ZN4core3ptr36drop_in_place$LT$syn..expr..Expr$GT$17h10f573b40ddd212cE.llvm.15963643447187171253', symObjAddr: 0x1B10, symBinAddr: 0xBF330, symSize: 0x2760 }
  - { offsetInCU: 0x149A7, offset: 0x463A3F, size: 0x8, addend: 0x0, symName: '__ZN4core3ptr36drop_in_place$LT$syn..mac..Macro$GT$17hc3b30a7a8a34cc2dE', symObjAddr: 0x4270, symBinAddr: 0xC1A90, symSize: 0x110 }
  - { offsetInCU: 0x14E44, offset: 0x463EDC, size: 0x8, addend: 0x0, symName: '__ZN4core3ptr36drop_in_place$LT$syn..path..Path$GT$17h75c74a97d5f0a03bE', symObjAddr: 0x4380, symBinAddr: 0xC1BA0, symSize: 0x280 }
  - { offsetInCU: 0x158F1, offset: 0x464989, size: 0x8, addend: 0x0, symName: '__ZN4core3ptr37drop_in_place$LT$syn..stmt..Block$GT$17h6fc3254d5688f2c3E', symObjAddr: 0x4600, symBinAddr: 0xC1E20, symSize: 0xD0 }
  - { offsetInCU: 0x15BC8, offset: 0x464C60, size: 0x8, addend: 0x0, symName: '__ZN4core3ptr38drop_in_place$LT$syn..expr..Member$GT$17h6b0cf84594ce6bceE', symObjAddr: 0x46D0, symBinAddr: 0xC1EF0, symSize: 0x30 }
  - { offsetInCU: 0x15D5F, offset: 0x464DF7, size: 0x8, addend: 0x0, symName: '__ZN4core3ptr38drop_in_place$LT$syn..group..Group$GT$17ha3c6933df6efe66fE', symObjAddr: 0x4700, symBinAddr: 0xC1F20, symSize: 0x70 }
  - { offsetInCU: 0x16057, offset: 0x4650EF, size: 0x8, addend: 0x0, symName: '__ZN4core3ptr39drop_in_place$LT$proc_macro2..Ident$GT$17ha28fef9769e267d9E', symObjAddr: 0x4770, symBinAddr: 0xC1F90, symSize: 0x30 }
  - { offsetInCU: 0x16172, offset: 0x46520A, size: 0x8, addend: 0x0, symName: '__ZN4core3ptr39drop_in_place$LT$syn..lit..LitFloat$GT$17h83bfdc788eb6081bE', symObjAddr: 0x47A0, symBinAddr: 0xC1FC0, symSize: 0x70 }
  - { offsetInCU: 0x164E4, offset: 0x46557C, size: 0x8, addend: 0x0, symName: '__ZN4core3ptr40drop_in_place$LT$syn..expr..ExprPath$GT$17h1e579ab03db12453E', symObjAddr: 0x4810, symBinAddr: 0xC2030, symSize: 0x110 }
  - { offsetInCU: 0x16947, offset: 0x4659DF, size: 0x8, addend: 0x0, symName: '__ZN4core3ptr40drop_in_place$LT$syn..ty..ReturnType$GT$17h035a612e322b6510E', symObjAddr: 0x4920, symBinAddr: 0xC2140, symSize: 0x50 }
  - { offsetInCU: 0x16B14, offset: 0x465BAC, size: 0x8, addend: 0x0, symName: '__ZN4core3ptr41drop_in_place$LT$syn..attr..Attribute$GT$17h326c12be3efddb0cE', symObjAddr: 0x4970, symBinAddr: 0xC2190, symSize: 0xA0 }
  - { offsetInCU: 0x16B8F, offset: 0x465C27, size: 0x8, addend: 0x0, symName: '__ZN4core3ptr41drop_in_place$LT$syn..expr..ExprConst$GT$17hbfe19d5d621e6836E', symObjAddr: 0x4A10, symBinAddr: 0xC2230, symSize: 0x180 }
  - { offsetInCU: 0x1717C, offset: 0x466214, size: 0x8, addend: 0x0, symName: '__ZN4core3ptr42drop_in_place$LT$alloc..string..String$GT$17h9acfda4d1b128177E', symObjAddr: 0x4B90, symBinAddr: 0xC23B0, symSize: 0x20 }
  - { offsetInCU: 0x17284, offset: 0x46631C, size: 0x8, addend: 0x0, symName: '__ZN4core3ptr44drop_in_place$LT$syn..lifetime..Lifetime$GT$17he37fa474f03de7b1E', symObjAddr: 0x4BB0, symBinAddr: 0xC23D0, symSize: 0x30 }
  - { offsetInCU: 0x17380, offset: 0x466418, size: 0x8, addend: 0x0, symName: '__ZN4core3ptr44drop_in_place$LT$syn..parse..ParseBuffer$GT$17hf792ff20095efc35E', symObjAddr: 0x4BE0, symBinAddr: 0xC2400, symSize: 0x70 }
  - { offsetInCU: 0x17797, offset: 0x46682F, size: 0x8, addend: 0x0, symName: '__ZN4core3ptr45drop_in_place$LT$proc_macro2..TokenStream$GT$17h76e8e68015f4924dE', symObjAddr: 0x4C50, symBinAddr: 0xC2470, symSize: 0x140 }
  - { offsetInCU: 0x17C31, offset: 0x466CC9, size: 0x8, addend: 0x0, symName: '__ZN4core3ptr45drop_in_place$LT$syn..generics..TypeParam$GT$17h188a459c1380ac75E', symObjAddr: 0x4D90, symBinAddr: 0xC25B0, symSize: 0x230 }
  - { offsetInCU: 0x184A6, offset: 0x46753E, size: 0x8, addend: 0x0, symName: '__ZN4core3ptr46drop_in_place$LT$syn..generics..ConstParam$GT$17h7a9b900b2b88bfcdE', symObjAddr: 0x4FC0, symBinAddr: 0xC27E0, symSize: 0x150 }
  - { offsetInCU: 0x18927, offset: 0x4679BF, size: 0x8, addend: 0x0, symName: '__ZN4core3ptr47drop_in_place$LT$syn..path..GenericArgument$GT$17h593f06d6ca9a94d2E', symObjAddr: 0x5110, symBinAddr: 0xC2930, symSize: 0x450 }
  - { offsetInCU: 0x1969D, offset: 0x468735, size: 0x8, addend: 0x0, symName: '__ZN4core3ptr49drop_in_place$LT$syn..generics..LifetimeParam$GT$17h3a8835ab294bfd16E', symObjAddr: 0x5560, symBinAddr: 0xC2D80, symSize: 0xF0 }
  - { offsetInCU: 0x19AB4, offset: 0x468B4C, size: 0x8, addend: 0x0, symName: '__ZN4core3ptr50drop_in_place$LT$syn..generics..TypeParamBound$GT$17h81b4325b5900604dE', symObjAddr: 0x5650, symBinAddr: 0xC2E70, symSize: 0xA0 }
  - { offsetInCU: 0x19C1A, offset: 0x468CB2, size: 0x8, addend: 0x0, symName: '__ZN4core3ptr58drop_in_place$LT$alloc..vec..Vec$LT$syn..expr..Arm$GT$$GT$17hff9224aadf2233b8E', symObjAddr: 0x56F0, symBinAddr: 0xC2F10, symSize: 0xD0 }
  - { offsetInCU: 0x19EDA, offset: 0x468F72, size: 0x8, addend: 0x0, symName: '__ZN4core3ptr59drop_in_place$LT$alloc..boxed..Box$LT$syn..pat..Pat$GT$$GT$17h622b0c1db21c0742E', symObjAddr: 0x57C0, symBinAddr: 0xC2FE0, symSize: 0x50 }
  - { offsetInCU: 0x1A033, offset: 0x4690CB, size: 0x8, addend: 0x0, symName: '__ZN4core3ptr59drop_in_place$LT$alloc..boxed..Box$LT$syn..ty..Type$GT$$GT$17hde45fa887dd8b605E', symObjAddr: 0x5810, symBinAddr: 0xC3030, symSize: 0x50 }
  - { offsetInCU: 0x1A18C, offset: 0x469224, size: 0x8, addend: 0x0, symName: '__ZN4core3ptr61drop_in_place$LT$alloc..boxed..Box$LT$syn..expr..Expr$GT$$GT$17hbb42293869113942E', symObjAddr: 0x5860, symBinAddr: 0xC3080, symSize: 0x50 }
  - { offsetInCU: 0x1A2E5, offset: 0x46937D, size: 0x8, addend: 0x0, symName: '__ZN4core3ptr61drop_in_place$LT$syn..path..ParenthesizedGenericArguments$GT$17h6b1731382637937fE', symObjAddr: 0x58B0, symBinAddr: 0xC30D0, symSize: 0x170 }
  - { offsetInCU: 0x1A8EE, offset: 0x469986, size: 0x8, addend: 0x0, symName: '__ZN4core3ptr63drop_in_place$LT$alloc..boxed..Box$LT$syn..lit..LitRepr$GT$$GT$17h6e3a82ea4de7b84cE', symObjAddr: 0x5A20, symBinAddr: 0xC3240, symSize: 0x60 }
  - { offsetInCU: 0x1ABF5, offset: 0x469C8D, size: 0x8, addend: 0x0, symName: '__ZN4core3ptr64drop_in_place$LT$alloc..boxed..Box$LT$syn..pat..FieldPat$GT$$GT$17hbf8f4867d84bd25dE', symObjAddr: 0x5A80, symBinAddr: 0xC32A0, symSize: 0x140 }
  - { offsetInCU: 0x1B2F6, offset: 0x46A38E, size: 0x8, addend: 0x0, symName: '__ZN4core3ptr64drop_in_place$LT$alloc..boxed..Box$LT$syn..ty..BareFnArg$GT$$GT$17h6be6354eb1d1364dE', symObjAddr: 0x5BC0, symBinAddr: 0xC33E0, symSize: 0x140 }
  - { offsetInCU: 0x1B87F, offset: 0x46A917, size: 0x8, addend: 0x0, symName: '__ZN4core3ptr64drop_in_place$LT$alloc..vec..Vec$LT$syn..attr..Attribute$GT$$GT$17he33e25539d5885aeE.llvm.15963643447187171253', symObjAddr: 0x5D00, symBinAddr: 0xC3520, symSize: 0xD0 }
  - { offsetInCU: 0x1BB73, offset: 0x46AC0B, size: 0x8, addend: 0x0, symName: '__ZN4core3ptr65drop_in_place$LT$alloc..vec..Vec$LT$proc_macro..TokenTree$GT$$GT$17h8abd81f8596dbc59E', symObjAddr: 0x5DD0, symBinAddr: 0xC35F0, symSize: 0x110 }
  - { offsetInCU: 0x1BF6B, offset: 0x46B003, size: 0x8, addend: 0x0, symName: '__ZN4core3ptr65drop_in_place$LT$core..option..Option$LT$syn..expr..Label$GT$$GT$17hac599686b33ef364E', symObjAddr: 0x5EE0, symBinAddr: 0xC3700, symSize: 0x30 }
  - { offsetInCU: 0x1C0A5, offset: 0x46B13D, size: 0x8, addend: 0x0, symName: '__ZN4core3ptr65drop_in_place$LT$core..option..Option$LT$syn..path..QSelf$GT$$GT$17h0b8dd5cda5f2cd6bE', symObjAddr: 0x5F10, symBinAddr: 0xC3730, symSize: 0x50 }
  - { offsetInCU: 0x1C226, offset: 0x46B2BE, size: 0x8, addend: 0x0, symName: '__ZN4core3ptr66drop_in_place$LT$core..option..Option$LT$syn..pat..PatRest$GT$$GT$17hd5bb3bc28aa78ac1E', symObjAddr: 0x5F60, symBinAddr: 0xC3780, symSize: 0xE0 }
  - { offsetInCU: 0x1C54E, offset: 0x46B5E6, size: 0x8, addend: 0x0, symName: '__ZN4core3ptr67drop_in_place$LT$alloc..boxed..Box$LT$syn..expr..FieldValue$GT$$GT$17hbbcf67a9d5e9863cE', symObjAddr: 0x6040, symBinAddr: 0xC3860, symSize: 0x140 }
  - { offsetInCU: 0x1CAD6, offset: 0x46BB6E, size: 0x8, addend: 0x0, symName: '__ZN4core3ptr70drop_in_place$LT$core..option..Option$LT$syn..ty..BareVariadic$GT$$GT$17h79a19250e9f043b1E', symObjAddr: 0x6180, symBinAddr: 0xC39A0, symSize: 0x100 }
  - { offsetInCU: 0x1CF41, offset: 0x46BFD9, size: 0x8, addend: 0x0, symName: '__ZN4core3ptr72drop_in_place$LT$alloc..boxed..Box$LT$syn..path..GenericArgument$GT$$GT$17hfd308d374af4273dE', symObjAddr: 0x6280, symBinAddr: 0xC3AA0, symSize: 0x2B0 }
  - { offsetInCU: 0x1D952, offset: 0x46C9EA, size: 0x8, addend: 0x0, symName: '__ZN4core3ptr72drop_in_place$LT$core..option..Option$LT$syn..lifetime..Lifetime$GT$$GT$17h49cce6f02f9c0590E', symObjAddr: 0x6530, symBinAddr: 0xC3D50, symSize: 0x30 }
  - { offsetInCU: 0x1DA6D, offset: 0x46CB05, size: 0x8, addend: 0x0, symName: '__ZN4core3ptr73drop_in_place$LT$alloc..boxed..Box$LT$syn..generics..GenericParam$GT$$GT$17ha26d5d145af4b203E', symObjAddr: 0x6560, symBinAddr: 0xC3D80, symSize: 0x80 }
  - { offsetInCU: 0x1DBE3, offset: 0x46CC7B, size: 0x8, addend: 0x0, symName: '__ZN4core3ptr75drop_in_place$LT$alloc..boxed..Box$LT$syn..generics..TypeParamBound$GT$$GT$17h129a4e927e5eb81bE', symObjAddr: 0x65E0, symBinAddr: 0xC3E00, symSize: 0x1B0 }
  - { offsetInCU: 0x1E2E2, offset: 0x46D37A, size: 0x8, addend: 0x0, symName: '__ZN4core3ptr83drop_in_place$LT$core..result..Result$LT$syn..op..BinOp$C$syn..error..Error$GT$$GT$17h495a3ee3d6e6a47dE', symObjAddr: 0x6790, symBinAddr: 0xC3FB0, symSize: 0x80 }
  - { offsetInCU: 0x1E5FC, offset: 0x46D694, size: 0x8, addend: 0x0, symName: '__ZN4core3ptr86drop_in_place$LT$syn..punctuated..Punctuated$LT$syn..pat..Pat$C$syn..token..Or$GT$$GT$17h9cc6b5f7b6d3a555E', symObjAddr: 0x6810, symBinAddr: 0xC4030, symSize: 0x120 }
  - { offsetInCU: 0x1EA77, offset: 0x46DB0F, size: 0x8, addend: 0x0, symName: '__ZN4core3ptr87drop_in_place$LT$core..option..Option$LT$alloc..boxed..Box$LT$syn..pat..Pat$GT$$GT$$GT$17h51cd48973d96c411E', symObjAddr: 0x6930, symBinAddr: 0xC4150, symSize: 0x50 }
  - { offsetInCU: 0x1EBE7, offset: 0x46DC7F, size: 0x8, addend: 0x0, symName: '__ZN4core3ptr87drop_in_place$LT$core..option..Option$LT$alloc..boxed..Box$LT$syn..ty..Type$GT$$GT$$GT$17h103a25a4a7d7374eE', symObjAddr: 0x6980, symBinAddr: 0xC41A0, symSize: 0x50 }
  - { offsetInCU: 0x1ED57, offset: 0x46DDEF, size: 0x8, addend: 0x0, symName: '__ZN4core3ptr89drop_in_place$LT$core..option..Option$LT$alloc..boxed..Box$LT$syn..expr..Expr$GT$$GT$$GT$17h9e02509cb2345d44E', symObjAddr: 0x69D0, symBinAddr: 0xC41F0, symSize: 0x50 }
  - { offsetInCU: 0x1EF05, offset: 0x46DF9D, size: 0x8, addend: 0x0, symName: '__ZN4core3ptr89drop_in_place$LT$syn..punctuated..Punctuated$LT$syn..pat..Pat$C$syn..token..Comma$GT$$GT$17hd3a83c36827f210aE', symObjAddr: 0x6A20, symBinAddr: 0xC4240, symSize: 0x120 }
  - { offsetInCU: 0x1F3D5, offset: 0x46E46D, size: 0x8, addend: 0x0, symName: '__ZN4core3ptr91drop_in_place$LT$syn..punctuated..Punctuated$LT$syn..expr..Expr$C$syn..token..Comma$GT$$GT$17h6f261e8f470c81f2E', symObjAddr: 0x6B40, symBinAddr: 0xC4360, symSize: 0x120 }
  - { offsetInCU: 0x1F863, offset: 0x46E8FB, size: 0x8, addend: 0x0, symName: '__ZN4core3ptr94drop_in_place$LT$syn..punctuated..Punctuated$LT$syn..pat..FieldPat$C$syn..token..Comma$GT$$GT$17h43ec25af986ef674E', symObjAddr: 0x6C60, symBinAddr: 0xC4480, symSize: 0xF0 }
  - { offsetInCU: 0x1FB62, offset: 0x46EBFA, size: 0x8, addend: 0x0, symName: '__ZN4core3ptr94drop_in_place$LT$syn..punctuated..Punctuated$LT$syn..ty..BareFnArg$C$syn..token..Comma$GT$$GT$17h7ba4c699ee390ebaE', symObjAddr: 0x6D50, symBinAddr: 0xC4570, symSize: 0xF0 }
  - { offsetInCU: 0x1FE63, offset: 0x46EEFB, size: 0x8, addend: 0x0, symName: '__ZN4core3ptr96drop_in_place$LT$core..option..Option$LT$alloc..boxed..Box$LT$syn..path..PathSegment$GT$$GT$$GT$17h5de12a5a0f9e9ef9E', symObjAddr: 0x6E40, symBinAddr: 0xC4660, symSize: 0x1A0 }
  - { offsetInCU: 0x20524, offset: 0x46F5BC, size: 0x8, addend: 0x0, symName: '__ZN4core3ptr97drop_in_place$LT$syn..punctuated..Punctuated$LT$syn..expr..FieldValue$C$syn..token..Comma$GT$$GT$17hf58d0a9a09266ab3E', symObjAddr: 0x6FE0, symBinAddr: 0xC4800, symSize: 0xF0 }
  - { offsetInCU: 0x2089D, offset: 0x46F935, size: 0x8, addend: 0x0, symName: '__ZN4core3ptr98drop_in_place$LT$syn..punctuated..Punctuated$LT$syn..lifetime..Lifetime$C$syn..token..Plus$GT$$GT$17h600c2b78f78fd2b9E', symObjAddr: 0x70D0, symBinAddr: 0xC48F0, symSize: 0xD0 }
  - { offsetInCU: 0x214CF, offset: 0x470567, size: 0x8, addend: 0x0, symName: '__ZN53_$LT$core..fmt..Error$u20$as$u20$core..fmt..Debug$GT$3fmt17h03dc662ab152f3aeE', symObjAddr: 0x71A0, symBinAddr: 0xC49C0, symSize: 0x20 }
  - { offsetInCU: 0x2C59B, offset: 0x47B633, size: 0x8, addend: 0x0, symName: __ZN3syn4expr7parsing32parse_with_earlier_boundary_rule17h04da014a226fbbe5E, symObjAddr: 0x73A0, symBinAddr: 0xC4BC0, symSize: 0x1430 }
  - { offsetInCU: 0x2E8D6, offset: 0x47D96E, size: 0x8, addend: 0x0, symName: __ZN3syn4expr7parsing14can_begin_expr17h4653549300b8351bE, symObjAddr: 0x87D0, symBinAddr: 0xC5FF0, symSize: 0x370 }
  - { offsetInCU: 0x2FA05, offset: 0x47EA9D, size: 0x8, addend: 0x0, symName: __ZN3syn4expr7parsing10parse_expr17he948d695e5f3d52eE.llvm.15963643447187171253, symObjAddr: 0x8B40, symBinAddr: 0xC6360, symSize: 0x1330 }
  - { offsetInCU: 0x32825, offset: 0x4818BD, size: 0x8, addend: 0x0, symName: __ZN3syn4expr7parsing15parse_binop_rhs17h6b864ca016112671E, symObjAddr: 0x9E70, symBinAddr: 0xC7690, symSize: 0x4E0 }
  - { offsetInCU: 0x3330F, offset: 0x4823A7, size: 0x8, addend: 0x0, symName: __ZN3syn4expr7parsing14ambiguous_expr17h5b5bba9c148d94dbE, symObjAddr: 0xA350, symBinAddr: 0xC7B70, symSize: 0xF0 }
  - { offsetInCU: 0x33392, offset: 0x48242A, size: 0x8, addend: 0x0, symName: __ZN3syn4expr7parsing10expr_attrs17h79ae24352e9d9d57E, symObjAddr: 0xA440, symBinAddr: 0xC7C60, symSize: 0x250 }
  - { offsetInCU: 0x338FA, offset: 0x482992, size: 0x8, addend: 0x0, symName: __ZN3syn4expr7parsing10unary_expr17h1634cdc87bf326dfE, symObjAddr: 0xA690, symBinAddr: 0xC7EB0, symSize: 0x7C0 }
  - { offsetInCU: 0x34B91, offset: 0x483C29, size: 0x8, addend: 0x0, symName: __ZN3syn4expr7parsing12trailer_expr17hd6c52758b73443cfE, symObjAddr: 0xAE50, symBinAddr: 0xC8670, symSize: 0x1830 }
  - { offsetInCU: 0x3859C, offset: 0x487634, size: 0x8, addend: 0x0, symName: __ZN3syn4expr7parsing14trailer_helper17h681119187c5a546dE, symObjAddr: 0xC680, symBinAddr: 0xC9EA0, symSize: 0x1F80 }
  - { offsetInCU: 0x3C7EC, offset: 0x48B884, size: 0x8, addend: 0x0, symName: __ZN3syn4expr7parsing12atom_labeled17h4604f459baf45e1eE, symObjAddr: 0xE600, symBinAddr: 0xCBE20, symSize: 0x590 }
  - { offsetInCU: 0x3D0EB, offset: 0x48C183, size: 0x8, addend: 0x0, symName: __ZN3syn4expr7parsing12expr_builtin17h8b5ff5122f88b230E, symObjAddr: 0xEB90, symBinAddr: 0xCC3B0, symSize: 0x410 }
  - { offsetInCU: 0x3DD17, offset: 0x48CDAF, size: 0x8, addend: 0x0, symName: __ZN3syn4expr7parsing23path_or_macro_or_struct17he515cb28f35d860eE, symObjAddr: 0xEFA0, symBinAddr: 0xCC7C0, symSize: 0x130 }
  - { offsetInCU: 0x3DDD3, offset: 0x48CE6B, size: 0x8, addend: 0x0, symName: __ZN3syn4expr7parsing31rest_of_path_or_macro_or_struct17hab8b11d447eb17cdE, symObjAddr: 0xF0D0, symBinAddr: 0xCC8F0, symSize: 0x3D0 }
  - { offsetInCU: 0x3E549, offset: 0x48D5E1, size: 0x8, addend: 0x0, symName: __ZN3syn4expr7parsing14paren_or_tuple17hca3957091eeb9c50E, symObjAddr: 0xF4A0, symBinAddr: 0xCCCC0, symSize: 0x780 }
  - { offsetInCU: 0x3EE97, offset: 0x48DF2F, size: 0x8, addend: 0x0, symName: __ZN3syn4expr7parsing15array_or_repeat17h7503a4cc2fc5aa31E, symObjAddr: 0xFC20, symBinAddr: 0xCD440, symSize: 0x950 }
  - { offsetInCU: 0x3FA48, offset: 0x48EAE0, size: 0x8, addend: 0x0, symName: __ZN3syn4expr7parsing10expr_group17ha2f3b33138d5864cE, symObjAddr: 0x10570, symBinAddr: 0xCDD90, symSize: 0x870 }
  - { offsetInCU: 0x405C1, offset: 0x48F659, size: 0x8, addend: 0x0, symName: __ZN3syn4expr7parsing8expr_let17hf863f328b939742fE, symObjAddr: 0x10FC0, symBinAddr: 0xCE600, symSize: 0x570 }
  - { offsetInCU: 0x40F1D, offset: 0x48FFB5, size: 0x8, addend: 0x0, symName: __ZN3syn4expr7parsing10expr_unary17h1d4eb12bbc8abbd2E, symObjAddr: 0x11530, symBinAddr: 0xCEB70, symSize: 0x2D0 }
  - { offsetInCU: 0x414F3, offset: 0x49058B, size: 0x8, addend: 0x0, symName: __ZN3syn4expr7parsing12expr_closure17h4e49f531e43f650cE, symObjAddr: 0x11800, symBinAddr: 0xCEE40, symSize: 0x1580 }
  - { offsetInCU: 0x43177, offset: 0x49220F, size: 0x8, addend: 0x0, symName: __ZN3syn4expr7parsing10expr_break17h3ba483e8fdc57f87E, symObjAddr: 0x12D80, symBinAddr: 0xD03C0, symSize: 0x720 }
  - { offsetInCU: 0x44200, offset: 0x493298, size: 0x8, addend: 0x0, symName: __ZN3syn4expr7parsing18expr_struct_helper17h62f8c2fd9c8d9ae6E, symObjAddr: 0x134A0, symBinAddr: 0xD0AE0, symSize: 0x980 }
  - { offsetInCU: 0x4513E, offset: 0x4941D6, size: 0x8, addend: 0x0, symName: __ZN3syn4expr7parsing10expr_range17h3255a6ff02803bdbE, symObjAddr: 0x13E20, symBinAddr: 0xD1460, symSize: 0xF0 }
  - { offsetInCU: 0x452FE, offset: 0x494396, size: 0x8, addend: 0x0, symName: __ZN3syn4expr7parsing15parse_range_end17hbd7fe95ed93f48b3E, symObjAddr: 0x13F10, symBinAddr: 0xD1550, symSize: 0x11D }
  - { offsetInCU: 0x1E, offset: 0x4A6BAC, size: 0x8, addend: 0x0, symName: __ZN5alloc7raw_vec11finish_grow17h5993caaa74c4fbdfE.llvm.8028830779895567672, symObjAddr: 0x0, symBinAddr: 0xD1670, symSize: 0xA0 }
  - { offsetInCU: 0x69AA, offset: 0x4AD538, size: 0x8, addend: 0x0, symName: __ZN5alloc7raw_vec11finish_grow17h5993caaa74c4fbdfE.llvm.8028830779895567672, symObjAddr: 0x0, symBinAddr: 0xD1670, symSize: 0xA0 }
  - { offsetInCU: 0x875B, offset: 0x4AF2E9, size: 0x8, addend: 0x0, symName: '__ZN5alloc7raw_vec19RawVec$LT$T$C$A$GT$7reserve21do_reserve_and_handle17h1257c9ee09466061E', symObjAddr: 0x1330, symBinAddr: 0x2162A0, symSize: 0xA0 }
  - { offsetInCU: 0x8A53, offset: 0x4AF5E1, size: 0x8, addend: 0x0, symName: '__ZN5alloc7raw_vec19RawVec$LT$T$C$A$GT$7reserve21do_reserve_and_handle17h30f192da7d596089E', symObjAddr: 0x13D0, symBinAddr: 0x216340, symSize: 0xB0 }
  - { offsetInCU: 0x8D7E, offset: 0x4AF90C, size: 0x8, addend: 0x0, symName: '__ZN5alloc7raw_vec19RawVec$LT$T$C$A$GT$7reserve21do_reserve_and_handle17h7bcc278903fa73cdE', symObjAddr: 0x1480, symBinAddr: 0x2163F0, symSize: 0xB0 }
  - { offsetInCU: 0x90A9, offset: 0x4AFC37, size: 0x8, addend: 0x0, symName: '__ZN5alloc7raw_vec19RawVec$LT$T$C$A$GT$7reserve21do_reserve_and_handle17h96ca4a18a0a3ddafE', symObjAddr: 0x15F0, symBinAddr: 0x2164A0, symSize: 0xB0 }
  - { offsetInCU: 0x93D6, offset: 0x4AFF64, size: 0x8, addend: 0x0, symName: '__ZN5alloc7raw_vec19RawVec$LT$T$C$A$GT$7reserve21do_reserve_and_handle17hbb3a7e81495482abE', symObjAddr: 0x16A0, symBinAddr: 0x216550, symSize: 0xB0 }
  - { offsetInCU: 0xFEFA, offset: 0x4B6A88, size: 0x8, addend: 0x0, symName: '__ZN5alloc7raw_vec19RawVec$LT$T$C$A$GT$8grow_one17h095fa3667201f4f8E', symObjAddr: 0x1810, symBinAddr: 0xD1710, symSize: 0xC0 }
  - { offsetInCU: 0x103C8, offset: 0x4B6F56, size: 0x8, addend: 0x0, symName: '__ZN5alloc7raw_vec19RawVec$LT$T$C$A$GT$8grow_one17h17381682e7253ec7E', symObjAddr: 0x18D0, symBinAddr: 0xD17D0, symSize: 0xC0 }
  - { offsetInCU: 0x10896, offset: 0x4B7424, size: 0x8, addend: 0x0, symName: '__ZN5alloc7raw_vec19RawVec$LT$T$C$A$GT$8grow_one17h248c03912984705cE', symObjAddr: 0x1990, symBinAddr: 0xD1890, symSize: 0xB0 }
  - { offsetInCU: 0x10D64, offset: 0x4B78F2, size: 0x8, addend: 0x0, symName: '__ZN5alloc7raw_vec19RawVec$LT$T$C$A$GT$8grow_one17h3075326c15ed7061E', symObjAddr: 0x1A40, symBinAddr: 0xD1940, symSize: 0x0 }
  - { offsetInCU: 0x11234, offset: 0x4B7DC2, size: 0x8, addend: 0x0, symName: '__ZN5alloc7raw_vec19RawVec$LT$T$C$A$GT$8grow_one17h313fd240ac0cecb3E', symObjAddr: 0x1B00, symBinAddr: 0xD1A00, symSize: 0x0 }
  - { offsetInCU: 0x11702, offset: 0x4B8290, size: 0x8, addend: 0x0, symName: '__ZN5alloc7raw_vec19RawVec$LT$T$C$A$GT$8grow_one17h32f85f1d3098de7dE', symObjAddr: 0x1BC0, symBinAddr: 0xD1AC0, symSize: 0x0 }
  - { offsetInCU: 0x11B66, offset: 0x4B86F4, size: 0x8, addend: 0x0, symName: '__ZN5alloc7raw_vec19RawVec$LT$T$C$A$GT$8grow_one17h46224c298c9c9296E', symObjAddr: 0x1C80, symBinAddr: 0xD1B80, symSize: 0x0 }
  - { offsetInCU: 0x12032, offset: 0x4B8BC0, size: 0x8, addend: 0x0, symName: '__ZN5alloc7raw_vec19RawVec$LT$T$C$A$GT$8grow_one17h5a605c90d00a8a39E', symObjAddr: 0x1D30, symBinAddr: 0xD1C30, symSize: 0xC0 }
  - { offsetInCU: 0x12500, offset: 0x4B908E, size: 0x8, addend: 0x0, symName: '__ZN5alloc7raw_vec19RawVec$LT$T$C$A$GT$8grow_one17h718e5b8a06d845cbE', symObjAddr: 0x1DF0, symBinAddr: 0xD1CF0, symSize: 0xC0 }
  - { offsetInCU: 0x1283F, offset: 0x4B93CD, size: 0x8, addend: 0x0, symName: '__ZN5alloc7raw_vec19RawVec$LT$T$C$A$GT$8grow_one17h72dabde20a137b04E', symObjAddr: 0x1EB0, symBinAddr: 0xD1DB0, symSize: 0xB0 }
  - { offsetInCU: 0x12D0B, offset: 0x4B9899, size: 0x8, addend: 0x0, symName: '__ZN5alloc7raw_vec19RawVec$LT$T$C$A$GT$8grow_one17h7c2c58db67a15848E', symObjAddr: 0x1F60, symBinAddr: 0xD1E60, symSize: 0x0 }
  - { offsetInCU: 0x131D9, offset: 0x4B9D67, size: 0x8, addend: 0x0, symName: '__ZN5alloc7raw_vec19RawVec$LT$T$C$A$GT$8grow_one17h7d9544ea3e76eae9E', symObjAddr: 0x2020, symBinAddr: 0xD1F20, symSize: 0xC0 }
  - { offsetInCU: 0x136A7, offset: 0x4BA235, size: 0x8, addend: 0x0, symName: '__ZN5alloc7raw_vec19RawVec$LT$T$C$A$GT$8grow_one17h82b0804d651d4ef5E', symObjAddr: 0x20E0, symBinAddr: 0xD1FE0, symSize: 0xC0 }
  - { offsetInCU: 0x13BA2, offset: 0x4BA730, size: 0x8, addend: 0x0, symName: '__ZN5alloc7raw_vec19RawVec$LT$T$C$A$GT$8grow_one17h85907f27c23a559bE', symObjAddr: 0x21A0, symBinAddr: 0xD20A0, symSize: 0xB0 }
  - { offsetInCU: 0x1406E, offset: 0x4BABFC, size: 0x8, addend: 0x0, symName: '__ZN5alloc7raw_vec19RawVec$LT$T$C$A$GT$8grow_one17ha5852730cd02935bE', symObjAddr: 0x2250, symBinAddr: 0xD2150, symSize: 0x0 }
  - { offsetInCU: 0x1453C, offset: 0x4BB0CA, size: 0x8, addend: 0x0, symName: '__ZN5alloc7raw_vec19RawVec$LT$T$C$A$GT$8grow_one17hb30077ec058bafdfE', symObjAddr: 0x2310, symBinAddr: 0xD2210, symSize: 0xB0 }
  - { offsetInCU: 0x14A08, offset: 0x4BB596, size: 0x8, addend: 0x0, symName: '__ZN5alloc7raw_vec19RawVec$LT$T$C$A$GT$8grow_one17hc0723e4af934b43eE', symObjAddr: 0x23C0, symBinAddr: 0xD22C0, symSize: 0xC0 }
  - { offsetInCU: 0x14D49, offset: 0x4BB8D7, size: 0x8, addend: 0x0, symName: '__ZN5alloc7raw_vec19RawVec$LT$T$C$A$GT$8grow_one17hc9702e9ac871cd96E', symObjAddr: 0x2480, symBinAddr: 0xD2380, symSize: 0xB0 }
  - { offsetInCU: 0x15217, offset: 0x4BBDA5, size: 0x8, addend: 0x0, symName: '__ZN5alloc7raw_vec19RawVec$LT$T$C$A$GT$8grow_one17hcf254d991fef210fE', symObjAddr: 0x2530, symBinAddr: 0xD2430, symSize: 0xC0 }
  - { offsetInCU: 0x156E5, offset: 0x4BC273, size: 0x8, addend: 0x0, symName: '__ZN5alloc7raw_vec19RawVec$LT$T$C$A$GT$8grow_one17hd89eb202b8db7e1aE', symObjAddr: 0x25F0, symBinAddr: 0xD24F0, symSize: 0xC0 }
  - { offsetInCU: 0x15A26, offset: 0x4BC5B4, size: 0x8, addend: 0x0, symName: '__ZN5alloc7raw_vec19RawVec$LT$T$C$A$GT$8grow_one17hdb610d4d82b2394dE', symObjAddr: 0x26B0, symBinAddr: 0xD25B0, symSize: 0xA0 }
  - { offsetInCU: 0x15EB5, offset: 0x4BCA43, size: 0x8, addend: 0x0, symName: '__ZN5alloc7raw_vec19RawVec$LT$T$C$A$GT$8grow_one17hdc14d76226baa6aaE', symObjAddr: 0x2750, symBinAddr: 0xD2650, symSize: 0xC0 }
  - { offsetInCU: 0x16383, offset: 0x4BCF11, size: 0x8, addend: 0x0, symName: '__ZN5alloc7raw_vec19RawVec$LT$T$C$A$GT$8grow_one17hfb0e72b592d7c1fcE', symObjAddr: 0x2810, symBinAddr: 0xD2710, symSize: 0xC0 }
  - { offsetInCU: 0x1E, offset: 0x4BD2BE, size: 0x8, addend: 0x0, symName: '__ZN4core3ptr100drop_in_place$LT$core..option..Option$LT$alloc..boxed..Box$LT$syn..path..GenericArgument$GT$$GT$$GT$17h3a7c44b9e57fe410E', symObjAddr: 0x0, symBinAddr: 0xD27D0, symSize: 0x50 }
  - { offsetInCU: 0x1A4F, offset: 0x4BECEF, size: 0x8, addend: 0x0, symName: '__ZN4core3ptr100drop_in_place$LT$core..option..Option$LT$alloc..boxed..Box$LT$syn..path..GenericArgument$GT$$GT$$GT$17h3a7c44b9e57fe410E', symObjAddr: 0x0, symBinAddr: 0xD27D0, symSize: 0x50 }
  - { offsetInCU: 0x1C1C, offset: 0x4BEEBC, size: 0x8, addend: 0x0, symName: '__ZN4core3ptr102drop_in_place$LT$syn..punctuated..Punctuated$LT$syn..path..GenericArgument$C$syn..token..Comma$GT$$GT$17h8b1978399cfff48bE', symObjAddr: 0x50, symBinAddr: 0xD2820, symSize: 0xF0 }
  - { offsetInCU: 0x1F3C, offset: 0x4BF1DC, size: 0x8, addend: 0x0, symName: '__ZN4core3ptr103drop_in_place$LT$core..option..Option$LT$alloc..boxed..Box$LT$syn..generics..TypeParamBound$GT$$GT$$GT$17hb14e4384a768542bE', symObjAddr: 0x140, symBinAddr: 0xD2910, symSize: 0x50 }
  - { offsetInCU: 0x2201, offset: 0x4BF4A1, size: 0x8, addend: 0x0, symName: '__ZN4core3ptr103drop_in_place$LT$core..option..Option$LT$alloc..boxed..Box$LT$syn..generics..WherePredicate$GT$$GT$$GT$17he190813f4819c5dbE', symObjAddr: 0x190, symBinAddr: 0xD2960, symSize: 0xD0 }
  - { offsetInCU: 0x2595, offset: 0x4BF835, size: 0x8, addend: 0x0, symName: '__ZN4core3ptr103drop_in_place$LT$syn..punctuated..Punctuated$LT$syn..generics..GenericParam$C$syn..token..Comma$GT$$GT$17h0c6077a988036760E', symObjAddr: 0x260, symBinAddr: 0xD2A30, symSize: 0xF0 }
  - { offsetInCU: 0x2A90, offset: 0x4BFD30, size: 0x8, addend: 0x0, symName: '__ZN4core3ptr104drop_in_place$LT$syn..punctuated..Punctuated$LT$syn..generics..TypeParamBound$C$syn..token..Plus$GT$$GT$17h724e4d9d1d65061aE', symObjAddr: 0x350, symBinAddr: 0xD2B20, symSize: 0x260 }
  - { offsetInCU: 0x345E, offset: 0x4C06FE, size: 0x8, addend: 0x0, symName: '__ZN4core3ptr115drop_in_place$LT$core..option..Option$LT$$LP$alloc..boxed..Box$LT$syn..pat..Pat$GT$$C$syn..token..Colon$RP$$GT$$GT$17h787822396d5dcd7bE', symObjAddr: 0x5B0, symBinAddr: 0xD2D80, symSize: 0x50 }
  - { offsetInCU: 0x362C, offset: 0x4C08CC, size: 0x8, addend: 0x0, symName: '__ZN4core3ptr115drop_in_place$LT$core..option..Option$LT$$LP$syn..token..Brace$C$alloc..vec..Vec$LT$syn..item..Item$GT$$RP$$GT$$GT$17h4f61046186bbd7c9E', symObjAddr: 0x600, symBinAddr: 0xD2DD0, symSize: 0xD0 }
  - { offsetInCU: 0x3943, offset: 0x4C0BE3, size: 0x8, addend: 0x0, symName: '__ZN4core3ptr126drop_in_place$LT$core..option..Option$LT$$LP$syn..token..And$C$core..option..Option$LT$syn..lifetime..Lifetime$GT$$RP$$GT$$GT$17h45c5d73e12cdf6f0E', symObjAddr: 0x6D0, symBinAddr: 0xD2EA0, symSize: 0x30 }
  - { offsetInCU: 0x3B56, offset: 0x4C0DF6, size: 0x8, addend: 0x0, symName: '__ZN4core3ptr34drop_in_place$LT$syn..lit..Lit$GT$17hd64dde89a262341dE', symObjAddr: 0x700, symBinAddr: 0xD2ED0, symSize: 0x120 }
  - { offsetInCU: 0x4025, offset: 0x4C12C5, size: 0x8, addend: 0x0, symName: '__ZN4core3ptr34drop_in_place$LT$syn..pat..Pat$GT$17hf88887878261d63cE', symObjAddr: 0x820, symBinAddr: 0xD2FF0, symSize: 0xF70 }
  - { offsetInCU: 0x7F1F, offset: 0x4C51BF, size: 0x8, addend: 0x0, symName: '__ZN4core3ptr34drop_in_place$LT$syn..ty..Type$GT$17ha80dd29b0f9d4a3fE', symObjAddr: 0x1790, symBinAddr: 0xD3F60, symSize: 0x5A0 }
  - { offsetInCU: 0x98BB, offset: 0x4C6B5B, size: 0x8, addend: 0x0, symName: '__ZN4core3ptr36drop_in_place$LT$syn..expr..Expr$GT$17h10f573b40ddd212cE', symObjAddr: 0x1D30, symBinAddr: 0xD4500, symSize: 0x2760 }
  - { offsetInCU: 0x139D0, offset: 0x4D0C70, size: 0x8, addend: 0x0, symName: '__ZN4core3ptr36drop_in_place$LT$syn..item..Item$GT$17haa59cf9e39ab8cebE', symObjAddr: 0x4490, symBinAddr: 0xD6C60, symSize: 0x17C0 }
  - { offsetInCU: 0x195DF, offset: 0x4D687F, size: 0x8, addend: 0x0, symName: '__ZN4core3ptr36drop_in_place$LT$syn..mac..Macro$GT$17hc3b30a7a8a34cc2dE', symObjAddr: 0x5C50, symBinAddr: 0xD8420, symSize: 0x110 }
  - { offsetInCU: 0x19A7C, offset: 0x4D6D1C, size: 0x8, addend: 0x0, symName: '__ZN4core3ptr36drop_in_place$LT$syn..path..Path$GT$17h75c74a97d5f0a03bE', symObjAddr: 0x5D60, symBinAddr: 0xD8530, symSize: 0x280 }
  - { offsetInCU: 0x1A529, offset: 0x4D77C9, size: 0x8, addend: 0x0, symName: '__ZN4core3ptr37drop_in_place$LT$syn..item..FnArg$GT$17h470fdeee5cba5e3aE', symObjAddr: 0x5FE0, symBinAddr: 0xD87B0, symSize: 0x160 }
  - { offsetInCU: 0x1AB09, offset: 0x4D7DA9, size: 0x8, addend: 0x0, symName: '__ZN4core3ptr37drop_in_place$LT$syn..stmt..Block$GT$17h6fc3254d5688f2c3E', symObjAddr: 0x6140, symBinAddr: 0xD8910, symSize: 0xD0 }
  - { offsetInCU: 0x1ADFF, offset: 0x4D809F, size: 0x8, addend: 0x0, symName: '__ZN4core3ptr38drop_in_place$LT$syn..data..Fields$GT$17h79840861dd1f691dE', symObjAddr: 0x6210, symBinAddr: 0xD89E0, symSize: 0x190 }
  - { offsetInCU: 0x1B249, offset: 0x4D84E9, size: 0x8, addend: 0x0, symName: '__ZN4core3ptr38drop_in_place$LT$syn..expr..Member$GT$17h6b0cf84594ce6bceE', symObjAddr: 0x63A0, symBinAddr: 0xD8B70, symSize: 0x30 }
  - { offsetInCU: 0x1B345, offset: 0x4D85E5, size: 0x8, addend: 0x0, symName: '__ZN4core3ptr39drop_in_place$LT$proc_macro2..Ident$GT$17ha28fef9769e267d9E', symObjAddr: 0x63D0, symBinAddr: 0xD8BA0, symSize: 0x30 }
  - { offsetInCU: 0x1B49E, offset: 0x4D873E, size: 0x8, addend: 0x0, symName: '__ZN4core3ptr39drop_in_place$LT$syn..item..UseTree$GT$17h7288572c631f954aE', symObjAddr: 0x6400, symBinAddr: 0xD8BD0, symSize: 0xE0 }
  - { offsetInCU: 0x1B845, offset: 0x4D8AE5, size: 0x8, addend: 0x0, symName: '__ZN4core3ptr39drop_in_place$LT$syn..ty..TypeGroup$GT$17hf74b5ab2edcb931fE', symObjAddr: 0x64E0, symBinAddr: 0xD8CB0, symSize: 0x50 }
  - { offsetInCU: 0x1BA2C, offset: 0x4D8CCC, size: 0x8, addend: 0x0, symName: '__ZN4core3ptr40drop_in_place$LT$syn..item..ImplItem$GT$17h98907b2080b0ccb0E', symObjAddr: 0x6530, symBinAddr: 0xD8D00, symSize: 0x6E0 }
  - { offsetInCU: 0x1CF9D, offset: 0x4DA23D, size: 0x8, addend: 0x0, symName: '__ZN4core3ptr40drop_in_place$LT$syn..item..ItemImpl$GT$17h2e9f0b01a7977a55E', symObjAddr: 0x6C10, symBinAddr: 0xD93E0, symSize: 0x1E0 }
  - { offsetInCU: 0x1D75D, offset: 0x4DA9FD, size: 0x8, addend: 0x0, symName: '__ZN4core3ptr40drop_in_place$LT$syn..item..Receiver$GT$17h5e68a437c3b8e574E', symObjAddr: 0x6DF0, symBinAddr: 0xD95C0, symSize: 0x130 }
  - { offsetInCU: 0x1DD48, offset: 0x4DAFE8, size: 0x8, addend: 0x0, symName: '__ZN4core3ptr40drop_in_place$LT$syn..item..Variadic$GT$17hf9d4ebdb0f5e723aE', symObjAddr: 0x6F20, symBinAddr: 0xD96F0, symSize: 0x110 }
  - { offsetInCU: 0x1E1C4, offset: 0x4DB464, size: 0x8, addend: 0x0, symName: '__ZN4core3ptr40drop_in_place$LT$syn..ty..ReturnType$GT$17h035a612e322b6510E', symObjAddr: 0x7030, symBinAddr: 0xD9800, symSize: 0x50 }
  - { offsetInCU: 0x1E334, offset: 0x4DB5D4, size: 0x8, addend: 0x0, symName: '__ZN4core3ptr41drop_in_place$LT$syn..expr..ExprConst$GT$17hbfe19d5d621e6836E', symObjAddr: 0x7080, symBinAddr: 0xD9850, symSize: 0x180 }
  - { offsetInCU: 0x1E940, offset: 0x4DBBE0, size: 0x8, addend: 0x0, symName: '__ZN4core3ptr41drop_in_place$LT$syn..item..Signature$GT$17h41f785211ad8eb02E', symObjAddr: 0x7200, symBinAddr: 0xD99D0, symSize: 0x180 }
  - { offsetInCU: 0x1F020, offset: 0x4DC2C0, size: 0x8, addend: 0x0, symName: '__ZN4core3ptr41drop_in_place$LT$syn..item..TraitItem$GT$17hc74edaa948c160a2E', symObjAddr: 0x7380, symBinAddr: 0xD9B50, symSize: 0x5E0 }
  - { offsetInCU: 0x201DC, offset: 0x4DD47C, size: 0x8, addend: 0x0, symName: '__ZN4core3ptr43drop_in_place$LT$syn..data..FieldsNamed$GT$17h56bef6f151514865E', symObjAddr: 0x7960, symBinAddr: 0xDA130, symSize: 0xE0 }
  - { offsetInCU: 0x20502, offset: 0x4DD7A2, size: 0x8, addend: 0x0, symName: '__ZN4core3ptr44drop_in_place$LT$syn..generics..Generics$GT$17h671de917167f8b66E', symObjAddr: 0x7A40, symBinAddr: 0xDA210, symSize: 0x40 }
  - { offsetInCU: 0x2051F, offset: 0x4DD7BF, size: 0x8, addend: 0x0, symName: '__ZN4core3ptr44drop_in_place$LT$syn..lifetime..Lifetime$GT$17he37fa474f03de7b1E', symObjAddr: 0x7A80, symBinAddr: 0xDA250, symSize: 0x30 }
  - { offsetInCU: 0x20697, offset: 0x4DD937, size: 0x8, addend: 0x0, symName: '__ZN4core3ptr44drop_in_place$LT$syn..parse..ParseBuffer$GT$17hf792ff20095efc35E', symObjAddr: 0x7AB0, symBinAddr: 0xDA280, symSize: 0x70 }
  - { offsetInCU: 0x20AAE, offset: 0x4DDD4E, size: 0x8, addend: 0x0, symName: '__ZN4core3ptr45drop_in_place$LT$proc_macro2..TokenStream$GT$17h76e8e68015f4924dE', symObjAddr: 0x7B20, symBinAddr: 0xDA2F0, symSize: 0x140 }
  - { offsetInCU: 0x20F48, offset: 0x4DE1E8, size: 0x8, addend: 0x0, symName: '__ZN4core3ptr45drop_in_place$LT$syn..generics..TypeParam$GT$17h188a459c1380ac75E', symObjAddr: 0x7C60, symBinAddr: 0xDA430, symSize: 0x230 }
  - { offsetInCU: 0x217BD, offset: 0x4DEA5D, size: 0x8, addend: 0x0, symName: '__ZN4core3ptr46drop_in_place$LT$syn..generics..ConstParam$GT$17h7a9b900b2b88bfcdE', symObjAddr: 0x7E90, symBinAddr: 0xDA660, symSize: 0x150 }
  - { offsetInCU: 0x21C3E, offset: 0x4DEEDE, size: 0x8, addend: 0x0, symName: '__ZN4core3ptr47drop_in_place$LT$syn..path..GenericArgument$GT$17h593f06d6ca9a94d2E', symObjAddr: 0x7FE0, symBinAddr: 0xDA7B0, symSize: 0x450 }
  - { offsetInCU: 0x229B4, offset: 0x4DFC54, size: 0x8, addend: 0x0, symName: '__ZN4core3ptr49drop_in_place$LT$syn..generics..LifetimeParam$GT$17h3a8835ab294bfd16E', symObjAddr: 0x8430, symBinAddr: 0xDAC00, symSize: 0xF0 }
  - { offsetInCU: 0x22DCB, offset: 0x4E006B, size: 0x8, addend: 0x0, symName: '__ZN4core3ptr49drop_in_place$LT$syn..restriction..Visibility$GT$17h3e52b998838defb1E', symObjAddr: 0x8520, symBinAddr: 0xDACF0, symSize: 0x60 }
  - { offsetInCU: 0x22F3C, offset: 0x4E01DC, size: 0x8, addend: 0x0, symName: '__ZN4core3ptr50drop_in_place$LT$syn..generics..TypeParamBound$GT$17h81b4325b5900604dE', symObjAddr: 0x8580, symBinAddr: 0xDAD50, symSize: 0xA0 }
  - { offsetInCU: 0x230A2, offset: 0x4E0342, size: 0x8, addend: 0x0, symName: '__ZN4core3ptr58drop_in_place$LT$alloc..vec..Vec$LT$syn..expr..Arm$GT$$GT$17hff9224aadf2233b8E', symObjAddr: 0x8620, symBinAddr: 0xDADF0, symSize: 0xD0 }
  - { offsetInCU: 0x23362, offset: 0x4E0602, size: 0x8, addend: 0x0, symName: '__ZN4core3ptr59drop_in_place$LT$alloc..boxed..Box$LT$syn..pat..Pat$GT$$GT$17h622b0c1db21c0742E', symObjAddr: 0x86F0, symBinAddr: 0xDAEC0, symSize: 0x50 }
  - { offsetInCU: 0x234BB, offset: 0x4E075B, size: 0x8, addend: 0x0, symName: '__ZN4core3ptr59drop_in_place$LT$alloc..boxed..Box$LT$syn..ty..Type$GT$$GT$17hde45fa887dd8b605E', symObjAddr: 0x8740, symBinAddr: 0xDAF10, symSize: 0x50 }
  - { offsetInCU: 0x23614, offset: 0x4E08B4, size: 0x8, addend: 0x0, symName: '__ZN4core3ptr61drop_in_place$LT$alloc..boxed..Box$LT$syn..expr..Expr$GT$$GT$17hbb42293869113942E', symObjAddr: 0x8790, symBinAddr: 0xDAF60, symSize: 0x50 }
  - { offsetInCU: 0x2376D, offset: 0x4E0A0D, size: 0x8, addend: 0x0, symName: '__ZN4core3ptr61drop_in_place$LT$syn..path..ParenthesizedGenericArguments$GT$17h6b1731382637937fE', symObjAddr: 0x87E0, symBinAddr: 0xDAFB0, symSize: 0x170 }
  - { offsetInCU: 0x23D76, offset: 0x4E1016, size: 0x8, addend: 0x0, symName: '__ZN4core3ptr62drop_in_place$LT$alloc..boxed..Box$LT$syn..stmt..Block$GT$$GT$17h21dcb5adf0237a12E', symObjAddr: 0x8950, symBinAddr: 0xDB120, symSize: 0xE0 }
  - { offsetInCU: 0x24184, offset: 0x4E1424, size: 0x8, addend: 0x0, symName: '__ZN4core3ptr63drop_in_place$LT$alloc..boxed..Box$LT$syn..lit..LitRepr$GT$$GT$17h6e3a82ea4de7b84cE', symObjAddr: 0x8A30, symBinAddr: 0xDB200, symSize: 0x60 }
  - { offsetInCU: 0x2444D, offset: 0x4E16ED, size: 0x8, addend: 0x0, symName: '__ZN4core3ptr63drop_in_place$LT$alloc..vec..Vec$LT$syn..item..ImplItem$GT$$GT$17hc51fca07e67d35aeE', symObjAddr: 0x8A90, symBinAddr: 0xDB260, symSize: 0x80 }
  - { offsetInCU: 0x24724, offset: 0x4E19C4, size: 0x8, addend: 0x0, symName: '__ZN4core3ptr64drop_in_place$LT$alloc..boxed..Box$LT$syn..item..UseTree$GT$$GT$17he4d7024582150632E', symObjAddr: 0x8B10, symBinAddr: 0xDB2E0, symSize: 0xF0 }
  - { offsetInCU: 0x24C3F, offset: 0x4E1EDF, size: 0x8, addend: 0x0, symName: '__ZN4core3ptr64drop_in_place$LT$alloc..boxed..Box$LT$syn..pat..FieldPat$GT$$GT$17hbf8f4867d84bd25dE', symObjAddr: 0x8C00, symBinAddr: 0xDB3D0, symSize: 0x140 }
  - { offsetInCU: 0x25340, offset: 0x4E25E0, size: 0x8, addend: 0x0, symName: '__ZN4core3ptr64drop_in_place$LT$alloc..boxed..Box$LT$syn..ty..BareFnArg$GT$$GT$17h6be6354eb1d1364dE', symObjAddr: 0x8D40, symBinAddr: 0xDB510, symSize: 0x140 }
  - { offsetInCU: 0x258C9, offset: 0x4E2B69, size: 0x8, addend: 0x0, symName: '__ZN4core3ptr64drop_in_place$LT$alloc..vec..Vec$LT$syn..attr..Attribute$GT$$GT$17he33e25539d5885aeE', symObjAddr: 0x8E80, symBinAddr: 0xDB650, symSize: 0xD0 }
  - { offsetInCU: 0x25BBD, offset: 0x4E2E5D, size: 0x8, addend: 0x0, symName: '__ZN4core3ptr64drop_in_place$LT$alloc..vec..Vec$LT$syn..item..TraitItem$GT$$GT$17hff1cc01ccae80d7aE', symObjAddr: 0x8F50, symBinAddr: 0xDB720, symSize: 0x80 }
  - { offsetInCU: 0x25E75, offset: 0x4E3115, size: 0x8, addend: 0x0, symName: '__ZN4core3ptr65drop_in_place$LT$alloc..vec..Vec$LT$proc_macro..TokenTree$GT$$GT$17h8abd81f8596dbc59E', symObjAddr: 0x8FD0, symBinAddr: 0xDB7A0, symSize: 0x110 }
  - { offsetInCU: 0x2626D, offset: 0x4E350D, size: 0x8, addend: 0x0, symName: '__ZN4core3ptr65drop_in_place$LT$core..option..Option$LT$syn..expr..Label$GT$$GT$17hac599686b33ef364E', symObjAddr: 0x90E0, symBinAddr: 0xDB8B0, symSize: 0x30 }
  - { offsetInCU: 0x263A7, offset: 0x4E3647, size: 0x8, addend: 0x0, symName: '__ZN4core3ptr65drop_in_place$LT$core..option..Option$LT$syn..path..QSelf$GT$$GT$17h0b8dd5cda5f2cd6bE', symObjAddr: 0x9110, symBinAddr: 0xDB8E0, symSize: 0x50 }
  - { offsetInCU: 0x26528, offset: 0x4E37C8, size: 0x8, addend: 0x0, symName: '__ZN4core3ptr65drop_in_place$LT$core..option..Option$LT$syn..stmt..Block$GT$$GT$17h74f2551ed24e2d27E', symObjAddr: 0x9160, symBinAddr: 0xDB930, symSize: 0xD0 }
  - { offsetInCU: 0x267FD, offset: 0x4E3A9D, size: 0x8, addend: 0x0, symName: '__ZN4core3ptr66drop_in_place$LT$alloc..vec..Vec$LT$syn..item..ForeignItem$GT$$GT$17h1f176e04eaf5e0dfE', symObjAddr: 0x9230, symBinAddr: 0xDBA00, symSize: 0x80 }
  - { offsetInCU: 0x26AB5, offset: 0x4E3D55, size: 0x8, addend: 0x0, symName: '__ZN4core3ptr66drop_in_place$LT$core..option..Option$LT$syn..pat..PatRest$GT$$GT$17hd5bb3bc28aa78ac1E', symObjAddr: 0x92B0, symBinAddr: 0xDBA80, symSize: 0xE0 }
  - { offsetInCU: 0x26DDD, offset: 0x4E407D, size: 0x8, addend: 0x0, symName: '__ZN4core3ptr67drop_in_place$LT$alloc..boxed..Box$LT$syn..expr..FieldValue$GT$$GT$17hbbcf67a9d5e9863cE', symObjAddr: 0x9390, symBinAddr: 0xDBB60, symSize: 0x140 }
  - { offsetInCU: 0x27365, offset: 0x4E4605, size: 0x8, addend: 0x0, symName: '__ZN4core3ptr70drop_in_place$LT$core..option..Option$LT$syn..ty..BareVariadic$GT$$GT$17h79a19250e9f043b1E', symObjAddr: 0x94D0, symBinAddr: 0xDBCA0, symSize: 0x100 }
  - { offsetInCU: 0x277D0, offset: 0x4E4A70, size: 0x8, addend: 0x0, symName: '__ZN4core3ptr72drop_in_place$LT$alloc..boxed..Box$LT$syn..path..GenericArgument$GT$$GT$17hfd308d374af4273dE', symObjAddr: 0x95D0, symBinAddr: 0xDBDA0, symSize: 0x2B0 }
  - { offsetInCU: 0x281E1, offset: 0x4E5481, size: 0x8, addend: 0x0, symName: '__ZN4core3ptr72drop_in_place$LT$core..option..Option$LT$syn..lifetime..Lifetime$GT$$GT$17h49cce6f02f9c0590E', symObjAddr: 0x9880, symBinAddr: 0xDC050, symSize: 0x30 }
  - { offsetInCU: 0x282FC, offset: 0x4E559C, size: 0x8, addend: 0x0, symName: '__ZN4core3ptr73drop_in_place$LT$alloc..boxed..Box$LT$syn..generics..GenericParam$GT$$GT$17ha26d5d145af4b203E', symObjAddr: 0x98B0, symBinAddr: 0xDC080, symSize: 0x80 }
  - { offsetInCU: 0x28472, offset: 0x4E5712, size: 0x8, addend: 0x0, symName: '__ZN4core3ptr75drop_in_place$LT$alloc..boxed..Box$LT$syn..generics..TypeParamBound$GT$$GT$17h129a4e927e5eb81bE', symObjAddr: 0x9930, symBinAddr: 0xDC100, symSize: 0x1B0 }
  - { offsetInCU: 0x28B90, offset: 0x4E5E30, size: 0x8, addend: 0x0, symName: '__ZN4core3ptr75drop_in_place$LT$core..option..Option$LT$syn..generics..WhereClause$GT$$GT$17haaf63f327098cdccE', symObjAddr: 0x9AE0, symBinAddr: 0xDC2B0, symSize: 0x90 }
  - { offsetInCU: 0x28E84, offset: 0x4E6124, size: 0x8, addend: 0x0, symName: '__ZN4core3ptr86drop_in_place$LT$syn..punctuated..Punctuated$LT$syn..pat..Pat$C$syn..token..Or$GT$$GT$17h9cc6b5f7b6d3a555E', symObjAddr: 0x9B70, symBinAddr: 0xDC340, symSize: 0x120 }
  - { offsetInCU: 0x292FF, offset: 0x4E659F, size: 0x8, addend: 0x0, symName: '__ZN4core3ptr87drop_in_place$LT$core..option..Option$LT$alloc..boxed..Box$LT$syn..pat..Pat$GT$$GT$$GT$17h51cd48973d96c411E', symObjAddr: 0x9C90, symBinAddr: 0xDC460, symSize: 0x50 }
  - { offsetInCU: 0x2946F, offset: 0x4E670F, size: 0x8, addend: 0x0, symName: '__ZN4core3ptr87drop_in_place$LT$core..option..Option$LT$alloc..boxed..Box$LT$syn..ty..Type$GT$$GT$$GT$17h103a25a4a7d7374eE', symObjAddr: 0x9CE0, symBinAddr: 0xDC4B0, symSize: 0x50 }
  - { offsetInCU: 0x295DF, offset: 0x4E687F, size: 0x8, addend: 0x0, symName: '__ZN4core3ptr89drop_in_place$LT$core..option..Option$LT$alloc..boxed..Box$LT$syn..expr..Expr$GT$$GT$$GT$17h9e02509cb2345d44E', symObjAddr: 0x9D30, symBinAddr: 0xDC500, symSize: 0x50 }
  - { offsetInCU: 0x2978D, offset: 0x4E6A2D, size: 0x8, addend: 0x0, symName: '__ZN4core3ptr89drop_in_place$LT$syn..punctuated..Punctuated$LT$syn..pat..Pat$C$syn..token..Comma$GT$$GT$17hd3a83c36827f210aE', symObjAddr: 0x9D80, symBinAddr: 0xDC550, symSize: 0x120 }
  - { offsetInCU: 0x29C5D, offset: 0x4E6EFD, size: 0x8, addend: 0x0, symName: '__ZN4core3ptr90drop_in_place$LT$core..option..Option$LT$alloc..boxed..Box$LT$syn..data..Field$GT$$GT$$GT$17h9f1aee8cd56c6727E', symObjAddr: 0x9EA0, symBinAddr: 0xDC670, symSize: 0x1B0 }
  - { offsetInCU: 0x2A34F, offset: 0x4E75EF, size: 0x8, addend: 0x0, symName: '__ZN4core3ptr90drop_in_place$LT$core..option..Option$LT$alloc..boxed..Box$LT$syn..item..FnArg$GT$$GT$$GT$17h8635495a730dc0bfE', symObjAddr: 0xA050, symBinAddr: 0xDC820, symSize: 0x50 }
  - { offsetInCU: 0x2A4F0, offset: 0x4E7790, size: 0x8, addend: 0x0, symName: '__ZN4core3ptr91drop_in_place$LT$syn..punctuated..Punctuated$LT$syn..expr..Expr$C$syn..token..Comma$GT$$GT$17h6f261e8f470c81f2E', symObjAddr: 0xA0A0, symBinAddr: 0xDC870, symSize: 0x120 }
  - { offsetInCU: 0x2A97E, offset: 0x4E7C1E, size: 0x8, addend: 0x0, symName: '__ZN4core3ptr92drop_in_place$LT$core..option..Option$LT$$LP$syn..token..As$C$proc_macro2..Ident$RP$$GT$$GT$17h12a88945917fa9dbE', symObjAddr: 0xA1C0, symBinAddr: 0xDC990, symSize: 0x30 }
  - { offsetInCU: 0x2AAD7, offset: 0x4E7D77, size: 0x8, addend: 0x0, symName: '__ZN4core3ptr92drop_in_place$LT$core..option..Option$LT$alloc..boxed..Box$LT$syn..data..Variant$GT$$GT$$GT$17hb65f9b5d99f448afE', symObjAddr: 0xA1F0, symBinAddr: 0xDC9C0, symSize: 0x170 }
  - { offsetInCU: 0x2B103, offset: 0x4E83A3, size: 0x8, addend: 0x0, symName: '__ZN4core3ptr92drop_in_place$LT$syn..punctuated..Punctuated$LT$syn..item..FnArg$C$syn..token..Comma$GT$$GT$17h7de33e77eabaea82E', symObjAddr: 0xA360, symBinAddr: 0xDCB30, symSize: 0x130 }
  - { offsetInCU: 0x2B569, offset: 0x4E8809, size: 0x8, addend: 0x0, symName: '__ZN4core3ptr94drop_in_place$LT$syn..punctuated..Punctuated$LT$syn..data..Variant$C$syn..token..Comma$GT$$GT$17h310cd79aba4529ccE', symObjAddr: 0xA490, symBinAddr: 0xDCC60, symSize: 0xE0 }
  - { offsetInCU: 0x2B8C9, offset: 0x4E8B69, size: 0x8, addend: 0x0, symName: '__ZN4core3ptr94drop_in_place$LT$syn..punctuated..Punctuated$LT$syn..item..UseTree$C$syn..token..Comma$GT$$GT$17h6236871345889df7E', symObjAddr: 0xA570, symBinAddr: 0xDCD40, symSize: 0xF0 }
  - { offsetInCU: 0x2BC0F, offset: 0x4E8EAF, size: 0x8, addend: 0x0, symName: '__ZN4core3ptr94drop_in_place$LT$syn..punctuated..Punctuated$LT$syn..pat..FieldPat$C$syn..token..Comma$GT$$GT$17h43ec25af986ef674E', symObjAddr: 0xA660, symBinAddr: 0xDCE30, symSize: 0xF0 }
  - { offsetInCU: 0x2BF0E, offset: 0x4E91AE, size: 0x8, addend: 0x0, symName: '__ZN4core3ptr94drop_in_place$LT$syn..punctuated..Punctuated$LT$syn..ty..BareFnArg$C$syn..token..Comma$GT$$GT$17h7ba4c699ee390ebaE', symObjAddr: 0xA750, symBinAddr: 0xDCF20, symSize: 0xF0 }
  - { offsetInCU: 0x2C20F, offset: 0x4E94AF, size: 0x8, addend: 0x0, symName: '__ZN4core3ptr96drop_in_place$LT$core..option..Option$LT$alloc..boxed..Box$LT$syn..path..PathSegment$GT$$GT$$GT$17h5de12a5a0f9e9ef9E', symObjAddr: 0xA840, symBinAddr: 0xDD010, symSize: 0x1A0 }
  - { offsetInCU: 0x2C8D0, offset: 0x4E9B70, size: 0x8, addend: 0x0, symName: '__ZN4core3ptr97drop_in_place$LT$syn..punctuated..Punctuated$LT$syn..expr..FieldValue$C$syn..token..Comma$GT$$GT$17hf58d0a9a09266ab3E', symObjAddr: 0xA9E0, symBinAddr: 0xDD1B0, symSize: 0xF0 }
  - { offsetInCU: 0x2CC49, offset: 0x4E9EE9, size: 0x8, addend: 0x0, symName: '__ZN4core3ptr98drop_in_place$LT$syn..punctuated..Punctuated$LT$syn..lifetime..Lifetime$C$syn..token..Plus$GT$$GT$17h600c2b78f78fd2b9E', symObjAddr: 0xAAD0, symBinAddr: 0xDD2A0, symSize: 0xD0 }
  - { offsetInCU: 0x341C4, offset: 0x4F1464, size: 0x8, addend: 0x0, symName: __ZN3syn4item7parsing18parse_rest_of_item17ha26e4acb71011a19E, symObjAddr: 0xAC50, symBinAddr: 0xDD420, symSize: 0x4180 }
  - { offsetInCU: 0x40A0D, offset: 0x4FDCAD, size: 0x8, addend: 0x0, symName: __ZN3syn4item7parsing12parse_macro217hf6831cf9afcd0b55E, symObjAddr: 0xFC80, symBinAddr: 0xE2450, symSize: 0x8D0 }
  - { offsetInCU: 0x42555, offset: 0x4FF7F5, size: 0x8, addend: 0x0, symName: __ZN3syn4item7parsing14parse_item_use17h48b98338f7612e03E, symObjAddr: 0x10550, symBinAddr: 0xE2D20, symSize: 0x580 }
  - { offsetInCU: 0x42FE4, offset: 0x500284, size: 0x8, addend: 0x0, symName: __ZN3syn4item7parsing14parse_use_tree17h3459008fc061dfc3E, symObjAddr: 0x10AD0, symBinAddr: 0xE32A0, symSize: 0xEA0 }
  - { offsetInCU: 0x45A5C, offset: 0x502CFC, size: 0x8, addend: 0x0, symName: __ZN3syn4item7parsing14peek_signature17h6fcb1c3323e18828E, symObjAddr: 0x11970, symBinAddr: 0xE4140, symSize: 0x3E0 }
  - { offsetInCU: 0x46DB4, offset: 0x504054, size: 0x8, addend: 0x0, symName: __ZN3syn4item7parsing16parse_rest_of_fn17hd069073817548a43E, symObjAddr: 0x11D50, symBinAddr: 0xE4520, symSize: 0x540 }
  - { offsetInCU: 0x47AE1, offset: 0x504D81, size: 0x8, addend: 0x0, symName: __ZN3syn4item7parsing24parse_fn_arg_or_variadic17h2531ec3f9cf1e73bE, symObjAddr: 0x12290, symBinAddr: 0xE4A60, symSize: 0xE20 }
  - { offsetInCU: 0x4A775, offset: 0x507A15, size: 0x8, addend: 0x0, symName: __ZN3syn4item7parsing13parse_fn_args17hef126a53be169aa0E, symObjAddr: 0x130B0, symBinAddr: 0xE5880, symSize: 0x7D0 }
  - { offsetInCU: 0x4B5D4, offset: 0x508874, size: 0x8, addend: 0x0, symName: __ZN3syn4item7parsing23parse_foreign_item_type17h802ebbe8ec67c11cE, symObjAddr: 0x13880, symBinAddr: 0xE6050, symSize: 0x450 }
  - { offsetInCU: 0x4BCAD, offset: 0x508F4D, size: 0x8, addend: 0x0, symName: __ZN3syn4item7parsing15parse_item_type17ha00b234c7541791bE, symObjAddr: 0x13CD0, symBinAddr: 0xE64A0, symSize: 0x5F0 }
  - { offsetInCU: 0x4C6E3, offset: 0x509983, size: 0x8, addend: 0x0, symName: __ZN3syn4item7parsing26parse_trait_or_trait_alias17h869d58d0d710f92eE, symObjAddr: 0x142C0, symBinAddr: 0xE6A90, symSize: 0x880 }
  - { offsetInCU: 0x4E039, offset: 0x50B2D9, size: 0x8, addend: 0x0, symName: __ZN3syn4item7parsing19parse_rest_of_trait17hcfaaa983dae95479E, symObjAddr: 0x14B40, symBinAddr: 0xE7310, symSize: 0xB90 }
  - { offsetInCU: 0x4F821, offset: 0x50CAC1, size: 0x8, addend: 0x0, symName: __ZN3syn4item7parsing26parse_start_of_trait_alias17h30b54fc2a2c484e2E, symObjAddr: 0x156D0, symBinAddr: 0xE7EA0, symSize: 0x4B0 }
  - { offsetInCU: 0x50287, offset: 0x50D527, size: 0x8, addend: 0x0, symName: __ZN3syn4item7parsing25parse_rest_of_trait_alias17hc3ff4bca2b4f24ffE, symObjAddr: 0x15B80, symBinAddr: 0xE8350, symSize: 0x670 }
  - { offsetInCU: 0x50F1E, offset: 0x50E1BE, size: 0x8, addend: 0x0, symName: __ZN3syn4item7parsing21parse_trait_item_type17h346cdab40b3c4f88E, symObjAddr: 0x161F0, symBinAddr: 0xE89C0, symSize: 0x4D0 }
  - { offsetInCU: 0x51710, offset: 0x50E9B0, size: 0x8, addend: 0x0, symName: __ZN3syn4item7parsing10parse_impl17hdf5cb50f2b1c1c56E, symObjAddr: 0x166C0, symBinAddr: 0xE8E90, symSize: 0x1700 }
  - { offsetInCU: 0x5357E, offset: 0x51081E, size: 0x8, addend: 0x0, symName: __ZN3syn4item7parsing18parse_impl_item_fn17h8007279fefb73b29E, symObjAddr: 0x17DC0, symBinAddr: 0xEA590, symSize: 0x770 }
  - { offsetInCU: 0x542D2, offset: 0x511572, size: 0x8, addend: 0x0, symName: __ZN3syn4item7parsing20parse_impl_item_type17hcc883153d233f1e7E, symObjAddr: 0x18530, symBinAddr: 0xEAD00, symSize: 0x49B }
  - { offsetInCU: 0x599EF, offset: 0x516C8F, size: 0x8, addend: 0x0, symName: __ZN5alloc5alloc15exchange_malloc17h9a87608d0224859dE, symObjAddr: 0xAC10, symBinAddr: 0xDD3E0, symSize: 0x40 }
  - { offsetInCU: 0x5D689, offset: 0x51A929, size: 0x8, addend: 0x0, symName: '__ZN5alloc3vec16Vec$LT$T$C$A$GT$4push17h8559c656bf8cfdb7E', symObjAddr: 0xABA0, symBinAddr: 0xDD370, symSize: 0x70 }
  - { offsetInCU: 0x5E749, offset: 0x51B9E9, size: 0x8, addend: 0x0, symName: __ZN3syn4item7parsing16FlexibleItemType5parse17ha5c93c92e512e37dE, symObjAddr: 0xEDD0, symBinAddr: 0xE15A0, symSize: 0xA20 }
  - { offsetInCU: 0x5F472, offset: 0x51C712, size: 0x8, addend: 0x0, symName: __ZN3syn4item7parsing16FlexibleItemType21parse_optional_bounds17h6e18b1c664fc4e1bE, symObjAddr: 0xF7F0, symBinAddr: 0xE1FC0, symSize: 0x340 }
  - { offsetInCU: 0x5FB79, offset: 0x51CE19, size: 0x8, addend: 0x0, symName: __ZN3syn4item7parsing16FlexibleItemType25parse_optional_definition17hf229b9de02f2ada3E, symObjAddr: 0xFB30, symBinAddr: 0xE2300, symSize: 0x150 }
  - { offsetInCU: 0x55F, offset: 0x528AD6, size: 0x8, addend: 0x0, symName: '__ZN3syn8generics8printing80_$LT$impl$u20$quote..to_tokens..ToTokens$u20$for$u20$syn..generics..Generics$GT$9to_tokens17hd4a2af35b3698905E', symObjAddr: 0xF4D0, symBinAddr: 0xF8E40, symSize: 0x220 }
  - { offsetInCU: 0xD63, offset: 0x5292DA, size: 0x8, addend: 0x0, symName: '__ZN3syn8generics8printing84_$LT$impl$u20$quote..to_tokens..ToTokens$u20$for$u20$syn..generics..ImplGenerics$GT$9to_tokens17h4ab04c178462d76aE', symObjAddr: 0xF6F0, symBinAddr: 0xF9060, symSize: 0x650 }
  - { offsetInCU: 0x21BF, offset: 0x52A736, size: 0x8, addend: 0x0, symName: '__ZN3syn8generics8printing84_$LT$impl$u20$quote..to_tokens..ToTokens$u20$for$u20$syn..generics..TypeGenerics$GT$9to_tokens17h0622ece7b6d3cd84E', symObjAddr: 0xFD40, symBinAddr: 0xF96B0, symSize: 0x360 }
  - { offsetInCU: 0x2D51, offset: 0x52B2C8, size: 0x8, addend: 0x0, symName: '__ZN3syn8generics8printing86_$LT$impl$u20$quote..to_tokens..ToTokens$u20$for$u20$syn..generics..BoundLifetimes$GT$9to_tokens17hd15a7a043033bd7bE', symObjAddr: 0x10110, symBinAddr: 0xF9A10, symSize: 0x160 }
  - { offsetInCU: 0x3256, offset: 0x52B7CD, size: 0x8, addend: 0x0, symName: '__ZN3syn8generics8printing81_$LT$impl$u20$quote..to_tokens..ToTokens$u20$for$u20$syn..generics..TypeParam$GT$9to_tokens17had0957bfff47d1f9E', symObjAddr: 0x10490, symBinAddr: 0xF9B70, symSize: 0x1E0 }
  - { offsetInCU: 0x3992, offset: 0x52BF09, size: 0x8, addend: 0x0, symName: '__ZN3syn8generics8printing82_$LT$impl$u20$quote..to_tokens..ToTokens$u20$for$u20$syn..generics..TraitBound$GT$9to_tokens17h377c6cef550ec1bfE', symObjAddr: 0x10670, symBinAddr: 0xF9D50, symSize: 0x200 }
  - { offsetInCU: 0x3FE1, offset: 0x52C558, size: 0x8, addend: 0x0, symName: '__ZN3syn8generics8printing82_$LT$impl$u20$quote..to_tokens..ToTokens$u20$for$u20$syn..generics..ConstParam$GT$9to_tokens17hee7453fb2d0e238bE', symObjAddr: 0x108A0, symBinAddr: 0xF9F50, symSize: 0x1D0 }
  - { offsetInCU: 0x4382, offset: 0x52C8F9, size: 0x8, addend: 0x0, symName: '__ZN3syn8generics8printing83_$LT$impl$u20$quote..to_tokens..ToTokens$u20$for$u20$syn..generics..WhereClause$GT$9to_tokens17h909a6fdfe3e31442E', symObjAddr: 0x10A70, symBinAddr: 0xFA120, symSize: 0x120 }
  - { offsetInCU: 0x492C, offset: 0x52CEA3, size: 0x8, addend: 0x0, symName: '__ZN3syn8generics8printing85_$LT$impl$u20$quote..to_tokens..ToTokens$u20$for$u20$syn..generics..PredicateType$GT$9to_tokens17h8b4ffaf01fdc18f1E', symObjAddr: 0x10CF0, symBinAddr: 0xFA240, symSize: 0x320 }
  - { offsetInCU: 0x5437, offset: 0x52D9AE, size: 0x8, addend: 0x0, symName: '__ZN84_$LT$syn..generics..TypeParams$u20$as$u20$core..iter..traits..iterator..Iterator$GT$4next17h891d32c21a4e3c50E', symObjAddr: 0x87F0, symBinAddr: 0xF2E20, symSize: 0x0 }
  - { offsetInCU: 0x54BC, offset: 0x52DA33, size: 0x8, addend: 0x0, symName: '__ZN3syn8generics7parsing71_$LT$impl$u20$syn..parse..Parse$u20$for$u20$syn..generics..Generics$GT$5parse17h41c098435a7be9a0E', symObjAddr: 0x8920, symBinAddr: 0xF2E70, symSize: 0x1100 }
  - { offsetInCU: 0x7B75, offset: 0x5300EC, size: 0x8, addend: 0x0, symName: '__ZN3syn8generics7parsing76_$LT$impl$u20$syn..parse..Parse$u20$for$u20$syn..generics..LifetimeParam$GT$5parse17h5d8a6609f02a7b5bE', symObjAddr: 0xA520, symBinAddr: 0xF3F70, symSize: 0x800 }
  - { offsetInCU: 0x8BF9, offset: 0x531170, size: 0x8, addend: 0x0, symName: '__ZN3syn8generics7parsing77_$LT$impl$u20$syn..parse..Parse$u20$for$u20$syn..generics..BoundLifetimes$GT$5parse17hc16736384c98dd41E', symObjAddr: 0xAD20, symBinAddr: 0xF4770, symSize: 0x6A0 }
  - { offsetInCU: 0x9963, offset: 0x531EDA, size: 0x8, addend: 0x0, symName: '__ZN3syn8generics7parsing72_$LT$impl$u20$syn..parse..Parse$u20$for$u20$syn..generics..TypeParam$GT$5parse17h9c7ea43a33d4115aE', symObjAddr: 0xB3C0, symBinAddr: 0xF4E10, symSize: 0x770 }
  - { offsetInCU: 0xAA9F, offset: 0x533016, size: 0x8, addend: 0x0, symName: '__ZN3syn8generics7parsing77_$LT$impl$u20$syn..parse..Parse$u20$for$u20$syn..generics..TypeParamBound$GT$5parse17h25e623b87f173e12E', symObjAddr: 0xBB30, symBinAddr: 0xF5580, symSize: 0x1250 }
  - { offsetInCU: 0xE442, offset: 0x5369B9, size: 0x8, addend: 0x0, symName: '__ZN3syn8generics7parsing73_$LT$impl$u20$syn..parse..Parse$u20$for$u20$syn..generics..TraitBound$GT$5parse17h690a689474a7b206E', symObjAddr: 0xD250, symBinAddr: 0xF6CA0, symSize: 0x6B0 }
  - { offsetInCU: 0xF37E, offset: 0x5378F5, size: 0x8, addend: 0x0, symName: '__ZN3syn8generics7parsing73_$LT$impl$u20$syn..parse..Parse$u20$for$u20$syn..generics..ConstParam$GT$5parse17h7d6405b926c1a94eE', symObjAddr: 0xD9E0, symBinAddr: 0xF7350, symSize: 0x970 }
  - { offsetInCU: 0x1083E, offset: 0x538DB5, size: 0x8, addend: 0x0, symName: '__ZN3syn8generics7parsing74_$LT$impl$u20$syn..parse..Parse$u20$for$u20$syn..generics..WhereClause$GT$5parse17hd23830e75acad64dE', symObjAddr: 0xE350, symBinAddr: 0xF7CC0, symSize: 0x3B0 }
  - { offsetInCU: 0x112F5, offset: 0x53986C, size: 0x8, addend: 0x0, symName: '__ZN3syn8generics7parsing77_$LT$impl$u20$syn..parse..Parse$u20$for$u20$syn..generics..WherePredicate$GT$5parse17h70c29b17190c019cE', symObjAddr: 0xE700, symBinAddr: 0xF8070, symSize: 0xDD0 }
  - { offsetInCU: 0x131FB, offset: 0x53B772, size: 0x8, addend: 0x0, symName: '__ZN74_$LT$syn..generics..GenericParam$u20$as$u20$quote..to_tokens..ToTokens$GT$9to_tokens17h597acb1380a7ac96E', symObjAddr: 0x11010, symBinAddr: 0xFA560, symSize: 0x270 }
  - { offsetInCU: 0x188B6, offset: 0x540E2D, size: 0x8, addend: 0x0, symName: '__ZN3syn3gen5clone78_$LT$impl$u20$core..clone..Clone$u20$for$u20$syn..generics..WherePredicate$GT$5clone17hbd6bd00e6f5532d2E', symObjAddr: 0x125F0, symBinAddr: 0xFB3E0, symSize: 0x100 }
  - { offsetInCU: 0x18B52, offset: 0x5410C9, size: 0x8, addend: 0x0, symName: '__ZN3syn3gen5clone74_$LT$impl$u20$core..clone..Clone$u20$for$u20$syn..generics..ConstParam$GT$5clone17h8bc67da494863269E', symObjAddr: 0x11720, symBinAddr: 0xFA7D0, symSize: 0x1F0 }
  - { offsetInCU: 0x18E0B, offset: 0x541382, size: 0x8, addend: 0x0, symName: '__ZN3syn3gen5clone72_$LT$impl$u20$core..clone..Clone$u20$for$u20$syn..generics..Generics$GT$5clone17h371b39e9c163a495E', symObjAddr: 0x11980, symBinAddr: 0xFA9C0, symSize: 0x110 }
  - { offsetInCU: 0x18F04, offset: 0x54147B, size: 0x8, addend: 0x0, symName: '__ZN3syn3gen5clone77_$LT$impl$u20$core..clone..Clone$u20$for$u20$syn..generics..LifetimeParam$GT$5clone17hbf15cdf236adaa10E', symObjAddr: 0x11A90, symBinAddr: 0xFAAD0, symSize: 0x130 }
  - { offsetInCU: 0x19129, offset: 0x5416A0, size: 0x8, addend: 0x0, symName: '__ZN3syn3gen5clone77_$LT$impl$u20$core..clone..Clone$u20$for$u20$syn..generics..PredicateType$GT$5clone17h013cd41ed055cad0E', symObjAddr: 0x11CA0, symBinAddr: 0xFAC00, symSize: 0x150 }
  - { offsetInCU: 0x192BC, offset: 0x541833, size: 0x8, addend: 0x0, symName: '__ZN3syn3gen5clone73_$LT$impl$u20$core..clone..Clone$u20$for$u20$syn..generics..TypeParam$GT$5clone17hddca7c785eaee5f9E', symObjAddr: 0x11F40, symBinAddr: 0xFAD50, symSize: 0x2B0 }
  - { offsetInCU: 0x19784, offset: 0x541CFB, size: 0x8, addend: 0x0, symName: '__ZN3syn3gen5clone78_$LT$impl$u20$core..clone..Clone$u20$for$u20$syn..generics..TypeParamBound$GT$5clone17hc8c21b6b99f4be95E', symObjAddr: 0x121F0, symBinAddr: 0xFB000, symSize: 0x3E0 }
  - { offsetInCU: 0x1CAB1, offset: 0x545028, size: 0x8, addend: 0x0, symName: '__ZN4core3ptr100drop_in_place$LT$core..option..Option$LT$alloc..boxed..Box$LT$syn..path..GenericArgument$GT$$GT$$GT$17h3a7c44b9e57fe410E', symObjAddr: 0x360, symBinAddr: 0xEB2E0, symSize: 0x50 }
  - { offsetInCU: 0x1CCBC, offset: 0x545233, size: 0x8, addend: 0x0, symName: '__ZN4core3ptr100drop_in_place$LT$syn..punctuated..Punctuated$LT$syn..path..PathSegment$C$syn..token..PathSep$GT$$GT$17he41ef64147139591E', symObjAddr: 0x3B0, symBinAddr: 0xEB330, symSize: 0x170 }
  - { offsetInCU: 0x1D335, offset: 0x5458AC, size: 0x8, addend: 0x0, symName: '__ZN4core3ptr103drop_in_place$LT$core..option..Option$LT$alloc..boxed..Box$LT$syn..generics..TypeParamBound$GT$$GT$$GT$17hb14e4384a768542bE', symObjAddr: 0x520, symBinAddr: 0xEB4A0, symSize: 0x50 }
  - { offsetInCU: 0x1D55F, offset: 0x545AD6, size: 0x8, addend: 0x0, symName: '__ZN4core3ptr103drop_in_place$LT$core..option..Option$LT$alloc..boxed..Box$LT$syn..generics..WherePredicate$GT$$GT$$GT$17he190813f4819c5dbE', symObjAddr: 0x570, symBinAddr: 0xEB4F0, symSize: 0xD0 }
  - { offsetInCU: 0x1D8F3, offset: 0x545E6A, size: 0x8, addend: 0x0, symName: '__ZN4core3ptr103drop_in_place$LT$syn..punctuated..Punctuated$LT$syn..generics..GenericParam$C$syn..token..Comma$GT$$GT$17h0c6077a988036760E.llvm.1278538373299499664', symObjAddr: 0x640, symBinAddr: 0xEB5C0, symSize: 0xF0 }
  - { offsetInCU: 0x1DD53, offset: 0x5462CA, size: 0x8, addend: 0x0, symName: '__ZN4core3ptr104drop_in_place$LT$syn..punctuated..Punctuated$LT$syn..generics..TypeParamBound$C$syn..token..Plus$GT$$GT$17h724e4d9d1d65061aE', symObjAddr: 0x730, symBinAddr: 0xEB6B0, symSize: 0x170 }
  - { offsetInCU: 0x1E2ED, offset: 0x546864, size: 0x8, addend: 0x0, symName: '__ZN4core3ptr105drop_in_place$LT$syn..punctuated..Punctuated$LT$syn..generics..WherePredicate$C$syn..token..Comma$GT$$GT$17h18b5b213db2a676cE', symObjAddr: 0x8A0, symBinAddr: 0xEB820, symSize: 0x80 }
  - { offsetInCU: 0x1E5ED, offset: 0x546B64, size: 0x8, addend: 0x0, symName: '__ZN4core3ptr34drop_in_place$LT$syn..lit..Lit$GT$17hd64dde89a262341dE', symObjAddr: 0x920, symBinAddr: 0xEB8A0, symSize: 0x120 }
  - { offsetInCU: 0x1EB19, offset: 0x547090, size: 0x8, addend: 0x0, symName: '__ZN4core3ptr34drop_in_place$LT$syn..pat..Pat$GT$17hf88887878261d63cE', symObjAddr: 0xA40, symBinAddr: 0xEB9C0, symSize: 0x1100 }
  - { offsetInCU: 0x231B1, offset: 0x54B728, size: 0x8, addend: 0x0, symName: '__ZN4core3ptr34drop_in_place$LT$syn..ty..Type$GT$17ha80dd29b0f9d4a3fE.llvm.1278538373299499664', symObjAddr: 0x1B40, symBinAddr: 0xECAC0, symSize: 0x520 }
  - { offsetInCU: 0x24845, offset: 0x54CDBC, size: 0x8, addend: 0x0, symName: '__ZN4core3ptr36drop_in_place$LT$syn..expr..Expr$GT$17h10f573b40ddd212cE.llvm.1278538373299499664', symObjAddr: 0x2060, symBinAddr: 0xECFE0, symSize: 0x2840 }
  - { offsetInCU: 0x2E923, offset: 0x556E9A, size: 0x8, addend: 0x0, symName: '__ZN4core3ptr36drop_in_place$LT$syn..mac..Macro$GT$17hc3b30a7a8a34cc2dE', symObjAddr: 0x48A0, symBinAddr: 0xEF820, symSize: 0x40 }
  - { offsetInCU: 0x2E9D9, offset: 0x556F50, size: 0x8, addend: 0x0, symName: '__ZN4core3ptr36drop_in_place$LT$syn..path..Path$GT$17h75c74a97d5f0a03bE', symObjAddr: 0x48E0, symBinAddr: 0xEF860, symSize: 0x280 }
  - { offsetInCU: 0x2F486, offset: 0x5579FD, size: 0x8, addend: 0x0, symName: '__ZN4core3ptr37drop_in_place$LT$syn..stmt..Block$GT$17h6fc3254d5688f2c3E', symObjAddr: 0x4B60, symBinAddr: 0xEFAE0, symSize: 0xD0 }
  - { offsetInCU: 0x2F75D, offset: 0x557CD4, size: 0x8, addend: 0x0, symName: '__ZN4core3ptr38drop_in_place$LT$syn..expr..Member$GT$17h6b0cf84594ce6bceE', symObjAddr: 0x4C30, symBinAddr: 0xEFBB0, symSize: 0x30 }
  - { offsetInCU: 0x2F859, offset: 0x557DD0, size: 0x8, addend: 0x0, symName: '__ZN4core3ptr39drop_in_place$LT$proc_macro2..Ident$GT$17ha28fef9769e267d9E.llvm.1278538373299499664', symObjAddr: 0x4C60, symBinAddr: 0xEFBE0, symSize: 0x30 }
  - { offsetInCU: 0x2F936, offset: 0x557EAD, size: 0x8, addend: 0x0, symName: '__ZN4core3ptr40drop_in_place$LT$syn..ty..ReturnType$GT$17h035a612e322b6510E', symObjAddr: 0x4C90, symBinAddr: 0xEFC10, symSize: 0x50 }
  - { offsetInCU: 0x2FAA6, offset: 0x55801D, size: 0x8, addend: 0x0, symName: '__ZN4core3ptr41drop_in_place$LT$syn..expr..ExprConst$GT$17hbfe19d5d621e6836E', symObjAddr: 0x4CE0, symBinAddr: 0xEFC60, symSize: 0x180 }
  - { offsetInCU: 0x30093, offset: 0x55860A, size: 0x8, addend: 0x0, symName: '__ZN4core3ptr44drop_in_place$LT$syn..lifetime..Lifetime$GT$17he37fa474f03de7b1E.llvm.1278538373299499664', symObjAddr: 0x4EA0, symBinAddr: 0xEFDE0, symSize: 0x30 }
  - { offsetInCU: 0x3020B, offset: 0x558782, size: 0x8, addend: 0x0, symName: '__ZN4core3ptr44drop_in_place$LT$syn..parse..ParseBuffer$GT$17hf792ff20095efc35E', symObjAddr: 0x4ED0, symBinAddr: 0xEFE10, symSize: 0x70 }
  - { offsetInCU: 0x30622, offset: 0x558B99, size: 0x8, addend: 0x0, symName: '__ZN4core3ptr45drop_in_place$LT$proc_macro2..TokenStream$GT$17h76e8e68015f4924dE.llvm.1278538373299499664', symObjAddr: 0x4F40, symBinAddr: 0xEFE80, symSize: 0x140 }
  - { offsetInCU: 0x30ABC, offset: 0x559033, size: 0x8, addend: 0x0, symName: '__ZN4core3ptr45drop_in_place$LT$syn..generics..TypeParam$GT$17h188a459c1380ac75E.llvm.1278538373299499664', symObjAddr: 0x5080, symBinAddr: 0xEFFC0, symSize: 0x230 }
  - { offsetInCU: 0x31331, offset: 0x5598A8, size: 0x8, addend: 0x0, symName: '__ZN4core3ptr45drop_in_place$LT$syn..path..PathArguments$GT$17hdbc6dfac6f3334e6E', symObjAddr: 0x52B0, symBinAddr: 0xF01F0, symSize: 0x190 }
  - { offsetInCU: 0x31801, offset: 0x559D78, size: 0x8, addend: 0x0, symName: '__ZN4core3ptr46drop_in_place$LT$syn..generics..ConstParam$GT$17h7a9b900b2b88bfcdE.llvm.1278538373299499664', symObjAddr: 0x5440, symBinAddr: 0xF0380, symSize: 0x150 }
  - { offsetInCU: 0x31C25, offset: 0x55A19C, size: 0x8, addend: 0x0, symName: '__ZN4core3ptr46drop_in_place$LT$syn..generics..TraitBound$GT$17hbfe193394d805ef5E.llvm.1278538373299499664', symObjAddr: 0x5590, symBinAddr: 0xF04D0, symSize: 0x130 }
  - { offsetInCU: 0x320C8, offset: 0x55A63F, size: 0x8, addend: 0x0, symName: '__ZN4core3ptr47drop_in_place$LT$syn..path..GenericArgument$GT$17h593f06d6ca9a94d2E', symObjAddr: 0x56C0, symBinAddr: 0xF0600, symSize: 0x4A0 }
  - { offsetInCU: 0x331CE, offset: 0x55B745, size: 0x8, addend: 0x0, symName: '__ZN4core3ptr49drop_in_place$LT$syn..generics..LifetimeParam$GT$17h3a8835ab294bfd16E.llvm.1278538373299499664', symObjAddr: 0x5B60, symBinAddr: 0xF0AA0, symSize: 0xF0 }
  - { offsetInCU: 0x33604, offset: 0x55BB7B, size: 0x8, addend: 0x0, symName: '__ZN4core3ptr50drop_in_place$LT$syn..generics..TypeParamBound$GT$17h81b4325b5900604dE', symObjAddr: 0x5CC0, symBinAddr: 0xF0B90, symSize: 0xA0 }
  - { offsetInCU: 0x3376A, offset: 0x55BCE1, size: 0x8, addend: 0x0, symName: '__ZN4core3ptr58drop_in_place$LT$alloc..vec..Vec$LT$syn..expr..Arm$GT$$GT$17hff9224aadf2233b8E', symObjAddr: 0x5DA0, symBinAddr: 0xF0C30, symSize: 0xD0 }
  - { offsetInCU: 0x33A2A, offset: 0x55BFA1, size: 0x8, addend: 0x0, symName: '__ZN4core3ptr59drop_in_place$LT$alloc..boxed..Box$LT$syn..pat..Pat$GT$$GT$17h622b0c1db21c0742E', symObjAddr: 0x5E70, symBinAddr: 0xF0D00, symSize: 0x50 }
  - { offsetInCU: 0x33B83, offset: 0x55C0FA, size: 0x8, addend: 0x0, symName: '__ZN4core3ptr59drop_in_place$LT$alloc..boxed..Box$LT$syn..ty..Type$GT$$GT$17hde45fa887dd8b605E', symObjAddr: 0x5EC0, symBinAddr: 0xF0D50, symSize: 0x50 }
  - { offsetInCU: 0x33CDC, offset: 0x55C253, size: 0x8, addend: 0x0, symName: '__ZN4core3ptr61drop_in_place$LT$alloc..boxed..Box$LT$syn..expr..Expr$GT$$GT$17hbb42293869113942E', symObjAddr: 0x5F10, symBinAddr: 0xF0DA0, symSize: 0x50 }
  - { offsetInCU: 0x33EB1, offset: 0x55C428, size: 0x8, addend: 0x0, symName: '__ZN4core3ptr61drop_in_place$LT$syn..path..ParenthesizedGenericArguments$GT$17h6b1731382637937fE', symObjAddr: 0x5F60, symBinAddr: 0xF0DF0, symSize: 0x170 }
  - { offsetInCU: 0x344A7, offset: 0x55CA1E, size: 0x8, addend: 0x0, symName: '__ZN4core3ptr62drop_in_place$LT$syn..path..AngleBracketedGenericArguments$GT$17hf8fa172f007a1473E', symObjAddr: 0x60F0, symBinAddr: 0xF0F60, symSize: 0x120 }
  - { offsetInCU: 0x348F2, offset: 0x55CE69, size: 0x8, addend: 0x0, symName: '__ZN4core3ptr63drop_in_place$LT$alloc..boxed..Box$LT$syn..lit..LitRepr$GT$$GT$17h6e3a82ea4de7b84cE', symObjAddr: 0x6210, symBinAddr: 0xF1080, symSize: 0x60 }
  - { offsetInCU: 0x34BF9, offset: 0x55D170, size: 0x8, addend: 0x0, symName: '__ZN4core3ptr64drop_in_place$LT$alloc..boxed..Box$LT$syn..pat..FieldPat$GT$$GT$17hbf8f4867d84bd25dE', symObjAddr: 0x6270, symBinAddr: 0xF10E0, symSize: 0x140 }
  - { offsetInCU: 0x352FA, offset: 0x55D871, size: 0x8, addend: 0x0, symName: '__ZN4core3ptr64drop_in_place$LT$alloc..boxed..Box$LT$syn..ty..BareFnArg$GT$$GT$17h6be6354eb1d1364dE', symObjAddr: 0x63B0, symBinAddr: 0xF1220, symSize: 0x140 }
  - { offsetInCU: 0x35883, offset: 0x55DDFA, size: 0x8, addend: 0x0, symName: '__ZN4core3ptr64drop_in_place$LT$alloc..vec..Vec$LT$syn..attr..Attribute$GT$$GT$17he33e25539d5885aeE.llvm.1278538373299499664', symObjAddr: 0x64F0, symBinAddr: 0xF1360, symSize: 0xD0 }
  - { offsetInCU: 0x35B77, offset: 0x55E0EE, size: 0x8, addend: 0x0, symName: '__ZN4core3ptr65drop_in_place$LT$alloc..vec..Vec$LT$proc_macro..TokenTree$GT$$GT$17h8abd81f8596dbc59E', symObjAddr: 0x65E0, symBinAddr: 0xF1430, symSize: 0x110 }
  - { offsetInCU: 0x35F6F, offset: 0x55E4E6, size: 0x8, addend: 0x0, symName: '__ZN4core3ptr65drop_in_place$LT$core..option..Option$LT$syn..expr..Label$GT$$GT$17hac599686b33ef364E', symObjAddr: 0x66F0, symBinAddr: 0xF1540, symSize: 0x30 }
  - { offsetInCU: 0x360A9, offset: 0x55E620, size: 0x8, addend: 0x0, symName: '__ZN4core3ptr66drop_in_place$LT$core..option..Option$LT$syn..pat..PatRest$GT$$GT$17hd5bb3bc28aa78ac1E', symObjAddr: 0x6720, symBinAddr: 0xF1570, symSize: 0xE0 }
  - { offsetInCU: 0x363D1, offset: 0x55E948, size: 0x8, addend: 0x0, symName: '__ZN4core3ptr67drop_in_place$LT$alloc..boxed..Box$LT$syn..expr..FieldValue$GT$$GT$17hbbcf67a9d5e9863cE', symObjAddr: 0x6800, symBinAddr: 0xF1650, symSize: 0x140 }
  - { offsetInCU: 0x3693A, offset: 0x55EEB1, size: 0x8, addend: 0x0, symName: '__ZN4core3ptr68drop_in_place$LT$alloc..boxed..Box$LT$syn..path..PathSegment$GT$$GT$17h99aaf90b3262bc1eE', symObjAddr: 0x6940, symBinAddr: 0xF1790, symSize: 0x1B0 }
  - { offsetInCU: 0x37048, offset: 0x55F5BF, size: 0x8, addend: 0x0, symName: '__ZN4core3ptr70drop_in_place$LT$core..option..Option$LT$syn..ty..BareVariadic$GT$$GT$17h79a19250e9f043b1E', symObjAddr: 0x6AF0, symBinAddr: 0xF1940, symSize: 0x100 }
  - { offsetInCU: 0x374B3, offset: 0x55FA2A, size: 0x8, addend: 0x0, symName: '__ZN4core3ptr72drop_in_place$LT$alloc..boxed..Box$LT$syn..path..GenericArgument$GT$$GT$17hfd308d374af4273dE', symObjAddr: 0x6BF0, symBinAddr: 0xF1A40, symSize: 0x2B0 }
  - { offsetInCU: 0x37E6B, offset: 0x5603E2, size: 0x8, addend: 0x0, symName: '__ZN4core3ptr72drop_in_place$LT$core..option..Option$LT$syn..lifetime..Lifetime$GT$$GT$17h49cce6f02f9c0590E', symObjAddr: 0x6EA0, symBinAddr: 0xF1CF0, symSize: 0x30 }
  - { offsetInCU: 0x37F86, offset: 0x5604FD, size: 0x8, addend: 0x0, symName: '__ZN4core3ptr73drop_in_place$LT$alloc..boxed..Box$LT$syn..generics..GenericParam$GT$$GT$17ha26d5d145af4b203E.llvm.1278538373299499664', symObjAddr: 0x6ED0, symBinAddr: 0xF1D20, symSize: 0x80 }
  - { offsetInCU: 0x380FC, offset: 0x560673, size: 0x8, addend: 0x0, symName: '__ZN4core3ptr75drop_in_place$LT$alloc..boxed..Box$LT$syn..generics..TypeParamBound$GT$$GT$17h129a4e927e5eb81bE', symObjAddr: 0x6F50, symBinAddr: 0xF1DA0, symSize: 0x1B0 }
  - { offsetInCU: 0x387DC, offset: 0x560D53, size: 0x8, addend: 0x0, symName: '__ZN4core3ptr75drop_in_place$LT$core..option..Option$LT$syn..generics..WhereClause$GT$$GT$17haaf63f327098cdccE', symObjAddr: 0x7100, symBinAddr: 0xF1F50, symSize: 0x90 }
  - { offsetInCU: 0x38AD0, offset: 0x561047, size: 0x8, addend: 0x0, symName: '__ZN4core3ptr86drop_in_place$LT$syn..punctuated..Punctuated$LT$syn..pat..Pat$C$syn..token..Or$GT$$GT$17h9cc6b5f7b6d3a555E', symObjAddr: 0x71B0, symBinAddr: 0xF1FE0, symSize: 0x120 }
  - { offsetInCU: 0x38F4B, offset: 0x5614C2, size: 0x8, addend: 0x0, symName: '__ZN4core3ptr87drop_in_place$LT$core..option..Option$LT$alloc..boxed..Box$LT$syn..pat..Pat$GT$$GT$$GT$17h51cd48973d96c411E', symObjAddr: 0x72D0, symBinAddr: 0xF2100, symSize: 0x50 }
  - { offsetInCU: 0x390BB, offset: 0x561632, size: 0x8, addend: 0x0, symName: '__ZN4core3ptr87drop_in_place$LT$core..option..Option$LT$alloc..boxed..Box$LT$syn..ty..Type$GT$$GT$$GT$17h103a25a4a7d7374eE', symObjAddr: 0x7320, symBinAddr: 0xF2150, symSize: 0x50 }
  - { offsetInCU: 0x3922B, offset: 0x5617A2, size: 0x8, addend: 0x0, symName: '__ZN4core3ptr89drop_in_place$LT$core..option..Option$LT$alloc..boxed..Box$LT$syn..expr..Expr$GT$$GT$$GT$17h9e02509cb2345d44E', symObjAddr: 0x7370, symBinAddr: 0xF21A0, symSize: 0x50 }
  - { offsetInCU: 0x393D9, offset: 0x561950, size: 0x8, addend: 0x0, symName: '__ZN4core3ptr89drop_in_place$LT$syn..punctuated..Punctuated$LT$syn..pat..Pat$C$syn..token..Comma$GT$$GT$17hd3a83c36827f210aE', symObjAddr: 0x73C0, symBinAddr: 0xF21F0, symSize: 0x120 }
  - { offsetInCU: 0x3986B, offset: 0x561DE2, size: 0x8, addend: 0x0, symName: '__ZN4core3ptr89drop_in_place$LT$syn..punctuated..Punctuated$LT$syn..ty..Type$C$syn..token..Comma$GT$$GT$17he030c4b7f24a5848E', symObjAddr: 0x74E0, symBinAddr: 0xF2310, symSize: 0x120 }
  - { offsetInCU: 0x39CE6, offset: 0x56225D, size: 0x8, addend: 0x0, symName: '__ZN4core3ptr90drop_in_place$LT$core..option..Option$LT$syn..path..AngleBracketedGenericArguments$GT$$GT$17ha307713a95a0671eE', symObjAddr: 0x7600, symBinAddr: 0xF2430, symSize: 0x130 }
  - { offsetInCU: 0x3A188, offset: 0x5626FF, size: 0x8, addend: 0x0, symName: '__ZN4core3ptr91drop_in_place$LT$syn..punctuated..Punctuated$LT$syn..expr..Expr$C$syn..token..Comma$GT$$GT$17h6f261e8f470c81f2E', symObjAddr: 0x7730, symBinAddr: 0xF2560, symSize: 0x120 }
  - { offsetInCU: 0x3A616, offset: 0x562B8D, size: 0x8, addend: 0x0, symName: '__ZN4core3ptr94drop_in_place$LT$syn..punctuated..Punctuated$LT$syn..pat..FieldPat$C$syn..token..Comma$GT$$GT$17h43ec25af986ef674E', symObjAddr: 0x7850, symBinAddr: 0xF2680, symSize: 0xF0 }
  - { offsetInCU: 0x3A915, offset: 0x562E8C, size: 0x8, addend: 0x0, symName: '__ZN4core3ptr94drop_in_place$LT$syn..punctuated..Punctuated$LT$syn..ty..BareFnArg$C$syn..token..Comma$GT$$GT$17h7ba4c699ee390ebaE', symObjAddr: 0x7940, symBinAddr: 0xF2770, symSize: 0xF0 }
  - { offsetInCU: 0x3AC16, offset: 0x56318D, size: 0x8, addend: 0x0, symName: '__ZN4core3ptr96drop_in_place$LT$core..option..Option$LT$alloc..boxed..Box$LT$syn..path..PathSegment$GT$$GT$$GT$17h5de12a5a0f9e9ef9E', symObjAddr: 0x7A30, symBinAddr: 0xF2860, symSize: 0xA0 }
  - { offsetInCU: 0x3AE95, offset: 0x56340C, size: 0x8, addend: 0x0, symName: '__ZN4core3ptr97drop_in_place$LT$syn..punctuated..Punctuated$LT$syn..expr..FieldValue$C$syn..token..Comma$GT$$GT$17hf58d0a9a09266ab3E', symObjAddr: 0x7AD0, symBinAddr: 0xF2900, symSize: 0xF0 }
  - { offsetInCU: 0x3B192, offset: 0x563709, size: 0x8, addend: 0x0, symName: '__ZN4core3ptr98drop_in_place$LT$alloc..vec..Vec$LT$$LP$syn..path..GenericArgument$C$syn..token..Comma$RP$$GT$$GT$17h0dee282a026d5a38E', symObjAddr: 0x7BC0, symBinAddr: 0xF29F0, symSize: 0xD0 }
  - { offsetInCU: 0x3B4D2, offset: 0x563A49, size: 0x8, addend: 0x0, symName: '__ZN4core3ptr98drop_in_place$LT$syn..punctuated..Punctuated$LT$syn..lifetime..Lifetime$C$syn..token..Plus$GT$$GT$17h600c2b78f78fd2b9E.llvm.1278538373299499664', symObjAddr: 0x7C90, symBinAddr: 0xF2AC0, symSize: 0xD0 }
  - { offsetInCU: 0x3FB8C, offset: 0x568103, size: 0x8, addend: 0x0, symName: '__ZN48_$LT$T$u20$as$u20$core..clone..CloneToUninit$GT$15clone_to_uninit17hc598a6c9534b5b4fE', symObjAddr: 0x220, symBinAddr: 0xEB1A0, symSize: 0x140 }
  - { offsetInCU: 0x43C10, offset: 0x56C187, size: 0x8, addend: 0x0, symName: '__ZN52_$LT$$RF$T$u20$as$u20$quote..to_tokens..ToTokens$GT$9to_tokens17h105a97bdbe744db0E', symObjAddr: 0x7E10, symBinAddr: 0xF2B90, symSize: 0x190 }
  - { offsetInCU: 0x4465E, offset: 0x56CBD5, size: 0x8, addend: 0x0, symName: __ZN3syn8generics8Generics11type_params17h9a5113385dc931b2E, symObjAddr: 0x86A0, symBinAddr: 0xF2D20, symSize: 0x0 }
  - { offsetInCU: 0x4493E, offset: 0x56CEB5, size: 0x8, addend: 0x0, symName: __ZN3syn8generics8Generics17make_where_clause17h8413fcc584b77195E, symObjAddr: 0x8710, symBinAddr: 0xF2D90, symSize: 0x90 }
  - { offsetInCU: 0x45A36, offset: 0x56DFAD, size: 0x8, addend: 0x0, symName: '__ZN3syn8generics7parsing47_$LT$impl$u20$syn..generics..TypeParamBound$GT$14parse_multiple17h33e6fbea8f6e153bE', symObjAddr: 0xCD80, symBinAddr: 0xF67D0, symSize: 0x4D0 }
  - { offsetInCU: 0xF7D, offset: 0x578F23, size: 0x8, addend: 0x0, symName: '__ZN63_$LT$syn..token..Plus$u20$as$u20$quote..to_tokens..ToTokens$GT$9to_tokens17he3d1128a63032146E', symObjAddr: 0x5FB0, symBinAddr: 0xFC870, symSize: 0x30 }
  - { offsetInCU: 0xFA9, offset: 0x578F4F, size: 0x8, addend: 0x0, symName: '__ZN60_$LT$syn..token..Underscore$u20$as$u20$syn..token..Token$GT$4peek17haec0894d2e05662cE', symObjAddr: 0xAD0, symBinAddr: 0xFB730, symSize: 0x1F0 }
  - { offsetInCU: 0x185E, offset: 0x579804, size: 0x8, addend: 0x0, symName: '__ZN55_$LT$syn..token..Paren$u20$as$u20$syn..token..Token$GT$4peek17h57c2615f1c93669bE', symObjAddr: 0xF20, symBinAddr: 0xFBA40, symSize: 0xA0 }
  - { offsetInCU: 0x1A5E, offset: 0x579A04, size: 0x8, addend: 0x0, symName: '__ZN55_$LT$syn..token..Brace$u20$as$u20$syn..token..Token$GT$4peek17h73c23ce965996843E', symObjAddr: 0xFC0, symBinAddr: 0xFBAE0, symSize: 0xA0 }
  - { offsetInCU: 0x1C5E, offset: 0x579C04, size: 0x8, addend: 0x0, symName: '__ZN57_$LT$syn..token..Bracket$u20$as$u20$syn..token..Token$GT$4peek17h872c9349a83dc2aaE', symObjAddr: 0x1060, symBinAddr: 0xFBB80, symSize: 0xA0 }
  - { offsetInCU: 0x1E5E, offset: 0x579E04, size: 0x8, addend: 0x0, symName: '__ZN57_$LT$syn..token..As$u20$as$u20$core..default..Default$GT$7default17h6e21ca7a67d70738E', symObjAddr: 0x12A0, symBinAddr: 0xFBC20, symSize: 0x0 }
  - { offsetInCU: 0x1EAF, offset: 0x579E55, size: 0x8, addend: 0x0, symName: '__ZN52_$LT$syn..token..As$u20$as$u20$syn..parse..Parse$GT$5parse17h8279010a971a5b00E', symObjAddr: 0x1350, symBinAddr: 0xFBC30, symSize: 0x60 }
  - { offsetInCU: 0x1F63, offset: 0x579F09, size: 0x8, addend: 0x0, symName: '__ZN55_$LT$syn..token..Async$u20$as$u20$syn..token..Token$GT$4peek17hec3d206c6ab2af4dE', symObjAddr: 0x14D0, symBinAddr: 0xFBC90, symSize: 0x20 }
  - { offsetInCU: 0x1F99, offset: 0x579F3F, size: 0x8, addend: 0x0, symName: '__ZN54_$LT$syn..token..Auto$u20$as$u20$syn..token..Token$GT$4peek17h78aa4921345bdad2E', symObjAddr: 0x15F0, symBinAddr: 0xFBCB0, symSize: 0x20 }
  - { offsetInCU: 0x2029, offset: 0x579FCF, size: 0x8, addend: 0x0, symName: '__ZN55_$LT$syn..token..Break$u20$as$u20$syn..token..Token$GT$4peek17hcc0068e8a3d324e2E', symObjAddr: 0x1A70, symBinAddr: 0xFBCD0, symSize: 0x20 }
  - { offsetInCU: 0x208C, offset: 0x57A032, size: 0x8, addend: 0x0, symName: '__ZN55_$LT$syn..token..Const$u20$as$u20$syn..parse..Parse$GT$5parse17h4d7f78de797b5b9dE', symObjAddr: 0x1B30, symBinAddr: 0xFBCF0, symSize: 0x60 }
  - { offsetInCU: 0x2113, offset: 0x57A0B9, size: 0x8, addend: 0x0, symName: '__ZN55_$LT$syn..token..Const$u20$as$u20$syn..token..Token$GT$4peek17h377299e8bbcdfde8E', symObjAddr: 0x1B90, symBinAddr: 0xFBD50, symSize: 0x20 }
  - { offsetInCU: 0x2149, offset: 0x57A0EF, size: 0x8, addend: 0x0, symName: '__ZN58_$LT$syn..token..Continue$u20$as$u20$syn..token..Token$GT$4peek17h9728a3199d7cb046E', symObjAddr: 0x1CB0, symBinAddr: 0xFBD70, symSize: 0x20 }
  - { offsetInCU: 0x217F, offset: 0x57A125, size: 0x8, addend: 0x0, symName: '__ZN55_$LT$syn..token..Crate$u20$as$u20$syn..token..Token$GT$4peek17h41bdfdc9696d7a0cE', symObjAddr: 0x1DD0, symBinAddr: 0xFBD90, symSize: 0x20 }
  - { offsetInCU: 0x21B5, offset: 0x57A15B, size: 0x8, addend: 0x0, symName: '__ZN53_$LT$syn..token..Dyn$u20$as$u20$syn..parse..Parse$GT$5parse17ha918c5aa2904e233E', symObjAddr: 0x20D0, symBinAddr: 0xFBDB0, symSize: 0x60 }
  - { offsetInCU: 0x223C, offset: 0x57A1E2, size: 0x8, addend: 0x0, symName: '__ZN54_$LT$syn..token..Else$u20$as$u20$syn..parse..Parse$GT$5parse17h45e080b72d435097E', symObjAddr: 0x21F0, symBinAddr: 0xFBE10, symSize: 0x60 }
  - { offsetInCU: 0x22C3, offset: 0x57A269, size: 0x8, addend: 0x0, symName: '__ZN54_$LT$syn..token..Enum$u20$as$u20$syn..token..Token$GT$4peek17h5b346af13c7af550E', symObjAddr: 0x2370, symBinAddr: 0xFBE70, symSize: 0x20 }
  - { offsetInCU: 0x22F9, offset: 0x57A29F, size: 0x8, addend: 0x0, symName: '__ZN56_$LT$syn..token..Extern$u20$as$u20$syn..token..Token$GT$4peek17h4d12b1045a886c67E', symObjAddr: 0x2490, symBinAddr: 0xFBE90, symSize: 0x20 }
  - { offsetInCU: 0x232F, offset: 0x57A2D5, size: 0x8, addend: 0x0, symName: '__ZN52_$LT$syn..token..Fn$u20$as$u20$syn..token..Token$GT$4peek17h72891b673cf8306dE', symObjAddr: 0x26D0, symBinAddr: 0xFBEB0, symSize: 0x20 }
  - { offsetInCU: 0x2365, offset: 0x57A30B, size: 0x8, addend: 0x0, symName: '__ZN53_$LT$syn..token..For$u20$as$u20$syn..parse..Parse$GT$5parse17h685510a59deff120E', symObjAddr: 0x2790, symBinAddr: 0xFBED0, symSize: 0x60 }
  - { offsetInCU: 0x23EC, offset: 0x57A392, size: 0x8, addend: 0x0, symName: '__ZN52_$LT$syn..token..If$u20$as$u20$syn..token..Token$GT$4peek17heba8a5d4e0378f64E', symObjAddr: 0x2910, symBinAddr: 0xFBF30, symSize: 0x20 }
  - { offsetInCU: 0x2422, offset: 0x57A3C8, size: 0x8, addend: 0x0, symName: '__ZN54_$LT$syn..token..Impl$u20$as$u20$syn..token..Token$GT$4peek17h2c90e0f4bad3b8a1E', symObjAddr: 0x2A30, symBinAddr: 0xFBF50, symSize: 0x20 }
  - { offsetInCU: 0x2485, offset: 0x57A42B, size: 0x8, addend: 0x0, symName: '__ZN52_$LT$syn..token..In$u20$as$u20$syn..parse..Parse$GT$5parse17h1c18d23d989fcf2fE', symObjAddr: 0x2AF0, symBinAddr: 0xFBF70, symSize: 0x60 }
  - { offsetInCU: 0x250C, offset: 0x57A4B2, size: 0x8, addend: 0x0, symName: '__ZN52_$LT$syn..token..In$u20$as$u20$syn..token..Token$GT$4peek17h612593e12541882bE', symObjAddr: 0x2B50, symBinAddr: 0xFBFD0, symSize: 0x20 }
  - { offsetInCU: 0x256F, offset: 0x57A515, size: 0x8, addend: 0x0, symName: '__ZN55_$LT$syn..token..Macro$u20$as$u20$syn..token..Token$GT$4peek17he0611b0349443e81E', symObjAddr: 0x2EB0, symBinAddr: 0xFBFF0, symSize: 0x20 }
  - { offsetInCU: 0x25D2, offset: 0x57A578, size: 0x8, addend: 0x0, symName: '__ZN55_$LT$syn..token..Match$u20$as$u20$syn..token..Token$GT$4peek17h88cd9ac93f37c27fE', symObjAddr: 0x2FD0, symBinAddr: 0xFC010, symSize: 0x20 }
  - { offsetInCU: 0x2608, offset: 0x57A5AE, size: 0x8, addend: 0x0, symName: '__ZN53_$LT$syn..token..Mod$u20$as$u20$syn..token..Token$GT$4peek17h74a4826dd47e3e6eE', symObjAddr: 0x30F0, symBinAddr: 0xFC030, symSize: 0x20 }
  - { offsetInCU: 0x263E, offset: 0x57A5E4, size: 0x8, addend: 0x0, symName: '__ZN63_$LT$syn..token..Move$u20$as$u20$quote..to_tokens..ToTokens$GT$9to_tokens17hfc53a9310558a724E', symObjAddr: 0x3130, symBinAddr: 0xFC050, symSize: 0x80 }
  - { offsetInCU: 0x2774, offset: 0x57A71A, size: 0x8, addend: 0x0, symName: '__ZN54_$LT$syn..token..Move$u20$as$u20$syn..token..Token$GT$4peek17h7d01db15b0371cceE', symObjAddr: 0x3210, symBinAddr: 0xFC0D0, symSize: 0x20 }
  - { offsetInCU: 0x27AA, offset: 0x57A750, size: 0x8, addend: 0x0, symName: '__ZN62_$LT$syn..token..Mut$u20$as$u20$quote..to_tokens..ToTokens$GT$9to_tokens17h65e7aec4e00a824aE', symObjAddr: 0x3250, symBinAddr: 0xFC0F0, symSize: 0x80 }
  - { offsetInCU: 0x28E0, offset: 0x57A886, size: 0x8, addend: 0x0, symName: '__ZN53_$LT$syn..token..Mut$u20$as$u20$syn..token..Token$GT$4peek17h98e42bddef3e0a22E', symObjAddr: 0x3330, symBinAddr: 0xFC170, symSize: 0x20 }
  - { offsetInCU: 0x2943, offset: 0x57A8E9, size: 0x8, addend: 0x0, symName: '__ZN53_$LT$syn..token..Ref$u20$as$u20$syn..token..Token$GT$4peek17h3da8beae293f82f6E', symObjAddr: 0x37B0, symBinAddr: 0xFC190, symSize: 0x20 }
  - { offsetInCU: 0x2979, offset: 0x57A91F, size: 0x8, addend: 0x0, symName: '__ZN56_$LT$syn..token..Return$u20$as$u20$syn..token..Token$GT$4peek17hce15ace849ac5c51E', symObjAddr: 0x38D0, symBinAddr: 0xFC1B0, symSize: 0x20 }
  - { offsetInCU: 0x29AF, offset: 0x57A955, size: 0x8, addend: 0x0, symName: '__ZN67_$LT$syn..token..SelfType$u20$as$u20$quote..to_tokens..ToTokens$GT$9to_tokens17h1e2a78b0c9081e97E', symObjAddr: 0x3910, symBinAddr: 0xFC1D0, symSize: 0x80 }
  - { offsetInCU: 0x2AE5, offset: 0x57AA8B, size: 0x8, addend: 0x0, symName: '__ZN58_$LT$syn..token..SelfType$u20$as$u20$syn..token..Token$GT$4peek17hc1ce6132e604b21cE', symObjAddr: 0x39F0, symBinAddr: 0xFC250, symSize: 0x20 }
  - { offsetInCU: 0x2B1B, offset: 0x57AAC1, size: 0x8, addend: 0x0, symName: '__ZN59_$LT$syn..token..SelfValue$u20$as$u20$syn..token..Token$GT$4peek17hff0104bc0d4d51baE', symObjAddr: 0x3B10, symBinAddr: 0xFC270, symSize: 0x20 }
  - { offsetInCU: 0x2B51, offset: 0x57AAF7, size: 0x8, addend: 0x0, symName: '__ZN56_$LT$syn..token..Static$u20$as$u20$syn..parse..Parse$GT$5parse17h4347f0d5ba2722bcE', symObjAddr: 0x3BD0, symBinAddr: 0xFC290, symSize: 0x60 }
  - { offsetInCU: 0x2BD8, offset: 0x57AB7E, size: 0x8, addend: 0x0, symName: '__ZN56_$LT$syn..token..Static$u20$as$u20$syn..token..Token$GT$4peek17h5ec219d5f1c91b93E', symObjAddr: 0x3C30, symBinAddr: 0xFC2F0, symSize: 0x20 }
  - { offsetInCU: 0x2C0E, offset: 0x57ABB4, size: 0x8, addend: 0x0, symName: '__ZN56_$LT$syn..token..Struct$u20$as$u20$syn..token..Token$GT$4peek17h5edcf684e7ec6370E', symObjAddr: 0x3D50, symBinAddr: 0xFC310, symSize: 0x20 }
  - { offsetInCU: 0x2C44, offset: 0x57ABEA, size: 0x8, addend: 0x0, symName: '__ZN55_$LT$syn..token..Super$u20$as$u20$syn..token..Token$GT$4peek17ha609af2487b5bfa9E', symObjAddr: 0x3E70, symBinAddr: 0xFC330, symSize: 0x20 }
  - { offsetInCU: 0x2C7A, offset: 0x57AC20, size: 0x8, addend: 0x0, symName: '__ZN55_$LT$syn..token..Trait$u20$as$u20$syn..token..Token$GT$4peek17hcfd44ad9738ca41fE', symObjAddr: 0x3F90, symBinAddr: 0xFC350, symSize: 0x20 }
  - { offsetInCU: 0x2CDD, offset: 0x57AC83, size: 0x8, addend: 0x0, symName: '__ZN53_$LT$syn..token..Try$u20$as$u20$syn..token..Token$GT$4peek17h34e6cdd2fa15187cE', symObjAddr: 0x40B0, symBinAddr: 0xFC370, symSize: 0x20 }
  - { offsetInCU: 0x2D13, offset: 0x57ACB9, size: 0x8, addend: 0x0, symName: '__ZN54_$LT$syn..token..Type$u20$as$u20$syn..token..Token$GT$4peek17hca9c5e9bd0dd640dE', symObjAddr: 0x41D0, symBinAddr: 0xFC390, symSize: 0x20 }
  - { offsetInCU: 0x2D49, offset: 0x57ACEF, size: 0x8, addend: 0x0, symName: '__ZN55_$LT$syn..token..Union$u20$as$u20$syn..token..Token$GT$4peek17hfe4da05fa09964ffE', symObjAddr: 0x4410, symBinAddr: 0xFC3B0, symSize: 0x20 }
  - { offsetInCU: 0x2DAC, offset: 0x57AD52, size: 0x8, addend: 0x0, symName: '__ZN56_$LT$syn..token..Unsafe$u20$as$u20$syn..parse..Parse$GT$5parse17h9c545ae7480a661bE', symObjAddr: 0x44D0, symBinAddr: 0xFC3D0, symSize: 0x60 }
  - { offsetInCU: 0x2E33, offset: 0x57ADD9, size: 0x8, addend: 0x0, symName: '__ZN56_$LT$syn..token..Unsafe$u20$as$u20$syn..token..Token$GT$4peek17h8fab9a2efb3ee4c7E', symObjAddr: 0x4530, symBinAddr: 0xFC430, symSize: 0x20 }
  - { offsetInCU: 0x2E69, offset: 0x57AE0F, size: 0x8, addend: 0x0, symName: '__ZN53_$LT$syn..token..Use$u20$as$u20$syn..token..Token$GT$4peek17h370b8b005f72ed4aE', symObjAddr: 0x4770, symBinAddr: 0xFC450, symSize: 0x20 }
  - { offsetInCU: 0x2ECC, offset: 0x57AE72, size: 0x8, addend: 0x0, symName: '__ZN55_$LT$syn..token..While$u20$as$u20$syn..token..Token$GT$4peek17h473dc15971e7eb52E', symObjAddr: 0x4AD0, symBinAddr: 0xFC470, symSize: 0x20 }
  - { offsetInCU: 0x2F2F, offset: 0x57AED5, size: 0x8, addend: 0x0, symName: '__ZN53_$LT$syn..token..And$u20$as$u20$syn..token..Token$GT$4peek17h4ed3a008d858f163E', symObjAddr: 0x4C90, symBinAddr: 0xFC490, symSize: 0x20 }
  - { offsetInCU: 0x2F65, offset: 0x57AF0B, size: 0x8, addend: 0x0, symName: '__ZN55_$LT$syn..token..Caret$u20$as$u20$syn..token..Token$GT$4peek17h5ae299ba682beb97E', symObjAddr: 0x4F10, symBinAddr: 0xFC4B0, symSize: 0x20 }
  - { offsetInCU: 0x2FC8, offset: 0x57AF6E, size: 0x8, addend: 0x0, symName: '__ZN55_$LT$syn..token..Colon$u20$as$u20$syn..parse..Parse$GT$5parse17h3063cb3e3ebc34a9E', symObjAddr: 0x5000, symBinAddr: 0xFC4D0, symSize: 0x50 }
  - { offsetInCU: 0x302A, offset: 0x57AFD0, size: 0x8, addend: 0x0, symName: '__ZN55_$LT$syn..token..Colon$u20$as$u20$syn..token..Token$GT$4peek17he80a5de17f24d5edE', symObjAddr: 0x5050, symBinAddr: 0xFC520, symSize: 0x20 }
  - { offsetInCU: 0x3060, offset: 0x57B006, size: 0x8, addend: 0x0, symName: '__ZN55_$LT$syn..token..Comma$u20$as$u20$syn..parse..Parse$GT$5parse17hb823018bf88ed6f3E', symObjAddr: 0x50A0, symBinAddr: 0xFC540, symSize: 0x50 }
  - { offsetInCU: 0x30C2, offset: 0x57B068, size: 0x8, addend: 0x0, symName: '__ZN55_$LT$syn..token..Comma$u20$as$u20$syn..token..Token$GT$4peek17h26e1aacea26147a4E', symObjAddr: 0x50F0, symBinAddr: 0xFC590, symSize: 0x20 }
  - { offsetInCU: 0x3125, offset: 0x57B0CB, size: 0x8, addend: 0x0, symName: '__ZN53_$LT$syn..token..Dot$u20$as$u20$syn..parse..Parse$GT$5parse17h85ea2dcb6c7dec50E', symObjAddr: 0x51E0, symBinAddr: 0xFC5B0, symSize: 0x50 }
  - { offsetInCU: 0x3187, offset: 0x57B12D, size: 0x8, addend: 0x0, symName: '__ZN53_$LT$syn..token..Dot$u20$as$u20$syn..token..Token$GT$4peek17h3281d72a1d61740fE', symObjAddr: 0x5230, symBinAddr: 0xFC600, symSize: 0x20 }
  - { offsetInCU: 0x31EA, offset: 0x57B190, size: 0x8, addend: 0x0, symName: '__ZN56_$LT$syn..token..DotDot$u20$as$u20$syn..token..Token$GT$4peek17ha63e1c7cbaa5f07fE', symObjAddr: 0x52D0, symBinAddr: 0xFC620, symSize: 0x20 }
  - { offsetInCU: 0x3220, offset: 0x57B1C6, size: 0x8, addend: 0x0, symName: '__ZN59_$LT$syn..token..DotDotDot$u20$as$u20$syn..token..Token$GT$4peek17hecd050b6405d9aa0E', symObjAddr: 0x5390, symBinAddr: 0xFC640, symSize: 0x20 }
  - { offsetInCU: 0x3256, offset: 0x57B1FC, size: 0x8, addend: 0x0, symName: '__ZN58_$LT$syn..token..DotDotEq$u20$as$u20$syn..token..Token$GT$4peek17h9d3b070298fd3201E', symObjAddr: 0x5450, symBinAddr: 0xFC660, symSize: 0x20 }
  - { offsetInCU: 0x32B9, offset: 0x57B25F, size: 0x8, addend: 0x0, symName: '__ZN52_$LT$syn..token..Eq$u20$as$u20$syn..parse..Parse$GT$5parse17h48510f330b26a2a8E', symObjAddr: 0x54A0, symBinAddr: 0xFC680, symSize: 0x50 }
  - { offsetInCU: 0x331B, offset: 0x57B2C1, size: 0x8, addend: 0x0, symName: '__ZN52_$LT$syn..token..Eq$u20$as$u20$syn..token..Token$GT$4peek17ha038331794dca79cE', symObjAddr: 0x54F0, symBinAddr: 0xFC6D0, symSize: 0x20 }
  - { offsetInCU: 0x3351, offset: 0x57B2F7, size: 0x8, addend: 0x0, symName: '__ZN52_$LT$syn..token..Gt$u20$as$u20$syn..parse..Parse$GT$5parse17h685c1b33fdd3602dE', symObjAddr: 0x5720, symBinAddr: 0xFC6F0, symSize: 0x50 }
  - { offsetInCU: 0x33B3, offset: 0x57B359, size: 0x8, addend: 0x0, symName: '__ZN52_$LT$syn..token..Gt$u20$as$u20$syn..token..Token$GT$4peek17h28c72eb0c24e86bbE', symObjAddr: 0x5770, symBinAddr: 0xFC740, symSize: 0x20 }
  - { offsetInCU: 0x33E9, offset: 0x57B38F, size: 0x8, addend: 0x0, symName: '__ZN52_$LT$syn..token..Lt$u20$as$u20$syn..token..Token$GT$4peek17hb09f0ef836a6a928E', symObjAddr: 0x5950, symBinAddr: 0xFC760, symSize: 0x20 }
  - { offsetInCU: 0x341F, offset: 0x57B3C5, size: 0x8, addend: 0x0, symName: '__ZN55_$LT$syn..token..Minus$u20$as$u20$syn..token..Token$GT$4peek17h9f29e488ba31c0d6E', symObjAddr: 0x59F0, symBinAddr: 0xFC780, symSize: 0x20 }
  - { offsetInCU: 0x3482, offset: 0x57B428, size: 0x8, addend: 0x0, symName: '__ZN53_$LT$syn..token..Not$u20$as$u20$syn..parse..Parse$GT$5parse17h0e126244166e20f8E', symObjAddr: 0x5B80, symBinAddr: 0xFC7A0, symSize: 0x50 }
  - { offsetInCU: 0x34E4, offset: 0x57B48A, size: 0x8, addend: 0x0, symName: '__ZN53_$LT$syn..token..Not$u20$as$u20$syn..token..Token$GT$4peek17h20b2571300a10670E', symObjAddr: 0x5BD0, symBinAddr: 0xFC7F0, symSize: 0x20 }
  - { offsetInCU: 0x351A, offset: 0x57B4C0, size: 0x8, addend: 0x0, symName: '__ZN52_$LT$syn..token..Or$u20$as$u20$syn..token..Token$GT$4peek17haf7e709e752de2d5E', symObjAddr: 0x5C70, symBinAddr: 0xFC810, symSize: 0x20 }
  - { offsetInCU: 0x3550, offset: 0x57B4F6, size: 0x8, addend: 0x0, symName: '__ZN57_$LT$syn..token..PathSep$u20$as$u20$syn..token..Token$GT$4peek17h734c6a0408fb2004E', symObjAddr: 0x5E50, symBinAddr: 0xFC830, symSize: 0x20 }
  - { offsetInCU: 0x3586, offset: 0x57B52C, size: 0x8, addend: 0x0, symName: '__ZN57_$LT$syn..token..Percent$u20$as$u20$syn..token..Token$GT$4peek17hc3097a54b453c67dE', symObjAddr: 0x5EF0, symBinAddr: 0xFC850, symSize: 0x20 }
  - { offsetInCU: 0x35BC, offset: 0x57B562, size: 0x8, addend: 0x0, symName: '__ZN54_$LT$syn..token..Plus$u20$as$u20$syn..parse..Parse$GT$5parse17h6443c7d34616ae6cE', symObjAddr: 0x5FE0, symBinAddr: 0xFC8A0, symSize: 0x50 }
  - { offsetInCU: 0x361E, offset: 0x57B5C4, size: 0x8, addend: 0x0, symName: '__ZN54_$LT$syn..token..Plus$u20$as$u20$syn..token..Token$GT$4peek17h8705e3cc7ef409a6E', symObjAddr: 0x6030, symBinAddr: 0xFC8F0, symSize: 0x20 }
  - { offsetInCU: 0x3681, offset: 0x57B627, size: 0x8, addend: 0x0, symName: '__ZN55_$LT$syn..token..Pound$u20$as$u20$syn..token..Token$GT$4peek17h12eda5e1e3c78599E', symObjAddr: 0x6170, symBinAddr: 0xFC910, symSize: 0x20 }
  - { offsetInCU: 0x36E4, offset: 0x57B68A, size: 0x8, addend: 0x0, symName: '__ZN58_$LT$syn..token..Question$u20$as$u20$syn..token..Token$GT$4peek17hb56a1f23ffedbbd1E', symObjAddr: 0x6210, symBinAddr: 0xFC930, symSize: 0x20 }
  - { offsetInCU: 0x3747, offset: 0x57B6ED, size: 0x8, addend: 0x0, symName: '__ZN54_$LT$syn..token..Semi$u20$as$u20$syn..parse..Parse$GT$5parse17h922f96200e79aea7E', symObjAddr: 0x6300, symBinAddr: 0xFC950, symSize: 0x50 }
  - { offsetInCU: 0x37A9, offset: 0x57B74F, size: 0x8, addend: 0x0, symName: '__ZN54_$LT$syn..token..Semi$u20$as$u20$syn..token..Token$GT$4peek17h50c830ee30ef3530E', symObjAddr: 0x6350, symBinAddr: 0xFC9A0, symSize: 0x20 }
  - { offsetInCU: 0x37DF, offset: 0x57B785, size: 0x8, addend: 0x0, symName: '__ZN55_$LT$syn..token..ShlEq$u20$as$u20$syn..parse..Parse$GT$5parse17hffdec08a82c79705E', symObjAddr: 0x6440, symBinAddr: 0xFC9C0, symSize: 0x70 }
  - { offsetInCU: 0x3894, offset: 0x57B83A, size: 0x8, addend: 0x0, symName: '__ZN55_$LT$syn..token..ShrEq$u20$as$u20$syn..parse..Parse$GT$5parse17hd4adaf197d5b2e87E', symObjAddr: 0x65A0, symBinAddr: 0xFCA30, symSize: 0x70 }
  - { offsetInCU: 0x3949, offset: 0x57B8EF, size: 0x8, addend: 0x0, symName: '__ZN55_$LT$syn..token..Slash$u20$as$u20$syn..token..Token$GT$4peek17h7dc71e532622b60eE', symObjAddr: 0x66B0, symBinAddr: 0xFCAA0, symSize: 0x20 }
  - { offsetInCU: 0x397F, offset: 0x57B925, size: 0x8, addend: 0x0, symName: '__ZN54_$LT$syn..token..Star$u20$as$u20$syn..token..Token$GT$4peek17h14add24fe44afe84E', symObjAddr: 0x67F0, symBinAddr: 0xFCAC0, symSize: 0x20 }
  - { offsetInCU: 0xAE2B, offset: 0x582DD1, size: 0x8, addend: 0x0, symName: '__ZN4core3ptr45drop_in_place$LT$proc_macro2..TokenStream$GT$17h76e8e68015f4924dE.llvm.2200051395882591536', symObjAddr: 0x720, symBinAddr: 0xFB4E0, symSize: 0x140 }
  - { offsetInCU: 0xB287, offset: 0x58322D, size: 0x8, addend: 0x0, symName: '__ZN4core3ptr65drop_in_place$LT$alloc..vec..Vec$LT$proc_macro..TokenTree$GT$$GT$17h8abd81f8596dbc59E.llvm.2200051395882591536', symObjAddr: 0x860, symBinAddr: 0xFB620, symSize: 0x110 }
  - { offsetInCU: 0x10AAC, offset: 0x588A52, size: 0x8, addend: 0x0, symName: __ZN3syn5token5Group8surround17heff89b5b653592dfE, symObjAddr: 0xE00, symBinAddr: 0xFB920, symSize: 0x120 }
  - { offsetInCU: 0x10CA4, offset: 0x588C4A, size: 0x8, addend: 0x0, symName: __ZN3syn5token5Brace8surround17h054d6fe3dea87f3aE, symObjAddr: 0x6FA0, symBinAddr: 0xFCAE0, symSize: 0x0 }
  - { offsetInCU: 0x10F36, offset: 0x588EDC, size: 0x8, addend: 0x0, symName: __ZN3syn5token5Brace8surround17h177bd1fb5200ae88E, symObjAddr: 0x7120, symBinAddr: 0xFCC60, symSize: 0x130 }
  - { offsetInCU: 0x111BA, offset: 0x589160, size: 0x8, addend: 0x0, symName: __ZN3syn5token5Brace8surround17h203049190772705cE, symObjAddr: 0x7250, symBinAddr: 0xFCD90, symSize: 0x200 }
  - { offsetInCU: 0x1185D, offset: 0x589803, size: 0x8, addend: 0x0, symName: __ZN3syn5token5Brace8surround17h296fbc9aacc45e8dE, symObjAddr: 0x7450, symBinAddr: 0xFCF90, symSize: 0x150 }
  - { offsetInCU: 0x11B70, offset: 0x589B16, size: 0x8, addend: 0x0, symName: __ZN3syn5token5Brace8surround17h3cd15e098182f2caE, symObjAddr: 0x75A0, symBinAddr: 0xFD0E0, symSize: 0x220 }
  - { offsetInCU: 0x1203E, offset: 0x589FE4, size: 0x8, addend: 0x0, symName: __ZN3syn5token5Brace8surround17h4300b93fb32218b3E, symObjAddr: 0x77C0, symBinAddr: 0xFD300, symSize: 0x1A0 }
  - { offsetInCU: 0x1256E, offset: 0x58A514, size: 0x8, addend: 0x0, symName: __ZN3syn5token5Brace8surround17h57503f340a17145cE, symObjAddr: 0x7960, symBinAddr: 0xFD4A0, symSize: 0x220 }
  - { offsetInCU: 0x12A09, offset: 0x58A9AF, size: 0x8, addend: 0x0, symName: __ZN3syn5token5Brace8surround17h5add098b3195aebcE, symObjAddr: 0x7B80, symBinAddr: 0xFD6C0, symSize: 0x200 }
  - { offsetInCU: 0x13148, offset: 0x58B0EE, size: 0x8, addend: 0x0, symName: __ZN3syn5token5Brace8surround17h73c06cfc29e80b79E, symObjAddr: 0x80A0, symBinAddr: 0xFD8C0, symSize: 0x200 }
  - { offsetInCU: 0x137EB, offset: 0x58B791, size: 0x8, addend: 0x0, symName: __ZN3syn5token5Brace8surround17h81a192f6e1ba3b25E, symObjAddr: 0x82A0, symBinAddr: 0xFDAC0, symSize: 0x220 }
  - { offsetInCU: 0x13CDC, offset: 0x58BC82, size: 0x8, addend: 0x0, symName: __ZN3syn5token5Brace8surround17h885eae5b5f18a737E, symObjAddr: 0x84C0, symBinAddr: 0xFDCE0, symSize: 0x230 }
  - { offsetInCU: 0x1438F, offset: 0x58C335, size: 0x8, addend: 0x0, symName: __ZN3syn5token5Brace8surround17h8dc2f11f6889f4faE, symObjAddr: 0x86F0, symBinAddr: 0xFDF10, symSize: 0x0 }
  - { offsetInCU: 0x14A32, offset: 0x58C9D8, size: 0x8, addend: 0x0, symName: __ZN3syn5token5Brace8surround17h8f64d8eb67893fd1E, symObjAddr: 0x88F0, symBinAddr: 0xFE110, symSize: 0x220 }
  - { offsetInCU: 0x14EC7, offset: 0x58CE6D, size: 0x8, addend: 0x0, symName: __ZN3syn5token5Brace8surround17h9105a8ad28ee9eacE, symObjAddr: 0x8B10, symBinAddr: 0xFE330, symSize: 0x220 }
  - { offsetInCU: 0x1547E, offset: 0x58D424, size: 0x8, addend: 0x0, symName: __ZN3syn5token5Brace8surround17ha088df153eae400eE, symObjAddr: 0x8D30, symBinAddr: 0xFE550, symSize: 0x260 }
  - { offsetInCU: 0x15BF3, offset: 0x58DB99, size: 0x8, addend: 0x0, symName: __ZN3syn5token5Brace8surround17hbe01d651f653d8afE, symObjAddr: 0x8F90, symBinAddr: 0xFE7B0, symSize: 0x590 }
  - { offsetInCU: 0x167F0, offset: 0x58E796, size: 0x8, addend: 0x0, symName: __ZN3syn5token5Brace8surround17hc01d55ce5137971fE, symObjAddr: 0x9520, symBinAddr: 0xFED40, symSize: 0x220 }
  - { offsetInCU: 0x16C80, offset: 0x58EC26, size: 0x8, addend: 0x0, symName: __ZN3syn5token5Brace8surround17hcac216a5876b7b90E, symObjAddr: 0x9740, symBinAddr: 0xFEF60, symSize: 0x180 }
  - { offsetInCU: 0x16F12, offset: 0x58EEB8, size: 0x8, addend: 0x0, symName: __ZN3syn5token5Brace8surround17hd179764b3f344586E, symObjAddr: 0x98C0, symBinAddr: 0xFF0E0, symSize: 0x220 }
  - { offsetInCU: 0x1741C, offset: 0x58F3C2, size: 0x8, addend: 0x0, symName: __ZN3syn5token5Brace8surround17hd326a20e95a92237E, symObjAddr: 0x9AE0, symBinAddr: 0xFF300, symSize: 0x470 }
  - { offsetInCU: 0x18015, offset: 0x58FFBB, size: 0x8, addend: 0x0, symName: __ZN3syn5token5Brace8surround17hdec488e9714715d6E, symObjAddr: 0x9F50, symBinAddr: 0xFF770, symSize: 0x1B0 }
  - { offsetInCU: 0x18594, offset: 0x59053A, size: 0x8, addend: 0x0, symName: __ZN3syn5token5Brace8surround17heb4093c015441ecaE, symObjAddr: 0xA100, symBinAddr: 0xFF920, symSize: 0x200 }
  - { offsetInCU: 0x18BFA, offset: 0x590BA0, size: 0x8, addend: 0x0, symName: __ZN3syn5token7Bracket8surround17h39ed741deec0cbbcE, symObjAddr: 0xA320, symBinAddr: 0xFFB20, symSize: 0x130 }
  - { offsetInCU: 0x18DE3, offset: 0x590D89, size: 0x8, addend: 0x0, symName: __ZN3syn5token7Bracket8surround17h4010ca43394a9eecE, symObjAddr: 0xA450, symBinAddr: 0xFFC50, symSize: 0x1A0 }
  - { offsetInCU: 0x1935D, offset: 0x591303, size: 0x8, addend: 0x0, symName: __ZN3syn5token7Bracket8surround17h5da20462893431d0E, symObjAddr: 0xA790, symBinAddr: 0xFFDF0, symSize: 0x130 }
  - { offsetInCU: 0x19573, offset: 0x591519, size: 0x8, addend: 0x0, symName: __ZN3syn5token7Bracket8surround17ha5aff01b8fd5a0e1E, symObjAddr: 0xA9F0, symBinAddr: 0xFFF20, symSize: 0x160 }
  - { offsetInCU: 0x197AA, offset: 0x591750, size: 0x8, addend: 0x0, symName: __ZN3syn5token7Bracket8surround17hc7c268cb755c8c19E, symObjAddr: 0xAB50, symBinAddr: 0x100080, symSize: 0x150 }
  - { offsetInCU: 0x19A09, offset: 0x5919AF, size: 0x8, addend: 0x0, symName: __ZN3syn5token7Bracket8surround17hfab81345bbdd2f89E, symObjAddr: 0xACA0, symBinAddr: 0x1001D0, symSize: 0x130 }
  - { offsetInCU: 0x19BF7, offset: 0x591B9D, size: 0x8, addend: 0x0, symName: __ZN3syn5token5Paren8surround17h0c12e09da3aa8e34E, symObjAddr: 0xADF0, symBinAddr: 0x100300, symSize: 0x1F0 }
  - { offsetInCU: 0x19F1B, offset: 0x591EC1, size: 0x8, addend: 0x0, symName: __ZN3syn5token5Paren8surround17h16e802a9434a262fE, symObjAddr: 0xAFE0, symBinAddr: 0x1004F0, symSize: 0x210 }
  - { offsetInCU: 0x1A679, offset: 0x59261F, size: 0x8, addend: 0x0, symName: __ZN3syn5token5Paren8surround17h28d44f6895295df5E, symObjAddr: 0xB1F0, symBinAddr: 0x100700, symSize: 0x1FC0 }
  - { offsetInCU: 0x2211B, offset: 0x59A0C1, size: 0x8, addend: 0x0, symName: __ZN3syn5token5Paren8surround17h38eece4b36020a96E, symObjAddr: 0xD1B0, symBinAddr: 0x1026C0, symSize: 0x1A0 }
  - { offsetInCU: 0x226F7, offset: 0x59A69D, size: 0x8, addend: 0x0, symName: __ZN3syn5token5Paren8surround17h4007655ded83f205E, symObjAddr: 0xD350, symBinAddr: 0x102860, symSize: 0x240 }
  - { offsetInCU: 0x22DA4, offset: 0x59AD4A, size: 0x8, addend: 0x0, symName: __ZN3syn5token5Paren8surround17h4549913c098e8324E, symObjAddr: 0xD590, symBinAddr: 0x102AA0, symSize: 0x590 }
  - { offsetInCU: 0x239E2, offset: 0x59B988, size: 0x8, addend: 0x0, symName: __ZN3syn5token5Paren8surround17h4bee939971f7badbE, symObjAddr: 0xDB20, symBinAddr: 0x103030, symSize: 0x1A0 }
  - { offsetInCU: 0x23F13, offset: 0x59BEB9, size: 0x8, addend: 0x0, symName: __ZN3syn5token5Paren8surround17h659862ce9b85cd3fE, symObjAddr: 0xDE60, symBinAddr: 0x1031D0, symSize: 0x120 }
  - { offsetInCU: 0x2417C, offset: 0x59C122, size: 0x8, addend: 0x0, symName: __ZN3syn5token5Paren8surround17h65f8affeb8dd01f8E, symObjAddr: 0xDF80, symBinAddr: 0x1032F0, symSize: 0x260 }
  - { offsetInCU: 0x248A9, offset: 0x59C84F, size: 0x8, addend: 0x0, symName: __ZN3syn5token5Paren8surround17h8213022939b4c94aE, symObjAddr: 0xE1E0, symBinAddr: 0x103550, symSize: 0x210 }
  - { offsetInCU: 0x24F1F, offset: 0x59CEC5, size: 0x8, addend: 0x0, symName: __ZN3syn5token5Paren8surround17h913431f398679f5cE, symObjAddr: 0xE3F0, symBinAddr: 0x103760, symSize: 0x460 }
  - { offsetInCU: 0x25AE7, offset: 0x59DA8D, size: 0x8, addend: 0x0, symName: __ZN3syn5token5Paren8surround17h94193c74c4feae5eE, symObjAddr: 0xE850, symBinAddr: 0x103BC0, symSize: 0x120 }
  - { offsetInCU: 0x25D0A, offset: 0x59DCB0, size: 0x8, addend: 0x0, symName: __ZN3syn5token5Paren8surround17hab374b99a74045c1E, symObjAddr: 0xE970, symBinAddr: 0x103CE0, symSize: 0x180 }
  - { offsetInCU: 0x26045, offset: 0x59DFEB, size: 0x8, addend: 0x0, symName: __ZN3syn5token5Paren8surround17hc5047487c1c6e5cbE, symObjAddr: 0xEAF0, symBinAddr: 0x103E60, symSize: 0x130 }
  - { offsetInCU: 0x26213, offset: 0x59E1B9, size: 0x8, addend: 0x0, symName: __ZN3syn5token5Paren8surround17hd13f0c3754c57ba1E, symObjAddr: 0xEC20, symBinAddr: 0x103F90, symSize: 0x1A0 }
  - { offsetInCU: 0x26766, offset: 0x59E70C, size: 0x8, addend: 0x0, symName: __ZN3syn5token5Paren8surround17hef6358969a27e005E, symObjAddr: 0xF000, symBinAddr: 0x104130, symSize: 0x1BA }
  - { offsetInCU: 0x15C9, offset: 0x5A90C7, size: 0x8, addend: 0x0, symName: '__ZN3syn2ty8printing76_$LT$impl$u20$quote..to_tokens..ToTokens$u20$for$u20$syn..ty..TypeBareFn$GT$9to_tokens17h9ada785e3c4ac8beE', symObjAddr: 0xB6E0, symBinAddr: 0x10DAC0, symSize: 0x210 }
  - { offsetInCU: 0x1CB0, offset: 0x5A97AE, size: 0x8, addend: 0x0, symName: '__ZN3syn2ty8printing78_$LT$impl$u20$quote..to_tokens..ToTokens$u20$for$u20$syn..ty..BareVariadic$GT$9to_tokens17hd841e8aff45580ffE', symObjAddr: 0xBF60, symBinAddr: 0x10DCD0, symSize: 0x130 }
  - { offsetInCU: 0x1F7F, offset: 0x5A9A7D, size: 0x8, addend: 0x0, symName: '__ZN3syn2ty7parsing64_$LT$impl$u20$syn..parse..Parse$u20$for$u20$syn..ty..TypePtr$GT$5parse17hb3a631f8b5050729E', symObjAddr: 0x86C0, symBinAddr: 0x10B880, symSize: 0x440 }
  - { offsetInCU: 0x2BB9, offset: 0x5AA6B7, size: 0x8, addend: 0x0, symName: '__ZN3syn2ty7parsing70_$LT$impl$u20$syn..parse..Parse$u20$for$u20$syn..ty..TypeReference$GT$5parse17h28b5cea3a2a5f18cE', symObjAddr: 0x8B00, symBinAddr: 0x10BCC0, symSize: 0x3C0 }
  - { offsetInCU: 0x3327, offset: 0x5AAE25, size: 0x8, addend: 0x0, symName: '__ZN3syn2ty7parsing67_$LT$impl$u20$syn..parse..Parse$u20$for$u20$syn..ty..TypeBareFn$GT$5parse17hc7333311caab7003E', symObjAddr: 0x8EC0, symBinAddr: 0x10C080, symSize: 0x1020 }
  - { offsetInCU: 0x5012, offset: 0x5ACB10, size: 0x8, addend: 0x0, symName: '__ZN3syn2ty7parsing66_$LT$impl$u20$syn..parse..Parse$u20$for$u20$syn..ty..TypeNever$GT$5parse17hedcf4bce6d4b8acdE', symObjAddr: 0x9EE0, symBinAddr: 0x10D0A0, symSize: 0x50 }
  - { offsetInCU: 0x50C0, offset: 0x5ACBBE, size: 0x8, addend: 0x0, symName: '__ZN3syn2ty7parsing72_$LT$impl$u20$syn..parse..Parse$u20$for$u20$syn..ty..TypeTraitObject$GT$5parse17h2a2e48674bf544ceE', symObjAddr: 0xA790, symBinAddr: 0x10D2B0, symSize: 0x190 }
  - { offsetInCU: 0x5700, offset: 0x5AD1FE, size: 0x8, addend: 0x0, symName: '__ZN3syn2ty7parsing66_$LT$impl$u20$syn..parse..Parse$u20$for$u20$syn..ty..TypeGroup$GT$5parse17h320d676d6240d83aE', symObjAddr: 0xAF50, symBinAddr: 0x10D8A0, symSize: 0x220 }
  - { offsetInCU: 0x5C86, offset: 0x5AD784, size: 0x8, addend: 0x0, symName: '__ZN60_$LT$syn..ty..Type$u20$as$u20$quote..to_tokens..ToTokens$GT$9to_tokens17hc517846047fbd8d3E', symObjAddr: 0xC130, symBinAddr: 0x10DE00, symSize: 0x800 }
  - { offsetInCU: 0x80B9, offset: 0x5AFBB7, size: 0x8, addend: 0x0, symName: '__ZN77_$LT$$RF$$u5b$syn..attr..Attribute$u5d$$u20$as$u20$syn..attr..FilterAttrs$GT$5outer8is_outer17h41e17c2f166a63adE.llvm.7433280464014642904', symObjAddr: 0x7F60, symBinAddr: 0x10B860, symSize: 0x20 }
  - { offsetInCU: 0xAD57, offset: 0x5B2855, size: 0x8, addend: 0x0, symName: '__ZN3syn3gen5clone67_$LT$impl$u20$core..clone..Clone$u20$for$u20$syn..ty..BareFnArg$GT$5clone17h322032e98041fe57E', symObjAddr: 0xC960, symBinAddr: 0x10E600, symSize: 0x140 }
  - { offsetInCU: 0xB1CC, offset: 0x5B2CCA, size: 0x8, addend: 0x0, symName: '__ZN3syn3gen5clone62_$LT$impl$u20$core..clone..Clone$u20$for$u20$syn..ty..Type$GT$5clone17hab6b515cddcf12a4E', symObjAddr: 0xCC10, symBinAddr: 0x10E740, symSize: 0x8A0 }
  - { offsetInCU: 0xC9BB, offset: 0x5B44B9, size: 0x8, addend: 0x0, symName: '__ZN3syn3gen5clone68_$LT$impl$u20$core..clone..Clone$u20$for$u20$syn..ty..TypeBareFn$GT$5clone17h93542e2290e09c95E', symObjAddr: 0xD5C0, symBinAddr: 0x10EFE0, symSize: 0x490 }
  - { offsetInCU: 0xFBB8, offset: 0x5B76B6, size: 0x8, addend: 0x0, symName: '__ZN4core3ptr100drop_in_place$LT$core..option..Option$LT$alloc..boxed..Box$LT$syn..path..GenericArgument$GT$$GT$$GT$17h3a7c44b9e57fe410E', symObjAddr: 0x1D0, symBinAddr: 0x1042F0, symSize: 0x50 }
  - { offsetInCU: 0xFF56, offset: 0x5B7A54, size: 0x8, addend: 0x0, symName: '__ZN4core3ptr100drop_in_place$LT$syn..punctuated..Punctuated$LT$syn..path..PathSegment$C$syn..token..PathSep$GT$$GT$17he41ef64147139591E', symObjAddr: 0x220, symBinAddr: 0x104340, symSize: 0x2B0 }
  - { offsetInCU: 0x10A0C, offset: 0x5B850A, size: 0x8, addend: 0x0, symName: '__ZN4core3ptr103drop_in_place$LT$core..option..Option$LT$alloc..boxed..Box$LT$syn..generics..TypeParamBound$GT$$GT$$GT$17hb14e4384a768542bE', symObjAddr: 0x4D0, symBinAddr: 0x1045F0, symSize: 0x50 }
  - { offsetInCU: 0x10C17, offset: 0x5B8715, size: 0x8, addend: 0x0, symName: '__ZN4core3ptr103drop_in_place$LT$syn..punctuated..Punctuated$LT$syn..generics..GenericParam$C$syn..token..Comma$GT$$GT$17h0c6077a988036760E', symObjAddr: 0x520, symBinAddr: 0x104640, symSize: 0xF0 }
  - { offsetInCU: 0x11112, offset: 0x5B8C10, size: 0x8, addend: 0x0, symName: '__ZN4core3ptr104drop_in_place$LT$syn..punctuated..Punctuated$LT$syn..generics..TypeParamBound$C$syn..token..Plus$GT$$GT$17h724e4d9d1d65061aE', symObjAddr: 0x610, symBinAddr: 0x104730, symSize: 0x190 }
  - { offsetInCU: 0x117B1, offset: 0x5B92AF, size: 0x8, addend: 0x0, symName: '__ZN4core3ptr34drop_in_place$LT$syn..lit..Lit$GT$17hd64dde89a262341dE', symObjAddr: 0x7A0, symBinAddr: 0x1048C0, symSize: 0x120 }
  - { offsetInCU: 0x11C9F, offset: 0x5B979D, size: 0x8, addend: 0x0, symName: '__ZN4core3ptr34drop_in_place$LT$syn..pat..Pat$GT$17hf88887878261d63cE', symObjAddr: 0x8C0, symBinAddr: 0x1049E0, symSize: 0x1100 }
  - { offsetInCU: 0x16318, offset: 0x5BDE16, size: 0x8, addend: 0x0, symName: '__ZN4core3ptr34drop_in_place$LT$syn..ty..Type$GT$17ha80dd29b0f9d4a3fE.llvm.7433280464014642904', symObjAddr: 0x19C0, symBinAddr: 0x105AE0, symSize: 0x510 }
  - { offsetInCU: 0x1797E, offset: 0x5BF47C, size: 0x8, addend: 0x0, symName: '__ZN4core3ptr36drop_in_place$LT$syn..expr..Expr$GT$17h10f573b40ddd212cE', symObjAddr: 0x1ED0, symBinAddr: 0x105FF0, symSize: 0x2840 }
  - { offsetInCU: 0x21A5C, offset: 0x5C955A, size: 0x8, addend: 0x0, symName: '__ZN4core3ptr36drop_in_place$LT$syn..mac..Macro$GT$17hc3b30a7a8a34cc2dE', symObjAddr: 0x4710, symBinAddr: 0x108830, symSize: 0x40 }
  - { offsetInCU: 0x21A96, offset: 0x5C9594, size: 0x8, addend: 0x0, symName: '__ZN4core3ptr36drop_in_place$LT$syn..path..Path$GT$17h75c74a97d5f0a03bE', symObjAddr: 0x4750, symBinAddr: 0x108870, symSize: 0x280 }
  - { offsetInCU: 0x22543, offset: 0x5CA041, size: 0x8, addend: 0x0, symName: '__ZN4core3ptr37drop_in_place$LT$syn..stmt..Block$GT$17h6fc3254d5688f2c3E', symObjAddr: 0x49D0, symBinAddr: 0x108AF0, symSize: 0xD0 }
  - { offsetInCU: 0x2281A, offset: 0x5CA318, size: 0x8, addend: 0x0, symName: '__ZN4core3ptr38drop_in_place$LT$syn..expr..Member$GT$17h6b0cf84594ce6bceE', symObjAddr: 0x4AA0, symBinAddr: 0x108BC0, symSize: 0x30 }
  - { offsetInCU: 0x229B1, offset: 0x5CA4AF, size: 0x8, addend: 0x0, symName: '__ZN4core3ptr38drop_in_place$LT$syn..group..Group$GT$17ha3c6933df6efe66fE.llvm.7433280464014642904', symObjAddr: 0x4AD0, symBinAddr: 0x108BF0, symSize: 0x70 }
  - { offsetInCU: 0x22CA9, offset: 0x5CA7A7, size: 0x8, addend: 0x0, symName: '__ZN4core3ptr39drop_in_place$LT$proc_macro2..Ident$GT$17ha28fef9769e267d9E', symObjAddr: 0x4B40, symBinAddr: 0x108C60, symSize: 0x30 }
  - { offsetInCU: 0x22D86, offset: 0x5CA884, size: 0x8, addend: 0x0, symName: '__ZN4core3ptr40drop_in_place$LT$syn..ty..ReturnType$GT$17h035a612e322b6510E', symObjAddr: 0x4B70, symBinAddr: 0x108C90, symSize: 0x50 }
  - { offsetInCU: 0x22EF6, offset: 0x5CA9F4, size: 0x8, addend: 0x0, symName: '__ZN4core3ptr41drop_in_place$LT$syn..expr..ExprConst$GT$17hbfe19d5d621e6836E', symObjAddr: 0x4BC0, symBinAddr: 0x108CE0, symSize: 0x180 }
  - { offsetInCU: 0x234E3, offset: 0x5CAFE1, size: 0x8, addend: 0x0, symName: '__ZN4core3ptr44drop_in_place$LT$syn..lifetime..Lifetime$GT$17he37fa474f03de7b1E', symObjAddr: 0x4D40, symBinAddr: 0x108E60, symSize: 0x30 }
  - { offsetInCU: 0x235DF, offset: 0x5CB0DD, size: 0x8, addend: 0x0, symName: '__ZN4core3ptr44drop_in_place$LT$syn..parse..ParseBuffer$GT$17hf792ff20095efc35E', symObjAddr: 0x4D70, symBinAddr: 0x108E90, symSize: 0x70 }
  - { offsetInCU: 0x239F6, offset: 0x5CB4F4, size: 0x8, addend: 0x0, symName: '__ZN4core3ptr45drop_in_place$LT$proc_macro2..TokenStream$GT$17h76e8e68015f4924dE.llvm.7433280464014642904', symObjAddr: 0x4DE0, symBinAddr: 0x108F00, symSize: 0x140 }
  - { offsetInCU: 0x23E90, offset: 0x5CB98E, size: 0x8, addend: 0x0, symName: '__ZN4core3ptr45drop_in_place$LT$syn..generics..TypeParam$GT$17h188a459c1380ac75E', symObjAddr: 0x4F20, symBinAddr: 0x109040, symSize: 0x230 }
  - { offsetInCU: 0x24705, offset: 0x5CC203, size: 0x8, addend: 0x0, symName: '__ZN4core3ptr46drop_in_place$LT$syn..generics..ConstParam$GT$17h7a9b900b2b88bfcdE', symObjAddr: 0x5150, symBinAddr: 0x109270, symSize: 0x150 }
  - { offsetInCU: 0x24B86, offset: 0x5CC684, size: 0x8, addend: 0x0, symName: '__ZN4core3ptr47drop_in_place$LT$syn..path..GenericArgument$GT$17h593f06d6ca9a94d2E', symObjAddr: 0x52A0, symBinAddr: 0x1093C0, symSize: 0x4A0 }
  - { offsetInCU: 0x25C8C, offset: 0x5CD78A, size: 0x8, addend: 0x0, symName: '__ZN4core3ptr49drop_in_place$LT$syn..generics..LifetimeParam$GT$17h3a8835ab294bfd16E', symObjAddr: 0x5740, symBinAddr: 0x109860, symSize: 0xF0 }
  - { offsetInCU: 0x260A3, offset: 0x5CDBA1, size: 0x8, addend: 0x0, symName: '__ZN4core3ptr50drop_in_place$LT$syn..generics..TypeParamBound$GT$17h81b4325b5900604dE', symObjAddr: 0x5830, symBinAddr: 0x109950, symSize: 0x1C0 }
  - { offsetInCU: 0x26600, offset: 0x5CE0FE, size: 0x8, addend: 0x0, symName: '__ZN4core3ptr58drop_in_place$LT$alloc..vec..Vec$LT$syn..expr..Arm$GT$$GT$17hff9224aadf2233b8E', symObjAddr: 0x59F0, symBinAddr: 0x109B10, symSize: 0xD0 }
  - { offsetInCU: 0x268C0, offset: 0x5CE3BE, size: 0x8, addend: 0x0, symName: '__ZN4core3ptr59drop_in_place$LT$alloc..boxed..Box$LT$syn..pat..Pat$GT$$GT$17h622b0c1db21c0742E', symObjAddr: 0x5AC0, symBinAddr: 0x109BE0, symSize: 0x50 }
  - { offsetInCU: 0x26A19, offset: 0x5CE517, size: 0x8, addend: 0x0, symName: '__ZN4core3ptr59drop_in_place$LT$alloc..boxed..Box$LT$syn..ty..Type$GT$$GT$17hde45fa887dd8b605E', symObjAddr: 0x5B10, symBinAddr: 0x109C30, symSize: 0x50 }
  - { offsetInCU: 0x26B72, offset: 0x5CE670, size: 0x8, addend: 0x0, symName: '__ZN4core3ptr61drop_in_place$LT$alloc..boxed..Box$LT$syn..expr..Expr$GT$$GT$17hbb42293869113942E', symObjAddr: 0x5B60, symBinAddr: 0x109C80, symSize: 0x50 }
  - { offsetInCU: 0x26D47, offset: 0x5CE845, size: 0x8, addend: 0x0, symName: '__ZN4core3ptr61drop_in_place$LT$syn..path..ParenthesizedGenericArguments$GT$17h6b1731382637937fE', symObjAddr: 0x5C20, symBinAddr: 0x109CD0, symSize: 0x170 }
  - { offsetInCU: 0x2733D, offset: 0x5CEE3B, size: 0x8, addend: 0x0, symName: '__ZN4core3ptr62drop_in_place$LT$syn..path..AngleBracketedGenericArguments$GT$17hf8fa172f007a1473E', symObjAddr: 0x5D90, symBinAddr: 0x109E40, symSize: 0x120 }
  - { offsetInCU: 0x27788, offset: 0x5CF286, size: 0x8, addend: 0x0, symName: '__ZN4core3ptr63drop_in_place$LT$alloc..boxed..Box$LT$syn..lit..LitRepr$GT$$GT$17h6e3a82ea4de7b84cE', symObjAddr: 0x5EB0, symBinAddr: 0x109F60, symSize: 0x60 }
  - { offsetInCU: 0x27A8F, offset: 0x5CF58D, size: 0x8, addend: 0x0, symName: '__ZN4core3ptr64drop_in_place$LT$alloc..boxed..Box$LT$syn..pat..FieldPat$GT$$GT$17hbf8f4867d84bd25dE', symObjAddr: 0x5F10, symBinAddr: 0x109FC0, symSize: 0x140 }
  - { offsetInCU: 0x28190, offset: 0x5CFC8E, size: 0x8, addend: 0x0, symName: '__ZN4core3ptr64drop_in_place$LT$alloc..boxed..Box$LT$syn..ty..BareFnArg$GT$$GT$17h6be6354eb1d1364dE', symObjAddr: 0x6050, symBinAddr: 0x10A100, symSize: 0x140 }
  - { offsetInCU: 0x28719, offset: 0x5D0217, size: 0x8, addend: 0x0, symName: '__ZN4core3ptr64drop_in_place$LT$alloc..vec..Vec$LT$syn..attr..Attribute$GT$$GT$17he33e25539d5885aeE.llvm.7433280464014642904', symObjAddr: 0x6190, symBinAddr: 0x10A240, symSize: 0xD0 }
  - { offsetInCU: 0x28A0D, offset: 0x5D050B, size: 0x8, addend: 0x0, symName: '__ZN4core3ptr65drop_in_place$LT$alloc..vec..Vec$LT$proc_macro..TokenTree$GT$$GT$17h8abd81f8596dbc59E.llvm.7433280464014642904', symObjAddr: 0x6260, symBinAddr: 0x10A310, symSize: 0x110 }
  - { offsetInCU: 0x28E05, offset: 0x5D0903, size: 0x8, addend: 0x0, symName: '__ZN4core3ptr65drop_in_place$LT$core..option..Option$LT$syn..expr..Label$GT$$GT$17hac599686b33ef364E', symObjAddr: 0x6370, symBinAddr: 0x10A420, symSize: 0x30 }
  - { offsetInCU: 0x28F3F, offset: 0x5D0A3D, size: 0x8, addend: 0x0, symName: '__ZN4core3ptr65drop_in_place$LT$core..option..Option$LT$syn..path..QSelf$GT$$GT$17h0b8dd5cda5f2cd6bE', symObjAddr: 0x6400, symBinAddr: 0x10A450, symSize: 0x50 }
  - { offsetInCU: 0x290D6, offset: 0x5D0BD4, size: 0x8, addend: 0x0, symName: '__ZN4core3ptr66drop_in_place$LT$core..option..Option$LT$syn..pat..PatRest$GT$$GT$17hd5bb3bc28aa78ac1E', symObjAddr: 0x6450, symBinAddr: 0x10A4A0, symSize: 0xE0 }
  - { offsetInCU: 0x293FE, offset: 0x5D0EFC, size: 0x8, addend: 0x0, symName: '__ZN4core3ptr67drop_in_place$LT$alloc..boxed..Box$LT$syn..expr..FieldValue$GT$$GT$17hbbcf67a9d5e9863cE', symObjAddr: 0x6530, symBinAddr: 0x10A580, symSize: 0x140 }
  - { offsetInCU: 0x29967, offset: 0x5D1465, size: 0x8, addend: 0x0, symName: '__ZN4core3ptr68drop_in_place$LT$alloc..boxed..Box$LT$syn..path..PathSegment$GT$$GT$17h99aaf90b3262bc1eE', symObjAddr: 0x6670, symBinAddr: 0x10A6C0, symSize: 0x1B0 }
  - { offsetInCU: 0x2A075, offset: 0x5D1B73, size: 0x8, addend: 0x0, symName: '__ZN4core3ptr70drop_in_place$LT$core..option..Option$LT$syn..ty..BareVariadic$GT$$GT$17h79a19250e9f043b1E', symObjAddr: 0x6820, symBinAddr: 0x10A870, symSize: 0x100 }
  - { offsetInCU: 0x2A4E0, offset: 0x5D1FDE, size: 0x8, addend: 0x0, symName: '__ZN4core3ptr72drop_in_place$LT$alloc..boxed..Box$LT$syn..path..GenericArgument$GT$$GT$17hfd308d374af4273dE', symObjAddr: 0x6920, symBinAddr: 0x10A970, symSize: 0x1D0 }
  - { offsetInCU: 0x2AA7B, offset: 0x5D2579, size: 0x8, addend: 0x0, symName: '__ZN4core3ptr73drop_in_place$LT$alloc..boxed..Box$LT$syn..generics..GenericParam$GT$$GT$17ha26d5d145af4b203E', symObjAddr: 0x6AF0, symBinAddr: 0x10AB40, symSize: 0x80 }
  - { offsetInCU: 0x2ABF1, offset: 0x5D26EF, size: 0x8, addend: 0x0, symName: '__ZN4core3ptr75drop_in_place$LT$alloc..boxed..Box$LT$syn..generics..TypeParamBound$GT$$GT$17h129a4e927e5eb81bE', symObjAddr: 0x6B70, symBinAddr: 0x10ABC0, symSize: 0xC0 }
  - { offsetInCU: 0x2AF45, offset: 0x5D2A43, size: 0x8, addend: 0x0, symName: '__ZN4core3ptr86drop_in_place$LT$syn..punctuated..Punctuated$LT$syn..pat..Pat$C$syn..token..Or$GT$$GT$17h9cc6b5f7b6d3a555E', symObjAddr: 0x6C50, symBinAddr: 0x10AC80, symSize: 0x120 }
  - { offsetInCU: 0x2B3C0, offset: 0x5D2EBE, size: 0x8, addend: 0x0, symName: '__ZN4core3ptr87drop_in_place$LT$core..option..Option$LT$alloc..boxed..Box$LT$syn..pat..Pat$GT$$GT$$GT$17h51cd48973d96c411E', symObjAddr: 0x6D70, symBinAddr: 0x10ADA0, symSize: 0x50 }
  - { offsetInCU: 0x2B530, offset: 0x5D302E, size: 0x8, addend: 0x0, symName: '__ZN4core3ptr87drop_in_place$LT$core..option..Option$LT$alloc..boxed..Box$LT$syn..ty..Type$GT$$GT$$GT$17h103a25a4a7d7374eE', symObjAddr: 0x6DC0, symBinAddr: 0x10ADF0, symSize: 0x50 }
  - { offsetInCU: 0x2B6A0, offset: 0x5D319E, size: 0x8, addend: 0x0, symName: '__ZN4core3ptr89drop_in_place$LT$core..option..Option$LT$alloc..boxed..Box$LT$syn..expr..Expr$GT$$GT$$GT$17h9e02509cb2345d44E', symObjAddr: 0x6E10, symBinAddr: 0x10AE40, symSize: 0x50 }
  - { offsetInCU: 0x2B84E, offset: 0x5D334C, size: 0x8, addend: 0x0, symName: '__ZN4core3ptr89drop_in_place$LT$syn..punctuated..Punctuated$LT$syn..pat..Pat$C$syn..token..Comma$GT$$GT$17hd3a83c36827f210aE', symObjAddr: 0x6E60, symBinAddr: 0x10AE90, symSize: 0x120 }
  - { offsetInCU: 0x2BCE0, offset: 0x5D37DE, size: 0x8, addend: 0x0, symName: '__ZN4core3ptr89drop_in_place$LT$syn..punctuated..Punctuated$LT$syn..ty..Type$C$syn..token..Comma$GT$$GT$17he030c4b7f24a5848E', symObjAddr: 0x6F80, symBinAddr: 0x10AFB0, symSize: 0x120 }
  - { offsetInCU: 0x2C15B, offset: 0x5D3C59, size: 0x8, addend: 0x0, symName: '__ZN4core3ptr90drop_in_place$LT$core..option..Option$LT$syn..path..AngleBracketedGenericArguments$GT$$GT$17ha307713a95a0671eE', symObjAddr: 0x70A0, symBinAddr: 0x10B0D0, symSize: 0x130 }
  - { offsetInCU: 0x2C5FD, offset: 0x5D40FB, size: 0x8, addend: 0x0, symName: '__ZN4core3ptr91drop_in_place$LT$syn..punctuated..Punctuated$LT$syn..expr..Expr$C$syn..token..Comma$GT$$GT$17h6f261e8f470c81f2E', symObjAddr: 0x71D0, symBinAddr: 0x10B200, symSize: 0x120 }
  - { offsetInCU: 0x2CA8B, offset: 0x5D4589, size: 0x8, addend: 0x0, symName: '__ZN4core3ptr94drop_in_place$LT$syn..punctuated..Punctuated$LT$syn..pat..FieldPat$C$syn..token..Comma$GT$$GT$17h43ec25af986ef674E', symObjAddr: 0x72F0, symBinAddr: 0x10B320, symSize: 0xF0 }
  - { offsetInCU: 0x2CD8A, offset: 0x5D4888, size: 0x8, addend: 0x0, symName: '__ZN4core3ptr94drop_in_place$LT$syn..punctuated..Punctuated$LT$syn..ty..BareFnArg$C$syn..token..Comma$GT$$GT$17h7ba4c699ee390ebaE', symObjAddr: 0x73E0, symBinAddr: 0x10B410, symSize: 0xF0 }
  - { offsetInCU: 0x2D08B, offset: 0x5D4B89, size: 0x8, addend: 0x0, symName: '__ZN4core3ptr95drop_in_place$LT$core..option..Option$LT$$LP$proc_macro2..Ident$C$syn..token..Colon$RP$$GT$$GT$17h59fe297999aa3329E.llvm.7433280464014642904', symObjAddr: 0x74D0, symBinAddr: 0x10B500, symSize: 0x30 }
  - { offsetInCU: 0x2D1A6, offset: 0x5D4CA4, size: 0x8, addend: 0x0, symName: '__ZN4core3ptr96drop_in_place$LT$core..option..Option$LT$alloc..boxed..Box$LT$syn..path..PathSegment$GT$$GT$$GT$17h5de12a5a0f9e9ef9E', symObjAddr: 0x7500, symBinAddr: 0x10B530, symSize: 0xA0 }
  - { offsetInCU: 0x2D425, offset: 0x5D4F23, size: 0x8, addend: 0x0, symName: '__ZN4core3ptr97drop_in_place$LT$syn..punctuated..Punctuated$LT$syn..expr..FieldValue$C$syn..token..Comma$GT$$GT$17hf58d0a9a09266ab3E', symObjAddr: 0x75A0, symBinAddr: 0x10B5D0, symSize: 0xF0 }
  - { offsetInCU: 0x2D722, offset: 0x5D5220, size: 0x8, addend: 0x0, symName: '__ZN4core3ptr98drop_in_place$LT$alloc..vec..Vec$LT$$LP$syn..path..GenericArgument$C$syn..token..Comma$RP$$GT$$GT$17h0dee282a026d5a38E', symObjAddr: 0x7690, symBinAddr: 0x10B6C0, symSize: 0xD0 }
  - { offsetInCU: 0x2DA62, offset: 0x5D5560, size: 0x8, addend: 0x0, symName: '__ZN4core3ptr98drop_in_place$LT$syn..punctuated..Punctuated$LT$syn..lifetime..Lifetime$C$syn..token..Plus$GT$$GT$17h600c2b78f78fd2b9E', symObjAddr: 0x7760, symBinAddr: 0x10B790, symSize: 0xD0 }
  - { offsetInCU: 0x35B41, offset: 0x5DD63F, size: 0x8, addend: 0x0, symName: '__ZN3syn2ty7parsing37_$LT$impl$u20$syn..ty..ReturnType$GT$5parse17h76bf66c5704e5568E.llvm.7433280464014642904', symObjAddr: 0xA5B0, symBinAddr: 0x10D0F0, symSize: 0x1C0 }
  - { offsetInCU: 0x36038, offset: 0x5DDB36, size: 0x8, addend: 0x0, symName: '__ZN3syn2ty7parsing42_$LT$impl$u20$syn..ty..TypeTraitObject$GT$12parse_bounds17hcce0f5f0c06eac47E', symObjAddr: 0xAAB0, symBinAddr: 0x10D440, symSize: 0x200 }
  - { offsetInCU: 0x365EF, offset: 0x5DE0ED, size: 0x8, addend: 0x0, symName: '__ZN3syn2ty7parsing40_$LT$impl$u20$syn..ty..TypeImplTrait$GT$5parse17h57ff6f0ea678d301E', symObjAddr: 0xACF0, symBinAddr: 0x10D640, symSize: 0x260 }
  - { offsetInCU: 0x1E, offset: 0x5E5336, size: 0x8, addend: 0x0, symName: '__ZN4core3fmt3num52_$LT$impl$u20$core..fmt..Debug$u20$for$u20$usize$GT$3fmt17h9e5c63f85393f427E', symObjAddr: 0x0, symBinAddr: 0x10F470, symSize: 0x30 }
  - { offsetInCU: 0x50D, offset: 0x5E5825, size: 0x8, addend: 0x0, symName: '__ZN4core3ptr46drop_in_place$LT$alloc..vec..Vec$LT$u8$GT$$GT$17hac40de56aef3363bE', symObjAddr: 0x30, symBinAddr: 0x10F4A0, symSize: 0x20 }
  - { offsetInCU: 0x615, offset: 0x5E592D, size: 0x8, addend: 0x0, symName: '__ZN4core3ptr48drop_in_place$LT$alloc..ffi..c_str..NulError$GT$17h22b4ea6536ce838bE', symObjAddr: 0x50, symBinAddr: 0x10F4C0, symSize: 0x20 }
  - { offsetInCU: 0x71D, offset: 0x5E5A35, size: 0x8, addend: 0x0, symName: '__ZN4core3ptr49drop_in_place$LT$alloc..string..FromUtf8Error$GT$17heaaeee83f03b2b7bE', symObjAddr: 0x70, symBinAddr: 0x10F4E0, symSize: 0x20 }
  - { offsetInCU: 0x2375, offset: 0x5E768D, size: 0x8, addend: 0x0, symName: '__ZN4core3fmt3num52_$LT$impl$u20$core..fmt..Debug$u20$for$u20$usize$GT$3fmt17h9e5c63f85393f427E', symObjAddr: 0x0, symBinAddr: 0x10F470, symSize: 0x30 }
  - { offsetInCU: 0x3D8F, offset: 0x5E90A7, size: 0x8, addend: 0x0, symName: '__ZN65_$LT$alloc..string..FromUtf8Error$u20$as$u20$core..fmt..Debug$GT$3fmt17h0c1e2aafb1cc24ffE', symObjAddr: 0xE0, symBinAddr: 0x10F550, symSize: 0x70 }
  - { offsetInCU: 0x449C, offset: 0x5E97B4, size: 0x8, addend: 0x0, symName: '__ZN64_$LT$alloc..ffi..c_str..NulError$u20$as$u20$core..fmt..Debug$GT$3fmt17h75cdff7a4e3710ebE', symObjAddr: 0x90, symBinAddr: 0x10F500, symSize: 0x50 }
  - { offsetInCU: 0x5012, offset: 0x5EA32A, size: 0x8, addend: 0x0, symName: __ZN3syn3lit5value13parse_lit_str17h9a56025a1403992cE, symObjAddr: 0x170, symBinAddr: 0x10F5C0, symSize: 0x8F0 }
  - { offsetInCU: 0x691E, offset: 0x5EBC36, size: 0x8, addend: 0x0, symName: __ZN3syn3lit5value17parse_lit_str_raw17h71a7a6b74a99cbf4E, symObjAddr: 0xA60, symBinAddr: 0x10FEB0, symSize: 0x3C0 }
  - { offsetInCU: 0x7BCB, offset: 0x5ECEE3, size: 0x8, addend: 0x0, symName: __ZN3syn3lit5value18parse_lit_byte_str17he5816c9781ee600cE, symObjAddr: 0xE20, symBinAddr: 0x110270, symSize: 0x600 }
  - { offsetInCU: 0x8FDF, offset: 0x5EE2F7, size: 0x8, addend: 0x0, symName: __ZN3syn3lit5value15parse_lit_c_str17h8ea0e7f1f657a4ccE, symObjAddr: 0x1420, symBinAddr: 0x110870, symSize: 0xD50 }
  - { offsetInCU: 0xAD63, offset: 0x5F007B, size: 0x8, addend: 0x0, symName: __ZN3syn3lit5value14parse_lit_byte17h1a7c10a21ef1f8adE, symObjAddr: 0x2170, symBinAddr: 0x1115C0, symSize: 0x380 }
  - { offsetInCU: 0xB824, offset: 0x5F0B3C, size: 0x8, addend: 0x0, symName: __ZN3syn3lit5value14parse_lit_char17h1b6fdda66c901312E, symObjAddr: 0x24F0, symBinAddr: 0x111940, symSize: 0x530 }
  - { offsetInCU: 0xC535, offset: 0x5F184D, size: 0x8, addend: 0x0, symName: __ZN3syn3lit5value11backslash_x17had5b4021e53b86d3E, symObjAddr: 0x2A20, symBinAddr: 0x111E70, symSize: 0x160 }
  - { offsetInCU: 0xC7D2, offset: 0x5F1AEA, size: 0x8, addend: 0x0, symName: __ZN3syn3lit5value11backslash_x17hea0a6f2f0138e96cE, symObjAddr: 0x2B80, symBinAddr: 0x111FD0, symSize: 0x140 }
  - { offsetInCU: 0xCA01, offset: 0x5F1D19, size: 0x8, addend: 0x0, symName: __ZN3syn3lit5value11backslash_u17hc546eddee006fb27E, symObjAddr: 0x2CC0, symBinAddr: 0x112110, symSize: 0x340 }
  - { offsetInCU: 0xD150, offset: 0x5F2468, size: 0x8, addend: 0x0, symName: __ZN3syn3lit5value13parse_lit_int17h8a54417df181638cE, symObjAddr: 0x3000, symBinAddr: 0x112450, symSize: 0x710 }
  - { offsetInCU: 0xE76A, offset: 0x5F3A82, size: 0x8, addend: 0x0, symName: __ZN3syn3lit5value15parse_lit_float17h48254a3bf7939b78E, symObjAddr: 0x3710, symBinAddr: 0x112B60, symSize: 0x7A0 }
  - { offsetInCU: 0xF969, offset: 0x5F4C81, size: 0x8, addend: 0x0, symName: __ZN3syn3lit5value11backslash_u18panic_cold_display17ha129ad0961798f3eE, symObjAddr: 0x3EB0, symBinAddr: 0x216600, symSize: 0x59 }
  - { offsetInCU: 0x2255, offset: 0x5F8942, size: 0x8, addend: 0x0, symName: '__ZN77_$LT$$RF$$u5b$syn..attr..Attribute$u5d$$u20$as$u20$syn..attr..FilterAttrs$GT$5outer8is_outer17h41e17c2f166a63adE.llvm.15906860425259147884', symObjAddr: 0x7BC0, symBinAddr: 0x11A820, symSize: 0x20 }
  - { offsetInCU: 0x33DD, offset: 0x5F9ACA, size: 0x8, addend: 0x0, symName: '__ZN3syn3pat8printing75_$LT$impl$u20$quote..to_tokens..ToTokens$u20$for$u20$syn..pat..PatIdent$GT$9to_tokens17h773c7ddcca1eed4aE', symObjAddr: 0x9130, symBinAddr: 0x11B910, symSize: 0x1F0 }
  - { offsetInCU: 0x395B, offset: 0x5FA048, size: 0x8, addend: 0x0, symName: '__ZN3syn3pat8printing74_$LT$impl$u20$quote..to_tokens..ToTokens$u20$for$u20$syn..pat..PatRest$GT$9to_tokens17h5a916ef9f4d32210E', symObjAddr: 0x96B0, symBinAddr: 0x11BB00, symSize: 0xD0 }
  - { offsetInCU: 0x3BFC, offset: 0x5FA2E9, size: 0x8, addend: 0x0, symName: '__ZN3syn3pat8printing74_$LT$impl$u20$quote..to_tokens..ToTokens$u20$for$u20$syn..pat..PatType$GT$9to_tokens17hc06b7f213d6b0d4dE', symObjAddr: 0x9AC0, symBinAddr: 0x11BBD0, symSize: 0xE0 }
  - { offsetInCU: 0x3E65, offset: 0x5FA552, size: 0x8, addend: 0x0, symName: '__ZN60_$LT$syn..pat..Pat$u20$as$u20$quote..to_tokens..ToTokens$GT$9to_tokens17h0cf42f7c25d434c6E', symObjAddr: 0x9DD0, symBinAddr: 0x11BCB0, symSize: 0xF20 }
  - { offsetInCU: 0x8312, offset: 0x5FE9FF, size: 0x8, addend: 0x0, symName: '__ZN3syn3gen5clone67_$LT$impl$u20$core..clone..Clone$u20$for$u20$syn..pat..FieldPat$GT$5clone17h844b6ab8c4c564e9E', symObjAddr: 0xACF0, symBinAddr: 0x11CBD0, symSize: 0x180 }
  - { offsetInCU: 0x87F8, offset: 0x5FEEE5, size: 0x8, addend: 0x0, symName: '__ZN3syn3gen5clone66_$LT$impl$u20$core..clone..Clone$u20$for$u20$syn..pat..PatType$GT$5clone17had7ff1b7fd2a7dd8E', symObjAddr: 0xC4A0, symBinAddr: 0x11E020, symSize: 0x170 }
  - { offsetInCU: 0x8D42, offset: 0x5FF42F, size: 0x8, addend: 0x0, symName: '__ZN3syn3gen5clone62_$LT$impl$u20$core..clone..Clone$u20$for$u20$syn..pat..Pat$GT$5clone17h5c8df087bec04fcbE', symObjAddr: 0xAE70, symBinAddr: 0x11CD50, symSize: 0xAE0 }
  - { offsetInCU: 0xA2EE, offset: 0x6009DB, size: 0x8, addend: 0x0, symName: '__ZN3syn3gen5clone67_$LT$impl$u20$core..clone..Clone$u20$for$u20$syn..pat..PatIdent$GT$5clone17h4e1f2f3fc7ad63f5E', symObjAddr: 0xB950, symBinAddr: 0x11D830, symSize: 0x1A0 }
  - { offsetInCU: 0xA77B, offset: 0x600E68, size: 0x8, addend: 0x0, symName: '__ZN3syn3gen5clone68_$LT$impl$u20$core..clone..Clone$u20$for$u20$syn..pat..PatStruct$GT$5clone17h8a3afe9fa7cecfcfE', symObjAddr: 0xBE50, symBinAddr: 0x11D9D0, symSize: 0x3B0 }
  - { offsetInCU: 0xADBD, offset: 0x6014AA, size: 0x8, addend: 0x0, symName: '__ZN3syn3gen5clone73_$LT$impl$u20$core..clone..Clone$u20$for$u20$syn..pat..PatTupleStruct$GT$5clone17h1d3eed8ad7fca757E', symObjAddr: 0xC200, symBinAddr: 0x11DD80, symSize: 0x2A0 }
  - { offsetInCU: 0xD280, offset: 0x60396D, size: 0x8, addend: 0x0, symName: '__ZN4core3ptr100drop_in_place$LT$core..option..Option$LT$alloc..boxed..Box$LT$syn..path..GenericArgument$GT$$GT$$GT$17h3a7c44b9e57fe410E', symObjAddr: 0x120, symBinAddr: 0x113300, symSize: 0x50 }
  - { offsetInCU: 0xD61E, offset: 0x603D0B, size: 0x8, addend: 0x0, symName: '__ZN4core3ptr100drop_in_place$LT$syn..punctuated..Punctuated$LT$syn..path..PathSegment$C$syn..token..PathSep$GT$$GT$17he41ef64147139591E', symObjAddr: 0x170, symBinAddr: 0x113350, symSize: 0x2B0 }
  - { offsetInCU: 0xE0D4, offset: 0x6047C1, size: 0x8, addend: 0x0, symName: '__ZN4core3ptr103drop_in_place$LT$core..option..Option$LT$alloc..boxed..Box$LT$syn..generics..TypeParamBound$GT$$GT$$GT$17hb14e4384a768542bE', symObjAddr: 0x420, symBinAddr: 0x113600, symSize: 0x50 }
  - { offsetInCU: 0xE2DF, offset: 0x6049CC, size: 0x8, addend: 0x0, symName: '__ZN4core3ptr103drop_in_place$LT$syn..punctuated..Punctuated$LT$syn..generics..GenericParam$C$syn..token..Comma$GT$$GT$17h0c6077a988036760E', symObjAddr: 0x470, symBinAddr: 0x113650, symSize: 0xF0 }
  - { offsetInCU: 0xE7DA, offset: 0x604EC7, size: 0x8, addend: 0x0, symName: '__ZN4core3ptr104drop_in_place$LT$syn..punctuated..Punctuated$LT$syn..generics..TypeParamBound$C$syn..token..Plus$GT$$GT$17h724e4d9d1d65061aE', symObjAddr: 0x560, symBinAddr: 0x113740, symSize: 0x190 }
  - { offsetInCU: 0xEEB7, offset: 0x6055A4, size: 0x8, addend: 0x0, symName: '__ZN4core3ptr34drop_in_place$LT$syn..lit..Lit$GT$17hd64dde89a262341dE', symObjAddr: 0x740, symBinAddr: 0x1138D0, symSize: 0x120 }
  - { offsetInCU: 0xF367, offset: 0x605A54, size: 0x8, addend: 0x0, symName: '__ZN4core3ptr34drop_in_place$LT$syn..pat..Pat$GT$17hf88887878261d63cE.llvm.15906860425259147884', symObjAddr: 0x860, symBinAddr: 0x1139F0, symSize: 0x10E0 }
  - { offsetInCU: 0x13920, offset: 0x60A00D, size: 0x8, addend: 0x0, symName: '__ZN4core3ptr34drop_in_place$LT$syn..ty..Type$GT$17ha80dd29b0f9d4a3fE', symObjAddr: 0x1940, symBinAddr: 0x114AD0, symSize: 0x520 }
  - { offsetInCU: 0x14F77, offset: 0x60B664, size: 0x8, addend: 0x0, symName: '__ZN4core3ptr36drop_in_place$LT$syn..expr..Expr$GT$17h10f573b40ddd212cE', symObjAddr: 0x1E60, symBinAddr: 0x114FF0, symSize: 0x2870 }
  - { offsetInCU: 0x1F24B, offset: 0x615938, size: 0x8, addend: 0x0, symName: '__ZN4core3ptr36drop_in_place$LT$syn..mac..Macro$GT$17hc3b30a7a8a34cc2dE', symObjAddr: 0x46D0, symBinAddr: 0x117860, symSize: 0x40 }
  - { offsetInCU: 0x1F285, offset: 0x615972, size: 0x8, addend: 0x0, symName: '__ZN4core3ptr36drop_in_place$LT$syn..path..Path$GT$17h75c74a97d5f0a03bE', symObjAddr: 0x4710, symBinAddr: 0x1178A0, symSize: 0x280 }
  - { offsetInCU: 0x1FD32, offset: 0x61641F, size: 0x8, addend: 0x0, symName: '__ZN4core3ptr37drop_in_place$LT$syn..stmt..Block$GT$17h6fc3254d5688f2c3E', symObjAddr: 0x4990, symBinAddr: 0x117B20, symSize: 0xD0 }
  - { offsetInCU: 0x20009, offset: 0x6166F6, size: 0x8, addend: 0x0, symName: '__ZN4core3ptr38drop_in_place$LT$syn..expr..Member$GT$17h6b0cf84594ce6bceE.llvm.15906860425259147884', symObjAddr: 0x4A60, symBinAddr: 0x117BF0, symSize: 0x30 }
  - { offsetInCU: 0x20105, offset: 0x6167F2, size: 0x8, addend: 0x0, symName: '__ZN4core3ptr39drop_in_place$LT$proc_macro2..Ident$GT$17ha28fef9769e267d9E', symObjAddr: 0x4A90, symBinAddr: 0x117C20, symSize: 0x30 }
  - { offsetInCU: 0x201E2, offset: 0x6168CF, size: 0x8, addend: 0x0, symName: '__ZN4core3ptr40drop_in_place$LT$syn..ty..ReturnType$GT$17h035a612e322b6510E', symObjAddr: 0x4AC0, symBinAddr: 0x117C50, symSize: 0x50 }
  - { offsetInCU: 0x20352, offset: 0x616A3F, size: 0x8, addend: 0x0, symName: '__ZN4core3ptr41drop_in_place$LT$syn..expr..ExprConst$GT$17hbfe19d5d621e6836E', symObjAddr: 0x4B10, symBinAddr: 0x117CA0, symSize: 0x180 }
  - { offsetInCU: 0x2093F, offset: 0x61702C, size: 0x8, addend: 0x0, symName: '__ZN4core3ptr44drop_in_place$LT$syn..lifetime..Lifetime$GT$17he37fa474f03de7b1E', symObjAddr: 0x4C90, symBinAddr: 0x117E20, symSize: 0x30 }
  - { offsetInCU: 0x20AB7, offset: 0x6171A4, size: 0x8, addend: 0x0, symName: '__ZN4core3ptr44drop_in_place$LT$syn..parse..ParseBuffer$GT$17hf792ff20095efc35E', symObjAddr: 0x4CC0, symBinAddr: 0x117E50, symSize: 0x70 }
  - { offsetInCU: 0x20ECE, offset: 0x6175BB, size: 0x8, addend: 0x0, symName: '__ZN4core3ptr45drop_in_place$LT$proc_macro2..TokenStream$GT$17h76e8e68015f4924dE', symObjAddr: 0x4D30, symBinAddr: 0x117EC0, symSize: 0x140 }
  - { offsetInCU: 0x21368, offset: 0x617A55, size: 0x8, addend: 0x0, symName: '__ZN4core3ptr45drop_in_place$LT$syn..generics..TypeParam$GT$17h188a459c1380ac75E', symObjAddr: 0x4E70, symBinAddr: 0x118000, symSize: 0x230 }
  - { offsetInCU: 0x21BDD, offset: 0x6182CA, size: 0x8, addend: 0x0, symName: '__ZN4core3ptr46drop_in_place$LT$syn..generics..ConstParam$GT$17h7a9b900b2b88bfcdE', symObjAddr: 0x50A0, symBinAddr: 0x118230, symSize: 0x150 }
  - { offsetInCU: 0x2205E, offset: 0x61874B, size: 0x8, addend: 0x0, symName: '__ZN4core3ptr47drop_in_place$LT$syn..path..GenericArgument$GT$17h593f06d6ca9a94d2E', symObjAddr: 0x51F0, symBinAddr: 0x118380, symSize: 0x4A0 }
  - { offsetInCU: 0x23164, offset: 0x619851, size: 0x8, addend: 0x0, symName: '__ZN4core3ptr49drop_in_place$LT$syn..generics..LifetimeParam$GT$17h3a8835ab294bfd16E', symObjAddr: 0x5690, symBinAddr: 0x118820, symSize: 0xF0 }
  - { offsetInCU: 0x2357B, offset: 0x619C68, size: 0x8, addend: 0x0, symName: '__ZN4core3ptr50drop_in_place$LT$syn..generics..TypeParamBound$GT$17h81b4325b5900604dE', symObjAddr: 0x5780, symBinAddr: 0x118910, symSize: 0x1C0 }
  - { offsetInCU: 0x23AD8, offset: 0x61A1C5, size: 0x8, addend: 0x0, symName: '__ZN4core3ptr58drop_in_place$LT$alloc..vec..Vec$LT$syn..expr..Arm$GT$$GT$17hff9224aadf2233b8E', symObjAddr: 0x5940, symBinAddr: 0x118AD0, symSize: 0xD0 }
  - { offsetInCU: 0x23D98, offset: 0x61A485, size: 0x8, addend: 0x0, symName: '__ZN4core3ptr59drop_in_place$LT$alloc..boxed..Box$LT$syn..pat..Pat$GT$$GT$17h622b0c1db21c0742E.llvm.15906860425259147884', symObjAddr: 0x5A10, symBinAddr: 0x118BA0, symSize: 0x50 }
  - { offsetInCU: 0x23EF1, offset: 0x61A5DE, size: 0x8, addend: 0x0, symName: '__ZN4core3ptr59drop_in_place$LT$alloc..boxed..Box$LT$syn..ty..Type$GT$$GT$17hde45fa887dd8b605E', symObjAddr: 0x5A60, symBinAddr: 0x118BF0, symSize: 0x50 }
  - { offsetInCU: 0x2404A, offset: 0x61A737, size: 0x8, addend: 0x0, symName: '__ZN4core3ptr61drop_in_place$LT$alloc..boxed..Box$LT$syn..expr..Expr$GT$$GT$17hbb42293869113942E', symObjAddr: 0x5AB0, symBinAddr: 0x118C40, symSize: 0x50 }
  - { offsetInCU: 0x2421F, offset: 0x61A90C, size: 0x8, addend: 0x0, symName: '__ZN4core3ptr61drop_in_place$LT$syn..path..ParenthesizedGenericArguments$GT$17h6b1731382637937fE', symObjAddr: 0x5B00, symBinAddr: 0x118C90, symSize: 0x170 }
  - { offsetInCU: 0x24815, offset: 0x61AF02, size: 0x8, addend: 0x0, symName: '__ZN4core3ptr62drop_in_place$LT$syn..path..AngleBracketedGenericArguments$GT$17hf8fa172f007a1473E', symObjAddr: 0x5C70, symBinAddr: 0x118E00, symSize: 0x120 }
  - { offsetInCU: 0x24C60, offset: 0x61B34D, size: 0x8, addend: 0x0, symName: '__ZN4core3ptr63drop_in_place$LT$alloc..boxed..Box$LT$syn..lit..LitRepr$GT$$GT$17h6e3a82ea4de7b84cE', symObjAddr: 0x5D90, symBinAddr: 0x118F20, symSize: 0x60 }
  - { offsetInCU: 0x24F67, offset: 0x61B654, size: 0x8, addend: 0x0, symName: '__ZN4core3ptr64drop_in_place$LT$alloc..boxed..Box$LT$syn..pat..FieldPat$GT$$GT$17hbf8f4867d84bd25dE', symObjAddr: 0x5DF0, symBinAddr: 0x118F80, symSize: 0x140 }
  - { offsetInCU: 0x25668, offset: 0x61BD55, size: 0x8, addend: 0x0, symName: '__ZN4core3ptr64drop_in_place$LT$alloc..boxed..Box$LT$syn..ty..BareFnArg$GT$$GT$17h6be6354eb1d1364dE', symObjAddr: 0x5F30, symBinAddr: 0x1190C0, symSize: 0x140 }
  - { offsetInCU: 0x25BF1, offset: 0x61C2DE, size: 0x8, addend: 0x0, symName: '__ZN4core3ptr64drop_in_place$LT$alloc..vec..Vec$LT$syn..attr..Attribute$GT$$GT$17he33e25539d5885aeE.llvm.15906860425259147884', symObjAddr: 0x6070, symBinAddr: 0x119200, symSize: 0xD0 }
  - { offsetInCU: 0x25EE5, offset: 0x61C5D2, size: 0x8, addend: 0x0, symName: '__ZN4core3ptr65drop_in_place$LT$alloc..vec..Vec$LT$proc_macro..TokenTree$GT$$GT$17h8abd81f8596dbc59E', symObjAddr: 0x6140, symBinAddr: 0x1192D0, symSize: 0x110 }
  - { offsetInCU: 0x262DD, offset: 0x61C9CA, size: 0x8, addend: 0x0, symName: '__ZN4core3ptr65drop_in_place$LT$core..option..Option$LT$syn..expr..Label$GT$$GT$17hac599686b33ef364E', symObjAddr: 0x6250, symBinAddr: 0x1193E0, symSize: 0x30 }
  - { offsetInCU: 0x26417, offset: 0x61CB04, size: 0x8, addend: 0x0, symName: '__ZN4core3ptr65drop_in_place$LT$core..option..Option$LT$syn..path..QSelf$GT$$GT$17h0b8dd5cda5f2cd6bE', symObjAddr: 0x6280, symBinAddr: 0x119410, symSize: 0x50 }
  - { offsetInCU: 0x265AE, offset: 0x61CC9B, size: 0x8, addend: 0x0, symName: '__ZN4core3ptr66drop_in_place$LT$core..option..Option$LT$syn..pat..PatRest$GT$$GT$17hd5bb3bc28aa78ac1E', symObjAddr: 0x62D0, symBinAddr: 0x119460, symSize: 0xE0 }
  - { offsetInCU: 0x268D6, offset: 0x61CFC3, size: 0x8, addend: 0x0, symName: '__ZN4core3ptr67drop_in_place$LT$alloc..boxed..Box$LT$syn..expr..FieldValue$GT$$GT$17hbbcf67a9d5e9863cE', symObjAddr: 0x63B0, symBinAddr: 0x119540, symSize: 0x140 }
  - { offsetInCU: 0x26E3F, offset: 0x61D52C, size: 0x8, addend: 0x0, symName: '__ZN4core3ptr68drop_in_place$LT$alloc..boxed..Box$LT$syn..path..PathSegment$GT$$GT$17h99aaf90b3262bc1eE', symObjAddr: 0x64F0, symBinAddr: 0x119680, symSize: 0x1B0 }
  - { offsetInCU: 0x2754D, offset: 0x61DC3A, size: 0x8, addend: 0x0, symName: '__ZN4core3ptr70drop_in_place$LT$core..option..Option$LT$syn..ty..BareVariadic$GT$$GT$17h79a19250e9f043b1E', symObjAddr: 0x66A0, symBinAddr: 0x119830, symSize: 0x100 }
  - { offsetInCU: 0x279B8, offset: 0x61E0A5, size: 0x8, addend: 0x0, symName: '__ZN4core3ptr72drop_in_place$LT$alloc..boxed..Box$LT$syn..path..GenericArgument$GT$$GT$17hfd308d374af4273dE', symObjAddr: 0x67A0, symBinAddr: 0x119930, symSize: 0x1D0 }
  - { offsetInCU: 0x27F53, offset: 0x61E640, size: 0x8, addend: 0x0, symName: '__ZN4core3ptr72drop_in_place$LT$core..option..Option$LT$syn..lifetime..Lifetime$GT$$GT$17h49cce6f02f9c0590E', symObjAddr: 0x6970, symBinAddr: 0x119B00, symSize: 0x30 }
  - { offsetInCU: 0x2806E, offset: 0x61E75B, size: 0x8, addend: 0x0, symName: '__ZN4core3ptr73drop_in_place$LT$alloc..boxed..Box$LT$syn..generics..GenericParam$GT$$GT$17ha26d5d145af4b203E', symObjAddr: 0x69A0, symBinAddr: 0x119B30, symSize: 0x80 }
  - { offsetInCU: 0x281E4, offset: 0x61E8D1, size: 0x8, addend: 0x0, symName: '__ZN4core3ptr75drop_in_place$LT$alloc..boxed..Box$LT$syn..generics..TypeParamBound$GT$$GT$17h129a4e927e5eb81bE', symObjAddr: 0x6A20, symBinAddr: 0x119BB0, symSize: 0xC0 }
