---
triple:          'x86_64-apple-darwin'
binary-path:     "/Users/justinlanouette/Chaos/ChaöS-Token/hello_world/target/release/deps/libborsh_derive-c45552a7f75501d0.dylib"
relocations:
  - { offsetInCU: 0x1E, offset: 0x1E, size: 0x8, addend: 0x0, symName: '__ZN4core3ptr100drop_in_place$LT$core..option..Option$LT$alloc..boxed..Box$LT$syn..generics..LifetimeDef$GT$$GT$$GT$17hec1ae336221e97ebE', symObjAddr: 0x0, symBinAddr: 0x2E90, symSize: 0x50 }
  - { offsetInCU: 0x1A41, offset: 0x1A41, size: 0x8, addend: 0x0, symName: '__ZN4core3ptr100drop_in_place$LT$core..option..Option$LT$alloc..boxed..Box$LT$syn..generics..LifetimeDef$GT$$GT$$GT$17hec1ae336221e97ebE', symObjAddr: 0x0, symBinAddr: 0x2E90, symSize: 0x50 }
  - { offsetInCU: 0x1BD0, offset: 0x1BD0, size: 0x8, addend: 0x0, symName: '__ZN4core3ptr100drop_in_place$LT$core..option..Option$LT$alloc..boxed..Box$LT$syn..path..GenericArgument$GT$$GT$$GT$17hcd1161cf838a082dE', symObjAddr: 0x50, symBinAddr: 0x2EE0, symSize: 0x50 }
  - { offsetInCU: 0x1D5F, offset: 0x1D5F, size: 0x8, addend: 0x0, symName: '__ZN4core3ptr101drop_in_place$LT$core..option..Option$LT$alloc..boxed..Box$LT$syn..generics..GenericParam$GT$$GT$$GT$17hc5fac3fd85abacf0E', symObjAddr: 0xA0, symBinAddr: 0x2F30, symSize: 0x50 }
  - { offsetInCU: 0x2024, offset: 0x2024, size: 0x8, addend: 0x0, symName: '__ZN4core3ptr102drop_in_place$LT$syn..punctuated..Punctuated$LT$syn..generics..LifetimeDef$C$syn..token..Comma$GT$$GT$17hba78e12c41b4fa8aE', symObjAddr: 0xF0, symBinAddr: 0x2F80, symSize: 0x170 }
  - { offsetInCU: 0x251B, offset: 0x251B, size: 0x8, addend: 0x0, symName: '__ZN4core3ptr102drop_in_place$LT$syn..punctuated..Punctuated$LT$syn..path..GenericArgument$C$syn..token..Comma$GT$$GT$17h4eb23708819d6399E.llvm.17016294809903037874', symObjAddr: 0x260, symBinAddr: 0x30F0, symSize: 0xF0 }
  - { offsetInCU: 0x28BA, offset: 0x28BA, size: 0x8, addend: 0x0, symName: '__ZN4core3ptr103drop_in_place$LT$core..option..Option$LT$alloc..boxed..Box$LT$syn..generics..TypeParamBound$GT$$GT$$GT$17h91d6bbae6e4c046bE', symObjAddr: 0x350, symBinAddr: 0x31E0, symSize: 0xA0 }
  - { offsetInCU: 0x2BA9, offset: 0x2BA9, size: 0x8, addend: 0x0, symName: '__ZN4core3ptr103drop_in_place$LT$core..option..Option$LT$alloc..boxed..Box$LT$syn..generics..WherePredicate$GT$$GT$$GT$17hcad6195641a1205dE', symObjAddr: 0x3F0, symBinAddr: 0x3280, symSize: 0x50 }
  - { offsetInCU: 0x2DD3, offset: 0x2DD3, size: 0x8, addend: 0x0, symName: '__ZN4core3ptr103drop_in_place$LT$syn..punctuated..Punctuated$LT$syn..generics..GenericParam$C$syn..token..Comma$GT$$GT$17hb4611957eab50c06E', symObjAddr: 0x440, symBinAddr: 0x32D0, symSize: 0x1A0 }
  - { offsetInCU: 0x33BF, offset: 0x33BF, size: 0x8, addend: 0x0, symName: '__ZN4core3ptr103drop_in_place$LT$syn..punctuated..Punctuated$LT$syn..generics..TypeParamBound$C$syn..token..Add$GT$$GT$17h2ecc5d20be3c0c0aE', symObjAddr: 0x5E0, symBinAddr: 0x3470, symSize: 0x2E0 }
  - { offsetInCU: 0x41AD, offset: 0x41AD, size: 0x8, addend: 0x0, symName: '__ZN4core3ptr105drop_in_place$LT$syn..punctuated..Punctuated$LT$syn..generics..WherePredicate$C$syn..token..Comma$GT$$GT$17h49ffab3059f1f122E', symObjAddr: 0x8C0, symBinAddr: 0x3750, symSize: 0x1A0 }
  - { offsetInCU: 0x4823, offset: 0x4823, size: 0x8, addend: 0x0, symName: '__ZN4core3ptr108drop_in_place$LT$syn..punctuated..Punctuated$LT$syn..expr..GenericMethodArgument$C$syn..token..Comma$GT$$GT$17h47c230af1d75b80eE', symObjAddr: 0xA60, symBinAddr: 0x38F0, symSize: 0x150 }
  - { offsetInCU: 0x4D07, offset: 0x4D07, size: 0x8, addend: 0x0, symName: '__ZN4core3ptr126drop_in_place$LT$core..option..Option$LT$$LP$syn..token..And$C$core..option..Option$LT$syn..lifetime..Lifetime$GT$$RP$$GT$$GT$17h45e9504a9a1ca5c1E', symObjAddr: 0xBB0, symBinAddr: 0x3A40, symSize: 0x30 }
  - { offsetInCU: 0x4F96, offset: 0x4F96, size: 0x8, addend: 0x0, symName: '__ZN4core3ptr33drop_in_place$LT$syn..ty..Abi$GT$17h4d3e7560c339abe5E', symObjAddr: 0xBE0, symBinAddr: 0x3A70, symSize: 0x70 }
  - { offsetInCU: 0x4FB2, offset: 0x4FB2, size: 0x8, addend: 0x0, symName: '__ZN4core3ptr33drop_in_place$LT$syn..ty..Abi$GT$17h4d3e7560c339abe5E', symObjAddr: 0xBE0, symBinAddr: 0x3A70, symSize: 0x70 }
  - { offsetInCU: 0x528A, offset: 0x528A, size: 0x8, addend: 0x0, symName: '__ZN4core3ptr34drop_in_place$LT$syn..lit..Lit$GT$17h5580560749c15542E', symObjAddr: 0xC50, symBinAddr: 0x3AE0, symSize: 0x110 }
  - { offsetInCU: 0x56BE, offset: 0x56BE, size: 0x8, addend: 0x0, symName: '__ZN4core3ptr34drop_in_place$LT$syn..pat..Pat$GT$17hf9a811f79592a3b8E.llvm.17016294809903037874', symObjAddr: 0xD60, symBinAddr: 0x3BF0, symSize: 0xB20 }
  - { offsetInCU: 0x8EA4, offset: 0x8EA4, size: 0x8, addend: 0x0, symName: '__ZN4core3ptr34drop_in_place$LT$syn..ty..Type$GT$17hbc981fa35fe0f39fE.llvm.17016294809903037874', symObjAddr: 0x1880, symBinAddr: 0x4710, symSize: 0x410 }
  - { offsetInCU: 0x9BFD, offset: 0x9BFD, size: 0x8, addend: 0x0, symName: '__ZN4core3ptr35drop_in_place$LT$syn..expr..Arm$GT$17hb556b215529dd458E.llvm.17016294809903037874', symObjAddr: 0x1C90, symBinAddr: 0x4B20, symSize: 0x1A0 }
  - { offsetInCU: 0xA853, offset: 0xA853, size: 0x8, addend: 0x0, symName: '__ZN4core3ptr36drop_in_place$LT$syn..expr..Expr$GT$17h2b1cce78e1b3d6cfE.llvm.17016294809903037874', symObjAddr: 0x1E30, symBinAddr: 0x4CC0, symSize: 0x1F80 }
  - { offsetInCU: 0x14BB7, offset: 0x14BB7, size: 0x8, addend: 0x0, symName: '__ZN4core3ptr36drop_in_place$LT$syn..item..Item$GT$17hb7fceafdd39c1223E.llvm.17016294809903037874', symObjAddr: 0x3DB0, symBinAddr: 0x6C40, symSize: 0x1710 }
  - { offsetInCU: 0x1B7A5, offset: 0x1B7A5, size: 0x8, addend: 0x0, symName: '__ZN4core3ptr36drop_in_place$LT$syn..mac..Macro$GT$17h6e3c6f95af683f67E', symObjAddr: 0x54C0, symBinAddr: 0x8350, symSize: 0xE0 }
  - { offsetInCU: 0x1BB4B, offset: 0x1BB4B, size: 0x8, addend: 0x0, symName: '__ZN4core3ptr36drop_in_place$LT$syn..path..Path$GT$17hf9c48c32775d9332E.llvm.17016294809903037874', symObjAddr: 0x55A0, symBinAddr: 0x8430, symSize: 0x160 }
  - { offsetInCU: 0x1C0F3, offset: 0x1C0F3, size: 0x8, addend: 0x0, symName: '__ZN4core3ptr36drop_in_place$LT$syn..stmt..Stmt$GT$17h92e4ae0cf60d7a0bE.llvm.17016294809903037874', symObjAddr: 0x5700, symBinAddr: 0x8590, symSize: 0x140 }
  - { offsetInCU: 0x1C585, offset: 0x1C585, size: 0x8, addend: 0x0, symName: '__ZN4core3ptr37drop_in_place$LT$syn..data..Field$GT$17h961011a6297afae5E.llvm.17016294809903037874', symObjAddr: 0x5840, symBinAddr: 0x86D0, symSize: 0x1B0 }
  - { offsetInCU: 0x1CB7F, offset: 0x1CB7F, size: 0x8, addend: 0x0, symName: '__ZN4core3ptr37drop_in_place$LT$syn..item..FnArg$GT$17h58270459fab98dddE', symObjAddr: 0x59F0, symBinAddr: 0x8880, symSize: 0x190 }
  - { offsetInCU: 0x1D521, offset: 0x1D521, size: 0x8, addend: 0x0, symName: '__ZN4core3ptr37drop_in_place$LT$syn..stmt..Block$GT$17h16d797444104c940E', symObjAddr: 0x5B80, symBinAddr: 0x8A10, symSize: 0xD0 }
  - { offsetInCU: 0x1D7FF, offset: 0x1D7FF, size: 0x8, addend: 0x0, symName: '__ZN4core3ptr38drop_in_place$LT$syn..expr..Member$GT$17hc0e39c36ac1eed16E.llvm.17016294809903037874', symObjAddr: 0x5C50, symBinAddr: 0x8AE0, symSize: 0x30 }
  - { offsetInCU: 0x1D8FB, offset: 0x1D8FB, size: 0x8, addend: 0x0, symName: '__ZN4core3ptr38drop_in_place$LT$syn..pat..PatType$GT$17h3d427ad2a919e51fE', symObjAddr: 0x5C80, symBinAddr: 0x8B10, symSize: 0x160 }
  - { offsetInCU: 0x1DEB3, offset: 0x1DEB3, size: 0x8, addend: 0x0, symName: '__ZN4core3ptr38drop_in_place$LT$syn..ty..Variadic$GT$17h0ea2567852d4fc28E', symObjAddr: 0x5DE0, symBinAddr: 0x8C70, symSize: 0x80 }
  - { offsetInCU: 0x1E182, offset: 0x1E182, size: 0x8, addend: 0x0, symName: '__ZN4core3ptr39drop_in_place$LT$proc_macro2..Ident$GT$17he1a12711e1f133b1E', symObjAddr: 0x5E60, symBinAddr: 0x8CF0, symSize: 0x30 }
  - { offsetInCU: 0x1E2BC, offset: 0x1E2BC, size: 0x8, addend: 0x0, symName: '__ZN4core3ptr39drop_in_place$LT$syn..data..Variant$GT$17h62667f66b34aeb54E.llvm.17016294809903037874', symObjAddr: 0x5E90, symBinAddr: 0x8D20, symSize: 0x330 }
  - { offsetInCU: 0x1EF65, offset: 0x1EF65, size: 0x8, addend: 0x0, symName: '__ZN4core3ptr39drop_in_place$LT$syn..item..UseTree$GT$17hf6da50d9fe359889E', symObjAddr: 0x61C0, symBinAddr: 0x9050, symSize: 0x1F0 }
  - { offsetInCU: 0x1F73D, offset: 0x1F73D, size: 0x8, addend: 0x0, symName: '__ZN4core3ptr39drop_in_place$LT$syn..pat..PatTuple$GT$17h208020e363eb6190E', symObjAddr: 0x63B0, symBinAddr: 0x9240, symSize: 0x1F0 }
  - { offsetInCU: 0x1FEE1, offset: 0x1FEE1, size: 0x8, addend: 0x0, symName: '__ZN4core3ptr40drop_in_place$LT$syn..item..ImplItem$GT$17hfe34bbef3d53525fE', symObjAddr: 0x65A0, symBinAddr: 0x9430, symSize: 0x1F0 }
  - { offsetInCU: 0x204ED, offset: 0x204ED, size: 0x8, addend: 0x0, symName: '__ZN4core3ptr40drop_in_place$LT$syn..item..Receiver$GT$17h1d81b071de637a1aE', symObjAddr: 0x6790, symBinAddr: 0x9620, symSize: 0x140 }
  - { offsetInCU: 0x2097B, offset: 0x2097B, size: 0x8, addend: 0x0, symName: '__ZN4core3ptr40drop_in_place$LT$syn..ty..ReturnType$GT$17h095fce72dc93f739E.llvm.17016294809903037874', symObjAddr: 0x68D0, symBinAddr: 0x9760, symSize: 0x50 }
  - { offsetInCU: 0x20AEB, offset: 0x20AEB, size: 0x8, addend: 0x0, symName: '__ZN4core3ptr41drop_in_place$LT$syn..attr..Attribute$GT$17hd667019f2043b1c2E.llvm.17016294809903037874', symObjAddr: 0x6920, symBinAddr: 0x97B0, symSize: 0x40 }
  - { offsetInCU: 0x20C5B, offset: 0x20C5B, size: 0x8, addend: 0x0, symName: '__ZN4core3ptr41drop_in_place$LT$syn..item..Signature$GT$17h847eb4bed55ea7eeE', symObjAddr: 0x6960, symBinAddr: 0x97F0, symSize: 0x2C0 }
  - { offsetInCU: 0x21B1F, offset: 0x21B1F, size: 0x8, addend: 0x0, symName: '__ZN4core3ptr43drop_in_place$LT$proc_macro2..TokenTree$GT$17hedc667ae7452002fE.llvm.17016294809903037874', symObjAddr: 0x6C20, symBinAddr: 0x9AB0, symSize: 0xB0 }
  - { offsetInCU: 0x21E7A, offset: 0x21E7A, size: 0x8, addend: 0x0, symName: '__ZN4core3ptr43drop_in_place$LT$syn..data..FieldsNamed$GT$17h8eb14fb50242f092E', symObjAddr: 0x6CD0, symBinAddr: 0x9B60, symSize: 0x120 }
  - { offsetInCU: 0x22359, offset: 0x22359, size: 0x8, addend: 0x0, symName: '__ZN4core3ptr43drop_in_place$LT$syn..path..PathSegment$GT$17hba6421fda47f036bE.llvm.17016294809903037874', symObjAddr: 0x6DF0, symBinAddr: 0x9C80, symSize: 0x170 }
  - { offsetInCU: 0x22953, offset: 0x22953, size: 0x8, addend: 0x0, symName: '__ZN4core3ptr44drop_in_place$LT$syn..generics..Generics$GT$17h70923c39181a7a5aE', symObjAddr: 0x6F60, symBinAddr: 0x9DF0, symSize: 0x230 }
  - { offsetInCU: 0x23290, offset: 0x23290, size: 0x8, addend: 0x0, symName: '__ZN4core3ptr44drop_in_place$LT$syn..item..ImplItemType$GT$17hd7f2418b35f78a67E', symObjAddr: 0x7190, symBinAddr: 0xA020, symSize: 0x200 }
  - { offsetInCU: 0x238AD, offset: 0x238AD, size: 0x8, addend: 0x0, symName: '__ZN4core3ptr44drop_in_place$LT$syn..lifetime..Lifetime$GT$17h50a0913c59e41798E.llvm.17016294809903037874', symObjAddr: 0x7390, symBinAddr: 0xA220, symSize: 0x30 }
  - { offsetInCU: 0x23A06, offset: 0x23A06, size: 0x8, addend: 0x0, symName: '__ZN4core3ptr45drop_in_place$LT$proc_macro2..TokenStream$GT$17h24d0a90eb8be90ccE.llvm.17016294809903037874', symObjAddr: 0x73C0, symBinAddr: 0xA250, symSize: 0x70 }
  - { offsetInCU: 0x23B3B, offset: 0x23B3B, size: 0x8, addend: 0x0, symName: '__ZN4core3ptr45drop_in_place$LT$syn..data..VisRestricted$GT$17h96b1de421c2fc9afE', symObjAddr: 0x7430, symBinAddr: 0xA2C0, symSize: 0x100 }
  - { offsetInCU: 0x23FFE, offset: 0x23FFE, size: 0x8, addend: 0x0, symName: '__ZN4core3ptr45drop_in_place$LT$syn..generics..TypeParam$GT$17h3bc8fa1ec2582b43E.llvm.17016294809903037874', symObjAddr: 0x7530, symBinAddr: 0xA3C0, symSize: 0x260 }
  - { offsetInCU: 0x249BB, offset: 0x249BB, size: 0x8, addend: 0x0, symName: '__ZN4core3ptr45drop_in_place$LT$syn..item..ImplItemConst$GT$17hb78af4acebc62a40E', symObjAddr: 0x7790, symBinAddr: 0xA620, symSize: 0x1D0 }
  - { offsetInCU: 0x24F95, offset: 0x24F95, size: 0x8, addend: 0x0, symName: '__ZN4core3ptr45drop_in_place$LT$syn..item..TraitItemType$GT$17h94b73837193395a8E', symObjAddr: 0x7960, symBinAddr: 0xA7F0, symSize: 0x2D0 }
  - { offsetInCU: 0x25A2B, offset: 0x25A2B, size: 0x8, addend: 0x0, symName: '__ZN4core3ptr46drop_in_place$LT$syn..generics..ConstParam$GT$17h9eb83bb0a74043beE.llvm.17016294809903037874', symObjAddr: 0x7C30, symBinAddr: 0xAAC0, symSize: 0x180 }
  - { offsetInCU: 0x25E63, offset: 0x25E63, size: 0x8, addend: 0x0, symName: '__ZN4core3ptr46drop_in_place$LT$syn..item..ImplItemMethod$GT$17h6342181f716698beE', symObjAddr: 0x7DB0, symBinAddr: 0xAC40, symSize: 0x240 }
  - { offsetInCU: 0x265E1, offset: 0x265E1, size: 0x8, addend: 0x0, symName: '__ZN4core3ptr46drop_in_place$LT$syn..item..TraitItemConst$GT$17h52718a94d031fc80E', symObjAddr: 0x7FF0, symBinAddr: 0xAE80, symSize: 0x180 }
  - { offsetInCU: 0x26A4B, offset: 0x26A4B, size: 0x8, addend: 0x0, symName: '__ZN4core3ptr47drop_in_place$LT$syn..generics..LifetimeDef$GT$17h411471cd40e67ca0E.llvm.17016294809903037874', symObjAddr: 0x8170, symBinAddr: 0xB000, symSize: 0xB0 }
  - { offsetInCU: 0x26E13, offset: 0x26E13, size: 0x8, addend: 0x0, symName: '__ZN4core3ptr47drop_in_place$LT$syn..generics..WhereClause$GT$17hae09a0c5149f1551E', symObjAddr: 0x8220, symBinAddr: 0xB0B0, symSize: 0x120 }
  - { offsetInCU: 0x272D3, offset: 0x272D3, size: 0x8, addend: 0x0, symName: '__ZN4core3ptr47drop_in_place$LT$syn..path..GenericArgument$GT$17hf0d1883cc07cd597E', symObjAddr: 0x8340, symBinAddr: 0xB1D0, symSize: 0x110 }
  - { offsetInCU: 0x275EE, offset: 0x275EE, size: 0x8, addend: 0x0, symName: '__ZN4core3ptr48drop_in_place$LT$syn..generics..GenericParam$GT$17he5a77ad1dc8598b4E', symObjAddr: 0x8450, symBinAddr: 0xB2E0, symSize: 0xF0 }
  - { offsetInCU: 0x279D3, offset: 0x279D3, size: 0x8, addend: 0x0, symName: '__ZN4core3ptr49drop_in_place$LT$syn..generics..PredicateType$GT$17ha4ffd8f661208029E.llvm.17016294809903037874', symObjAddr: 0x8540, symBinAddr: 0xB3D0, symSize: 0x230 }
  - { offsetInCU: 0x283F7, offset: 0x283F7, size: 0x8, addend: 0x0, symName: '__ZN4core3ptr49drop_in_place$LT$syn..item..ForeignItemStatic$GT$17h6f3d9938ed88d81eE', symObjAddr: 0x8770, symBinAddr: 0xB600, symSize: 0x1D0 }
  - { offsetInCU: 0x28BBB, offset: 0x28BBB, size: 0x8, addend: 0x0, symName: '__ZN4core3ptr50drop_in_place$LT$$u5b$syn..item..ImplItem$u5d$$GT$17he384dca6264b8382E', symObjAddr: 0x8940, symBinAddr: 0xB7D0, symSize: 0x420 }
  - { offsetInCU: 0x29319, offset: 0x29319, size: 0x8, addend: 0x0, symName: '__ZN4core3ptr50drop_in_place$LT$syn..generics..BoundLifetimes$GT$17h03fc339883f02b01E.llvm.17016294809903037874', symObjAddr: 0x8D60, symBinAddr: 0xBBF0, symSize: 0x110 }
  - { offsetInCU: 0x29799, offset: 0x29799, size: 0x8, addend: 0x0, symName: '__ZN4core3ptr50drop_in_place$LT$syn..generics..TypeParamBound$GT$17he0269e1bd9fd41a9E', symObjAddr: 0x8E70, symBinAddr: 0xBD00, symSize: 0x80 }
  - { offsetInCU: 0x2991E, offset: 0x2991E, size: 0x8, addend: 0x0, symName: '__ZN4core3ptr50drop_in_place$LT$syn..generics..WherePredicate$GT$17h9724cb715f50b7aaE', symObjAddr: 0x8EF0, symBinAddr: 0xBD80, symSize: 0x110 }
  - { offsetInCU: 0x29ABE, offset: 0x29ABE, size: 0x8, addend: 0x0, symName: '__ZN4core3ptr51drop_in_place$LT$$u5b$syn..attr..Attribute$u5d$$GT$17h7fc083a3e47319deE.llvm.17016294809903037874', symObjAddr: 0x9000, symBinAddr: 0xBE90, symSize: 0x1A0 }
  - { offsetInCU: 0x29EA4, offset: 0x29EA4, size: 0x8, addend: 0x0, symName: '__ZN4core3ptr51drop_in_place$LT$$u5b$syn..item..TraitItem$u5d$$GT$17h56f43a8b50c86f94E', symObjAddr: 0x91A0, symBinAddr: 0xC030, symSize: 0xA70 }
  - { offsetInCU: 0x2BC49, offset: 0x2BC49, size: 0x8, addend: 0x0, symName: '__ZN4core3ptr53drop_in_place$LT$$u5b$syn..item..ForeignItem$u5d$$GT$17h3adbab5c578d8b76E', symObjAddr: 0x9C10, symBinAddr: 0xCAA0, symSize: 0xEC0 }
  - { offsetInCU: 0x2EBFD, offset: 0x2EBFD, size: 0x8, addend: 0x0, symName: '__ZN4core3ptr58drop_in_place$LT$alloc..vec..Vec$LT$syn..expr..Arm$GT$$GT$17h56405020d3577e83E', symObjAddr: 0xAAD0, symBinAddr: 0xD960, symSize: 0xD0 }
  - { offsetInCU: 0x2EEC4, offset: 0x2EEC4, size: 0x8, addend: 0x0, symName: '__ZN4core3ptr59drop_in_place$LT$alloc..boxed..Box$LT$syn..pat..Pat$GT$$GT$17h3914df68d9a7d613E.llvm.17016294809903037874', symObjAddr: 0xABA0, symBinAddr: 0xDA30, symSize: 0x50 }
  - { offsetInCU: 0x2F01D, offset: 0x2F01D, size: 0x8, addend: 0x0, symName: '__ZN4core3ptr59drop_in_place$LT$alloc..boxed..Box$LT$syn..ty..Type$GT$$GT$17h262de7668411c789E', symObjAddr: 0xABF0, symBinAddr: 0xDA80, symSize: 0x50 }
  - { offsetInCU: 0x2F176, offset: 0x2F176, size: 0x8, addend: 0x0, symName: '__ZN4core3ptr59drop_in_place$LT$alloc..vec..Vec$LT$syn..item..Item$GT$$GT$17hf67e82e701f8f8d7E', symObjAddr: 0xAC40, symBinAddr: 0xDAD0, symSize: 0xD0 }
  - { offsetInCU: 0x2F43D, offset: 0x2F43D, size: 0x8, addend: 0x0, symName: '__ZN4core3ptr61drop_in_place$LT$alloc..boxed..Box$LT$syn..expr..Expr$GT$$GT$17ha932cd55e4e24781E.llvm.17016294809903037874', symObjAddr: 0xAD10, symBinAddr: 0xDBA0, symSize: 0x50 }
  - { offsetInCU: 0x2F596, offset: 0x2F596, size: 0x8, addend: 0x0, symName: '__ZN4core3ptr61drop_in_place$LT$alloc..boxed..Box$LT$syn..path..Path$GT$$GT$17h6f2e0636ae638003E', symObjAddr: 0xAD60, symBinAddr: 0xDBF0, symSize: 0x50 }
  - { offsetInCU: 0x2F7C6, offset: 0x2F7C6, size: 0x8, addend: 0x0, symName: '__ZN4core3ptr61drop_in_place$LT$syn..path..ParenthesizedGenericArguments$GT$17h03159d20bae739acE.llvm.17016294809903037874', symObjAddr: 0xADB0, symBinAddr: 0xDC40, symSize: 0x170 }
  - { offsetInCU: 0x2FDC3, offset: 0x2FDC3, size: 0x8, addend: 0x0, symName: '__ZN4core3ptr62drop_in_place$LT$alloc..boxed..Box$LT$syn..data..Field$GT$$GT$17haee0b1ae05cf2872E', symObjAddr: 0xAF20, symBinAddr: 0xDDB0, symSize: 0x50 }
  - { offsetInCU: 0x2FF3B, offset: 0x2FF3B, size: 0x8, addend: 0x0, symName: '__ZN4core3ptr62drop_in_place$LT$alloc..boxed..Box$LT$syn..item..FnArg$GT$$GT$17h14c8077c6578407fE', symObjAddr: 0xAF70, symBinAddr: 0xDE00, symSize: 0x60 }
  - { offsetInCU: 0x300B1, offset: 0x300B1, size: 0x8, addend: 0x0, symName: '__ZN4core3ptr62drop_in_place$LT$alloc..boxed..Box$LT$syn..stmt..Block$GT$$GT$17h05931148644813e7E', symObjAddr: 0xAFD0, symBinAddr: 0xDE60, symSize: 0xE0 }
  - { offsetInCU: 0x304CA, offset: 0x304CA, size: 0x8, addend: 0x0, symName: '__ZN4core3ptr62drop_in_place$LT$syn..path..AngleBracketedGenericArguments$GT$17hcdc98088c672cd9bE.llvm.17016294809903037874', symObjAddr: 0xB0B0, symBinAddr: 0xDF40, symSize: 0x120 }
  - { offsetInCU: 0x3094C, offset: 0x3094C, size: 0x8, addend: 0x0, symName: '__ZN4core3ptr63drop_in_place$LT$alloc..vec..Vec$LT$syn..item..ImplItem$GT$$GT$17h8db5ab75c5324a4dE', symObjAddr: 0xB1D0, symBinAddr: 0xE060, symSize: 0x80 }
  - { offsetInCU: 0x30C04, offset: 0x30C04, size: 0x8, addend: 0x0, symName: '__ZN4core3ptr64drop_in_place$LT$alloc..boxed..Box$LT$syn..data..Variant$GT$$GT$17he15fb2f3f94ae75eE', symObjAddr: 0xB250, symBinAddr: 0xE0E0, symSize: 0x50 }
  - { offsetInCU: 0x30D5D, offset: 0x30D5D, size: 0x8, addend: 0x0, symName: '__ZN4core3ptr64drop_in_place$LT$alloc..boxed..Box$LT$syn..item..UseTree$GT$$GT$17hc3104291f14e9948E', symObjAddr: 0xB2A0, symBinAddr: 0xE130, symSize: 0x50 }
  - { offsetInCU: 0x30EF4, offset: 0x30EF4, size: 0x8, addend: 0x0, symName: '__ZN4core3ptr64drop_in_place$LT$alloc..boxed..Box$LT$syn..pat..FieldPat$GT$$GT$17hb4677fbbc4f07b5fE', symObjAddr: 0xB2F0, symBinAddr: 0xE180, symSize: 0x100 }
  - { offsetInCU: 0x315B9, offset: 0x315B9, size: 0x8, addend: 0x0, symName: '__ZN4core3ptr64drop_in_place$LT$alloc..boxed..Box$LT$syn..ty..BareFnArg$GT$$GT$17h04911248be4e1edaE', symObjAddr: 0xB3F0, symBinAddr: 0xE280, symSize: 0xA0 }
  - { offsetInCU: 0x3185D, offset: 0x3185D, size: 0x8, addend: 0x0, symName: '__ZN4core3ptr64drop_in_place$LT$alloc..vec..Vec$LT$syn..attr..Attribute$GT$$GT$17h890d95ff897aab18E.llvm.17016294809903037874', symObjAddr: 0xB490, symBinAddr: 0xE320, symSize: 0xF0 }
  - { offsetInCU: 0x31B3D, offset: 0x31B3D, size: 0x8, addend: 0x0, symName: '__ZN4core3ptr64drop_in_place$LT$alloc..vec..Vec$LT$syn..item..TraitItem$GT$$GT$17h68b6c779926b72a8E', symObjAddr: 0xB580, symBinAddr: 0xE410, symSize: 0x80 }
  - { offsetInCU: 0x31DF5, offset: 0x31DF5, size: 0x8, addend: 0x0, symName: '__ZN4core3ptr65drop_in_place$LT$$LP$syn..item..FnArg$C$syn..token..Comma$RP$$GT$17ha8a1e4199424eb9aE', symObjAddr: 0xB600, symBinAddr: 0xE490, symSize: 0x20 }
  - { offsetInCU: 0x31E31, offset: 0x31E31, size: 0x8, addend: 0x0, symName: '__ZN4core3ptr65drop_in_place$LT$alloc..vec..Vec$LT$proc_macro..TokenTree$GT$$GT$17h30108c6e391d38bcE.llvm.17016294809903037874', symObjAddr: 0xB620, symBinAddr: 0xE4B0, symSize: 0x110 }
  - { offsetInCU: 0x32230, offset: 0x32230, size: 0x8, addend: 0x0, symName: '__ZN4core3ptr65drop_in_place$LT$core..option..Option$LT$syn..expr..Label$GT$$GT$17hd93948117f40c062E', symObjAddr: 0xB730, symBinAddr: 0xE5C0, symSize: 0x30 }
  - { offsetInCU: 0x3236A, offset: 0x3236A, size: 0x8, addend: 0x0, symName: '__ZN4core3ptr65drop_in_place$LT$core..option..Option$LT$syn..stmt..Block$GT$$GT$17h7a5b3a257fba1c42E', symObjAddr: 0xB760, symBinAddr: 0xE5F0, symSize: 0xD0 }
  - { offsetInCU: 0x3263F, offset: 0x3263F, size: 0x8, addend: 0x0, symName: '__ZN4core3ptr66drop_in_place$LT$alloc..vec..Vec$LT$syn..item..ForeignItem$GT$$GT$17ha19f71c49863e26fE', symObjAddr: 0xB830, symBinAddr: 0xE6C0, symSize: 0x80 }
  - { offsetInCU: 0x328F7, offset: 0x328F7, size: 0x8, addend: 0x0, symName: '__ZN4core3ptr67drop_in_place$LT$$LP$syn..pat..FieldPat$C$syn..token..Comma$RP$$GT$17h10f64921c3709062E.llvm.17016294809903037874', symObjAddr: 0xB8B0, symBinAddr: 0xE740, symSize: 0xF0 }
  - { offsetInCU: 0x32E49, offset: 0x32E49, size: 0x8, addend: 0x0, symName: '__ZN4core3ptr67drop_in_place$LT$$LP$syn..ty..BareFnArg$C$syn..token..Comma$RP$$GT$17h76a8385c859811b3E.llvm.17016294809903037874', symObjAddr: 0xB9A0, symBinAddr: 0xE830, symSize: 0x80 }
  - { offsetInCU: 0x32FC5, offset: 0x32FC5, size: 0x8, addend: 0x0, symName: '__ZN4core3ptr67drop_in_place$LT$alloc..boxed..Box$LT$syn..expr..FieldValue$GT$$GT$17h5cb5fc3511928590E', symObjAddr: 0xBA20, symBinAddr: 0xE8B0, symSize: 0xE0 }
  - { offsetInCU: 0x33502, offset: 0x33502, size: 0x8, addend: 0x0, symName: '__ZN4core3ptr68drop_in_place$LT$alloc..boxed..Box$LT$syn..path..PathSegment$GT$$GT$17h64f61860f53a539eE', symObjAddr: 0xBB00, symBinAddr: 0xE990, symSize: 0xD0 }
  - { offsetInCU: 0x338FB, offset: 0x338FB, size: 0x8, addend: 0x0, symName: '__ZN4core3ptr70drop_in_place$LT$$LP$syn..expr..FieldValue$C$syn..token..Comma$RP$$GT$17h441b3e79823cff11E.llvm.17016294809903037874', symObjAddr: 0xBBD0, symBinAddr: 0xEA60, symSize: 0xD0 }
  - { offsetInCU: 0x33CF5, offset: 0x33CF5, size: 0x8, addend: 0x0, symName: '__ZN4core3ptr72drop_in_place$LT$$LP$syn..path..PathSegment$C$syn..token..Colon2$RP$$GT$17ha667a5fe3951dc3fE.llvm.17016294809903037874', symObjAddr: 0xBCA0, symBinAddr: 0xEB30, symSize: 0xC0 }
  - { offsetInCU: 0x33FB8, offset: 0x33FB8, size: 0x8, addend: 0x0, symName: '__ZN4core3ptr72drop_in_place$LT$alloc..boxed..Box$LT$syn..generics..LifetimeDef$GT$$GT$17hd157192b3b15be64E', symObjAddr: 0xBD60, symBinAddr: 0xEBF0, symSize: 0x80 }
  - { offsetInCU: 0x34267, offset: 0x34267, size: 0x8, addend: 0x0, symName: '__ZN4core3ptr72drop_in_place$LT$alloc..boxed..Box$LT$syn..path..GenericArgument$GT$$GT$17h86412e66b9bdd2ceE.llvm.17016294809903037874', symObjAddr: 0xBDE0, symBinAddr: 0xEC70, symSize: 0x220 }
  - { offsetInCU: 0x34AD7, offset: 0x34AD7, size: 0x8, addend: 0x0, symName: '__ZN4core3ptr73drop_in_place$LT$alloc..boxed..Box$LT$syn..generics..GenericParam$GT$$GT$17hf23a4468ae5104d1E', symObjAddr: 0xC000, symBinAddr: 0xEE90, symSize: 0x80 }
  - { offsetInCU: 0x34C4D, offset: 0x34C4D, size: 0x8, addend: 0x0, symName: '__ZN4core3ptr75drop_in_place$LT$$LP$syn..generics..LifetimeDef$C$syn..token..Comma$RP$$GT$17hc055629e59063a09E.llvm.17016294809903037874', symObjAddr: 0xC080, symBinAddr: 0xEF10, symSize: 0x60 }
  - { offsetInCU: 0x34D8A, offset: 0x34D8A, size: 0x8, addend: 0x0, symName: '__ZN4core3ptr75drop_in_place$LT$$LP$syn..path..GenericArgument$C$syn..token..Comma$RP$$GT$17h0c6cee1ad68b3407E.llvm.17016294809903037874', symObjAddr: 0xC0E0, symBinAddr: 0xEF70, symSize: 0x220 }
  - { offsetInCU: 0x354BE, offset: 0x354BE, size: 0x8, addend: 0x0, symName: '__ZN4core3ptr75drop_in_place$LT$alloc..boxed..Box$LT$syn..generics..TypeParamBound$GT$$GT$17h89134a6a9f3c4f77E', symObjAddr: 0xC300, symBinAddr: 0xF190, symSize: 0x150 }
  - { offsetInCU: 0x35A6B, offset: 0x35A6B, size: 0x8, addend: 0x0, symName: '__ZN4core3ptr75drop_in_place$LT$alloc..boxed..Box$LT$syn..generics..WherePredicate$GT$$GT$17hbfdfd13ddddafc09E', symObjAddr: 0xC450, symBinAddr: 0xF2E0, symSize: 0xD0 }
  - { offsetInCU: 0x35D13, offset: 0x35D13, size: 0x8, addend: 0x0, symName: '__ZN4core3ptr76drop_in_place$LT$$LP$syn..generics..GenericParam$C$syn..token..Comma$RP$$GT$17ha766086642c88b6bE.llvm.17016294809903037874', symObjAddr: 0xC520, symBinAddr: 0xF3B0, symSize: 0x50 }
  - { offsetInCU: 0x35D4F, offset: 0x35D4F, size: 0x8, addend: 0x0, symName: '__ZN4core3ptr76drop_in_place$LT$$LP$syn..generics..TypeParamBound$C$syn..token..Add$RP$$GT$17h54b33961c6515abaE.llvm.17016294809903037874', symObjAddr: 0xC570, symBinAddr: 0xF400, symSize: 0x160 }
  - { offsetInCU: 0x361CE, offset: 0x361CE, size: 0x8, addend: 0x0, symName: '__ZN4core3ptr78drop_in_place$LT$$LP$syn..generics..WherePredicate$C$syn..token..Comma$RP$$GT$17h3d1f9bda22571738E.llvm.17016294809903037874', symObjAddr: 0xC6D0, symBinAddr: 0xF560, symSize: 0xA0 }
  - { offsetInCU: 0x36346, offset: 0x36346, size: 0x8, addend: 0x0, symName: '__ZN4core3ptr78drop_in_place$LT$alloc..boxed..Box$LT$syn..expr..GenericMethodArgument$GT$$GT$17h4e746a734f23460eE', symObjAddr: 0xC770, symBinAddr: 0xF600, symSize: 0x60 }
  - { offsetInCU: 0x364BC, offset: 0x364BC, size: 0x8, addend: 0x0, symName: '__ZN4core3ptr81drop_in_place$LT$$LP$syn..expr..GenericMethodArgument$C$syn..token..Comma$RP$$GT$17h1c9fed0755fb247dE.llvm.17016294809903037874', symObjAddr: 0xC7D0, symBinAddr: 0xF660, symSize: 0x30 }
  - { offsetInCU: 0x364F8, offset: 0x364F8, size: 0x8, addend: 0x0, symName: '__ZN4core3ptr86drop_in_place$LT$$LP$syn..token..If$C$alloc..boxed..Box$LT$syn..expr..Expr$GT$$RP$$GT$17hf60078c2f1becef5E', symObjAddr: 0xC800, symBinAddr: 0xF690, symSize: 0x50 }
  - { offsetInCU: 0x36670, offset: 0x36670, size: 0x8, addend: 0x0, symName: '__ZN4core3ptr86drop_in_place$LT$$u5b$$LP$syn..generics..TypeParamBound$C$syn..token..Add$RP$$u5d$$GT$17hede977032e0a00deE', symObjAddr: 0xC850, symBinAddr: 0xF6E0, symSize: 0xE0 }
  - { offsetInCU: 0x368A3, offset: 0x368A3, size: 0x8, addend: 0x0, symName: '__ZN4core3ptr86drop_in_place$LT$syn..punctuated..Punctuated$LT$syn..pat..Pat$C$syn..token..Or$GT$$GT$17hb5e75385964ba948E', symObjAddr: 0xC930, symBinAddr: 0xF7C0, symSize: 0x120 }
  - { offsetInCU: 0x36D3C, offset: 0x36D3C, size: 0x8, addend: 0x0, symName: '__ZN4core3ptr87drop_in_place$LT$core..option..Option$LT$alloc..boxed..Box$LT$syn..pat..Pat$GT$$GT$$GT$17h2f4124adb9f346f5E', symObjAddr: 0xCA50, symBinAddr: 0xF8E0, symSize: 0x50 }
  - { offsetInCU: 0x36EAC, offset: 0x36EAC, size: 0x8, addend: 0x0, symName: '__ZN4core3ptr87drop_in_place$LT$core..option..Option$LT$alloc..boxed..Box$LT$syn..ty..Type$GT$$GT$$GT$17hec52dbd7b4baee13E', symObjAddr: 0xCAA0, symBinAddr: 0xF930, symSize: 0x50 }
  - { offsetInCU: 0x3701C, offset: 0x3701C, size: 0x8, addend: 0x0, symName: '__ZN4core3ptr89drop_in_place$LT$core..option..Option$LT$alloc..boxed..Box$LT$syn..expr..Expr$GT$$GT$$GT$17hf7d2354b2a9b1a51E', symObjAddr: 0xCAF0, symBinAddr: 0xF980, symSize: 0x50 }
  - { offsetInCU: 0x3718C, offset: 0x3718C, size: 0x8, addend: 0x0, symName: '__ZN4core3ptr89drop_in_place$LT$syn..punctuated..Punctuated$LT$syn..ty..Type$C$syn..token..Comma$GT$$GT$17hc53557e6b58c5657E.llvm.17016294809903037874', symObjAddr: 0xCB40, symBinAddr: 0xF9D0, symSize: 0x120 }
  - { offsetInCU: 0x3760E, offset: 0x3760E, size: 0x8, addend: 0x0, symName: '__ZN4core3ptr90drop_in_place$LT$core..option..Option$LT$alloc..boxed..Box$LT$syn..data..Field$GT$$GT$$GT$17h81d234a538269f35E', symObjAddr: 0xCC60, symBinAddr: 0xFAF0, symSize: 0x50 }
  - { offsetInCU: 0x3777E, offset: 0x3777E, size: 0x8, addend: 0x0, symName: '__ZN4core3ptr90drop_in_place$LT$core..option..Option$LT$alloc..boxed..Box$LT$syn..item..FnArg$GT$$GT$$GT$17heb8ddc2502174059E', symObjAddr: 0xCCB0, symBinAddr: 0xFB40, symSize: 0x50 }
  - { offsetInCU: 0x3796A, offset: 0x3796A, size: 0x8, addend: 0x0, symName: '__ZN4core3ptr91drop_in_place$LT$syn..punctuated..Punctuated$LT$syn..expr..Expr$C$syn..token..Comma$GT$$GT$17h6fcc59b898ba05daE', symObjAddr: 0xCD00, symBinAddr: 0xFB90, symSize: 0x120 }
  - { offsetInCU: 0x37DFF, offset: 0x37DFF, size: 0x8, addend: 0x0, symName: '__ZN4core3ptr92drop_in_place$LT$core..option..Option$LT$$LP$syn..token..As$C$proc_macro2..Ident$RP$$GT$$GT$17h3569110c48112552E', symObjAddr: 0xCE20, symBinAddr: 0xFCB0, symSize: 0x30 }
  - { offsetInCU: 0x37F1A, offset: 0x37F1A, size: 0x8, addend: 0x0, symName: '__ZN4core3ptr92drop_in_place$LT$syn..punctuated..Punctuated$LT$syn..data..Field$C$syn..token..Comma$GT$$GT$17h86f00a0e00966676E', symObjAddr: 0xCE50, symBinAddr: 0xFCE0, symSize: 0x120 }
  - { offsetInCU: 0x3839C, offset: 0x3839C, size: 0x8, addend: 0x0, symName: '__ZN4core3ptr92drop_in_place$LT$syn..punctuated..Punctuated$LT$syn..item..FnArg$C$syn..token..Comma$GT$$GT$17he08f0f651c416922E', symObjAddr: 0xCF70, symBinAddr: 0xFE00, symSize: 0x150 }
  - { offsetInCU: 0x388E7, offset: 0x388E7, size: 0x8, addend: 0x0, symName: '__ZN4core3ptr94drop_in_place$LT$syn..punctuated..Punctuated$LT$syn..data..Variant$C$syn..token..Comma$GT$$GT$17hc4ff51f7e64a5026E', symObjAddr: 0xD0C0, symBinAddr: 0xFF50, symSize: 0x120 }
  - { offsetInCU: 0x38DF8, offset: 0x38DF8, size: 0x8, addend: 0x0, symName: '__ZN4core3ptr94drop_in_place$LT$syn..punctuated..Punctuated$LT$syn..pat..FieldPat$C$syn..token..Comma$GT$$GT$17h7b5b51e4cb4f363cE', symObjAddr: 0xD1E0, symBinAddr: 0x10070, symSize: 0xF0 }
  - { offsetInCU: 0x391AC, offset: 0x391AC, size: 0x8, addend: 0x0, symName: '__ZN4core3ptr94drop_in_place$LT$syn..punctuated..Punctuated$LT$syn..ty..BareFnArg$C$syn..token..Comma$GT$$GT$17h50d0dd67de9783b1E', symObjAddr: 0xD2D0, symBinAddr: 0x10160, symSize: 0x1B0 }
  - { offsetInCU: 0x39672, offset: 0x39672, size: 0x8, addend: 0x0, symName: '__ZN4core3ptr95drop_in_place$LT$core..option..Option$LT$$LP$proc_macro2..Ident$C$syn..token..Colon$RP$$GT$$GT$17h1ee4900e198653f1E.llvm.17016294809903037874', symObjAddr: 0xD480, symBinAddr: 0x10310, symSize: 0x30 }
  - { offsetInCU: 0x3978D, offset: 0x3978D, size: 0x8, addend: 0x0, symName: '__ZN4core3ptr96drop_in_place$LT$core..option..Option$LT$alloc..boxed..Box$LT$syn..path..PathSegment$GT$$GT$$GT$17h16c54fd908251f5cE.llvm.17016294809903037874', symObjAddr: 0xD4B0, symBinAddr: 0x10340, symSize: 0x90 }
  - { offsetInCU: 0x39AA7, offset: 0x39AA7, size: 0x8, addend: 0x0, symName: '__ZN4core3ptr97drop_in_place$LT$syn..punctuated..Punctuated$LT$syn..expr..FieldValue$C$syn..token..Comma$GT$$GT$17h14e4f48b5b174225E', symObjAddr: 0xD590, symBinAddr: 0x103D0, symSize: 0xF0 }
  - { offsetInCU: 0x39E59, offset: 0x39E59, size: 0x8, addend: 0x0, symName: '__ZN4core3ptr97drop_in_place$LT$syn..punctuated..Punctuated$LT$syn..lifetime..Lifetime$C$syn..token..Add$GT$$GT$17h23d08adbf1b9ededE.llvm.17016294809903037874', symObjAddr: 0xD680, symBinAddr: 0x104C0, symSize: 0xD0 }
  - { offsetInCU: 0x3A2CB, offset: 0x3A2CB, size: 0x8, addend: 0x0, symName: '__ZN4core3ptr99drop_in_place$LT$syn..punctuated..Punctuated$LT$syn..path..PathSegment$C$syn..token..Colon2$GT$$GT$17h6abe68bf41498afbE.llvm.17016294809903037874', symObjAddr: 0xD750, symBinAddr: 0x10590, symSize: 0x1A0 }
  - { offsetInCU: 0x422C8, offset: 0x422C8, size: 0x8, addend: 0x0, symName: '__ZN70_$LT$alloc..vec..Vec$LT$T$C$A$GT$$u20$as$u20$core..ops..drop..Drop$GT$4drop17h47c3106f8c73fcd6E', symObjAddr: 0xDBF0, symBinAddr: 0x10730, symSize: 0xD0 }
  - { offsetInCU: 0x42415, offset: 0x42415, size: 0x8, addend: 0x0, symName: '__ZN70_$LT$alloc..vec..Vec$LT$T$C$A$GT$$u20$as$u20$core..ops..drop..Drop$GT$4drop17h5712664cfec55f81E', symObjAddr: 0xDCC0, symBinAddr: 0x10800, symSize: 0xB0 }
  - { offsetInCU: 0x4254C, offset: 0x4254C, size: 0x8, addend: 0x0, symName: '__ZN70_$LT$alloc..vec..Vec$LT$T$C$A$GT$$u20$as$u20$core..ops..drop..Drop$GT$4drop17hb7bdc3884c801ffbE', symObjAddr: 0xE2A0, symBinAddr: 0x108B0, symSize: 0xC0 }
  - { offsetInCU: 0x1E, offset: 0x47F5A, size: 0x8, addend: 0x0, symName: __ZN5alloc7raw_vec11finish_grow17hbfb5c3872cbceeffE.llvm.5928792955490698090, symObjAddr: 0x0, symBinAddr: 0x10970, symSize: 0xA0 }
  - { offsetInCU: 0xCA7, offset: 0x48BE3, size: 0x8, addend: 0x0, symName: __ZN5alloc7raw_vec11finish_grow17hbfb5c3872cbceeffE.llvm.5928792955490698090, symObjAddr: 0x0, symBinAddr: 0x10970, symSize: 0xA0 }
  - { offsetInCU: 0x1018, offset: 0x48F54, size: 0x8, addend: 0x0, symName: '__ZN5alloc7raw_vec19RawVec$LT$T$C$A$GT$7reserve21do_reserve_and_handle17h43368a33cbc27a7bE', symObjAddr: 0x140, symBinAddr: 0x25B2B0, symSize: 0xA0 }
  - { offsetInCU: 0x183A, offset: 0x49776, size: 0x8, addend: 0x0, symName: '__ZN5alloc7raw_vec19RawVec$LT$T$C$A$GT$8grow_one17h6b75b029b665f2d4E', symObjAddr: 0x1E0, symBinAddr: 0x10A10, symSize: 0xA0 }
  - { offsetInCU: 0x1E, offset: 0x49AB8, size: 0x8, addend: 0x0, symName: __ZN10proc_macro6bridge6client14HandleCounters3get17h2c76d49220b98e92E, symObjAddr: 0x0, symBinAddr: 0x10AB0, symSize: 0x10 }
  - { offsetInCU: 0x40, offset: 0x49ADA, size: 0x8, addend: 0x0, symName: ___rustc_proc_macro_decls_6100b58e2c8a5444__, symObjAddr: 0xA8B8, symBinAddr: 0x2DC348, symSize: 0x0 }
  - { offsetInCU: 0x7A, offset: 0x49B14, size: 0x8, addend: 0x0, symName: __ZN12borsh_derive15borsh_serialize17h23d942f56ab25ab8E, symObjAddr: 0x8120, symBinAddr: 0x18BD0, symSize: 0x610 }
  - { offsetInCU: 0x11C8, offset: 0x4AC62, size: 0x8, addend: 0x0, symName: __ZN12borsh_derive17borsh_deserialize17h7cd935e0fe4bf733E, symObjAddr: 0x8730, symBinAddr: 0x191E0, symSize: 0x610 }
  - { offsetInCU: 0x2316, offset: 0x4BDB0, size: 0x8, addend: 0x0, symName: __ZN12borsh_derive12borsh_schema17h54e0dccfcaa1e4bfE, symObjAddr: 0x8D40, symBinAddr: 0x197F0, symSize: 0x621 }
  - { offsetInCU: 0x6E7B, offset: 0x50915, size: 0x8, addend: 0x0, symName: '__ZN4core3ptr100drop_in_place$LT$core..option..Option$LT$alloc..boxed..Box$LT$syn..generics..LifetimeDef$GT$$GT$$GT$17hec1ae336221e97ebE', symObjAddr: 0x10, symBinAddr: 0x10AC0, symSize: 0x50 }
  - { offsetInCU: 0x6FFD, offset: 0x50A97, size: 0x8, addend: 0x0, symName: '__ZN4core3ptr100drop_in_place$LT$core..option..Option$LT$alloc..boxed..Box$LT$syn..path..GenericArgument$GT$$GT$$GT$17hcd1161cf838a082dE', symObjAddr: 0x60, symBinAddr: 0x10B10, symSize: 0x50 }
  - { offsetInCU: 0x72E1, offset: 0x50D7B, size: 0x8, addend: 0x0, symName: '__ZN4core3ptr101drop_in_place$LT$core..option..Option$LT$alloc..boxed..Box$LT$syn..generics..GenericParam$GT$$GT$$GT$17hc5fac3fd85abacf0E', symObjAddr: 0xB0, symBinAddr: 0x10B60, symSize: 0x310 }
  - { offsetInCU: 0x7D1C, offset: 0x517B6, size: 0x8, addend: 0x0, symName: '__ZN4core3ptr103drop_in_place$LT$core..option..Option$LT$alloc..boxed..Box$LT$syn..generics..WherePredicate$GT$$GT$$GT$17hcad6195641a1205dE', symObjAddr: 0x3C0, symBinAddr: 0x10E70, symSize: 0x120 }
  - { offsetInCU: 0x812E, offset: 0x51BC8, size: 0x8, addend: 0x0, symName: '__ZN4core3ptr103drop_in_place$LT$syn..punctuated..Punctuated$LT$syn..generics..TypeParamBound$C$syn..token..Add$GT$$GT$17h2ecc5d20be3c0c0aE', symObjAddr: 0x4E0, symBinAddr: 0x10F90, symSize: 0x200 }
  - { offsetInCU: 0x8A1F, offset: 0x524B9, size: 0x8, addend: 0x0, symName: '__ZN4core3ptr108drop_in_place$LT$syn..punctuated..Punctuated$LT$syn..expr..GenericMethodArgument$C$syn..token..Comma$GT$$GT$17h47c230af1d75b80eE', symObjAddr: 0x6E0, symBinAddr: 0x11190, symSize: 0x150 }
  - { offsetInCU: 0x8F78, offset: 0x52A12, size: 0x8, addend: 0x0, symName: '__ZN4core3ptr34drop_in_place$LT$syn..lit..Lit$GT$17h5580560749c15542E', symObjAddr: 0x830, symBinAddr: 0x112E0, symSize: 0x110 }
  - { offsetInCU: 0x93EA, offset: 0x52E84, size: 0x8, addend: 0x0, symName: '__ZN4core3ptr34drop_in_place$LT$syn..pat..Pat$GT$17hf9a811f79592a3b8E', symObjAddr: 0x940, symBinAddr: 0x113F0, symSize: 0x1050 }
  - { offsetInCU: 0xCDA9, offset: 0x56843, size: 0x8, addend: 0x0, symName: '__ZN4core3ptr34drop_in_place$LT$syn..ty..Type$GT$17hbc981fa35fe0f39fE', symObjAddr: 0x1990, symBinAddr: 0x12440, symSize: 0x5F0 }
  - { offsetInCU: 0xE958, offset: 0x583F2, size: 0x8, addend: 0x0, symName: '__ZN4core3ptr36drop_in_place$LT$syn..expr..Expr$GT$17h2b1cce78e1b3d6cfE', symObjAddr: 0x1F80, symBinAddr: 0x12A30, symSize: 0x31D0 }
  - { offsetInCU: 0x18EE1, offset: 0x6297B, size: 0x8, addend: 0x0, symName: '__ZN4core3ptr36drop_in_place$LT$syn..mac..Macro$GT$17h6e3c6f95af683f67E', symObjAddr: 0x5150, symBinAddr: 0x15C00, symSize: 0xE0 }
  - { offsetInCU: 0x192E7, offset: 0x62D81, size: 0x8, addend: 0x0, symName: '__ZN4core3ptr36drop_in_place$LT$syn..path..Path$GT$17hf9c48c32775d9332E', symObjAddr: 0x5230, symBinAddr: 0x15CE0, symSize: 0x230 }
  - { offsetInCU: 0x19C7D, offset: 0x63717, size: 0x8, addend: 0x0, symName: '__ZN4core3ptr37drop_in_place$LT$syn..stmt..Block$GT$17h16d797444104c940E', symObjAddr: 0x5460, symBinAddr: 0x15F10, symSize: 0xD0 }
  - { offsetInCU: 0x19FEF, offset: 0x63A89, size: 0x8, addend: 0x0, symName: '__ZN4core3ptr38drop_in_place$LT$syn..data..Fields$GT$17h03dbbc3f14e34f8eE', symObjAddr: 0x5530, symBinAddr: 0x15FE0, symSize: 0x180 }
  - { offsetInCU: 0x1A473, offset: 0x63F0D, size: 0x8, addend: 0x0, symName: '__ZN4core3ptr38drop_in_place$LT$syn..error..Error$GT$17h447fb86197cfa953E', symObjAddr: 0x56B0, symBinAddr: 0x16160, symSize: 0x80 }
  - { offsetInCU: 0x1A71F, offset: 0x641B9, size: 0x8, addend: 0x0, symName: '__ZN4core3ptr38drop_in_place$LT$syn..expr..Member$GT$17hc0e39c36ac1eed16E', symObjAddr: 0x5730, symBinAddr: 0x161E0, symSize: 0x30 }
  - { offsetInCU: 0x1A81B, offset: 0x642B5, size: 0x8, addend: 0x0, symName: '__ZN4core3ptr39drop_in_place$LT$proc_macro2..Ident$GT$17he1a12711e1f133b1E', symObjAddr: 0x5760, symBinAddr: 0x16210, symSize: 0x30 }
  - { offsetInCU: 0x1A8F8, offset: 0x64392, size: 0x8, addend: 0x0, symName: '__ZN4core3ptr39drop_in_place$LT$syn..pat..PatTuple$GT$17h208020e363eb6190E', symObjAddr: 0x5790, symBinAddr: 0x16240, symSize: 0x100 }
  - { offsetInCU: 0x1ACBB, offset: 0x64755, size: 0x8, addend: 0x0, symName: '__ZN4core3ptr40drop_in_place$LT$syn..item..ItemEnum$GT$17ha4129c51c516a3ffE', symObjAddr: 0x5890, symBinAddr: 0x16340, symSize: 0x250 }
  - { offsetInCU: 0x1B524, offset: 0x64FBE, size: 0x8, addend: 0x0, symName: '__ZN4core3ptr40drop_in_place$LT$syn..ty..ReturnType$GT$17h095fce72dc93f739E', symObjAddr: 0x5AE0, symBinAddr: 0x16590, symSize: 0x50 }
  - { offsetInCU: 0x1B694, offset: 0x6512E, size: 0x8, addend: 0x0, symName: '__ZN4core3ptr41drop_in_place$LT$syn..item..ItemUnion$GT$17h46a4043e78da4b19E', symObjAddr: 0x5B30, symBinAddr: 0x165E0, symSize: 0x250 }
  - { offsetInCU: 0x1BF14, offset: 0x659AE, size: 0x8, addend: 0x0, symName: '__ZN4core3ptr42drop_in_place$LT$syn..data..Visibility$GT$17hc974c13cb858e48dE', symObjAddr: 0x5D80, symBinAddr: 0x16830, symSize: 0x60 }
  - { offsetInCU: 0x1C085, offset: 0x65B1F, size: 0x8, addend: 0x0, symName: '__ZN4core3ptr42drop_in_place$LT$syn..item..ItemStruct$GT$17h3453f445add67c55E', symObjAddr: 0x5DE0, symBinAddr: 0x16890, symSize: 0x190 }
  - { offsetInCU: 0x1C5EC, offset: 0x66086, size: 0x8, addend: 0x0, symName: '__ZN4core3ptr43drop_in_place$LT$syn..data..FieldsNamed$GT$17h8eb14fb50242f092E', symObjAddr: 0x5F70, symBinAddr: 0x16A20, symSize: 0xE0 }
  - { offsetInCU: 0x1C96B, offset: 0x66405, size: 0x8, addend: 0x0, symName: '__ZN4core3ptr44drop_in_place$LT$syn..generics..Generics$GT$17h70923c39181a7a5aE', symObjAddr: 0x6050, symBinAddr: 0x16B00, symSize: 0xA0 }
  - { offsetInCU: 0x1CBD7, offset: 0x66671, size: 0x8, addend: 0x0, symName: '__ZN4core3ptr44drop_in_place$LT$syn..lifetime..Lifetime$GT$17h50a0913c59e41798E', symObjAddr: 0x60F0, symBinAddr: 0x16BA0, symSize: 0x30 }
  - { offsetInCU: 0x1CE09, offset: 0x668A3, size: 0x8, addend: 0x0, symName: '__ZN4core3ptr45drop_in_place$LT$proc_macro2..TokenStream$GT$17h24d0a90eb8be90ccE', symObjAddr: 0x6120, symBinAddr: 0x16BD0, symSize: 0x140 }
  - { offsetInCU: 0x1D265, offset: 0x66CFF, size: 0x8, addend: 0x0, symName: '__ZN4core3ptr47drop_in_place$LT$syn..generics..LifetimeDef$GT$17h411471cd40e67ca0E', symObjAddr: 0x6260, symBinAddr: 0x16D10, symSize: 0x120 }
  - { offsetInCU: 0x1D6C0, offset: 0x6715A, size: 0x8, addend: 0x0, symName: '__ZN4core3ptr47drop_in_place$LT$syn..path..GenericArgument$GT$17hf0d1883cc07cd597E', symObjAddr: 0x6380, symBinAddr: 0x16E30, symSize: 0x110 }
  - { offsetInCU: 0x1D9EE, offset: 0x67488, size: 0x8, addend: 0x0, symName: '__ZN4core3ptr58drop_in_place$LT$alloc..vec..Vec$LT$syn..expr..Arm$GT$$GT$17h56405020d3577e83E', symObjAddr: 0x6490, symBinAddr: 0x16F40, symSize: 0xD0 }
  - { offsetInCU: 0x1DCAE, offset: 0x67748, size: 0x8, addend: 0x0, symName: '__ZN4core3ptr59drop_in_place$LT$alloc..boxed..Box$LT$syn..pat..Pat$GT$$GT$17h3914df68d9a7d613E', symObjAddr: 0x6560, symBinAddr: 0x17010, symSize: 0x50 }
  - { offsetInCU: 0x1DE07, offset: 0x678A1, size: 0x8, addend: 0x0, symName: '__ZN4core3ptr59drop_in_place$LT$alloc..boxed..Box$LT$syn..ty..Type$GT$$GT$17h262de7668411c789E', symObjAddr: 0x65B0, symBinAddr: 0x17060, symSize: 0x50 }
  - { offsetInCU: 0x1DF60, offset: 0x679FA, size: 0x8, addend: 0x0, symName: '__ZN4core3ptr61drop_in_place$LT$alloc..boxed..Box$LT$syn..expr..Expr$GT$$GT$17ha932cd55e4e24781E', symObjAddr: 0x6600, symBinAddr: 0x170B0, symSize: 0x50 }
  - { offsetInCU: 0x1E0B9, offset: 0x67B53, size: 0x8, addend: 0x0, symName: '__ZN4core3ptr61drop_in_place$LT$syn..path..ParenthesizedGenericArguments$GT$17h03159d20bae739acE', symObjAddr: 0x6650, symBinAddr: 0x17100, symSize: 0x170 }
  - { offsetInCU: 0x1E6C2, offset: 0x6815C, size: 0x8, addend: 0x0, symName: '__ZN4core3ptr63drop_in_place$LT$alloc..boxed..Box$LT$syn..lit..LitRepr$GT$$GT$17h8c6c67663841bacaE', symObjAddr: 0x67C0, symBinAddr: 0x17270, symSize: 0x60 }
  - { offsetInCU: 0x1E9C9, offset: 0x68463, size: 0x8, addend: 0x0, symName: '__ZN4core3ptr64drop_in_place$LT$alloc..boxed..Box$LT$syn..pat..FieldPat$GT$$GT$17hb4677fbbc4f07b5fE', symObjAddr: 0x6820, symBinAddr: 0x172D0, symSize: 0x180 }
  - { offsetInCU: 0x1F0E6, offset: 0x68B80, size: 0x8, addend: 0x0, symName: '__ZN4core3ptr64drop_in_place$LT$alloc..boxed..Box$LT$syn..ty..BareFnArg$GT$$GT$17h04911248be4e1edaE', symObjAddr: 0x69A0, symBinAddr: 0x17450, symSize: 0x160 }
  - { offsetInCU: 0x1F67C, offset: 0x69116, size: 0x8, addend: 0x0, symName: '__ZN4core3ptr65drop_in_place$LT$alloc..vec..Vec$LT$proc_macro..TokenTree$GT$$GT$17h30108c6e391d38bcE', symObjAddr: 0x6B00, symBinAddr: 0x175B0, symSize: 0x110 }
  - { offsetInCU: 0x1FA74, offset: 0x6950E, size: 0x8, addend: 0x0, symName: '__ZN4core3ptr65drop_in_place$LT$core..option..Option$LT$syn..expr..Label$GT$$GT$17hd93948117f40c062E', symObjAddr: 0x6C10, symBinAddr: 0x176C0, symSize: 0x30 }
  - { offsetInCU: 0x1FBAE, offset: 0x69648, size: 0x8, addend: 0x0, symName: '__ZN4core3ptr66drop_in_place$LT$core..option..Option$LT$syn..ty..Variadic$GT$$GT$17h36bd626cfe29c972E', symObjAddr: 0x6C40, symBinAddr: 0x176F0, symSize: 0xF0 }
  - { offsetInCU: 0x1FED8, offset: 0x69972, size: 0x8, addend: 0x0, symName: '__ZN4core3ptr67drop_in_place$LT$alloc..boxed..Box$LT$syn..expr..FieldValue$GT$$GT$17h5cb5fc3511928590E', symObjAddr: 0x6D30, symBinAddr: 0x177E0, symSize: 0x160 }
  - { offsetInCU: 0x2044E, offset: 0x69EE8, size: 0x8, addend: 0x0, symName: '__ZN4core3ptr72drop_in_place$LT$core..option..Option$LT$syn..lifetime..Lifetime$GT$$GT$17h14be3551c0ef7d6dE', symObjAddr: 0x6E90, symBinAddr: 0x17940, symSize: 0x30 }
  - { offsetInCU: 0x20569, offset: 0x6A003, size: 0x8, addend: 0x0, symName: '__ZN4core3ptr75drop_in_place$LT$alloc..boxed..Box$LT$syn..generics..TypeParamBound$GT$$GT$17h89134a6a9f3c4f77E', symObjAddr: 0x6EC0, symBinAddr: 0x17970, symSize: 0x140 }
  - { offsetInCU: 0x20B40, offset: 0x6A5DA, size: 0x8, addend: 0x0, symName: '__ZN4core3ptr75drop_in_place$LT$core..option..Option$LT$syn..generics..WhereClause$GT$$GT$17h3be709de6ff9e822E', symObjAddr: 0x7000, symBinAddr: 0x17AB0, symSize: 0xF0 }
  - { offsetInCU: 0x20E62, offset: 0x6A8FC, size: 0x8, addend: 0x0, symName: '__ZN4core3ptr78drop_in_place$LT$alloc..boxed..Box$LT$syn..expr..GenericMethodArgument$GT$$GT$17h4e746a734f23460eE', symObjAddr: 0x70F0, symBinAddr: 0x17BA0, symSize: 0x60 }
  - { offsetInCU: 0x21073, offset: 0x6AB0D, size: 0x8, addend: 0x0, symName: '__ZN4core3ptr78drop_in_place$LT$core..option..Option$LT$syn..generics..BoundLifetimes$GT$$GT$17h5c8cec845b7930a2E', symObjAddr: 0x7150, symBinAddr: 0x17C00, symSize: 0xC0 }
  - { offsetInCU: 0x214A9, offset: 0x6AF43, size: 0x8, addend: 0x0, symName: '__ZN4core3ptr86drop_in_place$LT$syn..punctuated..Punctuated$LT$syn..pat..Pat$C$syn..token..Or$GT$$GT$17hb5e75385964ba948E', symObjAddr: 0x7210, symBinAddr: 0x17CC0, symSize: 0x120 }
  - { offsetInCU: 0x21924, offset: 0x6B3BE, size: 0x8, addend: 0x0, symName: '__ZN4core3ptr87drop_in_place$LT$core..option..Option$LT$alloc..boxed..Box$LT$syn..pat..Pat$GT$$GT$$GT$17h2f4124adb9f346f5E', symObjAddr: 0x7330, symBinAddr: 0x17DE0, symSize: 0x50 }
  - { offsetInCU: 0x21A94, offset: 0x6B52E, size: 0x8, addend: 0x0, symName: '__ZN4core3ptr87drop_in_place$LT$core..option..Option$LT$alloc..boxed..Box$LT$syn..ty..Type$GT$$GT$$GT$17hec52dbd7b4baee13E', symObjAddr: 0x7380, symBinAddr: 0x17E30, symSize: 0x50 }
  - { offsetInCU: 0x21C23, offset: 0x6B6BD, size: 0x8, addend: 0x0, symName: '__ZN4core3ptr88drop_in_place$LT$core..result..Result$LT$syn..item..ItemEnum$C$syn..error..Error$GT$$GT$17h1bf7243bf179c196E', symObjAddr: 0x73D0, symBinAddr: 0x17E80, symSize: 0x90 }
  - { offsetInCU: 0x21EE4, offset: 0x6B97E, size: 0x8, addend: 0x0, symName: '__ZN4core3ptr89drop_in_place$LT$core..option..Option$LT$alloc..boxed..Box$LT$syn..expr..Expr$GT$$GT$$GT$17hf7d2354b2a9b1a51E', symObjAddr: 0x7460, symBinAddr: 0x17F10, symSize: 0x50 }
  - { offsetInCU: 0x22054, offset: 0x6BAEE, size: 0x8, addend: 0x0, symName: '__ZN4core3ptr89drop_in_place$LT$core..result..Result$LT$syn..item..ItemUnion$C$syn..error..Error$GT$$GT$17hb62d276ca585390cE', symObjAddr: 0x74B0, symBinAddr: 0x17F60, symSize: 0x90 }
  - { offsetInCU: 0x22353, offset: 0x6BDED, size: 0x8, addend: 0x0, symName: '__ZN4core3ptr89drop_in_place$LT$syn..punctuated..Punctuated$LT$syn..pat..Pat$C$syn..token..Comma$GT$$GT$17hf8b1d0d4e6ffb339E', symObjAddr: 0x7540, symBinAddr: 0x17FF0, symSize: 0x120 }
  - { offsetInCU: 0x22842, offset: 0x6C2DC, size: 0x8, addend: 0x0, symName: '__ZN4core3ptr90drop_in_place$LT$core..option..Option$LT$alloc..boxed..Box$LT$syn..data..Field$GT$$GT$$GT$17h81d234a538269f35E', symObjAddr: 0x7660, symBinAddr: 0x18110, symSize: 0x1D0 }
  - { offsetInCU: 0x22EFF, offset: 0x6C999, size: 0x8, addend: 0x0, symName: '__ZN4core3ptr90drop_in_place$LT$core..result..Result$LT$syn..item..ItemStruct$C$syn..error..Error$GT$$GT$17h633e53699c3f2a1cE', symObjAddr: 0x7830, symBinAddr: 0x182E0, symSize: 0x90 }
  - { offsetInCU: 0x231FE, offset: 0x6CC98, size: 0x8, addend: 0x0, symName: '__ZN4core3ptr91drop_in_place$LT$syn..punctuated..Punctuated$LT$syn..expr..Expr$C$syn..token..Comma$GT$$GT$17h6fcc59b898ba05daE', symObjAddr: 0x78C0, symBinAddr: 0x18370, symSize: 0x120 }
  - { offsetInCU: 0x23708, offset: 0x6D1A2, size: 0x8, addend: 0x0, symName: '__ZN4core3ptr92drop_in_place$LT$core..option..Option$LT$alloc..boxed..Box$LT$syn..data..Variant$GT$$GT$$GT$17h5ebc50fe1f6c981cE', symObjAddr: 0x79E0, symBinAddr: 0x18490, symSize: 0x1A0 }
  - { offsetInCU: 0x23CCF, offset: 0x6D769, size: 0x8, addend: 0x0, symName: '__ZN4core3ptr94drop_in_place$LT$syn..punctuated..Punctuated$LT$syn..data..Variant$C$syn..token..Comma$GT$$GT$17hc4ff51f7e64a5026E', symObjAddr: 0x7B80, symBinAddr: 0x18630, symSize: 0xE0 }
  - { offsetInCU: 0x23FD2, offset: 0x6DA6C, size: 0x8, addend: 0x0, symName: '__ZN4core3ptr94drop_in_place$LT$syn..punctuated..Punctuated$LT$syn..pat..FieldPat$C$syn..token..Comma$GT$$GT$17h7b5b51e4cb4f363cE', symObjAddr: 0x7C60, symBinAddr: 0x18710, symSize: 0xF0 }
  - { offsetInCU: 0x242D1, offset: 0x6DD6B, size: 0x8, addend: 0x0, symName: '__ZN4core3ptr94drop_in_place$LT$syn..punctuated..Punctuated$LT$syn..ty..BareFnArg$C$syn..token..Comma$GT$$GT$17h50d0dd67de9783b1E', symObjAddr: 0x7D50, symBinAddr: 0x18800, symSize: 0x90 }
  - { offsetInCU: 0x24541, offset: 0x6DFDB, size: 0x8, addend: 0x0, symName: '__ZN4core3ptr96drop_in_place$LT$core..option..Option$LT$alloc..boxed..Box$LT$syn..path..PathSegment$GT$$GT$$GT$17h16c54fd908251f5cE', symObjAddr: 0x7DE0, symBinAddr: 0x18890, symSize: 0x180 }
  - { offsetInCU: 0x24BFE, offset: 0x6E698, size: 0x8, addend: 0x0, symName: '__ZN4core3ptr97drop_in_place$LT$syn..punctuated..Punctuated$LT$syn..expr..FieldValue$C$syn..token..Comma$GT$$GT$17h14e4f48b5b174225E', symObjAddr: 0x7F60, symBinAddr: 0x18A10, symSize: 0xF0 }
  - { offsetInCU: 0x24F77, offset: 0x6EA11, size: 0x8, addend: 0x0, symName: '__ZN4core3ptr97drop_in_place$LT$syn..punctuated..Punctuated$LT$syn..lifetime..Lifetime$C$syn..token..Add$GT$$GT$17h23d08adbf1b9ededE', symObjAddr: 0x8050, symBinAddr: 0x18B00, symSize: 0xD0 }
  - { offsetInCU: 0x25F36, offset: 0x6F9D0, size: 0x8, addend: 0x0, symName: __ZN10proc_macro6bridge6client14HandleCounters3get17h2c76d49220b98e92E, symObjAddr: 0x0, symBinAddr: 0x10AB0, symSize: 0x10 }
  - { offsetInCU: 0x1E, offset: 0x7B0BD, size: 0x8, addend: 0x0, symName: '__ZN40_$LT$F$u20$as$u20$syn..parse..Parser$GT$6parse217h9f588d2d1a73509dE', symObjAddr: 0x0, symBinAddr: 0x19E20, symSize: 0x380 }
  - { offsetInCU: 0x1AFA, offset: 0x7CB99, size: 0x8, addend: 0x0, symName: '__ZN4core3ptr100drop_in_place$LT$core..option..Option$LT$alloc..boxed..Box$LT$syn..generics..LifetimeDef$GT$$GT$$GT$17hec1ae336221e97ebE', symObjAddr: 0xA80, symBinAddr: 0x1A8A0, symSize: 0x50 }
  - { offsetInCU: 0x1C7C, offset: 0x7CD1B, size: 0x8, addend: 0x0, symName: '__ZN4core3ptr100drop_in_place$LT$core..option..Option$LT$alloc..boxed..Box$LT$syn..path..GenericArgument$GT$$GT$$GT$17hcd1161cf838a082dE', symObjAddr: 0xAD0, symBinAddr: 0x1A8F0, symSize: 0x50 }
  - { offsetInCU: 0x1F60, offset: 0x7CFFF, size: 0x8, addend: 0x0, symName: '__ZN4core3ptr101drop_in_place$LT$core..option..Option$LT$alloc..boxed..Box$LT$syn..generics..GenericParam$GT$$GT$$GT$17hc5fac3fd85abacf0E', symObjAddr: 0xB20, symBinAddr: 0x1A940, symSize: 0x310 }
  - { offsetInCU: 0x299B, offset: 0x7DA3A, size: 0x8, addend: 0x0, symName: '__ZN4core3ptr103drop_in_place$LT$core..option..Option$LT$alloc..boxed..Box$LT$syn..generics..WherePredicate$GT$$GT$$GT$17hcad6195641a1205dE', symObjAddr: 0xE30, symBinAddr: 0x1AC50, symSize: 0x120 }
  - { offsetInCU: 0x2DAD, offset: 0x7DE4C, size: 0x8, addend: 0x0, symName: '__ZN4core3ptr103drop_in_place$LT$syn..punctuated..Punctuated$LT$syn..generics..TypeParamBound$C$syn..token..Add$GT$$GT$17h2ecc5d20be3c0c0aE', symObjAddr: 0xF50, symBinAddr: 0x1AD70, symSize: 0x200 }
  - { offsetInCU: 0x369E, offset: 0x7E73D, size: 0x8, addend: 0x0, symName: '__ZN4core3ptr108drop_in_place$LT$syn..punctuated..Punctuated$LT$syn..expr..GenericMethodArgument$C$syn..token..Comma$GT$$GT$17h47c230af1d75b80eE', symObjAddr: 0x1150, symBinAddr: 0x1AF70, symSize: 0x150 }
  - { offsetInCU: 0x3BF7, offset: 0x7EC96, size: 0x8, addend: 0x0, symName: '__ZN4core3ptr34drop_in_place$LT$syn..lit..Lit$GT$17h5580560749c15542E', symObjAddr: 0x12A0, symBinAddr: 0x1B0C0, symSize: 0x110 }
  - { offsetInCU: 0x4069, offset: 0x7F108, size: 0x8, addend: 0x0, symName: '__ZN4core3ptr34drop_in_place$LT$syn..pat..Pat$GT$17hf9a811f79592a3b8E', symObjAddr: 0x13B0, symBinAddr: 0x1B1D0, symSize: 0x1050 }
  - { offsetInCU: 0x7A28, offset: 0x82AC7, size: 0x8, addend: 0x0, symName: '__ZN4core3ptr34drop_in_place$LT$syn..ty..Type$GT$17hbc981fa35fe0f39fE', symObjAddr: 0x2400, symBinAddr: 0x1C220, symSize: 0x5F0 }
  - { offsetInCU: 0x95D7, offset: 0x84676, size: 0x8, addend: 0x0, symName: '__ZN4core3ptr36drop_in_place$LT$syn..expr..Expr$GT$17h2b1cce78e1b3d6cfE', symObjAddr: 0x29F0, symBinAddr: 0x1C810, symSize: 0x31D0 }
  - { offsetInCU: 0x13B60, offset: 0x8EBFF, size: 0x8, addend: 0x0, symName: '__ZN4core3ptr36drop_in_place$LT$syn..mac..Macro$GT$17h6e3c6f95af683f67E', symObjAddr: 0x5BC0, symBinAddr: 0x1F9E0, symSize: 0xE0 }
  - { offsetInCU: 0x13F66, offset: 0x8F005, size: 0x8, addend: 0x0, symName: '__ZN4core3ptr36drop_in_place$LT$syn..path..Path$GT$17hf9c48c32775d9332E', symObjAddr: 0x5CA0, symBinAddr: 0x1FAC0, symSize: 0x230 }
  - { offsetInCU: 0x148FC, offset: 0x8F99B, size: 0x8, addend: 0x0, symName: '__ZN4core3ptr37drop_in_place$LT$syn..stmt..Block$GT$17h16d797444104c940E', symObjAddr: 0x5ED0, symBinAddr: 0x1FCF0, symSize: 0xD0 }
  - { offsetInCU: 0x14C6E, offset: 0x8FD0D, size: 0x8, addend: 0x0, symName: '__ZN4core3ptr38drop_in_place$LT$syn..data..Fields$GT$17h03dbbc3f14e34f8eE', symObjAddr: 0x5FA0, symBinAddr: 0x1FDC0, symSize: 0x180 }
  - { offsetInCU: 0x150B4, offset: 0x90153, size: 0x8, addend: 0x0, symName: '__ZN4core3ptr38drop_in_place$LT$syn..expr..Member$GT$17hc0e39c36ac1eed16E', symObjAddr: 0x6120, symBinAddr: 0x1FF40, symSize: 0x30 }
  - { offsetInCU: 0x151B0, offset: 0x9024F, size: 0x8, addend: 0x0, symName: '__ZN4core3ptr39drop_in_place$LT$proc_macro2..Ident$GT$17he1a12711e1f133b1E', symObjAddr: 0x6150, symBinAddr: 0x1FF70, symSize: 0x30 }
  - { offsetInCU: 0x153C3, offset: 0x90462, size: 0x8, addend: 0x0, symName: '__ZN4core3ptr39drop_in_place$LT$syn..buffer..Entry$GT$17h0badf9e13ff960fbE', symObjAddr: 0x6180, symBinAddr: 0x1FFA0, symSize: 0xB0 }
  - { offsetInCU: 0x1574E, offset: 0x907ED, size: 0x8, addend: 0x0, symName: '__ZN4core3ptr39drop_in_place$LT$syn..pat..PatTuple$GT$17h208020e363eb6190E', symObjAddr: 0x6230, symBinAddr: 0x20050, symSize: 0x100 }
  - { offsetInCU: 0x15B11, offset: 0x90BB0, size: 0x8, addend: 0x0, symName: '__ZN4core3ptr40drop_in_place$LT$syn..item..ItemEnum$GT$17ha4129c51c516a3ffE', symObjAddr: 0x6330, symBinAddr: 0x20150, symSize: 0x250 }
  - { offsetInCU: 0x1637A, offset: 0x91419, size: 0x8, addend: 0x0, symName: '__ZN4core3ptr40drop_in_place$LT$syn..ty..ReturnType$GT$17h095fce72dc93f739E', symObjAddr: 0x6580, symBinAddr: 0x203A0, symSize: 0x50 }
  - { offsetInCU: 0x164EA, offset: 0x91589, size: 0x8, addend: 0x0, symName: '__ZN4core3ptr41drop_in_place$LT$syn..item..ItemUnion$GT$17h46a4043e78da4b19E', symObjAddr: 0x65D0, symBinAddr: 0x203F0, symSize: 0x250 }
  - { offsetInCU: 0x16D6A, offset: 0x91E09, size: 0x8, addend: 0x0, symName: '__ZN4core3ptr42drop_in_place$LT$syn..data..Visibility$GT$17hc974c13cb858e48dE', symObjAddr: 0x6820, symBinAddr: 0x20640, symSize: 0x60 }
  - { offsetInCU: 0x16EDB, offset: 0x91F7A, size: 0x8, addend: 0x0, symName: '__ZN4core3ptr42drop_in_place$LT$syn..item..ItemStruct$GT$17h3453f445add67c55E', symObjAddr: 0x6880, symBinAddr: 0x206A0, symSize: 0x190 }
  - { offsetInCU: 0x17442, offset: 0x924E1, size: 0x8, addend: 0x0, symName: '__ZN4core3ptr43drop_in_place$LT$syn..data..FieldsNamed$GT$17h8eb14fb50242f092E', symObjAddr: 0x6A10, symBinAddr: 0x20830, symSize: 0xE0 }
  - { offsetInCU: 0x177C1, offset: 0x92860, size: 0x8, addend: 0x0, symName: '__ZN4core3ptr44drop_in_place$LT$syn..generics..Generics$GT$17h70923c39181a7a5aE', symObjAddr: 0x6AF0, symBinAddr: 0x20910, symSize: 0xA0 }
  - { offsetInCU: 0x17A2D, offset: 0x92ACC, size: 0x8, addend: 0x0, symName: '__ZN4core3ptr44drop_in_place$LT$syn..lifetime..Lifetime$GT$17h50a0913c59e41798E', symObjAddr: 0x6B90, symBinAddr: 0x209B0, symSize: 0x30 }
  - { offsetInCU: 0x17B29, offset: 0x92BC8, size: 0x8, addend: 0x0, symName: '__ZN4core3ptr44drop_in_place$LT$syn..parse..ParseBuffer$GT$17h50c323c984394ea7E', symObjAddr: 0x6BC0, symBinAddr: 0x209E0, symSize: 0x70 }
  - { offsetInCU: 0x17EA5, offset: 0x92F44, size: 0x8, addend: 0x0, symName: '__ZN4core3ptr45drop_in_place$LT$proc_macro2..TokenStream$GT$17h24d0a90eb8be90ccE', symObjAddr: 0x6C30, symBinAddr: 0x20A50, symSize: 0x140 }
  - { offsetInCU: 0x18301, offset: 0x933A0, size: 0x8, addend: 0x0, symName: '__ZN4core3ptr45drop_in_place$LT$syn..buffer..TokenBuffer$GT$17h621f478b2c3c4938E', symObjAddr: 0x6D70, symBinAddr: 0x20B90, symSize: 0xC0 }
  - { offsetInCU: 0x1852B, offset: 0x935CA, size: 0x8, addend: 0x0, symName: '__ZN4core3ptr47drop_in_place$LT$syn..generics..LifetimeDef$GT$17h411471cd40e67ca0E', symObjAddr: 0x6E30, symBinAddr: 0x20C50, symSize: 0x120 }
  - { offsetInCU: 0x18986, offset: 0x93A25, size: 0x8, addend: 0x0, symName: '__ZN4core3ptr47drop_in_place$LT$syn..path..GenericArgument$GT$17hf0d1883cc07cd597E', symObjAddr: 0x6F50, symBinAddr: 0x20D70, symSize: 0x110 }
  - { offsetInCU: 0x18CB4, offset: 0x93D53, size: 0x8, addend: 0x0, symName: '__ZN4core3ptr58drop_in_place$LT$alloc..vec..Vec$LT$syn..expr..Arm$GT$$GT$17h56405020d3577e83E', symObjAddr: 0x7060, symBinAddr: 0x20E80, symSize: 0xD0 }
  - { offsetInCU: 0x18F74, offset: 0x94013, size: 0x8, addend: 0x0, symName: '__ZN4core3ptr59drop_in_place$LT$alloc..boxed..Box$LT$syn..pat..Pat$GT$$GT$17h3914df68d9a7d613E', symObjAddr: 0x7130, symBinAddr: 0x20F50, symSize: 0x50 }
  - { offsetInCU: 0x190CD, offset: 0x9416C, size: 0x8, addend: 0x0, symName: '__ZN4core3ptr59drop_in_place$LT$alloc..boxed..Box$LT$syn..ty..Type$GT$$GT$17h262de7668411c789E', symObjAddr: 0x7180, symBinAddr: 0x20FA0, symSize: 0x50 }
  - { offsetInCU: 0x19226, offset: 0x942C5, size: 0x8, addend: 0x0, symName: '__ZN4core3ptr61drop_in_place$LT$alloc..boxed..Box$LT$syn..expr..Expr$GT$$GT$17ha932cd55e4e24781E', symObjAddr: 0x71D0, symBinAddr: 0x20FF0, symSize: 0x50 }
  - { offsetInCU: 0x1937F, offset: 0x9441E, size: 0x8, addend: 0x0, symName: '__ZN4core3ptr61drop_in_place$LT$syn..path..ParenthesizedGenericArguments$GT$17h03159d20bae739acE', symObjAddr: 0x7220, symBinAddr: 0x21040, symSize: 0x170 }
  - { offsetInCU: 0x19988, offset: 0x94A27, size: 0x8, addend: 0x0, symName: '__ZN4core3ptr63drop_in_place$LT$alloc..boxed..Box$LT$syn..lit..LitRepr$GT$$GT$17h8c6c67663841bacaE', symObjAddr: 0x7390, symBinAddr: 0x211B0, symSize: 0x60 }
  - { offsetInCU: 0x19C8F, offset: 0x94D2E, size: 0x8, addend: 0x0, symName: '__ZN4core3ptr64drop_in_place$LT$alloc..boxed..Box$LT$syn..pat..FieldPat$GT$$GT$17hb4677fbbc4f07b5fE', symObjAddr: 0x73F0, symBinAddr: 0x21210, symSize: 0x180 }
  - { offsetInCU: 0x1A3AC, offset: 0x9544B, size: 0x8, addend: 0x0, symName: '__ZN4core3ptr64drop_in_place$LT$alloc..boxed..Box$LT$syn..ty..BareFnArg$GT$$GT$17h04911248be4e1edaE', symObjAddr: 0x7570, symBinAddr: 0x21390, symSize: 0x160 }
  - { offsetInCU: 0x1A942, offset: 0x959E1, size: 0x8, addend: 0x0, symName: '__ZN4core3ptr65drop_in_place$LT$alloc..vec..Vec$LT$proc_macro..TokenTree$GT$$GT$17h30108c6e391d38bcE', symObjAddr: 0x76D0, symBinAddr: 0x214F0, symSize: 0x110 }
  - { offsetInCU: 0x1AD3A, offset: 0x95DD9, size: 0x8, addend: 0x0, symName: '__ZN4core3ptr65drop_in_place$LT$core..option..Option$LT$syn..expr..Label$GT$$GT$17hd93948117f40c062E', symObjAddr: 0x77E0, symBinAddr: 0x21600, symSize: 0x30 }
  - { offsetInCU: 0x1AE74, offset: 0x95F13, size: 0x8, addend: 0x0, symName: '__ZN4core3ptr66drop_in_place$LT$core..option..Option$LT$syn..ty..Variadic$GT$$GT$17h36bd626cfe29c972E', symObjAddr: 0x7810, symBinAddr: 0x21630, symSize: 0xF0 }
  - { offsetInCU: 0x1B19E, offset: 0x9623D, size: 0x8, addend: 0x0, symName: '__ZN4core3ptr67drop_in_place$LT$alloc..boxed..Box$LT$syn..expr..FieldValue$GT$$GT$17h5cb5fc3511928590E', symObjAddr: 0x7900, symBinAddr: 0x21720, symSize: 0x160 }
  - { offsetInCU: 0x1B714, offset: 0x967B3, size: 0x8, addend: 0x0, symName: '__ZN4core3ptr72drop_in_place$LT$core..option..Option$LT$syn..lifetime..Lifetime$GT$$GT$17h14be3551c0ef7d6dE', symObjAddr: 0x7A60, symBinAddr: 0x21880, symSize: 0x30 }
  - { offsetInCU: 0x1B82F, offset: 0x968CE, size: 0x8, addend: 0x0, symName: '__ZN4core3ptr75drop_in_place$LT$alloc..boxed..Box$LT$syn..generics..TypeParamBound$GT$$GT$17h89134a6a9f3c4f77E', symObjAddr: 0x7A90, symBinAddr: 0x218B0, symSize: 0x140 }
  - { offsetInCU: 0x1BE06, offset: 0x96EA5, size: 0x8, addend: 0x0, symName: '__ZN4core3ptr75drop_in_place$LT$core..option..Option$LT$syn..generics..WhereClause$GT$$GT$17h3be709de6ff9e822E', symObjAddr: 0x7BD0, symBinAddr: 0x219F0, symSize: 0xF0 }
  - { offsetInCU: 0x1C128, offset: 0x971C7, size: 0x8, addend: 0x0, symName: '__ZN4core3ptr78drop_in_place$LT$alloc..boxed..Box$LT$syn..expr..GenericMethodArgument$GT$$GT$17h4e746a734f23460eE', symObjAddr: 0x7CC0, symBinAddr: 0x21AE0, symSize: 0x60 }
  - { offsetInCU: 0x1C339, offset: 0x973D8, size: 0x8, addend: 0x0, symName: '__ZN4core3ptr78drop_in_place$LT$core..option..Option$LT$syn..generics..BoundLifetimes$GT$$GT$17h5c8cec845b7930a2E', symObjAddr: 0x7D20, symBinAddr: 0x21B40, symSize: 0xC0 }
  - { offsetInCU: 0x1C76F, offset: 0x9780E, size: 0x8, addend: 0x0, symName: '__ZN4core3ptr86drop_in_place$LT$syn..punctuated..Punctuated$LT$syn..pat..Pat$C$syn..token..Or$GT$$GT$17hb5e75385964ba948E', symObjAddr: 0x7DE0, symBinAddr: 0x21C00, symSize: 0x120 }
  - { offsetInCU: 0x1CBEA, offset: 0x97C89, size: 0x8, addend: 0x0, symName: '__ZN4core3ptr87drop_in_place$LT$core..option..Option$LT$alloc..boxed..Box$LT$syn..pat..Pat$GT$$GT$$GT$17h2f4124adb9f346f5E', symObjAddr: 0x7F00, symBinAddr: 0x21D20, symSize: 0x50 }
  - { offsetInCU: 0x1CD5A, offset: 0x97DF9, size: 0x8, addend: 0x0, symName: '__ZN4core3ptr87drop_in_place$LT$core..option..Option$LT$alloc..boxed..Box$LT$syn..ty..Type$GT$$GT$$GT$17hec52dbd7b4baee13E', symObjAddr: 0x7F50, symBinAddr: 0x21D70, symSize: 0x50 }
  - { offsetInCU: 0x1CECA, offset: 0x97F69, size: 0x8, addend: 0x0, symName: '__ZN4core3ptr89drop_in_place$LT$core..option..Option$LT$alloc..boxed..Box$LT$syn..expr..Expr$GT$$GT$$GT$17hf7d2354b2a9b1a51E', symObjAddr: 0x7FA0, symBinAddr: 0x21DC0, symSize: 0x50 }
  - { offsetInCU: 0x1D078, offset: 0x98117, size: 0x8, addend: 0x0, symName: '__ZN4core3ptr89drop_in_place$LT$syn..punctuated..Punctuated$LT$syn..pat..Pat$C$syn..token..Comma$GT$$GT$17hf8b1d0d4e6ffb339E', symObjAddr: 0x7FF0, symBinAddr: 0x21E10, symSize: 0x120 }
  - { offsetInCU: 0x1D567, offset: 0x98606, size: 0x8, addend: 0x0, symName: '__ZN4core3ptr90drop_in_place$LT$core..option..Option$LT$alloc..boxed..Box$LT$syn..data..Field$GT$$GT$$GT$17h81d234a538269f35E', symObjAddr: 0x8110, symBinAddr: 0x21F30, symSize: 0x1D0 }
  - { offsetInCU: 0x1DC62, offset: 0x98D01, size: 0x8, addend: 0x0, symName: '__ZN4core3ptr91drop_in_place$LT$syn..punctuated..Punctuated$LT$syn..expr..Expr$C$syn..token..Comma$GT$$GT$17h6fcc59b898ba05daE', symObjAddr: 0x82E0, symBinAddr: 0x22100, symSize: 0x120 }
  - { offsetInCU: 0x1E16C, offset: 0x9920B, size: 0x8, addend: 0x0, symName: '__ZN4core3ptr92drop_in_place$LT$core..option..Option$LT$alloc..boxed..Box$LT$syn..data..Variant$GT$$GT$$GT$17h5ebc50fe1f6c981cE', symObjAddr: 0x8400, symBinAddr: 0x22220, symSize: 0x1A0 }
  - { offsetInCU: 0x1E733, offset: 0x997D2, size: 0x8, addend: 0x0, symName: '__ZN4core3ptr94drop_in_place$LT$syn..punctuated..Punctuated$LT$syn..data..Variant$C$syn..token..Comma$GT$$GT$17hc4ff51f7e64a5026E', symObjAddr: 0x85A0, symBinAddr: 0x223C0, symSize: 0xE0 }
  - { offsetInCU: 0x1EA36, offset: 0x99AD5, size: 0x8, addend: 0x0, symName: '__ZN4core3ptr94drop_in_place$LT$syn..punctuated..Punctuated$LT$syn..pat..FieldPat$C$syn..token..Comma$GT$$GT$17h7b5b51e4cb4f363cE', symObjAddr: 0x8680, symBinAddr: 0x224A0, symSize: 0xF0 }
  - { offsetInCU: 0x1ED35, offset: 0x99DD4, size: 0x8, addend: 0x0, symName: '__ZN4core3ptr94drop_in_place$LT$syn..punctuated..Punctuated$LT$syn..ty..BareFnArg$C$syn..token..Comma$GT$$GT$17h50d0dd67de9783b1E', symObjAddr: 0x8770, symBinAddr: 0x22590, symSize: 0x90 }
  - { offsetInCU: 0x1EFA5, offset: 0x9A044, size: 0x8, addend: 0x0, symName: '__ZN4core3ptr96drop_in_place$LT$core..option..Option$LT$alloc..boxed..Box$LT$syn..path..PathSegment$GT$$GT$$GT$17h16c54fd908251f5cE', symObjAddr: 0x8800, symBinAddr: 0x22620, symSize: 0x180 }
  - { offsetInCU: 0x1F662, offset: 0x9A701, size: 0x8, addend: 0x0, symName: '__ZN4core3ptr97drop_in_place$LT$syn..punctuated..Punctuated$LT$syn..expr..FieldValue$C$syn..token..Comma$GT$$GT$17h14e4f48b5b174225E', symObjAddr: 0x8980, symBinAddr: 0x227A0, symSize: 0xF0 }
  - { offsetInCU: 0x1F9DB, offset: 0x9AA7A, size: 0x8, addend: 0x0, symName: '__ZN4core3ptr97drop_in_place$LT$syn..punctuated..Punctuated$LT$syn..lifetime..Lifetime$C$syn..token..Add$GT$$GT$17h23d08adbf1b9ededE', symObjAddr: 0x8A70, symBinAddr: 0x22890, symSize: 0xC6 }
  - { offsetInCU: 0x2746F, offset: 0xA250E, size: 0x8, addend: 0x0, symName: '__ZN40_$LT$F$u20$as$u20$syn..parse..Parser$GT$6parse217h9f588d2d1a73509dE', symObjAddr: 0x0, symBinAddr: 0x19E20, symSize: 0x380 }
  - { offsetInCU: 0x27CAA, offset: 0xA2D49, size: 0x8, addend: 0x0, symName: '__ZN40_$LT$F$u20$as$u20$syn..parse..Parser$GT$6parse217ha70e7b3ed2305d51E', symObjAddr: 0x380, symBinAddr: 0x1A1A0, symSize: 0x380 }
  - { offsetInCU: 0x284E5, offset: 0xA3584, size: 0x8, addend: 0x0, symName: '__ZN40_$LT$F$u20$as$u20$syn..parse..Parser$GT$6parse217hf0456f7072e70a9eE', symObjAddr: 0x700, symBinAddr: 0x1A520, symSize: 0x380 }
  - { offsetInCU: 0x5ED, offset: 0xAA28E, size: 0x8, addend: 0x0, symName: __ZN10proc_macro6bridge6client10run_client17h102193522b90483bE, symObjAddr: 0x190, symBinAddr: 0x22960, symSize: 0x2E0 }
  - { offsetInCU: 0xCC7, offset: 0xAA968, size: 0x8, addend: 0x0, symName: __ZN10proc_macro6bridge6client10run_client17h3225d54552884ab5E, symObjAddr: 0x470, symBinAddr: 0x22C40, symSize: 0x2E0 }
  - { offsetInCU: 0x13A1, offset: 0xAB042, size: 0x8, addend: 0x0, symName: __ZN10proc_macro6bridge6client10run_client17ha67bc3fd830b35e9E, symObjAddr: 0x750, symBinAddr: 0x22F20, symSize: 0x2DB }
  - { offsetInCU: 0x7AF, offset: 0xADBEB, size: 0x8, addend: 0x0, symName: '__ZN68_$LT$$RF$str$u20$as$u20$proc_macro..bridge..rpc..Encode$LT$S$GT$$GT$6encode17hf87546214876bb3bE', symObjAddr: 0x80, symBinAddr: 0x23200, symSize: 0x230 }
  - { offsetInCU: 0x1E, offset: 0xAE245, size: 0x8, addend: 0x0, symName: __ZN4core3fmt5Write9write_fmt17he0b9f5ce13a85908E, symObjAddr: 0x0, symBinAddr: 0x23430, symSize: 0x20 }
  - { offsetInCU: 0x98, offset: 0xAE2BF, size: 0x8, addend: 0x0, symName: '__ZN58_$LT$alloc..string..String$u20$as$u20$core..fmt..Write$GT$10write_char17h04bc467bd68a934bE', symObjAddr: 0x40, symBinAddr: 0x23470, symSize: 0x140 }
  - { offsetInCU: 0x49D, offset: 0xAE6C4, size: 0x8, addend: 0x0, symName: '__ZN58_$LT$alloc..string..String$u20$as$u20$core..fmt..Write$GT$9write_str17h46a93205c3443fbaE', symObjAddr: 0x180, symBinAddr: 0x235B0, symSize: 0x5B }
  - { offsetInCU: 0xAC1, offset: 0xAECE8, size: 0x8, addend: 0x0, symName: '__ZN4core3ptr42drop_in_place$LT$alloc..string..String$GT$17hb7522b94eb0a37d9E', symObjAddr: 0x20, symBinAddr: 0x23450, symSize: 0x20 }
  - { offsetInCU: 0xE54, offset: 0xAF07B, size: 0x8, addend: 0x0, symName: __ZN4core3fmt5Write9write_fmt17he0b9f5ce13a85908E, symObjAddr: 0x0, symBinAddr: 0x23430, symSize: 0x20 }
  - { offsetInCU: 0x1E, offset: 0xAFB2F, size: 0x8, addend: 0x0, symName: __ZN3syn5error5Error3new17hc1305936786c7184E, symObjAddr: 0x0, symBinAddr: 0x23610, symSize: 0xF0 }
  - { offsetInCU: 0x35, offset: 0xAFB46, size: 0x8, addend: 0x0, symName: _anon.0248e693eb6b242f4d65dc6af5f888e7.0.llvm.2832678416731729236, symObjAddr: 0x300, symBinAddr: 0x2DC3A0, symSize: 0x0 }
  - { offsetInCU: 0x154, offset: 0xAFC65, size: 0x8, addend: 0x0, symName: '__ZN58_$LT$alloc..string..String$u20$as$u20$core..fmt..Write$GT$10write_char17h04bc467bd68a934bE.llvm.2832678416731729236', symObjAddr: 0x130, symBinAddr: 0x23740, symSize: 0x140 }
  - { offsetInCU: 0x559, offset: 0xB006A, size: 0x8, addend: 0x0, symName: '__ZN58_$LT$alloc..string..String$u20$as$u20$core..fmt..Write$GT$9write_str17h46a93205c3443fbaE.llvm.2832678416731729236', symObjAddr: 0x270, symBinAddr: 0x23880, symSize: 0x5B }
  - { offsetInCU: 0xCD1, offset: 0xB07E2, size: 0x8, addend: 0x0, symName: '__ZN4core3ptr42drop_in_place$LT$alloc..string..String$GT$17hb7522b94eb0a37d9E.llvm.2832678416731729236', symObjAddr: 0xF0, symBinAddr: 0x23700, symSize: 0x20 }
  - { offsetInCU: 0xF61, offset: 0xB0A72, size: 0x8, addend: 0x0, symName: '__ZN53_$LT$core..fmt..Error$u20$as$u20$core..fmt..Debug$GT$3fmt17h03dc662ab152f3aeE.llvm.2832678416731729236', symObjAddr: 0x110, symBinAddr: 0x23720, symSize: 0x20 }
  - { offsetInCU: 0x12F4, offset: 0xB0E05, size: 0x8, addend: 0x0, symName: _anon.0248e693eb6b242f4d65dc6af5f888e7.4.llvm.2832678416731729236, symObjAddr: 0x348, symBinAddr: 0x2DC3E8, symSize: 0x0 }
  - { offsetInCU: 0x164B, offset: 0xB115C, size: 0x8, addend: 0x0, symName: __ZN3syn5error5Error3new17hc1305936786c7184E, symObjAddr: 0x0, symBinAddr: 0x23610, symSize: 0xF0 }
  - { offsetInCU: 0x1E, offset: 0xB19B2, size: 0x8, addend: 0x0, symName: '__ZN4core3ptr73drop_in_place$LT$core..cell..UnsafeCell$LT$syn..parse..Unexpected$GT$$GT$17h9bcecfec9c605736E.llvm.12149089448083049137', symObjAddr: 0x0, symBinAddr: 0x238E0, symSize: 0x50 }
  - { offsetInCU: 0xB5F, offset: 0xB24F3, size: 0x8, addend: 0x0, symName: '__ZN4core3ptr73drop_in_place$LT$core..cell..UnsafeCell$LT$syn..parse..Unexpected$GT$$GT$17h9bcecfec9c605736E.llvm.12149089448083049137', symObjAddr: 0x0, symBinAddr: 0x238E0, symSize: 0x50 }
  - { offsetInCU: 0x1468, offset: 0xB2DFC, size: 0x8, addend: 0x0, symName: '__ZN68_$LT$alloc..rc..Rc$LT$T$C$A$GT$$u20$as$u20$core..ops..drop..Drop$GT$4drop17h20bda4c577a3ce2fE', symObjAddr: 0x50, symBinAddr: 0x23930, symSize: 0x40 }
  - { offsetInCU: 0x16DC, offset: 0xB3070, size: 0x8, addend: 0x0, symName: '__ZN68_$LT$alloc..rc..Rc$LT$T$C$A$GT$$u20$as$u20$core..ops..drop..Drop$GT$4drop17h971687fa0da73f7fE', symObjAddr: 0x90, symBinAddr: 0x23970, symSize: 0xDE }
  - { offsetInCU: 0x1E, offset: 0xB3F09, size: 0x8, addend: 0x0, symName: '__ZN10proc_macro6bridge104_$LT$impl$u20$proc_macro..bridge..rpc..Encode$LT$S$GT$$u20$for$u20$core..result..Result$LT$T$C$E$GT$$GT$6encode17h7d371928e60dfbd6E', symObjAddr: 0x0, symBinAddr: 0x23A50, symSize: 0x300 }
  - { offsetInCU: 0x148, offset: 0xB4033, size: 0x8, addend: 0x0, symName: '__ZN10proc_macro6bridge104_$LT$impl$u20$proc_macro..bridge..rpc..Encode$LT$S$GT$$u20$for$u20$core..result..Result$LT$T$C$E$GT$$GT$6encode17h7d371928e60dfbd6E', symObjAddr: 0x0, symBinAddr: 0x23A50, symSize: 0x300 }
  - { offsetInCU: 0x5E3, offset: 0xB44CE, size: 0x8, addend: 0x0, symName: '__ZN10proc_macro6bridge104_$LT$impl$u20$proc_macro..bridge..rpc..Encode$LT$S$GT$$u20$for$u20$core..result..Result$LT$T$C$E$GT$$GT$6encode17he8cf44e1544d5584E', symObjAddr: 0x300, symBinAddr: 0x23D50, symSize: 0x280 }
  - { offsetInCU: 0x1E, offset: 0xB5188, size: 0x8, addend: 0x0, symName: '__ZN10proc_macro6bridge100_$LT$impl$u20$proc_macro..bridge..rpc..Encode$LT$S$GT$$u20$for$u20$core..option..Option$LT$T$GT$$GT$6encode17h4158973794c874feE', symObjAddr: 0x0, symBinAddr: 0x23FD0, symSize: 0x350 }
  - { offsetInCU: 0x15E, offset: 0xB52C8, size: 0x8, addend: 0x0, symName: '__ZN10proc_macro6bridge100_$LT$impl$u20$proc_macro..bridge..rpc..Encode$LT$S$GT$$u20$for$u20$core..option..Option$LT$T$GT$$GT$6encode17h4158973794c874feE', symObjAddr: 0x0, symBinAddr: 0x23FD0, symSize: 0x350 }
  - { offsetInCU: 0x703, offset: 0xB586D, size: 0x8, addend: 0x0, symName: '__ZN10proc_macro6bridge100_$LT$impl$u20$proc_macro..bridge..rpc..Encode$LT$S$GT$$u20$for$u20$core..option..Option$LT$T$GT$$GT$6encode17ha9b76466ba33851bE', symObjAddr: 0x350, symBinAddr: 0x24320, symSize: 0x23C }
  - { offsetInCU: 0x1E, offset: 0xB624F, size: 0x8, addend: 0x0, symName: __ZN10proc_macro6bridge14selfless_reify31reify_to_extern_c_fn_hrt_bridge7wrapper17h27aa9767192ec7e4E, symObjAddr: 0x0, symBinAddr: 0x24560, symSize: 0x30 }
  - { offsetInCU: 0x215, offset: 0xB6446, size: 0x8, addend: 0x0, symName: __ZN10proc_macro6bridge14selfless_reify31reify_to_extern_c_fn_hrt_bridge7wrapper17h27aa9767192ec7e4E, symObjAddr: 0x0, symBinAddr: 0x24560, symSize: 0x30 }
  - { offsetInCU: 0x28D, offset: 0xB64BE, size: 0x8, addend: 0x0, symName: __ZN10proc_macro6bridge14selfless_reify31reify_to_extern_c_fn_hrt_bridge7wrapper17hc91bdc5e7e5bbbe5E, symObjAddr: 0x30, symBinAddr: 0x24590, symSize: 0x30 }
  - { offsetInCU: 0x305, offset: 0xB6536, size: 0x8, addend: 0x0, symName: __ZN10proc_macro6bridge14selfless_reify31reify_to_extern_c_fn_hrt_bridge7wrapper17hfc83dbe04ed0d136E, symObjAddr: 0x60, symBinAddr: 0x245C0, symSize: 0x25 }
  - { offsetInCU: 0x1E, offset: 0xB678B, size: 0x8, addend: 0x0, symName: '__ZN77_$LT$$LP$A$C$B$RP$$u20$as$u20$proc_macro..bridge..rpc..DecodeMut$LT$S$GT$$GT$6decode17h3dba3965c8b446dbE', symObjAddr: 0x0, symBinAddr: 0x245F0, symSize: 0xCA }
  - { offsetInCU: 0xB4, offset: 0xB6821, size: 0x8, addend: 0x0, symName: '__ZN77_$LT$$LP$A$C$B$RP$$u20$as$u20$proc_macro..bridge..rpc..DecodeMut$LT$S$GT$$GT$6decode17h3dba3965c8b446dbE', symObjAddr: 0x0, symBinAddr: 0x245F0, symSize: 0xCA }
  - { offsetInCU: 0x1E, offset: 0xB7A8F, size: 0x8, addend: 0x0, symName: '__ZN4core3ptr100drop_in_place$LT$core..option..Option$LT$alloc..boxed..Box$LT$syn..generics..LifetimeDef$GT$$GT$$GT$17h7210dd36d261d461E', symObjAddr: 0x0, symBinAddr: 0x24700, symSize: 0x50 }
  - { offsetInCU: 0xA8, offset: 0xB7B19, size: 0x8, addend: 0x0, symName: '__ZN58_$LT$alloc..string..String$u20$as$u20$core..fmt..Write$GT$10write_char17h04bc467bd68a934bE', symObjAddr: 0x6E90, symBinAddr: 0x2B590, symSize: 0x140 }
  - { offsetInCU: 0x4AD, offset: 0xB7F1E, size: 0x8, addend: 0x0, symName: '__ZN58_$LT$alloc..string..String$u20$as$u20$core..fmt..Write$GT$9write_str17h46a93205c3443fbaE', symObjAddr: 0x6FD0, symBinAddr: 0x2B6D0, symSize: 0x60 }
  - { offsetInCU: 0x764, offset: 0xB81D5, size: 0x8, addend: 0x0, symName: '__ZN60_$LT$alloc..string..String$u20$as$u20$core..fmt..Display$GT$3fmt17h0d0eb46f3054e2dfE', symObjAddr: 0x7030, symBinAddr: 0x2B730, symSize: 0x20 }
  - { offsetInCU: 0x3E57, offset: 0xBB8C8, size: 0x8, addend: 0x0, symName: '__ZN4core3ptr100drop_in_place$LT$core..option..Option$LT$alloc..boxed..Box$LT$syn..generics..LifetimeDef$GT$$GT$$GT$17h7210dd36d261d461E', symObjAddr: 0x0, symBinAddr: 0x24700, symSize: 0x50 }
  - { offsetInCU: 0x3FD9, offset: 0xBBA4A, size: 0x8, addend: 0x0, symName: '__ZN4core3ptr100drop_in_place$LT$core..option..Option$LT$alloc..boxed..Box$LT$syn..path..GenericArgument$GT$$GT$$GT$17ha8d3d1c957e955fdE', symObjAddr: 0x50, symBinAddr: 0x24750, symSize: 0x50 }
  - { offsetInCU: 0x42BD, offset: 0xBBD2E, size: 0x8, addend: 0x0, symName: '__ZN4core3ptr101drop_in_place$LT$core..option..Option$LT$alloc..boxed..Box$LT$syn..generics..GenericParam$GT$$GT$$GT$17h01a18352b7885270E', symObjAddr: 0xA0, symBinAddr: 0x247A0, symSize: 0x2B0 }
  - { offsetInCU: 0x4CA2, offset: 0xBC713, size: 0x8, addend: 0x0, symName: '__ZN4core3ptr103drop_in_place$LT$core..option..Option$LT$alloc..boxed..Box$LT$syn..generics..WherePredicate$GT$$GT$$GT$17h0bfc553a5731ae2dE', symObjAddr: 0x350, symBinAddr: 0x24A50, symSize: 0x120 }
  - { offsetInCU: 0x50B4, offset: 0xBCB25, size: 0x8, addend: 0x0, symName: '__ZN4core3ptr103drop_in_place$LT$syn..punctuated..Punctuated$LT$syn..generics..TypeParamBound$C$syn..token..Add$GT$$GT$17hd085404135892585E', symObjAddr: 0x470, symBinAddr: 0x24B70, symSize: 0x230 }
  - { offsetInCU: 0x5AB8, offset: 0xBD529, size: 0x8, addend: 0x0, symName: '__ZN4core3ptr108drop_in_place$LT$syn..punctuated..Punctuated$LT$syn..expr..GenericMethodArgument$C$syn..token..Comma$GT$$GT$17h22f960247d7ccab1E', symObjAddr: 0x6A0, symBinAddr: 0x24DA0, symSize: 0x150 }
  - { offsetInCU: 0x6011, offset: 0xBDA82, size: 0x8, addend: 0x0, symName: '__ZN4core3ptr34drop_in_place$LT$syn..lit..Lit$GT$17h470f6c6d24056c53E', symObjAddr: 0x7F0, symBinAddr: 0x24EF0, symSize: 0x110 }
  - { offsetInCU: 0x6483, offset: 0xBDEF4, size: 0x8, addend: 0x0, symName: '__ZN4core3ptr34drop_in_place$LT$syn..pat..Pat$GT$17h38343a1049e28dd1E', symObjAddr: 0x900, symBinAddr: 0x25000, symSize: 0xED0 }
  - { offsetInCU: 0x9CA5, offset: 0xC1716, size: 0x8, addend: 0x0, symName: '__ZN4core3ptr34drop_in_place$LT$syn..ty..Type$GT$17h71c81d99bbba9d28E', symObjAddr: 0x17D0, symBinAddr: 0x25ED0, symSize: 0x5E0 }
  - { offsetInCU: 0xB93C, offset: 0xC33AD, size: 0x8, addend: 0x0, symName: '__ZN4core3ptr36drop_in_place$LT$syn..expr..Expr$GT$17h8f71e2ca846afb7cE', symObjAddr: 0x1DB0, symBinAddr: 0x264B0, symSize: 0x2990 }
  - { offsetInCU: 0x15510, offset: 0xCCF81, size: 0x8, addend: 0x0, symName: '__ZN4core3ptr36drop_in_place$LT$syn..mac..Macro$GT$17he383515a0d00696cE', symObjAddr: 0x4740, symBinAddr: 0x28E40, symSize: 0x110 }
  - { offsetInCU: 0x15A29, offset: 0xCD49A, size: 0x8, addend: 0x0, symName: '__ZN4core3ptr36drop_in_place$LT$syn..path..Path$GT$17h16c1a1fb63164ca5E', symObjAddr: 0x4850, symBinAddr: 0x28F50, symSize: 0x260 }
  - { offsetInCU: 0x164D2, offset: 0xCDF43, size: 0x8, addend: 0x0, symName: '__ZN4core3ptr37drop_in_place$LT$syn..stmt..Block$GT$17ha02f694d20e8a90dE', symObjAddr: 0x4AB0, symBinAddr: 0x291B0, symSize: 0xD0 }
  - { offsetInCU: 0x16844, offset: 0xCE2B5, size: 0x8, addend: 0x0, symName: '__ZN4core3ptr38drop_in_place$LT$syn..data..Fields$GT$17he9e3c8bfbeb41ca4E', symObjAddr: 0x4B80, symBinAddr: 0x29280, symSize: 0x180 }
  - { offsetInCU: 0x16C8A, offset: 0xCE6FB, size: 0x8, addend: 0x0, symName: '__ZN4core3ptr38drop_in_place$LT$syn..expr..Member$GT$17hc7f3be6f8af0b2b4E', symObjAddr: 0x4D00, symBinAddr: 0x29400, symSize: 0x30 }
  - { offsetInCU: 0x16D86, offset: 0xCE7F7, size: 0x8, addend: 0x0, symName: '__ZN4core3ptr39drop_in_place$LT$proc_macro2..Ident$GT$17h4e4f59a2c1c84fafE', symObjAddr: 0x4D30, symBinAddr: 0x29430, symSize: 0x30 }
  - { offsetInCU: 0x16E63, offset: 0xCE8D4, size: 0x8, addend: 0x0, symName: '__ZN4core3ptr39drop_in_place$LT$syn..pat..PatTuple$GT$17hafa76b97343faa4aE', symObjAddr: 0x4D60, symBinAddr: 0x29460, symSize: 0xE0 }
  - { offsetInCU: 0x17134, offset: 0xCEBA5, size: 0x8, addend: 0x0, symName: '__ZN4core3ptr40drop_in_place$LT$syn..ty..ReturnType$GT$17hc0c6d2453c4b8a9cE', symObjAddr: 0x4E40, symBinAddr: 0x29540, symSize: 0x50 }
  - { offsetInCU: 0x172A4, offset: 0xCED15, size: 0x8, addend: 0x0, symName: '__ZN4core3ptr41drop_in_place$LT$syn..attr..Attribute$GT$17had98bc1fe26a9c7eE', symObjAddr: 0x4E90, symBinAddr: 0x29590, symSize: 0x40 }
  - { offsetInCU: 0x172C1, offset: 0xCED32, size: 0x8, addend: 0x0, symName: '__ZN4core3ptr42drop_in_place$LT$alloc..string..String$GT$17h59e37df313d5e7a5E', symObjAddr: 0x4ED0, symBinAddr: 0x295D0, symSize: 0x20 }
  - { offsetInCU: 0x17407, offset: 0xCEE78, size: 0x8, addend: 0x0, symName: '__ZN4core3ptr42drop_in_place$LT$syn..data..Visibility$GT$17hfb89fc568cb05ad0E', symObjAddr: 0x4EF0, symBinAddr: 0x295F0, symSize: 0x60 }
  - { offsetInCU: 0x17597, offset: 0xCF008, size: 0x8, addend: 0x0, symName: '__ZN4core3ptr42drop_in_place$LT$syn..item..ItemStruct$GT$17h8c33cc29c40acf7bE', symObjAddr: 0x4F50, symBinAddr: 0x29650, symSize: 0x170 }
  - { offsetInCU: 0x17B23, offset: 0xCF594, size: 0x8, addend: 0x0, symName: '__ZN4core3ptr44drop_in_place$LT$syn..generics..Generics$GT$17h4699186c9cc25c31E', symObjAddr: 0x50C0, symBinAddr: 0x297C0, symSize: 0xA0 }
  - { offsetInCU: 0x17D8F, offset: 0xCF800, size: 0x8, addend: 0x0, symName: '__ZN4core3ptr44drop_in_place$LT$syn..lifetime..Lifetime$GT$17h248f852b3e174177E', symObjAddr: 0x5160, symBinAddr: 0x29860, symSize: 0x30 }
  - { offsetInCU: 0x17FC1, offset: 0xCFA32, size: 0x8, addend: 0x0, symName: '__ZN4core3ptr45drop_in_place$LT$proc_macro2..TokenStream$GT$17hb669a1876059cbcaE', symObjAddr: 0x5190, symBinAddr: 0x29890, symSize: 0x140 }
  - { offsetInCU: 0x1840A, offset: 0xCFE7B, size: 0x8, addend: 0x0, symName: '__ZN4core3ptr45drop_in_place$LT$syn..data..FieldsUnnamed$GT$17ha8fa9439ef7c5d07E', symObjAddr: 0x52D0, symBinAddr: 0x299D0, symSize: 0xE0 }
  - { offsetInCU: 0x1872C, offset: 0xD019D, size: 0x8, addend: 0x0, symName: '__ZN4core3ptr47drop_in_place$LT$syn..generics..LifetimeDef$GT$17hbaffa39298e15f8cE', symObjAddr: 0x53B0, symBinAddr: 0x29AB0, symSize: 0xF0 }
  - { offsetInCU: 0x18B4F, offset: 0xD05C0, size: 0x8, addend: 0x0, symName: '__ZN4core3ptr47drop_in_place$LT$syn..path..GenericArgument$GT$17h2cef37900cc98e0bE', symObjAddr: 0x54A0, symBinAddr: 0x29BA0, symSize: 0x110 }
  - { offsetInCU: 0x18E7D, offset: 0xD08EE, size: 0x8, addend: 0x0, symName: '__ZN4core3ptr58drop_in_place$LT$alloc..vec..Vec$LT$syn..expr..Arm$GT$$GT$17h2debc58bdfc8eaf4E', symObjAddr: 0x55B0, symBinAddr: 0x29CB0, symSize: 0xD0 }
  - { offsetInCU: 0x1913D, offset: 0xD0BAE, size: 0x8, addend: 0x0, symName: '__ZN4core3ptr59drop_in_place$LT$alloc..boxed..Box$LT$syn..pat..Pat$GT$$GT$17h0e6545e79fcf3f63E', symObjAddr: 0x5680, symBinAddr: 0x29D80, symSize: 0x50 }
  - { offsetInCU: 0x19296, offset: 0xD0D07, size: 0x8, addend: 0x0, symName: '__ZN4core3ptr59drop_in_place$LT$alloc..boxed..Box$LT$syn..ty..Type$GT$$GT$17hb893d541d08e2c14E', symObjAddr: 0x56D0, symBinAddr: 0x29DD0, symSize: 0x50 }
  - { offsetInCU: 0x193EF, offset: 0xD0E60, size: 0x8, addend: 0x0, symName: '__ZN4core3ptr61drop_in_place$LT$alloc..boxed..Box$LT$syn..expr..Expr$GT$$GT$17hc3bc773a9b5b0963E', symObjAddr: 0x5720, symBinAddr: 0x29E20, symSize: 0x50 }
  - { offsetInCU: 0x19548, offset: 0xD0FB9, size: 0x8, addend: 0x0, symName: '__ZN4core3ptr61drop_in_place$LT$syn..path..ParenthesizedGenericArguments$GT$17h67c96b4a00cd3423E', symObjAddr: 0x5770, symBinAddr: 0x29E70, symSize: 0x170 }
  - { offsetInCU: 0x19B51, offset: 0xD15C2, size: 0x8, addend: 0x0, symName: '__ZN4core3ptr63drop_in_place$LT$alloc..boxed..Box$LT$syn..lit..LitRepr$GT$$GT$17hb863103fb34ab3c9E', symObjAddr: 0x58E0, symBinAddr: 0x29FE0, symSize: 0x60 }
  - { offsetInCU: 0x19E58, offset: 0xD18C9, size: 0x8, addend: 0x0, symName: '__ZN4core3ptr64drop_in_place$LT$alloc..boxed..Box$LT$syn..pat..FieldPat$GT$$GT$17hc28bd15de5996666E', symObjAddr: 0x5940, symBinAddr: 0x2A040, symSize: 0x140 }
  - { offsetInCU: 0x1A527, offset: 0xD1F98, size: 0x8, addend: 0x0, symName: '__ZN4core3ptr64drop_in_place$LT$alloc..boxed..Box$LT$syn..ty..BareFnArg$GT$$GT$17h12ccd287b0a3aa0cE', symObjAddr: 0x5A80, symBinAddr: 0x2A180, symSize: 0x120 }
  - { offsetInCU: 0x1AA6F, offset: 0xD24E0, size: 0x8, addend: 0x0, symName: '__ZN4core3ptr64drop_in_place$LT$alloc..vec..Vec$LT$syn..attr..Attribute$GT$$GT$17h0cbf276760eeb272E', symObjAddr: 0x5BA0, symBinAddr: 0x2A2A0, symSize: 0xD0 }
  - { offsetInCU: 0x1AD31, offset: 0xD27A2, size: 0x8, addend: 0x0, symName: '__ZN4core3ptr65drop_in_place$LT$alloc..vec..Vec$LT$proc_macro..TokenTree$GT$$GT$17hb190bfae5092fefbE', symObjAddr: 0x5C70, symBinAddr: 0x2A370, symSize: 0x110 }
  - { offsetInCU: 0x1B129, offset: 0xD2B9A, size: 0x8, addend: 0x0, symName: '__ZN4core3ptr65drop_in_place$LT$core..option..Option$LT$syn..expr..Label$GT$$GT$17h602866846eca55bfE', symObjAddr: 0x5D80, symBinAddr: 0x2A480, symSize: 0x30 }
  - { offsetInCU: 0x1B263, offset: 0xD2CD4, size: 0x8, addend: 0x0, symName: '__ZN4core3ptr66drop_in_place$LT$core..option..Option$LT$syn..ty..Variadic$GT$$GT$17hc2cf14495d5108c0E', symObjAddr: 0x5DB0, symBinAddr: 0x2A4B0, symSize: 0xD0 }
  - { offsetInCU: 0x1B559, offset: 0xD2FCA, size: 0x8, addend: 0x0, symName: '__ZN4core3ptr67drop_in_place$LT$alloc..boxed..Box$LT$syn..expr..FieldValue$GT$$GT$17hffe2f6a0705c992bE', symObjAddr: 0x5E80, symBinAddr: 0x2A580, symSize: 0x120 }
  - { offsetInCU: 0x1BAA0, offset: 0xD3511, size: 0x8, addend: 0x0, symName: '__ZN4core3ptr68drop_in_place$LT$alloc..vec..Vec$LT$proc_macro2..TokenStream$GT$$GT$17h4d22724d00081f9eE', symObjAddr: 0x5FA0, symBinAddr: 0x2A6A0, symSize: 0xC0 }
  - { offsetInCU: 0x1BD5E, offset: 0xD37CF, size: 0x8, addend: 0x0, symName: '__ZN4core3ptr72drop_in_place$LT$core..option..Option$LT$syn..lifetime..Lifetime$GT$$GT$17h65381fc2401cfd7cE', symObjAddr: 0x6060, symBinAddr: 0x2A760, symSize: 0x30 }
  - { offsetInCU: 0x1BE79, offset: 0xD38EA, size: 0x8, addend: 0x0, symName: '__ZN4core3ptr75drop_in_place$LT$alloc..boxed..Box$LT$syn..generics..TypeParamBound$GT$$GT$17h69b9a1111abdff16E', symObjAddr: 0x6090, symBinAddr: 0x2A790, symSize: 0x170 }
  - { offsetInCU: 0x1C563, offset: 0xD3FD4, size: 0x8, addend: 0x0, symName: '__ZN4core3ptr75drop_in_place$LT$core..option..Option$LT$syn..generics..WhereClause$GT$$GT$17h926ff6877350e79aE', symObjAddr: 0x6200, symBinAddr: 0x2A900, symSize: 0xF0 }
  - { offsetInCU: 0x1C885, offset: 0xD42F6, size: 0x8, addend: 0x0, symName: '__ZN4core3ptr78drop_in_place$LT$alloc..boxed..Box$LT$syn..expr..GenericMethodArgument$GT$$GT$17h267fcbf26fe99c2dE', symObjAddr: 0x62F0, symBinAddr: 0x2A9F0, symSize: 0x60 }
  - { offsetInCU: 0x1CA96, offset: 0xD4507, size: 0x8, addend: 0x0, symName: '__ZN4core3ptr78drop_in_place$LT$core..option..Option$LT$syn..generics..BoundLifetimes$GT$$GT$17hbab9ed1255212575E', symObjAddr: 0x6350, symBinAddr: 0x2AA50, symSize: 0xC0 }
  - { offsetInCU: 0x1CECC, offset: 0xD493D, size: 0x8, addend: 0x0, symName: '__ZN4core3ptr86drop_in_place$LT$syn..punctuated..Punctuated$LT$syn..pat..Pat$C$syn..token..Or$GT$$GT$17hef1dcce6dc9b3a22E', symObjAddr: 0x6410, symBinAddr: 0x2AB10, symSize: 0x120 }
  - { offsetInCU: 0x1D347, offset: 0xD4DB8, size: 0x8, addend: 0x0, symName: '__ZN4core3ptr87drop_in_place$LT$core..option..Option$LT$alloc..boxed..Box$LT$syn..pat..Pat$GT$$GT$$GT$17h0095d4d05d93e156E', symObjAddr: 0x6530, symBinAddr: 0x2AC30, symSize: 0x50 }
  - { offsetInCU: 0x1D4B7, offset: 0xD4F28, size: 0x8, addend: 0x0, symName: '__ZN4core3ptr87drop_in_place$LT$core..option..Option$LT$alloc..boxed..Box$LT$syn..ty..Type$GT$$GT$$GT$17h18d60ed91c1fd122E', symObjAddr: 0x6580, symBinAddr: 0x2AC80, symSize: 0x50 }
  - { offsetInCU: 0x1D627, offset: 0xD5098, size: 0x8, addend: 0x0, symName: '__ZN4core3ptr89drop_in_place$LT$core..option..Option$LT$alloc..boxed..Box$LT$syn..expr..Expr$GT$$GT$$GT$17he6a7099d3c692d2cE', symObjAddr: 0x65D0, symBinAddr: 0x2ACD0, symSize: 0x50 }
  - { offsetInCU: 0x1D7D5, offset: 0xD5246, size: 0x8, addend: 0x0, symName: '__ZN4core3ptr89drop_in_place$LT$syn..punctuated..Punctuated$LT$syn..pat..Pat$C$syn..token..Comma$GT$$GT$17hd48fd64161b95ff4E', symObjAddr: 0x6620, symBinAddr: 0x2AD20, symSize: 0x120 }
  - { offsetInCU: 0x1DCC4, offset: 0xD5735, size: 0x8, addend: 0x0, symName: '__ZN4core3ptr90drop_in_place$LT$core..option..Option$LT$alloc..boxed..Box$LT$syn..data..Field$GT$$GT$$GT$17ha0137231f5828934E', symObjAddr: 0x6740, symBinAddr: 0x2AE40, symSize: 0x1B0 }
  - { offsetInCU: 0x1E394, offset: 0xD5E05, size: 0x8, addend: 0x0, symName: '__ZN4core3ptr91drop_in_place$LT$syn..punctuated..Punctuated$LT$syn..expr..Expr$C$syn..token..Comma$GT$$GT$17h93a748fba78cb228E', symObjAddr: 0x68F0, symBinAddr: 0x2AFF0, symSize: 0x120 }
  - { offsetInCU: 0x1E822, offset: 0xD6293, size: 0x8, addend: 0x0, symName: '__ZN4core3ptr94drop_in_place$LT$syn..punctuated..Punctuated$LT$syn..pat..FieldPat$C$syn..token..Comma$GT$$GT$17hec201a05602aaa8bE', symObjAddr: 0x6A10, symBinAddr: 0x2B110, symSize: 0xF0 }
  - { offsetInCU: 0x1EB21, offset: 0xD6592, size: 0x8, addend: 0x0, symName: '__ZN4core3ptr94drop_in_place$LT$syn..punctuated..Punctuated$LT$syn..ty..BareFnArg$C$syn..token..Comma$GT$$GT$17hc02f23e04f80dd73E', symObjAddr: 0x6B00, symBinAddr: 0x2B200, symSize: 0x90 }
  - { offsetInCU: 0x1ED91, offset: 0xD6802, size: 0x8, addend: 0x0, symName: '__ZN4core3ptr96drop_in_place$LT$core..option..Option$LT$alloc..boxed..Box$LT$syn..path..PathSegment$GT$$GT$$GT$17hf82b8699da43204eE', symObjAddr: 0x6B90, symBinAddr: 0x2B290, symSize: 0x180 }
  - { offsetInCU: 0x1F44E, offset: 0xD6EBF, size: 0x8, addend: 0x0, symName: '__ZN4core3ptr97drop_in_place$LT$syn..punctuated..Punctuated$LT$syn..expr..FieldValue$C$syn..token..Comma$GT$$GT$17h133f4bc64ab84a52E', symObjAddr: 0x6D10, symBinAddr: 0x2B410, symSize: 0x90 }
  - { offsetInCU: 0x1F73A, offset: 0xD71AB, size: 0x8, addend: 0x0, symName: '__ZN4core3ptr97drop_in_place$LT$syn..punctuated..Punctuated$LT$syn..lifetime..Lifetime$C$syn..token..Add$GT$$GT$17he99654eb9e8fcd80E', symObjAddr: 0x6DA0, symBinAddr: 0x2B4A0, symSize: 0xD0 }
  - { offsetInCU: 0x2035C, offset: 0xD7DCD, size: 0x8, addend: 0x0, symName: '__ZN53_$LT$core..fmt..Error$u20$as$u20$core..fmt..Debug$GT$3fmt17h03dc662ab152f3aeE', symObjAddr: 0x6E70, symBinAddr: 0x2B570, symSize: 0x20 }
  - { offsetInCU: 0x29D89, offset: 0xE17FA, size: 0x8, addend: 0x0, symName: __ZN28borsh_schema_derive_internal11enum_schema12process_enum17h02400b136175aebaE, symObjAddr: 0x7050, symBinAddr: 0x2B750, symSize: 0x28CF }
  - { offsetInCU: 0x1E, offset: 0xE8482, size: 0x8, addend: 0x0, symName: '__ZN48_$LT$T$u20$as$u20$core..clone..CloneToUninit$GT$15clone_to_uninit17hdcb1177d70931765E', symObjAddr: 0x0, symBinAddr: 0x2E020, symSize: 0x330 }
  - { offsetInCU: 0x18BB, offset: 0xE9D1F, size: 0x8, addend: 0x0, symName: '__ZN4core3ptr100drop_in_place$LT$core..option..Option$LT$alloc..boxed..Box$LT$syn..generics..LifetimeDef$GT$$GT$$GT$17h7210dd36d261d461E', symObjAddr: 0x330, symBinAddr: 0x2E350, symSize: 0x50 }
  - { offsetInCU: 0x1A4A, offset: 0xE9EAE, size: 0x8, addend: 0x0, symName: '__ZN4core3ptr100drop_in_place$LT$core..option..Option$LT$alloc..boxed..Box$LT$syn..path..GenericArgument$GT$$GT$$GT$17ha8d3d1c957e955fdE', symObjAddr: 0x380, symBinAddr: 0x2E3A0, symSize: 0x50 }
  - { offsetInCU: 0x1BD9, offset: 0xEA03D, size: 0x8, addend: 0x0, symName: '__ZN4core3ptr101drop_in_place$LT$core..option..Option$LT$alloc..boxed..Box$LT$syn..generics..GenericParam$GT$$GT$$GT$17h01a18352b7885270E', symObjAddr: 0x3D0, symBinAddr: 0x2E3F0, symSize: 0x50 }
  - { offsetInCU: 0x1E9E, offset: 0xEA302, size: 0x8, addend: 0x0, symName: '__ZN4core3ptr102drop_in_place$LT$syn..punctuated..Punctuated$LT$syn..generics..LifetimeDef$C$syn..token..Comma$GT$$GT$17h8f1303218551e7c8E', symObjAddr: 0x420, symBinAddr: 0x2E440, symSize: 0x170 }
  - { offsetInCU: 0x2395, offset: 0xEA7F9, size: 0x8, addend: 0x0, symName: '__ZN4core3ptr102drop_in_place$LT$syn..punctuated..Punctuated$LT$syn..path..GenericArgument$C$syn..token..Comma$GT$$GT$17hb08c3b6e7f38f808E.llvm.1326340307709448866', symObjAddr: 0x590, symBinAddr: 0x2E5B0, symSize: 0xF0 }
  - { offsetInCU: 0x2734, offset: 0xEAB98, size: 0x8, addend: 0x0, symName: '__ZN4core3ptr103drop_in_place$LT$core..option..Option$LT$alloc..boxed..Box$LT$syn..generics..TypeParamBound$GT$$GT$$GT$17h14567dbc9473ea9eE', symObjAddr: 0x680, symBinAddr: 0x2E6A0, symSize: 0xA0 }
  - { offsetInCU: 0x2A23, offset: 0xEAE87, size: 0x8, addend: 0x0, symName: '__ZN4core3ptr103drop_in_place$LT$core..option..Option$LT$alloc..boxed..Box$LT$syn..generics..WherePredicate$GT$$GT$$GT$17h0bfc553a5731ae2dE', symObjAddr: 0x720, symBinAddr: 0x2E740, symSize: 0x50 }
  - { offsetInCU: 0x2C4D, offset: 0xEB0B1, size: 0x8, addend: 0x0, symName: '__ZN4core3ptr103drop_in_place$LT$syn..punctuated..Punctuated$LT$syn..generics..GenericParam$C$syn..token..Comma$GT$$GT$17h906e063ef907d2a0E', symObjAddr: 0x770, symBinAddr: 0x2E790, symSize: 0x170 }
  - { offsetInCU: 0x3222, offset: 0xEB686, size: 0x8, addend: 0x0, symName: '__ZN4core3ptr103drop_in_place$LT$syn..punctuated..Punctuated$LT$syn..generics..TypeParamBound$C$syn..token..Add$GT$$GT$17hd085404135892585E', symObjAddr: 0x8E0, symBinAddr: 0x2E900, symSize: 0x2E0 }
  - { offsetInCU: 0x4010, offset: 0xEC474, size: 0x8, addend: 0x0, symName: '__ZN4core3ptr105drop_in_place$LT$syn..punctuated..Punctuated$LT$syn..generics..WherePredicate$C$syn..token..Comma$GT$$GT$17ha51d2ee77bb1902dE', symObjAddr: 0xBC0, symBinAddr: 0x2EBE0, symSize: 0x1A0 }
  - { offsetInCU: 0x4686, offset: 0xECAEA, size: 0x8, addend: 0x0, symName: '__ZN4core3ptr108drop_in_place$LT$syn..punctuated..Punctuated$LT$syn..expr..GenericMethodArgument$C$syn..token..Comma$GT$$GT$17h22f960247d7ccab1E', symObjAddr: 0xD60, symBinAddr: 0x2ED80, symSize: 0x150 }
  - { offsetInCU: 0x4B6A, offset: 0xECFCE, size: 0x8, addend: 0x0, symName: '__ZN4core3ptr126drop_in_place$LT$core..option..Option$LT$$LP$syn..token..And$C$core..option..Option$LT$syn..lifetime..Lifetime$GT$$RP$$GT$$GT$17h71082fcf756ed497E', symObjAddr: 0xEB0, symBinAddr: 0x2EED0, symSize: 0x30 }
  - { offsetInCU: 0x4DF9, offset: 0xED25D, size: 0x8, addend: 0x0, symName: '__ZN4core3ptr33drop_in_place$LT$syn..ty..Abi$GT$17h4eed2910164cab8cE', symObjAddr: 0xEE0, symBinAddr: 0x2EF00, symSize: 0x70 }
  - { offsetInCU: 0x4E15, offset: 0xED279, size: 0x8, addend: 0x0, symName: '__ZN4core3ptr33drop_in_place$LT$syn..ty..Abi$GT$17h4eed2910164cab8cE', symObjAddr: 0xEE0, symBinAddr: 0x2EF00, symSize: 0x70 }
  - { offsetInCU: 0x50ED, offset: 0xED551, size: 0x8, addend: 0x0, symName: '__ZN4core3ptr34drop_in_place$LT$syn..lit..Lit$GT$17h470f6c6d24056c53E.llvm.1326340307709448866', symObjAddr: 0xF50, symBinAddr: 0x2EF70, symSize: 0x120 }
  - { offsetInCU: 0x550F, offset: 0xED973, size: 0x8, addend: 0x0, symName: '__ZN4core3ptr34drop_in_place$LT$syn..pat..Pat$GT$17h38343a1049e28dd1E.llvm.1326340307709448866', symObjAddr: 0x1070, symBinAddr: 0x2F090, symSize: 0x5C0 }
  - { offsetInCU: 0x62E6, offset: 0xEE74A, size: 0x8, addend: 0x0, symName: '__ZN4core3ptr34drop_in_place$LT$syn..ty..Type$GT$17h71c81d99bbba9d28E.llvm.1326340307709448866', symObjAddr: 0x1630, symBinAddr: 0x2F650, symSize: 0x410 }
  - { offsetInCU: 0x703F, offset: 0xEF4A3, size: 0x8, addend: 0x0, symName: '__ZN4core3ptr35drop_in_place$LT$syn..expr..Arm$GT$17he171c008415854efE.llvm.1326340307709448866', symObjAddr: 0x1A40, symBinAddr: 0x2FA60, symSize: 0x130 }
  - { offsetInCU: 0x7715, offset: 0xEFB79, size: 0x8, addend: 0x0, symName: '__ZN4core3ptr36drop_in_place$LT$syn..attr..Meta$GT$17h6ea3578394af1658E.llvm.1326340307709448866', symObjAddr: 0x1B70, symBinAddr: 0x2FB90, symSize: 0x1B0 }
  - { offsetInCU: 0x80FC, offset: 0xF0560, size: 0x8, addend: 0x0, symName: '__ZN4core3ptr36drop_in_place$LT$syn..expr..Expr$GT$17h8f71e2ca846afb7cE.llvm.1326340307709448866', symObjAddr: 0x1D20, symBinAddr: 0x2FD40, symSize: 0x1450 }
  - { offsetInCU: 0xB89B, offset: 0xF3CFF, size: 0x8, addend: 0x0, symName: '__ZN4core3ptr36drop_in_place$LT$syn..item..Item$GT$17h285edc636fbe7f63E.llvm.1326340307709448866', symObjAddr: 0x3170, symBinAddr: 0x31190, symSize: 0x10F0 }
  - { offsetInCU: 0xE882, offset: 0xF6CE6, size: 0x8, addend: 0x0, symName: '__ZN4core3ptr36drop_in_place$LT$syn..mac..Macro$GT$17he383515a0d00696cE', symObjAddr: 0x4260, symBinAddr: 0x32280, symSize: 0xE0 }
  - { offsetInCU: 0xEC28, offset: 0xF708C, size: 0x8, addend: 0x0, symName: '__ZN4core3ptr36drop_in_place$LT$syn..path..Path$GT$17h16c1a1fb63164ca5E.llvm.1326340307709448866', symObjAddr: 0x4340, symBinAddr: 0x32360, symSize: 0x160 }
  - { offsetInCU: 0xF1D0, offset: 0xF7634, size: 0x8, addend: 0x0, symName: '__ZN4core3ptr36drop_in_place$LT$syn..stmt..Stmt$GT$17h30d6a8fa9dc356d7E.llvm.1326340307709448866', symObjAddr: 0x44A0, symBinAddr: 0x324C0, symSize: 0xF0 }
  - { offsetInCU: 0xF3D2, offset: 0xF7836, size: 0x8, addend: 0x0, symName: '__ZN4core3ptr37drop_in_place$LT$syn..data..Field$GT$17h4f71da232da8b930E.llvm.1326340307709448866', symObjAddr: 0x4590, symBinAddr: 0x325B0, symSize: 0x140 }
  - { offsetInCU: 0xF97D, offset: 0xF7DE1, size: 0x8, addend: 0x0, symName: '__ZN4core3ptr37drop_in_place$LT$syn..item..FnArg$GT$17hc4c180e07bce971aE', symObjAddr: 0x46D0, symBinAddr: 0x326F0, symSize: 0x110 }
  - { offsetInCU: 0xFDBD, offset: 0xF8221, size: 0x8, addend: 0x0, symName: '__ZN4core3ptr37drop_in_place$LT$syn..stmt..Block$GT$17ha02f694d20e8a90dE', symObjAddr: 0x47E0, symBinAddr: 0x32800, symSize: 0xD0 }
  - { offsetInCU: 0x1009B, offset: 0xF84FF, size: 0x8, addend: 0x0, symName: '__ZN4core3ptr38drop_in_place$LT$syn..expr..Member$GT$17hc7f3be6f8af0b2b4E.llvm.1326340307709448866', symObjAddr: 0x48B0, symBinAddr: 0x328D0, symSize: 0x0 }
  - { offsetInCU: 0x10197, offset: 0xF85FB, size: 0x8, addend: 0x0, symName: '__ZN4core3ptr38drop_in_place$LT$syn..pat..PatType$GT$17h44ee21cfe7551cf7E', symObjAddr: 0x48E0, symBinAddr: 0x32900, symSize: 0x100 }
  - { offsetInCU: 0x10706, offset: 0xF8B6A, size: 0x8, addend: 0x0, symName: '__ZN4core3ptr38drop_in_place$LT$syn..ty..Variadic$GT$17h7c97cc22063a1208E', symObjAddr: 0x49E0, symBinAddr: 0x32A00, symSize: 0x80 }
  - { offsetInCU: 0x109D5, offset: 0xF8E39, size: 0x8, addend: 0x0, symName: '__ZN4core3ptr39drop_in_place$LT$proc_macro2..Ident$GT$17h4e4f59a2c1c84fafE.llvm.1326340307709448866', symObjAddr: 0x4A60, symBinAddr: 0x32A80, symSize: 0x30 }
  - { offsetInCU: 0x10B0F, offset: 0xF8F73, size: 0x8, addend: 0x0, symName: '__ZN4core3ptr39drop_in_place$LT$syn..data..Variant$GT$17h33c900939b57f36dE', symObjAddr: 0x4A90, symBinAddr: 0x32AB0, symSize: 0x2B0 }
  - { offsetInCU: 0x1175B, offset: 0xF9BBF, size: 0x8, addend: 0x0, symName: '__ZN4core3ptr39drop_in_place$LT$syn..item..UseTree$GT$17h9cb3616505724aa2E', symObjAddr: 0x4D40, symBinAddr: 0x32D60, symSize: 0x1F0 }
  - { offsetInCU: 0x11F33, offset: 0xFA397, size: 0x8, addend: 0x0, symName: '__ZN4core3ptr39drop_in_place$LT$syn..pat..PatTuple$GT$17hafa76b97343faa4aE', symObjAddr: 0x4F30, symBinAddr: 0x32F50, symSize: 0x180 }
  - { offsetInCU: 0x126AD, offset: 0xFAB11, size: 0x8, addend: 0x0, symName: '__ZN4core3ptr40drop_in_place$LT$syn..attr..MetaList$GT$17h376eb6910c96825dE.llvm.1326340307709448866', symObjAddr: 0x50B0, symBinAddr: 0x330D0, symSize: 0x1C0 }
  - { offsetInCU: 0x12B40, offset: 0xFAFA4, size: 0x8, addend: 0x0, symName: '__ZN4core3ptr40drop_in_place$LT$syn..item..ImplItem$GT$17h5e7af5f4b40d5053E', symObjAddr: 0x5270, symBinAddr: 0x33290, symSize: 0x1B0 }
  - { offsetInCU: 0x12EA8, offset: 0xFB30C, size: 0x8, addend: 0x0, symName: '__ZN4core3ptr40drop_in_place$LT$syn..ty..ReturnType$GT$17hc0c6d2453c4b8a9cE.llvm.1326340307709448866', symObjAddr: 0x5420, symBinAddr: 0x33440, symSize: 0x50 }
  - { offsetInCU: 0x13018, offset: 0xFB47C, size: 0x8, addend: 0x0, symName: '__ZN4core3ptr41drop_in_place$LT$syn..attr..Attribute$GT$17had98bc1fe26a9c7eE.llvm.1326340307709448866', symObjAddr: 0x5470, symBinAddr: 0x33490, symSize: 0x120 }
  - { offsetInCU: 0x13585, offset: 0xFB9E9, size: 0x8, addend: 0x0, symName: '__ZN4core3ptr41drop_in_place$LT$syn..item..Signature$GT$17h95d19dcf9e40a659E', symObjAddr: 0x5590, symBinAddr: 0x335B0, symSize: 0x2C0 }
  - { offsetInCU: 0x14370, offset: 0xFC7D4, size: 0x8, addend: 0x0, symName: '__ZN4core3ptr41drop_in_place$LT$syn..item..TraitItem$GT$17h790b66b225921891E', symObjAddr: 0x5850, symBinAddr: 0x33870, symSize: 0x2A0 }
  - { offsetInCU: 0x14B2B, offset: 0xFCF8F, size: 0x8, addend: 0x0, symName: '__ZN4core3ptr43drop_in_place$LT$proc_macro2..TokenTree$GT$17hce58c32617da2ca2E.llvm.1326340307709448866', symObjAddr: 0x5B80, symBinAddr: 0x33B10, symSize: 0x180 }
  - { offsetInCU: 0x15372, offset: 0xFD7D6, size: 0x8, addend: 0x0, symName: '__ZN4core3ptr43drop_in_place$LT$syn..data..FieldsNamed$GT$17h49524e7e39290221E', symObjAddr: 0x5D00, symBinAddr: 0x33C90, symSize: 0x120 }
  - { offsetInCU: 0x15851, offset: 0xFDCB5, size: 0x8, addend: 0x0, symName: '__ZN4core3ptr43drop_in_place$LT$syn..item..ForeignItem$GT$17hed87b12292f15fd8E', symObjAddr: 0x5E20, symBinAddr: 0x33DB0, symSize: 0x2B0 }
  - { offsetInCU: 0x15E1B, offset: 0xFE27F, size: 0x8, addend: 0x0, symName: '__ZN4core3ptr43drop_in_place$LT$syn..path..PathSegment$GT$17h432ad023a4f4131eE.llvm.1326340307709448866', symObjAddr: 0x60D0, symBinAddr: 0x34060, symSize: 0x170 }
  - { offsetInCU: 0x16415, offset: 0xFE879, size: 0x8, addend: 0x0, symName: '__ZN4core3ptr44drop_in_place$LT$syn..generics..Generics$GT$17h4699186c9cc25c31E', symObjAddr: 0x6240, symBinAddr: 0x341D0, symSize: 0x280 }
  - { offsetInCU: 0x16D50, offset: 0xFF1B4, size: 0x8, addend: 0x0, symName: '__ZN4core3ptr44drop_in_place$LT$syn..item..ImplItemType$GT$17hf0abdef154bc4e71E', symObjAddr: 0x64C0, symBinAddr: 0x34450, symSize: 0x180 }
  - { offsetInCU: 0x1731E, offset: 0xFF782, size: 0x8, addend: 0x0, symName: '__ZN4core3ptr44drop_in_place$LT$syn..lifetime..Lifetime$GT$17h248f852b3e174177E.llvm.1326340307709448866', symObjAddr: 0x6640, symBinAddr: 0x345D0, symSize: 0x30 }
  - { offsetInCU: 0x17477, offset: 0xFF8DB, size: 0x8, addend: 0x0, symName: '__ZN4core3ptr45drop_in_place$LT$proc_macro2..TokenStream$GT$17hb669a1876059cbcaE.llvm.1326340307709448866', symObjAddr: 0x6670, symBinAddr: 0x34600, symSize: 0x70 }
  - { offsetInCU: 0x175BF, offset: 0xFFA23, size: 0x8, addend: 0x0, symName: '__ZN4core3ptr45drop_in_place$LT$syn..data..VisRestricted$GT$17hb6f811ef5f24f08cE.llvm.1326340307709448866', symObjAddr: 0x66E0, symBinAddr: 0x34670, symSize: 0x50 }
  - { offsetInCU: 0x17794, offset: 0xFFBF8, size: 0x8, addend: 0x0, symName: '__ZN4core3ptr45drop_in_place$LT$syn..generics..TypeParam$GT$17h0dd5f4c15bf5cdbeE.llvm.1326340307709448866', symObjAddr: 0x6730, symBinAddr: 0x346C0, symSize: 0x210 }
  - { offsetInCU: 0x18103, offset: 0x100567, size: 0x8, addend: 0x0, symName: '__ZN4core3ptr45drop_in_place$LT$syn..item..ImplItemConst$GT$17h9bea20f420f73bc6E', symObjAddr: 0x6940, symBinAddr: 0x348D0, symSize: 0x150 }
  - { offsetInCU: 0x1868E, offset: 0x100AF2, size: 0x8, addend: 0x0, symName: '__ZN4core3ptr45drop_in_place$LT$syn..item..TraitItemType$GT$17h5f90d6b980634765E', symObjAddr: 0x6A90, symBinAddr: 0x34A20, symSize: 0x230 }
  - { offsetInCU: 0x190C5, offset: 0x101529, size: 0x8, addend: 0x0, symName: '__ZN4core3ptr45drop_in_place$LT$syn..path..PathArguments$GT$17h11b4d14cc62d22e9E.llvm.1326340307709448866', symObjAddr: 0x6CC0, symBinAddr: 0x34C50, symSize: 0xA0 }
  - { offsetInCU: 0x19296, offset: 0x1016FA, size: 0x8, addend: 0x0, symName: '__ZN4core3ptr46drop_in_place$LT$syn..generics..ConstParam$GT$17h3da7d14f923d93bfE.llvm.1326340307709448866', symObjAddr: 0x6D60, symBinAddr: 0x34CF0, symSize: 0x150 }
  - { offsetInCU: 0x19680, offset: 0x101AE4, size: 0x8, addend: 0x0, symName: '__ZN4core3ptr46drop_in_place$LT$syn..item..ImplItemMethod$GT$17h680fd27f9f5f5a68E', symObjAddr: 0x6EB0, symBinAddr: 0x34E40, symSize: 0x1E0 }
  - { offsetInCU: 0x19DE5, offset: 0x102249, size: 0x8, addend: 0x0, symName: '__ZN4core3ptr46drop_in_place$LT$syn..item..TraitItemConst$GT$17h41813e29d0815af9E', symObjAddr: 0x7090, symBinAddr: 0x35020, symSize: 0x110 }
  - { offsetInCU: 0x1A200, offset: 0x102664, size: 0x8, addend: 0x0, symName: '__ZN4core3ptr47drop_in_place$LT$syn..generics..LifetimeDef$GT$17hbaffa39298e15f8cE.llvm.1326340307709448866', symObjAddr: 0x71A0, symBinAddr: 0x35130, symSize: 0xB0 }
  - { offsetInCU: 0x1A5C8, offset: 0x102A2C, size: 0x8, addend: 0x0, symName: '__ZN4core3ptr47drop_in_place$LT$syn..generics..WhereClause$GT$17h8aaeca3ef8c617d2E', symObjAddr: 0x7250, symBinAddr: 0x351E0, symSize: 0x120 }
  - { offsetInCU: 0x1AA88, offset: 0x102EEC, size: 0x8, addend: 0x0, symName: '__ZN4core3ptr47drop_in_place$LT$syn..path..GenericArgument$GT$17h2cef37900cc98e0bE', symObjAddr: 0x7370, symBinAddr: 0x35300, symSize: 0x110 }
  - { offsetInCU: 0x1ADA3, offset: 0x103207, size: 0x8, addend: 0x0, symName: '__ZN4core3ptr48drop_in_place$LT$syn..generics..GenericParam$GT$17hb7269e035ba3d245E', symObjAddr: 0x7480, symBinAddr: 0x35410, symSize: 0xF0 }
  - { offsetInCU: 0x1B188, offset: 0x1035EC, size: 0x8, addend: 0x0, symName: '__ZN4core3ptr49drop_in_place$LT$syn..generics..PredicateType$GT$17h1d376aa67135ce7eE.llvm.1326340307709448866', symObjAddr: 0x7570, symBinAddr: 0x35500, symSize: 0x230 }
  - { offsetInCU: 0x1BBAC, offset: 0x104010, size: 0x8, addend: 0x0, symName: '__ZN4core3ptr49drop_in_place$LT$syn..item..ForeignItemStatic$GT$17hd9535de32b7794edE', symObjAddr: 0x77A0, symBinAddr: 0x35730, symSize: 0x150 }
  - { offsetInCU: 0x1C269, offset: 0x1046CD, size: 0x8, addend: 0x0, symName: '__ZN4core3ptr50drop_in_place$LT$$u5b$syn..item..ImplItem$u5d$$GT$17h5edb5b93a9179dcbE', symObjAddr: 0x78F0, symBinAddr: 0x35880, symSize: 0x1C0 }
  - { offsetInCU: 0x1C509, offset: 0x10496D, size: 0x8, addend: 0x0, symName: '__ZN4core3ptr50drop_in_place$LT$syn..generics..BoundLifetimes$GT$17h8dcb3c35db0559c7E.llvm.1326340307709448866', symObjAddr: 0x7AB0, symBinAddr: 0x35A40, symSize: 0x110 }
  - { offsetInCU: 0x1C989, offset: 0x104DED, size: 0x8, addend: 0x0, symName: '__ZN4core3ptr50drop_in_place$LT$syn..generics..TypeParamBound$GT$17h8e298e190b91bf77E', symObjAddr: 0x7BC0, symBinAddr: 0x35B50, symSize: 0x80 }
  - { offsetInCU: 0x1CB0E, offset: 0x104F72, size: 0x8, addend: 0x0, symName: '__ZN4core3ptr50drop_in_place$LT$syn..generics..WherePredicate$GT$17h3ba1135740b77b6dE', symObjAddr: 0x7C40, symBinAddr: 0x35BD0, symSize: 0x110 }
  - { offsetInCU: 0x1CCCD, offset: 0x105131, size: 0x8, addend: 0x0, symName: '__ZN4core3ptr51drop_in_place$LT$$u5b$syn..attr..Attribute$u5d$$GT$17hed82e7ab4d461f62E.llvm.1326340307709448866', symObjAddr: 0x7D50, symBinAddr: 0x35CE0, symSize: 0x190 }
  - { offsetInCU: 0x1D052, offset: 0x1054B6, size: 0x8, addend: 0x0, symName: '__ZN4core3ptr51drop_in_place$LT$$u5b$syn..item..TraitItem$u5d$$GT$17ha2dba445bb680b15E', symObjAddr: 0x7EE0, symBinAddr: 0x35E70, symSize: 0x440 }
  - { offsetInCU: 0x1DAE5, offset: 0x105F49, size: 0x8, addend: 0x0, symName: '__ZN4core3ptr53drop_in_place$LT$$u5b$syn..item..ForeignItem$u5d$$GT$17hdc61110461ea4842E', symObjAddr: 0x8320, symBinAddr: 0x362B0, symSize: 0x3A0 }
  - { offsetInCU: 0x1E5DE, offset: 0x106A42, size: 0x8, addend: 0x0, symName: '__ZN4core3ptr58drop_in_place$LT$alloc..vec..Vec$LT$syn..expr..Arm$GT$$GT$17h2debc58bdfc8eaf4E', symObjAddr: 0x86C0, symBinAddr: 0x36650, symSize: 0xD0 }
  - { offsetInCU: 0x1E8A5, offset: 0x106D09, size: 0x8, addend: 0x0, symName: '__ZN4core3ptr59drop_in_place$LT$alloc..boxed..Box$LT$syn..pat..Pat$GT$$GT$17h0e6545e79fcf3f63E.llvm.1326340307709448866', symObjAddr: 0x8790, symBinAddr: 0x36720, symSize: 0x50 }
  - { offsetInCU: 0x1E9FE, offset: 0x106E62, size: 0x8, addend: 0x0, symName: '__ZN4core3ptr59drop_in_place$LT$alloc..boxed..Box$LT$syn..ty..Type$GT$$GT$17hb893d541d08e2c14E', symObjAddr: 0x87E0, symBinAddr: 0x36770, symSize: 0x50 }
  - { offsetInCU: 0x1EB57, offset: 0x106FBB, size: 0x8, addend: 0x0, symName: '__ZN4core3ptr59drop_in_place$LT$alloc..vec..Vec$LT$syn..item..Item$GT$$GT$17h5d5997f82d5adfadE', symObjAddr: 0x8830, symBinAddr: 0x367C0, symSize: 0xD0 }
  - { offsetInCU: 0x1EE1E, offset: 0x107282, size: 0x8, addend: 0x0, symName: '__ZN4core3ptr61drop_in_place$LT$alloc..boxed..Box$LT$syn..expr..Expr$GT$$GT$17hc3bc773a9b5b0963E.llvm.1326340307709448866', symObjAddr: 0x8900, symBinAddr: 0x36890, symSize: 0x50 }
  - { offsetInCU: 0x1EF77, offset: 0x1073DB, size: 0x8, addend: 0x0, symName: '__ZN4core3ptr61drop_in_place$LT$alloc..boxed..Box$LT$syn..path..Path$GT$$GT$17hb9d56078247140c8E', symObjAddr: 0x8950, symBinAddr: 0x368E0, symSize: 0x100 }
  - { offsetInCU: 0x1F497, offset: 0x1078FB, size: 0x8, addend: 0x0, symName: '__ZN4core3ptr61drop_in_place$LT$syn..path..ParenthesizedGenericArguments$GT$17h67c96b4a00cd3423E.llvm.1326340307709448866', symObjAddr: 0x8A50, symBinAddr: 0x369E0, symSize: 0x170 }
  - { offsetInCU: 0x1FA94, offset: 0x107EF8, size: 0x8, addend: 0x0, symName: '__ZN4core3ptr62drop_in_place$LT$alloc..boxed..Box$LT$syn..data..Field$GT$$GT$17h987266401531bb3fE', symObjAddr: 0x8BC0, symBinAddr: 0x36B50, symSize: 0x50 }
  - { offsetInCU: 0x1FC0C, offset: 0x108070, size: 0x8, addend: 0x0, symName: '__ZN4core3ptr62drop_in_place$LT$alloc..boxed..Box$LT$syn..item..FnArg$GT$$GT$17h75683d84a2fba971E', symObjAddr: 0x8C10, symBinAddr: 0x36BA0, symSize: 0xD0 }
  - { offsetInCU: 0x2012D, offset: 0x108591, size: 0x8, addend: 0x0, symName: '__ZN4core3ptr62drop_in_place$LT$alloc..boxed..Box$LT$syn..stmt..Block$GT$$GT$17hce659d851cc576acE', symObjAddr: 0x8CE0, symBinAddr: 0x36C70, symSize: 0xE0 }
  - { offsetInCU: 0x20546, offset: 0x1089AA, size: 0x8, addend: 0x0, symName: '__ZN4core3ptr62drop_in_place$LT$syn..path..AngleBracketedGenericArguments$GT$17h665e12a12579d3f4E.llvm.1326340307709448866', symObjAddr: 0x8DC0, symBinAddr: 0x36D50, symSize: 0x120 }
  - { offsetInCU: 0x209C8, offset: 0x108E2C, size: 0x8, addend: 0x0, symName: '__ZN4core3ptr63drop_in_place$LT$alloc..vec..Vec$LT$syn..item..ImplItem$GT$$GT$17h5a2ce1f967bba800E', symObjAddr: 0x8EE0, symBinAddr: 0x36E70, symSize: 0x80 }
  - { offsetInCU: 0x20C80, offset: 0x1090E4, size: 0x8, addend: 0x0, symName: '__ZN4core3ptr64drop_in_place$LT$alloc..boxed..Box$LT$syn..data..Variant$GT$$GT$17h4e70f972a04541a6E', symObjAddr: 0x8F60, symBinAddr: 0x36EF0, symSize: 0x50 }
  - { offsetInCU: 0x20DD9, offset: 0x10923D, size: 0x8, addend: 0x0, symName: '__ZN4core3ptr64drop_in_place$LT$alloc..boxed..Box$LT$syn..item..UseTree$GT$$GT$17hff372697fb8cc18cE', symObjAddr: 0x8FB0, symBinAddr: 0x36F40, symSize: 0x50 }
  - { offsetInCU: 0x20F70, offset: 0x1093D4, size: 0x8, addend: 0x0, symName: '__ZN4core3ptr64drop_in_place$LT$alloc..boxed..Box$LT$syn..pat..FieldPat$GT$$GT$17hc28bd15de5996666E', symObjAddr: 0x9000, symBinAddr: 0x36F90, symSize: 0xC0 }
  - { offsetInCU: 0x2139B, offset: 0x1097FF, size: 0x8, addend: 0x0, symName: '__ZN4core3ptr64drop_in_place$LT$alloc..boxed..Box$LT$syn..ty..BareFnArg$GT$$GT$17h12ccd287b0a3aa0cE', symObjAddr: 0x90C0, symBinAddr: 0x37050, symSize: 0xA0 }
  - { offsetInCU: 0x2163F, offset: 0x109AA3, size: 0x8, addend: 0x0, symName: '__ZN4core3ptr64drop_in_place$LT$alloc..vec..Vec$LT$syn..attr..Attribute$GT$$GT$17h0cbf276760eeb272E.llvm.1326340307709448866', symObjAddr: 0x9160, symBinAddr: 0x370F0, symSize: 0xF0 }
  - { offsetInCU: 0x2191F, offset: 0x109D83, size: 0x8, addend: 0x0, symName: '__ZN4core3ptr64drop_in_place$LT$alloc..vec..Vec$LT$syn..item..TraitItem$GT$$GT$17ha74223c2b68e0b2cE', symObjAddr: 0x9250, symBinAddr: 0x371E0, symSize: 0x80 }
  - { offsetInCU: 0x21BD7, offset: 0x10A03B, size: 0x8, addend: 0x0, symName: '__ZN4core3ptr65drop_in_place$LT$$LP$syn..item..FnArg$C$syn..token..Comma$RP$$GT$17h4999de0d3da44235E', symObjAddr: 0x92D0, symBinAddr: 0x37260, symSize: 0xC0 }
  - { offsetInCU: 0x22086, offset: 0x10A4EA, size: 0x8, addend: 0x0, symName: '__ZN4core3ptr65drop_in_place$LT$alloc..vec..Vec$LT$proc_macro..TokenTree$GT$$GT$17hb190bfae5092fefbE.llvm.1326340307709448866', symObjAddr: 0x9390, symBinAddr: 0x37320, symSize: 0x110 }
  - { offsetInCU: 0x22498, offset: 0x10A8FC, size: 0x8, addend: 0x0, symName: '__ZN4core3ptr65drop_in_place$LT$core..option..Option$LT$syn..expr..Label$GT$$GT$17h602866846eca55bfE', symObjAddr: 0x94A0, symBinAddr: 0x37430, symSize: 0x30 }
  - { offsetInCU: 0x225D2, offset: 0x10AA36, size: 0x8, addend: 0x0, symName: '__ZN4core3ptr65drop_in_place$LT$core..option..Option$LT$syn..stmt..Block$GT$$GT$17h1d6c1a346a6963beE', symObjAddr: 0x94D0, symBinAddr: 0x37460, symSize: 0xD0 }
  - { offsetInCU: 0x228C6, offset: 0x10AD2A, size: 0x8, addend: 0x0, symName: '__ZN4core3ptr66drop_in_place$LT$alloc..vec..Vec$LT$proc_macro2..TokenTree$GT$$GT$17hb501031a31917f68E', symObjAddr: 0x95A0, symBinAddr: 0x37530, symSize: 0xC0 }
  - { offsetInCU: 0x22B9E, offset: 0x10B002, size: 0x8, addend: 0x0, symName: '__ZN4core3ptr66drop_in_place$LT$alloc..vec..Vec$LT$syn..item..ForeignItem$GT$$GT$17h9ffa270250d415d3E', symObjAddr: 0x9660, symBinAddr: 0x375F0, symSize: 0x80 }
  - { offsetInCU: 0x22E56, offset: 0x10B2BA, size: 0x8, addend: 0x0, symName: '__ZN4core3ptr67drop_in_place$LT$$LP$syn..pat..FieldPat$C$syn..token..Comma$RP$$GT$17h406dc9f866c75a3eE.llvm.1326340307709448866', symObjAddr: 0x96E0, symBinAddr: 0x37670, symSize: 0xA0 }
  - { offsetInCU: 0x230FE, offset: 0x10B562, size: 0x8, addend: 0x0, symName: '__ZN4core3ptr67drop_in_place$LT$$LP$syn..ty..BareFnArg$C$syn..token..Comma$RP$$GT$17h7223a12e5e253b56E.llvm.1326340307709448866', symObjAddr: 0x9780, symBinAddr: 0x37710, symSize: 0x80 }
  - { offsetInCU: 0x2325B, offset: 0x10B6BF, size: 0x8, addend: 0x0, symName: '__ZN4core3ptr67drop_in_place$LT$alloc..boxed..Box$LT$syn..attr..NestedMeta$GT$$GT$17hf34124fd84efe498E.llvm.1326340307709448866', symObjAddr: 0x9800, symBinAddr: 0x37790, symSize: 0x180 }
  - { offsetInCU: 0x23594, offset: 0x10B9F8, size: 0x8, addend: 0x0, symName: '__ZN4core3ptr67drop_in_place$LT$alloc..boxed..Box$LT$syn..expr..FieldValue$GT$$GT$17hffe2f6a0705c992bE', symObjAddr: 0x9980, symBinAddr: 0x37910, symSize: 0xA0 }
  - { offsetInCU: 0x23818, offset: 0x10BC7C, size: 0x8, addend: 0x0, symName: '__ZN4core3ptr68drop_in_place$LT$alloc..boxed..Box$LT$syn..path..PathSegment$GT$$GT$17heed92d6b2b3c8eddE.llvm.1326340307709448866', symObjAddr: 0x9A20, symBinAddr: 0x379B0, symSize: 0xD0 }
  - { offsetInCU: 0x23C11, offset: 0x10C075, size: 0x8, addend: 0x0, symName: '__ZN4core3ptr70drop_in_place$LT$$LP$syn..attr..NestedMeta$C$syn..token..Comma$RP$$GT$17h77ba1798565f25faE.llvm.1326340307709448866', symObjAddr: 0x9AF0, symBinAddr: 0x37A80, symSize: 0x30 }
  - { offsetInCU: 0x23C4D, offset: 0x10C0B1, size: 0x8, addend: 0x0, symName: '__ZN4core3ptr70drop_in_place$LT$$LP$syn..expr..FieldValue$C$syn..token..Comma$RP$$GT$17h846268869083ed46E.llvm.1326340307709448866', symObjAddr: 0x9B20, symBinAddr: 0x37AB0, symSize: 0x80 }
  - { offsetInCU: 0x23D8A, offset: 0x10C1EE, size: 0x8, addend: 0x0, symName: '__ZN4core3ptr72drop_in_place$LT$$LP$syn..path..PathSegment$C$syn..token..Colon2$RP$$GT$17hfd4bed916b15a69aE.llvm.1326340307709448866', symObjAddr: 0x9BA0, symBinAddr: 0x37B30, symSize: 0xC0 }
  - { offsetInCU: 0x2404D, offset: 0x10C4B1, size: 0x8, addend: 0x0, symName: '__ZN4core3ptr72drop_in_place$LT$alloc..boxed..Box$LT$syn..generics..LifetimeDef$GT$$GT$17h0a3666b8303c7334E', symObjAddr: 0x9C60, symBinAddr: 0x37BF0, symSize: 0x80 }
  - { offsetInCU: 0x242FC, offset: 0x10C760, size: 0x8, addend: 0x0, symName: '__ZN4core3ptr72drop_in_place$LT$alloc..boxed..Box$LT$syn..path..GenericArgument$GT$$GT$17h7f37d08bc0a21546E.llvm.1326340307709448866', symObjAddr: 0x9CE0, symBinAddr: 0x37C70, symSize: 0x220 }
  - { offsetInCU: 0x24B6C, offset: 0x10CFD0, size: 0x8, addend: 0x0, symName: '__ZN4core3ptr73drop_in_place$LT$alloc..boxed..Box$LT$syn..generics..GenericParam$GT$$GT$17h1d8084ec2fe012b0E', symObjAddr: 0x9F00, symBinAddr: 0x37E90, symSize: 0x50 }
  - { offsetInCU: 0x24CC5, offset: 0x10D129, size: 0x8, addend: 0x0, symName: '__ZN4core3ptr75drop_in_place$LT$$LP$syn..generics..LifetimeDef$C$syn..token..Comma$RP$$GT$17h474ad4417c64fc09E.llvm.1326340307709448866', symObjAddr: 0x9F50, symBinAddr: 0x37EE0, symSize: 0x60 }
  - { offsetInCU: 0x24E02, offset: 0x10D266, size: 0x8, addend: 0x0, symName: '__ZN4core3ptr75drop_in_place$LT$$LP$syn..path..GenericArgument$C$syn..token..Comma$RP$$GT$17h48acc9a2e83347d2E.llvm.1326340307709448866', symObjAddr: 0x9FB0, symBinAddr: 0x37F40, symSize: 0x220 }
  - { offsetInCU: 0x25536, offset: 0x10D99A, size: 0x8, addend: 0x0, symName: '__ZN4core3ptr75drop_in_place$LT$alloc..boxed..Box$LT$syn..generics..TypeParamBound$GT$$GT$17h69b9a1111abdff16E', symObjAddr: 0xA1D0, symBinAddr: 0x38160, symSize: 0x150 }
  - { offsetInCU: 0x25AE3, offset: 0x10DF47, size: 0x8, addend: 0x0, symName: '__ZN4core3ptr75drop_in_place$LT$alloc..boxed..Box$LT$syn..generics..WherePredicate$GT$$GT$17h28fc0c5f2d7ca560E', symObjAddr: 0xA320, symBinAddr: 0x382B0, symSize: 0xD0 }
  - { offsetInCU: 0x25D8B, offset: 0x10E1EF, size: 0x8, addend: 0x0, symName: '__ZN4core3ptr76drop_in_place$LT$$LP$syn..generics..GenericParam$C$syn..token..Comma$RP$$GT$17h724ade5965c5acdbE.llvm.1326340307709448866', symObjAddr: 0xA3F0, symBinAddr: 0x38380, symSize: 0x50 }
  - { offsetInCU: 0x25DC7, offset: 0x10E22B, size: 0x8, addend: 0x0, symName: '__ZN4core3ptr76drop_in_place$LT$$LP$syn..generics..TypeParamBound$C$syn..token..Add$RP$$GT$17h862fba0dc86de2bdE.llvm.1326340307709448866', symObjAddr: 0xA440, symBinAddr: 0x383D0, symSize: 0x160 }
  - { offsetInCU: 0x26246, offset: 0x10E6AA, size: 0x8, addend: 0x0, symName: '__ZN4core3ptr78drop_in_place$LT$$LP$syn..generics..WherePredicate$C$syn..token..Comma$RP$$GT$17h9b39e3055959bad3E.llvm.1326340307709448866', symObjAddr: 0xA5A0, symBinAddr: 0x38530, symSize: 0xA0 }
  - { offsetInCU: 0x263BE, offset: 0x10E822, size: 0x8, addend: 0x0, symName: '__ZN4core3ptr78drop_in_place$LT$alloc..boxed..Box$LT$syn..expr..GenericMethodArgument$GT$$GT$17h267fcbf26fe99c2dE', symObjAddr: 0xA640, symBinAddr: 0x385D0, symSize: 0x60 }
  - { offsetInCU: 0x26534, offset: 0x10E998, size: 0x8, addend: 0x0, symName: '__ZN4core3ptr81drop_in_place$LT$$LP$syn..expr..GenericMethodArgument$C$syn..token..Comma$RP$$GT$17h787dedc212961192E.llvm.1326340307709448866', symObjAddr: 0xA6A0, symBinAddr: 0x38630, symSize: 0x30 }
  - { offsetInCU: 0x26570, offset: 0x10E9D4, size: 0x8, addend: 0x0, symName: '__ZN4core3ptr86drop_in_place$LT$$LP$syn..token..If$C$alloc..boxed..Box$LT$syn..expr..Expr$GT$$RP$$GT$17h133e53125084cb00E.llvm.1326340307709448866', symObjAddr: 0xA6D0, symBinAddr: 0x38660, symSize: 0x50 }
  - { offsetInCU: 0x266E8, offset: 0x10EB4C, size: 0x8, addend: 0x0, symName: '__ZN4core3ptr86drop_in_place$LT$$u5b$$LP$syn..generics..TypeParamBound$C$syn..token..Add$RP$$u5d$$GT$17h554a1b6da657d954E', symObjAddr: 0xA720, symBinAddr: 0x386B0, symSize: 0xE0 }
  - { offsetInCU: 0x2691B, offset: 0x10ED7F, size: 0x8, addend: 0x0, symName: '__ZN4core3ptr86drop_in_place$LT$syn..punctuated..Punctuated$LT$syn..pat..Pat$C$syn..token..Or$GT$$GT$17hef1dcce6dc9b3a22E', symObjAddr: 0xA800, symBinAddr: 0x38790, symSize: 0x120 }
  - { offsetInCU: 0x26DB4, offset: 0x10F218, size: 0x8, addend: 0x0, symName: '__ZN4core3ptr87drop_in_place$LT$core..option..Option$LT$alloc..boxed..Box$LT$syn..pat..Pat$GT$$GT$$GT$17h0095d4d05d93e156E', symObjAddr: 0xA920, symBinAddr: 0x388B0, symSize: 0x50 }
  - { offsetInCU: 0x26F24, offset: 0x10F388, size: 0x8, addend: 0x0, symName: '__ZN4core3ptr87drop_in_place$LT$core..option..Option$LT$alloc..boxed..Box$LT$syn..ty..Type$GT$$GT$$GT$17h18d60ed91c1fd122E', symObjAddr: 0xA970, symBinAddr: 0x38900, symSize: 0x50 }
  - { offsetInCU: 0x27094, offset: 0x10F4F8, size: 0x8, addend: 0x0, symName: '__ZN4core3ptr89drop_in_place$LT$core..option..Option$LT$alloc..boxed..Box$LT$syn..expr..Expr$GT$$GT$$GT$17he6a7099d3c692d2cE', symObjAddr: 0xA9C0, symBinAddr: 0x38950, symSize: 0x50 }
  - { offsetInCU: 0x27204, offset: 0x10F668, size: 0x8, addend: 0x0, symName: '__ZN4core3ptr89drop_in_place$LT$syn..punctuated..Punctuated$LT$syn..ty..Type$C$syn..token..Comma$GT$$GT$17h413624ebd8fbc10dE.llvm.1326340307709448866', symObjAddr: 0xAA10, symBinAddr: 0x389A0, symSize: 0x120 }
  - { offsetInCU: 0x27686, offset: 0x10FAEA, size: 0x8, addend: 0x0, symName: '__ZN4core3ptr90drop_in_place$LT$core..option..Option$LT$alloc..boxed..Box$LT$syn..data..Field$GT$$GT$$GT$17ha0137231f5828934E', symObjAddr: 0xAB30, symBinAddr: 0x38AC0, symSize: 0x50 }
  - { offsetInCU: 0x277F6, offset: 0x10FC5A, size: 0x8, addend: 0x0, symName: '__ZN4core3ptr90drop_in_place$LT$core..option..Option$LT$alloc..boxed..Box$LT$syn..item..FnArg$GT$$GT$$GT$17h182988b0e9636cc6E', symObjAddr: 0xAB80, symBinAddr: 0x38B10, symSize: 0x50 }
  - { offsetInCU: 0x279E2, offset: 0x10FE46, size: 0x8, addend: 0x0, symName: '__ZN4core3ptr91drop_in_place$LT$syn..punctuated..Punctuated$LT$syn..expr..Expr$C$syn..token..Comma$GT$$GT$17h93a748fba78cb228E', symObjAddr: 0xABD0, symBinAddr: 0x38B60, symSize: 0x120 }
  - { offsetInCU: 0x27E77, offset: 0x1102DB, size: 0x8, addend: 0x0, symName: '__ZN4core3ptr92drop_in_place$LT$core..option..Option$LT$$LP$syn..token..As$C$proc_macro2..Ident$RP$$GT$$GT$17h82eaeee5d029b632E', symObjAddr: 0xACF0, symBinAddr: 0x38C80, symSize: 0x30 }
  - { offsetInCU: 0x27F92, offset: 0x1103F6, size: 0x8, addend: 0x0, symName: '__ZN4core3ptr92drop_in_place$LT$syn..punctuated..Punctuated$LT$syn..data..Field$C$syn..token..Comma$GT$$GT$17h838088135c2e5e23E', symObjAddr: 0xAD20, symBinAddr: 0x38CB0, symSize: 0x120 }
  - { offsetInCU: 0x28414, offset: 0x110878, size: 0x8, addend: 0x0, symName: '__ZN4core3ptr92drop_in_place$LT$syn..punctuated..Punctuated$LT$syn..item..FnArg$C$syn..token..Comma$GT$$GT$17h4749c20765d96f50E', symObjAddr: 0xAE40, symBinAddr: 0x38DD0, symSize: 0x2C0 }
  - { offsetInCU: 0x2912B, offset: 0x11158F, size: 0x8, addend: 0x0, symName: '__ZN4core3ptr93drop_in_place$LT$alloc..vec..Vec$LT$$LP$syn..attr..NestedMeta$C$syn..token..Comma$RP$$GT$$GT$17hb5c1067b44bf2762E.llvm.1326340307709448866', symObjAddr: 0xB100, symBinAddr: 0x39090, symSize: 0xF0 }
  - { offsetInCU: 0x294DC, offset: 0x111940, size: 0x8, addend: 0x0, symName: '__ZN4core3ptr94drop_in_place$LT$syn..punctuated..Punctuated$LT$syn..data..Variant$C$syn..token..Comma$GT$$GT$17h9881117125c8b84fE', symObjAddr: 0xB1F0, symBinAddr: 0x39180, symSize: 0x120 }
  - { offsetInCU: 0x299ED, offset: 0x111E51, size: 0x8, addend: 0x0, symName: '__ZN4core3ptr94drop_in_place$LT$syn..punctuated..Punctuated$LT$syn..pat..FieldPat$C$syn..token..Comma$GT$$GT$17hec201a05602aaa8bE', symObjAddr: 0xB310, symBinAddr: 0x392A0, symSize: 0xF0 }
  - { offsetInCU: 0x29DA1, offset: 0x112205, size: 0x8, addend: 0x0, symName: '__ZN4core3ptr94drop_in_place$LT$syn..punctuated..Punctuated$LT$syn..ty..BareFnArg$C$syn..token..Comma$GT$$GT$17hc02f23e04f80dd73E', symObjAddr: 0xB400, symBinAddr: 0x39390, symSize: 0x1B0 }
  - { offsetInCU: 0x2A267, offset: 0x1126CB, size: 0x8, addend: 0x0, symName: '__ZN4core3ptr95drop_in_place$LT$core..option..Option$LT$$LP$proc_macro2..Ident$C$syn..token..Colon$RP$$GT$$GT$17h6c046245eae5968dE.llvm.1326340307709448866', symObjAddr: 0xB5B0, symBinAddr: 0x39540, symSize: 0x30 }
  - { offsetInCU: 0x2A382, offset: 0x1127E6, size: 0x8, addend: 0x0, symName: '__ZN4core3ptr95drop_in_place$LT$core..option..Option$LT$alloc..boxed..Box$LT$syn..attr..NestedMeta$GT$$GT$$GT$17h913860ed8b93f6a4E.llvm.1326340307709448866', symObjAddr: 0xB5E0, symBinAddr: 0x39570, symSize: 0xC0 }
  - { offsetInCU: 0x2A4DC, offset: 0x112940, size: 0x8, addend: 0x0, symName: '__ZN4core3ptr96drop_in_place$LT$core..option..Option$LT$alloc..boxed..Box$LT$syn..path..PathSegment$GT$$GT$$GT$17hf82b8699da43204eE.llvm.1326340307709448866', symObjAddr: 0xB6A0, symBinAddr: 0x39630, symSize: 0x90 }
  - { offsetInCU: 0x2A77A, offset: 0x112BDE, size: 0x8, addend: 0x0, symName: '__ZN4core3ptr97drop_in_place$LT$syn..punctuated..Punctuated$LT$syn..attr..NestedMeta$C$syn..token..Comma$GT$$GT$17ha2b6bb7381d8c8bfE.llvm.1326340307709448866', symObjAddr: 0xB780, symBinAddr: 0x396C0, symSize: 0x110 }
  - { offsetInCU: 0x2AB42, offset: 0x112FA6, size: 0x8, addend: 0x0, symName: '__ZN4core3ptr97drop_in_place$LT$syn..punctuated..Punctuated$LT$syn..expr..FieldValue$C$syn..token..Comma$GT$$GT$17h133f4bc64ab84a52E', symObjAddr: 0xB890, symBinAddr: 0x397D0, symSize: 0x1B0 }
  - { offsetInCU: 0x2B06F, offset: 0x1134D3, size: 0x8, addend: 0x0, symName: '__ZN4core3ptr97drop_in_place$LT$syn..punctuated..Punctuated$LT$syn..lifetime..Lifetime$C$syn..token..Add$GT$$GT$17he99654eb9e8fcd80E.llvm.1326340307709448866', symObjAddr: 0xBA40, symBinAddr: 0x39980, symSize: 0xD0 }
  - { offsetInCU: 0x2D646, offset: 0x115AAA, size: 0x8, addend: 0x0, symName: '__ZN48_$LT$T$u20$as$u20$core..clone..CloneToUninit$GT$15clone_to_uninit17hdcb1177d70931765E', symObjAddr: 0x0, symBinAddr: 0x2E020, symSize: 0x330 }
  - { offsetInCU: 0x2FEBE, offset: 0x118322, size: 0x8, addend: 0x0, symName: '__ZN70_$LT$alloc..vec..Vec$LT$T$C$A$GT$$u20$as$u20$core..ops..drop..Drop$GT$4drop17h2164e1b3e4a158afE', symObjAddr: 0xBB10, symBinAddr: 0x39A50, symSize: 0xC0 }
  - { offsetInCU: 0x2FF20, offset: 0x118384, size: 0x8, addend: 0x0, symName: '__ZN70_$LT$alloc..vec..Vec$LT$T$C$A$GT$$u20$as$u20$core..ops..drop..Drop$GT$4drop17h7dbdf2d20c76c8abE', symObjAddr: 0xBD70, symBinAddr: 0x39B10, symSize: 0xD0 }
  - { offsetInCU: 0x3006D, offset: 0x1184D1, size: 0x8, addend: 0x0, symName: '__ZN70_$LT$alloc..vec..Vec$LT$T$C$A$GT$$u20$as$u20$core..ops..drop..Drop$GT$4drop17h7ee29cd59d84f1a3E', symObjAddr: 0xBE40, symBinAddr: 0x39BE0, symSize: 0xB0 }
  - { offsetInCU: 0x301A4, offset: 0x118608, size: 0x8, addend: 0x0, symName: '__ZN70_$LT$alloc..vec..Vec$LT$T$C$A$GT$$u20$as$u20$core..ops..drop..Drop$GT$4drop17ha195ca69b130c05aE', symObjAddr: 0xC170, symBinAddr: 0x39C90, symSize: 0xD0 }
  - { offsetInCU: 0x1E, offset: 0x123B01, size: 0x8, addend: 0x0, symName: '__ZN100_$LT$syn..punctuated..PrivateIter$LT$T$C$P$GT$$u20$as$u20$core..iter..traits..iterator..Iterator$GT$4next17ha2fd02f9f110430cE.llvm.4194438328304756577', symObjAddr: 0x0, symBinAddr: 0x39D60, symSize: 0x30 }
  - { offsetInCU: 0x619, offset: 0x1240FC, size: 0x8, addend: 0x0, symName: '__ZN100_$LT$syn..punctuated..PrivateIter$LT$T$C$P$GT$$u20$as$u20$core..iter..traits..iterator..Iterator$GT$4next17ha2fd02f9f110430cE.llvm.4194438328304756577', symObjAddr: 0x0, symBinAddr: 0x39D60, symSize: 0x30 }
  - { offsetInCU: 0x893, offset: 0x124376, size: 0x8, addend: 0x0, symName: '__ZN100_$LT$syn..punctuated..PrivateIter$LT$T$C$P$GT$$u20$as$u20$core..iter..traits..iterator..Iterator$GT$4next17hef5770133126958eE.llvm.4194438328304756577', symObjAddr: 0x30, symBinAddr: 0x39D90, symSize: 0x30 }
  - { offsetInCU: 0x92EF, offset: 0x12CDD2, size: 0x8, addend: 0x0, symName: '__ZN4core3ptr100drop_in_place$LT$core..option..Option$LT$alloc..boxed..Box$LT$syn..generics..LifetimeDef$GT$$GT$$GT$17h7210dd36d261d461E', symObjAddr: 0x430, symBinAddr: 0x39F80, symSize: 0x130 }
  - { offsetInCU: 0x9840, offset: 0x12D323, size: 0x8, addend: 0x0, symName: '__ZN4core3ptr100drop_in_place$LT$core..option..Option$LT$alloc..boxed..Box$LT$syn..path..GenericArgument$GT$$GT$$GT$17ha8d3d1c957e955fdE', symObjAddr: 0x560, symBinAddr: 0x3A0B0, symSize: 0x50 }
  - { offsetInCU: 0x9AE6, offset: 0x12D5C9, size: 0x8, addend: 0x0, symName: '__ZN4core3ptr103drop_in_place$LT$syn..punctuated..Punctuated$LT$syn..generics..TypeParamBound$C$syn..token..Add$GT$$GT$17hd085404135892585E', symObjAddr: 0x5B0, symBinAddr: 0x3A100, symSize: 0x230 }
  - { offsetInCU: 0xA4EA, offset: 0x12DFCD, size: 0x8, addend: 0x0, symName: '__ZN4core3ptr108drop_in_place$LT$syn..punctuated..Punctuated$LT$syn..expr..GenericMethodArgument$C$syn..token..Comma$GT$$GT$17h22f960247d7ccab1E', symObjAddr: 0x7E0, symBinAddr: 0x3A330, symSize: 0x150 }
  - { offsetInCU: 0xAA43, offset: 0x12E526, size: 0x8, addend: 0x0, symName: '__ZN4core3ptr34drop_in_place$LT$syn..lit..Lit$GT$17h470f6c6d24056c53E', symObjAddr: 0x930, symBinAddr: 0x3A480, symSize: 0x110 }
  - { offsetInCU: 0xAEB5, offset: 0x12E998, size: 0x8, addend: 0x0, symName: '__ZN4core3ptr34drop_in_place$LT$syn..pat..Pat$GT$17h38343a1049e28dd1E', symObjAddr: 0xA40, symBinAddr: 0x3A590, symSize: 0xED0 }
  - { offsetInCU: 0xE6D7, offset: 0x1321BA, size: 0x8, addend: 0x0, symName: '__ZN4core3ptr34drop_in_place$LT$syn..ty..Type$GT$17h71c81d99bbba9d28E.llvm.4194438328304756577', symObjAddr: 0x1910, symBinAddr: 0x3B460, symSize: 0x5E0 }
  - { offsetInCU: 0x1036E, offset: 0x133E51, size: 0x8, addend: 0x0, symName: '__ZN4core3ptr36drop_in_place$LT$syn..expr..Expr$GT$17h8f71e2ca846afb7cE', symObjAddr: 0x1EF0, symBinAddr: 0x3BA40, symSize: 0x2990 }
  - { offsetInCU: 0x19F42, offset: 0x13DA25, size: 0x8, addend: 0x0, symName: '__ZN4core3ptr36drop_in_place$LT$syn..mac..Macro$GT$17he383515a0d00696cE', symObjAddr: 0x4880, symBinAddr: 0x3E3D0, symSize: 0x110 }
  - { offsetInCU: 0x1A45B, offset: 0x13DF3E, size: 0x8, addend: 0x0, symName: '__ZN4core3ptr36drop_in_place$LT$syn..path..Path$GT$17h16c1a1fb63164ca5E.llvm.4194438328304756577', symObjAddr: 0x4990, symBinAddr: 0x3E4E0, symSize: 0x260 }
  - { offsetInCU: 0x1AF80, offset: 0x13EA63, size: 0x8, addend: 0x0, symName: '__ZN4core3ptr37drop_in_place$LT$syn..data..Field$GT$17h4f71da232da8b930E.llvm.4194438328304756577', symObjAddr: 0x4BF0, symBinAddr: 0x3E740, symSize: 0x160 }
  - { offsetInCU: 0x1B4B5, offset: 0x13EF98, size: 0x8, addend: 0x0, symName: '__ZN4core3ptr37drop_in_place$LT$syn..stmt..Block$GT$17ha02f694d20e8a90dE', symObjAddr: 0x4D50, symBinAddr: 0x3E8A0, symSize: 0xD0 }
  - { offsetInCU: 0x1B78C, offset: 0x13F26F, size: 0x8, addend: 0x0, symName: '__ZN4core3ptr39drop_in_place$LT$proc_macro2..Ident$GT$17h4e4f59a2c1c84fafE', symObjAddr: 0x4E20, symBinAddr: 0x3E970, symSize: 0x30 }
  - { offsetInCU: 0x1B869, offset: 0x13F34C, size: 0x8, addend: 0x0, symName: '__ZN4core3ptr39drop_in_place$LT$syn..pat..PatTuple$GT$17hafa76b97343faa4aE', symObjAddr: 0x4E50, symBinAddr: 0x3E9A0, symSize: 0xE0 }
  - { offsetInCU: 0x1BB3A, offset: 0x13F61D, size: 0x8, addend: 0x0, symName: '__ZN4core3ptr40drop_in_place$LT$syn..ty..ReturnType$GT$17hc0c6d2453c4b8a9cE', symObjAddr: 0x4F30, symBinAddr: 0x3EA80, symSize: 0x50 }
  - { offsetInCU: 0x1BCAA, offset: 0x13F78D, size: 0x8, addend: 0x0, symName: '__ZN4core3ptr42drop_in_place$LT$syn..data..Visibility$GT$17hfb89fc568cb05ad0E.llvm.4194438328304756577', symObjAddr: 0x4F80, symBinAddr: 0x3EAD0, symSize: 0x60 }
  - { offsetInCU: 0x1BE1B, offset: 0x13F8FE, size: 0x8, addend: 0x0, symName: '__ZN4core3ptr44drop_in_place$LT$syn..lifetime..Lifetime$GT$17h248f852b3e174177E', symObjAddr: 0x4FE0, symBinAddr: 0x3EB30, symSize: 0x30 }
  - { offsetInCU: 0x1C04D, offset: 0x13FB30, size: 0x8, addend: 0x0, symName: '__ZN4core3ptr45drop_in_place$LT$proc_macro2..TokenStream$GT$17hb669a1876059cbcaE', symObjAddr: 0x5010, symBinAddr: 0x3EB60, symSize: 0x140 }
  - { offsetInCU: 0x1C4E7, offset: 0x13FFCA, size: 0x8, addend: 0x0, symName: '__ZN4core3ptr47drop_in_place$LT$syn..path..GenericArgument$GT$17h2cef37900cc98e0bE', symObjAddr: 0x5150, symBinAddr: 0x3ECA0, symSize: 0x110 }
  - { offsetInCU: 0x1C815, offset: 0x1402F8, size: 0x8, addend: 0x0, symName: '__ZN4core3ptr58drop_in_place$LT$alloc..vec..Vec$LT$syn..expr..Arm$GT$$GT$17h2debc58bdfc8eaf4E', symObjAddr: 0x5260, symBinAddr: 0x3EDB0, symSize: 0xD0 }
  - { offsetInCU: 0x1CAD5, offset: 0x1405B8, size: 0x8, addend: 0x0, symName: '__ZN4core3ptr59drop_in_place$LT$alloc..boxed..Box$LT$syn..pat..Pat$GT$$GT$17h0e6545e79fcf3f63E', symObjAddr: 0x5330, symBinAddr: 0x3EE80, symSize: 0x50 }
  - { offsetInCU: 0x1CC2E, offset: 0x140711, size: 0x8, addend: 0x0, symName: '__ZN4core3ptr59drop_in_place$LT$alloc..boxed..Box$LT$syn..ty..Type$GT$$GT$17hb893d541d08e2c14E', symObjAddr: 0x5380, symBinAddr: 0x3EED0, symSize: 0x50 }
  - { offsetInCU: 0x1CD87, offset: 0x14086A, size: 0x8, addend: 0x0, symName: '__ZN4core3ptr61drop_in_place$LT$alloc..boxed..Box$LT$syn..expr..Expr$GT$$GT$17hc3bc773a9b5b0963E', symObjAddr: 0x53D0, symBinAddr: 0x3EF20, symSize: 0x50 }
  - { offsetInCU: 0x1CEE0, offset: 0x1409C3, size: 0x8, addend: 0x0, symName: '__ZN4core3ptr61drop_in_place$LT$syn..path..ParenthesizedGenericArguments$GT$17h67c96b4a00cd3423E', symObjAddr: 0x5420, symBinAddr: 0x3EF70, symSize: 0x170 }
  - { offsetInCU: 0x1D4E9, offset: 0x140FCC, size: 0x8, addend: 0x0, symName: '__ZN4core3ptr63drop_in_place$LT$alloc..boxed..Box$LT$syn..lit..LitRepr$GT$$GT$17hb863103fb34ab3c9E', symObjAddr: 0x5590, symBinAddr: 0x3F0E0, symSize: 0x60 }
  - { offsetInCU: 0x1D7F0, offset: 0x1412D3, size: 0x8, addend: 0x0, symName: '__ZN4core3ptr64drop_in_place$LT$alloc..boxed..Box$LT$syn..pat..FieldPat$GT$$GT$17hc28bd15de5996666E', symObjAddr: 0x55F0, symBinAddr: 0x3F140, symSize: 0x140 }
  - { offsetInCU: 0x1DEBF, offset: 0x1419A2, size: 0x8, addend: 0x0, symName: '__ZN4core3ptr64drop_in_place$LT$alloc..boxed..Box$LT$syn..ty..BareFnArg$GT$$GT$17h12ccd287b0a3aa0cE', symObjAddr: 0x5730, symBinAddr: 0x3F280, symSize: 0x120 }
  - { offsetInCU: 0x1E407, offset: 0x141EEA, size: 0x8, addend: 0x0, symName: '__ZN4core3ptr65drop_in_place$LT$alloc..vec..Vec$LT$proc_macro..TokenTree$GT$$GT$17hb190bfae5092fefbE', symObjAddr: 0x5850, symBinAddr: 0x3F3A0, symSize: 0x110 }
  - { offsetInCU: 0x1E7FF, offset: 0x1422E2, size: 0x8, addend: 0x0, symName: '__ZN4core3ptr65drop_in_place$LT$core..option..Option$LT$syn..expr..Label$GT$$GT$17h602866846eca55bfE', symObjAddr: 0x5960, symBinAddr: 0x3F4B0, symSize: 0x30 }
  - { offsetInCU: 0x1E939, offset: 0x14241C, size: 0x8, addend: 0x0, symName: '__ZN4core3ptr66drop_in_place$LT$core..option..Option$LT$syn..ty..Variadic$GT$$GT$17hc2cf14495d5108c0E', symObjAddr: 0x5990, symBinAddr: 0x3F4E0, symSize: 0xD0 }
  - { offsetInCU: 0x1EC2F, offset: 0x142712, size: 0x8, addend: 0x0, symName: '__ZN4core3ptr67drop_in_place$LT$alloc..boxed..Box$LT$syn..expr..FieldValue$GT$$GT$17hffe2f6a0705c992bE', symObjAddr: 0x5A60, symBinAddr: 0x3F5B0, symSize: 0x120 }
  - { offsetInCU: 0x1F157, offset: 0x142C3A, size: 0x8, addend: 0x0, symName: '__ZN4core3ptr67drop_in_place$LT$core..option..Option$LT$proc_macro2..Ident$GT$$GT$17hb2aa3462afdbcb1cE.llvm.4194438328304756577', symObjAddr: 0x5B80, symBinAddr: 0x3F6D0, symSize: 0x30 }
  - { offsetInCU: 0x1F253, offset: 0x142D36, size: 0x8, addend: 0x0, symName: '__ZN4core3ptr72drop_in_place$LT$core..option..Option$LT$syn..lifetime..Lifetime$GT$$GT$17h65381fc2401cfd7cE', symObjAddr: 0x5BB0, symBinAddr: 0x3F700, symSize: 0x30 }
  - { offsetInCU: 0x1F36E, offset: 0x142E51, size: 0x8, addend: 0x0, symName: '__ZN4core3ptr75drop_in_place$LT$alloc..boxed..Box$LT$syn..generics..TypeParamBound$GT$$GT$17h69b9a1111abdff16E', symObjAddr: 0x5BE0, symBinAddr: 0x3F730, symSize: 0x170 }
  - { offsetInCU: 0x1F9DC, offset: 0x1434BF, size: 0x8, addend: 0x0, symName: '__ZN4core3ptr78drop_in_place$LT$alloc..boxed..Box$LT$syn..expr..GenericMethodArgument$GT$$GT$17h267fcbf26fe99c2dE', symObjAddr: 0x5D50, symBinAddr: 0x3F8A0, symSize: 0x60 }
  - { offsetInCU: 0x1FBCE, offset: 0x1436B1, size: 0x8, addend: 0x0, symName: '__ZN4core3ptr78drop_in_place$LT$core..option..Option$LT$syn..generics..BoundLifetimes$GT$$GT$17hbab9ed1255212575E', symObjAddr: 0x5DB0, symBinAddr: 0x3F900, symSize: 0x90 }
  - { offsetInCU: 0x1FEBC, offset: 0x14399F, size: 0x8, addend: 0x0, symName: '__ZN4core3ptr86drop_in_place$LT$syn..punctuated..Punctuated$LT$syn..pat..Pat$C$syn..token..Or$GT$$GT$17hef1dcce6dc9b3a22E', symObjAddr: 0x5E40, symBinAddr: 0x3F990, symSize: 0x120 }
  - { offsetInCU: 0x20337, offset: 0x143E1A, size: 0x8, addend: 0x0, symName: '__ZN4core3ptr87drop_in_place$LT$core..option..Option$LT$alloc..boxed..Box$LT$syn..pat..Pat$GT$$GT$$GT$17h0095d4d05d93e156E', symObjAddr: 0x5F60, symBinAddr: 0x3FAB0, symSize: 0x50 }
  - { offsetInCU: 0x204A7, offset: 0x143F8A, size: 0x8, addend: 0x0, symName: '__ZN4core3ptr87drop_in_place$LT$core..option..Option$LT$alloc..boxed..Box$LT$syn..ty..Type$GT$$GT$$GT$17h18d60ed91c1fd122E', symObjAddr: 0x5FB0, symBinAddr: 0x3FB00, symSize: 0x50 }
  - { offsetInCU: 0x20617, offset: 0x1440FA, size: 0x8, addend: 0x0, symName: '__ZN4core3ptr89drop_in_place$LT$core..option..Option$LT$alloc..boxed..Box$LT$syn..expr..Expr$GT$$GT$$GT$17he6a7099d3c692d2cE', symObjAddr: 0x6000, symBinAddr: 0x3FB50, symSize: 0x50 }
  - { offsetInCU: 0x207C5, offset: 0x1442A8, size: 0x8, addend: 0x0, symName: '__ZN4core3ptr89drop_in_place$LT$syn..punctuated..Punctuated$LT$syn..pat..Pat$C$syn..token..Comma$GT$$GT$17hd48fd64161b95ff4E', symObjAddr: 0x6050, symBinAddr: 0x3FBA0, symSize: 0x120 }
  - { offsetInCU: 0x20C95, offset: 0x144778, size: 0x8, addend: 0x0, symName: '__ZN4core3ptr91drop_in_place$LT$syn..punctuated..Punctuated$LT$syn..expr..Expr$C$syn..token..Comma$GT$$GT$17h93a748fba78cb228E', symObjAddr: 0x6170, symBinAddr: 0x3FCC0, symSize: 0x120 }
  - { offsetInCU: 0x21123, offset: 0x144C06, size: 0x8, addend: 0x0, symName: '__ZN4core3ptr94drop_in_place$LT$syn..punctuated..Punctuated$LT$syn..pat..FieldPat$C$syn..token..Comma$GT$$GT$17hec201a05602aaa8bE', symObjAddr: 0x6290, symBinAddr: 0x3FDE0, symSize: 0xF0 }
  - { offsetInCU: 0x21422, offset: 0x144F05, size: 0x8, addend: 0x0, symName: '__ZN4core3ptr94drop_in_place$LT$syn..punctuated..Punctuated$LT$syn..ty..BareFnArg$C$syn..token..Comma$GT$$GT$17hc02f23e04f80dd73E', symObjAddr: 0x6380, symBinAddr: 0x3FED0, symSize: 0x90 }
  - { offsetInCU: 0x21692, offset: 0x145175, size: 0x8, addend: 0x0, symName: '__ZN4core3ptr96drop_in_place$LT$core..option..Option$LT$alloc..boxed..Box$LT$syn..path..PathSegment$GT$$GT$$GT$17hf82b8699da43204eE', symObjAddr: 0x6410, symBinAddr: 0x3FF60, symSize: 0x180 }
  - { offsetInCU: 0x21D4F, offset: 0x145832, size: 0x8, addend: 0x0, symName: '__ZN4core3ptr97drop_in_place$LT$syn..punctuated..Punctuated$LT$syn..expr..FieldValue$C$syn..token..Comma$GT$$GT$17h133f4bc64ab84a52E', symObjAddr: 0x6590, symBinAddr: 0x400E0, symSize: 0x90 }
  - { offsetInCU: 0x2203B, offset: 0x145B1E, size: 0x8, addend: 0x0, symName: '__ZN4core3ptr97drop_in_place$LT$syn..punctuated..Punctuated$LT$syn..lifetime..Lifetime$C$syn..token..Add$GT$$GT$17he99654eb9e8fcd80E', symObjAddr: 0x6620, symBinAddr: 0x40170, symSize: 0xD0 }
  - { offsetInCU: 0x25934, offset: 0x149417, size: 0x8, addend: 0x0, symName: '__ZN3syn10punctuated23Punctuated$LT$T$C$P$GT$4push17h9226e2e0fbaa034aE', symObjAddr: 0x200, symBinAddr: 0x39DC0, symSize: 0x1C0 }
  - { offsetInCU: 0x1E, offset: 0x14C420, size: 0x8, addend: 0x0, symName: __ZN5alloc7raw_vec11finish_grow17h429637bc2ce30e8cE.llvm.9265936342968598313, symObjAddr: 0x0, symBinAddr: 0x40240, symSize: 0xA0 }
  - { offsetInCU: 0x3EAF, offset: 0x1502B1, size: 0x8, addend: 0x0, symName: __ZN5alloc7raw_vec11finish_grow17h429637bc2ce30e8cE.llvm.9265936342968598313, symObjAddr: 0x0, symBinAddr: 0x40240, symSize: 0xA0 }
  - { offsetInCU: 0x4287, offset: 0x150689, size: 0x8, addend: 0x0, symName: '__ZN5alloc7raw_vec19RawVec$LT$T$C$A$GT$7reserve21do_reserve_and_handle17h048471bc8bd611fdE', symObjAddr: 0x160, symBinAddr: 0x25B350, symSize: 0xA0 }
  - { offsetInCU: 0x5F33, offset: 0x152335, size: 0x8, addend: 0x0, symName: '__ZN5alloc7raw_vec19RawVec$LT$T$C$A$GT$8grow_one17h122901c806090841E', symObjAddr: 0x200, symBinAddr: 0x402E0, symSize: 0xC0 }
  - { offsetInCU: 0x6272, offset: 0x152674, size: 0x8, addend: 0x0, symName: '__ZN5alloc7raw_vec19RawVec$LT$T$C$A$GT$8grow_one17h27c7adc16f9c0192E', symObjAddr: 0x2C0, symBinAddr: 0x403A0, symSize: 0xA0 }
  - { offsetInCU: 0xB940, offset: 0x157D42, size: 0x8, addend: 0x0, symName: '__ZN5alloc7raw_vec19RawVec$LT$T$C$A$GT$8grow_one17h3d51ae9d6b362c34E', symObjAddr: 0x360, symBinAddr: 0x40440, symSize: 0xC0 }
  - { offsetInCU: 0xBE1B, offset: 0x15821D, size: 0x8, addend: 0x0, symName: '__ZN5alloc7raw_vec19RawVec$LT$T$C$A$GT$8grow_one17hb583556b4f78719fE', symObjAddr: 0x420, symBinAddr: 0x40500, symSize: 0xB0 }
  - { offsetInCU: 0x1E, offset: 0x15867E, size: 0x8, addend: 0x0, symName: '__ZN4core3ptr100drop_in_place$LT$core..option..Option$LT$alloc..boxed..Box$LT$syn..generics..LifetimeDef$GT$$GT$$GT$17h7210dd36d261d461E', symObjAddr: 0x0, symBinAddr: 0x405B0, symSize: 0x130 }
  - { offsetInCU: 0x9B, offset: 0x1586FB, size: 0x8, addend: 0x0, symName: '__ZN58_$LT$alloc..string..String$u20$as$u20$core..fmt..Write$GT$10write_char17h04bc467bd68a934bE', symObjAddr: 0x6470, symBinAddr: 0x46A20, symSize: 0x140 }
  - { offsetInCU: 0x4A1, offset: 0x158B01, size: 0x8, addend: 0x0, symName: '__ZN58_$LT$alloc..string..String$u20$as$u20$core..fmt..Write$GT$9write_str17h46a93205c3443fbaE', symObjAddr: 0x65B0, symBinAddr: 0x46B60, symSize: 0x60 }
  - { offsetInCU: 0x19C1, offset: 0x15A021, size: 0x8, addend: 0x0, symName: '__ZN4core3ptr100drop_in_place$LT$core..option..Option$LT$alloc..boxed..Box$LT$syn..generics..LifetimeDef$GT$$GT$$GT$17h7210dd36d261d461E', symObjAddr: 0x0, symBinAddr: 0x405B0, symSize: 0x130 }
  - { offsetInCU: 0x1F12, offset: 0x15A572, size: 0x8, addend: 0x0, symName: '__ZN4core3ptr100drop_in_place$LT$core..option..Option$LT$alloc..boxed..Box$LT$syn..path..GenericArgument$GT$$GT$$GT$17ha8d3d1c957e955fdE', symObjAddr: 0x130, symBinAddr: 0x406E0, symSize: 0x50 }
  - { offsetInCU: 0x21B8, offset: 0x15A818, size: 0x8, addend: 0x0, symName: '__ZN4core3ptr103drop_in_place$LT$syn..punctuated..Punctuated$LT$syn..generics..TypeParamBound$C$syn..token..Add$GT$$GT$17hd085404135892585E', symObjAddr: 0x180, symBinAddr: 0x40730, symSize: 0x230 }
  - { offsetInCU: 0x2BBC, offset: 0x15B21C, size: 0x8, addend: 0x0, symName: '__ZN4core3ptr108drop_in_place$LT$syn..punctuated..Punctuated$LT$syn..expr..GenericMethodArgument$C$syn..token..Comma$GT$$GT$17h22f960247d7ccab1E', symObjAddr: 0x3B0, symBinAddr: 0x40960, symSize: 0x150 }
  - { offsetInCU: 0x3115, offset: 0x15B775, size: 0x8, addend: 0x0, symName: '__ZN4core3ptr34drop_in_place$LT$syn..lit..Lit$GT$17h470f6c6d24056c53E', symObjAddr: 0x500, symBinAddr: 0x40AB0, symSize: 0x110 }
  - { offsetInCU: 0x3587, offset: 0x15BBE7, size: 0x8, addend: 0x0, symName: '__ZN4core3ptr34drop_in_place$LT$syn..pat..Pat$GT$17h38343a1049e28dd1E', symObjAddr: 0x610, symBinAddr: 0x40BC0, symSize: 0xED0 }
  - { offsetInCU: 0x6DA9, offset: 0x15F409, size: 0x8, addend: 0x0, symName: '__ZN4core3ptr34drop_in_place$LT$syn..ty..Type$GT$17h71c81d99bbba9d28E', symObjAddr: 0x14E0, symBinAddr: 0x41A90, symSize: 0x5E0 }
  - { offsetInCU: 0x83D5, offset: 0x160A35, size: 0x8, addend: 0x0, symName: '__ZN4core3ptr36drop_in_place$LT$syn..attr..Meta$GT$17h6ea3578394af1658E', symObjAddr: 0x1AC0, symBinAddr: 0x42070, symSize: 0xB0 }
  - { offsetInCU: 0x8AE4, offset: 0x161144, size: 0x8, addend: 0x0, symName: '__ZN4core3ptr36drop_in_place$LT$syn..expr..Expr$GT$17h8f71e2ca846afb7cE', symObjAddr: 0x1B70, symBinAddr: 0x42120, symSize: 0x2990 }
  - { offsetInCU: 0x126B8, offset: 0x16AD18, size: 0x8, addend: 0x0, symName: '__ZN4core3ptr36drop_in_place$LT$syn..mac..Macro$GT$17he383515a0d00696cE', symObjAddr: 0x4500, symBinAddr: 0x44AB0, symSize: 0x110 }
  - { offsetInCU: 0x12BD1, offset: 0x16B231, size: 0x8, addend: 0x0, symName: '__ZN4core3ptr36drop_in_place$LT$syn..path..Path$GT$17h16c1a1fb63164ca5E', symObjAddr: 0x4610, symBinAddr: 0x44BC0, symSize: 0x260 }
  - { offsetInCU: 0x1367A, offset: 0x16BCDA, size: 0x8, addend: 0x0, symName: '__ZN4core3ptr37drop_in_place$LT$syn..stmt..Block$GT$17ha02f694d20e8a90dE', symObjAddr: 0x4870, symBinAddr: 0x44E20, symSize: 0xD0 }
  - { offsetInCU: 0x13951, offset: 0x16BFB1, size: 0x8, addend: 0x0, symName: '__ZN4core3ptr38drop_in_place$LT$syn..expr..Member$GT$17hc7f3be6f8af0b2b4E', symObjAddr: 0x4940, symBinAddr: 0x44EF0, symSize: 0x30 }
  - { offsetInCU: 0x13A4D, offset: 0x16C0AD, size: 0x8, addend: 0x0, symName: '__ZN4core3ptr39drop_in_place$LT$proc_macro2..Ident$GT$17h4e4f59a2c1c84fafE', symObjAddr: 0x4970, symBinAddr: 0x44F20, symSize: 0x30 }
  - { offsetInCU: 0x13B2A, offset: 0x16C18A, size: 0x8, addend: 0x0, symName: '__ZN4core3ptr39drop_in_place$LT$syn..pat..PatTuple$GT$17hafa76b97343faa4aE', symObjAddr: 0x49A0, symBinAddr: 0x44F50, symSize: 0xE0 }
  - { offsetInCU: 0x13DFB, offset: 0x16C45B, size: 0x8, addend: 0x0, symName: '__ZN4core3ptr40drop_in_place$LT$syn..ty..ReturnType$GT$17hc0c6d2453c4b8a9cE', symObjAddr: 0x4A80, symBinAddr: 0x45030, symSize: 0x50 }
  - { offsetInCU: 0x13F6B, offset: 0x16C5CB, size: 0x8, addend: 0x0, symName: '__ZN4core3ptr42drop_in_place$LT$alloc..string..String$GT$17h59e37df313d5e7a5E', symObjAddr: 0x4AD0, symBinAddr: 0x45080, symSize: 0x20 }
  - { offsetInCU: 0x14073, offset: 0x16C6D3, size: 0x8, addend: 0x0, symName: '__ZN4core3ptr44drop_in_place$LT$syn..lifetime..Lifetime$GT$17h248f852b3e174177E', symObjAddr: 0x4AF0, symBinAddr: 0x450A0, symSize: 0x30 }
  - { offsetInCU: 0x142A5, offset: 0x16C905, size: 0x8, addend: 0x0, symName: '__ZN4core3ptr45drop_in_place$LT$proc_macro2..TokenStream$GT$17hb669a1876059cbcaE', symObjAddr: 0x4B20, symBinAddr: 0x450D0, symSize: 0x140 }
  - { offsetInCU: 0x14740, offset: 0x16CDA0, size: 0x8, addend: 0x0, symName: '__ZN4core3ptr47drop_in_place$LT$syn..path..GenericArgument$GT$17h2cef37900cc98e0bE', symObjAddr: 0x4C60, symBinAddr: 0x45210, symSize: 0x110 }
  - { offsetInCU: 0x14A6E, offset: 0x16D0CE, size: 0x8, addend: 0x0, symName: '__ZN4core3ptr58drop_in_place$LT$alloc..vec..Vec$LT$syn..expr..Arm$GT$$GT$17h2debc58bdfc8eaf4E', symObjAddr: 0x4D70, symBinAddr: 0x45320, symSize: 0xD0 }
  - { offsetInCU: 0x14D2E, offset: 0x16D38E, size: 0x8, addend: 0x0, symName: '__ZN4core3ptr59drop_in_place$LT$alloc..boxed..Box$LT$syn..pat..Pat$GT$$GT$17h0e6545e79fcf3f63E', symObjAddr: 0x4E40, symBinAddr: 0x453F0, symSize: 0x50 }
  - { offsetInCU: 0x14E87, offset: 0x16D4E7, size: 0x8, addend: 0x0, symName: '__ZN4core3ptr59drop_in_place$LT$alloc..boxed..Box$LT$syn..ty..Type$GT$$GT$17hb893d541d08e2c14E', symObjAddr: 0x4E90, symBinAddr: 0x45440, symSize: 0x50 }
  - { offsetInCU: 0x14FE0, offset: 0x16D640, size: 0x8, addend: 0x0, symName: '__ZN4core3ptr61drop_in_place$LT$alloc..boxed..Box$LT$syn..expr..Expr$GT$$GT$17hc3bc773a9b5b0963E', symObjAddr: 0x4EE0, symBinAddr: 0x45490, symSize: 0x50 }
  - { offsetInCU: 0x15139, offset: 0x16D799, size: 0x8, addend: 0x0, symName: '__ZN4core3ptr61drop_in_place$LT$syn..path..ParenthesizedGenericArguments$GT$17h67c96b4a00cd3423E', symObjAddr: 0x4F30, symBinAddr: 0x454E0, symSize: 0x170 }
  - { offsetInCU: 0x15742, offset: 0x16DDA2, size: 0x8, addend: 0x0, symName: '__ZN4core3ptr63drop_in_place$LT$alloc..boxed..Box$LT$syn..lit..LitRepr$GT$$GT$17hb863103fb34ab3c9E', symObjAddr: 0x50A0, symBinAddr: 0x45650, symSize: 0x60 }
  - { offsetInCU: 0x15A49, offset: 0x16E0A9, size: 0x8, addend: 0x0, symName: '__ZN4core3ptr64drop_in_place$LT$alloc..boxed..Box$LT$syn..pat..FieldPat$GT$$GT$17hc28bd15de5996666E', symObjAddr: 0x5100, symBinAddr: 0x456B0, symSize: 0x140 }
  - { offsetInCU: 0x16118, offset: 0x16E778, size: 0x8, addend: 0x0, symName: '__ZN4core3ptr64drop_in_place$LT$alloc..boxed..Box$LT$syn..ty..BareFnArg$GT$$GT$17h12ccd287b0a3aa0cE', symObjAddr: 0x5240, symBinAddr: 0x457F0, symSize: 0x120 }
  - { offsetInCU: 0x16660, offset: 0x16ECC0, size: 0x8, addend: 0x0, symName: '__ZN4core3ptr65drop_in_place$LT$alloc..vec..Vec$LT$proc_macro..TokenTree$GT$$GT$17hb190bfae5092fefbE', symObjAddr: 0x5360, symBinAddr: 0x45910, symSize: 0x110 }
  - { offsetInCU: 0x16A58, offset: 0x16F0B8, size: 0x8, addend: 0x0, symName: '__ZN4core3ptr65drop_in_place$LT$core..option..Option$LT$syn..expr..Label$GT$$GT$17h602866846eca55bfE', symObjAddr: 0x5470, symBinAddr: 0x45A20, symSize: 0x30 }
  - { offsetInCU: 0x16B92, offset: 0x16F1F2, size: 0x8, addend: 0x0, symName: '__ZN4core3ptr66drop_in_place$LT$core..option..Option$LT$syn..ty..Variadic$GT$$GT$17hc2cf14495d5108c0E', symObjAddr: 0x54A0, symBinAddr: 0x45A50, symSize: 0xD0 }
  - { offsetInCU: 0x16E88, offset: 0x16F4E8, size: 0x8, addend: 0x0, symName: '__ZN4core3ptr67drop_in_place$LT$alloc..boxed..Box$LT$syn..attr..NestedMeta$GT$$GT$17hf34124fd84efe498E', symObjAddr: 0x5570, symBinAddr: 0x45B20, symSize: 0x70 }
  - { offsetInCU: 0x1701D, offset: 0x16F67D, size: 0x8, addend: 0x0, symName: '__ZN4core3ptr67drop_in_place$LT$alloc..boxed..Box$LT$syn..expr..FieldValue$GT$$GT$17hffe2f6a0705c992bE', symObjAddr: 0x55E0, symBinAddr: 0x45B90, symSize: 0x120 }
  - { offsetInCU: 0x17564, offset: 0x16FBC4, size: 0x8, addend: 0x0, symName: '__ZN4core3ptr68drop_in_place$LT$alloc..vec..Vec$LT$proc_macro2..TokenStream$GT$$GT$17h4d22724d00081f9eE', symObjAddr: 0x5700, symBinAddr: 0x45CB0, symSize: 0xC0 }
  - { offsetInCU: 0x17822, offset: 0x16FE82, size: 0x8, addend: 0x0, symName: '__ZN4core3ptr72drop_in_place$LT$core..option..Option$LT$syn..lifetime..Lifetime$GT$$GT$17h65381fc2401cfd7cE', symObjAddr: 0x57C0, symBinAddr: 0x45D70, symSize: 0x30 }
  - { offsetInCU: 0x1793D, offset: 0x16FF9D, size: 0x8, addend: 0x0, symName: '__ZN4core3ptr75drop_in_place$LT$alloc..boxed..Box$LT$syn..generics..TypeParamBound$GT$$GT$17h69b9a1111abdff16E', symObjAddr: 0x57F0, symBinAddr: 0x45DA0, symSize: 0x170 }
  - { offsetInCU: 0x17FAB, offset: 0x17060B, size: 0x8, addend: 0x0, symName: '__ZN4core3ptr78drop_in_place$LT$alloc..boxed..Box$LT$syn..expr..GenericMethodArgument$GT$$GT$17h267fcbf26fe99c2dE', symObjAddr: 0x5960, symBinAddr: 0x45F10, symSize: 0x60 }
  - { offsetInCU: 0x1819D, offset: 0x1707FD, size: 0x8, addend: 0x0, symName: '__ZN4core3ptr78drop_in_place$LT$core..option..Option$LT$syn..generics..BoundLifetimes$GT$$GT$17hbab9ed1255212575E', symObjAddr: 0x59C0, symBinAddr: 0x45F70, symSize: 0x90 }
  - { offsetInCU: 0x1848B, offset: 0x170AEB, size: 0x8, addend: 0x0, symName: '__ZN4core3ptr86drop_in_place$LT$syn..punctuated..Punctuated$LT$syn..pat..Pat$C$syn..token..Or$GT$$GT$17hef1dcce6dc9b3a22E', symObjAddr: 0x5A50, symBinAddr: 0x46000, symSize: 0x120 }
  - { offsetInCU: 0x18906, offset: 0x170F66, size: 0x8, addend: 0x0, symName: '__ZN4core3ptr87drop_in_place$LT$core..option..Option$LT$alloc..boxed..Box$LT$syn..pat..Pat$GT$$GT$$GT$17h0095d4d05d93e156E', symObjAddr: 0x5B70, symBinAddr: 0x46120, symSize: 0x50 }
  - { offsetInCU: 0x18A76, offset: 0x1710D6, size: 0x8, addend: 0x0, symName: '__ZN4core3ptr87drop_in_place$LT$core..option..Option$LT$alloc..boxed..Box$LT$syn..ty..Type$GT$$GT$$GT$17h18d60ed91c1fd122E', symObjAddr: 0x5BC0, symBinAddr: 0x46170, symSize: 0x50 }
  - { offsetInCU: 0x18BE6, offset: 0x171246, size: 0x8, addend: 0x0, symName: '__ZN4core3ptr89drop_in_place$LT$core..option..Option$LT$alloc..boxed..Box$LT$syn..expr..Expr$GT$$GT$$GT$17he6a7099d3c692d2cE', symObjAddr: 0x5C10, symBinAddr: 0x461C0, symSize: 0x50 }
  - { offsetInCU: 0x18D94, offset: 0x1713F4, size: 0x8, addend: 0x0, symName: '__ZN4core3ptr89drop_in_place$LT$syn..punctuated..Punctuated$LT$syn..pat..Pat$C$syn..token..Comma$GT$$GT$17hd48fd64161b95ff4E', symObjAddr: 0x5C60, symBinAddr: 0x46210, symSize: 0x120 }
  - { offsetInCU: 0x19264, offset: 0x1718C4, size: 0x8, addend: 0x0, symName: '__ZN4core3ptr91drop_in_place$LT$syn..punctuated..Punctuated$LT$syn..expr..Expr$C$syn..token..Comma$GT$$GT$17h93a748fba78cb228E', symObjAddr: 0x5D80, symBinAddr: 0x46330, symSize: 0x120 }
  - { offsetInCU: 0x196F2, offset: 0x171D52, size: 0x8, addend: 0x0, symName: '__ZN4core3ptr94drop_in_place$LT$syn..punctuated..Punctuated$LT$syn..pat..FieldPat$C$syn..token..Comma$GT$$GT$17hec201a05602aaa8bE', symObjAddr: 0x5EA0, symBinAddr: 0x46450, symSize: 0xF0 }
  - { offsetInCU: 0x199F1, offset: 0x172051, size: 0x8, addend: 0x0, symName: '__ZN4core3ptr94drop_in_place$LT$syn..punctuated..Punctuated$LT$syn..ty..BareFnArg$C$syn..token..Comma$GT$$GT$17hc02f23e04f80dd73E', symObjAddr: 0x5F90, symBinAddr: 0x46540, symSize: 0x90 }
  - { offsetInCU: 0x19C61, offset: 0x1722C1, size: 0x8, addend: 0x0, symName: '__ZN4core3ptr96drop_in_place$LT$core..option..Option$LT$alloc..boxed..Box$LT$syn..path..PathSegment$GT$$GT$$GT$17hf82b8699da43204eE', symObjAddr: 0x6020, symBinAddr: 0x465D0, symSize: 0x180 }
  - { offsetInCU: 0x1A39A, offset: 0x1729FA, size: 0x8, addend: 0x0, symName: '__ZN4core3ptr97drop_in_place$LT$syn..punctuated..Punctuated$LT$syn..attr..NestedMeta$C$syn..token..Comma$GT$$GT$17ha2b6bb7381d8c8bfE', symObjAddr: 0x61A0, symBinAddr: 0x46750, symSize: 0x150 }
  - { offsetInCU: 0x1A83B, offset: 0x172E9B, size: 0x8, addend: 0x0, symName: '__ZN4core3ptr97drop_in_place$LT$syn..punctuated..Punctuated$LT$syn..expr..FieldValue$C$syn..token..Comma$GT$$GT$17h133f4bc64ab84a52E', symObjAddr: 0x62F0, symBinAddr: 0x468A0, symSize: 0x90 }
  - { offsetInCU: 0x1AB27, offset: 0x173187, size: 0x8, addend: 0x0, symName: '__ZN4core3ptr97drop_in_place$LT$syn..punctuated..Punctuated$LT$syn..lifetime..Lifetime$C$syn..token..Add$GT$$GT$17he99654eb9e8fcd80E', symObjAddr: 0x6380, symBinAddr: 0x46930, symSize: 0xD0 }
  - { offsetInCU: 0x1B328, offset: 0x173988, size: 0x8, addend: 0x0, symName: '__ZN53_$LT$core..fmt..Error$u20$as$u20$core..fmt..Debug$GT$3fmt17h03dc662ab152f3aeE', symObjAddr: 0x6450, symBinAddr: 0x46A00, symSize: 0x20 }
  - { offsetInCU: 0x1CEAD, offset: 0x17550D, size: 0x8, addend: 0x0, symName: __ZN28borsh_schema_derive_internal7helpers13contains_skip17h349106642dd2479aE, symObjAddr: 0x6610, symBinAddr: 0x46BC0, symSize: 0x320 }
  - { offsetInCU: 0x1D629, offset: 0x175C89, size: 0x8, addend: 0x0, symName: __ZN28borsh_schema_derive_internal7helpers11declaration17ha072ba9f0bef5109E, symObjAddr: 0x6930, symBinAddr: 0x46EE0, symSize: 0x91B }
  - { offsetInCU: 0x1E, offset: 0x1838F8, size: 0x8, addend: 0x0, symName: '__ZN4core3ptr39drop_in_place$LT$proc_macro2..Ident$GT$17h4e4f59a2c1c84fafE', symObjAddr: 0x0, symBinAddr: 0x47800, symSize: 0x30 }
  - { offsetInCU: 0x9B, offset: 0x183975, size: 0x8, addend: 0x0, symName: '__ZN58_$LT$alloc..string..String$u20$as$u20$core..fmt..Write$GT$10write_char17h04bc467bd68a934bE', symObjAddr: 0x380, symBinAddr: 0x47B80, symSize: 0x140 }
  - { offsetInCU: 0x4A0, offset: 0x183D7A, size: 0x8, addend: 0x0, symName: '__ZN58_$LT$alloc..string..String$u20$as$u20$core..fmt..Write$GT$9write_str17h46a93205c3443fbaE', symObjAddr: 0x4C0, symBinAddr: 0x47CC0, symSize: 0x60 }
  - { offsetInCU: 0x1406, offset: 0x184CE0, size: 0x8, addend: 0x0, symName: '__ZN4core3ptr39drop_in_place$LT$proc_macro2..Ident$GT$17h4e4f59a2c1c84fafE', symObjAddr: 0x0, symBinAddr: 0x47800, symSize: 0x30 }
  - { offsetInCU: 0x1521, offset: 0x184DFB, size: 0x8, addend: 0x0, symName: '__ZN4core3ptr42drop_in_place$LT$alloc..string..String$GT$17h59e37df313d5e7a5E', symObjAddr: 0x30, symBinAddr: 0x47830, symSize: 0x20 }
  - { offsetInCU: 0x175F, offset: 0x185039, size: 0x8, addend: 0x0, symName: '__ZN4core3ptr45drop_in_place$LT$proc_macro2..TokenStream$GT$17hb669a1876059cbcaE', symObjAddr: 0x50, symBinAddr: 0x47850, symSize: 0x140 }
  - { offsetInCU: 0x1BBC, offset: 0x185496, size: 0x8, addend: 0x0, symName: '__ZN4core3ptr65drop_in_place$LT$alloc..vec..Vec$LT$proc_macro..TokenTree$GT$$GT$17hb190bfae5092fefbE', symObjAddr: 0x190, symBinAddr: 0x47990, symSize: 0x110 }
  - { offsetInCU: 0x1FD3, offset: 0x1858AD, size: 0x8, addend: 0x0, symName: '__ZN4core3ptr68drop_in_place$LT$alloc..vec..Vec$LT$proc_macro2..TokenStream$GT$$GT$17h4d22724d00081f9eE', symObjAddr: 0x2A0, symBinAddr: 0x47AA0, symSize: 0xC0 }
  - { offsetInCU: 0x251F, offset: 0x185DF9, size: 0x8, addend: 0x0, symName: '__ZN53_$LT$core..fmt..Error$u20$as$u20$core..fmt..Debug$GT$3fmt17h03dc662ab152f3aeE', symObjAddr: 0x360, symBinAddr: 0x47B60, symSize: 0x20 }
  - { offsetInCU: 0x43B6, offset: 0x187C90, size: 0x8, addend: 0x0, symName: __ZN28borsh_schema_derive_internal13struct_schema14process_struct17h33fd2cace300e4a8E, symObjAddr: 0x520, symBinAddr: 0x47D20, symSize: 0x1E6A }
  - { offsetInCU: 0x1E, offset: 0x193446, size: 0x8, addend: 0x0, symName: __ZN3syn11parse_quote5parse17h9a5b77e485116954E, symObjAddr: 0x0, symBinAddr: 0x49B90, symSize: 0x470 }
  - { offsetInCU: 0x1CC4, offset: 0x1950EC, size: 0x8, addend: 0x0, symName: '__ZN4core3ptr100drop_in_place$LT$core..option..Option$LT$alloc..boxed..Box$LT$syn..generics..LifetimeDef$GT$$GT$$GT$17h7210dd36d261d461E', symObjAddr: 0x8F0, symBinAddr: 0x4A480, symSize: 0x130 }
  - { offsetInCU: 0x2215, offset: 0x19563D, size: 0x8, addend: 0x0, symName: '__ZN4core3ptr100drop_in_place$LT$core..option..Option$LT$alloc..boxed..Box$LT$syn..path..GenericArgument$GT$$GT$$GT$17ha8d3d1c957e955fdE', symObjAddr: 0xA20, symBinAddr: 0x4A5B0, symSize: 0x50 }
  - { offsetInCU: 0x24BB, offset: 0x1958E3, size: 0x8, addend: 0x0, symName: '__ZN4core3ptr103drop_in_place$LT$syn..punctuated..Punctuated$LT$syn..generics..TypeParamBound$C$syn..token..Add$GT$$GT$17hd085404135892585E', symObjAddr: 0xA70, symBinAddr: 0x4A600, symSize: 0x230 }
  - { offsetInCU: 0x2EBF, offset: 0x1962E7, size: 0x8, addend: 0x0, symName: '__ZN4core3ptr108drop_in_place$LT$syn..punctuated..Punctuated$LT$syn..expr..GenericMethodArgument$C$syn..token..Comma$GT$$GT$17h22f960247d7ccab1E', symObjAddr: 0xCA0, symBinAddr: 0x4A830, symSize: 0x150 }
  - { offsetInCU: 0x3418, offset: 0x196840, size: 0x8, addend: 0x0, symName: '__ZN4core3ptr34drop_in_place$LT$syn..lit..Lit$GT$17h470f6c6d24056c53E', symObjAddr: 0xDF0, symBinAddr: 0x4A980, symSize: 0x110 }
  - { offsetInCU: 0x388A, offset: 0x196CB2, size: 0x8, addend: 0x0, symName: '__ZN4core3ptr34drop_in_place$LT$syn..pat..Pat$GT$17h38343a1049e28dd1E', symObjAddr: 0xF00, symBinAddr: 0x4AA90, symSize: 0xED0 }
  - { offsetInCU: 0x70AC, offset: 0x19A4D4, size: 0x8, addend: 0x0, symName: '__ZN4core3ptr34drop_in_place$LT$syn..ty..Type$GT$17h71c81d99bbba9d28E', symObjAddr: 0x1DD0, symBinAddr: 0x4B960, symSize: 0x5E0 }
  - { offsetInCU: 0x8D43, offset: 0x19C16B, size: 0x8, addend: 0x0, symName: '__ZN4core3ptr36drop_in_place$LT$syn..expr..Expr$GT$17h8f71e2ca846afb7cE', symObjAddr: 0x23B0, symBinAddr: 0x4BF40, symSize: 0x2990 }
  - { offsetInCU: 0x12917, offset: 0x1A5D3F, size: 0x8, addend: 0x0, symName: '__ZN4core3ptr36drop_in_place$LT$syn..mac..Macro$GT$17he383515a0d00696cE', symObjAddr: 0x4D40, symBinAddr: 0x4E8D0, symSize: 0x110 }
  - { offsetInCU: 0x12E30, offset: 0x1A6258, size: 0x8, addend: 0x0, symName: '__ZN4core3ptr36drop_in_place$LT$syn..path..Path$GT$17h16c1a1fb63164ca5E', symObjAddr: 0x4E50, symBinAddr: 0x4E9E0, symSize: 0x260 }
  - { offsetInCU: 0x138D9, offset: 0x1A6D01, size: 0x8, addend: 0x0, symName: '__ZN4core3ptr37drop_in_place$LT$syn..stmt..Block$GT$17ha02f694d20e8a90dE', symObjAddr: 0x50B0, symBinAddr: 0x4EC40, symSize: 0xD0 }
  - { offsetInCU: 0x13BEE, offset: 0x1A7016, size: 0x8, addend: 0x0, symName: '__ZN4core3ptr38drop_in_place$LT$syn..error..Error$GT$17h225a7d4b1dc97086E', symObjAddr: 0x5180, symBinAddr: 0x4ED10, symSize: 0x80 }
  - { offsetInCU: 0x13EAD, offset: 0x1A72D5, size: 0x8, addend: 0x0, symName: '__ZN4core3ptr38drop_in_place$LT$syn..expr..Member$GT$17hc7f3be6f8af0b2b4E', symObjAddr: 0x5200, symBinAddr: 0x4ED90, symSize: 0x30 }
  - { offsetInCU: 0x13FA9, offset: 0x1A73D1, size: 0x8, addend: 0x0, symName: '__ZN4core3ptr39drop_in_place$LT$proc_macro2..Ident$GT$17h4e4f59a2c1c84fafE', symObjAddr: 0x5230, symBinAddr: 0x4EDC0, symSize: 0x30 }
  - { offsetInCU: 0x141BC, offset: 0x1A75E4, size: 0x8, addend: 0x0, symName: '__ZN4core3ptr39drop_in_place$LT$syn..buffer..Entry$GT$17h633d18f74d52b475E', symObjAddr: 0x5260, symBinAddr: 0x4EDF0, symSize: 0xB0 }
  - { offsetInCU: 0x14547, offset: 0x1A796F, size: 0x8, addend: 0x0, symName: '__ZN4core3ptr39drop_in_place$LT$syn..pat..PatTuple$GT$17hafa76b97343faa4aE', symObjAddr: 0x5310, symBinAddr: 0x4EEA0, symSize: 0xE0 }
  - { offsetInCU: 0x14818, offset: 0x1A7C40, size: 0x8, addend: 0x0, symName: '__ZN4core3ptr40drop_in_place$LT$syn..ty..ReturnType$GT$17hc0c6d2453c4b8a9cE', symObjAddr: 0x53F0, symBinAddr: 0x4EF80, symSize: 0x50 }
  - { offsetInCU: 0x14988, offset: 0x1A7DB0, size: 0x8, addend: 0x0, symName: '__ZN4core3ptr44drop_in_place$LT$syn..lifetime..Lifetime$GT$17h248f852b3e174177E', symObjAddr: 0x5440, symBinAddr: 0x4EFD0, symSize: 0x30 }
  - { offsetInCU: 0x14A84, offset: 0x1A7EAC, size: 0x8, addend: 0x0, symName: '__ZN4core3ptr44drop_in_place$LT$syn..parse..ParseBuffer$GT$17hf087866abc0a3d4cE', symObjAddr: 0x5470, symBinAddr: 0x4F000, symSize: 0x70 }
  - { offsetInCU: 0x14E00, offset: 0x1A8228, size: 0x8, addend: 0x0, symName: '__ZN4core3ptr45drop_in_place$LT$proc_macro2..TokenStream$GT$17hb669a1876059cbcaE', symObjAddr: 0x54E0, symBinAddr: 0x4F070, symSize: 0x140 }
  - { offsetInCU: 0x1525C, offset: 0x1A8684, size: 0x8, addend: 0x0, symName: '__ZN4core3ptr45drop_in_place$LT$syn..buffer..TokenBuffer$GT$17h67ce40edaaafe03aE', symObjAddr: 0x5620, symBinAddr: 0x4F1B0, symSize: 0xC0 }
  - { offsetInCU: 0x154C4, offset: 0x1A88EC, size: 0x8, addend: 0x0, symName: '__ZN4core3ptr47drop_in_place$LT$syn..path..GenericArgument$GT$17h2cef37900cc98e0bE', symObjAddr: 0x56E0, symBinAddr: 0x4F270, symSize: 0x110 }
  - { offsetInCU: 0x157F2, offset: 0x1A8C1A, size: 0x8, addend: 0x0, symName: '__ZN4core3ptr58drop_in_place$LT$alloc..vec..Vec$LT$syn..expr..Arm$GT$$GT$17h2debc58bdfc8eaf4E', symObjAddr: 0x57F0, symBinAddr: 0x4F380, symSize: 0xD0 }
  - { offsetInCU: 0x15AB2, offset: 0x1A8EDA, size: 0x8, addend: 0x0, symName: '__ZN4core3ptr59drop_in_place$LT$alloc..boxed..Box$LT$syn..pat..Pat$GT$$GT$17h0e6545e79fcf3f63E', symObjAddr: 0x58C0, symBinAddr: 0x4F450, symSize: 0x50 }
  - { offsetInCU: 0x15C0B, offset: 0x1A9033, size: 0x8, addend: 0x0, symName: '__ZN4core3ptr59drop_in_place$LT$alloc..boxed..Box$LT$syn..ty..Type$GT$$GT$17hb893d541d08e2c14E', symObjAddr: 0x5910, symBinAddr: 0x4F4A0, symSize: 0x50 }
  - { offsetInCU: 0x15D64, offset: 0x1A918C, size: 0x8, addend: 0x0, symName: '__ZN4core3ptr61drop_in_place$LT$alloc..boxed..Box$LT$syn..expr..Expr$GT$$GT$17hc3bc773a9b5b0963E', symObjAddr: 0x5960, symBinAddr: 0x4F4F0, symSize: 0x50 }
  - { offsetInCU: 0x15EBD, offset: 0x1A92E5, size: 0x8, addend: 0x0, symName: '__ZN4core3ptr61drop_in_place$LT$syn..path..ParenthesizedGenericArguments$GT$17h67c96b4a00cd3423E', symObjAddr: 0x59B0, symBinAddr: 0x4F540, symSize: 0x170 }
  - { offsetInCU: 0x164C6, offset: 0x1A98EE, size: 0x8, addend: 0x0, symName: '__ZN4core3ptr63drop_in_place$LT$alloc..boxed..Box$LT$syn..lit..LitRepr$GT$$GT$17hb863103fb34ab3c9E', symObjAddr: 0x5B20, symBinAddr: 0x4F6B0, symSize: 0x60 }
  - { offsetInCU: 0x167CD, offset: 0x1A9BF5, size: 0x8, addend: 0x0, symName: '__ZN4core3ptr64drop_in_place$LT$alloc..boxed..Box$LT$syn..pat..FieldPat$GT$$GT$17hc28bd15de5996666E', symObjAddr: 0x5B80, symBinAddr: 0x4F710, symSize: 0x140 }
  - { offsetInCU: 0x16E9C, offset: 0x1AA2C4, size: 0x8, addend: 0x0, symName: '__ZN4core3ptr64drop_in_place$LT$alloc..boxed..Box$LT$syn..ty..BareFnArg$GT$$GT$17h12ccd287b0a3aa0cE', symObjAddr: 0x5CC0, symBinAddr: 0x4F850, symSize: 0x120 }
  - { offsetInCU: 0x173E4, offset: 0x1AA80C, size: 0x8, addend: 0x0, symName: '__ZN4core3ptr65drop_in_place$LT$alloc..vec..Vec$LT$proc_macro..TokenTree$GT$$GT$17hb190bfae5092fefbE', symObjAddr: 0x5DE0, symBinAddr: 0x4F970, symSize: 0x110 }
  - { offsetInCU: 0x177DC, offset: 0x1AAC04, size: 0x8, addend: 0x0, symName: '__ZN4core3ptr65drop_in_place$LT$core..option..Option$LT$syn..expr..Label$GT$$GT$17h602866846eca55bfE', symObjAddr: 0x5EF0, symBinAddr: 0x4FA80, symSize: 0x30 }
  - { offsetInCU: 0x17916, offset: 0x1AAD3E, size: 0x8, addend: 0x0, symName: '__ZN4core3ptr66drop_in_place$LT$core..option..Option$LT$syn..ty..Variadic$GT$$GT$17hc2cf14495d5108c0E', symObjAddr: 0x5F20, symBinAddr: 0x4FAB0, symSize: 0xD0 }
  - { offsetInCU: 0x17C0C, offset: 0x1AB034, size: 0x8, addend: 0x0, symName: '__ZN4core3ptr67drop_in_place$LT$alloc..boxed..Box$LT$syn..expr..FieldValue$GT$$GT$17hffe2f6a0705c992bE', symObjAddr: 0x5FF0, symBinAddr: 0x4FB80, symSize: 0x120 }
  - { offsetInCU: 0x18134, offset: 0x1AB55C, size: 0x8, addend: 0x0, symName: '__ZN4core3ptr72drop_in_place$LT$core..option..Option$LT$syn..lifetime..Lifetime$GT$$GT$17h65381fc2401cfd7cE', symObjAddr: 0x6110, symBinAddr: 0x4FCA0, symSize: 0x30 }
  - { offsetInCU: 0x1824F, offset: 0x1AB677, size: 0x8, addend: 0x0, symName: '__ZN4core3ptr75drop_in_place$LT$alloc..boxed..Box$LT$syn..generics..TypeParamBound$GT$$GT$17h69b9a1111abdff16E', symObjAddr: 0x6140, symBinAddr: 0x4FCD0, symSize: 0x170 }
  - { offsetInCU: 0x188BD, offset: 0x1ABCE5, size: 0x8, addend: 0x0, symName: '__ZN4core3ptr78drop_in_place$LT$alloc..boxed..Box$LT$syn..expr..GenericMethodArgument$GT$$GT$17h267fcbf26fe99c2dE', symObjAddr: 0x62B0, symBinAddr: 0x4FE40, symSize: 0x60 }
  - { offsetInCU: 0x18AAF, offset: 0x1ABED7, size: 0x8, addend: 0x0, symName: '__ZN4core3ptr78drop_in_place$LT$core..option..Option$LT$syn..generics..BoundLifetimes$GT$$GT$17hbab9ed1255212575E', symObjAddr: 0x6310, symBinAddr: 0x4FEA0, symSize: 0x90 }
  - { offsetInCU: 0x18D9D, offset: 0x1AC1C5, size: 0x8, addend: 0x0, symName: '__ZN4core3ptr86drop_in_place$LT$syn..punctuated..Punctuated$LT$syn..pat..Pat$C$syn..token..Or$GT$$GT$17hef1dcce6dc9b3a22E', symObjAddr: 0x63A0, symBinAddr: 0x4FF30, symSize: 0x120 }
  - { offsetInCU: 0x19218, offset: 0x1AC640, size: 0x8, addend: 0x0, symName: '__ZN4core3ptr87drop_in_place$LT$core..option..Option$LT$alloc..boxed..Box$LT$syn..pat..Pat$GT$$GT$$GT$17h0095d4d05d93e156E', symObjAddr: 0x64C0, symBinAddr: 0x50050, symSize: 0x50 }
  - { offsetInCU: 0x19388, offset: 0x1AC7B0, size: 0x8, addend: 0x0, symName: '__ZN4core3ptr87drop_in_place$LT$core..option..Option$LT$alloc..boxed..Box$LT$syn..ty..Type$GT$$GT$$GT$17h18d60ed91c1fd122E', symObjAddr: 0x6510, symBinAddr: 0x500A0, symSize: 0x50 }
  - { offsetInCU: 0x194F8, offset: 0x1AC920, size: 0x8, addend: 0x0, symName: '__ZN4core3ptr89drop_in_place$LT$core..option..Option$LT$alloc..boxed..Box$LT$syn..expr..Expr$GT$$GT$$GT$17he6a7099d3c692d2cE', symObjAddr: 0x6560, symBinAddr: 0x500F0, symSize: 0x50 }
  - { offsetInCU: 0x196A6, offset: 0x1ACACE, size: 0x8, addend: 0x0, symName: '__ZN4core3ptr89drop_in_place$LT$syn..punctuated..Punctuated$LT$syn..pat..Pat$C$syn..token..Comma$GT$$GT$17hd48fd64161b95ff4E', symObjAddr: 0x65B0, symBinAddr: 0x50140, symSize: 0x120 }
  - { offsetInCU: 0x19B76, offset: 0x1ACF9E, size: 0x8, addend: 0x0, symName: '__ZN4core3ptr91drop_in_place$LT$syn..punctuated..Punctuated$LT$syn..expr..Expr$C$syn..token..Comma$GT$$GT$17h93a748fba78cb228E', symObjAddr: 0x66D0, symBinAddr: 0x50260, symSize: 0x120 }
  - { offsetInCU: 0x1A004, offset: 0x1AD42C, size: 0x8, addend: 0x0, symName: '__ZN4core3ptr94drop_in_place$LT$syn..punctuated..Punctuated$LT$syn..pat..FieldPat$C$syn..token..Comma$GT$$GT$17hec201a05602aaa8bE', symObjAddr: 0x67F0, symBinAddr: 0x50380, symSize: 0xF0 }
  - { offsetInCU: 0x1A303, offset: 0x1AD72B, size: 0x8, addend: 0x0, symName: '__ZN4core3ptr94drop_in_place$LT$syn..punctuated..Punctuated$LT$syn..ty..BareFnArg$C$syn..token..Comma$GT$$GT$17hc02f23e04f80dd73E', symObjAddr: 0x68E0, symBinAddr: 0x50470, symSize: 0x90 }
  - { offsetInCU: 0x1A573, offset: 0x1AD99B, size: 0x8, addend: 0x0, symName: '__ZN4core3ptr96drop_in_place$LT$core..option..Option$LT$alloc..boxed..Box$LT$syn..path..PathSegment$GT$$GT$$GT$17hf82b8699da43204eE', symObjAddr: 0x6970, symBinAddr: 0x50500, symSize: 0x180 }
  - { offsetInCU: 0x1AC30, offset: 0x1AE058, size: 0x8, addend: 0x0, symName: '__ZN4core3ptr97drop_in_place$LT$syn..punctuated..Punctuated$LT$syn..expr..FieldValue$C$syn..token..Comma$GT$$GT$17h133f4bc64ab84a52E', symObjAddr: 0x6AF0, symBinAddr: 0x50680, symSize: 0x90 }
  - { offsetInCU: 0x1AF1C, offset: 0x1AE344, size: 0x8, addend: 0x0, symName: '__ZN4core3ptr97drop_in_place$LT$syn..punctuated..Punctuated$LT$syn..lifetime..Lifetime$C$syn..token..Add$GT$$GT$17he99654eb9e8fcd80E', symObjAddr: 0x6B80, symBinAddr: 0x50710, symSize: 0xC6 }
  - { offsetInCU: 0x22A65, offset: 0x1B5E8D, size: 0x8, addend: 0x0, symName: __ZN3syn11parse_quote5parse17h9a5b77e485116954E, symObjAddr: 0x0, symBinAddr: 0x49B90, symSize: 0x470 }
  - { offsetInCU: 0x232DD, offset: 0x1B6705, size: 0x8, addend: 0x0, symName: __ZN3syn11parse_quote5parse17hf0421810545f85e2E, symObjAddr: 0x470, symBinAddr: 0x4A000, symSize: 0x480 }
  - { offsetInCU: 0x1E, offset: 0x1BC551, size: 0x8, addend: 0x0, symName: '__ZN4core3ptr73drop_in_place$LT$core..cell..UnsafeCell$LT$syn..parse..Unexpected$GT$$GT$17h7f906180eaa469e4E.llvm.6374169351498878481', symObjAddr: 0x0, symBinAddr: 0x507E0, symSize: 0x50 }
  - { offsetInCU: 0xB7D, offset: 0x1BD0B0, size: 0x8, addend: 0x0, symName: '__ZN4core3ptr73drop_in_place$LT$core..cell..UnsafeCell$LT$syn..parse..Unexpected$GT$$GT$17h7f906180eaa469e4E.llvm.6374169351498878481', symObjAddr: 0x0, symBinAddr: 0x507E0, symSize: 0x50 }
  - { offsetInCU: 0x171C, offset: 0x1BDC4F, size: 0x8, addend: 0x0, symName: '__ZN68_$LT$alloc..rc..Rc$LT$T$C$A$GT$$u20$as$u20$core..ops..drop..Drop$GT$4drop17h63e1c2c7d5c7d800E', symObjAddr: 0x100, symBinAddr: 0x50830, symSize: 0xE0 }
  - { offsetInCU: 0x1C3D, offset: 0x1BE170, size: 0x8, addend: 0x0, symName: '__ZN68_$LT$alloc..rc..Rc$LT$T$C$A$GT$$u20$as$u20$core..ops..drop..Drop$GT$4drop17h6643ac6fa849d1f1E', symObjAddr: 0x1E0, symBinAddr: 0x50910, symSize: 0x40 }
  - { offsetInCU: 0x2149, offset: 0x1BE67C, size: 0x8, addend: 0x0, symName: '__ZN80_$LT$alloc..rc..UniqueRcUninit$LT$T$C$A$GT$$u20$as$u20$core..ops..drop..Drop$GT$4drop17h092266ffeb03f969E', symObjAddr: 0x220, symBinAddr: 0x50950, symSize: 0x4F }
  - { offsetInCU: 0x1E, offset: 0x1BF0EB, size: 0x8, addend: 0x0, symName: __ZN4core3fmt5Write9write_fmt17habb91a18865847caE, symObjAddr: 0x0, symBinAddr: 0x509A0, symSize: 0x20 }
  - { offsetInCU: 0x98, offset: 0x1BF165, size: 0x8, addend: 0x0, symName: '__ZN58_$LT$alloc..string..String$u20$as$u20$core..fmt..Write$GT$10write_char17h04bc467bd68a934bE', symObjAddr: 0x40, symBinAddr: 0x509E0, symSize: 0x140 }
  - { offsetInCU: 0x49D, offset: 0x1BF56A, size: 0x8, addend: 0x0, symName: '__ZN58_$LT$alloc..string..String$u20$as$u20$core..fmt..Write$GT$9write_str17h46a93205c3443fbaE', symObjAddr: 0x180, symBinAddr: 0x50B20, symSize: 0x5B }
  - { offsetInCU: 0xAC1, offset: 0x1BFB8E, size: 0x8, addend: 0x0, symName: '__ZN4core3ptr42drop_in_place$LT$alloc..string..String$GT$17h59e37df313d5e7a5E', symObjAddr: 0x20, symBinAddr: 0x509C0, symSize: 0x20 }
  - { offsetInCU: 0xE54, offset: 0x1BFF21, size: 0x8, addend: 0x0, symName: __ZN4core3fmt5Write9write_fmt17habb91a18865847caE, symObjAddr: 0x0, symBinAddr: 0x509A0, symSize: 0x20 }
  - { offsetInCU: 0x1E, offset: 0x1C09D5, size: 0x8, addend: 0x0, symName: __ZN3syn5error5Error3new17h5f3da67f47adff83E, symObjAddr: 0x0, symBinAddr: 0x50B80, symSize: 0xF0 }
  - { offsetInCU: 0x35, offset: 0x1C09EC, size: 0x8, addend: 0x0, symName: _anon.c0fc717f3e8ae52b7f9d8b7a6a4c0f1f.0.llvm.14042011870914042460, symObjAddr: 0x300, symBinAddr: 0x2DC630, symSize: 0x0 }
  - { offsetInCU: 0x154, offset: 0x1C0B0B, size: 0x8, addend: 0x0, symName: '__ZN58_$LT$alloc..string..String$u20$as$u20$core..fmt..Write$GT$10write_char17h04bc467bd68a934bE.llvm.14042011870914042460', symObjAddr: 0x130, symBinAddr: 0x50CB0, symSize: 0x140 }
  - { offsetInCU: 0x559, offset: 0x1C0F10, size: 0x8, addend: 0x0, symName: '__ZN58_$LT$alloc..string..String$u20$as$u20$core..fmt..Write$GT$9write_str17h46a93205c3443fbaE.llvm.14042011870914042460', symObjAddr: 0x270, symBinAddr: 0x50DF0, symSize: 0x5B }
  - { offsetInCU: 0xCD1, offset: 0x1C1688, size: 0x8, addend: 0x0, symName: '__ZN4core3ptr42drop_in_place$LT$alloc..string..String$GT$17h59e37df313d5e7a5E.llvm.14042011870914042460', symObjAddr: 0xF0, symBinAddr: 0x50C70, symSize: 0x20 }
  - { offsetInCU: 0xF61, offset: 0x1C1918, size: 0x8, addend: 0x0, symName: '__ZN53_$LT$core..fmt..Error$u20$as$u20$core..fmt..Debug$GT$3fmt17h03dc662ab152f3aeE.llvm.14042011870914042460', symObjAddr: 0x110, symBinAddr: 0x50C90, symSize: 0x20 }
  - { offsetInCU: 0x12F4, offset: 0x1C1CAB, size: 0x8, addend: 0x0, symName: _anon.c0fc717f3e8ae52b7f9d8b7a6a4c0f1f.4.llvm.14042011870914042460, symObjAddr: 0x348, symBinAddr: 0x2DC678, symSize: 0x0 }
  - { offsetInCU: 0x164B, offset: 0x1C2002, size: 0x8, addend: 0x0, symName: __ZN3syn5error5Error3new17h5f3da67f47adff83E, symObjAddr: 0x0, symBinAddr: 0x50B80, symSize: 0xF0 }
  - { offsetInCU: 0x1E, offset: 0x1C2858, size: 0x8, addend: 0x0, symName: '__ZN120_$LT$proc_macro2..fallback..TokenStream$u20$as$u20$core..iter..traits..collect..Extend$LT$proc_macro2..TokenTree$GT$$GT$6extend17h95a221739e0058b9E', symObjAddr: 0x0, symBinAddr: 0x50E50, symSize: 0x280 }
  - { offsetInCU: 0x9AC, offset: 0x1C31E6, size: 0x8, addend: 0x0, symName: '__ZN120_$LT$proc_macro2..fallback..TokenStream$u20$as$u20$core..iter..traits..collect..Extend$LT$proc_macro2..TokenTree$GT$$GT$6extend17h95a221739e0058b9E', symObjAddr: 0x0, symBinAddr: 0x50E50, symSize: 0x280 }
  - { offsetInCU: 0x1B81, offset: 0x1C43BB, size: 0x8, addend: 0x0, symName: '__ZN4core3ptr45drop_in_place$LT$proc_macro2..TokenStream$GT$17hb669a1876059cbcaE', symObjAddr: 0x280, symBinAddr: 0x510D0, symSize: 0x140 }
  - { offsetInCU: 0x1FDD, offset: 0x1C4817, size: 0x8, addend: 0x0, symName: '__ZN4core3ptr56drop_in_place$LT$proc_macro2..token_stream..IntoIter$GT$17hc7a3e123abbdbfb7E', symObjAddr: 0x3C0, symBinAddr: 0x51210, symSize: 0x20 }
  - { offsetInCU: 0x208D, offset: 0x1C48C7, size: 0x8, addend: 0x0, symName: '__ZN4core3ptr65drop_in_place$LT$alloc..vec..Vec$LT$proc_macro..TokenTree$GT$$GT$17hb190bfae5092fefbE', symObjAddr: 0x3E0, symBinAddr: 0x51230, symSize: 0x107 }
  - { offsetInCU: 0x1E, offset: 0x1C65A3, size: 0x8, addend: 0x0, symName: '__ZN4core3ptr43drop_in_place$LT$proc_macro2..TokenTree$GT$17hce58c32617da2ca2E.llvm.5458889484128050895', symObjAddr: 0x0, symBinAddr: 0x51340, symSize: 0xB0 }
  - { offsetInCU: 0xF36, offset: 0x1C74BB, size: 0x8, addend: 0x0, symName: '__ZN4core3ptr43drop_in_place$LT$proc_macro2..TokenTree$GT$17hce58c32617da2ca2E.llvm.5458889484128050895', symObjAddr: 0x0, symBinAddr: 0x51340, symSize: 0xB0 }
  - { offsetInCU: 0x1BF6, offset: 0x1C817B, size: 0x8, addend: 0x0, symName: '__ZN86_$LT$alloc..vec..into_iter..IntoIter$LT$T$C$A$GT$$u20$as$u20$core..ops..drop..Drop$GT$4drop17h97e4f110781143d6E', symObjAddr: 0xB0, symBinAddr: 0x513F0, symSize: 0x110 }
  - { offsetInCU: 0x1FEC, offset: 0x1C8571, size: 0x8, addend: 0x0, symName: '__ZN86_$LT$alloc..vec..into_iter..IntoIter$LT$T$C$A$GT$$u20$as$u20$core..ops..drop..Drop$GT$4drop17ha436289cd8279037E', symObjAddr: 0x1C0, symBinAddr: 0x51500, symSize: 0xCD }
  - { offsetInCU: 0x1E, offset: 0x1C91D9, size: 0x8, addend: 0x0, symName: __ZN3std9panicking11begin_panic17hdd9b492fac2876dfE, symObjAddr: 0x0, symBinAddr: 0x25B3F0, symSize: 0x20 }
  - { offsetInCU: 0x7A7, offset: 0x1C9962, size: 0x8, addend: 0x0, symName: __ZN3std9panicking11begin_panic17hdd9b492fac2876dfE, symObjAddr: 0x0, symBinAddr: 0x25B3F0, symSize: 0x20 }
  - { offsetInCU: 0x803, offset: 0x1C99BE, size: 0x8, addend: 0x0, symName: '__ZN84_$LT$std..panicking..begin_panic..Payload$LT$A$GT$$u20$as$u20$core..fmt..Display$GT$3fmt17h88ed82331cb74c52E', symObjAddr: 0x20, symBinAddr: 0x515D0, symSize: 0x40 }
  - { offsetInCU: 0x870, offset: 0x1C9A2B, size: 0x8, addend: 0x0, symName: '__ZN91_$LT$std..panicking..begin_panic..Payload$LT$A$GT$$u20$as$u20$core..panic..PanicPayload$GT$3get17h03b6326f92e5f75eE', symObjAddr: 0x60, symBinAddr: 0x51610, symSize: 0x20 }
  - { offsetInCU: 0x8A8, offset: 0x1C9A63, size: 0x8, addend: 0x0, symName: '__ZN91_$LT$std..panicking..begin_panic..Payload$LT$A$GT$$u20$as$u20$core..panic..PanicPayload$GT$8take_box17h90f31df073eb2845E', symObjAddr: 0x80, symBinAddr: 0x51630, symSize: 0x5F }
  - { offsetInCU: 0x1E, offset: 0x1C9FB4, size: 0x8, addend: 0x0, symName: '__ZN115_$LT$proc_macro2..imp..TokenStream$u20$as$u20$core..iter..traits..collect..Extend$LT$proc_macro2..TokenTree$GT$$GT$6extend17h81b2bc7e0bb52e08E', symObjAddr: 0x0, symBinAddr: 0x51690, symSize: 0x110 }
  - { offsetInCU: 0x78B, offset: 0x1CA721, size: 0x8, addend: 0x0, symName: '__ZN115_$LT$proc_macro2..imp..TokenStream$u20$as$u20$core..iter..traits..collect..Extend$LT$proc_macro2..TokenTree$GT$$GT$6extend17h81b2bc7e0bb52e08E', symObjAddr: 0x0, symBinAddr: 0x51690, symSize: 0x110 }
  - { offsetInCU: 0x15DF, offset: 0x1CB575, size: 0x8, addend: 0x0, symName: '__ZN4core3ptr56drop_in_place$LT$proc_macro2..token_stream..IntoIter$GT$17hc7a3e123abbdbfb7E.llvm.16335589512046071236', symObjAddr: 0x110, symBinAddr: 0x517A0, symSize: 0x1C }
  - { offsetInCU: 0x1E, offset: 0x1CB8CA, size: 0x8, addend: 0x0, symName: '__ZN4core3ptr45drop_in_place$LT$proc_macro2..TokenStream$GT$17hb669a1876059cbcaE.llvm.15214446605691601875', symObjAddr: 0x0, symBinAddr: 0x517C0, symSize: 0x140 }
  - { offsetInCU: 0xB0B, offset: 0x1CC3B7, size: 0x8, addend: 0x0, symName: '__ZN4core3ptr45drop_in_place$LT$proc_macro2..TokenStream$GT$17hb669a1876059cbcaE.llvm.15214446605691601875', symObjAddr: 0x0, symBinAddr: 0x517C0, symSize: 0x140 }
  - { offsetInCU: 0xF67, offset: 0x1CC813, size: 0x8, addend: 0x0, symName: '__ZN4core3ptr65drop_in_place$LT$alloc..vec..Vec$LT$proc_macro..TokenTree$GT$$GT$17hb190bfae5092fefbE.llvm.15214446605691601875', symObjAddr: 0x140, symBinAddr: 0x51900, symSize: 0x110 }
  - { offsetInCU: 0x1E, offset: 0x1CD5E8, size: 0x8, addend: 0x0, symName: '__ZN4core3ptr45drop_in_place$LT$proc_macro2..TokenStream$GT$17hb669a1876059cbcaE.llvm.12180546896749852555', symObjAddr: 0x0, symBinAddr: 0x51A10, symSize: 0x140 }
  - { offsetInCU: 0xB2C, offset: 0x1CE0F6, size: 0x8, addend: 0x0, symName: '__ZN4core3ptr45drop_in_place$LT$proc_macro2..TokenStream$GT$17hb669a1876059cbcaE.llvm.12180546896749852555', symObjAddr: 0x0, symBinAddr: 0x51A10, symSize: 0x140 }
  - { offsetInCU: 0xF88, offset: 0x1CE552, size: 0x8, addend: 0x0, symName: '__ZN4core3ptr65drop_in_place$LT$alloc..vec..Vec$LT$proc_macro..TokenTree$GT$$GT$17hb190bfae5092fefbE.llvm.12180546896749852555', symObjAddr: 0x140, symBinAddr: 0x51B50, symSize: 0x110 }
  - { offsetInCU: 0x1E, offset: 0x1CF2E8, size: 0x8, addend: 0x0, symName: __ZN3std3sys9backtrace26__rust_end_short_backtrace17h291802b569da732eE, symObjAddr: 0x0, symBinAddr: 0x51C60, symSize: 0x10 }
  - { offsetInCU: 0x66, offset: 0x1CF330, size: 0x8, addend: 0x0, symName: '__ZN3std9panicking11begin_panic28_$u7b$$u7b$closure$u7d$$u7d$17ha8420ae604edfc88E', symObjAddr: 0x10, symBinAddr: 0x51C70, symSize: 0x40 }
  - { offsetInCU: 0xD7, offset: 0x1CF3A1, size: 0x8, addend: 0x0, symName: __ZN3std3sys9backtrace26__rust_end_short_backtrace17h291802b569da732eE, symObjAddr: 0x0, symBinAddr: 0x51C60, symSize: 0x10 }
  - { offsetInCU: 0x1BA, offset: 0x1CF484, size: 0x8, addend: 0x0, symName: __ZN4core5panic12PanicPayload6as_str17hdb5fb6a2ef950a75E, symObjAddr: 0x50, symBinAddr: 0x51CB0, symSize: 0x8 }
  - { offsetInCU: 0x1E, offset: 0x1CF539, size: 0x8, addend: 0x0, symName: '__ZN36_$LT$T$u20$as$u20$core..any..Any$GT$7type_id17h69d0ccc81ccd7047E', symObjAddr: 0x0, symBinAddr: 0x51CC0, symSize: 0x1A }
  - { offsetInCU: 0x3A, offset: 0x1CF555, size: 0x8, addend: 0x0, symName: '__ZN36_$LT$T$u20$as$u20$core..any..Any$GT$7type_id17h69d0ccc81ccd7047E', symObjAddr: 0x0, symBinAddr: 0x51CC0, symSize: 0x1A }
  - { offsetInCU: 0x1E, offset: 0x1CF626, size: 0x8, addend: 0x0, symName: '__ZN100_$LT$syn..punctuated..PrivateIter$LT$T$C$P$GT$$u20$as$u20$core..iter..traits..iterator..Iterator$GT$4next17h016b8a00045e7295E.llvm.3455615054391811990', symObjAddr: 0x0, symBinAddr: 0x51CE0, symSize: 0x30 }
  - { offsetInCU: 0x35, offset: 0x1CF63D, size: 0x8, addend: 0x0, symName: _anon.3eaa321061f228c22c295b450f8e8f75.4.llvm.3455615054391811990, symObjAddr: 0x9230, symBinAddr: 0x2DC750, symSize: 0x0 }
  - { offsetInCU: 0x789, offset: 0x1CFD91, size: 0x8, addend: 0x0, symName: '__ZN100_$LT$syn..punctuated..PrivateIter$LT$T$C$P$GT$$u20$as$u20$core..iter..traits..iterator..Iterator$GT$4next17h016b8a00045e7295E.llvm.3455615054391811990', symObjAddr: 0x0, symBinAddr: 0x51CE0, symSize: 0x30 }
  - { offsetInCU: 0xA03, offset: 0x1D000B, size: 0x8, addend: 0x0, symName: '__ZN100_$LT$syn..punctuated..PrivateIter$LT$T$C$P$GT$$u20$as$u20$core..iter..traits..iterator..Iterator$GT$4next17h348a07bc7c9602c5E.llvm.3455615054391811990', symObjAddr: 0x30, symBinAddr: 0x51D10, symSize: 0x30 }
  - { offsetInCU: 0xC7D, offset: 0x1D0285, size: 0x8, addend: 0x0, symName: '__ZN100_$LT$syn..punctuated..PrivateIter$LT$T$C$P$GT$$u20$as$u20$core..iter..traits..iterator..Iterator$GT$4next17h6244a525891fb771E.llvm.3455615054391811990', symObjAddr: 0x60, symBinAddr: 0x51D40, symSize: 0x30 }
  - { offsetInCU: 0xF8D, offset: 0x1D0595, size: 0x8, addend: 0x0, symName: '__ZN111_$LT$syn..punctuated..PrivateIter$LT$T$C$P$GT$$u20$as$u20$core..iter..traits..exact_size..ExactSizeIterator$GT$3len17hd28937b0ef25d80eE.llvm.3455615054391811990', symObjAddr: 0xF0, symBinAddr: 0x51D70, symSize: 0x30 }
  - { offsetInCU: 0x10FD, offset: 0x1D0705, size: 0x8, addend: 0x0, symName: '__ZN115_$LT$syn..punctuated..PrivateIter$LT$T$C$P$GT$$u20$as$u20$core..iter..traits..double_ended..DoubleEndedIterator$GT$9next_back17hd21cf70e62e3598bE.llvm.3455615054391811990', symObjAddr: 0x180, symBinAddr: 0x51DA0, symSize: 0x30 }
  - { offsetInCU: 0x146A, offset: 0x1D0A72, size: 0x8, addend: 0x0, symName: '__ZN57_$LT$I$u20$as$u20$syn..punctuated..IterTrait$LT$T$GT$$GT$9clone_box17hdb626d23d8d039e6E.llvm.3455615054391811990', symObjAddr: 0x8020, symBinAddr: 0x595C0, symSize: 0x60 }
  - { offsetInCU: 0x9F52, offset: 0x1D955A, size: 0x8, addend: 0x0, symName: '__ZN4core3ptr100drop_in_place$LT$core..option..Option$LT$alloc..boxed..Box$LT$syn..generics..LifetimeDef$GT$$GT$$GT$17h313ac39ae7c8b212E.llvm.3455615054391811990', symObjAddr: 0x4C0, symBinAddr: 0x51F90, symSize: 0x150 }
  - { offsetInCU: 0xA4CE, offset: 0x1D9AD6, size: 0x8, addend: 0x0, symName: '__ZN4core3ptr100drop_in_place$LT$core..option..Option$LT$alloc..boxed..Box$LT$syn..path..GenericArgument$GT$$GT$$GT$17hfa941d4dec6f2efbE', symObjAddr: 0x610, symBinAddr: 0x520E0, symSize: 0x50 }
  - { offsetInCU: 0xA69B, offset: 0x1D9CA3, size: 0x8, addend: 0x0, symName: '__ZN4core3ptr103drop_in_place$LT$core..option..Option$LT$alloc..boxed..Box$LT$syn..generics..TypeParamBound$GT$$GT$$GT$17h1263411d81252013E', symObjAddr: 0x660, symBinAddr: 0x52130, symSize: 0x90 }
  - { offsetInCU: 0xAA10, offset: 0x1DA018, size: 0x8, addend: 0x0, symName: '__ZN4core3ptr103drop_in_place$LT$syn..punctuated..Punctuated$LT$syn..generics..TypeParamBound$C$syn..token..Add$GT$$GT$17h466d1d1a44ad0379E.llvm.3455615054391811990', symObjAddr: 0x6F0, symBinAddr: 0x521C0, symSize: 0x200 }
  - { offsetInCU: 0xB2EE, offset: 0x1DA8F6, size: 0x8, addend: 0x0, symName: '__ZN4core3ptr108drop_in_place$LT$syn..punctuated..Punctuated$LT$syn..expr..GenericMethodArgument$C$syn..token..Comma$GT$$GT$17hf730185d8b64e063E', symObjAddr: 0x8F0, symBinAddr: 0x523C0, symSize: 0x150 }
  - { offsetInCU: 0xB847, offset: 0x1DAE4F, size: 0x8, addend: 0x0, symName: '__ZN4core3ptr34drop_in_place$LT$syn..lit..Lit$GT$17h21f7362ab9490569E', symObjAddr: 0xA40, symBinAddr: 0x52510, symSize: 0x110 }
  - { offsetInCU: 0xBCB9, offset: 0x1DB2C1, size: 0x8, addend: 0x0, symName: '__ZN4core3ptr34drop_in_place$LT$syn..pat..Pat$GT$17h5bc1a1a567df27bcE', symObjAddr: 0xB50, symBinAddr: 0x52620, symSize: 0x1190 }
  - { offsetInCU: 0xFBD1, offset: 0x1DF1D9, size: 0x8, addend: 0x0, symName: '__ZN4core3ptr34drop_in_place$LT$syn..ty..Type$GT$17hd086d8873def3a54E.llvm.3455615054391811990', symObjAddr: 0x1CE0, symBinAddr: 0x537B0, symSize: 0x540 }
  - { offsetInCU: 0x11459, offset: 0x1E0A61, size: 0x8, addend: 0x0, symName: '__ZN4core3ptr36drop_in_place$LT$syn..expr..Expr$GT$17had1b47d272065ea2E', symObjAddr: 0x2220, symBinAddr: 0x53CF0, symSize: 0x3240 }
  - { offsetInCU: 0x1BC54, offset: 0x1EB25C, size: 0x8, addend: 0x0, symName: '__ZN4core3ptr36drop_in_place$LT$syn..mac..Macro$GT$17h9e9b36a6ce40a59fE', symObjAddr: 0x5460, symBinAddr: 0x56F30, symSize: 0x40 }
  - { offsetInCU: 0x1BDA5, offset: 0x1EB3AD, size: 0x8, addend: 0x0, symName: '__ZN4core3ptr36drop_in_place$LT$syn..path..Path$GT$17h7ac94c7f3f056533E', symObjAddr: 0x54A0, symBinAddr: 0x56F70, symSize: 0x230 }
  - { offsetInCU: 0x1C73B, offset: 0x1EBD43, size: 0x8, addend: 0x0, symName: '__ZN4core3ptr37drop_in_place$LT$syn..stmt..Block$GT$17hdad34f283c5f1899E', symObjAddr: 0x56D0, symBinAddr: 0x571A0, symSize: 0xD0 }
  - { offsetInCU: 0x1CA12, offset: 0x1EC01A, size: 0x8, addend: 0x0, symName: '__ZN4core3ptr38drop_in_place$LT$syn..expr..Member$GT$17h91324a4146c85abdE', symObjAddr: 0x57A0, symBinAddr: 0x57270, symSize: 0x30 }
  - { offsetInCU: 0x1CB0E, offset: 0x1EC116, size: 0x8, addend: 0x0, symName: '__ZN4core3ptr39drop_in_place$LT$proc_macro2..Ident$GT$17hc6027ddaabe8aaa4E', symObjAddr: 0x57D0, symBinAddr: 0x572A0, symSize: 0x30 }
  - { offsetInCU: 0x1CBEB, offset: 0x1EC1F3, size: 0x8, addend: 0x0, symName: '__ZN4core3ptr39drop_in_place$LT$syn..pat..PatTuple$GT$17h2f53470caf5b3e6bE', symObjAddr: 0x5800, symBinAddr: 0x572D0, symSize: 0x100 }
  - { offsetInCU: 0x1CEF4, offset: 0x1EC4FC, size: 0x8, addend: 0x0, symName: '__ZN4core3ptr40drop_in_place$LT$syn..ty..ReturnType$GT$17h724058ca716ebe13E', symObjAddr: 0x5900, symBinAddr: 0x573D0, symSize: 0x50 }
  - { offsetInCU: 0x1D064, offset: 0x1EC66C, size: 0x8, addend: 0x0, symName: '__ZN4core3ptr44drop_in_place$LT$syn..lifetime..Lifetime$GT$17h5fab458505bc8750E', symObjAddr: 0x5950, symBinAddr: 0x57420, symSize: 0x30 }
  - { offsetInCU: 0x1D296, offset: 0x1EC89E, size: 0x8, addend: 0x0, symName: '__ZN4core3ptr45drop_in_place$LT$proc_macro2..TokenStream$GT$17h2af7239932044e06E', symObjAddr: 0x5980, symBinAddr: 0x57450, symSize: 0x140 }
  - { offsetInCU: 0x1D730, offset: 0x1ECD38, size: 0x8, addend: 0x0, symName: '__ZN4core3ptr47drop_in_place$LT$syn..path..GenericArgument$GT$17h22c70662371ace33E', symObjAddr: 0x5AC0, symBinAddr: 0x57590, symSize: 0x110 }
  - { offsetInCU: 0x1DAA8, offset: 0x1ED0B0, size: 0x8, addend: 0x0, symName: '__ZN4core3ptr50drop_in_place$LT$syn..generics..WherePredicate$GT$17h13c0cb9b98232da6E.llvm.3455615054391811990', symObjAddr: 0x5BD0, symBinAddr: 0x576A0, symSize: 0x100 }
  - { offsetInCU: 0x1DC2F, offset: 0x1ED237, size: 0x8, addend: 0x0, symName: '__ZN4core3ptr58drop_in_place$LT$alloc..vec..Vec$LT$syn..expr..Arm$GT$$GT$17hbfbf9069c4c2bcc1E', symObjAddr: 0x5CD0, symBinAddr: 0x577A0, symSize: 0xD0 }
  - { offsetInCU: 0x1DEEF, offset: 0x1ED4F7, size: 0x8, addend: 0x0, symName: '__ZN4core3ptr59drop_in_place$LT$alloc..boxed..Box$LT$syn..pat..Pat$GT$$GT$17h52b31062c14f366bE', symObjAddr: 0x5DA0, symBinAddr: 0x57870, symSize: 0x50 }
  - { offsetInCU: 0x1E048, offset: 0x1ED650, size: 0x8, addend: 0x0, symName: '__ZN4core3ptr59drop_in_place$LT$alloc..boxed..Box$LT$syn..ty..Type$GT$$GT$17h764865b58f907f45E', symObjAddr: 0x5DF0, symBinAddr: 0x578C0, symSize: 0x50 }
  - { offsetInCU: 0x1E1A1, offset: 0x1ED7A9, size: 0x8, addend: 0x0, symName: '__ZN4core3ptr61drop_in_place$LT$alloc..boxed..Box$LT$syn..expr..Expr$GT$$GT$17hba9d02c1545305ceE', symObjAddr: 0x5E40, symBinAddr: 0x57910, symSize: 0x50 }
  - { offsetInCU: 0x1E376, offset: 0x1ED97E, size: 0x8, addend: 0x0, symName: '__ZN4core3ptr61drop_in_place$LT$syn..path..ParenthesizedGenericArguments$GT$17ha784923ac14ba82dE', symObjAddr: 0x5E90, symBinAddr: 0x57960, symSize: 0x170 }
  - { offsetInCU: 0x1E96C, offset: 0x1EDF74, size: 0x8, addend: 0x0, symName: '__ZN4core3ptr63drop_in_place$LT$alloc..boxed..Box$LT$syn..lit..LitRepr$GT$$GT$17h3f36d4db46ac5751E', symObjAddr: 0x6000, symBinAddr: 0x57AD0, symSize: 0x60 }
  - { offsetInCU: 0x1EC73, offset: 0x1EE27B, size: 0x8, addend: 0x0, symName: '__ZN4core3ptr64drop_in_place$LT$alloc..boxed..Box$LT$syn..pat..FieldPat$GT$$GT$17hc72c632384877362E', symObjAddr: 0x6060, symBinAddr: 0x57B30, symSize: 0x180 }
  - { offsetInCU: 0x1F390, offset: 0x1EE998, size: 0x8, addend: 0x0, symName: '__ZN4core3ptr64drop_in_place$LT$alloc..boxed..Box$LT$syn..ty..BareFnArg$GT$$GT$17hbfda67d8bc6839c1E', symObjAddr: 0x61E0, symBinAddr: 0x57CB0, symSize: 0x160 }
  - { offsetInCU: 0x1F926, offset: 0x1EEF2E, size: 0x8, addend: 0x0, symName: '__ZN4core3ptr65drop_in_place$LT$alloc..vec..Vec$LT$proc_macro..TokenTree$GT$$GT$17hbe7f16cffb276184E', symObjAddr: 0x6340, symBinAddr: 0x57E10, symSize: 0x110 }
  - { offsetInCU: 0x1FD1E, offset: 0x1EF326, size: 0x8, addend: 0x0, symName: '__ZN4core3ptr65drop_in_place$LT$core..option..Option$LT$syn..expr..Label$GT$$GT$17he0a9c9821aa6b78cE', symObjAddr: 0x6450, symBinAddr: 0x57F20, symSize: 0x30 }
  - { offsetInCU: 0x1FE58, offset: 0x1EF460, size: 0x8, addend: 0x0, symName: '__ZN4core3ptr66drop_in_place$LT$core..option..Option$LT$syn..ty..Variadic$GT$$GT$17h744a26e2f12ebebcE', symObjAddr: 0x6480, symBinAddr: 0x57F50, symSize: 0xF0 }
  - { offsetInCU: 0x20182, offset: 0x1EF78A, size: 0x8, addend: 0x0, symName: '__ZN4core3ptr67drop_in_place$LT$alloc..boxed..Box$LT$syn..expr..FieldValue$GT$$GT$17h8035762dfa39d688E', symObjAddr: 0x6570, symBinAddr: 0x58040, symSize: 0x160 }
  - { offsetInCU: 0x20717, offset: 0x1EFD1F, size: 0x8, addend: 0x0, symName: '__ZN4core3ptr68drop_in_place$LT$alloc..boxed..Box$LT$syn..path..PathSegment$GT$$GT$17h2361de69c8671822E', symObjAddr: 0x66D0, symBinAddr: 0x581A0, symSize: 0x190 }
  - { offsetInCU: 0x20E40, offset: 0x1F0448, size: 0x8, addend: 0x0, symName: '__ZN4core3ptr72drop_in_place$LT$alloc..boxed..Box$LT$syn..path..GenericArgument$GT$$GT$17h5bbf5380dd6fa22fE', symObjAddr: 0x6860, symBinAddr: 0x58330, symSize: 0x1D0 }
  - { offsetInCU: 0x21567, offset: 0x1F0B6F, size: 0x8, addend: 0x0, symName: '__ZN4core3ptr72drop_in_place$LT$core..option..Option$LT$syn..lifetime..Lifetime$GT$$GT$17h73fca8e7f0aa197bE', symObjAddr: 0x6A30, symBinAddr: 0x58500, symSize: 0x30 }
  - { offsetInCU: 0x21682, offset: 0x1F0C8A, size: 0x8, addend: 0x0, symName: '__ZN4core3ptr75drop_in_place$LT$alloc..boxed..Box$LT$syn..generics..TypeParamBound$GT$$GT$17hea9af0ea491726e7E', symObjAddr: 0x6A60, symBinAddr: 0x58530, symSize: 0x140 }
  - { offsetInCU: 0x21BDD, offset: 0x1F11E5, size: 0x8, addend: 0x0, symName: '__ZN4core3ptr78drop_in_place$LT$alloc..boxed..Box$LT$syn..expr..GenericMethodArgument$GT$$GT$17hc898c291745edc1fE', symObjAddr: 0x6BA0, symBinAddr: 0x58670, symSize: 0x60 }
  - { offsetInCU: 0x21DCF, offset: 0x1F13D7, size: 0x8, addend: 0x0, symName: '__ZN4core3ptr78drop_in_place$LT$core..option..Option$LT$syn..generics..BoundLifetimes$GT$$GT$17hd25f8abb18bc7fa5E.llvm.3455615054391811990', symObjAddr: 0x6C00, symBinAddr: 0x586D0, symSize: 0x90 }
  - { offsetInCU: 0x220BD, offset: 0x1F16C5, size: 0x8, addend: 0x0, symName: '__ZN4core3ptr86drop_in_place$LT$syn..punctuated..Punctuated$LT$syn..pat..Pat$C$syn..token..Or$GT$$GT$17h25bbf223ac4cf0beE', symObjAddr: 0x6C90, symBinAddr: 0x58760, symSize: 0x120 }
  - { offsetInCU: 0x22538, offset: 0x1F1B40, size: 0x8, addend: 0x0, symName: '__ZN4core3ptr87drop_in_place$LT$core..option..Option$LT$alloc..boxed..Box$LT$syn..pat..Pat$GT$$GT$$GT$17hd9c075d7c1044d74E', symObjAddr: 0x6DB0, symBinAddr: 0x58880, symSize: 0x50 }
  - { offsetInCU: 0x226A8, offset: 0x1F1CB0, size: 0x8, addend: 0x0, symName: '__ZN4core3ptr87drop_in_place$LT$core..option..Option$LT$alloc..boxed..Box$LT$syn..ty..Type$GT$$GT$$GT$17h3b78a0016fdd0e69E', symObjAddr: 0x6E00, symBinAddr: 0x588D0, symSize: 0x50 }
  - { offsetInCU: 0x22818, offset: 0x1F1E20, size: 0x8, addend: 0x0, symName: '__ZN4core3ptr89drop_in_place$LT$core..option..Option$LT$alloc..boxed..Box$LT$syn..expr..Expr$GT$$GT$$GT$17h1af7f5bb8779605fE', symObjAddr: 0x6E50, symBinAddr: 0x58920, symSize: 0x50 }
  - { offsetInCU: 0x229C6, offset: 0x1F1FCE, size: 0x8, addend: 0x0, symName: '__ZN4core3ptr89drop_in_place$LT$syn..punctuated..Punctuated$LT$syn..pat..Pat$C$syn..token..Comma$GT$$GT$17h7a2618c7011ca178E', symObjAddr: 0x6EA0, symBinAddr: 0x58970, symSize: 0x120 }
  - { offsetInCU: 0x22E58, offset: 0x1F2460, size: 0x8, addend: 0x0, symName: '__ZN4core3ptr89drop_in_place$LT$syn..punctuated..Punctuated$LT$syn..ty..Type$C$syn..token..Comma$GT$$GT$17h335eea701942d1deE', symObjAddr: 0x6FC0, symBinAddr: 0x58A90, symSize: 0x120 }
  - { offsetInCU: 0x23311, offset: 0x1F2919, size: 0x8, addend: 0x0, symName: '__ZN4core3ptr91drop_in_place$LT$syn..punctuated..Punctuated$LT$syn..expr..Expr$C$syn..token..Comma$GT$$GT$17h9d04cb4adde0cb50E', symObjAddr: 0x70E0, symBinAddr: 0x58BB0, symSize: 0x120 }
  - { offsetInCU: 0x2379F, offset: 0x1F2DA7, size: 0x8, addend: 0x0, symName: '__ZN4core3ptr94drop_in_place$LT$syn..punctuated..Punctuated$LT$syn..pat..FieldPat$C$syn..token..Comma$GT$$GT$17h229ff5b8c83a7723E', symObjAddr: 0x7200, symBinAddr: 0x58CD0, symSize: 0xF0 }
  - { offsetInCU: 0x23A9E, offset: 0x1F30A6, size: 0x8, addend: 0x0, symName: '__ZN4core3ptr94drop_in_place$LT$syn..punctuated..Punctuated$LT$syn..ty..BareFnArg$C$syn..token..Comma$GT$$GT$17h6a6db218992bdbcbE', symObjAddr: 0x72F0, symBinAddr: 0x58DC0, symSize: 0x90 }
  - { offsetInCU: 0x23D0E, offset: 0x1F3316, size: 0x8, addend: 0x0, symName: '__ZN4core3ptr96drop_in_place$LT$core..option..Option$LT$alloc..boxed..Box$LT$syn..path..PathSegment$GT$$GT$$GT$17h29595e83487773ecE', symObjAddr: 0x7380, symBinAddr: 0x58E50, symSize: 0x180 }
  - { offsetInCU: 0x243EA, offset: 0x1F39F2, size: 0x8, addend: 0x0, symName: '__ZN4core3ptr97drop_in_place$LT$syn..punctuated..Punctuated$LT$syn..expr..FieldValue$C$syn..token..Comma$GT$$GT$17h3dc1e5362c172304E', symObjAddr: 0x7550, symBinAddr: 0x58FD0, symSize: 0x90 }
  - { offsetInCU: 0x246B7, offset: 0x1F3CBF, size: 0x8, addend: 0x0, symName: '__ZN4core3ptr97drop_in_place$LT$syn..punctuated..Punctuated$LT$syn..lifetime..Lifetime$C$syn..token..Add$GT$$GT$17h823dd42c5f78d66dE.llvm.3455615054391811990', symObjAddr: 0x75E0, symBinAddr: 0x59060, symSize: 0xD0 }
  - { offsetInCU: 0x24B2B, offset: 0x1F4133, size: 0x8, addend: 0x0, symName: '__ZN4core3ptr99drop_in_place$LT$syn..punctuated..Punctuated$LT$syn..path..PathSegment$C$syn..token..Colon2$GT$$GT$17h74bf623facf56480E', symObjAddr: 0x76B0, symBinAddr: 0x59130, symSize: 0x250 }
  - { offsetInCU: 0x25D62, offset: 0x1F536A, size: 0x8, addend: 0x0, symName: __ZN4core4iter6traits10exact_size17ExactSizeIterator8is_empty17hca7bf7d8d748c941E.llvm.3455615054391811990, symObjAddr: 0x7930, symBinAddr: 0x59380, symSize: 0x30 }
  - { offsetInCU: 0x25ED9, offset: 0x1F54E1, size: 0x8, addend: 0x0, symName: __ZN4core4iter6traits12double_ended19DoubleEndedIterator15advance_back_by17hc2f07ae9169a4bd0E.llvm.3455615054391811990, symObjAddr: 0x7A90, symBinAddr: 0x593B0, symSize: 0x70 }
  - { offsetInCU: 0x2613E, offset: 0x1F5746, size: 0x8, addend: 0x0, symName: __ZN4core4iter6traits12double_ended19DoubleEndedIterator8nth_back17ha91d2cf52ae90b7bE.llvm.3455615054391811990, symObjAddr: 0x7C40, symBinAddr: 0x59420, symSize: 0xA0 }
  - { offsetInCU: 0x265D7, offset: 0x1F5BDF, size: 0x8, addend: 0x0, symName: __ZN4core4iter6traits8iterator8Iterator10advance_by17hf01ae8a0f771a1cbE.llvm.3455615054391811990, symObjAddr: 0x7DC0, symBinAddr: 0x594C0, symSize: 0x60 }
  - { offsetInCU: 0x26929, offset: 0x1F5F31, size: 0x8, addend: 0x0, symName: __ZN4core4iter6traits8iterator8Iterator3nth17hb4d5dbe7c136f1c7E.llvm.3455615054391811990, symObjAddr: 0x7F20, symBinAddr: 0x59520, symSize: 0x80 }
  - { offsetInCU: 0x26EC3, offset: 0x1F64CB, size: 0x8, addend: 0x0, symName: __ZN4core4iter6traits8iterator8Iterator9size_hint17h1c1c160b78ef82abE.llvm.3455615054391811990, symObjAddr: 0x7FA0, symBinAddr: 0x595A0, symSize: 0x0 }
  - { offsetInCU: 0x2A7C1, offset: 0x1F9DC9, size: 0x8, addend: 0x0, symName: '__ZN3syn10punctuated23Punctuated$LT$T$C$P$GT$4push17hf3e0d3ef73ec073cE', symObjAddr: 0x300, symBinAddr: 0x51DD0, symSize: 0x1C0 }
  - { offsetInCU: 0x1E, offset: 0x1FCDA0, size: 0x8, addend: 0x0, symName: '__ZN48_$LT$T$u20$as$u20$core..clone..CloneToUninit$GT$15clone_to_uninit17h8e20199dcde4fb19E', symObjAddr: 0x0, symBinAddr: 0x59620, symSize: 0x330 }
  - { offsetInCU: 0x18BB, offset: 0x1FE63D, size: 0x8, addend: 0x0, symName: '__ZN4core3ptr100drop_in_place$LT$core..option..Option$LT$alloc..boxed..Box$LT$syn..generics..LifetimeDef$GT$$GT$$GT$17h313ac39ae7c8b212E', symObjAddr: 0x330, symBinAddr: 0x59950, symSize: 0x50 }
  - { offsetInCU: 0x1A4A, offset: 0x1FE7CC, size: 0x8, addend: 0x0, symName: '__ZN4core3ptr100drop_in_place$LT$core..option..Option$LT$alloc..boxed..Box$LT$syn..path..GenericArgument$GT$$GT$$GT$17hfa941d4dec6f2efbE', symObjAddr: 0x380, symBinAddr: 0x599A0, symSize: 0x50 }
  - { offsetInCU: 0x1BD9, offset: 0x1FE95B, size: 0x8, addend: 0x0, symName: '__ZN4core3ptr101drop_in_place$LT$core..option..Option$LT$alloc..boxed..Box$LT$syn..generics..GenericParam$GT$$GT$$GT$17had46d039d4017a48E', symObjAddr: 0x3D0, symBinAddr: 0x599F0, symSize: 0x50 }
  - { offsetInCU: 0x1E9E, offset: 0x1FEC20, size: 0x8, addend: 0x0, symName: '__ZN4core3ptr102drop_in_place$LT$syn..punctuated..Punctuated$LT$syn..generics..LifetimeDef$C$syn..token..Comma$GT$$GT$17h35b0210e2da1bd7bE', symObjAddr: 0x420, symBinAddr: 0x59A40, symSize: 0x170 }
  - { offsetInCU: 0x2395, offset: 0x1FF117, size: 0x8, addend: 0x0, symName: '__ZN4core3ptr102drop_in_place$LT$syn..punctuated..Punctuated$LT$syn..path..GenericArgument$C$syn..token..Comma$GT$$GT$17h182891eb74f751a9E.llvm.14661973955386002092', symObjAddr: 0x590, symBinAddr: 0x59BB0, symSize: 0xF0 }
  - { offsetInCU: 0x2734, offset: 0x1FF4B6, size: 0x8, addend: 0x0, symName: '__ZN4core3ptr103drop_in_place$LT$core..option..Option$LT$alloc..boxed..Box$LT$syn..generics..TypeParamBound$GT$$GT$$GT$17h1263411d81252013E', symObjAddr: 0x680, symBinAddr: 0x59CA0, symSize: 0xA0 }
  - { offsetInCU: 0x2A23, offset: 0x1FF7A5, size: 0x8, addend: 0x0, symName: '__ZN4core3ptr103drop_in_place$LT$core..option..Option$LT$alloc..boxed..Box$LT$syn..generics..WherePredicate$GT$$GT$$GT$17he6f6198de44fef3fE', symObjAddr: 0x720, symBinAddr: 0x59D40, symSize: 0x50 }
  - { offsetInCU: 0x2C4D, offset: 0x1FF9CF, size: 0x8, addend: 0x0, symName: '__ZN4core3ptr103drop_in_place$LT$syn..punctuated..Punctuated$LT$syn..generics..GenericParam$C$syn..token..Comma$GT$$GT$17h452dd65098bd2dd0E', symObjAddr: 0x770, symBinAddr: 0x59D90, symSize: 0x1A0 }
  - { offsetInCU: 0x3239, offset: 0x1FFFBB, size: 0x8, addend: 0x0, symName: '__ZN4core3ptr103drop_in_place$LT$syn..punctuated..Punctuated$LT$syn..generics..TypeParamBound$C$syn..token..Add$GT$$GT$17h466d1d1a44ad0379E', symObjAddr: 0x910, symBinAddr: 0x59F30, symSize: 0x2E0 }
  - { offsetInCU: 0x4027, offset: 0x200DA9, size: 0x8, addend: 0x0, symName: '__ZN4core3ptr105drop_in_place$LT$syn..punctuated..Punctuated$LT$syn..generics..WherePredicate$C$syn..token..Comma$GT$$GT$17h3854c97ecb094ce0E', symObjAddr: 0xBF0, symBinAddr: 0x5A210, symSize: 0x1A0 }
  - { offsetInCU: 0x469D, offset: 0x20141F, size: 0x8, addend: 0x0, symName: '__ZN4core3ptr108drop_in_place$LT$syn..punctuated..Punctuated$LT$syn..expr..GenericMethodArgument$C$syn..token..Comma$GT$$GT$17hf730185d8b64e063E', symObjAddr: 0xD90, symBinAddr: 0x5A3B0, symSize: 0x150 }
  - { offsetInCU: 0x4B81, offset: 0x201903, size: 0x8, addend: 0x0, symName: '__ZN4core3ptr126drop_in_place$LT$core..option..Option$LT$$LP$syn..token..And$C$core..option..Option$LT$syn..lifetime..Lifetime$GT$$RP$$GT$$GT$17h071325ff9b508421E', symObjAddr: 0xEE0, symBinAddr: 0x5A500, symSize: 0x30 }
  - { offsetInCU: 0x4E10, offset: 0x201B92, size: 0x8, addend: 0x0, symName: '__ZN4core3ptr33drop_in_place$LT$syn..ty..Abi$GT$17hb930cf1e919eea35E', symObjAddr: 0xF10, symBinAddr: 0x5A530, symSize: 0x70 }
  - { offsetInCU: 0x4E2C, offset: 0x201BAE, size: 0x8, addend: 0x0, symName: '__ZN4core3ptr33drop_in_place$LT$syn..ty..Abi$GT$17hb930cf1e919eea35E', symObjAddr: 0xF10, symBinAddr: 0x5A530, symSize: 0x70 }
  - { offsetInCU: 0x5104, offset: 0x201E86, size: 0x8, addend: 0x0, symName: '__ZN4core3ptr34drop_in_place$LT$syn..lit..Lit$GT$17h21f7362ab9490569E.llvm.14661973955386002092', symObjAddr: 0xF80, symBinAddr: 0x5A5A0, symSize: 0x120 }
  - { offsetInCU: 0x5526, offset: 0x2022A8, size: 0x8, addend: 0x0, symName: '__ZN4core3ptr34drop_in_place$LT$syn..pat..Pat$GT$17h5bc1a1a567df27bcE.llvm.14661973955386002092', symObjAddr: 0x10A0, symBinAddr: 0x5A6C0, symSize: 0x5C0 }
  - { offsetInCU: 0x6379, offset: 0x2030FB, size: 0x8, addend: 0x0, symName: '__ZN4core3ptr34drop_in_place$LT$syn..ty..Type$GT$17hd086d8873def3a54E.llvm.14661973955386002092', symObjAddr: 0x1660, symBinAddr: 0x5AC80, symSize: 0x480 }
  - { offsetInCU: 0x733C, offset: 0x2040BE, size: 0x8, addend: 0x0, symName: '__ZN4core3ptr35drop_in_place$LT$syn..expr..Arm$GT$17hcc34fd3d42cf30a9E.llvm.14661973955386002092', symObjAddr: 0x1AE0, symBinAddr: 0x5B100, symSize: 0x130 }
  - { offsetInCU: 0x7A12, offset: 0x204794, size: 0x8, addend: 0x0, symName: '__ZN4core3ptr36drop_in_place$LT$syn..attr..Meta$GT$17h854668574dc4c721E.llvm.14661973955386002092', symObjAddr: 0x1C10, symBinAddr: 0x5B230, symSize: 0x1B0 }
  - { offsetInCU: 0x83F9, offset: 0x20517B, size: 0x8, addend: 0x0, symName: '__ZN4core3ptr36drop_in_place$LT$syn..expr..Expr$GT$17had1b47d272065ea2E.llvm.14661973955386002092', symObjAddr: 0x1DC0, symBinAddr: 0x5B3E0, symSize: 0x1450 }
  - { offsetInCU: 0xBB98, offset: 0x20891A, size: 0x8, addend: 0x0, symName: '__ZN4core3ptr36drop_in_place$LT$syn..item..Item$GT$17h0f1f36e4e2fa5787E.llvm.14661973955386002092', symObjAddr: 0x3210, symBinAddr: 0x5C830, symSize: 0x10F0 }
  - { offsetInCU: 0xEB7F, offset: 0x20B901, size: 0x8, addend: 0x0, symName: '__ZN4core3ptr36drop_in_place$LT$syn..mac..Macro$GT$17h9e9b36a6ce40a59fE', symObjAddr: 0x4300, symBinAddr: 0x5D920, symSize: 0xE0 }
  - { offsetInCU: 0xEF25, offset: 0x20BCA7, size: 0x8, addend: 0x0, symName: '__ZN4core3ptr36drop_in_place$LT$syn..path..Path$GT$17h7ac94c7f3f056533E.llvm.14661973955386002092', symObjAddr: 0x43E0, symBinAddr: 0x5DA00, symSize: 0x160 }
  - { offsetInCU: 0xF4CD, offset: 0x20C24F, size: 0x8, addend: 0x0, symName: '__ZN4core3ptr36drop_in_place$LT$syn..stmt..Stmt$GT$17h1b1f3d44ea72b427E.llvm.14661973955386002092', symObjAddr: 0x4540, symBinAddr: 0x5DB60, symSize: 0xF0 }
  - { offsetInCU: 0xF6CF, offset: 0x20C451, size: 0x8, addend: 0x0, symName: '__ZN4core3ptr37drop_in_place$LT$syn..data..Field$GT$17h9e94de8f3bdef460E', symObjAddr: 0x4630, symBinAddr: 0x5DC50, symSize: 0x140 }
  - { offsetInCU: 0xFC7A, offset: 0x20C9FC, size: 0x8, addend: 0x0, symName: '__ZN4core3ptr37drop_in_place$LT$syn..item..FnArg$GT$17hd612927611a46d5eE', symObjAddr: 0x4770, symBinAddr: 0x5DD90, symSize: 0x110 }
  - { offsetInCU: 0x100BA, offset: 0x20CE3C, size: 0x8, addend: 0x0, symName: '__ZN4core3ptr37drop_in_place$LT$syn..stmt..Block$GT$17hdad34f283c5f1899E', symObjAddr: 0x4880, symBinAddr: 0x5DEA0, symSize: 0xD0 }
  - { offsetInCU: 0x10398, offset: 0x20D11A, size: 0x8, addend: 0x0, symName: '__ZN4core3ptr38drop_in_place$LT$syn..expr..Member$GT$17h91324a4146c85abdE.llvm.14661973955386002092', symObjAddr: 0x4950, symBinAddr: 0x5DF70, symSize: 0x30 }
  - { offsetInCU: 0x10494, offset: 0x20D216, size: 0x8, addend: 0x0, symName: '__ZN4core3ptr38drop_in_place$LT$syn..pat..PatType$GT$17hd45cf52924853a4aE', symObjAddr: 0x4980, symBinAddr: 0x5DFA0, symSize: 0x100 }
  - { offsetInCU: 0x10A03, offset: 0x20D785, size: 0x8, addend: 0x0, symName: '__ZN4core3ptr38drop_in_place$LT$syn..ty..Variadic$GT$17h2d126b0e7e97ed68E', symObjAddr: 0x4A80, symBinAddr: 0x5E0A0, symSize: 0x80 }
  - { offsetInCU: 0x10CD2, offset: 0x20DA54, size: 0x8, addend: 0x0, symName: '__ZN4core3ptr39drop_in_place$LT$proc_macro2..Ident$GT$17hc6027ddaabe8aaa4E', symObjAddr: 0x4B00, symBinAddr: 0x5E120, symSize: 0x30 }
  - { offsetInCU: 0x10E0C, offset: 0x20DB8E, size: 0x8, addend: 0x0, symName: '__ZN4core3ptr39drop_in_place$LT$syn..data..Variant$GT$17h2f7fc818bd943766E', symObjAddr: 0x4B30, symBinAddr: 0x5E150, symSize: 0x2B0 }
  - { offsetInCU: 0x11A58, offset: 0x20E7DA, size: 0x8, addend: 0x0, symName: '__ZN4core3ptr39drop_in_place$LT$syn..item..UseTree$GT$17h555b7d4bc3d200c5E', symObjAddr: 0x4DE0, symBinAddr: 0x5E400, symSize: 0x1F0 }
  - { offsetInCU: 0x12230, offset: 0x20EFB2, size: 0x8, addend: 0x0, symName: '__ZN4core3ptr39drop_in_place$LT$syn..pat..PatTuple$GT$17h2f53470caf5b3e6bE', symObjAddr: 0x4FD0, symBinAddr: 0x5E5F0, symSize: 0x180 }
  - { offsetInCU: 0x129AA, offset: 0x20F72C, size: 0x8, addend: 0x0, symName: '__ZN4core3ptr40drop_in_place$LT$syn..attr..MetaList$GT$17hcc84fb1ac5e42954E.llvm.14661973955386002092', symObjAddr: 0x5150, symBinAddr: 0x5E770, symSize: 0x1C0 }
  - { offsetInCU: 0x12E3D, offset: 0x20FBBF, size: 0x8, addend: 0x0, symName: '__ZN4core3ptr40drop_in_place$LT$syn..item..ImplItem$GT$17hf93ba10bb38379edE', symObjAddr: 0x5310, symBinAddr: 0x5E930, symSize: 0x1B0 }
  - { offsetInCU: 0x131A5, offset: 0x20FF27, size: 0x8, addend: 0x0, symName: '__ZN4core3ptr40drop_in_place$LT$syn..ty..ReturnType$GT$17h724058ca716ebe13E.llvm.14661973955386002092', symObjAddr: 0x54C0, symBinAddr: 0x5EAE0, symSize: 0x50 }
  - { offsetInCU: 0x13315, offset: 0x210097, size: 0x8, addend: 0x0, symName: '__ZN4core3ptr41drop_in_place$LT$syn..attr..Attribute$GT$17hdf445b2d2ac60c2bE.llvm.14661973955386002092', symObjAddr: 0x5510, symBinAddr: 0x5EB30, symSize: 0x40 }
  - { offsetInCU: 0x13485, offset: 0x210207, size: 0x8, addend: 0x0, symName: '__ZN4core3ptr41drop_in_place$LT$syn..item..Signature$GT$17h3b876782505d6b6eE', symObjAddr: 0x5550, symBinAddr: 0x5EB70, symSize: 0x2C0 }
  - { offsetInCU: 0x14270, offset: 0x210FF2, size: 0x8, addend: 0x0, symName: '__ZN4core3ptr41drop_in_place$LT$syn..item..TraitItem$GT$17h2f0c38b0b05e4775E', symObjAddr: 0x5810, symBinAddr: 0x5EE30, symSize: 0x2A0 }
  - { offsetInCU: 0x14A2B, offset: 0x2117AD, size: 0x8, addend: 0x0, symName: '__ZN4core3ptr43drop_in_place$LT$proc_macro2..TokenTree$GT$17h1646361d9751110eE.llvm.14661973955386002092', symObjAddr: 0x5B40, symBinAddr: 0x5F0D0, symSize: 0x180 }
  - { offsetInCU: 0x15272, offset: 0x211FF4, size: 0x8, addend: 0x0, symName: '__ZN4core3ptr43drop_in_place$LT$syn..data..FieldsNamed$GT$17hcb482e9d39f19cf8E', symObjAddr: 0x5CC0, symBinAddr: 0x5F250, symSize: 0x120 }
  - { offsetInCU: 0x15751, offset: 0x2124D3, size: 0x8, addend: 0x0, symName: '__ZN4core3ptr43drop_in_place$LT$syn..item..ForeignItem$GT$17h8dfed8baba05c18cE', symObjAddr: 0x5DE0, symBinAddr: 0x5F370, symSize: 0x2B0 }
  - { offsetInCU: 0x15D1B, offset: 0x212A9D, size: 0x8, addend: 0x0, symName: '__ZN4core3ptr43drop_in_place$LT$syn..path..PathSegment$GT$17h3551e2f9864eebb8E.llvm.14661973955386002092', symObjAddr: 0x6090, symBinAddr: 0x5F620, symSize: 0x170 }
  - { offsetInCU: 0x16315, offset: 0x213097, size: 0x8, addend: 0x0, symName: '__ZN4core3ptr44drop_in_place$LT$syn..generics..Generics$GT$17h281758bde31e8da9E', symObjAddr: 0x6200, symBinAddr: 0x5F790, symSize: 0x230 }
  - { offsetInCU: 0x16C52, offset: 0x2139D4, size: 0x8, addend: 0x0, symName: '__ZN4core3ptr44drop_in_place$LT$syn..item..ImplItemType$GT$17hbfac2218e3906353E', symObjAddr: 0x6430, symBinAddr: 0x5F9C0, symSize: 0x180 }
  - { offsetInCU: 0x17220, offset: 0x213FA2, size: 0x8, addend: 0x0, symName: '__ZN4core3ptr44drop_in_place$LT$syn..lifetime..Lifetime$GT$17h5fab458505bc8750E.llvm.14661973955386002092', symObjAddr: 0x65B0, symBinAddr: 0x5FB40, symSize: 0x30 }
  - { offsetInCU: 0x17379, offset: 0x2140FB, size: 0x8, addend: 0x0, symName: '__ZN4core3ptr45drop_in_place$LT$proc_macro2..TokenStream$GT$17h2af7239932044e06E.llvm.14661973955386002092', symObjAddr: 0x65E0, symBinAddr: 0x5FB70, symSize: 0x70 }
  - { offsetInCU: 0x174C1, offset: 0x214243, size: 0x8, addend: 0x0, symName: '__ZN4core3ptr45drop_in_place$LT$syn..data..VisRestricted$GT$17h7aeab77e85e8110dE', symObjAddr: 0x6650, symBinAddr: 0x5FBE0, symSize: 0x50 }
  - { offsetInCU: 0x17677, offset: 0x2143F9, size: 0x8, addend: 0x0, symName: '__ZN4core3ptr45drop_in_place$LT$syn..generics..TypeParam$GT$17h61a2dd336bc8322eE', symObjAddr: 0x66A0, symBinAddr: 0x5FC30, symSize: 0x1D0 }
  - { offsetInCU: 0x17FD5, offset: 0x214D57, size: 0x8, addend: 0x0, symName: '__ZN4core3ptr45drop_in_place$LT$syn..item..ImplItemConst$GT$17h167fac3ac1e32b6eE', symObjAddr: 0x6870, symBinAddr: 0x5FE00, symSize: 0x150 }
  - { offsetInCU: 0x18560, offset: 0x2152E2, size: 0x8, addend: 0x0, symName: '__ZN4core3ptr45drop_in_place$LT$syn..item..TraitItemType$GT$17hfbdd39d58191e3daE', symObjAddr: 0x69C0, symBinAddr: 0x5FF50, symSize: 0x230 }
  - { offsetInCU: 0x18F97, offset: 0x215D19, size: 0x8, addend: 0x0, symName: '__ZN4core3ptr46drop_in_place$LT$syn..generics..ConstParam$GT$17h267da5572bd8a5d7E', symObjAddr: 0x6BF0, symBinAddr: 0x60180, symSize: 0x110 }
  - { offsetInCU: 0x19380, offset: 0x216102, size: 0x8, addend: 0x0, symName: '__ZN4core3ptr46drop_in_place$LT$syn..item..ImplItemMethod$GT$17h0c6b2d5e8e5f34b7E', symObjAddr: 0x6D00, symBinAddr: 0x60290, symSize: 0x1E0 }
  - { offsetInCU: 0x19AE5, offset: 0x216867, size: 0x8, addend: 0x0, symName: '__ZN4core3ptr46drop_in_place$LT$syn..item..TraitItemConst$GT$17h0a89f243d7483db5E', symObjAddr: 0x6EE0, symBinAddr: 0x60470, symSize: 0x110 }
  - { offsetInCU: 0x19F00, offset: 0x216C82, size: 0x8, addend: 0x0, symName: '__ZN4core3ptr47drop_in_place$LT$syn..generics..LifetimeDef$GT$17haf1f933340d2feb2E', symObjAddr: 0x6FF0, symBinAddr: 0x60580, symSize: 0xB0 }
  - { offsetInCU: 0x1A2C8, offset: 0x21704A, size: 0x8, addend: 0x0, symName: '__ZN4core3ptr47drop_in_place$LT$syn..generics..WhereClause$GT$17hb667103fb12c82b6E', symObjAddr: 0x70A0, symBinAddr: 0x60630, symSize: 0x120 }
  - { offsetInCU: 0x1A788, offset: 0x21750A, size: 0x8, addend: 0x0, symName: '__ZN4core3ptr47drop_in_place$LT$syn..path..GenericArgument$GT$17h22c70662371ace33E', symObjAddr: 0x71C0, symBinAddr: 0x60750, symSize: 0x110 }
  - { offsetInCU: 0x1AAA3, offset: 0x217825, size: 0x8, addend: 0x0, symName: '__ZN4core3ptr48drop_in_place$LT$syn..generics..GenericParam$GT$17h9de56444c4e7d7fdE', symObjAddr: 0x72D0, symBinAddr: 0x60860, symSize: 0xA0 }
  - { offsetInCU: 0x1ABDC, offset: 0x21795E, size: 0x8, addend: 0x0, symName: '__ZN4core3ptr49drop_in_place$LT$syn..generics..PredicateType$GT$17h3937159c28089e2bE.llvm.14661973955386002092', symObjAddr: 0x7370, symBinAddr: 0x60900, symSize: 0x230 }
  - { offsetInCU: 0x1B600, offset: 0x218382, size: 0x8, addend: 0x0, symName: '__ZN4core3ptr49drop_in_place$LT$syn..item..ForeignItemStatic$GT$17hac019714161bdf53E', symObjAddr: 0x75A0, symBinAddr: 0x60B30, symSize: 0x150 }
  - { offsetInCU: 0x1BCBD, offset: 0x218A3F, size: 0x8, addend: 0x0, symName: '__ZN4core3ptr50drop_in_place$LT$$u5b$syn..item..ImplItem$u5d$$GT$17h5be7bf21a0a7b914E', symObjAddr: 0x76F0, symBinAddr: 0x60C80, symSize: 0x1C0 }
  - { offsetInCU: 0x1BF5D, offset: 0x218CDF, size: 0x8, addend: 0x0, symName: '__ZN4core3ptr50drop_in_place$LT$syn..generics..BoundLifetimes$GT$17h6c08cf70480ccadaE.llvm.14661973955386002092', symObjAddr: 0x78B0, symBinAddr: 0x60E40, symSize: 0x110 }
  - { offsetInCU: 0x1C3DD, offset: 0x21915F, size: 0x8, addend: 0x0, symName: '__ZN4core3ptr50drop_in_place$LT$syn..generics..TypeParamBound$GT$17hf88a8f7fc0765c8fE', symObjAddr: 0x79C0, symBinAddr: 0x60F50, symSize: 0x80 }
  - { offsetInCU: 0x1C562, offset: 0x2192E4, size: 0x8, addend: 0x0, symName: '__ZN4core3ptr50drop_in_place$LT$syn..generics..WherePredicate$GT$17h13c0cb9b98232da6E', symObjAddr: 0x7A40, symBinAddr: 0x60FD0, symSize: 0x110 }
  - { offsetInCU: 0x1C721, offset: 0x2194A3, size: 0x8, addend: 0x0, symName: '__ZN4core3ptr51drop_in_place$LT$$u5b$syn..attr..Attribute$u5d$$GT$17h6bdbce12fb26a852E.llvm.14661973955386002092', symObjAddr: 0x7B50, symBinAddr: 0x610E0, symSize: 0x1A0 }
  - { offsetInCU: 0x1CAC9, offset: 0x21984B, size: 0x8, addend: 0x0, symName: '__ZN4core3ptr51drop_in_place$LT$$u5b$syn..item..TraitItem$u5d$$GT$17h01917c5bb1958cd8E', symObjAddr: 0x7CF0, symBinAddr: 0x61280, symSize: 0x440 }
  - { offsetInCU: 0x1D55C, offset: 0x21A2DE, size: 0x8, addend: 0x0, symName: '__ZN4core3ptr53drop_in_place$LT$$u5b$syn..item..ForeignItem$u5d$$GT$17ha0f0913e3935add2E', symObjAddr: 0x8130, symBinAddr: 0x616C0, symSize: 0x3A0 }
  - { offsetInCU: 0x1E055, offset: 0x21ADD7, size: 0x8, addend: 0x0, symName: '__ZN4core3ptr58drop_in_place$LT$alloc..vec..Vec$LT$syn..expr..Arm$GT$$GT$17hbfbf9069c4c2bcc1E', symObjAddr: 0x84D0, symBinAddr: 0x61A60, symSize: 0xD0 }
  - { offsetInCU: 0x1E31C, offset: 0x21B09E, size: 0x8, addend: 0x0, symName: '__ZN4core3ptr59drop_in_place$LT$alloc..boxed..Box$LT$syn..pat..Pat$GT$$GT$17h52b31062c14f366bE.llvm.14661973955386002092', symObjAddr: 0x85A0, symBinAddr: 0x61B30, symSize: 0x50 }
  - { offsetInCU: 0x1E475, offset: 0x21B1F7, size: 0x8, addend: 0x0, symName: '__ZN4core3ptr59drop_in_place$LT$alloc..boxed..Box$LT$syn..ty..Type$GT$$GT$17h764865b58f907f45E', symObjAddr: 0x85F0, symBinAddr: 0x61B80, symSize: 0x50 }
  - { offsetInCU: 0x1E5CE, offset: 0x21B350, size: 0x8, addend: 0x0, symName: '__ZN4core3ptr59drop_in_place$LT$alloc..vec..Vec$LT$syn..item..Item$GT$$GT$17hd244e2fdab8f5a2dE', symObjAddr: 0x8640, symBinAddr: 0x61BD0, symSize: 0xD0 }
  - { offsetInCU: 0x1E895, offset: 0x21B617, size: 0x8, addend: 0x0, symName: '__ZN4core3ptr61drop_in_place$LT$alloc..boxed..Box$LT$syn..expr..Expr$GT$$GT$17hba9d02c1545305ceE.llvm.14661973955386002092', symObjAddr: 0x8710, symBinAddr: 0x61CA0, symSize: 0x50 }
  - { offsetInCU: 0x1E9EE, offset: 0x21B770, size: 0x8, addend: 0x0, symName: '__ZN4core3ptr61drop_in_place$LT$alloc..boxed..Box$LT$syn..path..Path$GT$$GT$17h53edf53a535c5feeE', symObjAddr: 0x8760, symBinAddr: 0x61CF0, symSize: 0x100 }
  - { offsetInCU: 0x1EF0E, offset: 0x21BC90, size: 0x8, addend: 0x0, symName: '__ZN4core3ptr61drop_in_place$LT$syn..path..ParenthesizedGenericArguments$GT$17ha784923ac14ba82dE.llvm.14661973955386002092', symObjAddr: 0x8860, symBinAddr: 0x61DF0, symSize: 0x170 }
  - { offsetInCU: 0x1F50B, offset: 0x21C28D, size: 0x8, addend: 0x0, symName: '__ZN4core3ptr62drop_in_place$LT$alloc..boxed..Box$LT$syn..data..Field$GT$$GT$17h726c9f753b5bc57dE', symObjAddr: 0x89D0, symBinAddr: 0x61F60, symSize: 0x50 }
  - { offsetInCU: 0x1F683, offset: 0x21C405, size: 0x8, addend: 0x0, symName: '__ZN4core3ptr62drop_in_place$LT$alloc..boxed..Box$LT$syn..item..FnArg$GT$$GT$17h264fa3f7927fce9eE', symObjAddr: 0x8A20, symBinAddr: 0x61FB0, symSize: 0xD0 }
  - { offsetInCU: 0x1FBA4, offset: 0x21C926, size: 0x8, addend: 0x0, symName: '__ZN4core3ptr62drop_in_place$LT$alloc..boxed..Box$LT$syn..stmt..Block$GT$$GT$17hde3bfb34d55b96e7E', symObjAddr: 0x8AF0, symBinAddr: 0x62080, symSize: 0xE0 }
  - { offsetInCU: 0x1FFBD, offset: 0x21CD3F, size: 0x8, addend: 0x0, symName: '__ZN4core3ptr62drop_in_place$LT$syn..path..AngleBracketedGenericArguments$GT$17h61b1660d5236a4d4E.llvm.14661973955386002092', symObjAddr: 0x8BD0, symBinAddr: 0x62160, symSize: 0x120 }
  - { offsetInCU: 0x2043F, offset: 0x21D1C1, size: 0x8, addend: 0x0, symName: '__ZN4core3ptr63drop_in_place$LT$alloc..vec..Vec$LT$syn..item..ImplItem$GT$$GT$17hfe1f6cb513836d06E', symObjAddr: 0x8CF0, symBinAddr: 0x62280, symSize: 0x80 }
  - { offsetInCU: 0x206F7, offset: 0x21D479, size: 0x8, addend: 0x0, symName: '__ZN4core3ptr64drop_in_place$LT$alloc..boxed..Box$LT$syn..data..Variant$GT$$GT$17h1dac9226142f3156E', symObjAddr: 0x8D70, symBinAddr: 0x62300, symSize: 0x50 }
  - { offsetInCU: 0x20850, offset: 0x21D5D2, size: 0x8, addend: 0x0, symName: '__ZN4core3ptr64drop_in_place$LT$alloc..boxed..Box$LT$syn..item..UseTree$GT$$GT$17hd42b21c6378b785fE', symObjAddr: 0x8DC0, symBinAddr: 0x62350, symSize: 0x50 }
  - { offsetInCU: 0x209E7, offset: 0x21D769, size: 0x8, addend: 0x0, symName: '__ZN4core3ptr64drop_in_place$LT$alloc..boxed..Box$LT$syn..pat..FieldPat$GT$$GT$17hc72c632384877362E', symObjAddr: 0x8E10, symBinAddr: 0x623A0, symSize: 0xC0 }
  - { offsetInCU: 0x20E31, offset: 0x21DBB3, size: 0x8, addend: 0x0, symName: '__ZN4core3ptr64drop_in_place$LT$alloc..boxed..Box$LT$syn..ty..BareFnArg$GT$$GT$17hbfda67d8bc6839c1E', symObjAddr: 0x8ED0, symBinAddr: 0x62460, symSize: 0x160 }
  - { offsetInCU: 0x213CE, offset: 0x21E150, size: 0x8, addend: 0x0, symName: '__ZN4core3ptr64drop_in_place$LT$alloc..vec..Vec$LT$syn..attr..Attribute$GT$$GT$17h667f932a63aedd56E.llvm.14661973955386002092', symObjAddr: 0x9030, symBinAddr: 0x625C0, symSize: 0xF0 }
  - { offsetInCU: 0x216AE, offset: 0x21E430, size: 0x8, addend: 0x0, symName: '__ZN4core3ptr64drop_in_place$LT$alloc..vec..Vec$LT$syn..item..TraitItem$GT$$GT$17h22146976b22879d4E', symObjAddr: 0x9120, symBinAddr: 0x626B0, symSize: 0x80 }
  - { offsetInCU: 0x21966, offset: 0x21E6E8, size: 0x8, addend: 0x0, symName: '__ZN4core3ptr65drop_in_place$LT$$LP$syn..item..FnArg$C$syn..token..Comma$RP$$GT$17h0e07a52613e2a0d7E', symObjAddr: 0x91A0, symBinAddr: 0x62730, symSize: 0xC0 }
  - { offsetInCU: 0x21E15, offset: 0x21EB97, size: 0x8, addend: 0x0, symName: '__ZN4core3ptr65drop_in_place$LT$alloc..vec..Vec$LT$proc_macro..TokenTree$GT$$GT$17hbe7f16cffb276184E.llvm.14661973955386002092', symObjAddr: 0x9260, symBinAddr: 0x627F0, symSize: 0x110 }
  - { offsetInCU: 0x22227, offset: 0x21EFA9, size: 0x8, addend: 0x0, symName: '__ZN4core3ptr65drop_in_place$LT$core..option..Option$LT$syn..expr..Label$GT$$GT$17he0a9c9821aa6b78cE', symObjAddr: 0x9370, symBinAddr: 0x62900, symSize: 0x30 }
  - { offsetInCU: 0x22361, offset: 0x21F0E3, size: 0x8, addend: 0x0, symName: '__ZN4core3ptr65drop_in_place$LT$core..option..Option$LT$syn..stmt..Block$GT$$GT$17hbf5d2e75f36286a1E', symObjAddr: 0x93A0, symBinAddr: 0x62930, symSize: 0xD0 }
  - { offsetInCU: 0x22655, offset: 0x21F3D7, size: 0x8, addend: 0x0, symName: '__ZN4core3ptr66drop_in_place$LT$alloc..vec..Vec$LT$proc_macro2..TokenTree$GT$$GT$17h66981583a9cd1ff5E', symObjAddr: 0x9470, symBinAddr: 0x62A00, symSize: 0xC0 }
  - { offsetInCU: 0x2292D, offset: 0x21F6AF, size: 0x8, addend: 0x0, symName: '__ZN4core3ptr66drop_in_place$LT$alloc..vec..Vec$LT$syn..item..ForeignItem$GT$$GT$17h7636878be962db21E', symObjAddr: 0x9530, symBinAddr: 0x62AC0, symSize: 0x80 }
  - { offsetInCU: 0x22BE5, offset: 0x21F967, size: 0x8, addend: 0x0, symName: '__ZN4core3ptr67drop_in_place$LT$$LP$syn..pat..FieldPat$C$syn..token..Comma$RP$$GT$17hcd13f17c8a69a09aE.llvm.14661973955386002092', symObjAddr: 0x95B0, symBinAddr: 0x62B40, symSize: 0xA0 }
  - { offsetInCU: 0x22E8D, offset: 0x21FC0F, size: 0x8, addend: 0x0, symName: '__ZN4core3ptr67drop_in_place$LT$$LP$syn..ty..BareFnArg$C$syn..token..Comma$RP$$GT$17ha7b3e578874fccd7E.llvm.14661973955386002092', symObjAddr: 0x9650, symBinAddr: 0x62BE0, symSize: 0xD0 }
  - { offsetInCU: 0x23294, offset: 0x220016, size: 0x8, addend: 0x0, symName: '__ZN4core3ptr67drop_in_place$LT$alloc..boxed..Box$LT$syn..attr..NestedMeta$GT$$GT$17h704495b8ac3fb0e3E.llvm.14661973955386002092', symObjAddr: 0x9720, symBinAddr: 0x62CB0, symSize: 0x180 }
  - { offsetInCU: 0x235CD, offset: 0x22034F, size: 0x8, addend: 0x0, symName: '__ZN4core3ptr67drop_in_place$LT$alloc..boxed..Box$LT$syn..expr..FieldValue$GT$$GT$17h8035762dfa39d688E', symObjAddr: 0x98A0, symBinAddr: 0x62E30, symSize: 0xA0 }
  - { offsetInCU: 0x23870, offset: 0x2205F2, size: 0x8, addend: 0x0, symName: '__ZN4core3ptr68drop_in_place$LT$alloc..boxed..Box$LT$syn..path..PathSegment$GT$$GT$17h2361de69c8671822E', symObjAddr: 0x9940, symBinAddr: 0x62ED0, symSize: 0xD0 }
  - { offsetInCU: 0x23C69, offset: 0x2209EB, size: 0x8, addend: 0x0, symName: '__ZN4core3ptr70drop_in_place$LT$$LP$syn..attr..NestedMeta$C$syn..token..Comma$RP$$GT$17h44b391d1a9ab7df3E.llvm.14661973955386002092', symObjAddr: 0x9A10, symBinAddr: 0x62FA0, symSize: 0x30 }
  - { offsetInCU: 0x23CA5, offset: 0x220A27, size: 0x8, addend: 0x0, symName: '__ZN4core3ptr70drop_in_place$LT$$LP$syn..expr..FieldValue$C$syn..token..Comma$RP$$GT$17hfad63b7a06cc6cd5E.llvm.14661973955386002092', symObjAddr: 0x9A40, symBinAddr: 0x62FD0, symSize: 0x80 }
  - { offsetInCU: 0x23DE2, offset: 0x220B64, size: 0x8, addend: 0x0, symName: '__ZN4core3ptr72drop_in_place$LT$$LP$syn..path..PathSegment$C$syn..token..Colon2$RP$$GT$17hf2f29e8e06cfecf9E.llvm.14661973955386002092', symObjAddr: 0x9AC0, symBinAddr: 0x63050, symSize: 0xC0 }
  - { offsetInCU: 0x240A5, offset: 0x220E27, size: 0x8, addend: 0x0, symName: '__ZN4core3ptr72drop_in_place$LT$alloc..boxed..Box$LT$syn..generics..LifetimeDef$GT$$GT$17hf200e4e720d38456E', symObjAddr: 0x9B80, symBinAddr: 0x63110, symSize: 0x80 }
  - { offsetInCU: 0x24354, offset: 0x2210D6, size: 0x8, addend: 0x0, symName: '__ZN4core3ptr72drop_in_place$LT$alloc..boxed..Box$LT$syn..path..GenericArgument$GT$$GT$17h5bbf5380dd6fa22fE.llvm.14661973955386002092', symObjAddr: 0x9C00, symBinAddr: 0x63190, symSize: 0x220 }
  - { offsetInCU: 0x24BC4, offset: 0x221946, size: 0x8, addend: 0x0, symName: '__ZN4core3ptr73drop_in_place$LT$alloc..boxed..Box$LT$syn..generics..GenericParam$GT$$GT$17h36c2adc547ea6e66E', symObjAddr: 0x9E20, symBinAddr: 0x633B0, symSize: 0x80 }
  - { offsetInCU: 0x24D3A, offset: 0x221ABC, size: 0x8, addend: 0x0, symName: '__ZN4core3ptr75drop_in_place$LT$$LP$syn..generics..LifetimeDef$C$syn..token..Comma$RP$$GT$17hdd87f05d39f05545E.llvm.14661973955386002092', symObjAddr: 0x9EA0, symBinAddr: 0x63430, symSize: 0x60 }
  - { offsetInCU: 0x24E77, offset: 0x221BF9, size: 0x8, addend: 0x0, symName: '__ZN4core3ptr75drop_in_place$LT$$LP$syn..path..GenericArgument$C$syn..token..Comma$RP$$GT$17h98dcc17dd6d12545E.llvm.14661973955386002092', symObjAddr: 0x9F00, symBinAddr: 0x63490, symSize: 0x220 }
  - { offsetInCU: 0x255AB, offset: 0x22232D, size: 0x8, addend: 0x0, symName: '__ZN4core3ptr75drop_in_place$LT$alloc..boxed..Box$LT$syn..generics..TypeParamBound$GT$$GT$17hea9af0ea491726e7E', symObjAddr: 0xA120, symBinAddr: 0x636B0, symSize: 0x150 }
  - { offsetInCU: 0x25B58, offset: 0x2228DA, size: 0x8, addend: 0x0, symName: '__ZN4core3ptr75drop_in_place$LT$alloc..boxed..Box$LT$syn..generics..WherePredicate$GT$$GT$17h7a55d7c671774e12E', symObjAddr: 0xA270, symBinAddr: 0x63800, symSize: 0xD0 }
  - { offsetInCU: 0x25E00, offset: 0x222B82, size: 0x8, addend: 0x0, symName: '__ZN4core3ptr76drop_in_place$LT$$LP$syn..generics..GenericParam$C$syn..token..Comma$RP$$GT$17heae4d53d5dfdaea2E', symObjAddr: 0xA340, symBinAddr: 0x638D0, symSize: 0x50 }
  - { offsetInCU: 0x25E3C, offset: 0x222BBE, size: 0x8, addend: 0x0, symName: '__ZN4core3ptr76drop_in_place$LT$$LP$syn..generics..TypeParamBound$C$syn..token..Add$RP$$GT$17h5dfb4d45a01b05f4E.llvm.14661973955386002092', symObjAddr: 0xA390, symBinAddr: 0x63920, symSize: 0x160 }
  - { offsetInCU: 0x262BB, offset: 0x22303D, size: 0x8, addend: 0x0, symName: '__ZN4core3ptr78drop_in_place$LT$$LP$syn..generics..WherePredicate$C$syn..token..Comma$RP$$GT$17he3eeaf425eb6ef05E.llvm.14661973955386002092', symObjAddr: 0xA4F0, symBinAddr: 0x63A80, symSize: 0xA0 }
  - { offsetInCU: 0x26433, offset: 0x2231B5, size: 0x8, addend: 0x0, symName: '__ZN4core3ptr78drop_in_place$LT$alloc..boxed..Box$LT$syn..expr..GenericMethodArgument$GT$$GT$17hc898c291745edc1fE', symObjAddr: 0xA590, symBinAddr: 0x63B20, symSize: 0x60 }
  - { offsetInCU: 0x265A9, offset: 0x22332B, size: 0x8, addend: 0x0, symName: '__ZN4core3ptr81drop_in_place$LT$$LP$syn..expr..GenericMethodArgument$C$syn..token..Comma$RP$$GT$17hcf4fa30f7201681cE.llvm.14661973955386002092', symObjAddr: 0xA5F0, symBinAddr: 0x63B80, symSize: 0x30 }
  - { offsetInCU: 0x265E5, offset: 0x223367, size: 0x8, addend: 0x0, symName: '__ZN4core3ptr86drop_in_place$LT$$LP$syn..token..If$C$alloc..boxed..Box$LT$syn..expr..Expr$GT$$RP$$GT$17hfbc3c97fa9ffa65bE.llvm.14661973955386002092', symObjAddr: 0xA620, symBinAddr: 0x63BB0, symSize: 0x50 }
  - { offsetInCU: 0x2675D, offset: 0x2234DF, size: 0x8, addend: 0x0, symName: '__ZN4core3ptr86drop_in_place$LT$$u5b$$LP$syn..generics..TypeParamBound$C$syn..token..Add$RP$$u5d$$GT$17h2e870910d5d716dcE', symObjAddr: 0xA670, symBinAddr: 0x63C00, symSize: 0xE0 }
  - { offsetInCU: 0x26990, offset: 0x223712, size: 0x8, addend: 0x0, symName: '__ZN4core3ptr86drop_in_place$LT$syn..punctuated..Punctuated$LT$syn..pat..Pat$C$syn..token..Or$GT$$GT$17h25bbf223ac4cf0beE', symObjAddr: 0xA750, symBinAddr: 0x63CE0, symSize: 0x120 }
  - { offsetInCU: 0x26E29, offset: 0x223BAB, size: 0x8, addend: 0x0, symName: '__ZN4core3ptr87drop_in_place$LT$core..option..Option$LT$alloc..boxed..Box$LT$syn..pat..Pat$GT$$GT$$GT$17hd9c075d7c1044d74E', symObjAddr: 0xA870, symBinAddr: 0x63E00, symSize: 0x50 }
  - { offsetInCU: 0x26F99, offset: 0x223D1B, size: 0x8, addend: 0x0, symName: '__ZN4core3ptr87drop_in_place$LT$core..option..Option$LT$alloc..boxed..Box$LT$syn..ty..Type$GT$$GT$$GT$17h3b78a0016fdd0e69E', symObjAddr: 0xA8C0, symBinAddr: 0x63E50, symSize: 0x50 }
  - { offsetInCU: 0x27109, offset: 0x223E8B, size: 0x8, addend: 0x0, symName: '__ZN4core3ptr89drop_in_place$LT$core..option..Option$LT$alloc..boxed..Box$LT$syn..expr..Expr$GT$$GT$$GT$17h1af7f5bb8779605fE', symObjAddr: 0xA910, symBinAddr: 0x63EA0, symSize: 0x50 }
  - { offsetInCU: 0x27279, offset: 0x223FFB, size: 0x8, addend: 0x0, symName: '__ZN4core3ptr89drop_in_place$LT$syn..punctuated..Punctuated$LT$syn..ty..Type$C$syn..token..Comma$GT$$GT$17h335eea701942d1deE.llvm.14661973955386002092', symObjAddr: 0xA960, symBinAddr: 0x63EF0, symSize: 0x120 }
  - { offsetInCU: 0x276FB, offset: 0x22447D, size: 0x8, addend: 0x0, symName: '__ZN4core3ptr90drop_in_place$LT$core..option..Option$LT$alloc..boxed..Box$LT$syn..data..Field$GT$$GT$$GT$17h1f62bd3d22a96181E', symObjAddr: 0xAA80, symBinAddr: 0x64010, symSize: 0x50 }
  - { offsetInCU: 0x2786B, offset: 0x2245ED, size: 0x8, addend: 0x0, symName: '__ZN4core3ptr90drop_in_place$LT$core..option..Option$LT$alloc..boxed..Box$LT$syn..item..FnArg$GT$$GT$$GT$17h9a5d3afd037db0dbE', symObjAddr: 0xAAD0, symBinAddr: 0x64060, symSize: 0x50 }
  - { offsetInCU: 0x27A57, offset: 0x2247D9, size: 0x8, addend: 0x0, symName: '__ZN4core3ptr91drop_in_place$LT$syn..punctuated..Punctuated$LT$syn..expr..Expr$C$syn..token..Comma$GT$$GT$17h9d04cb4adde0cb50E', symObjAddr: 0xAB20, symBinAddr: 0x640B0, symSize: 0x120 }
  - { offsetInCU: 0x27EEC, offset: 0x224C6E, size: 0x8, addend: 0x0, symName: '__ZN4core3ptr92drop_in_place$LT$core..option..Option$LT$$LP$syn..token..As$C$proc_macro2..Ident$RP$$GT$$GT$17h3f2d470257391f09E', symObjAddr: 0xAC40, symBinAddr: 0x641D0, symSize: 0x30 }
  - { offsetInCU: 0x28007, offset: 0x224D89, size: 0x8, addend: 0x0, symName: '__ZN4core3ptr92drop_in_place$LT$syn..punctuated..Punctuated$LT$syn..data..Field$C$syn..token..Comma$GT$$GT$17hf0f52f63d5ffaafbE', symObjAddr: 0xAC70, symBinAddr: 0x64200, symSize: 0x120 }
  - { offsetInCU: 0x28489, offset: 0x22520B, size: 0x8, addend: 0x0, symName: '__ZN4core3ptr92drop_in_place$LT$syn..punctuated..Punctuated$LT$syn..item..FnArg$C$syn..token..Comma$GT$$GT$17h92b176ee491885cdE', symObjAddr: 0xAD90, symBinAddr: 0x64320, symSize: 0x2C0 }
  - { offsetInCU: 0x291A0, offset: 0x225F22, size: 0x8, addend: 0x0, symName: '__ZN4core3ptr93drop_in_place$LT$alloc..vec..Vec$LT$$LP$syn..attr..NestedMeta$C$syn..token..Comma$RP$$GT$$GT$17h942c909e818cae2eE.llvm.14661973955386002092', symObjAddr: 0xB050, symBinAddr: 0x645E0, symSize: 0xF0 }
  - { offsetInCU: 0x29551, offset: 0x2262D3, size: 0x8, addend: 0x0, symName: '__ZN4core3ptr94drop_in_place$LT$syn..punctuated..Punctuated$LT$syn..data..Variant$C$syn..token..Comma$GT$$GT$17hdef2092d963b0298E', symObjAddr: 0xB140, symBinAddr: 0x646D0, symSize: 0x120 }
  - { offsetInCU: 0x29A62, offset: 0x2267E4, size: 0x8, addend: 0x0, symName: '__ZN4core3ptr94drop_in_place$LT$syn..punctuated..Punctuated$LT$syn..pat..FieldPat$C$syn..token..Comma$GT$$GT$17h229ff5b8c83a7723E', symObjAddr: 0xB260, symBinAddr: 0x647F0, symSize: 0xF0 }
  - { offsetInCU: 0x29D7B, offset: 0x226AFD, size: 0x8, addend: 0x0, symName: '__ZN4core3ptr94drop_in_place$LT$syn..punctuated..Punctuated$LT$syn..ty..BareFnArg$C$syn..token..Comma$GT$$GT$17h6a6db218992bdbcbE', symObjAddr: 0xB350, symBinAddr: 0x648E0, symSize: 0x90 }
  - { offsetInCU: 0x29FEB, offset: 0x226D6D, size: 0x8, addend: 0x0, symName: '__ZN4core3ptr95drop_in_place$LT$core..option..Option$LT$$LP$proc_macro2..Ident$C$syn..token..Colon$RP$$GT$$GT$17h0f755b05a12e6b98E.llvm.14661973955386002092', symObjAddr: 0xB3E0, symBinAddr: 0x64970, symSize: 0x30 }
  - { offsetInCU: 0x2A106, offset: 0x226E88, size: 0x8, addend: 0x0, symName: '__ZN4core3ptr95drop_in_place$LT$core..option..Option$LT$alloc..boxed..Box$LT$syn..attr..NestedMeta$GT$$GT$$GT$17hb80a3bc76217c0b0E.llvm.14661973955386002092', symObjAddr: 0xB410, symBinAddr: 0x649A0, symSize: 0xC0 }
  - { offsetInCU: 0x2A260, offset: 0x226FE2, size: 0x8, addend: 0x0, symName: '__ZN4core3ptr96drop_in_place$LT$core..option..Option$LT$alloc..boxed..Box$LT$syn..path..PathSegment$GT$$GT$$GT$17h29595e83487773ecE.llvm.14661973955386002092', symObjAddr: 0xB4D0, symBinAddr: 0x64A60, symSize: 0x90 }
  - { offsetInCU: 0x2A4FE, offset: 0x227280, size: 0x8, addend: 0x0, symName: '__ZN4core3ptr97drop_in_place$LT$syn..punctuated..Punctuated$LT$syn..attr..NestedMeta$C$syn..token..Comma$GT$$GT$17hac62eeadd07d0798E.llvm.14661973955386002092', symObjAddr: 0xB5B0, symBinAddr: 0x64AF0, symSize: 0x110 }
  - { offsetInCU: 0x2A8C6, offset: 0x227648, size: 0x8, addend: 0x0, symName: '__ZN4core3ptr97drop_in_place$LT$syn..punctuated..Punctuated$LT$syn..expr..FieldValue$C$syn..token..Comma$GT$$GT$17h3dc1e5362c172304E', symObjAddr: 0xB6C0, symBinAddr: 0x64C00, symSize: 0x1B0 }
  - { offsetInCU: 0x2ADF3, offset: 0x227B75, size: 0x8, addend: 0x0, symName: '__ZN4core3ptr97drop_in_place$LT$syn..punctuated..Punctuated$LT$syn..lifetime..Lifetime$C$syn..token..Add$GT$$GT$17h823dd42c5f78d66dE.llvm.14661973955386002092', symObjAddr: 0xB870, symBinAddr: 0x64DB0, symSize: 0xD0 }
  - { offsetInCU: 0x2B265, offset: 0x227FE7, size: 0x8, addend: 0x0, symName: '__ZN4core3ptr99drop_in_place$LT$syn..punctuated..Punctuated$LT$syn..path..PathSegment$C$syn..token..Colon2$GT$$GT$17h74bf623facf56480E.llvm.14661973955386002092', symObjAddr: 0xB940, symBinAddr: 0x64E80, symSize: 0x1A0 }
  - { offsetInCU: 0x2DA9D, offset: 0x22A81F, size: 0x8, addend: 0x0, symName: '__ZN48_$LT$T$u20$as$u20$core..clone..CloneToUninit$GT$15clone_to_uninit17h8e20199dcde4fb19E', symObjAddr: 0x0, symBinAddr: 0x59620, symSize: 0x330 }
  - { offsetInCU: 0x30299, offset: 0x22D01B, size: 0x8, addend: 0x0, symName: '__ZN70_$LT$alloc..vec..Vec$LT$T$C$A$GT$$u20$as$u20$core..ops..drop..Drop$GT$4drop17h01455e3ac52f6203E', symObjAddr: 0xBAE0, symBinAddr: 0x65020, symSize: 0xD0 }
  - { offsetInCU: 0x30406, offset: 0x22D188, size: 0x8, addend: 0x0, symName: '__ZN70_$LT$alloc..vec..Vec$LT$T$C$A$GT$$u20$as$u20$core..ops..drop..Drop$GT$4drop17haa2a86ea988ffbebE', symObjAddr: 0xC030, symBinAddr: 0x650F0, symSize: 0xD0 }
  - { offsetInCU: 0x3053D, offset: 0x22D2BF, size: 0x8, addend: 0x0, symName: '__ZN70_$LT$alloc..vec..Vec$LT$T$C$A$GT$$u20$as$u20$core..ops..drop..Drop$GT$4drop17hacd25d16137d5244E', symObjAddr: 0xC100, symBinAddr: 0x651C0, symSize: 0xB0 }
  - { offsetInCU: 0x1E, offset: 0x23876A, size: 0x8, addend: 0x0, symName: __ZN5alloc7raw_vec11finish_grow17h1045165b5862b6deE.llvm.3091832005119071805, symObjAddr: 0x0, symBinAddr: 0x65270, symSize: 0xA0 }
  - { offsetInCU: 0x3CEE, offset: 0x23C43A, size: 0x8, addend: 0x0, symName: __ZN5alloc7raw_vec11finish_grow17h1045165b5862b6deE.llvm.3091832005119071805, symObjAddr: 0x0, symBinAddr: 0x65270, symSize: 0xA0 }
  - { offsetInCU: 0x40C6, offset: 0x23C812, size: 0x8, addend: 0x0, symName: '__ZN5alloc7raw_vec19RawVec$LT$T$C$A$GT$7reserve21do_reserve_and_handle17h4108195dcbd80f38E', symObjAddr: 0x160, symBinAddr: 0x25B410, symSize: 0xA0 }
  - { offsetInCU: 0xAEC6, offset: 0x243612, size: 0x8, addend: 0x0, symName: '__ZN5alloc7raw_vec19RawVec$LT$T$C$A$GT$8grow_one17h23ef62d646b10fabE', symObjAddr: 0x200, symBinAddr: 0x65310, symSize: 0xC0 }
  - { offsetInCU: 0xB207, offset: 0x243953, size: 0x8, addend: 0x0, symName: '__ZN5alloc7raw_vec19RawVec$LT$T$C$A$GT$8grow_one17h3c539101d1fd6f9eE', symObjAddr: 0x2C0, symBinAddr: 0x653D0, symSize: 0xA0 }
  - { offsetInCU: 0xB696, offset: 0x243DE2, size: 0x8, addend: 0x0, symName: '__ZN5alloc7raw_vec19RawVec$LT$T$C$A$GT$8grow_one17h7409cd98c243bdbaE', symObjAddr: 0x360, symBinAddr: 0x65470, symSize: 0xC0 }
  - { offsetInCU: 0x1E, offset: 0x244243, size: 0x8, addend: 0x0, symName: '__ZN4core3ptr100drop_in_place$LT$core..option..Option$LT$alloc..boxed..Box$LT$syn..generics..LifetimeDef$GT$$GT$$GT$17h313ac39ae7c8b212E', symObjAddr: 0x0, symBinAddr: 0x65530, symSize: 0x150 }
  - { offsetInCU: 0x6F, offset: 0x244294, size: 0x8, addend: 0x0, symName: '__ZN70_$LT$core..num..error..TryFromIntError$u20$as$u20$core..fmt..Debug$GT$3fmt17h1128a7e265c9ce9aE', symObjAddr: 0x7490, symBinAddr: 0x6C9C0, symSize: 0x40 }
  - { offsetInCU: 0xC17, offset: 0x244E3C, size: 0x8, addend: 0x0, symName: '__ZN4core3ptr100drop_in_place$LT$core..option..Option$LT$alloc..boxed..Box$LT$syn..generics..LifetimeDef$GT$$GT$$GT$17h313ac39ae7c8b212E', symObjAddr: 0x0, symBinAddr: 0x65530, symSize: 0x150 }
  - { offsetInCU: 0x1193, offset: 0x2453B8, size: 0x8, addend: 0x0, symName: '__ZN4core3ptr100drop_in_place$LT$core..option..Option$LT$alloc..boxed..Box$LT$syn..path..GenericArgument$GT$$GT$$GT$17hfa941d4dec6f2efbE', symObjAddr: 0x150, symBinAddr: 0x65680, symSize: 0x50 }
  - { offsetInCU: 0x1360, offset: 0x245585, size: 0x8, addend: 0x0, symName: '__ZN4core3ptr103drop_in_place$LT$core..option..Option$LT$alloc..boxed..Box$LT$syn..generics..TypeParamBound$GT$$GT$$GT$17h1263411d81252013E', symObjAddr: 0x1A0, symBinAddr: 0x656D0, symSize: 0x90 }
  - { offsetInCU: 0x1697, offset: 0x2458BC, size: 0x8, addend: 0x0, symName: '__ZN4core3ptr103drop_in_place$LT$core..option..Option$LT$alloc..boxed..Box$LT$syn..generics..WherePredicate$GT$$GT$$GT$17he6f6198de44fef3fE', symObjAddr: 0x230, symBinAddr: 0x65760, symSize: 0x120 }
  - { offsetInCU: 0x1A4C, offset: 0x245C71, size: 0x8, addend: 0x0, symName: '__ZN4core3ptr103drop_in_place$LT$syn..punctuated..Punctuated$LT$syn..generics..TypeParamBound$C$syn..token..Add$GT$$GT$17h466d1d1a44ad0379E', symObjAddr: 0x350, symBinAddr: 0x65880, symSize: 0x200 }
  - { offsetInCU: 0x232A, offset: 0x24654F, size: 0x8, addend: 0x0, symName: '__ZN4core3ptr108drop_in_place$LT$syn..punctuated..Punctuated$LT$syn..expr..GenericMethodArgument$C$syn..token..Comma$GT$$GT$17hf730185d8b64e063E', symObjAddr: 0x550, symBinAddr: 0x65A80, symSize: 0x150 }
  - { offsetInCU: 0x2883, offset: 0x246AA8, size: 0x8, addend: 0x0, symName: '__ZN4core3ptr34drop_in_place$LT$syn..lit..Lit$GT$17h21f7362ab9490569E', symObjAddr: 0x6A0, symBinAddr: 0x65BD0, symSize: 0x110 }
  - { offsetInCU: 0x2CF5, offset: 0x246F1A, size: 0x8, addend: 0x0, symName: '__ZN4core3ptr34drop_in_place$LT$syn..pat..Pat$GT$17h5bc1a1a567df27bcE', symObjAddr: 0x7B0, symBinAddr: 0x65CE0, symSize: 0x1190 }
  - { offsetInCU: 0x6C0D, offset: 0x24AE32, size: 0x8, addend: 0x0, symName: '__ZN4core3ptr34drop_in_place$LT$syn..ty..Type$GT$17hd086d8873def3a54E', symObjAddr: 0x1940, symBinAddr: 0x66E70, symSize: 0x540 }
  - { offsetInCU: 0x8495, offset: 0x24C6BA, size: 0x8, addend: 0x0, symName: '__ZN4core3ptr36drop_in_place$LT$syn..expr..Expr$GT$17had1b47d272065ea2E', symObjAddr: 0x1E80, symBinAddr: 0x673B0, symSize: 0x3240 }
  - { offsetInCU: 0x12C90, offset: 0x256EB5, size: 0x8, addend: 0x0, symName: '__ZN4core3ptr36drop_in_place$LT$syn..mac..Macro$GT$17h9e9b36a6ce40a59fE', symObjAddr: 0x50C0, symBinAddr: 0x6A5F0, symSize: 0x40 }
  - { offsetInCU: 0x12DE1, offset: 0x257006, size: 0x8, addend: 0x0, symName: '__ZN4core3ptr36drop_in_place$LT$syn..path..Path$GT$17h7ac94c7f3f056533E', symObjAddr: 0x5100, symBinAddr: 0x6A630, symSize: 0x230 }
  - { offsetInCU: 0x13777, offset: 0x25799C, size: 0x8, addend: 0x0, symName: '__ZN4core3ptr37drop_in_place$LT$syn..stmt..Block$GT$17hdad34f283c5f1899E', symObjAddr: 0x5330, symBinAddr: 0x6A860, symSize: 0xD0 }
  - { offsetInCU: 0x13A8C, offset: 0x257CB1, size: 0x8, addend: 0x0, symName: '__ZN4core3ptr38drop_in_place$LT$syn..error..Error$GT$17h15cda90782fb7f09E', symObjAddr: 0x5400, symBinAddr: 0x6A930, symSize: 0x80 }
  - { offsetInCU: 0x13D4B, offset: 0x257F70, size: 0x8, addend: 0x0, symName: '__ZN4core3ptr38drop_in_place$LT$syn..expr..Member$GT$17h91324a4146c85abdE', symObjAddr: 0x5480, symBinAddr: 0x6A9B0, symSize: 0x30 }
  - { offsetInCU: 0x13E47, offset: 0x25806C, size: 0x8, addend: 0x0, symName: '__ZN4core3ptr39drop_in_place$LT$proc_macro2..Ident$GT$17hc6027ddaabe8aaa4E', symObjAddr: 0x54B0, symBinAddr: 0x6A9E0, symSize: 0x30 }
  - { offsetInCU: 0x13F24, offset: 0x258149, size: 0x8, addend: 0x0, symName: '__ZN4core3ptr39drop_in_place$LT$syn..pat..PatTuple$GT$17h2f53470caf5b3e6bE', symObjAddr: 0x54E0, symBinAddr: 0x6AA10, symSize: 0x100 }
  - { offsetInCU: 0x1422D, offset: 0x258452, size: 0x8, addend: 0x0, symName: '__ZN4core3ptr40drop_in_place$LT$syn..ty..ReturnType$GT$17h724058ca716ebe13E', symObjAddr: 0x55E0, symBinAddr: 0x6AB10, symSize: 0x50 }
  - { offsetInCU: 0x1439D, offset: 0x2585C2, size: 0x8, addend: 0x0, symName: '__ZN4core3ptr44drop_in_place$LT$syn..lifetime..Lifetime$GT$17h5fab458505bc8750E', symObjAddr: 0x5630, symBinAddr: 0x6AB60, symSize: 0x30 }
  - { offsetInCU: 0x145CF, offset: 0x2587F4, size: 0x8, addend: 0x0, symName: '__ZN4core3ptr45drop_in_place$LT$proc_macro2..TokenStream$GT$17h2af7239932044e06E', symObjAddr: 0x5660, symBinAddr: 0x6AB90, symSize: 0x140 }
  - { offsetInCU: 0x14A69, offset: 0x258C8E, size: 0x8, addend: 0x0, symName: '__ZN4core3ptr47drop_in_place$LT$syn..path..GenericArgument$GT$17h22c70662371ace33E', symObjAddr: 0x57A0, symBinAddr: 0x6ACD0, symSize: 0x110 }
  - { offsetInCU: 0x14D84, offset: 0x258FA9, size: 0x8, addend: 0x0, symName: '__ZN4core3ptr58drop_in_place$LT$alloc..vec..Vec$LT$syn..expr..Arm$GT$$GT$17hbfbf9069c4c2bcc1E', symObjAddr: 0x58B0, symBinAddr: 0x6ADE0, symSize: 0xD0 }
  - { offsetInCU: 0x15044, offset: 0x259269, size: 0x8, addend: 0x0, symName: '__ZN4core3ptr59drop_in_place$LT$alloc..boxed..Box$LT$syn..pat..Pat$GT$$GT$17h52b31062c14f366bE', symObjAddr: 0x5980, symBinAddr: 0x6AEB0, symSize: 0x50 }
  - { offsetInCU: 0x1519D, offset: 0x2593C2, size: 0x8, addend: 0x0, symName: '__ZN4core3ptr59drop_in_place$LT$alloc..boxed..Box$LT$syn..ty..Type$GT$$GT$17h764865b58f907f45E', symObjAddr: 0x59D0, symBinAddr: 0x6AF00, symSize: 0x50 }
  - { offsetInCU: 0x152F6, offset: 0x25951B, size: 0x8, addend: 0x0, symName: '__ZN4core3ptr61drop_in_place$LT$alloc..boxed..Box$LT$syn..expr..Expr$GT$$GT$17hba9d02c1545305ceE', symObjAddr: 0x5A20, symBinAddr: 0x6AF50, symSize: 0x50 }
  - { offsetInCU: 0x154CB, offset: 0x2596F0, size: 0x8, addend: 0x0, symName: '__ZN4core3ptr61drop_in_place$LT$syn..path..ParenthesizedGenericArguments$GT$17ha784923ac14ba82dE', symObjAddr: 0x5A70, symBinAddr: 0x6AFA0, symSize: 0x170 }
  - { offsetInCU: 0x15AC1, offset: 0x259CE6, size: 0x8, addend: 0x0, symName: '__ZN4core3ptr63drop_in_place$LT$alloc..boxed..Box$LT$syn..lit..LitRepr$GT$$GT$17h3f36d4db46ac5751E', symObjAddr: 0x5BE0, symBinAddr: 0x6B110, symSize: 0x60 }
  - { offsetInCU: 0x15DC8, offset: 0x259FED, size: 0x8, addend: 0x0, symName: '__ZN4core3ptr64drop_in_place$LT$alloc..boxed..Box$LT$syn..pat..FieldPat$GT$$GT$17hc72c632384877362E', symObjAddr: 0x5C40, symBinAddr: 0x6B170, symSize: 0x180 }
  - { offsetInCU: 0x164E5, offset: 0x25A70A, size: 0x8, addend: 0x0, symName: '__ZN4core3ptr64drop_in_place$LT$alloc..boxed..Box$LT$syn..ty..BareFnArg$GT$$GT$17hbfda67d8bc6839c1E', symObjAddr: 0x5DC0, symBinAddr: 0x6B2F0, symSize: 0x160 }
  - { offsetInCU: 0x16A7B, offset: 0x25ACA0, size: 0x8, addend: 0x0, symName: '__ZN4core3ptr65drop_in_place$LT$alloc..vec..Vec$LT$proc_macro..TokenTree$GT$$GT$17hbe7f16cffb276184E', symObjAddr: 0x5F20, symBinAddr: 0x6B450, symSize: 0x110 }
  - { offsetInCU: 0x16E73, offset: 0x25B098, size: 0x8, addend: 0x0, symName: '__ZN4core3ptr65drop_in_place$LT$core..option..Option$LT$syn..expr..Label$GT$$GT$17he0a9c9821aa6b78cE', symObjAddr: 0x6030, symBinAddr: 0x6B560, symSize: 0x30 }
  - { offsetInCU: 0x16FAD, offset: 0x25B1D2, size: 0x8, addend: 0x0, symName: '__ZN4core3ptr66drop_in_place$LT$core..option..Option$LT$syn..ty..Variadic$GT$$GT$17h744a26e2f12ebebcE', symObjAddr: 0x6060, symBinAddr: 0x6B590, symSize: 0xF0 }
  - { offsetInCU: 0x172D7, offset: 0x25B4FC, size: 0x8, addend: 0x0, symName: '__ZN4core3ptr67drop_in_place$LT$alloc..boxed..Box$LT$syn..expr..FieldValue$GT$$GT$17h8035762dfa39d688E', symObjAddr: 0x6150, symBinAddr: 0x6B680, symSize: 0x160 }
  - { offsetInCU: 0x1786C, offset: 0x25BA91, size: 0x8, addend: 0x0, symName: '__ZN4core3ptr68drop_in_place$LT$alloc..boxed..Box$LT$syn..path..PathSegment$GT$$GT$17h2361de69c8671822E', symObjAddr: 0x62B0, symBinAddr: 0x6B7E0, symSize: 0x190 }
  - { offsetInCU: 0x17F95, offset: 0x25C1BA, size: 0x8, addend: 0x0, symName: '__ZN4core3ptr72drop_in_place$LT$alloc..boxed..Box$LT$syn..path..GenericArgument$GT$$GT$17h5bbf5380dd6fa22fE', symObjAddr: 0x6440, symBinAddr: 0x6B970, symSize: 0x1D0 }
  - { offsetInCU: 0x186BC, offset: 0x25C8E1, size: 0x8, addend: 0x0, symName: '__ZN4core3ptr72drop_in_place$LT$core..option..Option$LT$syn..lifetime..Lifetime$GT$$GT$17h73fca8e7f0aa197bE', symObjAddr: 0x6610, symBinAddr: 0x6BB40, symSize: 0x30 }
  - { offsetInCU: 0x187D7, offset: 0x25C9FC, size: 0x8, addend: 0x0, symName: '__ZN4core3ptr75drop_in_place$LT$alloc..boxed..Box$LT$syn..generics..TypeParamBound$GT$$GT$17hea9af0ea491726e7E', symObjAddr: 0x6640, symBinAddr: 0x6BB70, symSize: 0x140 }
  - { offsetInCU: 0x18D32, offset: 0x25CF57, size: 0x8, addend: 0x0, symName: '__ZN4core3ptr78drop_in_place$LT$alloc..boxed..Box$LT$syn..expr..GenericMethodArgument$GT$$GT$17hc898c291745edc1fE', symObjAddr: 0x6780, symBinAddr: 0x6BCB0, symSize: 0x60 }
  - { offsetInCU: 0x18F24, offset: 0x25D149, size: 0x8, addend: 0x0, symName: '__ZN4core3ptr78drop_in_place$LT$core..option..Option$LT$syn..generics..BoundLifetimes$GT$$GT$17hd25f8abb18bc7fa5E', symObjAddr: 0x67E0, symBinAddr: 0x6BD10, symSize: 0x90 }
  - { offsetInCU: 0x19212, offset: 0x25D437, size: 0x8, addend: 0x0, symName: '__ZN4core3ptr86drop_in_place$LT$syn..punctuated..Punctuated$LT$syn..pat..Pat$C$syn..token..Or$GT$$GT$17h25bbf223ac4cf0beE', symObjAddr: 0x6870, symBinAddr: 0x6BDA0, symSize: 0x120 }
  - { offsetInCU: 0x1968D, offset: 0x25D8B2, size: 0x8, addend: 0x0, symName: '__ZN4core3ptr87drop_in_place$LT$core..option..Option$LT$alloc..boxed..Box$LT$syn..pat..Pat$GT$$GT$$GT$17hd9c075d7c1044d74E', symObjAddr: 0x6990, symBinAddr: 0x6BEC0, symSize: 0x50 }
  - { offsetInCU: 0x197FD, offset: 0x25DA22, size: 0x8, addend: 0x0, symName: '__ZN4core3ptr87drop_in_place$LT$core..option..Option$LT$alloc..boxed..Box$LT$syn..ty..Type$GT$$GT$$GT$17h3b78a0016fdd0e69E', symObjAddr: 0x69E0, symBinAddr: 0x6BF10, symSize: 0x50 }
  - { offsetInCU: 0x1996D, offset: 0x25DB92, size: 0x8, addend: 0x0, symName: '__ZN4core3ptr89drop_in_place$LT$core..option..Option$LT$alloc..boxed..Box$LT$syn..expr..Expr$GT$$GT$$GT$17h1af7f5bb8779605fE', symObjAddr: 0x6A30, symBinAddr: 0x6BF60, symSize: 0x50 }
  - { offsetInCU: 0x19B1B, offset: 0x25DD40, size: 0x8, addend: 0x0, symName: '__ZN4core3ptr89drop_in_place$LT$syn..punctuated..Punctuated$LT$syn..pat..Pat$C$syn..token..Comma$GT$$GT$17h7a2618c7011ca178E', symObjAddr: 0x6A80, symBinAddr: 0x6BFB0, symSize: 0x120 }
  - { offsetInCU: 0x19FAD, offset: 0x25E1D2, size: 0x8, addend: 0x0, symName: '__ZN4core3ptr89drop_in_place$LT$syn..punctuated..Punctuated$LT$syn..ty..Type$C$syn..token..Comma$GT$$GT$17h335eea701942d1deE', symObjAddr: 0x6BA0, symBinAddr: 0x6C0D0, symSize: 0x120 }
  - { offsetInCU: 0x1A466, offset: 0x25E68B, size: 0x8, addend: 0x0, symName: '__ZN4core3ptr91drop_in_place$LT$syn..punctuated..Punctuated$LT$syn..expr..Expr$C$syn..token..Comma$GT$$GT$17h9d04cb4adde0cb50E', symObjAddr: 0x6CC0, symBinAddr: 0x6C1F0, symSize: 0x120 }
  - { offsetInCU: 0x1A8F4, offset: 0x25EB19, size: 0x8, addend: 0x0, symName: '__ZN4core3ptr94drop_in_place$LT$syn..punctuated..Punctuated$LT$syn..pat..FieldPat$C$syn..token..Comma$GT$$GT$17h229ff5b8c83a7723E', symObjAddr: 0x6DE0, symBinAddr: 0x6C310, symSize: 0xF0 }
  - { offsetInCU: 0x1ABF3, offset: 0x25EE18, size: 0x8, addend: 0x0, symName: '__ZN4core3ptr94drop_in_place$LT$syn..punctuated..Punctuated$LT$syn..ty..BareFnArg$C$syn..token..Comma$GT$$GT$17h6a6db218992bdbcbE', symObjAddr: 0x6ED0, symBinAddr: 0x6C400, symSize: 0x90 }
  - { offsetInCU: 0x1AE63, offset: 0x25F088, size: 0x8, addend: 0x0, symName: '__ZN4core3ptr96drop_in_place$LT$core..option..Option$LT$alloc..boxed..Box$LT$syn..path..PathSegment$GT$$GT$$GT$17h29595e83487773ecE', symObjAddr: 0x6F60, symBinAddr: 0x6C490, symSize: 0x180 }
  - { offsetInCU: 0x1B520, offset: 0x25F745, size: 0x8, addend: 0x0, symName: '__ZN4core3ptr97drop_in_place$LT$syn..punctuated..Punctuated$LT$syn..expr..FieldValue$C$syn..token..Comma$GT$$GT$17h3dc1e5362c172304E', symObjAddr: 0x70E0, symBinAddr: 0x6C610, symSize: 0x90 }
  - { offsetInCU: 0x1B80C, offset: 0x25FA31, size: 0x8, addend: 0x0, symName: '__ZN4core3ptr97drop_in_place$LT$syn..punctuated..Punctuated$LT$syn..lifetime..Lifetime$C$syn..token..Add$GT$$GT$17h823dd42c5f78d66dE', symObjAddr: 0x7170, symBinAddr: 0x6C6A0, symSize: 0xD0 }
  - { offsetInCU: 0x1BC80, offset: 0x25FEA5, size: 0x8, addend: 0x0, symName: '__ZN4core3ptr99drop_in_place$LT$syn..punctuated..Punctuated$LT$syn..path..PathSegment$C$syn..token..Colon2$GT$$GT$17h74bf623facf56480E', symObjAddr: 0x7240, symBinAddr: 0x6C770, symSize: 0x250 }
  - { offsetInCU: 0x1EBCC, offset: 0x262DF1, size: 0x8, addend: 0x0, symName: __ZN21borsh_derive_internal8enum_ser8enum_ser17ha064aedf08061937E, symObjAddr: 0x74D0, symBinAddr: 0x6CA00, symSize: 0x23FB }
  - { offsetInCU: 0x1E, offset: 0x27304F, size: 0x8, addend: 0x0, symName: '__ZN4core3ptr100drop_in_place$LT$core..option..Option$LT$alloc..boxed..Box$LT$syn..generics..LifetimeDef$GT$$GT$$GT$17h313ac39ae7c8b212E', symObjAddr: 0x0, symBinAddr: 0x6EE00, symSize: 0x150 }
  - { offsetInCU: 0x62, offset: 0x273093, size: 0x8, addend: 0x0, symName: '__ZN70_$LT$core..num..error..TryFromIntError$u20$as$u20$core..fmt..Debug$GT$3fmt17h1128a7e265c9ce9aE', symObjAddr: 0x7570, symBinAddr: 0x76370, symSize: 0x40 }
  - { offsetInCU: 0xBDA, offset: 0x273C0B, size: 0x8, addend: 0x0, symName: '__ZN4core3ptr100drop_in_place$LT$core..option..Option$LT$alloc..boxed..Box$LT$syn..generics..LifetimeDef$GT$$GT$$GT$17h313ac39ae7c8b212E', symObjAddr: 0x0, symBinAddr: 0x6EE00, symSize: 0x150 }
  - { offsetInCU: 0x1156, offset: 0x274187, size: 0x8, addend: 0x0, symName: '__ZN4core3ptr100drop_in_place$LT$core..option..Option$LT$alloc..boxed..Box$LT$syn..path..GenericArgument$GT$$GT$$GT$17hfa941d4dec6f2efbE', symObjAddr: 0x150, symBinAddr: 0x6EF50, symSize: 0x50 }
  - { offsetInCU: 0x1323, offset: 0x274354, size: 0x8, addend: 0x0, symName: '__ZN4core3ptr103drop_in_place$LT$core..option..Option$LT$alloc..boxed..Box$LT$syn..generics..TypeParamBound$GT$$GT$$GT$17h1263411d81252013E', symObjAddr: 0x1A0, symBinAddr: 0x6EFA0, symSize: 0x90 }
  - { offsetInCU: 0x165A, offset: 0x27468B, size: 0x8, addend: 0x0, symName: '__ZN4core3ptr103drop_in_place$LT$core..option..Option$LT$alloc..boxed..Box$LT$syn..generics..WherePredicate$GT$$GT$$GT$17he6f6198de44fef3fE', symObjAddr: 0x230, symBinAddr: 0x6F030, symSize: 0x120 }
  - { offsetInCU: 0x1A0F, offset: 0x274A40, size: 0x8, addend: 0x0, symName: '__ZN4core3ptr103drop_in_place$LT$syn..punctuated..Punctuated$LT$syn..generics..TypeParamBound$C$syn..token..Add$GT$$GT$17h466d1d1a44ad0379E', symObjAddr: 0x350, symBinAddr: 0x6F150, symSize: 0x200 }
  - { offsetInCU: 0x22ED, offset: 0x27531E, size: 0x8, addend: 0x0, symName: '__ZN4core3ptr108drop_in_place$LT$syn..punctuated..Punctuated$LT$syn..expr..GenericMethodArgument$C$syn..token..Comma$GT$$GT$17hf730185d8b64e063E', symObjAddr: 0x550, symBinAddr: 0x6F350, symSize: 0x150 }
  - { offsetInCU: 0x2846, offset: 0x275877, size: 0x8, addend: 0x0, symName: '__ZN4core3ptr34drop_in_place$LT$syn..lit..Lit$GT$17h21f7362ab9490569E', symObjAddr: 0x6A0, symBinAddr: 0x6F4A0, symSize: 0x110 }
  - { offsetInCU: 0x2CB8, offset: 0x275CE9, size: 0x8, addend: 0x0, symName: '__ZN4core3ptr34drop_in_place$LT$syn..pat..Pat$GT$17h5bc1a1a567df27bcE', symObjAddr: 0x7B0, symBinAddr: 0x6F5B0, symSize: 0x1190 }
  - { offsetInCU: 0x6BD0, offset: 0x279C01, size: 0x8, addend: 0x0, symName: '__ZN4core3ptr34drop_in_place$LT$syn..ty..Type$GT$17hd086d8873def3a54E', symObjAddr: 0x1940, symBinAddr: 0x70740, symSize: 0x540 }
  - { offsetInCU: 0x8458, offset: 0x27B489, size: 0x8, addend: 0x0, symName: '__ZN4core3ptr36drop_in_place$LT$syn..expr..Expr$GT$17had1b47d272065ea2E', symObjAddr: 0x1E80, symBinAddr: 0x70C80, symSize: 0x3240 }
  - { offsetInCU: 0x12C53, offset: 0x285C84, size: 0x8, addend: 0x0, symName: '__ZN4core3ptr36drop_in_place$LT$syn..mac..Macro$GT$17h9e9b36a6ce40a59fE', symObjAddr: 0x50C0, symBinAddr: 0x73EC0, symSize: 0x40 }
  - { offsetInCU: 0x12DA4, offset: 0x285DD5, size: 0x8, addend: 0x0, symName: '__ZN4core3ptr36drop_in_place$LT$syn..path..Path$GT$17h7ac94c7f3f056533E', symObjAddr: 0x5100, symBinAddr: 0x73F00, symSize: 0x230 }
  - { offsetInCU: 0x1373A, offset: 0x28676B, size: 0x8, addend: 0x0, symName: '__ZN4core3ptr37drop_in_place$LT$syn..stmt..Block$GT$17hdad34f283c5f1899E', symObjAddr: 0x5330, symBinAddr: 0x74130, symSize: 0xD0 }
  - { offsetInCU: 0x13A4F, offset: 0x286A80, size: 0x8, addend: 0x0, symName: '__ZN4core3ptr38drop_in_place$LT$syn..error..Error$GT$17h15cda90782fb7f09E', symObjAddr: 0x5400, symBinAddr: 0x74200, symSize: 0x80 }
  - { offsetInCU: 0x13D0E, offset: 0x286D3F, size: 0x8, addend: 0x0, symName: '__ZN4core3ptr38drop_in_place$LT$syn..expr..Member$GT$17h91324a4146c85abdE', symObjAddr: 0x5480, symBinAddr: 0x74280, symSize: 0x30 }
  - { offsetInCU: 0x13E0A, offset: 0x286E3B, size: 0x8, addend: 0x0, symName: '__ZN4core3ptr39drop_in_place$LT$proc_macro2..Ident$GT$17hc6027ddaabe8aaa4E', symObjAddr: 0x54B0, symBinAddr: 0x742B0, symSize: 0x30 }
  - { offsetInCU: 0x13EE7, offset: 0x286F18, size: 0x8, addend: 0x0, symName: '__ZN4core3ptr39drop_in_place$LT$syn..pat..PatTuple$GT$17h2f53470caf5b3e6bE', symObjAddr: 0x54E0, symBinAddr: 0x742E0, symSize: 0x100 }
  - { offsetInCU: 0x141F0, offset: 0x287221, size: 0x8, addend: 0x0, symName: '__ZN4core3ptr40drop_in_place$LT$syn..ty..ReturnType$GT$17h724058ca716ebe13E', symObjAddr: 0x55E0, symBinAddr: 0x743E0, symSize: 0x50 }
  - { offsetInCU: 0x14360, offset: 0x287391, size: 0x8, addend: 0x0, symName: '__ZN4core3ptr44drop_in_place$LT$syn..lifetime..Lifetime$GT$17h5fab458505bc8750E', symObjAddr: 0x5630, symBinAddr: 0x74430, symSize: 0x30 }
  - { offsetInCU: 0x14592, offset: 0x2875C3, size: 0x8, addend: 0x0, symName: '__ZN4core3ptr45drop_in_place$LT$proc_macro2..TokenStream$GT$17h2af7239932044e06E', symObjAddr: 0x5660, symBinAddr: 0x74460, symSize: 0x140 }
  - { offsetInCU: 0x14A4B, offset: 0x287A7C, size: 0x8, addend: 0x0, symName: '__ZN4core3ptr47drop_in_place$LT$syn..generics..WhereClause$GT$17hb667103fb12c82b6E', symObjAddr: 0x57A0, symBinAddr: 0x745A0, symSize: 0xE0 }
  - { offsetInCU: 0x14D77, offset: 0x287DA8, size: 0x8, addend: 0x0, symName: '__ZN4core3ptr47drop_in_place$LT$syn..path..GenericArgument$GT$17h22c70662371ace33E', symObjAddr: 0x5880, symBinAddr: 0x74680, symSize: 0x110 }
  - { offsetInCU: 0x15092, offset: 0x2880C3, size: 0x8, addend: 0x0, symName: '__ZN4core3ptr58drop_in_place$LT$alloc..vec..Vec$LT$syn..expr..Arm$GT$$GT$17hbfbf9069c4c2bcc1E', symObjAddr: 0x5990, symBinAddr: 0x74790, symSize: 0xD0 }
  - { offsetInCU: 0x15352, offset: 0x288383, size: 0x8, addend: 0x0, symName: '__ZN4core3ptr59drop_in_place$LT$alloc..boxed..Box$LT$syn..pat..Pat$GT$$GT$17h52b31062c14f366bE', symObjAddr: 0x5A60, symBinAddr: 0x74860, symSize: 0x50 }
  - { offsetInCU: 0x154AB, offset: 0x2884DC, size: 0x8, addend: 0x0, symName: '__ZN4core3ptr59drop_in_place$LT$alloc..boxed..Box$LT$syn..ty..Type$GT$$GT$17h764865b58f907f45E', symObjAddr: 0x5AB0, symBinAddr: 0x748B0, symSize: 0x50 }
  - { offsetInCU: 0x15604, offset: 0x288635, size: 0x8, addend: 0x0, symName: '__ZN4core3ptr61drop_in_place$LT$alloc..boxed..Box$LT$syn..expr..Expr$GT$$GT$17hba9d02c1545305ceE', symObjAddr: 0x5B00, symBinAddr: 0x74900, symSize: 0x50 }
  - { offsetInCU: 0x157D9, offset: 0x28880A, size: 0x8, addend: 0x0, symName: '__ZN4core3ptr61drop_in_place$LT$syn..path..ParenthesizedGenericArguments$GT$17ha784923ac14ba82dE', symObjAddr: 0x5B50, symBinAddr: 0x74950, symSize: 0x170 }
  - { offsetInCU: 0x15DCF, offset: 0x288E00, size: 0x8, addend: 0x0, symName: '__ZN4core3ptr63drop_in_place$LT$alloc..boxed..Box$LT$syn..lit..LitRepr$GT$$GT$17h3f36d4db46ac5751E', symObjAddr: 0x5CC0, symBinAddr: 0x74AC0, symSize: 0x60 }
  - { offsetInCU: 0x160D6, offset: 0x289107, size: 0x8, addend: 0x0, symName: '__ZN4core3ptr64drop_in_place$LT$alloc..boxed..Box$LT$syn..pat..FieldPat$GT$$GT$17hc72c632384877362E', symObjAddr: 0x5D20, symBinAddr: 0x74B20, symSize: 0x180 }
  - { offsetInCU: 0x167F3, offset: 0x289824, size: 0x8, addend: 0x0, symName: '__ZN4core3ptr64drop_in_place$LT$alloc..boxed..Box$LT$syn..ty..BareFnArg$GT$$GT$17hbfda67d8bc6839c1E', symObjAddr: 0x5EA0, symBinAddr: 0x74CA0, symSize: 0x160 }
  - { offsetInCU: 0x16D89, offset: 0x289DBA, size: 0x8, addend: 0x0, symName: '__ZN4core3ptr65drop_in_place$LT$alloc..vec..Vec$LT$proc_macro..TokenTree$GT$$GT$17hbe7f16cffb276184E', symObjAddr: 0x6000, symBinAddr: 0x74E00, symSize: 0x110 }
  - { offsetInCU: 0x17181, offset: 0x28A1B2, size: 0x8, addend: 0x0, symName: '__ZN4core3ptr65drop_in_place$LT$core..option..Option$LT$syn..expr..Label$GT$$GT$17he0a9c9821aa6b78cE', symObjAddr: 0x6110, symBinAddr: 0x74F10, symSize: 0x30 }
  - { offsetInCU: 0x172BB, offset: 0x28A2EC, size: 0x8, addend: 0x0, symName: '__ZN4core3ptr66drop_in_place$LT$core..option..Option$LT$syn..ty..Variadic$GT$$GT$17h744a26e2f12ebebcE', symObjAddr: 0x6140, symBinAddr: 0x74F40, symSize: 0xF0 }
  - { offsetInCU: 0x175E5, offset: 0x28A616, size: 0x8, addend: 0x0, symName: '__ZN4core3ptr67drop_in_place$LT$alloc..boxed..Box$LT$syn..expr..FieldValue$GT$$GT$17h8035762dfa39d688E', symObjAddr: 0x6230, symBinAddr: 0x75030, symSize: 0x160 }
  - { offsetInCU: 0x17B7A, offset: 0x28ABAB, size: 0x8, addend: 0x0, symName: '__ZN4core3ptr68drop_in_place$LT$alloc..boxed..Box$LT$syn..path..PathSegment$GT$$GT$17h2361de69c8671822E', symObjAddr: 0x6390, symBinAddr: 0x75190, symSize: 0x190 }
  - { offsetInCU: 0x182A3, offset: 0x28B2D4, size: 0x8, addend: 0x0, symName: '__ZN4core3ptr72drop_in_place$LT$alloc..boxed..Box$LT$syn..path..GenericArgument$GT$$GT$17h5bbf5380dd6fa22fE', symObjAddr: 0x6520, symBinAddr: 0x75320, symSize: 0x1D0 }
  - { offsetInCU: 0x189CA, offset: 0x28B9FB, size: 0x8, addend: 0x0, symName: '__ZN4core3ptr72drop_in_place$LT$core..option..Option$LT$syn..lifetime..Lifetime$GT$$GT$17h73fca8e7f0aa197bE', symObjAddr: 0x66F0, symBinAddr: 0x754F0, symSize: 0x30 }
  - { offsetInCU: 0x18AE5, offset: 0x28BB16, size: 0x8, addend: 0x0, symName: '__ZN4core3ptr75drop_in_place$LT$alloc..boxed..Box$LT$syn..generics..TypeParamBound$GT$$GT$17hea9af0ea491726e7E', symObjAddr: 0x6720, symBinAddr: 0x75520, symSize: 0x140 }
  - { offsetInCU: 0x19040, offset: 0x28C071, size: 0x8, addend: 0x0, symName: '__ZN4core3ptr78drop_in_place$LT$alloc..boxed..Box$LT$syn..expr..GenericMethodArgument$GT$$GT$17hc898c291745edc1fE', symObjAddr: 0x6860, symBinAddr: 0x75660, symSize: 0x60 }
  - { offsetInCU: 0x19232, offset: 0x28C263, size: 0x8, addend: 0x0, symName: '__ZN4core3ptr78drop_in_place$LT$core..option..Option$LT$syn..generics..BoundLifetimes$GT$$GT$17hd25f8abb18bc7fa5E', symObjAddr: 0x68C0, symBinAddr: 0x756C0, symSize: 0x90 }
  - { offsetInCU: 0x19520, offset: 0x28C551, size: 0x8, addend: 0x0, symName: '__ZN4core3ptr86drop_in_place$LT$syn..punctuated..Punctuated$LT$syn..pat..Pat$C$syn..token..Or$GT$$GT$17h25bbf223ac4cf0beE', symObjAddr: 0x6950, symBinAddr: 0x75750, symSize: 0x120 }
  - { offsetInCU: 0x1999B, offset: 0x28C9CC, size: 0x8, addend: 0x0, symName: '__ZN4core3ptr87drop_in_place$LT$core..option..Option$LT$alloc..boxed..Box$LT$syn..pat..Pat$GT$$GT$$GT$17hd9c075d7c1044d74E', symObjAddr: 0x6A70, symBinAddr: 0x75870, symSize: 0x50 }
  - { offsetInCU: 0x19B0B, offset: 0x28CB3C, size: 0x8, addend: 0x0, symName: '__ZN4core3ptr87drop_in_place$LT$core..option..Option$LT$alloc..boxed..Box$LT$syn..ty..Type$GT$$GT$$GT$17h3b78a0016fdd0e69E', symObjAddr: 0x6AC0, symBinAddr: 0x758C0, symSize: 0x50 }
  - { offsetInCU: 0x19C7B, offset: 0x28CCAC, size: 0x8, addend: 0x0, symName: '__ZN4core3ptr89drop_in_place$LT$core..option..Option$LT$alloc..boxed..Box$LT$syn..expr..Expr$GT$$GT$$GT$17h1af7f5bb8779605fE', symObjAddr: 0x6B10, symBinAddr: 0x75910, symSize: 0x50 }
  - { offsetInCU: 0x19E29, offset: 0x28CE5A, size: 0x8, addend: 0x0, symName: '__ZN4core3ptr89drop_in_place$LT$syn..punctuated..Punctuated$LT$syn..pat..Pat$C$syn..token..Comma$GT$$GT$17h7a2618c7011ca178E', symObjAddr: 0x6B60, symBinAddr: 0x75960, symSize: 0x120 }
  - { offsetInCU: 0x1A2BB, offset: 0x28D2EC, size: 0x8, addend: 0x0, symName: '__ZN4core3ptr89drop_in_place$LT$syn..punctuated..Punctuated$LT$syn..ty..Type$C$syn..token..Comma$GT$$GT$17h335eea701942d1deE', symObjAddr: 0x6C80, symBinAddr: 0x75A80, symSize: 0x120 }
  - { offsetInCU: 0x1A774, offset: 0x28D7A5, size: 0x8, addend: 0x0, symName: '__ZN4core3ptr91drop_in_place$LT$syn..punctuated..Punctuated$LT$syn..expr..Expr$C$syn..token..Comma$GT$$GT$17h9d04cb4adde0cb50E', symObjAddr: 0x6DA0, symBinAddr: 0x75BA0, symSize: 0x120 }
  - { offsetInCU: 0x1AC02, offset: 0x28DC33, size: 0x8, addend: 0x0, symName: '__ZN4core3ptr94drop_in_place$LT$syn..punctuated..Punctuated$LT$syn..pat..FieldPat$C$syn..token..Comma$GT$$GT$17h229ff5b8c83a7723E', symObjAddr: 0x6EC0, symBinAddr: 0x75CC0, symSize: 0xF0 }
  - { offsetInCU: 0x1AF01, offset: 0x28DF32, size: 0x8, addend: 0x0, symName: '__ZN4core3ptr94drop_in_place$LT$syn..punctuated..Punctuated$LT$syn..ty..BareFnArg$C$syn..token..Comma$GT$$GT$17h6a6db218992bdbcbE', symObjAddr: 0x6FB0, symBinAddr: 0x75DB0, symSize: 0x90 }
  - { offsetInCU: 0x1B171, offset: 0x28E1A2, size: 0x8, addend: 0x0, symName: '__ZN4core3ptr96drop_in_place$LT$core..option..Option$LT$alloc..boxed..Box$LT$syn..path..PathSegment$GT$$GT$$GT$17h29595e83487773ecE', symObjAddr: 0x7040, symBinAddr: 0x75E40, symSize: 0x180 }
  - { offsetInCU: 0x1B82E, offset: 0x28E85F, size: 0x8, addend: 0x0, symName: '__ZN4core3ptr97drop_in_place$LT$syn..punctuated..Punctuated$LT$syn..expr..FieldValue$C$syn..token..Comma$GT$$GT$17h3dc1e5362c172304E', symObjAddr: 0x71C0, symBinAddr: 0x75FC0, symSize: 0x90 }
  - { offsetInCU: 0x1BB1A, offset: 0x28EB4B, size: 0x8, addend: 0x0, symName: '__ZN4core3ptr97drop_in_place$LT$syn..punctuated..Punctuated$LT$syn..lifetime..Lifetime$C$syn..token..Add$GT$$GT$17h823dd42c5f78d66dE', symObjAddr: 0x7250, symBinAddr: 0x76050, symSize: 0xD0 }
  - { offsetInCU: 0x1BF8E, offset: 0x28EFBF, size: 0x8, addend: 0x0, symName: '__ZN4core3ptr99drop_in_place$LT$syn..punctuated..Punctuated$LT$syn..path..PathSegment$C$syn..token..Colon2$GT$$GT$17h74bf623facf56480E', symObjAddr: 0x7320, symBinAddr: 0x76120, symSize: 0x250 }
  - { offsetInCU: 0x1EB4A, offset: 0x291B7B, size: 0x8, addend: 0x0, symName: __ZN21borsh_derive_internal7enum_de7enum_de17hf71d584d44a4c4a1E, symObjAddr: 0x75B0, symBinAddr: 0x763B0, symSize: 0x2B5F }
  - { offsetInCU: 0x1E, offset: 0x2A0D7B, size: 0x8, addend: 0x0, symName: '__ZN4core3ptr100drop_in_place$LT$core..option..Option$LT$alloc..boxed..Box$LT$syn..generics..LifetimeDef$GT$$GT$$GT$17h313ac39ae7c8b212E', symObjAddr: 0x0, symBinAddr: 0x78F10, symSize: 0x150 }
  - { offsetInCU: 0x9B, offset: 0x2A0DF8, size: 0x8, addend: 0x0, symName: '__ZN58_$LT$alloc..string..String$u20$as$u20$core..fmt..Write$GT$10write_char17h04bc467bd68a934bE', symObjAddr: 0x6E00, symBinAddr: 0x7FD10, symSize: 0x140 }
  - { offsetInCU: 0x4A1, offset: 0x2A11FE, size: 0x8, addend: 0x0, symName: '__ZN58_$LT$alloc..string..String$u20$as$u20$core..fmt..Write$GT$9write_str17h46a93205c3443fbaE', symObjAddr: 0x6F40, symBinAddr: 0x7FE50, symSize: 0x60 }
  - { offsetInCU: 0x19C4, offset: 0x2A2721, size: 0x8, addend: 0x0, symName: '__ZN4core3ptr100drop_in_place$LT$core..option..Option$LT$alloc..boxed..Box$LT$syn..generics..LifetimeDef$GT$$GT$$GT$17h313ac39ae7c8b212E', symObjAddr: 0x0, symBinAddr: 0x78F10, symSize: 0x150 }
  - { offsetInCU: 0x1F40, offset: 0x2A2C9D, size: 0x8, addend: 0x0, symName: '__ZN4core3ptr100drop_in_place$LT$core..option..Option$LT$alloc..boxed..Box$LT$syn..path..GenericArgument$GT$$GT$$GT$17hfa941d4dec6f2efbE', symObjAddr: 0x150, symBinAddr: 0x79060, symSize: 0x50 }
  - { offsetInCU: 0x21E6, offset: 0x2A2F43, size: 0x8, addend: 0x0, symName: '__ZN4core3ptr103drop_in_place$LT$syn..punctuated..Punctuated$LT$syn..generics..TypeParamBound$C$syn..token..Add$GT$$GT$17h466d1d1a44ad0379E', symObjAddr: 0x1A0, symBinAddr: 0x790B0, symSize: 0x200 }
  - { offsetInCU: 0x2AD7, offset: 0x2A3834, size: 0x8, addend: 0x0, symName: '__ZN4core3ptr108drop_in_place$LT$syn..punctuated..Punctuated$LT$syn..expr..GenericMethodArgument$C$syn..token..Comma$GT$$GT$17hf730185d8b64e063E', symObjAddr: 0x3A0, symBinAddr: 0x792B0, symSize: 0x150 }
  - { offsetInCU: 0x3030, offset: 0x2A3D8D, size: 0x8, addend: 0x0, symName: '__ZN4core3ptr34drop_in_place$LT$syn..lit..Lit$GT$17h21f7362ab9490569E', symObjAddr: 0x4F0, symBinAddr: 0x79400, symSize: 0x110 }
  - { offsetInCU: 0x34A2, offset: 0x2A41FF, size: 0x8, addend: 0x0, symName: '__ZN4core3ptr34drop_in_place$LT$syn..pat..Pat$GT$17h5bc1a1a567df27bcE', symObjAddr: 0x600, symBinAddr: 0x79510, symSize: 0x1050 }
  - { offsetInCU: 0x6E61, offset: 0x2A7BBE, size: 0x8, addend: 0x0, symName: '__ZN4core3ptr34drop_in_place$LT$syn..ty..Type$GT$17hd086d8873def3a54E', symObjAddr: 0x1650, symBinAddr: 0x7A560, symSize: 0x5F0 }
  - { offsetInCU: 0x83A5, offset: 0x2A9102, size: 0x8, addend: 0x0, symName: '__ZN4core3ptr36drop_in_place$LT$syn..attr..Meta$GT$17h854668574dc4c721E', symObjAddr: 0x1C40, symBinAddr: 0x7AB50, symSize: 0xB0 }
  - { offsetInCU: 0x8AB4, offset: 0x2A9811, size: 0x8, addend: 0x0, symName: '__ZN4core3ptr36drop_in_place$LT$syn..expr..Expr$GT$17had1b47d272065ea2E', symObjAddr: 0x1CF0, symBinAddr: 0x7AC00, symSize: 0x3180 }
  - { offsetInCU: 0x12FA7, offset: 0x2B3D04, size: 0x8, addend: 0x0, symName: '__ZN4core3ptr36drop_in_place$LT$syn..mac..Macro$GT$17h9e9b36a6ce40a59fE', symObjAddr: 0x4E70, symBinAddr: 0x7DD80, symSize: 0xE0 }
  - { offsetInCU: 0x133AD, offset: 0x2B410A, size: 0x8, addend: 0x0, symName: '__ZN4core3ptr36drop_in_place$LT$syn..path..Path$GT$17h7ac94c7f3f056533E', symObjAddr: 0x4F50, symBinAddr: 0x7DE60, symSize: 0x230 }
  - { offsetInCU: 0x13D43, offset: 0x2B4AA0, size: 0x8, addend: 0x0, symName: '__ZN4core3ptr37drop_in_place$LT$syn..stmt..Block$GT$17hdad34f283c5f1899E', symObjAddr: 0x5180, symBinAddr: 0x7E090, symSize: 0xD0 }
  - { offsetInCU: 0x1401A, offset: 0x2B4D77, size: 0x8, addend: 0x0, symName: '__ZN4core3ptr38drop_in_place$LT$syn..expr..Member$GT$17h91324a4146c85abdE', symObjAddr: 0x5250, symBinAddr: 0x7E160, symSize: 0x30 }
  - { offsetInCU: 0x14116, offset: 0x2B4E73, size: 0x8, addend: 0x0, symName: '__ZN4core3ptr39drop_in_place$LT$proc_macro2..Ident$GT$17hc6027ddaabe8aaa4E', symObjAddr: 0x5280, symBinAddr: 0x7E190, symSize: 0x30 }
  - { offsetInCU: 0x141F3, offset: 0x2B4F50, size: 0x8, addend: 0x0, symName: '__ZN4core3ptr39drop_in_place$LT$syn..pat..PatTuple$GT$17h2f53470caf5b3e6bE', symObjAddr: 0x52B0, symBinAddr: 0x7E1C0, symSize: 0x100 }
  - { offsetInCU: 0x144FC, offset: 0x2B5259, size: 0x8, addend: 0x0, symName: '__ZN4core3ptr40drop_in_place$LT$syn..attr..MetaList$GT$17hcc84fb1ac5e42954E', symObjAddr: 0x53B0, symBinAddr: 0x7E2C0, symSize: 0x40 }
  - { offsetInCU: 0x14519, offset: 0x2B5276, size: 0x8, addend: 0x0, symName: '__ZN4core3ptr40drop_in_place$LT$syn..ty..ReturnType$GT$17h724058ca716ebe13E', symObjAddr: 0x53F0, symBinAddr: 0x7E300, symSize: 0x50 }
  - { offsetInCU: 0x14689, offset: 0x2B53E6, size: 0x8, addend: 0x0, symName: '__ZN4core3ptr42drop_in_place$LT$alloc..string..String$GT$17hab151c49a933d6ddE', symObjAddr: 0x5440, symBinAddr: 0x7E350, symSize: 0x20 }
  - { offsetInCU: 0x14791, offset: 0x2B54EE, size: 0x8, addend: 0x0, symName: '__ZN4core3ptr44drop_in_place$LT$syn..lifetime..Lifetime$GT$17h5fab458505bc8750E', symObjAddr: 0x5460, symBinAddr: 0x7E370, symSize: 0x30 }
  - { offsetInCU: 0x149C3, offset: 0x2B5720, size: 0x8, addend: 0x0, symName: '__ZN4core3ptr45drop_in_place$LT$proc_macro2..TokenStream$GT$17h2af7239932044e06E', symObjAddr: 0x5490, symBinAddr: 0x7E3A0, symSize: 0x140 }
  - { offsetInCU: 0x14E5D, offset: 0x2B5BBA, size: 0x8, addend: 0x0, symName: '__ZN4core3ptr47drop_in_place$LT$syn..path..GenericArgument$GT$17h22c70662371ace33E', symObjAddr: 0x55D0, symBinAddr: 0x7E4E0, symSize: 0x110 }
  - { offsetInCU: 0x1518B, offset: 0x2B5EE8, size: 0x8, addend: 0x0, symName: '__ZN4core3ptr58drop_in_place$LT$alloc..vec..Vec$LT$syn..expr..Arm$GT$$GT$17hbfbf9069c4c2bcc1E', symObjAddr: 0x56E0, symBinAddr: 0x7E5F0, symSize: 0xD0 }
  - { offsetInCU: 0x1544B, offset: 0x2B61A8, size: 0x8, addend: 0x0, symName: '__ZN4core3ptr59drop_in_place$LT$alloc..boxed..Box$LT$syn..pat..Pat$GT$$GT$17h52b31062c14f366bE', symObjAddr: 0x57B0, symBinAddr: 0x7E6C0, symSize: 0x50 }
  - { offsetInCU: 0x155A4, offset: 0x2B6301, size: 0x8, addend: 0x0, symName: '__ZN4core3ptr59drop_in_place$LT$alloc..boxed..Box$LT$syn..ty..Type$GT$$GT$17h764865b58f907f45E', symObjAddr: 0x5800, symBinAddr: 0x7E710, symSize: 0x50 }
  - { offsetInCU: 0x156FD, offset: 0x2B645A, size: 0x8, addend: 0x0, symName: '__ZN4core3ptr61drop_in_place$LT$alloc..boxed..Box$LT$syn..expr..Expr$GT$$GT$17hba9d02c1545305ceE', symObjAddr: 0x5850, symBinAddr: 0x7E760, symSize: 0x50 }
  - { offsetInCU: 0x15856, offset: 0x2B65B3, size: 0x8, addend: 0x0, symName: '__ZN4core3ptr61drop_in_place$LT$syn..path..ParenthesizedGenericArguments$GT$17ha784923ac14ba82dE', symObjAddr: 0x58A0, symBinAddr: 0x7E7B0, symSize: 0x170 }
  - { offsetInCU: 0x15E5F, offset: 0x2B6BBC, size: 0x8, addend: 0x0, symName: '__ZN4core3ptr63drop_in_place$LT$alloc..boxed..Box$LT$syn..lit..LitRepr$GT$$GT$17h3f36d4db46ac5751E', symObjAddr: 0x5A10, symBinAddr: 0x7E920, symSize: 0x60 }
  - { offsetInCU: 0x16166, offset: 0x2B6EC3, size: 0x8, addend: 0x0, symName: '__ZN4core3ptr64drop_in_place$LT$alloc..boxed..Box$LT$syn..pat..FieldPat$GT$$GT$17hc72c632384877362E', symObjAddr: 0x5A70, symBinAddr: 0x7E980, symSize: 0x180 }
  - { offsetInCU: 0x16883, offset: 0x2B75E0, size: 0x8, addend: 0x0, symName: '__ZN4core3ptr64drop_in_place$LT$alloc..boxed..Box$LT$syn..ty..BareFnArg$GT$$GT$17hbfda67d8bc6839c1E', symObjAddr: 0x5BF0, symBinAddr: 0x7EB00, symSize: 0x160 }
  - { offsetInCU: 0x16E19, offset: 0x2B7B76, size: 0x8, addend: 0x0, symName: '__ZN4core3ptr65drop_in_place$LT$alloc..vec..Vec$LT$proc_macro..TokenTree$GT$$GT$17hbe7f16cffb276184E', symObjAddr: 0x5D50, symBinAddr: 0x7EC60, symSize: 0x110 }
  - { offsetInCU: 0x17211, offset: 0x2B7F6E, size: 0x8, addend: 0x0, symName: '__ZN4core3ptr65drop_in_place$LT$core..option..Option$LT$syn..expr..Label$GT$$GT$17he0a9c9821aa6b78cE', symObjAddr: 0x5E60, symBinAddr: 0x7ED70, symSize: 0x30 }
  - { offsetInCU: 0x1734B, offset: 0x2B80A8, size: 0x8, addend: 0x0, symName: '__ZN4core3ptr66drop_in_place$LT$core..option..Option$LT$syn..ty..Variadic$GT$$GT$17h744a26e2f12ebebcE', symObjAddr: 0x5E90, symBinAddr: 0x7EDA0, symSize: 0xF0 }
  - { offsetInCU: 0x17675, offset: 0x2B83D2, size: 0x8, addend: 0x0, symName: '__ZN4core3ptr67drop_in_place$LT$alloc..boxed..Box$LT$syn..attr..NestedMeta$GT$$GT$17h704495b8ac3fb0e3E', symObjAddr: 0x5F80, symBinAddr: 0x7EE90, symSize: 0x70 }
  - { offsetInCU: 0x1780A, offset: 0x2B8567, size: 0x8, addend: 0x0, symName: '__ZN4core3ptr67drop_in_place$LT$alloc..boxed..Box$LT$syn..expr..FieldValue$GT$$GT$17h8035762dfa39d688E', symObjAddr: 0x5FF0, symBinAddr: 0x7EF00, symSize: 0x160 }
  - { offsetInCU: 0x17D9F, offset: 0x2B8AFC, size: 0x8, addend: 0x0, symName: '__ZN4core3ptr71drop_in_place$LT$syn..punctuated..Iter$LT$syn..attr..NestedMeta$GT$$GT$17h2c6dd38c9b1d26f4E', symObjAddr: 0x6150, symBinAddr: 0x7F060, symSize: 0x30 }
  - { offsetInCU: 0x17EC4, offset: 0x2B8C21, size: 0x8, addend: 0x0, symName: '__ZN4core3ptr72drop_in_place$LT$core..option..Option$LT$syn..lifetime..Lifetime$GT$$GT$17h73fca8e7f0aa197bE', symObjAddr: 0x6180, symBinAddr: 0x7F090, symSize: 0x30 }
  - { offsetInCU: 0x17FDF, offset: 0x2B8D3C, size: 0x8, addend: 0x0, symName: '__ZN4core3ptr75drop_in_place$LT$alloc..boxed..Box$LT$syn..generics..TypeParamBound$GT$$GT$17hea9af0ea491726e7E', symObjAddr: 0x61B0, symBinAddr: 0x7F0C0, symSize: 0x140 }
  - { offsetInCU: 0x1853A, offset: 0x2B9297, size: 0x8, addend: 0x0, symName: '__ZN4core3ptr78drop_in_place$LT$alloc..boxed..Box$LT$syn..expr..GenericMethodArgument$GT$$GT$17hc898c291745edc1fE', symObjAddr: 0x62F0, symBinAddr: 0x7F200, symSize: 0x60 }
  - { offsetInCU: 0x1872C, offset: 0x2B9489, size: 0x8, addend: 0x0, symName: '__ZN4core3ptr78drop_in_place$LT$core..option..Option$LT$syn..generics..BoundLifetimes$GT$$GT$17hd25f8abb18bc7fa5E', symObjAddr: 0x6350, symBinAddr: 0x7F260, symSize: 0x90 }
  - { offsetInCU: 0x18A1A, offset: 0x2B9777, size: 0x8, addend: 0x0, symName: '__ZN4core3ptr86drop_in_place$LT$syn..punctuated..Punctuated$LT$syn..pat..Pat$C$syn..token..Or$GT$$GT$17h25bbf223ac4cf0beE', symObjAddr: 0x63E0, symBinAddr: 0x7F2F0, symSize: 0x120 }
  - { offsetInCU: 0x18E95, offset: 0x2B9BF2, size: 0x8, addend: 0x0, symName: '__ZN4core3ptr87drop_in_place$LT$core..option..Option$LT$alloc..boxed..Box$LT$syn..pat..Pat$GT$$GT$$GT$17hd9c075d7c1044d74E', symObjAddr: 0x6500, symBinAddr: 0x7F410, symSize: 0x50 }
  - { offsetInCU: 0x19005, offset: 0x2B9D62, size: 0x8, addend: 0x0, symName: '__ZN4core3ptr87drop_in_place$LT$core..option..Option$LT$alloc..boxed..Box$LT$syn..ty..Type$GT$$GT$$GT$17h3b78a0016fdd0e69E', symObjAddr: 0x6550, symBinAddr: 0x7F460, symSize: 0x50 }
  - { offsetInCU: 0x19175, offset: 0x2B9ED2, size: 0x8, addend: 0x0, symName: '__ZN4core3ptr89drop_in_place$LT$core..option..Option$LT$alloc..boxed..Box$LT$syn..expr..Expr$GT$$GT$$GT$17h1af7f5bb8779605fE', symObjAddr: 0x65A0, symBinAddr: 0x7F4B0, symSize: 0x50 }
  - { offsetInCU: 0x19323, offset: 0x2BA080, size: 0x8, addend: 0x0, symName: '__ZN4core3ptr89drop_in_place$LT$syn..punctuated..Punctuated$LT$syn..pat..Pat$C$syn..token..Comma$GT$$GT$17h7a2618c7011ca178E', symObjAddr: 0x65F0, symBinAddr: 0x7F500, symSize: 0x120 }
  - { offsetInCU: 0x197F3, offset: 0x2BA550, size: 0x8, addend: 0x0, symName: '__ZN4core3ptr91drop_in_place$LT$syn..punctuated..Punctuated$LT$syn..expr..Expr$C$syn..token..Comma$GT$$GT$17h9d04cb4adde0cb50E', symObjAddr: 0x6710, symBinAddr: 0x7F620, symSize: 0x120 }
  - { offsetInCU: 0x19C81, offset: 0x2BA9DE, size: 0x8, addend: 0x0, symName: '__ZN4core3ptr94drop_in_place$LT$syn..punctuated..Punctuated$LT$syn..pat..FieldPat$C$syn..token..Comma$GT$$GT$17h229ff5b8c83a7723E', symObjAddr: 0x6830, symBinAddr: 0x7F740, symSize: 0xF0 }
  - { offsetInCU: 0x19F80, offset: 0x2BACDD, size: 0x8, addend: 0x0, symName: '__ZN4core3ptr94drop_in_place$LT$syn..punctuated..Punctuated$LT$syn..ty..BareFnArg$C$syn..token..Comma$GT$$GT$17h6a6db218992bdbcbE', symObjAddr: 0x6920, symBinAddr: 0x7F830, symSize: 0x90 }
  - { offsetInCU: 0x1A1F0, offset: 0x2BAF4D, size: 0x8, addend: 0x0, symName: '__ZN4core3ptr96drop_in_place$LT$core..option..Option$LT$alloc..boxed..Box$LT$syn..path..PathSegment$GT$$GT$$GT$17h29595e83487773ecE', symObjAddr: 0x69B0, symBinAddr: 0x7F8C0, symSize: 0x180 }
  - { offsetInCU: 0x1A929, offset: 0x2BB686, size: 0x8, addend: 0x0, symName: '__ZN4core3ptr97drop_in_place$LT$syn..punctuated..Punctuated$LT$syn..attr..NestedMeta$C$syn..token..Comma$GT$$GT$17hac62eeadd07d0798E', symObjAddr: 0x6B30, symBinAddr: 0x7FA40, symSize: 0x150 }
  - { offsetInCU: 0x1ADCA, offset: 0x2BBB27, size: 0x8, addend: 0x0, symName: '__ZN4core3ptr97drop_in_place$LT$syn..punctuated..Punctuated$LT$syn..expr..FieldValue$C$syn..token..Comma$GT$$GT$17h3dc1e5362c172304E', symObjAddr: 0x6C80, symBinAddr: 0x7FB90, symSize: 0x90 }
  - { offsetInCU: 0x1B0B6, offset: 0x2BBE13, size: 0x8, addend: 0x0, symName: '__ZN4core3ptr97drop_in_place$LT$syn..punctuated..Punctuated$LT$syn..lifetime..Lifetime$C$syn..token..Add$GT$$GT$17h823dd42c5f78d66dE', symObjAddr: 0x6D10, symBinAddr: 0x7FC20, symSize: 0xD0 }
  - { offsetInCU: 0x1B7E2, offset: 0x2BC53F, size: 0x8, addend: 0x0, symName: '__ZN53_$LT$core..fmt..Error$u20$as$u20$core..fmt..Debug$GT$3fmt17h03dc662ab152f3aeE', symObjAddr: 0x6DE0, symBinAddr: 0x7FCF0, symSize: 0x20 }
  - { offsetInCU: 0x1D5AE, offset: 0x2BE30B, size: 0x8, addend: 0x0, symName: __ZN21borsh_derive_internal17attribute_helpers13contains_skip17h1884933ed2a50401E, symObjAddr: 0x6FA0, symBinAddr: 0x7FEB0, symSize: 0x320 }
  - { offsetInCU: 0x1DD2A, offset: 0x2BEA87, size: 0x8, addend: 0x0, symName: __ZN21borsh_derive_internal17attribute_helpers24contains_initialize_with17h0895113d0da326abE, symObjAddr: 0x72C0, symBinAddr: 0x801D0, symSize: 0x5C6 }
  - { offsetInCU: 0x1E, offset: 0x2CB6E3, size: 0x8, addend: 0x0, symName: '__ZN4core3ptr100drop_in_place$LT$core..option..Option$LT$alloc..boxed..Box$LT$syn..generics..LifetimeDef$GT$$GT$$GT$17h313ac39ae7c8b212E', symObjAddr: 0x0, symBinAddr: 0x807A0, symSize: 0x150 }
  - { offsetInCU: 0x15A2, offset: 0x2CCC67, size: 0x8, addend: 0x0, symName: '__ZN4core3ptr100drop_in_place$LT$core..option..Option$LT$alloc..boxed..Box$LT$syn..generics..LifetimeDef$GT$$GT$$GT$17h313ac39ae7c8b212E', symObjAddr: 0x0, symBinAddr: 0x807A0, symSize: 0x150 }
  - { offsetInCU: 0x1B1E, offset: 0x2CD1E3, size: 0x8, addend: 0x0, symName: '__ZN4core3ptr100drop_in_place$LT$core..option..Option$LT$alloc..boxed..Box$LT$syn..path..GenericArgument$GT$$GT$$GT$17hfa941d4dec6f2efbE', symObjAddr: 0x150, symBinAddr: 0x808F0, symSize: 0x50 }
  - { offsetInCU: 0x1CEB, offset: 0x2CD3B0, size: 0x8, addend: 0x0, symName: '__ZN4core3ptr103drop_in_place$LT$core..option..Option$LT$alloc..boxed..Box$LT$syn..generics..TypeParamBound$GT$$GT$$GT$17h1263411d81252013E', symObjAddr: 0x1A0, symBinAddr: 0x80940, symSize: 0x90 }
  - { offsetInCU: 0x2022, offset: 0x2CD6E7, size: 0x8, addend: 0x0, symName: '__ZN4core3ptr103drop_in_place$LT$core..option..Option$LT$alloc..boxed..Box$LT$syn..generics..WherePredicate$GT$$GT$$GT$17he6f6198de44fef3fE', symObjAddr: 0x230, symBinAddr: 0x809D0, symSize: 0x120 }
  - { offsetInCU: 0x23D7, offset: 0x2CDA9C, size: 0x8, addend: 0x0, symName: '__ZN4core3ptr103drop_in_place$LT$syn..punctuated..Punctuated$LT$syn..generics..TypeParamBound$C$syn..token..Add$GT$$GT$17h466d1d1a44ad0379E', symObjAddr: 0x350, symBinAddr: 0x80AF0, symSize: 0x200 }
  - { offsetInCU: 0x2CB5, offset: 0x2CE37A, size: 0x8, addend: 0x0, symName: '__ZN4core3ptr108drop_in_place$LT$syn..punctuated..Punctuated$LT$syn..expr..GenericMethodArgument$C$syn..token..Comma$GT$$GT$17hf730185d8b64e063E', symObjAddr: 0x550, symBinAddr: 0x80CF0, symSize: 0x150 }
  - { offsetInCU: 0x320E, offset: 0x2CE8D3, size: 0x8, addend: 0x0, symName: '__ZN4core3ptr34drop_in_place$LT$syn..lit..Lit$GT$17h21f7362ab9490569E', symObjAddr: 0x6A0, symBinAddr: 0x80E40, symSize: 0x110 }
  - { offsetInCU: 0x3680, offset: 0x2CED45, size: 0x8, addend: 0x0, symName: '__ZN4core3ptr34drop_in_place$LT$syn..pat..Pat$GT$17h5bc1a1a567df27bcE', symObjAddr: 0x7B0, symBinAddr: 0x80F50, symSize: 0x1190 }
  - { offsetInCU: 0x7598, offset: 0x2D2C5D, size: 0x8, addend: 0x0, symName: '__ZN4core3ptr34drop_in_place$LT$syn..ty..Type$GT$17hd086d8873def3a54E', symObjAddr: 0x1940, symBinAddr: 0x820E0, symSize: 0x540 }
  - { offsetInCU: 0x8E20, offset: 0x2D44E5, size: 0x8, addend: 0x0, symName: '__ZN4core3ptr36drop_in_place$LT$syn..expr..Expr$GT$17had1b47d272065ea2E', symObjAddr: 0x1E80, symBinAddr: 0x82620, symSize: 0x3240 }
  - { offsetInCU: 0x1361B, offset: 0x2DECE0, size: 0x8, addend: 0x0, symName: '__ZN4core3ptr36drop_in_place$LT$syn..mac..Macro$GT$17h9e9b36a6ce40a59fE', symObjAddr: 0x50C0, symBinAddr: 0x85860, symSize: 0x40 }
  - { offsetInCU: 0x1376C, offset: 0x2DEE31, size: 0x8, addend: 0x0, symName: '__ZN4core3ptr36drop_in_place$LT$syn..path..Path$GT$17h7ac94c7f3f056533E', symObjAddr: 0x5100, symBinAddr: 0x858A0, symSize: 0x230 }
  - { offsetInCU: 0x14102, offset: 0x2DF7C7, size: 0x8, addend: 0x0, symName: '__ZN4core3ptr37drop_in_place$LT$syn..stmt..Block$GT$17hdad34f283c5f1899E', symObjAddr: 0x5330, symBinAddr: 0x85AD0, symSize: 0xD0 }
  - { offsetInCU: 0x14417, offset: 0x2DFADC, size: 0x8, addend: 0x0, symName: '__ZN4core3ptr38drop_in_place$LT$syn..error..Error$GT$17h15cda90782fb7f09E', symObjAddr: 0x5400, symBinAddr: 0x85BA0, symSize: 0x80 }
  - { offsetInCU: 0x146D6, offset: 0x2DFD9B, size: 0x8, addend: 0x0, symName: '__ZN4core3ptr38drop_in_place$LT$syn..expr..Member$GT$17h91324a4146c85abdE', symObjAddr: 0x5480, symBinAddr: 0x85C20, symSize: 0x30 }
  - { offsetInCU: 0x147D2, offset: 0x2DFE97, size: 0x8, addend: 0x0, symName: '__ZN4core3ptr39drop_in_place$LT$proc_macro2..Ident$GT$17hc6027ddaabe8aaa4E', symObjAddr: 0x54B0, symBinAddr: 0x85C50, symSize: 0x30 }
  - { offsetInCU: 0x148AF, offset: 0x2DFF74, size: 0x8, addend: 0x0, symName: '__ZN4core3ptr39drop_in_place$LT$syn..pat..PatTuple$GT$17h2f53470caf5b3e6bE', symObjAddr: 0x54E0, symBinAddr: 0x85C80, symSize: 0x100 }
  - { offsetInCU: 0x14BB8, offset: 0x2E027D, size: 0x8, addend: 0x0, symName: '__ZN4core3ptr40drop_in_place$LT$syn..ty..ReturnType$GT$17h724058ca716ebe13E', symObjAddr: 0x55E0, symBinAddr: 0x85D80, symSize: 0x50 }
  - { offsetInCU: 0x14D28, offset: 0x2E03ED, size: 0x8, addend: 0x0, symName: '__ZN4core3ptr44drop_in_place$LT$syn..lifetime..Lifetime$GT$17h5fab458505bc8750E', symObjAddr: 0x5630, symBinAddr: 0x85DD0, symSize: 0x30 }
  - { offsetInCU: 0x14F5A, offset: 0x2E061F, size: 0x8, addend: 0x0, symName: '__ZN4core3ptr45drop_in_place$LT$proc_macro2..TokenStream$GT$17h2af7239932044e06E', symObjAddr: 0x5660, symBinAddr: 0x85E00, symSize: 0x140 }
  - { offsetInCU: 0x15413, offset: 0x2E0AD8, size: 0x8, addend: 0x0, symName: '__ZN4core3ptr47drop_in_place$LT$syn..generics..WhereClause$GT$17hb667103fb12c82b6E', symObjAddr: 0x57A0, symBinAddr: 0x85F40, symSize: 0xE0 }
  - { offsetInCU: 0x1573F, offset: 0x2E0E04, size: 0x8, addend: 0x0, symName: '__ZN4core3ptr47drop_in_place$LT$syn..path..GenericArgument$GT$17h22c70662371ace33E', symObjAddr: 0x5880, symBinAddr: 0x86020, symSize: 0x110 }
  - { offsetInCU: 0x15A5A, offset: 0x2E111F, size: 0x8, addend: 0x0, symName: '__ZN4core3ptr58drop_in_place$LT$alloc..vec..Vec$LT$syn..expr..Arm$GT$$GT$17hbfbf9069c4c2bcc1E', symObjAddr: 0x5990, symBinAddr: 0x86130, symSize: 0xD0 }
  - { offsetInCU: 0x15D1A, offset: 0x2E13DF, size: 0x8, addend: 0x0, symName: '__ZN4core3ptr59drop_in_place$LT$alloc..boxed..Box$LT$syn..pat..Pat$GT$$GT$17h52b31062c14f366bE', symObjAddr: 0x5A60, symBinAddr: 0x86200, symSize: 0x50 }
  - { offsetInCU: 0x15E73, offset: 0x2E1538, size: 0x8, addend: 0x0, symName: '__ZN4core3ptr59drop_in_place$LT$alloc..boxed..Box$LT$syn..ty..Type$GT$$GT$17h764865b58f907f45E', symObjAddr: 0x5AB0, symBinAddr: 0x86250, symSize: 0x50 }
  - { offsetInCU: 0x15FCC, offset: 0x2E1691, size: 0x8, addend: 0x0, symName: '__ZN4core3ptr61drop_in_place$LT$alloc..boxed..Box$LT$syn..expr..Expr$GT$$GT$17hba9d02c1545305ceE', symObjAddr: 0x5B00, symBinAddr: 0x862A0, symSize: 0x50 }
  - { offsetInCU: 0x161A1, offset: 0x2E1866, size: 0x8, addend: 0x0, symName: '__ZN4core3ptr61drop_in_place$LT$syn..path..ParenthesizedGenericArguments$GT$17ha784923ac14ba82dE', symObjAddr: 0x5B50, symBinAddr: 0x862F0, symSize: 0x170 }
  - { offsetInCU: 0x16797, offset: 0x2E1E5C, size: 0x8, addend: 0x0, symName: '__ZN4core3ptr63drop_in_place$LT$alloc..boxed..Box$LT$syn..lit..LitRepr$GT$$GT$17h3f36d4db46ac5751E', symObjAddr: 0x5CC0, symBinAddr: 0x86460, symSize: 0x60 }
  - { offsetInCU: 0x16A9E, offset: 0x2E2163, size: 0x8, addend: 0x0, symName: '__ZN4core3ptr64drop_in_place$LT$alloc..boxed..Box$LT$syn..pat..FieldPat$GT$$GT$17hc72c632384877362E', symObjAddr: 0x5D20, symBinAddr: 0x864C0, symSize: 0x180 }
  - { offsetInCU: 0x171BB, offset: 0x2E2880, size: 0x8, addend: 0x0, symName: '__ZN4core3ptr64drop_in_place$LT$alloc..boxed..Box$LT$syn..ty..BareFnArg$GT$$GT$17hbfda67d8bc6839c1E', symObjAddr: 0x5EA0, symBinAddr: 0x86640, symSize: 0x160 }
  - { offsetInCU: 0x17751, offset: 0x2E2E16, size: 0x8, addend: 0x0, symName: '__ZN4core3ptr65drop_in_place$LT$alloc..vec..Vec$LT$proc_macro..TokenTree$GT$$GT$17hbe7f16cffb276184E', symObjAddr: 0x6000, symBinAddr: 0x867A0, symSize: 0x110 }
  - { offsetInCU: 0x17B49, offset: 0x2E320E, size: 0x8, addend: 0x0, symName: '__ZN4core3ptr65drop_in_place$LT$core..option..Option$LT$syn..expr..Label$GT$$GT$17he0a9c9821aa6b78cE', symObjAddr: 0x6110, symBinAddr: 0x868B0, symSize: 0x30 }
  - { offsetInCU: 0x17C83, offset: 0x2E3348, size: 0x8, addend: 0x0, symName: '__ZN4core3ptr66drop_in_place$LT$core..option..Option$LT$syn..ty..Variadic$GT$$GT$17h744a26e2f12ebebcE', symObjAddr: 0x6140, symBinAddr: 0x868E0, symSize: 0xF0 }
  - { offsetInCU: 0x17FAD, offset: 0x2E3672, size: 0x8, addend: 0x0, symName: '__ZN4core3ptr67drop_in_place$LT$alloc..boxed..Box$LT$syn..expr..FieldValue$GT$$GT$17h8035762dfa39d688E', symObjAddr: 0x6230, symBinAddr: 0x869D0, symSize: 0x160 }
  - { offsetInCU: 0x18542, offset: 0x2E3C07, size: 0x8, addend: 0x0, symName: '__ZN4core3ptr68drop_in_place$LT$alloc..boxed..Box$LT$syn..path..PathSegment$GT$$GT$17h2361de69c8671822E', symObjAddr: 0x6390, symBinAddr: 0x86B30, symSize: 0x190 }
  - { offsetInCU: 0x18C6B, offset: 0x2E4330, size: 0x8, addend: 0x0, symName: '__ZN4core3ptr72drop_in_place$LT$alloc..boxed..Box$LT$syn..path..GenericArgument$GT$$GT$17h5bbf5380dd6fa22fE', symObjAddr: 0x6520, symBinAddr: 0x86CC0, symSize: 0x1D0 }
  - { offsetInCU: 0x19392, offset: 0x2E4A57, size: 0x8, addend: 0x0, symName: '__ZN4core3ptr72drop_in_place$LT$core..option..Option$LT$syn..lifetime..Lifetime$GT$$GT$17h73fca8e7f0aa197bE', symObjAddr: 0x66F0, symBinAddr: 0x86E90, symSize: 0x30 }
  - { offsetInCU: 0x194AD, offset: 0x2E4B72, size: 0x8, addend: 0x0, symName: '__ZN4core3ptr75drop_in_place$LT$alloc..boxed..Box$LT$syn..generics..TypeParamBound$GT$$GT$17hea9af0ea491726e7E', symObjAddr: 0x6720, symBinAddr: 0x86EC0, symSize: 0x140 }
  - { offsetInCU: 0x19A08, offset: 0x2E50CD, size: 0x8, addend: 0x0, symName: '__ZN4core3ptr78drop_in_place$LT$alloc..boxed..Box$LT$syn..expr..GenericMethodArgument$GT$$GT$17hc898c291745edc1fE', symObjAddr: 0x6860, symBinAddr: 0x87000, symSize: 0x60 }
  - { offsetInCU: 0x19BFA, offset: 0x2E52BF, size: 0x8, addend: 0x0, symName: '__ZN4core3ptr78drop_in_place$LT$core..option..Option$LT$syn..generics..BoundLifetimes$GT$$GT$17hd25f8abb18bc7fa5E', symObjAddr: 0x68C0, symBinAddr: 0x87060, symSize: 0x90 }
  - { offsetInCU: 0x19EE8, offset: 0x2E55AD, size: 0x8, addend: 0x0, symName: '__ZN4core3ptr86drop_in_place$LT$syn..punctuated..Punctuated$LT$syn..pat..Pat$C$syn..token..Or$GT$$GT$17h25bbf223ac4cf0beE', symObjAddr: 0x6950, symBinAddr: 0x870F0, symSize: 0x120 }
  - { offsetInCU: 0x1A363, offset: 0x2E5A28, size: 0x8, addend: 0x0, symName: '__ZN4core3ptr87drop_in_place$LT$core..option..Option$LT$alloc..boxed..Box$LT$syn..pat..Pat$GT$$GT$$GT$17hd9c075d7c1044d74E', symObjAddr: 0x6A70, symBinAddr: 0x87210, symSize: 0x50 }
  - { offsetInCU: 0x1A4D3, offset: 0x2E5B98, size: 0x8, addend: 0x0, symName: '__ZN4core3ptr87drop_in_place$LT$core..option..Option$LT$alloc..boxed..Box$LT$syn..ty..Type$GT$$GT$$GT$17h3b78a0016fdd0e69E', symObjAddr: 0x6AC0, symBinAddr: 0x87260, symSize: 0x50 }
  - { offsetInCU: 0x1A643, offset: 0x2E5D08, size: 0x8, addend: 0x0, symName: '__ZN4core3ptr89drop_in_place$LT$core..option..Option$LT$alloc..boxed..Box$LT$syn..expr..Expr$GT$$GT$$GT$17h1af7f5bb8779605fE', symObjAddr: 0x6B10, symBinAddr: 0x872B0, symSize: 0x50 }
  - { offsetInCU: 0x1A7F1, offset: 0x2E5EB6, size: 0x8, addend: 0x0, symName: '__ZN4core3ptr89drop_in_place$LT$syn..punctuated..Punctuated$LT$syn..pat..Pat$C$syn..token..Comma$GT$$GT$17h7a2618c7011ca178E', symObjAddr: 0x6B60, symBinAddr: 0x87300, symSize: 0x120 }
  - { offsetInCU: 0x1AC83, offset: 0x2E6348, size: 0x8, addend: 0x0, symName: '__ZN4core3ptr89drop_in_place$LT$syn..punctuated..Punctuated$LT$syn..ty..Type$C$syn..token..Comma$GT$$GT$17h335eea701942d1deE', symObjAddr: 0x6C80, symBinAddr: 0x87420, symSize: 0x120 }
  - { offsetInCU: 0x1B13C, offset: 0x2E6801, size: 0x8, addend: 0x0, symName: '__ZN4core3ptr91drop_in_place$LT$syn..punctuated..Punctuated$LT$syn..expr..Expr$C$syn..token..Comma$GT$$GT$17h9d04cb4adde0cb50E', symObjAddr: 0x6DA0, symBinAddr: 0x87540, symSize: 0x120 }
  - { offsetInCU: 0x1B5CA, offset: 0x2E6C8F, size: 0x8, addend: 0x0, symName: '__ZN4core3ptr94drop_in_place$LT$syn..punctuated..Punctuated$LT$syn..pat..FieldPat$C$syn..token..Comma$GT$$GT$17h229ff5b8c83a7723E', symObjAddr: 0x6EC0, symBinAddr: 0x87660, symSize: 0xF0 }
  - { offsetInCU: 0x1B8C9, offset: 0x2E6F8E, size: 0x8, addend: 0x0, symName: '__ZN4core3ptr94drop_in_place$LT$syn..punctuated..Punctuated$LT$syn..ty..BareFnArg$C$syn..token..Comma$GT$$GT$17h6a6db218992bdbcbE', symObjAddr: 0x6FB0, symBinAddr: 0x87750, symSize: 0x90 }
  - { offsetInCU: 0x1BB39, offset: 0x2E71FE, size: 0x8, addend: 0x0, symName: '__ZN4core3ptr96drop_in_place$LT$core..option..Option$LT$alloc..boxed..Box$LT$syn..path..PathSegment$GT$$GT$$GT$17h29595e83487773ecE', symObjAddr: 0x7040, symBinAddr: 0x877E0, symSize: 0x180 }
  - { offsetInCU: 0x1C1F6, offset: 0x2E78BB, size: 0x8, addend: 0x0, symName: '__ZN4core3ptr97drop_in_place$LT$syn..punctuated..Punctuated$LT$syn..expr..FieldValue$C$syn..token..Comma$GT$$GT$17h3dc1e5362c172304E', symObjAddr: 0x71C0, symBinAddr: 0x87960, symSize: 0x90 }
  - { offsetInCU: 0x1C4E2, offset: 0x2E7BA7, size: 0x8, addend: 0x0, symName: '__ZN4core3ptr97drop_in_place$LT$syn..punctuated..Punctuated$LT$syn..lifetime..Lifetime$C$syn..token..Add$GT$$GT$17h823dd42c5f78d66dE', symObjAddr: 0x7250, symBinAddr: 0x879F0, symSize: 0xD0 }
  - { offsetInCU: 0x1C956, offset: 0x2E801B, size: 0x8, addend: 0x0, symName: '__ZN4core3ptr99drop_in_place$LT$syn..punctuated..Punctuated$LT$syn..path..PathSegment$C$syn..token..Colon2$GT$$GT$17h74bf623facf56480E', symObjAddr: 0x7320, symBinAddr: 0x87AC0, symSize: 0x250 }
  - { offsetInCU: 0x1E626, offset: 0x2E9CEB, size: 0x8, addend: 0x0, symName: __ZN21borsh_derive_internal9struct_de9struct_de17h705f29bdd8bc4badE, symObjAddr: 0x7570, symBinAddr: 0x87D10, symSize: 0x17B1 }
  - { offsetInCU: 0x1E, offset: 0x2F7126, size: 0x8, addend: 0x0, symName: '__ZN4core3ptr100drop_in_place$LT$core..option..Option$LT$alloc..boxed..Box$LT$syn..generics..LifetimeDef$GT$$GT$$GT$17h313ac39ae7c8b212E', symObjAddr: 0x0, symBinAddr: 0x894D0, symSize: 0x150 }
  - { offsetInCU: 0x62, offset: 0x2F716A, size: 0x8, addend: 0x0, symName: '__ZN70_$LT$core..num..error..TryFromIntError$u20$as$u20$core..fmt..Debug$GT$3fmt17h1128a7e265c9ce9aE', symObjAddr: 0x7570, symBinAddr: 0x90A40, symSize: 0x40 }
  - { offsetInCU: 0xB80, offset: 0x2F7C88, size: 0x8, addend: 0x0, symName: '__ZN4core3ptr100drop_in_place$LT$core..option..Option$LT$alloc..boxed..Box$LT$syn..generics..LifetimeDef$GT$$GT$$GT$17h313ac39ae7c8b212E', symObjAddr: 0x0, symBinAddr: 0x894D0, symSize: 0x150 }
  - { offsetInCU: 0x10FC, offset: 0x2F8204, size: 0x8, addend: 0x0, symName: '__ZN4core3ptr100drop_in_place$LT$core..option..Option$LT$alloc..boxed..Box$LT$syn..path..GenericArgument$GT$$GT$$GT$17hfa941d4dec6f2efbE', symObjAddr: 0x150, symBinAddr: 0x89620, symSize: 0x50 }
  - { offsetInCU: 0x12C9, offset: 0x2F83D1, size: 0x8, addend: 0x0, symName: '__ZN4core3ptr103drop_in_place$LT$core..option..Option$LT$alloc..boxed..Box$LT$syn..generics..TypeParamBound$GT$$GT$$GT$17h1263411d81252013E', symObjAddr: 0x1A0, symBinAddr: 0x89670, symSize: 0x90 }
  - { offsetInCU: 0x1600, offset: 0x2F8708, size: 0x8, addend: 0x0, symName: '__ZN4core3ptr103drop_in_place$LT$core..option..Option$LT$alloc..boxed..Box$LT$syn..generics..WherePredicate$GT$$GT$$GT$17he6f6198de44fef3fE', symObjAddr: 0x230, symBinAddr: 0x89700, symSize: 0x120 }
  - { offsetInCU: 0x19B5, offset: 0x2F8ABD, size: 0x8, addend: 0x0, symName: '__ZN4core3ptr103drop_in_place$LT$syn..punctuated..Punctuated$LT$syn..generics..TypeParamBound$C$syn..token..Add$GT$$GT$17h466d1d1a44ad0379E', symObjAddr: 0x350, symBinAddr: 0x89820, symSize: 0x200 }
  - { offsetInCU: 0x2293, offset: 0x2F939B, size: 0x8, addend: 0x0, symName: '__ZN4core3ptr108drop_in_place$LT$syn..punctuated..Punctuated$LT$syn..expr..GenericMethodArgument$C$syn..token..Comma$GT$$GT$17hf730185d8b64e063E', symObjAddr: 0x550, symBinAddr: 0x89A20, symSize: 0x150 }
  - { offsetInCU: 0x27EC, offset: 0x2F98F4, size: 0x8, addend: 0x0, symName: '__ZN4core3ptr34drop_in_place$LT$syn..lit..Lit$GT$17h21f7362ab9490569E', symObjAddr: 0x6A0, symBinAddr: 0x89B70, symSize: 0x110 }
  - { offsetInCU: 0x2C5E, offset: 0x2F9D66, size: 0x8, addend: 0x0, symName: '__ZN4core3ptr34drop_in_place$LT$syn..pat..Pat$GT$17h5bc1a1a567df27bcE', symObjAddr: 0x7B0, symBinAddr: 0x89C80, symSize: 0x1190 }
  - { offsetInCU: 0x6B76, offset: 0x2FDC7E, size: 0x8, addend: 0x0, symName: '__ZN4core3ptr34drop_in_place$LT$syn..ty..Type$GT$17hd086d8873def3a54E', symObjAddr: 0x1940, symBinAddr: 0x8AE10, symSize: 0x540 }
  - { offsetInCU: 0x83FE, offset: 0x2FF506, size: 0x8, addend: 0x0, symName: '__ZN4core3ptr36drop_in_place$LT$syn..expr..Expr$GT$17had1b47d272065ea2E', symObjAddr: 0x1E80, symBinAddr: 0x8B350, symSize: 0x3240 }
  - { offsetInCU: 0x12BF9, offset: 0x309D01, size: 0x8, addend: 0x0, symName: '__ZN4core3ptr36drop_in_place$LT$syn..mac..Macro$GT$17h9e9b36a6ce40a59fE', symObjAddr: 0x50C0, symBinAddr: 0x8E590, symSize: 0x40 }
  - { offsetInCU: 0x12D4A, offset: 0x309E52, size: 0x8, addend: 0x0, symName: '__ZN4core3ptr36drop_in_place$LT$syn..path..Path$GT$17h7ac94c7f3f056533E', symObjAddr: 0x5100, symBinAddr: 0x8E5D0, symSize: 0x230 }
  - { offsetInCU: 0x136E0, offset: 0x30A7E8, size: 0x8, addend: 0x0, symName: '__ZN4core3ptr37drop_in_place$LT$syn..stmt..Block$GT$17hdad34f283c5f1899E', symObjAddr: 0x5330, symBinAddr: 0x8E800, symSize: 0xD0 }
  - { offsetInCU: 0x139F5, offset: 0x30AAFD, size: 0x8, addend: 0x0, symName: '__ZN4core3ptr38drop_in_place$LT$syn..error..Error$GT$17h15cda90782fb7f09E', symObjAddr: 0x5400, symBinAddr: 0x8E8D0, symSize: 0x80 }
  - { offsetInCU: 0x13CB4, offset: 0x30ADBC, size: 0x8, addend: 0x0, symName: '__ZN4core3ptr38drop_in_place$LT$syn..expr..Member$GT$17h91324a4146c85abdE', symObjAddr: 0x5480, symBinAddr: 0x8E950, symSize: 0x30 }
  - { offsetInCU: 0x13DB0, offset: 0x30AEB8, size: 0x8, addend: 0x0, symName: '__ZN4core3ptr39drop_in_place$LT$proc_macro2..Ident$GT$17hc6027ddaabe8aaa4E', symObjAddr: 0x54B0, symBinAddr: 0x8E980, symSize: 0x30 }
  - { offsetInCU: 0x13E8D, offset: 0x30AF95, size: 0x8, addend: 0x0, symName: '__ZN4core3ptr39drop_in_place$LT$syn..pat..PatTuple$GT$17h2f53470caf5b3e6bE', symObjAddr: 0x54E0, symBinAddr: 0x8E9B0, symSize: 0x100 }
  - { offsetInCU: 0x14196, offset: 0x30B29E, size: 0x8, addend: 0x0, symName: '__ZN4core3ptr40drop_in_place$LT$syn..ty..ReturnType$GT$17h724058ca716ebe13E', symObjAddr: 0x55E0, symBinAddr: 0x8EAB0, symSize: 0x50 }
  - { offsetInCU: 0x14306, offset: 0x30B40E, size: 0x8, addend: 0x0, symName: '__ZN4core3ptr44drop_in_place$LT$syn..lifetime..Lifetime$GT$17h5fab458505bc8750E', symObjAddr: 0x5630, symBinAddr: 0x8EB00, symSize: 0x30 }
  - { offsetInCU: 0x14538, offset: 0x30B640, size: 0x8, addend: 0x0, symName: '__ZN4core3ptr45drop_in_place$LT$proc_macro2..TokenStream$GT$17h2af7239932044e06E', symObjAddr: 0x5660, symBinAddr: 0x8EB30, symSize: 0x140 }
  - { offsetInCU: 0x149F1, offset: 0x30BAF9, size: 0x8, addend: 0x0, symName: '__ZN4core3ptr47drop_in_place$LT$syn..generics..WhereClause$GT$17hb667103fb12c82b6E', symObjAddr: 0x57A0, symBinAddr: 0x8EC70, symSize: 0xE0 }
  - { offsetInCU: 0x14D1D, offset: 0x30BE25, size: 0x8, addend: 0x0, symName: '__ZN4core3ptr47drop_in_place$LT$syn..path..GenericArgument$GT$17h22c70662371ace33E', symObjAddr: 0x5880, symBinAddr: 0x8ED50, symSize: 0x110 }
  - { offsetInCU: 0x15038, offset: 0x30C140, size: 0x8, addend: 0x0, symName: '__ZN4core3ptr58drop_in_place$LT$alloc..vec..Vec$LT$syn..expr..Arm$GT$$GT$17hbfbf9069c4c2bcc1E', symObjAddr: 0x5990, symBinAddr: 0x8EE60, symSize: 0xD0 }
  - { offsetInCU: 0x152F8, offset: 0x30C400, size: 0x8, addend: 0x0, symName: '__ZN4core3ptr59drop_in_place$LT$alloc..boxed..Box$LT$syn..pat..Pat$GT$$GT$17h52b31062c14f366bE', symObjAddr: 0x5A60, symBinAddr: 0x8EF30, symSize: 0x50 }
  - { offsetInCU: 0x15451, offset: 0x30C559, size: 0x8, addend: 0x0, symName: '__ZN4core3ptr59drop_in_place$LT$alloc..boxed..Box$LT$syn..ty..Type$GT$$GT$17h764865b58f907f45E', symObjAddr: 0x5AB0, symBinAddr: 0x8EF80, symSize: 0x50 }
  - { offsetInCU: 0x155AA, offset: 0x30C6B2, size: 0x8, addend: 0x0, symName: '__ZN4core3ptr61drop_in_place$LT$alloc..boxed..Box$LT$syn..expr..Expr$GT$$GT$17hba9d02c1545305ceE', symObjAddr: 0x5B00, symBinAddr: 0x8EFD0, symSize: 0x50 }
  - { offsetInCU: 0x1577F, offset: 0x30C887, size: 0x8, addend: 0x0, symName: '__ZN4core3ptr61drop_in_place$LT$syn..path..ParenthesizedGenericArguments$GT$17ha784923ac14ba82dE', symObjAddr: 0x5B50, symBinAddr: 0x8F020, symSize: 0x170 }
  - { offsetInCU: 0x15D75, offset: 0x30CE7D, size: 0x8, addend: 0x0, symName: '__ZN4core3ptr63drop_in_place$LT$alloc..boxed..Box$LT$syn..lit..LitRepr$GT$$GT$17h3f36d4db46ac5751E', symObjAddr: 0x5CC0, symBinAddr: 0x8F190, symSize: 0x60 }
  - { offsetInCU: 0x1607C, offset: 0x30D184, size: 0x8, addend: 0x0, symName: '__ZN4core3ptr64drop_in_place$LT$alloc..boxed..Box$LT$syn..pat..FieldPat$GT$$GT$17hc72c632384877362E', symObjAddr: 0x5D20, symBinAddr: 0x8F1F0, symSize: 0x180 }
  - { offsetInCU: 0x16799, offset: 0x30D8A1, size: 0x8, addend: 0x0, symName: '__ZN4core3ptr64drop_in_place$LT$alloc..boxed..Box$LT$syn..ty..BareFnArg$GT$$GT$17hbfda67d8bc6839c1E', symObjAddr: 0x5EA0, symBinAddr: 0x8F370, symSize: 0x160 }
  - { offsetInCU: 0x16D2F, offset: 0x30DE37, size: 0x8, addend: 0x0, symName: '__ZN4core3ptr65drop_in_place$LT$alloc..vec..Vec$LT$proc_macro..TokenTree$GT$$GT$17hbe7f16cffb276184E', symObjAddr: 0x6000, symBinAddr: 0x8F4D0, symSize: 0x110 }
  - { offsetInCU: 0x17127, offset: 0x30E22F, size: 0x8, addend: 0x0, symName: '__ZN4core3ptr65drop_in_place$LT$core..option..Option$LT$syn..expr..Label$GT$$GT$17he0a9c9821aa6b78cE', symObjAddr: 0x6110, symBinAddr: 0x8F5E0, symSize: 0x30 }
  - { offsetInCU: 0x17261, offset: 0x30E369, size: 0x8, addend: 0x0, symName: '__ZN4core3ptr66drop_in_place$LT$core..option..Option$LT$syn..ty..Variadic$GT$$GT$17h744a26e2f12ebebcE', symObjAddr: 0x6140, symBinAddr: 0x8F610, symSize: 0xF0 }
  - { offsetInCU: 0x1758B, offset: 0x30E693, size: 0x8, addend: 0x0, symName: '__ZN4core3ptr67drop_in_place$LT$alloc..boxed..Box$LT$syn..expr..FieldValue$GT$$GT$17h8035762dfa39d688E', symObjAddr: 0x6230, symBinAddr: 0x8F700, symSize: 0x160 }
  - { offsetInCU: 0x17B20, offset: 0x30EC28, size: 0x8, addend: 0x0, symName: '__ZN4core3ptr68drop_in_place$LT$alloc..boxed..Box$LT$syn..path..PathSegment$GT$$GT$17h2361de69c8671822E', symObjAddr: 0x6390, symBinAddr: 0x8F860, symSize: 0x190 }
  - { offsetInCU: 0x18249, offset: 0x30F351, size: 0x8, addend: 0x0, symName: '__ZN4core3ptr72drop_in_place$LT$alloc..boxed..Box$LT$syn..path..GenericArgument$GT$$GT$17h5bbf5380dd6fa22fE', symObjAddr: 0x6520, symBinAddr: 0x8F9F0, symSize: 0x1D0 }
  - { offsetInCU: 0x18970, offset: 0x30FA78, size: 0x8, addend: 0x0, symName: '__ZN4core3ptr72drop_in_place$LT$core..option..Option$LT$syn..lifetime..Lifetime$GT$$GT$17h73fca8e7f0aa197bE', symObjAddr: 0x66F0, symBinAddr: 0x8FBC0, symSize: 0x30 }
  - { offsetInCU: 0x18A8B, offset: 0x30FB93, size: 0x8, addend: 0x0, symName: '__ZN4core3ptr75drop_in_place$LT$alloc..boxed..Box$LT$syn..generics..TypeParamBound$GT$$GT$17hea9af0ea491726e7E', symObjAddr: 0x6720, symBinAddr: 0x8FBF0, symSize: 0x140 }
  - { offsetInCU: 0x18FE6, offset: 0x3100EE, size: 0x8, addend: 0x0, symName: '__ZN4core3ptr78drop_in_place$LT$alloc..boxed..Box$LT$syn..expr..GenericMethodArgument$GT$$GT$17hc898c291745edc1fE', symObjAddr: 0x6860, symBinAddr: 0x8FD30, symSize: 0x60 }
  - { offsetInCU: 0x191D8, offset: 0x3102E0, size: 0x8, addend: 0x0, symName: '__ZN4core3ptr78drop_in_place$LT$core..option..Option$LT$syn..generics..BoundLifetimes$GT$$GT$17hd25f8abb18bc7fa5E', symObjAddr: 0x68C0, symBinAddr: 0x8FD90, symSize: 0x90 }
  - { offsetInCU: 0x194C6, offset: 0x3105CE, size: 0x8, addend: 0x0, symName: '__ZN4core3ptr86drop_in_place$LT$syn..punctuated..Punctuated$LT$syn..pat..Pat$C$syn..token..Or$GT$$GT$17h25bbf223ac4cf0beE', symObjAddr: 0x6950, symBinAddr: 0x8FE20, symSize: 0x120 }
  - { offsetInCU: 0x19941, offset: 0x310A49, size: 0x8, addend: 0x0, symName: '__ZN4core3ptr87drop_in_place$LT$core..option..Option$LT$alloc..boxed..Box$LT$syn..pat..Pat$GT$$GT$$GT$17hd9c075d7c1044d74E', symObjAddr: 0x6A70, symBinAddr: 0x8FF40, symSize: 0x50 }
  - { offsetInCU: 0x19AB1, offset: 0x310BB9, size: 0x8, addend: 0x0, symName: '__ZN4core3ptr87drop_in_place$LT$core..option..Option$LT$alloc..boxed..Box$LT$syn..ty..Type$GT$$GT$$GT$17h3b78a0016fdd0e69E', symObjAddr: 0x6AC0, symBinAddr: 0x8FF90, symSize: 0x50 }
  - { offsetInCU: 0x19C21, offset: 0x310D29, size: 0x8, addend: 0x0, symName: '__ZN4core3ptr89drop_in_place$LT$core..option..Option$LT$alloc..boxed..Box$LT$syn..expr..Expr$GT$$GT$$GT$17h1af7f5bb8779605fE', symObjAddr: 0x6B10, symBinAddr: 0x8FFE0, symSize: 0x50 }
  - { offsetInCU: 0x19DCF, offset: 0x310ED7, size: 0x8, addend: 0x0, symName: '__ZN4core3ptr89drop_in_place$LT$syn..punctuated..Punctuated$LT$syn..pat..Pat$C$syn..token..Comma$GT$$GT$17h7a2618c7011ca178E', symObjAddr: 0x6B60, symBinAddr: 0x90030, symSize: 0x120 }
  - { offsetInCU: 0x1A261, offset: 0x311369, size: 0x8, addend: 0x0, symName: '__ZN4core3ptr89drop_in_place$LT$syn..punctuated..Punctuated$LT$syn..ty..Type$C$syn..token..Comma$GT$$GT$17h335eea701942d1deE', symObjAddr: 0x6C80, symBinAddr: 0x90150, symSize: 0x120 }
  - { offsetInCU: 0x1A71A, offset: 0x311822, size: 0x8, addend: 0x0, symName: '__ZN4core3ptr91drop_in_place$LT$syn..punctuated..Punctuated$LT$syn..expr..Expr$C$syn..token..Comma$GT$$GT$17h9d04cb4adde0cb50E', symObjAddr: 0x6DA0, symBinAddr: 0x90270, symSize: 0x120 }
  - { offsetInCU: 0x1ABA8, offset: 0x311CB0, size: 0x8, addend: 0x0, symName: '__ZN4core3ptr94drop_in_place$LT$syn..punctuated..Punctuated$LT$syn..pat..FieldPat$C$syn..token..Comma$GT$$GT$17h229ff5b8c83a7723E', symObjAddr: 0x6EC0, symBinAddr: 0x90390, symSize: 0xF0 }
  - { offsetInCU: 0x1AEA7, offset: 0x311FAF, size: 0x8, addend: 0x0, symName: '__ZN4core3ptr94drop_in_place$LT$syn..punctuated..Punctuated$LT$syn..ty..BareFnArg$C$syn..token..Comma$GT$$GT$17h6a6db218992bdbcbE', symObjAddr: 0x6FB0, symBinAddr: 0x90480, symSize: 0x90 }
  - { offsetInCU: 0x1B117, offset: 0x31221F, size: 0x8, addend: 0x0, symName: '__ZN4core3ptr96drop_in_place$LT$core..option..Option$LT$alloc..boxed..Box$LT$syn..path..PathSegment$GT$$GT$$GT$17h29595e83487773ecE', symObjAddr: 0x7040, symBinAddr: 0x90510, symSize: 0x180 }
  - { offsetInCU: 0x1B7D4, offset: 0x3128DC, size: 0x8, addend: 0x0, symName: '__ZN4core3ptr97drop_in_place$LT$syn..punctuated..Punctuated$LT$syn..expr..FieldValue$C$syn..token..Comma$GT$$GT$17h3dc1e5362c172304E', symObjAddr: 0x71C0, symBinAddr: 0x90690, symSize: 0x90 }
  - { offsetInCU: 0x1BAC0, offset: 0x312BC8, size: 0x8, addend: 0x0, symName: '__ZN4core3ptr97drop_in_place$LT$syn..punctuated..Punctuated$LT$syn..lifetime..Lifetime$C$syn..token..Add$GT$$GT$17h823dd42c5f78d66dE', symObjAddr: 0x7250, symBinAddr: 0x90720, symSize: 0xD0 }
  - { offsetInCU: 0x1BF34, offset: 0x31303C, size: 0x8, addend: 0x0, symName: '__ZN4core3ptr99drop_in_place$LT$syn..punctuated..Punctuated$LT$syn..path..PathSegment$C$syn..token..Colon2$GT$$GT$17h74bf623facf56480E', symObjAddr: 0x7320, symBinAddr: 0x907F0, symSize: 0x250 }
  - { offsetInCU: 0x1E5FC, offset: 0x315704, size: 0x8, addend: 0x0, symName: __ZN21borsh_derive_internal10struct_ser10struct_ser17ha5a95e9c46471e57E, symObjAddr: 0x75B0, symBinAddr: 0x90A80, symSize: 0xD0A }
  - { offsetInCU: 0x1E, offset: 0x322616, size: 0x8, addend: 0x0, symName: '__ZN40_$LT$F$u20$as$u20$syn..parse..Parser$GT$6parse217h722017dd4d85b8baE', symObjAddr: 0x0, symBinAddr: 0x91790, symSize: 0x380 }
  - { offsetInCU: 0x1A8A, offset: 0x324082, size: 0x8, addend: 0x0, symName: '__ZN4core3ptr100drop_in_place$LT$core..option..Option$LT$alloc..boxed..Box$LT$syn..generics..LifetimeDef$GT$$GT$$GT$17h313ac39ae7c8b212E', symObjAddr: 0x380, symBinAddr: 0x91B10, symSize: 0x150 }
  - { offsetInCU: 0x2006, offset: 0x3245FE, size: 0x8, addend: 0x0, symName: '__ZN4core3ptr100drop_in_place$LT$core..option..Option$LT$alloc..boxed..Box$LT$syn..path..GenericArgument$GT$$GT$$GT$17hfa941d4dec6f2efbE', symObjAddr: 0x4D0, symBinAddr: 0x91C60, symSize: 0x50 }
  - { offsetInCU: 0x21D3, offset: 0x3247CB, size: 0x8, addend: 0x0, symName: '__ZN4core3ptr103drop_in_place$LT$core..option..Option$LT$alloc..boxed..Box$LT$syn..generics..TypeParamBound$GT$$GT$$GT$17h1263411d81252013E', symObjAddr: 0x520, symBinAddr: 0x91CB0, symSize: 0x90 }
  - { offsetInCU: 0x2548, offset: 0x324B40, size: 0x8, addend: 0x0, symName: '__ZN4core3ptr103drop_in_place$LT$syn..punctuated..Punctuated$LT$syn..generics..TypeParamBound$C$syn..token..Add$GT$$GT$17h466d1d1a44ad0379E', symObjAddr: 0x5B0, symBinAddr: 0x91D40, symSize: 0x200 }
  - { offsetInCU: 0x2E26, offset: 0x32541E, size: 0x8, addend: 0x0, symName: '__ZN4core3ptr108drop_in_place$LT$syn..punctuated..Punctuated$LT$syn..expr..GenericMethodArgument$C$syn..token..Comma$GT$$GT$17hf730185d8b64e063E', symObjAddr: 0x7B0, symBinAddr: 0x91F40, symSize: 0x150 }
  - { offsetInCU: 0x337F, offset: 0x325977, size: 0x8, addend: 0x0, symName: '__ZN4core3ptr34drop_in_place$LT$syn..lit..Lit$GT$17h21f7362ab9490569E', symObjAddr: 0x900, symBinAddr: 0x92090, symSize: 0x110 }
  - { offsetInCU: 0x37F1, offset: 0x325DE9, size: 0x8, addend: 0x0, symName: '__ZN4core3ptr34drop_in_place$LT$syn..pat..Pat$GT$17h5bc1a1a567df27bcE', symObjAddr: 0xA10, symBinAddr: 0x921A0, symSize: 0x1190 }
  - { offsetInCU: 0x7709, offset: 0x329D01, size: 0x8, addend: 0x0, symName: '__ZN4core3ptr34drop_in_place$LT$syn..ty..Type$GT$17hd086d8873def3a54E', symObjAddr: 0x1BA0, symBinAddr: 0x93330, symSize: 0x540 }
  - { offsetInCU: 0x8F91, offset: 0x32B589, size: 0x8, addend: 0x0, symName: '__ZN4core3ptr36drop_in_place$LT$syn..expr..Expr$GT$17had1b47d272065ea2E', symObjAddr: 0x20E0, symBinAddr: 0x93870, symSize: 0x3240 }
  - { offsetInCU: 0x1378C, offset: 0x335D84, size: 0x8, addend: 0x0, symName: '__ZN4core3ptr36drop_in_place$LT$syn..mac..Macro$GT$17h9e9b36a6ce40a59fE', symObjAddr: 0x5320, symBinAddr: 0x96AB0, symSize: 0x40 }
  - { offsetInCU: 0x138DD, offset: 0x335ED5, size: 0x8, addend: 0x0, symName: '__ZN4core3ptr36drop_in_place$LT$syn..path..Path$GT$17h7ac94c7f3f056533E', symObjAddr: 0x5360, symBinAddr: 0x96AF0, symSize: 0x230 }
  - { offsetInCU: 0x14273, offset: 0x33686B, size: 0x8, addend: 0x0, symName: '__ZN4core3ptr37drop_in_place$LT$syn..stmt..Block$GT$17hdad34f283c5f1899E', symObjAddr: 0x5590, symBinAddr: 0x96D20, symSize: 0xD0 }
  - { offsetInCU: 0x1454A, offset: 0x336B42, size: 0x8, addend: 0x0, symName: '__ZN4core3ptr38drop_in_place$LT$syn..expr..Member$GT$17h91324a4146c85abdE', symObjAddr: 0x5660, symBinAddr: 0x96DF0, symSize: 0x30 }
  - { offsetInCU: 0x14646, offset: 0x336C3E, size: 0x8, addend: 0x0, symName: '__ZN4core3ptr39drop_in_place$LT$proc_macro2..Ident$GT$17hc6027ddaabe8aaa4E', symObjAddr: 0x5690, symBinAddr: 0x96E20, symSize: 0x30 }
  - { offsetInCU: 0x14859, offset: 0x336E51, size: 0x8, addend: 0x0, symName: '__ZN4core3ptr39drop_in_place$LT$syn..buffer..Entry$GT$17h40b34da40702ef5aE', symObjAddr: 0x56C0, symBinAddr: 0x96E50, symSize: 0xB0 }
  - { offsetInCU: 0x14BE4, offset: 0x3371DC, size: 0x8, addend: 0x0, symName: '__ZN4core3ptr39drop_in_place$LT$syn..pat..PatTuple$GT$17h2f53470caf5b3e6bE', symObjAddr: 0x5770, symBinAddr: 0x96F00, symSize: 0x100 }
  - { offsetInCU: 0x14EED, offset: 0x3374E5, size: 0x8, addend: 0x0, symName: '__ZN4core3ptr40drop_in_place$LT$syn..ty..ReturnType$GT$17h724058ca716ebe13E', symObjAddr: 0x5870, symBinAddr: 0x97000, symSize: 0x50 }
  - { offsetInCU: 0x1505D, offset: 0x337655, size: 0x8, addend: 0x0, symName: '__ZN4core3ptr44drop_in_place$LT$syn..lifetime..Lifetime$GT$17h5fab458505bc8750E', symObjAddr: 0x58C0, symBinAddr: 0x97050, symSize: 0x30 }
  - { offsetInCU: 0x15159, offset: 0x337751, size: 0x8, addend: 0x0, symName: '__ZN4core3ptr44drop_in_place$LT$syn..parse..ParseBuffer$GT$17h1d9710cc1948eef8E', symObjAddr: 0x58F0, symBinAddr: 0x97080, symSize: 0x70 }
  - { offsetInCU: 0x154D5, offset: 0x337ACD, size: 0x8, addend: 0x0, symName: '__ZN4core3ptr45drop_in_place$LT$proc_macro2..TokenStream$GT$17h2af7239932044e06E', symObjAddr: 0x5960, symBinAddr: 0x970F0, symSize: 0x140 }
  - { offsetInCU: 0x15931, offset: 0x337F29, size: 0x8, addend: 0x0, symName: '__ZN4core3ptr45drop_in_place$LT$syn..buffer..TokenBuffer$GT$17h32955f8e88dedfb5E', symObjAddr: 0x5AA0, symBinAddr: 0x97230, symSize: 0xC0 }
  - { offsetInCU: 0x15B99, offset: 0x338191, size: 0x8, addend: 0x0, symName: '__ZN4core3ptr47drop_in_place$LT$syn..path..GenericArgument$GT$17h22c70662371ace33E', symObjAddr: 0x5B60, symBinAddr: 0x972F0, symSize: 0x110 }
  - { offsetInCU: 0x15F11, offset: 0x338509, size: 0x8, addend: 0x0, symName: '__ZN4core3ptr50drop_in_place$LT$syn..generics..WherePredicate$GT$17h13c0cb9b98232da6E', symObjAddr: 0x5C70, symBinAddr: 0x97400, symSize: 0x100 }
  - { offsetInCU: 0x16098, offset: 0x338690, size: 0x8, addend: 0x0, symName: '__ZN4core3ptr58drop_in_place$LT$alloc..vec..Vec$LT$syn..expr..Arm$GT$$GT$17hbfbf9069c4c2bcc1E', symObjAddr: 0x5D70, symBinAddr: 0x97500, symSize: 0xD0 }
  - { offsetInCU: 0x16358, offset: 0x338950, size: 0x8, addend: 0x0, symName: '__ZN4core3ptr59drop_in_place$LT$alloc..boxed..Box$LT$syn..pat..Pat$GT$$GT$17h52b31062c14f366bE', symObjAddr: 0x5E40, symBinAddr: 0x975D0, symSize: 0x50 }
  - { offsetInCU: 0x164B1, offset: 0x338AA9, size: 0x8, addend: 0x0, symName: '__ZN4core3ptr59drop_in_place$LT$alloc..boxed..Box$LT$syn..ty..Type$GT$$GT$17h764865b58f907f45E', symObjAddr: 0x5E90, symBinAddr: 0x97620, symSize: 0x50 }
  - { offsetInCU: 0x1660A, offset: 0x338C02, size: 0x8, addend: 0x0, symName: '__ZN4core3ptr61drop_in_place$LT$alloc..boxed..Box$LT$syn..expr..Expr$GT$$GT$17hba9d02c1545305ceE', symObjAddr: 0x5EE0, symBinAddr: 0x97670, symSize: 0x50 }
  - { offsetInCU: 0x167DF, offset: 0x338DD7, size: 0x8, addend: 0x0, symName: '__ZN4core3ptr61drop_in_place$LT$syn..path..ParenthesizedGenericArguments$GT$17ha784923ac14ba82dE', symObjAddr: 0x5F30, symBinAddr: 0x976C0, symSize: 0x170 }
  - { offsetInCU: 0x16DD5, offset: 0x3393CD, size: 0x8, addend: 0x0, symName: '__ZN4core3ptr63drop_in_place$LT$alloc..boxed..Box$LT$syn..lit..LitRepr$GT$$GT$17h3f36d4db46ac5751E', symObjAddr: 0x60A0, symBinAddr: 0x97830, symSize: 0x60 }
  - { offsetInCU: 0x170DC, offset: 0x3396D4, size: 0x8, addend: 0x0, symName: '__ZN4core3ptr64drop_in_place$LT$alloc..boxed..Box$LT$syn..pat..FieldPat$GT$$GT$17hc72c632384877362E', symObjAddr: 0x6100, symBinAddr: 0x97890, symSize: 0x180 }
  - { offsetInCU: 0x177F9, offset: 0x339DF1, size: 0x8, addend: 0x0, symName: '__ZN4core3ptr64drop_in_place$LT$alloc..boxed..Box$LT$syn..ty..BareFnArg$GT$$GT$17hbfda67d8bc6839c1E', symObjAddr: 0x6280, symBinAddr: 0x97A10, symSize: 0x160 }
  - { offsetInCU: 0x17D8F, offset: 0x33A387, size: 0x8, addend: 0x0, symName: '__ZN4core3ptr65drop_in_place$LT$alloc..vec..Vec$LT$proc_macro..TokenTree$GT$$GT$17hbe7f16cffb276184E', symObjAddr: 0x63E0, symBinAddr: 0x97B70, symSize: 0x110 }
  - { offsetInCU: 0x18187, offset: 0x33A77F, size: 0x8, addend: 0x0, symName: '__ZN4core3ptr65drop_in_place$LT$core..option..Option$LT$syn..expr..Label$GT$$GT$17he0a9c9821aa6b78cE', symObjAddr: 0x64F0, symBinAddr: 0x97C80, symSize: 0x30 }
  - { offsetInCU: 0x182C1, offset: 0x33A8B9, size: 0x8, addend: 0x0, symName: '__ZN4core3ptr66drop_in_place$LT$core..option..Option$LT$syn..ty..Variadic$GT$$GT$17h744a26e2f12ebebcE', symObjAddr: 0x6520, symBinAddr: 0x97CB0, symSize: 0xF0 }
  - { offsetInCU: 0x185EB, offset: 0x33ABE3, size: 0x8, addend: 0x0, symName: '__ZN4core3ptr67drop_in_place$LT$alloc..boxed..Box$LT$syn..expr..FieldValue$GT$$GT$17h8035762dfa39d688E', symObjAddr: 0x6610, symBinAddr: 0x97DA0, symSize: 0x160 }
  - { offsetInCU: 0x18B80, offset: 0x33B178, size: 0x8, addend: 0x0, symName: '__ZN4core3ptr68drop_in_place$LT$alloc..boxed..Box$LT$syn..path..PathSegment$GT$$GT$17h2361de69c8671822E', symObjAddr: 0x6770, symBinAddr: 0x97F00, symSize: 0x190 }
  - { offsetInCU: 0x192A9, offset: 0x33B8A1, size: 0x8, addend: 0x0, symName: '__ZN4core3ptr72drop_in_place$LT$alloc..boxed..Box$LT$syn..path..GenericArgument$GT$$GT$17h5bbf5380dd6fa22fE', symObjAddr: 0x6900, symBinAddr: 0x98090, symSize: 0x1D0 }
  - { offsetInCU: 0x199D0, offset: 0x33BFC8, size: 0x8, addend: 0x0, symName: '__ZN4core3ptr72drop_in_place$LT$core..option..Option$LT$syn..lifetime..Lifetime$GT$$GT$17h73fca8e7f0aa197bE', symObjAddr: 0x6AD0, symBinAddr: 0x98260, symSize: 0x30 }
  - { offsetInCU: 0x19AEB, offset: 0x33C0E3, size: 0x8, addend: 0x0, symName: '__ZN4core3ptr75drop_in_place$LT$alloc..boxed..Box$LT$syn..generics..TypeParamBound$GT$$GT$17hea9af0ea491726e7E', symObjAddr: 0x6B00, symBinAddr: 0x98290, symSize: 0x140 }
  - { offsetInCU: 0x1A046, offset: 0x33C63E, size: 0x8, addend: 0x0, symName: '__ZN4core3ptr78drop_in_place$LT$alloc..boxed..Box$LT$syn..expr..GenericMethodArgument$GT$$GT$17hc898c291745edc1fE', symObjAddr: 0x6C40, symBinAddr: 0x983D0, symSize: 0x60 }
  - { offsetInCU: 0x1A238, offset: 0x33C830, size: 0x8, addend: 0x0, symName: '__ZN4core3ptr78drop_in_place$LT$core..option..Option$LT$syn..generics..BoundLifetimes$GT$$GT$17hd25f8abb18bc7fa5E', symObjAddr: 0x6CA0, symBinAddr: 0x98430, symSize: 0x90 }
  - { offsetInCU: 0x1A526, offset: 0x33CB1E, size: 0x8, addend: 0x0, symName: '__ZN4core3ptr86drop_in_place$LT$syn..punctuated..Punctuated$LT$syn..pat..Pat$C$syn..token..Or$GT$$GT$17h25bbf223ac4cf0beE', symObjAddr: 0x6D30, symBinAddr: 0x984C0, symSize: 0x120 }
  - { offsetInCU: 0x1A9A1, offset: 0x33CF99, size: 0x8, addend: 0x0, symName: '__ZN4core3ptr87drop_in_place$LT$core..option..Option$LT$alloc..boxed..Box$LT$syn..pat..Pat$GT$$GT$$GT$17hd9c075d7c1044d74E', symObjAddr: 0x6E50, symBinAddr: 0x985E0, symSize: 0x50 }
  - { offsetInCU: 0x1AB11, offset: 0x33D109, size: 0x8, addend: 0x0, symName: '__ZN4core3ptr87drop_in_place$LT$core..option..Option$LT$alloc..boxed..Box$LT$syn..ty..Type$GT$$GT$$GT$17h3b78a0016fdd0e69E', symObjAddr: 0x6EA0, symBinAddr: 0x98630, symSize: 0x50 }
  - { offsetInCU: 0x1AC81, offset: 0x33D279, size: 0x8, addend: 0x0, symName: '__ZN4core3ptr89drop_in_place$LT$core..option..Option$LT$alloc..boxed..Box$LT$syn..expr..Expr$GT$$GT$$GT$17h1af7f5bb8779605fE', symObjAddr: 0x6EF0, symBinAddr: 0x98680, symSize: 0x50 }
  - { offsetInCU: 0x1AE2F, offset: 0x33D427, size: 0x8, addend: 0x0, symName: '__ZN4core3ptr89drop_in_place$LT$syn..punctuated..Punctuated$LT$syn..pat..Pat$C$syn..token..Comma$GT$$GT$17h7a2618c7011ca178E', symObjAddr: 0x6F40, symBinAddr: 0x986D0, symSize: 0x120 }
  - { offsetInCU: 0x1B2C1, offset: 0x33D8B9, size: 0x8, addend: 0x0, symName: '__ZN4core3ptr89drop_in_place$LT$syn..punctuated..Punctuated$LT$syn..ty..Type$C$syn..token..Comma$GT$$GT$17h335eea701942d1deE', symObjAddr: 0x7060, symBinAddr: 0x987F0, symSize: 0x120 }
  - { offsetInCU: 0x1B77A, offset: 0x33DD72, size: 0x8, addend: 0x0, symName: '__ZN4core3ptr91drop_in_place$LT$syn..punctuated..Punctuated$LT$syn..expr..Expr$C$syn..token..Comma$GT$$GT$17h9d04cb4adde0cb50E', symObjAddr: 0x7180, symBinAddr: 0x98910, symSize: 0x120 }
  - { offsetInCU: 0x1BC08, offset: 0x33E200, size: 0x8, addend: 0x0, symName: '__ZN4core3ptr94drop_in_place$LT$syn..punctuated..Punctuated$LT$syn..pat..FieldPat$C$syn..token..Comma$GT$$GT$17h229ff5b8c83a7723E', symObjAddr: 0x72A0, symBinAddr: 0x98A30, symSize: 0xF0 }
  - { offsetInCU: 0x1BF07, offset: 0x33E4FF, size: 0x8, addend: 0x0, symName: '__ZN4core3ptr94drop_in_place$LT$syn..punctuated..Punctuated$LT$syn..ty..BareFnArg$C$syn..token..Comma$GT$$GT$17h6a6db218992bdbcbE', symObjAddr: 0x7390, symBinAddr: 0x98B20, symSize: 0x90 }
  - { offsetInCU: 0x1C177, offset: 0x33E76F, size: 0x8, addend: 0x0, symName: '__ZN4core3ptr96drop_in_place$LT$core..option..Option$LT$alloc..boxed..Box$LT$syn..path..PathSegment$GT$$GT$$GT$17h29595e83487773ecE', symObjAddr: 0x7420, symBinAddr: 0x98BB0, symSize: 0x180 }
  - { offsetInCU: 0x1C834, offset: 0x33EE2C, size: 0x8, addend: 0x0, symName: '__ZN4core3ptr97drop_in_place$LT$syn..punctuated..Punctuated$LT$syn..expr..FieldValue$C$syn..token..Comma$GT$$GT$17h3dc1e5362c172304E', symObjAddr: 0x75A0, symBinAddr: 0x98D30, symSize: 0x90 }
  - { offsetInCU: 0x1CB20, offset: 0x33F118, size: 0x8, addend: 0x0, symName: '__ZN4core3ptr97drop_in_place$LT$syn..punctuated..Punctuated$LT$syn..lifetime..Lifetime$C$syn..token..Add$GT$$GT$17h823dd42c5f78d66dE', symObjAddr: 0x7630, symBinAddr: 0x98DC0, symSize: 0xD0 }
  - { offsetInCU: 0x1CF94, offset: 0x33F58C, size: 0x8, addend: 0x0, symName: '__ZN4core3ptr99drop_in_place$LT$syn..punctuated..Punctuated$LT$syn..path..PathSegment$C$syn..token..Colon2$GT$$GT$17h74bf623facf56480E', symObjAddr: 0x7700, symBinAddr: 0x98E90, symSize: 0x24A }
  - { offsetInCU: 0x24A68, offset: 0x347060, size: 0x8, addend: 0x0, symName: '__ZN40_$LT$F$u20$as$u20$syn..parse..Parser$GT$6parse217h722017dd4d85b8baE', symObjAddr: 0x0, symBinAddr: 0x91790, symSize: 0x380 }
  - { offsetInCU: 0x1E, offset: 0x34CA6D, size: 0x8, addend: 0x0, symName: '__ZN4core3ptr73drop_in_place$LT$core..cell..UnsafeCell$LT$syn..parse..Unexpected$GT$$GT$17hc7576ed38125d87dE.llvm.18353018401861172139', symObjAddr: 0x0, symBinAddr: 0x990E0, symSize: 0x50 }
  - { offsetInCU: 0xB7D, offset: 0x34D5CC, size: 0x8, addend: 0x0, symName: '__ZN4core3ptr73drop_in_place$LT$core..cell..UnsafeCell$LT$syn..parse..Unexpected$GT$$GT$17hc7576ed38125d87dE.llvm.18353018401861172139', symObjAddr: 0x0, symBinAddr: 0x990E0, symSize: 0x50 }
  - { offsetInCU: 0x171C, offset: 0x34E16B, size: 0x8, addend: 0x0, symName: '__ZN68_$LT$alloc..rc..Rc$LT$T$C$A$GT$$u20$as$u20$core..ops..drop..Drop$GT$4drop17h0d7d999336b19e4aE', symObjAddr: 0x100, symBinAddr: 0x99130, symSize: 0x40 }
  - { offsetInCU: 0x1990, offset: 0x34E3DF, size: 0x8, addend: 0x0, symName: '__ZN68_$LT$alloc..rc..Rc$LT$T$C$A$GT$$u20$as$u20$core..ops..drop..Drop$GT$4drop17h380518041ef7c2aaE', symObjAddr: 0x140, symBinAddr: 0x99170, symSize: 0xE0 }
  - { offsetInCU: 0x2149, offset: 0x34EB98, size: 0x8, addend: 0x0, symName: '__ZN80_$LT$alloc..rc..UniqueRcUninit$LT$T$C$A$GT$$u20$as$u20$core..ops..drop..Drop$GT$4drop17hef7bf699a23fe627E', symObjAddr: 0x220, symBinAddr: 0x99250, symSize: 0x4F }
  - { offsetInCU: 0x1E, offset: 0x34F607, size: 0x8, addend: 0x0, symName: __ZN4core3fmt5Write9write_fmt17h3a8f616653243085E, symObjAddr: 0x0, symBinAddr: 0x992A0, symSize: 0x20 }
  - { offsetInCU: 0x98, offset: 0x34F681, size: 0x8, addend: 0x0, symName: '__ZN58_$LT$alloc..string..String$u20$as$u20$core..fmt..Write$GT$10write_char17h04bc467bd68a934bE', symObjAddr: 0x40, symBinAddr: 0x992E0, symSize: 0x140 }
  - { offsetInCU: 0x49D, offset: 0x34FA86, size: 0x8, addend: 0x0, symName: '__ZN58_$LT$alloc..string..String$u20$as$u20$core..fmt..Write$GT$9write_str17h46a93205c3443fbaE', symObjAddr: 0x180, symBinAddr: 0x99420, symSize: 0x5B }
  - { offsetInCU: 0xAC1, offset: 0x3500AA, size: 0x8, addend: 0x0, symName: '__ZN4core3ptr42drop_in_place$LT$alloc..string..String$GT$17hab151c49a933d6ddE', symObjAddr: 0x20, symBinAddr: 0x992C0, symSize: 0x20 }
  - { offsetInCU: 0xE54, offset: 0x35043D, size: 0x8, addend: 0x0, symName: __ZN4core3fmt5Write9write_fmt17h3a8f616653243085E, symObjAddr: 0x0, symBinAddr: 0x992A0, symSize: 0x20 }
  - { offsetInCU: 0x1E, offset: 0x350EF1, size: 0x8, addend: 0x0, symName: __ZN3syn5error5Error3new17h9080e449dc8ecf23E, symObjAddr: 0x0, symBinAddr: 0x99480, symSize: 0xF0 }
  - { offsetInCU: 0x35, offset: 0x350F08, size: 0x8, addend: 0x0, symName: _anon.3fe5d6e96743888639bedb2fe550a5d5.0.llvm.8338640272942429107, symObjAddr: 0x300, symBinAddr: 0x2DCB80, symSize: 0x0 }
  - { offsetInCU: 0x154, offset: 0x351027, size: 0x8, addend: 0x0, symName: '__ZN58_$LT$alloc..string..String$u20$as$u20$core..fmt..Write$GT$10write_char17h04bc467bd68a934bE.llvm.8338640272942429107', symObjAddr: 0x130, symBinAddr: 0x995B0, symSize: 0x140 }
  - { offsetInCU: 0x559, offset: 0x35142C, size: 0x8, addend: 0x0, symName: '__ZN58_$LT$alloc..string..String$u20$as$u20$core..fmt..Write$GT$9write_str17h46a93205c3443fbaE.llvm.8338640272942429107', symObjAddr: 0x270, symBinAddr: 0x996F0, symSize: 0x5B }
  - { offsetInCU: 0xCD1, offset: 0x351BA4, size: 0x8, addend: 0x0, symName: '__ZN4core3ptr42drop_in_place$LT$alloc..string..String$GT$17hab151c49a933d6ddE.llvm.8338640272942429107', symObjAddr: 0xF0, symBinAddr: 0x99570, symSize: 0x20 }
  - { offsetInCU: 0xF61, offset: 0x351E34, size: 0x8, addend: 0x0, symName: '__ZN53_$LT$core..fmt..Error$u20$as$u20$core..fmt..Debug$GT$3fmt17h03dc662ab152f3aeE.llvm.8338640272942429107', symObjAddr: 0x110, symBinAddr: 0x99590, symSize: 0x20 }
  - { offsetInCU: 0x12F4, offset: 0x3521C7, size: 0x8, addend: 0x0, symName: _anon.3fe5d6e96743888639bedb2fe550a5d5.4.llvm.8338640272942429107, symObjAddr: 0x348, symBinAddr: 0x2DCBC8, symSize: 0x0 }
  - { offsetInCU: 0x164B, offset: 0x35251E, size: 0x8, addend: 0x0, symName: __ZN3syn5error5Error3new17h9080e449dc8ecf23E, symObjAddr: 0x0, symBinAddr: 0x99480, symSize: 0xF0 }
  - { offsetInCU: 0x1E, offset: 0x352D74, size: 0x8, addend: 0x0, symName: '__ZN120_$LT$proc_macro2..fallback..TokenStream$u20$as$u20$core..iter..traits..collect..Extend$LT$proc_macro2..TokenTree$GT$$GT$6extend17h5678f3e86ad3e652E', symObjAddr: 0x0, symBinAddr: 0x99750, symSize: 0x280 }
  - { offsetInCU: 0x9AC, offset: 0x353702, size: 0x8, addend: 0x0, symName: '__ZN120_$LT$proc_macro2..fallback..TokenStream$u20$as$u20$core..iter..traits..collect..Extend$LT$proc_macro2..TokenTree$GT$$GT$6extend17h5678f3e86ad3e652E', symObjAddr: 0x0, symBinAddr: 0x99750, symSize: 0x280 }
  - { offsetInCU: 0x1B81, offset: 0x3548D7, size: 0x8, addend: 0x0, symName: '__ZN4core3ptr45drop_in_place$LT$proc_macro2..TokenStream$GT$17h2af7239932044e06E', symObjAddr: 0x280, symBinAddr: 0x999D0, symSize: 0x140 }
  - { offsetInCU: 0x1FDD, offset: 0x354D33, size: 0x8, addend: 0x0, symName: '__ZN4core3ptr56drop_in_place$LT$proc_macro2..token_stream..IntoIter$GT$17hf43577dcf2b0a5a1E', symObjAddr: 0x3C0, symBinAddr: 0x99B10, symSize: 0x20 }
  - { offsetInCU: 0x208D, offset: 0x354DE3, size: 0x8, addend: 0x0, symName: '__ZN4core3ptr65drop_in_place$LT$alloc..vec..Vec$LT$proc_macro..TokenTree$GT$$GT$17hbe7f16cffb276184E', symObjAddr: 0x3E0, symBinAddr: 0x99B30, symSize: 0x107 }
  - { offsetInCU: 0x1E, offset: 0x356ABF, size: 0x8, addend: 0x0, symName: '__ZN4core3ptr43drop_in_place$LT$proc_macro2..TokenTree$GT$17h1646361d9751110eE.llvm.8091862848683127787', symObjAddr: 0x0, symBinAddr: 0x99C40, symSize: 0xB0 }
  - { offsetInCU: 0xF36, offset: 0x3579D7, size: 0x8, addend: 0x0, symName: '__ZN4core3ptr43drop_in_place$LT$proc_macro2..TokenTree$GT$17h1646361d9751110eE.llvm.8091862848683127787', symObjAddr: 0x0, symBinAddr: 0x99C40, symSize: 0xB0 }
  - { offsetInCU: 0x1BF6, offset: 0x358697, size: 0x8, addend: 0x0, symName: '__ZN86_$LT$alloc..vec..into_iter..IntoIter$LT$T$C$A$GT$$u20$as$u20$core..ops..drop..Drop$GT$4drop17h323722298afc916dE', symObjAddr: 0xB0, symBinAddr: 0x99CF0, symSize: 0xD0 }
  - { offsetInCU: 0x1F60, offset: 0x358A01, size: 0x8, addend: 0x0, symName: '__ZN86_$LT$alloc..vec..into_iter..IntoIter$LT$T$C$A$GT$$u20$as$u20$core..ops..drop..Drop$GT$4drop17h66f78b742d8b07d4E', symObjAddr: 0x180, symBinAddr: 0x99DC0, symSize: 0x105 }
  - { offsetInCU: 0x1E, offset: 0x3596F5, size: 0x8, addend: 0x0, symName: __ZN3std9panicking11begin_panic17h81d0ecfdc05cfb5eE, symObjAddr: 0x0, symBinAddr: 0x25B4B0, symSize: 0x20 }
  - { offsetInCU: 0x7A7, offset: 0x359E7E, size: 0x8, addend: 0x0, symName: __ZN3std9panicking11begin_panic17h81d0ecfdc05cfb5eE, symObjAddr: 0x0, symBinAddr: 0x25B4B0, symSize: 0x20 }
  - { offsetInCU: 0x803, offset: 0x359EDA, size: 0x8, addend: 0x0, symName: '__ZN84_$LT$std..panicking..begin_panic..Payload$LT$A$GT$$u20$as$u20$core..fmt..Display$GT$3fmt17ha04d046b2ca01a5dE', symObjAddr: 0x20, symBinAddr: 0x99ED0, symSize: 0x40 }
  - { offsetInCU: 0x870, offset: 0x359F47, size: 0x8, addend: 0x0, symName: '__ZN91_$LT$std..panicking..begin_panic..Payload$LT$A$GT$$u20$as$u20$core..panic..PanicPayload$GT$3get17h14d5739cedb9571fE', symObjAddr: 0x60, symBinAddr: 0x99F10, symSize: 0x20 }
  - { offsetInCU: 0x8A8, offset: 0x359F7F, size: 0x8, addend: 0x0, symName: '__ZN91_$LT$std..panicking..begin_panic..Payload$LT$A$GT$$u20$as$u20$core..panic..PanicPayload$GT$8take_box17h0bdaa6123414ebb8E', symObjAddr: 0x80, symBinAddr: 0x99F30, symSize: 0x5F }
  - { offsetInCU: 0x1E, offset: 0x35A4D0, size: 0x8, addend: 0x0, symName: '__ZN115_$LT$proc_macro2..imp..TokenStream$u20$as$u20$core..iter..traits..collect..Extend$LT$proc_macro2..TokenTree$GT$$GT$6extend17h66f8f0c83eb553eeE', symObjAddr: 0x0, symBinAddr: 0x99F90, symSize: 0x110 }
  - { offsetInCU: 0x78B, offset: 0x35AC3D, size: 0x8, addend: 0x0, symName: '__ZN115_$LT$proc_macro2..imp..TokenStream$u20$as$u20$core..iter..traits..collect..Extend$LT$proc_macro2..TokenTree$GT$$GT$6extend17h66f8f0c83eb553eeE', symObjAddr: 0x0, symBinAddr: 0x99F90, symSize: 0x110 }
  - { offsetInCU: 0x15DF, offset: 0x35BA91, size: 0x8, addend: 0x0, symName: '__ZN4core3ptr56drop_in_place$LT$proc_macro2..token_stream..IntoIter$GT$17hf43577dcf2b0a5a1E.llvm.11853414016030899899', symObjAddr: 0x110, symBinAddr: 0x9A0A0, symSize: 0x1C }
  - { offsetInCU: 0x1E, offset: 0x35BDE6, size: 0x8, addend: 0x0, symName: __ZN21borsh_derive_internal8union_de8union_de17h7034132dd4764a4dE, symObjAddr: 0x0, symBinAddr: 0x9A0C0, symSize: 0x4D }
  - { offsetInCU: 0x4317, offset: 0x3600DF, size: 0x8, addend: 0x0, symName: __ZN21borsh_derive_internal8union_de8union_de17h7034132dd4764a4dE, symObjAddr: 0x0, symBinAddr: 0x9A0C0, symSize: 0x4D }
  - { offsetInCU: 0x1E, offset: 0x36553E, size: 0x8, addend: 0x0, symName: __ZN21borsh_derive_internal9union_ser9union_ser17h3f7f180b6a6438dcE, symObjAddr: 0x0, symBinAddr: 0x9A110, symSize: 0x4D }
  - { offsetInCU: 0x4317, offset: 0x369837, size: 0x8, addend: 0x0, symName: __ZN21borsh_derive_internal9union_ser9union_ser17h3f7f180b6a6438dcE, symObjAddr: 0x0, symBinAddr: 0x9A110, symSize: 0x4D }
  - { offsetInCU: 0x1E, offset: 0x36EC96, size: 0x8, addend: 0x0, symName: '__ZN4core3ptr45drop_in_place$LT$proc_macro2..TokenStream$GT$17h2af7239932044e06E.llvm.16430511933026113303', symObjAddr: 0x0, symBinAddr: 0x9A160, symSize: 0x140 }
  - { offsetInCU: 0xB2C, offset: 0x36F7A4, size: 0x8, addend: 0x0, symName: '__ZN4core3ptr45drop_in_place$LT$proc_macro2..TokenStream$GT$17h2af7239932044e06E.llvm.16430511933026113303', symObjAddr: 0x0, symBinAddr: 0x9A160, symSize: 0x140 }
  - { offsetInCU: 0xF88, offset: 0x36FC00, size: 0x8, addend: 0x0, symName: '__ZN4core3ptr65drop_in_place$LT$alloc..vec..Vec$LT$proc_macro..TokenTree$GT$$GT$17hbe7f16cffb276184E.llvm.16430511933026113303', symObjAddr: 0x140, symBinAddr: 0x9A2A0, symSize: 0x110 }
  - { offsetInCU: 0x1E, offset: 0x37098F, size: 0x8, addend: 0x0, symName: '__ZN4core3ptr45drop_in_place$LT$proc_macro2..TokenStream$GT$17h2af7239932044e06E.llvm.3677383679373619133', symObjAddr: 0x0, symBinAddr: 0x9A3B0, symSize: 0x140 }
  - { offsetInCU: 0xB2C, offset: 0x37149D, size: 0x8, addend: 0x0, symName: '__ZN4core3ptr45drop_in_place$LT$proc_macro2..TokenStream$GT$17h2af7239932044e06E.llvm.3677383679373619133', symObjAddr: 0x0, symBinAddr: 0x9A3B0, symSize: 0x140 }
  - { offsetInCU: 0xF88, offset: 0x3718F9, size: 0x8, addend: 0x0, symName: '__ZN4core3ptr65drop_in_place$LT$alloc..vec..Vec$LT$proc_macro..TokenTree$GT$$GT$17hbe7f16cffb276184E.llvm.3677383679373619133', symObjAddr: 0x140, symBinAddr: 0x9A4F0, symSize: 0x110 }
  - { offsetInCU: 0x1E, offset: 0x372688, size: 0x8, addend: 0x0, symName: '__ZN42_$LT$$RF$T$u20$as$u20$core..fmt..Debug$GT$3fmt17hd63028164c9bff38E', symObjAddr: 0x0, symBinAddr: 0x9A600, symSize: 0x20 }
  - { offsetInCU: 0xED, offset: 0x372757, size: 0x8, addend: 0x0, symName: '__ZN42_$LT$$RF$T$u20$as$u20$core..fmt..Debug$GT$3fmt17hd63028164c9bff38E', symObjAddr: 0x0, symBinAddr: 0x9A600, symSize: 0x20 }
  - { offsetInCU: 0x1E, offset: 0x37296D, size: 0x8, addend: 0x0, symName: __ZN3std3sys9backtrace26__rust_end_short_backtrace17haea4bd330b086a6bE, symObjAddr: 0x0, symBinAddr: 0x9A620, symSize: 0x10 }
  - { offsetInCU: 0x66, offset: 0x3729B5, size: 0x8, addend: 0x0, symName: '__ZN3std9panicking11begin_panic28_$u7b$$u7b$closure$u7d$$u7d$17h4953ee1d69569430E', symObjAddr: 0x10, symBinAddr: 0x9A630, symSize: 0x40 }
  - { offsetInCU: 0xD7, offset: 0x372A26, size: 0x8, addend: 0x0, symName: __ZN3std3sys9backtrace26__rust_end_short_backtrace17haea4bd330b086a6bE, symObjAddr: 0x0, symBinAddr: 0x9A620, symSize: 0x10 }
  - { offsetInCU: 0x1BA, offset: 0x372B09, size: 0x8, addend: 0x0, symName: __ZN4core5panic12PanicPayload6as_str17hba2d3de86451c43dE, symObjAddr: 0x50, symBinAddr: 0x9A670, symSize: 0x8 }
  - { offsetInCU: 0x1E, offset: 0x372BBE, size: 0x8, addend: 0x0, symName: '__ZN36_$LT$T$u20$as$u20$core..any..Any$GT$7type_id17h51d8040962c23177E', symObjAddr: 0x0, symBinAddr: 0x9A680, symSize: 0x1A }
  - { offsetInCU: 0x3A, offset: 0x372BDA, size: 0x8, addend: 0x0, symName: '__ZN36_$LT$T$u20$as$u20$core..any..Any$GT$7type_id17h51d8040962c23177E', symObjAddr: 0x0, symBinAddr: 0x9A680, symSize: 0x1A }
  - { offsetInCU: 0xB1, offset: 0x372D3E, size: 0x8, addend: 0x0, symName: '__ZN58_$LT$alloc..string..String$u20$as$u20$core..fmt..Write$GT$10write_char17h04bc467bd68a934bE', symObjAddr: 0xC7F0, symBinAddr: 0xA68C0, symSize: 0x140 }
  - { offsetInCU: 0x4B6, offset: 0x373143, size: 0x8, addend: 0x0, symName: '__ZN58_$LT$alloc..string..String$u20$as$u20$core..fmt..Write$GT$9write_str17h46a93205c3443fbaE', symObjAddr: 0xC930, symBinAddr: 0xA6A00, symSize: 0x60 }
  - { offsetInCU: 0x500F, offset: 0x377C9C, size: 0x8, addend: 0x0, symName: '__ZN4core3ptr100drop_in_place$LT$$LP$syn..data..Visibility$C$core..option..Option$LT$syn..token..Default$GT$$RP$$GT$17hf4681ce2d035d32cE', symObjAddr: 0x5B0, symBinAddr: 0x9A9D0, symSize: 0x60 }
  - { offsetInCU: 0x51AD, offset: 0x377E3A, size: 0x8, addend: 0x0, symName: '__ZN4core3ptr100drop_in_place$LT$core..option..Option$LT$alloc..boxed..Box$LT$syn..generics..LifetimeDef$GT$$GT$$GT$17h75a6086997697dd7E', symObjAddr: 0x610, symBinAddr: 0x9AA30, symSize: 0x50 }
  - { offsetInCU: 0x532F, offset: 0x377FBC, size: 0x8, addend: 0x0, symName: '__ZN4core3ptr100drop_in_place$LT$core..option..Option$LT$alloc..boxed..Box$LT$syn..path..GenericArgument$GT$$GT$$GT$17h3d29ec00a8f1918dE', symObjAddr: 0x660, symBinAddr: 0x9AA80, symSize: 0x50 }
  - { offsetInCU: 0x5597, offset: 0x378224, size: 0x8, addend: 0x0, symName: '__ZN4core3ptr101drop_in_place$LT$core..option..Option$LT$alloc..boxed..Box$LT$syn..generics..GenericParam$GT$$GT$$GT$17h1fee4f1c7bd902c4E', symObjAddr: 0x6B0, symBinAddr: 0x9AAD0, symSize: 0x310 }
  - { offsetInCU: 0x5F94, offset: 0x378C21, size: 0x8, addend: 0x0, symName: '__ZN4core3ptr103drop_in_place$LT$core..option..Option$LT$alloc..boxed..Box$LT$syn..generics..TypeParamBound$GT$$GT$$GT$17h6cee73bc2b2ecea8E', symObjAddr: 0x9C0, symBinAddr: 0x9ADE0, symSize: 0x90 }
  - { offsetInCU: 0x62CB, offset: 0x378F58, size: 0x8, addend: 0x0, symName: '__ZN4core3ptr103drop_in_place$LT$core..option..Option$LT$alloc..boxed..Box$LT$syn..generics..WherePredicate$GT$$GT$$GT$17headad361972eced7E', symObjAddr: 0xA50, symBinAddr: 0x9AE70, symSize: 0x120 }
  - { offsetInCU: 0x65E5, offset: 0x379272, size: 0x8, addend: 0x0, symName: '__ZN4core3ptr103drop_in_place$LT$syn..punctuated..Punctuated$LT$syn..generics..GenericParam$C$syn..token..Comma$GT$$GT$17hae00367f0c570156E', symObjAddr: 0xB70, symBinAddr: 0x9AF90, symSize: 0x70 }
  - { offsetInCU: 0x6900, offset: 0x37958D, size: 0x8, addend: 0x0, symName: '__ZN4core3ptr103drop_in_place$LT$syn..punctuated..Punctuated$LT$syn..generics..TypeParamBound$C$syn..token..Add$GT$$GT$17he811d520c92af08aE', symObjAddr: 0xBE0, symBinAddr: 0x9B000, symSize: 0x1C0 }
  - { offsetInCU: 0x7151, offset: 0x379DDE, size: 0x8, addend: 0x0, symName: '__ZN4core3ptr108drop_in_place$LT$syn..punctuated..Punctuated$LT$syn..expr..GenericMethodArgument$C$syn..token..Comma$GT$$GT$17h92cbabe4862b2183E', symObjAddr: 0xDA0, symBinAddr: 0x9B1C0, symSize: 0x150 }
  - { offsetInCU: 0x764D, offset: 0x37A2DA, size: 0x8, addend: 0x0, symName: '__ZN4core3ptr115drop_in_place$LT$core..option..Option$LT$$LP$syn..token..Brace$C$alloc..vec..Vec$LT$syn..item..Item$GT$$RP$$GT$$GT$17hab9d60ee568bdf60E', symObjAddr: 0xEF0, symBinAddr: 0x9B310, symSize: 0xD0 }
  - { offsetInCU: 0x7964, offset: 0x37A5F1, size: 0x8, addend: 0x0, symName: '__ZN4core3ptr126drop_in_place$LT$core..option..Option$LT$$LP$syn..token..And$C$core..option..Option$LT$syn..lifetime..Lifetime$GT$$RP$$GT$$GT$17h5979d670cb45416cE', symObjAddr: 0xFC0, symBinAddr: 0x9B3E0, symSize: 0x30 }
  - { offsetInCU: 0x7C12, offset: 0x37A89F, size: 0x8, addend: 0x0, symName: '__ZN4core3ptr34drop_in_place$LT$syn..lit..Lit$GT$17hbe1efe749a08dd9aE', symObjAddr: 0x1070, symBinAddr: 0x9B410, symSize: 0x110 }
  - { offsetInCU: 0x8065, offset: 0x37ACF2, size: 0x8, addend: 0x0, symName: '__ZN4core3ptr34drop_in_place$LT$syn..pat..Pat$GT$17h3201f642e43ac2a2E', symObjAddr: 0x1180, symBinAddr: 0x9B520, symSize: 0xFA0 }
  - { offsetInCU: 0xB61A, offset: 0x37E2A7, size: 0x8, addend: 0x0, symName: '__ZN4core3ptr34drop_in_place$LT$syn..ty..Type$GT$17hfb5d159a08190130E', symObjAddr: 0x2120, symBinAddr: 0x9C4C0, symSize: 0x4B0 }
  - { offsetInCU: 0xCC52, offset: 0x37F8DF, size: 0x8, addend: 0x0, symName: '__ZN4core3ptr36drop_in_place$LT$syn..expr..Expr$GT$17hf1921d1b09462bc3E', symObjAddr: 0x25D0, symBinAddr: 0x9C970, symSize: 0x3110 }
  - { offsetInCU: 0x16EDA, offset: 0x389B67, size: 0x8, addend: 0x0, symName: '__ZN4core3ptr36drop_in_place$LT$syn..item..Item$GT$17hf1fe4e69bb0a9b43E', symObjAddr: 0x56E0, symBinAddr: 0x9FA80, symSize: 0x120 }
  - { offsetInCU: 0x16F29, offset: 0x389BB6, size: 0x8, addend: 0x0, symName: '__ZN4core3ptr36drop_in_place$LT$syn..mac..Macro$GT$17h205613d7ad575f72E', symObjAddr: 0x5800, symBinAddr: 0x9FBA0, symSize: 0x100 }
  - { offsetInCU: 0x17351, offset: 0x389FDE, size: 0x8, addend: 0x0, symName: '__ZN4core3ptr36drop_in_place$LT$syn..path..Path$GT$17he6d0bec66d66b98aE', symObjAddr: 0x5900, symBinAddr: 0x9FCA0, symSize: 0x230 }
  - { offsetInCU: 0x17CE7, offset: 0x38A974, size: 0x8, addend: 0x0, symName: '__ZN4core3ptr37drop_in_place$LT$syn..stmt..Block$GT$17h3aa429e75a234230E', symObjAddr: 0x5B30, symBinAddr: 0x9FED0, symSize: 0xD0 }
  - { offsetInCU: 0x18059, offset: 0x38ACE6, size: 0x8, addend: 0x0, symName: '__ZN4core3ptr38drop_in_place$LT$syn..data..Fields$GT$17h0c48fa2402a42137E', symObjAddr: 0x5C00, symBinAddr: 0x9FFA0, symSize: 0x180 }
  - { offsetInCU: 0x1849F, offset: 0x38B12C, size: 0x8, addend: 0x0, symName: '__ZN4core3ptr38drop_in_place$LT$syn..expr..Member$GT$17ha113d37a67d27aafE', symObjAddr: 0x5D80, symBinAddr: 0xA0120, symSize: 0x30 }
  - { offsetInCU: 0x185BA, offset: 0x38B247, size: 0x8, addend: 0x0, symName: '__ZN4core3ptr38drop_in_place$LT$syn..item..ItemFn$GT$17h92bc8390e1d02672E', symObjAddr: 0x5DB0, symBinAddr: 0xA0150, symSize: 0x230 }
  - { offsetInCU: 0x18E5A, offset: 0x38BAE7, size: 0x8, addend: 0x0, symName: '__ZN4core3ptr38drop_in_place$LT$syn..pat..PatType$GT$17h833e3c7992399b01E.llvm.2762174853176263616', symObjAddr: 0x5FE0, symBinAddr: 0xA0380, symSize: 0x160 }
  - { offsetInCU: 0x19522, offset: 0x38C1AF, size: 0x8, addend: 0x0, symName: '__ZN4core3ptr39drop_in_place$LT$proc_macro2..Group$GT$17ha95b199d42755248E', symObjAddr: 0x6140, symBinAddr: 0xA04E0, symSize: 0x60 }
  - { offsetInCU: 0x19681, offset: 0x38C30E, size: 0x8, addend: 0x0, symName: '__ZN4core3ptr39drop_in_place$LT$proc_macro2..Ident$GT$17hdeec010483268a0dE', symObjAddr: 0x61A0, symBinAddr: 0xA0540, symSize: 0x30 }
  - { offsetInCU: 0x1977D, offset: 0x38C40A, size: 0x8, addend: 0x0, symName: '__ZN4core3ptr39drop_in_place$LT$syn..item..ItemMod$GT$17hd095082f1c98971dE', symObjAddr: 0x61D0, symBinAddr: 0xA0570, symSize: 0x210 }
  - { offsetInCU: 0x19FB6, offset: 0x38CC43, size: 0x8, addend: 0x0, symName: '__ZN4core3ptr39drop_in_place$LT$syn..item..ItemUse$GT$17hfee3fd59e1327e89E', symObjAddr: 0x63E0, symBinAddr: 0xA0780, symSize: 0x150 }
  - { offsetInCU: 0x1A4B7, offset: 0x38D144, size: 0x8, addend: 0x0, symName: '__ZN4core3ptr39drop_in_place$LT$syn..item..UseTree$GT$17h78d4ed19b48b8cbfE', symObjAddr: 0x65A0, symBinAddr: 0xA08D0, symSize: 0xE0 }
  - { offsetInCU: 0x1A85E, offset: 0x38D4EB, size: 0x8, addend: 0x0, symName: '__ZN4core3ptr39drop_in_place$LT$syn..pat..PatTuple$GT$17h96faeea9832d4c4bE', symObjAddr: 0x6680, symBinAddr: 0xA09B0, symSize: 0x100 }
  - { offsetInCU: 0x1AB86, offset: 0x38D813, size: 0x8, addend: 0x0, symName: '__ZN4core3ptr40drop_in_place$LT$syn..item..ImplItem$GT$17hb8d8f44c0f04c0e3E', symObjAddr: 0x6780, symBinAddr: 0xA0AB0, symSize: 0x1B0 }
  - { offsetInCU: 0x1AF03, offset: 0x38DB90, size: 0x8, addend: 0x0, symName: '__ZN4core3ptr40drop_in_place$LT$syn..item..ItemEnum$GT$17hc99b161df783a633E', symObjAddr: 0x6930, symBinAddr: 0xA0C60, symSize: 0x250 }
  - { offsetInCU: 0x1B7D2, offset: 0x38E45F, size: 0x8, addend: 0x0, symName: '__ZN4core3ptr40drop_in_place$LT$syn..item..ItemImpl$GT$17haba540031ec64537E', symObjAddr: 0x6B80, symBinAddr: 0xA0EB0, symSize: 0x1E0 }
  - { offsetInCU: 0x1BF62, offset: 0x38EBEF, size: 0x8, addend: 0x0, symName: '__ZN4core3ptr40drop_in_place$LT$syn..item..ItemType$GT$17hf26044957f69ac44E', symObjAddr: 0x6D60, symBinAddr: 0xA1090, symSize: 0x1C0 }
  - { offsetInCU: 0x1C63A, offset: 0x38F2C7, size: 0x8, addend: 0x0, symName: '__ZN4core3ptr40drop_in_place$LT$syn..item..Receiver$GT$17hc8a432a931462f79E.llvm.2762174853176263616', symObjAddr: 0x6F20, symBinAddr: 0xA1250, symSize: 0x120 }
  - { offsetInCU: 0x1CAB1, offset: 0x38F73E, size: 0x8, addend: 0x0, symName: '__ZN4core3ptr40drop_in_place$LT$syn..ty..ReturnType$GT$17h6f97c9fdb958983eE', symObjAddr: 0x7050, symBinAddr: 0xA1370, symSize: 0x50 }
  - { offsetInCU: 0x1CC21, offset: 0x38F8AE, size: 0x8, addend: 0x0, symName: '__ZN4core3ptr41drop_in_place$LT$syn..item..ItemConst$GT$17hf37a2991989c7e8eE', symObjAddr: 0x70A0, symBinAddr: 0xA13C0, symSize: 0x1E0 }
  - { offsetInCU: 0x1D444, offset: 0x3900D1, size: 0x8, addend: 0x0, symName: '__ZN4core3ptr41drop_in_place$LT$syn..item..ItemMacro$GT$17h4cf9ca59f66b14edE', symObjAddr: 0x7280, symBinAddr: 0xA15A0, symSize: 0x120 }
  - { offsetInCU: 0x1D882, offset: 0x39050F, size: 0x8, addend: 0x0, symName: '__ZN4core3ptr41drop_in_place$LT$syn..item..ItemTrait$GT$17h2de0174f2f014913E', symObjAddr: 0x73A0, symBinAddr: 0xA16C0, symSize: 0x220 }
  - { offsetInCU: 0x1E0A7, offset: 0x390D34, size: 0x8, addend: 0x0, symName: '__ZN4core3ptr41drop_in_place$LT$syn..item..ItemUnion$GT$17h03d15eff3b9ef21aE', symObjAddr: 0x75C0, symBinAddr: 0xA18E0, symSize: 0x250 }
  - { offsetInCU: 0x1E930, offset: 0x3915BD, size: 0x8, addend: 0x0, symName: '__ZN4core3ptr41drop_in_place$LT$syn..item..Signature$GT$17hd57cfba25994ce69E', symObjAddr: 0x7810, symBinAddr: 0xA1B30, symSize: 0x210 }
  - { offsetInCU: 0x1F20A, offset: 0x391E97, size: 0x8, addend: 0x0, symName: '__ZN4core3ptr41drop_in_place$LT$syn..item..TraitItem$GT$17h4b7d90364e3eddf8E', symObjAddr: 0x7A20, symBinAddr: 0xA1D40, symSize: 0x1B0 }
  - { offsetInCU: 0x1F52A, offset: 0x3921B7, size: 0x8, addend: 0x0, symName: '__ZN4core3ptr42drop_in_place$LT$alloc..string..String$GT$17hef974c60cd9900dbE', symObjAddr: 0x7C20, symBinAddr: 0xA1EF0, symSize: 0x20 }
  - { offsetInCU: 0x1F632, offset: 0x3922BF, size: 0x8, addend: 0x0, symName: '__ZN4core3ptr42drop_in_place$LT$syn..data..Visibility$GT$17h27e8b6ad307fcbc7E', symObjAddr: 0x7C40, symBinAddr: 0xA1F10, symSize: 0x60 }
  - { offsetInCU: 0x1F7A7, offset: 0x392434, size: 0x8, addend: 0x0, symName: '__ZN4core3ptr42drop_in_place$LT$syn..item..ItemMacro2$GT$17h642967b8eb4a8104E', symObjAddr: 0x7CA0, symBinAddr: 0xA1F70, symSize: 0x170 }
  - { offsetInCU: 0x1FCF0, offset: 0x39297D, size: 0x8, addend: 0x0, symName: '__ZN4core3ptr42drop_in_place$LT$syn..item..ItemStatic$GT$17hc6b586b851814ed2E', symObjAddr: 0x7E10, symBinAddr: 0xA20E0, symSize: 0x1E0 }
  - { offsetInCU: 0x204F4, offset: 0x393181, size: 0x8, addend: 0x0, symName: '__ZN4core3ptr42drop_in_place$LT$syn..item..ItemStruct$GT$17h3f822312b443c40dE', symObjAddr: 0x7FF0, symBinAddr: 0xA22C0, symSize: 0x190 }
  - { offsetInCU: 0x20A64, offset: 0x3936F1, size: 0x8, addend: 0x0, symName: '__ZN4core3ptr43drop_in_place$LT$syn..data..FieldsNamed$GT$17h73293dd81bcfeab6E', symObjAddr: 0x8180, symBinAddr: 0xA2450, symSize: 0xE0 }
  - { offsetInCU: 0x20DA5, offset: 0x393A32, size: 0x8, addend: 0x0, symName: '__ZN4core3ptr43drop_in_place$LT$syn..item..ForeignItem$GT$17h21c815f2fbdfe296E', symObjAddr: 0x8260, symBinAddr: 0xA2530, symSize: 0x1A0 }
  - { offsetInCU: 0x210E4, offset: 0x393D71, size: 0x8, addend: 0x0, symName: '__ZN4core3ptr44drop_in_place$LT$syn..generics..Generics$GT$17he0d6eb6045503c84E', symObjAddr: 0x8400, symBinAddr: 0xA26D0, symSize: 0xA0 }
  - { offsetInCU: 0x21350, offset: 0x393FDD, size: 0x8, addend: 0x0, symName: '__ZN4core3ptr44drop_in_place$LT$syn..item..ImplItemType$GT$17hfa117ac59836f12aE', symObjAddr: 0x84A0, symBinAddr: 0xA2770, symSize: 0x190 }
  - { offsetInCU: 0x21899, offset: 0x394526, size: 0x8, addend: 0x0, symName: '__ZN4core3ptr44drop_in_place$LT$syn..lifetime..Lifetime$GT$17h3858225df033648aE', symObjAddr: 0x8630, symBinAddr: 0xA2900, symSize: 0x30 }
  - { offsetInCU: 0x21A11, offset: 0x39469E, size: 0x8, addend: 0x0, symName: '__ZN4core3ptr44drop_in_place$LT$syn..parse..ParseBuffer$GT$17h19c266fcccc430cbE', symObjAddr: 0x8660, symBinAddr: 0xA2930, symSize: 0x70 }
  - { offsetInCU: 0x21D8D, offset: 0x394A1A, size: 0x8, addend: 0x0, symName: '__ZN4core3ptr45drop_in_place$LT$proc_macro2..TokenStream$GT$17h2507cb30e765dc85E', symObjAddr: 0x86D0, symBinAddr: 0xA29A0, symSize: 0x140 }
  - { offsetInCU: 0x221E9, offset: 0x394E76, size: 0x8, addend: 0x0, symName: '__ZN4core3ptr45drop_in_place$LT$syn..item..ForeignItemFn$GT$17hac464df7ca671242E', symObjAddr: 0x8810, symBinAddr: 0xA2AE0, symSize: 0x160 }
  - { offsetInCU: 0x2267D, offset: 0x39530A, size: 0x8, addend: 0x0, symName: '__ZN4core3ptr45drop_in_place$LT$syn..item..ImplItemConst$GT$17hcd481022683c9056E', symObjAddr: 0x8970, symBinAddr: 0xA2C40, symSize: 0x1A0 }
  - { offsetInCU: 0x22C04, offset: 0x395891, size: 0x8, addend: 0x0, symName: '__ZN4core3ptr45drop_in_place$LT$syn..item..TraitItemType$GT$17hff73dc4d6b73b6f1E', symObjAddr: 0x8C10, symBinAddr: 0xA2DE0, symSize: 0x190 }
  - { offsetInCU: 0x23044, offset: 0x395CD1, size: 0x8, addend: 0x0, symName: '__ZN4core3ptr46drop_in_place$LT$syn..item..ImplItemMethod$GT$17h81d5acf604d84d52E', symObjAddr: 0x8DA0, symBinAddr: 0xA2F70, symSize: 0x230 }
  - { offsetInCU: 0x237F0, offset: 0x39647D, size: 0x8, addend: 0x0, symName: '__ZN4core3ptr46drop_in_place$LT$syn..item..ItemForeignMod$GT$17he0cb10e3a3005942E', symObjAddr: 0x8FD0, symBinAddr: 0xA31A0, symSize: 0x1C0 }
  - { offsetInCU: 0x24115, offset: 0x396DA2, size: 0x8, addend: 0x0, symName: '__ZN4core3ptr46drop_in_place$LT$syn..item..ItemTraitAlias$GT$17h92af75cf6c1f4732E', symObjAddr: 0x9190, symBinAddr: 0xA3360, symSize: 0x190 }
  - { offsetInCU: 0x246B9, offset: 0x397346, size: 0x8, addend: 0x0, symName: '__ZN4core3ptr46drop_in_place$LT$syn..item..TraitItemConst$GT$17ha3f3e5595f870971E', symObjAddr: 0x9320, symBinAddr: 0xA34F0, symSize: 0x170 }
  - { offsetInCU: 0x24AF9, offset: 0x397786, size: 0x8, addend: 0x0, symName: '__ZN4core3ptr47drop_in_place$LT$syn..generics..LifetimeDef$GT$17hd04bc9e6ed9dfb47E', symObjAddr: 0x9490, symBinAddr: 0xA3660, symSize: 0x120 }
  - { offsetInCU: 0x24F16, offset: 0x397BA3, size: 0x8, addend: 0x0, symName: '__ZN4core3ptr47drop_in_place$LT$syn..item..ForeignItemType$GT$17h1c4d82a7ec021a30E', symObjAddr: 0x95B0, symBinAddr: 0xA3780, symSize: 0x170 }
  - { offsetInCU: 0x254B8, offset: 0x398145, size: 0x8, addend: 0x0, symName: '__ZN4core3ptr47drop_in_place$LT$syn..item..ItemExternCrate$GT$17h97b05889785eea32E', symObjAddr: 0x9720, symBinAddr: 0xA38F0, symSize: 0x1A0 }
  - { offsetInCU: 0x25B58, offset: 0x3987E5, size: 0x8, addend: 0x0, symName: '__ZN4core3ptr47drop_in_place$LT$syn..item..TraitItemMethod$GT$17h21cb304020f3ba1eE', symObjAddr: 0x98C0, symBinAddr: 0xA3A90, symSize: 0x1F0 }
  - { offsetInCU: 0x26196, offset: 0x398E23, size: 0x8, addend: 0x0, symName: '__ZN4core3ptr47drop_in_place$LT$syn..path..GenericArgument$GT$17h8c0a0d8c6deaefb4E', symObjAddr: 0x9AB0, symBinAddr: 0xA3C80, symSize: 0x110 }
  - { offsetInCU: 0x264B1, offset: 0x39913E, size: 0x8, addend: 0x0, symName: '__ZN4core3ptr49drop_in_place$LT$syn..item..ForeignItemStatic$GT$17hfe9f44f9dab5bcd1E', symObjAddr: 0x9BC0, symBinAddr: 0xA3D90, symSize: 0x190 }
  - { offsetInCU: 0x26B68, offset: 0x3997F5, size: 0x8, addend: 0x0, symName: '__ZN4core3ptr58drop_in_place$LT$alloc..vec..Vec$LT$syn..expr..Arm$GT$$GT$17hf3db0825f3d9c861E', symObjAddr: 0x9D50, symBinAddr: 0xA3F20, symSize: 0xD0 }
  - { offsetInCU: 0x26E28, offset: 0x399AB5, size: 0x8, addend: 0x0, symName: '__ZN4core3ptr59drop_in_place$LT$alloc..boxed..Box$LT$syn..pat..Pat$GT$$GT$17h7037ce9bbd3729c6E', symObjAddr: 0x9E20, symBinAddr: 0xA3FF0, symSize: 0x50 }
  - { offsetInCU: 0x26F81, offset: 0x399C0E, size: 0x8, addend: 0x0, symName: '__ZN4core3ptr59drop_in_place$LT$alloc..boxed..Box$LT$syn..ty..Type$GT$$GT$17h2eccd13329dbe4faE', symObjAddr: 0x9E70, symBinAddr: 0xA4040, symSize: 0x50 }
  - { offsetInCU: 0x270DA, offset: 0x399D67, size: 0x8, addend: 0x0, symName: '__ZN4core3ptr59drop_in_place$LT$alloc..vec..Vec$LT$syn..item..Item$GT$$GT$17h544d8e20d05b2f97E', symObjAddr: 0x9EC0, symBinAddr: 0xA4090, symSize: 0xD0 }
  - { offsetInCU: 0x2739A, offset: 0x39A027, size: 0x8, addend: 0x0, symName: '__ZN4core3ptr59drop_in_place$LT$alloc..vec..Vec$LT$syn..stmt..Stmt$GT$$GT$17hed4646381107e302E', symObjAddr: 0x9F90, symBinAddr: 0xA4160, symSize: 0xD0 }
  - { offsetInCU: 0x2765A, offset: 0x39A2E7, size: 0x8, addend: 0x0, symName: '__ZN4core3ptr61drop_in_place$LT$alloc..boxed..Box$LT$syn..expr..Expr$GT$$GT$17h66094ddc89015516E', symObjAddr: 0xA060, symBinAddr: 0xA4230, symSize: 0x50 }
  - { offsetInCU: 0x2782F, offset: 0x39A4BC, size: 0x8, addend: 0x0, symName: '__ZN4core3ptr61drop_in_place$LT$syn..path..ParenthesizedGenericArguments$GT$17h21be9b1d7a6fab55E', symObjAddr: 0xA120, symBinAddr: 0xA4280, symSize: 0x170 }
  - { offsetInCU: 0x27E25, offset: 0x39AAB2, size: 0x8, addend: 0x0, symName: '__ZN4core3ptr62drop_in_place$LT$alloc..boxed..Box$LT$syn..stmt..Block$GT$$GT$17h0633c21446a415f4E', symObjAddr: 0xA290, symBinAddr: 0xA43F0, symSize: 0xE0 }
  - { offsetInCU: 0x28237, offset: 0x39AEC4, size: 0x8, addend: 0x0, symName: '__ZN4core3ptr63drop_in_place$LT$alloc..boxed..Box$LT$syn..lit..LitRepr$GT$$GT$17h9c509b794406150eE', symObjAddr: 0xA370, symBinAddr: 0xA44D0, symSize: 0x60 }
  - { offsetInCU: 0x28500, offset: 0x39B18D, size: 0x8, addend: 0x0, symName: '__ZN4core3ptr63drop_in_place$LT$alloc..vec..Vec$LT$syn..item..ImplItem$GT$$GT$17ha4d5b54edb0d5cb7E', symObjAddr: 0xA3D0, symBinAddr: 0xA4530, symSize: 0x80 }
  - { offsetInCU: 0x287D7, offset: 0x39B464, size: 0x8, addend: 0x0, symName: '__ZN4core3ptr64drop_in_place$LT$alloc..boxed..Box$LT$syn..item..UseTree$GT$$GT$17h2fbb30105f88b737E', symObjAddr: 0xA450, symBinAddr: 0xA45B0, symSize: 0x100 }
  - { offsetInCU: 0x28D24, offset: 0x39B9B1, size: 0x8, addend: 0x0, symName: '__ZN4core3ptr64drop_in_place$LT$alloc..boxed..Box$LT$syn..pat..FieldPat$GT$$GT$17hb167b355d0d4733fE', symObjAddr: 0xA550, symBinAddr: 0xA46B0, symSize: 0x180 }
  - { offsetInCU: 0x29441, offset: 0x39C0CE, size: 0x8, addend: 0x0, symName: '__ZN4core3ptr64drop_in_place$LT$alloc..boxed..Box$LT$syn..ty..BareFnArg$GT$$GT$17h6488be9448346678E', symObjAddr: 0xA6D0, symBinAddr: 0xA4830, symSize: 0x160 }
  - { offsetInCU: 0x299D7, offset: 0x39C664, size: 0x8, addend: 0x0, symName: '__ZN4core3ptr64drop_in_place$LT$alloc..vec..Vec$LT$syn..attr..Attribute$GT$$GT$17h386324d8ea9bc309E.llvm.2762174853176263616', symObjAddr: 0xA830, symBinAddr: 0xA4990, symSize: 0xF0 }
  - { offsetInCU: 0x29CCD, offset: 0x39C95A, size: 0x8, addend: 0x0, symName: '__ZN4core3ptr64drop_in_place$LT$alloc..vec..Vec$LT$syn..item..TraitItem$GT$$GT$17h0ef3c4b7ce592e9eE', symObjAddr: 0xA920, symBinAddr: 0xA4A80, symSize: 0x80 }
  - { offsetInCU: 0x29F85, offset: 0x39CC12, size: 0x8, addend: 0x0, symName: '__ZN4core3ptr65drop_in_place$LT$alloc..vec..Vec$LT$proc_macro..TokenTree$GT$$GT$17hc3670dd5608d5259E', symObjAddr: 0xA9A0, symBinAddr: 0xA4B00, symSize: 0x110 }
  - { offsetInCU: 0x2A37D, offset: 0x39D00A, size: 0x8, addend: 0x0, symName: '__ZN4core3ptr65drop_in_place$LT$core..option..Option$LT$syn..expr..Label$GT$$GT$17ha723640fd01bec5dE', symObjAddr: 0xAAB0, symBinAddr: 0xA4C10, symSize: 0x30 }
  - { offsetInCU: 0x2A4B7, offset: 0x39D144, size: 0x8, addend: 0x0, symName: '__ZN4core3ptr65drop_in_place$LT$core..option..Option$LT$syn..stmt..Block$GT$$GT$17hdff81fd7cb2986caE', symObjAddr: 0xAAE0, symBinAddr: 0xA4C40, symSize: 0xD0 }
  - { offsetInCU: 0x2A78C, offset: 0x39D419, size: 0x8, addend: 0x0, symName: '__ZN4core3ptr66drop_in_place$LT$alloc..vec..Vec$LT$syn..item..ForeignItem$GT$$GT$17hc5d281d65e9f4398E', symObjAddr: 0xABB0, symBinAddr: 0xA4D10, symSize: 0x80 }
  - { offsetInCU: 0x2AA44, offset: 0x39D6D1, size: 0x8, addend: 0x0, symName: '__ZN4core3ptr66drop_in_place$LT$core..option..Option$LT$syn..ty..Variadic$GT$$GT$17hc32134bb3933b0dfE', symObjAddr: 0xAC30, symBinAddr: 0xA4D90, symSize: 0xF0 }
  - { offsetInCU: 0x2AD6E, offset: 0x39D9FB, size: 0x8, addend: 0x0, symName: '__ZN4core3ptr67drop_in_place$LT$alloc..boxed..Box$LT$syn..expr..FieldValue$GT$$GT$17h8df780aa600ea8c2E', symObjAddr: 0xAD20, symBinAddr: 0xA4E80, symSize: 0x160 }
  - { offsetInCU: 0x2B2E4, offset: 0x39DF71, size: 0x8, addend: 0x0, symName: '__ZN4core3ptr67drop_in_place$LT$core..option..Option$LT$proc_macro2..Ident$GT$$GT$17h67578850954384a1E', symObjAddr: 0xAE80, symBinAddr: 0xA4FE0, symSize: 0x30 }
  - { offsetInCU: 0x2B3FF, offset: 0x39E08C, size: 0x8, addend: 0x0, symName: '__ZN4core3ptr68drop_in_place$LT$alloc..boxed..Box$LT$syn..path..PathSegment$GT$$GT$17h1957b54eed39c0bbE', symObjAddr: 0xAEB0, symBinAddr: 0xA5010, symSize: 0x190 }
  - { offsetInCU: 0x2BB28, offset: 0x39E7B5, size: 0x8, addend: 0x0, symName: '__ZN4core3ptr72drop_in_place$LT$alloc..boxed..Box$LT$syn..path..GenericArgument$GT$$GT$17ha8f8136d0c2b505bE', symObjAddr: 0xB040, symBinAddr: 0xA51A0, symSize: 0x180 }
  - { offsetInCU: 0x2C1C8, offset: 0x39EE55, size: 0x8, addend: 0x0, symName: '__ZN4core3ptr72drop_in_place$LT$core..option..Option$LT$syn..lifetime..Lifetime$GT$$GT$17h31b55b93749c174dE', symObjAddr: 0xB1C0, symBinAddr: 0xA5320, symSize: 0x30 }
  - { offsetInCU: 0x2C2E3, offset: 0x39EF70, size: 0x8, addend: 0x0, symName: '__ZN4core3ptr75drop_in_place$LT$alloc..boxed..Box$LT$syn..generics..TypeParamBound$GT$$GT$17h8f156ce07ea0b8b2E', symObjAddr: 0xB1F0, symBinAddr: 0xA5350, symSize: 0x140 }
  - { offsetInCU: 0x2C8BA, offset: 0x39F547, size: 0x8, addend: 0x0, symName: '__ZN4core3ptr75drop_in_place$LT$core..option..Option$LT$syn..generics..WhereClause$GT$$GT$17h9a6b9b305741da86E', symObjAddr: 0xB330, symBinAddr: 0xA5490, symSize: 0xF0 }
  - { offsetInCU: 0x2CBDC, offset: 0x39F869, size: 0x8, addend: 0x0, symName: '__ZN4core3ptr78drop_in_place$LT$alloc..boxed..Box$LT$syn..expr..GenericMethodArgument$GT$$GT$17h3384c00b5bd54c2aE', symObjAddr: 0xB420, symBinAddr: 0xA5580, symSize: 0x60 }
  - { offsetInCU: 0x2CDED, offset: 0x39FA7A, size: 0x8, addend: 0x0, symName: '__ZN4core3ptr78drop_in_place$LT$core..option..Option$LT$syn..generics..BoundLifetimes$GT$$GT$17h8175e66ad0c4a156E', symObjAddr: 0xB480, symBinAddr: 0xA55E0, symSize: 0x120 }
  - { offsetInCU: 0x2D2B2, offset: 0x39FF3F, size: 0x8, addend: 0x0, symName: '__ZN4core3ptr86drop_in_place$LT$syn..punctuated..Punctuated$LT$syn..pat..Pat$C$syn..token..Or$GT$$GT$17h1078c5d178d382b7E', symObjAddr: 0xB5A0, symBinAddr: 0xA5700, symSize: 0x120 }
  - { offsetInCU: 0x2D72D, offset: 0x3A03BA, size: 0x8, addend: 0x0, symName: '__ZN4core3ptr87drop_in_place$LT$core..option..Option$LT$alloc..boxed..Box$LT$syn..pat..Pat$GT$$GT$$GT$17ha7f5fe0e6f73e820E', symObjAddr: 0xB6E0, symBinAddr: 0xA5820, symSize: 0x50 }
  - { offsetInCU: 0x2D89D, offset: 0x3A052A, size: 0x8, addend: 0x0, symName: '__ZN4core3ptr87drop_in_place$LT$core..option..Option$LT$alloc..boxed..Box$LT$syn..ty..Type$GT$$GT$$GT$17hc8292da82d129de3E', symObjAddr: 0xB730, symBinAddr: 0xA5870, symSize: 0x50 }
  - { offsetInCU: 0x2DA0D, offset: 0x3A069A, size: 0x8, addend: 0x0, symName: '__ZN4core3ptr89drop_in_place$LT$core..option..Option$LT$alloc..boxed..Box$LT$syn..expr..Expr$GT$$GT$$GT$17hdc211ccd33f196f2E', symObjAddr: 0xB7A0, symBinAddr: 0xA58C0, symSize: 0x50 }
  - { offsetInCU: 0x2DBBB, offset: 0x3A0848, size: 0x8, addend: 0x0, symName: '__ZN4core3ptr89drop_in_place$LT$syn..punctuated..Punctuated$LT$syn..pat..Pat$C$syn..token..Comma$GT$$GT$17hf8371102b0500adcE', symObjAddr: 0xB7F0, symBinAddr: 0xA5910, symSize: 0x120 }
  - { offsetInCU: 0x2E04D, offset: 0x3A0CDA, size: 0x8, addend: 0x0, symName: '__ZN4core3ptr89drop_in_place$LT$syn..punctuated..Punctuated$LT$syn..ty..Type$C$syn..token..Comma$GT$$GT$17h1c6e43341fabea97E', symObjAddr: 0xB910, symBinAddr: 0xA5A30, symSize: 0x120 }
  - { offsetInCU: 0x2E506, offset: 0x3A1193, size: 0x8, addend: 0x0, symName: '__ZN4core3ptr90drop_in_place$LT$core..option..Option$LT$alloc..boxed..Box$LT$syn..data..Field$GT$$GT$$GT$17he146e9f4e32c136fE', symObjAddr: 0xBA30, symBinAddr: 0xA5B50, symSize: 0x1C0 }
  - { offsetInCU: 0x2EC0A, offset: 0x3A1897, size: 0x8, addend: 0x0, symName: '__ZN4core3ptr90drop_in_place$LT$core..option..Option$LT$alloc..boxed..Box$LT$syn..item..FnArg$GT$$GT$$GT$17ha72e545cf6ea6548E', symObjAddr: 0xBBF0, symBinAddr: 0xA5D10, symSize: 0x70 }
  - { offsetInCU: 0x2EDC2, offset: 0x3A1A4F, size: 0x8, addend: 0x0, symName: '__ZN4core3ptr91drop_in_place$LT$syn..punctuated..Punctuated$LT$syn..expr..Expr$C$syn..token..Comma$GT$$GT$17hd2dfeb0c522d9a18E', symObjAddr: 0xBC60, symBinAddr: 0xA5D80, symSize: 0x120 }
  - { offsetInCU: 0x2F250, offset: 0x3A1EDD, size: 0x8, addend: 0x0, symName: '__ZN4core3ptr92drop_in_place$LT$core..option..Option$LT$$LP$syn..token..As$C$proc_macro2..Ident$RP$$GT$$GT$17hdb8e08992a006501E', symObjAddr: 0xBD80, symBinAddr: 0xA5EA0, symSize: 0x30 }
  - { offsetInCU: 0x2F3A9, offset: 0x3A2036, size: 0x8, addend: 0x0, symName: '__ZN4core3ptr92drop_in_place$LT$core..option..Option$LT$alloc..boxed..Box$LT$syn..data..Variant$GT$$GT$$GT$17h9c9c8f3c1dc56a70E', symObjAddr: 0xBDB0, symBinAddr: 0xA5ED0, symSize: 0x1A0 }
  - { offsetInCU: 0x2F9CD, offset: 0x3A265A, size: 0x8, addend: 0x0, symName: '__ZN4core3ptr92drop_in_place$LT$syn..punctuated..Punctuated$LT$syn..item..FnArg$C$syn..token..Comma$GT$$GT$17h3049a14d789de61dE', symObjAddr: 0xBF50, symBinAddr: 0xA6070, symSize: 0x140 }
  - { offsetInCU: 0x2FE4A, offset: 0x3A2AD7, size: 0x8, addend: 0x0, symName: '__ZN4core3ptr94drop_in_place$LT$syn..punctuated..Punctuated$LT$syn..data..Variant$C$syn..token..Comma$GT$$GT$17hb4480d65f74dc9d7E', symObjAddr: 0xC090, symBinAddr: 0xA61B0, symSize: 0xE0 }
  - { offsetInCU: 0x301AA, offset: 0x3A2E37, size: 0x8, addend: 0x0, symName: '__ZN4core3ptr94drop_in_place$LT$syn..punctuated..Punctuated$LT$syn..item..UseTree$C$syn..token..Comma$GT$$GT$17ha837d38586774c87E', symObjAddr: 0xC170, symBinAddr: 0xA6290, symSize: 0xF0 }
  - { offsetInCU: 0x304EC, offset: 0x3A3179, size: 0x8, addend: 0x0, symName: '__ZN4core3ptr94drop_in_place$LT$syn..punctuated..Punctuated$LT$syn..pat..FieldPat$C$syn..token..Comma$GT$$GT$17h612cbc9066d5afb1E', symObjAddr: 0xC260, symBinAddr: 0xA6380, symSize: 0xF0 }
  - { offsetInCU: 0x307EB, offset: 0x3A3478, size: 0x8, addend: 0x0, symName: '__ZN4core3ptr94drop_in_place$LT$syn..punctuated..Punctuated$LT$syn..ty..BareFnArg$C$syn..token..Comma$GT$$GT$17ha9a668ce9972795bE', symObjAddr: 0xC350, symBinAddr: 0xA6470, symSize: 0xF0 }
  - { offsetInCU: 0x30AE8, offset: 0x3A3775, size: 0x8, addend: 0x0, symName: '__ZN4core3ptr96drop_in_place$LT$core..option..Option$LT$alloc..boxed..Box$LT$syn..path..PathSegment$GT$$GT$$GT$17h2e81cbe3c70bb71cE', symObjAddr: 0xC440, symBinAddr: 0xA6560, symSize: 0x180 }
  - { offsetInCU: 0x311A5, offset: 0x3A3E32, size: 0x8, addend: 0x0, symName: '__ZN4core3ptr97drop_in_place$LT$syn..punctuated..Punctuated$LT$syn..expr..FieldValue$C$syn..token..Comma$GT$$GT$17h11a5fffb46adfb11E', symObjAddr: 0xC5C0, symBinAddr: 0xA66E0, symSize: 0xF0 }
  - { offsetInCU: 0x3151E, offset: 0x3A41AB, size: 0x8, addend: 0x0, symName: '__ZN4core3ptr97drop_in_place$LT$syn..punctuated..Punctuated$LT$syn..lifetime..Lifetime$C$syn..token..Add$GT$$GT$17h5c54dea2c838d109E', symObjAddr: 0xC6B0, symBinAddr: 0xA67D0, symSize: 0xD0 }
  - { offsetInCU: 0x32282, offset: 0x3A4F0F, size: 0x8, addend: 0x0, symName: '__ZN53_$LT$core..fmt..Error$u20$as$u20$core..fmt..Debug$GT$3fmt17h03dc662ab152f3aeE', symObjAddr: 0xC7D0, symBinAddr: 0xA68A0, symSize: 0x20 }
  - { offsetInCU: 0x39A3C, offset: 0x3AC6C9, size: 0x8, addend: 0x0, symName: '__ZN48_$LT$T$u20$as$u20$core..clone..CloneToUninit$GT$15clone_to_uninit17h1e72921f8281f1fbE', symObjAddr: 0x240, symBinAddr: 0x9A6A0, symSize: 0x330 }
  - { offsetInCU: 0x4160C, offset: 0x3B4299, size: 0x8, addend: 0x0, symName: '__ZN3syn4item7parsing63_$LT$impl$u20$syn..parse..Parse$u20$for$u20$syn..item..Item$GT$5parse17hd5092b6f019cd3c8E', symObjAddr: 0xD550, symBinAddr: 0xA6C90, symSize: 0x48A0 }
  - { offsetInCU: 0x4F833, offset: 0x3C24C0, size: 0x8, addend: 0x0, symName: '__ZN3syn4item7parsing68_$LT$impl$u20$syn..parse..Parse$u20$for$u20$syn..item..ItemMacro$GT$5parse17h31dd6e83a6883425E', symObjAddr: 0x11DF0, symBinAddr: 0xAB530, symSize: 0x620 }
  - { offsetInCU: 0x502D0, offset: 0x3C2F5D, size: 0x8, addend: 0x0, symName: '__ZN3syn4item7parsing69_$LT$impl$u20$syn..parse..Parse$u20$for$u20$syn..item..ItemMacro2$GT$5parse17hcf95eda47eb68e7aE', symObjAddr: 0x12410, symBinAddr: 0xABB50, symSize: 0xC30 }
  - { offsetInCU: 0x520B6, offset: 0x3C4D43, size: 0x8, addend: 0x0, symName: '__ZN3syn4item7parsing74_$LT$impl$u20$syn..parse..Parse$u20$for$u20$syn..item..ItemExternCrate$GT$5parse17hae0345cc168adf0eE', symObjAddr: 0x13040, symBinAddr: 0xAC780, symSize: 0x930 }
  - { offsetInCU: 0x5341F, offset: 0x3C60AC, size: 0x8, addend: 0x0, symName: '__ZN3syn4item7parsing66_$LT$impl$u20$syn..parse..Parse$u20$for$u20$syn..item..ItemUse$GT$5parse17h5d348ec602c9bbe4E', symObjAddr: 0x13970, symBinAddr: 0xAD0B0, symSize: 0x800 }
  - { offsetInCU: 0x53F1E, offset: 0x3C6BAB, size: 0x8, addend: 0x0, symName: '__ZN3syn4item7parsing66_$LT$impl$u20$syn..parse..Parse$u20$for$u20$syn..item..UseTree$GT$5parse17hf6a79245528f6b50E', symObjAddr: 0x14170, symBinAddr: 0xAD8B0, symSize: 0xA90 }
  - { offsetInCU: 0x5641E, offset: 0x3C90AB, size: 0x8, addend: 0x0, symName: '__ZN3syn4item7parsing68_$LT$impl$u20$syn..parse..Parse$u20$for$u20$syn..item..Signature$GT$5parse17h48c646b2b2858734E', symObjAddr: 0x16420, symBinAddr: 0xAE340, symSize: 0x9D0 }
  - { offsetInCU: 0x573FD, offset: 0x3CA08A, size: 0x8, addend: 0x0, symName: '__ZN3syn4item7parsing64_$LT$impl$u20$syn..parse..Parse$u20$for$u20$syn..item..FnArg$GT$5parse17h6d8e7150f511bd86E', symObjAddr: 0x17130, symBinAddr: 0xAED10, symSize: 0x710 }
  - { offsetInCU: 0x588F9, offset: 0x3CB586, size: 0x8, addend: 0x0, symName: '__ZN3syn4item7parsing67_$LT$impl$u20$syn..parse..Parse$u20$for$u20$syn..item..Receiver$GT$5parse17h7c57eea315a0342bE', symObjAddr: 0x17840, symBinAddr: 0xAF420, symSize: 0x420 }
  - { offsetInCU: 0x58F23, offset: 0x3CBBB0, size: 0x8, addend: 0x0, symName: '__ZN3syn4item7parsing66_$LT$impl$u20$syn..parse..Parse$u20$for$u20$syn..item..ItemMod$GT$5parse17h7fe32aa4c994dc9bE', symObjAddr: 0x17C60, symBinAddr: 0xAF840, symSize: 0xC90 }
  - { offsetInCU: 0x5ABAE, offset: 0x3CD83B, size: 0x8, addend: 0x0, symName: '__ZN3syn4item7parsing73_$LT$impl$u20$syn..parse..Parse$u20$for$u20$syn..item..ItemForeignMod$GT$5parse17hcca74002a17b2fcbE', symObjAddr: 0x188F0, symBinAddr: 0xB04D0, symSize: 0x670 }
  - { offsetInCU: 0x5C07E, offset: 0x3CED0B, size: 0x8, addend: 0x0, symName: '__ZN3syn4item7parsing70_$LT$impl$u20$syn..parse..Parse$u20$for$u20$syn..item..ForeignItem$GT$5parse17h24f40baa602f1278E', symObjAddr: 0x18F60, symBinAddr: 0xB0B40, symSize: 0x1B10 }
  - { offsetInCU: 0x607B1, offset: 0x3D343E, size: 0x8, addend: 0x0, symName: '__ZN3syn4item7parsing69_$LT$impl$u20$syn..parse..Parse$u20$for$u20$syn..item..ItemStruct$GT$5parse17he3cfb27f1405a441E', symObjAddr: 0x1C9C0, symBinAddr: 0xB2650, symSize: 0x700 }
  - { offsetInCU: 0x612A4, offset: 0x3D3F31, size: 0x8, addend: 0x0, symName: '__ZN3syn4item7parsing67_$LT$impl$u20$syn..parse..Parse$u20$for$u20$syn..item..ItemEnum$GT$5parse17hb2912ec4b9be8655E', symObjAddr: 0x1D0C0, symBinAddr: 0xB2D50, symSize: 0x700 }
  - { offsetInCU: 0x61D9B, offset: 0x3D4A28, size: 0x8, addend: 0x0, symName: '__ZN3syn4item7parsing68_$LT$impl$u20$syn..parse..Parse$u20$for$u20$syn..item..ItemUnion$GT$5parse17hc3f05c1ec1b84162E', symObjAddr: 0x1D7C0, symBinAddr: 0xB3450, symSize: 0x700 }
  - { offsetInCU: 0x62883, offset: 0x3D5510, size: 0x8, addend: 0x0, symName: '__ZN3syn4item7parsing68_$LT$impl$u20$syn..parse..Parse$u20$for$u20$syn..item..ItemTrait$GT$5parse17h99b2153937d5d77aE', symObjAddr: 0x1DEC0, symBinAddr: 0xB3B50, symSize: 0x640 }
  - { offsetInCU: 0x635B1, offset: 0x3D623E, size: 0x8, addend: 0x0, symName: '__ZN3syn4item7parsing68_$LT$impl$u20$syn..parse..Parse$u20$for$u20$syn..item..TraitItem$GT$5parse17h4e734d2779733d06E', symObjAddr: 0x1E650, symBinAddr: 0xB4190, symSize: 0x14D0 }
  - { offsetInCU: 0x68932, offset: 0x3DB5BF, size: 0x8, addend: 0x0, symName: '__ZN3syn4item7parsing73_$LT$impl$u20$syn..parse..Parse$u20$for$u20$syn..item..TraitItemConst$GT$5parse17h1b0135dfda89c9c6E', symObjAddr: 0x1FB20, symBinAddr: 0xB5660, symSize: 0xAC0 }
  - { offsetInCU: 0x6A597, offset: 0x3DD224, size: 0x8, addend: 0x0, symName: '__ZN3syn4item7parsing74_$LT$impl$u20$syn..parse..Parse$u20$for$u20$syn..item..TraitItemMethod$GT$5parse17hc56523647cfaf282E', symObjAddr: 0x205E0, symBinAddr: 0xB6120, symSize: 0x7F0 }
  - { offsetInCU: 0x6BBE1, offset: 0x3DE86E, size: 0x8, addend: 0x0, symName: '__ZN3syn4item7parsing67_$LT$impl$u20$syn..parse..Parse$u20$for$u20$syn..item..ImplItem$GT$5parse17hd0abc4995f0e27e6E', symObjAddr: 0x218C0, symBinAddr: 0xB6910, symSize: 0x1CE0 }
  - { offsetInCU: 0x717C3, offset: 0x3E4450, size: 0x8, addend: 0x0, symName: '__ZN3syn4item7parsing73_$LT$impl$u20$syn..parse..Parse$u20$for$u20$syn..item..ImplItemMethod$GT$5parse17h40b89290a7d05ae0E', symObjAddr: 0x243E0, symBinAddr: 0xB85F0, symSize: 0x7B0 }
  - { offsetInCU: 0x72729, offset: 0x3E53B6, size: 0x8, addend: 0x0, symName: '__ZN3syn4item7parsing72_$LT$impl$u20$syn..parse..Parse$u20$for$u20$syn..item..ImplItemMacro$GT$5parse17h684a98d429e3ccb0E', symObjAddr: 0x25480, symBinAddr: 0xB8DA0, symSize: 0x0 }
  - { offsetInCU: 0x72CA5, offset: 0x3E5932, size: 0x8, addend: 0x0, symName: '__ZN3syn4item8printing83_$LT$impl$u20$quote..to_tokens..ToTokens$u20$for$u20$syn..item..ItemExternCrate$GT$9to_tokens17h7f9bd73caf323e58E', symObjAddr: 0x257D0, symBinAddr: 0xB90F0, symSize: 0x250 }
  - { offsetInCU: 0x732CA, offset: 0x3E5F57, size: 0x8, addend: 0x0, symName: '__ZN3syn4item8printing78_$LT$impl$u20$quote..to_tokens..ToTokens$u20$for$u20$syn..item..ItemStatic$GT$9to_tokens17h08058ed00f2b3dddE', symObjAddr: 0x25BB0, symBinAddr: 0xB9340, symSize: 0x230 }
  - { offsetInCU: 0x738FB, offset: 0x3E6588, size: 0x8, addend: 0x0, symName: '__ZN3syn4item8printing75_$LT$impl$u20$quote..to_tokens..ToTokens$u20$for$u20$syn..item..ItemMod$GT$9to_tokens17hc86d6254ff17a890E', symObjAddr: 0x260B0, symBinAddr: 0xB9570, symSize: 0x1D0 }
  - { offsetInCU: 0x73D5E, offset: 0x3E69EB, size: 0x8, addend: 0x0, symName: '__ZN3syn4item8printing76_$LT$impl$u20$quote..to_tokens..ToTokens$u20$for$u20$syn..item..ItemType$GT$9to_tokens17hb83cbc1a01934084E', symObjAddr: 0x263F0, symBinAddr: 0xB9740, symSize: 0x1D0 }
  - { offsetInCU: 0x74183, offset: 0x3E6E10, size: 0x8, addend: 0x0, symName: '__ZN3syn4item8printing76_$LT$impl$u20$quote..to_tokens..ToTokens$u20$for$u20$syn..item..ItemEnum$GT$9to_tokens17h842d495a33b205f9E', symObjAddr: 0x265C0, symBinAddr: 0xB9910, symSize: 0x1A0 }
  - { offsetInCU: 0x74520, offset: 0x3E71AD, size: 0x8, addend: 0x0, symName: '__ZN3syn4item8printing78_$LT$impl$u20$quote..to_tokens..ToTokens$u20$for$u20$syn..item..ItemStruct$GT$9to_tokens17h10e0d38d73f156efE', symObjAddr: 0x26760, symBinAddr: 0xB9AB0, symSize: 0x230 }
  - { offsetInCU: 0x74A45, offset: 0x3E76D2, size: 0x8, addend: 0x0, symName: '__ZN3syn4item8printing77_$LT$impl$u20$quote..to_tokens..ToTokens$u20$for$u20$syn..item..ItemUnion$GT$9to_tokens17h21c08048e1f3d099E', symObjAddr: 0x26990, symBinAddr: 0xB9CE0, symSize: 0x1A0 }
  - { offsetInCU: 0x74E52, offset: 0x3E7ADF, size: 0x8, addend: 0x0, symName: '__ZN3syn4item8printing77_$LT$impl$u20$quote..to_tokens..ToTokens$u20$for$u20$syn..item..ItemTrait$GT$9to_tokens17h0ddcf38549076bc2E', symObjAddr: 0x26B30, symBinAddr: 0xB9E80, symSize: 0x310 }
  - { offsetInCU: 0x75763, offset: 0x3E83F0, size: 0x8, addend: 0x0, symName: '__ZN3syn4item8printing82_$LT$impl$u20$quote..to_tokens..ToTokens$u20$for$u20$syn..item..ItemTraitAlias$GT$9to_tokens17hf80e15e3335a9024E', symObjAddr: 0x26E40, symBinAddr: 0xBA190, symSize: 0x1F0 }
  - { offsetInCU: 0x75D07, offset: 0x3E8994, size: 0x8, addend: 0x0, symName: '__ZN3syn4item8printing76_$LT$impl$u20$quote..to_tokens..ToTokens$u20$for$u20$syn..item..ItemImpl$GT$9to_tokens17h30df070e852a5931E', symObjAddr: 0x27030, symBinAddr: 0xBA380, symSize: 0x360 }
  - { offsetInCU: 0x7662F, offset: 0x3E92BC, size: 0x8, addend: 0x0, symName: '__ZN3syn4item8printing77_$LT$impl$u20$quote..to_tokens..ToTokens$u20$for$u20$syn..item..ItemMacro$GT$9to_tokens17h481af589de6f9dcbE', symObjAddr: 0x27390, symBinAddr: 0xBA6E0, symSize: 0x1D0 }
  - { offsetInCU: 0x76B8E, offset: 0x3E981B, size: 0x8, addend: 0x0, symName: '__ZN3syn4item8printing82_$LT$impl$u20$quote..to_tokens..ToTokens$u20$for$u20$syn..item..TraitItemConst$GT$9to_tokens17h48ef6e80aa5ee690E', symObjAddr: 0x27820, symBinAddr: 0xBA8B0, symSize: 0x1E0 }
  - { offsetInCU: 0x76FF2, offset: 0x3E9C7F, size: 0x8, addend: 0x0, symName: '__ZN3syn4item8printing81_$LT$impl$u20$quote..to_tokens..ToTokens$u20$for$u20$syn..item..TraitItemType$GT$9to_tokens17ha773e15de198d60bE', symObjAddr: 0x27B60, symBinAddr: 0xBAA90, symSize: 0x290 }
  - { offsetInCU: 0x77692, offset: 0x3EA31F, size: 0x8, addend: 0x0, symName: '__ZN3syn4item8printing81_$LT$impl$u20$quote..to_tokens..ToTokens$u20$for$u20$syn..item..ImplItemConst$GT$9to_tokens17h93720e24ccbf6f9aE', symObjAddr: 0x27DF0, symBinAddr: 0xBAD20, symSize: 0x250 }
  - { offsetInCU: 0x77BD9, offset: 0x3EA866, size: 0x8, addend: 0x0, symName: '__ZN3syn4item8printing82_$LT$impl$u20$quote..to_tokens..ToTokens$u20$for$u20$syn..item..ImplItemMethod$GT$9to_tokens17h6dcd8d204ee3d041E', symObjAddr: 0x28040, symBinAddr: 0xBAF70, symSize: 0x2C0 }
  - { offsetInCU: 0x78507, offset: 0x3EB194, size: 0x8, addend: 0x0, symName: '__ZN3syn4item8printing80_$LT$impl$u20$quote..to_tokens..ToTokens$u20$for$u20$syn..item..ImplItemType$GT$9to_tokens17h10f82f78812ca34bE', symObjAddr: 0x28300, symBinAddr: 0xBB230, symSize: 0x240 }
  - { offsetInCU: 0x78AA5, offset: 0x3EB732, size: 0x8, addend: 0x0, symName: '__ZN3syn4item8printing85_$LT$impl$u20$quote..to_tokens..ToTokens$u20$for$u20$syn..item..ForeignItemStatic$GT$9to_tokens17heca0d869ed2edd6aE', symObjAddr: 0x28760, symBinAddr: 0xBB470, symSize: 0x210 }
  - { offsetInCU: 0x79030, offset: 0x3EBCBD, size: 0x8, addend: 0x0, symName: '__ZN3syn4item8printing77_$LT$impl$u20$quote..to_tokens..ToTokens$u20$for$u20$syn..item..Signature$GT$9to_tokens17hd3d401bd2710c1d3E', symObjAddr: 0x28AE0, symBinAddr: 0xBB680, symSize: 0x340 }
  - { offsetInCU: 0x79832, offset: 0x3EC4BF, size: 0x8, addend: 0x0, symName: '__ZN3syn4item8printing76_$LT$impl$u20$quote..to_tokens..ToTokens$u20$for$u20$syn..item..Receiver$GT$9to_tokens17h7bfe4f0f0a2e4435E', symObjAddr: 0x28E20, symBinAddr: 0xBB9C0, symSize: 0x220 }
  - { offsetInCU: 0x79EE9, offset: 0x3ECB76, size: 0x8, addend: 0x0, symName: '__ZN62_$LT$syn..item..Item$u20$as$u20$quote..to_tokens..ToTokens$GT$9to_tokens17hcfb6fa0e89cea6efE', symObjAddr: 0x29040, symBinAddr: 0xBBBE0, symSize: 0x810 }
  - { offsetInCU: 0x7B249, offset: 0x3EDED6, size: 0x8, addend: 0x0, symName: '__ZN65_$LT$syn..item..UseTree$u20$as$u20$quote..to_tokens..ToTokens$GT$9to_tokens17h73b4f1c675b83d74E', symObjAddr: 0x29850, symBinAddr: 0xBC3F0, symSize: 0x180 }
  - { offsetInCU: 0x7B564, offset: 0x3EE1F1, size: 0x8, addend: 0x0, symName: '__ZN69_$LT$syn..item..ForeignItem$u20$as$u20$quote..to_tokens..ToTokens$GT$9to_tokens17h5811b213ecf647c3E', symObjAddr: 0x299D0, symBinAddr: 0xBC570, symSize: 0x350 }
  - { offsetInCU: 0x7BE45, offset: 0x3EEAD2, size: 0x8, addend: 0x0, symName: '__ZN67_$LT$syn..item..TraitItem$u20$as$u20$quote..to_tokens..ToTokens$GT$9to_tokens17he9bf5a11f5abb64eE', symObjAddr: 0x29D20, symBinAddr: 0xBC8C0, symSize: 0x2E0 }
  - { offsetInCU: 0x7C4E8, offset: 0x3EF175, size: 0x8, addend: 0x0, symName: '__ZN66_$LT$syn..item..ImplItem$u20$as$u20$quote..to_tokens..ToTokens$GT$9to_tokens17hc241889665e48d04E', symObjAddr: 0x2A000, symBinAddr: 0xBCBA0, symSize: 0x1B0 }
  - { offsetInCU: 0x7CF94, offset: 0x3EFC21, size: 0x8, addend: 0x0, symName: '__ZN3syn3gen5clone67_$LT$impl$u20$core..clone..Clone$u20$for$u20$syn..item..UseTree$GT$5clone17h8f561418b2b5e44fE', symObjAddr: 0x2EE50, symBinAddr: 0xC1220, symSize: 0x290 }
  - { offsetInCU: 0x7D89F, offset: 0x3F052C, size: 0x8, addend: 0x0, symName: '__ZN3syn3gen5clone65_$LT$impl$u20$core..clone..Clone$u20$for$u20$syn..item..FnArg$GT$5clone17h66f8181604bce7dcE', symObjAddr: 0x2A3F0, symBinAddr: 0xBCD50, symSize: 0x100 }
  - { offsetInCU: 0x7DB05, offset: 0x3F0792, size: 0x8, addend: 0x0, symName: '__ZN3syn3gen5clone71_$LT$impl$u20$core..clone..Clone$u20$for$u20$syn..item..ForeignItem$GT$5clone17h70e70dae6a5d9f7fE', symObjAddr: 0x2A4F0, symBinAddr: 0xBCE50, symSize: 0x290 }
  - { offsetInCU: 0x7DE7F, offset: 0x3F0B0C, size: 0x8, addend: 0x0, symName: '__ZN3syn3gen5clone77_$LT$impl$u20$core..clone..Clone$u20$for$u20$syn..item..ForeignItemStatic$GT$5clone17h3664278b73a68d1fE', symObjAddr: 0x2A860, symBinAddr: 0xBD0E0, symSize: 0x1D0 }
  - { offsetInCU: 0x7E320, offset: 0x3F0FAD, size: 0x8, addend: 0x0, symName: '__ZN3syn3gen5clone75_$LT$impl$u20$core..clone..Clone$u20$for$u20$syn..item..ForeignItemType$GT$5clone17h0605ebd979d8e0f9E', symObjAddr: 0x2AA30, symBinAddr: 0xBD2B0, symSize: 0xE0 }
  - { offsetInCU: 0x7E486, offset: 0x3F1113, size: 0x8, addend: 0x0, symName: '__ZN3syn3gen5clone68_$LT$impl$u20$core..clone..Clone$u20$for$u20$syn..item..ImplItem$GT$5clone17h9da0c001cb875335E', symObjAddr: 0x2AB10, symBinAddr: 0xBD390, symSize: 0x1E0 }
  - { offsetInCU: 0x7E7C7, offset: 0x3F1454, size: 0x8, addend: 0x0, symName: '__ZN3syn3gen5clone73_$LT$impl$u20$core..clone..Clone$u20$for$u20$syn..item..ImplItemConst$GT$5clone17h6c1bdd3e9a111bc9E', symObjAddr: 0x2ACF0, symBinAddr: 0xBD570, symSize: 0x200 }
  - { offsetInCU: 0x7EA7D, offset: 0x3F170A, size: 0x8, addend: 0x0, symName: '__ZN3syn3gen5clone74_$LT$impl$u20$core..clone..Clone$u20$for$u20$syn..item..ImplItemMethod$GT$5clone17hc69c6508711c3562E', symObjAddr: 0x2AF80, symBinAddr: 0xBD770, symSize: 0x160 }
  - { offsetInCU: 0x7EB0D, offset: 0x3F179A, size: 0x8, addend: 0x0, symName: '__ZN3syn3gen5clone72_$LT$impl$u20$core..clone..Clone$u20$for$u20$syn..item..ImplItemType$GT$5clone17h11bf73316dc36436E', symObjAddr: 0x2B0E0, symBinAddr: 0xBD8D0, symSize: 0x330 }
  - { offsetInCU: 0x7EEC0, offset: 0x3F1B4D, size: 0x8, addend: 0x0, symName: '__ZN3syn3gen5clone64_$LT$impl$u20$core..clone..Clone$u20$for$u20$syn..item..Item$GT$5clone17hc6ebbc1fee216c73E', symObjAddr: 0x2B410, symBinAddr: 0xBDC00, symSize: 0x390 }
  - { offsetInCU: 0x7F444, offset: 0x3F20D1, size: 0x8, addend: 0x0, symName: '__ZN3syn3gen5clone69_$LT$impl$u20$core..clone..Clone$u20$for$u20$syn..item..ItemConst$GT$5clone17he7f8218fcd09ece6E', symObjAddr: 0x2B7A0, symBinAddr: 0xBDF90, symSize: 0x260 }
  - { offsetInCU: 0x7FAE9, offset: 0x3F2776, size: 0x8, addend: 0x0, symName: '__ZN3syn3gen5clone68_$LT$impl$u20$core..clone..Clone$u20$for$u20$syn..item..ItemEnum$GT$5clone17hf4df4a6f7e7b24e5E', symObjAddr: 0x2BA00, symBinAddr: 0xBE1F0, symSize: 0x300 }
  - { offsetInCU: 0x7FE1B, offset: 0x3F2AA8, size: 0x8, addend: 0x0, symName: '__ZN3syn3gen5clone75_$LT$impl$u20$core..clone..Clone$u20$for$u20$syn..item..ItemExternCrate$GT$5clone17h627a0e79ce1fe893E', symObjAddr: 0x2BD00, symBinAddr: 0xBE4F0, symSize: 0x180 }
  - { offsetInCU: 0x80130, offset: 0x3F2DBD, size: 0x8, addend: 0x0, symName: '__ZN3syn3gen5clone66_$LT$impl$u20$core..clone..Clone$u20$for$u20$syn..item..ItemFn$GT$5clone17h940429ce1f3d8207E', symObjAddr: 0x2BE80, symBinAddr: 0xBE670, symSize: 0x180 }
  - { offsetInCU: 0x803C8, offset: 0x3F3055, size: 0x8, addend: 0x0, symName: '__ZN3syn3gen5clone68_$LT$impl$u20$core..clone..Clone$u20$for$u20$syn..item..ItemImpl$GT$5clone17h99822f22f76475b6E', symObjAddr: 0x2C0D0, symBinAddr: 0xBE7F0, symSize: 0x460 }
  - { offsetInCU: 0x808C9, offset: 0x3F3556, size: 0x8, addend: 0x0, symName: '__ZN3syn3gen5clone69_$LT$impl$u20$core..clone..Clone$u20$for$u20$syn..item..ItemMacro$GT$5clone17h65b79b89ccdb0674E', symObjAddr: 0x2C530, symBinAddr: 0xBEC50, symSize: 0x110 }
  - { offsetInCU: 0x80B05, offset: 0x3F3792, size: 0x8, addend: 0x0, symName: '__ZN3syn3gen5clone70_$LT$impl$u20$core..clone..Clone$u20$for$u20$syn..item..ItemMacro2$GT$5clone17h991c2df9fefed252E', symObjAddr: 0x2C640, symBinAddr: 0xBED60, symSize: 0x1A0 }
  - { offsetInCU: 0x80F0E, offset: 0x3F3B9B, size: 0x8, addend: 0x0, symName: '__ZN3syn3gen5clone67_$LT$impl$u20$core..clone..Clone$u20$for$u20$syn..item..ItemMod$GT$5clone17h56cf528e17dd7490E', symObjAddr: 0x2C7E0, symBinAddr: 0xBEF00, symSize: 0x160 }
  - { offsetInCU: 0x81188, offset: 0x3F3E15, size: 0x8, addend: 0x0, symName: '__ZN3syn3gen5clone70_$LT$impl$u20$core..clone..Clone$u20$for$u20$syn..item..ItemStatic$GT$5clone17hdf091bb88ac38b47E', symObjAddr: 0x2C940, symBinAddr: 0xBF060, symSize: 0x280 }
  - { offsetInCU: 0x8185A, offset: 0x3F44E7, size: 0x8, addend: 0x0, symName: '__ZN3syn3gen5clone70_$LT$impl$u20$core..clone..Clone$u20$for$u20$syn..item..ItemStruct$GT$5clone17hd8a59448b138557aE', symObjAddr: 0x2CBC0, symBinAddr: 0xBF2E0, symSize: 0x380 }
  - { offsetInCU: 0x81C6F, offset: 0x3F48FC, size: 0x8, addend: 0x0, symName: '__ZN3syn3gen5clone69_$LT$impl$u20$core..clone..Clone$u20$for$u20$syn..item..ItemTrait$GT$5clone17h05a37713845a0c0bE', symObjAddr: 0x2CF40, symBinAddr: 0xBF660, symSize: 0x3C0 }
  - { offsetInCU: 0x8202D, offset: 0x3F4CBA, size: 0x8, addend: 0x0, symName: '__ZN3syn3gen5clone74_$LT$impl$u20$core..clone..Clone$u20$for$u20$syn..item..ItemTraitAlias$GT$5clone17hf8c8d2db95754afdE', symObjAddr: 0x2D300, symBinAddr: 0xBFA20, symSize: 0x310 }
  - { offsetInCU: 0x8238D, offset: 0x3F501A, size: 0x8, addend: 0x0, symName: '__ZN3syn3gen5clone68_$LT$impl$u20$core..clone..Clone$u20$for$u20$syn..item..ItemType$GT$5clone17h1d1420c2f836bc7eE', symObjAddr: 0x2D610, symBinAddr: 0xBFD30, symSize: 0x340 }
  - { offsetInCU: 0x82909, offset: 0x3F5596, size: 0x8, addend: 0x0, symName: '__ZN3syn3gen5clone69_$LT$impl$u20$core..clone..Clone$u20$for$u20$syn..item..ItemUnion$GT$5clone17h7b2f56fc86343981E', symObjAddr: 0x2D950, symBinAddr: 0xC0070, symSize: 0x310 }
  - { offsetInCU: 0x82C39, offset: 0x3F58C6, size: 0x8, addend: 0x0, symName: '__ZN3syn3gen5clone67_$LT$impl$u20$core..clone..Clone$u20$for$u20$syn..item..ItemUse$GT$5clone17h16e4d2ca744347fbE', symObjAddr: 0x2DC60, symBinAddr: 0xC0380, symSize: 0x110 }
  - { offsetInCU: 0x82CF9, offset: 0x3F5986, size: 0x8, addend: 0x0, symName: '__ZN3syn3gen5clone69_$LT$impl$u20$core..clone..Clone$u20$for$u20$syn..item..Signature$GT$5clone17h527c1da3117ac0c2E', symObjAddr: 0x2DE50, symBinAddr: 0xC0490, symSize: 0x530 }
  - { offsetInCU: 0x834FE, offset: 0x3F618B, size: 0x8, addend: 0x0, symName: '__ZN3syn3gen5clone69_$LT$impl$u20$core..clone..Clone$u20$for$u20$syn..item..TraitItem$GT$5clone17h3b82f8b5271b5af7E', symObjAddr: 0x2E380, symBinAddr: 0xC09C0, symSize: 0x1E0 }
  - { offsetInCU: 0x8383F, offset: 0x3F64CC, size: 0x8, addend: 0x0, symName: '__ZN3syn3gen5clone74_$LT$impl$u20$core..clone..Clone$u20$for$u20$syn..item..TraitItemConst$GT$5clone17ha12a3469e74263a0E', symObjAddr: 0x2E560, symBinAddr: 0xC0BA0, symSize: 0x1E0 }
  - { offsetInCU: 0x83AFC, offset: 0x3F6789, size: 0x8, addend: 0x0, symName: '__ZN3syn3gen5clone75_$LT$impl$u20$core..clone..Clone$u20$for$u20$syn..item..TraitItemMethod$GT$5clone17hc5f98fa3110d949bE', symObjAddr: 0x2E740, symBinAddr: 0xC0D80, symSize: 0x130 }
  - { offsetInCU: 0x83BF0, offset: 0x3F687D, size: 0x8, addend: 0x0, symName: '__ZN3syn3gen5clone73_$LT$impl$u20$core..clone..Clone$u20$for$u20$syn..item..TraitItemType$GT$5clone17h322c8f681c4ed7c4E', symObjAddr: 0x2E870, symBinAddr: 0xC0EB0, symSize: 0x370 }
  - { offsetInCU: 0x87B12, offset: 0x3FA79F, size: 0x8, addend: 0x0, symName: '__ZN5alloc3vec16Vec$LT$T$C$A$GT$15append_elements17h515b13e7a2841833E', symObjAddr: 0xC990, symBinAddr: 0xA6A60, symSize: 0x70 }
  - { offsetInCU: 0x87D48, offset: 0x3FA9D5, size: 0x8, addend: 0x0, symName: __ZN3syn4item4Item13replace_attrs17h27bc8d233ea7e24cE, symObjAddr: 0xD2C0, symBinAddr: 0xA6AD0, symSize: 0x1C0 }
  - { offsetInCU: 0x1E, offset: 0x40CFF9, size: 0x8, addend: 0x0, symName: '__ZN4core3ptr100drop_in_place$LT$core..option..Option$LT$alloc..boxed..Box$LT$syn..generics..LifetimeDef$GT$$GT$$GT$17h75a6086997697dd7E.llvm.16532739692444164112', symObjAddr: 0x0, symBinAddr: 0xC14B0, symSize: 0x50 }
  - { offsetInCU: 0x16AA, offset: 0x40E685, size: 0x8, addend: 0x0, symName: '__ZN111_$LT$syn..punctuated..PrivateIter$LT$T$C$P$GT$$u20$as$u20$core..iter..traits..exact_size..ExactSizeIterator$GT$3len17hf0eb6e48e300523aE.llvm.16532739692444164112', symObjAddr: 0x124F0, symBinAddr: 0xCF310, symSize: 0x0 }
  - { offsetInCU: 0x1775, offset: 0x40E750, size: 0x8, addend: 0x0, symName: '__ZN111_$LT$syn..punctuated..PrivateIter$LT$T$C$P$GT$$u20$as$u20$core..iter..traits..exact_size..ExactSizeIterator$GT$3len17hf961cff6ad363ebcE.llvm.16532739692444164112', symObjAddr: 0x12520, symBinAddr: 0xCF340, symSize: 0x30 }
  - { offsetInCU: 0x19EC, offset: 0x40E9C7, size: 0x8, addend: 0x0, symName: '__ZN115_$LT$syn..punctuated..PrivateIter$LT$T$C$P$GT$$u20$as$u20$core..iter..traits..double_ended..DoubleEndedIterator$GT$9next_back17h511dcfc6e4846953E.llvm.16532739692444164112', symObjAddr: 0x12400, symBinAddr: 0xCF2B0, symSize: 0x30 }
  - { offsetInCU: 0x1C93, offset: 0x40EC6E, size: 0x8, addend: 0x0, symName: '__ZN115_$LT$syn..punctuated..PrivateIter$LT$T$C$P$GT$$u20$as$u20$core..iter..traits..double_ended..DoubleEndedIterator$GT$9next_back17hb6748fd670fb3ec7E.llvm.16532739692444164112', symObjAddr: 0x12460, symBinAddr: 0xCF2E0, symSize: 0x0 }
  - { offsetInCU: 0x2135, offset: 0x40F110, size: 0x8, addend: 0x0, symName: '__ZN100_$LT$syn..punctuated..PrivateIter$LT$T$C$P$GT$$u20$as$u20$core..iter..traits..iterator..Iterator$GT$4next17h6d856dbf85f5e49bE.llvm.16532739692444164112', symObjAddr: 0x12340, symBinAddr: 0xCF220, symSize: 0x30 }
  - { offsetInCU: 0x23AF, offset: 0x40F38A, size: 0x8, addend: 0x0, symName: '__ZN100_$LT$syn..punctuated..PrivateIter$LT$T$C$P$GT$$u20$as$u20$core..iter..traits..iterator..Iterator$GT$4next17h7d488a113c538d31E.llvm.16532739692444164112', symObjAddr: 0x12370, symBinAddr: 0xCF250, symSize: 0x0 }
  - { offsetInCU: 0x2629, offset: 0x40F604, size: 0x8, addend: 0x0, symName: '__ZN100_$LT$syn..punctuated..PrivateIter$LT$T$C$P$GT$$u20$as$u20$core..iter..traits..iterator..Iterator$GT$4next17h7d8b0100903e1490E.llvm.16532739692444164112', symObjAddr: 0x123A0, symBinAddr: 0xCF280, symSize: 0x30 }
  - { offsetInCU: 0x2DEA, offset: 0x40FDC5, size: 0x8, addend: 0x0, symName: '__ZN79_$LT$syn..punctuated..Punctuated$LT$T$C$P$GT$$u20$as$u20$core..clone..Clone$GT$5clone17h11f716f7c70263efE', symObjAddr: 0xDDE0, symBinAddr: 0xCDC70, symSize: 0xE0 }
  - { offsetInCU: 0x3070, offset: 0x41004B, size: 0x8, addend: 0x0, symName: '__ZN79_$LT$syn..punctuated..Punctuated$LT$T$C$P$GT$$u20$as$u20$core..clone..Clone$GT$5clone17h16b574025162a927E', symObjAddr: 0xDEC0, symBinAddr: 0xCDD50, symSize: 0xC0 }
  - { offsetInCU: 0x329E, offset: 0x410279, size: 0x8, addend: 0x0, symName: '__ZN79_$LT$syn..punctuated..Punctuated$LT$T$C$P$GT$$u20$as$u20$core..clone..Clone$GT$5clone17h248ce364975e5563E', symObjAddr: 0xDF80, symBinAddr: 0xCDE10, symSize: 0xE0 }
  - { offsetInCU: 0x3525, offset: 0x410500, size: 0x8, addend: 0x0, symName: '__ZN79_$LT$syn..punctuated..Punctuated$LT$T$C$P$GT$$u20$as$u20$core..clone..Clone$GT$5clone17h2cb3b5c3adb260feE', symObjAddr: 0xE060, symBinAddr: 0xCDEF0, symSize: 0xE0 }
  - { offsetInCU: 0x37AC, offset: 0x410787, size: 0x8, addend: 0x0, symName: '__ZN79_$LT$syn..punctuated..Punctuated$LT$T$C$P$GT$$u20$as$u20$core..clone..Clone$GT$5clone17h56e1f4ad041a44ceE', symObjAddr: 0xE240, symBinAddr: 0xCDFD0, symSize: 0xE0 }
  - { offsetInCU: 0x3A33, offset: 0x410A0E, size: 0x8, addend: 0x0, symName: '__ZN79_$LT$syn..punctuated..Punctuated$LT$T$C$P$GT$$u20$as$u20$core..clone..Clone$GT$5clone17h5806b3a5c1b4f2a6E', symObjAddr: 0xE320, symBinAddr: 0xCE0B0, symSize: 0xE0 }
  - { offsetInCU: 0x3CB9, offset: 0x410C94, size: 0x8, addend: 0x0, symName: '__ZN79_$LT$syn..punctuated..Punctuated$LT$T$C$P$GT$$u20$as$u20$core..clone..Clone$GT$5clone17h682a84abd40a7cfeE', symObjAddr: 0xE400, symBinAddr: 0xCE190, symSize: 0xE0 }
  - { offsetInCU: 0x3F40, offset: 0x410F1B, size: 0x8, addend: 0x0, symName: '__ZN79_$LT$syn..punctuated..Punctuated$LT$T$C$P$GT$$u20$as$u20$core..clone..Clone$GT$5clone17h748e57bad821d612E', symObjAddr: 0xE4E0, symBinAddr: 0xCE270, symSize: 0xD0 }
  - { offsetInCU: 0x41C6, offset: 0x4111A1, size: 0x8, addend: 0x0, symName: '__ZN79_$LT$syn..punctuated..Punctuated$LT$T$C$P$GT$$u20$as$u20$core..clone..Clone$GT$5clone17h7dc69fd3509f726bE', symObjAddr: 0xE6D0, symBinAddr: 0xCE340, symSize: 0xE0 }
  - { offsetInCU: 0x444D, offset: 0x411428, size: 0x8, addend: 0x0, symName: '__ZN79_$LT$syn..punctuated..Punctuated$LT$T$C$P$GT$$u20$as$u20$core..clone..Clone$GT$5clone17had7f902178348c63E', symObjAddr: 0xE9A0, symBinAddr: 0xCE420, symSize: 0x180 }
  - { offsetInCU: 0x481F, offset: 0x4117FA, size: 0x8, addend: 0x0, symName: '__ZN79_$LT$syn..punctuated..Punctuated$LT$T$C$P$GT$$u20$as$u20$core..clone..Clone$GT$5clone17hb75d2d633cc2d1edE', symObjAddr: 0xEB20, symBinAddr: 0xCE5A0, symSize: 0x110 }
  - { offsetInCU: 0x4B83, offset: 0x411B5E, size: 0x8, addend: 0x0, symName: '__ZN79_$LT$syn..punctuated..Punctuated$LT$T$C$P$GT$$u20$as$u20$core..clone..Clone$GT$5clone17hd0e9f97bdac7287eE', symObjAddr: 0xED10, symBinAddr: 0xCE6B0, symSize: 0x150 }
  - { offsetInCU: 0x4E56, offset: 0x411E31, size: 0x8, addend: 0x0, symName: '__ZN79_$LT$syn..punctuated..Punctuated$LT$T$C$P$GT$$u20$as$u20$core..clone..Clone$GT$5clone17he55a9d80253adee0E', symObjAddr: 0xEF40, symBinAddr: 0xCE800, symSize: 0xE0 }
  - { offsetInCU: 0x517A, offset: 0x412155, size: 0x8, addend: 0x0, symName: '__ZN138_$LT$syn..punctuated..Punctuated$LT$T$C$P$GT$$u20$as$u20$core..iter..traits..collect..Extend$LT$syn..punctuated..Pair$LT$T$C$P$GT$$GT$$GT$6extend17h46e8b111646272d1E', symObjAddr: 0x110F0, symBinAddr: 0xCEC20, symSize: 0x340 }
  - { offsetInCU: 0x5974, offset: 0x41294F, size: 0x8, addend: 0x0, symName: '__ZN144_$LT$syn..punctuated..Punctuated$LT$T$C$P$GT$$u20$as$u20$core..iter..traits..collect..FromIterator$LT$syn..punctuated..Pair$LT$T$C$P$GT$$GT$$GT$9from_iter17he2cbff5f009ca769E', symObjAddr: 0x10DB0, symBinAddr: 0xCE8E0, symSize: 0x340 }
  - { offsetInCU: 0x5FAC, offset: 0x412F87, size: 0x8, addend: 0x0, symName: '__ZN102_$LT$syn..punctuated..Punctuated$LT$T$C$P$GT$$u20$as$u20$core..iter..traits..collect..IntoIterator$GT$9into_iter17h83e18cee80a4ec2fE', symObjAddr: 0x11710, symBinAddr: 0xCEF60, symSize: 0x2C0 }
  - { offsetInCU: 0x772B, offset: 0x414706, size: 0x8, addend: 0x0, symName: '__ZN57_$LT$I$u20$as$u20$syn..punctuated..IterTrait$LT$T$GT$$GT$9clone_box17h4a399b36d0c6d85cE.llvm.16532739692444164112', symObjAddr: 0x125B0, symBinAddr: 0xCF370, symSize: 0x60 }
  - { offsetInCU: 0x7938, offset: 0x414913, size: 0x8, addend: 0x0, symName: '__ZN57_$LT$I$u20$as$u20$syn..punctuated..IterTrait$LT$T$GT$$GT$9clone_box17hf91e00e1143972f2E.llvm.16532739692444164112', symObjAddr: 0x12670, symBinAddr: 0xCF3D0, symSize: 0x60 }
  - { offsetInCU: 0x7B4B, offset: 0x414B26, size: 0x8, addend: 0x0, symName: '__ZN97_$LT$syn..punctuated..Punctuated$LT$T$C$P$GT$$u20$as$u20$core..ops..index..Index$LT$usize$GT$$GT$5index17ha3e39e7328b6f7abE', symObjAddr: 0x126D0, symBinAddr: 0xCF430, symSize: 0x50 }
  - { offsetInCU: 0x7C98, offset: 0x414C73, size: 0x8, addend: 0x0, symName: '__ZN3syn10punctuated8printing97_$LT$impl$u20$quote..to_tokens..ToTokens$u20$for$u20$syn..punctuated..Punctuated$LT$T$C$P$GT$$GT$9to_tokens17h4c504ab6a95422ddE', symObjAddr: 0x12880, symBinAddr: 0xCF480, symSize: 0x150 }
  - { offsetInCU: 0x13F89, offset: 0x420F64, size: 0x8, addend: 0x0, symName: '__ZN4core3ptr100drop_in_place$LT$core..option..Option$LT$alloc..boxed..Box$LT$syn..generics..LifetimeDef$GT$$GT$$GT$17h75a6086997697dd7E.llvm.16532739692444164112', symObjAddr: 0x0, symBinAddr: 0xC14B0, symSize: 0x50 }
  - { offsetInCU: 0x1410B, offset: 0x4210E6, size: 0x8, addend: 0x0, symName: '__ZN4core3ptr100drop_in_place$LT$core..option..Option$LT$alloc..boxed..Box$LT$syn..path..GenericArgument$GT$$GT$$GT$17h3d29ec00a8f1918dE.llvm.16532739692444164112', symObjAddr: 0x50, symBinAddr: 0xC1500, symSize: 0x50 }
  - { offsetInCU: 0x1429A, offset: 0x421275, size: 0x8, addend: 0x0, symName: '__ZN4core3ptr101drop_in_place$LT$alloc..vec..Vec$LT$$LP$syn..generics..WherePredicate$C$syn..token..Comma$RP$$GT$$GT$17h08dfdcabd164aa70E.llvm.16532739692444164112', symObjAddr: 0xA0, symBinAddr: 0xC1550, symSize: 0xD0 }
  - { offsetInCU: 0x146E1, offset: 0x4216BC, size: 0x8, addend: 0x0, symName: '__ZN4core3ptr103drop_in_place$LT$core..option..Option$LT$alloc..boxed..Box$LT$syn..generics..TypeParamBound$GT$$GT$$GT$17h6cee73bc2b2ecea8E.llvm.16532739692444164112', symObjAddr: 0x170, symBinAddr: 0xC1620, symSize: 0x150 }
  - { offsetInCU: 0x14C9F, offset: 0x421C7A, size: 0x8, addend: 0x0, symName: '__ZN4core3ptr103drop_in_place$LT$syn..punctuated..Punctuated$LT$syn..generics..TypeParamBound$C$syn..token..Add$GT$$GT$17he811d520c92af08aE.llvm.16532739692444164112', symObjAddr: 0x2C0, symBinAddr: 0xC1770, symSize: 0xF0 }
  - { offsetInCU: 0x151DC, offset: 0x4221B7, size: 0x8, addend: 0x0, symName: '__ZN4core3ptr104drop_in_place$LT$alloc..vec..Vec$LT$$LP$syn..expr..GenericMethodArgument$C$syn..token..Comma$RP$$GT$$GT$17heae48b13c44e912aE.llvm.16532739692444164112', symObjAddr: 0x3B0, symBinAddr: 0xC1860, symSize: 0xF0 }
  - { offsetInCU: 0x15546, offset: 0x422521, size: 0x8, addend: 0x0, symName: '__ZN4core3ptr108drop_in_place$LT$syn..punctuated..Punctuated$LT$syn..expr..GenericMethodArgument$C$syn..token..Comma$GT$$GT$17h92cbabe4862b2183E', symObjAddr: 0x4A0, symBinAddr: 0xC1950, symSize: 0x150 }
  - { offsetInCU: 0x15A23, offset: 0x4229FE, size: 0x8, addend: 0x0, symName: '__ZN4core3ptr126drop_in_place$LT$core..option..Option$LT$$LP$syn..token..And$C$core..option..Option$LT$syn..lifetime..Lifetime$GT$$RP$$GT$$GT$17h5979d670cb45416cE', symObjAddr: 0x5F0, symBinAddr: 0xC1AA0, symSize: 0x30 }
  - { offsetInCU: 0x15C36, offset: 0x422C11, size: 0x8, addend: 0x0, symName: '__ZN4core3ptr34drop_in_place$LT$syn..lit..Lit$GT$17hbe1efe749a08dd9aE', symObjAddr: 0x620, symBinAddr: 0xC1AD0, symSize: 0x110 }
  - { offsetInCU: 0x160E6, offset: 0x4230C1, size: 0x8, addend: 0x0, symName: '__ZN4core3ptr34drop_in_place$LT$syn..pat..Pat$GT$17h3201f642e43ac2a2E.llvm.16532739692444164112', symObjAddr: 0x730, symBinAddr: 0xC1BE0, symSize: 0x1190 }
  - { offsetInCU: 0x19FE0, offset: 0x426FBB, size: 0x8, addend: 0x0, symName: '__ZN4core3ptr34drop_in_place$LT$syn..ty..Type$GT$17hfb5d159a08190130E.llvm.16532739692444164112', symObjAddr: 0x18C0, symBinAddr: 0xC2D70, symSize: 0x580 }
  - { offsetInCU: 0x1B287, offset: 0x428262, size: 0x8, addend: 0x0, symName: '__ZN4core3ptr36drop_in_place$LT$syn..attr..Meta$GT$17ha0d33cab48037a79E', symObjAddr: 0x1E40, symBinAddr: 0xC32F0, symSize: 0x2C0 }
  - { offsetInCU: 0x1C24A, offset: 0x429225, size: 0x8, addend: 0x0, symName: '__ZN4core3ptr36drop_in_place$LT$syn..expr..Expr$GT$17hf1921d1b09462bc3E.llvm.16532739692444164112', symObjAddr: 0x2100, symBinAddr: 0xC35B0, symSize: 0x3290 }
  - { offsetInCU: 0x26ADC, offset: 0x433AB7, size: 0x8, addend: 0x0, symName: '__ZN4core3ptr36drop_in_place$LT$syn..mac..Macro$GT$17h205613d7ad575f72E', symObjAddr: 0x5390, symBinAddr: 0xC6840, symSize: 0x40 }
  - { offsetInCU: 0x26B16, offset: 0x433AF1, size: 0x8, addend: 0x0, symName: '__ZN4core3ptr36drop_in_place$LT$syn..path..Path$GT$17he6d0bec66d66b98aE.llvm.16532739692444164112', symObjAddr: 0x53D0, symBinAddr: 0xC6880, symSize: 0xE0 }
  - { offsetInCU: 0x26E25, offset: 0x433E00, size: 0x8, addend: 0x0, symName: '__ZN4core3ptr37drop_in_place$LT$syn..data..Field$GT$17h6bfcb460cfa4c863E.llvm.16532739692444164112', symObjAddr: 0x54B0, symBinAddr: 0xC6960, symSize: 0x150 }
  - { offsetInCU: 0x27264, offset: 0x43423F, size: 0x8, addend: 0x0, symName: '__ZN4core3ptr37drop_in_place$LT$syn..item..FnArg$GT$17h52a13b3505938de2E.llvm.16532739692444164112', symObjAddr: 0x5600, symBinAddr: 0xC6AB0, symSize: 0x290 }
  - { offsetInCU: 0x27CBC, offset: 0x434C97, size: 0x8, addend: 0x0, symName: '__ZN4core3ptr37drop_in_place$LT$syn..stmt..Block$GT$17h3aa429e75a234230E', symObjAddr: 0x5890, symBinAddr: 0xC6D40, symSize: 0xD0 }
  - { offsetInCU: 0x27F93, offset: 0x434F6E, size: 0x8, addend: 0x0, symName: '__ZN4core3ptr38drop_in_place$LT$syn..expr..Member$GT$17ha113d37a67d27aafE.llvm.16532739692444164112', symObjAddr: 0x5960, symBinAddr: 0xC6E10, symSize: 0x30 }
  - { offsetInCU: 0x2808F, offset: 0x43506A, size: 0x8, addend: 0x0, symName: '__ZN4core3ptr39drop_in_place$LT$proc_macro2..Ident$GT$17hdeec010483268a0dE', symObjAddr: 0x5990, symBinAddr: 0xC6E40, symSize: 0x30 }
  - { offsetInCU: 0x281C9, offset: 0x4351A4, size: 0x8, addend: 0x0, symName: '__ZN4core3ptr39drop_in_place$LT$syn..data..Variant$GT$17hdf59a2045a52b17cE', symObjAddr: 0x59C0, symBinAddr: 0xC6E70, symSize: 0x170 }
  - { offsetInCU: 0x286CA, offset: 0x4356A5, size: 0x8, addend: 0x0, symName: '__ZN4core3ptr39drop_in_place$LT$syn..item..UseTree$GT$17h78d4ed19b48b8cbfE', symObjAddr: 0x5B30, symBinAddr: 0xC6FE0, symSize: 0xE0 }
  - { offsetInCU: 0x28A90, offset: 0x435A6B, size: 0x8, addend: 0x0, symName: '__ZN4core3ptr39drop_in_place$LT$syn..pat..FieldPat$GT$17hbb4451e28b58676aE.llvm.16532739692444164112', symObjAddr: 0x5C10, symBinAddr: 0xC70C0, symSize: 0x150 }
  - { offsetInCU: 0x28FF2, offset: 0x435FCD, size: 0x8, addend: 0x0, symName: '__ZN4core3ptr39drop_in_place$LT$syn..pat..PatTuple$GT$17h96faeea9832d4c4bE', symObjAddr: 0x5D60, symBinAddr: 0xC7210, symSize: 0x100 }
  - { offsetInCU: 0x29339, offset: 0x436314, size: 0x8, addend: 0x0, symName: '__ZN4core3ptr39drop_in_place$LT$syn..ty..BareFnArg$GT$17hed52ce54f3b53a34E.llvm.16532739692444164112', symObjAddr: 0x5E60, symBinAddr: 0xC7310, symSize: 0x120 }
  - { offsetInCU: 0x29746, offset: 0x436721, size: 0x8, addend: 0x0, symName: '__ZN4core3ptr40drop_in_place$LT$syn..ty..ReturnType$GT$17h6f97c9fdb958983eE', symObjAddr: 0x5F80, symBinAddr: 0xC7430, symSize: 0x50 }
  - { offsetInCU: 0x298B6, offset: 0x436891, size: 0x8, addend: 0x0, symName: '__ZN4core3ptr42drop_in_place$LT$syn..attr..NestedMeta$GT$17hb8773e095b93d12eE', symObjAddr: 0x5FD0, symBinAddr: 0xC7480, symSize: 0x30 }
  - { offsetInCU: 0x29911, offset: 0x4368EC, size: 0x8, addend: 0x0, symName: '__ZN4core3ptr42drop_in_place$LT$syn..data..Visibility$GT$17h27e8b6ad307fcbc7E', symObjAddr: 0x6000, symBinAddr: 0xC74B0, symSize: 0x120 }
  - { offsetInCU: 0x29D67, offset: 0x436D42, size: 0x8, addend: 0x0, symName: '__ZN4core3ptr42drop_in_place$LT$syn..expr..FieldValue$GT$17h42a16bcbdc918058E.llvm.16532739692444164112', symObjAddr: 0x6120, symBinAddr: 0xC75D0, symSize: 0x120 }
  - { offsetInCU: 0x2A20E, offset: 0x4371E9, size: 0x8, addend: 0x0, symName: '__ZN4core3ptr43drop_in_place$LT$syn..path..PathSegment$GT$17h3d0f44137dd31bf9E.llvm.16532739692444164112', symObjAddr: 0x6240, symBinAddr: 0xC76F0, symSize: 0x170 }
  - { offsetInCU: 0x2A76E, offset: 0x437749, size: 0x8, addend: 0x0, symName: '__ZN4core3ptr44drop_in_place$LT$syn..lifetime..Lifetime$GT$17h3858225df033648aE.llvm.16532739692444164112', symObjAddr: 0x63B0, symBinAddr: 0xC7860, symSize: 0x30 }
  - { offsetInCU: 0x2A9A0, offset: 0x43797B, size: 0x8, addend: 0x0, symName: '__ZN4core3ptr45drop_in_place$LT$proc_macro2..TokenStream$GT$17h2507cb30e765dc85E', symObjAddr: 0x63E0, symBinAddr: 0xC7890, symSize: 0x140 }
  - { offsetInCU: 0x2ADFC, offset: 0x437DD7, size: 0x8, addend: 0x0, symName: '__ZN4core3ptr47drop_in_place$LT$syn..generics..LifetimeDef$GT$17hd04bc9e6ed9dfb47E.llvm.16532739692444164112', symObjAddr: 0x6520, symBinAddr: 0xC79D0, symSize: 0x120 }
  - { offsetInCU: 0x2B258, offset: 0x438233, size: 0x8, addend: 0x0, symName: '__ZN4core3ptr47drop_in_place$LT$syn..path..GenericArgument$GT$17h8c0a0d8c6deaefb4E.llvm.16532739692444164112', symObjAddr: 0x6640, symBinAddr: 0xC7AF0, symSize: 0x110 }
  - { offsetInCU: 0x2B5EF, offset: 0x4385CA, size: 0x8, addend: 0x0, symName: '__ZN4core3ptr48drop_in_place$LT$syn..generics..GenericParam$GT$17h9292481f35bf25edE.llvm.16532739692444164112', symObjAddr: 0x6750, symBinAddr: 0xC7C00, symSize: 0x300 }
  - { offsetInCU: 0x2BE14, offset: 0x438DEF, size: 0x8, addend: 0x0, symName: '__ZN4core3ptr50drop_in_place$LT$syn..generics..TypeParamBound$GT$17h8d9a306b4a7f920fE.llvm.16532739692444164112', symObjAddr: 0x6A50, symBinAddr: 0xC7F00, symSize: 0x150 }
  - { offsetInCU: 0x2C287, offset: 0x439262, size: 0x8, addend: 0x0, symName: '__ZN4core3ptr50drop_in_place$LT$syn..generics..WherePredicate$GT$17h1fc5b3da95266304E.llvm.16532739692444164112', symObjAddr: 0x6BA0, symBinAddr: 0xC8050, symSize: 0x100 }
  - { offsetInCU: 0x2C40F, offset: 0x4393EA, size: 0x8, addend: 0x0, symName: '__ZN4core3ptr53drop_in_place$LT$syn..expr..GenericMethodArgument$GT$17h74a5a2396c2f7da6E.llvm.16532739692444164112', symObjAddr: 0x6CA0, symBinAddr: 0xC8150, symSize: 0x30 }
  - { offsetInCU: 0x2C42C, offset: 0x439407, size: 0x8, addend: 0x0, symName: '__ZN4core3ptr58drop_in_place$LT$alloc..vec..Vec$LT$syn..expr..Arm$GT$$GT$17hf3db0825f3d9c861E', symObjAddr: 0x6CD0, symBinAddr: 0xC8180, symSize: 0xD0 }
  - { offsetInCU: 0x2C6EC, offset: 0x4396C7, size: 0x8, addend: 0x0, symName: '__ZN4core3ptr59drop_in_place$LT$alloc..boxed..Box$LT$syn..pat..Pat$GT$$GT$17h7037ce9bbd3729c6E.llvm.16532739692444164112', symObjAddr: 0x6DA0, symBinAddr: 0xC8250, symSize: 0x50 }
  - { offsetInCU: 0x2C845, offset: 0x439820, size: 0x8, addend: 0x0, symName: '__ZN4core3ptr59drop_in_place$LT$alloc..boxed..Box$LT$syn..ty..Type$GT$$GT$17h2eccd13329dbe4faE.llvm.16532739692444164112', symObjAddr: 0x6DF0, symBinAddr: 0xC82A0, symSize: 0x50 }
  - { offsetInCU: 0x2C99E, offset: 0x439979, size: 0x8, addend: 0x0, symName: '__ZN4core3ptr61drop_in_place$LT$alloc..boxed..Box$LT$syn..expr..Expr$GT$$GT$17h66094ddc89015516E.llvm.16532739692444164112', symObjAddr: 0x6F10, symBinAddr: 0xC82F0, symSize: 0x50 }
  - { offsetInCU: 0x2CB73, offset: 0x439B4E, size: 0x8, addend: 0x0, symName: '__ZN4core3ptr61drop_in_place$LT$syn..path..ParenthesizedGenericArguments$GT$17h21be9b1d7a6fab55E.llvm.16532739692444164112', symObjAddr: 0x6F60, symBinAddr: 0xC8340, symSize: 0x170 }
  - { offsetInCU: 0x2D17C, offset: 0x43A157, size: 0x8, addend: 0x0, symName: '__ZN4core3ptr63drop_in_place$LT$alloc..boxed..Box$LT$syn..lit..LitRepr$GT$$GT$17h9c509b794406150eE', symObjAddr: 0x7170, symBinAddr: 0xC84B0, symSize: 0x60 }
  - { offsetInCU: 0x2D464, offset: 0x43A43F, size: 0x8, addend: 0x0, symName: '__ZN4core3ptr64drop_in_place$LT$alloc..boxed..Box$LT$syn..item..UseTree$GT$$GT$17h2fbb30105f88b737E', symObjAddr: 0x7220, symBinAddr: 0xC8510, symSize: 0x100 }
  - { offsetInCU: 0x2D992, offset: 0x43A96D, size: 0x8, addend: 0x0, symName: '__ZN4core3ptr64drop_in_place$LT$alloc..boxed..Box$LT$syn..pat..FieldPat$GT$$GT$17hb167b355d0d4733fE', symObjAddr: 0x7320, symBinAddr: 0xC8610, symSize: 0x180 }
  - { offsetInCU: 0x2E071, offset: 0x43B04C, size: 0x8, addend: 0x0, symName: '__ZN4core3ptr64drop_in_place$LT$alloc..boxed..Box$LT$syn..ty..BareFnArg$GT$$GT$17h6488be9448346678E', symObjAddr: 0x74A0, symBinAddr: 0xC8790, symSize: 0x160 }
  - { offsetInCU: 0x2E607, offset: 0x43B5E2, size: 0x8, addend: 0x0, symName: '__ZN4core3ptr65drop_in_place$LT$alloc..vec..Vec$LT$proc_macro..TokenTree$GT$$GT$17hc3670dd5608d5259E', symObjAddr: 0x7600, symBinAddr: 0xC88F0, symSize: 0x110 }
  - { offsetInCU: 0x2E9FF, offset: 0x43B9DA, size: 0x8, addend: 0x0, symName: '__ZN4core3ptr65drop_in_place$LT$core..option..Option$LT$syn..expr..Label$GT$$GT$17ha723640fd01bec5dE', symObjAddr: 0x7710, symBinAddr: 0xC8A00, symSize: 0x30 }
  - { offsetInCU: 0x2EB39, offset: 0x43BB14, size: 0x8, addend: 0x0, symName: '__ZN4core3ptr66drop_in_place$LT$core..option..Option$LT$syn..ty..Variadic$GT$$GT$17hc32134bb3933b0dfE', symObjAddr: 0x7740, symBinAddr: 0xC8A30, symSize: 0xF0 }
  - { offsetInCU: 0x2EE63, offset: 0x43BE3E, size: 0x8, addend: 0x0, symName: '__ZN4core3ptr67drop_in_place$LT$alloc..boxed..Box$LT$syn..attr..NestedMeta$GT$$GT$17hd0c3b988a8621445E', symObjAddr: 0x7830, symBinAddr: 0xC8B20, symSize: 0x70 }
  - { offsetInCU: 0x2EFF8, offset: 0x43BFD3, size: 0x8, addend: 0x0, symName: '__ZN4core3ptr67drop_in_place$LT$alloc..boxed..Box$LT$syn..expr..FieldValue$GT$$GT$17h8df780aa600ea8c2E', symObjAddr: 0x78A0, symBinAddr: 0xC8B90, symSize: 0x160 }
  - { offsetInCU: 0x2F56E, offset: 0x43C549, size: 0x8, addend: 0x0, symName: '__ZN4core3ptr70drop_in_place$LT$$LP$syn..attr..NestedMeta$C$syn..token..Comma$RP$$GT$17he1b545a7aa3daf93E', symObjAddr: 0x7AA0, symBinAddr: 0xC8CF0, symSize: 0x30 }
  - { offsetInCU: 0x2F61A, offset: 0x43C5F5, size: 0x8, addend: 0x0, symName: '__ZN4core3ptr73drop_in_place$LT$alloc..vec..Vec$LT$syn..generics..TypeParamBound$GT$$GT$17h5d27515ea87a306aE.llvm.16532739692444164112', symObjAddr: 0x7CF0, symBinAddr: 0xC8D20, symSize: 0xC0 }
  - { offsetInCU: 0x2F8EB, offset: 0x43C8C6, size: 0x8, addend: 0x0, symName: '__ZN4core3ptr75drop_in_place$LT$alloc..boxed..Box$LT$syn..generics..TypeParamBound$GT$$GT$17h8f156ce07ea0b8b2E', symObjAddr: 0x7DB0, symBinAddr: 0xC8DE0, symSize: 0x90 }
  - { offsetInCU: 0x2FBAE, offset: 0x43CB89, size: 0x8, addend: 0x0, symName: '__ZN4core3ptr78drop_in_place$LT$alloc..boxed..Box$LT$syn..expr..GenericMethodArgument$GT$$GT$17h3384c00b5bd54c2aE', symObjAddr: 0x7E90, symBinAddr: 0xC8E70, symSize: 0x60 }
  - { offsetInCU: 0x2FDBF, offset: 0x43CD9A, size: 0x8, addend: 0x0, symName: '__ZN4core3ptr78drop_in_place$LT$core..option..Option$LT$syn..generics..BoundLifetimes$GT$$GT$17h8175e66ad0c4a156E.llvm.16532739692444164112', symObjAddr: 0x7EF0, symBinAddr: 0xC8ED0, symSize: 0x120 }
  - { offsetInCU: 0x30227, offset: 0x43D202, size: 0x8, addend: 0x0, symName: '__ZN4core3ptr81drop_in_place$LT$$LP$syn..expr..GenericMethodArgument$C$syn..token..Comma$RP$$GT$17h6cb8506ab56d85d6E.llvm.16532739692444164112', symObjAddr: 0x80E0, symBinAddr: 0xC8FF0, symSize: 0x30 }
  - { offsetInCU: 0x30295, offset: 0x43D270, size: 0x8, addend: 0x0, symName: '__ZN4core3ptr82drop_in_place$LT$alloc..vec..Vec$LT$$LP$syn..pat..Pat$C$syn..token..Or$RP$$GT$$GT$17he4f1446f4dd0391dE.llvm.16532739692444164112', symObjAddr: 0x8110, symBinAddr: 0xC9020, symSize: 0x0 }
  - { offsetInCU: 0x3058D, offset: 0x43D568, size: 0x8, addend: 0x0, symName: '__ZN4core3ptr85drop_in_place$LT$alloc..vec..Vec$LT$$LP$syn..ty..Type$C$syn..token..Comma$RP$$GT$$GT$17h2558a6f370e75802E.llvm.16532739692444164112', symObjAddr: 0x81E0, symBinAddr: 0xC90F0, symSize: 0xD0 }
  - { offsetInCU: 0x308BF, offset: 0x43D89A, size: 0x8, addend: 0x0, symName: '__ZN4core3ptr86drop_in_place$LT$syn..punctuated..Punctuated$LT$syn..pat..Pat$C$syn..token..Or$GT$$GT$17h1078c5d178d382b7E', symObjAddr: 0x82B0, symBinAddr: 0xC91C0, symSize: 0x120 }
  - { offsetInCU: 0x30D59, offset: 0x43DD34, size: 0x8, addend: 0x0, symName: '__ZN4core3ptr87drop_in_place$LT$alloc..vec..Vec$LT$$LP$syn..expr..Expr$C$syn..token..Comma$RP$$GT$$GT$17ha5588c79c88b2eb2E.llvm.16532739692444164112', symObjAddr: 0x83D0, symBinAddr: 0xC92E0, symSize: 0xD0 }
  - { offsetInCU: 0x3104D, offset: 0x43E028, size: 0x8, addend: 0x0, symName: '__ZN4core3ptr87drop_in_place$LT$core..option..Option$LT$alloc..boxed..Box$LT$syn..pat..Pat$GT$$GT$$GT$17ha7f5fe0e6f73e820E', symObjAddr: 0x84A0, symBinAddr: 0xC93B0, symSize: 0x50 }
  - { offsetInCU: 0x311BD, offset: 0x43E198, size: 0x8, addend: 0x0, symName: '__ZN4core3ptr87drop_in_place$LT$core..option..Option$LT$alloc..boxed..Box$LT$syn..ty..Type$GT$$GT$$GT$17hc8292da82d129de3E.llvm.16532739692444164112', symObjAddr: 0x84F0, symBinAddr: 0xC9400, symSize: 0x50 }
  - { offsetInCU: 0x3134C, offset: 0x43E327, size: 0x8, addend: 0x0, symName: '__ZN4core3ptr88drop_in_place$LT$alloc..vec..Vec$LT$$LP$syn..data..Field$C$syn..token..Comma$RP$$GT$$GT$17h92f883c9746a1265E.llvm.16532739692444164112', symObjAddr: 0x8540, symBinAddr: 0xC9450, symSize: 0xD0 }
  - { offsetInCU: 0x3165F, offset: 0x43E63A, size: 0x8, addend: 0x0, symName: '__ZN4core3ptr88drop_in_place$LT$alloc..vec..Vec$LT$$LP$syn..item..FnArg$C$syn..token..Comma$RP$$GT$$GT$17h4467406a7c8f89d5E.llvm.16532739692444164112', symObjAddr: 0x8610, symBinAddr: 0xC9520, symSize: 0xD0 }
  - { offsetInCU: 0x3195E, offset: 0x43E939, size: 0x8, addend: 0x0, symName: '__ZN4core3ptr89drop_in_place$LT$core..option..Option$LT$alloc..boxed..Box$LT$syn..expr..Expr$GT$$GT$$GT$17hdc211ccd33f196f2E', symObjAddr: 0x86E0, symBinAddr: 0xC95F0, symSize: 0x50 }
  - { offsetInCU: 0x31B0C, offset: 0x43EAE7, size: 0x8, addend: 0x0, symName: '__ZN4core3ptr89drop_in_place$LT$syn..punctuated..Punctuated$LT$syn..pat..Pat$C$syn..token..Comma$GT$$GT$17hf8371102b0500adcE', symObjAddr: 0x8730, symBinAddr: 0xC9640, symSize: 0x120 }
  - { offsetInCU: 0x31F9E, offset: 0x43EF79, size: 0x8, addend: 0x0, symName: '__ZN4core3ptr89drop_in_place$LT$syn..punctuated..Punctuated$LT$syn..ty..Type$C$syn..token..Comma$GT$$GT$17h1c6e43341fabea97E.llvm.16532739692444164112', symObjAddr: 0x8850, symBinAddr: 0xC9760, symSize: 0x120 }
  - { offsetInCU: 0x32438, offset: 0x43F413, size: 0x8, addend: 0x0, symName: '__ZN4core3ptr90drop_in_place$LT$alloc..vec..Vec$LT$$LP$syn..data..Variant$C$syn..token..Comma$RP$$GT$$GT$17h7886d5ad254619b6E.llvm.16532739692444164112', symObjAddr: 0x8970, symBinAddr: 0xC9880, symSize: 0xD0 }
  - { offsetInCU: 0x3274B, offset: 0x43F726, size: 0x8, addend: 0x0, symName: '__ZN4core3ptr90drop_in_place$LT$alloc..vec..Vec$LT$$LP$syn..item..UseTree$C$syn..token..Comma$RP$$GT$$GT$17hd641cf5199af6a96E.llvm.16532739692444164112', symObjAddr: 0x8A40, symBinAddr: 0xC9950, symSize: 0xC0 }
  - { offsetInCU: 0x32A3D, offset: 0x43FA18, size: 0x8, addend: 0x0, symName: '__ZN4core3ptr90drop_in_place$LT$alloc..vec..Vec$LT$$LP$syn..pat..FieldPat$C$syn..token..Comma$RP$$GT$$GT$17h821f3c6217b2c623E.llvm.16532739692444164112', symObjAddr: 0x8B00, symBinAddr: 0xC9A10, symSize: 0xD0 }
  - { offsetInCU: 0x32CFF, offset: 0x43FCDA, size: 0x8, addend: 0x0, symName: '__ZN4core3ptr90drop_in_place$LT$alloc..vec..Vec$LT$$LP$syn..ty..BareFnArg$C$syn..token..Comma$RP$$GT$$GT$17hb8d63f816cfff9deE.llvm.16532739692444164112', symObjAddr: 0x8BD0, symBinAddr: 0xC9AE0, symSize: 0xD0 }
  - { offsetInCU: 0x32FDE, offset: 0x43FFB9, size: 0x8, addend: 0x0, symName: '__ZN4core3ptr90drop_in_place$LT$core..option..Option$LT$alloc..boxed..Box$LT$syn..data..Field$GT$$GT$$GT$17he146e9f4e32c136fE.llvm.16532739692444164112', symObjAddr: 0x8CA0, symBinAddr: 0xC9BB0, symSize: 0x50 }
  - { offsetInCU: 0x33160, offset: 0x44013B, size: 0x8, addend: 0x0, symName: '__ZN4core3ptr91drop_in_place$LT$syn..punctuated..Punctuated$LT$syn..expr..Expr$C$syn..token..Comma$GT$$GT$17hd2dfeb0c522d9a18E.llvm.16532739692444164112', symObjAddr: 0x8CF0, symBinAddr: 0xC9C00, symSize: 0x120 }
  - { offsetInCU: 0x3360D, offset: 0x4405E8, size: 0x8, addend: 0x0, symName: '__ZN4core3ptr92drop_in_place$LT$core..option..Option$LT$alloc..boxed..Box$LT$syn..data..Variant$GT$$GT$$GT$17h9c9c8f3c1dc56a70E', symObjAddr: 0x8E10, symBinAddr: 0xC9D20, symSize: 0x50 }
  - { offsetInCU: 0x337AE, offset: 0x440789, size: 0x8, addend: 0x0, symName: '__ZN4core3ptr92drop_in_place$LT$syn..punctuated..Punctuated$LT$syn..data..Field$C$syn..token..Comma$GT$$GT$17h907c4fed8ae64bc3E', symObjAddr: 0x8E60, symBinAddr: 0xC9D70, symSize: 0x120 }
  - { offsetInCU: 0x33C3B, offset: 0x440C16, size: 0x8, addend: 0x0, symName: '__ZN4core3ptr93drop_in_place$LT$alloc..vec..Vec$LT$$LP$syn..expr..FieldValue$C$syn..token..Comma$RP$$GT$$GT$17hd798ac33b9d22184E.llvm.16532739692444164112', symObjAddr: 0x9050, symBinAddr: 0xC9E90, symSize: 0xD0 }
  - { offsetInCU: 0x33F1A, offset: 0x440EF5, size: 0x8, addend: 0x0, symName: '__ZN4core3ptr93drop_in_place$LT$alloc..vec..Vec$LT$$LP$syn..lifetime..Lifetime$C$syn..token..Add$RP$$GT$$GT$17hde298d17c652af62E.llvm.16532739692444164112', symObjAddr: 0x9120, symBinAddr: 0xC9F60, symSize: 0x90 }
  - { offsetInCU: 0x341FC, offset: 0x4411D7, size: 0x8, addend: 0x0, symName: '__ZN4core3ptr94drop_in_place$LT$syn..punctuated..Punctuated$LT$syn..data..Variant$C$syn..token..Comma$GT$$GT$17hb4480d65f74dc9d7E', symObjAddr: 0x91B0, symBinAddr: 0xC9FF0, symSize: 0x120 }
  - { offsetInCU: 0x346A8, offset: 0x441683, size: 0x8, addend: 0x0, symName: '__ZN4core3ptr94drop_in_place$LT$syn..punctuated..Punctuated$LT$syn..item..UseTree$C$syn..token..Comma$GT$$GT$17ha837d38586774c87E', symObjAddr: 0x92D0, symBinAddr: 0xCA110, symSize: 0xF0 }
  - { offsetInCU: 0x349EA, offset: 0x4419C5, size: 0x8, addend: 0x0, symName: '__ZN4core3ptr94drop_in_place$LT$syn..punctuated..Punctuated$LT$syn..pat..FieldPat$C$syn..token..Comma$GT$$GT$17h612cbc9066d5afb1E', symObjAddr: 0x93C0, symBinAddr: 0xCA200, symSize: 0xF0 }
  - { offsetInCU: 0x34CE9, offset: 0x441CC4, size: 0x8, addend: 0x0, symName: '__ZN4core3ptr94drop_in_place$LT$syn..punctuated..Punctuated$LT$syn..ty..BareFnArg$C$syn..token..Comma$GT$$GT$17ha9a668ce9972795bE', symObjAddr: 0x94B0, symBinAddr: 0xCA2F0, symSize: 0xF0 }
  - { offsetInCU: 0x34FE6, offset: 0x441FC1, size: 0x8, addend: 0x0, symName: '__ZN4core3ptr95drop_in_place$LT$alloc..vec..Vec$LT$$LP$syn..path..PathSegment$C$syn..token..Colon2$RP$$GT$$GT$17hd4ac5ab6c0f8b220E.llvm.16532739692444164112', symObjAddr: 0x95A0, symBinAddr: 0xCA3E0, symSize: 0xD0 }
  - { offsetInCU: 0x352A8, offset: 0x442283, size: 0x8, addend: 0x0, symName: '__ZN4core3ptr95drop_in_place$LT$core..option..Option$LT$$LP$proc_macro2..Ident$C$syn..token..Colon$RP$$GT$$GT$17h7314df562090eafdE.llvm.16532739692444164112', symObjAddr: 0x9670, symBinAddr: 0xCA4B0, symSize: 0x30 }
  - { offsetInCU: 0x35401, offset: 0x4423DC, size: 0x8, addend: 0x0, symName: '__ZN4core3ptr96drop_in_place$LT$core..option..Option$LT$alloc..boxed..Box$LT$syn..path..PathSegment$GT$$GT$$GT$17h2e81cbe3c70bb71cE.llvm.16532739692444164112', symObjAddr: 0x96A0, symBinAddr: 0xCA4E0, symSize: 0x180 }
  - { offsetInCU: 0x35B3A, offset: 0x442B15, size: 0x8, addend: 0x0, symName: '__ZN4core3ptr97drop_in_place$LT$syn..punctuated..Punctuated$LT$syn..attr..NestedMeta$C$syn..token..Comma$GT$$GT$17h975d4de078ee9c5cE', symObjAddr: 0x9870, symBinAddr: 0xCA660, symSize: 0x140 }
  - { offsetInCU: 0x35FAD, offset: 0x442F88, size: 0x8, addend: 0x0, symName: '__ZN4core3ptr97drop_in_place$LT$syn..punctuated..Punctuated$LT$syn..expr..FieldValue$C$syn..token..Comma$GT$$GT$17h11a5fffb46adfb11E', symObjAddr: 0x99B0, symBinAddr: 0xCA7A0, symSize: 0xF0 }
  - { offsetInCU: 0x362E8, offset: 0x4432C3, size: 0x8, addend: 0x0, symName: '__ZN4core3ptr97drop_in_place$LT$syn..punctuated..Punctuated$LT$syn..lifetime..Lifetime$C$syn..token..Add$GT$$GT$17h5c54dea2c838d109E.llvm.16532739692444164112', symObjAddr: 0x9AA0, symBinAddr: 0xCA890, symSize: 0xD0 }
  - { offsetInCU: 0x3675C, offset: 0x443737, size: 0x8, addend: 0x0, symName: '__ZN4core3ptr98drop_in_place$LT$alloc..vec..Vec$LT$$LP$syn..generics..LifetimeDef$C$syn..token..Comma$RP$$GT$$GT$17h1ff3008828a3546eE.llvm.16532739692444164112', symObjAddr: 0x9B70, symBinAddr: 0xCA960, symSize: 0xC0 }
  - { offsetInCU: 0x36A1A, offset: 0x4439F5, size: 0x8, addend: 0x0, symName: '__ZN4core3ptr98drop_in_place$LT$alloc..vec..Vec$LT$$LP$syn..path..GenericArgument$C$syn..token..Comma$RP$$GT$$GT$17ha8e33b474744c469E.llvm.16532739692444164112', symObjAddr: 0x9C30, symBinAddr: 0xCAA20, symSize: 0xD0 }
  - { offsetInCU: 0x36D56, offset: 0x443D31, size: 0x8, addend: 0x0, symName: '__ZN4core3ptr98drop_in_place$LT$syn..punctuated..IntoPairs$LT$syn..path..PathSegment$C$syn..token..Colon2$GT$$GT$17ha9c816c5dc080402E', symObjAddr: 0x9D00, symBinAddr: 0xCAAF0, symSize: 0x50 }
  - { offsetInCU: 0x36E4B, offset: 0x443E26, size: 0x8, addend: 0x0, symName: '__ZN4core3ptr99drop_in_place$LT$alloc..vec..Vec$LT$$LP$syn..generics..GenericParam$C$syn..token..Comma$RP$$GT$$GT$17h6a63382b7b118436E.llvm.16532739692444164112', symObjAddr: 0x9D50, symBinAddr: 0xCAB40, symSize: 0x60 }
  - { offsetInCU: 0x3708D, offset: 0x444068, size: 0x8, addend: 0x0, symName: '__ZN4core3ptr99drop_in_place$LT$alloc..vec..Vec$LT$$LP$syn..generics..TypeParamBound$C$syn..token..Add$RP$$GT$$GT$17h1faee7dfcf042dc4E.llvm.16532739692444164112', symObjAddr: 0x9DB0, symBinAddr: 0xCABA0, symSize: 0x60 }
  - { offsetInCU: 0x372D9, offset: 0x4442B4, size: 0x8, addend: 0x0, symName: '__ZN4core3ptr99drop_in_place$LT$syn..punctuated..Punctuated$LT$syn..path..PathSegment$C$syn..token..Colon2$GT$$GT$17hb961e4d7989a33ceE', symObjAddr: 0x9E10, symBinAddr: 0xCAC00, symSize: 0x120 }
  - { offsetInCU: 0x40203, offset: 0x44D1DE, size: 0x8, addend: 0x0, symName: __ZN4core4iter6traits10exact_size17ExactSizeIterator8is_empty17h1bc6241bf1888e40E.llvm.16532739692444164112, symObjAddr: 0x9F30, symBinAddr: 0xCAD20, symSize: 0x30 }
  - { offsetInCU: 0x403D4, offset: 0x44D3AF, size: 0x8, addend: 0x0, symName: __ZN4core4iter6traits10exact_size17ExactSizeIterator8is_empty17h79802a601d507adbE.llvm.16532739692444164112, symObjAddr: 0x9F90, symBinAddr: 0xCAD50, symSize: 0x0 }
  - { offsetInCU: 0x4054C, offset: 0x44D527, size: 0x8, addend: 0x0, symName: __ZN4core4iter6traits12double_ended19DoubleEndedIterator15advance_back_by17h5eed97009e157134E.llvm.16532739692444164112, symObjAddr: 0xA070, symBinAddr: 0xCAD80, symSize: 0x0 }
  - { offsetInCU: 0x40794, offset: 0x44D76F, size: 0x8, addend: 0x0, symName: __ZN4core4iter6traits12double_ended19DoubleEndedIterator15advance_back_by17h653dda07e28b399cE.llvm.16532739692444164112, symObjAddr: 0xA0F0, symBinAddr: 0xCAE00, symSize: 0x70 }
  - { offsetInCU: 0x409F9, offset: 0x44D9D4, size: 0x8, addend: 0x0, symName: __ZN4core4iter6traits12double_ended19DoubleEndedIterator8nth_back17h9993a40d5425cb19E.llvm.16532739692444164112, symObjAddr: 0xA310, symBinAddr: 0xCAE70, symSize: 0x0 }
  - { offsetInCU: 0x40ED2, offset: 0x44DEAD, size: 0x8, addend: 0x0, symName: __ZN4core4iter6traits12double_ended19DoubleEndedIterator8nth_back17hed9022273c30defeE.llvm.16532739692444164112, symObjAddr: 0xA3B0, symBinAddr: 0xCAF10, symSize: 0xA0 }
  - { offsetInCU: 0x4136B, offset: 0x44E346, size: 0x8, addend: 0x0, symName: __ZN4core4iter6traits8iterator8Iterator10advance_by17h184fda4dfe2fd7b2E.llvm.16532739692444164112, symObjAddr: 0xA450, symBinAddr: 0xCAFB0, symSize: 0x0 }
  - { offsetInCU: 0x4169E, offset: 0x44E679, size: 0x8, addend: 0x0, symName: __ZN4core4iter6traits8iterator8Iterator10advance_by17he4016f4f7eb36f58E.llvm.16532739692444164112, symObjAddr: 0xA590, symBinAddr: 0xCB020, symSize: 0x60 }
  - { offsetInCU: 0x419F0, offset: 0x44E9CB, size: 0x8, addend: 0x0, symName: __ZN4core4iter6traits8iterator8Iterator3nth17h5c22b47f8967379dE.llvm.16532739692444164112, symObjAddr: 0xA670, symBinAddr: 0xCB080, symSize: 0x0 }
  - { offsetInCU: 0x41FDB, offset: 0x44EFB6, size: 0x8, addend: 0x0, symName: __ZN4core4iter6traits8iterator8Iterator3nth17he19de029313aec56E.llvm.16532739692444164112, symObjAddr: 0xA770, symBinAddr: 0xCB100, symSize: 0x80 }
  - { offsetInCU: 0x42575, offset: 0x44F550, size: 0x8, addend: 0x0, symName: __ZN4core4iter6traits8iterator8Iterator9size_hint17h0104108dabb19d93E.llvm.16532739692444164112, symObjAddr: 0xA7F0, symBinAddr: 0xCB180, symSize: 0x0 }
  - { offsetInCU: 0x44151, offset: 0x45112C, size: 0x8, addend: 0x0, symName: _anon.6d16f1a36471c80d3de82dc9b4f7a556.5.llvm.16532739692444164112, symObjAddr: 0x15610, symBinAddr: 0x2DCD38, symSize: 0x0 }
  - { offsetInCU: 0x44224, offset: 0x4511FF, size: 0x8, addend: 0x0, symName: _anon.6d16f1a36471c80d3de82dc9b4f7a556.7.llvm.16532739692444164112, symObjAddr: 0x156C8, symBinAddr: 0x2DCDF0, symSize: 0x0 }
  - { offsetInCU: 0x46491, offset: 0x45346C, size: 0x8, addend: 0x0, symName: '__ZN3syn10punctuated23Punctuated$LT$T$C$P$GT$4iter17hb5b1f3ac16f65eacE', symObjAddr: 0xAA10, symBinAddr: 0xCB1A0, symSize: 0x70 }
  - { offsetInCU: 0x46E5C, offset: 0x453E37, size: 0x8, addend: 0x0, symName: '__ZN3syn10punctuated23Punctuated$LT$T$C$P$GT$10push_value17h14b7c2c4fe5ffb09E', symObjAddr: 0xAF00, symBinAddr: 0xCB210, symSize: 0xA0 }
  - { offsetInCU: 0x4709B, offset: 0x454076, size: 0x8, addend: 0x0, symName: '__ZN3syn10punctuated23Punctuated$LT$T$C$P$GT$10push_value17h39f3d53d0765bd8bE', symObjAddr: 0xAFA0, symBinAddr: 0xCB2B0, symSize: 0x0 }
  - { offsetInCU: 0x472CE, offset: 0x4542A9, size: 0x8, addend: 0x0, symName: '__ZN3syn10punctuated23Punctuated$LT$T$C$P$GT$10push_value17h3ebbefe6892129a3E', symObjAddr: 0xB070, symBinAddr: 0xCB380, symSize: 0xA0 }
  - { offsetInCU: 0x47500, offset: 0x4544DB, size: 0x8, addend: 0x0, symName: '__ZN3syn10punctuated23Punctuated$LT$T$C$P$GT$10push_value17h6654a5202d87b9adE', symObjAddr: 0xB110, symBinAddr: 0xCB420, symSize: 0xD0 }
  - { offsetInCU: 0x47733, offset: 0x45470E, size: 0x8, addend: 0x0, symName: '__ZN3syn10punctuated23Punctuated$LT$T$C$P$GT$10push_value17h68728aa7418e1828E', symObjAddr: 0xB1E0, symBinAddr: 0xCB4F0, symSize: 0xE0 }
  - { offsetInCU: 0x47A70, offset: 0x454A4B, size: 0x8, addend: 0x0, symName: '__ZN3syn10punctuated23Punctuated$LT$T$C$P$GT$10push_value17h734c18a193061288E', symObjAddr: 0xB2C0, symBinAddr: 0xCB5D0, symSize: 0xD0 }
  - { offsetInCU: 0x47C95, offset: 0x454C70, size: 0x8, addend: 0x0, symName: '__ZN3syn10punctuated23Punctuated$LT$T$C$P$GT$10push_value17h738c10366c9a624bE', symObjAddr: 0xB390, symBinAddr: 0xCB6A0, symSize: 0xD0 }
  - { offsetInCU: 0x47EC8, offset: 0x454EA3, size: 0x8, addend: 0x0, symName: '__ZN3syn10punctuated23Punctuated$LT$T$C$P$GT$10push_value17h8a453bad6a782ffeE', symObjAddr: 0xB460, symBinAddr: 0xCB770, symSize: 0xD0 }
  - { offsetInCU: 0x480EE, offset: 0x4550C9, size: 0x8, addend: 0x0, symName: '__ZN3syn10punctuated23Punctuated$LT$T$C$P$GT$10push_value17h958c5485234fa2d2E', symObjAddr: 0xB530, symBinAddr: 0xCB840, symSize: 0xA0 }
  - { offsetInCU: 0x4833A, offset: 0x455315, size: 0x8, addend: 0x0, symName: '__ZN3syn10punctuated23Punctuated$LT$T$C$P$GT$10push_value17ha121070897ba71bbE', symObjAddr: 0xB5D0, symBinAddr: 0xCB8E0, symSize: 0xD0 }
  - { offsetInCU: 0x4856D, offset: 0x455548, size: 0x8, addend: 0x0, symName: '__ZN3syn10punctuated23Punctuated$LT$T$C$P$GT$10push_value17hc23a986ec6344064E', symObjAddr: 0xB6A0, symBinAddr: 0xCB9B0, symSize: 0xD0 }
  - { offsetInCU: 0x4879F, offset: 0x45577A, size: 0x8, addend: 0x0, symName: '__ZN3syn10punctuated23Punctuated$LT$T$C$P$GT$10push_value17hc8fea27b62230799E', symObjAddr: 0xB770, symBinAddr: 0xCBA80, symSize: 0xD0 }
  - { offsetInCU: 0x489D2, offset: 0x4559AD, size: 0x8, addend: 0x0, symName: '__ZN3syn10punctuated23Punctuated$LT$T$C$P$GT$10push_value17hd58984c4db98708fE', symObjAddr: 0xB840, symBinAddr: 0xCBB50, symSize: 0xD0 }
  - { offsetInCU: 0x48C05, offset: 0x455BE0, size: 0x8, addend: 0x0, symName: '__ZN3syn10punctuated23Punctuated$LT$T$C$P$GT$10push_value17he9d5642b6abab872E', symObjAddr: 0xB910, symBinAddr: 0xCBC20, symSize: 0xD0 }
  - { offsetInCU: 0x48E61, offset: 0x455E3C, size: 0x8, addend: 0x0, symName: '__ZN3syn10punctuated23Punctuated$LT$T$C$P$GT$10push_punct17h05097ced3e641863E', symObjAddr: 0xB9E0, symBinAddr: 0xCBCF0, symSize: 0xE0 }
  - { offsetInCU: 0x49212, offset: 0x4561ED, size: 0x8, addend: 0x0, symName: '__ZN3syn10punctuated23Punctuated$LT$T$C$P$GT$10push_punct17h11ba52321bf5bea8E', symObjAddr: 0xBAC0, symBinAddr: 0xCBDD0, symSize: 0xE0 }
  - { offsetInCU: 0x495E3, offset: 0x4565BE, size: 0x8, addend: 0x0, symName: '__ZN3syn10punctuated23Punctuated$LT$T$C$P$GT$10push_punct17h2dceda0901d1267aE', symObjAddr: 0xBBA0, symBinAddr: 0xCBEB0, symSize: 0xE0 }
  - { offsetInCU: 0x499B4, offset: 0x45698F, size: 0x8, addend: 0x0, symName: '__ZN3syn10punctuated23Punctuated$LT$T$C$P$GT$10push_punct17h30da73095861d121E', symObjAddr: 0xBC80, symBinAddr: 0xCBF90, symSize: 0xE0 }
  - { offsetInCU: 0x49DD3, offset: 0x456DAE, size: 0x8, addend: 0x0, symName: '__ZN3syn10punctuated23Punctuated$LT$T$C$P$GT$10push_punct17h400c66537f83dc5bE', symObjAddr: 0xBD60, symBinAddr: 0xCC070, symSize: 0x120 }
  - { offsetInCU: 0x4A304, offset: 0x4572DF, size: 0x8, addend: 0x0, symName: '__ZN3syn10punctuated23Punctuated$LT$T$C$P$GT$10push_punct17h500d37b1c0505005E', symObjAddr: 0xBE80, symBinAddr: 0xCC190, symSize: 0xE0 }
  - { offsetInCU: 0x4A6D5, offset: 0x4576B0, size: 0x8, addend: 0x0, symName: '__ZN3syn10punctuated23Punctuated$LT$T$C$P$GT$10push_punct17h53a23ce0aae9ffc1E', symObjAddr: 0xBF60, symBinAddr: 0xCC270, symSize: 0xC0 }
  - { offsetInCU: 0x4AA99, offset: 0x457A74, size: 0x8, addend: 0x0, symName: '__ZN3syn10punctuated23Punctuated$LT$T$C$P$GT$10push_punct17h70a79c86c88cff65E', symObjAddr: 0xC020, symBinAddr: 0xCC330, symSize: 0xC0 }
  - { offsetInCU: 0x4AE77, offset: 0x457E52, size: 0x8, addend: 0x0, symName: '__ZN3syn10punctuated23Punctuated$LT$T$C$P$GT$10push_punct17h79f957a4f7bfa4bdE', symObjAddr: 0xC0E0, symBinAddr: 0xCC3F0, symSize: 0xD0 }
  - { offsetInCU: 0x4B248, offset: 0x458223, size: 0x8, addend: 0x0, symName: '__ZN3syn10punctuated23Punctuated$LT$T$C$P$GT$10push_punct17h9ff63fe42d8a305bE', symObjAddr: 0xC1B0, symBinAddr: 0xCC4C0, symSize: 0xE0 }
  - { offsetInCU: 0x4B619, offset: 0x4585F4, size: 0x8, addend: 0x0, symName: '__ZN3syn10punctuated23Punctuated$LT$T$C$P$GT$10push_punct17haa5636a409edefeeE', symObjAddr: 0xC290, symBinAddr: 0xCC5A0, symSize: 0xE0 }
  - { offsetInCU: 0x4B9EA, offset: 0x4589C5, size: 0x8, addend: 0x0, symName: '__ZN3syn10punctuated23Punctuated$LT$T$C$P$GT$10push_punct17had77e3ca97751ca0E', symObjAddr: 0xC370, symBinAddr: 0xCC680, symSize: 0x100 }
  - { offsetInCU: 0x4BDBB, offset: 0x458D96, size: 0x8, addend: 0x0, symName: '__ZN3syn10punctuated23Punctuated$LT$T$C$P$GT$10push_punct17hd1e26f9cc5ff1a0fE', symObjAddr: 0xC470, symBinAddr: 0xCC780, symSize: 0xD0 }
  - { offsetInCU: 0x4C199, offset: 0x459174, size: 0x8, addend: 0x0, symName: '__ZN3syn10punctuated23Punctuated$LT$T$C$P$GT$10push_punct17hd921c69c8d719ce4E', symObjAddr: 0xC540, symBinAddr: 0xCC850, symSize: 0xE0 }
  - { offsetInCU: 0x4C55D, offset: 0x459538, size: 0x8, addend: 0x0, symName: '__ZN3syn10punctuated23Punctuated$LT$T$C$P$GT$10push_punct17he79340c1cde0cc34E', symObjAddr: 0xC620, symBinAddr: 0xCC930, symSize: 0xE0 }
  - { offsetInCU: 0x4C921, offset: 0x4598FC, size: 0x8, addend: 0x0, symName: '__ZN3syn10punctuated23Punctuated$LT$T$C$P$GT$10push_punct17hec278db3946341f0E', symObjAddr: 0xC700, symBinAddr: 0xCCA10, symSize: 0xE0 }
  - { offsetInCU: 0x4CDA1, offset: 0x459D7C, size: 0x8, addend: 0x0, symName: '__ZN3syn10punctuated23Punctuated$LT$T$C$P$GT$3pop17h5d3ca22f68e5e0caE', symObjAddr: 0xC7E0, symBinAddr: 0xCCAF0, symSize: 0x90 }
  - { offsetInCU: 0x4D18F, offset: 0x45A16A, size: 0x8, addend: 0x0, symName: '__ZN3syn10punctuated23Punctuated$LT$T$C$P$GT$4push17hcfa9ee726330b377E', symObjAddr: 0xC870, symBinAddr: 0xCCB80, symSize: 0x130 }
  - { offsetInCU: 0x4D4FF, offset: 0x45A4DA, size: 0x8, addend: 0x0, symName: '__ZN3syn10punctuated23Punctuated$LT$T$C$P$GT$6insert17h4136fb255bf8292aE', symObjAddr: 0xC9A0, symBinAddr: 0xCCCB0, symSize: 0x170 }
  - { offsetInCU: 0x4D8E8, offset: 0x45A8C3, size: 0x8, addend: 0x0, symName: '__ZN3syn10punctuated23Punctuated$LT$T$C$P$GT$5clear17h2c657785aa52c10eE', symObjAddr: 0xCB10, symBinAddr: 0xCCE20, symSize: 0xA0 }
  - { offsetInCU: 0x4DD09, offset: 0x45ACE4, size: 0x8, addend: 0x0, symName: '__ZN3syn10punctuated23Punctuated$LT$T$C$P$GT$21parse_terminated_with17h0d42de968702d743E', symObjAddr: 0xCBB0, symBinAddr: 0xCCEC0, symSize: 0x320 }
  - { offsetInCU: 0x4E6D9, offset: 0x45B6B4, size: 0x8, addend: 0x0, symName: '__ZN3syn10punctuated23Punctuated$LT$T$C$P$GT$21parse_terminated_with17h3502cbc50f6e66fbE', symObjAddr: 0xCED0, symBinAddr: 0xCD1E0, symSize: 0x340 }
  - { offsetInCU: 0x4F086, offset: 0x45C061, size: 0x8, addend: 0x0, symName: '__ZN3syn10punctuated23Punctuated$LT$T$C$P$GT$21parse_terminated_with17h5843760d31b55a9fE', symObjAddr: 0xD3E0, symBinAddr: 0xCD520, symSize: 0x330 }
  - { offsetInCU: 0x4FAD6, offset: 0x45CAB1, size: 0x8, addend: 0x0, symName: '__ZN3syn10punctuated23Punctuated$LT$T$C$P$GT$21parse_terminated_with17ha0e926b3a5c69310E', symObjAddr: 0xD8E0, symBinAddr: 0xCD850, symSize: 0x420 }
  - { offsetInCU: 0x2340, offset: 0x466304, size: 0x8, addend: 0x0, symName: '__ZN3syn4expr8printing82_$LT$impl$u20$quote..to_tokens..ToTokens$u20$for$u20$syn..expr..ExprMethodCall$GT$9to_tokens17h52deca7c2bdcde8fE', symObjAddr: 0x11080, symBinAddr: 0xDD2A0, symSize: 0x260 }
  - { offsetInCU: 0x2E12, offset: 0x466DD6, size: 0x8, addend: 0x0, symName: '__ZN3syn4expr8printing77_$LT$impl$u20$quote..to_tokens..ToTokens$u20$for$u20$syn..expr..ExprWhile$GT$9to_tokens17hb73b17451a9f393bE', symObjAddr: 0x11DD0, symBinAddr: 0xDD500, symSize: 0x220 }
  - { offsetInCU: 0x350A, offset: 0x4674CE, size: 0x8, addend: 0x0, symName: '__ZN3syn4expr8printing79_$LT$impl$u20$quote..to_tokens..ToTokens$u20$for$u20$syn..expr..ExprForLoop$GT$9to_tokens17hc158e0517546c263E', symObjAddr: 0x11FF0, symBinAddr: 0xDD720, symSize: 0x2A0 }
  - { offsetInCU: 0x3E39, offset: 0x467DFD, size: 0x8, addend: 0x0, symName: '__ZN3syn4expr8printing79_$LT$impl$u20$quote..to_tokens..ToTokens$u20$for$u20$syn..expr..ExprClosure$GT$9to_tokens17h02addd229d205f12E', symObjAddr: 0x12C10, symBinAddr: 0xDD9C0, symSize: 0x350 }
  - { offsetInCU: 0x4B75, offset: 0x468B39, size: 0x8, addend: 0x0, symName: '__ZN3syn4expr8printing74_$LT$impl$u20$quote..to_tokens..ToTokens$u20$for$u20$syn..expr..Member$GT$9to_tokens17hc47f96e76f134d40E', symObjAddr: 0x134F0, symBinAddr: 0xDDD10, symSize: 0xC0 }
  - { offsetInCU: 0x4E42, offset: 0x468E06, size: 0x8, addend: 0x0, symName: '__ZN3syn4expr8printing73_$LT$impl$u20$quote..to_tokens..ToTokens$u20$for$u20$syn..expr..Index$GT$9to_tokens17h24b137fc9fb1190eE', symObjAddr: 0x135B0, symBinAddr: 0xDDDD0, symSize: 0xB0 }
  - { offsetInCU: 0x53B9, offset: 0x46937D, size: 0x8, addend: 0x0, symName: '__ZN3syn4expr8printing78_$LT$impl$u20$quote..to_tokens..ToTokens$u20$for$u20$syn..expr..FieldValue$GT$9to_tokens17hca3924738fecf8aaE', symObjAddr: 0x14670, symBinAddr: 0xDDE80, symSize: 0x1C0 }
  - { offsetInCU: 0x5A48, offset: 0x469A0C, size: 0x8, addend: 0x0, symName: '__ZN3syn4expr8printing71_$LT$impl$u20$quote..to_tokens..ToTokens$u20$for$u20$syn..expr..Arm$GT$9to_tokens17hfe03b45f4f23e934E', symObjAddr: 0x14830, symBinAddr: 0xDE040, symSize: 0x1D0 }
  - { offsetInCU: 0x5E83, offset: 0x469E47, size: 0x8, addend: 0x0, symName: '__ZN3syn4expr7parsing63_$LT$impl$u20$syn..parse..Parse$u20$for$u20$syn..expr..Expr$GT$5parse17hc5dd14a6ed6ae10aE', symObjAddr: 0xA160, symBinAddr: 0xD7440, symSize: 0xF0 }
  - { offsetInCU: 0x5F33, offset: 0x469EF7, size: 0x8, addend: 0x0, symName: '__ZN3syn4expr7parsing66_$LT$impl$u20$syn..parse..Parse$u20$for$u20$syn..expr..ExprLit$GT$5parse17hcc638e3114e2713bE', symObjAddr: 0xAB80, symBinAddr: 0xD7530, symSize: 0xF0 }
  - { offsetInCU: 0x6046, offset: 0x46A00A, size: 0x8, addend: 0x0, symName: '__ZN3syn4expr7parsing80_$LT$impl$u20$syn..parse..Parse$u20$for$u20$syn..expr..GenericMethodArgument$GT$5parse17h9e0e87e386c05d46E', symObjAddr: 0xAC90, symBinAddr: 0xD7620, symSize: 0x2E0 }
  - { offsetInCU: 0x63E5, offset: 0x46A3A9, size: 0x8, addend: 0x0, symName: '__ZN3syn4expr7parsing74_$LT$impl$u20$syn..parse..Parse$u20$for$u20$syn..expr..MethodTurbofish$GT$5parse17hc687ec8e69e7b20fE', symObjAddr: 0xAF70, symBinAddr: 0xD7900, symSize: 0x350 }
  - { offsetInCU: 0x68F5, offset: 0x46A8B9, size: 0x8, addend: 0x0, symName: '__ZN3syn4expr7parsing66_$LT$impl$u20$syn..parse..Parse$u20$for$u20$syn..expr..ExprLet$GT$5parse17hb569fb53f5daeca8E', symObjAddr: 0xB2C0, symBinAddr: 0xD7C50, symSize: 0x4C0 }
  - { offsetInCU: 0x6E9A, offset: 0x46AE5E, size: 0x8, addend: 0x0, symName: '__ZN3syn4expr7parsing65_$LT$impl$u20$syn..parse..Parse$u20$for$u20$syn..expr..ExprIf$GT$5parse17hc3bbb8a442518a70E', symObjAddr: 0xB780, symBinAddr: 0xD8110, symSize: 0x700 }
  - { offsetInCU: 0x7848, offset: 0x46B80C, size: 0x8, addend: 0x0, symName: '__ZN3syn4expr7parsing70_$LT$impl$u20$syn..parse..Parse$u20$for$u20$syn..expr..ExprForLoop$GT$5parse17h70f397294e42a49dE', symObjAddr: 0xBE80, symBinAddr: 0xD8810, symSize: 0xA40 }
  - { offsetInCU: 0x871A, offset: 0x46C6DE, size: 0x8, addend: 0x0, symName: '__ZN3syn4expr7parsing67_$LT$impl$u20$syn..parse..Parse$u20$for$u20$syn..expr..ExprLoop$GT$5parse17h2feb6f1c5e586e7dE', symObjAddr: 0xC8C0, symBinAddr: 0xD9250, symSize: 0x560 }
  - { offsetInCU: 0x9415, offset: 0x46D3D9, size: 0x8, addend: 0x0, symName: '__ZN3syn4expr7parsing68_$LT$impl$u20$syn..parse..Parse$u20$for$u20$syn..expr..ExprMatch$GT$5parse17hd6f41d4fa4c8de12E', symObjAddr: 0xCE20, symBinAddr: 0xD97B0, symSize: 0x820 }
  - { offsetInCU: 0xA364, offset: 0x46E328, size: 0x8, addend: 0x0, symName: '__ZN3syn4expr7parsing71_$LT$impl$u20$syn..parse..Parse$u20$for$u20$syn..expr..ExprTryBlock$GT$5parse17h5554543154d3c4b6E', symObjAddr: 0xD9A0, symBinAddr: 0xD9FD0, symSize: 0x140 }
  - { offsetInCU: 0xA4F6, offset: 0x46E4BA, size: 0x8, addend: 0x0, symName: '__ZN3syn4expr7parsing68_$LT$impl$u20$syn..parse..Parse$u20$for$u20$syn..expr..ExprYield$GT$5parse17hc3f7685155a8ca99E', symObjAddr: 0xDAE0, symBinAddr: 0xDA110, symSize: 0x150 }
  - { offsetInCU: 0xA87B, offset: 0x46E83F, size: 0x8, addend: 0x0, symName: '__ZN3syn4expr7parsing68_$LT$impl$u20$syn..parse..Parse$u20$for$u20$syn..expr..ExprAsync$GT$5parse17he43ed43a6e470a06E', symObjAddr: 0xDC30, symBinAddr: 0xDA260, symSize: 0x1D0 }
  - { offsetInCU: 0xAB90, offset: 0x46EB54, size: 0x8, addend: 0x0, symName: '__ZN3syn4expr7parsing68_$LT$impl$u20$syn..parse..Parse$u20$for$u20$syn..expr..ExprWhile$GT$5parse17h94fbc04744e04bd5E', symObjAddr: 0xDE00, symBinAddr: 0xDA430, symSize: 0x8A0 }
  - { offsetInCU: 0xB8B4, offset: 0x46F878, size: 0x8, addend: 0x0, symName: '__ZN3syn4expr7parsing64_$LT$impl$u20$syn..parse..Parse$u20$for$u20$syn..expr..Label$GT$5parse17h4b99929e595412a8E', symObjAddr: 0xE6A0, symBinAddr: 0xDACD0, symSize: 0x230 }
  - { offsetInCU: 0xBD6E, offset: 0x46FD32, size: 0x8, addend: 0x0, symName: '__ZN3syn4expr7parsing71_$LT$impl$u20$syn..parse..Parse$u20$for$u20$syn..expr..ExprContinue$GT$5parse17hd8b0e00434855c5dE', symObjAddr: 0xE8D0, symBinAddr: 0xDAF00, symSize: 0x1B0 }
  - { offsetInCU: 0xBEF1, offset: 0x46FEB5, size: 0x8, addend: 0x0, symName: '__ZN3syn4expr7parsing69_$LT$impl$u20$syn..parse..Parse$u20$for$u20$syn..expr..FieldValue$GT$5parse17h789c7fa607c23413E', symObjAddr: 0xEA80, symBinAddr: 0xDB0B0, symSize: 0x6D0 }
  - { offsetInCU: 0xC9B0, offset: 0x470974, size: 0x8, addend: 0x0, symName: '__ZN3syn4expr7parsing69_$LT$impl$u20$syn..parse..Parse$u20$for$u20$syn..expr..ExprUnsafe$GT$5parse17ha2c47789b9924b10E', symObjAddr: 0xF210, symBinAddr: 0xDB780, symSize: 0x3A0 }
  - { offsetInCU: 0xD1F4, offset: 0x4711B8, size: 0x8, addend: 0x0, symName: '__ZN3syn4expr7parsing68_$LT$impl$u20$syn..parse..Parse$u20$for$u20$syn..expr..ExprBlock$GT$5parse17h5f8eacd79eed7a3aE', symObjAddr: 0xF5B0, symBinAddr: 0xDBB20, symSize: 0x540 }
  - { offsetInCU: 0xDEE2, offset: 0x471EA6, size: 0x8, addend: 0x0, symName: '__ZN3syn4expr7parsing70_$LT$impl$u20$syn..parse..Parse$u20$for$u20$syn..expr..RangeLimits$GT$5parse17h55d2abebfdd8f5b2E', symObjAddr: 0xFAF0, symBinAddr: 0xDC060, symSize: 0x330 }
  - { offsetInCU: 0xED9F, offset: 0x472D63, size: 0x8, addend: 0x0, symName: '__ZN3syn4expr7parsing67_$LT$impl$u20$syn..parse..Parse$u20$for$u20$syn..expr..ExprPath$GT$5parse17h5999d7526d4caa01E', symObjAddr: 0xFE20, symBinAddr: 0xDC390, symSize: 0x270 }
  - { offsetInCU: 0xF1ED, offset: 0x4731B1, size: 0x8, addend: 0x0, symName: '__ZN3syn4expr7parsing65_$LT$impl$u20$syn..parse..Parse$u20$for$u20$syn..expr..Member$GT$5parse17h3c1f6e1ffd72b36eE', symObjAddr: 0x10090, symBinAddr: 0xDC600, symSize: 0xE0 }
  - { offsetInCU: 0xF45E, offset: 0x473422, size: 0x8, addend: 0x0, symName: '__ZN3syn4expr7parsing62_$LT$impl$u20$syn..parse..Parse$u20$for$u20$syn..expr..Arm$GT$5parse17h4853f2ad1c1812eeE', symObjAddr: 0x10170, symBinAddr: 0xDC6E0, symSize: 0xA40 }
  - { offsetInCU: 0x1039B, offset: 0x47435F, size: 0x8, addend: 0x0, symName: '__ZN3syn4expr7parsing64_$LT$impl$u20$syn..parse..Parse$u20$for$u20$syn..expr..Index$GT$5parse17hde4030d96c40375eE', symObjAddr: 0x10BB0, symBinAddr: 0xDD120, symSize: 0x180 }
  - { offsetInCU: 0x10A24, offset: 0x4749E8, size: 0x8, addend: 0x0, symName: '__ZN62_$LT$syn..expr..Expr$u20$as$u20$quote..to_tokens..ToTokens$GT$9to_tokens17h26366c1ee5ef5979E', symObjAddr: 0x14A00, symBinAddr: 0xDE210, symSize: 0x2820 }
  - { offsetInCU: 0x1DB91, offset: 0x481B55, size: 0x8, addend: 0x0, symName: '__ZN3syn3gen5clone63_$LT$impl$u20$core..clone..Clone$u20$for$u20$syn..expr..Arm$GT$5clone17head7f5f2381c2f20E', symObjAddr: 0x1E2C0, symBinAddr: 0xE0A30, symSize: 0x1F0 }
  - { offsetInCU: 0x1E530, offset: 0x4824F4, size: 0x8, addend: 0x0, symName: '__ZN3syn3gen5clone64_$LT$impl$u20$core..clone..Clone$u20$for$u20$syn..expr..Expr$GT$5clone17h8dc5de0cb7452941E', symObjAddr: 0x1E4B0, symBinAddr: 0xE0C20, symSize: 0x2100 }
  - { offsetInCU: 0x22D67, offset: 0x486D2B, size: 0x8, addend: 0x0, symName: '__ZN3syn3gen5clone69_$LT$impl$u20$core..clone..Clone$u20$for$u20$syn..expr..ExprBlock$GT$5clone17ha50b14e34c23c7c7E', symObjAddr: 0x20AD0, symBinAddr: 0xE2D20, symSize: 0x130 }
  - { offsetInCU: 0x23020, offset: 0x486FE4, size: 0x8, addend: 0x0, symName: '__ZN3syn3gen5clone69_$LT$impl$u20$core..clone..Clone$u20$for$u20$syn..expr..ExprBreak$GT$5clone17hf7f419b5514dda66E', symObjAddr: 0x20CE0, symBinAddr: 0xE2E50, symSize: 0x1A0 }
  - { offsetInCU: 0x234D1, offset: 0x487495, size: 0x8, addend: 0x0, symName: '__ZN3syn3gen5clone71_$LT$impl$u20$core..clone..Clone$u20$for$u20$syn..expr..ExprClosure$GT$5clone17ha4bc3a4adb677c0bE', symObjAddr: 0x21130, symBinAddr: 0xE2FF0, symSize: 0x240 }
  - { offsetInCU: 0x23A8A, offset: 0x487A4E, size: 0x8, addend: 0x0, symName: '__ZN3syn3gen5clone71_$LT$impl$u20$core..clone..Clone$u20$for$u20$syn..expr..ExprForLoop$GT$5clone17hb2e9cd210a53c157E', symObjAddr: 0x21580, symBinAddr: 0xE3230, symSize: 0x270 }
  - { offsetInCU: 0x23FC5, offset: 0x487F89, size: 0x8, addend: 0x0, symName: '__ZN3syn3gen5clone66_$LT$impl$u20$core..clone..Clone$u20$for$u20$syn..expr..ExprIf$GT$5clone17habee9e19780c03d0E', symObjAddr: 0x217F0, symBinAddr: 0xE34A0, symSize: 0x1D0 }
  - { offsetInCU: 0x244E7, offset: 0x4884AB, size: 0x8, addend: 0x0, symName: '__ZN3syn3gen5clone68_$LT$impl$u20$core..clone..Clone$u20$for$u20$syn..expr..ExprLoop$GT$5clone17hbfc8e04a26dc7d1cE', symObjAddr: 0x21CF0, symBinAddr: 0xE3670, symSize: 0x140 }
  - { offsetInCU: 0x247DA, offset: 0x48879E, size: 0x8, addend: 0x0, symName: '__ZN3syn3gen5clone74_$LT$impl$u20$core..clone..Clone$u20$for$u20$syn..expr..ExprMethodCall$GT$5clone17h19dd05a260dc7f51E', symObjAddr: 0x22000, symBinAddr: 0xE37B0, symSize: 0x400 }
  - { offsetInCU: 0x251B0, offset: 0x489174, size: 0x8, addend: 0x0, symName: '__ZN3syn3gen5clone68_$LT$impl$u20$core..clone..Clone$u20$for$u20$syn..expr..ExprPath$GT$5clone17hf4002bcc8fbcc188E', symObjAddr: 0x22400, symBinAddr: 0xE3BB0, symSize: 0x1B0 }
  - { offsetInCU: 0x2551D, offset: 0x4894E1, size: 0x8, addend: 0x0, symName: '__ZN3syn3gen5clone69_$LT$impl$u20$core..clone..Clone$u20$for$u20$syn..expr..ExprRange$GT$5clone17hd8f8dbfaae951ec7E', symObjAddr: 0x225B0, symBinAddr: 0xE3D60, symSize: 0x1A0 }
  - { offsetInCU: 0x25A2A, offset: 0x4899EE, size: 0x8, addend: 0x0, symName: '__ZN3syn3gen5clone70_$LT$impl$u20$core..clone..Clone$u20$for$u20$syn..expr..ExprStruct$GT$5clone17h0216c4a487034cceE', symObjAddr: 0x229D0, symBinAddr: 0xE3F00, symSize: 0x270 }
  - { offsetInCU: 0x25FB4, offset: 0x489F78, size: 0x8, addend: 0x0, symName: '__ZN3syn3gen5clone69_$LT$impl$u20$core..clone..Clone$u20$for$u20$syn..expr..ExprWhile$GT$5clone17h9117bae495ae712bE', symObjAddr: 0x23010, symBinAddr: 0xE4170, symSize: 0x1F0 }
  - { offsetInCU: 0x264C0, offset: 0x48A484, size: 0x8, addend: 0x0, symName: '__ZN3syn3gen5clone70_$LT$impl$u20$core..clone..Clone$u20$for$u20$syn..expr..FieldValue$GT$5clone17hca1e6a1a3e6abb5fE', symObjAddr: 0x232F0, symBinAddr: 0xE4360, symSize: 0x150 }
  - { offsetInCU: 0x2895E, offset: 0x48C922, size: 0x8, addend: 0x0, symName: '__ZN4core3ptr100drop_in_place$LT$core..option..Option$LT$alloc..boxed..Box$LT$syn..generics..LifetimeDef$GT$$GT$$GT$17h75a6086997697dd7E', symObjAddr: 0x300, symBinAddr: 0xCF5D0, symSize: 0x150 }
  - { offsetInCU: 0x28EDA, offset: 0x48CE9E, size: 0x8, addend: 0x0, symName: '__ZN4core3ptr100drop_in_place$LT$core..option..Option$LT$alloc..boxed..Box$LT$syn..path..GenericArgument$GT$$GT$$GT$17h3d29ec00a8f1918dE', symObjAddr: 0x450, symBinAddr: 0xCF720, symSize: 0x50 }
  - { offsetInCU: 0x29123, offset: 0x48D0E7, size: 0x8, addend: 0x0, symName: '__ZN4core3ptr103drop_in_place$LT$syn..punctuated..Punctuated$LT$syn..generics..TypeParamBound$C$syn..token..Add$GT$$GT$17he811d520c92af08aE', symObjAddr: 0x4A0, symBinAddr: 0xCF770, symSize: 0xF0 }
  - { offsetInCU: 0x29692, offset: 0x48D656, size: 0x8, addend: 0x0, symName: '__ZN4core3ptr106drop_in_place$LT$core..option..Option$LT$alloc..boxed..Box$LT$syn..expr..GenericMethodArgument$GT$$GT$$GT$17h96ed0a5acdf7b53bE', symObjAddr: 0x590, symBinAddr: 0xCF860, symSize: 0x70 }
  - { offsetInCU: 0x29876, offset: 0x48D83A, size: 0x8, addend: 0x0, symName: '__ZN4core3ptr108drop_in_place$LT$syn..punctuated..Punctuated$LT$syn..expr..GenericMethodArgument$C$syn..token..Comma$GT$$GT$17h92cbabe4862b2183E', symObjAddr: 0x600, symBinAddr: 0xCF8D0, symSize: 0x150 }
  - { offsetInCU: 0x29D29, offset: 0x48DCED, size: 0x8, addend: 0x0, symName: '__ZN4core3ptr114drop_in_place$LT$core..option..Option$LT$$LP$syn..token..If$C$alloc..boxed..Box$LT$syn..expr..Expr$GT$$RP$$GT$$GT$17hf2aa3e1ea6c77ac4E.llvm.8444515518860579797', symObjAddr: 0x750, symBinAddr: 0xCFA20, symSize: 0x50 }
  - { offsetInCU: 0x29F58, offset: 0x48DF1C, size: 0x8, addend: 0x0, symName: '__ZN4core3ptr34drop_in_place$LT$syn..lit..Lit$GT$17hbe1efe749a08dd9aE', symObjAddr: 0x7A0, symBinAddr: 0xCFA70, symSize: 0x120 }
  - { offsetInCU: 0x2A472, offset: 0x48E436, size: 0x8, addend: 0x0, symName: '__ZN4core3ptr34drop_in_place$LT$syn..pat..Pat$GT$17h3201f642e43ac2a2E.llvm.8444515518860579797', symObjAddr: 0x8C0, symBinAddr: 0xCFB90, symSize: 0x1190 }
  - { offsetInCU: 0x2E38A, offset: 0x49234E, size: 0x8, addend: 0x0, symName: '__ZN4core3ptr34drop_in_place$LT$syn..ty..Type$GT$17hfb5d159a08190130E.llvm.8444515518860579797', symObjAddr: 0x1A50, symBinAddr: 0xD0D20, symSize: 0x580 }
  - { offsetInCU: 0x2F612, offset: 0x4935D6, size: 0x8, addend: 0x0, symName: '__ZN4core3ptr35drop_in_place$LT$syn..expr..Arm$GT$17h2f058dcaecfc86d5E', symObjAddr: 0x1FD0, symBinAddr: 0xD12A0, symSize: 0x190 }
  - { offsetInCU: 0x2FF8E, offset: 0x493F52, size: 0x8, addend: 0x0, symName: '__ZN4core3ptr36drop_in_place$LT$syn..expr..Expr$GT$17hf1921d1b09462bc3E.llvm.8444515518860579797', symObjAddr: 0x2160, symBinAddr: 0xD1430, symSize: 0x1E60 }
  - { offsetInCU: 0x3684A, offset: 0x49A80E, size: 0x8, addend: 0x0, symName: '__ZN4core3ptr36drop_in_place$LT$syn..mac..Macro$GT$17h205613d7ad575f72E', symObjAddr: 0x3FC0, symBinAddr: 0xD3290, symSize: 0x40 }
  - { offsetInCU: 0x3699B, offset: 0x49A95F, size: 0x8, addend: 0x0, symName: '__ZN4core3ptr36drop_in_place$LT$syn..path..Path$GT$17he6d0bec66d66b98aE', symObjAddr: 0x4000, symBinAddr: 0xD32D0, symSize: 0x230 }
  - { offsetInCU: 0x3736F, offset: 0x49B333, size: 0x8, addend: 0x0, symName: '__ZN4core3ptr37drop_in_place$LT$syn..lit..LitInt$GT$17h81ad5befc6ce2d73E.llvm.8444515518860579797', symObjAddr: 0x4230, symBinAddr: 0xD3500, symSize: 0x70 }
  - { offsetInCU: 0x3771F, offset: 0x49B6E3, size: 0x8, addend: 0x0, symName: '__ZN4core3ptr37drop_in_place$LT$syn..stmt..Block$GT$17h3aa429e75a234230E', symObjAddr: 0x42A0, symBinAddr: 0xD3570, symSize: 0xD0 }
  - { offsetInCU: 0x37A53, offset: 0x49BA17, size: 0x8, addend: 0x0, symName: '__ZN4core3ptr38drop_in_place$LT$syn..expr..ExprIf$GT$17hec63a1943e3da109E', symObjAddr: 0x4370, symBinAddr: 0xD3640, symSize: 0x220 }
  - { offsetInCU: 0x38315, offset: 0x49C2D9, size: 0x8, addend: 0x0, symName: '__ZN4core3ptr38drop_in_place$LT$syn..expr..Member$GT$17ha113d37a67d27aafE.llvm.8444515518860579797', symObjAddr: 0x4590, symBinAddr: 0xD3860, symSize: 0x30 }
  - { offsetInCU: 0x38411, offset: 0x49C3D5, size: 0x8, addend: 0x0, symName: '__ZN4core3ptr39drop_in_place$LT$proc_macro2..Ident$GT$17hdeec010483268a0dE', symObjAddr: 0x45C0, symBinAddr: 0xD3890, symSize: 0x30 }
  - { offsetInCU: 0x384EE, offset: 0x49C4B2, size: 0x8, addend: 0x0, symName: '__ZN4core3ptr39drop_in_place$LT$syn..pat..PatTuple$GT$17h96faeea9832d4c4bE', symObjAddr: 0x4950, symBinAddr: 0xD38C0, symSize: 0x100 }
  - { offsetInCU: 0x38835, offset: 0x49C7F9, size: 0x8, addend: 0x0, symName: '__ZN4core3ptr40drop_in_place$LT$syn..expr..ExprLoop$GT$17h9e505579fd62ef6fE', symObjAddr: 0x4CE0, symBinAddr: 0xD39C0, symSize: 0x1D0 }
  - { offsetInCU: 0x38F64, offset: 0x49CF28, size: 0x8, addend: 0x0, symName: '__ZN4core3ptr40drop_in_place$LT$syn..ty..ReturnType$GT$17h6f97c9fdb958983eE', symObjAddr: 0x4FF0, symBinAddr: 0xD3B90, symSize: 0x50 }
  - { offsetInCU: 0x390D4, offset: 0x49D098, size: 0x8, addend: 0x0, symName: '__ZN4core3ptr41drop_in_place$LT$syn..expr..ExprAsync$GT$17ha9124cede2896008E', symObjAddr: 0x5170, symBinAddr: 0xD3BE0, symSize: 0x1B0 }
  - { offsetInCU: 0x396C7, offset: 0x49D68B, size: 0x8, addend: 0x0, symName: '__ZN4core3ptr41drop_in_place$LT$syn..expr..ExprBlock$GT$17h7a5a7c5008d30d27E', symObjAddr: 0x5320, symBinAddr: 0xD3D90, symSize: 0x1D0 }
  - { offsetInCU: 0x39E15, offset: 0x49DDD9, size: 0x8, addend: 0x0, symName: '__ZN4core3ptr41drop_in_place$LT$syn..expr..ExprWhile$GT$17hf221395746fac5b6E', symObjAddr: 0x5EC0, symBinAddr: 0xD3F60, symSize: 0x220 }
  - { offsetInCU: 0x3A74F, offset: 0x49E713, size: 0x8, addend: 0x0, symName: '__ZN4core3ptr42drop_in_place$LT$syn..expr..ExprStruct$GT$17hcd4a233ae9f7b2e4E', symObjAddr: 0x6380, symBinAddr: 0xD4180, symSize: 0x250 }
  - { offsetInCU: 0x3B059, offset: 0x49F01D, size: 0x8, addend: 0x0, symName: '__ZN4core3ptr42drop_in_place$LT$syn..expr..ExprUnsafe$GT$17h1385f05be3ed92a0E', symObjAddr: 0x65D0, symBinAddr: 0xD43D0, symSize: 0x1B0 }
  - { offsetInCU: 0x3B64C, offset: 0x49F610, size: 0x8, addend: 0x0, symName: '__ZN4core3ptr42drop_in_place$LT$syn..expr..FieldValue$GT$17h42a16bcbdc918058E', symObjAddr: 0x6780, symBinAddr: 0xD4580, symSize: 0x140 }
  - { offsetInCU: 0x3BAD8, offset: 0x49FA9C, size: 0x8, addend: 0x0, symName: '__ZN4core3ptr43drop_in_place$LT$syn..expr..ExprClosure$GT$17h33394450256957a8E', symObjAddr: 0x68C0, symBinAddr: 0xD46C0, symSize: 0x270 }
  - { offsetInCU: 0x3C531, offset: 0x4A04F5, size: 0x8, addend: 0x0, symName: '__ZN4core3ptr43drop_in_place$LT$syn..expr..ExprForLoop$GT$17hdb72d4fbe32f57c8E', symObjAddr: 0x6B30, symBinAddr: 0xD4930, symSize: 0x240 }
  - { offsetInCU: 0x3CDA8, offset: 0x4A0D6C, size: 0x8, addend: 0x0, symName: '__ZN4core3ptr44drop_in_place$LT$syn..lifetime..Lifetime$GT$17h3858225df033648aE', symObjAddr: 0x6E80, symBinAddr: 0xD4B70, symSize: 0x30 }
  - { offsetInCU: 0x3CF20, offset: 0x4A0EE4, size: 0x8, addend: 0x0, symName: '__ZN4core3ptr44drop_in_place$LT$syn..parse..ParseBuffer$GT$17h19c266fcccc430cbE', symObjAddr: 0x6EB0, symBinAddr: 0xD4BA0, symSize: 0x70 }
  - { offsetInCU: 0x3D337, offset: 0x4A12FB, size: 0x8, addend: 0x0, symName: '__ZN4core3ptr45drop_in_place$LT$proc_macro2..TokenStream$GT$17h2507cb30e765dc85E.llvm.8444515518860579797', symObjAddr: 0x6F20, symBinAddr: 0xD4C10, symSize: 0x140 }
  - { offsetInCU: 0x3D84E, offset: 0x4A1812, size: 0x8, addend: 0x0, symName: '__ZN4core3ptr46drop_in_place$LT$syn..expr..ExprMethodCall$GT$17hc2c41e6c148679f7E', symObjAddr: 0x7190, symBinAddr: 0xD4D50, symSize: 0x3A0 }
  - { offsetInCU: 0x3E6EE, offset: 0x4A26B2, size: 0x8, addend: 0x0, symName: '__ZN4core3ptr47drop_in_place$LT$syn..expr..MethodTurbofish$GT$17hfb737c85726076f0E', symObjAddr: 0x7530, symBinAddr: 0xD50F0, symSize: 0x150 }
  - { offsetInCU: 0x3EBB8, offset: 0x4A2B7C, size: 0x8, addend: 0x0, symName: '__ZN4core3ptr47drop_in_place$LT$syn..path..GenericArgument$GT$17h8c0a0d8c6deaefb4E', symObjAddr: 0x7680, symBinAddr: 0xD5240, symSize: 0x110 }
  - { offsetInCU: 0x3EED3, offset: 0x4A2E97, size: 0x8, addend: 0x0, symName: '__ZN4core3ptr58drop_in_place$LT$alloc..vec..Vec$LT$syn..expr..Arm$GT$$GT$17hf3db0825f3d9c861E', symObjAddr: 0x7790, symBinAddr: 0xD5350, symSize: 0xD0 }
  - { offsetInCU: 0x3F193, offset: 0x4A3157, size: 0x8, addend: 0x0, symName: '__ZN4core3ptr59drop_in_place$LT$alloc..boxed..Box$LT$syn..pat..Pat$GT$$GT$17h7037ce9bbd3729c6E', symObjAddr: 0x7860, symBinAddr: 0xD5420, symSize: 0x50 }
  - { offsetInCU: 0x3F2EC, offset: 0x4A32B0, size: 0x8, addend: 0x0, symName: '__ZN4core3ptr59drop_in_place$LT$alloc..boxed..Box$LT$syn..ty..Type$GT$$GT$17h2eccd13329dbe4faE', symObjAddr: 0x78B0, symBinAddr: 0xD5470, symSize: 0x50 }
  - { offsetInCU: 0x3F445, offset: 0x4A3409, size: 0x8, addend: 0x0, symName: '__ZN4core3ptr59drop_in_place$LT$alloc..vec..Vec$LT$syn..stmt..Stmt$GT$$GT$17hed4646381107e302E', symObjAddr: 0x7900, symBinAddr: 0xD54C0, symSize: 0xD0 }
  - { offsetInCU: 0x3F705, offset: 0x4A36C9, size: 0x8, addend: 0x0, symName: '__ZN4core3ptr61drop_in_place$LT$alloc..boxed..Box$LT$syn..expr..Expr$GT$$GT$17h66094ddc89015516E', symObjAddr: 0x79D0, symBinAddr: 0xD5590, symSize: 0x50 }
  - { offsetInCU: 0x3F8DA, offset: 0x4A389E, size: 0x8, addend: 0x0, symName: '__ZN4core3ptr61drop_in_place$LT$syn..path..ParenthesizedGenericArguments$GT$17h21be9b1d7a6fab55E', symObjAddr: 0x7A20, symBinAddr: 0xD55E0, symSize: 0x170 }
  - { offsetInCU: 0x3FED0, offset: 0x4A3E94, size: 0x8, addend: 0x0, symName: '__ZN4core3ptr63drop_in_place$LT$alloc..boxed..Box$LT$syn..lit..LitRepr$GT$$GT$17h9c509b794406150eE', symObjAddr: 0x7B90, symBinAddr: 0xD5750, symSize: 0x60 }
  - { offsetInCU: 0x401B8, offset: 0x4A417C, size: 0x8, addend: 0x0, symName: '__ZN4core3ptr64drop_in_place$LT$alloc..boxed..Box$LT$syn..pat..FieldPat$GT$$GT$17hb167b355d0d4733fE', symObjAddr: 0x7BF0, symBinAddr: 0xD57B0, symSize: 0x180 }
  - { offsetInCU: 0x408D5, offset: 0x4A4899, size: 0x8, addend: 0x0, symName: '__ZN4core3ptr64drop_in_place$LT$alloc..boxed..Box$LT$syn..ty..BareFnArg$GT$$GT$17h6488be9448346678E', symObjAddr: 0x7D70, symBinAddr: 0xD5930, symSize: 0x160 }
  - { offsetInCU: 0x40E6B, offset: 0x4A4E2F, size: 0x8, addend: 0x0, symName: '__ZN4core3ptr64drop_in_place$LT$alloc..vec..Vec$LT$syn..attr..Attribute$GT$$GT$17h386324d8ea9bc309E.llvm.8444515518860579797', symObjAddr: 0x7ED0, symBinAddr: 0xD5A90, symSize: 0xF0 }
  - { offsetInCU: 0x41161, offset: 0x4A5125, size: 0x8, addend: 0x0, symName: '__ZN4core3ptr65drop_in_place$LT$alloc..vec..Vec$LT$proc_macro..TokenTree$GT$$GT$17hc3670dd5608d5259E.llvm.8444515518860579797', symObjAddr: 0x7FC0, symBinAddr: 0xD5B80, symSize: 0x110 }
  - { offsetInCU: 0x41559, offset: 0x4A551D, size: 0x8, addend: 0x0, symName: '__ZN4core3ptr65drop_in_place$LT$core..option..Option$LT$syn..expr..Label$GT$$GT$17ha723640fd01bec5dE', symObjAddr: 0x80D0, symBinAddr: 0xD5C90, symSize: 0x30 }
  - { offsetInCU: 0x41693, offset: 0x4A5657, size: 0x8, addend: 0x0, symName: '__ZN4core3ptr65drop_in_place$LT$core..option..Option$LT$syn..path..QSelf$GT$$GT$17h213ca1c3399df9f2E', symObjAddr: 0x8100, symBinAddr: 0xD5CC0, symSize: 0x50 }
  - { offsetInCU: 0x4182A, offset: 0x4A57EE, size: 0x8, addend: 0x0, symName: '__ZN4core3ptr66drop_in_place$LT$core..option..Option$LT$syn..ty..Variadic$GT$$GT$17hc32134bb3933b0dfE', symObjAddr: 0x8150, symBinAddr: 0xD5D10, symSize: 0xF0 }
  - { offsetInCU: 0x41B54, offset: 0x4A5B18, size: 0x8, addend: 0x0, symName: '__ZN4core3ptr67drop_in_place$LT$alloc..boxed..Box$LT$syn..expr..FieldValue$GT$$GT$17h8df780aa600ea8c2E', symObjAddr: 0x8240, symBinAddr: 0xD5E00, symSize: 0x160 }
  - { offsetInCU: 0x420D6, offset: 0x4A609A, size: 0x8, addend: 0x0, symName: '__ZN4core3ptr68drop_in_place$LT$alloc..boxed..Box$LT$syn..path..PathSegment$GT$$GT$17h1957b54eed39c0bbE', symObjAddr: 0x83A0, symBinAddr: 0xD5F60, symSize: 0x190 }
  - { offsetInCU: 0x427E0, offset: 0x4A67A4, size: 0x8, addend: 0x0, symName: '__ZN4core3ptr72drop_in_place$LT$alloc..boxed..Box$LT$syn..path..GenericArgument$GT$$GT$17ha8f8136d0c2b505bE', symObjAddr: 0x8530, symBinAddr: 0xD60F0, symSize: 0x120 }
  - { offsetInCU: 0x42C58, offset: 0x4A6C1C, size: 0x8, addend: 0x0, symName: '__ZN4core3ptr72drop_in_place$LT$core..option..Option$LT$syn..lifetime..Lifetime$GT$$GT$17h31b55b93749c174dE', symObjAddr: 0x8650, symBinAddr: 0xD6210, symSize: 0x30 }
  - { offsetInCU: 0x42D73, offset: 0x4A6D37, size: 0x8, addend: 0x0, symName: '__ZN4core3ptr75drop_in_place$LT$alloc..boxed..Box$LT$syn..generics..TypeParamBound$GT$$GT$17h8f156ce07ea0b8b2E', symObjAddr: 0x8680, symBinAddr: 0xD6240, symSize: 0x90 }
  - { offsetInCU: 0x430B2, offset: 0x4A7076, size: 0x8, addend: 0x0, symName: '__ZN4core3ptr78drop_in_place$LT$core..option..Option$LT$syn..generics..BoundLifetimes$GT$$GT$17h8175e66ad0c4a156E', symObjAddr: 0x8730, symBinAddr: 0xD62D0, symSize: 0xE0 }
  - { offsetInCU: 0x43410, offset: 0x4A73D4, size: 0x8, addend: 0x0, symName: '__ZN4core3ptr86drop_in_place$LT$syn..punctuated..Punctuated$LT$syn..pat..Pat$C$syn..token..Or$GT$$GT$17h1078c5d178d382b7E', symObjAddr: 0x8810, symBinAddr: 0xD63B0, symSize: 0x120 }
  - { offsetInCU: 0x4388B, offset: 0x4A784F, size: 0x8, addend: 0x0, symName: '__ZN4core3ptr87drop_in_place$LT$core..option..Option$LT$alloc..boxed..Box$LT$syn..pat..Pat$GT$$GT$$GT$17ha7f5fe0e6f73e820E', symObjAddr: 0x8930, symBinAddr: 0xD64D0, symSize: 0x50 }
  - { offsetInCU: 0x439FB, offset: 0x4A79BF, size: 0x8, addend: 0x0, symName: '__ZN4core3ptr87drop_in_place$LT$core..option..Option$LT$alloc..boxed..Box$LT$syn..ty..Type$GT$$GT$$GT$17hc8292da82d129de3E', symObjAddr: 0x8980, symBinAddr: 0xD6520, symSize: 0x50 }
  - { offsetInCU: 0x43B6B, offset: 0x4A7B2F, size: 0x8, addend: 0x0, symName: '__ZN4core3ptr88drop_in_place$LT$$LP$syn..token..Else$C$alloc..boxed..Box$LT$syn..expr..Expr$GT$$RP$$GT$17h7dd7c259e93fb46bE', symObjAddr: 0x89D0, symBinAddr: 0xD6570, symSize: 0x50 }
  - { offsetInCU: 0x43CE3, offset: 0x4A7CA7, size: 0x8, addend: 0x0, symName: '__ZN4core3ptr89drop_in_place$LT$core..option..Option$LT$alloc..boxed..Box$LT$syn..expr..Expr$GT$$GT$$GT$17hdc211ccd33f196f2E', symObjAddr: 0x8A20, symBinAddr: 0xD65C0, symSize: 0x50 }
  - { offsetInCU: 0x43E53, offset: 0x4A7E17, size: 0x8, addend: 0x0, symName: '__ZN4core3ptr89drop_in_place$LT$syn..punctuated..Punctuated$LT$syn..pat..Pat$C$syn..token..Comma$GT$$GT$17hf8371102b0500adcE', symObjAddr: 0x8A70, symBinAddr: 0xD6610, symSize: 0x120 }
  - { offsetInCU: 0x442D2, offset: 0x4A8296, size: 0x8, addend: 0x0, symName: '__ZN4core3ptr89drop_in_place$LT$syn..punctuated..Punctuated$LT$syn..ty..Type$C$syn..token..Comma$GT$$GT$17h1c6e43341fabea97E', symObjAddr: 0x8B90, symBinAddr: 0xD6730, symSize: 0x120 }
  - { offsetInCU: 0x4474D, offset: 0x4A8711, size: 0x8, addend: 0x0, symName: '__ZN4core3ptr91drop_in_place$LT$syn..punctuated..Punctuated$LT$syn..expr..Expr$C$syn..token..Comma$GT$$GT$17hd2dfeb0c522d9a18E', symObjAddr: 0x8CB0, symBinAddr: 0xD6850, symSize: 0x120 }
  - { offsetInCU: 0x44BC8, offset: 0x4A8B8C, size: 0x8, addend: 0x0, symName: '__ZN4core3ptr94drop_in_place$LT$syn..punctuated..Punctuated$LT$syn..pat..FieldPat$C$syn..token..Comma$GT$$GT$17h612cbc9066d5afb1E', symObjAddr: 0x8DD0, symBinAddr: 0xD6970, symSize: 0xF0 }
  - { offsetInCU: 0x44EC7, offset: 0x4A8E8B, size: 0x8, addend: 0x0, symName: '__ZN4core3ptr94drop_in_place$LT$syn..punctuated..Punctuated$LT$syn..ty..BareFnArg$C$syn..token..Comma$GT$$GT$17ha9a668ce9972795bE', symObjAddr: 0x8EC0, symBinAddr: 0xD6A60, symSize: 0xF0 }
  - { offsetInCU: 0x451C4, offset: 0x4A9188, size: 0x8, addend: 0x0, symName: '__ZN4core3ptr95drop_in_place$LT$core..option..Option$LT$$LP$proc_macro2..Ident$C$syn..token..Colon$RP$$GT$$GT$17h7314df562090eafdE', symObjAddr: 0x8FB0, symBinAddr: 0xD6B50, symSize: 0x30 }
  - { offsetInCU: 0x452DF, offset: 0x4A92A3, size: 0x8, addend: 0x0, symName: '__ZN4core3ptr95drop_in_place$LT$core..option..Option$LT$alloc..boxed..Box$LT$syn..expr..FieldValue$GT$$GT$$GT$17hd0d57ae8c6b091c1E', symObjAddr: 0x8FE0, symBinAddr: 0xD6B80, symSize: 0x50 }
  - { offsetInCU: 0x4544F, offset: 0x4A9413, size: 0x8, addend: 0x0, symName: '__ZN4core3ptr96drop_in_place$LT$core..option..Option$LT$alloc..boxed..Box$LT$syn..path..PathSegment$GT$$GT$$GT$17h2e81cbe3c70bb71cE', symObjAddr: 0x9030, symBinAddr: 0xD6BD0, symSize: 0x180 }
  - { offsetInCU: 0x45B0C, offset: 0x4A9AD0, size: 0x8, addend: 0x0, symName: '__ZN4core3ptr97drop_in_place$LT$syn..punctuated..Punctuated$LT$syn..expr..FieldValue$C$syn..token..Comma$GT$$GT$17h11a5fffb46adfb11E', symObjAddr: 0x91B0, symBinAddr: 0xD6D50, symSize: 0xF0 }
  - { offsetInCU: 0x45E85, offset: 0x4A9E49, size: 0x8, addend: 0x0, symName: '__ZN4core3ptr97drop_in_place$LT$syn..punctuated..Punctuated$LT$syn..lifetime..Lifetime$C$syn..token..Add$GT$$GT$17h5c54dea2c838d109E', symObjAddr: 0x92A0, symBinAddr: 0xD6E40, symSize: 0xD0 }
  - { offsetInCU: 0x462F9, offset: 0x4AA2BD, size: 0x8, addend: 0x0, symName: '__ZN4core3ptr99drop_in_place$LT$syn..punctuated..Punctuated$LT$syn..path..PathSegment$C$syn..token..Colon2$GT$$GT$17hb961e4d7989a33ceE', symObjAddr: 0x9370, symBinAddr: 0xD6F10, symSize: 0x250 }
  - { offsetInCU: 0x4CD85, offset: 0x4B0D49, size: 0x8, addend: 0x0, symName: __ZN5alloc5alloc15exchange_malloc17h9a87608d0224859dE, symObjAddr: 0x9610, symBinAddr: 0xD7160, symSize: 0x40 }
  - { offsetInCU: 0x4F1CB, offset: 0x4B318F, size: 0x8, addend: 0x0, symName: '__ZN69_$LT$alloc..boxed..Box$LT$T$C$A$GT$$u20$as$u20$core..clone..Clone$GT$5clone17hb1b95e73f0a2c98fE', symObjAddr: 0x9BB0, symBinAddr: 0xD71A0, symSize: 0x90 }
  - { offsetInCU: 0x5121D, offset: 0x4B51E1, size: 0x8, addend: 0x0, symName: __ZN3syn4expr4Expr13replace_attrs17h45273f69f34fc620E, symObjAddr: 0x9E60, symBinAddr: 0xD7230, symSize: 0x210 }
  - { offsetInCU: 0x1A03, offset: 0x4C371E, size: 0x8, addend: 0x0, symName: '__ZN4core3ptr100drop_in_place$LT$core..option..Option$LT$alloc..boxed..Box$LT$syn..generics..LifetimeDef$GT$$GT$$GT$17h75a6086997697dd7E.llvm.2919429348807089406', symObjAddr: 0x560, symBinAddr: 0xE48A0, symSize: 0x50 }
  - { offsetInCU: 0x1B92, offset: 0x4C38AD, size: 0x8, addend: 0x0, symName: '__ZN4core3ptr100drop_in_place$LT$core..option..Option$LT$alloc..boxed..Box$LT$syn..path..GenericArgument$GT$$GT$$GT$17h3d29ec00a8f1918dE', symObjAddr: 0x5B0, symBinAddr: 0xE48F0, symSize: 0x50 }
  - { offsetInCU: 0x1D5F, offset: 0x4C3A7A, size: 0x8, addend: 0x0, symName: '__ZN4core3ptr101drop_in_place$LT$alloc..vec..Vec$LT$$LP$syn..generics..WherePredicate$C$syn..token..Comma$RP$$GT$$GT$17h08dfdcabd164aa70E.llvm.2919429348807089406', symObjAddr: 0x600, symBinAddr: 0xE4940, symSize: 0xD0 }
  - { offsetInCU: 0x2079, offset: 0x4C3D94, size: 0x8, addend: 0x0, symName: '__ZN4core3ptr101drop_in_place$LT$core..option..Option$LT$alloc..boxed..Box$LT$syn..generics..GenericParam$GT$$GT$$GT$17h1fee4f1c7bd902c4E', symObjAddr: 0x6D0, symBinAddr: 0xE4A10, symSize: 0x50 }
  - { offsetInCU: 0x2265, offset: 0x4C3F80, size: 0x8, addend: 0x0, symName: '__ZN4core3ptr102drop_in_place$LT$syn..punctuated..Punctuated$LT$syn..generics..LifetimeDef$C$syn..token..Comma$GT$$GT$17h6013ea99e87d4528E.llvm.2919429348807089406', symObjAddr: 0x720, symBinAddr: 0xE4A60, symSize: 0xF0 }
  - { offsetInCU: 0x25E3, offset: 0x4C42FE, size: 0x8, addend: 0x0, symName: '__ZN4core3ptr102drop_in_place$LT$syn..punctuated..Punctuated$LT$syn..path..GenericArgument$C$syn..token..Comma$GT$$GT$17h4b445f97c5aefb0eE.llvm.2919429348807089406', symObjAddr: 0x810, symBinAddr: 0xE4B50, symSize: 0xF0 }
  - { offsetInCU: 0x2A1D, offset: 0x4C4738, size: 0x8, addend: 0x0, symName: '__ZN4core3ptr103drop_in_place$LT$core..option..Option$LT$alloc..boxed..Box$LT$syn..generics..TypeParamBound$GT$$GT$$GT$17h6cee73bc2b2ecea8E', symObjAddr: 0x900, symBinAddr: 0xE4C40, symSize: 0xA0 }
  - { offsetInCU: 0x2D0C, offset: 0x4C4A27, size: 0x8, addend: 0x0, symName: '__ZN4core3ptr103drop_in_place$LT$core..option..Option$LT$alloc..boxed..Box$LT$syn..generics..WherePredicate$GT$$GT$$GT$17headad361972eced7E', symObjAddr: 0x9A0, symBinAddr: 0xE4CE0, symSize: 0x50 }
  - { offsetInCU: 0x2F36, offset: 0x4C4C51, size: 0x8, addend: 0x0, symName: '__ZN4core3ptr103drop_in_place$LT$syn..punctuated..Punctuated$LT$syn..generics..GenericParam$C$syn..token..Comma$GT$$GT$17hae00367f0c570156E', symObjAddr: 0x9F0, symBinAddr: 0xE4D30, symSize: 0x1A0 }
  - { offsetInCU: 0x34C5, offset: 0x4C51E0, size: 0x8, addend: 0x0, symName: '__ZN4core3ptr103drop_in_place$LT$syn..punctuated..Punctuated$LT$syn..generics..TypeParamBound$C$syn..token..Add$GT$$GT$17he811d520c92af08aE', symObjAddr: 0xB90, symBinAddr: 0xE4ED0, symSize: 0x290 }
  - { offsetInCU: 0x411B, offset: 0x4C5E36, size: 0x8, addend: 0x0, symName: '__ZN4core3ptr104drop_in_place$LT$alloc..vec..Vec$LT$$LP$syn..expr..GenericMethodArgument$C$syn..token..Comma$RP$$GT$$GT$17heae48b13c44e912aE.llvm.2919429348807089406', symObjAddr: 0xE20, symBinAddr: 0xE5160, symSize: 0xF0 }
  - { offsetInCU: 0x44AB, offset: 0x4C61C6, size: 0x8, addend: 0x0, symName: '__ZN4core3ptr105drop_in_place$LT$syn..punctuated..Punctuated$LT$syn..generics..WherePredicate$C$syn..token..Comma$GT$$GT$17h53c71b5d1c98483dE', symObjAddr: 0xF10, symBinAddr: 0xE5250, symSize: 0x1A0 }
  - { offsetInCU: 0x4AA5, offset: 0x4C67C0, size: 0x8, addend: 0x0, symName: '__ZN4core3ptr108drop_in_place$LT$syn..punctuated..Punctuated$LT$syn..expr..GenericMethodArgument$C$syn..token..Comma$GT$$GT$17h92cbabe4862b2183E', symObjAddr: 0x10B0, symBinAddr: 0xE53F0, symSize: 0x150 }
  - { offsetInCU: 0x4FC7, offset: 0x4C6CE2, size: 0x8, addend: 0x0, symName: '__ZN4core3ptr1247drop_in_place$LT$core..iter..adapters..flatten..Flatten$LT$core..iter..adapters..map..Map$LT$core..iter..adapters..map..Map$LT$core..iter..adapters..map..Map$LT$core..slice..iter..Iter$LT$syn..error..ErrorMessage$GT$$C$syn..error..ErrorMessage..to_compile_error$GT$$C$$LT$proc_macro2..TokenStream$u20$as$u20$core..iter..traits..collect..FromIterator$LT$proc_macro2..TokenStream$GT$$GT$..from_iter$LT$core..iter..adapters..map..Map$LT$core..slice..iter..Iter$LT$syn..error..ErrorMessage$GT$$C$syn..error..ErrorMessage..to_compile_error$GT$$GT$..$u7b$$u7b$closure$u7d$$u7d$$GT$$C$$LT$proc_macro2..imp..TokenStream$u20$as$u20$core..iter..traits..collect..FromIterator$LT$proc_macro2..imp..TokenStream$GT$$GT$..from_iter$LT$core..iter..adapters..map..Map$LT$core..iter..adapters..map..Map$LT$core..slice..iter..Iter$LT$syn..error..ErrorMessage$GT$$C$syn..error..ErrorMessage..to_compile_error$GT$$C$$LT$proc_macro2..TokenStream$u20$as$u20$core..iter..traits..collect..FromIterator$LT$proc_macro2..TokenStream$GT$$GT$..from_iter$LT$core..iter..adapters..map..Map$LT$core..slice..iter..Iter$LT$syn..error..ErrorMessage$GT$$C$syn..error..ErrorMessage..to_compile_error$GT$$GT$..$u7b$$u7b$closure$u7d$$u7d$$GT$$GT$..$u7b$$u7b$closure$u7d$$u7d$$GT$$GT$$GT$17he27900d9b890586cE', symObjAddr: 0x1200, symBinAddr: 0xE5540, symSize: 0x60 }
  - { offsetInCU: 0x514B, offset: 0x4C6E66, size: 0x8, addend: 0x0, symName: '__ZN4core3ptr126drop_in_place$LT$core..option..Option$LT$$LP$syn..token..And$C$core..option..Option$LT$syn..lifetime..Lifetime$GT$$RP$$GT$$GT$17h5979d670cb45416cE', symObjAddr: 0x1260, symBinAddr: 0xE55A0, symSize: 0x30 }
  - { offsetInCU: 0x53DA, offset: 0x4C70F5, size: 0x8, addend: 0x0, symName: '__ZN4core3ptr33drop_in_place$LT$syn..ty..Abi$GT$17h723a10e1a0acbd58E', symObjAddr: 0x1290, symBinAddr: 0xE55D0, symSize: 0x70 }
  - { offsetInCU: 0x53F6, offset: 0x4C7111, size: 0x8, addend: 0x0, symName: '__ZN4core3ptr33drop_in_place$LT$syn..ty..Abi$GT$17h723a10e1a0acbd58E', symObjAddr: 0x1290, symBinAddr: 0xE55D0, symSize: 0x70 }
  - { offsetInCU: 0x56CE, offset: 0x4C73E9, size: 0x8, addend: 0x0, symName: '__ZN4core3ptr34drop_in_place$LT$syn..lit..Lit$GT$17hbe1efe749a08dd9aE.llvm.2919429348807089406', symObjAddr: 0x1300, symBinAddr: 0xE5640, symSize: 0x120 }
  - { offsetInCU: 0x5BC9, offset: 0x4C78E4, size: 0x8, addend: 0x0, symName: '__ZN4core3ptr34drop_in_place$LT$syn..pat..Pat$GT$17h3201f642e43ac2a2E.llvm.2919429348807089406', symObjAddr: 0x1420, symBinAddr: 0xE5760, symSize: 0x930 }
  - { offsetInCU: 0x8C15, offset: 0x4CA930, size: 0x8, addend: 0x0, symName: '__ZN4core3ptr34drop_in_place$LT$syn..ty..Type$GT$17hfb5d159a08190130E.llvm.2919429348807089406', symObjAddr: 0x1D50, symBinAddr: 0xE6090, symSize: 0x380 }
  - { offsetInCU: 0x97FB, offset: 0x4CB516, size: 0x8, addend: 0x0, symName: '__ZN4core3ptr35drop_in_place$LT$syn..expr..Arm$GT$17h2f058dcaecfc86d5E.llvm.2919429348807089406', symObjAddr: 0x20D0, symBinAddr: 0xE6410, symSize: 0x1A0 }
  - { offsetInCU: 0xA452, offset: 0x4CC16D, size: 0x8, addend: 0x0, symName: '__ZN4core3ptr36drop_in_place$LT$syn..expr..Expr$GT$17hf1921d1b09462bc3E.llvm.2919429348807089406', symObjAddr: 0x2270, symBinAddr: 0xE65B0, symSize: 0x1E10 }
  - { offsetInCU: 0x141A3, offset: 0x4D5EBE, size: 0x8, addend: 0x0, symName: '__ZN4core3ptr36drop_in_place$LT$syn..item..Item$GT$17hf1fe4e69bb0a9b43E.llvm.2919429348807089406', symObjAddr: 0x4080, symBinAddr: 0xE83C0, symSize: 0x1650 }
  - { offsetInCU: 0x1AB31, offset: 0x4DC84C, size: 0x8, addend: 0x0, symName: '__ZN4core3ptr36drop_in_place$LT$syn..path..Path$GT$17he6d0bec66d66b98aE.llvm.2919429348807089406', symObjAddr: 0x56D0, symBinAddr: 0xE9A10, symSize: 0x150 }
  - { offsetInCU: 0x1B0F1, offset: 0x4DCE0C, size: 0x8, addend: 0x0, symName: '__ZN4core3ptr36drop_in_place$LT$syn..stmt..Stmt$GT$17h1cbf7c4dce3085eaE.llvm.2919429348807089406', symObjAddr: 0x5820, symBinAddr: 0xE9B60, symSize: 0x140 }
  - { offsetInCU: 0x1B584, offset: 0x4DD29F, size: 0x8, addend: 0x0, symName: '__ZN4core3ptr37drop_in_place$LT$syn..data..Field$GT$17h6bfcb460cfa4c863E.llvm.2919429348807089406', symObjAddr: 0x5960, symBinAddr: 0xE9CA0, symSize: 0x1B0 }
  - { offsetInCU: 0x1BB7E, offset: 0x4DD899, size: 0x8, addend: 0x0, symName: '__ZN4core3ptr37drop_in_place$LT$syn..item..FnArg$GT$17h52a13b3505938de2E.llvm.2919429348807089406', symObjAddr: 0x5B10, symBinAddr: 0xE9E50, symSize: 0x190 }
  - { offsetInCU: 0x1C520, offset: 0x4DE23B, size: 0x8, addend: 0x0, symName: '__ZN4core3ptr37drop_in_place$LT$syn..stmt..Block$GT$17h3aa429e75a234230E', symObjAddr: 0x5CA0, symBinAddr: 0xE9FE0, symSize: 0xD0 }
  - { offsetInCU: 0x1C7FE, offset: 0x4DE519, size: 0x8, addend: 0x0, symName: '__ZN4core3ptr38drop_in_place$LT$syn..expr..Member$GT$17ha113d37a67d27aafE.llvm.2919429348807089406', symObjAddr: 0x5D70, symBinAddr: 0xEA0B0, symSize: 0x30 }
  - { offsetInCU: 0x1C8FA, offset: 0x4DE615, size: 0x8, addend: 0x0, symName: '__ZN4core3ptr38drop_in_place$LT$syn..pat..PatType$GT$17h833e3c7992399b01E.llvm.2919429348807089406', symObjAddr: 0x5DA0, symBinAddr: 0xEA0E0, symSize: 0x160 }
  - { offsetInCU: 0x1CEB2, offset: 0x4DEBCD, size: 0x8, addend: 0x0, symName: '__ZN4core3ptr38drop_in_place$LT$syn..ty..Variadic$GT$17h354585068960ea23E', symObjAddr: 0x5F00, symBinAddr: 0xEA240, symSize: 0xF0 }
  - { offsetInCU: 0x1D1C6, offset: 0x4DEEE1, size: 0x8, addend: 0x0, symName: '__ZN4core3ptr39drop_in_place$LT$proc_macro2..Ident$GT$17hdeec010483268a0dE', symObjAddr: 0x5FF0, symBinAddr: 0xEA330, symSize: 0x30 }
  - { offsetInCU: 0x1D3D9, offset: 0x4DF0F4, size: 0x8, addend: 0x0, symName: '__ZN4core3ptr39drop_in_place$LT$syn..buffer..Entry$GT$17hefeddf49a31e1f79E.llvm.2919429348807089406', symObjAddr: 0x6020, symBinAddr: 0xEA360, symSize: 0xB0 }
  - { offsetInCU: 0x1D7C1, offset: 0x4DF4DC, size: 0x8, addend: 0x0, symName: '__ZN4core3ptr39drop_in_place$LT$syn..data..Variant$GT$17hdf59a2045a52b17cE.llvm.2919429348807089406', symObjAddr: 0x60D0, symBinAddr: 0xEA410, symSize: 0x330 }
  - { offsetInCU: 0x1E46A, offset: 0x4E0185, size: 0x8, addend: 0x0, symName: '__ZN4core3ptr39drop_in_place$LT$syn..item..UseTree$GT$17h78d4ed19b48b8cbfE.llvm.2919429348807089406', symObjAddr: 0x6400, symBinAddr: 0xEA740, symSize: 0x1F0 }
  - { offsetInCU: 0x1EC42, offset: 0x4E095D, size: 0x8, addend: 0x0, symName: '__ZN4core3ptr39drop_in_place$LT$syn..pat..PatTuple$GT$17h96faeea9832d4c4bE', symObjAddr: 0x65F0, symBinAddr: 0xEA930, symSize: 0x1F0 }
  - { offsetInCU: 0x1F4A0, offset: 0x4E11BB, size: 0x8, addend: 0x0, symName: '__ZN4core3ptr40drop_in_place$LT$syn..attr..MetaList$GT$17h9457f32d77a909ccE.llvm.2919429348807089406', symObjAddr: 0x67E0, symBinAddr: 0xEAB20, symSize: 0x140 }
  - { offsetInCU: 0x1F927, offset: 0x4E1642, size: 0x8, addend: 0x0, symName: '__ZN4core3ptr40drop_in_place$LT$syn..item..Receiver$GT$17hc8a432a931462f79E.llvm.2919429348807089406', symObjAddr: 0x6920, symBinAddr: 0xEAC60, symSize: 0x140 }
  - { offsetInCU: 0x1FDB5, offset: 0x4E1AD0, size: 0x8, addend: 0x0, symName: '__ZN4core3ptr40drop_in_place$LT$syn..ty..ReturnType$GT$17h6f97c9fdb958983eE.llvm.2919429348807089406', symObjAddr: 0x6A60, symBinAddr: 0xEADA0, symSize: 0x50 }
  - { offsetInCU: 0x1FF25, offset: 0x4E1C40, size: 0x8, addend: 0x0, symName: '__ZN4core3ptr41drop_in_place$LT$syn..attr..Attribute$GT$17h01ed88f7d2878bfcE.llvm.2919429348807089406', symObjAddr: 0x6AB0, symBinAddr: 0xEADF0, symSize: 0x40 }
  - { offsetInCU: 0x20095, offset: 0x4E1DB0, size: 0x8, addend: 0x0, symName: '__ZN4core3ptr41drop_in_place$LT$syn..item..Signature$GT$17hd57cfba25994ce69E', symObjAddr: 0x6AF0, symBinAddr: 0xEAE30, symSize: 0x330 }
  - { offsetInCU: 0x20EC4, offset: 0x4E2BDF, size: 0x8, addend: 0x0, symName: '__ZN4core3ptr42drop_in_place$LT$syn..attr..NestedMeta$GT$17hb8773e095b93d12eE.llvm.2919429348807089406', symObjAddr: 0x6E20, symBinAddr: 0xEB160, symSize: 0x120 }
  - { offsetInCU: 0x2109E, offset: 0x4E2DB9, size: 0x8, addend: 0x0, symName: '__ZN4core3ptr43drop_in_place$LT$proc_macro2..TokenTree$GT$17h7270f34cee6d919dE.llvm.2919429348807089406', symObjAddr: 0x6F40, symBinAddr: 0xEB280, symSize: 0xB0 }
  - { offsetInCU: 0x213FA, offset: 0x4E3115, size: 0x8, addend: 0x0, symName: '__ZN4core3ptr43drop_in_place$LT$syn..data..FieldsNamed$GT$17h73293dd81bcfeab6E', symObjAddr: 0x6FF0, symBinAddr: 0xEB330, symSize: 0x120 }
  - { offsetInCU: 0x218F8, offset: 0x4E3613, size: 0x8, addend: 0x0, symName: '__ZN4core3ptr43drop_in_place$LT$syn..path..PathSegment$GT$17h3d0f44137dd31bf9E.llvm.2919429348807089406', symObjAddr: 0x7110, symBinAddr: 0xEB450, symSize: 0x170 }
  - { offsetInCU: 0x21ED3, offset: 0x4E3BEE, size: 0x8, addend: 0x0, symName: '__ZN4core3ptr44drop_in_place$LT$syn..generics..Generics$GT$17he0d6eb6045503c84E', symObjAddr: 0x7280, symBinAddr: 0xEB5C0, symSize: 0x230 }
  - { offsetInCU: 0x22810, offset: 0x4E452B, size: 0x8, addend: 0x0, symName: '__ZN4core3ptr44drop_in_place$LT$syn..item..ImplItemType$GT$17hfa117ac59836f12aE', symObjAddr: 0x74B0, symBinAddr: 0xEB7F0, symSize: 0x200 }
  - { offsetInCU: 0x22E2D, offset: 0x4E4B48, size: 0x8, addend: 0x0, symName: '__ZN4core3ptr44drop_in_place$LT$syn..lifetime..Lifetime$GT$17h3858225df033648aE.llvm.2919429348807089406', symObjAddr: 0x76B0, symBinAddr: 0xEB9F0, symSize: 0x30 }
  - { offsetInCU: 0x22F86, offset: 0x4E4CA1, size: 0x8, addend: 0x0, symName: '__ZN4core3ptr45drop_in_place$LT$proc_macro2..TokenStream$GT$17h2507cb30e765dc85E.llvm.2919429348807089406', symObjAddr: 0x76E0, symBinAddr: 0xEBA20, symSize: 0x70 }
  - { offsetInCU: 0x230BB, offset: 0x4E4DD6, size: 0x8, addend: 0x0, symName: '__ZN4core3ptr45drop_in_place$LT$syn..data..VisRestricted$GT$17hcb973457cb67885aE', symObjAddr: 0x7750, symBinAddr: 0xEBA90, symSize: 0xA0 }
  - { offsetInCU: 0x23403, offset: 0x4E511E, size: 0x8, addend: 0x0, symName: '__ZN4core3ptr45drop_in_place$LT$syn..generics..TypeParam$GT$17h2de9c744cc1fcd2cE.llvm.2919429348807089406', symObjAddr: 0x77F0, symBinAddr: 0xEBB30, symSize: 0x200 }
  - { offsetInCU: 0x23C5A, offset: 0x4E5975, size: 0x8, addend: 0x0, symName: '__ZN4core3ptr45drop_in_place$LT$syn..item..ImplItemConst$GT$17hcd481022683c9056E', symObjAddr: 0x79F0, symBinAddr: 0xEBD30, symSize: 0x1D0 }
  - { offsetInCU: 0x24234, offset: 0x4E5F4F, size: 0x8, addend: 0x0, symName: '__ZN4core3ptr45drop_in_place$LT$syn..item..TraitItemType$GT$17hff73dc4d6b73b6f1E', symObjAddr: 0x7BC0, symBinAddr: 0xEBF00, symSize: 0x280 }
  - { offsetInCU: 0x24B64, offset: 0x4E687F, size: 0x8, addend: 0x0, symName: '__ZN4core3ptr45drop_in_place$LT$syn..path..PathArguments$GT$17h9dd953520dcdc907E.llvm.2919429348807089406', symObjAddr: 0x7E40, symBinAddr: 0xEC180, symSize: 0xA0 }
  - { offsetInCU: 0x24D35, offset: 0x4E6A50, size: 0x8, addend: 0x0, symName: '__ZN4core3ptr46drop_in_place$LT$syn..generics..ConstParam$GT$17hcae189adf84ad8c9E.llvm.2919429348807089406', symObjAddr: 0x7EE0, symBinAddr: 0xEC220, symSize: 0x180 }
  - { offsetInCU: 0x2516D, offset: 0x4E6E88, size: 0x8, addend: 0x0, symName: '__ZN4core3ptr46drop_in_place$LT$syn..item..ImplItemMethod$GT$17h81d5acf604d84d52E', symObjAddr: 0x8060, symBinAddr: 0xEC3A0, symSize: 0x240 }
  - { offsetInCU: 0x258EB, offset: 0x4E7606, size: 0x8, addend: 0x0, symName: '__ZN4core3ptr46drop_in_place$LT$syn..item..TraitItemConst$GT$17ha3f3e5595f870971E', symObjAddr: 0x82A0, symBinAddr: 0xEC5E0, symSize: 0x180 }
  - { offsetInCU: 0x25D55, offset: 0x4E7A70, size: 0x8, addend: 0x0, symName: '__ZN4core3ptr47drop_in_place$LT$syn..generics..LifetimeDef$GT$17hd04bc9e6ed9dfb47E.llvm.2919429348807089406', symObjAddr: 0x8420, symBinAddr: 0xEC760, symSize: 0x140 }
  - { offsetInCU: 0x26189, offset: 0x4E7EA4, size: 0x8, addend: 0x0, symName: '__ZN4core3ptr47drop_in_place$LT$syn..generics..WhereClause$GT$17hb4cbc6f597fb20f3E', symObjAddr: 0x8560, symBinAddr: 0xEC8A0, symSize: 0x120 }
  - { offsetInCU: 0x26649, offset: 0x4E8364, size: 0x8, addend: 0x0, symName: '__ZN4core3ptr47drop_in_place$LT$syn..path..GenericArgument$GT$17h8c0a0d8c6deaefb4E.llvm.2919429348807089406', symObjAddr: 0x8680, symBinAddr: 0xEC9C0, symSize: 0x110 }
  - { offsetInCU: 0x26983, offset: 0x4E869E, size: 0x8, addend: 0x0, symName: '__ZN4core3ptr48drop_in_place$LT$syn..generics..GenericParam$GT$17h9292481f35bf25edE.llvm.2919429348807089406', symObjAddr: 0x8790, symBinAddr: 0xECAD0, symSize: 0xF0 }
  - { offsetInCU: 0x26D68, offset: 0x4E8A83, size: 0x8, addend: 0x0, symName: '__ZN4core3ptr49drop_in_place$LT$syn..generics..PredicateType$GT$17h1613bfd7dd5d96f2E.llvm.2919429348807089406', symObjAddr: 0x8880, symBinAddr: 0xECBC0, symSize: 0x1E0 }
  - { offsetInCU: 0x27623, offset: 0x4E933E, size: 0x8, addend: 0x0, symName: '__ZN4core3ptr49drop_in_place$LT$syn..item..ForeignItemStatic$GT$17hfe9f44f9dab5bcd1E', symObjAddr: 0x8A60, symBinAddr: 0xECDA0, symSize: 0x1D0 }
  - { offsetInCU: 0x27EC0, offset: 0x4E9BDB, size: 0x8, addend: 0x0, symName: '__ZN4core3ptr50drop_in_place$LT$$u5b$syn..item..ImplItem$u5d$$GT$17h234f53b7b0028fc3E.llvm.2919429348807089406', symObjAddr: 0x8C30, symBinAddr: 0xECF70, symSize: 0x900 }
  - { offsetInCU: 0x29673, offset: 0x4EB38E, size: 0x8, addend: 0x0, symName: '__ZN4core3ptr50drop_in_place$LT$syn..generics..BoundLifetimes$GT$17hff8599a8d1e3c70cE.llvm.2919429348807089406', symObjAddr: 0x9530, symBinAddr: 0xED870, symSize: 0x110 }
  - { offsetInCU: 0x29AF3, offset: 0x4EB80E, size: 0x8, addend: 0x0, symName: '__ZN4core3ptr50drop_in_place$LT$syn..generics..TypeParamBound$GT$17h8d9a306b4a7f920fE.llvm.2919429348807089406', symObjAddr: 0x9640, symBinAddr: 0xED980, symSize: 0xD0 }
  - { offsetInCU: 0x29E01, offset: 0x4EBB1C, size: 0x8, addend: 0x0, symName: '__ZN4core3ptr50drop_in_place$LT$syn..generics..WherePredicate$GT$17h1fc5b3da95266304E.llvm.2919429348807089406', symObjAddr: 0x9710, symBinAddr: 0xEDA50, symSize: 0x110 }
  - { offsetInCU: 0x29FA1, offset: 0x4EBCBC, size: 0x8, addend: 0x0, symName: '__ZN4core3ptr51drop_in_place$LT$$u5b$syn..attr..Attribute$u5d$$GT$17h98bc8e7c97002f1bE.llvm.2919429348807089406', symObjAddr: 0x9820, symBinAddr: 0xEDB60, symSize: 0xE0 }
  - { offsetInCU: 0x2A1B6, offset: 0x4EBED1, size: 0x8, addend: 0x0, symName: '__ZN4core3ptr51drop_in_place$LT$$u5b$syn..item..TraitItem$u5d$$GT$17h6f6b1abc16bc25ccE.llvm.2919429348807089406', symObjAddr: 0x9900, symBinAddr: 0xEDC40, symSize: 0x1100 }
  - { offsetInCU: 0x2D74A, offset: 0x4EF465, size: 0x8, addend: 0x0, symName: '__ZN4core3ptr53drop_in_place$LT$$u5b$syn..item..ForeignItem$u5d$$GT$17ha5d8369d024c9578E.llvm.2919429348807089406', symObjAddr: 0xAA00, symBinAddr: 0xEED40, symSize: 0x1880 }
  - { offsetInCU: 0x327C4, offset: 0x4F44DF, size: 0x8, addend: 0x0, symName: '__ZN4core3ptr58drop_in_place$LT$alloc..vec..Vec$LT$syn..expr..Arm$GT$$GT$17hf3db0825f3d9c861E.llvm.2919429348807089406', symObjAddr: 0xC2A0, symBinAddr: 0xF05C0, symSize: 0xD0 }
  - { offsetInCU: 0x32A8B, offset: 0x4F47A6, size: 0x8, addend: 0x0, symName: '__ZN4core3ptr59drop_in_place$LT$alloc..boxed..Box$LT$syn..pat..Pat$GT$$GT$17h7037ce9bbd3729c6E.llvm.2919429348807089406', symObjAddr: 0xC370, symBinAddr: 0xF0690, symSize: 0x50 }
  - { offsetInCU: 0x32BE4, offset: 0x4F48FF, size: 0x8, addend: 0x0, symName: '__ZN4core3ptr59drop_in_place$LT$alloc..boxed..Box$LT$syn..ty..Type$GT$$GT$17h2eccd13329dbe4faE.llvm.2919429348807089406', symObjAddr: 0xC3C0, symBinAddr: 0xF06E0, symSize: 0x50 }
  - { offsetInCU: 0x32D3D, offset: 0x4F4A58, size: 0x8, addend: 0x0, symName: '__ZN4core3ptr59drop_in_place$LT$alloc..vec..Vec$LT$syn..item..Item$GT$$GT$17h544d8e20d05b2f97E.llvm.2919429348807089406', symObjAddr: 0xC410, symBinAddr: 0xF0730, symSize: 0xD0 }
  - { offsetInCU: 0x33004, offset: 0x4F4D1F, size: 0x8, addend: 0x0, symName: '__ZN4core3ptr59drop_in_place$LT$alloc..vec..Vec$LT$syn..stmt..Stmt$GT$$GT$17hed4646381107e302E.llvm.2919429348807089406', symObjAddr: 0xC4E0, symBinAddr: 0xF0800, symSize: 0xD0 }
  - { offsetInCU: 0x332CB, offset: 0x4F4FE6, size: 0x8, addend: 0x0, symName: '__ZN4core3ptr61drop_in_place$LT$alloc..boxed..Box$LT$syn..expr..Expr$GT$$GT$17h66094ddc89015516E.llvm.2919429348807089406', symObjAddr: 0xC5B0, symBinAddr: 0xF08D0, symSize: 0x50 }
  - { offsetInCU: 0x33424, offset: 0x4F513F, size: 0x8, addend: 0x0, symName: '__ZN4core3ptr61drop_in_place$LT$alloc..boxed..Box$LT$syn..path..Path$GT$$GT$17h2d3525cb73f7a6b0E', symObjAddr: 0xC600, symBinAddr: 0xF0920, symSize: 0x50 }
  - { offsetInCU: 0x3359A, offset: 0x4F52B5, size: 0x8, addend: 0x0, symName: '__ZN4core3ptr61drop_in_place$LT$syn..path..ParenthesizedGenericArguments$GT$17h21be9b1d7a6fab55E', symObjAddr: 0xC650, symBinAddr: 0xF0970, symSize: 0x170 }
  - { offsetInCU: 0x33B97, offset: 0x4F58B2, size: 0x8, addend: 0x0, symName: '__ZN4core3ptr62drop_in_place$LT$alloc..boxed..Box$LT$syn..data..Field$GT$$GT$17h262ebccfc4519882E', symObjAddr: 0xC7C0, symBinAddr: 0xF0AE0, symSize: 0x50 }
  - { offsetInCU: 0x33D0F, offset: 0x4F5A2A, size: 0x8, addend: 0x0, symName: '__ZN4core3ptr62drop_in_place$LT$alloc..boxed..Box$LT$syn..item..FnArg$GT$$GT$17h0b51ffa358d2119aE', symObjAddr: 0xC810, symBinAddr: 0xF0B30, symSize: 0x60 }
  - { offsetInCU: 0x33E85, offset: 0x4F5BA0, size: 0x8, addend: 0x0, symName: '__ZN4core3ptr62drop_in_place$LT$alloc..boxed..Box$LT$syn..stmt..Block$GT$$GT$17h0633c21446a415f4E', symObjAddr: 0xC870, symBinAddr: 0xF0B90, symSize: 0xE0 }
  - { offsetInCU: 0x342DC, offset: 0x4F5FF7, size: 0x8, addend: 0x0, symName: '__ZN4core3ptr62drop_in_place$LT$alloc..vec..Vec$LT$syn..buffer..Entry$GT$$GT$17hd4c03db647ab81bdE.llvm.2919429348807089406', symObjAddr: 0xC950, symBinAddr: 0xF0C70, symSize: 0xC0 }
  - { offsetInCU: 0x345B4, offset: 0x4F62CF, size: 0x8, addend: 0x0, symName: '__ZN4core3ptr63drop_in_place$LT$alloc..vec..Vec$LT$syn..item..ImplItem$GT$$GT$17ha4d5b54edb0d5cb7E.llvm.2919429348807089406', symObjAddr: 0xCA10, symBinAddr: 0xF0D30, symSize: 0x80 }
  - { offsetInCU: 0x3486C, offset: 0x4F6587, size: 0x8, addend: 0x0, symName: '__ZN4core3ptr64drop_in_place$LT$alloc..boxed..Box$LT$syn..data..Variant$GT$$GT$17hc82ad80f9b8d8bfeE', symObjAddr: 0xCA90, symBinAddr: 0xF0DB0, symSize: 0x50 }
  - { offsetInCU: 0x349C5, offset: 0x4F66E0, size: 0x8, addend: 0x0, symName: '__ZN4core3ptr64drop_in_place$LT$alloc..boxed..Box$LT$syn..item..UseTree$GT$$GT$17h2fbb30105f88b737E', symObjAddr: 0xCAE0, symBinAddr: 0xF0E00, symSize: 0x50 }
  - { offsetInCU: 0x34B5C, offset: 0x4F6877, size: 0x8, addend: 0x0, symName: '__ZN4core3ptr64drop_in_place$LT$alloc..boxed..Box$LT$syn..pat..FieldPat$GT$$GT$17hb167b355d0d4733fE', symObjAddr: 0xCB30, symBinAddr: 0xF0E50, symSize: 0x100 }
  - { offsetInCU: 0x35221, offset: 0x4F6F3C, size: 0x8, addend: 0x0, symName: '__ZN4core3ptr64drop_in_place$LT$alloc..boxed..Box$LT$syn..ty..BareFnArg$GT$$GT$17h6488be9448346678E', symObjAddr: 0xCC30, symBinAddr: 0xF0F50, symSize: 0xE0 }
  - { offsetInCU: 0x3575F, offset: 0x4F747A, size: 0x8, addend: 0x0, symName: '__ZN4core3ptr64drop_in_place$LT$alloc..vec..Vec$LT$syn..attr..Attribute$GT$$GT$17h386324d8ea9bc309E.llvm.2919429348807089406', symObjAddr: 0xCD10, symBinAddr: 0xF1030, symSize: 0xF0 }
  - { offsetInCU: 0x35A3F, offset: 0x4F775A, size: 0x8, addend: 0x0, symName: '__ZN4core3ptr64drop_in_place$LT$alloc..vec..Vec$LT$syn..item..TraitItem$GT$$GT$17h0ef3c4b7ce592e9eE.llvm.2919429348807089406', symObjAddr: 0xCE00, symBinAddr: 0xF1120, symSize: 0x80 }
  - { offsetInCU: 0x35CF7, offset: 0x4F7A12, size: 0x8, addend: 0x0, symName: '__ZN4core3ptr65drop_in_place$LT$$LP$syn..item..FnArg$C$syn..token..Comma$RP$$GT$17h36dd53979a5809e4E.llvm.2919429348807089406', symObjAddr: 0xCE80, symBinAddr: 0xF11A0, symSize: 0x20 }
  - { offsetInCU: 0x35D33, offset: 0x4F7A4E, size: 0x8, addend: 0x0, symName: '__ZN4core3ptr65drop_in_place$LT$alloc..vec..Vec$LT$proc_macro..TokenTree$GT$$GT$17hc3670dd5608d5259E.llvm.2919429348807089406', symObjAddr: 0xCEA0, symBinAddr: 0xF11C0, symSize: 0x110 }
  - { offsetInCU: 0x36132, offset: 0x4F7E4D, size: 0x8, addend: 0x0, symName: '__ZN4core3ptr65drop_in_place$LT$core..option..Option$LT$syn..expr..Label$GT$$GT$17ha723640fd01bec5dE', symObjAddr: 0xD070, symBinAddr: 0xF12D0, symSize: 0x30 }
  - { offsetInCU: 0x3626C, offset: 0x4F7F87, size: 0x8, addend: 0x0, symName: '__ZN4core3ptr65drop_in_place$LT$core..option..Option$LT$syn..stmt..Block$GT$$GT$17hdff81fd7cb2986caE', symObjAddr: 0xD0A0, symBinAddr: 0xF1300, symSize: 0xD0 }
  - { offsetInCU: 0x3657F, offset: 0x4F829A, size: 0x8, addend: 0x0, symName: '__ZN4core3ptr66drop_in_place$LT$alloc..vec..Vec$LT$proc_macro2..TokenTree$GT$$GT$17h10186b8404a77a46E', symObjAddr: 0xD170, symBinAddr: 0xF13D0, symSize: 0xC0 }
  - { offsetInCU: 0x36857, offset: 0x4F8572, size: 0x8, addend: 0x0, symName: '__ZN4core3ptr66drop_in_place$LT$alloc..vec..Vec$LT$syn..item..ForeignItem$GT$$GT$17hc5d281d65e9f4398E.llvm.2919429348807089406', symObjAddr: 0xD230, symBinAddr: 0xF1490, symSize: 0x80 }
  - { offsetInCU: 0x36B0F, offset: 0x4F882A, size: 0x8, addend: 0x0, symName: '__ZN4core3ptr67drop_in_place$LT$$LP$syn..pat..FieldPat$C$syn..token..Comma$RP$$GT$17h28f8e87199173f9eE.llvm.2919429348807089406', symObjAddr: 0xD2B0, symBinAddr: 0xF1510, symSize: 0xF0 }
  - { offsetInCU: 0x37062, offset: 0x4F8D7D, size: 0x8, addend: 0x0, symName: '__ZN4core3ptr67drop_in_place$LT$$LP$syn..ty..BareFnArg$C$syn..token..Comma$RP$$GT$17h9078c1a50219df0bE.llvm.2919429348807089406', symObjAddr: 0xD3A0, symBinAddr: 0xF1600, symSize: 0xD0 }
  - { offsetInCU: 0x3749C, offset: 0x4F91B7, size: 0x8, addend: 0x0, symName: '__ZN4core3ptr67drop_in_place$LT$alloc..boxed..Box$LT$syn..attr..NestedMeta$GT$$GT$17hd0c3b988a8621445E.llvm.2919429348807089406', symObjAddr: 0xD470, symBinAddr: 0xF16D0, symSize: 0xB0 }
  - { offsetInCU: 0x37659, offset: 0x4F9374, size: 0x8, addend: 0x0, symName: '__ZN4core3ptr67drop_in_place$LT$alloc..boxed..Box$LT$syn..expr..FieldValue$GT$$GT$17h8df780aa600ea8c2E', symObjAddr: 0xD520, symBinAddr: 0xF1780, symSize: 0xE0 }
  - { offsetInCU: 0x37B77, offset: 0x4F9892, size: 0x8, addend: 0x0, symName: '__ZN4core3ptr68drop_in_place$LT$alloc..boxed..Box$LT$syn..path..PathSegment$GT$$GT$17h1957b54eed39c0bbE.llvm.2919429348807089406', symObjAddr: 0xD600, symBinAddr: 0xF1860, symSize: 0x170 }
  - { offsetInCU: 0x3825A, offset: 0x4F9F75, size: 0x8, addend: 0x0, symName: '__ZN4core3ptr70drop_in_place$LT$$LP$syn..attr..NestedMeta$C$syn..token..Comma$RP$$GT$17he1b545a7aa3daf93E.llvm.2919429348807089406', symObjAddr: 0xD7F0, symBinAddr: 0xF19D0, symSize: 0x90 }
  - { offsetInCU: 0x382C4, offset: 0x4F9FDF, size: 0x8, addend: 0x0, symName: '__ZN4core3ptr70drop_in_place$LT$$LP$syn..expr..FieldValue$C$syn..token..Comma$RP$$GT$17he025dc5053bc6a8bE.llvm.2919429348807089406', symObjAddr: 0xD880, symBinAddr: 0xF1A60, symSize: 0xD0 }
  - { offsetInCU: 0x386BF, offset: 0x4FA3DA, size: 0x8, addend: 0x0, symName: '__ZN4core3ptr72drop_in_place$LT$$LP$syn..path..PathSegment$C$syn..token..Colon2$RP$$GT$17h1baf491dcf9e7063E.llvm.2919429348807089406', symObjAddr: 0xD950, symBinAddr: 0xF1B30, symSize: 0xC0 }
  - { offsetInCU: 0x38982, offset: 0x4FA69D, size: 0x8, addend: 0x0, symName: '__ZN4core3ptr72drop_in_place$LT$alloc..boxed..Box$LT$syn..generics..LifetimeDef$GT$$GT$17h05409fc29b94598aE.llvm.2919429348807089406', symObjAddr: 0xDA10, symBinAddr: 0xF1BF0, symSize: 0xC0 }
  - { offsetInCU: 0x38EAC, offset: 0x4FABC7, size: 0x8, addend: 0x0, symName: '__ZN4core3ptr72drop_in_place$LT$alloc..boxed..Box$LT$syn..path..GenericArgument$GT$$GT$17ha8f8136d0c2b505bE.llvm.2919429348807089406', symObjAddr: 0xDAD0, symBinAddr: 0xF1CB0, symSize: 0x1D0 }
  - { offsetInCU: 0x39610, offset: 0x4FB32B, size: 0x8, addend: 0x0, symName: '__ZN4core3ptr73drop_in_place$LT$alloc..boxed..Box$LT$syn..generics..GenericParam$GT$$GT$17he12c7a4a5320b13eE', symObjAddr: 0xDCA0, symBinAddr: 0xF1E80, symSize: 0x80 }
  - { offsetInCU: 0x39786, offset: 0x4FB4A1, size: 0x8, addend: 0x0, symName: '__ZN4core3ptr75drop_in_place$LT$$LP$syn..generics..LifetimeDef$C$syn..token..Comma$RP$$GT$17h3ec14722aacb36caE.llvm.2919429348807089406', symObjAddr: 0xDD20, symBinAddr: 0xF1F00, symSize: 0xB0 }
  - { offsetInCU: 0x39B6D, offset: 0x4FB888, size: 0x8, addend: 0x0, symName: '__ZN4core3ptr75drop_in_place$LT$$LP$syn..path..GenericArgument$C$syn..token..Comma$RP$$GT$17hae99285c368746d4E.llvm.2919429348807089406', symObjAddr: 0xDDD0, symBinAddr: 0xF1FB0, symSize: 0x1E0 }
  - { offsetInCU: 0x3A12F, offset: 0x4FBE4A, size: 0x8, addend: 0x0, symName: '__ZN4core3ptr75drop_in_place$LT$alloc..boxed..Box$LT$syn..generics..TypeParamBound$GT$$GT$17h8f156ce07ea0b8b2E', symObjAddr: 0xDFB0, symBinAddr: 0xF2190, symSize: 0xA0 }
  - { offsetInCU: 0x3A409, offset: 0x4FC124, size: 0x8, addend: 0x0, symName: '__ZN4core3ptr75drop_in_place$LT$alloc..boxed..Box$LT$syn..generics..WherePredicate$GT$$GT$17he9159676146cdcc0E', symObjAddr: 0xE050, symBinAddr: 0xF2230, symSize: 0xD0 }
  - { offsetInCU: 0x3A6B1, offset: 0x4FC3CC, size: 0x8, addend: 0x0, symName: '__ZN4core3ptr76drop_in_place$LT$$LP$syn..generics..GenericParam$C$syn..token..Comma$RP$$GT$17hb608b85cca720f66E.llvm.2919429348807089406', symObjAddr: 0xE120, symBinAddr: 0xF2300, symSize: 0x50 }
  - { offsetInCU: 0x3A6ED, offset: 0x4FC408, size: 0x8, addend: 0x0, symName: '__ZN4core3ptr76drop_in_place$LT$$LP$syn..generics..TypeParamBound$C$syn..token..Add$RP$$GT$17h559c9012209c93bfE.llvm.2919429348807089406', symObjAddr: 0xE170, symBinAddr: 0xF2350, symSize: 0x80 }
  - { offsetInCU: 0x3A889, offset: 0x4FC5A4, size: 0x8, addend: 0x0, symName: '__ZN4core3ptr78drop_in_place$LT$$LP$syn..generics..WherePredicate$C$syn..token..Comma$RP$$GT$17he7c688f56dbd96f3E.llvm.2919429348807089406', symObjAddr: 0xE1F0, symBinAddr: 0xF23D0, symSize: 0xA0 }
  - { offsetInCU: 0x3AA01, offset: 0x4FC71C, size: 0x8, addend: 0x0, symName: '__ZN4core3ptr78drop_in_place$LT$alloc..boxed..Box$LT$syn..expr..GenericMethodArgument$GT$$GT$17h3384c00b5bd54c2aE', symObjAddr: 0xE290, symBinAddr: 0xF2470, symSize: 0x60 }
  - { offsetInCU: 0x3AB77, offset: 0x4FC892, size: 0x8, addend: 0x0, symName: '__ZN4core3ptr81drop_in_place$LT$$LP$syn..expr..GenericMethodArgument$C$syn..token..Comma$RP$$GT$17h6cb8506ab56d85d6E.llvm.2919429348807089406', symObjAddr: 0xE370, symBinAddr: 0xF24D0, symSize: 0x30 }
  - { offsetInCU: 0x3AC10, offset: 0x4FC92B, size: 0x8, addend: 0x0, symName: '__ZN4core3ptr82drop_in_place$LT$alloc..vec..Vec$LT$$LP$syn..pat..Pat$C$syn..token..Or$RP$$GT$$GT$17he4f1446f4dd0391dE.llvm.2919429348807089406', symObjAddr: 0xE3A0, symBinAddr: 0xF2500, symSize: 0xD0 }
  - { offsetInCU: 0x3AF0F, offset: 0x4FCC2A, size: 0x8, addend: 0x0, symName: '__ZN4core3ptr85drop_in_place$LT$alloc..vec..Vec$LT$$LP$syn..pat..Pat$C$syn..token..Comma$RP$$GT$$GT$17h8ead75bf9213bc10E.llvm.2919429348807089406', symObjAddr: 0xE470, symBinAddr: 0xF25D0, symSize: 0xD0 }
  - { offsetInCU: 0x3B20E, offset: 0x4FCF29, size: 0x8, addend: 0x0, symName: '__ZN4core3ptr85drop_in_place$LT$alloc..vec..Vec$LT$$LP$syn..ty..Type$C$syn..token..Comma$RP$$GT$$GT$17h2558a6f370e75802E.llvm.2919429348807089406', symObjAddr: 0xE540, symBinAddr: 0xF26A0, symSize: 0xD0 }
  - { offsetInCU: 0x3B509, offset: 0x4FD224, size: 0x8, addend: 0x0, symName: '__ZN4core3ptr86drop_in_place$LT$$LP$syn..token..If$C$alloc..boxed..Box$LT$syn..expr..Expr$GT$$RP$$GT$17he48bd3f744075dddE', symObjAddr: 0xE610, symBinAddr: 0xF2770, symSize: 0x50 }
  - { offsetInCU: 0x3B681, offset: 0x4FD39C, size: 0x8, addend: 0x0, symName: '__ZN4core3ptr86drop_in_place$LT$$u5b$$LP$syn..generics..TypeParamBound$C$syn..token..Add$RP$$u5d$$GT$17h0b00def6dc905f2cE', symObjAddr: 0xE660, symBinAddr: 0xF27C0, symSize: 0xE0 }
  - { offsetInCU: 0x3B857, offset: 0x4FD572, size: 0x8, addend: 0x0, symName: '__ZN4core3ptr86drop_in_place$LT$syn..punctuated..Punctuated$LT$syn..pat..Pat$C$syn..token..Or$GT$$GT$17h1078c5d178d382b7E', symObjAddr: 0xE740, symBinAddr: 0xF28A0, symSize: 0x120 }
  - { offsetInCU: 0x3BD4D, offset: 0x4FDA68, size: 0x8, addend: 0x0, symName: '__ZN4core3ptr87drop_in_place$LT$alloc..vec..Vec$LT$$LP$syn..expr..Expr$C$syn..token..Comma$RP$$GT$$GT$17ha5588c79c88b2eb2E.llvm.2919429348807089406', symObjAddr: 0xE860, symBinAddr: 0xF29C0, symSize: 0xD0 }
  - { offsetInCU: 0x3C048, offset: 0x4FDD63, size: 0x8, addend: 0x0, symName: '__ZN4core3ptr87drop_in_place$LT$core..option..Option$LT$alloc..boxed..Box$LT$syn..pat..Pat$GT$$GT$$GT$17ha7f5fe0e6f73e820E', symObjAddr: 0xE930, symBinAddr: 0xF2A90, symSize: 0x50 }
  - { offsetInCU: 0x3C1B8, offset: 0x4FDED3, size: 0x8, addend: 0x0, symName: '__ZN4core3ptr87drop_in_place$LT$core..option..Option$LT$alloc..boxed..Box$LT$syn..ty..Type$GT$$GT$$GT$17hc8292da82d129de3E', symObjAddr: 0xE980, symBinAddr: 0xF2AE0, symSize: 0x50 }
  - { offsetInCU: 0x3C328, offset: 0x4FE043, size: 0x8, addend: 0x0, symName: '__ZN4core3ptr88drop_in_place$LT$alloc..vec..Vec$LT$$LP$syn..data..Field$C$syn..token..Comma$RP$$GT$$GT$17h92f883c9746a1265E.llvm.2919429348807089406', symObjAddr: 0xE9D0, symBinAddr: 0xF2B30, symSize: 0xD0 }
  - { offsetInCU: 0x3C623, offset: 0x4FE33E, size: 0x8, addend: 0x0, symName: '__ZN4core3ptr88drop_in_place$LT$alloc..vec..Vec$LT$$LP$syn..item..FnArg$C$syn..token..Comma$RP$$GT$$GT$17h4467406a7c8f89d5E.llvm.2919429348807089406', symObjAddr: 0xEAA0, symBinAddr: 0xF2C00, symSize: 0xC0 }
  - { offsetInCU: 0x3C91C, offset: 0x4FE637, size: 0x8, addend: 0x0, symName: '__ZN4core3ptr89drop_in_place$LT$core..option..Option$LT$alloc..boxed..Box$LT$syn..expr..Expr$GT$$GT$$GT$17hdc211ccd33f196f2E', symObjAddr: 0xEB60, symBinAddr: 0xF2CC0, symSize: 0x50 }
  - { offsetInCU: 0x3CA8C, offset: 0x4FE7A7, size: 0x8, addend: 0x0, symName: '__ZN4core3ptr89drop_in_place$LT$syn..punctuated..Punctuated$LT$syn..ty..Type$C$syn..token..Comma$GT$$GT$17h1c6e43341fabea97E.llvm.2919429348807089406', symObjAddr: 0xEBB0, symBinAddr: 0xF2D10, symSize: 0x120 }
  - { offsetInCU: 0x3CF6B, offset: 0x4FEC86, size: 0x8, addend: 0x0, symName: '__ZN4core3ptr90drop_in_place$LT$alloc..vec..Vec$LT$$LP$syn..data..Variant$C$syn..token..Comma$RP$$GT$$GT$17h7886d5ad254619b6E.llvm.2919429348807089406', symObjAddr: 0xECD0, symBinAddr: 0xF2E30, symSize: 0xD0 }
  - { offsetInCU: 0x3D266, offset: 0x4FEF81, size: 0x8, addend: 0x0, symName: '__ZN4core3ptr90drop_in_place$LT$alloc..vec..Vec$LT$$LP$syn..item..UseTree$C$syn..token..Comma$RP$$GT$$GT$17hd641cf5199af6a96E.llvm.2919429348807089406', symObjAddr: 0xEDA0, symBinAddr: 0xF2F00, symSize: 0xC0 }
  - { offsetInCU: 0x3D59D, offset: 0x4FF2B8, size: 0x8, addend: 0x0, symName: '__ZN4core3ptr90drop_in_place$LT$alloc..vec..Vec$LT$$LP$syn..pat..FieldPat$C$syn..token..Comma$RP$$GT$$GT$17h821f3c6217b2c623E.llvm.2919429348807089406', symObjAddr: 0xEE60, symBinAddr: 0xF2FC0, symSize: 0xD0 }
  - { offsetInCU: 0x3D8A4, offset: 0x4FF5BF, size: 0x8, addend: 0x0, symName: '__ZN4core3ptr90drop_in_place$LT$alloc..vec..Vec$LT$$LP$syn..ty..BareFnArg$C$syn..token..Comma$RP$$GT$$GT$17hb8d63f816cfff9deE.llvm.2919429348807089406', symObjAddr: 0xEF30, symBinAddr: 0xF3090, symSize: 0xD0 }
  - { offsetInCU: 0x3DB6B, offset: 0x4FF886, size: 0x8, addend: 0x0, symName: '__ZN4core3ptr90drop_in_place$LT$core..option..Option$LT$alloc..boxed..Box$LT$syn..data..Field$GT$$GT$$GT$17he146e9f4e32c136fE', symObjAddr: 0xF000, symBinAddr: 0xF3160, symSize: 0x50 }
  - { offsetInCU: 0x3DCDB, offset: 0x4FF9F6, size: 0x8, addend: 0x0, symName: '__ZN4core3ptr90drop_in_place$LT$core..option..Option$LT$alloc..boxed..Box$LT$syn..item..FnArg$GT$$GT$$GT$17ha72e545cf6ea6548E', symObjAddr: 0xF050, symBinAddr: 0xF31B0, symSize: 0x50 }
  - { offsetInCU: 0x3DE6A, offset: 0x4FFB85, size: 0x8, addend: 0x0, symName: '__ZN4core3ptr91drop_in_place$LT$syn..punctuated..Punctuated$LT$syn..expr..Expr$C$syn..token..Comma$GT$$GT$17hd2dfeb0c522d9a18E', symObjAddr: 0xF0A0, symBinAddr: 0xF3200, symSize: 0x120 }
  - { offsetInCU: 0x3E2FF, offset: 0x50001A, size: 0x8, addend: 0x0, symName: '__ZN4core3ptr92drop_in_place$LT$core..option..Option$LT$$LP$syn..token..As$C$proc_macro2..Ident$RP$$GT$$GT$17hdb8e08992a006501E', symObjAddr: 0xF1C0, symBinAddr: 0xF3320, symSize: 0x30 }
  - { offsetInCU: 0x3E41A, offset: 0x500135, size: 0x8, addend: 0x0, symName: '__ZN4core3ptr92drop_in_place$LT$syn..punctuated..Punctuated$LT$syn..data..Field$C$syn..token..Comma$GT$$GT$17h907c4fed8ae64bc3E', symObjAddr: 0xF1F0, symBinAddr: 0xF3350, symSize: 0x120 }
  - { offsetInCU: 0x3E89C, offset: 0x5005B7, size: 0x8, addend: 0x0, symName: '__ZN4core3ptr92drop_in_place$LT$syn..punctuated..Punctuated$LT$syn..item..FnArg$C$syn..token..Comma$GT$$GT$17h3049a14d789de61dE', symObjAddr: 0xF310, symBinAddr: 0xF3470, symSize: 0x150 }
  - { offsetInCU: 0x3ED2D, offset: 0x500A48, size: 0x8, addend: 0x0, symName: '__ZN4core3ptr93drop_in_place$LT$alloc..vec..Vec$LT$$LP$syn..attr..NestedMeta$C$syn..token..Comma$RP$$GT$$GT$17h53ae1922cd101034E.llvm.2919429348807089406', symObjAddr: 0xF460, symBinAddr: 0xF35C0, symSize: 0xD0 }
  - { offsetInCU: 0x3F061, offset: 0x500D7C, size: 0x8, addend: 0x0, symName: '__ZN4core3ptr93drop_in_place$LT$alloc..vec..Vec$LT$$LP$syn..expr..FieldValue$C$syn..token..Comma$RP$$GT$$GT$17hd798ac33b9d22184E.llvm.2919429348807089406', symObjAddr: 0xF530, symBinAddr: 0xF3690, symSize: 0xD0 }
  - { offsetInCU: 0x3F385, offset: 0x5010A0, size: 0x8, addend: 0x0, symName: '__ZN4core3ptr93drop_in_place$LT$alloc..vec..Vec$LT$$LP$syn..lifetime..Lifetime$C$syn..token..Add$RP$$GT$$GT$17hde298d17c652af62E.llvm.2919429348807089406', symObjAddr: 0xF600, symBinAddr: 0xF3760, symSize: 0x90 }
  - { offsetInCU: 0x3F686, offset: 0x5013A1, size: 0x8, addend: 0x0, symName: '__ZN4core3ptr94drop_in_place$LT$syn..punctuated..Punctuated$LT$syn..data..Variant$C$syn..token..Comma$GT$$GT$17hb4480d65f74dc9d7E', symObjAddr: 0xF690, symBinAddr: 0xF37F0, symSize: 0x120 }
  - { offsetInCU: 0x3FB59, offset: 0x501874, size: 0x8, addend: 0x0, symName: '__ZN4core3ptr94drop_in_place$LT$syn..punctuated..Punctuated$LT$syn..pat..FieldPat$C$syn..token..Comma$GT$$GT$17h612cbc9066d5afb1E', symObjAddr: 0xF7B0, symBinAddr: 0xF3910, symSize: 0xF0 }
  - { offsetInCU: 0x3FEB0, offset: 0x501BCB, size: 0x8, addend: 0x0, symName: '__ZN4core3ptr94drop_in_place$LT$syn..punctuated..Punctuated$LT$syn..ty..BareFnArg$C$syn..token..Comma$GT$$GT$17ha9a668ce9972795bE', symObjAddr: 0xF8A0, symBinAddr: 0xF3A00, symSize: 0xF0 }
  - { offsetInCU: 0x401C7, offset: 0x501EE2, size: 0x8, addend: 0x0, symName: '__ZN4core3ptr95drop_in_place$LT$alloc..vec..Vec$LT$$LP$syn..path..PathSegment$C$syn..token..Colon2$RP$$GT$$GT$17hd4ac5ab6c0f8b220E.llvm.2919429348807089406', symObjAddr: 0xF990, symBinAddr: 0xF3AF0, symSize: 0x100 }
  - { offsetInCU: 0x405A3, offset: 0x5022BE, size: 0x8, addend: 0x0, symName: '__ZN4core3ptr95drop_in_place$LT$core..option..Option$LT$$LP$proc_macro2..Ident$C$syn..token..Colon$RP$$GT$$GT$17h7314df562090eafdE.llvm.2919429348807089406', symObjAddr: 0xFA90, symBinAddr: 0xF3BF0, symSize: 0x30 }
  - { offsetInCU: 0x406BE, offset: 0x5023D9, size: 0x8, addend: 0x0, symName: '__ZN4core3ptr95drop_in_place$LT$core..option..Option$LT$alloc..boxed..Box$LT$syn..attr..NestedMeta$GT$$GT$$GT$17hc6a9c17daba692ddE.llvm.2919429348807089406', symObjAddr: 0xFAC0, symBinAddr: 0xF3C20, symSize: 0x50 }
  - { offsetInCU: 0x4082E, offset: 0x502549, size: 0x8, addend: 0x0, symName: '__ZN4core3ptr96drop_in_place$LT$core..option..Option$LT$alloc..boxed..Box$LT$syn..path..PathSegment$GT$$GT$$GT$17h2e81cbe3c70bb71cE.llvm.2919429348807089406', symObjAddr: 0xFB10, symBinAddr: 0xF3C70, symSize: 0x50 }
  - { offsetInCU: 0x4099E, offset: 0x5026B9, size: 0x8, addend: 0x0, symName: '__ZN4core3ptr97drop_in_place$LT$syn..punctuated..Punctuated$LT$syn..attr..NestedMeta$C$syn..token..Comma$GT$$GT$17h975d4de078ee9c5cE.llvm.2919429348807089406', symObjAddr: 0xFB60, symBinAddr: 0xF3CC0, symSize: 0x190 }
  - { offsetInCU: 0x40D3E, offset: 0x502A59, size: 0x8, addend: 0x0, symName: '__ZN4core3ptr97drop_in_place$LT$syn..punctuated..Punctuated$LT$syn..expr..FieldValue$C$syn..token..Comma$GT$$GT$17h11a5fffb46adfb11E', symObjAddr: 0xFCF0, symBinAddr: 0xF3E50, symSize: 0xF0 }
  - { offsetInCU: 0x410B2, offset: 0x502DCD, size: 0x8, addend: 0x0, symName: '__ZN4core3ptr97drop_in_place$LT$syn..punctuated..Punctuated$LT$syn..lifetime..Lifetime$C$syn..token..Add$GT$$GT$17h5c54dea2c838d109E.llvm.2919429348807089406', symObjAddr: 0xFDE0, symBinAddr: 0xF3F40, symSize: 0xD0 }
  - { offsetInCU: 0x41524, offset: 0x50323F, size: 0x8, addend: 0x0, symName: '__ZN4core3ptr98drop_in_place$LT$alloc..vec..Vec$LT$$LP$syn..generics..LifetimeDef$C$syn..token..Comma$RP$$GT$$GT$17h1ff3008828a3546eE.llvm.2919429348807089406', symObjAddr: 0xFEB0, symBinAddr: 0xF4010, symSize: 0xC0 }
  - { offsetInCU: 0x4181D, offset: 0x503538, size: 0x8, addend: 0x0, symName: '__ZN4core3ptr98drop_in_place$LT$alloc..vec..Vec$LT$$LP$syn..path..GenericArgument$C$syn..token..Comma$RP$$GT$$GT$17ha8e33b474744c469E.llvm.2919429348807089406', symObjAddr: 0xFF70, symBinAddr: 0xF40D0, symSize: 0xD0 }
  - { offsetInCU: 0x41B18, offset: 0x503833, size: 0x8, addend: 0x0, symName: '__ZN4core3ptr99drop_in_place$LT$alloc..vec..Vec$LT$$LP$syn..generics..GenericParam$C$syn..token..Comma$RP$$GT$$GT$17h6a63382b7b118436E.llvm.2919429348807089406', symObjAddr: 0x10040, symBinAddr: 0xF41A0, symSize: 0xD0 }
  - { offsetInCU: 0x41E13, offset: 0x503B2E, size: 0x8, addend: 0x0, symName: '__ZN4core3ptr99drop_in_place$LT$alloc..vec..Vec$LT$$LP$syn..generics..TypeParamBound$C$syn..token..Add$RP$$GT$$GT$17h1faee7dfcf042dc4E.llvm.2919429348807089406', symObjAddr: 0x10110, symBinAddr: 0xF4270, symSize: 0xC0 }
  - { offsetInCU: 0x4210C, offset: 0x503E27, size: 0x8, addend: 0x0, symName: '__ZN4core3ptr99drop_in_place$LT$syn..punctuated..Punctuated$LT$syn..path..PathSegment$C$syn..token..Colon2$GT$$GT$17hb961e4d7989a33ceE.llvm.2919429348807089406', symObjAddr: 0x101D0, symBinAddr: 0xF4330, symSize: 0xF0 }
  - { offsetInCU: 0x48105, offset: 0x509E20, size: 0x8, addend: 0x0, symName: '__ZN48_$LT$T$u20$as$u20$core..clone..CloneToUninit$GT$15clone_to_uninit17h4ec7541d8e1e05f7E', symObjAddr: 0x220, symBinAddr: 0xE4560, symSize: 0x340 }
  - { offsetInCU: 0x49630, offset: 0x50B34B, size: 0x8, addend: 0x0, symName: '__ZN136_$LT$alloc..vec..Vec$LT$T$C$A$GT$$u20$as$u20$alloc..vec..spec_extend..SpecExtend$LT$T$C$alloc..vec..into_iter..IntoIter$LT$T$GT$$GT$$GT$11spec_extend17h8843d0dbc1b1f870E', symObjAddr: 0x20, symBinAddr: 0xE44B0, symSize: 0xB0 }
  - { offsetInCU: 0x49963, offset: 0x50B67E, size: 0x8, addend: 0x0, symName: '__ZN97_$LT$alloc..vec..Vec$LT$T$C$A$GT$$u20$as$u20$alloc..vec..spec_extend..SpecExtend$LT$T$C$I$GT$$GT$11spec_extend17hd5c233121a9f5638E', symObjAddr: 0x14720, symBinAddr: 0xF6DD0, symSize: 0x330 }
  - { offsetInCU: 0x4A998, offset: 0x50C6B3, size: 0x8, addend: 0x0, symName: '__ZN65_$LT$alloc..vec..Vec$LT$T$C$A$GT$$u20$as$u20$core..fmt..Debug$GT$3fmt17h4b81b50d8fe38c59E', symObjAddr: 0x106C0, symBinAddr: 0xF44B0, symSize: 0x80 }
  - { offsetInCU: 0x4AB7B, offset: 0x50C896, size: 0x8, addend: 0x0, symName: '__ZN65_$LT$alloc..vec..Vec$LT$T$C$A$GT$$u20$as$u20$core..fmt..Debug$GT$3fmt17hf50488d82a0ae802E', symObjAddr: 0x10940, symBinAddr: 0xF4530, symSize: 0x80 }
  - { offsetInCU: 0x4ADBC, offset: 0x50CAD7, size: 0x8, addend: 0x0, symName: '__ZN67_$LT$alloc..vec..Vec$LT$T$C$A$GT$$u20$as$u20$core..clone..Clone$GT$5clone17h067ba7b3e9618fa6E', symObjAddr: 0x109C0, symBinAddr: 0xF45B0, symSize: 0x140 }
  - { offsetInCU: 0x4B24E, offset: 0x50CF69, size: 0x8, addend: 0x0, symName: '__ZN67_$LT$alloc..vec..Vec$LT$T$C$A$GT$$u20$as$u20$core..clone..Clone$GT$5clone17h0f27e1d119576456E', symObjAddr: 0x10C70, symBinAddr: 0xF46F0, symSize: 0x170 }
  - { offsetInCU: 0x4B7B3, offset: 0x50D4CE, size: 0x8, addend: 0x0, symName: '__ZN67_$LT$alloc..vec..Vec$LT$T$C$A$GT$$u20$as$u20$core..clone..Clone$GT$5clone17h0f34a8bef598482cE', symObjAddr: 0x10DE0, symBinAddr: 0xF4860, symSize: 0x140 }
  - { offsetInCU: 0x4BBF2, offset: 0x50D90D, size: 0x8, addend: 0x0, symName: '__ZN67_$LT$alloc..vec..Vec$LT$T$C$A$GT$$u20$as$u20$core..clone..Clone$GT$5clone17h1e9d5b5197ca3b27E', symObjAddr: 0x10F20, symBinAddr: 0xF49A0, symSize: 0x140 }
  - { offsetInCU: 0x4C031, offset: 0x50DD4C, size: 0x8, addend: 0x0, symName: '__ZN67_$LT$alloc..vec..Vec$LT$T$C$A$GT$$u20$as$u20$core..clone..Clone$GT$5clone17h3324310790ff34b9E', symObjAddr: 0x11060, symBinAddr: 0xF4AE0, symSize: 0x150 }
  - { offsetInCU: 0x4C4CC, offset: 0x50E1E7, size: 0x8, addend: 0x0, symName: '__ZN67_$LT$alloc..vec..Vec$LT$T$C$A$GT$$u20$as$u20$core..clone..Clone$GT$5clone17h39a7f38aecdcfd11E', symObjAddr: 0x111B0, symBinAddr: 0xF4C30, symSize: 0x170 }
  - { offsetInCU: 0x4C965, offset: 0x50E680, size: 0x8, addend: 0x0, symName: '__ZN67_$LT$alloc..vec..Vec$LT$T$C$A$GT$$u20$as$u20$core..clone..Clone$GT$5clone17h4551f673e813c809E', symObjAddr: 0x11320, symBinAddr: 0xF4DA0, symSize: 0x140 }
  - { offsetInCU: 0x4CDA1, offset: 0x50EABC, size: 0x8, addend: 0x0, symName: '__ZN67_$LT$alloc..vec..Vec$LT$T$C$A$GT$$u20$as$u20$core..clone..Clone$GT$5clone17h4b655b5cddcadd6aE', symObjAddr: 0x11460, symBinAddr: 0xF4EE0, symSize: 0x150 }
  - { offsetInCU: 0x4D23C, offset: 0x50EF57, size: 0x8, addend: 0x0, symName: '__ZN67_$LT$alloc..vec..Vec$LT$T$C$A$GT$$u20$as$u20$core..clone..Clone$GT$5clone17h4b9e2160401b16dbE', symObjAddr: 0x115B0, symBinAddr: 0xF5030, symSize: 0x1F0 }
  - { offsetInCU: 0x4D762, offset: 0x50F47D, size: 0x8, addend: 0x0, symName: '__ZN67_$LT$alloc..vec..Vec$LT$T$C$A$GT$$u20$as$u20$core..clone..Clone$GT$5clone17h60e34a1d98492b9fE', symObjAddr: 0x117A0, symBinAddr: 0xF5220, symSize: 0x140 }
  - { offsetInCU: 0x4DBA1, offset: 0x50F8BC, size: 0x8, addend: 0x0, symName: '__ZN67_$LT$alloc..vec..Vec$LT$T$C$A$GT$$u20$as$u20$core..clone..Clone$GT$5clone17h636bcaf8346666b7E', symObjAddr: 0x118E0, symBinAddr: 0xF5360, symSize: 0x150 }
  - { offsetInCU: 0x4E03C, offset: 0x50FD57, size: 0x8, addend: 0x0, symName: '__ZN67_$LT$alloc..vec..Vec$LT$T$C$A$GT$$u20$as$u20$core..clone..Clone$GT$5clone17h65a8d92620c35388E', symObjAddr: 0x11A30, symBinAddr: 0xF54B0, symSize: 0x140 }
  - { offsetInCU: 0x4E4CE, offset: 0x5101E9, size: 0x8, addend: 0x0, symName: '__ZN67_$LT$alloc..vec..Vec$LT$T$C$A$GT$$u20$as$u20$core..clone..Clone$GT$5clone17h6fe6598834fbef78E', symObjAddr: 0x11B70, symBinAddr: 0xF55F0, symSize: 0x260 }
  - { offsetInCU: 0x4EB2A, offset: 0x510845, size: 0x8, addend: 0x0, symName: '__ZN67_$LT$alloc..vec..Vec$LT$T$C$A$GT$$u20$as$u20$core..clone..Clone$GT$5clone17h747a3e779494bc62E', symObjAddr: 0x11DD0, symBinAddr: 0xF5850, symSize: 0x140 }
  - { offsetInCU: 0x4EF69, offset: 0x510C84, size: 0x8, addend: 0x0, symName: '__ZN67_$LT$alloc..vec..Vec$LT$T$C$A$GT$$u20$as$u20$core..clone..Clone$GT$5clone17h795c7b2b8807866bE', symObjAddr: 0x11F10, symBinAddr: 0xF5990, symSize: 0x140 }
  - { offsetInCU: 0x4F3FB, offset: 0x511116, size: 0x8, addend: 0x0, symName: '__ZN67_$LT$alloc..vec..Vec$LT$T$C$A$GT$$u20$as$u20$core..clone..Clone$GT$5clone17h81b703d64d075dc5E', symObjAddr: 0x12050, symBinAddr: 0xF5AD0, symSize: 0x140 }
  - { offsetInCU: 0x4F88D, offset: 0x5115A8, size: 0x8, addend: 0x0, symName: '__ZN67_$LT$alloc..vec..Vec$LT$T$C$A$GT$$u20$as$u20$core..clone..Clone$GT$5clone17h86a578e0279be320E', symObjAddr: 0x12190, symBinAddr: 0xF5C10, symSize: 0x140 }
  - { offsetInCU: 0x4FD1D, offset: 0x511A38, size: 0x8, addend: 0x0, symName: '__ZN67_$LT$alloc..vec..Vec$LT$T$C$A$GT$$u20$as$u20$core..clone..Clone$GT$5clone17h99b2d10e8bd6b5ceE', symObjAddr: 0x122D0, symBinAddr: 0xF5D50, symSize: 0x140 }
  - { offsetInCU: 0x501B6, offset: 0x511ED1, size: 0x8, addend: 0x0, symName: '__ZN67_$LT$alloc..vec..Vec$LT$T$C$A$GT$$u20$as$u20$core..clone..Clone$GT$5clone17ha807b77bd68b1261E', symObjAddr: 0x12410, symBinAddr: 0xF5E90, symSize: 0x140 }
  - { offsetInCU: 0x505F5, offset: 0x512310, size: 0x8, addend: 0x0, symName: '__ZN67_$LT$alloc..vec..Vec$LT$T$C$A$GT$$u20$as$u20$core..clone..Clone$GT$5clone17hb04bb518124eb3baE', symObjAddr: 0x12550, symBinAddr: 0xF5FD0, symSize: 0x230 }
  - { offsetInCU: 0x50C74, offset: 0x51298F, size: 0x8, addend: 0x0, symName: '__ZN67_$LT$alloc..vec..Vec$LT$T$C$A$GT$$u20$as$u20$core..clone..Clone$GT$5clone17hb8d479b5bf54a37fE', symObjAddr: 0x12780, symBinAddr: 0xF6200, symSize: 0x1D0 }
  - { offsetInCU: 0x51160, offset: 0x512E7B, size: 0x8, addend: 0x0, symName: '__ZN67_$LT$alloc..vec..Vec$LT$T$C$A$GT$$u20$as$u20$core..clone..Clone$GT$5clone17hbfebd22721a45af6E', symObjAddr: 0x12950, symBinAddr: 0xF63D0, symSize: 0x140 }
  - { offsetInCU: 0x515F2, offset: 0x51330D, size: 0x8, addend: 0x0, symName: '__ZN67_$LT$alloc..vec..Vec$LT$T$C$A$GT$$u20$as$u20$core..clone..Clone$GT$5clone17hc639d5dcb2253337E', symObjAddr: 0x12A90, symBinAddr: 0xF6510, symSize: 0x140 }
  - { offsetInCU: 0x51A84, offset: 0x51379F, size: 0x8, addend: 0x0, symName: '__ZN67_$LT$alloc..vec..Vec$LT$T$C$A$GT$$u20$as$u20$core..clone..Clone$GT$5clone17hd173e8be3de648d9E', symObjAddr: 0x12D20, symBinAddr: 0xF6650, symSize: 0x180 }
  - { offsetInCU: 0x51F59, offset: 0x513C74, size: 0x8, addend: 0x0, symName: '__ZN67_$LT$alloc..vec..Vec$LT$T$C$A$GT$$u20$as$u20$core..clone..Clone$GT$5clone17hd3cfc84b2b5e9b62E', symObjAddr: 0x12EA0, symBinAddr: 0xF67D0, symSize: 0x140 }
  - { offsetInCU: 0x523E9, offset: 0x514104, size: 0x8, addend: 0x0, symName: '__ZN67_$LT$alloc..vec..Vec$LT$T$C$A$GT$$u20$as$u20$core..clone..Clone$GT$5clone17hf688e6ba0ffa0a5dE', symObjAddr: 0x12FE0, symBinAddr: 0xF6910, symSize: 0x140 }
  - { offsetInCU: 0x52879, offset: 0x514594, size: 0x8, addend: 0x0, symName: '__ZN67_$LT$alloc..vec..Vec$LT$T$C$A$GT$$u20$as$u20$core..clone..Clone$GT$5clone17hfda9ff849246773aE', symObjAddr: 0x13120, symBinAddr: 0xF6A50, symSize: 0x140 }
  - { offsetInCU: 0x53239, offset: 0x514F54, size: 0x8, addend: 0x0, symName: '__ZN70_$LT$alloc..vec..Vec$LT$T$C$A$GT$$u20$as$u20$core..ops..drop..Drop$GT$4drop17h22c555aa9db299d4E', symObjAddr: 0x13360, symBinAddr: 0xF6B90, symSize: 0xA0 }
  - { offsetInCU: 0x532EE, offset: 0x515009, size: 0x8, addend: 0x0, symName: '__ZN70_$LT$alloc..vec..Vec$LT$T$C$A$GT$$u20$as$u20$core..ops..drop..Drop$GT$4drop17h3e7660583633fff8E', symObjAddr: 0x13570, symBinAddr: 0xF6C30, symSize: 0xC0 }
  - { offsetInCU: 0x53350, offset: 0x51506B, size: 0x8, addend: 0x0, symName: '__ZN70_$LT$alloc..vec..Vec$LT$T$C$A$GT$$u20$as$u20$core..ops..drop..Drop$GT$4drop17h3fa7ae0a6bee11e1E', symObjAddr: 0x13630, symBinAddr: 0xF6CF0, symSize: 0xE0 }
  - { offsetInCU: 0x58F53, offset: 0x51AC6E, size: 0x8, addend: 0x0, symName: '__ZN5alloc3vec16Vec$LT$T$C$A$GT$16into_boxed_slice17hc26dbb1317cd1ac6E', symObjAddr: 0x10350, symBinAddr: 0xF4420, symSize: 0x90 }
  - { offsetInCU: 0x1E, offset: 0x530571, size: 0x8, addend: 0x0, symName: '__ZN4core3ptr100drop_in_place$LT$core..option..Option$LT$alloc..boxed..Box$LT$syn..generics..LifetimeDef$GT$$GT$$GT$17h75a6086997697dd7E', symObjAddr: 0x0, symBinAddr: 0xF7100, symSize: 0x150 }
  - { offsetInCU: 0xBE, offset: 0x530611, size: 0x8, addend: 0x0, symName: '__ZN58_$LT$alloc..string..String$u20$as$u20$core..fmt..Write$GT$10write_char17h04bc467bd68a934bE', symObjAddr: 0x7450, symBinAddr: 0xFE550, symSize: 0x140 }
  - { offsetInCU: 0x4C4, offset: 0x530A17, size: 0x8, addend: 0x0, symName: '__ZN58_$LT$alloc..string..String$u20$as$u20$core..fmt..Write$GT$9write_str17h46a93205c3443fbaE', symObjAddr: 0x7590, symBinAddr: 0xFE690, symSize: 0x60 }
  - { offsetInCU: 0xC33, offset: 0x531186, size: 0x8, addend: 0x0, symName: __ZN5alloc5alloc15exchange_malloc17h9a87608d0224859dE, symObjAddr: 0x75F0, symBinAddr: 0xFE6F0, symSize: 0x40 }
  - { offsetInCU: 0x1E28, offset: 0x53237B, size: 0x8, addend: 0x0, symName: '__ZN4core3ptr100drop_in_place$LT$core..option..Option$LT$alloc..boxed..Box$LT$syn..generics..LifetimeDef$GT$$GT$$GT$17h75a6086997697dd7E', symObjAddr: 0x0, symBinAddr: 0xF7100, symSize: 0x150 }
  - { offsetInCU: 0x23A4, offset: 0x5328F7, size: 0x8, addend: 0x0, symName: '__ZN4core3ptr100drop_in_place$LT$core..option..Option$LT$alloc..boxed..Box$LT$syn..path..GenericArgument$GT$$GT$$GT$17h3d29ec00a8f1918dE', symObjAddr: 0x150, symBinAddr: 0xF7250, symSize: 0x50 }
  - { offsetInCU: 0x264A, offset: 0x532B9D, size: 0x8, addend: 0x0, symName: '__ZN4core3ptr103drop_in_place$LT$syn..punctuated..Punctuated$LT$syn..generics..TypeParamBound$C$syn..token..Add$GT$$GT$17he811d520c92af08aE', symObjAddr: 0x1A0, symBinAddr: 0xF72A0, symSize: 0x1C0 }
  - { offsetInCU: 0x2EAE, offset: 0x533401, size: 0x8, addend: 0x0, symName: '__ZN4core3ptr108drop_in_place$LT$syn..punctuated..Punctuated$LT$syn..expr..GenericMethodArgument$C$syn..token..Comma$GT$$GT$17h92cbabe4862b2183E', symObjAddr: 0x360, symBinAddr: 0xF7460, symSize: 0x150 }
  - { offsetInCU: 0x3407, offset: 0x53395A, size: 0x8, addend: 0x0, symName: '__ZN4core3ptr34drop_in_place$LT$syn..lit..Lit$GT$17hbe1efe749a08dd9aE', symObjAddr: 0x4B0, symBinAddr: 0xF75B0, symSize: 0x110 }
  - { offsetInCU: 0x3879, offset: 0x533DCC, size: 0x8, addend: 0x0, symName: '__ZN4core3ptr34drop_in_place$LT$syn..pat..Pat$GT$17h3201f642e43ac2a2E', symObjAddr: 0x5C0, symBinAddr: 0xF76C0, symSize: 0x1050 }
  - { offsetInCU: 0x7238, offset: 0x53778B, size: 0x8, addend: 0x0, symName: '__ZN4core3ptr34drop_in_place$LT$syn..ty..Type$GT$17hfb5d159a08190130E', symObjAddr: 0x1610, symBinAddr: 0xF8710, symSize: 0x620 }
  - { offsetInCU: 0x8DB6, offset: 0x539309, size: 0x8, addend: 0x0, symName: '__ZN4core3ptr36drop_in_place$LT$syn..expr..Expr$GT$17hf1921d1b09462bc3E.llvm.1415980140280537373', symObjAddr: 0x1C30, symBinAddr: 0xF8D30, symSize: 0x2EA0 }
  - { offsetInCU: 0x1280A, offset: 0x542D5D, size: 0x8, addend: 0x0, symName: '__ZN4core3ptr36drop_in_place$LT$syn..mac..Macro$GT$17h205613d7ad575f72E', symObjAddr: 0x4AD0, symBinAddr: 0xFBBD0, symSize: 0xE0 }
  - { offsetInCU: 0x12C10, offset: 0x543163, size: 0x8, addend: 0x0, symName: '__ZN4core3ptr36drop_in_place$LT$syn..path..Path$GT$17he6d0bec66d66b98aE', symObjAddr: 0x4BB0, symBinAddr: 0xFBCB0, symSize: 0x230 }
  - { offsetInCU: 0x135A6, offset: 0x543AF9, size: 0x8, addend: 0x0, symName: '__ZN4core3ptr37drop_in_place$LT$syn..stmt..Block$GT$17h3aa429e75a234230E', symObjAddr: 0x4DE0, symBinAddr: 0xFBEE0, symSize: 0xD0 }
  - { offsetInCU: 0x1387D, offset: 0x543DD0, size: 0x8, addend: 0x0, symName: '__ZN4core3ptr38drop_in_place$LT$syn..expr..Member$GT$17ha113d37a67d27aafE', symObjAddr: 0x4EB0, symBinAddr: 0xFBFB0, symSize: 0x30 }
  - { offsetInCU: 0x13A14, offset: 0x543F67, size: 0x8, addend: 0x0, symName: '__ZN4core3ptr38drop_in_place$LT$syn..group..Group$GT$17h0fddc99b7dc4ab91E', symObjAddr: 0x4EE0, symBinAddr: 0xFBFE0, symSize: 0x70 }
  - { offsetInCU: 0x13D0C, offset: 0x54425F, size: 0x8, addend: 0x0, symName: '__ZN4core3ptr39drop_in_place$LT$proc_macro2..Ident$GT$17hdeec010483268a0dE', symObjAddr: 0x4F50, symBinAddr: 0xFC050, symSize: 0x30 }
  - { offsetInCU: 0x13E27, offset: 0x54437A, size: 0x8, addend: 0x0, symName: '__ZN4core3ptr39drop_in_place$LT$syn..lit..LitFloat$GT$17h89b7791cfce3cb6aE', symObjAddr: 0x4F80, symBinAddr: 0xFC080, symSize: 0x70 }
  - { offsetInCU: 0x14199, offset: 0x5446EC, size: 0x8, addend: 0x0, symName: '__ZN4core3ptr39drop_in_place$LT$syn..pat..PatTuple$GT$17h96faeea9832d4c4bE', symObjAddr: 0x4FF0, symBinAddr: 0xFC0F0, symSize: 0x100 }
  - { offsetInCU: 0x144A2, offset: 0x5449F5, size: 0x8, addend: 0x0, symName: '__ZN4core3ptr40drop_in_place$LT$syn..ty..ReturnType$GT$17h6f97c9fdb958983eE', symObjAddr: 0x50F0, symBinAddr: 0xFC1F0, symSize: 0x50 }
  - { offsetInCU: 0x14612, offset: 0x544B65, size: 0x8, addend: 0x0, symName: '__ZN4core3ptr41drop_in_place$LT$syn..attr..Attribute$GT$17h01ed88f7d2878bfcE', symObjAddr: 0x5140, symBinAddr: 0xFC240, symSize: 0x40 }
  - { offsetInCU: 0x1462F, offset: 0x544B82, size: 0x8, addend: 0x0, symName: '__ZN4core3ptr42drop_in_place$LT$alloc..string..String$GT$17hef974c60cd9900dbE', symObjAddr: 0x5180, symBinAddr: 0xFC280, symSize: 0x20 }
  - { offsetInCU: 0x147D2, offset: 0x544D25, size: 0x8, addend: 0x0, symName: '__ZN4core3ptr42drop_in_place$LT$syn..expr..ExprStruct$GT$17hcd4a233ae9f7b2e4E', symObjAddr: 0x51A0, symBinAddr: 0xFC2A0, symSize: 0x300 }
  - { offsetInCU: 0x153AD, offset: 0x545900, size: 0x8, addend: 0x0, symName: '__ZN4core3ptr42drop_in_place$LT$syn..expr..FieldValue$GT$17h42a16bcbdc918058E', symObjAddr: 0x54A0, symBinAddr: 0xFC5A0, symSize: 0x140 }
  - { offsetInCU: 0x15839, offset: 0x545D8C, size: 0x8, addend: 0x0, symName: '__ZN4core3ptr43drop_in_place$LT$syn..expr..ExprClosure$GT$17h33394450256957a8E', symObjAddr: 0x55E0, symBinAddr: 0xFC6E0, symSize: 0x270 }
  - { offsetInCU: 0x16292, offset: 0x5467E5, size: 0x8, addend: 0x0, symName: '__ZN4core3ptr44drop_in_place$LT$syn..lifetime..Lifetime$GT$17h3858225df033648aE', symObjAddr: 0x5850, symBinAddr: 0xFC950, symSize: 0x30 }
