---
triple:          'x86_64-apple-darwin'
binary-path:     "/Users/justinlanouette/Chaos/ChaöS-Token/hello_world/target/release/build/thiserror-59c823ce546014cd/build_script_build-59c823ce546014cd"
relocations:
  - { offsetInCU: 0x1E, offset: 0x1E, size: 0x8, addend: 0x0, symName: '__ZN4core3ptr288drop_in_place$LT$core..iter..adapters..chain..Chain$LT$core..iter..adapters..chain..Chain$LT$core..option..IntoIter$LT$std..ffi..os_str..OsString$GT$$C$core..option..IntoIter$LT$std..ffi..os_str..OsString$GT$$GT$$C$core..iter..sources..once..Once$LT$std..ffi..os_str..OsString$GT$$GT$$GT$17h6374c8934ea35a97E', symObjAddr: 0x0, symBinAddr: 0x100002B60, symSize: 0x90 }
  - { offsetInCU: 0xEDE, offset: 0xEDE, size: 0x8, addend: 0x0, symName: '__ZN4core3ptr288drop_in_place$LT$core..iter..adapters..chain..Chain$LT$core..iter..adapters..chain..Chain$LT$core..option..IntoIter$LT$std..ffi..os_str..OsString$GT$$C$core..option..IntoIter$LT$std..ffi..os_str..OsString$GT$$GT$$C$core..iter..sources..once..Once$LT$std..ffi..os_str..OsString$GT$$GT$$GT$17h6374c8934ea35a97E', symObjAddr: 0x0, symBinAddr: 0x100002B60, symSize: 0x90 }
  - { offsetInCU: 0x169C, offset: 0x169C, size: 0x8, addend: 0x0, symName: '__ZN4core3ptr42drop_in_place$LT$std..process..Command$GT$17h800f422e5b619497E', symObjAddr: 0x90, symBinAddr: 0x100002BF0, symSize: 0x250 }
  - { offsetInCU: 0x25A1, offset: 0x25A1, size: 0x8, addend: 0x0, symName: '__ZN4core3ptr97drop_in_place$LT$core..result..Result$LT$std..process..ExitStatus$C$std..io..error..Error$GT$$GT$17h0039d012389761c5E', symObjAddr: 0x2E0, symBinAddr: 0x100002E40, symSize: 0xB0 }
  - { offsetInCU: 0x4AC4, offset: 0x4AC4, size: 0x8, addend: 0x0, symName: __ZN18build_script_build4main17h77a9979733b75140E, symObjAddr: 0x390, symBinAddr: 0x100002EF0, symSize: 0x1B0 }
  - { offsetInCU: 0x4F51, offset: 0x4F51, size: 0x8, addend: 0x0, symName: __ZN18build_script_build13compile_probe17h9001d6e031fd82adE, symObjAddr: 0x540, symBinAddr: 0x1000030A0, symSize: 0x890 }
  - { offsetInCU: 0xAF5, offset: 0x859B, size: 0x8, addend: 0x0, symName: '__ZN4core3ptr288drop_in_place$LT$core..iter..adapters..chain..Chain$LT$core..iter..adapters..chain..Chain$LT$core..option..IntoIter$LT$std..ffi..os_str..OsString$GT$$C$core..option..IntoIter$LT$std..ffi..os_str..OsString$GT$$GT$$C$core..iter..sources..once..Once$LT$std..ffi..os_str..OsString$GT$$GT$$GT$17h6374c8934ea35a97E', symObjAddr: 0x460, symBinAddr: 0x100003BE0, symSize: 0x90 }
  - { offsetInCU: 0x2223, offset: 0x9CC9, size: 0x8, addend: 0x0, symName: __ZN3std7process7Command4args17hca60a4d64dceef03E, symObjAddr: 0x1B0, symBinAddr: 0x100003950, symSize: 0x290 }
  - { offsetInCU: 0x53E, offset: 0xAD92, size: 0x8, addend: 0x0, symName: '__ZN70_$LT$alloc..vec..Vec$LT$T$C$A$GT$$u20$as$u20$core..ops..drop..Drop$GT$4drop17he01dbe47296ef0c8E', symObjAddr: 0x60, symBinAddr: 0x100003C70, symSize: 0xE8 }
  - { offsetInCU: 0x1E, offset: 0xB393, size: 0x8, addend: 0x0, symName: '__ZN99_$LT$alloc..collections..btree..map..BTreeMap$LT$K$C$V$C$A$GT$$u20$as$u20$core..ops..drop..Drop$GT$4drop17h978d00e95f9841a6E', symObjAddr: 0x0, symBinAddr: 0x100003D60, symSize: 0x3A8 }
  - { offsetInCU: 0xA24, offset: 0xBD99, size: 0x8, addend: 0x0, symName: '__ZN99_$LT$alloc..collections..btree..map..BTreeMap$LT$K$C$V$C$A$GT$$u20$as$u20$core..ops..drop..Drop$GT$4drop17h978d00e95f9841a6E', symObjAddr: 0x0, symBinAddr: 0x100003D60, symSize: 0x3A8 }
  - { offsetInCU: 0x1E, offset: 0xDFF9, size: 0x8, addend: 0x0, symName: __ZN3std2rt10lang_start17hb31929cf97c5f198E, symObjAddr: 0x0, symBinAddr: 0x100004110, symSize: 0x30 }
  - { offsetInCU: 0x5B, offset: 0xE036, size: 0x8, addend: 0x0, symName: '__ZN3std2rt10lang_start28_$u7b$$u7b$closure$u7d$$u7d$17hf61470bf66cae911E', symObjAddr: 0x30, symBinAddr: 0x100004140, symSize: 0x10 }
  - { offsetInCU: 0x9F, offset: 0xE07A, size: 0x8, addend: 0x0, symName: __ZN3std2rt10lang_start17hb31929cf97c5f198E, symObjAddr: 0x0, symBinAddr: 0x100004110, symSize: 0x30 }
  - { offsetInCU: 0x15E, offset: 0xE139, size: 0x8, addend: 0x0, symName: '__ZN4core3ops8function6FnOnce40call_once$u7b$$u7b$vtable.shim$u7d$$u7d$17hd15f7fcc942f8999E', symObjAddr: 0x40, symBinAddr: 0x100004150, symSize: 0x10 }
  - { offsetInCU: 0x1D8, offset: 0xE1B3, size: 0x8, addend: 0x0, symName: '__ZN4core3ptr85drop_in_place$LT$std..rt..lang_start$LT$$LP$$RP$$GT$..$u7b$$u7b$closure$u7d$$u7d$$GT$17hd80b1ff73f3ac5b9E', symObjAddr: 0x50, symBinAddr: 0x100004160, symSize: 0x6 }
  - { offsetInCU: 0x1E, offset: 0xE234, size: 0x8, addend: 0x0, symName: __ZN3std10sys_common9backtrace28__rust_begin_short_backtrace17hc571ef1ef84b31a8E, symObjAddr: 0x0, symBinAddr: 0x100004170, symSize: 0x8 }
  - { offsetInCU: 0xBF, offset: 0xE2D5, size: 0x8, addend: 0x0, symName: __ZN3std10sys_common9backtrace28__rust_begin_short_backtrace17hc571ef1ef84b31a8E, symObjAddr: 0x0, symBinAddr: 0x100004170, symSize: 0x8 }
  - { offsetInCU: 0x1E, offset: 0xE37A, size: 0x8, addend: 0x0, symName: '__ZN44_$LT$$RF$T$u20$as$u20$core..fmt..Display$GT$3fmt17h9f0456e3381fe26aE', symObjAddr: 0x0, symBinAddr: 0x100004180, symSize: 0x17 }
  - { offsetInCU: 0x64, offset: 0xE3C0, size: 0x8, addend: 0x0, symName: '__ZN44_$LT$$RF$T$u20$as$u20$core..fmt..Display$GT$3fmt17h9f0456e3381fe26aE', symObjAddr: 0x0, symBinAddr: 0x100004180, symSize: 0x17 }
...
