---
triple:          'x86_64-apple-darwin'
binary-path:     "/Users/justinlanouette/Chaos/ChaöS-Token/hello_world/target/release/build/solana-frozen-abi-d2fbd62819b3fee5/build_script_build-d2fbd62819b3fee5"
relocations:
  - { offsetInCU: 0x1E, offset: 0x1E, size: 0x8, addend: 0x0, symName: '__ZN4core3ptr41drop_in_place$LT$rustc_version..Error$GT$17h266477e57c414b37E', symObjAddr: 0x0, symBinAddr: 0x100000B30, symSize: 0x100 }
  - { offsetInCU: 0x20D, offset: 0x20D, size: 0x8, addend: 0x0, symName: '__ZN57_$LT$rustc_version..Error$u20$as$u20$core..fmt..Debug$GT$3fmt17h0ffde84232d3f093E', symObjAddr: 0x2A0, symBinAddr: 0x100000DD0, symSize: 0x170 }
  - { offsetInCU: 0xBDE, offset: 0xBDE, size: 0x8, addend: 0x0, symName: '__ZN4core3ptr41drop_in_place$LT$rustc_version..Error$GT$17h266477e57c414b37E', symObjAddr: 0x0, symBinAddr: 0x100000B30, symSize: 0x100 }
  - { offsetInCU: 0x1335, offset: 0x1335, size: 0x8, addend: 0x0, symName: '__ZN4core3ptr42drop_in_place$LT$alloc..string..String$GT$17hbac4bbb4f87c30ccE', symObjAddr: 0x100, symBinAddr: 0x100000C30, symSize: 0x20 }
  - { offsetInCU: 0x143E, offset: 0x143E, size: 0x8, addend: 0x0, symName: '__ZN4core3ptr45drop_in_place$LT$$RF$semver..parse..Error$GT$17h3ffc497c48978455E', symObjAddr: 0x120, symBinAddr: 0x100000C50, symSize: 0x10 }
  - { offsetInCU: 0x1505, offset: 0x1505, size: 0x8, addend: 0x0, symName: '__ZN4core3ptr47drop_in_place$LT$rustc_version..VersionMeta$GT$17h3626f83dc23a0e13E', symObjAddr: 0x130, symBinAddr: 0x100000C60, symSize: 0x170 }
  - { offsetInCU: 0x269C, offset: 0x269C, size: 0x8, addend: 0x0, symName: '__ZN58_$LT$alloc..string..String$u20$as$u20$core..fmt..Debug$GT$3fmt17h289d966fb42f899aE', symObjAddr: 0x410, symBinAddr: 0x100000F40, symSize: 0x20 }
  - { offsetInCU: 0x2FEF, offset: 0x2FEF, size: 0x8, addend: 0x0, symName: __ZN18build_script_build4main17h4a96816f5c7ca1ecE, symObjAddr: 0x430, symBinAddr: 0x100000F60, symSize: 0x2B0 }
  - { offsetInCU: 0x1E, offset: 0x32C3, size: 0x8, addend: 0x0, symName: '__ZN42_$LT$$RF$T$u20$as$u20$core..fmt..Debug$GT$3fmt17h0ae9a9fb6be8903eE', symObjAddr: 0x0, symBinAddr: 0x100001230, symSize: 0x30 }
  - { offsetInCU: 0x173, offset: 0x3418, size: 0x8, addend: 0x0, symName: '__ZN42_$LT$$RF$T$u20$as$u20$core..fmt..Debug$GT$3fmt17h0ae9a9fb6be8903eE', symObjAddr: 0x0, symBinAddr: 0x100001230, symSize: 0x30 }
  - { offsetInCU: 0x1DA, offset: 0x347F, size: 0x8, addend: 0x0, symName: '__ZN42_$LT$$RF$T$u20$as$u20$core..fmt..Debug$GT$3fmt17h79c8ed0be5e2adbfE', symObjAddr: 0x30, symBinAddr: 0x100001260, symSize: 0x50 }
  - { offsetInCU: 0x336, offset: 0x35DB, size: 0x8, addend: 0x0, symName: '__ZN4core3ptr55drop_in_place$LT$$RF$core..num..error..IntErrorKind$GT$17hbbaffece84b2098fE', symObjAddr: 0x80, symBinAddr: 0x1000012B0, symSize: 0x6 }
  - { offsetInCU: 0x1E, offset: 0x36D3, size: 0x8, addend: 0x0, symName: '__ZN42_$LT$$RF$T$u20$as$u20$core..fmt..Debug$GT$3fmt17hc352dff6588f9f67E', symObjAddr: 0x0, symBinAddr: 0x1000012C0, symSize: 0x70 }
  - { offsetInCU: 0x19B, offset: 0x3850, size: 0x8, addend: 0x0, symName: '__ZN42_$LT$$RF$T$u20$as$u20$core..fmt..Debug$GT$3fmt17hc352dff6588f9f67E', symObjAddr: 0x0, symBinAddr: 0x1000012C0, symSize: 0x70 }
  - { offsetInCU: 0x214, offset: 0x38C9, size: 0x8, addend: 0x0, symName: '__ZN4core3fmt3num52_$LT$impl$u20$core..fmt..Debug$u20$for$u20$usize$GT$3fmt17h05928cb6857c498fE', symObjAddr: 0x70, symBinAddr: 0x100001330, symSize: 0x30 }
  - { offsetInCU: 0x356, offset: 0x3A0B, size: 0x8, addend: 0x0, symName: '__ZN4core3ptr26drop_in_place$LT$usize$GT$17h64a8793f8758b79cE', symObjAddr: 0xA0, symBinAddr: 0x100001360, symSize: 0x6 }
  - { offsetInCU: 0x1E, offset: 0x3B2C, size: 0x8, addend: 0x0, symName: '__ZN42_$LT$$RF$T$u20$as$u20$core..fmt..Debug$GT$3fmt17h6501f6bf6f0066cbE', symObjAddr: 0x0, symBinAddr: 0x100001370, symSize: 0x17 }
  - { offsetInCU: 0xB5, offset: 0x3BC3, size: 0x8, addend: 0x0, symName: '__ZN42_$LT$$RF$T$u20$as$u20$core..fmt..Debug$GT$3fmt17h6501f6bf6f0066cbE', symObjAddr: 0x0, symBinAddr: 0x100001370, symSize: 0x17 }
  - { offsetInCU: 0x1E, offset: 0x3F1A, size: 0x8, addend: 0x0, symName: __ZN3std2rt10lang_start17h5c39b5b0a65709c4E, symObjAddr: 0x0, symBinAddr: 0x100001390, symSize: 0x30 }
  - { offsetInCU: 0x5B, offset: 0x3F57, size: 0x8, addend: 0x0, symName: '__ZN3std2rt10lang_start28_$u7b$$u7b$closure$u7d$$u7d$17h6cd37f44f15e6242E', symObjAddr: 0x30, symBinAddr: 0x1000013C0, symSize: 0x10 }
  - { offsetInCU: 0x9F, offset: 0x3F9B, size: 0x8, addend: 0x0, symName: __ZN3std2rt10lang_start17h5c39b5b0a65709c4E, symObjAddr: 0x0, symBinAddr: 0x100001390, symSize: 0x30 }
  - { offsetInCU: 0x15E, offset: 0x405A, size: 0x8, addend: 0x0, symName: '__ZN4core3ops8function6FnOnce40call_once$u7b$$u7b$vtable.shim$u7d$$u7d$17ha768605c3a3629e9E', symObjAddr: 0x40, symBinAddr: 0x1000013D0, symSize: 0x10 }
  - { offsetInCU: 0x1D8, offset: 0x40D4, size: 0x8, addend: 0x0, symName: '__ZN4core3ptr85drop_in_place$LT$std..rt..lang_start$LT$$LP$$RP$$GT$..$u7b$$u7b$closure$u7d$$u7d$$GT$17h9dd93a07b8edb1f6E', symObjAddr: 0x50, symBinAddr: 0x1000013E0, symSize: 0x6 }
  - { offsetInCU: 0x1E, offset: 0x4155, size: 0x8, addend: 0x0, symName: '__ZN42_$LT$$RF$T$u20$as$u20$core..fmt..Debug$GT$3fmt17h37678b83d8625a74E', symObjAddr: 0x0, symBinAddr: 0x1000013F0, symSize: 0xD0 }
  - { offsetInCU: 0x119, offset: 0x4250, size: 0x8, addend: 0x0, symName: '__ZN42_$LT$$RF$T$u20$as$u20$core..fmt..Debug$GT$3fmt17h37678b83d8625a74E', symObjAddr: 0x0, symBinAddr: 0x1000013F0, symSize: 0xD0 }
  - { offsetInCU: 0x27A, offset: 0x43B1, size: 0x8, addend: 0x0, symName: '__ZN4core3ptr56drop_in_place$LT$$RF$core..num..error..ParseIntError$GT$17h6bdc91a466af7514E', symObjAddr: 0xD0, symBinAddr: 0x1000014C0, symSize: 0x6 }
  - { offsetInCU: 0x1E, offset: 0x457F, size: 0x8, addend: 0x0, symName: '__ZN42_$LT$$RF$T$u20$as$u20$core..fmt..Debug$GT$3fmt17h00ab8ce191703e1bE', symObjAddr: 0x0, symBinAddr: 0x1000014D0, symSize: 0x24 }
  - { offsetInCU: 0xFE, offset: 0x465F, size: 0x8, addend: 0x0, symName: '__ZN42_$LT$$RF$T$u20$as$u20$core..fmt..Debug$GT$3fmt17h00ab8ce191703e1bE', symObjAddr: 0x0, symBinAddr: 0x1000014D0, symSize: 0x24 }
  - { offsetInCU: 0x1E, offset: 0x48C2, size: 0x8, addend: 0x0, symName: '__ZN42_$LT$$RF$T$u20$as$u20$core..fmt..Debug$GT$3fmt17h1737c657e155c3b2E', symObjAddr: 0x0, symBinAddr: 0x100001500, symSize: 0x60 }
  - { offsetInCU: 0xD7, offset: 0x497B, size: 0x8, addend: 0x0, symName: '__ZN42_$LT$$RF$T$u20$as$u20$core..fmt..Debug$GT$3fmt17h1737c657e155c3b2E', symObjAddr: 0x0, symBinAddr: 0x100001500, symSize: 0x60 }
  - { offsetInCU: 0x2DE, offset: 0x4B82, size: 0x8, addend: 0x0, symName: '__ZN4core3ptr27drop_in_place$LT$$RF$u8$GT$17hfb1d26820110a609E', symObjAddr: 0x60, symBinAddr: 0x100001560, symSize: 0x6 }
  - { offsetInCU: 0x1E, offset: 0x4C66, size: 0x8, addend: 0x0, symName: __ZN3std10sys_common9backtrace28__rust_begin_short_backtrace17hfe7c6dd15d890d9dE, symObjAddr: 0x0, symBinAddr: 0x100001570, symSize: 0x8 }
  - { offsetInCU: 0xBF, offset: 0x4D07, size: 0x8, addend: 0x0, symName: __ZN3std10sys_common9backtrace28__rust_begin_short_backtrace17hfe7c6dd15d890d9dE, symObjAddr: 0x0, symBinAddr: 0x100001570, symSize: 0x8 }
  - { offsetInCU: 0x1E, offset: 0x4DAC, size: 0x8, addend: 0x0, symName: '__ZN42_$LT$$RF$T$u20$as$u20$core..fmt..Debug$GT$3fmt17h9bfc7c0459ab53d1E', symObjAddr: 0x0, symBinAddr: 0x100001580, symSize: 0xD }
  - { offsetInCU: 0x2AF, offset: 0x503D, size: 0x8, addend: 0x0, symName: '__ZN42_$LT$$RF$T$u20$as$u20$core..fmt..Debug$GT$3fmt17h9bfc7c0459ab53d1E', symObjAddr: 0x0, symBinAddr: 0x100001580, symSize: 0xD }
  - { offsetInCU: 0x1E, offset: 0x5335, size: 0x8, addend: 0x0, symName: '__ZN42_$LT$$RF$T$u20$as$u20$core..fmt..Debug$GT$3fmt17h4f5628bb189e4ac0E', symObjAddr: 0x0, symBinAddr: 0x100001590, symSize: 0xD }
  - { offsetInCU: 0x258, offset: 0x556F, size: 0x8, addend: 0x0, symName: '__ZN42_$LT$$RF$T$u20$as$u20$core..fmt..Debug$GT$3fmt17h4f5628bb189e4ac0E', symObjAddr: 0x0, symBinAddr: 0x100001590, symSize: 0xD }
  - { offsetInCU: 0x1BAA, offset: 0x7331, size: 0x8, addend: 0x0, symName: '__ZN4core3ptr36drop_in_place$LT$semver..Version$GT$17hb32251156284e3daE', symObjAddr: 0x10, symBinAddr: 0x1000015F0, symSize: 0x40 }
  - { offsetInCU: 0x1CB7, offset: 0x743E, size: 0x8, addend: 0x0, symName: '__ZN4core3ptr41drop_in_place$LT$std..process..Output$GT$17hd8924205480e88cfE', symObjAddr: 0x50, symBinAddr: 0x100001630, symSize: 0x50 }
  - { offsetInCU: 0x21C0, offset: 0x7947, size: 0x8, addend: 0x0, symName: '__ZN4core3ptr42drop_in_place$LT$std..process..Command$GT$17h3821231e0e58dc5eE', symObjAddr: 0xA0, symBinAddr: 0x100001680, symSize: 0x250 }
  - { offsetInCU: 0x4A6C, offset: 0xA1F3, size: 0x8, addend: 0x0, symName: '__ZN81_$LT$core..str..pattern..CharSearcher$u20$as$u20$core..str..pattern..Searcher$GT$10next_match17hc7a77fb1661897c4E', symObjAddr: 0x2F0, symBinAddr: 0x1000018D0, symSize: 0x200 }
  - { offsetInCU: 0x51E5, offset: 0xA96C, size: 0x8, addend: 0x0, symName: '__ZN91_$LT$core..str..iter..SplitN$LT$P$GT$$u20$as$u20$core..iter..traits..iterator..Iterator$GT$4next17h74418e81822be2deE', symObjAddr: 0x4F0, symBinAddr: 0x100001AD0, symSize: 0x5B0 }
  - { offsetInCU: 0x780C, offset: 0xCF93, size: 0x8, addend: 0x0, symName: '__ZN73_$LT$rustc_version..LlvmVersion$u20$as$u20$core..str..traits..FromStr$GT$8from_str17h09dbe0cebb3db0b1E', symObjAddr: 0xB10, symBinAddr: 0x100002080, symSize: 0x390 }
  - { offsetInCU: 0x8B29, offset: 0xE2B0, size: 0x8, addend: 0x0, symName: __ZN13rustc_version12version_meta17h1eb7ac00d66a695aE, symObjAddr: 0x13C0, symBinAddr: 0x100002640, symSize: 0xF0 }
  - { offsetInCU: 0x8EBF, offset: 0xE646, size: 0x8, addend: 0x0, symName: __ZN13rustc_version16version_meta_for17hf4117b2d63672db8E, symObjAddr: 0x14B0, symBinAddr: 0x100002730, symSize: 0x1020 }
  - { offsetInCU: 0xD3D9, offset: 0x12B60, size: 0x8, addend: 0x0, symName: __ZN13rustc_version21expect_key_or_unknown17hf37fca11039c1b0fE, symObjAddr: 0x24D0, symBinAddr: 0x100003750, symSize: 0x180 }
  - { offsetInCU: 0xE507, offset: 0x13C8E, size: 0x8, addend: 0x0, symName: __ZN13rustc_version11VersionMeta11for_command17hb9805fd88962e20dE, symObjAddr: 0xEA0, symBinAddr: 0x100002410, symSize: 0x230 }
  - { offsetInCU: 0x1E, offset: 0x163A7, size: 0x8, addend: 0x0, symName: '__ZN4core3ptr181drop_in_place$LT$hashbrown..scopeguard..ScopeGuard$LT$$RF$mut$u20$hashbrown..raw..RawTableInner$C$hashbrown..raw..RawTableInner..rehash_in_place..$u7b$$u7b$closure$u7d$$u7d$$GT$$GT$17h0d5119ff0ebec1d9E', symObjAddr: 0x0, symBinAddr: 0x1000038D0, symSize: 0xC0 }
  - { offsetInCU: 0x670, offset: 0x169F9, size: 0x8, addend: 0x0, symName: '__ZN79_$LT$hashbrown..raw..RawTable$LT$T$C$A$GT$$u20$as$u20$core..ops..drop..Drop$GT$4drop17h76a6541cda1d0d2bE', symObjAddr: 0x100, symBinAddr: 0x1000039D0, symSize: 0x40 }
  - { offsetInCU: 0x12F3, offset: 0x1767C, size: 0x8, addend: 0x0, symName: '__ZN4core3ptr181drop_in_place$LT$hashbrown..scopeguard..ScopeGuard$LT$$RF$mut$u20$hashbrown..raw..RawTableInner$C$hashbrown..raw..RawTableInner..rehash_in_place..$u7b$$u7b$closure$u7d$$u7d$$GT$$GT$17h0d5119ff0ebec1d9E', symObjAddr: 0x0, symBinAddr: 0x1000038D0, symSize: 0xC0 }
  - { offsetInCU: 0x18F3, offset: 0x17C7C, size: 0x8, addend: 0x0, symName: '__ZN4core3ptr196drop_in_place$LT$hashbrown..scopeguard..ScopeGuard$LT$hashbrown..raw..RawTableInner$C$hashbrown..raw..RawTableInner..prepare_resize$LT$alloc..alloc..Global$GT$..$u7b$$u7b$closure$u7d$$u7d$$GT$$GT$17h40dc9d854b2c12d6E', symObjAddr: 0xC0, symBinAddr: 0x100003990, symSize: 0x40 }
  - { offsetInCU: 0x435A, offset: 0x1A6E3, size: 0x8, addend: 0x0, symName: '__ZN9hashbrown3raw21RawTable$LT$T$C$A$GT$14reserve_rehash17h5e61c814a5b146c0E.llvm.14288092806696595593', symObjAddr: 0x140, symBinAddr: 0x100049090, symSize: 0x930 }
  - { offsetInCU: 0x1E, offset: 0x1C7FF, size: 0x8, addend: 0x0, symName: '__ZN3std3sys6common12thread_local10fast_local12Key$LT$T$GT$14try_initialize17hdf7460c9bc005523E.llvm.15637398881635084809', symObjAddr: 0x0, symBinAddr: 0x100003A10, symSize: 0x50 }
  - { offsetInCU: 0x1A8, offset: 0x1C989, size: 0x8, addend: 0x0, symName: '__ZN3std3sys6common12thread_local10fast_local12Key$LT$T$GT$14try_initialize17hdf7460c9bc005523E.llvm.15637398881635084809', symObjAddr: 0x0, symBinAddr: 0x100003A10, symSize: 0x50 }
  - { offsetInCU: 0x1E, offset: 0x1D036, size: 0x8, addend: 0x0, symName: '__ZN9hashbrown3map28HashMap$LT$K$C$V$C$S$C$A$GT$6insert17h2b78d0032995683bE', symObjAddr: 0x0, symBinAddr: 0x100003A60, symSize: 0x208 }
  - { offsetInCU: 0x1667, offset: 0x1E67F, size: 0x8, addend: 0x0, symName: '__ZN9hashbrown3map28HashMap$LT$K$C$V$C$S$C$A$GT$6insert17h2b78d0032995683bE', symObjAddr: 0x0, symBinAddr: 0x100003A60, symSize: 0x208 }
  - { offsetInCU: 0x1E, offset: 0x1F47B, size: 0x8, addend: 0x0, symName: __ZN4core4hash11BuildHasher8hash_one17h2672916033777ec5E, symObjAddr: 0x0, symBinAddr: 0x100003C70, symSize: 0x170 }
  - { offsetInCU: 0x297, offset: 0x1F6F4, size: 0x8, addend: 0x0, symName: '__ZN71_$LT$core..hash..sip..Hasher$LT$S$GT$$u20$as$u20$core..hash..Hasher$GT$5write17he9b5e1d6c4d4c373E', symObjAddr: 0x2D0, symBinAddr: 0x100003F40, symSize: 0x1DC }
  - { offsetInCU: 0x9A2, offset: 0x1FDFF, size: 0x8, addend: 0x0, symName: __ZN4core4hash11BuildHasher8hash_one17h2672916033777ec5E, symObjAddr: 0x0, symBinAddr: 0x100003C70, symSize: 0x170 }
  - { offsetInCU: 0xDB0, offset: 0x2020D, size: 0x8, addend: 0x0, symName: __ZN4core4hash11BuildHasher8hash_one17h58dedb7e999ffaa5E, symObjAddr: 0x170, symBinAddr: 0x100003DE0, symSize: 0x160 }
  - { offsetInCU: 0x1E, offset: 0x20D7C, size: 0x8, addend: 0x0, symName: '__ZN5alloc7raw_vec19RawVec$LT$T$C$A$GT$11allocate_in17h4c2097c87d022ce4E', symObjAddr: 0x0, symBinAddr: 0x100004120, symSize: 0x70 }
  - { offsetInCU: 0x769, offset: 0x214C7, size: 0x8, addend: 0x0, symName: '__ZN5alloc7raw_vec19RawVec$LT$T$C$A$GT$11allocate_in17h4c2097c87d022ce4E', symObjAddr: 0x0, symBinAddr: 0x100004120, symSize: 0x70 }
  - { offsetInCU: 0x482, offset: 0x21B33, size: 0x8, addend: 0x0, symName: '__ZN70_$LT$alloc..vec..Vec$LT$T$C$A$GT$$u20$as$u20$core..ops..drop..Drop$GT$4drop17hc527c652dcc8d0ebE', symObjAddr: 0x10, symBinAddr: 0x100004190, symSize: 0xF0 }
  - { offsetInCU: 0x1E, offset: 0x221E9, size: 0x8, addend: 0x0, symName: '__ZN99_$LT$alloc..collections..btree..map..BTreeMap$LT$K$C$V$C$A$GT$$u20$as$u20$core..ops..drop..Drop$GT$4drop17hbb74841a38c80307E', symObjAddr: 0x0, symBinAddr: 0x100004280, symSize: 0x3A8 }
  - { offsetInCU: 0xA24, offset: 0x22BEF, size: 0x8, addend: 0x0, symName: '__ZN99_$LT$alloc..collections..btree..map..BTreeMap$LT$K$C$V$C$A$GT$$u20$as$u20$core..ops..drop..Drop$GT$4drop17hbb74841a38c80307E', symObjAddr: 0x0, symBinAddr: 0x100004280, symSize: 0x3A8 }
  - { offsetInCU: 0x3BB, offset: 0x251EC, size: 0x8, addend: 0x0, symName: '__ZN6semver5parse72_$LT$impl$u20$core..str..traits..FromStr$u20$for$u20$semver..Version$GT$8from_str17h98b3935c1bd8df23E', symObjAddr: 0x1210, symBinAddr: 0x1000046D0, symSize: 0x390 }
  - { offsetInCU: 0x1CB1, offset: 0x26AE2, size: 0x8, addend: 0x0, symName: __ZN4core3str11validations15next_code_point17h4355e5386c8ce2e5E, symObjAddr: 0x250, symBinAddr: 0x100004630, symSize: 0xA0 }
  - { offsetInCU: 0x1CCF, offset: 0x26B00, size: 0x8, addend: 0x0, symName: __ZN4core3str11validations15next_code_point17h4355e5386c8ce2e5E, symObjAddr: 0x250, symBinAddr: 0x100004630, symSize: 0xA0 }
  - { offsetInCU: 0x1CEA, offset: 0x26B1B, size: 0x8, addend: 0x0, symName: __ZN4core3str11validations15next_code_point17h4355e5386c8ce2e5E, symObjAddr: 0x250, symBinAddr: 0x100004630, symSize: 0xA0 }
  - { offsetInCU: 0x1CFA, offset: 0x26B2B, size: 0x8, addend: 0x0, symName: __ZN4core3str11validations15next_code_point17h4355e5386c8ce2e5E, symObjAddr: 0x250, symBinAddr: 0x100004630, symSize: 0xA0 }
  - { offsetInCU: 0x2749, offset: 0x2757A, size: 0x8, addend: 0x0, symName: __ZN6semver10Prerelease6as_str17h26bb896635dd9b78E, symObjAddr: 0x1FC0, symBinAddr: 0x100004A60, symSize: 0x0 }
  - { offsetInCU: 0x1E, offset: 0x28345, size: 0x8, addend: 0x0, symName: '__ZN6semver5error69_$LT$impl$u20$core..fmt..Display$u20$for$u20$semver..parse..Error$GT$3fmt17h0c2d5aa25e36eb15E', symObjAddr: 0x0, symBinAddr: 0x100004B00, symSize: 0x280 }
  - { offsetInCU: 0x145B, offset: 0x29782, size: 0x8, addend: 0x0, symName: '__ZN6semver5error69_$LT$impl$u20$core..fmt..Display$u20$for$u20$semver..parse..Error$GT$3fmt17h0c2d5aa25e36eb15E', symObjAddr: 0x0, symBinAddr: 0x100004B00, symSize: 0x280 }
  - { offsetInCU: 0x173A, offset: 0x29A61, size: 0x8, addend: 0x0, symName: '__ZN6semver5error67_$LT$impl$u20$core..fmt..Debug$u20$for$u20$semver..parse..Error$GT$3fmt17h3ac0c5bdb6042637E', symObjAddr: 0x280, symBinAddr: 0x100004D80, symSize: 0x60 }
  - { offsetInCU: 0x195D, offset: 0x29C84, size: 0x8, addend: 0x0, symName: __ZN6semver5parse18numeric_identifier17hcb02b64822627659E, symObjAddr: 0x2E0, symBinAddr: 0x100004DE0, symSize: 0x140 }
  - { offsetInCU: 0x1CBC, offset: 0x29FE3, size: 0x8, addend: 0x0, symName: __ZN6semver5parse21prerelease_identifier17hd519a79e57e829cdE, symObjAddr: 0x530, symBinAddr: 0x100004F20, symSize: 0x60 }
  - { offsetInCU: 0x1DDB, offset: 0x2A102, size: 0x8, addend: 0x0, symName: __ZN6semver5parse16build_identifier17hb9f635b493a20907E, symObjAddr: 0x590, symBinAddr: 0x100004F80, symSize: 0x140 }
  - { offsetInCU: 0x2090, offset: 0x2A3B7, size: 0x8, addend: 0x0, symName: __ZN6semver5parse10identifier17h7a0e5ebd586ea6dcE.llvm.980898846405688337, symObjAddr: 0x6D0, symBinAddr: 0x1000050C0, symSize: 0x240 }
  - { offsetInCU: 0x1E, offset: 0x2AEC3, size: 0x8, addend: 0x0, symName: __ZN6semver10identifier10Identifier13new_unchecked17hf517e50f5df95c36E, symObjAddr: 0x0, symBinAddr: 0x100005300, symSize: 0x150 }
  - { offsetInCU: 0xA33, offset: 0x2B8D8, size: 0x8, addend: 0x0, symName: '__ZN72_$LT$semver..identifier..Identifier$u20$as$u20$core..ops..drop..Drop$GT$4drop17h3112730719d0729eE', symObjAddr: 0x2C0, symBinAddr: 0x100005450, symSize: 0x80 }
  - { offsetInCU: 0xCB2, offset: 0x2BB57, size: 0x8, addend: 0x0, symName: __ZN6semver10identifier10decode_len15decode_len_cold17h13339fa7f02ffd7eE.llvm.2884008303379187292, symObjAddr: 0x410, symBinAddr: 0x1000499C0, symSize: 0x3B }
  - { offsetInCU: 0xEDF, offset: 0x2BD84, size: 0x8, addend: 0x0, symName: __ZN6semver10identifier10Identifier13new_unchecked17hf517e50f5df95c36E, symObjAddr: 0x0, symBinAddr: 0x100005300, symSize: 0x150 }
  - { offsetInCU: 0x1E, offset: 0x2C0C8, size: 0x8, addend: 0x0, symName: '__ZN44_$LT$$RF$T$u20$as$u20$core..fmt..Display$GT$3fmt17he1f8407a50955413E', symObjAddr: 0x0, symBinAddr: 0x1000054D0, symSize: 0x30 }
  - { offsetInCU: 0x91, offset: 0x2C13B, size: 0x8, addend: 0x0, symName: '__ZN64_$LT$semver..error..QuotedChar$u20$as$u20$core..fmt..Display$GT$3fmt17h8a4f6b9b6b5cf7deE', symObjAddr: 0x60, symBinAddr: 0x100005500, symSize: 0x70 }
  - { offsetInCU: 0x27C, offset: 0x2C326, size: 0x8, addend: 0x0, symName: '__ZN44_$LT$$RF$T$u20$as$u20$core..fmt..Display$GT$3fmt17he1f8407a50955413E', symObjAddr: 0x0, symBinAddr: 0x1000054D0, symSize: 0x30 }
  - { offsetInCU: 0x1E, offset: 0x2C6C8, size: 0x8, addend: 0x0, symName: '__ZN44_$LT$$RF$T$u20$as$u20$core..fmt..Display$GT$3fmt17h66a910dafc440937E', symObjAddr: 0x0, symBinAddr: 0x100005570, symSize: 0x10 }
  - { offsetInCU: 0x64, offset: 0x2C70E, size: 0x8, addend: 0x0, symName: '__ZN44_$LT$$RF$T$u20$as$u20$core..fmt..Display$GT$3fmt17h66a910dafc440937E', symObjAddr: 0x0, symBinAddr: 0x100005570, symSize: 0x10 }
  - { offsetInCU: 0xAA, offset: 0x2C754, size: 0x8, addend: 0x0, symName: '__ZN44_$LT$$RF$T$u20$as$u20$core..fmt..Display$GT$3fmt17hdbc9c01e61b0d398E', symObjAddr: 0x10, symBinAddr: 0x100005580, symSize: 0x20 }
...
