---
triple:          'x86_64-apple-darwin'
binary-path:     "/Users/justinlanouette/Chaos/ChaöS-Token/hello_world/target/release/deps/libark_ff_asm-144a9d4772b91ad0.dylib"
relocations:
  - { offsetInCU: 0x1E, offset: 0x1E, size: 0x8, addend: 0x0, symName: __ZN10proc_macro6bridge6client14HandleCounters3get17h2c76d49220b98e92E, symObjAddr: 0x0, symBinAddr: 0x3340, symSize: 0x10 }
  - { offsetInCU: 0x342, offset: 0x342, size: 0x8, addend: 0x0, symName: '__ZN61_$LT$T$u20$as$u20$syn..parse_macro_input..ParseMacroInput$GT$5parse17h5ccfabdc25d1f93aE', symObjAddr: 0x74B0, symBinAddr: 0xA7F0, symSize: 0x400 }
  - { offsetInCU: 0xC7F, offset: 0xC7F, size: 0x8, addend: 0x0, symName: '__ZN61_$LT$T$u20$as$u20$syn..parse_macro_input..ParseMacroInput$GT$5parse17hadbac6a9234e2603E', symObjAddr: 0x78B0, symBinAddr: 0xABF0, symSize: 0x4A0 }
  - { offsetInCU: 0x3BB4, offset: 0x3BB4, size: 0x8, addend: 0x0, symName: '__ZN4core3ptr100drop_in_place$LT$core..option..Option$LT$alloc..boxed..Box$LT$syn..generics..LifetimeDef$GT$$GT$$GT$17h5dd8e0b04b4a3baaE', symObjAddr: 0x10, symBinAddr: 0x3350, symSize: 0x150 }
  - { offsetInCU: 0x4130, offset: 0x4130, size: 0x8, addend: 0x0, symName: '__ZN4core3ptr100drop_in_place$LT$core..option..Option$LT$alloc..boxed..Box$LT$syn..path..GenericArgument$GT$$GT$$GT$17h26ee87b1c4c5dc42E', symObjAddr: 0x160, symBinAddr: 0x34A0, symSize: 0x50 }
  - { offsetInCU: 0x4379, offset: 0x4379, size: 0x8, addend: 0x0, symName: '__ZN4core3ptr103drop_in_place$LT$syn..punctuated..Punctuated$LT$syn..generics..TypeParamBound$C$syn..token..Add$GT$$GT$17h4f3843b72f327789E', symObjAddr: 0x1B0, symBinAddr: 0x34F0, symSize: 0x160 }
  - { offsetInCU: 0x49D2, offset: 0x49D2, size: 0x8, addend: 0x0, symName: '__ZN4core3ptr108drop_in_place$LT$syn..punctuated..Punctuated$LT$syn..expr..GenericMethodArgument$C$syn..token..Comma$GT$$GT$17h9b79ee4fdcae7363E', symObjAddr: 0x310, symBinAddr: 0x3650, symSize: 0x150 }
  - { offsetInCU: 0x4F2B, offset: 0x4F2B, size: 0x8, addend: 0x0, symName: '__ZN4core3ptr34drop_in_place$LT$syn..lit..Lit$GT$17he892d6bcf66ad631E', symObjAddr: 0x460, symBinAddr: 0x37A0, symSize: 0x110 }
  - { offsetInCU: 0x53FA, offset: 0x53FA, size: 0x8, addend: 0x0, symName: '__ZN4core3ptr34drop_in_place$LT$syn..pat..Pat$GT$17h6d1a07bd3be6c591E', symObjAddr: 0x570, symBinAddr: 0x38B0, symSize: 0x1190 }
  - { offsetInCU: 0x9312, offset: 0x9312, size: 0x8, addend: 0x0, symName: '__ZN4core3ptr34drop_in_place$LT$syn..ty..Type$GT$17h1a36674572c6e171E', symObjAddr: 0x1700, symBinAddr: 0x4A40, symSize: 0x540 }
  - { offsetInCU: 0xAB9A, offset: 0xAB9A, size: 0x8, addend: 0x0, symName: '__ZN4core3ptr36drop_in_place$LT$syn..expr..Expr$GT$17h2ce4108c1413d692E', symObjAddr: 0x1C40, symBinAddr: 0x4F80, symSize: 0x3290 }
  - { offsetInCU: 0x1542B, offset: 0x1542B, size: 0x8, addend: 0x0, symName: '__ZN4core3ptr36drop_in_place$LT$syn..mac..Macro$GT$17h55fbd9be7ef4af2bE', symObjAddr: 0x4ED0, symBinAddr: 0x8210, symSize: 0x40 }
  - { offsetInCU: 0x1557C, offset: 0x1557C, size: 0x8, addend: 0x0, symName: '__ZN4core3ptr36drop_in_place$LT$syn..path..Path$GT$17h199af0938b5ffb06E', symObjAddr: 0x4F10, symBinAddr: 0x8250, symSize: 0x230 }
  - { offsetInCU: 0x15F12, offset: 0x15F12, size: 0x8, addend: 0x0, symName: '__ZN4core3ptr37drop_in_place$LT$syn..stmt..Block$GT$17h4d573fd16c70050eE', symObjAddr: 0x5140, symBinAddr: 0x8480, symSize: 0xD0 }
  - { offsetInCU: 0x16227, offset: 0x16227, size: 0x8, addend: 0x0, symName: '__ZN4core3ptr38drop_in_place$LT$syn..error..Error$GT$17h8787a2145ae494e8E', symObjAddr: 0x5210, symBinAddr: 0x8550, symSize: 0x80 }
  - { offsetInCU: 0x164D3, offset: 0x164D3, size: 0x8, addend: 0x0, symName: '__ZN4core3ptr38drop_in_place$LT$syn..expr..Member$GT$17h7029f987c5ad537fE', symObjAddr: 0x5290, symBinAddr: 0x85D0, symSize: 0x30 }
  - { offsetInCU: 0x165CF, offset: 0x165CF, size: 0x8, addend: 0x0, symName: '__ZN4core3ptr39drop_in_place$LT$proc_macro2..Ident$GT$17he58a55800509d9f0E', symObjAddr: 0x52C0, symBinAddr: 0x8600, symSize: 0x30 }
  - { offsetInCU: 0x166AC, offset: 0x166AC, size: 0x8, addend: 0x0, symName: '__ZN4core3ptr39drop_in_place$LT$syn..pat..PatTuple$GT$17h173a134616340f87E', symObjAddr: 0x52F0, symBinAddr: 0x8630, symSize: 0x100 }
  - { offsetInCU: 0x169B5, offset: 0x169B5, size: 0x8, addend: 0x0, symName: '__ZN4core3ptr40drop_in_place$LT$syn..ty..ReturnType$GT$17haa68b7cc1b6acdbcE', symObjAddr: 0x53F0, symBinAddr: 0x8730, symSize: 0x50 }
  - { offsetInCU: 0x16B25, offset: 0x16B25, size: 0x8, addend: 0x0, symName: '__ZN4core3ptr44drop_in_place$LT$syn..lifetime..Lifetime$GT$17h5cf5f86ff08bbfffE', symObjAddr: 0x5440, symBinAddr: 0x8780, symSize: 0x30 }
  - { offsetInCU: 0x16D57, offset: 0x16D57, size: 0x8, addend: 0x0, symName: '__ZN4core3ptr45drop_in_place$LT$proc_macro2..TokenStream$GT$17hb63c2ba91f609f4bE', symObjAddr: 0x5470, symBinAddr: 0x87B0, symSize: 0x140 }
  - { offsetInCU: 0x171F1, offset: 0x171F1, size: 0x8, addend: 0x0, symName: '__ZN4core3ptr47drop_in_place$LT$syn..path..GenericArgument$GT$17h4c3b95a0c49b421cE', symObjAddr: 0x55B0, symBinAddr: 0x88F0, symSize: 0x110 }
  - { offsetInCU: 0x175C6, offset: 0x175C6, size: 0x8, addend: 0x0, symName: '__ZN4core3ptr49drop_in_place$LT$ark_ff_asm..context..Context$GT$17hf9928b154fe3694fE', symObjAddr: 0x56C0, symBinAddr: 0x8A00, symSize: 0xC0 }
  - { offsetInCU: 0x17AC3, offset: 0x17AC3, size: 0x8, addend: 0x0, symName: '__ZN4core3ptr58drop_in_place$LT$alloc..vec..Vec$LT$syn..expr..Arm$GT$$GT$17heb1fa160e7547cffE', symObjAddr: 0x5780, symBinAddr: 0x8AC0, symSize: 0xD0 }
  - { offsetInCU: 0x17D83, offset: 0x17D83, size: 0x8, addend: 0x0, symName: '__ZN4core3ptr59drop_in_place$LT$alloc..boxed..Box$LT$syn..pat..Pat$GT$$GT$17h60be5d6a66b3da05E', symObjAddr: 0x5850, symBinAddr: 0x8B90, symSize: 0x50 }
  - { offsetInCU: 0x17EDC, offset: 0x17EDC, size: 0x8, addend: 0x0, symName: '__ZN4core3ptr59drop_in_place$LT$alloc..boxed..Box$LT$syn..ty..Type$GT$$GT$17heeb121783262cf62E', symObjAddr: 0x58A0, symBinAddr: 0x8BE0, symSize: 0x50 }
  - { offsetInCU: 0x18054, offset: 0x18054, size: 0x8, addend: 0x0, symName: '__ZN4core3ptr59drop_in_place$LT$alloc..vec..Vec$LT$syn..expr..Expr$GT$$GT$17h987c0a282b64620dE', symObjAddr: 0x58F0, symBinAddr: 0x8C30, symSize: 0xD0 }
  - { offsetInCU: 0x18314, offset: 0x18314, size: 0x8, addend: 0x0, symName: '__ZN4core3ptr61drop_in_place$LT$alloc..boxed..Box$LT$syn..expr..Expr$GT$$GT$17h0ad33ed96c4c860bE', symObjAddr: 0x59C0, symBinAddr: 0x8D00, symSize: 0x50 }
  - { offsetInCU: 0x184E9, offset: 0x184E9, size: 0x8, addend: 0x0, symName: '__ZN4core3ptr61drop_in_place$LT$syn..path..ParenthesizedGenericArguments$GT$17hab49d4514a628b5dE', symObjAddr: 0x5A10, symBinAddr: 0x8D50, symSize: 0x170 }
  - { offsetInCU: 0x18ADF, offset: 0x18ADF, size: 0x8, addend: 0x0, symName: '__ZN4core3ptr63drop_in_place$LT$alloc..boxed..Box$LT$syn..lit..LitRepr$GT$$GT$17hd0037c2cc2fbadacE', symObjAddr: 0x5B80, symBinAddr: 0x8EC0, symSize: 0x60 }
  - { offsetInCU: 0x18DE6, offset: 0x18DE6, size: 0x8, addend: 0x0, symName: '__ZN4core3ptr64drop_in_place$LT$alloc..boxed..Box$LT$syn..pat..FieldPat$GT$$GT$17hece52a686c7fd034E', symObjAddr: 0x5BE0, symBinAddr: 0x8F20, symSize: 0x180 }
  - { offsetInCU: 0x19503, offset: 0x19503, size: 0x8, addend: 0x0, symName: '__ZN4core3ptr64drop_in_place$LT$alloc..boxed..Box$LT$syn..ty..BareFnArg$GT$$GT$17hc6fd980ef480b95dE', symObjAddr: 0x5D60, symBinAddr: 0x90A0, symSize: 0x160 }
  - { offsetInCU: 0x19A99, offset: 0x19A99, size: 0x8, addend: 0x0, symName: '__ZN4core3ptr64drop_in_place$LT$alloc..vec..Vec$LT$syn..attr..Attribute$GT$$GT$17hb5733b855a871739E', symObjAddr: 0x5EC0, symBinAddr: 0x9200, symSize: 0xF0 }
  - { offsetInCU: 0x19D8F, offset: 0x19D8F, size: 0x8, addend: 0x0, symName: '__ZN4core3ptr65drop_in_place$LT$alloc..vec..Vec$LT$alloc..string..String$GT$$GT$17h2f82d59515095094E', symObjAddr: 0x5FB0, symBinAddr: 0x92F0, symSize: 0x90 }
  - { offsetInCU: 0x1A010, offset: 0x1A010, size: 0x8, addend: 0x0, symName: '__ZN4core3ptr65drop_in_place$LT$alloc..vec..Vec$LT$proc_macro..TokenTree$GT$$GT$17h4c6fdabd28fc3216E', symObjAddr: 0x6040, symBinAddr: 0x9380, symSize: 0x110 }
  - { offsetInCU: 0x1A408, offset: 0x1A408, size: 0x8, addend: 0x0, symName: '__ZN4core3ptr65drop_in_place$LT$core..option..Option$LT$syn..expr..Label$GT$$GT$17h7883508f217ffb0fE', symObjAddr: 0x6150, symBinAddr: 0x9490, symSize: 0x30 }
  - { offsetInCU: 0x1A542, offset: 0x1A542, size: 0x8, addend: 0x0, symName: '__ZN4core3ptr66drop_in_place$LT$core..option..Option$LT$syn..ty..Variadic$GT$$GT$17hd6ff1173fba1be01E', symObjAddr: 0x6180, symBinAddr: 0x94C0, symSize: 0xF0 }
  - { offsetInCU: 0x1A86C, offset: 0x1A86C, size: 0x8, addend: 0x0, symName: '__ZN4core3ptr67drop_in_place$LT$alloc..boxed..Box$LT$syn..expr..FieldValue$GT$$GT$17h31cf09f513da42aaE', symObjAddr: 0x6270, symBinAddr: 0x95B0, symSize: 0x160 }
  - { offsetInCU: 0x1AE01, offset: 0x1AE01, size: 0x8, addend: 0x0, symName: '__ZN4core3ptr68drop_in_place$LT$alloc..boxed..Box$LT$syn..path..PathSegment$GT$$GT$17h32735e8ea349f2d1E', symObjAddr: 0x63D0, symBinAddr: 0x9710, symSize: 0x190 }
  - { offsetInCU: 0x1B50B, offset: 0x1B50B, size: 0x8, addend: 0x0, symName: '__ZN4core3ptr72drop_in_place$LT$alloc..boxed..Box$LT$syn..path..GenericArgument$GT$$GT$17h375d0c08b19f3433E', symObjAddr: 0x6560, symBinAddr: 0x98A0, symSize: 0x120 }
  - { offsetInCU: 0x1B983, offset: 0x1B983, size: 0x8, addend: 0x0, symName: '__ZN4core3ptr72drop_in_place$LT$core..option..Option$LT$syn..lifetime..Lifetime$GT$$GT$17hd295f5e840a020ccE', symObjAddr: 0x6680, symBinAddr: 0x99C0, symSize: 0x30 }
  - { offsetInCU: 0x1BA9E, offset: 0x1BA9E, size: 0x8, addend: 0x0, symName: '__ZN4core3ptr75drop_in_place$LT$alloc..boxed..Box$LT$syn..generics..TypeParamBound$GT$$GT$17h7c1afe98f7f6f16aE', symObjAddr: 0x66B0, symBinAddr: 0x99F0, symSize: 0x90 }
  - { offsetInCU: 0x1BD61, offset: 0x1BD61, size: 0x8, addend: 0x0, symName: '__ZN4core3ptr78drop_in_place$LT$alloc..boxed..Box$LT$syn..expr..GenericMethodArgument$GT$$GT$17h55a4260f78553f71E', symObjAddr: 0x6740, symBinAddr: 0x9A80, symSize: 0x60 }
  - { offsetInCU: 0x1BF53, offset: 0x1BF53, size: 0x8, addend: 0x0, symName: '__ZN4core3ptr78drop_in_place$LT$core..option..Option$LT$syn..generics..BoundLifetimes$GT$$GT$17haf03396f7774368eE', symObjAddr: 0x67A0, symBinAddr: 0x9AE0, symSize: 0x90 }
  - { offsetInCU: 0x1C241, offset: 0x1C241, size: 0x8, addend: 0x0, symName: '__ZN4core3ptr86drop_in_place$LT$syn..punctuated..Punctuated$LT$syn..pat..Pat$C$syn..token..Or$GT$$GT$17hbb2b6b72e812801eE', symObjAddr: 0x6830, symBinAddr: 0x9B70, symSize: 0x120 }
  - { offsetInCU: 0x1C6BC, offset: 0x1C6BC, size: 0x8, addend: 0x0, symName: '__ZN4core3ptr87drop_in_place$LT$core..option..Option$LT$alloc..boxed..Box$LT$syn..pat..Pat$GT$$GT$$GT$17hcfd4919c66658841E', symObjAddr: 0x6950, symBinAddr: 0x9C90, symSize: 0x50 }
  - { offsetInCU: 0x1C82C, offset: 0x1C82C, size: 0x8, addend: 0x0, symName: '__ZN4core3ptr87drop_in_place$LT$core..option..Option$LT$alloc..boxed..Box$LT$syn..ty..Type$GT$$GT$$GT$17hb89ed7b1d392328bE', symObjAddr: 0x69A0, symBinAddr: 0x9CE0, symSize: 0x50 }
  - { offsetInCU: 0x1C99C, offset: 0x1C99C, size: 0x8, addend: 0x0, symName: '__ZN4core3ptr89drop_in_place$LT$core..option..Option$LT$alloc..boxed..Box$LT$syn..expr..Expr$GT$$GT$$GT$17hb6243efdcf519f03E', symObjAddr: 0x69F0, symBinAddr: 0x9D30, symSize: 0x50 }
  - { offsetInCU: 0x1CB4A, offset: 0x1CB4A, size: 0x8, addend: 0x0, symName: '__ZN4core3ptr89drop_in_place$LT$syn..punctuated..Punctuated$LT$syn..pat..Pat$C$syn..token..Comma$GT$$GT$17h1055c4b414ae37a9E', symObjAddr: 0x6A40, symBinAddr: 0x9D80, symSize: 0x120 }
  - { offsetInCU: 0x1CFDC, offset: 0x1CFDC, size: 0x8, addend: 0x0, symName: '__ZN4core3ptr89drop_in_place$LT$syn..punctuated..Punctuated$LT$syn..ty..Type$C$syn..token..Comma$GT$$GT$17h72d99448207a7e07E', symObjAddr: 0x6B60, symBinAddr: 0x9EA0, symSize: 0x120 }
  - { offsetInCU: 0x1D495, offset: 0x1D495, size: 0x8, addend: 0x0, symName: '__ZN4core3ptr91drop_in_place$LT$syn..punctuated..Punctuated$LT$syn..expr..Expr$C$syn..token..Comma$GT$$GT$17hf148654d6f6c8948E', symObjAddr: 0x6C80, symBinAddr: 0x9FC0, symSize: 0x120 }
  - { offsetInCU: 0x1D923, offset: 0x1D923, size: 0x8, addend: 0x0, symName: '__ZN4core3ptr94drop_in_place$LT$syn..punctuated..Punctuated$LT$syn..pat..FieldPat$C$syn..token..Comma$GT$$GT$17h611ffe8d66e43618E', symObjAddr: 0x6DA0, symBinAddr: 0xA0E0, symSize: 0xF0 }
  - { offsetInCU: 0x1DC22, offset: 0x1DC22, size: 0x8, addend: 0x0, symName: '__ZN4core3ptr94drop_in_place$LT$syn..punctuated..Punctuated$LT$syn..ty..BareFnArg$C$syn..token..Comma$GT$$GT$17h2613c88a3dcf4e8bE', symObjAddr: 0x6E90, symBinAddr: 0xA1D0, symSize: 0x90 }
  - { offsetInCU: 0x1DE92, offset: 0x1DE92, size: 0x8, addend: 0x0, symName: '__ZN4core3ptr96drop_in_place$LT$core..option..Option$LT$alloc..boxed..Box$LT$syn..path..PathSegment$GT$$GT$$GT$17hf79dec3399db1c31E', symObjAddr: 0x6F20, symBinAddr: 0xA260, symSize: 0x180 }
  - { offsetInCU: 0x1E54F, offset: 0x1E54F, size: 0x8, addend: 0x0, symName: '__ZN4core3ptr97drop_in_place$LT$syn..punctuated..Punctuated$LT$syn..expr..FieldValue$C$syn..token..Comma$GT$$GT$17hde8846b572708e4cE', symObjAddr: 0x70A0, symBinAddr: 0xA3E0, symSize: 0xF0 }
  - { offsetInCU: 0x1E8C8, offset: 0x1E8C8, size: 0x8, addend: 0x0, symName: '__ZN4core3ptr97drop_in_place$LT$syn..punctuated..Punctuated$LT$syn..lifetime..Lifetime$C$syn..token..Add$GT$$GT$17ha261eddfb5dc9f8cE', symObjAddr: 0x7190, symBinAddr: 0xA4D0, symSize: 0xD0 }
  - { offsetInCU: 0x1ED3C, offset: 0x1ED3C, size: 0x8, addend: 0x0, symName: '__ZN4core3ptr99drop_in_place$LT$syn..punctuated..Punctuated$LT$syn..path..PathSegment$C$syn..token..Colon2$GT$$GT$17h478772ddb14ca2b7E', symObjAddr: 0x7260, symBinAddr: 0xA5A0, symSize: 0x250 }
  - { offsetInCU: 0x21EB2, offset: 0x21EB2, size: 0x8, addend: 0x0, symName: ___rustc_proc_macro_decls_68fff7e955b47a9a__, symObjAddr: 0xE378, symBinAddr: 0x2345D0, symSize: 0x0 }
  - { offsetInCU: 0x220E8, offset: 0x220E8, size: 0x8, addend: 0x0, symName: __ZN10ark_ff_asm14x86_64_asm_mul17h9e0129322f534eb3E, symObjAddr: 0x7D50, symBinAddr: 0xB090, symSize: 0x5B0 }
  - { offsetInCU: 0x22B2C, offset: 0x22B2C, size: 0x8, addend: 0x0, symName: __ZN10ark_ff_asm17x86_64_asm_square17h918c98ae240c5627E, symObjAddr: 0x8300, symBinAddr: 0xB640, symSize: 0x520 }
  - { offsetInCU: 0x235B2, offset: 0x235B2, size: 0x8, addend: 0x0, symName: __ZN10ark_ff_asm17construct_asm_mul17h49f90fdfa65d3d85E, symObjAddr: 0x8820, symBinAddr: 0xBB60, symSize: 0x3D70 }
  - { offsetInCU: 0x32C0D, offset: 0x32C0D, size: 0x8, addend: 0x0, symName: __ZN10ark_ff_asm13generate_impl17hd9ec9f8ffb1c80c8E, symObjAddr: 0xC590, symBinAddr: 0xF8D0, symSize: 0x533 }
  - { offsetInCU: 0x337B3, offset: 0x337B3, size: 0x8, addend: 0x0, symName: __ZN10proc_macro6bridge6client14HandleCounters3get17h2c76d49220b98e92E, symObjAddr: 0x0, symBinAddr: 0x3340, symSize: 0x10 }
  - { offsetInCU: 0x1E, offset: 0x43C33, size: 0x8, addend: 0x0, symName: '__ZN4core3ptr100drop_in_place$LT$core..option..Option$LT$alloc..boxed..Box$LT$syn..generics..LifetimeDef$GT$$GT$$GT$17h5dd8e0b04b4a3baaE', symObjAddr: 0x0, symBinAddr: 0xFE10, symSize: 0x50 }
  - { offsetInCU: 0x1C04, offset: 0x45819, size: 0x8, addend: 0x0, symName: '__ZN4core3ptr100drop_in_place$LT$core..option..Option$LT$alloc..boxed..Box$LT$syn..generics..LifetimeDef$GT$$GT$$GT$17h5dd8e0b04b4a3baaE', symObjAddr: 0x0, symBinAddr: 0xFE10, symSize: 0x50 }
  - { offsetInCU: 0x1D93, offset: 0x459A8, size: 0x8, addend: 0x0, symName: '__ZN4core3ptr100drop_in_place$LT$core..option..Option$LT$alloc..boxed..Box$LT$syn..path..GenericArgument$GT$$GT$$GT$17h26ee87b1c4c5dc42E', symObjAddr: 0x50, symBinAddr: 0xFE60, symSize: 0x50 }
  - { offsetInCU: 0x1F22, offset: 0x45B37, size: 0x8, addend: 0x0, symName: '__ZN4core3ptr101drop_in_place$LT$core..option..Option$LT$alloc..boxed..Box$LT$syn..generics..GenericParam$GT$$GT$$GT$17h5551f21a71661474E', symObjAddr: 0xA0, symBinAddr: 0xFEB0, symSize: 0x50 }
  - { offsetInCU: 0x21E7, offset: 0x45DFC, size: 0x8, addend: 0x0, symName: '__ZN4core3ptr102drop_in_place$LT$syn..punctuated..Punctuated$LT$syn..generics..LifetimeDef$C$syn..token..Comma$GT$$GT$17h1044ec79daef979eE', symObjAddr: 0xF0, symBinAddr: 0xFF00, symSize: 0x170 }
  - { offsetInCU: 0x26DE, offset: 0x462F3, size: 0x8, addend: 0x0, symName: '__ZN4core3ptr102drop_in_place$LT$syn..punctuated..Punctuated$LT$syn..path..GenericArgument$C$syn..token..Comma$GT$$GT$17h087f34203197d088E.llvm.7759719427820760843', symObjAddr: 0x260, symBinAddr: 0x10070, symSize: 0xF0 }
  - { offsetInCU: 0x2A7D, offset: 0x46692, size: 0x8, addend: 0x0, symName: '__ZN4core3ptr103drop_in_place$LT$core..option..Option$LT$alloc..boxed..Box$LT$syn..generics..TypeParamBound$GT$$GT$$GT$17h4f535cf1a22ed666E', symObjAddr: 0x350, symBinAddr: 0x10160, symSize: 0xA0 }
  - { offsetInCU: 0x2D6C, offset: 0x46981, size: 0x8, addend: 0x0, symName: '__ZN4core3ptr103drop_in_place$LT$core..option..Option$LT$alloc..boxed..Box$LT$syn..generics..WherePredicate$GT$$GT$$GT$17h7cf227201375736eE', symObjAddr: 0x3F0, symBinAddr: 0x10200, symSize: 0x50 }
  - { offsetInCU: 0x2F96, offset: 0x46BAB, size: 0x8, addend: 0x0, symName: '__ZN4core3ptr103drop_in_place$LT$syn..punctuated..Punctuated$LT$syn..generics..GenericParam$C$syn..token..Comma$GT$$GT$17h3920405572801ef6E', symObjAddr: 0x440, symBinAddr: 0x10250, symSize: 0x1A0 }
  - { offsetInCU: 0x3582, offset: 0x47197, size: 0x8, addend: 0x0, symName: '__ZN4core3ptr103drop_in_place$LT$syn..punctuated..Punctuated$LT$syn..generics..TypeParamBound$C$syn..token..Add$GT$$GT$17h4f3843b72f327789E', symObjAddr: 0x5E0, symBinAddr: 0x103F0, symSize: 0x2E0 }
  - { offsetInCU: 0x4370, offset: 0x47F85, size: 0x8, addend: 0x0, symName: '__ZN4core3ptr105drop_in_place$LT$syn..punctuated..Punctuated$LT$syn..generics..WherePredicate$C$syn..token..Comma$GT$$GT$17hcca8ec8fa8a5121bE', symObjAddr: 0x8C0, symBinAddr: 0x106D0, symSize: 0x1A0 }
  - { offsetInCU: 0x49E6, offset: 0x485FB, size: 0x8, addend: 0x0, symName: '__ZN4core3ptr108drop_in_place$LT$syn..punctuated..Punctuated$LT$syn..expr..GenericMethodArgument$C$syn..token..Comma$GT$$GT$17h9b79ee4fdcae7363E', symObjAddr: 0xA60, symBinAddr: 0x10870, symSize: 0x150 }
  - { offsetInCU: 0x4ECA, offset: 0x48ADF, size: 0x8, addend: 0x0, symName: '__ZN4core3ptr126drop_in_place$LT$core..option..Option$LT$$LP$syn..token..And$C$core..option..Option$LT$syn..lifetime..Lifetime$GT$$RP$$GT$$GT$17h403a0a12240b5c10E', symObjAddr: 0xBB0, symBinAddr: 0x109C0, symSize: 0x30 }
  - { offsetInCU: 0x5159, offset: 0x48D6E, size: 0x8, addend: 0x0, symName: '__ZN4core3ptr33drop_in_place$LT$syn..ty..Abi$GT$17hdf5c438a3a92e722E', symObjAddr: 0xBE0, symBinAddr: 0x109F0, symSize: 0x70 }
  - { offsetInCU: 0x5175, offset: 0x48D8A, size: 0x8, addend: 0x0, symName: '__ZN4core3ptr33drop_in_place$LT$syn..ty..Abi$GT$17hdf5c438a3a92e722E', symObjAddr: 0xBE0, symBinAddr: 0x109F0, symSize: 0x70 }
  - { offsetInCU: 0x544D, offset: 0x49062, size: 0x8, addend: 0x0, symName: '__ZN4core3ptr34drop_in_place$LT$syn..lit..Lit$GT$17he892d6bcf66ad631E', symObjAddr: 0xC50, symBinAddr: 0x10A60, symSize: 0x110 }
  - { offsetInCU: 0x5881, offset: 0x49496, size: 0x8, addend: 0x0, symName: '__ZN4core3ptr34drop_in_place$LT$syn..pat..Pat$GT$17h6d1a07bd3be6c591E.llvm.7759719427820760843', symObjAddr: 0xD60, symBinAddr: 0x10B70, symSize: 0xB20 }
  - { offsetInCU: 0x9067, offset: 0x4CC7C, size: 0x8, addend: 0x0, symName: '__ZN4core3ptr34drop_in_place$LT$syn..ty..Type$GT$17h1a36674572c6e171E.llvm.7759719427820760843', symObjAddr: 0x1880, symBinAddr: 0x11690, symSize: 0x410 }
  - { offsetInCU: 0x9DC0, offset: 0x4D9D5, size: 0x8, addend: 0x0, symName: '__ZN4core3ptr35drop_in_place$LT$syn..expr..Arm$GT$17h26e0c254ea434ea3E.llvm.7759719427820760843', symObjAddr: 0x1C90, symBinAddr: 0x11AA0, symSize: 0x1A0 }
  - { offsetInCU: 0xAA16, offset: 0x4E62B, size: 0x8, addend: 0x0, symName: '__ZN4core3ptr36drop_in_place$LT$syn..expr..Expr$GT$17h2ce4108c1413d692E.llvm.7759719427820760843', symObjAddr: 0x1E30, symBinAddr: 0x11C40, symSize: 0x1F80 }
  - { offsetInCU: 0x14D7A, offset: 0x5898F, size: 0x8, addend: 0x0, symName: '__ZN4core3ptr36drop_in_place$LT$syn..item..Item$GT$17hc967c578d62f6619E.llvm.7759719427820760843', symObjAddr: 0x3DB0, symBinAddr: 0x13BC0, symSize: 0x1710 }
  - { offsetInCU: 0x1B968, offset: 0x5F57D, size: 0x8, addend: 0x0, symName: '__ZN4core3ptr36drop_in_place$LT$syn..mac..Macro$GT$17h55fbd9be7ef4af2bE', symObjAddr: 0x54C0, symBinAddr: 0x152D0, symSize: 0xE0 }
  - { offsetInCU: 0x1BD0E, offset: 0x5F923, size: 0x8, addend: 0x0, symName: '__ZN4core3ptr36drop_in_place$LT$syn..path..Path$GT$17h199af0938b5ffb06E.llvm.7759719427820760843', symObjAddr: 0x55A0, symBinAddr: 0x153B0, symSize: 0x160 }
  - { offsetInCU: 0x1C2B6, offset: 0x5FECB, size: 0x8, addend: 0x0, symName: '__ZN4core3ptr36drop_in_place$LT$syn..stmt..Stmt$GT$17h2cbb1ad6a178ad5bE.llvm.7759719427820760843', symObjAddr: 0x5700, symBinAddr: 0x15510, symSize: 0x140 }
  - { offsetInCU: 0x1C748, offset: 0x6035D, size: 0x8, addend: 0x0, symName: '__ZN4core3ptr37drop_in_place$LT$syn..data..Field$GT$17h8f4a77b495286ff2E', symObjAddr: 0x5840, symBinAddr: 0x15650, symSize: 0x1B0 }
  - { offsetInCU: 0x1CD42, offset: 0x60957, size: 0x8, addend: 0x0, symName: '__ZN4core3ptr37drop_in_place$LT$syn..item..FnArg$GT$17h4960d735d6cb536dE', symObjAddr: 0x59F0, symBinAddr: 0x15800, symSize: 0x190 }
  - { offsetInCU: 0x1D6E4, offset: 0x612F9, size: 0x8, addend: 0x0, symName: '__ZN4core3ptr37drop_in_place$LT$syn..stmt..Block$GT$17h4d573fd16c70050eE', symObjAddr: 0x5B80, symBinAddr: 0x15990, symSize: 0xD0 }
  - { offsetInCU: 0x1D9C2, offset: 0x615D7, size: 0x8, addend: 0x0, symName: '__ZN4core3ptr38drop_in_place$LT$syn..expr..Member$GT$17h7029f987c5ad537fE.llvm.7759719427820760843', symObjAddr: 0x5C50, symBinAddr: 0x15A60, symSize: 0x30 }
  - { offsetInCU: 0x1DABE, offset: 0x616D3, size: 0x8, addend: 0x0, symName: '__ZN4core3ptr38drop_in_place$LT$syn..pat..PatType$GT$17he2ff4f992dbcfb87E', symObjAddr: 0x5C80, symBinAddr: 0x15A90, symSize: 0x160 }
  - { offsetInCU: 0x1E076, offset: 0x61C8B, size: 0x8, addend: 0x0, symName: '__ZN4core3ptr38drop_in_place$LT$syn..ty..Variadic$GT$17he0ae1b9a8b1aaa80E', symObjAddr: 0x5DE0, symBinAddr: 0x15BF0, symSize: 0x80 }
  - { offsetInCU: 0x1E345, offset: 0x61F5A, size: 0x8, addend: 0x0, symName: '__ZN4core3ptr39drop_in_place$LT$proc_macro2..Ident$GT$17he58a55800509d9f0E', symObjAddr: 0x5E60, symBinAddr: 0x15C70, symSize: 0x30 }
  - { offsetInCU: 0x1E47F, offset: 0x62094, size: 0x8, addend: 0x0, symName: '__ZN4core3ptr39drop_in_place$LT$syn..data..Variant$GT$17h942f6050acd80f25E', symObjAddr: 0x5E90, symBinAddr: 0x15CA0, symSize: 0x330 }
  - { offsetInCU: 0x1F128, offset: 0x62D3D, size: 0x8, addend: 0x0, symName: '__ZN4core3ptr39drop_in_place$LT$syn..item..UseTree$GT$17h1112427b8154dc92E', symObjAddr: 0x61C0, symBinAddr: 0x15FD0, symSize: 0x1F0 }
  - { offsetInCU: 0x1F900, offset: 0x63515, size: 0x8, addend: 0x0, symName: '__ZN4core3ptr39drop_in_place$LT$syn..pat..PatTuple$GT$17h173a134616340f87E', symObjAddr: 0x63B0, symBinAddr: 0x161C0, symSize: 0x1F0 }
  - { offsetInCU: 0x200A4, offset: 0x63CB9, size: 0x8, addend: 0x0, symName: '__ZN4core3ptr40drop_in_place$LT$syn..item..ImplItem$GT$17h5844b7d2b2a1eb18E', symObjAddr: 0x65A0, symBinAddr: 0x163B0, symSize: 0x1F0 }
  - { offsetInCU: 0x206B0, offset: 0x642C5, size: 0x8, addend: 0x0, symName: '__ZN4core3ptr40drop_in_place$LT$syn..item..Receiver$GT$17haea22e3e47ceb3feE', symObjAddr: 0x6790, symBinAddr: 0x165A0, symSize: 0x140 }
  - { offsetInCU: 0x20B3E, offset: 0x64753, size: 0x8, addend: 0x0, symName: '__ZN4core3ptr40drop_in_place$LT$syn..ty..ReturnType$GT$17haa68b7cc1b6acdbcE.llvm.7759719427820760843', symObjAddr: 0x68D0, symBinAddr: 0x166E0, symSize: 0x50 }
  - { offsetInCU: 0x20CAE, offset: 0x648C3, size: 0x8, addend: 0x0, symName: '__ZN4core3ptr41drop_in_place$LT$syn..attr..Attribute$GT$17h9ccf0daa1e754829E.llvm.7759719427820760843', symObjAddr: 0x6920, symBinAddr: 0x16730, symSize: 0x40 }
  - { offsetInCU: 0x20E1E, offset: 0x64A33, size: 0x8, addend: 0x0, symName: '__ZN4core3ptr41drop_in_place$LT$syn..item..Signature$GT$17h6e94dabe2c622833E', symObjAddr: 0x6960, symBinAddr: 0x16770, symSize: 0x2C0 }
  - { offsetInCU: 0x21CE2, offset: 0x658F7, size: 0x8, addend: 0x0, symName: '__ZN4core3ptr43drop_in_place$LT$proc_macro2..TokenTree$GT$17h4e9eeb2eed834d64E.llvm.7759719427820760843', symObjAddr: 0x6C20, symBinAddr: 0x16A30, symSize: 0xB0 }
  - { offsetInCU: 0x2203D, offset: 0x65C52, size: 0x8, addend: 0x0, symName: '__ZN4core3ptr43drop_in_place$LT$syn..data..FieldsNamed$GT$17h563cf3765b180a17E', symObjAddr: 0x6CD0, symBinAddr: 0x16AE0, symSize: 0x120 }
  - { offsetInCU: 0x2251C, offset: 0x66131, size: 0x8, addend: 0x0, symName: '__ZN4core3ptr43drop_in_place$LT$syn..path..PathSegment$GT$17hcb11f065e08ca451E.llvm.7759719427820760843', symObjAddr: 0x6DF0, symBinAddr: 0x16C00, symSize: 0x170 }
  - { offsetInCU: 0x22B16, offset: 0x6672B, size: 0x8, addend: 0x0, symName: '__ZN4core3ptr44drop_in_place$LT$syn..generics..Generics$GT$17hd595d6c9066fcdb1E', symObjAddr: 0x6F60, symBinAddr: 0x16D70, symSize: 0x230 }
  - { offsetInCU: 0x23453, offset: 0x67068, size: 0x8, addend: 0x0, symName: '__ZN4core3ptr44drop_in_place$LT$syn..item..ImplItemType$GT$17h852861f26a04cc33E', symObjAddr: 0x7190, symBinAddr: 0x16FA0, symSize: 0x200 }
  - { offsetInCU: 0x23A70, offset: 0x67685, size: 0x8, addend: 0x0, symName: '__ZN4core3ptr44drop_in_place$LT$syn..lifetime..Lifetime$GT$17h5cf5f86ff08bbfffE.llvm.7759719427820760843', symObjAddr: 0x7390, symBinAddr: 0x171A0, symSize: 0x30 }
  - { offsetInCU: 0x23BC9, offset: 0x677DE, size: 0x8, addend: 0x0, symName: '__ZN4core3ptr45drop_in_place$LT$proc_macro2..TokenStream$GT$17hb63c2ba91f609f4bE.llvm.7759719427820760843', symObjAddr: 0x73C0, symBinAddr: 0x171D0, symSize: 0x70 }
  - { offsetInCU: 0x23CFE, offset: 0x67913, size: 0x8, addend: 0x0, symName: '__ZN4core3ptr45drop_in_place$LT$syn..data..VisRestricted$GT$17h1ff9f121061ca051E', symObjAddr: 0x7430, symBinAddr: 0x17240, symSize: 0x100 }
  - { offsetInCU: 0x241C1, offset: 0x67DD6, size: 0x8, addend: 0x0, symName: '__ZN4core3ptr45drop_in_place$LT$syn..generics..TypeParam$GT$17hdaf2c97ccb9c996fE', symObjAddr: 0x7530, symBinAddr: 0x17340, symSize: 0x260 }
  - { offsetInCU: 0x24B7E, offset: 0x68793, size: 0x8, addend: 0x0, symName: '__ZN4core3ptr45drop_in_place$LT$syn..item..ImplItemConst$GT$17h7b01e78834268d44E', symObjAddr: 0x7790, symBinAddr: 0x175A0, symSize: 0x1D0 }
  - { offsetInCU: 0x25158, offset: 0x68D6D, size: 0x8, addend: 0x0, symName: '__ZN4core3ptr45drop_in_place$LT$syn..item..TraitItemType$GT$17heabbb290f591ed6cE', symObjAddr: 0x7960, symBinAddr: 0x17770, symSize: 0x2D0 }
  - { offsetInCU: 0x25BEE, offset: 0x69803, size: 0x8, addend: 0x0, symName: '__ZN4core3ptr46drop_in_place$LT$syn..generics..ConstParam$GT$17ha2387fd524b51043E', symObjAddr: 0x7C30, symBinAddr: 0x17A40, symSize: 0x180 }
  - { offsetInCU: 0x26026, offset: 0x69C3B, size: 0x8, addend: 0x0, symName: '__ZN4core3ptr46drop_in_place$LT$syn..item..ImplItemMethod$GT$17hcb419148410d8e5cE', symObjAddr: 0x7DB0, symBinAddr: 0x17BC0, symSize: 0x240 }
  - { offsetInCU: 0x267A4, offset: 0x6A3B9, size: 0x8, addend: 0x0, symName: '__ZN4core3ptr46drop_in_place$LT$syn..item..TraitItemConst$GT$17h8d16de2df380452eE', symObjAddr: 0x7FF0, symBinAddr: 0x17E00, symSize: 0x180 }
  - { offsetInCU: 0x26C0E, offset: 0x6A823, size: 0x8, addend: 0x0, symName: '__ZN4core3ptr47drop_in_place$LT$syn..generics..LifetimeDef$GT$17h3e312ea16cb68026E', symObjAddr: 0x8170, symBinAddr: 0x17F80, symSize: 0xB0 }
  - { offsetInCU: 0x26FD6, offset: 0x6ABEB, size: 0x8, addend: 0x0, symName: '__ZN4core3ptr47drop_in_place$LT$syn..generics..WhereClause$GT$17he8c73ef731a951f1E', symObjAddr: 0x8220, symBinAddr: 0x18030, symSize: 0x120 }
  - { offsetInCU: 0x27496, offset: 0x6B0AB, size: 0x8, addend: 0x0, symName: '__ZN4core3ptr47drop_in_place$LT$syn..path..GenericArgument$GT$17h4c3b95a0c49b421cE', symObjAddr: 0x8340, symBinAddr: 0x18150, symSize: 0x110 }
  - { offsetInCU: 0x277B1, offset: 0x6B3C6, size: 0x8, addend: 0x0, symName: '__ZN4core3ptr48drop_in_place$LT$syn..generics..GenericParam$GT$17h2688db10b793c157E', symObjAddr: 0x8450, symBinAddr: 0x18260, symSize: 0xF0 }
  - { offsetInCU: 0x27B96, offset: 0x6B7AB, size: 0x8, addend: 0x0, symName: '__ZN4core3ptr49drop_in_place$LT$syn..generics..PredicateType$GT$17h7a9644890623f14fE', symObjAddr: 0x8540, symBinAddr: 0x18350, symSize: 0x230 }
  - { offsetInCU: 0x285BA, offset: 0x6C1CF, size: 0x8, addend: 0x0, symName: '__ZN4core3ptr49drop_in_place$LT$syn..item..ForeignItemStatic$GT$17haf33c8d5d8e1a38fE', symObjAddr: 0x8770, symBinAddr: 0x18580, symSize: 0x1D0 }
  - { offsetInCU: 0x28D7E, offset: 0x6C993, size: 0x8, addend: 0x0, symName: '__ZN4core3ptr50drop_in_place$LT$$u5b$syn..item..ImplItem$u5d$$GT$17h4a3c6c2d2400808aE', symObjAddr: 0x8940, symBinAddr: 0x18750, symSize: 0x420 }
  - { offsetInCU: 0x294DC, offset: 0x6D0F1, size: 0x8, addend: 0x0, symName: '__ZN4core3ptr50drop_in_place$LT$syn..generics..BoundLifetimes$GT$17h6dd056b104823dadE.llvm.7759719427820760843', symObjAddr: 0x8D60, symBinAddr: 0x18B70, symSize: 0x110 }
  - { offsetInCU: 0x2995C, offset: 0x6D571, size: 0x8, addend: 0x0, symName: '__ZN4core3ptr50drop_in_place$LT$syn..generics..TypeParamBound$GT$17hc7b62d44423c27deE', symObjAddr: 0x8E70, symBinAddr: 0x18C80, symSize: 0x80 }
  - { offsetInCU: 0x29AE1, offset: 0x6D6F6, size: 0x8, addend: 0x0, symName: '__ZN4core3ptr50drop_in_place$LT$syn..generics..WherePredicate$GT$17h5987ccb94a9db087E', symObjAddr: 0x8EF0, symBinAddr: 0x18D00, symSize: 0x110 }
  - { offsetInCU: 0x29C81, offset: 0x6D896, size: 0x8, addend: 0x0, symName: '__ZN4core3ptr51drop_in_place$LT$$u5b$syn..attr..Attribute$u5d$$GT$17h2d8cc2e52bd4d6f2E.llvm.7759719427820760843', symObjAddr: 0x9000, symBinAddr: 0x18E10, symSize: 0x1A0 }
  - { offsetInCU: 0x2A067, offset: 0x6DC7C, size: 0x8, addend: 0x0, symName: '__ZN4core3ptr51drop_in_place$LT$$u5b$syn..item..TraitItem$u5d$$GT$17he87d533075e28110E', symObjAddr: 0x91A0, symBinAddr: 0x18FB0, symSize: 0xA70 }
  - { offsetInCU: 0x2BE0C, offset: 0x6FA21, size: 0x8, addend: 0x0, symName: '__ZN4core3ptr53drop_in_place$LT$$u5b$syn..item..ForeignItem$u5d$$GT$17h9094921cab3b2fa8E', symObjAddr: 0x9C10, symBinAddr: 0x19A20, symSize: 0xEC0 }
  - { offsetInCU: 0x2EDC0, offset: 0x729D5, size: 0x8, addend: 0x0, symName: '__ZN4core3ptr58drop_in_place$LT$alloc..vec..Vec$LT$syn..expr..Arm$GT$$GT$17heb1fa160e7547cffE', symObjAddr: 0xAAD0, symBinAddr: 0x1A8E0, symSize: 0xD0 }
  - { offsetInCU: 0x2F087, offset: 0x72C9C, size: 0x8, addend: 0x0, symName: '__ZN4core3ptr59drop_in_place$LT$alloc..boxed..Box$LT$syn..pat..Pat$GT$$GT$17h60be5d6a66b3da05E.llvm.7759719427820760843', symObjAddr: 0xABA0, symBinAddr: 0x1A9B0, symSize: 0x50 }
  - { offsetInCU: 0x2F1E0, offset: 0x72DF5, size: 0x8, addend: 0x0, symName: '__ZN4core3ptr59drop_in_place$LT$alloc..boxed..Box$LT$syn..ty..Type$GT$$GT$17heeb121783262cf62E', symObjAddr: 0xABF0, symBinAddr: 0x1AA00, symSize: 0x50 }
  - { offsetInCU: 0x2F377, offset: 0x72F8C, size: 0x8, addend: 0x0, symName: '__ZN4core3ptr59drop_in_place$LT$alloc..vec..Vec$LT$syn..expr..Expr$GT$$GT$17h987c0a282b64620dE', symObjAddr: 0xAC40, symBinAddr: 0x1AA50, symSize: 0xD0 }
  - { offsetInCU: 0x2F651, offset: 0x73266, size: 0x8, addend: 0x0, symName: '__ZN4core3ptr59drop_in_place$LT$alloc..vec..Vec$LT$syn..item..Item$GT$$GT$17h27c51a5edff22e8dE', symObjAddr: 0xAD10, symBinAddr: 0x1AB20, symSize: 0xD0 }
  - { offsetInCU: 0x2F918, offset: 0x7352D, size: 0x8, addend: 0x0, symName: '__ZN4core3ptr61drop_in_place$LT$alloc..boxed..Box$LT$syn..expr..Expr$GT$$GT$17h0ad33ed96c4c860bE.llvm.7759719427820760843', symObjAddr: 0xADE0, symBinAddr: 0x1ABF0, symSize: 0x50 }
  - { offsetInCU: 0x2FA71, offset: 0x73686, size: 0x8, addend: 0x0, symName: '__ZN4core3ptr61drop_in_place$LT$alloc..boxed..Box$LT$syn..path..Path$GT$$GT$17h55fc4e3041fcc554E', symObjAddr: 0xAE30, symBinAddr: 0x1AC40, symSize: 0x50 }
  - { offsetInCU: 0x2FCA1, offset: 0x738B6, size: 0x8, addend: 0x0, symName: '__ZN4core3ptr61drop_in_place$LT$syn..path..ParenthesizedGenericArguments$GT$17hab49d4514a628b5dE.llvm.7759719427820760843', symObjAddr: 0xAE80, symBinAddr: 0x1AC90, symSize: 0x170 }
  - { offsetInCU: 0x3029E, offset: 0x73EB3, size: 0x8, addend: 0x0, symName: '__ZN4core3ptr62drop_in_place$LT$alloc..boxed..Box$LT$syn..data..Field$GT$$GT$17h28af64d5cb4c8071E', symObjAddr: 0xAFF0, symBinAddr: 0x1AE00, symSize: 0x50 }
  - { offsetInCU: 0x30416, offset: 0x7402B, size: 0x8, addend: 0x0, symName: '__ZN4core3ptr62drop_in_place$LT$alloc..boxed..Box$LT$syn..item..FnArg$GT$$GT$17h4ef4836976c5e63dE', symObjAddr: 0xB040, symBinAddr: 0x1AE50, symSize: 0x60 }
  - { offsetInCU: 0x3058C, offset: 0x741A1, size: 0x8, addend: 0x0, symName: '__ZN4core3ptr62drop_in_place$LT$alloc..boxed..Box$LT$syn..stmt..Block$GT$$GT$17h29820e9e5e8b26b9E', symObjAddr: 0xB0A0, symBinAddr: 0x1AEB0, symSize: 0xE0 }
  - { offsetInCU: 0x309A5, offset: 0x745BA, size: 0x8, addend: 0x0, symName: '__ZN4core3ptr62drop_in_place$LT$syn..path..AngleBracketedGenericArguments$GT$17h1f6d33724cdece5eE.llvm.7759719427820760843', symObjAddr: 0xB180, symBinAddr: 0x1AF90, symSize: 0x120 }
  - { offsetInCU: 0x30E27, offset: 0x74A3C, size: 0x8, addend: 0x0, symName: '__ZN4core3ptr63drop_in_place$LT$alloc..vec..Vec$LT$syn..item..ImplItem$GT$$GT$17h4300cba2f5fff61aE', symObjAddr: 0xB2A0, symBinAddr: 0x1B0B0, symSize: 0x80 }
  - { offsetInCU: 0x310DF, offset: 0x74CF4, size: 0x8, addend: 0x0, symName: '__ZN4core3ptr64drop_in_place$LT$alloc..boxed..Box$LT$syn..data..Variant$GT$$GT$17hd6fef536129a6783E', symObjAddr: 0xB320, symBinAddr: 0x1B130, symSize: 0x50 }
  - { offsetInCU: 0x31238, offset: 0x74E4D, size: 0x8, addend: 0x0, symName: '__ZN4core3ptr64drop_in_place$LT$alloc..boxed..Box$LT$syn..item..UseTree$GT$$GT$17h5337514a585d1d97E', symObjAddr: 0xB370, symBinAddr: 0x1B180, symSize: 0x50 }
  - { offsetInCU: 0x313CF, offset: 0x74FE4, size: 0x8, addend: 0x0, symName: '__ZN4core3ptr64drop_in_place$LT$alloc..boxed..Box$LT$syn..pat..FieldPat$GT$$GT$17hece52a686c7fd034E', symObjAddr: 0xB3C0, symBinAddr: 0x1B1D0, symSize: 0x100 }
  - { offsetInCU: 0x31A94, offset: 0x756A9, size: 0x8, addend: 0x0, symName: '__ZN4core3ptr64drop_in_place$LT$alloc..boxed..Box$LT$syn..ty..BareFnArg$GT$$GT$17hc6fd980ef480b95dE', symObjAddr: 0xB4C0, symBinAddr: 0x1B2D0, symSize: 0xA0 }
  - { offsetInCU: 0x31D38, offset: 0x7594D, size: 0x8, addend: 0x0, symName: '__ZN4core3ptr64drop_in_place$LT$alloc..vec..Vec$LT$syn..attr..Attribute$GT$$GT$17hb5733b855a871739E.llvm.7759719427820760843', symObjAddr: 0xB560, symBinAddr: 0x1B370, symSize: 0xF0 }
  - { offsetInCU: 0x32018, offset: 0x75C2D, size: 0x8, addend: 0x0, symName: '__ZN4core3ptr64drop_in_place$LT$alloc..vec..Vec$LT$syn..item..TraitItem$GT$$GT$17hbbcbb11b4cd6e66aE', symObjAddr: 0xB650, symBinAddr: 0x1B460, symSize: 0x80 }
  - { offsetInCU: 0x322D0, offset: 0x75EE5, size: 0x8, addend: 0x0, symName: '__ZN4core3ptr65drop_in_place$LT$$LP$syn..item..FnArg$C$syn..token..Comma$RP$$GT$17hb52bfdf37d5f41ffE', symObjAddr: 0xB6D0, symBinAddr: 0x1B4E0, symSize: 0x20 }
  - { offsetInCU: 0x3234A, offset: 0x75F5F, size: 0x8, addend: 0x0, symName: '__ZN4core3ptr65drop_in_place$LT$alloc..vec..Vec$LT$alloc..string..String$GT$$GT$17h2f82d59515095094E.llvm.7759719427820760843', symObjAddr: 0xB6F0, symBinAddr: 0x1B500, symSize: 0x90 }
  - { offsetInCU: 0x325DE, offset: 0x761F3, size: 0x8, addend: 0x0, symName: '__ZN4core3ptr65drop_in_place$LT$alloc..vec..Vec$LT$proc_macro..TokenTree$GT$$GT$17h4c6fdabd28fc3216E.llvm.7759719427820760843', symObjAddr: 0xB780, symBinAddr: 0x1B590, symSize: 0x110 }
  - { offsetInCU: 0x329DD, offset: 0x765F2, size: 0x8, addend: 0x0, symName: '__ZN4core3ptr65drop_in_place$LT$core..option..Option$LT$syn..expr..Label$GT$$GT$17h7883508f217ffb0fE', symObjAddr: 0xB890, symBinAddr: 0x1B6A0, symSize: 0x30 }
  - { offsetInCU: 0x32B17, offset: 0x7672C, size: 0x8, addend: 0x0, symName: '__ZN4core3ptr65drop_in_place$LT$core..option..Option$LT$syn..stmt..Block$GT$$GT$17h37f1bf3cc6928a8bE', symObjAddr: 0xB8C0, symBinAddr: 0x1B6D0, symSize: 0xD0 }
  - { offsetInCU: 0x32DEC, offset: 0x76A01, size: 0x8, addend: 0x0, symName: '__ZN4core3ptr66drop_in_place$LT$alloc..vec..Vec$LT$syn..item..ForeignItem$GT$$GT$17h51a443098fb5cc99E', symObjAddr: 0xB990, symBinAddr: 0x1B7A0, symSize: 0x80 }
  - { offsetInCU: 0x330A4, offset: 0x76CB9, size: 0x8, addend: 0x0, symName: '__ZN4core3ptr67drop_in_place$LT$$LP$syn..pat..FieldPat$C$syn..token..Comma$RP$$GT$17h327f8eec58fc6593E.llvm.7759719427820760843', symObjAddr: 0xBA10, symBinAddr: 0x1B820, symSize: 0xF0 }
  - { offsetInCU: 0x335F6, offset: 0x7720B, size: 0x8, addend: 0x0, symName: '__ZN4core3ptr67drop_in_place$LT$$LP$syn..ty..BareFnArg$C$syn..token..Comma$RP$$GT$17h27eae6f958b6171dE.llvm.7759719427820760843', symObjAddr: 0xBB00, symBinAddr: 0x1B910, symSize: 0x80 }
  - { offsetInCU: 0x33772, offset: 0x77387, size: 0x8, addend: 0x0, symName: '__ZN4core3ptr67drop_in_place$LT$alloc..boxed..Box$LT$syn..expr..FieldValue$GT$$GT$17h31cf09f513da42aaE', symObjAddr: 0xBB80, symBinAddr: 0x1B990, symSize: 0xE0 }
  - { offsetInCU: 0x33CAF, offset: 0x778C4, size: 0x8, addend: 0x0, symName: '__ZN4core3ptr68drop_in_place$LT$alloc..boxed..Box$LT$syn..path..PathSegment$GT$$GT$17h32735e8ea349f2d1E', symObjAddr: 0xBC60, symBinAddr: 0x1BA70, symSize: 0xD0 }
  - { offsetInCU: 0x340A8, offset: 0x77CBD, size: 0x8, addend: 0x0, symName: '__ZN4core3ptr70drop_in_place$LT$$LP$syn..expr..FieldValue$C$syn..token..Comma$RP$$GT$17hb81a485b6a9be202E.llvm.7759719427820760843', symObjAddr: 0xBD30, symBinAddr: 0x1BB40, symSize: 0xD0 }
  - { offsetInCU: 0x344A2, offset: 0x780B7, size: 0x8, addend: 0x0, symName: '__ZN4core3ptr72drop_in_place$LT$$LP$syn..path..PathSegment$C$syn..token..Colon2$RP$$GT$17h8ca5fc896fe0af59E.llvm.7759719427820760843', symObjAddr: 0xBE00, symBinAddr: 0x1BC10, symSize: 0xC0 }
  - { offsetInCU: 0x34765, offset: 0x7837A, size: 0x8, addend: 0x0, symName: '__ZN4core3ptr72drop_in_place$LT$alloc..boxed..Box$LT$syn..generics..LifetimeDef$GT$$GT$17he4dfd1fce2cc5cf1E', symObjAddr: 0xBEC0, symBinAddr: 0x1BCD0, symSize: 0x80 }
  - { offsetInCU: 0x34A14, offset: 0x78629, size: 0x8, addend: 0x0, symName: '__ZN4core3ptr72drop_in_place$LT$alloc..boxed..Box$LT$syn..path..GenericArgument$GT$$GT$17h375d0c08b19f3433E.llvm.7759719427820760843', symObjAddr: 0xBF40, symBinAddr: 0x1BD50, symSize: 0x220 }
  - { offsetInCU: 0x35284, offset: 0x78E99, size: 0x8, addend: 0x0, symName: '__ZN4core3ptr73drop_in_place$LT$alloc..boxed..Box$LT$syn..generics..GenericParam$GT$$GT$17hbe8c4f3ca1698568E', symObjAddr: 0xC160, symBinAddr: 0x1BF70, symSize: 0x80 }
  - { offsetInCU: 0x353FA, offset: 0x7900F, size: 0x8, addend: 0x0, symName: '__ZN4core3ptr75drop_in_place$LT$$LP$syn..generics..LifetimeDef$C$syn..token..Comma$RP$$GT$17h11ee0a49b2d550bcE.llvm.7759719427820760843', symObjAddr: 0xC1E0, symBinAddr: 0x1BFF0, symSize: 0x60 }
  - { offsetInCU: 0x35537, offset: 0x7914C, size: 0x8, addend: 0x0, symName: '__ZN4core3ptr75drop_in_place$LT$$LP$syn..path..GenericArgument$C$syn..token..Comma$RP$$GT$17hb2e958f6a1afcb29E.llvm.7759719427820760843', symObjAddr: 0xC240, symBinAddr: 0x1C050, symSize: 0x220 }
  - { offsetInCU: 0x35C6B, offset: 0x79880, size: 0x8, addend: 0x0, symName: '__ZN4core3ptr75drop_in_place$LT$alloc..boxed..Box$LT$syn..generics..TypeParamBound$GT$$GT$17h7c1afe98f7f6f16aE', symObjAddr: 0xC460, symBinAddr: 0x1C270, symSize: 0x150 }
  - { offsetInCU: 0x36218, offset: 0x79E2D, size: 0x8, addend: 0x0, symName: '__ZN4core3ptr75drop_in_place$LT$alloc..boxed..Box$LT$syn..generics..WherePredicate$GT$$GT$17haa1dd4b5e8f2d3a0E', symObjAddr: 0xC5B0, symBinAddr: 0x1C3C0, symSize: 0xD0 }
  - { offsetInCU: 0x364C0, offset: 0x7A0D5, size: 0x8, addend: 0x0, symName: '__ZN4core3ptr76drop_in_place$LT$$LP$syn..generics..GenericParam$C$syn..token..Comma$RP$$GT$17h86b819f9954c3cf0E', symObjAddr: 0xC680, symBinAddr: 0x1C490, symSize: 0x50 }
  - { offsetInCU: 0x364FC, offset: 0x7A111, size: 0x8, addend: 0x0, symName: '__ZN4core3ptr76drop_in_place$LT$$LP$syn..generics..TypeParamBound$C$syn..token..Add$RP$$GT$17h9ee05acd3d29ebf2E.llvm.7759719427820760843', symObjAddr: 0xC6D0, symBinAddr: 0x1C4E0, symSize: 0x160 }
  - { offsetInCU: 0x3697B, offset: 0x7A590, size: 0x8, addend: 0x0, symName: '__ZN4core3ptr78drop_in_place$LT$$LP$syn..generics..WherePredicate$C$syn..token..Comma$RP$$GT$17h7c20ed65ba93b791E', symObjAddr: 0xC830, symBinAddr: 0x1C640, symSize: 0xA0 }
  - { offsetInCU: 0x36AF3, offset: 0x7A708, size: 0x8, addend: 0x0, symName: '__ZN4core3ptr78drop_in_place$LT$alloc..boxed..Box$LT$syn..expr..GenericMethodArgument$GT$$GT$17h55a4260f78553f71E', symObjAddr: 0xC8D0, symBinAddr: 0x1C6E0, symSize: 0x60 }
  - { offsetInCU: 0x36C69, offset: 0x7A87E, size: 0x8, addend: 0x0, symName: '__ZN4core3ptr81drop_in_place$LT$$LP$syn..expr..GenericMethodArgument$C$syn..token..Comma$RP$$GT$17ha2802187174fd3d5E.llvm.7759719427820760843', symObjAddr: 0xC930, symBinAddr: 0x1C740, symSize: 0x30 }
  - { offsetInCU: 0x36CA5, offset: 0x7A8BA, size: 0x8, addend: 0x0, symName: '__ZN4core3ptr86drop_in_place$LT$$LP$syn..token..If$C$alloc..boxed..Box$LT$syn..expr..Expr$GT$$RP$$GT$17h630e3c0fc509ae2bE', symObjAddr: 0xC960, symBinAddr: 0x1C770, symSize: 0x50 }
  - { offsetInCU: 0x36E1D, offset: 0x7AA32, size: 0x8, addend: 0x0, symName: '__ZN4core3ptr86drop_in_place$LT$$u5b$$LP$syn..generics..TypeParamBound$C$syn..token..Add$RP$$u5d$$GT$17hb96fb2a923fd04e4E', symObjAddr: 0xC9B0, symBinAddr: 0x1C7C0, symSize: 0xE0 }
  - { offsetInCU: 0x37050, offset: 0x7AC65, size: 0x8, addend: 0x0, symName: '__ZN4core3ptr86drop_in_place$LT$syn..punctuated..Punctuated$LT$syn..pat..Pat$C$syn..token..Or$GT$$GT$17hbb2b6b72e812801eE', symObjAddr: 0xCA90, symBinAddr: 0x1C8A0, symSize: 0x120 }
  - { offsetInCU: 0x374E9, offset: 0x7B0FE, size: 0x8, addend: 0x0, symName: '__ZN4core3ptr87drop_in_place$LT$core..option..Option$LT$alloc..boxed..Box$LT$syn..pat..Pat$GT$$GT$$GT$17hcfd4919c66658841E', symObjAddr: 0xCBB0, symBinAddr: 0x1C9C0, symSize: 0x50 }
  - { offsetInCU: 0x37659, offset: 0x7B26E, size: 0x8, addend: 0x0, symName: '__ZN4core3ptr87drop_in_place$LT$core..option..Option$LT$alloc..boxed..Box$LT$syn..ty..Type$GT$$GT$$GT$17hb89ed7b1d392328bE', symObjAddr: 0xCC00, symBinAddr: 0x1CA10, symSize: 0x50 }
  - { offsetInCU: 0x377C9, offset: 0x7B3DE, size: 0x8, addend: 0x0, symName: '__ZN4core3ptr89drop_in_place$LT$core..option..Option$LT$alloc..boxed..Box$LT$syn..expr..Expr$GT$$GT$$GT$17hb6243efdcf519f03E', symObjAddr: 0xCC50, symBinAddr: 0x1CA60, symSize: 0x50 }
  - { offsetInCU: 0x37939, offset: 0x7B54E, size: 0x8, addend: 0x0, symName: '__ZN4core3ptr89drop_in_place$LT$syn..punctuated..Punctuated$LT$syn..ty..Type$C$syn..token..Comma$GT$$GT$17h72d99448207a7e07E.llvm.7759719427820760843', symObjAddr: 0xCCA0, symBinAddr: 0x1CAB0, symSize: 0x120 }
  - { offsetInCU: 0x37DBB, offset: 0x7B9D0, size: 0x8, addend: 0x0, symName: '__ZN4core3ptr90drop_in_place$LT$core..option..Option$LT$alloc..boxed..Box$LT$syn..data..Field$GT$$GT$$GT$17h3de9d778cc2b17dcE', symObjAddr: 0xCDC0, symBinAddr: 0x1CBD0, symSize: 0x50 }
  - { offsetInCU: 0x37F2B, offset: 0x7BB40, size: 0x8, addend: 0x0, symName: '__ZN4core3ptr90drop_in_place$LT$core..option..Option$LT$alloc..boxed..Box$LT$syn..item..FnArg$GT$$GT$$GT$17h344497158b32243fE', symObjAddr: 0xCE10, symBinAddr: 0x1CC20, symSize: 0x50 }
  - { offsetInCU: 0x38117, offset: 0x7BD2C, size: 0x8, addend: 0x0, symName: '__ZN4core3ptr91drop_in_place$LT$syn..punctuated..Punctuated$LT$syn..expr..Expr$C$syn..token..Comma$GT$$GT$17hf148654d6f6c8948E', symObjAddr: 0xCE60, symBinAddr: 0x1CC70, symSize: 0x120 }
  - { offsetInCU: 0x385AC, offset: 0x7C1C1, size: 0x8, addend: 0x0, symName: '__ZN4core3ptr92drop_in_place$LT$core..option..Option$LT$$LP$syn..token..As$C$proc_macro2..Ident$RP$$GT$$GT$17h0353526ea8319736E', symObjAddr: 0xCF80, symBinAddr: 0x1CD90, symSize: 0x30 }
  - { offsetInCU: 0x386C7, offset: 0x7C2DC, size: 0x8, addend: 0x0, symName: '__ZN4core3ptr92drop_in_place$LT$syn..punctuated..Punctuated$LT$syn..data..Field$C$syn..token..Comma$GT$$GT$17h1daae35825a05244E', symObjAddr: 0xCFB0, symBinAddr: 0x1CDC0, symSize: 0x120 }
  - { offsetInCU: 0x38B49, offset: 0x7C75E, size: 0x8, addend: 0x0, symName: '__ZN4core3ptr92drop_in_place$LT$syn..punctuated..Punctuated$LT$syn..item..FnArg$C$syn..token..Comma$GT$$GT$17hc4f2bc3d0e826056E', symObjAddr: 0xD0D0, symBinAddr: 0x1CEE0, symSize: 0x150 }
  - { offsetInCU: 0x39037, offset: 0x7CC4C, size: 0x8, addend: 0x0, symName: '__ZN4core3ptr93drop_in_place$LT$alloc..vec..Vec$LT$ark_ff_asm..context..data_structures..AssemblyVar$GT$$GT$17h25a5feefbcfac4d3E.llvm.7759719427820760843', symObjAddr: 0xD220, symBinAddr: 0x1D030, symSize: 0x80 }
  - { offsetInCU: 0x393A3, offset: 0x7CFB8, size: 0x8, addend: 0x0, symName: '__ZN4core3ptr94drop_in_place$LT$syn..punctuated..Punctuated$LT$syn..data..Variant$C$syn..token..Comma$GT$$GT$17ha0ea74b6051ef973E', symObjAddr: 0xD2A0, symBinAddr: 0x1D0B0, symSize: 0x120 }
  - { offsetInCU: 0x398B4, offset: 0x7D4C9, size: 0x8, addend: 0x0, symName: '__ZN4core3ptr94drop_in_place$LT$syn..punctuated..Punctuated$LT$syn..pat..FieldPat$C$syn..token..Comma$GT$$GT$17h611ffe8d66e43618E', symObjAddr: 0xD3C0, symBinAddr: 0x1D1D0, symSize: 0xF0 }
  - { offsetInCU: 0x39C68, offset: 0x7D87D, size: 0x8, addend: 0x0, symName: '__ZN4core3ptr94drop_in_place$LT$syn..punctuated..Punctuated$LT$syn..ty..BareFnArg$C$syn..token..Comma$GT$$GT$17h2613c88a3dcf4e8bE', symObjAddr: 0xD4B0, symBinAddr: 0x1D2C0, symSize: 0x1B0 }
  - { offsetInCU: 0x3A12E, offset: 0x7DD43, size: 0x8, addend: 0x0, symName: '__ZN4core3ptr95drop_in_place$LT$core..option..Option$LT$$LP$proc_macro2..Ident$C$syn..token..Colon$RP$$GT$$GT$17hd604861ab5a64be3E.llvm.7759719427820760843', symObjAddr: 0xD660, symBinAddr: 0x1D470, symSize: 0x30 }
  - { offsetInCU: 0x3A249, offset: 0x7DE5E, size: 0x8, addend: 0x0, symName: '__ZN4core3ptr96drop_in_place$LT$core..option..Option$LT$alloc..boxed..Box$LT$syn..path..PathSegment$GT$$GT$$GT$17hf79dec3399db1c31E.llvm.7759719427820760843', symObjAddr: 0xD690, symBinAddr: 0x1D4A0, symSize: 0x90 }
  - { offsetInCU: 0x3A563, offset: 0x7E178, size: 0x8, addend: 0x0, symName: '__ZN4core3ptr97drop_in_place$LT$syn..punctuated..Punctuated$LT$syn..expr..FieldValue$C$syn..token..Comma$GT$$GT$17hde8846b572708e4cE', symObjAddr: 0xD770, symBinAddr: 0x1D530, symSize: 0xF0 }
  - { offsetInCU: 0x3A915, offset: 0x7E52A, size: 0x8, addend: 0x0, symName: '__ZN4core3ptr97drop_in_place$LT$syn..punctuated..Punctuated$LT$syn..lifetime..Lifetime$C$syn..token..Add$GT$$GT$17ha261eddfb5dc9f8cE.llvm.7759719427820760843', symObjAddr: 0xD860, symBinAddr: 0x1D620, symSize: 0xD0 }
  - { offsetInCU: 0x3AD87, offset: 0x7E99C, size: 0x8, addend: 0x0, symName: '__ZN4core3ptr99drop_in_place$LT$syn..punctuated..Punctuated$LT$syn..path..PathSegment$C$syn..token..Colon2$GT$$GT$17h478772ddb14ca2b7E.llvm.7759719427820760843', symObjAddr: 0xD930, symBinAddr: 0x1D6F0, symSize: 0x1A0 }
  - { offsetInCU: 0x4373E, offset: 0x87353, size: 0x8, addend: 0x0, symName: '__ZN70_$LT$alloc..vec..Vec$LT$T$C$A$GT$$u20$as$u20$core..ops..drop..Drop$GT$4drop17h1e49c4617e12dad4E', symObjAddr: 0xDC80, symBinAddr: 0x1D890, symSize: 0x50 }
  - { offsetInCU: 0x43843, offset: 0x87458, size: 0x8, addend: 0x0, symName: '__ZN70_$LT$alloc..vec..Vec$LT$T$C$A$GT$$u20$as$u20$core..ops..drop..Drop$GT$4drop17h2bfc94e3ed36c1e4E', symObjAddr: 0xDD50, symBinAddr: 0x1D8E0, symSize: 0xB0 }
  - { offsetInCU: 0x4397A, offset: 0x8758F, size: 0x8, addend: 0x0, symName: '__ZN70_$LT$alloc..vec..Vec$LT$T$C$A$GT$$u20$as$u20$core..ops..drop..Drop$GT$4drop17h6bf18145b3543615E', symObjAddr: 0xE080, symBinAddr: 0x1D990, symSize: 0x50 }
  - { offsetInCU: 0x43A68, offset: 0x8767D, size: 0x8, addend: 0x0, symName: '__ZN70_$LT$alloc..vec..Vec$LT$T$C$A$GT$$u20$as$u20$core..ops..drop..Drop$GT$4drop17ha598a380129ed18cE', symObjAddr: 0xE1D0, symBinAddr: 0x1D9E0, symSize: 0xD0 }
  - { offsetInCU: 0x4435B, offset: 0x87F70, size: 0x8, addend: 0x0, symName: '__ZN98_$LT$alloc..vec..Vec$LT$T$GT$$u20$as$u20$alloc..vec..spec_from_iter..SpecFromIter$LT$T$C$I$GT$$GT$9from_iter17h0e918e8ff6f450fcE', symObjAddr: 0xE740, symBinAddr: 0x1DAB0, symSize: 0x220 }
  - { offsetInCU: 0x448D0, offset: 0x884E5, size: 0x8, addend: 0x0, symName: '__ZN98_$LT$alloc..vec..Vec$LT$T$GT$$u20$as$u20$alloc..vec..spec_from_iter..SpecFromIter$LT$T$C$I$GT$$GT$9from_iter17h3d8b2b7e82d6bc98E', symObjAddr: 0xE960, symBinAddr: 0x1DCD0, symSize: 0x100 }
  - { offsetInCU: 0x44C04, offset: 0x88819, size: 0x8, addend: 0x0, symName: '__ZN98_$LT$alloc..vec..Vec$LT$T$GT$$u20$as$u20$alloc..vec..spec_from_iter..SpecFromIter$LT$T$C$I$GT$$GT$9from_iter17h7232f63b280b5d78E', symObjAddr: 0xEA60, symBinAddr: 0x1DDD0, symSize: 0x180 }
  - { offsetInCU: 0x4511E, offset: 0x88D33, size: 0x8, addend: 0x0, symName: '__ZN98_$LT$alloc..vec..Vec$LT$T$GT$$u20$as$u20$alloc..vec..spec_from_iter..SpecFromIter$LT$T$C$I$GT$$GT$9from_iter17h919a8402ac30bfd3E', symObjAddr: 0xEBE0, symBinAddr: 0x1DF50, symSize: 0x1A0 }
  - { offsetInCU: 0x456C5, offset: 0x892DA, size: 0x8, addend: 0x0, symName: '__ZN98_$LT$alloc..vec..Vec$LT$T$GT$$u20$as$u20$alloc..vec..spec_from_iter..SpecFromIter$LT$T$C$I$GT$$GT$9from_iter17hd14b696d5a4efd88E', symObjAddr: 0xED80, symBinAddr: 0x1E0F0, symSize: 0x319 }
  - { offsetInCU: 0x1E, offset: 0x91F8C, size: 0x8, addend: 0x0, symName: __ZN5alloc7raw_vec11finish_grow17hd8cd99dedbf199edE.llvm.2108850006554723388, symObjAddr: 0x0, symBinAddr: 0x1E410, symSize: 0xA0 }
  - { offsetInCU: 0x438E, offset: 0x962FC, size: 0x8, addend: 0x0, symName: __ZN5alloc7raw_vec11finish_grow17hd8cd99dedbf199edE.llvm.2108850006554723388, symObjAddr: 0x0, symBinAddr: 0x1E410, symSize: 0xA0 }
  - { offsetInCU: 0x53C3, offset: 0x97331, size: 0x8, addend: 0x0, symName: '__ZN5alloc7raw_vec19RawVec$LT$T$C$A$GT$7reserve21do_reserve_and_handle17hb76334633c39bbfcE', symObjAddr: 0x4F0, symBinAddr: 0x1D54C0, symSize: 0xA0 }
  - { offsetInCU: 0x56BE, offset: 0x9762C, size: 0x8, addend: 0x0, symName: '__ZN5alloc7raw_vec19RawVec$LT$T$C$A$GT$7reserve21do_reserve_and_handle17hc1799ee0644222ffE', symObjAddr: 0x590, symBinAddr: 0x1D5560, symSize: 0xC0 }
  - { offsetInCU: 0xC026, offset: 0x9DF94, size: 0x8, addend: 0x0, symName: '__ZN5alloc7raw_vec19RawVec$LT$T$C$A$GT$8grow_one17h3b0b9e99cf3dfda8E', symObjAddr: 0x650, symBinAddr: 0x1E4B0, symSize: 0xB0 }
  - { offsetInCU: 0xC36B, offset: 0x9E2D9, size: 0x8, addend: 0x0, symName: '__ZN5alloc7raw_vec19RawVec$LT$T$C$A$GT$8grow_one17h956fabf593d62cefE', symObjAddr: 0x700, symBinAddr: 0x1E560, symSize: 0xC0 }
  - { offsetInCU: 0xC84C, offset: 0x9E7BA, size: 0x8, addend: 0x0, symName: '__ZN5alloc7raw_vec19RawVec$LT$T$C$A$GT$8grow_one17h9842ec8c0a048fb3E', symObjAddr: 0x7C0, symBinAddr: 0x1E620, symSize: 0xB0 }
  - { offsetInCU: 0xCD1E, offset: 0x9EC8C, size: 0x8, addend: 0x0, symName: '__ZN5alloc7raw_vec19RawVec$LT$T$C$A$GT$8grow_one17hd3845aa3c7c2982eE', symObjAddr: 0x870, symBinAddr: 0x1E6D0, symSize: 0xB0 }
  - { offsetInCU: 0xD065, offset: 0x9EFD3, size: 0x8, addend: 0x0, symName: '__ZN5alloc7raw_vec19RawVec$LT$T$C$A$GT$8grow_one17hf1f962175e652059E', symObjAddr: 0x920, symBinAddr: 0x1E780, symSize: 0xA0 }
  - { offsetInCU: 0x1E, offset: 0x9F409, size: 0x8, addend: 0x0, symName: '__ZN102_$LT$syn..punctuated..Punctuated$LT$T$C$P$GT$$u20$as$u20$core..iter..traits..collect..IntoIterator$GT$9into_iter17hadc725c5374cae62E', symObjAddr: 0x0, symBinAddr: 0x1E820, symSize: 0x2F0 }
  - { offsetInCU: 0x1A7D, offset: 0xA0E68, size: 0x8, addend: 0x0, symName: '__ZN4core3ptr100drop_in_place$LT$core..option..Option$LT$alloc..boxed..Box$LT$syn..generics..LifetimeDef$GT$$GT$$GT$17h5dd8e0b04b4a3baaE', symObjAddr: 0x620, symBinAddr: 0x1EE40, symSize: 0x150 }
  - { offsetInCU: 0x1FF9, offset: 0xA13E4, size: 0x8, addend: 0x0, symName: '__ZN4core3ptr100drop_in_place$LT$core..option..Option$LT$alloc..boxed..Box$LT$syn..path..GenericArgument$GT$$GT$$GT$17h26ee87b1c4c5dc42E', symObjAddr: 0x770, symBinAddr: 0x1EF90, symSize: 0x50 }
  - { offsetInCU: 0x2242, offset: 0xA162D, size: 0x8, addend: 0x0, symName: '__ZN4core3ptr103drop_in_place$LT$syn..punctuated..Punctuated$LT$syn..generics..TypeParamBound$C$syn..token..Add$GT$$GT$17h4f3843b72f327789E', symObjAddr: 0x7C0, symBinAddr: 0x1EFE0, symSize: 0x160 }
  - { offsetInCU: 0x289B, offset: 0xA1C86, size: 0x8, addend: 0x0, symName: '__ZN4core3ptr108drop_in_place$LT$syn..punctuated..Punctuated$LT$syn..expr..GenericMethodArgument$C$syn..token..Comma$GT$$GT$17h9b79ee4fdcae7363E', symObjAddr: 0x920, symBinAddr: 0x1F140, symSize: 0x150 }
  - { offsetInCU: 0x2DF4, offset: 0xA21DF, size: 0x8, addend: 0x0, symName: '__ZN4core3ptr34drop_in_place$LT$syn..lit..Lit$GT$17he892d6bcf66ad631E', symObjAddr: 0xA70, symBinAddr: 0x1F290, symSize: 0x110 }
  - { offsetInCU: 0x32C3, offset: 0xA26AE, size: 0x8, addend: 0x0, symName: '__ZN4core3ptr34drop_in_place$LT$syn..pat..Pat$GT$17h6d1a07bd3be6c591E', symObjAddr: 0xB80, symBinAddr: 0x1F3A0, symSize: 0x1190 }
  - { offsetInCU: 0x71DB, offset: 0xA65C6, size: 0x8, addend: 0x0, symName: '__ZN4core3ptr34drop_in_place$LT$syn..ty..Type$GT$17h1a36674572c6e171E', symObjAddr: 0x1D10, symBinAddr: 0x20530, symSize: 0x540 }
  - { offsetInCU: 0x8A63, offset: 0xA7E4E, size: 0x8, addend: 0x0, symName: '__ZN4core3ptr36drop_in_place$LT$syn..expr..Expr$GT$17h2ce4108c1413d692E.llvm.7169252580917828740', symObjAddr: 0x2250, symBinAddr: 0x20A70, symSize: 0x3290 }
  - { offsetInCU: 0x132F4, offset: 0xB26DF, size: 0x8, addend: 0x0, symName: '__ZN4core3ptr36drop_in_place$LT$syn..mac..Macro$GT$17h55fbd9be7ef4af2bE', symObjAddr: 0x54E0, symBinAddr: 0x23D00, symSize: 0x40 }
  - { offsetInCU: 0x13445, offset: 0xB2830, size: 0x8, addend: 0x0, symName: '__ZN4core3ptr36drop_in_place$LT$syn..path..Path$GT$17h199af0938b5ffb06E', symObjAddr: 0x5520, symBinAddr: 0x23D40, symSize: 0x230 }
  - { offsetInCU: 0x13DDB, offset: 0xB31C6, size: 0x8, addend: 0x0, symName: '__ZN4core3ptr37drop_in_place$LT$syn..stmt..Block$GT$17h4d573fd16c70050eE', symObjAddr: 0x5750, symBinAddr: 0x23F70, symSize: 0xD0 }
  - { offsetInCU: 0x140B2, offset: 0xB349D, size: 0x8, addend: 0x0, symName: '__ZN4core3ptr38drop_in_place$LT$syn..expr..Member$GT$17h7029f987c5ad537fE', symObjAddr: 0x5820, symBinAddr: 0x24040, symSize: 0x30 }
  - { offsetInCU: 0x141AE, offset: 0xB3599, size: 0x8, addend: 0x0, symName: '__ZN4core3ptr39drop_in_place$LT$proc_macro2..Ident$GT$17he58a55800509d9f0E', symObjAddr: 0x5850, symBinAddr: 0x24070, symSize: 0x30 }
  - { offsetInCU: 0x1428B, offset: 0xB3676, size: 0x8, addend: 0x0, symName: '__ZN4core3ptr39drop_in_place$LT$syn..pat..PatTuple$GT$17h173a134616340f87E', symObjAddr: 0x5880, symBinAddr: 0x240A0, symSize: 0x100 }
  - { offsetInCU: 0x14594, offset: 0xB397F, size: 0x8, addend: 0x0, symName: '__ZN4core3ptr40drop_in_place$LT$syn..ty..ReturnType$GT$17haa68b7cc1b6acdbcE', symObjAddr: 0x5980, symBinAddr: 0x241A0, symSize: 0x50 }
  - { offsetInCU: 0x14704, offset: 0xB3AEF, size: 0x8, addend: 0x0, symName: '__ZN4core3ptr44drop_in_place$LT$syn..lifetime..Lifetime$GT$17h5cf5f86ff08bbfffE', symObjAddr: 0x59D0, symBinAddr: 0x241F0, symSize: 0x30 }
  - { offsetInCU: 0x14936, offset: 0xB3D21, size: 0x8, addend: 0x0, symName: '__ZN4core3ptr45drop_in_place$LT$proc_macro2..TokenStream$GT$17hb63c2ba91f609f4bE', symObjAddr: 0x5A00, symBinAddr: 0x24220, symSize: 0x140 }
  - { offsetInCU: 0x14DD0, offset: 0xB41BB, size: 0x8, addend: 0x0, symName: '__ZN4core3ptr47drop_in_place$LT$syn..path..GenericArgument$GT$17h4c3b95a0c49b421cE', symObjAddr: 0x5B40, symBinAddr: 0x24360, symSize: 0x110 }
  - { offsetInCU: 0x150EB, offset: 0xB44D6, size: 0x8, addend: 0x0, symName: '__ZN4core3ptr58drop_in_place$LT$alloc..vec..Vec$LT$syn..expr..Arm$GT$$GT$17heb1fa160e7547cffE', symObjAddr: 0x5C50, symBinAddr: 0x24470, symSize: 0xD0 }
  - { offsetInCU: 0x153AB, offset: 0xB4796, size: 0x8, addend: 0x0, symName: '__ZN4core3ptr59drop_in_place$LT$alloc..boxed..Box$LT$syn..pat..Pat$GT$$GT$17h60be5d6a66b3da05E', symObjAddr: 0x5D20, symBinAddr: 0x24540, symSize: 0x50 }
  - { offsetInCU: 0x15504, offset: 0xB48EF, size: 0x8, addend: 0x0, symName: '__ZN4core3ptr59drop_in_place$LT$alloc..boxed..Box$LT$syn..ty..Type$GT$$GT$17heeb121783262cf62E', symObjAddr: 0x5D70, symBinAddr: 0x24590, symSize: 0x50 }
  - { offsetInCU: 0x1567C, offset: 0xB4A67, size: 0x8, addend: 0x0, symName: '__ZN4core3ptr59drop_in_place$LT$alloc..vec..Vec$LT$syn..expr..Expr$GT$$GT$17h987c0a282b64620dE.llvm.7169252580917828740', symObjAddr: 0x5DC0, symBinAddr: 0x245E0, symSize: 0xD0 }
  - { offsetInCU: 0x1594F, offset: 0xB4D3A, size: 0x8, addend: 0x0, symName: '__ZN4core3ptr61drop_in_place$LT$alloc..boxed..Box$LT$syn..expr..Expr$GT$$GT$17h0ad33ed96c4c860bE', symObjAddr: 0x5E90, symBinAddr: 0x246B0, symSize: 0x50 }
  - { offsetInCU: 0x15B24, offset: 0xB4F0F, size: 0x8, addend: 0x0, symName: '__ZN4core3ptr61drop_in_place$LT$syn..path..ParenthesizedGenericArguments$GT$17hab49d4514a628b5dE', symObjAddr: 0x5EE0, symBinAddr: 0x24700, symSize: 0x170 }
  - { offsetInCU: 0x1611A, offset: 0xB5505, size: 0x8, addend: 0x0, symName: '__ZN4core3ptr63drop_in_place$LT$alloc..boxed..Box$LT$syn..lit..LitRepr$GT$$GT$17hd0037c2cc2fbadacE', symObjAddr: 0x6050, symBinAddr: 0x24870, symSize: 0x60 }
  - { offsetInCU: 0x16421, offset: 0xB580C, size: 0x8, addend: 0x0, symName: '__ZN4core3ptr64drop_in_place$LT$alloc..boxed..Box$LT$syn..pat..FieldPat$GT$$GT$17hece52a686c7fd034E', symObjAddr: 0x60B0, symBinAddr: 0x248D0, symSize: 0x180 }
  - { offsetInCU: 0x16B3E, offset: 0xB5F29, size: 0x8, addend: 0x0, symName: '__ZN4core3ptr64drop_in_place$LT$alloc..boxed..Box$LT$syn..ty..BareFnArg$GT$$GT$17hc6fd980ef480b95dE', symObjAddr: 0x6230, symBinAddr: 0x24A50, symSize: 0x160 }
  - { offsetInCU: 0x170D4, offset: 0xB64BF, size: 0x8, addend: 0x0, symName: '__ZN4core3ptr65drop_in_place$LT$alloc..vec..Vec$LT$proc_macro..TokenTree$GT$$GT$17h4c6fdabd28fc3216E', symObjAddr: 0x6390, symBinAddr: 0x24BB0, symSize: 0x110 }
  - { offsetInCU: 0x174CC, offset: 0xB68B7, size: 0x8, addend: 0x0, symName: '__ZN4core3ptr65drop_in_place$LT$core..option..Option$LT$syn..expr..Label$GT$$GT$17h7883508f217ffb0fE', symObjAddr: 0x64A0, symBinAddr: 0x24CC0, symSize: 0x30 }
  - { offsetInCU: 0x17606, offset: 0xB69F1, size: 0x8, addend: 0x0, symName: '__ZN4core3ptr66drop_in_place$LT$core..option..Option$LT$syn..ty..Variadic$GT$$GT$17hd6ff1173fba1be01E', symObjAddr: 0x64D0, symBinAddr: 0x24CF0, symSize: 0xF0 }
  - { offsetInCU: 0x17930, offset: 0xB6D1B, size: 0x8, addend: 0x0, symName: '__ZN4core3ptr67drop_in_place$LT$alloc..boxed..Box$LT$syn..expr..FieldValue$GT$$GT$17h31cf09f513da42aaE', symObjAddr: 0x65C0, symBinAddr: 0x24DE0, symSize: 0x160 }
  - { offsetInCU: 0x17EC5, offset: 0xB72B0, size: 0x8, addend: 0x0, symName: '__ZN4core3ptr68drop_in_place$LT$alloc..boxed..Box$LT$syn..path..PathSegment$GT$$GT$17h32735e8ea349f2d1E', symObjAddr: 0x6720, symBinAddr: 0x24F40, symSize: 0x190 }
  - { offsetInCU: 0x185CF, offset: 0xB79BA, size: 0x8, addend: 0x0, symName: '__ZN4core3ptr72drop_in_place$LT$alloc..boxed..Box$LT$syn..path..GenericArgument$GT$$GT$17h375d0c08b19f3433E', symObjAddr: 0x68B0, symBinAddr: 0x250D0, symSize: 0x120 }
  - { offsetInCU: 0x18A47, offset: 0xB7E32, size: 0x8, addend: 0x0, symName: '__ZN4core3ptr72drop_in_place$LT$core..option..Option$LT$syn..lifetime..Lifetime$GT$$GT$17hd295f5e840a020ccE', symObjAddr: 0x69D0, symBinAddr: 0x251F0, symSize: 0x30 }
  - { offsetInCU: 0x18B62, offset: 0xB7F4D, size: 0x8, addend: 0x0, symName: '__ZN4core3ptr75drop_in_place$LT$alloc..boxed..Box$LT$syn..generics..TypeParamBound$GT$$GT$17h7c1afe98f7f6f16aE', symObjAddr: 0x6A00, symBinAddr: 0x25220, symSize: 0x90 }
  - { offsetInCU: 0x18E25, offset: 0xB8210, size: 0x8, addend: 0x0, symName: '__ZN4core3ptr78drop_in_place$LT$alloc..boxed..Box$LT$syn..expr..GenericMethodArgument$GT$$GT$17h55a4260f78553f71E', symObjAddr: 0x6A90, symBinAddr: 0x252B0, symSize: 0x60 }
  - { offsetInCU: 0x19017, offset: 0xB8402, size: 0x8, addend: 0x0, symName: '__ZN4core3ptr78drop_in_place$LT$core..option..Option$LT$syn..generics..BoundLifetimes$GT$$GT$17haf03396f7774368eE', symObjAddr: 0x6AF0, symBinAddr: 0x25310, symSize: 0x90 }
  - { offsetInCU: 0x19305, offset: 0xB86F0, size: 0x8, addend: 0x0, symName: '__ZN4core3ptr86drop_in_place$LT$syn..punctuated..Punctuated$LT$syn..pat..Pat$C$syn..token..Or$GT$$GT$17hbb2b6b72e812801eE', symObjAddr: 0x6B80, symBinAddr: 0x253A0, symSize: 0x120 }
  - { offsetInCU: 0x1979F, offset: 0xB8B8A, size: 0x8, addend: 0x0, symName: '__ZN4core3ptr87drop_in_place$LT$alloc..vec..Vec$LT$$LP$syn..expr..Expr$C$syn..token..Comma$RP$$GT$$GT$17h836f816ffb5caf32E.llvm.7169252580917828740', symObjAddr: 0x6CA0, symBinAddr: 0x254C0, symSize: 0xD0 }
  - { offsetInCU: 0x19A93, offset: 0xB8E7E, size: 0x8, addend: 0x0, symName: '__ZN4core3ptr87drop_in_place$LT$core..option..Option$LT$alloc..boxed..Box$LT$syn..pat..Pat$GT$$GT$$GT$17hcfd4919c66658841E', symObjAddr: 0x6D70, symBinAddr: 0x25590, symSize: 0x50 }
  - { offsetInCU: 0x19C03, offset: 0xB8FEE, size: 0x8, addend: 0x0, symName: '__ZN4core3ptr87drop_in_place$LT$core..option..Option$LT$alloc..boxed..Box$LT$syn..ty..Type$GT$$GT$$GT$17hb89ed7b1d392328bE', symObjAddr: 0x6DC0, symBinAddr: 0x255E0, symSize: 0x50 }
  - { offsetInCU: 0x19D73, offset: 0xB915E, size: 0x8, addend: 0x0, symName: '__ZN4core3ptr89drop_in_place$LT$core..option..Option$LT$alloc..boxed..Box$LT$syn..expr..Expr$GT$$GT$$GT$17hb6243efdcf519f03E.llvm.7169252580917828740', symObjAddr: 0x6E10, symBinAddr: 0x25630, symSize: 0x50 }
  - { offsetInCU: 0x19F21, offset: 0xB930C, size: 0x8, addend: 0x0, symName: '__ZN4core3ptr89drop_in_place$LT$syn..punctuated..Punctuated$LT$syn..pat..Pat$C$syn..token..Comma$GT$$GT$17h1055c4b414ae37a9E', symObjAddr: 0x6E60, symBinAddr: 0x25680, symSize: 0x120 }
  - { offsetInCU: 0x1A3B3, offset: 0xB979E, size: 0x8, addend: 0x0, symName: '__ZN4core3ptr89drop_in_place$LT$syn..punctuated..Punctuated$LT$syn..ty..Type$C$syn..token..Comma$GT$$GT$17h72d99448207a7e07E', symObjAddr: 0x6F80, symBinAddr: 0x257A0, symSize: 0x120 }
  - { offsetInCU: 0x1A84D, offset: 0xB9C38, size: 0x8, addend: 0x0, symName: '__ZN4core3ptr91drop_in_place$LT$syn..punctuated..Punctuated$LT$syn..expr..Expr$C$syn..token..Comma$GT$$GT$17hf148654d6f6c8948E', symObjAddr: 0x70A0, symBinAddr: 0x258C0, symSize: 0x120 }
  - { offsetInCU: 0x1ACC4, offset: 0xBA0AF, size: 0x8, addend: 0x0, symName: '__ZN4core3ptr94drop_in_place$LT$syn..punctuated..Punctuated$LT$syn..pat..FieldPat$C$syn..token..Comma$GT$$GT$17h611ffe8d66e43618E', symObjAddr: 0x71C0, symBinAddr: 0x259E0, symSize: 0xF0 }
  - { offsetInCU: 0x1AFC3, offset: 0xBA3AE, size: 0x8, addend: 0x0, symName: '__ZN4core3ptr94drop_in_place$LT$syn..punctuated..Punctuated$LT$syn..ty..BareFnArg$C$syn..token..Comma$GT$$GT$17h2613c88a3dcf4e8bE', symObjAddr: 0x72B0, symBinAddr: 0x25AD0, symSize: 0x90 }
  - { offsetInCU: 0x1B233, offset: 0xBA61E, size: 0x8, addend: 0x0, symName: '__ZN4core3ptr96drop_in_place$LT$core..option..Option$LT$alloc..boxed..Box$LT$syn..path..PathSegment$GT$$GT$$GT$17hf79dec3399db1c31E', symObjAddr: 0x7340, symBinAddr: 0x25B60, symSize: 0x180 }
  - { offsetInCU: 0x1B8F0, offset: 0xBACDB, size: 0x8, addend: 0x0, symName: '__ZN4core3ptr97drop_in_place$LT$syn..punctuated..Punctuated$LT$syn..expr..FieldValue$C$syn..token..Comma$GT$$GT$17hde8846b572708e4cE', symObjAddr: 0x74C0, symBinAddr: 0x25CE0, symSize: 0xF0 }
  - { offsetInCU: 0x1BC69, offset: 0xBB054, size: 0x8, addend: 0x0, symName: '__ZN4core3ptr97drop_in_place$LT$syn..punctuated..Punctuated$LT$syn..lifetime..Lifetime$C$syn..token..Add$GT$$GT$17ha261eddfb5dc9f8cE', symObjAddr: 0x75B0, symBinAddr: 0x25DD0, symSize: 0xD0 }
  - { offsetInCU: 0x1C0DD, offset: 0xBB4C8, size: 0x8, addend: 0x0, symName: '__ZN4core3ptr99drop_in_place$LT$syn..punctuated..Punctuated$LT$syn..path..PathSegment$C$syn..token..Colon2$GT$$GT$17h478772ddb14ca2b7E', symObjAddr: 0x7680, symBinAddr: 0x25EA0, symSize: 0x250 }
  - { offsetInCU: 0x23315, offset: 0xC2700, size: 0x8, addend: 0x0, symName: '__ZN102_$LT$syn..punctuated..Punctuated$LT$T$C$P$GT$$u20$as$u20$core..iter..traits..collect..IntoIterator$GT$9into_iter17hadc725c5374cae62E', symObjAddr: 0x0, symBinAddr: 0x1E820, symSize: 0x2F0 }
  - { offsetInCU: 0x27AB7, offset: 0xC6EA2, size: 0x8, addend: 0x0, symName: '__ZN3syn10punctuated23Punctuated$LT$T$C$P$GT$21parse_terminated_with17h904011286f9c1f93E', symObjAddr: 0x2F0, symBinAddr: 0x1EB10, symSize: 0x330 }
  - { offsetInCU: 0x1974, offset: 0xCCFA7, size: 0x8, addend: 0x0, symName: '__ZN4core3ptr100drop_in_place$LT$core..option..Option$LT$alloc..boxed..Box$LT$syn..generics..LifetimeDef$GT$$GT$$GT$17h5dd8e0b04b4a3baaE', symObjAddr: 0xA0, symBinAddr: 0x260F0, symSize: 0x150 }
  - { offsetInCU: 0x1EF0, offset: 0xCD523, size: 0x8, addend: 0x0, symName: '__ZN4core3ptr100drop_in_place$LT$core..option..Option$LT$alloc..boxed..Box$LT$syn..path..GenericArgument$GT$$GT$$GT$17h26ee87b1c4c5dc42E', symObjAddr: 0x1F0, symBinAddr: 0x26240, symSize: 0x50 }
  - { offsetInCU: 0x2139, offset: 0xCD76C, size: 0x8, addend: 0x0, symName: '__ZN4core3ptr103drop_in_place$LT$syn..punctuated..Punctuated$LT$syn..generics..TypeParamBound$C$syn..token..Add$GT$$GT$17h4f3843b72f327789E', symObjAddr: 0x240, symBinAddr: 0x26290, symSize: 0x160 }
  - { offsetInCU: 0x2792, offset: 0xCDDC5, size: 0x8, addend: 0x0, symName: '__ZN4core3ptr108drop_in_place$LT$syn..punctuated..Punctuated$LT$syn..expr..GenericMethodArgument$C$syn..token..Comma$GT$$GT$17h9b79ee4fdcae7363E', symObjAddr: 0x3A0, symBinAddr: 0x263F0, symSize: 0x150 }
  - { offsetInCU: 0x2CEB, offset: 0xCE31E, size: 0x8, addend: 0x0, symName: '__ZN4core3ptr34drop_in_place$LT$syn..lit..Lit$GT$17he892d6bcf66ad631E', symObjAddr: 0x4F0, symBinAddr: 0x26540, symSize: 0x110 }
  - { offsetInCU: 0x31BA, offset: 0xCE7ED, size: 0x8, addend: 0x0, symName: '__ZN4core3ptr34drop_in_place$LT$syn..pat..Pat$GT$17h6d1a07bd3be6c591E', symObjAddr: 0x600, symBinAddr: 0x26650, symSize: 0x1190 }
  - { offsetInCU: 0x70D2, offset: 0xD2705, size: 0x8, addend: 0x0, symName: '__ZN4core3ptr34drop_in_place$LT$syn..ty..Type$GT$17h1a36674572c6e171E', symObjAddr: 0x1790, symBinAddr: 0x277E0, symSize: 0x540 }
  - { offsetInCU: 0x895A, offset: 0xD3F8D, size: 0x8, addend: 0x0, symName: '__ZN4core3ptr36drop_in_place$LT$syn..expr..Expr$GT$17h2ce4108c1413d692E.llvm.2704917125622819608', symObjAddr: 0x1CD0, symBinAddr: 0x27D20, symSize: 0x3290 }
  - { offsetInCU: 0x131EB, offset: 0xDE81E, size: 0x8, addend: 0x0, symName: '__ZN4core3ptr36drop_in_place$LT$syn..mac..Macro$GT$17h55fbd9be7ef4af2bE', symObjAddr: 0x4F60, symBinAddr: 0x2AFB0, symSize: 0x40 }
  - { offsetInCU: 0x1333C, offset: 0xDE96F, size: 0x8, addend: 0x0, symName: '__ZN4core3ptr36drop_in_place$LT$syn..path..Path$GT$17h199af0938b5ffb06E', symObjAddr: 0x4FA0, symBinAddr: 0x2AFF0, symSize: 0x230 }
  - { offsetInCU: 0x13CD2, offset: 0xDF305, size: 0x8, addend: 0x0, symName: '__ZN4core3ptr37drop_in_place$LT$syn..stmt..Block$GT$17h4d573fd16c70050eE', symObjAddr: 0x51D0, symBinAddr: 0x2B220, symSize: 0xD0 }
  - { offsetInCU: 0x13FA9, offset: 0xDF5DC, size: 0x8, addend: 0x0, symName: '__ZN4core3ptr38drop_in_place$LT$syn..expr..Member$GT$17h7029f987c5ad537fE', symObjAddr: 0x52A0, symBinAddr: 0x2B2F0, symSize: 0x30 }
  - { offsetInCU: 0x140A5, offset: 0xDF6D8, size: 0x8, addend: 0x0, symName: '__ZN4core3ptr39drop_in_place$LT$proc_macro2..Ident$GT$17he58a55800509d9f0E', symObjAddr: 0x52D0, symBinAddr: 0x2B320, symSize: 0x30 }
  - { offsetInCU: 0x14182, offset: 0xDF7B5, size: 0x8, addend: 0x0, symName: '__ZN4core3ptr39drop_in_place$LT$syn..pat..PatTuple$GT$17h173a134616340f87E', symObjAddr: 0x5300, symBinAddr: 0x2B350, symSize: 0x100 }
  - { offsetInCU: 0x1448B, offset: 0xDFABE, size: 0x8, addend: 0x0, symName: '__ZN4core3ptr40drop_in_place$LT$syn..ty..ReturnType$GT$17haa68b7cc1b6acdbcE', symObjAddr: 0x5400, symBinAddr: 0x2B450, symSize: 0x50 }
  - { offsetInCU: 0x145FB, offset: 0xDFC2E, size: 0x8, addend: 0x0, symName: '__ZN4core3ptr44drop_in_place$LT$syn..lifetime..Lifetime$GT$17h5cf5f86ff08bbfffE', symObjAddr: 0x5450, symBinAddr: 0x2B4A0, symSize: 0x30 }
  - { offsetInCU: 0x1482D, offset: 0xDFE60, size: 0x8, addend: 0x0, symName: '__ZN4core3ptr45drop_in_place$LT$proc_macro2..TokenStream$GT$17hb63c2ba91f609f4bE', symObjAddr: 0x5480, symBinAddr: 0x2B4D0, symSize: 0x140 }
  - { offsetInCU: 0x14CC7, offset: 0xE02FA, size: 0x8, addend: 0x0, symName: '__ZN4core3ptr47drop_in_place$LT$syn..path..GenericArgument$GT$17h4c3b95a0c49b421cE', symObjAddr: 0x55C0, symBinAddr: 0x2B610, symSize: 0x110 }
  - { offsetInCU: 0x14FE2, offset: 0xE0615, size: 0x8, addend: 0x0, symName: '__ZN4core3ptr58drop_in_place$LT$alloc..vec..Vec$LT$syn..expr..Arm$GT$$GT$17heb1fa160e7547cffE', symObjAddr: 0x56D0, symBinAddr: 0x2B720, symSize: 0xD0 }
  - { offsetInCU: 0x152A2, offset: 0xE08D5, size: 0x8, addend: 0x0, symName: '__ZN4core3ptr59drop_in_place$LT$alloc..boxed..Box$LT$syn..pat..Pat$GT$$GT$17h60be5d6a66b3da05E', symObjAddr: 0x57A0, symBinAddr: 0x2B7F0, symSize: 0x50 }
  - { offsetInCU: 0x153FB, offset: 0xE0A2E, size: 0x8, addend: 0x0, symName: '__ZN4core3ptr59drop_in_place$LT$alloc..boxed..Box$LT$syn..ty..Type$GT$$GT$17heeb121783262cf62E', symObjAddr: 0x57F0, symBinAddr: 0x2B840, symSize: 0x50 }
  - { offsetInCU: 0x15554, offset: 0xE0B87, size: 0x8, addend: 0x0, symName: '__ZN4core3ptr61drop_in_place$LT$alloc..boxed..Box$LT$syn..expr..Expr$GT$$GT$17h0ad33ed96c4c860bE', symObjAddr: 0x5840, symBinAddr: 0x2B890, symSize: 0x50 }
  - { offsetInCU: 0x15729, offset: 0xE0D5C, size: 0x8, addend: 0x0, symName: '__ZN4core3ptr61drop_in_place$LT$syn..path..ParenthesizedGenericArguments$GT$17hab49d4514a628b5dE', symObjAddr: 0x5890, symBinAddr: 0x2B8E0, symSize: 0x170 }
  - { offsetInCU: 0x15D1F, offset: 0xE1352, size: 0x8, addend: 0x0, symName: '__ZN4core3ptr63drop_in_place$LT$alloc..boxed..Box$LT$syn..lit..LitRepr$GT$$GT$17hd0037c2cc2fbadacE', symObjAddr: 0x5A00, symBinAddr: 0x2BA50, symSize: 0x60 }
  - { offsetInCU: 0x16026, offset: 0xE1659, size: 0x8, addend: 0x0, symName: '__ZN4core3ptr64drop_in_place$LT$alloc..boxed..Box$LT$syn..pat..FieldPat$GT$$GT$17hece52a686c7fd034E', symObjAddr: 0x5A60, symBinAddr: 0x2BAB0, symSize: 0x180 }
  - { offsetInCU: 0x16743, offset: 0xE1D76, size: 0x8, addend: 0x0, symName: '__ZN4core3ptr64drop_in_place$LT$alloc..boxed..Box$LT$syn..ty..BareFnArg$GT$$GT$17hc6fd980ef480b95dE', symObjAddr: 0x5BE0, symBinAddr: 0x2BC30, symSize: 0x160 }
  - { offsetInCU: 0x16CD9, offset: 0xE230C, size: 0x8, addend: 0x0, symName: '__ZN4core3ptr65drop_in_place$LT$alloc..vec..Vec$LT$proc_macro..TokenTree$GT$$GT$17h4c6fdabd28fc3216E', symObjAddr: 0x5D40, symBinAddr: 0x2BD90, symSize: 0x110 }
  - { offsetInCU: 0x170D1, offset: 0xE2704, size: 0x8, addend: 0x0, symName: '__ZN4core3ptr65drop_in_place$LT$core..option..Option$LT$syn..expr..Label$GT$$GT$17h7883508f217ffb0fE', symObjAddr: 0x5E50, symBinAddr: 0x2BEA0, symSize: 0x30 }
  - { offsetInCU: 0x1720B, offset: 0xE283E, size: 0x8, addend: 0x0, symName: '__ZN4core3ptr66drop_in_place$LT$core..option..Option$LT$syn..ty..Variadic$GT$$GT$17hd6ff1173fba1be01E', symObjAddr: 0x5E80, symBinAddr: 0x2BED0, symSize: 0xF0 }
  - { offsetInCU: 0x17535, offset: 0xE2B68, size: 0x8, addend: 0x0, symName: '__ZN4core3ptr67drop_in_place$LT$alloc..boxed..Box$LT$syn..expr..FieldValue$GT$$GT$17h31cf09f513da42aaE', symObjAddr: 0x5F70, symBinAddr: 0x2BFC0, symSize: 0x160 }
  - { offsetInCU: 0x17ACA, offset: 0xE30FD, size: 0x8, addend: 0x0, symName: '__ZN4core3ptr68drop_in_place$LT$alloc..boxed..Box$LT$syn..path..PathSegment$GT$$GT$17h32735e8ea349f2d1E', symObjAddr: 0x60D0, symBinAddr: 0x2C120, symSize: 0x190 }
  - { offsetInCU: 0x181D4, offset: 0xE3807, size: 0x8, addend: 0x0, symName: '__ZN4core3ptr72drop_in_place$LT$alloc..boxed..Box$LT$syn..path..GenericArgument$GT$$GT$17h375d0c08b19f3433E', symObjAddr: 0x6260, symBinAddr: 0x2C2B0, symSize: 0x120 }
  - { offsetInCU: 0x1864C, offset: 0xE3C7F, size: 0x8, addend: 0x0, symName: '__ZN4core3ptr72drop_in_place$LT$core..option..Option$LT$syn..lifetime..Lifetime$GT$$GT$17hd295f5e840a020ccE', symObjAddr: 0x6380, symBinAddr: 0x2C3D0, symSize: 0x30 }
  - { offsetInCU: 0x18767, offset: 0xE3D9A, size: 0x8, addend: 0x0, symName: '__ZN4core3ptr75drop_in_place$LT$alloc..boxed..Box$LT$syn..generics..TypeParamBound$GT$$GT$17h7c1afe98f7f6f16aE', symObjAddr: 0x63B0, symBinAddr: 0x2C400, symSize: 0x90 }
  - { offsetInCU: 0x18A2A, offset: 0xE405D, size: 0x8, addend: 0x0, symName: '__ZN4core3ptr78drop_in_place$LT$alloc..boxed..Box$LT$syn..expr..GenericMethodArgument$GT$$GT$17h55a4260f78553f71E', symObjAddr: 0x6440, symBinAddr: 0x2C490, symSize: 0x60 }
  - { offsetInCU: 0x18C1C, offset: 0xE424F, size: 0x8, addend: 0x0, symName: '__ZN4core3ptr78drop_in_place$LT$core..option..Option$LT$syn..generics..BoundLifetimes$GT$$GT$17haf03396f7774368eE', symObjAddr: 0x64A0, symBinAddr: 0x2C4F0, symSize: 0x90 }
  - { offsetInCU: 0x18F0A, offset: 0xE453D, size: 0x8, addend: 0x0, symName: '__ZN4core3ptr86drop_in_place$LT$syn..punctuated..Punctuated$LT$syn..pat..Pat$C$syn..token..Or$GT$$GT$17hbb2b6b72e812801eE', symObjAddr: 0x6530, symBinAddr: 0x2C580, symSize: 0x120 }
  - { offsetInCU: 0x19385, offset: 0xE49B8, size: 0x8, addend: 0x0, symName: '__ZN4core3ptr87drop_in_place$LT$core..option..Option$LT$alloc..boxed..Box$LT$syn..pat..Pat$GT$$GT$$GT$17hcfd4919c66658841E', symObjAddr: 0x6650, symBinAddr: 0x2C6A0, symSize: 0x50 }
  - { offsetInCU: 0x194F5, offset: 0xE4B28, size: 0x8, addend: 0x0, symName: '__ZN4core3ptr87drop_in_place$LT$core..option..Option$LT$alloc..boxed..Box$LT$syn..ty..Type$GT$$GT$$GT$17hb89ed7b1d392328bE', symObjAddr: 0x66A0, symBinAddr: 0x2C6F0, symSize: 0x50 }
  - { offsetInCU: 0x19665, offset: 0xE4C98, size: 0x8, addend: 0x0, symName: '__ZN4core3ptr89drop_in_place$LT$core..option..Option$LT$alloc..boxed..Box$LT$syn..expr..Expr$GT$$GT$$GT$17hb6243efdcf519f03E', symObjAddr: 0x66F0, symBinAddr: 0x2C740, symSize: 0x50 }
  - { offsetInCU: 0x19813, offset: 0xE4E46, size: 0x8, addend: 0x0, symName: '__ZN4core3ptr89drop_in_place$LT$syn..punctuated..Punctuated$LT$syn..pat..Pat$C$syn..token..Comma$GT$$GT$17h1055c4b414ae37a9E', symObjAddr: 0x6740, symBinAddr: 0x2C790, symSize: 0x120 }
  - { offsetInCU: 0x19CA5, offset: 0xE52D8, size: 0x8, addend: 0x0, symName: '__ZN4core3ptr89drop_in_place$LT$syn..punctuated..Punctuated$LT$syn..ty..Type$C$syn..token..Comma$GT$$GT$17h72d99448207a7e07E', symObjAddr: 0x6860, symBinAddr: 0x2C8B0, symSize: 0x120 }
  - { offsetInCU: 0x1A15E, offset: 0xE5791, size: 0x8, addend: 0x0, symName: '__ZN4core3ptr91drop_in_place$LT$syn..punctuated..Punctuated$LT$syn..expr..Expr$C$syn..token..Comma$GT$$GT$17hf148654d6f6c8948E', symObjAddr: 0x6980, symBinAddr: 0x2C9D0, symSize: 0x120 }
  - { offsetInCU: 0x1A5EC, offset: 0xE5C1F, size: 0x8, addend: 0x0, symName: '__ZN4core3ptr94drop_in_place$LT$syn..punctuated..Punctuated$LT$syn..pat..FieldPat$C$syn..token..Comma$GT$$GT$17h611ffe8d66e43618E', symObjAddr: 0x6AA0, symBinAddr: 0x2CAF0, symSize: 0xF0 }
  - { offsetInCU: 0x1A8EB, offset: 0xE5F1E, size: 0x8, addend: 0x0, symName: '__ZN4core3ptr94drop_in_place$LT$syn..punctuated..Punctuated$LT$syn..ty..BareFnArg$C$syn..token..Comma$GT$$GT$17h2613c88a3dcf4e8bE', symObjAddr: 0x6B90, symBinAddr: 0x2CBE0, symSize: 0x90 }
  - { offsetInCU: 0x1AB5B, offset: 0xE618E, size: 0x8, addend: 0x0, symName: '__ZN4core3ptr96drop_in_place$LT$core..option..Option$LT$alloc..boxed..Box$LT$syn..path..PathSegment$GT$$GT$$GT$17hf79dec3399db1c31E', symObjAddr: 0x6C20, symBinAddr: 0x2CC70, symSize: 0x180 }
  - { offsetInCU: 0x1B218, offset: 0xE684B, size: 0x8, addend: 0x0, symName: '__ZN4core3ptr97drop_in_place$LT$syn..punctuated..Punctuated$LT$syn..expr..FieldValue$C$syn..token..Comma$GT$$GT$17hde8846b572708e4cE', symObjAddr: 0x6DA0, symBinAddr: 0x2CDF0, symSize: 0xF0 }
  - { offsetInCU: 0x1B591, offset: 0xE6BC4, size: 0x8, addend: 0x0, symName: '__ZN4core3ptr97drop_in_place$LT$syn..punctuated..Punctuated$LT$syn..lifetime..Lifetime$C$syn..token..Add$GT$$GT$17ha261eddfb5dc9f8cE', symObjAddr: 0x6E90, symBinAddr: 0x2CEE0, symSize: 0xD0 }
  - { offsetInCU: 0x1BA05, offset: 0xE7038, size: 0x8, addend: 0x0, symName: '__ZN4core3ptr99drop_in_place$LT$syn..punctuated..Punctuated$LT$syn..path..PathSegment$C$syn..token..Colon2$GT$$GT$17h478772ddb14ca2b7E', symObjAddr: 0x6F60, symBinAddr: 0x2CFB0, symSize: 0x250 }
  - { offsetInCU: 0x23B0D, offset: 0xEF140, size: 0x8, addend: 0x0, symName: '__ZN86_$LT$alloc..vec..into_iter..IntoIter$LT$T$C$A$GT$$u20$as$u20$core..ops..drop..Drop$GT$4drop17h7a8416a838ad765fE', symObjAddr: 0x71B0, symBinAddr: 0x2D200, symSize: 0xF0 }
  - { offsetInCU: 0x23E7A, offset: 0xEF4AD, size: 0x8, addend: 0x0, symName: '__ZN86_$LT$alloc..vec..into_iter..IntoIter$LT$T$C$A$GT$$u20$as$u20$core..ops..drop..Drop$GT$4drop17hc7852668f8cfe101E', symObjAddr: 0x72A0, symBinAddr: 0x2D2F0, symSize: 0xD0 }
  - { offsetInCU: 0x1E, offset: 0xF3E91, size: 0x8, addend: 0x0, symName: '__ZN40_$LT$F$u20$as$u20$syn..parse..Parser$GT$6parse217hdd6b259cba714db9E', symObjAddr: 0x0, symBinAddr: 0x2D3C0, symSize: 0x410 }
  - { offsetInCU: 0x1ADD, offset: 0xF5950, size: 0x8, addend: 0x0, symName: '__ZN4core3ptr100drop_in_place$LT$core..option..Option$LT$alloc..boxed..Box$LT$syn..generics..LifetimeDef$GT$$GT$$GT$17h5dd8e0b04b4a3baaE', symObjAddr: 0x790, symBinAddr: 0x2DB50, symSize: 0x150 }
  - { offsetInCU: 0x2059, offset: 0xF5ECC, size: 0x8, addend: 0x0, symName: '__ZN4core3ptr100drop_in_place$LT$core..option..Option$LT$alloc..boxed..Box$LT$syn..path..GenericArgument$GT$$GT$$GT$17h26ee87b1c4c5dc42E', symObjAddr: 0x8E0, symBinAddr: 0x2DCA0, symSize: 0x50 }
  - { offsetInCU: 0x22A2, offset: 0xF6115, size: 0x8, addend: 0x0, symName: '__ZN4core3ptr103drop_in_place$LT$syn..punctuated..Punctuated$LT$syn..generics..TypeParamBound$C$syn..token..Add$GT$$GT$17h4f3843b72f327789E', symObjAddr: 0x930, symBinAddr: 0x2DCF0, symSize: 0x160 }
  - { offsetInCU: 0x28FB, offset: 0xF676E, size: 0x8, addend: 0x0, symName: '__ZN4core3ptr108drop_in_place$LT$syn..punctuated..Punctuated$LT$syn..expr..GenericMethodArgument$C$syn..token..Comma$GT$$GT$17h9b79ee4fdcae7363E', symObjAddr: 0xA90, symBinAddr: 0x2DE50, symSize: 0x150 }
  - { offsetInCU: 0x2E54, offset: 0xF6CC7, size: 0x8, addend: 0x0, symName: '__ZN4core3ptr34drop_in_place$LT$syn..lit..Lit$GT$17he892d6bcf66ad631E', symObjAddr: 0xBE0, symBinAddr: 0x2DFA0, symSize: 0x110 }
  - { offsetInCU: 0x3304, offset: 0xF7177, size: 0x8, addend: 0x0, symName: '__ZN4core3ptr34drop_in_place$LT$syn..pat..Pat$GT$17h6d1a07bd3be6c591E', symObjAddr: 0xCF0, symBinAddr: 0x2E0B0, symSize: 0x1190 }
  - { offsetInCU: 0x721C, offset: 0xFB08F, size: 0x8, addend: 0x0, symName: '__ZN4core3ptr34drop_in_place$LT$syn..ty..Type$GT$17h1a36674572c6e171E', symObjAddr: 0x1E80, symBinAddr: 0x2F240, symSize: 0x540 }
  - { offsetInCU: 0x8AA4, offset: 0xFC917, size: 0x8, addend: 0x0, symName: '__ZN4core3ptr36drop_in_place$LT$syn..expr..Expr$GT$17h2ce4108c1413d692E', symObjAddr: 0x23C0, symBinAddr: 0x2F780, symSize: 0x3290 }
  - { offsetInCU: 0x13335, offset: 0x1071A8, size: 0x8, addend: 0x0, symName: '__ZN4core3ptr36drop_in_place$LT$syn..mac..Macro$GT$17h55fbd9be7ef4af2bE', symObjAddr: 0x5650, symBinAddr: 0x32A10, symSize: 0x40 }
  - { offsetInCU: 0x13486, offset: 0x1072F9, size: 0x8, addend: 0x0, symName: '__ZN4core3ptr36drop_in_place$LT$syn..path..Path$GT$17h199af0938b5ffb06E', symObjAddr: 0x5690, symBinAddr: 0x32A50, symSize: 0x230 }
  - { offsetInCU: 0x13E1C, offset: 0x107C8F, size: 0x8, addend: 0x0, symName: '__ZN4core3ptr37drop_in_place$LT$syn..stmt..Block$GT$17h4d573fd16c70050eE', symObjAddr: 0x58C0, symBinAddr: 0x32C80, symSize: 0xD0 }
  - { offsetInCU: 0x140F3, offset: 0x107F66, size: 0x8, addend: 0x0, symName: '__ZN4core3ptr38drop_in_place$LT$syn..expr..Member$GT$17h7029f987c5ad537fE', symObjAddr: 0x5990, symBinAddr: 0x32D50, symSize: 0x30 }
  - { offsetInCU: 0x141EF, offset: 0x108062, size: 0x8, addend: 0x0, symName: '__ZN4core3ptr39drop_in_place$LT$proc_macro2..Ident$GT$17he58a55800509d9f0E', symObjAddr: 0x59C0, symBinAddr: 0x32D80, symSize: 0x30 }
  - { offsetInCU: 0x14402, offset: 0x108275, size: 0x8, addend: 0x0, symName: '__ZN4core3ptr39drop_in_place$LT$syn..buffer..Entry$GT$17h9940c5d38e10db1eE', symObjAddr: 0x59F0, symBinAddr: 0x32DB0, symSize: 0xB0 }
  - { offsetInCU: 0x1478D, offset: 0x108600, size: 0x8, addend: 0x0, symName: '__ZN4core3ptr39drop_in_place$LT$syn..pat..PatTuple$GT$17h173a134616340f87E', symObjAddr: 0x5AA0, symBinAddr: 0x32E60, symSize: 0x100 }
  - { offsetInCU: 0x14A96, offset: 0x108909, size: 0x8, addend: 0x0, symName: '__ZN4core3ptr40drop_in_place$LT$syn..ty..ReturnType$GT$17haa68b7cc1b6acdbcE', symObjAddr: 0x5BA0, symBinAddr: 0x32F60, symSize: 0x50 }
  - { offsetInCU: 0x14C06, offset: 0x108A79, size: 0x8, addend: 0x0, symName: '__ZN4core3ptr44drop_in_place$LT$ark_ff_asm..AsmMulInput$GT$17h717889d4340dcaefE', symObjAddr: 0x5BF0, symBinAddr: 0x32FB0, symSize: 0x90 }
  - { offsetInCU: 0x14D83, offset: 0x108BF6, size: 0x8, addend: 0x0, symName: '__ZN4core3ptr44drop_in_place$LT$syn..lifetime..Lifetime$GT$17h5cf5f86ff08bbfffE', symObjAddr: 0x5C80, symBinAddr: 0x33040, symSize: 0x30 }
  - { offsetInCU: 0x14E7F, offset: 0x108CF2, size: 0x8, addend: 0x0, symName: '__ZN4core3ptr44drop_in_place$LT$syn..parse..ParseBuffer$GT$17h2478a7125713cc16E', symObjAddr: 0x5CB0, symBinAddr: 0x33070, symSize: 0x70 }
  - { offsetInCU: 0x151FB, offset: 0x10906E, size: 0x8, addend: 0x0, symName: '__ZN4core3ptr45drop_in_place$LT$proc_macro2..TokenStream$GT$17hb63c2ba91f609f4bE', symObjAddr: 0x5D20, symBinAddr: 0x330E0, symSize: 0x140 }
  - { offsetInCU: 0x15657, offset: 0x1094CA, size: 0x8, addend: 0x0, symName: '__ZN4core3ptr45drop_in_place$LT$syn..buffer..TokenBuffer$GT$17hd3c1e3f11c5dec74E', symObjAddr: 0x5E60, symBinAddr: 0x33220, symSize: 0xC0 }
  - { offsetInCU: 0x15881, offset: 0x1096F4, size: 0x8, addend: 0x0, symName: '__ZN4core3ptr47drop_in_place$LT$ark_ff_asm..AsmSquareInput$GT$17h5aaf83706d3cd80eE', symObjAddr: 0x5F20, symBinAddr: 0x332E0, symSize: 0x70 }
  - { offsetInCU: 0x15A29, offset: 0x10989C, size: 0x8, addend: 0x0, symName: '__ZN4core3ptr47drop_in_place$LT$syn..path..GenericArgument$GT$17h4c3b95a0c49b421cE', symObjAddr: 0x5F90, symBinAddr: 0x33350, symSize: 0x110 }
  - { offsetInCU: 0x15D44, offset: 0x109BB7, size: 0x8, addend: 0x0, symName: '__ZN4core3ptr58drop_in_place$LT$alloc..vec..Vec$LT$syn..expr..Arm$GT$$GT$17heb1fa160e7547cffE', symObjAddr: 0x60A0, symBinAddr: 0x33460, symSize: 0xD0 }
  - { offsetInCU: 0x16004, offset: 0x109E77, size: 0x8, addend: 0x0, symName: '__ZN4core3ptr59drop_in_place$LT$alloc..boxed..Box$LT$syn..pat..Pat$GT$$GT$17h60be5d6a66b3da05E', symObjAddr: 0x6170, symBinAddr: 0x33530, symSize: 0x50 }
  - { offsetInCU: 0x1615D, offset: 0x109FD0, size: 0x8, addend: 0x0, symName: '__ZN4core3ptr59drop_in_place$LT$alloc..boxed..Box$LT$syn..ty..Type$GT$$GT$17heeb121783262cf62E', symObjAddr: 0x61C0, symBinAddr: 0x33580, symSize: 0x50 }
  - { offsetInCU: 0x162B6, offset: 0x10A129, size: 0x8, addend: 0x0, symName: '__ZN4core3ptr61drop_in_place$LT$alloc..boxed..Box$LT$syn..expr..Expr$GT$$GT$17h0ad33ed96c4c860bE', symObjAddr: 0x6210, symBinAddr: 0x335D0, symSize: 0x50 }
  - { offsetInCU: 0x1648B, offset: 0x10A2FE, size: 0x8, addend: 0x0, symName: '__ZN4core3ptr61drop_in_place$LT$syn..path..ParenthesizedGenericArguments$GT$17hab49d4514a628b5dE', symObjAddr: 0x6260, symBinAddr: 0x33620, symSize: 0x170 }
  - { offsetInCU: 0x16A81, offset: 0x10A8F4, size: 0x8, addend: 0x0, symName: '__ZN4core3ptr63drop_in_place$LT$alloc..boxed..Box$LT$syn..lit..LitRepr$GT$$GT$17hd0037c2cc2fbadacE', symObjAddr: 0x63D0, symBinAddr: 0x33790, symSize: 0x60 }
  - { offsetInCU: 0x16D88, offset: 0x10ABFB, size: 0x8, addend: 0x0, symName: '__ZN4core3ptr64drop_in_place$LT$alloc..boxed..Box$LT$syn..pat..FieldPat$GT$$GT$17hece52a686c7fd034E', symObjAddr: 0x6430, symBinAddr: 0x337F0, symSize: 0x180 }
  - { offsetInCU: 0x174A5, offset: 0x10B318, size: 0x8, addend: 0x0, symName: '__ZN4core3ptr64drop_in_place$LT$alloc..boxed..Box$LT$syn..ty..BareFnArg$GT$$GT$17hc6fd980ef480b95dE', symObjAddr: 0x65B0, symBinAddr: 0x33970, symSize: 0x160 }
  - { offsetInCU: 0x17A3B, offset: 0x10B8AE, size: 0x8, addend: 0x0, symName: '__ZN4core3ptr65drop_in_place$LT$alloc..vec..Vec$LT$proc_macro..TokenTree$GT$$GT$17h4c6fdabd28fc3216E', symObjAddr: 0x6710, symBinAddr: 0x33AD0, symSize: 0x110 }
  - { offsetInCU: 0x17E33, offset: 0x10BCA6, size: 0x8, addend: 0x0, symName: '__ZN4core3ptr65drop_in_place$LT$core..option..Option$LT$syn..expr..Label$GT$$GT$17h7883508f217ffb0fE', symObjAddr: 0x6820, symBinAddr: 0x33BE0, symSize: 0x30 }
  - { offsetInCU: 0x17F6D, offset: 0x10BDE0, size: 0x8, addend: 0x0, symName: '__ZN4core3ptr66drop_in_place$LT$core..option..Option$LT$syn..ty..Variadic$GT$$GT$17hd6ff1173fba1be01E', symObjAddr: 0x6850, symBinAddr: 0x33C10, symSize: 0xF0 }
  - { offsetInCU: 0x18297, offset: 0x10C10A, size: 0x8, addend: 0x0, symName: '__ZN4core3ptr67drop_in_place$LT$alloc..boxed..Box$LT$syn..expr..FieldValue$GT$$GT$17h31cf09f513da42aaE', symObjAddr: 0x6940, symBinAddr: 0x33D00, symSize: 0x160 }
  - { offsetInCU: 0x1882C, offset: 0x10C69F, size: 0x8, addend: 0x0, symName: '__ZN4core3ptr68drop_in_place$LT$alloc..boxed..Box$LT$syn..path..PathSegment$GT$$GT$17h32735e8ea349f2d1E', symObjAddr: 0x6AA0, symBinAddr: 0x33E60, symSize: 0x190 }
  - { offsetInCU: 0x18F36, offset: 0x10CDA9, size: 0x8, addend: 0x0, symName: '__ZN4core3ptr72drop_in_place$LT$alloc..boxed..Box$LT$syn..path..GenericArgument$GT$$GT$17h375d0c08b19f3433E', symObjAddr: 0x6C30, symBinAddr: 0x33FF0, symSize: 0x120 }
  - { offsetInCU: 0x193AE, offset: 0x10D221, size: 0x8, addend: 0x0, symName: '__ZN4core3ptr72drop_in_place$LT$core..option..Option$LT$syn..lifetime..Lifetime$GT$$GT$17hd295f5e840a020ccE', symObjAddr: 0x6D50, symBinAddr: 0x34110, symSize: 0x30 }
  - { offsetInCU: 0x194C9, offset: 0x10D33C, size: 0x8, addend: 0x0, symName: '__ZN4core3ptr75drop_in_place$LT$alloc..boxed..Box$LT$syn..generics..TypeParamBound$GT$$GT$17h7c1afe98f7f6f16aE', symObjAddr: 0x6D80, symBinAddr: 0x34140, symSize: 0x90 }
  - { offsetInCU: 0x1978C, offset: 0x10D5FF, size: 0x8, addend: 0x0, symName: '__ZN4core3ptr78drop_in_place$LT$alloc..boxed..Box$LT$syn..expr..GenericMethodArgument$GT$$GT$17h55a4260f78553f71E', symObjAddr: 0x6E10, symBinAddr: 0x341D0, symSize: 0x60 }
  - { offsetInCU: 0x1997E, offset: 0x10D7F1, size: 0x8, addend: 0x0, symName: '__ZN4core3ptr78drop_in_place$LT$core..option..Option$LT$syn..generics..BoundLifetimes$GT$$GT$17haf03396f7774368eE', symObjAddr: 0x6E70, symBinAddr: 0x34230, symSize: 0x90 }
  - { offsetInCU: 0x19C6C, offset: 0x10DADF, size: 0x8, addend: 0x0, symName: '__ZN4core3ptr86drop_in_place$LT$syn..punctuated..Punctuated$LT$syn..pat..Pat$C$syn..token..Or$GT$$GT$17hbb2b6b72e812801eE', symObjAddr: 0x6F00, symBinAddr: 0x342C0, symSize: 0x120 }
  - { offsetInCU: 0x1A0E7, offset: 0x10DF5A, size: 0x8, addend: 0x0, symName: '__ZN4core3ptr87drop_in_place$LT$core..option..Option$LT$alloc..boxed..Box$LT$syn..pat..Pat$GT$$GT$$GT$17hcfd4919c66658841E', symObjAddr: 0x7020, symBinAddr: 0x343E0, symSize: 0x50 }
  - { offsetInCU: 0x1A257, offset: 0x10E0CA, size: 0x8, addend: 0x0, symName: '__ZN4core3ptr87drop_in_place$LT$core..option..Option$LT$alloc..boxed..Box$LT$syn..ty..Type$GT$$GT$$GT$17hb89ed7b1d392328bE', symObjAddr: 0x7070, symBinAddr: 0x34430, symSize: 0x50 }
  - { offsetInCU: 0x1A3C7, offset: 0x10E23A, size: 0x8, addend: 0x0, symName: '__ZN4core3ptr89drop_in_place$LT$core..option..Option$LT$alloc..boxed..Box$LT$syn..expr..Expr$GT$$GT$$GT$17hb6243efdcf519f03E', symObjAddr: 0x70C0, symBinAddr: 0x34480, symSize: 0x50 }
  - { offsetInCU: 0x1A575, offset: 0x10E3E8, size: 0x8, addend: 0x0, symName: '__ZN4core3ptr89drop_in_place$LT$syn..punctuated..Punctuated$LT$syn..pat..Pat$C$syn..token..Comma$GT$$GT$17h1055c4b414ae37a9E', symObjAddr: 0x7110, symBinAddr: 0x344D0, symSize: 0x120 }
  - { offsetInCU: 0x1AA07, offset: 0x10E87A, size: 0x8, addend: 0x0, symName: '__ZN4core3ptr89drop_in_place$LT$syn..punctuated..Punctuated$LT$syn..ty..Type$C$syn..token..Comma$GT$$GT$17h72d99448207a7e07E', symObjAddr: 0x7230, symBinAddr: 0x345F0, symSize: 0x120 }
  - { offsetInCU: 0x1AEC0, offset: 0x10ED33, size: 0x8, addend: 0x0, symName: '__ZN4core3ptr91drop_in_place$LT$syn..punctuated..Punctuated$LT$syn..expr..Expr$C$syn..token..Comma$GT$$GT$17hf148654d6f6c8948E', symObjAddr: 0x7350, symBinAddr: 0x34710, symSize: 0x120 }
  - { offsetInCU: 0x1B34E, offset: 0x10F1C1, size: 0x8, addend: 0x0, symName: '__ZN4core3ptr94drop_in_place$LT$syn..punctuated..Punctuated$LT$syn..pat..FieldPat$C$syn..token..Comma$GT$$GT$17h611ffe8d66e43618E', symObjAddr: 0x7470, symBinAddr: 0x34830, symSize: 0xF0 }
  - { offsetInCU: 0x1B64D, offset: 0x10F4C0, size: 0x8, addend: 0x0, symName: '__ZN4core3ptr94drop_in_place$LT$syn..punctuated..Punctuated$LT$syn..ty..BareFnArg$C$syn..token..Comma$GT$$GT$17h2613c88a3dcf4e8bE', symObjAddr: 0x7560, symBinAddr: 0x34920, symSize: 0x90 }
  - { offsetInCU: 0x1B8BD, offset: 0x10F730, size: 0x8, addend: 0x0, symName: '__ZN4core3ptr96drop_in_place$LT$core..option..Option$LT$alloc..boxed..Box$LT$syn..path..PathSegment$GT$$GT$$GT$17hf79dec3399db1c31E', symObjAddr: 0x75F0, symBinAddr: 0x349B0, symSize: 0x180 }
  - { offsetInCU: 0x1BF7A, offset: 0x10FDED, size: 0x8, addend: 0x0, symName: '__ZN4core3ptr97drop_in_place$LT$syn..punctuated..Punctuated$LT$syn..expr..FieldValue$C$syn..token..Comma$GT$$GT$17hde8846b572708e4cE', symObjAddr: 0x7770, symBinAddr: 0x34B30, symSize: 0xF0 }
  - { offsetInCU: 0x1C2F3, offset: 0x110166, size: 0x8, addend: 0x0, symName: '__ZN4core3ptr97drop_in_place$LT$syn..punctuated..Punctuated$LT$syn..lifetime..Lifetime$C$syn..token..Add$GT$$GT$17ha261eddfb5dc9f8cE', symObjAddr: 0x7860, symBinAddr: 0x34C20, symSize: 0xD0 }
  - { offsetInCU: 0x1C767, offset: 0x1105DA, size: 0x8, addend: 0x0, symName: '__ZN4core3ptr99drop_in_place$LT$syn..punctuated..Punctuated$LT$syn..path..PathSegment$C$syn..token..Colon2$GT$$GT$17h478772ddb14ca2b7E', symObjAddr: 0x7930, symBinAddr: 0x34CF0, symSize: 0x24A }
  - { offsetInCU: 0x24537, offset: 0x1183AA, size: 0x8, addend: 0x0, symName: '__ZN40_$LT$F$u20$as$u20$syn..parse..Parser$GT$6parse217hdd6b259cba714db9E', symObjAddr: 0x0, symBinAddr: 0x2D3C0, symSize: 0x410 }
  - { offsetInCU: 0x2502B, offset: 0x118E9E, size: 0x8, addend: 0x0, symName: '__ZN40_$LT$F$u20$as$u20$syn..parse..Parser$GT$6parse217he17922099a809145E', symObjAddr: 0x410, symBinAddr: 0x2D7D0, symSize: 0x380 }
  - { offsetInCU: 0x1E, offset: 0x11E975, size: 0x8, addend: 0x0, symName: __ZN3syn5parse6Parser9parse_str17h20bd8b58d54efc83E, symObjAddr: 0x0, symBinAddr: 0x34F40, symSize: 0x3F0 }
  - { offsetInCU: 0x1B3A, offset: 0x120491, size: 0x8, addend: 0x0, symName: '__ZN4core3ptr100drop_in_place$LT$core..option..Option$LT$alloc..boxed..Box$LT$syn..generics..LifetimeDef$GT$$GT$$GT$17h5dd8e0b04b4a3baaE', symObjAddr: 0x3F0, symBinAddr: 0x35330, symSize: 0x150 }
  - { offsetInCU: 0x20B6, offset: 0x120A0D, size: 0x8, addend: 0x0, symName: '__ZN4core3ptr100drop_in_place$LT$core..option..Option$LT$alloc..boxed..Box$LT$syn..path..GenericArgument$GT$$GT$$GT$17h26ee87b1c4c5dc42E', symObjAddr: 0x540, symBinAddr: 0x35480, symSize: 0x50 }
  - { offsetInCU: 0x22FF, offset: 0x120C56, size: 0x8, addend: 0x0, symName: '__ZN4core3ptr103drop_in_place$LT$syn..punctuated..Punctuated$LT$syn..generics..TypeParamBound$C$syn..token..Add$GT$$GT$17h4f3843b72f327789E', symObjAddr: 0x590, symBinAddr: 0x354D0, symSize: 0x160 }
  - { offsetInCU: 0x2958, offset: 0x1212AF, size: 0x8, addend: 0x0, symName: '__ZN4core3ptr108drop_in_place$LT$syn..punctuated..Punctuated$LT$syn..expr..GenericMethodArgument$C$syn..token..Comma$GT$$GT$17h9b79ee4fdcae7363E', symObjAddr: 0x6F0, symBinAddr: 0x35630, symSize: 0x150 }
  - { offsetInCU: 0x2EB1, offset: 0x121808, size: 0x8, addend: 0x0, symName: '__ZN4core3ptr34drop_in_place$LT$syn..lit..Lit$GT$17he892d6bcf66ad631E', symObjAddr: 0x840, symBinAddr: 0x35780, symSize: 0x110 }
  - { offsetInCU: 0x3380, offset: 0x121CD7, size: 0x8, addend: 0x0, symName: '__ZN4core3ptr34drop_in_place$LT$syn..pat..Pat$GT$17h6d1a07bd3be6c591E', symObjAddr: 0x950, symBinAddr: 0x35890, symSize: 0x1190 }
  - { offsetInCU: 0x7298, offset: 0x125BEF, size: 0x8, addend: 0x0, symName: '__ZN4core3ptr34drop_in_place$LT$syn..ty..Type$GT$17h1a36674572c6e171E', symObjAddr: 0x1AE0, symBinAddr: 0x36A20, symSize: 0x540 }
  - { offsetInCU: 0x8B20, offset: 0x127477, size: 0x8, addend: 0x0, symName: '__ZN4core3ptr36drop_in_place$LT$syn..expr..Expr$GT$17h2ce4108c1413d692E', symObjAddr: 0x2020, symBinAddr: 0x36F60, symSize: 0x3290 }
  - { offsetInCU: 0x133B1, offset: 0x131D08, size: 0x8, addend: 0x0, symName: '__ZN4core3ptr36drop_in_place$LT$syn..mac..Macro$GT$17h55fbd9be7ef4af2bE', symObjAddr: 0x52B0, symBinAddr: 0x3A1F0, symSize: 0x40 }
  - { offsetInCU: 0x13502, offset: 0x131E59, size: 0x8, addend: 0x0, symName: '__ZN4core3ptr36drop_in_place$LT$syn..path..Path$GT$17h199af0938b5ffb06E', symObjAddr: 0x52F0, symBinAddr: 0x3A230, symSize: 0x230 }
  - { offsetInCU: 0x13E98, offset: 0x1327EF, size: 0x8, addend: 0x0, symName: '__ZN4core3ptr37drop_in_place$LT$syn..stmt..Block$GT$17h4d573fd16c70050eE', symObjAddr: 0x5520, symBinAddr: 0x3A460, symSize: 0xD0 }
  - { offsetInCU: 0x1416F, offset: 0x132AC6, size: 0x8, addend: 0x0, symName: '__ZN4core3ptr38drop_in_place$LT$syn..expr..Member$GT$17h7029f987c5ad537fE', symObjAddr: 0x55F0, symBinAddr: 0x3A530, symSize: 0x30 }
  - { offsetInCU: 0x1426B, offset: 0x132BC2, size: 0x8, addend: 0x0, symName: '__ZN4core3ptr39drop_in_place$LT$proc_macro2..Ident$GT$17he58a55800509d9f0E', symObjAddr: 0x5620, symBinAddr: 0x3A560, symSize: 0x30 }
  - { offsetInCU: 0x1447E, offset: 0x132DD5, size: 0x8, addend: 0x0, symName: '__ZN4core3ptr39drop_in_place$LT$syn..buffer..Entry$GT$17h9940c5d38e10db1eE', symObjAddr: 0x5650, symBinAddr: 0x3A590, symSize: 0xB0 }
  - { offsetInCU: 0x14809, offset: 0x133160, size: 0x8, addend: 0x0, symName: '__ZN4core3ptr39drop_in_place$LT$syn..pat..PatTuple$GT$17h173a134616340f87E', symObjAddr: 0x5700, symBinAddr: 0x3A640, symSize: 0x100 }
  - { offsetInCU: 0x14B12, offset: 0x133469, size: 0x8, addend: 0x0, symName: '__ZN4core3ptr40drop_in_place$LT$syn..ty..ReturnType$GT$17haa68b7cc1b6acdbcE', symObjAddr: 0x5800, symBinAddr: 0x3A740, symSize: 0x50 }
  - { offsetInCU: 0x14C82, offset: 0x1335D9, size: 0x8, addend: 0x0, symName: '__ZN4core3ptr44drop_in_place$LT$syn..lifetime..Lifetime$GT$17h5cf5f86ff08bbfffE', symObjAddr: 0x5850, symBinAddr: 0x3A790, symSize: 0x30 }
  - { offsetInCU: 0x14D7E, offset: 0x1336D5, size: 0x8, addend: 0x0, symName: '__ZN4core3ptr44drop_in_place$LT$syn..parse..ParseBuffer$GT$17h2478a7125713cc16E', symObjAddr: 0x5880, symBinAddr: 0x3A7C0, symSize: 0x70 }
  - { offsetInCU: 0x150FA, offset: 0x133A51, size: 0x8, addend: 0x0, symName: '__ZN4core3ptr45drop_in_place$LT$proc_macro2..TokenStream$GT$17hb63c2ba91f609f4bE', symObjAddr: 0x58F0, symBinAddr: 0x3A830, symSize: 0x140 }
  - { offsetInCU: 0x15556, offset: 0x133EAD, size: 0x8, addend: 0x0, symName: '__ZN4core3ptr45drop_in_place$LT$syn..buffer..TokenBuffer$GT$17hd3c1e3f11c5dec74E', symObjAddr: 0x5A30, symBinAddr: 0x3A970, symSize: 0xC0 }
  - { offsetInCU: 0x157BE, offset: 0x134115, size: 0x8, addend: 0x0, symName: '__ZN4core3ptr47drop_in_place$LT$syn..path..GenericArgument$GT$17h4c3b95a0c49b421cE', symObjAddr: 0x5AF0, symBinAddr: 0x3AA30, symSize: 0x110 }
  - { offsetInCU: 0x15AD9, offset: 0x134430, size: 0x8, addend: 0x0, symName: '__ZN4core3ptr58drop_in_place$LT$alloc..vec..Vec$LT$syn..expr..Arm$GT$$GT$17heb1fa160e7547cffE', symObjAddr: 0x5C00, symBinAddr: 0x3AB40, symSize: 0xD0 }
  - { offsetInCU: 0x15D99, offset: 0x1346F0, size: 0x8, addend: 0x0, symName: '__ZN4core3ptr59drop_in_place$LT$alloc..boxed..Box$LT$syn..pat..Pat$GT$$GT$17h60be5d6a66b3da05E', symObjAddr: 0x5CD0, symBinAddr: 0x3AC10, symSize: 0x50 }
  - { offsetInCU: 0x15EF2, offset: 0x134849, size: 0x8, addend: 0x0, symName: '__ZN4core3ptr59drop_in_place$LT$alloc..boxed..Box$LT$syn..ty..Type$GT$$GT$17heeb121783262cf62E', symObjAddr: 0x5D20, symBinAddr: 0x3AC60, symSize: 0x50 }
  - { offsetInCU: 0x1604B, offset: 0x1349A2, size: 0x8, addend: 0x0, symName: '__ZN4core3ptr61drop_in_place$LT$alloc..boxed..Box$LT$syn..expr..Expr$GT$$GT$17h0ad33ed96c4c860bE', symObjAddr: 0x5D70, symBinAddr: 0x3ACB0, symSize: 0x50 }
  - { offsetInCU: 0x16220, offset: 0x134B77, size: 0x8, addend: 0x0, symName: '__ZN4core3ptr61drop_in_place$LT$syn..path..ParenthesizedGenericArguments$GT$17hab49d4514a628b5dE', symObjAddr: 0x5DC0, symBinAddr: 0x3AD00, symSize: 0x170 }
  - { offsetInCU: 0x16816, offset: 0x13516D, size: 0x8, addend: 0x0, symName: '__ZN4core3ptr63drop_in_place$LT$alloc..boxed..Box$LT$syn..lit..LitRepr$GT$$GT$17hd0037c2cc2fbadacE', symObjAddr: 0x5F30, symBinAddr: 0x3AE70, symSize: 0x60 }
  - { offsetInCU: 0x16B1D, offset: 0x135474, size: 0x8, addend: 0x0, symName: '__ZN4core3ptr64drop_in_place$LT$alloc..boxed..Box$LT$syn..pat..FieldPat$GT$$GT$17hece52a686c7fd034E', symObjAddr: 0x5F90, symBinAddr: 0x3AED0, symSize: 0x180 }
  - { offsetInCU: 0x1723A, offset: 0x135B91, size: 0x8, addend: 0x0, symName: '__ZN4core3ptr64drop_in_place$LT$alloc..boxed..Box$LT$syn..ty..BareFnArg$GT$$GT$17hc6fd980ef480b95dE', symObjAddr: 0x6110, symBinAddr: 0x3B050, symSize: 0x160 }
  - { offsetInCU: 0x177D0, offset: 0x136127, size: 0x8, addend: 0x0, symName: '__ZN4core3ptr65drop_in_place$LT$alloc..vec..Vec$LT$proc_macro..TokenTree$GT$$GT$17h4c6fdabd28fc3216E', symObjAddr: 0x6270, symBinAddr: 0x3B1B0, symSize: 0x110 }
  - { offsetInCU: 0x17BC8, offset: 0x13651F, size: 0x8, addend: 0x0, symName: '__ZN4core3ptr65drop_in_place$LT$core..option..Option$LT$syn..expr..Label$GT$$GT$17h7883508f217ffb0fE', symObjAddr: 0x6380, symBinAddr: 0x3B2C0, symSize: 0x30 }
  - { offsetInCU: 0x17D02, offset: 0x136659, size: 0x8, addend: 0x0, symName: '__ZN4core3ptr66drop_in_place$LT$core..option..Option$LT$syn..ty..Variadic$GT$$GT$17hd6ff1173fba1be01E', symObjAddr: 0x63B0, symBinAddr: 0x3B2F0, symSize: 0xF0 }
  - { offsetInCU: 0x1802C, offset: 0x136983, size: 0x8, addend: 0x0, symName: '__ZN4core3ptr67drop_in_place$LT$alloc..boxed..Box$LT$syn..expr..FieldValue$GT$$GT$17h31cf09f513da42aaE', symObjAddr: 0x64A0, symBinAddr: 0x3B3E0, symSize: 0x160 }
  - { offsetInCU: 0x185C1, offset: 0x136F18, size: 0x8, addend: 0x0, symName: '__ZN4core3ptr68drop_in_place$LT$alloc..boxed..Box$LT$syn..path..PathSegment$GT$$GT$17h32735e8ea349f2d1E', symObjAddr: 0x6600, symBinAddr: 0x3B540, symSize: 0x190 }
  - { offsetInCU: 0x18CCB, offset: 0x137622, size: 0x8, addend: 0x0, symName: '__ZN4core3ptr72drop_in_place$LT$alloc..boxed..Box$LT$syn..path..GenericArgument$GT$$GT$17h375d0c08b19f3433E', symObjAddr: 0x6790, symBinAddr: 0x3B6D0, symSize: 0x120 }
  - { offsetInCU: 0x19143, offset: 0x137A9A, size: 0x8, addend: 0x0, symName: '__ZN4core3ptr72drop_in_place$LT$core..option..Option$LT$syn..lifetime..Lifetime$GT$$GT$17hd295f5e840a020ccE', symObjAddr: 0x68B0, symBinAddr: 0x3B7F0, symSize: 0x30 }
  - { offsetInCU: 0x1925E, offset: 0x137BB5, size: 0x8, addend: 0x0, symName: '__ZN4core3ptr75drop_in_place$LT$alloc..boxed..Box$LT$syn..generics..TypeParamBound$GT$$GT$17h7c1afe98f7f6f16aE', symObjAddr: 0x68E0, symBinAddr: 0x3B820, symSize: 0x90 }
  - { offsetInCU: 0x19521, offset: 0x137E78, size: 0x8, addend: 0x0, symName: '__ZN4core3ptr78drop_in_place$LT$alloc..boxed..Box$LT$syn..expr..GenericMethodArgument$GT$$GT$17h55a4260f78553f71E', symObjAddr: 0x6970, symBinAddr: 0x3B8B0, symSize: 0x60 }
  - { offsetInCU: 0x19713, offset: 0x13806A, size: 0x8, addend: 0x0, symName: '__ZN4core3ptr78drop_in_place$LT$core..option..Option$LT$syn..generics..BoundLifetimes$GT$$GT$17haf03396f7774368eE', symObjAddr: 0x69D0, symBinAddr: 0x3B910, symSize: 0x90 }
  - { offsetInCU: 0x19A01, offset: 0x138358, size: 0x8, addend: 0x0, symName: '__ZN4core3ptr86drop_in_place$LT$syn..punctuated..Punctuated$LT$syn..pat..Pat$C$syn..token..Or$GT$$GT$17hbb2b6b72e812801eE', symObjAddr: 0x6A60, symBinAddr: 0x3B9A0, symSize: 0x120 }
  - { offsetInCU: 0x19E7C, offset: 0x1387D3, size: 0x8, addend: 0x0, symName: '__ZN4core3ptr87drop_in_place$LT$core..option..Option$LT$alloc..boxed..Box$LT$syn..pat..Pat$GT$$GT$$GT$17hcfd4919c66658841E', symObjAddr: 0x6B80, symBinAddr: 0x3BAC0, symSize: 0x50 }
  - { offsetInCU: 0x19FEC, offset: 0x138943, size: 0x8, addend: 0x0, symName: '__ZN4core3ptr87drop_in_place$LT$core..option..Option$LT$alloc..boxed..Box$LT$syn..ty..Type$GT$$GT$$GT$17hb89ed7b1d392328bE', symObjAddr: 0x6BD0, symBinAddr: 0x3BB10, symSize: 0x50 }
  - { offsetInCU: 0x1A15C, offset: 0x138AB3, size: 0x8, addend: 0x0, symName: '__ZN4core3ptr89drop_in_place$LT$core..option..Option$LT$alloc..boxed..Box$LT$syn..expr..Expr$GT$$GT$$GT$17hb6243efdcf519f03E', symObjAddr: 0x6C20, symBinAddr: 0x3BB60, symSize: 0x50 }
  - { offsetInCU: 0x1A30A, offset: 0x138C61, size: 0x8, addend: 0x0, symName: '__ZN4core3ptr89drop_in_place$LT$syn..punctuated..Punctuated$LT$syn..pat..Pat$C$syn..token..Comma$GT$$GT$17h1055c4b414ae37a9E', symObjAddr: 0x6C70, symBinAddr: 0x3BBB0, symSize: 0x120 }
  - { offsetInCU: 0x1A79C, offset: 0x1390F3, size: 0x8, addend: 0x0, symName: '__ZN4core3ptr89drop_in_place$LT$syn..punctuated..Punctuated$LT$syn..ty..Type$C$syn..token..Comma$GT$$GT$17h72d99448207a7e07E', symObjAddr: 0x6D90, symBinAddr: 0x3BCD0, symSize: 0x120 }
  - { offsetInCU: 0x1AC55, offset: 0x1395AC, size: 0x8, addend: 0x0, symName: '__ZN4core3ptr91drop_in_place$LT$syn..punctuated..Punctuated$LT$syn..expr..Expr$C$syn..token..Comma$GT$$GT$17hf148654d6f6c8948E', symObjAddr: 0x6EB0, symBinAddr: 0x3BDF0, symSize: 0x120 }
  - { offsetInCU: 0x1B0E3, offset: 0x139A3A, size: 0x8, addend: 0x0, symName: '__ZN4core3ptr94drop_in_place$LT$syn..punctuated..Punctuated$LT$syn..pat..FieldPat$C$syn..token..Comma$GT$$GT$17h611ffe8d66e43618E', symObjAddr: 0x6FD0, symBinAddr: 0x3BF10, symSize: 0xF0 }
  - { offsetInCU: 0x1B3E2, offset: 0x139D39, size: 0x8, addend: 0x0, symName: '__ZN4core3ptr94drop_in_place$LT$syn..punctuated..Punctuated$LT$syn..ty..BareFnArg$C$syn..token..Comma$GT$$GT$17h2613c88a3dcf4e8bE', symObjAddr: 0x70C0, symBinAddr: 0x3C000, symSize: 0x90 }
  - { offsetInCU: 0x1B652, offset: 0x139FA9, size: 0x8, addend: 0x0, symName: '__ZN4core3ptr96drop_in_place$LT$core..option..Option$LT$alloc..boxed..Box$LT$syn..path..PathSegment$GT$$GT$$GT$17hf79dec3399db1c31E', symObjAddr: 0x7150, symBinAddr: 0x3C090, symSize: 0x180 }
  - { offsetInCU: 0x1BD0F, offset: 0x13A666, size: 0x8, addend: 0x0, symName: '__ZN4core3ptr97drop_in_place$LT$syn..punctuated..Punctuated$LT$syn..expr..FieldValue$C$syn..token..Comma$GT$$GT$17hde8846b572708e4cE', symObjAddr: 0x72D0, symBinAddr: 0x3C210, symSize: 0xF0 }
  - { offsetInCU: 0x1C088, offset: 0x13A9DF, size: 0x8, addend: 0x0, symName: '__ZN4core3ptr97drop_in_place$LT$syn..punctuated..Punctuated$LT$syn..lifetime..Lifetime$C$syn..token..Add$GT$$GT$17ha261eddfb5dc9f8cE', symObjAddr: 0x73C0, symBinAddr: 0x3C300, symSize: 0xD0 }
  - { offsetInCU: 0x1C4FC, offset: 0x13AE53, size: 0x8, addend: 0x0, symName: '__ZN4core3ptr99drop_in_place$LT$syn..punctuated..Punctuated$LT$syn..path..PathSegment$C$syn..token..Colon2$GT$$GT$17h478772ddb14ca2b7E', symObjAddr: 0x7490, symBinAddr: 0x3C3D0, symSize: 0x24A }
  - { offsetInCU: 0x25E67, offset: 0x1447BE, size: 0x8, addend: 0x0, symName: __ZN3syn5parse6Parser9parse_str17h20bd8b58d54efc83E, symObjAddr: 0x0, symBinAddr: 0x34F40, symSize: 0x3F0 }
  - { offsetInCU: 0x35, offset: 0x148808, size: 0x8, addend: 0x0, symName: _anon.d931e6e152c1882a2a628846a660cba2.0.llvm.15643988061920822582, symObjAddr: 0x820, symBinAddr: 0x234610, symSize: 0x0 }
  - { offsetInCU: 0x157, offset: 0x14892A, size: 0x8, addend: 0x0, symName: '__ZN58_$LT$alloc..string..String$u20$as$u20$core..fmt..Write$GT$10write_char17h04bc467bd68a934bE.llvm.15643988061920822582', symObjAddr: 0x620, symBinAddr: 0x3C7E0, symSize: 0x140 }
  - { offsetInCU: 0x55E, offset: 0x148D31, size: 0x8, addend: 0x0, symName: '__ZN58_$LT$alloc..string..String$u20$as$u20$core..fmt..Write$GT$9write_str17h46a93205c3443fbaE.llvm.15643988061920822582', symObjAddr: 0x760, symBinAddr: 0x3C920, symSize: 0x5B }
  - { offsetInCU: 0xDD4, offset: 0x1495A7, size: 0x8, addend: 0x0, symName: '__ZN4core3ptr42drop_in_place$LT$alloc..string..String$GT$17h3f12b5ab4ebb2beeE.llvm.15643988061920822582', symObjAddr: 0x5E0, symBinAddr: 0x3C7A0, symSize: 0x20 }
  - { offsetInCU: 0xFC7, offset: 0x14979A, size: 0x8, addend: 0x0, symName: '__ZN53_$LT$core..fmt..Error$u20$as$u20$core..fmt..Debug$GT$3fmt17h03dc662ab152f3aeE.llvm.15643988061920822582', symObjAddr: 0x600, symBinAddr: 0x3C7C0, symSize: 0x20 }
  - { offsetInCU: 0x10A1, offset: 0x149874, size: 0x8, addend: 0x0, symName: '__ZN102_$LT$core..iter..adapters..map..Map$LT$I$C$F$GT$$u20$as$u20$core..iter..traits..iterator..Iterator$GT$4fold17h9a3efb8c8fc6a0b1E', symObjAddr: 0x460, symBinAddr: 0x3C620, symSize: 0x180 }
  - { offsetInCU: 0x1A80, offset: 0x14A253, size: 0x8, addend: 0x0, symName: _anon.d931e6e152c1882a2a628846a660cba2.4.llvm.15643988061920822582, symObjAddr: 0x868, symBinAddr: 0x234658, symSize: 0x0 }
  - { offsetInCU: 0x1E, offset: 0x14AF2B, size: 0x8, addend: 0x0, symName: __ZN5alloc3str17join_generic_copy17h609f3abf12c0ddb5E, symObjAddr: 0x0, symBinAddr: 0x3C980, symSize: 0x468 }
  - { offsetInCU: 0x18F8, offset: 0x14C805, size: 0x8, addend: 0x0, symName: __ZN5alloc3str17join_generic_copy17h609f3abf12c0ddb5E, symObjAddr: 0x0, symBinAddr: 0x3C980, symSize: 0x468 }
  - { offsetInCU: 0x5E0, offset: 0x14F697, size: 0x8, addend: 0x0, symName: '__ZN4core3ptr49drop_in_place$LT$ark_ff_asm..context..Context$GT$17hf9928b154fe3694fE', symObjAddr: 0x20, symBinAddr: 0x3CDF0, symSize: 0xC0 }
  - { offsetInCU: 0xAFC, offset: 0x14FBB3, size: 0x8, addend: 0x0, symName: '__ZN4core3ptr63drop_in_place$LT$$u5b$alloc..string..String$u3b$$u20$8$u5d$$GT$17h93956e67a073dfc0E', symObjAddr: 0xE0, symBinAddr: 0x3CEB0, symSize: 0xE0 }
  - { offsetInCU: 0xC07, offset: 0x14FCBE, size: 0x8, addend: 0x0, symName: '__ZN4core3ptr65drop_in_place$LT$alloc..vec..Vec$LT$alloc..string..String$GT$$GT$17h2f82d59515095094E', symObjAddr: 0x1C0, symBinAddr: 0x3CF90, symSize: 0x90 }
  - { offsetInCU: 0x248F, offset: 0x151546, size: 0x8, addend: 0x0, symName: __ZN10ark_ff_asm7context7Context7add_asm17hb2c862ad43e433c2E, symObjAddr: 0x490, symBinAddr: 0x3D020, symSize: 0x140 }
  - { offsetInCU: 0x2B73, offset: 0x151C2A, size: 0x8, addend: 0x0, symName: __ZN10ark_ff_asm7context7Context5build17h00cbd61f6a61c85aE, symObjAddr: 0x720, symBinAddr: 0x3D160, symSize: 0x715 }
  - { offsetInCU: 0x7AF, offset: 0x155630, size: 0x8, addend: 0x0, symName: '__ZN68_$LT$$RF$str$u20$as$u20$proc_macro..bridge..rpc..Encode$LT$S$GT$$GT$6encode17haae64f089b9be55dE', symObjAddr: 0x80, symBinAddr: 0x3D880, symSize: 0x230 }
  - { offsetInCU: 0x1E, offset: 0x155C8D, size: 0x8, addend: 0x0, symName: '__ZN44_$LT$$RF$T$u20$as$u20$core..fmt..Display$GT$3fmt17hdfb37ce5f224712cE', symObjAddr: 0x0, symBinAddr: 0x3DAB0, symSize: 0x20 }
  - { offsetInCU: 0xC8, offset: 0x155D37, size: 0x8, addend: 0x0, symName: '__ZN58_$LT$alloc..string..String$u20$as$u20$core..fmt..Write$GT$10write_char17h04bc467bd68a934bE', symObjAddr: 0x60, symBinAddr: 0x3DB10, symSize: 0x140 }
  - { offsetInCU: 0x4CD, offset: 0x15613C, size: 0x8, addend: 0x0, symName: '__ZN58_$LT$alloc..string..String$u20$as$u20$core..fmt..Write$GT$9write_str17h46a93205c3443fbaE', symObjAddr: 0x1A0, symBinAddr: 0x3DC50, symSize: 0x5B }
  - { offsetInCU: 0xAF1, offset: 0x156760, size: 0x8, addend: 0x0, symName: '__ZN4core3ptr42drop_in_place$LT$alloc..string..String$GT$17h3f12b5ab4ebb2beeE', symObjAddr: 0x40, symBinAddr: 0x3DAF0, symSize: 0x20 }
  - { offsetInCU: 0xE93, offset: 0x156B02, size: 0x8, addend: 0x0, symName: '__ZN44_$LT$$RF$T$u20$as$u20$core..fmt..Display$GT$3fmt17hdfb37ce5f224712cE', symObjAddr: 0x0, symBinAddr: 0x3DAB0, symSize: 0x20 }
  - { offsetInCU: 0xF48, offset: 0x156BB7, size: 0x8, addend: 0x0, symName: __ZN4core3fmt5Write9write_fmt17hc7362ea45e29ed86E, symObjAddr: 0x20, symBinAddr: 0x3DAD0, symSize: 0x20 }
  - { offsetInCU: 0x1E, offset: 0x15762D, size: 0x8, addend: 0x0, symName: __ZN3syn5error5Error3new17h17e379e035b5d04dE, symObjAddr: 0x0, symBinAddr: 0x3DCB0, symSize: 0x100 }
  - { offsetInCU: 0x35, offset: 0x157644, size: 0x8, addend: 0x0, symName: _anon.55e0c945c6b2d7a9893dcbc33224de7e.0.llvm.13081192494499368082, symObjAddr: 0x410, symBinAddr: 0x234770, symSize: 0x0 }
  - { offsetInCU: 0x19C, offset: 0x1577AB, size: 0x8, addend: 0x0, symName: '__ZN58_$LT$alloc..string..String$u20$as$u20$core..fmt..Write$GT$10write_char17h04bc467bd68a934bE.llvm.13081192494499368082', symObjAddr: 0x230, symBinAddr: 0x3DEE0, symSize: 0x140 }
  - { offsetInCU: 0x5A1, offset: 0x157BB0, size: 0x8, addend: 0x0, symName: '__ZN58_$LT$alloc..string..String$u20$as$u20$core..fmt..Write$GT$9write_str17h46a93205c3443fbaE.llvm.13081192494499368082', symObjAddr: 0x370, symBinAddr: 0x3E020, symSize: 0x5B }
  - { offsetInCU: 0xD19, offset: 0x158328, size: 0x8, addend: 0x0, symName: '__ZN4core3ptr42drop_in_place$LT$alloc..string..String$GT$17h3f12b5ab4ebb2beeE.llvm.13081192494499368082', symObjAddr: 0x1F0, symBinAddr: 0x3DEA0, symSize: 0x20 }
  - { offsetInCU: 0xFA9, offset: 0x1585B8, size: 0x8, addend: 0x0, symName: '__ZN53_$LT$core..fmt..Error$u20$as$u20$core..fmt..Debug$GT$3fmt17h03dc662ab152f3aeE.llvm.13081192494499368082', symObjAddr: 0x210, symBinAddr: 0x3DEC0, symSize: 0x20 }
  - { offsetInCU: 0x146F, offset: 0x158A7E, size: 0x8, addend: 0x0, symName: _anon.55e0c945c6b2d7a9893dcbc33224de7e.4.llvm.13081192494499368082, symObjAddr: 0x458, symBinAddr: 0x2347B8, symSize: 0x0 }
  - { offsetInCU: 0x17F9, offset: 0x158E08, size: 0x8, addend: 0x0, symName: __ZN3syn5error5Error3new17h17e379e035b5d04dE, symObjAddr: 0x0, symBinAddr: 0x3DCB0, symSize: 0x100 }
  - { offsetInCU: 0x1A14, offset: 0x159023, size: 0x8, addend: 0x0, symName: __ZN3syn5error5Error3new17h8ce36ed3919b754cE, symObjAddr: 0x100, symBinAddr: 0x3DDB0, symSize: 0xF0 }
  - { offsetInCU: 0x491, offset: 0x159BF3, size: 0x8, addend: 0x0, symName: __ZN10proc_macro6bridge6client10run_client17h06c919386d5fac66E, symObjAddr: 0x190, symBinAddr: 0x3E080, symSize: 0x2E0 }
  - { offsetInCU: 0xB6B, offset: 0x15A2CD, size: 0x8, addend: 0x0, symName: __ZN10proc_macro6bridge6client10run_client17he69e9423bdd9ded5E, symObjAddr: 0x470, symBinAddr: 0x3E360, symSize: 0x2DB }
  - { offsetInCU: 0x1E, offset: 0x15C15E, size: 0x8, addend: 0x0, symName: '__ZN44_$LT$$RF$T$u20$as$u20$core..fmt..Display$GT$3fmt17h339454fce81c91ffE', symObjAddr: 0x0, symBinAddr: 0x3E640, symSize: 0x70 }
  - { offsetInCU: 0x2E2, offset: 0x15C422, size: 0x8, addend: 0x0, symName: '__ZN44_$LT$$RF$T$u20$as$u20$core..fmt..Display$GT$3fmt17h339454fce81c91ffE', symObjAddr: 0x0, symBinAddr: 0x3E640, symSize: 0x70 }
  - { offsetInCU: 0x3B3, offset: 0x15C4F3, size: 0x8, addend: 0x0, symName: '__ZN44_$LT$$RF$T$u20$as$u20$core..fmt..Display$GT$3fmt17h914e42e1c59873d0E', symObjAddr: 0x70, symBinAddr: 0x3E6B0, symSize: 0x60 }
  - { offsetInCU: 0x1E, offset: 0x15CDC2, size: 0x8, addend: 0x0, symName: '__ZN4core3ptr73drop_in_place$LT$core..cell..UnsafeCell$LT$syn..parse..Unexpected$GT$$GT$17h635b9e05d27e83b3E.llvm.7595550805470120627', symObjAddr: 0x0, symBinAddr: 0x3E710, symSize: 0x50 }
  - { offsetInCU: 0xB5F, offset: 0x15D903, size: 0x8, addend: 0x0, symName: '__ZN4core3ptr73drop_in_place$LT$core..cell..UnsafeCell$LT$syn..parse..Unexpected$GT$$GT$17h635b9e05d27e83b3E.llvm.7595550805470120627', symObjAddr: 0x0, symBinAddr: 0x3E710, symSize: 0x50 }
  - { offsetInCU: 0x1468, offset: 0x15E20C, size: 0x8, addend: 0x0, symName: '__ZN68_$LT$alloc..rc..Rc$LT$T$C$A$GT$$u20$as$u20$core..ops..drop..Drop$GT$4drop17h0833e5150433cd97E', symObjAddr: 0x50, symBinAddr: 0x3E760, symSize: 0x40 }
  - { offsetInCU: 0x16DC, offset: 0x15E480, size: 0x8, addend: 0x0, symName: '__ZN68_$LT$alloc..rc..Rc$LT$T$C$A$GT$$u20$as$u20$core..ops..drop..Drop$GT$4drop17hcb40efc88a1d1ce8E', symObjAddr: 0x90, symBinAddr: 0x3E7A0, symSize: 0xDE }
  - { offsetInCU: 0x1E, offset: 0x15F319, size: 0x8, addend: 0x0, symName: __ZN3std9panicking11begin_panic17hcb162aec45792873E, symObjAddr: 0x0, symBinAddr: 0x1D5620, symSize: 0x20 }
  - { offsetInCU: 0x7A7, offset: 0x15FAA2, size: 0x8, addend: 0x0, symName: __ZN3std9panicking11begin_panic17hcb162aec45792873E, symObjAddr: 0x0, symBinAddr: 0x1D5620, symSize: 0x20 }
  - { offsetInCU: 0x803, offset: 0x15FAFE, size: 0x8, addend: 0x0, symName: '__ZN84_$LT$std..panicking..begin_panic..Payload$LT$A$GT$$u20$as$u20$core..fmt..Display$GT$3fmt17h16590a0241df5877E', symObjAddr: 0x20, symBinAddr: 0x3E880, symSize: 0x40 }
  - { offsetInCU: 0x870, offset: 0x15FB6B, size: 0x8, addend: 0x0, symName: '__ZN91_$LT$std..panicking..begin_panic..Payload$LT$A$GT$$u20$as$u20$core..panic..PanicPayload$GT$3get17h2a5ffbbb3e96f992E', symObjAddr: 0x60, symBinAddr: 0x3E8C0, symSize: 0x20 }
  - { offsetInCU: 0x8A8, offset: 0x15FBA3, size: 0x8, addend: 0x0, symName: '__ZN91_$LT$std..panicking..begin_panic..Payload$LT$A$GT$$u20$as$u20$core..panic..PanicPayload$GT$8take_box17h96fcbe445fa6b206E', symObjAddr: 0x80, symBinAddr: 0x3E8E0, symSize: 0x5F }
  - { offsetInCU: 0x1E, offset: 0x1600F4, size: 0x8, addend: 0x0, symName: '__ZN10proc_macro6bridge104_$LT$impl$u20$proc_macro..bridge..rpc..Encode$LT$S$GT$$u20$for$u20$core..result..Result$LT$T$C$E$GT$$GT$6encode17ha46857b7f38b2dcbE', symObjAddr: 0x0, symBinAddr: 0x3E940, symSize: 0x280 }
  - { offsetInCU: 0x170, offset: 0x160246, size: 0x8, addend: 0x0, symName: '__ZN10proc_macro6bridge104_$LT$impl$u20$proc_macro..bridge..rpc..Encode$LT$S$GT$$u20$for$u20$core..result..Result$LT$T$C$E$GT$$GT$6encode17ha46857b7f38b2dcbE', symObjAddr: 0x0, symBinAddr: 0x3E940, symSize: 0x280 }
  - { offsetInCU: 0x4FE, offset: 0x1605D4, size: 0x8, addend: 0x0, symName: '__ZN10proc_macro6bridge104_$LT$impl$u20$proc_macro..bridge..rpc..Encode$LT$S$GT$$u20$for$u20$core..result..Result$LT$T$C$E$GT$$GT$6encode17he74310c02949d974E', symObjAddr: 0x280, symBinAddr: 0x3EBC0, symSize: 0x300 }
  - { offsetInCU: 0x1E, offset: 0x161377, size: 0x8, addend: 0x0, symName: '__ZN10proc_macro6bridge100_$LT$impl$u20$proc_macro..bridge..rpc..Encode$LT$S$GT$$u20$for$u20$core..option..Option$LT$T$GT$$GT$6encode17hd68bb00fc131ab09E', symObjAddr: 0x0, symBinAddr: 0x3EEC0, symSize: 0x240 }
  - { offsetInCU: 0x354, offset: 0x1616AD, size: 0x8, addend: 0x0, symName: '__ZN10proc_macro6bridge100_$LT$impl$u20$proc_macro..bridge..rpc..Encode$LT$S$GT$$u20$for$u20$core..option..Option$LT$T$GT$$GT$6encode17hd68bb00fc131ab09E', symObjAddr: 0x0, symBinAddr: 0x3EEC0, symSize: 0x240 }
  - { offsetInCU: 0x6DA, offset: 0x161A33, size: 0x8, addend: 0x0, symName: '__ZN10proc_macro6bridge100_$LT$impl$u20$proc_macro..bridge..rpc..Encode$LT$S$GT$$u20$for$u20$core..option..Option$LT$T$GT$$GT$6encode17hf6fd1933bd5d7d9bE', symObjAddr: 0x240, symBinAddr: 0x3F100, symSize: 0x345 }
  - { offsetInCU: 0x1E, offset: 0x162447, size: 0x8, addend: 0x0, symName: __ZN10proc_macro6bridge14selfless_reify31reify_to_extern_c_fn_hrt_bridge7wrapper17h8ccee9d0001b067dE, symObjAddr: 0x0, symBinAddr: 0x3F450, symSize: 0x30 }
  - { offsetInCU: 0x1CF, offset: 0x1625F8, size: 0x8, addend: 0x0, symName: __ZN10proc_macro6bridge14selfless_reify31reify_to_extern_c_fn_hrt_bridge7wrapper17h8ccee9d0001b067dE, symObjAddr: 0x0, symBinAddr: 0x3F450, symSize: 0x30 }
  - { offsetInCU: 0x248, offset: 0x162671, size: 0x8, addend: 0x0, symName: __ZN10proc_macro6bridge14selfless_reify31reify_to_extern_c_fn_hrt_bridge7wrapper17hf802cb2dc0e616d2E, symObjAddr: 0x30, symBinAddr: 0x3F480, symSize: 0x25 }
  - { offsetInCU: 0x1E, offset: 0x1628C7, size: 0x8, addend: 0x0, symName: '__ZN44_$LT$$RF$T$u20$as$u20$core..fmt..Display$GT$3fmt17hf9d2660410f153e9E', symObjAddr: 0x0, symBinAddr: 0x3F4B0, symSize: 0x17 }
  - { offsetInCU: 0x64, offset: 0x16290D, size: 0x8, addend: 0x0, symName: '__ZN44_$LT$$RF$T$u20$as$u20$core..fmt..Display$GT$3fmt17hf9d2660410f153e9E', symObjAddr: 0x0, symBinAddr: 0x3F4B0, symSize: 0x17 }
  - { offsetInCU: 0x1E, offset: 0x162B77, size: 0x8, addend: 0x0, symName: '__ZN77_$LT$$LP$A$C$B$RP$$u20$as$u20$proc_macro..bridge..rpc..DecodeMut$LT$S$GT$$GT$6decode17he9455fddbdb91424E', symObjAddr: 0x0, symBinAddr: 0x3F4D0, symSize: 0xCA }
  - { offsetInCU: 0xB4, offset: 0x162C0D, size: 0x8, addend: 0x0, symName: '__ZN77_$LT$$LP$A$C$B$RP$$u20$as$u20$proc_macro..bridge..rpc..DecodeMut$LT$S$GT$$GT$6decode17he9455fddbdb91424E', symObjAddr: 0x0, symBinAddr: 0x3F4D0, symSize: 0xCA }
  - { offsetInCU: 0x1E, offset: 0x163E79, size: 0x8, addend: 0x0, symName: __ZN3std3sys9backtrace26__rust_end_short_backtrace17hf11671710780318cE, symObjAddr: 0x0, symBinAddr: 0x3F5A0, symSize: 0x10 }
  - { offsetInCU: 0x66, offset: 0x163EC1, size: 0x8, addend: 0x0, symName: '__ZN3std9panicking11begin_panic28_$u7b$$u7b$closure$u7d$$u7d$17h9922a52bc0ccdcc1E', symObjAddr: 0x10, symBinAddr: 0x3F5B0, symSize: 0x40 }
  - { offsetInCU: 0xD7, offset: 0x163F32, size: 0x8, addend: 0x0, symName: __ZN3std3sys9backtrace26__rust_end_short_backtrace17hf11671710780318cE, symObjAddr: 0x0, symBinAddr: 0x3F5A0, symSize: 0x10 }
  - { offsetInCU: 0x1BA, offset: 0x164015, size: 0x8, addend: 0x0, symName: __ZN4core5panic12PanicPayload6as_str17haca2a4bd985a436dE, symObjAddr: 0x50, symBinAddr: 0x3F5F0, symSize: 0x8 }
  - { offsetInCU: 0x1E, offset: 0x1640CA, size: 0x8, addend: 0x0, symName: '__ZN36_$LT$T$u20$as$u20$core..any..Any$GT$7type_id17h3451cba0f0ad2d2cE', symObjAddr: 0x0, symBinAddr: 0x3F600, symSize: 0x1A }
  - { offsetInCU: 0x3A, offset: 0x1640E6, size: 0x8, addend: 0x0, symName: '__ZN36_$LT$T$u20$as$u20$core..any..Any$GT$7type_id17h3451cba0f0ad2d2cE', symObjAddr: 0x0, symBinAddr: 0x3F600, symSize: 0x1A }
  - { offsetInCU: 0xB2, offset: 0x16424C, size: 0x8, addend: 0x0, symName: '__ZN58_$LT$alloc..string..String$u20$as$u20$core..fmt..Write$GT$10write_char17h04bc467bd68a934bE', symObjAddr: 0xC7F0, symBinAddr: 0x4B880, symSize: 0x140 }
  - { offsetInCU: 0x4B7, offset: 0x164651, size: 0x8, addend: 0x0, symName: '__ZN58_$LT$alloc..string..String$u20$as$u20$core..fmt..Write$GT$9write_str17h46a93205c3443fbaE', symObjAddr: 0xC930, symBinAddr: 0x4B9C0, symSize: 0x60 }
  - { offsetInCU: 0x5011, offset: 0x1691AB, size: 0x8, addend: 0x0, symName: '__ZN4core3ptr100drop_in_place$LT$$LP$syn..data..Visibility$C$core..option..Option$LT$syn..token..Default$GT$$RP$$GT$17hf4681ce2d035d32cE', symObjAddr: 0x5B0, symBinAddr: 0x3F990, symSize: 0x60 }
  - { offsetInCU: 0x51AF, offset: 0x169349, size: 0x8, addend: 0x0, symName: '__ZN4core3ptr100drop_in_place$LT$core..option..Option$LT$alloc..boxed..Box$LT$syn..generics..LifetimeDef$GT$$GT$$GT$17h75a6086997697dd7E', symObjAddr: 0x610, symBinAddr: 0x3F9F0, symSize: 0x50 }
  - { offsetInCU: 0x5331, offset: 0x1694CB, size: 0x8, addend: 0x0, symName: '__ZN4core3ptr100drop_in_place$LT$core..option..Option$LT$alloc..boxed..Box$LT$syn..path..GenericArgument$GT$$GT$$GT$17h3d29ec00a8f1918dE', symObjAddr: 0x660, symBinAddr: 0x3FA40, symSize: 0x50 }
  - { offsetInCU: 0x5599, offset: 0x169733, size: 0x8, addend: 0x0, symName: '__ZN4core3ptr101drop_in_place$LT$core..option..Option$LT$alloc..boxed..Box$LT$syn..generics..GenericParam$GT$$GT$$GT$17h1fee4f1c7bd902c4E', symObjAddr: 0x6B0, symBinAddr: 0x3FA90, symSize: 0x310 }
  - { offsetInCU: 0x5F96, offset: 0x16A130, size: 0x8, addend: 0x0, symName: '__ZN4core3ptr103drop_in_place$LT$core..option..Option$LT$alloc..boxed..Box$LT$syn..generics..TypeParamBound$GT$$GT$$GT$17h6cee73bc2b2ecea8E', symObjAddr: 0x9C0, symBinAddr: 0x3FDA0, symSize: 0x90 }
  - { offsetInCU: 0x62CD, offset: 0x16A467, size: 0x8, addend: 0x0, symName: '__ZN4core3ptr103drop_in_place$LT$core..option..Option$LT$alloc..boxed..Box$LT$syn..generics..WherePredicate$GT$$GT$$GT$17headad361972eced7E', symObjAddr: 0xA50, symBinAddr: 0x3FE30, symSize: 0x120 }
  - { offsetInCU: 0x65E7, offset: 0x16A781, size: 0x8, addend: 0x0, symName: '__ZN4core3ptr103drop_in_place$LT$syn..punctuated..Punctuated$LT$syn..generics..GenericParam$C$syn..token..Comma$GT$$GT$17hae00367f0c570156E', symObjAddr: 0xB70, symBinAddr: 0x3FF50, symSize: 0x70 }
  - { offsetInCU: 0x6902, offset: 0x16AA9C, size: 0x8, addend: 0x0, symName: '__ZN4core3ptr103drop_in_place$LT$syn..punctuated..Punctuated$LT$syn..generics..TypeParamBound$C$syn..token..Add$GT$$GT$17he811d520c92af08aE', symObjAddr: 0xBE0, symBinAddr: 0x3FFC0, symSize: 0x1C0 }
  - { offsetInCU: 0x7153, offset: 0x16B2ED, size: 0x8, addend: 0x0, symName: '__ZN4core3ptr108drop_in_place$LT$syn..punctuated..Punctuated$LT$syn..expr..GenericMethodArgument$C$syn..token..Comma$GT$$GT$17h92cbabe4862b2183E', symObjAddr: 0xDA0, symBinAddr: 0x40180, symSize: 0x150 }
  - { offsetInCU: 0x764F, offset: 0x16B7E9, size: 0x8, addend: 0x0, symName: '__ZN4core3ptr115drop_in_place$LT$core..option..Option$LT$$LP$syn..token..Brace$C$alloc..vec..Vec$LT$syn..item..Item$GT$$RP$$GT$$GT$17hab9d60ee568bdf60E', symObjAddr: 0xEF0, symBinAddr: 0x402D0, symSize: 0xD0 }
  - { offsetInCU: 0x7966, offset: 0x16BB00, size: 0x8, addend: 0x0, symName: '__ZN4core3ptr126drop_in_place$LT$core..option..Option$LT$$LP$syn..token..And$C$core..option..Option$LT$syn..lifetime..Lifetime$GT$$RP$$GT$$GT$17h5979d670cb45416cE', symObjAddr: 0xFC0, symBinAddr: 0x403A0, symSize: 0x30 }
  - { offsetInCU: 0x7C14, offset: 0x16BDAE, size: 0x8, addend: 0x0, symName: '__ZN4core3ptr34drop_in_place$LT$syn..lit..Lit$GT$17hbe1efe749a08dd9aE', symObjAddr: 0x1070, symBinAddr: 0x403D0, symSize: 0x110 }
  - { offsetInCU: 0x8067, offset: 0x16C201, size: 0x8, addend: 0x0, symName: '__ZN4core3ptr34drop_in_place$LT$syn..pat..Pat$GT$17h3201f642e43ac2a2E', symObjAddr: 0x1180, symBinAddr: 0x404E0, symSize: 0xFA0 }
  - { offsetInCU: 0xB61C, offset: 0x16F7B6, size: 0x8, addend: 0x0, symName: '__ZN4core3ptr34drop_in_place$LT$syn..ty..Type$GT$17hfb5d159a08190130E', symObjAddr: 0x2120, symBinAddr: 0x41480, symSize: 0x4B0 }
  - { offsetInCU: 0xCC53, offset: 0x170DED, size: 0x8, addend: 0x0, symName: '__ZN4core3ptr36drop_in_place$LT$syn..expr..Expr$GT$17hf1921d1b09462bc3E', symObjAddr: 0x25D0, symBinAddr: 0x41930, symSize: 0x3110 }
  - { offsetInCU: 0x16EDA, offset: 0x17B074, size: 0x8, addend: 0x0, symName: '__ZN4core3ptr36drop_in_place$LT$syn..item..Item$GT$17hf1fe4e69bb0a9b43E', symObjAddr: 0x56E0, symBinAddr: 0x44A40, symSize: 0x120 }
  - { offsetInCU: 0x16F29, offset: 0x17B0C3, size: 0x8, addend: 0x0, symName: '__ZN4core3ptr36drop_in_place$LT$syn..mac..Macro$GT$17h205613d7ad575f72E', symObjAddr: 0x5800, symBinAddr: 0x44B60, symSize: 0x100 }
  - { offsetInCU: 0x17351, offset: 0x17B4EB, size: 0x8, addend: 0x0, symName: '__ZN4core3ptr36drop_in_place$LT$syn..path..Path$GT$17he6d0bec66d66b98aE', symObjAddr: 0x5900, symBinAddr: 0x44C60, symSize: 0x230 }
  - { offsetInCU: 0x17CE7, offset: 0x17BE81, size: 0x8, addend: 0x0, symName: '__ZN4core3ptr37drop_in_place$LT$syn..stmt..Block$GT$17h3aa429e75a234230E', symObjAddr: 0x5B30, symBinAddr: 0x44E90, symSize: 0xD0 }
  - { offsetInCU: 0x18059, offset: 0x17C1F3, size: 0x8, addend: 0x0, symName: '__ZN4core3ptr38drop_in_place$LT$syn..data..Fields$GT$17h0c48fa2402a42137E', symObjAddr: 0x5C00, symBinAddr: 0x44F60, symSize: 0x180 }
  - { offsetInCU: 0x1849F, offset: 0x17C639, size: 0x8, addend: 0x0, symName: '__ZN4core3ptr38drop_in_place$LT$syn..expr..Member$GT$17ha113d37a67d27aafE', symObjAddr: 0x5D80, symBinAddr: 0x450E0, symSize: 0x30 }
  - { offsetInCU: 0x185BA, offset: 0x17C754, size: 0x8, addend: 0x0, symName: '__ZN4core3ptr38drop_in_place$LT$syn..item..ItemFn$GT$17h92bc8390e1d02672E', symObjAddr: 0x5DB0, symBinAddr: 0x45110, symSize: 0x230 }
  - { offsetInCU: 0x18E5A, offset: 0x17CFF4, size: 0x8, addend: 0x0, symName: '__ZN4core3ptr38drop_in_place$LT$syn..pat..PatType$GT$17h833e3c7992399b01E.llvm.2762174853176263616', symObjAddr: 0x5FE0, symBinAddr: 0x45340, symSize: 0x160 }
  - { offsetInCU: 0x19522, offset: 0x17D6BC, size: 0x8, addend: 0x0, symName: '__ZN4core3ptr39drop_in_place$LT$proc_macro2..Group$GT$17ha95b199d42755248E', symObjAddr: 0x6140, symBinAddr: 0x454A0, symSize: 0x60 }
  - { offsetInCU: 0x19681, offset: 0x17D81B, size: 0x8, addend: 0x0, symName: '__ZN4core3ptr39drop_in_place$LT$proc_macro2..Ident$GT$17hdeec010483268a0dE', symObjAddr: 0x61A0, symBinAddr: 0x45500, symSize: 0x30 }
  - { offsetInCU: 0x1977D, offset: 0x17D917, size: 0x8, addend: 0x0, symName: '__ZN4core3ptr39drop_in_place$LT$syn..item..ItemMod$GT$17hd095082f1c98971dE', symObjAddr: 0x61D0, symBinAddr: 0x45530, symSize: 0x210 }
  - { offsetInCU: 0x19FB6, offset: 0x17E150, size: 0x8, addend: 0x0, symName: '__ZN4core3ptr39drop_in_place$LT$syn..item..ItemUse$GT$17hfee3fd59e1327e89E', symObjAddr: 0x63E0, symBinAddr: 0x45740, symSize: 0x150 }
  - { offsetInCU: 0x1A4B7, offset: 0x17E651, size: 0x8, addend: 0x0, symName: '__ZN4core3ptr39drop_in_place$LT$syn..item..UseTree$GT$17h78d4ed19b48b8cbfE', symObjAddr: 0x65A0, symBinAddr: 0x45890, symSize: 0xE0 }
  - { offsetInCU: 0x1A85E, offset: 0x17E9F8, size: 0x8, addend: 0x0, symName: '__ZN4core3ptr39drop_in_place$LT$syn..pat..PatTuple$GT$17h96faeea9832d4c4bE', symObjAddr: 0x6680, symBinAddr: 0x45970, symSize: 0x100 }
  - { offsetInCU: 0x1AB86, offset: 0x17ED20, size: 0x8, addend: 0x0, symName: '__ZN4core3ptr40drop_in_place$LT$syn..item..ImplItem$GT$17hb8d8f44c0f04c0e3E', symObjAddr: 0x6780, symBinAddr: 0x45A70, symSize: 0x1B0 }
  - { offsetInCU: 0x1AF03, offset: 0x17F09D, size: 0x8, addend: 0x0, symName: '__ZN4core3ptr40drop_in_place$LT$syn..item..ItemEnum$GT$17hc99b161df783a633E', symObjAddr: 0x6930, symBinAddr: 0x45C20, symSize: 0x250 }
  - { offsetInCU: 0x1B7D2, offset: 0x17F96C, size: 0x8, addend: 0x0, symName: '__ZN4core3ptr40drop_in_place$LT$syn..item..ItemImpl$GT$17haba540031ec64537E', symObjAddr: 0x6B80, symBinAddr: 0x45E70, symSize: 0x1E0 }
  - { offsetInCU: 0x1BF62, offset: 0x1800FC, size: 0x8, addend: 0x0, symName: '__ZN4core3ptr40drop_in_place$LT$syn..item..ItemType$GT$17hf26044957f69ac44E', symObjAddr: 0x6D60, symBinAddr: 0x46050, symSize: 0x1C0 }
  - { offsetInCU: 0x1C63A, offset: 0x1807D4, size: 0x8, addend: 0x0, symName: '__ZN4core3ptr40drop_in_place$LT$syn..item..Receiver$GT$17hc8a432a931462f79E.llvm.2762174853176263616', symObjAddr: 0x6F20, symBinAddr: 0x46210, symSize: 0x120 }
  - { offsetInCU: 0x1CAB1, offset: 0x180C4B, size: 0x8, addend: 0x0, symName: '__ZN4core3ptr40drop_in_place$LT$syn..ty..ReturnType$GT$17h6f97c9fdb958983eE', symObjAddr: 0x7050, symBinAddr: 0x46330, symSize: 0x50 }
  - { offsetInCU: 0x1CC21, offset: 0x180DBB, size: 0x8, addend: 0x0, symName: '__ZN4core3ptr41drop_in_place$LT$syn..item..ItemConst$GT$17hf37a2991989c7e8eE', symObjAddr: 0x70A0, symBinAddr: 0x46380, symSize: 0x1E0 }
  - { offsetInCU: 0x1D444, offset: 0x1815DE, size: 0x8, addend: 0x0, symName: '__ZN4core3ptr41drop_in_place$LT$syn..item..ItemMacro$GT$17h4cf9ca59f66b14edE', symObjAddr: 0x7280, symBinAddr: 0x46560, symSize: 0x120 }
  - { offsetInCU: 0x1D882, offset: 0x181A1C, size: 0x8, addend: 0x0, symName: '__ZN4core3ptr41drop_in_place$LT$syn..item..ItemTrait$GT$17h2de0174f2f014913E', symObjAddr: 0x73A0, symBinAddr: 0x46680, symSize: 0x220 }
  - { offsetInCU: 0x1E0A7, offset: 0x182241, size: 0x8, addend: 0x0, symName: '__ZN4core3ptr41drop_in_place$LT$syn..item..ItemUnion$GT$17h03d15eff3b9ef21aE', symObjAddr: 0x75C0, symBinAddr: 0x468A0, symSize: 0x250 }
  - { offsetInCU: 0x1E930, offset: 0x182ACA, size: 0x8, addend: 0x0, symName: '__ZN4core3ptr41drop_in_place$LT$syn..item..Signature$GT$17hd57cfba25994ce69E', symObjAddr: 0x7810, symBinAddr: 0x46AF0, symSize: 0x210 }
  - { offsetInCU: 0x1F20A, offset: 0x1833A4, size: 0x8, addend: 0x0, symName: '__ZN4core3ptr41drop_in_place$LT$syn..item..TraitItem$GT$17h4b7d90364e3eddf8E', symObjAddr: 0x7A20, symBinAddr: 0x46D00, symSize: 0x1B0 }
  - { offsetInCU: 0x1F52A, offset: 0x1836C4, size: 0x8, addend: 0x0, symName: '__ZN4core3ptr42drop_in_place$LT$alloc..string..String$GT$17hef974c60cd9900dbE', symObjAddr: 0x7C20, symBinAddr: 0x46EB0, symSize: 0x20 }
  - { offsetInCU: 0x1F632, offset: 0x1837CC, size: 0x8, addend: 0x0, symName: '__ZN4core3ptr42drop_in_place$LT$syn..data..Visibility$GT$17h27e8b6ad307fcbc7E', symObjAddr: 0x7C40, symBinAddr: 0x46ED0, symSize: 0x60 }
  - { offsetInCU: 0x1F7A7, offset: 0x183941, size: 0x8, addend: 0x0, symName: '__ZN4core3ptr42drop_in_place$LT$syn..item..ItemMacro2$GT$17h642967b8eb4a8104E', symObjAddr: 0x7CA0, symBinAddr: 0x46F30, symSize: 0x170 }
  - { offsetInCU: 0x1FCF0, offset: 0x183E8A, size: 0x8, addend: 0x0, symName: '__ZN4core3ptr42drop_in_place$LT$syn..item..ItemStatic$GT$17hc6b586b851814ed2E', symObjAddr: 0x7E10, symBinAddr: 0x470A0, symSize: 0x1E0 }
  - { offsetInCU: 0x204F4, offset: 0x18468E, size: 0x8, addend: 0x0, symName: '__ZN4core3ptr42drop_in_place$LT$syn..item..ItemStruct$GT$17h3f822312b443c40dE', symObjAddr: 0x7FF0, symBinAddr: 0x47280, symSize: 0x190 }
  - { offsetInCU: 0x20A64, offset: 0x184BFE, size: 0x8, addend: 0x0, symName: '__ZN4core3ptr43drop_in_place$LT$syn..data..FieldsNamed$GT$17h73293dd81bcfeab6E', symObjAddr: 0x8180, symBinAddr: 0x47410, symSize: 0xE0 }
  - { offsetInCU: 0x20DA5, offset: 0x184F3F, size: 0x8, addend: 0x0, symName: '__ZN4core3ptr43drop_in_place$LT$syn..item..ForeignItem$GT$17h21c815f2fbdfe296E', symObjAddr: 0x8260, symBinAddr: 0x474F0, symSize: 0x1A0 }
  - { offsetInCU: 0x210E4, offset: 0x18527E, size: 0x8, addend: 0x0, symName: '__ZN4core3ptr44drop_in_place$LT$syn..generics..Generics$GT$17he0d6eb6045503c84E', symObjAddr: 0x8400, symBinAddr: 0x47690, symSize: 0xA0 }
  - { offsetInCU: 0x21350, offset: 0x1854EA, size: 0x8, addend: 0x0, symName: '__ZN4core3ptr44drop_in_place$LT$syn..item..ImplItemType$GT$17hfa117ac59836f12aE', symObjAddr: 0x84A0, symBinAddr: 0x47730, symSize: 0x190 }
  - { offsetInCU: 0x21899, offset: 0x185A33, size: 0x8, addend: 0x0, symName: '__ZN4core3ptr44drop_in_place$LT$syn..lifetime..Lifetime$GT$17h3858225df033648aE', symObjAddr: 0x8630, symBinAddr: 0x478C0, symSize: 0x30 }
  - { offsetInCU: 0x21A11, offset: 0x185BAB, size: 0x8, addend: 0x0, symName: '__ZN4core3ptr44drop_in_place$LT$syn..parse..ParseBuffer$GT$17h19c266fcccc430cbE', symObjAddr: 0x8660, symBinAddr: 0x478F0, symSize: 0x70 }
  - { offsetInCU: 0x21D8D, offset: 0x185F27, size: 0x8, addend: 0x0, symName: '__ZN4core3ptr45drop_in_place$LT$proc_macro2..TokenStream$GT$17h2507cb30e765dc85E', symObjAddr: 0x86D0, symBinAddr: 0x47960, symSize: 0x140 }
  - { offsetInCU: 0x221E9, offset: 0x186383, size: 0x8, addend: 0x0, symName: '__ZN4core3ptr45drop_in_place$LT$syn..item..ForeignItemFn$GT$17hac464df7ca671242E', symObjAddr: 0x8810, symBinAddr: 0x47AA0, symSize: 0x160 }
  - { offsetInCU: 0x2267D, offset: 0x186817, size: 0x8, addend: 0x0, symName: '__ZN4core3ptr45drop_in_place$LT$syn..item..ImplItemConst$GT$17hcd481022683c9056E', symObjAddr: 0x8970, symBinAddr: 0x47C00, symSize: 0x1A0 }
  - { offsetInCU: 0x22C04, offset: 0x186D9E, size: 0x8, addend: 0x0, symName: '__ZN4core3ptr45drop_in_place$LT$syn..item..TraitItemType$GT$17hff73dc4d6b73b6f1E', symObjAddr: 0x8C10, symBinAddr: 0x47DA0, symSize: 0x190 }
  - { offsetInCU: 0x23044, offset: 0x1871DE, size: 0x8, addend: 0x0, symName: '__ZN4core3ptr46drop_in_place$LT$syn..item..ImplItemMethod$GT$17h81d5acf604d84d52E', symObjAddr: 0x8DA0, symBinAddr: 0x47F30, symSize: 0x230 }
  - { offsetInCU: 0x237F0, offset: 0x18798A, size: 0x8, addend: 0x0, symName: '__ZN4core3ptr46drop_in_place$LT$syn..item..ItemForeignMod$GT$17he0cb10e3a3005942E', symObjAddr: 0x8FD0, symBinAddr: 0x48160, symSize: 0x1C0 }
  - { offsetInCU: 0x24115, offset: 0x1882AF, size: 0x8, addend: 0x0, symName: '__ZN4core3ptr46drop_in_place$LT$syn..item..ItemTraitAlias$GT$17h92af75cf6c1f4732E', symObjAddr: 0x9190, symBinAddr: 0x48320, symSize: 0x190 }
  - { offsetInCU: 0x246B9, offset: 0x188853, size: 0x8, addend: 0x0, symName: '__ZN4core3ptr46drop_in_place$LT$syn..item..TraitItemConst$GT$17ha3f3e5595f870971E', symObjAddr: 0x9320, symBinAddr: 0x484B0, symSize: 0x170 }
  - { offsetInCU: 0x24AF9, offset: 0x188C93, size: 0x8, addend: 0x0, symName: '__ZN4core3ptr47drop_in_place$LT$syn..generics..LifetimeDef$GT$17hd04bc9e6ed9dfb47E', symObjAddr: 0x9490, symBinAddr: 0x48620, symSize: 0x120 }
  - { offsetInCU: 0x24F16, offset: 0x1890B0, size: 0x8, addend: 0x0, symName: '__ZN4core3ptr47drop_in_place$LT$syn..item..ForeignItemType$GT$17h1c4d82a7ec021a30E', symObjAddr: 0x95B0, symBinAddr: 0x48740, symSize: 0x170 }
  - { offsetInCU: 0x254B8, offset: 0x189652, size: 0x8, addend: 0x0, symName: '__ZN4core3ptr47drop_in_place$LT$syn..item..ItemExternCrate$GT$17h97b05889785eea32E', symObjAddr: 0x9720, symBinAddr: 0x488B0, symSize: 0x1A0 }
  - { offsetInCU: 0x25B58, offset: 0x189CF2, size: 0x8, addend: 0x0, symName: '__ZN4core3ptr47drop_in_place$LT$syn..item..TraitItemMethod$GT$17h21cb304020f3ba1eE', symObjAddr: 0x98C0, symBinAddr: 0x48A50, symSize: 0x1F0 }
  - { offsetInCU: 0x26196, offset: 0x18A330, size: 0x8, addend: 0x0, symName: '__ZN4core3ptr47drop_in_place$LT$syn..path..GenericArgument$GT$17h8c0a0d8c6deaefb4E', symObjAddr: 0x9AB0, symBinAddr: 0x48C40, symSize: 0x110 }
  - { offsetInCU: 0x264B1, offset: 0x18A64B, size: 0x8, addend: 0x0, symName: '__ZN4core3ptr49drop_in_place$LT$syn..item..ForeignItemStatic$GT$17hfe9f44f9dab5bcd1E', symObjAddr: 0x9BC0, symBinAddr: 0x48D50, symSize: 0x190 }
  - { offsetInCU: 0x26B68, offset: 0x18AD02, size: 0x8, addend: 0x0, symName: '__ZN4core3ptr58drop_in_place$LT$alloc..vec..Vec$LT$syn..expr..Arm$GT$$GT$17hf3db0825f3d9c861E', symObjAddr: 0x9D50, symBinAddr: 0x48EE0, symSize: 0xD0 }
  - { offsetInCU: 0x26E28, offset: 0x18AFC2, size: 0x8, addend: 0x0, symName: '__ZN4core3ptr59drop_in_place$LT$alloc..boxed..Box$LT$syn..pat..Pat$GT$$GT$17h7037ce9bbd3729c6E', symObjAddr: 0x9E20, symBinAddr: 0x48FB0, symSize: 0x50 }
  - { offsetInCU: 0x26F81, offset: 0x18B11B, size: 0x8, addend: 0x0, symName: '__ZN4core3ptr59drop_in_place$LT$alloc..boxed..Box$LT$syn..ty..Type$GT$$GT$17h2eccd13329dbe4faE', symObjAddr: 0x9E70, symBinAddr: 0x49000, symSize: 0x50 }
  - { offsetInCU: 0x270DA, offset: 0x18B274, size: 0x8, addend: 0x0, symName: '__ZN4core3ptr59drop_in_place$LT$alloc..vec..Vec$LT$syn..item..Item$GT$$GT$17h544d8e20d05b2f97E', symObjAddr: 0x9EC0, symBinAddr: 0x49050, symSize: 0xD0 }
  - { offsetInCU: 0x2739A, offset: 0x18B534, size: 0x8, addend: 0x0, symName: '__ZN4core3ptr59drop_in_place$LT$alloc..vec..Vec$LT$syn..stmt..Stmt$GT$$GT$17hed4646381107e302E', symObjAddr: 0x9F90, symBinAddr: 0x49120, symSize: 0xD0 }
  - { offsetInCU: 0x2765A, offset: 0x18B7F4, size: 0x8, addend: 0x0, symName: '__ZN4core3ptr61drop_in_place$LT$alloc..boxed..Box$LT$syn..expr..Expr$GT$$GT$17h66094ddc89015516E', symObjAddr: 0xA060, symBinAddr: 0x491F0, symSize: 0x50 }
  - { offsetInCU: 0x2782F, offset: 0x18B9C9, size: 0x8, addend: 0x0, symName: '__ZN4core3ptr61drop_in_place$LT$syn..path..ParenthesizedGenericArguments$GT$17h21be9b1d7a6fab55E', symObjAddr: 0xA120, symBinAddr: 0x49240, symSize: 0x170 }
  - { offsetInCU: 0x27E25, offset: 0x18BFBF, size: 0x8, addend: 0x0, symName: '__ZN4core3ptr62drop_in_place$LT$alloc..boxed..Box$LT$syn..stmt..Block$GT$$GT$17h0633c21446a415f4E', symObjAddr: 0xA290, symBinAddr: 0x493B0, symSize: 0xE0 }
  - { offsetInCU: 0x28237, offset: 0x18C3D1, size: 0x8, addend: 0x0, symName: '__ZN4core3ptr63drop_in_place$LT$alloc..boxed..Box$LT$syn..lit..LitRepr$GT$$GT$17h9c509b794406150eE', symObjAddr: 0xA370, symBinAddr: 0x49490, symSize: 0x60 }
  - { offsetInCU: 0x28500, offset: 0x18C69A, size: 0x8, addend: 0x0, symName: '__ZN4core3ptr63drop_in_place$LT$alloc..vec..Vec$LT$syn..item..ImplItem$GT$$GT$17ha4d5b54edb0d5cb7E', symObjAddr: 0xA3D0, symBinAddr: 0x494F0, symSize: 0x80 }
  - { offsetInCU: 0x287D7, offset: 0x18C971, size: 0x8, addend: 0x0, symName: '__ZN4core3ptr64drop_in_place$LT$alloc..boxed..Box$LT$syn..item..UseTree$GT$$GT$17h2fbb30105f88b737E', symObjAddr: 0xA450, symBinAddr: 0x49570, symSize: 0x100 }
  - { offsetInCU: 0x28D24, offset: 0x18CEBE, size: 0x8, addend: 0x0, symName: '__ZN4core3ptr64drop_in_place$LT$alloc..boxed..Box$LT$syn..pat..FieldPat$GT$$GT$17hb167b355d0d4733fE', symObjAddr: 0xA550, symBinAddr: 0x49670, symSize: 0x180 }
  - { offsetInCU: 0x29441, offset: 0x18D5DB, size: 0x8, addend: 0x0, symName: '__ZN4core3ptr64drop_in_place$LT$alloc..boxed..Box$LT$syn..ty..BareFnArg$GT$$GT$17h6488be9448346678E', symObjAddr: 0xA6D0, symBinAddr: 0x497F0, symSize: 0x160 }
  - { offsetInCU: 0x299D7, offset: 0x18DB71, size: 0x8, addend: 0x0, symName: '__ZN4core3ptr64drop_in_place$LT$alloc..vec..Vec$LT$syn..attr..Attribute$GT$$GT$17h386324d8ea9bc309E.llvm.2762174853176263616', symObjAddr: 0xA830, symBinAddr: 0x49950, symSize: 0xF0 }
  - { offsetInCU: 0x29CCD, offset: 0x18DE67, size: 0x8, addend: 0x0, symName: '__ZN4core3ptr64drop_in_place$LT$alloc..vec..Vec$LT$syn..item..TraitItem$GT$$GT$17h0ef3c4b7ce592e9eE', symObjAddr: 0xA920, symBinAddr: 0x49A40, symSize: 0x80 }
  - { offsetInCU: 0x29F85, offset: 0x18E11F, size: 0x8, addend: 0x0, symName: '__ZN4core3ptr65drop_in_place$LT$alloc..vec..Vec$LT$proc_macro..TokenTree$GT$$GT$17hc3670dd5608d5259E', symObjAddr: 0xA9A0, symBinAddr: 0x49AC0, symSize: 0x110 }
  - { offsetInCU: 0x2A37D, offset: 0x18E517, size: 0x8, addend: 0x0, symName: '__ZN4core3ptr65drop_in_place$LT$core..option..Option$LT$syn..expr..Label$GT$$GT$17ha723640fd01bec5dE', symObjAddr: 0xAAB0, symBinAddr: 0x49BD0, symSize: 0x30 }
  - { offsetInCU: 0x2A4B7, offset: 0x18E651, size: 0x8, addend: 0x0, symName: '__ZN4core3ptr65drop_in_place$LT$core..option..Option$LT$syn..stmt..Block$GT$$GT$17hdff81fd7cb2986caE', symObjAddr: 0xAAE0, symBinAddr: 0x49C00, symSize: 0xD0 }
  - { offsetInCU: 0x2A78C, offset: 0x18E926, size: 0x8, addend: 0x0, symName: '__ZN4core3ptr66drop_in_place$LT$alloc..vec..Vec$LT$syn..item..ForeignItem$GT$$GT$17hc5d281d65e9f4398E', symObjAddr: 0xABB0, symBinAddr: 0x49CD0, symSize: 0x80 }
  - { offsetInCU: 0x2AA44, offset: 0x18EBDE, size: 0x8, addend: 0x0, symName: '__ZN4core3ptr66drop_in_place$LT$core..option..Option$LT$syn..ty..Variadic$GT$$GT$17hc32134bb3933b0dfE', symObjAddr: 0xAC30, symBinAddr: 0x49D50, symSize: 0xF0 }
  - { offsetInCU: 0x2AD6E, offset: 0x18EF08, size: 0x8, addend: 0x0, symName: '__ZN4core3ptr67drop_in_place$LT$alloc..boxed..Box$LT$syn..expr..FieldValue$GT$$GT$17h8df780aa600ea8c2E', symObjAddr: 0xAD20, symBinAddr: 0x49E40, symSize: 0x160 }
  - { offsetInCU: 0x2B2E4, offset: 0x18F47E, size: 0x8, addend: 0x0, symName: '__ZN4core3ptr67drop_in_place$LT$core..option..Option$LT$proc_macro2..Ident$GT$$GT$17h67578850954384a1E', symObjAddr: 0xAE80, symBinAddr: 0x49FA0, symSize: 0x30 }
  - { offsetInCU: 0x2B3FF, offset: 0x18F599, size: 0x8, addend: 0x0, symName: '__ZN4core3ptr68drop_in_place$LT$alloc..boxed..Box$LT$syn..path..PathSegment$GT$$GT$17h1957b54eed39c0bbE', symObjAddr: 0xAEB0, symBinAddr: 0x49FD0, symSize: 0x190 }
  - { offsetInCU: 0x2BB28, offset: 0x18FCC2, size: 0x8, addend: 0x0, symName: '__ZN4core3ptr72drop_in_place$LT$alloc..boxed..Box$LT$syn..path..GenericArgument$GT$$GT$17ha8f8136d0c2b505bE', symObjAddr: 0xB040, symBinAddr: 0x4A160, symSize: 0x180 }
  - { offsetInCU: 0x2C1C8, offset: 0x190362, size: 0x8, addend: 0x0, symName: '__ZN4core3ptr72drop_in_place$LT$core..option..Option$LT$syn..lifetime..Lifetime$GT$$GT$17h31b55b93749c174dE', symObjAddr: 0xB1C0, symBinAddr: 0x4A2E0, symSize: 0x30 }
  - { offsetInCU: 0x2C2E3, offset: 0x19047D, size: 0x8, addend: 0x0, symName: '__ZN4core3ptr75drop_in_place$LT$alloc..boxed..Box$LT$syn..generics..TypeParamBound$GT$$GT$17h8f156ce07ea0b8b2E', symObjAddr: 0xB1F0, symBinAddr: 0x4A310, symSize: 0x140 }
  - { offsetInCU: 0x2C8BA, offset: 0x190A54, size: 0x8, addend: 0x0, symName: '__ZN4core3ptr75drop_in_place$LT$core..option..Option$LT$syn..generics..WhereClause$GT$$GT$17h9a6b9b305741da86E', symObjAddr: 0xB330, symBinAddr: 0x4A450, symSize: 0xF0 }
  - { offsetInCU: 0x2CBDC, offset: 0x190D76, size: 0x8, addend: 0x0, symName: '__ZN4core3ptr78drop_in_place$LT$alloc..boxed..Box$LT$syn..expr..GenericMethodArgument$GT$$GT$17h3384c00b5bd54c2aE', symObjAddr: 0xB420, symBinAddr: 0x4A540, symSize: 0x60 }
  - { offsetInCU: 0x2CDED, offset: 0x190F87, size: 0x8, addend: 0x0, symName: '__ZN4core3ptr78drop_in_place$LT$core..option..Option$LT$syn..generics..BoundLifetimes$GT$$GT$17h8175e66ad0c4a156E', symObjAddr: 0xB480, symBinAddr: 0x4A5A0, symSize: 0x120 }
  - { offsetInCU: 0x2D2B2, offset: 0x19144C, size: 0x8, addend: 0x0, symName: '__ZN4core3ptr86drop_in_place$LT$syn..punctuated..Punctuated$LT$syn..pat..Pat$C$syn..token..Or$GT$$GT$17h1078c5d178d382b7E', symObjAddr: 0xB5A0, symBinAddr: 0x4A6C0, symSize: 0x120 }
  - { offsetInCU: 0x2D72D, offset: 0x1918C7, size: 0x8, addend: 0x0, symName: '__ZN4core3ptr87drop_in_place$LT$core..option..Option$LT$alloc..boxed..Box$LT$syn..pat..Pat$GT$$GT$$GT$17ha7f5fe0e6f73e820E', symObjAddr: 0xB6E0, symBinAddr: 0x4A7E0, symSize: 0x50 }
  - { offsetInCU: 0x2D89D, offset: 0x191A37, size: 0x8, addend: 0x0, symName: '__ZN4core3ptr87drop_in_place$LT$core..option..Option$LT$alloc..boxed..Box$LT$syn..ty..Type$GT$$GT$$GT$17hc8292da82d129de3E', symObjAddr: 0xB730, symBinAddr: 0x4A830, symSize: 0x50 }
  - { offsetInCU: 0x2DA0D, offset: 0x191BA7, size: 0x8, addend: 0x0, symName: '__ZN4core3ptr89drop_in_place$LT$core..option..Option$LT$alloc..boxed..Box$LT$syn..expr..Expr$GT$$GT$$GT$17hdc211ccd33f196f2E', symObjAddr: 0xB7A0, symBinAddr: 0x4A880, symSize: 0x50 }
  - { offsetInCU: 0x2DBBB, offset: 0x191D55, size: 0x8, addend: 0x0, symName: '__ZN4core3ptr89drop_in_place$LT$syn..punctuated..Punctuated$LT$syn..pat..Pat$C$syn..token..Comma$GT$$GT$17hf8371102b0500adcE', symObjAddr: 0xB7F0, symBinAddr: 0x4A8D0, symSize: 0x120 }
  - { offsetInCU: 0x2E04D, offset: 0x1921E7, size: 0x8, addend: 0x0, symName: '__ZN4core3ptr89drop_in_place$LT$syn..punctuated..Punctuated$LT$syn..ty..Type$C$syn..token..Comma$GT$$GT$17h1c6e43341fabea97E', symObjAddr: 0xB910, symBinAddr: 0x4A9F0, symSize: 0x120 }
  - { offsetInCU: 0x2E506, offset: 0x1926A0, size: 0x8, addend: 0x0, symName: '__ZN4core3ptr90drop_in_place$LT$core..option..Option$LT$alloc..boxed..Box$LT$syn..data..Field$GT$$GT$$GT$17he146e9f4e32c136fE', symObjAddr: 0xBA30, symBinAddr: 0x4AB10, symSize: 0x1C0 }
  - { offsetInCU: 0x2EC0A, offset: 0x192DA4, size: 0x8, addend: 0x0, symName: '__ZN4core3ptr90drop_in_place$LT$core..option..Option$LT$alloc..boxed..Box$LT$syn..item..FnArg$GT$$GT$$GT$17ha72e545cf6ea6548E', symObjAddr: 0xBBF0, symBinAddr: 0x4ACD0, symSize: 0x70 }
  - { offsetInCU: 0x2EDC2, offset: 0x192F5C, size: 0x8, addend: 0x0, symName: '__ZN4core3ptr91drop_in_place$LT$syn..punctuated..Punctuated$LT$syn..expr..Expr$C$syn..token..Comma$GT$$GT$17hd2dfeb0c522d9a18E', symObjAddr: 0xBC60, symBinAddr: 0x4AD40, symSize: 0x120 }
  - { offsetInCU: 0x2F250, offset: 0x1933EA, size: 0x8, addend: 0x0, symName: '__ZN4core3ptr92drop_in_place$LT$core..option..Option$LT$$LP$syn..token..As$C$proc_macro2..Ident$RP$$GT$$GT$17hdb8e08992a006501E', symObjAddr: 0xBD80, symBinAddr: 0x4AE60, symSize: 0x30 }
  - { offsetInCU: 0x2F3A9, offset: 0x193543, size: 0x8, addend: 0x0, symName: '__ZN4core3ptr92drop_in_place$LT$core..option..Option$LT$alloc..boxed..Box$LT$syn..data..Variant$GT$$GT$$GT$17h9c9c8f3c1dc56a70E', symObjAddr: 0xBDB0, symBinAddr: 0x4AE90, symSize: 0x1A0 }
  - { offsetInCU: 0x2F9CD, offset: 0x193B67, size: 0x8, addend: 0x0, symName: '__ZN4core3ptr92drop_in_place$LT$syn..punctuated..Punctuated$LT$syn..item..FnArg$C$syn..token..Comma$GT$$GT$17h3049a14d789de61dE', symObjAddr: 0xBF50, symBinAddr: 0x4B030, symSize: 0x140 }
  - { offsetInCU: 0x2FE4A, offset: 0x193FE4, size: 0x8, addend: 0x0, symName: '__ZN4core3ptr94drop_in_place$LT$syn..punctuated..Punctuated$LT$syn..data..Variant$C$syn..token..Comma$GT$$GT$17hb4480d65f74dc9d7E', symObjAddr: 0xC090, symBinAddr: 0x4B170, symSize: 0xE0 }
  - { offsetInCU: 0x301AA, offset: 0x194344, size: 0x8, addend: 0x0, symName: '__ZN4core3ptr94drop_in_place$LT$syn..punctuated..Punctuated$LT$syn..item..UseTree$C$syn..token..Comma$GT$$GT$17ha837d38586774c87E', symObjAddr: 0xC170, symBinAddr: 0x4B250, symSize: 0xF0 }
  - { offsetInCU: 0x304EC, offset: 0x194686, size: 0x8, addend: 0x0, symName: '__ZN4core3ptr94drop_in_place$LT$syn..punctuated..Punctuated$LT$syn..pat..FieldPat$C$syn..token..Comma$GT$$GT$17h612cbc9066d5afb1E', symObjAddr: 0xC260, symBinAddr: 0x4B340, symSize: 0xF0 }
  - { offsetInCU: 0x307EB, offset: 0x194985, size: 0x8, addend: 0x0, symName: '__ZN4core3ptr94drop_in_place$LT$syn..punctuated..Punctuated$LT$syn..ty..BareFnArg$C$syn..token..Comma$GT$$GT$17ha9a668ce9972795bE', symObjAddr: 0xC350, symBinAddr: 0x4B430, symSize: 0xF0 }
  - { offsetInCU: 0x30AE8, offset: 0x194C82, size: 0x8, addend: 0x0, symName: '__ZN4core3ptr96drop_in_place$LT$core..option..Option$LT$alloc..boxed..Box$LT$syn..path..PathSegment$GT$$GT$$GT$17h2e81cbe3c70bb71cE', symObjAddr: 0xC440, symBinAddr: 0x4B520, symSize: 0x180 }
  - { offsetInCU: 0x311A5, offset: 0x19533F, size: 0x8, addend: 0x0, symName: '__ZN4core3ptr97drop_in_place$LT$syn..punctuated..Punctuated$LT$syn..expr..FieldValue$C$syn..token..Comma$GT$$GT$17h11a5fffb46adfb11E', symObjAddr: 0xC5C0, symBinAddr: 0x4B6A0, symSize: 0xF0 }
  - { offsetInCU: 0x3151E, offset: 0x1956B8, size: 0x8, addend: 0x0, symName: '__ZN4core3ptr97drop_in_place$LT$syn..punctuated..Punctuated$LT$syn..lifetime..Lifetime$C$syn..token..Add$GT$$GT$17h5c54dea2c838d109E', symObjAddr: 0xC6B0, symBinAddr: 0x4B790, symSize: 0xD0 }
  - { offsetInCU: 0x32282, offset: 0x19641C, size: 0x8, addend: 0x0, symName: '__ZN53_$LT$core..fmt..Error$u20$as$u20$core..fmt..Debug$GT$3fmt17h03dc662ab152f3aeE', symObjAddr: 0xC7D0, symBinAddr: 0x4B860, symSize: 0x20 }
  - { offsetInCU: 0x39A3C, offset: 0x19DBD6, size: 0x8, addend: 0x0, symName: '__ZN48_$LT$T$u20$as$u20$core..clone..CloneToUninit$GT$15clone_to_uninit17h1e72921f8281f1fbE', symObjAddr: 0x240, symBinAddr: 0x3F660, symSize: 0x330 }
  - { offsetInCU: 0x4160F, offset: 0x1A57A9, size: 0x8, addend: 0x0, symName: '__ZN3syn4item7parsing63_$LT$impl$u20$syn..parse..Parse$u20$for$u20$syn..item..Item$GT$5parse17hd5092b6f019cd3c8E', symObjAddr: 0xD550, symBinAddr: 0x4BC50, symSize: 0x48A0 }
  - { offsetInCU: 0x4F814, offset: 0x1B39AE, size: 0x8, addend: 0x0, symName: '__ZN3syn4item7parsing68_$LT$impl$u20$syn..parse..Parse$u20$for$u20$syn..item..ItemMacro$GT$5parse17h31dd6e83a6883425E', symObjAddr: 0x11DF0, symBinAddr: 0x504F0, symSize: 0x620 }
  - { offsetInCU: 0x502B3, offset: 0x1B444D, size: 0x8, addend: 0x0, symName: '__ZN3syn4item7parsing69_$LT$impl$u20$syn..parse..Parse$u20$for$u20$syn..item..ItemMacro2$GT$5parse17hcf95eda47eb68e7aE', symObjAddr: 0x12410, symBinAddr: 0x50B10, symSize: 0xC30 }
  - { offsetInCU: 0x52092, offset: 0x1B622C, size: 0x8, addend: 0x0, symName: '__ZN3syn4item7parsing74_$LT$impl$u20$syn..parse..Parse$u20$for$u20$syn..item..ItemExternCrate$GT$5parse17hae0345cc168adf0eE', symObjAddr: 0x13040, symBinAddr: 0x51740, symSize: 0x930 }
  - { offsetInCU: 0x533FB, offset: 0x1B7595, size: 0x8, addend: 0x0, symName: '__ZN3syn4item7parsing66_$LT$impl$u20$syn..parse..Parse$u20$for$u20$syn..item..ItemUse$GT$5parse17h5d348ec602c9bbe4E', symObjAddr: 0x13970, symBinAddr: 0x52070, symSize: 0x800 }
  - { offsetInCU: 0x53EF9, offset: 0x1B8093, size: 0x8, addend: 0x0, symName: '__ZN3syn4item7parsing66_$LT$impl$u20$syn..parse..Parse$u20$for$u20$syn..item..UseTree$GT$5parse17hf6a79245528f6b50E', symObjAddr: 0x14170, symBinAddr: 0x52870, symSize: 0xA90 }
  - { offsetInCU: 0x563EC, offset: 0x1BA586, size: 0x8, addend: 0x0, symName: '__ZN3syn4item7parsing68_$LT$impl$u20$syn..parse..Parse$u20$for$u20$syn..item..Signature$GT$5parse17h48c646b2b2858734E', symObjAddr: 0x16420, symBinAddr: 0x53300, symSize: 0x9D0 }
  - { offsetInCU: 0x573CF, offset: 0x1BB569, size: 0x8, addend: 0x0, symName: '__ZN3syn4item7parsing64_$LT$impl$u20$syn..parse..Parse$u20$for$u20$syn..item..FnArg$GT$5parse17h6d8e7150f511bd86E', symObjAddr: 0x17130, symBinAddr: 0x53CD0, symSize: 0x710 }
  - { offsetInCU: 0x588CA, offset: 0x1BCA64, size: 0x8, addend: 0x0, symName: '__ZN3syn4item7parsing67_$LT$impl$u20$syn..parse..Parse$u20$for$u20$syn..item..Receiver$GT$5parse17h7c57eea315a0342bE', symObjAddr: 0x17840, symBinAddr: 0x543E0, symSize: 0x420 }
  - { offsetInCU: 0x58EF4, offset: 0x1BD08E, size: 0x8, addend: 0x0, symName: '__ZN3syn4item7parsing66_$LT$impl$u20$syn..parse..Parse$u20$for$u20$syn..item..ItemMod$GT$5parse17h7fe32aa4c994dc9bE', symObjAddr: 0x17C60, symBinAddr: 0x54800, symSize: 0xC90 }
  - { offsetInCU: 0x5AB78, offset: 0x1BED12, size: 0x8, addend: 0x0, symName: '__ZN3syn4item7parsing73_$LT$impl$u20$syn..parse..Parse$u20$for$u20$syn..item..ItemForeignMod$GT$5parse17hcca74002a17b2fcbE', symObjAddr: 0x188F0, symBinAddr: 0x55490, symSize: 0x670 }
  - { offsetInCU: 0x5C046, offset: 0x1C01E0, size: 0x8, addend: 0x0, symName: '__ZN3syn4item7parsing70_$LT$impl$u20$syn..parse..Parse$u20$for$u20$syn..item..ForeignItem$GT$5parse17h24f40baa602f1278E', symObjAddr: 0x18F60, symBinAddr: 0x55B00, symSize: 0x1B10 }
  - { offsetInCU: 0x6076E, offset: 0x1C4908, size: 0x8, addend: 0x0, symName: '__ZN3syn4item7parsing69_$LT$impl$u20$syn..parse..Parse$u20$for$u20$syn..item..ItemStruct$GT$5parse17he3cfb27f1405a441E', symObjAddr: 0x1C9C0, symBinAddr: 0x57610, symSize: 0x700 }
  - { offsetInCU: 0x61262, offset: 0x1C53FC, size: 0x8, addend: 0x0, symName: '__ZN3syn4item7parsing67_$LT$impl$u20$syn..parse..Parse$u20$for$u20$syn..item..ItemEnum$GT$5parse17hb2912ec4b9be8655E', symObjAddr: 0x1D0C0, symBinAddr: 0x57D10, symSize: 0x700 }
  - { offsetInCU: 0x61D5A, offset: 0x1C5EF4, size: 0x8, addend: 0x0, symName: '__ZN3syn4item7parsing68_$LT$impl$u20$syn..parse..Parse$u20$for$u20$syn..item..ItemUnion$GT$5parse17hc3f05c1ec1b84162E', symObjAddr: 0x1D7C0, symBinAddr: 0x58410, symSize: 0x700 }
  - { offsetInCU: 0x62843, offset: 0x1C69DD, size: 0x8, addend: 0x0, symName: '__ZN3syn4item7parsing68_$LT$impl$u20$syn..parse..Parse$u20$for$u20$syn..item..ItemTrait$GT$5parse17h99b2153937d5d77aE', symObjAddr: 0x1DEC0, symBinAddr: 0x58B10, symSize: 0x640 }
  - { offsetInCU: 0x63574, offset: 0x1C770E, size: 0x8, addend: 0x0, symName: '__ZN3syn4item7parsing68_$LT$impl$u20$syn..parse..Parse$u20$for$u20$syn..item..TraitItem$GT$5parse17h4e734d2779733d06E', symObjAddr: 0x1E650, symBinAddr: 0x59150, symSize: 0x14D0 }
  - { offsetInCU: 0x688E9, offset: 0x1CCA83, size: 0x8, addend: 0x0, symName: '__ZN3syn4item7parsing73_$LT$impl$u20$syn..parse..Parse$u20$for$u20$syn..item..TraitItemConst$GT$5parse17h1b0135dfda89c9c6E', symObjAddr: 0x1FB20, symBinAddr: 0x5A620, symSize: 0xAC0 }
  - { offsetInCU: 0x6A54C, offset: 0x1CE6E6, size: 0x8, addend: 0x0, symName: '__ZN3syn4item7parsing74_$LT$impl$u20$syn..parse..Parse$u20$for$u20$syn..item..TraitItemMethod$GT$5parse17hc56523647cfaf282E', symObjAddr: 0x205E0, symBinAddr: 0x5B0E0, symSize: 0x7F0 }
  - { offsetInCU: 0x6BB91, offset: 0x1CFD2B, size: 0x8, addend: 0x0, symName: '__ZN3syn4item7parsing67_$LT$impl$u20$syn..parse..Parse$u20$for$u20$syn..item..ImplItem$GT$5parse17hd0abc4995f0e27e6E', symObjAddr: 0x218C0, symBinAddr: 0x5B8D0, symSize: 0x1CE0 }
  - { offsetInCU: 0x7176C, offset: 0x1D5906, size: 0x8, addend: 0x0, symName: '__ZN3syn4item7parsing73_$LT$impl$u20$syn..parse..Parse$u20$for$u20$syn..item..ImplItemMethod$GT$5parse17h40b89290a7d05ae0E', symObjAddr: 0x243E0, symBinAddr: 0x5D5B0, symSize: 0x7B0 }
  - { offsetInCU: 0x726D4, offset: 0x1D686E, size: 0x8, addend: 0x0, symName: '__ZN3syn4item7parsing72_$LT$impl$u20$syn..parse..Parse$u20$for$u20$syn..item..ImplItemMacro$GT$5parse17h684a98d429e3ccb0E', symObjAddr: 0x25480, symBinAddr: 0x5DD60, symSize: 0x0 }
  - { offsetInCU: 0x72C51, offset: 0x1D6DEB, size: 0x8, addend: 0x0, symName: '__ZN3syn4item8printing83_$LT$impl$u20$quote..to_tokens..ToTokens$u20$for$u20$syn..item..ItemExternCrate$GT$9to_tokens17h7f9bd73caf323e58E', symObjAddr: 0x257D0, symBinAddr: 0x5E0B0, symSize: 0x250 }
  - { offsetInCU: 0x73273, offset: 0x1D740D, size: 0x8, addend: 0x0, symName: '__ZN3syn4item8printing78_$LT$impl$u20$quote..to_tokens..ToTokens$u20$for$u20$syn..item..ItemStatic$GT$9to_tokens17h08058ed00f2b3dddE', symObjAddr: 0x25BB0, symBinAddr: 0x5E300, symSize: 0x230 }
  - { offsetInCU: 0x738A1, offset: 0x1D7A3B, size: 0x8, addend: 0x0, symName: '__ZN3syn4item8printing75_$LT$impl$u20$quote..to_tokens..ToTokens$u20$for$u20$syn..item..ItemMod$GT$9to_tokens17hc86d6254ff17a890E', symObjAddr: 0x260B0, symBinAddr: 0x5E530, symSize: 0x1D0 }
  - { offsetInCU: 0x73D00, offset: 0x1D7E9A, size: 0x8, addend: 0x0, symName: '__ZN3syn4item8printing76_$LT$impl$u20$quote..to_tokens..ToTokens$u20$for$u20$syn..item..ItemType$GT$9to_tokens17hb83cbc1a01934084E', symObjAddr: 0x263F0, symBinAddr: 0x5E700, symSize: 0x1D0 }
  - { offsetInCU: 0x74122, offset: 0x1D82BC, size: 0x8, addend: 0x0, symName: '__ZN3syn4item8printing76_$LT$impl$u20$quote..to_tokens..ToTokens$u20$for$u20$syn..item..ItemEnum$GT$9to_tokens17h842d495a33b205f9E', symObjAddr: 0x265C0, symBinAddr: 0x5E8D0, symSize: 0x1A0 }
  - { offsetInCU: 0x744BC, offset: 0x1D8656, size: 0x8, addend: 0x0, symName: '__ZN3syn4item8printing78_$LT$impl$u20$quote..to_tokens..ToTokens$u20$for$u20$syn..item..ItemStruct$GT$9to_tokens17h10e0d38d73f156efE', symObjAddr: 0x26760, symBinAddr: 0x5EA70, symSize: 0x230 }
  - { offsetInCU: 0x749D9, offset: 0x1D8B73, size: 0x8, addend: 0x0, symName: '__ZN3syn4item8printing77_$LT$impl$u20$quote..to_tokens..ToTokens$u20$for$u20$syn..item..ItemUnion$GT$9to_tokens17h21c08048e1f3d099E', symObjAddr: 0x26990, symBinAddr: 0x5ECA0, symSize: 0x1A0 }
  - { offsetInCU: 0x74DE3, offset: 0x1D8F7D, size: 0x8, addend: 0x0, symName: '__ZN3syn4item8printing77_$LT$impl$u20$quote..to_tokens..ToTokens$u20$for$u20$syn..item..ItemTrait$GT$9to_tokens17h0ddcf38549076bc2E', symObjAddr: 0x26B30, symBinAddr: 0x5EE40, symSize: 0x310 }
  - { offsetInCU: 0x756F0, offset: 0x1D988A, size: 0x8, addend: 0x0, symName: '__ZN3syn4item8printing82_$LT$impl$u20$quote..to_tokens..ToTokens$u20$for$u20$syn..item..ItemTraitAlias$GT$9to_tokens17hf80e15e3335a9024E', symObjAddr: 0x26E40, symBinAddr: 0x5F150, symSize: 0x1F0 }
  - { offsetInCU: 0x75C91, offset: 0x1D9E2B, size: 0x8, addend: 0x0, symName: '__ZN3syn4item8printing76_$LT$impl$u20$quote..to_tokens..ToTokens$u20$for$u20$syn..item..ItemImpl$GT$9to_tokens17h30df070e852a5931E', symObjAddr: 0x27030, symBinAddr: 0x5F340, symSize: 0x360 }
  - { offsetInCU: 0x765B4, offset: 0x1DA74E, size: 0x8, addend: 0x0, symName: '__ZN3syn4item8printing77_$LT$impl$u20$quote..to_tokens..ToTokens$u20$for$u20$syn..item..ItemMacro$GT$9to_tokens17h481af589de6f9dcbE', symObjAddr: 0x27390, symBinAddr: 0x5F6A0, symSize: 0x1D0 }
  - { offsetInCU: 0x76B10, offset: 0x1DACAA, size: 0x8, addend: 0x0, symName: '__ZN3syn4item8printing82_$LT$impl$u20$quote..to_tokens..ToTokens$u20$for$u20$syn..item..TraitItemConst$GT$9to_tokens17h48ef6e80aa5ee690E', symObjAddr: 0x27820, symBinAddr: 0x5F870, symSize: 0x1E0 }
  - { offsetInCU: 0x76F6F, offset: 0x1DB109, size: 0x8, addend: 0x0, symName: '__ZN3syn4item8printing81_$LT$impl$u20$quote..to_tokens..ToTokens$u20$for$u20$syn..item..TraitItemType$GT$9to_tokens17ha773e15de198d60bE', symObjAddr: 0x27B60, symBinAddr: 0x5FA50, symSize: 0x290 }
  - { offsetInCU: 0x77609, offset: 0x1DB7A3, size: 0x8, addend: 0x0, symName: '__ZN3syn4item8printing81_$LT$impl$u20$quote..to_tokens..ToTokens$u20$for$u20$syn..item..ImplItemConst$GT$9to_tokens17h93720e24ccbf6f9aE', symObjAddr: 0x27DF0, symBinAddr: 0x5FCE0, symSize: 0x250 }
  - { offsetInCU: 0x77B4D, offset: 0x1DBCE7, size: 0x8, addend: 0x0, symName: '__ZN3syn4item8printing82_$LT$impl$u20$quote..to_tokens..ToTokens$u20$for$u20$syn..item..ImplItemMethod$GT$9to_tokens17h6dcd8d204ee3d041E', symObjAddr: 0x28040, symBinAddr: 0x5FF30, symSize: 0x2C0 }
  - { offsetInCU: 0x78478, offset: 0x1DC612, size: 0x8, addend: 0x0, symName: '__ZN3syn4item8printing80_$LT$impl$u20$quote..to_tokens..ToTokens$u20$for$u20$syn..item..ImplItemType$GT$9to_tokens17h10f82f78812ca34bE', symObjAddr: 0x28300, symBinAddr: 0x601F0, symSize: 0x240 }
  - { offsetInCU: 0x78A13, offset: 0x1DCBAD, size: 0x8, addend: 0x0, symName: '__ZN3syn4item8printing85_$LT$impl$u20$quote..to_tokens..ToTokens$u20$for$u20$syn..item..ForeignItemStatic$GT$9to_tokens17heca0d869ed2edd6aE', symObjAddr: 0x28760, symBinAddr: 0x60430, symSize: 0x210 }
  - { offsetInCU: 0x78F9B, offset: 0x1DD135, size: 0x8, addend: 0x0, symName: '__ZN3syn4item8printing77_$LT$impl$u20$quote..to_tokens..ToTokens$u20$for$u20$syn..item..Signature$GT$9to_tokens17hd3d401bd2710c1d3E', symObjAddr: 0x28AE0, symBinAddr: 0x60640, symSize: 0x340 }
  - { offsetInCU: 0x7979D, offset: 0x1DD937, size: 0x8, addend: 0x0, symName: '__ZN3syn4item8printing76_$LT$impl$u20$quote..to_tokens..ToTokens$u20$for$u20$syn..item..Receiver$GT$9to_tokens17h7bfe4f0f0a2e4435E', symObjAddr: 0x28E20, symBinAddr: 0x60980, symSize: 0x220 }
  - { offsetInCU: 0x79E51, offset: 0x1DDFEB, size: 0x8, addend: 0x0, symName: '__ZN62_$LT$syn..item..Item$u20$as$u20$quote..to_tokens..ToTokens$GT$9to_tokens17hcfb6fa0e89cea6efE', symObjAddr: 0x29040, symBinAddr: 0x60BA0, symSize: 0x810 }
  - { offsetInCU: 0x7B195, offset: 0x1DF32F, size: 0x8, addend: 0x0, symName: '__ZN65_$LT$syn..item..UseTree$u20$as$u20$quote..to_tokens..ToTokens$GT$9to_tokens17h73b4f1c675b83d74E', symObjAddr: 0x29850, symBinAddr: 0x613B0, symSize: 0x180 }
  - { offsetInCU: 0x7B4AE, offset: 0x1DF648, size: 0x8, addend: 0x0, symName: '__ZN69_$LT$syn..item..ForeignItem$u20$as$u20$quote..to_tokens..ToTokens$GT$9to_tokens17h5811b213ecf647c3E', symObjAddr: 0x299D0, symBinAddr: 0x61530, symSize: 0x350 }
  - { offsetInCU: 0x7BD82, offset: 0x1DFF1C, size: 0x8, addend: 0x0, symName: '__ZN67_$LT$syn..item..TraitItem$u20$as$u20$quote..to_tokens..ToTokens$GT$9to_tokens17he9bf5a11f5abb64eE', symObjAddr: 0x29D20, symBinAddr: 0x61880, symSize: 0x2E0 }
  - { offsetInCU: 0x7C41B, offset: 0x1E05B5, size: 0x8, addend: 0x0, symName: '__ZN66_$LT$syn..item..ImplItem$u20$as$u20$quote..to_tokens..ToTokens$GT$9to_tokens17hc241889665e48d04E', symObjAddr: 0x2A000, symBinAddr: 0x61B60, symSize: 0x1B0 }
  - { offsetInCU: 0x7CEC0, offset: 0x1E105A, size: 0x8, addend: 0x0, symName: '__ZN3syn3gen5clone67_$LT$impl$u20$core..clone..Clone$u20$for$u20$syn..item..UseTree$GT$5clone17h8f561418b2b5e44fE', symObjAddr: 0x2EE50, symBinAddr: 0x661E0, symSize: 0x290 }
  - { offsetInCU: 0x7D7CB, offset: 0x1E1965, size: 0x8, addend: 0x0, symName: '__ZN3syn3gen5clone65_$LT$impl$u20$core..clone..Clone$u20$for$u20$syn..item..FnArg$GT$5clone17h66f8181604bce7dcE', symObjAddr: 0x2A3F0, symBinAddr: 0x61D10, symSize: 0x100 }
  - { offsetInCU: 0x7DA30, offset: 0x1E1BCA, size: 0x8, addend: 0x0, symName: '__ZN3syn3gen5clone71_$LT$impl$u20$core..clone..Clone$u20$for$u20$syn..item..ForeignItem$GT$5clone17h70e70dae6a5d9f7fE', symObjAddr: 0x2A4F0, symBinAddr: 0x61E10, symSize: 0x290 }
  - { offsetInCU: 0x7DDAA, offset: 0x1E1F44, size: 0x8, addend: 0x0, symName: '__ZN3syn3gen5clone77_$LT$impl$u20$core..clone..Clone$u20$for$u20$syn..item..ForeignItemStatic$GT$5clone17h3664278b73a68d1fE', symObjAddr: 0x2A860, symBinAddr: 0x620A0, symSize: 0x1D0 }
  - { offsetInCU: 0x7E24B, offset: 0x1E23E5, size: 0x8, addend: 0x0, symName: '__ZN3syn3gen5clone75_$LT$impl$u20$core..clone..Clone$u20$for$u20$syn..item..ForeignItemType$GT$5clone17h0605ebd979d8e0f9E', symObjAddr: 0x2AA30, symBinAddr: 0x62270, symSize: 0xE0 }
  - { offsetInCU: 0x7E3B1, offset: 0x1E254B, size: 0x8, addend: 0x0, symName: '__ZN3syn3gen5clone68_$LT$impl$u20$core..clone..Clone$u20$for$u20$syn..item..ImplItem$GT$5clone17h9da0c001cb875335E', symObjAddr: 0x2AB10, symBinAddr: 0x62350, symSize: 0x1E0 }
  - { offsetInCU: 0x7E6F2, offset: 0x1E288C, size: 0x8, addend: 0x0, symName: '__ZN3syn3gen5clone73_$LT$impl$u20$core..clone..Clone$u20$for$u20$syn..item..ImplItemConst$GT$5clone17h6c1bdd3e9a111bc9E', symObjAddr: 0x2ACF0, symBinAddr: 0x62530, symSize: 0x200 }
  - { offsetInCU: 0x7E9A8, offset: 0x1E2B42, size: 0x8, addend: 0x0, symName: '__ZN3syn3gen5clone74_$LT$impl$u20$core..clone..Clone$u20$for$u20$syn..item..ImplItemMethod$GT$5clone17hc69c6508711c3562E', symObjAddr: 0x2AF80, symBinAddr: 0x62730, symSize: 0x160 }
  - { offsetInCU: 0x7EA37, offset: 0x1E2BD1, size: 0x8, addend: 0x0, symName: '__ZN3syn3gen5clone72_$LT$impl$u20$core..clone..Clone$u20$for$u20$syn..item..ImplItemType$GT$5clone17h11bf73316dc36436E', symObjAddr: 0x2B0E0, symBinAddr: 0x62890, symSize: 0x330 }
  - { offsetInCU: 0x7EDEA, offset: 0x1E2F84, size: 0x8, addend: 0x0, symName: '__ZN3syn3gen5clone64_$LT$impl$u20$core..clone..Clone$u20$for$u20$syn..item..Item$GT$5clone17hc6ebbc1fee216c73E', symObjAddr: 0x2B410, symBinAddr: 0x62BC0, symSize: 0x390 }
  - { offsetInCU: 0x7F36E, offset: 0x1E3508, size: 0x8, addend: 0x0, symName: '__ZN3syn3gen5clone69_$LT$impl$u20$core..clone..Clone$u20$for$u20$syn..item..ItemConst$GT$5clone17he7f8218fcd09ece6E', symObjAddr: 0x2B7A0, symBinAddr: 0x62F50, symSize: 0x260 }
  - { offsetInCU: 0x7FA12, offset: 0x1E3BAC, size: 0x8, addend: 0x0, symName: '__ZN3syn3gen5clone68_$LT$impl$u20$core..clone..Clone$u20$for$u20$syn..item..ItemEnum$GT$5clone17hf4df4a6f7e7b24e5E', symObjAddr: 0x2BA00, symBinAddr: 0x631B0, symSize: 0x300 }
  - { offsetInCU: 0x7FD44, offset: 0x1E3EDE, size: 0x8, addend: 0x0, symName: '__ZN3syn3gen5clone75_$LT$impl$u20$core..clone..Clone$u20$for$u20$syn..item..ItemExternCrate$GT$5clone17h627a0e79ce1fe893E', symObjAddr: 0x2BD00, symBinAddr: 0x634B0, symSize: 0x180 }
  - { offsetInCU: 0x80059, offset: 0x1E41F3, size: 0x8, addend: 0x0, symName: '__ZN3syn3gen5clone66_$LT$impl$u20$core..clone..Clone$u20$for$u20$syn..item..ItemFn$GT$5clone17h940429ce1f3d8207E', symObjAddr: 0x2BE80, symBinAddr: 0x63630, symSize: 0x180 }
  - { offsetInCU: 0x802F1, offset: 0x1E448B, size: 0x8, addend: 0x0, symName: '__ZN3syn3gen5clone68_$LT$impl$u20$core..clone..Clone$u20$for$u20$syn..item..ItemImpl$GT$5clone17h99822f22f76475b6E', symObjAddr: 0x2C0D0, symBinAddr: 0x637B0, symSize: 0x460 }
  - { offsetInCU: 0x807F2, offset: 0x1E498C, size: 0x8, addend: 0x0, symName: '__ZN3syn3gen5clone69_$LT$impl$u20$core..clone..Clone$u20$for$u20$syn..item..ItemMacro$GT$5clone17h65b79b89ccdb0674E', symObjAddr: 0x2C530, symBinAddr: 0x63C10, symSize: 0x110 }
  - { offsetInCU: 0x80A2E, offset: 0x1E4BC8, size: 0x8, addend: 0x0, symName: '__ZN3syn3gen5clone70_$LT$impl$u20$core..clone..Clone$u20$for$u20$syn..item..ItemMacro2$GT$5clone17h991c2df9fefed252E', symObjAddr: 0x2C640, symBinAddr: 0x63D20, symSize: 0x1A0 }
  - { offsetInCU: 0x80E37, offset: 0x1E4FD1, size: 0x8, addend: 0x0, symName: '__ZN3syn3gen5clone67_$LT$impl$u20$core..clone..Clone$u20$for$u20$syn..item..ItemMod$GT$5clone17h56cf528e17dd7490E', symObjAddr: 0x2C7E0, symBinAddr: 0x63EC0, symSize: 0x160 }
  - { offsetInCU: 0x810B1, offset: 0x1E524B, size: 0x8, addend: 0x0, symName: '__ZN3syn3gen5clone70_$LT$impl$u20$core..clone..Clone$u20$for$u20$syn..item..ItemStatic$GT$5clone17hdf091bb88ac38b47E', symObjAddr: 0x2C940, symBinAddr: 0x64020, symSize: 0x280 }
  - { offsetInCU: 0x81782, offset: 0x1E591C, size: 0x8, addend: 0x0, symName: '__ZN3syn3gen5clone70_$LT$impl$u20$core..clone..Clone$u20$for$u20$syn..item..ItemStruct$GT$5clone17hd8a59448b138557aE', symObjAddr: 0x2CBC0, symBinAddr: 0x642A0, symSize: 0x380 }
  - { offsetInCU: 0x81B97, offset: 0x1E5D31, size: 0x8, addend: 0x0, symName: '__ZN3syn3gen5clone69_$LT$impl$u20$core..clone..Clone$u20$for$u20$syn..item..ItemTrait$GT$5clone17h05a37713845a0c0bE', symObjAddr: 0x2CF40, symBinAddr: 0x64620, symSize: 0x3C0 }
  - { offsetInCU: 0x81F55, offset: 0x1E60EF, size: 0x8, addend: 0x0, symName: '__ZN3syn3gen5clone74_$LT$impl$u20$core..clone..Clone$u20$for$u20$syn..item..ItemTraitAlias$GT$5clone17hf8c8d2db95754afdE', symObjAddr: 0x2D300, symBinAddr: 0x649E0, symSize: 0x310 }
  - { offsetInCU: 0x822B5, offset: 0x1E644F, size: 0x8, addend: 0x0, symName: '__ZN3syn3gen5clone68_$LT$impl$u20$core..clone..Clone$u20$for$u20$syn..item..ItemType$GT$5clone17h1d1420c2f836bc7eE', symObjAddr: 0x2D610, symBinAddr: 0x64CF0, symSize: 0x340 }
  - { offsetInCU: 0x82831, offset: 0x1E69CB, size: 0x8, addend: 0x0, symName: '__ZN3syn3gen5clone69_$LT$impl$u20$core..clone..Clone$u20$for$u20$syn..item..ItemUnion$GT$5clone17h7b2f56fc86343981E', symObjAddr: 0x2D950, symBinAddr: 0x65030, symSize: 0x310 }
  - { offsetInCU: 0x82B61, offset: 0x1E6CFB, size: 0x8, addend: 0x0, symName: '__ZN3syn3gen5clone67_$LT$impl$u20$core..clone..Clone$u20$for$u20$syn..item..ItemUse$GT$5clone17h16e4d2ca744347fbE', symObjAddr: 0x2DC60, symBinAddr: 0x65340, symSize: 0x110 }
  - { offsetInCU: 0x82C21, offset: 0x1E6DBB, size: 0x8, addend: 0x0, symName: '__ZN3syn3gen5clone69_$LT$impl$u20$core..clone..Clone$u20$for$u20$syn..item..Signature$GT$5clone17h527c1da3117ac0c2E', symObjAddr: 0x2DE50, symBinAddr: 0x65450, symSize: 0x530 }
  - { offsetInCU: 0x83426, offset: 0x1E75C0, size: 0x8, addend: 0x0, symName: '__ZN3syn3gen5clone69_$LT$impl$u20$core..clone..Clone$u20$for$u20$syn..item..TraitItem$GT$5clone17h3b82f8b5271b5af7E', symObjAddr: 0x2E380, symBinAddr: 0x65980, symSize: 0x1E0 }
  - { offsetInCU: 0x83767, offset: 0x1E7901, size: 0x8, addend: 0x0, symName: '__ZN3syn3gen5clone74_$LT$impl$u20$core..clone..Clone$u20$for$u20$syn..item..TraitItemConst$GT$5clone17ha12a3469e74263a0E', symObjAddr: 0x2E560, symBinAddr: 0x65B60, symSize: 0x1E0 }
  - { offsetInCU: 0x83A24, offset: 0x1E7BBE, size: 0x8, addend: 0x0, symName: '__ZN3syn3gen5clone75_$LT$impl$u20$core..clone..Clone$u20$for$u20$syn..item..TraitItemMethod$GT$5clone17hc5f98fa3110d949bE', symObjAddr: 0x2E740, symBinAddr: 0x65D40, symSize: 0x130 }
  - { offsetInCU: 0x83B18, offset: 0x1E7CB2, size: 0x8, addend: 0x0, symName: '__ZN3syn3gen5clone73_$LT$impl$u20$core..clone..Clone$u20$for$u20$syn..item..TraitItemType$GT$5clone17h322c8f681c4ed7c4E', symObjAddr: 0x2E870, symBinAddr: 0x65E70, symSize: 0x370 }
  - { offsetInCU: 0x87A3A, offset: 0x1EBBD4, size: 0x8, addend: 0x0, symName: '__ZN5alloc3vec16Vec$LT$T$C$A$GT$15append_elements17h515b13e7a2841833E', symObjAddr: 0xC990, symBinAddr: 0x4BA20, symSize: 0x70 }
  - { offsetInCU: 0x87C70, offset: 0x1EBE0A, size: 0x8, addend: 0x0, symName: __ZN3syn4item4Item13replace_attrs17h27bc8d233ea7e24cE, symObjAddr: 0xD2C0, symBinAddr: 0x4BA90, symSize: 0x1C0 }
  - { offsetInCU: 0x1E, offset: 0x1FE3E7, size: 0x8, addend: 0x0, symName: '__ZN4core3ptr100drop_in_place$LT$core..option..Option$LT$alloc..boxed..Box$LT$syn..generics..LifetimeDef$GT$$GT$$GT$17h75a6086997697dd7E.llvm.16532739692444164112', symObjAddr: 0x0, symBinAddr: 0x66470, symSize: 0x50 }
  - { offsetInCU: 0x1583, offset: 0x1FF94C, size: 0x8, addend: 0x0, symName: '__ZN111_$LT$syn..punctuated..PrivateIter$LT$T$C$P$GT$$u20$as$u20$core..iter..traits..exact_size..ExactSizeIterator$GT$3len17hf961cff6ad363ebcE.llvm.16532739692444164112', symObjAddr: 0x12520, symBinAddr: 0x734E0, symSize: 0x30 }
  - { offsetInCU: 0x1738, offset: 0x1FFB01, size: 0x8, addend: 0x0, symName: '__ZN115_$LT$syn..punctuated..PrivateIter$LT$T$C$P$GT$$u20$as$u20$core..iter..traits..double_ended..DoubleEndedIterator$GT$9next_back17h511dcfc6e4846953E.llvm.16532739692444164112', symObjAddr: 0x12400, symBinAddr: 0x734B0, symSize: 0x30 }
  - { offsetInCU: 0x1B17, offset: 0x1FFEE0, size: 0x8, addend: 0x0, symName: '__ZN100_$LT$syn..punctuated..PrivateIter$LT$T$C$P$GT$$u20$as$u20$core..iter..traits..iterator..Iterator$GT$4next17h6d856dbf85f5e49bE.llvm.16532739692444164112', symObjAddr: 0x12340, symBinAddr: 0x73450, symSize: 0x30 }
  - { offsetInCU: 0x1D92, offset: 0x20015B, size: 0x8, addend: 0x0, symName: '__ZN100_$LT$syn..punctuated..PrivateIter$LT$T$C$P$GT$$u20$as$u20$core..iter..traits..iterator..Iterator$GT$4next17h7d8b0100903e1490E.llvm.16532739692444164112', symObjAddr: 0x123A0, symBinAddr: 0x73480, symSize: 0x30 }
  - { offsetInCU: 0x2522, offset: 0x2008EB, size: 0x8, addend: 0x0, symName: '__ZN79_$LT$syn..punctuated..Punctuated$LT$T$C$P$GT$$u20$as$u20$core..clone..Clone$GT$5clone17h11f716f7c70263efE', symObjAddr: 0xDDE0, symBinAddr: 0x721E0, symSize: 0xE0 }
  - { offsetInCU: 0x27A8, offset: 0x200B71, size: 0x8, addend: 0x0, symName: '__ZN79_$LT$syn..punctuated..Punctuated$LT$T$C$P$GT$$u20$as$u20$core..clone..Clone$GT$5clone17h16b574025162a927E', symObjAddr: 0xDEC0, symBinAddr: 0x722C0, symSize: 0xC0 }
  - { offsetInCU: 0x29D6, offset: 0x200D9F, size: 0x8, addend: 0x0, symName: '__ZN79_$LT$syn..punctuated..Punctuated$LT$T$C$P$GT$$u20$as$u20$core..clone..Clone$GT$5clone17h248ce364975e5563E', symObjAddr: 0xDF80, symBinAddr: 0x72380, symSize: 0xE0 }
  - { offsetInCU: 0x2C5D, offset: 0x201026, size: 0x8, addend: 0x0, symName: '__ZN79_$LT$syn..punctuated..Punctuated$LT$T$C$P$GT$$u20$as$u20$core..clone..Clone$GT$5clone17h2cb3b5c3adb260feE', symObjAddr: 0xE060, symBinAddr: 0x72460, symSize: 0xE0 }
  - { offsetInCU: 0x2EE4, offset: 0x2012AD, size: 0x8, addend: 0x0, symName: '__ZN79_$LT$syn..punctuated..Punctuated$LT$T$C$P$GT$$u20$as$u20$core..clone..Clone$GT$5clone17h56e1f4ad041a44ceE', symObjAddr: 0xE240, symBinAddr: 0x72540, symSize: 0xE0 }
  - { offsetInCU: 0x316B, offset: 0x201534, size: 0x8, addend: 0x0, symName: '__ZN79_$LT$syn..punctuated..Punctuated$LT$T$C$P$GT$$u20$as$u20$core..clone..Clone$GT$5clone17h5806b3a5c1b4f2a6E', symObjAddr: 0xE320, symBinAddr: 0x72620, symSize: 0xE0 }
  - { offsetInCU: 0x33F1, offset: 0x2017BA, size: 0x8, addend: 0x0, symName: '__ZN79_$LT$syn..punctuated..Punctuated$LT$T$C$P$GT$$u20$as$u20$core..clone..Clone$GT$5clone17h682a84abd40a7cfeE', symObjAddr: 0xE400, symBinAddr: 0x72700, symSize: 0xE0 }
  - { offsetInCU: 0x3678, offset: 0x201A41, size: 0x8, addend: 0x0, symName: '__ZN79_$LT$syn..punctuated..Punctuated$LT$T$C$P$GT$$u20$as$u20$core..clone..Clone$GT$5clone17h748e57bad821d612E', symObjAddr: 0xE4E0, symBinAddr: 0x727E0, symSize: 0xD0 }
  - { offsetInCU: 0x38FE, offset: 0x201CC7, size: 0x8, addend: 0x0, symName: '__ZN79_$LT$syn..punctuated..Punctuated$LT$T$C$P$GT$$u20$as$u20$core..clone..Clone$GT$5clone17h7dc69fd3509f726bE', symObjAddr: 0xE6D0, symBinAddr: 0x728B0, symSize: 0xE0 }
  - { offsetInCU: 0x3B85, offset: 0x201F4E, size: 0x8, addend: 0x0, symName: '__ZN79_$LT$syn..punctuated..Punctuated$LT$T$C$P$GT$$u20$as$u20$core..clone..Clone$GT$5clone17had7f902178348c63E', symObjAddr: 0xE9A0, symBinAddr: 0x72990, symSize: 0x180 }
  - { offsetInCU: 0x3F57, offset: 0x202320, size: 0x8, addend: 0x0, symName: '__ZN79_$LT$syn..punctuated..Punctuated$LT$T$C$P$GT$$u20$as$u20$core..clone..Clone$GT$5clone17hb75d2d633cc2d1edE', symObjAddr: 0xEB20, symBinAddr: 0x72B10, symSize: 0x110 }
  - { offsetInCU: 0x42BA, offset: 0x202683, size: 0x8, addend: 0x0, symName: '__ZN79_$LT$syn..punctuated..Punctuated$LT$T$C$P$GT$$u20$as$u20$core..clone..Clone$GT$5clone17hd0e9f97bdac7287eE', symObjAddr: 0xED10, symBinAddr: 0x72C20, symSize: 0x150 }
  - { offsetInCU: 0x458D, offset: 0x202956, size: 0x8, addend: 0x0, symName: '__ZN79_$LT$syn..punctuated..Punctuated$LT$T$C$P$GT$$u20$as$u20$core..clone..Clone$GT$5clone17he55a9d80253adee0E', symObjAddr: 0xEF40, symBinAddr: 0x72D70, symSize: 0xE0 }
  - { offsetInCU: 0x481A, offset: 0x202BE3, size: 0x8, addend: 0x0, symName: '__ZN138_$LT$syn..punctuated..Punctuated$LT$T$C$P$GT$$u20$as$u20$core..iter..traits..collect..Extend$LT$syn..punctuated..Pair$LT$T$C$P$GT$$GT$$GT$6extend17h46e8b111646272d1E', symObjAddr: 0x110F0, symBinAddr: 0x72E50, symSize: 0x340 }
  - { offsetInCU: 0x50DD, offset: 0x2034A6, size: 0x8, addend: 0x0, symName: '__ZN102_$LT$syn..punctuated..Punctuated$LT$T$C$P$GT$$u20$as$u20$core..iter..traits..collect..IntoIterator$GT$9into_iter17h83e18cee80a4ec2fE', symObjAddr: 0x11710, symBinAddr: 0x73190, symSize: 0x2C0 }
  - { offsetInCU: 0x679E, offset: 0x204B67, size: 0x8, addend: 0x0, symName: '__ZN57_$LT$I$u20$as$u20$syn..punctuated..IterTrait$LT$T$GT$$GT$9clone_box17hf91e00e1143972f2E.llvm.16532739692444164112', symObjAddr: 0x12670, symBinAddr: 0x73510, symSize: 0x60 }
  - { offsetInCU: 0x69B1, offset: 0x204D7A, size: 0x8, addend: 0x0, symName: '__ZN97_$LT$syn..punctuated..Punctuated$LT$T$C$P$GT$$u20$as$u20$core..ops..index..Index$LT$usize$GT$$GT$5index17ha3e39e7328b6f7abE', symObjAddr: 0x126D0, symBinAddr: 0x73570, symSize: 0x50 }
  - { offsetInCU: 0x6AFF, offset: 0x204EC8, size: 0x8, addend: 0x0, symName: '__ZN3syn10punctuated8printing97_$LT$impl$u20$quote..to_tokens..ToTokens$u20$for$u20$syn..punctuated..Punctuated$LT$T$C$P$GT$$GT$9to_tokens17h4c504ab6a95422ddE', symObjAddr: 0x12880, symBinAddr: 0x735C0, symSize: 0x150 }
  - { offsetInCU: 0x1285B, offset: 0x210C24, size: 0x8, addend: 0x0, symName: '__ZN4core3ptr100drop_in_place$LT$core..option..Option$LT$alloc..boxed..Box$LT$syn..generics..LifetimeDef$GT$$GT$$GT$17h75a6086997697dd7E.llvm.16532739692444164112', symObjAddr: 0x0, symBinAddr: 0x66470, symSize: 0x50 }
  - { offsetInCU: 0x129DD, offset: 0x210DA6, size: 0x8, addend: 0x0, symName: '__ZN4core3ptr100drop_in_place$LT$core..option..Option$LT$alloc..boxed..Box$LT$syn..path..GenericArgument$GT$$GT$$GT$17h3d29ec00a8f1918dE.llvm.16532739692444164112', symObjAddr: 0x50, symBinAddr: 0x664C0, symSize: 0x50 }
  - { offsetInCU: 0x12B6C, offset: 0x210F35, size: 0x8, addend: 0x0, symName: '__ZN4core3ptr101drop_in_place$LT$alloc..vec..Vec$LT$$LP$syn..generics..WherePredicate$C$syn..token..Comma$RP$$GT$$GT$17h08dfdcabd164aa70E.llvm.16532739692444164112', symObjAddr: 0xA0, symBinAddr: 0x66510, symSize: 0xD0 }
  - { offsetInCU: 0x12FB3, offset: 0x21137C, size: 0x8, addend: 0x0, symName: '__ZN4core3ptr103drop_in_place$LT$core..option..Option$LT$alloc..boxed..Box$LT$syn..generics..TypeParamBound$GT$$GT$$GT$17h6cee73bc2b2ecea8E.llvm.16532739692444164112', symObjAddr: 0x170, symBinAddr: 0x665E0, symSize: 0x150 }
  - { offsetInCU: 0x13571, offset: 0x21193A, size: 0x8, addend: 0x0, symName: '__ZN4core3ptr103drop_in_place$LT$syn..punctuated..Punctuated$LT$syn..generics..TypeParamBound$C$syn..token..Add$GT$$GT$17he811d520c92af08aE.llvm.16532739692444164112', symObjAddr: 0x2C0, symBinAddr: 0x66730, symSize: 0xF0 }
  - { offsetInCU: 0x13AAE, offset: 0x211E77, size: 0x8, addend: 0x0, symName: '__ZN4core3ptr104drop_in_place$LT$alloc..vec..Vec$LT$$LP$syn..expr..GenericMethodArgument$C$syn..token..Comma$RP$$GT$$GT$17heae48b13c44e912aE.llvm.16532739692444164112', symObjAddr: 0x3B0, symBinAddr: 0x66820, symSize: 0xF0 }
  - { offsetInCU: 0x13E18, offset: 0x2121E1, size: 0x8, addend: 0x0, symName: '__ZN4core3ptr108drop_in_place$LT$syn..punctuated..Punctuated$LT$syn..expr..GenericMethodArgument$C$syn..token..Comma$GT$$GT$17h92cbabe4862b2183E', symObjAddr: 0x4A0, symBinAddr: 0x66910, symSize: 0x150 }
  - { offsetInCU: 0x142F5, offset: 0x2126BE, size: 0x8, addend: 0x0, symName: '__ZN4core3ptr126drop_in_place$LT$core..option..Option$LT$$LP$syn..token..And$C$core..option..Option$LT$syn..lifetime..Lifetime$GT$$RP$$GT$$GT$17h5979d670cb45416cE', symObjAddr: 0x5F0, symBinAddr: 0x66A60, symSize: 0x30 }
  - { offsetInCU: 0x14508, offset: 0x2128D1, size: 0x8, addend: 0x0, symName: '__ZN4core3ptr34drop_in_place$LT$syn..lit..Lit$GT$17hbe1efe749a08dd9aE', symObjAddr: 0x620, symBinAddr: 0x66A90, symSize: 0x110 }
  - { offsetInCU: 0x149B8, offset: 0x212D81, size: 0x8, addend: 0x0, symName: '__ZN4core3ptr34drop_in_place$LT$syn..pat..Pat$GT$17h3201f642e43ac2a2E.llvm.16532739692444164112', symObjAddr: 0x730, symBinAddr: 0x66BA0, symSize: 0x1190 }
  - { offsetInCU: 0x188B1, offset: 0x216C7A, size: 0x8, addend: 0x0, symName: '__ZN4core3ptr34drop_in_place$LT$syn..ty..Type$GT$17hfb5d159a08190130E.llvm.16532739692444164112', symObjAddr: 0x18C0, symBinAddr: 0x67D30, symSize: 0x580 }
  - { offsetInCU: 0x1A1C2, offset: 0x21858B, size: 0x8, addend: 0x0, symName: '__ZN4core3ptr36drop_in_place$LT$syn..expr..Expr$GT$17hf1921d1b09462bc3E.llvm.16532739692444164112', symObjAddr: 0x2100, symBinAddr: 0x682B0, symSize: 0x3290 }
  - { offsetInCU: 0x24A53, offset: 0x222E1C, size: 0x8, addend: 0x0, symName: '__ZN4core3ptr36drop_in_place$LT$syn..mac..Macro$GT$17h205613d7ad575f72E', symObjAddr: 0x5390, symBinAddr: 0x6B540, symSize: 0x40 }
  - { offsetInCU: 0x24A8D, offset: 0x222E56, size: 0x8, addend: 0x0, symName: '__ZN4core3ptr36drop_in_place$LT$syn..path..Path$GT$17he6d0bec66d66b98aE.llvm.16532739692444164112', symObjAddr: 0x53D0, symBinAddr: 0x6B580, symSize: 0xE0 }
  - { offsetInCU: 0x24D9C, offset: 0x223165, size: 0x8, addend: 0x0, symName: '__ZN4core3ptr37drop_in_place$LT$syn..data..Field$GT$17h6bfcb460cfa4c863E.llvm.16532739692444164112', symObjAddr: 0x54B0, symBinAddr: 0x6B660, symSize: 0x150 }
  - { offsetInCU: 0x251DA, offset: 0x2235A3, size: 0x8, addend: 0x0, symName: '__ZN4core3ptr37drop_in_place$LT$syn..item..FnArg$GT$17h52a13b3505938de2E.llvm.16532739692444164112', symObjAddr: 0x5600, symBinAddr: 0x6B7B0, symSize: 0x290 }
  - { offsetInCU: 0x25C31, offset: 0x223FFA, size: 0x8, addend: 0x0, symName: '__ZN4core3ptr37drop_in_place$LT$syn..stmt..Block$GT$17h3aa429e75a234230E', symObjAddr: 0x5890, symBinAddr: 0x6BA40, symSize: 0xD0 }
  - { offsetInCU: 0x25F08, offset: 0x2242D1, size: 0x8, addend: 0x0, symName: '__ZN4core3ptr38drop_in_place$LT$syn..expr..Member$GT$17ha113d37a67d27aafE.llvm.16532739692444164112', symObjAddr: 0x5960, symBinAddr: 0x6BB10, symSize: 0x30 }
  - { offsetInCU: 0x26004, offset: 0x2243CD, size: 0x8, addend: 0x0, symName: '__ZN4core3ptr39drop_in_place$LT$proc_macro2..Ident$GT$17hdeec010483268a0dE', symObjAddr: 0x5990, symBinAddr: 0x6BB40, symSize: 0x30 }
  - { offsetInCU: 0x2613E, offset: 0x224507, size: 0x8, addend: 0x0, symName: '__ZN4core3ptr39drop_in_place$LT$syn..data..Variant$GT$17hdf59a2045a52b17cE', symObjAddr: 0x59C0, symBinAddr: 0x6BB70, symSize: 0x170 }
  - { offsetInCU: 0x2663E, offset: 0x224A07, size: 0x8, addend: 0x0, symName: '__ZN4core3ptr39drop_in_place$LT$syn..item..UseTree$GT$17h78d4ed19b48b8cbfE', symObjAddr: 0x5B30, symBinAddr: 0x6BCE0, symSize: 0xE0 }
  - { offsetInCU: 0x26A04, offset: 0x224DCD, size: 0x8, addend: 0x0, symName: '__ZN4core3ptr39drop_in_place$LT$syn..pat..FieldPat$GT$17hbb4451e28b58676aE.llvm.16532739692444164112', symObjAddr: 0x5C10, symBinAddr: 0x6BDC0, symSize: 0x150 }
  - { offsetInCU: 0x26F66, offset: 0x22532F, size: 0x8, addend: 0x0, symName: '__ZN4core3ptr39drop_in_place$LT$syn..pat..PatTuple$GT$17h96faeea9832d4c4bE', symObjAddr: 0x5D60, symBinAddr: 0x6BF10, symSize: 0x100 }
  - { offsetInCU: 0x272AD, offset: 0x225676, size: 0x8, addend: 0x0, symName: '__ZN4core3ptr39drop_in_place$LT$syn..ty..BareFnArg$GT$17hed52ce54f3b53a34E.llvm.16532739692444164112', symObjAddr: 0x5E60, symBinAddr: 0x6C010, symSize: 0x120 }
  - { offsetInCU: 0x276BA, offset: 0x225A83, size: 0x8, addend: 0x0, symName: '__ZN4core3ptr40drop_in_place$LT$syn..ty..ReturnType$GT$17h6f97c9fdb958983eE', symObjAddr: 0x5F80, symBinAddr: 0x6C130, symSize: 0x50 }
  - { offsetInCU: 0x27868, offset: 0x225C31, size: 0x8, addend: 0x0, symName: '__ZN4core3ptr42drop_in_place$LT$syn..data..Visibility$GT$17h27e8b6ad307fcbc7E', symObjAddr: 0x6000, symBinAddr: 0x6C180, symSize: 0x120 }
  - { offsetInCU: 0x27CBE, offset: 0x226087, size: 0x8, addend: 0x0, symName: '__ZN4core3ptr42drop_in_place$LT$syn..expr..FieldValue$GT$17h42a16bcbdc918058E.llvm.16532739692444164112', symObjAddr: 0x6120, symBinAddr: 0x6C2A0, symSize: 0x120 }
  - { offsetInCU: 0x28165, offset: 0x22652E, size: 0x8, addend: 0x0, symName: '__ZN4core3ptr43drop_in_place$LT$syn..path..PathSegment$GT$17h3d0f44137dd31bf9E.llvm.16532739692444164112', symObjAddr: 0x6240, symBinAddr: 0x6C3C0, symSize: 0x170 }
  - { offsetInCU: 0x286C5, offset: 0x226A8E, size: 0x8, addend: 0x0, symName: '__ZN4core3ptr44drop_in_place$LT$syn..lifetime..Lifetime$GT$17h3858225df033648aE.llvm.16532739692444164112', symObjAddr: 0x63B0, symBinAddr: 0x6C530, symSize: 0x30 }
  - { offsetInCU: 0x288F7, offset: 0x226CC0, size: 0x8, addend: 0x0, symName: '__ZN4core3ptr45drop_in_place$LT$proc_macro2..TokenStream$GT$17h2507cb30e765dc85E', symObjAddr: 0x63E0, symBinAddr: 0x6C560, symSize: 0x140 }
  - { offsetInCU: 0x28D53, offset: 0x22711C, size: 0x8, addend: 0x0, symName: '__ZN4core3ptr47drop_in_place$LT$syn..generics..LifetimeDef$GT$17hd04bc9e6ed9dfb47E.llvm.16532739692444164112', symObjAddr: 0x6520, symBinAddr: 0x6C6A0, symSize: 0x120 }
  - { offsetInCU: 0x291AE, offset: 0x227577, size: 0x8, addend: 0x0, symName: '__ZN4core3ptr47drop_in_place$LT$syn..path..GenericArgument$GT$17h8c0a0d8c6deaefb4E.llvm.16532739692444164112', symObjAddr: 0x6640, symBinAddr: 0x6C7C0, symSize: 0x110 }
  - { offsetInCU: 0x29545, offset: 0x22790E, size: 0x8, addend: 0x0, symName: '__ZN4core3ptr48drop_in_place$LT$syn..generics..GenericParam$GT$17h9292481f35bf25edE.llvm.16532739692444164112', symObjAddr: 0x6750, symBinAddr: 0x6C8D0, symSize: 0x300 }
  - { offsetInCU: 0x29D69, offset: 0x228132, size: 0x8, addend: 0x0, symName: '__ZN4core3ptr50drop_in_place$LT$syn..generics..TypeParamBound$GT$17h8d9a306b4a7f920fE.llvm.16532739692444164112', symObjAddr: 0x6A50, symBinAddr: 0x6CBD0, symSize: 0x150 }
  - { offsetInCU: 0x2A1DC, offset: 0x2285A5, size: 0x8, addend: 0x0, symName: '__ZN4core3ptr50drop_in_place$LT$syn..generics..WherePredicate$GT$17h1fc5b3da95266304E.llvm.16532739692444164112', symObjAddr: 0x6BA0, symBinAddr: 0x6CD20, symSize: 0x100 }
  - { offsetInCU: 0x2A363, offset: 0x22872C, size: 0x8, addend: 0x0, symName: '__ZN4core3ptr53drop_in_place$LT$syn..expr..GenericMethodArgument$GT$17h74a5a2396c2f7da6E.llvm.16532739692444164112', symObjAddr: 0x6CA0, symBinAddr: 0x6CE20, symSize: 0x30 }
  - { offsetInCU: 0x2A380, offset: 0x228749, size: 0x8, addend: 0x0, symName: '__ZN4core3ptr58drop_in_place$LT$alloc..vec..Vec$LT$syn..expr..Arm$GT$$GT$17hf3db0825f3d9c861E', symObjAddr: 0x6CD0, symBinAddr: 0x6CE50, symSize: 0xD0 }
  - { offsetInCU: 0x2A640, offset: 0x228A09, size: 0x8, addend: 0x0, symName: '__ZN4core3ptr59drop_in_place$LT$alloc..boxed..Box$LT$syn..pat..Pat$GT$$GT$17h7037ce9bbd3729c6E.llvm.16532739692444164112', symObjAddr: 0x6DA0, symBinAddr: 0x6CF20, symSize: 0x50 }
  - { offsetInCU: 0x2A799, offset: 0x228B62, size: 0x8, addend: 0x0, symName: '__ZN4core3ptr59drop_in_place$LT$alloc..boxed..Box$LT$syn..ty..Type$GT$$GT$17h2eccd13329dbe4faE.llvm.16532739692444164112', symObjAddr: 0x6DF0, symBinAddr: 0x6CF70, symSize: 0x50 }
  - { offsetInCU: 0x2A8F2, offset: 0x228CBB, size: 0x8, addend: 0x0, symName: '__ZN4core3ptr61drop_in_place$LT$alloc..boxed..Box$LT$syn..expr..Expr$GT$$GT$17h66094ddc89015516E.llvm.16532739692444164112', symObjAddr: 0x6F10, symBinAddr: 0x6CFC0, symSize: 0x50 }
  - { offsetInCU: 0x2AAC7, offset: 0x228E90, size: 0x8, addend: 0x0, symName: '__ZN4core3ptr61drop_in_place$LT$syn..path..ParenthesizedGenericArguments$GT$17h21be9b1d7a6fab55E.llvm.16532739692444164112', symObjAddr: 0x6F60, symBinAddr: 0x6D010, symSize: 0x170 }
  - { offsetInCU: 0x2B0D0, offset: 0x229499, size: 0x8, addend: 0x0, symName: '__ZN4core3ptr63drop_in_place$LT$alloc..boxed..Box$LT$syn..lit..LitRepr$GT$$GT$17h9c509b794406150eE', symObjAddr: 0x7170, symBinAddr: 0x6D180, symSize: 0x60 }
  - { offsetInCU: 0x2B3B8, offset: 0x229781, size: 0x8, addend: 0x0, symName: '__ZN4core3ptr64drop_in_place$LT$alloc..boxed..Box$LT$syn..item..UseTree$GT$$GT$17h2fbb30105f88b737E', symObjAddr: 0x7220, symBinAddr: 0x6D1E0, symSize: 0x100 }
  - { offsetInCU: 0x2B8E6, offset: 0x229CAF, size: 0x8, addend: 0x0, symName: '__ZN4core3ptr64drop_in_place$LT$alloc..boxed..Box$LT$syn..pat..FieldPat$GT$$GT$17hb167b355d0d4733fE', symObjAddr: 0x7320, symBinAddr: 0x6D2E0, symSize: 0x180 }
  - { offsetInCU: 0x2BFC5, offset: 0x22A38E, size: 0x8, addend: 0x0, symName: '__ZN4core3ptr64drop_in_place$LT$alloc..boxed..Box$LT$syn..ty..BareFnArg$GT$$GT$17h6488be9448346678E', symObjAddr: 0x74A0, symBinAddr: 0x6D460, symSize: 0x160 }
  - { offsetInCU: 0x2C55B, offset: 0x22A924, size: 0x8, addend: 0x0, symName: '__ZN4core3ptr65drop_in_place$LT$alloc..vec..Vec$LT$proc_macro..TokenTree$GT$$GT$17hc3670dd5608d5259E', symObjAddr: 0x7600, symBinAddr: 0x6D5C0, symSize: 0x110 }
  - { offsetInCU: 0x2C953, offset: 0x22AD1C, size: 0x8, addend: 0x0, symName: '__ZN4core3ptr65drop_in_place$LT$core..option..Option$LT$syn..expr..Label$GT$$GT$17ha723640fd01bec5dE', symObjAddr: 0x7710, symBinAddr: 0x6D6D0, symSize: 0x30 }
  - { offsetInCU: 0x2CA8D, offset: 0x22AE56, size: 0x8, addend: 0x0, symName: '__ZN4core3ptr66drop_in_place$LT$core..option..Option$LT$syn..ty..Variadic$GT$$GT$17hc32134bb3933b0dfE', symObjAddr: 0x7740, symBinAddr: 0x6D700, symSize: 0xF0 }
  - { offsetInCU: 0x2CDB7, offset: 0x22B180, size: 0x8, addend: 0x0, symName: '__ZN4core3ptr67drop_in_place$LT$alloc..boxed..Box$LT$syn..expr..FieldValue$GT$$GT$17h8df780aa600ea8c2E', symObjAddr: 0x78A0, symBinAddr: 0x6D7F0, symSize: 0x160 }
  - { offsetInCU: 0x2D38A, offset: 0x22B753, size: 0x8, addend: 0x0, symName: '__ZN4core3ptr73drop_in_place$LT$alloc..vec..Vec$LT$syn..generics..TypeParamBound$GT$$GT$17h5d27515ea87a306aE.llvm.16532739692444164112', symObjAddr: 0x7CF0, symBinAddr: 0x6D950, symSize: 0xC0 }
  - { offsetInCU: 0x2D65B, offset: 0x22BA24, size: 0x8, addend: 0x0, symName: '__ZN4core3ptr75drop_in_place$LT$alloc..boxed..Box$LT$syn..generics..TypeParamBound$GT$$GT$17h8f156ce07ea0b8b2E', symObjAddr: 0x7DB0, symBinAddr: 0x6DA10, symSize: 0x90 }
  - { offsetInCU: 0x2D91E, offset: 0x22BCE7, size: 0x8, addend: 0x0, symName: '__ZN4core3ptr78drop_in_place$LT$alloc..boxed..Box$LT$syn..expr..GenericMethodArgument$GT$$GT$17h3384c00b5bd54c2aE', symObjAddr: 0x7E90, symBinAddr: 0x6DAA0, symSize: 0x60 }
  - { offsetInCU: 0x2DB2F, offset: 0x22BEF8, size: 0x8, addend: 0x0, symName: '__ZN4core3ptr78drop_in_place$LT$core..option..Option$LT$syn..generics..BoundLifetimes$GT$$GT$17h8175e66ad0c4a156E.llvm.16532739692444164112', symObjAddr: 0x7EF0, symBinAddr: 0x6DB00, symSize: 0x120 }
  - { offsetInCU: 0x2DF97, offset: 0x22C360, size: 0x8, addend: 0x0, symName: '__ZN4core3ptr81drop_in_place$LT$$LP$syn..expr..GenericMethodArgument$C$syn..token..Comma$RP$$GT$17h6cb8506ab56d85d6E.llvm.16532739692444164112', symObjAddr: 0x80E0, symBinAddr: 0x6DC20, symSize: 0x30 }
  - { offsetInCU: 0x2E005, offset: 0x22C3CE, size: 0x8, addend: 0x0, symName: '__ZN4core3ptr82drop_in_place$LT$alloc..vec..Vec$LT$$LP$syn..pat..Pat$C$syn..token..Or$RP$$GT$$GT$17he4f1446f4dd0391dE.llvm.16532739692444164112', symObjAddr: 0x8110, symBinAddr: 0x6DC50, symSize: 0x0 }
  - { offsetInCU: 0x2E2FD, offset: 0x22C6C6, size: 0x8, addend: 0x0, symName: '__ZN4core3ptr85drop_in_place$LT$alloc..vec..Vec$LT$$LP$syn..ty..Type$C$syn..token..Comma$RP$$GT$$GT$17h2558a6f370e75802E.llvm.16532739692444164112', symObjAddr: 0x81E0, symBinAddr: 0x6DD20, symSize: 0xD0 }
  - { offsetInCU: 0x2E62F, offset: 0x22C9F8, size: 0x8, addend: 0x0, symName: '__ZN4core3ptr86drop_in_place$LT$syn..punctuated..Punctuated$LT$syn..pat..Pat$C$syn..token..Or$GT$$GT$17h1078c5d178d382b7E', symObjAddr: 0x82B0, symBinAddr: 0x6DDF0, symSize: 0x120 }
  - { offsetInCU: 0x2EAC9, offset: 0x22CE92, size: 0x8, addend: 0x0, symName: '__ZN4core3ptr87drop_in_place$LT$alloc..vec..Vec$LT$$LP$syn..expr..Expr$C$syn..token..Comma$RP$$GT$$GT$17ha5588c79c88b2eb2E.llvm.16532739692444164112', symObjAddr: 0x83D0, symBinAddr: 0x6DF10, symSize: 0xD0 }
  - { offsetInCU: 0x2EDBD, offset: 0x22D186, size: 0x8, addend: 0x0, symName: '__ZN4core3ptr87drop_in_place$LT$core..option..Option$LT$alloc..boxed..Box$LT$syn..pat..Pat$GT$$GT$$GT$17ha7f5fe0e6f73e820E', symObjAddr: 0x84A0, symBinAddr: 0x6DFE0, symSize: 0x50 }
  - { offsetInCU: 0x2EF2D, offset: 0x22D2F6, size: 0x8, addend: 0x0, symName: '__ZN4core3ptr87drop_in_place$LT$core..option..Option$LT$alloc..boxed..Box$LT$syn..ty..Type$GT$$GT$$GT$17hc8292da82d129de3E.llvm.16532739692444164112', symObjAddr: 0x84F0, symBinAddr: 0x6E030, symSize: 0x50 }
  - { offsetInCU: 0x2F0BC, offset: 0x22D485, size: 0x8, addend: 0x0, symName: '__ZN4core3ptr88drop_in_place$LT$alloc..vec..Vec$LT$$LP$syn..data..Field$C$syn..token..Comma$RP$$GT$$GT$17h92f883c9746a1265E.llvm.16532739692444164112', symObjAddr: 0x8540, symBinAddr: 0x6E080, symSize: 0xD0 }
  - { offsetInCU: 0x2F3CF, offset: 0x22D798, size: 0x8, addend: 0x0, symName: '__ZN4core3ptr88drop_in_place$LT$alloc..vec..Vec$LT$$LP$syn..item..FnArg$C$syn..token..Comma$RP$$GT$$GT$17h4467406a7c8f89d5E.llvm.16532739692444164112', symObjAddr: 0x8610, symBinAddr: 0x6E150, symSize: 0xD0 }
  - { offsetInCU: 0x2F6CE, offset: 0x22DA97, size: 0x8, addend: 0x0, symName: '__ZN4core3ptr89drop_in_place$LT$core..option..Option$LT$alloc..boxed..Box$LT$syn..expr..Expr$GT$$GT$$GT$17hdc211ccd33f196f2E', symObjAddr: 0x86E0, symBinAddr: 0x6E220, symSize: 0x50 }
  - { offsetInCU: 0x2F87C, offset: 0x22DC45, size: 0x8, addend: 0x0, symName: '__ZN4core3ptr89drop_in_place$LT$syn..punctuated..Punctuated$LT$syn..pat..Pat$C$syn..token..Comma$GT$$GT$17hf8371102b0500adcE', symObjAddr: 0x8730, symBinAddr: 0x6E270, symSize: 0x120 }
  - { offsetInCU: 0x2FD0E, offset: 0x22E0D7, size: 0x8, addend: 0x0, symName: '__ZN4core3ptr89drop_in_place$LT$syn..punctuated..Punctuated$LT$syn..ty..Type$C$syn..token..Comma$GT$$GT$17h1c6e43341fabea97E.llvm.16532739692444164112', symObjAddr: 0x8850, symBinAddr: 0x6E390, symSize: 0x120 }
  - { offsetInCU: 0x301A8, offset: 0x22E571, size: 0x8, addend: 0x0, symName: '__ZN4core3ptr90drop_in_place$LT$alloc..vec..Vec$LT$$LP$syn..data..Variant$C$syn..token..Comma$RP$$GT$$GT$17h7886d5ad254619b6E.llvm.16532739692444164112', symObjAddr: 0x8970, symBinAddr: 0x6E4B0, symSize: 0xD0 }
  - { offsetInCU: 0x304BB, offset: 0x22E884, size: 0x8, addend: 0x0, symName: '__ZN4core3ptr90drop_in_place$LT$alloc..vec..Vec$LT$$LP$syn..item..UseTree$C$syn..token..Comma$RP$$GT$$GT$17hd641cf5199af6a96E.llvm.16532739692444164112', symObjAddr: 0x8A40, symBinAddr: 0x6E580, symSize: 0xC0 }
  - { offsetInCU: 0x307AD, offset: 0x22EB76, size: 0x8, addend: 0x0, symName: '__ZN4core3ptr90drop_in_place$LT$alloc..vec..Vec$LT$$LP$syn..pat..FieldPat$C$syn..token..Comma$RP$$GT$$GT$17h821f3c6217b2c623E.llvm.16532739692444164112', symObjAddr: 0x8B00, symBinAddr: 0x6E640, symSize: 0xD0 }
  - { offsetInCU: 0x30A6F, offset: 0x22EE38, size: 0x8, addend: 0x0, symName: '__ZN4core3ptr90drop_in_place$LT$alloc..vec..Vec$LT$$LP$syn..ty..BareFnArg$C$syn..token..Comma$RP$$GT$$GT$17hb8d63f816cfff9deE.llvm.16532739692444164112', symObjAddr: 0x8BD0, symBinAddr: 0x6E710, symSize: 0xD0 }
  - { offsetInCU: 0x30D4E, offset: 0x22F117, size: 0x8, addend: 0x0, symName: '__ZN4core3ptr90drop_in_place$LT$core..option..Option$LT$alloc..boxed..Box$LT$syn..data..Field$GT$$GT$$GT$17he146e9f4e32c136fE.llvm.16532739692444164112', symObjAddr: 0x8CA0, symBinAddr: 0x6E7E0, symSize: 0x50 }
  - { offsetInCU: 0x30ED0, offset: 0x22F299, size: 0x8, addend: 0x0, symName: '__ZN4core3ptr91drop_in_place$LT$syn..punctuated..Punctuated$LT$syn..expr..Expr$C$syn..token..Comma$GT$$GT$17hd2dfeb0c522d9a18E.llvm.16532739692444164112', symObjAddr: 0x8CF0, symBinAddr: 0x6E830, symSize: 0x120 }
  - { offsetInCU: 0x3137D, offset: 0x22F746, size: 0x8, addend: 0x0, symName: '__ZN4core3ptr92drop_in_place$LT$core..option..Option$LT$alloc..boxed..Box$LT$syn..data..Variant$GT$$GT$$GT$17h9c9c8f3c1dc56a70E', symObjAddr: 0x8E10, symBinAddr: 0x6E950, symSize: 0x50 }
  - { offsetInCU: 0x3151E, offset: 0x22F8E7, size: 0x8, addend: 0x0, symName: '__ZN4core3ptr92drop_in_place$LT$syn..punctuated..Punctuated$LT$syn..data..Field$C$syn..token..Comma$GT$$GT$17h907c4fed8ae64bc3E', symObjAddr: 0x8E60, symBinAddr: 0x6E9A0, symSize: 0x120 }
  - { offsetInCU: 0x3198C, offset: 0x22FD55, size: 0x8, addend: 0x0, symName: '__ZN4core3ptr93drop_in_place$LT$alloc..vec..Vec$LT$$LP$syn..expr..FieldValue$C$syn..token..Comma$RP$$GT$$GT$17hd798ac33b9d22184E.llvm.16532739692444164112', symObjAddr: 0x9050, symBinAddr: 0x6EAC0, symSize: 0xD0 }
  - { offsetInCU: 0x31C6B, offset: 0x230034, size: 0x8, addend: 0x0, symName: '__ZN4core3ptr93drop_in_place$LT$alloc..vec..Vec$LT$$LP$syn..lifetime..Lifetime$C$syn..token..Add$RP$$GT$$GT$17hde298d17c652af62E.llvm.16532739692444164112', symObjAddr: 0x9120, symBinAddr: 0x6EB90, symSize: 0x90 }
  - { offsetInCU: 0x31F4D, offset: 0x230316, size: 0x8, addend: 0x0, symName: '__ZN4core3ptr94drop_in_place$LT$syn..punctuated..Punctuated$LT$syn..data..Variant$C$syn..token..Comma$GT$$GT$17hb4480d65f74dc9d7E', symObjAddr: 0x91B0, symBinAddr: 0x6EC20, symSize: 0x120 }
  - { offsetInCU: 0x323F9, offset: 0x2307C2, size: 0x8, addend: 0x0, symName: '__ZN4core3ptr94drop_in_place$LT$syn..punctuated..Punctuated$LT$syn..item..UseTree$C$syn..token..Comma$GT$$GT$17ha837d38586774c87E', symObjAddr: 0x92D0, symBinAddr: 0x6ED40, symSize: 0xF0 }
  - { offsetInCU: 0x3273B, offset: 0x230B04, size: 0x8, addend: 0x0, symName: '__ZN4core3ptr94drop_in_place$LT$syn..punctuated..Punctuated$LT$syn..pat..FieldPat$C$syn..token..Comma$GT$$GT$17h612cbc9066d5afb1E', symObjAddr: 0x93C0, symBinAddr: 0x6EE30, symSize: 0xF0 }
  - { offsetInCU: 0x32A3A, offset: 0x230E03, size: 0x8, addend: 0x0, symName: '__ZN4core3ptr94drop_in_place$LT$syn..punctuated..Punctuated$LT$syn..ty..BareFnArg$C$syn..token..Comma$GT$$GT$17ha9a668ce9972795bE', symObjAddr: 0x94B0, symBinAddr: 0x6EF20, symSize: 0xF0 }
  - { offsetInCU: 0x32D37, offset: 0x231100, size: 0x8, addend: 0x0, symName: '__ZN4core3ptr95drop_in_place$LT$alloc..vec..Vec$LT$$LP$syn..path..PathSegment$C$syn..token..Colon2$RP$$GT$$GT$17hd4ac5ab6c0f8b220E.llvm.16532739692444164112', symObjAddr: 0x95A0, symBinAddr: 0x6F010, symSize: 0xD0 }
  - { offsetInCU: 0x32FF9, offset: 0x2313C2, size: 0x8, addend: 0x0, symName: '__ZN4core3ptr95drop_in_place$LT$core..option..Option$LT$$LP$proc_macro2..Ident$C$syn..token..Colon$RP$$GT$$GT$17h7314df562090eafdE.llvm.16532739692444164112', symObjAddr: 0x9670, symBinAddr: 0x6F0E0, symSize: 0x30 }
  - { offsetInCU: 0x33152, offset: 0x23151B, size: 0x8, addend: 0x0, symName: '__ZN4core3ptr96drop_in_place$LT$core..option..Option$LT$alloc..boxed..Box$LT$syn..path..PathSegment$GT$$GT$$GT$17h2e81cbe3c70bb71cE.llvm.16532739692444164112', symObjAddr: 0x96A0, symBinAddr: 0x6F110, symSize: 0x180 }
  - { offsetInCU: 0x3382E, offset: 0x231BF7, size: 0x8, addend: 0x0, symName: '__ZN4core3ptr97drop_in_place$LT$syn..punctuated..Punctuated$LT$syn..expr..FieldValue$C$syn..token..Comma$GT$$GT$17h11a5fffb46adfb11E', symObjAddr: 0x99B0, symBinAddr: 0x6F290, symSize: 0xF0 }
  - { offsetInCU: 0x33B69, offset: 0x231F32, size: 0x8, addend: 0x0, symName: '__ZN4core3ptr97drop_in_place$LT$syn..punctuated..Punctuated$LT$syn..lifetime..Lifetime$C$syn..token..Add$GT$$GT$17h5c54dea2c838d109E.llvm.16532739692444164112', symObjAddr: 0x9AA0, symBinAddr: 0x6F380, symSize: 0xD0 }
  - { offsetInCU: 0x33FDD, offset: 0x2323A6, size: 0x8, addend: 0x0, symName: '__ZN4core3ptr98drop_in_place$LT$alloc..vec..Vec$LT$$LP$syn..generics..LifetimeDef$C$syn..token..Comma$RP$$GT$$GT$17h1ff3008828a3546eE.llvm.16532739692444164112', symObjAddr: 0x9B70, symBinAddr: 0x6F450, symSize: 0xC0 }
  - { offsetInCU: 0x3429B, offset: 0x232664, size: 0x8, addend: 0x0, symName: '__ZN4core3ptr98drop_in_place$LT$alloc..vec..Vec$LT$$LP$syn..path..GenericArgument$C$syn..token..Comma$RP$$GT$$GT$17ha8e33b474744c469E.llvm.16532739692444164112', symObjAddr: 0x9C30, symBinAddr: 0x6F510, symSize: 0xD0 }
  - { offsetInCU: 0x345D7, offset: 0x2329A0, size: 0x8, addend: 0x0, symName: '__ZN4core3ptr98drop_in_place$LT$syn..punctuated..IntoPairs$LT$syn..path..PathSegment$C$syn..token..Colon2$GT$$GT$17ha9c816c5dc080402E', symObjAddr: 0x9D00, symBinAddr: 0x6F5E0, symSize: 0x50 }
  - { offsetInCU: 0x346CC, offset: 0x232A95, size: 0x8, addend: 0x0, symName: '__ZN4core3ptr99drop_in_place$LT$alloc..vec..Vec$LT$$LP$syn..generics..GenericParam$C$syn..token..Comma$RP$$GT$$GT$17h6a63382b7b118436E.llvm.16532739692444164112', symObjAddr: 0x9D50, symBinAddr: 0x6F630, symSize: 0x60 }
  - { offsetInCU: 0x3490E, offset: 0x232CD7, size: 0x8, addend: 0x0, symName: '__ZN4core3ptr99drop_in_place$LT$alloc..vec..Vec$LT$$LP$syn..generics..TypeParamBound$C$syn..token..Add$RP$$GT$$GT$17h1faee7dfcf042dc4E.llvm.16532739692444164112', symObjAddr: 0x9DB0, symBinAddr: 0x6F690, symSize: 0x60 }
  - { offsetInCU: 0x34B5A, offset: 0x232F23, size: 0x8, addend: 0x0, symName: '__ZN4core3ptr99drop_in_place$LT$syn..punctuated..Punctuated$LT$syn..path..PathSegment$C$syn..token..Colon2$GT$$GT$17hb961e4d7989a33ceE', symObjAddr: 0x9E10, symBinAddr: 0x6F6F0, symSize: 0x120 }
  - { offsetInCU: 0x3CE90, offset: 0x23B259, size: 0x8, addend: 0x0, symName: __ZN4core4iter6traits10exact_size17ExactSizeIterator8is_empty17h1bc6241bf1888e40E.llvm.16532739692444164112, symObjAddr: 0x9F30, symBinAddr: 0x6F810, symSize: 0x30 }
  - { offsetInCU: 0x3D008, offset: 0x23B3D1, size: 0x8, addend: 0x0, symName: __ZN4core4iter6traits12double_ended19DoubleEndedIterator15advance_back_by17h653dda07e28b399cE.llvm.16532739692444164112, symObjAddr: 0xA0F0, symBinAddr: 0x6F840, symSize: 0x70 }
  - { offsetInCU: 0x3D26F, offset: 0x23B638, size: 0x8, addend: 0x0, symName: __ZN4core4iter6traits12double_ended19DoubleEndedIterator8nth_back17hed9022273c30defeE.llvm.16532739692444164112, symObjAddr: 0xA3B0, symBinAddr: 0x6F8B0, symSize: 0xA0 }
  - { offsetInCU: 0x3D70B, offset: 0x23BAD4, size: 0x8, addend: 0x0, symName: __ZN4core4iter6traits8iterator8Iterator10advance_by17he4016f4f7eb36f58E.llvm.16532739692444164112, symObjAddr: 0xA590, symBinAddr: 0x6F950, symSize: 0x60 }
  - { offsetInCU: 0x3DA5E, offset: 0x23BE27, size: 0x8, addend: 0x0, symName: __ZN4core4iter6traits8iterator8Iterator3nth17he19de029313aec56E.llvm.16532739692444164112, symObjAddr: 0xA770, symBinAddr: 0x6F9B0, symSize: 0x80 }
  - { offsetInCU: 0x3DFFA, offset: 0x23C3C3, size: 0x8, addend: 0x0, symName: __ZN4core4iter6traits8iterator8Iterator9size_hint17h0104108dabb19d93E.llvm.16532739692444164112, symObjAddr: 0xA7F0, symBinAddr: 0x6FA30, symSize: 0x0 }
  - { offsetInCU: 0x3F6B4, offset: 0x23DA7D, size: 0x8, addend: 0x0, symName: _anon.6d16f1a36471c80d3de82dc9b4f7a556.7.llvm.16532739692444164112, symObjAddr: 0x156C8, symBinAddr: 0x2349C0, symSize: 0x0 }
  - { offsetInCU: 0x4130D, offset: 0x23F6D6, size: 0x8, addend: 0x0, symName: '__ZN3syn10punctuated23Punctuated$LT$T$C$P$GT$4iter17hb5b1f3ac16f65eacE', symObjAddr: 0xAA10, symBinAddr: 0x6FA50, symSize: 0x70 }
  - { offsetInCU: 0x41C63, offset: 0x24002C, size: 0x8, addend: 0x0, symName: '__ZN3syn10punctuated23Punctuated$LT$T$C$P$GT$10push_value17h14b7c2c4fe5ffb09E', symObjAddr: 0xAF00, symBinAddr: 0x6FAC0, symSize: 0xA0 }
  - { offsetInCU: 0x41EA3, offset: 0x24026C, size: 0x8, addend: 0x0, symName: '__ZN3syn10punctuated23Punctuated$LT$T$C$P$GT$10push_value17h39f3d53d0765bd8bE', symObjAddr: 0xAFA0, symBinAddr: 0x6FB60, symSize: 0x0 }
  - { offsetInCU: 0x420D7, offset: 0x2404A0, size: 0x8, addend: 0x0, symName: '__ZN3syn10punctuated23Punctuated$LT$T$C$P$GT$10push_value17h3ebbefe6892129a3E', symObjAddr: 0xB070, symBinAddr: 0x6FC30, symSize: 0xA0 }
  - { offsetInCU: 0x4230A, offset: 0x2406D3, size: 0x8, addend: 0x0, symName: '__ZN3syn10punctuated23Punctuated$LT$T$C$P$GT$10push_value17h6654a5202d87b9adE', symObjAddr: 0xB110, symBinAddr: 0x6FCD0, symSize: 0xD0 }
  - { offsetInCU: 0x4253E, offset: 0x240907, size: 0x8, addend: 0x0, symName: '__ZN3syn10punctuated23Punctuated$LT$T$C$P$GT$10push_value17h68728aa7418e1828E', symObjAddr: 0xB1E0, symBinAddr: 0x6FDA0, symSize: 0xE0 }
  - { offsetInCU: 0x4287C, offset: 0x240C45, size: 0x8, addend: 0x0, symName: '__ZN3syn10punctuated23Punctuated$LT$T$C$P$GT$10push_value17h734c18a193061288E', symObjAddr: 0xB2C0, symBinAddr: 0x6FE80, symSize: 0xD0 }
  - { offsetInCU: 0x42AA2, offset: 0x240E6B, size: 0x8, addend: 0x0, symName: '__ZN3syn10punctuated23Punctuated$LT$T$C$P$GT$10push_value17h738c10366c9a624bE', symObjAddr: 0xB390, symBinAddr: 0x6FF50, symSize: 0xD0 }
  - { offsetInCU: 0x42CD6, offset: 0x24109F, size: 0x8, addend: 0x0, symName: '__ZN3syn10punctuated23Punctuated$LT$T$C$P$GT$10push_value17h8a453bad6a782ffeE', symObjAddr: 0xB460, symBinAddr: 0x70020, symSize: 0xD0 }
  - { offsetInCU: 0x42EFD, offset: 0x2412C6, size: 0x8, addend: 0x0, symName: '__ZN3syn10punctuated23Punctuated$LT$T$C$P$GT$10push_value17h958c5485234fa2d2E', symObjAddr: 0xB530, symBinAddr: 0x700F0, symSize: 0xA0 }
  - { offsetInCU: 0x4314A, offset: 0x241513, size: 0x8, addend: 0x0, symName: '__ZN3syn10punctuated23Punctuated$LT$T$C$P$GT$10push_value17ha121070897ba71bbE', symObjAddr: 0xB5D0, symBinAddr: 0x70190, symSize: 0xD0 }
  - { offsetInCU: 0x4337E, offset: 0x241747, size: 0x8, addend: 0x0, symName: '__ZN3syn10punctuated23Punctuated$LT$T$C$P$GT$10push_value17hc23a986ec6344064E', symObjAddr: 0xB6A0, symBinAddr: 0x70260, symSize: 0xD0 }
  - { offsetInCU: 0x435B1, offset: 0x24197A, size: 0x8, addend: 0x0, symName: '__ZN3syn10punctuated23Punctuated$LT$T$C$P$GT$10push_value17hc8fea27b62230799E', symObjAddr: 0xB770, symBinAddr: 0x70330, symSize: 0xD0 }
  - { offsetInCU: 0x437E5, offset: 0x241BAE, size: 0x8, addend: 0x0, symName: '__ZN3syn10punctuated23Punctuated$LT$T$C$P$GT$10push_value17hd58984c4db98708fE', symObjAddr: 0xB840, symBinAddr: 0x70400, symSize: 0xD0 }
  - { offsetInCU: 0x43A19, offset: 0x241DE2, size: 0x8, addend: 0x0, symName: '__ZN3syn10punctuated23Punctuated$LT$T$C$P$GT$10push_value17he9d5642b6abab872E', symObjAddr: 0xB910, symBinAddr: 0x704D0, symSize: 0xD0 }
  - { offsetInCU: 0x43C76, offset: 0x24203F, size: 0x8, addend: 0x0, symName: '__ZN3syn10punctuated23Punctuated$LT$T$C$P$GT$10push_punct17h05097ced3e641863E', symObjAddr: 0xB9E0, symBinAddr: 0x705A0, symSize: 0xE0 }
  - { offsetInCU: 0x44027, offset: 0x2423F0, size: 0x8, addend: 0x0, symName: '__ZN3syn10punctuated23Punctuated$LT$T$C$P$GT$10push_punct17h11ba52321bf5bea8E', symObjAddr: 0xBAC0, symBinAddr: 0x70680, symSize: 0xE0 }
  - { offsetInCU: 0x443F8, offset: 0x2427C1, size: 0x8, addend: 0x0, symName: '__ZN3syn10punctuated23Punctuated$LT$T$C$P$GT$10push_punct17h2dceda0901d1267aE', symObjAddr: 0xBBA0, symBinAddr: 0x70760, symSize: 0xE0 }
  - { offsetInCU: 0x447C9, offset: 0x242B92, size: 0x8, addend: 0x0, symName: '__ZN3syn10punctuated23Punctuated$LT$T$C$P$GT$10push_punct17h30da73095861d121E', symObjAddr: 0xBC80, symBinAddr: 0x70840, symSize: 0xE0 }
  - { offsetInCU: 0x44BE8, offset: 0x242FB1, size: 0x8, addend: 0x0, symName: '__ZN3syn10punctuated23Punctuated$LT$T$C$P$GT$10push_punct17h400c66537f83dc5bE', symObjAddr: 0xBD60, symBinAddr: 0x70920, symSize: 0x120 }
  - { offsetInCU: 0x45119, offset: 0x2434E2, size: 0x8, addend: 0x0, symName: '__ZN3syn10punctuated23Punctuated$LT$T$C$P$GT$10push_punct17h500d37b1c0505005E', symObjAddr: 0xBE80, symBinAddr: 0x70A40, symSize: 0xE0 }
  - { offsetInCU: 0x454EA, offset: 0x2438B3, size: 0x8, addend: 0x0, symName: '__ZN3syn10punctuated23Punctuated$LT$T$C$P$GT$10push_punct17h53a23ce0aae9ffc1E', symObjAddr: 0xBF60, symBinAddr: 0x70B20, symSize: 0xC0 }
  - { offsetInCU: 0x458AE, offset: 0x243C77, size: 0x8, addend: 0x0, symName: '__ZN3syn10punctuated23Punctuated$LT$T$C$P$GT$10push_punct17h70a79c86c88cff65E', symObjAddr: 0xC020, symBinAddr: 0x70BE0, symSize: 0xC0 }
  - { offsetInCU: 0x45C8C, offset: 0x244055, size: 0x8, addend: 0x0, symName: '__ZN3syn10punctuated23Punctuated$LT$T$C$P$GT$10push_punct17h79f957a4f7bfa4bdE', symObjAddr: 0xC0E0, symBinAddr: 0x70CA0, symSize: 0xD0 }
  - { offsetInCU: 0x4605D, offset: 0x244426, size: 0x8, addend: 0x0, symName: '__ZN3syn10punctuated23Punctuated$LT$T$C$P$GT$10push_punct17h9ff63fe42d8a305bE', symObjAddr: 0xC1B0, symBinAddr: 0x70D70, symSize: 0xE0 }
  - { offsetInCU: 0x4642E, offset: 0x2447F7, size: 0x8, addend: 0x0, symName: '__ZN3syn10punctuated23Punctuated$LT$T$C$P$GT$10push_punct17haa5636a409edefeeE', symObjAddr: 0xC290, symBinAddr: 0x70E50, symSize: 0xE0 }
  - { offsetInCU: 0x467FF, offset: 0x244BC8, size: 0x8, addend: 0x0, symName: '__ZN3syn10punctuated23Punctuated$LT$T$C$P$GT$10push_punct17had77e3ca97751ca0E', symObjAddr: 0xC370, symBinAddr: 0x70F30, symSize: 0x100 }
  - { offsetInCU: 0x46BD0, offset: 0x244F99, size: 0x8, addend: 0x0, symName: '__ZN3syn10punctuated23Punctuated$LT$T$C$P$GT$10push_punct17hd1e26f9cc5ff1a0fE', symObjAddr: 0xC470, symBinAddr: 0x71030, symSize: 0xD0 }
  - { offsetInCU: 0x46FAE, offset: 0x245377, size: 0x8, addend: 0x0, symName: '__ZN3syn10punctuated23Punctuated$LT$T$C$P$GT$10push_punct17hd921c69c8d719ce4E', symObjAddr: 0xC540, symBinAddr: 0x71100, symSize: 0xE0 }
  - { offsetInCU: 0x47372, offset: 0x24573B, size: 0x8, addend: 0x0, symName: '__ZN3syn10punctuated23Punctuated$LT$T$C$P$GT$10push_punct17he79340c1cde0cc34E', symObjAddr: 0xC620, symBinAddr: 0x711E0, symSize: 0xE0 }
  - { offsetInCU: 0x47736, offset: 0x245AFF, size: 0x8, addend: 0x0, symName: '__ZN3syn10punctuated23Punctuated$LT$T$C$P$GT$10push_punct17hec278db3946341f0E', symObjAddr: 0xC700, symBinAddr: 0x712C0, symSize: 0xE0 }
  - { offsetInCU: 0x47BB6, offset: 0x245F7F, size: 0x8, addend: 0x0, symName: '__ZN3syn10punctuated23Punctuated$LT$T$C$P$GT$3pop17h5d3ca22f68e5e0caE', symObjAddr: 0xC7E0, symBinAddr: 0x713A0, symSize: 0x90 }
  - { offsetInCU: 0x47FA5, offset: 0x24636E, size: 0x8, addend: 0x0, symName: '__ZN3syn10punctuated23Punctuated$LT$T$C$P$GT$4push17hcfa9ee726330b377E', symObjAddr: 0xC870, symBinAddr: 0x71430, symSize: 0x130 }
  - { offsetInCU: 0x48315, offset: 0x2466DE, size: 0x8, addend: 0x0, symName: '__ZN3syn10punctuated23Punctuated$LT$T$C$P$GT$6insert17h4136fb255bf8292aE', symObjAddr: 0xC9A0, symBinAddr: 0x71560, symSize: 0x170 }
  - { offsetInCU: 0x486FC, offset: 0x246AC5, size: 0x8, addend: 0x0, symName: '__ZN3syn10punctuated23Punctuated$LT$T$C$P$GT$5clear17h2c657785aa52c10eE', symObjAddr: 0xCB10, symBinAddr: 0x716D0, symSize: 0xA0 }
  - { offsetInCU: 0x48B1E, offset: 0x246EE7, size: 0x8, addend: 0x0, symName: '__ZN3syn10punctuated23Punctuated$LT$T$C$P$GT$21parse_terminated_with17h0d42de968702d743E', symObjAddr: 0xCBB0, symBinAddr: 0x71770, symSize: 0x320 }
  - { offsetInCU: 0x494EE, offset: 0x2478B7, size: 0x8, addend: 0x0, symName: '__ZN3syn10punctuated23Punctuated$LT$T$C$P$GT$21parse_terminated_with17h5843760d31b55a9fE', symObjAddr: 0xD3E0, symBinAddr: 0x71A90, symSize: 0x330 }
  - { offsetInCU: 0x49F40, offset: 0x248309, size: 0x8, addend: 0x0, symName: '__ZN3syn10punctuated23Punctuated$LT$T$C$P$GT$21parse_terminated_with17ha0e926b3a5c69310E', symObjAddr: 0xD8E0, symBinAddr: 0x71DC0, symSize: 0x420 }
  - { offsetInCU: 0x2340, offset: 0x251736, size: 0x8, addend: 0x0, symName: '__ZN3syn4expr8printing82_$LT$impl$u20$quote..to_tokens..ToTokens$u20$for$u20$syn..expr..ExprMethodCall$GT$9to_tokens17h52deca7c2bdcde8fE', symObjAddr: 0x11080, symBinAddr: 0x813E0, symSize: 0x260 }
  - { offsetInCU: 0x2E0C, offset: 0x252202, size: 0x8, addend: 0x0, symName: '__ZN3syn4expr8printing77_$LT$impl$u20$quote..to_tokens..ToTokens$u20$for$u20$syn..expr..ExprWhile$GT$9to_tokens17hb73b17451a9f393bE', symObjAddr: 0x11DD0, symBinAddr: 0x81640, symSize: 0x220 }
  - { offsetInCU: 0x3503, offset: 0x2528F9, size: 0x8, addend: 0x0, symName: '__ZN3syn4expr8printing79_$LT$impl$u20$quote..to_tokens..ToTokens$u20$for$u20$syn..expr..ExprForLoop$GT$9to_tokens17hc158e0517546c263E', symObjAddr: 0x11FF0, symBinAddr: 0x81860, symSize: 0x2A0 }
  - { offsetInCU: 0x3E31, offset: 0x253227, size: 0x8, addend: 0x0, symName: '__ZN3syn4expr8printing79_$LT$impl$u20$quote..to_tokens..ToTokens$u20$for$u20$syn..expr..ExprClosure$GT$9to_tokens17h02addd229d205f12E', symObjAddr: 0x12C10, symBinAddr: 0x81B00, symSize: 0x350 }
  - { offsetInCU: 0x4B69, offset: 0x253F5F, size: 0x8, addend: 0x0, symName: '__ZN3syn4expr8printing74_$LT$impl$u20$quote..to_tokens..ToTokens$u20$for$u20$syn..expr..Member$GT$9to_tokens17hc47f96e76f134d40E', symObjAddr: 0x134F0, symBinAddr: 0x81E50, symSize: 0xC0 }
  - { offsetInCU: 0x5160, offset: 0x254556, size: 0x8, addend: 0x0, symName: '__ZN3syn4expr8printing78_$LT$impl$u20$quote..to_tokens..ToTokens$u20$for$u20$syn..expr..FieldValue$GT$9to_tokens17hca3924738fecf8aaE', symObjAddr: 0x14670, symBinAddr: 0x81F10, symSize: 0x1C0 }
  - { offsetInCU: 0x57EE, offset: 0x254BE4, size: 0x8, addend: 0x0, symName: '__ZN3syn4expr8printing71_$LT$impl$u20$quote..to_tokens..ToTokens$u20$for$u20$syn..expr..Arm$GT$9to_tokens17hfe03b45f4f23e934E', symObjAddr: 0x14830, symBinAddr: 0x820D0, symSize: 0x1D0 }
  - { offsetInCU: 0x5C24, offset: 0x25501A, size: 0x8, addend: 0x0, symName: '__ZN3syn4expr7parsing63_$LT$impl$u20$syn..parse..Parse$u20$for$u20$syn..expr..Expr$GT$5parse17hc5dd14a6ed6ae10aE', symObjAddr: 0xA160, symBinAddr: 0x7B580, symSize: 0xF0 }
  - { offsetInCU: 0x5CD4, offset: 0x2550CA, size: 0x8, addend: 0x0, symName: '__ZN3syn4expr7parsing66_$LT$impl$u20$syn..parse..Parse$u20$for$u20$syn..expr..ExprLit$GT$5parse17hcc638e3114e2713bE', symObjAddr: 0xAB80, symBinAddr: 0x7B670, symSize: 0xF0 }
  - { offsetInCU: 0x5DE7, offset: 0x2551DD, size: 0x8, addend: 0x0, symName: '__ZN3syn4expr7parsing80_$LT$impl$u20$syn..parse..Parse$u20$for$u20$syn..expr..GenericMethodArgument$GT$5parse17h9e0e87e386c05d46E', symObjAddr: 0xAC90, symBinAddr: 0x7B760, symSize: 0x2E0 }
  - { offsetInCU: 0x6186, offset: 0x25557C, size: 0x8, addend: 0x0, symName: '__ZN3syn4expr7parsing74_$LT$impl$u20$syn..parse..Parse$u20$for$u20$syn..expr..MethodTurbofish$GT$5parse17hc687ec8e69e7b20fE', symObjAddr: 0xAF70, symBinAddr: 0x7BA40, symSize: 0x350 }
  - { offsetInCU: 0x6693, offset: 0x255A89, size: 0x8, addend: 0x0, symName: '__ZN3syn4expr7parsing66_$LT$impl$u20$syn..parse..Parse$u20$for$u20$syn..expr..ExprLet$GT$5parse17hb569fb53f5daeca8E', symObjAddr: 0xB2C0, symBinAddr: 0x7BD90, symSize: 0x4C0 }
  - { offsetInCU: 0x6C36, offset: 0x25602C, size: 0x8, addend: 0x0, symName: '__ZN3syn4expr7parsing65_$LT$impl$u20$syn..parse..Parse$u20$for$u20$syn..expr..ExprIf$GT$5parse17hc3bbb8a442518a70E', symObjAddr: 0xB780, symBinAddr: 0x7C250, symSize: 0x700 }
  - { offsetInCU: 0x75E1, offset: 0x2569D7, size: 0x8, addend: 0x0, symName: '__ZN3syn4expr7parsing70_$LT$impl$u20$syn..parse..Parse$u20$for$u20$syn..expr..ExprForLoop$GT$5parse17h70f397294e42a49dE', symObjAddr: 0xBE80, symBinAddr: 0x7C950, symSize: 0xA40 }
  - { offsetInCU: 0x84B2, offset: 0x2578A8, size: 0x8, addend: 0x0, symName: '__ZN3syn4expr7parsing67_$LT$impl$u20$syn..parse..Parse$u20$for$u20$syn..expr..ExprLoop$GT$5parse17h2feb6f1c5e586e7dE', symObjAddr: 0xC8C0, symBinAddr: 0x7D390, symSize: 0x560 }
  - { offsetInCU: 0x91AA, offset: 0x2585A0, size: 0x8, addend: 0x0, symName: '__ZN3syn4expr7parsing68_$LT$impl$u20$syn..parse..Parse$u20$for$u20$syn..expr..ExprMatch$GT$5parse17hd6f41d4fa4c8de12E', symObjAddr: 0xCE20, symBinAddr: 0x7D8F0, symSize: 0x820 }
  - { offsetInCU: 0xA0F7, offset: 0x2594ED, size: 0x8, addend: 0x0, symName: '__ZN3syn4expr7parsing71_$LT$impl$u20$syn..parse..Parse$u20$for$u20$syn..expr..ExprTryBlock$GT$5parse17h5554543154d3c4b6E', symObjAddr: 0xD9A0, symBinAddr: 0x7E110, symSize: 0x140 }
  - { offsetInCU: 0xA288, offset: 0x25967E, size: 0x8, addend: 0x0, symName: '__ZN3syn4expr7parsing68_$LT$impl$u20$syn..parse..Parse$u20$for$u20$syn..expr..ExprYield$GT$5parse17hc3f7685155a8ca99E', symObjAddr: 0xDAE0, symBinAddr: 0x7E250, symSize: 0x150 }
  - { offsetInCU: 0xA60B, offset: 0x259A01, size: 0x8, addend: 0x0, symName: '__ZN3syn4expr7parsing68_$LT$impl$u20$syn..parse..Parse$u20$for$u20$syn..expr..ExprAsync$GT$5parse17he43ed43a6e470a06E', symObjAddr: 0xDC30, symBinAddr: 0x7E3A0, symSize: 0x1D0 }
  - { offsetInCU: 0xA91E, offset: 0x259D14, size: 0x8, addend: 0x0, symName: '__ZN3syn4expr7parsing68_$LT$impl$u20$syn..parse..Parse$u20$for$u20$syn..expr..ExprWhile$GT$5parse17h94fbc04744e04bd5E', symObjAddr: 0xDE00, symBinAddr: 0x7E570, symSize: 0x8A0 }
  - { offsetInCU: 0xB63F, offset: 0x25AA35, size: 0x8, addend: 0x0, symName: '__ZN3syn4expr7parsing64_$LT$impl$u20$syn..parse..Parse$u20$for$u20$syn..expr..Label$GT$5parse17h4b99929e595412a8E', symObjAddr: 0xE6A0, symBinAddr: 0x7EE10, symSize: 0x230 }
  - { offsetInCU: 0xBAF6, offset: 0x25AEEC, size: 0x8, addend: 0x0, symName: '__ZN3syn4expr7parsing71_$LT$impl$u20$syn..parse..Parse$u20$for$u20$syn..expr..ExprContinue$GT$5parse17hd8b0e00434855c5dE', symObjAddr: 0xE8D0, symBinAddr: 0x7F040, symSize: 0x1B0 }
  - { offsetInCU: 0xBC78, offset: 0x25B06E, size: 0x8, addend: 0x0, symName: '__ZN3syn4expr7parsing69_$LT$impl$u20$syn..parse..Parse$u20$for$u20$syn..expr..FieldValue$GT$5parse17h789c7fa607c23413E', symObjAddr: 0xEA80, symBinAddr: 0x7F1F0, symSize: 0x6D0 }
  - { offsetInCU: 0xC737, offset: 0x25BB2D, size: 0x8, addend: 0x0, symName: '__ZN3syn4expr7parsing69_$LT$impl$u20$syn..parse..Parse$u20$for$u20$syn..expr..ExprUnsafe$GT$5parse17ha2c47789b9924b10E', symObjAddr: 0xF210, symBinAddr: 0x7F8C0, symSize: 0x3A0 }
  - { offsetInCU: 0xCF78, offset: 0x25C36E, size: 0x8, addend: 0x0, symName: '__ZN3syn4expr7parsing68_$LT$impl$u20$syn..parse..Parse$u20$for$u20$syn..expr..ExprBlock$GT$5parse17h5f8eacd79eed7a3aE', symObjAddr: 0xF5B0, symBinAddr: 0x7FC60, symSize: 0x540 }
  - { offsetInCU: 0xDC63, offset: 0x25D059, size: 0x8, addend: 0x0, symName: '__ZN3syn4expr7parsing70_$LT$impl$u20$syn..parse..Parse$u20$for$u20$syn..expr..RangeLimits$GT$5parse17h55d2abebfdd8f5b2E', symObjAddr: 0xFAF0, symBinAddr: 0x801A0, symSize: 0x330 }
  - { offsetInCU: 0xEB1A, offset: 0x25DF10, size: 0x8, addend: 0x0, symName: '__ZN3syn4expr7parsing67_$LT$impl$u20$syn..parse..Parse$u20$for$u20$syn..expr..ExprPath$GT$5parse17h5999d7526d4caa01E', symObjAddr: 0xFE20, symBinAddr: 0x804D0, symSize: 0x270 }
  - { offsetInCU: 0xEF68, offset: 0x25E35E, size: 0x8, addend: 0x0, symName: '__ZN3syn4expr7parsing65_$LT$impl$u20$syn..parse..Parse$u20$for$u20$syn..expr..Member$GT$5parse17h3c1f6e1ffd72b36eE', symObjAddr: 0x10090, symBinAddr: 0x80740, symSize: 0xE0 }
  - { offsetInCU: 0xF1D9, offset: 0x25E5CF, size: 0x8, addend: 0x0, symName: '__ZN3syn4expr7parsing62_$LT$impl$u20$syn..parse..Parse$u20$for$u20$syn..expr..Arm$GT$5parse17h4853f2ad1c1812eeE', symObjAddr: 0x10170, symBinAddr: 0x80820, symSize: 0xA40 }
  - { offsetInCU: 0x10112, offset: 0x25F508, size: 0x8, addend: 0x0, symName: '__ZN3syn4expr7parsing64_$LT$impl$u20$syn..parse..Parse$u20$for$u20$syn..expr..Index$GT$5parse17hde4030d96c40375eE', symObjAddr: 0x10BB0, symBinAddr: 0x81260, symSize: 0x180 }
  - { offsetInCU: 0x10799, offset: 0x25FB8F, size: 0x8, addend: 0x0, symName: '__ZN62_$LT$syn..expr..Expr$u20$as$u20$quote..to_tokens..ToTokens$GT$9to_tokens17h26366c1ee5ef5979E', symObjAddr: 0x14A00, symBinAddr: 0x822A0, symSize: 0x2820 }
  - { offsetInCU: 0x1D8D3, offset: 0x26CCC9, size: 0x8, addend: 0x0, symName: '__ZN3syn3gen5clone63_$LT$impl$u20$core..clone..Clone$u20$for$u20$syn..expr..Arm$GT$5clone17head7f5f2381c2f20E', symObjAddr: 0x1E2C0, symBinAddr: 0x84AC0, symSize: 0x1F0 }
  - { offsetInCU: 0x1E273, offset: 0x26D669, size: 0x8, addend: 0x0, symName: '__ZN3syn3gen5clone64_$LT$impl$u20$core..clone..Clone$u20$for$u20$syn..expr..Expr$GT$5clone17h8dc5de0cb7452941E', symObjAddr: 0x1E4B0, symBinAddr: 0x84CB0, symSize: 0x2100 }
  - { offsetInCU: 0x22A8B, offset: 0x271E81, size: 0x8, addend: 0x0, symName: '__ZN3syn3gen5clone69_$LT$impl$u20$core..clone..Clone$u20$for$u20$syn..expr..ExprBlock$GT$5clone17ha50b14e34c23c7c7E', symObjAddr: 0x20AD0, symBinAddr: 0x86DB0, symSize: 0x130 }
  - { offsetInCU: 0x22D42, offset: 0x272138, size: 0x8, addend: 0x0, symName: '__ZN3syn3gen5clone69_$LT$impl$u20$core..clone..Clone$u20$for$u20$syn..expr..ExprBreak$GT$5clone17hf7f419b5514dda66E', symObjAddr: 0x20CE0, symBinAddr: 0x86EE0, symSize: 0x1A0 }
  - { offsetInCU: 0x231F2, offset: 0x2725E8, size: 0x8, addend: 0x0, symName: '__ZN3syn3gen5clone71_$LT$impl$u20$core..clone..Clone$u20$for$u20$syn..expr..ExprClosure$GT$5clone17ha4bc3a4adb677c0bE', symObjAddr: 0x21130, symBinAddr: 0x87080, symSize: 0x240 }
  - { offsetInCU: 0x237AB, offset: 0x272BA1, size: 0x8, addend: 0x0, symName: '__ZN3syn3gen5clone71_$LT$impl$u20$core..clone..Clone$u20$for$u20$syn..expr..ExprForLoop$GT$5clone17hb2e9cd210a53c157E', symObjAddr: 0x21580, symBinAddr: 0x872C0, symSize: 0x270 }
  - { offsetInCU: 0x23CE4, offset: 0x2730DA, size: 0x8, addend: 0x0, symName: '__ZN3syn3gen5clone66_$LT$impl$u20$core..clone..Clone$u20$for$u20$syn..expr..ExprIf$GT$5clone17habee9e19780c03d0E', symObjAddr: 0x217F0, symBinAddr: 0x87530, symSize: 0x1D0 }
  - { offsetInCU: 0x24205, offset: 0x2735FB, size: 0x8, addend: 0x0, symName: '__ZN3syn3gen5clone68_$LT$impl$u20$core..clone..Clone$u20$for$u20$syn..expr..ExprLoop$GT$5clone17hbfc8e04a26dc7d1cE', symObjAddr: 0x21CF0, symBinAddr: 0x87700, symSize: 0x140 }
  - { offsetInCU: 0x244F6, offset: 0x2738EC, size: 0x8, addend: 0x0, symName: '__ZN3syn3gen5clone74_$LT$impl$u20$core..clone..Clone$u20$for$u20$syn..expr..ExprMethodCall$GT$5clone17h19dd05a260dc7f51E', symObjAddr: 0x22000, symBinAddr: 0x87840, symSize: 0x400 }
  - { offsetInCU: 0x24ECA, offset: 0x2742C0, size: 0x8, addend: 0x0, symName: '__ZN3syn3gen5clone68_$LT$impl$u20$core..clone..Clone$u20$for$u20$syn..expr..ExprPath$GT$5clone17hf4002bcc8fbcc188E', symObjAddr: 0x22400, symBinAddr: 0x87C40, symSize: 0x1B0 }
  - { offsetInCU: 0x25237, offset: 0x27462D, size: 0x8, addend: 0x0, symName: '__ZN3syn3gen5clone69_$LT$impl$u20$core..clone..Clone$u20$for$u20$syn..expr..ExprRange$GT$5clone17hd8f8dbfaae951ec7E', symObjAddr: 0x225B0, symBinAddr: 0x87DF0, symSize: 0x1A0 }
  - { offsetInCU: 0x25743, offset: 0x274B39, size: 0x8, addend: 0x0, symName: '__ZN3syn3gen5clone70_$LT$impl$u20$core..clone..Clone$u20$for$u20$syn..expr..ExprStruct$GT$5clone17h0216c4a487034cceE', symObjAddr: 0x229D0, symBinAddr: 0x87F90, symSize: 0x270 }
  - { offsetInCU: 0x25CCD, offset: 0x2750C3, size: 0x8, addend: 0x0, symName: '__ZN3syn3gen5clone69_$LT$impl$u20$core..clone..Clone$u20$for$u20$syn..expr..ExprWhile$GT$5clone17h9117bae495ae712bE', symObjAddr: 0x23010, symBinAddr: 0x88200, symSize: 0x1F0 }
  - { offsetInCU: 0x261D7, offset: 0x2755CD, size: 0x8, addend: 0x0, symName: '__ZN3syn3gen5clone70_$LT$impl$u20$core..clone..Clone$u20$for$u20$syn..expr..FieldValue$GT$5clone17hca1e6a1a3e6abb5fE', symObjAddr: 0x232F0, symBinAddr: 0x883F0, symSize: 0x150 }
  - { offsetInCU: 0x28675, offset: 0x277A6B, size: 0x8, addend: 0x0, symName: '__ZN4core3ptr100drop_in_place$LT$core..option..Option$LT$alloc..boxed..Box$LT$syn..generics..LifetimeDef$GT$$GT$$GT$17h75a6086997697dd7E', symObjAddr: 0x300, symBinAddr: 0x73710, symSize: 0x150 }
  - { offsetInCU: 0x28BF1, offset: 0x277FE7, size: 0x8, addend: 0x0, symName: '__ZN4core3ptr100drop_in_place$LT$core..option..Option$LT$alloc..boxed..Box$LT$syn..path..GenericArgument$GT$$GT$$GT$17h3d29ec00a8f1918dE', symObjAddr: 0x450, symBinAddr: 0x73860, symSize: 0x50 }
  - { offsetInCU: 0x28E3A, offset: 0x278230, size: 0x8, addend: 0x0, symName: '__ZN4core3ptr103drop_in_place$LT$syn..punctuated..Punctuated$LT$syn..generics..TypeParamBound$C$syn..token..Add$GT$$GT$17he811d520c92af08aE', symObjAddr: 0x4A0, symBinAddr: 0x738B0, symSize: 0xF0 }
  - { offsetInCU: 0x293A9, offset: 0x27879F, size: 0x8, addend: 0x0, symName: '__ZN4core3ptr106drop_in_place$LT$core..option..Option$LT$alloc..boxed..Box$LT$syn..expr..GenericMethodArgument$GT$$GT$$GT$17h96ed0a5acdf7b53bE', symObjAddr: 0x590, symBinAddr: 0x739A0, symSize: 0x70 }
  - { offsetInCU: 0x2958D, offset: 0x278983, size: 0x8, addend: 0x0, symName: '__ZN4core3ptr108drop_in_place$LT$syn..punctuated..Punctuated$LT$syn..expr..GenericMethodArgument$C$syn..token..Comma$GT$$GT$17h92cbabe4862b2183E', symObjAddr: 0x600, symBinAddr: 0x73A10, symSize: 0x150 }
  - { offsetInCU: 0x29A40, offset: 0x278E36, size: 0x8, addend: 0x0, symName: '__ZN4core3ptr114drop_in_place$LT$core..option..Option$LT$$LP$syn..token..If$C$alloc..boxed..Box$LT$syn..expr..Expr$GT$$RP$$GT$$GT$17hf2aa3e1ea6c77ac4E.llvm.8444515518860579797', symObjAddr: 0x750, symBinAddr: 0x73B60, symSize: 0x50 }
  - { offsetInCU: 0x29C6F, offset: 0x279065, size: 0x8, addend: 0x0, symName: '__ZN4core3ptr34drop_in_place$LT$syn..lit..Lit$GT$17hbe1efe749a08dd9aE', symObjAddr: 0x7A0, symBinAddr: 0x73BB0, symSize: 0x120 }
  - { offsetInCU: 0x2A189, offset: 0x27957F, size: 0x8, addend: 0x0, symName: '__ZN4core3ptr34drop_in_place$LT$syn..pat..Pat$GT$17h3201f642e43ac2a2E.llvm.8444515518860579797', symObjAddr: 0x8C0, symBinAddr: 0x73CD0, symSize: 0x1190 }
  - { offsetInCU: 0x2E0A1, offset: 0x27D497, size: 0x8, addend: 0x0, symName: '__ZN4core3ptr34drop_in_place$LT$syn..ty..Type$GT$17hfb5d159a08190130E.llvm.8444515518860579797', symObjAddr: 0x1A50, symBinAddr: 0x74E60, symSize: 0x580 }
  - { offsetInCU: 0x2F328, offset: 0x27E71E, size: 0x8, addend: 0x0, symName: '__ZN4core3ptr35drop_in_place$LT$syn..expr..Arm$GT$17h2f058dcaecfc86d5E', symObjAddr: 0x1FD0, symBinAddr: 0x753E0, symSize: 0x190 }
  - { offsetInCU: 0x2FCA4, offset: 0x27F09A, size: 0x8, addend: 0x0, symName: '__ZN4core3ptr36drop_in_place$LT$syn..expr..Expr$GT$17hf1921d1b09462bc3E.llvm.8444515518860579797', symObjAddr: 0x2160, symBinAddr: 0x75570, symSize: 0x1E60 }
  - { offsetInCU: 0x36560, offset: 0x285956, size: 0x8, addend: 0x0, symName: '__ZN4core3ptr36drop_in_place$LT$syn..mac..Macro$GT$17h205613d7ad575f72E', symObjAddr: 0x3FC0, symBinAddr: 0x773D0, symSize: 0x40 }
  - { offsetInCU: 0x366B1, offset: 0x285AA7, size: 0x8, addend: 0x0, symName: '__ZN4core3ptr36drop_in_place$LT$syn..path..Path$GT$17he6d0bec66d66b98aE', symObjAddr: 0x4000, symBinAddr: 0x77410, symSize: 0x230 }
  - { offsetInCU: 0x37085, offset: 0x28647B, size: 0x8, addend: 0x0, symName: '__ZN4core3ptr37drop_in_place$LT$syn..lit..LitInt$GT$17h81ad5befc6ce2d73E.llvm.8444515518860579797', symObjAddr: 0x4230, symBinAddr: 0x77640, symSize: 0x70 }
  - { offsetInCU: 0x37435, offset: 0x28682B, size: 0x8, addend: 0x0, symName: '__ZN4core3ptr37drop_in_place$LT$syn..stmt..Block$GT$17h3aa429e75a234230E', symObjAddr: 0x42A0, symBinAddr: 0x776B0, symSize: 0xD0 }
  - { offsetInCU: 0x37769, offset: 0x286B5F, size: 0x8, addend: 0x0, symName: '__ZN4core3ptr38drop_in_place$LT$syn..expr..ExprIf$GT$17hec63a1943e3da109E', symObjAddr: 0x4370, symBinAddr: 0x77780, symSize: 0x220 }
  - { offsetInCU: 0x3802B, offset: 0x287421, size: 0x8, addend: 0x0, symName: '__ZN4core3ptr38drop_in_place$LT$syn..expr..Member$GT$17ha113d37a67d27aafE.llvm.8444515518860579797', symObjAddr: 0x4590, symBinAddr: 0x779A0, symSize: 0x30 }
  - { offsetInCU: 0x38127, offset: 0x28751D, size: 0x8, addend: 0x0, symName: '__ZN4core3ptr39drop_in_place$LT$proc_macro2..Ident$GT$17hdeec010483268a0dE', symObjAddr: 0x45C0, symBinAddr: 0x779D0, symSize: 0x30 }
  - { offsetInCU: 0x38204, offset: 0x2875FA, size: 0x8, addend: 0x0, symName: '__ZN4core3ptr39drop_in_place$LT$syn..pat..PatTuple$GT$17h96faeea9832d4c4bE', symObjAddr: 0x4950, symBinAddr: 0x77A00, symSize: 0x100 }
  - { offsetInCU: 0x3854B, offset: 0x287941, size: 0x8, addend: 0x0, symName: '__ZN4core3ptr40drop_in_place$LT$syn..expr..ExprLoop$GT$17h9e505579fd62ef6fE', symObjAddr: 0x4CE0, symBinAddr: 0x77B00, symSize: 0x1D0 }
  - { offsetInCU: 0x38C7A, offset: 0x288070, size: 0x8, addend: 0x0, symName: '__ZN4core3ptr40drop_in_place$LT$syn..ty..ReturnType$GT$17h6f97c9fdb958983eE', symObjAddr: 0x4FF0, symBinAddr: 0x77CD0, symSize: 0x50 }
  - { offsetInCU: 0x38DEA, offset: 0x2881E0, size: 0x8, addend: 0x0, symName: '__ZN4core3ptr41drop_in_place$LT$syn..expr..ExprAsync$GT$17ha9124cede2896008E', symObjAddr: 0x5170, symBinAddr: 0x77D20, symSize: 0x1B0 }
  - { offsetInCU: 0x393DD, offset: 0x2887D3, size: 0x8, addend: 0x0, symName: '__ZN4core3ptr41drop_in_place$LT$syn..expr..ExprBlock$GT$17h7a5a7c5008d30d27E', symObjAddr: 0x5320, symBinAddr: 0x77ED0, symSize: 0x1D0 }
  - { offsetInCU: 0x39B2B, offset: 0x288F21, size: 0x8, addend: 0x0, symName: '__ZN4core3ptr41drop_in_place$LT$syn..expr..ExprWhile$GT$17hf221395746fac5b6E', symObjAddr: 0x5EC0, symBinAddr: 0x780A0, symSize: 0x220 }
  - { offsetInCU: 0x3A465, offset: 0x28985B, size: 0x8, addend: 0x0, symName: '__ZN4core3ptr42drop_in_place$LT$syn..expr..ExprStruct$GT$17hcd4a233ae9f7b2e4E', symObjAddr: 0x6380, symBinAddr: 0x782C0, symSize: 0x250 }
  - { offsetInCU: 0x3AD6F, offset: 0x28A165, size: 0x8, addend: 0x0, symName: '__ZN4core3ptr42drop_in_place$LT$syn..expr..ExprUnsafe$GT$17h1385f05be3ed92a0E', symObjAddr: 0x65D0, symBinAddr: 0x78510, symSize: 0x1B0 }
  - { offsetInCU: 0x3B362, offset: 0x28A758, size: 0x8, addend: 0x0, symName: '__ZN4core3ptr42drop_in_place$LT$syn..expr..FieldValue$GT$17h42a16bcbdc918058E', symObjAddr: 0x6780, symBinAddr: 0x786C0, symSize: 0x140 }
  - { offsetInCU: 0x3B7EE, offset: 0x28ABE4, size: 0x8, addend: 0x0, symName: '__ZN4core3ptr43drop_in_place$LT$syn..expr..ExprClosure$GT$17h33394450256957a8E', symObjAddr: 0x68C0, symBinAddr: 0x78800, symSize: 0x270 }
  - { offsetInCU: 0x3C247, offset: 0x28B63D, size: 0x8, addend: 0x0, symName: '__ZN4core3ptr43drop_in_place$LT$syn..expr..ExprForLoop$GT$17hdb72d4fbe32f57c8E', symObjAddr: 0x6B30, symBinAddr: 0x78A70, symSize: 0x240 }
  - { offsetInCU: 0x3CABE, offset: 0x28BEB4, size: 0x8, addend: 0x0, symName: '__ZN4core3ptr44drop_in_place$LT$syn..lifetime..Lifetime$GT$17h3858225df033648aE', symObjAddr: 0x6E80, symBinAddr: 0x78CB0, symSize: 0x30 }
  - { offsetInCU: 0x3CC36, offset: 0x28C02C, size: 0x8, addend: 0x0, symName: '__ZN4core3ptr44drop_in_place$LT$syn..parse..ParseBuffer$GT$17h19c266fcccc430cbE', symObjAddr: 0x6EB0, symBinAddr: 0x78CE0, symSize: 0x70 }
  - { offsetInCU: 0x3D04D, offset: 0x28C443, size: 0x8, addend: 0x0, symName: '__ZN4core3ptr45drop_in_place$LT$proc_macro2..TokenStream$GT$17h2507cb30e765dc85E.llvm.8444515518860579797', symObjAddr: 0x6F20, symBinAddr: 0x78D50, symSize: 0x140 }
  - { offsetInCU: 0x3D563, offset: 0x28C959, size: 0x8, addend: 0x0, symName: '__ZN4core3ptr46drop_in_place$LT$syn..expr..ExprMethodCall$GT$17hc2c41e6c148679f7E', symObjAddr: 0x7190, symBinAddr: 0x78E90, symSize: 0x3A0 }
  - { offsetInCU: 0x3E403, offset: 0x28D7F9, size: 0x8, addend: 0x0, symName: '__ZN4core3ptr47drop_in_place$LT$syn..expr..MethodTurbofish$GT$17hfb737c85726076f0E', symObjAddr: 0x7530, symBinAddr: 0x79230, symSize: 0x150 }
  - { offsetInCU: 0x3E8CD, offset: 0x28DCC3, size: 0x8, addend: 0x0, symName: '__ZN4core3ptr47drop_in_place$LT$syn..path..GenericArgument$GT$17h8c0a0d8c6deaefb4E', symObjAddr: 0x7680, symBinAddr: 0x79380, symSize: 0x110 }
  - { offsetInCU: 0x3EBE8, offset: 0x28DFDE, size: 0x8, addend: 0x0, symName: '__ZN4core3ptr58drop_in_place$LT$alloc..vec..Vec$LT$syn..expr..Arm$GT$$GT$17hf3db0825f3d9c861E', symObjAddr: 0x7790, symBinAddr: 0x79490, symSize: 0xD0 }
  - { offsetInCU: 0x3EEA8, offset: 0x28E29E, size: 0x8, addend: 0x0, symName: '__ZN4core3ptr59drop_in_place$LT$alloc..boxed..Box$LT$syn..pat..Pat$GT$$GT$17h7037ce9bbd3729c6E', symObjAddr: 0x7860, symBinAddr: 0x79560, symSize: 0x50 }
  - { offsetInCU: 0x3F001, offset: 0x28E3F7, size: 0x8, addend: 0x0, symName: '__ZN4core3ptr59drop_in_place$LT$alloc..boxed..Box$LT$syn..ty..Type$GT$$GT$17h2eccd13329dbe4faE', symObjAddr: 0x78B0, symBinAddr: 0x795B0, symSize: 0x50 }
  - { offsetInCU: 0x3F15A, offset: 0x28E550, size: 0x8, addend: 0x0, symName: '__ZN4core3ptr59drop_in_place$LT$alloc..vec..Vec$LT$syn..stmt..Stmt$GT$$GT$17hed4646381107e302E', symObjAddr: 0x7900, symBinAddr: 0x79600, symSize: 0xD0 }
  - { offsetInCU: 0x3F41A, offset: 0x28E810, size: 0x8, addend: 0x0, symName: '__ZN4core3ptr61drop_in_place$LT$alloc..boxed..Box$LT$syn..expr..Expr$GT$$GT$17h66094ddc89015516E', symObjAddr: 0x79D0, symBinAddr: 0x796D0, symSize: 0x50 }
  - { offsetInCU: 0x3F5EF, offset: 0x28E9E5, size: 0x8, addend: 0x0, symName: '__ZN4core3ptr61drop_in_place$LT$syn..path..ParenthesizedGenericArguments$GT$17h21be9b1d7a6fab55E', symObjAddr: 0x7A20, symBinAddr: 0x79720, symSize: 0x170 }
  - { offsetInCU: 0x3FBE5, offset: 0x28EFDB, size: 0x8, addend: 0x0, symName: '__ZN4core3ptr63drop_in_place$LT$alloc..boxed..Box$LT$syn..lit..LitRepr$GT$$GT$17h9c509b794406150eE', symObjAddr: 0x7B90, symBinAddr: 0x79890, symSize: 0x60 }
  - { offsetInCU: 0x3FECD, offset: 0x28F2C3, size: 0x8, addend: 0x0, symName: '__ZN4core3ptr64drop_in_place$LT$alloc..boxed..Box$LT$syn..pat..FieldPat$GT$$GT$17hb167b355d0d4733fE', symObjAddr: 0x7BF0, symBinAddr: 0x798F0, symSize: 0x180 }
  - { offsetInCU: 0x405EA, offset: 0x28F9E0, size: 0x8, addend: 0x0, symName: '__ZN4core3ptr64drop_in_place$LT$alloc..boxed..Box$LT$syn..ty..BareFnArg$GT$$GT$17h6488be9448346678E', symObjAddr: 0x7D70, symBinAddr: 0x79A70, symSize: 0x160 }
  - { offsetInCU: 0x40B80, offset: 0x28FF76, size: 0x8, addend: 0x0, symName: '__ZN4core3ptr64drop_in_place$LT$alloc..vec..Vec$LT$syn..attr..Attribute$GT$$GT$17h386324d8ea9bc309E.llvm.8444515518860579797', symObjAddr: 0x7ED0, symBinAddr: 0x79BD0, symSize: 0xF0 }
  - { offsetInCU: 0x40E76, offset: 0x29026C, size: 0x8, addend: 0x0, symName: '__ZN4core3ptr65drop_in_place$LT$alloc..vec..Vec$LT$proc_macro..TokenTree$GT$$GT$17hc3670dd5608d5259E.llvm.8444515518860579797', symObjAddr: 0x7FC0, symBinAddr: 0x79CC0, symSize: 0x110 }
  - { offsetInCU: 0x4126E, offset: 0x290664, size: 0x8, addend: 0x0, symName: '__ZN4core3ptr65drop_in_place$LT$core..option..Option$LT$syn..expr..Label$GT$$GT$17ha723640fd01bec5dE', symObjAddr: 0x80D0, symBinAddr: 0x79DD0, symSize: 0x30 }
  - { offsetInCU: 0x413A8, offset: 0x29079E, size: 0x8, addend: 0x0, symName: '__ZN4core3ptr65drop_in_place$LT$core..option..Option$LT$syn..path..QSelf$GT$$GT$17h213ca1c3399df9f2E', symObjAddr: 0x8100, symBinAddr: 0x79E00, symSize: 0x50 }
  - { offsetInCU: 0x4153F, offset: 0x290935, size: 0x8, addend: 0x0, symName: '__ZN4core3ptr66drop_in_place$LT$core..option..Option$LT$syn..ty..Variadic$GT$$GT$17hc32134bb3933b0dfE', symObjAddr: 0x8150, symBinAddr: 0x79E50, symSize: 0xF0 }
  - { offsetInCU: 0x41869, offset: 0x290C5F, size: 0x8, addend: 0x0, symName: '__ZN4core3ptr67drop_in_place$LT$alloc..boxed..Box$LT$syn..expr..FieldValue$GT$$GT$17h8df780aa600ea8c2E', symObjAddr: 0x8240, symBinAddr: 0x79F40, symSize: 0x160 }
  - { offsetInCU: 0x41DEB, offset: 0x2911E1, size: 0x8, addend: 0x0, symName: '__ZN4core3ptr68drop_in_place$LT$alloc..boxed..Box$LT$syn..path..PathSegment$GT$$GT$17h1957b54eed39c0bbE', symObjAddr: 0x83A0, symBinAddr: 0x7A0A0, symSize: 0x190 }
  - { offsetInCU: 0x424F5, offset: 0x2918EB, size: 0x8, addend: 0x0, symName: '__ZN4core3ptr72drop_in_place$LT$alloc..boxed..Box$LT$syn..path..GenericArgument$GT$$GT$17ha8f8136d0c2b505bE', symObjAddr: 0x8530, symBinAddr: 0x7A230, symSize: 0x120 }
  - { offsetInCU: 0x4296D, offset: 0x291D63, size: 0x8, addend: 0x0, symName: '__ZN4core3ptr72drop_in_place$LT$core..option..Option$LT$syn..lifetime..Lifetime$GT$$GT$17h31b55b93749c174dE', symObjAddr: 0x8650, symBinAddr: 0x7A350, symSize: 0x30 }
  - { offsetInCU: 0x42A88, offset: 0x291E7E, size: 0x8, addend: 0x0, symName: '__ZN4core3ptr75drop_in_place$LT$alloc..boxed..Box$LT$syn..generics..TypeParamBound$GT$$GT$17h8f156ce07ea0b8b2E', symObjAddr: 0x8680, symBinAddr: 0x7A380, symSize: 0x90 }
  - { offsetInCU: 0x42DC7, offset: 0x2921BD, size: 0x8, addend: 0x0, symName: '__ZN4core3ptr78drop_in_place$LT$core..option..Option$LT$syn..generics..BoundLifetimes$GT$$GT$17h8175e66ad0c4a156E', symObjAddr: 0x8730, symBinAddr: 0x7A410, symSize: 0xE0 }
  - { offsetInCU: 0x43125, offset: 0x29251B, size: 0x8, addend: 0x0, symName: '__ZN4core3ptr86drop_in_place$LT$syn..punctuated..Punctuated$LT$syn..pat..Pat$C$syn..token..Or$GT$$GT$17h1078c5d178d382b7E', symObjAddr: 0x8810, symBinAddr: 0x7A4F0, symSize: 0x120 }
  - { offsetInCU: 0x435A0, offset: 0x292996, size: 0x8, addend: 0x0, symName: '__ZN4core3ptr87drop_in_place$LT$core..option..Option$LT$alloc..boxed..Box$LT$syn..pat..Pat$GT$$GT$$GT$17ha7f5fe0e6f73e820E', symObjAddr: 0x8930, symBinAddr: 0x7A610, symSize: 0x50 }
  - { offsetInCU: 0x43710, offset: 0x292B06, size: 0x8, addend: 0x0, symName: '__ZN4core3ptr87drop_in_place$LT$core..option..Option$LT$alloc..boxed..Box$LT$syn..ty..Type$GT$$GT$$GT$17hc8292da82d129de3E', symObjAddr: 0x8980, symBinAddr: 0x7A660, symSize: 0x50 }
  - { offsetInCU: 0x43880, offset: 0x292C76, size: 0x8, addend: 0x0, symName: '__ZN4core3ptr88drop_in_place$LT$$LP$syn..token..Else$C$alloc..boxed..Box$LT$syn..expr..Expr$GT$$RP$$GT$17h7dd7c259e93fb46bE', symObjAddr: 0x89D0, symBinAddr: 0x7A6B0, symSize: 0x50 }
  - { offsetInCU: 0x439F8, offset: 0x292DEE, size: 0x8, addend: 0x0, symName: '__ZN4core3ptr89drop_in_place$LT$core..option..Option$LT$alloc..boxed..Box$LT$syn..expr..Expr$GT$$GT$$GT$17hdc211ccd33f196f2E', symObjAddr: 0x8A20, symBinAddr: 0x7A700, symSize: 0x50 }
  - { offsetInCU: 0x43B68, offset: 0x292F5E, size: 0x8, addend: 0x0, symName: '__ZN4core3ptr89drop_in_place$LT$syn..punctuated..Punctuated$LT$syn..pat..Pat$C$syn..token..Comma$GT$$GT$17hf8371102b0500adcE', symObjAddr: 0x8A70, symBinAddr: 0x7A750, symSize: 0x120 }
  - { offsetInCU: 0x43FE7, offset: 0x2933DD, size: 0x8, addend: 0x0, symName: '__ZN4core3ptr89drop_in_place$LT$syn..punctuated..Punctuated$LT$syn..ty..Type$C$syn..token..Comma$GT$$GT$17h1c6e43341fabea97E', symObjAddr: 0x8B90, symBinAddr: 0x7A870, symSize: 0x120 }
  - { offsetInCU: 0x44462, offset: 0x293858, size: 0x8, addend: 0x0, symName: '__ZN4core3ptr91drop_in_place$LT$syn..punctuated..Punctuated$LT$syn..expr..Expr$C$syn..token..Comma$GT$$GT$17hd2dfeb0c522d9a18E', symObjAddr: 0x8CB0, symBinAddr: 0x7A990, symSize: 0x120 }
  - { offsetInCU: 0x448DD, offset: 0x293CD3, size: 0x8, addend: 0x0, symName: '__ZN4core3ptr94drop_in_place$LT$syn..punctuated..Punctuated$LT$syn..pat..FieldPat$C$syn..token..Comma$GT$$GT$17h612cbc9066d5afb1E', symObjAddr: 0x8DD0, symBinAddr: 0x7AAB0, symSize: 0xF0 }
  - { offsetInCU: 0x44BDC, offset: 0x293FD2, size: 0x8, addend: 0x0, symName: '__ZN4core3ptr94drop_in_place$LT$syn..punctuated..Punctuated$LT$syn..ty..BareFnArg$C$syn..token..Comma$GT$$GT$17ha9a668ce9972795bE', symObjAddr: 0x8EC0, symBinAddr: 0x7ABA0, symSize: 0xF0 }
  - { offsetInCU: 0x44ED9, offset: 0x2942CF, size: 0x8, addend: 0x0, symName: '__ZN4core3ptr95drop_in_place$LT$core..option..Option$LT$$LP$proc_macro2..Ident$C$syn..token..Colon$RP$$GT$$GT$17h7314df562090eafdE', symObjAddr: 0x8FB0, symBinAddr: 0x7AC90, symSize: 0x30 }
  - { offsetInCU: 0x44FF4, offset: 0x2943EA, size: 0x8, addend: 0x0, symName: '__ZN4core3ptr95drop_in_place$LT$core..option..Option$LT$alloc..boxed..Box$LT$syn..expr..FieldValue$GT$$GT$$GT$17hd0d57ae8c6b091c1E', symObjAddr: 0x8FE0, symBinAddr: 0x7ACC0, symSize: 0x50 }
  - { offsetInCU: 0x45164, offset: 0x29455A, size: 0x8, addend: 0x0, symName: '__ZN4core3ptr96drop_in_place$LT$core..option..Option$LT$alloc..boxed..Box$LT$syn..path..PathSegment$GT$$GT$$GT$17h2e81cbe3c70bb71cE', symObjAddr: 0x9030, symBinAddr: 0x7AD10, symSize: 0x180 }
  - { offsetInCU: 0x45821, offset: 0x294C17, size: 0x8, addend: 0x0, symName: '__ZN4core3ptr97drop_in_place$LT$syn..punctuated..Punctuated$LT$syn..expr..FieldValue$C$syn..token..Comma$GT$$GT$17h11a5fffb46adfb11E', symObjAddr: 0x91B0, symBinAddr: 0x7AE90, symSize: 0xF0 }
  - { offsetInCU: 0x45B9A, offset: 0x294F90, size: 0x8, addend: 0x0, symName: '__ZN4core3ptr97drop_in_place$LT$syn..punctuated..Punctuated$LT$syn..lifetime..Lifetime$C$syn..token..Add$GT$$GT$17h5c54dea2c838d109E', symObjAddr: 0x92A0, symBinAddr: 0x7AF80, symSize: 0xD0 }
  - { offsetInCU: 0x4600E, offset: 0x295404, size: 0x8, addend: 0x0, symName: '__ZN4core3ptr99drop_in_place$LT$syn..punctuated..Punctuated$LT$syn..path..PathSegment$C$syn..token..Colon2$GT$$GT$17hb961e4d7989a33ceE', symObjAddr: 0x9370, symBinAddr: 0x7B050, symSize: 0x250 }
  - { offsetInCU: 0x4CA9C, offset: 0x29BE92, size: 0x8, addend: 0x0, symName: __ZN5alloc5alloc15exchange_malloc17h9a87608d0224859dE, symObjAddr: 0x9610, symBinAddr: 0x7B2A0, symSize: 0x40 }
  - { offsetInCU: 0x4EEE4, offset: 0x29E2DA, size: 0x8, addend: 0x0, symName: '__ZN69_$LT$alloc..boxed..Box$LT$T$C$A$GT$$u20$as$u20$core..clone..Clone$GT$5clone17hb1b95e73f0a2c98fE', symObjAddr: 0x9BB0, symBinAddr: 0x7B2E0, symSize: 0x90 }
  - { offsetInCU: 0x50F36, offset: 0x2A032C, size: 0x8, addend: 0x0, symName: __ZN3syn4expr4Expr13replace_attrs17h45273f69f34fc620E, symObjAddr: 0x9E60, symBinAddr: 0x7B370, symSize: 0x210 }
  - { offsetInCU: 0x19BB, offset: 0x2AE83D, size: 0x8, addend: 0x0, symName: '__ZN4core3ptr100drop_in_place$LT$core..option..Option$LT$alloc..boxed..Box$LT$syn..generics..LifetimeDef$GT$$GT$$GT$17h75a6086997697dd7E.llvm.2919429348807089406', symObjAddr: 0x560, symBinAddr: 0x88930, symSize: 0x50 }
  - { offsetInCU: 0x1B4A, offset: 0x2AE9CC, size: 0x8, addend: 0x0, symName: '__ZN4core3ptr100drop_in_place$LT$core..option..Option$LT$alloc..boxed..Box$LT$syn..path..GenericArgument$GT$$GT$$GT$17h3d29ec00a8f1918dE', symObjAddr: 0x5B0, symBinAddr: 0x88980, symSize: 0x50 }
  - { offsetInCU: 0x1D17, offset: 0x2AEB99, size: 0x8, addend: 0x0, symName: '__ZN4core3ptr101drop_in_place$LT$alloc..vec..Vec$LT$$LP$syn..generics..WherePredicate$C$syn..token..Comma$RP$$GT$$GT$17h08dfdcabd164aa70E.llvm.2919429348807089406', symObjAddr: 0x600, symBinAddr: 0x889D0, symSize: 0xD0 }
  - { offsetInCU: 0x2031, offset: 0x2AEEB3, size: 0x8, addend: 0x0, symName: '__ZN4core3ptr101drop_in_place$LT$core..option..Option$LT$alloc..boxed..Box$LT$syn..generics..GenericParam$GT$$GT$$GT$17h1fee4f1c7bd902c4E', symObjAddr: 0x6D0, symBinAddr: 0x88AA0, symSize: 0x50 }
  - { offsetInCU: 0x221D, offset: 0x2AF09F, size: 0x8, addend: 0x0, symName: '__ZN4core3ptr102drop_in_place$LT$syn..punctuated..Punctuated$LT$syn..generics..LifetimeDef$C$syn..token..Comma$GT$$GT$17h6013ea99e87d4528E.llvm.2919429348807089406', symObjAddr: 0x720, symBinAddr: 0x88AF0, symSize: 0xF0 }
  - { offsetInCU: 0x259B, offset: 0x2AF41D, size: 0x8, addend: 0x0, symName: '__ZN4core3ptr102drop_in_place$LT$syn..punctuated..Punctuated$LT$syn..path..GenericArgument$C$syn..token..Comma$GT$$GT$17h4b445f97c5aefb0eE.llvm.2919429348807089406', symObjAddr: 0x810, symBinAddr: 0x88BE0, symSize: 0xF0 }
  - { offsetInCU: 0x29D5, offset: 0x2AF857, size: 0x8, addend: 0x0, symName: '__ZN4core3ptr103drop_in_place$LT$core..option..Option$LT$alloc..boxed..Box$LT$syn..generics..TypeParamBound$GT$$GT$$GT$17h6cee73bc2b2ecea8E', symObjAddr: 0x900, symBinAddr: 0x88CD0, symSize: 0xA0 }
  - { offsetInCU: 0x2CC4, offset: 0x2AFB46, size: 0x8, addend: 0x0, symName: '__ZN4core3ptr103drop_in_place$LT$core..option..Option$LT$alloc..boxed..Box$LT$syn..generics..WherePredicate$GT$$GT$$GT$17headad361972eced7E', symObjAddr: 0x9A0, symBinAddr: 0x88D70, symSize: 0x50 }
  - { offsetInCU: 0x2EEE, offset: 0x2AFD70, size: 0x8, addend: 0x0, symName: '__ZN4core3ptr103drop_in_place$LT$syn..punctuated..Punctuated$LT$syn..generics..GenericParam$C$syn..token..Comma$GT$$GT$17hae00367f0c570156E', symObjAddr: 0x9F0, symBinAddr: 0x88DC0, symSize: 0x1A0 }
  - { offsetInCU: 0x347D, offset: 0x2B02FF, size: 0x8, addend: 0x0, symName: '__ZN4core3ptr103drop_in_place$LT$syn..punctuated..Punctuated$LT$syn..generics..TypeParamBound$C$syn..token..Add$GT$$GT$17he811d520c92af08aE', symObjAddr: 0xB90, symBinAddr: 0x88F60, symSize: 0x290 }
  - { offsetInCU: 0x40D3, offset: 0x2B0F55, size: 0x8, addend: 0x0, symName: '__ZN4core3ptr104drop_in_place$LT$alloc..vec..Vec$LT$$LP$syn..expr..GenericMethodArgument$C$syn..token..Comma$RP$$GT$$GT$17heae48b13c44e912aE.llvm.2919429348807089406', symObjAddr: 0xE20, symBinAddr: 0x891F0, symSize: 0xF0 }
  - { offsetInCU: 0x4463, offset: 0x2B12E5, size: 0x8, addend: 0x0, symName: '__ZN4core3ptr105drop_in_place$LT$syn..punctuated..Punctuated$LT$syn..generics..WherePredicate$C$syn..token..Comma$GT$$GT$17h53c71b5d1c98483dE', symObjAddr: 0xF10, symBinAddr: 0x892E0, symSize: 0x1A0 }
  - { offsetInCU: 0x4A5D, offset: 0x2B18DF, size: 0x8, addend: 0x0, symName: '__ZN4core3ptr108drop_in_place$LT$syn..punctuated..Punctuated$LT$syn..expr..GenericMethodArgument$C$syn..token..Comma$GT$$GT$17h92cbabe4862b2183E', symObjAddr: 0x10B0, symBinAddr: 0x89480, symSize: 0x150 }
  - { offsetInCU: 0x4F7F, offset: 0x2B1E01, size: 0x8, addend: 0x0, symName: '__ZN4core3ptr1247drop_in_place$LT$core..iter..adapters..flatten..Flatten$LT$core..iter..adapters..map..Map$LT$core..iter..adapters..map..Map$LT$core..iter..adapters..map..Map$LT$core..slice..iter..Iter$LT$syn..error..ErrorMessage$GT$$C$syn..error..ErrorMessage..to_compile_error$GT$$C$$LT$proc_macro2..TokenStream$u20$as$u20$core..iter..traits..collect..FromIterator$LT$proc_macro2..TokenStream$GT$$GT$..from_iter$LT$core..iter..adapters..map..Map$LT$core..slice..iter..Iter$LT$syn..error..ErrorMessage$GT$$C$syn..error..ErrorMessage..to_compile_error$GT$$GT$..$u7b$$u7b$closure$u7d$$u7d$$GT$$C$$LT$proc_macro2..imp..TokenStream$u20$as$u20$core..iter..traits..collect..FromIterator$LT$proc_macro2..imp..TokenStream$GT$$GT$..from_iter$LT$core..iter..adapters..map..Map$LT$core..iter..adapters..map..Map$LT$core..slice..iter..Iter$LT$syn..error..ErrorMessage$GT$$C$syn..error..ErrorMessage..to_compile_error$GT$$C$$LT$proc_macro2..TokenStream$u20$as$u20$core..iter..traits..collect..FromIterator$LT$proc_macro2..TokenStream$GT$$GT$..from_iter$LT$core..iter..adapters..map..Map$LT$core..slice..iter..Iter$LT$syn..error..ErrorMessage$GT$$C$syn..error..ErrorMessage..to_compile_error$GT$$GT$..$u7b$$u7b$closure$u7d$$u7d$$GT$$GT$..$u7b$$u7b$closure$u7d$$u7d$$GT$$GT$$GT$17he27900d9b890586cE', symObjAddr: 0x1200, symBinAddr: 0x895D0, symSize: 0x60 }
  - { offsetInCU: 0x5103, offset: 0x2B1F85, size: 0x8, addend: 0x0, symName: '__ZN4core3ptr126drop_in_place$LT$core..option..Option$LT$$LP$syn..token..And$C$core..option..Option$LT$syn..lifetime..Lifetime$GT$$RP$$GT$$GT$17h5979d670cb45416cE', symObjAddr: 0x1260, symBinAddr: 0x89630, symSize: 0x30 }
  - { offsetInCU: 0x5392, offset: 0x2B2214, size: 0x8, addend: 0x0, symName: '__ZN4core3ptr33drop_in_place$LT$syn..ty..Abi$GT$17h723a10e1a0acbd58E', symObjAddr: 0x1290, symBinAddr: 0x89660, symSize: 0x70 }
  - { offsetInCU: 0x53AE, offset: 0x2B2230, size: 0x8, addend: 0x0, symName: '__ZN4core3ptr33drop_in_place$LT$syn..ty..Abi$GT$17h723a10e1a0acbd58E', symObjAddr: 0x1290, symBinAddr: 0x89660, symSize: 0x70 }
  - { offsetInCU: 0x5686, offset: 0x2B2508, size: 0x8, addend: 0x0, symName: '__ZN4core3ptr34drop_in_place$LT$syn..lit..Lit$GT$17hbe1efe749a08dd9aE.llvm.2919429348807089406', symObjAddr: 0x1300, symBinAddr: 0x896D0, symSize: 0x120 }
  - { offsetInCU: 0x5B81, offset: 0x2B2A03, size: 0x8, addend: 0x0, symName: '__ZN4core3ptr34drop_in_place$LT$syn..pat..Pat$GT$17h3201f642e43ac2a2E.llvm.2919429348807089406', symObjAddr: 0x1420, symBinAddr: 0x897F0, symSize: 0x930 }
  - { offsetInCU: 0x8BCD, offset: 0x2B5A4F, size: 0x8, addend: 0x0, symName: '__ZN4core3ptr34drop_in_place$LT$syn..ty..Type$GT$17hfb5d159a08190130E.llvm.2919429348807089406', symObjAddr: 0x1D50, symBinAddr: 0x8A120, symSize: 0x380 }
  - { offsetInCU: 0x97B3, offset: 0x2B6635, size: 0x8, addend: 0x0, symName: '__ZN4core3ptr35drop_in_place$LT$syn..expr..Arm$GT$17h2f058dcaecfc86d5E.llvm.2919429348807089406', symObjAddr: 0x20D0, symBinAddr: 0x8A4A0, symSize: 0x1A0 }
  - { offsetInCU: 0xA409, offset: 0x2B728B, size: 0x8, addend: 0x0, symName: '__ZN4core3ptr36drop_in_place$LT$syn..expr..Expr$GT$17hf1921d1b09462bc3E.llvm.2919429348807089406', symObjAddr: 0x2270, symBinAddr: 0x8A640, symSize: 0x1E10 }
  - { offsetInCU: 0x1415A, offset: 0x2C0FDC, size: 0x8, addend: 0x0, symName: '__ZN4core3ptr36drop_in_place$LT$syn..item..Item$GT$17hf1fe4e69bb0a9b43E.llvm.2919429348807089406', symObjAddr: 0x4080, symBinAddr: 0x8C450, symSize: 0x1650 }
  - { offsetInCU: 0x1AAE7, offset: 0x2C7969, size: 0x8, addend: 0x0, symName: '__ZN4core3ptr36drop_in_place$LT$syn..path..Path$GT$17he6d0bec66d66b98aE.llvm.2919429348807089406', symObjAddr: 0x56D0, symBinAddr: 0x8DAA0, symSize: 0x150 }
  - { offsetInCU: 0x1B0A7, offset: 0x2C7F29, size: 0x8, addend: 0x0, symName: '__ZN4core3ptr36drop_in_place$LT$syn..stmt..Stmt$GT$17h1cbf7c4dce3085eaE.llvm.2919429348807089406', symObjAddr: 0x5820, symBinAddr: 0x8DBF0, symSize: 0x140 }
  - { offsetInCU: 0x1B539, offset: 0x2C83BB, size: 0x8, addend: 0x0, symName: '__ZN4core3ptr37drop_in_place$LT$syn..data..Field$GT$17h6bfcb460cfa4c863E.llvm.2919429348807089406', symObjAddr: 0x5960, symBinAddr: 0x8DD30, symSize: 0x1B0 }
  - { offsetInCU: 0x1BB33, offset: 0x2C89B5, size: 0x8, addend: 0x0, symName: '__ZN4core3ptr37drop_in_place$LT$syn..item..FnArg$GT$17h52a13b3505938de2E.llvm.2919429348807089406', symObjAddr: 0x5B10, symBinAddr: 0x8DEE0, symSize: 0x190 }
  - { offsetInCU: 0x1C4D5, offset: 0x2C9357, size: 0x8, addend: 0x0, symName: '__ZN4core3ptr37drop_in_place$LT$syn..stmt..Block$GT$17h3aa429e75a234230E', symObjAddr: 0x5CA0, symBinAddr: 0x8E070, symSize: 0xD0 }
  - { offsetInCU: 0x1C7B3, offset: 0x2C9635, size: 0x8, addend: 0x0, symName: '__ZN4core3ptr38drop_in_place$LT$syn..expr..Member$GT$17ha113d37a67d27aafE.llvm.2919429348807089406', symObjAddr: 0x5D70, symBinAddr: 0x8E140, symSize: 0x30 }
  - { offsetInCU: 0x1C8AF, offset: 0x2C9731, size: 0x8, addend: 0x0, symName: '__ZN4core3ptr38drop_in_place$LT$syn..pat..PatType$GT$17h833e3c7992399b01E.llvm.2919429348807089406', symObjAddr: 0x5DA0, symBinAddr: 0x8E170, symSize: 0x160 }
  - { offsetInCU: 0x1CE67, offset: 0x2C9CE9, size: 0x8, addend: 0x0, symName: '__ZN4core3ptr38drop_in_place$LT$syn..ty..Variadic$GT$17h354585068960ea23E', symObjAddr: 0x5F00, symBinAddr: 0x8E2D0, symSize: 0xF0 }
  - { offsetInCU: 0x1D17B, offset: 0x2C9FFD, size: 0x8, addend: 0x0, symName: '__ZN4core3ptr39drop_in_place$LT$proc_macro2..Ident$GT$17hdeec010483268a0dE', symObjAddr: 0x5FF0, symBinAddr: 0x8E3C0, symSize: 0x30 }
  - { offsetInCU: 0x1D38E, offset: 0x2CA210, size: 0x8, addend: 0x0, symName: '__ZN4core3ptr39drop_in_place$LT$syn..buffer..Entry$GT$17hefeddf49a31e1f79E.llvm.2919429348807089406', symObjAddr: 0x6020, symBinAddr: 0x8E3F0, symSize: 0xB0 }
  - { offsetInCU: 0x1D776, offset: 0x2CA5F8, size: 0x8, addend: 0x0, symName: '__ZN4core3ptr39drop_in_place$LT$syn..data..Variant$GT$17hdf59a2045a52b17cE.llvm.2919429348807089406', symObjAddr: 0x60D0, symBinAddr: 0x8E4A0, symSize: 0x330 }
  - { offsetInCU: 0x1E41F, offset: 0x2CB2A1, size: 0x8, addend: 0x0, symName: '__ZN4core3ptr39drop_in_place$LT$syn..item..UseTree$GT$17h78d4ed19b48b8cbfE.llvm.2919429348807089406', symObjAddr: 0x6400, symBinAddr: 0x8E7D0, symSize: 0x1F0 }
  - { offsetInCU: 0x1EBF7, offset: 0x2CBA79, size: 0x8, addend: 0x0, symName: '__ZN4core3ptr39drop_in_place$LT$syn..pat..PatTuple$GT$17h96faeea9832d4c4bE', symObjAddr: 0x65F0, symBinAddr: 0x8E9C0, symSize: 0x1F0 }
  - { offsetInCU: 0x1F37C, offset: 0x2CC1FE, size: 0x8, addend: 0x0, symName: '__ZN4core3ptr40drop_in_place$LT$syn..item..Receiver$GT$17hc8a432a931462f79E.llvm.2919429348807089406', symObjAddr: 0x6920, symBinAddr: 0x8EBB0, symSize: 0x140 }
  - { offsetInCU: 0x1F80A, offset: 0x2CC68C, size: 0x8, addend: 0x0, symName: '__ZN4core3ptr40drop_in_place$LT$syn..ty..ReturnType$GT$17h6f97c9fdb958983eE.llvm.2919429348807089406', symObjAddr: 0x6A60, symBinAddr: 0x8ECF0, symSize: 0x50 }
  - { offsetInCU: 0x1F97A, offset: 0x2CC7FC, size: 0x8, addend: 0x0, symName: '__ZN4core3ptr41drop_in_place$LT$syn..attr..Attribute$GT$17h01ed88f7d2878bfcE.llvm.2919429348807089406', symObjAddr: 0x6AB0, symBinAddr: 0x8ED40, symSize: 0x40 }
  - { offsetInCU: 0x1FAEA, offset: 0x2CC96C, size: 0x8, addend: 0x0, symName: '__ZN4core3ptr41drop_in_place$LT$syn..item..Signature$GT$17hd57cfba25994ce69E', symObjAddr: 0x6AF0, symBinAddr: 0x8ED80, symSize: 0x330 }
  - { offsetInCU: 0x208BC, offset: 0x2CD73E, size: 0x8, addend: 0x0, symName: '__ZN4core3ptr43drop_in_place$LT$proc_macro2..TokenTree$GT$17h7270f34cee6d919dE.llvm.2919429348807089406', symObjAddr: 0x6F40, symBinAddr: 0x8F0B0, symSize: 0xB0 }
  - { offsetInCU: 0x20C17, offset: 0x2CDA99, size: 0x8, addend: 0x0, symName: '__ZN4core3ptr43drop_in_place$LT$syn..data..FieldsNamed$GT$17h73293dd81bcfeab6E', symObjAddr: 0x6FF0, symBinAddr: 0x8F160, symSize: 0x120 }
  - { offsetInCU: 0x21115, offset: 0x2CDF97, size: 0x8, addend: 0x0, symName: '__ZN4core3ptr43drop_in_place$LT$syn..path..PathSegment$GT$17h3d0f44137dd31bf9E.llvm.2919429348807089406', symObjAddr: 0x7110, symBinAddr: 0x8F280, symSize: 0x170 }
  - { offsetInCU: 0x216F0, offset: 0x2CE572, size: 0x8, addend: 0x0, symName: '__ZN4core3ptr44drop_in_place$LT$syn..generics..Generics$GT$17he0d6eb6045503c84E', symObjAddr: 0x7280, symBinAddr: 0x8F3F0, symSize: 0x230 }
  - { offsetInCU: 0x2202D, offset: 0x2CEEAF, size: 0x8, addend: 0x0, symName: '__ZN4core3ptr44drop_in_place$LT$syn..item..ImplItemType$GT$17hfa117ac59836f12aE', symObjAddr: 0x74B0, symBinAddr: 0x8F620, symSize: 0x200 }
  - { offsetInCU: 0x2264A, offset: 0x2CF4CC, size: 0x8, addend: 0x0, symName: '__ZN4core3ptr44drop_in_place$LT$syn..lifetime..Lifetime$GT$17h3858225df033648aE.llvm.2919429348807089406', symObjAddr: 0x76B0, symBinAddr: 0x8F820, symSize: 0x30 }
  - { offsetInCU: 0x227A3, offset: 0x2CF625, size: 0x8, addend: 0x0, symName: '__ZN4core3ptr45drop_in_place$LT$proc_macro2..TokenStream$GT$17h2507cb30e765dc85E.llvm.2919429348807089406', symObjAddr: 0x76E0, symBinAddr: 0x8F850, symSize: 0x70 }
  - { offsetInCU: 0x228D8, offset: 0x2CF75A, size: 0x8, addend: 0x0, symName: '__ZN4core3ptr45drop_in_place$LT$syn..data..VisRestricted$GT$17hcb973457cb67885aE', symObjAddr: 0x7750, symBinAddr: 0x8F8C0, symSize: 0xA0 }
  - { offsetInCU: 0x22C20, offset: 0x2CFAA2, size: 0x8, addend: 0x0, symName: '__ZN4core3ptr45drop_in_place$LT$syn..generics..TypeParam$GT$17h2de9c744cc1fcd2cE.llvm.2919429348807089406', symObjAddr: 0x77F0, symBinAddr: 0x8F960, symSize: 0x200 }
  - { offsetInCU: 0x23477, offset: 0x2D02F9, size: 0x8, addend: 0x0, symName: '__ZN4core3ptr45drop_in_place$LT$syn..item..ImplItemConst$GT$17hcd481022683c9056E', symObjAddr: 0x79F0, symBinAddr: 0x8FB60, symSize: 0x1D0 }
  - { offsetInCU: 0x23A51, offset: 0x2D08D3, size: 0x8, addend: 0x0, symName: '__ZN4core3ptr45drop_in_place$LT$syn..item..TraitItemType$GT$17hff73dc4d6b73b6f1E', symObjAddr: 0x7BC0, symBinAddr: 0x8FD30, symSize: 0x280 }
  - { offsetInCU: 0x24381, offset: 0x2D1203, size: 0x8, addend: 0x0, symName: '__ZN4core3ptr45drop_in_place$LT$syn..path..PathArguments$GT$17h9dd953520dcdc907E.llvm.2919429348807089406', symObjAddr: 0x7E40, symBinAddr: 0x8FFB0, symSize: 0xA0 }
  - { offsetInCU: 0x24552, offset: 0x2D13D4, size: 0x8, addend: 0x0, symName: '__ZN4core3ptr46drop_in_place$LT$syn..generics..ConstParam$GT$17hcae189adf84ad8c9E.llvm.2919429348807089406', symObjAddr: 0x7EE0, symBinAddr: 0x90050, symSize: 0x180 }
  - { offsetInCU: 0x2498A, offset: 0x2D180C, size: 0x8, addend: 0x0, symName: '__ZN4core3ptr46drop_in_place$LT$syn..item..ImplItemMethod$GT$17h81d5acf604d84d52E', symObjAddr: 0x8060, symBinAddr: 0x901D0, symSize: 0x240 }
  - { offsetInCU: 0x25108, offset: 0x2D1F8A, size: 0x8, addend: 0x0, symName: '__ZN4core3ptr46drop_in_place$LT$syn..item..TraitItemConst$GT$17ha3f3e5595f870971E', symObjAddr: 0x82A0, symBinAddr: 0x90410, symSize: 0x180 }
  - { offsetInCU: 0x25572, offset: 0x2D23F4, size: 0x8, addend: 0x0, symName: '__ZN4core3ptr47drop_in_place$LT$syn..generics..LifetimeDef$GT$17hd04bc9e6ed9dfb47E.llvm.2919429348807089406', symObjAddr: 0x8420, symBinAddr: 0x90590, symSize: 0x140 }
  - { offsetInCU: 0x259A6, offset: 0x2D2828, size: 0x8, addend: 0x0, symName: '__ZN4core3ptr47drop_in_place$LT$syn..generics..WhereClause$GT$17hb4cbc6f597fb20f3E', symObjAddr: 0x8560, symBinAddr: 0x906D0, symSize: 0x120 }
  - { offsetInCU: 0x25E66, offset: 0x2D2CE8, size: 0x8, addend: 0x0, symName: '__ZN4core3ptr47drop_in_place$LT$syn..path..GenericArgument$GT$17h8c0a0d8c6deaefb4E.llvm.2919429348807089406', symObjAddr: 0x8680, symBinAddr: 0x907F0, symSize: 0x110 }
  - { offsetInCU: 0x261A0, offset: 0x2D3022, size: 0x8, addend: 0x0, symName: '__ZN4core3ptr48drop_in_place$LT$syn..generics..GenericParam$GT$17h9292481f35bf25edE.llvm.2919429348807089406', symObjAddr: 0x8790, symBinAddr: 0x90900, symSize: 0xF0 }
  - { offsetInCU: 0x26585, offset: 0x2D3407, size: 0x8, addend: 0x0, symName: '__ZN4core3ptr49drop_in_place$LT$syn..generics..PredicateType$GT$17h1613bfd7dd5d96f2E.llvm.2919429348807089406', symObjAddr: 0x8880, symBinAddr: 0x909F0, symSize: 0x1E0 }
  - { offsetInCU: 0x26E40, offset: 0x2D3CC2, size: 0x8, addend: 0x0, symName: '__ZN4core3ptr49drop_in_place$LT$syn..item..ForeignItemStatic$GT$17hfe9f44f9dab5bcd1E', symObjAddr: 0x8A60, symBinAddr: 0x90BD0, symSize: 0x1D0 }
  - { offsetInCU: 0x276DD, offset: 0x2D455F, size: 0x8, addend: 0x0, symName: '__ZN4core3ptr50drop_in_place$LT$$u5b$syn..item..ImplItem$u5d$$GT$17h234f53b7b0028fc3E.llvm.2919429348807089406', symObjAddr: 0x8C30, symBinAddr: 0x90DA0, symSize: 0x900 }
  - { offsetInCU: 0x28E90, offset: 0x2D5D12, size: 0x8, addend: 0x0, symName: '__ZN4core3ptr50drop_in_place$LT$syn..generics..BoundLifetimes$GT$17hff8599a8d1e3c70cE.llvm.2919429348807089406', symObjAddr: 0x9530, symBinAddr: 0x916A0, symSize: 0x110 }
  - { offsetInCU: 0x29310, offset: 0x2D6192, size: 0x8, addend: 0x0, symName: '__ZN4core3ptr50drop_in_place$LT$syn..generics..TypeParamBound$GT$17h8d9a306b4a7f920fE.llvm.2919429348807089406', symObjAddr: 0x9640, symBinAddr: 0x917B0, symSize: 0xD0 }
  - { offsetInCU: 0x2961E, offset: 0x2D64A0, size: 0x8, addend: 0x0, symName: '__ZN4core3ptr50drop_in_place$LT$syn..generics..WherePredicate$GT$17h1fc5b3da95266304E.llvm.2919429348807089406', symObjAddr: 0x9710, symBinAddr: 0x91880, symSize: 0x110 }
  - { offsetInCU: 0x297BE, offset: 0x2D6640, size: 0x8, addend: 0x0, symName: '__ZN4core3ptr51drop_in_place$LT$$u5b$syn..attr..Attribute$u5d$$GT$17h98bc8e7c97002f1bE.llvm.2919429348807089406', symObjAddr: 0x9820, symBinAddr: 0x91990, symSize: 0xE0 }
  - { offsetInCU: 0x299D3, offset: 0x2D6855, size: 0x8, addend: 0x0, symName: '__ZN4core3ptr51drop_in_place$LT$$u5b$syn..item..TraitItem$u5d$$GT$17h6f6b1abc16bc25ccE.llvm.2919429348807089406', symObjAddr: 0x9900, symBinAddr: 0x91A70, symSize: 0x1100 }
  - { offsetInCU: 0x2CF67, offset: 0x2D9DE9, size: 0x8, addend: 0x0, symName: '__ZN4core3ptr53drop_in_place$LT$$u5b$syn..item..ForeignItem$u5d$$GT$17ha5d8369d024c9578E.llvm.2919429348807089406', symObjAddr: 0xAA00, symBinAddr: 0x92B70, symSize: 0x1880 }
  - { offsetInCU: 0x31FE1, offset: 0x2DEE63, size: 0x8, addend: 0x0, symName: '__ZN4core3ptr58drop_in_place$LT$alloc..vec..Vec$LT$syn..expr..Arm$GT$$GT$17hf3db0825f3d9c861E.llvm.2919429348807089406', symObjAddr: 0xC2A0, symBinAddr: 0x943F0, symSize: 0xD0 }
  - { offsetInCU: 0x322A8, offset: 0x2DF12A, size: 0x8, addend: 0x0, symName: '__ZN4core3ptr59drop_in_place$LT$alloc..boxed..Box$LT$syn..pat..Pat$GT$$GT$17h7037ce9bbd3729c6E.llvm.2919429348807089406', symObjAddr: 0xC370, symBinAddr: 0x944C0, symSize: 0x50 }
  - { offsetInCU: 0x32401, offset: 0x2DF283, size: 0x8, addend: 0x0, symName: '__ZN4core3ptr59drop_in_place$LT$alloc..boxed..Box$LT$syn..ty..Type$GT$$GT$17h2eccd13329dbe4faE.llvm.2919429348807089406', symObjAddr: 0xC3C0, symBinAddr: 0x94510, symSize: 0x50 }
  - { offsetInCU: 0x3255A, offset: 0x2DF3DC, size: 0x8, addend: 0x0, symName: '__ZN4core3ptr59drop_in_place$LT$alloc..vec..Vec$LT$syn..item..Item$GT$$GT$17h544d8e20d05b2f97E.llvm.2919429348807089406', symObjAddr: 0xC410, symBinAddr: 0x94560, symSize: 0xD0 }
  - { offsetInCU: 0x32821, offset: 0x2DF6A3, size: 0x8, addend: 0x0, symName: '__ZN4core3ptr59drop_in_place$LT$alloc..vec..Vec$LT$syn..stmt..Stmt$GT$$GT$17hed4646381107e302E.llvm.2919429348807089406', symObjAddr: 0xC4E0, symBinAddr: 0x94630, symSize: 0xD0 }
  - { offsetInCU: 0x32AE8, offset: 0x2DF96A, size: 0x8, addend: 0x0, symName: '__ZN4core3ptr61drop_in_place$LT$alloc..boxed..Box$LT$syn..expr..Expr$GT$$GT$17h66094ddc89015516E.llvm.2919429348807089406', symObjAddr: 0xC5B0, symBinAddr: 0x94700, symSize: 0x50 }
  - { offsetInCU: 0x32C41, offset: 0x2DFAC3, size: 0x8, addend: 0x0, symName: '__ZN4core3ptr61drop_in_place$LT$alloc..boxed..Box$LT$syn..path..Path$GT$$GT$17h2d3525cb73f7a6b0E', symObjAddr: 0xC600, symBinAddr: 0x94750, symSize: 0x50 }
  - { offsetInCU: 0x32DB7, offset: 0x2DFC39, size: 0x8, addend: 0x0, symName: '__ZN4core3ptr61drop_in_place$LT$syn..path..ParenthesizedGenericArguments$GT$17h21be9b1d7a6fab55E', symObjAddr: 0xC650, symBinAddr: 0x947A0, symSize: 0x170 }
  - { offsetInCU: 0x333B4, offset: 0x2E0236, size: 0x8, addend: 0x0, symName: '__ZN4core3ptr62drop_in_place$LT$alloc..boxed..Box$LT$syn..data..Field$GT$$GT$17h262ebccfc4519882E', symObjAddr: 0xC7C0, symBinAddr: 0x94910, symSize: 0x50 }
  - { offsetInCU: 0x3352C, offset: 0x2E03AE, size: 0x8, addend: 0x0, symName: '__ZN4core3ptr62drop_in_place$LT$alloc..boxed..Box$LT$syn..item..FnArg$GT$$GT$17h0b51ffa358d2119aE', symObjAddr: 0xC810, symBinAddr: 0x94960, symSize: 0x60 }
  - { offsetInCU: 0x336A2, offset: 0x2E0524, size: 0x8, addend: 0x0, symName: '__ZN4core3ptr62drop_in_place$LT$alloc..boxed..Box$LT$syn..stmt..Block$GT$$GT$17h0633c21446a415f4E', symObjAddr: 0xC870, symBinAddr: 0x949C0, symSize: 0xE0 }
  - { offsetInCU: 0x33AF9, offset: 0x2E097B, size: 0x8, addend: 0x0, symName: '__ZN4core3ptr62drop_in_place$LT$alloc..vec..Vec$LT$syn..buffer..Entry$GT$$GT$17hd4c03db647ab81bdE.llvm.2919429348807089406', symObjAddr: 0xC950, symBinAddr: 0x94AA0, symSize: 0xC0 }
  - { offsetInCU: 0x33DD1, offset: 0x2E0C53, size: 0x8, addend: 0x0, symName: '__ZN4core3ptr63drop_in_place$LT$alloc..vec..Vec$LT$syn..item..ImplItem$GT$$GT$17ha4d5b54edb0d5cb7E.llvm.2919429348807089406', symObjAddr: 0xCA10, symBinAddr: 0x94B60, symSize: 0x80 }
  - { offsetInCU: 0x34089, offset: 0x2E0F0B, size: 0x8, addend: 0x0, symName: '__ZN4core3ptr64drop_in_place$LT$alloc..boxed..Box$LT$syn..data..Variant$GT$$GT$17hc82ad80f9b8d8bfeE', symObjAddr: 0xCA90, symBinAddr: 0x94BE0, symSize: 0x50 }
  - { offsetInCU: 0x341E2, offset: 0x2E1064, size: 0x8, addend: 0x0, symName: '__ZN4core3ptr64drop_in_place$LT$alloc..boxed..Box$LT$syn..item..UseTree$GT$$GT$17h2fbb30105f88b737E', symObjAddr: 0xCAE0, symBinAddr: 0x94C30, symSize: 0x50 }
  - { offsetInCU: 0x34379, offset: 0x2E11FB, size: 0x8, addend: 0x0, symName: '__ZN4core3ptr64drop_in_place$LT$alloc..boxed..Box$LT$syn..pat..FieldPat$GT$$GT$17hb167b355d0d4733fE', symObjAddr: 0xCB30, symBinAddr: 0x94C80, symSize: 0x100 }
  - { offsetInCU: 0x34A3E, offset: 0x2E18C0, size: 0x8, addend: 0x0, symName: '__ZN4core3ptr64drop_in_place$LT$alloc..boxed..Box$LT$syn..ty..BareFnArg$GT$$GT$17h6488be9448346678E', symObjAddr: 0xCC30, symBinAddr: 0x94D80, symSize: 0xE0 }
  - { offsetInCU: 0x34F7C, offset: 0x2E1DFE, size: 0x8, addend: 0x0, symName: '__ZN4core3ptr64drop_in_place$LT$alloc..vec..Vec$LT$syn..attr..Attribute$GT$$GT$17h386324d8ea9bc309E.llvm.2919429348807089406', symObjAddr: 0xCD10, symBinAddr: 0x94E60, symSize: 0xF0 }
  - { offsetInCU: 0x3525C, offset: 0x2E20DE, size: 0x8, addend: 0x0, symName: '__ZN4core3ptr64drop_in_place$LT$alloc..vec..Vec$LT$syn..item..TraitItem$GT$$GT$17h0ef3c4b7ce592e9eE.llvm.2919429348807089406', symObjAddr: 0xCE00, symBinAddr: 0x94F50, symSize: 0x80 }
  - { offsetInCU: 0x35514, offset: 0x2E2396, size: 0x8, addend: 0x0, symName: '__ZN4core3ptr65drop_in_place$LT$$LP$syn..item..FnArg$C$syn..token..Comma$RP$$GT$17h36dd53979a5809e4E.llvm.2919429348807089406', symObjAddr: 0xCE80, symBinAddr: 0x94FD0, symSize: 0x20 }
  - { offsetInCU: 0x35550, offset: 0x2E23D2, size: 0x8, addend: 0x0, symName: '__ZN4core3ptr65drop_in_place$LT$alloc..vec..Vec$LT$proc_macro..TokenTree$GT$$GT$17hc3670dd5608d5259E.llvm.2919429348807089406', symObjAddr: 0xCEA0, symBinAddr: 0x94FF0, symSize: 0x110 }
  - { offsetInCU: 0x3594F, offset: 0x2E27D1, size: 0x8, addend: 0x0, symName: '__ZN4core3ptr65drop_in_place$LT$core..option..Option$LT$syn..expr..Label$GT$$GT$17ha723640fd01bec5dE', symObjAddr: 0xD070, symBinAddr: 0x95100, symSize: 0x30 }
  - { offsetInCU: 0x35A89, offset: 0x2E290B, size: 0x8, addend: 0x0, symName: '__ZN4core3ptr65drop_in_place$LT$core..option..Option$LT$syn..stmt..Block$GT$$GT$17hdff81fd7cb2986caE', symObjAddr: 0xD0A0, symBinAddr: 0x95130, symSize: 0xD0 }
  - { offsetInCU: 0x35D9C, offset: 0x2E2C1E, size: 0x8, addend: 0x0, symName: '__ZN4core3ptr66drop_in_place$LT$alloc..vec..Vec$LT$proc_macro2..TokenTree$GT$$GT$17h10186b8404a77a46E', symObjAddr: 0xD170, symBinAddr: 0x95200, symSize: 0xC0 }
  - { offsetInCU: 0x36074, offset: 0x2E2EF6, size: 0x8, addend: 0x0, symName: '__ZN4core3ptr66drop_in_place$LT$alloc..vec..Vec$LT$syn..item..ForeignItem$GT$$GT$17hc5d281d65e9f4398E.llvm.2919429348807089406', symObjAddr: 0xD230, symBinAddr: 0x952C0, symSize: 0x80 }
  - { offsetInCU: 0x3632C, offset: 0x2E31AE, size: 0x8, addend: 0x0, symName: '__ZN4core3ptr67drop_in_place$LT$$LP$syn..pat..FieldPat$C$syn..token..Comma$RP$$GT$17h28f8e87199173f9eE.llvm.2919429348807089406', symObjAddr: 0xD2B0, symBinAddr: 0x95340, symSize: 0xF0 }
  - { offsetInCU: 0x3687E, offset: 0x2E3700, size: 0x8, addend: 0x0, symName: '__ZN4core3ptr67drop_in_place$LT$$LP$syn..ty..BareFnArg$C$syn..token..Comma$RP$$GT$17h9078c1a50219df0bE.llvm.2919429348807089406', symObjAddr: 0xD3A0, symBinAddr: 0x95430, symSize: 0xD0 }
  - { offsetInCU: 0x36CB7, offset: 0x2E3B39, size: 0x8, addend: 0x0, symName: '__ZN4core3ptr67drop_in_place$LT$alloc..boxed..Box$LT$syn..expr..FieldValue$GT$$GT$17h8df780aa600ea8c2E', symObjAddr: 0xD520, symBinAddr: 0x95500, symSize: 0xE0 }
  - { offsetInCU: 0x371D5, offset: 0x2E4057, size: 0x8, addend: 0x0, symName: '__ZN4core3ptr68drop_in_place$LT$alloc..boxed..Box$LT$syn..path..PathSegment$GT$$GT$17h1957b54eed39c0bbE.llvm.2919429348807089406', symObjAddr: 0xD600, symBinAddr: 0x955E0, symSize: 0x170 }
  - { offsetInCU: 0x378B8, offset: 0x2E473A, size: 0x8, addend: 0x0, symName: '__ZN4core3ptr70drop_in_place$LT$$LP$syn..expr..FieldValue$C$syn..token..Comma$RP$$GT$17he025dc5053bc6a8bE.llvm.2919429348807089406', symObjAddr: 0xD880, symBinAddr: 0x95750, symSize: 0xD0 }
  - { offsetInCU: 0x37CB2, offset: 0x2E4B34, size: 0x8, addend: 0x0, symName: '__ZN4core3ptr72drop_in_place$LT$$LP$syn..path..PathSegment$C$syn..token..Colon2$RP$$GT$17h1baf491dcf9e7063E.llvm.2919429348807089406', symObjAddr: 0xD950, symBinAddr: 0x95820, symSize: 0xC0 }
  - { offsetInCU: 0x37F75, offset: 0x2E4DF7, size: 0x8, addend: 0x0, symName: '__ZN4core3ptr72drop_in_place$LT$alloc..boxed..Box$LT$syn..generics..LifetimeDef$GT$$GT$17h05409fc29b94598aE.llvm.2919429348807089406', symObjAddr: 0xDA10, symBinAddr: 0x958E0, symSize: 0xC0 }
  - { offsetInCU: 0x3849F, offset: 0x2E5321, size: 0x8, addend: 0x0, symName: '__ZN4core3ptr72drop_in_place$LT$alloc..boxed..Box$LT$syn..path..GenericArgument$GT$$GT$17ha8f8136d0c2b505bE.llvm.2919429348807089406', symObjAddr: 0xDAD0, symBinAddr: 0x959A0, symSize: 0x1D0 }
  - { offsetInCU: 0x38C03, offset: 0x2E5A85, size: 0x8, addend: 0x0, symName: '__ZN4core3ptr73drop_in_place$LT$alloc..boxed..Box$LT$syn..generics..GenericParam$GT$$GT$17he12c7a4a5320b13eE', symObjAddr: 0xDCA0, symBinAddr: 0x95B70, symSize: 0x80 }
  - { offsetInCU: 0x38D79, offset: 0x2E5BFB, size: 0x8, addend: 0x0, symName: '__ZN4core3ptr75drop_in_place$LT$$LP$syn..generics..LifetimeDef$C$syn..token..Comma$RP$$GT$17h3ec14722aacb36caE.llvm.2919429348807089406', symObjAddr: 0xDD20, symBinAddr: 0x95BF0, symSize: 0xB0 }
  - { offsetInCU: 0x39160, offset: 0x2E5FE2, size: 0x8, addend: 0x0, symName: '__ZN4core3ptr75drop_in_place$LT$$LP$syn..path..GenericArgument$C$syn..token..Comma$RP$$GT$17hae99285c368746d4E.llvm.2919429348807089406', symObjAddr: 0xDDD0, symBinAddr: 0x95CA0, symSize: 0x1E0 }
  - { offsetInCU: 0x39722, offset: 0x2E65A4, size: 0x8, addend: 0x0, symName: '__ZN4core3ptr75drop_in_place$LT$alloc..boxed..Box$LT$syn..generics..TypeParamBound$GT$$GT$17h8f156ce07ea0b8b2E', symObjAddr: 0xDFB0, symBinAddr: 0x95E80, symSize: 0xA0 }
  - { offsetInCU: 0x399FC, offset: 0x2E687E, size: 0x8, addend: 0x0, symName: '__ZN4core3ptr75drop_in_place$LT$alloc..boxed..Box$LT$syn..generics..WherePredicate$GT$$GT$17he9159676146cdcc0E', symObjAddr: 0xE050, symBinAddr: 0x95F20, symSize: 0xD0 }
  - { offsetInCU: 0x39CA4, offset: 0x2E6B26, size: 0x8, addend: 0x0, symName: '__ZN4core3ptr76drop_in_place$LT$$LP$syn..generics..GenericParam$C$syn..token..Comma$RP$$GT$17hb608b85cca720f66E.llvm.2919429348807089406', symObjAddr: 0xE120, symBinAddr: 0x95FF0, symSize: 0x50 }
  - { offsetInCU: 0x39CE0, offset: 0x2E6B62, size: 0x8, addend: 0x0, symName: '__ZN4core3ptr76drop_in_place$LT$$LP$syn..generics..TypeParamBound$C$syn..token..Add$RP$$GT$17h559c9012209c93bfE.llvm.2919429348807089406', symObjAddr: 0xE170, symBinAddr: 0x96040, symSize: 0x80 }
  - { offsetInCU: 0x39E7C, offset: 0x2E6CFE, size: 0x8, addend: 0x0, symName: '__ZN4core3ptr78drop_in_place$LT$$LP$syn..generics..WherePredicate$C$syn..token..Comma$RP$$GT$17he7c688f56dbd96f3E.llvm.2919429348807089406', symObjAddr: 0xE1F0, symBinAddr: 0x960C0, symSize: 0xA0 }
  - { offsetInCU: 0x39FF4, offset: 0x2E6E76, size: 0x8, addend: 0x0, symName: '__ZN4core3ptr78drop_in_place$LT$alloc..boxed..Box$LT$syn..expr..GenericMethodArgument$GT$$GT$17h3384c00b5bd54c2aE', symObjAddr: 0xE290, symBinAddr: 0x96160, symSize: 0x60 }
  - { offsetInCU: 0x3A16A, offset: 0x2E6FEC, size: 0x8, addend: 0x0, symName: '__ZN4core3ptr81drop_in_place$LT$$LP$syn..expr..GenericMethodArgument$C$syn..token..Comma$RP$$GT$17h6cb8506ab56d85d6E.llvm.2919429348807089406', symObjAddr: 0xE370, symBinAddr: 0x961C0, symSize: 0x30 }
  - { offsetInCU: 0x3A203, offset: 0x2E7085, size: 0x8, addend: 0x0, symName: '__ZN4core3ptr82drop_in_place$LT$alloc..vec..Vec$LT$$LP$syn..pat..Pat$C$syn..token..Or$RP$$GT$$GT$17he4f1446f4dd0391dE.llvm.2919429348807089406', symObjAddr: 0xE3A0, symBinAddr: 0x961F0, symSize: 0xD0 }
  - { offsetInCU: 0x3A502, offset: 0x2E7384, size: 0x8, addend: 0x0, symName: '__ZN4core3ptr85drop_in_place$LT$alloc..vec..Vec$LT$$LP$syn..pat..Pat$C$syn..token..Comma$RP$$GT$$GT$17h8ead75bf9213bc10E.llvm.2919429348807089406', symObjAddr: 0xE470, symBinAddr: 0x962C0, symSize: 0xD0 }
  - { offsetInCU: 0x3A801, offset: 0x2E7683, size: 0x8, addend: 0x0, symName: '__ZN4core3ptr85drop_in_place$LT$alloc..vec..Vec$LT$$LP$syn..ty..Type$C$syn..token..Comma$RP$$GT$$GT$17h2558a6f370e75802E.llvm.2919429348807089406', symObjAddr: 0xE540, symBinAddr: 0x96390, symSize: 0xD0 }
  - { offsetInCU: 0x3AAFC, offset: 0x2E797E, size: 0x8, addend: 0x0, symName: '__ZN4core3ptr86drop_in_place$LT$$LP$syn..token..If$C$alloc..boxed..Box$LT$syn..expr..Expr$GT$$RP$$GT$17he48bd3f744075dddE', symObjAddr: 0xE610, symBinAddr: 0x96460, symSize: 0x50 }
  - { offsetInCU: 0x3AC74, offset: 0x2E7AF6, size: 0x8, addend: 0x0, symName: '__ZN4core3ptr86drop_in_place$LT$$u5b$$LP$syn..generics..TypeParamBound$C$syn..token..Add$RP$$u5d$$GT$17h0b00def6dc905f2cE', symObjAddr: 0xE660, symBinAddr: 0x964B0, symSize: 0xE0 }
  - { offsetInCU: 0x3AE4A, offset: 0x2E7CCC, size: 0x8, addend: 0x0, symName: '__ZN4core3ptr86drop_in_place$LT$syn..punctuated..Punctuated$LT$syn..pat..Pat$C$syn..token..Or$GT$$GT$17h1078c5d178d382b7E', symObjAddr: 0xE740, symBinAddr: 0x96590, symSize: 0x120 }
  - { offsetInCU: 0x3B340, offset: 0x2E81C2, size: 0x8, addend: 0x0, symName: '__ZN4core3ptr87drop_in_place$LT$alloc..vec..Vec$LT$$LP$syn..expr..Expr$C$syn..token..Comma$RP$$GT$$GT$17ha5588c79c88b2eb2E.llvm.2919429348807089406', symObjAddr: 0xE860, symBinAddr: 0x966B0, symSize: 0xD0 }
  - { offsetInCU: 0x3B63B, offset: 0x2E84BD, size: 0x8, addend: 0x0, symName: '__ZN4core3ptr87drop_in_place$LT$core..option..Option$LT$alloc..boxed..Box$LT$syn..pat..Pat$GT$$GT$$GT$17ha7f5fe0e6f73e820E', symObjAddr: 0xE930, symBinAddr: 0x96780, symSize: 0x50 }
  - { offsetInCU: 0x3B7AB, offset: 0x2E862D, size: 0x8, addend: 0x0, symName: '__ZN4core3ptr87drop_in_place$LT$core..option..Option$LT$alloc..boxed..Box$LT$syn..ty..Type$GT$$GT$$GT$17hc8292da82d129de3E', symObjAddr: 0xE980, symBinAddr: 0x967D0, symSize: 0x50 }
  - { offsetInCU: 0x3B91B, offset: 0x2E879D, size: 0x8, addend: 0x0, symName: '__ZN4core3ptr88drop_in_place$LT$alloc..vec..Vec$LT$$LP$syn..data..Field$C$syn..token..Comma$RP$$GT$$GT$17h92f883c9746a1265E.llvm.2919429348807089406', symObjAddr: 0xE9D0, symBinAddr: 0x96820, symSize: 0xD0 }
  - { offsetInCU: 0x3BC16, offset: 0x2E8A98, size: 0x8, addend: 0x0, symName: '__ZN4core3ptr88drop_in_place$LT$alloc..vec..Vec$LT$$LP$syn..item..FnArg$C$syn..token..Comma$RP$$GT$$GT$17h4467406a7c8f89d5E.llvm.2919429348807089406', symObjAddr: 0xEAA0, symBinAddr: 0x968F0, symSize: 0xC0 }
  - { offsetInCU: 0x3BF0F, offset: 0x2E8D91, size: 0x8, addend: 0x0, symName: '__ZN4core3ptr89drop_in_place$LT$core..option..Option$LT$alloc..boxed..Box$LT$syn..expr..Expr$GT$$GT$$GT$17hdc211ccd33f196f2E', symObjAddr: 0xEB60, symBinAddr: 0x969B0, symSize: 0x50 }
  - { offsetInCU: 0x3C07F, offset: 0x2E8F01, size: 0x8, addend: 0x0, symName: '__ZN4core3ptr89drop_in_place$LT$syn..punctuated..Punctuated$LT$syn..ty..Type$C$syn..token..Comma$GT$$GT$17h1c6e43341fabea97E.llvm.2919429348807089406', symObjAddr: 0xEBB0, symBinAddr: 0x96A00, symSize: 0x120 }
  - { offsetInCU: 0x3C55E, offset: 0x2E93E0, size: 0x8, addend: 0x0, symName: '__ZN4core3ptr90drop_in_place$LT$alloc..vec..Vec$LT$$LP$syn..data..Variant$C$syn..token..Comma$RP$$GT$$GT$17h7886d5ad254619b6E.llvm.2919429348807089406', symObjAddr: 0xECD0, symBinAddr: 0x96B20, symSize: 0xD0 }
  - { offsetInCU: 0x3C859, offset: 0x2E96DB, size: 0x8, addend: 0x0, symName: '__ZN4core3ptr90drop_in_place$LT$alloc..vec..Vec$LT$$LP$syn..item..UseTree$C$syn..token..Comma$RP$$GT$$GT$17hd641cf5199af6a96E.llvm.2919429348807089406', symObjAddr: 0xEDA0, symBinAddr: 0x96BF0, symSize: 0xC0 }
  - { offsetInCU: 0x3CB90, offset: 0x2E9A12, size: 0x8, addend: 0x0, symName: '__ZN4core3ptr90drop_in_place$LT$alloc..vec..Vec$LT$$LP$syn..pat..FieldPat$C$syn..token..Comma$RP$$GT$$GT$17h821f3c6217b2c623E.llvm.2919429348807089406', symObjAddr: 0xEE60, symBinAddr: 0x96CB0, symSize: 0xD0 }
  - { offsetInCU: 0x3CE97, offset: 0x2E9D19, size: 0x8, addend: 0x0, symName: '__ZN4core3ptr90drop_in_place$LT$alloc..vec..Vec$LT$$LP$syn..ty..BareFnArg$C$syn..token..Comma$RP$$GT$$GT$17hb8d63f816cfff9deE.llvm.2919429348807089406', symObjAddr: 0xEF30, symBinAddr: 0x96D80, symSize: 0xD0 }
  - { offsetInCU: 0x3D15E, offset: 0x2E9FE0, size: 0x8, addend: 0x0, symName: '__ZN4core3ptr90drop_in_place$LT$core..option..Option$LT$alloc..boxed..Box$LT$syn..data..Field$GT$$GT$$GT$17he146e9f4e32c136fE', symObjAddr: 0xF000, symBinAddr: 0x96E50, symSize: 0x50 }
  - { offsetInCU: 0x3D2CE, offset: 0x2EA150, size: 0x8, addend: 0x0, symName: '__ZN4core3ptr90drop_in_place$LT$core..option..Option$LT$alloc..boxed..Box$LT$syn..item..FnArg$GT$$GT$$GT$17ha72e545cf6ea6548E', symObjAddr: 0xF050, symBinAddr: 0x96EA0, symSize: 0x50 }
  - { offsetInCU: 0x3D45D, offset: 0x2EA2DF, size: 0x8, addend: 0x0, symName: '__ZN4core3ptr91drop_in_place$LT$syn..punctuated..Punctuated$LT$syn..expr..Expr$C$syn..token..Comma$GT$$GT$17hd2dfeb0c522d9a18E', symObjAddr: 0xF0A0, symBinAddr: 0x96EF0, symSize: 0x120 }
  - { offsetInCU: 0x3D8F2, offset: 0x2EA774, size: 0x8, addend: 0x0, symName: '__ZN4core3ptr92drop_in_place$LT$core..option..Option$LT$$LP$syn..token..As$C$proc_macro2..Ident$RP$$GT$$GT$17hdb8e08992a006501E', symObjAddr: 0xF1C0, symBinAddr: 0x97010, symSize: 0x30 }
  - { offsetInCU: 0x3DA0D, offset: 0x2EA88F, size: 0x8, addend: 0x0, symName: '__ZN4core3ptr92drop_in_place$LT$syn..punctuated..Punctuated$LT$syn..data..Field$C$syn..token..Comma$GT$$GT$17h907c4fed8ae64bc3E', symObjAddr: 0xF1F0, symBinAddr: 0x97040, symSize: 0x120 }
  - { offsetInCU: 0x3DE8F, offset: 0x2EAD11, size: 0x8, addend: 0x0, symName: '__ZN4core3ptr92drop_in_place$LT$syn..punctuated..Punctuated$LT$syn..item..FnArg$C$syn..token..Comma$GT$$GT$17h3049a14d789de61dE', symObjAddr: 0xF310, symBinAddr: 0x97160, symSize: 0x150 }
  - { offsetInCU: 0x3E35E, offset: 0x2EB1E0, size: 0x8, addend: 0x0, symName: '__ZN4core3ptr93drop_in_place$LT$alloc..vec..Vec$LT$$LP$syn..expr..FieldValue$C$syn..token..Comma$RP$$GT$$GT$17hd798ac33b9d22184E.llvm.2919429348807089406', symObjAddr: 0xF530, symBinAddr: 0x972B0, symSize: 0xD0 }
  - { offsetInCU: 0x3E682, offset: 0x2EB504, size: 0x8, addend: 0x0, symName: '__ZN4core3ptr93drop_in_place$LT$alloc..vec..Vec$LT$$LP$syn..lifetime..Lifetime$C$syn..token..Add$RP$$GT$$GT$17hde298d17c652af62E.llvm.2919429348807089406', symObjAddr: 0xF600, symBinAddr: 0x97380, symSize: 0x90 }
  - { offsetInCU: 0x3E983, offset: 0x2EB805, size: 0x8, addend: 0x0, symName: '__ZN4core3ptr94drop_in_place$LT$syn..punctuated..Punctuated$LT$syn..data..Variant$C$syn..token..Comma$GT$$GT$17hb4480d65f74dc9d7E', symObjAddr: 0xF690, symBinAddr: 0x97410, symSize: 0x120 }
  - { offsetInCU: 0x3EE56, offset: 0x2EBCD8, size: 0x8, addend: 0x0, symName: '__ZN4core3ptr94drop_in_place$LT$syn..punctuated..Punctuated$LT$syn..pat..FieldPat$C$syn..token..Comma$GT$$GT$17h612cbc9066d5afb1E', symObjAddr: 0xF7B0, symBinAddr: 0x97530, symSize: 0xF0 }
  - { offsetInCU: 0x3F1AD, offset: 0x2EC02F, size: 0x8, addend: 0x0, symName: '__ZN4core3ptr94drop_in_place$LT$syn..punctuated..Punctuated$LT$syn..ty..BareFnArg$C$syn..token..Comma$GT$$GT$17ha9a668ce9972795bE', symObjAddr: 0xF8A0, symBinAddr: 0x97620, symSize: 0xF0 }
  - { offsetInCU: 0x3F4C4, offset: 0x2EC346, size: 0x8, addend: 0x0, symName: '__ZN4core3ptr95drop_in_place$LT$alloc..vec..Vec$LT$$LP$syn..path..PathSegment$C$syn..token..Colon2$RP$$GT$$GT$17hd4ac5ab6c0f8b220E.llvm.2919429348807089406', symObjAddr: 0xF990, symBinAddr: 0x97710, symSize: 0x100 }
  - { offsetInCU: 0x3F8A0, offset: 0x2EC722, size: 0x8, addend: 0x0, symName: '__ZN4core3ptr95drop_in_place$LT$core..option..Option$LT$$LP$proc_macro2..Ident$C$syn..token..Colon$RP$$GT$$GT$17h7314df562090eafdE.llvm.2919429348807089406', symObjAddr: 0xFA90, symBinAddr: 0x97810, symSize: 0x30 }
  - { offsetInCU: 0x3F9BB, offset: 0x2EC83D, size: 0x8, addend: 0x0, symName: '__ZN4core3ptr96drop_in_place$LT$core..option..Option$LT$alloc..boxed..Box$LT$syn..path..PathSegment$GT$$GT$$GT$17h2e81cbe3c70bb71cE.llvm.2919429348807089406', symObjAddr: 0xFB10, symBinAddr: 0x97840, symSize: 0x50 }
  - { offsetInCU: 0x3FB69, offset: 0x2EC9EB, size: 0x8, addend: 0x0, symName: '__ZN4core3ptr97drop_in_place$LT$syn..punctuated..Punctuated$LT$syn..expr..FieldValue$C$syn..token..Comma$GT$$GT$17h11a5fffb46adfb11E', symObjAddr: 0xFCF0, symBinAddr: 0x97890, symSize: 0xF0 }
  - { offsetInCU: 0x3FEDD, offset: 0x2ECD5F, size: 0x8, addend: 0x0, symName: '__ZN4core3ptr97drop_in_place$LT$syn..punctuated..Punctuated$LT$syn..lifetime..Lifetime$C$syn..token..Add$GT$$GT$17h5c54dea2c838d109E.llvm.2919429348807089406', symObjAddr: 0xFDE0, symBinAddr: 0x97980, symSize: 0xD0 }
  - { offsetInCU: 0x4034F, offset: 0x2ED1D1, size: 0x8, addend: 0x0, symName: '__ZN4core3ptr98drop_in_place$LT$alloc..vec..Vec$LT$$LP$syn..generics..LifetimeDef$C$syn..token..Comma$RP$$GT$$GT$17h1ff3008828a3546eE.llvm.2919429348807089406', symObjAddr: 0xFEB0, symBinAddr: 0x97A50, symSize: 0xC0 }
  - { offsetInCU: 0x40648, offset: 0x2ED4CA, size: 0x8, addend: 0x0, symName: '__ZN4core3ptr98drop_in_place$LT$alloc..vec..Vec$LT$$LP$syn..path..GenericArgument$C$syn..token..Comma$RP$$GT$$GT$17ha8e33b474744c469E.llvm.2919429348807089406', symObjAddr: 0xFF70, symBinAddr: 0x97B10, symSize: 0xD0 }
  - { offsetInCU: 0x40943, offset: 0x2ED7C5, size: 0x8, addend: 0x0, symName: '__ZN4core3ptr99drop_in_place$LT$alloc..vec..Vec$LT$$LP$syn..generics..GenericParam$C$syn..token..Comma$RP$$GT$$GT$17h6a63382b7b118436E.llvm.2919429348807089406', symObjAddr: 0x10040, symBinAddr: 0x97BE0, symSize: 0xD0 }
  - { offsetInCU: 0x40C3E, offset: 0x2EDAC0, size: 0x8, addend: 0x0, symName: '__ZN4core3ptr99drop_in_place$LT$alloc..vec..Vec$LT$$LP$syn..generics..TypeParamBound$C$syn..token..Add$RP$$GT$$GT$17h1faee7dfcf042dc4E.llvm.2919429348807089406', symObjAddr: 0x10110, symBinAddr: 0x97CB0, symSize: 0xC0 }
  - { offsetInCU: 0x40F37, offset: 0x2EDDB9, size: 0x8, addend: 0x0, symName: '__ZN4core3ptr99drop_in_place$LT$syn..punctuated..Punctuated$LT$syn..path..PathSegment$C$syn..token..Colon2$GT$$GT$17hb961e4d7989a33ceE.llvm.2919429348807089406', symObjAddr: 0x101D0, symBinAddr: 0x97D70, symSize: 0xF0 }
  - { offsetInCU: 0x46F18, offset: 0x2F3D9A, size: 0x8, addend: 0x0, symName: '__ZN48_$LT$T$u20$as$u20$core..clone..CloneToUninit$GT$15clone_to_uninit17h4ec7541d8e1e05f7E', symObjAddr: 0x220, symBinAddr: 0x885F0, symSize: 0x340 }
  - { offsetInCU: 0x48455, offset: 0x2F52D7, size: 0x8, addend: 0x0, symName: '__ZN136_$LT$alloc..vec..Vec$LT$T$C$A$GT$$u20$as$u20$alloc..vec..spec_extend..SpecExtend$LT$T$C$alloc..vec..into_iter..IntoIter$LT$T$GT$$GT$$GT$11spec_extend17h8843d0dbc1b1f870E', symObjAddr: 0x20, symBinAddr: 0x88540, symSize: 0xB0 }
  - { offsetInCU: 0x4878B, offset: 0x2F560D, size: 0x8, addend: 0x0, symName: '__ZN97_$LT$alloc..vec..Vec$LT$T$C$A$GT$$u20$as$u20$alloc..vec..spec_extend..SpecExtend$LT$T$C$I$GT$$GT$11spec_extend17hd5c233121a9f5638E', symObjAddr: 0x14720, symBinAddr: 0x9A810, symSize: 0x330 }
  - { offsetInCU: 0x497C1, offset: 0x2F6643, size: 0x8, addend: 0x0, symName: '__ZN65_$LT$alloc..vec..Vec$LT$T$C$A$GT$$u20$as$u20$core..fmt..Debug$GT$3fmt17h4b81b50d8fe38c59E', symObjAddr: 0x106C0, symBinAddr: 0x97EF0, symSize: 0x80 }
  - { offsetInCU: 0x499A3, offset: 0x2F6825, size: 0x8, addend: 0x0, symName: '__ZN65_$LT$alloc..vec..Vec$LT$T$C$A$GT$$u20$as$u20$core..fmt..Debug$GT$3fmt17hf50488d82a0ae802E', symObjAddr: 0x10940, symBinAddr: 0x97F70, symSize: 0x80 }
  - { offsetInCU: 0x49BE3, offset: 0x2F6A65, size: 0x8, addend: 0x0, symName: '__ZN67_$LT$alloc..vec..Vec$LT$T$C$A$GT$$u20$as$u20$core..clone..Clone$GT$5clone17h067ba7b3e9618fa6E', symObjAddr: 0x109C0, symBinAddr: 0x97FF0, symSize: 0x140 }
  - { offsetInCU: 0x4A074, offset: 0x2F6EF6, size: 0x8, addend: 0x0, symName: '__ZN67_$LT$alloc..vec..Vec$LT$T$C$A$GT$$u20$as$u20$core..clone..Clone$GT$5clone17h0f27e1d119576456E', symObjAddr: 0x10C70, symBinAddr: 0x98130, symSize: 0x170 }
  - { offsetInCU: 0x4A5D6, offset: 0x2F7458, size: 0x8, addend: 0x0, symName: '__ZN67_$LT$alloc..vec..Vec$LT$T$C$A$GT$$u20$as$u20$core..clone..Clone$GT$5clone17h0f34a8bef598482cE', symObjAddr: 0x10DE0, symBinAddr: 0x982A0, symSize: 0x140 }
  - { offsetInCU: 0x4AA14, offset: 0x2F7896, size: 0x8, addend: 0x0, symName: '__ZN67_$LT$alloc..vec..Vec$LT$T$C$A$GT$$u20$as$u20$core..clone..Clone$GT$5clone17h1e9d5b5197ca3b27E', symObjAddr: 0x10F20, symBinAddr: 0x983E0, symSize: 0x140 }
  - { offsetInCU: 0x4AE52, offset: 0x2F7CD4, size: 0x8, addend: 0x0, symName: '__ZN67_$LT$alloc..vec..Vec$LT$T$C$A$GT$$u20$as$u20$core..clone..Clone$GT$5clone17h3324310790ff34b9E', symObjAddr: 0x11060, symBinAddr: 0x98520, symSize: 0x150 }
  - { offsetInCU: 0x4B2EC, offset: 0x2F816E, size: 0x8, addend: 0x0, symName: '__ZN67_$LT$alloc..vec..Vec$LT$T$C$A$GT$$u20$as$u20$core..clone..Clone$GT$5clone17h39a7f38aecdcfd11E', symObjAddr: 0x111B0, symBinAddr: 0x98670, symSize: 0x170 }
  - { offsetInCU: 0x4B784, offset: 0x2F8606, size: 0x8, addend: 0x0, symName: '__ZN67_$LT$alloc..vec..Vec$LT$T$C$A$GT$$u20$as$u20$core..clone..Clone$GT$5clone17h4551f673e813c809E', symObjAddr: 0x11320, symBinAddr: 0x987E0, symSize: 0x140 }
  - { offsetInCU: 0x4BBBF, offset: 0x2F8A41, size: 0x8, addend: 0x0, symName: '__ZN67_$LT$alloc..vec..Vec$LT$T$C$A$GT$$u20$as$u20$core..clone..Clone$GT$5clone17h4b655b5cddcadd6aE', symObjAddr: 0x11460, symBinAddr: 0x98920, symSize: 0x150 }
  - { offsetInCU: 0x4C059, offset: 0x2F8EDB, size: 0x8, addend: 0x0, symName: '__ZN67_$LT$alloc..vec..Vec$LT$T$C$A$GT$$u20$as$u20$core..clone..Clone$GT$5clone17h4b9e2160401b16dbE', symObjAddr: 0x115B0, symBinAddr: 0x98A70, symSize: 0x1F0 }
  - { offsetInCU: 0x4C57D, offset: 0x2F93FF, size: 0x8, addend: 0x0, symName: '__ZN67_$LT$alloc..vec..Vec$LT$T$C$A$GT$$u20$as$u20$core..clone..Clone$GT$5clone17h60e34a1d98492b9fE', symObjAddr: 0x117A0, symBinAddr: 0x98C60, symSize: 0x140 }
  - { offsetInCU: 0x4C9BB, offset: 0x2F983D, size: 0x8, addend: 0x0, symName: '__ZN67_$LT$alloc..vec..Vec$LT$T$C$A$GT$$u20$as$u20$core..clone..Clone$GT$5clone17h636bcaf8346666b7E', symObjAddr: 0x118E0, symBinAddr: 0x98DA0, symSize: 0x150 }
  - { offsetInCU: 0x4CE55, offset: 0x2F9CD7, size: 0x8, addend: 0x0, symName: '__ZN67_$LT$alloc..vec..Vec$LT$T$C$A$GT$$u20$as$u20$core..clone..Clone$GT$5clone17h65a8d92620c35388E', symObjAddr: 0x11A30, symBinAddr: 0x98EF0, symSize: 0x140 }
  - { offsetInCU: 0x4D2E6, offset: 0x2FA168, size: 0x8, addend: 0x0, symName: '__ZN67_$LT$alloc..vec..Vec$LT$T$C$A$GT$$u20$as$u20$core..clone..Clone$GT$5clone17h6fe6598834fbef78E', symObjAddr: 0x11B70, symBinAddr: 0x99030, symSize: 0x260 }
  - { offsetInCU: 0x4D940, offset: 0x2FA7C2, size: 0x8, addend: 0x0, symName: '__ZN67_$LT$alloc..vec..Vec$LT$T$C$A$GT$$u20$as$u20$core..clone..Clone$GT$5clone17h747a3e779494bc62E', symObjAddr: 0x11DD0, symBinAddr: 0x99290, symSize: 0x140 }
  - { offsetInCU: 0x4DD7E, offset: 0x2FAC00, size: 0x8, addend: 0x0, symName: '__ZN67_$LT$alloc..vec..Vec$LT$T$C$A$GT$$u20$as$u20$core..clone..Clone$GT$5clone17h795c7b2b8807866bE', symObjAddr: 0x11F10, symBinAddr: 0x993D0, symSize: 0x140 }
  - { offsetInCU: 0x4E20F, offset: 0x2FB091, size: 0x8, addend: 0x0, symName: '__ZN67_$LT$alloc..vec..Vec$LT$T$C$A$GT$$u20$as$u20$core..clone..Clone$GT$5clone17h81b703d64d075dc5E', symObjAddr: 0x12050, symBinAddr: 0x99510, symSize: 0x140 }
  - { offsetInCU: 0x4E6A0, offset: 0x2FB522, size: 0x8, addend: 0x0, symName: '__ZN67_$LT$alloc..vec..Vec$LT$T$C$A$GT$$u20$as$u20$core..clone..Clone$GT$5clone17h86a578e0279be320E', symObjAddr: 0x12190, symBinAddr: 0x99650, symSize: 0x140 }
  - { offsetInCU: 0x4EB2F, offset: 0x2FB9B1, size: 0x8, addend: 0x0, symName: '__ZN67_$LT$alloc..vec..Vec$LT$T$C$A$GT$$u20$as$u20$core..clone..Clone$GT$5clone17h99b2d10e8bd6b5ceE', symObjAddr: 0x122D0, symBinAddr: 0x99790, symSize: 0x140 }
  - { offsetInCU: 0x4EFC7, offset: 0x2FBE49, size: 0x8, addend: 0x0, symName: '__ZN67_$LT$alloc..vec..Vec$LT$T$C$A$GT$$u20$as$u20$core..clone..Clone$GT$5clone17ha807b77bd68b1261E', symObjAddr: 0x12410, symBinAddr: 0x998D0, symSize: 0x140 }
  - { offsetInCU: 0x4F405, offset: 0x2FC287, size: 0x8, addend: 0x0, symName: '__ZN67_$LT$alloc..vec..Vec$LT$T$C$A$GT$$u20$as$u20$core..clone..Clone$GT$5clone17hb04bb518124eb3baE', symObjAddr: 0x12550, symBinAddr: 0x99A10, symSize: 0x230 }
  - { offsetInCU: 0x4FA83, offset: 0x2FC905, size: 0x8, addend: 0x0, symName: '__ZN67_$LT$alloc..vec..Vec$LT$T$C$A$GT$$u20$as$u20$core..clone..Clone$GT$5clone17hb8d479b5bf54a37fE', symObjAddr: 0x12780, symBinAddr: 0x99C40, symSize: 0x1D0 }
  - { offsetInCU: 0x4FF6D, offset: 0x2FCDEF, size: 0x8, addend: 0x0, symName: '__ZN67_$LT$alloc..vec..Vec$LT$T$C$A$GT$$u20$as$u20$core..clone..Clone$GT$5clone17hbfebd22721a45af6E', symObjAddr: 0x12950, symBinAddr: 0x99E10, symSize: 0x140 }
  - { offsetInCU: 0x503FE, offset: 0x2FD280, size: 0x8, addend: 0x0, symName: '__ZN67_$LT$alloc..vec..Vec$LT$T$C$A$GT$$u20$as$u20$core..clone..Clone$GT$5clone17hc639d5dcb2253337E', symObjAddr: 0x12A90, symBinAddr: 0x99F50, symSize: 0x140 }
  - { offsetInCU: 0x5088F, offset: 0x2FD711, size: 0x8, addend: 0x0, symName: '__ZN67_$LT$alloc..vec..Vec$LT$T$C$A$GT$$u20$as$u20$core..clone..Clone$GT$5clone17hd173e8be3de648d9E', symObjAddr: 0x12D20, symBinAddr: 0x9A090, symSize: 0x180 }
  - { offsetInCU: 0x50D62, offset: 0x2FDBE4, size: 0x8, addend: 0x0, symName: '__ZN67_$LT$alloc..vec..Vec$LT$T$C$A$GT$$u20$as$u20$core..clone..Clone$GT$5clone17hd3cfc84b2b5e9b62E', symObjAddr: 0x12EA0, symBinAddr: 0x9A210, symSize: 0x140 }
  - { offsetInCU: 0x511F1, offset: 0x2FE073, size: 0x8, addend: 0x0, symName: '__ZN67_$LT$alloc..vec..Vec$LT$T$C$A$GT$$u20$as$u20$core..clone..Clone$GT$5clone17hf688e6ba0ffa0a5dE', symObjAddr: 0x12FE0, symBinAddr: 0x9A350, symSize: 0x140 }
  - { offsetInCU: 0x51680, offset: 0x2FE502, size: 0x8, addend: 0x0, symName: '__ZN67_$LT$alloc..vec..Vec$LT$T$C$A$GT$$u20$as$u20$core..clone..Clone$GT$5clone17hfda9ff849246773aE', symObjAddr: 0x13120, symBinAddr: 0x9A490, symSize: 0x140 }
  - { offsetInCU: 0x52013, offset: 0x2FEE95, size: 0x8, addend: 0x0, symName: '__ZN70_$LT$alloc..vec..Vec$LT$T$C$A$GT$$u20$as$u20$core..ops..drop..Drop$GT$4drop17h22c555aa9db299d4E', symObjAddr: 0x13360, symBinAddr: 0x9A5D0, symSize: 0xA0 }
  - { offsetInCU: 0x520C8, offset: 0x2FEF4A, size: 0x8, addend: 0x0, symName: '__ZN70_$LT$alloc..vec..Vec$LT$T$C$A$GT$$u20$as$u20$core..ops..drop..Drop$GT$4drop17h3e7660583633fff8E', symObjAddr: 0x13570, symBinAddr: 0x9A670, symSize: 0xC0 }
  - { offsetInCU: 0x5212A, offset: 0x2FEFAC, size: 0x8, addend: 0x0, symName: '__ZN70_$LT$alloc..vec..Vec$LT$T$C$A$GT$$u20$as$u20$core..ops..drop..Drop$GT$4drop17h3fa7ae0a6bee11e1E', symObjAddr: 0x13630, symBinAddr: 0x9A730, symSize: 0xE0 }
  - { offsetInCU: 0x57BDE, offset: 0x304A60, size: 0x8, addend: 0x0, symName: '__ZN5alloc3vec16Vec$LT$T$C$A$GT$16into_boxed_slice17hc26dbb1317cd1ac6E', symObjAddr: 0x10350, symBinAddr: 0x97E60, symSize: 0x90 }
  - { offsetInCU: 0x1E, offset: 0x31A28B, size: 0x8, addend: 0x0, symName: '__ZN4core3ptr100drop_in_place$LT$core..option..Option$LT$alloc..boxed..Box$LT$syn..generics..LifetimeDef$GT$$GT$$GT$17h75a6086997697dd7E', symObjAddr: 0x0, symBinAddr: 0x9AB40, symSize: 0x150 }
  - { offsetInCU: 0xBF, offset: 0x31A32C, size: 0x8, addend: 0x0, symName: '__ZN58_$LT$alloc..string..String$u20$as$u20$core..fmt..Write$GT$10write_char17h04bc467bd68a934bE', symObjAddr: 0x7450, symBinAddr: 0xA1F90, symSize: 0x140 }
  - { offsetInCU: 0x4C6, offset: 0x31A733, size: 0x8, addend: 0x0, symName: '__ZN58_$LT$alloc..string..String$u20$as$u20$core..fmt..Write$GT$9write_str17h46a93205c3443fbaE', symObjAddr: 0x7590, symBinAddr: 0xA20D0, symSize: 0x60 }
  - { offsetInCU: 0xC37, offset: 0x31AEA4, size: 0x8, addend: 0x0, symName: __ZN5alloc5alloc15exchange_malloc17h9a87608d0224859dE, symObjAddr: 0x75F0, symBinAddr: 0xA2130, symSize: 0x40 }
  - { offsetInCU: 0x1E2D, offset: 0x31C09A, size: 0x8, addend: 0x0, symName: '__ZN4core3ptr100drop_in_place$LT$core..option..Option$LT$alloc..boxed..Box$LT$syn..generics..LifetimeDef$GT$$GT$$GT$17h75a6086997697dd7E', symObjAddr: 0x0, symBinAddr: 0x9AB40, symSize: 0x150 }
  - { offsetInCU: 0x23A9, offset: 0x31C616, size: 0x8, addend: 0x0, symName: '__ZN4core3ptr100drop_in_place$LT$core..option..Option$LT$alloc..boxed..Box$LT$syn..path..GenericArgument$GT$$GT$$GT$17h3d29ec00a8f1918dE', symObjAddr: 0x150, symBinAddr: 0x9AC90, symSize: 0x50 }
  - { offsetInCU: 0x264F, offset: 0x31C8BC, size: 0x8, addend: 0x0, symName: '__ZN4core3ptr103drop_in_place$LT$syn..punctuated..Punctuated$LT$syn..generics..TypeParamBound$C$syn..token..Add$GT$$GT$17he811d520c92af08aE', symObjAddr: 0x1A0, symBinAddr: 0x9ACE0, symSize: 0x1C0 }
  - { offsetInCU: 0x2EB3, offset: 0x31D120, size: 0x8, addend: 0x0, symName: '__ZN4core3ptr108drop_in_place$LT$syn..punctuated..Punctuated$LT$syn..expr..GenericMethodArgument$C$syn..token..Comma$GT$$GT$17h92cbabe4862b2183E', symObjAddr: 0x360, symBinAddr: 0x9AEA0, symSize: 0x150 }
  - { offsetInCU: 0x340C, offset: 0x31D679, size: 0x8, addend: 0x0, symName: '__ZN4core3ptr34drop_in_place$LT$syn..lit..Lit$GT$17hbe1efe749a08dd9aE', symObjAddr: 0x4B0, symBinAddr: 0x9AFF0, symSize: 0x110 }
  - { offsetInCU: 0x387E, offset: 0x31DAEB, size: 0x8, addend: 0x0, symName: '__ZN4core3ptr34drop_in_place$LT$syn..pat..Pat$GT$17h3201f642e43ac2a2E', symObjAddr: 0x5C0, symBinAddr: 0x9B100, symSize: 0x1050 }
  - { offsetInCU: 0x723D, offset: 0x3214AA, size: 0x8, addend: 0x0, symName: '__ZN4core3ptr34drop_in_place$LT$syn..ty..Type$GT$17hfb5d159a08190130E', symObjAddr: 0x1610, symBinAddr: 0x9C150, symSize: 0x620 }
  - { offsetInCU: 0x8DBB, offset: 0x323028, size: 0x8, addend: 0x0, symName: '__ZN4core3ptr36drop_in_place$LT$syn..expr..Expr$GT$17hf1921d1b09462bc3E.llvm.1415980140280537373', symObjAddr: 0x1C30, symBinAddr: 0x9C770, symSize: 0x2EA0 }
  - { offsetInCU: 0x1280F, offset: 0x32CA7C, size: 0x8, addend: 0x0, symName: '__ZN4core3ptr36drop_in_place$LT$syn..mac..Macro$GT$17h205613d7ad575f72E', symObjAddr: 0x4AD0, symBinAddr: 0x9F610, symSize: 0xE0 }
  - { offsetInCU: 0x12C15, offset: 0x32CE82, size: 0x8, addend: 0x0, symName: '__ZN4core3ptr36drop_in_place$LT$syn..path..Path$GT$17he6d0bec66d66b98aE', symObjAddr: 0x4BB0, symBinAddr: 0x9F6F0, symSize: 0x230 }
  - { offsetInCU: 0x135AB, offset: 0x32D818, size: 0x8, addend: 0x0, symName: '__ZN4core3ptr37drop_in_place$LT$syn..stmt..Block$GT$17h3aa429e75a234230E', symObjAddr: 0x4DE0, symBinAddr: 0x9F920, symSize: 0xD0 }
  - { offsetInCU: 0x13882, offset: 0x32DAEF, size: 0x8, addend: 0x0, symName: '__ZN4core3ptr38drop_in_place$LT$syn..expr..Member$GT$17ha113d37a67d27aafE', symObjAddr: 0x4EB0, symBinAddr: 0x9F9F0, symSize: 0x30 }
  - { offsetInCU: 0x13A19, offset: 0x32DC86, size: 0x8, addend: 0x0, symName: '__ZN4core3ptr38drop_in_place$LT$syn..group..Group$GT$17h0fddc99b7dc4ab91E', symObjAddr: 0x4EE0, symBinAddr: 0x9FA20, symSize: 0x70 }
  - { offsetInCU: 0x13D11, offset: 0x32DF7E, size: 0x8, addend: 0x0, symName: '__ZN4core3ptr39drop_in_place$LT$proc_macro2..Ident$GT$17hdeec010483268a0dE', symObjAddr: 0x4F50, symBinAddr: 0x9FA90, symSize: 0x30 }
  - { offsetInCU: 0x13E2C, offset: 0x32E099, size: 0x8, addend: 0x0, symName: '__ZN4core3ptr39drop_in_place$LT$syn..lit..LitFloat$GT$17h89b7791cfce3cb6aE', symObjAddr: 0x4F80, symBinAddr: 0x9FAC0, symSize: 0x70 }
  - { offsetInCU: 0x1419E, offset: 0x32E40B, size: 0x8, addend: 0x0, symName: '__ZN4core3ptr39drop_in_place$LT$syn..pat..PatTuple$GT$17h96faeea9832d4c4bE', symObjAddr: 0x4FF0, symBinAddr: 0x9FB30, symSize: 0x100 }
  - { offsetInCU: 0x144A7, offset: 0x32E714, size: 0x8, addend: 0x0, symName: '__ZN4core3ptr40drop_in_place$LT$syn..ty..ReturnType$GT$17h6f97c9fdb958983eE', symObjAddr: 0x50F0, symBinAddr: 0x9FC30, symSize: 0x50 }
  - { offsetInCU: 0x14617, offset: 0x32E884, size: 0x8, addend: 0x0, symName: '__ZN4core3ptr41drop_in_place$LT$syn..attr..Attribute$GT$17h01ed88f7d2878bfcE', symObjAddr: 0x5140, symBinAddr: 0x9FC80, symSize: 0x40 }
  - { offsetInCU: 0x14634, offset: 0x32E8A1, size: 0x8, addend: 0x0, symName: '__ZN4core3ptr42drop_in_place$LT$alloc..string..String$GT$17hef974c60cd9900dbE', symObjAddr: 0x5180, symBinAddr: 0x9FCC0, symSize: 0x20 }
  - { offsetInCU: 0x147D7, offset: 0x32EA44, size: 0x8, addend: 0x0, symName: '__ZN4core3ptr42drop_in_place$LT$syn..expr..ExprStruct$GT$17hcd4a233ae9f7b2e4E', symObjAddr: 0x51A0, symBinAddr: 0x9FCE0, symSize: 0x300 }
  - { offsetInCU: 0x153B2, offset: 0x32F61F, size: 0x8, addend: 0x0, symName: '__ZN4core3ptr42drop_in_place$LT$syn..expr..FieldValue$GT$17h42a16bcbdc918058E', symObjAddr: 0x54A0, symBinAddr: 0x9FFE0, symSize: 0x140 }
  - { offsetInCU: 0x1583E, offset: 0x32FAAB, size: 0x8, addend: 0x0, symName: '__ZN4core3ptr43drop_in_place$LT$syn..expr..ExprClosure$GT$17h33394450256957a8E', symObjAddr: 0x55E0, symBinAddr: 0xA0120, symSize: 0x270 }
  - { offsetInCU: 0x16297, offset: 0x330504, size: 0x8, addend: 0x0, symName: '__ZN4core3ptr44drop_in_place$LT$syn..lifetime..Lifetime$GT$17h3858225df033648aE', symObjAddr: 0x5850, symBinAddr: 0xA0390, symSize: 0x30 }
  - { offsetInCU: 0x16393, offset: 0x330600, size: 0x8, addend: 0x0, symName: '__ZN4core3ptr44drop_in_place$LT$syn..parse..ParseBuffer$GT$17h19c266fcccc430cbE', symObjAddr: 0x5880, symBinAddr: 0xA03C0, symSize: 0x70 }
  - { offsetInCU: 0x167AA, offset: 0x330A17, size: 0x8, addend: 0x0, symName: '__ZN4core3ptr45drop_in_place$LT$proc_macro2..TokenStream$GT$17h2507cb30e765dc85E', symObjAddr: 0x58F0, symBinAddr: 0xA0430, symSize: 0x140 }
  - { offsetInCU: 0x16C44, offset: 0x330EB1, size: 0x8, addend: 0x0, symName: '__ZN4core3ptr47drop_in_place$LT$syn..path..GenericArgument$GT$17h8c0a0d8c6deaefb4E', symObjAddr: 0x5A30, symBinAddr: 0xA0570, symSize: 0x110 }
  - { offsetInCU: 0x16FCF, offset: 0x33123C, size: 0x8, addend: 0x0, symName: '__ZN4core3ptr50drop_in_place$LT$syn..generics..BoundLifetimes$GT$17hff8599a8d1e3c70cE', symObjAddr: 0x5B40, symBinAddr: 0xA0680, symSize: 0xC0 }
  - { offsetInCU: 0x172BB, offset: 0x331528, size: 0x8, addend: 0x0, symName: '__ZN4core3ptr58drop_in_place$LT$alloc..vec..Vec$LT$syn..expr..Arm$GT$$GT$17hf3db0825f3d9c861E', symObjAddr: 0x5C00, symBinAddr: 0xA0740, symSize: 0xD0 }
  - { offsetInCU: 0x1757B, offset: 0x3317E8, size: 0x8, addend: 0x0, symName: '__ZN4core3ptr59drop_in_place$LT$alloc..boxed..Box$LT$syn..pat..Pat$GT$$GT$17h7037ce9bbd3729c6E', symObjAddr: 0x5CD0, symBinAddr: 0xA0810, symSize: 0x50 }
  - { offsetInCU: 0x176D4, offset: 0x331941, size: 0x8, addend: 0x0, symName: '__ZN4core3ptr59drop_in_place$LT$alloc..boxed..Box$LT$syn..ty..Type$GT$$GT$17h2eccd13329dbe4faE', symObjAddr: 0x5D20, symBinAddr: 0xA0860, symSize: 0x50 }
  - { offsetInCU: 0x1782D, offset: 0x331A9A, size: 0x8, addend: 0x0, symName: '__ZN4core3ptr61drop_in_place$LT$alloc..boxed..Box$LT$syn..expr..Expr$GT$$GT$17h66094ddc89015516E', symObjAddr: 0x5D70, symBinAddr: 0xA08B0, symSize: 0x50 }
  - { offsetInCU: 0x17986, offset: 0x331BF3, size: 0x8, addend: 0x0, symName: '__ZN4core3ptr61drop_in_place$LT$syn..path..ParenthesizedGenericArguments$GT$17h21be9b1d7a6fab55E', symObjAddr: 0x5DC0, symBinAddr: 0xA0900, symSize: 0x170 }
  - { offsetInCU: 0x17F8F, offset: 0x3321FC, size: 0x8, addend: 0x0, symName: '__ZN4core3ptr63drop_in_place$LT$alloc..boxed..Box$LT$syn..lit..LitRepr$GT$$GT$17h9c509b794406150eE', symObjAddr: 0x5F30, symBinAddr: 0xA0A70, symSize: 0x60 }
  - { offsetInCU: 0x18277, offset: 0x3324E4, size: 0x8, addend: 0x0, symName: '__ZN4core3ptr64drop_in_place$LT$alloc..boxed..Box$LT$syn..pat..FieldPat$GT$$GT$17hb167b355d0d4733fE', symObjAddr: 0x5F90, symBinAddr: 0xA0AD0, symSize: 0x180 }
  - { offsetInCU: 0x18994, offset: 0x332C01, size: 0x8, addend: 0x0, symName: '__ZN4core3ptr64drop_in_place$LT$alloc..boxed..Box$LT$syn..ty..BareFnArg$GT$$GT$17h6488be9448346678E', symObjAddr: 0x6110, symBinAddr: 0xA0C50, symSize: 0x160 }
  - { offsetInCU: 0x18F2A, offset: 0x333197, size: 0x8, addend: 0x0, symName: '__ZN4core3ptr64drop_in_place$LT$alloc..vec..Vec$LT$syn..attr..Attribute$GT$$GT$17h386324d8ea9bc309E.llvm.1415980140280537373', symObjAddr: 0x6270, symBinAddr: 0xA0DB0, symSize: 0xF0 }
  - { offsetInCU: 0x19220, offset: 0x33348D, size: 0x8, addend: 0x0, symName: '__ZN4core3ptr65drop_in_place$LT$alloc..vec..Vec$LT$proc_macro..TokenTree$GT$$GT$17hc3670dd5608d5259E', symObjAddr: 0x6360, symBinAddr: 0xA0EA0, symSize: 0x110 }
  - { offsetInCU: 0x19618, offset: 0x333885, size: 0x8, addend: 0x0, symName: '__ZN4core3ptr65drop_in_place$LT$core..option..Option$LT$syn..expr..Label$GT$$GT$17ha723640fd01bec5dE', symObjAddr: 0x6470, symBinAddr: 0xA0FB0, symSize: 0x30 }
  - { offsetInCU: 0x19752, offset: 0x3339BF, size: 0x8, addend: 0x0, symName: '__ZN4core3ptr65drop_in_place$LT$core..option..Option$LT$syn..path..QSelf$GT$$GT$17h213ca1c3399df9f2E', symObjAddr: 0x64A0, symBinAddr: 0xA0FE0, symSize: 0x50 }
  - { offsetInCU: 0x198D3, offset: 0x333B40, size: 0x8, addend: 0x0, symName: '__ZN4core3ptr66drop_in_place$LT$core..option..Option$LT$syn..ty..Variadic$GT$$GT$17hc32134bb3933b0dfE', symObjAddr: 0x64F0, symBinAddr: 0xA1030, symSize: 0xF0 }
  - { offsetInCU: 0x19BFD, offset: 0x333E6A, size: 0x8, addend: 0x0, symName: '__ZN4core3ptr67drop_in_place$LT$alloc..boxed..Box$LT$syn..expr..FieldValue$GT$$GT$17h8df780aa600ea8c2E', symObjAddr: 0x65E0, symBinAddr: 0xA1120, symSize: 0x160 }
  - { offsetInCU: 0x1A160, offset: 0x3343CD, size: 0x8, addend: 0x0, symName: '__ZN4core3ptr72drop_in_place$LT$core..option..Option$LT$syn..lifetime..Lifetime$GT$$GT$17h31b55b93749c174dE', symObjAddr: 0x6740, symBinAddr: 0xA1280, symSize: 0x30 }
  - { offsetInCU: 0x1A27B, offset: 0x3344E8, size: 0x8, addend: 0x0, symName: '__ZN4core3ptr75drop_in_place$LT$alloc..boxed..Box$LT$syn..generics..TypeParamBound$GT$$GT$17h8f156ce07ea0b8b2E', symObjAddr: 0x6770, symBinAddr: 0xA12B0, symSize: 0x140 }
  - { offsetInCU: 0x1A7D6, offset: 0x334A43, size: 0x8, addend: 0x0, symName: '__ZN4core3ptr78drop_in_place$LT$alloc..boxed..Box$LT$syn..expr..GenericMethodArgument$GT$$GT$17h3384c00b5bd54c2aE', symObjAddr: 0x68B0, symBinAddr: 0xA13F0, symSize: 0x60 }
  - { offsetInCU: 0x1A96B, offset: 0x334BD8, size: 0x8, addend: 0x0, symName: '__ZN4core3ptr78drop_in_place$LT$core..option..Option$LT$syn..generics..BoundLifetimes$GT$$GT$17h8175e66ad0c4a156E', symObjAddr: 0x6910, symBinAddr: 0xA1450, symSize: 0xE0 }
  - { offsetInCU: 0x1ACE8, offset: 0x334F55, size: 0x8, addend: 0x0, symName: '__ZN4core3ptr83drop_in_place$LT$core..result..Result$LT$syn..op..BinOp$C$syn..error..Error$GT$$GT$17hf42bffcbc93954faE', symObjAddr: 0x69F0, symBinAddr: 0xA1530, symSize: 0x80 }
  - { offsetInCU: 0x1AFE1, offset: 0x33524E, size: 0x8, addend: 0x0, symName: '__ZN4core3ptr86drop_in_place$LT$syn..punctuated..Punctuated$LT$syn..pat..Pat$C$syn..token..Or$GT$$GT$17h1078c5d178d382b7E', symObjAddr: 0x6A70, symBinAddr: 0xA15B0, symSize: 0x120 }
  - { offsetInCU: 0x1B45C, offset: 0x3356C9, size: 0x8, addend: 0x0, symName: '__ZN4core3ptr87drop_in_place$LT$core..option..Option$LT$alloc..boxed..Box$LT$syn..pat..Pat$GT$$GT$$GT$17ha7f5fe0e6f73e820E', symObjAddr: 0x6B90, symBinAddr: 0xA16D0, symSize: 0x50 }
  - { offsetInCU: 0x1B5CC, offset: 0x335839, size: 0x8, addend: 0x0, symName: '__ZN4core3ptr87drop_in_place$LT$core..option..Option$LT$alloc..boxed..Box$LT$syn..ty..Type$GT$$GT$$GT$17hc8292da82d129de3E', symObjAddr: 0x6BE0, symBinAddr: 0xA1720, symSize: 0x50 }
  - { offsetInCU: 0x1B73C, offset: 0x3359A9, size: 0x8, addend: 0x0, symName: '__ZN4core3ptr89drop_in_place$LT$core..option..Option$LT$alloc..boxed..Box$LT$syn..expr..Expr$GT$$GT$$GT$17hdc211ccd33f196f2E', symObjAddr: 0x6C30, symBinAddr: 0xA1770, symSize: 0x50 }
  - { offsetInCU: 0x1B8AC, offset: 0x335B19, size: 0x8, addend: 0x0, symName: '__ZN4core3ptr89drop_in_place$LT$syn..punctuated..Punctuated$LT$syn..pat..Pat$C$syn..token..Comma$GT$$GT$17hf8371102b0500adcE', symObjAddr: 0x6C80, symBinAddr: 0xA17C0, symSize: 0x120 }
  - { offsetInCU: 0x1BD69, offset: 0x335FD6, size: 0x8, addend: 0x0, symName: '__ZN4core3ptr91drop_in_place$LT$syn..punctuated..Punctuated$LT$syn..expr..Expr$C$syn..token..Comma$GT$$GT$17hd2dfeb0c522d9a18E', symObjAddr: 0x6DA0, symBinAddr: 0xA18E0, symSize: 0x120 }
  - { offsetInCU: 0x1C1F7, offset: 0x336464, size: 0x8, addend: 0x0, symName: '__ZN4core3ptr94drop_in_place$LT$syn..punctuated..Punctuated$LT$syn..pat..FieldPat$C$syn..token..Comma$GT$$GT$17h612cbc9066d5afb1E', symObjAddr: 0x6EC0, symBinAddr: 0xA1A00, symSize: 0xF0 }
  - { offsetInCU: 0x1C4F6, offset: 0x336763, size: 0x8, addend: 0x0, symName: '__ZN4core3ptr94drop_in_place$LT$syn..punctuated..Punctuated$LT$syn..ty..BareFnArg$C$syn..token..Comma$GT$$GT$17ha9a668ce9972795bE', symObjAddr: 0x6FB0, symBinAddr: 0xA1AF0, symSize: 0xF0 }
  - { offsetInCU: 0x1C7F3, offset: 0x336A60, size: 0x8, addend: 0x0, symName: '__ZN4core3ptr95drop_in_place$LT$core..option..Option$LT$alloc..boxed..Box$LT$syn..expr..FieldValue$GT$$GT$$GT$17hd0d57ae8c6b091c1E', symObjAddr: 0x70A0, symBinAddr: 0xA1BE0, symSize: 0x50 }
  - { offsetInCU: 0x1C963, offset: 0x336BD0, size: 0x8, addend: 0x0, symName: '__ZN4core3ptr96drop_in_place$LT$core..option..Option$LT$alloc..boxed..Box$LT$syn..path..PathSegment$GT$$GT$$GT$17h2e81cbe3c70bb71cE', symObjAddr: 0x70F0, symBinAddr: 0xA1C30, symSize: 0x180 }
  - { offsetInCU: 0x1D020, offset: 0x33728D, size: 0x8, addend: 0x0, symName: '__ZN4core3ptr97drop_in_place$LT$syn..punctuated..Punctuated$LT$syn..expr..FieldValue$C$syn..token..Comma$GT$$GT$17h11a5fffb46adfb11E', symObjAddr: 0x7270, symBinAddr: 0xA1DB0, symSize: 0xF0 }
  - { offsetInCU: 0x1D399, offset: 0x337606, size: 0x8, addend: 0x0, symName: '__ZN4core3ptr97drop_in_place$LT$syn..punctuated..Punctuated$LT$syn..lifetime..Lifetime$C$syn..token..Add$GT$$GT$17h5c54dea2c838d109E', symObjAddr: 0x7360, symBinAddr: 0xA1EA0, symSize: 0xD0 }
  - { offsetInCU: 0x1DE22, offset: 0x33808F, size: 0x8, addend: 0x0, symName: '__ZN53_$LT$core..fmt..Error$u20$as$u20$core..fmt..Debug$GT$3fmt17h03dc662ab152f3aeE', symObjAddr: 0x7430, symBinAddr: 0xA1F70, symSize: 0x20 }
  - { offsetInCU: 0x25AF9, offset: 0x33FD66, size: 0x8, addend: 0x0, symName: __ZN3syn4expr7parsing10parse_expr17h684b3b78faf213b4E, symObjAddr: 0x7630, symBinAddr: 0xA2170, symSize: 0x19D0 }
  - { offsetInCU: 0x2827D, offset: 0x3424EA, size: 0x8, addend: 0x0, symName: __ZN3syn4expr7parsing15peek_precedence17h786832174e665121E, symObjAddr: 0x9000, symBinAddr: 0xA3B40, symSize: 0x240 }
  - { offsetInCU: 0x28E31, offset: 0x34309E, size: 0x8, addend: 0x0, symName: __ZN3syn4expr7parsing14ambiguous_expr17h7c73b0ab5ad50f5aE, symObjAddr: 0x9240, symBinAddr: 0xA3D80, symSize: 0xF0 }
  - { offsetInCU: 0x28EB4, offset: 0x343121, size: 0x8, addend: 0x0, symName: __ZN3syn4expr7parsing10expr_attrs17h66bc2999eaa82c1dE, symObjAddr: 0x9330, symBinAddr: 0xA3E70, symSize: 0x940 }
  - { offsetInCU: 0x2AE84, offset: 0x3450F1, size: 0x8, addend: 0x0, symName: __ZN3syn4expr7parsing10unary_expr17hdaadc2ad74ecc4a2E, symObjAddr: 0x9C70, symBinAddr: 0xA47B0, symSize: 0xB80 }
  - { offsetInCU: 0x2CBE7, offset: 0x346E54, size: 0x8, addend: 0x0, symName: __ZN3syn4expr7parsing12trailer_expr17hd9e88d5ec011f83cE, symObjAddr: 0xA7F0, symBinAddr: 0xA5330, symSize: 0x2990 }
  - { offsetInCU: 0x31C13, offset: 0x34BE80, size: 0x8, addend: 0x0, symName: __ZN3syn4expr7parsing14trailer_helper17hd9c2c92d36c55114E, symObjAddr: 0xD180, symBinAddr: 0xA7CC0, symSize: 0x24F0 }
  - { offsetInCU: 0x3617F, offset: 0x3503EC, size: 0x8, addend: 0x0, symName: __ZN3syn4expr7parsing23path_or_macro_or_struct17had39e9f11aec7b68E, symObjAddr: 0xF670, symBinAddr: 0xAA1B0, symSize: 0x970 }
  - { offsetInCU: 0x376F7, offset: 0x351964, size: 0x8, addend: 0x0, symName: __ZN3syn4expr7parsing14paren_or_tuple17h1b66161ba42304d6E, symObjAddr: 0xFFE0, symBinAddr: 0xAAB20, symSize: 0x720 }
  - { offsetInCU: 0x37FF3, offset: 0x352260, size: 0x8, addend: 0x0, symName: __ZN3syn4expr7parsing15array_or_repeat17h2d084d601409b71aE, symObjAddr: 0x10700, symBinAddr: 0xAB240, symSize: 0x8C0 }
  - { offsetInCU: 0x38B5C, offset: 0x352DC9, size: 0x8, addend: 0x0, symName: __ZN3syn4expr7parsing10expr_early17h31e19cd3df74af45E, symObjAddr: 0x10FC0, symBinAddr: 0xABB00, symSize: 0x1200 }
  - { offsetInCU: 0x3AD8B, offset: 0x354FF8, size: 0x8, addend: 0x0, symName: __ZN3syn4expr7parsing10else_block17h85af2da261a7a0efE, symObjAddr: 0x12390, symBinAddr: 0xACD00, symSize: 0x460 }
  - { offsetInCU: 0x3B362, offset: 0x3555CF, size: 0x8, addend: 0x0, symName: __ZN3syn4expr7parsing8expr_box17h788652fdd35874adE, symObjAddr: 0x127F0, symBinAddr: 0xAD160, symSize: 0x350 }
  - { offsetInCU: 0x3B84C, offset: 0x355AB9, size: 0x8, addend: 0x0, symName: __ZN3syn4expr7parsing10expr_unary17h8078eda13c99e202E, symObjAddr: 0x12B40, symBinAddr: 0xAD4B0, symSize: 0x330 }
  - { offsetInCU: 0x3BE19, offset: 0x356086, size: 0x8, addend: 0x0, symName: __ZN3syn4expr7parsing12expr_closure17h5b6e444b2a8149e2E, symObjAddr: 0x12E70, symBinAddr: 0xAD7E0, symSize: 0x12B0 }
  - { offsetInCU: 0x3D76C, offset: 0x3579D9, size: 0x8, addend: 0x0, symName: __ZN3syn4expr7parsing10expr_break17h7b566e31f8d9a5f2E, symObjAddr: 0x14120, symBinAddr: 0xAEA90, symSize: 0x530 }
  - { offsetInCU: 0x3E0F4, offset: 0x358361, size: 0x8, addend: 0x0, symName: __ZN3syn4expr7parsing8expr_ret17h5b82e5b7191096ffE, symObjAddr: 0x14650, symBinAddr: 0xAEFC0, symSize: 0x310 }
  - { offsetInCU: 0x3E59A, offset: 0x358807, size: 0x8, addend: 0x0, symName: __ZN3syn4expr7parsing18expr_struct_helper17h9236744648974cbcE, symObjAddr: 0x14960, symBinAddr: 0xAF2D0, symSize: 0x7C0 }
  - { offsetInCU: 0x3F231, offset: 0x35949E, size: 0x8, addend: 0x0, symName: __ZN3syn4expr7parsing10expr_const17hb9a9a735044bf46dE, symObjAddr: 0x15120, symBinAddr: 0xAFA90, symSize: 0x510 }
  - { offsetInCU: 0x40091, offset: 0x35A2FE, size: 0x8, addend: 0x0, symName: __ZN3syn4expr7parsing10expr_range17h02863b30abf98d84E, symObjAddr: 0x15630, symBinAddr: 0xAFFA0, symSize: 0x410 }
  - { offsetInCU: 0x40864, offset: 0x35AAD1, size: 0x8, addend: 0x0, symName: __ZN3syn4expr7parsing10check_cast17h642668a83e43dc17E, symObjAddr: 0x15A40, symBinAddr: 0xB03B0, symSize: 0x440 }
  - { offsetInCU: 0x4142D, offset: 0x35B69A, size: 0x8, addend: 0x0, symName: '__ZN67_$LT$syn..expr..parsing..raw$u20$as$u20$syn..token..CustomToken$GT$4peek17h916728f6ab7642fdE', symObjAddr: 0x15E90, symBinAddr: 0xB07F0, symSize: 0x180 }
  - { offsetInCU: 0x1E, offset: 0x373474, size: 0x8, addend: 0x0, symName: __ZN5alloc7raw_vec11finish_grow17h0495c2f2131df753E.llvm.7436538866384912358, symObjAddr: 0x0, symBinAddr: 0xB0970, symSize: 0xA0 }
  - { offsetInCU: 0x6CB7, offset: 0x37A10D, size: 0x8, addend: 0x0, symName: __ZN5alloc7raw_vec11finish_grow17h0495c2f2131df753E.llvm.7436538866384912358, symObjAddr: 0x0, symBinAddr: 0xB0970, symSize: 0xA0 }
  - { offsetInCU: 0x8C0F, offset: 0x37C065, size: 0x8, addend: 0x0, symName: '__ZN5alloc7raw_vec19RawVec$LT$T$C$A$GT$7reserve21do_reserve_and_handle17ha205d1e810429fe7E', symObjAddr: 0x1540, symBinAddr: 0x1D5640, symSize: 0xA0 }
  - { offsetInCU: 0x8F0A, offset: 0x37C360, size: 0x8, addend: 0x0, symName: '__ZN5alloc7raw_vec19RawVec$LT$T$C$A$GT$7reserve21do_reserve_and_handle17hc00d12dcef9591d0E', symObjAddr: 0x16A0, symBinAddr: 0x1D56E0, symSize: 0xB0 }
  - { offsetInCU: 0x9239, offset: 0x37C68F, size: 0x8, addend: 0x0, symName: '__ZN5alloc7raw_vec19RawVec$LT$T$C$A$GT$7reserve21do_reserve_and_handle17hdc9e8bbb6589329bE', symObjAddr: 0x1750, symBinAddr: 0x1D5790, symSize: 0xB0 }
  - { offsetInCU: 0x9568, offset: 0x37C9BE, size: 0x8, addend: 0x0, symName: '__ZN5alloc7raw_vec19RawVec$LT$T$C$A$GT$7reserve21do_reserve_and_handle17he214000fe5ef06eeE', symObjAddr: 0x1800, symBinAddr: 0x1D5840, symSize: 0xC0 }
  - { offsetInCU: 0x10324, offset: 0x38377A, size: 0x8, addend: 0x0, symName: '__ZN5alloc7raw_vec19RawVec$LT$T$C$A$GT$8grow_one17h08605552f4f70285E', symObjAddr: 0x18C0, symBinAddr: 0xB0A10, symSize: 0xC0 }
  - { offsetInCU: 0x107F8, offset: 0x383C4E, size: 0x8, addend: 0x0, symName: '__ZN5alloc7raw_vec19RawVec$LT$T$C$A$GT$8grow_one17h0d1d7d47ecb5d181E', symObjAddr: 0x1980, symBinAddr: 0xB0AD0, symSize: 0x0 }
  - { offsetInCU: 0x10CCC, offset: 0x384122, size: 0x8, addend: 0x0, symName: '__ZN5alloc7raw_vec19RawVec$LT$T$C$A$GT$8grow_one17h1630aee03a584a55E', symObjAddr: 0x1A40, symBinAddr: 0xB0B90, symSize: 0x0 }
  - { offsetInCU: 0x111A0, offset: 0x3845F6, size: 0x8, addend: 0x0, symName: '__ZN5alloc7raw_vec19RawVec$LT$T$C$A$GT$8grow_one17h1e9702a0556e0dd1E', symObjAddr: 0x1B00, symBinAddr: 0xB0C50, symSize: 0xC0 }
  - { offsetInCU: 0x11674, offset: 0x384ACA, size: 0x8, addend: 0x0, symName: '__ZN5alloc7raw_vec19RawVec$LT$T$C$A$GT$8grow_one17h3330ea55ea3e3f66E', symObjAddr: 0x1BC0, symBinAddr: 0xB0D10, symSize: 0x0 }
  - { offsetInCU: 0x11B50, offset: 0x384FA6, size: 0x8, addend: 0x0, symName: '__ZN5alloc7raw_vec19RawVec$LT$T$C$A$GT$8grow_one17h3ccc35cc0e1c9bbaE', symObjAddr: 0x1C80, symBinAddr: 0xB0DD0, symSize: 0xC0 }
  - { offsetInCU: 0x12028, offset: 0x38547E, size: 0x8, addend: 0x0, symName: '__ZN5alloc7raw_vec19RawVec$LT$T$C$A$GT$8grow_one17h3ecbe6fe516c3f85E', symObjAddr: 0x1D40, symBinAddr: 0xB0E90, symSize: 0x0 }
  - { offsetInCU: 0x1250F, offset: 0x385965, size: 0x8, addend: 0x0, symName: '__ZN5alloc7raw_vec19RawVec$LT$T$C$A$GT$8grow_one17h4bde22c6c3628c35E', symObjAddr: 0x1E00, symBinAddr: 0xB0F50, symSize: 0x0 }
  - { offsetInCU: 0x12975, offset: 0x385DCB, size: 0x8, addend: 0x0, symName: '__ZN5alloc7raw_vec19RawVec$LT$T$C$A$GT$8grow_one17h5489e10a8b77bab8E', symObjAddr: 0x1EB0, symBinAddr: 0xB1000, symSize: 0x0 }
  - { offsetInCU: 0x12E47, offset: 0x38629D, size: 0x8, addend: 0x0, symName: '__ZN5alloc7raw_vec19RawVec$LT$T$C$A$GT$8grow_one17h59ec294e1c1da808E', symObjAddr: 0x1F60, symBinAddr: 0xB10B0, symSize: 0xB0 }
  - { offsetInCU: 0x1331B, offset: 0x386771, size: 0x8, addend: 0x0, symName: '__ZN5alloc7raw_vec19RawVec$LT$T$C$A$GT$8grow_one17h5aa64db5fa0642f7E', symObjAddr: 0x2010, symBinAddr: 0xB1160, symSize: 0xC0 }
  - { offsetInCU: 0x13662, offset: 0x386AB8, size: 0x8, addend: 0x0, symName: '__ZN5alloc7raw_vec19RawVec$LT$T$C$A$GT$8grow_one17h68de9c252237170dE', symObjAddr: 0x20D0, symBinAddr: 0xB1220, symSize: 0xA0 }
  - { offsetInCU: 0x13AF6, offset: 0x386F4C, size: 0x8, addend: 0x0, symName: '__ZN5alloc7raw_vec19RawVec$LT$T$C$A$GT$8grow_one17h6fd080ba3921d078E', symObjAddr: 0x2170, symBinAddr: 0xB12C0, symSize: 0x0 }
  - { offsetInCU: 0x13FCA, offset: 0x387420, size: 0x8, addend: 0x0, symName: '__ZN5alloc7raw_vec19RawVec$LT$T$C$A$GT$8grow_one17h7488afcced04fb61E', symObjAddr: 0x2230, symBinAddr: 0xB1380, symSize: 0xC0 }
  - { offsetInCU: 0x1449E, offset: 0x3878F4, size: 0x8, addend: 0x0, symName: '__ZN5alloc7raw_vec19RawVec$LT$T$C$A$GT$8grow_one17h7b67068b95f3a015E', symObjAddr: 0x22F0, symBinAddr: 0xB1440, symSize: 0xC0 }
  - { offsetInCU: 0x1499D, offset: 0x387DF3, size: 0x8, addend: 0x0, symName: '__ZN5alloc7raw_vec19RawVec$LT$T$C$A$GT$8grow_one17h7f8f3ce9755569dfE', symObjAddr: 0x23B0, symBinAddr: 0xB1500, symSize: 0xB0 }
  - { offsetInCU: 0x14E6F, offset: 0x3882C5, size: 0x8, addend: 0x0, symName: '__ZN5alloc7raw_vec19RawVec$LT$T$C$A$GT$8grow_one17h8a66c2aa27418570E', symObjAddr: 0x2460, symBinAddr: 0xB15B0, symSize: 0xB0 }
  - { offsetInCU: 0x15341, offset: 0x388797, size: 0x8, addend: 0x0, symName: '__ZN5alloc7raw_vec19RawVec$LT$T$C$A$GT$8grow_one17h936b8e68541504a4E', symObjAddr: 0x2510, symBinAddr: 0xB1660, symSize: 0xC0 }
  - { offsetInCU: 0x15815, offset: 0x388C6B, size: 0x8, addend: 0x0, symName: '__ZN5alloc7raw_vec19RawVec$LT$T$C$A$GT$8grow_one17hbcead0d4d18ace99E', symObjAddr: 0x25D0, symBinAddr: 0xB1720, symSize: 0xC0 }
  - { offsetInCU: 0x15CEF, offset: 0x389145, size: 0x8, addend: 0x0, symName: '__ZN5alloc7raw_vec19RawVec$LT$T$C$A$GT$8grow_one17hc527c0f89616509aE', symObjAddr: 0x2690, symBinAddr: 0xB17E0, symSize: 0xB0 }
  - { offsetInCU: 0x161C1, offset: 0x389617, size: 0x8, addend: 0x0, symName: '__ZN5alloc7raw_vec19RawVec$LT$T$C$A$GT$8grow_one17hcdcf6148bc2fe027E', symObjAddr: 0x2740, symBinAddr: 0xB1890, symSize: 0xC0 }
  - { offsetInCU: 0x16695, offset: 0x389AEB, size: 0x8, addend: 0x0, symName: '__ZN5alloc7raw_vec19RawVec$LT$T$C$A$GT$8grow_one17hd0099d1a8d5d37ccE', symObjAddr: 0x2800, symBinAddr: 0xB1950, symSize: 0xB0 }
  - { offsetInCU: 0x16B67, offset: 0x389FBD, size: 0x8, addend: 0x0, symName: '__ZN5alloc7raw_vec19RawVec$LT$T$C$A$GT$8grow_one17he6f91a044893fcdcE', symObjAddr: 0x28B0, symBinAddr: 0xB1A00, symSize: 0xC0 }
  - { offsetInCU: 0x50A, offset: 0x38A862, size: 0x8, addend: 0x0, symName: '__ZN3syn8generics8printing80_$LT$impl$u20$quote..to_tokens..ToTokens$u20$for$u20$syn..generics..Generics$GT$9to_tokens17hc516f0ca57e61ab8E', symObjAddr: 0xF0D0, symBinAddr: 0xBF010, symSize: 0x240 }
  - { offsetInCU: 0xD19, offset: 0x38B071, size: 0x8, addend: 0x0, symName: '__ZN3syn8generics8printing86_$LT$impl$u20$quote..to_tokens..ToTokens$u20$for$u20$syn..generics..BoundLifetimes$GT$9to_tokens17he45909f9777a2097E', symObjAddr: 0xFC50, symBinAddr: 0xBF250, symSize: 0x160 }
  - { offsetInCU: 0x12D4, offset: 0x38B62C, size: 0x8, addend: 0x0, symName: '__ZN3syn8generics8printing81_$LT$impl$u20$quote..to_tokens..ToTokens$u20$for$u20$syn..generics..TypeParam$GT$9to_tokens17hcaef93599cfca25cE', symObjAddr: 0xFFD0, symBinAddr: 0xBF3B0, symSize: 0x620 }
  - { offsetInCU: 0x25D3, offset: 0x38C92B, size: 0x8, addend: 0x0, symName: '__ZN3syn8generics8printing82_$LT$impl$u20$quote..to_tokens..ToTokens$u20$for$u20$syn..generics..TraitBound$GT$9to_tokens17he474479258d3148eE', symObjAddr: 0x105F0, symBinAddr: 0xBF9D0, symSize: 0x470 }
  - { offsetInCU: 0x364C, offset: 0x38D9A4, size: 0x8, addend: 0x0, symName: '__ZN3syn8generics8printing82_$LT$impl$u20$quote..to_tokens..ToTokens$u20$for$u20$syn..generics..ConstParam$GT$9to_tokens17h36d48730b501dc3bE', symObjAddr: 0x10A90, symBinAddr: 0xBFE40, symSize: 0x1E0 }
  - { offsetInCU: 0x3A92, offset: 0x38DDEA, size: 0x8, addend: 0x0, symName: '__ZN3syn8generics8printing83_$LT$impl$u20$quote..to_tokens..ToTokens$u20$for$u20$syn..generics..WhereClause$GT$9to_tokens17hef22306b14050697E', symObjAddr: 0x10C70, symBinAddr: 0xC0020, symSize: 0x130 }
  - { offsetInCU: 0x3F57, offset: 0x38E2AF, size: 0x8, addend: 0x0, symName: '__ZN3syn8generics8printing85_$LT$impl$u20$quote..to_tokens..ToTokens$u20$for$u20$syn..generics..PredicateType$GT$9to_tokens17hef8e2cddb761bcdcE', symObjAddr: 0x10DA0, symBinAddr: 0xC0150, symSize: 0x1C0 }
  - { offsetInCU: 0x47B5, offset: 0x38EB0D, size: 0x8, addend: 0x0, symName: '__ZN3syn8generics7parsing71_$LT$impl$u20$syn..parse..Parse$u20$for$u20$syn..generics..Generics$GT$5parse17hd28783ad0738943bE', symObjAddr: 0x9000, symBinAddr: 0xB9AC0, symSize: 0x1050 }
  - { offsetInCU: 0x6D46, offset: 0x39109E, size: 0x8, addend: 0x0, symName: '__ZN3syn8generics7parsing74_$LT$impl$u20$syn..parse..Parse$u20$for$u20$syn..generics..LifetimeDef$GT$5parse17h6b48105c285d7c8dE', symObjAddr: 0xAB40, symBinAddr: 0xBAB10, symSize: 0x740 }
  - { offsetInCU: 0x7BA5, offset: 0x391EFD, size: 0x8, addend: 0x0, symName: '__ZN3syn8generics7parsing77_$LT$impl$u20$syn..parse..Parse$u20$for$u20$syn..generics..BoundLifetimes$GT$5parse17h15c1b0ce740aaaaeE', symObjAddr: 0xB280, symBinAddr: 0xBB250, symSize: 0x350 }
  - { offsetInCU: 0x8040, offset: 0x392398, size: 0x8, addend: 0x0, symName: '__ZN3syn8generics7parsing72_$LT$impl$u20$syn..parse..Parse$u20$for$u20$syn..generics..TypeParam$GT$5parse17hc27b5d6b1736a231E', symObjAddr: 0xB5D0, symBinAddr: 0xBB5A0, symSize: 0xCD0 }
  - { offsetInCU: 0x99B6, offset: 0x393D0E, size: 0x8, addend: 0x0, symName: '__ZN3syn8generics7parsing77_$LT$impl$u20$syn..parse..Parse$u20$for$u20$syn..generics..TypeParamBound$GT$5parse17hb4643a841c373f4aE', symObjAddr: 0xC2A0, symBinAddr: 0xBC270, symSize: 0x440 }
  - { offsetInCU: 0xA2B6, offset: 0x39460E, size: 0x8, addend: 0x0, symName: '__ZN3syn8generics7parsing73_$LT$impl$u20$syn..parse..Parse$u20$for$u20$syn..generics..TraitBound$GT$5parse17hf6a49d61f3b13819E', symObjAddr: 0xCB60, symBinAddr: 0xBCB30, symSize: 0x960 }
  - { offsetInCU: 0xB904, offset: 0x395C5C, size: 0x8, addend: 0x0, symName: '__ZN3syn8generics7parsing73_$LT$impl$u20$syn..parse..Parse$u20$for$u20$syn..generics..ConstParam$GT$5parse17hd78f2ac884064914E', symObjAddr: 0xD550, symBinAddr: 0xBD490, symSize: 0x9D0 }
  - { offsetInCU: 0xCCC4, offset: 0x39701C, size: 0x8, addend: 0x0, symName: '__ZN3syn8generics7parsing74_$LT$impl$u20$syn..parse..Parse$u20$for$u20$syn..generics..WhereClause$GT$5parse17h226f401ead5bb3e0E', symObjAddr: 0xDF20, symBinAddr: 0xBDE60, symSize: 0x410 }
  - { offsetInCU: 0xD7DD, offset: 0x397B35, size: 0x8, addend: 0x0, symName: '__ZN3syn8generics7parsing77_$LT$impl$u20$syn..parse..Parse$u20$for$u20$syn..generics..WherePredicate$GT$5parse17h1ac1764ff88b87b3E', symObjAddr: 0xE330, symBinAddr: 0xBE270, symSize: 0xDA0 }
  - { offsetInCU: 0xF3DD, offset: 0x399735, size: 0x8, addend: 0x0, symName: '__ZN74_$LT$syn..generics..GenericParam$u20$as$u20$quote..to_tokens..ToTokens$GT$9to_tokens17h97d754f607da3f78E', symObjAddr: 0x11110, symBinAddr: 0xC0310, symSize: 0x280 }
  - { offsetInCU: 0xFD6E, offset: 0x39A0C6, size: 0x8, addend: 0x0, symName: '__ZN76_$LT$syn..generics..WherePredicate$u20$as$u20$quote..to_tokens..ToTokens$GT$9to_tokens17he06ae6ad5c5834ebE', symObjAddr: 0x11660, symBinAddr: 0xC0590, symSize: 0x1F0 }
  - { offsetInCU: 0x153D8, offset: 0x39F730, size: 0x8, addend: 0x0, symName: '__ZN3syn3gen5clone74_$LT$impl$u20$core..clone..Clone$u20$for$u20$syn..generics..ConstParam$GT$5clone17h0fa17406df606518E', symObjAddr: 0x11890, symBinAddr: 0xC0780, symSize: 0x1E0 }
  - { offsetInCU: 0x1566C, offset: 0x39F9C4, size: 0x8, addend: 0x0, symName: '__ZN3syn3gen5clone75_$LT$impl$u20$core..clone..Clone$u20$for$u20$syn..generics..LifetimeDef$GT$5clone17hb15b48a68f8d5022E', symObjAddr: 0x11BF0, symBinAddr: 0xC0960, symSize: 0x130 }
  - { offsetInCU: 0x158DB, offset: 0x39FC33, size: 0x8, addend: 0x0, symName: '__ZN3syn3gen5clone77_$LT$impl$u20$core..clone..Clone$u20$for$u20$syn..generics..PredicateType$GT$5clone17he0efb0081e32a613E', symObjAddr: 0x11EB0, symBinAddr: 0xC0A90, symSize: 0x120 }
  - { offsetInCU: 0x15A6D, offset: 0x39FDC5, size: 0x8, addend: 0x0, symName: '__ZN3syn3gen5clone73_$LT$impl$u20$core..clone..Clone$u20$for$u20$syn..generics..TypeParam$GT$5clone17hc1e4709c965fdb45E', symObjAddr: 0x12100, symBinAddr: 0xC0BB0, symSize: 0x1E0 }
  - { offsetInCU: 0x15CDB, offset: 0x3A0033, size: 0x8, addend: 0x0, symName: '__ZN3syn3gen5clone78_$LT$impl$u20$core..clone..Clone$u20$for$u20$syn..generics..TypeParamBound$GT$5clone17h7cca5a3d039926f0E', symObjAddr: 0x122E0, symBinAddr: 0xC0D90, symSize: 0x1C0 }
  - { offsetInCU: 0x15F65, offset: 0x3A02BD, size: 0x8, addend: 0x0, symName: '__ZN3syn3gen5clone78_$LT$impl$u20$core..clone..Clone$u20$for$u20$syn..generics..WherePredicate$GT$5clone17h0e532bcca303cf29E', symObjAddr: 0x124C0, symBinAddr: 0xC0F50, symSize: 0x1E0 }
  - { offsetInCU: 0x18FDF, offset: 0x3A3337, size: 0x8, addend: 0x0, symName: '__ZN4core3ptr100drop_in_place$LT$core..option..Option$LT$alloc..boxed..Box$LT$syn..generics..LifetimeDef$GT$$GT$$GT$17h75a6086997697dd7E.llvm.15033232405655643010', symObjAddr: 0x2A0, symBinAddr: 0xB1AC0, symSize: 0x50 }
  - { offsetInCU: 0x19161, offset: 0x3A34B9, size: 0x8, addend: 0x0, symName: '__ZN4core3ptr100drop_in_place$LT$core..option..Option$LT$alloc..boxed..Box$LT$syn..path..GenericArgument$GT$$GT$$GT$17h3d29ec00a8f1918dE', symObjAddr: 0x2F0, symBinAddr: 0xB1B10, symSize: 0x50 }
  - { offsetInCU: 0x1930F, offset: 0x3A3667, size: 0x8, addend: 0x0, symName: '__ZN4core3ptr101drop_in_place$LT$core..option..Option$LT$alloc..boxed..Box$LT$syn..generics..GenericParam$GT$$GT$$GT$17h1fee4f1c7bd902c4E.llvm.15033232405655643010', symObjAddr: 0x340, symBinAddr: 0xB1B60, symSize: 0x90 }
  - { offsetInCU: 0x194E6, offset: 0x3A383E, size: 0x8, addend: 0x0, symName: '__ZN4core3ptr102drop_in_place$LT$syn..punctuated..Punctuated$LT$syn..generics..LifetimeDef$C$syn..token..Comma$GT$$GT$17h6013ea99e87d4528E.llvm.15033232405655643010', symObjAddr: 0x3D0, symBinAddr: 0xB1BF0, symSize: 0x110 }
  - { offsetInCU: 0x19A54, offset: 0x3A3DAC, size: 0x8, addend: 0x0, symName: '__ZN4core3ptr103drop_in_place$LT$core..option..Option$LT$alloc..boxed..Box$LT$syn..generics..TypeParamBound$GT$$GT$$GT$17h6cee73bc2b2ecea8E', symObjAddr: 0x4E0, symBinAddr: 0xB1D00, symSize: 0xA0 }
  - { offsetInCU: 0x19DBF, offset: 0x3A4117, size: 0x8, addend: 0x0, symName: '__ZN4core3ptr103drop_in_place$LT$core..option..Option$LT$alloc..boxed..Box$LT$syn..generics..WherePredicate$GT$$GT$$GT$17headad361972eced7E', symObjAddr: 0x580, symBinAddr: 0xB1DA0, symSize: 0x130 }
  - { offsetInCU: 0x1A12C, offset: 0x3A4484, size: 0x8, addend: 0x0, symName: '__ZN4core3ptr103drop_in_place$LT$syn..punctuated..Punctuated$LT$syn..generics..GenericParam$C$syn..token..Comma$GT$$GT$17hae00367f0c570156E.llvm.15033232405655643010', symObjAddr: 0x6B0, symBinAddr: 0xB1ED0, symSize: 0xF0 }
  - { offsetInCU: 0x1A54D, offset: 0x3A48A5, size: 0x8, addend: 0x0, symName: '__ZN4core3ptr103drop_in_place$LT$syn..punctuated..Punctuated$LT$syn..generics..TypeParamBound$C$syn..token..Add$GT$$GT$17he811d520c92af08aE.llvm.15033232405655643010', symObjAddr: 0x7A0, symBinAddr: 0xB1FC0, symSize: 0xE0 }
  - { offsetInCU: 0x1AB16, offset: 0x3A4E6E, size: 0x8, addend: 0x0, symName: '__ZN4core3ptr104drop_in_place$LT$core..iter..adapters..peekable..Peekable$LT$proc_macro2..token_stream..IntoIter$GT$$GT$17h4b50db874834a2f0E', symObjAddr: 0x880, symBinAddr: 0xB20A0, symSize: 0x70 }
  - { offsetInCU: 0x1AC7F, offset: 0x3A4FD7, size: 0x8, addend: 0x0, symName: '__ZN4core3ptr105drop_in_place$LT$syn..punctuated..Punctuated$LT$syn..generics..WherePredicate$C$syn..token..Comma$GT$$GT$17h53c71b5d1c98483dE', symObjAddr: 0x8F0, symBinAddr: 0xB2110, symSize: 0xE0 }
  - { offsetInCU: 0x1AFE9, offset: 0x3A5341, size: 0x8, addend: 0x0, symName: '__ZN4core3ptr108drop_in_place$LT$syn..punctuated..Punctuated$LT$syn..expr..GenericMethodArgument$C$syn..token..Comma$GT$$GT$17h92cbabe4862b2183E', symObjAddr: 0x9D0, symBinAddr: 0xB21F0, symSize: 0x150 }
  - { offsetInCU: 0x1B542, offset: 0x3A589A, size: 0x8, addend: 0x0, symName: '__ZN4core3ptr34drop_in_place$LT$syn..lit..Lit$GT$17hbe1efe749a08dd9aE', symObjAddr: 0xB20, symBinAddr: 0xB2340, symSize: 0x110 }
  - { offsetInCU: 0x1BA6E, offset: 0x3A5DC6, size: 0x8, addend: 0x0, symName: '__ZN4core3ptr34drop_in_place$LT$syn..pat..Pat$GT$17h3201f642e43ac2a2E', symObjAddr: 0xC30, symBinAddr: 0xB2450, symSize: 0x1190 }
  - { offsetInCU: 0x1F986, offset: 0x3A9CDE, size: 0x8, addend: 0x0, symName: '__ZN4core3ptr34drop_in_place$LT$syn..ty..Type$GT$17hfb5d159a08190130E.llvm.15033232405655643010', symObjAddr: 0x1DC0, symBinAddr: 0xB35E0, symSize: 0x580 }
  - { offsetInCU: 0x212CB, offset: 0x3AB623, size: 0x8, addend: 0x0, symName: '__ZN4core3ptr36drop_in_place$LT$syn..expr..Expr$GT$17hf1921d1b09462bc3E.llvm.15033232405655643010', symObjAddr: 0x2340, symBinAddr: 0xB3B60, symSize: 0x3290 }
  - { offsetInCU: 0x2BB5C, offset: 0x3B5EB4, size: 0x8, addend: 0x0, symName: '__ZN4core3ptr36drop_in_place$LT$syn..mac..Macro$GT$17h205613d7ad575f72E', symObjAddr: 0x55D0, symBinAddr: 0xB6DF0, symSize: 0x40 }
  - { offsetInCU: 0x2BCAD, offset: 0x3B6005, size: 0x8, addend: 0x0, symName: '__ZN4core3ptr36drop_in_place$LT$syn..path..Path$GT$17he6d0bec66d66b98aE', symObjAddr: 0x5610, symBinAddr: 0xB6E30, symSize: 0x230 }
  - { offsetInCU: 0x2C643, offset: 0x3B699B, size: 0x8, addend: 0x0, symName: '__ZN4core3ptr37drop_in_place$LT$syn..stmt..Block$GT$17h3aa429e75a234230E', symObjAddr: 0x5840, symBinAddr: 0xB7060, symSize: 0xD0 }
  - { offsetInCU: 0x2C91A, offset: 0x3B6C72, size: 0x8, addend: 0x0, symName: '__ZN4core3ptr38drop_in_place$LT$syn..expr..Member$GT$17ha113d37a67d27aafE', symObjAddr: 0x5910, symBinAddr: 0xB7130, symSize: 0x30 }
  - { offsetInCU: 0x2CA16, offset: 0x3B6D6E, size: 0x8, addend: 0x0, symName: '__ZN4core3ptr39drop_in_place$LT$proc_macro2..Ident$GT$17hdeec010483268a0dE.llvm.15033232405655643010', symObjAddr: 0x5940, symBinAddr: 0xB7160, symSize: 0x30 }
  - { offsetInCU: 0x2CAF3, offset: 0x3B6E4B, size: 0x8, addend: 0x0, symName: '__ZN4core3ptr39drop_in_place$LT$syn..pat..PatTuple$GT$17h96faeea9832d4c4bE', symObjAddr: 0x5970, symBinAddr: 0xB7190, symSize: 0x100 }
  - { offsetInCU: 0x2CDFC, offset: 0x3B7154, size: 0x8, addend: 0x0, symName: '__ZN4core3ptr40drop_in_place$LT$syn..ty..ReturnType$GT$17h6f97c9fdb958983eE', symObjAddr: 0x5A70, symBinAddr: 0xB7290, symSize: 0x50 }
  - { offsetInCU: 0x2D0A2, offset: 0x3B73FA, size: 0x8, addend: 0x0, symName: '__ZN4core3ptr43drop_in_place$LT$proc_macro2..TokenTree$GT$17h7270f34cee6d919dE', symObjAddr: 0x5AC0, symBinAddr: 0xB72E0, symSize: 0xB0 }
  - { offsetInCU: 0x2D3FD, offset: 0x3B7755, size: 0x8, addend: 0x0, symName: '__ZN4core3ptr44drop_in_place$LT$syn..lifetime..Lifetime$GT$17h3858225df033648aE.llvm.15033232405655643010', symObjAddr: 0x5BB0, symBinAddr: 0xB7390, symSize: 0x30 }
  - { offsetInCU: 0x2D575, offset: 0x3B78CD, size: 0x8, addend: 0x0, symName: '__ZN4core3ptr44drop_in_place$LT$syn..parse..ParseBuffer$GT$17h19c266fcccc430cbE', symObjAddr: 0x5BE0, symBinAddr: 0xB73C0, symSize: 0x70 }
  - { offsetInCU: 0x2D8F1, offset: 0x3B7C49, size: 0x8, addend: 0x0, symName: '__ZN4core3ptr45drop_in_place$LT$proc_macro2..TokenStream$GT$17h2507cb30e765dc85E', symObjAddr: 0x5C50, symBinAddr: 0xB7430, symSize: 0x140 }
  - { offsetInCU: 0x2DD6C, offset: 0x3B80C4, size: 0x8, addend: 0x0, symName: '__ZN4core3ptr45drop_in_place$LT$syn..generics..TypeParam$GT$17h2de9c744cc1fcd2cE.llvm.15033232405655643010', symObjAddr: 0x5D90, symBinAddr: 0xB7570, symSize: 0x160 }
  - { offsetInCU: 0x2E199, offset: 0x3B84F1, size: 0x8, addend: 0x0, symName: '__ZN4core3ptr45drop_in_place$LT$syn..path..PathArguments$GT$17h9dd953520dcdc907E', symObjAddr: 0x5EF0, symBinAddr: 0xB76D0, symSize: 0x170 }
  - { offsetInCU: 0x2E665, offset: 0x3B89BD, size: 0x8, addend: 0x0, symName: '__ZN4core3ptr46drop_in_place$LT$syn..generics..ConstParam$GT$17hcae189adf84ad8c9E.llvm.15033232405655643010', symObjAddr: 0x6060, symBinAddr: 0xB7840, symSize: 0x170 }
  - { offsetInCU: 0x2EA73, offset: 0x3B8DCB, size: 0x8, addend: 0x0, symName: '__ZN4core3ptr46drop_in_place$LT$syn..generics..TraitBound$GT$17hbb0e80d4578d441cE.llvm.15033232405655643010', symObjAddr: 0x61D0, symBinAddr: 0xB79B0, symSize: 0x100 }
  - { offsetInCU: 0x2EDA6, offset: 0x3B90FE, size: 0x8, addend: 0x0, symName: '__ZN4core3ptr47drop_in_place$LT$syn..generics..LifetimeDef$GT$17hd04bc9e6ed9dfb47E.llvm.15033232405655643010', symObjAddr: 0x62D0, symBinAddr: 0xB7AB0, symSize: 0x120 }
  - { offsetInCU: 0x2F201, offset: 0x3B9559, size: 0x8, addend: 0x0, symName: '__ZN4core3ptr47drop_in_place$LT$syn..path..GenericArgument$GT$17h8c0a0d8c6deaefb4E', symObjAddr: 0x6440, symBinAddr: 0xB7BD0, symSize: 0x110 }
  - { offsetInCU: 0x2F51C, offset: 0x3B9874, size: 0x8, addend: 0x0, symName: '__ZN4core3ptr58drop_in_place$LT$alloc..vec..Vec$LT$syn..expr..Arm$GT$$GT$17hf3db0825f3d9c861E', symObjAddr: 0x65F0, symBinAddr: 0xB7CE0, symSize: 0xD0 }
  - { offsetInCU: 0x2F7DC, offset: 0x3B9B34, size: 0x8, addend: 0x0, symName: '__ZN4core3ptr59drop_in_place$LT$alloc..boxed..Box$LT$syn..pat..Pat$GT$$GT$17h7037ce9bbd3729c6E', symObjAddr: 0x66C0, symBinAddr: 0xB7DB0, symSize: 0x50 }
  - { offsetInCU: 0x2F935, offset: 0x3B9C8D, size: 0x8, addend: 0x0, symName: '__ZN4core3ptr59drop_in_place$LT$alloc..boxed..Box$LT$syn..ty..Type$GT$$GT$17h2eccd13329dbe4faE', symObjAddr: 0x6710, symBinAddr: 0xB7E00, symSize: 0x50 }
  - { offsetInCU: 0x2FA8E, offset: 0x3B9DE6, size: 0x8, addend: 0x0, symName: '__ZN4core3ptr61drop_in_place$LT$alloc..boxed..Box$LT$syn..expr..Expr$GT$$GT$17h66094ddc89015516E', symObjAddr: 0x6760, symBinAddr: 0xB7E50, symSize: 0x50 }
  - { offsetInCU: 0x2FC63, offset: 0x3B9FBB, size: 0x8, addend: 0x0, symName: '__ZN4core3ptr61drop_in_place$LT$syn..path..ParenthesizedGenericArguments$GT$17h21be9b1d7a6fab55E', symObjAddr: 0x67B0, symBinAddr: 0xB7EA0, symSize: 0x170 }
  - { offsetInCU: 0x30259, offset: 0x3BA5B1, size: 0x8, addend: 0x0, symName: '__ZN4core3ptr63drop_in_place$LT$alloc..boxed..Box$LT$syn..lit..LitRepr$GT$$GT$17h9c509b794406150eE', symObjAddr: 0x6940, symBinAddr: 0xB8010, symSize: 0x60 }
  - { offsetInCU: 0x30560, offset: 0x3BA8B8, size: 0x8, addend: 0x0, symName: '__ZN4core3ptr64drop_in_place$LT$alloc..boxed..Box$LT$syn..pat..FieldPat$GT$$GT$17hb167b355d0d4733fE', symObjAddr: 0x69A0, symBinAddr: 0xB8070, symSize: 0x180 }
  - { offsetInCU: 0x30C7D, offset: 0x3BAFD5, size: 0x8, addend: 0x0, symName: '__ZN4core3ptr64drop_in_place$LT$alloc..boxed..Box$LT$syn..ty..BareFnArg$GT$$GT$17h6488be9448346678E', symObjAddr: 0x6B20, symBinAddr: 0xB81F0, symSize: 0x160 }
  - { offsetInCU: 0x31213, offset: 0x3BB56B, size: 0x8, addend: 0x0, symName: '__ZN4core3ptr64drop_in_place$LT$alloc..vec..Vec$LT$syn..attr..Attribute$GT$$GT$17h386324d8ea9bc309E.llvm.15033232405655643010', symObjAddr: 0x6C80, symBinAddr: 0xB8350, symSize: 0xF0 }
  - { offsetInCU: 0x31509, offset: 0x3BB861, size: 0x8, addend: 0x0, symName: '__ZN4core3ptr65drop_in_place$LT$alloc..vec..Vec$LT$proc_macro..TokenTree$GT$$GT$17hc3670dd5608d5259E', symObjAddr: 0x6D90, symBinAddr: 0xB8440, symSize: 0x110 }
  - { offsetInCU: 0x31901, offset: 0x3BBC59, size: 0x8, addend: 0x0, symName: '__ZN4core3ptr65drop_in_place$LT$core..option..Option$LT$syn..expr..Label$GT$$GT$17ha723640fd01bec5dE', symObjAddr: 0x6EA0, symBinAddr: 0xB8550, symSize: 0x30 }
  - { offsetInCU: 0x31A3B, offset: 0x3BBD93, size: 0x8, addend: 0x0, symName: '__ZN4core3ptr66drop_in_place$LT$core..option..Option$LT$syn..ty..Variadic$GT$$GT$17hc32134bb3933b0dfE', symObjAddr: 0x6ED0, symBinAddr: 0xB8580, symSize: 0xF0 }
  - { offsetInCU: 0x31D65, offset: 0x3BC0BD, size: 0x8, addend: 0x0, symName: '__ZN4core3ptr67drop_in_place$LT$alloc..boxed..Box$LT$syn..expr..FieldValue$GT$$GT$17h8df780aa600ea8c2E', symObjAddr: 0x6FC0, symBinAddr: 0xB8670, symSize: 0x160 }
  - { offsetInCU: 0x322DB, offset: 0x3BC633, size: 0x8, addend: 0x0, symName: '__ZN4core3ptr68drop_in_place$LT$alloc..boxed..Box$LT$syn..path..PathSegment$GT$$GT$17h1957b54eed39c0bbE', symObjAddr: 0x7120, symBinAddr: 0xB87D0, symSize: 0x190 }
  - { offsetInCU: 0x32A04, offset: 0x3BCD5C, size: 0x8, addend: 0x0, symName: '__ZN4core3ptr72drop_in_place$LT$alloc..boxed..Box$LT$syn..path..GenericArgument$GT$$GT$17ha8f8136d0c2b505bE', symObjAddr: 0x72B0, symBinAddr: 0xB8960, symSize: 0x180 }
  - { offsetInCU: 0x330A4, offset: 0x3BD3FC, size: 0x8, addend: 0x0, symName: '__ZN4core3ptr72drop_in_place$LT$core..option..Option$LT$syn..lifetime..Lifetime$GT$$GT$17h31b55b93749c174dE', symObjAddr: 0x7430, symBinAddr: 0xB8AE0, symSize: 0x30 }
  - { offsetInCU: 0x331BF, offset: 0x3BD517, size: 0x8, addend: 0x0, symName: '__ZN4core3ptr75drop_in_place$LT$alloc..boxed..Box$LT$syn..generics..TypeParamBound$GT$$GT$17h8f156ce07ea0b8b2E', symObjAddr: 0x7460, symBinAddr: 0xB8B10, symSize: 0x150 }
  - { offsetInCU: 0x3376D, offset: 0x3BDAC5, size: 0x8, addend: 0x0, symName: '__ZN4core3ptr78drop_in_place$LT$alloc..boxed..Box$LT$syn..expr..GenericMethodArgument$GT$$GT$17h3384c00b5bd54c2aE', symObjAddr: 0x76A0, symBinAddr: 0xB8C60, symSize: 0x60 }
  - { offsetInCU: 0x33940, offset: 0x3BDC98, size: 0x8, addend: 0x0, symName: '__ZN4core3ptr86drop_in_place$LT$syn..punctuated..Punctuated$LT$syn..pat..Pat$C$syn..token..Or$GT$$GT$17h1078c5d178d382b7E', symObjAddr: 0x7720, symBinAddr: 0xB8CC0, symSize: 0x120 }
  - { offsetInCU: 0x33DBB, offset: 0x3BE113, size: 0x8, addend: 0x0, symName: '__ZN4core3ptr87drop_in_place$LT$core..option..Option$LT$alloc..boxed..Box$LT$syn..pat..Pat$GT$$GT$$GT$17ha7f5fe0e6f73e820E', symObjAddr: 0x7840, symBinAddr: 0xB8DE0, symSize: 0x50 }
  - { offsetInCU: 0x33F2B, offset: 0x3BE283, size: 0x8, addend: 0x0, symName: '__ZN4core3ptr87drop_in_place$LT$core..option..Option$LT$alloc..boxed..Box$LT$syn..ty..Type$GT$$GT$$GT$17hc8292da82d129de3E', symObjAddr: 0x7890, symBinAddr: 0xB8E30, symSize: 0x50 }
  - { offsetInCU: 0x3409B, offset: 0x3BE3F3, size: 0x8, addend: 0x0, symName: '__ZN4core3ptr89drop_in_place$LT$core..option..Option$LT$alloc..boxed..Box$LT$syn..expr..Expr$GT$$GT$$GT$17hdc211ccd33f196f2E', symObjAddr: 0x78E0, symBinAddr: 0xB8E80, symSize: 0x50 }
  - { offsetInCU: 0x34249, offset: 0x3BE5A1, size: 0x8, addend: 0x0, symName: '__ZN4core3ptr89drop_in_place$LT$syn..punctuated..Punctuated$LT$syn..pat..Pat$C$syn..token..Comma$GT$$GT$17hf8371102b0500adcE', symObjAddr: 0x7930, symBinAddr: 0xB8ED0, symSize: 0x120 }
  - { offsetInCU: 0x346DB, offset: 0x3BEA33, size: 0x8, addend: 0x0, symName: '__ZN4core3ptr89drop_in_place$LT$syn..punctuated..Punctuated$LT$syn..ty..Type$C$syn..token..Comma$GT$$GT$17h1c6e43341fabea97E', symObjAddr: 0x7A50, symBinAddr: 0xB8FF0, symSize: 0x120 }
  - { offsetInCU: 0x34B94, offset: 0x3BEEEC, size: 0x8, addend: 0x0, symName: '__ZN4core3ptr91drop_in_place$LT$syn..punctuated..Punctuated$LT$syn..expr..Expr$C$syn..token..Comma$GT$$GT$17hd2dfeb0c522d9a18E', symObjAddr: 0x7B70, symBinAddr: 0xB9110, symSize: 0x120 }
  - { offsetInCU: 0x35022, offset: 0x3BF37A, size: 0x8, addend: 0x0, symName: '__ZN4core3ptr94drop_in_place$LT$syn..punctuated..Punctuated$LT$syn..pat..FieldPat$C$syn..token..Comma$GT$$GT$17h612cbc9066d5afb1E', symObjAddr: 0x7C90, symBinAddr: 0xB9230, symSize: 0xF0 }
  - { offsetInCU: 0x35321, offset: 0x3BF679, size: 0x8, addend: 0x0, symName: '__ZN4core3ptr94drop_in_place$LT$syn..punctuated..Punctuated$LT$syn..ty..BareFnArg$C$syn..token..Comma$GT$$GT$17ha9a668ce9972795bE', symObjAddr: 0x7D80, symBinAddr: 0xB9320, symSize: 0xF0 }
  - { offsetInCU: 0x3561E, offset: 0x3BF976, size: 0x8, addend: 0x0, symName: '__ZN4core3ptr96drop_in_place$LT$core..option..Option$LT$alloc..boxed..Box$LT$syn..path..PathSegment$GT$$GT$$GT$17h2e81cbe3c70bb71cE', symObjAddr: 0x7E70, symBinAddr: 0xB9410, symSize: 0x180 }
  - { offsetInCU: 0x35CDB, offset: 0x3C0033, size: 0x8, addend: 0x0, symName: '__ZN4core3ptr97drop_in_place$LT$syn..punctuated..Punctuated$LT$syn..expr..FieldValue$C$syn..token..Comma$GT$$GT$17h11a5fffb46adfb11E', symObjAddr: 0x7FF0, symBinAddr: 0xB9590, symSize: 0xF0 }
  - { offsetInCU: 0x36054, offset: 0x3C03AC, size: 0x8, addend: 0x0, symName: '__ZN4core3ptr97drop_in_place$LT$syn..punctuated..Punctuated$LT$syn..lifetime..Lifetime$C$syn..token..Add$GT$$GT$17h5c54dea2c838d109E.llvm.15033232405655643010', symObjAddr: 0x80E0, symBinAddr: 0xB9680, symSize: 0xD0 }
  - { offsetInCU: 0x364C8, offset: 0x3C0820, size: 0x8, addend: 0x0, symName: '__ZN4core3ptr99drop_in_place$LT$syn..punctuated..Punctuated$LT$syn..path..PathSegment$C$syn..token..Colon2$GT$$GT$17hb961e4d7989a33ceE', symObjAddr: 0x81B0, symBinAddr: 0xB9750, symSize: 0x140 }
  - { offsetInCU: 0x400D9, offset: 0x3CA431, size: 0x8, addend: 0x0, symName: '__ZN52_$LT$$RF$T$u20$as$u20$quote..to_tokens..ToTokens$GT$9to_tokens17h763a6e2187bc8438E', symObjAddr: 0x8300, symBinAddr: 0xB9890, symSize: 0x230 }
  - { offsetInCU: 0x41D34, offset: 0x3CC08C, size: 0x8, addend: 0x0, symName: '__ZN3syn8generics7parsing47_$LT$impl$u20$syn..generics..TypeParamBound$GT$14parse_multiple17h414c253044b9c9bcE', symObjAddr: 0xC6E0, symBinAddr: 0xBC6B0, symSize: 0x480 }
  - { offsetInCU: 0x1E, offset: 0x3D6421, size: 0x8, addend: 0x0, symName: '__ZN4core3ptr39drop_in_place$LT$proc_macro2..Group$GT$17ha95b199d42755248E.llvm.14211237159924200989', symObjAddr: 0x0, symBinAddr: 0xC1130, symSize: 0x60 }
  - { offsetInCU: 0xEDD, offset: 0x3D72E0, size: 0x8, addend: 0x0, symName: '__ZN4core3ptr39drop_in_place$LT$proc_macro2..Group$GT$17ha95b199d42755248E.llvm.14211237159924200989', symObjAddr: 0x0, symBinAddr: 0xC1130, symSize: 0x60 }
  - { offsetInCU: 0x10D7, offset: 0x3D74DA, size: 0x8, addend: 0x0, symName: '__ZN4core3ptr45drop_in_place$LT$proc_macro2..TokenStream$GT$17h2507cb30e765dc85E.llvm.14211237159924200989', symObjAddr: 0x60, symBinAddr: 0xC1190, symSize: 0x140 }
  - { offsetInCU: 0x1533, offset: 0x3D7936, size: 0x8, addend: 0x0, symName: '__ZN4core3ptr65drop_in_place$LT$alloc..vec..Vec$LT$proc_macro..TokenTree$GT$$GT$17hc3670dd5608d5259E.llvm.14211237159924200989', symObjAddr: 0x1A0, symBinAddr: 0xC12D0, symSize: 0x110 }
  - { offsetInCU: 0x69AA, offset: 0x3DCDAD, size: 0x8, addend: 0x0, symName: __ZN3syn5token8printing5punct17h3863ab1e289f621aE, symObjAddr: 0x2B0, symBinAddr: 0xC13E0, symSize: 0x260 }
  - { offsetInCU: 0x70C9, offset: 0x3DD4CC, size: 0x8, addend: 0x0, symName: __ZN3syn5token8printing5delim17h019e4cc80eeedf30E, symObjAddr: 0x590, symBinAddr: 0xC1640, symSize: 0x2A0 }
  - { offsetInCU: 0x7A15, offset: 0x3DDE18, size: 0x8, addend: 0x0, symName: __ZN3syn5token8printing5delim17h023deeaed71bf710E, symObjAddr: 0x830, symBinAddr: 0xC18E0, symSize: 0x220 }
  - { offsetInCU: 0x822B, offset: 0x3DE62E, size: 0x8, addend: 0x0, symName: __ZN3syn5token8printing5delim17h02d9b44466875e2dE, symObjAddr: 0xA50, symBinAddr: 0xC1B00, symSize: 0x0 }
  - { offsetInCU: 0x8BCB, offset: 0x3DEFCE, size: 0x8, addend: 0x0, symName: __ZN3syn5token8printing5delim17h0f7beeba14842f12E, symObjAddr: 0xCE0, symBinAddr: 0xC1D90, symSize: 0x220 }
  - { offsetInCU: 0x93BD, offset: 0x3DF7C0, size: 0x8, addend: 0x0, symName: __ZN3syn5token8printing5delim17h1415f7450635a452E, symObjAddr: 0xF00, symBinAddr: 0xC1FB0, symSize: 0x2B0 }
  - { offsetInCU: 0x996F, offset: 0x3DFD72, size: 0x8, addend: 0x0, symName: __ZN3syn5token8printing5delim17h142f2f3e7a9b62eaE, symObjAddr: 0x11B0, symBinAddr: 0xC2260, symSize: 0x3B0 }
  - { offsetInCU: 0xA703, offset: 0x3E0B06, size: 0x8, addend: 0x0, symName: __ZN3syn5token8printing5delim17h17575311f406a584E, symObjAddr: 0x1560, symBinAddr: 0xC2610, symSize: 0x0 }
  - { offsetInCU: 0xAF0F, offset: 0x3E1312, size: 0x8, addend: 0x0, symName: __ZN3syn5token8printing5delim17h29531b57c5122a96E, symObjAddr: 0x1780, symBinAddr: 0xC2830, symSize: 0x1E0 }
  - { offsetInCU: 0xB44C, offset: 0x3E184F, size: 0x8, addend: 0x0, symName: __ZN3syn5token8printing5delim17h2ef8d94ef3494686E, symObjAddr: 0x1960, symBinAddr: 0xC2A10, symSize: 0x290 }
  - { offsetInCU: 0xBE08, offset: 0x3E220B, size: 0x8, addend: 0x0, symName: __ZN3syn5token8printing5delim17h38a487055f1d8275E, symObjAddr: 0x1BF0, symBinAddr: 0xC2CA0, symSize: 0x220 }
  - { offsetInCU: 0xC5EC, offset: 0x3E29EF, size: 0x8, addend: 0x0, symName: __ZN3syn5token8printing5delim17h41a5957732e23308E, symObjAddr: 0x1E10, symBinAddr: 0xC2EC0, symSize: 0x1D0 }
  - { offsetInCU: 0xCB2B, offset: 0x3E2F2E, size: 0x8, addend: 0x0, symName: __ZN3syn5token8printing5delim17h4c4a22211c6808c1E, symObjAddr: 0x2230, symBinAddr: 0xC3090, symSize: 0x2B0 }
  - { offsetInCU: 0xD0E0, offset: 0x3E34E3, size: 0x8, addend: 0x0, symName: __ZN3syn5token8printing5delim17h554a28bddf415661E, symObjAddr: 0x24E0, symBinAddr: 0xC3340, symSize: 0x220 }
  - { offsetInCU: 0xD8E8, offset: 0x3E3CEB, size: 0x8, addend: 0x0, symName: __ZN3syn5token8printing5delim17h5ba0d0e92cd9def8E, symObjAddr: 0x2700, symBinAddr: 0xC3560, symSize: 0x2B0 }
  - { offsetInCU: 0xDE9D, offset: 0x3E42A0, size: 0x8, addend: 0x0, symName: __ZN3syn5token8printing5delim17h6182b83866d9b87fE, symObjAddr: 0x29B0, symBinAddr: 0xC3810, symSize: 0x2B0 }
  - { offsetInCU: 0xE44F, offset: 0x3E4852, size: 0x8, addend: 0x0, symName: __ZN3syn5token8printing5delim17h6526a3890d5c3217E, symObjAddr: 0x2C60, symBinAddr: 0xC3AC0, symSize: 0x0 }
  - { offsetInCU: 0xE8F7, offset: 0x3E4CFA, size: 0x8, addend: 0x0, symName: __ZN3syn5token8printing5delim17h79fcc5f00065522aE, symObjAddr: 0x3030, symBinAddr: 0xC3C70, symSize: 0x0 }
  - { offsetInCU: 0xED9F, offset: 0x3E51A2, size: 0x8, addend: 0x0, symName: __ZN3syn5token8printing5delim17h9bad1fca4733ca63E, symObjAddr: 0x31E0, symBinAddr: 0xC3E20, symSize: 0x310 }
  - { offsetInCU: 0xF735, offset: 0x3E5B38, size: 0x8, addend: 0x0, symName: __ZN3syn5token8printing5delim17h9c26cfb3a4335be2E, symObjAddr: 0x34F0, symBinAddr: 0xC4130, symSize: 0x1B0 }
  - { offsetInCU: 0xFC12, offset: 0x3E6015, size: 0x8, addend: 0x0, symName: __ZN3syn5token8printing5delim17h9c4685bad8e071f9E, symObjAddr: 0x36A0, symBinAddr: 0xC42E0, symSize: 0x0 }
  - { offsetInCU: 0x100EF, offset: 0x3E64F2, size: 0x8, addend: 0x0, symName: __ZN3syn5token8printing5delim17ha14b854924d5b49aE, symObjAddr: 0x3850, symBinAddr: 0xC4490, symSize: 0x2C0 }
  - { offsetInCU: 0x10698, offset: 0x3E6A9B, size: 0x8, addend: 0x0, symName: __ZN3syn5token8printing5delim17ha638675b96107a06E, symObjAddr: 0x3B10, symBinAddr: 0xC4750, symSize: 0x280 }
  - { offsetInCU: 0x10F86, offset: 0x3E7389, size: 0x8, addend: 0x0, symName: __ZN3syn5token8printing5delim17haae905c69d3b60bbE, symObjAddr: 0x3D90, symBinAddr: 0xC49D0, symSize: 0x1E0 }
  - { offsetInCU: 0x11569, offset: 0x3E796C, size: 0x8, addend: 0x0, symName: __ZN3syn5token8printing5delim17hb06a3e7d045ef858E, symObjAddr: 0x3F70, symBinAddr: 0xC4BB0, symSize: 0x220 }
  - { offsetInCU: 0x11D83, offset: 0x3E8186, size: 0x8, addend: 0x0, symName: __ZN3syn5token8printing5delim17hb93d963452f86111E, symObjAddr: 0x4190, symBinAddr: 0xC4DD0, symSize: 0x220 }
  - { offsetInCU: 0x12582, offset: 0x3E8985, size: 0x8, addend: 0x0, symName: __ZN3syn5token8printing5delim17hba5a61f4b62d8fa5E, symObjAddr: 0x43B0, symBinAddr: 0xC4FF0, symSize: 0x0 }
  - { offsetInCU: 0x12A2A, offset: 0x3E8E2D, size: 0x8, addend: 0x0, symName: __ZN3syn5token8printing5delim17hbd8f8399d02f362eE, symObjAddr: 0x4560, symBinAddr: 0xC51A0, symSize: 0x2B0 }
  - { offsetInCU: 0x12FCA, offset: 0x3E93CD, size: 0x8, addend: 0x0, symName: __ZN3syn5token8printing5delim17hc23d09e6e4d63ad7E, symObjAddr: 0x4810, symBinAddr: 0xC5450, symSize: 0x400 }
  - { offsetInCU: 0x13F7D, offset: 0x3EA380, size: 0x8, addend: 0x0, symName: __ZN3syn5token8printing5delim17hc2bd52a28a8d51abE, symObjAddr: 0x4C10, symBinAddr: 0xC5850, symSize: 0x2B0 }
  - { offsetInCU: 0x1451F, offset: 0x3EA922, size: 0x8, addend: 0x0, symName: __ZN3syn5token8printing5delim17hd014cb93879100d4E, symObjAddr: 0x4EC0, symBinAddr: 0xC5B00, symSize: 0x1B0 }
  - { offsetInCU: 0x149FE, offset: 0x3EAE01, size: 0x8, addend: 0x0, symName: __ZN3syn5token8printing5delim17hd09f06ee19add108E, symObjAddr: 0x5070, symBinAddr: 0xC5CB0, symSize: 0x220 }
  - { offsetInCU: 0x151E2, offset: 0x3EB5E5, size: 0x8, addend: 0x0, symName: __ZN3syn5token8printing5delim17hde66530421cb3a84E, symObjAddr: 0x5290, symBinAddr: 0xC5ED0, symSize: 0x220 }
  - { offsetInCU: 0x159E6, offset: 0x3EBDE9, size: 0x8, addend: 0x0, symName: __ZN3syn5token8printing5delim17he21ecbe2536ad586E, symObjAddr: 0x54B0, symBinAddr: 0xC60F0, symSize: 0x1E0 }
  - { offsetInCU: 0x15EED, offset: 0x3EC2F0, size: 0x8, addend: 0x0, symName: __ZN3syn5token8printing5delim17he85d0be4d6469f76E, symObjAddr: 0x5690, symBinAddr: 0xC62D0, symSize: 0x220 }
  - { offsetInCU: 0x166DF, offset: 0x3ECAE2, size: 0x8, addend: 0x0, symName: __ZN3syn5token8printing5delim17he920daaed1c3e39aE, symObjAddr: 0x58B0, symBinAddr: 0xC64F0, symSize: 0x0 }
  - { offsetInCU: 0x16BBE, offset: 0x3ECFC1, size: 0x8, addend: 0x0, symName: __ZN3syn5token8printing5delim17hefb765d07a8d3e16E, symObjAddr: 0x5A60, symBinAddr: 0xC66A0, symSize: 0x3A0 }
  - { offsetInCU: 0x17A70, offset: 0x3EDE73, size: 0x8, addend: 0x0, symName: __ZN3syn5token8printing5delim17hf8761a6bae6544d4E, symObjAddr: 0x5E00, symBinAddr: 0xC6A40, symSize: 0x260 }
  - { offsetInCU: 0x1E, offset: 0x400461, size: 0x8, addend: 0x0, symName: '__ZN4core3ptr100drop_in_place$LT$core..option..Option$LT$alloc..boxed..Box$LT$syn..generics..LifetimeDef$GT$$GT$$GT$17h75a6086997697dd7E', symObjAddr: 0x0, symBinAddr: 0xC6CA0, symSize: 0x50 }
  - { offsetInCU: 0xB2, offset: 0x4004F5, size: 0x8, addend: 0x0, symName: '__ZN58_$LT$alloc..string..String$u20$as$u20$core..fmt..Write$GT$10write_char17h04bc467bd68a934bE', symObjAddr: 0x8F90, symBinAddr: 0xCFC30, symSize: 0x140 }
  - { offsetInCU: 0x4B7, offset: 0x4008FA, size: 0x8, addend: 0x0, symName: '__ZN58_$LT$alloc..string..String$u20$as$u20$core..fmt..Write$GT$9write_str17h46a93205c3443fbaE', symObjAddr: 0x90D0, symBinAddr: 0xCFD70, symSize: 0x60 }
  - { offsetInCU: 0x15D0, offset: 0x401A13, size: 0x8, addend: 0x0, symName: __ZN5alloc5alloc15exchange_malloc17h9a87608d0224859dE, symObjAddr: 0x91A0, symBinAddr: 0xCFE40, symSize: 0x40 }
  - { offsetInCU: 0x41AA, offset: 0x4045ED, size: 0x8, addend: 0x0, symName: '__ZN4core3ptr100drop_in_place$LT$core..option..Option$LT$alloc..boxed..Box$LT$syn..generics..LifetimeDef$GT$$GT$$GT$17h75a6086997697dd7E', symObjAddr: 0x0, symBinAddr: 0xC6CA0, symSize: 0x50 }
  - { offsetInCU: 0x432C, offset: 0x40476F, size: 0x8, addend: 0x0, symName: '__ZN4core3ptr100drop_in_place$LT$core..option..Option$LT$alloc..boxed..Box$LT$syn..path..GenericArgument$GT$$GT$$GT$17h3d29ec00a8f1918dE', symObjAddr: 0x50, symBinAddr: 0xC6CF0, symSize: 0x50 }
  - { offsetInCU: 0x4610, offset: 0x404A53, size: 0x8, addend: 0x0, symName: '__ZN4core3ptr101drop_in_place$LT$core..option..Option$LT$alloc..boxed..Box$LT$syn..generics..GenericParam$GT$$GT$$GT$17h1fee4f1c7bd902c4E', symObjAddr: 0xA0, symBinAddr: 0xC6D40, symSize: 0x310 }
  - { offsetInCU: 0x504B, offset: 0x40548E, size: 0x8, addend: 0x0, symName: '__ZN4core3ptr103drop_in_place$LT$core..option..Option$LT$alloc..boxed..Box$LT$syn..generics..WherePredicate$GT$$GT$$GT$17headad361972eced7E', symObjAddr: 0x3B0, symBinAddr: 0xC7050, symSize: 0x120 }
  - { offsetInCU: 0x5365, offset: 0x4057A8, size: 0x8, addend: 0x0, symName: '__ZN4core3ptr103drop_in_place$LT$syn..punctuated..Punctuated$LT$syn..generics..GenericParam$C$syn..token..Comma$GT$$GT$17hae00367f0c570156E', symObjAddr: 0x4D0, symBinAddr: 0xC7170, symSize: 0x70 }
  - { offsetInCU: 0x5680, offset: 0x405AC3, size: 0x8, addend: 0x0, symName: '__ZN4core3ptr103drop_in_place$LT$syn..punctuated..Punctuated$LT$syn..generics..TypeParamBound$C$syn..token..Add$GT$$GT$17he811d520c92af08aE', symObjAddr: 0x540, symBinAddr: 0xC71E0, symSize: 0xF0 }
  - { offsetInCU: 0x5C4C, offset: 0x40608F, size: 0x8, addend: 0x0, symName: '__ZN4core3ptr108drop_in_place$LT$syn..punctuated..Punctuated$LT$syn..expr..GenericMethodArgument$C$syn..token..Comma$GT$$GT$17h92cbabe4862b2183E', symObjAddr: 0x630, symBinAddr: 0xC72D0, symSize: 0x150 }
  - { offsetInCU: 0x6129, offset: 0x40656C, size: 0x8, addend: 0x0, symName: '__ZN4core3ptr126drop_in_place$LT$core..option..Option$LT$$LP$syn..token..And$C$core..option..Option$LT$syn..lifetime..Lifetime$GT$$RP$$GT$$GT$17h5979d670cb45416cE', symObjAddr: 0x780, symBinAddr: 0xC7420, symSize: 0x30 }
  - { offsetInCU: 0x633C, offset: 0x40677F, size: 0x8, addend: 0x0, symName: '__ZN4core3ptr34drop_in_place$LT$syn..lit..Lit$GT$17hbe1efe749a08dd9aE', symObjAddr: 0x7B0, symBinAddr: 0xC7450, symSize: 0x110 }
  - { offsetInCU: 0x67EC, offset: 0x406C2F, size: 0x8, addend: 0x0, symName: '__ZN4core3ptr34drop_in_place$LT$syn..pat..Pat$GT$17h3201f642e43ac2a2E', symObjAddr: 0x8C0, symBinAddr: 0xC7560, symSize: 0xFA0 }
  - { offsetInCU: 0x9D5A, offset: 0x40A19D, size: 0x8, addend: 0x0, symName: '__ZN4core3ptr34drop_in_place$LT$syn..ty..Type$GT$17hfb5d159a08190130E', symObjAddr: 0x1860, symBinAddr: 0xC8500, symSize: 0x580 }
  - { offsetInCU: 0xB66B, offset: 0x40BAAE, size: 0x8, addend: 0x0, symName: '__ZN4core3ptr36drop_in_place$LT$syn..expr..Expr$GT$17hf1921d1b09462bc3E', symObjAddr: 0x1DE0, symBinAddr: 0xC8A80, symSize: 0x3290 }
  - { offsetInCU: 0x15EFC, offset: 0x41633F, size: 0x8, addend: 0x0, symName: '__ZN4core3ptr36drop_in_place$LT$syn..mac..Macro$GT$17h205613d7ad575f72E', symObjAddr: 0x5070, symBinAddr: 0xCBD10, symSize: 0x40 }
  - { offsetInCU: 0x1604D, offset: 0x416490, size: 0x8, addend: 0x0, symName: '__ZN4core3ptr36drop_in_place$LT$syn..path..Path$GT$17he6d0bec66d66b98aE', symObjAddr: 0x50B0, symBinAddr: 0xCBD50, symSize: 0x230 }
  - { offsetInCU: 0x16A21, offset: 0x416E64, size: 0x8, addend: 0x0, symName: '__ZN4core3ptr37drop_in_place$LT$syn..item..FnArg$GT$17h52a13b3505938de2E', symObjAddr: 0x52E0, symBinAddr: 0xCBF80, symSize: 0x160 }
  - { offsetInCU: 0x16EAD, offset: 0x4172F0, size: 0x8, addend: 0x0, symName: '__ZN4core3ptr37drop_in_place$LT$syn..stmt..Block$GT$17h3aa429e75a234230E', symObjAddr: 0x5440, symBinAddr: 0xCC0E0, symSize: 0xD0 }
  - { offsetInCU: 0x17184, offset: 0x4175C7, size: 0x8, addend: 0x0, symName: '__ZN4core3ptr38drop_in_place$LT$syn..expr..Member$GT$17ha113d37a67d27aafE', symObjAddr: 0x5510, symBinAddr: 0xCC1B0, symSize: 0x30 }
  - { offsetInCU: 0x17280, offset: 0x4176C3, size: 0x8, addend: 0x0, symName: '__ZN4core3ptr38drop_in_place$LT$syn..pat..PatType$GT$17h833e3c7992399b01E', symObjAddr: 0x5540, symBinAddr: 0xCC1E0, symSize: 0x160 }
  - { offsetInCU: 0x17844, offset: 0x417C87, size: 0x8, addend: 0x0, symName: '__ZN4core3ptr38drop_in_place$LT$syn..ty..Variadic$GT$17h354585068960ea23E', symObjAddr: 0x56A0, symBinAddr: 0xCC340, symSize: 0xF0 }
  - { offsetInCU: 0x17B51, offset: 0x417F94, size: 0x8, addend: 0x0, symName: '__ZN4core3ptr39drop_in_place$LT$proc_macro2..Ident$GT$17hdeec010483268a0dE', symObjAddr: 0x5790, symBinAddr: 0xCC430, symSize: 0x30 }
  - { offsetInCU: 0x17CAA, offset: 0x4180ED, size: 0x8, addend: 0x0, symName: '__ZN4core3ptr39drop_in_place$LT$syn..pat..PatTuple$GT$17h96faeea9832d4c4bE', symObjAddr: 0x57C0, symBinAddr: 0xCC460, symSize: 0x1F0 }
  - { offsetInCU: 0x1841F, offset: 0x418862, size: 0x8, addend: 0x0, symName: '__ZN4core3ptr39drop_in_place$LT$syn..ty..TypeGroup$GT$17h120a69ce327d3900E', symObjAddr: 0x59B0, symBinAddr: 0xCC650, symSize: 0x50 }
  - { offsetInCU: 0x18663, offset: 0x418AA6, size: 0x8, addend: 0x0, symName: '__ZN4core3ptr40drop_in_place$LT$syn..item..ImplItem$GT$17hb8d8f44c0f04c0e3E', symObjAddr: 0x5A00, symBinAddr: 0xCC6A0, symSize: 0x6C0 }
  - { offsetInCU: 0x19B2E, offset: 0x419F71, size: 0x8, addend: 0x0, symName: '__ZN4core3ptr40drop_in_place$LT$syn..ty..ReturnType$GT$17h6f97c9fdb958983eE', symObjAddr: 0x60C0, symBinAddr: 0xCCD60, symSize: 0x50 }
  - { offsetInCU: 0x19C9E, offset: 0x41A0E1, size: 0x8, addend: 0x0, symName: '__ZN4core3ptr41drop_in_place$LT$syn..item..Signature$GT$17hd57cfba25994ce69E', symObjAddr: 0x6110, symBinAddr: 0xCCDB0, symSize: 0x220 }
  - { offsetInCU: 0x1A660, offset: 0x41AAA3, size: 0x8, addend: 0x0, symName: '__ZN4core3ptr41drop_in_place$LT$syn..item..TraitItem$GT$17h4b7d90364e3eddf8E', symObjAddr: 0x6330, symBinAddr: 0xCCFD0, symSize: 0x630 }
  - { offsetInCU: 0x1B7F2, offset: 0x41BC35, size: 0x8, addend: 0x0, symName: '__ZN4core3ptr42drop_in_place$LT$alloc..string..String$GT$17hef974c60cd9900dbE', symObjAddr: 0x6960, symBinAddr: 0xCD600, symSize: 0x20 }
  - { offsetInCU: 0x1B8FA, offset: 0x41BD3D, size: 0x8, addend: 0x0, symName: '__ZN4core3ptr42drop_in_place$LT$syn..data..Visibility$GT$17h27e8b6ad307fcbc7E', symObjAddr: 0x6980, symBinAddr: 0xCD620, symSize: 0x60 }
  - { offsetInCU: 0x1BBA1, offset: 0x41BFE4, size: 0x8, addend: 0x0, symName: '__ZN4core3ptr43drop_in_place$LT$proc_macro2..TokenTree$GT$17h7270f34cee6d919dE', symObjAddr: 0x69E0, symBinAddr: 0xCD680, symSize: 0xB0 }
  - { offsetInCU: 0x1BF1B, offset: 0x41C35E, size: 0x8, addend: 0x0, symName: '__ZN4core3ptr44drop_in_place$LT$syn..generics..Generics$GT$17he0d6eb6045503c84E', symObjAddr: 0x6A90, symBinAddr: 0xCD730, symSize: 0xA0 }
  - { offsetInCU: 0x1C187, offset: 0x41C5CA, size: 0x8, addend: 0x0, symName: '__ZN4core3ptr44drop_in_place$LT$syn..lifetime..Lifetime$GT$17h3858225df033648aE', symObjAddr: 0x6B30, symBinAddr: 0xCD7D0, symSize: 0x30 }
  - { offsetInCU: 0x1C2FF, offset: 0x41C742, size: 0x8, addend: 0x0, symName: '__ZN4core3ptr44drop_in_place$LT$syn..parse..ParseBuffer$GT$17h19c266fcccc430cbE', symObjAddr: 0x6B60, symBinAddr: 0xCD800, symSize: 0x70 }
  - { offsetInCU: 0x1C67B, offset: 0x41CABE, size: 0x8, addend: 0x0, symName: '__ZN4core3ptr45drop_in_place$LT$proc_macro2..TokenStream$GT$17h2507cb30e765dc85E', symObjAddr: 0x6BD0, symBinAddr: 0xCD870, symSize: 0x140 }
  - { offsetInCU: 0x1CAD7, offset: 0x41CF1A, size: 0x8, addend: 0x0, symName: '__ZN4core3ptr47drop_in_place$LT$syn..generics..LifetimeDef$GT$17hd04bc9e6ed9dfb47E', symObjAddr: 0x6D10, symBinAddr: 0xCD9B0, symSize: 0x120 }
  - { offsetInCU: 0x1CF32, offset: 0x41D375, size: 0x8, addend: 0x0, symName: '__ZN4core3ptr47drop_in_place$LT$syn..path..GenericArgument$GT$17h8c0a0d8c6deaefb4E', symObjAddr: 0x6E30, symBinAddr: 0xCDAD0, symSize: 0x110 }
  - { offsetInCU: 0x1D24D, offset: 0x41D690, size: 0x8, addend: 0x0, symName: '__ZN4core3ptr58drop_in_place$LT$alloc..vec..Vec$LT$syn..expr..Arm$GT$$GT$17hf3db0825f3d9c861E', symObjAddr: 0x6F40, symBinAddr: 0xCDBE0, symSize: 0xD0 }
  - { offsetInCU: 0x1D50D, offset: 0x41D950, size: 0x8, addend: 0x0, symName: '__ZN4core3ptr59drop_in_place$LT$alloc..boxed..Box$LT$syn..pat..Pat$GT$$GT$17h7037ce9bbd3729c6E', symObjAddr: 0x7010, symBinAddr: 0xCDCB0, symSize: 0x50 }
  - { offsetInCU: 0x1D666, offset: 0x41DAA9, size: 0x8, addend: 0x0, symName: '__ZN4core3ptr59drop_in_place$LT$alloc..boxed..Box$LT$syn..ty..Type$GT$$GT$17h2eccd13329dbe4faE', symObjAddr: 0x7060, symBinAddr: 0xCDD00, symSize: 0x50 }
  - { offsetInCU: 0x1D7BF, offset: 0x41DC02, size: 0x8, addend: 0x0, symName: '__ZN4core3ptr61drop_in_place$LT$alloc..boxed..Box$LT$syn..expr..Expr$GT$$GT$17h66094ddc89015516E', symObjAddr: 0x70B0, symBinAddr: 0xCDD50, symSize: 0x50 }
  - { offsetInCU: 0x1D994, offset: 0x41DDD7, size: 0x8, addend: 0x0, symName: '__ZN4core3ptr61drop_in_place$LT$syn..path..ParenthesizedGenericArguments$GT$17h21be9b1d7a6fab55E', symObjAddr: 0x7100, symBinAddr: 0xCDDA0, symSize: 0x170 }
  - { offsetInCU: 0x1DF8A, offset: 0x41E3CD, size: 0x8, addend: 0x0, symName: '__ZN4core3ptr63drop_in_place$LT$alloc..boxed..Box$LT$syn..lit..LitRepr$GT$$GT$17h9c509b794406150eE', symObjAddr: 0x7270, symBinAddr: 0xCDF10, symSize: 0x60 }
  - { offsetInCU: 0x1E272, offset: 0x41E6B5, size: 0x8, addend: 0x0, symName: '__ZN4core3ptr63drop_in_place$LT$alloc..vec..Vec$LT$syn..item..ImplItem$GT$$GT$17ha4d5b54edb0d5cb7E', symObjAddr: 0x72D0, symBinAddr: 0xCDF70, symSize: 0x80 }
  - { offsetInCU: 0x1E57B, offset: 0x41E9BE, size: 0x8, addend: 0x0, symName: '__ZN4core3ptr64drop_in_place$LT$alloc..boxed..Box$LT$syn..pat..FieldPat$GT$$GT$17hb167b355d0d4733fE', symObjAddr: 0x7350, symBinAddr: 0xCDFF0, symSize: 0x180 }
  - { offsetInCU: 0x1EC98, offset: 0x41F0DB, size: 0x8, addend: 0x0, symName: '__ZN4core3ptr64drop_in_place$LT$alloc..boxed..Box$LT$syn..ty..BareFnArg$GT$$GT$17h6488be9448346678E', symObjAddr: 0x74D0, symBinAddr: 0xCE170, symSize: 0x160 }
  - { offsetInCU: 0x1F22E, offset: 0x41F671, size: 0x8, addend: 0x0, symName: '__ZN4core3ptr64drop_in_place$LT$alloc..vec..Vec$LT$syn..attr..Attribute$GT$$GT$17h386324d8ea9bc309E', symObjAddr: 0x7630, symBinAddr: 0xCE2D0, symSize: 0xF0 }
  - { offsetInCU: 0x1F543, offset: 0x41F986, size: 0x8, addend: 0x0, symName: '__ZN4core3ptr64drop_in_place$LT$alloc..vec..Vec$LT$syn..item..TraitItem$GT$$GT$17h0ef3c4b7ce592e9eE', symObjAddr: 0x7720, symBinAddr: 0xCE3C0, symSize: 0x80 }
  - { offsetInCU: 0x1F7FB, offset: 0x41FC3E, size: 0x8, addend: 0x0, symName: '__ZN4core3ptr65drop_in_place$LT$alloc..vec..Vec$LT$proc_macro..TokenTree$GT$$GT$17hc3670dd5608d5259E', symObjAddr: 0x77A0, symBinAddr: 0xCE440, symSize: 0x110 }
  - { offsetInCU: 0x1FBF3, offset: 0x420036, size: 0x8, addend: 0x0, symName: '__ZN4core3ptr65drop_in_place$LT$core..option..Option$LT$syn..expr..Label$GT$$GT$17ha723640fd01bec5dE', symObjAddr: 0x78B0, symBinAddr: 0xCE550, symSize: 0x30 }
  - { offsetInCU: 0x1FD2D, offset: 0x420170, size: 0x8, addend: 0x0, symName: '__ZN4core3ptr65drop_in_place$LT$core..option..Option$LT$syn..path..QSelf$GT$$GT$17h213ca1c3399df9f2E', symObjAddr: 0x78E0, symBinAddr: 0xCE580, symSize: 0x50 }
  - { offsetInCU: 0x1FEAE, offset: 0x4202F1, size: 0x8, addend: 0x0, symName: '__ZN4core3ptr65drop_in_place$LT$core..option..Option$LT$syn..stmt..Block$GT$$GT$17hdff81fd7cb2986caE', symObjAddr: 0x7930, symBinAddr: 0xCE5D0, symSize: 0xD0 }
  - { offsetInCU: 0x20183, offset: 0x4205C6, size: 0x8, addend: 0x0, symName: '__ZN4core3ptr66drop_in_place$LT$core..option..Option$LT$syn..ty..Variadic$GT$$GT$17hc32134bb3933b0dfE', symObjAddr: 0x7A00, symBinAddr: 0xCE6A0, symSize: 0xF0 }
  - { offsetInCU: 0x204AD, offset: 0x4208F0, size: 0x8, addend: 0x0, symName: '__ZN4core3ptr67drop_in_place$LT$alloc..boxed..Box$LT$syn..expr..FieldValue$GT$$GT$17h8df780aa600ea8c2E', symObjAddr: 0x7AF0, symBinAddr: 0xCE790, symSize: 0x160 }
  - { offsetInCU: 0x20A42, offset: 0x420E85, size: 0x8, addend: 0x0, symName: '__ZN4core3ptr68drop_in_place$LT$alloc..boxed..Box$LT$syn..path..PathSegment$GT$$GT$17h1957b54eed39c0bbE', symObjAddr: 0x7C50, symBinAddr: 0xCE8F0, symSize: 0x190 }
  - { offsetInCU: 0x2114C, offset: 0x42158F, size: 0x8, addend: 0x0, symName: '__ZN4core3ptr72drop_in_place$LT$alloc..boxed..Box$LT$syn..path..GenericArgument$GT$$GT$17ha8f8136d0c2b505bE', symObjAddr: 0x7DE0, symBinAddr: 0xCEA80, symSize: 0x120 }
  - { offsetInCU: 0x215C4, offset: 0x421A07, size: 0x8, addend: 0x0, symName: '__ZN4core3ptr72drop_in_place$LT$core..option..Option$LT$syn..lifetime..Lifetime$GT$$GT$17h31b55b93749c174dE', symObjAddr: 0x7F00, symBinAddr: 0xCEBA0, symSize: 0x30 }
  - { offsetInCU: 0x216DF, offset: 0x421B22, size: 0x8, addend: 0x0, symName: '__ZN4core3ptr75drop_in_place$LT$alloc..boxed..Box$LT$syn..generics..TypeParamBound$GT$$GT$17h8f156ce07ea0b8b2E', symObjAddr: 0x7F30, symBinAddr: 0xCEBD0, symSize: 0x90 }
  - { offsetInCU: 0x21A1E, offset: 0x421E61, size: 0x8, addend: 0x0, symName: '__ZN4core3ptr75drop_in_place$LT$core..option..Option$LT$syn..generics..WhereClause$GT$$GT$17h9a6b9b305741da86E', symObjAddr: 0x7FC0, symBinAddr: 0xCEC60, symSize: 0xF0 }
  - { offsetInCU: 0x21D40, offset: 0x422183, size: 0x8, addend: 0x0, symName: '__ZN4core3ptr78drop_in_place$LT$alloc..boxed..Box$LT$syn..expr..GenericMethodArgument$GT$$GT$17h3384c00b5bd54c2aE', symObjAddr: 0x80B0, symBinAddr: 0xCED50, symSize: 0x60 }
  - { offsetInCU: 0x21F51, offset: 0x422394, size: 0x8, addend: 0x0, symName: '__ZN4core3ptr78drop_in_place$LT$core..option..Option$LT$syn..generics..BoundLifetimes$GT$$GT$17h8175e66ad0c4a156E', symObjAddr: 0x8110, symBinAddr: 0xCEDB0, symSize: 0x120 }
  - { offsetInCU: 0x223F7, offset: 0x42283A, size: 0x8, addend: 0x0, symName: '__ZN4core3ptr86drop_in_place$LT$syn..punctuated..Punctuated$LT$syn..pat..Pat$C$syn..token..Or$GT$$GT$17h1078c5d178d382b7E', symObjAddr: 0x8230, symBinAddr: 0xCEED0, symSize: 0x120 }
  - { offsetInCU: 0x22889, offset: 0x422CCC, size: 0x8, addend: 0x0, symName: '__ZN4core3ptr87drop_in_place$LT$core..option..Option$LT$alloc..boxed..Box$LT$syn..pat..Pat$GT$$GT$$GT$17ha7f5fe0e6f73e820E', symObjAddr: 0x8350, symBinAddr: 0xCEFF0, symSize: 0x50 }
  - { offsetInCU: 0x229F9, offset: 0x422E3C, size: 0x8, addend: 0x0, symName: '__ZN4core3ptr87drop_in_place$LT$core..option..Option$LT$alloc..boxed..Box$LT$syn..ty..Type$GT$$GT$$GT$17hc8292da82d129de3E', symObjAddr: 0x83A0, symBinAddr: 0xCF040, symSize: 0x50 }
  - { offsetInCU: 0x22B69, offset: 0x422FAC, size: 0x8, addend: 0x0, symName: '__ZN4core3ptr89drop_in_place$LT$core..option..Option$LT$alloc..boxed..Box$LT$syn..expr..Expr$GT$$GT$$GT$17hdc211ccd33f196f2E', symObjAddr: 0x83F0, symBinAddr: 0xCF090, symSize: 0x50 }
  - { offsetInCU: 0x22CD9, offset: 0x42311C, size: 0x8, addend: 0x0, symName: '__ZN4core3ptr89drop_in_place$LT$syn..punctuated..Punctuated$LT$syn..ty..Type$C$syn..token..Comma$GT$$GT$17h1c6e43341fabea97E', symObjAddr: 0x8440, symBinAddr: 0xCF0E0, symSize: 0x120 }
  - { offsetInCU: 0x23173, offset: 0x4235B6, size: 0x8, addend: 0x0, symName: '__ZN4core3ptr90drop_in_place$LT$core..option..Option$LT$alloc..boxed..Box$LT$syn..item..FnArg$GT$$GT$$GT$17ha72e545cf6ea6548E', symObjAddr: 0x8560, symBinAddr: 0xCF200, symSize: 0x50 }
  - { offsetInCU: 0x23314, offset: 0x423757, size: 0x8, addend: 0x0, symName: '__ZN4core3ptr91drop_in_place$LT$syn..punctuated..Punctuated$LT$syn..expr..Expr$C$syn..token..Comma$GT$$GT$17hd2dfeb0c522d9a18E', symObjAddr: 0x85B0, symBinAddr: 0xCF250, symSize: 0x120 }
  - { offsetInCU: 0x237FF, offset: 0x423C42, size: 0x8, addend: 0x0, symName: '__ZN4core3ptr92drop_in_place$LT$syn..punctuated..Punctuated$LT$syn..item..FnArg$C$syn..token..Comma$GT$$GT$17h3049a14d789de61dE', symObjAddr: 0x86D0, symBinAddr: 0xCF370, symSize: 0x130 }
  - { offsetInCU: 0x23C65, offset: 0x4240A8, size: 0x8, addend: 0x0, symName: '__ZN4core3ptr94drop_in_place$LT$syn..punctuated..Punctuated$LT$syn..pat..FieldPat$C$syn..token..Comma$GT$$GT$17h612cbc9066d5afb1E', symObjAddr: 0x8800, symBinAddr: 0xCF4A0, symSize: 0xF0 }
  - { offsetInCU: 0x23F64, offset: 0x4243A7, size: 0x8, addend: 0x0, symName: '__ZN4core3ptr94drop_in_place$LT$syn..punctuated..Punctuated$LT$syn..ty..BareFnArg$C$syn..token..Comma$GT$$GT$17ha9a668ce9972795bE', symObjAddr: 0x88F0, symBinAddr: 0xCF590, symSize: 0xF0 }
  - { offsetInCU: 0x24261, offset: 0x4246A4, size: 0x8, addend: 0x0, symName: '__ZN4core3ptr96drop_in_place$LT$core..option..Option$LT$alloc..boxed..Box$LT$syn..path..PathSegment$GT$$GT$$GT$17h2e81cbe3c70bb71cE', symObjAddr: 0x89E0, symBinAddr: 0xCF680, symSize: 0x180 }
  - { offsetInCU: 0x2491E, offset: 0x424D61, size: 0x8, addend: 0x0, symName: '__ZN4core3ptr97drop_in_place$LT$syn..punctuated..Punctuated$LT$syn..expr..FieldValue$C$syn..token..Comma$GT$$GT$17h11a5fffb46adfb11E', symObjAddr: 0x8B60, symBinAddr: 0xCF800, symSize: 0xF0 }
  - { offsetInCU: 0x24C97, offset: 0x4250DA, size: 0x8, addend: 0x0, symName: '__ZN4core3ptr97drop_in_place$LT$syn..punctuated..Punctuated$LT$syn..lifetime..Lifetime$C$syn..token..Add$GT$$GT$17h5c54dea2c838d109E', symObjAddr: 0x8C50, symBinAddr: 0xCF8F0, symSize: 0xD0 }
  - { offsetInCU: 0x2510B, offset: 0x42554E, size: 0x8, addend: 0x0, symName: '__ZN4core3ptr99drop_in_place$LT$syn..punctuated..Punctuated$LT$syn..path..PathSegment$C$syn..token..Colon2$GT$$GT$17hb961e4d7989a33ceE', symObjAddr: 0x8D20, symBinAddr: 0xCF9C0, symSize: 0x250 }
  - { offsetInCU: 0x26369, offset: 0x4267AC, size: 0x8, addend: 0x0, symName: '__ZN53_$LT$core..fmt..Error$u20$as$u20$core..fmt..Debug$GT$3fmt17h03dc662ab152f3aeE', symObjAddr: 0x8F70, symBinAddr: 0xCFC10, symSize: 0x20 }
  - { offsetInCU: 0x2D1DC, offset: 0x42D61F, size: 0x8, addend: 0x0, symName: __ZN3syn4item7parsing12pop_variadic17hefc9ebad1f916af5E, symObjAddr: 0x9DC0, symBinAddr: 0xD0A60, symSize: 0x440 }
  - { offsetInCU: 0x2E05D, offset: 0x42E4A0, size: 0x8, addend: 0x0, symName: __ZN3syn4item7parsing18variadic_to_tokens17h4981663a913b676cE, symObjAddr: 0xA200, symBinAddr: 0xD0EA0, symSize: 0x1F0 }
  - { offsetInCU: 0x2E467, offset: 0x42E8AA, size: 0x8, addend: 0x0, symName: __ZN3syn4item7parsing14peek_signature17h6f78099971b850e3E, symObjAddr: 0xA3F0, symBinAddr: 0xD1090, symSize: 0x3C0 }
  - { offsetInCU: 0x2F7BB, offset: 0x42FBFE, size: 0x8, addend: 0x0, symName: __ZN3syn4item7parsing16parse_rest_of_fn17hb7cd50c8099731a3E, symObjAddr: 0xA7B0, symBinAddr: 0xD1450, symSize: 0x510 }
  - { offsetInCU: 0x30488, offset: 0x4308CB, size: 0x8, addend: 0x0, symName: __ZN3syn4item7parsing13parse_fn_args17h79232dee74d02222E, symObjAddr: 0xACC0, symBinAddr: 0xD1960, symSize: 0x9F0 }
  - { offsetInCU: 0x314F7, offset: 0x43193A, size: 0x8, addend: 0x0, symName: __ZN3syn4item7parsing12fn_arg_typed17h50de50b9cbd2986aE, symObjAddr: 0xB6B0, symBinAddr: 0xD2350, symSize: 0x9D0 }
  - { offsetInCU: 0x32E37, offset: 0x43327A, size: 0x8, addend: 0x0, symName: __ZN3syn4item7parsing23parse_foreign_item_type17h0d1b34a49c3e53f1E, symObjAddr: 0xC080, symBinAddr: 0xD2D20, symSize: 0x4B0 }
  - { offsetInCU: 0x33677, offset: 0x433ABA, size: 0x8, addend: 0x0, symName: __ZN3syn4item7parsing15parse_item_type17h2a4edd2d7d3363beE, symObjAddr: 0xC530, symBinAddr: 0xD31D0, symSize: 0x5E0 }
  - { offsetInCU: 0x34071, offset: 0x4344B4, size: 0x8, addend: 0x0, symName: __ZN3syn4item7parsing26parse_trait_or_trait_alias17h4e444327f476e99fE, symObjAddr: 0xCB10, symBinAddr: 0xD37B0, symSize: 0x870 }
  - { offsetInCU: 0x35AD1, offset: 0x435F14, size: 0x8, addend: 0x0, symName: __ZN3syn4item7parsing19parse_rest_of_trait17h9a6eb98dff16ebf5E, symObjAddr: 0xD380, symBinAddr: 0xD4020, symSize: 0xBD0 }
  - { offsetInCU: 0x3755B, offset: 0x43799E, size: 0x8, addend: 0x0, symName: __ZN3syn4item7parsing26parse_start_of_trait_alias17h7cea34b753daf1f6E, symObjAddr: 0xDF50, symBinAddr: 0xD4BF0, symSize: 0x4B0 }
  - { offsetInCU: 0x37FD3, offset: 0x438416, size: 0x8, addend: 0x0, symName: __ZN3syn4item7parsing25parse_rest_of_trait_alias17he4a9d17c688ffe1fE, symObjAddr: 0xE400, symBinAddr: 0xD50A0, symSize: 0x670 }
  - { offsetInCU: 0x38C68, offset: 0x4390AB, size: 0x8, addend: 0x0, symName: __ZN3syn4item7parsing21parse_trait_item_type17h1cedbc1ccb5d043dE, symObjAddr: 0xEA70, symBinAddr: 0xD5710, symSize: 0x540 }
  - { offsetInCU: 0x39470, offset: 0x4398B3, size: 0x8, addend: 0x0, symName: __ZN3syn4item7parsing10parse_impl17h07469f6aaa82ca90E, symObjAddr: 0xEFB0, symBinAddr: 0xD5C50, symSize: 0x1830 }
  - { offsetInCU: 0x3B622, offset: 0x43BA65, size: 0x8, addend: 0x0, symName: __ZN3syn4item7parsing20parse_impl_item_type17h92af03b3393e3946E, symObjAddr: 0x107E0, symBinAddr: 0xD7480, symSize: 0x4E0 }
  - { offsetInCU: 0x3BEB5, offset: 0x43C2F8, size: 0x8, addend: 0x0, symName: '__ZN75_$LT$syn..item..parsing..macro_rules$u20$as$u20$syn..token..CustomToken$GT$4peek17h3d8b08d687f899bdE', symObjAddr: 0x10CD0, symBinAddr: 0xD7960, symSize: 0x1A0 }
  - { offsetInCU: 0x43AC7, offset: 0x443F0A, size: 0x8, addend: 0x0, symName: '__ZN5alloc3vec16Vec$LT$T$C$A$GT$4push17hb65366a36844e569E', symObjAddr: 0x9130, symBinAddr: 0xCFDD0, symSize: 0x70 }
  - { offsetInCU: 0x4403F, offset: 0x444482, size: 0x8, addend: 0x0, symName: __ZN3syn4item7parsing16FlexibleItemType5parse17h6bd33458371dd534E, symObjAddr: 0x91E0, symBinAddr: 0xCFE80, symSize: 0xBE0 }
  - { offsetInCU: 0x7FF, offset: 0x44D546, size: 0x8, addend: 0x0, symName: '__ZN3syn2ty8printing76_$LT$impl$u20$quote..to_tokens..ToTokens$u20$for$u20$syn..ty..TypeBareFn$GT$9to_tokens17hf8e3645850a7f57dE', symObjAddr: 0xB0E0, symBinAddr: 0xE0A60, symSize: 0x220 }
  - { offsetInCU: 0xF7F, offset: 0x44DCC6, size: 0x8, addend: 0x0, symName: '__ZN3syn2ty8printing74_$LT$impl$u20$quote..to_tokens..ToTokens$u20$for$u20$syn..ty..Variadic$GT$9to_tokens17h602db0fc51cb75f0E', symObjAddr: 0xB740, symBinAddr: 0xE0C80, symSize: 0xF0 }
  - { offsetInCU: 0x122A, offset: 0x44DF71, size: 0x8, addend: 0x0, symName: '__ZN3syn2ty7parsing64_$LT$impl$u20$syn..parse..Parse$u20$for$u20$syn..ty..TypePtr$GT$5parse17hef0fb55c13186374E', symObjAddr: 0x8A90, symBinAddr: 0xDF220, symSize: 0x430 }
  - { offsetInCU: 0x1E5C, offset: 0x44EBA3, size: 0x8, addend: 0x0, symName: '__ZN3syn2ty7parsing70_$LT$impl$u20$syn..parse..Parse$u20$for$u20$syn..ty..TypeReference$GT$5parse17h3c90af1f397abba9E', symObjAddr: 0x8EC0, symBinAddr: 0xDF650, symSize: 0x390 }
  - { offsetInCU: 0x247F, offset: 0x44F1C6, size: 0x8, addend: 0x0, symName: '__ZN3syn2ty7parsing65_$LT$impl$u20$syn..parse..Parse$u20$for$u20$syn..ty..TypePath$GT$5parse17h6f2fa59546a9bb19E', symObjAddr: 0x9870, symBinAddr: 0xDF9E0, symSize: 0x6E0 }
  - { offsetInCU: 0x33F2, offset: 0x450139, size: 0x8, addend: 0x0, symName: '__ZN3syn2ty7parsing72_$LT$impl$u20$syn..parse..Parse$u20$for$u20$syn..ty..TypeTraitObject$GT$5parse17h8d2459023d47504fE', symObjAddr: 0xA140, symBinAddr: 0xE0270, symSize: 0x170 }
  - { offsetInCU: 0x3966, offset: 0x4506AD, size: 0x8, addend: 0x0, symName: '__ZN3syn2ty7parsing66_$LT$impl$u20$syn..parse..Parse$u20$for$u20$syn..ty..TypeGroup$GT$5parse17hc50e3255a8ef2de6E', symObjAddr: 0xA8C0, symBinAddr: 0xE0840, symSize: 0x220 }
  - { offsetInCU: 0x3E9C, offset: 0x450BE3, size: 0x8, addend: 0x0, symName: '__ZN60_$LT$syn..ty..Type$u20$as$u20$quote..to_tokens..ToTokens$GT$9to_tokens17h2c655419af4841c7E', symObjAddr: 0xB8D0, symBinAddr: 0xE0D70, symSize: 0x560 }
  - { offsetInCU: 0x6AF0, offset: 0x453837, size: 0x8, addend: 0x0, symName: '__ZN77_$LT$$RF$$u5b$syn..attr..Attribute$u5d$$u20$as$u20$syn..attr..FilterAttrs$GT$5outer8is_outer17ha84f9abf7d7fa408E.llvm.17741849970464361583', symObjAddr: 0x8350, symBinAddr: 0xDF210, symSize: 0x10 }
  - { offsetInCU: 0x9551, offset: 0x456298, size: 0x8, addend: 0x0, symName: '__ZN3syn3gen5clone67_$LT$impl$u20$core..clone..Clone$u20$for$u20$syn..ty..BareFnArg$GT$5clone17h1c2692312dc62665E', symObjAddr: 0xBE60, symBinAddr: 0xE12D0, symSize: 0x130 }
  - { offsetInCU: 0x99A3, offset: 0x4566EA, size: 0x8, addend: 0x0, symName: '__ZN3syn3gen5clone62_$LT$impl$u20$core..clone..Clone$u20$for$u20$syn..ty..Type$GT$5clone17he3f6a02c91d89fc4E', symObjAddr: 0xC040, symBinAddr: 0xE1400, symSize: 0x870 }
  - { offsetInCU: 0xB279, offset: 0x457FC0, size: 0x8, addend: 0x0, symName: '__ZN3syn3gen5clone68_$LT$impl$u20$core..clone..Clone$u20$for$u20$syn..ty..TypeBareFn$GT$5clone17h7002a5899e824f54E', symObjAddr: 0xC9C0, symBinAddr: 0xE1C70, symSize: 0x3E0 }
  - { offsetInCU: 0xE318, offset: 0x45B05F, size: 0x8, addend: 0x0, symName: '__ZN4core3ptr100drop_in_place$LT$core..option..Option$LT$alloc..boxed..Box$LT$syn..generics..LifetimeDef$GT$$GT$$GT$17h75a6086997697dd7E', symObjAddr: 0x190, symBinAddr: 0xD7B00, symSize: 0x150 }
  - { offsetInCU: 0xE894, offset: 0x45B5DB, size: 0x8, addend: 0x0, symName: '__ZN4core3ptr100drop_in_place$LT$core..option..Option$LT$alloc..boxed..Box$LT$syn..path..GenericArgument$GT$$GT$$GT$17h3d29ec00a8f1918dE', symObjAddr: 0x2E0, symBinAddr: 0xD7C50, symSize: 0x50 }
  - { offsetInCU: 0xEA61, offset: 0x45B7A8, size: 0x8, addend: 0x0, symName: '__ZN4core3ptr103drop_in_place$LT$core..option..Option$LT$alloc..boxed..Box$LT$syn..generics..TypeParamBound$GT$$GT$$GT$17h6cee73bc2b2ecea8E', symObjAddr: 0x330, symBinAddr: 0xD7CA0, symSize: 0x90 }
  - { offsetInCU: 0xEDD6, offset: 0x45BB1D, size: 0x8, addend: 0x0, symName: '__ZN4core3ptr103drop_in_place$LT$syn..punctuated..Punctuated$LT$syn..generics..TypeParamBound$C$syn..token..Add$GT$$GT$17he811d520c92af08aE', symObjAddr: 0x3C0, symBinAddr: 0xD7D30, symSize: 0x1C0 }
  - { offsetInCU: 0xF627, offset: 0x45C36E, size: 0x8, addend: 0x0, symName: '__ZN4core3ptr108drop_in_place$LT$syn..punctuated..Punctuated$LT$syn..expr..GenericMethodArgument$C$syn..token..Comma$GT$$GT$17h92cbabe4862b2183E', symObjAddr: 0x580, symBinAddr: 0xD7EF0, symSize: 0x150 }
  - { offsetInCU: 0xFB80, offset: 0x45C8C7, size: 0x8, addend: 0x0, symName: '__ZN4core3ptr34drop_in_place$LT$syn..lit..Lit$GT$17hbe1efe749a08dd9aE', symObjAddr: 0x6D0, symBinAddr: 0xD8040, symSize: 0x110 }
  - { offsetInCU: 0xFFF2, offset: 0x45CD39, size: 0x8, addend: 0x0, symName: '__ZN4core3ptr34drop_in_place$LT$syn..pat..Pat$GT$17h3201f642e43ac2a2E', symObjAddr: 0x7E0, symBinAddr: 0xD8150, symSize: 0x1190 }
  - { offsetInCU: 0x13D58, offset: 0x460A9F, size: 0x8, addend: 0x0, symName: '__ZN4core3ptr34drop_in_place$LT$syn..ty..Type$GT$17hfb5d159a08190130E.llvm.17741849970464361583', symObjAddr: 0x1970, symBinAddr: 0xD92E0, symSize: 0x360 }
  - { offsetInCU: 0x14CCD, offset: 0x461A14, size: 0x8, addend: 0x0, symName: '__ZN4core3ptr36drop_in_place$LT$syn..expr..Expr$GT$17hf1921d1b09462bc3E', symObjAddr: 0x1CD0, symBinAddr: 0xD9640, symSize: 0x3290 }
  - { offsetInCU: 0x1F55E, offset: 0x46C2A5, size: 0x8, addend: 0x0, symName: '__ZN4core3ptr36drop_in_place$LT$syn..mac..Macro$GT$17h205613d7ad575f72E', symObjAddr: 0x4F60, symBinAddr: 0xDC8D0, symSize: 0x40 }
  - { offsetInCU: 0x1F6CE, offset: 0x46C415, size: 0x8, addend: 0x0, symName: '__ZN4core3ptr36drop_in_place$LT$syn..path..Path$GT$17he6d0bec66d66b98aE', symObjAddr: 0x4FA0, symBinAddr: 0xDC910, symSize: 0x260 }
  - { offsetInCU: 0x201F6, offset: 0x46CF3D, size: 0x8, addend: 0x0, symName: '__ZN4core3ptr37drop_in_place$LT$syn..stmt..Block$GT$17h3aa429e75a234230E', symObjAddr: 0x5200, symBinAddr: 0xDCB70, symSize: 0xD0 }
  - { offsetInCU: 0x204CD, offset: 0x46D214, size: 0x8, addend: 0x0, symName: '__ZN4core3ptr38drop_in_place$LT$syn..expr..Member$GT$17ha113d37a67d27aafE', symObjAddr: 0x5320, symBinAddr: 0xDCC40, symSize: 0x30 }
  - { offsetInCU: 0x20664, offset: 0x46D3AB, size: 0x8, addend: 0x0, symName: '__ZN4core3ptr38drop_in_place$LT$syn..group..Group$GT$17h0fddc99b7dc4ab91E.llvm.17741849970464361583', symObjAddr: 0x5350, symBinAddr: 0xDCC70, symSize: 0x70 }
  - { offsetInCU: 0x2095C, offset: 0x46D6A3, size: 0x8, addend: 0x0, symName: '__ZN4core3ptr39drop_in_place$LT$proc_macro2..Ident$GT$17hdeec010483268a0dE', symObjAddr: 0x5430, symBinAddr: 0xDCCE0, symSize: 0x30 }
  - { offsetInCU: 0x20A39, offset: 0x46D780, size: 0x8, addend: 0x0, symName: '__ZN4core3ptr39drop_in_place$LT$syn..pat..PatTuple$GT$17h96faeea9832d4c4bE', symObjAddr: 0x5460, symBinAddr: 0xDCD10, symSize: 0x100 }
  - { offsetInCU: 0x20D80, offset: 0x46DAC7, size: 0x8, addend: 0x0, symName: '__ZN4core3ptr39drop_in_place$LT$syn..ty..BareFnArg$GT$17hed52ce54f3b53a34E', symObjAddr: 0x5560, symBinAddr: 0xDCE10, symSize: 0x140 }
  - { offsetInCU: 0x211B0, offset: 0x46DEF7, size: 0x8, addend: 0x0, symName: '__ZN4core3ptr40drop_in_place$LT$syn..ty..ReturnType$GT$17h6f97c9fdb958983eE', symObjAddr: 0x57B0, symBinAddr: 0xDCF50, symSize: 0x50 }
  - { offsetInCU: 0x214B3, offset: 0x46E1FA, size: 0x8, addend: 0x0, symName: '__ZN4core3ptr40drop_in_place$LT$syn..ty..TypeBareFn$GT$17h1010a3edced8ab67E', symObjAddr: 0x5800, symBinAddr: 0xDCFA0, symSize: 0x2F0 }
  - { offsetInCU: 0x2213A, offset: 0x46EE81, size: 0x8, addend: 0x0, symName: '__ZN4core3ptr44drop_in_place$LT$syn..lifetime..Lifetime$GT$17h3858225df033648aE', symObjAddr: 0x5B80, symBinAddr: 0xDD290, symSize: 0x30 }
  - { offsetInCU: 0x2236C, offset: 0x46F0B3, size: 0x8, addend: 0x0, symName: '__ZN4core3ptr45drop_in_place$LT$proc_macro2..TokenStream$GT$17h2507cb30e765dc85E.llvm.17741849970464361583', symObjAddr: 0x5C20, symBinAddr: 0xDD2C0, symSize: 0x140 }
  - { offsetInCU: 0x227C8, offset: 0x46F50F, size: 0x8, addend: 0x0, symName: '__ZN4core3ptr45drop_in_place$LT$syn..path..PathArguments$GT$17h9dd953520dcdc907E', symObjAddr: 0x5D60, symBinAddr: 0xDD400, symSize: 0x170 }
  - { offsetInCU: 0x22CB3, offset: 0x46F9FA, size: 0x8, addend: 0x0, symName: '__ZN4core3ptr47drop_in_place$LT$syn..path..GenericArgument$GT$17h8c0a0d8c6deaefb4E', symObjAddr: 0x5ED0, symBinAddr: 0xDD570, symSize: 0x110 }
  - { offsetInCU: 0x22FCE, offset: 0x46FD15, size: 0x8, addend: 0x0, symName: '__ZN4core3ptr58drop_in_place$LT$alloc..vec..Vec$LT$syn..expr..Arm$GT$$GT$17hf3db0825f3d9c861E', symObjAddr: 0x5FE0, symBinAddr: 0xDD680, symSize: 0xD0 }
  - { offsetInCU: 0x2328E, offset: 0x46FFD5, size: 0x8, addend: 0x0, symName: '__ZN4core3ptr59drop_in_place$LT$alloc..boxed..Box$LT$syn..pat..Pat$GT$$GT$17h7037ce9bbd3729c6E', symObjAddr: 0x60B0, symBinAddr: 0xDD750, symSize: 0x50 }
  - { offsetInCU: 0x233E7, offset: 0x47012E, size: 0x8, addend: 0x0, symName: '__ZN4core3ptr59drop_in_place$LT$alloc..boxed..Box$LT$syn..ty..Type$GT$$GT$17h2eccd13329dbe4faE', symObjAddr: 0x6100, symBinAddr: 0xDD7A0, symSize: 0x50 }
  - { offsetInCU: 0x23540, offset: 0x470287, size: 0x8, addend: 0x0, symName: '__ZN4core3ptr61drop_in_place$LT$alloc..boxed..Box$LT$syn..expr..Expr$GT$$GT$17h66094ddc89015516E', symObjAddr: 0x6150, symBinAddr: 0xDD7F0, symSize: 0x50 }
  - { offsetInCU: 0x23699, offset: 0x4703E0, size: 0x8, addend: 0x0, symName: '__ZN4core3ptr63drop_in_place$LT$alloc..boxed..Box$LT$syn..lit..LitRepr$GT$$GT$17h9c509b794406150eE', symObjAddr: 0x6210, symBinAddr: 0xDD840, symSize: 0x60 }
  - { offsetInCU: 0x239A0, offset: 0x4706E7, size: 0x8, addend: 0x0, symName: '__ZN4core3ptr64drop_in_place$LT$alloc..boxed..Box$LT$syn..pat..FieldPat$GT$$GT$17hb167b355d0d4733fE', symObjAddr: 0x6270, symBinAddr: 0xDD8A0, symSize: 0x180 }
  - { offsetInCU: 0x2407F, offset: 0x470DC6, size: 0x8, addend: 0x0, symName: '__ZN4core3ptr64drop_in_place$LT$alloc..boxed..Box$LT$syn..ty..BareFnArg$GT$$GT$17h6488be9448346678E', symObjAddr: 0x63F0, symBinAddr: 0xDDA20, symSize: 0x160 }
  - { offsetInCU: 0x24602, offset: 0x471349, size: 0x8, addend: 0x0, symName: '__ZN4core3ptr64drop_in_place$LT$alloc..vec..Vec$LT$syn..attr..Attribute$GT$$GT$17h386324d8ea9bc309E.llvm.17741849970464361583', symObjAddr: 0x6550, symBinAddr: 0xDDB80, symSize: 0xF0 }
  - { offsetInCU: 0x248F8, offset: 0x47163F, size: 0x8, addend: 0x0, symName: '__ZN4core3ptr65drop_in_place$LT$alloc..vec..Vec$LT$proc_macro..TokenTree$GT$$GT$17hc3670dd5608d5259E.llvm.17741849970464361583', symObjAddr: 0x6640, symBinAddr: 0xDDC70, symSize: 0x110 }
  - { offsetInCU: 0x24CF0, offset: 0x471A37, size: 0x8, addend: 0x0, symName: '__ZN4core3ptr65drop_in_place$LT$core..option..Option$LT$syn..expr..Label$GT$$GT$17ha723640fd01bec5dE', symObjAddr: 0x6750, symBinAddr: 0xDDD80, symSize: 0x30 }
  - { offsetInCU: 0x24E2A, offset: 0x471B71, size: 0x8, addend: 0x0, symName: '__ZN4core3ptr65drop_in_place$LT$core..option..Option$LT$syn..path..QSelf$GT$$GT$17h213ca1c3399df9f2E', symObjAddr: 0x67E0, symBinAddr: 0xDDDB0, symSize: 0x50 }
  - { offsetInCU: 0x24FC1, offset: 0x471D08, size: 0x8, addend: 0x0, symName: '__ZN4core3ptr66drop_in_place$LT$core..option..Option$LT$syn..ty..Variadic$GT$$GT$17hc32134bb3933b0dfE', symObjAddr: 0x6830, symBinAddr: 0xDDE00, symSize: 0xF0 }
  - { offsetInCU: 0x252EB, offset: 0x472032, size: 0x8, addend: 0x0, symName: '__ZN4core3ptr67drop_in_place$LT$alloc..boxed..Box$LT$syn..expr..FieldValue$GT$$GT$17h8df780aa600ea8c2E', symObjAddr: 0x6920, symBinAddr: 0xDDEF0, symSize: 0x160 }
  - { offsetInCU: 0x25861, offset: 0x4725A8, size: 0x8, addend: 0x0, symName: '__ZN4core3ptr68drop_in_place$LT$alloc..boxed..Box$LT$syn..path..PathSegment$GT$$GT$17h1957b54eed39c0bbE', symObjAddr: 0x6A80, symBinAddr: 0xDE050, symSize: 0x190 }
  - { offsetInCU: 0x25F8A, offset: 0x472CD1, size: 0x8, addend: 0x0, symName: '__ZN4core3ptr72drop_in_place$LT$alloc..boxed..Box$LT$syn..path..GenericArgument$GT$$GT$17ha8f8136d0c2b505bE', symObjAddr: 0x6C10, symBinAddr: 0xDE1E0, symSize: 0x180 }
  - { offsetInCU: 0x2662A, offset: 0x473371, size: 0x8, addend: 0x0, symName: '__ZN4core3ptr75drop_in_place$LT$alloc..boxed..Box$LT$syn..generics..TypeParamBound$GT$$GT$17h8f156ce07ea0b8b2E', symObjAddr: 0x6D90, symBinAddr: 0xDE360, symSize: 0x140 }
  - { offsetInCU: 0x26B85, offset: 0x4738CC, size: 0x8, addend: 0x0, symName: '__ZN4core3ptr78drop_in_place$LT$alloc..boxed..Box$LT$syn..expr..GenericMethodArgument$GT$$GT$17h3384c00b5bd54c2aE', symObjAddr: 0x6ED0, symBinAddr: 0xDE4A0, symSize: 0x60 }
  - { offsetInCU: 0x26D77, offset: 0x473ABE, size: 0x8, addend: 0x0, symName: '__ZN4core3ptr78drop_in_place$LT$core..option..Option$LT$syn..generics..BoundLifetimes$GT$$GT$17h8175e66ad0c4a156E', symObjAddr: 0x6F30, symBinAddr: 0xDE500, symSize: 0xE0 }
  - { offsetInCU: 0x270F4, offset: 0x473E3B, size: 0x8, addend: 0x0, symName: '__ZN4core3ptr86drop_in_place$LT$syn..punctuated..Punctuated$LT$syn..pat..Pat$C$syn..token..Or$GT$$GT$17h1078c5d178d382b7E', symObjAddr: 0x7010, symBinAddr: 0xDE5E0, symSize: 0x120 }
  - { offsetInCU: 0x2756F, offset: 0x4742B6, size: 0x8, addend: 0x0, symName: '__ZN4core3ptr87drop_in_place$LT$core..option..Option$LT$alloc..boxed..Box$LT$syn..pat..Pat$GT$$GT$$GT$17ha7f5fe0e6f73e820E', symObjAddr: 0x7130, symBinAddr: 0xDE700, symSize: 0x50 }
  - { offsetInCU: 0x276DF, offset: 0x474426, size: 0x8, addend: 0x0, symName: '__ZN4core3ptr89drop_in_place$LT$core..option..Option$LT$alloc..boxed..Box$LT$syn..expr..Expr$GT$$GT$$GT$17hdc211ccd33f196f2E', symObjAddr: 0x7180, symBinAddr: 0xDE750, symSize: 0x50 }
  - { offsetInCU: 0x2788D, offset: 0x4745D4, size: 0x8, addend: 0x0, symName: '__ZN4core3ptr89drop_in_place$LT$syn..punctuated..Punctuated$LT$syn..pat..Pat$C$syn..token..Comma$GT$$GT$17hf8371102b0500adcE', symObjAddr: 0x71D0, symBinAddr: 0xDE7A0, symSize: 0x120 }
  - { offsetInCU: 0x27D7C, offset: 0x474AC3, size: 0x8, addend: 0x0, symName: '__ZN4core3ptr89drop_in_place$LT$syn..punctuated..Punctuated$LT$syn..ty..Type$C$syn..token..Comma$GT$$GT$17h1c6e43341fabea97E', symObjAddr: 0x72F0, symBinAddr: 0xDE8C0, symSize: 0x120 }
  - { offsetInCU: 0x28248, offset: 0x474F8F, size: 0x8, addend: 0x0, symName: '__ZN4core3ptr91drop_in_place$LT$syn..punctuated..Punctuated$LT$syn..expr..Expr$C$syn..token..Comma$GT$$GT$17hd2dfeb0c522d9a18E', symObjAddr: 0x7410, symBinAddr: 0xDE9E0, symSize: 0x120 }
  - { offsetInCU: 0x286D6, offset: 0x47541D, size: 0x8, addend: 0x0, symName: '__ZN4core3ptr92drop_in_place$LT$core..option..Option$LT$alloc..boxed..Box$LT$syn..ty..BareFnArg$GT$$GT$$GT$17h2b57ab7ac835f762E', symObjAddr: 0x7530, symBinAddr: 0xDEB00, symSize: 0x50 }
  - { offsetInCU: 0x28846, offset: 0x47558D, size: 0x8, addend: 0x0, symName: '__ZN4core3ptr94drop_in_place$LT$syn..punctuated..Punctuated$LT$syn..pat..FieldPat$C$syn..token..Comma$GT$$GT$17h612cbc9066d5afb1E', symObjAddr: 0x7580, symBinAddr: 0xDEB50, symSize: 0xF0 }
  - { offsetInCU: 0x28B45, offset: 0x47588C, size: 0x8, addend: 0x0, symName: '__ZN4core3ptr94drop_in_place$LT$syn..punctuated..Punctuated$LT$syn..ty..BareFnArg$C$syn..token..Comma$GT$$GT$17ha9a668ce9972795bE', symObjAddr: 0x7670, symBinAddr: 0xDEC40, symSize: 0xF0 }
  - { offsetInCU: 0x28E42, offset: 0x475B89, size: 0x8, addend: 0x0, symName: '__ZN4core3ptr95drop_in_place$LT$core..option..Option$LT$$LP$proc_macro2..Ident$C$syn..token..Colon$RP$$GT$$GT$17h7314df562090eafdE.llvm.17741849970464361583', symObjAddr: 0x7760, symBinAddr: 0xDED30, symSize: 0x30 }
  - { offsetInCU: 0x28F5D, offset: 0x475CA4, size: 0x8, addend: 0x0, symName: '__ZN4core3ptr96drop_in_place$LT$core..option..Option$LT$alloc..boxed..Box$LT$syn..path..PathSegment$GT$$GT$$GT$17h2e81cbe3c70bb71cE', symObjAddr: 0x7790, symBinAddr: 0xDED60, symSize: 0x1B0 }
  - { offsetInCU: 0x297AC, offset: 0x4764F3, size: 0x8, addend: 0x0, symName: '__ZN4core3ptr97drop_in_place$LT$syn..punctuated..Punctuated$LT$syn..expr..FieldValue$C$syn..token..Comma$GT$$GT$17h11a5fffb46adfb11E', symObjAddr: 0x7940, symBinAddr: 0xDEF10, symSize: 0xF0 }
  - { offsetInCU: 0x29B25, offset: 0x47686C, size: 0x8, addend: 0x0, symName: '__ZN4core3ptr97drop_in_place$LT$syn..punctuated..Punctuated$LT$syn..lifetime..Lifetime$C$syn..token..Add$GT$$GT$17h5c54dea2c838d109E', symObjAddr: 0x7A30, symBinAddr: 0xDF000, symSize: 0xD0 }
  - { offsetInCU: 0x29F99, offset: 0x476CE0, size: 0x8, addend: 0x0, symName: '__ZN4core3ptr99drop_in_place$LT$syn..punctuated..Punctuated$LT$syn..path..PathSegment$C$syn..token..Colon2$GT$$GT$17hb961e4d7989a33ceE', symObjAddr: 0x7B00, symBinAddr: 0xDF0D0, symSize: 0x140 }
  - { offsetInCU: 0x3237C, offset: 0x47F0C3, size: 0x8, addend: 0x0, symName: '__ZN3syn2ty7parsing37_$LT$impl$u20$syn..ty..ReturnType$GT$5parse17hdab9ab74dcb18a9dE.llvm.17741849970464361583', symObjAddr: 0x9F70, symBinAddr: 0xE00C0, symSize: 0x1B0 }
  - { offsetInCU: 0x3287A, offset: 0x47F5C1, size: 0x8, addend: 0x0, symName: '__ZN3syn2ty7parsing42_$LT$impl$u20$syn..ty..TypeTraitObject$GT$12parse_bounds17h8ca5731c28835e0dE', symObjAddr: 0xA420, symBinAddr: 0xE03E0, symSize: 0x200 }
  - { offsetInCU: 0x32E30, offset: 0x47FB77, size: 0x8, addend: 0x0, symName: '__ZN3syn2ty7parsing40_$LT$impl$u20$syn..ty..TypeImplTrait$GT$5parse17h544f3b1c82318627E', symObjAddr: 0xA660, symBinAddr: 0xE05E0, symSize: 0x260 }
  - { offsetInCU: 0x23EA, offset: 0x48823E, size: 0x8, addend: 0x0, symName: '__ZN77_$LT$$RF$$u5b$syn..attr..Attribute$u5d$$u20$as$u20$syn..attr..FilterAttrs$GT$5outer8is_outer17ha84f9abf7d7fa408E.llvm.5972456844166134669', symObjAddr: 0x8AF0, symBinAddr: 0xE9690, symSize: 0x10 }
  - { offsetInCU: 0x3829, offset: 0x48967D, size: 0x8, addend: 0x0, symName: '__ZN3syn3pat8printing75_$LT$impl$u20$quote..to_tokens..ToTokens$u20$for$u20$syn..pat..PatIdent$GT$9to_tokens17h55aee6efd36f4a0dE', symObjAddr: 0x9D90, symBinAddr: 0xEA7F0, symSize: 0x200 }
  - { offsetInCU: 0x3E6F, offset: 0x489CC3, size: 0x8, addend: 0x0, symName: '__ZN3syn3pat8printing74_$LT$impl$u20$quote..to_tokens..ToTokens$u20$for$u20$syn..pat..PatType$GT$9to_tokens17h6ec4b08e3c7074d0E', symObjAddr: 0xA280, symBinAddr: 0xEA9F0, symSize: 0x100 }
  - { offsetInCU: 0x42E9, offset: 0x48A13D, size: 0x8, addend: 0x0, symName: '__ZN3syn3pat7parsing61_$LT$impl$u20$syn..parse..Parse$u20$for$u20$syn..pat..Pat$GT$5parse17h00d83816bfe2b60bE', symObjAddr: 0x8B00, symBinAddr: 0xE96A0, symSize: 0x1150 }
  - { offsetInCU: 0x9985, offset: 0x48F7D9, size: 0x8, addend: 0x0, symName: '__ZN60_$LT$syn..pat..Pat$u20$as$u20$quote..to_tokens..ToTokens$GT$9to_tokens17hdecd0772527fa157E', symObjAddr: 0xAF30, symBinAddr: 0xEAAF0, symSize: 0xF50 }
  - { offsetInCU: 0xD95E, offset: 0x4937B2, size: 0x8, addend: 0x0, symName: '__ZN3syn3gen5clone67_$LT$impl$u20$core..clone..Clone$u20$for$u20$syn..pat..FieldPat$GT$5clone17ha7bb360920a258c2E', symObjAddr: 0xBE80, symBinAddr: 0xEBA40, symSize: 0x180 }
  - { offsetInCU: 0xDF47, offset: 0x493D9B, size: 0x8, addend: 0x0, symName: '__ZN3syn3gen5clone66_$LT$impl$u20$core..clone..Clone$u20$for$u20$syn..pat..PatType$GT$5clone17haca043f7fca6f73aE', symObjAddr: 0xD840, symBinAddr: 0xECF40, symSize: 0x170 }
  - { offsetInCU: 0xE3D8, offset: 0x49422C, size: 0x8, addend: 0x0, symName: '__ZN3syn3gen5clone62_$LT$impl$u20$core..clone..Clone$u20$for$u20$syn..pat..Pat$GT$5clone17h2c8337b388f09352E', symObjAddr: 0xC000, symBinAddr: 0xEBBC0, symSize: 0xA90 }
  - { offsetInCU: 0xFB64, offset: 0x4959B8, size: 0x8, addend: 0x0, symName: '__ZN3syn3gen5clone67_$LT$impl$u20$core..clone..Clone$u20$for$u20$syn..pat..PatIdent$GT$5clone17hdf62d7b536629cd2E', symObjAddr: 0xCB70, symBinAddr: 0xEC650, symSize: 0x1A0 }
  - { offsetInCU: 0xFFF1, offset: 0x495E45, size: 0x8, addend: 0x0, symName: '__ZN3syn3gen5clone66_$LT$impl$u20$core..clone..Clone$u20$for$u20$syn..pat..PatPath$GT$5clone17h71a9bc7ac1757f8cE', symObjAddr: 0xCF20, symBinAddr: 0xEC7F0, symSize: 0x1B0 }
  - { offsetInCU: 0x1035E, offset: 0x4961B2, size: 0x8, addend: 0x0, symName: '__ZN3syn3gen5clone67_$LT$impl$u20$core..clone..Clone$u20$for$u20$syn..pat..PatRange$GT$5clone17ha1f679345e2631edE', symObjAddr: 0xD0D0, symBinAddr: 0xEC9A0, symSize: 0x180 }
  - { offsetInCU: 0x107D9, offset: 0x49662D, size: 0x8, addend: 0x0, symName: '__ZN3syn3gen5clone68_$LT$impl$u20$core..clone..Clone$u20$for$u20$syn..pat..PatStruct$GT$5clone17h1e9b775403ba6afcE', symObjAddr: 0xD420, symBinAddr: 0xECB20, symSize: 0x1F0 }
  - { offsetInCU: 0x10B13, offset: 0x496967, size: 0x8, addend: 0x0, symName: '__ZN3syn3gen5clone73_$LT$impl$u20$core..clone..Clone$u20$for$u20$syn..pat..PatTupleStruct$GT$5clone17h08e3cd449581fccbE', symObjAddr: 0xD610, symBinAddr: 0xECD10, symSize: 0x230 }
  - { offsetInCU: 0x12E1F, offset: 0x498C73, size: 0x8, addend: 0x0, symName: '__ZN4core3ptr100drop_in_place$LT$core..option..Option$LT$alloc..boxed..Box$LT$syn..generics..LifetimeDef$GT$$GT$$GT$17h75a6086997697dd7E', symObjAddr: 0xA0, symBinAddr: 0xE2050, symSize: 0x150 }
  - { offsetInCU: 0x1339B, offset: 0x4991EF, size: 0x8, addend: 0x0, symName: '__ZN4core3ptr100drop_in_place$LT$core..option..Option$LT$alloc..boxed..Box$LT$syn..path..GenericArgument$GT$$GT$$GT$17h3d29ec00a8f1918dE', symObjAddr: 0x1F0, symBinAddr: 0xE21A0, symSize: 0x50 }
  - { offsetInCU: 0x13568, offset: 0x4993BC, size: 0x8, addend: 0x0, symName: '__ZN4core3ptr103drop_in_place$LT$core..option..Option$LT$alloc..boxed..Box$LT$syn..generics..TypeParamBound$GT$$GT$$GT$17h6cee73bc2b2ecea8E', symObjAddr: 0x240, symBinAddr: 0xE21F0, symSize: 0x90 }
  - { offsetInCU: 0x138DD, offset: 0x499731, size: 0x8, addend: 0x0, symName: '__ZN4core3ptr103drop_in_place$LT$syn..punctuated..Punctuated$LT$syn..generics..TypeParamBound$C$syn..token..Add$GT$$GT$17he811d520c92af08aE', symObjAddr: 0x2D0, symBinAddr: 0xE2280, symSize: 0x1C0 }
  - { offsetInCU: 0x1412E, offset: 0x499F82, size: 0x8, addend: 0x0, symName: '__ZN4core3ptr108drop_in_place$LT$syn..punctuated..Punctuated$LT$syn..expr..GenericMethodArgument$C$syn..token..Comma$GT$$GT$17h92cbabe4862b2183E', symObjAddr: 0x490, symBinAddr: 0xE2440, symSize: 0x150 }
  - { offsetInCU: 0x146C5, offset: 0x49A519, size: 0x8, addend: 0x0, symName: '__ZN4core3ptr34drop_in_place$LT$syn..lit..Lit$GT$17hbe1efe749a08dd9aE', symObjAddr: 0x630, symBinAddr: 0xE2590, symSize: 0x110 }
  - { offsetInCU: 0x14AF9, offset: 0x49A94D, size: 0x8, addend: 0x0, symName: '__ZN4core3ptr34drop_in_place$LT$syn..pat..Pat$GT$17h3201f642e43ac2a2E.llvm.5972456844166134669', symObjAddr: 0x740, symBinAddr: 0xE26A0, symSize: 0x1180 }
  - { offsetInCU: 0x189D1, offset: 0x49E825, size: 0x8, addend: 0x0, symName: '__ZN4core3ptr34drop_in_place$LT$syn..ty..Type$GT$17hfb5d159a08190130E', symObjAddr: 0x18C0, symBinAddr: 0xE3820, symSize: 0x580 }
  - { offsetInCU: 0x1A2E2, offset: 0x4A0136, size: 0x8, addend: 0x0, symName: '__ZN4core3ptr36drop_in_place$LT$syn..expr..Expr$GT$17hf1921d1b09462bc3E', symObjAddr: 0x1E40, symBinAddr: 0xE3DA0, symSize: 0x32B0 }
  - { offsetInCU: 0x24C66, offset: 0x4AAABA, size: 0x8, addend: 0x0, symName: '__ZN4core3ptr36drop_in_place$LT$syn..mac..Macro$GT$17h205613d7ad575f72E', symObjAddr: 0x50F0, symBinAddr: 0xE7050, symSize: 0x40 }
  - { offsetInCU: 0x24DB7, offset: 0x4AAC0B, size: 0x8, addend: 0x0, symName: '__ZN4core3ptr36drop_in_place$LT$syn..path..Path$GT$17he6d0bec66d66b98aE', symObjAddr: 0x5230, symBinAddr: 0xE7090, symSize: 0x230 }
  - { offsetInCU: 0x2574D, offset: 0x4AB5A1, size: 0x8, addend: 0x0, symName: '__ZN4core3ptr37drop_in_place$LT$syn..stmt..Block$GT$17h3aa429e75a234230E', symObjAddr: 0x56C0, symBinAddr: 0xE72C0, symSize: 0xD0 }
  - { offsetInCU: 0x25A24, offset: 0x4AB878, size: 0x8, addend: 0x0, symName: '__ZN4core3ptr38drop_in_place$LT$syn..expr..Member$GT$17ha113d37a67d27aafE.llvm.5972456844166134669', symObjAddr: 0x5790, symBinAddr: 0xE7390, symSize: 0x30 }
  - { offsetInCU: 0x25B20, offset: 0x4AB974, size: 0x8, addend: 0x0, symName: '__ZN4core3ptr39drop_in_place$LT$proc_macro2..Ident$GT$17hdeec010483268a0dE', symObjAddr: 0x5B50, symBinAddr: 0xE73C0, symSize: 0x30 }
  - { offsetInCU: 0x25BFD, offset: 0x4ABA51, size: 0x8, addend: 0x0, symName: '__ZN4core3ptr39drop_in_place$LT$syn..pat..PatSlice$GT$17h8e69deb461f13c8dE', symObjAddr: 0x5F50, symBinAddr: 0xE73F0, symSize: 0x100 }
  - { offsetInCU: 0x25F06, offset: 0x4ABD5A, size: 0x8, addend: 0x0, symName: '__ZN4core3ptr40drop_in_place$LT$syn..ty..ReturnType$GT$17h6f97c9fdb958983eE', symObjAddr: 0x6160, symBinAddr: 0xE74F0, symSize: 0x50 }
  - { offsetInCU: 0x26076, offset: 0x4ABECA, size: 0x8, addend: 0x0, symName: '__ZN4core3ptr44drop_in_place$LT$syn..lifetime..Lifetime$GT$17h3858225df033648aE', symObjAddr: 0x62E0, symBinAddr: 0xE7540, symSize: 0x30 }
  - { offsetInCU: 0x261EE, offset: 0x4AC042, size: 0x8, addend: 0x0, symName: '__ZN4core3ptr44drop_in_place$LT$syn..parse..ParseBuffer$GT$17h19c266fcccc430cbE', symObjAddr: 0x6310, symBinAddr: 0xE7570, symSize: 0x70 }
  - { offsetInCU: 0x26605, offset: 0x4AC459, size: 0x8, addend: 0x0, symName: '__ZN4core3ptr45drop_in_place$LT$proc_macro2..TokenStream$GT$17h2507cb30e765dc85E', symObjAddr: 0x6380, symBinAddr: 0xE75E0, symSize: 0x140 }
  - { offsetInCU: 0x26A9F, offset: 0x4AC8F3, size: 0x8, addend: 0x0, symName: '__ZN4core3ptr47drop_in_place$LT$syn..path..GenericArgument$GT$17h8c0a0d8c6deaefb4E', symObjAddr: 0x66A0, symBinAddr: 0xE7720, symSize: 0x110 }
  - { offsetInCU: 0x26DBA, offset: 0x4ACC0E, size: 0x8, addend: 0x0, symName: '__ZN4core3ptr58drop_in_place$LT$alloc..vec..Vec$LT$syn..expr..Arm$GT$$GT$17hf3db0825f3d9c861E', symObjAddr: 0x67B0, symBinAddr: 0xE7830, symSize: 0xD0 }
  - { offsetInCU: 0x2707A, offset: 0x4ACECE, size: 0x8, addend: 0x0, symName: '__ZN4core3ptr59drop_in_place$LT$alloc..boxed..Box$LT$syn..pat..Pat$GT$$GT$17h7037ce9bbd3729c6E.llvm.5972456844166134669', symObjAddr: 0x6880, symBinAddr: 0xE7900, symSize: 0x50 }
  - { offsetInCU: 0x271D3, offset: 0x4AD027, size: 0x8, addend: 0x0, symName: '__ZN4core3ptr59drop_in_place$LT$alloc..boxed..Box$LT$syn..ty..Type$GT$$GT$17h2eccd13329dbe4faE', symObjAddr: 0x68D0, symBinAddr: 0xE7950, symSize: 0x50 }
  - { offsetInCU: 0x2732C, offset: 0x4AD180, size: 0x8, addend: 0x0, symName: '__ZN4core3ptr61drop_in_place$LT$alloc..boxed..Box$LT$syn..expr..Expr$GT$$GT$17h66094ddc89015516E', symObjAddr: 0x6920, symBinAddr: 0xE79A0, symSize: 0x50 }
  - { offsetInCU: 0x27501, offset: 0x4AD355, size: 0x8, addend: 0x0, symName: '__ZN4core3ptr61drop_in_place$LT$syn..path..ParenthesizedGenericArguments$GT$17h21be9b1d7a6fab55E', symObjAddr: 0x6970, symBinAddr: 0xE79F0, symSize: 0x170 }
  - { offsetInCU: 0x27AF7, offset: 0x4AD94B, size: 0x8, addend: 0x0, symName: '__ZN4core3ptr63drop_in_place$LT$alloc..boxed..Box$LT$syn..lit..LitRepr$GT$$GT$17h9c509b794406150eE', symObjAddr: 0x6AE0, symBinAddr: 0xE7B60, symSize: 0x60 }
  - { offsetInCU: 0x27DFE, offset: 0x4ADC52, size: 0x8, addend: 0x0, symName: '__ZN4core3ptr64drop_in_place$LT$alloc..boxed..Box$LT$syn..pat..FieldPat$GT$$GT$17hb167b355d0d4733fE', symObjAddr: 0x6B40, symBinAddr: 0xE7BC0, symSize: 0x180 }
  - { offsetInCU: 0x2851B, offset: 0x4AE36F, size: 0x8, addend: 0x0, symName: '__ZN4core3ptr64drop_in_place$LT$alloc..boxed..Box$LT$syn..ty..BareFnArg$GT$$GT$17h6488be9448346678E', symObjAddr: 0x6CC0, symBinAddr: 0xE7D40, symSize: 0x160 }
  - { offsetInCU: 0x28AB1, offset: 0x4AE905, size: 0x8, addend: 0x0, symName: '__ZN4core3ptr64drop_in_place$LT$alloc..vec..Vec$LT$syn..attr..Attribute$GT$$GT$17h386324d8ea9bc309E.llvm.5972456844166134669', symObjAddr: 0x6E20, symBinAddr: 0xE7EA0, symSize: 0xF0 }
  - { offsetInCU: 0x28DA7, offset: 0x4AEBFB, size: 0x8, addend: 0x0, symName: '__ZN4core3ptr65drop_in_place$LT$alloc..vec..Vec$LT$proc_macro..TokenTree$GT$$GT$17hc3670dd5608d5259E', symObjAddr: 0x6F10, symBinAddr: 0xE7F90, symSize: 0x110 }
  - { offsetInCU: 0x2919F, offset: 0x4AEFF3, size: 0x8, addend: 0x0, symName: '__ZN4core3ptr65drop_in_place$LT$core..option..Option$LT$syn..expr..Label$GT$$GT$17ha723640fd01bec5dE', symObjAddr: 0x7020, symBinAddr: 0xE80A0, symSize: 0x30 }
  - { offsetInCU: 0x292D9, offset: 0x4AF12D, size: 0x8, addend: 0x0, symName: '__ZN4core3ptr65drop_in_place$LT$core..option..Option$LT$syn..path..QSelf$GT$$GT$17h213ca1c3399df9f2E', symObjAddr: 0x7050, symBinAddr: 0xE80D0, symSize: 0x50 }
  - { offsetInCU: 0x29470, offset: 0x4AF2C4, size: 0x8, addend: 0x0, symName: '__ZN4core3ptr66drop_in_place$LT$core..option..Option$LT$syn..ty..Variadic$GT$$GT$17hc32134bb3933b0dfE', symObjAddr: 0x70A0, symBinAddr: 0xE8120, symSize: 0xF0 }
  - { offsetInCU: 0x2979A, offset: 0x4AF5EE, size: 0x8, addend: 0x0, symName: '__ZN4core3ptr67drop_in_place$LT$alloc..boxed..Box$LT$syn..expr..FieldValue$GT$$GT$17h8df780aa600ea8c2E', symObjAddr: 0x7190, symBinAddr: 0xE8210, symSize: 0x160 }
  - { offsetInCU: 0x29D2F, offset: 0x4AFB83, size: 0x8, addend: 0x0, symName: '__ZN4core3ptr68drop_in_place$LT$alloc..boxed..Box$LT$syn..path..PathSegment$GT$$GT$17h1957b54eed39c0bbE', symObjAddr: 0x72F0, symBinAddr: 0xE8370, symSize: 0x190 }
  - { offsetInCU: 0x2A458, offset: 0x4B02AC, size: 0x8, addend: 0x0, symName: '__ZN4core3ptr72drop_in_place$LT$alloc..boxed..Box$LT$syn..path..GenericArgument$GT$$GT$17ha8f8136d0c2b505bE', symObjAddr: 0x7480, symBinAddr: 0xE8500, symSize: 0x180 }
  - { offsetInCU: 0x2AAF8, offset: 0x4B094C, size: 0x8, addend: 0x0, symName: '__ZN4core3ptr72drop_in_place$LT$core..option..Option$LT$syn..lifetime..Lifetime$GT$$GT$17h31b55b93749c174dE', symObjAddr: 0x7600, symBinAddr: 0xE8680, symSize: 0x30 }
  - { offsetInCU: 0x2AC13, offset: 0x4B0A67, size: 0x8, addend: 0x0, symName: '__ZN4core3ptr75drop_in_place$LT$alloc..boxed..Box$LT$syn..generics..TypeParamBound$GT$$GT$17h8f156ce07ea0b8b2E', symObjAddr: 0x7630, symBinAddr: 0xE86B0, symSize: 0x140 }
  - { offsetInCU: 0x2B16E, offset: 0x4B0FC2, size: 0x8, addend: 0x0, symName: '__ZN4core3ptr78drop_in_place$LT$alloc..boxed..Box$LT$syn..expr..GenericMethodArgument$GT$$GT$17h3384c00b5bd54c2aE', symObjAddr: 0x7770, symBinAddr: 0xE87F0, symSize: 0x60 }
  - { offsetInCU: 0x2B360, offset: 0x4B11B4, size: 0x8, addend: 0x0, symName: '__ZN4core3ptr78drop_in_place$LT$core..option..Option$LT$syn..generics..BoundLifetimes$GT$$GT$17h8175e66ad0c4a156E', symObjAddr: 0x77D0, symBinAddr: 0xE8850, symSize: 0xE0 }
  - { offsetInCU: 0x2B6DD, offset: 0x4B1531, size: 0x8, addend: 0x0, symName: '__ZN4core3ptr86drop_in_place$LT$syn..punctuated..Punctuated$LT$syn..pat..Pat$C$syn..token..Or$GT$$GT$17h1078c5d178d382b7E', symObjAddr: 0x78B0, symBinAddr: 0xE8930, symSize: 0x120 }
  - { offsetInCU: 0x2BB58, offset: 0x4B19AC, size: 0x8, addend: 0x0, symName: '__ZN4core3ptr87drop_in_place$LT$core..option..Option$LT$alloc..boxed..Box$LT$syn..pat..Pat$GT$$GT$$GT$17ha7f5fe0e6f73e820E', symObjAddr: 0x79D0, symBinAddr: 0xE8A50, symSize: 0x50 }
  - { offsetInCU: 0x2BCC8, offset: 0x4B1B1C, size: 0x8, addend: 0x0, symName: '__ZN4core3ptr87drop_in_place$LT$core..option..Option$LT$alloc..boxed..Box$LT$syn..ty..Type$GT$$GT$$GT$17hc8292da82d129de3E', symObjAddr: 0x7A20, symBinAddr: 0xE8AA0, symSize: 0x50 }
  - { offsetInCU: 0x2BE38, offset: 0x4B1C8C, size: 0x8, addend: 0x0, symName: '__ZN4core3ptr89drop_in_place$LT$core..option..Option$LT$alloc..boxed..Box$LT$syn..expr..Expr$GT$$GT$$GT$17hdc211ccd33f196f2E', symObjAddr: 0x7A70, symBinAddr: 0xE8AF0, symSize: 0x50 }
  - { offsetInCU: 0x2BFE6, offset: 0x4B1E3A, size: 0x8, addend: 0x0, symName: '__ZN4core3ptr89drop_in_place$LT$syn..punctuated..Punctuated$LT$syn..pat..Pat$C$syn..token..Comma$GT$$GT$17hf8371102b0500adcE', symObjAddr: 0x7AC0, symBinAddr: 0xE8B40, symSize: 0x120 }
  - { offsetInCU: 0x2C478, offset: 0x4B22CC, size: 0x8, addend: 0x0, symName: '__ZN4core3ptr89drop_in_place$LT$syn..punctuated..Punctuated$LT$syn..ty..Type$C$syn..token..Comma$GT$$GT$17h1c6e43341fabea97E', symObjAddr: 0x7BE0, symBinAddr: 0xE8C60, symSize: 0x120 }
  - { offsetInCU: 0x2C950, offset: 0x4B27A4, size: 0x8, addend: 0x0, symName: '__ZN4core3ptr91drop_in_place$LT$core..result..Result$LT$syn..expr..RangeLimits$C$syn..error..Error$GT$$GT$17h30583de0c0dd5b5eE', symObjAddr: 0x7D00, symBinAddr: 0xE8D80, symSize: 0x80 }
  - { offsetInCU: 0x2CC5C, offset: 0x4B2AB0, size: 0x8, addend: 0x0, symName: '__ZN4core3ptr91drop_in_place$LT$syn..punctuated..Punctuated$LT$syn..expr..Expr$C$syn..token..Comma$GT$$GT$17hd2dfeb0c522d9a18E', symObjAddr: 0x7D80, symBinAddr: 0xE8E00, symSize: 0x120 }
  - { offsetInCU: 0x2D0EA, offset: 0x4B2F3E, size: 0x8, addend: 0x0, symName: '__ZN4core3ptr94drop_in_place$LT$syn..punctuated..Punctuated$LT$syn..pat..FieldPat$C$syn..token..Comma$GT$$GT$17h612cbc9066d5afb1E', symObjAddr: 0x7EA0, symBinAddr: 0xE8F20, symSize: 0xF0 }
  - { offsetInCU: 0x2D3E9, offset: 0x4B323D, size: 0x8, addend: 0x0, symName: '__ZN4core3ptr94drop_in_place$LT$syn..punctuated..Punctuated$LT$syn..ty..BareFnArg$C$syn..token..Comma$GT$$GT$17ha9a668ce9972795bE', symObjAddr: 0x7F90, symBinAddr: 0xE9010, symSize: 0xF0 }
  - { offsetInCU: 0x2D6E6, offset: 0x4B353A, size: 0x8, addend: 0x0, symName: '__ZN4core3ptr96drop_in_place$LT$core..option..Option$LT$alloc..boxed..Box$LT$syn..path..PathSegment$GT$$GT$$GT$17h2e81cbe3c70bb71cE', symObjAddr: 0x8080, symBinAddr: 0xE9100, symSize: 0x180 }
  - { offsetInCU: 0x2DDA3, offset: 0x4B3BF7, size: 0x8, addend: 0x0, symName: '__ZN4core3ptr97drop_in_place$LT$syn..punctuated..Punctuated$LT$syn..expr..FieldValue$C$syn..token..Comma$GT$$GT$17h11a5fffb46adfb11E', symObjAddr: 0x8200, symBinAddr: 0xE9280, symSize: 0xF0 }
  - { offsetInCU: 0x2E11C, offset: 0x4B3F70, size: 0x8, addend: 0x0, symName: '__ZN4core3ptr97drop_in_place$LT$syn..punctuated..Punctuated$LT$syn..lifetime..Lifetime$C$syn..token..Add$GT$$GT$17h5c54dea2c838d109E', symObjAddr: 0x82F0, symBinAddr: 0xE9370, symSize: 0xD0 }
  - { offsetInCU: 0x2E590, offset: 0x4B43E4, size: 0x8, addend: 0x0, symName: '__ZN4core3ptr99drop_in_place$LT$syn..punctuated..Punctuated$LT$syn..path..PathSegment$C$syn..token..Colon2$GT$$GT$17hb961e4d7989a33ceE', symObjAddr: 0x83C0, symBinAddr: 0xE9440, symSize: 0x250 }
  - { offsetInCU: 0x4A1, offset: 0x4C2608, size: 0x8, addend: 0x0, symName: '__ZN60_$LT$syn..token..Underscore$u20$as$u20$syn..token..Token$GT$4peek17h317380a22d771ac2E', symObjAddr: 0xA60, symBinAddr: 0xED120, symSize: 0x1F0 }
  - { offsetInCU: 0xD57, offset: 0x4C2EBE, size: 0x8, addend: 0x0, symName: '__ZN55_$LT$syn..token..Paren$u20$as$u20$syn..token..Token$GT$4peek17h1176b0ebdf7fbaffE', symObjAddr: 0xC50, symBinAddr: 0xED310, symSize: 0x90 }
  - { offsetInCU: 0xEDD, offset: 0x4C3044, size: 0x8, addend: 0x0, symName: '__ZN55_$LT$syn..token..Brace$u20$as$u20$syn..token..Token$GT$4peek17ha2a9fdfc170453eeE', symObjAddr: 0xCE0, symBinAddr: 0xED3A0, symSize: 0x90 }
  - { offsetInCU: 0x1063, offset: 0x4C31CA, size: 0x8, addend: 0x0, symName: '__ZN57_$LT$syn..token..Bracket$u20$as$u20$syn..token..Token$GT$4peek17hd07fe36d9434f21aE', symObjAddr: 0xD70, symBinAddr: 0xED430, symSize: 0x90 }
  - { offsetInCU: 0x11EE, offset: 0x4C3355, size: 0x8, addend: 0x0, symName: '__ZN61_$LT$syn..lifetime..Lifetime$u20$as$u20$syn..token..Token$GT$4peek4peek17h57048675f5c5e816E', symObjAddr: 0xE50, symBinAddr: 0xED4C0, symSize: 0x120 }
  - { offsetInCU: 0x1679, offset: 0x4C37E0, size: 0x8, addend: 0x0, symName: '__ZN51_$LT$syn..lit..Lit$u20$as$u20$syn..token..Token$GT$4peek4peek17h9e486ca1f0623f23E', symObjAddr: 0xF70, symBinAddr: 0xED5E0, symSize: 0x190 }
  - { offsetInCU: 0x1B01, offset: 0x4C3C68, size: 0x8, addend: 0x0, symName: '__ZN54_$LT$syn..lit..LitStr$u20$as$u20$syn..token..Token$GT$4peek4peek17h9ad1d9e62f20247dE', symObjAddr: 0x1100, symBinAddr: 0xED770, symSize: 0xE0 }
  - { offsetInCU: 0x2093, offset: 0x4C41FA, size: 0x8, addend: 0x0, symName: '__ZN54_$LT$syn..lit..LitInt$u20$as$u20$syn..token..Token$GT$4peek4peek17h588562dc8a95e218E', symObjAddr: 0x1480, symBinAddr: 0xED850, symSize: 0xF0 }
  - { offsetInCU: 0x26B8, offset: 0x4C481F, size: 0x8, addend: 0x0, symName: '__ZN56_$LT$syn..lit..LitFloat$u20$as$u20$syn..token..Token$GT$4peek4peek17he805574610dc5ccaE', symObjAddr: 0x1570, symBinAddr: 0xED940, symSize: 0xF0 }
  - { offsetInCU: 0x2CD8, offset: 0x4C4E3F, size: 0x8, addend: 0x0, symName: '__ZN52_$LT$syn..token..As$u20$as$u20$syn..parse..Parse$GT$5parse17hf7e5fe9d4df66d35E', symObjAddr: 0x19C0, symBinAddr: 0xEDA30, symSize: 0x60 }
  - { offsetInCU: 0x2D5F, offset: 0x4C4EC6, size: 0x8, addend: 0x0, symName: '__ZN55_$LT$syn..token..Async$u20$as$u20$syn..token..Token$GT$4peek17hf28061e6deb47530E', symObjAddr: 0x1B40, symBinAddr: 0xEDA90, symSize: 0x20 }
  - { offsetInCU: 0x2D95, offset: 0x4C4EFC, size: 0x8, addend: 0x0, symName: '__ZN55_$LT$syn..token..Const$u20$as$u20$syn..parse..Parse$GT$5parse17h9cfc851e259773e6E', symObjAddr: 0x21A0, symBinAddr: 0xEDAB0, symSize: 0x60 }
  - { offsetInCU: 0x2E1C, offset: 0x4C4F83, size: 0x8, addend: 0x0, symName: '__ZN55_$LT$syn..token..Const$u20$as$u20$syn..token..Token$GT$4peek17hbda999978db8b1ddE', symObjAddr: 0x2200, symBinAddr: 0xEDB10, symSize: 0x20 }
  - { offsetInCU: 0x2E52, offset: 0x4C4FB9, size: 0x8, addend: 0x0, symName: '__ZN55_$LT$syn..token..Crate$u20$as$u20$syn..token..Token$GT$4peek17h0102053751e9950dE', symObjAddr: 0x2440, symBinAddr: 0xEDB30, symSize: 0x20 }
  - { offsetInCU: 0x2E88, offset: 0x4C4FEF, size: 0x8, addend: 0x0, symName: '__ZN63_$LT$syn..token..Else$u20$as$u20$quote..to_tokens..ToTokens$GT$9to_tokens17h2257515c434df017E', symObjAddr: 0x27E0, symBinAddr: 0xEDB50, symSize: 0x80 }
  - { offsetInCU: 0x2FBE, offset: 0x4C5125, size: 0x8, addend: 0x0, symName: '__ZN54_$LT$syn..token..Else$u20$as$u20$syn..parse..Parse$GT$5parse17h200a2b149f0173abE', symObjAddr: 0x2860, symBinAddr: 0xEDBD0, symSize: 0x60 }
  - { offsetInCU: 0x3045, offset: 0x4C51AC, size: 0x8, addend: 0x0, symName: '__ZN54_$LT$syn..token..Enum$u20$as$u20$syn..token..Token$GT$4peek17hdf067724bfda19f1E', symObjAddr: 0x29E0, symBinAddr: 0xEDC30, symSize: 0x20 }
  - { offsetInCU: 0x307B, offset: 0x4C51E2, size: 0x8, addend: 0x0, symName: '__ZN56_$LT$syn..token..Extern$u20$as$u20$syn..token..Token$GT$4peek17hbc8c8b2eec164cceE', symObjAddr: 0x2B00, symBinAddr: 0xEDC50, symSize: 0x20 }
  - { offsetInCU: 0x30B1, offset: 0x4C5218, size: 0x8, addend: 0x0, symName: '__ZN52_$LT$syn..token..Fn$u20$as$u20$syn..token..Token$GT$4peek17h381f871829dfc359E', symObjAddr: 0x2D40, symBinAddr: 0xEDC70, symSize: 0x20 }
  - { offsetInCU: 0x30E7, offset: 0x4C524E, size: 0x8, addend: 0x0, symName: '__ZN53_$LT$syn..token..For$u20$as$u20$syn..parse..Parse$GT$5parse17he7b20b521a21b84eE', symObjAddr: 0x2E00, symBinAddr: 0xEDC90, symSize: 0x60 }
  - { offsetInCU: 0x316E, offset: 0x4C52D5, size: 0x8, addend: 0x0, symName: '__ZN54_$LT$syn..token..Impl$u20$as$u20$syn..token..Token$GT$4peek17hf980431ae56a44a6E', symObjAddr: 0x30A0, symBinAddr: 0xEDCF0, symSize: 0x20 }
  - { offsetInCU: 0x31A4, offset: 0x4C530B, size: 0x8, addend: 0x0, symName: '__ZN52_$LT$syn..token..In$u20$as$u20$syn..parse..Parse$GT$5parse17h65dbe5bb6b8095e9E', symObjAddr: 0x3160, symBinAddr: 0xEDD10, symSize: 0x60 }
  - { offsetInCU: 0x322B, offset: 0x4C5392, size: 0x8, addend: 0x0, symName: '__ZN55_$LT$syn..token..Macro$u20$as$u20$syn..token..Token$GT$4peek17h87bd4d537cf63922E', symObjAddr: 0x3520, symBinAddr: 0xEDD70, symSize: 0x20 }
  - { offsetInCU: 0x3261, offset: 0x4C53C8, size: 0x8, addend: 0x0, symName: '__ZN53_$LT$syn..token..Mod$u20$as$u20$syn..token..Token$GT$4peek17h900d5a7aa00fc086E', symObjAddr: 0x3760, symBinAddr: 0xEDD90, symSize: 0x20 }
  - { offsetInCU: 0x3297, offset: 0x4C53FE, size: 0x8, addend: 0x0, symName: '__ZN63_$LT$syn..token..Move$u20$as$u20$quote..to_tokens..ToTokens$GT$9to_tokens17hadcab21f454dea95E', symObjAddr: 0x37A0, symBinAddr: 0xEDDB0, symSize: 0x80 }
  - { offsetInCU: 0x33CD, offset: 0x4C5534, size: 0x8, addend: 0x0, symName: '__ZN54_$LT$syn..token..Move$u20$as$u20$syn..token..Token$GT$4peek17hd5bfc120a547f5d8E', symObjAddr: 0x3880, symBinAddr: 0xEDE30, symSize: 0x20 }
  - { offsetInCU: 0x3403, offset: 0x4C556A, size: 0x8, addend: 0x0, symName: '__ZN53_$LT$syn..token..Mut$u20$as$u20$syn..parse..Parse$GT$5parse17h64eb87b20c591c4bE', symObjAddr: 0x3940, symBinAddr: 0xEDE50, symSize: 0x60 }
  - { offsetInCU: 0x348A, offset: 0x4C55F1, size: 0x8, addend: 0x0, symName: '__ZN53_$LT$syn..token..Mut$u20$as$u20$syn..token..Token$GT$4peek17h468e412e57d48e2dE', symObjAddr: 0x39A0, symBinAddr: 0xEDEB0, symSize: 0x20 }
  - { offsetInCU: 0x34C0, offset: 0x4C5627, size: 0x8, addend: 0x0, symName: '__ZN53_$LT$syn..token..Ref$u20$as$u20$syn..token..Token$GT$4peek17hf6a89d3c80970251E', symObjAddr: 0x3E20, symBinAddr: 0xEDED0, symSize: 0x20 }
  - { offsetInCU: 0x34F6, offset: 0x4C565D, size: 0x8, addend: 0x0, symName: '__ZN58_$LT$syn..token..SelfType$u20$as$u20$syn..token..Token$GT$4peek17h48c5b3c68bc4f6ddE', symObjAddr: 0x4060, symBinAddr: 0xEDEF0, symSize: 0x20 }
  - { offsetInCU: 0x352C, offset: 0x4C5693, size: 0x8, addend: 0x0, symName: '__ZN59_$LT$syn..token..SelfValue$u20$as$u20$syn..parse..Parse$GT$5parse17h599ea90be910718cE', symObjAddr: 0x4120, symBinAddr: 0xEDF10, symSize: 0x60 }
  - { offsetInCU: 0x35B3, offset: 0x4C571A, size: 0x8, addend: 0x0, symName: '__ZN59_$LT$syn..token..SelfValue$u20$as$u20$syn..token..Token$GT$4peek17h977c80f8bb7263c6E', symObjAddr: 0x4180, symBinAddr: 0xEDF70, symSize: 0x20 }
  - { offsetInCU: 0x35E9, offset: 0x4C5750, size: 0x8, addend: 0x0, symName: '__ZN56_$LT$syn..token..Static$u20$as$u20$syn..parse..Parse$GT$5parse17hf6715be49cb792c1E', symObjAddr: 0x4240, symBinAddr: 0xEDF90, symSize: 0x60 }
  - { offsetInCU: 0x3670, offset: 0x4C57D7, size: 0x8, addend: 0x0, symName: '__ZN56_$LT$syn..token..Static$u20$as$u20$syn..token..Token$GT$4peek17hc33d10c74e5d2420E', symObjAddr: 0x42A0, symBinAddr: 0xEDFF0, symSize: 0x20 }
  - { offsetInCU: 0x36A6, offset: 0x4C580D, size: 0x8, addend: 0x0, symName: '__ZN56_$LT$syn..token..Struct$u20$as$u20$syn..token..Token$GT$4peek17hc66adbd2d4d075ecE', symObjAddr: 0x43C0, symBinAddr: 0xEE010, symSize: 0x20 }
  - { offsetInCU: 0x36DC, offset: 0x4C5843, size: 0x8, addend: 0x0, symName: '__ZN55_$LT$syn..token..Super$u20$as$u20$syn..token..Token$GT$4peek17hb0faae556d6a701cE', symObjAddr: 0x44E0, symBinAddr: 0xEE030, symSize: 0x20 }
  - { offsetInCU: 0x3712, offset: 0x4C5879, size: 0x8, addend: 0x0, symName: '__ZN55_$LT$syn..token..Trait$u20$as$u20$syn..token..Token$GT$4peek17h18da2eeff7308a98E', symObjAddr: 0x4600, symBinAddr: 0xEE050, symSize: 0x20 }
  - { offsetInCU: 0x3748, offset: 0x4C58AF, size: 0x8, addend: 0x0, symName: '__ZN54_$LT$syn..token..Type$u20$as$u20$syn..token..Token$GT$4peek17h8205f1d24b4cb545E', symObjAddr: 0x4840, symBinAddr: 0xEE070, symSize: 0x20 }
  - { offsetInCU: 0x377E, offset: 0x4C58E5, size: 0x8, addend: 0x0, symName: '__ZN55_$LT$syn..token..Union$u20$as$u20$syn..token..Token$GT$4peek17h966de8b349adc97bE', symObjAddr: 0x4A80, symBinAddr: 0xEE090, symSize: 0x20 }
  - { offsetInCU: 0x37B4, offset: 0x4C591B, size: 0x8, addend: 0x0, symName: '__ZN56_$LT$syn..token..Unsafe$u20$as$u20$syn..parse..Parse$GT$5parse17h484e0b1c0019a7c7E', symObjAddr: 0x4B40, symBinAddr: 0xEE0B0, symSize: 0x60 }
  - { offsetInCU: 0x383B, offset: 0x4C59A2, size: 0x8, addend: 0x0, symName: '__ZN56_$LT$syn..token..Unsafe$u20$as$u20$syn..token..Token$GT$4peek17h9a9808380733e7dcE', symObjAddr: 0x4BA0, symBinAddr: 0xEE110, symSize: 0x20 }
  - { offsetInCU: 0x3871, offset: 0x4C59D8, size: 0x8, addend: 0x0, symName: '__ZN53_$LT$syn..token..Use$u20$as$u20$syn..token..Token$GT$4peek17he04822efc14fd67fE', symObjAddr: 0x4DE0, symBinAddr: 0xEE130, symSize: 0x20 }
  - { offsetInCU: 0x38A7, offset: 0x4C5A0E, size: 0x8, addend: 0x0, symName: '__ZN53_$LT$syn..token..Add$u20$as$u20$syn..parse..Parse$GT$5parse17h1dda5a473e9be607E', symObjAddr: 0x52B0, symBinAddr: 0xEE150, symSize: 0xF0 }
  - { offsetInCU: 0x3C94, offset: 0x4C5DFB, size: 0x8, addend: 0x0, symName: '__ZN55_$LT$syn..token..AddEq$u20$as$u20$syn..parse..Parse$GT$5parse17hd9f523013b43ac1cE', symObjAddr: 0x53F0, symBinAddr: 0xEE240, symSize: 0xF0 }
  - { offsetInCU: 0x40E3, offset: 0x4C624A, size: 0x8, addend: 0x0, symName: '__ZN53_$LT$syn..token..And$u20$as$u20$syn..parse..Parse$GT$5parse17h55f93cc54c8ec066E', symObjAddr: 0x5530, symBinAddr: 0xEE330, symSize: 0xF0 }
  - { offsetInCU: 0x44D0, offset: 0x4C6637, size: 0x8, addend: 0x0, symName: '__ZN53_$LT$syn..token..And$u20$as$u20$syn..token..Token$GT$4peek17he0d708c3bca08a87E', symObjAddr: 0x5620, symBinAddr: 0xEE420, symSize: 0x20 }
  - { offsetInCU: 0x4506, offset: 0x4C666D, size: 0x8, addend: 0x0, symName: '__ZN56_$LT$syn..token..AndAnd$u20$as$u20$syn..parse..Parse$GT$5parse17h08ea561b44634998E', symObjAddr: 0x5670, symBinAddr: 0xEE440, symSize: 0xF0 }
  - { offsetInCU: 0x4955, offset: 0x4C6ABC, size: 0x8, addend: 0x0, symName: '__ZN55_$LT$syn..token..AndEq$u20$as$u20$syn..parse..Parse$GT$5parse17hc149706100d8d362E', symObjAddr: 0x57B0, symBinAddr: 0xEE530, symSize: 0xF0 }
  - { offsetInCU: 0x4DA4, offset: 0x4C6F0B, size: 0x8, addend: 0x0, symName: '__ZN52_$LT$syn..token..At$u20$as$u20$syn..parse..Parse$GT$5parse17h1a5d0ac797f8a578E', symObjAddr: 0x58F0, symBinAddr: 0xEE620, symSize: 0xF0 }
  - { offsetInCU: 0x5191, offset: 0x4C72F8, size: 0x8, addend: 0x0, symName: '__ZN54_$LT$syn..token..Bang$u20$as$u20$syn..parse..Parse$GT$5parse17h30e109aaf2cc2f6eE', symObjAddr: 0x5A30, symBinAddr: 0xEE710, symSize: 0xF0 }
  - { offsetInCU: 0x557E, offset: 0x4C76E5, size: 0x8, addend: 0x0, symName: '__ZN54_$LT$syn..token..Bang$u20$as$u20$syn..token..Token$GT$4peek17h9a2155dd43324085E', symObjAddr: 0x5B20, symBinAddr: 0xEE800, symSize: 0x20 }
  - { offsetInCU: 0x55B4, offset: 0x4C771B, size: 0x8, addend: 0x0, symName: '__ZN55_$LT$syn..token..Caret$u20$as$u20$syn..parse..Parse$GT$5parse17hb8b88de2ed51e15bE', symObjAddr: 0x5B70, symBinAddr: 0xEE820, symSize: 0xF0 }
  - { offsetInCU: 0x59A1, offset: 0x4C7B08, size: 0x8, addend: 0x0, symName: '__ZN57_$LT$syn..token..CaretEq$u20$as$u20$syn..parse..Parse$GT$5parse17h63f026941eec0eabE', symObjAddr: 0x5CB0, symBinAddr: 0xEE910, symSize: 0xF0 }
  - { offsetInCU: 0x5DF0, offset: 0x4C7F57, size: 0x8, addend: 0x0, symName: '__ZN55_$LT$syn..token..Colon$u20$as$u20$syn..parse..Parse$GT$5parse17h662b8e9ef6fda689E', symObjAddr: 0x5DF0, symBinAddr: 0xEEA00, symSize: 0xF0 }
  - { offsetInCU: 0x61DD, offset: 0x4C8344, size: 0x8, addend: 0x0, symName: '__ZN55_$LT$syn..token..Colon$u20$as$u20$syn..token..Token$GT$4peek17h91207a2cea0fedeaE', symObjAddr: 0x5EE0, symBinAddr: 0xEEAF0, symSize: 0x20 }
  - { offsetInCU: 0x6213, offset: 0x4C837A, size: 0x8, addend: 0x0, symName: '__ZN56_$LT$syn..token..Colon2$u20$as$u20$syn..parse..Parse$GT$5parse17h16bb85b9e7152ff9E', symObjAddr: 0x5F30, symBinAddr: 0xEEB10, symSize: 0xF0 }
  - { offsetInCU: 0x6662, offset: 0x4C87C9, size: 0x8, addend: 0x0, symName: '__ZN56_$LT$syn..token..Colon2$u20$as$u20$syn..token..Token$GT$4peek17h0cc65d9c34032667E', symObjAddr: 0x6020, symBinAddr: 0xEEC00, symSize: 0x20 }
  - { offsetInCU: 0x6698, offset: 0x4C87FF, size: 0x8, addend: 0x0, symName: '__ZN55_$LT$syn..token..Comma$u20$as$u20$syn..parse..Parse$GT$5parse17h831e301633086efeE', symObjAddr: 0x6070, symBinAddr: 0xEEC20, symSize: 0xF0 }
  - { offsetInCU: 0x6A85, offset: 0x4C8BEC, size: 0x8, addend: 0x0, symName: '__ZN55_$LT$syn..token..Comma$u20$as$u20$syn..token..Token$GT$4peek17h2f704c2cc620ccc4E', symObjAddr: 0x6160, symBinAddr: 0xEED10, symSize: 0x20 }
  - { offsetInCU: 0x6ABB, offset: 0x4C8C22, size: 0x8, addend: 0x0, symName: '__ZN53_$LT$syn..token..Div$u20$as$u20$syn..parse..Parse$GT$5parse17ha1af9382269f520cE', symObjAddr: 0x61B0, symBinAddr: 0xEED30, symSize: 0xF0 }
  - { offsetInCU: 0x6EA8, offset: 0x4C900F, size: 0x8, addend: 0x0, symName: '__ZN55_$LT$syn..token..DivEq$u20$as$u20$syn..parse..Parse$GT$5parse17hee49103f780697baE', symObjAddr: 0x62F0, symBinAddr: 0xEEE20, symSize: 0xF0 }
  - { offsetInCU: 0x72F7, offset: 0x4C945E, size: 0x8, addend: 0x0, symName: '__ZN53_$LT$syn..token..Dot$u20$as$u20$syn..parse..Parse$GT$5parse17h645c53d81704d55dE', symObjAddr: 0x6570, symBinAddr: 0xEEF10, symSize: 0xF0 }
  - { offsetInCU: 0x76E4, offset: 0x4C984B, size: 0x8, addend: 0x0, symName: '__ZN53_$LT$syn..token..Dot$u20$as$u20$syn..token..Token$GT$4peek17hb9226f13159ad3deE', symObjAddr: 0x6660, symBinAddr: 0xEF000, symSize: 0x20 }
  - { offsetInCU: 0x771A, offset: 0x4C9881, size: 0x8, addend: 0x0, symName: '__ZN54_$LT$syn..token..Dot2$u20$as$u20$syn..parse..Parse$GT$5parse17hd6ed967b916ff304E', symObjAddr: 0x66B0, symBinAddr: 0xEF020, symSize: 0xF0 }
  - { offsetInCU: 0x7B69, offset: 0x4C9CD0, size: 0x8, addend: 0x0, symName: '__ZN54_$LT$syn..token..Dot2$u20$as$u20$syn..token..Token$GT$4peek17h573e64320d27cce6E', symObjAddr: 0x67A0, symBinAddr: 0xEF110, symSize: 0x20 }
  - { offsetInCU: 0x7B9F, offset: 0x4C9D06, size: 0x8, addend: 0x0, symName: '__ZN54_$LT$syn..token..Dot3$u20$as$u20$syn..parse..Parse$GT$5parse17h13b325bc7782712aE', symObjAddr: 0x67F0, symBinAddr: 0xEF130, symSize: 0x100 }
  - { offsetInCU: 0x7FEF, offset: 0x4CA156, size: 0x8, addend: 0x0, symName: '__ZN54_$LT$syn..token..Dot3$u20$as$u20$syn..token..Token$GT$4peek17h41d1dfda94a232cbE', symObjAddr: 0x68F0, symBinAddr: 0xEF230, symSize: 0x20 }
  - { offsetInCU: 0x8025, offset: 0x4CA18C, size: 0x8, addend: 0x0, symName: '__ZN58_$LT$syn..token..DotDotEq$u20$as$u20$syn..parse..Parse$GT$5parse17h2dc13f55f15ad788E', symObjAddr: 0x6940, symBinAddr: 0xEF250, symSize: 0x100 }
  - { offsetInCU: 0x8475, offset: 0x4CA5DC, size: 0x8, addend: 0x0, symName: '__ZN58_$LT$syn..token..DotDotEq$u20$as$u20$syn..token..Token$GT$4peek17h2ce6a1f5ceb8ec7cE', symObjAddr: 0x6A40, symBinAddr: 0xEF350, symSize: 0x20 }
  - { offsetInCU: 0x84AB, offset: 0x4CA612, size: 0x8, addend: 0x0, symName: '__ZN52_$LT$syn..token..Eq$u20$as$u20$syn..parse..Parse$GT$5parse17hf670361ef5401661E', symObjAddr: 0x6A90, symBinAddr: 0xEF370, symSize: 0xF0 }
  - { offsetInCU: 0x8898, offset: 0x4CA9FF, size: 0x8, addend: 0x0, symName: '__ZN52_$LT$syn..token..Eq$u20$as$u20$syn..token..Token$GT$4peek17h05c22733b5331a7cE', symObjAddr: 0x6B80, symBinAddr: 0xEF460, symSize: 0x20 }
  - { offsetInCU: 0x88CE, offset: 0x4CAA35, size: 0x8, addend: 0x0, symName: '__ZN54_$LT$syn..token..EqEq$u20$as$u20$syn..parse..Parse$GT$5parse17h204af16177a13672E', symObjAddr: 0x6BD0, symBinAddr: 0xEF480, symSize: 0xF0 }
  - { offsetInCU: 0x8D1D, offset: 0x4CAE84, size: 0x8, addend: 0x0, symName: '__ZN52_$LT$syn..token..Ge$u20$as$u20$syn..parse..Parse$GT$5parse17hfed93823fde8364aE', symObjAddr: 0x6D10, symBinAddr: 0xEF570, symSize: 0xF0 }
  - { offsetInCU: 0x916C, offset: 0x4CB2D3, size: 0x8, addend: 0x0, symName: '__ZN52_$LT$syn..token..Gt$u20$as$u20$syn..parse..Parse$GT$5parse17hf5a84a9a6a694d11E', symObjAddr: 0x6E50, symBinAddr: 0xEF660, symSize: 0xF0 }
  - { offsetInCU: 0x9559, offset: 0x4CB6C0, size: 0x8, addend: 0x0, symName: '__ZN52_$LT$syn..token..Gt$u20$as$u20$syn..token..Token$GT$4peek17h98356010add60e42E', symObjAddr: 0x6F40, symBinAddr: 0xEF750, symSize: 0x20 }
  - { offsetInCU: 0x958F, offset: 0x4CB6F6, size: 0x8, addend: 0x0, symName: '__ZN52_$LT$syn..token..Le$u20$as$u20$syn..parse..Parse$GT$5parse17hfb9cc07368390e04E', symObjAddr: 0x6F90, symBinAddr: 0xEF770, symSize: 0xF0 }
  - { offsetInCU: 0x99DE, offset: 0x4CBB45, size: 0x8, addend: 0x0, symName: '__ZN52_$LT$syn..token..Lt$u20$as$u20$syn..parse..Parse$GT$5parse17he57e541ef90bd84cE', symObjAddr: 0x70D0, symBinAddr: 0xEF860, symSize: 0xF0 }
  - { offsetInCU: 0x9DCB, offset: 0x4CBF32, size: 0x8, addend: 0x0, symName: '__ZN52_$LT$syn..token..Lt$u20$as$u20$syn..token..Token$GT$4peek17haf82e8207765aaa4E', symObjAddr: 0x71C0, symBinAddr: 0xEF950, symSize: 0x20 }
  - { offsetInCU: 0x9E01, offset: 0x4CBF68, size: 0x8, addend: 0x0, symName: '__ZN55_$LT$syn..token..MulEq$u20$as$u20$syn..parse..Parse$GT$5parse17h51ad66f694e37bcaE', symObjAddr: 0x7210, symBinAddr: 0xEF970, symSize: 0xF0 }
  - { offsetInCU: 0xA250, offset: 0x4CC3B7, size: 0x8, addend: 0x0, symName: '__ZN52_$LT$syn..token..Ne$u20$as$u20$syn..parse..Parse$GT$5parse17h57464c88099918f5E', symObjAddr: 0x7350, symBinAddr: 0xEFA60, symSize: 0xF0 }
  - { offsetInCU: 0xA69F, offset: 0x4CC806, size: 0x8, addend: 0x0, symName: '__ZN52_$LT$syn..token..Or$u20$as$u20$syn..parse..Parse$GT$5parse17h588c16379aa53707E', symObjAddr: 0x7490, symBinAddr: 0xEFB50, symSize: 0xF0 }
  - { offsetInCU: 0xAA8C, offset: 0x4CCBF3, size: 0x8, addend: 0x0, symName: '__ZN52_$LT$syn..token..Or$u20$as$u20$syn..token..Token$GT$4peek17h30c14b3683f882b2E', symObjAddr: 0x7580, symBinAddr: 0xEFC40, symSize: 0x20 }
  - { offsetInCU: 0xAAC2, offset: 0x4CCC29, size: 0x8, addend: 0x0, symName: '__ZN54_$LT$syn..token..OrEq$u20$as$u20$syn..parse..Parse$GT$5parse17hb3e6ce79f9aa8136E', symObjAddr: 0x75D0, symBinAddr: 0xEFC60, symSize: 0xF0 }
  - { offsetInCU: 0xAF11, offset: 0x4CD078, size: 0x8, addend: 0x0, symName: '__ZN54_$LT$syn..token..OrOr$u20$as$u20$syn..parse..Parse$GT$5parse17h86a9c8a1cdffb373E', symObjAddr: 0x7710, symBinAddr: 0xEFD50, symSize: 0xF0 }
  - { offsetInCU: 0xB360, offset: 0x4CD4C7, size: 0x8, addend: 0x0, symName: '__ZN55_$LT$syn..token..Pound$u20$as$u20$syn..parse..Parse$GT$5parse17h3d6f7658c2ba179fE', symObjAddr: 0x7850, symBinAddr: 0xEFE40, symSize: 0xF0 }
  - { offsetInCU: 0xB74D, offset: 0x4CD8B4, size: 0x8, addend: 0x0, symName: '__ZN55_$LT$syn..token..Pound$u20$as$u20$syn..token..Token$GT$4peek17h5b4b210b91548700E', symObjAddr: 0x7940, symBinAddr: 0xEFF30, symSize: 0x20 }
  - { offsetInCU: 0xB783, offset: 0x4CD8EA, size: 0x8, addend: 0x0, symName: '__ZN58_$LT$syn..token..Question$u20$as$u20$syn..parse..Parse$GT$5parse17h91bf3e414f5a6551E', symObjAddr: 0x7990, symBinAddr: 0xEFF50, symSize: 0xF0 }
  - { offsetInCU: 0xBB70, offset: 0x4CDCD7, size: 0x8, addend: 0x0, symName: '__ZN58_$LT$syn..token..Question$u20$as$u20$syn..token..Token$GT$4peek17h4419ac6afbb9beb2E', symObjAddr: 0x7A80, symBinAddr: 0xF0040, symSize: 0x20 }
  - { offsetInCU: 0xBBA6, offset: 0x4CDD0D, size: 0x8, addend: 0x0, symName: '__ZN56_$LT$syn..token..RArrow$u20$as$u20$syn..parse..Parse$GT$5parse17hd4db42c362da45f6E', symObjAddr: 0x7AD0, symBinAddr: 0xF0060, symSize: 0xF0 }
  - { offsetInCU: 0xBFF5, offset: 0x4CE15C, size: 0x8, addend: 0x0, symName: '__ZN53_$LT$syn..token..Rem$u20$as$u20$syn..parse..Parse$GT$5parse17h3f49caa3c53e0c4aE', symObjAddr: 0x7D50, symBinAddr: 0xF0150, symSize: 0xF0 }
  - { offsetInCU: 0xC3E2, offset: 0x4CE549, size: 0x8, addend: 0x0, symName: '__ZN55_$LT$syn..token..RemEq$u20$as$u20$syn..parse..Parse$GT$5parse17h58fd9d0bcbd6933eE', symObjAddr: 0x7E90, symBinAddr: 0xF0240, symSize: 0xF0 }
  - { offsetInCU: 0xC831, offset: 0x4CE998, size: 0x8, addend: 0x0, symName: '__ZN58_$LT$syn..token..FatArrow$u20$as$u20$syn..parse..Parse$GT$5parse17he89db532ff09a67bE', symObjAddr: 0x7FD0, symBinAddr: 0xF0330, symSize: 0xF0 }
  - { offsetInCU: 0xCC80, offset: 0x4CEDE7, size: 0x8, addend: 0x0, symName: '__ZN54_$LT$syn..token..Semi$u20$as$u20$syn..parse..Parse$GT$5parse17hb74ddd1bf271ceb8E', symObjAddr: 0x8110, symBinAddr: 0xF0420, symSize: 0xF0 }
  - { offsetInCU: 0xD06D, offset: 0x4CF1D4, size: 0x8, addend: 0x0, symName: '__ZN54_$LT$syn..token..Semi$u20$as$u20$syn..token..Token$GT$4peek17h04a09e27e4939dadE', symObjAddr: 0x8200, symBinAddr: 0xF0510, symSize: 0x20 }
  - { offsetInCU: 0xD0A3, offset: 0x4CF20A, size: 0x8, addend: 0x0, symName: '__ZN53_$LT$syn..token..Shl$u20$as$u20$syn..parse..Parse$GT$5parse17hc76f0d624281ae34E', symObjAddr: 0x8250, symBinAddr: 0xF0530, symSize: 0xF0 }
  - { offsetInCU: 0xD4F2, offset: 0x4CF659, size: 0x8, addend: 0x0, symName: '__ZN55_$LT$syn..token..ShlEq$u20$as$u20$syn..parse..Parse$GT$5parse17h981982885f868d4dE', symObjAddr: 0x8390, symBinAddr: 0xF0620, symSize: 0x100 }
  - { offsetInCU: 0xD942, offset: 0x4CFAA9, size: 0x8, addend: 0x0, symName: '__ZN53_$LT$syn..token..Shr$u20$as$u20$syn..parse..Parse$GT$5parse17h657b3cc0e355fadaE', symObjAddr: 0x84E0, symBinAddr: 0xF0720, symSize: 0xF0 }
  - { offsetInCU: 0xDD91, offset: 0x4CFEF8, size: 0x8, addend: 0x0, symName: '__ZN55_$LT$syn..token..ShrEq$u20$as$u20$syn..parse..Parse$GT$5parse17h29381819b3c034f9E', symObjAddr: 0x8620, symBinAddr: 0xF0810, symSize: 0x100 }
  - { offsetInCU: 0xE1E1, offset: 0x4D0348, size: 0x8, addend: 0x0, symName: '__ZN54_$LT$syn..token..Star$u20$as$u20$syn..parse..Parse$GT$5parse17he445204c6f6147b2E', symObjAddr: 0x8770, symBinAddr: 0xF0910, symSize: 0xF0 }
  - { offsetInCU: 0xE5CE, offset: 0x4D0735, size: 0x8, addend: 0x0, symName: '__ZN54_$LT$syn..token..Star$u20$as$u20$syn..token..Token$GT$4peek17h9ae594d0c59c0616E', symObjAddr: 0x8860, symBinAddr: 0xF0A00, symSize: 0x20 }
  - { offsetInCU: 0xE604, offset: 0x4D076B, size: 0x8, addend: 0x0, symName: '__ZN53_$LT$syn..token..Sub$u20$as$u20$syn..parse..Parse$GT$5parse17hc24d7efe68285f8cE', symObjAddr: 0x88B0, symBinAddr: 0xF0A20, symSize: 0xF0 }
  - { offsetInCU: 0xE9F1, offset: 0x4D0B58, size: 0x8, addend: 0x0, symName: '__ZN53_$LT$syn..token..Sub$u20$as$u20$syn..token..Token$GT$4peek17h78e2cdadf59b7658E', symObjAddr: 0x89A0, symBinAddr: 0xF0B10, symSize: 0x20 }
  - { offsetInCU: 0xEA27, offset: 0x4D0B8E, size: 0x8, addend: 0x0, symName: '__ZN55_$LT$syn..token..SubEq$u20$as$u20$syn..parse..Parse$GT$5parse17hdce11e191eed7488E', symObjAddr: 0x89F0, symBinAddr: 0xF0B30, symSize: 0xF0 }
  - { offsetInCU: 0xEE76, offset: 0x4D0FDD, size: 0x8, addend: 0x0, symName: '__ZN55_$LT$syn..token..Tilde$u20$as$u20$syn..parse..Parse$GT$5parse17hc34dc7972cbf05b8E', symObjAddr: 0x8B30, symBinAddr: 0xF0C20, symSize: 0xF0 }
  - { offsetInCU: 0x109E1, offset: 0x4D2B48, size: 0x8, addend: 0x0, symName: '__ZN4core3ptr44drop_in_place$LT$syn..parse..ParseBuffer$GT$17h19c266fcccc430cbE.llvm.10394053633799031531', symObjAddr: 0x790, symBinAddr: 0xED0B0, symSize: 0x70 }
  - { offsetInCU: 0x1E, offset: 0x4D87D1, size: 0x8, addend: 0x0, symName: '__ZN4core3ptr100drop_in_place$LT$core..option..Option$LT$alloc..boxed..Box$LT$syn..generics..LifetimeDef$GT$$GT$$GT$17h75a6086997697dd7E', symObjAddr: 0x0, symBinAddr: 0xF0D10, symSize: 0x150 }
  - { offsetInCU: 0x9CB, offset: 0x4D917E, size: 0x8, addend: 0x0, symName: '__ZN4core3ptr100drop_in_place$LT$core..option..Option$LT$alloc..boxed..Box$LT$syn..generics..LifetimeDef$GT$$GT$$GT$17h75a6086997697dd7E', symObjAddr: 0x0, symBinAddr: 0xF0D10, symSize: 0x150 }
  - { offsetInCU: 0xF47, offset: 0x4D96FA, size: 0x8, addend: 0x0, symName: '__ZN4core3ptr100drop_in_place$LT$core..option..Option$LT$alloc..boxed..Box$LT$syn..path..GenericArgument$GT$$GT$$GT$17h3d29ec00a8f1918dE', symObjAddr: 0x150, symBinAddr: 0xF0E60, symSize: 0x50 }
  - { offsetInCU: 0x1114, offset: 0x4D98C7, size: 0x8, addend: 0x0, symName: '__ZN4core3ptr103drop_in_place$LT$core..option..Option$LT$alloc..boxed..Box$LT$syn..generics..TypeParamBound$GT$$GT$$GT$17h6cee73bc2b2ecea8E', symObjAddr: 0x1A0, symBinAddr: 0xF0EB0, symSize: 0x90 }
  - { offsetInCU: 0x1489, offset: 0x4D9C3C, size: 0x8, addend: 0x0, symName: '__ZN4core3ptr103drop_in_place$LT$syn..punctuated..Punctuated$LT$syn..generics..TypeParamBound$C$syn..token..Add$GT$$GT$17he811d520c92af08aE', symObjAddr: 0x230, symBinAddr: 0xF0F40, symSize: 0x1C0 }
  - { offsetInCU: 0x1CDA, offset: 0x4DA48D, size: 0x8, addend: 0x0, symName: '__ZN4core3ptr108drop_in_place$LT$syn..punctuated..Punctuated$LT$syn..expr..GenericMethodArgument$C$syn..token..Comma$GT$$GT$17h92cbabe4862b2183E', symObjAddr: 0x3F0, symBinAddr: 0xF1100, symSize: 0x150 }
  - { offsetInCU: 0x2233, offset: 0x4DA9E6, size: 0x8, addend: 0x0, symName: '__ZN4core3ptr34drop_in_place$LT$syn..lit..Lit$GT$17hbe1efe749a08dd9aE', symObjAddr: 0x540, symBinAddr: 0xF1250, symSize: 0x110 }
  - { offsetInCU: 0x26A5, offset: 0x4DAE58, size: 0x8, addend: 0x0, symName: '__ZN4core3ptr34drop_in_place$LT$syn..pat..Pat$GT$17h3201f642e43ac2a2E', symObjAddr: 0x650, symBinAddr: 0xF1360, symSize: 0x1190 }
  - { offsetInCU: 0x640B, offset: 0x4DEBBE, size: 0x8, addend: 0x0, symName: '__ZN4core3ptr34drop_in_place$LT$syn..ty..Type$GT$17hfb5d159a08190130E', symObjAddr: 0x17E0, symBinAddr: 0xF24F0, symSize: 0x360 }
  - { offsetInCU: 0x7380, offset: 0x4DFB33, size: 0x8, addend: 0x0, symName: '__ZN4core3ptr36drop_in_place$LT$syn..expr..Expr$GT$17hf1921d1b09462bc3E', symObjAddr: 0x1B40, symBinAddr: 0xF2850, symSize: 0x3290 }
  - { offsetInCU: 0x11C11, offset: 0x4EA3C4, size: 0x8, addend: 0x0, symName: '__ZN4core3ptr36drop_in_place$LT$syn..mac..Macro$GT$17h205613d7ad575f72E', symObjAddr: 0x4DD0, symBinAddr: 0xF5AE0, symSize: 0x40 }
  - { offsetInCU: 0x11D62, offset: 0x4EA515, size: 0x8, addend: 0x0, symName: '__ZN4core3ptr36drop_in_place$LT$syn..path..Path$GT$17he6d0bec66d66b98aE', symObjAddr: 0x4E10, symBinAddr: 0xF5B20, symSize: 0x230 }
  - { offsetInCU: 0x126F8, offset: 0x4EAEAB, size: 0x8, addend: 0x0, symName: '__ZN4core3ptr37drop_in_place$LT$syn..stmt..Block$GT$17h3aa429e75a234230E', symObjAddr: 0x5040, symBinAddr: 0xF5D50, symSize: 0xD0 }
  - { offsetInCU: 0x129CF, offset: 0x4EB182, size: 0x8, addend: 0x0, symName: '__ZN4core3ptr38drop_in_place$LT$syn..expr..Member$GT$17ha113d37a67d27aafE', symObjAddr: 0x5110, symBinAddr: 0xF5E20, symSize: 0x30 }
  - { offsetInCU: 0x12ACB, offset: 0x4EB27E, size: 0x8, addend: 0x0, symName: '__ZN4core3ptr38drop_in_place$LT$syn..ty..TypePath$GT$17hee875f09231160b9E', symObjAddr: 0x5140, symBinAddr: 0xF5E50, symSize: 0x70 }
  - { offsetInCU: 0x12C48, offset: 0x4EB3FB, size: 0x8, addend: 0x0, symName: '__ZN4core3ptr39drop_in_place$LT$proc_macro2..Ident$GT$17hdeec010483268a0dE', symObjAddr: 0x51B0, symBinAddr: 0xF5EC0, symSize: 0x30 }
  - { offsetInCU: 0x12D25, offset: 0x4EB4D8, size: 0x8, addend: 0x0, symName: '__ZN4core3ptr39drop_in_place$LT$syn..pat..PatTuple$GT$17h96faeea9832d4c4bE', symObjAddr: 0x51E0, symBinAddr: 0xF5EF0, symSize: 0x100 }
  - { offsetInCU: 0x1306C, offset: 0x4EB81F, size: 0x8, addend: 0x0, symName: '__ZN4core3ptr39drop_in_place$LT$syn..ty..BareFnArg$GT$17hed52ce54f3b53a34E', symObjAddr: 0x52E0, symBinAddr: 0xF5FF0, symSize: 0x140 }
  - { offsetInCU: 0x1349C, offset: 0x4EBC4F, size: 0x8, addend: 0x0, symName: '__ZN4core3ptr40drop_in_place$LT$syn..ty..ReturnType$GT$17h6f97c9fdb958983eE', symObjAddr: 0x5420, symBinAddr: 0xF6130, symSize: 0x50 }
  - { offsetInCU: 0x1379F, offset: 0x4EBF52, size: 0x8, addend: 0x0, symName: '__ZN4core3ptr40drop_in_place$LT$syn..ty..TypeBareFn$GT$17h1010a3edced8ab67E', symObjAddr: 0x5470, symBinAddr: 0xF6180, symSize: 0x2F0 }
  - { offsetInCU: 0x1454D, offset: 0x4ECD00, size: 0x8, addend: 0x0, symName: '__ZN4core3ptr43drop_in_place$LT$proc_macro2..TokenTree$GT$17h7270f34cee6d919dE', symObjAddr: 0x5760, symBinAddr: 0xF6470, symSize: 0xB0 }
  - { offsetInCU: 0x148A8, offset: 0x4ED05B, size: 0x8, addend: 0x0, symName: '__ZN4core3ptr44drop_in_place$LT$syn..lifetime..Lifetime$GT$17h3858225df033648aE', symObjAddr: 0x5810, symBinAddr: 0xF6520, symSize: 0x30 }
  - { offsetInCU: 0x14A20, offset: 0x4ED1D3, size: 0x8, addend: 0x0, symName: '__ZN4core3ptr44drop_in_place$LT$syn..parse..ParseBuffer$GT$17h19c266fcccc430cbE', symObjAddr: 0x5840, symBinAddr: 0xF6550, symSize: 0x70 }
  - { offsetInCU: 0x14D9C, offset: 0x4ED54F, size: 0x8, addend: 0x0, symName: '__ZN4core3ptr45drop_in_place$LT$proc_macro2..TokenStream$GT$17h2507cb30e765dc85E', symObjAddr: 0x58B0, symBinAddr: 0xF65C0, symSize: 0x140 }
  - { offsetInCU: 0x15217, offset: 0x4ED9CA, size: 0x8, addend: 0x0, symName: '__ZN4core3ptr45drop_in_place$LT$syn..path..PathArguments$GT$17h9dd953520dcdc907E', symObjAddr: 0x59F0, symBinAddr: 0xF6700, symSize: 0x170 }
  - { offsetInCU: 0x15702, offset: 0x4EDEB5, size: 0x8, addend: 0x0, symName: '__ZN4core3ptr47drop_in_place$LT$syn..path..GenericArgument$GT$17h8c0a0d8c6deaefb4E', symObjAddr: 0x5B60, symBinAddr: 0xF6870, symSize: 0x110 }
  - { offsetInCU: 0x15A1D, offset: 0x4EE1D0, size: 0x8, addend: 0x0, symName: '__ZN4core3ptr58drop_in_place$LT$alloc..vec..Vec$LT$syn..expr..Arm$GT$$GT$17hf3db0825f3d9c861E', symObjAddr: 0x5C70, symBinAddr: 0xF6980, symSize: 0xD0 }
  - { offsetInCU: 0x15CDD, offset: 0x4EE490, size: 0x8, addend: 0x0, symName: '__ZN4core3ptr59drop_in_place$LT$alloc..boxed..Box$LT$syn..pat..Pat$GT$$GT$17h7037ce9bbd3729c6E', symObjAddr: 0x5D40, symBinAddr: 0xF6A50, symSize: 0x50 }
  - { offsetInCU: 0x15E36, offset: 0x4EE5E9, size: 0x8, addend: 0x0, symName: '__ZN4core3ptr59drop_in_place$LT$alloc..boxed..Box$LT$syn..ty..Type$GT$$GT$17h2eccd13329dbe4faE', symObjAddr: 0x5D90, symBinAddr: 0xF6AA0, symSize: 0x50 }
  - { offsetInCU: 0x15F8F, offset: 0x4EE742, size: 0x8, addend: 0x0, symName: '__ZN4core3ptr61drop_in_place$LT$alloc..boxed..Box$LT$syn..expr..Expr$GT$$GT$17h66094ddc89015516E', symObjAddr: 0x5DE0, symBinAddr: 0xF6AF0, symSize: 0x50 }
  - { offsetInCU: 0x16164, offset: 0x4EE917, size: 0x8, addend: 0x0, symName: '__ZN4core3ptr61drop_in_place$LT$syn..path..ParenthesizedGenericArguments$GT$17h21be9b1d7a6fab55E', symObjAddr: 0x5E30, symBinAddr: 0xF6B40, symSize: 0x170 }
  - { offsetInCU: 0x1675A, offset: 0x4EEF0D, size: 0x8, addend: 0x0, symName: '__ZN4core3ptr63drop_in_place$LT$alloc..boxed..Box$LT$syn..lit..LitRepr$GT$$GT$17h9c509b794406150eE', symObjAddr: 0x5FA0, symBinAddr: 0xF6CB0, symSize: 0x60 }
  - { offsetInCU: 0x16A61, offset: 0x4EF214, size: 0x8, addend: 0x0, symName: '__ZN4core3ptr64drop_in_place$LT$alloc..boxed..Box$LT$syn..pat..FieldPat$GT$$GT$17hb167b355d0d4733fE', symObjAddr: 0x6000, symBinAddr: 0xF6D10, symSize: 0x180 }
  - { offsetInCU: 0x17140, offset: 0x4EF8F3, size: 0x8, addend: 0x0, symName: '__ZN4core3ptr64drop_in_place$LT$alloc..boxed..Box$LT$syn..ty..BareFnArg$GT$$GT$17h6488be9448346678E', symObjAddr: 0x6180, symBinAddr: 0xF6E90, symSize: 0x160 }
  - { offsetInCU: 0x176C3, offset: 0x4EFE76, size: 0x8, addend: 0x0, symName: '__ZN4core3ptr64drop_in_place$LT$alloc..vec..Vec$LT$syn..attr..Attribute$GT$$GT$17h386324d8ea9bc309E', symObjAddr: 0x62E0, symBinAddr: 0xF6FF0, symSize: 0xF0 }
  - { offsetInCU: 0x179B9, offset: 0x4F016C, size: 0x8, addend: 0x0, symName: '__ZN4core3ptr65drop_in_place$LT$alloc..vec..Vec$LT$proc_macro..TokenTree$GT$$GT$17hc3670dd5608d5259E', symObjAddr: 0x63D0, symBinAddr: 0xF70E0, symSize: 0x110 }
  - { offsetInCU: 0x17DB1, offset: 0x4F0564, size: 0x8, addend: 0x0, symName: '__ZN4core3ptr65drop_in_place$LT$core..option..Option$LT$syn..expr..Label$GT$$GT$17ha723640fd01bec5dE', symObjAddr: 0x64E0, symBinAddr: 0xF71F0, symSize: 0x30 }
  - { offsetInCU: 0x17EEB, offset: 0x4F069E, size: 0x8, addend: 0x0, symName: '__ZN4core3ptr65drop_in_place$LT$core..option..Option$LT$syn..path..QSelf$GT$$GT$17h213ca1c3399df9f2E', symObjAddr: 0x6510, symBinAddr: 0xF7220, symSize: 0x50 }
  - { offsetInCU: 0x1806C, offset: 0x4F081F, size: 0x8, addend: 0x0, symName: '__ZN4core3ptr66drop_in_place$LT$core..option..Option$LT$syn..ty..Variadic$GT$$GT$17hc32134bb3933b0dfE', symObjAddr: 0x6560, symBinAddr: 0xF7270, symSize: 0xF0 }
  - { offsetInCU: 0x18396, offset: 0x4F0B49, size: 0x8, addend: 0x0, symName: '__ZN4core3ptr67drop_in_place$LT$alloc..boxed..Box$LT$syn..expr..FieldValue$GT$$GT$17h8df780aa600ea8c2E', symObjAddr: 0x6650, symBinAddr: 0xF7360, symSize: 0x160 }
  - { offsetInCU: 0x1890C, offset: 0x4F10BF, size: 0x8, addend: 0x0, symName: '__ZN4core3ptr68drop_in_place$LT$alloc..boxed..Box$LT$syn..path..PathSegment$GT$$GT$17h1957b54eed39c0bbE', symObjAddr: 0x67B0, symBinAddr: 0xF74C0, symSize: 0x190 }
  - { offsetInCU: 0x19035, offset: 0x4F17E8, size: 0x8, addend: 0x0, symName: '__ZN4core3ptr72drop_in_place$LT$alloc..boxed..Box$LT$syn..path..GenericArgument$GT$$GT$17ha8f8136d0c2b505bE', symObjAddr: 0x6940, symBinAddr: 0xF7650, symSize: 0x180 }
  - { offsetInCU: 0x196D5, offset: 0x4F1E88, size: 0x8, addend: 0x0, symName: '__ZN4core3ptr72drop_in_place$LT$core..option..Option$LT$syn..lifetime..Lifetime$GT$$GT$17h31b55b93749c174dE', symObjAddr: 0x6AC0, symBinAddr: 0xF77D0, symSize: 0x30 }
  - { offsetInCU: 0x197F0, offset: 0x4F1FA3, size: 0x8, addend: 0x0, symName: '__ZN4core3ptr75drop_in_place$LT$alloc..boxed..Box$LT$syn..generics..TypeParamBound$GT$$GT$17h8f156ce07ea0b8b2E', symObjAddr: 0x6AF0, symBinAddr: 0xF7800, symSize: 0x140 }
  - { offsetInCU: 0x19D4B, offset: 0x4F24FE, size: 0x8, addend: 0x0, symName: '__ZN4core3ptr78drop_in_place$LT$alloc..boxed..Box$LT$syn..expr..GenericMethodArgument$GT$$GT$17h3384c00b5bd54c2aE', symObjAddr: 0x6C30, symBinAddr: 0xF7940, symSize: 0x60 }
  - { offsetInCU: 0x19F3D, offset: 0x4F26F0, size: 0x8, addend: 0x0, symName: '__ZN4core3ptr78drop_in_place$LT$core..option..Option$LT$syn..generics..BoundLifetimes$GT$$GT$17h8175e66ad0c4a156E', symObjAddr: 0x6C90, symBinAddr: 0xF79A0, symSize: 0xE0 }
  - { offsetInCU: 0x1A2BA, offset: 0x4F2A6D, size: 0x8, addend: 0x0, symName: '__ZN4core3ptr86drop_in_place$LT$syn..punctuated..Punctuated$LT$syn..pat..Pat$C$syn..token..Or$GT$$GT$17h1078c5d178d382b7E', symObjAddr: 0x6D70, symBinAddr: 0xF7A80, symSize: 0x120 }
  - { offsetInCU: 0x1A735, offset: 0x4F2EE8, size: 0x8, addend: 0x0, symName: '__ZN4core3ptr87drop_in_place$LT$core..option..Option$LT$alloc..boxed..Box$LT$syn..pat..Pat$GT$$GT$$GT$17ha7f5fe0e6f73e820E', symObjAddr: 0x6E90, symBinAddr: 0xF7BA0, symSize: 0x50 }
  - { offsetInCU: 0x1A8A5, offset: 0x4F3058, size: 0x8, addend: 0x0, symName: '__ZN4core3ptr87drop_in_place$LT$core..option..Option$LT$alloc..boxed..Box$LT$syn..ty..Type$GT$$GT$$GT$17hc8292da82d129de3E', symObjAddr: 0x6EE0, symBinAddr: 0xF7BF0, symSize: 0x50 }
  - { offsetInCU: 0x1AA15, offset: 0x4F31C8, size: 0x8, addend: 0x0, symName: '__ZN4core3ptr89drop_in_place$LT$core..option..Option$LT$alloc..boxed..Box$LT$syn..expr..Expr$GT$$GT$$GT$17hdc211ccd33f196f2E', symObjAddr: 0x6F30, symBinAddr: 0xF7C40, symSize: 0x50 }
  - { offsetInCU: 0x1ABC3, offset: 0x4F3376, size: 0x8, addend: 0x0, symName: '__ZN4core3ptr89drop_in_place$LT$syn..punctuated..Punctuated$LT$syn..pat..Pat$C$syn..token..Comma$GT$$GT$17hf8371102b0500adcE', symObjAddr: 0x6F80, symBinAddr: 0xF7C90, symSize: 0x120 }
  - { offsetInCU: 0x1B055, offset: 0x4F3808, size: 0x8, addend: 0x0, symName: '__ZN4core3ptr89drop_in_place$LT$syn..punctuated..Punctuated$LT$syn..ty..Type$C$syn..token..Comma$GT$$GT$17h1c6e43341fabea97E', symObjAddr: 0x70A0, symBinAddr: 0xF7DB0, symSize: 0x120 }
  - { offsetInCU: 0x1B50E, offset: 0x4F3CC1, size: 0x8, addend: 0x0, symName: '__ZN4core3ptr91drop_in_place$LT$syn..punctuated..Punctuated$LT$syn..expr..Expr$C$syn..token..Comma$GT$$GT$17hd2dfeb0c522d9a18E', symObjAddr: 0x71C0, symBinAddr: 0xF7ED0, symSize: 0x120 }
  - { offsetInCU: 0x1B99C, offset: 0x4F414F, size: 0x8, addend: 0x0, symName: '__ZN4core3ptr92drop_in_place$LT$core..option..Option$LT$alloc..boxed..Box$LT$syn..ty..BareFnArg$GT$$GT$$GT$17h2b57ab7ac835f762E', symObjAddr: 0x72E0, symBinAddr: 0xF7FF0, symSize: 0x50 }
  - { offsetInCU: 0x1BB0C, offset: 0x4F42BF, size: 0x8, addend: 0x0, symName: '__ZN4core3ptr94drop_in_place$LT$syn..punctuated..Punctuated$LT$syn..pat..FieldPat$C$syn..token..Comma$GT$$GT$17h612cbc9066d5afb1E', symObjAddr: 0x7330, symBinAddr: 0xF8040, symSize: 0xF0 }
  - { offsetInCU: 0x1BE0B, offset: 0x4F45BE, size: 0x8, addend: 0x0, symName: '__ZN4core3ptr94drop_in_place$LT$syn..punctuated..Punctuated$LT$syn..ty..BareFnArg$C$syn..token..Comma$GT$$GT$17ha9a668ce9972795bE', symObjAddr: 0x7420, symBinAddr: 0xF8130, symSize: 0xF0 }
  - { offsetInCU: 0x1C108, offset: 0x4F48BB, size: 0x8, addend: 0x0, symName: '__ZN4core3ptr96drop_in_place$LT$core..option..Option$LT$alloc..boxed..Box$LT$syn..path..PathSegment$GT$$GT$$GT$17h2e81cbe3c70bb71cE', symObjAddr: 0x7510, symBinAddr: 0xF8220, symSize: 0x180 }
  - { offsetInCU: 0x1C7C5, offset: 0x4F4F78, size: 0x8, addend: 0x0, symName: '__ZN4core3ptr97drop_in_place$LT$syn..punctuated..Punctuated$LT$syn..expr..FieldValue$C$syn..token..Comma$GT$$GT$17h11a5fffb46adfb11E', symObjAddr: 0x7690, symBinAddr: 0xF83A0, symSize: 0xF0 }
  - { offsetInCU: 0x1CB3E, offset: 0x4F52F1, size: 0x8, addend: 0x0, symName: '__ZN4core3ptr97drop_in_place$LT$syn..punctuated..Punctuated$LT$syn..lifetime..Lifetime$C$syn..token..Add$GT$$GT$17h5c54dea2c838d109E', symObjAddr: 0x7780, symBinAddr: 0xF8490, symSize: 0xD0 }
  - { offsetInCU: 0x1CFB2, offset: 0x4F5765, size: 0x8, addend: 0x0, symName: '__ZN4core3ptr99drop_in_place$LT$syn..punctuated..Punctuated$LT$syn..path..PathSegment$C$syn..token..Colon2$GT$$GT$17hb961e4d7989a33ceE', symObjAddr: 0x7850, symBinAddr: 0xF8560, symSize: 0x140 }
  - { offsetInCU: 0x20C8D, offset: 0x4F9440, size: 0x8, addend: 0x0, symName: __ZN5alloc5alloc15exchange_malloc17h9a87608d0224859dE, symObjAddr: 0x7990, symBinAddr: 0xF86A0, symSize: 0x40 }
  - { offsetInCU: 0x20FDA, offset: 0x4F978D, size: 0x8, addend: 0x0, symName: __ZN3syn2ty7parsing8ambig_ty17h2f1b8039981072ecE, symObjAddr: 0x79D0, symBinAddr: 0xF86E0, symSize: 0x3E30 }
  - { offsetInCU: 0x2AAB4, offset: 0x503267, size: 0x8, addend: 0x0, symName: __ZN3syn2ty7parsing13parse_bare_fn17h80d317b9b25c1545E, symObjAddr: 0xB800, symBinAddr: 0xFC510, symSize: 0x1020 }
  - { offsetInCU: 0x2C649, offset: 0x504DFC, size: 0x8, addend: 0x0, symName: __ZN3syn2ty7parsing17parse_bare_fn_arg17hdc78aa118c86362cE, symObjAddr: 0xC820, symBinAddr: 0xFD530, symSize: 0x1074 }
  - { offsetInCU: 0x11A0, offset: 0x51B6CF, size: 0x8, addend: 0x0, symName: '__ZN3syn4path8printing79_$LT$impl$u20$quote..to_tokens..ToTokens$u20$for$u20$syn..path..PathSegment$GT$9to_tokens17h5780093d5322a054E', symObjAddr: 0xAD90, symBinAddr: 0x1088C0, symSize: 0xB0 }
  - { offsetInCU: 0x13F7, offset: 0x51B926, size: 0x8, addend: 0x0, symName: '__ZN3syn4path8printing83_$LT$impl$u20$quote..to_tokens..ToTokens$u20$for$u20$syn..path..GenericArgument$GT$9to_tokens17he2f471d37de2478bE', symObjAddr: 0xAEE0, symBinAddr: 0x108970, symSize: 0x1B0 }
  - { offsetInCU: 0x1808, offset: 0x51BD37, size: 0x8, addend: 0x0, symName: '__ZN3syn4path8printing98_$LT$impl$u20$quote..to_tokens..ToTokens$u20$for$u20$syn..path..AngleBracketedGenericArguments$GT$9to_tokens17h32f87affd9416c73E', symObjAddr: 0xB090, symBinAddr: 0x108B20, symSize: 0x1F0 }
  - { offsetInCU: 0x1FA7, offset: 0x51C4D6, size: 0x8, addend: 0x0, symName: '__ZN64_$LT$syn..path..Path$u20$as$u20$core..convert..From$LT$T$GT$$GT$4from17h30da9cf1d495a6b9E', symObjAddr: 0x7E50, symBinAddr: 0x105CB0, symSize: 0xD0 }
  - { offsetInCU: 0x2074, offset: 0x51C5A3, size: 0x8, addend: 0x0, symName: '__ZN64_$LT$syn..path..Path$u20$as$u20$core..convert..From$LT$T$GT$$GT$4from17h73328aa137b29f75E', symObjAddr: 0x7F20, symBinAddr: 0x105D80, symSize: 0xC0 }
  - { offsetInCU: 0x210D, offset: 0x51C63C, size: 0x8, addend: 0x0, symName: '__ZN3syn4path7parsing74_$LT$impl$u20$syn..parse..Parse$u20$for$u20$syn..path..GenericArgument$GT$5parse17h441792ad5874dae2E', symObjAddr: 0x8000, symBinAddr: 0x105E40, symSize: 0x1510 }
  - { offsetInCU: 0x4A4E, offset: 0x51EF7D, size: 0x8, addend: 0x0, symName: '__ZN3syn4path7parsing89_$LT$impl$u20$syn..parse..Parse$u20$for$u20$syn..path..AngleBracketedGenericArguments$GT$5parse17h5114b408010754bbE', symObjAddr: 0x9510, symBinAddr: 0x107350, symSize: 0x3C0 }
  - { offsetInCU: 0x5038, offset: 0x51F567, size: 0x8, addend: 0x0, symName: '__ZN3syn4path7parsing88_$LT$impl$u20$syn..parse..Parse$u20$for$u20$syn..path..ParenthesizedGenericArguments$GT$5parse17h1bef1f4d9d5a8f24E', symObjAddr: 0x98D0, symBinAddr: 0x107710, symSize: 0x4D0 }
  - { offsetInCU: 0x56D6, offset: 0x51FC05, size: 0x8, addend: 0x0, symName: '__ZN3syn4path7parsing69_$LT$impl$u20$syn..parse..Parse$u20$for$u20$syn..path..Constraint$GT$5parse17ha9fdfd7091174960E', symObjAddr: 0xA2E0, symBinAddr: 0x107EF0, symSize: 0x190 }
  - { offsetInCU: 0x9801, offset: 0x523D30, size: 0x8, addend: 0x0, symName: '__ZN3syn3gen5clone75_$LT$impl$u20$core..clone..Clone$u20$for$u20$syn..path..GenericArgument$GT$5clone17h7d33ab627c63aaf0E', symObjAddr: 0xB5B0, symBinAddr: 0x108D10, symSize: 0x260 }
  - { offsetInCU: 0x9D30, offset: 0x52425F, size: 0x8, addend: 0x0, symName: '__ZN3syn3gen5clone73_$LT$impl$u20$core..clone..Clone$u20$for$u20$syn..path..PathArguments$GT$5clone17h7cb17b15a69204f0E', symObjAddr: 0xB940, symBinAddr: 0x108F70, symSize: 0x1C0 }
  - { offsetInCU: 0xC81F, offset: 0x526D4E, size: 0x8, addend: 0x0, symName: '__ZN4core3ptr100drop_in_place$LT$core..option..Option$LT$alloc..boxed..Box$LT$syn..generics..LifetimeDef$GT$$GT$$GT$17h75a6086997697dd7E', symObjAddr: 0x350, symBinAddr: 0xFE5B0, symSize: 0x150 }
  - { offsetInCU: 0xCD9B, offset: 0x5272CA, size: 0x8, addend: 0x0, symName: '__ZN4core3ptr100drop_in_place$LT$core..option..Option$LT$alloc..boxed..Box$LT$syn..path..GenericArgument$GT$$GT$$GT$17h3d29ec00a8f1918dE', symObjAddr: 0x4A0, symBinAddr: 0xFE700, symSize: 0x50 }
  - { offsetInCU: 0xCF68, offset: 0x527497, size: 0x8, addend: 0x0, symName: '__ZN4core3ptr102drop_in_place$LT$syn..punctuated..Punctuated$LT$syn..path..GenericArgument$C$syn..token..Comma$GT$$GT$17h4b445f97c5aefb0eE.llvm.1713203133839808911', symObjAddr: 0x4F0, symBinAddr: 0xFE750, symSize: 0xF0 }
  - { offsetInCU: 0xD2C2, offset: 0x5277F1, size: 0x8, addend: 0x0, symName: '__ZN4core3ptr103drop_in_place$LT$core..option..Option$LT$alloc..boxed..Box$LT$syn..generics..TypeParamBound$GT$$GT$$GT$17h6cee73bc2b2ecea8E', symObjAddr: 0x5E0, symBinAddr: 0xFE840, symSize: 0x90 }
  - { offsetInCU: 0xD637, offset: 0x527B66, size: 0x8, addend: 0x0, symName: '__ZN4core3ptr103drop_in_place$LT$syn..punctuated..Punctuated$LT$syn..generics..TypeParamBound$C$syn..token..Add$GT$$GT$17he811d520c92af08aE', symObjAddr: 0x670, symBinAddr: 0xFE8D0, symSize: 0x1C0 }
  - { offsetInCU: 0xDE88, offset: 0x5283B7, size: 0x8, addend: 0x0, symName: '__ZN4core3ptr108drop_in_place$LT$syn..punctuated..Punctuated$LT$syn..expr..GenericMethodArgument$C$syn..token..Comma$GT$$GT$17h92cbabe4862b2183E', symObjAddr: 0x830, symBinAddr: 0xFEA90, symSize: 0x150 }
  - { offsetInCU: 0xE3E1, offset: 0x528910, size: 0x8, addend: 0x0, symName: '__ZN4core3ptr34drop_in_place$LT$syn..lit..Lit$GT$17hbe1efe749a08dd9aE', symObjAddr: 0x980, symBinAddr: 0xFEBE0, symSize: 0x110 }
  - { offsetInCU: 0xE853, offset: 0x528D82, size: 0x8, addend: 0x0, symName: '__ZN4core3ptr34drop_in_place$LT$syn..pat..Pat$GT$17h3201f642e43ac2a2E', symObjAddr: 0xA90, symBinAddr: 0xFECF0, symSize: 0x1190 }
  - { offsetInCU: 0x1276B, offset: 0x52CC9A, size: 0x8, addend: 0x0, symName: '__ZN4core3ptr34drop_in_place$LT$syn..ty..Type$GT$17hfb5d159a08190130E.llvm.1713203133839808911', symObjAddr: 0x1C20, symBinAddr: 0xFFE80, symSize: 0x580 }
  - { offsetInCU: 0x1405D, offset: 0x52E58C, size: 0x8, addend: 0x0, symName: '__ZN4core3ptr36drop_in_place$LT$syn..expr..Expr$GT$17hf1921d1b09462bc3E.llvm.1713203133839808911', symObjAddr: 0x21A0, symBinAddr: 0x100400, symSize: 0x3120 }
  - { offsetInCU: 0x1E3E8, offset: 0x538917, size: 0x8, addend: 0x0, symName: '__ZN4core3ptr36drop_in_place$LT$syn..mac..Macro$GT$17h205613d7ad575f72E', symObjAddr: 0x52C0, symBinAddr: 0x103520, symSize: 0x40 }
  - { offsetInCU: 0x1E4DC, offset: 0x538A0B, size: 0x8, addend: 0x0, symName: '__ZN4core3ptr36drop_in_place$LT$syn..path..Path$GT$17he6d0bec66d66b98aE.llvm.1713203133839808911', symObjAddr: 0x5300, symBinAddr: 0x103560, symSize: 0x230 }
  - { offsetInCU: 0x1EE72, offset: 0x5393A1, size: 0x8, addend: 0x0, symName: '__ZN4core3ptr37drop_in_place$LT$syn..stmt..Block$GT$17h3aa429e75a234230E', symObjAddr: 0x5530, symBinAddr: 0x103790, symSize: 0xD0 }
  - { offsetInCU: 0x1F149, offset: 0x539678, size: 0x8, addend: 0x0, symName: '__ZN4core3ptr38drop_in_place$LT$syn..expr..Member$GT$17ha113d37a67d27aafE', symObjAddr: 0x5600, symBinAddr: 0x103860, symSize: 0x30 }
  - { offsetInCU: 0x1F245, offset: 0x539774, size: 0x8, addend: 0x0, symName: '__ZN4core3ptr39drop_in_place$LT$proc_macro2..Ident$GT$17hdeec010483268a0dE.llvm.1713203133839808911', symObjAddr: 0x5630, symBinAddr: 0x103890, symSize: 0x30 }
  - { offsetInCU: 0x1F322, offset: 0x539851, size: 0x8, addend: 0x0, symName: '__ZN4core3ptr39drop_in_place$LT$syn..pat..PatTuple$GT$17h96faeea9832d4c4bE', symObjAddr: 0x5660, symBinAddr: 0x1038C0, symSize: 0x100 }
  - { offsetInCU: 0x1F62B, offset: 0x539B5A, size: 0x8, addend: 0x0, symName: '__ZN4core3ptr40drop_in_place$LT$syn..ty..ReturnType$GT$17h6f97c9fdb958983eE.llvm.1713203133839808911', symObjAddr: 0x57B0, symBinAddr: 0x1039C0, symSize: 0x50 }
  - { offsetInCU: 0x1F79B, offset: 0x539CCA, size: 0x8, addend: 0x0, symName: '__ZN4core3ptr41drop_in_place$LT$syn..expr..ExprBlock$GT$17h7a5a7c5008d30d27E', symObjAddr: 0x5800, symBinAddr: 0x103A10, symSize: 0x1D0 }
  - { offsetInCU: 0x1FEE9, offset: 0x53A418, size: 0x8, addend: 0x0, symName: '__ZN4core3ptr44drop_in_place$LT$syn..lifetime..Lifetime$GT$17h3858225df033648aE.llvm.1713203133839808911', symObjAddr: 0x5A60, symBinAddr: 0x103BE0, symSize: 0x30 }
  - { offsetInCU: 0x20061, offset: 0x53A590, size: 0x8, addend: 0x0, symName: '__ZN4core3ptr44drop_in_place$LT$syn..parse..ParseBuffer$GT$17h19c266fcccc430cbE', symObjAddr: 0x5A90, symBinAddr: 0x103C10, symSize: 0x70 }
  - { offsetInCU: 0x20478, offset: 0x53A9A7, size: 0x8, addend: 0x0, symName: '__ZN4core3ptr45drop_in_place$LT$proc_macro2..TokenStream$GT$17h2507cb30e765dc85E', symObjAddr: 0x5B00, symBinAddr: 0x103C80, symSize: 0x140 }
  - { offsetInCU: 0x208F3, offset: 0x53AE22, size: 0x8, addend: 0x0, symName: '__ZN4core3ptr45drop_in_place$LT$syn..path..PathArguments$GT$17h9dd953520dcdc907E.llvm.1713203133839808911', symObjAddr: 0x5C40, symBinAddr: 0x103DC0, symSize: 0x170 }
  - { offsetInCU: 0x20DDE, offset: 0x53B30D, size: 0x8, addend: 0x0, symName: '__ZN4core3ptr47drop_in_place$LT$syn..path..GenericArgument$GT$17h8c0a0d8c6deaefb4E', symObjAddr: 0x5DB0, symBinAddr: 0x103F30, symSize: 0x110 }
  - { offsetInCU: 0x210F9, offset: 0x53B628, size: 0x8, addend: 0x0, symName: '__ZN4core3ptr58drop_in_place$LT$alloc..vec..Vec$LT$syn..expr..Arm$GT$$GT$17hf3db0825f3d9c861E', symObjAddr: 0x5EC0, symBinAddr: 0x104040, symSize: 0xD0 }
  - { offsetInCU: 0x213B9, offset: 0x53B8E8, size: 0x8, addend: 0x0, symName: '__ZN4core3ptr59drop_in_place$LT$alloc..boxed..Box$LT$syn..pat..Pat$GT$$GT$17h7037ce9bbd3729c6E', symObjAddr: 0x5F90, symBinAddr: 0x104110, symSize: 0x50 }
  - { offsetInCU: 0x21512, offset: 0x53BA41, size: 0x8, addend: 0x0, symName: '__ZN4core3ptr59drop_in_place$LT$alloc..boxed..Box$LT$syn..ty..Type$GT$$GT$17h2eccd13329dbe4faE.llvm.1713203133839808911', symObjAddr: 0x5FE0, symBinAddr: 0x104160, symSize: 0x50 }
  - { offsetInCU: 0x2166B, offset: 0x53BB9A, size: 0x8, addend: 0x0, symName: '__ZN4core3ptr61drop_in_place$LT$alloc..boxed..Box$LT$syn..expr..Expr$GT$$GT$17h66094ddc89015516E', symObjAddr: 0x6030, symBinAddr: 0x1041B0, symSize: 0x50 }
  - { offsetInCU: 0x21840, offset: 0x53BD6F, size: 0x8, addend: 0x0, symName: '__ZN4core3ptr61drop_in_place$LT$syn..path..ParenthesizedGenericArguments$GT$17h21be9b1d7a6fab55E', symObjAddr: 0x6080, symBinAddr: 0x104200, symSize: 0x170 }
  - { offsetInCU: 0x21E36, offset: 0x53C365, size: 0x8, addend: 0x0, symName: '__ZN4core3ptr62drop_in_place$LT$syn..path..AngleBracketedGenericArguments$GT$17hb7a83ee4457fe586E', symObjAddr: 0x61F0, symBinAddr: 0x104370, symSize: 0x120 }
  - { offsetInCU: 0x2227D, offset: 0x53C7AC, size: 0x8, addend: 0x0, symName: '__ZN4core3ptr63drop_in_place$LT$alloc..boxed..Box$LT$syn..lit..LitRepr$GT$$GT$17h9c509b794406150eE', symObjAddr: 0x6310, symBinAddr: 0x104490, symSize: 0x60 }
  - { offsetInCU: 0x22584, offset: 0x53CAB3, size: 0x8, addend: 0x0, symName: '__ZN4core3ptr64drop_in_place$LT$alloc..boxed..Box$LT$syn..pat..FieldPat$GT$$GT$17hb167b355d0d4733fE', symObjAddr: 0x6370, symBinAddr: 0x1044F0, symSize: 0x180 }
  - { offsetInCU: 0x22CA1, offset: 0x53D1D0, size: 0x8, addend: 0x0, symName: '__ZN4core3ptr64drop_in_place$LT$alloc..boxed..Box$LT$syn..ty..BareFnArg$GT$$GT$17h6488be9448346678E', symObjAddr: 0x64F0, symBinAddr: 0x104670, symSize: 0x160 }
  - { offsetInCU: 0x23237, offset: 0x53D766, size: 0x8, addend: 0x0, symName: '__ZN4core3ptr65drop_in_place$LT$alloc..vec..Vec$LT$proc_macro..TokenTree$GT$$GT$17hc3670dd5608d5259E', symObjAddr: 0x6650, symBinAddr: 0x1047D0, symSize: 0x110 }
  - { offsetInCU: 0x2362F, offset: 0x53DB5E, size: 0x8, addend: 0x0, symName: '__ZN4core3ptr65drop_in_place$LT$core..option..Option$LT$syn..expr..Label$GT$$GT$17ha723640fd01bec5dE', symObjAddr: 0x6760, symBinAddr: 0x1048E0, symSize: 0x30 }
  - { offsetInCU: 0x23769, offset: 0x53DC98, size: 0x8, addend: 0x0, symName: '__ZN4core3ptr66drop_in_place$LT$core..option..Option$LT$syn..ty..Variadic$GT$$GT$17hc32134bb3933b0dfE', symObjAddr: 0x6790, symBinAddr: 0x104910, symSize: 0xF0 }
  - { offsetInCU: 0x23A93, offset: 0x53DFC2, size: 0x8, addend: 0x0, symName: '__ZN4core3ptr67drop_in_place$LT$alloc..boxed..Box$LT$syn..expr..FieldValue$GT$$GT$17h8df780aa600ea8c2E', symObjAddr: 0x6880, symBinAddr: 0x104A00, symSize: 0x160 }
  - { offsetInCU: 0x24009, offset: 0x53E538, size: 0x8, addend: 0x0, symName: '__ZN4core3ptr68drop_in_place$LT$alloc..boxed..Box$LT$syn..path..PathSegment$GT$$GT$17h1957b54eed39c0bbE.llvm.1713203133839808911', symObjAddr: 0x69E0, symBinAddr: 0x104B60, symSize: 0x190 }
  - { offsetInCU: 0x24713, offset: 0x53EC42, size: 0x8, addend: 0x0, symName: '__ZN4core3ptr72drop_in_place$LT$alloc..boxed..Box$LT$syn..path..GenericArgument$GT$$GT$17ha8f8136d0c2b505bE.llvm.1713203133839808911', symObjAddr: 0x6B70, symBinAddr: 0x104CF0, symSize: 0x180 }
  - { offsetInCU: 0x24DB3, offset: 0x53F2E2, size: 0x8, addend: 0x0, symName: '__ZN4core3ptr72drop_in_place$LT$core..option..Option$LT$syn..lifetime..Lifetime$GT$$GT$17h31b55b93749c174dE', symObjAddr: 0x6CF0, symBinAddr: 0x104E70, symSize: 0x30 }
  - { offsetInCU: 0x24ECE, offset: 0x53F3FD, size: 0x8, addend: 0x0, symName: '__ZN4core3ptr75drop_in_place$LT$alloc..boxed..Box$LT$syn..generics..TypeParamBound$GT$$GT$17h8f156ce07ea0b8b2E', symObjAddr: 0x6D20, symBinAddr: 0x104EA0, symSize: 0x140 }
  - { offsetInCU: 0x25429, offset: 0x53F958, size: 0x8, addend: 0x0, symName: '__ZN4core3ptr78drop_in_place$LT$alloc..boxed..Box$LT$syn..expr..GenericMethodArgument$GT$$GT$17h3384c00b5bd54c2aE', symObjAddr: 0x6E60, symBinAddr: 0x104FE0, symSize: 0x60 }
  - { offsetInCU: 0x2561B, offset: 0x53FB4A, size: 0x8, addend: 0x0, symName: '__ZN4core3ptr78drop_in_place$LT$core..option..Option$LT$syn..generics..BoundLifetimes$GT$$GT$17h8175e66ad0c4a156E', symObjAddr: 0x6EC0, symBinAddr: 0x105040, symSize: 0xE0 }
  - { offsetInCU: 0x25998, offset: 0x53FEC7, size: 0x8, addend: 0x0, symName: '__ZN4core3ptr86drop_in_place$LT$syn..punctuated..Punctuated$LT$syn..pat..Pat$C$syn..token..Or$GT$$GT$17h1078c5d178d382b7E', symObjAddr: 0x6FA0, symBinAddr: 0x105120, symSize: 0x120 }
  - { offsetInCU: 0x25E13, offset: 0x540342, size: 0x8, addend: 0x0, symName: '__ZN4core3ptr87drop_in_place$LT$core..option..Option$LT$alloc..boxed..Box$LT$syn..pat..Pat$GT$$GT$$GT$17ha7f5fe0e6f73e820E', symObjAddr: 0x70C0, symBinAddr: 0x105240, symSize: 0x50 }
  - { offsetInCU: 0x25F83, offset: 0x5404B2, size: 0x8, addend: 0x0, symName: '__ZN4core3ptr87drop_in_place$LT$core..option..Option$LT$alloc..boxed..Box$LT$syn..ty..Type$GT$$GT$$GT$17hc8292da82d129de3E', symObjAddr: 0x7110, symBinAddr: 0x105290, symSize: 0x50 }
  - { offsetInCU: 0x260F3, offset: 0x540622, size: 0x8, addend: 0x0, symName: '__ZN4core3ptr89drop_in_place$LT$core..option..Option$LT$alloc..boxed..Box$LT$syn..expr..Expr$GT$$GT$$GT$17hdc211ccd33f196f2E', symObjAddr: 0x7160, symBinAddr: 0x1052E0, symSize: 0x50 }
  - { offsetInCU: 0x262A1, offset: 0x5407D0, size: 0x8, addend: 0x0, symName: '__ZN4core3ptr89drop_in_place$LT$syn..punctuated..Punctuated$LT$syn..pat..Pat$C$syn..token..Comma$GT$$GT$17hf8371102b0500adcE', symObjAddr: 0x71B0, symBinAddr: 0x105330, symSize: 0x120 }
  - { offsetInCU: 0x26733, offset: 0x540C62, size: 0x8, addend: 0x0, symName: '__ZN4core3ptr89drop_in_place$LT$syn..punctuated..Punctuated$LT$syn..ty..Type$C$syn..token..Comma$GT$$GT$17h1c6e43341fabea97E.llvm.1713203133839808911', symObjAddr: 0x72D0, symBinAddr: 0x105450, symSize: 0x120 }
  - { offsetInCU: 0x26BEC, offset: 0x54111B, size: 0x8, addend: 0x0, symName: '__ZN4core3ptr91drop_in_place$LT$syn..punctuated..Punctuated$LT$syn..expr..Expr$C$syn..token..Comma$GT$$GT$17hd2dfeb0c522d9a18E', symObjAddr: 0x73F0, symBinAddr: 0x105570, symSize: 0x120 }
  - { offsetInCU: 0x2707A, offset: 0x5415A9, size: 0x8, addend: 0x0, symName: '__ZN4core3ptr94drop_in_place$LT$syn..punctuated..Punctuated$LT$syn..pat..FieldPat$C$syn..token..Comma$GT$$GT$17h612cbc9066d5afb1E', symObjAddr: 0x7510, symBinAddr: 0x105690, symSize: 0xF0 }
  - { offsetInCU: 0x27379, offset: 0x5418A8, size: 0x8, addend: 0x0, symName: '__ZN4core3ptr94drop_in_place$LT$syn..punctuated..Punctuated$LT$syn..ty..BareFnArg$C$syn..token..Comma$GT$$GT$17ha9a668ce9972795bE', symObjAddr: 0x7600, symBinAddr: 0x105780, symSize: 0xF0 }
  - { offsetInCU: 0x27676, offset: 0x541BA5, size: 0x8, addend: 0x0, symName: '__ZN4core3ptr96drop_in_place$LT$core..option..Option$LT$alloc..boxed..Box$LT$syn..path..PathSegment$GT$$GT$$GT$17h2e81cbe3c70bb71cE', symObjAddr: 0x76F0, symBinAddr: 0x105870, symSize: 0x90 }
  - { offsetInCU: 0x278F5, offset: 0x541E24, size: 0x8, addend: 0x0, symName: '__ZN4core3ptr97drop_in_place$LT$syn..punctuated..Punctuated$LT$syn..expr..FieldValue$C$syn..token..Comma$GT$$GT$17h11a5fffb46adfb11E', symObjAddr: 0x7780, symBinAddr: 0x105900, symSize: 0xF0 }
  - { offsetInCU: 0x27C6E, offset: 0x54219D, size: 0x8, addend: 0x0, symName: '__ZN4core3ptr97drop_in_place$LT$syn..punctuated..Punctuated$LT$syn..lifetime..Lifetime$C$syn..token..Add$GT$$GT$17h5c54dea2c838d109E', symObjAddr: 0x7870, symBinAddr: 0x1059F0, symSize: 0xD0 }
  - { offsetInCU: 0x280E2, offset: 0x542611, size: 0x8, addend: 0x0, symName: '__ZN4core3ptr99drop_in_place$LT$syn..punctuated..Punctuated$LT$syn..path..PathSegment$C$syn..token..Colon2$GT$$GT$17hb961e4d7989a33ceE.llvm.1713203133839808911', symObjAddr: 0x7940, symBinAddr: 0x105AC0, symSize: 0x140 }
  - { offsetInCU: 0x2FA03, offset: 0x549F32, size: 0x8, addend: 0x0, symName: '__ZN52_$LT$$RF$T$u20$as$u20$quote..to_tokens..ToTokens$GT$9to_tokens17h2d6aa787d2429e16E', symObjAddr: 0x7A80, symBinAddr: 0x105C00, symSize: 0xB0 }
  - { offsetInCU: 0x30841, offset: 0x54AD70, size: 0x8, addend: 0x0, symName: '__ZN3syn4path7parsing40_$LT$impl$u20$syn..path..PathSegment$GT$12parse_helper17h315cd3b895d45170E', symObjAddr: 0x9DC0, symBinAddr: 0x107BE0, symSize: 0x310 }
  - { offsetInCU: 0x31451, offset: 0x54B980, size: 0x8, addend: 0x0, symName: '__ZN3syn4path7parsing33_$LT$impl$u20$syn..path..Path$GT$15parse_mod_style17hc569c4a93b3c1904E', symObjAddr: 0xA470, symBinAddr: 0x108080, symSize: 0x390 }
  - { offsetInCU: 0x31D1C, offset: 0x54C24B, size: 0x8, addend: 0x0, symName: '__ZN3syn4path7parsing33_$LT$impl$u20$syn..path..Path$GT$12parse_helper17hb97968e16ccb5f02E', symObjAddr: 0xA890, symBinAddr: 0x108410, symSize: 0x2E0 }
  - { offsetInCU: 0x3208C, offset: 0x54C5BB, size: 0x8, addend: 0x0, symName: '__ZN3syn4path7parsing33_$LT$impl$u20$syn..path..Path$GT$10parse_rest17h0209a536f8923d05E', symObjAddr: 0xAB70, symBinAddr: 0x1086F0, symSize: 0x1D0 }
  - { offsetInCU: 0x1E, offset: 0x551318, size: 0x8, addend: 0x0, symName: '__ZN4core3fmt3num49_$LT$impl$u20$core..fmt..Debug$u20$for$u20$u8$GT$3fmt17hc788f910a40d7410E', symObjAddr: 0x0, symBinAddr: 0x109130, symSize: 0x30 }
  - { offsetInCU: 0x52B, offset: 0x551825, size: 0x8, addend: 0x0, symName: '__ZN4core3ptr46drop_in_place$LT$alloc..vec..Vec$LT$u8$GT$$GT$17hee6a0afce2ae0617E', symObjAddr: 0x30, symBinAddr: 0x109160, symSize: 0x20 }
  - { offsetInCU: 0x633, offset: 0x55192D, size: 0x8, addend: 0x0, symName: '__ZN4core3ptr49drop_in_place$LT$alloc..string..FromUtf8Error$GT$17h22a11533a311fef2E', symObjAddr: 0x50, symBinAddr: 0x109180, symSize: 0x20 }
  - { offsetInCU: 0x2308, offset: 0x553602, size: 0x8, addend: 0x0, symName: '__ZN4core3fmt3num49_$LT$impl$u20$core..fmt..Debug$u20$for$u20$u8$GT$3fmt17hc788f910a40d7410E', symObjAddr: 0x0, symBinAddr: 0x109130, symSize: 0x30 }
  - { offsetInCU: 0x38CA, offset: 0x554BC4, size: 0x8, addend: 0x0, symName: '__ZN65_$LT$alloc..string..FromUtf8Error$u20$as$u20$core..fmt..Debug$GT$3fmt17h0c1e2aafb1cc24ffE', symObjAddr: 0x70, symBinAddr: 0x1091A0, symSize: 0x70 }
  - { offsetInCU: 0x477D, offset: 0x555A77, size: 0x8, addend: 0x0, symName: _anon.e4a1ff2ca11180236fdf8c7d42f54c4c.2.llvm.7957929171610032867, symObjAddr: 0x3190, symBinAddr: 0x234DB0, symSize: 0x0 }
  - { offsetInCU: 0x4B10, offset: 0x555E0A, size: 0x8, addend: 0x0, symName: __ZN3syn3lit5value13parse_lit_str17hbd973b9d52466f19E, symObjAddr: 0x100, symBinAddr: 0x109210, symSize: 0x930 }
  - { offsetInCU: 0x6474, offset: 0x55776E, size: 0x8, addend: 0x0, symName: __ZN3syn3lit5value17parse_lit_str_raw17h4ba7d09dfe730728E, symObjAddr: 0xA30, symBinAddr: 0x109B40, symSize: 0x3C0 }
  - { offsetInCU: 0x7768, offset: 0x558A62, size: 0x8, addend: 0x0, symName: __ZN3syn3lit5value18parse_lit_byte_str17hb4dd1a03502d579aE, symObjAddr: 0xDF0, symBinAddr: 0x109F00, symSize: 0x5F0 }
  - { offsetInCU: 0x8A25, offset: 0x559D1F, size: 0x8, addend: 0x0, symName: __ZN3syn3lit5value14parse_lit_byte17hcc7df3facb545454E, symObjAddr: 0x13E0, symBinAddr: 0x10A4F0, symSize: 0x370 }
  - { offsetInCU: 0x9548, offset: 0x55A842, size: 0x8, addend: 0x0, symName: __ZN3syn3lit5value14parse_lit_char17h348f0e160d8a3e47E, symObjAddr: 0x1750, symBinAddr: 0x10A860, symSize: 0x500 }
  - { offsetInCU: 0xA27E, offset: 0x55B578, size: 0x8, addend: 0x0, symName: __ZN3syn3lit5value11backslash_x17h6eb85bccb7434fb3E, symObjAddr: 0x1C50, symBinAddr: 0x10AD60, symSize: 0x110 }
  - { offsetInCU: 0xA513, offset: 0x55B80D, size: 0x8, addend: 0x0, symName: __ZN3syn3lit5value11backslash_x17he2dbe8f92999d67fE, symObjAddr: 0x1D60, symBinAddr: 0x10AE70, symSize: 0xF0 }
  - { offsetInCU: 0xA73C, offset: 0x55BA36, size: 0x8, addend: 0x0, symName: __ZN3syn3lit5value11backslash_u17hdba6d5717606d882E, symObjAddr: 0x1E50, symBinAddr: 0x10AF60, symSize: 0x320 }
  - { offsetInCU: 0xAEFF, offset: 0x55C1F9, size: 0x8, addend: 0x0, symName: __ZN3syn3lit5value13parse_lit_int17h50396dbb0b2b3541E, symObjAddr: 0x2170, symBinAddr: 0x10B280, symSize: 0x690 }
  - { offsetInCU: 0xC3DB, offset: 0x55D6D5, size: 0x8, addend: 0x0, symName: __ZN3syn3lit5value15parse_lit_float17h410f89a332685d14E, symObjAddr: 0x2800, symBinAddr: 0x10B910, symSize: 0x7A0 }
  - { offsetInCU: 0x1E, offset: 0x55FDD5, size: 0x8, addend: 0x0, symName: '__ZN4core3ptr100drop_in_place$LT$core..option..Option$LT$alloc..boxed..Box$LT$syn..generics..LifetimeDef$GT$$GT$$GT$17h75a6086997697dd7E', symObjAddr: 0x0, symBinAddr: 0x10C0B0, symSize: 0x150 }
  - { offsetInCU: 0x99A, offset: 0x560751, size: 0x8, addend: 0x0, symName: '__ZN4core3ptr100drop_in_place$LT$core..option..Option$LT$alloc..boxed..Box$LT$syn..generics..LifetimeDef$GT$$GT$$GT$17h75a6086997697dd7E', symObjAddr: 0x0, symBinAddr: 0x10C0B0, symSize: 0x150 }
  - { offsetInCU: 0xF16, offset: 0x560CCD, size: 0x8, addend: 0x0, symName: '__ZN4core3ptr100drop_in_place$LT$core..option..Option$LT$alloc..boxed..Box$LT$syn..path..GenericArgument$GT$$GT$$GT$17h3d29ec00a8f1918dE', symObjAddr: 0x150, symBinAddr: 0x10C200, symSize: 0x50 }
  - { offsetInCU: 0x10E3, offset: 0x560E9A, size: 0x8, addend: 0x0, symName: '__ZN4core3ptr103drop_in_place$LT$core..option..Option$LT$alloc..boxed..Box$LT$syn..generics..TypeParamBound$GT$$GT$$GT$17h6cee73bc2b2ecea8E', symObjAddr: 0x1A0, symBinAddr: 0x10C250, symSize: 0x90 }
  - { offsetInCU: 0x1458, offset: 0x56120F, size: 0x8, addend: 0x0, symName: '__ZN4core3ptr103drop_in_place$LT$syn..punctuated..Punctuated$LT$syn..generics..TypeParamBound$C$syn..token..Add$GT$$GT$17he811d520c92af08aE', symObjAddr: 0x230, symBinAddr: 0x10C2E0, symSize: 0x1C0 }
  - { offsetInCU: 0x1CA9, offset: 0x561A60, size: 0x8, addend: 0x0, symName: '__ZN4core3ptr108drop_in_place$LT$syn..punctuated..Punctuated$LT$syn..expr..GenericMethodArgument$C$syn..token..Comma$GT$$GT$17h92cbabe4862b2183E', symObjAddr: 0x3F0, symBinAddr: 0x10C4A0, symSize: 0x150 }
  - { offsetInCU: 0x2202, offset: 0x561FB9, size: 0x8, addend: 0x0, symName: '__ZN4core3ptr34drop_in_place$LT$syn..lit..Lit$GT$17hbe1efe749a08dd9aE', symObjAddr: 0x540, symBinAddr: 0x10C5F0, symSize: 0x110 }
  - { offsetInCU: 0x2674, offset: 0x56242B, size: 0x8, addend: 0x0, symName: '__ZN4core3ptr34drop_in_place$LT$syn..pat..Pat$GT$17h3201f642e43ac2a2E', symObjAddr: 0x650, symBinAddr: 0x10C700, symSize: 0x1180 }
  - { offsetInCU: 0x654C, offset: 0x566303, size: 0x8, addend: 0x0, symName: '__ZN4core3ptr34drop_in_place$LT$syn..ty..Type$GT$17hfb5d159a08190130E', symObjAddr: 0x17D0, symBinAddr: 0x10D880, symSize: 0x580 }
  - { offsetInCU: 0x7E5D, offset: 0x567C14, size: 0x8, addend: 0x0, symName: '__ZN4core3ptr36drop_in_place$LT$syn..expr..Expr$GT$17hf1921d1b09462bc3E', symObjAddr: 0x1D50, symBinAddr: 0x10DE00, symSize: 0x32B0 }
  - { offsetInCU: 0x127E1, offset: 0x572598, size: 0x8, addend: 0x0, symName: '__ZN4core3ptr36drop_in_place$LT$syn..mac..Macro$GT$17h205613d7ad575f72E', symObjAddr: 0x5000, symBinAddr: 0x1110B0, symSize: 0x40 }
  - { offsetInCU: 0x12932, offset: 0x5726E9, size: 0x8, addend: 0x0, symName: '__ZN4core3ptr36drop_in_place$LT$syn..path..Path$GT$17he6d0bec66d66b98aE', symObjAddr: 0x5040, symBinAddr: 0x1110F0, symSize: 0x230 }
  - { offsetInCU: 0x132C8, offset: 0x57307F, size: 0x8, addend: 0x0, symName: '__ZN4core3ptr37drop_in_place$LT$syn..stmt..Block$GT$17h3aa429e75a234230E', symObjAddr: 0x5270, symBinAddr: 0x111320, symSize: 0xD0 }
  - { offsetInCU: 0x1359F, offset: 0x573356, size: 0x8, addend: 0x0, symName: '__ZN4core3ptr38drop_in_place$LT$syn..expr..Member$GT$17ha113d37a67d27aafE', symObjAddr: 0x5340, symBinAddr: 0x1113F0, symSize: 0x30 }
  - { offsetInCU: 0x1369B, offset: 0x573452, size: 0x8, addend: 0x0, symName: '__ZN4core3ptr39drop_in_place$LT$proc_macro2..Ident$GT$17hdeec010483268a0dE', symObjAddr: 0x5370, symBinAddr: 0x111420, symSize: 0x30 }
  - { offsetInCU: 0x13778, offset: 0x57352F, size: 0x8, addend: 0x0, symName: '__ZN4core3ptr39drop_in_place$LT$syn..pat..PatTuple$GT$17h96faeea9832d4c4bE', symObjAddr: 0x53A0, symBinAddr: 0x111450, symSize: 0x100 }
  - { offsetInCU: 0x13A81, offset: 0x573838, size: 0x8, addend: 0x0, symName: '__ZN4core3ptr40drop_in_place$LT$syn..ty..ReturnType$GT$17h6f97c9fdb958983eE', symObjAddr: 0x54A0, symBinAddr: 0x111550, symSize: 0x50 }
  - { offsetInCU: 0x13BF1, offset: 0x5739A8, size: 0x8, addend: 0x0, symName: '__ZN4core3ptr44drop_in_place$LT$syn..lifetime..Lifetime$GT$17h3858225df033648aE', symObjAddr: 0x54F0, symBinAddr: 0x1115A0, symSize: 0x30 }
  - { offsetInCU: 0x13D69, offset: 0x573B20, size: 0x8, addend: 0x0, symName: '__ZN4core3ptr44drop_in_place$LT$syn..parse..ParseBuffer$GT$17h19c266fcccc430cbE', symObjAddr: 0x5520, symBinAddr: 0x1115D0, symSize: 0x70 }
  - { offsetInCU: 0x14180, offset: 0x573F37, size: 0x8, addend: 0x0, symName: '__ZN4core3ptr45drop_in_place$LT$proc_macro2..TokenStream$GT$17h2507cb30e765dc85E', symObjAddr: 0x5590, symBinAddr: 0x111640, symSize: 0x140 }
  - { offsetInCU: 0x145DC, offset: 0x574393, size: 0x8, addend: 0x0, symName: '__ZN4core3ptr45drop_in_place$LT$syn..pat..PatTupleStruct$GT$17he53e5cc6ddf8805eE', symObjAddr: 0x56D0, symBinAddr: 0x111780, symSize: 0x1E0 }
  - { offsetInCU: 0x14C3D, offset: 0x5749F4, size: 0x8, addend: 0x0, symName: '__ZN4core3ptr47drop_in_place$LT$syn..path..GenericArgument$GT$17h8c0a0d8c6deaefb4E', symObjAddr: 0x58B0, symBinAddr: 0x111960, symSize: 0x110 }
  - { offsetInCU: 0x14F58, offset: 0x574D0F, size: 0x8, addend: 0x0, symName: '__ZN4core3ptr58drop_in_place$LT$alloc..vec..Vec$LT$syn..expr..Arm$GT$$GT$17hf3db0825f3d9c861E', symObjAddr: 0x59C0, symBinAddr: 0x111A70, symSize: 0xD0 }
  - { offsetInCU: 0x15218, offset: 0x574FCF, size: 0x8, addend: 0x0, symName: '__ZN4core3ptr59drop_in_place$LT$alloc..boxed..Box$LT$syn..pat..Pat$GT$$GT$17h7037ce9bbd3729c6E', symObjAddr: 0x5A90, symBinAddr: 0x111B40, symSize: 0x50 }
  - { offsetInCU: 0x15371, offset: 0x575128, size: 0x8, addend: 0x0, symName: '__ZN4core3ptr59drop_in_place$LT$alloc..boxed..Box$LT$syn..ty..Type$GT$$GT$17h2eccd13329dbe4faE', symObjAddr: 0x5AE0, symBinAddr: 0x111B90, symSize: 0x50 }
  - { offsetInCU: 0x154CA, offset: 0x575281, size: 0x8, addend: 0x0, symName: '__ZN4core3ptr61drop_in_place$LT$alloc..boxed..Box$LT$syn..expr..Expr$GT$$GT$17h66094ddc89015516E', symObjAddr: 0x5B30, symBinAddr: 0x111BE0, symSize: 0x50 }
  - { offsetInCU: 0x1569F, offset: 0x575456, size: 0x8, addend: 0x0, symName: '__ZN4core3ptr61drop_in_place$LT$syn..path..ParenthesizedGenericArguments$GT$17h21be9b1d7a6fab55E', symObjAddr: 0x5B80, symBinAddr: 0x111C30, symSize: 0x170 }
  - { offsetInCU: 0x15C95, offset: 0x575A4C, size: 0x8, addend: 0x0, symName: '__ZN4core3ptr63drop_in_place$LT$alloc..boxed..Box$LT$syn..lit..LitRepr$GT$$GT$17h9c509b794406150eE', symObjAddr: 0x5CF0, symBinAddr: 0x111DA0, symSize: 0x60 }
  - { offsetInCU: 0x15F9C, offset: 0x575D53, size: 0x8, addend: 0x0, symName: '__ZN4core3ptr64drop_in_place$LT$alloc..boxed..Box$LT$syn..pat..FieldPat$GT$$GT$17hb167b355d0d4733fE', symObjAddr: 0x5D50, symBinAddr: 0x111E00, symSize: 0x180 }
  - { offsetInCU: 0x166B9, offset: 0x576470, size: 0x8, addend: 0x0, symName: '__ZN4core3ptr64drop_in_place$LT$alloc..boxed..Box$LT$syn..ty..BareFnArg$GT$$GT$17h6488be9448346678E', symObjAddr: 0x5ED0, symBinAddr: 0x111F80, symSize: 0x160 }
  - { offsetInCU: 0x16C4F, offset: 0x576A06, size: 0x8, addend: 0x0, symName: '__ZN4core3ptr64drop_in_place$LT$alloc..vec..Vec$LT$syn..attr..Attribute$GT$$GT$17h386324d8ea9bc309E.llvm.13640016474283498785', symObjAddr: 0x6030, symBinAddr: 0x1120E0, symSize: 0xF0 }
  - { offsetInCU: 0x16F45, offset: 0x576CFC, size: 0x8, addend: 0x0, symName: '__ZN4core3ptr65drop_in_place$LT$alloc..vec..Vec$LT$proc_macro..TokenTree$GT$$GT$17hc3670dd5608d5259E', symObjAddr: 0x6120, symBinAddr: 0x1121D0, symSize: 0x110 }
  - { offsetInCU: 0x1733D, offset: 0x5770F4, size: 0x8, addend: 0x0, symName: '__ZN4core3ptr65drop_in_place$LT$core..option..Option$LT$syn..expr..Label$GT$$GT$17ha723640fd01bec5dE', symObjAddr: 0x6230, symBinAddr: 0x1122E0, symSize: 0x30 }
  - { offsetInCU: 0x17477, offset: 0x57722E, size: 0x8, addend: 0x0, symName: '__ZN4core3ptr65drop_in_place$LT$core..option..Option$LT$syn..path..QSelf$GT$$GT$17h213ca1c3399df9f2E', symObjAddr: 0x6260, symBinAddr: 0x112310, symSize: 0x50 }
  - { offsetInCU: 0x1760E, offset: 0x5773C5, size: 0x8, addend: 0x0, symName: '__ZN4core3ptr66drop_in_place$LT$core..option..Option$LT$syn..ty..Variadic$GT$$GT$17hc32134bb3933b0dfE', symObjAddr: 0x62B0, symBinAddr: 0x112360, symSize: 0xF0 }
  - { offsetInCU: 0x17938, offset: 0x5776EF, size: 0x8, addend: 0x0, symName: '__ZN4core3ptr67drop_in_place$LT$alloc..boxed..Box$LT$syn..expr..FieldValue$GT$$GT$17h8df780aa600ea8c2E', symObjAddr: 0x63A0, symBinAddr: 0x112450, symSize: 0x160 }
  - { offsetInCU: 0x17ECD, offset: 0x577C84, size: 0x8, addend: 0x0, symName: '__ZN4core3ptr68drop_in_place$LT$alloc..boxed..Box$LT$syn..path..PathSegment$GT$$GT$17h1957b54eed39c0bbE', symObjAddr: 0x6500, symBinAddr: 0x1125B0, symSize: 0x190 }
  - { offsetInCU: 0x185F6, offset: 0x5783AD, size: 0x8, addend: 0x0, symName: '__ZN4core3ptr72drop_in_place$LT$alloc..boxed..Box$LT$syn..path..GenericArgument$GT$$GT$17ha8f8136d0c2b505bE', symObjAddr: 0x6690, symBinAddr: 0x112740, symSize: 0x180 }
  - { offsetInCU: 0x18C96, offset: 0x578A4D, size: 0x8, addend: 0x0, symName: '__ZN4core3ptr72drop_in_place$LT$core..option..Option$LT$syn..lifetime..Lifetime$GT$$GT$17h31b55b93749c174dE', symObjAddr: 0x6810, symBinAddr: 0x1128C0, symSize: 0x30 }
  - { offsetInCU: 0x18DB1, offset: 0x578B68, size: 0x8, addend: 0x0, symName: '__ZN4core3ptr75drop_in_place$LT$alloc..boxed..Box$LT$syn..generics..TypeParamBound$GT$$GT$17h8f156ce07ea0b8b2E', symObjAddr: 0x6840, symBinAddr: 0x1128F0, symSize: 0x140 }
  - { offsetInCU: 0x1930C, offset: 0x5790C3, size: 0x8, addend: 0x0, symName: '__ZN4core3ptr78drop_in_place$LT$alloc..boxed..Box$LT$syn..expr..GenericMethodArgument$GT$$GT$17h3384c00b5bd54c2aE', symObjAddr: 0x6980, symBinAddr: 0x112A30, symSize: 0x60 }
  - { offsetInCU: 0x194FE, offset: 0x5792B5, size: 0x8, addend: 0x0, symName: '__ZN4core3ptr78drop_in_place$LT$core..option..Option$LT$syn..generics..BoundLifetimes$GT$$GT$17h8175e66ad0c4a156E', symObjAddr: 0x69E0, symBinAddr: 0x112A90, symSize: 0xE0 }
  - { offsetInCU: 0x1987B, offset: 0x579632, size: 0x8, addend: 0x0, symName: '__ZN4core3ptr86drop_in_place$LT$syn..punctuated..Punctuated$LT$syn..pat..Pat$C$syn..token..Or$GT$$GT$17h1078c5d178d382b7E', symObjAddr: 0x6AC0, symBinAddr: 0x112B70, symSize: 0x120 }
  - { offsetInCU: 0x19CF6, offset: 0x579AAD, size: 0x8, addend: 0x0, symName: '__ZN4core3ptr87drop_in_place$LT$core..option..Option$LT$alloc..boxed..Box$LT$syn..pat..Pat$GT$$GT$$GT$17ha7f5fe0e6f73e820E', symObjAddr: 0x6BE0, symBinAddr: 0x112C90, symSize: 0x50 }
  - { offsetInCU: 0x19E66, offset: 0x579C1D, size: 0x8, addend: 0x0, symName: '__ZN4core3ptr87drop_in_place$LT$core..option..Option$LT$alloc..boxed..Box$LT$syn..ty..Type$GT$$GT$$GT$17hc8292da82d129de3E', symObjAddr: 0x6C30, symBinAddr: 0x112CE0, symSize: 0x50 }
  - { offsetInCU: 0x19FD6, offset: 0x579D8D, size: 0x8, addend: 0x0, symName: '__ZN4core3ptr89drop_in_place$LT$core..option..Option$LT$alloc..boxed..Box$LT$syn..expr..Expr$GT$$GT$$GT$17hdc211ccd33f196f2E', symObjAddr: 0x6C80, symBinAddr: 0x112D30, symSize: 0x50 }
  - { offsetInCU: 0x1A184, offset: 0x579F3B, size: 0x8, addend: 0x0, symName: '__ZN4core3ptr89drop_in_place$LT$syn..punctuated..Punctuated$LT$syn..pat..Pat$C$syn..token..Comma$GT$$GT$17hf8371102b0500adcE', symObjAddr: 0x6CD0, symBinAddr: 0x112D80, symSize: 0x120 }
  - { offsetInCU: 0x1A616, offset: 0x57A3CD, size: 0x8, addend: 0x0, symName: '__ZN4core3ptr89drop_in_place$LT$syn..punctuated..Punctuated$LT$syn..ty..Type$C$syn..token..Comma$GT$$GT$17h1c6e43341fabea97E', symObjAddr: 0x6DF0, symBinAddr: 0x112EA0, symSize: 0x120 }
  - { offsetInCU: 0x1AACF, offset: 0x57A886, size: 0x8, addend: 0x0, symName: '__ZN4core3ptr91drop_in_place$LT$syn..punctuated..Punctuated$LT$syn..expr..Expr$C$syn..token..Comma$GT$$GT$17hd2dfeb0c522d9a18E', symObjAddr: 0x6F10, symBinAddr: 0x112FC0, symSize: 0x120 }
  - { offsetInCU: 0x1AF5D, offset: 0x57AD14, size: 0x8, addend: 0x0, symName: '__ZN4core3ptr94drop_in_place$LT$syn..punctuated..Punctuated$LT$syn..pat..FieldPat$C$syn..token..Comma$GT$$GT$17h612cbc9066d5afb1E', symObjAddr: 0x7030, symBinAddr: 0x1130E0, symSize: 0xF0 }
  - { offsetInCU: 0x1B25C, offset: 0x57B013, size: 0x8, addend: 0x0, symName: '__ZN4core3ptr94drop_in_place$LT$syn..punctuated..Punctuated$LT$syn..ty..BareFnArg$C$syn..token..Comma$GT$$GT$17ha9a668ce9972795bE', symObjAddr: 0x7120, symBinAddr: 0x1131D0, symSize: 0xF0 }
  - { offsetInCU: 0x1B559, offset: 0x57B310, size: 0x8, addend: 0x0, symName: '__ZN4core3ptr96drop_in_place$LT$core..option..Option$LT$alloc..boxed..Box$LT$syn..path..PathSegment$GT$$GT$$GT$17h2e81cbe3c70bb71cE', symObjAddr: 0x7210, symBinAddr: 0x1132C0, symSize: 0x180 }
  - { offsetInCU: 0x1BC16, offset: 0x57B9CD, size: 0x8, addend: 0x0, symName: '__ZN4core3ptr97drop_in_place$LT$syn..punctuated..Punctuated$LT$syn..expr..FieldValue$C$syn..token..Comma$GT$$GT$17h11a5fffb46adfb11E', symObjAddr: 0x7390, symBinAddr: 0x113440, symSize: 0xF0 }
  - { offsetInCU: 0x1BF8F, offset: 0x57BD46, size: 0x8, addend: 0x0, symName: '__ZN4core3ptr97drop_in_place$LT$syn..punctuated..Punctuated$LT$syn..lifetime..Lifetime$C$syn..token..Add$GT$$GT$17h5c54dea2c838d109E', symObjAddr: 0x7480, symBinAddr: 0x113530, symSize: 0xD0 }
  - { offsetInCU: 0x1C403, offset: 0x57C1BA, size: 0x8, addend: 0x0, symName: '__ZN4core3ptr99drop_in_place$LT$syn..punctuated..Punctuated$LT$syn..path..PathSegment$C$syn..token..Colon2$GT$$GT$17hb961e4d7989a33ceE', symObjAddr: 0x7550, symBinAddr: 0x113600, symSize: 0x250 }
  - { offsetInCU: 0x1FEBF, offset: 0x57FC76, size: 0x8, addend: 0x0, symName: __ZN5alloc5alloc15exchange_malloc17h9a87608d0224859dE, symObjAddr: 0x77A0, symBinAddr: 0x113850, symSize: 0x40 }
  - { offsetInCU: 0x204F9, offset: 0x5802B0, size: 0x8, addend: 0x0, symName: __ZN3syn3pat7parsing36pat_path_or_macro_or_struct_or_range17h77fdbd2532535a18E, symObjAddr: 0x77E0, symBinAddr: 0x113890, symSize: 0x23C0 }
  - { offsetInCU: 0x24206, offset: 0x583FBD, size: 0x8, addend: 0x0, symName: __ZN3syn3pat7parsing8pat_wild17h801e7bc3e19f5f27E, symObjAddr: 0x9BA0, symBinAddr: 0x115C50, symSize: 0xA0 }
  - { offsetInCU: 0x24312, offset: 0x5840C9, size: 0x8, addend: 0x0, symName: __ZN3syn3pat7parsing7pat_box17h5b7431e3f4841a91E, symObjAddr: 0x9C40, symBinAddr: 0x115CF0, symSize: 0x1C0 }
  - { offsetInCU: 0x24665, offset: 0x58441C, size: 0x8, addend: 0x0, symName: __ZN3syn3pat7parsing9pat_ident17h5ec86c8d897d16bfE, symObjAddr: 0x9E00, symBinAddr: 0x115EB0, symSize: 0x4C0 }
  - { offsetInCU: 0x24F57, offset: 0x584D0E, size: 0x8, addend: 0x0, symName: __ZN3syn3pat7parsing19pat_range_half_open17he62c2328c73f8713E, symObjAddr: 0xA2C0, symBinAddr: 0x116370, symSize: 0x250 }
  - { offsetInCU: 0x255C8, offset: 0x58537F, size: 0x8, addend: 0x0, symName: __ZN3syn3pat7parsing9pat_tuple17h2de53ab4e0e48f46E, symObjAddr: 0xA510, symBinAddr: 0x1165C0, symSize: 0x3B0 }
  - { offsetInCU: 0x25C5C, offset: 0x585A13, size: 0x8, addend: 0x0, symName: __ZN3syn3pat7parsing13pat_reference17h6b5aba77e5ca8e0fE, symObjAddr: 0xA8C0, symBinAddr: 0x116970, symSize: 0x240 }
  - { offsetInCU: 0x26103, offset: 0x585EBA, size: 0x8, addend: 0x0, symName: __ZN3syn3pat7parsing16pat_lit_or_range17h1c56854db042ba06E, symObjAddr: 0xAB00, symBinAddr: 0x116BB0, symSize: 0x400 }
  - { offsetInCU: 0x26B5F, offset: 0x586916, size: 0x8, addend: 0x0, symName: __ZN3syn3pat7parsing12pat_lit_expr17hfb42767501ab8eedE, symObjAddr: 0xAF00, symBinAddr: 0x116FB0, symSize: 0x930 }
  - { offsetInCU: 0x29591, offset: 0x589348, size: 0x8, addend: 0x0, symName: __ZN3syn3pat7parsing9pat_slice17hd8783e1b30d5b236E, symObjAddr: 0xB830, symBinAddr: 0x1178E0, symSize: 0x3B0 }
  - { offsetInCU: 0x29C26, offset: 0x5899DD, size: 0x8, addend: 0x0, symName: __ZN3syn3pat7parsing9pat_const17h98cc31d0fbbb8c59E, symObjAddr: 0xBBE0, symBinAddr: 0x117C90, symSize: 0x510 }
  - { offsetInCU: 0x2AA88, offset: 0x58A83F, size: 0x8, addend: 0x0, symName: __ZN3syn3pat7parsing14multi_pat_impl17ha697294a80ae294bE.llvm.13640016474283498785, symObjAddr: 0xC1B0, symBinAddr: 0x1181A0, symSize: 0x397 }
  - { offsetInCU: 0x4ECB, offset: 0x5A194B, size: 0x8, addend: 0x0, symName: '__ZN3syn4data7parsing66_$LT$impl$u20$syn..parse..Parse$u20$for$u20$syn..data..Variant$GT$5parse17h4ffd12c0016cb5b4E', symObjAddr: 0x7A80, symBinAddr: 0x11F750, symSize: 0x7C0 }
  - { offsetInCU: 0x5F87, offset: 0x5A2A07, size: 0x8, addend: 0x0, symName: '__ZN3syn4data7parsing70_$LT$impl$u20$syn..parse..Parse$u20$for$u20$syn..data..FieldsNamed$GT$5parse17hf38cc9d6a4790d5aE', symObjAddr: 0x8240, symBinAddr: 0x11FF10, symSize: 0x1A0 }
  - { offsetInCU: 0x627B, offset: 0x5A2CFB, size: 0x8, addend: 0x0, symName: '__ZN3syn4data7parsing72_$LT$impl$u20$syn..parse..Parse$u20$for$u20$syn..data..FieldsUnnamed$GT$5parse17hfb63f3e60cf310eaE', symObjAddr: 0x83E0, symBinAddr: 0x1200B0, symSize: 0x1A0 }
  - { offsetInCU: 0x656F, offset: 0x5A2FEF, size: 0x8, addend: 0x0, symName: '__ZN3syn4data7parsing69_$LT$impl$u20$syn..parse..Parse$u20$for$u20$syn..data..Visibility$GT$5parse17h47ceb0aeb7344647E', symObjAddr: 0x9070, symBinAddr: 0x120D40, symSize: 0xCF0 }
  - { offsetInCU: 0x8CDD, offset: 0x5A575D, size: 0x8, addend: 0x0, symName: '__ZN3syn4data8printing75_$LT$impl$u20$quote..to_tokens..ToTokens$u20$for$u20$syn..data..Variant$GT$9to_tokens17hefd556fd1dea8327E', symObjAddr: 0x9D60, symBinAddr: 0x121A30, symSize: 0x180 }
  - { offsetInCU: 0x9092, offset: 0x5A5B12, size: 0x8, addend: 0x0, symName: '__ZN3syn4data8printing73_$LT$impl$u20$quote..to_tokens..ToTokens$u20$for$u20$syn..data..Field$GT$9to_tokens17h1422e1e52cccd85dE', symObjAddr: 0x9F40, symBinAddr: 0x121BB0, symSize: 0x2C0 }
  - { offsetInCU: 0x9636, offset: 0x5A60B6, size: 0x8, addend: 0x0, symName: '__ZN68_$LT$syn..data..Visibility$u20$as$u20$quote..to_tokens..ToTokens$GT$9to_tokens17h5e26ec0b7c9eb663E', symObjAddr: 0xA420, symBinAddr: 0x121E70, symSize: 0x160 }
  - { offsetInCU: 0xA09B, offset: 0x5A6B1B, size: 0x8, addend: 0x0, symName: '__ZN3syn3gen5clone70_$LT$impl$u20$core..clone..Clone$u20$for$u20$syn..data..Visibility$GT$5clone17hd61a0346ba386dfcE', symObjAddr: 0xAD10, symBinAddr: 0x122590, symSize: 0x150 }
  - { offsetInCU: 0xA4F2, offset: 0x5A6F72, size: 0x8, addend: 0x0, symName: '__ZN3syn3gen5clone65_$LT$impl$u20$core..clone..Clone$u20$for$u20$syn..data..Field$GT$5clone17hc6108e25b3ee8696E', symObjAddr: 0xA580, symBinAddr: 0x121FD0, symSize: 0x300 }
  - { offsetInCU: 0xABB3, offset: 0x5A7633, size: 0x8, addend: 0x0, symName: '__ZN3syn3gen5clone67_$LT$impl$u20$core..clone..Clone$u20$for$u20$syn..data..Variant$GT$5clone17h20f0666bccd0e301E', symObjAddr: 0xA960, symBinAddr: 0x1222D0, symSize: 0x2C0 }
  - { offsetInCU: 0xCDF8, offset: 0x5A9878, size: 0x8, addend: 0x0, symName: '__ZN4core3ptr100drop_in_place$LT$core..option..Option$LT$alloc..boxed..Box$LT$syn..generics..LifetimeDef$GT$$GT$$GT$17h75a6086997697dd7E', symObjAddr: 0xC0, symBinAddr: 0x118540, symSize: 0x150 }
  - { offsetInCU: 0xD374, offset: 0x5A9DF4, size: 0x8, addend: 0x0, symName: '__ZN4core3ptr100drop_in_place$LT$core..option..Option$LT$alloc..boxed..Box$LT$syn..path..GenericArgument$GT$$GT$$GT$17h3d29ec00a8f1918dE', symObjAddr: 0x210, symBinAddr: 0x118690, symSize: 0x50 }
  - { offsetInCU: 0xD61A, offset: 0x5AA09A, size: 0x8, addend: 0x0, symName: '__ZN4core3ptr103drop_in_place$LT$syn..punctuated..Punctuated$LT$syn..generics..TypeParamBound$C$syn..token..Add$GT$$GT$17he811d520c92af08aE', symObjAddr: 0x260, symBinAddr: 0x1186E0, symSize: 0x1C0 }
  - { offsetInCU: 0xDE7E, offset: 0x5AA8FE, size: 0x8, addend: 0x0, symName: '__ZN4core3ptr108drop_in_place$LT$syn..punctuated..Punctuated$LT$syn..expr..GenericMethodArgument$C$syn..token..Comma$GT$$GT$17h92cbabe4862b2183E', symObjAddr: 0x420, symBinAddr: 0x1188A0, symSize: 0x150 }
  - { offsetInCU: 0xE3D7, offset: 0x5AAE57, size: 0x8, addend: 0x0, symName: '__ZN4core3ptr34drop_in_place$LT$syn..lit..Lit$GT$17hbe1efe749a08dd9aE', symObjAddr: 0x570, symBinAddr: 0x1189F0, symSize: 0x110 }
  - { offsetInCU: 0xE849, offset: 0x5AB2C9, size: 0x8, addend: 0x0, symName: '__ZN4core3ptr34drop_in_place$LT$syn..pat..Pat$GT$17h3201f642e43ac2a2E', symObjAddr: 0x680, symBinAddr: 0x118B00, symSize: 0x1050 }
  - { offsetInCU: 0x12208, offset: 0x5AEC88, size: 0x8, addend: 0x0, symName: '__ZN4core3ptr34drop_in_place$LT$syn..ty..Type$GT$17hfb5d159a08190130E.llvm.2098431564669397081', symObjAddr: 0x16D0, symBinAddr: 0x119B50, symSize: 0x620 }
  - { offsetInCU: 0x13E40, offset: 0x5B08C0, size: 0x8, addend: 0x0, symName: '__ZN4core3ptr36drop_in_place$LT$syn..expr..Expr$GT$17hf1921d1b09462bc3E', symObjAddr: 0x1CF0, symBinAddr: 0x11A170, symSize: 0x31D0 }
  - { offsetInCU: 0x1E3C9, offset: 0x5BAE49, size: 0x8, addend: 0x0, symName: '__ZN4core3ptr36drop_in_place$LT$syn..mac..Macro$GT$17h205613d7ad575f72E', symObjAddr: 0x4EC0, symBinAddr: 0x11D340, symSize: 0xE0 }
  - { offsetInCU: 0x1E7CF, offset: 0x5BB24F, size: 0x8, addend: 0x0, symName: '__ZN4core3ptr36drop_in_place$LT$syn..path..Path$GT$17he6d0bec66d66b98aE', symObjAddr: 0x4FA0, symBinAddr: 0x11D420, symSize: 0x230 }
  - { offsetInCU: 0x1F165, offset: 0x5BBBE5, size: 0x8, addend: 0x0, symName: '__ZN4core3ptr37drop_in_place$LT$syn..stmt..Block$GT$17h3aa429e75a234230E', symObjAddr: 0x51D0, symBinAddr: 0x11D650, symSize: 0xD0 }
  - { offsetInCU: 0x1F4D7, offset: 0x5BBF57, size: 0x8, addend: 0x0, symName: '__ZN4core3ptr38drop_in_place$LT$syn..data..Fields$GT$17h0c48fa2402a42137E.llvm.2098431564669397081', symObjAddr: 0x52A0, symBinAddr: 0x11D720, symSize: 0x180 }
  - { offsetInCU: 0x1F91D, offset: 0x5BC39D, size: 0x8, addend: 0x0, symName: '__ZN4core3ptr38drop_in_place$LT$syn..expr..Member$GT$17ha113d37a67d27aafE', symObjAddr: 0x5420, symBinAddr: 0x11D8A0, symSize: 0x30 }
  - { offsetInCU: 0x1FAB4, offset: 0x5BC534, size: 0x8, addend: 0x0, symName: '__ZN4core3ptr38drop_in_place$LT$syn..group..Group$GT$17h0fddc99b7dc4ab91E', symObjAddr: 0x5450, symBinAddr: 0x11D8D0, symSize: 0x70 }
  - { offsetInCU: 0x1FDAC, offset: 0x5BC82C, size: 0x8, addend: 0x0, symName: '__ZN4core3ptr39drop_in_place$LT$proc_macro2..Ident$GT$17hdeec010483268a0dE.llvm.2098431564669397081', symObjAddr: 0x54C0, symBinAddr: 0x11D940, symSize: 0x30 }
  - { offsetInCU: 0x1FE89, offset: 0x5BC909, size: 0x8, addend: 0x0, symName: '__ZN4core3ptr39drop_in_place$LT$syn..pat..PatTuple$GT$17h96faeea9832d4c4bE', symObjAddr: 0x54F0, symBinAddr: 0x11D970, symSize: 0x100 }
  - { offsetInCU: 0x20192, offset: 0x5BCC12, size: 0x8, addend: 0x0, symName: '__ZN4core3ptr40drop_in_place$LT$syn..ty..ReturnType$GT$17h6f97c9fdb958983eE', symObjAddr: 0x55F0, symBinAddr: 0x11DA70, symSize: 0x50 }
  - { offsetInCU: 0x20340, offset: 0x5BCDC0, size: 0x8, addend: 0x0, symName: '__ZN4core3ptr42drop_in_place$LT$syn..data..Visibility$GT$17h27e8b6ad307fcbc7E.llvm.2098431564669397081', symObjAddr: 0x5640, symBinAddr: 0x11DAC0, symSize: 0x60 }
  - { offsetInCU: 0x204C7, offset: 0x5BCF47, size: 0x8, addend: 0x0, symName: '__ZN4core3ptr44drop_in_place$LT$syn..lifetime..Lifetime$GT$17h3858225df033648aE', symObjAddr: 0x5780, symBinAddr: 0x11DB20, symSize: 0x30 }
  - { offsetInCU: 0x205C3, offset: 0x5BD043, size: 0x8, addend: 0x0, symName: '__ZN4core3ptr44drop_in_place$LT$syn..parse..ParseBuffer$GT$17h19c266fcccc430cbE.llvm.2098431564669397081', symObjAddr: 0x57B0, symBinAddr: 0x11DB50, symSize: 0x70 }
  - { offsetInCU: 0x209DA, offset: 0x5BD45A, size: 0x8, addend: 0x0, symName: '__ZN4core3ptr45drop_in_place$LT$proc_macro2..TokenStream$GT$17h2507cb30e765dc85E', symObjAddr: 0x5820, symBinAddr: 0x11DBC0, symSize: 0x140 }
  - { offsetInCU: 0x20E74, offset: 0x5BD8F4, size: 0x8, addend: 0x0, symName: '__ZN4core3ptr47drop_in_place$LT$syn..path..GenericArgument$GT$17h8c0a0d8c6deaefb4E', symObjAddr: 0x59B0, symBinAddr: 0x11DD00, symSize: 0x110 }
  - { offsetInCU: 0x211A2, offset: 0x5BDC22, size: 0x8, addend: 0x0, symName: '__ZN4core3ptr58drop_in_place$LT$alloc..vec..Vec$LT$syn..expr..Arm$GT$$GT$17hf3db0825f3d9c861E', symObjAddr: 0x5AC0, symBinAddr: 0x11DE10, symSize: 0xD0 }
  - { offsetInCU: 0x21462, offset: 0x5BDEE2, size: 0x8, addend: 0x0, symName: '__ZN4core3ptr59drop_in_place$LT$alloc..boxed..Box$LT$syn..pat..Pat$GT$$GT$17h7037ce9bbd3729c6E', symObjAddr: 0x5B90, symBinAddr: 0x11DEE0, symSize: 0x50 }
  - { offsetInCU: 0x215BB, offset: 0x5BE03B, size: 0x8, addend: 0x0, symName: '__ZN4core3ptr59drop_in_place$LT$alloc..boxed..Box$LT$syn..ty..Type$GT$$GT$17h2eccd13329dbe4faE', symObjAddr: 0x5BE0, symBinAddr: 0x11DF30, symSize: 0x50 }
  - { offsetInCU: 0x21714, offset: 0x5BE194, size: 0x8, addend: 0x0, symName: '__ZN4core3ptr61drop_in_place$LT$alloc..boxed..Box$LT$syn..expr..Expr$GT$$GT$17h66094ddc89015516E', symObjAddr: 0x5C30, symBinAddr: 0x11DF80, symSize: 0x50 }
  - { offsetInCU: 0x2186D, offset: 0x5BE2ED, size: 0x8, addend: 0x0, symName: '__ZN4core3ptr61drop_in_place$LT$syn..path..ParenthesizedGenericArguments$GT$17h21be9b1d7a6fab55E', symObjAddr: 0x5CD0, symBinAddr: 0x11DFD0, symSize: 0x170 }
  - { offsetInCU: 0x21E76, offset: 0x5BE8F6, size: 0x8, addend: 0x0, symName: '__ZN4core3ptr63drop_in_place$LT$alloc..boxed..Box$LT$syn..lit..LitRepr$GT$$GT$17h9c509b794406150eE', symObjAddr: 0x5E40, symBinAddr: 0x11E140, symSize: 0x60 }
  - { offsetInCU: 0x2217D, offset: 0x5BEBFD, size: 0x8, addend: 0x0, symName: '__ZN4core3ptr64drop_in_place$LT$alloc..boxed..Box$LT$syn..pat..FieldPat$GT$$GT$17hb167b355d0d4733fE', symObjAddr: 0x5EA0, symBinAddr: 0x11E1A0, symSize: 0x180 }
  - { offsetInCU: 0x2289A, offset: 0x5BF31A, size: 0x8, addend: 0x0, symName: '__ZN4core3ptr64drop_in_place$LT$alloc..boxed..Box$LT$syn..ty..BareFnArg$GT$$GT$17h6488be9448346678E', symObjAddr: 0x6020, symBinAddr: 0x11E320, symSize: 0x160 }
  - { offsetInCU: 0x22E30, offset: 0x5BF8B0, size: 0x8, addend: 0x0, symName: '__ZN4core3ptr64drop_in_place$LT$alloc..vec..Vec$LT$syn..attr..Attribute$GT$$GT$17h386324d8ea9bc309E.llvm.2098431564669397081', symObjAddr: 0x6180, symBinAddr: 0x11E480, symSize: 0xF0 }
  - { offsetInCU: 0x23126, offset: 0x5BFBA6, size: 0x8, addend: 0x0, symName: '__ZN4core3ptr65drop_in_place$LT$alloc..vec..Vec$LT$proc_macro..TokenTree$GT$$GT$17hc3670dd5608d5259E', symObjAddr: 0x6270, symBinAddr: 0x11E570, symSize: 0x110 }
  - { offsetInCU: 0x2351E, offset: 0x5BFF9E, size: 0x8, addend: 0x0, symName: '__ZN4core3ptr65drop_in_place$LT$core..option..Option$LT$syn..expr..Label$GT$$GT$17ha723640fd01bec5dE', symObjAddr: 0x6380, symBinAddr: 0x11E680, symSize: 0x30 }
  - { offsetInCU: 0x23658, offset: 0x5C00D8, size: 0x8, addend: 0x0, symName: '__ZN4core3ptr66drop_in_place$LT$core..option..Option$LT$syn..ty..Variadic$GT$$GT$17hc32134bb3933b0dfE', symObjAddr: 0x63B0, symBinAddr: 0x11E6B0, symSize: 0xF0 }
  - { offsetInCU: 0x23982, offset: 0x5C0402, size: 0x8, addend: 0x0, symName: '__ZN4core3ptr67drop_in_place$LT$alloc..boxed..Box$LT$syn..expr..FieldValue$GT$$GT$17h8df780aa600ea8c2E', symObjAddr: 0x64A0, symBinAddr: 0x11E7A0, symSize: 0x160 }
  - { offsetInCU: 0x23EF8, offset: 0x5C0978, size: 0x8, addend: 0x0, symName: '__ZN4core3ptr67drop_in_place$LT$core..option..Option$LT$proc_macro2..Ident$GT$$GT$17h67578850954384a1E.llvm.2098431564669397081', symObjAddr: 0x6600, symBinAddr: 0x11E900, symSize: 0x30 }
  - { offsetInCU: 0x23FF4, offset: 0x5C0A74, size: 0x8, addend: 0x0, symName: '__ZN4core3ptr72drop_in_place$LT$core..option..Option$LT$syn..lifetime..Lifetime$GT$$GT$17h31b55b93749c174dE', symObjAddr: 0x6630, symBinAddr: 0x11E930, symSize: 0x30 }
  - { offsetInCU: 0x2410F, offset: 0x5C0B8F, size: 0x8, addend: 0x0, symName: '__ZN4core3ptr75drop_in_place$LT$alloc..boxed..Box$LT$syn..generics..TypeParamBound$GT$$GT$17h8f156ce07ea0b8b2E', symObjAddr: 0x6660, symBinAddr: 0x11E960, symSize: 0x140 }
  - { offsetInCU: 0x2466A, offset: 0x5C10EA, size: 0x8, addend: 0x0, symName: '__ZN4core3ptr78drop_in_place$LT$alloc..boxed..Box$LT$syn..expr..GenericMethodArgument$GT$$GT$17h3384c00b5bd54c2aE', symObjAddr: 0x67A0, symBinAddr: 0x11EAA0, symSize: 0x60 }
  - { offsetInCU: 0x2485C, offset: 0x5C12DC, size: 0x8, addend: 0x0, symName: '__ZN4core3ptr78drop_in_place$LT$core..option..Option$LT$syn..generics..BoundLifetimes$GT$$GT$17h8175e66ad0c4a156E', symObjAddr: 0x6800, symBinAddr: 0x11EB00, symSize: 0xE0 }
  - { offsetInCU: 0x24BD9, offset: 0x5C1659, size: 0x8, addend: 0x0, symName: '__ZN4core3ptr86drop_in_place$LT$syn..punctuated..Punctuated$LT$syn..pat..Pat$C$syn..token..Or$GT$$GT$17h1078c5d178d382b7E', symObjAddr: 0x68E0, symBinAddr: 0x11EBE0, symSize: 0x120 }
  - { offsetInCU: 0x25054, offset: 0x5C1AD4, size: 0x8, addend: 0x0, symName: '__ZN4core3ptr87drop_in_place$LT$core..option..Option$LT$alloc..boxed..Box$LT$syn..pat..Pat$GT$$GT$$GT$17ha7f5fe0e6f73e820E', symObjAddr: 0x6A00, symBinAddr: 0x11ED00, symSize: 0x50 }
  - { offsetInCU: 0x251C4, offset: 0x5C1C44, size: 0x8, addend: 0x0, symName: '__ZN4core3ptr87drop_in_place$LT$core..option..Option$LT$alloc..boxed..Box$LT$syn..ty..Type$GT$$GT$$GT$17hc8292da82d129de3E', symObjAddr: 0x6A50, symBinAddr: 0x11ED50, symSize: 0x50 }
  - { offsetInCU: 0x25334, offset: 0x5C1DB4, size: 0x8, addend: 0x0, symName: '__ZN4core3ptr89drop_in_place$LT$core..option..Option$LT$alloc..boxed..Box$LT$syn..expr..Expr$GT$$GT$$GT$17hdc211ccd33f196f2E', symObjAddr: 0x6AC0, symBinAddr: 0x11EDA0, symSize: 0x50 }
  - { offsetInCU: 0x254E2, offset: 0x5C1F62, size: 0x8, addend: 0x0, symName: '__ZN4core3ptr89drop_in_place$LT$syn..punctuated..Punctuated$LT$syn..pat..Pat$C$syn..token..Comma$GT$$GT$17hf8371102b0500adcE', symObjAddr: 0x6B10, symBinAddr: 0x11EDF0, symSize: 0x120 }
  - { offsetInCU: 0x259F0, offset: 0x5C2470, size: 0x8, addend: 0x0, symName: '__ZN4core3ptr90drop_in_place$LT$core..option..Option$LT$alloc..boxed..Box$LT$syn..data..Field$GT$$GT$$GT$17he146e9f4e32c136fE', symObjAddr: 0x6C30, symBinAddr: 0x11EF10, symSize: 0x1C0 }
  - { offsetInCU: 0x26106, offset: 0x5C2B86, size: 0x8, addend: 0x0, symName: '__ZN4core3ptr91drop_in_place$LT$syn..punctuated..Punctuated$LT$syn..expr..Expr$C$syn..token..Comma$GT$$GT$17hd2dfeb0c522d9a18E', symObjAddr: 0x6DF0, symBinAddr: 0x11F0D0, symSize: 0x120 }
  - { offsetInCU: 0x26594, offset: 0x5C3014, size: 0x8, addend: 0x0, symName: '__ZN4core3ptr94drop_in_place$LT$syn..punctuated..Punctuated$LT$syn..pat..FieldPat$C$syn..token..Comma$GT$$GT$17h612cbc9066d5afb1E', symObjAddr: 0x6FF0, symBinAddr: 0x11F1F0, symSize: 0xF0 }
  - { offsetInCU: 0x26893, offset: 0x5C3313, size: 0x8, addend: 0x0, symName: '__ZN4core3ptr94drop_in_place$LT$syn..punctuated..Punctuated$LT$syn..ty..BareFnArg$C$syn..token..Comma$GT$$GT$17ha9a668ce9972795bE', symObjAddr: 0x70E0, symBinAddr: 0x11F2E0, symSize: 0xF0 }
  - { offsetInCU: 0x26B90, offset: 0x5C3610, size: 0x8, addend: 0x0, symName: '__ZN4core3ptr96drop_in_place$LT$core..option..Option$LT$alloc..boxed..Box$LT$syn..path..PathSegment$GT$$GT$$GT$17h2e81cbe3c70bb71cE', symObjAddr: 0x71D0, symBinAddr: 0x11F3D0, symSize: 0x180 }
  - { offsetInCU: 0x2724D, offset: 0x5C3CCD, size: 0x8, addend: 0x0, symName: '__ZN4core3ptr97drop_in_place$LT$syn..punctuated..Punctuated$LT$syn..expr..FieldValue$C$syn..token..Comma$GT$$GT$17h11a5fffb46adfb11E', symObjAddr: 0x7350, symBinAddr: 0x11F550, symSize: 0xF0 }
  - { offsetInCU: 0x275C6, offset: 0x5C4046, size: 0x8, addend: 0x0, symName: '__ZN4core3ptr97drop_in_place$LT$syn..punctuated..Punctuated$LT$syn..lifetime..Lifetime$C$syn..token..Add$GT$$GT$17h5c54dea2c838d109E', symObjAddr: 0x7440, symBinAddr: 0x11F640, symSize: 0xD0 }
  - { offsetInCU: 0x2B3B0, offset: 0x5C7E30, size: 0x8, addend: 0x0, symName: __ZN5alloc5alloc15exchange_malloc17h9a87608d0224859dE, symObjAddr: 0x7560, symBinAddr: 0x11F710, symSize: 0x40 }
  - { offsetInCU: 0x2EBBB, offset: 0x5CB63B, size: 0x8, addend: 0x0, symName: '__ZN3syn4data7parsing34_$LT$impl$u20$syn..data..Field$GT$11parse_named17hf32401c3d2c99bceE', symObjAddr: 0x8580, symBinAddr: 0x120250, symSize: 0x740 }
  - { offsetInCU: 0x2FADA, offset: 0x5CC55A, size: 0x8, addend: 0x0, symName: '__ZN3syn4data7parsing34_$LT$impl$u20$syn..data..Field$GT$13parse_unnamed17h0c157f96ed8f9924E', symObjAddr: 0x8CC0, symBinAddr: 0x120990, symSize: 0x3B0 }
  - { offsetInCU: 0xA87, offset: 0x5D1DFF, size: 0x8, addend: 0x0, symName: '__ZN4core3ptr39drop_in_place$LT$proc_macro2..Group$GT$17ha95b199d42755248E.llvm.1759187543734843462', symObjAddr: 0x1D0, symBinAddr: 0x1226E0, symSize: 0x60 }
  - { offsetInCU: 0xCCB, offset: 0x5D2043, size: 0x8, addend: 0x0, symName: '__ZN4core3ptr39drop_in_place$LT$syn..buffer..Entry$GT$17hefeddf49a31e1f79E', symObjAddr: 0x230, symBinAddr: 0x122740, symSize: 0xB0 }
  - { offsetInCU: 0x1056, offset: 0x5D23CE, size: 0x8, addend: 0x0, symName: '__ZN4core3ptr43drop_in_place$LT$proc_macro2..TokenTree$GT$17h7270f34cee6d919dE', symObjAddr: 0x2E0, symBinAddr: 0x1227F0, symSize: 0xB0 }
  - { offsetInCU: 0x142D, offset: 0x5D27A5, size: 0x8, addend: 0x0, symName: '__ZN4core3ptr44drop_in_place$LT$syn..parse..ParseBuffer$GT$17h19c266fcccc430cbE', symObjAddr: 0x390, symBinAddr: 0x1228A0, symSize: 0x70 }
  - { offsetInCU: 0x174C, offset: 0x5D2AC4, size: 0x8, addend: 0x0, symName: '__ZN4core3ptr45drop_in_place$LT$syn..buffer..TokenBuffer$GT$17ha0014bcb4f631379E', symObjAddr: 0x540, symBinAddr: 0x122910, symSize: 0xC0 }
  - { offsetInCU: 0x5CC4, offset: 0x5D703C, size: 0x8, addend: 0x0, symName: '__ZN80_$LT$syn..parse..ParseBuffer$u20$as$u20$syn..parse..discouraged..Speculative$GT$10advance_to17h8f73ab0cc15f1a74E', symObjAddr: 0x7E0, symBinAddr: 0x1229D0, symSize: 0x270 }
  - { offsetInCU: 0x7032, offset: 0x5D83AA, size: 0x8, addend: 0x0, symName: '__ZN65_$LT$syn..parse..ParseBuffer$u20$as$u20$core..ops..drop..Drop$GT$4drop17h2e038d48873422b6E', symObjAddr: 0xA50, symBinAddr: 0x122C40, symSize: 0xC0 }
  - { offsetInCU: 0x7783, offset: 0x5D8AFB, size: 0x8, addend: 0x0, symName: __ZN3syn5parse16inner_unexpected17h6067e3abb61d0456E.llvm.1759187543734843462, symObjAddr: 0xC10, symBinAddr: 0x122D00, symSize: 0x130 }
  - { offsetInCU: 0x807C, offset: 0x5D93F4, size: 0x8, addend: 0x0, symName: __ZN3syn5parse33span_of_unexpected_ignoring_nones17h1cd56e164e166939E, symObjAddr: 0xD40, symBinAddr: 0x122E30, symSize: 0x130 }
  - { offsetInCU: 0x84C1, offset: 0x5D9839, size: 0x8, addend: 0x0, symName: __ZN3syn5parse11ParseBuffer5peek25peek217hd5e9cf50395d6f6dE, symObjAddr: 0xFA0, symBinAddr: 0x122F60, symSize: 0x1A0 }
  - { offsetInCU: 0x8928, offset: 0x5D9CA0, size: 0x8, addend: 0x0, symName: __ZN3syn5parse11ParseBuffer5peek35peek317hda95b7e9fedbba60E, symObjAddr: 0x1140, symBinAddr: 0x123100, symSize: 0x2C0 }
  - { offsetInCU: 0x90A2, offset: 0x5DA41A, size: 0x8, addend: 0x0, symName: '__ZN40_$LT$F$u20$as$u20$syn..parse..Parser$GT$6parse217h5b44a721e1b74221E', symObjAddr: 0x4880, symBinAddr: 0x125830, symSize: 0x410 }
  - { offsetInCU: 0x9F4A, offset: 0x5DB2C2, size: 0x8, addend: 0x0, symName: __ZN3syn5parse6Parser9parse_str17h845c6e4d3a37cecdE, symObjAddr: 0x3E30, symBinAddr: 0x125320, symSize: 0x450 }
  - { offsetInCU: 0xAE2A, offset: 0x5DC1A2, size: 0x8, addend: 0x0, symName: __ZN3syn5parse22tokens_to_parse_buffer17h64ec52fc0991fad8E, symObjAddr: 0x47C0, symBinAddr: 0x125770, symSize: 0xC0 }
  - { offsetInCU: 0xC25D, offset: 0x5DD5D5, size: 0x8, addend: 0x0, symName: __ZN3syn5parse11ParseBuffer4fork17h2419ffbe07155b93E, symObjAddr: 0x1400, symBinAddr: 0x1233C0, symSize: 0x80 }
  - { offsetInCU: 0xC4FD, offset: 0x5DD875, size: 0x8, addend: 0x0, symName: __ZN3syn5parse11ParseBuffer4step17h2caa91e93c0fdff5E, symObjAddr: 0x1480, symBinAddr: 0x123440, symSize: 0x320 }
  - { offsetInCU: 0xD296, offset: 0x5DE60E, size: 0x8, addend: 0x0, symName: __ZN3syn5parse11ParseBuffer4step17h32743e1aa7cb4937E, symObjAddr: 0x17A0, symBinAddr: 0x123760, symSize: 0x240 }
  - { offsetInCU: 0xDD38, offset: 0x5DF0B0, size: 0x8, addend: 0x0, symName: __ZN3syn5parse11ParseBuffer4step17h47646bd784811a92E, symObjAddr: 0x19E0, symBinAddr: 0x1239A0, symSize: 0x200 }
  - { offsetInCU: 0xE3C4, offset: 0x5DF73C, size: 0x8, addend: 0x0, symName: __ZN3syn5parse11ParseBuffer4step17h490326c3e9494519E, symObjAddr: 0x1BE0, symBinAddr: 0x123BA0, symSize: 0x160 }
  - { offsetInCU: 0xE813, offset: 0x5DFB8B, size: 0x8, addend: 0x0, symName: __ZN3syn5parse11ParseBuffer4step17h50bd6cdb870f80efE, symObjAddr: 0x1D40, symBinAddr: 0x123D00, symSize: 0x100 }
  - { offsetInCU: 0xED31, offset: 0x5E00A9, size: 0x8, addend: 0x0, symName: __ZN3syn5parse11ParseBuffer4step17h6da76c056fcfa448E, symObjAddr: 0x1EC0, symBinAddr: 0x123E00, symSize: 0x360 }
  - { offsetInCU: 0xFD6B, offset: 0x5E10E3, size: 0x8, addend: 0x0, symName: __ZN3syn5parse11ParseBuffer4step17h84b7869147215ef5E, symObjAddr: 0x23D0, symBinAddr: 0x124160, symSize: 0x4B0 }
  - { offsetInCU: 0x10A5C, offset: 0x5E1DD4, size: 0x8, addend: 0x0, symName: __ZN3syn5parse11ParseBuffer4step17hbd8c852f81ed7403E, symObjAddr: 0x2C30, symBinAddr: 0x124610, symSize: 0x3E0 }
  - { offsetInCU: 0x11291, offset: 0x5E2609, size: 0x8, addend: 0x0, symName: __ZN3syn5parse11ParseBuffer4step17hd1c4670119110345E, symObjAddr: 0x3010, symBinAddr: 0x1249F0, symSize: 0x2D0 }
  - { offsetInCU: 0x120A4, offset: 0x5E341C, size: 0x8, addend: 0x0, symName: __ZN3syn5parse11ParseBuffer4step17heb078f2c75a103c5E, symObjAddr: 0x33F0, symBinAddr: 0x124CC0, symSize: 0x5B0 }
  - { offsetInCU: 0x13539, offset: 0x5E48B1, size: 0x8, addend: 0x0, symName: __ZN3syn5parse11ParseBuffer16check_unexpected17h28bf2b0c3cff447aE, symObjAddr: 0x3D80, symBinAddr: 0x125270, symSize: 0xB0 }
  - { offsetInCU: 0xA9, offset: 0x5EFAC4, size: 0x8, addend: 0x0, symName: '__ZN58_$LT$alloc..string..String$u20$as$u20$core..fmt..Write$GT$10write_char17h04bc467bd68a934bE', symObjAddr: 0x5C0, symBinAddr: 0x125FA0, symSize: 0x140 }
  - { offsetInCU: 0x4AE, offset: 0x5EFEC9, size: 0x8, addend: 0x0, symName: '__ZN58_$LT$alloc..string..String$u20$as$u20$core..fmt..Write$GT$9write_str17h46a93205c3443fbaE', symObjAddr: 0x700, symBinAddr: 0x1260E0, symSize: 0x60 }
  - { offsetInCU: 0x737, offset: 0x5F0152, size: 0x8, addend: 0x0, symName: '__ZN60_$LT$alloc..string..String$u20$as$u20$core..fmt..Display$GT$3fmt17h0d0eb46f3054e2dfE', symObjAddr: 0x760, symBinAddr: 0x126140, symSize: 0x20 }
  - { offsetInCU: 0x10B7, offset: 0x5F0AD2, size: 0x8, addend: 0x0, symName: '__ZN69_$LT$alloc..boxed..Box$LT$T$C$A$GT$$u20$as$u20$core..clone..Clone$GT$5clone17hc2df9ba7a787d108E.llvm.9882195801816494336', symObjAddr: 0x780, symBinAddr: 0x126160, symSize: 0x140 }
  - { offsetInCU: 0x1BDB, offset: 0x5F15F6, size: 0x8, addend: 0x0, symName: '__ZN4core3ptr116drop_in_place$LT$core..option..Option$LT$$LP$alloc..boxed..Box$LT$str$GT$$C$alloc..boxed..Box$LT$str$GT$$RP$$GT$$GT$17hbcee60762c2710f7E', symObjAddr: 0xB0, symBinAddr: 0x125C40, symSize: 0x50 }
  - { offsetInCU: 0x1E2A, offset: 0x5F1845, size: 0x8, addend: 0x0, symName: '__ZN4core3ptr34drop_in_place$LT$syn..lit..Lit$GT$17hbe1efe749a08dd9aE.llvm.9882195801816494336', symObjAddr: 0x100, symBinAddr: 0x125C90, symSize: 0x120 }
  - { offsetInCU: 0x203D, offset: 0x5F1A58, size: 0x8, addend: 0x0, symName: '__ZN4core3ptr38drop_in_place$LT$syn..lit..LitRepr$GT$17hb5c7ab9a44b255b5E', symObjAddr: 0x2F0, symBinAddr: 0x125DB0, symSize: 0x50 }
  - { offsetInCU: 0x205D, offset: 0x5F1A78, size: 0x8, addend: 0x0, symName: '__ZN4core3ptr38drop_in_place$LT$syn..lit..LitRepr$GT$17hb5c7ab9a44b255b5E', symObjAddr: 0x2F0, symBinAddr: 0x125DB0, symSize: 0x50 }
  - { offsetInCU: 0x207B, offset: 0x5F1A96, size: 0x8, addend: 0x0, symName: '__ZN4core3ptr38drop_in_place$LT$syn..lit..LitRepr$GT$17hb5c7ab9a44b255b5E', symObjAddr: 0x2F0, symBinAddr: 0x125DB0, symSize: 0x50 }
  - { offsetInCU: 0x2258, offset: 0x5F1C73, size: 0x8, addend: 0x0, symName: '__ZN4core3ptr41drop_in_place$LT$syn..lit..LitIntRepr$GT$17h6adf3dc251bb178fE', symObjAddr: 0x370, symBinAddr: 0x125E00, symSize: 0x60 }
  - { offsetInCU: 0x24F8, offset: 0x5F1F13, size: 0x8, addend: 0x0, symName: '__ZN4core3ptr42drop_in_place$LT$alloc..string..String$GT$17hef974c60cd9900dbE', symObjAddr: 0x3D0, symBinAddr: 0x125E60, symSize: 0x20 }
  - { offsetInCU: 0x267C, offset: 0x5F2097, size: 0x8, addend: 0x0, symName: '__ZN4core3ptr44drop_in_place$LT$syn..parse..ParseBuffer$GT$17h19c266fcccc430cbE.llvm.9882195801816494336', symObjAddr: 0x4A0, symBinAddr: 0x125E80, symSize: 0x70 }
  - { offsetInCU: 0x29BA, offset: 0x5F23D5, size: 0x8, addend: 0x0, symName: '__ZN4core3ptr82drop_in_place$LT$core..result..Result$LT$syn..lit..Lit$C$syn..error..Error$GT$$GT$17h31a5fa47d1af8301E.llvm.9882195801816494336', symObjAddr: 0x510, symBinAddr: 0x125EF0, symSize: 0x90 }
  - { offsetInCU: 0x3200, offset: 0x5F2C1B, size: 0x8, addend: 0x0, symName: '__ZN53_$LT$core..fmt..Error$u20$as$u20$core..fmt..Debug$GT$3fmt17h03dc662ab152f3aeE', symObjAddr: 0x5A0, symBinAddr: 0x125F80, symSize: 0x20 }
  - { offsetInCU: 0x41BA, offset: 0x5F3BD5, size: 0x8, addend: 0x0, symName: '__ZN59_$LT$syn..lit..LitIntRepr$u20$as$u20$core..clone..Clone$GT$5clone17hbc78c63ac5a59c8dE', symObjAddr: 0x24B0, symBinAddr: 0x1262A0, symSize: 0x0 }
  - { offsetInCU: 0x4527, offset: 0x5F3F42, size: 0x8, addend: 0x0, symName: '__ZN3syn3lit7parsing64_$LT$impl$u20$syn..parse..Parse$u20$for$u20$syn..lit..LitStr$GT$5parse17h4d4c084d204373acE', symObjAddr: 0x2620, symBinAddr: 0x1263F0, symSize: 0x2B0 }
  - { offsetInCU: 0x51C2, offset: 0x5F4BDD, size: 0x8, addend: 0x0, symName: '__ZN3syn3lit7parsing64_$LT$impl$u20$syn..parse..Parse$u20$for$u20$syn..lit..LitInt$GT$5parse17hf51521f8c4cca9b1E', symObjAddr: 0x30E0, symBinAddr: 0x1266A0, symSize: 0x2D0 }
  - { offsetInCU: 0x5EF0, offset: 0x5F590B, size: 0x8, addend: 0x0, symName: '__ZN3syn3lit7parsing66_$LT$impl$u20$syn..parse..Parse$u20$for$u20$syn..lit..LitFloat$GT$5parse17h093beb27894a42c0E', symObjAddr: 0x33B0, symBinAddr: 0x126970, symSize: 0x2D0 }
  - { offsetInCU: 0x6DF6, offset: 0x5F6811, size: 0x8, addend: 0x0, symName: '__ZN60_$LT$syn..lit..Lit$u20$as$u20$quote..to_tokens..ToTokens$GT$9to_tokens17hb9b83fc3ea7b38a1E', symObjAddr: 0x4A50, symBinAddr: 0x127890, symSize: 0xF0 }
  - { offsetInCU: 0x70ED, offset: 0x5F6B08, size: 0x8, addend: 0x0, symName: '__ZN51_$LT$syn..lit..Lit$u20$as$u20$syn..token..Token$GT$4peek17hbce3cab3ecc08f56E', symObjAddr: 0x4250, symBinAddr: 0x127490, symSize: 0x100 }
  - { offsetInCU: 0x75BD, offset: 0x5F6FD8, size: 0x8, addend: 0x0, symName: '__ZN54_$LT$syn..lit..LitStr$u20$as$u20$syn..token..Token$GT$4peek17h05fa97a8d5a3793dE', symObjAddr: 0x4350, symBinAddr: 0x127590, symSize: 0x100 }
  - { offsetInCU: 0x7A8D, offset: 0x5F74A8, size: 0x8, addend: 0x0, symName: '__ZN54_$LT$syn..lit..LitInt$u20$as$u20$syn..token..Token$GT$4peek17h5db6d90a54a86fceE', symObjAddr: 0x4750, symBinAddr: 0x127690, symSize: 0x100 }
  - { offsetInCU: 0x7F5D, offset: 0x5F7978, size: 0x8, addend: 0x0, symName: '__ZN56_$LT$syn..lit..LitFloat$u20$as$u20$syn..token..Token$GT$4peek17hd974e72b8bbf6281E', symObjAddr: 0x4850, symBinAddr: 0x127790, symSize: 0x100 }
  - { offsetInCU: 0x845E, offset: 0x5F7E79, size: 0x8, addend: 0x0, symName: '__ZN3syn3gen5clone62_$LT$impl$u20$core..clone..Clone$u20$for$u20$syn..lit..Lit$GT$5clone17h7ae57e81c5483762E', symObjAddr: 0x4DF0, symBinAddr: 0x127980, symSize: 0x260 }
  - { offsetInCU: 0x9DA5, offset: 0x5F97C0, size: 0x8, addend: 0x0, symName: '__ZN3syn3lit5value31_$LT$impl$u20$syn..lit..Lit$GT$3new17h4485655880d793a2E', symObjAddr: 0x3920, symBinAddr: 0x126C40, symSize: 0x850 }
  - { offsetInCU: 0x30E1, offset: 0x5FF51C, size: 0x8, addend: 0x0, symName: '__ZN4core3ptr100drop_in_place$LT$core..option..Option$LT$alloc..boxed..Box$LT$syn..generics..LifetimeDef$GT$$GT$$GT$17h75a6086997697dd7E', symObjAddr: 0x280, symBinAddr: 0x127BE0, symSize: 0x150 }
  - { offsetInCU: 0x365D, offset: 0x5FFA98, size: 0x8, addend: 0x0, symName: '__ZN4core3ptr100drop_in_place$LT$core..option..Option$LT$alloc..boxed..Box$LT$syn..path..GenericArgument$GT$$GT$$GT$17h3d29ec00a8f1918dE', symObjAddr: 0x3D0, symBinAddr: 0x127D30, symSize: 0x50 }
  - { offsetInCU: 0x3903, offset: 0x5FFD3E, size: 0x8, addend: 0x0, symName: '__ZN4core3ptr103drop_in_place$LT$syn..punctuated..Punctuated$LT$syn..generics..TypeParamBound$C$syn..token..Add$GT$$GT$17he811d520c92af08aE', symObjAddr: 0x420, symBinAddr: 0x127D80, symSize: 0x1C0 }
  - { offsetInCU: 0x4167, offset: 0x6005A2, size: 0x8, addend: 0x0, symName: '__ZN4core3ptr108drop_in_place$LT$syn..punctuated..Punctuated$LT$syn..expr..GenericMethodArgument$C$syn..token..Comma$GT$$GT$17h92cbabe4862b2183E', symObjAddr: 0x5E0, symBinAddr: 0x127F40, symSize: 0x150 }
  - { offsetInCU: 0x46C0, offset: 0x600AFB, size: 0x8, addend: 0x0, symName: '__ZN4core3ptr34drop_in_place$LT$syn..lit..Lit$GT$17hbe1efe749a08dd9aE.llvm.7403831197315175127', symObjAddr: 0x730, symBinAddr: 0x128090, symSize: 0x120 }
  - { offsetInCU: 0x4B9C, offset: 0x600FD7, size: 0x8, addend: 0x0, symName: '__ZN4core3ptr34drop_in_place$LT$syn..pat..Pat$GT$17h3201f642e43ac2a2E', symObjAddr: 0x850, symBinAddr: 0x1281B0, symSize: 0x1050 }
  - { offsetInCU: 0x855B, offset: 0x604996, size: 0x8, addend: 0x0, symName: '__ZN4core3ptr34drop_in_place$LT$syn..ty..Type$GT$17hfb5d159a08190130E', symObjAddr: 0x18A0, symBinAddr: 0x129200, symSize: 0x620 }
  - { offsetInCU: 0xA193, offset: 0x6065CE, size: 0x8, addend: 0x0, symName: '__ZN4core3ptr36drop_in_place$LT$syn..expr..Expr$GT$17hf1921d1b09462bc3E', symObjAddr: 0x1F60, symBinAddr: 0x129820, symSize: 0x31D0 }
