---
triple:          'x86_64-apple-darwin'
binary-path:     "/Users/justinlanouette/Chaos/ChaöS-Token/hello_world/target/release/deps/librustversion-db9359726571ecbd.dylib"
relocations:
  - { offsetInCU: 0x1E, offset: 0x1E, size: 0x8, addend: 0x0, symName: '__ZN10proc_macro6bridge11scoped_cell19ScopedCell$LT$T$GT$7replace17h14de2b24ee412785E', symObjAddr: 0x0, symBinAddr: 0x1060, symSize: 0x0 }
  - { offsetInCU: 0x814, offset: 0x814, size: 0x8, addend: 0x0, symName: '__ZN4core3ptr145drop_in_place$LT$proc_macro..bridge..scoped_cell..ScopedCell$LT$T$GT$..replace..PutBackOnDrop$LT$proc_macro..bridge..client..BridgeStateL$GT$$GT$17h6f00d66dddd0c70aE.llvm.11522652697782458184', symObjAddr: 0x25E0, symBinAddr: 0x3640, symSize: 0xC0 }
  - { offsetInCU: 0xB83, offset: 0xB83, size: 0x8, addend: 0x0, symName: '__ZN4core3ptr676drop_in_place$LT$proc_macro..bridge..scoped_cell..ScopedCell$LT$proc_macro..bridge..client..BridgeStateL$GT$..set$LT$$LP$$RP$$C$proc_macro..bridge..client..run_client$LT$$LP$proc_macro..bridge..client..TokenStream$C$proc_macro..bridge..client..TokenStream$RP$$C$core..option..Option$LT$proc_macro..bridge..client..TokenStream$GT$$C$proc_macro..bridge..client..Client$LT$$LP$proc_macro..TokenStream$C$proc_macro..TokenStream$RP$$C$proc_macro..TokenStream$GT$..expand2$LT$rustversion..all$GT$..$u7b$$u7b$closure$u7d$$u7d$..$u7b$$u7b$closure$u7d$$u7d$$GT$..$u7b$$u7b$closure$u7d$$u7d$..$u7b$$u7b$closure$u7d$$u7d$..$u7b$$u7b$closure$u7d$$u7d$$GT$..$u7b$$u7b$closure$u7d$$u7d$$GT$17he0f62a0492d50445E', symObjAddr: 0x26A0, symBinAddr: 0x3700, symSize: 0x3F }
  - { offsetInCU: 0x30AA, offset: 0x30AA, size: 0x8, addend: 0x0, symName: '__ZN10proc_macro6bridge11scoped_cell19ScopedCell$LT$T$GT$7replace17h14de2b24ee412785E', symObjAddr: 0x0, symBinAddr: 0x1060, symSize: 0x0 }
  - { offsetInCU: 0x3685, offset: 0x3685, size: 0x8, addend: 0x0, symName: '__ZN10proc_macro6bridge11scoped_cell19ScopedCell$LT$T$GT$7replace17h2a620c66c50e21beE', symObjAddr: 0x1D0, symBinAddr: 0x1230, symSize: 0x3A0 }
  - { offsetInCU: 0x3F4B, offset: 0x3F4B, size: 0x8, addend: 0x0, symName: '__ZN10proc_macro6bridge11scoped_cell19ScopedCell$LT$T$GT$7replace17h2eca020f01bca838E', symObjAddr: 0x570, symBinAddr: 0x15D0, symSize: 0x3A0 }
  - { offsetInCU: 0x4811, offset: 0x4811, size: 0x8, addend: 0x0, symName: '__ZN10proc_macro6bridge11scoped_cell19ScopedCell$LT$T$GT$7replace17h37349320a6f6914eE', symObjAddr: 0x910, symBinAddr: 0x1970, symSize: 0x390 }
  - { offsetInCU: 0x50B4, offset: 0x50B4, size: 0x8, addend: 0x0, symName: '__ZN10proc_macro6bridge11scoped_cell19ScopedCell$LT$T$GT$7replace17h3b5ca71b7f176a15E', symObjAddr: 0xCA0, symBinAddr: 0x1D00, symSize: 0x3A0 }
  - { offsetInCU: 0x597A, offset: 0x597A, size: 0x8, addend: 0x0, symName: '__ZN10proc_macro6bridge11scoped_cell19ScopedCell$LT$T$GT$7replace17h42df0e2ac0345479E', symObjAddr: 0x1040, symBinAddr: 0x20A0, symSize: 0x3A0 }
  - { offsetInCU: 0x6240, offset: 0x6240, size: 0x8, addend: 0x0, symName: '__ZN10proc_macro6bridge11scoped_cell19ScopedCell$LT$T$GT$7replace17h474ed49d38707ce1E', symObjAddr: 0x13E0, symBinAddr: 0x2440, symSize: 0x3A0 }
  - { offsetInCU: 0x6B06, offset: 0x6B06, size: 0x8, addend: 0x0, symName: '__ZN10proc_macro6bridge11scoped_cell19ScopedCell$LT$T$GT$7replace17hd64be8b867cadca0E', symObjAddr: 0x1780, symBinAddr: 0x27E0, symSize: 0x3A0 }
  - { offsetInCU: 0x741E, offset: 0x741E, size: 0x8, addend: 0x0, symName: '__ZN10proc_macro6bridge11scoped_cell19ScopedCell$LT$T$GT$7replace17hde978dfaeb507605E', symObjAddr: 0x1B20, symBinAddr: 0x2B80, symSize: 0x380 }
  - { offsetInCU: 0x7CF6, offset: 0x7CF6, size: 0x8, addend: 0x0, symName: '__ZN10proc_macro6bridge11scoped_cell19ScopedCell$LT$T$GT$7replace17he1edb27d07d3dfecE', symObjAddr: 0x1EA0, symBinAddr: 0x2F00, symSize: 0x3A0 }
  - { offsetInCU: 0x85BC, offset: 0x85BC, size: 0x8, addend: 0x0, symName: '__ZN10proc_macro6bridge11scoped_cell19ScopedCell$LT$T$GT$7replace17hed3f630cd700f2d9E', symObjAddr: 0x2240, symBinAddr: 0x32A0, symSize: 0x3A0 }
  - { offsetInCU: 0x1E, offset: 0xA3CC, size: 0x8, addend: 0x0, symName: __ZN11rustversion5bound5parse17h768eb2ab9d64a16aE, symObjAddr: 0x0, symBinAddr: 0x3740, symSize: 0x353 }
  - { offsetInCU: 0x142E, offset: 0xB7DC, size: 0x8, addend: 0x0, symName: __ZN11rustversion5bound5parse17h768eb2ab9d64a16aE, symObjAddr: 0x0, symBinAddr: 0x3740, symSize: 0x353 }
  - { offsetInCU: 0x1E, offset: 0xCFFE, size: 0x8, addend: 0x0, symName: __ZN3std9panicking3try17h04043aafda51dce9E, symObjAddr: 0x0, symBinAddr: 0x3AA0, symSize: 0x230 }
  - { offsetInCU: 0xE6E, offset: 0xDE4E, size: 0x8, addend: 0x0, symName: __ZN3std9panicking3try17h04043aafda51dce9E, symObjAddr: 0x0, symBinAddr: 0x3AA0, symSize: 0x230 }
  - { offsetInCU: 0x1232, offset: 0xE212, size: 0x8, addend: 0x0, symName: __ZN3std9panicking3try17h175f60a1cd7c9f90E, symObjAddr: 0x230, symBinAddr: 0x3CD0, symSize: 0x230 }
  - { offsetInCU: 0x15F6, offset: 0xE5D6, size: 0x8, addend: 0x0, symName: __ZN3std9panicking3try17h30c7140e95bd123aE, symObjAddr: 0x460, symBinAddr: 0x3F00, symSize: 0x230 }
  - { offsetInCU: 0x19BA, offset: 0xE99A, size: 0x8, addend: 0x0, symName: __ZN3std9panicking3try17h3a225c2d14eda59bE, symObjAddr: 0x690, symBinAddr: 0x4130, symSize: 0x230 }
  - { offsetInCU: 0x1D7E, offset: 0xED5E, size: 0x8, addend: 0x0, symName: __ZN3std9panicking3try17h3c3f01fbd858d881E, symObjAddr: 0x8C0, symBinAddr: 0x4360, symSize: 0x230 }
  - { offsetInCU: 0x2142, offset: 0xF122, size: 0x8, addend: 0x0, symName: __ZN3std9panicking3try17h5b749b1f272e18f8E, symObjAddr: 0xAF0, symBinAddr: 0x4590, symSize: 0x390 }
  - { offsetInCU: 0x27F2, offset: 0xF7D2, size: 0x8, addend: 0x0, symName: __ZN3std9panicking3try17h81155f81994fbe62E, symObjAddr: 0xF20, symBinAddr: 0x4920, symSize: 0x230 }
  - { offsetInCU: 0x2BB6, offset: 0xFB96, size: 0x8, addend: 0x0, symName: __ZN3std9panicking3try17h9d5925d128ff8ba6E, symObjAddr: 0x1150, symBinAddr: 0x4B50, symSize: 0x230 }
  - { offsetInCU: 0x2F7A, offset: 0xFF5A, size: 0x8, addend: 0x0, symName: __ZN3std9panicking3try17hda2d52e6787c6e40E, symObjAddr: 0x1380, symBinAddr: 0x4D80, symSize: 0x230 }
  - { offsetInCU: 0x333E, offset: 0x1031E, size: 0x8, addend: 0x0, symName: __ZN3std9panicking3try17hee124e00d7139c6dE, symObjAddr: 0x15B0, symBinAddr: 0x4FB0, symSize: 0x230 }
  - { offsetInCU: 0x47A5, offset: 0x11785, size: 0x8, addend: 0x0, symName: '__ZN4core3ptr110drop_in_place$LT$$LP$proc_macro..bridge..client..TokenStream$C$proc_macro..bridge..client..TokenStream$RP$$GT$17h459b314d0952c79eE', symObjAddr: 0x17E0, symBinAddr: 0x51E0, symSize: 0x40 }
  - { offsetInCU: 0x483A, offset: 0x1181A, size: 0x8, addend: 0x0, symName: '__ZN4core3ptr503drop_in_place$LT$proc_macro..bridge..client..run_client$LT$$LP$proc_macro..bridge..client..TokenStream$C$proc_macro..bridge..client..TokenStream$RP$$C$core..option..Option$LT$proc_macro..bridge..client..TokenStream$GT$$C$proc_macro..bridge..client..Client$LT$$LP$proc_macro..TokenStream$C$proc_macro..TokenStream$RP$$C$proc_macro..TokenStream$GT$..expand2$LT$rustversion..all$GT$..$u7b$$u7b$closure$u7d$$u7d$..$u7b$$u7b$closure$u7d$$u7d$$GT$..$u7b$$u7b$closure$u7d$$u7d$..$u7b$$u7b$closure$u7d$$u7d$$GT$17h6d21c4119ee61b4eE', symObjAddr: 0x1820, symBinAddr: 0x5220, symSize: 0xF0 }
  - { offsetInCU: 0x4A71, offset: 0x11A51, size: 0x8, addend: 0x0, symName: '__ZN4core3ptr52drop_in_place$LT$std..thread..local..AccessError$GT$17hbcf23bb9b3823245E', symObjAddr: 0x1910, symBinAddr: 0x5310, symSize: 0x6 }
  - { offsetInCU: 0x1E, offset: 0x14796, size: 0x8, addend: 0x0, symName: '__ZN4core3ptr44drop_in_place$LT$rustversion..expr..Expr$GT$17h4fc29245c2acc1b5E', symObjAddr: 0x0, symBinAddr: 0x5320, symSize: 0xC0 }
  - { offsetInCU: 0x59D, offset: 0x14D15, size: 0x8, addend: 0x0, symName: '__ZN4core3ptr44drop_in_place$LT$rustversion..expr..Expr$GT$17h4fc29245c2acc1b5E', symObjAddr: 0x0, symBinAddr: 0x5320, symSize: 0xC0 }
  - { offsetInCU: 0x8A5, offset: 0x1501D, size: 0x8, addend: 0x0, symName: '__ZN4core3ptr48drop_in_place$LT$rustversion..iter..IterImpl$GT$17h008b23b9b3bde878E', symObjAddr: 0xC0, symBinAddr: 0x53E0, symSize: 0xF0 }
  - { offsetInCU: 0xD1F, offset: 0x15497, size: 0x8, addend: 0x0, symName: '__ZN4core3ptr67drop_in_place$LT$alloc..vec..Vec$LT$rustversion..expr..Expr$GT$$GT$17h0e2bea83be6652ebE', symObjAddr: 0x1B0, symBinAddr: 0x54D0, symSize: 0x60 }
  - { offsetInCU: 0x3191, offset: 0x17909, size: 0x8, addend: 0x0, symName: __ZN11rustversion4expr5parse17h33fb2fd909df4c22E, symObjAddr: 0x4C0, symBinAddr: 0x57E0, symSize: 0xAD0 }
  - { offsetInCU: 0x5279, offset: 0x199F1, size: 0x8, addend: 0x0, symName: __ZN11rustversion4expr12parse_before17hc0cc678fec92ae22E, symObjAddr: 0xF90, symBinAddr: 0x62B0, symSize: 0x1B0 }
  - { offsetInCU: 0x543D, offset: 0x19BB5, size: 0x8, addend: 0x0, symName: __ZN11rustversion4expr9parse_not17ha7db498f9f5158e1E, symObjAddr: 0x1140, symBinAddr: 0x6460, symSize: 0x260 }
  - { offsetInCU: 0x57C6, offset: 0x19F3E, size: 0x8, addend: 0x0, symName: __ZN11rustversion4expr9parse_any17hfbb7c2ed7b0d179fE, symObjAddr: 0x13A0, symBinAddr: 0x66C0, symSize: 0x1B0 }
  - { offsetInCU: 0x5B04, offset: 0x1A27C, size: 0x8, addend: 0x0, symName: __ZN11rustversion4expr9parse_all17he005080d92a20be9E, symObjAddr: 0x1550, symBinAddr: 0x6870, symSize: 0x1B0 }
  - { offsetInCU: 0x5E42, offset: 0x1A5BA, size: 0x8, addend: 0x0, symName: __ZN11rustversion4expr21parse_comma_separated17h119dad98947e977cE, symObjAddr: 0x1700, symBinAddr: 0x6A20, symSize: 0x2A0 }
  - { offsetInCU: 0x6927, offset: 0x1B09F, size: 0x8, addend: 0x0, symName: __ZN11rustversion4expr4Expr4eval17hac81837b94cd75c5E, symObjAddr: 0x210, symBinAddr: 0x5530, symSize: 0x2B0 }
  - { offsetInCU: 0x1E, offset: 0x1D01E, size: 0x8, addend: 0x0, symName: __ZN5alloc7raw_vec11finish_grow17ha09f2cce2d0a2578E.llvm.6702169613914979982, symObjAddr: 0x0, symBinAddr: 0x6CC0, symSize: 0xA0 }
  - { offsetInCU: 0x11C0, offset: 0x1E1C0, size: 0x8, addend: 0x0, symName: __ZN5alloc7raw_vec11finish_grow17ha09f2cce2d0a2578E.llvm.6702169613914979982, symObjAddr: 0x0, symBinAddr: 0x6CC0, symSize: 0xA0 }
  - { offsetInCU: 0x1707, offset: 0x1E707, size: 0x8, addend: 0x0, symName: '__ZN5alloc7raw_vec19RawVec$LT$T$C$A$GT$7reserve21do_reserve_and_handle17h4b0177383c68a1c8E', symObjAddr: 0x350, symBinAddr: 0x59770, symSize: 0xB0 }
  - { offsetInCU: 0x1A3F, offset: 0x1EA3F, size: 0x8, addend: 0x0, symName: '__ZN5alloc7raw_vec19RawVec$LT$T$C$A$GT$7reserve21do_reserve_and_handle17hf01fc9555e1b11ceE', symObjAddr: 0x400, symBinAddr: 0x59820, symSize: 0xC0 }
  - { offsetInCU: 0x26CE, offset: 0x1F6CE, size: 0x8, addend: 0x0, symName: '__ZN5alloc7raw_vec19RawVec$LT$T$C$A$GT$16reserve_for_push17h0d620b4f18709258E', symObjAddr: 0x110, symBinAddr: 0x6D60, symSize: 0xD0 }
  - { offsetInCU: 0x2B92, offset: 0x1FB92, size: 0x8, addend: 0x0, symName: '__ZN5alloc7raw_vec19RawVec$LT$T$C$A$GT$16reserve_for_push17h7a8ddf4c70327898E', symObjAddr: 0x1E0, symBinAddr: 0x6E30, symSize: 0xB0 }
  - { offsetInCU: 0x3253, offset: 0x20253, size: 0x8, addend: 0x0, symName: '__ZN5alloc7raw_vec19RawVec$LT$T$C$A$GT$16reserve_for_push17h8970431f02d17154E', symObjAddr: 0x290, symBinAddr: 0x6EE0, symSize: 0x0 }
  - { offsetInCU: 0x35, offset: 0x205D0, size: 0x8, addend: 0x0, symName: _anon.623b4aaea89de65764b9140900e647c3.3.llvm.16828183888480847498, symObjAddr: 0x1DE8, symBinAddr: 0x6C2C0, symSize: 0x0 }
  - { offsetInCU: 0x3BD, offset: 0x20958, size: 0x8, addend: 0x0, symName: '__ZN77_$LT$$LP$A$C$B$RP$$u20$as$u20$proc_macro..bridge..rpc..DecodeMut$LT$S$GT$$GT$6decode17hce5cdc8dcac17d3eE', symObjAddr: 0x1B20, symBinAddr: 0x8090, symSize: 0xC2 }
  - { offsetInCU: 0xF9E, offset: 0x21539, size: 0x8, addend: 0x0, symName: __ZN10proc_macro6bridge6client10run_client17h0116f083ffb37f03E, symObjAddr: 0x210, symBinAddr: 0x6FA0, symSize: 0x1B0 }
  - { offsetInCU: 0x12AB, offset: 0x21846, size: 0x8, addend: 0x0, symName: __ZN10proc_macro6bridge6client10run_client17h040e40df80dca36bE, symObjAddr: 0x3C0, symBinAddr: 0x7150, symSize: 0x1B0 }
  - { offsetInCU: 0x15B8, offset: 0x21B53, size: 0x8, addend: 0x0, symName: __ZN10proc_macro6bridge6client10run_client17h095fcf9d0207c055E, symObjAddr: 0x570, symBinAddr: 0x7300, symSize: 0x1B0 }
  - { offsetInCU: 0x18C5, offset: 0x21E60, size: 0x8, addend: 0x0, symName: __ZN10proc_macro6bridge6client10run_client17h38946b64982cabe4E, symObjAddr: 0x720, symBinAddr: 0x74B0, symSize: 0x1B0 }
  - { offsetInCU: 0x1BD2, offset: 0x2216D, size: 0x8, addend: 0x0, symName: __ZN10proc_macro6bridge6client10run_client17h507f3ea3970a3199E, symObjAddr: 0x8D0, symBinAddr: 0x7660, symSize: 0x1B0 }
  - { offsetInCU: 0x1EDF, offset: 0x2247A, size: 0x8, addend: 0x0, symName: __ZN10proc_macro6bridge6client10run_client17h5ec7a66d14b305cdE, symObjAddr: 0xA80, symBinAddr: 0x7810, symSize: 0x1B0 }
  - { offsetInCU: 0x21EC, offset: 0x22787, size: 0x8, addend: 0x0, symName: __ZN10proc_macro6bridge6client10run_client17h67ed8065c5402109E, symObjAddr: 0xC30, symBinAddr: 0x79C0, symSize: 0x1B0 }
  - { offsetInCU: 0x24F9, offset: 0x22A94, size: 0x8, addend: 0x0, symName: __ZN10proc_macro6bridge6client10run_client17h729f5bea3de75849E, symObjAddr: 0xDE0, symBinAddr: 0x7B70, symSize: 0x1B0 }
  - { offsetInCU: 0x282B, offset: 0x22DC6, size: 0x8, addend: 0x0, symName: __ZN10proc_macro6bridge6client10run_client17h809eece651981659E, symObjAddr: 0xF90, symBinAddr: 0x7D20, symSize: 0x1B0 }
  - { offsetInCU: 0x2B38, offset: 0x230D3, size: 0x8, addend: 0x0, symName: __ZN10proc_macro6bridge6client10run_client17he6361c749c75fe2cE, symObjAddr: 0x1140, symBinAddr: 0x7ED0, symSize: 0x1B0 }
  - { offsetInCU: 0x3057, offset: 0x235F2, size: 0x8, addend: 0x0, symName: '__ZN4core3ptr52drop_in_place$LT$std..thread..local..AccessError$GT$17hbcf23bb9b3823245E.llvm.16828183888480847498', symObjAddr: 0x1B10, symBinAddr: 0x8080, symSize: 0x10 }
  - { offsetInCU: 0x1E, offset: 0x247BB, size: 0x8, addend: 0x0, symName: '__ZN4core3ptr37drop_in_place$LT$core..fmt..Error$GT$17he706837fdad254e5E.llvm.17564055244701554434', symObjAddr: 0x0, symBinAddr: 0x8160, symSize: 0x10 }
  - { offsetInCU: 0x35, offset: 0x247D2, size: 0x8, addend: 0x0, symName: _anon.40677b6f983b18b60c55a118fbffd5eb.0.llvm.17564055244701554434, symObjAddr: 0xEB8, symBinAddr: 0x6C2E0, symSize: 0x0 }
  - { offsetInCU: 0x107, offset: 0x248A4, size: 0x8, addend: 0x0, symName: '__ZN58_$LT$alloc..string..String$u20$as$u20$core..fmt..Write$GT$10write_char17hd329c0cb943f081aE.llvm.17564055244701554434', symObjAddr: 0x50, symBinAddr: 0x81B0, symSize: 0x130 }
  - { offsetInCU: 0x4AE, offset: 0x24C4B, size: 0x8, addend: 0x0, symName: '__ZN58_$LT$alloc..string..String$u20$as$u20$core..fmt..Write$GT$9write_str17h1ff5aa96ca91c6d5E.llvm.17564055244701554434', symObjAddr: 0x180, symBinAddr: 0x82E0, symSize: 0x60 }
  - { offsetInCU: 0x11E0, offset: 0x2597D, size: 0x8, addend: 0x0, symName: '__ZN4core3ptr37drop_in_place$LT$core..fmt..Error$GT$17he706837fdad254e5E.llvm.17564055244701554434', symObjAddr: 0x0, symBinAddr: 0x8160, symSize: 0x10 }
  - { offsetInCU: 0x124A, offset: 0x259E7, size: 0x8, addend: 0x0, symName: '__ZN4core3ptr42drop_in_place$LT$alloc..string..String$GT$17heb505f1a225b8150E.llvm.17564055244701554434', symObjAddr: 0x10, symBinAddr: 0x8170, symSize: 0x20 }
  - { offsetInCU: 0x158C, offset: 0x25D29, size: 0x8, addend: 0x0, symName: '__ZN53_$LT$core..fmt..Error$u20$as$u20$core..fmt..Debug$GT$3fmt17h43ae5cec9623af13E.llvm.17564055244701554434', symObjAddr: 0x30, symBinAddr: 0x8190, symSize: 0x20 }
  - { offsetInCU: 0x1CAC, offset: 0x26449, size: 0x8, addend: 0x0, symName: _anon.40677b6f983b18b60c55a118fbffd5eb.4.llvm.17564055244701554434, symObjAddr: 0xF00, symBinAddr: 0x6C328, symSize: 0x0 }
  - { offsetInCU: 0x28F1, offset: 0x2708E, size: 0x8, addend: 0x0, symName: __ZN11rustversion5error5Error5group17h27e9487248d5cae9E, symObjAddr: 0x360, symBinAddr: 0x8340, symSize: 0x430 }
  - { offsetInCU: 0x328C, offset: 0x27A29, size: 0x8, addend: 0x0, symName: __ZN11rustversion5error5Error5group17h3b72305c4e5df171E, symObjAddr: 0x790, symBinAddr: 0x8770, symSize: 0x3F0 }
  - { offsetInCU: 0x3E74, offset: 0x28611, size: 0x8, addend: 0x0, symName: __ZN11rustversion5error5Error18into_compile_error17h836ba9da61381a08E, symObjAddr: 0xB80, symBinAddr: 0x8B60, symSize: 0x222 }
  - { offsetInCU: 0x858, offset: 0x29C2E, size: 0x8, addend: 0x0, symName: '__ZN68_$LT$$RF$str$u20$as$u20$proc_macro..bridge..rpc..Encode$LT$S$GT$$GT$6encode17ha8d4ee2efc3e29daE', symObjAddr: 0x70, symBinAddr: 0x8D90, symSize: 0x330 }
  - { offsetInCU: 0x1E, offset: 0x2A465, size: 0x8, addend: 0x0, symName: __ZN4core3fmt5Write10write_char17h92df4451a104429eE, symObjAddr: 0x0, symBinAddr: 0x90C0, symSize: 0x100 }
  - { offsetInCU: 0xC8, offset: 0x2A50F, size: 0x8, addend: 0x0, symName: '__ZN80_$LT$std..io..Write..write_fmt..Adapter$LT$T$GT$$u20$as$u20$core..fmt..Write$GT$9write_str17ha84c5b7c8b4dc5eaE', symObjAddr: 0x1E0, symBinAddr: 0x92A0, symSize: 0x3E }
  - { offsetInCU: 0x9F7, offset: 0x2AE3E, size: 0x8, addend: 0x0, symName: '__ZN4core3ptr81drop_in_place$LT$core..result..Result$LT$$LP$$RP$$C$std..io..error..Error$GT$$GT$17h2cbd6613d23c7a27E', symObjAddr: 0x120, symBinAddr: 0x91E0, symSize: 0xB0 }
  - { offsetInCU: 0xE69, offset: 0x2B2B0, size: 0x8, addend: 0x0, symName: '__ZN4core3ptr92drop_in_place$LT$std..io..Write..write_fmt..Adapter$LT$std..sys..unix..stdio..Stderr$GT$$GT$17h5ce6a8e788d459f9E', symObjAddr: 0x1D0, symBinAddr: 0x9290, symSize: 0x10 }
  - { offsetInCU: 0xFEF, offset: 0x2B436, size: 0x8, addend: 0x0, symName: __ZN4core3fmt5Write10write_char17h92df4451a104429eE, symObjAddr: 0x0, symBinAddr: 0x90C0, symSize: 0x100 }
  - { offsetInCU: 0x1158, offset: 0x2B59F, size: 0x8, addend: 0x0, symName: __ZN4core3fmt5Write9write_fmt17h6b2bda61086ad9e6E, symObjAddr: 0x100, symBinAddr: 0x91C0, symSize: 0x20 }
  - { offsetInCU: 0x1E, offset: 0x2BD10, size: 0x8, addend: 0x0, symName: '__ZN4core3ptr44drop_in_place$LT$rustversion..expr..Expr$GT$17h4fc29245c2acc1b5E', symObjAddr: 0x0, symBinAddr: 0x92E0, symSize: 0xC0 }
  - { offsetInCU: 0x5EE, offset: 0x2C2E0, size: 0x8, addend: 0x0, symName: '__ZN4core3ptr44drop_in_place$LT$rustversion..expr..Expr$GT$17h4fc29245c2acc1b5E', symObjAddr: 0x0, symBinAddr: 0x92E0, symSize: 0xC0 }
  - { offsetInCU: 0x8F6, offset: 0x2C5E8, size: 0x8, addend: 0x0, symName: '__ZN4core3ptr48drop_in_place$LT$rustversion..iter..IterImpl$GT$17h008b23b9b3bde878E', symObjAddr: 0xC0, symBinAddr: 0x93A0, symSize: 0xF0 }
  - { offsetInCU: 0x1F42, offset: 0x2DC34, size: 0x8, addend: 0x0, symName: __ZN11rustversion6expand3cfg17h0d4ded60c82a2d1fE, symObjAddr: 0x1B0, symBinAddr: 0x9490, symSize: 0x300 }
  - { offsetInCU: 0x2292, offset: 0x2DF84, size: 0x8, addend: 0x0, symName: __ZN11rustversion6expand8try_attr17h739792c767147855E, symObjAddr: 0x4B0, symBinAddr: 0x9790, symSize: 0x5DD }
  - { offsetInCU: 0x1E, offset: 0x2F993, size: 0x8, addend: 0x0, symName: __ZN3std2io5Write9write_all17h7063fde46718c4acE, symObjAddr: 0x0, symBinAddr: 0x9D70, symSize: 0xF0 }
  - { offsetInCU: 0x35, offset: 0x2F9AA, size: 0x8, addend: 0x0, symName: _anon.2adf50c60c9233fee7894cad0adc0e23.6.llvm.16556852380141241548, symObjAddr: 0x328, symBinAddr: 0x6C3D8, symSize: 0x0 }
  - { offsetInCU: 0xE3, offset: 0x2FA58, size: 0x8, addend: 0x0, symName: __ZN3std2io5Write9write_all17h7063fde46718c4acE, symObjAddr: 0x0, symBinAddr: 0x9D70, symSize: 0xF0 }
  - { offsetInCU: 0x35F, offset: 0x2FCD4, size: 0x8, addend: 0x0, symName: __ZN3std2io5Write9write_fmt17hbfa398bbadb9dd34E, symObjAddr: 0xF0, symBinAddr: 0x9E60, symSize: 0x90 }
  - { offsetInCU: 0x141D, offset: 0x30D92, size: 0x8, addend: 0x0, symName: '__ZN4core3ptr42drop_in_place$LT$std..io..error..Error$GT$17h0898fd54b72b8835E.llvm.16556852380141241548', symObjAddr: 0x180, symBinAddr: 0x9EF0, symSize: 0xA0 }
  - { offsetInCU: 0x1881, offset: 0x311F6, size: 0x8, addend: 0x0, symName: '__ZN4core3ptr92drop_in_place$LT$std..io..Write..write_fmt..Adapter$LT$std..sys..unix..stdio..Stderr$GT$$GT$17h5ce6a8e788d459f9E.llvm.16556852380141241548', symObjAddr: 0x220, symBinAddr: 0x9F90, symSize: 0x15 }
  - { offsetInCU: 0x1E, offset: 0x31BB4, size: 0x8, addend: 0x0, symName: '__ZN3std3sys6common12thread_local10fast_local12Key$LT$T$GT$14try_initialize17hcc267f114d68c880E.llvm.3777773542807785679', symObjAddr: 0x0, symBinAddr: 0x9FB0, symSize: 0x150 }
  - { offsetInCU: 0x3E7, offset: 0x31F7D, size: 0x8, addend: 0x0, symName: __ZN3std3sys6common12thread_local10fast_local13destroy_value17h62e45608ff7fb562E, symObjAddr: 0x170, symBinAddr: 0xA100, symSize: 0xE0 }
  - { offsetInCU: 0xF93, offset: 0x32B29, size: 0x8, addend: 0x0, symName: '__ZN4core3ptr81drop_in_place$LT$core..result..Result$LT$$LP$$RP$$C$std..io..error..Error$GT$$GT$17h2cbd6613d23c7a27E', symObjAddr: 0x250, symBinAddr: 0xA1E0, symSize: 0xA5 }
  - { offsetInCU: 0x1C4A, offset: 0x337E0, size: 0x8, addend: 0x0, symName: '__ZN3std3sys6common12thread_local10fast_local12Key$LT$T$GT$14try_initialize17hcc267f114d68c880E.llvm.3777773542807785679', symObjAddr: 0x0, symBinAddr: 0x9FB0, symSize: 0x150 }
  - { offsetInCU: 0x1E, offset: 0x34BCE, size: 0x8, addend: 0x0, symName: '__ZN108_$LT$proc_macro..TokenStream$u20$as$u20$core..iter..traits..collect..Extend$LT$proc_macro..TokenTree$GT$$GT$6extend17h2a873cbc822c7d72E', symObjAddr: 0x0, symBinAddr: 0xA290, symSize: 0x1A0 }
  - { offsetInCU: 0x5C4, offset: 0x35174, size: 0x8, addend: 0x0, symName: '__ZN108_$LT$proc_macro..TokenStream$u20$as$u20$core..iter..traits..collect..Extend$LT$proc_macro..TokenTree$GT$$GT$6extend17h2a873cbc822c7d72E', symObjAddr: 0x0, symBinAddr: 0xA290, symSize: 0x1A0 }
  - { offsetInCU: 0x927, offset: 0x354D7, size: 0x8, addend: 0x0, symName: '__ZN108_$LT$proc_macro..TokenStream$u20$as$u20$core..iter..traits..collect..Extend$LT$proc_macro..TokenTree$GT$$GT$6extend17haaf4e995c0929bc5E', symObjAddr: 0x1A0, symBinAddr: 0xA430, symSize: 0xD0 }
  - { offsetInCU: 0xBA7, offset: 0x35757, size: 0x8, addend: 0x0, symName: '__ZN108_$LT$proc_macro..TokenStream$u20$as$u20$core..iter..traits..collect..Extend$LT$proc_macro..TokenTree$GT$$GT$6extend17hb7728bad665377afE', symObjAddr: 0x270, symBinAddr: 0xA500, symSize: 0x180 }
  - { offsetInCU: 0xE16, offset: 0x359C6, size: 0x8, addend: 0x0, symName: '__ZN108_$LT$proc_macro..TokenStream$u20$as$u20$core..iter..traits..collect..Extend$LT$proc_macro..TokenTree$GT$$GT$6extend17hfcbe809efaf7b073E', symObjAddr: 0x3F0, symBinAddr: 0xA680, symSize: 0xB0 }
  - { offsetInCU: 0x1025, offset: 0x35BD5, size: 0x8, addend: 0x0, symName: '__ZN114_$LT$proc_macro..TokenStream$u20$as$u20$core..iter..traits..collect..FromIterator$LT$proc_macro..TokenTree$GT$$GT$9from_iter17h4198b44932aca28eE', symObjAddr: 0x4A0, symBinAddr: 0xA730, symSize: 0xB0 }
  - { offsetInCU: 0x11A0, offset: 0x35D50, size: 0x8, addend: 0x0, symName: '__ZN114_$LT$proc_macro..TokenStream$u20$as$u20$core..iter..traits..collect..FromIterator$LT$proc_macro..TokenTree$GT$$GT$9from_iter17h4ba88277c861c556E', symObjAddr: 0x550, symBinAddr: 0xA7E0, symSize: 0x160 }
  - { offsetInCU: 0x1402, offset: 0x35FB2, size: 0x8, addend: 0x0, symName: '__ZN114_$LT$proc_macro..TokenStream$u20$as$u20$core..iter..traits..collect..FromIterator$LT$proc_macro..TokenTree$GT$$GT$9from_iter17hf9c71838715e8192E', symObjAddr: 0x6B0, symBinAddr: 0xA940, symSize: 0x180 }
  - { offsetInCU: 0x15BE, offset: 0x3616E, size: 0x8, addend: 0x0, symName: '__ZN44_$LT$$RF$T$u20$as$u20$core..fmt..Display$GT$3fmt17h12bb51723a693447E', symObjAddr: 0x830, symBinAddr: 0xAAC0, symSize: 0x10 }
  - { offsetInCU: 0x24FA, offset: 0x370AA, size: 0x8, addend: 0x0, symName: '__ZN4core3ptr160drop_in_place$LT$core..iter..adapters..chain..Chain$LT$alloc..vec..into_iter..IntoIter$LT$proc_macro..TokenTree$GT$$C$proc_macro..token_stream..IntoIter$GT$$GT$17h9ebef5b251ffe3beE.llvm.811150242095418915', symObjAddr: 0x840, symBinAddr: 0xAAD0, symSize: 0x60 }
  - { offsetInCU: 0x264A, offset: 0x371FA, size: 0x8, addend: 0x0, symName: '__ZN4core3ptr50drop_in_place$LT$proc_macro..ConcatTreesHelper$GT$17h06ebf2f2a4898e68E.llvm.811150242095418915', symObjAddr: 0x8A0, symBinAddr: 0xAB30, symSize: 0x117 }
  - { offsetInCU: 0x1E, offset: 0x38943, size: 0x8, addend: 0x0, symName: '__ZN137_$LT$alloc..vec..Vec$LT$T$GT$$u20$as$u20$alloc..vec..spec_from_iter..SpecFromIter$LT$T$C$alloc..vec..into_iter..IntoIter$LT$T$GT$$GT$$GT$9from_iter17h478609e0ff485af1E', symObjAddr: 0x0, symBinAddr: 0xAC50, symSize: 0x150 }
  - { offsetInCU: 0x4CF, offset: 0x38DF4, size: 0x8, addend: 0x0, symName: '__ZN4core3ptr44drop_in_place$LT$rustversion..expr..Expr$GT$17h4fc29245c2acc1b5E.llvm.1139714000152618701', symObjAddr: 0x150, symBinAddr: 0xADA0, symSize: 0x200 }
  - { offsetInCU: 0xA80, offset: 0x393A5, size: 0x8, addend: 0x0, symName: '__ZN4core3ptr67drop_in_place$LT$alloc..vec..Vec$LT$rustversion..expr..Expr$GT$$GT$17h0e2bea83be6652ebE.llvm.1139714000152618701', symObjAddr: 0x410, symBinAddr: 0xAFA0, symSize: 0x100 }
  - { offsetInCU: 0x154E, offset: 0x39E73, size: 0x8, addend: 0x0, symName: '__ZN137_$LT$alloc..vec..Vec$LT$T$GT$$u20$as$u20$alloc..vec..spec_from_iter..SpecFromIter$LT$T$C$alloc..vec..into_iter..IntoIter$LT$T$GT$$GT$$GT$9from_iter17h478609e0ff485af1E', symObjAddr: 0x0, symBinAddr: 0xAC50, symSize: 0x150 }
  - { offsetInCU: 0x1A33, offset: 0x3A358, size: 0x8, addend: 0x0, symName: '__ZN70_$LT$alloc..vec..Vec$LT$T$C$A$GT$$u20$as$u20$core..ops..drop..Drop$GT$4drop17hb34b0408b54532cdE', symObjAddr: 0x7A0, symBinAddr: 0xB0A0, symSize: 0xC0 }
  - { offsetInCU: 0x10C5, offset: 0x3BCCF, size: 0x8, addend: 0x0, symName: __ZN11rustversion4iter3new17h4b29fb400cfd27f8E, symObjAddr: 0x80, symBinAddr: 0xB160, symSize: 0xE0 }
  - { offsetInCU: 0x1330, offset: 0x3BF3A, size: 0x8, addend: 0x0, symName: '__ZN86_$LT$rustversion..iter..IterImpl$u20$as$u20$core..iter..traits..iterator..Iterator$GT$4next17hdd49fda7cd39904fE', symObjAddr: 0x1E0, symBinAddr: 0xB240, symSize: 0x1D0 }
  - { offsetInCU: 0x1E, offset: 0x3CCFA, size: 0x8, addend: 0x0, symName: '__ZN62_$LT$rustversion..date..Date$u20$as$u20$core..fmt..Display$GT$3fmt17h22b33e6c3aaceb46E', symObjAddr: 0x0, symBinAddr: 0xB410, symSize: 0x140 }
  - { offsetInCU: 0x14CE, offset: 0x3E1AA, size: 0x8, addend: 0x0, symName: '__ZN62_$LT$rustversion..date..Date$u20$as$u20$core..fmt..Display$GT$3fmt17h22b33e6c3aaceb46E', symObjAddr: 0x0, symBinAddr: 0xB410, symSize: 0x140 }
  - { offsetInCU: 0x170B, offset: 0x3E3E7, size: 0x8, addend: 0x0, symName: __ZN11rustversion4date5parse17h85293d3e0dc72d77E, symObjAddr: 0x140, symBinAddr: 0xB550, symSize: 0x4A0 }
  - { offsetInCU: 0x1E, offset: 0x3F6D1, size: 0x8, addend: 0x0, symName: '__ZN4core3ptr44drop_in_place$LT$rustversion..expr..Expr$GT$17h4fc29245c2acc1b5E.llvm.1495138317496928767', symObjAddr: 0x0, symBinAddr: 0xB9F0, symSize: 0xC0 }
  - { offsetInCU: 0x8BD, offset: 0x3FF70, size: 0x8, addend: 0x0, symName: '__ZN4core3ptr44drop_in_place$LT$rustversion..expr..Expr$GT$17h4fc29245c2acc1b5E.llvm.1495138317496928767', symObjAddr: 0x0, symBinAddr: 0xB9F0, symSize: 0xC0 }
  - { offsetInCU: 0x1439, offset: 0x40AEC, size: 0x8, addend: 0x0, symName: '__ZN86_$LT$alloc..vec..into_iter..IntoIter$LT$T$C$A$GT$$u20$as$u20$core..ops..drop..Drop$GT$4drop17h52d5c28d71e8417bE', symObjAddr: 0xC0, symBinAddr: 0xBAB0, symSize: 0xF0 }
  - { offsetInCU: 0x17D7, offset: 0x40E8A, size: 0x8, addend: 0x0, symName: '__ZN86_$LT$alloc..vec..into_iter..IntoIter$LT$T$C$A$GT$$u20$as$u20$core..ops..drop..Drop$GT$4drop17h81004b5891a64770E', symObjAddr: 0x1B0, symBinAddr: 0xBBA0, symSize: 0xD0 }
  - { offsetInCU: 0x1AA7, offset: 0x4115A, size: 0x8, addend: 0x0, symName: '__ZN86_$LT$alloc..vec..into_iter..IntoIter$LT$T$C$A$GT$$u20$as$u20$core..ops..drop..Drop$GT$4drop17h8d2f91f2a06e4901E', symObjAddr: 0x280, symBinAddr: 0xBC70, symSize: 0xE5 }
  - { offsetInCU: 0x1410, offset: 0x43457, size: 0x8, addend: 0x0, symName: __ZN11rustversion5token11parse_punct17h64c8f1f38362c5bbE, symObjAddr: 0x20, symBinAddr: 0xBD60, symSize: 0x1E0 }
  - { offsetInCU: 0x19DB, offset: 0x43A22, size: 0x8, addend: 0x0, symName: __ZN11rustversion5token20parse_optional_punct17hc6d8078908d956adE, symObjAddr: 0x200, symBinAddr: 0xBF40, symSize: 0xD0 }
  - { offsetInCU: 0x1BF2, offset: 0x43C39, size: 0x8, addend: 0x0, symName: __ZN11rustversion5token22parse_optional_keyword17h4eab16930928a047E, symObjAddr: 0x2D0, symBinAddr: 0xC010, symSize: 0x190 }
  - { offsetInCU: 0x20DC, offset: 0x44123, size: 0x8, addend: 0x0, symName: __ZN11rustversion5token13parse_literal17h5c127b781d51b122E, symObjAddr: 0x460, symBinAddr: 0xC1A0, symSize: 0x1C0 }
  - { offsetInCU: 0x255E, offset: 0x445A5, size: 0x8, addend: 0x0, symName: __ZN11rustversion5token11parse_paren17h7d6cafa381646c51E, symObjAddr: 0x620, symBinAddr: 0xC360, symSize: 0x2D0 }
  - { offsetInCU: 0x2B8B, offset: 0x44BD2, size: 0x8, addend: 0x0, symName: __ZN11rustversion5token9parse_end17he58fe4e9a542f111E, symObjAddr: 0x9C0, symBinAddr: 0xC630, symSize: 0x19C }
  - { offsetInCU: 0x1E, offset: 0x45CAB, size: 0x8, addend: 0x0, symName: '__ZN4core3ptr48drop_in_place$LT$rustversion..iter..IterImpl$GT$17h008b23b9b3bde878E', symObjAddr: 0x0, symBinAddr: 0xC7D0, symSize: 0xF0 }
  - { offsetInCU: 0x1AC, offset: 0x45E39, size: 0x8, addend: 0x0, symName: __ZN11rustversion7constfn12insert_const17h0929caca03eb04fbE, symObjAddr: 0x2E0, symBinAddr: 0xCAB0, symSize: 0x62D }
  - { offsetInCU: 0x12D1, offset: 0x46F5E, size: 0x8, addend: 0x0, symName: '__ZN4core3ptr48drop_in_place$LT$rustversion..iter..IterImpl$GT$17h008b23b9b3bde878E', symObjAddr: 0x0, symBinAddr: 0xC7D0, symSize: 0xF0 }
  - { offsetInCU: 0x176A, offset: 0x473F7, size: 0x8, addend: 0x0, symName: '__ZN4core3ptr65drop_in_place$LT$alloc..vec..Vec$LT$proc_macro..TokenTree$GT$$GT$17h5f9c645f8c21b7ffE', symObjAddr: 0xF0, symBinAddr: 0xC8C0, symSize: 0x120 }
  - { offsetInCU: 0x2240, offset: 0x47ECD, size: 0x8, addend: 0x0, symName: __ZN11rustversion7constfn10Qualifiers10from_ident17h993b046eec0ce089E, symObjAddr: 0x210, symBinAddr: 0xC9E0, symSize: 0xD0 }
  - { offsetInCU: 0x1E, offset: 0x49880, size: 0x8, addend: 0x0, symName: __ZN11rustversion7release5parse17h2214962cdc829cc1E, symObjAddr: 0x0, symBinAddr: 0xD0E0, symSize: 0x33D }
  - { offsetInCU: 0x125A, offset: 0x4AABC, size: 0x8, addend: 0x0, symName: __ZN11rustversion7release5parse17h2214962cdc829cc1E, symObjAddr: 0x0, symBinAddr: 0xD0E0, symSize: 0x33D }
  - { offsetInCU: 0x1E, offset: 0x4C282, size: 0x8, addend: 0x0, symName: __ZN10proc_macro6bridge6client14HandleCounters3get17h02da01958788119eE, symObjAddr: 0x0, symBinAddr: 0xD420, symSize: 0x10 }
  - { offsetInCU: 0x40, offset: 0x4C2A4, size: 0x8, addend: 0x0, symName: ___rustc_proc_macro_decls_6ad7e480fc4c0c0a__, symObjAddr: 0x920, symBinAddr: 0x6C728, symSize: 0x0 }
  - { offsetInCU: 0x323, offset: 0x4C587, size: 0x8, addend: 0x0, symName: __ZN11rustversion4attr17h23486610d825f620E, symObjAddr: 0x2C0, symBinAddr: 0xD5E0, symSize: 0x100 }
  - { offsetInCU: 0x569, offset: 0x4C7CD, size: 0x8, addend: 0x0, symName: __ZN11rustversion3cfg17hba7989360296f9a9E, symObjAddr: 0x3C0, symBinAddr: 0xD6E0, symSize: 0x234 }
  - { offsetInCU: 0x1427, offset: 0x4D68B, size: 0x8, addend: 0x0, symName: '__ZN4core3ptr44drop_in_place$LT$rustversion..expr..Expr$GT$17h4fc29245c2acc1b5E', symObjAddr: 0x10, symBinAddr: 0xD430, symSize: 0xC0 }
  - { offsetInCU: 0x172F, offset: 0x4D993, size: 0x8, addend: 0x0, symName: '__ZN4core3ptr48drop_in_place$LT$rustversion..iter..IterImpl$GT$17h008b23b9b3bde878E', symObjAddr: 0xD0, symBinAddr: 0xD4F0, symSize: 0xF0 }
  - { offsetInCU: 0x2329, offset: 0x4E58D, size: 0x8, addend: 0x0, symName: __ZN10proc_macro6bridge6client14HandleCounters3get17h02da01958788119eE, symObjAddr: 0x0, symBinAddr: 0xD420, symSize: 0x10 }
  - { offsetInCU: 0x1E, offset: 0x4F8B4, size: 0x8, addend: 0x0, symName: __ZN4core3fmt5Write9write_fmt17h10af7bdc6f977b90E, symObjAddr: 0x0, symBinAddr: 0xD920, symSize: 0x20 }
  - { offsetInCU: 0x89, offset: 0x4F91F, size: 0x8, addend: 0x0, symName: '__ZN58_$LT$alloc..string..String$u20$as$u20$core..fmt..Write$GT$10write_char17hd329c0cb943f081aE', symObjAddr: 0x40, symBinAddr: 0xD960, symSize: 0x130 }
  - { offsetInCU: 0x430, offset: 0x4FCC6, size: 0x8, addend: 0x0, symName: '__ZN58_$LT$alloc..string..String$u20$as$u20$core..fmt..Write$GT$9write_str17h1ff5aa96ca91c6d5E', symObjAddr: 0x170, symBinAddr: 0xDA90, symSize: 0x5B }
  - { offsetInCU: 0x956, offset: 0x501EC, size: 0x8, addend: 0x0, symName: '__ZN4core3ptr42drop_in_place$LT$alloc..string..String$GT$17heb505f1a225b8150E', symObjAddr: 0x20, symBinAddr: 0xD940, symSize: 0x20 }
  - { offsetInCU: 0xC0C, offset: 0x504A2, size: 0x8, addend: 0x0, symName: __ZN4core3fmt5Write9write_fmt17h10af7bdc6f977b90E, symObjAddr: 0x0, symBinAddr: 0xD920, symSize: 0x20 }
  - { offsetInCU: 0x1E, offset: 0x50F4E, size: 0x8, addend: 0x0, symName: '__ZN4core3ptr168drop_in_place$LT$$LT$alloc..vec..drain..Drain$LT$T$C$A$GT$$u20$as$u20$core..ops..drop..Drop$GT$..drop..DropGuard$LT$proc_macro..TokenTree$C$alloc..alloc..Global$GT$$GT$17h73a610ee2a7e4404E.llvm.501307323071101437', symObjAddr: 0x0, symBinAddr: 0xDAF0, symSize: 0x60 }
  - { offsetInCU: 0x496, offset: 0x513C6, size: 0x8, addend: 0x0, symName: '__ZN79_$LT$alloc..vec..drain..Drain$LT$T$C$A$GT$$u20$as$u20$core..ops..drop..Drop$GT$4drop17h9e411dc801a02b4bE', symObjAddr: 0x60, symBinAddr: 0xDB50, symSize: 0x130 }
  - { offsetInCU: 0xE58, offset: 0x51D88, size: 0x8, addend: 0x0, symName: '__ZN4core3ptr168drop_in_place$LT$$LT$alloc..vec..drain..Drain$LT$T$C$A$GT$$u20$as$u20$core..ops..drop..Drop$GT$..drop..DropGuard$LT$proc_macro..TokenTree$C$alloc..alloc..Global$GT$$GT$17h73a610ee2a7e4404E.llvm.501307323071101437', symObjAddr: 0x0, symBinAddr: 0xDAF0, symSize: 0x60 }
  - { offsetInCU: 0xE75, offset: 0x51DA5, size: 0x8, addend: 0x0, symName: '__ZN4core3ptr168drop_in_place$LT$$LT$alloc..vec..drain..Drain$LT$T$C$A$GT$$u20$as$u20$core..ops..drop..Drop$GT$..drop..DropGuard$LT$proc_macro..TokenTree$C$alloc..alloc..Global$GT$$GT$17h73a610ee2a7e4404E.llvm.501307323071101437', symObjAddr: 0x0, symBinAddr: 0xDAF0, symSize: 0x60 }
  - { offsetInCU: 0x1E, offset: 0x5242A, size: 0x8, addend: 0x0, symName: __ZN10proc_macro6bridge14selfless_reify31reify_to_extern_c_fn_hrt_bridge7wrapper17h1ca64e83c3972402E, symObjAddr: 0x0, symBinAddr: 0xDC80, symSize: 0x20 }
  - { offsetInCU: 0x3F8, offset: 0x52804, size: 0x8, addend: 0x0, symName: __ZN10proc_macro6bridge14selfless_reify31reify_to_extern_c_fn_hrt_bridge7wrapper17h1ca64e83c3972402E, symObjAddr: 0x0, symBinAddr: 0xDC80, symSize: 0x20 }
  - { offsetInCU: 0x470, offset: 0x5287C, size: 0x8, addend: 0x0, symName: __ZN10proc_macro6bridge14selfless_reify31reify_to_extern_c_fn_hrt_bridge7wrapper17h4ad44399dddf7731E, symObjAddr: 0x20, symBinAddr: 0xDCA0, symSize: 0x20 }
  - { offsetInCU: 0x4E8, offset: 0x528F4, size: 0x8, addend: 0x0, symName: __ZN10proc_macro6bridge14selfless_reify31reify_to_extern_c_fn_hrt_bridge7wrapper17h76fbdc280807e23bE, symObjAddr: 0x40, symBinAddr: 0xDCC0, symSize: 0x20 }
  - { offsetInCU: 0x560, offset: 0x5296C, size: 0x8, addend: 0x0, symName: __ZN10proc_macro6bridge14selfless_reify31reify_to_extern_c_fn_hrt_bridge7wrapper17h803d35835c63f505E, symObjAddr: 0x60, symBinAddr: 0xDCE0, symSize: 0x20 }
  - { offsetInCU: 0x5D8, offset: 0x529E4, size: 0x8, addend: 0x0, symName: __ZN10proc_macro6bridge14selfless_reify31reify_to_extern_c_fn_hrt_bridge7wrapper17h931148c6443d1efeE, symObjAddr: 0x80, symBinAddr: 0xDD00, symSize: 0x20 }
  - { offsetInCU: 0x650, offset: 0x52A5C, size: 0x8, addend: 0x0, symName: __ZN10proc_macro6bridge14selfless_reify31reify_to_extern_c_fn_hrt_bridge7wrapper17ha01f611ae32a6bfaE, symObjAddr: 0xA0, symBinAddr: 0xDD20, symSize: 0x20 }
  - { offsetInCU: 0x6C8, offset: 0x52AD4, size: 0x8, addend: 0x0, symName: __ZN10proc_macro6bridge14selfless_reify31reify_to_extern_c_fn_hrt_bridge7wrapper17hd56fbcfddf24493cE, symObjAddr: 0xC0, symBinAddr: 0xDD40, symSize: 0x20 }
  - { offsetInCU: 0x740, offset: 0x52B4C, size: 0x8, addend: 0x0, symName: __ZN10proc_macro6bridge14selfless_reify31reify_to_extern_c_fn_hrt_bridge7wrapper17hdb50eb5ea9b3495aE, symObjAddr: 0xE0, symBinAddr: 0xDD60, symSize: 0x20 }
  - { offsetInCU: 0x7B8, offset: 0x52BC4, size: 0x8, addend: 0x0, symName: __ZN10proc_macro6bridge14selfless_reify31reify_to_extern_c_fn_hrt_bridge7wrapper17hde26ec59404bf90bE, symObjAddr: 0x100, symBinAddr: 0xDD80, symSize: 0x20 }
  - { offsetInCU: 0x830, offset: 0x52C3C, size: 0x8, addend: 0x0, symName: __ZN10proc_macro6bridge14selfless_reify31reify_to_extern_c_fn_hrt_bridge7wrapper17hf147c9a79bec3264E, symObjAddr: 0x120, symBinAddr: 0xDDA0, symSize: 0x20 }
  - { offsetInCU: 0x1E, offset: 0x52E80, size: 0x8, addend: 0x0, symName: '__ZN4core3ptr44drop_in_place$LT$rustversion..expr..Expr$GT$17h4fc29245c2acc1b5E', symObjAddr: 0x0, symBinAddr: 0xDDC0, symSize: 0xC0 }
  - { offsetInCU: 0x509, offset: 0x5336B, size: 0x8, addend: 0x0, symName: '__ZN4core3ptr44drop_in_place$LT$rustversion..expr..Expr$GT$17h4fc29245c2acc1b5E', symObjAddr: 0x0, symBinAddr: 0xDDC0, symSize: 0xC0 }
  - { offsetInCU: 0x811, offset: 0x53673, size: 0x8, addend: 0x0, symName: '__ZN4core3ptr48drop_in_place$LT$rustversion..iter..IterImpl$GT$17h008b23b9b3bde878E', symObjAddr: 0xC0, symBinAddr: 0xDE80, symSize: 0xF0 }
  - { offsetInCU: 0x17C4, offset: 0x54626, size: 0x8, addend: 0x0, symName: __ZN11rustversion4attr5parse17h01c57b4222a6eac1E, symObjAddr: 0x1B0, symBinAddr: 0xDF70, symSize: 0x30D }
  - { offsetInCU: 0x1E, offset: 0x55C43, size: 0x8, addend: 0x0, symName: __ZN11rustversion4time5today17h626e5c6fc193c637E, symObjAddr: 0x0, symBinAddr: 0xE280, symSize: 0x1C2 }
  - { offsetInCU: 0x112, offset: 0x55D37, size: 0x8, addend: 0x0, symName: __ZN11rustversion4time5today17h626e5c6fc193c637E, symObjAddr: 0x0, symBinAddr: 0xE280, symSize: 0x1C2 }
  - { offsetInCU: 0x1E, offset: 0x57010, size: 0x8, addend: 0x0, symName: '__ZN106_$LT$core..iter..adapters..chain..Chain$LT$A$C$B$GT$$u20$as$u20$core..iter..traits..iterator..Iterator$GT$4fold17h6189fa7a3032d394E', symObjAddr: 0x0, symBinAddr: 0xE450, symSize: 0x1D9 }
  - { offsetInCU: 0xA66, offset: 0x57A58, size: 0x8, addend: 0x0, symName: '__ZN106_$LT$core..iter..adapters..chain..Chain$LT$A$C$B$GT$$u20$as$u20$core..iter..traits..iterator..Iterator$GT$4fold17h6189fa7a3032d394E', symObjAddr: 0x0, symBinAddr: 0xE450, symSize: 0x1D9 }
  - { offsetInCU: 0x1E, offset: 0x5806E, size: 0x8, addend: 0x0, symName: '__ZN10proc_macro6bridge104_$LT$impl$u20$proc_macro..bridge..rpc..Encode$LT$S$GT$$u20$for$u20$core..result..Result$LT$T$C$E$GT$$GT$6encode17ha6a7d34c5d6d98afE', symObjAddr: 0x0, symBinAddr: 0xE630, symSize: 0x3B0 }
  - { offsetInCU: 0x192, offset: 0x581E2, size: 0x8, addend: 0x0, symName: '__ZN10proc_macro6bridge104_$LT$impl$u20$proc_macro..bridge..rpc..Encode$LT$S$GT$$u20$for$u20$core..result..Result$LT$T$C$E$GT$$GT$6encode17ha6a7d34c5d6d98afE', symObjAddr: 0x0, symBinAddr: 0xE630, symSize: 0x3B0 }
  - { offsetInCU: 0x783, offset: 0x587D3, size: 0x8, addend: 0x0, symName: '__ZN10proc_macro6bridge104_$LT$impl$u20$proc_macro..bridge..rpc..Encode$LT$S$GT$$u20$for$u20$core..result..Result$LT$T$C$E$GT$$GT$6encode17hca4ee214872e4e70E', symObjAddr: 0x3B0, symBinAddr: 0xE9E0, symSize: 0x441 }
  - { offsetInCU: 0x1E, offset: 0x59A0D, size: 0x8, addend: 0x0, symName: '__ZN10proc_macro6bridge100_$LT$impl$u20$proc_macro..bridge..rpc..Encode$LT$S$GT$$u20$for$u20$core..option..Option$LT$T$GT$$GT$6encode17h4fedf5a68881089dE', symObjAddr: 0x0, symBinAddr: 0xEE30, symSize: 0x370 }
  - { offsetInCU: 0x437, offset: 0x59E26, size: 0x8, addend: 0x0, symName: '__ZN10proc_macro6bridge100_$LT$impl$u20$proc_macro..bridge..rpc..Encode$LT$S$GT$$u20$for$u20$core..option..Option$LT$T$GT$$GT$6encode17h4fedf5a68881089dE', symObjAddr: 0x0, symBinAddr: 0xEE30, symSize: 0x370 }
  - { offsetInCU: 0xA1C, offset: 0x5A40B, size: 0x8, addend: 0x0, symName: '__ZN10proc_macro6bridge100_$LT$impl$u20$proc_macro..bridge..rpc..Encode$LT$S$GT$$u20$for$u20$core..option..Option$LT$T$GT$$GT$6encode17hb76d4fadf13bfb09E', symObjAddr: 0x370, symBinAddr: 0xF1A0, symSize: 0x4EB }
  - { offsetInCU: 0x1E, offset: 0x5B241, size: 0x8, addend: 0x0, symName: '__ZN77_$LT$$LP$A$C$B$RP$$u20$as$u20$proc_macro..bridge..rpc..DecodeMut$LT$S$GT$$GT$6decode17h10bd64f4905a9b06E', symObjAddr: 0x0, symBinAddr: 0xF690, symSize: 0xE0 }
  - { offsetInCU: 0xB0, offset: 0x5B2D3, size: 0x8, addend: 0x0, symName: '__ZN77_$LT$$LP$A$C$B$RP$$u20$as$u20$proc_macro..bridge..rpc..DecodeMut$LT$S$GT$$GT$6decode17h10bd64f4905a9b06E', symObjAddr: 0x0, symBinAddr: 0xF690, symSize: 0xE0 }
  - { offsetInCU: 0xBD2, offset: 0x5BDF5, size: 0x8, addend: 0x0, symName: '__ZN77_$LT$$LP$A$C$B$RP$$u20$as$u20$proc_macro..bridge..rpc..DecodeMut$LT$S$GT$$GT$6decode17hedadc7a60e25d660E', symObjAddr: 0xE0, symBinAddr: 0xF770, symSize: 0xDA }
...
