---
triple:          'x86_64-apple-darwin'
binary-path:     "/Users/justinlanouette/Chaos/ChaöS-Token/hello_world/target/release/build/serde-6e04d775981001ce/build_script_build-6e04d775981001ce"
relocations:
  - { offsetInCU: 0x1E, offset: 0x1E, size: 0x8, addend: 0x0, symName: '__ZN4core3ptr39drop_in_place$LT$std..env..VarError$GT$17h77c0f929703d5538E', symObjAddr: 0x0, symBinAddr: 0x100000910, symSize: 0x30 }
  - { offsetInCU: 0x9F, offset: 0x9F, size: 0x8, addend: 0x0, symName: '__ZN55_$LT$std..env..VarError$u20$as$u20$core..fmt..Debug$GT$3fmt17hf9237b4ce8a4fbe3E', symObjAddr: 0x500, symBinAddr: 0x100000E10, symSize: 0x50 }
  - { offsetInCU: 0x129B, offset: 0x129B, size: 0x8, addend: 0x0, symName: '__ZN4core3ptr39drop_in_place$LT$std..env..VarError$GT$17h77c0f929703d5538E', symObjAddr: 0x0, symBinAddr: 0x100000910, symSize: 0x30 }
  - { offsetInCU: 0x13D8, offset: 0x13D8, size: 0x8, addend: 0x0, symName: '__ZN4core3ptr41drop_in_place$LT$std..process..Output$GT$17h3bb127abc8ae61f0E', symObjAddr: 0x30, symBinAddr: 0x100000940, symSize: 0x50 }
  - { offsetInCU: 0x1818, offset: 0x1818, size: 0x8, addend: 0x0, symName: '__ZN4core3ptr42drop_in_place$LT$std..process..Command$GT$17hc98ad5805b03146aE', symObjAddr: 0x80, symBinAddr: 0x100000990, symSize: 0x250 }
  - { offsetInCU: 0x25B5, offset: 0x25B5, size: 0x8, addend: 0x0, symName: '__ZN4core3ptr51drop_in_place$LT$$RF$std..ffi..os_str..OsString$GT$17hd94024e0a6735964E', symObjAddr: 0x2D0, symBinAddr: 0x100000BE0, symSize: 0x10 }
  - { offsetInCU: 0x40CB, offset: 0x40CB, size: 0x8, addend: 0x0, symName: '__ZN4core3str4iter22SplitInternal$LT$P$GT$4next17h74790dc2c75e67c2E', symObjAddr: 0x2E0, symBinAddr: 0x100000BF0, symSize: 0x220 }
  - { offsetInCU: 0x47C1, offset: 0x47C1, size: 0x8, addend: 0x0, symName: __ZN18build_script_build4main17h1e9dba14a741441aE, symObjAddr: 0x550, symBinAddr: 0x100000E60, symSize: 0xC80 }
  - { offsetInCU: 0x482, offset: 0x75F0, size: 0x8, addend: 0x0, symName: '__ZN70_$LT$alloc..vec..Vec$LT$T$C$A$GT$$u20$as$u20$core..ops..drop..Drop$GT$4drop17h868e1387329cc04aE', symObjAddr: 0x60, symBinAddr: 0x100001B00, symSize: 0xE8 }
  - { offsetInCU: 0x1E, offset: 0x7CA6, size: 0x8, addend: 0x0, symName: '__ZN99_$LT$alloc..collections..btree..map..BTreeMap$LT$K$C$V$C$A$GT$$u20$as$u20$core..ops..drop..Drop$GT$4drop17hacb95bf31e4ef808E', symObjAddr: 0x0, symBinAddr: 0x100001BF0, symSize: 0x3A8 }
  - { offsetInCU: 0xA24, offset: 0x86AC, size: 0x8, addend: 0x0, symName: '__ZN99_$LT$alloc..collections..btree..map..BTreeMap$LT$K$C$V$C$A$GT$$u20$as$u20$core..ops..drop..Drop$GT$4drop17hacb95bf31e4ef808E', symObjAddr: 0x0, symBinAddr: 0x100001BF0, symSize: 0x3A8 }
  - { offsetInCU: 0x1E, offset: 0xA90C, size: 0x8, addend: 0x0, symName: __ZN3std2rt10lang_start17hfee0fb85fc9ddd3bE, symObjAddr: 0x0, symBinAddr: 0x100001FA0, symSize: 0x30 }
  - { offsetInCU: 0x5B, offset: 0xA949, size: 0x8, addend: 0x0, symName: '__ZN3std2rt10lang_start28_$u7b$$u7b$closure$u7d$$u7d$17hde04a0bd73246036E', symObjAddr: 0x30, symBinAddr: 0x100001FD0, symSize: 0x10 }
  - { offsetInCU: 0x9F, offset: 0xA98D, size: 0x8, addend: 0x0, symName: __ZN3std2rt10lang_start17hfee0fb85fc9ddd3bE, symObjAddr: 0x0, symBinAddr: 0x100001FA0, symSize: 0x30 }
  - { offsetInCU: 0x15E, offset: 0xAA4C, size: 0x8, addend: 0x0, symName: '__ZN4core3ops8function6FnOnce40call_once$u7b$$u7b$vtable.shim$u7d$$u7d$17h353929758b20c0faE', symObjAddr: 0x40, symBinAddr: 0x100001FE0, symSize: 0x10 }
  - { offsetInCU: 0x1D8, offset: 0xAAC6, size: 0x8, addend: 0x0, symName: '__ZN4core3ptr85drop_in_place$LT$std..rt..lang_start$LT$$LP$$RP$$GT$..$u7b$$u7b$closure$u7d$$u7d$$GT$17h86294698fe7a3dfeE', symObjAddr: 0x50, symBinAddr: 0x100001FF0, symSize: 0x6 }
  - { offsetInCU: 0x1E, offset: 0xAB47, size: 0x8, addend: 0x0, symName: __ZN3std10sys_common9backtrace28__rust_begin_short_backtrace17h4b153a840544e46aE, symObjAddr: 0x0, symBinAddr: 0x100002000, symSize: 0x8 }
  - { offsetInCU: 0xBF, offset: 0xABE8, size: 0x8, addend: 0x0, symName: __ZN3std10sys_common9backtrace28__rust_begin_short_backtrace17h4b153a840544e46aE, symObjAddr: 0x0, symBinAddr: 0x100002000, symSize: 0x8 }
  - { offsetInCU: 0x1E, offset: 0xAC8D, size: 0x8, addend: 0x0, symName: '__ZN42_$LT$$RF$T$u20$as$u20$core..fmt..Debug$GT$3fmt17h20c4fe0313b3c825E', symObjAddr: 0x0, symBinAddr: 0x100002010, symSize: 0xD }
  - { offsetInCU: 0x64, offset: 0xACD3, size: 0x8, addend: 0x0, symName: '__ZN42_$LT$$RF$T$u20$as$u20$core..fmt..Debug$GT$3fmt17h20c4fe0313b3c825E', symObjAddr: 0x0, symBinAddr: 0x100002010, symSize: 0xD }
...
