---
triple:          'x86_64-apple-darwin'
binary-path:     "/Users/justinlanouette/Chaos/ChaöS-Token/hello_world/target/release/deps/libwasm_bindgen_macro-a651f6e6ad5e534c.dylib"
relocations:
  - { offsetInCU: 0x1A5, offset: 0x1A5, size: 0x8, addend: 0x0, symName: '__ZN77_$LT$$LP$A$C$B$RP$$u20$as$u20$proc_macro..bridge..rpc..DecodeMut$LT$S$GT$$GT$6decode17h6e6e524bd0edb8d9E', symObjAddr: 0xA30, symBinAddr: 0x4B10, symSize: 0xAA }
  - { offsetInCU: 0xBB1, offset: 0xBB1, size: 0x8, addend: 0x0, symName: __ZN10proc_macro6bridge6client10run_client17h40be51db17c528a2E, symObjAddr: 0x190, symBinAddr: 0x4270, symSize: 0x2E0 }
  - { offsetInCU: 0x12D2, offset: 0x12D2, size: 0x8, addend: 0x0, symName: __ZN10proc_macro6bridge6client10run_client17h673cacb14dcac153E, symObjAddr: 0x470, symBinAddr: 0x4550, symSize: 0x2E0 }
  - { offsetInCU: 0x19AC, offset: 0x19AC, size: 0x8, addend: 0x0, symName: __ZN10proc_macro6bridge6client10run_client17h93d0e872155ed6d1E, symObjAddr: 0x750, symBinAddr: 0x4830, symSize: 0x2E0 }
  - { offsetInCU: 0x7AF, offset: 0x4A1D, size: 0x8, addend: 0x0, symName: '__ZN68_$LT$$RF$str$u20$as$u20$proc_macro..bridge..rpc..Encode$LT$S$GT$$GT$6encode17h9995ae448c6c3800E', symObjAddr: 0x80, symBinAddr: 0x4BC0, symSize: 0x230 }
  - { offsetInCU: 0x1E, offset: 0x5077, size: 0x8, addend: 0x0, symName: '__ZN4core3ptr43drop_in_place$LT$proc_macro2..TokenTree$GT$17h66c862504b5706f8E.llvm.450210232460848855', symObjAddr: 0x0, symBinAddr: 0x4DF0, symSize: 0x180 }
  - { offsetInCU: 0xE37, offset: 0x5E90, size: 0x8, addend: 0x0, symName: '__ZN4core3ptr43drop_in_place$LT$proc_macro2..TokenTree$GT$17h66c862504b5706f8E.llvm.450210232460848855', symObjAddr: 0x0, symBinAddr: 0x4DF0, symSize: 0x180 }
  - { offsetInCU: 0x1775, offset: 0x67CE, size: 0x8, addend: 0x0, symName: '__ZN4core3ptr60drop_in_place$LT$wasm_bindgen_backend..error..Diagnostic$GT$17hdd79706795bcc6baE.llvm.450210232460848855', symObjAddr: 0x180, symBinAddr: 0x4F70, symSize: 0x150 }
  - { offsetInCU: 0x1E, offset: 0x818B, size: 0x8, addend: 0x0, symName: __ZN10proc_macro6bridge6client14HandleCounters3get17h2c76d49220b98e92E, symObjAddr: 0x0, symBinAddr: 0x50C0, symSize: 0x10 }
  - { offsetInCU: 0x40, offset: 0x81AD, size: 0x8, addend: 0x0, symName: ___rustc_proc_macro_decls_25809dcf7a54fd97__, symObjAddr: 0x9A8, symBinAddr: 0x338298, symSize: 0x0 }
  - { offsetInCU: 0x4E, offset: 0x81BB, size: 0x8, addend: 0x0, symName: __ZN18wasm_bindgen_macro12wasm_bindgen17h781c833fa09f81bdE, symObjAddr: 0x3B0, symBinAddr: 0x5470, symSize: 0x130 }
  - { offsetInCU: 0x21F, offset: 0x838C, size: 0x8, addend: 0x0, symName: __ZN18wasm_bindgen_macro7link_to17h5e702bc0a52a1d4eE, symObjAddr: 0x4E0, symBinAddr: 0x55A0, symSize: 0x1A0 }
  - { offsetInCU: 0x374, offset: 0x84E1, size: 0x8, addend: 0x0, symName: __ZN18wasm_bindgen_macro27__wasm_bindgen_class_marker17h2f16a93ad9e8ccd1E, symObjAddr: 0x680, symBinAddr: 0x5740, symSize: 0x127 }
  - { offsetInCU: 0x1224, offset: 0x9391, size: 0x8, addend: 0x0, symName: '__ZN4core3ptr45drop_in_place$LT$proc_macro2..TokenStream$GT$17h3db49d5e9d6d6521E.llvm.7279656840959632717', symObjAddr: 0x10, symBinAddr: 0x50D0, symSize: 0x140 }
  - { offsetInCU: 0x1778, offset: 0x98E5, size: 0x8, addend: 0x0, symName: '__ZN4core3ptr60drop_in_place$LT$wasm_bindgen_backend..error..Diagnostic$GT$17hdd79706795bcc6baE.llvm.7279656840959632717', symObjAddr: 0x150, symBinAddr: 0x5210, symSize: 0x150 }
  - { offsetInCU: 0x1C09, offset: 0x9D76, size: 0x8, addend: 0x0, symName: '__ZN4core3ptr65drop_in_place$LT$alloc..vec..Vec$LT$proc_macro..TokenTree$GT$$GT$17h13f83de8f1cefea3E.llvm.7279656840959632717', symObjAddr: 0x2A0, symBinAddr: 0x5360, symSize: 0x110 }
  - { offsetInCU: 0x27BE, offset: 0xA92B, size: 0x8, addend: 0x0, symName: __ZN10proc_macro6bridge6client14HandleCounters3get17h2c76d49220b98e92E, symObjAddr: 0x0, symBinAddr: 0x50C0, symSize: 0x10 }
  - { offsetInCU: 0x1E, offset: 0xB879, size: 0x8, addend: 0x0, symName: '__ZN68_$LT$alloc..rc..Rc$LT$T$C$A$GT$$u20$as$u20$core..ops..drop..Drop$GT$4drop17h795e62a9bdd4cc10E', symObjAddr: 0x0, symBinAddr: 0x5870, symSize: 0xDE }
  - { offsetInCU: 0xF41, offset: 0xC79C, size: 0x8, addend: 0x0, symName: '__ZN68_$LT$alloc..rc..Rc$LT$T$C$A$GT$$u20$as$u20$core..ops..drop..Drop$GT$4drop17h795e62a9bdd4cc10E', symObjAddr: 0x0, symBinAddr: 0x5870, symSize: 0xDE }
  - { offsetInCU: 0x1E, offset: 0xD3D1, size: 0x8, addend: 0x0, symName: '__ZN10proc_macro6bridge104_$LT$impl$u20$proc_macro..bridge..rpc..Encode$LT$S$GT$$u20$for$u20$core..result..Result$LT$T$C$E$GT$$GT$6encode17hbc1f4603bc12e5acE', symObjAddr: 0x0, symBinAddr: 0x5950, symSize: 0x280 }
  - { offsetInCU: 0x16F, offset: 0xD522, size: 0x8, addend: 0x0, symName: '__ZN10proc_macro6bridge104_$LT$impl$u20$proc_macro..bridge..rpc..Encode$LT$S$GT$$u20$for$u20$core..result..Result$LT$T$C$E$GT$$GT$6encode17hbc1f4603bc12e5acE', symObjAddr: 0x0, symBinAddr: 0x5950, symSize: 0x280 }
  - { offsetInCU: 0x4FA, offset: 0xD8AD, size: 0x8, addend: 0x0, symName: '__ZN10proc_macro6bridge104_$LT$impl$u20$proc_macro..bridge..rpc..Encode$LT$S$GT$$u20$for$u20$core..result..Result$LT$T$C$E$GT$$GT$6encode17hf6b17edfbd88b249E', symObjAddr: 0x280, symBinAddr: 0x5BD0, symSize: 0x300 }
  - { offsetInCU: 0x1E, offset: 0xE64E, size: 0x8, addend: 0x0, symName: '__ZN10proc_macro6bridge100_$LT$impl$u20$proc_macro..bridge..rpc..Encode$LT$S$GT$$u20$for$u20$core..option..Option$LT$T$GT$$GT$6encode17h0b67ed9c59df319eE', symObjAddr: 0x0, symBinAddr: 0x5ED0, symSize: 0x350 }
  - { offsetInCU: 0x15E, offset: 0xE78E, size: 0x8, addend: 0x0, symName: '__ZN10proc_macro6bridge100_$LT$impl$u20$proc_macro..bridge..rpc..Encode$LT$S$GT$$u20$for$u20$core..option..Option$LT$T$GT$$GT$6encode17h0b67ed9c59df319eE', symObjAddr: 0x0, symBinAddr: 0x5ED0, symSize: 0x350 }
  - { offsetInCU: 0x702, offset: 0xED32, size: 0x8, addend: 0x0, symName: '__ZN10proc_macro6bridge100_$LT$impl$u20$proc_macro..bridge..rpc..Encode$LT$S$GT$$u20$for$u20$core..option..Option$LT$T$GT$$GT$6encode17he58bd7e38d9c2baaE', symObjAddr: 0x350, symBinAddr: 0x6220, symSize: 0x23C }
  - { offsetInCU: 0x1E, offset: 0xF713, size: 0x8, addend: 0x0, symName: __ZN10proc_macro6bridge14selfless_reify31reify_to_extern_c_fn_hrt_bridge7wrapper17h1aa12887092b1fd6E, symObjAddr: 0x0, symBinAddr: 0x6460, symSize: 0x30 }
  - { offsetInCU: 0x221, offset: 0xF916, size: 0x8, addend: 0x0, symName: __ZN10proc_macro6bridge14selfless_reify31reify_to_extern_c_fn_hrt_bridge7wrapper17h1aa12887092b1fd6E, symObjAddr: 0x0, symBinAddr: 0x6460, symSize: 0x30 }
  - { offsetInCU: 0x298, offset: 0xF98D, size: 0x8, addend: 0x0, symName: __ZN10proc_macro6bridge14selfless_reify31reify_to_extern_c_fn_hrt_bridge7wrapper17h2b0616f8a7c13048E, symObjAddr: 0x30, symBinAddr: 0x6490, symSize: 0x30 }
  - { offsetInCU: 0x30F, offset: 0xFA04, size: 0x8, addend: 0x0, symName: __ZN10proc_macro6bridge14selfless_reify31reify_to_extern_c_fn_hrt_bridge7wrapper17h4fcd5ab5ab8ead82E, symObjAddr: 0x60, symBinAddr: 0x64C0, symSize: 0x25 }
  - { offsetInCU: 0x1E, offset: 0xFC75, size: 0x8, addend: 0x0, symName: '__ZN77_$LT$$LP$A$C$B$RP$$u20$as$u20$proc_macro..bridge..rpc..DecodeMut$LT$S$GT$$GT$6decode17h7bec5f85762e0313E', symObjAddr: 0x0, symBinAddr: 0x64F0, symSize: 0xD0 }
  - { offsetInCU: 0xB4, offset: 0xFD0B, size: 0x8, addend: 0x0, symName: '__ZN77_$LT$$LP$A$C$B$RP$$u20$as$u20$proc_macro..bridge..rpc..DecodeMut$LT$S$GT$$GT$6decode17h7bec5f85762e0313E', symObjAddr: 0x0, symBinAddr: 0x64F0, symSize: 0xD0 }
  - { offsetInCU: 0xC85, offset: 0x108DC, size: 0x8, addend: 0x0, symName: '__ZN77_$LT$$LP$A$C$B$RP$$u20$as$u20$proc_macro..bridge..rpc..DecodeMut$LT$S$GT$$GT$6decode17hb1a88cd08326314dE', symObjAddr: 0xD0, symBinAddr: 0x65C0, symSize: 0xCE }
  - { offsetInCU: 0xEA, offset: 0x11A1F, size: 0x8, addend: 0x0, symName: '__ZN45_$LT$T$u20$as$u20$alloc..string..ToString$GT$9to_string17h2955753eee1d08eeE', symObjAddr: 0x50A0, symBinAddr: 0x88C0, symSize: 0xD0 }
  - { offsetInCU: 0x336, offset: 0x11C6B, size: 0x8, addend: 0x0, symName: '__ZN58_$LT$alloc..string..String$u20$as$u20$core..fmt..Write$GT$10write_char17h04bc467bd68a934bE', symObjAddr: 0x11060, symBinAddr: 0x14830, symSize: 0x140 }
  - { offsetInCU: 0x73B, offset: 0x12070, size: 0x8, addend: 0x0, symName: '__ZN58_$LT$alloc..string..String$u20$as$u20$core..fmt..Write$GT$9write_str17h46a93205c3443fbaE', symObjAddr: 0x111A0, symBinAddr: 0x14970, symSize: 0x60 }
  - { offsetInCU: 0xE78, offset: 0x127AD, size: 0x8, addend: 0x0, symName: '__ZN60_$LT$alloc..string..String$u20$as$u20$core..fmt..Display$GT$3fmt17h0d0eb46f3054e2dfE', symObjAddr: 0x11280, symBinAddr: 0x14A50, symSize: 0x20 }
  - { offsetInCU: 0x51C0, offset: 0x16AF5, size: 0x8, addend: 0x0, symName: '__ZN52_$LT$T$u20$as$u20$alloc..slice..hack..ConvertVec$GT$6to_vec17hf3ed208134395baeE', symObjAddr: 0x10FA0, symBinAddr: 0x14770, symSize: 0xA0 }
  - { offsetInCU: 0x80EC, offset: 0x19A21, size: 0x8, addend: 0x0, symName: '__ZN4core3ptr100drop_in_place$LT$core..option..Option$LT$alloc..boxed..Box$LT$syn..path..GenericArgument$GT$$GT$$GT$17h57a5558e267c0aa5E', symObjAddr: 0x6EC0, symBinAddr: 0xA690, symSize: 0x50 }
  - { offsetInCU: 0x840E, offset: 0x19D43, size: 0x8, addend: 0x0, symName: '__ZN4core3ptr100drop_in_place$LT$syn..punctuated..Punctuated$LT$syn..path..PathSegment$C$syn..token..PathSep$GT$$GT$17h8f618be881a86ee0E', symObjAddr: 0x6F10, symBinAddr: 0xA6E0, symSize: 0x270 }
  - { offsetInCU: 0x8DB1, offset: 0x1A6E6, size: 0x8, addend: 0x0, symName: '__ZN4core3ptr103drop_in_place$LT$core..option..Option$LT$alloc..boxed..Box$LT$syn..generics..TypeParamBound$GT$$GT$$GT$17hd35dab8117a0a53fE', symObjAddr: 0x7180, symBinAddr: 0xA950, symSize: 0x50 }
  - { offsetInCU: 0x8FFA, offset: 0x1A92F, size: 0x8, addend: 0x0, symName: '__ZN4core3ptr103drop_in_place$LT$core..option..Option$LT$alloc..boxed..Box$LT$syn..generics..WherePredicate$GT$$GT$$GT$17h1bdc11655d4045e2E', symObjAddr: 0x71D0, symBinAddr: 0xA9A0, symSize: 0xD0 }
  - { offsetInCU: 0x938E, offset: 0x1ACC3, size: 0x8, addend: 0x0, symName: '__ZN4core3ptr103drop_in_place$LT$syn..punctuated..Punctuated$LT$syn..generics..GenericParam$C$syn..token..Comma$GT$$GT$17h7f466bbfdffc79f8E', symObjAddr: 0x72A0, symBinAddr: 0xAA70, symSize: 0xF0 }
  - { offsetInCU: 0x982C, offset: 0x1B161, size: 0x8, addend: 0x0, symName: '__ZN4core3ptr104drop_in_place$LT$syn..punctuated..Punctuated$LT$syn..generics..TypeParamBound$C$syn..token..Plus$GT$$GT$17h94179c83f1bdbd23E', symObjAddr: 0x7390, symBinAddr: 0xAB60, symSize: 0x190 }
  - { offsetInCU: 0x9E4F, offset: 0x1B784, size: 0x8, addend: 0x0, symName: '__ZN4core3ptr115drop_in_place$LT$core..option..Option$LT$$LP$alloc..boxed..Box$LT$syn..pat..Pat$GT$$C$syn..token..Colon$RP$$GT$$GT$17h8317a6e8f015f476E', symObjAddr: 0x7520, symBinAddr: 0xACF0, symSize: 0x50 }
  - { offsetInCU: 0x9FFE, offset: 0x1B933, size: 0x8, addend: 0x0, symName: '__ZN4core3ptr126drop_in_place$LT$core..option..Option$LT$$LP$syn..token..And$C$core..option..Option$LT$syn..lifetime..Lifetime$GT$$RP$$GT$$GT$17hb8cf558803387ebcE', symObjAddr: 0x7570, symBinAddr: 0xAD40, symSize: 0x30 }
  - { offsetInCU: 0xA157, offset: 0x1BA8C, size: 0x8, addend: 0x0, symName: '__ZN4core3ptr34drop_in_place$LT$syn..lit..Lit$GT$17hee573645253c1240E', symObjAddr: 0x75A0, symBinAddr: 0xAD70, symSize: 0x120 }
  - { offsetInCU: 0xA626, offset: 0x1BF5B, size: 0x8, addend: 0x0, symName: '__ZN4core3ptr34drop_in_place$LT$syn..pat..Pat$GT$17h973f87584b174815E', symObjAddr: 0x76C0, symBinAddr: 0xAE90, symSize: 0x1090 }
  - { offsetInCU: 0xE607, offset: 0x1FF3C, size: 0x8, addend: 0x0, symName: '__ZN4core3ptr34drop_in_place$LT$syn..ty..Type$GT$17h3ae90635bb8b5dc2E', symObjAddr: 0x8750, symBinAddr: 0xBF20, symSize: 0x4F0 }
  - { offsetInCU: 0xF5D7, offset: 0x20F0C, size: 0x8, addend: 0x0, symName: '__ZN4core3ptr36drop_in_place$LT$syn..attr..Meta$GT$17ha8dcfe993ad79a14E', symObjAddr: 0x8C40, symBinAddr: 0xC410, symSize: 0xA0 }
  - { offsetInCU: 0xFBE4, offset: 0x21519, size: 0x8, addend: 0x0, symName: '__ZN4core3ptr36drop_in_place$LT$syn..expr..Expr$GT$17hec1898832a7659fcE', symObjAddr: 0x8CE0, symBinAddr: 0xC4B0, symSize: 0x27D0 }
  - { offsetInCU: 0x19318, offset: 0x2AC4D, size: 0x8, addend: 0x0, symName: '__ZN4core3ptr36drop_in_place$LT$syn..mac..Macro$GT$17hee38913ef8f169faE', symObjAddr: 0xB4B0, symBinAddr: 0xEC80, symSize: 0x40 }
  - { offsetInCU: 0x19352, offset: 0x2AC87, size: 0x8, addend: 0x0, symName: '__ZN4core3ptr36drop_in_place$LT$syn..path..Path$GT$17h1bbd58c3d6dc291aE', symObjAddr: 0xB4F0, symBinAddr: 0xECC0, symSize: 0x240 }
  - { offsetInCU: 0x19CEC, offset: 0x2B621, size: 0x8, addend: 0x0, symName: '__ZN4core3ptr37drop_in_place$LT$syn..stmt..Block$GT$17h3a3c4aa9f1407e4cE', symObjAddr: 0xB730, symBinAddr: 0xEF00, symSize: 0xD0 }
  - { offsetInCU: 0x1A05E, offset: 0x2B993, size: 0x8, addend: 0x0, symName: '__ZN4core3ptr38drop_in_place$LT$syn..data..Fields$GT$17hc99e215fa9fa15adE', symObjAddr: 0xB800, symBinAddr: 0xEFD0, symSize: 0x190 }
  - { offsetInCU: 0x1A4E6, offset: 0x2BE1B, size: 0x8, addend: 0x0, symName: '__ZN4core3ptr38drop_in_place$LT$syn..error..Error$GT$17h8da952fefee32afcE', symObjAddr: 0xB990, symBinAddr: 0xF160, symSize: 0x90 }
  - { offsetInCU: 0x1A794, offset: 0x2C0C9, size: 0x8, addend: 0x0, symName: '__ZN4core3ptr38drop_in_place$LT$syn..expr..Member$GT$17h11f93a48e3da0c5fE', symObjAddr: 0xBA20, symBinAddr: 0xF1F0, symSize: 0x30 }
  - { offsetInCU: 0x1A890, offset: 0x2C1C5, size: 0x8, addend: 0x0, symName: '__ZN4core3ptr39drop_in_place$LT$proc_macro2..Ident$GT$17h78274ef0131bd7beE', symObjAddr: 0xBA50, symBinAddr: 0xF220, symSize: 0x30 }
  - { offsetInCU: 0x1A98C, offset: 0x2C2C1, size: 0x8, addend: 0x0, symName: '__ZN4core3ptr40drop_in_place$LT$syn..item..Receiver$GT$17hefabf0e025b0239bE', symObjAddr: 0xBA80, symBinAddr: 0xF250, symSize: 0x130 }
  - { offsetInCU: 0x1AF24, offset: 0x2C859, size: 0x8, addend: 0x0, symName: '__ZN4core3ptr40drop_in_place$LT$syn..ty..ReturnType$GT$17h5fc392ae06958c38E', symObjAddr: 0xBBB0, symBinAddr: 0xF380, symSize: 0x50 }
  - { offsetInCU: 0x1B094, offset: 0x2C9C9, size: 0x8, addend: 0x0, symName: '__ZN4core3ptr41drop_in_place$LT$syn..attr..Attribute$GT$17h8c3feaacba98a5e8E', symObjAddr: 0xBC00, symBinAddr: 0xF3D0, symSize: 0x10 }
  - { offsetInCU: 0x1B0C2, offset: 0x2C9F7, size: 0x8, addend: 0x0, symName: '__ZN4core3ptr41drop_in_place$LT$syn..expr..ExprArray$GT$17h2241ea36072f7e90E', symObjAddr: 0xBC10, symBinAddr: 0xF3E0, symSize: 0xE0 }
  - { offsetInCU: 0x1B391, offset: 0x2CCC6, size: 0x8, addend: 0x0, symName: '__ZN4core3ptr41drop_in_place$LT$syn..expr..ExprConst$GT$17h5c5bfa544cf2da15E', symObjAddr: 0xBCF0, symBinAddr: 0xF4C0, symSize: 0x180 }
  - { offsetInCU: 0x1B9C6, offset: 0x2D2FB, size: 0x8, addend: 0x0, symName: '__ZN4core3ptr41drop_in_place$LT$syn..item..Signature$GT$17ha66890d0d99c15a5E', symObjAddr: 0xBE70, symBinAddr: 0xF640, symSize: 0x230 }
  - { offsetInCU: 0x1C265, offset: 0x2DB9A, size: 0x8, addend: 0x0, symName: '__ZN4core3ptr42drop_in_place$LT$alloc..string..String$GT$17h22cb48d54c9865c7E', symObjAddr: 0xC0A0, symBinAddr: 0xF870, symSize: 0x20 }
  - { offsetInCU: 0x1C36D, offset: 0x2DCA2, size: 0x8, addend: 0x0, symName: '__ZN4core3ptr44drop_in_place$LT$syn..generics..Generics$GT$17h10b1829060b95b1bE', symObjAddr: 0xC0C0, symBinAddr: 0xF890, symSize: 0x40 }
  - { offsetInCU: 0x1C38A, offset: 0x2DCBF, size: 0x8, addend: 0x0, symName: '__ZN4core3ptr44drop_in_place$LT$syn..lifetime..Lifetime$GT$17h6e42d75874321b11E', symObjAddr: 0xC100, symBinAddr: 0xF8D0, symSize: 0x30 }
  - { offsetInCU: 0x1C502, offset: 0x2DE37, size: 0x8, addend: 0x0, symName: '__ZN4core3ptr44drop_in_place$LT$syn..parse..ParseBuffer$GT$17h45130160a6625144E', symObjAddr: 0xC130, symBinAddr: 0xF900, symSize: 0x70 }
  - { offsetInCU: 0x1C87E, offset: 0x2E1B3, size: 0x8, addend: 0x0, symName: '__ZN4core3ptr45drop_in_place$LT$proc_macro2..TokenStream$GT$17h3de86edc178dbdf7E', symObjAddr: 0xC1A0, symBinAddr: 0xF970, symSize: 0x140 }
  - { offsetInCU: 0x1CD18, offset: 0x2E64D, size: 0x8, addend: 0x0, symName: '__ZN4core3ptr45drop_in_place$LT$syn..generics..TypeParam$GT$17hcf09314885b07e76E', symObjAddr: 0xC2E0, symBinAddr: 0xFAB0, symSize: 0x230 }
  - { offsetInCU: 0x1D559, offset: 0x2EE8E, size: 0x8, addend: 0x0, symName: '__ZN4core3ptr46drop_in_place$LT$syn..generics..ConstParam$GT$17hc257e156a7125459E', symObjAddr: 0xC510, symBinAddr: 0xFCE0, symSize: 0x150 }
  - { offsetInCU: 0x1D9A6, offset: 0x2F2DB, size: 0x8, addend: 0x0, symName: '__ZN4core3ptr47drop_in_place$LT$syn..path..GenericArgument$GT$17h468af66cc22ee749E', symObjAddr: 0xC660, symBinAddr: 0xFE30, symSize: 0x4A0 }
  - { offsetInCU: 0x1EAAC, offset: 0x303E1, size: 0x8, addend: 0x0, symName: '__ZN4core3ptr49drop_in_place$LT$syn..generics..LifetimeParam$GT$17h9ae69bbe86531da0E', symObjAddr: 0xCB00, symBinAddr: 0x102D0, symSize: 0xF0 }
  - { offsetInCU: 0x1EECD, offset: 0x30802, size: 0x8, addend: 0x0, symName: '__ZN4core3ptr49drop_in_place$LT$syn..restriction..Visibility$GT$17h83ceef089d938a49E', symObjAddr: 0xCBF0, symBinAddr: 0x103C0, symSize: 0x60 }
  - { offsetInCU: 0x1F03E, offset: 0x30973, size: 0x8, addend: 0x0, symName: '__ZN4core3ptr50drop_in_place$LT$syn..generics..TypeParamBound$GT$17he4fe30d10954a629E', symObjAddr: 0xCC50, symBinAddr: 0x10420, symSize: 0x180 }
  - { offsetInCU: 0x1F523, offset: 0x30E58, size: 0x8, addend: 0x0, symName: '__ZN4core3ptr54drop_in_place$LT$wasm_bindgen_backend..ast..Import$GT$17ha1e698348283a8c8E', symObjAddr: 0xCDD0, symBinAddr: 0x105A0, symSize: 0xD0 }
  - { offsetInCU: 0x1FA64, offset: 0x31399, size: 0x8, addend: 0x0, symName: '__ZN4core3ptr55drop_in_place$LT$wasm_bindgen_backend..ast..Program$GT$17ha71d92243551fe70E', symObjAddr: 0xCEA0, symBinAddr: 0x10670, symSize: 0x3D0 }
  - { offsetInCU: 0x20CC8, offset: 0x325FD, size: 0x8, addend: 0x0, symName: '__ZN4core3ptr58drop_in_place$LT$alloc..vec..Vec$LT$syn..expr..Arm$GT$$GT$17h14e2e22a7226ddf8E', symObjAddr: 0xD270, symBinAddr: 0x10A40, symSize: 0xD0 }
  - { offsetInCU: 0x2111B, offset: 0x32A50, size: 0x8, addend: 0x0, symName: '__ZN4core3ptr58drop_in_place$LT$wasm_bindgen_backend..ast..ImportKind$GT$17hc5d2a8eb3293519dE', symObjAddr: 0xD340, symBinAddr: 0x10B10, symSize: 0xAB0 }
  - { offsetInCU: 0x23DFE, offset: 0x35733, size: 0x8, addend: 0x0, symName: '__ZN4core3ptr58drop_in_place$LT$wasm_bindgen_backend..ast..MethodKind$GT$17h50221a6cbb89d629E', symObjAddr: 0xDDF0, symBinAddr: 0x115C0, symSize: 0x50 }
  - { offsetInCU: 0x23F38, offset: 0x3586D, size: 0x8, addend: 0x0, symName: '__ZN4core3ptr59drop_in_place$LT$alloc..boxed..Box$LT$syn..pat..Pat$GT$$GT$17h50d0c33df1b13ff6E', symObjAddr: 0xDE40, symBinAddr: 0x11610, symSize: 0x50 }
  - { offsetInCU: 0x24091, offset: 0x359C6, size: 0x8, addend: 0x0, symName: '__ZN4core3ptr59drop_in_place$LT$alloc..boxed..Box$LT$syn..ty..Type$GT$$GT$17h7bcc4a34581ddba7E', symObjAddr: 0xDE90, symBinAddr: 0x11660, symSize: 0x50 }
  - { offsetInCU: 0x241EA, offset: 0x35B1F, size: 0x8, addend: 0x0, symName: '__ZN4core3ptr59drop_in_place$LT$alloc..vec..Vec$LT$syn..path..Path$GT$$GT$17h7a51e5d44de08e82E', symObjAddr: 0xDEE0, symBinAddr: 0x116B0, symSize: 0xD0 }
  - { offsetInCU: 0x24528, offset: 0x35E5D, size: 0x8, addend: 0x0, symName: '__ZN4core3ptr60drop_in_place$LT$wasm_bindgen_backend..error..Diagnostic$GT$17hac73a733701e674cE.llvm.1745451086898636462', symObjAddr: 0xDFB0, symBinAddr: 0x11780, symSize: 0x150 }
  - { offsetInCU: 0x249B9, offset: 0x362EE, size: 0x8, addend: 0x0, symName: '__ZN4core3ptr61drop_in_place$LT$alloc..boxed..Box$LT$syn..expr..Expr$GT$$GT$17h2f5fb41dd226c4deE', symObjAddr: 0xE100, symBinAddr: 0x118D0, symSize: 0x50 }
  - { offsetInCU: 0x24B12, offset: 0x36447, size: 0x8, addend: 0x0, symName: '__ZN4core3ptr61drop_in_place$LT$alloc..vec..Vec$LT$syn..pat..PatType$GT$$GT$17h56ee5e4d64366d38E', symObjAddr: 0xE150, symBinAddr: 0x11920, symSize: 0xD0 }
  - { offsetInCU: 0x24E50, offset: 0x36785, size: 0x8, addend: 0x0, symName: '__ZN4core3ptr61drop_in_place$LT$syn..path..ParenthesizedGenericArguments$GT$17h490a82a7318211d4E', symObjAddr: 0xE220, symBinAddr: 0x119F0, symSize: 0x170 }
  - { offsetInCU: 0x25446, offset: 0x36D7B, size: 0x8, addend: 0x0, symName: '__ZN4core3ptr61drop_in_place$LT$wasm_bindgen_backend..ast..OperationKind$GT$17h60fbbccb03f03e3fE', symObjAddr: 0xE390, symBinAddr: 0x11B60, symSize: 0x40 }
  - { offsetInCU: 0x254F9, offset: 0x36E2E, size: 0x8, addend: 0x0, symName: '__ZN4core3ptr62drop_in_place$LT$alloc..boxed..Box$LT$syn..stmt..Block$GT$$GT$17h3638bbe45345a15fE', symObjAddr: 0xE3D0, symBinAddr: 0x11BA0, symSize: 0xE0 }
  - { offsetInCU: 0x25907, offset: 0x3723C, size: 0x8, addend: 0x0, symName: '__ZN4core3ptr62drop_in_place$LT$alloc..vec..Vec$LT$proc_macro2..Ident$GT$$GT$17hb84c8f137fc8fb6fE', symObjAddr: 0xE4B0, symBinAddr: 0x11C80, symSize: 0x90 }
  - { offsetInCU: 0x25B8F, offset: 0x374C4, size: 0x8, addend: 0x0, symName: '__ZN4core3ptr62drop_in_place$LT$syn..path..AngleBracketedGenericArguments$GT$17h1669e24b2478d11dE', symObjAddr: 0xE540, symBinAddr: 0x11D10, symSize: 0x120 }
  - { offsetInCU: 0x25FDA, offset: 0x3790F, size: 0x8, addend: 0x0, symName: '__ZN4core3ptr63drop_in_place$LT$alloc..boxed..Box$LT$syn..lit..LitRepr$GT$$GT$17h3db95a238b447968E', symObjAddr: 0xE660, symBinAddr: 0x11E30, symSize: 0x60 }
  - { offsetInCU: 0x262E1, offset: 0x37C16, size: 0x8, addend: 0x0, symName: '__ZN4core3ptr64drop_in_place$LT$alloc..boxed..Box$LT$syn..pat..FieldPat$GT$$GT$17h90926d8c1a4ddae4E', symObjAddr: 0xE6C0, symBinAddr: 0x11E90, symSize: 0x140 }
  - { offsetInCU: 0x269AE, offset: 0x382E3, size: 0x8, addend: 0x0, symName: '__ZN4core3ptr64drop_in_place$LT$alloc..boxed..Box$LT$syn..ty..BareFnArg$GT$$GT$17h0f95c2c81efdd59dE', symObjAddr: 0xE800, symBinAddr: 0x11FD0, symSize: 0x140 }
  - { offsetInCU: 0x26F03, offset: 0x38838, size: 0x8, addend: 0x0, symName: '__ZN4core3ptr64drop_in_place$LT$alloc..vec..Vec$LT$syn..attr..Attribute$GT$$GT$17hc3d18d11f6a490bdE', symObjAddr: 0xE940, symBinAddr: 0x12110, symSize: 0xD0 }
  - { offsetInCU: 0x271C3, offset: 0x38AF8, size: 0x8, addend: 0x0, symName: '__ZN4core3ptr65drop_in_place$LT$alloc..vec..Vec$LT$alloc..string..String$GT$$GT$17h61174ae9211d439eE', symObjAddr: 0xEA10, symBinAddr: 0x121E0, symSize: 0x90 }
  - { offsetInCU: 0x27444, offset: 0x38D79, size: 0x8, addend: 0x0, symName: '__ZN4core3ptr65drop_in_place$LT$alloc..vec..Vec$LT$proc_macro..TokenTree$GT$$GT$17h3cc592fdbb1600b7E', symObjAddr: 0xEAA0, symBinAddr: 0x12270, symSize: 0x110 }
  - { offsetInCU: 0x2783C, offset: 0x39171, size: 0x8, addend: 0x0, symName: '__ZN4core3ptr65drop_in_place$LT$core..option..Option$LT$syn..expr..Label$GT$$GT$17heefd36b73aa6dbbbE', symObjAddr: 0xEBB0, symBinAddr: 0x12380, symSize: 0x30 }
  - { offsetInCU: 0x27976, offset: 0x392AB, size: 0x8, addend: 0x0, symName: '__ZN4core3ptr66drop_in_place$LT$core..option..Option$LT$syn..pat..PatRest$GT$$GT$17h122af7de33a39a61E', symObjAddr: 0xEBE0, symBinAddr: 0x123B0, symSize: 0xE0 }
  - { offsetInCU: 0x27C6A, offset: 0x3959F, size: 0x8, addend: 0x0, symName: '__ZN4core3ptr66drop_in_place$LT$wasm_bindgen_backend..ast..ImportFunctionKind$GT$17h24a7e91435df59efE', symObjAddr: 0xECC0, symBinAddr: 0x12490, symSize: 0x90 }
  - { offsetInCU: 0x27EFB, offset: 0x39830, size: 0x8, addend: 0x0, symName: '__ZN4core3ptr67drop_in_place$LT$alloc..boxed..Box$LT$syn..expr..FieldValue$GT$$GT$17h67591aed16e5fd17E', symObjAddr: 0xED50, symBinAddr: 0x12520, symSize: 0x140 }
  - { offsetInCU: 0x28430, offset: 0x39D65, size: 0x8, addend: 0x0, symName: '__ZN4core3ptr68drop_in_place$LT$alloc..boxed..Box$LT$syn..path..PathSegment$GT$$GT$17h7d0321f5cdfba0dbE', symObjAddr: 0xEE90, symBinAddr: 0x12660, symSize: 0x1B0 }
  - { offsetInCU: 0x28B5D, offset: 0x3A492, size: 0x8, addend: 0x0, symName: '__ZN4core3ptr68drop_in_place$LT$core..option..Option$LT$syn..item..Variadic$GT$$GT$17he52ff5ef75a791c9E', symObjAddr: 0xF040, symBinAddr: 0x12810, symSize: 0x120 }
  - { offsetInCU: 0x28FFC, offset: 0x3A931, size: 0x8, addend: 0x0, symName: '__ZN4core3ptr69drop_in_place$LT$wasm_bindgen_macro_support..parser..BindgenAttrs$GT$17hde3159e8ba1f37b1E', symObjAddr: 0xF160, symBinAddr: 0x12930, symSize: 0xD0 }
  - { offsetInCU: 0x2932A, offset: 0x3AC5F, size: 0x8, addend: 0x0, symName: '__ZN4core3ptr70drop_in_place$LT$core..option..Option$LT$syn..ty..BareVariadic$GT$$GT$17hca3e4002aff8883fE', symObjAddr: 0xF230, symBinAddr: 0x12A00, symSize: 0x100 }
  - { offsetInCU: 0x29761, offset: 0x3B096, size: 0x8, addend: 0x0, symName: '__ZN4core3ptr72drop_in_place$LT$alloc..boxed..Box$LT$syn..path..GenericArgument$GT$$GT$17h85ff28da2594c421E', symObjAddr: 0xF330, symBinAddr: 0x12B00, symSize: 0x1D0 }
  - { offsetInCU: 0x29CFC, offset: 0x3B631, size: 0x8, addend: 0x0, symName: '__ZN4core3ptr72drop_in_place$LT$core..option..Option$LT$syn..lifetime..Lifetime$GT$$GT$17hfee4ffb29eba4fc9E', symObjAddr: 0xF500, symBinAddr: 0x12CD0, symSize: 0x30 }
  - { offsetInCU: 0x29E17, offset: 0x3B74C, size: 0x8, addend: 0x0, symName: '__ZN4core3ptr73drop_in_place$LT$alloc..boxed..Box$LT$syn..generics..GenericParam$GT$$GT$17hce03ddb06f310207E', symObjAddr: 0xF530, symBinAddr: 0x12D00, symSize: 0x80 }
  - { offsetInCU: 0x29F8D, offset: 0x3B8C2, size: 0x8, addend: 0x0, symName: '__ZN4core3ptr75drop_in_place$LT$alloc..boxed..Box$LT$syn..generics..TypeParamBound$GT$$GT$17h9abbd9006a1d5cd9E', symObjAddr: 0xF5B0, symBinAddr: 0x12D80, symSize: 0xC0 }
  - { offsetInCU: 0x2A284, offset: 0x3BBB9, size: 0x8, addend: 0x0, symName: '__ZN4core3ptr75drop_in_place$LT$alloc..vec..Vec$LT$wasm_bindgen_backend..ast..Enum$GT$$GT$17h0cdf24c5c8babeb6E', symObjAddr: 0xF670, symBinAddr: 0x12E40, symSize: 0xD0 }
  - { offsetInCU: 0x2A5C0, offset: 0x3BEF5, size: 0x8, addend: 0x0, symName: '__ZN4core3ptr75drop_in_place$LT$core..option..Option$LT$syn..generics..WhereClause$GT$$GT$17h40f934b6c21d874fE', symObjAddr: 0xF740, symBinAddr: 0x12F10, symSize: 0x90 }
  - { offsetInCU: 0x2A857, offset: 0x3C18C, size: 0x8, addend: 0x0, symName: '__ZN4core3ptr77drop_in_place$LT$alloc..vec..Vec$LT$wasm_bindgen_backend..ast..Import$GT$$GT$17h0e9de426d463322dE', symObjAddr: 0xF7D0, symBinAddr: 0x12FA0, symSize: 0x60 }
  - { offsetInCU: 0x2AA86, offset: 0x3C3BB, size: 0x8, addend: 0x0, symName: '__ZN4core3ptr77drop_in_place$LT$alloc..vec..Vec$LT$wasm_bindgen_backend..ast..Struct$GT$$GT$17h9172edf135d3fb23E', symObjAddr: 0xF830, symBinAddr: 0x13000, symSize: 0xD0 }
  - { offsetInCU: 0x2AD46, offset: 0x3C67B, size: 0x8, addend: 0x0, symName: '__ZN4core3ptr83drop_in_place$LT$alloc..vec..Vec$LT$wasm_bindgen_backend..ast..ImportModule$GT$$GT$17h981d49f720f22c03E', symObjAddr: 0xF900, symBinAddr: 0x130D0, symSize: 0x90 }
  - { offsetInCU: 0x2B003, offset: 0x3C938, size: 0x8, addend: 0x0, symName: '__ZN4core3ptr83drop_in_place$LT$alloc..vec..Vec$LT$wasm_bindgen_backend..error..Diagnostic$GT$$GT$17hf8e317aad1a798c5E', symObjAddr: 0xF990, symBinAddr: 0x13160, symSize: 0xD0 }
  - { offsetInCU: 0x2B2C5, offset: 0x3CBFA, size: 0x8, addend: 0x0, symName: '__ZN4core3ptr83drop_in_place$LT$core..result..Result$LT$syn..token..Eq$C$syn..error..Error$GT$$GT$17h353577ccb6b540dcE', symObjAddr: 0xFA60, symBinAddr: 0x13230, symSize: 0x80 }
  - { offsetInCU: 0x2B595, offset: 0x3CECA, size: 0x8, addend: 0x0, symName: '__ZN4core3ptr85drop_in_place$LT$core..result..Result$LT$syn..lit..LitStr$C$syn..error..Error$GT$$GT$17he07eecfba0b5b4caE', symObjAddr: 0xFAE0, symBinAddr: 0x132B0, symSize: 0xC0 }
  - { offsetInCU: 0x2BB2D, offset: 0x3D462, size: 0x8, addend: 0x0, symName: '__ZN4core3ptr86drop_in_place$LT$syn..punctuated..Punctuated$LT$syn..pat..Pat$C$syn..token..Or$GT$$GT$17h7580e44fbb73d60bE', symObjAddr: 0xFBA0, symBinAddr: 0x13370, symSize: 0x120 }
  - { offsetInCU: 0x2BFA8, offset: 0x3D8DD, size: 0x8, addend: 0x0, symName: '__ZN4core3ptr87drop_in_place$LT$core..option..Option$LT$alloc..boxed..Box$LT$syn..pat..Pat$GT$$GT$$GT$17h0af17f6f14c9379aE', symObjAddr: 0xFCC0, symBinAddr: 0x13490, symSize: 0x50 }
  - { offsetInCU: 0x2C118, offset: 0x3DA4D, size: 0x8, addend: 0x0, symName: '__ZN4core3ptr87drop_in_place$LT$core..option..Option$LT$alloc..boxed..Box$LT$syn..ty..Type$GT$$GT$$GT$17h115b882e05437c86E', symObjAddr: 0xFD10, symBinAddr: 0x134E0, symSize: 0x50 }
  - { offsetInCU: 0x2C288, offset: 0x3DBBD, size: 0x8, addend: 0x0, symName: '__ZN4core3ptr89drop_in_place$LT$core..option..Option$LT$alloc..boxed..Box$LT$syn..expr..Expr$GT$$GT$$GT$17he3e67d25883b4389E', symObjAddr: 0xFD60, symBinAddr: 0x13530, symSize: 0x50 }
  - { offsetInCU: 0x2C3F8, offset: 0x3DD2D, size: 0x8, addend: 0x0, symName: '__ZN4core3ptr89drop_in_place$LT$core..result..Result$LT$syn..expr..ExprArray$C$syn..error..Error$GT$$GT$17hacd1f83c4c0c94f5E', symObjAddr: 0xFDB0, symBinAddr: 0x13580, symSize: 0x170 }
  - { offsetInCU: 0x2C9D7, offset: 0x3E30C, size: 0x8, addend: 0x0, symName: '__ZN4core3ptr89drop_in_place$LT$syn..punctuated..Punctuated$LT$syn..pat..Pat$C$syn..token..Comma$GT$$GT$17hd0f680a310102099E', symObjAddr: 0xFF20, symBinAddr: 0x136F0, symSize: 0x120 }
  - { offsetInCU: 0x2CE69, offset: 0x3E79E, size: 0x8, addend: 0x0, symName: '__ZN4core3ptr89drop_in_place$LT$syn..punctuated..Punctuated$LT$syn..ty..Type$C$syn..token..Comma$GT$$GT$17h3e0bdfd750c7e7c3E', symObjAddr: 0x10040, symBinAddr: 0x13810, symSize: 0x120 }
  - { offsetInCU: 0x2D322, offset: 0x3EC57, size: 0x8, addend: 0x0, symName: '__ZN4core3ptr90drop_in_place$LT$core..option..Option$LT$alloc..boxed..Box$LT$syn..data..Field$GT$$GT$$GT$17h77597b41f3489811E', symObjAddr: 0x10160, symBinAddr: 0x13930, symSize: 0x1B0 }
  - { offsetInCU: 0x2D9FF, offset: 0x3F334, size: 0x8, addend: 0x0, symName: '__ZN4core3ptr90drop_in_place$LT$core..option..Option$LT$alloc..boxed..Box$LT$syn..item..FnArg$GT$$GT$$GT$17h20030a0d77da3dbdE', symObjAddr: 0x10310, symBinAddr: 0x13AE0, symSize: 0x180 }
  - { offsetInCU: 0x2E0E9, offset: 0x3FA1E, size: 0x8, addend: 0x0, symName: '__ZN4core3ptr90drop_in_place$LT$core..option..Option$LT$syn..path..AngleBracketedGenericArguments$GT$$GT$17h6bb71941a5735759E', symObjAddr: 0x10490, symBinAddr: 0x13C60, symSize: 0x130 }
  - { offsetInCU: 0x2E58B, offset: 0x3FEC0, size: 0x8, addend: 0x0, symName: '__ZN4core3ptr91drop_in_place$LT$syn..punctuated..Punctuated$LT$syn..expr..Expr$C$syn..token..Comma$GT$$GT$17h2f01a48d43db64beE', symObjAddr: 0x105C0, symBinAddr: 0x13D90, symSize: 0x120 }
  - { offsetInCU: 0x2EA95, offset: 0x403CA, size: 0x8, addend: 0x0, symName: '__ZN4core3ptr92drop_in_place$LT$core..option..Option$LT$alloc..boxed..Box$LT$syn..data..Variant$GT$$GT$$GT$17h2ccdf3e306621abcE', symObjAddr: 0x106E0, symBinAddr: 0x13EB0, symSize: 0x170 }
  - { offsetInCU: 0x2F030, offset: 0x40965, size: 0x8, addend: 0x0, symName: '__ZN4core3ptr92drop_in_place$LT$syn..punctuated..Punctuated$LT$syn..item..FnArg$C$syn..token..Comma$GT$$GT$17h96e6da634d2aecfdE', symObjAddr: 0x10850, symBinAddr: 0x14020, symSize: 0xE0 }
  - { offsetInCU: 0x2F32B, offset: 0x40C60, size: 0x8, addend: 0x0, symName: '__ZN4core3ptr93drop_in_place$LT$core..option..Option$LT$alloc..vec..Vec$LT$alloc..string..String$GT$$GT$$GT$17h4fbad2368bbe2fbaE', symObjAddr: 0x10930, symBinAddr: 0x14100, symSize: 0x80 }
  - { offsetInCU: 0x2F5F9, offset: 0x40F2E, size: 0x8, addend: 0x0, symName: '__ZN4core3ptr94drop_in_place$LT$syn..punctuated..Punctuated$LT$syn..data..Variant$C$syn..token..Comma$GT$$GT$17he3434ef9d715c40fE', symObjAddr: 0x109B0, symBinAddr: 0x14180, symSize: 0xE0 }
  - { offsetInCU: 0x2F8FC, offset: 0x41231, size: 0x8, addend: 0x0, symName: '__ZN4core3ptr94drop_in_place$LT$syn..punctuated..Punctuated$LT$syn..pat..FieldPat$C$syn..token..Comma$GT$$GT$17h1420eba3f01509f6E', symObjAddr: 0x10A90, symBinAddr: 0x14260, symSize: 0xF0 }
  - { offsetInCU: 0x2FBFB, offset: 0x41530, size: 0x8, addend: 0x0, symName: '__ZN4core3ptr94drop_in_place$LT$syn..punctuated..Punctuated$LT$syn..ty..BareFnArg$C$syn..token..Comma$GT$$GT$17h96c674e9d142553fE', symObjAddr: 0x10B80, symBinAddr: 0x14350, symSize: 0xF0 }
  - { offsetInCU: 0x2FEFC, offset: 0x41831, size: 0x8, addend: 0x0, symName: '__ZN4core3ptr96drop_in_place$LT$core..option..Option$LT$alloc..boxed..Box$LT$syn..path..PathSegment$GT$$GT$$GT$17hcd3eda3806df5f3aE', symObjAddr: 0x10C70, symBinAddr: 0x14440, symSize: 0xA0 }
  - { offsetInCU: 0x3017B, offset: 0x41AB0, size: 0x8, addend: 0x0, symName: '__ZN4core3ptr97drop_in_place$LT$syn..punctuated..Punctuated$LT$syn..expr..FieldValue$C$syn..token..Comma$GT$$GT$17hd26eb8b5d8a23419E', symObjAddr: 0x10D10, symBinAddr: 0x144E0, symSize: 0xF0 }
  - { offsetInCU: 0x30478, offset: 0x41DAD, size: 0x8, addend: 0x0, symName: '__ZN4core3ptr98drop_in_place$LT$alloc..vec..Vec$LT$$LP$syn..path..GenericArgument$C$syn..token..Comma$RP$$GT$$GT$17hea1d5c3a538d7748E', symObjAddr: 0x10E00, symBinAddr: 0x145D0, symSize: 0xD0 }
  - { offsetInCU: 0x307B8, offset: 0x420ED, size: 0x8, addend: 0x0, symName: '__ZN4core3ptr98drop_in_place$LT$syn..punctuated..Punctuated$LT$syn..lifetime..Lifetime$C$syn..token..Plus$GT$$GT$17hb40bd2b31d61c61aE', symObjAddr: 0x10ED0, symBinAddr: 0x146A0, symSize: 0xD0 }
  - { offsetInCU: 0x31C3A, offset: 0x4356F, size: 0x8, addend: 0x0, symName: '__ZN53_$LT$core..fmt..Error$u20$as$u20$core..fmt..Debug$GT$3fmt17h03dc662ab152f3aeE', symObjAddr: 0x11040, symBinAddr: 0x14810, symSize: 0x20 }
  - { offsetInCU: 0x36D4F, offset: 0x48684, size: 0x8, addend: 0x0, symName: '__ZN4core3ops8function5impls79_$LT$impl$u20$core..ops..function..FnMut$LT$A$GT$$u20$for$u20$$RF$mut$u20$F$GT$8call_mut17hb5d1281a2714d934E', symObjAddr: 0x5190, symBinAddr: 0x8990, symSize: 0xF20 }
  - { offsetInCU: 0x38FBF, offset: 0x4A8F4, size: 0x8, addend: 0x0, symName: '__ZN4core3ops8function5impls79_$LT$impl$u20$core..ops..function..FnMut$LT$A$GT$$u20$for$u20$$RF$mut$u20$F$GT$8call_mut17hd3531485556a7497E', symObjAddr: 0x60B0, symBinAddr: 0x98B0, symSize: 0x500 }
  - { offsetInCU: 0x39B1A, offset: 0x4B44F, size: 0x8, addend: 0x0, symName: '__ZN4core3ops8function5impls80_$LT$impl$u20$core..ops..function..FnOnce$LT$A$GT$$u20$for$u20$$RF$mut$u20$F$GT$9call_once17h4dd7604247eeadd7E', symObjAddr: 0x65B0, symBinAddr: 0x9DB0, symSize: 0x8E0 }
  - { offsetInCU: 0x43A3D, offset: 0x55372, size: 0x8, addend: 0x0, symName: __ZN3syn3gen5visit5Visit10visit_path17h7e509d80814a9d54E, symObjAddr: 0x20, symBinAddr: 0x66D0, symSize: 0x180 }
  - { offsetInCU: 0x44553, offset: 0x55E88, size: 0x8, addend: 0x0, symName: __ZN3syn3gen5visit5Visit10visit_stmt17h0281d3e67dcfc075E, symObjAddr: 0x1A0, symBinAddr: 0x6850, symSize: 0x10 }
  - { offsetInCU: 0x4465D, offset: 0x55F92, size: 0x8, addend: 0x0, symName: __ZN3syn3gen5visit5Visit14visit_use_tree17ha52e715045aaf4c7E, symObjAddr: 0xB10, symBinAddr: 0x6860, symSize: 0x90 }
  - { offsetInCU: 0x44AEF, offset: 0x56424, size: 0x8, addend: 0x0, symName: __ZN3syn3gen5visit5Visit15visit_attribute17he175847291447b9cE, symObjAddr: 0xC10, symBinAddr: 0x68F0, symSize: 0x470 }
  - { offsetInCU: 0x46DF8, offset: 0x5872D, size: 0x8, addend: 0x0, symName: __ZN3syn3gen5visit5Visit15visit_meta_list17h7d3c430ca1748a8bE, symObjAddr: 0x1360, symBinAddr: 0x6D60, symSize: 0x180 }
  - { offsetInCU: 0x47A51, offset: 0x59386, size: 0x8, addend: 0x0, symName: __ZN3syn3gen5visit5Visit16visit_type_param17h4f1b7938cc111e2eE, symObjAddr: 0x20D0, symBinAddr: 0x6EE0, symSize: 0x790 }
  - { offsetInCU: 0x4B182, offset: 0x5CAB7, size: 0x8, addend: 0x0, symName: __ZN3syn3gen5visit5Visit17visit_const_param17h4b76d8d003438bddE, symObjAddr: 0x29F0, symBinAddr: 0x7670, symSize: 0x4F0 }
  - { offsetInCU: 0x4D6EB, offset: 0x5F020, size: 0x8, addend: 0x0, symName: __ZN3syn3gen5visit5Visit19visit_generic_param17h3fc632d8e8bedfdfE, symObjAddr: 0x3970, symBinAddr: 0x7B60, symSize: 0x450 }
  - { offsetInCU: 0x4F0EE, offset: 0x60A23, size: 0x8, addend: 0x0, symName: __ZN3syn3gen5visit5Visit20visit_lifetime_param17h76b69d36c4974fc2E, symObjAddr: 0x3F40, symBinAddr: 0x7FB0, symSize: 0x610 }
  - { offsetInCU: 0x51CE8, offset: 0x6361D, size: 0x8, addend: 0x0, symName: __ZN3syn3gen5visit5Visit21visit_meta_name_value17h73003f58b53eed32E, symObjAddr: 0x46D0, symBinAddr: 0x85C0, symSize: 0x180 }
  - { offsetInCU: 0x52891, offset: 0x641C6, size: 0x8, addend: 0x0, symName: __ZN3syn3gen5visit5Visit24visit_predicate_lifetime17heaf319b3c2b80440E, symObjAddr: 0x4D00, symBinAddr: 0x8740, symSize: 0x180 }
  - { offsetInCU: 0x54B21, offset: 0x66456, size: 0x8, addend: 0x0, symName: _anon.900c4711e47f1f59c472f526e88865a3.123.llvm.1745451086898636462, symObjAddr: 0x1DB48, symBinAddr: 0x338708, symSize: 0x0 }
  - { offsetInCU: 0x54C50, offset: 0x66585, size: 0x8, addend: 0x0, symName: '__ZN104_$LT$wasm_bindgen_macro_support..parser..assert_no_lifetimes..Walk$u20$as$u20$syn..gen..visit..Visit$GT$14visit_lifetime17h48c53ab41c49dd09E', symObjAddr: 0x18860, symBinAddr: 0x1BF40, symSize: 0x120 }
  - { offsetInCU: 0x564D9, offset: 0x67E0E, size: 0x8, addend: 0x0, symName: '__ZN26wasm_bindgen_macro_support6parser18function_from_decl28_$u7b$$u7b$closure$u7d$$u7d$17hcb7db5a01d100da2E', symObjAddr: 0x15E80, symBinAddr: 0x19560, symSize: 0x2C0 }
  - { offsetInCU: 0x56BDC, offset: 0x68511, size: 0x8, addend: 0x0, symName: '__ZN86_$LT$wasm_bindgen_macro_support..parser..BindgenAttrs$u20$as$u20$syn..parse..Parse$GT$5parse17h741132d22a8126b9E', symObjAddr: 0x119F0, symBinAddr: 0x151C0, symSize: 0x1D0 }
  - { offsetInCU: 0x56F98, offset: 0x688CD, size: 0x8, addend: 0x0, symName: '__ZN91_$LT$wasm_bindgen_macro_support..parser..BindgenAttrs$u20$as$u20$core..default..Default$GT$7default17h382f921d4265a5e3E', symObjAddr: 0x11960, symBinAddr: 0x15130, symSize: 0x90 }
  - { offsetInCU: 0x57477, offset: 0x68DAC, size: 0x8, addend: 0x0, symName: '__ZN85_$LT$wasm_bindgen_macro_support..parser..BindgenAttr$u20$as$u20$syn..parse..Parse$GT$5parse17h20eb21f66dfe9256E', symObjAddr: 0x11BC0, symBinAddr: 0x15390, symSize: 0x27B0 }
  - { offsetInCU: 0x5E340, offset: 0x6FC75, size: 0x8, addend: 0x0, symName: '__ZN272_$LT$syn..item..ForeignItemFn$u20$as$u20$wasm_bindgen_macro_support..parser..ConvertToAst$LT$$LP$$RF$wasm_bindgen_backend..ast..Program$C$wasm_bindgen_macro_support..parser..BindgenAttrs$C$$RF$core..option..Option$LT$wasm_bindgen_backend..ast..ImportModule$GT$$RP$$GT$$GT$7convert28_$u7b$$u7b$closure$u7d$$u7d$8get_docs17he762282963018daeE', symObjAddr: 0x14460, symBinAddr: 0x17B40, symSize: 0x1D0 }
  - { offsetInCU: 0x5EC76, offset: 0x705AB, size: 0x8, addend: 0x0, symName: __ZN26wasm_bindgen_macro_support6parser13is_js_keyword17h5fa91b1dc1584bf3E, symObjAddr: 0x14630, symBinAddr: 0x17D10, symSize: 0x990 }
  - { offsetInCU: 0x60395, offset: 0x71CCA, size: 0x8, addend: 0x0, symName: __ZN26wasm_bindgen_macro_support6parser18function_from_decl17h00d7863e36386483E, symObjAddr: 0x14FC0, symBinAddr: 0x186A0, symSize: 0xEC0 }
  - { offsetInCU: 0x62B83, offset: 0x744B8, size: 0x8, addend: 0x0, symName: __ZN26wasm_bindgen_macro_support6parser26prepare_for_impl_recursion17hc61aba156b50cbabE, symObjAddr: 0x16140, symBinAddr: 0x19820, symSize: 0x920 }
  - { offsetInCU: 0x64707, offset: 0x7603C, size: 0x8, addend: 0x0, symName: __ZN26wasm_bindgen_macro_support6parser11import_enum17h65297144e0158800E, symObjAddr: 0x16A60, symBinAddr: 0x1A140, symSize: 0xCB0 }
  - { offsetInCU: 0x66CD0, offset: 0x78605, size: 0x8, addend: 0x0, symName: __ZN26wasm_bindgen_macro_support6parser16module_from_opts17h07696496c8ea6991E, symObjAddr: 0x17710, symBinAddr: 0x1ADF0, symSize: 0x8E0 }
  - { offsetInCU: 0x69297, offset: 0x7ABCC, size: 0x8, addend: 0x0, symName: __ZN26wasm_bindgen_macro_support6parser22extract_first_ty_param17hc76a63155bc11a37E, symObjAddr: 0x17FF0, symBinAddr: 0x1B6D0, symSize: 0x430 }
  - { offsetInCU: 0x6AD85, offset: 0x7C6BA, size: 0x8, addend: 0x0, symName: __ZN26wasm_bindgen_macro_support6parser20extract_doc_comments17he0484cd0897d5411E, symObjAddr: 0x18420, symBinAddr: 0x1BB00, symSize: 0x440 }
  - { offsetInCU: 0x6BBA0, offset: 0x7D4D5, size: 0x8, addend: 0x0, symName: __ZN26wasm_bindgen_macro_support6parser18extract_path_ident17h2501edf92a4b0b5aE, symObjAddr: 0x18980, symBinAddr: 0x1C060, symSize: 0x300 }
  - { offsetInCU: 0x6CA75, offset: 0x7E3AA, size: 0x8, addend: 0x0, symName: __ZN26wasm_bindgen_macro_support6parser16reset_attrs_used17hadda1c6e73336cf7E, symObjAddr: 0x18C80, symBinAddr: 0x1C360, symSize: 0x120 }
  - { offsetInCU: 0x6D0FB, offset: 0x7EA30, size: 0x8, addend: 0x0, symName: __ZN26wasm_bindgen_macro_support6parser18check_unused_attrs17h152c0e7a46ba1b9eE, symObjAddr: 0x18DA0, symBinAddr: 0x1C480, symSize: 0x2B0 }
  - { offsetInCU: 0x6D785, offset: 0x7F0BA, size: 0x8, addend: 0x0, symName: __ZN26wasm_bindgen_macro_support6parser14operation_kind17h3ca6413dc671d7a5E, symObjAddr: 0x19050, symBinAddr: 0x1C730, symSize: 0x330 }
  - { offsetInCU: 0x6E367, offset: 0x7FC9C, size: 0x8, addend: 0x0, symName: __ZN26wasm_bindgen_macro_support6parser7link_to17h751551fb8a327411E, symObjAddr: 0x19380, symBinAddr: 0x1CA60, symSize: 0x750 }
  - { offsetInCU: 0x6FCB9, offset: 0x815EE, size: 0x8, addend: 0x0, symName: __ZN26wasm_bindgen_macro_support6parser4main17ha4b61f1916d0680fE, symObjAddr: 0x19AD0, symBinAddr: 0x1D1B0, symSize: 0x1400 }
  - { offsetInCU: 0x74B72, offset: 0x864A7, size: 0x8, addend: 0x0, symName: '__ZN5alloc3vec16Vec$LT$T$C$A$GT$4push17h6ba4bfb13ec5696eE', symObjAddr: 0x11200, symBinAddr: 0x149D0, symSize: 0x80 }
  - { offsetInCU: 0x752B1, offset: 0x86BE6, size: 0x8, addend: 0x0, symName: __ZN26wasm_bindgen_macro_support6parser12BindgenAttrs4find17ha2f9e28b7693c7bbE, symObjAddr: 0x112A0, symBinAddr: 0x14A70, symSize: 0x6C0 }
  - { offsetInCU: 0x7A282, offset: 0x8BBB7, size: 0x8, addend: 0x0, symName: __ZN26wasm_bindgen_macro_support6parser12BindgenAttrs10check_used17h22b053ef0cd5bbd2E, symObjAddr: 0x1AED0, symBinAddr: 0x1E5B0, symSize: 0x1A0 }
  - { offsetInCU: 0x1E, offset: 0x9653D, size: 0x8, addend: 0x0, symName: '__ZN45_$LT$T$u20$as$u20$alloc..string..ToString$GT$9to_string17h2955753eee1d08eeE', symObjAddr: 0x0, symBinAddr: 0x1E750, symSize: 0xD0 }
  - { offsetInCU: 0xD4, offset: 0x965F3, size: 0x8, addend: 0x0, symName: '__ZN45_$LT$T$u20$as$u20$alloc..string..ToString$GT$9to_string17h2955753eee1d08eeE', symObjAddr: 0x0, symBinAddr: 0x1E750, symSize: 0xD0 }
  - { offsetInCU: 0x320, offset: 0x9683F, size: 0x8, addend: 0x0, symName: '__ZN58_$LT$alloc..string..String$u20$as$u20$core..fmt..Write$GT$10write_char17h04bc467bd68a934bE', symObjAddr: 0xC460, symBinAddr: 0x2ABA0, symSize: 0x140 }
  - { offsetInCU: 0x725, offset: 0x96C44, size: 0x8, addend: 0x0, symName: '__ZN58_$LT$alloc..string..String$u20$as$u20$core..fmt..Write$GT$9write_str17h46a93205c3443fbaE', symObjAddr: 0xC5A0, symBinAddr: 0x2ACE0, symSize: 0x60 }
  - { offsetInCU: 0xA50, offset: 0x96F6F, size: 0x8, addend: 0x0, symName: '__ZN60_$LT$alloc..string..String$u20$as$u20$core..fmt..Display$GT$3fmt17h0d0eb46f3054e2dfE', symObjAddr: 0xC980, symBinAddr: 0x2B0C0, symSize: 0x20 }
  - { offsetInCU: 0x3F57, offset: 0x9A476, size: 0x8, addend: 0x0, symName: '__ZN52_$LT$T$u20$as$u20$alloc..slice..hack..ConvertVec$GT$6to_vec17hf3ed208134395baeE', symObjAddr: 0xC3B0, symBinAddr: 0x2AAF0, symSize: 0x90 }
  - { offsetInCU: 0x6428, offset: 0x9C947, size: 0x8, addend: 0x0, symName: '__ZN4core3ptr100drop_in_place$LT$core..option..Option$LT$alloc..boxed..Box$LT$syn..path..GenericArgument$GT$$GT$$GT$17h57a5558e267c0aa5E', symObjAddr: 0xD0, symBinAddr: 0x1E820, symSize: 0x50 }
  - { offsetInCU: 0x67C6, offset: 0x9CCE5, size: 0x8, addend: 0x0, symName: '__ZN4core3ptr100drop_in_place$LT$syn..punctuated..Punctuated$LT$syn..path..PathSegment$C$syn..token..PathSep$GT$$GT$17h8f618be881a86ee0E', symObjAddr: 0x120, symBinAddr: 0x1E870, symSize: 0x270 }
  - { offsetInCU: 0x7169, offset: 0x9D688, size: 0x8, addend: 0x0, symName: '__ZN4core3ptr103drop_in_place$LT$core..option..Option$LT$alloc..boxed..Box$LT$syn..generics..TypeParamBound$GT$$GT$$GT$17hd35dab8117a0a53fE', symObjAddr: 0x390, symBinAddr: 0x1EAE0, symSize: 0x50 }
  - { offsetInCU: 0x73B2, offset: 0x9D8D1, size: 0x8, addend: 0x0, symName: '__ZN4core3ptr103drop_in_place$LT$core..option..Option$LT$alloc..boxed..Box$LT$syn..generics..WherePredicate$GT$$GT$$GT$17h1bdc11655d4045e2E', symObjAddr: 0x3E0, symBinAddr: 0x1EB30, symSize: 0xD0 }
  - { offsetInCU: 0x7746, offset: 0x9DC65, size: 0x8, addend: 0x0, symName: '__ZN4core3ptr103drop_in_place$LT$syn..punctuated..Punctuated$LT$syn..generics..GenericParam$C$syn..token..Comma$GT$$GT$17h7f466bbfdffc79f8E', symObjAddr: 0x4B0, symBinAddr: 0x1EC00, symSize: 0xF0 }
  - { offsetInCU: 0x7BE4, offset: 0x9E103, size: 0x8, addend: 0x0, symName: '__ZN4core3ptr104drop_in_place$LT$syn..punctuated..Punctuated$LT$syn..generics..TypeParamBound$C$syn..token..Plus$GT$$GT$17h94179c83f1bdbd23E', symObjAddr: 0x5A0, symBinAddr: 0x1ECF0, symSize: 0x190 }
  - { offsetInCU: 0x8207, offset: 0x9E726, size: 0x8, addend: 0x0, symName: '__ZN4core3ptr115drop_in_place$LT$core..option..Option$LT$$LP$alloc..boxed..Box$LT$syn..pat..Pat$GT$$C$syn..token..Colon$RP$$GT$$GT$17h8317a6e8f015f476E', symObjAddr: 0x730, symBinAddr: 0x1EE80, symSize: 0x50 }
  - { offsetInCU: 0x83D5, offset: 0x9E8F4, size: 0x8, addend: 0x0, symName: '__ZN4core3ptr115drop_in_place$LT$core..option..Option$LT$$LP$syn..token..Brace$C$alloc..vec..Vec$LT$syn..item..Item$GT$$RP$$GT$$GT$17h32aec65f20b8c014E', symObjAddr: 0x780, symBinAddr: 0x1EED0, symSize: 0xD0 }
  - { offsetInCU: 0x86EC, offset: 0x9EC0B, size: 0x8, addend: 0x0, symName: '__ZN4core3ptr126drop_in_place$LT$core..option..Option$LT$$LP$syn..token..And$C$core..option..Option$LT$syn..lifetime..Lifetime$GT$$RP$$GT$$GT$17hb8cf558803387ebcE', symObjAddr: 0x850, symBinAddr: 0x1EFA0, symSize: 0x30 }
  - { offsetInCU: 0x88A2, offset: 0x9EDC1, size: 0x8, addend: 0x0, symName: '__ZN4core3ptr34drop_in_place$LT$syn..lit..Lit$GT$17hee573645253c1240E', symObjAddr: 0x880, symBinAddr: 0x1EFD0, symSize: 0x120 }
  - { offsetInCU: 0x8D71, offset: 0x9F290, size: 0x8, addend: 0x0, symName: '__ZN4core3ptr34drop_in_place$LT$syn..pat..Pat$GT$17h973f87584b174815E', symObjAddr: 0x9A0, symBinAddr: 0x1F0F0, symSize: 0x1090 }
  - { offsetInCU: 0xCD52, offset: 0xA3271, size: 0x8, addend: 0x0, symName: '__ZN4core3ptr34drop_in_place$LT$syn..ty..Type$GT$17h3ae90635bb8b5dc2E', symObjAddr: 0x1A30, symBinAddr: 0x20180, symSize: 0x4F0 }
  - { offsetInCU: 0xE295, offset: 0xA47B4, size: 0x8, addend: 0x0, symName: '__ZN4core3ptr36drop_in_place$LT$syn..expr..Expr$GT$17hec1898832a7659fcE', symObjAddr: 0x1F20, symBinAddr: 0x20670, symSize: 0x27D0 }
  - { offsetInCU: 0x17C92, offset: 0xAE1B1, size: 0x8, addend: 0x0, symName: '__ZN4core3ptr36drop_in_place$LT$syn..item..Item$GT$17h64b748ae526f89a8E', symObjAddr: 0x46F0, symBinAddr: 0x22E40, symSize: 0xF60 }
  - { offsetInCU: 0x1B4A8, offset: 0xB19C7, size: 0x8, addend: 0x0, symName: '__ZN4core3ptr36drop_in_place$LT$syn..mac..Macro$GT$17hee38913ef8f169faE', symObjAddr: 0x5650, symBinAddr: 0x23DA0, symSize: 0x40 }
  - { offsetInCU: 0x1B4E2, offset: 0xB1A01, size: 0x8, addend: 0x0, symName: '__ZN4core3ptr36drop_in_place$LT$syn..path..Path$GT$17h1bbd58c3d6dc291aE', symObjAddr: 0x5690, symBinAddr: 0x23DE0, symSize: 0x240 }
  - { offsetInCU: 0x1BE7C, offset: 0xB239B, size: 0x8, addend: 0x0, symName: '__ZN4core3ptr37drop_in_place$LT$syn..lit..LitStr$GT$17h6321b1d53a10493dE', symObjAddr: 0x58D0, symBinAddr: 0x24020, symSize: 0x60 }
  - { offsetInCU: 0x1C159, offset: 0xB2678, size: 0x8, addend: 0x0, symName: '__ZN4core3ptr37drop_in_place$LT$syn..stmt..Block$GT$17h3a3c4aa9f1407e4cE', symObjAddr: 0x5930, symBinAddr: 0x24080, symSize: 0xD0 }
  - { offsetInCU: 0x1C44F, offset: 0xB296E, size: 0x8, addend: 0x0, symName: '__ZN4core3ptr38drop_in_place$LT$syn..data..Fields$GT$17hc99e215fa9fa15adE', symObjAddr: 0x5A00, symBinAddr: 0x24150, symSize: 0x190 }
  - { offsetInCU: 0x1C899, offset: 0xB2DB8, size: 0x8, addend: 0x0, symName: '__ZN4core3ptr38drop_in_place$LT$syn..expr..Member$GT$17h11f93a48e3da0c5fE', symObjAddr: 0x5B90, symBinAddr: 0x242E0, symSize: 0x30 }
  - { offsetInCU: 0x1C9B4, offset: 0xB2ED3, size: 0x8, addend: 0x0, symName: '__ZN4core3ptr38drop_in_place$LT$syn..item..ItemFn$GT$17hb7f2405a52108824E', symObjAddr: 0x5BC0, symBinAddr: 0x24310, symSize: 0x210 }
  - { offsetInCU: 0x1D208, offset: 0xB3727, size: 0x8, addend: 0x0, symName: '__ZN4core3ptr39drop_in_place$LT$proc_macro2..Ident$GT$17h78274ef0131bd7beE', symObjAddr: 0x5DD0, symBinAddr: 0x24520, symSize: 0x30 }
  - { offsetInCU: 0x1D3FC, offset: 0xB391B, size: 0x8, addend: 0x0, symName: '__ZN4core3ptr39drop_in_place$LT$syn..item..UseTree$GT$17h04993a8d45a285e1E', symObjAddr: 0x5E00, symBinAddr: 0x24550, symSize: 0x1E0 }
  - { offsetInCU: 0x1DB8A, offset: 0xB40A9, size: 0x8, addend: 0x0, symName: '__ZN4core3ptr40drop_in_place$LT$syn..item..ItemEnum$GT$17hcd0127b2b9795875E', symObjAddr: 0x5FE0, symBinAddr: 0x24730, symSize: 0x240 }
  - { offsetInCU: 0x1E44C, offset: 0xB496B, size: 0x8, addend: 0x0, symName: '__ZN4core3ptr40drop_in_place$LT$syn..item..ItemImpl$GT$17hdc81ff0af9d27d34E', symObjAddr: 0x6220, symBinAddr: 0x24970, symSize: 0x1E0 }
  - { offsetInCU: 0x1EBB9, offset: 0xB50D8, size: 0x8, addend: 0x0, symName: '__ZN4core3ptr40drop_in_place$LT$syn..ty..ReturnType$GT$17h5fc392ae06958c38E', symObjAddr: 0x6400, symBinAddr: 0x24B50, symSize: 0x50 }
  - { offsetInCU: 0x1ED29, offset: 0xB5248, size: 0x8, addend: 0x0, symName: '__ZN4core3ptr41drop_in_place$LT$syn..expr..ExprConst$GT$17h5c5bfa544cf2da15E', symObjAddr: 0x6450, symBinAddr: 0x24BA0, symSize: 0x180 }
  - { offsetInCU: 0x1F2E2, offset: 0xB5801, size: 0x8, addend: 0x0, symName: '__ZN4core3ptr41drop_in_place$LT$syn..item..ItemConst$GT$17h4bb01ae1c13e559eE', symObjAddr: 0x65D0, symBinAddr: 0x24D20, symSize: 0x210 }
  - { offsetInCU: 0x1FB19, offset: 0xB6038, size: 0x8, addend: 0x0, symName: '__ZN4core3ptr41drop_in_place$LT$syn..item..Signature$GT$17ha66890d0d99c15a5E', symObjAddr: 0x67E0, symBinAddr: 0x24F30, symSize: 0x230 }
  - { offsetInCU: 0x203B8, offset: 0xB68D7, size: 0x8, addend: 0x0, symName: '__ZN4core3ptr42drop_in_place$LT$alloc..string..String$GT$17h22cb48d54c9865c7E', symObjAddr: 0x6A10, symBinAddr: 0x25160, symSize: 0x20 }
  - { offsetInCU: 0x204C0, offset: 0xB69DF, size: 0x8, addend: 0x0, symName: '__ZN4core3ptr42drop_in_place$LT$syn..item..ItemStruct$GT$17h0bc3c9df6abf4c16E', symObjAddr: 0x6A30, symBinAddr: 0x25180, symSize: 0x190 }
  - { offsetInCU: 0x20A04, offset: 0xB6F23, size: 0x8, addend: 0x0, symName: '__ZN4core3ptr43drop_in_place$LT$syn..data..FieldsNamed$GT$17h6fadfc624381e4b7E', symObjAddr: 0x6BC0, symBinAddr: 0x25310, symSize: 0xE0 }
  - { offsetInCU: 0x20D49, offset: 0xB7268, size: 0x8, addend: 0x0, symName: '__ZN4core3ptr43drop_in_place$LT$syn..item..ForeignItem$GT$17h8da552977607dc3eE', symObjAddr: 0x6CA0, symBinAddr: 0x253F0, symSize: 0x190 }
  - { offsetInCU: 0x21074, offset: 0xB7593, size: 0x8, addend: 0x0, symName: '__ZN4core3ptr44drop_in_place$LT$syn..generics..Generics$GT$17h10b1829060b95b1bE', symObjAddr: 0x6E30, symBinAddr: 0x25580, symSize: 0x40 }
  - { offsetInCU: 0x21091, offset: 0xB75B0, size: 0x8, addend: 0x0, symName: '__ZN4core3ptr44drop_in_place$LT$syn..lifetime..Lifetime$GT$17h6e42d75874321b11E', symObjAddr: 0x6E70, symBinAddr: 0x255C0, symSize: 0x30 }
  - { offsetInCU: 0x212C3, offset: 0xB77E2, size: 0x8, addend: 0x0, symName: '__ZN4core3ptr45drop_in_place$LT$proc_macro2..TokenStream$GT$17h3de86edc178dbdf7E', symObjAddr: 0x6EA0, symBinAddr: 0x255F0, symSize: 0x140 }
  - { offsetInCU: 0x2175D, offset: 0xB7C7C, size: 0x8, addend: 0x0, symName: '__ZN4core3ptr45drop_in_place$LT$syn..generics..TypeParam$GT$17hcf09314885b07e76E', symObjAddr: 0x6FE0, symBinAddr: 0x25730, symSize: 0x230 }
  - { offsetInCU: 0x21F7F, offset: 0xB849E, size: 0x8, addend: 0x0, symName: '__ZN4core3ptr45drop_in_place$LT$syn..item..ForeignItemFn$GT$17hf15da2c1dc2406b2E', symObjAddr: 0x7210, symBinAddr: 0x25960, symSize: 0x150 }
  - { offsetInCU: 0x223EF, offset: 0xB890E, size: 0x8, addend: 0x0, symName: '__ZN4core3ptr46drop_in_place$LT$syn..generics..ConstParam$GT$17hc257e156a7125459E', symObjAddr: 0x7360, symBinAddr: 0x25AB0, symSize: 0x150 }
  - { offsetInCU: 0x2281D, offset: 0xB8D3C, size: 0x8, addend: 0x0, symName: '__ZN4core3ptr46drop_in_place$LT$syn..item..ItemForeignMod$GT$17h35c91ad0fe78d5c4E', symObjAddr: 0x74B0, symBinAddr: 0x25C00, symSize: 0x180 }
  - { offsetInCU: 0x230F6, offset: 0xB9615, size: 0x8, addend: 0x0, symName: '__ZN4core3ptr47drop_in_place$LT$syn..item..ForeignItemType$GT$17ha952feda16ded478E', symObjAddr: 0x7630, symBinAddr: 0x25D80, symSize: 0x170 }
  - { offsetInCU: 0x2368D, offset: 0xB9BAC, size: 0x8, addend: 0x0, symName: '__ZN4core3ptr47drop_in_place$LT$syn..path..GenericArgument$GT$17h468af66cc22ee749E', symObjAddr: 0x77A0, symBinAddr: 0x25EF0, symSize: 0x4A0 }
  - { offsetInCU: 0x24793, offset: 0xBACB2, size: 0x8, addend: 0x0, symName: '__ZN4core3ptr49drop_in_place$LT$syn..generics..LifetimeParam$GT$17h9ae69bbe86531da0E', symObjAddr: 0x7C40, symBinAddr: 0x26390, symSize: 0xF0 }
  - { offsetInCU: 0x24B76, offset: 0xBB095, size: 0x8, addend: 0x0, symName: '__ZN4core3ptr49drop_in_place$LT$syn..item..ForeignItemStatic$GT$17hbe640deb11e5b07bE', symObjAddr: 0x7D30, symBinAddr: 0x26480, symSize: 0x180 }
  - { offsetInCU: 0x251EC, offset: 0xBB70B, size: 0x8, addend: 0x0, symName: '__ZN4core3ptr49drop_in_place$LT$syn..restriction..Visibility$GT$17h83ceef089d938a49E', symObjAddr: 0x7EB0, symBinAddr: 0x26600, symSize: 0x60 }
  - { offsetInCU: 0x2535D, offset: 0xBB87C, size: 0x8, addend: 0x0, symName: '__ZN4core3ptr50drop_in_place$LT$syn..generics..TypeParamBound$GT$17he4fe30d10954a629E', symObjAddr: 0x7F10, symBinAddr: 0x26660, symSize: 0x180 }
  - { offsetInCU: 0x25823, offset: 0xBBD42, size: 0x8, addend: 0x0, symName: '__ZN4core3ptr52drop_in_place$LT$wasm_bindgen_backend..ast..Enum$GT$17hdf7803d47bfdae27E', symObjAddr: 0x8090, symBinAddr: 0x267E0, symSize: 0x120 }
  - { offsetInCU: 0x25F5A, offset: 0xBC479, size: 0x8, addend: 0x0, symName: '__ZN4core3ptr54drop_in_place$LT$wasm_bindgen_backend..ast..Export$GT$17hb49eae492b1b822aE', symObjAddr: 0x81B0, symBinAddr: 0x26900, symSize: 0x1F0 }
  - { offsetInCU: 0x2681D, offset: 0xBCD3C, size: 0x8, addend: 0x0, symName: '__ZN4core3ptr54drop_in_place$LT$wasm_bindgen_backend..ast..Import$GT$17ha1e698348283a8c8E', symObjAddr: 0x83A0, symBinAddr: 0x26AF0, symSize: 0xC0 }
  - { offsetInCU: 0x26C5C, offset: 0xBD17B, size: 0x8, addend: 0x0, symName: '__ZN4core3ptr54drop_in_place$LT$wasm_bindgen_backend..ast..Struct$GT$17h6270eb2c109bf26cE', symObjAddr: 0x8460, symBinAddr: 0x26BB0, symSize: 0x170 }
  - { offsetInCU: 0x273EE, offset: 0xBD90D, size: 0x8, addend: 0x0, symName: '__ZN4core3ptr56drop_in_place$LT$wasm_bindgen_backend..ast..Function$GT$17hc1933dcfd8332025E', symObjAddr: 0x85D0, symBinAddr: 0x26D20, symSize: 0x230 }
  - { offsetInCU: 0x27C32, offset: 0xBE151, size: 0x8, addend: 0x0, symName: '__ZN4core3ptr58drop_in_place$LT$alloc..vec..Vec$LT$syn..expr..Arm$GT$$GT$17h14e2e22a7226ddf8E', symObjAddr: 0x8800, symBinAddr: 0x26F50, symSize: 0xD0 }
  - { offsetInCU: 0x27FEA, offset: 0xBE509, size: 0x8, addend: 0x0, symName: '__ZN4core3ptr58drop_in_place$LT$wasm_bindgen_backend..ast..ImportKind$GT$17hc5d2a8eb3293519dE', symObjAddr: 0x88D0, symBinAddr: 0x27020, symSize: 0x8B0 }
  - { offsetInCU: 0x2A44B, offset: 0xC096A, size: 0x8, addend: 0x0, symName: '__ZN4core3ptr58drop_in_place$LT$wasm_bindgen_backend..ast..MethodKind$GT$17h50221a6cbb89d629E', symObjAddr: 0x9180, symBinAddr: 0x278D0, symSize: 0x50 }
  - { offsetInCU: 0x2A585, offset: 0xC0AA4, size: 0x8, addend: 0x0, symName: '__ZN4core3ptr59drop_in_place$LT$alloc..boxed..Box$LT$syn..pat..Pat$GT$$GT$17h50d0c33df1b13ff6E', symObjAddr: 0x91D0, symBinAddr: 0x27920, symSize: 0x50 }
  - { offsetInCU: 0x2A6DE, offset: 0xC0BFD, size: 0x8, addend: 0x0, symName: '__ZN4core3ptr59drop_in_place$LT$alloc..boxed..Box$LT$syn..ty..Type$GT$$GT$17h7bcc4a34581ddba7E', symObjAddr: 0x9220, symBinAddr: 0x27970, symSize: 0x50 }
  - { offsetInCU: 0x2A837, offset: 0xC0D56, size: 0x8, addend: 0x0, symName: '__ZN4core3ptr59drop_in_place$LT$alloc..vec..Vec$LT$syn..path..Path$GT$$GT$17h7a51e5d44de08e82E', symObjAddr: 0x9270, symBinAddr: 0x279C0, symSize: 0xD0 }
  - { offsetInCU: 0x2AB18, offset: 0xC1037, size: 0x8, addend: 0x0, symName: '__ZN4core3ptr59drop_in_place$LT$wasm_bindgen_backend..ast..StructField$GT$17hffd6d9f34a068864E', symObjAddr: 0x9340, symBinAddr: 0x27A90, symSize: 0x1A0 }
  - { offsetInCU: 0x2B2B4, offset: 0xC17D3, size: 0x8, addend: 0x0, symName: '__ZN4core3ptr60drop_in_place$LT$wasm_bindgen_backend..error..Diagnostic$GT$17hac73a733701e674cE', symObjAddr: 0x94E0, symBinAddr: 0x27C30, symSize: 0x150 }
  - { offsetInCU: 0x2B745, offset: 0xC1C64, size: 0x8, addend: 0x0, symName: '__ZN4core3ptr61drop_in_place$LT$alloc..boxed..Box$LT$syn..expr..Expr$GT$$GT$17h2f5fb41dd226c4deE', symObjAddr: 0x9630, symBinAddr: 0x27D80, symSize: 0x50 }
  - { offsetInCU: 0x2B91A, offset: 0xC1E39, size: 0x8, addend: 0x0, symName: '__ZN4core3ptr61drop_in_place$LT$syn..path..ParenthesizedGenericArguments$GT$17h490a82a7318211d4E', symObjAddr: 0x9680, symBinAddr: 0x27DD0, symSize: 0x170 }
  - { offsetInCU: 0x2BF10, offset: 0xC242F, size: 0x8, addend: 0x0, symName: '__ZN4core3ptr61drop_in_place$LT$wasm_bindgen_backend..ast..OperationKind$GT$17h60fbbccb03f03e3fE', symObjAddr: 0x97F0, symBinAddr: 0x27F40, symSize: 0x40 }
  - { offsetInCU: 0x2BFC3, offset: 0xC24E2, size: 0x8, addend: 0x0, symName: '__ZN4core3ptr62drop_in_place$LT$alloc..boxed..Box$LT$syn..stmt..Block$GT$$GT$17h3638bbe45345a15fE', symObjAddr: 0x9830, symBinAddr: 0x27F80, symSize: 0xE0 }
  - { offsetInCU: 0x2C3D1, offset: 0xC28F0, size: 0x8, addend: 0x0, symName: '__ZN4core3ptr62drop_in_place$LT$alloc..vec..Vec$LT$proc_macro2..Ident$GT$$GT$17hb84c8f137fc8fb6fE', symObjAddr: 0x9910, symBinAddr: 0x28060, symSize: 0x90 }
  - { offsetInCU: 0x2C659, offset: 0xC2B78, size: 0x8, addend: 0x0, symName: '__ZN4core3ptr62drop_in_place$LT$syn..path..AngleBracketedGenericArguments$GT$17h1669e24b2478d11dE', symObjAddr: 0x99A0, symBinAddr: 0x280F0, symSize: 0x120 }
  - { offsetInCU: 0x2CAA4, offset: 0xC2FC3, size: 0x8, addend: 0x0, symName: '__ZN4core3ptr63drop_in_place$LT$alloc..boxed..Box$LT$syn..lit..LitRepr$GT$$GT$17h3db95a238b447968E', symObjAddr: 0x9AC0, symBinAddr: 0x28210, symSize: 0x60 }
  - { offsetInCU: 0x2CD6D, offset: 0xC328C, size: 0x8, addend: 0x0, symName: '__ZN4core3ptr63drop_in_place$LT$alloc..vec..Vec$LT$syn..item..ImplItem$GT$$GT$17h1a3b03d7a8adc95cE', symObjAddr: 0x9B20, symBinAddr: 0x28270, symSize: 0x80 }
  - { offsetInCU: 0x2D025, offset: 0xC3544, size: 0x8, addend: 0x0, symName: '__ZN4core3ptr64drop_in_place$LT$alloc..boxed..Box$LT$syn..item..UseTree$GT$$GT$17hdca9ee81d3024007E', symObjAddr: 0x9BA0, symBinAddr: 0x282F0, symSize: 0x50 }
  - { offsetInCU: 0x2D19D, offset: 0xC36BC, size: 0x8, addend: 0x0, symName: '__ZN4core3ptr64drop_in_place$LT$alloc..boxed..Box$LT$syn..pat..FieldPat$GT$$GT$17h90926d8c1a4ddae4E', symObjAddr: 0x9BF0, symBinAddr: 0x28340, symSize: 0x140 }
  - { offsetInCU: 0x2D86A, offset: 0xC3D89, size: 0x8, addend: 0x0, symName: '__ZN4core3ptr64drop_in_place$LT$alloc..boxed..Box$LT$syn..ty..BareFnArg$GT$$GT$17h0f95c2c81efdd59dE', symObjAddr: 0x9D30, symBinAddr: 0x28480, symSize: 0x140 }
  - { offsetInCU: 0x2DDBF, offset: 0xC42DE, size: 0x8, addend: 0x0, symName: '__ZN4core3ptr64drop_in_place$LT$alloc..vec..Vec$LT$syn..attr..Attribute$GT$$GT$17hc3d18d11f6a490bdE', symObjAddr: 0x9E70, symBinAddr: 0x285C0, symSize: 0xD0 }
  - { offsetInCU: 0x2E07F, offset: 0xC459E, size: 0x8, addend: 0x0, symName: '__ZN4core3ptr64drop_in_place$LT$alloc..vec..Vec$LT$syn..item..TraitItem$GT$$GT$17h5f53b7921daede14E', symObjAddr: 0x9F40, symBinAddr: 0x28690, symSize: 0x80 }
  - { offsetInCU: 0x2E337, offset: 0xC4856, size: 0x8, addend: 0x0, symName: '__ZN4core3ptr65drop_in_place$LT$alloc..vec..Vec$LT$alloc..string..String$GT$$GT$17h61174ae9211d439eE', symObjAddr: 0x9FC0, symBinAddr: 0x28710, symSize: 0x90 }
  - { offsetInCU: 0x2E5B8, offset: 0xC4AD7, size: 0x8, addend: 0x0, symName: '__ZN4core3ptr65drop_in_place$LT$alloc..vec..Vec$LT$proc_macro..TokenTree$GT$$GT$17h3cc592fdbb1600b7E', symObjAddr: 0xA050, symBinAddr: 0x287A0, symSize: 0x110 }
  - { offsetInCU: 0x2E9B0, offset: 0xC4ECF, size: 0x8, addend: 0x0, symName: '__ZN4core3ptr65drop_in_place$LT$core..option..Option$LT$syn..expr..Label$GT$$GT$17heefd36b73aa6dbbbE', symObjAddr: 0xA160, symBinAddr: 0x288B0, symSize: 0x30 }
  - { offsetInCU: 0x2EAEA, offset: 0xC5009, size: 0x8, addend: 0x0, symName: '__ZN4core3ptr66drop_in_place$LT$alloc..vec..Vec$LT$syn..item..ForeignItem$GT$$GT$17h719981f79056ec03E', symObjAddr: 0xA190, symBinAddr: 0x288E0, symSize: 0x80 }
  - { offsetInCU: 0x2EDA2, offset: 0xC52C1, size: 0x8, addend: 0x0, symName: '__ZN4core3ptr66drop_in_place$LT$core..option..Option$LT$syn..pat..PatRest$GT$$GT$17h122af7de33a39a61E', symObjAddr: 0xA210, symBinAddr: 0x28960, symSize: 0xE0 }
  - { offsetInCU: 0x2F077, offset: 0xC5596, size: 0x8, addend: 0x0, symName: '__ZN4core3ptr66drop_in_place$LT$wasm_bindgen_backend..ast..ImportFunctionKind$GT$17h24a7e91435df59efE', symObjAddr: 0xA2F0, symBinAddr: 0x28A40, symSize: 0x90 }
  - { offsetInCU: 0x2F308, offset: 0xC5827, size: 0x8, addend: 0x0, symName: '__ZN4core3ptr67drop_in_place$LT$alloc..boxed..Box$LT$syn..expr..FieldValue$GT$$GT$17h67591aed16e5fd17E', symObjAddr: 0xA380, symBinAddr: 0x28AD0, symSize: 0x140 }
  - { offsetInCU: 0x2F83D, offset: 0xC5D5C, size: 0x8, addend: 0x0, symName: '__ZN4core3ptr68drop_in_place$LT$alloc..boxed..Box$LT$syn..path..PathSegment$GT$$GT$17h7d0321f5cdfba0dbE', symObjAddr: 0xA4C0, symBinAddr: 0x28C10, symSize: 0x1B0 }
  - { offsetInCU: 0x2FF6A, offset: 0xC6489, size: 0x8, addend: 0x0, symName: '__ZN4core3ptr68drop_in_place$LT$core..option..Option$LT$syn..item..Variadic$GT$$GT$17he52ff5ef75a791c9E', symObjAddr: 0xA670, symBinAddr: 0x28DC0, symSize: 0x120 }
  - { offsetInCU: 0x30409, offset: 0xC6928, size: 0x8, addend: 0x0, symName: '__ZN4core3ptr69drop_in_place$LT$wasm_bindgen_macro_support..parser..BindgenAttrs$GT$17hde3159e8ba1f37b1E', symObjAddr: 0xA790, symBinAddr: 0x28EE0, symSize: 0xD0 }
  - { offsetInCU: 0x30737, offset: 0xC6C56, size: 0x8, addend: 0x0, symName: '__ZN4core3ptr70drop_in_place$LT$core..option..Option$LT$syn..ty..BareVariadic$GT$$GT$17hca3e4002aff8883fE', symObjAddr: 0xA860, symBinAddr: 0x28FB0, symSize: 0x100 }
  - { offsetInCU: 0x30B6E, offset: 0xC708D, size: 0x8, addend: 0x0, symName: '__ZN4core3ptr72drop_in_place$LT$alloc..boxed..Box$LT$syn..path..GenericArgument$GT$$GT$17h85ff28da2594c421E', symObjAddr: 0xA960, symBinAddr: 0x290B0, symSize: 0x1D0 }
  - { offsetInCU: 0x31109, offset: 0xC7628, size: 0x8, addend: 0x0, symName: '__ZN4core3ptr72drop_in_place$LT$core..option..Option$LT$syn..lifetime..Lifetime$GT$$GT$17hfee4ffb29eba4fc9E', symObjAddr: 0xAB30, symBinAddr: 0x29280, symSize: 0x30 }
  - { offsetInCU: 0x31224, offset: 0xC7743, size: 0x8, addend: 0x0, symName: '__ZN4core3ptr73drop_in_place$LT$alloc..boxed..Box$LT$syn..generics..GenericParam$GT$$GT$17hce03ddb06f310207E', symObjAddr: 0xAB60, symBinAddr: 0x292B0, symSize: 0x80 }
  - { offsetInCU: 0x3139A, offset: 0xC78B9, size: 0x8, addend: 0x0, symName: '__ZN4core3ptr75drop_in_place$LT$alloc..boxed..Box$LT$syn..generics..TypeParamBound$GT$$GT$17h9abbd9006a1d5cd9E', symObjAddr: 0xABE0, symBinAddr: 0x29330, symSize: 0xC0 }
  - { offsetInCU: 0x3170D, offset: 0xC7C2C, size: 0x8, addend: 0x0, symName: '__ZN4core3ptr75drop_in_place$LT$core..option..Option$LT$syn..generics..WhereClause$GT$$GT$17h40f934b6c21d874fE', symObjAddr: 0xACA0, symBinAddr: 0x293F0, symSize: 0x90 }
  - { offsetInCU: 0x319A4, offset: 0xC7EC3, size: 0x8, addend: 0x0, symName: '__ZN4core3ptr78drop_in_place$LT$alloc..vec..Vec$LT$wasm_bindgen_backend..ast..Variant$GT$$GT$17ha0c1ecdfc2325c32E', symObjAddr: 0xAD30, symBinAddr: 0x29480, symSize: 0x60 }
  - { offsetInCU: 0x31BD1, offset: 0xC80F0, size: 0x8, addend: 0x0, symName: '__ZN4core3ptr82drop_in_place$LT$alloc..vec..Vec$LT$wasm_bindgen_backend..ast..StructField$GT$$GT$17hb4a8810f4cf842baE', symObjAddr: 0xAD90, symBinAddr: 0x294E0, symSize: 0xD0 }
  - { offsetInCU: 0x31E91, offset: 0xC83B0, size: 0x8, addend: 0x0, symName: '__ZN4core3ptr83drop_in_place$LT$alloc..vec..Vec$LT$wasm_bindgen_backend..error..Diagnostic$GT$$GT$17hf8e317aad1a798c5E', symObjAddr: 0xAE60, symBinAddr: 0x295B0, symSize: 0xD0 }
  - { offsetInCU: 0x321B0, offset: 0xC86CF, size: 0x8, addend: 0x0, symName: '__ZN4core3ptr86drop_in_place$LT$syn..punctuated..Punctuated$LT$syn..pat..Pat$C$syn..token..Or$GT$$GT$17h7580e44fbb73d60bE', symObjAddr: 0xAF30, symBinAddr: 0x29680, symSize: 0x120 }
  - { offsetInCU: 0x3262B, offset: 0xC8B4A, size: 0x8, addend: 0x0, symName: '__ZN4core3ptr87drop_in_place$LT$core..option..Option$LT$alloc..boxed..Box$LT$syn..pat..Pat$GT$$GT$$GT$17h0af17f6f14c9379aE', symObjAddr: 0xB050, symBinAddr: 0x297A0, symSize: 0x50 }
  - { offsetInCU: 0x3279B, offset: 0xC8CBA, size: 0x8, addend: 0x0, symName: '__ZN4core3ptr87drop_in_place$LT$core..option..Option$LT$alloc..boxed..Box$LT$syn..ty..Type$GT$$GT$$GT$17h115b882e05437c86E', symObjAddr: 0xB0A0, symBinAddr: 0x297F0, symSize: 0x50 }
  - { offsetInCU: 0x3290B, offset: 0xC8E2A, size: 0x8, addend: 0x0, symName: '__ZN4core3ptr88drop_in_place$LT$core..option..Option$LT$wasm_bindgen_backend..ast..ImportModule$GT$$GT$17h781d226bf135ff07E', symObjAddr: 0xB0F0, symBinAddr: 0x29840, symSize: 0x30 }
  - { offsetInCU: 0x32A2D, offset: 0xC8F4C, size: 0x8, addend: 0x0, symName: '__ZN4core3ptr89drop_in_place$LT$core..option..Option$LT$alloc..boxed..Box$LT$syn..expr..Expr$GT$$GT$$GT$17he3e67d25883b4389E', symObjAddr: 0xB120, symBinAddr: 0x29870, symSize: 0x50 }
  - { offsetInCU: 0x32BDB, offset: 0xC90FA, size: 0x8, addend: 0x0, symName: '__ZN4core3ptr89drop_in_place$LT$syn..punctuated..Punctuated$LT$syn..pat..Pat$C$syn..token..Comma$GT$$GT$17hd0f680a310102099E', symObjAddr: 0xB170, symBinAddr: 0x298C0, symSize: 0x120 }
  - { offsetInCU: 0x3306D, offset: 0xC958C, size: 0x8, addend: 0x0, symName: '__ZN4core3ptr89drop_in_place$LT$syn..punctuated..Punctuated$LT$syn..ty..Type$C$syn..token..Comma$GT$$GT$17h3e0bdfd750c7e7c3E', symObjAddr: 0xB290, symBinAddr: 0x299E0, symSize: 0x120 }
  - { offsetInCU: 0x33526, offset: 0xC9A45, size: 0x8, addend: 0x0, symName: '__ZN4core3ptr90drop_in_place$LT$core..option..Option$LT$alloc..boxed..Box$LT$syn..data..Field$GT$$GT$$GT$17h77597b41f3489811E', symObjAddr: 0xB3B0, symBinAddr: 0x29B00, symSize: 0x1B0 }
  - { offsetInCU: 0x33C41, offset: 0xCA160, size: 0x8, addend: 0x0, symName: '__ZN4core3ptr90drop_in_place$LT$core..option..Option$LT$alloc..boxed..Box$LT$syn..item..FnArg$GT$$GT$$GT$17h20030a0d77da3dbdE', symObjAddr: 0xB560, symBinAddr: 0x29CB0, symSize: 0x250 }
  - { offsetInCU: 0x34631, offset: 0xCAB50, size: 0x8, addend: 0x0, symName: '__ZN4core3ptr90drop_in_place$LT$core..option..Option$LT$syn..path..AngleBracketedGenericArguments$GT$$GT$17h6bb71941a5735759E', symObjAddr: 0xB7B0, symBinAddr: 0x29F00, symSize: 0x130 }
  - { offsetInCU: 0x34AD3, offset: 0xCAFF2, size: 0x8, addend: 0x0, symName: '__ZN4core3ptr91drop_in_place$LT$syn..punctuated..Punctuated$LT$syn..expr..Expr$C$syn..token..Comma$GT$$GT$17h2f01a48d43db64beE', symObjAddr: 0xB8E0, symBinAddr: 0x2A030, symSize: 0x120 }
  - { offsetInCU: 0x34F61, offset: 0xCB480, size: 0x8, addend: 0x0, symName: '__ZN4core3ptr92drop_in_place$LT$core..option..Option$LT$$LP$syn..token..As$C$proc_macro2..Ident$RP$$GT$$GT$17h113ea65848cdfa7dE', symObjAddr: 0xBA00, symBinAddr: 0x2A150, symSize: 0x30 }
  - { offsetInCU: 0x350F8, offset: 0xCB617, size: 0x8, addend: 0x0, symName: '__ZN4core3ptr92drop_in_place$LT$core..option..Option$LT$alloc..boxed..Box$LT$syn..data..Variant$GT$$GT$$GT$17h2ccdf3e306621abcE', symObjAddr: 0xBA30, symBinAddr: 0x2A180, symSize: 0x170 }
  - { offsetInCU: 0x35693, offset: 0xCBBB2, size: 0x8, addend: 0x0, symName: '__ZN4core3ptr92drop_in_place$LT$syn..punctuated..Punctuated$LT$syn..item..FnArg$C$syn..token..Comma$GT$$GT$17h96e6da634d2aecfdE', symObjAddr: 0xBBA0, symBinAddr: 0x2A2F0, symSize: 0xE0 }
  - { offsetInCU: 0x3598E, offset: 0xCBEAD, size: 0x8, addend: 0x0, symName: '__ZN4core3ptr93drop_in_place$LT$core..option..Option$LT$alloc..vec..Vec$LT$alloc..string..String$GT$$GT$$GT$17h4fbad2368bbe2fbaE', symObjAddr: 0xBC80, symBinAddr: 0x2A3D0, symSize: 0x80 }
  - { offsetInCU: 0x35C1E, offset: 0xCC13D, size: 0x8, addend: 0x0, symName: '__ZN4core3ptr94drop_in_place$LT$syn..punctuated..Punctuated$LT$syn..data..Variant$C$syn..token..Comma$GT$$GT$17he3434ef9d715c40fE', symObjAddr: 0xBD00, symBinAddr: 0x2A450, symSize: 0xE0 }
  - { offsetInCU: 0x35F21, offset: 0xCC440, size: 0x8, addend: 0x0, symName: '__ZN4core3ptr94drop_in_place$LT$syn..punctuated..Punctuated$LT$syn..pat..FieldPat$C$syn..token..Comma$GT$$GT$17h1420eba3f01509f6E', symObjAddr: 0xBDE0, symBinAddr: 0x2A530, symSize: 0xF0 }
  - { offsetInCU: 0x36220, offset: 0xCC73F, size: 0x8, addend: 0x0, symName: '__ZN4core3ptr94drop_in_place$LT$syn..punctuated..Punctuated$LT$syn..ty..BareFnArg$C$syn..token..Comma$GT$$GT$17h96c674e9d142553fE', symObjAddr: 0xBED0, symBinAddr: 0x2A620, symSize: 0xF0 }
  - { offsetInCU: 0x36521, offset: 0xCCA40, size: 0x8, addend: 0x0, symName: '__ZN4core3ptr96drop_in_place$LT$core..option..Option$LT$alloc..boxed..Box$LT$syn..path..PathSegment$GT$$GT$$GT$17hcd3eda3806df5f3aE', symObjAddr: 0xBFC0, symBinAddr: 0x2A710, symSize: 0xA0 }
  - { offsetInCU: 0x367A0, offset: 0xCCCBF, size: 0x8, addend: 0x0, symName: '__ZN4core3ptr97drop_in_place$LT$syn..punctuated..Punctuated$LT$syn..expr..FieldValue$C$syn..token..Comma$GT$$GT$17hd26eb8b5d8a23419E', symObjAddr: 0xC060, symBinAddr: 0x2A7B0, symSize: 0xF0 }
  - { offsetInCU: 0x36A9D, offset: 0xCCFBC, size: 0x8, addend: 0x0, symName: '__ZN4core3ptr98drop_in_place$LT$alloc..vec..Vec$LT$$LP$syn..path..GenericArgument$C$syn..token..Comma$RP$$GT$$GT$17hea1d5c3a538d7748E', symObjAddr: 0xC150, symBinAddr: 0x2A8A0, symSize: 0xD0 }
  - { offsetInCU: 0x36DDD, offset: 0xCD2FC, size: 0x8, addend: 0x0, symName: '__ZN4core3ptr98drop_in_place$LT$syn..punctuated..Punctuated$LT$syn..lifetime..Lifetime$C$syn..token..Plus$GT$$GT$17hb40bd2b31d61c61aE', symObjAddr: 0xC220, symBinAddr: 0x2A970, symSize: 0xD0 }
  - { offsetInCU: 0x3807C, offset: 0xCE59B, size: 0x8, addend: 0x0, symName: '__ZN53_$LT$core..fmt..Error$u20$as$u20$core..fmt..Debug$GT$3fmt17h03dc662ab152f3aeE', symObjAddr: 0xC440, symBinAddr: 0x2AB80, symSize: 0x20 }
  - { offsetInCU: 0x4550C, offset: 0xDBA2B, size: 0x8, addend: 0x0, symName: '__ZN4core6option15Option$LT$T$GT$11map_or_else17hd8012a63db09ce55E', symObjAddr: 0xC2F0, symBinAddr: 0x2AA40, symSize: 0xA0 }
  - { offsetInCU: 0x45819, offset: 0xDBD38, size: 0x8, addend: 0x0, symName: '__ZN52_$LT$$RF$T$u20$as$u20$quote..to_tokens..ToTokens$GT$9to_tokens17h3a117d5367fb528bE', symObjAddr: 0xC390, symBinAddr: 0x2AAE0, symSize: 0x10 }
  - { offsetInCU: 0x4586F, offset: 0xDBD8E, size: 0x8, addend: 0x0, symName: __ZN5quote9to_tokens8ToTokens15to_token_stream17h292e25deed74aba5E, symObjAddr: 0xC670, symBinAddr: 0x2ADB0, symSize: 0x70 }
  - { offsetInCU: 0x458C2, offset: 0xDBDE1, size: 0x8, addend: 0x0, symName: __ZN5quote9to_tokens8ToTokens15to_token_stream17h35c7a77d291bcbe3E, symObjAddr: 0xC6E0, symBinAddr: 0x2AE20, symSize: 0x70 }
  - { offsetInCU: 0x45915, offset: 0xDBE34, size: 0x8, addend: 0x0, symName: __ZN5quote9to_tokens8ToTokens15to_token_stream17h76281b465b070b18E, symObjAddr: 0xC750, symBinAddr: 0x2AE90, symSize: 0x70 }
  - { offsetInCU: 0x45968, offset: 0xDBE87, size: 0x8, addend: 0x0, symName: __ZN5quote9to_tokens8ToTokens15to_token_stream17h813e8434ccf72015E, symObjAddr: 0xC7C0, symBinAddr: 0x2AF00, symSize: 0x70 }
  - { offsetInCU: 0x459BB, offset: 0xDBEDA, size: 0x8, addend: 0x0, symName: __ZN5quote9to_tokens8ToTokens15to_token_stream17h822da060ea90f532E, symObjAddr: 0xC830, symBinAddr: 0x2AF70, symSize: 0x70 }
  - { offsetInCU: 0x45A0E, offset: 0xDBF2D, size: 0x8, addend: 0x0, symName: __ZN5quote9to_tokens8ToTokens15to_token_stream17hce8130a5e5d532acE, symObjAddr: 0xC8A0, symBinAddr: 0x2AFE0, symSize: 0x70 }
  - { offsetInCU: 0x45A61, offset: 0xDBF80, size: 0x8, addend: 0x0, symName: __ZN5quote9to_tokens8ToTokens15to_token_stream17hff1bdca17da8822aE, symObjAddr: 0xC910, symBinAddr: 0x2B050, symSize: 0x70 }
  - { offsetInCU: 0x45E2D, offset: 0xDC34C, size: 0x8, addend: 0x0, symName: '__ZN5alloc3vec16Vec$LT$T$C$A$GT$4push17h4733abbd09c5c7eeE', symObjAddr: 0xC600, symBinAddr: 0x2AD40, symSize: 0x70 }
  - { offsetInCU: 0x45FD2, offset: 0xDC4F1, size: 0x8, addend: 0x0, symName: '__ZN207_$LT$$RF$mut$u20$syn..item..ItemStruct$u20$as$u20$wasm_bindgen_macro_support..parser..ConvertToAst$LT$$LP$$RF$wasm_bindgen_backend..ast..Program$C$wasm_bindgen_macro_support..parser..BindgenAttrs$RP$$GT$$GT$7convert17hb11f9b9b40d89dedE', symObjAddr: 0xC9A0, symBinAddr: 0x2B0E0, symSize: 0x15D0 }
  - { offsetInCU: 0x4A723, offset: 0xE0C42, size: 0x8, addend: 0x0, symName: '__ZN272_$LT$syn..item..ForeignItemFn$u20$as$u20$wasm_bindgen_macro_support..parser..ConvertToAst$LT$$LP$$RF$wasm_bindgen_backend..ast..Program$C$wasm_bindgen_macro_support..parser..BindgenAttrs$C$$RF$core..option..Option$LT$wasm_bindgen_backend..ast..ImportModule$GT$$RP$$GT$$GT$7convert17ha01cac139436ee08E', symObjAddr: 0xDF70, symBinAddr: 0x2C6B0, symSize: 0x2010 }
  - { offsetInCU: 0x500BA, offset: 0xE65D9, size: 0x8, addend: 0x0, symName: '__ZN200_$LT$syn..item..ForeignItemType$u20$as$u20$wasm_bindgen_macro_support..parser..ConvertToAst$LT$$LP$$RF$wasm_bindgen_backend..ast..Program$C$wasm_bindgen_macro_support..parser..BindgenAttrs$RP$$GT$$GT$7convert17h9e5148ff5be0fc35E', symObjAddr: 0xFF80, symBinAddr: 0x2E6C0, symSize: 0xB60 }
  - { offsetInCU: 0x51C19, offset: 0xE8138, size: 0x8, addend: 0x0, symName: '__ZN276_$LT$syn..item..ForeignItemStatic$u20$as$u20$wasm_bindgen_macro_support..parser..ConvertToAst$LT$$LP$$RF$wasm_bindgen_backend..ast..Program$C$wasm_bindgen_macro_support..parser..BindgenAttrs$C$$RF$core..option..Option$LT$wasm_bindgen_backend..ast..ImportModule$GT$$RP$$GT$$GT$7convert17ha0f475c17d6e8cacE', symObjAddr: 0x10AE0, symBinAddr: 0x2F220, symSize: 0x8F0 }
  - { offsetInCU: 0x5385B, offset: 0xE9D7A, size: 0x8, addend: 0x0, symName: '__ZN142_$LT$syn..item..ItemFn$u20$as$u20$wasm_bindgen_macro_support..parser..ConvertToAst$LT$wasm_bindgen_macro_support..parser..BindgenAttrs$GT$$GT$7convert17hb526b5d8d5a67faeE', symObjAddr: 0x113D0, symBinAddr: 0x2FB10, symSize: 0x790 }
  - { offsetInCU: 0x54D9F, offset: 0xEB2BE, size: 0x8, addend: 0x0, symName: '__ZN213_$LT$syn..item..Item$u20$as$u20$wasm_bindgen_macro_support..parser..MacroParse$LT$$LP$core..option..Option$LT$wasm_bindgen_macro_support..parser..BindgenAttrs$GT$$C$$RF$mut$u20$proc_macro2..TokenStream$RP$$GT$$GT$11macro_parse17h85649637c6086eddE', symObjAddr: 0x11B60, symBinAddr: 0x302A0, symSize: 0x1F30 }
  - { offsetInCU: 0x576D7, offset: 0xEDBF6, size: 0x8, addend: 0x0, symName: '__ZN154_$LT$$RF$mut$u20$syn..item..ItemImpl$u20$as$u20$wasm_bindgen_macro_support..parser..MacroParse$LT$wasm_bindgen_macro_support..parser..BindgenAttrs$GT$$GT$11macro_parse17hdd323d2b916b139dE', symObjAddr: 0x13A90, symBinAddr: 0x321D0, symSize: 0x700 }
  - { offsetInCU: 0x58DAD, offset: 0xEF2CC, size: 0x8, addend: 0x0, symName: '__ZN151_$LT$$RF$mut$u20$syn..item..ImplItemFn$u20$as$u20$wasm_bindgen_macro_support..parser..MacroParse$LT$$RF$wasm_bindgen_macro_support..ClassMarker$GT$$GT$11macro_parse17h86a4ff2dd7559b7cE', symObjAddr: 0x14190, symBinAddr: 0x328D0, symSize: 0xB90 }
  - { offsetInCU: 0x5A1E3, offset: 0xF0702, size: 0x8, addend: 0x0, symName: '__ZN189_$LT$syn..item..ItemEnum$u20$as$u20$wasm_bindgen_macro_support..parser..MacroParse$LT$$LP$$RF$mut$u20$proc_macro2..TokenStream$C$wasm_bindgen_macro_support..parser..BindgenAttrs$RP$$GT$$GT$11macro_parse17h95e8133d931732e6E', symObjAddr: 0x14D20, symBinAddr: 0x33460, symSize: 0x1230 }
  - { offsetInCU: 0x5D6E3, offset: 0xF3C02, size: 0x8, addend: 0x0, symName: '__ZN143_$LT$syn..item..ItemConst$u20$as$u20$wasm_bindgen_macro_support..parser..MacroParse$LT$wasm_bindgen_macro_support..parser..BindgenAttrs$GT$$GT$11macro_parse17hd7ccbefecec0fc98E', symObjAddr: 0x15F50, symBinAddr: 0x34690, symSize: 0x360 }
  - { offsetInCU: 0x5E80F, offset: 0xF4D2E, size: 0x8, addend: 0x0, symName: '__ZN148_$LT$syn..item..ItemForeignMod$u20$as$u20$wasm_bindgen_macro_support..parser..MacroParse$LT$wasm_bindgen_macro_support..parser..BindgenAttrs$GT$$GT$11macro_parse17h381eb210653d4c55E', symObjAddr: 0x162B0, symBinAddr: 0x349F0, symSize: 0xCB0 }
  - { offsetInCU: 0x60A56, offset: 0xF6F75, size: 0x8, addend: 0x0, symName: '__ZN147_$LT$syn..item..ForeignItem$u20$as$u20$wasm_bindgen_macro_support..parser..MacroParse$LT$wasm_bindgen_macro_support..parser..ForeignItemCtx$GT$$GT$11macro_parse17hcec68206231f1b2bE', symObjAddr: 0x16F60, symBinAddr: 0x356A0, symSize: 0xC81 }
  - { offsetInCU: 0x1E, offset: 0x103FCB, size: 0x8, addend: 0x0, symName: '__ZN100_$LT$syn..punctuated..PrivateIter$LT$T$C$P$GT$$u20$as$u20$core..iter..traits..iterator..Iterator$GT$4next17h99a20ef1fa8b1fccE.llvm.5866780211798408126', symObjAddr: 0x0, symBinAddr: 0x36330, symSize: 0x30 }
  - { offsetInCU: 0x91A, offset: 0x1048C7, size: 0x8, addend: 0x0, symName: '__ZN100_$LT$syn..punctuated..PrivateIter$LT$T$C$P$GT$$u20$as$u20$core..iter..traits..iterator..Iterator$GT$4next17h99a20ef1fa8b1fccE.llvm.5866780211798408126', symObjAddr: 0x0, symBinAddr: 0x36330, symSize: 0x30 }
  - { offsetInCU: 0xBA7, offset: 0x104B54, size: 0x8, addend: 0x0, symName: '__ZN100_$LT$syn..punctuated..PrivateIter$LT$T$C$P$GT$$u20$as$u20$core..iter..traits..iterator..Iterator$GT$4next17hdb27debdb5b7a384E.llvm.5866780211798408126', symObjAddr: 0x30, symBinAddr: 0x36360, symSize: 0x30 }
  - { offsetInCU: 0xE34, offset: 0x104DE1, size: 0x8, addend: 0x0, symName: '__ZN100_$LT$syn..punctuated..PrivateIter$LT$T$C$P$GT$$u20$as$u20$core..iter..traits..iterator..Iterator$GT$4next17hf8a8e5f4e34e2db2E.llvm.5866780211798408126', symObjAddr: 0x60, symBinAddr: 0x36390, symSize: 0x30 }
  - { offsetInCU: 0x1309, offset: 0x1052B6, size: 0x8, addend: 0x0, symName: '__ZN102_$LT$syn..punctuated..Punctuated$LT$T$C$P$GT$$u20$as$u20$core..iter..traits..collect..IntoIterator$GT$9into_iter17h68799461092edca2E', symObjAddr: 0x90, symBinAddr: 0x363C0, symSize: 0x2D0 }
  - { offsetInCU: 0x2006, offset: 0x105FB3, size: 0x8, addend: 0x0, symName: '__ZN102_$LT$syn..punctuated..Punctuated$LT$T$C$P$GT$$u20$as$u20$core..iter..traits..collect..IntoIterator$GT$9into_iter17hcc9d34d831427230E', symObjAddr: 0x360, symBinAddr: 0x36690, symSize: 0x2D0 }
  - { offsetInCU: 0x2D03, offset: 0x106CB0, size: 0x8, addend: 0x0, symName: '__ZN111_$LT$syn..punctuated..PrivateIter$LT$T$C$P$GT$$u20$as$u20$core..iter..traits..exact_size..ExactSizeIterator$GT$3len17h7d57d14d693b1ae2E.llvm.5866780211798408126', symObjAddr: 0x630, symBinAddr: 0x36960, symSize: 0x30 }
  - { offsetInCU: 0x2DCE, offset: 0x106D7B, size: 0x8, addend: 0x0, symName: '__ZN111_$LT$syn..punctuated..PrivateIter$LT$T$C$P$GT$$u20$as$u20$core..iter..traits..exact_size..ExactSizeIterator$GT$3len17hbf555124f3d43fd0E.llvm.5866780211798408126', symObjAddr: 0x660, symBinAddr: 0x36990, symSize: 0x30 }
  - { offsetInCU: 0x2FA0, offset: 0x106F4D, size: 0x8, addend: 0x0, symName: '__ZN115_$LT$syn..punctuated..PrivateIter$LT$T$C$P$GT$$u20$as$u20$core..iter..traits..double_ended..DoubleEndedIterator$GT$9next_back17h17e3cd2692569161E.llvm.5866780211798408126', symObjAddr: 0x6F0, symBinAddr: 0x369C0, symSize: 0x30 }
  - { offsetInCU: 0x3250, offset: 0x1071FD, size: 0x8, addend: 0x0, symName: '__ZN115_$LT$syn..punctuated..PrivateIter$LT$T$C$P$GT$$u20$as$u20$core..iter..traits..double_ended..DoubleEndedIterator$GT$9next_back17hf5801256591ed316E.llvm.5866780211798408126', symObjAddr: 0x720, symBinAddr: 0x369F0, symSize: 0x30 }
  - { offsetInCU: 0x3C39, offset: 0x107BE6, size: 0x8, addend: 0x0, symName: '__ZN57_$LT$I$u20$as$u20$syn..punctuated..IterTrait$LT$T$GT$$GT$9clone_box17h8981295daac4e3a4E.llvm.5866780211798408126', symObjAddr: 0x9340, symBinAddr: 0x3EF30, symSize: 0x60 }
  - { offsetInCU: 0x3E46, offset: 0x107DF3, size: 0x8, addend: 0x0, symName: '__ZN57_$LT$I$u20$as$u20$syn..punctuated..IterTrait$LT$T$GT$$GT$9clone_box17had383963835ead3aE.llvm.5866780211798408126', symObjAddr: 0x93A0, symBinAddr: 0x3EF90, symSize: 0x60 }
  - { offsetInCU: 0xB925, offset: 0x10F8D2, size: 0x8, addend: 0x0, symName: '__ZN4core3ptr100drop_in_place$LT$core..option..Option$LT$alloc..boxed..Box$LT$syn..path..GenericArgument$GT$$GT$$GT$17h57a5558e267c0aa5E.llvm.5866780211798408126', symObjAddr: 0x10A0, symBinAddr: 0x36F10, symSize: 0x50 }
  - { offsetInCU: 0xBCC3, offset: 0x10FC70, size: 0x8, addend: 0x0, symName: '__ZN4core3ptr100drop_in_place$LT$syn..punctuated..Punctuated$LT$syn..path..PathSegment$C$syn..token..PathSep$GT$$GT$17h8f618be881a86ee0E', symObjAddr: 0x10F0, symBinAddr: 0x36F60, symSize: 0x270 }
  - { offsetInCU: 0xC666, offset: 0x110613, size: 0x8, addend: 0x0, symName: '__ZN4core3ptr103drop_in_place$LT$core..option..Option$LT$alloc..boxed..Box$LT$syn..generics..TypeParamBound$GT$$GT$$GT$17hd35dab8117a0a53fE', symObjAddr: 0x1360, symBinAddr: 0x371D0, symSize: 0x50 }
  - { offsetInCU: 0xC871, offset: 0x11081E, size: 0x8, addend: 0x0, symName: '__ZN4core3ptr103drop_in_place$LT$syn..punctuated..Punctuated$LT$syn..generics..GenericParam$C$syn..token..Comma$GT$$GT$17h7f466bbfdffc79f8E', symObjAddr: 0x13B0, symBinAddr: 0x37220, symSize: 0xF0 }
  - { offsetInCU: 0xCD6C, offset: 0x110D19, size: 0x8, addend: 0x0, symName: '__ZN4core3ptr104drop_in_place$LT$syn..punctuated..Punctuated$LT$syn..generics..TypeParamBound$C$syn..token..Plus$GT$$GT$17h94179c83f1bdbd23E', symObjAddr: 0x14A0, symBinAddr: 0x37310, symSize: 0x190 }
  - { offsetInCU: 0xD370, offset: 0x11131D, size: 0x8, addend: 0x0, symName: '__ZN4core3ptr119drop_in_place$LT$alloc..vec..Vec$LT$$LP$wasm_bindgen_macro_support..parser..BindgenAttr$C$syn..token..Comma$RP$$GT$$GT$17h4e60021ac34db129E.llvm.5866780211798408126', symObjAddr: 0x1630, symBinAddr: 0x374A0, symSize: 0xD0 }
  - { offsetInCU: 0xD687, offset: 0x111634, size: 0x8, addend: 0x0, symName: '__ZN4core3ptr121drop_in_place$LT$core..option..Option$LT$alloc..boxed..Box$LT$wasm_bindgen_macro_support..parser..BindgenAttr$GT$$GT$$GT$17h8297e89fbe2d0d17E.llvm.5866780211798408126', symObjAddr: 0x1700, symBinAddr: 0x37570, symSize: 0x50 }
  - { offsetInCU: 0xD828, offset: 0x1117D5, size: 0x8, addend: 0x0, symName: '__ZN4core3ptr123drop_in_place$LT$syn..punctuated..Punctuated$LT$wasm_bindgen_macro_support..parser..BindgenAttr$C$syn..token..Comma$GT$$GT$17hc63f9ddc440686c2E', symObjAddr: 0x1750, symBinAddr: 0x375C0, symSize: 0x120 }
  - { offsetInCU: 0xDCD8, offset: 0x111C85, size: 0x8, addend: 0x0, symName: '__ZN4core3ptr126drop_in_place$LT$core..option..Option$LT$$LP$syn..token..And$C$core..option..Option$LT$syn..lifetime..Lifetime$GT$$RP$$GT$$GT$17hb8cf558803387ebcE', symObjAddr: 0x1870, symBinAddr: 0x376E0, symSize: 0x30 }
  - { offsetInCU: 0xDEEB, offset: 0x111E98, size: 0x8, addend: 0x0, symName: '__ZN4core3ptr34drop_in_place$LT$syn..lit..Lit$GT$17hee573645253c1240E', symObjAddr: 0x18A0, symBinAddr: 0x37710, symSize: 0x120 }
  - { offsetInCU: 0xE3D9, offset: 0x112386, size: 0x8, addend: 0x0, symName: '__ZN4core3ptr34drop_in_place$LT$syn..pat..Pat$GT$17h973f87584b174815E', symObjAddr: 0x19C0, symBinAddr: 0x37830, symSize: 0x1090 }
  - { offsetInCU: 0x123BA, offset: 0x116367, size: 0x8, addend: 0x0, symName: '__ZN4core3ptr34drop_in_place$LT$syn..ty..Type$GT$17h3ae90635bb8b5dc2E.llvm.5866780211798408126', symObjAddr: 0x2A50, symBinAddr: 0x388C0, symSize: 0x4F0 }
  - { offsetInCU: 0x138FD, offset: 0x1178AA, size: 0x8, addend: 0x0, symName: '__ZN4core3ptr36drop_in_place$LT$syn..expr..Expr$GT$17hec1898832a7659fcE', symObjAddr: 0x2F40, symBinAddr: 0x38DB0, symSize: 0x27D0 }
  - { offsetInCU: 0x1D031, offset: 0x120FDE, size: 0x8, addend: 0x0, symName: '__ZN4core3ptr36drop_in_place$LT$syn..mac..Macro$GT$17hee38913ef8f169faE', symObjAddr: 0x5710, symBinAddr: 0x3B580, symSize: 0x40 }
  - { offsetInCU: 0x1D06B, offset: 0x121018, size: 0x8, addend: 0x0, symName: '__ZN4core3ptr36drop_in_place$LT$syn..path..Path$GT$17h1bbd58c3d6dc291aE', symObjAddr: 0x5750, symBinAddr: 0x3B5C0, symSize: 0x120 }
  - { offsetInCU: 0x1D4B4, offset: 0x121461, size: 0x8, addend: 0x0, symName: '__ZN4core3ptr37drop_in_place$LT$syn..stmt..Block$GT$17h3a3c4aa9f1407e4cE', symObjAddr: 0x5870, symBinAddr: 0x3B6E0, symSize: 0xD0 }
  - { offsetInCU: 0x1D78B, offset: 0x121738, size: 0x8, addend: 0x0, symName: '__ZN4core3ptr38drop_in_place$LT$syn..expr..Member$GT$17h11f93a48e3da0c5fE', symObjAddr: 0x5940, symBinAddr: 0x3B7B0, symSize: 0x30 }
  - { offsetInCU: 0x1D887, offset: 0x121834, size: 0x8, addend: 0x0, symName: '__ZN4core3ptr39drop_in_place$LT$proc_macro2..Ident$GT$17h78274ef0131bd7beE', symObjAddr: 0x5970, symBinAddr: 0x3B7E0, symSize: 0x30 }
  - { offsetInCU: 0x1D964, offset: 0x121911, size: 0x8, addend: 0x0, symName: '__ZN4core3ptr40drop_in_place$LT$syn..ty..ReturnType$GT$17h5fc392ae06958c38E', symObjAddr: 0x59A0, symBinAddr: 0x3B810, symSize: 0x50 }
  - { offsetInCU: 0x1DAD4, offset: 0x121A81, size: 0x8, addend: 0x0, symName: '__ZN4core3ptr41drop_in_place$LT$syn..expr..ExprConst$GT$17h5c5bfa544cf2da15E', symObjAddr: 0x59F0, symBinAddr: 0x3B860, symSize: 0x180 }
  - { offsetInCU: 0x1E08D, offset: 0x12203A, size: 0x8, addend: 0x0, symName: '__ZN4core3ptr43drop_in_place$LT$syn..path..PathSegment$GT$17h4486ba2c571c5b6fE.llvm.5866780211798408126', symObjAddr: 0x5B70, symBinAddr: 0x3B9E0, symSize: 0x190 }
  - { offsetInCU: 0x1E5F1, offset: 0x12259E, size: 0x8, addend: 0x0, symName: '__ZN4core3ptr44drop_in_place$LT$syn..lifetime..Lifetime$GT$17h6e42d75874321b11E', symObjAddr: 0x5D00, symBinAddr: 0x3BB70, symSize: 0x30 }
  - { offsetInCU: 0x1E823, offset: 0x1227D0, size: 0x8, addend: 0x0, symName: '__ZN4core3ptr45drop_in_place$LT$proc_macro2..TokenStream$GT$17h3de86edc178dbdf7E', symObjAddr: 0x5D30, symBinAddr: 0x3BBA0, symSize: 0x140 }
  - { offsetInCU: 0x1ECBD, offset: 0x122C6A, size: 0x8, addend: 0x0, symName: '__ZN4core3ptr45drop_in_place$LT$syn..generics..TypeParam$GT$17hcf09314885b07e76E', symObjAddr: 0x5E70, symBinAddr: 0x3BCE0, symSize: 0x230 }
  - { offsetInCU: 0x1F4FE, offset: 0x1234AB, size: 0x8, addend: 0x0, symName: '__ZN4core3ptr46drop_in_place$LT$syn..generics..ConstParam$GT$17hc257e156a7125459E', symObjAddr: 0x60A0, symBinAddr: 0x3BF10, symSize: 0x150 }
  - { offsetInCU: 0x1F94B, offset: 0x1238F8, size: 0x8, addend: 0x0, symName: '__ZN4core3ptr47drop_in_place$LT$syn..path..GenericArgument$GT$17h468af66cc22ee749E.llvm.5866780211798408126', symObjAddr: 0x61F0, symBinAddr: 0x3C060, symSize: 0x4A0 }
  - { offsetInCU: 0x20A51, offset: 0x1249FE, size: 0x8, addend: 0x0, symName: '__ZN4core3ptr49drop_in_place$LT$syn..generics..LifetimeParam$GT$17h9ae69bbe86531da0E', symObjAddr: 0x6690, symBinAddr: 0x3C500, symSize: 0xF0 }
  - { offsetInCU: 0x20E34, offset: 0x124DE1, size: 0x8, addend: 0x0, symName: '__ZN4core3ptr50drop_in_place$LT$syn..generics..TypeParamBound$GT$17he4fe30d10954a629E', symObjAddr: 0x6780, symBinAddr: 0x3C5F0, symSize: 0x180 }
  - { offsetInCU: 0x2127E, offset: 0x12522B, size: 0x8, addend: 0x0, symName: '__ZN4core3ptr58drop_in_place$LT$alloc..vec..Vec$LT$syn..expr..Arm$GT$$GT$17h14e2e22a7226ddf8E', symObjAddr: 0x6900, symBinAddr: 0x3C770, symSize: 0xD0 }
  - { offsetInCU: 0x2153E, offset: 0x1254EB, size: 0x8, addend: 0x0, symName: '__ZN4core3ptr59drop_in_place$LT$alloc..boxed..Box$LT$syn..pat..Pat$GT$$GT$17h50d0c33df1b13ff6E', symObjAddr: 0x69D0, symBinAddr: 0x3C840, symSize: 0x50 }
  - { offsetInCU: 0x21697, offset: 0x125644, size: 0x8, addend: 0x0, symName: '__ZN4core3ptr59drop_in_place$LT$alloc..boxed..Box$LT$syn..ty..Type$GT$$GT$17h7bcc4a34581ddba7E.llvm.5866780211798408126', symObjAddr: 0x6A20, symBinAddr: 0x3C890, symSize: 0x50 }
  - { offsetInCU: 0x2180F, offset: 0x1257BC, size: 0x8, addend: 0x0, symName: '__ZN4core3ptr60drop_in_place$LT$alloc..vec..Vec$LT$syn..item..FnArg$GT$$GT$17hfb70df64e6287a52E.llvm.5866780211798408126', symObjAddr: 0x6A70, symBinAddr: 0x3C8E0, symSize: 0xD0 }
  - { offsetInCU: 0x21AE4, offset: 0x125A91, size: 0x8, addend: 0x0, symName: '__ZN4core3ptr61drop_in_place$LT$alloc..boxed..Box$LT$syn..expr..Expr$GT$$GT$17h2f5fb41dd226c4deE', symObjAddr: 0x6B40, symBinAddr: 0x3C9B0, symSize: 0x50 }
  - { offsetInCU: 0x21CB9, offset: 0x125C66, size: 0x8, addend: 0x0, symName: '__ZN4core3ptr61drop_in_place$LT$syn..path..ParenthesizedGenericArguments$GT$17h490a82a7318211d4E.llvm.5866780211798408126', symObjAddr: 0x6B90, symBinAddr: 0x3CA00, symSize: 0x170 }
  - { offsetInCU: 0x222AF, offset: 0x12625C, size: 0x8, addend: 0x0, symName: '__ZN4core3ptr62drop_in_place$LT$syn..path..AngleBracketedGenericArguments$GT$17h1669e24b2478d11dE.llvm.5866780211798408126', symObjAddr: 0x6D00, symBinAddr: 0x3CB70, symSize: 0x120 }
  - { offsetInCU: 0x226FA, offset: 0x1266A7, size: 0x8, addend: 0x0, symName: '__ZN4core3ptr63drop_in_place$LT$alloc..boxed..Box$LT$syn..lit..LitRepr$GT$$GT$17h3db95a238b447968E', symObjAddr: 0x6E20, symBinAddr: 0x3CC90, symSize: 0x60 }
  - { offsetInCU: 0x22A01, offset: 0x1269AE, size: 0x8, addend: 0x0, symName: '__ZN4core3ptr64drop_in_place$LT$alloc..boxed..Box$LT$syn..pat..FieldPat$GT$$GT$17h90926d8c1a4ddae4E', symObjAddr: 0x6E80, symBinAddr: 0x3CCF0, symSize: 0x140 }
  - { offsetInCU: 0x230CE, offset: 0x12707B, size: 0x8, addend: 0x0, symName: '__ZN4core3ptr64drop_in_place$LT$alloc..boxed..Box$LT$syn..ty..BareFnArg$GT$$GT$17h0f95c2c81efdd59dE', symObjAddr: 0x6FC0, symBinAddr: 0x3CE30, symSize: 0x140 }
  - { offsetInCU: 0x23623, offset: 0x1275D0, size: 0x8, addend: 0x0, symName: '__ZN4core3ptr65drop_in_place$LT$alloc..vec..Vec$LT$proc_macro..TokenTree$GT$$GT$17h3cc592fdbb1600b7E', symObjAddr: 0x7100, symBinAddr: 0x3CF70, symSize: 0x110 }
  - { offsetInCU: 0x23A1B, offset: 0x1279C8, size: 0x8, addend: 0x0, symName: '__ZN4core3ptr65drop_in_place$LT$core..option..Option$LT$syn..expr..Label$GT$$GT$17heefd36b73aa6dbbbE', symObjAddr: 0x7210, symBinAddr: 0x3D080, symSize: 0x30 }
  - { offsetInCU: 0x23B55, offset: 0x127B02, size: 0x8, addend: 0x0, symName: '__ZN4core3ptr66drop_in_place$LT$core..option..Option$LT$syn..pat..PatRest$GT$$GT$17h122af7de33a39a61E', symObjAddr: 0x7240, symBinAddr: 0x3D0B0, symSize: 0xE0 }
  - { offsetInCU: 0x23E49, offset: 0x127DF6, size: 0x8, addend: 0x0, symName: '__ZN4core3ptr67drop_in_place$LT$alloc..boxed..Box$LT$syn..expr..FieldValue$GT$$GT$17h67591aed16e5fd17E', symObjAddr: 0x7320, symBinAddr: 0x3D190, symSize: 0x140 }
  - { offsetInCU: 0x2437E, offset: 0x12832B, size: 0x8, addend: 0x0, symName: '__ZN4core3ptr68drop_in_place$LT$alloc..boxed..Box$LT$syn..path..PathSegment$GT$$GT$17h7d0321f5cdfba0dbE', symObjAddr: 0x7460, symBinAddr: 0x3D2D0, symSize: 0x1B0 }
  - { offsetInCU: 0x24B08, offset: 0x128AB5, size: 0x8, addend: 0x0, symName: '__ZN4core3ptr68drop_in_place$LT$wasm_bindgen_macro_support..parser..BindgenAttr$GT$17he2d7d5b74e7c4901E.llvm.5866780211798408126', symObjAddr: 0x7610, symBinAddr: 0x3D480, symSize: 0x1B0 }
  - { offsetInCU: 0x24FDE, offset: 0x128F8B, size: 0x8, addend: 0x0, symName: '__ZN4core3ptr70drop_in_place$LT$core..option..Option$LT$syn..ty..BareVariadic$GT$$GT$17hca3e4002aff8883fE', symObjAddr: 0x77C0, symBinAddr: 0x3D630, symSize: 0x100 }
  - { offsetInCU: 0x25415, offset: 0x1293C2, size: 0x8, addend: 0x0, symName: '__ZN4core3ptr72drop_in_place$LT$alloc..boxed..Box$LT$syn..path..GenericArgument$GT$$GT$17h85ff28da2594c421E', symObjAddr: 0x78C0, symBinAddr: 0x3D730, symSize: 0x1D0 }
  - { offsetInCU: 0x259B0, offset: 0x12995D, size: 0x8, addend: 0x0, symName: '__ZN4core3ptr72drop_in_place$LT$core..option..Option$LT$syn..lifetime..Lifetime$GT$$GT$17hfee4ffb29eba4fc9E', symObjAddr: 0x7A90, symBinAddr: 0x3D900, symSize: 0x30 }
  - { offsetInCU: 0x25ACB, offset: 0x129A78, size: 0x8, addend: 0x0, symName: '__ZN4core3ptr73drop_in_place$LT$alloc..boxed..Box$LT$syn..generics..GenericParam$GT$$GT$17hce03ddb06f310207E', symObjAddr: 0x7AC0, symBinAddr: 0x3D930, symSize: 0x80 }
  - { offsetInCU: 0x25C41, offset: 0x129BEE, size: 0x8, addend: 0x0, symName: '__ZN4core3ptr75drop_in_place$LT$alloc..boxed..Box$LT$syn..generics..TypeParamBound$GT$$GT$17h9abbd9006a1d5cd9E', symObjAddr: 0x7B40, symBinAddr: 0x3D9B0, symSize: 0xC0 }
  - { offsetInCU: 0x25F95, offset: 0x129F42, size: 0x8, addend: 0x0, symName: '__ZN4core3ptr86drop_in_place$LT$syn..punctuated..Punctuated$LT$syn..pat..Pat$C$syn..token..Or$GT$$GT$17h7580e44fbb73d60bE', symObjAddr: 0x7C00, symBinAddr: 0x3DA70, symSize: 0x120 }
  - { offsetInCU: 0x26410, offset: 0x12A3BD, size: 0x8, addend: 0x0, symName: '__ZN4core3ptr87drop_in_place$LT$core..option..Option$LT$alloc..boxed..Box$LT$syn..pat..Pat$GT$$GT$$GT$17h0af17f6f14c9379aE', symObjAddr: 0x7D20, symBinAddr: 0x3DB90, symSize: 0x50 }
  - { offsetInCU: 0x26580, offset: 0x12A52D, size: 0x8, addend: 0x0, symName: '__ZN4core3ptr87drop_in_place$LT$core..option..Option$LT$alloc..boxed..Box$LT$syn..ty..Type$GT$$GT$$GT$17h115b882e05437c86E.llvm.5866780211798408126', symObjAddr: 0x7D70, symBinAddr: 0x3DBE0, symSize: 0x50 }
  - { offsetInCU: 0x2670F, offset: 0x12A6BC, size: 0x8, addend: 0x0, symName: '__ZN4core3ptr88drop_in_place$LT$alloc..vec..Vec$LT$$LP$syn..item..FnArg$C$syn..token..Comma$RP$$GT$$GT$17h4390ec2745c6b38cE.llvm.5866780211798408126', symObjAddr: 0x7DC0, symBinAddr: 0x3DC30, symSize: 0xD0 }
  - { offsetInCU: 0x26A0E, offset: 0x12A9BB, size: 0x8, addend: 0x0, symName: '__ZN4core3ptr89drop_in_place$LT$core..option..Option$LT$alloc..boxed..Box$LT$syn..expr..Expr$GT$$GT$$GT$17he3e67d25883b4389E', symObjAddr: 0x7E90, symBinAddr: 0x3DD00, symSize: 0x50 }
  - { offsetInCU: 0x26BBC, offset: 0x12AB69, size: 0x8, addend: 0x0, symName: '__ZN4core3ptr89drop_in_place$LT$syn..punctuated..Punctuated$LT$syn..pat..Pat$C$syn..token..Comma$GT$$GT$17hd0f680a310102099E', symObjAddr: 0x7EE0, symBinAddr: 0x3DD50, symSize: 0x120 }
  - { offsetInCU: 0x2704E, offset: 0x12AFFB, size: 0x8, addend: 0x0, symName: '__ZN4core3ptr89drop_in_place$LT$syn..punctuated..Punctuated$LT$syn..ty..Type$C$syn..token..Comma$GT$$GT$17h3e0bdfd750c7e7c3E', symObjAddr: 0x8000, symBinAddr: 0x3DE70, symSize: 0x120 }
  - { offsetInCU: 0x27545, offset: 0x12B4F2, size: 0x8, addend: 0x0, symName: '__ZN4core3ptr90drop_in_place$LT$core..option..Option$LT$alloc..boxed..Box$LT$syn..item..FnArg$GT$$GT$$GT$17h20030a0d77da3dbdE.llvm.5866780211798408126', symObjAddr: 0x8120, symBinAddr: 0x3DF90, symSize: 0x250 }
  - { offsetInCU: 0x27F35, offset: 0x12BEE2, size: 0x8, addend: 0x0, symName: '__ZN4core3ptr90drop_in_place$LT$core..option..Option$LT$syn..path..AngleBracketedGenericArguments$GT$$GT$17h6bb71941a5735759E', symObjAddr: 0x8370, symBinAddr: 0x3E1E0, symSize: 0x130 }
  - { offsetInCU: 0x283B8, offset: 0x12C365, size: 0x8, addend: 0x0, symName: '__ZN4core3ptr91drop_in_place$LT$alloc..vec..Vec$LT$wasm_bindgen_macro_support..parser..BindgenAttr$GT$$GT$17h43cc4ad66602eeaeE.llvm.5866780211798408126', symObjAddr: 0x84A0, symBinAddr: 0x3E310, symSize: 0xD0 }
  - { offsetInCU: 0x286C9, offset: 0x12C676, size: 0x8, addend: 0x0, symName: '__ZN4core3ptr91drop_in_place$LT$syn..punctuated..Punctuated$LT$syn..expr..Expr$C$syn..token..Comma$GT$$GT$17h2f01a48d43db64beE', symObjAddr: 0x8570, symBinAddr: 0x3E3E0, symSize: 0x120 }
  - { offsetInCU: 0x28B57, offset: 0x12CB04, size: 0x8, addend: 0x0, symName: '__ZN4core3ptr94drop_in_place$LT$syn..punctuated..Punctuated$LT$syn..pat..FieldPat$C$syn..token..Comma$GT$$GT$17h1420eba3f01509f6E', symObjAddr: 0x8690, symBinAddr: 0x3E500, symSize: 0xF0 }
  - { offsetInCU: 0x28E56, offset: 0x12CE03, size: 0x8, addend: 0x0, symName: '__ZN4core3ptr94drop_in_place$LT$syn..punctuated..Punctuated$LT$syn..ty..BareFnArg$C$syn..token..Comma$GT$$GT$17h96c674e9d142553fE', symObjAddr: 0x8780, symBinAddr: 0x3E5F0, symSize: 0xF0 }
  - { offsetInCU: 0x29157, offset: 0x12D104, size: 0x8, addend: 0x0, symName: '__ZN4core3ptr96drop_in_place$LT$core..option..Option$LT$alloc..boxed..Box$LT$syn..path..PathSegment$GT$$GT$$GT$17hcd3eda3806df5f3aE.llvm.5866780211798408126', symObjAddr: 0x8870, symBinAddr: 0x3E6E0, symSize: 0xA0 }
  - { offsetInCU: 0x293D6, offset: 0x12D383, size: 0x8, addend: 0x0, symName: '__ZN4core3ptr97drop_in_place$LT$syn..punctuated..Punctuated$LT$syn..expr..FieldValue$C$syn..token..Comma$GT$$GT$17hd26eb8b5d8a23419E', symObjAddr: 0x8910, symBinAddr: 0x3E780, symSize: 0xF0 }
  - { offsetInCU: 0x296D3, offset: 0x12D680, size: 0x8, addend: 0x0, symName: '__ZN4core3ptr98drop_in_place$LT$alloc..vec..Vec$LT$$LP$syn..path..GenericArgument$C$syn..token..Comma$RP$$GT$$GT$17hea1d5c3a538d7748E', symObjAddr: 0x8A00, symBinAddr: 0x3E870, symSize: 0xD0 }
  - { offsetInCU: 0x29A13, offset: 0x12D9C0, size: 0x8, addend: 0x0, symName: '__ZN4core3ptr98drop_in_place$LT$syn..punctuated..Punctuated$LT$syn..lifetime..Lifetime$C$syn..token..Plus$GT$$GT$17hb40bd2b31d61c61aE', symObjAddr: 0x8AD0, symBinAddr: 0x3E940, symSize: 0xD0 }
  - { offsetInCU: 0x2F861, offset: 0x13380E, size: 0x8, addend: 0x0, symName: __ZN4core4iter6traits8iterator8Iterator10advance_by17hbf08c916bb63d9ffE.llvm.5866780211798408126, symObjAddr: 0x8FE0, symBinAddr: 0x3ECB0, symSize: 0x70 }
  - { offsetInCU: 0x2FB75, offset: 0x133B22, size: 0x8, addend: 0x0, symName: __ZN4core4iter6traits8iterator8Iterator10advance_by17hefeb4b8e35bf666bE.llvm.5866780211798408126, symObjAddr: 0x9050, symBinAddr: 0x3ED20, symSize: 0x70 }
  - { offsetInCU: 0x2FEDA, offset: 0x133E87, size: 0x8, addend: 0x0, symName: __ZN4core4iter6traits8iterator8Iterator3nth17h2ce892c5dda8b56aE.llvm.5866780211798408126, symObjAddr: 0x90C0, symBinAddr: 0x3ED90, symSize: 0x80 }
  - { offsetInCU: 0x304EA, offset: 0x134497, size: 0x8, addend: 0x0, symName: __ZN4core4iter6traits8iterator8Iterator3nth17h57b961f004786fbdE.llvm.5866780211798408126, symObjAddr: 0x9140, symBinAddr: 0x3EE10, symSize: 0x80 }
  - { offsetInCU: 0x30AA9, offset: 0x134A56, size: 0x8, addend: 0x0, symName: __ZN4core4iter6traits8iterator8Iterator9size_hint17h3d2a95c9ecc12a2bE.llvm.5866780211798408126, symObjAddr: 0x9240, symBinAddr: 0x3EE90, symSize: 0x0 }
  - { offsetInCU: 0x30B4E, offset: 0x134AFB, size: 0x8, addend: 0x0, symName: __ZN4core4iter6traits10exact_size17ExactSizeIterator8is_empty17h6e7a7f1c334371beE.llvm.5866780211798408126, symObjAddr: 0x8BA0, symBinAddr: 0x3EA10, symSize: 0x30 }
  - { offsetInCU: 0x30D20, offset: 0x134CCD, size: 0x8, addend: 0x0, symName: __ZN4core4iter6traits10exact_size17ExactSizeIterator8is_empty17hd52d2e255e34bd31E.llvm.5866780211798408126, symObjAddr: 0x8C00, symBinAddr: 0x3EA40, symSize: 0x30 }
  - { offsetInCU: 0x30E98, offset: 0x134E45, size: 0x8, addend: 0x0, symName: __ZN4core4iter6traits12double_ended19DoubleEndedIterator15advance_back_by17h007a0d99bd9220c4E.llvm.5866780211798408126, symObjAddr: 0x8C30, symBinAddr: 0x3EA70, symSize: 0x80 }
  - { offsetInCU: 0x310BA, offset: 0x135067, size: 0x8, addend: 0x0, symName: __ZN4core4iter6traits12double_ended19DoubleEndedIterator15advance_back_by17h77b006dd35e322f0E.llvm.5866780211798408126, symObjAddr: 0x8CB0, symBinAddr: 0x3EAF0, symSize: 0x80 }
  - { offsetInCU: 0x31328, offset: 0x1352D5, size: 0x8, addend: 0x0, symName: __ZN4core4iter6traits12double_ended19DoubleEndedIterator8nth_back17h5fae87bee51a9292E.llvm.5866780211798408126, symObjAddr: 0x8E40, symBinAddr: 0x3EB70, symSize: 0xA0 }
  - { offsetInCU: 0x31813, offset: 0x1357C0, size: 0x8, addend: 0x0, symName: __ZN4core4iter6traits12double_ended19DoubleEndedIterator8nth_back17h7761e490064ca73cE.llvm.5866780211798408126, symObjAddr: 0x8EE0, symBinAddr: 0x3EC10, symSize: 0xA0 }
  - { offsetInCU: 0x352C0, offset: 0x13926D, size: 0x8, addend: 0x0, symName: _anon.738553612dbc943d4aceb8333fbeb34b.9.llvm.5866780211798408126, symObjAddr: 0xAE28, symBinAddr: 0x338E50, symSize: 0x0 }
  - { offsetInCU: 0x353A0, offset: 0x13934D, size: 0x8, addend: 0x0, symName: _anon.738553612dbc943d4aceb8333fbeb34b.12.llvm.5866780211798408126, symObjAddr: 0xAF38, symBinAddr: 0x338F60, symSize: 0x0 }
  - { offsetInCU: 0x366FE, offset: 0x13A6AB, size: 0x8, addend: 0x0, symName: '__ZN3syn10punctuated23Punctuated$LT$T$C$P$GT$10push_value17h0cb9dc4bf4832f1dE', symObjAddr: 0x750, symBinAddr: 0x36A20, symSize: 0xF0 }
  - { offsetInCU: 0x36BD5, offset: 0x13AB82, size: 0x8, addend: 0x0, symName: '__ZN3syn10punctuated23Punctuated$LT$T$C$P$GT$21parse_terminated_with17h10421e6251645610E', symObjAddr: 0x840, symBinAddr: 0x36B10, symSize: 0x390 }
  - { offsetInCU: 0x375D3, offset: 0x13B580, size: 0x8, addend: 0x0, symName: '__ZN3syn10punctuated23Punctuated$LT$T$C$P$GT$4iter17hc05e26246d05eab2E', symObjAddr: 0xC40, symBinAddr: 0x36EA0, symSize: 0x70 }
  - { offsetInCU: 0x39002, offset: 0x13CFAF, size: 0x8, addend: 0x0, symName: '__ZN52_$LT$$RF$T$u20$as$u20$quote..to_tokens..ToTokens$GT$9to_tokens17h3937485701ad3f06E', symObjAddr: 0x9260, symBinAddr: 0x3EEB0, symSize: 0x80 }
  - { offsetInCU: 0x39340, offset: 0x13D2ED, size: 0x8, addend: 0x0, symName: __ZN5quote9to_tokens8ToTokens15to_token_stream17hceb361349307e80dE, symObjAddr: 0x9400, symBinAddr: 0x3EFF0, symSize: 0xD0 }
  - { offsetInCU: 0x1E, offset: 0x1422BE, size: 0x8, addend: 0x0, symName: '__ZN48_$LT$T$u20$as$u20$core..clone..CloneToUninit$GT$15clone_to_uninit17h70518a6f9313332aE', symObjAddr: 0x0, symBinAddr: 0x3F0C0, symSize: 0x330 }
  - { offsetInCU: 0x1FE5, offset: 0x144285, size: 0x8, addend: 0x0, symName: '__ZN4core3ptr100drop_in_place$LT$core..option..Option$LT$alloc..boxed..Box$LT$syn..path..GenericArgument$GT$$GT$$GT$17h57a5558e267c0aa5E', symObjAddr: 0x330, symBinAddr: 0x3F3F0, symSize: 0x50 }
  - { offsetInCU: 0x2326, offset: 0x1445C6, size: 0x8, addend: 0x0, symName: '__ZN4core3ptr100drop_in_place$LT$syn..punctuated..Punctuated$LT$syn..path..PathSegment$C$syn..token..PathSep$GT$$GT$17h8f618be881a86ee0E.llvm.5580126006486427834', symObjAddr: 0x380, symBinAddr: 0x3F440, symSize: 0x1C0 }
  - { offsetInCU: 0x29E3, offset: 0x144C83, size: 0x8, addend: 0x0, symName: '__ZN4core3ptr101drop_in_place$LT$core..option..Option$LT$alloc..boxed..Box$LT$syn..generics..GenericParam$GT$$GT$$GT$17hdcd1b709c2aa3b05E', symObjAddr: 0x540, symBinAddr: 0x3F600, symSize: 0x50 }
  - { offsetInCU: 0x2BCF, offset: 0x144E6F, size: 0x8, addend: 0x0, symName: '__ZN4core3ptr102drop_in_place$LT$syn..punctuated..Punctuated$LT$syn..path..GenericArgument$C$syn..token..Comma$GT$$GT$17h6569f8cea27daa1fE.llvm.5580126006486427834', symObjAddr: 0x590, symBinAddr: 0x3F650, symSize: 0xF0 }
  - { offsetInCU: 0x2EF6, offset: 0x145196, size: 0x8, addend: 0x0, symName: '__ZN4core3ptr103drop_in_place$LT$core..option..Option$LT$alloc..boxed..Box$LT$syn..generics..TypeParamBound$GT$$GT$$GT$17hd35dab8117a0a53fE.llvm.5580126006486427834', symObjAddr: 0x680, symBinAddr: 0x3F740, symSize: 0x50 }
  - { offsetInCU: 0x3085, offset: 0x145325, size: 0x8, addend: 0x0, symName: '__ZN4core3ptr103drop_in_place$LT$core..option..Option$LT$alloc..boxed..Box$LT$syn..generics..WherePredicate$GT$$GT$$GT$17h1bdc11655d4045e2E', symObjAddr: 0x6D0, symBinAddr: 0x3F790, symSize: 0x50 }
  - { offsetInCU: 0x32AF, offset: 0x14554F, size: 0x8, addend: 0x0, symName: '__ZN4core3ptr103drop_in_place$LT$syn..punctuated..Punctuated$LT$syn..generics..GenericParam$C$syn..token..Comma$GT$$GT$17h7f466bbfdffc79f8E.llvm.5580126006486427834', symObjAddr: 0x720, symBinAddr: 0x3F7E0, symSize: 0x1A0 }
  - { offsetInCU: 0x38B6, offset: 0x145B56, size: 0x8, addend: 0x0, symName: '__ZN4core3ptr104drop_in_place$LT$syn..punctuated..Punctuated$LT$syn..generics..TypeParamBound$C$syn..token..Plus$GT$$GT$17h94179c83f1bdbd23E.llvm.5580126006486427834', symObjAddr: 0x8C0, symBinAddr: 0x3F980, symSize: 0x240 }
  - { offsetInCU: 0x424E, offset: 0x1464EE, size: 0x8, addend: 0x0, symName: '__ZN4core3ptr105drop_in_place$LT$syn..punctuated..Punctuated$LT$syn..generics..WherePredicate$C$syn..token..Comma$GT$$GT$17hc3ecc946278fc96aE', symObjAddr: 0xB00, symBinAddr: 0x3FBC0, symSize: 0x1A0 }
  - { offsetInCU: 0x495D, offset: 0x146BFD, size: 0x8, addend: 0x0, symName: '__ZN4core3ptr116drop_in_place$LT$core..option..Option$LT$$LP$syn..token..Else$C$alloc..boxed..Box$LT$syn..expr..Expr$GT$$RP$$GT$$GT$17h2ee2798700e173c6E', symObjAddr: 0xCA0, symBinAddr: 0x3FD60, symSize: 0x50 }
  - { offsetInCU: 0x4B22, offset: 0x146DC2, size: 0x8, addend: 0x0, symName: '__ZN4core3ptr126drop_in_place$LT$core..option..Option$LT$$LP$syn..token..And$C$core..option..Option$LT$syn..lifetime..Lifetime$GT$$RP$$GT$$GT$17hb8cf558803387ebcE', symObjAddr: 0xCF0, symBinAddr: 0x3FDB0, symSize: 0x30 }
  - { offsetInCU: 0x4CD8, offset: 0x146F78, size: 0x8, addend: 0x0, symName: '__ZN4core3ptr130drop_in_place$LT$alloc..vec..Vec$LT$$LP$core..cell..Cell$LT$bool$GT$$C$wasm_bindgen_macro_support..parser..BindgenAttr$RP$$GT$$GT$17h3952dc6755d9e4adE', symObjAddr: 0xD20, symBinAddr: 0x3FDE0, symSize: 0xD0 }
  - { offsetInCU: 0x519C, offset: 0x14743C, size: 0x8, addend: 0x0, symName: '__ZN4core3ptr289drop_in_place$LT$core..iter..adapters..filter_map..FilterMap$LT$core..iter..adapters..flatten..Flatten$LT$core..option..IntoIter$LT$proc_macro2..TokenStream$GT$$GT$$C$wasm_bindgen_macro_support..parser..extract_doc_comments..$u7b$$u7b$closure$u7d$$u7d$..$u7b$$u7b$closure$u7d$$u7d$$GT$$GT$17h6fbb0b1a24ec608bE', symObjAddr: 0xDF0, symBinAddr: 0x3FEB0, symSize: 0xA0 }
  - { offsetInCU: 0x551C, offset: 0x1477BC, size: 0x8, addend: 0x0, symName: '__ZN4core3ptr33drop_in_place$LT$syn..ty..Abi$GT$17hc67821cedadb388cE', symObjAddr: 0xE90, symBinAddr: 0x3FF50, symSize: 0x70 }
  - { offsetInCU: 0x5538, offset: 0x1477D8, size: 0x8, addend: 0x0, symName: '__ZN4core3ptr33drop_in_place$LT$syn..ty..Abi$GT$17hc67821cedadb388cE', symObjAddr: 0xE90, symBinAddr: 0x3FF50, symSize: 0x70 }
  - { offsetInCU: 0x5810, offset: 0x147AB0, size: 0x8, addend: 0x0, symName: '__ZN4core3ptr34drop_in_place$LT$syn..lit..Lit$GT$17hee573645253c1240E', symObjAddr: 0xF00, symBinAddr: 0x3FFC0, symSize: 0x120 }
  - { offsetInCU: 0x5CDF, offset: 0x147F7F, size: 0x8, addend: 0x0, symName: '__ZN4core3ptr34drop_in_place$LT$syn..pat..Pat$GT$17h973f87584b174815E.llvm.5580126006486427834', symObjAddr: 0x1020, symBinAddr: 0x400E0, symSize: 0xA90 }
  - { offsetInCU: 0x955D, offset: 0x14B7FD, size: 0x8, addend: 0x0, symName: '__ZN4core3ptr34drop_in_place$LT$syn..ty..Type$GT$17h3ae90635bb8b5dc2E.llvm.5580126006486427834', symObjAddr: 0x1AB0, symBinAddr: 0x40B70, symSize: 0x480 }
  - { offsetInCU: 0xA348, offset: 0x14C5E8, size: 0x8, addend: 0x0, symName: '__ZN4core3ptr35drop_in_place$LT$syn..expr..Arm$GT$17h5e4d921c97885936E.llvm.5580126006486427834', symObjAddr: 0x1F30, symBinAddr: 0x40FF0, symSize: 0x170 }
  - { offsetInCU: 0xADDE, offset: 0x14D07E, size: 0x8, addend: 0x0, symName: '__ZN4core3ptr36drop_in_place$LT$syn..expr..Expr$GT$17hec1898832a7659fcE.llvm.5580126006486427834', symObjAddr: 0x20A0, symBinAddr: 0x41160, symSize: 0x1C40 }
  - { offsetInCU: 0x146BD, offset: 0x15695D, size: 0x8, addend: 0x0, symName: '__ZN4core3ptr36drop_in_place$LT$syn..item..Item$GT$17h64b748ae526f89a8E.llvm.5580126006486427834', symObjAddr: 0x3CE0, symBinAddr: 0x42DA0, symSize: 0x13E0 }
  - { offsetInCU: 0x19D00, offset: 0x15BFA0, size: 0x8, addend: 0x0, symName: '__ZN4core3ptr36drop_in_place$LT$syn..mac..Macro$GT$17hee38913ef8f169faE', symObjAddr: 0x50C0, symBinAddr: 0x44180, symSize: 0xE0 }
  - { offsetInCU: 0x1A02A, offset: 0x15C2CA, size: 0x8, addend: 0x0, symName: '__ZN4core3ptr36drop_in_place$LT$syn..path..Path$GT$17h1bbd58c3d6dc291aE.llvm.5580126006486427834', symObjAddr: 0x51A0, symBinAddr: 0x44260, symSize: 0x180 }
  - { offsetInCU: 0x1A635, offset: 0x15C8D5, size: 0x8, addend: 0x0, symName: '__ZN4core3ptr36drop_in_place$LT$syn..stmt..Stmt$GT$17h4ff299a1cc2e97b7E.llvm.5580126006486427834', symObjAddr: 0x5320, symBinAddr: 0x443E0, symSize: 0x2F0 }
  - { offsetInCU: 0x1B218, offset: 0x15D4B8, size: 0x8, addend: 0x0, symName: '__ZN4core3ptr37drop_in_place$LT$syn..data..Field$GT$17heec7987ce6c50b5aE.llvm.5580126006486427834', symObjAddr: 0x5610, symBinAddr: 0x446D0, symSize: 0x190 }
  - { offsetInCU: 0x1B7D4, offset: 0x15DA74, size: 0x8, addend: 0x0, symName: '__ZN4core3ptr37drop_in_place$LT$syn..item..FnArg$GT$17hd30d7c718e68f508E.llvm.5580126006486427834', symObjAddr: 0x57A0, symBinAddr: 0x44860, symSize: 0x1A0 }
  - { offsetInCU: 0x1C063, offset: 0x15E303, size: 0x8, addend: 0x0, symName: '__ZN4core3ptr37drop_in_place$LT$syn..stmt..Block$GT$17h3a3c4aa9f1407e4cE', symObjAddr: 0x5940, symBinAddr: 0x44A00, symSize: 0xD0 }
  - { offsetInCU: 0x1C341, offset: 0x15E5E1, size: 0x8, addend: 0x0, symName: '__ZN4core3ptr38drop_in_place$LT$syn..expr..Member$GT$17h11f93a48e3da0c5fE.llvm.5580126006486427834', symObjAddr: 0x5A10, symBinAddr: 0x44AD0, symSize: 0x30 }
  - { offsetInCU: 0x1C43D, offset: 0x15E6DD, size: 0x8, addend: 0x0, symName: '__ZN4core3ptr38drop_in_place$LT$syn..pat..PatType$GT$17h21287bf485de56ceE.llvm.5580126006486427834', symObjAddr: 0x5A40, symBinAddr: 0x44B00, symSize: 0x140 }
  - { offsetInCU: 0x1C9BB, offset: 0x15EC5B, size: 0x8, addend: 0x0, symName: '__ZN4core3ptr39drop_in_place$LT$proc_macro2..Ident$GT$17h78274ef0131bd7beE.llvm.5580126006486427834', symObjAddr: 0x5B80, symBinAddr: 0x44C40, symSize: 0x30 }
  - { offsetInCU: 0x1CAF5, offset: 0x15ED95, size: 0x8, addend: 0x0, symName: '__ZN4core3ptr39drop_in_place$LT$syn..data..Variant$GT$17he00b5e72be213fa6E.llvm.5580126006486427834', symObjAddr: 0x5BB0, symBinAddr: 0x44C70, symSize: 0x2F0 }
  - { offsetInCU: 0x1D75C, offset: 0x15F9FC, size: 0x8, addend: 0x0, symName: '__ZN4core3ptr39drop_in_place$LT$syn..item..UseTree$GT$17h04993a8d45a285e1E.llvm.5580126006486427834', symObjAddr: 0x5EA0, symBinAddr: 0x44F60, symSize: 0x1E0 }
  - { offsetInCU: 0x1DEB5, offset: 0x160155, size: 0x8, addend: 0x0, symName: '__ZN4core3ptr40drop_in_place$LT$syn..item..ImplItem$GT$17h79ad1a6aebbaff6eE', symObjAddr: 0x6080, symBinAddr: 0x45140, symSize: 0x1F0 }
  - { offsetInCU: 0x1E4BF, offset: 0x16075F, size: 0x8, addend: 0x0, symName: '__ZN4core3ptr40drop_in_place$LT$syn..item..Receiver$GT$17hefabf0e025b0239bE.llvm.5580126006486427834', symObjAddr: 0x6270, symBinAddr: 0x45330, symSize: 0x130 }
  - { offsetInCU: 0x1EA89, offset: 0x160D29, size: 0x8, addend: 0x0, symName: '__ZN4core3ptr40drop_in_place$LT$syn..item..Variadic$GT$17h226e530ac841dcd7E', symObjAddr: 0x63A0, symBinAddr: 0x45460, symSize: 0x120 }
  - { offsetInCU: 0x1EEF8, offset: 0x161198, size: 0x8, addend: 0x0, symName: '__ZN4core3ptr40drop_in_place$LT$syn..ty..ReturnType$GT$17h5fc392ae06958c38E.llvm.5580126006486427834', symObjAddr: 0x64C0, symBinAddr: 0x45580, symSize: 0x50 }
  - { offsetInCU: 0x1F0C5, offset: 0x161365, size: 0x8, addend: 0x0, symName: '__ZN4core3ptr41drop_in_place$LT$syn..attr..Attribute$GT$17h8c3feaacba98a5e8E.llvm.5580126006486427834', symObjAddr: 0x6510, symBinAddr: 0x455D0, symSize: 0x160 }
  - { offsetInCU: 0x1F5D7, offset: 0x161877, size: 0x8, addend: 0x0, symName: '__ZN4core3ptr41drop_in_place$LT$syn..item..Signature$GT$17ha66890d0d99c15a5E', symObjAddr: 0x6670, symBinAddr: 0x45730, symSize: 0x270 }
  - { offsetInCU: 0x200EC, offset: 0x16238C, size: 0x8, addend: 0x0, symName: '__ZN4core3ptr41drop_in_place$LT$syn..item..TraitItem$GT$17h3de248856438a26aE', symObjAddr: 0x68E0, symBinAddr: 0x459A0, symSize: 0x330 }
  - { offsetInCU: 0x20CA5, offset: 0x162F45, size: 0x8, addend: 0x0, symName: '__ZN4core3ptr42drop_in_place$LT$syn..item..ImplItemFn$GT$17hea2fb7c49829d0a9E', symObjAddr: 0x6C10, symBinAddr: 0x45CD0, symSize: 0x230 }
  - { offsetInCU: 0x21434, offset: 0x1636D4, size: 0x8, addend: 0x0, symName: '__ZN4core3ptr42drop_in_place$LT$syn..path..Constraint$GT$17hda46fd298210a0b6E', symObjAddr: 0x6E40, symBinAddr: 0x45F00, symSize: 0x160 }
  - { offsetInCU: 0x21B20, offset: 0x163DC0, size: 0x8, addend: 0x0, symName: '__ZN4core3ptr43drop_in_place$LT$proc_macro2..TokenTree$GT$17hac9406466e35ddb4E.llvm.5580126006486427834', symObjAddr: 0x6FA0, symBinAddr: 0x46060, symSize: 0x180 }
  - { offsetInCU: 0x22366, offset: 0x164606, size: 0x8, addend: 0x0, symName: '__ZN4core3ptr43drop_in_place$LT$syn..data..FieldsNamed$GT$17h6fadfc624381e4b7E', symObjAddr: 0x7120, symBinAddr: 0x461E0, symSize: 0x120 }
  - { offsetInCU: 0x2282A, offset: 0x164ACA, size: 0x8, addend: 0x0, symName: '__ZN4core3ptr43drop_in_place$LT$syn..item..ForeignItem$GT$17h8da552977607dc3eE', symObjAddr: 0x7240, symBinAddr: 0x46300, symSize: 0x2A0 }
  - { offsetInCU: 0x231B6, offset: 0x165456, size: 0x8, addend: 0x0, symName: '__ZN4core3ptr43drop_in_place$LT$syn..path..PathSegment$GT$17h4486ba2c571c5b6fE.llvm.5580126006486427834', symObjAddr: 0x74E0, symBinAddr: 0x465A0, symSize: 0x190 }
  - { offsetInCU: 0x23795, offset: 0x165A35, size: 0x8, addend: 0x0, symName: '__ZN4core3ptr44drop_in_place$LT$syn..generics..Generics$GT$17h10b1829060b95b1bE', symObjAddr: 0x7670, symBinAddr: 0x46730, symSize: 0x240 }
  - { offsetInCU: 0x240D6, offset: 0x166376, size: 0x8, addend: 0x0, symName: '__ZN4core3ptr44drop_in_place$LT$syn..item..ImplItemType$GT$17h152bc787529fcf6cE', symObjAddr: 0x78B0, symBinAddr: 0x46970, symSize: 0x1F0 }
  - { offsetInCU: 0x246B5, offset: 0x166955, size: 0x8, addend: 0x0, symName: '__ZN4core3ptr44drop_in_place$LT$syn..lifetime..Lifetime$GT$17h6e42d75874321b11E.llvm.5580126006486427834', symObjAddr: 0x7AA0, symBinAddr: 0x46B60, symSize: 0x30 }
  - { offsetInCU: 0x2480E, offset: 0x166AAE, size: 0x8, addend: 0x0, symName: '__ZN4core3ptr45drop_in_place$LT$proc_macro2..TokenStream$GT$17h3de86edc178dbdf7E.llvm.5580126006486427834', symObjAddr: 0x7AD0, symBinAddr: 0x46B90, symSize: 0x70 }
  - { offsetInCU: 0x24975, offset: 0x166C15, size: 0x8, addend: 0x0, symName: '__ZN4core3ptr45drop_in_place$LT$syn..generics..TypeParam$GT$17hcf09314885b07e76E.llvm.5580126006486427834', symObjAddr: 0x7B40, symBinAddr: 0x46C00, symSize: 0x230 }
  - { offsetInCU: 0x251DF, offset: 0x16747F, size: 0x8, addend: 0x0, symName: '__ZN4core3ptr45drop_in_place$LT$syn..item..ImplItemConst$GT$17hd6887f2e078d213eE', symObjAddr: 0x7D70, symBinAddr: 0x46E30, symSize: 0x210 }
  - { offsetInCU: 0x257FC, offset: 0x167A9C, size: 0x8, addend: 0x0, symName: '__ZN4core3ptr45drop_in_place$LT$syn..item..TraitItemType$GT$17h92d6a57f9ad57e72E', symObjAddr: 0x7F80, symBinAddr: 0x47040, symSize: 0x290 }
  - { offsetInCU: 0x26132, offset: 0x1683D2, size: 0x8, addend: 0x0, symName: '__ZN4core3ptr46drop_in_place$LT$syn..generics..ConstParam$GT$17hc257e156a7125459E.llvm.5580126006486427834', symObjAddr: 0x8210, symBinAddr: 0x472D0, symSize: 0x150 }
  - { offsetInCU: 0x2652C, offset: 0x1687CC, size: 0x8, addend: 0x0, symName: '__ZN4core3ptr46drop_in_place$LT$syn..item..TraitItemConst$GT$17h8b372676e19818aeE', symObjAddr: 0x8360, symBinAddr: 0x47420, symSize: 0x1B0 }
  - { offsetInCU: 0x269D9, offset: 0x168C79, size: 0x8, addend: 0x0, symName: '__ZN4core3ptr47drop_in_place$LT$syn..generics..WhereClause$GT$17h579f744e88ec0bebE', symObjAddr: 0x8510, symBinAddr: 0x475D0, symSize: 0x120 }
  - { offsetInCU: 0x26E5F, offset: 0x1690FF, size: 0x8, addend: 0x0, symName: '__ZN4core3ptr47drop_in_place$LT$syn..item..ForeignItemType$GT$17ha952feda16ded478E', symObjAddr: 0x8630, symBinAddr: 0x476F0, symSize: 0x1B0 }
  - { offsetInCU: 0x27499, offset: 0x169739, size: 0x8, addend: 0x0, symName: '__ZN4core3ptr47drop_in_place$LT$syn..path..GenericArgument$GT$17h468af66cc22ee749E', symObjAddr: 0x87E0, symBinAddr: 0x478A0, symSize: 0x1C0 }
  - { offsetInCU: 0x2795D, offset: 0x169BFD, size: 0x8, addend: 0x0, symName: '__ZN4core3ptr48drop_in_place$LT$syn..generics..GenericParam$GT$17h9744d40d140f2507E', symObjAddr: 0x89A0, symBinAddr: 0x47A60, symSize: 0xE0 }
  - { offsetInCU: 0x27D40, offset: 0x169FE0, size: 0x8, addend: 0x0, symName: '__ZN4core3ptr49drop_in_place$LT$syn..generics..LifetimeParam$GT$17h9ae69bbe86531da0E.llvm.5580126006486427834', symObjAddr: 0x8A80, symBinAddr: 0x47B40, symSize: 0xF0 }
  - { offsetInCU: 0x28117, offset: 0x16A3B7, size: 0x8, addend: 0x0, symName: '__ZN4core3ptr49drop_in_place$LT$syn..generics..PredicateType$GT$17hcff025a670ff93d4E.llvm.5580126006486427834', symObjAddr: 0x8B70, symBinAddr: 0x47C30, symSize: 0x180 }
  - { offsetInCU: 0x285CF, offset: 0x16A86F, size: 0x8, addend: 0x0, symName: '__ZN4core3ptr49drop_in_place$LT$syn..item..ForeignItemStatic$GT$17hbe640deb11e5b07bE', symObjAddr: 0x8CF0, symBinAddr: 0x47DB0, symSize: 0x190 }
  - { offsetInCU: 0x28C9D, offset: 0x16AF3D, size: 0x8, addend: 0x0, symName: '__ZN4core3ptr50drop_in_place$LT$$u5b$syn..item..ImplItem$u5d$$GT$17h0eb759d5424140deE.llvm.5580126006486427834', symObjAddr: 0x8E80, symBinAddr: 0x47F40, symSize: 0x210 }
  - { offsetInCU: 0x28FDD, offset: 0x16B27D, size: 0x8, addend: 0x0, symName: '__ZN4core3ptr50drop_in_place$LT$syn..generics..TypeParamBound$GT$17he4fe30d10954a629E.llvm.5580126006486427834', symObjAddr: 0x9090, symBinAddr: 0x48150, symSize: 0xA0 }
  - { offsetInCU: 0x29162, offset: 0x16B402, size: 0x8, addend: 0x0, symName: '__ZN4core3ptr50drop_in_place$LT$syn..generics..WherePredicate$GT$17h07b1926b392dc7a1E', symObjAddr: 0x9130, symBinAddr: 0x481F0, symSize: 0xA0 }
  - { offsetInCU: 0x29312, offset: 0x16B5B2, size: 0x8, addend: 0x0, symName: '__ZN4core3ptr51drop_in_place$LT$$u5b$syn..attr..Attribute$u5d$$GT$17h0058605455bc72d9E.llvm.5580126006486427834', symObjAddr: 0x91D0, symBinAddr: 0x48290, symSize: 0x100 }
  - { offsetInCU: 0x293B0, offset: 0x16B650, size: 0x8, addend: 0x0, symName: '__ZN4core3ptr51drop_in_place$LT$$u5b$syn..item..TraitItem$u5d$$GT$17hace6778e67b395c8E.llvm.5580126006486427834', symObjAddr: 0x92D0, symBinAddr: 0x48390, symSize: 0x3E0 }
  - { offsetInCU: 0x29CEA, offset: 0x16BF8A, size: 0x8, addend: 0x0, symName: '__ZN4core3ptr52drop_in_place$LT$syn..restriction..VisRestricted$GT$17h8b32a712c424d814E', symObjAddr: 0x96B0, symBinAddr: 0x48770, symSize: 0x50 }
  - { offsetInCU: 0x29F3B, offset: 0x16C1DB, size: 0x8, addend: 0x0, symName: '__ZN4core3ptr52drop_in_place$LT$wasm_bindgen_backend..ast..Enum$GT$17hdf7803d47bfdae27E.llvm.5580126006486427834', symObjAddr: 0x9700, symBinAddr: 0x487C0, symSize: 0x1B0 }
  - { offsetInCU: 0x2A94A, offset: 0x16CBEA, size: 0x8, addend: 0x0, symName: '__ZN4core3ptr53drop_in_place$LT$$u5b$syn..item..ForeignItem$u5d$$GT$17hd0a4939293290093E.llvm.5580126006486427834', symObjAddr: 0x98B0, symBinAddr: 0x48970, symSize: 0x370 }
  - { offsetInCU: 0x2B17C, offset: 0x16D41C, size: 0x8, addend: 0x0, symName: '__ZN4core3ptr54drop_in_place$LT$wasm_bindgen_backend..ast..Export$GT$17hb49eae492b1b822aE.llvm.5580126006486427834', symObjAddr: 0x9C20, symBinAddr: 0x48CE0, symSize: 0x1F0 }
  - { offsetInCU: 0x2BA91, offset: 0x16DD31, size: 0x8, addend: 0x0, symName: '__ZN4core3ptr54drop_in_place$LT$wasm_bindgen_backend..ast..Import$GT$17ha1e698348283a8c8E.llvm.5580126006486427834', symObjAddr: 0x9E10, symBinAddr: 0x48ED0, symSize: 0xC0 }
  - { offsetInCU: 0x2BEE6, offset: 0x16E186, size: 0x8, addend: 0x0, symName: '__ZN4core3ptr54drop_in_place$LT$wasm_bindgen_backend..ast..Struct$GT$17h6270eb2c109bf26cE.llvm.5580126006486427834', symObjAddr: 0x9ED0, symBinAddr: 0x48F90, symSize: 0x170 }
  - { offsetInCU: 0x2C643, offset: 0x16E8E3, size: 0x8, addend: 0x0, symName: '__ZN4core3ptr55drop_in_place$LT$wasm_bindgen_backend..ast..Variant$GT$17h7a9fcd0e09af2e98E.llvm.5580126006486427834', symObjAddr: 0xA040, symBinAddr: 0x49100, symSize: 0xA0 }
  - { offsetInCU: 0x2CA1F, offset: 0x16ECBF, size: 0x8, addend: 0x0, symName: '__ZN4core3ptr56drop_in_place$LT$wasm_bindgen_backend..ast..Function$GT$17hc1933dcfd8332025E', symObjAddr: 0xA0E0, symBinAddr: 0x491A0, symSize: 0x180 }
  - { offsetInCU: 0x2CED0, offset: 0x16F170, size: 0x8, addend: 0x0, symName: '__ZN4core3ptr58drop_in_place$LT$alloc..vec..Vec$LT$syn..expr..Arm$GT$$GT$17h14e2e22a7226ddf8E', symObjAddr: 0xA260, symBinAddr: 0x49320, symSize: 0xD0 }
  - { offsetInCU: 0x2D2CD, offset: 0x16F56D, size: 0x8, addend: 0x0, symName: '__ZN4core3ptr58drop_in_place$LT$wasm_bindgen_backend..ast..ImportKind$GT$17hc5d2a8eb3293519dE.llvm.5580126006486427834', symObjAddr: 0xA330, symBinAddr: 0x493F0, symSize: 0x700 }
  - { offsetInCU: 0x2F00F, offset: 0x1712AF, size: 0x8, addend: 0x0, symName: '__ZN4core3ptr58drop_in_place$LT$wasm_bindgen_backend..ast..MethodKind$GT$17h50221a6cbb89d629E', symObjAddr: 0xAA30, symBinAddr: 0x49AF0, symSize: 0x50 }
  - { offsetInCU: 0x2F149, offset: 0x1713E9, size: 0x8, addend: 0x0, symName: '__ZN4core3ptr59drop_in_place$LT$alloc..boxed..Box$LT$syn..pat..Pat$GT$$GT$17h50d0c33df1b13ff6E.llvm.5580126006486427834', symObjAddr: 0xAA80, symBinAddr: 0x49B40, symSize: 0x50 }
  - { offsetInCU: 0x2F2A2, offset: 0x171542, size: 0x8, addend: 0x0, symName: '__ZN4core3ptr59drop_in_place$LT$alloc..boxed..Box$LT$syn..ty..Type$GT$$GT$17h7bcc4a34581ddba7E.llvm.5580126006486427834', symObjAddr: 0xAAD0, symBinAddr: 0x49B90, symSize: 0x50 }
  - { offsetInCU: 0x2F3FB, offset: 0x17169B, size: 0x8, addend: 0x0, symName: '__ZN4core3ptr59drop_in_place$LT$alloc..vec..Vec$LT$syn..item..Item$GT$$GT$17h2916156975d61515E', symObjAddr: 0xAB20, symBinAddr: 0x49BE0, symSize: 0xD0 }
  - { offsetInCU: 0x2F6C2, offset: 0x171962, size: 0x8, addend: 0x0, symName: '__ZN4core3ptr59drop_in_place$LT$alloc..vec..Vec$LT$syn..path..Path$GT$$GT$17h7a51e5d44de08e82E', symObjAddr: 0xABF0, symBinAddr: 0x49CB0, symSize: 0xD0 }
  - { offsetInCU: 0x2F9AA, offset: 0x171C4A, size: 0x8, addend: 0x0, symName: '__ZN4core3ptr59drop_in_place$LT$wasm_bindgen_backend..ast..StructField$GT$17hffd6d9f34a068864E.llvm.5580126006486427834', symObjAddr: 0xACC0, symBinAddr: 0x49D80, symSize: 0x1A0 }
  - { offsetInCU: 0x301A3, offset: 0x172443, size: 0x8, addend: 0x0, symName: '__ZN4core3ptr60drop_in_place$LT$wasm_bindgen_backend..error..Diagnostic$GT$17hac73a733701e674cE.llvm.5580126006486427834', symObjAddr: 0xAE60, symBinAddr: 0x49F20, symSize: 0x150 }
  - { offsetInCU: 0x3063D, offset: 0x1728DD, size: 0x8, addend: 0x0, symName: '__ZN4core3ptr61drop_in_place$LT$alloc..boxed..Box$LT$syn..expr..Expr$GT$$GT$17h2f5fb41dd226c4deE', symObjAddr: 0xAFB0, symBinAddr: 0x4A070, symSize: 0x50 }
  - { offsetInCU: 0x30796, offset: 0x172A36, size: 0x8, addend: 0x0, symName: '__ZN4core3ptr61drop_in_place$LT$alloc..boxed..Box$LT$syn..path..Path$GT$$GT$17h760034d5952a02a5E', symObjAddr: 0xB000, symBinAddr: 0x4A0C0, symSize: 0x100 }
  - { offsetInCU: 0x30BFC, offset: 0x172E9C, size: 0x8, addend: 0x0, symName: '__ZN4core3ptr61drop_in_place$LT$alloc..vec..Vec$LT$syn..pat..PatType$GT$$GT$17h56ee5e4d64366d38E', symObjAddr: 0xB100, symBinAddr: 0x4A1C0, symSize: 0xD0 }
  - { offsetInCU: 0x30F7F, offset: 0x17321F, size: 0x8, addend: 0x0, symName: '__ZN4core3ptr61drop_in_place$LT$syn..path..ParenthesizedGenericArguments$GT$17h490a82a7318211d4E.llvm.5580126006486427834', symObjAddr: 0xB1D0, symBinAddr: 0x4A290, symSize: 0x170 }
  - { offsetInCU: 0x3157C, offset: 0x17381C, size: 0x8, addend: 0x0, symName: '__ZN4core3ptr62drop_in_place$LT$alloc..boxed..Box$LT$syn..data..Field$GT$$GT$17h1c4bbebe3a975718E', symObjAddr: 0xB340, symBinAddr: 0x4A400, symSize: 0x50 }
  - { offsetInCU: 0x316F4, offset: 0x173994, size: 0x8, addend: 0x0, symName: '__ZN4core3ptr62drop_in_place$LT$alloc..boxed..Box$LT$syn..item..FnArg$GT$$GT$17he9765d42a0d86830E', symObjAddr: 0xB390, symBinAddr: 0x4A450, symSize: 0x60 }
  - { offsetInCU: 0x3186A, offset: 0x173B0A, size: 0x8, addend: 0x0, symName: '__ZN4core3ptr62drop_in_place$LT$alloc..boxed..Box$LT$syn..stmt..Block$GT$$GT$17h3638bbe45345a15fE', symObjAddr: 0xB3F0, symBinAddr: 0x4A4B0, symSize: 0xE0 }
  - { offsetInCU: 0x31C83, offset: 0x173F23, size: 0x8, addend: 0x0, symName: '__ZN4core3ptr62drop_in_place$LT$alloc..vec..Vec$LT$proc_macro2..Ident$GT$$GT$17hb84c8f137fc8fb6fE', symObjAddr: 0xB4D0, symBinAddr: 0x4A590, symSize: 0x90 }
  - { offsetInCU: 0x31F0B, offset: 0x1741AB, size: 0x8, addend: 0x0, symName: '__ZN4core3ptr62drop_in_place$LT$syn..path..AngleBracketedGenericArguments$GT$17h1669e24b2478d11dE.llvm.5580126006486427834', symObjAddr: 0xB560, symBinAddr: 0x4A620, symSize: 0x120 }
  - { offsetInCU: 0x32391, offset: 0x174631, size: 0x8, addend: 0x0, symName: '__ZN4core3ptr63drop_in_place$LT$alloc..vec..Vec$LT$syn..item..ImplItem$GT$$GT$17h1a3b03d7a8adc95cE', symObjAddr: 0xB680, symBinAddr: 0x4A740, symSize: 0x80 }
  - { offsetInCU: 0x32649, offset: 0x1748E9, size: 0x8, addend: 0x0, symName: '__ZN4core3ptr64drop_in_place$LT$alloc..boxed..Box$LT$syn..data..Variant$GT$$GT$17hed9597d9a3dcacecE', symObjAddr: 0xB700, symBinAddr: 0x4A7C0, symSize: 0x50 }
  - { offsetInCU: 0x327A2, offset: 0x174A42, size: 0x8, addend: 0x0, symName: '__ZN4core3ptr64drop_in_place$LT$alloc..boxed..Box$LT$syn..item..UseTree$GT$$GT$17hdca9ee81d3024007E', symObjAddr: 0xB750, symBinAddr: 0x4A810, symSize: 0x50 }
  - { offsetInCU: 0x3291A, offset: 0x174BBA, size: 0x8, addend: 0x0, symName: '__ZN4core3ptr64drop_in_place$LT$alloc..boxed..Box$LT$syn..pat..FieldPat$GT$$GT$17h90926d8c1a4ddae4E', symObjAddr: 0xB7A0, symBinAddr: 0x4A860, symSize: 0x100 }
  - { offsetInCU: 0x32F9F, offset: 0x17523F, size: 0x8, addend: 0x0, symName: '__ZN4core3ptr64drop_in_place$LT$alloc..boxed..Box$LT$syn..ty..BareFnArg$GT$$GT$17h0f95c2c81efdd59dE', symObjAddr: 0xB8A0, symBinAddr: 0x4A960, symSize: 0xF0 }
  - { offsetInCU: 0x334F0, offset: 0x175790, size: 0x8, addend: 0x0, symName: '__ZN4core3ptr64drop_in_place$LT$alloc..vec..Vec$LT$syn..attr..Attribute$GT$$GT$17hc3d18d11f6a490bdE.llvm.5580126006486427834', symObjAddr: 0xB990, symBinAddr: 0x4AA50, symSize: 0x180 }
  - { offsetInCU: 0x3387A, offset: 0x175B1A, size: 0x8, addend: 0x0, symName: '__ZN4core3ptr64drop_in_place$LT$alloc..vec..Vec$LT$syn..item..TraitItem$GT$$GT$17h5f53b7921daede14E', symObjAddr: 0xBB10, symBinAddr: 0x4ABD0, symSize: 0x80 }
  - { offsetInCU: 0x33B32, offset: 0x175DD2, size: 0x8, addend: 0x0, symName: '__ZN4core3ptr65drop_in_place$LT$$LP$syn..item..FnArg$C$syn..token..Comma$RP$$GT$17h77e01e387c472ee3E.llvm.5580126006486427834', symObjAddr: 0xBB90, symBinAddr: 0x4AC50, symSize: 0x20 }
  - { offsetInCU: 0x33B6E, offset: 0x175E0E, size: 0x8, addend: 0x0, symName: '__ZN4core3ptr65drop_in_place$LT$alloc..vec..Vec$LT$alloc..string..String$GT$$GT$17h61174ae9211d439eE.llvm.5580126006486427834', symObjAddr: 0xBBB0, symBinAddr: 0x4AC70, symSize: 0x90 }
  - { offsetInCU: 0x33E4C, offset: 0x1760EC, size: 0x8, addend: 0x0, symName: '__ZN4core3ptr65drop_in_place$LT$alloc..vec..Vec$LT$proc_macro..TokenTree$GT$$GT$17h3cc592fdbb1600b7E.llvm.5580126006486427834', symObjAddr: 0xBC40, symBinAddr: 0x4AD00, symSize: 0x110 }
  - { offsetInCU: 0x3425E, offset: 0x1764FE, size: 0x8, addend: 0x0, symName: '__ZN4core3ptr65drop_in_place$LT$core..option..Option$LT$syn..expr..Label$GT$$GT$17heefd36b73aa6dbbbE', symObjAddr: 0xBD50, symBinAddr: 0x4AE10, symSize: 0x30 }
  - { offsetInCU: 0x34398, offset: 0x176638, size: 0x8, addend: 0x0, symName: '__ZN4core3ptr65drop_in_place$LT$core..option..Option$LT$syn..stmt..Block$GT$$GT$17hf5e69077ffe48577E', symObjAddr: 0xBD80, symBinAddr: 0x4AE40, symSize: 0xD0 }
  - { offsetInCU: 0x3468C, offset: 0x17692C, size: 0x8, addend: 0x0, symName: '__ZN4core3ptr66drop_in_place$LT$alloc..vec..Vec$LT$proc_macro2..TokenTree$GT$$GT$17h0c4c2ad17291eca3E', symObjAddr: 0xBE50, symBinAddr: 0x4AF10, symSize: 0xC0 }
  - { offsetInCU: 0x34964, offset: 0x176C04, size: 0x8, addend: 0x0, symName: '__ZN4core3ptr66drop_in_place$LT$alloc..vec..Vec$LT$syn..item..ForeignItem$GT$$GT$17h719981f79056ec03E', symObjAddr: 0xBF10, symBinAddr: 0x4AFD0, symSize: 0x80 }
  - { offsetInCU: 0x34C1C, offset: 0x176EBC, size: 0x8, addend: 0x0, symName: '__ZN4core3ptr66drop_in_place$LT$wasm_bindgen_backend..ast..ImportFunctionKind$GT$17h24a7e91435df59efE', symObjAddr: 0xBF90, symBinAddr: 0x4B050, symSize: 0x90 }
  - { offsetInCU: 0x34E8E, offset: 0x17712E, size: 0x8, addend: 0x0, symName: '__ZN4core3ptr67drop_in_place$LT$$LP$syn..pat..FieldPat$C$syn..token..Comma$RP$$GT$17h431ffb0e48e0659eE.llvm.5580126006486427834', symObjAddr: 0xC020, symBinAddr: 0x4B0E0, symSize: 0xE0 }
  - { offsetInCU: 0x353DE, offset: 0x17767E, size: 0x8, addend: 0x0, symName: '__ZN4core3ptr67drop_in_place$LT$$LP$syn..ty..BareFnArg$C$syn..token..Comma$RP$$GT$17h9c16c45f80a9624eE.llvm.5580126006486427834', symObjAddr: 0xC100, symBinAddr: 0x4B1C0, symSize: 0xC0 }
  - { offsetInCU: 0x3582A, offset: 0x177ACA, size: 0x8, addend: 0x0, symName: '__ZN4core3ptr67drop_in_place$LT$alloc..boxed..Box$LT$syn..expr..FieldValue$GT$$GT$17h67591aed16e5fd17E', symObjAddr: 0xC1C0, symBinAddr: 0x4B280, symSize: 0xF0 }
  - { offsetInCU: 0x35D5B, offset: 0x177FFB, size: 0x8, addend: 0x0, symName: '__ZN4core3ptr68drop_in_place$LT$alloc..boxed..Box$LT$syn..path..PathSegment$GT$$GT$17h7d0321f5cdfba0dbE', symObjAddr: 0xC2B0, symBinAddr: 0x4B370, symSize: 0xF0 }
  - { offsetInCU: 0x3619B, offset: 0x17843B, size: 0x8, addend: 0x0, symName: '__ZN4core3ptr68drop_in_place$LT$wasm_bindgen_macro_support..parser..BindgenAttr$GT$17he2d7d5b74e7c4901E.llvm.5580126006486427834', symObjAddr: 0xC3A0, symBinAddr: 0x4B460, symSize: 0x1B0 }
  - { offsetInCU: 0x36652, offset: 0x1788F2, size: 0x8, addend: 0x0, symName: '__ZN4core3ptr69drop_in_place$LT$core..option..Option$LT$syn..stmt..LocalInit$GT$$GT$17hb981ec9ae5ed506aE', symObjAddr: 0xC550, symBinAddr: 0x4B610, symSize: 0xC0 }
  - { offsetInCU: 0x36976, offset: 0x178C16, size: 0x8, addend: 0x0, symName: '__ZN4core3ptr70drop_in_place$LT$$LP$syn..expr..FieldValue$C$syn..token..Comma$RP$$GT$17h8a09abe51cd23d48E.llvm.5580126006486427834', symObjAddr: 0xC610, symBinAddr: 0x4B6D0, symSize: 0xC0 }
  - { offsetInCU: 0x36D83, offset: 0x179023, size: 0x8, addend: 0x0, symName: '__ZN4core3ptr70drop_in_place$LT$core..option..Option$LT$syn..ty..BareVariadic$GT$$GT$17hca3e4002aff8883fE', symObjAddr: 0xC6D0, symBinAddr: 0x4B790, symSize: 0xB0 }
  - { offsetInCU: 0x3719B, offset: 0x17943B, size: 0x8, addend: 0x0, symName: '__ZN4core3ptr72drop_in_place$LT$alloc..boxed..Box$LT$syn..path..GenericArgument$GT$$GT$17h85ff28da2594c421E.llvm.5580126006486427834', symObjAddr: 0xC780, symBinAddr: 0x4B840, symSize: 0x190 }
  - { offsetInCU: 0x37663, offset: 0x179903, size: 0x8, addend: 0x0, symName: '__ZN4core3ptr73drop_in_place$LT$$LP$syn..path..PathSegment$C$syn..token..PathSep$RP$$GT$17h2dcab5998f2fcb65E.llvm.5580126006486427834', symObjAddr: 0xC910, symBinAddr: 0x4B9D0, symSize: 0xD0 }
  - { offsetInCU: 0x37926, offset: 0x179BC6, size: 0x8, addend: 0x0, symName: '__ZN4core3ptr73drop_in_place$LT$alloc..boxed..Box$LT$syn..generics..GenericParam$GT$$GT$17hce03ddb06f310207E', symObjAddr: 0xC9E0, symBinAddr: 0x4BAA0, symSize: 0x80 }
  - { offsetInCU: 0x37A9C, offset: 0x179D3C, size: 0x8, addend: 0x0, symName: '__ZN4core3ptr75drop_in_place$LT$$LP$syn..path..GenericArgument$C$syn..token..Comma$RP$$GT$17h178d94354151eb49E.llvm.5580126006486427834', symObjAddr: 0xCA60, symBinAddr: 0x4BB20, symSize: 0x180 }
  - { offsetInCU: 0x37E2A, offset: 0x17A0CA, size: 0x8, addend: 0x0, symName: '__ZN4core3ptr75drop_in_place$LT$alloc..boxed..Box$LT$syn..generics..TypeParamBound$GT$$GT$17h9abbd9006a1d5cd9E', symObjAddr: 0xCBE0, symBinAddr: 0x4BCA0, symSize: 0x180 }
  - { offsetInCU: 0x383F4, offset: 0x17A694, size: 0x8, addend: 0x0, symName: '__ZN4core3ptr75drop_in_place$LT$alloc..boxed..Box$LT$syn..generics..WherePredicate$GT$$GT$17h597aefe9a4f014e9E', symObjAddr: 0xCD60, symBinAddr: 0x4BE20, symSize: 0x80 }
  - { offsetInCU: 0x3868B, offset: 0x17A92B, size: 0x8, addend: 0x0, symName: '__ZN4core3ptr76drop_in_place$LT$$LP$syn..generics..GenericParam$C$syn..token..Comma$RP$$GT$17hd7c8b1bf066b3dd2E.llvm.5580126006486427834', symObjAddr: 0xCDE0, symBinAddr: 0x4BEA0, symSize: 0x40 }
  - { offsetInCU: 0x386C7, offset: 0x17A967, size: 0x8, addend: 0x0, symName: '__ZN4core3ptr77drop_in_place$LT$$LP$syn..generics..TypeParamBound$C$syn..token..Plus$RP$$GT$17he88a2fff2e9b18eaE.llvm.5580126006486427834', symObjAddr: 0xCE20, symBinAddr: 0x4BEE0, symSize: 0x180 }
  - { offsetInCU: 0x38B63, offset: 0x17AE03, size: 0x8, addend: 0x0, symName: '__ZN4core3ptr78drop_in_place$LT$$LP$syn..generics..WherePredicate$C$syn..token..Comma$RP$$GT$17h79795aa7b3cc15e0E.llvm.5580126006486427834', symObjAddr: 0xCFA0, symBinAddr: 0x4C060, symSize: 0x60 }
  - { offsetInCU: 0x38CC0, offset: 0x17AF60, size: 0x8, addend: 0x0, symName: '__ZN4core3ptr78drop_in_place$LT$alloc..vec..Vec$LT$wasm_bindgen_backend..ast..Variant$GT$$GT$17ha0c1ecdfc2325c32E', symObjAddr: 0xD000, symBinAddr: 0x4C0C0, symSize: 0x130 }
  - { offsetInCU: 0x391FC, offset: 0x17B49C, size: 0x8, addend: 0x0, symName: '__ZN4core3ptr84drop_in_place$LT$core..option..Option$LT$proc_macro2..token_stream..IntoIter$GT$$GT$17h7522e02672dcc1eaE', symObjAddr: 0xD130, symBinAddr: 0x4C1F0, symSize: 0x30 }
  - { offsetInCU: 0x392CB, offset: 0x17B56B, size: 0x8, addend: 0x0, symName: '__ZN4core3ptr86drop_in_place$LT$$LP$syn..token..If$C$alloc..boxed..Box$LT$syn..expr..Expr$GT$$RP$$GT$17hae4d654663a65d3fE', symObjAddr: 0xD160, symBinAddr: 0x4C220, symSize: 0x50 }
  - { offsetInCU: 0x394DE, offset: 0x17B77E, size: 0x8, addend: 0x0, symName: '__ZN4core3ptr86drop_in_place$LT$syn..punctuated..Punctuated$LT$syn..pat..Pat$C$syn..token..Or$GT$$GT$17h7580e44fbb73d60bE', symObjAddr: 0xD1B0, symBinAddr: 0x4C270, symSize: 0x120 }
  - { offsetInCU: 0x39977, offset: 0x17BC17, size: 0x8, addend: 0x0, symName: '__ZN4core3ptr87drop_in_place$LT$$LP$alloc..boxed..Box$LT$syn..pat..Pat$GT$$C$syn..token..Colon$RP$$GT$17h7f1a2fd74cf9f75fE', symObjAddr: 0xD2D0, symBinAddr: 0x4C390, symSize: 0x50 }
  - { offsetInCU: 0x39AEF, offset: 0x17BD8F, size: 0x8, addend: 0x0, symName: '__ZN4core3ptr87drop_in_place$LT$core..option..Option$LT$alloc..boxed..Box$LT$syn..ty..Type$GT$$GT$$GT$17h115b882e05437c86E', symObjAddr: 0xD320, symBinAddr: 0x4C3E0, symSize: 0x50 }
  - { offsetInCU: 0x39C5F, offset: 0x17BEFF, size: 0x8, addend: 0x0, symName: '__ZN4core3ptr89drop_in_place$LT$core..option..Option$LT$alloc..boxed..Box$LT$syn..expr..Expr$GT$$GT$$GT$17he3e67d25883b4389E', symObjAddr: 0xD370, symBinAddr: 0x4C430, symSize: 0x50 }
  - { offsetInCU: 0x39DCF, offset: 0x17C06F, size: 0x8, addend: 0x0, symName: '__ZN4core3ptr89drop_in_place$LT$syn..punctuated..Punctuated$LT$syn..ty..Type$C$syn..token..Comma$GT$$GT$17h3e0bdfd750c7e7c3E.llvm.5580126006486427834', symObjAddr: 0xD3C0, symBinAddr: 0x4C480, symSize: 0x120 }
  - { offsetInCU: 0x3A251, offset: 0x17C4F1, size: 0x8, addend: 0x0, symName: '__ZN4core3ptr90drop_in_place$LT$core..option..Option$LT$alloc..boxed..Box$LT$syn..data..Field$GT$$GT$$GT$17h77597b41f3489811E', symObjAddr: 0xD4E0, symBinAddr: 0x4C5A0, symSize: 0x50 }
  - { offsetInCU: 0x3A3C1, offset: 0x17C661, size: 0x8, addend: 0x0, symName: '__ZN4core3ptr90drop_in_place$LT$core..option..Option$LT$alloc..boxed..Box$LT$syn..item..FnArg$GT$$GT$$GT$17h20030a0d77da3dbdE', symObjAddr: 0xD530, symBinAddr: 0x4C5F0, symSize: 0x50 }
  - { offsetInCU: 0x3A5AD, offset: 0x17C84D, size: 0x8, addend: 0x0, symName: '__ZN4core3ptr91drop_in_place$LT$syn..punctuated..Punctuated$LT$syn..expr..Expr$C$syn..token..Comma$GT$$GT$17h2f01a48d43db64beE', symObjAddr: 0xD580, symBinAddr: 0x4C640, symSize: 0x120 }
  - { offsetInCU: 0x3AA42, offset: 0x17CCE2, size: 0x8, addend: 0x0, symName: '__ZN4core3ptr92drop_in_place$LT$core..option..Option$LT$$LP$syn..token..As$C$proc_macro2..Ident$RP$$GT$$GT$17h113ea65848cdfa7dE', symObjAddr: 0xD6A0, symBinAddr: 0x4C760, symSize: 0x30 }
  - { offsetInCU: 0x3AB5D, offset: 0x17CDFD, size: 0x8, addend: 0x0, symName: '__ZN4core3ptr92drop_in_place$LT$syn..punctuated..Punctuated$LT$syn..data..Field$C$syn..token..Comma$GT$$GT$17he725e598c1e63b17E', symObjAddr: 0xD6D0, symBinAddr: 0x4C790, symSize: 0x120 }
  - { offsetInCU: 0x3AFE3, offset: 0x17D283, size: 0x8, addend: 0x0, symName: '__ZN4core3ptr92drop_in_place$LT$syn..punctuated..Punctuated$LT$syn..item..FnArg$C$syn..token..Comma$GT$$GT$17h96e6da634d2aecfdE', symObjAddr: 0xD7F0, symBinAddr: 0x4C8B0, symSize: 0x150 }
  - { offsetInCU: 0x3B52E, offset: 0x17D7CE, size: 0x8, addend: 0x0, symName: '__ZN4core3ptr94drop_in_place$LT$syn..punctuated..Punctuated$LT$syn..data..Variant$C$syn..token..Comma$GT$$GT$17he3434ef9d715c40fE', symObjAddr: 0xD9C0, symBinAddr: 0x4CA00, symSize: 0x120 }
  - { offsetInCU: 0x3BA3F, offset: 0x17DCDF, size: 0x8, addend: 0x0, symName: '__ZN4core3ptr94drop_in_place$LT$syn..punctuated..Punctuated$LT$syn..pat..FieldPat$C$syn..token..Comma$GT$$GT$17h1420eba3f01509f6E', symObjAddr: 0xDAE0, symBinAddr: 0x4CB20, symSize: 0xF0 }
  - { offsetInCU: 0x3BDD4, offset: 0x17E074, size: 0x8, addend: 0x0, symName: '__ZN4core3ptr94drop_in_place$LT$syn..punctuated..Punctuated$LT$syn..ty..BareFnArg$C$syn..token..Comma$GT$$GT$17h96c674e9d142553fE', symObjAddr: 0xDBD0, symBinAddr: 0x4CC10, symSize: 0xF0 }
  - { offsetInCU: 0x3C0EF, offset: 0x17E38F, size: 0x8, addend: 0x0, symName: '__ZN4core3ptr95drop_in_place$LT$core..option..Option$LT$$LP$proc_macro2..Ident$C$syn..token..Colon$RP$$GT$$GT$17h1e6f1b8bf323b9b8E.llvm.5580126006486427834', symObjAddr: 0xDCC0, symBinAddr: 0x4CD00, symSize: 0x30 }
  - { offsetInCU: 0x3C20A, offset: 0x17E4AA, size: 0x8, addend: 0x0, symName: '__ZN4core3ptr96drop_in_place$LT$core..option..Option$LT$alloc..boxed..Box$LT$syn..path..PathSegment$GT$$GT$$GT$17hcd3eda3806df5f3aE.llvm.5580126006486427834', symObjAddr: 0xDCF0, symBinAddr: 0x4CD30, symSize: 0xA0 }
  - { offsetInCU: 0x3C524, offset: 0x17E7C4, size: 0x8, addend: 0x0, symName: '__ZN4core3ptr97drop_in_place$LT$syn..punctuated..Punctuated$LT$syn..expr..FieldValue$C$syn..token..Comma$GT$$GT$17hd26eb8b5d8a23419E', symObjAddr: 0xDDE0, symBinAddr: 0x4CDD0, symSize: 0xF0 }
  - { offsetInCU: 0x3C8D6, offset: 0x17EB76, size: 0x8, addend: 0x0, symName: '__ZN4core3ptr98drop_in_place$LT$syn..punctuated..Punctuated$LT$syn..lifetime..Lifetime$C$syn..token..Plus$GT$$GT$17hb40bd2b31d61c61aE.llvm.5580126006486427834', symObjAddr: 0xDED0, symBinAddr: 0x4CEC0, symSize: 0xD0 }
  - { offsetInCU: 0x4147C, offset: 0x18371C, size: 0x8, addend: 0x0, symName: '__ZN48_$LT$T$u20$as$u20$core..clone..CloneToUninit$GT$15clone_to_uninit17h70518a6f9313332aE', symObjAddr: 0x0, symBinAddr: 0x3F0C0, symSize: 0x330 }
  - { offsetInCU: 0x44237, offset: 0x1864D7, size: 0x8, addend: 0x0, symName: '__ZN67_$LT$alloc..vec..Vec$LT$T$C$A$GT$$u20$as$u20$core..clone..Clone$GT$5clone17h3b8c01fa2524887aE', symObjAddr: 0xE3E0, symBinAddr: 0x4D1F0, symSize: 0x240 }
  - { offsetInCU: 0x44857, offset: 0x186AF7, size: 0x8, addend: 0x0, symName: '__ZN67_$LT$alloc..vec..Vec$LT$T$C$A$GT$$u20$as$u20$core..clone..Clone$GT$5clone17h8faf03416e5bee58E', symObjAddr: 0xE620, symBinAddr: 0x4D430, symSize: 0x130 }
  - { offsetInCU: 0x44C26, offset: 0x186EC6, size: 0x8, addend: 0x0, symName: '__ZN67_$LT$alloc..vec..Vec$LT$T$C$A$GT$$u20$as$u20$core..clone..Clone$GT$5clone17hf06bc717f621bb71E', symObjAddr: 0xE750, symBinAddr: 0x4D560, symSize: 0x140 }
  - { offsetInCU: 0x46083, offset: 0x188323, size: 0x8, addend: 0x0, symName: '__ZN70_$LT$alloc..vec..Vec$LT$T$C$A$GT$$u20$as$u20$core..ops..drop..Drop$GT$4drop17h2066352dc50d39f7E', symObjAddr: 0xECB0, symBinAddr: 0x4D6A0, symSize: 0xB0 }
  - { offsetInCU: 0x460E5, offset: 0x188385, size: 0x8, addend: 0x0, symName: '__ZN70_$LT$alloc..vec..Vec$LT$T$C$A$GT$$u20$as$u20$core..ops..drop..Drop$GT$4drop17h5b7ae6227572c299E', symObjAddr: 0xF120, symBinAddr: 0x4D750, symSize: 0x170 }
  - { offsetInCU: 0x46584, offset: 0x188824, size: 0x8, addend: 0x0, symName: '__ZN70_$LT$alloc..vec..Vec$LT$T$C$A$GT$$u20$as$u20$core..ops..drop..Drop$GT$4drop17h7e109ffd634921daE', symObjAddr: 0xF330, symBinAddr: 0x4D8C0, symSize: 0xF0 }
  - { offsetInCU: 0x46935, offset: 0x188BD5, size: 0x8, addend: 0x0, symName: '__ZN70_$LT$alloc..vec..Vec$LT$T$C$A$GT$$u20$as$u20$core..ops..drop..Drop$GT$4drop17hcbc61bd31535e482E', symObjAddr: 0xF9C0, symBinAddr: 0x4D9B0, symSize: 0xB0 }
  - { offsetInCU: 0x473A6, offset: 0x189646, size: 0x8, addend: 0x0, symName: '__ZN5alloc3vec16Vec$LT$T$C$A$GT$6retain28_$u7b$$u7b$closure$u7d$$u7d$17h8f41c1f57838e6daE.llvm.5580126006486427834', symObjAddr: 0xE250, symBinAddr: 0x4D100, symSize: 0xF0 }
  - { offsetInCU: 0x47B98, offset: 0x189E38, size: 0x8, addend: 0x0, symName: '__ZN97_$LT$alloc..vec..Vec$LT$T$C$A$GT$$u20$as$u20$alloc..vec..spec_extend..SpecExtend$LT$T$C$I$GT$$GT$11spec_extend17h1f9f7be0e310d5bfE', symObjAddr: 0xFE50, symBinAddr: 0x4DA60, symSize: 0x120 }
  - { offsetInCU: 0x48061, offset: 0x18A301, size: 0x8, addend: 0x0, symName: '__ZN97_$LT$alloc..vec..Vec$LT$T$C$A$GT$$u20$as$u20$alloc..vec..spec_extend..SpecExtend$LT$T$C$I$GT$$GT$11spec_extend17h8ef4c11274fb783fE', symObjAddr: 0x10060, symBinAddr: 0x4DB80, symSize: 0x440 }
  - { offsetInCU: 0x48D1B, offset: 0x18AFBB, size: 0x8, addend: 0x0, symName: '__ZN98_$LT$alloc..vec..Vec$LT$T$GT$$u20$as$u20$alloc..vec..spec_from_iter..SpecFromIter$LT$T$C$I$GT$$GT$9from_iter17h12a660cde395dabfE', symObjAddr: 0x10650, symBinAddr: 0x4DFC0, symSize: 0x480 }
  - { offsetInCU: 0x4984E, offset: 0x18BAEE, size: 0x8, addend: 0x0, symName: '__ZN98_$LT$alloc..vec..Vec$LT$T$GT$$u20$as$u20$alloc..vec..spec_from_iter..SpecFromIter$LT$T$C$I$GT$$GT$9from_iter17h55013e77217b29e3E', symObjAddr: 0x10AD0, symBinAddr: 0x4E440, symSize: 0x340 }
  - { offsetInCU: 0x4A249, offset: 0x18C4E9, size: 0x8, addend: 0x0, symName: '__ZN98_$LT$alloc..vec..Vec$LT$T$GT$$u20$as$u20$alloc..vec..spec_from_iter..SpecFromIter$LT$T$C$I$GT$$GT$9from_iter17h6a797189cd2a04c8E', symObjAddr: 0x10E10, symBinAddr: 0x4E780, symSize: 0x420 }
  - { offsetInCU: 0x53B67, offset: 0x195E07, size: 0x8, addend: 0x0, symName: '__ZN5alloc3vec16Vec$LT$T$C$A$GT$6retain17h3d7ff13e8df553d0E', symObjAddr: 0xE0E0, symBinAddr: 0x4CF90, symSize: 0x170 }
  - { offsetInCU: 0x1E, offset: 0x19C2AA, size: 0x8, addend: 0x0, symName: __ZN5alloc7raw_vec11finish_grow17hc5b4b1d57224cfb8E.llvm.12558997556824258807, symObjAddr: 0x0, symBinAddr: 0x4EBA0, symSize: 0xA0 }
  - { offsetInCU: 0x6847, offset: 0x1A2AD3, size: 0x8, addend: 0x0, symName: __ZN5alloc7raw_vec11finish_grow17hc5b4b1d57224cfb8E.llvm.12558997556824258807, symObjAddr: 0x0, symBinAddr: 0x4EBA0, symSize: 0xA0 }
  - { offsetInCU: 0x7D11, offset: 0x1A3F9D, size: 0x8, addend: 0x0, symName: '__ZN5alloc7raw_vec19RawVec$LT$T$C$A$GT$7reserve21do_reserve_and_handle17h18b371921caf8f15E', symObjAddr: 0x900, symBinAddr: 0x2AE020, symSize: 0xC0 }
  - { offsetInCU: 0x803F, offset: 0x1A42CB, size: 0x8, addend: 0x0, symName: '__ZN5alloc7raw_vec19RawVec$LT$T$C$A$GT$7reserve21do_reserve_and_handle17h5acedd5a57c530aeE', symObjAddr: 0x9C0, symBinAddr: 0x2AE0E0, symSize: 0xB0 }
  - { offsetInCU: 0x836B, offset: 0x1A45F7, size: 0x8, addend: 0x0, symName: '__ZN5alloc7raw_vec19RawVec$LT$T$C$A$GT$7reserve21do_reserve_and_handle17h613d87ec043ce6ddE', symObjAddr: 0xA70, symBinAddr: 0x2AE190, symSize: 0xC0 }
  - { offsetInCU: 0x8699, offset: 0x1A4925, size: 0x8, addend: 0x0, symName: '__ZN5alloc7raw_vec19RawVec$LT$T$C$A$GT$7reserve21do_reserve_and_handle17h6b9948fa73803293E', symObjAddr: 0xB30, symBinAddr: 0x2AE250, symSize: 0xC0 }
  - { offsetInCU: 0x89C9, offset: 0x1A4C55, size: 0x8, addend: 0x0, symName: '__ZN5alloc7raw_vec19RawVec$LT$T$C$A$GT$7reserve21do_reserve_and_handle17h6bc988cf41dba8f2E', symObjAddr: 0xBF0, symBinAddr: 0x2AE310, symSize: 0x0 }
  - { offsetInCU: 0x8CF7, offset: 0x1A4F83, size: 0x8, addend: 0x0, symName: '__ZN5alloc7raw_vec19RawVec$LT$T$C$A$GT$7reserve21do_reserve_and_handle17ha6896907535c80faE', symObjAddr: 0xCB0, symBinAddr: 0x2AE3D0, symSize: 0xC0 }
  - { offsetInCU: 0x9025, offset: 0x1A52B1, size: 0x8, addend: 0x0, symName: '__ZN5alloc7raw_vec19RawVec$LT$T$C$A$GT$7reserve21do_reserve_and_handle17hd6972c6a76cf241fE', symObjAddr: 0xD70, symBinAddr: 0x2AE490, symSize: 0xA0 }
  - { offsetInCU: 0x10B95, offset: 0x1ACE21, size: 0x8, addend: 0x0, symName: '__ZN5alloc7raw_vec19RawVec$LT$T$C$A$GT$8grow_one17h0739ca266192d227E', symObjAddr: 0xEC0, symBinAddr: 0x4EC40, symSize: 0xB0 }
  - { offsetInCU: 0x1107B, offset: 0x1AD307, size: 0x8, addend: 0x0, symName: '__ZN5alloc7raw_vec19RawVec$LT$T$C$A$GT$8grow_one17h2ec6f84d4d7b2c38E', symObjAddr: 0xF70, symBinAddr: 0x4ECF0, symSize: 0x0 }
  - { offsetInCU: 0x11558, offset: 0x1AD7E4, size: 0x8, addend: 0x0, symName: '__ZN5alloc7raw_vec19RawVec$LT$T$C$A$GT$8grow_one17h351f9ccf385db423E', symObjAddr: 0x1030, symBinAddr: 0x4EDB0, symSize: 0xB0 }
  - { offsetInCU: 0x11A26, offset: 0x1ADCB2, size: 0x8, addend: 0x0, symName: '__ZN5alloc7raw_vec19RawVec$LT$T$C$A$GT$8grow_one17h394a9a58d5a3d4e7E', symObjAddr: 0x10E0, symBinAddr: 0x4EE60, symSize: 0xB0 }
  - { offsetInCU: 0x11EF6, offset: 0x1AE182, size: 0x8, addend: 0x0, symName: '__ZN5alloc7raw_vec19RawVec$LT$T$C$A$GT$8grow_one17h3ca60c13551c367fE', symObjAddr: 0x1190, symBinAddr: 0x4EF10, symSize: 0xC0 }
  - { offsetInCU: 0x12237, offset: 0x1AE4C3, size: 0x8, addend: 0x0, symName: '__ZN5alloc7raw_vec19RawVec$LT$T$C$A$GT$8grow_one17h3d4e347c55347a58E', symObjAddr: 0x1250, symBinAddr: 0x4EFD0, symSize: 0x0 }
  - { offsetInCU: 0x1257A, offset: 0x1AE806, size: 0x8, addend: 0x0, symName: '__ZN5alloc7raw_vec19RawVec$LT$T$C$A$GT$8grow_one17h4afac7fe20eac8b2E', symObjAddr: 0x1310, symBinAddr: 0x4F090, symSize: 0xA0 }
  - { offsetInCU: 0x12A18, offset: 0x1AECA4, size: 0x8, addend: 0x0, symName: '__ZN5alloc7raw_vec19RawVec$LT$T$C$A$GT$8grow_one17h58ab86e84d043fb4E', symObjAddr: 0x13B0, symBinAddr: 0x4F130, symSize: 0xC0 }
  - { offsetInCU: 0x12F41, offset: 0x1AF1CD, size: 0x8, addend: 0x0, symName: '__ZN5alloc7raw_vec19RawVec$LT$T$C$A$GT$8grow_one17h71ef4386f55990b4E', symObjAddr: 0x1470, symBinAddr: 0x4F1F0, symSize: 0xC0 }
  - { offsetInCU: 0x1341E, offset: 0x1AF6AA, size: 0x8, addend: 0x0, symName: '__ZN5alloc7raw_vec19RawVec$LT$T$C$A$GT$8grow_one17h9778004dc380af9aE', symObjAddr: 0x1530, symBinAddr: 0x4F2B0, symSize: 0xB0 }
  - { offsetInCU: 0x13869, offset: 0x1AFAF5, size: 0x8, addend: 0x0, symName: '__ZN5alloc7raw_vec19RawVec$LT$T$C$A$GT$8grow_one17hbc694317c61a7311E', symObjAddr: 0x15E0, symBinAddr: 0x4F360, symSize: 0xC0 }
  - { offsetInCU: 0x13D64, offset: 0x1AFFF0, size: 0x8, addend: 0x0, symName: '__ZN5alloc7raw_vec19RawVec$LT$T$C$A$GT$8grow_one17hc0843507fc5fc72dE', symObjAddr: 0x16A0, symBinAddr: 0x4F420, symSize: 0xC0 }
  - { offsetInCU: 0x14243, offset: 0x1B04CF, size: 0x8, addend: 0x0, symName: '__ZN5alloc7raw_vec19RawVec$LT$T$C$A$GT$8grow_one17hcbe14e391e3ba65bE', symObjAddr: 0x1760, symBinAddr: 0x4F4E0, symSize: 0xC0 }
  - { offsetInCU: 0x1E, offset: 0x1B0927, size: 0x8, addend: 0x0, symName: __ZN3syn3gen5visit10visit_expr17hd6cf09e768cf2c26E, symObjAddr: 0x0, symBinAddr: 0x4F5A0, symSize: 0x1370 }
  - { offsetInCU: 0xAA4A, offset: 0x1BB353, size: 0x8, addend: 0x0, symName: __ZN3syn3gen5visit10visit_expr17hd6cf09e768cf2c26E, symObjAddr: 0x0, symBinAddr: 0x4F5A0, symSize: 0x1370 }
  - { offsetInCU: 0x1195D, offset: 0x1C2266, size: 0x8, addend: 0x0, symName: __ZN3syn3gen5visit10visit_item17h8cb3c1f161ed026cE, symObjAddr: 0x1370, symBinAddr: 0x50910, symSize: 0x1450 }
  - { offsetInCU: 0x1B2E9, offset: 0x1CBBF2, size: 0x8, addend: 0x0, symName: __ZN3syn3gen5visit10visit_meta17h2463f006962f3f0cE, symObjAddr: 0x27C0, symBinAddr: 0x51D60, symSize: 0x490 }
  - { offsetInCU: 0x1D5A9, offset: 0x1CDEB2, size: 0x8, addend: 0x0, symName: __ZN3syn3gen5visit10visit_stmt17h4bb144482e814d76E, symObjAddr: 0x2DD0, symBinAddr: 0x521F0, symSize: 0x60 }
  - { offsetInCU: 0x1D96C, offset: 0x1CE275, size: 0x8, addend: 0x0, symName: __ZN3syn3gen5visit10visit_type17haf93bf3abd97ee5dE, symObjAddr: 0x2E30, symBinAddr: 0x52250, symSize: 0x930 }
  - { offsetInCU: 0x21904, offset: 0x1D220D, size: 0x8, addend: 0x0, symName: __ZN3syn3gen5visit11visit_field17hd7d4faa27f733e1aE, symObjAddr: 0x3860, symBinAddr: 0x52B80, symSize: 0x640 }
  - { offsetInCU: 0x249BC, offset: 0x1D52C5, size: 0x8, addend: 0x0, symName: __ZN3syn3gen5visit11visit_local17hfb207f27bb305674E, symObjAddr: 0x3EA0, symBinAddr: 0x531C0, symSize: 0x4F0 }
  - { offsetInCU: 0x27004, offset: 0x1D790D, size: 0x8, addend: 0x0, symName: __ZN3syn3gen5visit14visit_generics17hf332395b6ea98e6eE, symObjAddr: 0x4980, symBinAddr: 0x536B0, symSize: 0x120 }
  - { offsetInCU: 0x27763, offset: 0x1D806C, size: 0x8, addend: 0x0, symName: __ZN3syn3gen5visit14visit_pat_type17h66cb615bf8dd3c85E, symObjAddr: 0x4C30, symBinAddr: 0x537D0, symSize: 0x4C0 }
  - { offsetInCU: 0x29C0E, offset: 0x1DA517, size: 0x8, addend: 0x0, symName: __ZN3syn3gen5visit14visit_receiver17h214a68d7bc84d604E, symObjAddr: 0x50F0, symBinAddr: 0x53C90, symSize: 0x4D0 }
  - { offsetInCU: 0x2C106, offset: 0x1DCA0F, size: 0x8, addend: 0x0, symName: __ZN3syn3gen5visit15visit_expr_call17h54cb1cf22d0e470aE, symObjAddr: 0x56D0, symBinAddr: 0x54160, symSize: 0x500 }
  - { offsetInCU: 0x2E9F9, offset: 0x1DF302, size: 0x8, addend: 0x0, symName: __ZN3syn3gen5visit15visit_item_enum17h25ccf145e397f63fE, symObjAddr: 0x5EB0, symBinAddr: 0x54660, symSize: 0xD30 }
  - { offsetInCU: 0x351AC, offset: 0x1E5AB5, size: 0x8, addend: 0x0, symName: __ZN3syn3gen5visit15visit_item_impl17h4db0dad6d8314782E, symObjAddr: 0x6BE0, symBinAddr: 0x55390, symSize: 0x820 }
  - { offsetInCU: 0x38C23, offset: 0x1E952C, size: 0x8, addend: 0x0, symName: __ZN3syn3gen5visit15visit_signature17ha4f0292e36394f1dE, symObjAddr: 0x7600, symBinAddr: 0x55BB0, symSize: 0x240 }
  - { offsetInCU: 0x39B24, offset: 0x1EA42D, size: 0x8, addend: 0x0, symName: __ZN3syn3gen5visit16visit_item_trait17h0d7bb8b5f64b465bE, symObjAddr: 0x8570, symBinAddr: 0x55DF0, symSize: 0xA80 }
  - { offsetInCU: 0x3E7CB, offset: 0x1EF0D4, size: 0x8, addend: 0x0, symName: __ZN3syn3gen5visit16visit_pat_struct17h03b462d63bc570c6E, symObjAddr: 0x90B0, symBinAddr: 0x56870, symSize: 0xB60 }
  - { offsetInCU: 0x441D4, offset: 0x1F4ADD, size: 0x8, addend: 0x0, symName: __ZN3syn3gen5visit16visit_stmt_macro17h21085ccf7541f104E, symObjAddr: 0x9C10, symBinAddr: 0x573D0, symSize: 0x0 }
  - { offsetInCU: 0x47208, offset: 0x1F7B11, size: 0x8, addend: 0x0, symName: __ZN3syn3gen5visit16visit_type_param17h62d6836766e01e12E, symObjAddr: 0xA2C0, symBinAddr: 0x579E0, symSize: 0x620 }
  - { offsetInCU: 0x49D5F, offset: 0x1FA668, size: 0x8, addend: 0x0, symName: __ZN3syn3gen5visit17visit_const_param17h6581a1fb3868c696E, symObjAddr: 0xAA90, symBinAddr: 0x58000, symSize: 0x380 }
  - { offsetInCU: 0x4B6FD, offset: 0x1FC006, size: 0x8, addend: 0x0, symName: __ZN3syn3gen5visit17visit_expr_struct17h52933dcb1dd17e5dE, symObjAddr: 0xAEF0, symBinAddr: 0x58380, symSize: 0xB40 }
  - { offsetInCU: 0x50F3F, offset: 0x201848, size: 0x8, addend: 0x0, symName: __ZN3syn3gen5visit17visit_trait_bound17hbe3a765288c9fa3eE, symObjAddr: 0xBD60, symBinAddr: 0x58EC0, symSize: 0x1F0 }
  - { offsetInCU: 0x51DA7, offset: 0x2026B0, size: 0x8, addend: 0x0, symName: __ZN3syn3gen5visit18visit_expr_closure17h799f69099977741dE, symObjAddr: 0xBF50, symBinAddr: 0x590B0, symSize: 0x5C0 }
  - { offsetInCU: 0x54AA5, offset: 0x2053AE, size: 0x8, addend: 0x0, symName: __ZN3syn3gen5visit18visit_fields_named17ha913c4e27e94d4bdE, symObjAddr: 0xC510, symBinAddr: 0x59670, symSize: 0x6C0 }
  - { offsetInCU: 0x57F72, offset: 0x20887B, size: 0x8, addend: 0x0, symName: __ZN3syn3gen5visit18visit_foreign_item17hd969b2cd9cb49df0E, symObjAddr: 0xCBD0, symBinAddr: 0x59D30, symSize: 0x770 }
  - { offsetInCU: 0x5B702, offset: 0x20C00B, size: 0x8, addend: 0x0, symName: __ZN3syn3gen5visit18visit_impl_item_fn17h5c6dda07a94dd940E, symObjAddr: 0xD340, symBinAddr: 0x5A4A0, symSize: 0x670 }
  - { offsetInCU: 0x5E9BC, offset: 0x20F2C5, size: 0x8, addend: 0x0, symName: __ZN3syn3gen5visit18visit_type_bare_fn17h0b3f18b4d793c710E, symObjAddr: 0xD9B0, symBinAddr: 0x5AB10, symSize: 0x6B0 }
  - { offsetInCU: 0x61871, offset: 0x21217A, size: 0x8, addend: 0x0, symName: __ZN3syn3gen5visit19visit_trait_item_fn17h9ff3a43d6d7c424fE, symObjAddr: 0xE3E0, symBinAddr: 0x5B1C0, symSize: 0x500 }
  - { offsetInCU: 0x63EAB, offset: 0x2147B4, size: 0x8, addend: 0x0, symName: __ZN3syn3gen5visit20visit_impl_item_type17he9fb20f0d7b846b7E, symObjAddr: 0xE9A0, symBinAddr: 0x5B6C0, symSize: 0x770 }
  - { offsetInCU: 0x676ED, offset: 0x217FF6, size: 0x8, addend: 0x0, symName: __ZN3syn3gen5visit20visit_lifetime_param17hceb2be56d1e6e60bE, symObjAddr: 0xF110, symBinAddr: 0x5BE30, symSize: 0x4A0 }
  - { offsetInCU: 0x69774, offset: 0x21A07D, size: 0x8, addend: 0x0, symName: __ZN3syn3gen5visit20visit_predicate_type17h7e214c897c19d796E, symObjAddr: 0xF6B0, symBinAddr: 0x5C2D0, symSize: 0x380 }
  - { offsetInCU: 0x6ADFF, offset: 0x21B708, size: 0x8, addend: 0x0, symName: __ZN3syn3gen5visit21visit_impl_item_const17h52355b0337e4658eE, symObjAddr: 0xFB90, symBinAddr: 0x5C650, symSize: 0x780 }
  - { offsetInCU: 0x6E667, offset: 0x21EF70, size: 0x8, addend: 0x0, symName: __ZN3syn3gen5visit21visit_trait_item_type17h4c92e1f8d5bd808bE, symObjAddr: 0x10310, symBinAddr: 0x5CDD0, symSize: 0x880 }
  - { offsetInCU: 0x72598, offset: 0x222EA1, size: 0x8, addend: 0x0, symName: __ZN3syn3gen5visit21visit_where_predicate17he0b267e866adf12fE, symObjAddr: 0x10C50, symBinAddr: 0x5D650, symSize: 0x3A0 }
  - { offsetInCU: 0x73C6B, offset: 0x224574, size: 0x8, addend: 0x0, symName: __ZN3syn3gen5visit22visit_expr_method_call17h370303d49dc6252eE, symObjAddr: 0x10FF0, symBinAddr: 0x5D9F0, symSize: 0x560 }
  - { offsetInCU: 0x768B6, offset: 0x2271BF, size: 0x8, addend: 0x0, symName: __ZN3syn3gen5visit22visit_generic_argument17h63ca50eab68bb7bbE, symObjAddr: 0x11550, symBinAddr: 0x5DF50, symSize: 0x280 }
  - { offsetInCU: 0x7783D, offset: 0x228146, size: 0x8, addend: 0x0, symName: __ZN3syn3gen5visit22visit_item_trait_alias17hd82711e3c7763d9eE, symObjAddr: 0x11860, symBinAddr: 0x5E1D0, symSize: 0x9C0 }
  - { offsetInCU: 0x7C248, offset: 0x22CB51, size: 0x8, addend: 0x0, symName: __ZN3syn3gen5visit22visit_pat_tuple_struct17h9c91bf6ef7e8e3e0E, symObjAddr: 0x12220, symBinAddr: 0x5EB90, symSize: 0x660 }
  - { offsetInCU: 0x7F608, offset: 0x22FF11, size: 0x8, addend: 0x0, symName: __ZN3syn3gen5visit22visit_trait_item_const17h4f254da5f6ba5f39E, symObjAddr: 0x12880, symBinAddr: 0x5F1F0, symSize: 0x610 }
  - { offsetInCU: 0x822D6, offset: 0x232BDF, size: 0x8, addend: 0x0, symName: __ZN3syn3gen5visit9visit_arm17hd44a4c65caa08ac5E, symObjAddr: 0x13210, symBinAddr: 0x5F800, symSize: 0x4E0 }
  - { offsetInCU: 0x84AF3, offset: 0x2353FC, size: 0x8, addend: 0x0, symName: __ZN3syn3gen5visit9visit_pat17h8773f2b43697706aE, symObjAddr: 0x136F0, symBinAddr: 0x5FCE0, symSize: 0x848 }
  - { offsetInCU: 0x1BFA, offset: 0x24799F, size: 0x8, addend: 0x0, symName: '__ZN4core3ptr100drop_in_place$LT$core..option..Option$LT$alloc..boxed..Box$LT$syn..path..GenericArgument$GT$$GT$$GT$17h57a5558e267c0aa5E', symObjAddr: 0x130, symBinAddr: 0x60530, symSize: 0x50 }
  - { offsetInCU: 0x1F98, offset: 0x247D3D, size: 0x8, addend: 0x0, symName: '__ZN4core3ptr100drop_in_place$LT$syn..punctuated..Punctuated$LT$syn..path..PathSegment$C$syn..token..PathSep$GT$$GT$17h8f618be881a86ee0E', symObjAddr: 0x180, symBinAddr: 0x60580, symSize: 0x270 }
  - { offsetInCU: 0x293B, offset: 0x2486E0, size: 0x8, addend: 0x0, symName: '__ZN4core3ptr103drop_in_place$LT$core..option..Option$LT$alloc..boxed..Box$LT$syn..generics..TypeParamBound$GT$$GT$$GT$17hd35dab8117a0a53fE', symObjAddr: 0x3F0, symBinAddr: 0x607F0, symSize: 0x50 }
  - { offsetInCU: 0x2B84, offset: 0x248929, size: 0x8, addend: 0x0, symName: '__ZN4core3ptr103drop_in_place$LT$core..option..Option$LT$alloc..boxed..Box$LT$syn..generics..WherePredicate$GT$$GT$$GT$17h1bdc11655d4045e2E', symObjAddr: 0x440, symBinAddr: 0x60840, symSize: 0xD0 }
  - { offsetInCU: 0x2F18, offset: 0x248CBD, size: 0x8, addend: 0x0, symName: '__ZN4core3ptr103drop_in_place$LT$syn..punctuated..Punctuated$LT$syn..generics..GenericParam$C$syn..token..Comma$GT$$GT$17h7f466bbfdffc79f8E', symObjAddr: 0x510, symBinAddr: 0x60910, symSize: 0xF0 }
  - { offsetInCU: 0x33B6, offset: 0x24915B, size: 0x8, addend: 0x0, symName: '__ZN4core3ptr104drop_in_place$LT$syn..punctuated..Punctuated$LT$syn..generics..TypeParamBound$C$syn..token..Plus$GT$$GT$17h94179c83f1bdbd23E', symObjAddr: 0x600, symBinAddr: 0x60A00, symSize: 0x190 }
  - { offsetInCU: 0x39D9, offset: 0x24977E, size: 0x8, addend: 0x0, symName: '__ZN4core3ptr115drop_in_place$LT$core..option..Option$LT$$LP$alloc..boxed..Box$LT$syn..pat..Pat$GT$$C$syn..token..Colon$RP$$GT$$GT$17h8317a6e8f015f476E', symObjAddr: 0x790, symBinAddr: 0x60B90, symSize: 0x50 }
  - { offsetInCU: 0x3B88, offset: 0x24992D, size: 0x8, addend: 0x0, symName: '__ZN4core3ptr126drop_in_place$LT$core..option..Option$LT$$LP$syn..token..And$C$core..option..Option$LT$syn..lifetime..Lifetime$GT$$RP$$GT$$GT$17hb8cf558803387ebcE', symObjAddr: 0x7E0, symBinAddr: 0x60BE0, symSize: 0x30 }
  - { offsetInCU: 0x3D9B, offset: 0x249B40, size: 0x8, addend: 0x0, symName: '__ZN4core3ptr34drop_in_place$LT$syn..lit..Lit$GT$17hee573645253c1240E', symObjAddr: 0x810, symBinAddr: 0x60C10, symSize: 0x120 }
  - { offsetInCU: 0x426A, offset: 0x24A00F, size: 0x8, addend: 0x0, symName: '__ZN4core3ptr34drop_in_place$LT$syn..pat..Pat$GT$17h973f87584b174815E', symObjAddr: 0x930, symBinAddr: 0x60D30, symSize: 0x1090 }
  - { offsetInCU: 0x824B, offset: 0x24DFF0, size: 0x8, addend: 0x0, symName: '__ZN4core3ptr34drop_in_place$LT$syn..ty..Type$GT$17h3ae90635bb8b5dc2E', symObjAddr: 0x19C0, symBinAddr: 0x61DC0, symSize: 0x4F0 }
  - { offsetInCU: 0x978E, offset: 0x24F533, size: 0x8, addend: 0x0, symName: '__ZN4core3ptr36drop_in_place$LT$syn..expr..Expr$GT$17hec1898832a7659fcE', symObjAddr: 0x1EB0, symBinAddr: 0x622B0, symSize: 0x27D0 }
  - { offsetInCU: 0x12EC2, offset: 0x258C67, size: 0x8, addend: 0x0, symName: '__ZN4core3ptr36drop_in_place$LT$syn..mac..Macro$GT$17hee38913ef8f169faE', symObjAddr: 0x4680, symBinAddr: 0x64A80, symSize: 0x40 }
  - { offsetInCU: 0x12EFC, offset: 0x258CA1, size: 0x8, addend: 0x0, symName: '__ZN4core3ptr36drop_in_place$LT$syn..path..Path$GT$17h1bbd58c3d6dc291aE', symObjAddr: 0x46C0, symBinAddr: 0x64AC0, symSize: 0x240 }
  - { offsetInCU: 0x138D4, offset: 0x259679, size: 0x8, addend: 0x0, symName: '__ZN4core3ptr37drop_in_place$LT$syn..item..FnArg$GT$17hd30d7c718e68f508E.llvm.16198355579193611037', symObjAddr: 0x4900, symBinAddr: 0x64D00, symSize: 0x230 }
  - { offsetInCU: 0x14186, offset: 0x259F2B, size: 0x8, addend: 0x0, symName: '__ZN4core3ptr37drop_in_place$LT$syn..stmt..Block$GT$17h3a3c4aa9f1407e4cE', symObjAddr: 0x4B30, symBinAddr: 0x64F30, symSize: 0xD0 }
  - { offsetInCU: 0x1445D, offset: 0x25A202, size: 0x8, addend: 0x0, symName: '__ZN4core3ptr38drop_in_place$LT$syn..expr..Member$GT$17h11f93a48e3da0c5fE', symObjAddr: 0x4C00, symBinAddr: 0x65000, symSize: 0x30 }
  - { offsetInCU: 0x14559, offset: 0x25A2FE, size: 0x8, addend: 0x0, symName: '__ZN4core3ptr39drop_in_place$LT$proc_macro2..Ident$GT$17h78274ef0131bd7beE', symObjAddr: 0x4C30, symBinAddr: 0x65030, symSize: 0x30 }
  - { offsetInCU: 0x14636, offset: 0x25A3DB, size: 0x8, addend: 0x0, symName: '__ZN4core3ptr40drop_in_place$LT$syn..ty..ReturnType$GT$17h5fc392ae06958c38E', symObjAddr: 0x4C60, symBinAddr: 0x65060, symSize: 0x50 }
  - { offsetInCU: 0x147A6, offset: 0x25A54B, size: 0x8, addend: 0x0, symName: '__ZN4core3ptr41drop_in_place$LT$syn..expr..ExprConst$GT$17h5c5bfa544cf2da15E', symObjAddr: 0x4CB0, symBinAddr: 0x650B0, symSize: 0x180 }
  - { offsetInCU: 0x14D7E, offset: 0x25AB23, size: 0x8, addend: 0x0, symName: '__ZN4core3ptr41drop_in_place$LT$syn..item..Signature$GT$17ha66890d0d99c15a5E', symObjAddr: 0x4E30, symBinAddr: 0x65230, symSize: 0x150 }
  - { offsetInCU: 0x1544F, offset: 0x25B1F4, size: 0x8, addend: 0x0, symName: '__ZN4core3ptr43drop_in_place$LT$proc_macro2..TokenTree$GT$17hac9406466e35ddb4E.llvm.16198355579193611037', symObjAddr: 0x4F80, symBinAddr: 0x65380, symSize: 0xB0 }
  - { offsetInCU: 0x15883, offset: 0x25B628, size: 0x8, addend: 0x0, symName: '__ZN4core3ptr43drop_in_place$LT$syn..item..ForeignItem$GT$17h8da552977607dc3eE.llvm.16198355579193611037', symObjAddr: 0x5030, symBinAddr: 0x65430, symSize: 0x530 }
  - { offsetInCU: 0x16B44, offset: 0x25C8E9, size: 0x8, addend: 0x0, symName: '__ZN4core3ptr44drop_in_place$LT$syn..generics..Generics$GT$17h10b1829060b95b1bE', symObjAddr: 0x5560, symBinAddr: 0x65960, symSize: 0x40 }
  - { offsetInCU: 0x16B61, offset: 0x25C906, size: 0x8, addend: 0x0, symName: '__ZN4core3ptr44drop_in_place$LT$syn..lifetime..Lifetime$GT$17h6e42d75874321b11E', symObjAddr: 0x55A0, symBinAddr: 0x659A0, symSize: 0x30 }
  - { offsetInCU: 0x16CF8, offset: 0x25CA9D, size: 0x8, addend: 0x0, symName: '__ZN4core3ptr45drop_in_place$LT$proc_macro2..TokenStream$GT$17h3de86edc178dbdf7E', symObjAddr: 0x55D0, symBinAddr: 0x659D0, symSize: 0x140 }
  - { offsetInCU: 0x17192, offset: 0x25CF37, size: 0x8, addend: 0x0, symName: '__ZN4core3ptr45drop_in_place$LT$syn..generics..TypeParam$GT$17hcf09314885b07e76E', symObjAddr: 0x5710, symBinAddr: 0x65B10, symSize: 0x230 }
  - { offsetInCU: 0x179D3, offset: 0x25D778, size: 0x8, addend: 0x0, symName: '__ZN4core3ptr46drop_in_place$LT$syn..generics..ConstParam$GT$17hc257e156a7125459E', symObjAddr: 0x5940, symBinAddr: 0x65D40, symSize: 0x150 }
  - { offsetInCU: 0x17E20, offset: 0x25DBC5, size: 0x8, addend: 0x0, symName: '__ZN4core3ptr47drop_in_place$LT$syn..path..GenericArgument$GT$17h468af66cc22ee749E', symObjAddr: 0x5A90, symBinAddr: 0x65E90, symSize: 0x4A0 }
  - { offsetInCU: 0x18F26, offset: 0x25ECCB, size: 0x8, addend: 0x0, symName: '__ZN4core3ptr49drop_in_place$LT$syn..generics..LifetimeParam$GT$17h9ae69bbe86531da0E', symObjAddr: 0x5F30, symBinAddr: 0x66330, symSize: 0xF0 }
  - { offsetInCU: 0x19309, offset: 0x25F0AE, size: 0x8, addend: 0x0, symName: '__ZN4core3ptr49drop_in_place$LT$syn..restriction..Visibility$GT$17h83ceef089d938a49E', symObjAddr: 0x6020, symBinAddr: 0x66420, symSize: 0x60 }
  - { offsetInCU: 0x1947A, offset: 0x25F21F, size: 0x8, addend: 0x0, symName: '__ZN4core3ptr50drop_in_place$LT$syn..generics..TypeParamBound$GT$17he4fe30d10954a629E', symObjAddr: 0x6080, symBinAddr: 0x66480, symSize: 0x180 }
  - { offsetInCU: 0x198C4, offset: 0x25F669, size: 0x8, addend: 0x0, symName: '__ZN4core3ptr58drop_in_place$LT$alloc..vec..Vec$LT$syn..expr..Arm$GT$$GT$17h14e2e22a7226ddf8E', symObjAddr: 0x6200, symBinAddr: 0x66600, symSize: 0xD0 }
  - { offsetInCU: 0x19B84, offset: 0x25F929, size: 0x8, addend: 0x0, symName: '__ZN4core3ptr59drop_in_place$LT$alloc..boxed..Box$LT$syn..pat..Pat$GT$$GT$17h50d0c33df1b13ff6E', symObjAddr: 0x62D0, symBinAddr: 0x666D0, symSize: 0x50 }
  - { offsetInCU: 0x19CDD, offset: 0x25FA82, size: 0x8, addend: 0x0, symName: '__ZN4core3ptr59drop_in_place$LT$alloc..boxed..Box$LT$syn..ty..Type$GT$$GT$17h7bcc4a34581ddba7E', symObjAddr: 0x6320, symBinAddr: 0x66720, symSize: 0x50 }
  - { offsetInCU: 0x19E36, offset: 0x25FBDB, size: 0x8, addend: 0x0, symName: '__ZN4core3ptr61drop_in_place$LT$alloc..boxed..Box$LT$syn..expr..Expr$GT$$GT$17h2f5fb41dd226c4deE', symObjAddr: 0x6370, symBinAddr: 0x66770, symSize: 0x50 }
  - { offsetInCU: 0x1A00B, offset: 0x25FDB0, size: 0x8, addend: 0x0, symName: '__ZN4core3ptr61drop_in_place$LT$syn..path..ParenthesizedGenericArguments$GT$17h490a82a7318211d4E', symObjAddr: 0x63C0, symBinAddr: 0x667C0, symSize: 0x170 }
  - { offsetInCU: 0x1A601, offset: 0x2603A6, size: 0x8, addend: 0x0, symName: '__ZN4core3ptr62drop_in_place$LT$syn..path..AngleBracketedGenericArguments$GT$17h1669e24b2478d11dE', symObjAddr: 0x6530, symBinAddr: 0x66930, symSize: 0x120 }
  - { offsetInCU: 0x1AA4C, offset: 0x2607F1, size: 0x8, addend: 0x0, symName: '__ZN4core3ptr63drop_in_place$LT$alloc..boxed..Box$LT$syn..lit..LitRepr$GT$$GT$17h3db95a238b447968E', symObjAddr: 0x6650, symBinAddr: 0x66A50, symSize: 0x60 }
  - { offsetInCU: 0x1AD53, offset: 0x260AF8, size: 0x8, addend: 0x0, symName: '__ZN4core3ptr64drop_in_place$LT$alloc..boxed..Box$LT$syn..pat..FieldPat$GT$$GT$17h90926d8c1a4ddae4E', symObjAddr: 0x66B0, symBinAddr: 0x66AB0, symSize: 0x140 }
  - { offsetInCU: 0x1B420, offset: 0x2611C5, size: 0x8, addend: 0x0, symName: '__ZN4core3ptr64drop_in_place$LT$alloc..boxed..Box$LT$syn..ty..BareFnArg$GT$$GT$17h0f95c2c81efdd59dE', symObjAddr: 0x67F0, symBinAddr: 0x66BF0, symSize: 0x140 }
  - { offsetInCU: 0x1B975, offset: 0x26171A, size: 0x8, addend: 0x0, symName: '__ZN4core3ptr65drop_in_place$LT$alloc..vec..Vec$LT$proc_macro..TokenTree$GT$$GT$17h3cc592fdbb1600b7E', symObjAddr: 0x6930, symBinAddr: 0x66D30, symSize: 0x110 }
  - { offsetInCU: 0x1BD6D, offset: 0x261B12, size: 0x8, addend: 0x0, symName: '__ZN4core3ptr65drop_in_place$LT$core..option..Option$LT$syn..expr..Label$GT$$GT$17heefd36b73aa6dbbbE', symObjAddr: 0x6A40, symBinAddr: 0x66E40, symSize: 0x30 }
  - { offsetInCU: 0x1BEA7, offset: 0x261C4C, size: 0x8, addend: 0x0, symName: '__ZN4core3ptr66drop_in_place$LT$core..option..Option$LT$syn..pat..PatRest$GT$$GT$17h122af7de33a39a61E', symObjAddr: 0x6A70, symBinAddr: 0x66E70, symSize: 0xE0 }
  - { offsetInCU: 0x1C19B, offset: 0x261F40, size: 0x8, addend: 0x0, symName: '__ZN4core3ptr67drop_in_place$LT$alloc..boxed..Box$LT$syn..expr..FieldValue$GT$$GT$17h67591aed16e5fd17E', symObjAddr: 0x6B50, symBinAddr: 0x66F50, symSize: 0x140 }
  - { offsetInCU: 0x1C6D0, offset: 0x262475, size: 0x8, addend: 0x0, symName: '__ZN4core3ptr68drop_in_place$LT$alloc..boxed..Box$LT$syn..path..PathSegment$GT$$GT$17h7d0321f5cdfba0dbE', symObjAddr: 0x6C90, symBinAddr: 0x67090, symSize: 0x1B0 }
  - { offsetInCU: 0x1CDFD, offset: 0x262BA2, size: 0x8, addend: 0x0, symName: '__ZN4core3ptr68drop_in_place$LT$core..option..Option$LT$syn..item..Variadic$GT$$GT$17he52ff5ef75a791c9E', symObjAddr: 0x6E40, symBinAddr: 0x67240, symSize: 0x120 }
  - { offsetInCU: 0x1D2F9, offset: 0x26309E, size: 0x8, addend: 0x0, symName: '__ZN4core3ptr68drop_in_place$LT$wasm_bindgen_macro_support..parser..BindgenAttr$GT$17he2d7d5b74e7c4901E.llvm.16198355579193611037', symObjAddr: 0x6F60, symBinAddr: 0x67360, symSize: 0x1B0 }
  - { offsetInCU: 0x1D7CF, offset: 0x263574, size: 0x8, addend: 0x0, symName: '__ZN4core3ptr70drop_in_place$LT$core..option..Option$LT$syn..ty..BareVariadic$GT$$GT$17hca3e4002aff8883fE', symObjAddr: 0x7110, symBinAddr: 0x67510, symSize: 0x100 }
  - { offsetInCU: 0x1DC06, offset: 0x2639AB, size: 0x8, addend: 0x0, symName: '__ZN4core3ptr72drop_in_place$LT$alloc..boxed..Box$LT$syn..path..GenericArgument$GT$$GT$17h85ff28da2594c421E', symObjAddr: 0x7210, symBinAddr: 0x67610, symSize: 0x1D0 }
  - { offsetInCU: 0x1E1A1, offset: 0x263F46, size: 0x8, addend: 0x0, symName: '__ZN4core3ptr72drop_in_place$LT$core..option..Option$LT$syn..lifetime..Lifetime$GT$$GT$17hfee4ffb29eba4fc9E', symObjAddr: 0x73E0, symBinAddr: 0x677E0, symSize: 0x30 }
  - { offsetInCU: 0x1E2BC, offset: 0x264061, size: 0x8, addend: 0x0, symName: '__ZN4core3ptr73drop_in_place$LT$alloc..boxed..Box$LT$syn..generics..GenericParam$GT$$GT$17hce03ddb06f310207E', symObjAddr: 0x7410, symBinAddr: 0x67810, symSize: 0x80 }
  - { offsetInCU: 0x1E432, offset: 0x2641D7, size: 0x8, addend: 0x0, symName: '__ZN4core3ptr75drop_in_place$LT$alloc..boxed..Box$LT$syn..generics..TypeParamBound$GT$$GT$17h9abbd9006a1d5cd9E', symObjAddr: 0x7490, symBinAddr: 0x67890, symSize: 0xC0 }
  - { offsetInCU: 0x1E7A5, offset: 0x26454A, size: 0x8, addend: 0x0, symName: '__ZN4core3ptr75drop_in_place$LT$core..option..Option$LT$syn..generics..WhereClause$GT$$GT$17h40f934b6c21d874fE', symObjAddr: 0x7550, symBinAddr: 0x67950, symSize: 0x90 }
  - { offsetInCU: 0x1EA99, offset: 0x26483E, size: 0x8, addend: 0x0, symName: '__ZN4core3ptr86drop_in_place$LT$syn..punctuated..Punctuated$LT$syn..pat..Pat$C$syn..token..Or$GT$$GT$17h7580e44fbb73d60bE', symObjAddr: 0x75E0, symBinAddr: 0x679E0, symSize: 0x120 }
  - { offsetInCU: 0x1EF14, offset: 0x264CB9, size: 0x8, addend: 0x0, symName: '__ZN4core3ptr87drop_in_place$LT$core..option..Option$LT$alloc..boxed..Box$LT$syn..pat..Pat$GT$$GT$$GT$17h0af17f6f14c9379aE', symObjAddr: 0x7700, symBinAddr: 0x67B00, symSize: 0x50 }
  - { offsetInCU: 0x1F084, offset: 0x264E29, size: 0x8, addend: 0x0, symName: '__ZN4core3ptr87drop_in_place$LT$core..option..Option$LT$alloc..boxed..Box$LT$syn..ty..Type$GT$$GT$$GT$17h115b882e05437c86E', symObjAddr: 0x7750, symBinAddr: 0x67B50, symSize: 0x50 }
  - { offsetInCU: 0x1F1F4, offset: 0x264F99, size: 0x8, addend: 0x0, symName: '__ZN4core3ptr89drop_in_place$LT$core..option..Option$LT$alloc..boxed..Box$LT$syn..expr..Expr$GT$$GT$$GT$17he3e67d25883b4389E', symObjAddr: 0x77A0, symBinAddr: 0x67BA0, symSize: 0x50 }
  - { offsetInCU: 0x1F3A2, offset: 0x265147, size: 0x8, addend: 0x0, symName: '__ZN4core3ptr89drop_in_place$LT$syn..punctuated..Punctuated$LT$syn..pat..Pat$C$syn..token..Comma$GT$$GT$17hd0f680a310102099E', symObjAddr: 0x77F0, symBinAddr: 0x67BF0, symSize: 0x120 }
  - { offsetInCU: 0x1F834, offset: 0x2655D9, size: 0x8, addend: 0x0, symName: '__ZN4core3ptr89drop_in_place$LT$syn..punctuated..Punctuated$LT$syn..ty..Type$C$syn..token..Comma$GT$$GT$17h3e0bdfd750c7e7c3E', symObjAddr: 0x7910, symBinAddr: 0x67D10, symSize: 0x120 }
  - { offsetInCU: 0x1FCCE, offset: 0x265A73, size: 0x8, addend: 0x0, symName: '__ZN4core3ptr90drop_in_place$LT$core..option..Option$LT$alloc..boxed..Box$LT$syn..item..FnArg$GT$$GT$$GT$17h20030a0d77da3dbdE', symObjAddr: 0x7A30, symBinAddr: 0x67E30, symSize: 0x50 }
  - { offsetInCU: 0x1FE31, offset: 0x265BD6, size: 0x8, addend: 0x0, symName: '__ZN4core3ptr90drop_in_place$LT$core..option..Option$LT$syn..path..AngleBracketedGenericArguments$GT$$GT$17h6bb71941a5735759E', symObjAddr: 0x7A80, symBinAddr: 0x67E80, symSize: 0x130 }
  - { offsetInCU: 0x202D3, offset: 0x266078, size: 0x8, addend: 0x0, symName: '__ZN4core3ptr91drop_in_place$LT$syn..punctuated..Punctuated$LT$syn..expr..Expr$C$syn..token..Comma$GT$$GT$17h2f01a48d43db64beE', symObjAddr: 0x7BB0, symBinAddr: 0x67FB0, symSize: 0x120 }
  - { offsetInCU: 0x207BE, offset: 0x266563, size: 0x8, addend: 0x0, symName: '__ZN4core3ptr92drop_in_place$LT$syn..punctuated..Punctuated$LT$syn..item..FnArg$C$syn..token..Comma$GT$$GT$17h96e6da634d2aecfdE', symObjAddr: 0x7CD0, symBinAddr: 0x680D0, symSize: 0x130 }
  - { offsetInCU: 0x20C24, offset: 0x2669C9, size: 0x8, addend: 0x0, symName: '__ZN4core3ptr94drop_in_place$LT$syn..punctuated..Punctuated$LT$syn..pat..FieldPat$C$syn..token..Comma$GT$$GT$17h1420eba3f01509f6E', symObjAddr: 0x7E00, symBinAddr: 0x68200, symSize: 0xF0 }
  - { offsetInCU: 0x20F23, offset: 0x266CC8, size: 0x8, addend: 0x0, symName: '__ZN4core3ptr94drop_in_place$LT$syn..punctuated..Punctuated$LT$syn..ty..BareFnArg$C$syn..token..Comma$GT$$GT$17h96c674e9d142553fE', symObjAddr: 0x7EF0, symBinAddr: 0x682F0, symSize: 0xF0 }
  - { offsetInCU: 0x21224, offset: 0x266FC9, size: 0x8, addend: 0x0, symName: '__ZN4core3ptr96drop_in_place$LT$core..option..Option$LT$alloc..boxed..Box$LT$syn..path..PathSegment$GT$$GT$$GT$17hcd3eda3806df5f3aE', symObjAddr: 0x7FE0, symBinAddr: 0x683E0, symSize: 0xA0 }
  - { offsetInCU: 0x214A3, offset: 0x267248, size: 0x8, addend: 0x0, symName: '__ZN4core3ptr97drop_in_place$LT$syn..punctuated..Punctuated$LT$syn..expr..FieldValue$C$syn..token..Comma$GT$$GT$17hd26eb8b5d8a23419E', symObjAddr: 0x8080, symBinAddr: 0x68480, symSize: 0xF0 }
  - { offsetInCU: 0x217A0, offset: 0x267545, size: 0x8, addend: 0x0, symName: '__ZN4core3ptr98drop_in_place$LT$alloc..vec..Vec$LT$$LP$syn..path..GenericArgument$C$syn..token..Comma$RP$$GT$$GT$17hea1d5c3a538d7748E', symObjAddr: 0x8170, symBinAddr: 0x68570, symSize: 0xD0 }
  - { offsetInCU: 0x21AE0, offset: 0x267885, size: 0x8, addend: 0x0, symName: '__ZN4core3ptr98drop_in_place$LT$syn..punctuated..Punctuated$LT$syn..lifetime..Lifetime$C$syn..token..Plus$GT$$GT$17hb40bd2b31d61c61aE', symObjAddr: 0x8240, symBinAddr: 0x68640, symSize: 0xD0 }
  - { offsetInCU: 0x25CE9, offset: 0x26BA8E, size: 0x8, addend: 0x0, symName: '__ZN86_$LT$alloc..vec..into_iter..IntoIter$LT$T$C$A$GT$$u20$as$u20$core..ops..drop..Drop$GT$4drop17h1f69265b94aee5d5E', symObjAddr: 0x8310, symBinAddr: 0x68710, symSize: 0xE0 }
  - { offsetInCU: 0x26088, offset: 0x26BE2D, size: 0x8, addend: 0x0, symName: '__ZN86_$LT$alloc..vec..into_iter..IntoIter$LT$T$C$A$GT$$u20$as$u20$core..ops..drop..Drop$GT$4drop17h29fbbe0880890074E', symObjAddr: 0x83F0, symBinAddr: 0x687F0, symSize: 0xF0 }
  - { offsetInCU: 0x2642E, offset: 0x26C1D3, size: 0x8, addend: 0x0, symName: '__ZN86_$LT$alloc..vec..into_iter..IntoIter$LT$T$C$A$GT$$u20$as$u20$core..ops..drop..Drop$GT$4drop17h68f7108cc179d4a2E', symObjAddr: 0x84E0, symBinAddr: 0x688E0, symSize: 0xF0 }
  - { offsetInCU: 0x2679C, offset: 0x26C541, size: 0x8, addend: 0x0, symName: '__ZN86_$LT$alloc..vec..into_iter..IntoIter$LT$T$C$A$GT$$u20$as$u20$core..ops..drop..Drop$GT$4drop17h6dfa288a07c4562eE', symObjAddr: 0x85D0, symBinAddr: 0x689D0, symSize: 0xF0 }
  - { offsetInCU: 0x26B0A, offset: 0x26C8AF, size: 0x8, addend: 0x0, symName: '__ZN86_$LT$alloc..vec..into_iter..IntoIter$LT$T$C$A$GT$$u20$as$u20$core..ops..drop..Drop$GT$4drop17h788476cbb3250b20E', symObjAddr: 0x86C0, symBinAddr: 0x68AC0, symSize: 0xD0 }
  - { offsetInCU: 0x26E75, offset: 0x26CC1A, size: 0x8, addend: 0x0, symName: '__ZN86_$LT$alloc..vec..into_iter..IntoIter$LT$T$C$A$GT$$u20$as$u20$core..ops..drop..Drop$GT$4drop17h9b05d6f97ca3a4acE', symObjAddr: 0x87C0, symBinAddr: 0x68B90, symSize: 0xF0 }
  - { offsetInCU: 0x271E4, offset: 0x26CF89, size: 0x8, addend: 0x0, symName: '__ZN86_$LT$alloc..vec..into_iter..IntoIter$LT$T$C$A$GT$$u20$as$u20$core..ops..drop..Drop$GT$4drop17haebc8d77f9771a91E', symObjAddr: 0x88B0, symBinAddr: 0x68C80, symSize: 0x105 }
  - { offsetInCU: 0x20CD, offset: 0x2797ED, size: 0x8, addend: 0x0, symName: '__ZN4core3ptr100drop_in_place$LT$core..option..Option$LT$alloc..boxed..Box$LT$syn..path..GenericArgument$GT$$GT$$GT$17h57a5558e267c0aa5E', symObjAddr: 0x30, symBinAddr: 0x68D90, symSize: 0x50 }
  - { offsetInCU: 0x229A, offset: 0x2799BA, size: 0x8, addend: 0x0, symName: '__ZN4core3ptr102drop_in_place$LT$syn..punctuated..Punctuated$LT$syn..path..GenericArgument$C$syn..token..Comma$GT$$GT$17h6569f8cea27daa1fE', symObjAddr: 0x80, symBinAddr: 0x68DE0, symSize: 0xF0 }
  - { offsetInCU: 0x25BA, offset: 0x279CDA, size: 0x8, addend: 0x0, symName: '__ZN4core3ptr103drop_in_place$LT$core..option..Option$LT$alloc..boxed..Box$LT$syn..generics..TypeParamBound$GT$$GT$$GT$17hd35dab8117a0a53fE', symObjAddr: 0x170, symBinAddr: 0x68ED0, symSize: 0x50 }
  - { offsetInCU: 0x287F, offset: 0x279F9F, size: 0x8, addend: 0x0, symName: '__ZN4core3ptr103drop_in_place$LT$core..option..Option$LT$alloc..boxed..Box$LT$syn..generics..WherePredicate$GT$$GT$$GT$17h1bdc11655d4045e2E', symObjAddr: 0x1C0, symBinAddr: 0x68F20, symSize: 0xD0 }
  - { offsetInCU: 0x2C13, offset: 0x27A333, size: 0x8, addend: 0x0, symName: '__ZN4core3ptr103drop_in_place$LT$syn..punctuated..Punctuated$LT$syn..generics..GenericParam$C$syn..token..Comma$GT$$GT$17h7f466bbfdffc79f8E', symObjAddr: 0x290, symBinAddr: 0x68FF0, symSize: 0xF0 }
  - { offsetInCU: 0x310E, offset: 0x27A82E, size: 0x8, addend: 0x0, symName: '__ZN4core3ptr104drop_in_place$LT$syn..punctuated..Punctuated$LT$syn..generics..TypeParamBound$C$syn..token..Plus$GT$$GT$17h94179c83f1bdbd23E', symObjAddr: 0x380, symBinAddr: 0x690E0, symSize: 0x240 }
  - { offsetInCU: 0x39C9, offset: 0x27B0E9, size: 0x8, addend: 0x0, symName: '__ZN4core3ptr115drop_in_place$LT$core..option..Option$LT$$LP$alloc..boxed..Box$LT$syn..pat..Pat$GT$$C$syn..token..Colon$RP$$GT$$GT$17h8317a6e8f015f476E', symObjAddr: 0x5C0, symBinAddr: 0x69320, symSize: 0x50 }
  - { offsetInCU: 0x3B97, offset: 0x27B2B7, size: 0x8, addend: 0x0, symName: '__ZN4core3ptr115drop_in_place$LT$core..option..Option$LT$$LP$syn..token..Brace$C$alloc..vec..Vec$LT$syn..item..Item$GT$$RP$$GT$$GT$17h32aec65f20b8c014E', symObjAddr: 0x610, symBinAddr: 0x69370, symSize: 0xD0 }
  - { offsetInCU: 0x3EAE, offset: 0x27B5CE, size: 0x8, addend: 0x0, symName: '__ZN4core3ptr126drop_in_place$LT$core..option..Option$LT$$LP$syn..token..And$C$core..option..Option$LT$syn..lifetime..Lifetime$GT$$RP$$GT$$GT$17hb8cf558803387ebcE', symObjAddr: 0x6E0, symBinAddr: 0x69440, symSize: 0x30 }
  - { offsetInCU: 0x40C1, offset: 0x27B7E1, size: 0x8, addend: 0x0, symName: '__ZN4core3ptr34drop_in_place$LT$syn..lit..Lit$GT$17hee573645253c1240E', symObjAddr: 0x710, symBinAddr: 0x69470, symSize: 0x120 }
  - { offsetInCU: 0x4590, offset: 0x27BCB0, size: 0x8, addend: 0x0, symName: '__ZN4core3ptr34drop_in_place$LT$syn..pat..Pat$GT$17h973f87584b174815E', symObjAddr: 0x830, symBinAddr: 0x69590, symSize: 0xF40 }
  - { offsetInCU: 0x8037, offset: 0x27F757, size: 0x8, addend: 0x0, symName: '__ZN4core3ptr34drop_in_place$LT$syn..ty..Type$GT$17h3ae90635bb8b5dc2E', symObjAddr: 0x1770, symBinAddr: 0x6A4D0, symSize: 0x580 }
  - { offsetInCU: 0x98C0, offset: 0x280FE0, size: 0x8, addend: 0x0, symName: '__ZN4core3ptr36drop_in_place$LT$syn..expr..Expr$GT$17hec1898832a7659fcE', symObjAddr: 0x1CF0, symBinAddr: 0x6AA50, symSize: 0x2730 }
  - { offsetInCU: 0x131D9, offset: 0x28A8F9, size: 0x8, addend: 0x0, symName: '__ZN4core3ptr36drop_in_place$LT$syn..item..Item$GT$17h64b748ae526f89a8E', symObjAddr: 0x4420, symBinAddr: 0x6D180, symSize: 0x1960 }
  - { offsetInCU: 0x191D3, offset: 0x2908F3, size: 0x8, addend: 0x0, symName: '__ZN4core3ptr36drop_in_place$LT$syn..mac..Macro$GT$17hee38913ef8f169faE', symObjAddr: 0x5D80, symBinAddr: 0x6EAE0, symSize: 0xE0 }
  - { offsetInCU: 0x1955D, offset: 0x290C7D, size: 0x8, addend: 0x0, symName: '__ZN4core3ptr36drop_in_place$LT$syn..path..Path$GT$17h1bbd58c3d6dc291aE', symObjAddr: 0x5E60, symBinAddr: 0x6EBC0, symSize: 0x240 }
  - { offsetInCU: 0x19EF7, offset: 0x291617, size: 0x8, addend: 0x0, symName: '__ZN4core3ptr37drop_in_place$LT$syn..stmt..Block$GT$17h3a3c4aa9f1407e4cE', symObjAddr: 0x60A0, symBinAddr: 0x6EE00, symSize: 0xD0 }
  - { offsetInCU: 0x1A1ED, offset: 0x29190D, size: 0x8, addend: 0x0, symName: '__ZN4core3ptr38drop_in_place$LT$syn..data..Fields$GT$17hc99e215fa9fa15adE', symObjAddr: 0x6170, symBinAddr: 0x6EED0, symSize: 0x190 }
  - { offsetInCU: 0x1A637, offset: 0x291D57, size: 0x8, addend: 0x0, symName: '__ZN4core3ptr38drop_in_place$LT$syn..expr..Member$GT$17h11f93a48e3da0c5fE', symObjAddr: 0x6300, symBinAddr: 0x6F060, symSize: 0x30 }
  - { offsetInCU: 0x1A733, offset: 0x291E53, size: 0x8, addend: 0x0, symName: '__ZN4core3ptr39drop_in_place$LT$proc_macro2..Ident$GT$17h78274ef0131bd7beE', symObjAddr: 0x6330, symBinAddr: 0x6F090, symSize: 0x30 }
  - { offsetInCU: 0x1A927, offset: 0x292047, size: 0x8, addend: 0x0, symName: '__ZN4core3ptr39drop_in_place$LT$syn..item..UseTree$GT$17h04993a8d45a285e1E', symObjAddr: 0x6360, symBinAddr: 0x6F0C0, symSize: 0x1E0 }
  - { offsetInCU: 0x1B058, offset: 0x292778, size: 0x8, addend: 0x0, symName: '__ZN4core3ptr40drop_in_place$LT$syn..ty..ReturnType$GT$17h5fc392ae06958c38E', symObjAddr: 0x6540, symBinAddr: 0x6F2A0, symSize: 0x50 }
  - { offsetInCU: 0x1B1C8, offset: 0x2928E8, size: 0x8, addend: 0x0, symName: '__ZN4core3ptr41drop_in_place$LT$syn..expr..ExprConst$GT$17h5c5bfa544cf2da15E', symObjAddr: 0x6590, symBinAddr: 0x6F2F0, symSize: 0x180 }
  - { offsetInCU: 0x1B7DE, offset: 0x292EFE, size: 0x8, addend: 0x0, symName: '__ZN4core3ptr41drop_in_place$LT$syn..item..Signature$GT$17ha66890d0d99c15a5E', symObjAddr: 0x6710, symBinAddr: 0x6F470, symSize: 0x230 }
  - { offsetInCU: 0x1C07D, offset: 0x29379D, size: 0x8, addend: 0x0, symName: '__ZN4core3ptr42drop_in_place$LT$syn..item..ImplItemFn$GT$17hea2fb7c49829d0a9E', symObjAddr: 0x6940, symBinAddr: 0x6F6A0, symSize: 0x210 }
  - { offsetInCU: 0x1C7A8, offset: 0x293EC8, size: 0x8, addend: 0x0, symName: '__ZN4core3ptr43drop_in_place$LT$syn..data..FieldsNamed$GT$17h6fadfc624381e4b7E', symObjAddr: 0x6B50, symBinAddr: 0x6F8B0, symSize: 0xE0 }
  - { offsetInCU: 0x1CACE, offset: 0x2941EE, size: 0x8, addend: 0x0, symName: '__ZN4core3ptr44drop_in_place$LT$syn..generics..Generics$GT$17h10b1829060b95b1bE', symObjAddr: 0x6C30, symBinAddr: 0x6F990, symSize: 0x40 }
  - { offsetInCU: 0x1CAEB, offset: 0x29420B, size: 0x8, addend: 0x0, symName: '__ZN4core3ptr44drop_in_place$LT$syn..lifetime..Lifetime$GT$17h6e42d75874321b11E', symObjAddr: 0x6C70, symBinAddr: 0x6F9D0, symSize: 0x30 }
  - { offsetInCU: 0x1CD1D, offset: 0x29443D, size: 0x8, addend: 0x0, symName: '__ZN4core3ptr45drop_in_place$LT$proc_macro2..TokenStream$GT$17h3de86edc178dbdf7E', symObjAddr: 0x6CA0, symBinAddr: 0x6FA00, symSize: 0x140 }
  - { offsetInCU: 0x1D1B7, offset: 0x2948D7, size: 0x8, addend: 0x0, symName: '__ZN4core3ptr45drop_in_place$LT$syn..generics..TypeParam$GT$17hcf09314885b07e76E', symObjAddr: 0x6DE0, symBinAddr: 0x6FB40, symSize: 0x230 }
  - { offsetInCU: 0x1D9F8, offset: 0x295118, size: 0x8, addend: 0x0, symName: '__ZN4core3ptr46drop_in_place$LT$syn..generics..ConstParam$GT$17hc257e156a7125459E', symObjAddr: 0x7010, symBinAddr: 0x6FD70, symSize: 0x150 }
  - { offsetInCU: 0x1DE45, offset: 0x295565, size: 0x8, addend: 0x0, symName: '__ZN4core3ptr47drop_in_place$LT$syn..path..GenericArgument$GT$17h468af66cc22ee749E', symObjAddr: 0x7160, symBinAddr: 0x6FEC0, symSize: 0x450 }
  - { offsetInCU: 0x1EBBB, offset: 0x2962DB, size: 0x8, addend: 0x0, symName: '__ZN4core3ptr49drop_in_place$LT$syn..generics..LifetimeParam$GT$17h9ae69bbe86531da0E', symObjAddr: 0x75B0, symBinAddr: 0x70310, symSize: 0xF0 }
  - { offsetInCU: 0x1EF9E, offset: 0x2966BE, size: 0x8, addend: 0x0, symName: '__ZN4core3ptr49drop_in_place$LT$syn..restriction..Visibility$GT$17h83ceef089d938a49E', symObjAddr: 0x76A0, symBinAddr: 0x70400, symSize: 0x60 }
  - { offsetInCU: 0x1F10F, offset: 0x29682F, size: 0x8, addend: 0x0, symName: '__ZN4core3ptr50drop_in_place$LT$syn..generics..TypeParamBound$GT$17he4fe30d10954a629E', symObjAddr: 0x7700, symBinAddr: 0x70460, symSize: 0xA0 }
  - { offsetInCU: 0x1F3E9, offset: 0x296B09, size: 0x8, addend: 0x0, symName: '__ZN4core3ptr55drop_in_place$LT$wasm_bindgen_backend..ast..Program$GT$17ha71d92243551fe70E', symObjAddr: 0x77A0, symBinAddr: 0x70500, symSize: 0x3D0 }
  - { offsetInCU: 0x2064D, offset: 0x297D6D, size: 0x8, addend: 0x0, symName: '__ZN4core3ptr58drop_in_place$LT$alloc..vec..Vec$LT$syn..expr..Arm$GT$$GT$17h14e2e22a7226ddf8E', symObjAddr: 0x7B70, symBinAddr: 0x708D0, symSize: 0xD0 }
  - { offsetInCU: 0x2090D, offset: 0x29802D, size: 0x8, addend: 0x0, symName: '__ZN4core3ptr59drop_in_place$LT$alloc..boxed..Box$LT$syn..pat..Pat$GT$$GT$17h50d0c33df1b13ff6E', symObjAddr: 0x7C40, symBinAddr: 0x709A0, symSize: 0x50 }
  - { offsetInCU: 0x20A66, offset: 0x298186, size: 0x8, addend: 0x0, symName: '__ZN4core3ptr59drop_in_place$LT$alloc..boxed..Box$LT$syn..ty..Type$GT$$GT$17h7bcc4a34581ddba7E', symObjAddr: 0x7C90, symBinAddr: 0x709F0, symSize: 0x50 }
  - { offsetInCU: 0x20BBF, offset: 0x2982DF, size: 0x8, addend: 0x0, symName: '__ZN4core3ptr60drop_in_place$LT$wasm_bindgen_macro_support..ClassMarker$GT$17h6259aee4bf39086cE', symObjAddr: 0x7CE0, symBinAddr: 0x70A40, symSize: 0x80 }
  - { offsetInCU: 0x20DD2, offset: 0x2984F2, size: 0x8, addend: 0x0, symName: '__ZN4core3ptr61drop_in_place$LT$alloc..boxed..Box$LT$syn..expr..Expr$GT$$GT$17h2f5fb41dd226c4deE', symObjAddr: 0x7D60, symBinAddr: 0x70AC0, symSize: 0x50 }
  - { offsetInCU: 0x20F2B, offset: 0x29864B, size: 0x8, addend: 0x0, symName: '__ZN4core3ptr61drop_in_place$LT$syn..path..ParenthesizedGenericArguments$GT$17h490a82a7318211d4E', symObjAddr: 0x7DB0, symBinAddr: 0x70B10, symSize: 0x170 }
  - { offsetInCU: 0x21534, offset: 0x298C54, size: 0x8, addend: 0x0, symName: '__ZN4core3ptr62drop_in_place$LT$alloc..boxed..Box$LT$syn..stmt..Block$GT$$GT$17h3638bbe45345a15fE', symObjAddr: 0x7F20, symBinAddr: 0x70C80, symSize: 0xE0 }
  - { offsetInCU: 0x21942, offset: 0x299062, size: 0x8, addend: 0x0, symName: '__ZN4core3ptr63drop_in_place$LT$alloc..boxed..Box$LT$syn..lit..LitRepr$GT$$GT$17h3db95a238b447968E', symObjAddr: 0x8000, symBinAddr: 0x70D60, symSize: 0x60 }
  - { offsetInCU: 0x21C0B, offset: 0x29932B, size: 0x8, addend: 0x0, symName: '__ZN4core3ptr63drop_in_place$LT$alloc..vec..Vec$LT$syn..item..ImplItem$GT$$GT$17h1a3b03d7a8adc95cE', symObjAddr: 0x8060, symBinAddr: 0x70DC0, symSize: 0x80 }
  - { offsetInCU: 0x21EC3, offset: 0x2995E3, size: 0x8, addend: 0x0, symName: '__ZN4core3ptr64drop_in_place$LT$alloc..boxed..Box$LT$syn..item..UseTree$GT$$GT$17hdca9ee81d3024007E', symObjAddr: 0x80E0, symBinAddr: 0x70E40, symSize: 0x50 }
  - { offsetInCU: 0x2205A, offset: 0x29977A, size: 0x8, addend: 0x0, symName: '__ZN4core3ptr64drop_in_place$LT$alloc..boxed..Box$LT$syn..pat..FieldPat$GT$$GT$17h90926d8c1a4ddae4E', symObjAddr: 0x8130, symBinAddr: 0x70E90, symSize: 0x140 }
  - { offsetInCU: 0x22727, offset: 0x299E47, size: 0x8, addend: 0x0, symName: '__ZN4core3ptr64drop_in_place$LT$alloc..boxed..Box$LT$syn..ty..BareFnArg$GT$$GT$17h0f95c2c81efdd59dE', symObjAddr: 0x8270, symBinAddr: 0x70FD0, symSize: 0x140 }
  - { offsetInCU: 0x22C7C, offset: 0x29A39C, size: 0x8, addend: 0x0, symName: '__ZN4core3ptr64drop_in_place$LT$alloc..vec..Vec$LT$syn..item..TraitItem$GT$$GT$17h5f53b7921daede14E', symObjAddr: 0x83B0, symBinAddr: 0x71110, symSize: 0x80 }
  - { offsetInCU: 0x22F34, offset: 0x29A654, size: 0x8, addend: 0x0, symName: '__ZN4core3ptr65drop_in_place$LT$alloc..vec..Vec$LT$alloc..string..String$GT$$GT$17h61174ae9211d439eE', symObjAddr: 0x8430, symBinAddr: 0x71190, symSize: 0x90 }
  - { offsetInCU: 0x231B5, offset: 0x29A8D5, size: 0x8, addend: 0x0, symName: '__ZN4core3ptr65drop_in_place$LT$alloc..vec..Vec$LT$proc_macro..TokenTree$GT$$GT$17h3cc592fdbb1600b7E', symObjAddr: 0x84C0, symBinAddr: 0x71220, symSize: 0x110 }
  - { offsetInCU: 0x235AD, offset: 0x29ACCD, size: 0x8, addend: 0x0, symName: '__ZN4core3ptr65drop_in_place$LT$core..option..Option$LT$syn..expr..Label$GT$$GT$17heefd36b73aa6dbbbE', symObjAddr: 0x85D0, symBinAddr: 0x71330, symSize: 0x30 }
  - { offsetInCU: 0x236E7, offset: 0x29AE07, size: 0x8, addend: 0x0, symName: '__ZN4core3ptr66drop_in_place$LT$alloc..vec..Vec$LT$syn..item..ForeignItem$GT$$GT$17h719981f79056ec03E', symObjAddr: 0x8600, symBinAddr: 0x71360, symSize: 0x80 }
  - { offsetInCU: 0x2399F, offset: 0x29B0BF, size: 0x8, addend: 0x0, symName: '__ZN4core3ptr66drop_in_place$LT$core..option..Option$LT$syn..pat..PatRest$GT$$GT$17h122af7de33a39a61E', symObjAddr: 0x8680, symBinAddr: 0x713E0, symSize: 0xE0 }
  - { offsetInCU: 0x23C93, offset: 0x29B3B3, size: 0x8, addend: 0x0, symName: '__ZN4core3ptr67drop_in_place$LT$alloc..boxed..Box$LT$syn..expr..FieldValue$GT$$GT$17h67591aed16e5fd17E', symObjAddr: 0x8760, symBinAddr: 0x714C0, symSize: 0x140 }
  - { offsetInCU: 0x24206, offset: 0x29B926, size: 0x8, addend: 0x0, symName: '__ZN4core3ptr68drop_in_place$LT$core..option..Option$LT$syn..item..Variadic$GT$$GT$17he52ff5ef75a791c9E', symObjAddr: 0x88A0, symBinAddr: 0x71600, symSize: 0x120 }
  - { offsetInCU: 0x246A5, offset: 0x29BDC5, size: 0x8, addend: 0x0, symName: '__ZN4core3ptr69drop_in_place$LT$wasm_bindgen_macro_support..parser..BindgenAttrs$GT$17hde3159e8ba1f37b1E', symObjAddr: 0x89C0, symBinAddr: 0x71720, symSize: 0xD0 }
  - { offsetInCU: 0x249E6, offset: 0x29C106, size: 0x8, addend: 0x0, symName: '__ZN4core3ptr70drop_in_place$LT$core..option..Option$LT$syn..ty..BareVariadic$GT$$GT$17hca3e4002aff8883fE', symObjAddr: 0x8A90, symBinAddr: 0x717F0, symSize: 0x100 }
  - { offsetInCU: 0x24E1D, offset: 0x29C53D, size: 0x8, addend: 0x0, symName: '__ZN4core3ptr72drop_in_place$LT$alloc..boxed..Box$LT$syn..path..GenericArgument$GT$$GT$17h85ff28da2594c421E', symObjAddr: 0x8B90, symBinAddr: 0x718F0, symSize: 0x2B0 }
  - { offsetInCU: 0x2582E, offset: 0x29CF4E, size: 0x8, addend: 0x0, symName: '__ZN4core3ptr72drop_in_place$LT$core..option..Option$LT$syn..lifetime..Lifetime$GT$$GT$17hfee4ffb29eba4fc9E', symObjAddr: 0x8E40, symBinAddr: 0x71BA0, symSize: 0x30 }
  - { offsetInCU: 0x25949, offset: 0x29D069, size: 0x8, addend: 0x0, symName: '__ZN4core3ptr73drop_in_place$LT$alloc..boxed..Box$LT$syn..generics..GenericParam$GT$$GT$17hce03ddb06f310207E', symObjAddr: 0x8E70, symBinAddr: 0x71BD0, symSize: 0x80 }
  - { offsetInCU: 0x25ABF, offset: 0x29D1DF, size: 0x8, addend: 0x0, symName: '__ZN4core3ptr75drop_in_place$LT$alloc..boxed..Box$LT$syn..generics..TypeParamBound$GT$$GT$17h9abbd9006a1d5cd9E', symObjAddr: 0x8EF0, symBinAddr: 0x71C50, symSize: 0x180 }
  - { offsetInCU: 0x2604E, offset: 0x29D76E, size: 0x8, addend: 0x0, symName: '__ZN4core3ptr75drop_in_place$LT$alloc..vec..Vec$LT$wasm_bindgen_backend..ast..Enum$GT$$GT$17h0cdf24c5c8babeb6E', symObjAddr: 0x9070, symBinAddr: 0x71DD0, symSize: 0xD0 }
  - { offsetInCU: 0x2638A, offset: 0x29DAAA, size: 0x8, addend: 0x0, symName: '__ZN4core3ptr75drop_in_place$LT$core..option..Option$LT$syn..generics..WhereClause$GT$$GT$17h40f934b6c21d874fE', symObjAddr: 0x9140, symBinAddr: 0x71EA0, symSize: 0x90 }
  - { offsetInCU: 0x26621, offset: 0x29DD41, size: 0x8, addend: 0x0, symName: '__ZN4core3ptr77drop_in_place$LT$alloc..vec..Vec$LT$wasm_bindgen_backend..ast..Import$GT$$GT$17h0e9de426d463322dE', symObjAddr: 0x91D0, symBinAddr: 0x71F30, symSize: 0x60 }
  - { offsetInCU: 0x26850, offset: 0x29DF70, size: 0x8, addend: 0x0, symName: '__ZN4core3ptr77drop_in_place$LT$alloc..vec..Vec$LT$wasm_bindgen_backend..ast..Struct$GT$$GT$17h9172edf135d3fb23E', symObjAddr: 0x9230, symBinAddr: 0x71F90, symSize: 0xD0 }
  - { offsetInCU: 0x26B10, offset: 0x29E230, size: 0x8, addend: 0x0, symName: '__ZN4core3ptr83drop_in_place$LT$alloc..vec..Vec$LT$wasm_bindgen_backend..ast..ImportModule$GT$$GT$17h981d49f720f22c03E', symObjAddr: 0x9300, symBinAddr: 0x72060, symSize: 0x90 }
  - { offsetInCU: 0x26E2A, offset: 0x29E54A, size: 0x8, addend: 0x0, symName: '__ZN4core3ptr86drop_in_place$LT$syn..punctuated..Punctuated$LT$syn..pat..Pat$C$syn..token..Or$GT$$GT$17h7580e44fbb73d60bE', symObjAddr: 0x9390, symBinAddr: 0x720F0, symSize: 0x120 }
  - { offsetInCU: 0x272A5, offset: 0x29E9C5, size: 0x8, addend: 0x0, symName: '__ZN4core3ptr87drop_in_place$LT$core..option..Option$LT$alloc..boxed..Box$LT$syn..pat..Pat$GT$$GT$$GT$17h0af17f6f14c9379aE', symObjAddr: 0x94B0, symBinAddr: 0x72210, symSize: 0x50 }
  - { offsetInCU: 0x27415, offset: 0x29EB35, size: 0x8, addend: 0x0, symName: '__ZN4core3ptr87drop_in_place$LT$core..option..Option$LT$alloc..boxed..Box$LT$syn..ty..Type$GT$$GT$$GT$17h115b882e05437c86E', symObjAddr: 0x9500, symBinAddr: 0x72260, symSize: 0x50 }
  - { offsetInCU: 0x2763F, offset: 0x29ED5F, size: 0x8, addend: 0x0, symName: '__ZN4core3ptr88drop_in_place$LT$core..option..Option$LT$wasm_bindgen_backend..error..Diagnostic$GT$$GT$17h1b9ad1ed1c843f1eE', symObjAddr: 0x9550, symBinAddr: 0x722B0, symSize: 0x150 }
  - { offsetInCU: 0x27AF7, offset: 0x29F217, size: 0x8, addend: 0x0, symName: '__ZN4core3ptr89drop_in_place$LT$core..option..Option$LT$alloc..boxed..Box$LT$syn..expr..Expr$GT$$GT$$GT$17he3e67d25883b4389E', symObjAddr: 0x96A0, symBinAddr: 0x72400, symSize: 0x50 }
  - { offsetInCU: 0x27CA5, offset: 0x29F3C5, size: 0x8, addend: 0x0, symName: '__ZN4core3ptr89drop_in_place$LT$syn..punctuated..Punctuated$LT$syn..pat..Pat$C$syn..token..Comma$GT$$GT$17hd0f680a310102099E', symObjAddr: 0x96F0, symBinAddr: 0x72450, symSize: 0x120 }
  - { offsetInCU: 0x28175, offset: 0x29F895, size: 0x8, addend: 0x0, symName: '__ZN4core3ptr90drop_in_place$LT$core..option..Option$LT$alloc..boxed..Box$LT$syn..data..Field$GT$$GT$$GT$17h77597b41f3489811E', symObjAddr: 0x9810, symBinAddr: 0x72570, symSize: 0x1B0 }
  - { offsetInCU: 0x28890, offset: 0x29FFB0, size: 0x8, addend: 0x0, symName: '__ZN4core3ptr90drop_in_place$LT$core..option..Option$LT$alloc..boxed..Box$LT$syn..item..FnArg$GT$$GT$$GT$17h20030a0d77da3dbdE', symObjAddr: 0x99C0, symBinAddr: 0x72720, symSize: 0x250 }
  - { offsetInCU: 0x292BE, offset: 0x2A09DE, size: 0x8, addend: 0x0, symName: '__ZN4core3ptr91drop_in_place$LT$syn..punctuated..Punctuated$LT$syn..expr..Expr$C$syn..token..Comma$GT$$GT$17h2f01a48d43db64beE', symObjAddr: 0x9C10, symBinAddr: 0x72970, symSize: 0x120 }
  - { offsetInCU: 0x2974C, offset: 0x2A0E6C, size: 0x8, addend: 0x0, symName: '__ZN4core3ptr92drop_in_place$LT$core..option..Option$LT$$LP$syn..token..As$C$proc_macro2..Ident$RP$$GT$$GT$17h113ea65848cdfa7dE', symObjAddr: 0x9D30, symBinAddr: 0x72A90, symSize: 0x30 }
  - { offsetInCU: 0x298E3, offset: 0x2A1003, size: 0x8, addend: 0x0, symName: '__ZN4core3ptr92drop_in_place$LT$core..option..Option$LT$alloc..boxed..Box$LT$syn..data..Variant$GT$$GT$$GT$17h2ccdf3e306621abcE', symObjAddr: 0x9D60, symBinAddr: 0x72AC0, symSize: 0x170 }
  - { offsetInCU: 0x29E7E, offset: 0x2A159E, size: 0x8, addend: 0x0, symName: '__ZN4core3ptr92drop_in_place$LT$syn..punctuated..Punctuated$LT$syn..item..FnArg$C$syn..token..Comma$GT$$GT$17h96e6da634d2aecfdE', symObjAddr: 0x9ED0, symBinAddr: 0x72C30, symSize: 0xE0 }
  - { offsetInCU: 0x2A179, offset: 0x2A1899, size: 0x8, addend: 0x0, symName: '__ZN4core3ptr94drop_in_place$LT$syn..punctuated..Punctuated$LT$syn..data..Variant$C$syn..token..Comma$GT$$GT$17he3434ef9d715c40fE', symObjAddr: 0x9FB0, symBinAddr: 0x72D10, symSize: 0xE0 }
  - { offsetInCU: 0x2A47C, offset: 0x2A1B9C, size: 0x8, addend: 0x0, symName: '__ZN4core3ptr94drop_in_place$LT$syn..punctuated..Punctuated$LT$syn..pat..FieldPat$C$syn..token..Comma$GT$$GT$17h1420eba3f01509f6E', symObjAddr: 0xA090, symBinAddr: 0x72DF0, symSize: 0xF0 }
  - { offsetInCU: 0x2A77B, offset: 0x2A1E9B, size: 0x8, addend: 0x0, symName: '__ZN4core3ptr94drop_in_place$LT$syn..punctuated..Punctuated$LT$syn..ty..BareFnArg$C$syn..token..Comma$GT$$GT$17h96c674e9d142553fE', symObjAddr: 0xA180, symBinAddr: 0x72EE0, symSize: 0xF0 }
  - { offsetInCU: 0x2AA7C, offset: 0x2A219C, size: 0x8, addend: 0x0, symName: '__ZN4core3ptr96drop_in_place$LT$core..option..Option$LT$alloc..boxed..Box$LT$syn..path..PathSegment$GT$$GT$$GT$17hcd3eda3806df5f3aE', symObjAddr: 0xA270, symBinAddr: 0x72FD0, symSize: 0x1A0 }
  - { offsetInCU: 0x2B13D, offset: 0x2A285D, size: 0x8, addend: 0x0, symName: '__ZN4core3ptr97drop_in_place$LT$syn..punctuated..Punctuated$LT$syn..expr..FieldValue$C$syn..token..Comma$GT$$GT$17hd26eb8b5d8a23419E', symObjAddr: 0xA410, symBinAddr: 0x73170, symSize: 0xF0 }
  - { offsetInCU: 0x2B4B6, offset: 0x2A2BD6, size: 0x8, addend: 0x0, symName: '__ZN4core3ptr98drop_in_place$LT$syn..punctuated..Punctuated$LT$syn..lifetime..Lifetime$C$syn..token..Plus$GT$$GT$17hb40bd2b31d61c61aE', symObjAddr: 0xA500, symBinAddr: 0x73260, symSize: 0xD0 }
  - { offsetInCU: 0x2F02E, offset: 0x2A674E, size: 0x8, addend: 0x0, symName: __ZN26wasm_bindgen_macro_support6expand17h38efea25d7b6dc74E, symObjAddr: 0xA5D0, symBinAddr: 0x73330, symSize: 0x380 }
  - { offsetInCU: 0x2F220, offset: 0x2A6940, size: 0x8, addend: 0x0, symName: __ZN26wasm_bindgen_macro_support14expand_link_to17h7997f49f3b19edddE, symObjAddr: 0xA950, symBinAddr: 0x736B0, symSize: 0x2C0 }
  - { offsetInCU: 0x2F3FA, offset: 0x2A6B1A, size: 0x8, addend: 0x0, symName: __ZN26wasm_bindgen_macro_support19expand_class_marker17h2171be450f2eb221E, symObjAddr: 0xAC10, symBinAddr: 0x73970, symSize: 0x400 }
  - { offsetInCU: 0x2F773, offset: 0x2A6E93, size: 0x8, addend: 0x0, symName: '__ZN77_$LT$wasm_bindgen_macro_support..ClassMarker$u20$as$u20$syn..parse..Parse$GT$5parse28_$u7b$$u7b$closure$u7d$$u7d$17hc03250a272e735a6E', symObjAddr: 0xBB40, symBinAddr: 0x748A0, symSize: 0x90 }
  - { offsetInCU: 0x2F7B5, offset: 0x2A6ED5, size: 0x8, addend: 0x0, symName: '__ZN77_$LT$wasm_bindgen_macro_support..ClassMarker$u20$as$u20$syn..parse..Parse$GT$5parse28_$u7b$$u7b$closure$u7d$$u7d$17h47b740a49f600751E', symObjAddr: 0xBBD0, symBinAddr: 0x74930, symSize: 0x83 }
  - { offsetInCU: 0x2F7F8, offset: 0x2A6F18, size: 0x8, addend: 0x0, symName: '__ZN77_$LT$wasm_bindgen_macro_support..ClassMarker$u20$as$u20$syn..parse..Parse$GT$5parse17h3e1fea2c3485be57E', symObjAddr: 0xB010, symBinAddr: 0x73D70, symSize: 0xB30 }
  - { offsetInCU: 0x1E, offset: 0x2B732E, size: 0x8, addend: 0x0, symName: __ZN3syn5parse11ParseBuffer4step17h4bace7ecc57a9ab9E, symObjAddr: 0x0, symBinAddr: 0x749C0, symSize: 0xF0 }
  - { offsetInCU: 0x1D0F, offset: 0x2B901F, size: 0x8, addend: 0x0, symName: '__ZN4core3ptr100drop_in_place$LT$core..option..Option$LT$alloc..boxed..Box$LT$syn..path..GenericArgument$GT$$GT$$GT$17h57a5558e267c0aa5E', symObjAddr: 0x1480, symBinAddr: 0x75E40, symSize: 0x50 }
  - { offsetInCU: 0x1EDC, offset: 0x2B91EC, size: 0x8, addend: 0x0, symName: '__ZN4core3ptr102drop_in_place$LT$syn..punctuated..Punctuated$LT$syn..path..GenericArgument$C$syn..token..Comma$GT$$GT$17h6569f8cea27daa1fE', symObjAddr: 0x14D0, symBinAddr: 0x75E90, symSize: 0xF0 }
  - { offsetInCU: 0x21FC, offset: 0x2B950C, size: 0x8, addend: 0x0, symName: '__ZN4core3ptr103drop_in_place$LT$core..option..Option$LT$alloc..boxed..Box$LT$syn..generics..TypeParamBound$GT$$GT$$GT$17hd35dab8117a0a53fE', symObjAddr: 0x15C0, symBinAddr: 0x75F80, symSize: 0x50 }
  - { offsetInCU: 0x24C1, offset: 0x2B97D1, size: 0x8, addend: 0x0, symName: '__ZN4core3ptr103drop_in_place$LT$core..option..Option$LT$alloc..boxed..Box$LT$syn..generics..WherePredicate$GT$$GT$$GT$17h1bdc11655d4045e2E', symObjAddr: 0x1610, symBinAddr: 0x75FD0, symSize: 0xD0 }
  - { offsetInCU: 0x2855, offset: 0x2B9B65, size: 0x8, addend: 0x0, symName: '__ZN4core3ptr103drop_in_place$LT$syn..punctuated..Punctuated$LT$syn..generics..GenericParam$C$syn..token..Comma$GT$$GT$17h7f466bbfdffc79f8E', symObjAddr: 0x16E0, symBinAddr: 0x760A0, symSize: 0xF0 }
  - { offsetInCU: 0x2D50, offset: 0x2BA060, size: 0x8, addend: 0x0, symName: '__ZN4core3ptr104drop_in_place$LT$syn..punctuated..Punctuated$LT$syn..generics..TypeParamBound$C$syn..token..Plus$GT$$GT$17h94179c83f1bdbd23E', symObjAddr: 0x17D0, symBinAddr: 0x76190, symSize: 0x240 }
  - { offsetInCU: 0x360B, offset: 0x2BA91B, size: 0x8, addend: 0x0, symName: '__ZN4core3ptr115drop_in_place$LT$core..option..Option$LT$$LP$alloc..boxed..Box$LT$syn..pat..Pat$GT$$C$syn..token..Colon$RP$$GT$$GT$17h8317a6e8f015f476E', symObjAddr: 0x1A10, symBinAddr: 0x763D0, symSize: 0x50 }
  - { offsetInCU: 0x37D9, offset: 0x2BAAE9, size: 0x8, addend: 0x0, symName: '__ZN4core3ptr115drop_in_place$LT$core..option..Option$LT$$LP$syn..token..Brace$C$alloc..vec..Vec$LT$syn..item..Item$GT$$RP$$GT$$GT$17h32aec65f20b8c014E', symObjAddr: 0x1A60, symBinAddr: 0x76420, symSize: 0xD0 }
  - { offsetInCU: 0x3AF0, offset: 0x2BAE00, size: 0x8, addend: 0x0, symName: '__ZN4core3ptr126drop_in_place$LT$core..option..Option$LT$$LP$syn..token..And$C$core..option..Option$LT$syn..lifetime..Lifetime$GT$$RP$$GT$$GT$17hb8cf558803387ebcE', symObjAddr: 0x1B30, symBinAddr: 0x764F0, symSize: 0x30 }
  - { offsetInCU: 0x3D03, offset: 0x2BB013, size: 0x8, addend: 0x0, symName: '__ZN4core3ptr34drop_in_place$LT$syn..lit..Lit$GT$17hee573645253c1240E', symObjAddr: 0x1B60, symBinAddr: 0x76520, symSize: 0x120 }
  - { offsetInCU: 0x41D2, offset: 0x2BB4E2, size: 0x8, addend: 0x0, symName: '__ZN4core3ptr34drop_in_place$LT$syn..pat..Pat$GT$17h973f87584b174815E', symObjAddr: 0x1C80, symBinAddr: 0x76640, symSize: 0xF40 }
  - { offsetInCU: 0x7C79, offset: 0x2BEF89, size: 0x8, addend: 0x0, symName: '__ZN4core3ptr34drop_in_place$LT$syn..ty..Type$GT$17h3ae90635bb8b5dc2E', symObjAddr: 0x2BC0, symBinAddr: 0x77580, symSize: 0x580 }
  - { offsetInCU: 0x94A5, offset: 0x2C07B5, size: 0x8, addend: 0x0, symName: '__ZN4core3ptr36drop_in_place$LT$syn..expr..Expr$GT$17hec1898832a7659fcE', symObjAddr: 0x3140, symBinAddr: 0x77B00, symSize: 0x2730 }
  - { offsetInCU: 0x12DBE, offset: 0x2CA0CE, size: 0x8, addend: 0x0, symName: '__ZN4core3ptr36drop_in_place$LT$syn..item..Item$GT$17h64b748ae526f89a8E', symObjAddr: 0x5870, symBinAddr: 0x7A230, symSize: 0x1960 }
  - { offsetInCU: 0x18DB8, offset: 0x2D00C8, size: 0x8, addend: 0x0, symName: '__ZN4core3ptr36drop_in_place$LT$syn..mac..Macro$GT$17hee38913ef8f169faE', symObjAddr: 0x71D0, symBinAddr: 0x7BB90, symSize: 0xE0 }
  - { offsetInCU: 0x19142, offset: 0x2D0452, size: 0x8, addend: 0x0, symName: '__ZN4core3ptr36drop_in_place$LT$syn..path..Path$GT$17h1bbd58c3d6dc291aE', symObjAddr: 0x72B0, symBinAddr: 0x7BC70, symSize: 0x240 }
  - { offsetInCU: 0x19ADC, offset: 0x2D0DEC, size: 0x8, addend: 0x0, symName: '__ZN4core3ptr37drop_in_place$LT$syn..stmt..Block$GT$17h3a3c4aa9f1407e4cE', symObjAddr: 0x74F0, symBinAddr: 0x7BEB0, symSize: 0xD0 }
  - { offsetInCU: 0x19DD2, offset: 0x2D10E2, size: 0x8, addend: 0x0, symName: '__ZN4core3ptr38drop_in_place$LT$syn..data..Fields$GT$17hc99e215fa9fa15adE', symObjAddr: 0x75C0, symBinAddr: 0x7BF80, symSize: 0x190 }
  - { offsetInCU: 0x1A21C, offset: 0x2D152C, size: 0x8, addend: 0x0, symName: '__ZN4core3ptr38drop_in_place$LT$syn..expr..Member$GT$17h11f93a48e3da0c5fE', symObjAddr: 0x7750, symBinAddr: 0x7C110, symSize: 0x30 }
  - { offsetInCU: 0x1A318, offset: 0x2D1628, size: 0x8, addend: 0x0, symName: '__ZN4core3ptr39drop_in_place$LT$proc_macro2..Ident$GT$17h78274ef0131bd7beE', symObjAddr: 0x7780, symBinAddr: 0x7C140, symSize: 0x30 }
  - { offsetInCU: 0x1A52B, offset: 0x2D183B, size: 0x8, addend: 0x0, symName: '__ZN4core3ptr39drop_in_place$LT$syn..buffer..Entry$GT$17had1468ef4441d67dE', symObjAddr: 0x77B0, symBinAddr: 0x7C170, symSize: 0xB0 }
  - { offsetInCU: 0x1A9CD, offset: 0x2D1CDD, size: 0x8, addend: 0x0, symName: '__ZN4core3ptr39drop_in_place$LT$syn..item..UseTree$GT$17h04993a8d45a285e1E', symObjAddr: 0x7860, symBinAddr: 0x7C220, symSize: 0x1E0 }
  - { offsetInCU: 0x1B0FE, offset: 0x2D240E, size: 0x8, addend: 0x0, symName: '__ZN4core3ptr40drop_in_place$LT$syn..ty..ReturnType$GT$17h5fc392ae06958c38E', symObjAddr: 0x7A40, symBinAddr: 0x7C400, symSize: 0x50 }
  - { offsetInCU: 0x1B26E, offset: 0x2D257E, size: 0x8, addend: 0x0, symName: '__ZN4core3ptr41drop_in_place$LT$syn..expr..ExprConst$GT$17h5c5bfa544cf2da15E', symObjAddr: 0x7A90, symBinAddr: 0x7C450, symSize: 0x180 }
  - { offsetInCU: 0x1B884, offset: 0x2D2B94, size: 0x8, addend: 0x0, symName: '__ZN4core3ptr41drop_in_place$LT$syn..item..Signature$GT$17ha66890d0d99c15a5E', symObjAddr: 0x7C10, symBinAddr: 0x7C5D0, symSize: 0x230 }
  - { offsetInCU: 0x1C123, offset: 0x2D3433, size: 0x8, addend: 0x0, symName: '__ZN4core3ptr42drop_in_place$LT$syn..item..ImplItemFn$GT$17hea2fb7c49829d0a9E', symObjAddr: 0x7E40, symBinAddr: 0x7C800, symSize: 0x210 }
  - { offsetInCU: 0x1C84E, offset: 0x2D3B5E, size: 0x8, addend: 0x0, symName: '__ZN4core3ptr43drop_in_place$LT$syn..data..FieldsNamed$GT$17h6fadfc624381e4b7E', symObjAddr: 0x8050, symBinAddr: 0x7CA10, symSize: 0xE0 }
  - { offsetInCU: 0x1CB74, offset: 0x2D3E84, size: 0x8, addend: 0x0, symName: '__ZN4core3ptr44drop_in_place$LT$syn..generics..Generics$GT$17h10b1829060b95b1bE', symObjAddr: 0x8130, symBinAddr: 0x7CAF0, symSize: 0x40 }
  - { offsetInCU: 0x1CB91, offset: 0x2D3EA1, size: 0x8, addend: 0x0, symName: '__ZN4core3ptr44drop_in_place$LT$syn..lifetime..Lifetime$GT$17h6e42d75874321b11E', symObjAddr: 0x8170, symBinAddr: 0x7CB30, symSize: 0x30 }
  - { offsetInCU: 0x1CC8D, offset: 0x2D3F9D, size: 0x8, addend: 0x0, symName: '__ZN4core3ptr44drop_in_place$LT$syn..parse..ParseBuffer$GT$17h45130160a6625144E', symObjAddr: 0x81A0, symBinAddr: 0x7CB60, symSize: 0x70 }
  - { offsetInCU: 0x1D009, offset: 0x2D4319, size: 0x8, addend: 0x0, symName: '__ZN4core3ptr45drop_in_place$LT$proc_macro2..TokenStream$GT$17h3de86edc178dbdf7E', symObjAddr: 0x8210, symBinAddr: 0x7CBD0, symSize: 0x140 }
  - { offsetInCU: 0x1D465, offset: 0x2D4775, size: 0x8, addend: 0x0, symName: '__ZN4core3ptr45drop_in_place$LT$syn..buffer..TokenBuffer$GT$17hcbf95bbdb504c21fE', symObjAddr: 0x8350, symBinAddr: 0x7CD10, symSize: 0xC0 }
  - { offsetInCU: 0x1D6CD, offset: 0x2D49DD, size: 0x8, addend: 0x0, symName: '__ZN4core3ptr45drop_in_place$LT$syn..generics..TypeParam$GT$17hcf09314885b07e76E', symObjAddr: 0x8410, symBinAddr: 0x7CDD0, symSize: 0x230 }
  - { offsetInCU: 0x1DF0E, offset: 0x2D521E, size: 0x8, addend: 0x0, symName: '__ZN4core3ptr46drop_in_place$LT$syn..generics..ConstParam$GT$17hc257e156a7125459E', symObjAddr: 0x8640, symBinAddr: 0x7D000, symSize: 0x150 }
  - { offsetInCU: 0x1E35B, offset: 0x2D566B, size: 0x8, addend: 0x0, symName: '__ZN4core3ptr47drop_in_place$LT$syn..path..GenericArgument$GT$17h468af66cc22ee749E', symObjAddr: 0x8790, symBinAddr: 0x7D150, symSize: 0x450 }
  - { offsetInCU: 0x1F0D1, offset: 0x2D63E1, size: 0x8, addend: 0x0, symName: '__ZN4core3ptr49drop_in_place$LT$syn..generics..LifetimeParam$GT$17h9ae69bbe86531da0E', symObjAddr: 0x8BE0, symBinAddr: 0x7D5A0, symSize: 0xF0 }
  - { offsetInCU: 0x1F4B4, offset: 0x2D67C4, size: 0x8, addend: 0x0, symName: '__ZN4core3ptr49drop_in_place$LT$syn..restriction..Visibility$GT$17h83ceef089d938a49E', symObjAddr: 0x8CD0, symBinAddr: 0x7D690, symSize: 0x60 }
  - { offsetInCU: 0x1F625, offset: 0x2D6935, size: 0x8, addend: 0x0, symName: '__ZN4core3ptr50drop_in_place$LT$syn..generics..TypeParamBound$GT$17he4fe30d10954a629E', symObjAddr: 0x8D30, symBinAddr: 0x7D6F0, symSize: 0xA0 }
  - { offsetInCU: 0x1F78B, offset: 0x2D6A9B, size: 0x8, addend: 0x0, symName: '__ZN4core3ptr58drop_in_place$LT$alloc..vec..Vec$LT$syn..expr..Arm$GT$$GT$17h14e2e22a7226ddf8E', symObjAddr: 0x8DD0, symBinAddr: 0x7D790, symSize: 0xD0 }
  - { offsetInCU: 0x1FA4B, offset: 0x2D6D5B, size: 0x8, addend: 0x0, symName: '__ZN4core3ptr59drop_in_place$LT$alloc..boxed..Box$LT$syn..pat..Pat$GT$$GT$17h50d0c33df1b13ff6E', symObjAddr: 0x8EA0, symBinAddr: 0x7D860, symSize: 0x50 }
  - { offsetInCU: 0x1FBA4, offset: 0x2D6EB4, size: 0x8, addend: 0x0, symName: '__ZN4core3ptr59drop_in_place$LT$alloc..boxed..Box$LT$syn..ty..Type$GT$$GT$17h7bcc4a34581ddba7E', symObjAddr: 0x8EF0, symBinAddr: 0x7D8B0, symSize: 0x50 }
  - { offsetInCU: 0x1FCFD, offset: 0x2D700D, size: 0x8, addend: 0x0, symName: '__ZN4core3ptr60drop_in_place$LT$wasm_bindgen_macro_support..ClassMarker$GT$17h6259aee4bf39086cE', symObjAddr: 0x8F40, symBinAddr: 0x7D900, symSize: 0x80 }
  - { offsetInCU: 0x1FF10, offset: 0x2D7220, size: 0x8, addend: 0x0, symName: '__ZN4core3ptr61drop_in_place$LT$alloc..boxed..Box$LT$syn..expr..Expr$GT$$GT$17h2f5fb41dd226c4deE', symObjAddr: 0x8FC0, symBinAddr: 0x7D980, symSize: 0x50 }
  - { offsetInCU: 0x20069, offset: 0x2D7379, size: 0x8, addend: 0x0, symName: '__ZN4core3ptr61drop_in_place$LT$syn..path..ParenthesizedGenericArguments$GT$17h490a82a7318211d4E', symObjAddr: 0x9010, symBinAddr: 0x7D9D0, symSize: 0x170 }
  - { offsetInCU: 0x20672, offset: 0x2D7982, size: 0x8, addend: 0x0, symName: '__ZN4core3ptr62drop_in_place$LT$alloc..boxed..Box$LT$syn..stmt..Block$GT$$GT$17h3638bbe45345a15fE', symObjAddr: 0x9180, symBinAddr: 0x7DB40, symSize: 0xE0 }
  - { offsetInCU: 0x20A80, offset: 0x2D7D90, size: 0x8, addend: 0x0, symName: '__ZN4core3ptr63drop_in_place$LT$alloc..boxed..Box$LT$syn..lit..LitRepr$GT$$GT$17h3db95a238b447968E', symObjAddr: 0x9260, symBinAddr: 0x7DC20, symSize: 0x60 }
  - { offsetInCU: 0x20D49, offset: 0x2D8059, size: 0x8, addend: 0x0, symName: '__ZN4core3ptr63drop_in_place$LT$alloc..vec..Vec$LT$syn..item..ImplItem$GT$$GT$17h1a3b03d7a8adc95cE', symObjAddr: 0x92C0, symBinAddr: 0x7DC80, symSize: 0x80 }
  - { offsetInCU: 0x21001, offset: 0x2D8311, size: 0x8, addend: 0x0, symName: '__ZN4core3ptr64drop_in_place$LT$alloc..boxed..Box$LT$syn..item..UseTree$GT$$GT$17hdca9ee81d3024007E', symObjAddr: 0x9340, symBinAddr: 0x7DD00, symSize: 0x50 }
  - { offsetInCU: 0x21198, offset: 0x2D84A8, size: 0x8, addend: 0x0, symName: '__ZN4core3ptr64drop_in_place$LT$alloc..boxed..Box$LT$syn..pat..FieldPat$GT$$GT$17h90926d8c1a4ddae4E', symObjAddr: 0x9390, symBinAddr: 0x7DD50, symSize: 0x140 }
  - { offsetInCU: 0x21865, offset: 0x2D8B75, size: 0x8, addend: 0x0, symName: '__ZN4core3ptr64drop_in_place$LT$alloc..boxed..Box$LT$syn..ty..BareFnArg$GT$$GT$17h0f95c2c81efdd59dE', symObjAddr: 0x94D0, symBinAddr: 0x7DE90, symSize: 0x140 }
  - { offsetInCU: 0x21DBA, offset: 0x2D90CA, size: 0x8, addend: 0x0, symName: '__ZN4core3ptr64drop_in_place$LT$alloc..vec..Vec$LT$syn..item..TraitItem$GT$$GT$17h5f53b7921daede14E', symObjAddr: 0x9610, symBinAddr: 0x7DFD0, symSize: 0x80 }
  - { offsetInCU: 0x22072, offset: 0x2D9382, size: 0x8, addend: 0x0, symName: '__ZN4core3ptr65drop_in_place$LT$alloc..vec..Vec$LT$proc_macro..TokenTree$GT$$GT$17h3cc592fdbb1600b7E', symObjAddr: 0x9690, symBinAddr: 0x7E050, symSize: 0x110 }
  - { offsetInCU: 0x2246A, offset: 0x2D977A, size: 0x8, addend: 0x0, symName: '__ZN4core3ptr65drop_in_place$LT$core..option..Option$LT$syn..expr..Label$GT$$GT$17heefd36b73aa6dbbbE', symObjAddr: 0x97A0, symBinAddr: 0x7E160, symSize: 0x30 }
  - { offsetInCU: 0x225A4, offset: 0x2D98B4, size: 0x8, addend: 0x0, symName: '__ZN4core3ptr66drop_in_place$LT$alloc..vec..Vec$LT$syn..item..ForeignItem$GT$$GT$17h719981f79056ec03E', symObjAddr: 0x97D0, symBinAddr: 0x7E190, symSize: 0x80 }
  - { offsetInCU: 0x2285C, offset: 0x2D9B6C, size: 0x8, addend: 0x0, symName: '__ZN4core3ptr66drop_in_place$LT$core..option..Option$LT$syn..pat..PatRest$GT$$GT$17h122af7de33a39a61E', symObjAddr: 0x9850, symBinAddr: 0x7E210, symSize: 0xE0 }
  - { offsetInCU: 0x22B50, offset: 0x2D9E60, size: 0x8, addend: 0x0, symName: '__ZN4core3ptr67drop_in_place$LT$alloc..boxed..Box$LT$syn..expr..FieldValue$GT$$GT$17h67591aed16e5fd17E', symObjAddr: 0x9930, symBinAddr: 0x7E2F0, symSize: 0x140 }
  - { offsetInCU: 0x230C3, offset: 0x2DA3D3, size: 0x8, addend: 0x0, symName: '__ZN4core3ptr68drop_in_place$LT$core..option..Option$LT$syn..item..Variadic$GT$$GT$17he52ff5ef75a791c9E', symObjAddr: 0x9A70, symBinAddr: 0x7E430, symSize: 0x120 }
  - { offsetInCU: 0x23524, offset: 0x2DA834, size: 0x8, addend: 0x0, symName: '__ZN4core3ptr69drop_in_place$LT$wasm_bindgen_macro_support..parser..BindgenAttrs$GT$17hde3159e8ba1f37b1E', symObjAddr: 0x9B90, symBinAddr: 0x7E550, symSize: 0xD0 }
  - { offsetInCU: 0x23852, offset: 0x2DAB62, size: 0x8, addend: 0x0, symName: '__ZN4core3ptr70drop_in_place$LT$core..option..Option$LT$syn..ty..BareVariadic$GT$$GT$17hca3e4002aff8883fE', symObjAddr: 0x9C60, symBinAddr: 0x7E620, symSize: 0x100 }
  - { offsetInCU: 0x23C89, offset: 0x2DAF99, size: 0x8, addend: 0x0, symName: '__ZN4core3ptr72drop_in_place$LT$alloc..boxed..Box$LT$syn..path..GenericArgument$GT$$GT$17h85ff28da2594c421E', symObjAddr: 0x9D60, symBinAddr: 0x7E720, symSize: 0x2B0 }
  - { offsetInCU: 0x2469A, offset: 0x2DB9AA, size: 0x8, addend: 0x0, symName: '__ZN4core3ptr72drop_in_place$LT$core..option..Option$LT$syn..lifetime..Lifetime$GT$$GT$17hfee4ffb29eba4fc9E', symObjAddr: 0xA010, symBinAddr: 0x7E9D0, symSize: 0x30 }
  - { offsetInCU: 0x247B5, offset: 0x2DBAC5, size: 0x8, addend: 0x0, symName: '__ZN4core3ptr73drop_in_place$LT$alloc..boxed..Box$LT$syn..generics..GenericParam$GT$$GT$17hce03ddb06f310207E', symObjAddr: 0xA040, symBinAddr: 0x7EA00, symSize: 0x80 }
  - { offsetInCU: 0x2492B, offset: 0x2DBC3B, size: 0x8, addend: 0x0, symName: '__ZN4core3ptr75drop_in_place$LT$alloc..boxed..Box$LT$syn..generics..TypeParamBound$GT$$GT$17h9abbd9006a1d5cd9E', symObjAddr: 0xA0C0, symBinAddr: 0x7EA80, symSize: 0x180 }
  - { offsetInCU: 0x24F36, offset: 0x2DC246, size: 0x8, addend: 0x0, symName: '__ZN4core3ptr75drop_in_place$LT$core..option..Option$LT$syn..generics..WhereClause$GT$$GT$17h40f934b6c21d874fE', symObjAddr: 0xA240, symBinAddr: 0x7EC00, symSize: 0x90 }
  - { offsetInCU: 0x2522A, offset: 0x2DC53A, size: 0x8, addend: 0x0, symName: '__ZN4core3ptr86drop_in_place$LT$syn..punctuated..Punctuated$LT$syn..pat..Pat$C$syn..token..Or$GT$$GT$17h7580e44fbb73d60bE', symObjAddr: 0xA2D0, symBinAddr: 0x7EC90, symSize: 0x120 }
  - { offsetInCU: 0x256A5, offset: 0x2DC9B5, size: 0x8, addend: 0x0, symName: '__ZN4core3ptr87drop_in_place$LT$core..option..Option$LT$alloc..boxed..Box$LT$syn..pat..Pat$GT$$GT$$GT$17h0af17f6f14c9379aE', symObjAddr: 0xA3F0, symBinAddr: 0x7EDB0, symSize: 0x50 }
  - { offsetInCU: 0x25815, offset: 0x2DCB25, size: 0x8, addend: 0x0, symName: '__ZN4core3ptr87drop_in_place$LT$core..option..Option$LT$alloc..boxed..Box$LT$syn..ty..Type$GT$$GT$$GT$17h115b882e05437c86E', symObjAddr: 0xA440, symBinAddr: 0x7EE00, symSize: 0x50 }
  - { offsetInCU: 0x25985, offset: 0x2DCC95, size: 0x8, addend: 0x0, symName: '__ZN4core3ptr89drop_in_place$LT$core..option..Option$LT$alloc..boxed..Box$LT$syn..expr..Expr$GT$$GT$$GT$17he3e67d25883b4389E', symObjAddr: 0xA490, symBinAddr: 0x7EE50, symSize: 0x50 }
  - { offsetInCU: 0x25B33, offset: 0x2DCE43, size: 0x8, addend: 0x0, symName: '__ZN4core3ptr89drop_in_place$LT$syn..punctuated..Punctuated$LT$syn..pat..Pat$C$syn..token..Comma$GT$$GT$17hd0f680a310102099E', symObjAddr: 0xA4E0, symBinAddr: 0x7EEA0, symSize: 0x120 }
  - { offsetInCU: 0x26003, offset: 0x2DD313, size: 0x8, addend: 0x0, symName: '__ZN4core3ptr90drop_in_place$LT$core..option..Option$LT$alloc..boxed..Box$LT$syn..data..Field$GT$$GT$$GT$17h77597b41f3489811E', symObjAddr: 0xA600, symBinAddr: 0x7EFC0, symSize: 0x1B0 }
  - { offsetInCU: 0x2671E, offset: 0x2DDA2E, size: 0x8, addend: 0x0, symName: '__ZN4core3ptr90drop_in_place$LT$core..option..Option$LT$alloc..boxed..Box$LT$syn..item..FnArg$GT$$GT$$GT$17h20030a0d77da3dbdE', symObjAddr: 0xA7B0, symBinAddr: 0x7F170, symSize: 0x250 }
  - { offsetInCU: 0x2714C, offset: 0x2DE45C, size: 0x8, addend: 0x0, symName: '__ZN4core3ptr91drop_in_place$LT$syn..punctuated..Punctuated$LT$syn..expr..Expr$C$syn..token..Comma$GT$$GT$17h2f01a48d43db64beE', symObjAddr: 0xAA00, symBinAddr: 0x7F3C0, symSize: 0x120 }
  - { offsetInCU: 0x275DA, offset: 0x2DE8EA, size: 0x8, addend: 0x0, symName: '__ZN4core3ptr92drop_in_place$LT$core..option..Option$LT$$LP$syn..token..As$C$proc_macro2..Ident$RP$$GT$$GT$17h113ea65848cdfa7dE', symObjAddr: 0xAB20, symBinAddr: 0x7F4E0, symSize: 0x30 }
  - { offsetInCU: 0x27771, offset: 0x2DEA81, size: 0x8, addend: 0x0, symName: '__ZN4core3ptr92drop_in_place$LT$core..option..Option$LT$alloc..boxed..Box$LT$syn..data..Variant$GT$$GT$$GT$17h2ccdf3e306621abcE', symObjAddr: 0xAB50, symBinAddr: 0x7F510, symSize: 0x170 }
  - { offsetInCU: 0x27D0C, offset: 0x2DF01C, size: 0x8, addend: 0x0, symName: '__ZN4core3ptr92drop_in_place$LT$syn..punctuated..Punctuated$LT$syn..item..FnArg$C$syn..token..Comma$GT$$GT$17h96e6da634d2aecfdE', symObjAddr: 0xACC0, symBinAddr: 0x7F680, symSize: 0xE0 }
  - { offsetInCU: 0x28007, offset: 0x2DF317, size: 0x8, addend: 0x0, symName: '__ZN4core3ptr94drop_in_place$LT$syn..punctuated..Punctuated$LT$syn..data..Variant$C$syn..token..Comma$GT$$GT$17he3434ef9d715c40fE', symObjAddr: 0xADA0, symBinAddr: 0x7F760, symSize: 0xE0 }
  - { offsetInCU: 0x2830A, offset: 0x2DF61A, size: 0x8, addend: 0x0, symName: '__ZN4core3ptr94drop_in_place$LT$syn..punctuated..Punctuated$LT$syn..pat..FieldPat$C$syn..token..Comma$GT$$GT$17h1420eba3f01509f6E', symObjAddr: 0xAE80, symBinAddr: 0x7F840, symSize: 0xF0 }
  - { offsetInCU: 0x28609, offset: 0x2DF919, size: 0x8, addend: 0x0, symName: '__ZN4core3ptr94drop_in_place$LT$syn..punctuated..Punctuated$LT$syn..ty..BareFnArg$C$syn..token..Comma$GT$$GT$17h96c674e9d142553fE', symObjAddr: 0xAF70, symBinAddr: 0x7F930, symSize: 0xF0 }
  - { offsetInCU: 0x2890A, offset: 0x2DFC1A, size: 0x8, addend: 0x0, symName: '__ZN4core3ptr96drop_in_place$LT$core..option..Option$LT$alloc..boxed..Box$LT$syn..path..PathSegment$GT$$GT$$GT$17hcd3eda3806df5f3aE', symObjAddr: 0xB060, symBinAddr: 0x7FA20, symSize: 0x1A0 }
  - { offsetInCU: 0x28FCB, offset: 0x2E02DB, size: 0x8, addend: 0x0, symName: '__ZN4core3ptr97drop_in_place$LT$syn..punctuated..Punctuated$LT$syn..expr..FieldValue$C$syn..token..Comma$GT$$GT$17hd26eb8b5d8a23419E', symObjAddr: 0xB200, symBinAddr: 0x7FBC0, symSize: 0xF0 }
  - { offsetInCU: 0x29344, offset: 0x2E0654, size: 0x8, addend: 0x0, symName: '__ZN4core3ptr98drop_in_place$LT$syn..punctuated..Punctuated$LT$syn..lifetime..Lifetime$C$syn..token..Plus$GT$$GT$17hb40bd2b31d61c61aE', symObjAddr: 0xB2F0, symBinAddr: 0x7FCB0, symSize: 0xC6 }
  - { offsetInCU: 0x2CB5D, offset: 0x2E3E6D, size: 0x8, addend: 0x0, symName: '__ZN40_$LT$F$u20$as$u20$syn..parse..Parser$GT$6parse217h0ee61a55bb724008E', symObjAddr: 0xF0, symBinAddr: 0x74AB0, symSize: 0x490 }
  - { offsetInCU: 0x2D7E9, offset: 0x2E4AF9, size: 0x8, addend: 0x0, symName: '__ZN40_$LT$F$u20$as$u20$syn..parse..Parser$GT$6parse217h6a836008ba5645b0E', symObjAddr: 0x580, symBinAddr: 0x74F40, symSize: 0x480 }
  - { offsetInCU: 0x2E4D2, offset: 0x2E57E2, size: 0x8, addend: 0x0, symName: '__ZN40_$LT$F$u20$as$u20$syn..parse..Parser$GT$6parse217h7b0c3e691a526a70E', symObjAddr: 0xA00, symBinAddr: 0x753C0, symSize: 0x380 }
  - { offsetInCU: 0x2ED0F, offset: 0x2E601F, size: 0x8, addend: 0x0, symName: '__ZN40_$LT$F$u20$as$u20$syn..parse..Parser$GT$6parse217h969b6abc60863c19E', symObjAddr: 0xD80, symBinAddr: 0x75740, symSize: 0x380 }
  - { offsetInCU: 0x2F54C, offset: 0x2E685C, size: 0x8, addend: 0x0, symName: '__ZN40_$LT$F$u20$as$u20$syn..parse..Parser$GT$6parse217hd03bbb19543cc550E', symObjAddr: 0x1100, symBinAddr: 0x75AC0, symSize: 0x380 }
  - { offsetInCU: 0x37274, offset: 0x2EE584, size: 0x8, addend: 0x0, symName: __ZN3syn5parse11ParseBuffer4step17h4bace7ecc57a9ab9E, symObjAddr: 0x0, symBinAddr: 0x749C0, symSize: 0xF0 }
  - { offsetInCU: 0x887E, offset: 0x2FB91E, size: 0x8, addend: 0x0, symName: '__ZN4core3ptr100drop_in_place$LT$core..option..Option$LT$alloc..boxed..Box$LT$syn..path..GenericArgument$GT$$GT$$GT$17h57a5558e267c0aa5E', symObjAddr: 0xB80, symBinAddr: 0x80630, symSize: 0x50 }
  - { offsetInCU: 0x8A4B, offset: 0x2FBAEB, size: 0x8, addend: 0x0, symName: '__ZN4core3ptr102drop_in_place$LT$syn..punctuated..Punctuated$LT$syn..path..GenericArgument$C$syn..token..Comma$GT$$GT$17h6569f8cea27daa1fE', symObjAddr: 0xBD0, symBinAddr: 0x80680, symSize: 0xF0 }
  - { offsetInCU: 0x8D6B, offset: 0x2FBE0B, size: 0x8, addend: 0x0, symName: '__ZN4core3ptr103drop_in_place$LT$core..option..Option$LT$alloc..boxed..Box$LT$syn..generics..TypeParamBound$GT$$GT$$GT$17hd35dab8117a0a53fE', symObjAddr: 0xCC0, symBinAddr: 0x80770, symSize: 0x50 }
  - { offsetInCU: 0x8F76, offset: 0x2FC016, size: 0x8, addend: 0x0, symName: '__ZN4core3ptr103drop_in_place$LT$syn..punctuated..Punctuated$LT$syn..generics..GenericParam$C$syn..token..Comma$GT$$GT$17h7f466bbfdffc79f8E', symObjAddr: 0xD10, symBinAddr: 0x807C0, symSize: 0xF0 }
  - { offsetInCU: 0x954A, offset: 0x2FC5EA, size: 0x8, addend: 0x0, symName: '__ZN4core3ptr104drop_in_place$LT$syn..punctuated..Punctuated$LT$syn..generics..TypeParamBound$C$syn..token..Plus$GT$$GT$17h94179c83f1bdbd23E', symObjAddr: 0xE00, symBinAddr: 0x808B0, symSize: 0x240 }
  - { offsetInCU: 0x9E24, offset: 0x2FCEC4, size: 0x8, addend: 0x0, symName: '__ZN4core3ptr34drop_in_place$LT$syn..lit..Lit$GT$17hee573645253c1240E', symObjAddr: 0x1040, symBinAddr: 0x80AF0, symSize: 0x120 }
  - { offsetInCU: 0xA312, offset: 0x2FD3B2, size: 0x8, addend: 0x0, symName: '__ZN4core3ptr34drop_in_place$LT$syn..pat..Pat$GT$17h973f87584b174815E', symObjAddr: 0x1160, symBinAddr: 0x80C10, symSize: 0xF40 }
  - { offsetInCU: 0xDDD8, offset: 0x300E78, size: 0x8, addend: 0x0, symName: '__ZN4core3ptr34drop_in_place$LT$syn..ty..Type$GT$17h3ae90635bb8b5dc2E', symObjAddr: 0x20A0, symBinAddr: 0x81B50, symSize: 0x580 }
  - { offsetInCU: 0xF661, offset: 0x302701, size: 0x8, addend: 0x0, symName: '__ZN4core3ptr36drop_in_place$LT$syn..expr..Expr$GT$17hec1898832a7659fcE', symObjAddr: 0x2620, symBinAddr: 0x820D0, symSize: 0x2730 }
  - { offsetInCU: 0x18AC1, offset: 0x30BB61, size: 0x8, addend: 0x0, symName: '__ZN4core3ptr36drop_in_place$LT$syn..mac..Macro$GT$17hee38913ef8f169faE', symObjAddr: 0x4D50, symBinAddr: 0x84800, symSize: 0xE0 }
  - { offsetInCU: 0x18E4B, offset: 0x30BEEB, size: 0x8, addend: 0x0, symName: '__ZN4core3ptr36drop_in_place$LT$syn..path..Path$GT$17h1bbd58c3d6dc291aE', symObjAddr: 0x4E30, symBinAddr: 0x848E0, symSize: 0x240 }
  - { offsetInCU: 0x197E5, offset: 0x30C885, size: 0x8, addend: 0x0, symName: '__ZN4core3ptr37drop_in_place$LT$syn..stmt..Block$GT$17h3a3c4aa9f1407e4cE', symObjAddr: 0x5070, symBinAddr: 0x84B20, symSize: 0xD0 }
  - { offsetInCU: 0x19B57, offset: 0x30CBF7, size: 0x8, addend: 0x0, symName: '__ZN4core3ptr38drop_in_place$LT$syn..data..Fields$GT$17hc99e215fa9fa15adE', symObjAddr: 0x5140, symBinAddr: 0x84BF0, symSize: 0x190 }
  - { offsetInCU: 0x19FA1, offset: 0x30D041, size: 0x8, addend: 0x0, symName: '__ZN4core3ptr38drop_in_place$LT$syn..expr..Member$GT$17h11f93a48e3da0c5fE', symObjAddr: 0x52D0, symBinAddr: 0x84D80, symSize: 0x30 }
  - { offsetInCU: 0x1A09D, offset: 0x30D13D, size: 0x8, addend: 0x0, symName: '__ZN4core3ptr39drop_in_place$LT$proc_macro2..Ident$GT$17h78274ef0131bd7beE', symObjAddr: 0x5300, symBinAddr: 0x84DB0, symSize: 0x30 }
  - { offsetInCU: 0x1A17A, offset: 0x30D21A, size: 0x8, addend: 0x0, symName: '__ZN4core3ptr40drop_in_place$LT$syn..ty..ReturnType$GT$17h5fc392ae06958c38E', symObjAddr: 0x5330, symBinAddr: 0x84DE0, symSize: 0x50 }
  - { offsetInCU: 0x1A2EA, offset: 0x30D38A, size: 0x8, addend: 0x0, symName: '__ZN4core3ptr41drop_in_place$LT$syn..expr..ExprConst$GT$17h5c5bfa544cf2da15E', symObjAddr: 0x5380, symBinAddr: 0x84E30, symSize: 0x180 }
  - { offsetInCU: 0x1A8A3, offset: 0x30D943, size: 0x8, addend: 0x0, symName: '__ZN4core3ptr44drop_in_place$LT$syn..lifetime..Lifetime$GT$17h6e42d75874321b11E', symObjAddr: 0x5500, symBinAddr: 0x84FB0, symSize: 0x30 }
  - { offsetInCU: 0x1AAD5, offset: 0x30DB75, size: 0x8, addend: 0x0, symName: '__ZN4core3ptr45drop_in_place$LT$proc_macro2..TokenStream$GT$17h3de86edc178dbdf7E', symObjAddr: 0x5530, symBinAddr: 0x84FE0, symSize: 0x140 }
  - { offsetInCU: 0x1AF6F, offset: 0x30E00F, size: 0x8, addend: 0x0, symName: '__ZN4core3ptr45drop_in_place$LT$syn..generics..TypeParam$GT$17hcf09314885b07e76E', symObjAddr: 0x5670, symBinAddr: 0x85120, symSize: 0x230 }
  - { offsetInCU: 0x1B7B0, offset: 0x30E850, size: 0x8, addend: 0x0, symName: '__ZN4core3ptr46drop_in_place$LT$syn..generics..ConstParam$GT$17hc257e156a7125459E', symObjAddr: 0x58A0, symBinAddr: 0x85350, symSize: 0x150 }
  - { offsetInCU: 0x1BBFD, offset: 0x30EC9D, size: 0x8, addend: 0x0, symName: '__ZN4core3ptr47drop_in_place$LT$syn..path..GenericArgument$GT$17h468af66cc22ee749E', symObjAddr: 0x59F0, symBinAddr: 0x854A0, symSize: 0x450 }
  - { offsetInCU: 0x1C973, offset: 0x30FA13, size: 0x8, addend: 0x0, symName: '__ZN4core3ptr49drop_in_place$LT$syn..generics..LifetimeParam$GT$17h9ae69bbe86531da0E', symObjAddr: 0x5E40, symBinAddr: 0x858F0, symSize: 0xF0 }
  - { offsetInCU: 0x1CD94, offset: 0x30FE34, size: 0x8, addend: 0x0, symName: '__ZN4core3ptr49drop_in_place$LT$syn..restriction..Visibility$GT$17h83ceef089d938a49E', symObjAddr: 0x5F30, symBinAddr: 0x859E0, symSize: 0x60 }
  - { offsetInCU: 0x1CF05, offset: 0x30FFA5, size: 0x8, addend: 0x0, symName: '__ZN4core3ptr50drop_in_place$LT$syn..generics..TypeParamBound$GT$17he4fe30d10954a629E', symObjAddr: 0x5F90, symBinAddr: 0x85A40, symSize: 0xA0 }
  - { offsetInCU: 0x1D06B, offset: 0x31010B, size: 0x8, addend: 0x0, symName: '__ZN4core3ptr58drop_in_place$LT$alloc..vec..Vec$LT$syn..expr..Arm$GT$$GT$17h14e2e22a7226ddf8E', symObjAddr: 0x6030, symBinAddr: 0x85AE0, symSize: 0xD0 }
  - { offsetInCU: 0x1D32B, offset: 0x3103CB, size: 0x8, addend: 0x0, symName: '__ZN4core3ptr59drop_in_place$LT$alloc..boxed..Box$LT$syn..pat..Pat$GT$$GT$17h50d0c33df1b13ff6E', symObjAddr: 0x6100, symBinAddr: 0x85BB0, symSize: 0x50 }
  - { offsetInCU: 0x1D484, offset: 0x310524, size: 0x8, addend: 0x0, symName: '__ZN4core3ptr59drop_in_place$LT$alloc..boxed..Box$LT$syn..ty..Type$GT$$GT$17h7bcc4a34581ddba7E', symObjAddr: 0x6150, symBinAddr: 0x85C00, symSize: 0x50 }
  - { offsetInCU: 0x1D5DD, offset: 0x31067D, size: 0x8, addend: 0x0, symName: '__ZN4core3ptr61drop_in_place$LT$alloc..boxed..Box$LT$syn..expr..Expr$GT$$GT$17h2f5fb41dd226c4deE', symObjAddr: 0x61A0, symBinAddr: 0x85C50, symSize: 0x50 }
  - { offsetInCU: 0x1D736, offset: 0x3107D6, size: 0x8, addend: 0x0, symName: '__ZN4core3ptr61drop_in_place$LT$syn..path..ParenthesizedGenericArguments$GT$17h490a82a7318211d4E', symObjAddr: 0x61F0, symBinAddr: 0x85CA0, symSize: 0x170 }
  - { offsetInCU: 0x1DD3F, offset: 0x310DDF, size: 0x8, addend: 0x0, symName: '__ZN4core3ptr63drop_in_place$LT$alloc..boxed..Box$LT$syn..lit..LitRepr$GT$$GT$17h3db95a238b447968E', symObjAddr: 0x6360, symBinAddr: 0x85E10, symSize: 0x60 }
  - { offsetInCU: 0x1E046, offset: 0x3110E6, size: 0x8, addend: 0x0, symName: '__ZN4core3ptr64drop_in_place$LT$alloc..boxed..Box$LT$syn..pat..FieldPat$GT$$GT$17h90926d8c1a4ddae4E', symObjAddr: 0x63C0, symBinAddr: 0x85E70, symSize: 0x140 }
  - { offsetInCU: 0x1E713, offset: 0x3117B3, size: 0x8, addend: 0x0, symName: '__ZN4core3ptr64drop_in_place$LT$alloc..boxed..Box$LT$syn..ty..BareFnArg$GT$$GT$17h0f95c2c81efdd59dE', symObjAddr: 0x6500, symBinAddr: 0x85FB0, symSize: 0x140 }
  - { offsetInCU: 0x1EC87, offset: 0x311D27, size: 0x8, addend: 0x0, symName: '__ZN4core3ptr65drop_in_place$LT$alloc..vec..Vec$LT$alloc..string..String$GT$$GT$17h61174ae9211d439eE', symObjAddr: 0x6640, symBinAddr: 0x860F0, symSize: 0x90 }
  - { offsetInCU: 0x1EF1B, offset: 0x311FBB, size: 0x8, addend: 0x0, symName: '__ZN4core3ptr65drop_in_place$LT$alloc..vec..Vec$LT$proc_macro..TokenTree$GT$$GT$17h3cc592fdbb1600b7E', symObjAddr: 0x66D0, symBinAddr: 0x86180, symSize: 0x110 }
  - { offsetInCU: 0x1F313, offset: 0x3123B3, size: 0x8, addend: 0x0, symName: '__ZN4core3ptr65drop_in_place$LT$core..option..Option$LT$syn..expr..Label$GT$$GT$17heefd36b73aa6dbbbE', symObjAddr: 0x67E0, symBinAddr: 0x86290, symSize: 0x30 }
  - { offsetInCU: 0x1F44D, offset: 0x3124ED, size: 0x8, addend: 0x0, symName: '__ZN4core3ptr66drop_in_place$LT$core..option..Option$LT$syn..pat..PatRest$GT$$GT$17h122af7de33a39a61E', symObjAddr: 0x6810, symBinAddr: 0x862C0, symSize: 0xE0 }
  - { offsetInCU: 0x1F741, offset: 0x3127E1, size: 0x8, addend: 0x0, symName: '__ZN4core3ptr67drop_in_place$LT$alloc..boxed..Box$LT$syn..expr..FieldValue$GT$$GT$17h67591aed16e5fd17E', symObjAddr: 0x68F0, symBinAddr: 0x863A0, symSize: 0x140 }
  - { offsetInCU: 0x1FC95, offset: 0x312D35, size: 0x8, addend: 0x0, symName: '__ZN4core3ptr70drop_in_place$LT$core..option..Option$LT$syn..ty..BareVariadic$GT$$GT$17hca3e4002aff8883fE', symObjAddr: 0x6A30, symBinAddr: 0x864E0, symSize: 0x100 }
  - { offsetInCU: 0x200CC, offset: 0x31316C, size: 0x8, addend: 0x0, symName: '__ZN4core3ptr72drop_in_place$LT$alloc..boxed..Box$LT$syn..path..GenericArgument$GT$$GT$17h85ff28da2594c421E', symObjAddr: 0x6B30, symBinAddr: 0x865E0, symSize: 0x2B0 }
  - { offsetInCU: 0x20ADD, offset: 0x313B7D, size: 0x8, addend: 0x0, symName: '__ZN4core3ptr72drop_in_place$LT$core..option..Option$LT$syn..lifetime..Lifetime$GT$$GT$17hfee4ffb29eba4fc9E', symObjAddr: 0x6DE0, symBinAddr: 0x86890, symSize: 0x30 }
  - { offsetInCU: 0x20BF8, offset: 0x313C98, size: 0x8, addend: 0x0, symName: '__ZN4core3ptr73drop_in_place$LT$alloc..boxed..Box$LT$syn..generics..GenericParam$GT$$GT$17hce03ddb06f310207E', symObjAddr: 0x6E10, symBinAddr: 0x868C0, symSize: 0x80 }
  - { offsetInCU: 0x20D6E, offset: 0x313E0E, size: 0x8, addend: 0x0, symName: '__ZN4core3ptr75drop_in_place$LT$alloc..boxed..Box$LT$syn..generics..TypeParamBound$GT$$GT$17h9abbd9006a1d5cd9E', symObjAddr: 0x6E90, symBinAddr: 0x86940, symSize: 0x180 }
  - { offsetInCU: 0x2135A, offset: 0x3143FA, size: 0x8, addend: 0x0, symName: '__ZN4core3ptr86drop_in_place$LT$syn..punctuated..Punctuated$LT$syn..pat..Pat$C$syn..token..Or$GT$$GT$17h7580e44fbb73d60bE', symObjAddr: 0x7010, symBinAddr: 0x86AC0, symSize: 0x120 }
  - { offsetInCU: 0x217D5, offset: 0x314875, size: 0x8, addend: 0x0, symName: '__ZN4core3ptr87drop_in_place$LT$core..option..Option$LT$alloc..boxed..Box$LT$syn..pat..Pat$GT$$GT$$GT$17h0af17f6f14c9379aE', symObjAddr: 0x7130, symBinAddr: 0x86BE0, symSize: 0x50 }
  - { offsetInCU: 0x21945, offset: 0x3149E5, size: 0x8, addend: 0x0, symName: '__ZN4core3ptr87drop_in_place$LT$core..option..Option$LT$alloc..boxed..Box$LT$syn..ty..Type$GT$$GT$$GT$17h115b882e05437c86E', symObjAddr: 0x7180, symBinAddr: 0x86C30, symSize: 0x50 }
  - { offsetInCU: 0x21AB5, offset: 0x314B55, size: 0x8, addend: 0x0, symName: '__ZN4core3ptr89drop_in_place$LT$core..option..Option$LT$alloc..boxed..Box$LT$syn..expr..Expr$GT$$GT$$GT$17he3e67d25883b4389E', symObjAddr: 0x71D0, symBinAddr: 0x86C80, symSize: 0x50 }
  - { offsetInCU: 0x21C63, offset: 0x314D03, size: 0x8, addend: 0x0, symName: '__ZN4core3ptr89drop_in_place$LT$syn..punctuated..Punctuated$LT$syn..pat..Pat$C$syn..token..Comma$GT$$GT$17hd0f680a310102099E', symObjAddr: 0x7220, symBinAddr: 0x86CD0, symSize: 0x120 }
  - { offsetInCU: 0x22171, offset: 0x315211, size: 0x8, addend: 0x0, symName: '__ZN4core3ptr90drop_in_place$LT$core..option..Option$LT$alloc..boxed..Box$LT$syn..data..Field$GT$$GT$$GT$17h77597b41f3489811E', symObjAddr: 0x7340, symBinAddr: 0x86DF0, symSize: 0x1B0 }
  - { offsetInCU: 0x2284E, offset: 0x3158EE, size: 0x8, addend: 0x0, symName: '__ZN4core3ptr91drop_in_place$LT$syn..punctuated..Punctuated$LT$syn..expr..Expr$C$syn..token..Comma$GT$$GT$17h2f01a48d43db64beE', symObjAddr: 0x74F0, symBinAddr: 0x86FA0, symSize: 0x120 }
  - { offsetInCU: 0x22CDC, offset: 0x315D7C, size: 0x8, addend: 0x0, symName: '__ZN4core3ptr94drop_in_place$LT$syn..punctuated..Punctuated$LT$syn..pat..FieldPat$C$syn..token..Comma$GT$$GT$17h1420eba3f01509f6E', symObjAddr: 0x7610, symBinAddr: 0x870C0, symSize: 0xF0 }
  - { offsetInCU: 0x22FDB, offset: 0x31607B, size: 0x8, addend: 0x0, symName: '__ZN4core3ptr94drop_in_place$LT$syn..punctuated..Punctuated$LT$syn..ty..BareFnArg$C$syn..token..Comma$GT$$GT$17h96c674e9d142553fE', symObjAddr: 0x7700, symBinAddr: 0x871B0, symSize: 0xF0 }
  - { offsetInCU: 0x232DC, offset: 0x31637C, size: 0x8, addend: 0x0, symName: '__ZN4core3ptr96drop_in_place$LT$core..option..Option$LT$alloc..boxed..Box$LT$syn..path..PathSegment$GT$$GT$$GT$17hcd3eda3806df5f3aE', symObjAddr: 0x77F0, symBinAddr: 0x872A0, symSize: 0x1A0 }
  - { offsetInCU: 0x2399D, offset: 0x316A3D, size: 0x8, addend: 0x0, symName: '__ZN4core3ptr97drop_in_place$LT$syn..punctuated..Punctuated$LT$syn..expr..FieldValue$C$syn..token..Comma$GT$$GT$17hd26eb8b5d8a23419E', symObjAddr: 0x7990, symBinAddr: 0x87440, symSize: 0xF0 }
  - { offsetInCU: 0x23D16, offset: 0x316DB6, size: 0x8, addend: 0x0, symName: '__ZN4core3ptr98drop_in_place$LT$syn..punctuated..Punctuated$LT$syn..lifetime..Lifetime$C$syn..token..Plus$GT$$GT$17hb40bd2b31d61c61aE', symObjAddr: 0x7A80, symBinAddr: 0x87530, symSize: 0xC6 }
  - { offsetInCU: 0x243E2, offset: 0x317482, size: 0x8, addend: 0x0, symName: '__ZN102_$LT$core..iter..adapters..map..Map$LT$I$C$F$GT$$u20$as$u20$core..iter..traits..iterator..Iterator$GT$8try_fold17hc95bc26845ae3532E', symObjAddr: 0x2D0, symBinAddr: 0x7FD80, symSize: 0x8B0 }
  - { offsetInCU: 0x1E, offset: 0x31F98B, size: 0x8, addend: 0x0, symName: '__ZN4core3ptr39drop_in_place$LT$std..env..VarError$GT$17h541be2f0d3c86a78E', symObjAddr: 0x0, symBinAddr: 0x87600, symSize: 0x30 }
  - { offsetInCU: 0xAA, offset: 0x31FA17, size: 0x8, addend: 0x0, symName: '__ZN55_$LT$std..env..VarError$u20$as$u20$core..fmt..Debug$GT$3fmt17hfdf45cfe12c33a85E', symObjAddr: 0x30, symBinAddr: 0x87630, symSize: 0x50 }
  - { offsetInCU: 0x6FF, offset: 0x32006C, size: 0x8, addend: 0x0, symName: '__ZN4core3ptr39drop_in_place$LT$std..env..VarError$GT$17h541be2f0d3c86a78E', symObjAddr: 0x0, symBinAddr: 0x87600, symSize: 0x30 }
  - { offsetInCU: 0x10A7, offset: 0x320A14, size: 0x8, addend: 0x0, symName: '__ZN71_$LT$core..hash..sip..Hasher$LT$S$GT$$u20$as$u20$core..hash..Hasher$GT$5write17h27a51f3e1a2b13e1E', symObjAddr: 0x80, symBinAddr: 0x87680, symSize: 0x1E0 }
  - { offsetInCU: 0x2D20, offset: 0x32268D, size: 0x8, addend: 0x0, symName: '__ZN85_$LT$wasm_bindgen_backend..util..ShortHash$LT$T$GT$$u20$as$u20$core..fmt..Display$GT$3fmt17h3e6e49759417e26dE', symObjAddr: 0x260, symBinAddr: 0x87860, symSize: 0x610 }
  - { offsetInCU: 0x450C, offset: 0x323E79, size: 0x8, addend: 0x0, symName: '__ZN85_$LT$wasm_bindgen_backend..util..ShortHash$LT$T$GT$$u20$as$u20$core..fmt..Display$GT$3fmt17ha6f29eca8b4634fcE', symObjAddr: 0x870, symBinAddr: 0x87E70, symSize: 0x620 }
  - { offsetInCU: 0x5E0F, offset: 0x32577C, size: 0x8, addend: 0x0, symName: '__ZN85_$LT$wasm_bindgen_backend..util..ShortHash$LT$T$GT$$u20$as$u20$core..fmt..Display$GT$3fmt17hb392c6e4fd31551fE', symObjAddr: 0xE90, symBinAddr: 0x88490, symSize: 0x59C }
  - { offsetInCU: 0x1E, offset: 0x3276D9, size: 0x8, addend: 0x0, symName: __ZN3syn11parse_quote5parse17h0b9ec1165532dd1dE, symObjAddr: 0x0, symBinAddr: 0x88A30, symSize: 0x420 }
  - { offsetInCU: 0x1C0A, offset: 0x3292C5, size: 0x8, addend: 0x0, symName: '__ZN4core3ptr100drop_in_place$LT$core..option..Option$LT$alloc..boxed..Box$LT$syn..path..GenericArgument$GT$$GT$$GT$17h57a5558e267c0aa5E', symObjAddr: 0xCA0, symBinAddr: 0x89680, symSize: 0x50 }
  - { offsetInCU: 0x1DD7, offset: 0x329492, size: 0x8, addend: 0x0, symName: '__ZN4core3ptr102drop_in_place$LT$syn..punctuated..Punctuated$LT$syn..path..GenericArgument$C$syn..token..Comma$GT$$GT$17h6569f8cea27daa1fE', symObjAddr: 0xCF0, symBinAddr: 0x896D0, symSize: 0xF0 }
  - { offsetInCU: 0x20F7, offset: 0x3297B2, size: 0x8, addend: 0x0, symName: '__ZN4core3ptr103drop_in_place$LT$core..option..Option$LT$alloc..boxed..Box$LT$syn..generics..TypeParamBound$GT$$GT$$GT$17hd35dab8117a0a53fE', symObjAddr: 0xDE0, symBinAddr: 0x897C0, symSize: 0x50 }
  - { offsetInCU: 0x2302, offset: 0x3299BD, size: 0x8, addend: 0x0, symName: '__ZN4core3ptr103drop_in_place$LT$syn..punctuated..Punctuated$LT$syn..generics..GenericParam$C$syn..token..Comma$GT$$GT$17h7f466bbfdffc79f8E', symObjAddr: 0xE30, symBinAddr: 0x89810, symSize: 0xF0 }
  - { offsetInCU: 0x285A, offset: 0x329F15, size: 0x8, addend: 0x0, symName: '__ZN4core3ptr104drop_in_place$LT$syn..punctuated..Punctuated$LT$syn..generics..TypeParamBound$C$syn..token..Plus$GT$$GT$17h94179c83f1bdbd23E', symObjAddr: 0xF20, symBinAddr: 0x89900, symSize: 0x240 }
  - { offsetInCU: 0x3191, offset: 0x32A84C, size: 0x8, addend: 0x0, symName: '__ZN4core3ptr34drop_in_place$LT$syn..lit..Lit$GT$17hee573645253c1240E', symObjAddr: 0x1160, symBinAddr: 0x89B40, symSize: 0x120 }
  - { offsetInCU: 0x367F, offset: 0x32AD3A, size: 0x8, addend: 0x0, symName: '__ZN4core3ptr34drop_in_place$LT$syn..pat..Pat$GT$17h973f87584b174815E', symObjAddr: 0x1280, symBinAddr: 0x89C60, symSize: 0xF40 }
  - { offsetInCU: 0x7145, offset: 0x32E800, size: 0x8, addend: 0x0, symName: '__ZN4core3ptr34drop_in_place$LT$syn..ty..Type$GT$17h3ae90635bb8b5dc2E', symObjAddr: 0x21C0, symBinAddr: 0x8ABA0, symSize: 0x580 }
  - { offsetInCU: 0x843C, offset: 0x32FAF7, size: 0x8, addend: 0x0, symName: '__ZN4core3ptr36drop_in_place$LT$syn..attr..Meta$GT$17ha8dcfe993ad79a14E', symObjAddr: 0x2740, symBinAddr: 0x8B120, symSize: 0xA0 }
  - { offsetInCU: 0x8A68, offset: 0x330123, size: 0x8, addend: 0x0, symName: '__ZN4core3ptr36drop_in_place$LT$syn..expr..Expr$GT$17hec1898832a7659fcE', symObjAddr: 0x27E0, symBinAddr: 0x8B1C0, symSize: 0x2730 }
  - { offsetInCU: 0x11EC8, offset: 0x339583, size: 0x8, addend: 0x0, symName: '__ZN4core3ptr36drop_in_place$LT$syn..mac..Macro$GT$17hee38913ef8f169faE', symObjAddr: 0x4F10, symBinAddr: 0x8D8F0, symSize: 0xE0 }
  - { offsetInCU: 0x12252, offset: 0x33990D, size: 0x8, addend: 0x0, symName: '__ZN4core3ptr36drop_in_place$LT$syn..path..Path$GT$17h1bbd58c3d6dc291aE', symObjAddr: 0x4FF0, symBinAddr: 0x8D9D0, symSize: 0x240 }
  - { offsetInCU: 0x12BEC, offset: 0x33A2A7, size: 0x8, addend: 0x0, symName: '__ZN4core3ptr37drop_in_place$LT$syn..stmt..Block$GT$17h3a3c4aa9f1407e4cE', symObjAddr: 0x5230, symBinAddr: 0x8DC10, symSize: 0xD0 }
  - { offsetInCU: 0x12F01, offset: 0x33A5BC, size: 0x8, addend: 0x0, symName: '__ZN4core3ptr38drop_in_place$LT$syn..error..Error$GT$17h8da952fefee32afcE', symObjAddr: 0x5300, symBinAddr: 0x8DCE0, symSize: 0x90 }
  - { offsetInCU: 0x131C2, offset: 0x33A87D, size: 0x8, addend: 0x0, symName: '__ZN4core3ptr38drop_in_place$LT$syn..expr..Member$GT$17h11f93a48e3da0c5fE', symObjAddr: 0x5390, symBinAddr: 0x8DD70, symSize: 0x30 }
  - { offsetInCU: 0x132BE, offset: 0x33A979, size: 0x8, addend: 0x0, symName: '__ZN4core3ptr39drop_in_place$LT$proc_macro2..Ident$GT$17h78274ef0131bd7beE', symObjAddr: 0x53C0, symBinAddr: 0x8DDA0, symSize: 0x30 }
  - { offsetInCU: 0x134D1, offset: 0x33AB8C, size: 0x8, addend: 0x0, symName: '__ZN4core3ptr39drop_in_place$LT$syn..buffer..Entry$GT$17had1468ef4441d67dE', symObjAddr: 0x53F0, symBinAddr: 0x8DDD0, symSize: 0xB0 }
  - { offsetInCU: 0x1385C, offset: 0x33AF17, size: 0x8, addend: 0x0, symName: '__ZN4core3ptr40drop_in_place$LT$syn..ty..ReturnType$GT$17h5fc392ae06958c38E', symObjAddr: 0x54A0, symBinAddr: 0x8DE80, symSize: 0x50 }
  - { offsetInCU: 0x139CC, offset: 0x33B087, size: 0x8, addend: 0x0, symName: '__ZN4core3ptr41drop_in_place$LT$syn..expr..ExprConst$GT$17h5c5bfa544cf2da15E', symObjAddr: 0x54F0, symBinAddr: 0x8DED0, symSize: 0x180 }
  - { offsetInCU: 0x13F85, offset: 0x33B640, size: 0x8, addend: 0x0, symName: '__ZN4core3ptr44drop_in_place$LT$syn..lifetime..Lifetime$GT$17h6e42d75874321b11E', symObjAddr: 0x5670, symBinAddr: 0x8E050, symSize: 0x30 }
  - { offsetInCU: 0x14081, offset: 0x33B73C, size: 0x8, addend: 0x0, symName: '__ZN4core3ptr44drop_in_place$LT$syn..parse..ParseBuffer$GT$17h45130160a6625144E', symObjAddr: 0x56A0, symBinAddr: 0x8E080, symSize: 0x70 }
  - { offsetInCU: 0x143FD, offset: 0x33BAB8, size: 0x8, addend: 0x0, symName: '__ZN4core3ptr45drop_in_place$LT$proc_macro2..TokenStream$GT$17h3de86edc178dbdf7E', symObjAddr: 0x5710, symBinAddr: 0x8E0F0, symSize: 0x140 }
  - { offsetInCU: 0x14859, offset: 0x33BF14, size: 0x8, addend: 0x0, symName: '__ZN4core3ptr45drop_in_place$LT$syn..buffer..TokenBuffer$GT$17hcbf95bbdb504c21fE', symObjAddr: 0x5850, symBinAddr: 0x8E230, symSize: 0xC0 }
  - { offsetInCU: 0x14AC1, offset: 0x33C17C, size: 0x8, addend: 0x0, symName: '__ZN4core3ptr45drop_in_place$LT$syn..generics..TypeParam$GT$17hcf09314885b07e76E', symObjAddr: 0x5910, symBinAddr: 0x8E2F0, symSize: 0x230 }
  - { offsetInCU: 0x15302, offset: 0x33C9BD, size: 0x8, addend: 0x0, symName: '__ZN4core3ptr46drop_in_place$LT$syn..generics..ConstParam$GT$17hc257e156a7125459E', symObjAddr: 0x5B40, symBinAddr: 0x8E520, symSize: 0x150 }
  - { offsetInCU: 0x1574F, offset: 0x33CE0A, size: 0x8, addend: 0x0, symName: '__ZN4core3ptr47drop_in_place$LT$syn..path..GenericArgument$GT$17h468af66cc22ee749E', symObjAddr: 0x5C90, symBinAddr: 0x8E670, symSize: 0x450 }
  - { offsetInCU: 0x164C5, offset: 0x33DB80, size: 0x8, addend: 0x0, symName: '__ZN4core3ptr49drop_in_place$LT$syn..generics..LifetimeParam$GT$17h9ae69bbe86531da0E', symObjAddr: 0x60E0, symBinAddr: 0x8EAC0, symSize: 0xF0 }
  - { offsetInCU: 0x168A8, offset: 0x33DF63, size: 0x8, addend: 0x0, symName: '__ZN4core3ptr50drop_in_place$LT$syn..generics..TypeParamBound$GT$17he4fe30d10954a629E', symObjAddr: 0x61D0, symBinAddr: 0x8EBB0, symSize: 0xA0 }
  - { offsetInCU: 0x16A0E, offset: 0x33E0C9, size: 0x8, addend: 0x0, symName: '__ZN4core3ptr58drop_in_place$LT$alloc..vec..Vec$LT$syn..expr..Arm$GT$$GT$17h14e2e22a7226ddf8E', symObjAddr: 0x6270, symBinAddr: 0x8EC50, symSize: 0xD0 }
  - { offsetInCU: 0x16CCE, offset: 0x33E389, size: 0x8, addend: 0x0, symName: '__ZN4core3ptr59drop_in_place$LT$alloc..boxed..Box$LT$syn..pat..Pat$GT$$GT$17h50d0c33df1b13ff6E', symObjAddr: 0x6340, symBinAddr: 0x8ED20, symSize: 0x50 }
  - { offsetInCU: 0x16E27, offset: 0x33E4E2, size: 0x8, addend: 0x0, symName: '__ZN4core3ptr59drop_in_place$LT$alloc..boxed..Box$LT$syn..ty..Type$GT$$GT$17h7bcc4a34581ddba7E', symObjAddr: 0x6390, symBinAddr: 0x8ED70, symSize: 0x50 }
  - { offsetInCU: 0x16F80, offset: 0x33E63B, size: 0x8, addend: 0x0, symName: '__ZN4core3ptr61drop_in_place$LT$alloc..boxed..Box$LT$syn..expr..Expr$GT$$GT$17h2f5fb41dd226c4deE', symObjAddr: 0x63E0, symBinAddr: 0x8EDC0, symSize: 0x50 }
  - { offsetInCU: 0x170D9, offset: 0x33E794, size: 0x8, addend: 0x0, symName: '__ZN4core3ptr61drop_in_place$LT$syn..path..ParenthesizedGenericArguments$GT$17h490a82a7318211d4E', symObjAddr: 0x6430, symBinAddr: 0x8EE10, symSize: 0x170 }
  - { offsetInCU: 0x176E2, offset: 0x33ED9D, size: 0x8, addend: 0x0, symName: '__ZN4core3ptr63drop_in_place$LT$alloc..boxed..Box$LT$syn..lit..LitRepr$GT$$GT$17h3db95a238b447968E', symObjAddr: 0x65A0, symBinAddr: 0x8EF80, symSize: 0x60 }
  - { offsetInCU: 0x179E9, offset: 0x33F0A4, size: 0x8, addend: 0x0, symName: '__ZN4core3ptr64drop_in_place$LT$alloc..boxed..Box$LT$syn..pat..FieldPat$GT$$GT$17h90926d8c1a4ddae4E', symObjAddr: 0x6600, symBinAddr: 0x8EFE0, symSize: 0x140 }
  - { offsetInCU: 0x180B6, offset: 0x33F771, size: 0x8, addend: 0x0, symName: '__ZN4core3ptr64drop_in_place$LT$alloc..boxed..Box$LT$syn..ty..BareFnArg$GT$$GT$17h0f95c2c81efdd59dE', symObjAddr: 0x6740, symBinAddr: 0x8F120, symSize: 0x140 }
  - { offsetInCU: 0x1860B, offset: 0x33FCC6, size: 0x8, addend: 0x0, symName: '__ZN4core3ptr65drop_in_place$LT$alloc..vec..Vec$LT$proc_macro..TokenTree$GT$$GT$17h3cc592fdbb1600b7E', symObjAddr: 0x6880, symBinAddr: 0x8F260, symSize: 0x110 }
  - { offsetInCU: 0x18A03, offset: 0x3400BE, size: 0x8, addend: 0x0, symName: '__ZN4core3ptr65drop_in_place$LT$core..option..Option$LT$syn..expr..Label$GT$$GT$17heefd36b73aa6dbbbE', symObjAddr: 0x6990, symBinAddr: 0x8F370, symSize: 0x30 }
  - { offsetInCU: 0x18B3D, offset: 0x3401F8, size: 0x8, addend: 0x0, symName: '__ZN4core3ptr66drop_in_place$LT$core..option..Option$LT$syn..pat..PatRest$GT$$GT$17h122af7de33a39a61E', symObjAddr: 0x69C0, symBinAddr: 0x8F3A0, symSize: 0xE0 }
  - { offsetInCU: 0x18E31, offset: 0x3404EC, size: 0x8, addend: 0x0, symName: '__ZN4core3ptr67drop_in_place$LT$alloc..boxed..Box$LT$syn..expr..FieldValue$GT$$GT$17h67591aed16e5fd17E', symObjAddr: 0x6AA0, symBinAddr: 0x8F480, symSize: 0x140 }
  - { offsetInCU: 0x19385, offset: 0x340A40, size: 0x8, addend: 0x0, symName: '__ZN4core3ptr70drop_in_place$LT$core..option..Option$LT$syn..ty..BareVariadic$GT$$GT$17hca3e4002aff8883fE', symObjAddr: 0x6BE0, symBinAddr: 0x8F5C0, symSize: 0x100 }
  - { offsetInCU: 0x197BC, offset: 0x340E77, size: 0x8, addend: 0x0, symName: '__ZN4core3ptr72drop_in_place$LT$alloc..boxed..Box$LT$syn..path..GenericArgument$GT$$GT$17h85ff28da2594c421E', symObjAddr: 0x6CE0, symBinAddr: 0x8F6C0, symSize: 0x2B0 }
  - { offsetInCU: 0x1A1CD, offset: 0x341888, size: 0x8, addend: 0x0, symName: '__ZN4core3ptr72drop_in_place$LT$core..option..Option$LT$syn..lifetime..Lifetime$GT$$GT$17hfee4ffb29eba4fc9E', symObjAddr: 0x6F90, symBinAddr: 0x8F970, symSize: 0x30 }
  - { offsetInCU: 0x1A2E8, offset: 0x3419A3, size: 0x8, addend: 0x0, symName: '__ZN4core3ptr73drop_in_place$LT$alloc..boxed..Box$LT$syn..generics..GenericParam$GT$$GT$17hce03ddb06f310207E', symObjAddr: 0x6FC0, symBinAddr: 0x8F9A0, symSize: 0x80 }
  - { offsetInCU: 0x1A45E, offset: 0x341B19, size: 0x8, addend: 0x0, symName: '__ZN4core3ptr75drop_in_place$LT$alloc..boxed..Box$LT$syn..generics..TypeParamBound$GT$$GT$17h9abbd9006a1d5cd9E', symObjAddr: 0x7040, symBinAddr: 0x8FA20, symSize: 0x180 }
  - { offsetInCU: 0x1AA4A, offset: 0x342105, size: 0x8, addend: 0x0, symName: '__ZN4core3ptr86drop_in_place$LT$syn..punctuated..Punctuated$LT$syn..pat..Pat$C$syn..token..Or$GT$$GT$17h7580e44fbb73d60bE', symObjAddr: 0x71C0, symBinAddr: 0x8FBA0, symSize: 0x120 }
  - { offsetInCU: 0x1AEC5, offset: 0x342580, size: 0x8, addend: 0x0, symName: '__ZN4core3ptr87drop_in_place$LT$core..option..Option$LT$alloc..boxed..Box$LT$syn..pat..Pat$GT$$GT$$GT$17h0af17f6f14c9379aE', symObjAddr: 0x72E0, symBinAddr: 0x8FCC0, symSize: 0x50 }
  - { offsetInCU: 0x1B035, offset: 0x3426F0, size: 0x8, addend: 0x0, symName: '__ZN4core3ptr87drop_in_place$LT$core..option..Option$LT$alloc..boxed..Box$LT$syn..ty..Type$GT$$GT$$GT$17h115b882e05437c86E', symObjAddr: 0x7330, symBinAddr: 0x8FD10, symSize: 0x50 }
  - { offsetInCU: 0x1B1A5, offset: 0x342860, size: 0x8, addend: 0x0, symName: '__ZN4core3ptr89drop_in_place$LT$core..option..Option$LT$alloc..boxed..Box$LT$syn..expr..Expr$GT$$GT$$GT$17he3e67d25883b4389E', symObjAddr: 0x7380, symBinAddr: 0x8FD60, symSize: 0x50 }
  - { offsetInCU: 0x1B353, offset: 0x342A0E, size: 0x8, addend: 0x0, symName: '__ZN4core3ptr89drop_in_place$LT$syn..punctuated..Punctuated$LT$syn..pat..Pat$C$syn..token..Comma$GT$$GT$17hd0f680a310102099E', symObjAddr: 0x73D0, symBinAddr: 0x8FDB0, symSize: 0x120 }
  - { offsetInCU: 0x1B823, offset: 0x342EDE, size: 0x8, addend: 0x0, symName: '__ZN4core3ptr91drop_in_place$LT$syn..punctuated..Punctuated$LT$syn..expr..Expr$C$syn..token..Comma$GT$$GT$17h2f01a48d43db64beE', symObjAddr: 0x74F0, symBinAddr: 0x8FED0, symSize: 0x120 }
  - { offsetInCU: 0x1BCB1, offset: 0x34336C, size: 0x8, addend: 0x0, symName: '__ZN4core3ptr94drop_in_place$LT$syn..punctuated..Punctuated$LT$syn..pat..FieldPat$C$syn..token..Comma$GT$$GT$17h1420eba3f01509f6E', symObjAddr: 0x7610, symBinAddr: 0x8FFF0, symSize: 0xF0 }
  - { offsetInCU: 0x1BFB0, offset: 0x34366B, size: 0x8, addend: 0x0, symName: '__ZN4core3ptr94drop_in_place$LT$syn..punctuated..Punctuated$LT$syn..ty..BareFnArg$C$syn..token..Comma$GT$$GT$17h96c674e9d142553fE', symObjAddr: 0x7700, symBinAddr: 0x900E0, symSize: 0xF0 }
  - { offsetInCU: 0x1C2B1, offset: 0x34396C, size: 0x8, addend: 0x0, symName: '__ZN4core3ptr96drop_in_place$LT$core..option..Option$LT$alloc..boxed..Box$LT$syn..path..PathSegment$GT$$GT$$GT$17hcd3eda3806df5f3aE', symObjAddr: 0x77F0, symBinAddr: 0x901D0, symSize: 0x1A0 }
  - { offsetInCU: 0x1C972, offset: 0x34402D, size: 0x8, addend: 0x0, symName: '__ZN4core3ptr97drop_in_place$LT$syn..punctuated..Punctuated$LT$syn..expr..FieldValue$C$syn..token..Comma$GT$$GT$17hd26eb8b5d8a23419E', symObjAddr: 0x7990, symBinAddr: 0x90370, symSize: 0xF0 }
  - { offsetInCU: 0x1CCEB, offset: 0x3443A6, size: 0x8, addend: 0x0, symName: '__ZN4core3ptr98drop_in_place$LT$syn..punctuated..Punctuated$LT$syn..lifetime..Lifetime$C$syn..token..Plus$GT$$GT$17hb40bd2b31d61c61aE', symObjAddr: 0x7A80, symBinAddr: 0x90460, symSize: 0xC6 }
  - { offsetInCU: 0x24997, offset: 0x34C052, size: 0x8, addend: 0x0, symName: __ZN3syn11parse_quote5parse17h0b9ec1165532dd1dE, symObjAddr: 0x0, symBinAddr: 0x88A30, symSize: 0x420 }
  - { offsetInCU: 0x251B4, offset: 0x34C86F, size: 0x8, addend: 0x0, symName: __ZN3syn11parse_quote5parse17h89af53d064f928b3E, symObjAddr: 0x420, symBinAddr: 0x88E50, symSize: 0x420 }
  - { offsetInCU: 0x259B9, offset: 0x34D074, size: 0x8, addend: 0x0, symName: __ZN3syn11parse_quote5parse17hd960bee8c84b0ddaE, symObjAddr: 0x840, symBinAddr: 0x89270, symSize: 0x410 }
  - { offsetInCU: 0x264A5, offset: 0x34DB60, size: 0x8, addend: 0x0, symName: __ZN3syn11parse_quote5parse18panic_cold_display17hb53818ac022f7d74E, symObjAddr: 0xC50, symBinAddr: 0x2AE530, symSize: 0x50 }
  - { offsetInCU: 0x15EC, offset: 0x3545E5, size: 0x8, addend: 0x0, symName: '__ZN4core3ptr100drop_in_place$LT$core..option..Option$LT$alloc..boxed..Box$LT$syn..path..GenericArgument$GT$$GT$$GT$17h57a5558e267c0aa5E', symObjAddr: 0xA0, symBinAddr: 0x90530, symSize: 0x50 }
  - { offsetInCU: 0x17B9, offset: 0x3547B2, size: 0x8, addend: 0x0, symName: '__ZN4core3ptr102drop_in_place$LT$syn..punctuated..Punctuated$LT$syn..path..GenericArgument$C$syn..token..Comma$GT$$GT$17h6569f8cea27daa1fE', symObjAddr: 0xF0, symBinAddr: 0x90580, symSize: 0xF0 }
  - { offsetInCU: 0x1AD9, offset: 0x354AD2, size: 0x8, addend: 0x0, symName: '__ZN4core3ptr103drop_in_place$LT$core..option..Option$LT$alloc..boxed..Box$LT$syn..generics..TypeParamBound$GT$$GT$$GT$17hd35dab8117a0a53fE', symObjAddr: 0x1E0, symBinAddr: 0x90670, symSize: 0x50 }
  - { offsetInCU: 0x1CE4, offset: 0x354CDD, size: 0x8, addend: 0x0, symName: '__ZN4core3ptr103drop_in_place$LT$syn..punctuated..Punctuated$LT$syn..generics..GenericParam$C$syn..token..Comma$GT$$GT$17h7f466bbfdffc79f8E', symObjAddr: 0x230, symBinAddr: 0x906C0, symSize: 0xF0 }
  - { offsetInCU: 0x22B8, offset: 0x3552B1, size: 0x8, addend: 0x0, symName: '__ZN4core3ptr104drop_in_place$LT$syn..punctuated..Punctuated$LT$syn..generics..TypeParamBound$C$syn..token..Plus$GT$$GT$17h94179c83f1bdbd23E', symObjAddr: 0x320, symBinAddr: 0x907B0, symSize: 0x240 }
  - { offsetInCU: 0x2BEF, offset: 0x355BE8, size: 0x8, addend: 0x0, symName: '__ZN4core3ptr34drop_in_place$LT$syn..lit..Lit$GT$17hee573645253c1240E', symObjAddr: 0x560, symBinAddr: 0x909F0, symSize: 0x120 }
  - { offsetInCU: 0x30DD, offset: 0x3560D6, size: 0x8, addend: 0x0, symName: '__ZN4core3ptr34drop_in_place$LT$syn..pat..Pat$GT$17h973f87584b174815E', symObjAddr: 0x680, symBinAddr: 0x90B10, symSize: 0xF40 }
  - { offsetInCU: 0x6BA3, offset: 0x359B9C, size: 0x8, addend: 0x0, symName: '__ZN4core3ptr34drop_in_place$LT$syn..ty..Type$GT$17h3ae90635bb8b5dc2E', symObjAddr: 0x15C0, symBinAddr: 0x91A50, symSize: 0x580 }
  - { offsetInCU: 0x842C, offset: 0x35B425, size: 0x8, addend: 0x0, symName: '__ZN4core3ptr36drop_in_place$LT$syn..expr..Expr$GT$17hec1898832a7659fcE', symObjAddr: 0x1B40, symBinAddr: 0x91FD0, symSize: 0x2730 }
  - { offsetInCU: 0x1188C, offset: 0x364885, size: 0x8, addend: 0x0, symName: '__ZN4core3ptr36drop_in_place$LT$syn..mac..Macro$GT$17hee38913ef8f169faE', symObjAddr: 0x4270, symBinAddr: 0x94700, symSize: 0xE0 }
  - { offsetInCU: 0x11C16, offset: 0x364C0F, size: 0x8, addend: 0x0, symName: '__ZN4core3ptr36drop_in_place$LT$syn..path..Path$GT$17h1bbd58c3d6dc291aE.llvm.1047463464873635016', symObjAddr: 0x4350, symBinAddr: 0x947E0, symSize: 0x240 }
  - { offsetInCU: 0x125B0, offset: 0x3655A9, size: 0x8, addend: 0x0, symName: '__ZN4core3ptr37drop_in_place$LT$syn..stmt..Block$GT$17h3a3c4aa9f1407e4cE', symObjAddr: 0x4590, symBinAddr: 0x94A20, symSize: 0xD0 }
  - { offsetInCU: 0x12887, offset: 0x365880, size: 0x8, addend: 0x0, symName: '__ZN4core3ptr38drop_in_place$LT$syn..expr..Member$GT$17h11f93a48e3da0c5fE', symObjAddr: 0x4660, symBinAddr: 0x94AF0, symSize: 0x30 }
  - { offsetInCU: 0x12983, offset: 0x36597C, size: 0x8, addend: 0x0, symName: '__ZN4core3ptr39drop_in_place$LT$proc_macro2..Ident$GT$17h78274ef0131bd7beE', symObjAddr: 0x4690, symBinAddr: 0x94B20, symSize: 0x30 }
  - { offsetInCU: 0x12A60, offset: 0x365A59, size: 0x8, addend: 0x0, symName: '__ZN4core3ptr40drop_in_place$LT$syn..ty..ReturnType$GT$17h5fc392ae06958c38E', symObjAddr: 0x46C0, symBinAddr: 0x94B50, symSize: 0x50 }
  - { offsetInCU: 0x12BD0, offset: 0x365BC9, size: 0x8, addend: 0x0, symName: '__ZN4core3ptr41drop_in_place$LT$syn..expr..ExprConst$GT$17h5c5bfa544cf2da15E', symObjAddr: 0x4710, symBinAddr: 0x94BA0, symSize: 0x180 }
  - { offsetInCU: 0x13189, offset: 0x366182, size: 0x8, addend: 0x0, symName: '__ZN4core3ptr44drop_in_place$LT$syn..lifetime..Lifetime$GT$17h6e42d75874321b11E', symObjAddr: 0x4890, symBinAddr: 0x94D20, symSize: 0x30 }
  - { offsetInCU: 0x133BB, offset: 0x3663B4, size: 0x8, addend: 0x0, symName: '__ZN4core3ptr45drop_in_place$LT$proc_macro2..TokenStream$GT$17h3de86edc178dbdf7E', symObjAddr: 0x48C0, symBinAddr: 0x94D50, symSize: 0x140 }
  - { offsetInCU: 0x13855, offset: 0x36684E, size: 0x8, addend: 0x0, symName: '__ZN4core3ptr45drop_in_place$LT$syn..generics..TypeParam$GT$17hcf09314885b07e76E', symObjAddr: 0x4A00, symBinAddr: 0x94E90, symSize: 0x230 }
  - { offsetInCU: 0x14096, offset: 0x36708F, size: 0x8, addend: 0x0, symName: '__ZN4core3ptr46drop_in_place$LT$syn..generics..ConstParam$GT$17hc257e156a7125459E', symObjAddr: 0x4C30, symBinAddr: 0x950C0, symSize: 0x150 }
  - { offsetInCU: 0x144E3, offset: 0x3674DC, size: 0x8, addend: 0x0, symName: '__ZN4core3ptr47drop_in_place$LT$syn..path..GenericArgument$GT$17h468af66cc22ee749E', symObjAddr: 0x4D80, symBinAddr: 0x95210, symSize: 0x450 }
  - { offsetInCU: 0x15259, offset: 0x368252, size: 0x8, addend: 0x0, symName: '__ZN4core3ptr49drop_in_place$LT$syn..generics..LifetimeParam$GT$17h9ae69bbe86531da0E', symObjAddr: 0x51D0, symBinAddr: 0x95660, symSize: 0xF0 }
  - { offsetInCU: 0x1563C, offset: 0x368635, size: 0x8, addend: 0x0, symName: '__ZN4core3ptr50drop_in_place$LT$syn..generics..TypeParamBound$GT$17he4fe30d10954a629E', symObjAddr: 0x52C0, symBinAddr: 0x95750, symSize: 0xA0 }
  - { offsetInCU: 0x157A2, offset: 0x36879B, size: 0x8, addend: 0x0, symName: '__ZN4core3ptr58drop_in_place$LT$alloc..vec..Vec$LT$syn..expr..Arm$GT$$GT$17h14e2e22a7226ddf8E', symObjAddr: 0x5360, symBinAddr: 0x957F0, symSize: 0xD0 }
  - { offsetInCU: 0x15A62, offset: 0x368A5B, size: 0x8, addend: 0x0, symName: '__ZN4core3ptr59drop_in_place$LT$alloc..boxed..Box$LT$syn..pat..Pat$GT$$GT$17h50d0c33df1b13ff6E', symObjAddr: 0x5430, symBinAddr: 0x958C0, symSize: 0x50 }
  - { offsetInCU: 0x15BBB, offset: 0x368BB4, size: 0x8, addend: 0x0, symName: '__ZN4core3ptr59drop_in_place$LT$alloc..boxed..Box$LT$syn..ty..Type$GT$$GT$17h7bcc4a34581ddba7E', symObjAddr: 0x5480, symBinAddr: 0x95910, symSize: 0x50 }
  - { offsetInCU: 0x15D14, offset: 0x368D0D, size: 0x8, addend: 0x0, symName: '__ZN4core3ptr61drop_in_place$LT$alloc..boxed..Box$LT$syn..expr..Expr$GT$$GT$17h2f5fb41dd226c4deE', symObjAddr: 0x54D0, symBinAddr: 0x95960, symSize: 0x50 }
  - { offsetInCU: 0x15E6D, offset: 0x368E66, size: 0x8, addend: 0x0, symName: '__ZN4core3ptr61drop_in_place$LT$syn..path..ParenthesizedGenericArguments$GT$17h490a82a7318211d4E', symObjAddr: 0x5520, symBinAddr: 0x959B0, symSize: 0x170 }
  - { offsetInCU: 0x16476, offset: 0x36946F, size: 0x8, addend: 0x0, symName: '__ZN4core3ptr63drop_in_place$LT$alloc..boxed..Box$LT$syn..lit..LitRepr$GT$$GT$17h3db95a238b447968E', symObjAddr: 0x5690, symBinAddr: 0x95B20, symSize: 0x60 }
  - { offsetInCU: 0x1677D, offset: 0x369776, size: 0x8, addend: 0x0, symName: '__ZN4core3ptr64drop_in_place$LT$alloc..boxed..Box$LT$syn..pat..FieldPat$GT$$GT$17h90926d8c1a4ddae4E', symObjAddr: 0x56F0, symBinAddr: 0x95B80, symSize: 0x140 }
  - { offsetInCU: 0x16E4A, offset: 0x369E43, size: 0x8, addend: 0x0, symName: '__ZN4core3ptr64drop_in_place$LT$alloc..boxed..Box$LT$syn..ty..BareFnArg$GT$$GT$17h0f95c2c81efdd59dE', symObjAddr: 0x5830, symBinAddr: 0x95CC0, symSize: 0x140 }
  - { offsetInCU: 0x1739F, offset: 0x36A398, size: 0x8, addend: 0x0, symName: '__ZN4core3ptr65drop_in_place$LT$alloc..vec..Vec$LT$proc_macro..TokenTree$GT$$GT$17h3cc592fdbb1600b7E', symObjAddr: 0x5970, symBinAddr: 0x95E00, symSize: 0x110 }
  - { offsetInCU: 0x17797, offset: 0x36A790, size: 0x8, addend: 0x0, symName: '__ZN4core3ptr65drop_in_place$LT$core..option..Option$LT$syn..expr..Label$GT$$GT$17heefd36b73aa6dbbbE', symObjAddr: 0x5A80, symBinAddr: 0x95F10, symSize: 0x30 }
  - { offsetInCU: 0x178D1, offset: 0x36A8CA, size: 0x8, addend: 0x0, symName: '__ZN4core3ptr66drop_in_place$LT$core..option..Option$LT$syn..pat..PatRest$GT$$GT$17h122af7de33a39a61E', symObjAddr: 0x5AB0, symBinAddr: 0x95F40, symSize: 0xE0 }
  - { offsetInCU: 0x17BC5, offset: 0x36ABBE, size: 0x8, addend: 0x0, symName: '__ZN4core3ptr67drop_in_place$LT$alloc..boxed..Box$LT$syn..expr..FieldValue$GT$$GT$17h67591aed16e5fd17E', symObjAddr: 0x5B90, symBinAddr: 0x96020, symSize: 0x140 }
  - { offsetInCU: 0x18119, offset: 0x36B112, size: 0x8, addend: 0x0, symName: '__ZN4core3ptr70drop_in_place$LT$core..option..Option$LT$syn..ty..BareVariadic$GT$$GT$17hca3e4002aff8883fE', symObjAddr: 0x5CD0, symBinAddr: 0x96160, symSize: 0x100 }
  - { offsetInCU: 0x18550, offset: 0x36B549, size: 0x8, addend: 0x0, symName: '__ZN4core3ptr72drop_in_place$LT$alloc..boxed..Box$LT$syn..path..GenericArgument$GT$$GT$17h85ff28da2594c421E', symObjAddr: 0x5DD0, symBinAddr: 0x96260, symSize: 0x2B0 }
  - { offsetInCU: 0x18F61, offset: 0x36BF5A, size: 0x8, addend: 0x0, symName: '__ZN4core3ptr72drop_in_place$LT$core..option..Option$LT$syn..lifetime..Lifetime$GT$$GT$17hfee4ffb29eba4fc9E', symObjAddr: 0x6080, symBinAddr: 0x96510, symSize: 0x30 }
  - { offsetInCU: 0x1907C, offset: 0x36C075, size: 0x8, addend: 0x0, symName: '__ZN4core3ptr73drop_in_place$LT$alloc..boxed..Box$LT$syn..generics..GenericParam$GT$$GT$17hce03ddb06f310207E', symObjAddr: 0x60B0, symBinAddr: 0x96540, symSize: 0x80 }
  - { offsetInCU: 0x191F2, offset: 0x36C1EB, size: 0x8, addend: 0x0, symName: '__ZN4core3ptr75drop_in_place$LT$alloc..boxed..Box$LT$syn..generics..TypeParamBound$GT$$GT$17h9abbd9006a1d5cd9E', symObjAddr: 0x6130, symBinAddr: 0x965C0, symSize: 0x180 }
  - { offsetInCU: 0x197DE, offset: 0x36C7D7, size: 0x8, addend: 0x0, symName: '__ZN4core3ptr86drop_in_place$LT$syn..punctuated..Punctuated$LT$syn..pat..Pat$C$syn..token..Or$GT$$GT$17h7580e44fbb73d60bE', symObjAddr: 0x62B0, symBinAddr: 0x96740, symSize: 0x120 }
  - { offsetInCU: 0x19C59, offset: 0x36CC52, size: 0x8, addend: 0x0, symName: '__ZN4core3ptr87drop_in_place$LT$core..option..Option$LT$alloc..boxed..Box$LT$syn..pat..Pat$GT$$GT$$GT$17h0af17f6f14c9379aE', symObjAddr: 0x63D0, symBinAddr: 0x96860, symSize: 0x50 }
  - { offsetInCU: 0x19DC9, offset: 0x36CDC2, size: 0x8, addend: 0x0, symName: '__ZN4core3ptr87drop_in_place$LT$core..option..Option$LT$alloc..boxed..Box$LT$syn..ty..Type$GT$$GT$$GT$17h115b882e05437c86E', symObjAddr: 0x6420, symBinAddr: 0x968B0, symSize: 0x50 }
  - { offsetInCU: 0x19F39, offset: 0x36CF32, size: 0x8, addend: 0x0, symName: '__ZN4core3ptr89drop_in_place$LT$core..option..Option$LT$alloc..boxed..Box$LT$syn..expr..Expr$GT$$GT$$GT$17he3e67d25883b4389E', symObjAddr: 0x6470, symBinAddr: 0x96900, symSize: 0x50 }
  - { offsetInCU: 0x1A0E7, offset: 0x36D0E0, size: 0x8, addend: 0x0, symName: '__ZN4core3ptr89drop_in_place$LT$syn..punctuated..Punctuated$LT$syn..pat..Pat$C$syn..token..Comma$GT$$GT$17hd0f680a310102099E', symObjAddr: 0x64C0, symBinAddr: 0x96950, symSize: 0x120 }
  - { offsetInCU: 0x1A5B7, offset: 0x36D5B0, size: 0x8, addend: 0x0, symName: '__ZN4core3ptr91drop_in_place$LT$syn..punctuated..Punctuated$LT$syn..expr..Expr$C$syn..token..Comma$GT$$GT$17h2f01a48d43db64beE', symObjAddr: 0x65E0, symBinAddr: 0x96A70, symSize: 0x120 }
  - { offsetInCU: 0x1AA45, offset: 0x36DA3E, size: 0x8, addend: 0x0, symName: '__ZN4core3ptr94drop_in_place$LT$syn..punctuated..Punctuated$LT$syn..pat..FieldPat$C$syn..token..Comma$GT$$GT$17h1420eba3f01509f6E', symObjAddr: 0x6700, symBinAddr: 0x96B90, symSize: 0xF0 }
  - { offsetInCU: 0x1AD44, offset: 0x36DD3D, size: 0x8, addend: 0x0, symName: '__ZN4core3ptr94drop_in_place$LT$syn..punctuated..Punctuated$LT$syn..ty..BareFnArg$C$syn..token..Comma$GT$$GT$17h96c674e9d142553fE', symObjAddr: 0x67F0, symBinAddr: 0x96C80, symSize: 0xF0 }
  - { offsetInCU: 0x1B045, offset: 0x36E03E, size: 0x8, addend: 0x0, symName: '__ZN4core3ptr96drop_in_place$LT$core..option..Option$LT$alloc..boxed..Box$LT$syn..path..PathSegment$GT$$GT$$GT$17hcd3eda3806df5f3aE', symObjAddr: 0x68E0, symBinAddr: 0x96D70, symSize: 0x1A0 }
  - { offsetInCU: 0x1B706, offset: 0x36E6FF, size: 0x8, addend: 0x0, symName: '__ZN4core3ptr97drop_in_place$LT$syn..punctuated..Punctuated$LT$syn..expr..FieldValue$C$syn..token..Comma$GT$$GT$17hd26eb8b5d8a23419E', symObjAddr: 0x6A80, symBinAddr: 0x96F10, symSize: 0xF0 }
  - { offsetInCU: 0x1BA7F, offset: 0x36EA78, size: 0x8, addend: 0x0, symName: '__ZN4core3ptr98drop_in_place$LT$syn..punctuated..Punctuated$LT$syn..lifetime..Lifetime$C$syn..token..Plus$GT$$GT$17hb40bd2b31d61c61aE', symObjAddr: 0x6B70, symBinAddr: 0x97000, symSize: 0xD0 }
  - { offsetInCU: 0x2511D, offset: 0x378116, size: 0x8, addend: 0x0, symName: '__ZN52_$LT$$RF$T$u20$as$u20$quote..to_tokens..ToTokens$GT$9to_tokens17h95b9dd2255c4e291E', symObjAddr: 0x6C60, symBinAddr: 0x970D0, symSize: 0x10 }
  - { offsetInCU: 0x25141, offset: 0x37813A, size: 0x8, addend: 0x0, symName: '__ZN52_$LT$$RF$T$u20$as$u20$quote..to_tokens..ToTokens$GT$9to_tokens17hb683758c9794ee5dE', symObjAddr: 0x6C70, symBinAddr: 0x970E0, symSize: 0x10 }
  - { offsetInCU: 0x251C3, offset: 0x3781BC, size: 0x8, addend: 0x0, symName: __ZN5quote9to_tokens8ToTokens15to_token_stream17h3d11d65a5c83d19cE, symObjAddr: 0x6C80, symBinAddr: 0x970F0, symSize: 0x70 }
  - { offsetInCU: 0x2523B, offset: 0x378234, size: 0x8, addend: 0x0, symName: __ZN5quote9to_tokens8ToTokens15to_token_stream17h879aed29671a036eE, symObjAddr: 0x6CF0, symBinAddr: 0x97160, symSize: 0x70 }
  - { offsetInCU: 0x1E, offset: 0x37A50B, size: 0x8, addend: 0x0, symName: '__ZN44_$LT$$RF$T$u20$as$u20$core..fmt..Display$GT$3fmt17ha6f82c37054dea8cE', symObjAddr: 0x0, symBinAddr: 0x971D0, symSize: 0x10 }
  - { offsetInCU: 0x35, offset: 0x37A522, size: 0x8, addend: 0x0, symName: _anon.8e720ec04b91cebaa52e490772019917.0.llvm.8821870620246710686, symObjAddr: 0xA70, symBinAddr: 0x339118, symSize: 0x0 }
  - { offsetInCU: 0x1A3, offset: 0x37A690, size: 0x8, addend: 0x0, symName: '__ZN58_$LT$alloc..string..String$u20$as$u20$core..fmt..Write$GT$10write_char17h04bc467bd68a934bE.llvm.8821870620246710686', symObjAddr: 0x3D0, symBinAddr: 0x97580, symSize: 0x140 }
  - { offsetInCU: 0x5A8, offset: 0x37AA95, size: 0x8, addend: 0x0, symName: '__ZN58_$LT$alloc..string..String$u20$as$u20$core..fmt..Write$GT$9write_str17h46a93205c3443fbaE.llvm.8821870620246710686', symObjAddr: 0x510, symBinAddr: 0x976C0, symSize: 0x60 }
  - { offsetInCU: 0xEEE, offset: 0x37B3DB, size: 0x8, addend: 0x0, symName: '__ZN4core3ptr42drop_in_place$LT$alloc..string..String$GT$17h22cb48d54c9865c7E.llvm.8821870620246710686', symObjAddr: 0x10, symBinAddr: 0x971E0, symSize: 0x20 }
  - { offsetInCU: 0x112C, offset: 0x37B619, size: 0x8, addend: 0x0, symName: '__ZN4core3ptr45drop_in_place$LT$proc_macro2..TokenStream$GT$17h3de86edc178dbdf7E', symObjAddr: 0x30, symBinAddr: 0x97200, symSize: 0x140 }
  - { offsetInCU: 0x1588, offset: 0x37BA75, size: 0x8, addend: 0x0, symName: '__ZN4core3ptr65drop_in_place$LT$alloc..vec..Vec$LT$proc_macro..TokenTree$GT$$GT$17h3cc592fdbb1600b7E', symObjAddr: 0x170, symBinAddr: 0x97340, symSize: 0x110 }
  - { offsetInCU: 0x1B51, offset: 0x37C03E, size: 0x8, addend: 0x0, symName: '__ZN44_$LT$$RF$T$u20$as$u20$core..fmt..Display$GT$3fmt17ha6f82c37054dea8cE', symObjAddr: 0x0, symBinAddr: 0x971D0, symSize: 0x10 }
  - { offsetInCU: 0x1B9D, offset: 0x37C08A, size: 0x8, addend: 0x0, symName: '__ZN53_$LT$core..fmt..Error$u20$as$u20$core..fmt..Debug$GT$3fmt17h03dc662ab152f3aeE.llvm.8821870620246710686', symObjAddr: 0x2B0, symBinAddr: 0x97460, symSize: 0x20 }
  - { offsetInCU: 0x2160, offset: 0x37C64D, size: 0x8, addend: 0x0, symName: '__ZN71_$LT$core..hash..sip..Hasher$LT$S$GT$$u20$as$u20$core..hash..Hasher$GT$5write17h27a51f3e1a2b13e1E.llvm.8821870620246710686', symObjAddr: 0x670, symBinAddr: 0x97790, symSize: 0x1E0 }
  - { offsetInCU: 0x2D84, offset: 0x37D271, size: 0x8, addend: 0x0, symName: _anon.8e720ec04b91cebaa52e490772019917.4.llvm.8821870620246710686, symObjAddr: 0xAB8, symBinAddr: 0x339160, symSize: 0x0 }
  - { offsetInCU: 0x3644, offset: 0x37DB31, size: 0x8, addend: 0x0, symName: '__ZN55_$LT$proc_macro2..Ident$u20$as$u20$core..hash..Hash$GT$4hash17h25334d71f948f08eE', symObjAddr: 0x2D0, symBinAddr: 0x97480, symSize: 0x100 }
  - { offsetInCU: 0x3B92, offset: 0x37E07F, size: 0x8, addend: 0x0, symName: '__ZN52_$LT$$RF$T$u20$as$u20$quote..to_tokens..ToTokens$GT$9to_tokens17h3cbbbd985cf973e2E', symObjAddr: 0x2A0, symBinAddr: 0x97450, symSize: 0x10 }
  - { offsetInCU: 0x3BE8, offset: 0x37E0D5, size: 0x8, addend: 0x0, symName: __ZN5quote9to_tokens8ToTokens15to_token_stream17h18a9bf24c9c8bfdeE, symObjAddr: 0x570, symBinAddr: 0x97720, symSize: 0x70 }
  - { offsetInCU: 0x1E, offset: 0x37EAD7, size: 0x8, addend: 0x0, symName: __ZN4core5slice4sort6shared9smallsort12sort8_stable17h7287e1d0c5e33063E, symObjAddr: 0x0, symBinAddr: 0x97970, symSize: 0x2C0 }
  - { offsetInCU: 0x4E4, offset: 0x37EF9D, size: 0x8, addend: 0x0, symName: __ZN4core5slice4sort6shared9smallsort12sort8_stable17h7287e1d0c5e33063E, symObjAddr: 0x0, symBinAddr: 0x97970, symSize: 0x2C0 }
  - { offsetInCU: 0xD61, offset: 0x37F81A, size: 0x8, addend: 0x0, symName: __ZN4core5slice4sort6shared9smallsort31small_sort_general_with_scratch17h3224689babf80ad9E, symObjAddr: 0x340, symBinAddr: 0x97C30, symSize: 0x363 }
  - { offsetInCU: 0x1E, offset: 0x3817DD, size: 0x8, addend: 0x0, symName: __ZN4core3fmt5Write9write_fmt17h7b33886f4ee24a10E, symObjAddr: 0x0, symBinAddr: 0x97FA0, symSize: 0x20 }
  - { offsetInCU: 0xA8, offset: 0x381867, size: 0x8, addend: 0x0, symName: '__ZN58_$LT$alloc..string..String$u20$as$u20$core..fmt..Write$GT$10write_char17h04bc467bd68a934bE', symObjAddr: 0x40, symBinAddr: 0x97FE0, symSize: 0x140 }
  - { offsetInCU: 0x4AD, offset: 0x381C6C, size: 0x8, addend: 0x0, symName: '__ZN58_$LT$alloc..string..String$u20$as$u20$core..fmt..Write$GT$9write_str17h46a93205c3443fbaE', symObjAddr: 0x180, symBinAddr: 0x98120, symSize: 0x60 }
  - { offsetInCU: 0x7AC, offset: 0x381F6B, size: 0x8, addend: 0x0, symName: '__ZN95_$LT$alloc..string..String$u20$as$u20$core..iter..traits..collect..FromIterator$LT$char$GT$$GT$9from_iter17hb80d53453b219f80E', symObjAddr: 0x310, symBinAddr: 0x98180, symSize: 0x2A1 }
  - { offsetInCU: 0x1313, offset: 0x382AD2, size: 0x8, addend: 0x0, symName: '__ZN4core3ptr42drop_in_place$LT$alloc..string..String$GT$17h22cb48d54c9865c7E.llvm.8085743249796808058', symObjAddr: 0x20, symBinAddr: 0x97FC0, symSize: 0x20 }
  - { offsetInCU: 0x16B2, offset: 0x382E71, size: 0x8, addend: 0x0, symName: __ZN4core3fmt5Write9write_fmt17h7b33886f4ee24a10E, symObjAddr: 0x0, symBinAddr: 0x97FA0, symSize: 0x20 }
  - { offsetInCU: 0x1E, offset: 0x383F3E, size: 0x8, addend: 0x0, symName: __ZN4core5slice4sort6stable5drift4sort17h54924e4805ea09f1E, symObjAddr: 0x0, symBinAddr: 0x98430, symSize: 0x65B }
  - { offsetInCU: 0x41F, offset: 0x38433F, size: 0x8, addend: 0x0, symName: __ZN4core5slice4sort6stable5drift4sort17h54924e4805ea09f1E, symObjAddr: 0x0, symBinAddr: 0x98430, symSize: 0x65B }
  - { offsetInCU: 0x1E, offset: 0x386356, size: 0x8, addend: 0x0, symName: __ZN4core5slice4sort6stable9quicksort9quicksort17h0d0a679e544651e0E, symObjAddr: 0x0, symBinAddr: 0x98A90, symSize: 0x54E }
  - { offsetInCU: 0x59B, offset: 0x3868D3, size: 0x8, addend: 0x0, symName: __ZN4core5slice4sort6stable9quicksort9quicksort17h0d0a679e544651e0E, symObjAddr: 0x0, symBinAddr: 0x98A90, symSize: 0x54E }
  - { offsetInCU: 0x1E, offset: 0x3891CD, size: 0x8, addend: 0x0, symName: '__ZN4core3ptr73drop_in_place$LT$core..cell..UnsafeCell$LT$syn..parse..Unexpected$GT$$GT$17h3072bb2c2bb10c9fE.llvm.7155400450181036912', symObjAddr: 0x0, symBinAddr: 0x98FE0, symSize: 0x50 }
  - { offsetInCU: 0xB7D, offset: 0x389D2C, size: 0x8, addend: 0x0, symName: '__ZN4core3ptr73drop_in_place$LT$core..cell..UnsafeCell$LT$syn..parse..Unexpected$GT$$GT$17h3072bb2c2bb10c9fE.llvm.7155400450181036912', symObjAddr: 0x0, symBinAddr: 0x98FE0, symSize: 0x50 }
  - { offsetInCU: 0x171C, offset: 0x38A8CB, size: 0x8, addend: 0x0, symName: '__ZN68_$LT$alloc..rc..Rc$LT$T$C$A$GT$$u20$as$u20$core..ops..drop..Drop$GT$4drop17h32e553b88917ffbeE', symObjAddr: 0x100, symBinAddr: 0x99030, symSize: 0x40 }
  - { offsetInCU: 0x1990, offset: 0x38AB3F, size: 0x8, addend: 0x0, symName: '__ZN68_$LT$alloc..rc..Rc$LT$T$C$A$GT$$u20$as$u20$core..ops..drop..Drop$GT$4drop17h983ce23f8b952de8E', symObjAddr: 0x140, symBinAddr: 0x99070, symSize: 0xE0 }
  - { offsetInCU: 0x2149, offset: 0x38B2F8, size: 0x8, addend: 0x0, symName: '__ZN80_$LT$alloc..rc..UniqueRcUninit$LT$T$C$A$GT$$u20$as$u20$core..ops..drop..Drop$GT$4drop17hb0e7a82ee3dbdce4E', symObjAddr: 0x220, symBinAddr: 0x99150, symSize: 0x4F }
  - { offsetInCU: 0x1E, offset: 0x38BD67, size: 0x8, addend: 0x0, symName: __ZN3syn5error5Error3new17h61c14ca235b833caE, symObjAddr: 0x0, symBinAddr: 0x991A0, symSize: 0xF0 }
  - { offsetInCU: 0x35, offset: 0x38BD7E, size: 0x8, addend: 0x0, symName: _anon.7481d4b3ee131933ab216b1a9d40045f.2.llvm.11782988946766720724, symObjAddr: 0x4C0, symBinAddr: 0x339230, symSize: 0x0 }
  - { offsetInCU: 0x17A, offset: 0x38BEC3, size: 0x8, addend: 0x0, symName: '__ZN58_$LT$alloc..string..String$u20$as$u20$core..fmt..Write$GT$10write_char17h04bc467bd68a934bE.llvm.11782988946766720724', symObjAddr: 0x230, symBinAddr: 0x993D0, symSize: 0x140 }
  - { offsetInCU: 0x580, offset: 0x38C2C9, size: 0x8, addend: 0x0, symName: '__ZN58_$LT$alloc..string..String$u20$as$u20$core..fmt..Write$GT$9write_str17h46a93205c3443fbaE.llvm.11782988946766720724', symObjAddr: 0x370, symBinAddr: 0x99510, symSize: 0x5B }
  - { offsetInCU: 0xEF5, offset: 0x38CC3E, size: 0x8, addend: 0x0, symName: '__ZN4core3ptr42drop_in_place$LT$alloc..string..String$GT$17h22cb48d54c9865c7E.llvm.11782988946766720724', symObjAddr: 0x1F0, symBinAddr: 0x99390, symSize: 0x20 }
  - { offsetInCU: 0x1360, offset: 0x38D0A9, size: 0x8, addend: 0x0, symName: '__ZN53_$LT$core..fmt..Error$u20$as$u20$core..fmt..Debug$GT$3fmt17h03dc662ab152f3aeE.llvm.11782988946766720724', symObjAddr: 0x210, symBinAddr: 0x993B0, symSize: 0x20 }
  - { offsetInCU: 0x18BC, offset: 0x38D605, size: 0x8, addend: 0x0, symName: _anon.7481d4b3ee131933ab216b1a9d40045f.6.llvm.11782988946766720724, symObjAddr: 0x508, symBinAddr: 0x339278, symSize: 0x0 }
  - { offsetInCU: 0x21D0, offset: 0x38DF19, size: 0x8, addend: 0x0, symName: __ZN3syn5error6new_at17he747a42647a2c9ceE, symObjAddr: 0xF0, symBinAddr: 0x99290, symSize: 0x100 }
  - { offsetInCU: 0x2711, offset: 0x38E45A, size: 0x8, addend: 0x0, symName: __ZN3syn5error5Error3new17h61c14ca235b833caE, symObjAddr: 0x0, symBinAddr: 0x991A0, symSize: 0xF0 }
  - { offsetInCU: 0x1E, offset: 0x38EECB, size: 0x8, addend: 0x0, symName: '__ZN120_$LT$proc_macro2..fallback..TokenStream$u20$as$u20$core..iter..traits..collect..Extend$LT$proc_macro2..TokenTree$GT$$GT$6extend17h39305901f14659d8E', symObjAddr: 0x0, symBinAddr: 0x99570, symSize: 0x280 }
  - { offsetInCU: 0x9AC, offset: 0x38F859, size: 0x8, addend: 0x0, symName: '__ZN120_$LT$proc_macro2..fallback..TokenStream$u20$as$u20$core..iter..traits..collect..Extend$LT$proc_macro2..TokenTree$GT$$GT$6extend17h39305901f14659d8E', symObjAddr: 0x0, symBinAddr: 0x99570, symSize: 0x280 }
  - { offsetInCU: 0x1331, offset: 0x3901DE, size: 0x8, addend: 0x0, symName: '__ZN78_$LT$proc_macro2..fallback..Ident$u20$as$u20$core..cmp..PartialEq$LT$T$GT$$GT$2eq17h364d5eab9e1e673bE', symObjAddr: 0x4F0, symBinAddr: 0x99A60, symSize: 0x72 }
  - { offsetInCU: 0x1FBC, offset: 0x390E69, size: 0x8, addend: 0x0, symName: '__ZN4core3ptr45drop_in_place$LT$proc_macro2..TokenStream$GT$17h3de86edc178dbdf7E', symObjAddr: 0x280, symBinAddr: 0x997F0, symSize: 0x140 }
  - { offsetInCU: 0x2418, offset: 0x3912C5, size: 0x8, addend: 0x0, symName: '__ZN4core3ptr56drop_in_place$LT$proc_macro2..token_stream..IntoIter$GT$17hf55b00da94bc0fecE', symObjAddr: 0x3C0, symBinAddr: 0x99930, symSize: 0x20 }
  - { offsetInCU: 0x24C8, offset: 0x391375, size: 0x8, addend: 0x0, symName: '__ZN4core3ptr65drop_in_place$LT$alloc..vec..Vec$LT$proc_macro..TokenTree$GT$$GT$17h3cc592fdbb1600b7E', symObjAddr: 0x3E0, symBinAddr: 0x99950, symSize: 0x110 }
  - { offsetInCU: 0x1E, offset: 0x3936A2, size: 0x8, addend: 0x0, symName: '__ZN3std3sys12thread_local6native4lazy20Storage$LT$T$C$D$GT$10initialize17hfabef766fd275f65E', symObjAddr: 0x0, symBinAddr: 0x2AE580, symSize: 0x190 }
  - { offsetInCU: 0x5E6, offset: 0x393C6A, size: 0x8, addend: 0x0, symName: '__ZN4core3ptr138drop_in_place$LT$std..sys..thread_local..native..lazy..State$LT$wasm_bindgen_macro_support..parser..AttributeParseState$C$$LP$$RP$$GT$$GT$17h22f89e8c89fd17c5E.llvm.7260320920603526066', symObjAddr: 0x230, symBinAddr: 0x99B80, symSize: 0x8A }
  - { offsetInCU: 0xF31, offset: 0x3945B5, size: 0x8, addend: 0x0, symName: __ZN3std3sys12thread_local6native4lazy7destroy17h0f1518f80fae7027E.llvm.7260320920603526066, symObjAddr: 0x190, symBinAddr: 0x99AE0, symSize: 0xA0 }
  - { offsetInCU: 0x1905, offset: 0x394F89, size: 0x8, addend: 0x0, symName: '__ZN3std3sys12thread_local6native4lazy20Storage$LT$T$C$D$GT$10initialize17hfabef766fd275f65E', symObjAddr: 0x0, symBinAddr: 0x2AE580, symSize: 0x190 }
  - { offsetInCU: 0x1E, offset: 0x3959CE, size: 0x8, addend: 0x0, symName: '__ZN71_$LT$core..hash..sip..Hasher$LT$S$GT$$u20$as$u20$core..hash..Hasher$GT$5write17h27a51f3e1a2b13e1E.llvm.15856727241218688094', symObjAddr: 0x0, symBinAddr: 0x99C10, symSize: 0x1E0 }
  - { offsetInCU: 0x1DF, offset: 0x395B8F, size: 0x8, addend: 0x0, symName: '__ZN71_$LT$core..hash..sip..Hasher$LT$S$GT$$u20$as$u20$core..hash..Hasher$GT$5write17h27a51f3e1a2b13e1E.llvm.15856727241218688094', symObjAddr: 0x0, symBinAddr: 0x99C10, symSize: 0x1E0 }
  - { offsetInCU: 0x1494, offset: 0x396E44, size: 0x8, addend: 0x0, symName: '__ZN76_$LT$wasm_bindgen_backend..ast..ImportModule$u20$as$u20$core..hash..Hash$GT$4hash17h3e75348ec1d54116E', symObjAddr: 0x1E0, symBinAddr: 0x99DF0, symSize: 0xBB }
  - { offsetInCU: 0x1E, offset: 0x397659, size: 0x8, addend: 0x0, symName: __ZN3std9panicking11begin_panic17hf7b9bc5b1dc80d51E, symObjAddr: 0x0, symBinAddr: 0x2AE710, symSize: 0x20 }
  - { offsetInCU: 0x7A8, offset: 0x397DE3, size: 0x8, addend: 0x0, symName: __ZN3std9panicking11begin_panic17hf7b9bc5b1dc80d51E, symObjAddr: 0x0, symBinAddr: 0x2AE710, symSize: 0x20 }
  - { offsetInCU: 0x804, offset: 0x397E3F, size: 0x8, addend: 0x0, symName: '__ZN84_$LT$std..panicking..begin_panic..Payload$LT$A$GT$$u20$as$u20$core..fmt..Display$GT$3fmt17h0ecec1f969f87ccfE', symObjAddr: 0x20, symBinAddr: 0x99EB0, symSize: 0x40 }
  - { offsetInCU: 0x872, offset: 0x397EAD, size: 0x8, addend: 0x0, symName: '__ZN91_$LT$std..panicking..begin_panic..Payload$LT$A$GT$$u20$as$u20$core..panic..PanicPayload$GT$3get17hb9e4edfabe154256E', symObjAddr: 0x60, symBinAddr: 0x99EF0, symSize: 0x20 }
  - { offsetInCU: 0x8AA, offset: 0x397EE5, size: 0x8, addend: 0x0, symName: '__ZN91_$LT$std..panicking..begin_panic..Payload$LT$A$GT$$u20$as$u20$core..panic..PanicPayload$GT$8take_box17h66e75313be90e2f5E', symObjAddr: 0x80, symBinAddr: 0x99F10, symSize: 0x5F }
  - { offsetInCU: 0x1387, offset: 0x3997A0, size: 0x8, addend: 0x0, symName: '__ZN4core3ptr116drop_in_place$LT$core..result..Result$LT$core..convert..Infallible$C$wasm_bindgen_backend..error..Diagnostic$GT$$GT$17hbf48ebb51fc3bcb9E.llvm.16573971315630839783', symObjAddr: 0x110, symBinAddr: 0x99F70, symSize: 0x150 }
  - { offsetInCU: 0x1914, offset: 0x399D2D, size: 0x8, addend: 0x0, symName: __ZN4core4iter8adapters11try_process17h81e7ecb28b8e70e3E, symObjAddr: 0x260, symBinAddr: 0x9A0C0, symSize: 0x1D9 }
  - { offsetInCU: 0x1E, offset: 0x3A3420, size: 0x8, addend: 0x0, symName: '__ZN115_$LT$proc_macro2..imp..TokenStream$u20$as$u20$core..iter..traits..collect..Extend$LT$proc_macro2..TokenTree$GT$$GT$6extend17h77596e5e7eb8282eE', symObjAddr: 0x0, symBinAddr: 0x9A2A0, symSize: 0x110 }
  - { offsetInCU: 0x78B, offset: 0x3A3B8D, size: 0x8, addend: 0x0, symName: '__ZN115_$LT$proc_macro2..imp..TokenStream$u20$as$u20$core..iter..traits..collect..Extend$LT$proc_macro2..TokenTree$GT$$GT$6extend17h77596e5e7eb8282eE', symObjAddr: 0x0, symBinAddr: 0x9A2A0, symSize: 0x110 }
  - { offsetInCU: 0x1672, offset: 0x3A4A74, size: 0x8, addend: 0x0, symName: '__ZN4core3ptr56drop_in_place$LT$proc_macro2..token_stream..IntoIter$GT$17hf55b00da94bc0fecE.llvm.13985996897006806088', symObjAddr: 0x130, symBinAddr: 0x9A3B0, symSize: 0x20 }
  - { offsetInCU: 0x1E, offset: 0x3A4E3A, size: 0x8, addend: 0x0, symName: __ZN3syn5token5Brace8surround17h040211b260dcfd18E, symObjAddr: 0x0, symBinAddr: 0x9A3D0, symSize: 0x290 }
  - { offsetInCU: 0x4230, offset: 0x3A904C, size: 0x8, addend: 0x0, symName: '__ZN4core3ptr45drop_in_place$LT$proc_macro2..TokenStream$GT$17h3de86edc178dbdf7E.llvm.11805471160824049183', symObjAddr: 0x290, symBinAddr: 0x9A660, symSize: 0x140 }
  - { offsetInCU: 0x468C, offset: 0x3A94A8, size: 0x8, addend: 0x0, symName: '__ZN4core3ptr65drop_in_place$LT$alloc..vec..Vec$LT$proc_macro..TokenTree$GT$$GT$17h3cc592fdbb1600b7E.llvm.11805471160824049183', symObjAddr: 0x3D0, symBinAddr: 0x9A7A0, symSize: 0x110 }
  - { offsetInCU: 0xB3C7, offset: 0x3B01E3, size: 0x8, addend: 0x0, symName: __ZN3syn5token5Brace8surround17h040211b260dcfd18E, symObjAddr: 0x0, symBinAddr: 0x9A3D0, symSize: 0x290 }
  - { offsetInCU: 0xBBD4, offset: 0x3B09F0, size: 0x8, addend: 0x0, symName: '__ZN52_$LT$$RF$T$u20$as$u20$quote..to_tokens..ToTokens$GT$9to_tokens17hada382179fbd495fE', symObjAddr: 0x4E0, symBinAddr: 0x9A8B0, symSize: 0x10 }
  - { offsetInCU: 0xBC2A, offset: 0x3B0A46, size: 0x8, addend: 0x0, symName: __ZN5quote9to_tokens8ToTokens15to_token_stream17hfa121fb06e06f5d9E, symObjAddr: 0x500, symBinAddr: 0x9A8C0, symSize: 0x70 }
  - { offsetInCU: 0x1E, offset: 0x3B171F, size: 0x8, addend: 0x0, symName: '__ZN53_$LT$T$u20$as$u20$core..slice..cmp..SliceContains$GT$14slice_contains17hffefe9f55b28e103E', symObjAddr: 0x0, symBinAddr: 0x9A930, symSize: 0x70 }
  - { offsetInCU: 0x1BC, offset: 0x3B18BD, size: 0x8, addend: 0x0, symName: '__ZN53_$LT$T$u20$as$u20$core..slice..cmp..SliceContains$GT$14slice_contains17hffefe9f55b28e103E', symObjAddr: 0x0, symBinAddr: 0x9A930, symSize: 0x70 }
  - { offsetInCU: 0x1FB, offset: 0x3B18FC, size: 0x8, addend: 0x0, symName: '__ZN53_$LT$T$u20$as$u20$core..slice..cmp..SliceContains$GT$14slice_contains17hffefe9f55b28e103E', symObjAddr: 0x0, symBinAddr: 0x9A930, symSize: 0x70 }
  - { offsetInCU: 0x20B, offset: 0x3B190C, size: 0x8, addend: 0x0, symName: '__ZN53_$LT$T$u20$as$u20$core..slice..cmp..SliceContains$GT$14slice_contains17hffefe9f55b28e103E', symObjAddr: 0x0, symBinAddr: 0x9A930, symSize: 0x70 }
  - { offsetInCU: 0x225, offset: 0x3B1926, size: 0x8, addend: 0x0, symName: '__ZN53_$LT$T$u20$as$u20$core..slice..cmp..SliceContains$GT$14slice_contains17hffefe9f55b28e103E', symObjAddr: 0x0, symBinAddr: 0x9A930, symSize: 0x70 }
  - { offsetInCU: 0x1E, offset: 0x3B1C9A, size: 0x8, addend: 0x0, symName: __ZN4core5slice4sort6shared5pivot11median3_rec17hdd219dcf1817caaaE.llvm.16212386958098483497, symObjAddr: 0x0, symBinAddr: 0x9A9A0, symSize: 0xB0 }
  - { offsetInCU: 0x183, offset: 0x3B1DFF, size: 0x8, addend: 0x0, symName: __ZN4core5slice4sort6shared5pivot11median3_rec17hdd219dcf1817caaaE.llvm.16212386958098483497, symObjAddr: 0x0, symBinAddr: 0x9A9A0, symSize: 0xB0 }
  - { offsetInCU: 0x1E, offset: 0x3B215C, size: 0x8, addend: 0x0, symName: __ZN4core5slice4sort6stable14driftsort_main17h09a8766d219cce74E, symObjAddr: 0x0, symBinAddr: 0x9AA50, symSize: 0x130 }
  - { offsetInCU: 0x24A, offset: 0x3B2388, size: 0x8, addend: 0x0, symName: __ZN4core5slice4sort6stable14driftsort_main17h09a8766d219cce74E, symObjAddr: 0x0, symBinAddr: 0x9AA50, symSize: 0x130 }
  - { offsetInCU: 0x1E, offset: 0x3B30E8, size: 0x8, addend: 0x0, symName: '__ZN4core3ptr45drop_in_place$LT$proc_macro2..TokenStream$GT$17h3de86edc178dbdf7E', symObjAddr: 0x0, symBinAddr: 0x9AB80, symSize: 0x140 }
  - { offsetInCU: 0x959, offset: 0x3B3A23, size: 0x8, addend: 0x0, symName: '__ZN4core3ptr45drop_in_place$LT$proc_macro2..TokenStream$GT$17h3de86edc178dbdf7E', symObjAddr: 0x0, symBinAddr: 0x9AB80, symSize: 0x140 }
  - { offsetInCU: 0xDB5, offset: 0x3B3E7F, size: 0x8, addend: 0x0, symName: '__ZN4core3ptr65drop_in_place$LT$alloc..vec..Vec$LT$proc_macro..TokenTree$GT$$GT$17h3cc592fdbb1600b7E', symObjAddr: 0x140, symBinAddr: 0x9ACC0, symSize: 0x110 }
  - { offsetInCU: 0x47F7, offset: 0x3B78C1, size: 0x8, addend: 0x0, symName: '__ZN76_$LT$core..option..Option$LT$T$GT$$u20$as$u20$quote..to_tokens..ToTokens$GT$9to_tokens17h0d340c08d5a77d7dE', symObjAddr: 0x4E0, symBinAddr: 0x9AFD0, symSize: 0x20 }
  - { offsetInCU: 0x4832, offset: 0x3B78FC, size: 0x8, addend: 0x0, symName: '__ZN76_$LT$core..option..Option$LT$T$GT$$u20$as$u20$quote..to_tokens..ToTokens$GT$9to_tokens17h5a4898ddb601d445E', symObjAddr: 0x500, symBinAddr: 0x9AFF0, symSize: 0x20 }
  - { offsetInCU: 0x4863, offset: 0x3B792D, size: 0x8, addend: 0x0, symName: '__ZN76_$LT$core..option..Option$LT$T$GT$$u20$as$u20$quote..to_tokens..ToTokens$GT$9to_tokens17h7f107e25f8e54960E', symObjAddr: 0x520, symBinAddr: 0x9B010, symSize: 0x20 }
  - { offsetInCU: 0x489E, offset: 0x3B7968, size: 0x8, addend: 0x0, symName: '__ZN76_$LT$core..option..Option$LT$T$GT$$u20$as$u20$quote..to_tokens..ToTokens$GT$9to_tokens17hff9df2cade6629d2E', symObjAddr: 0x540, symBinAddr: 0x9B030, symSize: 0x15 }
  - { offsetInCU: 0x48DF, offset: 0x3B79A9, size: 0x8, addend: 0x0, symName: __ZN5quote9to_tokens8ToTokens15to_token_stream17h51e83580dcf5f7dbE, symObjAddr: 0x250, symBinAddr: 0x9ADD0, symSize: 0x80 }
  - { offsetInCU: 0x4970, offset: 0x3B7A3A, size: 0x8, addend: 0x0, symName: __ZN5quote9to_tokens8ToTokens15to_token_stream17h61a651bcd911fd2dE, symObjAddr: 0x2D0, symBinAddr: 0x9AE50, symSize: 0x80 }
  - { offsetInCU: 0x49FF, offset: 0x3B7AC9, size: 0x8, addend: 0x0, symName: __ZN5quote9to_tokens8ToTokens15to_token_stream17h65908a6200c15691E, symObjAddr: 0x350, symBinAddr: 0x9AED0, symSize: 0x80 }
  - { offsetInCU: 0x4A90, offset: 0x3B7B5A, size: 0x8, addend: 0x0, symName: __ZN5quote9to_tokens8ToTokens15to_token_stream17h9947421c50e11bcbE, symObjAddr: 0x3D0, symBinAddr: 0x9AF50, symSize: 0x80 }
  - { offsetInCU: 0x1E, offset: 0x3BD056, size: 0x8, addend: 0x0, symName: '__ZN4core3ptr45drop_in_place$LT$proc_macro2..TokenStream$GT$17h3de86edc178dbdf7E.llvm.3959617640769654268', symObjAddr: 0x0, symBinAddr: 0x9B050, symSize: 0x140 }
  - { offsetInCU: 0x1286, offset: 0x3BE2BE, size: 0x8, addend: 0x0, symName: '__ZN4core3ptr45drop_in_place$LT$proc_macro2..TokenStream$GT$17h3de86edc178dbdf7E.llvm.3959617640769654268', symObjAddr: 0x0, symBinAddr: 0x9B050, symSize: 0x140 }
  - { offsetInCU: 0x16E2, offset: 0x3BE71A, size: 0x8, addend: 0x0, symName: '__ZN4core3ptr65drop_in_place$LT$alloc..vec..Vec$LT$proc_macro..TokenTree$GT$$GT$17h3cc592fdbb1600b7E.llvm.3959617640769654268', symObjAddr: 0x140, symBinAddr: 0x9B190, symSize: 0x110 }
  - { offsetInCU: 0x470F, offset: 0x3C1747, size: 0x8, addend: 0x0, symName: '__ZN52_$LT$$RF$T$u20$as$u20$quote..to_tokens..ToTokens$GT$9to_tokens17h9fc725b4a5cd7bb2E', symObjAddr: 0x250, symBinAddr: 0x9B2A0, symSize: 0x10 }
  - { offsetInCU: 0x4765, offset: 0x3C179D, size: 0x8, addend: 0x0, symName: __ZN5quote9to_tokens8ToTokens15to_token_stream17haa020264d4cae58aE, symObjAddr: 0x260, symBinAddr: 0x9B2B0, symSize: 0x0 }
  - { offsetInCU: 0x47B8, offset: 0x3C17F0, size: 0x8, addend: 0x0, symName: __ZN5quote9to_tokens8ToTokens15to_token_stream17hca81d368af7b3a1bE, symObjAddr: 0x2D0, symBinAddr: 0x9B320, symSize: 0x70 }
  - { offsetInCU: 0x1E, offset: 0x3C6C7E, size: 0x8, addend: 0x0, symName: '__ZN4core3ptr45drop_in_place$LT$proc_macro2..TokenStream$GT$17h3de86edc178dbdf7E', symObjAddr: 0x0, symBinAddr: 0x9B390, symSize: 0x140 }
  - { offsetInCU: 0x1286, offset: 0x3C7EE6, size: 0x8, addend: 0x0, symName: '__ZN4core3ptr45drop_in_place$LT$proc_macro2..TokenStream$GT$17h3de86edc178dbdf7E', symObjAddr: 0x0, symBinAddr: 0x9B390, symSize: 0x140 }
  - { offsetInCU: 0x16E2, offset: 0x3C8342, size: 0x8, addend: 0x0, symName: '__ZN4core3ptr65drop_in_place$LT$alloc..vec..Vec$LT$proc_macro..TokenTree$GT$$GT$17h3cc592fdbb1600b7E', symObjAddr: 0x140, symBinAddr: 0x9B4D0, symSize: 0x110 }
  - { offsetInCU: 0x470F, offset: 0x3CB36F, size: 0x8, addend: 0x0, symName: '__ZN52_$LT$$RF$T$u20$as$u20$quote..to_tokens..ToTokens$GT$9to_tokens17h4b73c3ce40197a84E', symObjAddr: 0x250, symBinAddr: 0x9B5E0, symSize: 0x10 }
  - { offsetInCU: 0x4765, offset: 0x3CB3C5, size: 0x8, addend: 0x0, symName: __ZN5quote9to_tokens8ToTokens15to_token_stream17h411a8d3f125532bbE, symObjAddr: 0x260, symBinAddr: 0x9B5F0, symSize: 0x70 }
  - { offsetInCU: 0x47DD, offset: 0x3CB43D, size: 0x8, addend: 0x0, symName: __ZN5quote9to_tokens8ToTokens15to_token_stream17h77823c247d735353E, symObjAddr: 0x2D0, symBinAddr: 0x9B660, symSize: 0x70 }
  - { offsetInCU: 0x1E, offset: 0x3D08A6, size: 0x8, addend: 0x0, symName: '__ZN4core3ptr45drop_in_place$LT$proc_macro2..TokenStream$GT$17h3de86edc178dbdf7E', symObjAddr: 0x0, symBinAddr: 0x9B6D0, symSize: 0x140 }
  - { offsetInCU: 0xB2C, offset: 0x3D13B4, size: 0x8, addend: 0x0, symName: '__ZN4core3ptr45drop_in_place$LT$proc_macro2..TokenStream$GT$17h3de86edc178dbdf7E', symObjAddr: 0x0, symBinAddr: 0x9B6D0, symSize: 0x140 }
  - { offsetInCU: 0xF88, offset: 0x3D1810, size: 0x8, addend: 0x0, symName: '__ZN4core3ptr65drop_in_place$LT$alloc..vec..Vec$LT$proc_macro..TokenTree$GT$$GT$17h3cc592fdbb1600b7E', symObjAddr: 0x140, symBinAddr: 0x9B810, symSize: 0x110 }
  - { offsetInCU: 0x19A7, offset: 0x3D222F, size: 0x8, addend: 0x0, symName: '__ZN52_$LT$$RF$T$u20$as$u20$quote..to_tokens..ToTokens$GT$9to_tokens17ha641e9ef02713fd7E', symObjAddr: 0x250, symBinAddr: 0x9B920, symSize: 0x10 }
  - { offsetInCU: 0x19FD, offset: 0x3D2285, size: 0x8, addend: 0x0, symName: __ZN5quote9to_tokens8ToTokens15to_token_stream17h64db297f76ebbcc4E, symObjAddr: 0x260, symBinAddr: 0x9B930, symSize: 0x70 }
  - { offsetInCU: 0x1A75, offset: 0x3D22FD, size: 0x8, addend: 0x0, symName: __ZN5quote9to_tokens8ToTokens15to_token_stream17h84935a93b72fcb17E, symObjAddr: 0x2D0, symBinAddr: 0x9B9A0, symSize: 0x70 }
  - { offsetInCU: 0x1E, offset: 0x3D279D, size: 0x8, addend: 0x0, symName: '__ZN4core3ptr45drop_in_place$LT$proc_macro2..TokenStream$GT$17h3de86edc178dbdf7E', symObjAddr: 0x0, symBinAddr: 0x9BA10, symSize: 0x140 }
  - { offsetInCU: 0x1286, offset: 0x3D3A05, size: 0x8, addend: 0x0, symName: '__ZN4core3ptr45drop_in_place$LT$proc_macro2..TokenStream$GT$17h3de86edc178dbdf7E', symObjAddr: 0x0, symBinAddr: 0x9BA10, symSize: 0x140 }
  - { offsetInCU: 0x16E2, offset: 0x3D3E61, size: 0x8, addend: 0x0, symName: '__ZN4core3ptr65drop_in_place$LT$alloc..vec..Vec$LT$proc_macro..TokenTree$GT$$GT$17h3cc592fdbb1600b7E', symObjAddr: 0x140, symBinAddr: 0x9BB50, symSize: 0x110 }
  - { offsetInCU: 0x470F, offset: 0x3D6E8E, size: 0x8, addend: 0x0, symName: '__ZN52_$LT$$RF$T$u20$as$u20$quote..to_tokens..ToTokens$GT$9to_tokens17hda5625c77c1bd3b0E', symObjAddr: 0x250, symBinAddr: 0x9BC60, symSize: 0x10 }
  - { offsetInCU: 0x4765, offset: 0x3D6EE4, size: 0x8, addend: 0x0, symName: __ZN5quote9to_tokens8ToTokens15to_token_stream17h641128e34b3fcb9cE, symObjAddr: 0x260, symBinAddr: 0x9BC70, symSize: 0x70 }
  - { offsetInCU: 0x47B8, offset: 0x3D6F37, size: 0x8, addend: 0x0, symName: __ZN5quote9to_tokens8ToTokens15to_token_stream17hc66792386eedfa9eE, symObjAddr: 0x2D0, symBinAddr: 0x9BCE0, symSize: 0x70 }
  - { offsetInCU: 0x1E, offset: 0x3DC3D2, size: 0x8, addend: 0x0, symName: '__ZN4core3ptr45drop_in_place$LT$proc_macro2..TokenStream$GT$17h3de86edc178dbdf7E', symObjAddr: 0x0, symBinAddr: 0x9BD50, symSize: 0x140 }
  - { offsetInCU: 0x1286, offset: 0x3DD63A, size: 0x8, addend: 0x0, symName: '__ZN4core3ptr45drop_in_place$LT$proc_macro2..TokenStream$GT$17h3de86edc178dbdf7E', symObjAddr: 0x0, symBinAddr: 0x9BD50, symSize: 0x140 }
  - { offsetInCU: 0x16E2, offset: 0x3DDA96, size: 0x8, addend: 0x0, symName: '__ZN4core3ptr65drop_in_place$LT$alloc..vec..Vec$LT$proc_macro..TokenTree$GT$$GT$17h3cc592fdbb1600b7E', symObjAddr: 0x140, symBinAddr: 0x9BE90, symSize: 0x110 }
  - { offsetInCU: 0x473B, offset: 0x3E0AEF, size: 0x8, addend: 0x0, symName: '__ZN73_$LT$alloc..boxed..Box$LT$T$GT$$u20$as$u20$quote..to_tokens..ToTokens$GT$9to_tokens17h48ddd8e8cbcfa270E', symObjAddr: 0x2C0, symBinAddr: 0x9C010, symSize: 0xD }
  - { offsetInCU: 0x4765, offset: 0x3E0B19, size: 0x8, addend: 0x0, symName: __ZN5quote9to_tokens8ToTokens15to_token_stream17heb5d57d8b7c3ebe6E, symObjAddr: 0x250, symBinAddr: 0x9BFA0, symSize: 0x70 }
  - { offsetInCU: 0x1E, offset: 0x3E5F9A, size: 0x8, addend: 0x0, symName: '__ZN4core3ptr45drop_in_place$LT$proc_macro2..TokenStream$GT$17h3de86edc178dbdf7E', symObjAddr: 0x0, symBinAddr: 0x9C020, symSize: 0x140 }
  - { offsetInCU: 0x1286, offset: 0x3E7202, size: 0x8, addend: 0x0, symName: '__ZN4core3ptr45drop_in_place$LT$proc_macro2..TokenStream$GT$17h3de86edc178dbdf7E', symObjAddr: 0x0, symBinAddr: 0x9C020, symSize: 0x140 }
  - { offsetInCU: 0x16E2, offset: 0x3E765E, size: 0x8, addend: 0x0, symName: '__ZN4core3ptr65drop_in_place$LT$alloc..vec..Vec$LT$proc_macro..TokenTree$GT$$GT$17h3cc592fdbb1600b7E', symObjAddr: 0x140, symBinAddr: 0x9C160, symSize: 0x110 }
  - { offsetInCU: 0x91A1, offset: 0x3EF11D, size: 0x8, addend: 0x0, symName: __ZN5quote9to_tokens8ToTokens15to_token_stream17h80b471881133b317E, symObjAddr: 0x280, symBinAddr: 0x9C270, symSize: 0x70 }
  - { offsetInCU: 0x1E, offset: 0x3EFAE1, size: 0x8, addend: 0x0, symName: '__ZN4core3ptr45drop_in_place$LT$proc_macro2..TokenStream$GT$17h3de86edc178dbdf7E', symObjAddr: 0x0, symBinAddr: 0x9C2E0, symSize: 0x140 }
  - { offsetInCU: 0xB2C, offset: 0x3F05EF, size: 0x8, addend: 0x0, symName: '__ZN4core3ptr45drop_in_place$LT$proc_macro2..TokenStream$GT$17h3de86edc178dbdf7E', symObjAddr: 0x0, symBinAddr: 0x9C2E0, symSize: 0x140 }
  - { offsetInCU: 0xF88, offset: 0x3F0A4B, size: 0x8, addend: 0x0, symName: '__ZN4core3ptr65drop_in_place$LT$alloc..vec..Vec$LT$proc_macro..TokenTree$GT$$GT$17h3cc592fdbb1600b7E', symObjAddr: 0x140, symBinAddr: 0x9C420, symSize: 0x110 }
  - { offsetInCU: 0x19A7, offset: 0x3F146A, size: 0x8, addend: 0x0, symName: '__ZN52_$LT$$RF$T$u20$as$u20$quote..to_tokens..ToTokens$GT$9to_tokens17haefee922318aef88E', symObjAddr: 0x250, symBinAddr: 0x9C530, symSize: 0x10 }
  - { offsetInCU: 0x19FD, offset: 0x3F14C0, size: 0x8, addend: 0x0, symName: __ZN5quote9to_tokens8ToTokens15to_token_stream17h62ddc3e3a4fd38a0E, symObjAddr: 0x260, symBinAddr: 0x9C540, symSize: 0x70 }
  - { offsetInCU: 0x1E, offset: 0x3F1907, size: 0x8, addend: 0x0, symName: '__ZN4core3ptr45drop_in_place$LT$proc_macro2..TokenStream$GT$17h3de86edc178dbdf7E', symObjAddr: 0x0, symBinAddr: 0x9C5B0, symSize: 0x140 }
  - { offsetInCU: 0x1286, offset: 0x3F2B6F, size: 0x8, addend: 0x0, symName: '__ZN4core3ptr45drop_in_place$LT$proc_macro2..TokenStream$GT$17h3de86edc178dbdf7E', symObjAddr: 0x0, symBinAddr: 0x9C5B0, symSize: 0x140 }
  - { offsetInCU: 0x16E2, offset: 0x3F2FCB, size: 0x8, addend: 0x0, symName: '__ZN4core3ptr65drop_in_place$LT$alloc..vec..Vec$LT$proc_macro..TokenTree$GT$$GT$17h3cc592fdbb1600b7E', symObjAddr: 0x140, symBinAddr: 0x9C6F0, symSize: 0x110 }
  - { offsetInCU: 0x470F, offset: 0x3F5FF8, size: 0x8, addend: 0x0, symName: '__ZN52_$LT$$RF$T$u20$as$u20$quote..to_tokens..ToTokens$GT$9to_tokens17hedafb0b375362f66E', symObjAddr: 0x250, symBinAddr: 0x9C800, symSize: 0x10 }
  - { offsetInCU: 0x4765, offset: 0x3F604E, size: 0x8, addend: 0x0, symName: __ZN5quote9to_tokens8ToTokens15to_token_stream17h84606c9dbc70efc8E, symObjAddr: 0x260, symBinAddr: 0x9C810, symSize: 0x70 }
  - { offsetInCU: 0x1E, offset: 0x3FB4DC, size: 0x8, addend: 0x0, symName: __ZN20wasm_bindgen_backend5error10Diagnostic13spanned_error17h05547f9c65c90488E, symObjAddr: 0x0, symBinAddr: 0x9C880, symSize: 0x70 }
  - { offsetInCU: 0x971, offset: 0x3FBE2F, size: 0x8, addend: 0x0, symName: __ZN20wasm_bindgen_backend5error10Diagnostic13spanned_error17h05547f9c65c90488E, symObjAddr: 0x0, symBinAddr: 0x9C880, symSize: 0x70 }
  - { offsetInCU: 0x1E, offset: 0x3FC113, size: 0x8, addend: 0x0, symName: '__ZN42_$LT$$RF$T$u20$as$u20$core..fmt..Debug$GT$3fmt17h9eae3d3b5e52eafdE', symObjAddr: 0x0, symBinAddr: 0x9C8F0, symSize: 0x30 }
  - { offsetInCU: 0x106, offset: 0x3FC1FB, size: 0x8, addend: 0x0, symName: '__ZN42_$LT$$RF$T$u20$as$u20$core..fmt..Debug$GT$3fmt17h9eae3d3b5e52eafdE', symObjAddr: 0x0, symBinAddr: 0x9C8F0, symSize: 0x30 }
  - { offsetInCU: 0x1A0, offset: 0x3FC295, size: 0x8, addend: 0x0, symName: '__ZN44_$LT$$RF$T$u20$as$u20$core..fmt..Display$GT$3fmt17h757b876a2cb5b334E', symObjAddr: 0x30, symBinAddr: 0x9C920, symSize: 0x17 }
  - { offsetInCU: 0x1E, offset: 0x3FC4E9, size: 0x8, addend: 0x0, symName: __ZN3std3sys9backtrace26__rust_end_short_backtrace17h9fc80fe26a432ba1E, symObjAddr: 0x0, symBinAddr: 0x9C940, symSize: 0x10 }
  - { offsetInCU: 0x66, offset: 0x3FC531, size: 0x8, addend: 0x0, symName: '__ZN3std9panicking11begin_panic28_$u7b$$u7b$closure$u7d$$u7d$17hcfcd00a66757ca7bE', symObjAddr: 0x10, symBinAddr: 0x9C950, symSize: 0x40 }
  - { offsetInCU: 0xD9, offset: 0x3FC5A4, size: 0x8, addend: 0x0, symName: __ZN3std3sys9backtrace26__rust_end_short_backtrace17h9fc80fe26a432ba1E, symObjAddr: 0x0, symBinAddr: 0x9C940, symSize: 0x10 }
  - { offsetInCU: 0x1BC, offset: 0x3FC687, size: 0x8, addend: 0x0, symName: __ZN4core5panic12PanicPayload6as_str17h6a66fd69dbfbd901E, symObjAddr: 0x50, symBinAddr: 0x9C990, symSize: 0x8 }
  - { offsetInCU: 0x1E, offset: 0x3FC73C, size: 0x8, addend: 0x0, symName: '__ZN36_$LT$T$u20$as$u20$core..any..Any$GT$7type_id17h739de53b974f57c4E', symObjAddr: 0x0, symBinAddr: 0x9C9A0, symSize: 0x1A }
  - { offsetInCU: 0x3A, offset: 0x3FC758, size: 0x8, addend: 0x0, symName: '__ZN36_$LT$T$u20$as$u20$core..any..Any$GT$7type_id17h739de53b974f57c4E', symObjAddr: 0x0, symBinAddr: 0x9C9A0, symSize: 0x1A }
  - { offsetInCU: 0x1E, offset: 0x3FC829, size: 0x8, addend: 0x0, symName: __ZN4core9panicking13assert_failed17hcdf118ca76f61afcE, symObjAddr: 0x0, symBinAddr: 0x2AE730, symSize: 0x2E }
  - { offsetInCU: 0x1A5, offset: 0x3FC9B0, size: 0x8, addend: 0x0, symName: __ZN4core9panicking13assert_failed17hcdf118ca76f61afcE, symObjAddr: 0x0, symBinAddr: 0x2AE730, symSize: 0x2E }
  - { offsetInCU: 0x1E, offset: 0x3FCE43, size: 0x8, addend: 0x0, symName: '__ZN42_$LT$$RF$T$u20$as$u20$core..fmt..Debug$GT$3fmt17hc3af31e67f03b66cE', symObjAddr: 0x0, symBinAddr: 0x9C9C0, symSize: 0xD }
  - { offsetInCU: 0x64, offset: 0x3FCE89, size: 0x8, addend: 0x0, symName: '__ZN42_$LT$$RF$T$u20$as$u20$core..fmt..Debug$GT$3fmt17hc3af31e67f03b66cE', symObjAddr: 0x0, symBinAddr: 0x9C9C0, symSize: 0xD }
  - { offsetInCU: 0x1E, offset: 0x3FD24B, size: 0x8, addend: 0x0, symName: '__ZN4core3ptr100drop_in_place$LT$core..option..Option$LT$alloc..boxed..Box$LT$syn..path..GenericArgument$GT$$GT$$GT$17h8de8466e8995d15dE', symObjAddr: 0x0, symBinAddr: 0x9C9D0, symSize: 0x50 }
  - { offsetInCU: 0xD4, offset: 0x3FD301, size: 0x8, addend: 0x0, symName: '__ZN58_$LT$alloc..string..String$u20$as$u20$core..fmt..Write$GT$10write_char17h04bc467bd68a934bE', symObjAddr: 0x7800, symBinAddr: 0xA41D0, symSize: 0x140 }
  - { offsetInCU: 0x4D9, offset: 0x3FD706, size: 0x8, addend: 0x0, symName: '__ZN58_$LT$alloc..string..String$u20$as$u20$core..fmt..Write$GT$9write_str17h46a93205c3443fbaE', symObjAddr: 0x7940, symBinAddr: 0xA4310, symSize: 0x60 }
  - { offsetInCU: 0x926, offset: 0x3FDB53, size: 0x8, addend: 0x0, symName: '__ZN60_$LT$alloc..string..String$u20$as$u20$core..fmt..Display$GT$3fmt17h0d0eb46f3054e2dfE.llvm.903975785551375565', symObjAddr: 0x79A0, symBinAddr: 0xA4370, symSize: 0x20 }
  - { offsetInCU: 0x53E2, offset: 0x40260F, size: 0x8, addend: 0x0, symName: '__ZN4core3ptr100drop_in_place$LT$core..option..Option$LT$alloc..boxed..Box$LT$syn..path..GenericArgument$GT$$GT$$GT$17h8de8466e8995d15dE', symObjAddr: 0x0, symBinAddr: 0x9C9D0, symSize: 0x50 }
  - { offsetInCU: 0x55AF, offset: 0x4027DC, size: 0x8, addend: 0x0, symName: '__ZN4core3ptr102drop_in_place$LT$syn..punctuated..Punctuated$LT$syn..path..GenericArgument$C$syn..token..Comma$GT$$GT$17hb5d151e802632153E', symObjAddr: 0x50, symBinAddr: 0x9CA20, symSize: 0xF0 }
  - { offsetInCU: 0x58CF, offset: 0x402AFC, size: 0x8, addend: 0x0, symName: '__ZN4core3ptr103drop_in_place$LT$core..option..Option$LT$alloc..boxed..Box$LT$syn..generics..TypeParamBound$GT$$GT$$GT$17hcc99ba2c5104ae4dE', symObjAddr: 0x140, symBinAddr: 0x9CB10, symSize: 0x50 }
  - { offsetInCU: 0x5ADA, offset: 0x402D07, size: 0x8, addend: 0x0, symName: '__ZN4core3ptr103drop_in_place$LT$syn..punctuated..Punctuated$LT$syn..generics..GenericParam$C$syn..token..Comma$GT$$GT$17hd0fc887a95cd450dE', symObjAddr: 0x190, symBinAddr: 0x9CB60, symSize: 0xF0 }
  - { offsetInCU: 0x60AE, offset: 0x4032DB, size: 0x8, addend: 0x0, symName: '__ZN4core3ptr104drop_in_place$LT$syn..punctuated..Punctuated$LT$syn..generics..TypeParamBound$C$syn..token..Plus$GT$$GT$17h1ca6c643f4a14a56E', symObjAddr: 0x280, symBinAddr: 0x9CC50, symSize: 0x260 }
  - { offsetInCU: 0x6AF8, offset: 0x403D25, size: 0x8, addend: 0x0, symName: '__ZN4core3ptr34drop_in_place$LT$syn..lit..Lit$GT$17h958a4e0583def0c2E', symObjAddr: 0x4E0, symBinAddr: 0x9CEB0, symSize: 0x120 }
  - { offsetInCU: 0x6FE6, offset: 0x404213, size: 0x8, addend: 0x0, symName: '__ZN4core3ptr34drop_in_place$LT$syn..pat..Pat$GT$17h51dd771ca6732d24E', symObjAddr: 0x600, symBinAddr: 0x9CFD0, symSize: 0xF70 }
  - { offsetInCU: 0xAE83, offset: 0x4080B0, size: 0x8, addend: 0x0, symName: '__ZN4core3ptr34drop_in_place$LT$syn..ty..Type$GT$17ha2513550c540b8bfE', symObjAddr: 0x1570, symBinAddr: 0x9DF40, symSize: 0x500 }
  - { offsetInCU: 0xC4E5, offset: 0x409712, size: 0x8, addend: 0x0, symName: '__ZN4core3ptr36drop_in_place$LT$syn..expr..Expr$GT$17h28f67721c4e5d9afE', symObjAddr: 0x1A70, symBinAddr: 0x9E440, symSize: 0x2760 }
  - { offsetInCU: 0x161DC, offset: 0x413409, size: 0x8, addend: 0x0, symName: '__ZN4core3ptr36drop_in_place$LT$syn..mac..Macro$GT$17h06cd806352e8f75fE', symObjAddr: 0x41D0, symBinAddr: 0xA0BA0, symSize: 0x110 }
  - { offsetInCU: 0x16679, offset: 0x4138A6, size: 0x8, addend: 0x0, symName: '__ZN4core3ptr36drop_in_place$LT$syn..path..Path$GT$17h0991d43acec843f0E', symObjAddr: 0x42E0, symBinAddr: 0xA0CB0, symSize: 0x280 }
  - { offsetInCU: 0x17126, offset: 0x414353, size: 0x8, addend: 0x0, symName: '__ZN4core3ptr37drop_in_place$LT$syn..stmt..Block$GT$17h1a4e3ed92b2fd543E', symObjAddr: 0x4560, symBinAddr: 0xA0F30, symSize: 0xD0 }
  - { offsetInCU: 0x173FD, offset: 0x41462A, size: 0x8, addend: 0x0, symName: '__ZN4core3ptr38drop_in_place$LT$syn..expr..Member$GT$17h46d6c6017c53b35eE', symObjAddr: 0x4630, symBinAddr: 0xA1000, symSize: 0x30 }
  - { offsetInCU: 0x174F9, offset: 0x414726, size: 0x8, addend: 0x0, symName: '__ZN4core3ptr39drop_in_place$LT$proc_macro2..Ident$GT$17ha9ff64fc13056d15E', symObjAddr: 0x4660, symBinAddr: 0xA1030, symSize: 0x30 }
  - { offsetInCU: 0x175D6, offset: 0x414803, size: 0x8, addend: 0x0, symName: '__ZN4core3ptr40drop_in_place$LT$syn..ty..ReturnType$GT$17h61320124c48c8cedE', symObjAddr: 0x4690, symBinAddr: 0xA1060, symSize: 0x50 }
  - { offsetInCU: 0x17746, offset: 0x414973, size: 0x8, addend: 0x0, symName: '__ZN4core3ptr41drop_in_place$LT$syn..expr..ExprConst$GT$17hb51224a2b7ae3f93E', symObjAddr: 0x46E0, symBinAddr: 0xA10B0, symSize: 0x180 }
  - { offsetInCU: 0x17D33, offset: 0x414F60, size: 0x8, addend: 0x0, symName: '__ZN4core3ptr42drop_in_place$LT$alloc..string..String$GT$17hdbd8b13b237adbc7E.llvm.903975785551375565', symObjAddr: 0x4860, symBinAddr: 0xA1230, symSize: 0x20 }
  - { offsetInCU: 0x17E3B, offset: 0x415068, size: 0x8, addend: 0x0, symName: '__ZN4core3ptr44drop_in_place$LT$syn..lifetime..Lifetime$GT$17h21113c634520b199E', symObjAddr: 0x4880, symBinAddr: 0xA1250, symSize: 0x30 }
  - { offsetInCU: 0x1806D, offset: 0x41529A, size: 0x8, addend: 0x0, symName: '__ZN4core3ptr45drop_in_place$LT$proc_macro2..TokenStream$GT$17h2b40e419bca43967E', symObjAddr: 0x48B0, symBinAddr: 0xA1280, symSize: 0x140 }
  - { offsetInCU: 0x18507, offset: 0x415734, size: 0x8, addend: 0x0, symName: '__ZN4core3ptr45drop_in_place$LT$syn..generics..TypeParam$GT$17h89e9c76ecf851d68E', symObjAddr: 0x49F0, symBinAddr: 0xA13C0, symSize: 0x230 }
  - { offsetInCU: 0x18D7C, offset: 0x415FA9, size: 0x8, addend: 0x0, symName: '__ZN4core3ptr46drop_in_place$LT$syn..generics..ConstParam$GT$17he95c08701ad77becE', symObjAddr: 0x4C20, symBinAddr: 0xA15F0, symSize: 0x150 }
  - { offsetInCU: 0x191FD, offset: 0x41642A, size: 0x8, addend: 0x0, symName: '__ZN4core3ptr47drop_in_place$LT$syn..path..GenericArgument$GT$17hcb4bbd5e05d6c3b7E', symObjAddr: 0x4D70, symBinAddr: 0xA1740, symSize: 0x450 }
  - { offsetInCU: 0x19F73, offset: 0x4171A0, size: 0x8, addend: 0x0, symName: '__ZN4core3ptr49drop_in_place$LT$syn..generics..LifetimeParam$GT$17hcd774c5ed2f53f67E', symObjAddr: 0x51C0, symBinAddr: 0xA1B90, symSize: 0xF0 }
  - { offsetInCU: 0x1A38A, offset: 0x4175B7, size: 0x8, addend: 0x0, symName: '__ZN4core3ptr50drop_in_place$LT$syn..generics..TypeParamBound$GT$17h3b837fb6c20bba14E', symObjAddr: 0x52B0, symBinAddr: 0xA1C80, symSize: 0xA0 }
  - { offsetInCU: 0x1A4F0, offset: 0x41771D, size: 0x8, addend: 0x0, symName: '__ZN4core3ptr58drop_in_place$LT$alloc..vec..Vec$LT$syn..expr..Arm$GT$$GT$17hce51b4484b4c798bE', symObjAddr: 0x5350, symBinAddr: 0xA1D20, symSize: 0xD0 }
  - { offsetInCU: 0x1A7B0, offset: 0x4179DD, size: 0x8, addend: 0x0, symName: '__ZN4core3ptr59drop_in_place$LT$alloc..boxed..Box$LT$syn..pat..Pat$GT$$GT$17h30d5ee147b164acbE', symObjAddr: 0x5420, symBinAddr: 0xA1DF0, symSize: 0x50 }
  - { offsetInCU: 0x1A909, offset: 0x417B36, size: 0x8, addend: 0x0, symName: '__ZN4core3ptr59drop_in_place$LT$alloc..boxed..Box$LT$syn..ty..Type$GT$$GT$17haae06f26280bf4e6E', symObjAddr: 0x5470, symBinAddr: 0xA1E40, symSize: 0x50 }
  - { offsetInCU: 0x1AAFD, offset: 0x417D2A, size: 0x8, addend: 0x0, symName: '__ZN4core3ptr60drop_in_place$LT$wasm_bindgen_backend..error..Diagnostic$GT$17h223cea83bc38df07E', symObjAddr: 0x54C0, symBinAddr: 0xA1E90, symSize: 0x150 }
  - { offsetInCU: 0x1AF8E, offset: 0x4181BB, size: 0x8, addend: 0x0, symName: '__ZN4core3ptr61drop_in_place$LT$alloc..boxed..Box$LT$syn..expr..Expr$GT$$GT$17h1e496f1f4b08cb77E', symObjAddr: 0x5610, symBinAddr: 0xA1FE0, symSize: 0x50 }
  - { offsetInCU: 0x1B163, offset: 0x418390, size: 0x8, addend: 0x0, symName: '__ZN4core3ptr61drop_in_place$LT$syn..path..ParenthesizedGenericArguments$GT$17hc98199b96e5adaa6E', symObjAddr: 0x5660, symBinAddr: 0xA2030, symSize: 0x170 }
  - { offsetInCU: 0x1B78B, offset: 0x4189B8, size: 0x8, addend: 0x0, symName: '__ZN4core3ptr62drop_in_place$LT$alloc..vec..Vec$LT$proc_macro2..Ident$GT$$GT$17h0e6b361bb15b8e82E', symObjAddr: 0x57D0, symBinAddr: 0xA21A0, symSize: 0x90 }
  - { offsetInCU: 0x1BA13, offset: 0x418C40, size: 0x8, addend: 0x0, symName: '__ZN4core3ptr62drop_in_place$LT$core..option..Option$LT$syn..ty..Type$GT$$GT$17hdd97b437d9f636f5E', symObjAddr: 0x5860, symBinAddr: 0xA2230, symSize: 0x20 }
  - { offsetInCU: 0x1BA2E, offset: 0x418C5B, size: 0x8, addend: 0x0, symName: '__ZN4core3ptr63drop_in_place$LT$alloc..boxed..Box$LT$syn..lit..LitRepr$GT$$GT$17hd06bbbbc95cc5d0eE', symObjAddr: 0x5880, symBinAddr: 0xA2250, symSize: 0x60 }
  - { offsetInCU: 0x1BD35, offset: 0x418F62, size: 0x8, addend: 0x0, symName: '__ZN4core3ptr63drop_in_place$LT$wasm_bindgen_backend..encode..EncodeResult$GT$17he424b63dcbe7e10aE', symObjAddr: 0x58E0, symBinAddr: 0xA22B0, symSize: 0xA0 }
  - { offsetInCU: 0x1C11E, offset: 0x41934B, size: 0x8, addend: 0x0, symName: '__ZN4core3ptr64drop_in_place$LT$alloc..boxed..Box$LT$syn..pat..FieldPat$GT$$GT$17h5348c67f94858891E', symObjAddr: 0x5980, symBinAddr: 0xA2350, symSize: 0x140 }
  - { offsetInCU: 0x1C81F, offset: 0x419A4C, size: 0x8, addend: 0x0, symName: '__ZN4core3ptr64drop_in_place$LT$alloc..boxed..Box$LT$syn..ty..BareFnArg$GT$$GT$17h4a72b13a3e189d87E', symObjAddr: 0x5AC0, symBinAddr: 0xA2490, symSize: 0x140 }
  - { offsetInCU: 0x1CDC7, offset: 0x419FF4, size: 0x8, addend: 0x0, symName: '__ZN4core3ptr64drop_in_place$LT$alloc..vec..Vec$LT$proc_macro2..Literal$GT$$GT$17h73f237f3303b2c76E', symObjAddr: 0x5C00, symBinAddr: 0xA25D0, symSize: 0x90 }
  - { offsetInCU: 0x1D0AA, offset: 0x41A2D7, size: 0x8, addend: 0x0, symName: '__ZN4core3ptr64drop_in_place$LT$alloc..vec..Vec$LT$syn..attr..Attribute$GT$$GT$17hf5a15f175c4e81ceE', symObjAddr: 0x5C90, symBinAddr: 0xA2660, symSize: 0xD0 }
  - { offsetInCU: 0x1D3BD, offset: 0x41A5EA, size: 0x8, addend: 0x0, symName: '__ZN4core3ptr65drop_in_place$LT$alloc..vec..Vec$LT$alloc..string..String$GT$$GT$17hda4beed7e2f18a56E', symObjAddr: 0x5D60, symBinAddr: 0xA2730, symSize: 0x90 }
  - { offsetInCU: 0x1D651, offset: 0x41A87E, size: 0x8, addend: 0x0, symName: '__ZN4core3ptr65drop_in_place$LT$alloc..vec..Vec$LT$proc_macro..TokenTree$GT$$GT$17h04383c614e3ab1fcE', symObjAddr: 0x5DF0, symBinAddr: 0xA27C0, symSize: 0x110 }
  - { offsetInCU: 0x1DA49, offset: 0x41AC76, size: 0x8, addend: 0x0, symName: '__ZN4core3ptr65drop_in_place$LT$core..option..Option$LT$syn..expr..Label$GT$$GT$17h5b07172e6de7fafaE', symObjAddr: 0x5F00, symBinAddr: 0xA28D0, symSize: 0x30 }
  - { offsetInCU: 0x1DB83, offset: 0x41ADB0, size: 0x8, addend: 0x0, symName: '__ZN4core3ptr66drop_in_place$LT$core..option..Option$LT$syn..pat..PatRest$GT$$GT$17h414b7792973e1accE', symObjAddr: 0x5F30, symBinAddr: 0xA2900, symSize: 0xE0 }
  - { offsetInCU: 0x1DEAB, offset: 0x41B0D8, size: 0x8, addend: 0x0, symName: '__ZN4core3ptr67drop_in_place$LT$alloc..boxed..Box$LT$syn..expr..FieldValue$GT$$GT$17h4f90b5bdfa2ac8f9E', symObjAddr: 0x6010, symBinAddr: 0xA29E0, symSize: 0x140 }
  - { offsetInCU: 0x1E433, offset: 0x41B660, size: 0x8, addend: 0x0, symName: '__ZN4core3ptr68drop_in_place$LT$alloc..vec..Vec$LT$proc_macro2..TokenStream$GT$$GT$17h50bdc014fb29dd04E', symObjAddr: 0x6150, symBinAddr: 0xA2B20, symSize: 0xC0 }
  - { offsetInCU: 0x1E710, offset: 0x41B93D, size: 0x8, addend: 0x0, symName: '__ZN4core3ptr70drop_in_place$LT$core..option..Option$LT$syn..ty..BareVariadic$GT$$GT$17h0a1bd3d5468840beE', symObjAddr: 0x6210, symBinAddr: 0xA2BE0, symSize: 0x100 }
  - { offsetInCU: 0x1EB7B, offset: 0x41BDA8, size: 0x8, addend: 0x0, symName: '__ZN4core3ptr72drop_in_place$LT$alloc..boxed..Box$LT$syn..path..GenericArgument$GT$$GT$17ha0c09ac18b7d41b5E', symObjAddr: 0x6310, symBinAddr: 0xA2CE0, symSize: 0x2B0 }
  - { offsetInCU: 0x1F58C, offset: 0x41C7B9, size: 0x8, addend: 0x0, symName: '__ZN4core3ptr72drop_in_place$LT$core..option..Option$LT$syn..lifetime..Lifetime$GT$$GT$17h7990d056ab09c423E', symObjAddr: 0x65C0, symBinAddr: 0xA2F90, symSize: 0x30 }
  - { offsetInCU: 0x1F6A7, offset: 0x41C8D4, size: 0x8, addend: 0x0, symName: '__ZN4core3ptr73drop_in_place$LT$alloc..boxed..Box$LT$syn..generics..GenericParam$GT$$GT$17h20b807de2b91e985E', symObjAddr: 0x65F0, symBinAddr: 0xA2FC0, symSize: 0x80 }
  - { offsetInCU: 0x1F81D, offset: 0x41CA4A, size: 0x8, addend: 0x0, symName: '__ZN4core3ptr75drop_in_place$LT$alloc..boxed..Box$LT$syn..generics..TypeParamBound$GT$$GT$17h1da96ef6f4e863ddE', symObjAddr: 0x6670, symBinAddr: 0xA3040, symSize: 0x1B0 }
  - { offsetInCU: 0x1FEDE, offset: 0x41D10B, size: 0x8, addend: 0x0, symName: '__ZN4core3ptr75drop_in_place$LT$alloc..vec..Vec$LT$wasm_bindgen_backend..ast..Enum$GT$$GT$17h0b59c46b2f40847fE', symObjAddr: 0x6820, symBinAddr: 0xA31F0, symSize: 0xD0 }
  - { offsetInCU: 0x201D0, offset: 0x41D3FD, size: 0x8, addend: 0x0, symName: '__ZN4core3ptr77drop_in_place$LT$alloc..vec..Vec$LT$wasm_bindgen_backend..ast..Export$GT$$GT$17h263c62a3bb235be7E', symObjAddr: 0x68F0, symBinAddr: 0xA32C0, symSize: 0xD0 }
  - { offsetInCU: 0x204C2, offset: 0x41D6EF, size: 0x8, addend: 0x0, symName: '__ZN4core3ptr77drop_in_place$LT$alloc..vec..Vec$LT$wasm_bindgen_backend..ast..Import$GT$$GT$17he498f277e2d027e5E', symObjAddr: 0x69C0, symBinAddr: 0xA3390, symSize: 0x60 }
  - { offsetInCU: 0x20723, offset: 0x41D950, size: 0x8, addend: 0x0, symName: '__ZN4core3ptr77drop_in_place$LT$alloc..vec..Vec$LT$wasm_bindgen_backend..ast..Struct$GT$$GT$17hb68f35814dfb391bE', symObjAddr: 0x6A20, symBinAddr: 0xA33F0, symSize: 0xD0 }
  - { offsetInCU: 0x20A15, offset: 0x41DC42, size: 0x8, addend: 0x0, symName: '__ZN4core3ptr83drop_in_place$LT$alloc..vec..Vec$LT$wasm_bindgen_backend..ast..ImportModule$GT$$GT$17h94193dff6dbaf78aE', symObjAddr: 0x6AF0, symBinAddr: 0xA34C0, symSize: 0x90 }
  - { offsetInCU: 0x20CE5, offset: 0x41DF12, size: 0x8, addend: 0x0, symName: '__ZN4core3ptr83drop_in_place$LT$alloc..vec..Vec$LT$wasm_bindgen_backend..error..Diagnostic$GT$$GT$17h0609cd8754b02aa5E', symObjAddr: 0x6B80, symBinAddr: 0xA3550, symSize: 0xD0 }
  - { offsetInCU: 0x21004, offset: 0x41E231, size: 0x8, addend: 0x0, symName: '__ZN4core3ptr86drop_in_place$LT$syn..punctuated..Punctuated$LT$syn..pat..Pat$C$syn..token..Or$GT$$GT$17h93831ed2944e749dE', symObjAddr: 0x6C50, symBinAddr: 0xA3620, symSize: 0x120 }
  - { offsetInCU: 0x2147F, offset: 0x41E6AC, size: 0x8, addend: 0x0, symName: '__ZN4core3ptr87drop_in_place$LT$core..option..Option$LT$alloc..boxed..Box$LT$syn..pat..Pat$GT$$GT$$GT$17hce6b6652aeac84f1E', symObjAddr: 0x6D70, symBinAddr: 0xA3740, symSize: 0x50 }
  - { offsetInCU: 0x215EF, offset: 0x41E81C, size: 0x8, addend: 0x0, symName: '__ZN4core3ptr87drop_in_place$LT$core..option..Option$LT$alloc..boxed..Box$LT$syn..ty..Type$GT$$GT$$GT$17h8eb6b9b10cf34482E', symObjAddr: 0x6DC0, symBinAddr: 0xA3790, symSize: 0x50 }
  - { offsetInCU: 0x2175F, offset: 0x41E98C, size: 0x8, addend: 0x0, symName: '__ZN4core3ptr89drop_in_place$LT$core..option..Option$LT$alloc..boxed..Box$LT$syn..expr..Expr$GT$$GT$$GT$17hadda1967b0b98c14E', symObjAddr: 0x6E10, symBinAddr: 0xA37E0, symSize: 0x50 }
  - { offsetInCU: 0x2190D, offset: 0x41EB3A, size: 0x8, addend: 0x0, symName: '__ZN4core3ptr89drop_in_place$LT$syn..punctuated..Punctuated$LT$syn..pat..Pat$C$syn..token..Comma$GT$$GT$17h4ffb14edfedf5273E', symObjAddr: 0x6E60, symBinAddr: 0xA3830, symSize: 0x120 }
  - { offsetInCU: 0x21D9F, offset: 0x41EFCC, size: 0x8, addend: 0x0, symName: '__ZN4core3ptr89drop_in_place$LT$syn..punctuated..Punctuated$LT$syn..ty..Type$C$syn..token..Comma$GT$$GT$17hca876f3322ceb0ecE', symObjAddr: 0x6F80, symBinAddr: 0xA3950, symSize: 0x120 }
  - { offsetInCU: 0x22258, offset: 0x41F485, size: 0x8, addend: 0x0, symName: '__ZN4core3ptr91drop_in_place$LT$syn..punctuated..Punctuated$LT$syn..expr..Expr$C$syn..token..Comma$GT$$GT$17h48360bdc222b3963E', symObjAddr: 0x70A0, symBinAddr: 0xA3A70, symSize: 0x120 }
  - { offsetInCU: 0x226E6, offset: 0x41F913, size: 0x8, addend: 0x0, symName: '__ZN4core3ptr94drop_in_place$LT$syn..punctuated..Punctuated$LT$syn..pat..FieldPat$C$syn..token..Comma$GT$$GT$17h1e553a25ac0bc4e1E', symObjAddr: 0x71C0, symBinAddr: 0xA3B90, symSize: 0xF0 }
  - { offsetInCU: 0x229E5, offset: 0x41FC12, size: 0x8, addend: 0x0, symName: '__ZN4core3ptr94drop_in_place$LT$syn..punctuated..Punctuated$LT$syn..ty..BareFnArg$C$syn..token..Comma$GT$$GT$17ha469bb07bab88749E', symObjAddr: 0x72B0, symBinAddr: 0xA3C80, symSize: 0xF0 }
  - { offsetInCU: 0x22CE6, offset: 0x41FF13, size: 0x8, addend: 0x0, symName: '__ZN4core3ptr94drop_in_place$LT$wasm_bindgen_backend..codegen..Descriptor$LT$proc_macro2..TokenStream$GT$$GT$17hde510745fd2535a7E', symObjAddr: 0x73A0, symBinAddr: 0xA3D70, symSize: 0xE0 }
  - { offsetInCU: 0x22FDD, offset: 0x42020A, size: 0x8, addend: 0x0, symName: '__ZN4core3ptr96drop_in_place$LT$core..option..Option$LT$alloc..boxed..Box$LT$syn..path..PathSegment$GT$$GT$$GT$17h3fb622bd55682ae2E', symObjAddr: 0x7480, symBinAddr: 0xA3E50, symSize: 0x1A0 }
  - { offsetInCU: 0x2369E, offset: 0x4208CB, size: 0x8, addend: 0x0, symName: '__ZN4core3ptr97drop_in_place$LT$syn..punctuated..Punctuated$LT$syn..expr..FieldValue$C$syn..token..Comma$GT$$GT$17ha2df63eb673a5104E', symObjAddr: 0x7620, symBinAddr: 0xA3FF0, symSize: 0xF0 }
  - { offsetInCU: 0x23A17, offset: 0x420C44, size: 0x8, addend: 0x0, symName: '__ZN4core3ptr98drop_in_place$LT$syn..punctuated..Punctuated$LT$syn..lifetime..Lifetime$C$syn..token..Plus$GT$$GT$17h937540fc49049303E', symObjAddr: 0x7710, symBinAddr: 0xA40E0, symSize: 0xD0 }
  - { offsetInCU: 0x24AB1, offset: 0x421CDE, size: 0x8, addend: 0x0, symName: '__ZN53_$LT$core..fmt..Error$u20$as$u20$core..fmt..Debug$GT$3fmt17h03dc662ab152f3aeE', symObjAddr: 0x77E0, symBinAddr: 0xA41B0, symSize: 0x20 }
  - { offsetInCU: 0x289D8, offset: 0x425C05, size: 0x8, addend: 0x0, symName: '__ZN71_$LT$core..hash..sip..Hasher$LT$S$GT$$u20$as$u20$core..hash..Hasher$GT$5write17hf2e2abaa61f9ec47E.llvm.903975785551375565', symObjAddr: 0x79C0, symBinAddr: 0xA4390, symSize: 0x1E0 }
  - { offsetInCU: 0x2BB8A, offset: 0x428DB7, size: 0x8, addend: 0x0, symName: _anon.5b70900a5caf62b478fd307f6f11cd66.21.llvm.903975785551375565, symObjAddr: 0x2DA20, symBinAddr: 0x339428, symSize: 0x0 }
  - { offsetInCU: 0x30E02, offset: 0x42E02F, size: 0x8, addend: 0x0, symName: '__ZN77_$LT$wasm_bindgen_backend..ast..Program$u20$as$u20$core..default..Default$GT$7default17hcc428242a1fb1242E', symObjAddr: 0x7BA0, symBinAddr: 0xA4570, symSize: 0x3B0 }
  - { offsetInCU: 0x31018, offset: 0x42E245, size: 0x8, addend: 0x0, symName: '__ZN76_$LT$wasm_bindgen_backend..ast..ImportModule$u20$as$u20$core..hash..Hash$GT$4hash17h0a22d42242aa1450E', symObjAddr: 0x81C0, symBinAddr: 0xA4B90, symSize: 0xC0 }
  - { offsetInCU: 0x31866, offset: 0x42EA93, size: 0x8, addend: 0x0, symName: '__ZN97_$LT$wasm_bindgen_backend..ast..Program$u20$as$u20$wasm_bindgen_backend..codegen..TryToTokens$GT$13try_to_tokens17hfb915cf31e24d0f5E', symObjAddr: 0x8480, symBinAddr: 0xA4E50, symSize: 0x1790 }
  - { offsetInCU: 0x3464E, offset: 0x43187B, size: 0x8, addend: 0x0, symName: '__ZN102_$LT$wasm_bindgen_backend..ast..LinkToModule$u20$as$u20$wasm_bindgen_backend..codegen..TryToTokens$GT$13try_to_tokens17hb0087f035f4532f1E', symObjAddr: 0x9C10, symBinAddr: 0xA65E0, symSize: 0x650 }
  - { offsetInCU: 0x34CB9, offset: 0x431EE6, size: 0x8, addend: 0x0, symName: '__ZN20wasm_bindgen_backend7codegen90_$LT$impl$u20$quote..to_tokens..ToTokens$u20$for$u20$wasm_bindgen_backend..ast..Struct$GT$9to_tokens17h479d7b1111a3271cE', symObjAddr: 0xA260, symBinAddr: 0xA6C30, symSize: 0x71E0 }
  - { offsetInCU: 0x37F5C, offset: 0x435189, size: 0x8, addend: 0x0, symName: '__ZN20wasm_bindgen_backend7codegen95_$LT$impl$u20$quote..to_tokens..ToTokens$u20$for$u20$wasm_bindgen_backend..ast..StructField$GT$9to_tokens17he447892efd47a95eE', symObjAddr: 0x11440, symBinAddr: 0xADE10, symSize: 0x2870 }
  - { offsetInCU: 0x39732, offset: 0x43695F, size: 0x8, addend: 0x0, symName: '__ZN96_$LT$wasm_bindgen_backend..ast..Export$u20$as$u20$wasm_bindgen_backend..codegen..TryToTokens$GT$13try_to_tokens17h17991d97a9df33eeE', symObjAddr: 0x13CB0, symBinAddr: 0xB0680, symSize: 0x59B0 }
  - { offsetInCU: 0x415D4, offset: 0x43E801, size: 0x8, addend: 0x0, symName: '__ZN20wasm_bindgen_backend7codegen94_$LT$impl$u20$quote..to_tokens..ToTokens$u20$for$u20$wasm_bindgen_backend..ast..ImportType$GT$9to_tokens17hcc8a48006924f6fdE', symObjAddr: 0x19730, symBinAddr: 0xB6030, symSize: 0x6220 }
  - { offsetInCU: 0x436B4, offset: 0x4408E1, size: 0x8, addend: 0x0, symName: '__ZN20wasm_bindgen_backend7codegen94_$LT$impl$u20$quote..to_tokens..ToTokens$u20$for$u20$wasm_bindgen_backend..ast..ImportEnum$GT$9to_tokens17hd4dbca0c4066bebdE', symObjAddr: 0x1F950, symBinAddr: 0xBC250, symSize: 0x2BD0 }
  - { offsetInCU: 0x457C5, offset: 0x4429F2, size: 0x8, addend: 0x0, symName: '__ZN104_$LT$wasm_bindgen_backend..ast..ImportFunction$u20$as$u20$wasm_bindgen_backend..codegen..TryToTokens$GT$13try_to_tokens17hd3282a3e718310eeE', symObjAddr: 0x22520, symBinAddr: 0xBEE20, symSize: 0x3400 }
  - { offsetInCU: 0x49FDF, offset: 0x44720C, size: 0x8, addend: 0x0, symName: '__ZN20wasm_bindgen_backend7codegen88_$LT$impl$u20$quote..to_tokens..ToTokens$u20$for$u20$wasm_bindgen_backend..ast..Enum$GT$9to_tokens17h9fd37c6504a5dd34E', symObjAddr: 0x25920, symBinAddr: 0xC2220, symSize: 0x3400 }
  - { offsetInCU: 0x4B8DD, offset: 0x448B0A, size: 0x8, addend: 0x0, symName: '__ZN20wasm_bindgen_backend7codegen96_$LT$impl$u20$quote..to_tokens..ToTokens$u20$for$u20$wasm_bindgen_backend..ast..ImportStatic$GT$9to_tokens17h2784120280de5a0aE', symObjAddr: 0x28D20, symBinAddr: 0xC5620, symSize: 0x13A2 }
  - { offsetInCU: 0x4D85D, offset: 0x44AA8A, size: 0x8, addend: 0x0, symName: __ZN20wasm_bindgen_backend3ast7Program18link_function_name17h630284fd57756aceE, symObjAddr: 0x7F50, symBinAddr: 0xA4920, symSize: 0x270 }
  - { offsetInCU: 0x4DF50, offset: 0x44B17D, size: 0x8, addend: 0x0, symName: __ZN20wasm_bindgen_backend3ast8Function21infer_setter_property17h2a4f9beff0f7a6a6E, symObjAddr: 0x8280, symBinAddr: 0xA4C50, symSize: 0x200 }
  - { offsetInCU: 0x14A0, offset: 0x459A0B, size: 0x8, addend: 0x0, symName: '__ZN81_$LT$alloc..vec..Vec$LT$T$GT$$u20$as$u20$wasm_bindgen_backend..encode..Encode$GT$6encode17h183e23a844b16bccE', symObjAddr: 0x13C70, symBinAddr: 0xD8E70, symSize: 0xF0 }
  - { offsetInCU: 0x17FE, offset: 0x459D69, size: 0x8, addend: 0x0, symName: '__ZN81_$LT$alloc..vec..Vec$LT$T$GT$$u20$as$u20$wasm_bindgen_backend..encode..Encode$GT$6encode17h1b3c883c9bd855d1E', symObjAddr: 0x13D60, symBinAddr: 0xD8F60, symSize: 0x160 }
  - { offsetInCU: 0x1C70, offset: 0x45A1DB, size: 0x8, addend: 0x0, symName: '__ZN81_$LT$alloc..vec..Vec$LT$T$GT$$u20$as$u20$wasm_bindgen_backend..encode..Encode$GT$6encode17h2f979d6d9b2e7105E', symObjAddr: 0x13EC0, symBinAddr: 0xD90C0, symSize: 0x120 }
  - { offsetInCU: 0x1FEF, offset: 0x45A55A, size: 0x8, addend: 0x0, symName: '__ZN81_$LT$alloc..vec..Vec$LT$T$GT$$u20$as$u20$wasm_bindgen_backend..encode..Encode$GT$6encode17h31a0e513d02b14ffE', symObjAddr: 0x13FE0, symBinAddr: 0xD91E0, symSize: 0x100 }
  - { offsetInCU: 0x234D, offset: 0x45A8B8, size: 0x8, addend: 0x0, symName: '__ZN81_$LT$alloc..vec..Vec$LT$T$GT$$u20$as$u20$wasm_bindgen_backend..encode..Encode$GT$6encode17h5cd61bacff68df97E', symObjAddr: 0x140E0, symBinAddr: 0xD92E0, symSize: 0x110 }
  - { offsetInCU: 0x26AB, offset: 0x45AC16, size: 0x8, addend: 0x0, symName: '__ZN81_$LT$alloc..vec..Vec$LT$T$GT$$u20$as$u20$wasm_bindgen_backend..encode..Encode$GT$6encode17h6aa4784b5e29d706E', symObjAddr: 0x141F0, symBinAddr: 0xD93F0, symSize: 0x110 }
  - { offsetInCU: 0x2AE0, offset: 0x45B04B, size: 0x8, addend: 0x0, symName: '__ZN81_$LT$alloc..vec..Vec$LT$T$GT$$u20$as$u20$wasm_bindgen_backend..encode..Encode$GT$6encode17ha7cd0815291a8d68E', symObjAddr: 0x14300, symBinAddr: 0xD9500, symSize: 0x100 }
  - { offsetInCU: 0x2E3E, offset: 0x45B3A9, size: 0x8, addend: 0x0, symName: '__ZN81_$LT$alloc..vec..Vec$LT$T$GT$$u20$as$u20$wasm_bindgen_backend..encode..Encode$GT$6encode17hc0e62a88861cb8d2E', symObjAddr: 0x14400, symBinAddr: 0xD9600, symSize: 0x130 }
  - { offsetInCU: 0x320E, offset: 0x45B779, size: 0x8, addend: 0x0, symName: '__ZN81_$LT$alloc..vec..Vec$LT$T$GT$$u20$as$u20$wasm_bindgen_backend..encode..Encode$GT$6encode17hc1eebe10fecd4c89E', symObjAddr: 0x14530, symBinAddr: 0xD9730, symSize: 0x110 }
  - { offsetInCU: 0x3568, offset: 0x45BAD3, size: 0x8, addend: 0x0, symName: '__ZN81_$LT$alloc..vec..Vec$LT$T$GT$$u20$as$u20$wasm_bindgen_backend..encode..Encode$GT$6encode17hc8eea85563f0e387E', symObjAddr: 0x14640, symBinAddr: 0xD9840, symSize: 0xF2 }
  - { offsetInCU: 0x58D5, offset: 0x45DE40, size: 0x8, addend: 0x0, symName: '__ZN4core3ptr100drop_in_place$LT$core..option..Option$LT$alloc..boxed..Box$LT$syn..path..GenericArgument$GT$$GT$$GT$17h8de8466e8995d15dE', symObjAddr: 0x430, symBinAddr: 0xC6D00, symSize: 0x50 }
  - { offsetInCU: 0x5A64, offset: 0x45DFCF, size: 0x8, addend: 0x0, symName: '__ZN4core3ptr101drop_in_place$LT$core..option..Option$LT$alloc..boxed..Box$LT$syn..generics..GenericParam$GT$$GT$$GT$17haa7ce47eb7e5130aE', symObjAddr: 0x480, symBinAddr: 0xC6D50, symSize: 0x50 }
  - { offsetInCU: 0x5C50, offset: 0x45E1BB, size: 0x8, addend: 0x0, symName: '__ZN4core3ptr102drop_in_place$LT$syn..punctuated..Punctuated$LT$syn..path..GenericArgument$C$syn..token..Comma$GT$$GT$17hb5d151e802632153E.llvm.12880930886263463172', symObjAddr: 0x4D0, symBinAddr: 0xC6DA0, symSize: 0xF0 }
  - { offsetInCU: 0x5F77, offset: 0x45E4E2, size: 0x8, addend: 0x0, symName: '__ZN4core3ptr103drop_in_place$LT$core..option..Option$LT$alloc..boxed..Box$LT$syn..generics..TypeParamBound$GT$$GT$$GT$17hcc99ba2c5104ae4dE', symObjAddr: 0x5C0, symBinAddr: 0xC6E90, symSize: 0x50 }
  - { offsetInCU: 0x6106, offset: 0x45E671, size: 0x8, addend: 0x0, symName: '__ZN4core3ptr103drop_in_place$LT$core..option..Option$LT$alloc..boxed..Box$LT$syn..generics..WherePredicate$GT$$GT$$GT$17hf73cd8891eb699cbE', symObjAddr: 0x610, symBinAddr: 0xC6EE0, symSize: 0x50 }
  - { offsetInCU: 0x6330, offset: 0x45E89B, size: 0x8, addend: 0x0, symName: '__ZN4core3ptr103drop_in_place$LT$syn..punctuated..Punctuated$LT$syn..generics..GenericParam$C$syn..token..Comma$GT$$GT$17hd0fc887a95cd450dE', symObjAddr: 0x660, symBinAddr: 0xC6F30, symSize: 0x1A0 }
  - { offsetInCU: 0x6A10, offset: 0x45EF7B, size: 0x8, addend: 0x0, symName: '__ZN4core3ptr104drop_in_place$LT$syn..punctuated..Punctuated$LT$syn..generics..TypeParamBound$C$syn..token..Plus$GT$$GT$17h1ca6c643f4a14a56E', symObjAddr: 0x800, symBinAddr: 0xC70D0, symSize: 0x240 }
  - { offsetInCU: 0x73A8, offset: 0x45F913, size: 0x8, addend: 0x0, symName: '__ZN4core3ptr105drop_in_place$LT$syn..punctuated..Punctuated$LT$syn..generics..WherePredicate$C$syn..token..Comma$GT$$GT$17h6340e88eecde23ccE', symObjAddr: 0xA40, symBinAddr: 0xC7310, symSize: 0x1A0 }
  - { offsetInCU: 0x7AB7, offset: 0x460022, size: 0x8, addend: 0x0, symName: '__ZN4core3ptr116drop_in_place$LT$core..option..Option$LT$$LP$syn..token..Else$C$alloc..boxed..Box$LT$syn..expr..Expr$GT$$RP$$GT$$GT$17h3f062fd017d9929aE', symObjAddr: 0xBE0, symBinAddr: 0xC74B0, symSize: 0x50 }
  - { offsetInCU: 0x7C7C, offset: 0x4601E7, size: 0x8, addend: 0x0, symName: '__ZN4core3ptr126drop_in_place$LT$core..option..Option$LT$$LP$syn..token..And$C$core..option..Option$LT$syn..lifetime..Lifetime$GT$$RP$$GT$$GT$17h51304684e6064332E', symObjAddr: 0xC30, symBinAddr: 0xC7500, symSize: 0x30 }
  - { offsetInCU: 0x7E51, offset: 0x4603BC, size: 0x8, addend: 0x0, symName: '__ZN4core3ptr1607drop_in_place$LT$core..iter..adapters..flatten..Flatten$LT$core..iter..adapters..map..Map$LT$core..iter..adapters..map..Map$LT$core..iter..adapters..map..Map$LT$core..slice..iter..Iter$LT$$RF$syn..ty..Type$GT$$C$$LT$wasm_bindgen_backend..ast..Export$u20$as$u20$wasm_bindgen_backend..codegen..TryToTokens$GT$..try_to_tokens..$u7b$$u7b$closure$u7d$$u7d$$GT$$C$$LT$proc_macro2..TokenStream$u20$as$u20$core..iter..traits..collect..FromIterator$LT$proc_macro2..TokenStream$GT$$GT$..from_iter$LT$core..iter..adapters..map..Map$LT$core..slice..iter..Iter$LT$$RF$syn..ty..Type$GT$$C$$LT$wasm_bindgen_backend..ast..Export$u20$as$u20$wasm_bindgen_backend..codegen..TryToTokens$GT$..try_to_tokens..$u7b$$u7b$closure$u7d$$u7d$$GT$$GT$..$u7b$$u7b$closure$u7d$$u7d$$GT$$C$$LT$proc_macro2..imp..TokenStream$u20$as$u20$core..iter..traits..collect..FromIterator$LT$proc_macro2..imp..TokenStream$GT$$GT$..from_iter$LT$core..iter..adapters..map..Map$LT$core..iter..adapters..map..Map$LT$core..slice..iter..Iter$LT$$RF$syn..ty..Type$GT$$C$$LT$wasm_bindgen_backend..ast..Export$u20$as$u20$wasm_bindgen_backend..codegen..TryToTokens$GT$..try_to_tokens..$u7b$$u7b$closure$u7d$$u7d$$GT$$C$$LT$proc_macro2..TokenStream$u20$as$u20$core..iter..traits..collect..FromIterator$LT$proc_macro2..TokenStream$GT$$GT$..from_iter$LT$core..iter..adapters..map..Map$LT$core..slice..iter..Iter$LT$$RF$syn..ty..Type$GT$$C$$LT$wasm_bindgen_backend..ast..Export$u20$as$u20$wasm_bindgen_backend..codegen..TryToTokens$GT$..try_to_tokens..$u7b$$u7b$closure$u7d$$u7d$$GT$$GT$..$u7b$$u7b$closure$u7d$$u7d$$GT$$GT$..$u7b$$u7b$closure$u7d$$u7d$$GT$$GT$$GT$17h533a6b3cd64a9a17E', symObjAddr: 0xC60, symBinAddr: 0xC7530, symSize: 0x60 }
  - { offsetInCU: 0x7FF4, offset: 0x46055F, size: 0x8, addend: 0x0, symName: '__ZN4core3ptr228drop_in_place$LT$core..iter..adapters..map..Map$LT$core..option..IntoIter$LT$proc_macro2..Ident$GT$$C$wasm_bindgen_backend..util..path_ty$LT$core..option..Option$LT$proc_macro2..Ident$GT$$GT$..$u7b$$u7b$closure$u7d$$u7d$$GT$$GT$17hcc5a792af7664fbeE.llvm.12880930886263463172', symObjAddr: 0xCC0, symBinAddr: 0xC7590, symSize: 0x30 }
  - { offsetInCU: 0x8296, offset: 0x460801, size: 0x8, addend: 0x0, symName: '__ZN4core3ptr33drop_in_place$LT$syn..ty..Abi$GT$17hc46d3748f8be91d0E', symObjAddr: 0xCF0, symBinAddr: 0xC75C0, symSize: 0x70 }
  - { offsetInCU: 0x82B2, offset: 0x46081D, size: 0x8, addend: 0x0, symName: '__ZN4core3ptr33drop_in_place$LT$syn..ty..Abi$GT$17hc46d3748f8be91d0E', symObjAddr: 0xCF0, symBinAddr: 0xC75C0, symSize: 0x70 }
  - { offsetInCU: 0x858A, offset: 0x460AF5, size: 0x8, addend: 0x0, symName: '__ZN4core3ptr34drop_in_place$LT$syn..lit..Lit$GT$17h958a4e0583def0c2E', symObjAddr: 0xD60, symBinAddr: 0xC7630, symSize: 0x120 }
  - { offsetInCU: 0x8AB6, offset: 0x461021, size: 0x8, addend: 0x0, symName: '__ZN4core3ptr34drop_in_place$LT$syn..pat..Pat$GT$17h51dd771ca6732d24E.llvm.12880930886263463172', symObjAddr: 0xE80, symBinAddr: 0xC7750, symSize: 0xF90 }
  - { offsetInCU: 0xC9FB, offset: 0x464F66, size: 0x8, addend: 0x0, symName: '__ZN4core3ptr34drop_in_place$LT$syn..ty..Type$GT$17ha2513550c540b8bfE.llvm.12880930886263463172', symObjAddr: 0x1E10, symBinAddr: 0xC86E0, symSize: 0x510 }
  - { offsetInCU: 0xDA3D, offset: 0x465FA8, size: 0x8, addend: 0x0, symName: '__ZN4core3ptr35drop_in_place$LT$syn..expr..Arm$GT$17hfc79241f95f0b138E.llvm.12880930886263463172', symObjAddr: 0x2320, symBinAddr: 0xC8BF0, symSize: 0x170 }
  - { offsetInCU: 0xE0AB, offset: 0x466616, size: 0x8, addend: 0x0, symName: '__ZN4core3ptr36drop_in_place$LT$syn..attr..Meta$GT$17h57d9cee7eca27804E.llvm.12880930886263463172', symObjAddr: 0x2490, symBinAddr: 0xC8D60, symSize: 0x320 }
  - { offsetInCU: 0xF05E, offset: 0x4675C9, size: 0x8, addend: 0x0, symName: '__ZN4core3ptr36drop_in_place$LT$syn..expr..Expr$GT$17h28f67721c4e5d9afE.llvm.12880930886263463172', symObjAddr: 0x27B0, symBinAddr: 0xC9080, symSize: 0x2790 }
  - { offsetInCU: 0x1935E, offset: 0x4718C9, size: 0x8, addend: 0x0, symName: '__ZN4core3ptr36drop_in_place$LT$syn..item..Item$GT$17h37f32c99e6bb5699E', symObjAddr: 0x4F40, symBinAddr: 0xCB810, symSize: 0x17C0 }
  - { offsetInCU: 0x1ED8C, offset: 0x4772F7, size: 0x8, addend: 0x0, symName: '__ZN4core3ptr36drop_in_place$LT$syn..mac..Macro$GT$17h06cd806352e8f75fE', symObjAddr: 0x6700, symBinAddr: 0xCCFD0, symSize: 0xE0 }
  - { offsetInCU: 0x1F0F4, offset: 0x47765F, size: 0x8, addend: 0x0, symName: '__ZN4core3ptr36drop_in_place$LT$syn..path..Path$GT$17h0991d43acec843f0E', symObjAddr: 0x67E0, symBinAddr: 0xCD0B0, symSize: 0x180 }
  - { offsetInCU: 0x1F6FF, offset: 0x477C6A, size: 0x8, addend: 0x0, symName: '__ZN4core3ptr36drop_in_place$LT$syn..stmt..Stmt$GT$17h619fc78e67fff16fE.llvm.12880930886263463172', symObjAddr: 0x6960, symBinAddr: 0xCD230, symSize: 0x380 }
  - { offsetInCU: 0x20368, offset: 0x4788D3, size: 0x8, addend: 0x0, symName: '__ZN4core3ptr37drop_in_place$LT$syn..data..Field$GT$17h97ebc782fbe6e5a8E', symObjAddr: 0x6CE0, symBinAddr: 0xCD5B0, symSize: 0x190 }
  - { offsetInCU: 0x20958, offset: 0x478EC3, size: 0x8, addend: 0x0, symName: '__ZN4core3ptr37drop_in_place$LT$syn..item..FnArg$GT$17h38af89ed8df45283E', symObjAddr: 0x6E70, symBinAddr: 0xCD740, symSize: 0x230 }
  - { offsetInCU: 0x2126F, offset: 0x4797DA, size: 0x8, addend: 0x0, symName: '__ZN4core3ptr37drop_in_place$LT$syn..stmt..Block$GT$17h1a4e3ed92b2fd543E', symObjAddr: 0x70A0, symBinAddr: 0xCD970, symSize: 0xD0 }
  - { offsetInCU: 0x2154D, offset: 0x479AB8, size: 0x8, addend: 0x0, symName: '__ZN4core3ptr38drop_in_place$LT$syn..expr..Member$GT$17h46d6c6017c53b35eE.llvm.12880930886263463172', symObjAddr: 0x7170, symBinAddr: 0xCDA40, symSize: 0x30 }
  - { offsetInCU: 0x21649, offset: 0x479BB4, size: 0x8, addend: 0x0, symName: '__ZN4core3ptr38drop_in_place$LT$syn..pat..PatType$GT$17ha0dc0b320bba4757E', symObjAddr: 0x71A0, symBinAddr: 0xCDA70, symSize: 0x140 }
  - { offsetInCU: 0x21BFB, offset: 0x47A166, size: 0x8, addend: 0x0, symName: '__ZN4core3ptr39drop_in_place$LT$proc_macro2..Ident$GT$17ha9ff64fc13056d15E.llvm.12880930886263463172', symObjAddr: 0x72E0, symBinAddr: 0xCDBB0, symSize: 0x30 }
  - { offsetInCU: 0x21D35, offset: 0x47A2A0, size: 0x8, addend: 0x0, symName: '__ZN4core3ptr39drop_in_place$LT$syn..data..Variant$GT$17h1d055ad2dbe7ac0bE', symObjAddr: 0x7310, symBinAddr: 0xCDBE0, symSize: 0x2F0 }
  - { offsetInCU: 0x229D0, offset: 0x47AF3B, size: 0x8, addend: 0x0, symName: '__ZN4core3ptr39drop_in_place$LT$syn..item..UseTree$GT$17ha9ee815f1ac4654bE', symObjAddr: 0x7600, symBinAddr: 0xCDED0, symSize: 0x1E0 }
  - { offsetInCU: 0x23129, offset: 0x47B694, size: 0x8, addend: 0x0, symName: '__ZN4core3ptr40drop_in_place$LT$syn..item..ImplItem$GT$17hf77254f39c2d69caE', symObjAddr: 0x77E0, symBinAddr: 0xCE0B0, symSize: 0x220 }
  - { offsetInCU: 0x23776, offset: 0x47BCE1, size: 0x8, addend: 0x0, symName: '__ZN4core3ptr40drop_in_place$LT$syn..item..Receiver$GT$17h15a3a1e95e7459faE', symObjAddr: 0x7A00, symBinAddr: 0xCE2D0, symSize: 0x130 }
  - { offsetInCU: 0x23D74, offset: 0x47C2DF, size: 0x8, addend: 0x0, symName: '__ZN4core3ptr40drop_in_place$LT$syn..item..Variadic$GT$17hc205ec0988abd1a2E', symObjAddr: 0x7B30, symBinAddr: 0xCE400, symSize: 0x120 }
  - { offsetInCU: 0x24217, offset: 0x47C782, size: 0x8, addend: 0x0, symName: '__ZN4core3ptr40drop_in_place$LT$syn..ty..ReturnType$GT$17h61320124c48c8cedE.llvm.12880930886263463172', symObjAddr: 0x7C50, symBinAddr: 0xCE520, symSize: 0x50 }
  - { offsetInCU: 0x244DC, offset: 0x47CA47, size: 0x8, addend: 0x0, symName: '__ZN4core3ptr41drop_in_place$LT$syn..item..Signature$GT$17h01268b87a3d0e5beE', symObjAddr: 0x7CA0, symBinAddr: 0xCE570, symSize: 0x270 }
  - { offsetInCU: 0x24FF1, offset: 0x47D55C, size: 0x8, addend: 0x0, symName: '__ZN4core3ptr41drop_in_place$LT$syn..item..TraitItem$GT$17hfd0efaa0a7bfc8edE', symObjAddr: 0x7F10, symBinAddr: 0xCE7E0, symSize: 0x3D0 }
  - { offsetInCU: 0x25C2F, offset: 0x47E19A, size: 0x8, addend: 0x0, symName: '__ZN4core3ptr42drop_in_place$LT$syn..item..ImplItemFn$GT$17h4abd8704d2c742dcE', symObjAddr: 0x82E0, symBinAddr: 0xCEBB0, symSize: 0x230 }
  - { offsetInCU: 0x263F2, offset: 0x47E95D, size: 0x8, addend: 0x0, symName: '__ZN4core3ptr42drop_in_place$LT$syn..path..Constraint$GT$17h0aa564c431d48254E', symObjAddr: 0x8510, symBinAddr: 0xCEDE0, symSize: 0x160 }
  - { offsetInCU: 0x26ABF, offset: 0x47F02A, size: 0x8, addend: 0x0, symName: '__ZN4core3ptr43drop_in_place$LT$proc_macro2..TokenTree$GT$17hc4cda53889ee41ebE.llvm.12880930886263463172', symObjAddr: 0x8670, symBinAddr: 0xCEF40, symSize: 0xB0 }
  - { offsetInCU: 0x26E1A, offset: 0x47F385, size: 0x8, addend: 0x0, symName: '__ZN4core3ptr43drop_in_place$LT$syn..data..FieldsNamed$GT$17h94abb5a764a9ee47E', symObjAddr: 0x8720, symBinAddr: 0xCEFF0, symSize: 0x120 }
  - { offsetInCU: 0x272DE, offset: 0x47F849, size: 0x8, addend: 0x0, symName: '__ZN4core3ptr43drop_in_place$LT$syn..item..ForeignItem$GT$17he3e5ba4d78d42147E', symObjAddr: 0x8840, symBinAddr: 0xCF110, symSize: 0x340 }
  - { offsetInCU: 0x27CEF, offset: 0x48025A, size: 0x8, addend: 0x0, symName: '__ZN4core3ptr43drop_in_place$LT$syn..path..PathSegment$GT$17h8bb09f7db5d65f06E.llvm.12880930886263463172', symObjAddr: 0x8B80, symBinAddr: 0xCF450, symSize: 0x190 }
  - { offsetInCU: 0x282CE, offset: 0x480839, size: 0x8, addend: 0x0, symName: '__ZN4core3ptr44drop_in_place$LT$syn..generics..Generics$GT$17h46363d29905b4057E', symObjAddr: 0x8D10, symBinAddr: 0xCF5E0, symSize: 0x240 }
  - { offsetInCU: 0x28C0F, offset: 0x48117A, size: 0x8, addend: 0x0, symName: '__ZN4core3ptr44drop_in_place$LT$syn..item..ImplItemType$GT$17hb17d024fa645b01dE', symObjAddr: 0x8F50, symBinAddr: 0xCF820, symSize: 0x1F0 }
  - { offsetInCU: 0x29222, offset: 0x48178D, size: 0x8, addend: 0x0, symName: '__ZN4core3ptr44drop_in_place$LT$syn..lifetime..Lifetime$GT$17h21113c634520b199E.llvm.12880930886263463172', symObjAddr: 0x9140, symBinAddr: 0xCFA10, symSize: 0x30 }
  - { offsetInCU: 0x2937B, offset: 0x4818E6, size: 0x8, addend: 0x0, symName: '__ZN4core3ptr45drop_in_place$LT$proc_macro2..TokenStream$GT$17h2b40e419bca43967E.llvm.12880930886263463172', symObjAddr: 0x9170, symBinAddr: 0xCFA40, symSize: 0x70 }
  - { offsetInCU: 0x294E2, offset: 0x481A4D, size: 0x8, addend: 0x0, symName: '__ZN4core3ptr45drop_in_place$LT$syn..generics..TypeParam$GT$17h89e9c76ecf851d68E.llvm.12880930886263463172', symObjAddr: 0x91E0, symBinAddr: 0xCFAB0, symSize: 0x230 }
  - { offsetInCU: 0x29D80, offset: 0x4822EB, size: 0x8, addend: 0x0, symName: '__ZN4core3ptr45drop_in_place$LT$syn..item..ImplItemConst$GT$17hf8edcacfe1574daeE', symObjAddr: 0x9410, symBinAddr: 0xCFCE0, symSize: 0x210 }
  - { offsetInCU: 0x2A3D1, offset: 0x48293C, size: 0x8, addend: 0x0, symName: '__ZN4core3ptr45drop_in_place$LT$syn..item..TraitItemType$GT$17hbd31940c1ad434a8E', symObjAddr: 0x9620, symBinAddr: 0xCFEF0, symSize: 0x290 }
  - { offsetInCU: 0x2AD3B, offset: 0x4832A6, size: 0x8, addend: 0x0, symName: '__ZN4core3ptr45drop_in_place$LT$syn..path..PathArguments$GT$17hda72384a62809ae2E.llvm.12880930886263463172', symObjAddr: 0x98B0, symBinAddr: 0xD0180, symSize: 0xB0 }
  - { offsetInCU: 0x2AF0C, offset: 0x483477, size: 0x8, addend: 0x0, symName: '__ZN4core3ptr46drop_in_place$LT$syn..generics..ConstParam$GT$17he95c08701ad77becE.llvm.12880930886263463172', symObjAddr: 0x9960, symBinAddr: 0xD0230, symSize: 0x150 }
  - { offsetInCU: 0x2B33A, offset: 0x4838A5, size: 0x8, addend: 0x0, symName: '__ZN4core3ptr46drop_in_place$LT$syn..item..TraitItemConst$GT$17hf879219304197d49E', symObjAddr: 0x9AB0, symBinAddr: 0xD0380, symSize: 0x1B0 }
  - { offsetInCU: 0x2B81B, offset: 0x483D86, size: 0x8, addend: 0x0, symName: '__ZN4core3ptr47drop_in_place$LT$syn..generics..WhereClause$GT$17hd9ca1d99a03a5ca0E', symObjAddr: 0x9C60, symBinAddr: 0xD0530, symSize: 0x120 }
  - { offsetInCU: 0x2BCA1, offset: 0x48420C, size: 0x8, addend: 0x0, symName: '__ZN4core3ptr47drop_in_place$LT$syn..item..ForeignItemType$GT$17hde2f61cf03cd5c8bE', symObjAddr: 0x9D80, symBinAddr: 0xD0650, symSize: 0x1B0 }
  - { offsetInCU: 0x2C30F, offset: 0x48487A, size: 0x8, addend: 0x0, symName: '__ZN4core3ptr47drop_in_place$LT$syn..path..GenericArgument$GT$17hcb4bbd5e05d6c3b7E', symObjAddr: 0x9F30, symBinAddr: 0xD0800, symSize: 0x1C0 }
  - { offsetInCU: 0x2C7D3, offset: 0x484D3E, size: 0x8, addend: 0x0, symName: '__ZN4core3ptr48drop_in_place$LT$syn..generics..GenericParam$GT$17h8ad8609f8f0cea2dE', symObjAddr: 0xA0F0, symBinAddr: 0xD09C0, symSize: 0x150 }
  - { offsetInCU: 0x2CBF9, offset: 0x485164, size: 0x8, addend: 0x0, symName: '__ZN4core3ptr49drop_in_place$LT$syn..generics..LifetimeParam$GT$17hcd774c5ed2f53f67E.llvm.12880930886263463172', symObjAddr: 0xA240, symBinAddr: 0xD0B10, symSize: 0xF0 }
  - { offsetInCU: 0x2D004, offset: 0x48556F, size: 0x8, addend: 0x0, symName: '__ZN4core3ptr49drop_in_place$LT$syn..generics..PredicateType$GT$17h7b086ff7c0f9beb8E', symObjAddr: 0xA330, symBinAddr: 0xD0C00, symSize: 0x180 }
  - { offsetInCU: 0x2D4BC, offset: 0x485A27, size: 0x8, addend: 0x0, symName: '__ZN4core3ptr49drop_in_place$LT$syn..item..ForeignItemStatic$GT$17h1e69df9269c8adecE', symObjAddr: 0xA4B0, symBinAddr: 0xD0D80, symSize: 0x190 }
  - { offsetInCU: 0x2DBBE, offset: 0x486129, size: 0x8, addend: 0x0, symName: '__ZN4core3ptr50drop_in_place$LT$$u5b$syn..item..ImplItem$u5d$$GT$17h901c05e576156d0cE', symObjAddr: 0xA640, symBinAddr: 0xD0F10, symSize: 0x210 }
  - { offsetInCU: 0x2DF32, offset: 0x48649D, size: 0x8, addend: 0x0, symName: '__ZN4core3ptr50drop_in_place$LT$syn..generics..TypeParamBound$GT$17h3b837fb6c20bba14E', symObjAddr: 0xA850, symBinAddr: 0xD1120, symSize: 0xA0 }
  - { offsetInCU: 0x2E0B7, offset: 0x486622, size: 0x8, addend: 0x0, symName: '__ZN4core3ptr50drop_in_place$LT$syn..generics..WherePredicate$GT$17hdd9ed818ffdd001dE', symObjAddr: 0xA8F0, symBinAddr: 0xD11C0, symSize: 0xA0 }
  - { offsetInCU: 0x2E267, offset: 0x4867D2, size: 0x8, addend: 0x0, symName: '__ZN4core3ptr51drop_in_place$LT$$u5b$syn..item..TraitItem$u5d$$GT$17heeb2ff5c9dc7f803E', symObjAddr: 0xA990, symBinAddr: 0xD1260, symSize: 0x3E0 }
  - { offsetInCU: 0x2EC09, offset: 0x487174, size: 0x8, addend: 0x0, symName: '__ZN4core3ptr52drop_in_place$LT$syn..restriction..VisRestricted$GT$17hf0fd94db42e5d672E', symObjAddr: 0xAD70, symBinAddr: 0xD1640, symSize: 0x50 }
  - { offsetInCU: 0x2EE5A, offset: 0x4873C5, size: 0x8, addend: 0x0, symName: '__ZN4core3ptr52drop_in_place$LT$wasm_bindgen_backend..ast..Enum$GT$17h5d077940ecb35b3cE.llvm.12880930886263463172', symObjAddr: 0xADC0, symBinAddr: 0xD1690, symSize: 0x1B0 }
  - { offsetInCU: 0x2F806, offset: 0x487D71, size: 0x8, addend: 0x0, symName: '__ZN4core3ptr53drop_in_place$LT$$u5b$syn..item..ForeignItem$u5d$$GT$17h5be1c97c7b540dfbE', symObjAddr: 0xAF70, symBinAddr: 0xD1840, symSize: 0x370 }
  - { offsetInCU: 0x300A0, offset: 0x48860B, size: 0x8, addend: 0x0, symName: '__ZN4core3ptr54drop_in_place$LT$wasm_bindgen_backend..ast..Export$GT$17hfcc4406104164a5fE.llvm.12880930886263463172', symObjAddr: 0xB2E0, symBinAddr: 0xD1BB0, symSize: 0x1F0 }
  - { offsetInCU: 0x309B5, offset: 0x488F20, size: 0x8, addend: 0x0, symName: '__ZN4core3ptr54drop_in_place$LT$wasm_bindgen_backend..ast..Import$GT$17h93094a83e4e38c23E.llvm.12880930886263463172', symObjAddr: 0xB4D0, symBinAddr: 0xD1DA0, symSize: 0xC0 }
  - { offsetInCU: 0x30E0A, offset: 0x489375, size: 0x8, addend: 0x0, symName: '__ZN4core3ptr54drop_in_place$LT$wasm_bindgen_backend..ast..Struct$GT$17hf7b55b0cfa0397e2E.llvm.12880930886263463172', symObjAddr: 0xB590, symBinAddr: 0xD1E60, symSize: 0x170 }
  - { offsetInCU: 0x3161B, offset: 0x489B86, size: 0x8, addend: 0x0, symName: '__ZN4core3ptr56drop_in_place$LT$wasm_bindgen_backend..ast..Function$GT$17h8a0ea301cc49b7d3E', symObjAddr: 0xB7A0, symBinAddr: 0xD1FD0, symSize: 0x210 }
  - { offsetInCU: 0x31D77, offset: 0x48A2E2, size: 0x8, addend: 0x0, symName: '__ZN4core3ptr57drop_in_place$LT$wasm_bindgen_backend..encode..Export$GT$17h76f276a8ecff6980E.llvm.12880930886263463172', symObjAddr: 0xB9B0, symBinAddr: 0xD21E0, symSize: 0xA0 }
  - { offsetInCU: 0x32165, offset: 0x48A6D0, size: 0x8, addend: 0x0, symName: '__ZN4core3ptr57drop_in_place$LT$wasm_bindgen_backend..encode..Import$GT$17h40fcb84f378412f2E.llvm.12880930886263463172', symObjAddr: 0xBA50, symBinAddr: 0xD2280, symSize: 0xA0 }
  - { offsetInCU: 0x324A9, offset: 0x48AA14, size: 0x8, addend: 0x0, symName: '__ZN4core3ptr58drop_in_place$LT$alloc..vec..Vec$LT$syn..expr..Arm$GT$$GT$17hce51b4484b4c798bE', symObjAddr: 0xBB90, symBinAddr: 0xD2320, symSize: 0xD0 }
  - { offsetInCU: 0x328A6, offset: 0x48AE11, size: 0x8, addend: 0x0, symName: '__ZN4core3ptr58drop_in_place$LT$wasm_bindgen_backend..ast..ImportKind$GT$17h35d923510943147dE.llvm.12880930886263463172', symObjAddr: 0xBC60, symBinAddr: 0xD23F0, symSize: 0x810 }
  - { offsetInCU: 0x34AA3, offset: 0x48D00E, size: 0x8, addend: 0x0, symName: '__ZN4core3ptr58drop_in_place$LT$wasm_bindgen_backend..ast..MethodKind$GT$17h4d5fe4e64c683dcfE', symObjAddr: 0xC470, symBinAddr: 0xD2C00, symSize: 0x50 }
  - { offsetInCU: 0x34BDD, offset: 0x48D148, size: 0x8, addend: 0x0, symName: '__ZN4core3ptr59drop_in_place$LT$alloc..boxed..Box$LT$syn..pat..Pat$GT$$GT$17h30d5ee147b164acbE.llvm.12880930886263463172', symObjAddr: 0xC4C0, symBinAddr: 0xD2C50, symSize: 0x50 }
  - { offsetInCU: 0x34D36, offset: 0x48D2A1, size: 0x8, addend: 0x0, symName: '__ZN4core3ptr59drop_in_place$LT$alloc..boxed..Box$LT$syn..ty..Type$GT$$GT$17haae06f26280bf4e6E', symObjAddr: 0xC510, symBinAddr: 0xD2CA0, symSize: 0x50 }
  - { offsetInCU: 0x34E8F, offset: 0x48D3FA, size: 0x8, addend: 0x0, symName: '__ZN4core3ptr59drop_in_place$LT$alloc..vec..Vec$LT$syn..item..Item$GT$$GT$17h0907ff77d15b5c06E', symObjAddr: 0xC560, symBinAddr: 0xD2CF0, symSize: 0xD0 }
  - { offsetInCU: 0x35156, offset: 0x48D6C1, size: 0x8, addend: 0x0, symName: '__ZN4core3ptr59drop_in_place$LT$alloc..vec..Vec$LT$syn..path..Path$GT$$GT$17h2a672574a76feb37E', symObjAddr: 0xC630, symBinAddr: 0xD2DC0, symSize: 0xD0 }
  - { offsetInCU: 0x353DF, offset: 0x48D94A, size: 0x8, addend: 0x0, symName: '__ZN4core3ptr59drop_in_place$LT$wasm_bindgen_backend..ast..StructField$GT$17he630fb303b0008eaE', symObjAddr: 0xC700, symBinAddr: 0xD2E90, symSize: 0x1A0 }
  - { offsetInCU: 0x35BD8, offset: 0x48E143, size: 0x8, addend: 0x0, symName: '__ZN4core3ptr60drop_in_place$LT$wasm_bindgen_backend..error..Diagnostic$GT$17h223cea83bc38df07E.llvm.12880930886263463172', symObjAddr: 0xC930, symBinAddr: 0xD3030, symSize: 0x150 }
  - { offsetInCU: 0x36072, offset: 0x48E5DD, size: 0x8, addend: 0x0, symName: '__ZN4core3ptr61drop_in_place$LT$alloc..boxed..Box$LT$syn..expr..Expr$GT$$GT$17h1e496f1f4b08cb77E', symObjAddr: 0xCA80, symBinAddr: 0xD3180, symSize: 0x50 }
  - { offsetInCU: 0x361CB, offset: 0x48E736, size: 0x8, addend: 0x0, symName: '__ZN4core3ptr61drop_in_place$LT$alloc..boxed..Box$LT$syn..path..Path$GT$$GT$17heba696b91bed636eE', symObjAddr: 0xCAD0, symBinAddr: 0xD31D0, symSize: 0x100 }
  - { offsetInCU: 0x366EB, offset: 0x48EC56, size: 0x8, addend: 0x0, symName: '__ZN4core3ptr61drop_in_place$LT$syn..path..ParenthesizedGenericArguments$GT$17hc98199b96e5adaa6E', symObjAddr: 0xCBD0, symBinAddr: 0xD32D0, symSize: 0x170 }
  - { offsetInCU: 0x36D26, offset: 0x48F291, size: 0x8, addend: 0x0, symName: '__ZN4core3ptr61drop_in_place$LT$wasm_bindgen_backend..encode..ImportKind$GT$17hf21076f6d9085642E.llvm.12880930886263463172', symObjAddr: 0xCD40, symBinAddr: 0xD3440, symSize: 0xC0 }
  - { offsetInCU: 0x3715F, offset: 0x48F6CA, size: 0x8, addend: 0x0, symName: '__ZN4core3ptr62drop_in_place$LT$alloc..boxed..Box$LT$syn..data..Field$GT$$GT$17hcfb82cc8c6f90230E', symObjAddr: 0xCE00, symBinAddr: 0xD3500, symSize: 0x50 }
  - { offsetInCU: 0x372D7, offset: 0x48F842, size: 0x8, addend: 0x0, symName: '__ZN4core3ptr62drop_in_place$LT$alloc..boxed..Box$LT$syn..item..FnArg$GT$$GT$17h32c8c87158ae22fbE', symObjAddr: 0xCE50, symBinAddr: 0xD3550, symSize: 0x60 }
  - { offsetInCU: 0x3744D, offset: 0x48F9B8, size: 0x8, addend: 0x0, symName: '__ZN4core3ptr62drop_in_place$LT$alloc..boxed..Box$LT$syn..stmt..Block$GT$$GT$17h68a80deb35126925E', symObjAddr: 0xCEB0, symBinAddr: 0xD35B0, symSize: 0xE0 }
  - { offsetInCU: 0x37866, offset: 0x48FDD1, size: 0x8, addend: 0x0, symName: '__ZN4core3ptr62drop_in_place$LT$alloc..vec..Vec$LT$proc_macro2..Ident$GT$$GT$17h0e6b361bb15b8e82E', symObjAddr: 0xCF90, symBinAddr: 0xD3690, symSize: 0x90 }
  - { offsetInCU: 0x37B89, offset: 0x4900F4, size: 0x8, addend: 0x0, symName: '__ZN4core3ptr62drop_in_place$LT$alloc..vec..Vec$LT$std..path..PathBuf$GT$$GT$17h06083792ae01e4f6E', symObjAddr: 0xD020, symBinAddr: 0xD3720, symSize: 0x90 }
  - { offsetInCU: 0x37E39, offset: 0x4903A4, size: 0x8, addend: 0x0, symName: '__ZN4core3ptr62drop_in_place$LT$syn..path..AngleBracketedGenericArguments$GT$17hf0ee58be2a40edd6E', symObjAddr: 0xD0B0, symBinAddr: 0xD37B0, symSize: 0x120 }
  - { offsetInCU: 0x382BF, offset: 0x49082A, size: 0x8, addend: 0x0, symName: '__ZN4core3ptr63drop_in_place$LT$alloc..vec..Vec$LT$syn..item..ImplItem$GT$$GT$17hde4c2cd5355880beE', symObjAddr: 0xD1D0, symBinAddr: 0xD38D0, symSize: 0x80 }
  - { offsetInCU: 0x38577, offset: 0x490AE2, size: 0x8, addend: 0x0, symName: '__ZN4core3ptr64drop_in_place$LT$alloc..boxed..Box$LT$syn..data..Variant$GT$$GT$17h8b8e96691f18e17bE', symObjAddr: 0xD250, symBinAddr: 0xD3950, symSize: 0x50 }
  - { offsetInCU: 0x386D0, offset: 0x490C3B, size: 0x8, addend: 0x0, symName: '__ZN4core3ptr64drop_in_place$LT$alloc..boxed..Box$LT$syn..item..UseTree$GT$$GT$17h26418a9cd7d36e93E', symObjAddr: 0xD2A0, symBinAddr: 0xD39A0, symSize: 0x50 }
  - { offsetInCU: 0x38848, offset: 0x490DB3, size: 0x8, addend: 0x0, symName: '__ZN4core3ptr64drop_in_place$LT$alloc..boxed..Box$LT$syn..pat..FieldPat$GT$$GT$17h5348c67f94858891E', symObjAddr: 0xD2F0, symBinAddr: 0xD39F0, symSize: 0x140 }
  - { offsetInCU: 0x38F12, offset: 0x49147D, size: 0x8, addend: 0x0, symName: '__ZN4core3ptr64drop_in_place$LT$alloc..boxed..Box$LT$syn..ty..BareFnArg$GT$$GT$17h4a72b13a3e189d87E', symObjAddr: 0xD430, symBinAddr: 0xD3B30, symSize: 0x140 }
  - { offsetInCU: 0x394E3, offset: 0x491A4E, size: 0x8, addend: 0x0, symName: '__ZN4core3ptr64drop_in_place$LT$alloc..vec..Vec$LT$proc_macro2..Literal$GT$$GT$17h73f237f3303b2c76E.llvm.12880930886263463172', symObjAddr: 0xD570, symBinAddr: 0xD3C70, symSize: 0x90 }
  - { offsetInCU: 0x397D9, offset: 0x491D44, size: 0x8, addend: 0x0, symName: '__ZN4core3ptr64drop_in_place$LT$alloc..vec..Vec$LT$syn..attr..Attribute$GT$$GT$17hf5a15f175c4e81ceE.llvm.12880930886263463172', symObjAddr: 0xD600, symBinAddr: 0xD3D00, symSize: 0xD0 }
  - { offsetInCU: 0x39AD4, offset: 0x49203F, size: 0x8, addend: 0x0, symName: '__ZN4core3ptr64drop_in_place$LT$alloc..vec..Vec$LT$syn..item..TraitItem$GT$$GT$17h2b3a24b0263efae9E', symObjAddr: 0xD6D0, symBinAddr: 0xD3DD0, symSize: 0x80 }
  - { offsetInCU: 0x39D8C, offset: 0x4922F7, size: 0x8, addend: 0x0, symName: '__ZN4core3ptr65drop_in_place$LT$$LP$syn..item..FnArg$C$syn..token..Comma$RP$$GT$17h8f62ddef15590022E', symObjAddr: 0xD750, symBinAddr: 0xD3E50, symSize: 0x20 }
  - { offsetInCU: 0x39DC8, offset: 0x492333, size: 0x8, addend: 0x0, symName: '__ZN4core3ptr65drop_in_place$LT$alloc..vec..Vec$LT$alloc..string..String$GT$$GT$17hda4beed7e2f18a56E.llvm.12880930886263463172', symObjAddr: 0xD770, symBinAddr: 0xD3E70, symSize: 0x90 }
  - { offsetInCU: 0x3A0A6, offset: 0x492611, size: 0x8, addend: 0x0, symName: '__ZN4core3ptr65drop_in_place$LT$alloc..vec..Vec$LT$proc_macro..TokenTree$GT$$GT$17h04383c614e3ab1fcE.llvm.12880930886263463172', symObjAddr: 0xD800, symBinAddr: 0xD3F00, symSize: 0x110 }
  - { offsetInCU: 0x3A4B8, offset: 0x492A23, size: 0x8, addend: 0x0, symName: '__ZN4core3ptr65drop_in_place$LT$core..option..Option$LT$syn..expr..Label$GT$$GT$17h5b07172e6de7fafaE', symObjAddr: 0xD910, symBinAddr: 0xD4010, symSize: 0x30 }
  - { offsetInCU: 0x3A5F2, offset: 0x492B5D, size: 0x8, addend: 0x0, symName: '__ZN4core3ptr65drop_in_place$LT$core..option..Option$LT$syn..stmt..Block$GT$$GT$17h8a0721d11f066fccE', symObjAddr: 0xD940, symBinAddr: 0xD4040, symSize: 0xD0 }
  - { offsetInCU: 0x3A905, offset: 0x492E70, size: 0x8, addend: 0x0, symName: '__ZN4core3ptr66drop_in_place$LT$alloc..vec..Vec$LT$proc_macro2..TokenTree$GT$$GT$17hb55611d0f19108beE', symObjAddr: 0xDA10, symBinAddr: 0xD4110, symSize: 0xC0 }
  - { offsetInCU: 0x3ABDD, offset: 0x493148, size: 0x8, addend: 0x0, symName: '__ZN4core3ptr66drop_in_place$LT$alloc..vec..Vec$LT$syn..item..ForeignItem$GT$$GT$17h2cd4f2c1296edbc8E', symObjAddr: 0xDAD0, symBinAddr: 0xD41D0, symSize: 0x80 }
  - { offsetInCU: 0x3AE95, offset: 0x493400, size: 0x8, addend: 0x0, symName: '__ZN4core3ptr66drop_in_place$LT$wasm_bindgen_backend..ast..ImportFunctionKind$GT$17h2a3c4600d5f16d3aE', symObjAddr: 0xDC10, symBinAddr: 0xD4250, symSize: 0x90 }
  - { offsetInCU: 0x3B107, offset: 0x493672, size: 0x8, addend: 0x0, symName: '__ZN4core3ptr67drop_in_place$LT$$LP$syn..pat..FieldPat$C$syn..token..Comma$RP$$GT$17h5ad91f48c910a36eE.llvm.12880930886263463172', symObjAddr: 0xDCA0, symBinAddr: 0xD42E0, symSize: 0x120 }
  - { offsetInCU: 0x3B69C, offset: 0x493C07, size: 0x8, addend: 0x0, symName: '__ZN4core3ptr67drop_in_place$LT$$LP$syn..ty..BareFnArg$C$syn..token..Comma$RP$$GT$17hed632e3929bd3517E.llvm.12880930886263463172', symObjAddr: 0xDDC0, symBinAddr: 0xD4400, symSize: 0x110 }
  - { offsetInCU: 0x3BB1A, offset: 0x494085, size: 0x8, addend: 0x0, symName: '__ZN4core3ptr67drop_in_place$LT$alloc..boxed..Box$LT$syn..expr..FieldValue$GT$$GT$17h4f90b5bdfa2ac8f9E', symObjAddr: 0xDED0, symBinAddr: 0xD4510, symSize: 0x140 }
  - { offsetInCU: 0x3C08D, offset: 0x4945F8, size: 0x8, addend: 0x0, symName: '__ZN4core3ptr68drop_in_place$LT$alloc..boxed..Box$LT$syn..path..PathSegment$GT$$GT$17he4977659d94b77d4E', symObjAddr: 0xE010, symBinAddr: 0xD4650, symSize: 0xF0 }
  - { offsetInCU: 0x3C4CD, offset: 0x494A38, size: 0x8, addend: 0x0, symName: '__ZN4core3ptr68drop_in_place$LT$alloc..vec..Vec$LT$proc_macro2..TokenStream$GT$$GT$17h50bdc014fb29dd04E.llvm.12880930886263463172', symObjAddr: 0xE100, symBinAddr: 0xD4740, symSize: 0xC0 }
  - { offsetInCU: 0x3C7A5, offset: 0x494D10, size: 0x8, addend: 0x0, symName: '__ZN4core3ptr69drop_in_place$LT$core..option..Option$LT$syn..stmt..LocalInit$GT$$GT$17h19fd5bb4a769c6d9E', symObjAddr: 0xE1C0, symBinAddr: 0xD4800, symSize: 0xC0 }
  - { offsetInCU: 0x3CAC9, offset: 0x495034, size: 0x8, addend: 0x0, symName: '__ZN4core3ptr70drop_in_place$LT$$LP$syn..expr..FieldValue$C$syn..token..Comma$RP$$GT$17ha36807f083f94649E.llvm.12880930886263463172', symObjAddr: 0xE280, symBinAddr: 0xD48C0, symSize: 0x110 }
  - { offsetInCU: 0x3CF08, offset: 0x495473, size: 0x8, addend: 0x0, symName: '__ZN4core3ptr70drop_in_place$LT$core..option..Option$LT$syn..ty..BareVariadic$GT$$GT$17h0a1bd3d5468840beE', symObjAddr: 0xE390, symBinAddr: 0xD49D0, symSize: 0x100 }
  - { offsetInCU: 0x3D367, offset: 0x4958D2, size: 0x8, addend: 0x0, symName: '__ZN4core3ptr72drop_in_place$LT$alloc..boxed..Box$LT$syn..path..GenericArgument$GT$$GT$17ha0c09ac18b7d41b5E.llvm.12880930886263463172', symObjAddr: 0xE490, symBinAddr: 0xD4AD0, symSize: 0x190 }
  - { offsetInCU: 0x3D82F, offset: 0x495D9A, size: 0x8, addend: 0x0, symName: '__ZN4core3ptr73drop_in_place$LT$$LP$syn..path..PathSegment$C$syn..token..PathSep$RP$$GT$17h68c0a14afccb8036E.llvm.12880930886263463172', symObjAddr: 0xE620, symBinAddr: 0xD4C60, symSize: 0xD0 }
  - { offsetInCU: 0x3DAF2, offset: 0x49605D, size: 0x8, addend: 0x0, symName: '__ZN4core3ptr73drop_in_place$LT$alloc..boxed..Box$LT$syn..generics..GenericParam$GT$$GT$17h20b807de2b91e985E', symObjAddr: 0xE6F0, symBinAddr: 0xD4D30, symSize: 0x80 }
  - { offsetInCU: 0x3DC68, offset: 0x4961D3, size: 0x8, addend: 0x0, symName: '__ZN4core3ptr75drop_in_place$LT$$LP$syn..path..GenericArgument$C$syn..token..Comma$RP$$GT$17hb24b5c31051700b1E.llvm.12880930886263463172', symObjAddr: 0xE770, symBinAddr: 0xD4DB0, symSize: 0x180 }
  - { offsetInCU: 0x3DFF6, offset: 0x496561, size: 0x8, addend: 0x0, symName: '__ZN4core3ptr75drop_in_place$LT$alloc..boxed..Box$LT$syn..generics..TypeParamBound$GT$$GT$17h1da96ef6f4e863ddE', symObjAddr: 0xE8F0, symBinAddr: 0xD4F30, symSize: 0x180 }
  - { offsetInCU: 0x3E5C0, offset: 0x496B2B, size: 0x8, addend: 0x0, symName: '__ZN4core3ptr75drop_in_place$LT$alloc..boxed..Box$LT$syn..generics..WherePredicate$GT$$GT$17hcd8c0d78aceb1aacE', symObjAddr: 0xEA70, symBinAddr: 0xD50B0, symSize: 0x80 }
  - { offsetInCU: 0x3E857, offset: 0x496DC2, size: 0x8, addend: 0x0, symName: '__ZN4core3ptr76drop_in_place$LT$$LP$syn..generics..GenericParam$C$syn..token..Comma$RP$$GT$17hbf100343e955311bE.llvm.12880930886263463172', symObjAddr: 0xEAF0, symBinAddr: 0xD5130, symSize: 0x40 }
  - { offsetInCU: 0x3E893, offset: 0x496DFE, size: 0x8, addend: 0x0, symName: '__ZN4core3ptr77drop_in_place$LT$$LP$syn..generics..TypeParamBound$C$syn..token..Plus$RP$$GT$17hc8452f44ea555980E.llvm.12880930886263463172', symObjAddr: 0xEB30, symBinAddr: 0xD5170, symSize: 0x180 }
  - { offsetInCU: 0x3ED2F, offset: 0x49729A, size: 0x8, addend: 0x0, symName: '__ZN4core3ptr78drop_in_place$LT$$LP$syn..generics..WherePredicate$C$syn..token..Comma$RP$$GT$17hed19daae21e28cf4E', symObjAddr: 0xECB0, symBinAddr: 0xD52F0, symSize: 0x60 }
  - { offsetInCU: 0x3EEE9, offset: 0x497454, size: 0x8, addend: 0x0, symName: '__ZN4core3ptr78drop_in_place$LT$alloc..vec..Vec$LT$wasm_bindgen_backend..encode..Enum$GT$$GT$17h07c73c21d4bce4cfE.llvm.12880930886263463172', symObjAddr: 0xED10, symBinAddr: 0xD5350, symSize: 0x130 }
  - { offsetInCU: 0x3F4F1, offset: 0x497A5C, size: 0x8, addend: 0x0, symName: '__ZN4core3ptr80drop_in_place$LT$alloc..vec..Vec$LT$wasm_bindgen_backend..encode..Export$GT$$GT$17h05c7709818fb1a91E', symObjAddr: 0xEE40, symBinAddr: 0xD5480, symSize: 0x130 }
  - { offsetInCU: 0x3FB13, offset: 0x49807E, size: 0x8, addend: 0x0, symName: '__ZN4core3ptr80drop_in_place$LT$alloc..vec..Vec$LT$wasm_bindgen_backend..encode..Import$GT$$GT$17hb3b76d71faa2ecdcE', symObjAddr: 0xEF70, symBinAddr: 0xD55B0, symSize: 0x130 }
  - { offsetInCU: 0x3FFF6, offset: 0x498561, size: 0x8, addend: 0x0, symName: '__ZN4core3ptr80drop_in_place$LT$alloc..vec..Vec$LT$wasm_bindgen_backend..encode..Struct$GT$$GT$17h03a715397692dea7E.llvm.12880930886263463172', symObjAddr: 0xF0A0, symBinAddr: 0xD56E0, symSize: 0x130 }
  - { offsetInCU: 0x405A1, offset: 0x498B0C, size: 0x8, addend: 0x0, symName: '__ZN4core3ptr85drop_in_place$LT$alloc..vec..Vec$LT$wasm_bindgen_backend..encode..EnumVariant$GT$$GT$17he8a878d951581abeE.llvm.12880930886263463172', symObjAddr: 0xF1D0, symBinAddr: 0xD5810, symSize: 0x90 }
  - { offsetInCU: 0x40868, offset: 0x498DD3, size: 0x8, addend: 0x0, symName: '__ZN4core3ptr85drop_in_place$LT$alloc..vec..Vec$LT$wasm_bindgen_backend..encode..StructField$GT$$GT$17hc4c389191e4c30dbE.llvm.12880930886263463172', symObjAddr: 0xF260, symBinAddr: 0xD58A0, symSize: 0x90 }
  - { offsetInCU: 0x40B2F, offset: 0x49909A, size: 0x8, addend: 0x0, symName: '__ZN4core3ptr86drop_in_place$LT$$LP$syn..token..If$C$alloc..boxed..Box$LT$syn..expr..Expr$GT$$RP$$GT$17h01a2a5f554372710E', symObjAddr: 0xF2F0, symBinAddr: 0xD5930, symSize: 0x50 }
  - { offsetInCU: 0x40D42, offset: 0x4992AD, size: 0x8, addend: 0x0, symName: '__ZN4core3ptr86drop_in_place$LT$syn..punctuated..Punctuated$LT$syn..pat..Pat$C$syn..token..Or$GT$$GT$17h93831ed2944e749dE', symObjAddr: 0xF340, symBinAddr: 0xD5980, symSize: 0x120 }
  - { offsetInCU: 0x411DB, offset: 0x499746, size: 0x8, addend: 0x0, symName: '__ZN4core3ptr87drop_in_place$LT$$LP$alloc..boxed..Box$LT$syn..pat..Pat$GT$$C$syn..token..Colon$RP$$GT$17h618b651584823b63E', symObjAddr: 0xF460, symBinAddr: 0xD5AA0, symSize: 0x50 }
  - { offsetInCU: 0x41353, offset: 0x4998BE, size: 0x8, addend: 0x0, symName: '__ZN4core3ptr87drop_in_place$LT$core..option..Option$LT$alloc..boxed..Box$LT$syn..ty..Type$GT$$GT$$GT$17h8eb6b9b10cf34482E', symObjAddr: 0xF4B0, symBinAddr: 0xD5AF0, symSize: 0x50 }
  - { offsetInCU: 0x414C3, offset: 0x499A2E, size: 0x8, addend: 0x0, symName: '__ZN4core3ptr89drop_in_place$LT$core..option..Option$LT$alloc..boxed..Box$LT$syn..expr..Expr$GT$$GT$$GT$17hadda1967b0b98c14E', symObjAddr: 0xF500, symBinAddr: 0xD5B40, symSize: 0x50 }
  - { offsetInCU: 0x41633, offset: 0x499B9E, size: 0x8, addend: 0x0, symName: '__ZN4core3ptr89drop_in_place$LT$syn..punctuated..Punctuated$LT$syn..ty..Type$C$syn..token..Comma$GT$$GT$17hca876f3322ceb0ecE.llvm.12880930886263463172', symObjAddr: 0xF550, symBinAddr: 0xD5B90, symSize: 0x120 }
  - { offsetInCU: 0x41AB5, offset: 0x49A020, size: 0x8, addend: 0x0, symName: '__ZN4core3ptr90drop_in_place$LT$core..option..Option$LT$alloc..boxed..Box$LT$syn..data..Field$GT$$GT$$GT$17h1a0c4a07233e2867E', symObjAddr: 0xF670, symBinAddr: 0xD5CB0, symSize: 0x50 }
  - { offsetInCU: 0x41C25, offset: 0x49A190, size: 0x8, addend: 0x0, symName: '__ZN4core3ptr90drop_in_place$LT$core..option..Option$LT$alloc..boxed..Box$LT$syn..item..FnArg$GT$$GT$$GT$17he3c526df51628e84E', symObjAddr: 0xF6C0, symBinAddr: 0xD5D00, symSize: 0x50 }
  - { offsetInCU: 0x41E11, offset: 0x49A37C, size: 0x8, addend: 0x0, symName: '__ZN4core3ptr91drop_in_place$LT$syn..punctuated..Punctuated$LT$syn..expr..Expr$C$syn..token..Comma$GT$$GT$17h48360bdc222b3963E', symObjAddr: 0xF710, symBinAddr: 0xD5D50, symSize: 0x120 }
  - { offsetInCU: 0x422A6, offset: 0x49A811, size: 0x8, addend: 0x0, symName: '__ZN4core3ptr92drop_in_place$LT$core..option..Option$LT$$LP$syn..token..As$C$proc_macro2..Ident$RP$$GT$$GT$17h43b03dcd33ccb5f9E', symObjAddr: 0xF830, symBinAddr: 0xD5E70, symSize: 0x30 }
  - { offsetInCU: 0x423C1, offset: 0x49A92C, size: 0x8, addend: 0x0, symName: '__ZN4core3ptr92drop_in_place$LT$syn..punctuated..Punctuated$LT$syn..data..Field$C$syn..token..Comma$GT$$GT$17hceaf22dce0651f3aE', symObjAddr: 0xF860, symBinAddr: 0xD5EA0, symSize: 0x120 }
  - { offsetInCU: 0x42847, offset: 0x49ADB2, size: 0x8, addend: 0x0, symName: '__ZN4core3ptr92drop_in_place$LT$syn..punctuated..Punctuated$LT$syn..item..FnArg$C$syn..token..Comma$GT$$GT$17he72d3f29bcc0d838E', symObjAddr: 0xF980, symBinAddr: 0xD5FC0, symSize: 0x150 }
  - { offsetInCU: 0x42D92, offset: 0x49B2FD, size: 0x8, addend: 0x0, symName: '__ZN4core3ptr94drop_in_place$LT$syn..punctuated..Punctuated$LT$syn..data..Variant$C$syn..token..Comma$GT$$GT$17hbb93e7737f62c10eE', symObjAddr: 0xFB50, symBinAddr: 0xD6110, symSize: 0x120 }
  - { offsetInCU: 0x432A3, offset: 0x49B80E, size: 0x8, addend: 0x0, symName: '__ZN4core3ptr94drop_in_place$LT$syn..punctuated..Punctuated$LT$syn..pat..FieldPat$C$syn..token..Comma$GT$$GT$17h1e553a25ac0bc4e1E', symObjAddr: 0xFC70, symBinAddr: 0xD6230, symSize: 0xF0 }
  - { offsetInCU: 0x43638, offset: 0x49BBA3, size: 0x8, addend: 0x0, symName: '__ZN4core3ptr94drop_in_place$LT$syn..punctuated..Punctuated$LT$syn..ty..BareFnArg$C$syn..token..Comma$GT$$GT$17ha469bb07bab88749E', symObjAddr: 0xFD60, symBinAddr: 0xD6320, symSize: 0xF0 }
  - { offsetInCU: 0x43953, offset: 0x49BEBE, size: 0x8, addend: 0x0, symName: '__ZN4core3ptr95drop_in_place$LT$core..option..Option$LT$$LP$proc_macro2..Ident$C$syn..token..Colon$RP$$GT$$GT$17h2ba7373a8e8fcb5fE.llvm.12880930886263463172', symObjAddr: 0xFE50, symBinAddr: 0xD6410, symSize: 0x30 }
  - { offsetInCU: 0x43A6E, offset: 0x49BFD9, size: 0x8, addend: 0x0, symName: '__ZN4core3ptr96drop_in_place$LT$core..option..Option$LT$alloc..boxed..Box$LT$syn..path..PathSegment$GT$$GT$$GT$17h3fb622bd55682ae2E', symObjAddr: 0xFE80, symBinAddr: 0xD6440, symSize: 0xA0 }
  - { offsetInCU: 0x43D69, offset: 0x49C2D4, size: 0x8, addend: 0x0, symName: '__ZN4core3ptr97drop_in_place$LT$syn..punctuated..Punctuated$LT$syn..expr..FieldValue$C$syn..token..Comma$GT$$GT$17ha2df63eb673a5104E', symObjAddr: 0xFF20, symBinAddr: 0xD64E0, symSize: 0xF0 }
  - { offsetInCU: 0x4413A, offset: 0x49C6A5, size: 0x8, addend: 0x0, symName: '__ZN4core3ptr98drop_in_place$LT$syn..punctuated..Punctuated$LT$syn..lifetime..Lifetime$C$syn..token..Plus$GT$$GT$17h937540fc49049303E.llvm.12880930886263463172', symObjAddr: 0x10010, symBinAddr: 0xD65D0, symSize: 0xD0 }
  - { offsetInCU: 0x49D65, offset: 0x4A22D0, size: 0x8, addend: 0x0, symName: '__ZN48_$LT$T$u20$as$u20$core..clone..CloneToUninit$GT$15clone_to_uninit17hd1e8615051781b47E', symObjAddr: 0x100, symBinAddr: 0xC69D0, symSize: 0x330 }
  - { offsetInCU: 0x4CE0F, offset: 0x4A537A, size: 0x8, addend: 0x0, symName: '__ZN97_$LT$alloc..vec..Vec$LT$T$C$A$GT$$u20$as$u20$alloc..vec..spec_extend..SpecExtend$LT$T$C$I$GT$$GT$11spec_extend17h34c750514e804fb9E', symObjAddr: 0x117C0, symBinAddr: 0xD6E20, symSize: 0x340 }
  - { offsetInCU: 0x4DC6F, offset: 0x4A61DA, size: 0x8, addend: 0x0, symName: '__ZN67_$LT$alloc..vec..Vec$LT$T$C$A$GT$$u20$as$u20$core..clone..Clone$GT$5clone17h9d51ba213ce3b4ddE', symObjAddr: 0x10170, symBinAddr: 0xD66A0, symSize: 0x130 }
  - { offsetInCU: 0x4E03E, offset: 0x4A65A9, size: 0x8, addend: 0x0, symName: '__ZN67_$LT$alloc..vec..Vec$LT$T$C$A$GT$$u20$as$u20$core..clone..Clone$GT$5clone17he5b4ffd1225b1d7aE', symObjAddr: 0x102A0, symBinAddr: 0xD67D0, symSize: 0x140 }
  - { offsetInCU: 0x4F474, offset: 0x4A79DF, size: 0x8, addend: 0x0, symName: '__ZN70_$LT$alloc..vec..Vec$LT$T$C$A$GT$$u20$as$u20$core..ops..drop..Drop$GT$4drop17h0f7248d97c9f3f33E', symObjAddr: 0x103E0, symBinAddr: 0xD6910, symSize: 0xF0 }
  - { offsetInCU: 0x4F774, offset: 0x4A7CDF, size: 0x8, addend: 0x0, symName: '__ZN70_$LT$alloc..vec..Vec$LT$T$C$A$GT$$u20$as$u20$core..ops..drop..Drop$GT$4drop17h4bf5e1d6eca327cfE', symObjAddr: 0x10840, symBinAddr: 0xD6A00, symSize: 0x170 }
  - { offsetInCU: 0x4FC13, offset: 0x4A817E, size: 0x8, addend: 0x0, symName: '__ZN70_$LT$alloc..vec..Vec$LT$T$C$A$GT$$u20$as$u20$core..ops..drop..Drop$GT$4drop17haa92748fa2bda253E', symObjAddr: 0x10DB0, symBinAddr: 0xD6B70, symSize: 0x100 }
  - { offsetInCU: 0x5001C, offset: 0x4A8587, size: 0x8, addend: 0x0, symName: '__ZN70_$LT$alloc..vec..Vec$LT$T$C$A$GT$$u20$as$u20$core..ops..drop..Drop$GT$4drop17hb28b5cc61b0a3cf1E', symObjAddr: 0x10F00, symBinAddr: 0xD6C70, symSize: 0xB0 }
  - { offsetInCU: 0x5007E, offset: 0x4A85E9, size: 0x8, addend: 0x0, symName: '__ZN70_$LT$alloc..vec..Vec$LT$T$C$A$GT$$u20$as$u20$core..ops..drop..Drop$GT$4drop17hb9502f451f6ee8e8E', symObjAddr: 0x10FB0, symBinAddr: 0xD6D20, symSize: 0x100 }
  - { offsetInCU: 0x51A24, offset: 0x4A9F8F, size: 0x8, addend: 0x0, symName: '__ZN98_$LT$alloc..vec..Vec$LT$T$GT$$u20$as$u20$alloc..vec..spec_from_iter..SpecFromIter$LT$T$C$I$GT$$GT$9from_iter17h039a49f42d2ed8b1E', symObjAddr: 0x11C20, symBinAddr: 0xD7160, symSize: 0x130 }
  - { offsetInCU: 0x51F21, offset: 0x4AA48C, size: 0x8, addend: 0x0, symName: '__ZN98_$LT$alloc..vec..Vec$LT$T$GT$$u20$as$u20$alloc..vec..spec_from_iter..SpecFromIter$LT$T$C$I$GT$$GT$9from_iter17h1ecfe20733f7ef18E', symObjAddr: 0x11E90, symBinAddr: 0xD7290, symSize: 0x420 }
  - { offsetInCU: 0x52635, offset: 0x4AABA0, size: 0x8, addend: 0x0, symName: '__ZN98_$LT$alloc..vec..Vec$LT$T$GT$$u20$as$u20$alloc..vec..spec_from_iter..SpecFromIter$LT$T$C$I$GT$$GT$9from_iter17h389774fb3b10ff9cE', symObjAddr: 0x122B0, symBinAddr: 0xD76B0, symSize: 0x120 }
  - { offsetInCU: 0x529A9, offset: 0x4AAF14, size: 0x8, addend: 0x0, symName: '__ZN98_$LT$alloc..vec..Vec$LT$T$GT$$u20$as$u20$alloc..vec..spec_from_iter..SpecFromIter$LT$T$C$I$GT$$GT$9from_iter17h51d227beda00528eE', symObjAddr: 0x123D0, symBinAddr: 0xD77D0, symSize: 0x130 }
  - { offsetInCU: 0x52E98, offset: 0x4AB403, size: 0x8, addend: 0x0, symName: '__ZN98_$LT$alloc..vec..Vec$LT$T$GT$$u20$as$u20$alloc..vec..spec_from_iter..SpecFromIter$LT$T$C$I$GT$$GT$9from_iter17h557c8c04f3cba1e3E', symObjAddr: 0x12500, symBinAddr: 0xD7900, symSize: 0x410 }
  - { offsetInCU: 0x535A5, offset: 0x4ABB10, size: 0x8, addend: 0x0, symName: '__ZN98_$LT$alloc..vec..Vec$LT$T$GT$$u20$as$u20$alloc..vec..spec_from_iter..SpecFromIter$LT$T$C$I$GT$$GT$9from_iter17h6b6a81173057a02dE', symObjAddr: 0x12910, symBinAddr: 0xD7D10, symSize: 0x310 }
  - { offsetInCU: 0x542BF, offset: 0x4AC82A, size: 0x8, addend: 0x0, symName: '__ZN98_$LT$alloc..vec..Vec$LT$T$GT$$u20$as$u20$alloc..vec..spec_from_iter..SpecFromIter$LT$T$C$I$GT$$GT$9from_iter17h9588422b3342f7e4E', symObjAddr: 0x12CE0, symBinAddr: 0xD8020, symSize: 0x120 }
  - { offsetInCU: 0x54633, offset: 0x4ACB9E, size: 0x8, addend: 0x0, symName: '__ZN98_$LT$alloc..vec..Vec$LT$T$GT$$u20$as$u20$alloc..vec..spec_from_iter..SpecFromIter$LT$T$C$I$GT$$GT$9from_iter17h97169c359a375849E', symObjAddr: 0x12E00, symBinAddr: 0xD8140, symSize: 0x130 }
  - { offsetInCU: 0x54B30, offset: 0x4AD09B, size: 0x8, addend: 0x0, symName: '__ZN98_$LT$alloc..vec..Vec$LT$T$GT$$u20$as$u20$alloc..vec..spec_from_iter..SpecFromIter$LT$T$C$I$GT$$GT$9from_iter17ha49bb24ed359d61fE', symObjAddr: 0x12F30, symBinAddr: 0xD8270, symSize: 0x290 }
  - { offsetInCU: 0x553BE, offset: 0x4AD929, size: 0x8, addend: 0x0, symName: '__ZN98_$LT$alloc..vec..Vec$LT$T$GT$$u20$as$u20$alloc..vec..spec_from_iter..SpecFromIter$LT$T$C$I$GT$$GT$9from_iter17hb37bed993aff36c2E', symObjAddr: 0x13300, symBinAddr: 0xD8500, symSize: 0x100 }
  - { offsetInCU: 0x55752, offset: 0x4ADCBD, size: 0x8, addend: 0x0, symName: '__ZN98_$LT$alloc..vec..Vec$LT$T$GT$$u20$as$u20$alloc..vec..spec_from_iter..SpecFromIter$LT$T$C$I$GT$$GT$9from_iter17hb533a888ca71867bE', symObjAddr: 0x13400, symBinAddr: 0xD8600, symSize: 0x2A0 }
  - { offsetInCU: 0x55DAB, offset: 0x4AE316, size: 0x8, addend: 0x0, symName: '__ZN98_$LT$alloc..vec..Vec$LT$T$GT$$u20$as$u20$alloc..vec..spec_from_iter..SpecFromIter$LT$T$C$I$GT$$GT$9from_iter17he5918d7d1981a2bcE', symObjAddr: 0x136A0, symBinAddr: 0xD88A0, symSize: 0x1B0 }
  - { offsetInCU: 0x56610, offset: 0x4AEB7B, size: 0x8, addend: 0x0, symName: '__ZN98_$LT$alloc..vec..Vec$LT$T$GT$$u20$as$u20$alloc..vec..spec_from_iter..SpecFromIter$LT$T$C$I$GT$$GT$9from_iter17he74a96308e6109afE', symObjAddr: 0x13850, symBinAddr: 0xD8A50, symSize: 0x100 }
  - { offsetInCU: 0x569B8, offset: 0x4AEF23, size: 0x8, addend: 0x0, symName: '__ZN98_$LT$alloc..vec..Vec$LT$T$GT$$u20$as$u20$alloc..vec..spec_from_iter..SpecFromIter$LT$T$C$I$GT$$GT$9from_iter17hf20a0bcbdbb1cccdE', symObjAddr: 0x13950, symBinAddr: 0xD8B50, symSize: 0x320 }
  - { offsetInCU: 0x1E, offset: 0x4C37E5, size: 0x8, addend: 0x0, symName: __ZN5alloc7raw_vec11finish_grow17h0c5da3132b99e203E.llvm.8594642666028539978, symObjAddr: 0x0, symBinAddr: 0xD9940, symSize: 0xA0 }
  - { offsetInCU: 0x5BA6, offset: 0x4C936D, size: 0x8, addend: 0x0, symName: __ZN5alloc7raw_vec11finish_grow17h0c5da3132b99e203E.llvm.8594642666028539978, symObjAddr: 0x0, symBinAddr: 0xD9940, symSize: 0xA0 }
  - { offsetInCU: 0x7113, offset: 0x4CA8DA, size: 0x8, addend: 0x0, symName: '__ZN5alloc7raw_vec19RawVec$LT$T$C$A$GT$7reserve21do_reserve_and_handle17h0b913ffa5aa88488E', symObjAddr: 0x9B0, symBinAddr: 0x2AE760, symSize: 0x0 }
  - { offsetInCU: 0x743F, offset: 0x4CAC06, size: 0x8, addend: 0x0, symName: '__ZN5alloc7raw_vec19RawVec$LT$T$C$A$GT$7reserve21do_reserve_and_handle17h0fde61c7cb9c3a52E', symObjAddr: 0xA60, symBinAddr: 0x2AE810, symSize: 0xC0 }
  - { offsetInCU: 0x776D, offset: 0x4CAF34, size: 0x8, addend: 0x0, symName: '__ZN5alloc7raw_vec19RawVec$LT$T$C$A$GT$7reserve21do_reserve_and_handle17h3a787f5cc2d5c615E', symObjAddr: 0xC90, symBinAddr: 0x2AE8D0, symSize: 0x0 }
  - { offsetInCU: 0x7A9B, offset: 0x4CB262, size: 0x8, addend: 0x0, symName: '__ZN5alloc7raw_vec19RawVec$LT$T$C$A$GT$7reserve21do_reserve_and_handle17h3a9f8bd2600979abE', symObjAddr: 0xD50, symBinAddr: 0x2AE990, symSize: 0xC0 }
  - { offsetInCU: 0x7DC9, offset: 0x4CB590, size: 0x8, addend: 0x0, symName: '__ZN5alloc7raw_vec19RawVec$LT$T$C$A$GT$7reserve21do_reserve_and_handle17h5ae2ddef00e87b06E', symObjAddr: 0xF80, symBinAddr: 0x2AEA50, symSize: 0xB0 }
  - { offsetInCU: 0x80F7, offset: 0x4CB8BE, size: 0x8, addend: 0x0, symName: '__ZN5alloc7raw_vec19RawVec$LT$T$C$A$GT$7reserve21do_reserve_and_handle17hb5fa86e9aadcc4fdE', symObjAddr: 0x1030, symBinAddr: 0x2AEB00, symSize: 0xA0 }
  - { offsetInCU: 0x83F0, offset: 0x4CBBB7, size: 0x8, addend: 0x0, symName: '__ZN5alloc7raw_vec19RawVec$LT$T$C$A$GT$7reserve21do_reserve_and_handle17hd95ee4b17d848a90E', symObjAddr: 0x10D0, symBinAddr: 0x2AEBA0, symSize: 0xB0 }
  - { offsetInCU: 0xF4F4, offset: 0x4D2CBB, size: 0x8, addend: 0x0, symName: '__ZN5alloc7raw_vec19RawVec$LT$T$C$A$GT$8grow_one17h11d7b8a01d1c48c9E', symObjAddr: 0x1180, symBinAddr: 0xD99E0, symSize: 0x0 }
  - { offsetInCU: 0xFA1B, offset: 0x4D31E2, size: 0x8, addend: 0x0, symName: '__ZN5alloc7raw_vec19RawVec$LT$T$C$A$GT$8grow_one17h2ff8a51c5192e492E', symObjAddr: 0x1230, symBinAddr: 0xD9A90, symSize: 0xC0 }
  - { offsetInCU: 0xFEEB, offset: 0x4D36B2, size: 0x8, addend: 0x0, symName: '__ZN5alloc7raw_vec19RawVec$LT$T$C$A$GT$8grow_one17h4e101a9ad0e54610E', symObjAddr: 0x12F0, symBinAddr: 0xD9B50, symSize: 0xC0 }
  - { offsetInCU: 0x1022E, offset: 0x4D39F5, size: 0x8, addend: 0x0, symName: '__ZN5alloc7raw_vec19RawVec$LT$T$C$A$GT$8grow_one17hb3a1742c1d72d489E', symObjAddr: 0x13B0, symBinAddr: 0xD9C10, symSize: 0xC0 }
  - { offsetInCU: 0x106FE, offset: 0x4D3EC5, size: 0x8, addend: 0x0, symName: '__ZN5alloc7raw_vec19RawVec$LT$T$C$A$GT$8grow_one17hba866b1875a4e1c4E', symObjAddr: 0x1470, symBinAddr: 0xD9CD0, symSize: 0xC0 }
  - { offsetInCU: 0x10A3F, offset: 0x4D4206, size: 0x8, addend: 0x0, symName: '__ZN5alloc7raw_vec19RawVec$LT$T$C$A$GT$8grow_one17hbc07a620c88435b1E', symObjAddr: 0x1530, symBinAddr: 0xD9D90, symSize: 0xA0 }
  - { offsetInCU: 0x10EEA, offset: 0x4D46B1, size: 0x8, addend: 0x0, symName: '__ZN5alloc7raw_vec19RawVec$LT$T$C$A$GT$8grow_one17hde3fd9a1c3ece848E', symObjAddr: 0x15D0, symBinAddr: 0xD9E30, symSize: 0xB0 }
  - { offsetInCU: 0x147, offset: 0x4D4C30, size: 0x8, addend: 0x0, symName: '__ZN58_$LT$alloc..string..String$u20$as$u20$core..fmt..Write$GT$10write_char17h04bc467bd68a934bE', symObjAddr: 0x2110, symBinAddr: 0xDB660, symSize: 0x140 }
  - { offsetInCU: 0x54C, offset: 0x4D5035, size: 0x8, addend: 0x0, symName: '__ZN58_$LT$alloc..string..String$u20$as$u20$core..fmt..Write$GT$9write_str17h46a93205c3443fbaE', symObjAddr: 0x2250, symBinAddr: 0xDB7A0, symSize: 0x5B }
  - { offsetInCU: 0x40BD, offset: 0x4D8BA6, size: 0x8, addend: 0x0, symName: '__ZN4core3ptr144drop_in_place$LT$core..option..Option$LT$core..result..Result$LT$core..convert..Infallible$C$wasm_bindgen_backend..error..Diagnostic$GT$$GT$$GT$17ha163e71300abbde6E.llvm.2657733087250018863', symObjAddr: 0x1C90, symBinAddr: 0xDB1E0, symSize: 0x150 }
  - { offsetInCU: 0x4594, offset: 0x4D907D, size: 0x8, addend: 0x0, symName: '__ZN4core3ptr42drop_in_place$LT$alloc..string..String$GT$17hdbd8b13b237adbc7E.llvm.2657733087250018863', symObjAddr: 0x1DE0, symBinAddr: 0xDB330, symSize: 0x20 }
  - { offsetInCU: 0x469C, offset: 0x4D9185, size: 0x8, addend: 0x0, symName: '__ZN4core3ptr42drop_in_place$LT$std..io..error..Error$GT$17h647a3da2b9081f4fE', symObjAddr: 0x1E00, symBinAddr: 0xDB350, symSize: 0xA0 }
  - { offsetInCU: 0x4BFC, offset: 0x4D96E5, size: 0x8, addend: 0x0, symName: '__ZN4core3ptr50drop_in_place$LT$proc_macro2..imp..TokenStream$GT$17h2e30c63fc814494fE.llvm.2657733087250018863', symObjAddr: 0x1EA0, symBinAddr: 0xDB3F0, symSize: 0x140 }
  - { offsetInCU: 0x5041, offset: 0x4D9B2A, size: 0x8, addend: 0x0, symName: '__ZN4core3ptr65drop_in_place$LT$alloc..vec..Vec$LT$proc_macro..TokenTree$GT$$GT$17h04383c614e3ab1fcE.llvm.2657733087250018863', symObjAddr: 0x1FE0, symBinAddr: 0xDB530, symSize: 0x110 }
  - { offsetInCU: 0x5AD6, offset: 0x4DA5BF, size: 0x8, addend: 0x0, symName: '__ZN53_$LT$core..fmt..Error$u20$as$u20$core..fmt..Debug$GT$3fmt17h03dc662ab152f3aeE', symObjAddr: 0x20F0, symBinAddr: 0xDB640, symSize: 0x20 }
  - { offsetInCU: 0x6036, offset: 0x4DAB1F, size: 0x8, addend: 0x0, symName: '__ZN102_$LT$core..iter..adapters..map..Map$LT$I$C$F$GT$$u20$as$u20$core..iter..traits..iterator..Iterator$GT$4fold17h071130ed927230dfE', symObjAddr: 0xE0, symBinAddr: 0xD9EE0, symSize: 0x220 }
  - { offsetInCU: 0x67C3, offset: 0x4DB2AC, size: 0x8, addend: 0x0, symName: '__ZN102_$LT$core..iter..adapters..map..Map$LT$I$C$F$GT$$u20$as$u20$core..iter..traits..iterator..Iterator$GT$4fold17h56f977155d88a077E', symObjAddr: 0x4A0, symBinAddr: 0xDA100, symSize: 0x130 }
  - { offsetInCU: 0x6B5A, offset: 0x4DB643, size: 0x8, addend: 0x0, symName: '__ZN102_$LT$core..iter..adapters..map..Map$LT$I$C$F$GT$$u20$as$u20$core..iter..traits..iterator..Iterator$GT$4fold17h836fb4c5fb037be5E', symObjAddr: 0x6B0, symBinAddr: 0xDA230, symSize: 0x210 }
  - { offsetInCU: 0x735C, offset: 0x4DBE45, size: 0x8, addend: 0x0, symName: '__ZN102_$LT$core..iter..adapters..map..Map$LT$I$C$F$GT$$u20$as$u20$core..iter..traits..iterator..Iterator$GT$4fold17ha0bdac304ff6dc5aE', symObjAddr: 0x8C0, symBinAddr: 0xDA440, symSize: 0x370 }
  - { offsetInCU: 0x77B6, offset: 0x4DC29F, size: 0x8, addend: 0x0, symName: '__ZN102_$LT$core..iter..adapters..map..Map$LT$I$C$F$GT$$u20$as$u20$core..iter..traits..iterator..Iterator$GT$4fold17haeee698bc7cecd0cE', symObjAddr: 0xC30, symBinAddr: 0xDA7B0, symSize: 0x220 }
  - { offsetInCU: 0x7D49, offset: 0x4DC832, size: 0x8, addend: 0x0, symName: '__ZN102_$LT$core..iter..adapters..map..Map$LT$I$C$F$GT$$u20$as$u20$core..iter..traits..iterator..Iterator$GT$8try_fold17h220f339a6272d45cE', symObjAddr: 0x1300, symBinAddr: 0xDA9D0, symSize: 0x330 }
  - { offsetInCU: 0x8696, offset: 0x4DD17F, size: 0x8, addend: 0x0, symName: '__ZN102_$LT$core..iter..adapters..map..Map$LT$I$C$F$GT$$u20$as$u20$core..iter..traits..iterator..Iterator$GT$8try_fold17h7352bf052efaced0E', symObjAddr: 0x17B0, symBinAddr: 0xDAD00, symSize: 0x4E0 }
  - { offsetInCU: 0x35, offset: 0x4ED38A, size: 0x8, addend: 0x0, symName: _anon.528a497d0aa2bc031e064d993eb47377.0.llvm.5443014936338143320, symObjAddr: 0x5960, symBinAddr: 0x3397B8, symSize: 0x0 }
  - { offsetInCU: 0x121, offset: 0x4ED476, size: 0x8, addend: 0x0, symName: '__ZN58_$LT$alloc..string..String$u20$as$u20$core..fmt..Write$GT$10write_char17h04bc467bd68a934bE.llvm.5443014936338143320', symObjAddr: 0xA00, symBinAddr: 0xDC1F0, symSize: 0x140 }
  - { offsetInCU: 0x526, offset: 0x4ED87B, size: 0x8, addend: 0x0, symName: '__ZN58_$LT$alloc..string..String$u20$as$u20$core..fmt..Write$GT$9write_str17h46a93205c3443fbaE.llvm.5443014936338143320', symObjAddr: 0xB40, symBinAddr: 0xDC330, symSize: 0x60 }
  - { offsetInCU: 0x919, offset: 0x4EDC6E, size: 0x8, addend: 0x0, symName: '__ZN60_$LT$alloc..string..String$u20$as$u20$core..fmt..Display$GT$3fmt17h0d0eb46f3054e2dfE', symObjAddr: 0xBA0, symBinAddr: 0xDC390, symSize: 0x20 }
  - { offsetInCU: 0x45C0, offset: 0x4F1915, size: 0x8, addend: 0x0, symName: '__ZN4core3ptr39drop_in_place$LT$std..env..VarError$GT$17h0d9dd7e784bcc1d3E', symObjAddr: 0x10, symBinAddr: 0xDB800, symSize: 0x30 }
  - { offsetInCU: 0x4706, offset: 0x4F1A5B, size: 0x8, addend: 0x0, symName: '__ZN4core3ptr42drop_in_place$LT$alloc..string..String$GT$17hdbd8b13b237adbc7E.llvm.5443014936338143320', symObjAddr: 0x40, symBinAddr: 0xDB830, symSize: 0x20 }
  - { offsetInCU: 0x49C0, offset: 0x4F1D15, size: 0x8, addend: 0x0, symName: '__ZN4core3ptr58drop_in_place$LT$wasm_bindgen_backend..encode..Program$GT$17h7d9d64f97d5da399E', symObjAddr: 0x60, symBinAddr: 0xDB850, symSize: 0x390 }
  - { offsetInCU: 0x5F9A, offset: 0x4F32EF, size: 0x8, addend: 0x0, symName: '__ZN4core3ptr59drop_in_place$LT$wasm_bindgen_backend..encode..Interner$GT$17h60741c99ab479404E', symObjAddr: 0x3F0, symBinAddr: 0xDBBE0, symSize: 0xB0 }
  - { offsetInCU: 0x650D, offset: 0x4F3862, size: 0x8, addend: 0x0, symName: '__ZN4core3ptr60drop_in_place$LT$wasm_bindgen_backend..encode..LocalFile$GT$17h321e60f974a163a5E', symObjAddr: 0x4A0, symBinAddr: 0xDBC90, symSize: 0x50 }
  - { offsetInCU: 0x677A, offset: 0x4F3ACF, size: 0x8, addend: 0x0, symName: '__ZN4core3ptr78drop_in_place$LT$alloc..vec..Vec$LT$wasm_bindgen_backend..encode..Enum$GT$$GT$17h07c73c21d4bce4cfE', symObjAddr: 0x4F0, symBinAddr: 0xDBCE0, symSize: 0x60 }
  - { offsetInCU: 0x69AB, offset: 0x4F3D00, size: 0x8, addend: 0x0, symName: '__ZN4core3ptr80drop_in_place$LT$alloc..vec..Vec$LT$wasm_bindgen_backend..encode..Export$GT$$GT$17h05c7709818fb1a91E', symObjAddr: 0x550, symBinAddr: 0xDBD40, symSize: 0x130 }
  - { offsetInCU: 0x6F5D, offset: 0x4F42B2, size: 0x8, addend: 0x0, symName: '__ZN4core3ptr80drop_in_place$LT$alloc..vec..Vec$LT$wasm_bindgen_backend..encode..Import$GT$$GT$17hb3b76d71faa2ecdcE', symObjAddr: 0x680, symBinAddr: 0xDBE70, symSize: 0x60 }
  - { offsetInCU: 0x718C, offset: 0x4F44E1, size: 0x8, addend: 0x0, symName: '__ZN4core3ptr80drop_in_place$LT$alloc..vec..Vec$LT$wasm_bindgen_backend..encode..Struct$GT$$GT$17h03a715397692dea7E', symObjAddr: 0x6E0, symBinAddr: 0xDBED0, symSize: 0x60 }
  - { offsetInCU: 0x73DC, offset: 0x4F4731, size: 0x8, addend: 0x0, symName: '__ZN4core3ptr85drop_in_place$LT$alloc..vec..Vec$LT$wasm_bindgen_backend..encode..EnumVariant$GT$$GT$17he8a878d951581abeE.llvm.5443014936338143320', symObjAddr: 0x740, symBinAddr: 0xDBF30, symSize: 0x90 }
  - { offsetInCU: 0x76D5, offset: 0x4F4A2A, size: 0x8, addend: 0x0, symName: '__ZN4core3ptr85drop_in_place$LT$alloc..vec..Vec$LT$wasm_bindgen_backend..encode..StructField$GT$$GT$17hc4c389191e4c30dbE.llvm.5443014936338143320', symObjAddr: 0x7D0, symBinAddr: 0xDBFC0, symSize: 0x90 }
  - { offsetInCU: 0x7E81, offset: 0x4F51D6, size: 0x8, addend: 0x0, symName: '__ZN4core3ptr90drop_in_place$LT$core..result..Result$LT$std..fs..Metadata$C$std..io..error..Error$GT$$GT$17hdd2068b6c1932363E', symObjAddr: 0x860, symBinAddr: 0xDC050, symSize: 0xB0 }
  - { offsetInCU: 0x8329, offset: 0x4F567E, size: 0x8, addend: 0x0, symName: '__ZN4core3ptr93drop_in_place$LT$core..option..Option$LT$alloc..vec..Vec$LT$alloc..string..String$GT$$GT$$GT$17h43218dd1820c8778E', symObjAddr: 0x910, symBinAddr: 0xDC100, symSize: 0x80 }
  - { offsetInCU: 0x8F2D, offset: 0x4F6282, size: 0x8, addend: 0x0, symName: '__ZN53_$LT$core..fmt..Error$u20$as$u20$core..fmt..Debug$GT$3fmt17h03dc662ab152f3aeE.llvm.5443014936338143320', symObjAddr: 0x990, symBinAddr: 0xDC180, symSize: 0x20 }
  - { offsetInCU: 0xE93F, offset: 0x4FBC94, size: 0x8, addend: 0x0, symName: _anon.528a497d0aa2bc031e064d993eb47377.4.llvm.5443014936338143320, symObjAddr: 0x59A8, symBinAddr: 0x339800, symSize: 0x0 }
  - { offsetInCU: 0xEA99, offset: 0x4FBDEE, size: 0x8, addend: 0x0, symName: '__ZN55_$LT$std..env..VarError$u20$as$u20$core..fmt..Debug$GT$3fmt17hfdf45cfe12c33a85E', symObjAddr: 0x9B0, symBinAddr: 0xDC1A0, symSize: 0x50 }
  - { offsetInCU: 0x1025D, offset: 0x4FD5B2, size: 0x8, addend: 0x0, symName: __ZN20wasm_bindgen_backend6encode6encode17h034ee86f17423d89E, symObjAddr: 0xBC0, symBinAddr: 0xDC3B0, symSize: 0x1C30 }
  - { offsetInCU: 0x18586, offset: 0x5058DB, size: 0x8, addend: 0x0, symName: __ZN20wasm_bindgen_backend6encode13shared_export17hbbfc7318c498c281E, symObjAddr: 0x3150, symBinAddr: 0xDE8E0, symSize: 0x360 }
  - { offsetInCU: 0x18E02, offset: 0x506157, size: 0x8, addend: 0x0, symName: __ZN20wasm_bindgen_backend6encode11shared_enum17h00a03bd0de3af992E, symObjAddr: 0x34B0, symBinAddr: 0xDEC40, symSize: 0x1B0 }
  - { offsetInCU: 0x195DE, offset: 0x506933, size: 0x8, addend: 0x0, symName: __ZN20wasm_bindgen_backend6encode13shared_import17h077f5f3a1f576b21E, symObjAddr: 0x37B0, symBinAddr: 0xDEDF0, symSize: 0x630 }
  - { offsetInCU: 0x1A5B5, offset: 0x50790A, size: 0x8, addend: 0x0, symName: __ZN20wasm_bindgen_backend6encode13shared_module17h270b6ca0a6f92496E.llvm.5443014936338143320, symObjAddr: 0x3EF0, symBinAddr: 0xDF420, symSize: 0x110 }
  - { offsetInCU: 0x1AC24, offset: 0x507F79, size: 0x8, addend: 0x0, symName: __ZN20wasm_bindgen_backend6encode13shared_struct17h79d584a6a5f9a131E, symObjAddr: 0x4000, symBinAddr: 0xDF530, symSize: 0x1B0 }
  - { offsetInCU: 0x1B332, offset: 0x508687, size: 0x8, addend: 0x0, symName: '__ZN73_$LT$$RF$$u5b$u8$u5d$$u20$as$u20$wasm_bindgen_backend..encode..Encode$GT$6encode17h81154fea735d70d4E', symObjAddr: 0x44E0, symBinAddr: 0xDF6E0, symSize: 0x100 }
  - { offsetInCU: 0x1B891, offset: 0x508BE6, size: 0x8, addend: 0x0, symName: __ZN20wasm_bindgen_backend6encode20from_ast_method_kind17hdd4bd1897e947dd3E, symObjAddr: 0x4610, symBinAddr: 0xDF7E0, symSize: 0x1E0 }
  - { offsetInCU: 0x1C16C, offset: 0x5094C1, size: 0x8, addend: 0x0, symName: '__ZN94_$LT$wasm_bindgen_backend..encode..Program$u20$as$u20$wasm_bindgen_backend..encode..Encode$GT$6encode17hd8327b04c53a9d69E', symObjAddr: 0x47F0, symBinAddr: 0xDF9C0, symSize: 0x110 }
  - { offsetInCU: 0x1C4C5, offset: 0x50981A, size: 0x8, addend: 0x0, symName: '__ZN93_$LT$wasm_bindgen_backend..encode..Import$u20$as$u20$wasm_bindgen_backend..encode..Encode$GT$6encode17ha566a32e7402d2d0E', symObjAddr: 0x4900, symBinAddr: 0xDFAD0, symSize: 0xF0 }
  - { offsetInCU: 0x1C9C9, offset: 0x509D1E, size: 0x8, addend: 0x0, symName: '__ZN99_$LT$wasm_bindgen_backend..encode..ImportModule$u20$as$u20$wasm_bindgen_backend..encode..Encode$GT$6encode17h5fef5ddafdec3b57E', symObjAddr: 0x4A30, symBinAddr: 0xDFBC0, symSize: 0x110 }
  - { offsetInCU: 0x1D039, offset: 0x50A38E, size: 0x8, addend: 0x0, symName: '__ZN97_$LT$wasm_bindgen_backend..encode..ImportKind$u20$as$u20$wasm_bindgen_backend..encode..Encode$GT$6encode17hb411d88056902b51E', symObjAddr: 0x4B40, symBinAddr: 0xDFCD0, symSize: 0x180 }
  - { offsetInCU: 0x1D694, offset: 0x50A9E9, size: 0x8, addend: 0x0, symName: '__ZN101_$LT$wasm_bindgen_backend..encode..ImportFunction$u20$as$u20$wasm_bindgen_backend..encode..Encode$GT$6encode17hdb4342f0e60e79edE', symObjAddr: 0x4CC0, symBinAddr: 0xDFE50, symSize: 0x140 }
  - { offsetInCU: 0x1DDDB, offset: 0x50B130, size: 0x8, addend: 0x0, symName: '__ZN97_$LT$wasm_bindgen_backend..encode..MethodData$u20$as$u20$wasm_bindgen_backend..encode..Encode$GT$6encode17hd892e69ae1d110beE', symObjAddr: 0x4E00, symBinAddr: 0xDFF90, symSize: 0xC0 }
  - { offsetInCU: 0x1E204, offset: 0x50B559, size: 0x8, addend: 0x0, symName: '__ZN100_$LT$wasm_bindgen_backend..encode..OperationKind$u20$as$u20$wasm_bindgen_backend..encode..Encode$GT$6encode17h17609625340f3121E', symObjAddr: 0x4FB0, symBinAddr: 0xE0050, symSize: 0x140 }
  - { offsetInCU: 0x1E81B, offset: 0x50BB70, size: 0x8, addend: 0x0, symName: '__ZN93_$LT$wasm_bindgen_backend..encode..Export$u20$as$u20$wasm_bindgen_backend..encode..Encode$GT$6encode17hd26acef367110ee6E', symObjAddr: 0x5150, symBinAddr: 0xE0190, symSize: 0x170 }
  - { offsetInCU: 0x1F0CC, offset: 0x50C421, size: 0x8, addend: 0x0, symName: '__ZN98_$LT$wasm_bindgen_backend..encode..EnumVariant$u20$as$u20$wasm_bindgen_backend..encode..Encode$GT$6encode17h490cd750e713027cE', symObjAddr: 0x5340, symBinAddr: 0xE0300, symSize: 0xC0 }
  - { offsetInCU: 0x1F38E, offset: 0x50C6E3, size: 0x8, addend: 0x0, symName: '__ZN95_$LT$wasm_bindgen_backend..encode..Function$u20$as$u20$wasm_bindgen_backend..encode..Encode$GT$6encode17h12e23576cdf9bc9fE', symObjAddr: 0x5400, symBinAddr: 0xE03C0, symSize: 0xE0 }
  - { offsetInCU: 0x1F87F, offset: 0x50CBD4, size: 0x8, addend: 0x0, symName: '__ZN93_$LT$wasm_bindgen_backend..encode..Struct$u20$as$u20$wasm_bindgen_backend..encode..Encode$GT$6encode17h1a30585e1abfb2a5E', symObjAddr: 0x54E0, symBinAddr: 0xE04A0, symSize: 0xA0 }
  - { offsetInCU: 0x1FB42, offset: 0x50CE97, size: 0x8, addend: 0x0, symName: '__ZN98_$LT$wasm_bindgen_backend..encode..StructField$u20$as$u20$wasm_bindgen_backend..encode..Encode$GT$6encode17he0e2392b037d773fE', symObjAddr: 0x5580, symBinAddr: 0xE0540, symSize: 0xC0 }
  - { offsetInCU: 0x28208, offset: 0x51555D, size: 0x8, addend: 0x0, symName: __ZN20wasm_bindgen_backend6encode8Interner6intern17h5fbe7777f9e536a2E, symObjAddr: 0x27F0, symBinAddr: 0xDDFE0, symSize: 0x160 }
  - { offsetInCU: 0x292CE, offset: 0x516623, size: 0x8, addend: 0x0, symName: __ZN20wasm_bindgen_backend6encode8Interner21resolve_import_module17h18e74c6a849f1c4cE, symObjAddr: 0x29B0, symBinAddr: 0xDE140, symSize: 0x7A0 }
  - { offsetInCU: 0x1E, offset: 0x51F00E, size: 0x8, addend: 0x0, symName: '__ZN4core3ptr100drop_in_place$LT$core..option..Option$LT$alloc..boxed..Box$LT$syn..path..GenericArgument$GT$$GT$$GT$17h8de8466e8995d15dE', symObjAddr: 0x0, symBinAddr: 0xE0600, symSize: 0x50 }
  - { offsetInCU: 0xAA, offset: 0x51F09A, size: 0x8, addend: 0x0, symName: '__ZN55_$LT$std..env..VarError$u20$as$u20$core..fmt..Debug$GT$3fmt17hfdf45cfe12c33a85E', symObjAddr: 0x74E0, symBinAddr: 0xE7A10, symSize: 0x50 }
  - { offsetInCU: 0x2C3A, offset: 0x521C2A, size: 0x8, addend: 0x0, symName: '__ZN4core3ptr100drop_in_place$LT$core..option..Option$LT$alloc..boxed..Box$LT$syn..path..GenericArgument$GT$$GT$$GT$17h8de8466e8995d15dE', symObjAddr: 0x0, symBinAddr: 0xE0600, symSize: 0x50 }
  - { offsetInCU: 0x2FD8, offset: 0x521FC8, size: 0x8, addend: 0x0, symName: '__ZN4core3ptr100drop_in_place$LT$syn..punctuated..Punctuated$LT$syn..path..PathSegment$C$syn..token..PathSep$GT$$GT$17h6d00af71c1f2a8ffE', symObjAddr: 0x50, symBinAddr: 0xE0650, symSize: 0x2B0 }
  - { offsetInCU: 0x3A8E, offset: 0x522A7E, size: 0x8, addend: 0x0, symName: '__ZN4core3ptr103drop_in_place$LT$core..option..Option$LT$alloc..boxed..Box$LT$syn..generics..TypeParamBound$GT$$GT$$GT$17hcc99ba2c5104ae4dE', symObjAddr: 0x300, symBinAddr: 0xE0900, symSize: 0x50 }
  - { offsetInCU: 0x3C99, offset: 0x522C89, size: 0x8, addend: 0x0, symName: '__ZN4core3ptr103drop_in_place$LT$syn..punctuated..Punctuated$LT$syn..generics..GenericParam$C$syn..token..Comma$GT$$GT$17hd0fc887a95cd450dE', symObjAddr: 0x350, symBinAddr: 0xE0950, symSize: 0xF0 }
  - { offsetInCU: 0x4194, offset: 0x523184, size: 0x8, addend: 0x0, symName: '__ZN4core3ptr104drop_in_place$LT$syn..punctuated..Punctuated$LT$syn..generics..TypeParamBound$C$syn..token..Plus$GT$$GT$17h1ca6c643f4a14a56E', symObjAddr: 0x440, symBinAddr: 0xE0A40, symSize: 0x190 }
  - { offsetInCU: 0x4833, offset: 0x523823, size: 0x8, addend: 0x0, symName: '__ZN4core3ptr34drop_in_place$LT$syn..lit..Lit$GT$17h958a4e0583def0c2E', symObjAddr: 0x5D0, symBinAddr: 0xE0BD0, symSize: 0x120 }
  - { offsetInCU: 0x4D21, offset: 0x523D11, size: 0x8, addend: 0x0, symName: '__ZN4core3ptr34drop_in_place$LT$syn..pat..Pat$GT$17h51dd771ca6732d24E', symObjAddr: 0x6F0, symBinAddr: 0xE0CF0, symSize: 0x10E0 }
  - { offsetInCU: 0x92DA, offset: 0x5282CA, size: 0x8, addend: 0x0, symName: '__ZN4core3ptr34drop_in_place$LT$syn..ty..Type$GT$17ha2513550c540b8bfE', symObjAddr: 0x17D0, symBinAddr: 0xE1DD0, symSize: 0x520 }
  - { offsetInCU: 0xA930, offset: 0x529920, size: 0x8, addend: 0x0, symName: '__ZN4core3ptr36drop_in_place$LT$syn..expr..Expr$GT$17h28f67721c4e5d9afE', symObjAddr: 0x1CF0, symBinAddr: 0xE22F0, symSize: 0x2870 }
  - { offsetInCU: 0x14C04, offset: 0x533BF4, size: 0x8, addend: 0x0, symName: '__ZN4core3ptr36drop_in_place$LT$syn..mac..Macro$GT$17h06cd806352e8f75fE', symObjAddr: 0x4560, symBinAddr: 0xE4B60, symSize: 0x40 }
  - { offsetInCU: 0x14C3E, offset: 0x533C2E, size: 0x8, addend: 0x0, symName: '__ZN4core3ptr36drop_in_place$LT$syn..path..Path$GT$17h0991d43acec843f0E', symObjAddr: 0x45A0, symBinAddr: 0xE4BA0, symSize: 0x280 }
  - { offsetInCU: 0x156EB, offset: 0x5346DB, size: 0x8, addend: 0x0, symName: '__ZN4core3ptr37drop_in_place$LT$syn..stmt..Block$GT$17h1a4e3ed92b2fd543E', symObjAddr: 0x4820, symBinAddr: 0xE4E20, symSize: 0xD0 }
  - { offsetInCU: 0x159C2, offset: 0x5349B2, size: 0x8, addend: 0x0, symName: '__ZN4core3ptr38drop_in_place$LT$syn..expr..Member$GT$17h46d6c6017c53b35eE', symObjAddr: 0x48F0, symBinAddr: 0xE4EF0, symSize: 0x30 }
  - { offsetInCU: 0x15ABE, offset: 0x534AAE, size: 0x8, addend: 0x0, symName: '__ZN4core3ptr39drop_in_place$LT$proc_macro2..Ident$GT$17ha9ff64fc13056d15E', symObjAddr: 0x4920, symBinAddr: 0xE4F20, symSize: 0x30 }
  - { offsetInCU: 0x15BD9, offset: 0x534BC9, size: 0x8, addend: 0x0, symName: '__ZN4core3ptr39drop_in_place$LT$std..env..VarError$GT$17h0d9dd7e784bcc1d3E', symObjAddr: 0x4950, symBinAddr: 0xE4F50, symSize: 0x30 }
  - { offsetInCU: 0x15D1F, offset: 0x534D0F, size: 0x8, addend: 0x0, symName: '__ZN4core3ptr40drop_in_place$LT$syn..ty..ReturnType$GT$17h61320124c48c8cedE', symObjAddr: 0x4980, symBinAddr: 0xE4F80, symSize: 0x50 }
  - { offsetInCU: 0x15E8F, offset: 0x534E7F, size: 0x8, addend: 0x0, symName: '__ZN4core3ptr41drop_in_place$LT$syn..expr..ExprConst$GT$17hb51224a2b7ae3f93E', symObjAddr: 0x49D0, symBinAddr: 0xE4FD0, symSize: 0x180 }
  - { offsetInCU: 0x16517, offset: 0x535507, size: 0x8, addend: 0x0, symName: '__ZN4core3ptr44drop_in_place$LT$syn..lifetime..Lifetime$GT$17h21113c634520b199E', symObjAddr: 0x4C00, symBinAddr: 0xE5150, symSize: 0x30 }
  - { offsetInCU: 0x166AE, offset: 0x53569E, size: 0x8, addend: 0x0, symName: '__ZN4core3ptr45drop_in_place$LT$proc_macro2..TokenStream$GT$17h2b40e419bca43967E', symObjAddr: 0x4C30, symBinAddr: 0xE5180, symSize: 0x140 }
  - { offsetInCU: 0x16B48, offset: 0x535B38, size: 0x8, addend: 0x0, symName: '__ZN4core3ptr45drop_in_place$LT$syn..generics..TypeParam$GT$17h89e9c76ecf851d68E', symObjAddr: 0x4D70, symBinAddr: 0xE52C0, symSize: 0x230 }
  - { offsetInCU: 0x173BD, offset: 0x5363AD, size: 0x8, addend: 0x0, symName: '__ZN4core3ptr46drop_in_place$LT$syn..generics..ConstParam$GT$17he95c08701ad77becE', symObjAddr: 0x4FA0, symBinAddr: 0xE54F0, symSize: 0x150 }
  - { offsetInCU: 0x1783E, offset: 0x53682E, size: 0x8, addend: 0x0, symName: '__ZN4core3ptr47drop_in_place$LT$syn..path..GenericArgument$GT$17hcb4bbd5e05d6c3b7E', symObjAddr: 0x50F0, symBinAddr: 0xE5640, symSize: 0x4A0 }
  - { offsetInCU: 0x18944, offset: 0x537934, size: 0x8, addend: 0x0, symName: '__ZN4core3ptr49drop_in_place$LT$syn..generics..LifetimeParam$GT$17hcd774c5ed2f53f67E', symObjAddr: 0x5590, symBinAddr: 0xE5AE0, symSize: 0xF0 }
  - { offsetInCU: 0x18D5B, offset: 0x537D4B, size: 0x8, addend: 0x0, symName: '__ZN4core3ptr50drop_in_place$LT$syn..generics..TypeParamBound$GT$17h3b837fb6c20bba14E', symObjAddr: 0x5680, symBinAddr: 0xE5BD0, symSize: 0x1C0 }
  - { offsetInCU: 0x192B8, offset: 0x5382A8, size: 0x8, addend: 0x0, symName: '__ZN4core3ptr58drop_in_place$LT$alloc..vec..Vec$LT$syn..expr..Arm$GT$$GT$17hce51b4484b4c798bE', symObjAddr: 0x5860, symBinAddr: 0xE5D90, symSize: 0xD0 }
  - { offsetInCU: 0x19578, offset: 0x538568, size: 0x8, addend: 0x0, symName: '__ZN4core3ptr59drop_in_place$LT$alloc..boxed..Box$LT$syn..pat..Pat$GT$$GT$17h30d5ee147b164acbE', symObjAddr: 0x5930, symBinAddr: 0xE5E60, symSize: 0x50 }
  - { offsetInCU: 0x196D1, offset: 0x5386C1, size: 0x8, addend: 0x0, symName: '__ZN4core3ptr59drop_in_place$LT$alloc..boxed..Box$LT$syn..ty..Type$GT$$GT$17haae06f26280bf4e6E', symObjAddr: 0x5980, symBinAddr: 0xE5EB0, symSize: 0x50 }
  - { offsetInCU: 0x1982A, offset: 0x53881A, size: 0x8, addend: 0x0, symName: '__ZN4core3ptr61drop_in_place$LT$alloc..boxed..Box$LT$syn..expr..Expr$GT$$GT$17h1e496f1f4b08cb77E', symObjAddr: 0x59D0, symBinAddr: 0xE5F00, symSize: 0x50 }
  - { offsetInCU: 0x199FF, offset: 0x5389EF, size: 0x8, addend: 0x0, symName: '__ZN4core3ptr61drop_in_place$LT$syn..path..ParenthesizedGenericArguments$GT$17hc98199b96e5adaa6E', symObjAddr: 0x5A20, symBinAddr: 0xE5F50, symSize: 0x170 }
  - { offsetInCU: 0x19FF5, offset: 0x538FE5, size: 0x8, addend: 0x0, symName: '__ZN4core3ptr62drop_in_place$LT$syn..path..AngleBracketedGenericArguments$GT$17hf0ee58be2a40edd6E', symObjAddr: 0x5B90, symBinAddr: 0xE60C0, symSize: 0x120 }
  - { offsetInCU: 0x1A440, offset: 0x539430, size: 0x8, addend: 0x0, symName: '__ZN4core3ptr63drop_in_place$LT$alloc..boxed..Box$LT$syn..lit..LitRepr$GT$$GT$17hd06bbbbc95cc5d0eE', symObjAddr: 0x5CB0, symBinAddr: 0xE61E0, symSize: 0x60 }
  - { offsetInCU: 0x1A747, offset: 0x539737, size: 0x8, addend: 0x0, symName: '__ZN4core3ptr64drop_in_place$LT$alloc..boxed..Box$LT$syn..pat..FieldPat$GT$$GT$17h5348c67f94858891E', symObjAddr: 0x5D10, symBinAddr: 0xE6240, symSize: 0x140 }
  - { offsetInCU: 0x1AE48, offset: 0x539E38, size: 0x8, addend: 0x0, symName: '__ZN4core3ptr64drop_in_place$LT$alloc..boxed..Box$LT$syn..ty..BareFnArg$GT$$GT$17h4a72b13a3e189d87E', symObjAddr: 0x5E50, symBinAddr: 0xE6380, symSize: 0x140 }
  - { offsetInCU: 0x1B3D1, offset: 0x53A3C1, size: 0x8, addend: 0x0, symName: '__ZN4core3ptr65drop_in_place$LT$alloc..vec..Vec$LT$proc_macro..TokenTree$GT$$GT$17h04383c614e3ab1fcE', symObjAddr: 0x5F90, symBinAddr: 0xE64C0, symSize: 0x110 }
  - { offsetInCU: 0x1B7C9, offset: 0x53A7B9, size: 0x8, addend: 0x0, symName: '__ZN4core3ptr65drop_in_place$LT$core..option..Option$LT$syn..expr..Label$GT$$GT$17h5b07172e6de7fafaE', symObjAddr: 0x60A0, symBinAddr: 0xE65D0, symSize: 0x30 }
  - { offsetInCU: 0x1B903, offset: 0x53A8F3, size: 0x8, addend: 0x0, symName: '__ZN4core3ptr65drop_in_place$LT$core..option..Option$LT$syn..path..QSelf$GT$$GT$17h6f65cd12882b2635E', symObjAddr: 0x60D0, symBinAddr: 0xE6600, symSize: 0x50 }
  - { offsetInCU: 0x1BA9A, offset: 0x53AA8A, size: 0x8, addend: 0x0, symName: '__ZN4core3ptr66drop_in_place$LT$core..option..Option$LT$syn..pat..PatRest$GT$$GT$17h414b7792973e1accE', symObjAddr: 0x6120, symBinAddr: 0xE6650, symSize: 0xE0 }
  - { offsetInCU: 0x1BDC2, offset: 0x53ADB2, size: 0x8, addend: 0x0, symName: '__ZN4core3ptr67drop_in_place$LT$alloc..boxed..Box$LT$syn..expr..FieldValue$GT$$GT$17h4f90b5bdfa2ac8f9E', symObjAddr: 0x6200, symBinAddr: 0xE6730, symSize: 0x140 }
  - { offsetInCU: 0x1C32B, offset: 0x53B31B, size: 0x8, addend: 0x0, symName: '__ZN4core3ptr68drop_in_place$LT$alloc..boxed..Box$LT$syn..path..PathSegment$GT$$GT$17he4977659d94b77d4E', symObjAddr: 0x6340, symBinAddr: 0xE6870, symSize: 0x1B0 }
  - { offsetInCU: 0x1CA39, offset: 0x53BA29, size: 0x8, addend: 0x0, symName: '__ZN4core3ptr70drop_in_place$LT$core..option..Option$LT$syn..ty..BareVariadic$GT$$GT$17h0a1bd3d5468840beE', symObjAddr: 0x64F0, symBinAddr: 0xE6A20, symSize: 0x100 }
  - { offsetInCU: 0x1CEA4, offset: 0x53BE94, size: 0x8, addend: 0x0, symName: '__ZN4core3ptr72drop_in_place$LT$alloc..boxed..Box$LT$syn..path..GenericArgument$GT$$GT$17ha0c09ac18b7d41b5E', symObjAddr: 0x65F0, symBinAddr: 0xE6B20, symSize: 0x1D0 }
  - { offsetInCU: 0x1D43F, offset: 0x53C42F, size: 0x8, addend: 0x0, symName: '__ZN4core3ptr72drop_in_place$LT$core..option..Option$LT$syn..lifetime..Lifetime$GT$$GT$17h7990d056ab09c423E', symObjAddr: 0x67C0, symBinAddr: 0xE6CF0, symSize: 0x30 }
  - { offsetInCU: 0x1D55A, offset: 0x53C54A, size: 0x8, addend: 0x0, symName: '__ZN4core3ptr73drop_in_place$LT$alloc..boxed..Box$LT$syn..generics..GenericParam$GT$$GT$17h20b807de2b91e985E', symObjAddr: 0x67F0, symBinAddr: 0xE6D20, symSize: 0x80 }
  - { offsetInCU: 0x1D6D0, offset: 0x53C6C0, size: 0x8, addend: 0x0, symName: '__ZN4core3ptr75drop_in_place$LT$alloc..boxed..Box$LT$syn..generics..TypeParamBound$GT$$GT$17h1da96ef6f4e863ddE', symObjAddr: 0x6870, symBinAddr: 0xE6DA0, symSize: 0xC0 }
  - { offsetInCU: 0x1DA24, offset: 0x53CA14, size: 0x8, addend: 0x0, symName: '__ZN4core3ptr86drop_in_place$LT$syn..punctuated..Punctuated$LT$syn..pat..Pat$C$syn..token..Or$GT$$GT$17h93831ed2944e749dE', symObjAddr: 0x6930, symBinAddr: 0xE6E60, symSize: 0x120 }
  - { offsetInCU: 0x1DE9F, offset: 0x53CE8F, size: 0x8, addend: 0x0, symName: '__ZN4core3ptr87drop_in_place$LT$core..option..Option$LT$alloc..boxed..Box$LT$syn..pat..Pat$GT$$GT$$GT$17hce6b6652aeac84f1E', symObjAddr: 0x6A50, symBinAddr: 0xE6F80, symSize: 0x50 }
  - { offsetInCU: 0x1E00F, offset: 0x53CFFF, size: 0x8, addend: 0x0, symName: '__ZN4core3ptr87drop_in_place$LT$core..option..Option$LT$alloc..boxed..Box$LT$syn..ty..Type$GT$$GT$$GT$17h8eb6b9b10cf34482E', symObjAddr: 0x6AA0, symBinAddr: 0xE6FD0, symSize: 0x50 }
  - { offsetInCU: 0x1E17F, offset: 0x53D16F, size: 0x8, addend: 0x0, symName: '__ZN4core3ptr89drop_in_place$LT$core..option..Option$LT$alloc..boxed..Box$LT$syn..expr..Expr$GT$$GT$$GT$17hadda1967b0b98c14E', symObjAddr: 0x6AF0, symBinAddr: 0xE7020, symSize: 0x50 }
  - { offsetInCU: 0x1E32D, offset: 0x53D31D, size: 0x8, addend: 0x0, symName: '__ZN4core3ptr89drop_in_place$LT$syn..punctuated..Punctuated$LT$syn..pat..Pat$C$syn..token..Comma$GT$$GT$17h4ffb14edfedf5273E', symObjAddr: 0x6B40, symBinAddr: 0xE7070, symSize: 0x120 }
  - { offsetInCU: 0x1E7BF, offset: 0x53D7AF, size: 0x8, addend: 0x0, symName: '__ZN4core3ptr89drop_in_place$LT$syn..punctuated..Punctuated$LT$syn..ty..Type$C$syn..token..Comma$GT$$GT$17hca876f3322ceb0ecE', symObjAddr: 0x6C60, symBinAddr: 0xE7190, symSize: 0x120 }
  - { offsetInCU: 0x1EC3A, offset: 0x53DC2A, size: 0x8, addend: 0x0, symName: '__ZN4core3ptr90drop_in_place$LT$core..option..Option$LT$syn..path..AngleBracketedGenericArguments$GT$$GT$17hcd795b5fcb8c1bb4E', symObjAddr: 0x6D80, symBinAddr: 0xE72B0, symSize: 0x130 }
  - { offsetInCU: 0x1F0DC, offset: 0x53E0CC, size: 0x8, addend: 0x0, symName: '__ZN4core3ptr91drop_in_place$LT$syn..punctuated..Punctuated$LT$syn..expr..Expr$C$syn..token..Comma$GT$$GT$17h48360bdc222b3963E', symObjAddr: 0x6EB0, symBinAddr: 0xE73E0, symSize: 0x120 }
  - { offsetInCU: 0x1F56A, offset: 0x53E55A, size: 0x8, addend: 0x0, symName: '__ZN4core3ptr94drop_in_place$LT$syn..punctuated..Punctuated$LT$syn..pat..FieldPat$C$syn..token..Comma$GT$$GT$17h1e553a25ac0bc4e1E', symObjAddr: 0x6FD0, symBinAddr: 0xE7500, symSize: 0xF0 }
  - { offsetInCU: 0x1F869, offset: 0x53E859, size: 0x8, addend: 0x0, symName: '__ZN4core3ptr94drop_in_place$LT$syn..punctuated..Punctuated$LT$syn..ty..BareFnArg$C$syn..token..Comma$GT$$GT$17ha469bb07bab88749E', symObjAddr: 0x70C0, symBinAddr: 0xE75F0, symSize: 0xF0 }
  - { offsetInCU: 0x1FB6A, offset: 0x53EB5A, size: 0x8, addend: 0x0, symName: '__ZN4core3ptr96drop_in_place$LT$core..option..Option$LT$alloc..boxed..Box$LT$syn..path..PathSegment$GT$$GT$$GT$17h3fb622bd55682ae2E', symObjAddr: 0x71B0, symBinAddr: 0xE76E0, symSize: 0xA0 }
  - { offsetInCU: 0x1FDE9, offset: 0x53EDD9, size: 0x8, addend: 0x0, symName: '__ZN4core3ptr97drop_in_place$LT$syn..punctuated..Punctuated$LT$syn..expr..FieldValue$C$syn..token..Comma$GT$$GT$17ha2df63eb673a5104E', symObjAddr: 0x7250, symBinAddr: 0xE7780, symSize: 0xF0 }
  - { offsetInCU: 0x200E6, offset: 0x53F0D6, size: 0x8, addend: 0x0, symName: '__ZN4core3ptr98drop_in_place$LT$alloc..vec..Vec$LT$$LP$syn..path..GenericArgument$C$syn..token..Comma$RP$$GT$$GT$17h2ef8ec6808a72ef8E', symObjAddr: 0x7340, symBinAddr: 0xE7870, symSize: 0xD0 }
  - { offsetInCU: 0x20426, offset: 0x53F416, size: 0x8, addend: 0x0, symName: '__ZN4core3ptr98drop_in_place$LT$syn..punctuated..Punctuated$LT$syn..lifetime..Lifetime$C$syn..token..Plus$GT$$GT$17h937540fc49049303E', symObjAddr: 0x7410, symBinAddr: 0xE7940, symSize: 0xD0 }
  - { offsetInCU: 0x2335F, offset: 0x54234F, size: 0x8, addend: 0x0, symName: '__ZN71_$LT$core..hash..sip..Hasher$LT$S$GT$$u20$as$u20$core..hash..Hasher$GT$5write17hf2e2abaa61f9ec47E', symObjAddr: 0x7530, symBinAddr: 0xE7A60, symSize: 0x1E0 }
  - { offsetInCU: 0x24F66, offset: 0x543F56, size: 0x8, addend: 0x0, symName: '__ZN85_$LT$wasm_bindgen_backend..util..ShortHash$LT$T$GT$$u20$as$u20$core..fmt..Display$GT$3fmt6HASHED17hec71228452560468E', symObjAddr: 0xB0328, symBinAddr: 0x340B08, symSize: 0x0 }
  - { offsetInCU: 0x24F81, offset: 0x543F71, size: 0x8, addend: 0x0, symName: '__ZN85_$LT$wasm_bindgen_backend..util..ShortHash$LT$T$GT$$u20$as$u20$core..fmt..Display$GT$3fmt4HASH17hd2cd501065a90dcfE', symObjAddr: 0xB0330, symBinAddr: 0x340B10, symSize: 0x0 }
  - { offsetInCU: 0x24F90, offset: 0x543F80, size: 0x8, addend: 0x0, symName: '__ZN85_$LT$wasm_bindgen_backend..util..ShortHash$LT$T$GT$$u20$as$u20$core..fmt..Display$GT$3fmt17h1d038d91c8c75648E', symObjAddr: 0x8270, symBinAddr: 0xE7D80, symSize: 0x5A0 }
  - { offsetInCU: 0x2655F, offset: 0x54554F, size: 0x8, addend: 0x0, symName: '__ZN85_$LT$wasm_bindgen_backend..util..ShortHash$LT$T$GT$$u20$as$u20$core..fmt..Display$GT$3fmt17h91d4a01e9c7972f4E', symObjAddr: 0x8810, symBinAddr: 0xE8320, symSize: 0x5B0 }
  - { offsetInCU: 0x27B6E, offset: 0x546B5E, size: 0x8, addend: 0x0, symName: '__ZN85_$LT$wasm_bindgen_backend..util..ShortHash$LT$T$GT$$u20$as$u20$core..fmt..Display$GT$3fmt17hb54d37b7bffd0c02E', symObjAddr: 0x8DC0, symBinAddr: 0xE88D0, symSize: 0x5C5 }
  - { offsetInCU: 0x292FE, offset: 0x5482EE, size: 0x8, addend: 0x0, symName: __ZN20wasm_bindgen_backend4util8ident_ty17he792024b0f3b4641E, symObjAddr: 0x8130, symBinAddr: 0xE7C40, symSize: 0x140 }
  - { offsetInCU: 0x1E, offset: 0x55141B, size: 0x8, addend: 0x0, symName: '__ZN4core3ptr181drop_in_place$LT$hashbrown..scopeguard..ScopeGuard$LT$$RF$mut$u20$hashbrown..raw..RawTableInner$C$hashbrown..raw..RawTableInner..rehash_in_place..$u7b$$u7b$closure$u7d$$u7d$$GT$$GT$17hca00df43e7a91810E', symObjAddr: 0x0, symBinAddr: 0xE8EA0, symSize: 0xC0 }
  - { offsetInCU: 0xD00, offset: 0x5520FD, size: 0x8, addend: 0x0, symName: '__ZN79_$LT$hashbrown..raw..RawTable$LT$T$C$A$GT$$u20$as$u20$core..ops..drop..Drop$GT$4drop17h15d1b053b6aa405cE', symObjAddr: 0x270, symBinAddr: 0xE9070, symSize: 0x120 }
  - { offsetInCU: 0xD2E, offset: 0x55212B, size: 0x8, addend: 0x0, symName: '__ZN79_$LT$hashbrown..raw..RawTable$LT$T$C$A$GT$$u20$as$u20$core..ops..drop..Drop$GT$4drop17h15d1b053b6aa405cE', symObjAddr: 0x270, symBinAddr: 0xE9070, symSize: 0x120 }
  - { offsetInCU: 0xD55, offset: 0x552152, size: 0x8, addend: 0x0, symName: '__ZN79_$LT$hashbrown..raw..RawTable$LT$T$C$A$GT$$u20$as$u20$core..ops..drop..Drop$GT$4drop17h15d1b053b6aa405cE', symObjAddr: 0x270, symBinAddr: 0xE9070, symSize: 0x120 }
  - { offsetInCU: 0xD66, offset: 0x552163, size: 0x8, addend: 0x0, symName: '__ZN79_$LT$hashbrown..raw..RawTable$LT$T$C$A$GT$$u20$as$u20$core..ops..drop..Drop$GT$4drop17h15d1b053b6aa405cE', symObjAddr: 0x270, symBinAddr: 0xE9070, symSize: 0x120 }
  - { offsetInCU: 0x1704, offset: 0x552B01, size: 0x8, addend: 0x0, symName: '__ZN79_$LT$hashbrown..raw..RawTable$LT$T$C$A$GT$$u20$as$u20$core..ops..drop..Drop$GT$4drop17h77305e6bada2abebE', symObjAddr: 0x390, symBinAddr: 0xE9190, symSize: 0x140 }
  - { offsetInCU: 0x1732, offset: 0x552B2F, size: 0x8, addend: 0x0, symName: '__ZN79_$LT$hashbrown..raw..RawTable$LT$T$C$A$GT$$u20$as$u20$core..ops..drop..Drop$GT$4drop17h77305e6bada2abebE', symObjAddr: 0x390, symBinAddr: 0xE9190, symSize: 0x140 }
  - { offsetInCU: 0x1759, offset: 0x552B56, size: 0x8, addend: 0x0, symName: '__ZN79_$LT$hashbrown..raw..RawTable$LT$T$C$A$GT$$u20$as$u20$core..ops..drop..Drop$GT$4drop17h77305e6bada2abebE', symObjAddr: 0x390, symBinAddr: 0xE9190, symSize: 0x140 }
  - { offsetInCU: 0x176A, offset: 0x552B67, size: 0x8, addend: 0x0, symName: '__ZN79_$LT$hashbrown..raw..RawTable$LT$T$C$A$GT$$u20$as$u20$core..ops..drop..Drop$GT$4drop17h77305e6bada2abebE', symObjAddr: 0x390, symBinAddr: 0xE9190, symSize: 0x140 }
  - { offsetInCU: 0x2225, offset: 0x553622, size: 0x8, addend: 0x0, symName: '__ZN79_$LT$hashbrown..raw..RawTable$LT$T$C$A$GT$$u20$as$u20$core..ops..drop..Drop$GT$4drop17heb5cbd03f2b9e812E', symObjAddr: 0x4D0, symBinAddr: 0xE92D0, symSize: 0x110 }
  - { offsetInCU: 0x3A8B, offset: 0x554E88, size: 0x8, addend: 0x0, symName: '__ZN4core3ptr181drop_in_place$LT$hashbrown..scopeguard..ScopeGuard$LT$$RF$mut$u20$hashbrown..raw..RawTableInner$C$hashbrown..raw..RawTableInner..rehash_in_place..$u7b$$u7b$closure$u7d$$u7d$$GT$$GT$17hca00df43e7a91810E', symObjAddr: 0x0, symBinAddr: 0xE8EA0, symSize: 0xC0 }
  - { offsetInCU: 0x4522, offset: 0x55591F, size: 0x8, addend: 0x0, symName: '__ZN4core3ptr196drop_in_place$LT$hashbrown..scopeguard..ScopeGuard$LT$hashbrown..raw..RawTableInner$C$hashbrown..raw..RawTableInner..prepare_resize$LT$alloc..alloc..Global$GT$..$u7b$$u7b$closure$u7d$$u7d$$GT$$GT$17he54394e9dba34093E', symObjAddr: 0xC0, symBinAddr: 0xE8F60, symSize: 0x40 }
  - { offsetInCU: 0x48AC, offset: 0x555CA9, size: 0x8, addend: 0x0, symName: '__ZN4core3ptr61drop_in_place$LT$$LP$alloc..string..String$C$$LP$$RP$$RP$$GT$17h0e326614e4d695fcE', symObjAddr: 0x1A0, symBinAddr: 0xE8FA0, symSize: 0x20 }
  - { offsetInCU: 0x49F2, offset: 0x555DEF, size: 0x8, addend: 0x0, symName: '__ZN4core3ptr71drop_in_place$LT$$LP$alloc..string..String$C$proc_macro2..Ident$RP$$GT$17hb007ca413e514bcfE', symObjAddr: 0x1C0, symBinAddr: 0xE8FC0, symSize: 0x50 }
  - { offsetInCU: 0x4C15, offset: 0x556012, size: 0x8, addend: 0x0, symName: '__ZN4core3ptr92drop_in_place$LT$$LP$alloc..string..String$C$wasm_bindgen_backend..encode..LocalFile$RP$$GT$17h4f6c99c7d2cb5ff9E', symObjAddr: 0x210, symBinAddr: 0xE9010, symSize: 0x60 }
  - { offsetInCU: 0x916C, offset: 0x55A569, size: 0x8, addend: 0x0, symName: '__ZN9hashbrown3raw21RawTable$LT$T$C$A$GT$14reserve_rehash17h6ec37c9f7d33ab99E.llvm.14929372824978742755', symObjAddr: 0x670, symBinAddr: 0x2AEC50, symSize: 0x7D0 }
  - { offsetInCU: 0xB616, offset: 0x55CA13, size: 0x8, addend: 0x0, symName: '__ZN9hashbrown3raw21RawTable$LT$T$C$A$GT$14reserve_rehash17h836be0646a62b893E.llvm.14929372824978742755', symObjAddr: 0xE40, symBinAddr: 0x2AF420, symSize: 0x760 }
  - { offsetInCU: 0xDA9F, offset: 0x55EE9C, size: 0x8, addend: 0x0, symName: '__ZN9hashbrown3raw21RawTable$LT$T$C$A$GT$14reserve_rehash17h90f75a109fbdd8c9E.llvm.14929372824978742755', symObjAddr: 0x15A0, symBinAddr: 0x2AFB80, symSize: 0x750 }
  - { offsetInCU: 0xA8, offset: 0x561588, size: 0x8, addend: 0x0, symName: '__ZN58_$LT$alloc..string..String$u20$as$u20$core..fmt..Write$GT$10write_char17h04bc467bd68a934bE', symObjAddr: 0xCD0, symBinAddr: 0xEA0A0, symSize: 0x140 }
  - { offsetInCU: 0x4AD, offset: 0x56198D, size: 0x8, addend: 0x0, symName: '__ZN58_$LT$alloc..string..String$u20$as$u20$core..fmt..Write$GT$9write_str17h46a93205c3443fbaE', symObjAddr: 0xE10, symBinAddr: 0xEA1E0, symSize: 0x60 }
  - { offsetInCU: 0x2BAE, offset: 0x56408E, size: 0x8, addend: 0x0, symName: '__ZN4core3ptr106drop_in_place$LT$core..iter..adapters..enumerate..Enumerate$LT$proc_macro2..token_stream..IntoIter$GT$$GT$17hd3a6ff40c134277dE', symObjAddr: 0x4D0, symBinAddr: 0xE98A0, symSize: 0x20 }
  - { offsetInCU: 0x2C7D, offset: 0x56415D, size: 0x8, addend: 0x0, symName: '__ZN4core3ptr122drop_in_place$LT$std..sync..mutex..MutexGuard$LT$std..collections..hash..set..HashSet$LT$alloc..string..String$GT$$GT$$GT$17h03e0803e53537a52E', symObjAddr: 0x4F0, symBinAddr: 0xE98C0, symSize: 0x70 }
  - { offsetInCU: 0x2F66, offset: 0x564446, size: 0x8, addend: 0x0, symName: '__ZN4core3ptr160drop_in_place$LT$std..sync..poison..PoisonError$LT$std..sync..mutex..MutexGuard$LT$std..collections..hash..set..HashSet$LT$alloc..string..String$GT$$GT$$GT$$GT$17h72d1136b8807afa7E', symObjAddr: 0x560, symBinAddr: 0xE9930, symSize: 0x70 }
  - { offsetInCU: 0x329B, offset: 0x56477B, size: 0x8, addend: 0x0, symName: '__ZN4core3ptr42drop_in_place$LT$alloc..string..String$GT$17hdbd8b13b237adbc7E', symObjAddr: 0x5D0, symBinAddr: 0xE99A0, symSize: 0x20 }
  - { offsetInCU: 0x35D1, offset: 0x564AB1, size: 0x8, addend: 0x0, symName: '__ZN4core3ptr43drop_in_place$LT$proc_macro2..TokenTree$GT$17hc4cda53889ee41ebE', symObjAddr: 0x5F0, symBinAddr: 0xE99C0, symSize: 0xB0 }
  - { offsetInCU: 0x39C7, offset: 0x564EA7, size: 0x8, addend: 0x0, symName: '__ZN4core3ptr45drop_in_place$LT$proc_macro2..TokenStream$GT$17h2b40e419bca43967E.llvm.4554886349474809040', symObjAddr: 0x6A0, symBinAddr: 0xE9A70, symSize: 0x140 }
  - { offsetInCU: 0x3E42, offset: 0x565322, size: 0x8, addend: 0x0, symName: '__ZN4core3ptr62drop_in_place$LT$alloc..vec..Vec$LT$proc_macro2..Ident$GT$$GT$17h0e6b361bb15b8e82E', symObjAddr: 0x7E0, symBinAddr: 0xE9BB0, symSize: 0x90 }
  - { offsetInCU: 0x40FC, offset: 0x5655DC, size: 0x8, addend: 0x0, symName: '__ZN4core3ptr64drop_in_place$LT$alloc..vec..Vec$LT$syn..attr..Attribute$GT$$GT$17hf5a15f175c4e81ceE', symObjAddr: 0x870, symBinAddr: 0xE9C40, symSize: 0xD0 }
  - { offsetInCU: 0x43F0, offset: 0x5658D0, size: 0x8, addend: 0x0, symName: '__ZN4core3ptr65drop_in_place$LT$alloc..vec..Vec$LT$proc_macro..TokenTree$GT$$GT$17h04383c614e3ab1fcE.llvm.4554886349474809040', symObjAddr: 0x940, symBinAddr: 0xE9D10, symSize: 0x110 }
  - { offsetInCU: 0x4807, offset: 0x565CE7, size: 0x8, addend: 0x0, symName: '__ZN4core3ptr66drop_in_place$LT$alloc..vec..Vec$LT$proc_macro2..TokenTree$GT$$GT$17hb55611d0f19108beE', symObjAddr: 0xA50, symBinAddr: 0xE9E20, symSize: 0xC0 }
  - { offsetInCU: 0x4AF7, offset: 0x565FD7, size: 0x8, addend: 0x0, symName: '__ZN4core3ptr68drop_in_place$LT$alloc..vec..Vec$LT$proc_macro2..TokenStream$GT$$GT$17h50bdc014fb29dd04E', symObjAddr: 0xB10, symBinAddr: 0xE9EE0, symSize: 0xC0 }
  - { offsetInCU: 0x4DE7, offset: 0x5662C7, size: 0x8, addend: 0x0, symName: '__ZN4core3ptr94drop_in_place$LT$wasm_bindgen_backend..codegen..Descriptor$LT$proc_macro2..TokenStream$GT$$GT$17hde510745fd2535a7E', symObjAddr: 0xBD0, symBinAddr: 0xE9FA0, symSize: 0xE0 }
  - { offsetInCU: 0x57FC, offset: 0x566CDC, size: 0x8, addend: 0x0, symName: '__ZN53_$LT$core..fmt..Error$u20$as$u20$core..fmt..Debug$GT$3fmt17h03dc662ab152f3aeE', symObjAddr: 0xCB0, symBinAddr: 0xEA080, symSize: 0x20 }
  - { offsetInCU: 0x8008, offset: 0x5694E8, size: 0x8, addend: 0x0, symName: '__ZN4core3ops8function5impls80_$LT$impl$u20$core..ops..function..FnOnce$LT$A$GT$$u20$for$u20$$RF$mut$u20$F$GT$9call_once17ha87992523375e4b2E', symObjAddr: 0x10, symBinAddr: 0xE93E0, symSize: 0x250 }
  - { offsetInCU: 0x81EF, offset: 0x5696CF, size: 0x8, addend: 0x0, symName: '__ZN4core3ops8function5impls80_$LT$impl$u20$core..ops..function..FnOnce$LT$A$GT$$u20$for$u20$$RF$mut$u20$F$GT$9call_once17hd6ab43832b54da09E', symObjAddr: 0x260, symBinAddr: 0xE9630, symSize: 0x110 }
  - { offsetInCU: 0x8348, offset: 0x569828, size: 0x8, addend: 0x0, symName: '__ZN4core3ops8function5impls80_$LT$impl$u20$core..ops..function..FnOnce$LT$A$GT$$u20$for$u20$$RF$mut$u20$F$GT$9call_once17hdfabfc114ba04decE', symObjAddr: 0x370, symBinAddr: 0xE9740, symSize: 0x160 }
  - { offsetInCU: 0x9719, offset: 0x56ABF9, size: 0x8, addend: 0x0, symName: '__ZN97_$LT$wasm_bindgen_backend..codegen..Descriptor$LT$T$GT$$u20$as$u20$quote..to_tokens..ToTokens$GT$9to_tokens19DESCRIPTORS_EMITTED17habbbbfc0885c88d3E', symObjAddr: 0x4188, symBinAddr: 0x340000, symSize: 0x0 }
  - { offsetInCU: 0x9728, offset: 0x56AC08, size: 0x8, addend: 0x0, symName: '__ZN97_$LT$wasm_bindgen_backend..codegen..Descriptor$LT$T$GT$$u20$as$u20$quote..to_tokens..ToTokens$GT$9to_tokens17hce647f67f493594dE', symObjAddr: 0x15E0, symBinAddr: 0xEA980, symSize: 0xC80 }
  - { offsetInCU: 0xABEC, offset: 0x56C0CC, size: 0x8, addend: 0x0, symName: '__ZN92_$LT$wasm_bindgen_backend..codegen..DescribeImport$u20$as$u20$quote..to_tokens..ToTokens$GT$9to_tokens17h86eee9740b2079b8E', symObjAddr: 0xEA0, symBinAddr: 0xEA240, symSize: 0x740 }
  - { offsetInCU: 0xB29C, offset: 0x56C77C, size: 0x8, addend: 0x0, symName: __ZN20wasm_bindgen_backend7codegen9extern_fn17hdf058a7eabd34949E, symObjAddr: 0x2260, symBinAddr: 0xEB600, symSize: 0xC00 }
  - { offsetInCU: 0xBAF8, offset: 0x56CFD8, size: 0x8, addend: 0x0, symName: __ZN20wasm_bindgen_backend7codegen5splat17h836a6b370983737fE, symObjAddr: 0x2E60, symBinAddr: 0xEC200, symSize: 0x500 }
  - { offsetInCU: 0xC77F, offset: 0x56DC5F, size: 0x8, addend: 0x0, symName: __ZN20wasm_bindgen_backend7codegen6respan17h51c118d6182dd5fbE, symObjAddr: 0x3360, symBinAddr: 0xEC700, symSize: 0x530 }
  - { offsetInCU: 0x19E5, offset: 0x579933, size: 0x8, addend: 0x0, symName: '__ZN4core3ptr100drop_in_place$LT$core..option..Option$LT$alloc..boxed..Box$LT$syn..path..GenericArgument$GT$$GT$$GT$17h8de8466e8995d15dE.llvm.1400451530433487160', symObjAddr: 0x150, symBinAddr: 0xECC30, symSize: 0x50 }
  - { offsetInCU: 0x1BB2, offset: 0x579B00, size: 0x8, addend: 0x0, symName: '__ZN4core3ptr100drop_in_place$LT$syn..punctuated..Punctuated$LT$syn..path..PathSegment$C$syn..token..PathSep$GT$$GT$17h6d00af71c1f2a8ffE', symObjAddr: 0x1A0, symBinAddr: 0xECC80, symSize: 0x120 }
  - { offsetInCU: 0x2021, offset: 0x579F6F, size: 0x8, addend: 0x0, symName: '__ZN4core3ptr102drop_in_place$LT$syn..punctuated..Punctuated$LT$syn..path..GenericArgument$C$syn..token..Comma$GT$$GT$17hb5d151e802632153E', symObjAddr: 0x2C0, symBinAddr: 0xECDA0, symSize: 0xF0 }
  - { offsetInCU: 0x2341, offset: 0x57A28F, size: 0x8, addend: 0x0, symName: '__ZN4core3ptr103drop_in_place$LT$core..option..Option$LT$alloc..boxed..Box$LT$syn..generics..TypeParamBound$GT$$GT$$GT$17hcc99ba2c5104ae4dE', symObjAddr: 0x3B0, symBinAddr: 0xECE90, symSize: 0x50 }
  - { offsetInCU: 0x254C, offset: 0x57A49A, size: 0x8, addend: 0x0, symName: '__ZN4core3ptr103drop_in_place$LT$syn..punctuated..Punctuated$LT$syn..generics..GenericParam$C$syn..token..Comma$GT$$GT$17hd0fc887a95cd450dE', symObjAddr: 0x400, symBinAddr: 0xECEE0, symSize: 0xF0 }
  - { offsetInCU: 0x2AE2, offset: 0x57AA30, size: 0x8, addend: 0x0, symName: '__ZN4core3ptr104drop_in_place$LT$syn..punctuated..Punctuated$LT$syn..generics..TypeParamBound$C$syn..token..Plus$GT$$GT$17h1ca6c643f4a14a56E', symObjAddr: 0x4F0, symBinAddr: 0xECFD0, symSize: 0x270 }
  - { offsetInCU: 0x3577, offset: 0x57B4C5, size: 0x8, addend: 0x0, symName: '__ZN4core3ptr34drop_in_place$LT$syn..lit..Lit$GT$17h958a4e0583def0c2E', symObjAddr: 0x760, symBinAddr: 0xED240, symSize: 0x120 }
  - { offsetInCU: 0x3A84, offset: 0x57B9D2, size: 0x8, addend: 0x0, symName: '__ZN4core3ptr34drop_in_place$LT$syn..pat..Pat$GT$17h51dd771ca6732d24E', symObjAddr: 0x880, symBinAddr: 0xED360, symSize: 0x1240 }
  - { offsetInCU: 0x89BB, offset: 0x580909, size: 0x8, addend: 0x0, symName: '__ZN4core3ptr34drop_in_place$LT$syn..ty..Type$GT$17ha2513550c540b8bfE.llvm.1400451530433487160', symObjAddr: 0x1AC0, symBinAddr: 0xEE5A0, symSize: 0x6C0 }
  - { offsetInCU: 0xA8C5, offset: 0x582813, size: 0x8, addend: 0x0, symName: '__ZN4core3ptr36drop_in_place$LT$syn..expr..Expr$GT$17h28f67721c4e5d9afE', symObjAddr: 0x2180, symBinAddr: 0xEEC60, symSize: 0x2960 }
  - { offsetInCU: 0x15087, offset: 0x58CFD5, size: 0x8, addend: 0x0, symName: '__ZN4core3ptr36drop_in_place$LT$syn..mac..Macro$GT$17h06cd806352e8f75fE', symObjAddr: 0x4AE0, symBinAddr: 0xF15C0, symSize: 0x120 }
  - { offsetInCU: 0x154B7, offset: 0x58D405, size: 0x8, addend: 0x0, symName: '__ZN4core3ptr36drop_in_place$LT$syn..path..Path$GT$17h0991d43acec843f0E', symObjAddr: 0x4C00, symBinAddr: 0xF16E0, symSize: 0x150 }
  - { offsetInCU: 0x15A13, offset: 0x58D961, size: 0x8, addend: 0x0, symName: '__ZN4core3ptr37drop_in_place$LT$syn..stmt..Block$GT$17h1a4e3ed92b2fd543E', symObjAddr: 0x4D50, symBinAddr: 0xF1830, symSize: 0xD0 }
  - { offsetInCU: 0x15CEA, offset: 0x58DC38, size: 0x8, addend: 0x0, symName: '__ZN4core3ptr38drop_in_place$LT$syn..expr..Member$GT$17h46d6c6017c53b35eE', symObjAddr: 0x4E20, symBinAddr: 0xF1900, symSize: 0x30 }
  - { offsetInCU: 0x15DE6, offset: 0x58DD34, size: 0x8, addend: 0x0, symName: '__ZN4core3ptr39drop_in_place$LT$proc_macro2..Ident$GT$17ha9ff64fc13056d15E', symObjAddr: 0x4E50, symBinAddr: 0xF1930, symSize: 0x30 }
  - { offsetInCU: 0x15EC3, offset: 0x58DE11, size: 0x8, addend: 0x0, symName: '__ZN4core3ptr40drop_in_place$LT$syn..ty..ReturnType$GT$17h61320124c48c8cedE', symObjAddr: 0x4E80, symBinAddr: 0xF1960, symSize: 0x50 }
  - { offsetInCU: 0x16033, offset: 0x58DF81, size: 0x8, addend: 0x0, symName: '__ZN4core3ptr41drop_in_place$LT$syn..expr..ExprConst$GT$17hb51224a2b7ae3f93E', symObjAddr: 0x4ED0, symBinAddr: 0xF19B0, symSize: 0x180 }
  - { offsetInCU: 0x16756, offset: 0x58E6A4, size: 0x8, addend: 0x0, symName: '__ZN4core3ptr43drop_in_place$LT$proc_macro2..TokenTree$GT$17hc4cda53889ee41ebE.llvm.1400451530433487160', symObjAddr: 0x5050, symBinAddr: 0xF1B30, symSize: 0xB0 }
  - { offsetInCU: 0x16AEF, offset: 0x58EA3D, size: 0x8, addend: 0x0, symName: '__ZN4core3ptr43drop_in_place$LT$syn..path..PathSegment$GT$17h8bb09f7db5d65f06E.llvm.1400451530433487160', symObjAddr: 0x5100, symBinAddr: 0xF1BE0, symSize: 0x190 }
  - { offsetInCU: 0x17053, offset: 0x58EFA1, size: 0x8, addend: 0x0, symName: '__ZN4core3ptr44drop_in_place$LT$syn..lifetime..Lifetime$GT$17h21113c634520b199E', symObjAddr: 0x5290, symBinAddr: 0xF1D70, symSize: 0x30 }
  - { offsetInCU: 0x171EA, offset: 0x58F138, size: 0x8, addend: 0x0, symName: '__ZN4core3ptr45drop_in_place$LT$proc_macro2..TokenStream$GT$17h2b40e419bca43967E.llvm.1400451530433487160', symObjAddr: 0x52C0, symBinAddr: 0xF1DA0, symSize: 0x140 }
  - { offsetInCU: 0x17684, offset: 0x58F5D2, size: 0x8, addend: 0x0, symName: '__ZN4core3ptr45drop_in_place$LT$syn..generics..TypeParam$GT$17h89e9c76ecf851d68E', symObjAddr: 0x5400, symBinAddr: 0xF1EE0, symSize: 0x230 }
  - { offsetInCU: 0x17EF9, offset: 0x58FE47, size: 0x8, addend: 0x0, symName: '__ZN4core3ptr46drop_in_place$LT$syn..generics..ConstParam$GT$17he95c08701ad77becE', symObjAddr: 0x5630, symBinAddr: 0xF2110, symSize: 0x150 }
  - { offsetInCU: 0x1837A, offset: 0x5902C8, size: 0x8, addend: 0x0, symName: '__ZN4core3ptr47drop_in_place$LT$syn..path..GenericArgument$GT$17hcb4bbd5e05d6c3b7E.llvm.1400451530433487160', symObjAddr: 0x5780, symBinAddr: 0xF2260, symSize: 0x450 }
  - { offsetInCU: 0x190F0, offset: 0x59103E, size: 0x8, addend: 0x0, symName: '__ZN4core3ptr49drop_in_place$LT$syn..generics..LifetimeParam$GT$17hcd774c5ed2f53f67E', symObjAddr: 0x5BD0, symBinAddr: 0xF26B0, symSize: 0xF0 }
  - { offsetInCU: 0x19507, offset: 0x591455, size: 0x8, addend: 0x0, symName: '__ZN4core3ptr50drop_in_place$LT$syn..generics..TypeParamBound$GT$17h3b837fb6c20bba14E', symObjAddr: 0x5CC0, symBinAddr: 0xF27A0, symSize: 0x1E0 }
  - { offsetInCU: 0x19BBF, offset: 0x591B0D, size: 0x8, addend: 0x0, symName: '__ZN4core3ptr58drop_in_place$LT$alloc..vec..Vec$LT$syn..expr..Arm$GT$$GT$17hce51b4484b4c798bE', symObjAddr: 0x5EA0, symBinAddr: 0xF2980, symSize: 0xD0 }
  - { offsetInCU: 0x19E7F, offset: 0x591DCD, size: 0x8, addend: 0x0, symName: '__ZN4core3ptr59drop_in_place$LT$alloc..boxed..Box$LT$syn..pat..Pat$GT$$GT$17h30d5ee147b164acbE', symObjAddr: 0x5F70, symBinAddr: 0xF2A50, symSize: 0x50 }
  - { offsetInCU: 0x19FD8, offset: 0x591F26, size: 0x8, addend: 0x0, symName: '__ZN4core3ptr59drop_in_place$LT$alloc..boxed..Box$LT$syn..ty..Type$GT$$GT$17haae06f26280bf4e6E.llvm.1400451530433487160', symObjAddr: 0x5FC0, symBinAddr: 0xF2AA0, symSize: 0x50 }
  - { offsetInCU: 0x1A131, offset: 0x59207F, size: 0x8, addend: 0x0, symName: '__ZN4core3ptr61drop_in_place$LT$alloc..boxed..Box$LT$syn..expr..Expr$GT$$GT$17h1e496f1f4b08cb77E', symObjAddr: 0x6010, symBinAddr: 0xF2AF0, symSize: 0x50 }
  - { offsetInCU: 0x1A28A, offset: 0x5921D8, size: 0x8, addend: 0x0, symName: '__ZN4core3ptr61drop_in_place$LT$syn..path..ParenthesizedGenericArguments$GT$17hc98199b96e5adaa6E.llvm.1400451530433487160', symObjAddr: 0x6060, symBinAddr: 0xF2B40, symSize: 0x170 }
  - { offsetInCU: 0x1A893, offset: 0x5927E1, size: 0x8, addend: 0x0, symName: '__ZN4core3ptr63drop_in_place$LT$alloc..boxed..Box$LT$syn..lit..LitRepr$GT$$GT$17hd06bbbbc95cc5d0eE', symObjAddr: 0x61D0, symBinAddr: 0xF2CB0, symSize: 0x60 }
  - { offsetInCU: 0x1AB9A, offset: 0x592AE8, size: 0x8, addend: 0x0, symName: '__ZN4core3ptr64drop_in_place$LT$alloc..boxed..Box$LT$syn..pat..FieldPat$GT$$GT$17h5348c67f94858891E', symObjAddr: 0x6230, symBinAddr: 0xF2D10, symSize: 0x140 }
  - { offsetInCU: 0x1B29B, offset: 0x5931E9, size: 0x8, addend: 0x0, symName: '__ZN4core3ptr64drop_in_place$LT$alloc..boxed..Box$LT$syn..ty..BareFnArg$GT$$GT$17h4a72b13a3e189d87E', symObjAddr: 0x6370, symBinAddr: 0xF2E50, symSize: 0x140 }
  - { offsetInCU: 0x1B824, offset: 0x593772, size: 0x8, addend: 0x0, symName: '__ZN4core3ptr65drop_in_place$LT$alloc..vec..Vec$LT$proc_macro..TokenTree$GT$$GT$17h04383c614e3ab1fcE.llvm.1400451530433487160', symObjAddr: 0x64B0, symBinAddr: 0xF2F90, symSize: 0x110 }
  - { offsetInCU: 0x1BC1C, offset: 0x593B6A, size: 0x8, addend: 0x0, symName: '__ZN4core3ptr65drop_in_place$LT$core..option..Option$LT$syn..expr..Label$GT$$GT$17h5b07172e6de7fafaE', symObjAddr: 0x65C0, symBinAddr: 0xF30A0, symSize: 0x30 }
  - { offsetInCU: 0x1BD56, offset: 0x593CA4, size: 0x8, addend: 0x0, symName: '__ZN4core3ptr66drop_in_place$LT$core..option..Option$LT$syn..pat..PatRest$GT$$GT$17h414b7792973e1accE', symObjAddr: 0x65F0, symBinAddr: 0xF30D0, symSize: 0xE0 }
  - { offsetInCU: 0x1C07E, offset: 0x593FCC, size: 0x8, addend: 0x0, symName: '__ZN4core3ptr67drop_in_place$LT$alloc..boxed..Box$LT$syn..expr..FieldValue$GT$$GT$17h4f90b5bdfa2ac8f9E', symObjAddr: 0x66D0, symBinAddr: 0xF31B0, symSize: 0x140 }
  - { offsetInCU: 0x1C606, offset: 0x594554, size: 0x8, addend: 0x0, symName: '__ZN4core3ptr68drop_in_place$LT$alloc..boxed..Box$LT$syn..path..PathSegment$GT$$GT$17he4977659d94b77d4E', symObjAddr: 0x6810, symBinAddr: 0xF32F0, symSize: 0x180 }
  - { offsetInCU: 0x1CCCF, offset: 0x594C1D, size: 0x8, addend: 0x0, symName: '__ZN4core3ptr70drop_in_place$LT$core..option..Option$LT$syn..ty..BareVariadic$GT$$GT$17h0a1bd3d5468840beE', symObjAddr: 0x6990, symBinAddr: 0xF3470, symSize: 0x100 }
  - { offsetInCU: 0x1D13A, offset: 0x595088, size: 0x8, addend: 0x0, symName: '__ZN4core3ptr72drop_in_place$LT$alloc..boxed..Box$LT$syn..path..GenericArgument$GT$$GT$17ha0c09ac18b7d41b5E', symObjAddr: 0x6A90, symBinAddr: 0xF3570, symSize: 0x2B0 }
  - { offsetInCU: 0x1DB4B, offset: 0x595A99, size: 0x8, addend: 0x0, symName: '__ZN4core3ptr72drop_in_place$LT$core..option..Option$LT$syn..lifetime..Lifetime$GT$$GT$17h7990d056ab09c423E', symObjAddr: 0x6D40, symBinAddr: 0xF3820, symSize: 0x30 }
  - { offsetInCU: 0x1DC66, offset: 0x595BB4, size: 0x8, addend: 0x0, symName: '__ZN4core3ptr73drop_in_place$LT$alloc..boxed..Box$LT$syn..generics..GenericParam$GT$$GT$17h20b807de2b91e985E', symObjAddr: 0x6D70, symBinAddr: 0xF3850, symSize: 0x80 }
  - { offsetInCU: 0x1DDDC, offset: 0x595D2A, size: 0x8, addend: 0x0, symName: '__ZN4core3ptr75drop_in_place$LT$alloc..boxed..Box$LT$syn..generics..TypeParamBound$GT$$GT$17h1da96ef6f4e863ddE', symObjAddr: 0x6DF0, symBinAddr: 0xF38D0, symSize: 0x1C0 }
  - { offsetInCU: 0x1E526, offset: 0x596474, size: 0x8, addend: 0x0, symName: '__ZN4core3ptr86drop_in_place$LT$syn..punctuated..Punctuated$LT$syn..pat..Pat$C$syn..token..Or$GT$$GT$17h93831ed2944e749dE', symObjAddr: 0x6FB0, symBinAddr: 0xF3A90, symSize: 0x120 }
  - { offsetInCU: 0x1E9A1, offset: 0x5968EF, size: 0x8, addend: 0x0, symName: '__ZN4core3ptr87drop_in_place$LT$core..option..Option$LT$alloc..boxed..Box$LT$syn..pat..Pat$GT$$GT$$GT$17hce6b6652aeac84f1E', symObjAddr: 0x70D0, symBinAddr: 0xF3BB0, symSize: 0x50 }
  - { offsetInCU: 0x1EB11, offset: 0x596A5F, size: 0x8, addend: 0x0, symName: '__ZN4core3ptr87drop_in_place$LT$core..option..Option$LT$alloc..boxed..Box$LT$syn..ty..Type$GT$$GT$$GT$17h8eb6b9b10cf34482E.llvm.1400451530433487160', symObjAddr: 0x7120, symBinAddr: 0xF3C00, symSize: 0x50 }
  - { offsetInCU: 0x1EC81, offset: 0x596BCF, size: 0x8, addend: 0x0, symName: '__ZN4core3ptr89drop_in_place$LT$core..option..Option$LT$alloc..boxed..Box$LT$syn..expr..Expr$GT$$GT$$GT$17hadda1967b0b98c14E', symObjAddr: 0x7170, symBinAddr: 0xF3C50, symSize: 0x50 }
  - { offsetInCU: 0x1EE2F, offset: 0x596D7D, size: 0x8, addend: 0x0, symName: '__ZN4core3ptr89drop_in_place$LT$syn..punctuated..Punctuated$LT$syn..pat..Pat$C$syn..token..Comma$GT$$GT$17h4ffb14edfedf5273E', symObjAddr: 0x71C0, symBinAddr: 0xF3CA0, symSize: 0x120 }
  - { offsetInCU: 0x1F2FF, offset: 0x59724D, size: 0x8, addend: 0x0, symName: '__ZN4core3ptr91drop_in_place$LT$syn..punctuated..Punctuated$LT$syn..expr..Expr$C$syn..token..Comma$GT$$GT$17h48360bdc222b3963E', symObjAddr: 0x72E0, symBinAddr: 0xF3DC0, symSize: 0x120 }
  - { offsetInCU: 0x1F78D, offset: 0x5976DB, size: 0x8, addend: 0x0, symName: '__ZN4core3ptr94drop_in_place$LT$syn..punctuated..Punctuated$LT$syn..pat..FieldPat$C$syn..token..Comma$GT$$GT$17h1e553a25ac0bc4e1E', symObjAddr: 0x7400, symBinAddr: 0xF3EE0, symSize: 0xF0 }
  - { offsetInCU: 0x1FA8C, offset: 0x5979DA, size: 0x8, addend: 0x0, symName: '__ZN4core3ptr94drop_in_place$LT$syn..punctuated..Punctuated$LT$syn..ty..BareFnArg$C$syn..token..Comma$GT$$GT$17ha469bb07bab88749E', symObjAddr: 0x74F0, symBinAddr: 0xF3FD0, symSize: 0xF0 }
  - { offsetInCU: 0x1FD8D, offset: 0x597CDB, size: 0x8, addend: 0x0, symName: '__ZN4core3ptr96drop_in_place$LT$core..option..Option$LT$alloc..boxed..Box$LT$syn..path..PathSegment$GT$$GT$$GT$17h3fb622bd55682ae2E', symObjAddr: 0x75E0, symBinAddr: 0xF40C0, symSize: 0x50 }
  - { offsetInCU: 0x1FEFD, offset: 0x597E4B, size: 0x8, addend: 0x0, symName: '__ZN4core3ptr97drop_in_place$LT$syn..punctuated..Punctuated$LT$syn..expr..FieldValue$C$syn..token..Comma$GT$$GT$17ha2df63eb673a5104E', symObjAddr: 0x7630, symBinAddr: 0xF4110, symSize: 0xF0 }
  - { offsetInCU: 0x20276, offset: 0x5981C4, size: 0x8, addend: 0x0, symName: '__ZN4core3ptr98drop_in_place$LT$syn..punctuated..Punctuated$LT$syn..lifetime..Lifetime$C$syn..token..Plus$GT$$GT$17h937540fc49049303E', symObjAddr: 0x7720, symBinAddr: 0xF4200, symSize: 0xD0 }
  - { offsetInCU: 0x230B1, offset: 0x59AFFF, size: 0x8, addend: 0x0, symName: '__ZN86_$LT$alloc..vec..into_iter..IntoIter$LT$T$C$A$GT$$u20$as$u20$core..ops..drop..Drop$GT$4drop17h11573d06129089d4E', symObjAddr: 0x7810, symBinAddr: 0xF42D0, symSize: 0x110 }
  - { offsetInCU: 0x234A8, offset: 0x59B3F6, size: 0x8, addend: 0x0, symName: '__ZN86_$LT$alloc..vec..into_iter..IntoIter$LT$T$C$A$GT$$u20$as$u20$core..ops..drop..Drop$GT$4drop17h669bd6cdb1e246b6E', symObjAddr: 0x7920, symBinAddr: 0xF43E0, symSize: 0xE0 }
  - { offsetInCU: 0x23813, offset: 0x59B761, size: 0x8, addend: 0x0, symName: '__ZN86_$LT$alloc..vec..into_iter..IntoIter$LT$T$C$A$GT$$u20$as$u20$core..ops..drop..Drop$GT$4drop17h77126a9a8fe85125E', symObjAddr: 0x7A00, symBinAddr: 0xF44C0, symSize: 0xD0 }
  - { offsetInCU: 0x23B7E, offset: 0x59BACC, size: 0x8, addend: 0x0, symName: '__ZN86_$LT$alloc..vec..into_iter..IntoIter$LT$T$C$A$GT$$u20$as$u20$core..ops..drop..Drop$GT$4drop17h8ea2ea7aca5af4f7E', symObjAddr: 0x7AD0, symBinAddr: 0xF4590, symSize: 0xCD }
  - { offsetInCU: 0x1E, offset: 0x5A5946, size: 0x8, addend: 0x0, symName: '__ZN111_$LT$syn..punctuated..Punctuated$LT$T$C$P$GT$$u20$as$u20$core..iter..traits..collect..FromIterator$LT$T$GT$$GT$9from_iter17h091bec2eb52416dcE', symObjAddr: 0x0, symBinAddr: 0xF4660, symSize: 0x300 }
  - { offsetInCU: 0x1B92, offset: 0x5A74BA, size: 0x8, addend: 0x0, symName: '__ZN4core3ptr100drop_in_place$LT$core..option..Option$LT$alloc..boxed..Box$LT$syn..path..GenericArgument$GT$$GT$$GT$17h8de8466e8995d15dE', symObjAddr: 0x300, symBinAddr: 0xF4960, symSize: 0x50 }
  - { offsetInCU: 0x1D5F, offset: 0x5A7687, size: 0x8, addend: 0x0, symName: '__ZN4core3ptr100drop_in_place$LT$syn..punctuated..Punctuated$LT$syn..path..PathSegment$C$syn..token..PathSep$GT$$GT$17h6d00af71c1f2a8ffE', symObjAddr: 0x350, symBinAddr: 0xF49B0, symSize: 0x120 }
  - { offsetInCU: 0x21CE, offset: 0x5A7AF6, size: 0x8, addend: 0x0, symName: '__ZN4core3ptr102drop_in_place$LT$syn..punctuated..Punctuated$LT$syn..path..GenericArgument$C$syn..token..Comma$GT$$GT$17hb5d151e802632153E', symObjAddr: 0x470, symBinAddr: 0xF4AD0, symSize: 0xF0 }
  - { offsetInCU: 0x24EE, offset: 0x5A7E16, size: 0x8, addend: 0x0, symName: '__ZN4core3ptr103drop_in_place$LT$core..option..Option$LT$alloc..boxed..Box$LT$syn..generics..TypeParamBound$GT$$GT$$GT$17hcc99ba2c5104ae4dE', symObjAddr: 0x560, symBinAddr: 0xF4BC0, symSize: 0x50 }
  - { offsetInCU: 0x26F9, offset: 0x5A8021, size: 0x8, addend: 0x0, symName: '__ZN4core3ptr103drop_in_place$LT$syn..punctuated..Punctuated$LT$syn..generics..GenericParam$C$syn..token..Comma$GT$$GT$17hd0fc887a95cd450dE', symObjAddr: 0x5B0, symBinAddr: 0xF4C10, symSize: 0xF0 }
  - { offsetInCU: 0x2C8F, offset: 0x5A85B7, size: 0x8, addend: 0x0, symName: '__ZN4core3ptr104drop_in_place$LT$syn..punctuated..Punctuated$LT$syn..generics..TypeParamBound$C$syn..token..Plus$GT$$GT$17h1ca6c643f4a14a56E', symObjAddr: 0x6A0, symBinAddr: 0xF4D00, symSize: 0x270 }
  - { offsetInCU: 0x3724, offset: 0x5A904C, size: 0x8, addend: 0x0, symName: '__ZN4core3ptr34drop_in_place$LT$syn..lit..Lit$GT$17h958a4e0583def0c2E', symObjAddr: 0x910, symBinAddr: 0xF4F70, symSize: 0x120 }
  - { offsetInCU: 0x3C31, offset: 0x5A9559, size: 0x8, addend: 0x0, symName: '__ZN4core3ptr34drop_in_place$LT$syn..pat..Pat$GT$17h51dd771ca6732d24E', symObjAddr: 0xA30, symBinAddr: 0xF5090, symSize: 0x1240 }
  - { offsetInCU: 0x8B68, offset: 0x5AE490, size: 0x8, addend: 0x0, symName: '__ZN4core3ptr34drop_in_place$LT$syn..ty..Type$GT$17ha2513550c540b8bfE', symObjAddr: 0x1C70, symBinAddr: 0xF62D0, symSize: 0x6C0 }
  - { offsetInCU: 0xAA72, offset: 0x5B039A, size: 0x8, addend: 0x0, symName: '__ZN4core3ptr36drop_in_place$LT$syn..expr..Expr$GT$17h28f67721c4e5d9afE', symObjAddr: 0x2330, symBinAddr: 0xF6990, symSize: 0x2960 }
  - { offsetInCU: 0x15234, offset: 0x5BAB5C, size: 0x8, addend: 0x0, symName: '__ZN4core3ptr36drop_in_place$LT$syn..mac..Macro$GT$17h06cd806352e8f75fE', symObjAddr: 0x4C90, symBinAddr: 0xF92F0, symSize: 0x120 }
  - { offsetInCU: 0x15664, offset: 0x5BAF8C, size: 0x8, addend: 0x0, symName: '__ZN4core3ptr36drop_in_place$LT$syn..path..Path$GT$17h0991d43acec843f0E', symObjAddr: 0x4DB0, symBinAddr: 0xF9410, symSize: 0x150 }
  - { offsetInCU: 0x15BC0, offset: 0x5BB4E8, size: 0x8, addend: 0x0, symName: '__ZN4core3ptr37drop_in_place$LT$syn..stmt..Block$GT$17h1a4e3ed92b2fd543E', symObjAddr: 0x4F00, symBinAddr: 0xF9560, symSize: 0xD0 }
  - { offsetInCU: 0x15E97, offset: 0x5BB7BF, size: 0x8, addend: 0x0, symName: '__ZN4core3ptr38drop_in_place$LT$syn..expr..Member$GT$17h46d6c6017c53b35eE', symObjAddr: 0x4FD0, symBinAddr: 0xF9630, symSize: 0x30 }
  - { offsetInCU: 0x15F93, offset: 0x5BB8BB, size: 0x8, addend: 0x0, symName: '__ZN4core3ptr39drop_in_place$LT$proc_macro2..Ident$GT$17ha9ff64fc13056d15E', symObjAddr: 0x5000, symBinAddr: 0xF9660, symSize: 0x30 }
  - { offsetInCU: 0x16070, offset: 0x5BB998, size: 0x8, addend: 0x0, symName: '__ZN4core3ptr40drop_in_place$LT$syn..ty..ReturnType$GT$17h61320124c48c8cedE', symObjAddr: 0x5030, symBinAddr: 0xF9690, symSize: 0x50 }
  - { offsetInCU: 0x161E0, offset: 0x5BBB08, size: 0x8, addend: 0x0, symName: '__ZN4core3ptr41drop_in_place$LT$syn..expr..ExprConst$GT$17hb51224a2b7ae3f93E', symObjAddr: 0x5080, symBinAddr: 0xF96E0, symSize: 0x180 }
  - { offsetInCU: 0x1680B, offset: 0x5BC133, size: 0x8, addend: 0x0, symName: '__ZN4core3ptr43drop_in_place$LT$syn..path..PathSegment$GT$17h8bb09f7db5d65f06E', symObjAddr: 0x5200, symBinAddr: 0xF9860, symSize: 0x190 }
  - { offsetInCU: 0x16D6F, offset: 0x5BC697, size: 0x8, addend: 0x0, symName: '__ZN4core3ptr44drop_in_place$LT$syn..lifetime..Lifetime$GT$17h21113c634520b199E', symObjAddr: 0x5390, symBinAddr: 0xF99F0, symSize: 0x30 }
  - { offsetInCU: 0x16FA1, offset: 0x5BC8C9, size: 0x8, addend: 0x0, symName: '__ZN4core3ptr45drop_in_place$LT$proc_macro2..TokenStream$GT$17h2b40e419bca43967E', symObjAddr: 0x53C0, symBinAddr: 0xF9A20, symSize: 0x140 }
  - { offsetInCU: 0x1743B, offset: 0x5BCD63, size: 0x8, addend: 0x0, symName: '__ZN4core3ptr45drop_in_place$LT$syn..generics..TypeParam$GT$17h89e9c76ecf851d68E', symObjAddr: 0x5500, symBinAddr: 0xF9B60, symSize: 0x230 }
  - { offsetInCU: 0x17CB0, offset: 0x5BD5D8, size: 0x8, addend: 0x0, symName: '__ZN4core3ptr46drop_in_place$LT$syn..generics..ConstParam$GT$17he95c08701ad77becE', symObjAddr: 0x5730, symBinAddr: 0xF9D90, symSize: 0x150 }
  - { offsetInCU: 0x18131, offset: 0x5BDA59, size: 0x8, addend: 0x0, symName: '__ZN4core3ptr47drop_in_place$LT$syn..path..GenericArgument$GT$17hcb4bbd5e05d6c3b7E', symObjAddr: 0x5880, symBinAddr: 0xF9EE0, symSize: 0x450 }
  - { offsetInCU: 0x18EA7, offset: 0x5BE7CF, size: 0x8, addend: 0x0, symName: '__ZN4core3ptr49drop_in_place$LT$syn..generics..LifetimeParam$GT$17hcd774c5ed2f53f67E', symObjAddr: 0x5CD0, symBinAddr: 0xFA330, symSize: 0xF0 }
  - { offsetInCU: 0x192BE, offset: 0x5BEBE6, size: 0x8, addend: 0x0, symName: '__ZN4core3ptr50drop_in_place$LT$syn..generics..TypeParamBound$GT$17h3b837fb6c20bba14E', symObjAddr: 0x5DC0, symBinAddr: 0xFA420, symSize: 0x1E0 }
  - { offsetInCU: 0x19976, offset: 0x5BF29E, size: 0x8, addend: 0x0, symName: '__ZN4core3ptr58drop_in_place$LT$alloc..vec..Vec$LT$syn..expr..Arm$GT$$GT$17hce51b4484b4c798bE', symObjAddr: 0x5FA0, symBinAddr: 0xFA600, symSize: 0xD0 }
  - { offsetInCU: 0x19C36, offset: 0x5BF55E, size: 0x8, addend: 0x0, symName: '__ZN4core3ptr59drop_in_place$LT$alloc..boxed..Box$LT$syn..pat..Pat$GT$$GT$17h30d5ee147b164acbE', symObjAddr: 0x6070, symBinAddr: 0xFA6D0, symSize: 0x50 }
  - { offsetInCU: 0x19D8F, offset: 0x5BF6B7, size: 0x8, addend: 0x0, symName: '__ZN4core3ptr59drop_in_place$LT$alloc..boxed..Box$LT$syn..ty..Type$GT$$GT$17haae06f26280bf4e6E', symObjAddr: 0x60C0, symBinAddr: 0xFA720, symSize: 0x50 }
  - { offsetInCU: 0x19EE8, offset: 0x5BF810, size: 0x8, addend: 0x0, symName: '__ZN4core3ptr61drop_in_place$LT$alloc..boxed..Box$LT$syn..expr..Expr$GT$$GT$17h1e496f1f4b08cb77E', symObjAddr: 0x6110, symBinAddr: 0xFA770, symSize: 0x50 }
  - { offsetInCU: 0x1A041, offset: 0x5BF969, size: 0x8, addend: 0x0, symName: '__ZN4core3ptr61drop_in_place$LT$syn..path..ParenthesizedGenericArguments$GT$17hc98199b96e5adaa6E', symObjAddr: 0x6160, symBinAddr: 0xFA7C0, symSize: 0x170 }
  - { offsetInCU: 0x1A64A, offset: 0x5BFF72, size: 0x8, addend: 0x0, symName: '__ZN4core3ptr63drop_in_place$LT$alloc..boxed..Box$LT$syn..lit..LitRepr$GT$$GT$17hd06bbbbc95cc5d0eE', symObjAddr: 0x62D0, symBinAddr: 0xFA930, symSize: 0x60 }
  - { offsetInCU: 0x1A951, offset: 0x5C0279, size: 0x8, addend: 0x0, symName: '__ZN4core3ptr64drop_in_place$LT$alloc..boxed..Box$LT$syn..pat..FieldPat$GT$$GT$17h5348c67f94858891E', symObjAddr: 0x6330, symBinAddr: 0xFA990, symSize: 0x140 }
  - { offsetInCU: 0x1B052, offset: 0x5C097A, size: 0x8, addend: 0x0, symName: '__ZN4core3ptr64drop_in_place$LT$alloc..boxed..Box$LT$syn..ty..BareFnArg$GT$$GT$17h4a72b13a3e189d87E', symObjAddr: 0x6470, symBinAddr: 0xFAAD0, symSize: 0x140 }
  - { offsetInCU: 0x1B5DB, offset: 0x5C0F03, size: 0x8, addend: 0x0, symName: '__ZN4core3ptr65drop_in_place$LT$alloc..vec..Vec$LT$proc_macro..TokenTree$GT$$GT$17h04383c614e3ab1fcE', symObjAddr: 0x65B0, symBinAddr: 0xFAC10, symSize: 0x110 }
  - { offsetInCU: 0x1B9D3, offset: 0x5C12FB, size: 0x8, addend: 0x0, symName: '__ZN4core3ptr65drop_in_place$LT$core..option..Option$LT$syn..expr..Label$GT$$GT$17h5b07172e6de7fafaE', symObjAddr: 0x66C0, symBinAddr: 0xFAD20, symSize: 0x30 }
  - { offsetInCU: 0x1BB0D, offset: 0x5C1435, size: 0x8, addend: 0x0, symName: '__ZN4core3ptr66drop_in_place$LT$core..option..Option$LT$syn..pat..PatRest$GT$$GT$17h414b7792973e1accE', symObjAddr: 0x66F0, symBinAddr: 0xFAD50, symSize: 0xE0 }
  - { offsetInCU: 0x1BE35, offset: 0x5C175D, size: 0x8, addend: 0x0, symName: '__ZN4core3ptr67drop_in_place$LT$alloc..boxed..Box$LT$syn..expr..FieldValue$GT$$GT$17h4f90b5bdfa2ac8f9E', symObjAddr: 0x67D0, symBinAddr: 0xFAE30, symSize: 0x140 }
  - { offsetInCU: 0x1C3BD, offset: 0x5C1CE5, size: 0x8, addend: 0x0, symName: '__ZN4core3ptr68drop_in_place$LT$alloc..boxed..Box$LT$syn..path..PathSegment$GT$$GT$17he4977659d94b77d4E', symObjAddr: 0x6910, symBinAddr: 0xFAF70, symSize: 0x180 }
  - { offsetInCU: 0x1CA86, offset: 0x5C23AE, size: 0x8, addend: 0x0, symName: '__ZN4core3ptr70drop_in_place$LT$core..option..Option$LT$syn..ty..BareVariadic$GT$$GT$17h0a1bd3d5468840beE', symObjAddr: 0x6A90, symBinAddr: 0xFB0F0, symSize: 0x100 }
  - { offsetInCU: 0x1CEF1, offset: 0x5C2819, size: 0x8, addend: 0x0, symName: '__ZN4core3ptr72drop_in_place$LT$alloc..boxed..Box$LT$syn..path..GenericArgument$GT$$GT$17ha0c09ac18b7d41b5E', symObjAddr: 0x6B90, symBinAddr: 0xFB1F0, symSize: 0x2B0 }
  - { offsetInCU: 0x1D902, offset: 0x5C322A, size: 0x8, addend: 0x0, symName: '__ZN4core3ptr72drop_in_place$LT$core..option..Option$LT$syn..lifetime..Lifetime$GT$$GT$17h7990d056ab09c423E', symObjAddr: 0x6E40, symBinAddr: 0xFB4A0, symSize: 0x30 }
  - { offsetInCU: 0x1DA1D, offset: 0x5C3345, size: 0x8, addend: 0x0, symName: '__ZN4core3ptr73drop_in_place$LT$alloc..boxed..Box$LT$syn..generics..GenericParam$GT$$GT$17h20b807de2b91e985E', symObjAddr: 0x6E70, symBinAddr: 0xFB4D0, symSize: 0x80 }
  - { offsetInCU: 0x1DB93, offset: 0x5C34BB, size: 0x8, addend: 0x0, symName: '__ZN4core3ptr75drop_in_place$LT$alloc..boxed..Box$LT$syn..generics..TypeParamBound$GT$$GT$17h1da96ef6f4e863ddE', symObjAddr: 0x6EF0, symBinAddr: 0xFB550, symSize: 0x1C0 }
  - { offsetInCU: 0x1E2DD, offset: 0x5C3C05, size: 0x8, addend: 0x0, symName: '__ZN4core3ptr86drop_in_place$LT$syn..punctuated..Punctuated$LT$syn..pat..Pat$C$syn..token..Or$GT$$GT$17h93831ed2944e749dE', symObjAddr: 0x70B0, symBinAddr: 0xFB710, symSize: 0x120 }
  - { offsetInCU: 0x1E758, offset: 0x5C4080, size: 0x8, addend: 0x0, symName: '__ZN4core3ptr87drop_in_place$LT$core..option..Option$LT$alloc..boxed..Box$LT$syn..pat..Pat$GT$$GT$$GT$17hce6b6652aeac84f1E', symObjAddr: 0x71D0, symBinAddr: 0xFB830, symSize: 0x50 }
  - { offsetInCU: 0x1E8C8, offset: 0x5C41F0, size: 0x8, addend: 0x0, symName: '__ZN4core3ptr87drop_in_place$LT$core..option..Option$LT$alloc..boxed..Box$LT$syn..ty..Type$GT$$GT$$GT$17h8eb6b9b10cf34482E', symObjAddr: 0x7220, symBinAddr: 0xFB880, symSize: 0x50 }
  - { offsetInCU: 0x1EA38, offset: 0x5C4360, size: 0x8, addend: 0x0, symName: '__ZN4core3ptr89drop_in_place$LT$core..option..Option$LT$alloc..boxed..Box$LT$syn..expr..Expr$GT$$GT$$GT$17hadda1967b0b98c14E', symObjAddr: 0x7270, symBinAddr: 0xFB8D0, symSize: 0x50 }
  - { offsetInCU: 0x1EBE6, offset: 0x5C450E, size: 0x8, addend: 0x0, symName: '__ZN4core3ptr89drop_in_place$LT$syn..punctuated..Punctuated$LT$syn..pat..Pat$C$syn..token..Comma$GT$$GT$17h4ffb14edfedf5273E', symObjAddr: 0x72C0, symBinAddr: 0xFB920, symSize: 0x120 }
  - { offsetInCU: 0x1F0B6, offset: 0x5C49DE, size: 0x8, addend: 0x0, symName: '__ZN4core3ptr91drop_in_place$LT$syn..punctuated..Punctuated$LT$syn..expr..Expr$C$syn..token..Comma$GT$$GT$17h48360bdc222b3963E', symObjAddr: 0x73E0, symBinAddr: 0xFBA40, symSize: 0x120 }
  - { offsetInCU: 0x1F544, offset: 0x5C4E6C, size: 0x8, addend: 0x0, symName: '__ZN4core3ptr94drop_in_place$LT$syn..punctuated..Punctuated$LT$syn..pat..FieldPat$C$syn..token..Comma$GT$$GT$17h1e553a25ac0bc4e1E', symObjAddr: 0x7500, symBinAddr: 0xFBB60, symSize: 0xF0 }
  - { offsetInCU: 0x1F843, offset: 0x5C516B, size: 0x8, addend: 0x0, symName: '__ZN4core3ptr94drop_in_place$LT$syn..punctuated..Punctuated$LT$syn..ty..BareFnArg$C$syn..token..Comma$GT$$GT$17ha469bb07bab88749E', symObjAddr: 0x75F0, symBinAddr: 0xFBC50, symSize: 0xF0 }
  - { offsetInCU: 0x1FB44, offset: 0x5C546C, size: 0x8, addend: 0x0, symName: '__ZN4core3ptr96drop_in_place$LT$core..option..Option$LT$alloc..boxed..Box$LT$syn..path..PathSegment$GT$$GT$$GT$17h3fb622bd55682ae2E', symObjAddr: 0x76E0, symBinAddr: 0xFBD40, symSize: 0x50 }
  - { offsetInCU: 0x1FCB4, offset: 0x5C55DC, size: 0x8, addend: 0x0, symName: '__ZN4core3ptr97drop_in_place$LT$syn..punctuated..Punctuated$LT$syn..expr..FieldValue$C$syn..token..Comma$GT$$GT$17ha2df63eb673a5104E', symObjAddr: 0x7730, symBinAddr: 0xFBD90, symSize: 0xF0 }
  - { offsetInCU: 0x2002D, offset: 0x5C5955, size: 0x8, addend: 0x0, symName: '__ZN4core3ptr98drop_in_place$LT$syn..punctuated..Punctuated$LT$syn..lifetime..Lifetime$C$syn..token..Plus$GT$$GT$17h937540fc49049303E', symObjAddr: 0x7820, symBinAddr: 0xFBE80, symSize: 0xC6 }
  - { offsetInCU: 0x22B55, offset: 0x5C847D, size: 0x8, addend: 0x0, symName: '__ZN111_$LT$syn..punctuated..Punctuated$LT$T$C$P$GT$$u20$as$u20$core..iter..traits..collect..FromIterator$LT$T$GT$$GT$9from_iter17h091bec2eb52416dcE', symObjAddr: 0x0, symBinAddr: 0xF4660, symSize: 0x300 }
  - { offsetInCU: 0x1E, offset: 0x5D238E, size: 0x8, addend: 0x0, symName: __ZN4core3ops8function6FnOnce9call_once17hda2bfe80c9a0d18fE.llvm.16923071543542801871, symObjAddr: 0x0, symBinAddr: 0xFBF50, symSize: 0x60 }
  - { offsetInCU: 0x1501, offset: 0x5D3871, size: 0x8, addend: 0x0, symName: '__ZN4core3ptr39drop_in_place$LT$proc_macro2..Ident$GT$17ha9ff64fc13056d15E', symObjAddr: 0x60, symBinAddr: 0xFBFB0, symSize: 0x30 }
  - { offsetInCU: 0x16AB, offset: 0x5D3A1B, size: 0x8, addend: 0x0, symName: '__ZN4core3ptr60drop_in_place$LT$wasm_bindgen_backend..encode..LocalFile$GT$17h321e60f974a163a5E', symObjAddr: 0x90, symBinAddr: 0xFBFE0, symSize: 0x50 }
  - { offsetInCU: 0x265A, offset: 0x5D49CA, size: 0x8, addend: 0x0, symName: __ZN4core3ops8function6FnOnce9call_once17hda2bfe80c9a0d18fE.llvm.16923071543542801871, symObjAddr: 0x0, symBinAddr: 0xFBF50, symSize: 0x60 }
  - { offsetInCU: 0x3BC0, offset: 0x5D5F30, size: 0x8, addend: 0x0, symName: '__ZN9hashbrown3map28HashMap$LT$K$C$V$C$S$C$A$GT$6insert17h0b640edf6fc0dfcaE', symObjAddr: 0x260, symBinAddr: 0xFC030, symSize: 0x220 }
  - { offsetInCU: 0x4B65, offset: 0x5D6ED5, size: 0x8, addend: 0x0, symName: '__ZN9hashbrown3map28HashMap$LT$K$C$V$C$S$C$A$GT$6insert17h6a80f73d0312c44fE', symObjAddr: 0x480, symBinAddr: 0xFC250, symSize: 0x300 }
  - { offsetInCU: 0x5B25, offset: 0x5D7E95, size: 0x8, addend: 0x0, symName: '__ZN9hashbrown3map28HashMap$LT$K$C$V$C$S$C$A$GT$6insert17h8b10aec0ff55ccbdE', symObjAddr: 0x780, symBinAddr: 0xFC550, symSize: 0x338 }
  - { offsetInCU: 0x1E, offset: 0x5D97AB, size: 0x8, addend: 0x0, symName: __ZN3syn11parse_quote5parse17h531e8b1db2cfce75E, symObjAddr: 0x0, symBinAddr: 0xFC890, symSize: 0x420 }
  - { offsetInCU: 0x1B8E, offset: 0x5DB31B, size: 0x8, addend: 0x0, symName: '__ZN4core3ptr100drop_in_place$LT$core..option..Option$LT$alloc..boxed..Box$LT$syn..path..GenericArgument$GT$$GT$$GT$17h8de8466e8995d15dE', symObjAddr: 0x470, symBinAddr: 0xFCCB0, symSize: 0x50 }
  - { offsetInCU: 0x1D5B, offset: 0x5DB4E8, size: 0x8, addend: 0x0, symName: '__ZN4core3ptr102drop_in_place$LT$syn..punctuated..Punctuated$LT$syn..path..GenericArgument$C$syn..token..Comma$GT$$GT$17hb5d151e802632153E', symObjAddr: 0x4C0, symBinAddr: 0xFCD00, symSize: 0xF0 }
  - { offsetInCU: 0x207B, offset: 0x5DB808, size: 0x8, addend: 0x0, symName: '__ZN4core3ptr103drop_in_place$LT$core..option..Option$LT$alloc..boxed..Box$LT$syn..generics..TypeParamBound$GT$$GT$$GT$17hcc99ba2c5104ae4dE', symObjAddr: 0x5B0, symBinAddr: 0xFCDF0, symSize: 0x50 }
  - { offsetInCU: 0x2286, offset: 0x5DBA13, size: 0x8, addend: 0x0, symName: '__ZN4core3ptr103drop_in_place$LT$syn..punctuated..Punctuated$LT$syn..generics..GenericParam$C$syn..token..Comma$GT$$GT$17hd0fc887a95cd450dE', symObjAddr: 0x600, symBinAddr: 0xFCE40, symSize: 0xF0 }
  - { offsetInCU: 0x285A, offset: 0x5DBFE7, size: 0x8, addend: 0x0, symName: '__ZN4core3ptr104drop_in_place$LT$syn..punctuated..Punctuated$LT$syn..generics..TypeParamBound$C$syn..token..Plus$GT$$GT$17h1ca6c643f4a14a56E', symObjAddr: 0x6F0, symBinAddr: 0xFCF30, symSize: 0x260 }
  - { offsetInCU: 0x32A4, offset: 0x5DCA31, size: 0x8, addend: 0x0, symName: '__ZN4core3ptr34drop_in_place$LT$syn..lit..Lit$GT$17h958a4e0583def0c2E', symObjAddr: 0x950, symBinAddr: 0xFD190, symSize: 0x120 }
  - { offsetInCU: 0x3792, offset: 0x5DCF1F, size: 0x8, addend: 0x0, symName: '__ZN4core3ptr34drop_in_place$LT$syn..pat..Pat$GT$17h51dd771ca6732d24E', symObjAddr: 0xA70, symBinAddr: 0xFD2B0, symSize: 0xF70 }
  - { offsetInCU: 0x76AB, offset: 0x5E0E38, size: 0x8, addend: 0x0, symName: '__ZN4core3ptr34drop_in_place$LT$syn..ty..Type$GT$17ha2513550c540b8bfE', symObjAddr: 0x19E0, symBinAddr: 0xFE220, symSize: 0x5A0 }
  - { offsetInCU: 0x9047, offset: 0x5E27D4, size: 0x8, addend: 0x0, symName: '__ZN4core3ptr36drop_in_place$LT$syn..expr..Expr$GT$17h28f67721c4e5d9afE', symObjAddr: 0x1F80, symBinAddr: 0xFE7C0, symSize: 0x2760 }
  - { offsetInCU: 0x12D3E, offset: 0x5EC4CB, size: 0x8, addend: 0x0, symName: '__ZN4core3ptr36drop_in_place$LT$syn..mac..Macro$GT$17h06cd806352e8f75fE', symObjAddr: 0x46E0, symBinAddr: 0x100F20, symSize: 0x110 }
  - { offsetInCU: 0x131DB, offset: 0x5EC968, size: 0x8, addend: 0x0, symName: '__ZN4core3ptr36drop_in_place$LT$syn..path..Path$GT$17h0991d43acec843f0E', symObjAddr: 0x47F0, symBinAddr: 0x101030, symSize: 0x280 }
  - { offsetInCU: 0x13C88, offset: 0x5ED415, size: 0x8, addend: 0x0, symName: '__ZN4core3ptr37drop_in_place$LT$syn..stmt..Block$GT$17h1a4e3ed92b2fd543E', symObjAddr: 0x4A70, symBinAddr: 0x1012B0, symSize: 0xD0 }
  - { offsetInCU: 0x13F9D, offset: 0x5ED72A, size: 0x8, addend: 0x0, symName: '__ZN4core3ptr38drop_in_place$LT$syn..error..Error$GT$17hd4bccfd1bb488c08E', symObjAddr: 0x4B40, symBinAddr: 0x101380, symSize: 0x90 }
  - { offsetInCU: 0x1425E, offset: 0x5ED9EB, size: 0x8, addend: 0x0, symName: '__ZN4core3ptr38drop_in_place$LT$syn..expr..Member$GT$17h46d6c6017c53b35eE', symObjAddr: 0x4BD0, symBinAddr: 0x101410, symSize: 0x30 }
  - { offsetInCU: 0x1435A, offset: 0x5EDAE7, size: 0x8, addend: 0x0, symName: '__ZN4core3ptr39drop_in_place$LT$proc_macro2..Ident$GT$17ha9ff64fc13056d15E', symObjAddr: 0x4C00, symBinAddr: 0x101440, symSize: 0x30 }
  - { offsetInCU: 0x1456D, offset: 0x5EDCFA, size: 0x8, addend: 0x0, symName: '__ZN4core3ptr39drop_in_place$LT$syn..buffer..Entry$GT$17h56de8c1f6c845c72E', symObjAddr: 0x4C30, symBinAddr: 0x101470, symSize: 0xB0 }
  - { offsetInCU: 0x148F8, offset: 0x5EE085, size: 0x8, addend: 0x0, symName: '__ZN4core3ptr40drop_in_place$LT$syn..ty..ReturnType$GT$17h61320124c48c8cedE', symObjAddr: 0x4CE0, symBinAddr: 0x101520, symSize: 0x50 }
  - { offsetInCU: 0x14A68, offset: 0x5EE1F5, size: 0x8, addend: 0x0, symName: '__ZN4core3ptr41drop_in_place$LT$syn..expr..ExprConst$GT$17hb51224a2b7ae3f93E', symObjAddr: 0x4D30, symBinAddr: 0x101570, symSize: 0x180 }
  - { offsetInCU: 0x15055, offset: 0x5EE7E2, size: 0x8, addend: 0x0, symName: '__ZN4core3ptr44drop_in_place$LT$syn..lifetime..Lifetime$GT$17h21113c634520b199E', symObjAddr: 0x4EB0, symBinAddr: 0x1016F0, symSize: 0x30 }
  - { offsetInCU: 0x15151, offset: 0x5EE8DE, size: 0x8, addend: 0x0, symName: '__ZN4core3ptr44drop_in_place$LT$syn..parse..ParseBuffer$GT$17hcb59418bf0e0a210E', symObjAddr: 0x4EE0, symBinAddr: 0x101720, symSize: 0x70 }
  - { offsetInCU: 0x154CD, offset: 0x5EEC5A, size: 0x8, addend: 0x0, symName: '__ZN4core3ptr45drop_in_place$LT$proc_macro2..TokenStream$GT$17h2b40e419bca43967E', symObjAddr: 0x4F50, symBinAddr: 0x101790, symSize: 0x140 }
  - { offsetInCU: 0x15929, offset: 0x5EF0B6, size: 0x8, addend: 0x0, symName: '__ZN4core3ptr45drop_in_place$LT$syn..buffer..TokenBuffer$GT$17hc41693219e8e26deE', symObjAddr: 0x5090, symBinAddr: 0x1018D0, symSize: 0xC0 }
  - { offsetInCU: 0x15B91, offset: 0x5EF31E, size: 0x8, addend: 0x0, symName: '__ZN4core3ptr45drop_in_place$LT$syn..generics..TypeParam$GT$17h89e9c76ecf851d68E', symObjAddr: 0x5150, symBinAddr: 0x101990, symSize: 0x230 }
  - { offsetInCU: 0x16406, offset: 0x5EFB93, size: 0x8, addend: 0x0, symName: '__ZN4core3ptr46drop_in_place$LT$syn..generics..ConstParam$GT$17he95c08701ad77becE', symObjAddr: 0x5380, symBinAddr: 0x101BC0, symSize: 0x150 }
  - { offsetInCU: 0x16887, offset: 0x5F0014, size: 0x8, addend: 0x0, symName: '__ZN4core3ptr47drop_in_place$LT$syn..path..GenericArgument$GT$17hcb4bbd5e05d6c3b7E', symObjAddr: 0x54D0, symBinAddr: 0x101D10, symSize: 0x450 }
  - { offsetInCU: 0x175FD, offset: 0x5F0D8A, size: 0x8, addend: 0x0, symName: '__ZN4core3ptr49drop_in_place$LT$syn..generics..LifetimeParam$GT$17hcd774c5ed2f53f67E', symObjAddr: 0x5920, symBinAddr: 0x102160, symSize: 0xF0 }
  - { offsetInCU: 0x17A14, offset: 0x5F11A1, size: 0x8, addend: 0x0, symName: '__ZN4core3ptr50drop_in_place$LT$syn..generics..TypeParamBound$GT$17h3b837fb6c20bba14E', symObjAddr: 0x5A10, symBinAddr: 0x102250, symSize: 0xA0 }
  - { offsetInCU: 0x17B7A, offset: 0x5F1307, size: 0x8, addend: 0x0, symName: '__ZN4core3ptr58drop_in_place$LT$alloc..vec..Vec$LT$syn..expr..Arm$GT$$GT$17hce51b4484b4c798bE', symObjAddr: 0x5AB0, symBinAddr: 0x1022F0, symSize: 0xD0 }
  - { offsetInCU: 0x17E3A, offset: 0x5F15C7, size: 0x8, addend: 0x0, symName: '__ZN4core3ptr59drop_in_place$LT$alloc..boxed..Box$LT$syn..pat..Pat$GT$$GT$17h30d5ee147b164acbE', symObjAddr: 0x5B80, symBinAddr: 0x1023C0, symSize: 0x50 }
  - { offsetInCU: 0x17F93, offset: 0x5F1720, size: 0x8, addend: 0x0, symName: '__ZN4core3ptr59drop_in_place$LT$alloc..boxed..Box$LT$syn..ty..Type$GT$$GT$17haae06f26280bf4e6E', symObjAddr: 0x5BD0, symBinAddr: 0x102410, symSize: 0x50 }
  - { offsetInCU: 0x180EC, offset: 0x5F1879, size: 0x8, addend: 0x0, symName: '__ZN4core3ptr61drop_in_place$LT$alloc..boxed..Box$LT$syn..expr..Expr$GT$$GT$17h1e496f1f4b08cb77E', symObjAddr: 0x5C20, symBinAddr: 0x102460, symSize: 0x50 }
  - { offsetInCU: 0x18245, offset: 0x5F19D2, size: 0x8, addend: 0x0, symName: '__ZN4core3ptr61drop_in_place$LT$syn..path..ParenthesizedGenericArguments$GT$17hc98199b96e5adaa6E', symObjAddr: 0x5C70, symBinAddr: 0x1024B0, symSize: 0x170 }
  - { offsetInCU: 0x1884E, offset: 0x5F1FDB, size: 0x8, addend: 0x0, symName: '__ZN4core3ptr63drop_in_place$LT$alloc..boxed..Box$LT$syn..lit..LitRepr$GT$$GT$17hd06bbbbc95cc5d0eE', symObjAddr: 0x5DE0, symBinAddr: 0x102620, symSize: 0x60 }
  - { offsetInCU: 0x18B55, offset: 0x5F22E2, size: 0x8, addend: 0x0, symName: '__ZN4core3ptr64drop_in_place$LT$alloc..boxed..Box$LT$syn..pat..FieldPat$GT$$GT$17h5348c67f94858891E', symObjAddr: 0x5E40, symBinAddr: 0x102680, symSize: 0x140 }
  - { offsetInCU: 0x19256, offset: 0x5F29E3, size: 0x8, addend: 0x0, symName: '__ZN4core3ptr64drop_in_place$LT$alloc..boxed..Box$LT$syn..ty..BareFnArg$GT$$GT$17h4a72b13a3e189d87E', symObjAddr: 0x5F80, symBinAddr: 0x1027C0, symSize: 0x140 }
  - { offsetInCU: 0x197DF, offset: 0x5F2F6C, size: 0x8, addend: 0x0, symName: '__ZN4core3ptr65drop_in_place$LT$alloc..vec..Vec$LT$proc_macro..TokenTree$GT$$GT$17h04383c614e3ab1fcE', symObjAddr: 0x60C0, symBinAddr: 0x102900, symSize: 0x110 }
  - { offsetInCU: 0x19BD7, offset: 0x5F3364, size: 0x8, addend: 0x0, symName: '__ZN4core3ptr65drop_in_place$LT$core..option..Option$LT$syn..expr..Label$GT$$GT$17h5b07172e6de7fafaE', symObjAddr: 0x61D0, symBinAddr: 0x102A10, symSize: 0x30 }
  - { offsetInCU: 0x19D11, offset: 0x5F349E, size: 0x8, addend: 0x0, symName: '__ZN4core3ptr66drop_in_place$LT$core..option..Option$LT$syn..pat..PatRest$GT$$GT$17h414b7792973e1accE', symObjAddr: 0x6200, symBinAddr: 0x102A40, symSize: 0xE0 }
  - { offsetInCU: 0x1A039, offset: 0x5F37C6, size: 0x8, addend: 0x0, symName: '__ZN4core3ptr67drop_in_place$LT$alloc..boxed..Box$LT$syn..expr..FieldValue$GT$$GT$17h4f90b5bdfa2ac8f9E', symObjAddr: 0x62E0, symBinAddr: 0x102B20, symSize: 0x140 }
  - { offsetInCU: 0x1A5C1, offset: 0x5F3D4E, size: 0x8, addend: 0x0, symName: '__ZN4core3ptr70drop_in_place$LT$core..option..Option$LT$syn..ty..BareVariadic$GT$$GT$17h0a1bd3d5468840beE', symObjAddr: 0x6420, symBinAddr: 0x102C60, symSize: 0x100 }
  - { offsetInCU: 0x1AA2C, offset: 0x5F41B9, size: 0x8, addend: 0x0, symName: '__ZN4core3ptr72drop_in_place$LT$alloc..boxed..Box$LT$syn..path..GenericArgument$GT$$GT$17ha0c09ac18b7d41b5E', symObjAddr: 0x6520, symBinAddr: 0x102D60, symSize: 0x2B0 }
  - { offsetInCU: 0x1B43D, offset: 0x5F4BCA, size: 0x8, addend: 0x0, symName: '__ZN4core3ptr72drop_in_place$LT$core..option..Option$LT$syn..lifetime..Lifetime$GT$$GT$17h7990d056ab09c423E', symObjAddr: 0x67D0, symBinAddr: 0x103010, symSize: 0x30 }
  - { offsetInCU: 0x1B558, offset: 0x5F4CE5, size: 0x8, addend: 0x0, symName: '__ZN4core3ptr73drop_in_place$LT$alloc..boxed..Box$LT$syn..generics..GenericParam$GT$$GT$17h20b807de2b91e985E', symObjAddr: 0x6800, symBinAddr: 0x103040, symSize: 0x80 }
  - { offsetInCU: 0x1B6CE, offset: 0x5F4E5B, size: 0x8, addend: 0x0, symName: '__ZN4core3ptr75drop_in_place$LT$alloc..boxed..Box$LT$syn..generics..TypeParamBound$GT$$GT$17h1da96ef6f4e863ddE', symObjAddr: 0x6880, symBinAddr: 0x1030C0, symSize: 0x1B0 }
  - { offsetInCU: 0x1BDCD, offset: 0x5F555A, size: 0x8, addend: 0x0, symName: '__ZN4core3ptr86drop_in_place$LT$syn..punctuated..Punctuated$LT$syn..pat..Pat$C$syn..token..Or$GT$$GT$17h93831ed2944e749dE', symObjAddr: 0x6A30, symBinAddr: 0x103270, symSize: 0x120 }
  - { offsetInCU: 0x1C248, offset: 0x5F59D5, size: 0x8, addend: 0x0, symName: '__ZN4core3ptr87drop_in_place$LT$core..option..Option$LT$alloc..boxed..Box$LT$syn..pat..Pat$GT$$GT$$GT$17hce6b6652aeac84f1E', symObjAddr: 0x6B50, symBinAddr: 0x103390, symSize: 0x50 }
  - { offsetInCU: 0x1C3B8, offset: 0x5F5B45, size: 0x8, addend: 0x0, symName: '__ZN4core3ptr87drop_in_place$LT$core..option..Option$LT$alloc..boxed..Box$LT$syn..ty..Type$GT$$GT$$GT$17h8eb6b9b10cf34482E', symObjAddr: 0x6BA0, symBinAddr: 0x1033E0, symSize: 0x50 }
  - { offsetInCU: 0x1C528, offset: 0x5F5CB5, size: 0x8, addend: 0x0, symName: '__ZN4core3ptr89drop_in_place$LT$core..option..Option$LT$alloc..boxed..Box$LT$syn..expr..Expr$GT$$GT$$GT$17hadda1967b0b98c14E', symObjAddr: 0x6BF0, symBinAddr: 0x103430, symSize: 0x50 }
  - { offsetInCU: 0x1C6D6, offset: 0x5F5E63, size: 0x8, addend: 0x0, symName: '__ZN4core3ptr89drop_in_place$LT$syn..punctuated..Punctuated$LT$syn..pat..Pat$C$syn..token..Comma$GT$$GT$17h4ffb14edfedf5273E', symObjAddr: 0x6C40, symBinAddr: 0x103480, symSize: 0x120 }
  - { offsetInCU: 0x1CBA6, offset: 0x5F6333, size: 0x8, addend: 0x0, symName: '__ZN4core3ptr91drop_in_place$LT$syn..punctuated..Punctuated$LT$syn..expr..Expr$C$syn..token..Comma$GT$$GT$17h48360bdc222b3963E', symObjAddr: 0x6D60, symBinAddr: 0x1035A0, symSize: 0x120 }
  - { offsetInCU: 0x1D034, offset: 0x5F67C1, size: 0x8, addend: 0x0, symName: '__ZN4core3ptr94drop_in_place$LT$syn..punctuated..Punctuated$LT$syn..pat..FieldPat$C$syn..token..Comma$GT$$GT$17h1e553a25ac0bc4e1E', symObjAddr: 0x6E80, symBinAddr: 0x1036C0, symSize: 0xF0 }
  - { offsetInCU: 0x1D333, offset: 0x5F6AC0, size: 0x8, addend: 0x0, symName: '__ZN4core3ptr94drop_in_place$LT$syn..punctuated..Punctuated$LT$syn..ty..BareFnArg$C$syn..token..Comma$GT$$GT$17ha469bb07bab88749E', symObjAddr: 0x6F70, symBinAddr: 0x1037B0, symSize: 0xF0 }
  - { offsetInCU: 0x1D634, offset: 0x5F6DC1, size: 0x8, addend: 0x0, symName: '__ZN4core3ptr96drop_in_place$LT$core..option..Option$LT$alloc..boxed..Box$LT$syn..path..PathSegment$GT$$GT$$GT$17h3fb622bd55682ae2E', symObjAddr: 0x7060, symBinAddr: 0x1038A0, symSize: 0x1A0 }
  - { offsetInCU: 0x1DCF5, offset: 0x5F7482, size: 0x8, addend: 0x0, symName: '__ZN4core3ptr97drop_in_place$LT$syn..punctuated..Punctuated$LT$syn..expr..FieldValue$C$syn..token..Comma$GT$$GT$17ha2df63eb673a5104E', symObjAddr: 0x7200, symBinAddr: 0x103A40, symSize: 0xF0 }
  - { offsetInCU: 0x1E06E, offset: 0x5F77FB, size: 0x8, addend: 0x0, symName: '__ZN4core3ptr98drop_in_place$LT$syn..punctuated..Punctuated$LT$syn..lifetime..Lifetime$C$syn..token..Plus$GT$$GT$17h937540fc49049303E', symObjAddr: 0x72F0, symBinAddr: 0x103B30, symSize: 0xC6 }
  - { offsetInCU: 0x25818, offset: 0x5FEFA5, size: 0x8, addend: 0x0, symName: __ZN3syn11parse_quote5parse17h531e8b1db2cfce75E, symObjAddr: 0x0, symBinAddr: 0xFC890, symSize: 0x420 }
  - { offsetInCU: 0x2603A, offset: 0x5FF7C7, size: 0x8, addend: 0x0, symName: __ZN3syn11parse_quote5parse18panic_cold_display17h975f55afdb46ca66E, symObjAddr: 0x420, symBinAddr: 0x2B02D0, symSize: 0x50 }
  - { offsetInCU: 0x1E, offset: 0x604B72, size: 0x8, addend: 0x0, symName: '__ZN4core3ptr73drop_in_place$LT$core..cell..UnsafeCell$LT$syn..parse..Unexpected$GT$$GT$17hec3588e8c5760dffE.llvm.1193073057460529729', symObjAddr: 0x0, symBinAddr: 0x103C00, symSize: 0x50 }
  - { offsetInCU: 0xB7D, offset: 0x6056D1, size: 0x8, addend: 0x0, symName: '__ZN4core3ptr73drop_in_place$LT$core..cell..UnsafeCell$LT$syn..parse..Unexpected$GT$$GT$17hec3588e8c5760dffE.llvm.1193073057460529729', symObjAddr: 0x0, symBinAddr: 0x103C00, symSize: 0x50 }
  - { offsetInCU: 0x171C, offset: 0x606270, size: 0x8, addend: 0x0, symName: '__ZN68_$LT$alloc..rc..Rc$LT$T$C$A$GT$$u20$as$u20$core..ops..drop..Drop$GT$4drop17ha1417739c6f2a672E', symObjAddr: 0x100, symBinAddr: 0x103C50, symSize: 0xE0 }
  - { offsetInCU: 0x1C3D, offset: 0x606791, size: 0x8, addend: 0x0, symName: '__ZN68_$LT$alloc..rc..Rc$LT$T$C$A$GT$$u20$as$u20$core..ops..drop..Drop$GT$4drop17had0a22f2f264a640E', symObjAddr: 0x1E0, symBinAddr: 0x103D30, symSize: 0x40 }
  - { offsetInCU: 0x2149, offset: 0x606C9D, size: 0x8, addend: 0x0, symName: '__ZN80_$LT$alloc..rc..UniqueRcUninit$LT$T$C$A$GT$$u20$as$u20$core..ops..drop..Drop$GT$4drop17hdf3933613e0349d0E', symObjAddr: 0x220, symBinAddr: 0x103D70, symSize: 0x4F }
  - { offsetInCU: 0x1E, offset: 0x60770C, size: 0x8, addend: 0x0, symName: __ZN4core4hash11BuildHasher8hash_one17h13d63978317c76a3E, symObjAddr: 0x0, symBinAddr: 0x103DC0, symSize: 0x160 }
  - { offsetInCU: 0x2A5, offset: 0x607993, size: 0x8, addend: 0x0, symName: '__ZN71_$LT$core..hash..sip..Hasher$LT$S$GT$$u20$as$u20$core..hash..Hasher$GT$5write17hf2e2abaa61f9ec47E.llvm.13673129164299077869', symObjAddr: 0x2D0, symBinAddr: 0x104090, symSize: 0x1D8 }
  - { offsetInCU: 0xC4D, offset: 0x60833B, size: 0x8, addend: 0x0, symName: __ZN4core4hash11BuildHasher8hash_one17h13d63978317c76a3E, symObjAddr: 0x0, symBinAddr: 0x103DC0, symSize: 0x160 }
  - { offsetInCU: 0x13FD, offset: 0x608AEB, size: 0x8, addend: 0x0, symName: __ZN4core4hash11BuildHasher8hash_one17hbf882056806765ccE, symObjAddr: 0x160, symBinAddr: 0x103F20, symSize: 0x170 }
  - { offsetInCU: 0xAE, offset: 0x609CDE, size: 0x8, addend: 0x0, symName: '__ZN58_$LT$alloc..string..String$u20$as$u20$core..fmt..Write$GT$10write_char17h04bc467bd68a934bE', symObjAddr: 0x90, symBinAddr: 0x1042B0, symSize: 0x140 }
  - { offsetInCU: 0x4B3, offset: 0x60A0E3, size: 0x8, addend: 0x0, symName: '__ZN58_$LT$alloc..string..String$u20$as$u20$core..fmt..Write$GT$9write_str17h46a93205c3443fbaE', symObjAddr: 0x1D0, symBinAddr: 0x1043F0, symSize: 0x60 }
  - { offsetInCU: 0xAFF, offset: 0x60A72F, size: 0x8, addend: 0x0, symName: '__ZN4core3ptr42drop_in_place$LT$alloc..string..String$GT$17hdbd8b13b237adbc7E', symObjAddr: 0x40, symBinAddr: 0x104290, symSize: 0x20 }
  - { offsetInCU: 0xEEB, offset: 0x60AB1B, size: 0x8, addend: 0x0, symName: __ZN4core3fmt5Write9write_fmt17hed973a5852440733E, symObjAddr: 0x20, symBinAddr: 0x104270, symSize: 0x20 }
  - { offsetInCU: 0x1E, offset: 0x60B5A2, size: 0x8, addend: 0x0, symName: '__ZN4core3ptr39drop_in_place$LT$proc_macro2..Group$GT$17h84a34bbc34afcde4E', symObjAddr: 0x0, symBinAddr: 0x104450, symSize: 0x60 }
  - { offsetInCU: 0x1151, offset: 0x60C6D5, size: 0x8, addend: 0x0, symName: '__ZN4core3ptr39drop_in_place$LT$proc_macro2..Group$GT$17h84a34bbc34afcde4E', symObjAddr: 0x0, symBinAddr: 0x104450, symSize: 0x60 }
  - { offsetInCU: 0x13F2, offset: 0x60C976, size: 0x8, addend: 0x0, symName: '__ZN4core3ptr43drop_in_place$LT$proc_macro2..TokenTree$GT$17hc4cda53889ee41ebE', symObjAddr: 0x80, symBinAddr: 0x1044B0, symSize: 0xB0 }
  - { offsetInCU: 0x17E8, offset: 0x60CD6C, size: 0x8, addend: 0x0, symName: '__ZN4core3ptr45drop_in_place$LT$proc_macro2..TokenStream$GT$17h2b40e419bca43967E', symObjAddr: 0x130, symBinAddr: 0x104560, symSize: 0x140 }
  - { offsetInCU: 0x1CDF, offset: 0x60D263, size: 0x8, addend: 0x0, symName: '__ZN4core3ptr56drop_in_place$LT$proc_macro2..token_stream..IntoIter$GT$17h21589c1ef140cf6aE', symObjAddr: 0x270, symBinAddr: 0x1046A0, symSize: 0x20 }
  - { offsetInCU: 0x1D8F, offset: 0x60D313, size: 0x8, addend: 0x0, symName: '__ZN4core3ptr65drop_in_place$LT$alloc..vec..Vec$LT$proc_macro..TokenTree$GT$$GT$17h04383c614e3ab1fcE', symObjAddr: 0x290, symBinAddr: 0x1046C0, symSize: 0x110 }
  - { offsetInCU: 0x347A, offset: 0x60E9FE, size: 0x8, addend: 0x0, symName: __ZN20wasm_bindgen_backend5error13extract_spans17he58694b8bcd31342E, symObjAddr: 0x580, symBinAddr: 0x104840, symSize: 0x5C0 }
  - { offsetInCU: 0x3C64, offset: 0x60F1E8, size: 0x8, addend: 0x0, symName: '__ZN86_$LT$wasm_bindgen_backend..error..Diagnostic$u20$as$u20$quote..to_tokens..ToTokens$GT$9to_tokens17he8c71d42ef847a31E', symObjAddr: 0xB40, symBinAddr: 0x104E00, symSize: 0x29D }
  - { offsetInCU: 0x434E, offset: 0x60F8D2, size: 0x8, addend: 0x0, symName: __ZN20wasm_bindgen_backend5error10Diagnostic8from_vec17h3541f12227fbf1a8E, symObjAddr: 0x410, symBinAddr: 0x1047D0, symSize: 0x70 }
  - { offsetInCU: 0x69E, offset: 0x610E82, size: 0x8, addend: 0x0, symName: '__ZN4core3ptr116drop_in_place$LT$core..result..Result$LT$core..convert..Infallible$C$wasm_bindgen_backend..error..Diagnostic$GT$$GT$17hf4fda940a761e83fE.llvm.6588494083159963248', symObjAddr: 0x560, symBinAddr: 0x1050A0, symSize: 0x150 }
  - { offsetInCU: 0xC33, offset: 0x611417, size: 0x8, addend: 0x0, symName: __ZN4core4iter8adapters11try_process17hc74e61f128fc34ebE, symObjAddr: 0x8A0, symBinAddr: 0x1051F0, symSize: 0x110 }
  - { offsetInCU: 0xFAE, offset: 0x611792, size: 0x8, addend: 0x0, symName: __ZN4core4iter8adapters11try_process17hcf3c0c720210527bE, symObjAddr: 0x9B0, symBinAddr: 0x105300, symSize: 0x1C7 }
  - { offsetInCU: 0x1E, offset: 0x61D9D3, size: 0x8, addend: 0x0, symName: '__ZN120_$LT$proc_macro2..fallback..TokenStream$u20$as$u20$core..iter..traits..collect..Extend$LT$proc_macro2..TokenTree$GT$$GT$6extend17hf72c3e96f8e77362E', symObjAddr: 0x0, symBinAddr: 0x1054D0, symSize: 0x110 }
  - { offsetInCU: 0x8F4, offset: 0x61E2A9, size: 0x8, addend: 0x0, symName: '__ZN120_$LT$proc_macro2..fallback..TokenStream$u20$as$u20$core..iter..traits..collect..Extend$LT$proc_macro2..TokenTree$GT$$GT$6extend17hf72c3e96f8e77362E', symObjAddr: 0x0, symBinAddr: 0x1054D0, symSize: 0x110 }
  - { offsetInCU: 0xC1D, offset: 0x61E5D2, size: 0x8, addend: 0x0, symName: '__ZN126_$LT$proc_macro2..fallback..TokenStream$u20$as$u20$core..iter..traits..collect..FromIterator$LT$proc_macro2..TokenTree$GT$$GT$9from_iter17h0c08cb479a4756baE', symObjAddr: 0x110, symBinAddr: 0x1055E0, symSize: 0x100 }
  - { offsetInCU: 0x1F3E, offset: 0x61F8F3, size: 0x8, addend: 0x0, symName: '__ZN4core3ptr55drop_in_place$LT$proc_macro2..fallback..TokenStream$GT$17h7efda4ab96aa6f32E.llvm.1462599500689521667', symObjAddr: 0x260, symBinAddr: 0x1056E0, symSize: 0x40 }
  - { offsetInCU: 0x2220, offset: 0x61FBD5, size: 0x8, addend: 0x0, symName: '__ZN4core3ptr71drop_in_place$LT$core..option..Option$LT$proc_macro2..TokenTree$GT$$GT$17h7023f14ae8480b12E.llvm.1462599500689521667', symObjAddr: 0x2A0, symBinAddr: 0x105720, symSize: 0xC0 }
  - { offsetInCU: 0xB2DE, offset: 0x628C93, size: 0x8, addend: 0x0, symName: '__ZN5alloc2rc15Rc$LT$T$C$A$GT$8make_mut17hf10735c07746169dE.llvm.1462599500689521667', symObjAddr: 0x360, symBinAddr: 0x1057E0, symSize: 0x1A1 }
  - { offsetInCU: 0x1E, offset: 0x629F72, size: 0x8, addend: 0x0, symName: __ZN3syn5error5Error3new17h450d3958f16f6c02E, symObjAddr: 0x0, symBinAddr: 0x105990, symSize: 0xF0 }
  - { offsetInCU: 0x35, offset: 0x629F89, size: 0x8, addend: 0x0, symName: _anon.ad1d6b343cbdeb1760f31fa7967ea4e1.0.llvm.7521689324189985375, symObjAddr: 0x310, symBinAddr: 0x339BA0, symSize: 0x0 }
  - { offsetInCU: 0x156, offset: 0x62A0AA, size: 0x8, addend: 0x0, symName: '__ZN58_$LT$alloc..string..String$u20$as$u20$core..fmt..Write$GT$10write_char17h04bc467bd68a934bE.llvm.7521689324189985375', symObjAddr: 0x140, symBinAddr: 0x105AC0, symSize: 0x140 }
  - { offsetInCU: 0x55C, offset: 0x62A4B0, size: 0x8, addend: 0x0, symName: '__ZN58_$LT$alloc..string..String$u20$as$u20$core..fmt..Write$GT$9write_str17h46a93205c3443fbaE.llvm.7521689324189985375', symObjAddr: 0x280, symBinAddr: 0x105C00, symSize: 0x5B }
  - { offsetInCU: 0xCD5, offset: 0x62AC29, size: 0x8, addend: 0x0, symName: '__ZN4core3ptr42drop_in_place$LT$alloc..string..String$GT$17hdbd8b13b237adbc7E.llvm.7521689324189985375', symObjAddr: 0x100, symBinAddr: 0x105A80, symSize: 0x20 }
  - { offsetInCU: 0xF65, offset: 0x62AEB9, size: 0x8, addend: 0x0, symName: '__ZN53_$LT$core..fmt..Error$u20$as$u20$core..fmt..Debug$GT$3fmt17h03dc662ab152f3aeE.llvm.7521689324189985375', symObjAddr: 0x120, symBinAddr: 0x105AA0, symSize: 0x20 }
  - { offsetInCU: 0x12F9, offset: 0x62B24D, size: 0x8, addend: 0x0, symName: _anon.ad1d6b343cbdeb1760f31fa7967ea4e1.4.llvm.7521689324189985375, symObjAddr: 0x358, symBinAddr: 0x339BE8, symSize: 0x0 }
  - { offsetInCU: 0x1668, offset: 0x62B5BC, size: 0x8, addend: 0x0, symName: __ZN3syn5error5Error3new17h450d3958f16f6c02E, symObjAddr: 0x0, symBinAddr: 0x105990, symSize: 0xF0 }
  - { offsetInCU: 0x1E, offset: 0x62BE13, size: 0x8, addend: 0x0, symName: '__ZN115_$LT$proc_macro2..imp..TokenStream$u20$as$u20$core..iter..traits..collect..Extend$LT$proc_macro2..TokenTree$GT$$GT$6extend17h4c63ed565317687dE', symObjAddr: 0x0, symBinAddr: 0x105C60, symSize: 0x190 }
  - { offsetInCU: 0x6BE, offset: 0x62C4B3, size: 0x8, addend: 0x0, symName: '__ZN115_$LT$proc_macro2..imp..TokenStream$u20$as$u20$core..iter..traits..collect..Extend$LT$proc_macro2..TokenTree$GT$$GT$6extend17h4c63ed565317687dE', symObjAddr: 0x0, symBinAddr: 0x105C60, symSize: 0x190 }
  - { offsetInCU: 0xA4E, offset: 0x62C843, size: 0x8, addend: 0x0, symName: '__ZN128_$LT$proc_macro2..imp..TokenStream$u20$as$u20$core..iter..traits..collect..FromIterator$LT$proc_macro2..imp..TokenStream$GT$$GT$9from_iter17h48e74d0eb0d75c8eE', symObjAddr: 0x230, symBinAddr: 0x105DF0, symSize: 0x200 }
  - { offsetInCU: 0x2267, offset: 0x62E05C, size: 0x8, addend: 0x0, symName: '__ZN4core3ptr50drop_in_place$LT$proc_macro2..imp..TokenStream$GT$17h2e30c63fc814494fE.llvm.16961299567252633498', symObjAddr: 0x490, symBinAddr: 0x105FF0, symSize: 0x140 }
  - { offsetInCU: 0x26AC, offset: 0x62E4A1, size: 0x8, addend: 0x0, symName: '__ZN4core3ptr55drop_in_place$LT$proc_macro2..fallback..TokenStream$GT$17h7efda4ab96aa6f32E.llvm.16961299567252633498', symObjAddr: 0x5D0, symBinAddr: 0x106130, symSize: 0x40 }
  - { offsetInCU: 0x2741, offset: 0x62E536, size: 0x8, addend: 0x0, symName: '__ZN4core3ptr58drop_in_place$LT$proc_macro2..imp..DeferredTokenStream$GT$17ha7bb877142e3b4edE.llvm.16961299567252633498', symObjAddr: 0x610, symBinAddr: 0x106170, symSize: 0x110 }
  - { offsetInCU: 0x2ACD, offset: 0x62E8C2, size: 0x8, addend: 0x0, symName: '__ZN4core3ptr65drop_in_place$LT$alloc..vec..Vec$LT$proc_macro..TokenTree$GT$$GT$17h04383c614e3ab1fcE.llvm.16961299567252633498', symObjAddr: 0x720, symBinAddr: 0x106280, symSize: 0x110 }
  - { offsetInCU: 0x30D4, offset: 0x62EEC9, size: 0x8, addend: 0x0, symName: '__ZN4core3ptr82drop_in_place$LT$core..iter..sources..once..Once$LT$proc_macro2..TokenTree$GT$$GT$17hd1a38f3567292ca3E.llvm.16961299567252633498', symObjAddr: 0x830, symBinAddr: 0x106390, symSize: 0xB4 }
  - { offsetInCU: 0x1A7, offset: 0x63869D, size: 0x8, addend: 0x0, symName: '__ZN104_$LT$core..iter..adapters..cloned..Cloned$LT$I$GT$$u20$as$u20$core..iter..traits..iterator..Iterator$GT$4next17h6d89ae022d333cacE', symObjAddr: 0xE0, symBinAddr: 0x106450, symSize: 0x130 }
  - { offsetInCU: 0x773, offset: 0x63AB09, size: 0x8, addend: 0x0, symName: '__ZN61_$LT$$u5b$V$u5d$$u20$as$u20$alloc..slice..Concat$LT$T$GT$$GT$6concat17hd967fc6e3ab91130E', symObjAddr: 0x20, symBinAddr: 0x106580, symSize: 0x1E8 }
  - { offsetInCU: 0x580, offset: 0x63C353, size: 0x8, addend: 0x0, symName: '__ZN114_$LT$proc_macro..TokenStream$u20$as$u20$core..iter..traits..collect..FromIterator$LT$proc_macro..TokenTree$GT$$GT$9from_iter17h6f2899e9253804acE', symObjAddr: 0xA0, symBinAddr: 0x106770, symSize: 0x120 }
  - { offsetInCU: 0x1088, offset: 0x63CE5B, size: 0x8, addend: 0x0, symName: '__ZN4core3ptr50drop_in_place$LT$proc_macro..ConcatTreesHelper$GT$17h49a9a1f3c63f3e88E.llvm.15676970011964193650', symObjAddr: 0x1C0, symBinAddr: 0x106890, symSize: 0x110 }
  - { offsetInCU: 0x14A7, offset: 0x63D27A, size: 0x8, addend: 0x0, symName: '__ZN4core3ptr52drop_in_place$LT$proc_macro..ConcatStreamsHelper$GT$17hbc76f3a64ce16227E.llvm.15676970011964193650', symObjAddr: 0x2D0, symBinAddr: 0x1069A0, symSize: 0xBE }
  - { offsetInCU: 0x567, offset: 0x63EBBE, size: 0x8, addend: 0x0, symName: '__ZN75_$LT$std..sync..mutex..Mutex$LT$T$GT$$u20$as$u20$core..default..Default$GT$7default17h61eb72d5b869991bE', symObjAddr: 0x90, symBinAddr: 0x106A60, symSize: 0x83 }
  - { offsetInCU: 0x905, offset: 0x64002D, size: 0x8, addend: 0x0, symName: '__ZN44_$LT$$RF$T$u20$as$u20$core..fmt..Display$GT$3fmt17h6b5e2bb57e82f71cE', symObjAddr: 0x20, symBinAddr: 0x106AF0, symSize: 0x10 }
  - { offsetInCU: 0xCCA, offset: 0x6403F2, size: 0x8, addend: 0x0, symName: '__ZN4core3ptr45drop_in_place$LT$proc_macro2..TokenStream$GT$17h2b40e419bca43967E', symObjAddr: 0x60, symBinAddr: 0x106B00, symSize: 0x140 }
  - { offsetInCU: 0x1126, offset: 0x64084E, size: 0x8, addend: 0x0, symName: '__ZN4core3ptr65drop_in_place$LT$alloc..vec..Vec$LT$proc_macro..TokenTree$GT$$GT$17h04383c614e3ab1fcE', symObjAddr: 0x1A0, symBinAddr: 0x106C40, symSize: 0x110 }
  - { offsetInCU: 0x1B6B, offset: 0x641293, size: 0x8, addend: 0x0, symName: __ZN5quote9to_tokens8ToTokens15to_token_stream17hb5c7a6025de9c38dE, symObjAddr: 0x2B0, symBinAddr: 0x106D50, symSize: 0x70 }
  - { offsetInCU: 0x1E, offset: 0x6416D0, size: 0x8, addend: 0x0, symName: '__ZN4core3ops8function6FnOnce40call_once$u7b$$u7b$vtable.shim$u7d$$u7d$17h34a078f3bfe37940E.llvm.12748807391252045286', symObjAddr: 0x0, symBinAddr: 0x106DC0, symSize: 0x160 }
  - { offsetInCU: 0x35, offset: 0x6416E7, size: 0x8, addend: 0x0, symName: _anon.03937c5bf2e0d672b441259ba2405847.0.llvm.12748807391252045286, symObjAddr: 0x368, symBinAddr: 0x339C08, symSize: 0x0 }
  - { offsetInCU: 0x153, offset: 0x641805, size: 0x8, addend: 0x0, symName: '__ZN9once_cell3imp17OnceCell$LT$T$GT$10initialize28_$u7b$$u7b$closure$u7d$$u7d$17h9b4e5e684f6a3ad0E.llvm.12748807391252045286', symObjAddr: 0x1B0, symBinAddr: 0x106F20, symSize: 0x15C }
  - { offsetInCU: 0x13D5, offset: 0x642A87, size: 0x8, addend: 0x0, symName: '__ZN4core3ops8function6FnOnce40call_once$u7b$$u7b$vtable.shim$u7d$$u7d$17h34a078f3bfe37940E.llvm.12748807391252045286', symObjAddr: 0x0, symBinAddr: 0x106DC0, symSize: 0x160 }
  - { offsetInCU: 0x20A3, offset: 0x643755, size: 0x8, addend: 0x0, symName: '__ZN9once_cell3imp17OnceCell$LT$T$GT$10initialize17h0c0a12bed2de8153E', symObjAddr: 0x160, symBinAddr: 0x2B0320, symSize: 0x50 }
  - { offsetInCU: 0x29, offset: 0x6438CE, size: 0x8, addend: 0x0, symName: _anon.0d43bdb9793ab791ae3ea419f9b5a81a.3.llvm.667505059067283662, symObjAddr: 0x100, symBinAddr: 0x339C70, symSize: 0x0 }
  - { offsetInCU: 0x1E, offset: 0x643979, size: 0x8, addend: 0x0, symName: '__ZN4core3ptr45drop_in_place$LT$proc_macro2..TokenStream$GT$17h2b40e419bca43967E', symObjAddr: 0x0, symBinAddr: 0x107080, symSize: 0x140 }
  - { offsetInCU: 0x959, offset: 0x6442B4, size: 0x8, addend: 0x0, symName: '__ZN4core3ptr45drop_in_place$LT$proc_macro2..TokenStream$GT$17h2b40e419bca43967E', symObjAddr: 0x0, symBinAddr: 0x107080, symSize: 0x140 }
  - { offsetInCU: 0xDB5, offset: 0x644710, size: 0x8, addend: 0x0, symName: '__ZN4core3ptr65drop_in_place$LT$alloc..vec..Vec$LT$proc_macro..TokenTree$GT$$GT$17h04383c614e3ab1fcE', symObjAddr: 0x140, symBinAddr: 0x1071C0, symSize: 0x110 }
  - { offsetInCU: 0x47EA, offset: 0x648145, size: 0x8, addend: 0x0, symName: '__ZN76_$LT$core..option..Option$LT$T$GT$$u20$as$u20$quote..to_tokens..ToTokens$GT$9to_tokens17hbdf86bd2c6509783E', symObjAddr: 0x2C0, symBinAddr: 0x107340, symSize: 0x20 }
  - { offsetInCU: 0x4821, offset: 0x64817C, size: 0x8, addend: 0x0, symName: __ZN5quote9to_tokens8ToTokens15to_token_stream17hacc776e3b6a3d33cE, symObjAddr: 0x250, symBinAddr: 0x1072D0, symSize: 0x70 }
  - { offsetInCU: 0x1E, offset: 0x64D63B, size: 0x8, addend: 0x0, symName: '__ZN4core3ptr45drop_in_place$LT$proc_macro2..TokenStream$GT$17h2b40e419bca43967E', symObjAddr: 0x0, symBinAddr: 0x107360, symSize: 0x140 }
  - { offsetInCU: 0x1286, offset: 0x64E8A3, size: 0x8, addend: 0x0, symName: '__ZN4core3ptr45drop_in_place$LT$proc_macro2..TokenStream$GT$17h2b40e419bca43967E', symObjAddr: 0x0, symBinAddr: 0x107360, symSize: 0x140 }
  - { offsetInCU: 0x16E2, offset: 0x64ECFF, size: 0x8, addend: 0x0, symName: '__ZN4core3ptr65drop_in_place$LT$alloc..vec..Vec$LT$proc_macro..TokenTree$GT$$GT$17h04383c614e3ab1fcE', symObjAddr: 0x140, symBinAddr: 0x1074A0, symSize: 0x110 }
  - { offsetInCU: 0x470F, offset: 0x651D2C, size: 0x8, addend: 0x0, symName: '__ZN52_$LT$$RF$T$u20$as$u20$quote..to_tokens..ToTokens$GT$9to_tokens17h8a56df95780ec217E', symObjAddr: 0x250, symBinAddr: 0x1075B0, symSize: 0x10 }
  - { offsetInCU: 0x4765, offset: 0x651D82, size: 0x8, addend: 0x0, symName: __ZN5quote9to_tokens8ToTokens15to_token_stream17h154bcb8161d90604E, symObjAddr: 0x260, symBinAddr: 0x1075C0, symSize: 0x70 }
  - { offsetInCU: 0x47B8, offset: 0x651DD5, size: 0x8, addend: 0x0, symName: __ZN5quote9to_tokens8ToTokens15to_token_stream17h7afb2f2e63c846f2E, symObjAddr: 0x2D0, symBinAddr: 0x107630, symSize: 0x70 }
  - { offsetInCU: 0x1E, offset: 0x657263, size: 0x8, addend: 0x0, symName: '__ZN4core3ptr45drop_in_place$LT$proc_macro2..TokenStream$GT$17h2b40e419bca43967E.llvm.11150247854013178582', symObjAddr: 0x0, symBinAddr: 0x1076A0, symSize: 0x140 }
  - { offsetInCU: 0xB2C, offset: 0x657D71, size: 0x8, addend: 0x0, symName: '__ZN4core3ptr45drop_in_place$LT$proc_macro2..TokenStream$GT$17h2b40e419bca43967E.llvm.11150247854013178582', symObjAddr: 0x0, symBinAddr: 0x1076A0, symSize: 0x140 }
  - { offsetInCU: 0xF88, offset: 0x6581CD, size: 0x8, addend: 0x0, symName: '__ZN4core3ptr65drop_in_place$LT$alloc..vec..Vec$LT$proc_macro..TokenTree$GT$$GT$17h04383c614e3ab1fcE.llvm.11150247854013178582', symObjAddr: 0x140, symBinAddr: 0x1077E0, symSize: 0x110 }
  - { offsetInCU: 0x1E, offset: 0x658F55, size: 0x8, addend: 0x0, symName: '__ZN4core3ptr45drop_in_place$LT$proc_macro2..TokenStream$GT$17h2b40e419bca43967E', symObjAddr: 0x0, symBinAddr: 0x1078F0, symSize: 0x140 }
  - { offsetInCU: 0x1286, offset: 0x65A1BD, size: 0x8, addend: 0x0, symName: '__ZN4core3ptr45drop_in_place$LT$proc_macro2..TokenStream$GT$17h2b40e419bca43967E', symObjAddr: 0x0, symBinAddr: 0x1078F0, symSize: 0x140 }
  - { offsetInCU: 0x16E2, offset: 0x65A619, size: 0x8, addend: 0x0, symName: '__ZN4core3ptr65drop_in_place$LT$alloc..vec..Vec$LT$proc_macro..TokenTree$GT$$GT$17h04383c614e3ab1fcE', symObjAddr: 0x140, symBinAddr: 0x107A30, symSize: 0x110 }
  - { offsetInCU: 0x473B, offset: 0x65D672, size: 0x8, addend: 0x0, symName: '__ZN73_$LT$alloc..boxed..Box$LT$T$GT$$u20$as$u20$quote..to_tokens..ToTokens$GT$9to_tokens17h4e7289c93f997189E', symObjAddr: 0x2C0, symBinAddr: 0x107BB0, symSize: 0xD }
  - { offsetInCU: 0x4765, offset: 0x65D69C, size: 0x8, addend: 0x0, symName: __ZN5quote9to_tokens8ToTokens15to_token_stream17h59087c7ac1277938E, symObjAddr: 0x250, symBinAddr: 0x107B40, symSize: 0x70 }
  - { offsetInCU: 0x1E, offset: 0x662B1D, size: 0x8, addend: 0x0, symName: '__ZN44_$LT$$RF$T$u20$as$u20$core..fmt..Display$GT$3fmt17h7ec7955c24af495dE', symObjAddr: 0x0, symBinAddr: 0x107BC0, symSize: 0x17 }
  - { offsetInCU: 0x64, offset: 0x662B63, size: 0x8, addend: 0x0, symName: '__ZN44_$LT$$RF$T$u20$as$u20$core..fmt..Display$GT$3fmt17h7ec7955c24af495dE', symObjAddr: 0x0, symBinAddr: 0x107BC0, symSize: 0x17 }
  - { offsetInCU: 0x1E, offset: 0x662DCD, size: 0x8, addend: 0x0, symName: '__ZN4core3ptr45drop_in_place$LT$proc_macro2..TokenStream$GT$17h2b40e419bca43967E', symObjAddr: 0x0, symBinAddr: 0x107BE0, symSize: 0x140 }
  - { offsetInCU: 0xB2C, offset: 0x6638DB, size: 0x8, addend: 0x0, symName: '__ZN4core3ptr45drop_in_place$LT$proc_macro2..TokenStream$GT$17h2b40e419bca43967E', symObjAddr: 0x0, symBinAddr: 0x107BE0, symSize: 0x140 }
  - { offsetInCU: 0xF88, offset: 0x663D37, size: 0x8, addend: 0x0, symName: '__ZN4core3ptr65drop_in_place$LT$alloc..vec..Vec$LT$proc_macro..TokenTree$GT$$GT$17h04383c614e3ab1fcE', symObjAddr: 0x140, symBinAddr: 0x107D20, symSize: 0x110 }
  - { offsetInCU: 0x19A7, offset: 0x664756, size: 0x8, addend: 0x0, symName: __ZN5quote9to_tokens8ToTokens15to_token_stream17hf34ce3f10fae47baE, symObjAddr: 0x250, symBinAddr: 0x107E30, symSize: 0x70 }
  - { offsetInCU: 0x316, offset: 0x664E4A, size: 0x8, addend: 0x0, symName: '__ZN76_$LT$std..sync..poison..PoisonError$LT$T$GT$$u20$as$u20$core..fmt..Debug$GT$3fmt17h741e9c3c84123d46E', symObjAddr: 0x20, symBinAddr: 0x107EA0, symSize: 0x30 }
  - { offsetInCU: 0x1E, offset: 0x665329, size: 0x8, addend: 0x0, symName: '__ZN42_$LT$$RF$T$u20$as$u20$core..fmt..Debug$GT$3fmt17hecad50cbd5f18323E', symObjAddr: 0x0, symBinAddr: 0x107ED0, symSize: 0xD }
  - { offsetInCU: 0x64, offset: 0x66536F, size: 0x8, addend: 0x0, symName: '__ZN42_$LT$$RF$T$u20$as$u20$core..fmt..Debug$GT$3fmt17hecad50cbd5f18323E', symObjAddr: 0x0, symBinAddr: 0x107ED0, symSize: 0xD }
  - { offsetInCU: 0x1E, offset: 0x665731, size: 0x8, addend: 0x0, symName: __ZN4core3ops8function6FnOnce9call_once17h7417e4606f7abee4E, symObjAddr: 0x0, symBinAddr: 0x107EE0, symSize: 0x10 }
  - { offsetInCU: 0x3E, offset: 0x665751, size: 0x8, addend: 0x0, symName: __ZN7bumpalo11EMPTY_CHUNK17h587d378b3fcca7daE, symObjAddr: 0x8C8, symBinAddr: 0x340058, symSize: 0x0 }
  - { offsetInCU: 0x3F2, offset: 0x665B05, size: 0x8, addend: 0x0, symName: '__ZN56_$LT$bumpalo..Bump$u20$as$u20$core..default..Default$GT$7default17h1b839f53326effd8E', symObjAddr: 0x10, symBinAddr: 0x107EF0, symSize: 0x0 }
  - { offsetInCU: 0x4A0, offset: 0x665BB3, size: 0x8, addend: 0x0, symName: '__ZN55_$LT$bumpalo..Bump$u20$as$u20$core..ops..drop..Drop$GT$4drop17h402c27686c3e99daE', symObjAddr: 0x30, symBinAddr: 0x107F10, symSize: 0x50 }
  - { offsetInCU: 0x5D6, offset: 0x665CE9, size: 0x8, addend: 0x0, symName: __ZN7bumpalo24allocation_size_overflow17h768a7f2adcab57f1E, symObjAddr: 0x80, symBinAddr: 0x107F60, symSize: 0x50 }
  - { offsetInCU: 0x753, offset: 0x665E66, size: 0x8, addend: 0x0, symName: __ZN7bumpalo3oom17h4851bcf546331b8bE, symObjAddr: 0x880, symBinAddr: 0x2B07C0, symSize: 0x43 }
  - { offsetInCU: 0x1272, offset: 0x666985, size: 0x8, addend: 0x0, symName: __ZN4core3ops8function6FnOnce9call_once17h7417e4606f7abee4E, symObjAddr: 0x0, symBinAddr: 0x107EE0, symSize: 0x10 }
  - { offsetInCU: 0x2921, offset: 0x668034, size: 0x8, addend: 0x0, symName: __ZN7bumpalo4Bump17alloc_layout_slow17h47fa18eaf1425596E, symObjAddr: 0x380, symBinAddr: 0x2B0370, symSize: 0x450 }
  - { offsetInCU: 0x1E, offset: 0x668AB6, size: 0x8, addend: 0x0, symName: '__ZN63_$LT$once_cell..imp..Guard$u20$as$u20$core..ops..drop..Drop$GT$4drop17h98a30c7a6f231e9dE', symObjAddr: 0x0, symBinAddr: 0x107FB0, symSize: 0xD0 }
  - { offsetInCU: 0x9D5, offset: 0x66946D, size: 0x8, addend: 0x0, symName: '__ZN63_$LT$once_cell..imp..Guard$u20$as$u20$core..ops..drop..Drop$GT$4drop17h98a30c7a6f231e9dE', symObjAddr: 0x0, symBinAddr: 0x107FB0, symSize: 0xD0 }
  - { offsetInCU: 0x1225, offset: 0x669CBD, size: 0x8, addend: 0x0, symName: __ZN9once_cell3imp18initialize_or_wait17ha3f1a872891e7663E, symObjAddr: 0xD0, symBinAddr: 0x108080, symSize: 0x1C0 }
  - { offsetInCU: 0x1E, offset: 0x66ACDB, size: 0x8, addend: 0x0, symName: '__ZN5alloc4sync16Arc$LT$T$C$A$GT$9drop_slow17h4020a55a793042efE', symObjAddr: 0x0, symBinAddr: 0x108240, symSize: 0x5E }
  - { offsetInCU: 0xCBB, offset: 0x66B978, size: 0x8, addend: 0x0, symName: '__ZN5alloc4sync16Arc$LT$T$C$A$GT$9drop_slow17h4020a55a793042efE', symObjAddr: 0x0, symBinAddr: 0x108240, symSize: 0x5E }
  - { offsetInCU: 0x1E, offset: 0x66BD04, size: 0x8, addend: 0x0, symName: '__ZN42_$LT$$RF$T$u20$as$u20$core..fmt..Debug$GT$3fmt17h61ebe138add04f4cE', symObjAddr: 0x0, symBinAddr: 0x1082A0, symSize: 0x24 }
  - { offsetInCU: 0x106, offset: 0x66BDEC, size: 0x8, addend: 0x0, symName: '__ZN42_$LT$$RF$T$u20$as$u20$core..fmt..Debug$GT$3fmt17h61ebe138add04f4cE', symObjAddr: 0x0, symBinAddr: 0x1082A0, symSize: 0x24 }
  - { offsetInCU: 0x1E, offset: 0x66C058, size: 0x8, addend: 0x0, symName: __ZN4core9panicking13assert_failed17h23de4da3729f31f9E, symObjAddr: 0x0, symBinAddr: 0x2B0810, symSize: 0x2E }
  - { offsetInCU: 0x7B, offset: 0x66C0B5, size: 0x8, addend: 0x0, symName: __ZN4core9panicking13assert_failed17h23de4da3729f31f9E, symObjAddr: 0x0, symBinAddr: 0x2B0810, symSize: 0x2E }
  - { offsetInCU: 0x1E, offset: 0x66C672, size: 0x8, addend: 0x0, symName: '__ZN89_$LT$alloc..string..String$u20$as$u20$core..iter..traits..collect..Extend$LT$char$GT$$GT$6extend17h0cf4ce44bb76f8c7E', symObjAddr: 0x0, symBinAddr: 0x1082D0, symSize: 0x1C0 }
  - { offsetInCU: 0x2A3C, offset: 0x66F090, size: 0x8, addend: 0x0, symName: '__ZN89_$LT$alloc..string..String$u20$as$u20$core..iter..traits..collect..Extend$LT$char$GT$$GT$6extend17h0cf4ce44bb76f8c7E', symObjAddr: 0x0, symBinAddr: 0x1082D0, symSize: 0x1C0 }
  - { offsetInCU: 0x3253, offset: 0x66F8A7, size: 0x8, addend: 0x0, symName: '__ZN89_$LT$alloc..string..String$u20$as$u20$core..iter..traits..collect..Extend$LT$char$GT$$GT$6extend17h1e2ffe7086b21805E', symObjAddr: 0x1C0, symBinAddr: 0x108490, symSize: 0x1C0 }
  - { offsetInCU: 0x3A6A, offset: 0x6700BE, size: 0x8, addend: 0x0, symName: '__ZN89_$LT$alloc..string..String$u20$as$u20$core..iter..traits..collect..Extend$LT$char$GT$$GT$6extend17h24c9dc53b98292dfE', symObjAddr: 0x380, symBinAddr: 0x108650, symSize: 0x1C0 }
  - { offsetInCU: 0x4281, offset: 0x6708D5, size: 0x8, addend: 0x0, symName: '__ZN89_$LT$alloc..string..String$u20$as$u20$core..iter..traits..collect..Extend$LT$char$GT$$GT$6extend17h527d953a7dd53cc1E', symObjAddr: 0x540, symBinAddr: 0x108810, symSize: 0x1C0 }
  - { offsetInCU: 0x4A98, offset: 0x6710EC, size: 0x8, addend: 0x0, symName: '__ZN89_$LT$alloc..string..String$u20$as$u20$core..iter..traits..collect..Extend$LT$char$GT$$GT$6extend17hed52e75dca0d55e1E', symObjAddr: 0x700, symBinAddr: 0x1089D0, symSize: 0x1C0 }
  - { offsetInCU: 0x5302, offset: 0x671956, size: 0x8, addend: 0x0, symName: '__ZN95_$LT$alloc..string..String$u20$as$u20$core..iter..traits..collect..FromIterator$LT$char$GT$$GT$9from_iter17hc48ce1a2af406ab1E', symObjAddr: 0x8C0, symBinAddr: 0x108B90, symSize: 0x21D }
  - { offsetInCU: 0x1E, offset: 0x674833, size: 0x8, addend: 0x0, symName: __ZN19wasm_bindgen_shared12new_function17hc9cab7a559ffba73E, symObjAddr: 0x0, symBinAddr: 0x108DB0, symSize: 0x120 }
  - { offsetInCU: 0x226C, offset: 0x676A81, size: 0x8, addend: 0x0, symName: __ZN19wasm_bindgen_shared12new_function17hc9cab7a559ffba73E, symObjAddr: 0x0, symBinAddr: 0x108DB0, symSize: 0x120 }
  - { offsetInCU: 0x29ED, offset: 0x677202, size: 0x8, addend: 0x0, symName: __ZN19wasm_bindgen_shared13free_function17h52b9ba12ad935c6bE, symObjAddr: 0x120, symBinAddr: 0x108ED0, symSize: 0x120 }
  - { offsetInCU: 0x316E, offset: 0x677983, size: 0x8, addend: 0x0, symName: __ZN19wasm_bindgen_shared15unwrap_function17h78e1a7a99433bdd3E, symObjAddr: 0x240, symBinAddr: 0x108FF0, symSize: 0x120 }
  - { offsetInCU: 0x38E2, offset: 0x6780F7, size: 0x8, addend: 0x0, symName: __ZN19wasm_bindgen_shared25free_function_export_name17ha2d6eb5248749b26E, symObjAddr: 0x360, symBinAddr: 0x109110, symSize: 0x90 }
  - { offsetInCU: 0x3BF7, offset: 0x67840C, size: 0x8, addend: 0x0, symName: __ZN19wasm_bindgen_shared27struct_function_export_name17h404a355629803c69E, symObjAddr: 0x3F0, symBinAddr: 0x1091A0, symSize: 0xF0 }
  - { offsetInCU: 0x4229, offset: 0x678A3E, size: 0x8, addend: 0x0, symName: __ZN19wasm_bindgen_shared16struct_field_get17h287714a095b27e0fE, symObjAddr: 0x4E0, symBinAddr: 0x109290, symSize: 0x150 }
  - { offsetInCU: 0x4AAA, offset: 0x6792BF, size: 0x8, addend: 0x0, symName: __ZN19wasm_bindgen_shared16struct_field_set17h039007b0ab687b0aE, symObjAddr: 0x630, symBinAddr: 0x1093E0, symSize: 0x150 }
  - { offsetInCU: 0x531E, offset: 0x679B33, size: 0x8, addend: 0x0, symName: __ZN19wasm_bindgen_shared7version17h851eef7a63826095E, symObjAddr: 0x780, symBinAddr: 0x109530, symSize: 0x133 }
  - { offsetInCU: 0x1E, offset: 0x67B42A, size: 0x8, addend: 0x0, symName: __ZN5alloc7raw_vec11finish_grow17h068eaed2ee70b451E.llvm.11104545855950437706, symObjAddr: 0x0, symBinAddr: 0x109670, symSize: 0xA0 }
  - { offsetInCU: 0xCAB, offset: 0x67C0B7, size: 0x8, addend: 0x0, symName: __ZN5alloc7raw_vec11finish_grow17h068eaed2ee70b451E.llvm.11104545855950437706, symObjAddr: 0x0, symBinAddr: 0x109670, symSize: 0xA0 }
  - { offsetInCU: 0x1021, offset: 0x67C42D, size: 0x8, addend: 0x0, symName: '__ZN5alloc7raw_vec19RawVec$LT$T$C$A$GT$7reserve21do_reserve_and_handle17h45cf4eb801563bc4E', symObjAddr: 0x140, symBinAddr: 0x2B0840, symSize: 0xA0 }
  - { offsetInCU: 0x1844, offset: 0x67CC50, size: 0x8, addend: 0x0, symName: '__ZN5alloc7raw_vec19RawVec$LT$T$C$A$GT$8grow_one17h584fe356654b239fE', symObjAddr: 0x1E0, symBinAddr: 0x109710, symSize: 0xA0 }
  - { offsetInCU: 0x1E, offset: 0x67CF7F, size: 0x8, addend: 0x0, symName: '__ZN102_$LT$core..iter..adapters..map..Map$LT$I$C$F$GT$$u20$as$u20$core..iter..traits..iterator..Iterator$GT$4fold17h3b308e26b8c5326cE', symObjAddr: 0x0, symBinAddr: 0x1097B0, symSize: 0x0 }
  - { offsetInCU: 0x5AA, offset: 0x67D50B, size: 0x8, addend: 0x0, symName: '__ZN102_$LT$core..iter..adapters..map..Map$LT$I$C$F$GT$$u20$as$u20$core..iter..traits..iterator..Iterator$GT$4fold17h3b308e26b8c5326cE', symObjAddr: 0x0, symBinAddr: 0x1097B0, symSize: 0x0 }
  - { offsetInCU: 0x5F0, offset: 0x67D551, size: 0x8, addend: 0x0, symName: '__ZN102_$LT$core..iter..adapters..map..Map$LT$I$C$F$GT$$u20$as$u20$core..iter..traits..iterator..Iterator$GT$4fold17h3b308e26b8c5326cE', symObjAddr: 0x0, symBinAddr: 0x1097B0, symSize: 0x0 }
  - { offsetInCU: 0x609, offset: 0x67D56A, size: 0x8, addend: 0x0, symName: '__ZN102_$LT$core..iter..adapters..map..Map$LT$I$C$F$GT$$u20$as$u20$core..iter..traits..iterator..Iterator$GT$4fold17h3b308e26b8c5326cE', symObjAddr: 0x0, symBinAddr: 0x1097B0, symSize: 0x0 }
  - { offsetInCU: 0x97E, offset: 0x67EDB5, size: 0x8, addend: 0x0, symName: __ZN5alloc6string6String4push17h8179ee5e0448e5e8E.llvm.8045186286591059004, symObjAddr: 0x140, symBinAddr: 0x1098E0, symSize: 0x12F }
  - { offsetInCU: 0x5044, offset: 0x6841CE, size: 0x8, addend: 0x0, symName: '__ZN63_$LT$syn..item..FnArg$u20$as$u20$quote..to_tokens..ToTokens$GT$9to_tokens17h9c3c1fac6ac934ddE', symObjAddr: 0x23230, symBinAddr: 0x124E40, symSize: 0x20 }
  - { offsetInCU: 0x509D, offset: 0x684227, size: 0x8, addend: 0x0, symName: '__ZN3syn4item7parsing63_$LT$impl$u20$syn..parse..Parse$u20$for$u20$syn..item..Item$GT$5parse17h80cf7aab904a267aE', symObjAddr: 0xCD50, symBinAddr: 0x115810, symSize: 0x190 }
  - { offsetInCU: 0x562B, offset: 0x6847B5, size: 0x8, addend: 0x0, symName: '__ZN3syn4item7parsing68_$LT$impl$u20$syn..parse..Parse$u20$for$u20$syn..item..ItemMacro$GT$5parse17hc5bb9427f98c7017E', symObjAddr: 0xCEE0, symBinAddr: 0x1159A0, symSize: 0x6B0 }
  - { offsetInCU: 0x62C0, offset: 0x68544A, size: 0x8, addend: 0x0, symName: '__ZN3syn4item7parsing74_$LT$impl$u20$syn..parse..Parse$u20$for$u20$syn..item..ItemExternCrate$GT$5parse17h6d46d67dd87b398fE', symObjAddr: 0xD590, symBinAddr: 0x116050, symSize: 0x910 }
  - { offsetInCU: 0x7688, offset: 0x686812, size: 0x8, addend: 0x0, symName: '__ZN3syn4item7parsing75_$LT$impl$u20$syn..parse..Parse$u20$for$u20$syn..item..StaticMutability$GT$5parse17h60646f4bbad23fa9E', symObjAddr: 0x1E6F0, symBinAddr: 0x120B60, symSize: 0xA0 }
  - { offsetInCU: 0x7839, offset: 0x6869C3, size: 0x8, addend: 0x0, symName: '__ZN3syn4item7parsing68_$LT$impl$u20$syn..parse..Parse$u20$for$u20$syn..item..Signature$GT$5parse17h055acddcceb01c9aE', symObjAddr: 0xF690, symBinAddr: 0x116960, symSize: 0xA90 }
  - { offsetInCU: 0x87E5, offset: 0x68796F, size: 0x8, addend: 0x0, symName: '__ZN3syn4item7parsing67_$LT$impl$u20$syn..parse..Parse$u20$for$u20$syn..item..Receiver$GT$5parse17h7c38822b1e4d7a06E', symObjAddr: 0x10630, symBinAddr: 0x1173F0, symSize: 0xA20 }
  - { offsetInCU: 0x99AB, offset: 0x688B35, size: 0x8, addend: 0x0, symName: '__ZN3syn4item7parsing66_$LT$impl$u20$syn..parse..Parse$u20$for$u20$syn..item..ItemMod$GT$5parse17h216506bc1f5b0b64E', symObjAddr: 0x11050, symBinAddr: 0x117E10, symSize: 0xD80 }
  - { offsetInCU: 0xB713, offset: 0x68A89D, size: 0x8, addend: 0x0, symName: '__ZN3syn4item7parsing73_$LT$impl$u20$syn..parse..Parse$u20$for$u20$syn..item..ItemForeignMod$GT$5parse17ha80c1978f8841fabE', symObjAddr: 0x11DD0, symBinAddr: 0x118B90, symSize: 0x720 }
  - { offsetInCU: 0xCAF1, offset: 0x68BC7B, size: 0x8, addend: 0x0, symName: '__ZN3syn4item7parsing70_$LT$impl$u20$syn..parse..Parse$u20$for$u20$syn..item..ForeignItem$GT$5parse17hae52281c277c1a2fE', symObjAddr: 0x124F0, symBinAddr: 0x1192B0, symSize: 0x19B0 }
  - { offsetInCU: 0x10FD3, offset: 0x69015D, size: 0x8, addend: 0x0, symName: '__ZN3syn4item7parsing69_$LT$impl$u20$syn..parse..Parse$u20$for$u20$syn..item..ItemStruct$GT$5parse17h5f37d45d0509ea74E', symObjAddr: 0x160C0, symBinAddr: 0x11AC60, symSize: 0x720 }
  - { offsetInCU: 0x11AC5, offset: 0x690C4F, size: 0x8, addend: 0x0, symName: '__ZN3syn4item7parsing67_$LT$impl$u20$syn..parse..Parse$u20$for$u20$syn..item..ItemEnum$GT$5parse17hcfc041400e96f868E', symObjAddr: 0x167E0, symBinAddr: 0x11B380, symSize: 0x720 }
  - { offsetInCU: 0x125B8, offset: 0x691742, size: 0x8, addend: 0x0, symName: '__ZN3syn4item7parsing68_$LT$impl$u20$syn..parse..Parse$u20$for$u20$syn..item..ItemUnion$GT$5parse17h3bd0150048f99936E', symObjAddr: 0x16F00, symBinAddr: 0x11BAA0, symSize: 0x710 }
  - { offsetInCU: 0x1309F, offset: 0x692229, size: 0x8, addend: 0x0, symName: '__ZN3syn4item7parsing68_$LT$impl$u20$syn..parse..Parse$u20$for$u20$syn..item..ItemTrait$GT$5parse17hba3917e64180f729E', symObjAddr: 0x17610, symBinAddr: 0x11C1B0, symSize: 0x630 }
  - { offsetInCU: 0x13DCC, offset: 0x692F56, size: 0x8, addend: 0x0, symName: '__ZN3syn4item7parsing68_$LT$impl$u20$syn..parse..Parse$u20$for$u20$syn..item..TraitItem$GT$5parse17h5e01dedab6d196dfE', symObjAddr: 0x17DA0, symBinAddr: 0x11C7E0, symSize: 0x1B80 }
  - { offsetInCU: 0x199D2, offset: 0x698B5C, size: 0x8, addend: 0x0, symName: '__ZN3syn4item7parsing70_$LT$impl$u20$syn..parse..Parse$u20$for$u20$syn..item..TraitItemFn$GT$5parse17h386721044cd912e3E', symObjAddr: 0x1A250, symBinAddr: 0x11E360, symSize: 0x850 }
  - { offsetInCU: 0x1B00D, offset: 0x69A197, size: 0x8, addend: 0x0, symName: '__ZN3syn4item7parsing67_$LT$impl$u20$syn..parse..Parse$u20$for$u20$syn..item..ImplItem$GT$5parse17h6b1c6f6f70b03df2E', symObjAddr: 0x1B350, symBinAddr: 0x11EBB0, symSize: 0x1BE0 }
  - { offsetInCU: 0x2061D, offset: 0x69F7A7, size: 0x8, addend: 0x0, symName: '__ZN3syn4item7parsing69_$LT$impl$u20$syn..parse..Parse$u20$for$u20$syn..item..ImplItemFn$GT$5parse17h1285d858145539cdE', symObjAddr: 0x1DA30, symBinAddr: 0x120790, symSize: 0x90 }
  - { offsetInCU: 0x2069F, offset: 0x69F829, size: 0x8, addend: 0x0, symName: '__ZN3syn4item7parsing72_$LT$impl$u20$syn..parse..Parse$u20$for$u20$syn..item..ImplItemMacro$GT$5parse17h34a4a0c85418b70aE', symObjAddr: 0x1E3B0, symBinAddr: 0x120820, symSize: 0x0 }
  - { offsetInCU: 0x20D6F, offset: 0x69FEF9, size: 0x8, addend: 0x0, symName: '__ZN3syn4item8printing83_$LT$impl$u20$quote..to_tokens..ToTokens$u20$for$u20$syn..item..ItemExternCrate$GT$9to_tokens17hfe36bc772e4277a0E', symObjAddr: 0x1E790, symBinAddr: 0x120C00, symSize: 0x250 }
  - { offsetInCU: 0x21327, offset: 0x6A04B1, size: 0x8, addend: 0x0, symName: '__ZN3syn4item8printing84_$LT$impl$u20$quote..to_tokens..ToTokens$u20$for$u20$syn..item..StaticMutability$GT$9to_tokens17h63fb4c785582f96cE', symObjAddr: 0x21F90, symBinAddr: 0x123BA0, symSize: 0x80 }
  - { offsetInCU: 0x2148C, offset: 0x6A0616, size: 0x8, addend: 0x0, symName: '__ZN3syn4item8printing78_$LT$impl$u20$quote..to_tokens..ToTokens$u20$for$u20$syn..item..ItemStatic$GT$9to_tokens17hbc3d5375fc6c771cE', symObjAddr: 0x1EB70, symBinAddr: 0x120E50, symSize: 0x220 }
  - { offsetInCU: 0x21968, offset: 0x6A0AF2, size: 0x8, addend: 0x0, symName: '__ZN3syn4item8printing77_$LT$impl$u20$quote..to_tokens..ToTokens$u20$for$u20$syn..item..ItemConst$GT$9to_tokens17h12586eeb342f0298E', symObjAddr: 0x1ED90, symBinAddr: 0x121070, symSize: 0x1D0 }
  - { offsetInCU: 0x21CFD, offset: 0x6A0E87, size: 0x8, addend: 0x0, symName: '__ZN3syn4item8printing74_$LT$impl$u20$quote..to_tokens..ToTokens$u20$for$u20$syn..item..ItemFn$GT$9to_tokens17hd904edb98c74292eE', symObjAddr: 0x1EF60, symBinAddr: 0x121240, symSize: 0xF0 }
  - { offsetInCU: 0x21EAD, offset: 0x6A1037, size: 0x8, addend: 0x0, symName: '__ZN3syn4item8printing75_$LT$impl$u20$quote..to_tokens..ToTokens$u20$for$u20$syn..item..ItemMod$GT$9to_tokens17h0200f7c6912b0a1cE', symObjAddr: 0x1F050, symBinAddr: 0x121330, symSize: 0x230 }
  - { offsetInCU: 0x223AA, offset: 0x6A1534, size: 0x8, addend: 0x0, symName: '__ZN3syn4item8printing76_$LT$impl$u20$quote..to_tokens..ToTokens$u20$for$u20$syn..item..ItemType$GT$9to_tokens17he708c67807a0f5e7E', symObjAddr: 0x1F440, symBinAddr: 0x121560, symSize: 0x1C0 }
  - { offsetInCU: 0x22709, offset: 0x6A1893, size: 0x8, addend: 0x0, symName: '__ZN3syn4item8printing76_$LT$impl$u20$quote..to_tokens..ToTokens$u20$for$u20$syn..item..ItemEnum$GT$9to_tokens17h182a12d3a154632dE', symObjAddr: 0x1F600, symBinAddr: 0x121720, symSize: 0x180 }
  - { offsetInCU: 0x229EE, offset: 0x6A1B78, size: 0x8, addend: 0x0, symName: '__ZN3syn4item8printing78_$LT$impl$u20$quote..to_tokens..ToTokens$u20$for$u20$syn..item..ItemStruct$GT$9to_tokens17h8172cc7233ca8fbeE', symObjAddr: 0x1F780, symBinAddr: 0x1218A0, symSize: 0x220 }
  - { offsetInCU: 0x22DD6, offset: 0x6A1F60, size: 0x8, addend: 0x0, symName: '__ZN3syn4item8printing77_$LT$impl$u20$quote..to_tokens..ToTokens$u20$for$u20$syn..item..ItemUnion$GT$9to_tokens17h6c795ad402d2a166E', symObjAddr: 0x1F9A0, symBinAddr: 0x121AC0, symSize: 0x180 }
  - { offsetInCU: 0x230E1, offset: 0x6A226B, size: 0x8, addend: 0x0, symName: '__ZN3syn4item8printing77_$LT$impl$u20$quote..to_tokens..ToTokens$u20$for$u20$syn..item..ItemTrait$GT$9to_tokens17h8121c5f1327add6eE', symObjAddr: 0x1FB20, symBinAddr: 0x121C40, symSize: 0x320 }
  - { offsetInCU: 0x23B2E, offset: 0x6A2CB8, size: 0x8, addend: 0x0, symName: '__ZN3syn4item8printing82_$LT$impl$u20$quote..to_tokens..ToTokens$u20$for$u20$syn..item..ItemTraitAlias$GT$9to_tokens17hc5f43bf815c68949E', symObjAddr: 0x1FE40, symBinAddr: 0x121F60, symSize: 0x330 }
  - { offsetInCU: 0x24405, offset: 0x6A358F, size: 0x8, addend: 0x0, symName: '__ZN3syn4item8printing76_$LT$impl$u20$quote..to_tokens..ToTokens$u20$for$u20$syn..item..ItemImpl$GT$9to_tokens17h0c3a9ddae74c937dE', symObjAddr: 0x20170, symBinAddr: 0x122290, symSize: 0x340 }
  - { offsetInCU: 0x24C55, offset: 0x6A3DDF, size: 0x8, addend: 0x0, symName: '__ZN3syn4item8printing77_$LT$impl$u20$quote..to_tokens..ToTokens$u20$for$u20$syn..item..ItemMacro$GT$9to_tokens17haec818905d80644fE', symObjAddr: 0x204B0, symBinAddr: 0x1225D0, symSize: 0x190 }
  - { offsetInCU: 0x2508A, offset: 0x6A4214, size: 0x8, addend: 0x0, symName: '__ZN3syn4item8printing82_$LT$impl$u20$quote..to_tokens..ToTokens$u20$for$u20$syn..item..TraitItemConst$GT$9to_tokens17h76e791416bf823d1E', symObjAddr: 0x20790, symBinAddr: 0x122760, symSize: 0x1C0 }
  - { offsetInCU: 0x25423, offset: 0x6A45AD, size: 0x8, addend: 0x0, symName: '__ZN3syn4item8printing81_$LT$impl$u20$quote..to_tokens..ToTokens$u20$for$u20$syn..item..TraitItemType$GT$9to_tokens17hbe42b3bab95c6768E', symObjAddr: 0x20AB0, symBinAddr: 0x122920, symSize: 0x240 }
  - { offsetInCU: 0x25869, offset: 0x6A49F3, size: 0x8, addend: 0x0, symName: '__ZN3syn4item8printing81_$LT$impl$u20$quote..to_tokens..ToTokens$u20$for$u20$syn..item..ImplItemConst$GT$9to_tokens17hdd48b33068953141E', symObjAddr: 0x20CF0, symBinAddr: 0x122B60, symSize: 0x240 }
  - { offsetInCU: 0x25D21, offset: 0x6A4EAB, size: 0x8, addend: 0x0, symName: '__ZN3syn4item8printing80_$LT$impl$u20$quote..to_tokens..ToTokens$u20$for$u20$syn..item..ImplItemType$GT$9to_tokens17hbce09990808c878cE', symObjAddr: 0x21090, symBinAddr: 0x122DA0, symSize: 0x230 }
  - { offsetInCU: 0x261E2, offset: 0x6A536C, size: 0x8, addend: 0x0, symName: '__ZN3syn4item8printing81_$LT$impl$u20$quote..to_tokens..ToTokens$u20$for$u20$syn..item..ForeignItemFn$GT$9to_tokens17hd05211d69b7d2960E', symObjAddr: 0x213C0, symBinAddr: 0x122FD0, symSize: 0x100 }
  - { offsetInCU: 0x263BA, offset: 0x6A5544, size: 0x8, addend: 0x0, symName: '__ZN3syn4item8printing85_$LT$impl$u20$quote..to_tokens..ToTokens$u20$for$u20$syn..item..ForeignItemStatic$GT$9to_tokens17h378f5a1dfc9fdf33E', symObjAddr: 0x214C0, symBinAddr: 0x1230D0, symSize: 0x200 }
  - { offsetInCU: 0x26844, offset: 0x6A59CE, size: 0x8, addend: 0x0, symName: '__ZN3syn4item8printing83_$LT$impl$u20$quote..to_tokens..ToTokens$u20$for$u20$syn..item..ForeignItemType$GT$9to_tokens17h4ed6b28f8ddb36b2E', symObjAddr: 0x216C0, symBinAddr: 0x1232D0, symSize: 0x190 }
  - { offsetInCU: 0x26B51, offset: 0x6A5CDB, size: 0x8, addend: 0x0, symName: '__ZN3syn4item8printing77_$LT$impl$u20$quote..to_tokens..ToTokens$u20$for$u20$syn..item..Signature$GT$9to_tokens17h487e336073ff52a3E', symObjAddr: 0x21850, symBinAddr: 0x123460, symSize: 0x330 }
  - { offsetInCU: 0x27328, offset: 0x6A64B2, size: 0x8, addend: 0x0, symName: '__ZN3syn4item8printing76_$LT$impl$u20$quote..to_tokens..ToTokens$u20$for$u20$syn..item..Receiver$GT$9to_tokens17h0593f180191f94a9E', symObjAddr: 0x21B80, symBinAddr: 0x123790, symSize: 0x2E0 }
  - { offsetInCU: 0x27ADC, offset: 0x6A6C66, size: 0x8, addend: 0x0, symName: '__ZN3syn4item8printing76_$LT$impl$u20$quote..to_tokens..ToTokens$u20$for$u20$syn..item..Variadic$GT$9to_tokens17h5d9696317f3ad996E', symObjAddr: 0x21E60, symBinAddr: 0x123A70, symSize: 0x130 }
  - { offsetInCU: 0x27DF5, offset: 0x6A6F7F, size: 0x8, addend: 0x0, symName: '__ZN62_$LT$syn..item..Item$u20$as$u20$quote..to_tokens..ToTokens$GT$9to_tokens17he7e69ecbc61b7b2cE', symObjAddr: 0x22010, symBinAddr: 0x123C20, symSize: 0x730 }
  - { offsetInCU: 0x28C6D, offset: 0x6A7DF7, size: 0x8, addend: 0x0, symName: '__ZN65_$LT$syn..item..UseTree$u20$as$u20$quote..to_tokens..ToTokens$GT$9to_tokens17hee39f883784acb47E', symObjAddr: 0x22740, symBinAddr: 0x124350, symSize: 0x310 }
  - { offsetInCU: 0x29522, offset: 0x6A86AC, size: 0x8, addend: 0x0, symName: '__ZN69_$LT$syn..item..ForeignItem$u20$as$u20$quote..to_tokens..ToTokens$GT$9to_tokens17hb7bfc5d782828218E', symObjAddr: 0x22A50, symBinAddr: 0x124660, symSize: 0x250 }
  - { offsetInCU: 0x29945, offset: 0x6A8ACF, size: 0x8, addend: 0x0, symName: '__ZN67_$LT$syn..item..TraitItem$u20$as$u20$quote..to_tokens..ToTokens$GT$9to_tokens17h9010403c8466e854E', symObjAddr: 0x22CA0, symBinAddr: 0x1248B0, symSize: 0x2B0 }
  - { offsetInCU: 0x29DD7, offset: 0x6A8F61, size: 0x8, addend: 0x0, symName: '__ZN66_$LT$syn..item..ImplItem$u20$as$u20$quote..to_tokens..ToTokens$GT$9to_tokens17h9ce4fd01d680c33dE', symObjAddr: 0x22F50, symBinAddr: 0x124B60, symSize: 0x2E0 }
  - { offsetInCU: 0x2AA75, offset: 0x6A9BFF, size: 0x8, addend: 0x0, symName: '__ZN3syn3gen5clone67_$LT$impl$u20$core..clone..Clone$u20$for$u20$syn..item..UseTree$GT$5clone17he4721d92d6223b97E', symObjAddr: 0x28540, symBinAddr: 0x129C30, symSize: 0x2A0 }
  - { offsetInCU: 0x2B159, offset: 0x6AA2E3, size: 0x8, addend: 0x0, symName: '__ZN3syn3gen5clone71_$LT$impl$u20$core..clone..Clone$u20$for$u20$syn..item..ForeignItem$GT$5clone17hee3f13bdccecaf04E', symObjAddr: 0x23290, symBinAddr: 0x124E60, symSize: 0x2A0 }
  - { offsetInCU: 0x2B53B, offset: 0x6AA6C5, size: 0x8, addend: 0x0, symName: '__ZN3syn3gen5clone77_$LT$impl$u20$core..clone..Clone$u20$for$u20$syn..item..ForeignItemStatic$GT$5clone17h1c013599a1b7e0d2E', symObjAddr: 0x23620, symBinAddr: 0x125100, symSize: 0x1E0 }
  - { offsetInCU: 0x2B9DC, offset: 0x6AAB66, size: 0x8, addend: 0x0, symName: '__ZN3syn3gen5clone75_$LT$impl$u20$core..clone..Clone$u20$for$u20$syn..item..ForeignItemType$GT$5clone17h39c42a7ed9f93bc7E', symObjAddr: 0x23800, symBinAddr: 0x1252E0, symSize: 0x290 }
  - { offsetInCU: 0x2BD1D, offset: 0x6AAEA7, size: 0x8, addend: 0x0, symName: '__ZN3syn3gen5clone68_$LT$impl$u20$core..clone..Clone$u20$for$u20$syn..item..ImplItem$GT$5clone17hfcffd5bef6db6eefE', symObjAddr: 0x23A90, symBinAddr: 0x125570, symSize: 0x1E0 }
  - { offsetInCU: 0x2C063, offset: 0x6AB1ED, size: 0x8, addend: 0x0, symName: '__ZN3syn3gen5clone73_$LT$impl$u20$core..clone..Clone$u20$for$u20$syn..item..ImplItemConst$GT$5clone17hcba22f66f4790359E', symObjAddr: 0x23C70, symBinAddr: 0x125750, symSize: 0x3C0 }
  - { offsetInCU: 0x2C421, offset: 0x6AB5AB, size: 0x8, addend: 0x0, symName: '__ZN3syn3gen5clone70_$LT$impl$u20$core..clone..Clone$u20$for$u20$syn..item..ImplItemFn$GT$5clone17hfa99a17b751a231eE', symObjAddr: 0x24030, symBinAddr: 0x125B10, symSize: 0x170 }
  - { offsetInCU: 0x2C4CE, offset: 0x6AB658, size: 0x8, addend: 0x0, symName: '__ZN3syn3gen5clone72_$LT$impl$u20$core..clone..Clone$u20$for$u20$syn..item..ImplItemType$GT$5clone17h0cbe501e4ceb9fa6E', symObjAddr: 0x24230, symBinAddr: 0x125C80, symSize: 0x360 }
  - { offsetInCU: 0x2C883, offset: 0x6ABA0D, size: 0x8, addend: 0x0, symName: '__ZN3syn3gen5clone64_$LT$impl$u20$core..clone..Clone$u20$for$u20$syn..item..Item$GT$5clone17h88393b98a180baddE', symObjAddr: 0x24590, symBinAddr: 0x125FE0, symSize: 0x3C0 }
  - { offsetInCU: 0x2CDDA, offset: 0x6ABF64, size: 0x8, addend: 0x0, symName: '__ZN3syn3gen5clone69_$LT$impl$u20$core..clone..Clone$u20$for$u20$syn..item..ItemConst$GT$5clone17h625d5dfdf97f0db7E', symObjAddr: 0x24950, symBinAddr: 0x1263A0, symSize: 0x410 }
  - { offsetInCU: 0x2D586, offset: 0x6AC710, size: 0x8, addend: 0x0, symName: '__ZN3syn3gen5clone68_$LT$impl$u20$core..clone..Clone$u20$for$u20$syn..item..ItemEnum$GT$5clone17hcbd28186f3af1a48E', symObjAddr: 0x24D60, symBinAddr: 0x1267B0, symSize: 0x320 }
  - { offsetInCU: 0x2D88A, offset: 0x6ACA14, size: 0x8, addend: 0x0, symName: '__ZN3syn3gen5clone75_$LT$impl$u20$core..clone..Clone$u20$for$u20$syn..item..ItemExternCrate$GT$5clone17heae6e2f0373fe0bbE', symObjAddr: 0x25080, symBinAddr: 0x126AD0, symSize: 0x1A0 }
  - { offsetInCU: 0x2DB9F, offset: 0x6ACD29, size: 0x8, addend: 0x0, symName: '__ZN3syn3gen5clone66_$LT$impl$u20$core..clone..Clone$u20$for$u20$syn..item..ItemFn$GT$5clone17h4e6ff2347c0f748eE', symObjAddr: 0x25220, symBinAddr: 0x126C70, symSize: 0x190 }
  - { offsetInCU: 0x2DE37, offset: 0x6ACFC1, size: 0x8, addend: 0x0, symName: '__ZN3syn3gen5clone68_$LT$impl$u20$core..clone..Clone$u20$for$u20$syn..item..ItemImpl$GT$5clone17hd2b1c2db65c8a4ebE', symObjAddr: 0x25490, symBinAddr: 0x126E00, symSize: 0x470 }
  - { offsetInCU: 0x2E30A, offset: 0x6AD494, size: 0x8, addend: 0x0, symName: '__ZN3syn3gen5clone69_$LT$impl$u20$core..clone..Clone$u20$for$u20$syn..item..ItemMacro$GT$5clone17h7d6f56f137cac903E', symObjAddr: 0x25900, symBinAddr: 0x127270, symSize: 0x120 }
  - { offsetInCU: 0x2E546, offset: 0x6AD6D0, size: 0x8, addend: 0x0, symName: '__ZN3syn3gen5clone67_$LT$impl$u20$core..clone..Clone$u20$for$u20$syn..item..ItemMod$GT$5clone17h08b706d9debac69fE', symObjAddr: 0x25A20, symBinAddr: 0x127390, symSize: 0x200 }
  - { offsetInCU: 0x2E80D, offset: 0x6AD997, size: 0x8, addend: 0x0, symName: '__ZN3syn3gen5clone70_$LT$impl$u20$core..clone..Clone$u20$for$u20$syn..item..ItemStatic$GT$5clone17h7d89c79988a48493E', symObjAddr: 0x25C20, symBinAddr: 0x127590, symSize: 0x290 }
  - { offsetInCU: 0x2EEDE, offset: 0x6AE068, size: 0x8, addend: 0x0, symName: '__ZN3syn3gen5clone70_$LT$impl$u20$core..clone..Clone$u20$for$u20$syn..item..ItemStruct$GT$5clone17h25082ded106363f3E', symObjAddr: 0x25EB0, symBinAddr: 0x127820, symSize: 0x3D0 }
  - { offsetInCU: 0x2F2F3, offset: 0x6AE47D, size: 0x8, addend: 0x0, symName: '__ZN3syn3gen5clone69_$LT$impl$u20$core..clone..Clone$u20$for$u20$syn..item..ItemTrait$GT$5clone17ha34a4241e37415ecE', symObjAddr: 0x26280, symBinAddr: 0x127BF0, symSize: 0x3E0 }
  - { offsetInCU: 0x2F683, offset: 0x6AE80D, size: 0x8, addend: 0x0, symName: '__ZN3syn3gen5clone74_$LT$impl$u20$core..clone..Clone$u20$for$u20$syn..item..ItemTraitAlias$GT$5clone17hef59f8a644aff956E', symObjAddr: 0x26660, symBinAddr: 0x127FD0, symSize: 0x320 }
  - { offsetInCU: 0x2F9E3, offset: 0x6AEB6D, size: 0x8, addend: 0x0, symName: '__ZN3syn3gen5clone68_$LT$impl$u20$core..clone..Clone$u20$for$u20$syn..item..ItemType$GT$5clone17h2cc3a1af26227a5bE', symObjAddr: 0x26980, symBinAddr: 0x1282F0, symSize: 0x350 }
  - { offsetInCU: 0x2FF5F, offset: 0x6AF0E9, size: 0x8, addend: 0x0, symName: '__ZN3syn3gen5clone69_$LT$impl$u20$core..clone..Clone$u20$for$u20$syn..item..ItemUnion$GT$5clone17h9499aeac8cc94731E', symObjAddr: 0x26CD0, symBinAddr: 0x128640, symSize: 0x340 }
  - { offsetInCU: 0x302AD, offset: 0x6AF437, size: 0x8, addend: 0x0, symName: '__ZN3syn3gen5clone67_$LT$impl$u20$core..clone..Clone$u20$for$u20$syn..item..ItemUse$GT$5clone17h83cf32ef390bdd8aE', symObjAddr: 0x27010, symBinAddr: 0x128980, symSize: 0x130 }
  - { offsetInCU: 0x3036D, offset: 0x6AF4F7, size: 0x8, addend: 0x0, symName: '__ZN3syn3gen5clone68_$LT$impl$u20$core..clone..Clone$u20$for$u20$syn..item..Receiver$GT$5clone17h3f91689b2c338982E', symObjAddr: 0x27140, symBinAddr: 0x128AB0, symSize: 0x1B0 }
  - { offsetInCU: 0x30782, offset: 0x6AF90C, size: 0x8, addend: 0x0, symName: '__ZN3syn3gen5clone69_$LT$impl$u20$core..clone..Clone$u20$for$u20$syn..item..Signature$GT$5clone17hf28c97c0572e4c68E', symObjAddr: 0x272F0, symBinAddr: 0x128C60, symSize: 0x5A0 }
  - { offsetInCU: 0x30F3A, offset: 0x6B00C4, size: 0x8, addend: 0x0, symName: '__ZN3syn3gen5clone69_$LT$impl$u20$core..clone..Clone$u20$for$u20$syn..item..TraitItem$GT$5clone17hd22c218447a047bfE', symObjAddr: 0x27890, symBinAddr: 0x129200, symSize: 0x1E0 }
  - { offsetInCU: 0x31280, offset: 0x6B040A, size: 0x8, addend: 0x0, symName: '__ZN3syn3gen5clone74_$LT$impl$u20$core..clone..Clone$u20$for$u20$syn..item..TraitItemConst$GT$5clone17he22a2ce3bf5c1704E', symObjAddr: 0x27A70, symBinAddr: 0x1293E0, symSize: 0x370 }
  - { offsetInCU: 0x31648, offset: 0x6B07D2, size: 0x8, addend: 0x0, symName: '__ZN3syn3gen5clone71_$LT$impl$u20$core..clone..Clone$u20$for$u20$syn..item..TraitItemFn$GT$5clone17h7ac8fc7a77eb5240E', symObjAddr: 0x27DE0, symBinAddr: 0x129750, symSize: 0x150 }
  - { offsetInCU: 0x3173A, offset: 0x6B08C4, size: 0x8, addend: 0x0, symName: '__ZN3syn3gen5clone73_$LT$impl$u20$core..clone..Clone$u20$for$u20$syn..item..TraitItemType$GT$5clone17h83742b5ed183cb22E', symObjAddr: 0x27F30, symBinAddr: 0x1298A0, symSize: 0x390 }
  - { offsetInCU: 0x31AF9, offset: 0x6B0C83, size: 0x8, addend: 0x0, symName: '__ZN3syn3gen5clone68_$LT$impl$u20$core..clone..Clone$u20$for$u20$syn..item..Variadic$GT$5clone17h397fcedc25d54663E', symObjAddr: 0x287E0, symBinAddr: 0x129ED0, symSize: 0x110 }
  - { offsetInCU: 0x3453D, offset: 0x6B36C7, size: 0x8, addend: 0x0, symName: '__ZN4core3ptr100drop_in_place$LT$core..option..Option$LT$alloc..boxed..Box$LT$syn..path..GenericArgument$GT$$GT$$GT$17h3a7c44b9e57fe410E', symObjAddr: 0x6C0, symBinAddr: 0x109D70, symSize: 0x50 }
  - { offsetInCU: 0x3485F, offset: 0x6B39E9, size: 0x8, addend: 0x0, symName: '__ZN4core3ptr100drop_in_place$LT$syn..punctuated..Punctuated$LT$syn..path..PathSegment$C$syn..token..PathSep$GT$$GT$17he41ef64147139591E', symObjAddr: 0x710, symBinAddr: 0x109DC0, symSize: 0x2B0 }
  - { offsetInCU: 0x35315, offset: 0x6B449F, size: 0x8, addend: 0x0, symName: '__ZN4core3ptr103drop_in_place$LT$core..option..Option$LT$alloc..boxed..Box$LT$syn..generics..TypeParamBound$GT$$GT$$GT$17hb14e4384a768542bE', symObjAddr: 0x9C0, symBinAddr: 0x10A070, symSize: 0x50 }
