---
triple:          'x86_64-apple-darwin'
binary-path:     "/Users/justinlanouette/Chaos/ChaöS-Token/hello_world/target/release/deps/libsyn_derive-77e002631e398b68.dylib"
relocations:
  - { offsetInCU: 0x1E, offset: 0x1E, size: 0x8, addend: 0x0, symName: __ZN10proc_macro6bridge6client14HandleCounters3get17h02da01958788119eE, symObjAddr: 0x0, symBinAddr: 0xD40, symSize: 0x10 }
  - { offsetInCU: 0x40, offset: 0x40, size: 0x8, addend: 0x0, symName: ___rustc_proc_macro_decls_743320dda4500955__, symObjAddr: 0xE988, symBinAddr: 0x268318, symSize: 0x0 }
  - { offsetInCU: 0x303, offset: 0x303, size: 0x8, addend: 0x0, symName: __ZN10syn_derive18derive_parse_inner17h7192cc4e1bd9cd76E, symObjAddr: 0x8920, symBinAddr: 0x9660, symSize: 0x12B0 }
  - { offsetInCU: 0x195A, offset: 0x195A, size: 0x8, addend: 0x0, symName: __ZN10syn_derive19derive_tokens_inner17ha2174c3ca4f3f222E, symObjAddr: 0x9BD0, symBinAddr: 0xA910, symSize: 0xC60 }
  - { offsetInCU: 0x25F7, offset: 0x25F7, size: 0x8, addend: 0x0, symName: __ZN10syn_derive19derive_parse_fields17h0a340c324fe7035aE, symObjAddr: 0xA830, symBinAddr: 0xB570, symSize: 0xEC0 }
  - { offsetInCU: 0x3D3C, offset: 0x3D3C, size: 0x8, addend: 0x0, symName: __ZN10syn_derive20derive_tokens_fields17hbc8779e9cafb11b6E, symObjAddr: 0xB6F0, symBinAddr: 0xC430, symSize: 0x5F0 }
  - { offsetInCU: 0x45C7, offset: 0x45C7, size: 0x8, addend: 0x0, symName: __ZN10syn_derive26derive_tokens_fields_inner17h6ebff382a0ff9cfdE, symObjAddr: 0xBCE0, symBinAddr: 0xCA20, symSize: 0x12F0 }
  - { offsetInCU: 0xA4E1, offset: 0xA4E1, size: 0x8, addend: 0x0, symName: '__ZN4core3ptr100drop_in_place$LT$core..option..Option$LT$alloc..boxed..Box$LT$syn..path..GenericArgument$GT$$GT$$GT$17h3976b6a3946c56d5E', symObjAddr: 0xC00, symBinAddr: 0x1940, symSize: 0x50 }
  - { offsetInCU: 0xA805, offset: 0xA805, size: 0x8, addend: 0x0, symName: '__ZN4core3ptr100drop_in_place$LT$syn..punctuated..Punctuated$LT$syn..path..PathSegment$C$syn..token..PathSep$GT$$GT$17h499dcbec94c1a630E', symObjAddr: 0xC50, symBinAddr: 0x1990, symSize: 0x260 }
  - { offsetInCU: 0xB19E, offset: 0xB19E, size: 0x8, addend: 0x0, symName: '__ZN4core3ptr103drop_in_place$LT$core..option..Option$LT$alloc..boxed..Box$LT$syn..generics..TypeParamBound$GT$$GT$$GT$17h71e68896d59885dcE', symObjAddr: 0xEB0, symBinAddr: 0x1BF0, symSize: 0x50 }
  - { offsetInCU: 0xB3E9, offset: 0xB3E9, size: 0x8, addend: 0x0, symName: '__ZN4core3ptr103drop_in_place$LT$core..option..Option$LT$alloc..boxed..Box$LT$syn..generics..WherePredicate$GT$$GT$$GT$17h9a4608366666a03eE', symObjAddr: 0xF00, symBinAddr: 0x1C40, symSize: 0xD0 }
  - { offsetInCU: 0xB77C, offset: 0xB77C, size: 0x8, addend: 0x0, symName: '__ZN4core3ptr103drop_in_place$LT$syn..punctuated..Punctuated$LT$syn..generics..GenericParam$C$syn..token..Comma$GT$$GT$17h15e43300a903bb89E', symObjAddr: 0xFD0, symBinAddr: 0x1D10, symSize: 0xF0 }
  - { offsetInCU: 0xBBE2, offset: 0xBBE2, size: 0x8, addend: 0x0, symName: '__ZN4core3ptr104drop_in_place$LT$syn..punctuated..Punctuated$LT$syn..generics..TypeParamBound$C$syn..token..Plus$GT$$GT$17had3acc816e743daaE', symObjAddr: 0x10C0, symBinAddr: 0x1E00, symSize: 0x190 }
  - { offsetInCU: 0xC274, offset: 0xC274, size: 0x8, addend: 0x0, symName: '__ZN4core3ptr295drop_in_place$LT$core..iter..adapters..peekable..Peekable$LT$core..iter..adapters..map..Map$LT$core..iter..adapters..enumerate..Enumerate$LT$core..iter..adapters..cloned..Cloned$LT$syn..punctuated..Iter$LT$syn..data..Field$GT$$GT$$GT$$C$syn_derive..named..$u7b$$u7b$closure$u7d$$u7d$$GT$$GT$$GT$17h15648176f87d8426E', symObjAddr: 0x1250, symBinAddr: 0x1F90, symSize: 0x60 }
  - { offsetInCU: 0xC49C, offset: 0xC49C, size: 0x8, addend: 0x0, symName: '__ZN4core3ptr34drop_in_place$LT$syn..lit..Lit$GT$17h6b60c77d72d8ba47E', symObjAddr: 0x12B0, symBinAddr: 0x1FF0, symSize: 0x110 }
  - { offsetInCU: 0xC9F5, offset: 0xC9F5, size: 0x8, addend: 0x0, symName: '__ZN4core3ptr34drop_in_place$LT$syn..pat..Pat$GT$17hfe0bc942cbb9fc1dE', symObjAddr: 0x13C0, symBinAddr: 0x2100, symSize: 0x1000 }
  - { offsetInCU: 0x1051A, offset: 0x1051A, size: 0x8, addend: 0x0, symName: '__ZN4core3ptr34drop_in_place$LT$syn..ty..Type$GT$17h0af7ff7d9a871ef4E', symObjAddr: 0x23C0, symBinAddr: 0x3100, symSize: 0x4F0 }
  - { offsetInCU: 0x11A46, offset: 0x11A46, size: 0x8, addend: 0x0, symName: '__ZN4core3ptr36drop_in_place$LT$syn..expr..Expr$GT$17hee572fdad3e3c377E', symObjAddr: 0x28B0, symBinAddr: 0x35F0, symSize: 0x28E0 }
  - { offsetInCU: 0x1AED8, offset: 0x1AED8, size: 0x8, addend: 0x0, symName: '__ZN4core3ptr36drop_in_place$LT$syn..mac..Macro$GT$17hef9caad1bbdb2928E', symObjAddr: 0x5190, symBinAddr: 0x5ED0, symSize: 0x40 }
  - { offsetInCU: 0x1AF12, offset: 0x1AF12, size: 0x8, addend: 0x0, symName: '__ZN4core3ptr36drop_in_place$LT$syn..path..Path$GT$17hc739472668523ee0E', symObjAddr: 0x51D0, symBinAddr: 0x5F10, symSize: 0x220 }
  - { offsetInCU: 0x1B8A4, offset: 0x1B8A4, size: 0x8, addend: 0x0, symName: '__ZN4core3ptr37drop_in_place$LT$syn..data..Field$GT$17h032c3db494aa11a2E', symObjAddr: 0x53F0, symBinAddr: 0x6130, symSize: 0x170 }
  - { offsetInCU: 0x1BDC5, offset: 0x1BDC5, size: 0x8, addend: 0x0, symName: '__ZN4core3ptr37drop_in_place$LT$syn..stmt..Block$GT$17h8f33d86832a9ade3E', symObjAddr: 0x5560, symBinAddr: 0x62A0, symSize: 0xD0 }
  - { offsetInCU: 0x1C123, offset: 0x1C123, size: 0x8, addend: 0x0, symName: '__ZN4core3ptr38drop_in_place$LT$syn..derive..Data$GT$17h4fa23cd17ed5e548E', symObjAddr: 0x5630, symBinAddr: 0x6370, symSize: 0x120 }
  - { offsetInCU: 0x1C47A, offset: 0x1C47A, size: 0x8, addend: 0x0, symName: '__ZN4core3ptr38drop_in_place$LT$syn..expr..Member$GT$17h9a05f98941ca44e3E', symObjAddr: 0x5750, symBinAddr: 0x6490, symSize: 0x30 }
  - { offsetInCU: 0x1C577, offset: 0x1C577, size: 0x8, addend: 0x0, symName: '__ZN4core3ptr39drop_in_place$LT$proc_macro2..Ident$GT$17h51a9079149430ca5E', symObjAddr: 0x5780, symBinAddr: 0x64C0, symSize: 0x30 }
  - { offsetInCU: 0x1C78B, offset: 0x1C78B, size: 0x8, addend: 0x0, symName: '__ZN4core3ptr39drop_in_place$LT$syn..buffer..Entry$GT$17h0a2fd36a49928bf6E', symObjAddr: 0x57B0, symBinAddr: 0x64F0, symSize: 0xC0 }
  - { offsetInCU: 0x1CA9F, offset: 0x1CA9F, size: 0x8, addend: 0x0, symName: '__ZN4core3ptr40drop_in_place$LT$syn..ty..ReturnType$GT$17hb55f0b29bbcffe7aE', symObjAddr: 0x5870, symBinAddr: 0x65B0, symSize: 0x50 }
  - { offsetInCU: 0x1CC11, offset: 0x1CC11, size: 0x8, addend: 0x0, symName: '__ZN4core3ptr41drop_in_place$LT$syn..expr..ExprConst$GT$17h8664d4ac74b7f167E', symObjAddr: 0x58C0, symBinAddr: 0x6600, symSize: 0x180 }
  - { offsetInCU: 0x1D166, offset: 0x1D166, size: 0x8, addend: 0x0, symName: '__ZN4core3ptr42drop_in_place$LT$syn_derive..FieldAttr$GT$17h22e8a991c90481f1E', symObjAddr: 0x5A40, symBinAddr: 0x6780, symSize: 0x60 }
  - { offsetInCU: 0x1D37B, offset: 0x1D37B, size: 0x8, addend: 0x0, symName: '__ZN4core3ptr44drop_in_place$LT$syn..generics..Generics$GT$17h43de71c227b3fe65E', symObjAddr: 0x5AA0, symBinAddr: 0x67E0, symSize: 0x40 }
  - { offsetInCU: 0x1D398, offset: 0x1D398, size: 0x8, addend: 0x0, symName: '__ZN4core3ptr44drop_in_place$LT$syn..lifetime..Lifetime$GT$17h64c6c9b4c34bdd12E', symObjAddr: 0x5AE0, symBinAddr: 0x6820, symSize: 0x30 }
  - { offsetInCU: 0x1D495, offset: 0x1D495, size: 0x8, addend: 0x0, symName: '__ZN4core3ptr44drop_in_place$LT$syn..parse..ParseBuffer$GT$17hffe8b9b07241349bE', symObjAddr: 0x5B10, symBinAddr: 0x6850, symSize: 0x70 }
  - { offsetInCU: 0x1D82F, offset: 0x1D82F, size: 0x8, addend: 0x0, symName: '__ZN4core3ptr45drop_in_place$LT$proc_macro2..TokenStream$GT$17ha9e262056121263eE', symObjAddr: 0x5B80, symBinAddr: 0x68C0, symSize: 0x140 }
  - { offsetInCU: 0x1DC4D, offset: 0x1DC4D, size: 0x8, addend: 0x0, symName: '__ZN4core3ptr45drop_in_place$LT$syn..buffer..TokenBuffer$GT$17hdada8a2629dc4c38E', symObjAddr: 0x5CC0, symBinAddr: 0x6A00, symSize: 0xD0 }
  - { offsetInCU: 0x1DE94, offset: 0x1DE94, size: 0x8, addend: 0x0, symName: '__ZN4core3ptr45drop_in_place$LT$syn..derive..DeriveInput$GT$17h77c8310fe596bc75E', symObjAddr: 0x5D90, symBinAddr: 0x6AD0, symSize: 0x1A0 }
  - { offsetInCU: 0x1E3EA, offset: 0x1E3EA, size: 0x8, addend: 0x0, symName: '__ZN4core3ptr45drop_in_place$LT$syn..generics..TypeParam$GT$17h23b2178ca3621470E', symObjAddr: 0x5F30, symBinAddr: 0x6C70, symSize: 0x230 }
  - { offsetInCU: 0x1EBE6, offset: 0x1EBE6, size: 0x8, addend: 0x0, symName: '__ZN4core3ptr46drop_in_place$LT$syn..generics..ConstParam$GT$17h8a262f238ef941e4E', symObjAddr: 0x6160, symBinAddr: 0x6EA0, symSize: 0x150 }
  - { offsetInCU: 0x1F010, offset: 0x1F010, size: 0x8, addend: 0x0, symName: '__ZN4core3ptr47drop_in_place$LT$syn..path..GenericArgument$GT$17h160c38ee261939cdE', symObjAddr: 0x62B0, symBinAddr: 0x6FF0, symSize: 0x4A0 }
  - { offsetInCU: 0x200B7, offset: 0x200B7, size: 0x8, addend: 0x0, symName: '__ZN4core3ptr49drop_in_place$LT$syn..generics..LifetimeParam$GT$17h313054da53e69355E', symObjAddr: 0x6750, symBinAddr: 0x7490, symSize: 0xF0 }
  - { offsetInCU: 0x20471, offset: 0x20471, size: 0x8, addend: 0x0, symName: '__ZN4core3ptr49drop_in_place$LT$syn..restriction..Visibility$GT$17ha917b3b59ff025c8E', symObjAddr: 0x6840, symBinAddr: 0x7580, symSize: 0x60 }
  - { offsetInCU: 0x205F4, offset: 0x205F4, size: 0x8, addend: 0x0, symName: '__ZN4core3ptr50drop_in_place$LT$syn..generics..TypeParamBound$GT$17h9c7c622140c9da06E', symObjAddr: 0x68A0, symBinAddr: 0x75E0, symSize: 0x160 }
  - { offsetInCU: 0x20A14, offset: 0x20A14, size: 0x8, addend: 0x0, symName: '__ZN4core3ptr58drop_in_place$LT$alloc..vec..Vec$LT$syn..expr..Arm$GT$$GT$17h6b1948b8db2bce6fE', symObjAddr: 0x6A00, symBinAddr: 0x7740, symSize: 0xD0 }
  - { offsetInCU: 0x20CA1, offset: 0x20CA1, size: 0x8, addend: 0x0, symName: '__ZN4core3ptr59drop_in_place$LT$alloc..boxed..Box$LT$syn..pat..Pat$GT$$GT$17h83e3a97283934866E', symObjAddr: 0x6AD0, symBinAddr: 0x7810, symSize: 0x50 }
  - { offsetInCU: 0x20DFC, offset: 0x20DFC, size: 0x8, addend: 0x0, symName: '__ZN4core3ptr59drop_in_place$LT$alloc..boxed..Box$LT$syn..ty..Type$GT$$GT$17h68f3d7ce8ae82e1fE', symObjAddr: 0x6B20, symBinAddr: 0x7860, symSize: 0x50 }
  - { offsetInCU: 0x20F57, offset: 0x20F57, size: 0x8, addend: 0x0, symName: '__ZN4core3ptr61drop_in_place$LT$alloc..boxed..Box$LT$syn..expr..Expr$GT$$GT$17hf2473b11b850ff26E', symObjAddr: 0x6B70, symBinAddr: 0x78B0, symSize: 0x50 }
  - { offsetInCU: 0x2112E, offset: 0x2112E, size: 0x8, addend: 0x0, symName: '__ZN4core3ptr61drop_in_place$LT$syn..path..ParenthesizedGenericArguments$GT$17h7974c08710945203E', symObjAddr: 0x6BC0, symBinAddr: 0x7900, symSize: 0x170 }
  - { offsetInCU: 0x216F5, offset: 0x216F5, size: 0x8, addend: 0x0, symName: '__ZN4core3ptr62drop_in_place$LT$syn..path..AngleBracketedGenericArguments$GT$17h47128114426828a2E', symObjAddr: 0x6D30, symBinAddr: 0x7A70, symSize: 0x120 }
  - { offsetInCU: 0x21B0B, offset: 0x21B0B, size: 0x8, addend: 0x0, symName: '__ZN4core3ptr63drop_in_place$LT$alloc..boxed..Box$LT$syn..lit..LitRepr$GT$$GT$17he43f62a182548d62E', symObjAddr: 0x6E50, symBinAddr: 0x7B90, symSize: 0x60 }
  - { offsetInCU: 0x21E00, offset: 0x21E00, size: 0x8, addend: 0x0, symName: '__ZN4core3ptr64drop_in_place$LT$alloc..boxed..Box$LT$syn..pat..FieldPat$GT$$GT$17h5d6f4e3f334c4f1cE', symObjAddr: 0x6EB0, symBinAddr: 0x7BF0, symSize: 0x140 }
  - { offsetInCU: 0x224AB, offset: 0x224AB, size: 0x8, addend: 0x0, symName: '__ZN4core3ptr64drop_in_place$LT$alloc..boxed..Box$LT$syn..ty..BareFnArg$GT$$GT$17hbaf5e7b0829d1c6eE', symObjAddr: 0x6FF0, symBinAddr: 0x7D30, symSize: 0x140 }
  - { offsetInCU: 0x229CF, offset: 0x229CF, size: 0x8, addend: 0x0, symName: '__ZN4core3ptr65drop_in_place$LT$core..option..Option$LT$syn..expr..Label$GT$$GT$17h35210e246cc7075eE', symObjAddr: 0x7130, symBinAddr: 0x7E70, symSize: 0x30 }
  - { offsetInCU: 0x22B0A, offset: 0x22B0A, size: 0x8, addend: 0x0, symName: '__ZN4core3ptr66drop_in_place$LT$core..option..Option$LT$syn..pat..PatRest$GT$$GT$17h109d2742695cbaddE', symObjAddr: 0x7160, symBinAddr: 0x7EA0, symSize: 0xE0 }
  - { offsetInCU: 0x22D8E, offset: 0x22D8E, size: 0x8, addend: 0x0, symName: '__ZN4core3ptr67drop_in_place$LT$alloc..boxed..Box$LT$syn..expr..FieldValue$GT$$GT$17h61a24e2077549ea3E', symObjAddr: 0x7240, symBinAddr: 0x7F80, symSize: 0x140 }
  - { offsetInCU: 0x23292, offset: 0x23292, size: 0x8, addend: 0x0, symName: '__ZN4core3ptr68drop_in_place$LT$alloc..boxed..Box$LT$syn..path..PathSegment$GT$$GT$17h6ca9c30b8be1cac8E', symObjAddr: 0x7380, symBinAddr: 0x80C0, symSize: 0x190 }
  - { offsetInCU: 0x23970, offset: 0x23970, size: 0x8, addend: 0x0, symName: '__ZN4core3ptr70drop_in_place$LT$core..option..Option$LT$syn..ty..BareVariadic$GT$$GT$17h94f3f521ec008aa3E', symObjAddr: 0x7510, symBinAddr: 0x8250, symSize: 0x120 }
  - { offsetInCU: 0x23E9D, offset: 0x23E9D, size: 0x8, addend: 0x0, symName: '__ZN4core3ptr72drop_in_place$LT$alloc..boxed..Box$LT$syn..path..GenericArgument$GT$$GT$17h868ea88692b0c422E', symObjAddr: 0x7630, symBinAddr: 0x8370, symSize: 0x1D0 }
  - { offsetInCU: 0x24440, offset: 0x24440, size: 0x8, addend: 0x0, symName: '__ZN4core3ptr72drop_in_place$LT$core..option..Option$LT$syn..lifetime..Lifetime$GT$$GT$17h7e95c58181ab0653E', symObjAddr: 0x7800, symBinAddr: 0x8540, symSize: 0x30 }
  - { offsetInCU: 0x2455C, offset: 0x2455C, size: 0x8, addend: 0x0, symName: '__ZN4core3ptr73drop_in_place$LT$alloc..boxed..Box$LT$syn..generics..GenericParam$GT$$GT$17hc215c6e1b028b324E', symObjAddr: 0x7830, symBinAddr: 0x8570, symSize: 0x80 }
  - { offsetInCU: 0x246D4, offset: 0x246D4, size: 0x8, addend: 0x0, symName: '__ZN4core3ptr75drop_in_place$LT$alloc..boxed..Box$LT$syn..generics..TypeParamBound$GT$$GT$17h62e5847596683f18E', symObjAddr: 0x78B0, symBinAddr: 0x85F0, symSize: 0xB0 }
  - { offsetInCU: 0x24A4E, offset: 0x24A4E, size: 0x8, addend: 0x0, symName: '__ZN4core3ptr75drop_in_place$LT$core..option..Option$LT$syn..generics..WhereClause$GT$$GT$17hf3c6f384b26e1c51E', symObjAddr: 0x7960, symBinAddr: 0x86A0, symSize: 0x90 }
  - { offsetInCU: 0x24D04, offset: 0x24D04, size: 0x8, addend: 0x0, symName: '__ZN4core3ptr86drop_in_place$LT$syn..punctuated..Punctuated$LT$syn..pat..Pat$C$syn..token..Or$GT$$GT$17hfc7ff3c167a59e94E', symObjAddr: 0x79F0, symBinAddr: 0x8730, symSize: 0x120 }
  - { offsetInCU: 0x2514A, offset: 0x2514A, size: 0x8, addend: 0x0, symName: '__ZN4core3ptr87drop_in_place$LT$core..option..Option$LT$alloc..boxed..Box$LT$syn..pat..Pat$GT$$GT$$GT$17h3766593dbbf17f07E', symObjAddr: 0x7B10, symBinAddr: 0x8850, symSize: 0x50 }
  - { offsetInCU: 0x252BC, offset: 0x252BC, size: 0x8, addend: 0x0, symName: '__ZN4core3ptr87drop_in_place$LT$core..option..Option$LT$alloc..boxed..Box$LT$syn..ty..Type$GT$$GT$$GT$17h9b8fd27e5577387cE', symObjAddr: 0x7B60, symBinAddr: 0x88A0, symSize: 0x50 }
  - { offsetInCU: 0x2542E, offset: 0x2542E, size: 0x8, addend: 0x0, symName: '__ZN4core3ptr89drop_in_place$LT$$LP$syn..expr..Member$C$syn_derive..FieldAttr$C$syn..data..Field$RP$$GT$17h1e135d6dc07370b4E', symObjAddr: 0x7BB0, symBinAddr: 0x88F0, symSize: 0x90 }
  - { offsetInCU: 0x25774, offset: 0x25774, size: 0x8, addend: 0x0, symName: '__ZN4core3ptr89drop_in_place$LT$core..option..Option$LT$alloc..boxed..Box$LT$syn..expr..Expr$GT$$GT$$GT$17h52dcbcaaf583ff0cE', symObjAddr: 0x7C40, symBinAddr: 0x8980, symSize: 0x50 }
  - { offsetInCU: 0x25924, offset: 0x25924, size: 0x8, addend: 0x0, symName: '__ZN4core3ptr89drop_in_place$LT$syn..punctuated..Punctuated$LT$syn..pat..Pat$C$syn..token..Comma$GT$$GT$17ha11cb7ffbf8adb93E', symObjAddr: 0x7C90, symBinAddr: 0x89D0, symSize: 0x120 }
  - { offsetInCU: 0x25D81, offset: 0x25D81, size: 0x8, addend: 0x0, symName: '__ZN4core3ptr89drop_in_place$LT$syn..punctuated..Punctuated$LT$syn..ty..Type$C$syn..token..Comma$GT$$GT$17h28e047858df5d615E', symObjAddr: 0x7DB0, symBinAddr: 0x8AF0, symSize: 0x120 }
  - { offsetInCU: 0x261EA, offset: 0x261EA, size: 0x8, addend: 0x0, symName: '__ZN4core3ptr90drop_in_place$LT$core..option..Option$LT$alloc..boxed..Box$LT$syn..data..Field$GT$$GT$$GT$17h997d4a4cf842ea9dE', symObjAddr: 0x7ED0, symBinAddr: 0x8C10, symSize: 0x50 }
  - { offsetInCU: 0x2634F, offset: 0x2634F, size: 0x8, addend: 0x0, symName: '__ZN4core3ptr90drop_in_place$LT$core..option..Option$LT$syn..path..AngleBracketedGenericArguments$GT$$GT$17h0e9d702ecb6b562aE', symObjAddr: 0x7F20, symBinAddr: 0x8C60, symSize: 0x130 }
  - { offsetInCU: 0x267BA, offset: 0x267BA, size: 0x8, addend: 0x0, symName: '__ZN4core3ptr91drop_in_place$LT$syn..punctuated..Punctuated$LT$syn..expr..Expr$C$syn..token..Comma$GT$$GT$17he59a897140a45010E', symObjAddr: 0x8050, symBinAddr: 0x8D90, symSize: 0x120 }
  - { offsetInCU: 0x26C93, offset: 0x26C93, size: 0x8, addend: 0x0, symName: '__ZN4core3ptr92drop_in_place$LT$core..option..Option$LT$alloc..boxed..Box$LT$syn..data..Variant$GT$$GT$$GT$17hfa15472f0c8539d8E', symObjAddr: 0x8170, symBinAddr: 0x8EB0, symSize: 0x1A0 }
  - { offsetInCU: 0x27376, offset: 0x27376, size: 0x8, addend: 0x0, symName: '__ZN4core3ptr92drop_in_place$LT$syn..punctuated..Punctuated$LT$syn..data..Field$C$syn..token..Comma$GT$$GT$17hc21e5dfaf8c23f93E', symObjAddr: 0x8310, symBinAddr: 0x9050, symSize: 0x120 }
  - { offsetInCU: 0x277B3, offset: 0x277B3, size: 0x8, addend: 0x0, symName: '__ZN4core3ptr94drop_in_place$LT$syn..punctuated..Punctuated$LT$syn..pat..FieldPat$C$syn..token..Comma$GT$$GT$17hf15d1d73808e7756E', symObjAddr: 0x8430, symBinAddr: 0x9170, symSize: 0xF0 }
  - { offsetInCU: 0x27A7D, offset: 0x27A7D, size: 0x8, addend: 0x0, symName: '__ZN4core3ptr94drop_in_place$LT$syn..punctuated..Punctuated$LT$syn..ty..BareFnArg$C$syn..token..Comma$GT$$GT$17hb18255224b06a811E', symObjAddr: 0x8520, symBinAddr: 0x9260, symSize: 0xF0 }
  - { offsetInCU: 0x27D47, offset: 0x27D47, size: 0x8, addend: 0x0, symName: '__ZN4core3ptr96drop_in_place$LT$core..option..Option$LT$alloc..boxed..Box$LT$syn..path..PathSegment$GT$$GT$$GT$17h3989ab6e08ac68c4E', symObjAddr: 0x8610, symBinAddr: 0x9350, symSize: 0x90 }
  - { offsetInCU: 0x27FC9, offset: 0x27FC9, size: 0x8, addend: 0x0, symName: '__ZN4core3ptr97drop_in_place$LT$syn..punctuated..Punctuated$LT$syn..expr..FieldValue$C$syn..token..Comma$GT$$GT$17hb048018f44a756c3E', symObjAddr: 0x86A0, symBinAddr: 0x93E0, symSize: 0xF0 }
  - { offsetInCU: 0x28293, offset: 0x28293, size: 0x8, addend: 0x0, symName: '__ZN4core3ptr98drop_in_place$LT$alloc..vec..Vec$LT$$LP$syn..path..GenericArgument$C$syn..token..Comma$RP$$GT$$GT$17h62e091849de4878aE', symObjAddr: 0x8790, symBinAddr: 0x94D0, symSize: 0xD0 }
  - { offsetInCU: 0x2859C, offset: 0x2859C, size: 0x8, addend: 0x0, symName: '__ZN4core3ptr98drop_in_place$LT$syn..punctuated..Punctuated$LT$syn..lifetime..Lifetime$C$syn..token..Plus$GT$$GT$17hfad1276e02bd5dc6E', symObjAddr: 0x8860, symBinAddr: 0x95A0, symSize: 0xC0 }
  - { offsetInCU: 0x29008, offset: 0x29008, size: 0x8, addend: 0x0, symName: '__ZN4core3ops8function5impls80_$LT$impl$u20$core..ops..function..FnOnce$LT$A$GT$$u20$for$u20$$RF$mut$u20$F$GT$9call_once17ha939b567bab3a436E', symObjAddr: 0x880, symBinAddr: 0x15C0, symSize: 0x380 }
  - { offsetInCU: 0x2A79F, offset: 0x2A79F, size: 0x8, addend: 0x0, symName: __ZN10proc_macro6bridge6client14HandleCounters3get17h02da01958788119eE, symObjAddr: 0x0, symBinAddr: 0xD40, symSize: 0x10 }
  - { offsetInCU: 0x2AA0B, offset: 0x2AA0B, size: 0x8, addend: 0x0, symName: '__ZN40_$LT$F$u20$as$u20$syn..parse..Parser$GT$14__parse_scoped17h546ed18177a57714E', symObjAddr: 0x10, symBinAddr: 0xD50, symSize: 0x870 }
  - { offsetInCU: 0x1E, offset: 0x3880C, size: 0x8, addend: 0x0, symName: '__ZN4core3ptr100drop_in_place$LT$core..option..Option$LT$alloc..boxed..Box$LT$syn..path..GenericArgument$GT$$GT$$GT$17h3976b6a3946c56d5E', symObjAddr: 0x0, symBinAddr: 0xDD10, symSize: 0x50 }
  - { offsetInCU: 0x1F87, offset: 0x3A775, size: 0x8, addend: 0x0, symName: '__ZN4core3ptr100drop_in_place$LT$core..option..Option$LT$alloc..boxed..Box$LT$syn..path..GenericArgument$GT$$GT$$GT$17h3976b6a3946c56d5E', symObjAddr: 0x0, symBinAddr: 0xDD10, symSize: 0x50 }
  - { offsetInCU: 0x22CA, offset: 0x3AAB8, size: 0x8, addend: 0x0, symName: '__ZN4core3ptr100drop_in_place$LT$syn..punctuated..Punctuated$LT$syn..path..PathSegment$C$syn..token..PathSep$GT$$GT$17h499dcbec94c1a630E.llvm.1989816065882140686', symObjAddr: 0x50, symBinAddr: 0xDD60, symSize: 0x1A0 }
  - { offsetInCU: 0x29A2, offset: 0x3B190, size: 0x8, addend: 0x0, symName: '__ZN4core3ptr101drop_in_place$LT$core..option..Option$LT$alloc..boxed..Box$LT$syn..generics..GenericParam$GT$$GT$$GT$17h4ea1dd636493c3cbE', symObjAddr: 0x1F0, symBinAddr: 0xDF00, symSize: 0x50 }
  - { offsetInCU: 0x2B90, offset: 0x3B37E, size: 0x8, addend: 0x0, symName: '__ZN4core3ptr102drop_in_place$LT$syn..punctuated..Punctuated$LT$syn..path..GenericArgument$C$syn..token..Comma$GT$$GT$17hed2f1cc8e4eed741E.llvm.1989816065882140686', symObjAddr: 0x240, symBinAddr: 0xDF50, symSize: 0xF0 }
  - { offsetInCU: 0x2E79, offset: 0x3B667, size: 0x8, addend: 0x0, symName: '__ZN4core3ptr103drop_in_place$LT$core..option..Option$LT$alloc..boxed..Box$LT$syn..generics..TypeParamBound$GT$$GT$$GT$17h71e68896d59885dcE.llvm.1989816065882140686', symObjAddr: 0x330, symBinAddr: 0xE040, symSize: 0x50 }
  - { offsetInCU: 0x300A, offset: 0x3B7F8, size: 0x8, addend: 0x0, symName: '__ZN4core3ptr103drop_in_place$LT$core..option..Option$LT$alloc..boxed..Box$LT$syn..generics..WherePredicate$GT$$GT$$GT$17h9a4608366666a03eE', symObjAddr: 0x380, symBinAddr: 0xE090, symSize: 0x50 }
  - { offsetInCU: 0x3236, offset: 0x3BA24, size: 0x8, addend: 0x0, symName: '__ZN4core3ptr103drop_in_place$LT$syn..punctuated..Punctuated$LT$syn..generics..GenericParam$C$syn..token..Comma$GT$$GT$17h15e43300a903bb89E.llvm.1989816065882140686', symObjAddr: 0x3D0, symBinAddr: 0xE0E0, symSize: 0x1A0 }
  - { offsetInCU: 0x3805, offset: 0x3BFF3, size: 0x8, addend: 0x0, symName: '__ZN4core3ptr104drop_in_place$LT$syn..punctuated..Punctuated$LT$syn..generics..TypeParamBound$C$syn..token..Plus$GT$$GT$17had3acc816e743daaE.llvm.1989816065882140686', symObjAddr: 0x570, symBinAddr: 0xE280, symSize: 0x230 }
  - { offsetInCU: 0x4136, offset: 0x3C924, size: 0x8, addend: 0x0, symName: '__ZN4core3ptr105drop_in_place$LT$syn..punctuated..Punctuated$LT$syn..generics..WherePredicate$C$syn..token..Comma$GT$$GT$17h8649c9dddd9f8dadE', symObjAddr: 0x7A0, symBinAddr: 0xE4B0, symSize: 0x190 }
  - { offsetInCU: 0x4807, offset: 0x3CFF5, size: 0x8, addend: 0x0, symName: '__ZN4core3ptr116drop_in_place$LT$core..option..Option$LT$$LP$syn..token..Else$C$alloc..boxed..Box$LT$syn..expr..Expr$GT$$RP$$GT$$GT$17hbd2c49803fbb8e81E', symObjAddr: 0x930, symBinAddr: 0xE640, symSize: 0x50 }
  - { offsetInCU: 0x49C5, offset: 0x3D1B3, size: 0x8, addend: 0x0, symName: '__ZN4core3ptr126drop_in_place$LT$core..option..Option$LT$$LP$syn..token..And$C$core..option..Option$LT$syn..lifetime..Lifetime$GT$$RP$$GT$$GT$17h1d4f83d91da73c27E', symObjAddr: 0x980, symBinAddr: 0xE690, symSize: 0x30 }
  - { offsetInCU: 0x4C55, offset: 0x3D443, size: 0x8, addend: 0x0, symName: '__ZN4core3ptr33drop_in_place$LT$syn..ty..Abi$GT$17hceaf2fd86a980bc2E', symObjAddr: 0x9B0, symBinAddr: 0xE6C0, symSize: 0x60 }
  - { offsetInCU: 0x4C71, offset: 0x3D45F, size: 0x8, addend: 0x0, symName: '__ZN4core3ptr33drop_in_place$LT$syn..ty..Abi$GT$17hceaf2fd86a980bc2E', symObjAddr: 0x9B0, symBinAddr: 0xE6C0, symSize: 0x60 }
  - { offsetInCU: 0x4F6B, offset: 0x3D759, size: 0x8, addend: 0x0, symName: '__ZN4core3ptr34drop_in_place$LT$syn..lit..Lit$GT$17h6b60c77d72d8ba47E', symObjAddr: 0xA10, symBinAddr: 0xE720, symSize: 0x110 }
  - { offsetInCU: 0x54E3, offset: 0x3DCD1, size: 0x8, addend: 0x0, symName: '__ZN4core3ptr34drop_in_place$LT$syn..pat..Pat$GT$17hfe0bc942cbb9fc1dE.llvm.1989816065882140686', symObjAddr: 0xB20, symBinAddr: 0xE830, symSize: 0xF50 }
  - { offsetInCU: 0x8F82, offset: 0x41770, size: 0x8, addend: 0x0, symName: '__ZN4core3ptr34drop_in_place$LT$syn..ty..Type$GT$17h0af7ff7d9a871ef4E.llvm.1989816065882140686', symObjAddr: 0x1A70, symBinAddr: 0xF780, symSize: 0x4E0 }
  - { offsetInCU: 0xA04B, offset: 0x42839, size: 0x8, addend: 0x0, symName: '__ZN4core3ptr35drop_in_place$LT$syn..expr..Arm$GT$17h78fcfb467cc5dcc4E.llvm.1989816065882140686', symObjAddr: 0x1F50, symBinAddr: 0xFC60, symSize: 0x190 }
  - { offsetInCU: 0xA663, offset: 0x42E51, size: 0x8, addend: 0x0, symName: '__ZN4core3ptr36drop_in_place$LT$syn..attr..Meta$GT$17h3c76eb0d6fcbf92eE.llvm.1989816065882140686', symObjAddr: 0x20E0, symBinAddr: 0xFDF0, symSize: 0x220 }
  - { offsetInCU: 0xB1A0, offset: 0x4398E, size: 0x8, addend: 0x0, symName: '__ZN4core3ptr36drop_in_place$LT$syn..expr..Expr$GT$17hee572fdad3e3c377E.llvm.1989816065882140686', symObjAddr: 0x2300, symBinAddr: 0x10010, symSize: 0x2830 }
  - { offsetInCU: 0x15132, offset: 0x4D920, size: 0x8, addend: 0x0, symName: '__ZN4core3ptr36drop_in_place$LT$syn..item..Item$GT$17h00915a97a78e7c00E', symObjAddr: 0x4B30, symBinAddr: 0x12840, symSize: 0x17D0 }
  - { offsetInCU: 0x1A631, offset: 0x52E1F, size: 0x8, addend: 0x0, symName: '__ZN4core3ptr36drop_in_place$LT$syn..mac..Macro$GT$17hef9caad1bbdb2928E', symObjAddr: 0x6300, symBinAddr: 0x14010, symSize: 0xE0 }
  - { offsetInCU: 0x1A93B, offset: 0x53129, size: 0x8, addend: 0x0, symName: '__ZN4core3ptr36drop_in_place$LT$syn..path..Path$GT$17hc739472668523ee0E.llvm.1989816065882140686', symObjAddr: 0x63E0, symBinAddr: 0x140F0, symSize: 0x150 }
  - { offsetInCU: 0x1AEC9, offset: 0x536B7, size: 0x8, addend: 0x0, symName: '__ZN4core3ptr36drop_in_place$LT$syn..stmt..Stmt$GT$17h53dee7dd80faf547E.llvm.1989816065882140686', symObjAddr: 0x6530, symBinAddr: 0x14240, symSize: 0x380 }
  - { offsetInCU: 0x1BAA8, offset: 0x54296, size: 0x8, addend: 0x0, symName: '__ZN4core3ptr37drop_in_place$LT$syn..data..Field$GT$17h032c3db494aa11a2E.llvm.1989816065882140686', symObjAddr: 0x68B0, symBinAddr: 0x145C0, symSize: 0x180 }
  - { offsetInCU: 0x1C039, offset: 0x54827, size: 0x8, addend: 0x0, symName: '__ZN4core3ptr37drop_in_place$LT$syn..item..FnArg$GT$17h0cca3eff615f7912E', symObjAddr: 0x6A30, symBinAddr: 0x14740, symSize: 0x230 }
  - { offsetInCU: 0x1C8EB, offset: 0x550D9, size: 0x8, addend: 0x0, symName: '__ZN4core3ptr37drop_in_place$LT$syn..stmt..Block$GT$17h8f33d86832a9ade3E', symObjAddr: 0x6C60, symBinAddr: 0x14970, symSize: 0xD0 }
  - { offsetInCU: 0x1CB8F, offset: 0x5537D, size: 0x8, addend: 0x0, symName: '__ZN4core3ptr38drop_in_place$LT$syn..expr..Member$GT$17h9a05f98941ca44e3E.llvm.1989816065882140686', symObjAddr: 0x6D30, symBinAddr: 0x14A40, symSize: 0x30 }
  - { offsetInCU: 0x1CC8C, offset: 0x5547A, size: 0x8, addend: 0x0, symName: '__ZN4core3ptr38drop_in_place$LT$syn..pat..PatType$GT$17h345a06050e30b12cE', symObjAddr: 0x6D60, symBinAddr: 0x14A70, symSize: 0x140 }
  - { offsetInCU: 0x1D208, offset: 0x559F6, size: 0x8, addend: 0x0, symName: '__ZN4core3ptr39drop_in_place$LT$proc_macro2..Ident$GT$17h51a9079149430ca5E.llvm.1989816065882140686', symObjAddr: 0x6EA0, symBinAddr: 0x14BB0, symSize: 0x30 }
  - { offsetInCU: 0x1D343, offset: 0x55B31, size: 0x8, addend: 0x0, symName: '__ZN4core3ptr39drop_in_place$LT$syn..data..Variant$GT$17h629e7ba267eef7b7E.llvm.1989816065882140686', symObjAddr: 0x6ED0, symBinAddr: 0x14BE0, symSize: 0x2F0 }
  - { offsetInCU: 0x1DF51, offset: 0x5673F, size: 0x8, addend: 0x0, symName: '__ZN4core3ptr39drop_in_place$LT$syn..item..UseTree$GT$17he6821268f3c5ca28E', symObjAddr: 0x71C0, symBinAddr: 0x14ED0, symSize: 0x1D0 }
  - { offsetInCU: 0x1E670, offset: 0x56E5E, size: 0x8, addend: 0x0, symName: '__ZN4core3ptr40drop_in_place$LT$syn..item..ImplItem$GT$17ha58026fd67d854f1E', symObjAddr: 0x7390, symBinAddr: 0x150A0, symSize: 0x240 }
  - { offsetInCU: 0x1EC6B, offset: 0x57459, size: 0x8, addend: 0x0, symName: '__ZN4core3ptr40drop_in_place$LT$syn..item..Receiver$GT$17h0f6c11ec032a369cE', symObjAddr: 0x75D0, symBinAddr: 0x152E0, symSize: 0x130 }
  - { offsetInCU: 0x1F23E, offset: 0x57A2C, size: 0x8, addend: 0x0, symName: '__ZN4core3ptr40drop_in_place$LT$syn..item..Variadic$GT$17h8b807ff4508359bcE', symObjAddr: 0x7700, symBinAddr: 0x15410, symSize: 0x120 }
  - { offsetInCU: 0x1F6B5, offset: 0x57EA3, size: 0x8, addend: 0x0, symName: '__ZN4core3ptr40drop_in_place$LT$syn..ty..ReturnType$GT$17hb55f0b29bbcffe7aE.llvm.1989816065882140686', symObjAddr: 0x7820, symBinAddr: 0x15530, symSize: 0x50 }
  - { offsetInCU: 0x1F846, offset: 0x58034, size: 0x8, addend: 0x0, symName: '__ZN4core3ptr41drop_in_place$LT$syn..attr..Attribute$GT$17h7ebfeb8edb0d9210E.llvm.1989816065882140686', symObjAddr: 0x7870, symBinAddr: 0x15580, symSize: 0x160 }
  - { offsetInCU: 0x1FD2C, offset: 0x5851A, size: 0x8, addend: 0x0, symName: '__ZN4core3ptr41drop_in_place$LT$syn..item..Signature$GT$17ha9de78c81c0815c3E', symObjAddr: 0x79D0, symBinAddr: 0x156E0, symSize: 0x280 }
  - { offsetInCU: 0x2081B, offset: 0x59009, size: 0x8, addend: 0x0, symName: '__ZN4core3ptr41drop_in_place$LT$syn..item..TraitItem$GT$17h3cbf3114affd1e1dE', symObjAddr: 0x7C50, symBinAddr: 0x15960, symSize: 0x3E0 }
  - { offsetInCU: 0x21341, offset: 0x59B2F, size: 0x8, addend: 0x0, symName: '__ZN4core3ptr42drop_in_place$LT$syn..item..ImplItemFn$GT$17h8d7bd7554cc44e65E', symObjAddr: 0x8030, symBinAddr: 0x15D40, symSize: 0x230 }
  - { offsetInCU: 0x21A9C, offset: 0x5A28A, size: 0x8, addend: 0x0, symName: '__ZN4core3ptr42drop_in_place$LT$syn..path..Constraint$GT$17hcbc37ecd7a9598daE', symObjAddr: 0x8260, symBinAddr: 0x15F70, symSize: 0x160 }
  - { offsetInCU: 0x22132, offset: 0x5A920, size: 0x8, addend: 0x0, symName: '__ZN4core3ptr43drop_in_place$LT$proc_macro2..TokenTree$GT$17hc329c0af4ce02b97E.llvm.1989816065882140686', symObjAddr: 0x83C0, symBinAddr: 0x160D0, symSize: 0xB0 }
  - { offsetInCU: 0x22446, offset: 0x5AC34, size: 0x8, addend: 0x0, symName: '__ZN4core3ptr43drop_in_place$LT$syn..data..FieldsNamed$GT$17h1bcf11e64aa6dc38E', symObjAddr: 0x8470, symBinAddr: 0x16180, symSize: 0x120 }
  - { offsetInCU: 0x228CE, offset: 0x5B0BC, size: 0x8, addend: 0x0, symName: '__ZN4core3ptr43drop_in_place$LT$syn..item..ForeignItem$GT$17h8b0286ef9342b395E', symObjAddr: 0x8590, symBinAddr: 0x162A0, symSize: 0x330 }
  - { offsetInCU: 0x23255, offset: 0x5BA43, size: 0x8, addend: 0x0, symName: '__ZN4core3ptr43drop_in_place$LT$syn..path..PathSegment$GT$17h528363a8c54ce5dbE.llvm.1989816065882140686', symObjAddr: 0x88C0, symBinAddr: 0x165D0, symSize: 0x170 }
  - { offsetInCU: 0x237F9, offset: 0x5BFE7, size: 0x8, addend: 0x0, symName: '__ZN4core3ptr44drop_in_place$LT$syn..generics..Generics$GT$17h43de71c227b3fe65E', symObjAddr: 0x8A30, symBinAddr: 0x16740, symSize: 0x220 }
  - { offsetInCU: 0x24076, offset: 0x5C864, size: 0x8, addend: 0x0, symName: '__ZN4core3ptr44drop_in_place$LT$syn..item..ImplItemType$GT$17h958a930a4f7123a6E', symObjAddr: 0x8C50, symBinAddr: 0x16960, symSize: 0x1D0 }
  - { offsetInCU: 0x2465E, offset: 0x5CE4C, size: 0x8, addend: 0x0, symName: '__ZN4core3ptr44drop_in_place$LT$syn..lifetime..Lifetime$GT$17h64c6c9b4c34bdd12E.llvm.1989816065882140686', symObjAddr: 0x8E20, symBinAddr: 0x16B30, symSize: 0x30 }
  - { offsetInCU: 0x247B8, offset: 0x5CFA6, size: 0x8, addend: 0x0, symName: '__ZN4core3ptr45drop_in_place$LT$proc_macro2..TokenStream$GT$17ha9e262056121263eE.llvm.1989816065882140686', symObjAddr: 0x8E50, symBinAddr: 0x16B60, symSize: 0x70 }
  - { offsetInCU: 0x2491F, offset: 0x5D10D, size: 0x8, addend: 0x0, symName: '__ZN4core3ptr45drop_in_place$LT$syn..generics..TypeParam$GT$17h23b2178ca3621470E.llvm.1989816065882140686', symObjAddr: 0x8EC0, symBinAddr: 0x16BD0, symSize: 0x230 }
  - { offsetInCU: 0x25164, offset: 0x5D952, size: 0x8, addend: 0x0, symName: '__ZN4core3ptr45drop_in_place$LT$syn..item..ImplItemConst$GT$17h4fe4f1d10c72fafcE', symObjAddr: 0x90F0, symBinAddr: 0x16E00, symSize: 0x200 }
  - { offsetInCU: 0x2578A, offset: 0x5DF78, size: 0x8, addend: 0x0, symName: '__ZN4core3ptr45drop_in_place$LT$syn..item..TraitItemType$GT$17h78727f00eb39fd20E', symObjAddr: 0x92F0, symBinAddr: 0x17000, symSize: 0x290 }
  - { offsetInCU: 0x2609B, offset: 0x5E889, size: 0x8, addend: 0x0, symName: '__ZN4core3ptr46drop_in_place$LT$syn..generics..ConstParam$GT$17h8a262f238ef941e4E.llvm.1989816065882140686', symObjAddr: 0x9580, symBinAddr: 0x17290, symSize: 0x150 }
  - { offsetInCU: 0x2649C, offset: 0x5EC8A, size: 0x8, addend: 0x0, symName: '__ZN4core3ptr46drop_in_place$LT$syn..item..TraitItemConst$GT$17h59b7982f9fe1c9a9E', symObjAddr: 0x96D0, symBinAddr: 0x173E0, symSize: 0x1A0 }
  - { offsetInCU: 0x26950, offset: 0x5F13E, size: 0x8, addend: 0x0, symName: '__ZN4core3ptr47drop_in_place$LT$syn..generics..WhereClause$GT$17ha89361449a55eb3fE', symObjAddr: 0x9870, symBinAddr: 0x17580, symSize: 0x120 }
  - { offsetInCU: 0x26D9A, offset: 0x5F588, size: 0x8, addend: 0x0, symName: '__ZN4core3ptr47drop_in_place$LT$syn..item..ForeignItemType$GT$17h5196212af32dd6d7E', symObjAddr: 0x9990, symBinAddr: 0x176A0, symSize: 0x1A0 }
  - { offsetInCU: 0x273DF, offset: 0x5FBCD, size: 0x8, addend: 0x0, symName: '__ZN4core3ptr47drop_in_place$LT$syn..path..GenericArgument$GT$17h160c38ee261939cdE', symObjAddr: 0x9B30, symBinAddr: 0x17840, symSize: 0x1C0 }
  - { offsetInCU: 0x27892, offset: 0x60080, size: 0x8, addend: 0x0, symName: '__ZN4core3ptr48drop_in_place$LT$syn..generics..GenericParam$GT$17h00877970940c9f74E', symObjAddr: 0x9CF0, symBinAddr: 0x17A00, symSize: 0x150 }
  - { offsetInCU: 0x27C84, offset: 0x60472, size: 0x8, addend: 0x0, symName: '__ZN4core3ptr49drop_in_place$LT$syn..generics..LifetimeParam$GT$17h313054da53e69355E.llvm.1989816065882140686', symObjAddr: 0x9E40, symBinAddr: 0x17B50, symSize: 0xF0 }
  - { offsetInCU: 0x2805F, offset: 0x6084D, size: 0x8, addend: 0x0, symName: '__ZN4core3ptr49drop_in_place$LT$syn..generics..PredicateType$GT$17he784761343648231E.llvm.1989816065882140686', symObjAddr: 0x9F30, symBinAddr: 0x17C40, symSize: 0x170 }
  - { offsetInCU: 0x284DB, offset: 0x60CC9, size: 0x8, addend: 0x0, symName: '__ZN4core3ptr49drop_in_place$LT$syn..item..ForeignItemStatic$GT$17h4acdad37948ed20bE', symObjAddr: 0xA0A0, symBinAddr: 0x17DB0, symSize: 0x180 }
  - { offsetInCU: 0x28BB4, offset: 0x613A2, size: 0x8, addend: 0x0, symName: '__ZN4core3ptr50drop_in_place$LT$$u5b$syn..item..ImplItem$u5d$$GT$17h3d61bfd121007cb3E', symObjAddr: 0xA220, symBinAddr: 0x17F30, symSize: 0x230 }
  - { offsetInCU: 0x28EDC, offset: 0x616CA, size: 0x8, addend: 0x0, symName: '__ZN4core3ptr50drop_in_place$LT$syn..generics..TypeParamBound$GT$17h9c7c622140c9da06E.llvm.1989816065882140686', symObjAddr: 0xA450, symBinAddr: 0x18160, symSize: 0xA0 }
  - { offsetInCU: 0x29062, offset: 0x61850, size: 0x8, addend: 0x0, symName: '__ZN4core3ptr50drop_in_place$LT$syn..generics..WherePredicate$GT$17hcfb232a8ca865c6aE', symObjAddr: 0xA4F0, symBinAddr: 0x18200, symSize: 0xA0 }
  - { offsetInCU: 0x2920F, offset: 0x619FD, size: 0x8, addend: 0x0, symName: '__ZN4core3ptr51drop_in_place$LT$$u5b$syn..item..TraitItem$u5d$$GT$17hf502eb088bba7fd9E', symObjAddr: 0xA590, symBinAddr: 0x182A0, symSize: 0x3F0 }
  - { offsetInCU: 0x29A67, offset: 0x62255, size: 0x8, addend: 0x0, symName: '__ZN4core3ptr52drop_in_place$LT$syn..restriction..VisRestricted$GT$17h0747b0d0ad1f1b04E', symObjAddr: 0xA980, symBinAddr: 0x18690, symSize: 0x50 }
  - { offsetInCU: 0x29C00, offset: 0x623EE, size: 0x8, addend: 0x0, symName: '__ZN4core3ptr53drop_in_place$LT$$u5b$syn..item..ForeignItem$u5d$$GT$17h4385b201c57dd8f5E', symObjAddr: 0xA9D0, symBinAddr: 0x186E0, symSize: 0x360 }
  - { offsetInCU: 0x2A37E, offset: 0x62B6C, size: 0x8, addend: 0x0, symName: '__ZN4core3ptr58drop_in_place$LT$alloc..vec..Vec$LT$syn..expr..Arm$GT$$GT$17h6b1948b8db2bce6fE', symObjAddr: 0xAD30, symBinAddr: 0x18A40, symSize: 0xD0 }
  - { offsetInCU: 0x2A60B, offset: 0x62DF9, size: 0x8, addend: 0x0, symName: '__ZN4core3ptr59drop_in_place$LT$alloc..boxed..Box$LT$syn..pat..Pat$GT$$GT$17h83e3a97283934866E.llvm.1989816065882140686', symObjAddr: 0xAE00, symBinAddr: 0x18B10, symSize: 0x50 }
  - { offsetInCU: 0x2A766, offset: 0x62F54, size: 0x8, addend: 0x0, symName: '__ZN4core3ptr59drop_in_place$LT$alloc..boxed..Box$LT$syn..ty..Type$GT$$GT$17h68f3d7ce8ae82e1fE', symObjAddr: 0xAE50, symBinAddr: 0x18B60, symSize: 0x50 }
  - { offsetInCU: 0x2A8C1, offset: 0x630AF, size: 0x8, addend: 0x0, symName: '__ZN4core3ptr59drop_in_place$LT$alloc..vec..Vec$LT$syn..item..Item$GT$$GT$17haf8fdd6f9b7957b9E', symObjAddr: 0xAEA0, symBinAddr: 0x18BB0, symSize: 0xD0 }
  - { offsetInCU: 0x2AB4E, offset: 0x6333C, size: 0x8, addend: 0x0, symName: '__ZN4core3ptr61drop_in_place$LT$alloc..boxed..Box$LT$syn..expr..Expr$GT$$GT$17hf2473b11b850ff26E', symObjAddr: 0xAF70, symBinAddr: 0x18C80, symSize: 0x50 }
  - { offsetInCU: 0x2ACA9, offset: 0x63497, size: 0x8, addend: 0x0, symName: '__ZN4core3ptr61drop_in_place$LT$alloc..boxed..Box$LT$syn..path..Path$GT$$GT$17h57ae8d810ca5ad6aE', symObjAddr: 0xAFC0, symBinAddr: 0x18CD0, symSize: 0xF0 }
  - { offsetInCU: 0x2B1CD, offset: 0x639BB, size: 0x8, addend: 0x0, symName: '__ZN4core3ptr61drop_in_place$LT$proc_macro_error..diagnostic..Diagnostic$GT$17h2e9880868f3b810fE.llvm.1989816065882140686', symObjAddr: 0xB0B0, symBinAddr: 0x18DC0, symSize: 0xF0 }
  - { offsetInCU: 0x2B817, offset: 0x64005, size: 0x8, addend: 0x0, symName: '__ZN4core3ptr61drop_in_place$LT$syn..path..ParenthesizedGenericArguments$GT$17h7974c08710945203E.llvm.1989816065882140686', symObjAddr: 0xB1A0, symBinAddr: 0x18EB0, symSize: 0x170 }
  - { offsetInCU: 0x2BDDE, offset: 0x645CC, size: 0x8, addend: 0x0, symName: '__ZN4core3ptr62drop_in_place$LT$alloc..boxed..Box$LT$syn..data..Field$GT$$GT$17h9a96e8fdafe69839E', symObjAddr: 0xB310, symBinAddr: 0x19020, symSize: 0x50 }
  - { offsetInCU: 0x2BF58, offset: 0x64746, size: 0x8, addend: 0x0, symName: '__ZN4core3ptr62drop_in_place$LT$alloc..boxed..Box$LT$syn..item..FnArg$GT$$GT$17hb4c8ece823f49855E', symObjAddr: 0xB360, symBinAddr: 0x19070, symSize: 0x60 }
  - { offsetInCU: 0x2C0D0, offset: 0x648BE, size: 0x8, addend: 0x0, symName: '__ZN4core3ptr62drop_in_place$LT$alloc..boxed..Box$LT$syn..stmt..Block$GT$$GT$17h0c49cd28c4811c63E', symObjAddr: 0xB3C0, symBinAddr: 0x190D0, symSize: 0xE0 }
  - { offsetInCU: 0x2C4B1, offset: 0x64C9F, size: 0x8, addend: 0x0, symName: '__ZN4core3ptr62drop_in_place$LT$syn..path..AngleBracketedGenericArguments$GT$17h47128114426828a2E.llvm.1989816065882140686', symObjAddr: 0xB4A0, symBinAddr: 0x191B0, symSize: 0x120 }
  - { offsetInCU: 0x2C8FB, offset: 0x650E9, size: 0x8, addend: 0x0, symName: '__ZN4core3ptr63drop_in_place$LT$alloc..vec..Vec$LT$syn..item..ImplItem$GT$$GT$17h8fe08eb75391f644E', symObjAddr: 0xB5C0, symBinAddr: 0x192D0, symSize: 0x80 }
  - { offsetInCU: 0x2CB79, offset: 0x65367, size: 0x8, addend: 0x0, symName: '__ZN4core3ptr64drop_in_place$LT$alloc..boxed..Box$LT$syn..data..Variant$GT$$GT$17h1190eb960b90935cE', symObjAddr: 0xB640, symBinAddr: 0x19350, symSize: 0x50 }
  - { offsetInCU: 0x2CCD4, offset: 0x654C2, size: 0x8, addend: 0x0, symName: '__ZN4core3ptr64drop_in_place$LT$alloc..boxed..Box$LT$syn..item..UseTree$GT$$GT$17he72999518c1f6d7cE', symObjAddr: 0xB690, symBinAddr: 0x193A0, symSize: 0x50 }
  - { offsetInCU: 0x2CE4E, offset: 0x6563C, size: 0x8, addend: 0x0, symName: '__ZN4core3ptr64drop_in_place$LT$alloc..boxed..Box$LT$syn..pat..FieldPat$GT$$GT$17h5d6f4e3f334c4f1cE', symObjAddr: 0xB6E0, symBinAddr: 0x193F0, symSize: 0x140 }
  - { offsetInCU: 0x2D4EF, offset: 0x65CDD, size: 0x8, addend: 0x0, symName: '__ZN4core3ptr64drop_in_place$LT$alloc..boxed..Box$LT$syn..ty..BareFnArg$GT$$GT$17hbaf5e7b0829d1c6eE', symObjAddr: 0xB820, symBinAddr: 0x19530, symSize: 0x140 }
  - { offsetInCU: 0x2DA47, offset: 0x66235, size: 0x8, addend: 0x0, symName: '__ZN4core3ptr64drop_in_place$LT$alloc..vec..Vec$LT$syn..attr..Attribute$GT$$GT$17h47bbc056d79f6c0dE', symObjAddr: 0xB960, symBinAddr: 0x19670, symSize: 0xD0 }
  - { offsetInCU: 0x2DD08, offset: 0x664F6, size: 0x8, addend: 0x0, symName: '__ZN4core3ptr64drop_in_place$LT$alloc..vec..Vec$LT$syn..item..TraitItem$GT$$GT$17hd791ac1352f1be7aE', symObjAddr: 0xBA30, symBinAddr: 0x19740, symSize: 0x80 }
  - { offsetInCU: 0x2DF86, offset: 0x66774, size: 0x8, addend: 0x0, symName: '__ZN4core3ptr65drop_in_place$LT$$LP$syn..item..FnArg$C$syn..token..Comma$RP$$GT$17hf4ce3ca68e6233d4E', symObjAddr: 0xBAB0, symBinAddr: 0x197C0, symSize: 0x20 }
  - { offsetInCU: 0x2E01F, offset: 0x6680D, size: 0x8, addend: 0x0, symName: '__ZN4core3ptr65drop_in_place$LT$alloc..vec..Vec$LT$proc_macro..TokenTree$GT$$GT$17h4114a70c14a8204fE.llvm.1989816065882140686', symObjAddr: 0xBAD0, symBinAddr: 0x197E0, symSize: 0x120 }
  - { offsetInCU: 0x2E391, offset: 0x66B7F, size: 0x8, addend: 0x0, symName: '__ZN4core3ptr65drop_in_place$LT$core..option..Option$LT$syn..expr..Label$GT$$GT$17h35210e246cc7075eE', symObjAddr: 0xBBF0, symBinAddr: 0x19900, symSize: 0x30 }
  - { offsetInCU: 0x2E4CC, offset: 0x66CBA, size: 0x8, addend: 0x0, symName: '__ZN4core3ptr65drop_in_place$LT$core..option..Option$LT$syn..stmt..Block$GT$$GT$17h2dc7bf51c87e3b0dE', symObjAddr: 0xBC20, symBinAddr: 0x19930, symSize: 0xE0 }
  - { offsetInCU: 0x2E731, offset: 0x66F1F, size: 0x8, addend: 0x0, symName: '__ZN4core3ptr66drop_in_place$LT$alloc..vec..Vec$LT$syn..item..ForeignItem$GT$$GT$17h53c19e2fd44daf8fE', symObjAddr: 0xBD00, symBinAddr: 0x19A10, symSize: 0x80 }
  - { offsetInCU: 0x2E9AF, offset: 0x6719D, size: 0x8, addend: 0x0, symName: '__ZN4core3ptr67drop_in_place$LT$$LP$syn..pat..FieldPat$C$syn..token..Comma$RP$$GT$17ha9b4265cca39fb99E.llvm.1989816065882140686', symObjAddr: 0xBD80, symBinAddr: 0x19A90, symSize: 0x130 }
  - { offsetInCU: 0x2EF19, offset: 0x67707, size: 0x8, addend: 0x0, symName: '__ZN4core3ptr67drop_in_place$LT$$LP$syn..ty..BareFnArg$C$syn..token..Comma$RP$$GT$17h32eb14d3d1804b73E.llvm.1989816065882140686', symObjAddr: 0xBEB0, symBinAddr: 0x19BC0, symSize: 0x110 }
  - { offsetInCU: 0x2F36A, offset: 0x67B58, size: 0x8, addend: 0x0, symName: '__ZN4core3ptr67drop_in_place$LT$alloc..boxed..Box$LT$syn..expr..FieldValue$GT$$GT$17h61a24e2077549ea3E', symObjAddr: 0xBFC0, symBinAddr: 0x19CD0, symSize: 0x140 }
  - { offsetInCU: 0x2F8A2, offset: 0x68090, size: 0x8, addend: 0x0, symName: '__ZN4core3ptr68drop_in_place$LT$alloc..boxed..Box$LT$syn..path..PathSegment$GT$$GT$17h6ca9c30b8be1cac8E', symObjAddr: 0xC100, symBinAddr: 0x19E10, symSize: 0xD0 }
  - { offsetInCU: 0x2FCA0, offset: 0x6848E, size: 0x8, addend: 0x0, symName: '__ZN4core3ptr69drop_in_place$LT$core..option..Option$LT$syn..stmt..LocalInit$GT$$GT$17h30e2dca15566f349E', symObjAddr: 0xC1D0, symBinAddr: 0x19EE0, symSize: 0xC0 }
  - { offsetInCU: 0x2FFC8, offset: 0x687B6, size: 0x8, addend: 0x0, symName: '__ZN4core3ptr70drop_in_place$LT$$LP$syn..expr..FieldValue$C$syn..token..Comma$RP$$GT$17hc9b48e1b4b04c6b6E.llvm.1989816065882140686', symObjAddr: 0xC290, symBinAddr: 0x19FA0, symSize: 0x110 }
  - { offsetInCU: 0x303DA, offset: 0x68BC8, size: 0x8, addend: 0x0, symName: '__ZN4core3ptr70drop_in_place$LT$core..option..Option$LT$syn..ty..BareVariadic$GT$$GT$17h94f3f521ec008aa3E', symObjAddr: 0xC3A0, symBinAddr: 0x1A0B0, symSize: 0x100 }
  - { offsetInCU: 0x3080A, offset: 0x68FF8, size: 0x8, addend: 0x0, symName: '__ZN4core3ptr72drop_in_place$LT$alloc..boxed..Box$LT$syn..path..GenericArgument$GT$$GT$17h868ea88692b0c422E.llvm.1989816065882140686', symObjAddr: 0xC4A0, symBinAddr: 0x1A1B0, symSize: 0x180 }
  - { offsetInCU: 0x30CDF, offset: 0x694CD, size: 0x8, addend: 0x0, symName: '__ZN4core3ptr73drop_in_place$LT$$LP$syn..path..PathSegment$C$syn..token..PathSep$RP$$GT$17ha6ed62d00a1b1315E.llvm.1989816065882140686', symObjAddr: 0xC620, symBinAddr: 0x1A330, symSize: 0xC0 }
  - { offsetInCU: 0x30FA5, offset: 0x69793, size: 0x8, addend: 0x0, symName: '__ZN4core3ptr73drop_in_place$LT$alloc..boxed..Box$LT$syn..generics..GenericParam$GT$$GT$17hc215c6e1b028b324E', symObjAddr: 0xC6E0, symBinAddr: 0x1A3F0, symSize: 0x80 }
  - { offsetInCU: 0x3111D, offset: 0x6990B, size: 0x8, addend: 0x0, symName: '__ZN4core3ptr75drop_in_place$LT$$LP$syn..path..GenericArgument$C$syn..token..Comma$RP$$GT$17h3ec62dec117d9d15E.llvm.1989816065882140686', symObjAddr: 0xC760, symBinAddr: 0x1A470, symSize: 0x180 }
  - { offsetInCU: 0x314A5, offset: 0x69C93, size: 0x8, addend: 0x0, symName: '__ZN4core3ptr75drop_in_place$LT$alloc..boxed..Box$LT$syn..generics..TypeParamBound$GT$$GT$17h62e5847596683f18E', symObjAddr: 0xC8E0, symBinAddr: 0x1A5F0, symSize: 0x160 }
  - { offsetInCU: 0x31A42, offset: 0x6A230, size: 0x8, addend: 0x0, symName: '__ZN4core3ptr75drop_in_place$LT$alloc..boxed..Box$LT$syn..generics..WherePredicate$GT$$GT$17h546439e1407ca6a6E', symObjAddr: 0xCA40, symBinAddr: 0x1A750, symSize: 0x80 }
  - { offsetInCU: 0x31CD8, offset: 0x6A4C6, size: 0x8, addend: 0x0, symName: '__ZN4core3ptr76drop_in_place$LT$$LP$syn..generics..GenericParam$C$syn..token..Comma$RP$$GT$17h4e1e7ac47aaa1c93E.llvm.1989816065882140686', symObjAddr: 0xCAC0, symBinAddr: 0x1A7D0, symSize: 0x40 }
  - { offsetInCU: 0x31D14, offset: 0x6A502, size: 0x8, addend: 0x0, symName: '__ZN4core3ptr77drop_in_place$LT$$LP$syn..generics..TypeParamBound$C$syn..token..Plus$RP$$GT$17h3e4f8ffb3e0ddf45E.llvm.1989816065882140686', symObjAddr: 0xCB00, symBinAddr: 0x1A810, symSize: 0x160 }
  - { offsetInCU: 0x3217F, offset: 0x6A96D, size: 0x8, addend: 0x0, symName: '__ZN4core3ptr78drop_in_place$LT$$LP$syn..generics..WherePredicate$C$syn..token..Comma$RP$$GT$17hf39ab0a942498e20E.llvm.1989816065882140686', symObjAddr: 0xCC60, symBinAddr: 0x1A970, symSize: 0x50 }
  - { offsetInCU: 0x322D9, offset: 0x6AAC7, size: 0x8, addend: 0x0, symName: '__ZN4core3ptr86drop_in_place$LT$$LP$syn..token..If$C$alloc..boxed..Box$LT$syn..expr..Expr$GT$$RP$$GT$17hc1d8142b4149186cE', symObjAddr: 0xCCB0, symBinAddr: 0x1A9C0, symSize: 0x50 }
  - { offsetInCU: 0x324EE, offset: 0x6ACDC, size: 0x8, addend: 0x0, symName: '__ZN4core3ptr86drop_in_place$LT$syn..punctuated..Punctuated$LT$syn..pat..Pat$C$syn..token..Or$GT$$GT$17hfc7ff3c167a59e94E', symObjAddr: 0xCD00, symBinAddr: 0x1AA10, symSize: 0x120 }
  - { offsetInCU: 0x3294B, offset: 0x6B139, size: 0x8, addend: 0x0, symName: '__ZN4core3ptr87drop_in_place$LT$$LP$alloc..boxed..Box$LT$syn..pat..Pat$GT$$C$syn..token..Colon$RP$$GT$17ha0dd32430a74fa0bE', symObjAddr: 0xCE20, symBinAddr: 0x1AB30, symSize: 0x50 }
  - { offsetInCU: 0x32AC5, offset: 0x6B2B3, size: 0x8, addend: 0x0, symName: '__ZN4core3ptr87drop_in_place$LT$core..option..Option$LT$alloc..boxed..Box$LT$syn..ty..Type$GT$$GT$$GT$17h9b8fd27e5577387cE', symObjAddr: 0xCE70, symBinAddr: 0x1AB80, symSize: 0x50 }
  - { offsetInCU: 0x32C37, offset: 0x6B425, size: 0x8, addend: 0x0, symName: '__ZN4core3ptr89drop_in_place$LT$core..option..Option$LT$alloc..boxed..Box$LT$syn..expr..Expr$GT$$GT$$GT$17h52dcbcaaf583ff0cE', symObjAddr: 0xCEC0, symBinAddr: 0x1ABD0, symSize: 0x50 }
  - { offsetInCU: 0x32DA9, offset: 0x6B597, size: 0x8, addend: 0x0, symName: '__ZN4core3ptr89drop_in_place$LT$syn..punctuated..Punctuated$LT$syn..ty..Type$C$syn..token..Comma$GT$$GT$17h28e047858df5d615E.llvm.1989816065882140686', symObjAddr: 0xCF10, symBinAddr: 0x1AC20, symSize: 0x120 }
  - { offsetInCU: 0x331F3, offset: 0x6B9E1, size: 0x8, addend: 0x0, symName: '__ZN4core3ptr90drop_in_place$LT$core..option..Option$LT$alloc..boxed..Box$LT$syn..data..Field$GT$$GT$$GT$17h997d4a4cf842ea9dE', symObjAddr: 0xD030, symBinAddr: 0x1AD40, symSize: 0x50 }
  - { offsetInCU: 0x33365, offset: 0x6BB53, size: 0x8, addend: 0x0, symName: '__ZN4core3ptr90drop_in_place$LT$core..option..Option$LT$alloc..boxed..Box$LT$syn..item..FnArg$GT$$GT$$GT$17h3810352c85ff8f18E', symObjAddr: 0xD080, symBinAddr: 0x1AD90, symSize: 0x50 }
  - { offsetInCU: 0x33553, offset: 0x6BD41, size: 0x8, addend: 0x0, symName: '__ZN4core3ptr91drop_in_place$LT$syn..punctuated..Punctuated$LT$syn..expr..Expr$C$syn..token..Comma$GT$$GT$17he59a897140a45010E', symObjAddr: 0xD0D0, symBinAddr: 0x1ADE0, symSize: 0x120 }
  - { offsetInCU: 0x339B0, offset: 0x6C19E, size: 0x8, addend: 0x0, symName: '__ZN4core3ptr92drop_in_place$LT$core..option..Option$LT$$LP$syn..token..As$C$proc_macro2..Ident$RP$$GT$$GT$17h1d3ff13c334c8f8bE', symObjAddr: 0xD1F0, symBinAddr: 0x1AF00, symSize: 0x30 }
  - { offsetInCU: 0x33ACC, offset: 0x6C2BA, size: 0x8, addend: 0x0, symName: '__ZN4core3ptr92drop_in_place$LT$syn..punctuated..Punctuated$LT$syn..data..Field$C$syn..token..Comma$GT$$GT$17hc21e5dfaf8c23f93E', symObjAddr: 0xD220, symBinAddr: 0x1AF30, symSize: 0x120 }
  - { offsetInCU: 0x33F16, offset: 0x6C704, size: 0x8, addend: 0x0, symName: '__ZN4core3ptr92drop_in_place$LT$syn..punctuated..Punctuated$LT$syn..item..FnArg$C$syn..token..Comma$GT$$GT$17h42d5da01db3015a1E', symObjAddr: 0xD340, symBinAddr: 0x1B050, symSize: 0x150 }
  - { offsetInCU: 0x3442B, offset: 0x6CC19, size: 0x8, addend: 0x0, symName: '__ZN4core3ptr94drop_in_place$LT$syn..punctuated..Punctuated$LT$syn..data..Variant$C$syn..token..Comma$GT$$GT$17h53602c71f612fff3E', symObjAddr: 0xD490, symBinAddr: 0x1B1A0, symSize: 0x120 }
  - { offsetInCU: 0x34904, offset: 0x6D0F2, size: 0x8, addend: 0x0, symName: '__ZN4core3ptr94drop_in_place$LT$syn..punctuated..Punctuated$LT$syn..pat..FieldPat$C$syn..token..Comma$GT$$GT$17hf15d1d73808e7756E', symObjAddr: 0xD5B0, symBinAddr: 0x1B2C0, symSize: 0xF0 }
  - { offsetInCU: 0x34C5D, offset: 0x6D44B, size: 0x8, addend: 0x0, symName: '__ZN4core3ptr94drop_in_place$LT$syn..punctuated..Punctuated$LT$syn..ty..BareFnArg$C$syn..token..Comma$GT$$GT$17hb18255224b06a811E', symObjAddr: 0xD6A0, symBinAddr: 0x1B3B0, symSize: 0xF0 }
  - { offsetInCU: 0x34F3A, offset: 0x6D728, size: 0x8, addend: 0x0, symName: '__ZN4core3ptr95drop_in_place$LT$core..option..Option$LT$$LP$proc_macro2..Ident$C$syn..token..Colon$RP$$GT$$GT$17hc832fec5e0c0e438E.llvm.1989816065882140686', symObjAddr: 0xD790, symBinAddr: 0x1B4A0, symSize: 0x30 }
  - { offsetInCU: 0x35056, offset: 0x6D844, size: 0x8, addend: 0x0, symName: '__ZN4core3ptr96drop_in_place$LT$core..option..Option$LT$alloc..boxed..Box$LT$syn..path..PathSegment$GT$$GT$$GT$17h3989ab6e08ac68c4E.llvm.1989816065882140686', symObjAddr: 0xD7C0, symBinAddr: 0x1B4D0, symSize: 0x90 }
  - { offsetInCU: 0x35373, offset: 0x6DB61, size: 0x8, addend: 0x0, symName: '__ZN4core3ptr97drop_in_place$LT$syn..punctuated..Punctuated$LT$syn..expr..FieldValue$C$syn..token..Comma$GT$$GT$17hb048018f44a756c3E', symObjAddr: 0xD8A0, symBinAddr: 0x1B560, symSize: 0xF0 }
  - { offsetInCU: 0x356EB, offset: 0x6DED9, size: 0x8, addend: 0x0, symName: '__ZN4core3ptr98drop_in_place$LT$syn..punctuated..Punctuated$LT$syn..lifetime..Lifetime$C$syn..token..Plus$GT$$GT$17hfad1276e02bd5dc6E.llvm.1989816065882140686', symObjAddr: 0xD990, symBinAddr: 0x1B650, symSize: 0xC0 }
  - { offsetInCU: 0x3D6DB, offset: 0x75EC9, size: 0x8, addend: 0x0, symName: '__ZN70_$LT$alloc..vec..Vec$LT$T$C$A$GT$$u20$as$u20$core..ops..drop..Drop$GT$4drop17h3d3d7c6ddba7789cE', symObjAddr: 0xE340, symBinAddr: 0x1BD50, symSize: 0xB0 }
  - { offsetInCU: 0x3D73D, offset: 0x75F2B, size: 0x8, addend: 0x0, symName: '__ZN70_$LT$alloc..vec..Vec$LT$T$C$A$GT$$u20$as$u20$core..ops..drop..Drop$GT$4drop17hb2ebc07e08d18dceE', symObjAddr: 0xE6F0, symBinAddr: 0x1BE00, symSize: 0xB0 }
  - { offsetInCU: 0x3D8B9, offset: 0x760A7, size: 0x8, addend: 0x0, symName: '__ZN70_$LT$alloc..vec..Vec$LT$T$C$A$GT$$u20$as$u20$core..ops..drop..Drop$GT$4drop17he9eba5996df0dff8E', symObjAddr: 0xEA60, symBinAddr: 0x1BEB0, symSize: 0x50 }
  - { offsetInCU: 0x3D9FA, offset: 0x761E8, size: 0x8, addend: 0x0, symName: '__ZN70_$LT$alloc..vec..Vec$LT$T$C$A$GT$$u20$as$u20$core..ops..drop..Drop$GT$4drop17hf98ea4f2375584a3E', symObjAddr: 0xEAC0, symBinAddr: 0x1BF00, symSize: 0x83 }
  - { offsetInCU: 0x3DBD0, offset: 0x763BE, size: 0x8, addend: 0x0, symName: '__ZN67_$LT$alloc..vec..Vec$LT$T$C$A$GT$$u20$as$u20$core..clone..Clone$GT$5clone17h010625479dbb83c9E', symObjAddr: 0xDAB0, symBinAddr: 0x1B710, symSize: 0x2B0 }
  - { offsetInCU: 0x3E292, offset: 0x76A80, size: 0x8, addend: 0x0, symName: '__ZN67_$LT$alloc..vec..Vec$LT$T$C$A$GT$$u20$as$u20$core..clone..Clone$GT$5clone17h6e186340e7f239b0E', symObjAddr: 0xDD60, symBinAddr: 0x1B9C0, symSize: 0x390 }
  - { offsetInCU: 0x1E, offset: 0x7DA73, size: 0x8, addend: 0x0, symName: '__ZN40_$LT$F$u20$as$u20$syn..parse..Parser$GT$14__parse_scoped17h05a92c2940272923E', symObjAddr: 0x0, symBinAddr: 0x1BF90, symSize: 0xB30 }
  - { offsetInCU: 0x191F, offset: 0x7F374, size: 0x8, addend: 0x0, symName: '__ZN4core3ptr100drop_in_place$LT$core..option..Option$LT$alloc..boxed..Box$LT$syn..path..GenericArgument$GT$$GT$$GT$17h3976b6a3946c56d5E', symObjAddr: 0x2EC0, symBinAddr: 0x1EE50, symSize: 0x50 }
  - { offsetInCU: 0x1AEE, offset: 0x7F543, size: 0x8, addend: 0x0, symName: '__ZN4core3ptr102drop_in_place$LT$syn..punctuated..Punctuated$LT$syn..path..GenericArgument$C$syn..token..Comma$GT$$GT$17hed2f1cc8e4eed741E', symObjAddr: 0x2F10, symBinAddr: 0x1EEA0, symSize: 0xF0 }
  - { offsetInCU: 0x1DD7, offset: 0x7F82C, size: 0x8, addend: 0x0, symName: '__ZN4core3ptr103drop_in_place$LT$core..option..Option$LT$alloc..boxed..Box$LT$syn..generics..TypeParamBound$GT$$GT$$GT$17h71e68896d59885dcE', symObjAddr: 0x3000, symBinAddr: 0x1EF90, symSize: 0x50 }
  - { offsetInCU: 0x1FE4, offset: 0x7FA39, size: 0x8, addend: 0x0, symName: '__ZN4core3ptr103drop_in_place$LT$syn..punctuated..Punctuated$LT$syn..generics..GenericParam$C$syn..token..Comma$GT$$GT$17h15e43300a903bb89E', symObjAddr: 0x3050, symBinAddr: 0x1EFE0, symSize: 0xF0 }
  - { offsetInCU: 0x2504, offset: 0x7FF59, size: 0x8, addend: 0x0, symName: '__ZN4core3ptr104drop_in_place$LT$syn..punctuated..Punctuated$LT$syn..generics..TypeParamBound$C$syn..token..Plus$GT$$GT$17had3acc816e743daaE', symObjAddr: 0x3140, symBinAddr: 0x1F0D0, symSize: 0x230 }
  - { offsetInCU: 0x2DE2, offset: 0x80837, size: 0x8, addend: 0x0, symName: '__ZN4core3ptr34drop_in_place$LT$syn..lit..Lit$GT$17h6b60c77d72d8ba47E', symObjAddr: 0x3370, symBinAddr: 0x1F300, symSize: 0x110 }
  - { offsetInCU: 0x333B, offset: 0x80D90, size: 0x8, addend: 0x0, symName: '__ZN4core3ptr34drop_in_place$LT$syn..pat..Pat$GT$17hfe0bc942cbb9fc1dE', symObjAddr: 0x3480, symBinAddr: 0x1F410, symSize: 0xEE0 }
  - { offsetInCU: 0x698A, offset: 0x843DF, size: 0x8, addend: 0x0, symName: '__ZN4core3ptr34drop_in_place$LT$syn..ty..Type$GT$17h0af7ff7d9a871ef4E', symObjAddr: 0x4360, symBinAddr: 0x202F0, symSize: 0x5C0 }
  - { offsetInCU: 0x81C0, offset: 0x85C15, size: 0x8, addend: 0x0, symName: '__ZN4core3ptr36drop_in_place$LT$syn..expr..Expr$GT$17hee572fdad3e3c377E', symObjAddr: 0x4920, symBinAddr: 0x208B0, symSize: 0x2800 }
  - { offsetInCU: 0x1139D, offset: 0x8EDF2, size: 0x8, addend: 0x0, symName: '__ZN4core3ptr36drop_in_place$LT$syn..mac..Macro$GT$17hef9caad1bbdb2928E', symObjAddr: 0x7120, symBinAddr: 0x230B0, symSize: 0xE0 }
  - { offsetInCU: 0x1170E, offset: 0x8F163, size: 0x8, addend: 0x0, symName: '__ZN4core3ptr36drop_in_place$LT$syn..path..Path$GT$17hc739472668523ee0E', symObjAddr: 0x7200, symBinAddr: 0x23190, symSize: 0x220 }
  - { offsetInCU: 0x12043, offset: 0x8FA98, size: 0x8, addend: 0x0, symName: '__ZN4core3ptr37drop_in_place$LT$syn..stmt..Block$GT$17h8f33d86832a9ade3E', symObjAddr: 0x7420, symBinAddr: 0x233B0, symSize: 0xD0 }
  - { offsetInCU: 0x122E7, offset: 0x8FD3C, size: 0x8, addend: 0x0, symName: '__ZN4core3ptr38drop_in_place$LT$syn..expr..Member$GT$17h9a05f98941ca44e3E', symObjAddr: 0x74F0, symBinAddr: 0x23480, symSize: 0x30 }
  - { offsetInCU: 0x123E4, offset: 0x8FE39, size: 0x8, addend: 0x0, symName: '__ZN4core3ptr39drop_in_place$LT$proc_macro2..Ident$GT$17h51a9079149430ca5E', symObjAddr: 0x7520, symBinAddr: 0x234B0, symSize: 0x30 }
  - { offsetInCU: 0x125F8, offset: 0x9004D, size: 0x8, addend: 0x0, symName: '__ZN4core3ptr39drop_in_place$LT$syn..buffer..Entry$GT$17h0a2fd36a49928bf6E', symObjAddr: 0x7550, symBinAddr: 0x234E0, symSize: 0xC0 }
  - { offsetInCU: 0x1290C, offset: 0x90361, size: 0x8, addend: 0x0, symName: '__ZN4core3ptr40drop_in_place$LT$syn..ty..ReturnType$GT$17hb55f0b29bbcffe7aE', symObjAddr: 0x7610, symBinAddr: 0x235A0, symSize: 0x50 }
  - { offsetInCU: 0x12A7E, offset: 0x904D3, size: 0x8, addend: 0x0, symName: '__ZN4core3ptr41drop_in_place$LT$syn..expr..ExprConst$GT$17h8664d4ac74b7f167E', symObjAddr: 0x7660, symBinAddr: 0x235F0, symSize: 0x180 }
  - { offsetInCU: 0x12FD3, offset: 0x90A28, size: 0x8, addend: 0x0, symName: '__ZN4core3ptr44drop_in_place$LT$syn..lifetime..Lifetime$GT$17h64c6c9b4c34bdd12E', symObjAddr: 0x77E0, symBinAddr: 0x23770, symSize: 0x30 }
  - { offsetInCU: 0x130D0, offset: 0x90B25, size: 0x8, addend: 0x0, symName: '__ZN4core3ptr44drop_in_place$LT$syn..parse..ParseBuffer$GT$17hffe8b9b07241349bE', symObjAddr: 0x7810, symBinAddr: 0x237A0, symSize: 0x70 }
  - { offsetInCU: 0x1346A, offset: 0x90EBF, size: 0x8, addend: 0x0, symName: '__ZN4core3ptr45drop_in_place$LT$proc_macro2..TokenStream$GT$17ha9e262056121263eE', symObjAddr: 0x7880, symBinAddr: 0x23810, symSize: 0x140 }
  - { offsetInCU: 0x1389B, offset: 0x912F0, size: 0x8, addend: 0x0, symName: '__ZN4core3ptr45drop_in_place$LT$syn..buffer..TokenBuffer$GT$17hdada8a2629dc4c38E', symObjAddr: 0x79C0, symBinAddr: 0x23950, symSize: 0xD0 }
  - { offsetInCU: 0x13B01, offset: 0x91556, size: 0x8, addend: 0x0, symName: '__ZN4core3ptr45drop_in_place$LT$syn..generics..TypeParam$GT$17h23b2178ca3621470E', symObjAddr: 0x7A90, symBinAddr: 0x23A20, symSize: 0x230 }
  - { offsetInCU: 0x142DE, offset: 0x91D33, size: 0x8, addend: 0x0, symName: '__ZN4core3ptr46drop_in_place$LT$syn..generics..ConstParam$GT$17h8a262f238ef941e4E', symObjAddr: 0x7CC0, symBinAddr: 0x23C50, symSize: 0x150 }
  - { offsetInCU: 0x14708, offset: 0x9215D, size: 0x8, addend: 0x0, symName: '__ZN4core3ptr47drop_in_place$LT$syn..path..GenericArgument$GT$17h160c38ee261939cdE', symObjAddr: 0x7E10, symBinAddr: 0x23DA0, symSize: 0x460 }
  - { offsetInCU: 0x15411, offset: 0x92E66, size: 0x8, addend: 0x0, symName: '__ZN4core3ptr49drop_in_place$LT$syn..generics..LifetimeParam$GT$17h313054da53e69355E', symObjAddr: 0x8270, symBinAddr: 0x24200, symSize: 0xF0 }
  - { offsetInCU: 0x157CB, offset: 0x93220, size: 0x8, addend: 0x0, symName: '__ZN4core3ptr50drop_in_place$LT$syn..generics..TypeParamBound$GT$17h9c7c622140c9da06E', symObjAddr: 0x8360, symBinAddr: 0x242F0, symSize: 0xA0 }
  - { offsetInCU: 0x15932, offset: 0x93387, size: 0x8, addend: 0x0, symName: '__ZN4core3ptr58drop_in_place$LT$alloc..vec..Vec$LT$syn..expr..Arm$GT$$GT$17h6b1948b8db2bce6fE', symObjAddr: 0x8400, symBinAddr: 0x24390, symSize: 0xD0 }
  - { offsetInCU: 0x15BBF, offset: 0x93614, size: 0x8, addend: 0x0, symName: '__ZN4core3ptr59drop_in_place$LT$alloc..boxed..Box$LT$syn..pat..Pat$GT$$GT$17h83e3a97283934866E', symObjAddr: 0x84D0, symBinAddr: 0x24460, symSize: 0x50 }
  - { offsetInCU: 0x15D1A, offset: 0x9376F, size: 0x8, addend: 0x0, symName: '__ZN4core3ptr59drop_in_place$LT$alloc..boxed..Box$LT$syn..ty..Type$GT$$GT$17h68f3d7ce8ae82e1fE', symObjAddr: 0x8520, symBinAddr: 0x244B0, symSize: 0x50 }
  - { offsetInCU: 0x15E75, offset: 0x938CA, size: 0x8, addend: 0x0, symName: '__ZN4core3ptr61drop_in_place$LT$alloc..boxed..Box$LT$syn..expr..Expr$GT$$GT$17hf2473b11b850ff26E', symObjAddr: 0x8570, symBinAddr: 0x24500, symSize: 0x50 }
  - { offsetInCU: 0x15FD0, offset: 0x93A25, size: 0x8, addend: 0x0, symName: '__ZN4core3ptr61drop_in_place$LT$syn..path..ParenthesizedGenericArguments$GT$17h7974c08710945203E', symObjAddr: 0x85C0, symBinAddr: 0x24550, symSize: 0x170 }
  - { offsetInCU: 0x165AA, offset: 0x93FFF, size: 0x8, addend: 0x0, symName: '__ZN4core3ptr63drop_in_place$LT$alloc..boxed..Box$LT$syn..lit..LitRepr$GT$$GT$17he43f62a182548d62E', symObjAddr: 0x8730, symBinAddr: 0x246C0, symSize: 0x60 }
  - { offsetInCU: 0x1689F, offset: 0x942F4, size: 0x8, addend: 0x0, symName: '__ZN4core3ptr64drop_in_place$LT$alloc..boxed..Box$LT$syn..pat..FieldPat$GT$$GT$17h5d6f4e3f334c4f1cE', symObjAddr: 0x8790, symBinAddr: 0x24720, symSize: 0x140 }
  - { offsetInCU: 0x16F4A, offset: 0x9499F, size: 0x8, addend: 0x0, symName: '__ZN4core3ptr64drop_in_place$LT$alloc..boxed..Box$LT$syn..ty..BareFnArg$GT$$GT$17hbaf5e7b0829d1c6eE', symObjAddr: 0x88D0, symBinAddr: 0x24860, symSize: 0x140 }
  - { offsetInCU: 0x1746E, offset: 0x94EC3, size: 0x8, addend: 0x0, symName: '__ZN4core3ptr65drop_in_place$LT$core..option..Option$LT$syn..expr..Label$GT$$GT$17h35210e246cc7075eE', symObjAddr: 0x8A10, symBinAddr: 0x249A0, symSize: 0x30 }
  - { offsetInCU: 0x175A9, offset: 0x94FFE, size: 0x8, addend: 0x0, symName: '__ZN4core3ptr66drop_in_place$LT$core..option..Option$LT$syn..pat..PatRest$GT$$GT$17h109d2742695cbaddE', symObjAddr: 0x8A40, symBinAddr: 0x249D0, symSize: 0xE0 }
  - { offsetInCU: 0x1782D, offset: 0x95282, size: 0x8, addend: 0x0, symName: '__ZN4core3ptr67drop_in_place$LT$alloc..boxed..Box$LT$syn..expr..FieldValue$GT$$GT$17h61a24e2077549ea3E', symObjAddr: 0x8B20, symBinAddr: 0x24AB0, symSize: 0x140 }
  - { offsetInCU: 0x17D50, offset: 0x957A5, size: 0x8, addend: 0x0, symName: '__ZN4core3ptr70drop_in_place$LT$core..option..Option$LT$syn..ty..BareVariadic$GT$$GT$17h94f3f521ec008aa3E', symObjAddr: 0x8C60, symBinAddr: 0x24BF0, symSize: 0x120 }
  - { offsetInCU: 0x1827D, offset: 0x95CD2, size: 0x8, addend: 0x0, symName: '__ZN4core3ptr72drop_in_place$LT$alloc..boxed..Box$LT$syn..path..GenericArgument$GT$$GT$17h868ea88692b0c422E', symObjAddr: 0x8D80, symBinAddr: 0x24D10, symSize: 0x2B0 }
  - { offsetInCU: 0x18C68, offset: 0x966BD, size: 0x8, addend: 0x0, symName: '__ZN4core3ptr72drop_in_place$LT$core..option..Option$LT$syn..lifetime..Lifetime$GT$$GT$17h7e95c58181ab0653E', symObjAddr: 0x9030, symBinAddr: 0x24FC0, symSize: 0x30 }
  - { offsetInCU: 0x18D84, offset: 0x967D9, size: 0x8, addend: 0x0, symName: '__ZN4core3ptr73drop_in_place$LT$alloc..boxed..Box$LT$syn..generics..GenericParam$GT$$GT$17hc215c6e1b028b324E', symObjAddr: 0x9060, symBinAddr: 0x24FF0, symSize: 0x80 }
  - { offsetInCU: 0x18EFC, offset: 0x96951, size: 0x8, addend: 0x0, symName: '__ZN4core3ptr75drop_in_place$LT$alloc..boxed..Box$LT$syn..generics..TypeParamBound$GT$$GT$17h62e5847596683f18E', symObjAddr: 0x90E0, symBinAddr: 0x25070, symSize: 0x160 }
  - { offsetInCU: 0x194C2, offset: 0x96F17, size: 0x8, addend: 0x0, symName: '__ZN4core3ptr86drop_in_place$LT$syn..punctuated..Punctuated$LT$syn..pat..Pat$C$syn..token..Or$GT$$GT$17hfc7ff3c167a59e94E', symObjAddr: 0x9240, symBinAddr: 0x251D0, symSize: 0x120 }
  - { offsetInCU: 0x19908, offset: 0x9735D, size: 0x8, addend: 0x0, symName: '__ZN4core3ptr87drop_in_place$LT$core..option..Option$LT$alloc..boxed..Box$LT$syn..pat..Pat$GT$$GT$$GT$17h3766593dbbf17f07E', symObjAddr: 0x9360, symBinAddr: 0x252F0, symSize: 0x50 }
  - { offsetInCU: 0x19A7A, offset: 0x974CF, size: 0x8, addend: 0x0, symName: '__ZN4core3ptr87drop_in_place$LT$core..option..Option$LT$alloc..boxed..Box$LT$syn..ty..Type$GT$$GT$$GT$17h9b8fd27e5577387cE', symObjAddr: 0x93B0, symBinAddr: 0x25340, symSize: 0x50 }
  - { offsetInCU: 0x19BEC, offset: 0x97641, size: 0x8, addend: 0x0, symName: '__ZN4core3ptr89drop_in_place$LT$core..option..Option$LT$alloc..boxed..Box$LT$syn..expr..Expr$GT$$GT$$GT$17h52dcbcaaf583ff0cE', symObjAddr: 0x9400, symBinAddr: 0x25390, symSize: 0x50 }
  - { offsetInCU: 0x19D9C, offset: 0x977F1, size: 0x8, addend: 0x0, symName: '__ZN4core3ptr89drop_in_place$LT$syn..punctuated..Punctuated$LT$syn..pat..Pat$C$syn..token..Comma$GT$$GT$17ha11cb7ffbf8adb93E', symObjAddr: 0x9450, symBinAddr: 0x253E0, symSize: 0x120 }
  - { offsetInCU: 0x1A237, offset: 0x97C8C, size: 0x8, addend: 0x0, symName: '__ZN4core3ptr91drop_in_place$LT$syn..punctuated..Punctuated$LT$syn..expr..Expr$C$syn..token..Comma$GT$$GT$17he59a897140a45010E', symObjAddr: 0x9570, symBinAddr: 0x25500, symSize: 0x120 }
  - { offsetInCU: 0x1A694, offset: 0x980E9, size: 0x8, addend: 0x0, symName: '__ZN4core3ptr94drop_in_place$LT$syn..punctuated..Punctuated$LT$syn..pat..FieldPat$C$syn..token..Comma$GT$$GT$17hf15d1d73808e7756E', symObjAddr: 0x9690, symBinAddr: 0x25620, symSize: 0xF0 }
  - { offsetInCU: 0x1A95E, offset: 0x983B3, size: 0x8, addend: 0x0, symName: '__ZN4core3ptr94drop_in_place$LT$syn..punctuated..Punctuated$LT$syn..ty..BareFnArg$C$syn..token..Comma$GT$$GT$17hb18255224b06a811E', symObjAddr: 0x9780, symBinAddr: 0x25710, symSize: 0xF0 }
  - { offsetInCU: 0x1AC28, offset: 0x9867D, size: 0x8, addend: 0x0, symName: '__ZN4core3ptr96drop_in_place$LT$core..option..Option$LT$alloc..boxed..Box$LT$syn..path..PathSegment$GT$$GT$$GT$17h3989ab6e08ac68c4E', symObjAddr: 0x9870, symBinAddr: 0x25800, symSize: 0x180 }
  - { offsetInCU: 0x1B2B9, offset: 0x98D0E, size: 0x8, addend: 0x0, symName: '__ZN4core3ptr97drop_in_place$LT$syn..punctuated..Punctuated$LT$syn..expr..FieldValue$C$syn..token..Comma$GT$$GT$17hb048018f44a756c3E', symObjAddr: 0x99F0, symBinAddr: 0x25980, symSize: 0xF0 }
  - { offsetInCU: 0x1B5FF, offset: 0x99054, size: 0x8, addend: 0x0, symName: '__ZN4core3ptr98drop_in_place$LT$syn..punctuated..Punctuated$LT$syn..lifetime..Lifetime$C$syn..token..Plus$GT$$GT$17hfad1276e02bd5dc6E', symObjAddr: 0x9AE0, symBinAddr: 0x25A70, symSize: 0xB1 }
  - { offsetInCU: 0x1EB19, offset: 0x9C56E, size: 0x8, addend: 0x0, symName: '__ZN40_$LT$F$u20$as$u20$syn..parse..Parser$GT$14__parse_scoped17h05a92c2940272923E', symObjAddr: 0x0, symBinAddr: 0x1BF90, symSize: 0xB30 }
  - { offsetInCU: 0x20E2E, offset: 0x9E883, size: 0x8, addend: 0x0, symName: '__ZN40_$LT$F$u20$as$u20$syn..parse..Parser$GT$14__parse_scoped17h2ad09df347e02f00E', symObjAddr: 0xB30, symBinAddr: 0x1CAC0, symSize: 0x930 }
  - { offsetInCU: 0x22469, offset: 0x9FEBE, size: 0x8, addend: 0x0, symName: '__ZN40_$LT$F$u20$as$u20$syn..parse..Parser$GT$14__parse_scoped17hd888474fae713311E', symObjAddr: 0x1460, symBinAddr: 0x1D3F0, symSize: 0x10E0 }
  - { offsetInCU: 0x24012, offset: 0xA1A67, size: 0x8, addend: 0x0, symName: '__ZN40_$LT$F$u20$as$u20$syn..parse..Parser$GT$6parse217hb5d349ea34b4c342E', symObjAddr: 0x2540, symBinAddr: 0x1E4D0, symSize: 0x980 }
  - { offsetInCU: 0x1E, offset: 0xAE008, size: 0x8, addend: 0x0, symName: __ZN5alloc7raw_vec11finish_grow17h9a9cce360a55e823E.llvm.12595977320083281106, symObjAddr: 0x0, symBinAddr: 0x25B30, symSize: 0xA0 }
  - { offsetInCU: 0x123F, offset: 0xAF229, size: 0x8, addend: 0x0, symName: __ZN5alloc7raw_vec11finish_grow17h9a9cce360a55e823E.llvm.12595977320083281106, symObjAddr: 0x0, symBinAddr: 0x25B30, symSize: 0xA0 }
  - { offsetInCU: 0x1738, offset: 0xAF722, size: 0x8, addend: 0x0, symName: '__ZN5alloc7raw_vec19RawVec$LT$T$C$A$GT$7reserve21do_reserve_and_handle17he1d1ac440db7d313E', symObjAddr: 0x3A0, symBinAddr: 0x1FE160, symSize: 0xB0 }
  - { offsetInCU: 0x1A77, offset: 0xAFA61, size: 0x8, addend: 0x0, symName: '__ZN77_$LT$alloc..raw_vec..RawVec$LT$T$C$A$GT$$u20$as$u20$core..ops..drop..Drop$GT$4drop17h3600c35403e9925eE', symObjAddr: 0x4E0, symBinAddr: 0x25D50, symSize: 0x0 }
  - { offsetInCU: 0x1B74, offset: 0xAFB5E, size: 0x8, addend: 0x0, symName: '__ZN77_$LT$alloc..raw_vec..RawVec$LT$T$C$A$GT$$u20$as$u20$core..ops..drop..Drop$GT$4drop17h7860abeec321172eE', symObjAddr: 0x630, symBinAddr: 0x25D80, symSize: 0x0 }
  - { offsetInCU: 0x1C71, offset: 0xAFC5B, size: 0x8, addend: 0x0, symName: '__ZN77_$LT$alloc..raw_vec..RawVec$LT$T$C$A$GT$$u20$as$u20$core..ops..drop..Drop$GT$4drop17ha61f91b2fe12f532E', symObjAddr: 0x6F0, symBinAddr: 0x25DB0, symSize: 0x0 }
  - { offsetInCU: 0x2E8C, offset: 0xB0E76, size: 0x8, addend: 0x0, symName: '__ZN5alloc7raw_vec19RawVec$LT$T$C$A$GT$16reserve_for_push17h44bf482b219b5344E', symObjAddr: 0x220, symBinAddr: 0x25BD0, symSize: 0xD0 }
  - { offsetInCU: 0x3350, offset: 0xB133A, size: 0x8, addend: 0x0, symName: '__ZN5alloc7raw_vec19RawVec$LT$T$C$A$GT$16reserve_for_push17hb5e0c2ab5780e3efE', symObjAddr: 0x2F0, symBinAddr: 0x25CA0, symSize: 0xB0 }
  - { offsetInCU: 0x1E, offset: 0xB1833, size: 0x8, addend: 0x0, symName: __ZN3std9panicking3try17h345540b013a7d9fdE, symObjAddr: 0x0, symBinAddr: 0x25DE0, symSize: 0x390 }
  - { offsetInCU: 0x571, offset: 0xB1D86, size: 0x8, addend: 0x0, symName: __ZN3std9panicking3try17h345540b013a7d9fdE, symObjAddr: 0x0, symBinAddr: 0x25DE0, symSize: 0x390 }
  - { offsetInCU: 0xC21, offset: 0xB2436, size: 0x8, addend: 0x0, symName: __ZN3std9panicking3try17hdc757fdbc57127e5E, symObjAddr: 0x390, symBinAddr: 0x26170, symSize: 0x170 }
  - { offsetInCU: 0x10E6, offset: 0xB28FB, size: 0x8, addend: 0x0, symName: __ZN3std9panicking3try17he82ec85708dbc8bdE, symObjAddr: 0x5A0, symBinAddr: 0x262E0, symSize: 0x390 }
  - { offsetInCU: 0x1796, offset: 0xB2FAB, size: 0x8, addend: 0x0, symName: __ZN3std9panicking3try17hfea24d0503df998eE, symObjAddr: 0x930, symBinAddr: 0x26670, symSize: 0x170 }
  - { offsetInCU: 0x33B6, offset: 0xB4BCB, size: 0x8, addend: 0x0, symName: '__ZN4core3ptr52drop_in_place$LT$std..thread..local..AccessError$GT$17h3159bb4a23024441E', symObjAddr: 0xAA0, symBinAddr: 0x267E0, symSize: 0x6 }
  - { offsetInCU: 0x1E, offset: 0xBD82F, size: 0x8, addend: 0x0, symName: __ZN3syn5parse6Parser5parse17h5dd09048d291ceb8E, symObjAddr: 0x0, symBinAddr: 0x267F0, symSize: 0x530 }
  - { offsetInCU: 0x197D, offset: 0xBF18E, size: 0x8, addend: 0x0, symName: '__ZN4core3ptr100drop_in_place$LT$core..option..Option$LT$alloc..boxed..Box$LT$syn..path..GenericArgument$GT$$GT$$GT$17h3976b6a3946c56d5E', symObjAddr: 0xA60, symBinAddr: 0x27250, symSize: 0x50 }
  - { offsetInCU: 0x1B4C, offset: 0xBF35D, size: 0x8, addend: 0x0, symName: '__ZN4core3ptr102drop_in_place$LT$syn..punctuated..Punctuated$LT$syn..path..GenericArgument$C$syn..token..Comma$GT$$GT$17hed2f1cc8e4eed741E', symObjAddr: 0xAB0, symBinAddr: 0x272A0, symSize: 0xF0 }
  - { offsetInCU: 0x1E35, offset: 0xBF646, size: 0x8, addend: 0x0, symName: '__ZN4core3ptr103drop_in_place$LT$core..option..Option$LT$alloc..boxed..Box$LT$syn..generics..TypeParamBound$GT$$GT$$GT$17h71e68896d59885dcE', symObjAddr: 0xBA0, symBinAddr: 0x27390, symSize: 0x50 }
  - { offsetInCU: 0x20FC, offset: 0xBF90D, size: 0x8, addend: 0x0, symName: '__ZN4core3ptr103drop_in_place$LT$core..option..Option$LT$alloc..boxed..Box$LT$syn..generics..WherePredicate$GT$$GT$$GT$17h9a4608366666a03eE', symObjAddr: 0xBF0, symBinAddr: 0x273E0, symSize: 0xD0 }
  - { offsetInCU: 0x248F, offset: 0xBFCA0, size: 0x8, addend: 0x0, symName: '__ZN4core3ptr103drop_in_place$LT$syn..punctuated..Punctuated$LT$syn..generics..GenericParam$C$syn..token..Comma$GT$$GT$17h15e43300a903bb89E', symObjAddr: 0xCC0, symBinAddr: 0x274B0, symSize: 0xF0 }
  - { offsetInCU: 0x2952, offset: 0xC0163, size: 0x8, addend: 0x0, symName: '__ZN4core3ptr104drop_in_place$LT$syn..punctuated..Punctuated$LT$syn..generics..TypeParamBound$C$syn..token..Plus$GT$$GT$17had3acc816e743daaE', symObjAddr: 0xDB0, symBinAddr: 0x275A0, symSize: 0x230 }
  - { offsetInCU: 0x3230, offset: 0xC0A41, size: 0x8, addend: 0x0, symName: '__ZN4core3ptr34drop_in_place$LT$syn..lit..Lit$GT$17h6b60c77d72d8ba47E', symObjAddr: 0xFE0, symBinAddr: 0x277D0, symSize: 0x110 }
  - { offsetInCU: 0x3789, offset: 0xC0F9A, size: 0x8, addend: 0x0, symName: '__ZN4core3ptr34drop_in_place$LT$syn..pat..Pat$GT$17hfe0bc942cbb9fc1dE', symObjAddr: 0x10F0, symBinAddr: 0x278E0, symSize: 0xEE0 }
  - { offsetInCU: 0x6DD8, offset: 0xC45E9, size: 0x8, addend: 0x0, symName: '__ZN4core3ptr34drop_in_place$LT$syn..ty..Type$GT$17h0af7ff7d9a871ef4E', symObjAddr: 0x1FD0, symBinAddr: 0x287C0, symSize: 0x5C0 }
  - { offsetInCU: 0x860E, offset: 0xC5E1F, size: 0x8, addend: 0x0, symName: '__ZN4core3ptr36drop_in_place$LT$syn..expr..Expr$GT$17hee572fdad3e3c377E', symObjAddr: 0x2590, symBinAddr: 0x28D80, symSize: 0x2800 }
  - { offsetInCU: 0x117EB, offset: 0xCEFFC, size: 0x8, addend: 0x0, symName: '__ZN4core3ptr36drop_in_place$LT$syn..mac..Macro$GT$17hef9caad1bbdb2928E', symObjAddr: 0x4D90, symBinAddr: 0x2B580, symSize: 0xE0 }
  - { offsetInCU: 0x11B5C, offset: 0xCF36D, size: 0x8, addend: 0x0, symName: '__ZN4core3ptr36drop_in_place$LT$syn..path..Path$GT$17hc739472668523ee0E', symObjAddr: 0x4E70, symBinAddr: 0x2B660, symSize: 0x220 }
  - { offsetInCU: 0x12491, offset: 0xCFCA2, size: 0x8, addend: 0x0, symName: '__ZN4core3ptr37drop_in_place$LT$syn..stmt..Block$GT$17h8f33d86832a9ade3E', symObjAddr: 0x5090, symBinAddr: 0x2B880, symSize: 0xD0 }
  - { offsetInCU: 0x127D0, offset: 0xCFFE1, size: 0x8, addend: 0x0, symName: '__ZN4core3ptr38drop_in_place$LT$syn..data..Fields$GT$17h74fdbe2ad267bf80E', symObjAddr: 0x5160, symBinAddr: 0x2B950, symSize: 0x190 }
  - { offsetInCU: 0x12CA8, offset: 0xD04B9, size: 0x8, addend: 0x0, symName: '__ZN4core3ptr38drop_in_place$LT$syn..derive..Data$GT$17h4fa23cd17ed5e548E', symObjAddr: 0x52F0, symBinAddr: 0x2BAE0, symSize: 0x1D0 }
  - { offsetInCU: 0x132E8, offset: 0xD0AF9, size: 0x8, addend: 0x0, symName: '__ZN4core3ptr38drop_in_place$LT$syn..expr..Member$GT$17h9a05f98941ca44e3E', symObjAddr: 0x54C0, symBinAddr: 0x2BCB0, symSize: 0x30 }
  - { offsetInCU: 0x133E5, offset: 0xD0BF6, size: 0x8, addend: 0x0, symName: '__ZN4core3ptr39drop_in_place$LT$proc_macro2..Ident$GT$17h51a9079149430ca5E', symObjAddr: 0x54F0, symBinAddr: 0x2BCE0, symSize: 0x30 }
  - { offsetInCU: 0x135F9, offset: 0xD0E0A, size: 0x8, addend: 0x0, symName: '__ZN4core3ptr39drop_in_place$LT$syn..buffer..Entry$GT$17h0a2fd36a49928bf6E', symObjAddr: 0x5520, symBinAddr: 0x2BD10, symSize: 0xC0 }
  - { offsetInCU: 0x1390D, offset: 0xD111E, size: 0x8, addend: 0x0, symName: '__ZN4core3ptr40drop_in_place$LT$syn..ty..ReturnType$GT$17hb55f0b29bbcffe7aE', symObjAddr: 0x55E0, symBinAddr: 0x2BDD0, symSize: 0x50 }
  - { offsetInCU: 0x13A7F, offset: 0xD1290, size: 0x8, addend: 0x0, symName: '__ZN4core3ptr41drop_in_place$LT$syn..expr..ExprConst$GT$17h8664d4ac74b7f167E', symObjAddr: 0x5630, symBinAddr: 0x2BE20, symSize: 0x180 }
  - { offsetInCU: 0x13FD4, offset: 0xD17E5, size: 0x8, addend: 0x0, symName: '__ZN4core3ptr44drop_in_place$LT$syn..generics..Generics$GT$17h43de71c227b3fe65E', symObjAddr: 0x57B0, symBinAddr: 0x2BFA0, symSize: 0x40 }
  - { offsetInCU: 0x13FF1, offset: 0xD1802, size: 0x8, addend: 0x0, symName: '__ZN4core3ptr44drop_in_place$LT$syn..lifetime..Lifetime$GT$17h64c6c9b4c34bdd12E', symObjAddr: 0x57F0, symBinAddr: 0x2BFE0, symSize: 0x30 }
  - { offsetInCU: 0x140EE, offset: 0xD18FF, size: 0x8, addend: 0x0, symName: '__ZN4core3ptr44drop_in_place$LT$syn..parse..ParseBuffer$GT$17hffe8b9b07241349bE', symObjAddr: 0x5820, symBinAddr: 0x2C010, symSize: 0x70 }
  - { offsetInCU: 0x14488, offset: 0xD1C99, size: 0x8, addend: 0x0, symName: '__ZN4core3ptr45drop_in_place$LT$proc_macro2..TokenStream$GT$17ha9e262056121263eE', symObjAddr: 0x5890, symBinAddr: 0x2C080, symSize: 0x140 }
  - { offsetInCU: 0x148B9, offset: 0xD20CA, size: 0x8, addend: 0x0, symName: '__ZN4core3ptr45drop_in_place$LT$syn..buffer..TokenBuffer$GT$17hdada8a2629dc4c38E', symObjAddr: 0x59D0, symBinAddr: 0x2C1C0, symSize: 0xD0 }
  - { offsetInCU: 0x14B5D, offset: 0xD236E, size: 0x8, addend: 0x0, symName: '__ZN4core3ptr45drop_in_place$LT$syn..derive..DeriveInput$GT$17h77c8310fe596bc75E', symObjAddr: 0x5AA0, symBinAddr: 0x2C290, symSize: 0x1A0 }
  - { offsetInCU: 0x150B3, offset: 0xD28C4, size: 0x8, addend: 0x0, symName: '__ZN4core3ptr45drop_in_place$LT$syn..generics..TypeParam$GT$17h23b2178ca3621470E', symObjAddr: 0x5C40, symBinAddr: 0x2C430, symSize: 0x230 }
  - { offsetInCU: 0x158AF, offset: 0xD30C0, size: 0x8, addend: 0x0, symName: '__ZN4core3ptr46drop_in_place$LT$syn..generics..ConstParam$GT$17h8a262f238ef941e4E', symObjAddr: 0x5E70, symBinAddr: 0x2C660, symSize: 0x150 }
  - { offsetInCU: 0x15CD9, offset: 0xD34EA, size: 0x8, addend: 0x0, symName: '__ZN4core3ptr47drop_in_place$LT$syn..path..GenericArgument$GT$17h160c38ee261939cdE', symObjAddr: 0x5FC0, symBinAddr: 0x2C7B0, symSize: 0x460 }
  - { offsetInCU: 0x169E2, offset: 0xD41F3, size: 0x8, addend: 0x0, symName: '__ZN4core3ptr49drop_in_place$LT$syn..generics..LifetimeParam$GT$17h313054da53e69355E', symObjAddr: 0x6420, symBinAddr: 0x2CC10, symSize: 0xF0 }
  - { offsetInCU: 0x16D9C, offset: 0xD45AD, size: 0x8, addend: 0x0, symName: '__ZN4core3ptr49drop_in_place$LT$syn..restriction..Visibility$GT$17ha917b3b59ff025c8E', symObjAddr: 0x6510, symBinAddr: 0x2CD00, symSize: 0x60 }
  - { offsetInCU: 0x16F1F, offset: 0xD4730, size: 0x8, addend: 0x0, symName: '__ZN4core3ptr50drop_in_place$LT$syn..generics..TypeParamBound$GT$17h9c7c622140c9da06E', symObjAddr: 0x6570, symBinAddr: 0x2CD60, symSize: 0xA0 }
  - { offsetInCU: 0x17086, offset: 0xD4897, size: 0x8, addend: 0x0, symName: '__ZN4core3ptr58drop_in_place$LT$alloc..vec..Vec$LT$syn..expr..Arm$GT$$GT$17h6b1948b8db2bce6fE', symObjAddr: 0x6610, symBinAddr: 0x2CE00, symSize: 0xD0 }
  - { offsetInCU: 0x17313, offset: 0xD4B24, size: 0x8, addend: 0x0, symName: '__ZN4core3ptr59drop_in_place$LT$alloc..boxed..Box$LT$syn..pat..Pat$GT$$GT$17h83e3a97283934866E', symObjAddr: 0x66E0, symBinAddr: 0x2CED0, symSize: 0x50 }
  - { offsetInCU: 0x1746E, offset: 0xD4C7F, size: 0x8, addend: 0x0, symName: '__ZN4core3ptr59drop_in_place$LT$alloc..boxed..Box$LT$syn..ty..Type$GT$$GT$17h68f3d7ce8ae82e1fE', symObjAddr: 0x6730, symBinAddr: 0x2CF20, symSize: 0x50 }
  - { offsetInCU: 0x175C9, offset: 0xD4DDA, size: 0x8, addend: 0x0, symName: '__ZN4core3ptr61drop_in_place$LT$alloc..boxed..Box$LT$syn..expr..Expr$GT$$GT$17hf2473b11b850ff26E', symObjAddr: 0x6780, symBinAddr: 0x2CF70, symSize: 0x50 }
  - { offsetInCU: 0x17724, offset: 0xD4F35, size: 0x8, addend: 0x0, symName: '__ZN4core3ptr61drop_in_place$LT$syn..path..ParenthesizedGenericArguments$GT$17h7974c08710945203E', symObjAddr: 0x67D0, symBinAddr: 0x2CFC0, symSize: 0x170 }
  - { offsetInCU: 0x17CFE, offset: 0xD550F, size: 0x8, addend: 0x0, symName: '__ZN4core3ptr63drop_in_place$LT$alloc..boxed..Box$LT$syn..lit..LitRepr$GT$$GT$17he43f62a182548d62E', symObjAddr: 0x6940, symBinAddr: 0x2D130, symSize: 0x60 }
  - { offsetInCU: 0x17FF3, offset: 0xD5804, size: 0x8, addend: 0x0, symName: '__ZN4core3ptr64drop_in_place$LT$alloc..boxed..Box$LT$syn..pat..FieldPat$GT$$GT$17h5d6f4e3f334c4f1cE', symObjAddr: 0x69A0, symBinAddr: 0x2D190, symSize: 0x140 }
  - { offsetInCU: 0x1869E, offset: 0xD5EAF, size: 0x8, addend: 0x0, symName: '__ZN4core3ptr64drop_in_place$LT$alloc..boxed..Box$LT$syn..ty..BareFnArg$GT$$GT$17hbaf5e7b0829d1c6eE', symObjAddr: 0x6AE0, symBinAddr: 0x2D2D0, symSize: 0x140 }
  - { offsetInCU: 0x18BC2, offset: 0xD63D3, size: 0x8, addend: 0x0, symName: '__ZN4core3ptr65drop_in_place$LT$core..option..Option$LT$syn..expr..Label$GT$$GT$17h35210e246cc7075eE', symObjAddr: 0x6C20, symBinAddr: 0x2D410, symSize: 0x30 }
  - { offsetInCU: 0x18CFD, offset: 0xD650E, size: 0x8, addend: 0x0, symName: '__ZN4core3ptr66drop_in_place$LT$core..option..Option$LT$syn..pat..PatRest$GT$$GT$17h109d2742695cbaddE', symObjAddr: 0x6C50, symBinAddr: 0x2D440, symSize: 0xE0 }
  - { offsetInCU: 0x18F81, offset: 0xD6792, size: 0x8, addend: 0x0, symName: '__ZN4core3ptr67drop_in_place$LT$alloc..boxed..Box$LT$syn..expr..FieldValue$GT$$GT$17h61a24e2077549ea3E', symObjAddr: 0x6D30, symBinAddr: 0x2D520, symSize: 0x140 }
  - { offsetInCU: 0x194A4, offset: 0xD6CB5, size: 0x8, addend: 0x0, symName: '__ZN4core3ptr70drop_in_place$LT$core..option..Option$LT$syn..ty..BareVariadic$GT$$GT$17h94f3f521ec008aa3E', symObjAddr: 0x6E70, symBinAddr: 0x2D660, symSize: 0x120 }
  - { offsetInCU: 0x199D1, offset: 0xD71E2, size: 0x8, addend: 0x0, symName: '__ZN4core3ptr72drop_in_place$LT$alloc..boxed..Box$LT$syn..path..GenericArgument$GT$$GT$17h868ea88692b0c422E', symObjAddr: 0x6F90, symBinAddr: 0x2D780, symSize: 0x2B0 }
  - { offsetInCU: 0x1A3BC, offset: 0xD7BCD, size: 0x8, addend: 0x0, symName: '__ZN4core3ptr72drop_in_place$LT$core..option..Option$LT$syn..lifetime..Lifetime$GT$$GT$17h7e95c58181ab0653E', symObjAddr: 0x7240, symBinAddr: 0x2DA30, symSize: 0x30 }
  - { offsetInCU: 0x1A4D8, offset: 0xD7CE9, size: 0x8, addend: 0x0, symName: '__ZN4core3ptr73drop_in_place$LT$alloc..boxed..Box$LT$syn..generics..GenericParam$GT$$GT$17hc215c6e1b028b324E', symObjAddr: 0x7270, symBinAddr: 0x2DA60, symSize: 0x80 }
  - { offsetInCU: 0x1A650, offset: 0xD7E61, size: 0x8, addend: 0x0, symName: '__ZN4core3ptr75drop_in_place$LT$alloc..boxed..Box$LT$syn..generics..TypeParamBound$GT$$GT$17h62e5847596683f18E', symObjAddr: 0x72F0, symBinAddr: 0x2DAE0, symSize: 0x160 }
  - { offsetInCU: 0x1AC35, offset: 0xD8446, size: 0x8, addend: 0x0, symName: '__ZN4core3ptr75drop_in_place$LT$core..option..Option$LT$syn..generics..WhereClause$GT$$GT$17hf3c6f384b26e1c51E', symObjAddr: 0x7450, symBinAddr: 0x2DC40, symSize: 0x90 }
  - { offsetInCU: 0x1AEEB, offset: 0xD86FC, size: 0x8, addend: 0x0, symName: '__ZN4core3ptr86drop_in_place$LT$syn..punctuated..Punctuated$LT$syn..pat..Pat$C$syn..token..Or$GT$$GT$17hfc7ff3c167a59e94E', symObjAddr: 0x74E0, symBinAddr: 0x2DCD0, symSize: 0x120 }
  - { offsetInCU: 0x1B331, offset: 0xD8B42, size: 0x8, addend: 0x0, symName: '__ZN4core3ptr87drop_in_place$LT$core..option..Option$LT$alloc..boxed..Box$LT$syn..pat..Pat$GT$$GT$$GT$17h3766593dbbf17f07E', symObjAddr: 0x7600, symBinAddr: 0x2DDF0, symSize: 0x50 }
  - { offsetInCU: 0x1B4A3, offset: 0xD8CB4, size: 0x8, addend: 0x0, symName: '__ZN4core3ptr87drop_in_place$LT$core..option..Option$LT$alloc..boxed..Box$LT$syn..ty..Type$GT$$GT$$GT$17h9b8fd27e5577387cE', symObjAddr: 0x7650, symBinAddr: 0x2DE40, symSize: 0x50 }
  - { offsetInCU: 0x1B615, offset: 0xD8E26, size: 0x8, addend: 0x0, symName: '__ZN4core3ptr89drop_in_place$LT$core..option..Option$LT$alloc..boxed..Box$LT$syn..expr..Expr$GT$$GT$$GT$17h52dcbcaaf583ff0cE', symObjAddr: 0x76A0, symBinAddr: 0x2DE90, symSize: 0x50 }
  - { offsetInCU: 0x1B7C5, offset: 0xD8FD6, size: 0x8, addend: 0x0, symName: '__ZN4core3ptr89drop_in_place$LT$syn..punctuated..Punctuated$LT$syn..pat..Pat$C$syn..token..Comma$GT$$GT$17ha11cb7ffbf8adb93E', symObjAddr: 0x76F0, symBinAddr: 0x2DEE0, symSize: 0x120 }
  - { offsetInCU: 0x1BC7F, offset: 0xD9490, size: 0x8, addend: 0x0, symName: '__ZN4core3ptr90drop_in_place$LT$core..option..Option$LT$alloc..boxed..Box$LT$syn..data..Field$GT$$GT$$GT$17h997d4a4cf842ea9dE', symObjAddr: 0x7810, symBinAddr: 0x2E000, symSize: 0x200 }
  - { offsetInCU: 0x1C4F4, offset: 0xD9D05, size: 0x8, addend: 0x0, symName: '__ZN4core3ptr91drop_in_place$LT$syn..punctuated..Punctuated$LT$syn..expr..Expr$C$syn..token..Comma$GT$$GT$17he59a897140a45010E', symObjAddr: 0x7A10, symBinAddr: 0x2E200, symSize: 0x120 }
  - { offsetInCU: 0x1C9CD, offset: 0xDA1DE, size: 0x8, addend: 0x0, symName: '__ZN4core3ptr92drop_in_place$LT$core..option..Option$LT$alloc..boxed..Box$LT$syn..data..Variant$GT$$GT$$GT$17hfa15472f0c8539d8E', symObjAddr: 0x7B30, symBinAddr: 0x2E320, symSize: 0x190 }
  - { offsetInCU: 0x1D019, offset: 0xDA82A, size: 0x8, addend: 0x0, symName: '__ZN4core3ptr94drop_in_place$LT$syn..punctuated..Punctuated$LT$syn..pat..FieldPat$C$syn..token..Comma$GT$$GT$17hf15d1d73808e7756E', symObjAddr: 0x7CC0, symBinAddr: 0x2E4B0, symSize: 0xF0 }
  - { offsetInCU: 0x1D2E3, offset: 0xDAAF4, size: 0x8, addend: 0x0, symName: '__ZN4core3ptr94drop_in_place$LT$syn..punctuated..Punctuated$LT$syn..ty..BareFnArg$C$syn..token..Comma$GT$$GT$17hb18255224b06a811E', symObjAddr: 0x7DB0, symBinAddr: 0x2E5A0, symSize: 0xF0 }
  - { offsetInCU: 0x1D5AD, offset: 0xDADBE, size: 0x8, addend: 0x0, symName: '__ZN4core3ptr96drop_in_place$LT$core..option..Option$LT$alloc..boxed..Box$LT$syn..path..PathSegment$GT$$GT$$GT$17h3989ab6e08ac68c4E', symObjAddr: 0x7EA0, symBinAddr: 0x2E690, symSize: 0x180 }
  - { offsetInCU: 0x1DC3E, offset: 0xDB44F, size: 0x8, addend: 0x0, symName: '__ZN4core3ptr97drop_in_place$LT$syn..punctuated..Punctuated$LT$syn..expr..FieldValue$C$syn..token..Comma$GT$$GT$17hb048018f44a756c3E', symObjAddr: 0x8020, symBinAddr: 0x2E810, symSize: 0xF0 }
  - { offsetInCU: 0x1DF84, offset: 0xDB795, size: 0x8, addend: 0x0, symName: '__ZN4core3ptr98drop_in_place$LT$syn..punctuated..Punctuated$LT$syn..lifetime..Lifetime$C$syn..token..Plus$GT$$GT$17hfad1276e02bd5dc6E', symObjAddr: 0x8110, symBinAddr: 0x2E900, symSize: 0xB1 }
  - { offsetInCU: 0x22590, offset: 0xDFDA1, size: 0x8, addend: 0x0, symName: '__ZN40_$LT$F$u20$as$u20$syn..parse..Parser$GT$14__parse_scoped17h5c282f0682350604E', symObjAddr: 0x530, symBinAddr: 0x26D20, symSize: 0x530 }
  - { offsetInCU: 0x23330, offset: 0xE0B41, size: 0x8, addend: 0x0, symName: __ZN3syn5parse6Parser5parse17h5dd09048d291ceb8E, symObjAddr: 0x0, symBinAddr: 0x267F0, symSize: 0x530 }
  - { offsetInCU: 0x1E, offset: 0xE9E1A, size: 0x8, addend: 0x0, symName: __ZN3syn11parse_quote5parse17h16b36736e7220a76E, symObjAddr: 0x0, symBinAddr: 0x2E9C0, symSize: 0x500 }
  - { offsetInCU: 0x19AB, offset: 0xEB7A7, size: 0x8, addend: 0x0, symName: '__ZN4core3ptr100drop_in_place$LT$core..option..Option$LT$alloc..boxed..Box$LT$syn..path..GenericArgument$GT$$GT$$GT$17h3976b6a3946c56d5E', symObjAddr: 0xAB0, symBinAddr: 0x2F420, symSize: 0x50 }
  - { offsetInCU: 0x1B7A, offset: 0xEB976, size: 0x8, addend: 0x0, symName: '__ZN4core3ptr102drop_in_place$LT$syn..punctuated..Punctuated$LT$syn..path..GenericArgument$C$syn..token..Comma$GT$$GT$17hed2f1cc8e4eed741E', symObjAddr: 0xB00, symBinAddr: 0x2F470, symSize: 0xF0 }
  - { offsetInCU: 0x1E63, offset: 0xEBC5F, size: 0x8, addend: 0x0, symName: '__ZN4core3ptr103drop_in_place$LT$core..option..Option$LT$alloc..boxed..Box$LT$syn..generics..TypeParamBound$GT$$GT$$GT$17h71e68896d59885dcE', symObjAddr: 0xBF0, symBinAddr: 0x2F560, symSize: 0x50 }
  - { offsetInCU: 0x2070, offset: 0xEBE6C, size: 0x8, addend: 0x0, symName: '__ZN4core3ptr103drop_in_place$LT$syn..punctuated..Punctuated$LT$syn..generics..GenericParam$C$syn..token..Comma$GT$$GT$17h15e43300a903bb89E', symObjAddr: 0xC40, symBinAddr: 0x2F5B0, symSize: 0xF0 }
  - { offsetInCU: 0x2590, offset: 0xEC38C, size: 0x8, addend: 0x0, symName: '__ZN4core3ptr104drop_in_place$LT$syn..punctuated..Punctuated$LT$syn..generics..TypeParamBound$C$syn..token..Plus$GT$$GT$17had3acc816e743daaE', symObjAddr: 0xD30, symBinAddr: 0x2F6A0, symSize: 0x230 }
  - { offsetInCU: 0x2E6E, offset: 0xECC6A, size: 0x8, addend: 0x0, symName: '__ZN4core3ptr34drop_in_place$LT$syn..lit..Lit$GT$17h6b60c77d72d8ba47E', symObjAddr: 0xF60, symBinAddr: 0x2F8D0, symSize: 0x110 }
  - { offsetInCU: 0x33C7, offset: 0xED1C3, size: 0x8, addend: 0x0, symName: '__ZN4core3ptr34drop_in_place$LT$syn..pat..Pat$GT$17hfe0bc942cbb9fc1dE', symObjAddr: 0x1070, symBinAddr: 0x2F9E0, symSize: 0xEE0 }
  - { offsetInCU: 0x6A16, offset: 0xF0812, size: 0x8, addend: 0x0, symName: '__ZN4core3ptr34drop_in_place$LT$syn..ty..Type$GT$17h0af7ff7d9a871ef4E', symObjAddr: 0x1F50, symBinAddr: 0x308C0, symSize: 0x5C0 }
  - { offsetInCU: 0x824C, offset: 0xF2048, size: 0x8, addend: 0x0, symName: '__ZN4core3ptr36drop_in_place$LT$syn..expr..Expr$GT$17hee572fdad3e3c377E', symObjAddr: 0x2510, symBinAddr: 0x30E80, symSize: 0x2800 }
  - { offsetInCU: 0x11429, offset: 0xFB225, size: 0x8, addend: 0x0, symName: '__ZN4core3ptr36drop_in_place$LT$syn..mac..Macro$GT$17hef9caad1bbdb2928E', symObjAddr: 0x4D10, symBinAddr: 0x33680, symSize: 0xE0 }
  - { offsetInCU: 0x1179A, offset: 0xFB596, size: 0x8, addend: 0x0, symName: '__ZN4core3ptr36drop_in_place$LT$syn..path..Path$GT$17hc739472668523ee0E', symObjAddr: 0x4DF0, symBinAddr: 0x33760, symSize: 0x220 }
  - { offsetInCU: 0x120CF, offset: 0xFBECB, size: 0x8, addend: 0x0, symName: '__ZN4core3ptr37drop_in_place$LT$syn..stmt..Block$GT$17h8f33d86832a9ade3E', symObjAddr: 0x5010, symBinAddr: 0x33980, symSize: 0xD0 }
  - { offsetInCU: 0x123B1, offset: 0xFC1AD, size: 0x8, addend: 0x0, symName: '__ZN4core3ptr38drop_in_place$LT$syn..error..Error$GT$17h88d123ccf66c02bdE', symObjAddr: 0x50E0, symBinAddr: 0x33A50, symSize: 0x80 }
  - { offsetInCU: 0x12682, offset: 0xFC47E, size: 0x8, addend: 0x0, symName: '__ZN4core3ptr38drop_in_place$LT$syn..expr..Member$GT$17h9a05f98941ca44e3E', symObjAddr: 0x5160, symBinAddr: 0x33AD0, symSize: 0x30 }
  - { offsetInCU: 0x1277F, offset: 0xFC57B, size: 0x8, addend: 0x0, symName: '__ZN4core3ptr39drop_in_place$LT$proc_macro2..Ident$GT$17h51a9079149430ca5E', symObjAddr: 0x5190, symBinAddr: 0x33B00, symSize: 0x30 }
  - { offsetInCU: 0x12993, offset: 0xFC78F, size: 0x8, addend: 0x0, symName: '__ZN4core3ptr39drop_in_place$LT$syn..buffer..Entry$GT$17h0a2fd36a49928bf6E', symObjAddr: 0x51C0, symBinAddr: 0x33B30, symSize: 0xC0 }
  - { offsetInCU: 0x12CA7, offset: 0xFCAA3, size: 0x8, addend: 0x0, symName: '__ZN4core3ptr40drop_in_place$LT$syn..ty..ReturnType$GT$17hb55f0b29bbcffe7aE', symObjAddr: 0x5280, symBinAddr: 0x33BF0, symSize: 0x50 }
  - { offsetInCU: 0x12E19, offset: 0xFCC15, size: 0x8, addend: 0x0, symName: '__ZN4core3ptr41drop_in_place$LT$syn..expr..ExprConst$GT$17h8664d4ac74b7f167E', symObjAddr: 0x52D0, symBinAddr: 0x33C40, symSize: 0x180 }
  - { offsetInCU: 0x1336E, offset: 0xFD16A, size: 0x8, addend: 0x0, symName: '__ZN4core3ptr44drop_in_place$LT$syn..lifetime..Lifetime$GT$17h64c6c9b4c34bdd12E', symObjAddr: 0x5450, symBinAddr: 0x33DC0, symSize: 0x30 }
  - { offsetInCU: 0x1346B, offset: 0xFD267, size: 0x8, addend: 0x0, symName: '__ZN4core3ptr44drop_in_place$LT$syn..parse..ParseBuffer$GT$17hffe8b9b07241349bE', symObjAddr: 0x5480, symBinAddr: 0x33DF0, symSize: 0x70 }
  - { offsetInCU: 0x13805, offset: 0xFD601, size: 0x8, addend: 0x0, symName: '__ZN4core3ptr45drop_in_place$LT$proc_macro2..TokenStream$GT$17ha9e262056121263eE', symObjAddr: 0x54F0, symBinAddr: 0x33E60, symSize: 0x140 }
  - { offsetInCU: 0x13C36, offset: 0xFDA32, size: 0x8, addend: 0x0, symName: '__ZN4core3ptr45drop_in_place$LT$syn..buffer..TokenBuffer$GT$17hdada8a2629dc4c38E', symObjAddr: 0x5630, symBinAddr: 0x33FA0, symSize: 0xD0 }
  - { offsetInCU: 0x13E9C, offset: 0xFDC98, size: 0x8, addend: 0x0, symName: '__ZN4core3ptr45drop_in_place$LT$syn..generics..TypeParam$GT$17h23b2178ca3621470E', symObjAddr: 0x5700, symBinAddr: 0x34070, symSize: 0x230 }
  - { offsetInCU: 0x14698, offset: 0xFE494, size: 0x8, addend: 0x0, symName: '__ZN4core3ptr46drop_in_place$LT$syn..generics..ConstParam$GT$17h8a262f238ef941e4E', symObjAddr: 0x5930, symBinAddr: 0x342A0, symSize: 0x150 }
  - { offsetInCU: 0x14AC2, offset: 0xFE8BE, size: 0x8, addend: 0x0, symName: '__ZN4core3ptr47drop_in_place$LT$syn..path..GenericArgument$GT$17h160c38ee261939cdE', symObjAddr: 0x5A80, symBinAddr: 0x343F0, symSize: 0x460 }
  - { offsetInCU: 0x157CB, offset: 0xFF5C7, size: 0x8, addend: 0x0, symName: '__ZN4core3ptr49drop_in_place$LT$syn..generics..LifetimeParam$GT$17h313054da53e69355E', symObjAddr: 0x5EE0, symBinAddr: 0x34850, symSize: 0xF0 }
  - { offsetInCU: 0x15B85, offset: 0xFF981, size: 0x8, addend: 0x0, symName: '__ZN4core3ptr50drop_in_place$LT$syn..generics..TypeParamBound$GT$17h9c7c622140c9da06E', symObjAddr: 0x5FD0, symBinAddr: 0x34940, symSize: 0xA0 }
  - { offsetInCU: 0x15CEC, offset: 0xFFAE8, size: 0x8, addend: 0x0, symName: '__ZN4core3ptr58drop_in_place$LT$alloc..vec..Vec$LT$syn..expr..Arm$GT$$GT$17h6b1948b8db2bce6fE', symObjAddr: 0x6070, symBinAddr: 0x349E0, symSize: 0xD0 }
  - { offsetInCU: 0x15F79, offset: 0xFFD75, size: 0x8, addend: 0x0, symName: '__ZN4core3ptr59drop_in_place$LT$alloc..boxed..Box$LT$syn..pat..Pat$GT$$GT$17h83e3a97283934866E', symObjAddr: 0x6140, symBinAddr: 0x34AB0, symSize: 0x50 }
  - { offsetInCU: 0x160D4, offset: 0xFFED0, size: 0x8, addend: 0x0, symName: '__ZN4core3ptr59drop_in_place$LT$alloc..boxed..Box$LT$syn..ty..Type$GT$$GT$17h68f3d7ce8ae82e1fE', symObjAddr: 0x6190, symBinAddr: 0x34B00, symSize: 0x50 }
  - { offsetInCU: 0x1622F, offset: 0x10002B, size: 0x8, addend: 0x0, symName: '__ZN4core3ptr61drop_in_place$LT$alloc..boxed..Box$LT$syn..expr..Expr$GT$$GT$17hf2473b11b850ff26E', symObjAddr: 0x61E0, symBinAddr: 0x34B50, symSize: 0x50 }
  - { offsetInCU: 0x1638A, offset: 0x100186, size: 0x8, addend: 0x0, symName: '__ZN4core3ptr61drop_in_place$LT$syn..path..ParenthesizedGenericArguments$GT$17h7974c08710945203E', symObjAddr: 0x6230, symBinAddr: 0x34BA0, symSize: 0x170 }
  - { offsetInCU: 0x16964, offset: 0x100760, size: 0x8, addend: 0x0, symName: '__ZN4core3ptr63drop_in_place$LT$alloc..boxed..Box$LT$syn..lit..LitRepr$GT$$GT$17he43f62a182548d62E', symObjAddr: 0x63A0, symBinAddr: 0x34D10, symSize: 0x60 }
  - { offsetInCU: 0x16C59, offset: 0x100A55, size: 0x8, addend: 0x0, symName: '__ZN4core3ptr64drop_in_place$LT$alloc..boxed..Box$LT$syn..pat..FieldPat$GT$$GT$17h5d6f4e3f334c4f1cE', symObjAddr: 0x6400, symBinAddr: 0x34D70, symSize: 0x140 }
  - { offsetInCU: 0x17304, offset: 0x101100, size: 0x8, addend: 0x0, symName: '__ZN4core3ptr64drop_in_place$LT$alloc..boxed..Box$LT$syn..ty..BareFnArg$GT$$GT$17hbaf5e7b0829d1c6eE', symObjAddr: 0x6540, symBinAddr: 0x34EB0, symSize: 0x140 }
  - { offsetInCU: 0x17828, offset: 0x101624, size: 0x8, addend: 0x0, symName: '__ZN4core3ptr65drop_in_place$LT$core..option..Option$LT$syn..expr..Label$GT$$GT$17h35210e246cc7075eE', symObjAddr: 0x6680, symBinAddr: 0x34FF0, symSize: 0x30 }
  - { offsetInCU: 0x17963, offset: 0x10175F, size: 0x8, addend: 0x0, symName: '__ZN4core3ptr66drop_in_place$LT$core..option..Option$LT$syn..pat..PatRest$GT$$GT$17h109d2742695cbaddE', symObjAddr: 0x66B0, symBinAddr: 0x35020, symSize: 0xE0 }
  - { offsetInCU: 0x17BE7, offset: 0x1019E3, size: 0x8, addend: 0x0, symName: '__ZN4core3ptr67drop_in_place$LT$alloc..boxed..Box$LT$syn..expr..FieldValue$GT$$GT$17h61a24e2077549ea3E', symObjAddr: 0x6790, symBinAddr: 0x35100, symSize: 0x140 }
  - { offsetInCU: 0x1810A, offset: 0x101F06, size: 0x8, addend: 0x0, symName: '__ZN4core3ptr70drop_in_place$LT$core..option..Option$LT$syn..ty..BareVariadic$GT$$GT$17h94f3f521ec008aa3E', symObjAddr: 0x68D0, symBinAddr: 0x35240, symSize: 0x120 }
  - { offsetInCU: 0x18637, offset: 0x102433, size: 0x8, addend: 0x0, symName: '__ZN4core3ptr72drop_in_place$LT$alloc..boxed..Box$LT$syn..path..GenericArgument$GT$$GT$17h868ea88692b0c422E', symObjAddr: 0x69F0, symBinAddr: 0x35360, symSize: 0x2B0 }
  - { offsetInCU: 0x19022, offset: 0x102E1E, size: 0x8, addend: 0x0, symName: '__ZN4core3ptr72drop_in_place$LT$core..option..Option$LT$syn..lifetime..Lifetime$GT$$GT$17h7e95c58181ab0653E', symObjAddr: 0x6CA0, symBinAddr: 0x35610, symSize: 0x30 }
  - { offsetInCU: 0x1913E, offset: 0x102F3A, size: 0x8, addend: 0x0, symName: '__ZN4core3ptr73drop_in_place$LT$alloc..boxed..Box$LT$syn..generics..GenericParam$GT$$GT$17hc215c6e1b028b324E', symObjAddr: 0x6CD0, symBinAddr: 0x35640, symSize: 0x80 }
  - { offsetInCU: 0x192B6, offset: 0x1030B2, size: 0x8, addend: 0x0, symName: '__ZN4core3ptr75drop_in_place$LT$alloc..boxed..Box$LT$syn..generics..TypeParamBound$GT$$GT$17h62e5847596683f18E', symObjAddr: 0x6D50, symBinAddr: 0x356C0, symSize: 0x160 }
  - { offsetInCU: 0x1987C, offset: 0x103678, size: 0x8, addend: 0x0, symName: '__ZN4core3ptr86drop_in_place$LT$syn..punctuated..Punctuated$LT$syn..pat..Pat$C$syn..token..Or$GT$$GT$17hfc7ff3c167a59e94E', symObjAddr: 0x6EB0, symBinAddr: 0x35820, symSize: 0x120 }
  - { offsetInCU: 0x19CC2, offset: 0x103ABE, size: 0x8, addend: 0x0, symName: '__ZN4core3ptr87drop_in_place$LT$core..option..Option$LT$alloc..boxed..Box$LT$syn..pat..Pat$GT$$GT$$GT$17h3766593dbbf17f07E', symObjAddr: 0x6FD0, symBinAddr: 0x35940, symSize: 0x50 }
  - { offsetInCU: 0x19E34, offset: 0x103C30, size: 0x8, addend: 0x0, symName: '__ZN4core3ptr87drop_in_place$LT$core..option..Option$LT$alloc..boxed..Box$LT$syn..ty..Type$GT$$GT$$GT$17h9b8fd27e5577387cE', symObjAddr: 0x7020, symBinAddr: 0x35990, symSize: 0x50 }
  - { offsetInCU: 0x19FA6, offset: 0x103DA2, size: 0x8, addend: 0x0, symName: '__ZN4core3ptr89drop_in_place$LT$core..option..Option$LT$alloc..boxed..Box$LT$syn..expr..Expr$GT$$GT$$GT$17h52dcbcaaf583ff0cE', symObjAddr: 0x7070, symBinAddr: 0x359E0, symSize: 0x50 }
  - { offsetInCU: 0x1A156, offset: 0x103F52, size: 0x8, addend: 0x0, symName: '__ZN4core3ptr89drop_in_place$LT$syn..punctuated..Punctuated$LT$syn..pat..Pat$C$syn..token..Comma$GT$$GT$17ha11cb7ffbf8adb93E', symObjAddr: 0x70C0, symBinAddr: 0x35A30, symSize: 0x120 }
  - { offsetInCU: 0x1A5F1, offset: 0x1043ED, size: 0x8, addend: 0x0, symName: '__ZN4core3ptr91drop_in_place$LT$syn..punctuated..Punctuated$LT$syn..expr..Expr$C$syn..token..Comma$GT$$GT$17he59a897140a45010E', symObjAddr: 0x71E0, symBinAddr: 0x35B50, symSize: 0x120 }
  - { offsetInCU: 0x1AA4E, offset: 0x10484A, size: 0x8, addend: 0x0, symName: '__ZN4core3ptr94drop_in_place$LT$syn..punctuated..Punctuated$LT$syn..pat..FieldPat$C$syn..token..Comma$GT$$GT$17hf15d1d73808e7756E', symObjAddr: 0x7300, symBinAddr: 0x35C70, symSize: 0xF0 }
  - { offsetInCU: 0x1AD18, offset: 0x104B14, size: 0x8, addend: 0x0, symName: '__ZN4core3ptr94drop_in_place$LT$syn..punctuated..Punctuated$LT$syn..ty..BareFnArg$C$syn..token..Comma$GT$$GT$17hb18255224b06a811E', symObjAddr: 0x73F0, symBinAddr: 0x35D60, symSize: 0xF0 }
  - { offsetInCU: 0x1AFE2, offset: 0x104DDE, size: 0x8, addend: 0x0, symName: '__ZN4core3ptr96drop_in_place$LT$core..option..Option$LT$alloc..boxed..Box$LT$syn..path..PathSegment$GT$$GT$$GT$17h3989ab6e08ac68c4E', symObjAddr: 0x74E0, symBinAddr: 0x35E50, symSize: 0x180 }
  - { offsetInCU: 0x1B673, offset: 0x10546F, size: 0x8, addend: 0x0, symName: '__ZN4core3ptr97drop_in_place$LT$syn..punctuated..Punctuated$LT$syn..expr..FieldValue$C$syn..token..Comma$GT$$GT$17hb048018f44a756c3E', symObjAddr: 0x7660, symBinAddr: 0x35FD0, symSize: 0xF0 }
  - { offsetInCU: 0x1B9B9, offset: 0x1057B5, size: 0x8, addend: 0x0, symName: '__ZN4core3ptr98drop_in_place$LT$syn..punctuated..Punctuated$LT$syn..lifetime..Lifetime$C$syn..token..Plus$GT$$GT$17hfad1276e02bd5dc6E', symObjAddr: 0x7750, symBinAddr: 0x360C0, symSize: 0xB1 }
  - { offsetInCU: 0x22A56, offset: 0x10C852, size: 0x8, addend: 0x0, symName: __ZN3syn11parse_quote5parse17h16b36736e7220a76E, symObjAddr: 0x0, symBinAddr: 0x2E9C0, symSize: 0x500 }
  - { offsetInCU: 0x234BB, offset: 0x10D2B7, size: 0x8, addend: 0x0, symName: __ZN3syn11parse_quote5parse17h2d13fb43ae010767E, symObjAddr: 0x500, symBinAddr: 0x2EEC0, symSize: 0x560 }
  - { offsetInCU: 0x241E7, offset: 0x10DFE3, size: 0x8, addend: 0x0, symName: __ZN3syn11parse_quote5parse18panic_cold_display17h1d9eb03ebcde74bdE, symObjAddr: 0xA60, symBinAddr: 0x1FE210, symSize: 0x50 }
  - { offsetInCU: 0x1E, offset: 0x11360D, size: 0x8, addend: 0x0, symName: '__ZN4core3ptr100drop_in_place$LT$core..option..Option$LT$alloc..boxed..Box$LT$syn..path..GenericArgument$GT$$GT$$GT$17h3976b6a3946c56d5E', symObjAddr: 0x0, symBinAddr: 0x36180, symSize: 0x50 }
  - { offsetInCU: 0x1696, offset: 0x114C85, size: 0x8, addend: 0x0, symName: '__ZN4core3ptr100drop_in_place$LT$core..option..Option$LT$alloc..boxed..Box$LT$syn..path..GenericArgument$GT$$GT$$GT$17h3976b6a3946c56d5E', symObjAddr: 0x0, symBinAddr: 0x36180, symSize: 0x50 }
  - { offsetInCU: 0x1865, offset: 0x114E54, size: 0x8, addend: 0x0, symName: '__ZN4core3ptr102drop_in_place$LT$syn..punctuated..Punctuated$LT$syn..path..GenericArgument$C$syn..token..Comma$GT$$GT$17hed2f1cc8e4eed741E', symObjAddr: 0x50, symBinAddr: 0x361D0, symSize: 0xF0 }
  - { offsetInCU: 0x1B4E, offset: 0x11513D, size: 0x8, addend: 0x0, symName: '__ZN4core3ptr103drop_in_place$LT$core..option..Option$LT$alloc..boxed..Box$LT$syn..generics..TypeParamBound$GT$$GT$$GT$17h71e68896d59885dcE', symObjAddr: 0x140, symBinAddr: 0x362C0, symSize: 0x50 }
  - { offsetInCU: 0x1D5B, offset: 0x11534A, size: 0x8, addend: 0x0, symName: '__ZN4core3ptr103drop_in_place$LT$syn..punctuated..Punctuated$LT$syn..generics..GenericParam$C$syn..token..Comma$GT$$GT$17h15e43300a903bb89E', symObjAddr: 0x190, symBinAddr: 0x36310, symSize: 0xF0 }
  - { offsetInCU: 0x22F7, offset: 0x1158E6, size: 0x8, addend: 0x0, symName: '__ZN4core3ptr104drop_in_place$LT$syn..punctuated..Punctuated$LT$syn..generics..TypeParamBound$C$syn..token..Plus$GT$$GT$17had3acc816e743daaE', symObjAddr: 0x280, symBinAddr: 0x36400, symSize: 0x230 }
  - { offsetInCU: 0x2BD5, offset: 0x1161C4, size: 0x8, addend: 0x0, symName: '__ZN4core3ptr34drop_in_place$LT$syn..lit..Lit$GT$17h6b60c77d72d8ba47E', symObjAddr: 0x4B0, symBinAddr: 0x36630, symSize: 0x110 }
  - { offsetInCU: 0x312E, offset: 0x11671D, size: 0x8, addend: 0x0, symName: '__ZN4core3ptr34drop_in_place$LT$syn..pat..Pat$GT$17hfe0bc942cbb9fc1dE', symObjAddr: 0x5C0, symBinAddr: 0x36740, symSize: 0xEE0 }
  - { offsetInCU: 0x677D, offset: 0x119D6C, size: 0x8, addend: 0x0, symName: '__ZN4core3ptr34drop_in_place$LT$syn..ty..Type$GT$17h0af7ff7d9a871ef4E', symObjAddr: 0x14A0, symBinAddr: 0x37620, symSize: 0x5C0 }
  - { offsetInCU: 0x7FB3, offset: 0x11B5A2, size: 0x8, addend: 0x0, symName: '__ZN4core3ptr36drop_in_place$LT$syn..expr..Expr$GT$17hee572fdad3e3c377E', symObjAddr: 0x1A60, symBinAddr: 0x37BE0, symSize: 0x2800 }
  - { offsetInCU: 0x11190, offset: 0x12477F, size: 0x8, addend: 0x0, symName: '__ZN4core3ptr36drop_in_place$LT$syn..mac..Macro$GT$17hef9caad1bbdb2928E', symObjAddr: 0x4260, symBinAddr: 0x3A3E0, symSize: 0xE0 }
  - { offsetInCU: 0x11501, offset: 0x124AF0, size: 0x8, addend: 0x0, symName: '__ZN4core3ptr36drop_in_place$LT$syn..path..Path$GT$17hc739472668523ee0E', symObjAddr: 0x4340, symBinAddr: 0x3A4C0, symSize: 0x220 }
  - { offsetInCU: 0x11EB2, offset: 0x1254A1, size: 0x8, addend: 0x0, symName: '__ZN4core3ptr37drop_in_place$LT$syn..data..Field$GT$17h032c3db494aa11a2E.llvm.5988412005844948852', symObjAddr: 0x4560, symBinAddr: 0x3A6E0, symSize: 0x170 }
  - { offsetInCU: 0x123D3, offset: 0x1259C2, size: 0x8, addend: 0x0, symName: '__ZN4core3ptr37drop_in_place$LT$syn..stmt..Block$GT$17h8f33d86832a9ade3E', symObjAddr: 0x46D0, symBinAddr: 0x3A850, symSize: 0xD0 }
  - { offsetInCU: 0x12677, offset: 0x125C66, size: 0x8, addend: 0x0, symName: '__ZN4core3ptr38drop_in_place$LT$syn..expr..Member$GT$17h9a05f98941ca44e3E', symObjAddr: 0x47A0, symBinAddr: 0x3A920, symSize: 0x30 }
  - { offsetInCU: 0x12774, offset: 0x125D63, size: 0x8, addend: 0x0, symName: '__ZN4core3ptr39drop_in_place$LT$proc_macro2..Ident$GT$17h51a9079149430ca5E', symObjAddr: 0x47D0, symBinAddr: 0x3A950, symSize: 0x30 }
  - { offsetInCU: 0x12852, offset: 0x125E41, size: 0x8, addend: 0x0, symName: '__ZN4core3ptr40drop_in_place$LT$syn..ty..ReturnType$GT$17hb55f0b29bbcffe7aE', symObjAddr: 0x4800, symBinAddr: 0x3A980, symSize: 0x50 }
  - { offsetInCU: 0x129C4, offset: 0x125FB3, size: 0x8, addend: 0x0, symName: '__ZN4core3ptr41drop_in_place$LT$syn..expr..ExprConst$GT$17h8664d4ac74b7f167E', symObjAddr: 0x4850, symBinAddr: 0x3A9D0, symSize: 0x180 }
  - { offsetInCU: 0x12F19, offset: 0x126508, size: 0x8, addend: 0x0, symName: '__ZN4core3ptr44drop_in_place$LT$syn..lifetime..Lifetime$GT$17h64c6c9b4c34bdd12E', symObjAddr: 0x49D0, symBinAddr: 0x3AB50, symSize: 0x30 }
  - { offsetInCU: 0x1314C, offset: 0x12673B, size: 0x8, addend: 0x0, symName: '__ZN4core3ptr45drop_in_place$LT$proc_macro2..TokenStream$GT$17ha9e262056121263eE', symObjAddr: 0x4A00, symBinAddr: 0x3AB80, symSize: 0x140 }
  - { offsetInCU: 0x135BB, offset: 0x126BAA, size: 0x8, addend: 0x0, symName: '__ZN4core3ptr45drop_in_place$LT$syn..generics..TypeParam$GT$17h23b2178ca3621470E', symObjAddr: 0x4B40, symBinAddr: 0x3ACC0, symSize: 0x230 }
  - { offsetInCU: 0x13DB7, offset: 0x1273A6, size: 0x8, addend: 0x0, symName: '__ZN4core3ptr46drop_in_place$LT$syn..generics..ConstParam$GT$17h8a262f238ef941e4E', symObjAddr: 0x4D70, symBinAddr: 0x3AEF0, symSize: 0x150 }
  - { offsetInCU: 0x141E1, offset: 0x1277D0, size: 0x8, addend: 0x0, symName: '__ZN4core3ptr47drop_in_place$LT$syn..path..GenericArgument$GT$17h160c38ee261939cdE', symObjAddr: 0x4EC0, symBinAddr: 0x3B040, symSize: 0x460 }
  - { offsetInCU: 0x14EEA, offset: 0x1284D9, size: 0x8, addend: 0x0, symName: '__ZN4core3ptr49drop_in_place$LT$syn..generics..LifetimeParam$GT$17h313054da53e69355E', symObjAddr: 0x5320, symBinAddr: 0x3B4A0, symSize: 0xF0 }
  - { offsetInCU: 0x152A4, offset: 0x128893, size: 0x8, addend: 0x0, symName: '__ZN4core3ptr49drop_in_place$LT$syn..restriction..Visibility$GT$17ha917b3b59ff025c8E', symObjAddr: 0x5410, symBinAddr: 0x3B590, symSize: 0x60 }
  - { offsetInCU: 0x15427, offset: 0x128A16, size: 0x8, addend: 0x0, symName: '__ZN4core3ptr50drop_in_place$LT$syn..generics..TypeParamBound$GT$17h9c7c622140c9da06E', symObjAddr: 0x5470, symBinAddr: 0x3B5F0, symSize: 0xA0 }
  - { offsetInCU: 0x1558E, offset: 0x128B7D, size: 0x8, addend: 0x0, symName: '__ZN4core3ptr58drop_in_place$LT$alloc..vec..Vec$LT$syn..expr..Arm$GT$$GT$17h6b1948b8db2bce6fE', symObjAddr: 0x5510, symBinAddr: 0x3B690, symSize: 0xD0 }
  - { offsetInCU: 0x1581B, offset: 0x128E0A, size: 0x8, addend: 0x0, symName: '__ZN4core3ptr59drop_in_place$LT$alloc..boxed..Box$LT$syn..pat..Pat$GT$$GT$17h83e3a97283934866E', symObjAddr: 0x55E0, symBinAddr: 0x3B760, symSize: 0x50 }
  - { offsetInCU: 0x15976, offset: 0x128F65, size: 0x8, addend: 0x0, symName: '__ZN4core3ptr59drop_in_place$LT$alloc..boxed..Box$LT$syn..ty..Type$GT$$GT$17h68f3d7ce8ae82e1fE', symObjAddr: 0x5630, symBinAddr: 0x3B7B0, symSize: 0x50 }
  - { offsetInCU: 0x15AD1, offset: 0x1290C0, size: 0x8, addend: 0x0, symName: '__ZN4core3ptr61drop_in_place$LT$alloc..boxed..Box$LT$syn..expr..Expr$GT$$GT$17hf2473b11b850ff26E', symObjAddr: 0x5680, symBinAddr: 0x3B800, symSize: 0x50 }
  - { offsetInCU: 0x15C2C, offset: 0x12921B, size: 0x8, addend: 0x0, symName: '__ZN4core3ptr61drop_in_place$LT$syn..path..ParenthesizedGenericArguments$GT$17h7974c08710945203E', symObjAddr: 0x56D0, symBinAddr: 0x3B850, symSize: 0x170 }
  - { offsetInCU: 0x16206, offset: 0x1297F5, size: 0x8, addend: 0x0, symName: '__ZN4core3ptr63drop_in_place$LT$alloc..boxed..Box$LT$syn..lit..LitRepr$GT$$GT$17he43f62a182548d62E', symObjAddr: 0x5840, symBinAddr: 0x3B9C0, symSize: 0x60 }
  - { offsetInCU: 0x164FB, offset: 0x129AEA, size: 0x8, addend: 0x0, symName: '__ZN4core3ptr64drop_in_place$LT$alloc..boxed..Box$LT$syn..pat..FieldPat$GT$$GT$17h5d6f4e3f334c4f1cE', symObjAddr: 0x58A0, symBinAddr: 0x3BA20, symSize: 0x140 }
  - { offsetInCU: 0x16BA6, offset: 0x12A195, size: 0x8, addend: 0x0, symName: '__ZN4core3ptr64drop_in_place$LT$alloc..boxed..Box$LT$syn..ty..BareFnArg$GT$$GT$17hbaf5e7b0829d1c6eE', symObjAddr: 0x59E0, symBinAddr: 0x3BB60, symSize: 0x140 }
  - { offsetInCU: 0x170CA, offset: 0x12A6B9, size: 0x8, addend: 0x0, symName: '__ZN4core3ptr65drop_in_place$LT$core..option..Option$LT$syn..expr..Label$GT$$GT$17h35210e246cc7075eE', symObjAddr: 0x5B20, symBinAddr: 0x3BCA0, symSize: 0x30 }
  - { offsetInCU: 0x17205, offset: 0x12A7F4, size: 0x8, addend: 0x0, symName: '__ZN4core3ptr66drop_in_place$LT$core..option..Option$LT$syn..pat..PatRest$GT$$GT$17h109d2742695cbaddE', symObjAddr: 0x5B50, symBinAddr: 0x3BCD0, symSize: 0xE0 }
  - { offsetInCU: 0x17489, offset: 0x12AA78, size: 0x8, addend: 0x0, symName: '__ZN4core3ptr67drop_in_place$LT$alloc..boxed..Box$LT$syn..expr..FieldValue$GT$$GT$17h61a24e2077549ea3E', symObjAddr: 0x5C30, symBinAddr: 0x3BDB0, symSize: 0x140 }
  - { offsetInCU: 0x179AC, offset: 0x12AF9B, size: 0x8, addend: 0x0, symName: '__ZN4core3ptr70drop_in_place$LT$core..option..Option$LT$syn..ty..BareVariadic$GT$$GT$17h94f3f521ec008aa3E', symObjAddr: 0x5D70, symBinAddr: 0x3BEF0, symSize: 0x120 }
  - { offsetInCU: 0x17ED9, offset: 0x12B4C8, size: 0x8, addend: 0x0, symName: '__ZN4core3ptr72drop_in_place$LT$alloc..boxed..Box$LT$syn..path..GenericArgument$GT$$GT$17h868ea88692b0c422E', symObjAddr: 0x5E90, symBinAddr: 0x3C010, symSize: 0x2B0 }
  - { offsetInCU: 0x188C4, offset: 0x12BEB3, size: 0x8, addend: 0x0, symName: '__ZN4core3ptr72drop_in_place$LT$core..option..Option$LT$syn..lifetime..Lifetime$GT$$GT$17h7e95c58181ab0653E', symObjAddr: 0x6140, symBinAddr: 0x3C2C0, symSize: 0x30 }
  - { offsetInCU: 0x189E0, offset: 0x12BFCF, size: 0x8, addend: 0x0, symName: '__ZN4core3ptr73drop_in_place$LT$alloc..boxed..Box$LT$syn..generics..GenericParam$GT$$GT$17hc215c6e1b028b324E', symObjAddr: 0x6170, symBinAddr: 0x3C2F0, symSize: 0x80 }
  - { offsetInCU: 0x18B58, offset: 0x12C147, size: 0x8, addend: 0x0, symName: '__ZN4core3ptr75drop_in_place$LT$alloc..boxed..Box$LT$syn..generics..TypeParamBound$GT$$GT$17h62e5847596683f18E', symObjAddr: 0x61F0, symBinAddr: 0x3C370, symSize: 0x160 }
  - { offsetInCU: 0x1911E, offset: 0x12C70D, size: 0x8, addend: 0x0, symName: '__ZN4core3ptr86drop_in_place$LT$syn..punctuated..Punctuated$LT$syn..pat..Pat$C$syn..token..Or$GT$$GT$17hfc7ff3c167a59e94E', symObjAddr: 0x6350, symBinAddr: 0x3C4D0, symSize: 0x120 }
  - { offsetInCU: 0x19564, offset: 0x12CB53, size: 0x8, addend: 0x0, symName: '__ZN4core3ptr87drop_in_place$LT$core..option..Option$LT$alloc..boxed..Box$LT$syn..pat..Pat$GT$$GT$$GT$17h3766593dbbf17f07E', symObjAddr: 0x6470, symBinAddr: 0x3C5F0, symSize: 0x50 }
  - { offsetInCU: 0x196D6, offset: 0x12CCC5, size: 0x8, addend: 0x0, symName: '__ZN4core3ptr87drop_in_place$LT$core..option..Option$LT$alloc..boxed..Box$LT$syn..ty..Type$GT$$GT$$GT$17h9b8fd27e5577387cE', symObjAddr: 0x64C0, symBinAddr: 0x3C640, symSize: 0x50 }
  - { offsetInCU: 0x19867, offset: 0x12CE56, size: 0x8, addend: 0x0, symName: '__ZN4core3ptr89drop_in_place$LT$$LP$syn..expr..Member$C$syn_derive..FieldAttr$C$syn..data..Field$RP$$GT$17h1e135d6dc07370b4E.llvm.5988412005844948852', symObjAddr: 0x6510, symBinAddr: 0x3C690, symSize: 0x90 }
  - { offsetInCU: 0x19BAD, offset: 0x12D19C, size: 0x8, addend: 0x0, symName: '__ZN4core3ptr89drop_in_place$LT$core..option..Option$LT$alloc..boxed..Box$LT$syn..expr..Expr$GT$$GT$$GT$17h52dcbcaaf583ff0cE', symObjAddr: 0x65A0, symBinAddr: 0x3C720, symSize: 0x50 }
  - { offsetInCU: 0x19D5D, offset: 0x12D34C, size: 0x8, addend: 0x0, symName: '__ZN4core3ptr89drop_in_place$LT$syn..punctuated..Punctuated$LT$syn..pat..Pat$C$syn..token..Comma$GT$$GT$17ha11cb7ffbf8adb93E', symObjAddr: 0x65F0, symBinAddr: 0x3C770, symSize: 0x120 }
  - { offsetInCU: 0x1A1F8, offset: 0x12D7E7, size: 0x8, addend: 0x0, symName: '__ZN4core3ptr91drop_in_place$LT$syn..punctuated..Punctuated$LT$syn..expr..Expr$C$syn..token..Comma$GT$$GT$17he59a897140a45010E', symObjAddr: 0x6710, symBinAddr: 0x3C890, symSize: 0x120 }
  - { offsetInCU: 0x1A655, offset: 0x12DC44, size: 0x8, addend: 0x0, symName: '__ZN4core3ptr94drop_in_place$LT$syn..punctuated..Punctuated$LT$syn..pat..FieldPat$C$syn..token..Comma$GT$$GT$17hf15d1d73808e7756E', symObjAddr: 0x6830, symBinAddr: 0x3C9B0, symSize: 0xF0 }
  - { offsetInCU: 0x1A91F, offset: 0x12DF0E, size: 0x8, addend: 0x0, symName: '__ZN4core3ptr94drop_in_place$LT$syn..punctuated..Punctuated$LT$syn..ty..BareFnArg$C$syn..token..Comma$GT$$GT$17hb18255224b06a811E', symObjAddr: 0x6920, symBinAddr: 0x3CAA0, symSize: 0xF0 }
  - { offsetInCU: 0x1ABE9, offset: 0x12E1D8, size: 0x8, addend: 0x0, symName: '__ZN4core3ptr96drop_in_place$LT$core..option..Option$LT$alloc..boxed..Box$LT$syn..path..PathSegment$GT$$GT$$GT$17h3989ab6e08ac68c4E', symObjAddr: 0x6A10, symBinAddr: 0x3CB90, symSize: 0x180 }
  - { offsetInCU: 0x1B27A, offset: 0x12E869, size: 0x8, addend: 0x0, symName: '__ZN4core3ptr97drop_in_place$LT$syn..punctuated..Punctuated$LT$syn..expr..FieldValue$C$syn..token..Comma$GT$$GT$17hb048018f44a756c3E', symObjAddr: 0x6B90, symBinAddr: 0x3CD10, symSize: 0xF0 }
  - { offsetInCU: 0x1B5C0, offset: 0x12EBAF, size: 0x8, addend: 0x0, symName: '__ZN4core3ptr98drop_in_place$LT$syn..punctuated..Punctuated$LT$syn..lifetime..Lifetime$C$syn..token..Plus$GT$$GT$17hfad1276e02bd5dc6E', symObjAddr: 0x6C80, symBinAddr: 0x3CE00, symSize: 0xC0 }
  - { offsetInCU: 0x24F5D, offset: 0x13854C, size: 0x8, addend: 0x0, symName: '__ZN4core4iter8adapters8peekable17Peekable$LT$I$GT$7next_if17h0d2a51834ebc2d41E', symObjAddr: 0x6D40, symBinAddr: 0x3CEC0, symSize: 0x219 }
  - { offsetInCU: 0x1E, offset: 0x13A626, size: 0x8, addend: 0x0, symName: '__ZN100_$LT$syn..punctuated..PrivateIter$LT$T$C$P$GT$$u20$as$u20$core..iter..traits..iterator..Iterator$GT$4next17h346181f65dc5e67cE.llvm.15846214512356429855', symObjAddr: 0x0, symBinAddr: 0x3D0E0, symSize: 0x30 }
  - { offsetInCU: 0x4B5, offset: 0x13AABD, size: 0x8, addend: 0x0, symName: '__ZN100_$LT$syn..punctuated..PrivateIter$LT$T$C$P$GT$$u20$as$u20$core..iter..traits..iterator..Iterator$GT$4next17h346181f65dc5e67cE.llvm.15846214512356429855', symObjAddr: 0x0, symBinAddr: 0x3D0E0, symSize: 0x30 }
  - { offsetInCU: 0x1E, offset: 0x143BD3, size: 0x8, addend: 0x0, symName: __ZN3syn4attr9Attribute15parse_args_with17h584879ca44135b30E, symObjAddr: 0x0, symBinAddr: 0x3D110, symSize: 0x340 }
  - { offsetInCU: 0x9988, offset: 0x14D53D, size: 0x8, addend: 0x0, symName: __ZN3syn4attr9Attribute15parse_args_with17h584879ca44135b30E, symObjAddr: 0x0, symBinAddr: 0x3D110, symSize: 0x340 }
  - { offsetInCU: 0xA68B, offset: 0x14E240, size: 0x8, addend: 0x0, symName: __ZN3syn4attr9Attribute15parse_args_with17h5c36399ef808c611E, symObjAddr: 0x340, symBinAddr: 0x3D450, symSize: 0x360 }
  - { offsetInCU: 0xB3D6, offset: 0x14EF8B, size: 0x8, addend: 0x0, symName: __ZN3syn4attr9Attribute15parse_args_with17h7a5f041e4dba0c60E, symObjAddr: 0x6A0, symBinAddr: 0x3D7B0, symSize: 0x340 }
  - { offsetInCU: 0xC0C2, offset: 0x14FC77, size: 0x8, addend: 0x0, symName: __ZN3syn4attr9Attribute15parse_args_with17h8212d02a2db0a43cE, symObjAddr: 0x9E0, symBinAddr: 0x3DAF0, symSize: 0x360 }
  - { offsetInCU: 0xCDC7, offset: 0x15097C, size: 0x8, addend: 0x0, symName: __ZN3syn4attr9Attribute15parse_args_with17hcf50c2a101bd9e92E, symObjAddr: 0xD40, symBinAddr: 0x3DE50, symSize: 0x35F }
  - { offsetInCU: 0x1E, offset: 0x151FF8, size: 0x8, addend: 0x0, symName: __ZN16proc_macro_error11entry_point17h8b84eb24471f1b8cE, symObjAddr: 0x0, symBinAddr: 0x3E1B0, symSize: 0x2F0 }
  - { offsetInCU: 0x37E, offset: 0x152358, size: 0x8, addend: 0x0, symName: '__ZN16proc_macro_error11entry_point28_$u7b$$u7b$closure$u7d$$u7d$17h3c2b05be0c050e7fE', symObjAddr: 0x5E0, symBinAddr: 0x3E790, symSize: 0x310 }
  - { offsetInCU: 0x87F, offset: 0x152859, size: 0x8, addend: 0x0, symName: __ZN16proc_macro_error11entry_point17h8b84eb24471f1b8cE, symObjAddr: 0x0, symBinAddr: 0x3E1B0, symSize: 0x2F0 }
  - { offsetInCU: 0x11D8, offset: 0x1531B2, size: 0x8, addend: 0x0, symName: __ZN16proc_macro_error11entry_point17ha0e68dfab8add4bdE, symObjAddr: 0x2F0, symBinAddr: 0x3E4A0, symSize: 0x2F0 }
  - { offsetInCU: 0x2A7C, offset: 0x154A56, size: 0x8, addend: 0x0, symName: '__ZN4core3ptr45drop_in_place$LT$proc_macro2..TokenStream$GT$17ha9e262056121263eE', symObjAddr: 0x8F0, symBinAddr: 0x3EAA0, symSize: 0x140 }
  - { offsetInCU: 0x2EAD, offset: 0x154E87, size: 0x8, addend: 0x0, symName: '__ZN4core3ptr84drop_in_place$LT$alloc..vec..Vec$LT$proc_macro_error..diagnostic..Diagnostic$GT$$GT$17h0dc97c141e5f390fE', symObjAddr: 0xA30, symBinAddr: 0x3EBE0, symSize: 0xC0 }
  - { offsetInCU: 0x313A, offset: 0x155114, size: 0x8, addend: 0x0, symName: '__ZN4core3ptr91drop_in_place$LT$alloc..boxed..Box$LT$dyn$u20$core..any..Any$u2b$core..marker..Send$GT$$GT$17ha85189eb6ed9c516E', symObjAddr: 0xAF0, symBinAddr: 0x3ECA0, symSize: 0x5C }
  - { offsetInCU: 0x858, offset: 0x157D1C, size: 0x8, addend: 0x0, symName: '__ZN68_$LT$$RF$str$u20$as$u20$proc_macro..bridge..rpc..Encode$LT$S$GT$$GT$6encode17ha4ae060c1ea5552aE', symObjAddr: 0x70, symBinAddr: 0x3ED00, symSize: 0x330 }
  - { offsetInCU: 0x1E, offset: 0x158554, size: 0x8, addend: 0x0, symName: '__ZN3std3sys6common12thread_local10fast_local12Key$LT$T$GT$14try_initialize17h14ee0285ce2f6b6bE.llvm.631417382233700263', symObjAddr: 0x0, symBinAddr: 0x3F030, symSize: 0x40 }
  - { offsetInCU: 0x466, offset: 0x15899C, size: 0x8, addend: 0x0, symName: __ZN3std3sys6common12thread_local10fast_local13destroy_value17h8b43fbe80a708dbfE, symObjAddr: 0x1D0, symBinAddr: 0x3F1C0, symSize: 0xE0 }
  - { offsetInCU: 0x1014, offset: 0x15954A, size: 0x8, addend: 0x0, symName: '__ZN4core3ptr81drop_in_place$LT$core..result..Result$LT$$LP$$RP$$C$std..io..error..Error$GT$$GT$17hda4f78ccc7d6ceb5E', symObjAddr: 0x2B0, symBinAddr: 0x3F2A0, symSize: 0xA5 }
  - { offsetInCU: 0x19D7, offset: 0x159F0D, size: 0x8, addend: 0x0, symName: '__ZN3std3sys6common12thread_local10fast_local12Key$LT$T$GT$14try_initialize17h14ee0285ce2f6b6bE.llvm.631417382233700263', symObjAddr: 0x0, symBinAddr: 0x3F030, symSize: 0x40 }
  - { offsetInCU: 0x1F51, offset: 0x15A487, size: 0x8, addend: 0x0, symName: '__ZN3std3sys6common12thread_local10fast_local12Key$LT$T$GT$14try_initialize17h7be71f481b995313E.llvm.631417382233700263', symObjAddr: 0x40, symBinAddr: 0x3F070, symSize: 0x150 }
  - { offsetInCU: 0x1E, offset: 0x15BCA4, size: 0x8, addend: 0x0, symName: __ZN4core3fmt5Write10write_char17h7634405519b6fcb7E, symObjAddr: 0x0, symBinAddr: 0x3F350, symSize: 0x100 }
  - { offsetInCU: 0xC8, offset: 0x15BD4E, size: 0x8, addend: 0x0, symName: '__ZN80_$LT$std..io..Write..write_fmt..Adapter$LT$T$GT$$u20$as$u20$core..fmt..Write$GT$9write_str17h8008615d47fc732aE', symObjAddr: 0x1E0, symBinAddr: 0x3F530, symSize: 0x3E }
  - { offsetInCU: 0x9F7, offset: 0x15C67D, size: 0x8, addend: 0x0, symName: '__ZN4core3ptr81drop_in_place$LT$core..result..Result$LT$$LP$$RP$$C$std..io..error..Error$GT$$GT$17hda4f78ccc7d6ceb5E', symObjAddr: 0x120, symBinAddr: 0x3F470, symSize: 0xB0 }
  - { offsetInCU: 0xE69, offset: 0x15CAEF, size: 0x8, addend: 0x0, symName: '__ZN4core3ptr92drop_in_place$LT$std..io..Write..write_fmt..Adapter$LT$std..sys..unix..stdio..Stderr$GT$$GT$17h8dbb6806a43c6a42E', symObjAddr: 0x1D0, symBinAddr: 0x3F520, symSize: 0x10 }
  - { offsetInCU: 0xFEF, offset: 0x15CC75, size: 0x8, addend: 0x0, symName: __ZN4core3fmt5Write10write_char17h7634405519b6fcb7E, symObjAddr: 0x0, symBinAddr: 0x3F350, symSize: 0x100 }
  - { offsetInCU: 0x1158, offset: 0x15CDDE, size: 0x8, addend: 0x0, symName: __ZN4core3fmt5Write9write_fmt17hfb273eea92127288E, symObjAddr: 0x100, symBinAddr: 0x3F450, symSize: 0x20 }
  - { offsetInCU: 0x1E, offset: 0x15D54F, size: 0x8, addend: 0x0, symName: __ZN3std2io5Write9write_all17hcf3ce6f55c65f531E, symObjAddr: 0x0, symBinAddr: 0x3F570, symSize: 0xF0 }
  - { offsetInCU: 0x35, offset: 0x15D566, size: 0x8, addend: 0x0, symName: _anon.8638a02162476d5196b43a08dfe12814.6.llvm.4145778298712724105, symObjAddr: 0x328, symBinAddr: 0x2684D0, symSize: 0x0 }
  - { offsetInCU: 0xE5, offset: 0x15D616, size: 0x8, addend: 0x0, symName: __ZN3std2io5Write9write_all17hcf3ce6f55c65f531E, symObjAddr: 0x0, symBinAddr: 0x3F570, symSize: 0xF0 }
  - { offsetInCU: 0x361, offset: 0x15D892, size: 0x8, addend: 0x0, symName: __ZN3std2io5Write9write_fmt17hdfe5f617fd18cb17E, symObjAddr: 0xF0, symBinAddr: 0x3F660, symSize: 0x90 }
  - { offsetInCU: 0x141F, offset: 0x15E950, size: 0x8, addend: 0x0, symName: '__ZN4core3ptr42drop_in_place$LT$std..io..error..Error$GT$17h308350bc331c8d90E.llvm.4145778298712724105', symObjAddr: 0x180, symBinAddr: 0x3F6F0, symSize: 0xA0 }
  - { offsetInCU: 0x1883, offset: 0x15EDB4, size: 0x8, addend: 0x0, symName: '__ZN4core3ptr92drop_in_place$LT$std..io..Write..write_fmt..Adapter$LT$std..sys..unix..stdio..Stderr$GT$$GT$17h8dbb6806a43c6a42E.llvm.4145778298712724105', symObjAddr: 0x220, symBinAddr: 0x3F790, symSize: 0x15 }
  - { offsetInCU: 0x1E, offset: 0x15F772, size: 0x8, addend: 0x0, symName: '__ZN4core3ptr43drop_in_place$LT$syn..parse..Unexpected$GT$17h4d0405474092ca50E.llvm.16296927589145695179', symObjAddr: 0x0, symBinAddr: 0x3F7B0, symSize: 0x50 }
  - { offsetInCU: 0xB35, offset: 0x160289, size: 0x8, addend: 0x0, symName: '__ZN4core3ptr43drop_in_place$LT$syn..parse..Unexpected$GT$17h4d0405474092ca50E.llvm.16296927589145695179', symObjAddr: 0x0, symBinAddr: 0x3F7B0, symSize: 0x50 }
  - { offsetInCU: 0x15FE, offset: 0x160D52, size: 0x8, addend: 0x0, symName: '__ZN68_$LT$alloc..rc..Rc$LT$T$C$A$GT$$u20$as$u20$core..ops..drop..Drop$GT$4drop17h12e011f288c3bcf1E', symObjAddr: 0x160, symBinAddr: 0x3F800, symSize: 0x40 }
  - { offsetInCU: 0x1890, offset: 0x160FE4, size: 0x8, addend: 0x0, symName: '__ZN68_$LT$alloc..rc..Rc$LT$T$C$A$GT$$u20$as$u20$core..ops..drop..Drop$GT$4drop17hcb9f92d69da59b62E', symObjAddr: 0x1A0, symBinAddr: 0x3F840, symSize: 0x30 }
  - { offsetInCU: 0x1B04, offset: 0x161258, size: 0x8, addend: 0x0, symName: '__ZN68_$LT$alloc..rc..Rc$LT$T$C$A$GT$$u20$as$u20$core..ops..drop..Drop$GT$4drop17hce57581ad1c0eecbE', symObjAddr: 0x1D0, symBinAddr: 0x3F870, symSize: 0xDE }
  - { offsetInCU: 0x1E, offset: 0x162535, size: 0x8, addend: 0x0, symName: '__ZN10proc_macro6bridge11scoped_cell19ScopedCell$LT$T$GT$7replace17h522f230c1095f3b7E', symObjAddr: 0x0, symBinAddr: 0x3F950, symSize: 0x0 }
  - { offsetInCU: 0x582, offset: 0x162A99, size: 0x8, addend: 0x0, symName: '__ZN4core3ptr145drop_in_place$LT$proc_macro..bridge..scoped_cell..ScopedCell$LT$T$GT$..replace..PutBackOnDrop$LT$proc_macro..bridge..client..BridgeStateL$GT$$GT$17h96f030db9578487fE.llvm.13781469736112966875', symObjAddr: 0x8F0, symBinAddr: 0x40240, symSize: 0xBA }
  - { offsetInCU: 0x1AA0, offset: 0x163FB7, size: 0x8, addend: 0x0, symName: '__ZN10proc_macro6bridge11scoped_cell19ScopedCell$LT$T$GT$7replace17h522f230c1095f3b7E', symObjAddr: 0x0, symBinAddr: 0x3F950, symSize: 0x0 }
  - { offsetInCU: 0x208A, offset: 0x1645A1, size: 0x8, addend: 0x0, symName: '__ZN10proc_macro6bridge11scoped_cell19ScopedCell$LT$T$GT$7replace17h9e52dd625a0b5b35E', symObjAddr: 0x1D0, symBinAddr: 0x3FB20, symSize: 0x390 }
  - { offsetInCU: 0x2998, offset: 0x164EAF, size: 0x8, addend: 0x0, symName: '__ZN10proc_macro6bridge11scoped_cell19ScopedCell$LT$T$GT$7replace17hf3a1f1e9219e3920E', symObjAddr: 0x560, symBinAddr: 0x3FEB0, symSize: 0x390 }
  - { offsetInCU: 0x1E, offset: 0x165E1E, size: 0x8, addend: 0x0, symName: '__ZN120_$LT$proc_macro2..fallback..TokenStream$u20$as$u20$core..iter..traits..collect..Extend$LT$proc_macro2..TokenTree$GT$$GT$6extend17h0dd20888d9a050b3E', symObjAddr: 0x0, symBinAddr: 0x40300, symSize: 0x270 }
  - { offsetInCU: 0x918, offset: 0x166718, size: 0x8, addend: 0x0, symName: '__ZN120_$LT$proc_macro2..fallback..TokenStream$u20$as$u20$core..iter..traits..collect..Extend$LT$proc_macro2..TokenTree$GT$$GT$6extend17h0dd20888d9a050b3E', symObjAddr: 0x0, symBinAddr: 0x40300, symSize: 0x270 }
  - { offsetInCU: 0x1837, offset: 0x167637, size: 0x8, addend: 0x0, symName: '__ZN4core3ptr45drop_in_place$LT$proc_macro2..TokenStream$GT$17ha9e262056121263eE', symObjAddr: 0x270, symBinAddr: 0x40570, symSize: 0x140 }
  - { offsetInCU: 0x35, offset: 0x169184, size: 0x8, addend: 0x0, symName: _anon.594919875a5a8dc711f383f0a343336f.0.llvm.11230403322034732451, symObjAddr: 0x8A0, symBinAddr: 0x268580, symSize: 0x0 }
  - { offsetInCU: 0x18E, offset: 0x1692DD, size: 0x8, addend: 0x0, symName: '__ZN58_$LT$alloc..string..String$u20$as$u20$core..fmt..Write$GT$10write_char17hd329c0cb943f081aE.llvm.11230403322034732451', symObjAddr: 0x420, symBinAddr: 0x40860, symSize: 0x130 }
  - { offsetInCU: 0x536, offset: 0x169685, size: 0x8, addend: 0x0, symName: '__ZN58_$LT$alloc..string..String$u20$as$u20$core..fmt..Write$GT$9write_str17h1ff5aa96ca91c6d5E.llvm.11230403322034732451', symObjAddr: 0x550, symBinAddr: 0x40990, symSize: 0x60 }
  - { offsetInCU: 0xEEE, offset: 0x16A03D, size: 0x8, addend: 0x0, symName: '__ZN4core3ptr37drop_in_place$LT$core..fmt..Error$GT$17h2af2debf26684882E.llvm.11230403322034732451', symObjAddr: 0x350, symBinAddr: 0x40790, symSize: 0x10 }
  - { offsetInCU: 0xF58, offset: 0x16A0A7, size: 0x8, addend: 0x0, symName: '__ZN4core3ptr38drop_in_place$LT$syn..error..Error$GT$17h88d123ccf66c02bdE.llvm.11230403322034732451', symObjAddr: 0x360, symBinAddr: 0x407A0, symSize: 0x80 }
  - { offsetInCU: 0x1216, offset: 0x16A365, size: 0x8, addend: 0x0, symName: '__ZN4core3ptr42drop_in_place$LT$alloc..string..String$GT$17h6e779f443a80eeafE.llvm.11230403322034732451', symObjAddr: 0x3E0, symBinAddr: 0x40820, symSize: 0x20 }
  - { offsetInCU: 0x1586, offset: 0x16A6D5, size: 0x8, addend: 0x0, symName: '__ZN53_$LT$core..fmt..Error$u20$as$u20$core..fmt..Debug$GT$3fmt17h43ae5cec9623af13E.llvm.11230403322034732451', symObjAddr: 0x400, symBinAddr: 0x40840, symSize: 0x20 }
  - { offsetInCU: 0x1999, offset: 0x16AAE8, size: 0x8, addend: 0x0, symName: _anon.594919875a5a8dc711f383f0a343336f.5.llvm.11230403322034732451, symObjAddr: 0x8E8, symBinAddr: 0x2685C8, symSize: 0x0 }
  - { offsetInCU: 0x1EE9, offset: 0x16B038, size: 0x8, addend: 0x0, symName: __ZN3syn5error5Error3new17h91c0877d69199c83E, symObjAddr: 0x270, symBinAddr: 0x406B0, symSize: 0xE0 }
  - { offsetInCU: 0x2426, offset: 0x16B575, size: 0x8, addend: 0x0, symName: '__ZN54_$LT$syn..error..Error$u20$as$u20$syn_derive..Emit$GT$4emit17h20ad43cde37a6fabE', symObjAddr: 0x5B0, symBinAddr: 0x409F0, symSize: 0x263 }
  - { offsetInCU: 0x1E, offset: 0x16CAEB, size: 0x8, addend: 0x0, symName: '__ZN4core3ptr43drop_in_place$LT$proc_macro2..TokenTree$GT$17hc329c0af4ce02b97E.llvm.8145739461500037406', symObjAddr: 0x0, symBinAddr: 0x40C60, symSize: 0xB0 }
  - { offsetInCU: 0xE42, offset: 0x16D90F, size: 0x8, addend: 0x0, symName: '__ZN4core3ptr43drop_in_place$LT$proc_macro2..TokenTree$GT$17hc329c0af4ce02b97E.llvm.8145739461500037406', symObjAddr: 0x0, symBinAddr: 0x40C60, symSize: 0xB0 }
  - { offsetInCU: 0x18CC, offset: 0x16E399, size: 0x8, addend: 0x0, symName: '__ZN86_$LT$alloc..vec..into_iter..IntoIter$LT$T$C$A$GT$$u20$as$u20$core..ops..drop..Drop$GT$4drop17h2412028989ca78dfE', symObjAddr: 0xB0, symBinAddr: 0x40D10, symSize: 0xF0 }
  - { offsetInCU: 0x1C3E, offset: 0x16E70B, size: 0x8, addend: 0x0, symName: '__ZN86_$LT$alloc..vec..into_iter..IntoIter$LT$T$C$A$GT$$u20$as$u20$core..ops..drop..Drop$GT$4drop17hafee348cd01d0bb8E', symObjAddr: 0x1A0, symBinAddr: 0x40E00, symSize: 0xCD }
  - { offsetInCU: 0x35, offset: 0x16F3C3, size: 0x8, addend: 0x0, symName: _anon.38efac189c021f7dd24dc53c1f724141.3.llvm.15345393987408393250, symObjAddr: 0x820, symBinAddr: 0x268600, symSize: 0x0 }
  - { offsetInCU: 0x3AE, offset: 0x16F73C, size: 0x8, addend: 0x0, symName: __ZN10proc_macro6bridge6client10run_client17h26fa588758bb9eb1E, symObjAddr: 0x210, symBinAddr: 0x40ED0, symSize: 0x1B0 }
  - { offsetInCU: 0x6BB, offset: 0x16FA49, size: 0x8, addend: 0x0, symName: __ZN10proc_macro6bridge6client10run_client17h3fca2fe7d4474ebcE, symObjAddr: 0x3C0, symBinAddr: 0x41080, symSize: 0x1B0 }
  - { offsetInCU: 0xBDA, offset: 0x16FF68, size: 0x8, addend: 0x0, symName: '__ZN4core3ptr52drop_in_place$LT$std..thread..local..AccessError$GT$17h3159bb4a23024441E.llvm.15345393987408393250', symObjAddr: 0x710, symBinAddr: 0x41230, symSize: 0x6 }
  - { offsetInCU: 0x1E, offset: 0x1706BB, size: 0x8, addend: 0x0, symName: __ZN4core3fmt5Write9write_fmt17hb1ebad532ef9d016E, symObjAddr: 0x0, symBinAddr: 0x41240, symSize: 0x20 }
  - { offsetInCU: 0x89, offset: 0x170726, size: 0x8, addend: 0x0, symName: '__ZN58_$LT$alloc..string..String$u20$as$u20$core..fmt..Write$GT$10write_char17hd329c0cb943f081aE', symObjAddr: 0x40, symBinAddr: 0x41280, symSize: 0x130 }
  - { offsetInCU: 0x430, offset: 0x170ACD, size: 0x8, addend: 0x0, symName: '__ZN58_$LT$alloc..string..String$u20$as$u20$core..fmt..Write$GT$9write_str17h1ff5aa96ca91c6d5E', symObjAddr: 0x170, symBinAddr: 0x413B0, symSize: 0x5B }
  - { offsetInCU: 0x956, offset: 0x170FF3, size: 0x8, addend: 0x0, symName: '__ZN4core3ptr42drop_in_place$LT$alloc..string..String$GT$17h6e779f443a80eeafE', symObjAddr: 0x20, symBinAddr: 0x41260, symSize: 0x20 }
  - { offsetInCU: 0xC0C, offset: 0x1712A9, size: 0x8, addend: 0x0, symName: __ZN4core3fmt5Write9write_fmt17hb1ebad532ef9d016E, symObjAddr: 0x0, symBinAddr: 0x41240, symSize: 0x20 }
  - { offsetInCU: 0x1E, offset: 0x171D55, size: 0x8, addend: 0x0, symName: '__ZN10proc_macro6bridge100_$LT$impl$u20$proc_macro..bridge..rpc..Encode$LT$S$GT$$u20$for$u20$core..option..Option$LT$T$GT$$GT$6encode17h54082bb1c5c02056E', symObjAddr: 0x0, symBinAddr: 0x41410, symSize: 0x4F0 }
  - { offsetInCU: 0x82C, offset: 0x172563, size: 0x8, addend: 0x0, symName: '__ZN10proc_macro6bridge100_$LT$impl$u20$proc_macro..bridge..rpc..Encode$LT$S$GT$$u20$for$u20$core..option..Option$LT$T$GT$$GT$6encode17h54082bb1c5c02056E', symObjAddr: 0x0, symBinAddr: 0x41410, symSize: 0x4F0 }
  - { offsetInCU: 0x10F6, offset: 0x172E2D, size: 0x8, addend: 0x0, symName: '__ZN10proc_macro6bridge100_$LT$impl$u20$proc_macro..bridge..rpc..Encode$LT$S$GT$$u20$for$u20$core..option..Option$LT$T$GT$$GT$6encode17h78b406a96b47d2fdE', symObjAddr: 0x4F0, symBinAddr: 0x41900, symSize: 0x370 }
  - { offsetInCU: 0x2288, offset: 0x173FBF, size: 0x8, addend: 0x0, symName: __ZN5quote9to_tokens8ToTokens17into_token_stream17h4967ceb34442eafaE, symObjAddr: 0x910, symBinAddr: 0x41C70, symSize: 0x110 }
  - { offsetInCU: 0x1E, offset: 0x174AA3, size: 0x8, addend: 0x0, symName: '__ZN10proc_macro6bridge104_$LT$impl$u20$proc_macro..bridge..rpc..Encode$LT$S$GT$$u20$for$u20$core..result..Result$LT$T$C$E$GT$$GT$6encode17h4aa76b86705b37c4E', symObjAddr: 0x0, symBinAddr: 0x41D80, symSize: 0x3B0 }
  - { offsetInCU: 0x192, offset: 0x174C17, size: 0x8, addend: 0x0, symName: '__ZN10proc_macro6bridge104_$LT$impl$u20$proc_macro..bridge..rpc..Encode$LT$S$GT$$u20$for$u20$core..result..Result$LT$T$C$E$GT$$GT$6encode17h4aa76b86705b37c4E', symObjAddr: 0x0, symBinAddr: 0x41D80, symSize: 0x3B0 }
  - { offsetInCU: 0x786, offset: 0x17520B, size: 0x8, addend: 0x0, symName: '__ZN10proc_macro6bridge104_$LT$impl$u20$proc_macro..bridge..rpc..Encode$LT$S$GT$$u20$for$u20$core..result..Result$LT$T$C$E$GT$$GT$6encode17hc11532afd66f2150E', symObjAddr: 0x3B0, symBinAddr: 0x42130, symSize: 0x450 }
  - { offsetInCU: 0x1E, offset: 0x17645E, size: 0x8, addend: 0x0, symName: '__ZN115_$LT$proc_macro2..imp..TokenStream$u20$as$u20$core..iter..traits..collect..Extend$LT$proc_macro2..TokenTree$GT$$GT$6extend17h8e7f0fac96e1153cE', symObjAddr: 0x0, symBinAddr: 0x42580, symSize: 0x110 }
  - { offsetInCU: 0x71F, offset: 0x176B5F, size: 0x8, addend: 0x0, symName: '__ZN115_$LT$proc_macro2..imp..TokenStream$u20$as$u20$core..iter..traits..collect..Extend$LT$proc_macro2..TokenTree$GT$$GT$6extend17h8e7f0fac96e1153cE', symObjAddr: 0x0, symBinAddr: 0x42580, symSize: 0x110 }
  - { offsetInCU: 0x14A2, offset: 0x1778E2, size: 0x8, addend: 0x0, symName: '__ZN4core3ptr56drop_in_place$LT$proc_macro2..token_stream..IntoIter$GT$17hfb993bf1fc40da3aE.llvm.2056985489363058570', symObjAddr: 0x130, symBinAddr: 0x42690, symSize: 0x20 }
  - { offsetInCU: 0x1E, offset: 0x177C2E, size: 0x8, addend: 0x0, symName: __ZN10proc_macro6bridge14selfless_reify31reify_to_extern_c_fn_hrt_bridge7wrapper17h7755b1fb4f60c307E, symObjAddr: 0x0, symBinAddr: 0x426B0, symSize: 0x20 }
  - { offsetInCU: 0x1BC, offset: 0x177DCC, size: 0x8, addend: 0x0, symName: __ZN10proc_macro6bridge14selfless_reify31reify_to_extern_c_fn_hrt_bridge7wrapper17h7755b1fb4f60c307E, symObjAddr: 0x0, symBinAddr: 0x426B0, symSize: 0x20 }
  - { offsetInCU: 0x235, offset: 0x177E45, size: 0x8, addend: 0x0, symName: __ZN10proc_macro6bridge14selfless_reify31reify_to_extern_c_fn_hrt_bridge7wrapper17hcee0ec79dd253d9cE, symObjAddr: 0x20, symBinAddr: 0x426D0, symSize: 0x20 }
  - { offsetInCU: 0x1E, offset: 0x17806D, size: 0x8, addend: 0x0, symName: '__ZN4core3ptr45drop_in_place$LT$proc_macro2..TokenStream$GT$17ha9e262056121263eE.llvm.4896840061847059595', symObjAddr: 0x0, symBinAddr: 0x426F0, symSize: 0x140 }
  - { offsetInCU: 0xA81, offset: 0x178AD0, size: 0x8, addend: 0x0, symName: '__ZN4core3ptr45drop_in_place$LT$proc_macro2..TokenStream$GT$17ha9e262056121263eE.llvm.4896840061847059595', symObjAddr: 0x0, symBinAddr: 0x426F0, symSize: 0x140 }
  - { offsetInCU: 0x80FA, offset: 0x1818F5, size: 0x8, addend: 0x0, symName: __ZN5quote9to_tokens8ToTokens17into_token_stream17hed9b77e4c8b7e624E, symObjAddr: 0xC0, symBinAddr: 0x42830, symSize: 0x10A }
  - { offsetInCU: 0x1E, offset: 0x1823D2, size: 0x8, addend: 0x0, symName: '__ZN4core3ptr45drop_in_place$LT$proc_macro2..TokenStream$GT$17ha9e262056121263eE.llvm.4465128065161482955', symObjAddr: 0x0, symBinAddr: 0x42940, symSize: 0x140 }
  - { offsetInCU: 0xA81, offset: 0x182E35, size: 0x8, addend: 0x0, symName: '__ZN4core3ptr45drop_in_place$LT$proc_macro2..TokenStream$GT$17ha9e262056121263eE.llvm.4465128065161482955', symObjAddr: 0x0, symBinAddr: 0x42940, symSize: 0x140 }
  - { offsetInCU: 0x1E, offset: 0x183B7E, size: 0x8, addend: 0x0, symName: __ZN5quote9to_tokens8ToTokens17into_token_stream17h4dce5bd40c2ca268E, symObjAddr: 0x0, symBinAddr: 0x42A80, symSize: 0x10A }
  - { offsetInCU: 0x906, offset: 0x184466, size: 0x8, addend: 0x0, symName: __ZN5quote9to_tokens8ToTokens17into_token_stream17h4dce5bd40c2ca268E, symObjAddr: 0x0, symBinAddr: 0x42A80, symSize: 0x10A }
  - { offsetInCU: 0x1E, offset: 0x18C71E, size: 0x8, addend: 0x0, symName: '__ZN77_$LT$$LP$A$C$B$RP$$u20$as$u20$proc_macro..bridge..rpc..DecodeMut$LT$S$GT$$GT$6decode17hb349ef45d44a8a47E', symObjAddr: 0x0, symBinAddr: 0x42B90, symSize: 0xD6 }
  - { offsetInCU: 0xB0, offset: 0x18C7B0, size: 0x8, addend: 0x0, symName: '__ZN77_$LT$$LP$A$C$B$RP$$u20$as$u20$proc_macro..bridge..rpc..DecodeMut$LT$S$GT$$GT$6decode17hb349ef45d44a8a47E', symObjAddr: 0x0, symBinAddr: 0x42B90, symSize: 0xD6 }
  - { offsetInCU: 0x1E, offset: 0x18D923, size: 0x8, addend: 0x0, symName: __ZN5alloc7raw_vec11finish_grow17hb20e584f475a6ebcE.llvm.9747426590071639127, symObjAddr: 0x0, symBinAddr: 0x42CC0, symSize: 0xA0 }
  - { offsetInCU: 0x1D53, offset: 0x18F658, size: 0x8, addend: 0x0, symName: __ZN5alloc7raw_vec11finish_grow17hb20e584f475a6ebcE.llvm.9747426590071639127, symObjAddr: 0x0, symBinAddr: 0x42CC0, symSize: 0xA0 }
  - { offsetInCU: 0x24A9, offset: 0x18FDAE, size: 0x8, addend: 0x0, symName: '__ZN5alloc7raw_vec19RawVec$LT$T$C$A$GT$7reserve21do_reserve_and_handle17hb27e566f2d6468a3E', symObjAddr: 0x500, symBinAddr: 0x1FE260, symSize: 0xC0 }
  - { offsetInCU: 0x27FB, offset: 0x190100, size: 0x8, addend: 0x0, symName: '__ZN5alloc7raw_vec19RawVec$LT$T$C$A$GT$7reserve21do_reserve_and_handle17hcf20a96fe3266ca7E', symObjAddr: 0x5C0, symBinAddr: 0x1FE320, symSize: 0xB0 }
  - { offsetInCU: 0x2B3A, offset: 0x19043F, size: 0x8, addend: 0x0, symName: '__ZN77_$LT$alloc..raw_vec..RawVec$LT$T$C$A$GT$$u20$as$u20$core..ops..drop..Drop$GT$4drop17h07469feda5b68accE', symObjAddr: 0x670, symBinAddr: 0x42FB0, symSize: 0x0 }
  - { offsetInCU: 0x2C37, offset: 0x19053C, size: 0x8, addend: 0x0, symName: '__ZN77_$LT$alloc..raw_vec..RawVec$LT$T$C$A$GT$$u20$as$u20$core..ops..drop..Drop$GT$4drop17h9d3ab56f4619f255E', symObjAddr: 0x750, symBinAddr: 0x42FE0, symSize: 0x0 }
  - { offsetInCU: 0x3538, offset: 0x190E3D, size: 0x8, addend: 0x0, symName: '__ZN5alloc7raw_vec19RawVec$LT$T$C$A$GT$16reserve_for_push17h062ceb637db6cec4E', symObjAddr: 0x120, symBinAddr: 0x42D60, symSize: 0xD0 }
  - { offsetInCU: 0x3A09, offset: 0x19130E, size: 0x8, addend: 0x0, symName: '__ZN5alloc7raw_vec19RawVec$LT$T$C$A$GT$16reserve_for_push17h132568221bd4b9afE', symObjAddr: 0x1F0, symBinAddr: 0x42E30, symSize: 0xD0 }
  - { offsetInCU: 0x3ECD, offset: 0x1917D2, size: 0x8, addend: 0x0, symName: '__ZN5alloc7raw_vec19RawVec$LT$T$C$A$GT$16reserve_for_push17h2f9000698605c3d9E', symObjAddr: 0x2C0, symBinAddr: 0x42F00, symSize: 0xB0 }
  - { offsetInCU: 0x1E, offset: 0x191D70, size: 0x8, addend: 0x0, symName: '__ZN4core3ptr43drop_in_place$LT$proc_macro2..TokenTree$GT$17h964db53de0ddcba4E.llvm.12264040332557410981', symObjAddr: 0x0, symBinAddr: 0x43010, symSize: 0x180 }
  - { offsetInCU: 0x14DF, offset: 0x193231, size: 0x8, addend: 0x0, symName: '__ZN4core3ptr43drop_in_place$LT$proc_macro2..TokenTree$GT$17h964db53de0ddcba4E.llvm.12264040332557410981', symObjAddr: 0x0, symBinAddr: 0x43010, symSize: 0x180 }
  - { offsetInCU: 0x1D4B, offset: 0x193A9D, size: 0x8, addend: 0x0, symName: '__ZN4core3ptr55drop_in_place$LT$proc_macro..diagnostic..Diagnostic$GT$17hb37197e569770249E.llvm.12264040332557410981', symObjAddr: 0x180, symBinAddr: 0x43190, symSize: 0x100 }
  - { offsetInCU: 0x386A, offset: 0x1955BC, size: 0x8, addend: 0x0, symName: '__ZN70_$LT$alloc..vec..Vec$LT$T$C$A$GT$$u20$as$u20$core..ops..drop..Drop$GT$4drop17h6d3d036278d464a1E', symObjAddr: 0x8A0, symBinAddr: 0x43620, symSize: 0x90 }
  - { offsetInCU: 0x3990, offset: 0x1956E2, size: 0x8, addend: 0x0, symName: '__ZN70_$LT$alloc..vec..Vec$LT$T$C$A$GT$$u20$as$u20$core..ops..drop..Drop$GT$4drop17hcbfffcc3f78ac0aaE', symObjAddr: 0x980, symBinAddr: 0x436B0, symSize: 0x80 }
  - { offsetInCU: 0x3AAD, offset: 0x1957FF, size: 0x8, addend: 0x0, symName: '__ZN97_$LT$alloc..vec..Vec$LT$T$C$A$GT$$u20$as$u20$alloc..vec..spec_extend..SpecExtend$LT$T$C$I$GT$$GT$11spec_extend17haa1f20cf208ec6dfE', symObjAddr: 0xA00, symBinAddr: 0x43730, symSize: 0x619 }
  - { offsetInCU: 0x4E6B, offset: 0x196BBD, size: 0x8, addend: 0x0, symName: '__ZN67_$LT$alloc..vec..Vec$LT$T$C$A$GT$$u20$as$u20$core..clone..Clone$GT$5clone17h03a990088dac106dE', symObjAddr: 0x3B0, symBinAddr: 0x43290, symSize: 0x390 }
  - { offsetInCU: 0x1E, offset: 0x199FDC, size: 0x8, addend: 0x0, symName: '__ZN3std3sys6common12thread_local10fast_local12Key$LT$T$GT$14try_initialize17h20e2e116d0a0f0c0E.llvm.17108906075719620484', symObjAddr: 0x0, symBinAddr: 0x43D50, symSize: 0x40 }
  - { offsetInCU: 0x4FE, offset: 0x19A4BC, size: 0x8, addend: 0x0, symName: __ZN3std3sys6common12thread_local10fast_local13destroy_value17h96140c0bb4809c5eE, symObjAddr: 0x230, symBinAddr: 0x43F20, symSize: 0x70 }
  - { offsetInCU: 0xE1E, offset: 0x19ADDC, size: 0x8, addend: 0x0, symName: '__ZN4core3ptr81drop_in_place$LT$core..result..Result$LT$$LP$$RP$$C$std..io..error..Error$GT$$GT$17h68f530c9ffe6194dE', symObjAddr: 0x2A0, symBinAddr: 0x43F90, symSize: 0xA5 }
  - { offsetInCU: 0x22DC, offset: 0x19C29A, size: 0x8, addend: 0x0, symName: '__ZN3std3sys6common12thread_local10fast_local12Key$LT$T$GT$14try_initialize17h20e2e116d0a0f0c0E.llvm.17108906075719620484', symObjAddr: 0x0, symBinAddr: 0x43D50, symSize: 0x40 }
  - { offsetInCU: 0x29C5, offset: 0x19C983, size: 0x8, addend: 0x0, symName: '__ZN3std3sys6common12thread_local10fast_local12Key$LT$T$GT$14try_initialize17h21e531fec818c1b6E.llvm.17108906075719620484', symObjAddr: 0x40, symBinAddr: 0x43D90, symSize: 0x160 }
  - { offsetInCU: 0x2D68, offset: 0x19CD26, size: 0x8, addend: 0x0, symName: '__ZN3std3sys6common12thread_local10fast_local12Key$LT$T$GT$14try_initialize17ha0ff253aaba70f7eE.llvm.17108906075719620484', symObjAddr: 0x1A0, symBinAddr: 0x43EF0, symSize: 0x30 }
  - { offsetInCU: 0x494, offset: 0x19E1B9, size: 0x8, addend: 0x0, symName: '__ZN4core3ptr45drop_in_place$LT$proc_macro2..TokenStream$GT$17hc79d0be5522c462fE', symObjAddr: 0x40, symBinAddr: 0x44040, symSize: 0x140 }
  - { offsetInCU: 0x99E, offset: 0x19E6C3, size: 0x8, addend: 0x0, symName: '__ZN4core3ptr61drop_in_place$LT$proc_macro_error..diagnostic..Diagnostic$GT$17h2c65b5bef09b3d39E', symObjAddr: 0x180, symBinAddr: 0x44180, symSize: 0xF0 }
  - { offsetInCU: 0x1BE1, offset: 0x19F906, size: 0x8, addend: 0x0, symName: '__ZN87_$LT$proc_macro_error..diagnostic..Diagnostic$u20$as$u20$quote..to_tokens..ToTokens$GT$9to_tokens14diag_to_tokens17h17a75612ff62b2b9E', symObjAddr: 0xCA0, symBinAddr: 0x443B0, symSize: 0x4F6 }
  - { offsetInCU: 0x33E2, offset: 0x1A1107, size: 0x8, addend: 0x0, symName: '__ZN87_$LT$proc_macro_error..diagnostic..Diagnostic$u20$as$u20$quote..to_tokens..ToTokens$GT$9to_tokens17hd1098ab4928e7229E', symObjAddr: 0xBE0, symBinAddr: 0x442F0, symSize: 0xC0 }
  - { offsetInCU: 0x4155, offset: 0x1A1E7A, size: 0x8, addend: 0x0, symName: __ZN16proc_macro_error10diagnostic10Diagnostic4emit17h07d63da4770c15e9E, symObjAddr: 0x8F0, symBinAddr: 0x44270, symSize: 0x80 }
  - { offsetInCU: 0x1E, offset: 0x1A3A68, size: 0x8, addend: 0x0, symName: __ZN4core3fmt5Write10write_char17h18436ec9d1b244fdE, symObjAddr: 0x0, symBinAddr: 0x448B0, symSize: 0x100 }
  - { offsetInCU: 0xC8, offset: 0x1A3B12, size: 0x8, addend: 0x0, symName: '__ZN80_$LT$std..io..Write..write_fmt..Adapter$LT$T$GT$$u20$as$u20$core..fmt..Write$GT$9write_str17h34dcd72983cf70eaE', symObjAddr: 0x1E0, symBinAddr: 0x44A90, symSize: 0x3E }
  - { offsetInCU: 0x9F7, offset: 0x1A4441, size: 0x8, addend: 0x0, symName: '__ZN4core3ptr81drop_in_place$LT$core..result..Result$LT$$LP$$RP$$C$std..io..error..Error$GT$$GT$17h68f530c9ffe6194dE', symObjAddr: 0x120, symBinAddr: 0x449D0, symSize: 0xB0 }
  - { offsetInCU: 0xE69, offset: 0x1A48B3, size: 0x8, addend: 0x0, symName: '__ZN4core3ptr92drop_in_place$LT$std..io..Write..write_fmt..Adapter$LT$std..sys..unix..stdio..Stderr$GT$$GT$17h566a576ff6b28b85E', symObjAddr: 0x1D0, symBinAddr: 0x44A80, symSize: 0x10 }
  - { offsetInCU: 0xFEF, offset: 0x1A4A39, size: 0x8, addend: 0x0, symName: __ZN4core3fmt5Write10write_char17h18436ec9d1b244fdE, symObjAddr: 0x0, symBinAddr: 0x448B0, symSize: 0x100 }
  - { offsetInCU: 0x1158, offset: 0x1A4BA2, size: 0x8, addend: 0x0, symName: __ZN4core3fmt5Write9write_fmt17hc1a9014f8bc7a38fE, symObjAddr: 0x100, symBinAddr: 0x449B0, symSize: 0x20 }
  - { offsetInCU: 0x1E, offset: 0x1A5313, size: 0x8, addend: 0x0, symName: __ZN3std2io5Write9write_all17hee9f5ce25e31302bE, symObjAddr: 0x0, symBinAddr: 0x44AD0, symSize: 0xF0 }
  - { offsetInCU: 0x35, offset: 0x1A532A, size: 0x8, addend: 0x0, symName: _anon.9a35cbef8a3c87d09689b379bfb6f5f1.6.llvm.6863862857096208738, symObjAddr: 0x328, symBinAddr: 0x2686F0, symSize: 0x0 }
  - { offsetInCU: 0xE5, offset: 0x1A53DA, size: 0x8, addend: 0x0, symName: __ZN3std2io5Write9write_all17hee9f5ce25e31302bE, symObjAddr: 0x0, symBinAddr: 0x44AD0, symSize: 0xF0 }
  - { offsetInCU: 0x361, offset: 0x1A5656, size: 0x8, addend: 0x0, symName: __ZN3std2io5Write9write_fmt17h6f3c2eeefe95551bE, symObjAddr: 0xF0, symBinAddr: 0x44BC0, symSize: 0x90 }
  - { offsetInCU: 0x141F, offset: 0x1A6714, size: 0x8, addend: 0x0, symName: '__ZN4core3ptr42drop_in_place$LT$std..io..error..Error$GT$17h77cdd3970cc056bfE.llvm.6863862857096208738', symObjAddr: 0x180, symBinAddr: 0x44C50, symSize: 0xA0 }
  - { offsetInCU: 0x1883, offset: 0x1A6B78, size: 0x8, addend: 0x0, symName: '__ZN4core3ptr92drop_in_place$LT$std..io..Write..write_fmt..Adapter$LT$std..sys..unix..stdio..Stderr$GT$$GT$17h566a576ff6b28b85E.llvm.6863862857096208738', symObjAddr: 0x220, symBinAddr: 0x44CF0, symSize: 0x15 }
  - { offsetInCU: 0xE79, offset: 0x1A8391, size: 0x8, addend: 0x0, symName: '__ZN4core3ptr43drop_in_place$LT$proc_macro2..TokenTree$GT$17h964db53de0ddcba4E.llvm.6749870762655374730', symObjAddr: 0x20, symBinAddr: 0x44D10, symSize: 0xB0 }
  - { offsetInCU: 0x1B35, offset: 0x1A904D, size: 0x8, addend: 0x0, symName: '__ZN86_$LT$alloc..vec..into_iter..IntoIter$LT$T$C$A$GT$$u20$as$u20$core..ops..drop..Drop$GT$4drop17h1b51029c63bf4dacE', symObjAddr: 0xF0, symBinAddr: 0x44DC0, symSize: 0x80 }
  - { offsetInCU: 0x1D65, offset: 0x1A927D, size: 0x8, addend: 0x0, symName: '__ZN86_$LT$alloc..vec..into_iter..IntoIter$LT$T$C$A$GT$$u20$as$u20$core..ops..drop..Drop$GT$4drop17h4d6f2b101a5c9cd0E', symObjAddr: 0x170, symBinAddr: 0x44E40, symSize: 0xD0 }
  - { offsetInCU: 0x2035, offset: 0x1A954D, size: 0x8, addend: 0x0, symName: '__ZN86_$LT$alloc..vec..into_iter..IntoIter$LT$T$C$A$GT$$u20$as$u20$core..ops..drop..Drop$GT$4drop17h594650b31ccae7baE', symObjAddr: 0x240, symBinAddr: 0x44F10, symSize: 0xA0 }
  - { offsetInCU: 0x22F9, offset: 0x1A9811, size: 0x8, addend: 0x0, symName: '__ZN86_$LT$alloc..vec..into_iter..IntoIter$LT$T$C$A$GT$$u20$as$u20$core..ops..drop..Drop$GT$4drop17hc74ee17d9dbbd461E', symObjAddr: 0x2E0, symBinAddr: 0x44FB0, symSize: 0xE5 }
  - { offsetInCU: 0x1E, offset: 0x1AABDB, size: 0x8, addend: 0x0, symName: '__ZN4core3ptr103drop_in_place$LT$alloc..vec..Vec$LT$$LP$proc_macro_error..SpanRange$C$alloc..string..String$RP$$GT$$GT$17h056992ac414a00ebE', symObjAddr: 0x0, symBinAddr: 0x450A0, symSize: 0x70 }
  - { offsetInCU: 0x2E1, offset: 0x1AAE9E, size: 0x8, addend: 0x0, symName: __ZN16proc_macro_error3imp7cleanup17h497d4144a0c80e4aE, symObjAddr: 0x230, symBinAddr: 0x45240, symSize: 0x60 }
  - { offsetInCU: 0x4BF, offset: 0x1AB07C, size: 0x8, addend: 0x0, symName: __ZN16proc_macro_error3imp15emit_diagnostic17h98663c8c91db3290E, symObjAddr: 0x290, symBinAddr: 0x452A0, symSize: 0x80C }
  - { offsetInCU: 0x1864, offset: 0x1AC421, size: 0x8, addend: 0x0, symName: '__ZN4core3ptr103drop_in_place$LT$alloc..vec..Vec$LT$$LP$proc_macro_error..SpanRange$C$alloc..string..String$RP$$GT$$GT$17h056992ac414a00ebE', symObjAddr: 0x0, symBinAddr: 0x450A0, symSize: 0x70 }
  - { offsetInCU: 0x1B35, offset: 0x1AC6F2, size: 0x8, addend: 0x0, symName: '__ZN4core3ptr178drop_in_place$LT$alloc..vec..Vec$LT$$LP$proc_macro_error..diagnostic..SuggestionKind$C$alloc..string..String$C$core..option..Option$LT$proc_macro_error..SpanRange$GT$$RP$$GT$$GT$17h33a13c2b5c1f8021E', symObjAddr: 0x70, symBinAddr: 0x45110, symSize: 0x80 }
  - { offsetInCU: 0x1F25, offset: 0x1ACAE2, size: 0x8, addend: 0x0, symName: '__ZN4core3ptr55drop_in_place$LT$proc_macro..diagnostic..Diagnostic$GT$17hb37197e569770249E', symObjAddr: 0xF0, symBinAddr: 0x45190, symSize: 0xB0 }
  - { offsetInCU: 0x1326, offset: 0x1B0612, size: 0x8, addend: 0x0, symName: '__ZN68_$LT$alloc..rc..Rc$LT$T$C$A$GT$$u20$as$u20$core..ops..drop..Drop$GT$4drop17h8352da9970d3a55cE', symObjAddr: 0x70, symBinAddr: 0x45AB0, symSize: 0x30 }
  - { offsetInCU: 0x159A, offset: 0x1B0886, size: 0x8, addend: 0x0, symName: '__ZN68_$LT$alloc..rc..Rc$LT$T$C$A$GT$$u20$as$u20$core..ops..drop..Drop$GT$4drop17ha19c990c284aa703E', symObjAddr: 0xA0, symBinAddr: 0x45AE0, symSize: 0xDE }
  - { offsetInCU: 0x1E, offset: 0x1B1667, size: 0x8, addend: 0x0, symName: __ZN3std9panicking11begin_panic17h379a5708ae422d4eE, symObjAddr: 0x0, symBinAddr: 0x1FE3D0, symSize: 0x20 }
  - { offsetInCU: 0x157, offset: 0x1B17A0, size: 0x8, addend: 0x0, symName: __ZN3std9panicking11begin_panic17h379a5708ae422d4eE, symObjAddr: 0x0, symBinAddr: 0x1FE3D0, symSize: 0x20 }
  - { offsetInCU: 0x2A8, offset: 0x1B18F1, size: 0x8, addend: 0x0, symName: __ZN3std9panicking3try17hcc4b151398fd33efE, symObjAddr: 0x30, symBinAddr: 0x45BC0, symSize: 0x1A0 }
  - { offsetInCU: 0x988, offset: 0x1B1FD1, size: 0x8, addend: 0x0, symName: '__ZN91_$LT$std..panicking..begin_panic..Payload$LT$A$GT$$u20$as$u20$core..panic..PanicPayload$GT$3get17h852e87b1d03cdbc9E', symObjAddr: 0x1F0, symBinAddr: 0x45D70, symSize: 0x20 }
  - { offsetInCU: 0x9C0, offset: 0x1B2009, size: 0x8, addend: 0x0, symName: '__ZN91_$LT$std..panicking..begin_panic..Payload$LT$A$GT$$u20$as$u20$core..panic..PanicPayload$GT$8take_box17h5248545ce81c19d6E', symObjAddr: 0x250, symBinAddr: 0x45D90, symSize: 0x5F }
  - { offsetInCU: 0x1A32, offset: 0x1B307B, size: 0x8, addend: 0x0, symName: '__ZN4core3ptr28drop_in_place$LT$$RF$str$GT$17h2db5638b5a09ca81E', symObjAddr: 0x1D0, symBinAddr: 0x45D60, symSize: 0x10 }
  - { offsetInCU: 0x1E, offset: 0x1B4405, size: 0x8, addend: 0x0, symName: '__ZN120_$LT$proc_macro2..fallback..TokenStream$u20$as$u20$core..iter..traits..collect..Extend$LT$proc_macro2..TokenTree$GT$$GT$6extend17h4671a513ed41a053E', symObjAddr: 0x0, symBinAddr: 0x45DF0, symSize: 0x110 }
  - { offsetInCU: 0x9B8, offset: 0x1B4D9F, size: 0x8, addend: 0x0, symName: '__ZN120_$LT$proc_macro2..fallback..TokenStream$u20$as$u20$core..iter..traits..collect..Extend$LT$proc_macro2..TokenTree$GT$$GT$6extend17h4671a513ed41a053E', symObjAddr: 0x0, symBinAddr: 0x45DF0, symSize: 0x110 }
  - { offsetInCU: 0x1050, offset: 0x1B5437, size: 0x8, addend: 0x0, symName: '__ZN4core3ptr45drop_in_place$LT$proc_macro2..TokenStream$GT$17hc79d0be5522c462fE.llvm.16719880409636834080', symObjAddr: 0x160, symBinAddr: 0x45F00, symSize: 0x140 }
  - { offsetInCU: 0x2535, offset: 0x1B691C, size: 0x8, addend: 0x0, symName: '__ZN5alloc2rc15Rc$LT$T$C$A$GT$8make_mut17hd31e595a35e3bad8E.llvm.16719880409636834080', symObjAddr: 0x2A0, symBinAddr: 0x46040, symSize: 0x18A }
  - { offsetInCU: 0x30E, offset: 0x1B7D10, size: 0x8, addend: 0x0, symName: __ZN16proc_macro_error5dummy7cleanup17h57548bf7f0d23ff4E, symObjAddr: 0x520, symBinAddr: 0x461E0, symSize: 0xB1 }
  - { offsetInCU: 0xDDA, offset: 0x1B87DC, size: 0x8, addend: 0x0, symName: '__ZN4core3ptr52drop_in_place$LT$std..thread..local..AccessError$GT$17h6ad23a1e9b412d1cE', symObjAddr: 0x140, symBinAddr: 0x461D0, symSize: 0x10 }
  - { offsetInCU: 0xE12, offset: 0x1BAA11, size: 0x8, addend: 0x0, symName: '__ZN4core3ptr128drop_in_place$LT$core..option..Option$LT$core..cell..RefCell$LT$core..option..Option$LT$proc_macro2..TokenStream$GT$$GT$$GT$$GT$17h887f06f852de4cbbE.llvm.349288734476671895', symObjAddr: 0x1A0, symBinAddr: 0x462A0, symSize: 0x165 }
  - { offsetInCU: 0x1E, offset: 0x1BB65F, size: 0x8, addend: 0x0, symName: __ZN10proc_macro10diagnostic10Diagnostic10span_error17hbf851a34f4e87d73E, symObjAddr: 0x0, symBinAddr: 0x46410, symSize: 0x120 }
  - { offsetInCU: 0x493, offset: 0x1BBAD4, size: 0x8, addend: 0x0, symName: '__ZN4core3ptr55drop_in_place$LT$proc_macro..diagnostic..Diagnostic$GT$17hb37197e569770249E.llvm.5272112559419188448', symObjAddr: 0x5C0, symBinAddr: 0x46770, symSize: 0xB0 }
  - { offsetInCU: 0xC67, offset: 0x1BC2A8, size: 0x8, addend: 0x0, symName: __ZN10proc_macro10diagnostic10Diagnostic10span_error17hbf851a34f4e87d73E, symObjAddr: 0x0, symBinAddr: 0x46410, symSize: 0x120 }
  - { offsetInCU: 0xE8F, offset: 0x1BC4D0, size: 0x8, addend: 0x0, symName: __ZN10proc_macro10diagnostic10Diagnostic9span_help17hd1c6a19c57803a69E, symObjAddr: 0x360, symBinAddr: 0x46530, symSize: 0x120 }
  - { offsetInCU: 0x10B7, offset: 0x1BC6F8, size: 0x8, addend: 0x0, symName: __ZN10proc_macro10diagnostic10Diagnostic9span_note17h861127eb454db0f2E, symObjAddr: 0x480, symBinAddr: 0x46650, symSize: 0x120 }
  - { offsetInCU: 0x1E, offset: 0x1BCC9B, size: 0x8, addend: 0x0, symName: '__ZN115_$LT$proc_macro2..imp..TokenStream$u20$as$u20$core..iter..traits..collect..Extend$LT$proc_macro2..TokenTree$GT$$GT$6extend17h99450acc1afb4216E', symObjAddr: 0x0, symBinAddr: 0x46820, symSize: 0x110 }
  - { offsetInCU: 0x71F, offset: 0x1BD39C, size: 0x8, addend: 0x0, symName: '__ZN115_$LT$proc_macro2..imp..TokenStream$u20$as$u20$core..iter..traits..collect..Extend$LT$proc_macro2..TokenTree$GT$$GT$6extend17h99450acc1afb4216E', symObjAddr: 0x0, symBinAddr: 0x46820, symSize: 0x110 }
  - { offsetInCU: 0x14C3, offset: 0x1BE140, size: 0x8, addend: 0x0, symName: '__ZN4core3ptr56drop_in_place$LT$proc_macro2..token_stream..IntoIter$GT$17hb581f21b46f143f9E.llvm.421057474842487112', symObjAddr: 0x1D0, symBinAddr: 0x46930, symSize: 0x1D }
  - { offsetInCU: 0x1E, offset: 0x1BE501, size: 0x8, addend: 0x0, symName: '__ZN110_$LT$proc_macro..TokenStream$u20$as$u20$core..iter..traits..collect..Extend$LT$proc_macro..TokenStream$GT$$GT$6extend17h85867365fb029f02E', symObjAddr: 0x0, symBinAddr: 0x46950, symSize: 0xF0 }
  - { offsetInCU: 0x72, offset: 0x1BE555, size: 0x8, addend: 0x0, symName: '__ZN110_$LT$proc_macro..TokenStream$u20$as$u20$core..iter..traits..collect..Extend$LT$proc_macro..TokenStream$GT$$GT$6extend17h85867365fb029f02E', symObjAddr: 0x0, symBinAddr: 0x46950, symSize: 0xF0 }
  - { offsetInCU: 0x667, offset: 0x1BEB4A, size: 0x8, addend: 0x0, symName: '__ZN4core3ptr52drop_in_place$LT$proc_macro..ConcatStreamsHelper$GT$17ha95b501eb0832e83E.llvm.3422970612911241354', symObjAddr: 0xF0, symBinAddr: 0x46A40, symSize: 0xBF }
  - { offsetInCU: 0x83, offset: 0x1C092D, size: 0x8, addend: 0x0, symName: '__ZN3std9panicking11begin_panic28_$u7b$$u7b$closure$u7d$$u7d$17hd7a83736f0bd5335E', symObjAddr: 0x50, symBinAddr: 0x46B10, symSize: 0x40 }
  - { offsetInCU: 0x121, offset: 0x1C09CB, size: 0x8, addend: 0x0, symName: __ZN3std10sys_common9backtrace26__rust_end_short_backtrace17hfe0b2a9561f550f6E, symObjAddr: 0x10, symBinAddr: 0x46B00, symSize: 0x10 }
  - { offsetInCU: 0x1CD, offset: 0x1C0A77, size: 0x8, addend: 0x0, symName: '__ZN4core3ptr72drop_in_place$LT$std..panicking..begin_panic..Payload$LT$$RF$str$GT$$GT$17hb7be58e974469fcbE', symObjAddr: 0x90, symBinAddr: 0x46B50, symSize: 0x10 }
  - { offsetInCU: 0x1E, offset: 0x1C0B73, size: 0x8, addend: 0x0, symName: '__ZN36_$LT$T$u20$as$u20$core..any..Any$GT$7type_id17haa7c753ee953ced8E', symObjAddr: 0x0, symBinAddr: 0x46B60, symSize: 0x1A }
  - { offsetInCU: 0x3A, offset: 0x1C0B8F, size: 0x8, addend: 0x0, symName: '__ZN36_$LT$T$u20$as$u20$core..any..Any$GT$7type_id17haa7c753ee953ced8E', symObjAddr: 0x0, symBinAddr: 0x46B60, symSize: 0x1A }
  - { offsetInCU: 0x4E7F, offset: 0x1C5AA2, size: 0x8, addend: 0x0, symName: '__ZN3syn4item7parsing63_$LT$impl$u20$syn..parse..Parse$u20$for$u20$syn..item..Item$GT$5parse17h2dd33e0a14c1cf15E', symObjAddr: 0xCE00, symBinAddr: 0x526A0, symSize: 0x1D0 }
  - { offsetInCU: 0x546E, offset: 0x1C6091, size: 0x8, addend: 0x0, symName: '__ZN3syn4item7parsing68_$LT$impl$u20$syn..parse..Parse$u20$for$u20$syn..item..ItemMacro$GT$5parse17hd2dbdd16085cb5b3E', symObjAddr: 0xCFD0, symBinAddr: 0x52870, symSize: 0x690 }
  - { offsetInCU: 0x60BC, offset: 0x1C6CDF, size: 0x8, addend: 0x0, symName: '__ZN3syn4item7parsing74_$LT$impl$u20$syn..parse..Parse$u20$for$u20$syn..item..ItemExternCrate$GT$5parse17h6d92f7f00cd41009E', symObjAddr: 0xD660, symBinAddr: 0x52F00, symSize: 0x850 }
  - { offsetInCU: 0x72B4, offset: 0x1C7ED7, size: 0x8, addend: 0x0, symName: '__ZN3syn4item7parsing75_$LT$impl$u20$syn..parse..Parse$u20$for$u20$syn..item..StaticMutability$GT$5parse17haf0db4a36b052efeE', symObjAddr: 0x1E720, symBinAddr: 0x5DAB0, symSize: 0x90 }
  - { offsetInCU: 0x7467, offset: 0x1C808A, size: 0x8, addend: 0x0, symName: '__ZN3syn4item7parsing68_$LT$impl$u20$syn..parse..Parse$u20$for$u20$syn..item..Signature$GT$5parse17h046b786ec6aea09bE', symObjAddr: 0xF5D0, symBinAddr: 0x53750, symSize: 0xA00 }
  - { offsetInCU: 0x8093, offset: 0x1C8CB6, size: 0x8, addend: 0x0, symName: '__ZN3syn4item7parsing67_$LT$impl$u20$syn..parse..Parse$u20$for$u20$syn..item..Receiver$GT$5parse17h14ef46bb1836effbE', symObjAddr: 0x10510, symBinAddr: 0x54150, symSize: 0xA40 }
  - { offsetInCU: 0x92AF, offset: 0x1C9ED2, size: 0x8, addend: 0x0, symName: '__ZN3syn4item7parsing66_$LT$impl$u20$syn..parse..Parse$u20$for$u20$syn..item..ItemMod$GT$5parse17hdc999b9cf7b8d7bdE', symObjAddr: 0x10F50, symBinAddr: 0x54B90, symSize: 0xC30 }
  - { offsetInCU: 0xAE71, offset: 0x1CBA94, size: 0x8, addend: 0x0, symName: '__ZN3syn4item7parsing73_$LT$impl$u20$syn..parse..Parse$u20$for$u20$syn..item..ItemForeignMod$GT$5parse17h6272e3455d73c09eE', symObjAddr: 0x11B80, symBinAddr: 0x557C0, symSize: 0x6E0 }
  - { offsetInCU: 0xBCE2, offset: 0x1CC905, size: 0x8, addend: 0x0, symName: '__ZN3syn4item7parsing70_$LT$impl$u20$syn..parse..Parse$u20$for$u20$syn..item..ForeignItem$GT$5parse17hc264003d8c78165cE', symObjAddr: 0x12260, symBinAddr: 0x55EA0, symSize: 0x1A40 }
  - { offsetInCU: 0x10053, offset: 0x1D0C76, size: 0x8, addend: 0x0, symName: '__ZN3syn4item7parsing69_$LT$impl$u20$syn..parse..Parse$u20$for$u20$syn..item..ItemStruct$GT$5parse17h9ee5a6f8e0cb788fE', symObjAddr: 0x15D30, symBinAddr: 0x578E0, symSize: 0x730 }
  - { offsetInCU: 0x10ACF, offset: 0x1D16F2, size: 0x8, addend: 0x0, symName: '__ZN3syn4item7parsing67_$LT$impl$u20$syn..parse..Parse$u20$for$u20$syn..item..ItemEnum$GT$5parse17h3908fae5439ca017E', symObjAddr: 0x16460, symBinAddr: 0x58010, symSize: 0x6A0 }
  - { offsetInCU: 0x11548, offset: 0x1D216B, size: 0x8, addend: 0x0, symName: '__ZN3syn4item7parsing68_$LT$impl$u20$syn..parse..Parse$u20$for$u20$syn..item..ItemUnion$GT$5parse17hcf21badb7f5d91b4E', symObjAddr: 0x16B00, symBinAddr: 0x586B0, symSize: 0x670 }
  - { offsetInCU: 0x11FA7, offset: 0x1D2BCA, size: 0x8, addend: 0x0, symName: '__ZN3syn4item7parsing68_$LT$impl$u20$syn..parse..Parse$u20$for$u20$syn..item..ItemTrait$GT$5parse17he79f83c126b307abE', symObjAddr: 0x17170, symBinAddr: 0x58D20, symSize: 0x690 }
  - { offsetInCU: 0x12C21, offset: 0x1D3844, size: 0x8, addend: 0x0, symName: '__ZN3syn4item7parsing68_$LT$impl$u20$syn..parse..Parse$u20$for$u20$syn..item..TraitItem$GT$5parse17ha2b7a47a4118920dE', symObjAddr: 0x17940, symBinAddr: 0x593B0, symSize: 0x1D60 }
  - { offsetInCU: 0x1878B, offset: 0x1D93AE, size: 0x8, addend: 0x0, symName: '__ZN3syn4item7parsing70_$LT$impl$u20$syn..parse..Parse$u20$for$u20$syn..item..TraitItemFn$GT$5parse17h2bd112e785c11adaE', symObjAddr: 0x1A020, symBinAddr: 0x5B110, symSize: 0x9A0 }
  - { offsetInCU: 0x19EB0, offset: 0x1DAAD3, size: 0x8, addend: 0x0, symName: '__ZN3syn4item7parsing67_$LT$impl$u20$syn..parse..Parse$u20$for$u20$syn..item..ImplItem$GT$5parse17h7e88a76fe14f8010E', symObjAddr: 0x1B2D0, symBinAddr: 0x5BAB0, symSize: 0x1CD0 }
  - { offsetInCU: 0x1F028, offset: 0x1DFC4B, size: 0x8, addend: 0x0, symName: '__ZN3syn4item7parsing72_$LT$impl$u20$syn..parse..Parse$u20$for$u20$syn..item..ImplItemMacro$GT$5parse17h0ef0a527c904192aE', symObjAddr: 0x1E3F0, symBinAddr: 0x5D780, symSize: 0x0 }
  - { offsetInCU: 0x1F68F, offset: 0x1E02B2, size: 0x8, addend: 0x0, symName: '__ZN3syn4item8printing83_$LT$impl$u20$quote..to_tokens..ToTokens$u20$for$u20$syn..item..ItemExternCrate$GT$9to_tokens17h3856a361ae758360E', symObjAddr: 0x1E7B0, symBinAddr: 0x5DB40, symSize: 0x250 }
  - { offsetInCU: 0x1FC72, offset: 0x1E0895, size: 0x8, addend: 0x0, symName: '__ZN3syn4item8printing78_$LT$impl$u20$quote..to_tokens..ToTokens$u20$for$u20$syn..item..ItemStatic$GT$9to_tokens17h415e4cd72a569389E', symObjAddr: 0x1EBA0, symBinAddr: 0x5DD90, symSize: 0x230 }
  - { offsetInCU: 0x201D9, offset: 0x1E0DFC, size: 0x8, addend: 0x0, symName: '__ZN3syn4item8printing74_$LT$impl$u20$quote..to_tokens..ToTokens$u20$for$u20$syn..item..ItemFn$GT$9to_tokens17h8cdf913637011784E', symObjAddr: 0x1EFA0, symBinAddr: 0x5DFC0, symSize: 0x3A0 }
  - { offsetInCU: 0x20B76, offset: 0x1E1799, size: 0x8, addend: 0x0, symName: '__ZN3syn4item8printing75_$LT$impl$u20$quote..to_tokens..ToTokens$u20$for$u20$syn..item..ItemMod$GT$9to_tokens17h22b2effb376191d4E', symObjAddr: 0x1F340, symBinAddr: 0x5E360, symSize: 0x240 }
  - { offsetInCU: 0x210ED, offset: 0x1E1D10, size: 0x8, addend: 0x0, symName: '__ZN3syn4item8printing78_$LT$impl$u20$quote..to_tokens..ToTokens$u20$for$u20$syn..item..ItemStruct$GT$9to_tokens17h37d4984ce3001d19E', symObjAddr: 0x1FA90, symBinAddr: 0x5E5A0, symSize: 0x230 }
  - { offsetInCU: 0x2150F, offset: 0x1E2132, size: 0x8, addend: 0x0, symName: '__ZN3syn4item8printing77_$LT$impl$u20$quote..to_tokens..ToTokens$u20$for$u20$syn..item..ItemTrait$GT$9to_tokens17h5df32068ce60d15cE', symObjAddr: 0x1FE50, symBinAddr: 0x5E7D0, symSize: 0x350 }
  - { offsetInCU: 0x21E9B, offset: 0x1E2ABE, size: 0x8, addend: 0x0, symName: '__ZN3syn4item8printing82_$LT$impl$u20$quote..to_tokens..ToTokens$u20$for$u20$syn..item..ItemTraitAlias$GT$9to_tokens17hc929f21bb6c5846dE', symObjAddr: 0x201A0, symBinAddr: 0x5EB20, symSize: 0x240 }
  - { offsetInCU: 0x224DF, offset: 0x1E3102, size: 0x8, addend: 0x0, symName: '__ZN3syn4item8printing76_$LT$impl$u20$quote..to_tokens..ToTokens$u20$for$u20$syn..item..ItemImpl$GT$9to_tokens17hbc6239c00e6682fbE', symObjAddr: 0x203E0, symBinAddr: 0x5ED60, symSize: 0x300 }
  - { offsetInCU: 0x22C6A, offset: 0x1E388D, size: 0x8, addend: 0x0, symName: '__ZN3syn4item8printing77_$LT$impl$u20$quote..to_tokens..ToTokens$u20$for$u20$syn..item..ItemMacro$GT$9to_tokens17hebd52fd8a1615986E', symObjAddr: 0x206E0, symBinAddr: 0x5F060, symSize: 0x180 }
  - { offsetInCU: 0x23016, offset: 0x1E3C39, size: 0x8, addend: 0x0, symName: '__ZN3syn4item8printing82_$LT$impl$u20$quote..to_tokens..ToTokens$u20$for$u20$syn..item..TraitItemConst$GT$9to_tokens17h089a36b809968ef3E', symObjAddr: 0x209B0, symBinAddr: 0x5F1E0, symSize: 0x1D0 }
  - { offsetInCU: 0x233A1, offset: 0x1E3FC4, size: 0x8, addend: 0x0, symName: '__ZN3syn4item8printing79_$LT$impl$u20$quote..to_tokens..ToTokens$u20$for$u20$syn..item..TraitItemFn$GT$9to_tokens17haad3b80ba26c3976E', symObjAddr: 0x20B80, symBinAddr: 0x5F3B0, symSize: 0x420 }
  - { offsetInCU: 0x23DDD, offset: 0x1E4A00, size: 0x8, addend: 0x0, symName: '__ZN3syn4item8printing81_$LT$impl$u20$quote..to_tokens..ToTokens$u20$for$u20$syn..item..TraitItemType$GT$9to_tokens17h64c3182d37c64beaE', symObjAddr: 0x20FA0, symBinAddr: 0x5F7D0, symSize: 0x2B0 }
  - { offsetInCU: 0x24523, offset: 0x1E5146, size: 0x8, addend: 0x0, symName: '__ZN3syn4item8printing81_$LT$impl$u20$quote..to_tokens..ToTokens$u20$for$u20$syn..item..ImplItemConst$GT$9to_tokens17hf0f4212b62d7bc92E', symObjAddr: 0x21250, symBinAddr: 0x5FA80, symSize: 0x250 }
  - { offsetInCU: 0x249D3, offset: 0x1E55F6, size: 0x8, addend: 0x0, symName: '__ZN3syn4item8printing78_$LT$impl$u20$quote..to_tokens..ToTokens$u20$for$u20$syn..item..ImplItemFn$GT$9to_tokens17hd72deb71e24247ddE', symObjAddr: 0x214A0, symBinAddr: 0x5FCD0, symSize: 0x410 }
  - { offsetInCU: 0x254C5, offset: 0x1E60E8, size: 0x8, addend: 0x0, symName: '__ZN3syn4item8printing80_$LT$impl$u20$quote..to_tokens..ToTokens$u20$for$u20$syn..item..ImplItemType$GT$9to_tokens17h633e35cead6fe332E', symObjAddr: 0x218B0, symBinAddr: 0x600E0, symSize: 0x240 }
  - { offsetInCU: 0x259AB, offset: 0x1E65CE, size: 0x8, addend: 0x0, symName: '__ZN3syn4item8printing81_$LT$impl$u20$quote..to_tokens..ToTokens$u20$for$u20$syn..item..ForeignItemFn$GT$9to_tokens17hf978c504af4624b9E', symObjAddr: 0x21C00, symBinAddr: 0x60320, symSize: 0x3C0 }
  - { offsetInCU: 0x26370, offset: 0x1E6F93, size: 0x8, addend: 0x0, symName: '__ZN3syn4item8printing85_$LT$impl$u20$quote..to_tokens..ToTokens$u20$for$u20$syn..item..ForeignItemStatic$GT$9to_tokens17h6dca73543b11328bE', symObjAddr: 0x21FC0, symBinAddr: 0x606E0, symSize: 0x210 }
  - { offsetInCU: 0x26858, offset: 0x1E747B, size: 0x8, addend: 0x0, symName: '__ZN3syn4item8printing76_$LT$impl$u20$quote..to_tokens..ToTokens$u20$for$u20$syn..item..Receiver$GT$9to_tokens17hb998d2cc4ddf9c5aE', symObjAddr: 0x22650, symBinAddr: 0x608F0, symSize: 0x2F0 }
  - { offsetInCU: 0x2701A, offset: 0x1E7C3D, size: 0x8, addend: 0x0, symName: '__ZN3syn4item8printing76_$LT$impl$u20$quote..to_tokens..ToTokens$u20$for$u20$syn..item..Variadic$GT$9to_tokens17h395edb0d0a0434c1E', symObjAddr: 0x22940, symBinAddr: 0x60BE0, symSize: 0x150 }
  - { offsetInCU: 0x27351, offset: 0x1E7F74, size: 0x8, addend: 0x0, symName: '__ZN62_$LT$syn..item..Item$u20$as$u20$quote..to_tokens..ToTokens$GT$9to_tokens17h16b724a3317228f3E', symObjAddr: 0x22B20, symBinAddr: 0x60D30, symSize: 0xB70 }
  - { offsetInCU: 0x289C9, offset: 0x1E95EC, size: 0x8, addend: 0x0, symName: '__ZN65_$LT$syn..item..UseTree$u20$as$u20$quote..to_tokens..ToTokens$GT$9to_tokens17h058bd86238a4a925E', symObjAddr: 0x23690, symBinAddr: 0x618A0, symSize: 0x300 }
  - { offsetInCU: 0x29287, offset: 0x1E9EAA, size: 0x8, addend: 0x0, symName: '__ZN69_$LT$syn..item..ForeignItem$u20$as$u20$quote..to_tokens..ToTokens$GT$9to_tokens17ha60ee0587a491822E', symObjAddr: 0x23990, symBinAddr: 0x61BA0, symSize: 0x320 }
  - { offsetInCU: 0x29830, offset: 0x1EA453, size: 0x8, addend: 0x0, symName: '__ZN67_$LT$syn..item..TraitItem$u20$as$u20$quote..to_tokens..ToTokens$GT$9to_tokens17hd73ca22881a357f6E', symObjAddr: 0x23CB0, symBinAddr: 0x61EC0, symSize: 0x1B0 }
  - { offsetInCU: 0x29B0A, offset: 0x1EA72D, size: 0x8, addend: 0x0, symName: '__ZN66_$LT$syn..item..ImplItem$u20$as$u20$quote..to_tokens..ToTokens$GT$9to_tokens17h8caf1b608d7ccb4bE', symObjAddr: 0x23E60, symBinAddr: 0x62070, symSize: 0x1B0 }
  - { offsetInCU: 0x2A02E, offset: 0x1EAC51, size: 0x8, addend: 0x0, symName: '__ZN3syn3gen5clone71_$LT$impl$u20$core..clone..Clone$u20$for$u20$syn..item..ForeignItem$GT$5clone17h1c1af2fb1e22cf37E', symObjAddr: 0x240B0, symBinAddr: 0x62220, symSize: 0x2B0 }
  - { offsetInCU: 0x2A447, offset: 0x1EB06A, size: 0x8, addend: 0x0, symName: '__ZN3syn3gen5clone77_$LT$impl$u20$core..clone..Clone$u20$for$u20$syn..item..ForeignItemStatic$GT$5clone17h9025ae3b0e2de955E', symObjAddr: 0x24450, symBinAddr: 0x624D0, symSize: 0x1E0 }
  - { offsetInCU: 0x2A95A, offset: 0x1EB57D, size: 0x8, addend: 0x0, symName: '__ZN3syn3gen5clone75_$LT$impl$u20$core..clone..Clone$u20$for$u20$syn..item..ForeignItemType$GT$5clone17h01954e3b9fb9f725E', symObjAddr: 0x24630, symBinAddr: 0x626B0, symSize: 0x250 }
  - { offsetInCU: 0x2ACDC, offset: 0x1EB8FF, size: 0x8, addend: 0x0, symName: '__ZN3syn3gen5clone68_$LT$impl$u20$core..clone..Clone$u20$for$u20$syn..item..ImplItem$GT$5clone17hbbdbceaa9dc75fb8E', symObjAddr: 0x24880, symBinAddr: 0x62900, symSize: 0x1F0 }
  - { offsetInCU: 0x2B04F, offset: 0x1EBC72, size: 0x8, addend: 0x0, symName: '__ZN3syn3gen5clone73_$LT$impl$u20$core..clone..Clone$u20$for$u20$syn..item..ImplItemConst$GT$5clone17h5bada8c903397ea9E', symObjAddr: 0x24A70, symBinAddr: 0x62AF0, symSize: 0x390 }
  - { offsetInCU: 0x2B421, offset: 0x1EC044, size: 0x8, addend: 0x0, symName: '__ZN3syn3gen5clone70_$LT$impl$u20$core..clone..Clone$u20$for$u20$syn..item..ImplItemFn$GT$5clone17h569fe64371aceabcE', symObjAddr: 0x24E00, symBinAddr: 0x62E80, symSize: 0x190 }
  - { offsetInCU: 0x2B4A4, offset: 0x1EC0C7, size: 0x8, addend: 0x0, symName: '__ZN3syn3gen5clone72_$LT$impl$u20$core..clone..Clone$u20$for$u20$syn..item..ImplItemType$GT$5clone17h1322b0329e89fcb7E', symObjAddr: 0x25020, symBinAddr: 0x63010, symSize: 0x340 }
  - { offsetInCU: 0x2B848, offset: 0x1EC46B, size: 0x8, addend: 0x0, symName: '__ZN3syn3gen5clone64_$LT$impl$u20$core..clone..Clone$u20$for$u20$syn..item..Item$GT$5clone17h3822ba1a7b611a95E', symObjAddr: 0x25360, symBinAddr: 0x63350, symSize: 0x3E0 }
  - { offsetInCU: 0x2BCD6, offset: 0x1EC8F9, size: 0x8, addend: 0x0, symName: '__ZN3syn3gen5clone69_$LT$impl$u20$core..clone..Clone$u20$for$u20$syn..item..ItemConst$GT$5clone17hf94d4c0cb1435c70E', symObjAddr: 0x25740, symBinAddr: 0x63730, symSize: 0x3F0 }
  - { offsetInCU: 0x2C533, offset: 0x1ED156, size: 0x8, addend: 0x0, symName: '__ZN3syn3gen5clone68_$LT$impl$u20$core..clone..Clone$u20$for$u20$syn..item..ItemEnum$GT$5clone17h6464ab27732649f4E', symObjAddr: 0x25B30, symBinAddr: 0x63B20, symSize: 0x2F0 }
  - { offsetInCU: 0x2C862, offset: 0x1ED485, size: 0x8, addend: 0x0, symName: '__ZN3syn3gen5clone75_$LT$impl$u20$core..clone..Clone$u20$for$u20$syn..item..ItemExternCrate$GT$5clone17hd0b8bc33744042bfE', symObjAddr: 0x25E20, symBinAddr: 0x63E10, symSize: 0x190 }
  - { offsetInCU: 0x2CBD7, offset: 0x1ED7FA, size: 0x8, addend: 0x0, symName: '__ZN3syn3gen5clone66_$LT$impl$u20$core..clone..Clone$u20$for$u20$syn..item..ItemFn$GT$5clone17hdd17c93ecf7b0462E', symObjAddr: 0x25FB0, symBinAddr: 0x63FA0, symSize: 0x1A0 }
  - { offsetInCU: 0x2CE86, offset: 0x1EDAA9, size: 0x8, addend: 0x0, symName: '__ZN3syn3gen5clone74_$LT$impl$u20$core..clone..Clone$u20$for$u20$syn..item..ItemForeignMod$GT$5clone17hd37d574f73aedecaE', symObjAddr: 0x26150, symBinAddr: 0x64140, symSize: 0xF0 }
  - { offsetInCU: 0x2CFCF, offset: 0x1EDBF2, size: 0x8, addend: 0x0, symName: '__ZN3syn3gen5clone68_$LT$impl$u20$core..clone..Clone$u20$for$u20$syn..item..ItemImpl$GT$5clone17h661327ebe729eaadE', symObjAddr: 0x26240, symBinAddr: 0x64230, symSize: 0x400 }
  - { offsetInCU: 0x2D4BD, offset: 0x1EE0E0, size: 0x8, addend: 0x0, symName: '__ZN3syn3gen5clone69_$LT$impl$u20$core..clone..Clone$u20$for$u20$syn..item..ItemMacro$GT$5clone17h3526bbfccdbd5b31E', symObjAddr: 0x26640, symBinAddr: 0x64630, symSize: 0x110 }
  - { offsetInCU: 0x2D728, offset: 0x1EE34B, size: 0x8, addend: 0x0, symName: '__ZN3syn3gen5clone67_$LT$impl$u20$core..clone..Clone$u20$for$u20$syn..item..ItemMod$GT$5clone17h8794abff9978c514E', symObjAddr: 0x26750, symBinAddr: 0x64740, symSize: 0x1D0 }
  - { offsetInCU: 0x2DA30, offset: 0x1EE653, size: 0x8, addend: 0x0, symName: '__ZN3syn3gen5clone70_$LT$impl$u20$core..clone..Clone$u20$for$u20$syn..item..ItemStatic$GT$5clone17h61a9dbf1056765ccE', symObjAddr: 0x26920, symBinAddr: 0x64910, symSize: 0x290 }
  - { offsetInCU: 0x2E1B6, offset: 0x1EEDD9, size: 0x8, addend: 0x0, symName: '__ZN3syn3gen5clone70_$LT$impl$u20$core..clone..Clone$u20$for$u20$syn..item..ItemStruct$GT$5clone17heb954f61bacea375E', symObjAddr: 0x26BB0, symBinAddr: 0x64BA0, symSize: 0x380 }
  - { offsetInCU: 0x2E584, offset: 0x1EF1A7, size: 0x8, addend: 0x0, symName: '__ZN3syn3gen5clone69_$LT$impl$u20$core..clone..Clone$u20$for$u20$syn..item..ItemTrait$GT$5clone17h82453ad16e043bb6E', symObjAddr: 0x26F30, symBinAddr: 0x64F20, symSize: 0x3A0 }
  - { offsetInCU: 0x2E923, offset: 0x1EF546, size: 0x8, addend: 0x0, symName: '__ZN3syn3gen5clone74_$LT$impl$u20$core..clone..Clone$u20$for$u20$syn..item..ItemTraitAlias$GT$5clone17h5350a93e40fedfe9E', symObjAddr: 0x272D0, symBinAddr: 0x652C0, symSize: 0x2F0 }
  - { offsetInCU: 0x2ECAE, offset: 0x1EF8D1, size: 0x8, addend: 0x0, symName: '__ZN3syn3gen5clone68_$LT$impl$u20$core..clone..Clone$u20$for$u20$syn..item..ItemType$GT$5clone17hb9556c5f3da70cdaE', symObjAddr: 0x275C0, symBinAddr: 0x655B0, symSize: 0x330 }
  - { offsetInCU: 0x2F296, offset: 0x1EFEB9, size: 0x8, addend: 0x0, symName: '__ZN3syn3gen5clone69_$LT$impl$u20$core..clone..Clone$u20$for$u20$syn..item..ItemUnion$GT$5clone17hb2c9b467b08be8acE', symObjAddr: 0x278F0, symBinAddr: 0x658E0, symSize: 0x340 }
  - { offsetInCU: 0x2F5E4, offset: 0x1F0207, size: 0x8, addend: 0x0, symName: '__ZN3syn3gen5clone67_$LT$impl$u20$core..clone..Clone$u20$for$u20$syn..item..ItemUse$GT$5clone17h5fb5ac7ab331a1f9E', symObjAddr: 0x27C30, symBinAddr: 0x65C20, symSize: 0x130 }
  - { offsetInCU: 0x2F6A4, offset: 0x1F02C7, size: 0x8, addend: 0x0, symName: '__ZN3syn3gen5clone68_$LT$impl$u20$core..clone..Clone$u20$for$u20$syn..item..Receiver$GT$5clone17he1632aad4eb00ea9E', symObjAddr: 0x27D60, symBinAddr: 0x65D50, symSize: 0x1C0 }
  - { offsetInCU: 0x2FB2A, offset: 0x1F074D, size: 0x8, addend: 0x0, symName: '__ZN3syn3gen5clone69_$LT$impl$u20$core..clone..Clone$u20$for$u20$syn..item..Signature$GT$5clone17hcd624a7329112f28E', symObjAddr: 0x27F20, symBinAddr: 0x65F10, symSize: 0x550 }
  - { offsetInCU: 0x302F9, offset: 0x1F0F1C, size: 0x8, addend: 0x0, symName: '__ZN3syn3gen5clone69_$LT$impl$u20$core..clone..Clone$u20$for$u20$syn..item..TraitItem$GT$5clone17h91969da39aa9081aE', symObjAddr: 0x28470, symBinAddr: 0x66460, symSize: 0x1F0 }
  - { offsetInCU: 0x3066C, offset: 0x1F128F, size: 0x8, addend: 0x0, symName: '__ZN3syn3gen5clone74_$LT$impl$u20$core..clone..Clone$u20$for$u20$syn..item..TraitItemConst$GT$5clone17h7b25f837a5eddbbaE', symObjAddr: 0x28660, symBinAddr: 0x66650, symSize: 0x350 }
  - { offsetInCU: 0x30A48, offset: 0x1F166B, size: 0x8, addend: 0x0, symName: '__ZN3syn3gen5clone71_$LT$impl$u20$core..clone..Clone$u20$for$u20$syn..item..TraitItemFn$GT$5clone17h6b12e4721dd5a3afE', symObjAddr: 0x289B0, symBinAddr: 0x669A0, symSize: 0x140 }
  - { offsetInCU: 0x30B11, offset: 0x1F1734, size: 0x8, addend: 0x0, symName: '__ZN3syn3gen5clone73_$LT$impl$u20$core..clone..Clone$u20$for$u20$syn..item..TraitItemType$GT$5clone17h03e91f5baa26948fE', symObjAddr: 0x28AF0, symBinAddr: 0x66AE0, symSize: 0x360 }
  - { offsetInCU: 0x30F9E, offset: 0x1F1BC1, size: 0x8, addend: 0x0, symName: '__ZN3syn3gen5clone67_$LT$impl$u20$core..clone..Clone$u20$for$u20$syn..item..UseTree$GT$5clone17hecc6e062c969de2cE', symObjAddr: 0x29140, symBinAddr: 0x66E40, symSize: 0x390 }
  - { offsetInCU: 0x319C2, offset: 0x1F25E5, size: 0x8, addend: 0x0, symName: '__ZN3syn3gen5clone68_$LT$impl$u20$core..clone..Clone$u20$for$u20$syn..item..Variadic$GT$5clone17h5d88b3ac0ece19b6E', symObjAddr: 0x294D0, symBinAddr: 0x671D0, symSize: 0x110 }
  - { offsetInCU: 0x34222, offset: 0x1F4E45, size: 0x8, addend: 0x0, symName: '__ZN4core3ptr100drop_in_place$LT$core..option..Option$LT$alloc..boxed..Box$LT$syn..path..GenericArgument$GT$$GT$$GT$17h7435c9de74860622E', symObjAddr: 0x300, symBinAddr: 0x46B80, symSize: 0x50 }
  - { offsetInCU: 0x345C2, offset: 0x1F51E5, size: 0x8, addend: 0x0, symName: '__ZN4core3ptr100drop_in_place$LT$syn..punctuated..Punctuated$LT$syn..path..PathSegment$C$syn..token..PathSep$GT$$GT$17hf414cb3581f8337aE', symObjAddr: 0x350, symBinAddr: 0x46BD0, symSize: 0x260 }
  - { offsetInCU: 0x34F5B, offset: 0x1F5B7E, size: 0x8, addend: 0x0, symName: '__ZN4core3ptr103drop_in_place$LT$core..option..Option$LT$alloc..boxed..Box$LT$syn..generics..TypeParamBound$GT$$GT$$GT$17h5974f03e36b1a9c3E', symObjAddr: 0x5C0, symBinAddr: 0x46E30, symSize: 0x50 }
  - { offsetInCU: 0x351A6, offset: 0x1F5DC9, size: 0x8, addend: 0x0, symName: '__ZN4core3ptr103drop_in_place$LT$core..option..Option$LT$alloc..boxed..Box$LT$syn..generics..WherePredicate$GT$$GT$$GT$17hdd5111a374d8d6f2E', symObjAddr: 0x610, symBinAddr: 0x46E80, symSize: 0xD0 }
  - { offsetInCU: 0x35539, offset: 0x1F615C, size: 0x8, addend: 0x0, symName: '__ZN4core3ptr103drop_in_place$LT$syn..punctuated..Punctuated$LT$syn..generics..GenericParam$C$syn..token..Comma$GT$$GT$17hf42353fa44ed6da8E', symObjAddr: 0x6E0, symBinAddr: 0x46F50, symSize: 0xF0 }
  - { offsetInCU: 0x3599F, offset: 0x1F65C2, size: 0x8, addend: 0x0, symName: '__ZN4core3ptr104drop_in_place$LT$syn..punctuated..Punctuated$LT$syn..generics..TypeParamBound$C$syn..token..Plus$GT$$GT$17h532f52c4a894b056E', symObjAddr: 0x7D0, symBinAddr: 0x47040, symSize: 0x190 }
  - { offsetInCU: 0x35FB5, offset: 0x1F6BD8, size: 0x8, addend: 0x0, symName: '__ZN4core3ptr107drop_in_place$LT$$LP$syn..restriction..Visibility$C$core..option..Option$LT$syn..token..Default$GT$$RP$$GT$17h8ea01d3f0e99b7f1E', symObjAddr: 0x960, symBinAddr: 0x471D0, symSize: 0x60 }
  - { offsetInCU: 0x36184, offset: 0x1F6DA7, size: 0x8, addend: 0x0, symName: '__ZN4core3ptr115drop_in_place$LT$core..option..Option$LT$$LP$alloc..boxed..Box$LT$syn..pat..Pat$GT$$C$syn..token..Colon$RP$$GT$$GT$17he854acc3c4717d92E', symObjAddr: 0x9C0, symBinAddr: 0x47230, symSize: 0x50 }
  - { offsetInCU: 0x36358, offset: 0x1F6F7B, size: 0x8, addend: 0x0, symName: '__ZN4core3ptr115drop_in_place$LT$core..option..Option$LT$$LP$syn..token..Brace$C$alloc..vec..Vec$LT$syn..item..Item$GT$$RP$$GT$$GT$17h6df5bf3d47177236E', symObjAddr: 0xA10, symBinAddr: 0x47280, symSize: 0xE0 }
  - { offsetInCU: 0x365FF, offset: 0x1F7222, size: 0x8, addend: 0x0, symName: '__ZN4core3ptr126drop_in_place$LT$core..option..Option$LT$$LP$syn..token..And$C$core..option..Option$LT$syn..lifetime..Lifetime$GT$$RP$$GT$$GT$17hc269ac95805979aaE', symObjAddr: 0xAF0, symBinAddr: 0x47360, symSize: 0x30 }
  - { offsetInCU: 0x368AE, offset: 0x1F74D1, size: 0x8, addend: 0x0, symName: '__ZN4core3ptr34drop_in_place$LT$syn..lit..Lit$GT$17h8902f5ff67917034E', symObjAddr: 0xBA0, symBinAddr: 0x47390, symSize: 0x110 }
  - { offsetInCU: 0x36DE8, offset: 0x1F7A0B, size: 0x8, addend: 0x0, symName: '__ZN4core3ptr34drop_in_place$LT$syn..pat..Pat$GT$17h4581eea028ec0969E', symObjAddr: 0xCB0, symBinAddr: 0x474A0, symSize: 0x1000 }
  - { offsetInCU: 0x3A872, offset: 0x1FB495, size: 0x8, addend: 0x0, symName: '__ZN4core3ptr34drop_in_place$LT$syn..ty..Type$GT$17h369e41ad4a9f1ae0E', symObjAddr: 0x1CB0, symBinAddr: 0x484A0, symSize: 0x500 }
  - { offsetInCU: 0x3BDED, offset: 0x1FCA10, size: 0x8, addend: 0x0, symName: '__ZN4core3ptr36drop_in_place$LT$syn..expr..Expr$GT$17h0f7fd4c749bae801E', symObjAddr: 0x21B0, symBinAddr: 0x489A0, symSize: 0x28E0 }
  - { offsetInCU: 0x456BC, offset: 0x2062DF, size: 0x8, addend: 0x0, symName: '__ZN4core3ptr36drop_in_place$LT$syn..item..Item$GT$17h13f5a53479ba6379E', symObjAddr: 0x4A90, symBinAddr: 0x4B280, symSize: 0x1990 }
  - { offsetInCU: 0x4B367, offset: 0x20BF8A, size: 0x8, addend: 0x0, symName: '__ZN4core3ptr36drop_in_place$LT$syn..mac..Macro$GT$17h4ffde962df30ebe2E', symObjAddr: 0x6420, symBinAddr: 0x4CC10, symSize: 0x40 }
  - { offsetInCU: 0x4B3A1, offset: 0x20BFC4, size: 0x8, addend: 0x0, symName: '__ZN4core3ptr36drop_in_place$LT$syn..path..Path$GT$17habea856181211e1cE', symObjAddr: 0x6460, symBinAddr: 0x4CC50, symSize: 0x220 }
  - { offsetInCU: 0x4BCD6, offset: 0x20C8F9, size: 0x8, addend: 0x0, symName: '__ZN4core3ptr37drop_in_place$LT$syn..stmt..Block$GT$17hcc21a21cf949414cE', symObjAddr: 0x6680, symBinAddr: 0x4CE70, symSize: 0xD0 }
  - { offsetInCU: 0x4BF99, offset: 0x20CBBC, size: 0x8, addend: 0x0, symName: '__ZN4core3ptr38drop_in_place$LT$syn..data..Fields$GT$17h1dd1b203befc1316E', symObjAddr: 0x6750, symBinAddr: 0x4CF40, symSize: 0x190 }
  - { offsetInCU: 0x4C3B7, offset: 0x20CFDA, size: 0x8, addend: 0x0, symName: '__ZN4core3ptr38drop_in_place$LT$syn..expr..Member$GT$17h022cbe5553aa40faE', symObjAddr: 0x68E0, symBinAddr: 0x4D0D0, symSize: 0x30 }
  - { offsetInCU: 0x4C4B4, offset: 0x20D0D7, size: 0x8, addend: 0x0, symName: '__ZN4core3ptr38drop_in_place$LT$syn..pat..PatType$GT$17hcbbce80a195201a4E.llvm.3361240308741372715', symObjAddr: 0x6910, symBinAddr: 0x4D100, symSize: 0x140 }
  - { offsetInCU: 0x4C9FC, offset: 0x20D61F, size: 0x8, addend: 0x0, symName: '__ZN4core3ptr39drop_in_place$LT$proc_macro2..Ident$GT$17h8101e88c3ac359d6E', symObjAddr: 0x6A50, symBinAddr: 0x4D240, symSize: 0x30 }
  - { offsetInCU: 0x4CB56, offset: 0x20D779, size: 0x8, addend: 0x0, symName: '__ZN4core3ptr39drop_in_place$LT$syn..item..UseTree$GT$17h5b1281a5704d139dE', symObjAddr: 0x6B00, symBinAddr: 0x4D270, symSize: 0xD0 }
  - { offsetInCU: 0x4CF68, offset: 0x20DB8B, size: 0x8, addend: 0x0, symName: '__ZN4core3ptr40drop_in_place$LT$syn..item..ImplItem$GT$17he2e6e8f15695ea55E', symObjAddr: 0x6BD0, symBinAddr: 0x4D340, symSize: 0x5E0 }
  - { offsetInCU: 0x4E033, offset: 0x20EC56, size: 0x8, addend: 0x0, symName: '__ZN4core3ptr40drop_in_place$LT$syn..item..Receiver$GT$17h6743a41cd869c536E.llvm.3361240308741372715', symObjAddr: 0x71B0, symBinAddr: 0x4D920, symSize: 0x130 }
  - { offsetInCU: 0x4E5C6, offset: 0x20F1E9, size: 0x8, addend: 0x0, symName: '__ZN4core3ptr40drop_in_place$LT$syn..item..Variadic$GT$17h856c1da4a3922974E', symObjAddr: 0x72F0, symBinAddr: 0x4DA50, symSize: 0x120 }
  - { offsetInCU: 0x4E9F2, offset: 0x20F615, size: 0x8, addend: 0x0, symName: '__ZN4core3ptr40drop_in_place$LT$syn..ty..ReturnType$GT$17h02cf41e2fec63d90E', symObjAddr: 0x7410, symBinAddr: 0x4DB70, symSize: 0x50 }
  - { offsetInCU: 0x4EB64, offset: 0x20F787, size: 0x8, addend: 0x0, symName: '__ZN4core3ptr41drop_in_place$LT$syn..expr..ExprConst$GT$17h725a13e551d9f276E', symObjAddr: 0x7460, symBinAddr: 0x4DBC0, symSize: 0x180 }
  - { offsetInCU: 0x4F0D8, offset: 0x20FCFB, size: 0x8, addend: 0x0, symName: '__ZN4core3ptr41drop_in_place$LT$syn..item..Signature$GT$17h691f115807a5d1eeE', symObjAddr: 0x75E0, symBinAddr: 0x4DD40, symSize: 0x160 }
  - { offsetInCU: 0x4F7DE, offset: 0x210401, size: 0x8, addend: 0x0, symName: '__ZN4core3ptr41drop_in_place$LT$syn..item..TraitItem$GT$17hb6f9fbcba8fdea85E', symObjAddr: 0x7740, symBinAddr: 0x4DEA0, symSize: 0x6E0 }
  - { offsetInCU: 0x50AC5, offset: 0x2116E8, size: 0x8, addend: 0x0, symName: '__ZN4core3ptr42drop_in_place$LT$syn..item..ImplItemFn$GT$17h753bae801f2662d9E', symObjAddr: 0x7E70, symBinAddr: 0x4E580, symSize: 0x200 }
  - { offsetInCU: 0x51195, offset: 0x211DB8, size: 0x8, addend: 0x0, symName: '__ZN4core3ptr43drop_in_place$LT$syn..data..FieldsNamed$GT$17hb2a97e73a85352cbE', symObjAddr: 0x8070, symBinAddr: 0x4E780, symSize: 0xE0 }
  - { offsetInCU: 0x51500, offset: 0x212123, size: 0x8, addend: 0x0, symName: '__ZN4core3ptr43drop_in_place$LT$syn..item..ForeignItem$GT$17h1398b9aa0a6e4c9dE', symObjAddr: 0x8150, symBinAddr: 0x4E860, symSize: 0x610 }
  - { offsetInCU: 0x529F2, offset: 0x213615, size: 0x8, addend: 0x0, symName: '__ZN4core3ptr44drop_in_place$LT$syn..generics..Generics$GT$17h10dea28dec64f81eE', symObjAddr: 0x8760, symBinAddr: 0x4EE70, symSize: 0x40 }
  - { offsetInCU: 0x52A0F, offset: 0x213632, size: 0x8, addend: 0x0, symName: '__ZN4core3ptr44drop_in_place$LT$syn..lifetime..Lifetime$GT$17hf0cdec2e9ec456d6E', symObjAddr: 0x87A0, symBinAddr: 0x4EEB0, symSize: 0x30 }
  - { offsetInCU: 0x52B88, offset: 0x2137AB, size: 0x8, addend: 0x0, symName: '__ZN4core3ptr44drop_in_place$LT$syn..parse..ParseBuffer$GT$17hd0dadba44a19aec2E.llvm.3361240308741372715', symObjAddr: 0x87D0, symBinAddr: 0x4EEE0, symSize: 0x70 }
  - { offsetInCU: 0x52FBD, offset: 0x213BE0, size: 0x8, addend: 0x0, symName: '__ZN4core3ptr45drop_in_place$LT$proc_macro2..TokenStream$GT$17h3405f6c513e9f6cbE', symObjAddr: 0x8840, symBinAddr: 0x4EF50, symSize: 0x140 }
  - { offsetInCU: 0x5342C, offset: 0x21404F, size: 0x8, addend: 0x0, symName: '__ZN4core3ptr45drop_in_place$LT$syn..generics..TypeParam$GT$17he5eda51070b7de47E', symObjAddr: 0x8980, symBinAddr: 0x4F090, symSize: 0x230 }
  - { offsetInCU: 0x53C28, offset: 0x21484B, size: 0x8, addend: 0x0, symName: '__ZN4core3ptr46drop_in_place$LT$syn..generics..ConstParam$GT$17hab0a58c4af8c549cE', symObjAddr: 0x8BB0, symBinAddr: 0x4F2C0, symSize: 0x150 }
  - { offsetInCU: 0x54052, offset: 0x214C75, size: 0x8, addend: 0x0, symName: '__ZN4core3ptr47drop_in_place$LT$syn..path..GenericArgument$GT$17h54f8794633f96823E', symObjAddr: 0x8D00, symBinAddr: 0x4F410, symSize: 0x4A0 }
  - { offsetInCU: 0x550F9, offset: 0x215D1C, size: 0x8, addend: 0x0, symName: '__ZN4core3ptr49drop_in_place$LT$syn..generics..LifetimeParam$GT$17h41a7c7a290ea6289E', symObjAddr: 0x91A0, symBinAddr: 0x4F8B0, symSize: 0xF0 }
  - { offsetInCU: 0x554B3, offset: 0x2160D6, size: 0x8, addend: 0x0, symName: '__ZN4core3ptr49drop_in_place$LT$syn..restriction..Visibility$GT$17h2a932c493942ef80E', symObjAddr: 0x9290, symBinAddr: 0x4F9A0, symSize: 0x60 }
  - { offsetInCU: 0x5563A, offset: 0x21625D, size: 0x8, addend: 0x0, symName: '__ZN4core3ptr50drop_in_place$LT$syn..generics..TypeParamBound$GT$17hcd7771d4c6c221efE', symObjAddr: 0x92F0, symBinAddr: 0x4FA00, symSize: 0x160 }
  - { offsetInCU: 0x55A79, offset: 0x21669C, size: 0x8, addend: 0x0, symName: '__ZN4core3ptr58drop_in_place$LT$alloc..vec..Vec$LT$syn..expr..Arm$GT$$GT$17h1a55df3d2cba1daaE', symObjAddr: 0x9480, symBinAddr: 0x4FB60, symSize: 0xD0 }
  - { offsetInCU: 0x55D06, offset: 0x216929, size: 0x8, addend: 0x0, symName: '__ZN4core3ptr59drop_in_place$LT$alloc..boxed..Box$LT$syn..pat..Pat$GT$$GT$17h563b135d87aca8abE', symObjAddr: 0x9550, symBinAddr: 0x4FC30, symSize: 0x50 }
  - { offsetInCU: 0x55E61, offset: 0x216A84, size: 0x8, addend: 0x0, symName: '__ZN4core3ptr59drop_in_place$LT$alloc..boxed..Box$LT$syn..ty..Type$GT$$GT$17hffed36bad83adacbE', symObjAddr: 0x95A0, symBinAddr: 0x4FC80, symSize: 0x50 }
  - { offsetInCU: 0x55FBC, offset: 0x216BDF, size: 0x8, addend: 0x0, symName: '__ZN4core3ptr59drop_in_place$LT$alloc..vec..Vec$LT$syn..item..Item$GT$$GT$17hf874c2ed1282c93cE', symObjAddr: 0x95F0, symBinAddr: 0x4FCD0, symSize: 0xD0 }
  - { offsetInCU: 0x56249, offset: 0x216E6C, size: 0x8, addend: 0x0, symName: '__ZN4core3ptr59drop_in_place$LT$alloc..vec..Vec$LT$syn..stmt..Stmt$GT$$GT$17hb5c1acf3c61c43e2E', symObjAddr: 0x96C0, symBinAddr: 0x4FDA0, symSize: 0xD0 }
  - { offsetInCU: 0x564D6, offset: 0x2170F9, size: 0x8, addend: 0x0, symName: '__ZN4core3ptr61drop_in_place$LT$alloc..boxed..Box$LT$syn..expr..Expr$GT$$GT$17h01091e47f131475dE', symObjAddr: 0x9790, symBinAddr: 0x4FE70, symSize: 0x50 }
  - { offsetInCU: 0x566AD, offset: 0x2172D0, size: 0x8, addend: 0x0, symName: '__ZN4core3ptr61drop_in_place$LT$syn..path..ParenthesizedGenericArguments$GT$17h43d4aac5494326a7E', symObjAddr: 0x9850, symBinAddr: 0x4FEC0, symSize: 0x170 }
  - { offsetInCU: 0x56C74, offset: 0x217897, size: 0x8, addend: 0x0, symName: '__ZN4core3ptr62drop_in_place$LT$alloc..boxed..Box$LT$syn..stmt..Block$GT$$GT$17h30434998ae0f12a8E', symObjAddr: 0x99C0, symBinAddr: 0x50030, symSize: 0xE0 }
  - { offsetInCU: 0x57055, offset: 0x217C78, size: 0x8, addend: 0x0, symName: '__ZN4core3ptr62drop_in_place$LT$syn..path..AngleBracketedGenericArguments$GT$17hc5b69f68243636ddE', symObjAddr: 0x9AA0, symBinAddr: 0x50110, symSize: 0x120 }
  - { offsetInCU: 0x5746B, offset: 0x21808E, size: 0x8, addend: 0x0, symName: '__ZN4core3ptr63drop_in_place$LT$alloc..boxed..Box$LT$syn..lit..LitRepr$GT$$GT$17hd8839b7fb35ee7afE', symObjAddr: 0x9BC0, symBinAddr: 0x50230, symSize: 0x60 }
  - { offsetInCU: 0x57741, offset: 0x218364, size: 0x8, addend: 0x0, symName: '__ZN4core3ptr63drop_in_place$LT$alloc..vec..Vec$LT$syn..item..ImplItem$GT$$GT$17hda9ba61cc1df3d0eE', symObjAddr: 0x9C20, symBinAddr: 0x50290, symSize: 0x80 }
  - { offsetInCU: 0x579DE, offset: 0x218601, size: 0x8, addend: 0x0, symName: '__ZN4core3ptr64drop_in_place$LT$alloc..boxed..Box$LT$syn..item..UseTree$GT$$GT$17he10cba0a4742709fE', symObjAddr: 0x9CA0, symBinAddr: 0x50310, symSize: 0xF0 }
  - { offsetInCU: 0x57F1E, offset: 0x218B41, size: 0x8, addend: 0x0, symName: '__ZN4core3ptr64drop_in_place$LT$alloc..boxed..Box$LT$syn..pat..FieldPat$GT$$GT$17h4980b70a7597cc08E', symObjAddr: 0x9D90, symBinAddr: 0x50400, symSize: 0x140 }
  - { offsetInCU: 0x585C9, offset: 0x2191EC, size: 0x8, addend: 0x0, symName: '__ZN4core3ptr64drop_in_place$LT$alloc..boxed..Box$LT$syn..ty..BareFnArg$GT$$GT$17h8b34096c620314efE', symObjAddr: 0x9ED0, symBinAddr: 0x50540, symSize: 0x140 }
  - { offsetInCU: 0x58AED, offset: 0x219710, size: 0x8, addend: 0x0, symName: '__ZN4core3ptr64drop_in_place$LT$alloc..vec..Vec$LT$syn..attr..Attribute$GT$$GT$17h3c8f2a04e701c675E', symObjAddr: 0xA010, symBinAddr: 0x50680, symSize: 0xD0 }
  - { offsetInCU: 0x58D7A, offset: 0x21999D, size: 0x8, addend: 0x0, symName: '__ZN4core3ptr64drop_in_place$LT$alloc..vec..Vec$LT$syn..item..TraitItem$GT$$GT$17h60eb4b8666c57b93E', symObjAddr: 0xA0E0, symBinAddr: 0x50750, symSize: 0x80 }
  - { offsetInCU: 0x58FF8, offset: 0x219C1B, size: 0x8, addend: 0x0, symName: '__ZN4core3ptr65drop_in_place$LT$core..option..Option$LT$syn..expr..Label$GT$$GT$17h78189e72a8cb7951E', symObjAddr: 0xA160, symBinAddr: 0x507D0, symSize: 0x30 }
  - { offsetInCU: 0x59133, offset: 0x219D56, size: 0x8, addend: 0x0, symName: '__ZN4core3ptr66drop_in_place$LT$alloc..vec..Vec$LT$syn..item..ForeignItem$GT$$GT$17h3e58b8e683c84cf4E', symObjAddr: 0xA270, symBinAddr: 0x50800, symSize: 0x80 }
  - { offsetInCU: 0x593B1, offset: 0x219FD4, size: 0x8, addend: 0x0, symName: '__ZN4core3ptr66drop_in_place$LT$core..option..Option$LT$syn..pat..PatRest$GT$$GT$17h61677cf4ff3a7393E', symObjAddr: 0xA2F0, symBinAddr: 0x50880, symSize: 0xE0 }
  - { offsetInCU: 0x59635, offset: 0x21A258, size: 0x8, addend: 0x0, symName: '__ZN4core3ptr67drop_in_place$LT$alloc..boxed..Box$LT$syn..expr..FieldValue$GT$$GT$17h93aaccf8aa22ef88E', symObjAddr: 0xA3D0, symBinAddr: 0x50960, symSize: 0x140 }
  - { offsetInCU: 0x59B39, offset: 0x21A75C, size: 0x8, addend: 0x0, symName: '__ZN4core3ptr67drop_in_place$LT$core..option..Option$LT$proc_macro2..Ident$GT$$GT$17hec63a294be1dc410E', symObjAddr: 0xA510, symBinAddr: 0x50AA0, symSize: 0x30 }
  - { offsetInCU: 0x59C36, offset: 0x21A859, size: 0x8, addend: 0x0, symName: '__ZN4core3ptr68drop_in_place$LT$alloc..boxed..Box$LT$syn..path..PathSegment$GT$$GT$17h709dabdc13b58a71E', symObjAddr: 0xA540, symBinAddr: 0x50AD0, symSize: 0x190 }
  - { offsetInCU: 0x5A314, offset: 0x21AF37, size: 0x8, addend: 0x0, symName: '__ZN4core3ptr70drop_in_place$LT$core..option..Option$LT$syn..ty..BareVariadic$GT$$GT$17h45399348ea4b8d55E', symObjAddr: 0xA6F0, symBinAddr: 0x50C60, symSize: 0x120 }
  - { offsetInCU: 0x5A841, offset: 0x21B464, size: 0x8, addend: 0x0, symName: '__ZN4core3ptr72drop_in_place$LT$alloc..boxed..Box$LT$syn..path..GenericArgument$GT$$GT$17haa7dd8b716637b54E', symObjAddr: 0xA810, symBinAddr: 0x50D80, symSize: 0x1D0 }
  - { offsetInCU: 0x5ADE4, offset: 0x21BA07, size: 0x8, addend: 0x0, symName: '__ZN4core3ptr72drop_in_place$LT$core..option..Option$LT$syn..lifetime..Lifetime$GT$$GT$17hfc363ccdd8bd9c32E', symObjAddr: 0xA9E0, symBinAddr: 0x50F50, symSize: 0x30 }
  - { offsetInCU: 0x5AF00, offset: 0x21BB23, size: 0x8, addend: 0x0, symName: '__ZN4core3ptr73drop_in_place$LT$alloc..boxed..Box$LT$syn..generics..GenericParam$GT$$GT$17hf6951dcd5ae07324E', symObjAddr: 0xAA10, symBinAddr: 0x50F80, symSize: 0x80 }
  - { offsetInCU: 0x5B078, offset: 0x21BC9B, size: 0x8, addend: 0x0, symName: '__ZN4core3ptr75drop_in_place$LT$alloc..boxed..Box$LT$syn..generics..TypeParamBound$GT$$GT$17he61c00698a311a34E', symObjAddr: 0xAA90, symBinAddr: 0x51000, symSize: 0xB0 }
  - { offsetInCU: 0x5B3F2, offset: 0x21C015, size: 0x8, addend: 0x0, symName: '__ZN4core3ptr75drop_in_place$LT$core..option..Option$LT$syn..generics..WhereClause$GT$$GT$17hdce7670be9790a3dE', symObjAddr: 0xAB40, symBinAddr: 0x510B0, symSize: 0x90 }
  - { offsetInCU: 0x5B6A8, offset: 0x21C2CB, size: 0x8, addend: 0x0, symName: '__ZN4core3ptr86drop_in_place$LT$syn..punctuated..Punctuated$LT$syn..pat..Pat$C$syn..token..Or$GT$$GT$17h8e9173df21a44316E', symObjAddr: 0xABE0, symBinAddr: 0x51140, symSize: 0x120 }
  - { offsetInCU: 0x5BAEE, offset: 0x21C711, size: 0x8, addend: 0x0, symName: '__ZN4core3ptr87drop_in_place$LT$core..option..Option$LT$alloc..boxed..Box$LT$syn..pat..Pat$GT$$GT$$GT$17hd7b7c69f601b3926E', symObjAddr: 0xAD20, symBinAddr: 0x51260, symSize: 0x50 }
  - { offsetInCU: 0x5BC60, offset: 0x21C883, size: 0x8, addend: 0x0, symName: '__ZN4core3ptr87drop_in_place$LT$core..option..Option$LT$alloc..boxed..Box$LT$syn..ty..Type$GT$$GT$$GT$17hd74f5d971aec2972E', symObjAddr: 0xAD70, symBinAddr: 0x512B0, symSize: 0x50 }
  - { offsetInCU: 0x5BDD2, offset: 0x21C9F5, size: 0x8, addend: 0x0, symName: '__ZN4core3ptr89drop_in_place$LT$core..option..Option$LT$alloc..boxed..Box$LT$syn..expr..Expr$GT$$GT$$GT$17h8e135ac1a25a2dc5E', symObjAddr: 0xADE0, symBinAddr: 0x51300, symSize: 0x50 }
  - { offsetInCU: 0x5BF82, offset: 0x21CBA5, size: 0x8, addend: 0x0, symName: '__ZN4core3ptr89drop_in_place$LT$syn..punctuated..Punctuated$LT$syn..pat..Pat$C$syn..token..Comma$GT$$GT$17h8d60e47f3fb1f87aE', symObjAddr: 0xAE30, symBinAddr: 0x51350, symSize: 0x120 }
  - { offsetInCU: 0x5C3DF, offset: 0x21D002, size: 0x8, addend: 0x0, symName: '__ZN4core3ptr89drop_in_place$LT$syn..punctuated..Punctuated$LT$syn..ty..Type$C$syn..token..Comma$GT$$GT$17ha919b3114742fb9dE', symObjAddr: 0xAF50, symBinAddr: 0x51470, symSize: 0x120 }
  - { offsetInCU: 0x5C867, offset: 0x21D48A, size: 0x8, addend: 0x0, symName: '__ZN4core3ptr90drop_in_place$LT$core..option..Option$LT$alloc..boxed..Box$LT$syn..data..Field$GT$$GT$$GT$17h326c39537b0fcc46E', symObjAddr: 0xB070, symBinAddr: 0x51590, symSize: 0x200 }
  - { offsetInCU: 0x5D0D0, offset: 0x21DCF3, size: 0x8, addend: 0x0, symName: '__ZN4core3ptr90drop_in_place$LT$core..option..Option$LT$alloc..boxed..Box$LT$syn..item..FnArg$GT$$GT$$GT$17hbae3fdd388277508E', symObjAddr: 0xB270, symBinAddr: 0x51790, symSize: 0x60 }
  - { offsetInCU: 0x5D24C, offset: 0x21DE6F, size: 0x8, addend: 0x0, symName: '__ZN4core3ptr90drop_in_place$LT$core..option..Option$LT$syn..path..AngleBracketedGenericArguments$GT$$GT$17h80d9a5f0818c8bd9E', symObjAddr: 0xB2D0, symBinAddr: 0x517F0, symSize: 0x130 }
  - { offsetInCU: 0x5D6B7, offset: 0x21E2DA, size: 0x8, addend: 0x0, symName: '__ZN4core3ptr91drop_in_place$LT$syn..punctuated..Punctuated$LT$syn..expr..Expr$C$syn..token..Comma$GT$$GT$17h4f39b83dc86a4159E', symObjAddr: 0xB400, symBinAddr: 0x51920, symSize: 0x120 }
  - { offsetInCU: 0x5DB14, offset: 0x21E737, size: 0x8, addend: 0x0, symName: '__ZN4core3ptr92drop_in_place$LT$core..option..Option$LT$$LP$syn..token..As$C$proc_macro2..Ident$RP$$GT$$GT$17h5c1a47ccb35d9d7eE', symObjAddr: 0xB520, symBinAddr: 0x51A40, symSize: 0x30 }
  - { offsetInCU: 0x5DC6E, offset: 0x21E891, size: 0x8, addend: 0x0, symName: '__ZN4core3ptr92drop_in_place$LT$core..option..Option$LT$alloc..boxed..Box$LT$syn..data..Variant$GT$$GT$$GT$17h3f89d7c982191526E', symObjAddr: 0xB550, symBinAddr: 0x51A70, symSize: 0x190 }
  - { offsetInCU: 0x5E317, offset: 0x21EF3A, size: 0x8, addend: 0x0, symName: '__ZN4core3ptr92drop_in_place$LT$syn..punctuated..Punctuated$LT$syn..item..FnArg$C$syn..token..Comma$GT$$GT$17h75db9d232662c7d3E', symObjAddr: 0xB6E0, symBinAddr: 0x51C00, symSize: 0x140 }
  - { offsetInCU: 0x5E765, offset: 0x21F388, size: 0x8, addend: 0x0, symName: '__ZN4core3ptr94drop_in_place$LT$syn..punctuated..Punctuated$LT$syn..data..Variant$C$syn..token..Comma$GT$$GT$17ha69d7e675441c7e2E', symObjAddr: 0xB820, symBinAddr: 0x51D40, symSize: 0xE0 }
  - { offsetInCU: 0x5EA92, offset: 0x21F6B5, size: 0x8, addend: 0x0, symName: '__ZN4core3ptr94drop_in_place$LT$syn..punctuated..Punctuated$LT$syn..item..UseTree$C$syn..token..Comma$GT$$GT$17h4e4f303ffad9f549E', symObjAddr: 0xB900, symBinAddr: 0x51E20, symSize: 0xF0 }
  - { offsetInCU: 0x5EDA3, offset: 0x21F9C6, size: 0x8, addend: 0x0, symName: '__ZN4core3ptr94drop_in_place$LT$syn..punctuated..Punctuated$LT$syn..pat..FieldPat$C$syn..token..Comma$GT$$GT$17h112950ea198c8281E', symObjAddr: 0xB9F0, symBinAddr: 0x51F10, symSize: 0xF0 }
  - { offsetInCU: 0x5F06D, offset: 0x21FC90, size: 0x8, addend: 0x0, symName: '__ZN4core3ptr94drop_in_place$LT$syn..punctuated..Punctuated$LT$syn..ty..BareFnArg$C$syn..token..Comma$GT$$GT$17h1c7b44310f06243dE', symObjAddr: 0xBAE0, symBinAddr: 0x52000, symSize: 0xF0 }
  - { offsetInCU: 0x5F337, offset: 0x21FF5A, size: 0x8, addend: 0x0, symName: '__ZN4core3ptr96drop_in_place$LT$core..option..Option$LT$alloc..boxed..Box$LT$syn..path..PathSegment$GT$$GT$$GT$17hb447d0f626c86a4eE', symObjAddr: 0xBBD0, symBinAddr: 0x520F0, symSize: 0x90 }
  - { offsetInCU: 0x5F5B9, offset: 0x2201DC, size: 0x8, addend: 0x0, symName: '__ZN4core3ptr97drop_in_place$LT$syn..punctuated..Punctuated$LT$syn..expr..FieldValue$C$syn..token..Comma$GT$$GT$17h31b81f7462228dcbE', symObjAddr: 0xBC60, symBinAddr: 0x52180, symSize: 0xF0 }
  - { offsetInCU: 0x5F883, offset: 0x2204A6, size: 0x8, addend: 0x0, symName: '__ZN4core3ptr98drop_in_place$LT$alloc..vec..Vec$LT$$LP$syn..path..GenericArgument$C$syn..token..Comma$RP$$GT$$GT$17h0657ff261f33b640E', symObjAddr: 0xBD50, symBinAddr: 0x52270, symSize: 0xD0 }
  - { offsetInCU: 0x5FB8C, offset: 0x2207AF, size: 0x8, addend: 0x0, symName: '__ZN4core3ptr98drop_in_place$LT$syn..punctuated..Punctuated$LT$syn..lifetime..Lifetime$C$syn..token..Plus$GT$$GT$17h0f8fc5f20f465f47E', symObjAddr: 0xBE20, symBinAddr: 0x52340, symSize: 0xC0 }
  - { offsetInCU: 0x6C7DD, offset: 0x22D400, size: 0x8, addend: 0x0, symName: '__ZN5alloc3vec16Vec$LT$T$C$A$GT$4push17hee7056fca81de2b5E', symObjAddr: 0xC0D0, symBinAddr: 0x52400, symSize: 0x60 }
  - { offsetInCU: 0x6CA18, offset: 0x22D63B, size: 0x8, addend: 0x0, symName: '__ZN5alloc3vec16Vec$LT$T$C$A$GT$6append17h429b9c0d32835dc0E', symObjAddr: 0xC130, symBinAddr: 0x52460, symSize: 0x80 }
  - { offsetInCU: 0x6CCCD, offset: 0x22D8F0, size: 0x8, addend: 0x0, symName: __ZN3syn4item4Item13replace_attrs17hc89b3448d1af9bc5E, symObjAddr: 0xCC00, symBinAddr: 0x524E0, symSize: 0x1C0 }
  - { offsetInCU: 0x1E, offset: 0x23BA48, size: 0x8, addend: 0x0, symName: '__ZN4core3ptr100drop_in_place$LT$alloc..vec..Vec$LT$$LP$syn..generics..TypeParamBound$C$syn..token..Plus$RP$$GT$$GT$17h8b4df1d78e856f8eE.llvm.720949811486110776', symObjAddr: 0x0, symBinAddr: 0x672E0, symSize: 0xD0 }
  - { offsetInCU: 0x35, offset: 0x23BA5F, size: 0x8, addend: 0x0, symName: _anon.756ee204431677f15e0e7c03ad545a45.3.llvm.720949811486110776, symObjAddr: 0x12B48, symBinAddr: 0x2688C8, symSize: 0x0 }
  - { offsetInCU: 0x1320, offset: 0x23CD4A, size: 0x8, addend: 0x0, symName: '__ZN111_$LT$syn..punctuated..PrivateIter$LT$T$C$P$GT$$u20$as$u20$core..iter..traits..exact_size..ExactSizeIterator$GT$3len17hfca8917a1308f638E.llvm.720949811486110776', symObjAddr: 0x103F0, symBinAddr: 0x73F30, symSize: 0x0 }
  - { offsetInCU: 0x14A6, offset: 0x23CED0, size: 0x8, addend: 0x0, symName: '__ZN115_$LT$syn..punctuated..PrivateIter$LT$T$C$P$GT$$u20$as$u20$core..iter..traits..double_ended..DoubleEndedIterator$GT$9next_back17h4e161a362cd3236cE.llvm.720949811486110776', symObjAddr: 0x10310, symBinAddr: 0x73F00, symSize: 0x0 }
  - { offsetInCU: 0x18DA, offset: 0x23D304, size: 0x8, addend: 0x0, symName: '__ZN100_$LT$syn..punctuated..PrivateIter$LT$T$C$P$GT$$u20$as$u20$core..iter..traits..iterator..Iterator$GT$4next17h2288f88597771eccE.llvm.720949811486110776', symObjAddr: 0x101F0, symBinAddr: 0x73E70, symSize: 0x30 }
  - { offsetInCU: 0x1B6D, offset: 0x23D597, size: 0x8, addend: 0x0, symName: '__ZN100_$LT$syn..punctuated..PrivateIter$LT$T$C$P$GT$$u20$as$u20$core..iter..traits..iterator..Iterator$GT$4next17h2b2ca8d3435ec515E.llvm.720949811486110776', symObjAddr: 0x10220, symBinAddr: 0x73EA0, symSize: 0x30 }
  - { offsetInCU: 0x1E00, offset: 0x23D82A, size: 0x8, addend: 0x0, symName: '__ZN100_$LT$syn..punctuated..PrivateIter$LT$T$C$P$GT$$u20$as$u20$core..iter..traits..iterator..Iterator$GT$4next17h2b5c344e5c67057fE.llvm.720949811486110776', symObjAddr: 0x10250, symBinAddr: 0x73ED0, symSize: 0x0 }
  - { offsetInCU: 0x25B1, offset: 0x23DFDB, size: 0x8, addend: 0x0, symName: '__ZN79_$LT$syn..punctuated..Punctuated$LT$T$C$P$GT$$u20$as$u20$core..clone..Clone$GT$5clone17h1b6336e2635a9e8fE', symObjAddr: 0xC9B0, symBinAddr: 0x72AB0, symSize: 0x110 }
  - { offsetInCU: 0x29B4, offset: 0x23E3DE, size: 0x8, addend: 0x0, symName: '__ZN79_$LT$syn..punctuated..Punctuated$LT$T$C$P$GT$$u20$as$u20$core..clone..Clone$GT$5clone17h216d0cc9fdbbad96E', symObjAddr: 0xCAC0, symBinAddr: 0x72BC0, symSize: 0x2C0 }
  - { offsetInCU: 0x2EF6, offset: 0x23E920, size: 0x8, addend: 0x0, symName: '__ZN79_$LT$syn..punctuated..Punctuated$LT$T$C$P$GT$$u20$as$u20$core..clone..Clone$GT$5clone17h401205d976f2a24fE', symObjAddr: 0xCD80, symBinAddr: 0x72E80, symSize: 0xE0 }
  - { offsetInCU: 0x31C0, offset: 0x23EBEA, size: 0x8, addend: 0x0, symName: '__ZN79_$LT$syn..punctuated..Punctuated$LT$T$C$P$GT$$u20$as$u20$core..clone..Clone$GT$5clone17h46c0276e4a1ee5d5E', symObjAddr: 0xCE60, symBinAddr: 0x72F60, symSize: 0x230 }
  - { offsetInCU: 0x34EC, offset: 0x23EF16, size: 0x8, addend: 0x0, symName: '__ZN79_$LT$syn..punctuated..Punctuated$LT$T$C$P$GT$$u20$as$u20$core..clone..Clone$GT$5clone17h52bdce65b2924a44E', symObjAddr: 0xD170, symBinAddr: 0x73190, symSize: 0xE0 }
  - { offsetInCU: 0x37B6, offset: 0x23F1E0, size: 0x8, addend: 0x0, symName: '__ZN79_$LT$syn..punctuated..Punctuated$LT$T$C$P$GT$$u20$as$u20$core..clone..Clone$GT$5clone17h6e5c167729c6dc97E', symObjAddr: 0xD330, symBinAddr: 0x73270, symSize: 0x1C0 }
  - { offsetInCU: 0x3B00, offset: 0x23F52A, size: 0x8, addend: 0x0, symName: '__ZN79_$LT$syn..punctuated..Punctuated$LT$T$C$P$GT$$u20$as$u20$core..clone..Clone$GT$5clone17ha8c279133d54c43aE', symObjAddr: 0xD5F0, symBinAddr: 0x73430, symSize: 0xE0 }
  - { offsetInCU: 0x3DC9, offset: 0x23F7F3, size: 0x8, addend: 0x0, symName: '__ZN79_$LT$syn..punctuated..Punctuated$LT$T$C$P$GT$$u20$as$u20$core..clone..Clone$GT$5clone17hc59117e85ed64290E', symObjAddr: 0xD8B0, symBinAddr: 0x73510, symSize: 0xE0 }
  - { offsetInCU: 0x4093, offset: 0x23FABD, size: 0x8, addend: 0x0, symName: '__ZN79_$LT$syn..punctuated..Punctuated$LT$T$C$P$GT$$u20$as$u20$core..clone..Clone$GT$5clone17hca4078c0b112b9bbE', symObjAddr: 0xD990, symBinAddr: 0x735F0, symSize: 0x140 }
  - { offsetInCU: 0x4535, offset: 0x23FF5F, size: 0x8, addend: 0x0, symName: '__ZN79_$LT$syn..punctuated..Punctuated$LT$T$C$P$GT$$u20$as$u20$core..clone..Clone$GT$5clone17heb9ec5c115753a9eE', symObjAddr: 0xDAD0, symBinAddr: 0x73730, symSize: 0xE0 }
  - { offsetInCU: 0x47FF, offset: 0x240229, size: 0x8, addend: 0x0, symName: '__ZN79_$LT$syn..punctuated..Punctuated$LT$T$C$P$GT$$u20$as$u20$core..clone..Clone$GT$5clone17hfc802b453cbd89a2E', symObjAddr: 0xDBB0, symBinAddr: 0x73810, symSize: 0xE0 }
  - { offsetInCU: 0x4BED, offset: 0x240617, size: 0x8, addend: 0x0, symName: '__ZN138_$LT$syn..punctuated..Punctuated$LT$T$C$P$GT$$u20$as$u20$core..iter..traits..collect..Extend$LT$syn..punctuated..Pair$LT$T$C$P$GT$$GT$$GT$6extend17h0c12569780469b5fE', symObjAddr: 0xF390, symBinAddr: 0x738F0, symSize: 0x370 }
  - { offsetInCU: 0x50E2, offset: 0x240B0C, size: 0x8, addend: 0x0, symName: '__ZN102_$LT$syn..punctuated..Punctuated$LT$T$C$P$GT$$u20$as$u20$core..iter..traits..collect..IntoIterator$GT$9into_iter17h19dc66090da1f9fdE', symObjAddr: 0xFB40, symBinAddr: 0x73C60, symSize: 0x210 }
  - { offsetInCU: 0x6170, offset: 0x241B9A, size: 0x8, addend: 0x0, symName: '__ZN57_$LT$I$u20$as$u20$syn..punctuated..IterTrait$LT$T$GT$$GT$9clone_box17h362a9bc845fd49e4E.llvm.720949811486110776', symObjAddr: 0x10480, symBinAddr: 0x73F60, symSize: 0x60 }
  - { offsetInCU: 0x638A, offset: 0x241DB4, size: 0x8, addend: 0x0, symName: '__ZN97_$LT$syn..punctuated..Punctuated$LT$T$C$P$GT$$u20$as$u20$core..ops..index..Index$LT$usize$GT$$GT$5index17h4f8cb199669a0d4aE', symObjAddr: 0x105C0, symBinAddr: 0x73FC0, symSize: 0x40 }
  - { offsetInCU: 0x64D1, offset: 0x241EFB, size: 0x8, addend: 0x0, symName: '__ZN3syn10punctuated8printing91_$LT$impl$u20$quote..to_tokens..ToTokens$u20$for$u20$syn..punctuated..Pair$LT$T$C$P$GT$$GT$9to_tokens17h1946c43ec2d8cf8fE', symObjAddr: 0x10890, symBinAddr: 0x741B0, symSize: 0xC0 }
  - { offsetInCU: 0x66C3, offset: 0x2420ED, size: 0x8, addend: 0x0, symName: '__ZN3syn10punctuated8printing97_$LT$impl$u20$quote..to_tokens..ToTokens$u20$for$u20$syn..punctuated..Punctuated$LT$T$C$P$GT$$GT$9to_tokens17h183c223efb5c6660E', symObjAddr: 0x106E0, symBinAddr: 0x74000, symSize: 0x1B0 }
  - { offsetInCU: 0x1071B, offset: 0x24C145, size: 0x8, addend: 0x0, symName: '__ZN4core3ptr100drop_in_place$LT$alloc..vec..Vec$LT$$LP$syn..generics..TypeParamBound$C$syn..token..Plus$RP$$GT$$GT$17h8b4df1d78e856f8eE.llvm.720949811486110776', symObjAddr: 0x0, symBinAddr: 0x672E0, symSize: 0xD0 }
  - { offsetInCU: 0x109C7, offset: 0x24C3F1, size: 0x8, addend: 0x0, symName: '__ZN4core3ptr100drop_in_place$LT$core..option..Option$LT$alloc..boxed..Box$LT$syn..path..GenericArgument$GT$$GT$$GT$17h7435c9de74860622E.llvm.720949811486110776', symObjAddr: 0xD0, symBinAddr: 0x673B0, symSize: 0x50 }
  - { offsetInCU: 0x10BB5, offset: 0x24C5DF, size: 0x8, addend: 0x0, symName: '__ZN4core3ptr100drop_in_place$LT$syn..punctuated..Punctuated$LT$syn..path..PathSegment$C$syn..token..PathSep$GT$$GT$17hf414cb3581f8337aE', symObjAddr: 0x120, symBinAddr: 0x67400, symSize: 0x110 }
  - { offsetInCU: 0x10FD3, offset: 0x24C9FD, size: 0x8, addend: 0x0, symName: '__ZN4core3ptr101drop_in_place$LT$alloc..vec..Vec$LT$$LP$syn..generics..WherePredicate$C$syn..token..Comma$RP$$GT$$GT$17hb2169051094b4da6E.llvm.720949811486110776', symObjAddr: 0x230, symBinAddr: 0x67510, symSize: 0x60 }
  - { offsetInCU: 0x111DB, offset: 0x24CC05, size: 0x8, addend: 0x0, symName: '__ZN4core3ptr101drop_in_place$LT$syn..punctuated..PrivateIter$LT$syn..path..PathSegment$C$syn..token..PathSep$GT$$GT$17hf6d6997603b255a8E.llvm.720949811486110776', symObjAddr: 0x290, symBinAddr: 0x67570, symSize: 0x0 }
  - { offsetInCU: 0x11264, offset: 0x24CC8E, size: 0x8, addend: 0x0, symName: '__ZN4core3ptr102drop_in_place$LT$syn..punctuated..Punctuated$LT$syn..path..GenericArgument$C$syn..token..Comma$GT$$GT$17h39496ba4e6dba6cfE', symObjAddr: 0x2A0, symBinAddr: 0x67580, symSize: 0xF0 }
  - { offsetInCU: 0x1154D, offset: 0x24CF77, size: 0x8, addend: 0x0, symName: '__ZN4core3ptr103drop_in_place$LT$core..option..Option$LT$alloc..boxed..Box$LT$syn..generics..TypeParamBound$GT$$GT$$GT$17h5974f03e36b1a9c3E.llvm.720949811486110776', symObjAddr: 0x390, symBinAddr: 0x67670, symSize: 0x50 }
  - { offsetInCU: 0x1175A, offset: 0x24D184, size: 0x8, addend: 0x0, symName: '__ZN4core3ptr103drop_in_place$LT$syn..punctuated..Punctuated$LT$syn..generics..GenericParam$C$syn..token..Comma$GT$$GT$17hf42353fa44ed6da8E.llvm.720949811486110776', symObjAddr: 0x3E0, symBinAddr: 0x676C0, symSize: 0xF0 }
  - { offsetInCU: 0x11C7A, offset: 0x24D6A4, size: 0x8, addend: 0x0, symName: '__ZN4core3ptr104drop_in_place$LT$syn..punctuated..Punctuated$LT$syn..generics..TypeParamBound$C$syn..token..Plus$GT$$GT$17h532f52c4a894b056E.llvm.720949811486110776', symObjAddr: 0x4D0, symBinAddr: 0x677B0, symSize: 0x190 }
  - { offsetInCU: 0x122ED, offset: 0x24DD17, size: 0x8, addend: 0x0, symName: '__ZN4core3ptr34drop_in_place$LT$syn..lit..Lit$GT$17h8902f5ff67917034E', symObjAddr: 0x660, symBinAddr: 0x67940, symSize: 0x110 }
  - { offsetInCU: 0x12865, offset: 0x24E28F, size: 0x8, addend: 0x0, symName: '__ZN4core3ptr34drop_in_place$LT$syn..pat..Pat$GT$17h4581eea028ec0969E.llvm.720949811486110776', symObjAddr: 0x770, symBinAddr: 0x67A50, symSize: 0x1000 }
  - { offsetInCU: 0x163A9, offset: 0x251DD3, size: 0x8, addend: 0x0, symName: '__ZN4core3ptr34drop_in_place$LT$syn..ty..Type$GT$17h369e41ad4a9f1ae0E.llvm.720949811486110776', symObjAddr: 0x1770, symBinAddr: 0x68A50, symSize: 0x4F0 }
  - { offsetInCU: 0x17913, offset: 0x25333D, size: 0x8, addend: 0x0, symName: '__ZN4core3ptr36drop_in_place$LT$syn..expr..Expr$GT$17h0f7fd4c749bae801E.llvm.720949811486110776', symObjAddr: 0x1C70, symBinAddr: 0x68F40, symSize: 0x28C0 }
  - { offsetInCU: 0x20DB8, offset: 0x25C7E2, size: 0x8, addend: 0x0, symName: '__ZN4core3ptr36drop_in_place$LT$syn..mac..Macro$GT$17h4ffde962df30ebe2E', symObjAddr: 0x4530, symBinAddr: 0x6B800, symSize: 0x40 }
  - { offsetInCU: 0x20DF2, offset: 0x25C81C, size: 0x8, addend: 0x0, symName: '__ZN4core3ptr36drop_in_place$LT$syn..path..Path$GT$17habea856181211e1cE.llvm.720949811486110776', symObjAddr: 0x4570, symBinAddr: 0x6B840, symSize: 0xC0 }
  - { offsetInCU: 0x210CC, offset: 0x25CAF6, size: 0x8, addend: 0x0, symName: '__ZN4core3ptr37drop_in_place$LT$syn..data..Field$GT$17h8ecf6e22a67a3b36E.llvm.720949811486110776', symObjAddr: 0x4630, symBinAddr: 0x6B900, symSize: 0x140 }
  - { offsetInCU: 0x214E9, offset: 0x25CF13, size: 0x8, addend: 0x0, symName: '__ZN4core3ptr37drop_in_place$LT$syn..item..FnArg$GT$17h3308e115b3b3c9adE.llvm.720949811486110776', symObjAddr: 0x4770, symBinAddr: 0x6BA40, symSize: 0x280 }
  - { offsetInCU: 0x21EC5, offset: 0x25D8EF, size: 0x8, addend: 0x0, symName: '__ZN4core3ptr37drop_in_place$LT$syn..stmt..Block$GT$17hcc21a21cf949414cE', symObjAddr: 0x49F0, symBinAddr: 0x6BCC0, symSize: 0xD0 }
  - { offsetInCU: 0x22169, offset: 0x25DB93, size: 0x8, addend: 0x0, symName: '__ZN4core3ptr38drop_in_place$LT$syn..expr..Member$GT$17h022cbe5553aa40faE.llvm.720949811486110776', symObjAddr: 0x4AC0, symBinAddr: 0x6BD90, symSize: 0x30 }
  - { offsetInCU: 0x22266, offset: 0x25DC90, size: 0x8, addend: 0x0, symName: '__ZN4core3ptr39drop_in_place$LT$proc_macro2..Ident$GT$17h8101e88c3ac359d6E.llvm.720949811486110776', symObjAddr: 0x4AF0, symBinAddr: 0x6BDC0, symSize: 0x30 }
  - { offsetInCU: 0x223A1, offset: 0x25DDCB, size: 0x8, addend: 0x0, symName: '__ZN4core3ptr39drop_in_place$LT$syn..data..Variant$GT$17h7bd4c363751fc860E', symObjAddr: 0x4B20, symBinAddr: 0x6BDF0, symSize: 0x150 }
  - { offsetInCU: 0x228F1, offset: 0x25E31B, size: 0x8, addend: 0x0, symName: '__ZN4core3ptr39drop_in_place$LT$syn..item..UseTree$GT$17h5b1281a5704d139dE.llvm.720949811486110776', symObjAddr: 0x4C70, symBinAddr: 0x6BF40, symSize: 0x1D0 }
  - { offsetInCU: 0x22FF1, offset: 0x25EA1B, size: 0x8, addend: 0x0, symName: '__ZN4core3ptr39drop_in_place$LT$syn..pat..FieldPat$GT$17h6890d0559a60b030E.llvm.720949811486110776', symObjAddr: 0x4E40, symBinAddr: 0x6C110, symSize: 0x130 }
  - { offsetInCU: 0x23533, offset: 0x25EF5D, size: 0x8, addend: 0x0, symName: '__ZN4core3ptr39drop_in_place$LT$syn..ty..BareFnArg$GT$17hac0a1b8fd6f7ad3cE.llvm.720949811486110776', symObjAddr: 0x4F70, symBinAddr: 0x6C240, symSize: 0x110 }
  - { offsetInCU: 0x238FF, offset: 0x25F329, size: 0x8, addend: 0x0, symName: '__ZN4core3ptr40drop_in_place$LT$syn..ty..ReturnType$GT$17h02cf41e2fec63d90E', symObjAddr: 0x5080, symBinAddr: 0x6C350, symSize: 0x50 }
  - { offsetInCU: 0x23A71, offset: 0x25F49B, size: 0x8, addend: 0x0, symName: '__ZN4core3ptr41drop_in_place$LT$syn..expr..ExprConst$GT$17h725a13e551d9f276E', symObjAddr: 0x50D0, symBinAddr: 0x6C3A0, symSize: 0x180 }
  - { offsetInCU: 0x23FC6, offset: 0x25F9F0, size: 0x8, addend: 0x0, symName: '__ZN4core3ptr42drop_in_place$LT$syn..expr..FieldValue$GT$17h26d594bfbe912662E.llvm.720949811486110776', symObjAddr: 0x5250, symBinAddr: 0x6C520, symSize: 0x110 }
  - { offsetInCU: 0x243B0, offset: 0x25FDDA, size: 0x8, addend: 0x0, symName: '__ZN4core3ptr43drop_in_place$LT$syn..path..PathSegment$GT$17h62e206c29667de7cE.llvm.720949811486110776', symObjAddr: 0x5360, symBinAddr: 0x6C630, symSize: 0x170 }
  - { offsetInCU: 0x248E2, offset: 0x26030C, size: 0x8, addend: 0x0, symName: '__ZN4core3ptr44drop_in_place$LT$syn..lifetime..Lifetime$GT$17hf0cdec2e9ec456d6E.llvm.720949811486110776', symObjAddr: 0x54D0, symBinAddr: 0x6C7A0, symSize: 0x30 }
  - { offsetInCU: 0x24B15, offset: 0x26053F, size: 0x8, addend: 0x0, symName: '__ZN4core3ptr45drop_in_place$LT$proc_macro2..TokenStream$GT$17h3405f6c513e9f6cbE.llvm.720949811486110776', symObjAddr: 0x5500, symBinAddr: 0x6C7D0, symSize: 0x140 }
  - { offsetInCU: 0x24F84, offset: 0x2609AE, size: 0x8, addend: 0x0, symName: '__ZN4core3ptr45drop_in_place$LT$syn..generics..TypeParam$GT$17he5eda51070b7de47E.llvm.720949811486110776', symObjAddr: 0x5640, symBinAddr: 0x6C910, symSize: 0x230 }
  - { offsetInCU: 0x25780, offset: 0x2611AA, size: 0x8, addend: 0x0, symName: '__ZN4core3ptr46drop_in_place$LT$syn..generics..ConstParam$GT$17hab0a58c4af8c549cE.llvm.720949811486110776', symObjAddr: 0x5870, symBinAddr: 0x6CB40, symSize: 0x150 }
  - { offsetInCU: 0x25BAA, offset: 0x2615D4, size: 0x8, addend: 0x0, symName: '__ZN4core3ptr47drop_in_place$LT$syn..path..GenericArgument$GT$17h54f8794633f96823E.llvm.720949811486110776', symObjAddr: 0x59C0, symBinAddr: 0x6CC90, symSize: 0x460 }
  - { offsetInCU: 0x268B3, offset: 0x2622DD, size: 0x8, addend: 0x0, symName: '__ZN4core3ptr48drop_in_place$LT$syn..generics..GenericParam$GT$17h9c895978ef08f584E.llvm.720949811486110776', symObjAddr: 0x5E20, symBinAddr: 0x6D0F0, symSize: 0x40 }
  - { offsetInCU: 0x268D0, offset: 0x2622FA, size: 0x8, addend: 0x0, symName: '__ZN4core3ptr49drop_in_place$LT$syn..generics..LifetimeParam$GT$17h41a7c7a290ea6289E.llvm.720949811486110776', symObjAddr: 0x5E60, symBinAddr: 0x6D130, symSize: 0xF0 }
  - { offsetInCU: 0x26CC8, offset: 0x2626F2, size: 0x8, addend: 0x0, symName: '__ZN4core3ptr49drop_in_place$LT$syn..restriction..Visibility$GT$17h2a932c493942ef80E', symObjAddr: 0x5F50, symBinAddr: 0x6D220, symSize: 0x110 }
  - { offsetInCU: 0x270FB, offset: 0x262B25, size: 0x8, addend: 0x0, symName: '__ZN4core3ptr50drop_in_place$LT$syn..generics..TypeParamBound$GT$17hcd7771d4c6c221efE.llvm.720949811486110776', symObjAddr: 0x6060, symBinAddr: 0x6D330, symSize: 0x160 }
  - { offsetInCU: 0x27559, offset: 0x262F83, size: 0x8, addend: 0x0, symName: '__ZN4core3ptr50drop_in_place$LT$syn..generics..WherePredicate$GT$17h1a9d05bc1beb1d91E.llvm.720949811486110776', symObjAddr: 0x61C0, symBinAddr: 0x6D490, symSize: 0xA0 }
  - { offsetInCU: 0x276FA, offset: 0x263124, size: 0x8, addend: 0x0, symName: '__ZN4core3ptr58drop_in_place$LT$alloc..vec..Vec$LT$syn..expr..Arm$GT$$GT$17h1a55df3d2cba1daaE', symObjAddr: 0x6260, symBinAddr: 0x6D530, symSize: 0xD0 }
  - { offsetInCU: 0x27987, offset: 0x2633B1, size: 0x8, addend: 0x0, symName: '__ZN4core3ptr59drop_in_place$LT$alloc..boxed..Box$LT$syn..pat..Pat$GT$$GT$17h563b135d87aca8abE.llvm.720949811486110776', symObjAddr: 0x6330, symBinAddr: 0x6D600, symSize: 0x50 }
  - { offsetInCU: 0x27AE2, offset: 0x26350C, size: 0x8, addend: 0x0, symName: '__ZN4core3ptr59drop_in_place$LT$alloc..boxed..Box$LT$syn..ty..Type$GT$$GT$17hffed36bad83adacbE.llvm.720949811486110776', symObjAddr: 0x6380, symBinAddr: 0x6D650, symSize: 0x50 }
  - { offsetInCU: 0x27C3D, offset: 0x263667, size: 0x8, addend: 0x0, symName: '__ZN4core3ptr61drop_in_place$LT$alloc..boxed..Box$LT$syn..expr..Expr$GT$$GT$17h01091e47f131475dE.llvm.720949811486110776', symObjAddr: 0x64A0, symBinAddr: 0x6D6A0, symSize: 0x50 }
  - { offsetInCU: 0x27E14, offset: 0x26383E, size: 0x8, addend: 0x0, symName: '__ZN4core3ptr61drop_in_place$LT$syn..path..ParenthesizedGenericArguments$GT$17h43d4aac5494326a7E.llvm.720949811486110776', symObjAddr: 0x64F0, symBinAddr: 0x6D6F0, symSize: 0x170 }
  - { offsetInCU: 0x283EE, offset: 0x263E18, size: 0x8, addend: 0x0, symName: '__ZN4core3ptr63drop_in_place$LT$alloc..boxed..Box$LT$syn..lit..LitRepr$GT$$GT$17hd8839b7fb35ee7afE', symObjAddr: 0x6700, symBinAddr: 0x6D860, symSize: 0x60 }
  - { offsetInCU: 0x286C4, offset: 0x2640EE, size: 0x8, addend: 0x0, symName: '__ZN4core3ptr64drop_in_place$LT$alloc..boxed..Box$LT$syn..item..UseTree$GT$$GT$17he10cba0a4742709fE', symObjAddr: 0x67B0, symBinAddr: 0x6D8C0, symSize: 0x50 }
  - { offsetInCU: 0x2883E, offset: 0x264268, size: 0x8, addend: 0x0, symName: '__ZN4core3ptr64drop_in_place$LT$alloc..boxed..Box$LT$syn..pat..FieldPat$GT$$GT$17h4980b70a7597cc08E', symObjAddr: 0x6800, symBinAddr: 0x6D910, symSize: 0x140 }
  - { offsetInCU: 0x28EAB, offset: 0x2648D5, size: 0x8, addend: 0x0, symName: '__ZN4core3ptr64drop_in_place$LT$alloc..boxed..Box$LT$syn..ty..BareFnArg$GT$$GT$17h8b34096c620314efE', symObjAddr: 0x6940, symBinAddr: 0x6DA50, symSize: 0x140 }
  - { offsetInCU: 0x293CF, offset: 0x264DF9, size: 0x8, addend: 0x0, symName: '__ZN4core3ptr65drop_in_place$LT$core..option..Option$LT$syn..expr..Label$GT$$GT$17h78189e72a8cb7951E', symObjAddr: 0x6A80, symBinAddr: 0x6DB90, symSize: 0x30 }
  - { offsetInCU: 0x2950A, offset: 0x264F34, size: 0x8, addend: 0x0, symName: '__ZN4core3ptr66drop_in_place$LT$core..option..Option$LT$syn..pat..PatRest$GT$$GT$17h61677cf4ff3a7393E', symObjAddr: 0x6AB0, symBinAddr: 0x6DBC0, symSize: 0xE0 }
  - { offsetInCU: 0x2978E, offset: 0x2651B8, size: 0x8, addend: 0x0, symName: '__ZN4core3ptr67drop_in_place$LT$alloc..boxed..Box$LT$syn..expr..FieldValue$GT$$GT$17h93aaccf8aa22ef88E', symObjAddr: 0x6B90, symBinAddr: 0x6DCA0, symSize: 0x140 }
  - { offsetInCU: 0x29CB1, offset: 0x2656DB, size: 0x8, addend: 0x0, symName: '__ZN4core3ptr70drop_in_place$LT$core..option..Option$LT$syn..ty..BareVariadic$GT$$GT$17h45399348ea4b8d55E', symObjAddr: 0x6D60, symBinAddr: 0x6DDE0, symSize: 0x120 }
  - { offsetInCU: 0x2A1DE, offset: 0x265C08, size: 0x8, addend: 0x0, symName: '__ZN4core3ptr72drop_in_place$LT$alloc..boxed..Box$LT$syn..path..GenericArgument$GT$$GT$17haa7dd8b716637b54E', symObjAddr: 0x6E80, symBinAddr: 0x6DF00, symSize: 0x2B0 }
  - { offsetInCU: 0x2ABC9, offset: 0x2665F3, size: 0x8, addend: 0x0, symName: '__ZN4core3ptr73drop_in_place$LT$alloc..boxed..Box$LT$syn..generics..GenericParam$GT$$GT$17hf6951dcd5ae07324E.llvm.720949811486110776', symObjAddr: 0x7130, symBinAddr: 0x6E1B0, symSize: 0x80 }
  - { offsetInCU: 0x2AD60, offset: 0x26678A, size: 0x8, addend: 0x0, symName: '__ZN4core3ptr73drop_in_place$LT$alloc..vec..Vec$LT$syn..generics..TypeParamBound$GT$$GT$17hdab4c0986d98765bE.llvm.720949811486110776', symObjAddr: 0x71B0, symBinAddr: 0x6E230, symSize: 0xC0 }
  - { offsetInCU: 0x2B000, offset: 0x266A2A, size: 0x8, addend: 0x0, symName: '__ZN4core3ptr75drop_in_place$LT$alloc..boxed..Box$LT$syn..generics..TypeParamBound$GT$$GT$17he61c00698a311a34E', symObjAddr: 0x7270, symBinAddr: 0x6E2F0, symSize: 0xB0 }
  - { offsetInCU: 0x2B2FE, offset: 0x266D28, size: 0x8, addend: 0x0, symName: '__ZN4core3ptr76drop_in_place$LT$$LP$syn..generics..GenericParam$C$syn..token..Comma$RP$$GT$17hadd4ee9dc4c521adE.llvm.720949811486110776', symObjAddr: 0x7370, symBinAddr: 0x6E3A0, symSize: 0x40 }
  - { offsetInCU: 0x2B36C, offset: 0x266D96, size: 0x8, addend: 0x0, symName: '__ZN4core3ptr82drop_in_place$LT$alloc..vec..Vec$LT$$LP$syn..pat..Pat$C$syn..token..Or$RP$$GT$$GT$17h79250e525f9bf0e5E.llvm.720949811486110776', symObjAddr: 0x7480, symBinAddr: 0x6E3E0, symSize: 0x0 }
  - { offsetInCU: 0x2B62D, offset: 0x267057, size: 0x8, addend: 0x0, symName: '__ZN4core3ptr85drop_in_place$LT$alloc..vec..Vec$LT$$LP$syn..ty..Type$C$syn..token..Comma$RP$$GT$$GT$17hf6a59a148065f17dE.llvm.720949811486110776', symObjAddr: 0x7550, symBinAddr: 0x6E4B0, symSize: 0xD0 }
  - { offsetInCU: 0x2B92C, offset: 0x267356, size: 0x8, addend: 0x0, symName: '__ZN4core3ptr86drop_in_place$LT$syn..punctuated..Punctuated$LT$syn..pat..Pat$C$syn..token..Or$GT$$GT$17h8e9173df21a44316E', symObjAddr: 0x7620, symBinAddr: 0x6E580, symSize: 0x120 }
  - { offsetInCU: 0x2BD91, offset: 0x2677BB, size: 0x8, addend: 0x0, symName: '__ZN4core3ptr87drop_in_place$LT$alloc..vec..Vec$LT$$LP$syn..expr..Expr$C$syn..token..Comma$RP$$GT$$GT$17hbf3f4cd50fb0b0ecE.llvm.720949811486110776', symObjAddr: 0x7740, symBinAddr: 0x6E6A0, symSize: 0xD0 }
  - { offsetInCU: 0x2C052, offset: 0x267A7C, size: 0x8, addend: 0x0, symName: '__ZN4core3ptr87drop_in_place$LT$core..option..Option$LT$alloc..boxed..Box$LT$syn..pat..Pat$GT$$GT$$GT$17hd7b7c69f601b3926E', symObjAddr: 0x7810, symBinAddr: 0x6E770, symSize: 0x50 }
  - { offsetInCU: 0x2C1C4, offset: 0x267BEE, size: 0x8, addend: 0x0, symName: '__ZN4core3ptr87drop_in_place$LT$core..option..Option$LT$alloc..boxed..Box$LT$syn..ty..Type$GT$$GT$$GT$17hd74f5d971aec2972E.llvm.720949811486110776', symObjAddr: 0x7860, symBinAddr: 0x6E7C0, symSize: 0x50 }
  - { offsetInCU: 0x2C355, offset: 0x267D7F, size: 0x8, addend: 0x0, symName: '__ZN4core3ptr88drop_in_place$LT$alloc..vec..Vec$LT$$LP$syn..data..Field$C$syn..token..Comma$RP$$GT$$GT$17h02f4d88f184a75f6E.llvm.720949811486110776', symObjAddr: 0x78B0, symBinAddr: 0x6E810, symSize: 0xD0 }
  - { offsetInCU: 0x2C635, offset: 0x26805F, size: 0x8, addend: 0x0, symName: '__ZN4core3ptr88drop_in_place$LT$alloc..vec..Vec$LT$$LP$syn..item..FnArg$C$syn..token..Comma$RP$$GT$$GT$17h9235dca64c193d6aE.llvm.720949811486110776', symObjAddr: 0x7980, symBinAddr: 0x6E8E0, symSize: 0xE0 }
  - { offsetInCU: 0x2C903, offset: 0x26832D, size: 0x8, addend: 0x0, symName: '__ZN4core3ptr89drop_in_place$LT$core..option..Option$LT$alloc..boxed..Box$LT$syn..expr..Expr$GT$$GT$$GT$17h8e135ac1a25a2dc5E', symObjAddr: 0x7A60, symBinAddr: 0x6E9C0, symSize: 0x50 }
  - { offsetInCU: 0x2CAB3, offset: 0x2684DD, size: 0x8, addend: 0x0, symName: '__ZN4core3ptr89drop_in_place$LT$syn..punctuated..Punctuated$LT$syn..pat..Pat$C$syn..token..Comma$GT$$GT$17h8d60e47f3fb1f87aE', symObjAddr: 0x7AB0, symBinAddr: 0x6EA10, symSize: 0x120 }
  - { offsetInCU: 0x2CF10, offset: 0x26893A, size: 0x8, addend: 0x0, symName: '__ZN4core3ptr89drop_in_place$LT$syn..punctuated..Punctuated$LT$syn..ty..Type$C$syn..token..Comma$GT$$GT$17ha919b3114742fb9dE.llvm.720949811486110776', symObjAddr: 0x7BD0, symBinAddr: 0x6EB30, symSize: 0x120 }
  - { offsetInCU: 0x2D379, offset: 0x268DA3, size: 0x8, addend: 0x0, symName: '__ZN4core3ptr90drop_in_place$LT$alloc..vec..Vec$LT$$LP$syn..data..Variant$C$syn..token..Comma$RP$$GT$$GT$17h680219081cc43a7dE.llvm.720949811486110776', symObjAddr: 0x7CF0, symBinAddr: 0x6EC50, symSize: 0xD0 }
  - { offsetInCU: 0x2D63A, offset: 0x269064, size: 0x8, addend: 0x0, symName: '__ZN4core3ptr90drop_in_place$LT$alloc..vec..Vec$LT$$LP$syn..item..UseTree$C$syn..token..Comma$RP$$GT$$GT$17hac2434f3c2e2707dE.llvm.720949811486110776', symObjAddr: 0x7DC0, symBinAddr: 0x6ED20, symSize: 0xD0 }
  - { offsetInCU: 0x2D8FB, offset: 0x269325, size: 0x8, addend: 0x0, symName: '__ZN4core3ptr90drop_in_place$LT$alloc..vec..Vec$LT$$LP$syn..pat..FieldPat$C$syn..token..Comma$RP$$GT$$GT$17hb84c43e95b74d098E.llvm.720949811486110776', symObjAddr: 0x7E90, symBinAddr: 0x6EDF0, symSize: 0xD0 }
  - { offsetInCU: 0x2DB88, offset: 0x2695B2, size: 0x8, addend: 0x0, symName: '__ZN4core3ptr90drop_in_place$LT$alloc..vec..Vec$LT$$LP$syn..ty..BareFnArg$C$syn..token..Comma$RP$$GT$$GT$17ha1bf96fdde0de332E.llvm.720949811486110776', symObjAddr: 0x7F60, symBinAddr: 0x6EEC0, symSize: 0xD0 }
  - { offsetInCU: 0x2DE34, offset: 0x26985E, size: 0x8, addend: 0x0, symName: '__ZN4core3ptr90drop_in_place$LT$core..option..Option$LT$alloc..boxed..Box$LT$syn..data..Field$GT$$GT$$GT$17h326c39537b0fcc46E.llvm.720949811486110776', symObjAddr: 0x8030, symBinAddr: 0x6EF90, symSize: 0x50 }
  - { offsetInCU: 0x2DFB8, offset: 0x2699E2, size: 0x8, addend: 0x0, symName: '__ZN4core3ptr91drop_in_place$LT$syn..punctuated..Punctuated$LT$syn..expr..Expr$C$syn..token..Comma$GT$$GT$17h4f39b83dc86a4159E.llvm.720949811486110776', symObjAddr: 0x8080, symBinAddr: 0x6EFE0, symSize: 0x120 }
  - { offsetInCU: 0x2E434, offset: 0x269E5E, size: 0x8, addend: 0x0, symName: '__ZN4core3ptr92drop_in_place$LT$core..option..Option$LT$alloc..boxed..Box$LT$syn..data..Variant$GT$$GT$$GT$17h3f89d7c982191526E', symObjAddr: 0x81A0, symBinAddr: 0x6F100, symSize: 0x50 }
  - { offsetInCU: 0x2E5D7, offset: 0x26A001, size: 0x8, addend: 0x0, symName: '__ZN4core3ptr92drop_in_place$LT$syn..punctuated..Punctuated$LT$syn..data..Field$C$syn..token..Comma$GT$$GT$17hca76f5e010a141e5E', symObjAddr: 0x81F0, symBinAddr: 0x6F150, symSize: 0x120 }
  - { offsetInCU: 0x2EA14, offset: 0x26A43E, size: 0x8, addend: 0x0, symName: '__ZN4core3ptr93drop_in_place$LT$alloc..vec..Vec$LT$$LP$syn..expr..FieldValue$C$syn..token..Comma$RP$$GT$$GT$17h9295f6966e75a214E.llvm.720949811486110776', symObjAddr: 0x8310, symBinAddr: 0x6F270, symSize: 0xD0 }
  - { offsetInCU: 0x2ECC0, offset: 0x26A6EA, size: 0x8, addend: 0x0, symName: '__ZN4core3ptr94drop_in_place$LT$alloc..vec..Vec$LT$$LP$syn..lifetime..Lifetime$C$syn..token..Plus$RP$$GT$$GT$17h5bdaba7f0fbee773E.llvm.720949811486110776', symObjAddr: 0x83E0, symBinAddr: 0x6F340, symSize: 0x80 }
  - { offsetInCU: 0x2EF85, offset: 0x26A9AF, size: 0x8, addend: 0x0, symName: '__ZN4core3ptr94drop_in_place$LT$syn..punctuated..Punctuated$LT$syn..data..Variant$C$syn..token..Comma$GT$$GT$17ha69d7e675441c7e2E', symObjAddr: 0x8460, symBinAddr: 0x6F3C0, symSize: 0x120 }
  - { offsetInCU: 0x2F3C2, offset: 0x26ADEC, size: 0x8, addend: 0x0, symName: '__ZN4core3ptr94drop_in_place$LT$syn..punctuated..Punctuated$LT$syn..pat..FieldPat$C$syn..token..Comma$GT$$GT$17h112950ea198c8281E', symObjAddr: 0x8580, symBinAddr: 0x6F4E0, symSize: 0xF0 }
  - { offsetInCU: 0x2F68C, offset: 0x26B0B6, size: 0x8, addend: 0x0, symName: '__ZN4core3ptr94drop_in_place$LT$syn..punctuated..Punctuated$LT$syn..ty..BareFnArg$C$syn..token..Comma$GT$$GT$17h1c7b44310f06243dE', symObjAddr: 0x8670, symBinAddr: 0x6F5D0, symSize: 0xF0 }
  - { offsetInCU: 0x2F956, offset: 0x26B380, size: 0x8, addend: 0x0, symName: '__ZN4core3ptr95drop_in_place$LT$core..option..Option$LT$$LP$proc_macro2..Ident$C$syn..token..Colon$RP$$GT$$GT$17ha744bf0f41959716E.llvm.720949811486110776', symObjAddr: 0x8760, symBinAddr: 0x6F6C0, symSize: 0x30 }
  - { offsetInCU: 0x2FA72, offset: 0x26B49C, size: 0x8, addend: 0x0, symName: '__ZN4core3ptr96drop_in_place$LT$alloc..vec..Vec$LT$$LP$syn..path..PathSegment$C$syn..token..PathSep$RP$$GT$$GT$17h42880a1541c295f5E.llvm.720949811486110776', symObjAddr: 0x8790, symBinAddr: 0x6F6F0, symSize: 0xC0 }
  - { offsetInCU: 0x2FD1E, offset: 0x26B748, size: 0x8, addend: 0x0, symName: '__ZN4core3ptr96drop_in_place$LT$core..option..Option$LT$alloc..boxed..Box$LT$syn..path..PathSegment$GT$$GT$$GT$17hb447d0f626c86a4eE.llvm.720949811486110776', symObjAddr: 0x8850, symBinAddr: 0x6F7B0, symSize: 0x180 }
  - { offsetInCU: 0x303CE, offset: 0x26BDF8, size: 0x8, addend: 0x0, symName: '__ZN4core3ptr97drop_in_place$LT$syn..punctuated..Punctuated$LT$syn..expr..FieldValue$C$syn..token..Comma$GT$$GT$17h31b81f7462228dcbE', symObjAddr: 0x8A20, symBinAddr: 0x6F930, symSize: 0xF0 }
  - { offsetInCU: 0x30698, offset: 0x26C0C2, size: 0x8, addend: 0x0, symName: '__ZN4core3ptr98drop_in_place$LT$alloc..vec..Vec$LT$$LP$syn..path..GenericArgument$C$syn..token..Comma$RP$$GT$$GT$17h0657ff261f33b640E.llvm.720949811486110776', symObjAddr: 0x8B10, symBinAddr: 0x6FA20, symSize: 0xD0 }
  - { offsetInCU: 0x30963, offset: 0x26C38D, size: 0x8, addend: 0x0, symName: '__ZN4core3ptr98drop_in_place$LT$syn..punctuated..Punctuated$LT$syn..lifetime..Lifetime$C$syn..token..Plus$GT$$GT$17h0f8fc5f20f465f47E.llvm.720949811486110776', symObjAddr: 0x8BE0, symBinAddr: 0x6FAF0, symSize: 0xC0 }
  - { offsetInCU: 0x30DDB, offset: 0x26C805, size: 0x8, addend: 0x0, symName: '__ZN4core3ptr99drop_in_place$LT$alloc..vec..Vec$LT$$LP$syn..generics..GenericParam$C$syn..token..Comma$RP$$GT$$GT$17h80db164c829d38feE.llvm.720949811486110776', symObjAddr: 0x8CA0, symBinAddr: 0x6FBB0, symSize: 0x60 }
  - { offsetInCU: 0x3104C, offset: 0x26CA76, size: 0x8, addend: 0x0, symName: '__ZN4core3ptr99drop_in_place$LT$syn..punctuated..IntoPairs$LT$syn..path..PathSegment$C$syn..token..PathSep$GT$$GT$17h4470f4520ed6b72cE', symObjAddr: 0x8D00, symBinAddr: 0x6FC10, symSize: 0x50 }
  - { offsetInCU: 0x389A2, offset: 0x2743CC, size: 0x8, addend: 0x0, symName: __ZN4core4iter6traits10exact_size17ExactSizeIterator8is_empty17h35ee032e6e88d349E.llvm.720949811486110776, symObjAddr: 0x8D50, symBinAddr: 0x6FC60, symSize: 0x0 }
  - { offsetInCU: 0x38AF1, offset: 0x27451B, size: 0x8, addend: 0x0, symName: __ZN4core4iter6traits12double_ended19DoubleEndedIterator15advance_back_by17h4d1e2015fdf30f06E.llvm.720949811486110776, symObjAddr: 0x8E00, symBinAddr: 0x6FC90, symSize: 0x0 }
  - { offsetInCU: 0x38D41, offset: 0x27476B, size: 0x8, addend: 0x0, symName: __ZN4core4iter6traits12double_ended19DoubleEndedIterator8nth_back17h5a89a76496a5f1f6E.llvm.720949811486110776, symObjAddr: 0x9090, symBinAddr: 0x6FD10, symSize: 0x0 }
  - { offsetInCU: 0x391FC, offset: 0x274C26, size: 0x8, addend: 0x0, symName: __ZN4core4iter6traits8iterator8Iterator10advance_by17h81fbac6663af7f06E.llvm.720949811486110776, symObjAddr: 0x9370, symBinAddr: 0x6FDC0, symSize: 0x0 }
  - { offsetInCU: 0x39598, offset: 0x274FC2, size: 0x8, addend: 0x0, symName: __ZN4core4iter6traits8iterator8Iterator3nth17h2760078497cfc6daE.llvm.720949811486110776, symObjAddr: 0x9450, symBinAddr: 0x6FE30, symSize: 0x0 }
  - { offsetInCU: 0x39B62, offset: 0x27558C, size: 0x8, addend: 0x0, symName: __ZN4core4iter6traits8iterator8Iterator9size_hint17h27d36cc3f9874dd4E.llvm.720949811486110776, symObjAddr: 0x9650, symBinAddr: 0x6FEB0, symSize: 0x0 }
  - { offsetInCU: 0x3D243, offset: 0x278C6D, size: 0x8, addend: 0x0, symName: '__ZN3syn10punctuated23Punctuated$LT$T$C$P$GT$10push_value17h1464794b59e71484E', symObjAddr: 0x9CF0, symBinAddr: 0x6FED0, symSize: 0x110 }
  - { offsetInCU: 0x3D4BE, offset: 0x278EE8, size: 0x8, addend: 0x0, symName: '__ZN3syn10punctuated23Punctuated$LT$T$C$P$GT$10push_value17h19b8fd7bec07dcc7E', symObjAddr: 0x9E00, symBinAddr: 0x6FFE0, symSize: 0x0 }
  - { offsetInCU: 0x3D753, offset: 0x27917D, size: 0x8, addend: 0x0, symName: '__ZN3syn10punctuated23Punctuated$LT$T$C$P$GT$10push_value17h2ac8ee7d941e7bd6E', symObjAddr: 0x9F10, symBinAddr: 0x700F0, symSize: 0x110 }
  - { offsetInCU: 0x3D9CE, offset: 0x2793F8, size: 0x8, addend: 0x0, symName: '__ZN3syn10punctuated23Punctuated$LT$T$C$P$GT$10push_value17h4d756fff73ab62fcE', symObjAddr: 0xA020, symBinAddr: 0x70200, symSize: 0x110 }
  - { offsetInCU: 0x3DC49, offset: 0x279673, size: 0x8, addend: 0x0, symName: '__ZN3syn10punctuated23Punctuated$LT$T$C$P$GT$10push_value17h922210f6ed64bedfE', symObjAddr: 0xA130, symBinAddr: 0x70310, symSize: 0x110 }
  - { offsetInCU: 0x3DEC4, offset: 0x2798EE, size: 0x8, addend: 0x0, symName: '__ZN3syn10punctuated23Punctuated$LT$T$C$P$GT$10push_value17h9bf9b9eda25b7b08E', symObjAddr: 0xA240, symBinAddr: 0x70420, symSize: 0x100 }
  - { offsetInCU: 0x3E13E, offset: 0x279B68, size: 0x8, addend: 0x0, symName: '__ZN3syn10punctuated23Punctuated$LT$T$C$P$GT$10push_value17ha11f44006af1fce5E', symObjAddr: 0xA340, symBinAddr: 0x70520, symSize: 0x100 }
  - { offsetInCU: 0x3E3AF, offset: 0x279DD9, size: 0x8, addend: 0x0, symName: '__ZN3syn10punctuated23Punctuated$LT$T$C$P$GT$10push_value17hb125b8a2ccd1d083E', symObjAddr: 0xA440, symBinAddr: 0x70620, symSize: 0x110 }
  - { offsetInCU: 0x3E734, offset: 0x27A15E, size: 0x8, addend: 0x0, symName: '__ZN3syn10punctuated23Punctuated$LT$T$C$P$GT$10push_value17hbe2de12ba6ba96f3E', symObjAddr: 0xA550, symBinAddr: 0x70730, symSize: 0xD0 }
  - { offsetInCU: 0x3E9A5, offset: 0x27A3CF, size: 0x8, addend: 0x0, symName: '__ZN3syn10punctuated23Punctuated$LT$T$C$P$GT$10push_value17hc84f0581e5006d1dE', symObjAddr: 0xA620, symBinAddr: 0x70800, symSize: 0x110 }
  - { offsetInCU: 0x3EC20, offset: 0x27A64A, size: 0x8, addend: 0x0, symName: '__ZN3syn10punctuated23Punctuated$LT$T$C$P$GT$10push_value17hc8f25dfb73f20dfeE', symObjAddr: 0xA730, symBinAddr: 0x70910, symSize: 0xF0 }
  - { offsetInCU: 0x3EE84, offset: 0x27A8AE, size: 0x8, addend: 0x0, symName: '__ZN3syn10punctuated23Punctuated$LT$T$C$P$GT$10push_value17hf794ec4a43a6463aE', symObjAddr: 0xA820, symBinAddr: 0x70A00, symSize: 0x110 }
  - { offsetInCU: 0x3F119, offset: 0x27AB43, size: 0x8, addend: 0x0, symName: '__ZN3syn10punctuated23Punctuated$LT$T$C$P$GT$10push_value17hfcd023ac5ed059ccE', symObjAddr: 0xA930, symBinAddr: 0x70B10, symSize: 0x100 }
  - { offsetInCU: 0x3F3A4, offset: 0x27ADCE, size: 0x8, addend: 0x0, symName: '__ZN3syn10punctuated23Punctuated$LT$T$C$P$GT$10push_punct17h009caae710d7fa9eE', symObjAddr: 0xAA30, symBinAddr: 0x70C10, symSize: 0x120 }
  - { offsetInCU: 0x3F783, offset: 0x27B1AD, size: 0x8, addend: 0x0, symName: '__ZN3syn10punctuated23Punctuated$LT$T$C$P$GT$10push_punct17h466bf79492cbbcb5E', symObjAddr: 0xAB50, symBinAddr: 0x70D30, symSize: 0x120 }
  - { offsetInCU: 0x3FB7C, offset: 0x27B5A6, size: 0x8, addend: 0x0, symName: '__ZN3syn10punctuated23Punctuated$LT$T$C$P$GT$10push_punct17h4774822b9e0d6ec3E', symObjAddr: 0xAC70, symBinAddr: 0x70E50, symSize: 0x120 }
  - { offsetInCU: 0x3FF4E, offset: 0x27B978, size: 0x8, addend: 0x0, symName: '__ZN3syn10punctuated23Punctuated$LT$T$C$P$GT$10push_punct17h61110cebcbc73b5eE', symObjAddr: 0xAD90, symBinAddr: 0x70F70, symSize: 0x120 }
  - { offsetInCU: 0x4030D, offset: 0x27BD37, size: 0x8, addend: 0x0, symName: '__ZN3syn10punctuated23Punctuated$LT$T$C$P$GT$10push_punct17h6c195d18e6105754E', symObjAddr: 0xAEB0, symBinAddr: 0x71090, symSize: 0x120 }
  - { offsetInCU: 0x40739, offset: 0x27C163, size: 0x8, addend: 0x0, symName: '__ZN3syn10punctuated23Punctuated$LT$T$C$P$GT$10push_punct17h7570ad2eb8eda148E', symObjAddr: 0xAFD0, symBinAddr: 0x711B0, symSize: 0x140 }
  - { offsetInCU: 0x40C5B, offset: 0x27C685, size: 0x8, addend: 0x0, symName: '__ZN3syn10punctuated23Punctuated$LT$T$C$P$GT$10push_punct17h89b356a21cce1885E', symObjAddr: 0xB110, symBinAddr: 0x712F0, symSize: 0x120 }
  - { offsetInCU: 0x4103A, offset: 0x27CA64, size: 0x8, addend: 0x0, symName: '__ZN3syn10punctuated23Punctuated$LT$T$C$P$GT$10push_punct17h9b1d77aef8736936E', symObjAddr: 0xB230, symBinAddr: 0x71410, symSize: 0x120 }
  - { offsetInCU: 0x41419, offset: 0x27CE43, size: 0x8, addend: 0x0, symName: '__ZN3syn10punctuated23Punctuated$LT$T$C$P$GT$10push_punct17ha8c738426f753245E', symObjAddr: 0xB350, symBinAddr: 0x71530, symSize: 0x120 }
  - { offsetInCU: 0x417F8, offset: 0x27D222, size: 0x8, addend: 0x0, symName: '__ZN3syn10punctuated23Punctuated$LT$T$C$P$GT$10push_punct17hb0fc5a7a37e2e4edE', symObjAddr: 0xB470, symBinAddr: 0x71650, symSize: 0x120 }
  - { offsetInCU: 0x41BD7, offset: 0x27D601, size: 0x8, addend: 0x0, symName: '__ZN3syn10punctuated23Punctuated$LT$T$C$P$GT$10push_punct17hb4e9855c6f264597E', symObjAddr: 0xB590, symBinAddr: 0x71770, symSize: 0x120 }
  - { offsetInCU: 0x41FB6, offset: 0x27D9E0, size: 0x8, addend: 0x0, symName: '__ZN3syn10punctuated23Punctuated$LT$T$C$P$GT$10push_punct17hbb75469815d830eaE', symObjAddr: 0xB6B0, symBinAddr: 0x71890, symSize: 0x110 }
  - { offsetInCU: 0x42397, offset: 0x27DDC1, size: 0x8, addend: 0x0, symName: '__ZN3syn10punctuated23Punctuated$LT$T$C$P$GT$10push_punct17hc20d22090670493fE', symObjAddr: 0xB7C0, symBinAddr: 0x719A0, symSize: 0xF0 }
  - { offsetInCU: 0x42776, offset: 0x27E1A0, size: 0x8, addend: 0x0, symName: '__ZN3syn10punctuated23Punctuated$LT$T$C$P$GT$10push_punct17hc2ba07c343e9a099E', symObjAddr: 0xB8B0, symBinAddr: 0x71A90, symSize: 0xF0 }
  - { offsetInCU: 0x42B55, offset: 0x27E57F, size: 0x8, addend: 0x0, symName: '__ZN3syn10punctuated23Punctuated$LT$T$C$P$GT$10push_punct17hfbed3f5b6fa00fbfE', symObjAddr: 0xB9A0, symBinAddr: 0x71B80, symSize: 0x120 }
  - { offsetInCU: 0x42FDA, offset: 0x27EA04, size: 0x8, addend: 0x0, symName: '__ZN3syn10punctuated23Punctuated$LT$T$C$P$GT$3pop17h69e8e60024538083E', symObjAddr: 0xBAC0, symBinAddr: 0x71CA0, symSize: 0xA0 }
  - { offsetInCU: 0x433D9, offset: 0x27EE03, size: 0x8, addend: 0x0, symName: '__ZN3syn10punctuated23Punctuated$LT$T$C$P$GT$4push17hc1655cb815934489E', symObjAddr: 0xBB60, symBinAddr: 0x71D40, symSize: 0x170 }
  - { offsetInCU: 0x437A7, offset: 0x27F1D1, size: 0x8, addend: 0x0, symName: '__ZN3syn10punctuated23Punctuated$LT$T$C$P$GT$21parse_terminated_with17h124b73cd374cc0f5E', symObjAddr: 0xBCD0, symBinAddr: 0x71EB0, symSize: 0x220 }
  - { offsetInCU: 0x43D6E, offset: 0x27F798, size: 0x8, addend: 0x0, symName: '__ZN3syn10punctuated23Punctuated$LT$T$C$P$GT$21parse_terminated_with17h7169b9f60635eaacE', symObjAddr: 0xBEF0, symBinAddr: 0x720D0, symSize: 0x3E0 }
  - { offsetInCU: 0x44678, offset: 0x2800A2, size: 0x8, addend: 0x0, symName: '__ZN3syn10punctuated23Punctuated$LT$T$C$P$GT$21parse_terminated_with17hf39ea62a3f36347dE', symObjAddr: 0xC2D0, symBinAddr: 0x724B0, symSize: 0x220 }
  - { offsetInCU: 0x44C25, offset: 0x28064F, size: 0x8, addend: 0x0, symName: '__ZN3syn10punctuated23Punctuated$LT$T$C$P$GT$21parse_terminated_with17hf813a9f490e11643E', symObjAddr: 0xC4F0, symBinAddr: 0x726D0, symSize: 0x3E0 }
  - { offsetInCU: 0x2AC3, offset: 0x2896BF, size: 0x8, addend: 0x0, symName: '__ZN3syn4expr8printing77_$LT$impl$u20$quote..to_tokens..ToTokens$u20$for$u20$syn..expr..ExprArray$GT$9to_tokens17h2ef9833ff7ff7fceE', symObjAddr: 0x10970, symBinAddr: 0x825B0, symSize: 0x90 }
  - { offsetInCU: 0x2C8D, offset: 0x289889, size: 0x8, addend: 0x0, symName: '__ZN3syn4expr8printing77_$LT$impl$u20$quote..to_tokens..ToTokens$u20$for$u20$syn..expr..ExprAsync$GT$9to_tokens17h2495d6e29bb4a201E', symObjAddr: 0x10A10, symBinAddr: 0x82640, symSize: 0x170 }
  - { offsetInCU: 0x3140, offset: 0x289D3C, size: 0x8, addend: 0x0, symName: '__ZN3syn4expr8printing77_$LT$impl$u20$quote..to_tokens..ToTokens$u20$for$u20$syn..expr..ExprBlock$GT$9to_tokens17hdd73246d789555d5E', symObjAddr: 0x10BA0, symBinAddr: 0x827B0, symSize: 0x100 }
  - { offsetInCU: 0x34C7, offset: 0x28A0C3, size: 0x8, addend: 0x0, symName: '__ZN3syn4expr8printing79_$LT$impl$u20$quote..to_tokens..ToTokens$u20$for$u20$syn..expr..ExprClosure$GT$9to_tokens17h0d6ce1172208619dE', symObjAddr: 0x10CD0, symBinAddr: 0x828B0, symSize: 0x400 }
  - { offsetInCU: 0x40FA, offset: 0x28ACF6, size: 0x8, addend: 0x0, symName: '__ZN3syn4expr8printing77_$LT$impl$u20$quote..to_tokens..ToTokens$u20$for$u20$syn..expr..ExprConst$GT$9to_tokens17hcaf2e3202a16c77aE', symObjAddr: 0x110D0, symBinAddr: 0x82CB0, symSize: 0x100 }
  - { offsetInCU: 0x43A9, offset: 0x28AFA5, size: 0x8, addend: 0x0, symName: '__ZN3syn4expr8printing80_$LT$impl$u20$quote..to_tokens..ToTokens$u20$for$u20$syn..expr..ExprContinue$GT$9to_tokens17hebd76b9e5d479ff4E', symObjAddr: 0x111D0, symBinAddr: 0x82DB0, symSize: 0x140 }
  - { offsetInCU: 0x47D8, offset: 0x28B3D4, size: 0x8, addend: 0x0, symName: '__ZN3syn4expr8printing77_$LT$impl$u20$quote..to_tokens..ToTokens$u20$for$u20$syn..expr..ExprGroup$GT$9to_tokens17h43695a0f104bbad3E', symObjAddr: 0x11560, symBinAddr: 0x82EF0, symSize: 0x90 }
  - { offsetInCU: 0x4975, offset: 0x28B571, size: 0x8, addend: 0x0, symName: '__ZN3syn4expr8printing74_$LT$impl$u20$quote..to_tokens..ToTokens$u20$for$u20$syn..expr..ExprIf$GT$9to_tokens17h925864585cd53cb7E', symObjAddr: 0x115F0, symBinAddr: 0x82F80, symSize: 0x3D0 }
  - { offsetInCU: 0x545C, offset: 0x28C058, size: 0x8, addend: 0x0, symName: '__ZN3syn4expr8printing77_$LT$impl$u20$quote..to_tokens..ToTokens$u20$for$u20$syn..expr..ExprInfer$GT$9to_tokens17he40a1f0c107707dbE', symObjAddr: 0x119D0, symBinAddr: 0x83350, symSize: 0xF0 }
  - { offsetInCU: 0x5708, offset: 0x28C304, size: 0x8, addend: 0x0, symName: '__ZN3syn4expr8printing75_$LT$impl$u20$quote..to_tokens..ToTokens$u20$for$u20$syn..expr..ExprLit$GT$9to_tokens17ha9f3a462aa7f9b8cE', symObjAddr: 0x11AD0, symBinAddr: 0x83440, symSize: 0x80 }
  - { offsetInCU: 0x589B, offset: 0x28C497, size: 0x8, addend: 0x0, symName: '__ZN3syn4expr8printing76_$LT$impl$u20$quote..to_tokens..ToTokens$u20$for$u20$syn..expr..ExprLoop$GT$9to_tokens17hc6f1b6becf15eae4E', symObjAddr: 0x11B50, symBinAddr: 0x834C0, symSize: 0x170 }
  - { offsetInCU: 0x5CB9, offset: 0x28C8B5, size: 0x8, addend: 0x0, symName: '__ZN3syn4expr8printing77_$LT$impl$u20$quote..to_tokens..ToTokens$u20$for$u20$syn..expr..ExprMacro$GT$9to_tokens17h1aad6dcc7b88acf6E', symObjAddr: 0x11CC0, symBinAddr: 0x83630, symSize: 0x90 }
  - { offsetInCU: 0x5EA4, offset: 0x28CAA0, size: 0x8, addend: 0x0, symName: '__ZN3syn4expr8printing77_$LT$impl$u20$quote..to_tokens..ToTokens$u20$for$u20$syn..expr..ExprParen$GT$9to_tokens17hf25c89af93be7f23E', symObjAddr: 0x11ED0, symBinAddr: 0x836C0, symSize: 0x90 }
  - { offsetInCU: 0x6041, offset: 0x28CC3D, size: 0x8, addend: 0x0, symName: '__ZN3syn4expr8printing76_$LT$impl$u20$quote..to_tokens..ToTokens$u20$for$u20$syn..expr..ExprPath$GT$9to_tokens17hab4f628f5b9ed40bE', symObjAddr: 0x11F60, symBinAddr: 0x83750, symSize: 0x90 }
  - { offsetInCU: 0x622E, offset: 0x28CE2A, size: 0x8, addend: 0x0, symName: '__ZN3syn4expr8printing78_$LT$impl$u20$quote..to_tokens..ToTokens$u20$for$u20$syn..expr..ExprRepeat$GT$9to_tokens17h7f259068e0bd4858E', symObjAddr: 0x12010, symBinAddr: 0x837E0, symSize: 0x90 }
  - { offsetInCU: 0x63EC, offset: 0x28CFE8, size: 0x8, addend: 0x0, symName: '__ZN3syn4expr8printing78_$LT$impl$u20$quote..to_tokens..ToTokens$u20$for$u20$syn..expr..ExprStruct$GT$9to_tokens17h572ac1509ac9915cE', symObjAddr: 0x120B0, symBinAddr: 0x83870, symSize: 0xA0 }
  - { offsetInCU: 0x65AD, offset: 0x28D1A9, size: 0x8, addend: 0x0, symName: '__ZN3syn4expr8printing80_$LT$impl$u20$quote..to_tokens..ToTokens$u20$for$u20$syn..expr..ExprTryBlock$GT$9to_tokens17h33126d9a5af6a3b9E', symObjAddr: 0x12160, symBinAddr: 0x83910, symSize: 0x100 }
  - { offsetInCU: 0x6882, offset: 0x28D47E, size: 0x8, addend: 0x0, symName: '__ZN3syn4expr8printing77_$LT$impl$u20$quote..to_tokens..ToTokens$u20$for$u20$syn..expr..ExprTuple$GT$9to_tokens17h802dba8012b208d4E', symObjAddr: 0x12260, symBinAddr: 0x83A10, symSize: 0x90 }
  - { offsetInCU: 0x6A40, offset: 0x28D63C, size: 0x8, addend: 0x0, symName: '__ZN3syn4expr8printing78_$LT$impl$u20$quote..to_tokens..ToTokens$u20$for$u20$syn..expr..ExprUnsafe$GT$9to_tokens17h40aedefd13b3e1e7E', symObjAddr: 0x12300, symBinAddr: 0x83AA0, symSize: 0x100 }
  - { offsetInCU: 0x6D49, offset: 0x28D945, size: 0x8, addend: 0x0, symName: '__ZN3syn4expr8printing71_$LT$impl$u20$quote..to_tokens..ToTokens$u20$for$u20$syn..expr..Arm$GT$9to_tokens17h78a0e9de12a0eb67E', symObjAddr: 0x125E0, symBinAddr: 0x83BA0, symSize: 0x180 }
  - { offsetInCU: 0x70B7, offset: 0x28DCB3, size: 0x8, addend: 0x0, symName: '__ZN3syn4expr8printing73_$LT$impl$u20$quote..to_tokens..ToTokens$u20$for$u20$syn..expr..Index$GT$9to_tokens17hdbea7f12a0f28d91E', symObjAddr: 0x12840, symBinAddr: 0x83D20, symSize: 0xB0 }
  - { offsetInCU: 0x72DB, offset: 0x28DED7, size: 0x8, addend: 0x0, symName: '__ZN3syn4expr8printing74_$LT$impl$u20$quote..to_tokens..ToTokens$u20$for$u20$syn..expr..Member$GT$9to_tokens17hfcc2f8d0a07457a9E', symObjAddr: 0x12970, symBinAddr: 0x83DD0, symSize: 0xD0 }
  - { offsetInCU: 0x75A1, offset: 0x28E19D, size: 0x8, addend: 0x0, symName: '__ZN3syn4expr7parsing63_$LT$impl$u20$syn..parse..Parse$u20$for$u20$syn..expr..Expr$GT$5parse17h55500ba46fd3498aE', symObjAddr: 0x92A0, symBinAddr: 0x7BD10, symSize: 0x100 }
  - { offsetInCU: 0x7649, offset: 0x28E245, size: 0x8, addend: 0x0, symName: '__ZN3syn4expr7parsing66_$LT$impl$u20$syn..parse..Parse$u20$for$u20$syn..expr..ExprLit$GT$5parse17h503d2569d625f8d4E', symObjAddr: 0x9D30, symBinAddr: 0x7BE10, symSize: 0xD0 }
  - { offsetInCU: 0x7729, offset: 0x28E325, size: 0x8, addend: 0x0, symName: '__ZN3syn4expr7parsing65_$LT$impl$u20$syn..parse..Parse$u20$for$u20$syn..expr..ExprIf$GT$5parse17h47168d1e46c083ceE', symObjAddr: 0x9E40, symBinAddr: 0x7BEE0, symSize: 0x1070 }
  - { offsetInCU: 0x9EAF, offset: 0x290AAB, size: 0x8, addend: 0x0, symName: '__ZN3syn4expr7parsing68_$LT$impl$u20$syn..parse..Parse$u20$for$u20$syn..expr..ExprInfer$GT$5parse17h96cf775fe66799ebE', symObjAddr: 0xAEB0, symBinAddr: 0x7CF50, symSize: 0x190 }
  - { offsetInCU: 0xA221, offset: 0x290E1D, size: 0x8, addend: 0x0, symName: '__ZN3syn4expr7parsing70_$LT$impl$u20$syn..parse..Parse$u20$for$u20$syn..expr..ExprForLoop$GT$5parse17hce5f73eac4ad2dc4E', symObjAddr: 0xB040, symBinAddr: 0x7D0E0, symSize: 0x9F0 }
  - { offsetInCU: 0xB41F, offset: 0x29201B, size: 0x8, addend: 0x0, symName: '__ZN3syn4expr7parsing67_$LT$impl$u20$syn..parse..Parse$u20$for$u20$syn..expr..ExprLoop$GT$5parse17h1aa74e5d000da669E', symObjAddr: 0xBA30, symBinAddr: 0x7DAD0, symSize: 0x600 }
  - { offsetInCU: 0xC072, offset: 0x292C6E, size: 0x8, addend: 0x0, symName: '__ZN3syn4expr7parsing68_$LT$impl$u20$syn..parse..Parse$u20$for$u20$syn..expr..ExprMatch$GT$5parse17h352dd08cf5c0778bE', symObjAddr: 0xC030, symBinAddr: 0x7E0D0, symSize: 0x7F0 }
  - { offsetInCU: 0xCA45, offset: 0x293641, size: 0x8, addend: 0x0, symName: '__ZN3syn4expr7parsing69_$LT$impl$u20$syn..parse..Parse$u20$for$u20$syn..expr..ExprReturn$GT$5parse17h3d5bc077999de314E', symObjAddr: 0xCB30, symBinAddr: 0x7E8C0, symSize: 0x110 }
  - { offsetInCU: 0xCC29, offset: 0x293825, size: 0x8, addend: 0x0, symName: '__ZN3syn4expr7parsing71_$LT$impl$u20$syn..parse..Parse$u20$for$u20$syn..expr..ExprTryBlock$GT$5parse17hce262d6454af1d4eE', symObjAddr: 0xCC40, symBinAddr: 0x7E9D0, symSize: 0x140 }
  - { offsetInCU: 0xCDA9, offset: 0x2939A5, size: 0x8, addend: 0x0, symName: '__ZN3syn4expr7parsing68_$LT$impl$u20$syn..parse..Parse$u20$for$u20$syn..expr..ExprYield$GT$5parse17h17c1f052e1267cf9E', symObjAddr: 0xCD80, symBinAddr: 0x7EB10, symSize: 0x110 }
  - { offsetInCU: 0xCF9B, offset: 0x293B97, size: 0x8, addend: 0x0, symName: '__ZN3syn4expr7parsing68_$LT$impl$u20$syn..parse..Parse$u20$for$u20$syn..expr..ExprAsync$GT$5parse17h950490ecfb80e9a1E', symObjAddr: 0xCE90, symBinAddr: 0x7EC20, symSize: 0x1C0 }
  - { offsetInCU: 0xD29D, offset: 0x293E99, size: 0x8, addend: 0x0, symName: '__ZN3syn4expr7parsing68_$LT$impl$u20$syn..parse..Parse$u20$for$u20$syn..expr..ExprWhile$GT$5parse17h571b14b3fd0af108E', symObjAddr: 0xD050, symBinAddr: 0x7EDE0, symSize: 0x910 }
  - { offsetInCU: 0xE12D, offset: 0x294D29, size: 0x8, addend: 0x0, symName: '__ZN3syn4expr7parsing68_$LT$impl$u20$syn..parse..Parse$u20$for$u20$syn..expr..ExprConst$GT$5parse17h01369ed4345e6402E', symObjAddr: 0xD960, symBinAddr: 0x7F6F0, symSize: 0x4B0 }
  - { offsetInCU: 0xEA55, offset: 0x295651, size: 0x8, addend: 0x0, symName: '__ZN3syn4expr7parsing64_$LT$impl$u20$syn..parse..Parse$u20$for$u20$syn..expr..Label$GT$5parse17h93d18de187bdc41eE', symObjAddr: 0xDE10, symBinAddr: 0x7FBA0, symSize: 0x1D0 }
  - { offsetInCU: 0xEF9F, offset: 0x295B9B, size: 0x8, addend: 0x0, symName: '__ZN3syn4expr7parsing71_$LT$impl$u20$syn..parse..Parse$u20$for$u20$syn..expr..ExprContinue$GT$5parse17he5af0a754429df94E', symObjAddr: 0xDFE0, symBinAddr: 0x7FD70, symSize: 0x1A0 }
  - { offsetInCU: 0xF11A, offset: 0x295D16, size: 0x8, addend: 0x0, symName: '__ZN3syn4expr7parsing69_$LT$impl$u20$syn..parse..Parse$u20$for$u20$syn..expr..FieldValue$GT$5parse17h9c84ab0cc06aa064E', symObjAddr: 0xE180, symBinAddr: 0x7FF10, symSize: 0x660 }
  - { offsetInCU: 0xFB03, offset: 0x2966FF, size: 0x8, addend: 0x0, symName: '__ZN3syn4expr7parsing69_$LT$impl$u20$syn..parse..Parse$u20$for$u20$syn..expr..ExprUnsafe$GT$5parse17he7d1a74465ffba81E', symObjAddr: 0xE930, symBinAddr: 0x80570, symSize: 0x4B0 }
  - { offsetInCU: 0x1042B, offset: 0x297027, size: 0x8, addend: 0x0, symName: '__ZN3syn4expr7parsing68_$LT$impl$u20$syn..parse..Parse$u20$for$u20$syn..expr..ExprBlock$GT$5parse17h74103f700210131fE', symObjAddr: 0xEDE0, symBinAddr: 0x80A20, symSize: 0x5E0 }
  - { offsetInCU: 0x112C4, offset: 0x297EC0, size: 0x8, addend: 0x0, symName: '__ZN3syn4expr7parsing70_$LT$impl$u20$syn..parse..Parse$u20$for$u20$syn..expr..RangeLimits$GT$5parse17hef78e73737c0f24cE', symObjAddr: 0xF3C0, symBinAddr: 0x81000, symSize: 0x2F0 }
  - { offsetInCU: 0x11EF1, offset: 0x298AED, size: 0x8, addend: 0x0, symName: '__ZN3syn4expr7parsing67_$LT$impl$u20$syn..parse..Parse$u20$for$u20$syn..expr..ExprPath$GT$5parse17haeeb72b62ac51e5cE', symObjAddr: 0xFA40, symBinAddr: 0x81680, symSize: 0x2B0 }
  - { offsetInCU: 0x122BC, offset: 0x298EB8, size: 0x8, addend: 0x0, symName: '__ZN3syn4expr7parsing65_$LT$impl$u20$syn..parse..Parse$u20$for$u20$syn..expr..Member$GT$5parse17h60bbc140c6d22534E', symObjAddr: 0xFCF0, symBinAddr: 0x81930, symSize: 0x110 }
  - { offsetInCU: 0x12510, offset: 0x29910C, size: 0x8, addend: 0x0, symName: '__ZN3syn4expr7parsing62_$LT$impl$u20$syn..parse..Parse$u20$for$u20$syn..expr..Arm$GT$5parse17hbd2ba360fcc9627cE', symObjAddr: 0xFE00, symBinAddr: 0x81A40, symSize: 0x900 }
  - { offsetInCU: 0x1332D, offset: 0x299F29, size: 0x8, addend: 0x0, symName: '__ZN3syn4expr7parsing64_$LT$impl$u20$syn..parse..Parse$u20$for$u20$syn..expr..Index$GT$5parse17h213ef4a079d37babE', symObjAddr: 0x10700, symBinAddr: 0x82340, symSize: 0x270 }
  - { offsetInCU: 0x13A1B, offset: 0x29A617, size: 0x8, addend: 0x0, symName: '__ZN62_$LT$syn..expr..Expr$u20$as$u20$quote..to_tokens..ToTokens$GT$9to_tokens17h69a442f5848eec7cE', symObjAddr: 0x12AD0, symBinAddr: 0x83EA0, symSize: 0x2F80 }
  - { offsetInCU: 0x1E023, offset: 0x2A4C1F, size: 0x8, addend: 0x0, symName: '__ZN3syn3gen5clone63_$LT$impl$u20$core..clone..Clone$u20$for$u20$syn..expr..Arm$GT$5clone17h53aa09041e68e579E', symObjAddr: 0x18200, symBinAddr: 0x86E20, symSize: 0x1F0 }
  - { offsetInCU: 0x1E9D6, offset: 0x2A55D2, size: 0x8, addend: 0x0, symName: '__ZN3syn3gen5clone64_$LT$impl$u20$core..clone..Clone$u20$for$u20$syn..expr..Expr$GT$5clone17h514f3f764121797bE', symObjAddr: 0x183F0, symBinAddr: 0x87010, symSize: 0x1F40 }
  - { offsetInCU: 0x22C62, offset: 0x2A985E, size: 0x8, addend: 0x0, symName: '__ZN3syn3gen5clone69_$LT$impl$u20$core..clone..Clone$u20$for$u20$syn..expr..ExprBlock$GT$5clone17he50df63feb0aac81E', symObjAddr: 0x1A870, symBinAddr: 0x88F50, symSize: 0x160 }
  - { offsetInCU: 0x22FA9, offset: 0x2A9BA5, size: 0x8, addend: 0x0, symName: '__ZN3syn3gen5clone69_$LT$impl$u20$core..clone..Clone$u20$for$u20$syn..expr..ExprBreak$GT$5clone17h175ec6506dc8ea05E', symObjAddr: 0x1A9D0, symBinAddr: 0x890B0, symSize: 0x190 }
  - { offsetInCU: 0x2351C, offset: 0x2AA118, size: 0x8, addend: 0x0, symName: '__ZN3syn3gen5clone71_$LT$impl$u20$core..clone..Clone$u20$for$u20$syn..expr..ExprClosure$GT$5clone17ha9bd9832e2a25c35E', symObjAddr: 0x1AE10, symBinAddr: 0x89240, symSize: 0x360 }
  - { offsetInCU: 0x23C4E, offset: 0x2AA84A, size: 0x8, addend: 0x0, symName: '__ZN3syn3gen5clone71_$LT$impl$u20$core..clone..Clone$u20$for$u20$syn..expr..ExprForLoop$GT$5clone17h7dcc3a15fa9a1ad7E', symObjAddr: 0x1B440, symBinAddr: 0x895A0, symSize: 0x2D0 }
  - { offsetInCU: 0x2449E, offset: 0x2AB09A, size: 0x8, addend: 0x0, symName: '__ZN3syn3gen5clone66_$LT$impl$u20$core..clone..Clone$u20$for$u20$syn..expr..ExprIf$GT$5clone17heafdb7ddebd20aa8E', symObjAddr: 0x1B7F0, symBinAddr: 0x89870, symSize: 0x200 }
  - { offsetInCU: 0x24A19, offset: 0x2AB615, size: 0x8, addend: 0x0, symName: '__ZN3syn3gen5clone68_$LT$impl$u20$core..clone..Clone$u20$for$u20$syn..expr..ExprLoop$GT$5clone17h8d0e378c9d11b4faE', symObjAddr: 0x1BDC0, symBinAddr: 0x89A70, symSize: 0x170 }
  - { offsetInCU: 0x24D8E, offset: 0x2AB98A, size: 0x8, addend: 0x0, symName: '__ZN3syn3gen5clone69_$LT$impl$u20$core..clone..Clone$u20$for$u20$syn..expr..ExprMatch$GT$5clone17ha6c11e0b0c716b5fE', symObjAddr: 0x1BFC0, symBinAddr: 0x89BE0, symSize: 0x140 }
  - { offsetInCU: 0x25059, offset: 0x2ABC55, size: 0x8, addend: 0x0, symName: '__ZN3syn3gen5clone74_$LT$impl$u20$core..clone..Clone$u20$for$u20$syn..expr..ExprMethodCall$GT$5clone17h6eda847712eca907E', symObjAddr: 0x1C100, symBinAddr: 0x89D20, symSize: 0x340 }
  - { offsetInCU: 0x2584B, offset: 0x2AC447, size: 0x8, addend: 0x0, symName: '__ZN3syn3gen5clone68_$LT$impl$u20$core..clone..Clone$u20$for$u20$syn..expr..ExprPath$GT$5clone17h551c107546a23a5aE', symObjAddr: 0x1C520, symBinAddr: 0x8A060, symSize: 0x1A0 }
  - { offsetInCU: 0x25C1F, offset: 0x2AC81B, size: 0x8, addend: 0x0, symName: '__ZN3syn3gen5clone69_$LT$impl$u20$core..clone..Clone$u20$for$u20$syn..expr..ExprRange$GT$5clone17h17c522a22b98888cE', symObjAddr: 0x1C6C0, symBinAddr: 0x8A200, symSize: 0x1A0 }
  - { offsetInCU: 0x26172, offset: 0x2ACD6E, size: 0x8, addend: 0x0, symName: '__ZN3syn3gen5clone70_$LT$impl$u20$core..clone..Clone$u20$for$u20$syn..expr..ExprStruct$GT$5clone17ha9a3e7ffe6d95269E', symObjAddr: 0x1CAE0, symBinAddr: 0x8A3A0, symSize: 0x3C0 }
  - { offsetInCU: 0x26A48, offset: 0x2AD644, size: 0x8, addend: 0x0, symName: '__ZN3syn3gen5clone69_$LT$impl$u20$core..clone..Clone$u20$for$u20$syn..expr..ExprWhile$GT$5clone17h9beced0f1ab317ccE', symObjAddr: 0x1D060, symBinAddr: 0x8A760, symSize: 0x220 }
  - { offsetInCU: 0x27025, offset: 0x2ADC21, size: 0x8, addend: 0x0, symName: '__ZN3syn3gen5clone70_$LT$impl$u20$core..clone..Clone$u20$for$u20$syn..expr..FieldValue$GT$5clone17h77ca3a84e53c5c6cE', symObjAddr: 0x1D370, symBinAddr: 0x8A980, symSize: 0x150 }
  - { offsetInCU: 0x2A7FA, offset: 0x2B13F6, size: 0x8, addend: 0x0, symName: '__ZN4core3ptr100drop_in_place$LT$core..option..Option$LT$alloc..boxed..Box$LT$syn..path..GenericArgument$GT$$GT$$GT$17h7435c9de74860622E', symObjAddr: 0x150, symBinAddr: 0x74270, symSize: 0x50 }
  - { offsetInCU: 0x2AB9A, offset: 0x2B1796, size: 0x8, addend: 0x0, symName: '__ZN4core3ptr100drop_in_place$LT$syn..punctuated..Punctuated$LT$syn..path..PathSegment$C$syn..token..PathSep$GT$$GT$17hf414cb3581f8337aE', symObjAddr: 0x1A0, symBinAddr: 0x742C0, symSize: 0x260 }
  - { offsetInCU: 0x2B533, offset: 0x2B212F, size: 0x8, addend: 0x0, symName: '__ZN4core3ptr103drop_in_place$LT$core..option..Option$LT$alloc..boxed..Box$LT$syn..generics..TypeParamBound$GT$$GT$$GT$17h5974f03e36b1a9c3E', symObjAddr: 0x400, symBinAddr: 0x74520, symSize: 0x50 }
  - { offsetInCU: 0x2B740, offset: 0x2B233C, size: 0x8, addend: 0x0, symName: '__ZN4core3ptr103drop_in_place$LT$syn..punctuated..Punctuated$LT$syn..generics..GenericParam$C$syn..token..Comma$GT$$GT$17hf42353fa44ed6da8E', symObjAddr: 0x450, symBinAddr: 0x74570, symSize: 0xF0 }
  - { offsetInCU: 0x2BC03, offset: 0x2B27FF, size: 0x8, addend: 0x0, symName: '__ZN4core3ptr104drop_in_place$LT$syn..punctuated..Punctuated$LT$syn..generics..TypeParamBound$C$syn..token..Plus$GT$$GT$17h532f52c4a894b056E', symObjAddr: 0x540, symBinAddr: 0x74660, symSize: 0x190 }
  - { offsetInCU: 0x2C1FA, offset: 0x2B2DF6, size: 0x8, addend: 0x0, symName: '__ZN4core3ptr114drop_in_place$LT$core..option..Option$LT$$LP$syn..token..If$C$alloc..boxed..Box$LT$syn..expr..Expr$GT$$RP$$GT$$GT$17hd695c14b2d7f5b56E.llvm.589876701818171446', symObjAddr: 0x6D0, symBinAddr: 0x747F0, symSize: 0x50 }
  - { offsetInCU: 0x2C390, offset: 0x2B2F8C, size: 0x8, addend: 0x0, symName: '__ZN4core3ptr116drop_in_place$LT$core..option..Option$LT$$LP$syn..token..Else$C$alloc..boxed..Box$LT$syn..expr..Expr$GT$$RP$$GT$$GT$17hce47d33a8602d206E', symObjAddr: 0x720, symBinAddr: 0x74840, symSize: 0x50 }
  - { offsetInCU: 0x2C5CA, offset: 0x2B31C6, size: 0x8, addend: 0x0, symName: '__ZN4core3ptr34drop_in_place$LT$syn..lit..Lit$GT$17h8902f5ff67917034E.llvm.589876701818171446', symObjAddr: 0x770, symBinAddr: 0x74890, symSize: 0x110 }
  - { offsetInCU: 0x2CB04, offset: 0x2B3700, size: 0x8, addend: 0x0, symName: '__ZN4core3ptr34drop_in_place$LT$syn..pat..Pat$GT$17h4581eea028ec0969E.llvm.589876701818171446', symObjAddr: 0x880, symBinAddr: 0x749A0, symSize: 0x1000 }
  - { offsetInCU: 0x30629, offset: 0x2B7225, size: 0x8, addend: 0x0, symName: '__ZN4core3ptr34drop_in_place$LT$syn..ty..Type$GT$17h369e41ad4a9f1ae0E.llvm.589876701818171446', symObjAddr: 0x1880, symBinAddr: 0x759A0, symSize: 0x4F0 }
  - { offsetInCU: 0x315C3, offset: 0x2B81BF, size: 0x8, addend: 0x0, symName: '__ZN4core3ptr35drop_in_place$LT$syn..expr..Arm$GT$17hf2baebe0cd7aed98E', symObjAddr: 0x1D70, symBinAddr: 0x75E90, symSize: 0x180 }
  - { offsetInCU: 0x32075, offset: 0x2B8C71, size: 0x8, addend: 0x0, symName: '__ZN4core3ptr36drop_in_place$LT$syn..expr..Expr$GT$17h0f7fd4c749bae801E.llvm.589876701818171446', symObjAddr: 0x1EF0, symBinAddr: 0x76010, symSize: 0x2600 }
  - { offsetInCU: 0x3A920, offset: 0x2C151C, size: 0x8, addend: 0x0, symName: '__ZN4core3ptr36drop_in_place$LT$syn..mac..Macro$GT$17h4ffde962df30ebe2E.llvm.589876701818171446', symObjAddr: 0x44F0, symBinAddr: 0x78610, symSize: 0x40 }
  - { offsetInCU: 0x3A95A, offset: 0x2C1556, size: 0x8, addend: 0x0, symName: '__ZN4core3ptr36drop_in_place$LT$syn..path..Path$GT$17habea856181211e1cE.llvm.589876701818171446', symObjAddr: 0x4530, symBinAddr: 0x78650, symSize: 0x220 }
  - { offsetInCU: 0x3B2CD, offset: 0x2C1EC9, size: 0x8, addend: 0x0, symName: '__ZN4core3ptr37drop_in_place$LT$syn..lit..LitInt$GT$17hdc2cb2f4b64b71f3E', symObjAddr: 0x4750, symBinAddr: 0x78870, symSize: 0x70 }
  - { offsetInCU: 0x3B64D, offset: 0x2C2249, size: 0x8, addend: 0x0, symName: '__ZN4core3ptr37drop_in_place$LT$syn..stmt..Block$GT$17hcc21a21cf949414cE.llvm.589876701818171446', symObjAddr: 0x47C0, symBinAddr: 0x788E0, symSize: 0xD0 }
  - { offsetInCU: 0x3B910, offset: 0x2C250C, size: 0x8, addend: 0x0, symName: '__ZN4core3ptr38drop_in_place$LT$syn..expr..ExprIf$GT$17h01a54a489d798b2dE', symObjAddr: 0x4890, symBinAddr: 0x789B0, symSize: 0x200 }
  - { offsetInCU: 0x3C139, offset: 0x2C2D35, size: 0x8, addend: 0x0, symName: '__ZN4core3ptr38drop_in_place$LT$syn..expr..Member$GT$17h022cbe5553aa40faE.llvm.589876701818171446', symObjAddr: 0x4A90, symBinAddr: 0x78BB0, symSize: 0x30 }
  - { offsetInCU: 0x3C236, offset: 0x2C2E32, size: 0x8, addend: 0x0, symName: '__ZN4core3ptr39drop_in_place$LT$proc_macro2..Ident$GT$17h8101e88c3ac359d6E', symObjAddr: 0x4AD0, symBinAddr: 0x78BE0, symSize: 0x30 }
  - { offsetInCU: 0x3C314, offset: 0x2C2F10, size: 0x8, addend: 0x0, symName: '__ZN4core3ptr40drop_in_place$LT$syn..ty..ReturnType$GT$17h02cf41e2fec63d90E', symObjAddr: 0x4E70, symBinAddr: 0x78C10, symSize: 0x50 }
  - { offsetInCU: 0x3C486, offset: 0x2C3082, size: 0x8, addend: 0x0, symName: '__ZN4core3ptr41drop_in_place$LT$syn..expr..ExprConst$GT$17h725a13e551d9f276E', symObjAddr: 0x4EC0, symBinAddr: 0x78C60, symSize: 0x180 }
  - { offsetInCU: 0x3C9DB, offset: 0x2C35D7, size: 0x8, addend: 0x0, symName: '__ZN4core3ptr44drop_in_place$LT$syn..lifetime..Lifetime$GT$17hf0cdec2e9ec456d6E', symObjAddr: 0x5770, symBinAddr: 0x78DE0, symSize: 0x30 }
  - { offsetInCU: 0x3CB54, offset: 0x2C3750, size: 0x8, addend: 0x0, symName: '__ZN4core3ptr44drop_in_place$LT$syn..parse..ParseBuffer$GT$17hd0dadba44a19aec2E', symObjAddr: 0x57A0, symBinAddr: 0x78E10, symSize: 0x70 }
  - { offsetInCU: 0x3CF89, offset: 0x2C3B85, size: 0x8, addend: 0x0, symName: '__ZN4core3ptr45drop_in_place$LT$proc_macro2..TokenStream$GT$17h3405f6c513e9f6cbE.llvm.589876701818171446', symObjAddr: 0x5810, symBinAddr: 0x78E80, symSize: 0x140 }
  - { offsetInCU: 0x3D3F8, offset: 0x2C3FF4, size: 0x8, addend: 0x0, symName: '__ZN4core3ptr45drop_in_place$LT$syn..generics..TypeParam$GT$17he5eda51070b7de47E', symObjAddr: 0x5950, symBinAddr: 0x78FC0, symSize: 0x230 }
  - { offsetInCU: 0x3DC51, offset: 0x2C484D, size: 0x8, addend: 0x0, symName: '__ZN4core3ptr46drop_in_place$LT$syn..expr..ExprMethodCall$GT$17hdf90cc01d847f3e4E', symObjAddr: 0x5B80, symBinAddr: 0x791F0, symSize: 0x320 }
  - { offsetInCU: 0x3E9DC, offset: 0x2C55D8, size: 0x8, addend: 0x0, symName: '__ZN4core3ptr46drop_in_place$LT$syn..generics..ConstParam$GT$17hab0a58c4af8c549cE', symObjAddr: 0x5EA0, symBinAddr: 0x79510, symSize: 0x150 }
  - { offsetInCU: 0x3EE82, offset: 0x2C5A7E, size: 0x8, addend: 0x0, symName: '__ZN4core3ptr47drop_in_place$LT$syn..path..GenericArgument$GT$17h54f8794633f96823E', symObjAddr: 0x6020, symBinAddr: 0x79660, symSize: 0x4A0 }
  - { offsetInCU: 0x3FF29, offset: 0x2C6B25, size: 0x8, addend: 0x0, symName: '__ZN4core3ptr49drop_in_place$LT$syn..generics..LifetimeParam$GT$17h41a7c7a290ea6289E', symObjAddr: 0x64C0, symBinAddr: 0x79B00, symSize: 0xF0 }
  - { offsetInCU: 0x402E3, offset: 0x2C6EDF, size: 0x8, addend: 0x0, symName: '__ZN4core3ptr50drop_in_place$LT$syn..generics..TypeParamBound$GT$17hcd7771d4c6c221efE', symObjAddr: 0x65B0, symBinAddr: 0x79BF0, symSize: 0x160 }
  - { offsetInCU: 0x40703, offset: 0x2C72FF, size: 0x8, addend: 0x0, symName: '__ZN4core3ptr58drop_in_place$LT$alloc..vec..Vec$LT$syn..expr..Arm$GT$$GT$17h1a55df3d2cba1daaE', symObjAddr: 0x6710, symBinAddr: 0x79D50, symSize: 0xD0 }
  - { offsetInCU: 0x40990, offset: 0x2C758C, size: 0x8, addend: 0x0, symName: '__ZN4core3ptr59drop_in_place$LT$alloc..boxed..Box$LT$syn..pat..Pat$GT$$GT$17h563b135d87aca8abE', symObjAddr: 0x67E0, symBinAddr: 0x79E20, symSize: 0x50 }
  - { offsetInCU: 0x40AEB, offset: 0x2C76E7, size: 0x8, addend: 0x0, symName: '__ZN4core3ptr59drop_in_place$LT$alloc..boxed..Box$LT$syn..ty..Type$GT$$GT$17hffed36bad83adacbE', symObjAddr: 0x6830, symBinAddr: 0x79E70, symSize: 0x50 }
  - { offsetInCU: 0x40C46, offset: 0x2C7842, size: 0x8, addend: 0x0, symName: '__ZN4core3ptr59drop_in_place$LT$alloc..vec..Vec$LT$syn..stmt..Stmt$GT$$GT$17hb5c1acf3c61c43e2E', symObjAddr: 0x6880, symBinAddr: 0x79EC0, symSize: 0xD0 }
  - { offsetInCU: 0x40ED3, offset: 0x2C7ACF, size: 0x8, addend: 0x0, symName: '__ZN4core3ptr61drop_in_place$LT$alloc..boxed..Box$LT$syn..expr..Expr$GT$$GT$17h01091e47f131475dE', symObjAddr: 0x6950, symBinAddr: 0x79F90, symSize: 0x50 }
  - { offsetInCU: 0x4104D, offset: 0x2C7C49, size: 0x8, addend: 0x0, symName: '__ZN4core3ptr61drop_in_place$LT$alloc..vec..Vec$LT$syn..expr..ExprIf$GT$$GT$17h0c094efa3006c900E', symObjAddr: 0x69A0, symBinAddr: 0x79FE0, symSize: 0xD0 }
  - { offsetInCU: 0x41356, offset: 0x2C7F52, size: 0x8, addend: 0x0, symName: '__ZN4core3ptr61drop_in_place$LT$syn..path..ParenthesizedGenericArguments$GT$17h43d4aac5494326a7E', symObjAddr: 0x6A70, symBinAddr: 0x7A0B0, symSize: 0x170 }
  - { offsetInCU: 0x4191D, offset: 0x2C8519, size: 0x8, addend: 0x0, symName: '__ZN4core3ptr62drop_in_place$LT$syn..path..AngleBracketedGenericArguments$GT$17hc5b69f68243636ddE', symObjAddr: 0x6BE0, symBinAddr: 0x7A220, symSize: 0x120 }
  - { offsetInCU: 0x41D33, offset: 0x2C892F, size: 0x8, addend: 0x0, symName: '__ZN4core3ptr63drop_in_place$LT$alloc..boxed..Box$LT$syn..lit..LitRepr$GT$$GT$17hd8839b7fb35ee7afE', symObjAddr: 0x6D00, symBinAddr: 0x7A340, symSize: 0x60 }
  - { offsetInCU: 0x42028, offset: 0x2C8C24, size: 0x8, addend: 0x0, symName: '__ZN4core3ptr64drop_in_place$LT$alloc..boxed..Box$LT$syn..pat..FieldPat$GT$$GT$17h4980b70a7597cc08E', symObjAddr: 0x6D60, symBinAddr: 0x7A3A0, symSize: 0x140 }
  - { offsetInCU: 0x426D3, offset: 0x2C92CF, size: 0x8, addend: 0x0, symName: '__ZN4core3ptr64drop_in_place$LT$alloc..boxed..Box$LT$syn..ty..BareFnArg$GT$$GT$17h8b34096c620314efE', symObjAddr: 0x6EA0, symBinAddr: 0x7A4E0, symSize: 0x140 }
  - { offsetInCU: 0x42BF7, offset: 0x2C97F3, size: 0x8, addend: 0x0, symName: '__ZN4core3ptr64drop_in_place$LT$alloc..vec..Vec$LT$syn..attr..Attribute$GT$$GT$17h3c8f2a04e701c675E.llvm.589876701818171446', symObjAddr: 0x6FE0, symBinAddr: 0x7A620, symSize: 0xD0 }
  - { offsetInCU: 0x42E84, offset: 0x2C9A80, size: 0x8, addend: 0x0, symName: '__ZN4core3ptr65drop_in_place$LT$core..option..Option$LT$syn..expr..Label$GT$$GT$17h78189e72a8cb7951E', symObjAddr: 0x70B0, symBinAddr: 0x7A6F0, symSize: 0x30 }
  - { offsetInCU: 0x42FBF, offset: 0x2C9BBB, size: 0x8, addend: 0x0, symName: '__ZN4core3ptr65drop_in_place$LT$core..option..Option$LT$syn..path..QSelf$GT$$GT$17h9b72552ca06b7379E.llvm.589876701818171446', symObjAddr: 0x70E0, symBinAddr: 0x7A720, symSize: 0x50 }
  - { offsetInCU: 0x43158, offset: 0x2C9D54, size: 0x8, addend: 0x0, symName: '__ZN4core3ptr66drop_in_place$LT$core..option..Option$LT$syn..pat..PatRest$GT$$GT$17h61677cf4ff3a7393E', symObjAddr: 0x7130, symBinAddr: 0x7A770, symSize: 0xE0 }
  - { offsetInCU: 0x433DC, offset: 0x2C9FD8, size: 0x8, addend: 0x0, symName: '__ZN4core3ptr67drop_in_place$LT$alloc..boxed..Box$LT$syn..expr..FieldValue$GT$$GT$17h93aaccf8aa22ef88E', symObjAddr: 0x7210, symBinAddr: 0x7A850, symSize: 0x140 }
  - { offsetInCU: 0x438E0, offset: 0x2CA4DC, size: 0x8, addend: 0x0, symName: '__ZN4core3ptr68drop_in_place$LT$alloc..boxed..Box$LT$syn..path..PathSegment$GT$$GT$17h709dabdc13b58a71E', symObjAddr: 0x7350, symBinAddr: 0x7A990, symSize: 0x190 }
  - { offsetInCU: 0x43FBE, offset: 0x2CABBA, size: 0x8, addend: 0x0, symName: '__ZN4core3ptr70drop_in_place$LT$core..option..Option$LT$syn..ty..BareVariadic$GT$$GT$17h45399348ea4b8d55E', symObjAddr: 0x74E0, symBinAddr: 0x7AB20, symSize: 0x120 }
  - { offsetInCU: 0x444EB, offset: 0x2CB0E7, size: 0x8, addend: 0x0, symName: '__ZN4core3ptr72drop_in_place$LT$alloc..boxed..Box$LT$syn..path..GenericArgument$GT$$GT$17haa7dd8b716637b54E', symObjAddr: 0x7600, symBinAddr: 0x7AC40, symSize: 0x1D0 }
  - { offsetInCU: 0x44A8E, offset: 0x2CB68A, size: 0x8, addend: 0x0, symName: '__ZN4core3ptr72drop_in_place$LT$core..option..Option$LT$syn..lifetime..Lifetime$GT$$GT$17hfc363ccdd8bd9c32E', symObjAddr: 0x77D0, symBinAddr: 0x7AE10, symSize: 0x30 }
  - { offsetInCU: 0x44BAA, offset: 0x2CB7A6, size: 0x8, addend: 0x0, symName: '__ZN4core3ptr73drop_in_place$LT$alloc..boxed..Box$LT$syn..generics..GenericParam$GT$$GT$17hf6951dcd5ae07324E', symObjAddr: 0x7800, symBinAddr: 0x7AE40, symSize: 0x80 }
  - { offsetInCU: 0x44D22, offset: 0x2CB91E, size: 0x8, addend: 0x0, symName: '__ZN4core3ptr75drop_in_place$LT$alloc..boxed..Box$LT$syn..generics..TypeParamBound$GT$$GT$17he61c00698a311a34E', symObjAddr: 0x7880, symBinAddr: 0x7AEC0, symSize: 0xB0 }
  - { offsetInCU: 0x4507D, offset: 0x2CBC79, size: 0x8, addend: 0x0, symName: '__ZN4core3ptr86drop_in_place$LT$syn..punctuated..Punctuated$LT$syn..pat..Pat$C$syn..token..Or$GT$$GT$17h8e9173df21a44316E', symObjAddr: 0x7950, symBinAddr: 0x7AF70, symSize: 0x120 }
  - { offsetInCU: 0x454C3, offset: 0x2CC0BF, size: 0x8, addend: 0x0, symName: '__ZN4core3ptr87drop_in_place$LT$core..option..Option$LT$alloc..boxed..Box$LT$syn..pat..Pat$GT$$GT$$GT$17hd7b7c69f601b3926E', symObjAddr: 0x7A70, symBinAddr: 0x7B090, symSize: 0x50 }
  - { offsetInCU: 0x45635, offset: 0x2CC231, size: 0x8, addend: 0x0, symName: '__ZN4core3ptr87drop_in_place$LT$core..option..Option$LT$alloc..boxed..Box$LT$syn..ty..Type$GT$$GT$$GT$17hd74f5d971aec2972E', symObjAddr: 0x7AC0, symBinAddr: 0x7B0E0, symSize: 0x50 }
  - { offsetInCU: 0x457A7, offset: 0x2CC3A3, size: 0x8, addend: 0x0, symName: '__ZN4core3ptr88drop_in_place$LT$$LP$syn..token..Else$C$alloc..boxed..Box$LT$syn..expr..Expr$GT$$RP$$GT$17hba8984e392f62c24E', symObjAddr: 0x7B10, symBinAddr: 0x7B130, symSize: 0x50 }
  - { offsetInCU: 0x45921, offset: 0x2CC51D, size: 0x8, addend: 0x0, symName: '__ZN4core3ptr89drop_in_place$LT$core..option..Option$LT$alloc..boxed..Box$LT$syn..expr..Expr$GT$$GT$$GT$17h8e135ac1a25a2dc5E.llvm.589876701818171446', symObjAddr: 0x7B60, symBinAddr: 0x7B180, symSize: 0x50 }
  - { offsetInCU: 0x45AD1, offset: 0x2CC6CD, size: 0x8, addend: 0x0, symName: '__ZN4core3ptr89drop_in_place$LT$syn..punctuated..Punctuated$LT$syn..pat..Pat$C$syn..token..Comma$GT$$GT$17h8d60e47f3fb1f87aE', symObjAddr: 0x7BB0, symBinAddr: 0x7B1D0, symSize: 0x120 }
  - { offsetInCU: 0x45F2E, offset: 0x2CCB2A, size: 0x8, addend: 0x0, symName: '__ZN4core3ptr89drop_in_place$LT$syn..punctuated..Punctuated$LT$syn..ty..Type$C$syn..token..Comma$GT$$GT$17ha919b3114742fb9dE', symObjAddr: 0x7CD0, symBinAddr: 0x7B2F0, symSize: 0x120 }
  - { offsetInCU: 0x46378, offset: 0x2CCF74, size: 0x8, addend: 0x0, symName: '__ZN4core3ptr90drop_in_place$LT$core..option..Option$LT$syn..path..AngleBracketedGenericArguments$GT$$GT$17h80d9a5f0818c8bd9E', symObjAddr: 0x7DF0, symBinAddr: 0x7B410, symSize: 0x130 }
  - { offsetInCU: 0x467A5, offset: 0x2CD3A1, size: 0x8, addend: 0x0, symName: '__ZN4core3ptr91drop_in_place$LT$syn..punctuated..Punctuated$LT$syn..expr..Expr$C$syn..token..Comma$GT$$GT$17h4f39b83dc86a4159E', symObjAddr: 0x7F20, symBinAddr: 0x7B540, symSize: 0x120 }
  - { offsetInCU: 0x46BEF, offset: 0x2CD7EB, size: 0x8, addend: 0x0, symName: '__ZN4core3ptr94drop_in_place$LT$syn..punctuated..Punctuated$LT$syn..pat..FieldPat$C$syn..token..Comma$GT$$GT$17h112950ea198c8281E', symObjAddr: 0x8040, symBinAddr: 0x7B660, symSize: 0xF0 }
  - { offsetInCU: 0x46EB9, offset: 0x2CDAB5, size: 0x8, addend: 0x0, symName: '__ZN4core3ptr94drop_in_place$LT$syn..punctuated..Punctuated$LT$syn..ty..BareFnArg$C$syn..token..Comma$GT$$GT$17h1c7b44310f06243dE', symObjAddr: 0x8130, symBinAddr: 0x7B750, symSize: 0xF0 }
  - { offsetInCU: 0x47183, offset: 0x2CDD7F, size: 0x8, addend: 0x0, symName: '__ZN4core3ptr95drop_in_place$LT$core..option..Option$LT$$LP$proc_macro2..Ident$C$syn..token..Colon$RP$$GT$$GT$17ha744bf0f41959716E', symObjAddr: 0x8220, symBinAddr: 0x7B840, symSize: 0x30 }
  - { offsetInCU: 0x4729F, offset: 0x2CDE9B, size: 0x8, addend: 0x0, symName: '__ZN4core3ptr96drop_in_place$LT$core..option..Option$LT$alloc..boxed..Box$LT$syn..path..PathSegment$GT$$GT$$GT$17hb447d0f626c86a4eE', symObjAddr: 0x8250, symBinAddr: 0x7B870, symSize: 0x90 }
  - { offsetInCU: 0x47521, offset: 0x2CE11D, size: 0x8, addend: 0x0, symName: '__ZN4core3ptr97drop_in_place$LT$syn..punctuated..Punctuated$LT$syn..expr..FieldValue$C$syn..token..Comma$GT$$GT$17h31b81f7462228dcbE', symObjAddr: 0x82E0, symBinAddr: 0x7B900, symSize: 0xF0 }
  - { offsetInCU: 0x47867, offset: 0x2CE463, size: 0x8, addend: 0x0, symName: '__ZN4core3ptr98drop_in_place$LT$syn..punctuated..Punctuated$LT$syn..lifetime..Lifetime$C$syn..token..Plus$GT$$GT$17h0f8fc5f20f465f47E', symObjAddr: 0x83D0, symBinAddr: 0x7B9F0, symSize: 0xC0 }
  - { offsetInCU: 0x4E271, offset: 0x2D4E6D, size: 0x8, addend: 0x0, symName: '__ZN69_$LT$alloc..boxed..Box$LT$T$C$A$GT$$u20$as$u20$core..clone..Clone$GT$5clone17h3b3509f8065d1aa7E', symObjAddr: 0x8B90, symBinAddr: 0x7BAB0, symSize: 0x90 }
  - { offsetInCU: 0x4FCFC, offset: 0x2D68F8, size: 0x8, addend: 0x0, symName: __ZN3syn4expr4Expr13replace_attrs17h8f3cf7f80b801d36E, symObjAddr: 0x8FE0, symBinAddr: 0x7BB40, symSize: 0x1D0 }
  - { offsetInCU: 0x50F20, offset: 0x2D7B1C, size: 0x8, addend: 0x0, symName: '__ZN3syn4expr7parsing40_$LT$impl$u20$syn..expr..RangeLimits$GT$14parse_obsolete17he567255c2d646d59E', symObjAddr: 0xF6B0, symBinAddr: 0x812F0, symSize: 0x390 }
  - { offsetInCU: 0x1090, offset: 0x2E52DA, size: 0x8, addend: 0x0, symName: '__ZN42_$LT$$RF$T$u20$as$u20$core..fmt..Debug$GT$3fmt17he3619b2352a5e524E', symObjAddr: 0x180, symBinAddr: 0x8AB70, symSize: 0x80 }
  - { offsetInCU: 0x3096, offset: 0x2E72E0, size: 0x8, addend: 0x0, symName: '__ZN4core3ptr100drop_in_place$LT$core..option..Option$LT$alloc..boxed..Box$LT$syn..path..GenericArgument$GT$$GT$$GT$17h7435c9de74860622E.llvm.2618680253894991198', symObjAddr: 0x280, symBinAddr: 0x8ABF0, symSize: 0x50 }
  - { offsetInCU: 0x33D9, offset: 0x2E7623, size: 0x8, addend: 0x0, symName: '__ZN4core3ptr100drop_in_place$LT$syn..punctuated..Punctuated$LT$syn..path..PathSegment$C$syn..token..PathSep$GT$$GT$17hf414cb3581f8337aE.llvm.2618680253894991198', symObjAddr: 0x2D0, symBinAddr: 0x8AC40, symSize: 0x1A0 }
  - { offsetInCU: 0x3AB1, offset: 0x2E7CFB, size: 0x8, addend: 0x0, symName: '__ZN4core3ptr101drop_in_place$LT$core..option..Option$LT$alloc..boxed..Box$LT$syn..generics..GenericParam$GT$$GT$$GT$17hd5dce04b35fda9feE', symObjAddr: 0x470, symBinAddr: 0x8ADE0, symSize: 0x50 }
  - { offsetInCU: 0x3C9F, offset: 0x2E7EE9, size: 0x8, addend: 0x0, symName: '__ZN4core3ptr102drop_in_place$LT$syn..punctuated..Punctuated$LT$syn..path..GenericArgument$C$syn..token..Comma$GT$$GT$17h39496ba4e6dba6cfE.llvm.2618680253894991198', symObjAddr: 0x4C0, symBinAddr: 0x8AE30, symSize: 0xF0 }
  - { offsetInCU: 0x3F88, offset: 0x2E81D2, size: 0x8, addend: 0x0, symName: '__ZN4core3ptr103drop_in_place$LT$core..option..Option$LT$alloc..boxed..Box$LT$syn..generics..TypeParamBound$GT$$GT$$GT$17h5974f03e36b1a9c3E.llvm.2618680253894991198', symObjAddr: 0x5B0, symBinAddr: 0x8AF20, symSize: 0x50 }
  - { offsetInCU: 0x4119, offset: 0x2E8363, size: 0x8, addend: 0x0, symName: '__ZN4core3ptr103drop_in_place$LT$core..option..Option$LT$alloc..boxed..Box$LT$syn..generics..WherePredicate$GT$$GT$$GT$17hdd5111a374d8d6f2E', symObjAddr: 0x600, symBinAddr: 0x8AF70, symSize: 0x50 }
  - { offsetInCU: 0x4345, offset: 0x2E858F, size: 0x8, addend: 0x0, symName: '__ZN4core3ptr103drop_in_place$LT$syn..punctuated..Punctuated$LT$syn..generics..GenericParam$C$syn..token..Comma$GT$$GT$17hf42353fa44ed6da8E.llvm.2618680253894991198', symObjAddr: 0x650, symBinAddr: 0x8AFC0, symSize: 0x1A0 }
  - { offsetInCU: 0x4914, offset: 0x2E8B5E, size: 0x8, addend: 0x0, symName: '__ZN4core3ptr104drop_in_place$LT$syn..punctuated..Punctuated$LT$syn..generics..TypeParamBound$C$syn..token..Plus$GT$$GT$17h532f52c4a894b056E.llvm.2618680253894991198', symObjAddr: 0x7F0, symBinAddr: 0x8B160, symSize: 0x230 }
  - { offsetInCU: 0x5245, offset: 0x2E948F, size: 0x8, addend: 0x0, symName: '__ZN4core3ptr105drop_in_place$LT$syn..punctuated..Punctuated$LT$syn..generics..WherePredicate$C$syn..token..Comma$GT$$GT$17h935f9826ba562349E', symObjAddr: 0xA20, symBinAddr: 0x8B390, symSize: 0x190 }
  - { offsetInCU: 0x5916, offset: 0x2E9B60, size: 0x8, addend: 0x0, symName: '__ZN4core3ptr116drop_in_place$LT$core..option..Option$LT$$LP$syn..token..Else$C$alloc..boxed..Box$LT$syn..expr..Expr$GT$$RP$$GT$$GT$17hce47d33a8602d206E', symObjAddr: 0xBB0, symBinAddr: 0x8B520, symSize: 0x50 }
  - { offsetInCU: 0x5AD4, offset: 0x2E9D1E, size: 0x8, addend: 0x0, symName: '__ZN4core3ptr126drop_in_place$LT$core..option..Option$LT$$LP$syn..token..And$C$core..option..Option$LT$syn..lifetime..Lifetime$GT$$RP$$GT$$GT$17hc269ac95805979aaE', symObjAddr: 0xC00, symBinAddr: 0x8B570, symSize: 0x30 }
  - { offsetInCU: 0x5D64, offset: 0x2E9FAE, size: 0x8, addend: 0x0, symName: '__ZN4core3ptr33drop_in_place$LT$syn..ty..Abi$GT$17h82d9e208356e7513E', symObjAddr: 0xC30, symBinAddr: 0x8B5A0, symSize: 0x60 }
  - { offsetInCU: 0x5D80, offset: 0x2E9FCA, size: 0x8, addend: 0x0, symName: '__ZN4core3ptr33drop_in_place$LT$syn..ty..Abi$GT$17h82d9e208356e7513E', symObjAddr: 0xC30, symBinAddr: 0x8B5A0, symSize: 0x60 }
  - { offsetInCU: 0x607A, offset: 0x2EA2C4, size: 0x8, addend: 0x0, symName: '__ZN4core3ptr34drop_in_place$LT$syn..lit..Lit$GT$17h8902f5ff67917034E', symObjAddr: 0xC90, symBinAddr: 0x8B600, symSize: 0x110 }
  - { offsetInCU: 0x65F2, offset: 0x2EA83C, size: 0x8, addend: 0x0, symName: '__ZN4core3ptr34drop_in_place$LT$syn..pat..Pat$GT$17h4581eea028ec0969E.llvm.2618680253894991198', symObjAddr: 0xDA0, symBinAddr: 0x8B710, symSize: 0xF50 }
  - { offsetInCU: 0xA091, offset: 0x2EE2DB, size: 0x8, addend: 0x0, symName: '__ZN4core3ptr34drop_in_place$LT$syn..ty..Type$GT$17h369e41ad4a9f1ae0E.llvm.2618680253894991198', symObjAddr: 0x1CF0, symBinAddr: 0x8C660, symSize: 0x4E0 }
  - { offsetInCU: 0xB15A, offset: 0x2EF3A4, size: 0x8, addend: 0x0, symName: '__ZN4core3ptr35drop_in_place$LT$syn..expr..Arm$GT$17hf2baebe0cd7aed98E.llvm.2618680253894991198', symObjAddr: 0x21D0, symBinAddr: 0x8CB40, symSize: 0x190 }
  - { offsetInCU: 0xB73E, offset: 0x2EF988, size: 0x8, addend: 0x0, symName: '__ZN4core3ptr36drop_in_place$LT$syn..attr..Meta$GT$17hceda0eaca68b0dd1E.llvm.2618680253894991198', symObjAddr: 0x2360, symBinAddr: 0x8CCD0, symSize: 0x220 }
  - { offsetInCU: 0xC23D, offset: 0x2F0487, size: 0x8, addend: 0x0, symName: '__ZN4core3ptr36drop_in_place$LT$syn..expr..Expr$GT$17h0f7fd4c749bae801E.llvm.2618680253894991198', symObjAddr: 0x2580, symBinAddr: 0x8CEF0, symSize: 0x2680 }
  - { offsetInCU: 0x15ABC, offset: 0x2F9D06, size: 0x8, addend: 0x0, symName: '__ZN4core3ptr36drop_in_place$LT$syn..item..Item$GT$17h13f5a53479ba6379E.llvm.2618680253894991198', symObjAddr: 0x4C00, symBinAddr: 0x8F570, symSize: 0x17D0 }
  - { offsetInCU: 0x1AFBB, offset: 0x2FF205, size: 0x8, addend: 0x0, symName: '__ZN4core3ptr36drop_in_place$LT$syn..mac..Macro$GT$17h4ffde962df30ebe2E', symObjAddr: 0x63D0, symBinAddr: 0x90D40, symSize: 0xE0 }
  - { offsetInCU: 0x1B2C5, offset: 0x2FF50F, size: 0x8, addend: 0x0, symName: '__ZN4core3ptr36drop_in_place$LT$syn..path..Path$GT$17habea856181211e1cE.llvm.2618680253894991198', symObjAddr: 0x64B0, symBinAddr: 0x90E20, symSize: 0x150 }
  - { offsetInCU: 0x1B872, offset: 0x2FFABC, size: 0x8, addend: 0x0, symName: '__ZN4core3ptr36drop_in_place$LT$syn..stmt..Stmt$GT$17h7826ed37cb9634e5E.llvm.2618680253894991198', symObjAddr: 0x6600, symBinAddr: 0x90F70, symSize: 0x380 }
  - { offsetInCU: 0x1C43E, offset: 0x300688, size: 0x8, addend: 0x0, symName: '__ZN4core3ptr37drop_in_place$LT$syn..data..Field$GT$17h8ecf6e22a67a3b36E.llvm.2618680253894991198', symObjAddr: 0x6980, symBinAddr: 0x912F0, symSize: 0x180 }
  - { offsetInCU: 0x1CA03, offset: 0x300C4D, size: 0x8, addend: 0x0, symName: '__ZN4core3ptr37drop_in_place$LT$syn..item..FnArg$GT$17h3308e115b3b3c9adE.llvm.2618680253894991198', symObjAddr: 0x6B00, symBinAddr: 0x91470, symSize: 0x230 }
  - { offsetInCU: 0x1D2B5, offset: 0x3014FF, size: 0x8, addend: 0x0, symName: '__ZN4core3ptr37drop_in_place$LT$syn..stmt..Block$GT$17hcc21a21cf949414cE', symObjAddr: 0x6D30, symBinAddr: 0x916A0, symSize: 0xD0 }
  - { offsetInCU: 0x1D559, offset: 0x3017A3, size: 0x8, addend: 0x0, symName: '__ZN4core3ptr38drop_in_place$LT$syn..expr..ExprIf$GT$17h01a54a489d798b2dE.llvm.2618680253894991198', symObjAddr: 0x6E00, symBinAddr: 0x91770, symSize: 0x1B0 }
  - { offsetInCU: 0x1DDC3, offset: 0x30200D, size: 0x8, addend: 0x0, symName: '__ZN4core3ptr38drop_in_place$LT$syn..expr..Member$GT$17h022cbe5553aa40faE.llvm.2618680253894991198', symObjAddr: 0x6FB0, symBinAddr: 0x91920, symSize: 0x30 }
  - { offsetInCU: 0x1DEC0, offset: 0x30210A, size: 0x8, addend: 0x0, symName: '__ZN4core3ptr38drop_in_place$LT$syn..pat..PatType$GT$17hcbbce80a195201a4E.llvm.2618680253894991198', symObjAddr: 0x6FE0, symBinAddr: 0x91950, symSize: 0x140 }
  - { offsetInCU: 0x1E43C, offset: 0x302686, size: 0x8, addend: 0x0, symName: '__ZN4core3ptr39drop_in_place$LT$proc_macro2..Ident$GT$17h8101e88c3ac359d6E.llvm.2618680253894991198', symObjAddr: 0x7120, symBinAddr: 0x91A90, symSize: 0x30 }
  - { offsetInCU: 0x1E650, offset: 0x30289A, size: 0x8, addend: 0x0, symName: '__ZN4core3ptr39drop_in_place$LT$syn..buffer..Entry$GT$17h8c4c199506966aaeE.llvm.2618680253894991198', symObjAddr: 0x7150, symBinAddr: 0x91AC0, symSize: 0xC0 }
  - { offsetInCU: 0x1E9C1, offset: 0x302C0B, size: 0x8, addend: 0x0, symName: '__ZN4core3ptr39drop_in_place$LT$syn..data..Variant$GT$17h7bd4c363751fc860E.llvm.2618680253894991198', symObjAddr: 0x7210, symBinAddr: 0x91B80, symSize: 0x2F0 }
  - { offsetInCU: 0x1F5CF, offset: 0x303819, size: 0x8, addend: 0x0, symName: '__ZN4core3ptr39drop_in_place$LT$syn..item..UseTree$GT$17h5b1281a5704d139dE.llvm.2618680253894991198', symObjAddr: 0x7500, symBinAddr: 0x91E70, symSize: 0x1D0 }
  - { offsetInCU: 0x1FCEE, offset: 0x303F38, size: 0x8, addend: 0x0, symName: '__ZN4core3ptr40drop_in_place$LT$syn..item..ImplItem$GT$17he2e6e8f15695ea55E', symObjAddr: 0x76D0, symBinAddr: 0x92040, symSize: 0x240 }
  - { offsetInCU: 0x202E9, offset: 0x304533, size: 0x8, addend: 0x0, symName: '__ZN4core3ptr40drop_in_place$LT$syn..item..Receiver$GT$17h6743a41cd869c536E.llvm.2618680253894991198', symObjAddr: 0x7910, symBinAddr: 0x92280, symSize: 0x130 }
  - { offsetInCU: 0x208BC, offset: 0x304B06, size: 0x8, addend: 0x0, symName: '__ZN4core3ptr40drop_in_place$LT$syn..item..Variadic$GT$17h856c1da4a3922974E', symObjAddr: 0x7A40, symBinAddr: 0x923B0, symSize: 0x120 }
  - { offsetInCU: 0x20D33, offset: 0x304F7D, size: 0x8, addend: 0x0, symName: '__ZN4core3ptr40drop_in_place$LT$syn..ty..ReturnType$GT$17h02cf41e2fec63d90E.llvm.2618680253894991198', symObjAddr: 0x7B60, symBinAddr: 0x924D0, symSize: 0x50 }
  - { offsetInCU: 0x20EC4, offset: 0x30510E, size: 0x8, addend: 0x0, symName: '__ZN4core3ptr41drop_in_place$LT$syn..attr..Attribute$GT$17h6038ab1bc013504dE.llvm.2618680253894991198', symObjAddr: 0x7BB0, symBinAddr: 0x92520, symSize: 0x160 }
  - { offsetInCU: 0x213AA, offset: 0x3055F4, size: 0x8, addend: 0x0, symName: '__ZN4core3ptr41drop_in_place$LT$syn..item..Signature$GT$17h691f115807a5d1eeE', symObjAddr: 0x7D10, symBinAddr: 0x92680, symSize: 0x280 }
  - { offsetInCU: 0x21E99, offset: 0x3060E3, size: 0x8, addend: 0x0, symName: '__ZN4core3ptr41drop_in_place$LT$syn..item..TraitItem$GT$17hb6f9fbcba8fdea85E', symObjAddr: 0x7F90, symBinAddr: 0x92900, symSize: 0x3E0 }
  - { offsetInCU: 0x229BF, offset: 0x306C09, size: 0x8, addend: 0x0, symName: '__ZN4core3ptr41drop_in_place$LT$syn..stmt..LocalInit$GT$17he02c3bb35adaf040E', symObjAddr: 0x8370, symBinAddr: 0x92CE0, symSize: 0xC0 }
  - { offsetInCU: 0x22CB3, offset: 0x306EFD, size: 0x8, addend: 0x0, symName: '__ZN4core3ptr42drop_in_place$LT$syn..item..ImplItemFn$GT$17h753bae801f2662d9E', symObjAddr: 0x8430, symBinAddr: 0x92DA0, symSize: 0x230 }
  - { offsetInCU: 0x2340E, offset: 0x307658, size: 0x8, addend: 0x0, symName: '__ZN4core3ptr42drop_in_place$LT$syn..path..Constraint$GT$17h07cd69a204b9a6d4E', symObjAddr: 0x8660, symBinAddr: 0x92FD0, symSize: 0x160 }
  - { offsetInCU: 0x2396E, offset: 0x307BB8, size: 0x8, addend: 0x0, symName: '__ZN4core3ptr43drop_in_place$LT$proc_macro2..TokenTree$GT$17h9a731c54895ae11bE.llvm.2618680253894991198', symObjAddr: 0x87C0, symBinAddr: 0x93130, symSize: 0xB0 }
  - { offsetInCU: 0x23C82, offset: 0x307ECC, size: 0x8, addend: 0x0, symName: '__ZN4core3ptr43drop_in_place$LT$syn..data..FieldsNamed$GT$17hb2a97e73a85352cbE', symObjAddr: 0x8870, symBinAddr: 0x931E0, symSize: 0x120 }
  - { offsetInCU: 0x2410A, offset: 0x308354, size: 0x8, addend: 0x0, symName: '__ZN4core3ptr43drop_in_place$LT$syn..item..ForeignItem$GT$17h1398b9aa0a6e4c9dE', symObjAddr: 0x8990, symBinAddr: 0x93300, symSize: 0x330 }
  - { offsetInCU: 0x24A91, offset: 0x308CDB, size: 0x8, addend: 0x0, symName: '__ZN4core3ptr43drop_in_place$LT$syn..path..PathSegment$GT$17h62e206c29667de7cE.llvm.2618680253894991198', symObjAddr: 0x8CC0, symBinAddr: 0x93630, symSize: 0x170 }
  - { offsetInCU: 0x25035, offset: 0x30927F, size: 0x8, addend: 0x0, symName: '__ZN4core3ptr44drop_in_place$LT$syn..generics..Generics$GT$17h10dea28dec64f81eE', symObjAddr: 0x8E30, symBinAddr: 0x937A0, symSize: 0x220 }
  - { offsetInCU: 0x258B2, offset: 0x309AFC, size: 0x8, addend: 0x0, symName: '__ZN4core3ptr44drop_in_place$LT$syn..item..ImplItemType$GT$17h9547daf76315cef8E', symObjAddr: 0x9050, symBinAddr: 0x939C0, symSize: 0x1D0 }
  - { offsetInCU: 0x25E9A, offset: 0x30A0E4, size: 0x8, addend: 0x0, symName: '__ZN4core3ptr44drop_in_place$LT$syn..lifetime..Lifetime$GT$17hf0cdec2e9ec456d6E.llvm.2618680253894991198', symObjAddr: 0x9220, symBinAddr: 0x93B90, symSize: 0x30 }
  - { offsetInCU: 0x25FF4, offset: 0x30A23E, size: 0x8, addend: 0x0, symName: '__ZN4core3ptr45drop_in_place$LT$proc_macro2..TokenStream$GT$17h3405f6c513e9f6cbE.llvm.2618680253894991198', symObjAddr: 0x9250, symBinAddr: 0x93BC0, symSize: 0x70 }
  - { offsetInCU: 0x2615B, offset: 0x30A3A5, size: 0x8, addend: 0x0, symName: '__ZN4core3ptr45drop_in_place$LT$syn..generics..TypeParam$GT$17he5eda51070b7de47E.llvm.2618680253894991198', symObjAddr: 0x92C0, symBinAddr: 0x93C30, symSize: 0x230 }
  - { offsetInCU: 0x269A0, offset: 0x30ABEA, size: 0x8, addend: 0x0, symName: '__ZN4core3ptr45drop_in_place$LT$syn..item..ImplItemConst$GT$17he90cac64fa027f09E', symObjAddr: 0x94F0, symBinAddr: 0x93E60, symSize: 0x200 }
  - { offsetInCU: 0x26FC6, offset: 0x30B210, size: 0x8, addend: 0x0, symName: '__ZN4core3ptr45drop_in_place$LT$syn..item..TraitItemType$GT$17hec5203fd126d0733E', symObjAddr: 0x96F0, symBinAddr: 0x94060, symSize: 0x290 }
  - { offsetInCU: 0x278D7, offset: 0x30BB21, size: 0x8, addend: 0x0, symName: '__ZN4core3ptr46drop_in_place$LT$$u5b$syn..stmt..Stmt$u5d$$GT$17h0a8006ae14c66d0fE.llvm.2618680253894991198', symObjAddr: 0x9980, symBinAddr: 0x942F0, symSize: 0x2F0 }
  - { offsetInCU: 0x27F09, offset: 0x30C153, size: 0x8, addend: 0x0, symName: '__ZN4core3ptr46drop_in_place$LT$syn..generics..ConstParam$GT$17hab0a58c4af8c549cE.llvm.2618680253894991198', symObjAddr: 0x9C70, symBinAddr: 0x945E0, symSize: 0x150 }
  - { offsetInCU: 0x2830A, offset: 0x30C554, size: 0x8, addend: 0x0, symName: '__ZN4core3ptr46drop_in_place$LT$syn..item..TraitItemConst$GT$17h93b00edde47e0b07E', symObjAddr: 0x9DC0, symBinAddr: 0x94730, symSize: 0x1A0 }
  - { offsetInCU: 0x287BE, offset: 0x30CA08, size: 0x8, addend: 0x0, symName: '__ZN4core3ptr47drop_in_place$LT$syn..generics..WhereClause$GT$17h8d71cc7a854160ddE', symObjAddr: 0x9F60, symBinAddr: 0x948D0, symSize: 0x120 }
  - { offsetInCU: 0x28C08, offset: 0x30CE52, size: 0x8, addend: 0x0, symName: '__ZN4core3ptr47drop_in_place$LT$syn..item..ForeignItemType$GT$17ha1c97c43a7eb44cfE', symObjAddr: 0xA080, symBinAddr: 0x949F0, symSize: 0x1A0 }
  - { offsetInCU: 0x2924D, offset: 0x30D497, size: 0x8, addend: 0x0, symName: '__ZN4core3ptr47drop_in_place$LT$syn..path..GenericArgument$GT$17h54f8794633f96823E.llvm.2618680253894991198', symObjAddr: 0xA220, symBinAddr: 0x94B90, symSize: 0x1C0 }
  - { offsetInCU: 0x29700, offset: 0x30D94A, size: 0x8, addend: 0x0, symName: '__ZN4core3ptr48drop_in_place$LT$syn..generics..GenericParam$GT$17h9c895978ef08f584E.llvm.2618680253894991198', symObjAddr: 0xA3E0, symBinAddr: 0x94D50, symSize: 0x150 }
  - { offsetInCU: 0x29AF2, offset: 0x30DD3C, size: 0x8, addend: 0x0, symName: '__ZN4core3ptr49drop_in_place$LT$syn..generics..LifetimeParam$GT$17h41a7c7a290ea6289E.llvm.2618680253894991198', symObjAddr: 0xA530, symBinAddr: 0x94EA0, symSize: 0xF0 }
  - { offsetInCU: 0x29ECD, offset: 0x30E117, size: 0x8, addend: 0x0, symName: '__ZN4core3ptr49drop_in_place$LT$syn..generics..PredicateType$GT$17hf38482bec426e936E.llvm.2618680253894991198', symObjAddr: 0xA620, symBinAddr: 0x94F90, symSize: 0x170 }
  - { offsetInCU: 0x2A349, offset: 0x30E593, size: 0x8, addend: 0x0, symName: '__ZN4core3ptr49drop_in_place$LT$syn..item..ForeignItemStatic$GT$17h7f3c810db69ed760E', symObjAddr: 0xA790, symBinAddr: 0x95100, symSize: 0x180 }
  - { offsetInCU: 0x2AA22, offset: 0x30EC6C, size: 0x8, addend: 0x0, symName: '__ZN4core3ptr50drop_in_place$LT$$u5b$syn..item..ImplItem$u5d$$GT$17haee7878761be0217E.llvm.2618680253894991198', symObjAddr: 0xA910, symBinAddr: 0x95280, symSize: 0x230 }
  - { offsetInCU: 0x2AD4A, offset: 0x30EF94, size: 0x8, addend: 0x0, symName: '__ZN4core3ptr50drop_in_place$LT$syn..generics..TypeParamBound$GT$17hcd7771d4c6c221efE.llvm.2618680253894991198', symObjAddr: 0xAB40, symBinAddr: 0x954B0, symSize: 0xA0 }
  - { offsetInCU: 0x2AED0, offset: 0x30F11A, size: 0x8, addend: 0x0, symName: '__ZN4core3ptr50drop_in_place$LT$syn..generics..WherePredicate$GT$17h1a9d05bc1beb1d91E.llvm.2618680253894991198', symObjAddr: 0xABE0, symBinAddr: 0x95550, symSize: 0xA0 }
  - { offsetInCU: 0x2B07D, offset: 0x30F2C7, size: 0x8, addend: 0x0, symName: '__ZN4core3ptr51drop_in_place$LT$$u5b$syn..item..TraitItem$u5d$$GT$17h64a6457ddfeb24d5E.llvm.2618680253894991198', symObjAddr: 0xAC80, symBinAddr: 0x955F0, symSize: 0x3F0 }
  - { offsetInCU: 0x2B8D5, offset: 0x30FB1F, size: 0x8, addend: 0x0, symName: '__ZN4core3ptr52drop_in_place$LT$syn..restriction..VisRestricted$GT$17h7de420d0018508c5E', symObjAddr: 0xB070, symBinAddr: 0x959E0, symSize: 0x50 }
  - { offsetInCU: 0x2BA6E, offset: 0x30FCB8, size: 0x8, addend: 0x0, symName: '__ZN4core3ptr53drop_in_place$LT$$u5b$syn..item..ForeignItem$u5d$$GT$17h0fb84ff15c76ad7aE.llvm.2618680253894991198', symObjAddr: 0xB0C0, symBinAddr: 0x95A30, symSize: 0x360 }
  - { offsetInCU: 0x2C1EC, offset: 0x310436, size: 0x8, addend: 0x0, symName: '__ZN4core3ptr58drop_in_place$LT$alloc..vec..Vec$LT$syn..expr..Arm$GT$$GT$17h1a55df3d2cba1daaE', symObjAddr: 0xB420, symBinAddr: 0x95D90, symSize: 0xD0 }
  - { offsetInCU: 0x2C479, offset: 0x3106C3, size: 0x8, addend: 0x0, symName: '__ZN4core3ptr59drop_in_place$LT$alloc..boxed..Box$LT$syn..pat..Pat$GT$$GT$17h563b135d87aca8abE.llvm.2618680253894991198', symObjAddr: 0xB4F0, symBinAddr: 0x95E60, symSize: 0x50 }
  - { offsetInCU: 0x2C5D4, offset: 0x31081E, size: 0x8, addend: 0x0, symName: '__ZN4core3ptr59drop_in_place$LT$alloc..boxed..Box$LT$syn..ty..Type$GT$$GT$17hffed36bad83adacbE.llvm.2618680253894991198', symObjAddr: 0xB540, symBinAddr: 0x95EB0, symSize: 0x50 }
  - { offsetInCU: 0x2C72F, offset: 0x310979, size: 0x8, addend: 0x0, symName: '__ZN4core3ptr59drop_in_place$LT$alloc..vec..Vec$LT$syn..item..Item$GT$$GT$17hf874c2ed1282c93cE', symObjAddr: 0xB590, symBinAddr: 0x95F00, symSize: 0xD0 }
  - { offsetInCU: 0x2C9BC, offset: 0x310C06, size: 0x8, addend: 0x0, symName: '__ZN4core3ptr59drop_in_place$LT$alloc..vec..Vec$LT$syn..stmt..Stmt$GT$$GT$17hb5c1acf3c61c43e2E', symObjAddr: 0xB660, symBinAddr: 0x95FD0, symSize: 0x80 }
  - { offsetInCU: 0x2CC3A, offset: 0x310E84, size: 0x8, addend: 0x0, symName: '__ZN4core3ptr61drop_in_place$LT$alloc..boxed..Box$LT$syn..expr..Expr$GT$$GT$17h01091e47f131475dE', symObjAddr: 0xB6E0, symBinAddr: 0x96050, symSize: 0x50 }
  - { offsetInCU: 0x2CD95, offset: 0x310FDF, size: 0x8, addend: 0x0, symName: '__ZN4core3ptr61drop_in_place$LT$alloc..boxed..Box$LT$syn..path..Path$GT$$GT$17ha58e58ae7c31ea61E', symObjAddr: 0xB730, symBinAddr: 0x960A0, symSize: 0xF0 }
  - { offsetInCU: 0x2D27B, offset: 0x3114C5, size: 0x8, addend: 0x0, symName: '__ZN4core3ptr61drop_in_place$LT$syn..path..ParenthesizedGenericArguments$GT$17h43d4aac5494326a7E.llvm.2618680253894991198', symObjAddr: 0xB820, symBinAddr: 0x96190, symSize: 0x170 }
  - { offsetInCU: 0x2D842, offset: 0x311A8C, size: 0x8, addend: 0x0, symName: '__ZN4core3ptr62drop_in_place$LT$alloc..boxed..Box$LT$syn..data..Field$GT$$GT$17hebc7cac3b74f311dE', symObjAddr: 0xB990, symBinAddr: 0x96300, symSize: 0x50 }
  - { offsetInCU: 0x2D9BC, offset: 0x311C06, size: 0x8, addend: 0x0, symName: '__ZN4core3ptr62drop_in_place$LT$alloc..boxed..Box$LT$syn..item..FnArg$GT$$GT$17hc527eff785dac3a2E', symObjAddr: 0xB9E0, symBinAddr: 0x96350, symSize: 0x60 }
  - { offsetInCU: 0x2DB34, offset: 0x311D7E, size: 0x8, addend: 0x0, symName: '__ZN4core3ptr62drop_in_place$LT$alloc..boxed..Box$LT$syn..stmt..Block$GT$$GT$17h30434998ae0f12a8E', symObjAddr: 0xBA40, symBinAddr: 0x963B0, symSize: 0xE0 }
  - { offsetInCU: 0x2DF53, offset: 0x31219D, size: 0x8, addend: 0x0, symName: '__ZN4core3ptr62drop_in_place$LT$alloc..vec..Vec$LT$syn..buffer..Entry$GT$$GT$17h73857e86c6f10397E.llvm.2618680253894991198', symObjAddr: 0xBB20, symBinAddr: 0x96490, symSize: 0xC0 }
  - { offsetInCU: 0x2E1F3, offset: 0x31243D, size: 0x8, addend: 0x0, symName: '__ZN4core3ptr62drop_in_place$LT$syn..path..AngleBracketedGenericArguments$GT$17hc5b69f68243636ddE.llvm.2618680253894991198', symObjAddr: 0xBBE0, symBinAddr: 0x96550, symSize: 0x120 }
  - { offsetInCU: 0x2E63D, offset: 0x312887, size: 0x8, addend: 0x0, symName: '__ZN4core3ptr63drop_in_place$LT$alloc..vec..Vec$LT$syn..item..ImplItem$GT$$GT$17hda9ba61cc1df3d0eE', symObjAddr: 0xBD00, symBinAddr: 0x96670, symSize: 0x80 }
  - { offsetInCU: 0x2E8BB, offset: 0x312B05, size: 0x8, addend: 0x0, symName: '__ZN4core3ptr64drop_in_place$LT$alloc..boxed..Box$LT$syn..data..Variant$GT$$GT$17h4d6d609d76c77795E', symObjAddr: 0xBD80, symBinAddr: 0x966F0, symSize: 0x50 }
  - { offsetInCU: 0x2EA16, offset: 0x312C60, size: 0x8, addend: 0x0, symName: '__ZN4core3ptr64drop_in_place$LT$alloc..boxed..Box$LT$syn..item..UseTree$GT$$GT$17he10cba0a4742709fE', symObjAddr: 0xBDD0, symBinAddr: 0x96740, symSize: 0x50 }
  - { offsetInCU: 0x2EB90, offset: 0x312DDA, size: 0x8, addend: 0x0, symName: '__ZN4core3ptr64drop_in_place$LT$alloc..boxed..Box$LT$syn..pat..FieldPat$GT$$GT$17h4980b70a7597cc08E', symObjAddr: 0xBE20, symBinAddr: 0x96790, symSize: 0x140 }
  - { offsetInCU: 0x2F231, offset: 0x31347B, size: 0x8, addend: 0x0, symName: '__ZN4core3ptr64drop_in_place$LT$alloc..boxed..Box$LT$syn..ty..BareFnArg$GT$$GT$17h8b34096c620314efE', symObjAddr: 0xBF60, symBinAddr: 0x968D0, symSize: 0x140 }
  - { offsetInCU: 0x2F789, offset: 0x3139D3, size: 0x8, addend: 0x0, symName: '__ZN4core3ptr64drop_in_place$LT$alloc..vec..Vec$LT$syn..attr..Attribute$GT$$GT$17h3c8f2a04e701c675E', symObjAddr: 0xC0A0, symBinAddr: 0x96A10, symSize: 0xD0 }
  - { offsetInCU: 0x2FA4A, offset: 0x313C94, size: 0x8, addend: 0x0, symName: '__ZN4core3ptr64drop_in_place$LT$alloc..vec..Vec$LT$syn..item..TraitItem$GT$$GT$17h60eb4b8666c57b93E', symObjAddr: 0xC170, symBinAddr: 0x96AE0, symSize: 0x80 }
  - { offsetInCU: 0x2FCC8, offset: 0x313F12, size: 0x8, addend: 0x0, symName: '__ZN4core3ptr65drop_in_place$LT$$LP$syn..item..FnArg$C$syn..token..Comma$RP$$GT$17hc164d69e1fc45771E.llvm.2618680253894991198', symObjAddr: 0xC1F0, symBinAddr: 0x96B60, symSize: 0x20 }
  - { offsetInCU: 0x2FD61, offset: 0x313FAB, size: 0x8, addend: 0x0, symName: '__ZN4core3ptr65drop_in_place$LT$alloc..vec..Vec$LT$proc_macro..TokenTree$GT$$GT$17h408088468d073beeE.llvm.2618680253894991198', symObjAddr: 0xC210, symBinAddr: 0x96B80, symSize: 0x120 }
  - { offsetInCU: 0x300D4, offset: 0x31431E, size: 0x8, addend: 0x0, symName: '__ZN4core3ptr65drop_in_place$LT$core..option..Option$LT$syn..expr..Label$GT$$GT$17h78189e72a8cb7951E', symObjAddr: 0xC330, symBinAddr: 0x96CA0, symSize: 0x30 }
  - { offsetInCU: 0x3020F, offset: 0x314459, size: 0x8, addend: 0x0, symName: '__ZN4core3ptr65drop_in_place$LT$core..option..Option$LT$syn..stmt..Block$GT$$GT$17h7d9c0a54a580a160E', symObjAddr: 0xC360, symBinAddr: 0x96CD0, symSize: 0xE0 }
  - { offsetInCU: 0x30474, offset: 0x3146BE, size: 0x8, addend: 0x0, symName: '__ZN4core3ptr66drop_in_place$LT$alloc..vec..Vec$LT$syn..item..ForeignItem$GT$$GT$17h3e58b8e683c84cf4E', symObjAddr: 0xC440, symBinAddr: 0x96DB0, symSize: 0x80 }
  - { offsetInCU: 0x306F2, offset: 0x31493C, size: 0x8, addend: 0x0, symName: '__ZN4core3ptr67drop_in_place$LT$$LP$syn..pat..FieldPat$C$syn..token..Comma$RP$$GT$17h85e934ef4c19bf0fE.llvm.2618680253894991198', symObjAddr: 0xC4C0, symBinAddr: 0x96E30, symSize: 0x130 }
  - { offsetInCU: 0x30C5C, offset: 0x314EA6, size: 0x8, addend: 0x0, symName: '__ZN4core3ptr67drop_in_place$LT$$LP$syn..ty..BareFnArg$C$syn..token..Comma$RP$$GT$17hd93958865c964865E.llvm.2618680253894991198', symObjAddr: 0xC5F0, symBinAddr: 0x96F60, symSize: 0x110 }
  - { offsetInCU: 0x310AD, offset: 0x3152F7, size: 0x8, addend: 0x0, symName: '__ZN4core3ptr67drop_in_place$LT$alloc..boxed..Box$LT$syn..expr..FieldValue$GT$$GT$17h93aaccf8aa22ef88E', symObjAddr: 0xC700, symBinAddr: 0x97070, symSize: 0x140 }
  - { offsetInCU: 0x315E5, offset: 0x31582F, size: 0x8, addend: 0x0, symName: '__ZN4core3ptr68drop_in_place$LT$alloc..boxed..Box$LT$syn..path..PathSegment$GT$$GT$17h709dabdc13b58a71E', symObjAddr: 0xC840, symBinAddr: 0x971B0, symSize: 0xD0 }
  - { offsetInCU: 0x319E3, offset: 0x315C2D, size: 0x8, addend: 0x0, symName: '__ZN4core3ptr69drop_in_place$LT$core..option..Option$LT$syn..stmt..LocalInit$GT$$GT$17h7427177b3fce4dc2E', symObjAddr: 0xC910, symBinAddr: 0x97280, symSize: 0xC0 }
  - { offsetInCU: 0x31D0B, offset: 0x315F55, size: 0x8, addend: 0x0, symName: '__ZN4core3ptr70drop_in_place$LT$$LP$syn..expr..FieldValue$C$syn..token..Comma$RP$$GT$17h490c542958e56dacE.llvm.2618680253894991198', symObjAddr: 0xC9D0, symBinAddr: 0x97340, symSize: 0x110 }
  - { offsetInCU: 0x3211D, offset: 0x316367, size: 0x8, addend: 0x0, symName: '__ZN4core3ptr70drop_in_place$LT$core..option..Option$LT$syn..ty..BareVariadic$GT$$GT$17h45399348ea4b8d55E', symObjAddr: 0xCAE0, symBinAddr: 0x97450, symSize: 0x100 }
  - { offsetInCU: 0x3254D, offset: 0x316797, size: 0x8, addend: 0x0, symName: '__ZN4core3ptr72drop_in_place$LT$alloc..boxed..Box$LT$syn..path..GenericArgument$GT$$GT$17haa7dd8b716637b54E.llvm.2618680253894991198', symObjAddr: 0xCBE0, symBinAddr: 0x97550, symSize: 0x180 }
  - { offsetInCU: 0x32A22, offset: 0x316C6C, size: 0x8, addend: 0x0, symName: '__ZN4core3ptr73drop_in_place$LT$$LP$syn..path..PathSegment$C$syn..token..PathSep$RP$$GT$17hf7a8dbee7b1b25c8E.llvm.2618680253894991198', symObjAddr: 0xCD60, symBinAddr: 0x976D0, symSize: 0xC0 }
  - { offsetInCU: 0x32CE8, offset: 0x316F32, size: 0x8, addend: 0x0, symName: '__ZN4core3ptr73drop_in_place$LT$alloc..boxed..Box$LT$syn..generics..GenericParam$GT$$GT$17hf6951dcd5ae07324E', symObjAddr: 0xCE20, symBinAddr: 0x97790, symSize: 0x80 }
  - { offsetInCU: 0x32E60, offset: 0x3170AA, size: 0x8, addend: 0x0, symName: '__ZN4core3ptr75drop_in_place$LT$$LP$syn..path..GenericArgument$C$syn..token..Comma$RP$$GT$17h3ba8f36bbe154baeE.llvm.2618680253894991198', symObjAddr: 0xCEA0, symBinAddr: 0x97810, symSize: 0x180 }
  - { offsetInCU: 0x331E8, offset: 0x317432, size: 0x8, addend: 0x0, symName: '__ZN4core3ptr75drop_in_place$LT$alloc..boxed..Box$LT$syn..generics..TypeParamBound$GT$$GT$17he61c00698a311a34E', symObjAddr: 0xD020, symBinAddr: 0x97990, symSize: 0x160 }
  - { offsetInCU: 0x33785, offset: 0x3179CF, size: 0x8, addend: 0x0, symName: '__ZN4core3ptr75drop_in_place$LT$alloc..boxed..Box$LT$syn..generics..WherePredicate$GT$$GT$17hb3c3f96fc44a9b07E', symObjAddr: 0xD180, symBinAddr: 0x97AF0, symSize: 0x80 }
  - { offsetInCU: 0x33A1B, offset: 0x317C65, size: 0x8, addend: 0x0, symName: '__ZN4core3ptr76drop_in_place$LT$$LP$syn..generics..GenericParam$C$syn..token..Comma$RP$$GT$17hadd4ee9dc4c521adE.llvm.2618680253894991198', symObjAddr: 0xD200, symBinAddr: 0x97B70, symSize: 0x40 }
  - { offsetInCU: 0x33A57, offset: 0x317CA1, size: 0x8, addend: 0x0, symName: '__ZN4core3ptr77drop_in_place$LT$$LP$syn..generics..TypeParamBound$C$syn..token..Plus$RP$$GT$17h74b4a4238bdefe04E.llvm.2618680253894991198', symObjAddr: 0xD240, symBinAddr: 0x97BB0, symSize: 0x160 }
  - { offsetInCU: 0x33EC2, offset: 0x31810C, size: 0x8, addend: 0x0, symName: '__ZN4core3ptr78drop_in_place$LT$$LP$syn..generics..WherePredicate$C$syn..token..Comma$RP$$GT$17h53972732bf2fc9faE.llvm.2618680253894991198', symObjAddr: 0xD3A0, symBinAddr: 0x97D10, symSize: 0x50 }
  - { offsetInCU: 0x3401C, offset: 0x318266, size: 0x8, addend: 0x0, symName: '__ZN4core3ptr86drop_in_place$LT$$LP$syn..token..If$C$alloc..boxed..Box$LT$syn..expr..Expr$GT$$RP$$GT$17h2caf60ff8122e91dE', symObjAddr: 0xD3F0, symBinAddr: 0x97D60, symSize: 0x50 }
  - { offsetInCU: 0x34231, offset: 0x31847B, size: 0x8, addend: 0x0, symName: '__ZN4core3ptr86drop_in_place$LT$syn..punctuated..Punctuated$LT$syn..pat..Pat$C$syn..token..Or$GT$$GT$17h8e9173df21a44316E', symObjAddr: 0xD440, symBinAddr: 0x97DB0, symSize: 0x120 }
  - { offsetInCU: 0x3468E, offset: 0x3188D8, size: 0x8, addend: 0x0, symName: '__ZN4core3ptr87drop_in_place$LT$$LP$alloc..boxed..Box$LT$syn..pat..Pat$GT$$C$syn..token..Colon$RP$$GT$17hf8324c490b9b3095E', symObjAddr: 0xD560, symBinAddr: 0x97ED0, symSize: 0x50 }
  - { offsetInCU: 0x34808, offset: 0x318A52, size: 0x8, addend: 0x0, symName: '__ZN4core3ptr87drop_in_place$LT$core..option..Option$LT$alloc..boxed..Box$LT$syn..ty..Type$GT$$GT$$GT$17hd74f5d971aec2972E', symObjAddr: 0xD5B0, symBinAddr: 0x97F20, symSize: 0x50 }
  - { offsetInCU: 0x3497A, offset: 0x318BC4, size: 0x8, addend: 0x0, symName: '__ZN4core3ptr89drop_in_place$LT$core..option..Option$LT$alloc..boxed..Box$LT$syn..expr..Expr$GT$$GT$$GT$17h8e135ac1a25a2dc5E', symObjAddr: 0xD600, symBinAddr: 0x97F70, symSize: 0x50 }
  - { offsetInCU: 0x34AEC, offset: 0x318D36, size: 0x8, addend: 0x0, symName: '__ZN4core3ptr89drop_in_place$LT$syn..punctuated..Punctuated$LT$syn..ty..Type$C$syn..token..Comma$GT$$GT$17ha919b3114742fb9dE.llvm.2618680253894991198', symObjAddr: 0xD650, symBinAddr: 0x97FC0, symSize: 0x120 }
  - { offsetInCU: 0x34F36, offset: 0x319180, size: 0x8, addend: 0x0, symName: '__ZN4core3ptr90drop_in_place$LT$core..option..Option$LT$alloc..boxed..Box$LT$syn..data..Field$GT$$GT$$GT$17h326c39537b0fcc46E', symObjAddr: 0xD770, symBinAddr: 0x980E0, symSize: 0x50 }
  - { offsetInCU: 0x350A8, offset: 0x3192F2, size: 0x8, addend: 0x0, symName: '__ZN4core3ptr90drop_in_place$LT$core..option..Option$LT$alloc..boxed..Box$LT$syn..item..FnArg$GT$$GT$$GT$17hbae3fdd388277508E', symObjAddr: 0xD7C0, symBinAddr: 0x98130, symSize: 0x50 }
  - { offsetInCU: 0x35296, offset: 0x3194E0, size: 0x8, addend: 0x0, symName: '__ZN4core3ptr91drop_in_place$LT$syn..punctuated..Punctuated$LT$syn..expr..Expr$C$syn..token..Comma$GT$$GT$17h4f39b83dc86a4159E', symObjAddr: 0xD810, symBinAddr: 0x98180, symSize: 0x120 }
  - { offsetInCU: 0x356F3, offset: 0x31993D, size: 0x8, addend: 0x0, symName: '__ZN4core3ptr92drop_in_place$LT$core..option..Option$LT$$LP$syn..token..As$C$proc_macro2..Ident$RP$$GT$$GT$17h5c1a47ccb35d9d7eE', symObjAddr: 0xD930, symBinAddr: 0x982A0, symSize: 0x30 }
  - { offsetInCU: 0x3580F, offset: 0x319A59, size: 0x8, addend: 0x0, symName: '__ZN4core3ptr92drop_in_place$LT$syn..punctuated..Punctuated$LT$syn..data..Field$C$syn..token..Comma$GT$$GT$17hca76f5e010a141e5E', symObjAddr: 0xD960, symBinAddr: 0x982D0, symSize: 0x120 }
  - { offsetInCU: 0x35C59, offset: 0x319EA3, size: 0x8, addend: 0x0, symName: '__ZN4core3ptr92drop_in_place$LT$syn..punctuated..Punctuated$LT$syn..item..FnArg$C$syn..token..Comma$GT$$GT$17h75db9d232662c7d3E', symObjAddr: 0xDA80, symBinAddr: 0x983F0, symSize: 0x150 }
  - { offsetInCU: 0x3616E, offset: 0x31A3B8, size: 0x8, addend: 0x0, symName: '__ZN4core3ptr94drop_in_place$LT$syn..punctuated..Punctuated$LT$syn..data..Variant$C$syn..token..Comma$GT$$GT$17ha69d7e675441c7e2E', symObjAddr: 0xDBD0, symBinAddr: 0x98540, symSize: 0x120 }
  - { offsetInCU: 0x36647, offset: 0x31A891, size: 0x8, addend: 0x0, symName: '__ZN4core3ptr94drop_in_place$LT$syn..punctuated..Punctuated$LT$syn..pat..FieldPat$C$syn..token..Comma$GT$$GT$17h112950ea198c8281E', symObjAddr: 0xDCF0, symBinAddr: 0x98660, symSize: 0xF0 }
  - { offsetInCU: 0x369A0, offset: 0x31ABEA, size: 0x8, addend: 0x0, symName: '__ZN4core3ptr94drop_in_place$LT$syn..punctuated..Punctuated$LT$syn..ty..BareFnArg$C$syn..token..Comma$GT$$GT$17h1c7b44310f06243dE', symObjAddr: 0xDDE0, symBinAddr: 0x98750, symSize: 0xF0 }
  - { offsetInCU: 0x36C7D, offset: 0x31AEC7, size: 0x8, addend: 0x0, symName: '__ZN4core3ptr95drop_in_place$LT$core..option..Option$LT$$LP$proc_macro2..Ident$C$syn..token..Colon$RP$$GT$$GT$17ha744bf0f41959716E.llvm.2618680253894991198', symObjAddr: 0xDED0, symBinAddr: 0x98840, symSize: 0x30 }
  - { offsetInCU: 0x36D99, offset: 0x31AFE3, size: 0x8, addend: 0x0, symName: '__ZN4core3ptr96drop_in_place$LT$core..option..Option$LT$alloc..boxed..Box$LT$syn..path..PathSegment$GT$$GT$$GT$17hb447d0f626c86a4eE.llvm.2618680253894991198', symObjAddr: 0xDF00, symBinAddr: 0x98870, symSize: 0x90 }
  - { offsetInCU: 0x370B6, offset: 0x31B300, size: 0x8, addend: 0x0, symName: '__ZN4core3ptr97drop_in_place$LT$syn..punctuated..Punctuated$LT$syn..expr..FieldValue$C$syn..token..Comma$GT$$GT$17h31b81f7462228dcbE', symObjAddr: 0xDFE0, symBinAddr: 0x98900, symSize: 0xF0 }
  - { offsetInCU: 0x3742E, offset: 0x31B678, size: 0x8, addend: 0x0, symName: '__ZN4core3ptr98drop_in_place$LT$syn..punctuated..Punctuated$LT$syn..lifetime..Lifetime$C$syn..token..Plus$GT$$GT$17h0f8fc5f20f465f47E.llvm.2618680253894991198', symObjAddr: 0xE0D0, symBinAddr: 0x989F0, symSize: 0xC0 }
  - { offsetInCU: 0x3EF67, offset: 0x3231B1, size: 0x8, addend: 0x0, symName: '__ZN136_$LT$alloc..vec..Vec$LT$T$C$A$GT$$u20$as$u20$alloc..vec..spec_extend..SpecExtend$LT$T$C$alloc..vec..into_iter..IntoIter$LT$T$GT$$GT$$GT$11spec_extend17hd3fd65d04ebffaa6E', symObjAddr: 0xE0, symBinAddr: 0x8AAD0, symSize: 0xA0 }
  - { offsetInCU: 0x3F26C, offset: 0x3234B6, size: 0x8, addend: 0x0, symName: '__ZN97_$LT$alloc..vec..Vec$LT$T$C$A$GT$$u20$as$u20$alloc..vec..spec_extend..SpecExtend$LT$T$C$I$GT$$GT$11spec_extend17hd1980574a9ec2ab9E', symObjAddr: 0x13110, symBinAddr: 0x9C0B0, symSize: 0x100 }
  - { offsetInCU: 0x3F6CA, offset: 0x323914, size: 0x8, addend: 0x0, symName: '__ZN97_$LT$alloc..vec..Vec$LT$T$C$A$GT$$u20$as$u20$alloc..vec..spec_extend..SpecExtend$LT$T$C$I$GT$$GT$11spec_extend17he326d35e9b0b5779E', symObjAddr: 0x13210, symBinAddr: 0x9C1B0, symSize: 0x670 }
  - { offsetInCU: 0x425E9, offset: 0x326833, size: 0x8, addend: 0x0, symName: '__ZN65_$LT$alloc..vec..Vec$LT$T$C$A$GT$$u20$as$u20$core..fmt..Debug$GT$3fmt17h3e19e46c95090761E', symObjAddr: 0xE580, symBinAddr: 0x98B40, symSize: 0x80 }
  - { offsetInCU: 0x42C69, offset: 0x326EB3, size: 0x8, addend: 0x0, symName: '__ZN70_$LT$alloc..vec..Vec$LT$T$C$A$GT$$u20$as$u20$core..ops..drop..Drop$GT$4drop17ha1c46ee356be7175E', symObjAddr: 0x12530, symBinAddr: 0x9BDC0, symSize: 0x80 }
  - { offsetInCU: 0x42CF3, offset: 0x326F3D, size: 0x8, addend: 0x0, symName: '__ZN70_$LT$alloc..vec..Vec$LT$T$C$A$GT$$u20$as$u20$core..ops..drop..Drop$GT$4drop17haac0f2ead37a83a5E', symObjAddr: 0x125B0, symBinAddr: 0x9BE40, symSize: 0xB0 }
  - { offsetInCU: 0x42D55, offset: 0x326F9F, size: 0x8, addend: 0x0, symName: '__ZN70_$LT$alloc..vec..Vec$LT$T$C$A$GT$$u20$as$u20$core..ops..drop..Drop$GT$4drop17hb96511c1410270f4E', symObjAddr: 0x12780, symBinAddr: 0x9BEF0, symSize: 0xB0 }
  - { offsetInCU: 0x42ED1, offset: 0x32711B, size: 0x8, addend: 0x0, symName: '__ZN70_$LT$alloc..vec..Vec$LT$T$C$A$GT$$u20$as$u20$core..ops..drop..Drop$GT$4drop17hd1322190145f035dE', symObjAddr: 0x12930, symBinAddr: 0x9BFA0, symSize: 0x90 }
  - { offsetInCU: 0x42FD7, offset: 0x327221, size: 0x8, addend: 0x0, symName: '__ZN70_$LT$alloc..vec..Vec$LT$T$C$A$GT$$u20$as$u20$core..ops..drop..Drop$GT$4drop17hfddea9c8473ad6f6E', symObjAddr: 0x12C30, symBinAddr: 0x9C030, symSize: 0x80 }
  - { offsetInCU: 0x43182, offset: 0x3273CC, size: 0x8, addend: 0x0, symName: '__ZN67_$LT$alloc..vec..Vec$LT$T$C$A$GT$$u20$as$u20$core..clone..Clone$GT$5clone17h05b7397ccb30c76cE', symObjAddr: 0xE970, symBinAddr: 0x98BC0, symSize: 0x1A0 }
  - { offsetInCU: 0x436B4, offset: 0x3278FE, size: 0x8, addend: 0x0, symName: '__ZN67_$LT$alloc..vec..Vec$LT$T$C$A$GT$$u20$as$u20$core..clone..Clone$GT$5clone17h1811a554b8ce3b81E', symObjAddr: 0xEB10, symBinAddr: 0x98D60, symSize: 0x160 }
  - { offsetInCU: 0x43BE1, offset: 0x327E2B, size: 0x8, addend: 0x0, symName: '__ZN67_$LT$alloc..vec..Vec$LT$T$C$A$GT$$u20$as$u20$core..clone..Clone$GT$5clone17h1da16863059762f6E', symObjAddr: 0xEC70, symBinAddr: 0x98EC0, symSize: 0x1A0 }
  - { offsetInCU: 0x44188, offset: 0x3283D2, size: 0x8, addend: 0x0, symName: '__ZN67_$LT$alloc..vec..Vec$LT$T$C$A$GT$$u20$as$u20$core..clone..Clone$GT$5clone17h200e40873706a1b4E', symObjAddr: 0xEE10, symBinAddr: 0x99060, symSize: 0x1B0 }
  - { offsetInCU: 0x44763, offset: 0x3289AD, size: 0x8, addend: 0x0, symName: '__ZN67_$LT$alloc..vec..Vec$LT$T$C$A$GT$$u20$as$u20$core..clone..Clone$GT$5clone17h24997e572bc498a7E', symObjAddr: 0xEFC0, symBinAddr: 0x99210, symSize: 0x390 }
  - { offsetInCU: 0x4533A, offset: 0x329584, size: 0x8, addend: 0x0, symName: '__ZN67_$LT$alloc..vec..Vec$LT$T$C$A$GT$$u20$as$u20$core..clone..Clone$GT$5clone17h25ea0f3dfced4ea5E', symObjAddr: 0xF350, symBinAddr: 0x995A0, symSize: 0x160 }
  - { offsetInCU: 0x45867, offset: 0x329AB1, size: 0x8, addend: 0x0, symName: '__ZN67_$LT$alloc..vec..Vec$LT$T$C$A$GT$$u20$as$u20$core..clone..Clone$GT$5clone17h27f26317d0097928E', symObjAddr: 0xF4B0, symBinAddr: 0x99700, symSize: 0x1B0 }
  - { offsetInCU: 0x45E42, offset: 0x32A08C, size: 0x8, addend: 0x0, symName: '__ZN67_$LT$alloc..vec..Vec$LT$T$C$A$GT$$u20$as$u20$core..clone..Clone$GT$5clone17h3929068158b0acf4E', symObjAddr: 0xF800, symBinAddr: 0x998B0, symSize: 0x1A0 }
  - { offsetInCU: 0x4641D, offset: 0x32A667, size: 0x8, addend: 0x0, symName: '__ZN67_$LT$alloc..vec..Vec$LT$T$C$A$GT$$u20$as$u20$core..clone..Clone$GT$5clone17h50b260221468ddc9E', symObjAddr: 0xF9A0, symBinAddr: 0x99A50, symSize: 0x1A0 }
  - { offsetInCU: 0x4694F, offset: 0x32AB99, size: 0x8, addend: 0x0, symName: '__ZN67_$LT$alloc..vec..Vec$LT$T$C$A$GT$$u20$as$u20$core..clone..Clone$GT$5clone17h5b4a01bd5f94dc2bE', symObjAddr: 0xFB40, symBinAddr: 0x99BF0, symSize: 0x160 }
  - { offsetInCU: 0x46E7C, offset: 0x32B0C6, size: 0x8, addend: 0x0, symName: '__ZN67_$LT$alloc..vec..Vec$LT$T$C$A$GT$$u20$as$u20$core..clone..Clone$GT$5clone17h6690eaf6cf776e41E', symObjAddr: 0xFCA0, symBinAddr: 0x99D50, symSize: 0x190 }
  - { offsetInCU: 0x47457, offset: 0x32B6A1, size: 0x8, addend: 0x0, symName: '__ZN67_$LT$alloc..vec..Vec$LT$T$C$A$GT$$u20$as$u20$core..clone..Clone$GT$5clone17h6e9705d9f6228ac2E', symObjAddr: 0xFE30, symBinAddr: 0x99EE0, symSize: 0x1A0 }
  - { offsetInCU: 0x47AEE, offset: 0x32BD38, size: 0x8, addend: 0x0, symName: '__ZN67_$LT$alloc..vec..Vec$LT$T$C$A$GT$$u20$as$u20$core..clone..Clone$GT$5clone17h79b62d4fb82adf91E', symObjAddr: 0xFFD0, symBinAddr: 0x9A080, symSize: 0x1A0 }
  - { offsetInCU: 0x480C9, offset: 0x32C313, size: 0x8, addend: 0x0, symName: '__ZN67_$LT$alloc..vec..Vec$LT$T$C$A$GT$$u20$as$u20$core..clone..Clone$GT$5clone17h817f6cb8c675423bE', symObjAddr: 0x10170, symBinAddr: 0x9A220, symSize: 0x1B0 }
  - { offsetInCU: 0x486A4, offset: 0x32C8EE, size: 0x8, addend: 0x0, symName: '__ZN67_$LT$alloc..vec..Vec$LT$T$C$A$GT$$u20$as$u20$core..clone..Clone$GT$5clone17h89b01632558f666bE', symObjAddr: 0x10320, symBinAddr: 0x9A3D0, symSize: 0x190 }
  - { offsetInCU: 0x48C4A, offset: 0x32CE94, size: 0x8, addend: 0x0, symName: '__ZN67_$LT$alloc..vec..Vec$LT$T$C$A$GT$$u20$as$u20$core..clone..Clone$GT$5clone17ha19e75129ceeddc0E', symObjAddr: 0x104B0, symBinAddr: 0x9A560, symSize: 0x3C0 }
  - { offsetInCU: 0x494C0, offset: 0x32D70A, size: 0x8, addend: 0x0, symName: '__ZN67_$LT$alloc..vec..Vec$LT$T$C$A$GT$$u20$as$u20$core..clone..Clone$GT$5clone17ha225f10e71280eb0E', symObjAddr: 0x10870, symBinAddr: 0x9A920, symSize: 0x300 }
  - { offsetInCU: 0x49ADB, offset: 0x32DD25, size: 0x8, addend: 0x0, symName: '__ZN67_$LT$alloc..vec..Vec$LT$T$C$A$GT$$u20$as$u20$core..clone..Clone$GT$5clone17had2181b83b268436E', symObjAddr: 0x10B70, symBinAddr: 0x9AC20, symSize: 0x1B0 }
  - { offsetInCU: 0x4A082, offset: 0x32E2CC, size: 0x8, addend: 0x0, symName: '__ZN67_$LT$alloc..vec..Vec$LT$T$C$A$GT$$u20$as$u20$core..clone..Clone$GT$5clone17hafb9d5c811cb80c1E', symObjAddr: 0x10D20, symBinAddr: 0x9ADD0, symSize: 0x1B0 }
  - { offsetInCU: 0x4A65D, offset: 0x32E8A7, size: 0x8, addend: 0x0, symName: '__ZN67_$LT$alloc..vec..Vec$LT$T$C$A$GT$$u20$as$u20$core..clone..Clone$GT$5clone17hb28dcdca734aa781E', symObjAddr: 0x10ED0, symBinAddr: 0x9AF80, symSize: 0x2A0 }
  - { offsetInCU: 0x4AC91, offset: 0x32EEDB, size: 0x8, addend: 0x0, symName: '__ZN67_$LT$alloc..vec..Vec$LT$T$C$A$GT$$u20$as$u20$core..clone..Clone$GT$5clone17hc247a405aa44e689E', symObjAddr: 0x11170, symBinAddr: 0x9B220, symSize: 0x210 }
  - { offsetInCU: 0x4B2DB, offset: 0x32F525, size: 0x8, addend: 0x0, symName: '__ZN67_$LT$alloc..vec..Vec$LT$T$C$A$GT$$u20$as$u20$core..clone..Clone$GT$5clone17hc4988e4008115670E', symObjAddr: 0x11380, symBinAddr: 0x9B430, symSize: 0x2B0 }
  - { offsetInCU: 0x4B99D, offset: 0x32FBE7, size: 0x8, addend: 0x0, symName: '__ZN67_$LT$alloc..vec..Vec$LT$T$C$A$GT$$u20$as$u20$core..clone..Clone$GT$5clone17hc62fb47f99e4a4d9E', symObjAddr: 0x11630, symBinAddr: 0x9B6E0, symSize: 0x1A0 }
  - { offsetInCU: 0x4BF78, offset: 0x3301C2, size: 0x8, addend: 0x0, symName: '__ZN67_$LT$alloc..vec..Vec$LT$T$C$A$GT$$u20$as$u20$core..clone..Clone$GT$5clone17hccc28fd2b23933f8E', symObjAddr: 0x117D0, symBinAddr: 0x9B880, symSize: 0x250 }
  - { offsetInCU: 0x4C768, offset: 0x3309B2, size: 0x8, addend: 0x0, symName: '__ZN67_$LT$alloc..vec..Vec$LT$T$C$A$GT$$u20$as$u20$core..clone..Clone$GT$5clone17hf447c6066f04db4fE', symObjAddr: 0x11A20, symBinAddr: 0x9BAD0, symSize: 0x160 }
  - { offsetInCU: 0x4CC95, offset: 0x330EDF, size: 0x8, addend: 0x0, symName: '__ZN67_$LT$alloc..vec..Vec$LT$T$C$A$GT$$u20$as$u20$core..clone..Clone$GT$5clone17hffcb5f1b40cb5e9bE', symObjAddr: 0x11B80, symBinAddr: 0x9BC30, symSize: 0x190 }
  - { offsetInCU: 0x58952, offset: 0x33CB9C, size: 0x8, addend: 0x0, symName: '__ZN5alloc3vec16Vec$LT$T$C$A$GT$16into_boxed_slice17h024a9e1f6dd0eb78E', symObjAddr: 0xE190, symBinAddr: 0x98AB0, symSize: 0x90 }
  - { offsetInCU: 0x1E, offset: 0x346A48, size: 0x8, addend: 0x0, symName: __ZN5alloc7raw_vec11finish_grow17h835635d1269408a0E.llvm.6325988268937029972, symObjAddr: 0x0, symBinAddr: 0x9C820, symSize: 0xA0 }
  - { offsetInCU: 0x67A3, offset: 0x34D1CD, size: 0x8, addend: 0x0, symName: __ZN5alloc7raw_vec11finish_grow17h835635d1269408a0E.llvm.6325988268937029972, symObjAddr: 0x0, symBinAddr: 0x9C820, symSize: 0xA0 }
  - { offsetInCU: 0x8759, offset: 0x34F183, size: 0x8, addend: 0x0, symName: '__ZN5alloc7raw_vec19RawVec$LT$T$C$A$GT$7reserve21do_reserve_and_handle17h13c018c554f6abd0E', symObjAddr: 0x1FD0, symBinAddr: 0x1FE3F0, symSize: 0xC0 }
  - { offsetInCU: 0x8AAB, offset: 0x34F4D5, size: 0x8, addend: 0x0, symName: '__ZN5alloc7raw_vec19RawVec$LT$T$C$A$GT$7reserve21do_reserve_and_handle17h214494add848a148E', symObjAddr: 0x2090, symBinAddr: 0x1FE4B0, symSize: 0xC0 }
  - { offsetInCU: 0x8DFE, offset: 0x34F828, size: 0x8, addend: 0x0, symName: '__ZN5alloc7raw_vec19RawVec$LT$T$C$A$GT$7reserve21do_reserve_and_handle17h40bab3f670f64c67E', symObjAddr: 0x2150, symBinAddr: 0x1FE570, symSize: 0xC0 }
  - { offsetInCU: 0x9150, offset: 0x34FB7A, size: 0x8, addend: 0x0, symName: '__ZN5alloc7raw_vec19RawVec$LT$T$C$A$GT$7reserve21do_reserve_and_handle17h797428fa4f38120aE', symObjAddr: 0x23B0, symBinAddr: 0x1FE630, symSize: 0xC0 }
  - { offsetInCU: 0x94A2, offset: 0x34FECC, size: 0x8, addend: 0x0, symName: '__ZN5alloc7raw_vec19RawVec$LT$T$C$A$GT$7reserve21do_reserve_and_handle17hd888e23e4c2bd144E', symObjAddr: 0x2470, symBinAddr: 0x1FE6F0, symSize: 0xB0 }
  - { offsetInCU: 0x97E1, offset: 0x35020B, size: 0x8, addend: 0x0, symName: '__ZN77_$LT$alloc..raw_vec..RawVec$LT$T$C$A$GT$$u20$as$u20$core..ops..drop..Drop$GT$4drop17h0fe8dc95aa9e13e8E', symObjAddr: 0x2520, symBinAddr: 0x9DB60, symSize: 0x30 }
  - { offsetInCU: 0x98DE, offset: 0x350308, size: 0x8, addend: 0x0, symName: '__ZN77_$LT$alloc..raw_vec..RawVec$LT$T$C$A$GT$$u20$as$u20$core..ops..drop..Drop$GT$4drop17h393fcfb678582e44E', symObjAddr: 0x25E0, symBinAddr: 0x9DB90, symSize: 0x30 }
  - { offsetInCU: 0x99DB, offset: 0x350405, size: 0x8, addend: 0x0, symName: '__ZN77_$LT$alloc..raw_vec..RawVec$LT$T$C$A$GT$$u20$as$u20$core..ops..drop..Drop$GT$4drop17h39c2380cb3828205E', symObjAddr: 0x2610, symBinAddr: 0x9DBC0, symSize: 0x30 }
  - { offsetInCU: 0x9AD8, offset: 0x350502, size: 0x8, addend: 0x0, symName: '__ZN77_$LT$alloc..raw_vec..RawVec$LT$T$C$A$GT$$u20$as$u20$core..ops..drop..Drop$GT$4drop17h3db54f5eb403cd2eE', symObjAddr: 0x2640, symBinAddr: 0x9DBF0, symSize: 0x0 }
  - { offsetInCU: 0x9BD5, offset: 0x3505FF, size: 0x8, addend: 0x0, symName: '__ZN77_$LT$alloc..raw_vec..RawVec$LT$T$C$A$GT$$u20$as$u20$core..ops..drop..Drop$GT$4drop17h48c1e075635f269fE', symObjAddr: 0x2690, symBinAddr: 0x9DC20, symSize: 0x30 }
  - { offsetInCU: 0x9CD2, offset: 0x3506FC, size: 0x8, addend: 0x0, symName: '__ZN77_$LT$alloc..raw_vec..RawVec$LT$T$C$A$GT$$u20$as$u20$core..ops..drop..Drop$GT$4drop17h4eece3816eced073E', symObjAddr: 0x26C0, symBinAddr: 0x9DC50, symSize: 0x30 }
  - { offsetInCU: 0x9DCF, offset: 0x3507F9, size: 0x8, addend: 0x0, symName: '__ZN77_$LT$alloc..raw_vec..RawVec$LT$T$C$A$GT$$u20$as$u20$core..ops..drop..Drop$GT$4drop17h6c6fd9c116ad0c74E', symObjAddr: 0x2720, symBinAddr: 0x9DC80, symSize: 0x0 }
  - { offsetInCU: 0x9ECC, offset: 0x3508F6, size: 0x8, addend: 0x0, symName: '__ZN77_$LT$alloc..raw_vec..RawVec$LT$T$C$A$GT$$u20$as$u20$core..ops..drop..Drop$GT$4drop17h72ca814e81ad633aE', symObjAddr: 0x2750, symBinAddr: 0x9DCB0, symSize: 0x0 }
  - { offsetInCU: 0x9FC9, offset: 0x3509F3, size: 0x8, addend: 0x0, symName: '__ZN77_$LT$alloc..raw_vec..RawVec$LT$T$C$A$GT$$u20$as$u20$core..ops..drop..Drop$GT$4drop17h72defe2c2e2b0835E', symObjAddr: 0x2780, symBinAddr: 0x9DCE0, symSize: 0x0 }
  - { offsetInCU: 0xA0C6, offset: 0x350AF0, size: 0x8, addend: 0x0, symName: '__ZN77_$LT$alloc..raw_vec..RawVec$LT$T$C$A$GT$$u20$as$u20$core..ops..drop..Drop$GT$4drop17h92edcac5527d29cdE', symObjAddr: 0x27E0, symBinAddr: 0x9DD10, symSize: 0x0 }
  - { offsetInCU: 0xA1C3, offset: 0x350BED, size: 0x8, addend: 0x0, symName: '__ZN77_$LT$alloc..raw_vec..RawVec$LT$T$C$A$GT$$u20$as$u20$core..ops..drop..Drop$GT$4drop17ha8195f03b235e910E', symObjAddr: 0x2810, symBinAddr: 0x9DD40, symSize: 0x0 }
  - { offsetInCU: 0xA2C0, offset: 0x350CEA, size: 0x8, addend: 0x0, symName: '__ZN77_$LT$alloc..raw_vec..RawVec$LT$T$C$A$GT$$u20$as$u20$core..ops..drop..Drop$GT$4drop17hae00cf31628a68d6E', symObjAddr: 0x2840, symBinAddr: 0x9DD70, symSize: 0x30 }
  - { offsetInCU: 0xA3BD, offset: 0x350DE7, size: 0x8, addend: 0x0, symName: '__ZN77_$LT$alloc..raw_vec..RawVec$LT$T$C$A$GT$$u20$as$u20$core..ops..drop..Drop$GT$4drop17hb7ab512d33fb2a25E', symObjAddr: 0x2870, symBinAddr: 0x9DDA0, symSize: 0x30 }
  - { offsetInCU: 0xA4BA, offset: 0x350EE4, size: 0x8, addend: 0x0, symName: '__ZN77_$LT$alloc..raw_vec..RawVec$LT$T$C$A$GT$$u20$as$u20$core..ops..drop..Drop$GT$4drop17hba0320ec2f949a38E', symObjAddr: 0x28A0, symBinAddr: 0x9DDD0, symSize: 0x0 }
  - { offsetInCU: 0xA5B7, offset: 0x350FE1, size: 0x8, addend: 0x0, symName: '__ZN77_$LT$alloc..raw_vec..RawVec$LT$T$C$A$GT$$u20$as$u20$core..ops..drop..Drop$GT$4drop17hd01e85aba88beac8E', symObjAddr: 0x28D0, symBinAddr: 0x9DE00, symSize: 0x30 }
  - { offsetInCU: 0xA6B4, offset: 0x3510DE, size: 0x8, addend: 0x0, symName: '__ZN77_$LT$alloc..raw_vec..RawVec$LT$T$C$A$GT$$u20$as$u20$core..ops..drop..Drop$GT$4drop17hed57f1d93ce81e98E', symObjAddr: 0x2960, symBinAddr: 0x9DE30, symSize: 0x30 }
  - { offsetInCU: 0xA7B1, offset: 0x3511DB, size: 0x8, addend: 0x0, symName: '__ZN77_$LT$alloc..raw_vec..RawVec$LT$T$C$A$GT$$u20$as$u20$core..ops..drop..Drop$GT$4drop17hf063a1d3cd3b3215E', symObjAddr: 0x2990, symBinAddr: 0x9DE60, symSize: 0x30 }
  - { offsetInCU: 0xA8AE, offset: 0x3512D8, size: 0x8, addend: 0x0, symName: '__ZN77_$LT$alloc..raw_vec..RawVec$LT$T$C$A$GT$$u20$as$u20$core..ops..drop..Drop$GT$4drop17hf87d3254f6191322E', symObjAddr: 0x29C0, symBinAddr: 0x9DE90, symSize: 0x25 }
  - { offsetInCU: 0x1008D, offset: 0x356AB7, size: 0x8, addend: 0x0, symName: '__ZN5alloc7raw_vec19RawVec$LT$T$C$A$GT$11allocate_in17hb51eef22739192aaE', symObjAddr: 0x870, symBinAddr: 0x9C8C0, symSize: 0x70 }
  - { offsetInCU: 0x10420, offset: 0x356E4A, size: 0x8, addend: 0x0, symName: '__ZN5alloc7raw_vec19RawVec$LT$T$C$A$GT$16reserve_for_push17h18e1051c99d90182E', symObjAddr: 0xBF0, symBinAddr: 0x9C930, symSize: 0xD0 }
  - { offsetInCU: 0x108E5, offset: 0x35730F, size: 0x8, addend: 0x0, symName: '__ZN5alloc7raw_vec19RawVec$LT$T$C$A$GT$16reserve_for_push17h1d32b4f94470160eE', symObjAddr: 0xCC0, symBinAddr: 0x9CA00, symSize: 0x0 }
  - { offsetInCU: 0x10DA9, offset: 0x3577D3, size: 0x8, addend: 0x0, symName: '__ZN5alloc7raw_vec19RawVec$LT$T$C$A$GT$16reserve_for_push17h245cfb4a8257421aE', symObjAddr: 0xD80, symBinAddr: 0x9CAC0, symSize: 0xD0 }
  - { offsetInCU: 0x1126E, offset: 0x357C98, size: 0x8, addend: 0x0, symName: '__ZN5alloc7raw_vec19RawVec$LT$T$C$A$GT$16reserve_for_push17h296e58e879ed95bbE', symObjAddr: 0xE50, symBinAddr: 0x9CB90, symSize: 0xD0 }
  - { offsetInCU: 0x11733, offset: 0x35815D, size: 0x8, addend: 0x0, symName: '__ZN5alloc7raw_vec19RawVec$LT$T$C$A$GT$16reserve_for_push17h2c8e6b8c8c6e5170E', symObjAddr: 0xF20, symBinAddr: 0x9CC60, symSize: 0xD0 }
  - { offsetInCU: 0x11BF8, offset: 0x358622, size: 0x8, addend: 0x0, symName: '__ZN5alloc7raw_vec19RawVec$LT$T$C$A$GT$16reserve_for_push17h39c2ec84e943635aE', symObjAddr: 0xFF0, symBinAddr: 0x9CD30, symSize: 0xD0 }
  - { offsetInCU: 0x120D1, offset: 0x358AFB, size: 0x8, addend: 0x0, symName: '__ZN5alloc7raw_vec19RawVec$LT$T$C$A$GT$16reserve_for_push17h41d82450e00eae77E', symObjAddr: 0x10C0, symBinAddr: 0x9CE00, symSize: 0x0 }
  - { offsetInCU: 0x12595, offset: 0x358FBF, size: 0x8, addend: 0x0, symName: '__ZN5alloc7raw_vec19RawVec$LT$T$C$A$GT$16reserve_for_push17h4241d3651c582227E', symObjAddr: 0x1180, symBinAddr: 0x9CEC0, symSize: 0x0 }
  - { offsetInCU: 0x12A5A, offset: 0x359484, size: 0x8, addend: 0x0, symName: '__ZN5alloc7raw_vec19RawVec$LT$T$C$A$GT$16reserve_for_push17h46a23222a4b20700E', symObjAddr: 0x1250, symBinAddr: 0x9CF90, symSize: 0x0 }
  - { offsetInCU: 0x12F1F, offset: 0x359949, size: 0x8, addend: 0x0, symName: '__ZN5alloc7raw_vec19RawVec$LT$T$C$A$GT$16reserve_for_push17h52de2e841bbd4653E', symObjAddr: 0x1320, symBinAddr: 0x9D060, symSize: 0xD0 }
  - { offsetInCU: 0x133E4, offset: 0x359E0E, size: 0x8, addend: 0x0, symName: '__ZN5alloc7raw_vec19RawVec$LT$T$C$A$GT$16reserve_for_push17h5435f1226628b70cE', symObjAddr: 0x13F0, symBinAddr: 0x9D130, symSize: 0xD0 }
  - { offsetInCU: 0x138A9, offset: 0x35A2D3, size: 0x8, addend: 0x0, symName: '__ZN5alloc7raw_vec19RawVec$LT$T$C$A$GT$16reserve_for_push17h71935351b86bec57E', symObjAddr: 0x14C0, symBinAddr: 0x9D200, symSize: 0xB0 }
  - { offsetInCU: 0x13D6D, offset: 0x35A797, size: 0x8, addend: 0x0, symName: '__ZN5alloc7raw_vec19RawVec$LT$T$C$A$GT$16reserve_for_push17h770742f0033a3542E', symObjAddr: 0x1570, symBinAddr: 0x9D2B0, symSize: 0xC0 }
  - { offsetInCU: 0x14231, offset: 0x35AC5B, size: 0x8, addend: 0x0, symName: '__ZN5alloc7raw_vec19RawVec$LT$T$C$A$GT$16reserve_for_push17h86f692456b543eb7E', symObjAddr: 0x1630, symBinAddr: 0x9D370, symSize: 0xC0 }
  - { offsetInCU: 0x146F6, offset: 0x35B120, size: 0x8, addend: 0x0, symName: '__ZN5alloc7raw_vec19RawVec$LT$T$C$A$GT$16reserve_for_push17h878804b307f94982E', symObjAddr: 0x16F0, symBinAddr: 0x9D430, symSize: 0xC0 }
  - { offsetInCU: 0x14BBB, offset: 0x35B5E5, size: 0x8, addend: 0x0, symName: '__ZN5alloc7raw_vec19RawVec$LT$T$C$A$GT$16reserve_for_push17h889a33689b0264dfE', symObjAddr: 0x17B0, symBinAddr: 0x9D4F0, symSize: 0xD0 }
  - { offsetInCU: 0x150AA, offset: 0x35BAD4, size: 0x8, addend: 0x0, symName: '__ZN5alloc7raw_vec19RawVec$LT$T$C$A$GT$16reserve_for_push17h8eafba0cab3c2dcdE', symObjAddr: 0x1880, symBinAddr: 0x9D5C0, symSize: 0xC0 }
  - { offsetInCU: 0x1556E, offset: 0x35BF98, size: 0x8, addend: 0x0, symName: '__ZN5alloc7raw_vec19RawVec$LT$T$C$A$GT$16reserve_for_push17h98c6de81c43255e3E', symObjAddr: 0x1940, symBinAddr: 0x9D680, symSize: 0x0 }
  - { offsetInCU: 0x15A33, offset: 0x35C45D, size: 0x8, addend: 0x0, symName: '__ZN5alloc7raw_vec19RawVec$LT$T$C$A$GT$16reserve_for_push17ha7ffa53757f2c194E', symObjAddr: 0x1A10, symBinAddr: 0x9D750, symSize: 0xD0 }
  - { offsetInCU: 0x15EF8, offset: 0x35C922, size: 0x8, addend: 0x0, symName: '__ZN5alloc7raw_vec19RawVec$LT$T$C$A$GT$16reserve_for_push17hbe43935ff1be244bE', symObjAddr: 0x1AE0, symBinAddr: 0x9D820, symSize: 0x0 }
  - { offsetInCU: 0x163BC, offset: 0x35CDE6, size: 0x8, addend: 0x0, symName: '__ZN5alloc7raw_vec19RawVec$LT$T$C$A$GT$16reserve_for_push17hcca166daf631fbe0E', symObjAddr: 0x1BB0, symBinAddr: 0x9D8F0, symSize: 0xD0 }
  - { offsetInCU: 0x1688E, offset: 0x35D2B8, size: 0x8, addend: 0x0, symName: '__ZN5alloc7raw_vec19RawVec$LT$T$C$A$GT$16reserve_for_push17hd979c897ae7ef7edE', symObjAddr: 0x1C80, symBinAddr: 0x9D9C0, symSize: 0xD0 }
  - { offsetInCU: 0x16D52, offset: 0x35D77C, size: 0x8, addend: 0x0, symName: '__ZN5alloc7raw_vec19RawVec$LT$T$C$A$GT$16reserve_for_push17he5e22af04e3866afE', symObjAddr: 0x1D50, symBinAddr: 0x9DA90, symSize: 0xD0 }
  - { offsetInCU: 0x1E, offset: 0x35DFA1, size: 0x8, addend: 0x0, symName: '__ZN4core3ptr100drop_in_place$LT$core..option..Option$LT$alloc..boxed..Box$LT$syn..path..GenericArgument$GT$$GT$$GT$17h7435c9de74860622E', symObjAddr: 0x0, symBinAddr: 0x9DEC0, symSize: 0x50 }
  - { offsetInCU: 0xB0, offset: 0x35E033, size: 0x8, addend: 0x0, symName: '__ZN58_$LT$alloc..string..String$u20$as$u20$core..fmt..Write$GT$10write_char17hd329c0cb943f081aE', symObjAddr: 0x6FF0, symBinAddr: 0xA4EB0, symSize: 0x130 }
  - { offsetInCU: 0x457, offset: 0x35E3DA, size: 0x8, addend: 0x0, symName: '__ZN58_$LT$alloc..string..String$u20$as$u20$core..fmt..Write$GT$9write_str17h1ff5aa96ca91c6d5E', symObjAddr: 0x7120, symBinAddr: 0xA4FE0, symSize: 0x60 }
  - { offsetInCU: 0x3433, offset: 0x3613B6, size: 0x8, addend: 0x0, symName: '__ZN4core3ptr100drop_in_place$LT$core..option..Option$LT$alloc..boxed..Box$LT$syn..path..GenericArgument$GT$$GT$$GT$17h7435c9de74860622E', symObjAddr: 0x0, symBinAddr: 0x9DEC0, symSize: 0x50 }
  - { offsetInCU: 0x3602, offset: 0x361585, size: 0x8, addend: 0x0, symName: '__ZN4core3ptr102drop_in_place$LT$syn..punctuated..Punctuated$LT$syn..path..GenericArgument$C$syn..token..Comma$GT$$GT$17h39496ba4e6dba6cfE', symObjAddr: 0x50, symBinAddr: 0x9DF10, symSize: 0xF0 }
  - { offsetInCU: 0x38EB, offset: 0x36186E, size: 0x8, addend: 0x0, symName: '__ZN4core3ptr103drop_in_place$LT$core..option..Option$LT$alloc..boxed..Box$LT$syn..generics..TypeParamBound$GT$$GT$$GT$17h5974f03e36b1a9c3E', symObjAddr: 0x140, symBinAddr: 0x9E000, symSize: 0x50 }
  - { offsetInCU: 0x3AF8, offset: 0x361A7B, size: 0x8, addend: 0x0, symName: '__ZN4core3ptr103drop_in_place$LT$syn..punctuated..Punctuated$LT$syn..generics..GenericParam$C$syn..token..Comma$GT$$GT$17hf42353fa44ed6da8E', symObjAddr: 0x190, symBinAddr: 0x9E050, symSize: 0xF0 }
  - { offsetInCU: 0x4094, offset: 0x362017, size: 0x8, addend: 0x0, symName: '__ZN4core3ptr104drop_in_place$LT$syn..punctuated..Punctuated$LT$syn..generics..TypeParamBound$C$syn..token..Plus$GT$$GT$17h532f52c4a894b056E', symObjAddr: 0x280, symBinAddr: 0x9E140, symSize: 0x230 }
  - { offsetInCU: 0x4972, offset: 0x3628F5, size: 0x8, addend: 0x0, symName: '__ZN4core3ptr34drop_in_place$LT$syn..lit..Lit$GT$17h8902f5ff67917034E', symObjAddr: 0x4B0, symBinAddr: 0x9E370, symSize: 0x110 }
  - { offsetInCU: 0x4ECB, offset: 0x362E4E, size: 0x8, addend: 0x0, symName: '__ZN4core3ptr34drop_in_place$LT$syn..pat..Pat$GT$17h4581eea028ec0969E', symObjAddr: 0x5C0, symBinAddr: 0x9E480, symSize: 0xEE0 }
  - { offsetInCU: 0x851A, offset: 0x36649D, size: 0x8, addend: 0x0, symName: '__ZN4core3ptr34drop_in_place$LT$syn..ty..Type$GT$17h369e41ad4a9f1ae0E', symObjAddr: 0x14A0, symBinAddr: 0x9F360, symSize: 0x5C0 }
  - { offsetInCU: 0x9D50, offset: 0x367CD3, size: 0x8, addend: 0x0, symName: '__ZN4core3ptr36drop_in_place$LT$syn..expr..Expr$GT$17h0f7fd4c749bae801E.llvm.6085117338949153622', symObjAddr: 0x1A60, symBinAddr: 0x9F920, symSize: 0x2800 }
  - { offsetInCU: 0x12F2D, offset: 0x370EB0, size: 0x8, addend: 0x0, symName: '__ZN4core3ptr36drop_in_place$LT$syn..mac..Macro$GT$17h4ffde962df30ebe2E', symObjAddr: 0x4260, symBinAddr: 0xA2120, symSize: 0xE0 }
  - { offsetInCU: 0x1329E, offset: 0x371221, size: 0x8, addend: 0x0, symName: '__ZN4core3ptr36drop_in_place$LT$syn..path..Path$GT$17habea856181211e1cE', symObjAddr: 0x4340, symBinAddr: 0xA2200, symSize: 0x220 }
  - { offsetInCU: 0x13BD3, offset: 0x371B56, size: 0x8, addend: 0x0, symName: '__ZN4core3ptr37drop_in_place$LT$core..fmt..Error$GT$17h8e130a2736288a98E', symObjAddr: 0x4560, symBinAddr: 0xA2420, symSize: 0x10 }
  - { offsetInCU: 0x13BFF, offset: 0x371B82, size: 0x8, addend: 0x0, symName: '__ZN4core3ptr37drop_in_place$LT$syn..stmt..Block$GT$17hcc21a21cf949414cE', symObjAddr: 0x4570, symBinAddr: 0xA2430, symSize: 0xD0 }
  - { offsetInCU: 0x13EA3, offset: 0x371E26, size: 0x8, addend: 0x0, symName: '__ZN4core3ptr38drop_in_place$LT$syn..expr..Member$GT$17h022cbe5553aa40faE', symObjAddr: 0x4640, symBinAddr: 0xA2500, symSize: 0x30 }
  - { offsetInCU: 0x1403B, offset: 0x371FBE, size: 0x8, addend: 0x0, symName: '__ZN4core3ptr38drop_in_place$LT$syn..group..Group$GT$17hc3a29a397b30f633E', symObjAddr: 0x4670, symBinAddr: 0xA2530, symSize: 0x70 }
  - { offsetInCU: 0x14351, offset: 0x3722D4, size: 0x8, addend: 0x0, symName: '__ZN4core3ptr39drop_in_place$LT$proc_macro2..Ident$GT$17h8101e88c3ac359d6E', symObjAddr: 0x46E0, symBinAddr: 0xA25A0, symSize: 0x30 }
  - { offsetInCU: 0x1446D, offset: 0x3723F0, size: 0x8, addend: 0x0, symName: '__ZN4core3ptr39drop_in_place$LT$syn..lit..LitFloat$GT$17h58fbb0bf27438490E', symObjAddr: 0x4710, symBinAddr: 0xA25D0, symSize: 0x70 }
  - { offsetInCU: 0x147ED, offset: 0x372770, size: 0x8, addend: 0x0, symName: '__ZN4core3ptr40drop_in_place$LT$syn..expr..ExprPath$GT$17h03786fb79b09c4c0E', symObjAddr: 0x4780, symBinAddr: 0xA2640, symSize: 0x110 }
  - { offsetInCU: 0x14BF7, offset: 0x372B7A, size: 0x8, addend: 0x0, symName: '__ZN4core3ptr40drop_in_place$LT$syn..ty..ReturnType$GT$17h02cf41e2fec63d90E', symObjAddr: 0x4890, symBinAddr: 0xA2750, symSize: 0x50 }
  - { offsetInCU: 0x14DC6, offset: 0x372D49, size: 0x8, addend: 0x0, symName: '__ZN4core3ptr41drop_in_place$LT$syn..attr..Attribute$GT$17h6038ab1bc013504dE', symObjAddr: 0x48E0, symBinAddr: 0xA27A0, symSize: 0xB0 }
  - { offsetInCU: 0x14E4B, offset: 0x372DCE, size: 0x8, addend: 0x0, symName: '__ZN4core3ptr41drop_in_place$LT$syn..expr..ExprConst$GT$17h725a13e551d9f276E', symObjAddr: 0x4990, symBinAddr: 0xA2850, symSize: 0x180 }
  - { offsetInCU: 0x153A0, offset: 0x373323, size: 0x8, addend: 0x0, symName: '__ZN4core3ptr42drop_in_place$LT$alloc..string..String$GT$17h781ac6273fa84cb0E', symObjAddr: 0x4B10, symBinAddr: 0xA29D0, symSize: 0x20 }
  - { offsetInCU: 0x154A9, offset: 0x37342C, size: 0x8, addend: 0x0, symName: '__ZN4core3ptr44drop_in_place$LT$syn..lifetime..Lifetime$GT$17hf0cdec2e9ec456d6E', symObjAddr: 0x4B30, symBinAddr: 0xA29F0, symSize: 0x30 }
  - { offsetInCU: 0x155A6, offset: 0x373529, size: 0x8, addend: 0x0, symName: '__ZN4core3ptr44drop_in_place$LT$syn..parse..ParseBuffer$GT$17hd0dadba44a19aec2E', symObjAddr: 0x4B60, symBinAddr: 0xA2A20, symSize: 0x70 }
  - { offsetInCU: 0x159DB, offset: 0x37395E, size: 0x8, addend: 0x0, symName: '__ZN4core3ptr45drop_in_place$LT$proc_macro2..TokenStream$GT$17h3405f6c513e9f6cbE', symObjAddr: 0x4BD0, symBinAddr: 0xA2A90, symSize: 0x140 }
  - { offsetInCU: 0x15E4A, offset: 0x373DCD, size: 0x8, addend: 0x0, symName: '__ZN4core3ptr45drop_in_place$LT$syn..generics..TypeParam$GT$17he5eda51070b7de47E', symObjAddr: 0x4D10, symBinAddr: 0xA2BD0, symSize: 0x230 }
  - { offsetInCU: 0x16646, offset: 0x3745C9, size: 0x8, addend: 0x0, symName: '__ZN4core3ptr46drop_in_place$LT$syn..generics..ConstParam$GT$17hab0a58c4af8c549cE', symObjAddr: 0x4F40, symBinAddr: 0xA2E00, symSize: 0x150 }
  - { offsetInCU: 0x16A70, offset: 0x3749F3, size: 0x8, addend: 0x0, symName: '__ZN4core3ptr47drop_in_place$LT$syn..path..GenericArgument$GT$17h54f8794633f96823E', symObjAddr: 0x5090, symBinAddr: 0xA2F50, symSize: 0x460 }
  - { offsetInCU: 0x17779, offset: 0x3756FC, size: 0x8, addend: 0x0, symName: '__ZN4core3ptr49drop_in_place$LT$syn..generics..LifetimeParam$GT$17h41a7c7a290ea6289E', symObjAddr: 0x54F0, symBinAddr: 0xA33B0, symSize: 0xF0 }
  - { offsetInCU: 0x17B33, offset: 0x375AB6, size: 0x8, addend: 0x0, symName: '__ZN4core3ptr50drop_in_place$LT$syn..generics..TypeParamBound$GT$17hcd7771d4c6c221efE', symObjAddr: 0x55E0, symBinAddr: 0xA34A0, symSize: 0xA0 }
  - { offsetInCU: 0x17C9A, offset: 0x375C1D, size: 0x8, addend: 0x0, symName: '__ZN4core3ptr58drop_in_place$LT$alloc..vec..Vec$LT$syn..expr..Arm$GT$$GT$17h1a55df3d2cba1daaE', symObjAddr: 0x5680, symBinAddr: 0xA3540, symSize: 0xD0 }
  - { offsetInCU: 0x17F27, offset: 0x375EAA, size: 0x8, addend: 0x0, symName: '__ZN4core3ptr59drop_in_place$LT$alloc..boxed..Box$LT$syn..pat..Pat$GT$$GT$17h563b135d87aca8abE', symObjAddr: 0x5750, symBinAddr: 0xA3610, symSize: 0x50 }
  - { offsetInCU: 0x18082, offset: 0x376005, size: 0x8, addend: 0x0, symName: '__ZN4core3ptr59drop_in_place$LT$alloc..boxed..Box$LT$syn..ty..Type$GT$$GT$17hffed36bad83adacbE', symObjAddr: 0x57A0, symBinAddr: 0xA3660, symSize: 0x50 }
  - { offsetInCU: 0x181DD, offset: 0x376160, size: 0x8, addend: 0x0, symName: '__ZN4core3ptr61drop_in_place$LT$alloc..boxed..Box$LT$syn..expr..Expr$GT$$GT$17h01091e47f131475dE', symObjAddr: 0x57F0, symBinAddr: 0xA36B0, symSize: 0x50 }
  - { offsetInCU: 0x18338, offset: 0x3762BB, size: 0x8, addend: 0x0, symName: '__ZN4core3ptr61drop_in_place$LT$syn..path..ParenthesizedGenericArguments$GT$17h43d4aac5494326a7E', symObjAddr: 0x5840, symBinAddr: 0xA3700, symSize: 0x170 }
  - { offsetInCU: 0x18912, offset: 0x376895, size: 0x8, addend: 0x0, symName: '__ZN4core3ptr63drop_in_place$LT$alloc..boxed..Box$LT$syn..lit..LitRepr$GT$$GT$17hd8839b7fb35ee7afE', symObjAddr: 0x59B0, symBinAddr: 0xA3870, symSize: 0x60 }
  - { offsetInCU: 0x18C07, offset: 0x376B8A, size: 0x8, addend: 0x0, symName: '__ZN4core3ptr64drop_in_place$LT$alloc..boxed..Box$LT$syn..pat..FieldPat$GT$$GT$17h4980b70a7597cc08E', symObjAddr: 0x5A10, symBinAddr: 0xA38D0, symSize: 0x140 }
  - { offsetInCU: 0x192B2, offset: 0x377235, size: 0x8, addend: 0x0, symName: '__ZN4core3ptr64drop_in_place$LT$alloc..boxed..Box$LT$syn..ty..BareFnArg$GT$$GT$17h8b34096c620314efE', symObjAddr: 0x5B50, symBinAddr: 0xA3A10, symSize: 0x140 }
  - { offsetInCU: 0x197D6, offset: 0x377759, size: 0x8, addend: 0x0, symName: '__ZN4core3ptr64drop_in_place$LT$alloc..vec..Vec$LT$syn..attr..Attribute$GT$$GT$17h3c8f2a04e701c675E.llvm.6085117338949153622', symObjAddr: 0x5C90, symBinAddr: 0xA3B50, symSize: 0xD0 }
  - { offsetInCU: 0x19A63, offset: 0x3779E6, size: 0x8, addend: 0x0, symName: '__ZN4core3ptr65drop_in_place$LT$core..option..Option$LT$syn..expr..Label$GT$$GT$17h78189e72a8cb7951E', symObjAddr: 0x5D60, symBinAddr: 0xA3C20, symSize: 0x30 }
  - { offsetInCU: 0x19B9E, offset: 0x377B21, size: 0x8, addend: 0x0, symName: '__ZN4core3ptr65drop_in_place$LT$core..option..Option$LT$syn..path..QSelf$GT$$GT$17h9b72552ca06b7379E', symObjAddr: 0x5D90, symBinAddr: 0xA3C50, symSize: 0x50 }
  - { offsetInCU: 0x19D21, offset: 0x377CA4, size: 0x8, addend: 0x0, symName: '__ZN4core3ptr66drop_in_place$LT$core..option..Option$LT$syn..pat..PatRest$GT$$GT$17h61677cf4ff3a7393E', symObjAddr: 0x5DE0, symBinAddr: 0xA3CA0, symSize: 0xE0 }
  - { offsetInCU: 0x19FA5, offset: 0x377F28, size: 0x8, addend: 0x0, symName: '__ZN4core3ptr67drop_in_place$LT$alloc..boxed..Box$LT$syn..expr..FieldValue$GT$$GT$17h93aaccf8aa22ef88E', symObjAddr: 0x5EC0, symBinAddr: 0xA3D80, symSize: 0x140 }
  - { offsetInCU: 0x1A4C8, offset: 0x37844B, size: 0x8, addend: 0x0, symName: '__ZN4core3ptr70drop_in_place$LT$core..option..Option$LT$syn..ty..BareVariadic$GT$$GT$17h45399348ea4b8d55E', symObjAddr: 0x6000, symBinAddr: 0xA3EC0, symSize: 0x120 }
  - { offsetInCU: 0x1A9F5, offset: 0x378978, size: 0x8, addend: 0x0, symName: '__ZN4core3ptr72drop_in_place$LT$alloc..boxed..Box$LT$syn..path..GenericArgument$GT$$GT$17haa7dd8b716637b54E', symObjAddr: 0x6120, symBinAddr: 0xA3FE0, symSize: 0x2B0 }
  - { offsetInCU: 0x1B3E0, offset: 0x379363, size: 0x8, addend: 0x0, symName: '__ZN4core3ptr72drop_in_place$LT$core..option..Option$LT$syn..lifetime..Lifetime$GT$$GT$17hfc363ccdd8bd9c32E', symObjAddr: 0x63D0, symBinAddr: 0xA4290, symSize: 0x30 }
  - { offsetInCU: 0x1B4FC, offset: 0x37947F, size: 0x8, addend: 0x0, symName: '__ZN4core3ptr73drop_in_place$LT$alloc..boxed..Box$LT$syn..generics..GenericParam$GT$$GT$17hf6951dcd5ae07324E', symObjAddr: 0x6400, symBinAddr: 0xA42C0, symSize: 0x80 }
  - { offsetInCU: 0x1B674, offset: 0x3795F7, size: 0x8, addend: 0x0, symName: '__ZN4core3ptr75drop_in_place$LT$alloc..boxed..Box$LT$syn..generics..TypeParamBound$GT$$GT$17he61c00698a311a34E', symObjAddr: 0x6480, symBinAddr: 0xA4340, symSize: 0x160 }
  - { offsetInCU: 0x1BC3A, offset: 0x379BBD, size: 0x8, addend: 0x0, symName: '__ZN4core3ptr83drop_in_place$LT$core..result..Result$LT$syn..op..BinOp$C$syn..error..Error$GT$$GT$17h1f0ce0e4fd241856E', symObjAddr: 0x65E0, symBinAddr: 0xA44A0, symSize: 0x90 }
  - { offsetInCU: 0x1BF1E, offset: 0x379EA1, size: 0x8, addend: 0x0, symName: '__ZN4core3ptr86drop_in_place$LT$syn..punctuated..Punctuated$LT$syn..pat..Pat$C$syn..token..Or$GT$$GT$17h8e9173df21a44316E', symObjAddr: 0x6670, symBinAddr: 0xA4530, symSize: 0x120 }
  - { offsetInCU: 0x1C364, offset: 0x37A2E7, size: 0x8, addend: 0x0, symName: '__ZN4core3ptr87drop_in_place$LT$core..option..Option$LT$alloc..boxed..Box$LT$syn..pat..Pat$GT$$GT$$GT$17hd7b7c69f601b3926E', symObjAddr: 0x6790, symBinAddr: 0xA4650, symSize: 0x50 }
  - { offsetInCU: 0x1C4D6, offset: 0x37A459, size: 0x8, addend: 0x0, symName: '__ZN4core3ptr87drop_in_place$LT$core..option..Option$LT$alloc..boxed..Box$LT$syn..ty..Type$GT$$GT$$GT$17hd74f5d971aec2972E', symObjAddr: 0x67E0, symBinAddr: 0xA46A0, symSize: 0x50 }
  - { offsetInCU: 0x1C648, offset: 0x37A5CB, size: 0x8, addend: 0x0, symName: '__ZN4core3ptr89drop_in_place$LT$core..option..Option$LT$alloc..boxed..Box$LT$syn..expr..Expr$GT$$GT$$GT$17h8e135ac1a25a2dc5E', symObjAddr: 0x6830, symBinAddr: 0xA46F0, symSize: 0x50 }
  - { offsetInCU: 0x1C7F8, offset: 0x37A77B, size: 0x8, addend: 0x0, symName: '__ZN4core3ptr89drop_in_place$LT$syn..punctuated..Punctuated$LT$syn..pat..Pat$C$syn..token..Comma$GT$$GT$17h8d60e47f3fb1f87aE', symObjAddr: 0x6880, symBinAddr: 0xA4740, symSize: 0x120 }
  - { offsetInCU: 0x1CC93, offset: 0x37AC16, size: 0x8, addend: 0x0, symName: '__ZN4core3ptr91drop_in_place$LT$syn..punctuated..Punctuated$LT$syn..expr..Expr$C$syn..token..Comma$GT$$GT$17h4f39b83dc86a4159E', symObjAddr: 0x69A0, symBinAddr: 0xA4860, symSize: 0x120 }
  - { offsetInCU: 0x1D0DD, offset: 0x37B060, size: 0x8, addend: 0x0, symName: '__ZN4core3ptr94drop_in_place$LT$syn..punctuated..Punctuated$LT$syn..pat..FieldPat$C$syn..token..Comma$GT$$GT$17h112950ea198c8281E', symObjAddr: 0x6AC0, symBinAddr: 0xA4980, symSize: 0xF0 }
  - { offsetInCU: 0x1D3A7, offset: 0x37B32A, size: 0x8, addend: 0x0, symName: '__ZN4core3ptr94drop_in_place$LT$syn..punctuated..Punctuated$LT$syn..ty..BareFnArg$C$syn..token..Comma$GT$$GT$17h1c7b44310f06243dE', symObjAddr: 0x6BB0, symBinAddr: 0xA4A70, symSize: 0xF0 }
  - { offsetInCU: 0x1D671, offset: 0x37B5F4, size: 0x8, addend: 0x0, symName: '__ZN4core3ptr96drop_in_place$LT$core..option..Option$LT$alloc..boxed..Box$LT$syn..path..PathSegment$GT$$GT$$GT$17hb447d0f626c86a4eE', symObjAddr: 0x6CA0, symBinAddr: 0xA4B60, symSize: 0x180 }
  - { offsetInCU: 0x1DD02, offset: 0x37BC85, size: 0x8, addend: 0x0, symName: '__ZN4core3ptr97drop_in_place$LT$syn..punctuated..Punctuated$LT$syn..expr..FieldValue$C$syn..token..Comma$GT$$GT$17h31b81f7462228dcbE', symObjAddr: 0x6E20, symBinAddr: 0xA4CE0, symSize: 0xF0 }
  - { offsetInCU: 0x1E048, offset: 0x37BFCB, size: 0x8, addend: 0x0, symName: '__ZN4core3ptr98drop_in_place$LT$syn..punctuated..Punctuated$LT$syn..lifetime..Lifetime$C$syn..token..Plus$GT$$GT$17h0f8fc5f20f465f47E', symObjAddr: 0x6F10, symBinAddr: 0xA4DD0, symSize: 0xC0 }
  - { offsetInCU: 0x1EAEC, offset: 0x37CA6F, size: 0x8, addend: 0x0, symName: '__ZN53_$LT$core..fmt..Error$u20$as$u20$core..fmt..Debug$GT$3fmt17h43ae5cec9623af13E', symObjAddr: 0x6FD0, symBinAddr: 0xA4E90, symSize: 0x20 }
  - { offsetInCU: 0x2902C, offset: 0x386FAF, size: 0x8, addend: 0x0, symName: __ZN3syn4expr7parsing32parse_with_earlier_boundary_rule17hb02ce308a02a4a1eE, symObjAddr: 0x7180, symBinAddr: 0xA5040, symSize: 0x15B0 }
  - { offsetInCU: 0x2B40A, offset: 0x38938D, size: 0x8, addend: 0x0, symName: __ZN3syn4expr7parsing14can_begin_expr17hb418906263911ccdE, symObjAddr: 0x8730, symBinAddr: 0xA65F0, symSize: 0x4C0 }
  - { offsetInCU: 0x2C9D2, offset: 0x38A955, size: 0x8, addend: 0x0, symName: __ZN3syn4expr7parsing10parse_expr17h9eb2cb7aa6283d86E.llvm.6085117338949153622, symObjAddr: 0x8BF0, symBinAddr: 0xA6AB0, symSize: 0x12E0 }
  - { offsetInCU: 0x2F6C4, offset: 0x38D647, size: 0x8, addend: 0x0, symName: __ZN3syn4expr7parsing15parse_binop_rhs17h21ef9d80df571ec4E, symObjAddr: 0x9ED0, symBinAddr: 0xA7D90, symSize: 0x540 }
  - { offsetInCU: 0x301E2, offset: 0x38E165, size: 0x8, addend: 0x0, symName: __ZN3syn4expr7parsing14ambiguous_expr17he0894ca122c7f4e6E, symObjAddr: 0xA410, symBinAddr: 0xA82D0, symSize: 0x100 }
  - { offsetInCU: 0x3025D, offset: 0x38E1E0, size: 0x8, addend: 0x0, symName: __ZN3syn4expr7parsing10expr_attrs17hf14159509fa85ca8E, symObjAddr: 0xA510, symBinAddr: 0xA83D0, symSize: 0x2A0 }
  - { offsetInCU: 0x30823, offset: 0x38E7A6, size: 0x8, addend: 0x0, symName: __ZN3syn4expr7parsing10unary_expr17h8c2a984611866bdaE, symObjAddr: 0xA7B0, symBinAddr: 0xA8670, symSize: 0x8C0 }
  - { offsetInCU: 0x31E86, offset: 0x38FE09, size: 0x8, addend: 0x0, symName: __ZN3syn4expr7parsing12trailer_expr17h8a2bdad4a40548d7E, symObjAddr: 0xB070, symBinAddr: 0xA8F30, symSize: 0x1A90 }
  - { offsetInCU: 0x360FA, offset: 0x39407D, size: 0x8, addend: 0x0, symName: __ZN3syn4expr7parsing14trailer_helper17h1b30b9a4fbca87bcE, symObjAddr: 0xCB00, symBinAddr: 0xAA9C0, symSize: 0x21A0 }
  - { offsetInCU: 0x3A2BD, offset: 0x398240, size: 0x8, addend: 0x0, symName: __ZN3syn4expr7parsing12atom_labeled17h2b63f0bdbd1ffcf9E, symObjAddr: 0xECA0, symBinAddr: 0xACB60, symSize: 0x730 }
  - { offsetInCU: 0x3AC97, offset: 0x398C1A, size: 0x8, addend: 0x0, symName: __ZN3syn4expr7parsing12expr_builtin17hfe4d7860eb8d93a5E, symObjAddr: 0xF3D0, symBinAddr: 0xAD290, symSize: 0x3E0 }
  - { offsetInCU: 0x3B6EB, offset: 0x39966E, size: 0x8, addend: 0x0, symName: __ZN3syn4expr7parsing23path_or_macro_or_struct17h3a35c18dd12111cfE, symObjAddr: 0xF7B0, symBinAddr: 0xAD670, symSize: 0x160 }
  - { offsetInCU: 0x3B7A5, offset: 0x399728, size: 0x8, addend: 0x0, symName: __ZN3syn4expr7parsing31rest_of_path_or_macro_or_struct17h1201e78c90bb81baE, symObjAddr: 0xF910, symBinAddr: 0xAD7D0, symSize: 0x460 }
  - { offsetInCU: 0x3C025, offset: 0x399FA8, size: 0x8, addend: 0x0, symName: __ZN3syn4expr7parsing14paren_or_tuple17h595ef5967864e1f0E, symObjAddr: 0xFD70, symBinAddr: 0xADC30, symSize: 0x810 }
  - { offsetInCU: 0x3C958, offset: 0x39A8DB, size: 0x8, addend: 0x0, symName: __ZN3syn4expr7parsing15array_or_repeat17h16f1a87c0a940f8cE, symObjAddr: 0x10580, symBinAddr: 0xAE440, symSize: 0x1240 }
  - { offsetInCU: 0x3F91C, offset: 0x39D89F, size: 0x8, addend: 0x0, symName: __ZN3syn4expr7parsing10expr_group17h143c5f8a1b43603cE, symObjAddr: 0x117C0, symBinAddr: 0xAF680, symSize: 0x920 }
  - { offsetInCU: 0x403D9, offset: 0x39E35C, size: 0x8, addend: 0x0, symName: __ZN3syn4expr7parsing8expr_let17h53e6315ac8b5aee1E, symObjAddr: 0x12340, symBinAddr: 0xAFFA0, symSize: 0x560 }
  - { offsetInCU: 0x40B98, offset: 0x39EB1B, size: 0x8, addend: 0x0, symName: __ZN3syn4expr7parsing10expr_unary17haacb582ebfbd68bfE, symObjAddr: 0x128A0, symBinAddr: 0xB0500, symSize: 0x2E0 }
  - { offsetInCU: 0x4111D, offset: 0x39F0A0, size: 0x8, addend: 0x0, symName: __ZN3syn4expr7parsing12expr_closure17h23f22c4f2a9fedcbE, symObjAddr: 0x12B80, symBinAddr: 0xB07E0, symSize: 0x1530 }
  - { offsetInCU: 0x42CE1, offset: 0x3A0C64, size: 0x8, addend: 0x0, symName: __ZN3syn4expr7parsing10expr_break17hd5ff63487f71dcffE, symObjAddr: 0x140B0, symBinAddr: 0xB1D10, symSize: 0x7E0 }
  - { offsetInCU: 0x43E32, offset: 0x3A1DB5, size: 0x8, addend: 0x0, symName: __ZN3syn4expr7parsing18expr_struct_helper17h4c61023c9d934da0E, symObjAddr: 0x14890, symBinAddr: 0xB24F0, symSize: 0x9C0 }
  - { offsetInCU: 0x44E99, offset: 0x3A2E1C, size: 0x8, addend: 0x0, symName: __ZN3syn4expr7parsing10expr_range17h09e34d6c6faf79a6E, symObjAddr: 0x15250, symBinAddr: 0xB2EB0, symSize: 0xE0 }
  - { offsetInCU: 0x4505A, offset: 0x3A2FDD, size: 0x8, addend: 0x0, symName: __ZN3syn4expr7parsing15parse_range_end17h0db540d84762afd5E, symObjAddr: 0x15330, symBinAddr: 0xB2F90, symSize: 0x194 }
  - { offsetInCU: 0x1E, offset: 0x3B5D8D, size: 0x8, addend: 0x0, symName: '__ZN4core3ptr100drop_in_place$LT$core..option..Option$LT$alloc..boxed..Box$LT$syn..path..GenericArgument$GT$$GT$$GT$17h7435c9de74860622E', symObjAddr: 0x0, symBinAddr: 0xB3130, symSize: 0x50 }
  - { offsetInCU: 0x18A2, offset: 0x3B7611, size: 0x8, addend: 0x0, symName: '__ZN4core3ptr100drop_in_place$LT$core..option..Option$LT$alloc..boxed..Box$LT$syn..path..GenericArgument$GT$$GT$$GT$17h7435c9de74860622E', symObjAddr: 0x0, symBinAddr: 0xB3130, symSize: 0x50 }
  - { offsetInCU: 0x1A71, offset: 0x3B77E0, size: 0x8, addend: 0x0, symName: '__ZN4core3ptr102drop_in_place$LT$syn..punctuated..Punctuated$LT$syn..path..GenericArgument$C$syn..token..Comma$GT$$GT$17h39496ba4e6dba6cfE', symObjAddr: 0x50, symBinAddr: 0xB3180, symSize: 0xF0 }
  - { offsetInCU: 0x1D5A, offset: 0x3B7AC9, size: 0x8, addend: 0x0, symName: '__ZN4core3ptr103drop_in_place$LT$core..option..Option$LT$alloc..boxed..Box$LT$syn..generics..TypeParamBound$GT$$GT$$GT$17h5974f03e36b1a9c3E', symObjAddr: 0x140, symBinAddr: 0xB3270, symSize: 0x50 }
  - { offsetInCU: 0x2021, offset: 0x3B7D90, size: 0x8, addend: 0x0, symName: '__ZN4core3ptr103drop_in_place$LT$core..option..Option$LT$alloc..boxed..Box$LT$syn..generics..WherePredicate$GT$$GT$$GT$17hdd5111a374d8d6f2E', symObjAddr: 0x190, symBinAddr: 0xB32C0, symSize: 0xD0 }
  - { offsetInCU: 0x23B4, offset: 0x3B8123, size: 0x8, addend: 0x0, symName: '__ZN4core3ptr103drop_in_place$LT$syn..punctuated..Punctuated$LT$syn..generics..GenericParam$C$syn..token..Comma$GT$$GT$17hf42353fa44ed6da8E', symObjAddr: 0x260, symBinAddr: 0xB3390, symSize: 0xF0 }
  - { offsetInCU: 0x2877, offset: 0x3B85E6, size: 0x8, addend: 0x0, symName: '__ZN4core3ptr104drop_in_place$LT$syn..punctuated..Punctuated$LT$syn..generics..TypeParamBound$C$syn..token..Plus$GT$$GT$17h532f52c4a894b056E', symObjAddr: 0x350, symBinAddr: 0xB3480, symSize: 0x230 }
  - { offsetInCU: 0x326C, offset: 0x3B8FDB, size: 0x8, addend: 0x0, symName: '__ZN4core3ptr109drop_in_place$LT$core..result..Result$LT$core..option..Option$LT$syn..ty..Abi$GT$$C$syn..error..Error$GT$$GT$17h8e7e96ef88c194afE', symObjAddr: 0x580, symBinAddr: 0xB36B0, symSize: 0xD0 }
  - { offsetInCU: 0x384A, offset: 0x3B95B9, size: 0x8, addend: 0x0, symName: '__ZN4core3ptr115drop_in_place$LT$core..option..Option$LT$$LP$alloc..boxed..Box$LT$syn..pat..Pat$GT$$C$syn..token..Colon$RP$$GT$$GT$17he854acc3c4717d92E', symObjAddr: 0x650, symBinAddr: 0xB3780, symSize: 0x50 }
  - { offsetInCU: 0x3A1A, offset: 0x3B9789, size: 0x8, addend: 0x0, symName: '__ZN4core3ptr115drop_in_place$LT$core..option..Option$LT$$LP$syn..token..Brace$C$alloc..vec..Vec$LT$syn..item..Item$GT$$RP$$GT$$GT$17h6df5bf3d47177236E', symObjAddr: 0x6A0, symBinAddr: 0xB37D0, symSize: 0xE0 }
  - { offsetInCU: 0x3CC1, offset: 0x3B9A30, size: 0x8, addend: 0x0, symName: '__ZN4core3ptr126drop_in_place$LT$core..option..Option$LT$$LP$syn..token..And$C$core..option..Option$LT$syn..lifetime..Lifetime$GT$$RP$$GT$$GT$17hc269ac95805979aaE', symObjAddr: 0x780, symBinAddr: 0xB38B0, symSize: 0x30 }
  - { offsetInCU: 0x3E1B, offset: 0x3B9B8A, size: 0x8, addend: 0x0, symName: '__ZN4core3ptr34drop_in_place$LT$syn..lit..Lit$GT$17h8902f5ff67917034E', symObjAddr: 0x7B0, symBinAddr: 0xB38E0, symSize: 0x110 }
  - { offsetInCU: 0x4355, offset: 0x3BA0C4, size: 0x8, addend: 0x0, symName: '__ZN4core3ptr34drop_in_place$LT$syn..pat..Pat$GT$17h4581eea028ec0969E', symObjAddr: 0x8C0, symBinAddr: 0xB39F0, symSize: 0xEE0 }
  - { offsetInCU: 0x78CB, offset: 0x3BD63A, size: 0x8, addend: 0x0, symName: '__ZN4core3ptr34drop_in_place$LT$syn..ty..Type$GT$17h369e41ad4a9f1ae0E', symObjAddr: 0x17A0, symBinAddr: 0xB48D0, symSize: 0x5C0 }
  - { offsetInCU: 0x9101, offset: 0x3BEE70, size: 0x8, addend: 0x0, symName: '__ZN4core3ptr36drop_in_place$LT$syn..expr..Expr$GT$17h0f7fd4c749bae801E', symObjAddr: 0x1D60, symBinAddr: 0xB4E90, symSize: 0x2800 }
  - { offsetInCU: 0x126FC, offset: 0x3C846B, size: 0x8, addend: 0x0, symName: '__ZN4core3ptr36drop_in_place$LT$syn..item..Item$GT$17h13f5a53479ba6379E', symObjAddr: 0x4560, symBinAddr: 0xB7690, symSize: 0x1800 }
  - { offsetInCU: 0x17CD5, offset: 0x3CDA44, size: 0x8, addend: 0x0, symName: '__ZN4core3ptr36drop_in_place$LT$syn..mac..Macro$GT$17h4ffde962df30ebe2E', symObjAddr: 0x5D60, symBinAddr: 0xB8E90, symSize: 0xE0 }
  - { offsetInCU: 0x18046, offset: 0x3CDDB5, size: 0x8, addend: 0x0, symName: '__ZN4core3ptr36drop_in_place$LT$syn..path..Path$GT$17habea856181211e1cE', symObjAddr: 0x5E40, symBinAddr: 0xB8F70, symSize: 0x220 }
  - { offsetInCU: 0x1897B, offset: 0x3CE6EA, size: 0x8, addend: 0x0, symName: '__ZN4core3ptr37drop_in_place$LT$syn..item..FnArg$GT$17h3308e115b3b3c9adE', symObjAddr: 0x6060, symBinAddr: 0xB9190, symSize: 0x190 }
  - { offsetInCU: 0x18EB6, offset: 0x3CEC25, size: 0x8, addend: 0x0, symName: '__ZN4core3ptr37drop_in_place$LT$syn..stmt..Block$GT$17hcc21a21cf949414cE', symObjAddr: 0x61F0, symBinAddr: 0xB9320, symSize: 0xD0 }
  - { offsetInCU: 0x19179, offset: 0x3CEEE8, size: 0x8, addend: 0x0, symName: '__ZN4core3ptr38drop_in_place$LT$syn..data..Fields$GT$17h1dd1b203befc1316E', symObjAddr: 0x62C0, symBinAddr: 0xB93F0, symSize: 0x190 }
  - { offsetInCU: 0x19597, offset: 0x3CF306, size: 0x8, addend: 0x0, symName: '__ZN4core3ptr38drop_in_place$LT$syn..expr..Member$GT$17h022cbe5553aa40faE', symObjAddr: 0x6450, symBinAddr: 0xB9580, symSize: 0x30 }
  - { offsetInCU: 0x19694, offset: 0x3CF403, size: 0x8, addend: 0x0, symName: '__ZN4core3ptr39drop_in_place$LT$proc_macro2..Ident$GT$17h8101e88c3ac359d6E', symObjAddr: 0x6480, symBinAddr: 0xB95B0, symSize: 0x30 }
  - { offsetInCU: 0x197EE, offset: 0x3CF55D, size: 0x8, addend: 0x0, symName: '__ZN4core3ptr39drop_in_place$LT$syn..item..UseTree$GT$17h5b1281a5704d139dE', symObjAddr: 0x64B0, symBinAddr: 0xB95E0, symSize: 0xD0 }
  - { offsetInCU: 0x19BA3, offset: 0x3CF912, size: 0x8, addend: 0x0, symName: '__ZN4core3ptr39drop_in_place$LT$syn..ty..TypeGroup$GT$17h40bac393b20ff4afE', symObjAddr: 0x6580, symBinAddr: 0xB96B0, symSize: 0x50 }
  - { offsetInCU: 0x19D8C, offset: 0x3CFAFB, size: 0x8, addend: 0x0, symName: '__ZN4core3ptr40drop_in_place$LT$syn..item..ImplItem$GT$17he2e6e8f15695ea55E', symObjAddr: 0x65D0, symBinAddr: 0xB9700, symSize: 0x7D0 }
  - { offsetInCU: 0x1B534, offset: 0x3D12A3, size: 0x8, addend: 0x0, symName: '__ZN4core3ptr40drop_in_place$LT$syn..item..ItemImpl$GT$17h1b09f17c1730ab9cE', symObjAddr: 0x6DA0, symBinAddr: 0xB9ED0, symSize: 0x1F0 }
  - { offsetInCU: 0x1BC6F, offset: 0x3D19DE, size: 0x8, addend: 0x0, symName: '__ZN4core3ptr40drop_in_place$LT$syn..item..Receiver$GT$17h6743a41cd869c536E', symObjAddr: 0x6F90, symBinAddr: 0xBA0C0, symSize: 0x130 }
  - { offsetInCU: 0x1C202, offset: 0x3D1F71, size: 0x8, addend: 0x0, symName: '__ZN4core3ptr40drop_in_place$LT$syn..item..Variadic$GT$17h856c1da4a3922974E', symObjAddr: 0x70C0, symBinAddr: 0xBA1F0, symSize: 0x110 }
  - { offsetInCU: 0x1C625, offset: 0x3D2394, size: 0x8, addend: 0x0, symName: '__ZN4core3ptr40drop_in_place$LT$syn..ty..ReturnType$GT$17h02cf41e2fec63d90E', symObjAddr: 0x71D0, symBinAddr: 0xBA300, symSize: 0x50 }
  - { offsetInCU: 0x1C797, offset: 0x3D2506, size: 0x8, addend: 0x0, symName: '__ZN4core3ptr41drop_in_place$LT$syn..expr..ExprConst$GT$17h725a13e551d9f276E', symObjAddr: 0x7220, symBinAddr: 0xBA350, symSize: 0x180 }
  - { offsetInCU: 0x1CD0B, offset: 0x3D2A7A, size: 0x8, addend: 0x0, symName: '__ZN4core3ptr41drop_in_place$LT$syn..item..Signature$GT$17h691f115807a5d1eeE', symObjAddr: 0x73A0, symBinAddr: 0xBA4D0, symSize: 0x160 }
  - { offsetInCU: 0x1D3F7, offset: 0x3D3166, size: 0x8, addend: 0x0, symName: '__ZN4core3ptr41drop_in_place$LT$syn..item..TraitItem$GT$17hb6f9fbcba8fdea85E', symObjAddr: 0x7500, symBinAddr: 0xBA630, symSize: 0x6A0 }
  - { offsetInCU: 0x1E676, offset: 0x3D43E5, size: 0x8, addend: 0x0, symName: '__ZN4core3ptr43drop_in_place$LT$syn..data..FieldsNamed$GT$17hb2a97e73a85352cbE', symObjAddr: 0x7BA0, symBinAddr: 0xBACD0, symSize: 0xE0 }
  - { offsetInCU: 0x1E965, offset: 0x3D46D4, size: 0x8, addend: 0x0, symName: '__ZN4core3ptr44drop_in_place$LT$syn..generics..Generics$GT$17h10dea28dec64f81eE', symObjAddr: 0x7C80, symBinAddr: 0xBADB0, symSize: 0x40 }
  - { offsetInCU: 0x1E982, offset: 0x3D46F1, size: 0x8, addend: 0x0, symName: '__ZN4core3ptr44drop_in_place$LT$syn..lifetime..Lifetime$GT$17hf0cdec2e9ec456d6E', symObjAddr: 0x7CC0, symBinAddr: 0xBADF0, symSize: 0x30 }
  - { offsetInCU: 0x1EAFB, offset: 0x3D486A, size: 0x8, addend: 0x0, symName: '__ZN4core3ptr44drop_in_place$LT$syn..parse..ParseBuffer$GT$17hd0dadba44a19aec2E', symObjAddr: 0x7CF0, symBinAddr: 0xBAE20, symSize: 0x70 }
  - { offsetInCU: 0x1EF30, offset: 0x3D4C9F, size: 0x8, addend: 0x0, symName: '__ZN4core3ptr45drop_in_place$LT$proc_macro2..TokenStream$GT$17h3405f6c513e9f6cbE', symObjAddr: 0x7D60, symBinAddr: 0xBAE90, symSize: 0x140 }
  - { offsetInCU: 0x1F39F, offset: 0x3D510E, size: 0x8, addend: 0x0, symName: '__ZN4core3ptr45drop_in_place$LT$syn..generics..TypeParam$GT$17he5eda51070b7de47E', symObjAddr: 0x7EA0, symBinAddr: 0xBAFD0, symSize: 0x230 }
  - { offsetInCU: 0x1FB9B, offset: 0x3D590A, size: 0x8, addend: 0x0, symName: '__ZN4core3ptr46drop_in_place$LT$syn..generics..ConstParam$GT$17hab0a58c4af8c549cE', symObjAddr: 0x80D0, symBinAddr: 0xBB200, symSize: 0x150 }
  - { offsetInCU: 0x1FFC5, offset: 0x3D5D34, size: 0x8, addend: 0x0, symName: '__ZN4core3ptr47drop_in_place$LT$syn..path..GenericArgument$GT$17h54f8794633f96823E', symObjAddr: 0x8220, symBinAddr: 0xBB350, symSize: 0x460 }
  - { offsetInCU: 0x20CCE, offset: 0x3D6A3D, size: 0x8, addend: 0x0, symName: '__ZN4core3ptr49drop_in_place$LT$syn..generics..LifetimeParam$GT$17h41a7c7a290ea6289E', symObjAddr: 0x8680, symBinAddr: 0xBB7B0, symSize: 0xF0 }
  - { offsetInCU: 0x21088, offset: 0x3D6DF7, size: 0x8, addend: 0x0, symName: '__ZN4core3ptr49drop_in_place$LT$syn..restriction..Visibility$GT$17h2a932c493942ef80E', symObjAddr: 0x8770, symBinAddr: 0xBB8A0, symSize: 0x60 }
  - { offsetInCU: 0x2120B, offset: 0x3D6F7A, size: 0x8, addend: 0x0, symName: '__ZN4core3ptr50drop_in_place$LT$syn..generics..TypeParamBound$GT$17hcd7771d4c6c221efE', symObjAddr: 0x87D0, symBinAddr: 0xBB900, symSize: 0xA0 }
  - { offsetInCU: 0x21372, offset: 0x3D70E1, size: 0x8, addend: 0x0, symName: '__ZN4core3ptr58drop_in_place$LT$alloc..vec..Vec$LT$syn..expr..Arm$GT$$GT$17h1a55df3d2cba1daaE', symObjAddr: 0x8870, symBinAddr: 0xBB9A0, symSize: 0xD0 }
  - { offsetInCU: 0x215FF, offset: 0x3D736E, size: 0x8, addend: 0x0, symName: '__ZN4core3ptr59drop_in_place$LT$alloc..boxed..Box$LT$syn..pat..Pat$GT$$GT$17h563b135d87aca8abE', symObjAddr: 0x8940, symBinAddr: 0xBBA70, symSize: 0x50 }
  - { offsetInCU: 0x2175A, offset: 0x3D74C9, size: 0x8, addend: 0x0, symName: '__ZN4core3ptr59drop_in_place$LT$alloc..boxed..Box$LT$syn..ty..Type$GT$$GT$17hffed36bad83adacbE', symObjAddr: 0x8990, symBinAddr: 0xBBAC0, symSize: 0x50 }
  - { offsetInCU: 0x218B5, offset: 0x3D7624, size: 0x8, addend: 0x0, symName: '__ZN4core3ptr61drop_in_place$LT$alloc..boxed..Box$LT$syn..expr..Expr$GT$$GT$17h01091e47f131475dE', symObjAddr: 0x89E0, symBinAddr: 0xBBB10, symSize: 0x50 }
  - { offsetInCU: 0x21A10, offset: 0x3D777F, size: 0x8, addend: 0x0, symName: '__ZN4core3ptr61drop_in_place$LT$syn..path..ParenthesizedGenericArguments$GT$17h43d4aac5494326a7E', symObjAddr: 0x8A30, symBinAddr: 0xBBB60, symSize: 0x170 }
  - { offsetInCU: 0x21FEA, offset: 0x3D7D59, size: 0x8, addend: 0x0, symName: '__ZN4core3ptr62drop_in_place$LT$alloc..boxed..Box$LT$syn..stmt..Block$GT$$GT$17h30434998ae0f12a8E', symObjAddr: 0x8BA0, symBinAddr: 0xBBCD0, symSize: 0xE0 }
  - { offsetInCU: 0x223C7, offset: 0x3D8136, size: 0x8, addend: 0x0, symName: '__ZN4core3ptr63drop_in_place$LT$alloc..boxed..Box$LT$syn..lit..LitRepr$GT$$GT$17hd8839b7fb35ee7afE', symObjAddr: 0x8C80, symBinAddr: 0xBBDB0, symSize: 0x60 }
  - { offsetInCU: 0x2269D, offset: 0x3D840C, size: 0x8, addend: 0x0, symName: '__ZN4core3ptr63drop_in_place$LT$alloc..vec..Vec$LT$syn..item..ImplItem$GT$$GT$17hda9ba61cc1df3d0eE', symObjAddr: 0x8CE0, symBinAddr: 0xBBE10, symSize: 0x80 }
  - { offsetInCU: 0x2293A, offset: 0x3D86A9, size: 0x8, addend: 0x0, symName: '__ZN4core3ptr64drop_in_place$LT$alloc..boxed..Box$LT$syn..item..UseTree$GT$$GT$17he10cba0a4742709fE', symObjAddr: 0x8D60, symBinAddr: 0xBBE90, symSize: 0xF0 }
  - { offsetInCU: 0x22E7A, offset: 0x3D8BE9, size: 0x8, addend: 0x0, symName: '__ZN4core3ptr64drop_in_place$LT$alloc..boxed..Box$LT$syn..pat..FieldPat$GT$$GT$17h4980b70a7597cc08E', symObjAddr: 0x8E50, symBinAddr: 0xBBF80, symSize: 0x140 }
  - { offsetInCU: 0x23525, offset: 0x3D9294, size: 0x8, addend: 0x0, symName: '__ZN4core3ptr64drop_in_place$LT$alloc..boxed..Box$LT$syn..ty..BareFnArg$GT$$GT$17h8b34096c620314efE', symObjAddr: 0x8F90, symBinAddr: 0xBC0C0, symSize: 0x140 }
  - { offsetInCU: 0x23A49, offset: 0x3D97B8, size: 0x8, addend: 0x0, symName: '__ZN4core3ptr64drop_in_place$LT$alloc..vec..Vec$LT$syn..attr..Attribute$GT$$GT$17h3c8f2a04e701c675E', symObjAddr: 0x90D0, symBinAddr: 0xBC200, symSize: 0xD0 }
  - { offsetInCU: 0x23CD6, offset: 0x3D9A45, size: 0x8, addend: 0x0, symName: '__ZN4core3ptr64drop_in_place$LT$alloc..vec..Vec$LT$syn..item..TraitItem$GT$$GT$17h60eb4b8666c57b93E', symObjAddr: 0x91A0, symBinAddr: 0xBC2D0, symSize: 0x80 }
  - { offsetInCU: 0x23F54, offset: 0x3D9CC3, size: 0x8, addend: 0x0, symName: '__ZN4core3ptr65drop_in_place$LT$core..option..Option$LT$syn..expr..Label$GT$$GT$17h78189e72a8cb7951E', symObjAddr: 0x9220, symBinAddr: 0xBC350, symSize: 0x30 }
  - { offsetInCU: 0x2408F, offset: 0x3D9DFE, size: 0x8, addend: 0x0, symName: '__ZN4core3ptr65drop_in_place$LT$core..option..Option$LT$syn..path..QSelf$GT$$GT$17h9b72552ca06b7379E', symObjAddr: 0x9250, symBinAddr: 0xBC380, symSize: 0x50 }
  - { offsetInCU: 0x24212, offset: 0x3D9F81, size: 0x8, addend: 0x0, symName: '__ZN4core3ptr66drop_in_place$LT$alloc..vec..Vec$LT$syn..item..ForeignItem$GT$$GT$17h3e58b8e683c84cf4E', symObjAddr: 0x92A0, symBinAddr: 0xBC3D0, symSize: 0x80 }
  - { offsetInCU: 0x24490, offset: 0x3DA1FF, size: 0x8, addend: 0x0, symName: '__ZN4core3ptr66drop_in_place$LT$core..option..Option$LT$syn..pat..PatRest$GT$$GT$17h61677cf4ff3a7393E', symObjAddr: 0x9320, symBinAddr: 0xBC450, symSize: 0xE0 }
  - { offsetInCU: 0x24714, offset: 0x3DA483, size: 0x8, addend: 0x0, symName: '__ZN4core3ptr67drop_in_place$LT$alloc..boxed..Box$LT$syn..expr..FieldValue$GT$$GT$17h93aaccf8aa22ef88E', symObjAddr: 0x9400, symBinAddr: 0xBC530, symSize: 0x140 }
  - { offsetInCU: 0x24C37, offset: 0x3DA9A6, size: 0x8, addend: 0x0, symName: '__ZN4core3ptr70drop_in_place$LT$core..option..Option$LT$syn..ty..BareVariadic$GT$$GT$17h45399348ea4b8d55E', symObjAddr: 0x9540, symBinAddr: 0xBC670, symSize: 0x120 }
  - { offsetInCU: 0x25164, offset: 0x3DAED3, size: 0x8, addend: 0x0, symName: '__ZN4core3ptr72drop_in_place$LT$alloc..boxed..Box$LT$syn..path..GenericArgument$GT$$GT$17haa7dd8b716637b54E', symObjAddr: 0x9660, symBinAddr: 0xBC790, symSize: 0x2B0 }
  - { offsetInCU: 0x25B4F, offset: 0x3DB8BE, size: 0x8, addend: 0x0, symName: '__ZN4core3ptr72drop_in_place$LT$core..option..Option$LT$syn..lifetime..Lifetime$GT$$GT$17hfc363ccdd8bd9c32E', symObjAddr: 0x9910, symBinAddr: 0xBCA40, symSize: 0x30 }
  - { offsetInCU: 0x25C6B, offset: 0x3DB9DA, size: 0x8, addend: 0x0, symName: '__ZN4core3ptr73drop_in_place$LT$alloc..boxed..Box$LT$syn..generics..GenericParam$GT$$GT$17hf6951dcd5ae07324E', symObjAddr: 0x9940, symBinAddr: 0xBCA70, symSize: 0x80 }
  - { offsetInCU: 0x25DE3, offset: 0x3DBB52, size: 0x8, addend: 0x0, symName: '__ZN4core3ptr75drop_in_place$LT$alloc..boxed..Box$LT$syn..generics..TypeParamBound$GT$$GT$17he61c00698a311a34E', symObjAddr: 0x99C0, symBinAddr: 0xBCAF0, symSize: 0x160 }
  - { offsetInCU: 0x263C8, offset: 0x3DC137, size: 0x8, addend: 0x0, symName: '__ZN4core3ptr75drop_in_place$LT$core..option..Option$LT$syn..generics..WhereClause$GT$$GT$17hdce7670be9790a3dE', symObjAddr: 0x9B20, symBinAddr: 0xBCC50, symSize: 0x90 }
  - { offsetInCU: 0x2667E, offset: 0x3DC3ED, size: 0x8, addend: 0x0, symName: '__ZN4core3ptr86drop_in_place$LT$syn..punctuated..Punctuated$LT$syn..pat..Pat$C$syn..token..Or$GT$$GT$17h8e9173df21a44316E', symObjAddr: 0x9BB0, symBinAddr: 0xBCCE0, symSize: 0x120 }
  - { offsetInCU: 0x26AC4, offset: 0x3DC833, size: 0x8, addend: 0x0, symName: '__ZN4core3ptr87drop_in_place$LT$core..option..Option$LT$alloc..boxed..Box$LT$syn..pat..Pat$GT$$GT$$GT$17hd7b7c69f601b3926E', symObjAddr: 0x9CD0, symBinAddr: 0xBCE00, symSize: 0x50 }
  - { offsetInCU: 0x26C36, offset: 0x3DC9A5, size: 0x8, addend: 0x0, symName: '__ZN4core3ptr87drop_in_place$LT$core..option..Option$LT$alloc..boxed..Box$LT$syn..ty..Type$GT$$GT$$GT$17hd74f5d971aec2972E', symObjAddr: 0x9D20, symBinAddr: 0xBCE50, symSize: 0x50 }
  - { offsetInCU: 0x26DA8, offset: 0x3DCB17, size: 0x8, addend: 0x0, symName: '__ZN4core3ptr89drop_in_place$LT$core..option..Option$LT$alloc..boxed..Box$LT$syn..expr..Expr$GT$$GT$$GT$17h8e135ac1a25a2dc5E', symObjAddr: 0x9D70, symBinAddr: 0xBCEA0, symSize: 0x50 }
  - { offsetInCU: 0x26F58, offset: 0x3DCCC7, size: 0x8, addend: 0x0, symName: '__ZN4core3ptr89drop_in_place$LT$syn..punctuated..Punctuated$LT$syn..pat..Pat$C$syn..token..Comma$GT$$GT$17h8d60e47f3fb1f87aE', symObjAddr: 0x9DC0, symBinAddr: 0xBCEF0, symSize: 0x120 }
  - { offsetInCU: 0x273F3, offset: 0x3DD162, size: 0x8, addend: 0x0, symName: '__ZN4core3ptr90drop_in_place$LT$core..option..Option$LT$alloc..boxed..Box$LT$syn..data..Field$GT$$GT$$GT$17h326c39537b0fcc46E', symObjAddr: 0x9EE0, symBinAddr: 0xBD010, symSize: 0x200 }
  - { offsetInCU: 0x27C49, offset: 0x3DD9B8, size: 0x8, addend: 0x0, symName: '__ZN4core3ptr90drop_in_place$LT$core..option..Option$LT$alloc..boxed..Box$LT$syn..item..FnArg$GT$$GT$$GT$17hbae3fdd388277508E', symObjAddr: 0xA0E0, symBinAddr: 0xBD210, symSize: 0x50 }
  - { offsetInCU: 0x27DEC, offset: 0x3DDB5B, size: 0x8, addend: 0x0, symName: '__ZN4core3ptr91drop_in_place$LT$syn..punctuated..Punctuated$LT$syn..expr..Expr$C$syn..token..Comma$GT$$GT$17h4f39b83dc86a4159E', symObjAddr: 0xA130, symBinAddr: 0xBD260, symSize: 0x120 }
  - { offsetInCU: 0x28249, offset: 0x3DDFB8, size: 0x8, addend: 0x0, symName: '__ZN4core3ptr92drop_in_place$LT$core..option..Option$LT$$LP$syn..token..As$C$proc_macro2..Ident$RP$$GT$$GT$17h5c1a47ccb35d9d7eE', symObjAddr: 0xA250, symBinAddr: 0xBD380, symSize: 0x30 }
  - { offsetInCU: 0x283A3, offset: 0x3DE112, size: 0x8, addend: 0x0, symName: '__ZN4core3ptr92drop_in_place$LT$core..option..Option$LT$alloc..boxed..Box$LT$syn..data..Variant$GT$$GT$$GT$17h3f89d7c982191526E', symObjAddr: 0xA280, symBinAddr: 0xBD3B0, symSize: 0x190 }
  - { offsetInCU: 0x28A4C, offset: 0x3DE7BB, size: 0x8, addend: 0x0, symName: '__ZN4core3ptr92drop_in_place$LT$syn..punctuated..Punctuated$LT$syn..item..FnArg$C$syn..token..Comma$GT$$GT$17h75db9d232662c7d3E', symObjAddr: 0xA410, symBinAddr: 0xBD540, symSize: 0x130 }
  - { offsetInCU: 0x28E83, offset: 0x3DEBF2, size: 0x8, addend: 0x0, symName: '__ZN4core3ptr94drop_in_place$LT$syn..punctuated..Punctuated$LT$syn..data..Variant$C$syn..token..Comma$GT$$GT$17ha69d7e675441c7e2E', symObjAddr: 0xA540, symBinAddr: 0xBD670, symSize: 0xE0 }
  - { offsetInCU: 0x291B0, offset: 0x3DEF1F, size: 0x8, addend: 0x0, symName: '__ZN4core3ptr94drop_in_place$LT$syn..punctuated..Punctuated$LT$syn..item..UseTree$C$syn..token..Comma$GT$$GT$17h4e4f303ffad9f549E', symObjAddr: 0xA620, symBinAddr: 0xBD750, symSize: 0xF0 }
  - { offsetInCU: 0x294C1, offset: 0x3DF230, size: 0x8, addend: 0x0, symName: '__ZN4core3ptr94drop_in_place$LT$syn..punctuated..Punctuated$LT$syn..pat..FieldPat$C$syn..token..Comma$GT$$GT$17h112950ea198c8281E', symObjAddr: 0xA710, symBinAddr: 0xBD840, symSize: 0xF0 }
  - { offsetInCU: 0x2978B, offset: 0x3DF4FA, size: 0x8, addend: 0x0, symName: '__ZN4core3ptr94drop_in_place$LT$syn..punctuated..Punctuated$LT$syn..ty..BareFnArg$C$syn..token..Comma$GT$$GT$17h1c7b44310f06243dE', symObjAddr: 0xA800, symBinAddr: 0xBD930, symSize: 0xF0 }
  - { offsetInCU: 0x29A55, offset: 0x3DF7C4, size: 0x8, addend: 0x0, symName: '__ZN4core3ptr96drop_in_place$LT$core..option..Option$LT$alloc..boxed..Box$LT$syn..path..PathSegment$GT$$GT$$GT$17hb447d0f626c86a4eE', symObjAddr: 0xA8F0, symBinAddr: 0xBDA20, symSize: 0x180 }
  - { offsetInCU: 0x2A0E6, offset: 0x3DFE55, size: 0x8, addend: 0x0, symName: '__ZN4core3ptr97drop_in_place$LT$syn..punctuated..Punctuated$LT$syn..expr..FieldValue$C$syn..token..Comma$GT$$GT$17h31b81f7462228dcbE', symObjAddr: 0xAA70, symBinAddr: 0xBDBA0, symSize: 0xF0 }
  - { offsetInCU: 0x2A42C, offset: 0x3E019B, size: 0x8, addend: 0x0, symName: '__ZN4core3ptr98drop_in_place$LT$syn..punctuated..Punctuated$LT$syn..lifetime..Lifetime$C$syn..token..Plus$GT$$GT$17h0f8fc5f20f465f47E', symObjAddr: 0xAB60, symBinAddr: 0xBDC90, symSize: 0xC0 }
  - { offsetInCU: 0x31801, offset: 0x3E7570, size: 0x8, addend: 0x0, symName: __ZN3syn4item7parsing18parse_rest_of_item17h8569c0eb1b7d8242E, symObjAddr: 0xAC80, symBinAddr: 0xBDDB0, symSize: 0x4130 }
  - { offsetInCU: 0x3D511, offset: 0x3F3280, size: 0x8, addend: 0x0, symName: __ZN3syn4item7parsing12parse_macro217h59aca4032c4075c2E, symObjAddr: 0xFC20, symBinAddr: 0xC2D50, symSize: 0x8D0 }
  - { offsetInCU: 0x3F01A, offset: 0x3F4D89, size: 0x8, addend: 0x0, symName: __ZN3syn4item7parsing14parse_item_use17h87ea73b5b5534563E, symObjAddr: 0x104F0, symBinAddr: 0xC3620, symSize: 0x520 }
  - { offsetInCU: 0x3FA48, offset: 0x3F57B7, size: 0x8, addend: 0x0, symName: __ZN3syn4item7parsing14parse_use_tree17ha136166ddfa7b0b8E, symObjAddr: 0x10A10, symBinAddr: 0xC3B40, symSize: 0xE80 }
  - { offsetInCU: 0x42214, offset: 0x3F7F83, size: 0x8, addend: 0x0, symName: __ZN3syn4item7parsing14peek_signature17h5908d52294220ab3E, symObjAddr: 0x11890, symBinAddr: 0xC49C0, symSize: 0x380 }
  - { offsetInCU: 0x432B3, offset: 0x3F9022, size: 0x8, addend: 0x0, symName: __ZN3syn4item7parsing16parse_rest_of_fn17hff377dc88eaa3b3fE, symObjAddr: 0x11C10, symBinAddr: 0xC4D40, symSize: 0x560 }
  - { offsetInCU: 0x44026, offset: 0x3F9D95, size: 0x8, addend: 0x0, symName: __ZN3syn4item7parsing24parse_fn_arg_or_variadic17h0946b5f8092c2f53E, symObjAddr: 0x12170, symBinAddr: 0xC52A0, symSize: 0xEC0 }
  - { offsetInCU: 0x46C1B, offset: 0x3FC98A, size: 0x8, addend: 0x0, symName: __ZN3syn4item7parsing13parse_fn_args17hfcbadc903471329dE, symObjAddr: 0x13030, symBinAddr: 0xC6160, symSize: 0xA20 }
  - { offsetInCU: 0x47BC5, offset: 0x3FD934, size: 0x8, addend: 0x0, symName: __ZN3syn4item7parsing23parse_foreign_item_type17hbed431625837dc04E, symObjAddr: 0x13A50, symBinAddr: 0xC6B80, symSize: 0x450 }
  - { offsetInCU: 0x482AA, offset: 0x3FE019, size: 0x8, addend: 0x0, symName: __ZN3syn4item7parsing15parse_item_type17h69a8e007f956ea7eE, symObjAddr: 0x13EA0, symBinAddr: 0xC6FD0, symSize: 0x580 }
  - { offsetInCU: 0x48D08, offset: 0x3FEA77, size: 0x8, addend: 0x0, symName: __ZN3syn4item7parsing26parse_trait_or_trait_alias17h53e52e5f93715b35E, symObjAddr: 0x14420, symBinAddr: 0xC7550, symSize: 0x880 }
  - { offsetInCU: 0x4A6F8, offset: 0x400467, size: 0x8, addend: 0x0, symName: __ZN3syn4item7parsing19parse_rest_of_trait17h0b8f1e2c2e0da776E, symObjAddr: 0x14CA0, symBinAddr: 0xC7DD0, symSize: 0xC10 }
  - { offsetInCU: 0x4BB44, offset: 0x4018B3, size: 0x8, addend: 0x0, symName: __ZN3syn4item7parsing26parse_start_of_trait_alias17h83335d8e31321462E, symObjAddr: 0x158B0, symBinAddr: 0xC89E0, symSize: 0x4F0 }
  - { offsetInCU: 0x4C51B, offset: 0x40228A, size: 0x8, addend: 0x0, symName: __ZN3syn4item7parsing25parse_rest_of_trait_alias17hffc9e5855a2cde04E, symObjAddr: 0x15DA0, symBinAddr: 0xC8ED0, symSize: 0x680 }
  - { offsetInCU: 0x4D0FE, offset: 0x402E6D, size: 0x8, addend: 0x0, symName: __ZN3syn4item7parsing21parse_trait_item_type17h95d0bdc458584a4fE, symObjAddr: 0x16420, symBinAddr: 0xC9550, symSize: 0x4C0 }
  - { offsetInCU: 0x4D849, offset: 0x4035B8, size: 0x8, addend: 0x0, symName: __ZN3syn4item7parsing10parse_impl17he5759138fa3bc5b8E, symObjAddr: 0x168E0, symBinAddr: 0xC9A10, symSize: 0x15F0 }
  - { offsetInCU: 0x4F15B, offset: 0x404ECA, size: 0x8, addend: 0x0, symName: __ZN3syn4item7parsing18parse_impl_item_fn17h96506ae9bfc9db41E, symObjAddr: 0x17ED0, symBinAddr: 0xCB000, symSize: 0x770 }
  - { offsetInCU: 0x4FC80, offset: 0x4059EF, size: 0x8, addend: 0x0, symName: __ZN3syn4item7parsing20parse_impl_item_type17h3bf2e7aa4b140554E, symObjAddr: 0x18640, symBinAddr: 0xCB770, symSize: 0x4D7 }
  - { offsetInCU: 0x587E4, offset: 0x40E553, size: 0x8, addend: 0x0, symName: '__ZN5alloc3vec16Vec$LT$T$C$A$GT$4push17h3158ebd1c3360f00E', symObjAddr: 0xAC20, symBinAddr: 0xBDD50, symSize: 0x60 }
  - { offsetInCU: 0x599A5, offset: 0x40F714, size: 0x8, addend: 0x0, symName: __ZN3syn4item7parsing16FlexibleItemType5parse17ha511062c5b947fc4E, symObjAddr: 0xEDB0, symBinAddr: 0xC1EE0, symSize: 0xA10 }
  - { offsetInCU: 0x5A722, offset: 0x410491, size: 0x8, addend: 0x0, symName: __ZN3syn4item7parsing16FlexibleItemType21parse_optional_bounds17hbbaebf3e2d169441E, symObjAddr: 0xF7C0, symBinAddr: 0xC28F0, symSize: 0x310 }
  - { offsetInCU: 0x5ADDB, offset: 0x410B4A, size: 0x8, addend: 0x0, symName: __ZN3syn4item7parsing16FlexibleItemType25parse_optional_definition17hbde9bf5fd31dafffE, symObjAddr: 0xFAD0, symBinAddr: 0xC2C00, symSize: 0x150 }
  - { offsetInCU: 0x2C38, offset: 0x41ED27, size: 0x8, addend: 0x0, symName: '__ZN3syn8generics7parsing71_$LT$impl$u20$syn..parse..Parse$u20$for$u20$syn..generics..Generics$GT$5parse17h6b35b0a678693bc9E', symObjAddr: 0x8310, symBinAddr: 0xD3150, symSize: 0x1010 }
  - { offsetInCU: 0x4DA2, offset: 0x420E91, size: 0x8, addend: 0x0, symName: '__ZN3syn8generics7parsing76_$LT$impl$u20$syn..parse..Parse$u20$for$u20$syn..generics..LifetimeParam$GT$5parse17h3fc29617c6a43bdcE', symObjAddr: 0x9E70, symBinAddr: 0xD4160, symSize: 0x690 }
  - { offsetInCU: 0x5D39, offset: 0x421E28, size: 0x8, addend: 0x0, symName: '__ZN3syn8generics7parsing77_$LT$impl$u20$syn..parse..Parse$u20$for$u20$syn..generics..BoundLifetimes$GT$5parse17h7a7c384f0cdd4b83E', symObjAddr: 0xA500, symBinAddr: 0xD47F0, symSize: 0x620 }
  - { offsetInCU: 0x6A42, offset: 0x422B31, size: 0x8, addend: 0x0, symName: '__ZN3syn8generics7parsing72_$LT$impl$u20$syn..parse..Parse$u20$for$u20$syn..generics..TypeParam$GT$5parse17h86074eb5794d472dE', symObjAddr: 0xAB20, symBinAddr: 0xD4E10, symSize: 0x7F0 }
  - { offsetInCU: 0x7B2F, offset: 0x423C1E, size: 0x8, addend: 0x0, symName: '__ZN3syn8generics7parsing77_$LT$impl$u20$syn..parse..Parse$u20$for$u20$syn..generics..TypeParamBound$GT$5parse17hef57556d60488532E', symObjAddr: 0xB310, symBinAddr: 0xD5600, symSize: 0x1300 }
  - { offsetInCU: 0xB5F3, offset: 0x4276E2, size: 0x8, addend: 0x0, symName: '__ZN3syn8generics7parsing73_$LT$impl$u20$syn..parse..Parse$u20$for$u20$syn..generics..TraitBound$GT$5parse17h425a3489f7ef339fE', symObjAddr: 0xCB70, symBinAddr: 0xD6E60, symSize: 0x720 }
  - { offsetInCU: 0xC757, offset: 0x428846, size: 0x8, addend: 0x0, symName: '__ZN3syn8generics7parsing73_$LT$impl$u20$syn..parse..Parse$u20$for$u20$syn..generics..ConstParam$GT$5parse17hf00c756c03f8df0bE', symObjAddr: 0xD360, symBinAddr: 0xD7580, symSize: 0x880 }
  - { offsetInCU: 0xD69C, offset: 0x42978B, size: 0x8, addend: 0x0, symName: '__ZN3syn8generics7parsing74_$LT$impl$u20$syn..parse..Parse$u20$for$u20$syn..generics..WhereClause$GT$5parse17h0184ea7b8fa9bf5fE', symObjAddr: 0xDBE0, symBinAddr: 0xD7E00, symSize: 0x440 }
  - { offsetInCU: 0xE216, offset: 0x42A305, size: 0x8, addend: 0x0, symName: '__ZN3syn8generics7parsing77_$LT$impl$u20$syn..parse..Parse$u20$for$u20$syn..generics..WherePredicate$GT$5parse17h285530128cf671e6E', symObjAddr: 0xE020, symBinAddr: 0xD8240, symSize: 0xEB0 }
  - { offsetInCU: 0x10511, offset: 0x42C600, size: 0x8, addend: 0x0, symName: '__ZN3syn8generics8printing80_$LT$impl$u20$quote..to_tokens..ToTokens$u20$for$u20$syn..generics..Generics$GT$9to_tokens17h0ec80491c61b899eE', symObjAddr: 0xEED0, symBinAddr: 0xD90F0, symSize: 0x240 }
  - { offsetInCU: 0x10D37, offset: 0x42CE26, size: 0x8, addend: 0x0, symName: '__ZN3syn8generics8printing84_$LT$impl$u20$quote..to_tokens..ToTokens$u20$for$u20$syn..generics..ImplGenerics$GT$9to_tokens17hcbc91e4fcbfc3836E', symObjAddr: 0xF110, symBinAddr: 0xD9330, symSize: 0x5B0 }
  - { offsetInCU: 0x11F62, offset: 0x42E051, size: 0x8, addend: 0x0, symName: '__ZN3syn8generics8printing84_$LT$impl$u20$quote..to_tokens..ToTokens$u20$for$u20$syn..generics..TypeGenerics$GT$9to_tokens17heceb5abd9933fc8aE', symObjAddr: 0xF6C0, symBinAddr: 0xD98E0, symSize: 0x300 }
  - { offsetInCU: 0x12A25, offset: 0x42EB14, size: 0x8, addend: 0x0, symName: '__ZN3syn8generics8printing86_$LT$impl$u20$quote..to_tokens..ToTokens$u20$for$u20$syn..generics..BoundLifetimes$GT$9to_tokens17hf35c5fa847c9610bE', symObjAddr: 0xFA30, symBinAddr: 0xD9BE0, symSize: 0x150 }
  - { offsetInCU: 0x12ED1, offset: 0x42EFC0, size: 0x8, addend: 0x0, symName: '__ZN3syn8generics8printing81_$LT$impl$u20$quote..to_tokens..ToTokens$u20$for$u20$syn..generics..TypeParam$GT$9to_tokens17h67a891f1844b10b9E', symObjAddr: 0xFDA0, symBinAddr: 0xD9D30, symSize: 0x210 }
  - { offsetInCU: 0x135B2, offset: 0x42F6A1, size: 0x8, addend: 0x0, symName: '__ZN3syn8generics8printing82_$LT$impl$u20$quote..to_tokens..ToTokens$u20$for$u20$syn..generics..ConstParam$GT$9to_tokens17h19315c88864bea17E', symObjAddr: 0x10050, symBinAddr: 0xD9F40, symSize: 0x1E0 }
  - { offsetInCU: 0x1396F, offset: 0x42FA5E, size: 0x8, addend: 0x0, symName: '__ZN3syn8generics8printing83_$LT$impl$u20$quote..to_tokens..ToTokens$u20$for$u20$syn..generics..WhereClause$GT$9to_tokens17hcd59109d6cd5532bE', symObjAddr: 0x10230, symBinAddr: 0xDA120, symSize: 0x120 }
  - { offsetInCU: 0x13E22, offset: 0x42FF11, size: 0x8, addend: 0x0, symName: '__ZN74_$LT$syn..generics..GenericParam$u20$as$u20$quote..to_tokens..ToTokens$GT$9to_tokens17h7b28c56cca690554E', symObjAddr: 0x10590, symBinAddr: 0xDA240, symSize: 0x280 }
  - { offsetInCU: 0x14707, offset: 0x4307F6, size: 0x8, addend: 0x0, symName: '__ZN76_$LT$syn..generics..TypeParamBound$u20$as$u20$quote..to_tokens..ToTokens$GT$9to_tokens17h626cf29a5d446a91E', symObjAddr: 0x10A70, symBinAddr: 0xDA4C0, symSize: 0x110 }
  - { offsetInCU: 0x1496D, offset: 0x430A5C, size: 0x8, addend: 0x0, symName: '__ZN76_$LT$syn..generics..WherePredicate$u20$as$u20$quote..to_tokens..ToTokens$GT$9to_tokens17h17ebe07335d01c13E', symObjAddr: 0x10B80, symBinAddr: 0xDA5D0, symSize: 0x220 }
  - { offsetInCU: 0x17335, offset: 0x433424, size: 0x8, addend: 0x0, symName: '__ZN3syn3gen5clone74_$LT$impl$u20$core..clone..Clone$u20$for$u20$syn..generics..ConstParam$GT$5clone17h3026a67a17c10895E', symObjAddr: 0x10E00, symBinAddr: 0xDA7F0, symSize: 0x1F0 }
  - { offsetInCU: 0x175E6, offset: 0x4336D5, size: 0x8, addend: 0x0, symName: '__ZN3syn3gen5clone77_$LT$impl$u20$core..clone..Clone$u20$for$u20$syn..generics..LifetimeParam$GT$5clone17ha0c1f4877a12e76eE', symObjAddr: 0x111B0, symBinAddr: 0xDA9E0, symSize: 0x130 }
  - { offsetInCU: 0x1783A, offset: 0x433929, size: 0x8, addend: 0x0, symName: '__ZN3syn3gen5clone77_$LT$impl$u20$core..clone..Clone$u20$for$u20$syn..generics..PredicateType$GT$5clone17he478b1727e886ac0E', symObjAddr: 0x113C0, symBinAddr: 0xDAB10, symSize: 0x150 }
  - { offsetInCU: 0x179CE, offset: 0x433ABD, size: 0x8, addend: 0x0, symName: '__ZN3syn3gen5clone73_$LT$impl$u20$core..clone..Clone$u20$for$u20$syn..generics..TypeParam$GT$5clone17h94ce523cb3afb45dE', symObjAddr: 0x11640, symBinAddr: 0xDAC60, symSize: 0x2B0 }
  - { offsetInCU: 0x17F0B, offset: 0x433FFA, size: 0x8, addend: 0x0, symName: '__ZN3syn3gen5clone78_$LT$impl$u20$core..clone..Clone$u20$for$u20$syn..generics..TypeParamBound$GT$5clone17h78cd728b4f45a7a9E', symObjAddr: 0x118F0, symBinAddr: 0xDAF10, symSize: 0x230 }
  - { offsetInCU: 0x1ACC8, offset: 0x436DB7, size: 0x8, addend: 0x0, symName: '__ZN4core3ptr100drop_in_place$LT$core..option..Option$LT$alloc..boxed..Box$LT$syn..path..GenericArgument$GT$$GT$$GT$17h7435c9de74860622E', symObjAddr: 0x140, symBinAddr: 0xCBC50, symSize: 0x50 }
  - { offsetInCU: 0x1AF51, offset: 0x437040, size: 0x8, addend: 0x0, symName: '__ZN4core3ptr100drop_in_place$LT$syn..punctuated..Punctuated$LT$syn..path..PathSegment$C$syn..token..PathSep$GT$$GT$17hf414cb3581f8337aE', symObjAddr: 0x190, symBinAddr: 0xCBCA0, symSize: 0x140 }
  - { offsetInCU: 0x1B485, offset: 0x437574, size: 0x8, addend: 0x0, symName: '__ZN4core3ptr103drop_in_place$LT$core..option..Option$LT$alloc..boxed..Box$LT$syn..generics..TypeParamBound$GT$$GT$$GT$17h5974f03e36b1a9c3E', symObjAddr: 0x2D0, symBinAddr: 0xCBDE0, symSize: 0x50 }
  - { offsetInCU: 0x1B6D0, offset: 0x4377BF, size: 0x8, addend: 0x0, symName: '__ZN4core3ptr103drop_in_place$LT$core..option..Option$LT$alloc..boxed..Box$LT$syn..generics..WherePredicate$GT$$GT$$GT$17hdd5111a374d8d6f2E', symObjAddr: 0x320, symBinAddr: 0xCBE30, symSize: 0xD0 }
  - { offsetInCU: 0x1BA63, offset: 0x437B52, size: 0x8, addend: 0x0, symName: '__ZN4core3ptr103drop_in_place$LT$syn..punctuated..Punctuated$LT$syn..generics..GenericParam$C$syn..token..Comma$GT$$GT$17hf42353fa44ed6da8E.llvm.14890500243436994185', symObjAddr: 0x3F0, symBinAddr: 0xCBF00, symSize: 0xF0 }
  - { offsetInCU: 0x1BE8B, offset: 0x437F7A, size: 0x8, addend: 0x0, symName: '__ZN4core3ptr104drop_in_place$LT$syn..punctuated..Punctuated$LT$syn..generics..TypeParamBound$C$syn..token..Plus$GT$$GT$17h532f52c4a894b056E', symObjAddr: 0x4E0, symBinAddr: 0xCBFF0, symSize: 0x160 }
  - { offsetInCU: 0x1C3F9, offset: 0x4384E8, size: 0x8, addend: 0x0, symName: '__ZN4core3ptr105drop_in_place$LT$syn..punctuated..Punctuated$LT$syn..generics..WherePredicate$C$syn..token..Comma$GT$$GT$17h935f9826ba562349E', symObjAddr: 0x640, symBinAddr: 0xCC150, symSize: 0x80 }
  - { offsetInCU: 0x1C6BB, offset: 0x4387AA, size: 0x8, addend: 0x0, symName: '__ZN4core3ptr34drop_in_place$LT$syn..lit..Lit$GT$17h8902f5ff67917034E', symObjAddr: 0x6C0, symBinAddr: 0xCC1D0, symSize: 0x110 }
  - { offsetInCU: 0x1CC52, offset: 0x438D41, size: 0x8, addend: 0x0, symName: '__ZN4core3ptr34drop_in_place$LT$syn..pat..Pat$GT$17h4581eea028ec0969E', symObjAddr: 0x7D0, symBinAddr: 0xCC2E0, symSize: 0x1000 }
  - { offsetInCU: 0x20796, offset: 0x43C885, size: 0x8, addend: 0x0, symName: '__ZN4core3ptr34drop_in_place$LT$syn..ty..Type$GT$17h369e41ad4a9f1ae0E.llvm.14890500243436994185', symObjAddr: 0x17D0, symBinAddr: 0xCD2E0, symSize: 0x4F0 }
  - { offsetInCU: 0x21D1F, offset: 0x43DE0E, size: 0x8, addend: 0x0, symName: '__ZN4core3ptr36drop_in_place$LT$syn..expr..Expr$GT$17h0f7fd4c749bae801E.llvm.14890500243436994185', symObjAddr: 0x1CD0, symBinAddr: 0xCD7D0, symSize: 0x28E0 }
  - { offsetInCU: 0x2B1B1, offset: 0x4472A0, size: 0x8, addend: 0x0, symName: '__ZN4core3ptr36drop_in_place$LT$syn..mac..Macro$GT$17h4ffde962df30ebe2E', symObjAddr: 0x45B0, symBinAddr: 0xD00B0, symSize: 0x40 }
  - { offsetInCU: 0x2B267, offset: 0x447356, size: 0x8, addend: 0x0, symName: '__ZN4core3ptr36drop_in_place$LT$syn..path..Path$GT$17habea856181211e1cE', symObjAddr: 0x45F0, symBinAddr: 0xD00F0, symSize: 0x220 }
  - { offsetInCU: 0x2BB9C, offset: 0x447C8B, size: 0x8, addend: 0x0, symName: '__ZN4core3ptr37drop_in_place$LT$syn..stmt..Block$GT$17hcc21a21cf949414cE', symObjAddr: 0x4810, symBinAddr: 0xD0310, symSize: 0xD0 }
  - { offsetInCU: 0x2BE40, offset: 0x447F2F, size: 0x8, addend: 0x0, symName: '__ZN4core3ptr38drop_in_place$LT$syn..expr..Member$GT$17h022cbe5553aa40faE', symObjAddr: 0x48F0, symBinAddr: 0xD03E0, symSize: 0x30 }
  - { offsetInCU: 0x2BF3D, offset: 0x44802C, size: 0x8, addend: 0x0, symName: '__ZN4core3ptr39drop_in_place$LT$proc_macro2..Ident$GT$17h8101e88c3ac359d6E.llvm.14890500243436994185', symObjAddr: 0x4920, symBinAddr: 0xD0410, symSize: 0x30 }
  - { offsetInCU: 0x2C01B, offset: 0x44810A, size: 0x8, addend: 0x0, symName: '__ZN4core3ptr40drop_in_place$LT$syn..ty..ReturnType$GT$17h02cf41e2fec63d90E', symObjAddr: 0x4950, symBinAddr: 0xD0440, symSize: 0x50 }
  - { offsetInCU: 0x2C18D, offset: 0x44827C, size: 0x8, addend: 0x0, symName: '__ZN4core3ptr41drop_in_place$LT$syn..expr..ExprConst$GT$17h725a13e551d9f276E', symObjAddr: 0x49A0, symBinAddr: 0xD0490, symSize: 0x180 }
  - { offsetInCU: 0x2C6E2, offset: 0x4487D1, size: 0x8, addend: 0x0, symName: '__ZN4core3ptr44drop_in_place$LT$syn..lifetime..Lifetime$GT$17hf0cdec2e9ec456d6E.llvm.14890500243436994185', symObjAddr: 0x4B60, symBinAddr: 0xD0610, symSize: 0x30 }
  - { offsetInCU: 0x2C85B, offset: 0x44894A, size: 0x8, addend: 0x0, symName: '__ZN4core3ptr44drop_in_place$LT$syn..parse..ParseBuffer$GT$17hd0dadba44a19aec2E', symObjAddr: 0x4B90, symBinAddr: 0xD0640, symSize: 0x70 }
  - { offsetInCU: 0x2CC90, offset: 0x448D7F, size: 0x8, addend: 0x0, symName: '__ZN4core3ptr45drop_in_place$LT$proc_macro2..TokenStream$GT$17h3405f6c513e9f6cbE.llvm.14890500243436994185', symObjAddr: 0x4C00, symBinAddr: 0xD06B0, symSize: 0x140 }
  - { offsetInCU: 0x2D0FF, offset: 0x4491EE, size: 0x8, addend: 0x0, symName: '__ZN4core3ptr45drop_in_place$LT$syn..generics..TypeParam$GT$17he5eda51070b7de47E.llvm.14890500243436994185', symObjAddr: 0x4D40, symBinAddr: 0xD07F0, symSize: 0x230 }
  - { offsetInCU: 0x2D8FB, offset: 0x4499EA, size: 0x8, addend: 0x0, symName: '__ZN4core3ptr45drop_in_place$LT$syn..path..PathArguments$GT$17h7160021b3fdea550E', symObjAddr: 0x4F70, symBinAddr: 0xD0A20, symSize: 0x170 }
  - { offsetInCU: 0x2DD98, offset: 0x449E87, size: 0x8, addend: 0x0, symName: '__ZN4core3ptr46drop_in_place$LT$syn..generics..ConstParam$GT$17hab0a58c4af8c549cE.llvm.14890500243436994185', symObjAddr: 0x50E0, symBinAddr: 0xD0B90, symSize: 0x150 }
  - { offsetInCU: 0x2E165, offset: 0x44A254, size: 0x8, addend: 0x0, symName: '__ZN4core3ptr46drop_in_place$LT$syn..generics..TraitBound$GT$17h73aacd08fea17a2cE.llvm.14890500243436994185', symObjAddr: 0x5230, symBinAddr: 0xD0CE0, symSize: 0xF0 }
  - { offsetInCU: 0x2E4CC, offset: 0x44A5BB, size: 0x8, addend: 0x0, symName: '__ZN4core3ptr47drop_in_place$LT$syn..path..GenericArgument$GT$17h54f8794633f96823E', symObjAddr: 0x5320, symBinAddr: 0xD0DD0, symSize: 0x4A0 }
  - { offsetInCU: 0x2F573, offset: 0x44B662, size: 0x8, addend: 0x0, symName: '__ZN4core3ptr49drop_in_place$LT$syn..generics..LifetimeParam$GT$17h41a7c7a290ea6289E.llvm.14890500243436994185', symObjAddr: 0x57C0, symBinAddr: 0xD1270, symSize: 0xF0 }
  - { offsetInCU: 0x2F94C, offset: 0x44BA3B, size: 0x8, addend: 0x0, symName: '__ZN4core3ptr50drop_in_place$LT$syn..generics..TypeParamBound$GT$17hcd7771d4c6c221efE', symObjAddr: 0x5920, symBinAddr: 0xD1360, symSize: 0xA0 }
  - { offsetInCU: 0x2FAB3, offset: 0x44BBA2, size: 0x8, addend: 0x0, symName: '__ZN4core3ptr58drop_in_place$LT$alloc..vec..Vec$LT$syn..expr..Arm$GT$$GT$17h1a55df3d2cba1daaE', symObjAddr: 0x5A00, symBinAddr: 0xD1400, symSize: 0xD0 }
  - { offsetInCU: 0x2FD40, offset: 0x44BE2F, size: 0x8, addend: 0x0, symName: '__ZN4core3ptr59drop_in_place$LT$alloc..boxed..Box$LT$syn..pat..Pat$GT$$GT$17h563b135d87aca8abE', symObjAddr: 0x5AD0, symBinAddr: 0xD14D0, symSize: 0x50 }
  - { offsetInCU: 0x2FE9B, offset: 0x44BF8A, size: 0x8, addend: 0x0, symName: '__ZN4core3ptr59drop_in_place$LT$alloc..boxed..Box$LT$syn..ty..Type$GT$$GT$17hffed36bad83adacbE', symObjAddr: 0x5B20, symBinAddr: 0xD1520, symSize: 0x50 }
  - { offsetInCU: 0x2FFF6, offset: 0x44C0E5, size: 0x8, addend: 0x0, symName: '__ZN4core3ptr61drop_in_place$LT$alloc..boxed..Box$LT$syn..expr..Expr$GT$$GT$17h01091e47f131475dE', symObjAddr: 0x5B70, symBinAddr: 0xD1570, symSize: 0x50 }
  - { offsetInCU: 0x301CD, offset: 0x44C2BC, size: 0x8, addend: 0x0, symName: '__ZN4core3ptr61drop_in_place$LT$syn..path..ParenthesizedGenericArguments$GT$17h43d4aac5494326a7E', symObjAddr: 0x5BC0, symBinAddr: 0xD15C0, symSize: 0x170 }
  - { offsetInCU: 0x30794, offset: 0x44C883, size: 0x8, addend: 0x0, symName: '__ZN4core3ptr62drop_in_place$LT$syn..path..AngleBracketedGenericArguments$GT$17hc5b69f68243636ddE', symObjAddr: 0x5D50, symBinAddr: 0xD1730, symSize: 0x120 }
  - { offsetInCU: 0x30BAA, offset: 0x44CC99, size: 0x8, addend: 0x0, symName: '__ZN4core3ptr63drop_in_place$LT$alloc..boxed..Box$LT$syn..lit..LitRepr$GT$$GT$17hd8839b7fb35ee7afE', symObjAddr: 0x5E70, symBinAddr: 0xD1850, symSize: 0x60 }
  - { offsetInCU: 0x30E9F, offset: 0x44CF8E, size: 0x8, addend: 0x0, symName: '__ZN4core3ptr64drop_in_place$LT$alloc..boxed..Box$LT$syn..pat..FieldPat$GT$$GT$17h4980b70a7597cc08E', symObjAddr: 0x5ED0, symBinAddr: 0xD18B0, symSize: 0x140 }
  - { offsetInCU: 0x3154A, offset: 0x44D639, size: 0x8, addend: 0x0, symName: '__ZN4core3ptr64drop_in_place$LT$alloc..boxed..Box$LT$syn..ty..BareFnArg$GT$$GT$17h8b34096c620314efE', symObjAddr: 0x6010, symBinAddr: 0xD19F0, symSize: 0x140 }
  - { offsetInCU: 0x31A6E, offset: 0x44DB5D, size: 0x8, addend: 0x0, symName: '__ZN4core3ptr64drop_in_place$LT$alloc..vec..Vec$LT$syn..attr..Attribute$GT$$GT$17h3c8f2a04e701c675E.llvm.14890500243436994185', symObjAddr: 0x6150, symBinAddr: 0xD1B30, symSize: 0xD0 }
  - { offsetInCU: 0x31CFB, offset: 0x44DDEA, size: 0x8, addend: 0x0, symName: '__ZN4core3ptr65drop_in_place$LT$core..option..Option$LT$syn..expr..Label$GT$$GT$17h78189e72a8cb7951E', symObjAddr: 0x6240, symBinAddr: 0xD1C00, symSize: 0x30 }
  - { offsetInCU: 0x31E36, offset: 0x44DF25, size: 0x8, addend: 0x0, symName: '__ZN4core3ptr66drop_in_place$LT$core..option..Option$LT$syn..pat..PatRest$GT$$GT$17h61677cf4ff3a7393E', symObjAddr: 0x6270, symBinAddr: 0xD1C30, symSize: 0xE0 }
  - { offsetInCU: 0x320BA, offset: 0x44E1A9, size: 0x8, addend: 0x0, symName: '__ZN4core3ptr67drop_in_place$LT$alloc..boxed..Box$LT$syn..expr..FieldValue$GT$$GT$17h93aaccf8aa22ef88E', symObjAddr: 0x6350, symBinAddr: 0xD1D10, symSize: 0x140 }
  - { offsetInCU: 0x325BE, offset: 0x44E6AD, size: 0x8, addend: 0x0, symName: '__ZN4core3ptr68drop_in_place$LT$alloc..boxed..Box$LT$syn..path..PathSegment$GT$$GT$17h709dabdc13b58a71E', symObjAddr: 0x6490, symBinAddr: 0xD1E50, symSize: 0x190 }
  - { offsetInCU: 0x32C9C, offset: 0x44ED8B, size: 0x8, addend: 0x0, symName: '__ZN4core3ptr70drop_in_place$LT$core..option..Option$LT$syn..ty..BareVariadic$GT$$GT$17h45399348ea4b8d55E', symObjAddr: 0x6620, symBinAddr: 0xD1FE0, symSize: 0x120 }
  - { offsetInCU: 0x331C9, offset: 0x44F2B8, size: 0x8, addend: 0x0, symName: '__ZN4core3ptr72drop_in_place$LT$alloc..boxed..Box$LT$syn..path..GenericArgument$GT$$GT$17haa7dd8b716637b54E', symObjAddr: 0x6740, symBinAddr: 0xD2100, symSize: 0x2B0 }
  - { offsetInCU: 0x33B54, offset: 0x44FC43, size: 0x8, addend: 0x0, symName: '__ZN4core3ptr72drop_in_place$LT$core..option..Option$LT$syn..lifetime..Lifetime$GT$$GT$17hfc363ccdd8bd9c32E', symObjAddr: 0x69F0, symBinAddr: 0xD23B0, symSize: 0x30 }
  - { offsetInCU: 0x33C70, offset: 0x44FD5F, size: 0x8, addend: 0x0, symName: '__ZN4core3ptr73drop_in_place$LT$alloc..boxed..Box$LT$syn..generics..GenericParam$GT$$GT$17hf6951dcd5ae07324E.llvm.14890500243436994185', symObjAddr: 0x6A20, symBinAddr: 0xD23E0, symSize: 0x80 }
  - { offsetInCU: 0x33DE8, offset: 0x44FED7, size: 0x8, addend: 0x0, symName: '__ZN4core3ptr75drop_in_place$LT$alloc..boxed..Box$LT$syn..generics..TypeParamBound$GT$$GT$17he61c00698a311a34E', symObjAddr: 0x6AA0, symBinAddr: 0xD2460, symSize: 0x160 }
  - { offsetInCU: 0x343CD, offset: 0x4504BC, size: 0x8, addend: 0x0, symName: '__ZN4core3ptr86drop_in_place$LT$syn..punctuated..Punctuated$LT$syn..pat..Pat$C$syn..token..Or$GT$$GT$17h8e9173df21a44316E', symObjAddr: 0x6CB0, symBinAddr: 0xD25C0, symSize: 0x120 }
  - { offsetInCU: 0x34813, offset: 0x450902, size: 0x8, addend: 0x0, symName: '__ZN4core3ptr87drop_in_place$LT$core..option..Option$LT$alloc..boxed..Box$LT$syn..pat..Pat$GT$$GT$$GT$17hd7b7c69f601b3926E', symObjAddr: 0x6DD0, symBinAddr: 0xD26E0, symSize: 0x50 }
  - { offsetInCU: 0x34985, offset: 0x450A74, size: 0x8, addend: 0x0, symName: '__ZN4core3ptr87drop_in_place$LT$core..option..Option$LT$alloc..boxed..Box$LT$syn..ty..Type$GT$$GT$$GT$17hd74f5d971aec2972E', symObjAddr: 0x6E20, symBinAddr: 0xD2730, symSize: 0x50 }
  - { offsetInCU: 0x34AF7, offset: 0x450BE6, size: 0x8, addend: 0x0, symName: '__ZN4core3ptr89drop_in_place$LT$core..option..Option$LT$alloc..boxed..Box$LT$syn..expr..Expr$GT$$GT$$GT$17h8e135ac1a25a2dc5E', symObjAddr: 0x6E70, symBinAddr: 0xD2780, symSize: 0x50 }
  - { offsetInCU: 0x34CA7, offset: 0x450D96, size: 0x8, addend: 0x0, symName: '__ZN4core3ptr89drop_in_place$LT$syn..punctuated..Punctuated$LT$syn..pat..Pat$C$syn..token..Comma$GT$$GT$17h8d60e47f3fb1f87aE', symObjAddr: 0x6EC0, symBinAddr: 0xD27D0, symSize: 0x120 }
  - { offsetInCU: 0x35104, offset: 0x4511F3, size: 0x8, addend: 0x0, symName: '__ZN4core3ptr89drop_in_place$LT$syn..punctuated..Punctuated$LT$syn..ty..Type$C$syn..token..Comma$GT$$GT$17ha919b3114742fb9dE', symObjAddr: 0x6FE0, symBinAddr: 0xD28F0, symSize: 0x120 }
  - { offsetInCU: 0x3554E, offset: 0x45163D, size: 0x8, addend: 0x0, symName: '__ZN4core3ptr90drop_in_place$LT$core..option..Option$LT$syn..path..AngleBracketedGenericArguments$GT$$GT$17h80d9a5f0818c8bd9E', symObjAddr: 0x7100, symBinAddr: 0xD2A10, symSize: 0x130 }
  - { offsetInCU: 0x359B9, offset: 0x451AA8, size: 0x8, addend: 0x0, symName: '__ZN4core3ptr91drop_in_place$LT$syn..punctuated..Punctuated$LT$syn..expr..Expr$C$syn..token..Comma$GT$$GT$17h4f39b83dc86a4159E', symObjAddr: 0x7230, symBinAddr: 0xD2B40, symSize: 0x120 }
  - { offsetInCU: 0x35E16, offset: 0x451F05, size: 0x8, addend: 0x0, symName: '__ZN4core3ptr94drop_in_place$LT$syn..punctuated..Punctuated$LT$syn..pat..FieldPat$C$syn..token..Comma$GT$$GT$17h112950ea198c8281E', symObjAddr: 0x7350, symBinAddr: 0xD2C60, symSize: 0xF0 }
  - { offsetInCU: 0x360E0, offset: 0x4521CF, size: 0x8, addend: 0x0, symName: '__ZN4core3ptr94drop_in_place$LT$syn..punctuated..Punctuated$LT$syn..ty..BareFnArg$C$syn..token..Comma$GT$$GT$17h1c7b44310f06243dE', symObjAddr: 0x7440, symBinAddr: 0xD2D50, symSize: 0xF0 }
  - { offsetInCU: 0x363AA, offset: 0x452499, size: 0x8, addend: 0x0, symName: '__ZN4core3ptr96drop_in_place$LT$core..option..Option$LT$alloc..boxed..Box$LT$syn..path..PathSegment$GT$$GT$$GT$17hb447d0f626c86a4eE', symObjAddr: 0x7530, symBinAddr: 0xD2E40, symSize: 0x90 }
  - { offsetInCU: 0x3662C, offset: 0x45271B, size: 0x8, addend: 0x0, symName: '__ZN4core3ptr97drop_in_place$LT$syn..punctuated..Punctuated$LT$syn..expr..FieldValue$C$syn..token..Comma$GT$$GT$17h31b81f7462228dcbE', symObjAddr: 0x75C0, symBinAddr: 0xD2ED0, symSize: 0xF0 }
  - { offsetInCU: 0x368F6, offset: 0x4529E5, size: 0x8, addend: 0x0, symName: '__ZN4core3ptr98drop_in_place$LT$alloc..vec..Vec$LT$$LP$syn..path..GenericArgument$C$syn..token..Comma$RP$$GT$$GT$17h0657ff261f33b640E', symObjAddr: 0x76B0, symBinAddr: 0xD2FC0, symSize: 0xD0 }
  - { offsetInCU: 0x36BFF, offset: 0x452CEE, size: 0x8, addend: 0x0, symName: '__ZN4core3ptr98drop_in_place$LT$syn..punctuated..Punctuated$LT$syn..lifetime..Lifetime$C$syn..token..Plus$GT$$GT$17h0f8fc5f20f465f47E.llvm.14890500243436994185', symObjAddr: 0x7780, symBinAddr: 0xD3090, symSize: 0xC0 }
  - { offsetInCU: 0x4006A, offset: 0x45C159, size: 0x8, addend: 0x0, symName: '__ZN3syn8generics7parsing47_$LT$impl$u20$syn..generics..TypeParamBound$GT$14parse_multiple17h0a18ee52418b5a4eE', symObjAddr: 0xC610, symBinAddr: 0xD6900, symSize: 0x560 }
  - { offsetInCU: 0xE7B, offset: 0x466CB4, size: 0x8, addend: 0x0, symName: '__ZN60_$LT$syn..token..Underscore$u20$as$u20$syn..token..Token$GT$4peek17h789d27f9bb6ea028E', symObjAddr: 0xA30, symBinAddr: 0xDB280, symSize: 0x250 }
  - { offsetInCU: 0x167C, offset: 0x4674B5, size: 0x8, addend: 0x0, symName: '__ZN55_$LT$syn..token..Paren$u20$as$u20$syn..token..Token$GT$4peek17h25e234046af6258dE', symObjAddr: 0xEE0, symBinAddr: 0xDB5F0, symSize: 0xB0 }
  - { offsetInCU: 0x16CF, offset: 0x467508, size: 0x8, addend: 0x0, symName: '__ZN55_$LT$syn..token..Paren$u20$as$u20$syn..token..Token$GT$4peek17h25e234046af6258dE', symObjAddr: 0xEE0, symBinAddr: 0xDB5F0, symSize: 0xB0 }
  - { offsetInCU: 0x16DF, offset: 0x467518, size: 0x8, addend: 0x0, symName: '__ZN55_$LT$syn..token..Paren$u20$as$u20$syn..token..Token$GT$4peek17h25e234046af6258dE', symObjAddr: 0xEE0, symBinAddr: 0xDB5F0, symSize: 0xB0 }
  - { offsetInCU: 0x1817, offset: 0x467650, size: 0x8, addend: 0x0, symName: '__ZN55_$LT$syn..token..Brace$u20$as$u20$syn..token..Token$GT$4peek17ha752276b3db9eb99E', symObjAddr: 0xF90, symBinAddr: 0xDB6A0, symSize: 0xB0 }
  - { offsetInCU: 0x186A, offset: 0x4676A3, size: 0x8, addend: 0x0, symName: '__ZN55_$LT$syn..token..Brace$u20$as$u20$syn..token..Token$GT$4peek17ha752276b3db9eb99E', symObjAddr: 0xF90, symBinAddr: 0xDB6A0, symSize: 0xB0 }
  - { offsetInCU: 0x187A, offset: 0x4676B3, size: 0x8, addend: 0x0, symName: '__ZN55_$LT$syn..token..Brace$u20$as$u20$syn..token..Token$GT$4peek17ha752276b3db9eb99E', symObjAddr: 0xF90, symBinAddr: 0xDB6A0, symSize: 0xB0 }
  - { offsetInCU: 0x19BA, offset: 0x4677F3, size: 0x8, addend: 0x0, symName: '__ZN57_$LT$syn..token..Bracket$u20$as$u20$syn..token..Token$GT$4peek17h3f4b3ccc9e26c654E', symObjAddr: 0x1040, symBinAddr: 0xDB750, symSize: 0xB0 }
  - { offsetInCU: 0x1A0D, offset: 0x467846, size: 0x8, addend: 0x0, symName: '__ZN57_$LT$syn..token..Bracket$u20$as$u20$syn..token..Token$GT$4peek17h3f4b3ccc9e26c654E', symObjAddr: 0x1040, symBinAddr: 0xDB750, symSize: 0xB0 }
  - { offsetInCU: 0x1A1D, offset: 0x467856, size: 0x8, addend: 0x0, symName: '__ZN57_$LT$syn..token..Bracket$u20$as$u20$syn..token..Token$GT$4peek17h3f4b3ccc9e26c654E', symObjAddr: 0x1040, symBinAddr: 0xDB750, symSize: 0xB0 }
  - { offsetInCU: 0x1B8A, offset: 0x4679C3, size: 0x8, addend: 0x0, symName: '__ZN52_$LT$syn..token..As$u20$as$u20$syn..parse..Parse$GT$5parse17h85019d46556fbac3E', symObjAddr: 0x1350, symBinAddr: 0xDB800, symSize: 0x60 }
  - { offsetInCU: 0x1C3F, offset: 0x467A78, size: 0x8, addend: 0x0, symName: '__ZN55_$LT$syn..token..Async$u20$as$u20$syn..token..Token$GT$4peek17h7ff0a4a69488c77fE', symObjAddr: 0x14D0, symBinAddr: 0xDB860, symSize: 0x20 }
  - { offsetInCU: 0x1C76, offset: 0x467AAF, size: 0x8, addend: 0x0, symName: '__ZN54_$LT$syn..token..Auto$u20$as$u20$syn..token..Token$GT$4peek17hebee82bb54c38895E', symObjAddr: 0x15F0, symBinAddr: 0xDB880, symSize: 0x20 }
  - { offsetInCU: 0x1D07, offset: 0x467B40, size: 0x8, addend: 0x0, symName: '__ZN55_$LT$syn..token..Const$u20$as$u20$syn..parse..Parse$GT$5parse17h46c6cc59779da60bE', symObjAddr: 0x1B30, symBinAddr: 0xDB8A0, symSize: 0x60 }
  - { offsetInCU: 0x1D8F, offset: 0x467BC8, size: 0x8, addend: 0x0, symName: '__ZN55_$LT$syn..token..Const$u20$as$u20$syn..token..Token$GT$4peek17h2d7d2aba6f15afccE', symObjAddr: 0x1B90, symBinAddr: 0xDB900, symSize: 0x20 }
  - { offsetInCU: 0x1DC6, offset: 0x467BFF, size: 0x8, addend: 0x0, symName: '__ZN55_$LT$syn..token..Crate$u20$as$u20$syn..token..Token$GT$4peek17hd3ff9f9064291857E', symObjAddr: 0x1DD0, symBinAddr: 0xDB920, symSize: 0x20 }
  - { offsetInCU: 0x1DFD, offset: 0x467C36, size: 0x8, addend: 0x0, symName: '__ZN53_$LT$syn..token..Dyn$u20$as$u20$syn..parse..Parse$GT$5parse17hd552992672026ee9E', symObjAddr: 0x20D0, symBinAddr: 0xDB940, symSize: 0x60 }
  - { offsetInCU: 0x1E85, offset: 0x467CBE, size: 0x8, addend: 0x0, symName: '__ZN54_$LT$syn..token..Else$u20$as$u20$syn..parse..Parse$GT$5parse17h2b2f89d9de8133a6E', symObjAddr: 0x21F0, symBinAddr: 0xDB9A0, symSize: 0x60 }
  - { offsetInCU: 0x1F0D, offset: 0x467D46, size: 0x8, addend: 0x0, symName: '__ZN54_$LT$syn..token..Enum$u20$as$u20$syn..token..Token$GT$4peek17h70f8ca6d0a57ae7cE', symObjAddr: 0x2370, symBinAddr: 0xDBA00, symSize: 0x20 }
  - { offsetInCU: 0x1F44, offset: 0x467D7D, size: 0x8, addend: 0x0, symName: '__ZN56_$LT$syn..token..Extern$u20$as$u20$syn..token..Token$GT$4peek17h0a1088e1ed9ac636E', symObjAddr: 0x2490, symBinAddr: 0xDBA20, symSize: 0x20 }
  - { offsetInCU: 0x1F7B, offset: 0x467DB4, size: 0x8, addend: 0x0, symName: '__ZN52_$LT$syn..token..Fn$u20$as$u20$syn..parse..Parse$GT$5parse17hbae4b7e03a0010e0E', symObjAddr: 0x2670, symBinAddr: 0xDBA40, symSize: 0x60 }
  - { offsetInCU: 0x2003, offset: 0x467E3C, size: 0x8, addend: 0x0, symName: '__ZN52_$LT$syn..token..Fn$u20$as$u20$syn..token..Token$GT$4peek17hc7676a7b46f9ffb9E', symObjAddr: 0x26D0, symBinAddr: 0xDBAA0, symSize: 0x20 }
  - { offsetInCU: 0x2067, offset: 0x467EA0, size: 0x8, addend: 0x0, symName: '__ZN53_$LT$syn..token..For$u20$as$u20$syn..parse..Parse$GT$5parse17h7830b2807da6697cE', symObjAddr: 0x2790, symBinAddr: 0xDBAC0, symSize: 0x60 }
  - { offsetInCU: 0x20EF, offset: 0x467F28, size: 0x8, addend: 0x0, symName: '__ZN54_$LT$syn..token..Impl$u20$as$u20$syn..token..Token$GT$4peek17h1bc8c1a17a8ac247E', symObjAddr: 0x2A30, symBinAddr: 0xDBB20, symSize: 0x20 }
  - { offsetInCU: 0x2153, offset: 0x467F8C, size: 0x8, addend: 0x0, symName: '__ZN52_$LT$syn..token..In$u20$as$u20$syn..parse..Parse$GT$5parse17hec49a7644160a01eE', symObjAddr: 0x2AF0, symBinAddr: 0xDBB40, symSize: 0x60 }
  - { offsetInCU: 0x2235, offset: 0x46806E, size: 0x8, addend: 0x0, symName: '__ZN55_$LT$syn..token..Macro$u20$as$u20$syn..token..Token$GT$4peek17h6210815ff705b39aE', symObjAddr: 0x2EB0, symBinAddr: 0xDBBA0, symSize: 0x20 }
  - { offsetInCU: 0x2299, offset: 0x4680D2, size: 0x8, addend: 0x0, symName: '__ZN53_$LT$syn..token..Mod$u20$as$u20$syn..token..Token$GT$4peek17hbe008020d570fc7bE', symObjAddr: 0x30F0, symBinAddr: 0xDBBC0, symSize: 0x20 }
  - { offsetInCU: 0x22FD, offset: 0x468136, size: 0x8, addend: 0x0, symName: '__ZN54_$LT$syn..token..Move$u20$as$u20$syn..token..Token$GT$4peek17h64855903f4cc82c7E', symObjAddr: 0x3210, symBinAddr: 0xDBBE0, symSize: 0x20 }
  - { offsetInCU: 0x2361, offset: 0x46819A, size: 0x8, addend: 0x0, symName: '__ZN53_$LT$syn..token..Mut$u20$as$u20$syn..token..Token$GT$4peek17hfa3b784a7986bc45E', symObjAddr: 0x3330, symBinAddr: 0xDBC00, symSize: 0x20 }
  - { offsetInCU: 0x23C5, offset: 0x4681FE, size: 0x8, addend: 0x0, symName: '__ZN53_$LT$syn..token..Ref$u20$as$u20$syn..token..Token$GT$4peek17h767951e2892cf942E', symObjAddr: 0x37B0, symBinAddr: 0xDBC20, symSize: 0x20 }
  - { offsetInCU: 0x23FC, offset: 0x468235, size: 0x8, addend: 0x0, symName: '__ZN58_$LT$syn..token..SelfType$u20$as$u20$syn..token..Token$GT$4peek17h0c0bc843190daad6E', symObjAddr: 0x39F0, symBinAddr: 0xDBC40, symSize: 0x20 }
  - { offsetInCU: 0x2433, offset: 0x46826C, size: 0x8, addend: 0x0, symName: '__ZN59_$LT$syn..token..SelfValue$u20$as$u20$syn..parse..Parse$GT$5parse17h051d3709124c46d9E', symObjAddr: 0x3AB0, symBinAddr: 0xDBC60, symSize: 0x60 }
  - { offsetInCU: 0x24BB, offset: 0x4682F4, size: 0x8, addend: 0x0, symName: '__ZN59_$LT$syn..token..SelfValue$u20$as$u20$syn..token..Token$GT$4peek17h50318bcccdb91ecaE', symObjAddr: 0x3B10, symBinAddr: 0xDBCC0, symSize: 0x20 }
  - { offsetInCU: 0x24F2, offset: 0x46832B, size: 0x8, addend: 0x0, symName: '__ZN56_$LT$syn..token..Static$u20$as$u20$syn..parse..Parse$GT$5parse17h5bb5f7745c7fe15eE', symObjAddr: 0x3BD0, symBinAddr: 0xDBCE0, symSize: 0x60 }
  - { offsetInCU: 0x257A, offset: 0x4683B3, size: 0x8, addend: 0x0, symName: '__ZN56_$LT$syn..token..Static$u20$as$u20$syn..token..Token$GT$4peek17he4be23aaf817aacaE', symObjAddr: 0x3C30, symBinAddr: 0xDBD40, symSize: 0x20 }
  - { offsetInCU: 0x25B1, offset: 0x4683EA, size: 0x8, addend: 0x0, symName: '__ZN56_$LT$syn..token..Struct$u20$as$u20$syn..token..Token$GT$4peek17h19827cbab69b1623E', symObjAddr: 0x3D50, symBinAddr: 0xDBD60, symSize: 0x20 }
  - { offsetInCU: 0x25E8, offset: 0x468421, size: 0x8, addend: 0x0, symName: '__ZN55_$LT$syn..token..Super$u20$as$u20$syn..token..Token$GT$4peek17h275967d5b34f27d3E', symObjAddr: 0x3E70, symBinAddr: 0xDBD80, symSize: 0x20 }
  - { offsetInCU: 0x261F, offset: 0x468458, size: 0x8, addend: 0x0, symName: '__ZN55_$LT$syn..token..Trait$u20$as$u20$syn..token..Token$GT$4peek17h02f104e1d9e561e9E', symObjAddr: 0x3F90, symBinAddr: 0xDBDA0, symSize: 0x20 }
  - { offsetInCU: 0x2683, offset: 0x4684BC, size: 0x8, addend: 0x0, symName: '__ZN53_$LT$syn..token..Try$u20$as$u20$syn..token..Token$GT$4peek17had59752cb32497b6E', symObjAddr: 0x40B0, symBinAddr: 0xDBDC0, symSize: 0x20 }
  - { offsetInCU: 0x26BA, offset: 0x4684F3, size: 0x8, addend: 0x0, symName: '__ZN54_$LT$syn..token..Type$u20$as$u20$syn..token..Token$GT$4peek17hd609b66210c77b34E', symObjAddr: 0x41D0, symBinAddr: 0xDBDE0, symSize: 0x20 }
  - { offsetInCU: 0x26F1, offset: 0x46852A, size: 0x8, addend: 0x0, symName: '__ZN55_$LT$syn..token..Union$u20$as$u20$syn..token..Token$GT$4peek17h95e4cdd0419c4cc2E', symObjAddr: 0x4410, symBinAddr: 0xDBE00, symSize: 0x20 }
  - { offsetInCU: 0x2755, offset: 0x46858E, size: 0x8, addend: 0x0, symName: '__ZN56_$LT$syn..token..Unsafe$u20$as$u20$syn..parse..Parse$GT$5parse17hba2df29f6bec55cdE', symObjAddr: 0x44D0, symBinAddr: 0xDBE20, symSize: 0x60 }
  - { offsetInCU: 0x27DD, offset: 0x468616, size: 0x8, addend: 0x0, symName: '__ZN56_$LT$syn..token..Unsafe$u20$as$u20$syn..token..Token$GT$4peek17h5bb5d41f3ab3faf1E', symObjAddr: 0x4530, symBinAddr: 0xDBE80, symSize: 0x20 }
  - { offsetInCU: 0x2814, offset: 0x46864D, size: 0x8, addend: 0x0, symName: '__ZN53_$LT$syn..token..Use$u20$as$u20$syn..token..Token$GT$4peek17hb629dd0a0c930e39E', symObjAddr: 0x4770, symBinAddr: 0xDBEA0, symSize: 0x20 }
  - { offsetInCU: 0x28A5, offset: 0x4686DE, size: 0x8, addend: 0x0, symName: '__ZN53_$LT$syn..token..And$u20$as$u20$syn..parse..Parse$GT$5parse17h5b38fc9651d95e98E', symObjAddr: 0x4C40, symBinAddr: 0xDBEC0, symSize: 0x50 }
  - { offsetInCU: 0x2908, offset: 0x468741, size: 0x8, addend: 0x0, symName: '__ZN53_$LT$syn..token..And$u20$as$u20$syn..token..Token$GT$4peek17h977f39081b12fb5aE', symObjAddr: 0x4C90, symBinAddr: 0xDBF10, symSize: 0x20 }
  - { offsetInCU: 0x293F, offset: 0x468778, size: 0x8, addend: 0x0, symName: '__ZN55_$LT$syn..token..Caret$u20$as$u20$syn..parse..Parse$GT$5parse17h985441110bef27beE', symObjAddr: 0x4EC0, symBinAddr: 0xDBF30, symSize: 0x50 }
  - { offsetInCU: 0x29CF, offset: 0x468808, size: 0x8, addend: 0x0, symName: '__ZN55_$LT$syn..token..Colon$u20$as$u20$syn..parse..Parse$GT$5parse17hb173b91a971bef7cE', symObjAddr: 0x5000, symBinAddr: 0xDBF80, symSize: 0x50 }
  - { offsetInCU: 0x2A32, offset: 0x46886B, size: 0x8, addend: 0x0, symName: '__ZN55_$LT$syn..token..Colon$u20$as$u20$syn..token..Token$GT$4peek17hda082e4f86b2eba7E', symObjAddr: 0x5050, symBinAddr: 0xDBFD0, symSize: 0x20 }
  - { offsetInCU: 0x2A69, offset: 0x4688A2, size: 0x8, addend: 0x0, symName: '__ZN55_$LT$syn..token..Comma$u20$as$u20$syn..parse..Parse$GT$5parse17hd6bc62bc2c71a22aE', symObjAddr: 0x50A0, symBinAddr: 0xDBFF0, symSize: 0x50 }
  - { offsetInCU: 0x2ACC, offset: 0x468905, size: 0x8, addend: 0x0, symName: '__ZN55_$LT$syn..token..Comma$u20$as$u20$syn..token..Token$GT$4peek17h35a333ecf294aee4E', symObjAddr: 0x50F0, symBinAddr: 0xDC040, symSize: 0x20 }
  - { offsetInCU: 0x2B30, offset: 0x468969, size: 0x8, addend: 0x0, symName: '__ZN53_$LT$syn..token..Dot$u20$as$u20$syn..token..Token$GT$4peek17h6d86fbdab90dfe7fE', symObjAddr: 0x5230, symBinAddr: 0xDC060, symSize: 0x20 }
  - { offsetInCU: 0x2B94, offset: 0x4689CD, size: 0x8, addend: 0x0, symName: '__ZN56_$LT$syn..token..DotDot$u20$as$u20$syn..token..Token$GT$4peek17hd3bd5b93702b4330E', symObjAddr: 0x52D0, symBinAddr: 0xDC080, symSize: 0x20 }
  - { offsetInCU: 0x2BCB, offset: 0x468A04, size: 0x8, addend: 0x0, symName: '__ZN59_$LT$syn..token..DotDotDot$u20$as$u20$syn..token..Token$GT$4peek17hb44c133be230bd96E', symObjAddr: 0x5390, symBinAddr: 0xDC0A0, symSize: 0x20 }
  - { offsetInCU: 0x2C02, offset: 0x468A3B, size: 0x8, addend: 0x0, symName: '__ZN58_$LT$syn..token..DotDotEq$u20$as$u20$syn..token..Token$GT$4peek17h2fee0dc9b1a6aabeE', symObjAddr: 0x5450, symBinAddr: 0xDC0C0, symSize: 0x20 }
  - { offsetInCU: 0x2C66, offset: 0x468A9F, size: 0x8, addend: 0x0, symName: '__ZN52_$LT$syn..token..Eq$u20$as$u20$syn..parse..Parse$GT$5parse17h9bd44d98b4fba545E', symObjAddr: 0x54A0, symBinAddr: 0xDC0E0, symSize: 0x50 }
  - { offsetInCU: 0x2CC9, offset: 0x468B02, size: 0x8, addend: 0x0, symName: '__ZN52_$LT$syn..token..Eq$u20$as$u20$syn..token..Token$GT$4peek17hfd0450a878fd20a5E', symObjAddr: 0x54F0, symBinAddr: 0xDC130, symSize: 0x20 }
  - { offsetInCU: 0x2D00, offset: 0x468B39, size: 0x8, addend: 0x0, symName: '__ZN52_$LT$syn..token..Gt$u20$as$u20$syn..parse..Parse$GT$5parse17h280d30dfd0ec0e88E', symObjAddr: 0x5720, symBinAddr: 0xDC150, symSize: 0x50 }
  - { offsetInCU: 0x2D63, offset: 0x468B9C, size: 0x8, addend: 0x0, symName: '__ZN52_$LT$syn..token..Gt$u20$as$u20$syn..token..Token$GT$4peek17hbf38b1119d014050E', symObjAddr: 0x5770, symBinAddr: 0xDC1A0, symSize: 0x20 }
  - { offsetInCU: 0x2D9A, offset: 0x468BD3, size: 0x8, addend: 0x0, symName: '__ZN52_$LT$syn..token..Lt$u20$as$u20$syn..parse..Parse$GT$5parse17he341b95b06e78275E', symObjAddr: 0x5900, symBinAddr: 0xDC1C0, symSize: 0x50 }
  - { offsetInCU: 0x2DFD, offset: 0x468C36, size: 0x8, addend: 0x0, symName: '__ZN52_$LT$syn..token..Lt$u20$as$u20$syn..token..Token$GT$4peek17h5fc3809859b7b5faE', symObjAddr: 0x5950, symBinAddr: 0xDC210, symSize: 0x20 }
  - { offsetInCU: 0x2E34, offset: 0x468C6D, size: 0x8, addend: 0x0, symName: '__ZN55_$LT$syn..token..Minus$u20$as$u20$syn..parse..Parse$GT$5parse17h477a6d776dd7b43dE', symObjAddr: 0x59A0, symBinAddr: 0xDC230, symSize: 0x50 }
  - { offsetInCU: 0x2EC4, offset: 0x468CFD, size: 0x8, addend: 0x0, symName: '__ZN53_$LT$syn..token..Not$u20$as$u20$syn..parse..Parse$GT$5parse17hed95949511af2130E', symObjAddr: 0x5B80, symBinAddr: 0xDC280, symSize: 0x50 }
  - { offsetInCU: 0x2F27, offset: 0x468D60, size: 0x8, addend: 0x0, symName: '__ZN53_$LT$syn..token..Not$u20$as$u20$syn..token..Token$GT$4peek17hc7242dbe39d2cc52E', symObjAddr: 0x5BD0, symBinAddr: 0xDC2D0, symSize: 0x20 }
  - { offsetInCU: 0x2F5E, offset: 0x468D97, size: 0x8, addend: 0x0, symName: '__ZN52_$LT$syn..token..Or$u20$as$u20$syn..parse..Parse$GT$5parse17h9e4bc6c60c89d717E', symObjAddr: 0x5C20, symBinAddr: 0xDC2F0, symSize: 0x50 }
  - { offsetInCU: 0x2FC1, offset: 0x468DFA, size: 0x8, addend: 0x0, symName: '__ZN52_$LT$syn..token..Or$u20$as$u20$syn..token..Token$GT$4peek17hab4246a0272ea64dE', symObjAddr: 0x5C70, symBinAddr: 0xDC340, symSize: 0x20 }
  - { offsetInCU: 0x2FF8, offset: 0x468E31, size: 0x8, addend: 0x0, symName: '__ZN57_$LT$syn..token..PathSep$u20$as$u20$syn..token..Token$GT$4peek17ha2b30e581acdbebaE', symObjAddr: 0x5E50, symBinAddr: 0xDC360, symSize: 0x20 }
  - { offsetInCU: 0x302F, offset: 0x468E68, size: 0x8, addend: 0x0, symName: '__ZN57_$LT$syn..token..Percent$u20$as$u20$syn..parse..Parse$GT$5parse17h011c51e35c593cf7E', symObjAddr: 0x5EA0, symBinAddr: 0xDC380, symSize: 0x50 }
  - { offsetInCU: 0x3092, offset: 0x468ECB, size: 0x8, addend: 0x0, symName: '__ZN54_$LT$syn..token..Plus$u20$as$u20$syn..parse..Parse$GT$5parse17hedad1693d91826e0E', symObjAddr: 0x5FE0, symBinAddr: 0xDC3D0, symSize: 0x50 }
  - { offsetInCU: 0x3122, offset: 0x468F5B, size: 0x8, addend: 0x0, symName: '__ZN55_$LT$syn..token..Pound$u20$as$u20$syn..token..Token$GT$4peek17hd045620e0630b5b3E', symObjAddr: 0x6170, symBinAddr: 0xDC420, symSize: 0x20 }
  - { offsetInCU: 0x3186, offset: 0x468FBF, size: 0x8, addend: 0x0, symName: '__ZN58_$LT$syn..token..Question$u20$as$u20$syn..token..Token$GT$4peek17h40ab090367cab48aE', symObjAddr: 0x6210, symBinAddr: 0xDC440, symSize: 0x20 }
  - { offsetInCU: 0x31EA, offset: 0x469023, size: 0x8, addend: 0x0, symName: '__ZN54_$LT$syn..token..Semi$u20$as$u20$syn..parse..Parse$GT$5parse17h5db424d26dfe3d07E', symObjAddr: 0x6300, symBinAddr: 0xDC460, symSize: 0x50 }
  - { offsetInCU: 0x324D, offset: 0x469086, size: 0x8, addend: 0x0, symName: '__ZN54_$LT$syn..token..Semi$u20$as$u20$syn..token..Token$GT$4peek17h5a07d3e2a049fb01E', symObjAddr: 0x6350, symBinAddr: 0xDC4B0, symSize: 0x20 }
  - { offsetInCU: 0x3284, offset: 0x4690BD, size: 0x8, addend: 0x0, symName: '__ZN55_$LT$syn..token..ShlEq$u20$as$u20$syn..parse..Parse$GT$5parse17h0c287701508b04adE', symObjAddr: 0x6440, symBinAddr: 0xDC4D0, symSize: 0x70 }
  - { offsetInCU: 0x333A, offset: 0x469173, size: 0x8, addend: 0x0, symName: '__ZN55_$LT$syn..token..ShrEq$u20$as$u20$syn..parse..Parse$GT$5parse17h2537afed55ecadcaE', symObjAddr: 0x65A0, symBinAddr: 0xDC540, symSize: 0x70 }
  - { offsetInCU: 0x33F0, offset: 0x469229, size: 0x8, addend: 0x0, symName: '__ZN55_$LT$syn..token..Slash$u20$as$u20$syn..parse..Parse$GT$5parse17hd6cbb0af0be5e420E', symObjAddr: 0x6660, symBinAddr: 0xDC5B0, symSize: 0x50 }
  - { offsetInCU: 0x3453, offset: 0x46928C, size: 0x8, addend: 0x0, symName: '__ZN54_$LT$syn..token..Star$u20$as$u20$syn..parse..Parse$GT$5parse17hd453253e4a2951caE', symObjAddr: 0x67A0, symBinAddr: 0xDC600, symSize: 0x50 }
  - { offsetInCU: 0x34B6, offset: 0x4692EF, size: 0x8, addend: 0x0, symName: '__ZN54_$LT$syn..token..Star$u20$as$u20$syn..token..Token$GT$4peek17h0f086c1ea8af6077E', symObjAddr: 0x67F0, symBinAddr: 0xDC650, symSize: 0x20 }
  - { offsetInCU: 0xA219, offset: 0x470052, size: 0x8, addend: 0x0, symName: '__ZN4core3ptr45drop_in_place$LT$proc_macro2..TokenStream$GT$17h3405f6c513e9f6cbE.llvm.7833956513218213385', symObjAddr: 0x730, symBinAddr: 0xDB140, symSize: 0x140 }
  - { offsetInCU: 0xFBA0, offset: 0x4759D9, size: 0x8, addend: 0x0, symName: __ZN3syn5token5Group8surround17hfbe81a72805f5875E, symObjAddr: 0xDC0, symBinAddr: 0xDB4D0, symSize: 0x120 }
  - { offsetInCU: 0xFE34, offset: 0x475C6D, size: 0x8, addend: 0x0, symName: __ZN3syn5token5Brace8surround17h1609b6061f8050acE, symObjAddr: 0x72E0, symBinAddr: 0xDC670, symSize: 0x1A0 }
  - { offsetInCU: 0x1034B, offset: 0x476184, size: 0x8, addend: 0x0, symName: __ZN3syn5token5Brace8surround17h1616ad3374cfb32bE, symObjAddr: 0x7480, symBinAddr: 0xDC810, symSize: 0x250 }
  - { offsetInCU: 0x107F1, offset: 0x47662A, size: 0x8, addend: 0x0, symName: __ZN3syn5token5Brace8surround17h1d2920be538b3d67E, symObjAddr: 0x76D0, symBinAddr: 0xDCA60, symSize: 0x230 }
  - { offsetInCU: 0x10C40, offset: 0x476A79, size: 0x8, addend: 0x0, symName: __ZN3syn5token5Brace8surround17h2f7384e739db3158E, symObjAddr: 0x7900, symBinAddr: 0xDCC90, symSize: 0x250 }
  - { offsetInCU: 0x110D9, offset: 0x476F12, size: 0x8, addend: 0x0, symName: __ZN3syn5token5Brace8surround17h3cea1965078b46e8E, symObjAddr: 0x7B50, symBinAddr: 0xDCEE0, symSize: 0x230 }
  - { offsetInCU: 0x11611, offset: 0x47744A, size: 0x8, addend: 0x0, symName: __ZN3syn5token5Brace8surround17h44f34f1ab411b35eE, symObjAddr: 0x7D80, symBinAddr: 0xDD110, symSize: 0x150 }
  - { offsetInCU: 0x118FB, offset: 0x477734, size: 0x8, addend: 0x0, symName: __ZN3syn5token5Brace8surround17h4f53dfd33b0aa4c6E, symObjAddr: 0x7ED0, symBinAddr: 0xDD260, symSize: 0x230 }
  - { offsetInCU: 0x11E40, offset: 0x477C79, size: 0x8, addend: 0x0, symName: __ZN3syn5token5Brace8surround17h658cc35944b0b219E, symObjAddr: 0x8100, symBinAddr: 0xDD490, symSize: 0x130 }
  - { offsetInCU: 0x12083, offset: 0x477EBC, size: 0x8, addend: 0x0, symName: __ZN3syn5token5Brace8surround17h67ec14ac595125f5E, symObjAddr: 0x8230, symBinAddr: 0xDD5C0, symSize: 0x460 }
  - { offsetInCU: 0x12CB8, offset: 0x478AF1, size: 0x8, addend: 0x0, symName: __ZN3syn5token5Brace8surround17h830f66792d95d6a1E, symObjAddr: 0x8690, symBinAddr: 0xDDA20, symSize: 0x190 }
  - { offsetInCU: 0x12F52, offset: 0x478D8B, size: 0x8, addend: 0x0, symName: __ZN3syn5token5Brace8surround17h93d6e9c0e4ef6056E, symObjAddr: 0x8820, symBinAddr: 0xDDBB0, symSize: 0x0 }
  - { offsetInCU: 0x13486, offset: 0x4792BF, size: 0x8, addend: 0x0, symName: __ZN3syn5token5Brace8surround17h9a2e80ca99906d35E, symObjAddr: 0x8A50, symBinAddr: 0xDDDE0, symSize: 0x0 }
  - { offsetInCU: 0x13724, offset: 0x47955D, size: 0x8, addend: 0x0, symName: __ZN3syn5token5Brace8surround17hb0c8276345dde1c2E, symObjAddr: 0x8BD0, symBinAddr: 0xDDF60, symSize: 0x1B0 }
  - { offsetInCU: 0x13C17, offset: 0x479A50, size: 0x8, addend: 0x0, symName: __ZN3syn5token5Brace8surround17hb63569a8d18b567dE, symObjAddr: 0x8D80, symBinAddr: 0xDE110, symSize: 0x230 }
  - { offsetInCU: 0x140A7, offset: 0x479EE0, size: 0x8, addend: 0x0, symName: __ZN3syn5token5Brace8surround17hc53934dc4c14330eE, symObjAddr: 0x8FB0, symBinAddr: 0xDE340, symSize: 0x460 }
  - { offsetInCU: 0x14AAA, offset: 0x47A8E3, size: 0x8, addend: 0x0, symName: __ZN3syn5token5Brace8surround17hd5a84cf97badd42dE, symObjAddr: 0x9410, symBinAddr: 0xDE7A0, symSize: 0x230 }
  - { offsetInCU: 0x14FEF, offset: 0x47AE28, size: 0x8, addend: 0x0, symName: __ZN3syn5token5Brace8surround17hd63b1effe05f3546E, symObjAddr: 0x9640, symBinAddr: 0xDE9D0, symSize: 0x250 }
  - { offsetInCU: 0x15488, offset: 0x47B2C1, size: 0x8, addend: 0x0, symName: __ZN3syn5token5Brace8surround17hdb4abaf7d4aba6dfE, symObjAddr: 0x9890, symBinAddr: 0xDEC20, symSize: 0x230 }
  - { offsetInCU: 0x1591F, offset: 0x47B758, size: 0x8, addend: 0x0, symName: __ZN3syn5token5Brace8surround17hdca5a0a12cc0e09cE, symObjAddr: 0x9AC0, symBinAddr: 0xDEE50, symSize: 0x250 }
  - { offsetInCU: 0x15E30, offset: 0x47BC69, size: 0x8, addend: 0x0, symName: __ZN3syn5token5Brace8surround17he90b59b4e7ee997dE, symObjAddr: 0x9D10, symBinAddr: 0xDF0A0, symSize: 0x170 }
  - { offsetInCU: 0x160E6, offset: 0x47BF1F, size: 0x8, addend: 0x0, symName: __ZN3syn5token5Brace8surround17hecd06f1637cbfb86E, symObjAddr: 0x9E80, symBinAddr: 0xDF210, symSize: 0x230 }
  - { offsetInCU: 0x16707, offset: 0x47C540, size: 0x8, addend: 0x0, symName: __ZN3syn5token5Brace8surround17hf04846c82ffc2b75E, symObjAddr: 0xA0B0, symBinAddr: 0xDF440, symSize: 0x280 }
  - { offsetInCU: 0x16C89, offset: 0x47CAC2, size: 0x8, addend: 0x0, symName: __ZN3syn5token7Bracket8surround17h156a64f8715fd9d7E, symObjAddr: 0xA350, symBinAddr: 0xDF6C0, symSize: 0x190 }
  - { offsetInCU: 0x16EE0, offset: 0x47CD19, size: 0x8, addend: 0x0, symName: __ZN3syn5token7Bracket8surround17h3268c628a093763bE, symObjAddr: 0xA4E0, symBinAddr: 0xDF850, symSize: 0x160 }
  - { offsetInCU: 0x17153, offset: 0x47CF8C, size: 0x8, addend: 0x0, symName: __ZN3syn5token7Bracket8surround17h59b80e5c4f1e2536E, symObjAddr: 0xA640, symBinAddr: 0xDF9B0, symSize: 0x1A0 }
  - { offsetInCU: 0x17627, offset: 0x47D460, size: 0x8, addend: 0x0, symName: __ZN3syn5token7Bracket8surround17h666da6b44b8f2314E, symObjAddr: 0xA7E0, symBinAddr: 0xDFB50, symSize: 0x130 }
  - { offsetInCU: 0x17859, offset: 0x47D692, size: 0x8, addend: 0x0, symName: __ZN3syn5token7Bracket8surround17he461d4c5258c6ed9E, symObjAddr: 0xAAB0, symBinAddr: 0xDFC80, symSize: 0x130 }
  - { offsetInCU: 0x17A62, offset: 0x47D89B, size: 0x8, addend: 0x0, symName: __ZN3syn5token7Bracket8surround17hf2f56b7ec8e6cdfdE, symObjAddr: 0xABE0, symBinAddr: 0xDFDB0, symSize: 0x150 }
  - { offsetInCU: 0x17D93, offset: 0x47DBCC, size: 0x8, addend: 0x0, symName: __ZN3syn5token5Paren8surround17h149d374eeacaaaf0E, symObjAddr: 0xAE80, symBinAddr: 0xDFF00, symSize: 0x360 }
  - { offsetInCU: 0x18748, offset: 0x47E581, size: 0x8, addend: 0x0, symName: __ZN3syn5token5Paren8surround17h17edd0d0ba5e5361E, symObjAddr: 0xB1E0, symBinAddr: 0xE0260, symSize: 0x160 }
  - { offsetInCU: 0x18A7A, offset: 0x47E8B3, size: 0x8, addend: 0x0, symName: __ZN3syn5token5Paren8surround17h2a820c17fc4ce3a7E, symObjAddr: 0xB340, symBinAddr: 0xE03C0, symSize: 0x210 }
  - { offsetInCU: 0x18FDC, offset: 0x47EE15, size: 0x8, addend: 0x0, symName: __ZN3syn5token5Paren8surround17h618017ebbb591ce6E, symObjAddr: 0xB550, symBinAddr: 0xE05D0, symSize: 0x1A0 }
  - { offsetInCU: 0x19537, offset: 0x47F370, size: 0x8, addend: 0x0, symName: __ZN3syn5token5Paren8surround17haf0fe92dddd4f436E, symObjAddr: 0xB930, symBinAddr: 0xE0770, symSize: 0x210 }
  - { offsetInCU: 0x19A94, offset: 0x47F8CD, size: 0x8, addend: 0x0, symName: __ZN3syn5token5Paren8surround17hb26de38efb8247a2E, symObjAddr: 0xBB40, symBinAddr: 0xE0980, symSize: 0x130 }
  - { offsetInCU: 0x19C6B, offset: 0x47FAA4, size: 0x8, addend: 0x0, symName: __ZN3syn5token5Paren8surround17hb614c327a7c4effbE, symObjAddr: 0xBC70, symBinAddr: 0xE0AB0, symSize: 0x130 }
  - { offsetInCU: 0x19E6F, offset: 0x47FCA8, size: 0x8, addend: 0x0, symName: __ZN3syn5token5Paren8surround17hb72c32fa2faca43dE, symObjAddr: 0xBDA0, symBinAddr: 0xE0BE0, symSize: 0x120 }
  - { offsetInCU: 0x1A078, offset: 0x47FEB1, size: 0x8, addend: 0x0, symName: __ZN3syn5token5Paren8surround17hbc9cea44f84e7c35E, symObjAddr: 0xBEC0, symBinAddr: 0xE0D00, symSize: 0x460 }
  - { offsetInCU: 0x1AA7B, offset: 0x4808B4, size: 0x8, addend: 0x0, symName: __ZN3syn5token5Paren8surround17hbe460fe33e1b9807E, symObjAddr: 0xC320, symBinAddr: 0xE1160, symSize: 0x1A0 }
  - { offsetInCU: 0x1AF51, offset: 0x480D8A, size: 0x8, addend: 0x0, symName: __ZN3syn5token5Paren8surround17hd6561f4009004b42E, symObjAddr: 0xC660, symBinAddr: 0xE1300, symSize: 0x120 }
  - { offsetInCU: 0x1B15A, offset: 0x480F93, size: 0x8, addend: 0x0, symName: __ZN3syn5token5Paren8surround17he038d9e0318c7237E, symObjAddr: 0xC780, symBinAddr: 0xE1420, symSize: 0x1A0 }
  - { offsetInCU: 0x1B6E1, offset: 0x48151A, size: 0x8, addend: 0x0, symName: __ZN3syn5token5Paren8surround17he1dbac95a537a101E, symObjAddr: 0xC920, symBinAddr: 0xE15C0, symSize: 0x230 }
  - { offsetInCU: 0x1BEE5, offset: 0x481D1E, size: 0x8, addend: 0x0, symName: __ZN3syn5token5Paren8surround17he21459b4274789cfE, symObjAddr: 0xCB50, symBinAddr: 0xE17F0, symSize: 0x27B0 }
  - { offsetInCU: 0x219CA, offset: 0x487803, size: 0x8, addend: 0x0, symName: __ZN3syn5token5Paren8surround17hf739ea3e87afa242E, symObjAddr: 0xF300, symBinAddr: 0xE3FA0, symSize: 0x260 }
  - { offsetInCU: 0x2209E, offset: 0x487ED7, size: 0x8, addend: 0x0, symName: __ZN3syn5token5Paren8surround17hfdecddc10755409eE, symObjAddr: 0xF560, symBinAddr: 0xE4200, symSize: 0x18F }
  - { offsetInCU: 0x137A, offset: 0x490B7E, size: 0x8, addend: 0x0, symName: '__ZN77_$LT$$RF$$u5b$syn..attr..Attribute$u5d$$u20$as$u20$syn..attr..FilterAttrs$GT$5outer8is_outer17h05806f843d7deec4E.llvm.6340778183057508401', symObjAddr: 0x7D20, symBinAddr: 0xEB630, symSize: 0x20 }
  - { offsetInCU: 0x2116, offset: 0x49191A, size: 0x8, addend: 0x0, symName: '__ZN3syn2ty8printing78_$LT$impl$u20$quote..to_tokens..ToTokens$u20$for$u20$syn..ty..BareVariadic$GT$9to_tokens17ha9341a662464f4c2E', symObjAddr: 0xBF20, symBinAddr: 0xED970, symSize: 0x150 }
  - { offsetInCU: 0x23C8, offset: 0x491BCC, size: 0x8, addend: 0x0, symName: '__ZN3syn2ty7parsing61_$LT$impl$u20$syn..parse..Parse$u20$for$u20$syn..ty..Type$GT$5parse17h889cc5bfbc020ab2E', symObjAddr: 0x7D40, symBinAddr: 0xEB650, symSize: 0x30 }
  - { offsetInCU: 0x244E, offset: 0x491C52, size: 0x8, addend: 0x0, symName: '__ZN3syn2ty7parsing64_$LT$impl$u20$syn..parse..Parse$u20$for$u20$syn..ty..TypePtr$GT$5parse17h812b205086cf1413E', symObjAddr: 0x85B0, symBinAddr: 0xEB680, symSize: 0x460 }
  - { offsetInCU: 0x3078, offset: 0x49287C, size: 0x8, addend: 0x0, symName: '__ZN3syn2ty7parsing70_$LT$impl$u20$syn..parse..Parse$u20$for$u20$syn..ty..TypeReference$GT$5parse17h328046432bc63490E', symObjAddr: 0x8A10, symBinAddr: 0xEBAE0, symSize: 0x3E0 }
  - { offsetInCU: 0x37FC, offset: 0x493000, size: 0x8, addend: 0x0, symName: '__ZN3syn2ty7parsing67_$LT$impl$u20$syn..parse..Parse$u20$for$u20$syn..ty..TypeBareFn$GT$5parse17h38aebc87a74f9b4cE', symObjAddr: 0x8DF0, symBinAddr: 0xEBEC0, symSize: 0xE10 }
  - { offsetInCU: 0x4AF3, offset: 0x4942F7, size: 0x8, addend: 0x0, symName: '__ZN3syn2ty7parsing66_$LT$impl$u20$syn..parse..Parse$u20$for$u20$syn..ty..TypeNever$GT$5parse17h5e83694d4dbbe60bE', symObjAddr: 0x9C00, symBinAddr: 0xECCD0, symSize: 0x50 }
  - { offsetInCU: 0x4BA1, offset: 0x4943A5, size: 0x8, addend: 0x0, symName: '__ZN3syn2ty7parsing72_$LT$impl$u20$syn..parse..Parse$u20$for$u20$syn..ty..TypeTraitObject$GT$5parse17h26a0300cf5800a6aE', symObjAddr: 0xA600, symBinAddr: 0xECEE0, symSize: 0x1B0 }
  - { offsetInCU: 0x51E4, offset: 0x4949E8, size: 0x8, addend: 0x0, symName: '__ZN3syn2ty7parsing66_$LT$impl$u20$syn..parse..Parse$u20$for$u20$syn..ty..TypeGroup$GT$5parse17h39a20901238debb2E', symObjAddr: 0xAFD0, symBinAddr: 0xED6D0, symSize: 0x2A0 }
  - { offsetInCU: 0x5763, offset: 0x494F67, size: 0x8, addend: 0x0, symName: '__ZN60_$LT$syn..ty..Type$u20$as$u20$quote..to_tokens..ToTokens$GT$9to_tokens17hb94ae3e2d75fc0b3E', symObjAddr: 0xC110, symBinAddr: 0xEDAC0, symSize: 0xA30 }
  - { offsetInCU: 0x9B2A, offset: 0x49932E, size: 0x8, addend: 0x0, symName: '__ZN3syn3gen5clone67_$LT$impl$u20$core..clone..Clone$u20$for$u20$syn..ty..BareFnArg$GT$5clone17hbf21853b379f8c0dE', symObjAddr: 0xCB70, symBinAddr: 0xEE4F0, symSize: 0x140 }
  - { offsetInCU: 0x9FD4, offset: 0x4997D8, size: 0x8, addend: 0x0, symName: '__ZN3syn3gen5clone62_$LT$impl$u20$core..clone..Clone$u20$for$u20$syn..ty..Type$GT$5clone17h43a77bdbcaae263dE', symObjAddr: 0xCE20, symBinAddr: 0xEE630, symSize: 0x8C0 }
  - { offsetInCU: 0xBA6F, offset: 0x49B273, size: 0x8, addend: 0x0, symName: '__ZN3syn3gen5clone68_$LT$impl$u20$core..clone..Clone$u20$for$u20$syn..ty..TypeBareFn$GT$5clone17h442a28b9c76fb2abE', symObjAddr: 0xD7F0, symBinAddr: 0xEEEF0, symSize: 0x490 }
  - { offsetInCU: 0xEA09, offset: 0x49E20D, size: 0x8, addend: 0x0, symName: '__ZN4core3ptr100drop_in_place$LT$core..option..Option$LT$alloc..boxed..Box$LT$syn..path..GenericArgument$GT$$GT$$GT$17h7435c9de74860622E', symObjAddr: 0x150, symBinAddr: 0xE4390, symSize: 0x50 }
  - { offsetInCU: 0xEDA9, offset: 0x49E5AD, size: 0x8, addend: 0x0, symName: '__ZN4core3ptr100drop_in_place$LT$syn..punctuated..Punctuated$LT$syn..path..PathSegment$C$syn..token..PathSep$GT$$GT$17hf414cb3581f8337aE', symObjAddr: 0x1A0, symBinAddr: 0xE43E0, symSize: 0x260 }
  - { offsetInCU: 0xF742, offset: 0x49EF46, size: 0x8, addend: 0x0, symName: '__ZN4core3ptr103drop_in_place$LT$core..option..Option$LT$alloc..boxed..Box$LT$syn..generics..TypeParamBound$GT$$GT$$GT$17h5974f03e36b1a9c3E', symObjAddr: 0x400, symBinAddr: 0xE4640, symSize: 0x50 }
  - { offsetInCU: 0xF94F, offset: 0x49F153, size: 0x8, addend: 0x0, symName: '__ZN4core3ptr103drop_in_place$LT$syn..punctuated..Punctuated$LT$syn..generics..GenericParam$C$syn..token..Comma$GT$$GT$17hf42353fa44ed6da8E', symObjAddr: 0x450, symBinAddr: 0xE4690, symSize: 0xF0 }
  - { offsetInCU: 0xFE12, offset: 0x49F616, size: 0x8, addend: 0x0, symName: '__ZN4core3ptr104drop_in_place$LT$syn..punctuated..Punctuated$LT$syn..generics..TypeParamBound$C$syn..token..Plus$GT$$GT$17h532f52c4a894b056E', symObjAddr: 0x540, symBinAddr: 0xE4780, symSize: 0x190 }
  - { offsetInCU: 0x10485, offset: 0x49FC89, size: 0x8, addend: 0x0, symName: '__ZN4core3ptr34drop_in_place$LT$syn..lit..Lit$GT$17h8902f5ff67917034E', symObjAddr: 0x6D0, symBinAddr: 0xE4910, symSize: 0x110 }
  - { offsetInCU: 0x109DE, offset: 0x4A01E2, size: 0x8, addend: 0x0, symName: '__ZN4core3ptr34drop_in_place$LT$syn..pat..Pat$GT$17h4581eea028ec0969E', symObjAddr: 0x7E0, symBinAddr: 0xE4A20, symSize: 0x1000 }
  - { offsetInCU: 0x14503, offset: 0x4A3D07, size: 0x8, addend: 0x0, symName: '__ZN4core3ptr34drop_in_place$LT$syn..ty..Type$GT$17h369e41ad4a9f1ae0E.llvm.6340778183057508401', symObjAddr: 0x17E0, symBinAddr: 0xE5A20, symSize: 0x500 }
  - { offsetInCU: 0x15A6C, offset: 0x4A5270, size: 0x8, addend: 0x0, symName: '__ZN4core3ptr36drop_in_place$LT$syn..expr..Expr$GT$17h0f7fd4c749bae801E', symObjAddr: 0x1CF0, symBinAddr: 0xE5F20, symSize: 0x28E0 }
  - { offsetInCU: 0x1EEFE, offset: 0x4AE702, size: 0x8, addend: 0x0, symName: '__ZN4core3ptr36drop_in_place$LT$syn..mac..Macro$GT$17h4ffde962df30ebe2E', symObjAddr: 0x45D0, symBinAddr: 0xE8800, symSize: 0x40 }
  - { offsetInCU: 0x1EF38, offset: 0x4AE73C, size: 0x8, addend: 0x0, symName: '__ZN4core3ptr36drop_in_place$LT$syn..path..Path$GT$17habea856181211e1cE', symObjAddr: 0x4610, symBinAddr: 0xE8840, symSize: 0x220 }
  - { offsetInCU: 0x1F86D, offset: 0x4AF071, size: 0x8, addend: 0x0, symName: '__ZN4core3ptr37drop_in_place$LT$syn..stmt..Block$GT$17hcc21a21cf949414cE', symObjAddr: 0x4840, symBinAddr: 0xE8A60, symSize: 0xD0 }
  - { offsetInCU: 0x1FB11, offset: 0x4AF315, size: 0x8, addend: 0x0, symName: '__ZN4core3ptr38drop_in_place$LT$syn..expr..Member$GT$17h022cbe5553aa40faE', symObjAddr: 0x4910, symBinAddr: 0xE8B30, symSize: 0x30 }
  - { offsetInCU: 0x1FCA9, offset: 0x4AF4AD, size: 0x8, addend: 0x0, symName: '__ZN4core3ptr38drop_in_place$LT$syn..group..Group$GT$17hc3a29a397b30f633E.llvm.6340778183057508401', symObjAddr: 0x4940, symBinAddr: 0xE8B60, symSize: 0x70 }
  - { offsetInCU: 0x1FFBF, offset: 0x4AF7C3, size: 0x8, addend: 0x0, symName: '__ZN4core3ptr39drop_in_place$LT$proc_macro2..Ident$GT$17h8101e88c3ac359d6E', symObjAddr: 0x49B0, symBinAddr: 0xE8BD0, symSize: 0x30 }
  - { offsetInCU: 0x2009D, offset: 0x4AF8A1, size: 0x8, addend: 0x0, symName: '__ZN4core3ptr40drop_in_place$LT$syn..ty..ReturnType$GT$17h02cf41e2fec63d90E', symObjAddr: 0x49E0, symBinAddr: 0xE8C00, symSize: 0x50 }
  - { offsetInCU: 0x2020F, offset: 0x4AFA13, size: 0x8, addend: 0x0, symName: '__ZN4core3ptr41drop_in_place$LT$syn..expr..ExprConst$GT$17h725a13e551d9f276E', symObjAddr: 0x4A30, symBinAddr: 0xE8C50, symSize: 0x180 }
  - { offsetInCU: 0x20764, offset: 0x4AFF68, size: 0x8, addend: 0x0, symName: '__ZN4core3ptr44drop_in_place$LT$syn..lifetime..Lifetime$GT$17hf0cdec2e9ec456d6E', symObjAddr: 0x4BB0, symBinAddr: 0xE8DD0, symSize: 0x30 }
  - { offsetInCU: 0x20861, offset: 0x4B0065, size: 0x8, addend: 0x0, symName: '__ZN4core3ptr44drop_in_place$LT$syn..parse..ParseBuffer$GT$17hd0dadba44a19aec2E', symObjAddr: 0x4BE0, symBinAddr: 0xE8E00, symSize: 0x70 }
  - { offsetInCU: 0x20C96, offset: 0x4B049A, size: 0x8, addend: 0x0, symName: '__ZN4core3ptr45drop_in_place$LT$proc_macro2..TokenStream$GT$17h3405f6c513e9f6cbE.llvm.6340778183057508401', symObjAddr: 0x4C50, symBinAddr: 0xE8E70, symSize: 0x140 }
  - { offsetInCU: 0x21105, offset: 0x4B0909, size: 0x8, addend: 0x0, symName: '__ZN4core3ptr45drop_in_place$LT$syn..generics..TypeParam$GT$17he5eda51070b7de47E', symObjAddr: 0x4D90, symBinAddr: 0xE8FB0, symSize: 0x230 }
  - { offsetInCU: 0x21901, offset: 0x4B1105, size: 0x8, addend: 0x0, symName: '__ZN4core3ptr46drop_in_place$LT$syn..generics..ConstParam$GT$17hab0a58c4af8c549cE', symObjAddr: 0x4FC0, symBinAddr: 0xE91E0, symSize: 0x150 }
  - { offsetInCU: 0x21D2B, offset: 0x4B152F, size: 0x8, addend: 0x0, symName: '__ZN4core3ptr47drop_in_place$LT$syn..path..GenericArgument$GT$17h54f8794633f96823E', symObjAddr: 0x5110, symBinAddr: 0xE9330, symSize: 0x4A0 }
  - { offsetInCU: 0x22DD2, offset: 0x4B25D6, size: 0x8, addend: 0x0, symName: '__ZN4core3ptr49drop_in_place$LT$syn..generics..LifetimeParam$GT$17h41a7c7a290ea6289E', symObjAddr: 0x55B0, symBinAddr: 0xE97D0, symSize: 0xF0 }
  - { offsetInCU: 0x2318C, offset: 0x4B2990, size: 0x8, addend: 0x0, symName: '__ZN4core3ptr50drop_in_place$LT$syn..generics..TypeParamBound$GT$17hcd7771d4c6c221efE', symObjAddr: 0x56A0, symBinAddr: 0xE98C0, symSize: 0x160 }
  - { offsetInCU: 0x235AC, offset: 0x4B2DB0, size: 0x8, addend: 0x0, symName: '__ZN4core3ptr58drop_in_place$LT$alloc..vec..Vec$LT$syn..expr..Arm$GT$$GT$17h1a55df3d2cba1daaE', symObjAddr: 0x5800, symBinAddr: 0xE9A20, symSize: 0xD0 }
  - { offsetInCU: 0x23839, offset: 0x4B303D, size: 0x8, addend: 0x0, symName: '__ZN4core3ptr59drop_in_place$LT$alloc..boxed..Box$LT$syn..pat..Pat$GT$$GT$17h563b135d87aca8abE', symObjAddr: 0x58D0, symBinAddr: 0xE9AF0, symSize: 0x50 }
  - { offsetInCU: 0x23994, offset: 0x4B3198, size: 0x8, addend: 0x0, symName: '__ZN4core3ptr59drop_in_place$LT$alloc..boxed..Box$LT$syn..ty..Type$GT$$GT$17hffed36bad83adacbE', symObjAddr: 0x5920, symBinAddr: 0xE9B40, symSize: 0x50 }
  - { offsetInCU: 0x23AEF, offset: 0x4B32F3, size: 0x8, addend: 0x0, symName: '__ZN4core3ptr61drop_in_place$LT$alloc..boxed..Box$LT$syn..expr..Expr$GT$$GT$17h01091e47f131475dE', symObjAddr: 0x5970, symBinAddr: 0xE9B90, symSize: 0x50 }
  - { offsetInCU: 0x23CC6, offset: 0x4B34CA, size: 0x8, addend: 0x0, symName: '__ZN4core3ptr61drop_in_place$LT$syn..path..ParenthesizedGenericArguments$GT$17h43d4aac5494326a7E', symObjAddr: 0x5A30, symBinAddr: 0xE9BE0, symSize: 0x170 }
  - { offsetInCU: 0x2428D, offset: 0x4B3A91, size: 0x8, addend: 0x0, symName: '__ZN4core3ptr62drop_in_place$LT$syn..path..AngleBracketedGenericArguments$GT$17hc5b69f68243636ddE', symObjAddr: 0x5BA0, symBinAddr: 0xE9D50, symSize: 0x120 }
  - { offsetInCU: 0x246A3, offset: 0x4B3EA7, size: 0x8, addend: 0x0, symName: '__ZN4core3ptr63drop_in_place$LT$alloc..boxed..Box$LT$syn..lit..LitRepr$GT$$GT$17hd8839b7fb35ee7afE', symObjAddr: 0x5CC0, symBinAddr: 0xE9E70, symSize: 0x60 }
  - { offsetInCU: 0x24998, offset: 0x4B419C, size: 0x8, addend: 0x0, symName: '__ZN4core3ptr64drop_in_place$LT$alloc..boxed..Box$LT$syn..pat..FieldPat$GT$$GT$17h4980b70a7597cc08E', symObjAddr: 0x5D20, symBinAddr: 0xE9ED0, symSize: 0x140 }
  - { offsetInCU: 0x25043, offset: 0x4B4847, size: 0x8, addend: 0x0, symName: '__ZN4core3ptr64drop_in_place$LT$alloc..boxed..Box$LT$syn..ty..BareFnArg$GT$$GT$17h8b34096c620314efE', symObjAddr: 0x5E60, symBinAddr: 0xEA010, symSize: 0x140 }
  - { offsetInCU: 0x25567, offset: 0x4B4D6B, size: 0x8, addend: 0x0, symName: '__ZN4core3ptr64drop_in_place$LT$alloc..vec..Vec$LT$syn..attr..Attribute$GT$$GT$17h3c8f2a04e701c675E.llvm.6340778183057508401', symObjAddr: 0x5FA0, symBinAddr: 0xEA150, symSize: 0xD0 }
  - { offsetInCU: 0x257F4, offset: 0x4B4FF8, size: 0x8, addend: 0x0, symName: '__ZN4core3ptr65drop_in_place$LT$core..option..Option$LT$syn..expr..Label$GT$$GT$17h78189e72a8cb7951E', symObjAddr: 0x6070, symBinAddr: 0xEA220, symSize: 0x30 }
  - { offsetInCU: 0x2592F, offset: 0x4B5133, size: 0x8, addend: 0x0, symName: '__ZN4core3ptr65drop_in_place$LT$core..option..Option$LT$syn..path..QSelf$GT$$GT$17h9b72552ca06b7379E', symObjAddr: 0x6100, symBinAddr: 0xEA250, symSize: 0x50 }
  - { offsetInCU: 0x25AC8, offset: 0x4B52CC, size: 0x8, addend: 0x0, symName: '__ZN4core3ptr66drop_in_place$LT$core..option..Option$LT$syn..pat..PatRest$GT$$GT$17h61677cf4ff3a7393E', symObjAddr: 0x6150, symBinAddr: 0xEA2A0, symSize: 0xE0 }
  - { offsetInCU: 0x25D4C, offset: 0x4B5550, size: 0x8, addend: 0x0, symName: '__ZN4core3ptr67drop_in_place$LT$alloc..boxed..Box$LT$syn..expr..FieldValue$GT$$GT$17h93aaccf8aa22ef88E', symObjAddr: 0x6230, symBinAddr: 0xEA380, symSize: 0x140 }
  - { offsetInCU: 0x26250, offset: 0x4B5A54, size: 0x8, addend: 0x0, symName: '__ZN4core3ptr68drop_in_place$LT$alloc..boxed..Box$LT$syn..path..PathSegment$GT$$GT$17h709dabdc13b58a71E', symObjAddr: 0x6370, symBinAddr: 0xEA4C0, symSize: 0x190 }
  - { offsetInCU: 0x2692E, offset: 0x4B6132, size: 0x8, addend: 0x0, symName: '__ZN4core3ptr70drop_in_place$LT$core..option..Option$LT$syn..ty..BareVariadic$GT$$GT$17h45399348ea4b8d55E', symObjAddr: 0x6500, symBinAddr: 0xEA650, symSize: 0x120 }
  - { offsetInCU: 0x26E5B, offset: 0x4B665F, size: 0x8, addend: 0x0, symName: '__ZN4core3ptr72drop_in_place$LT$alloc..boxed..Box$LT$syn..path..GenericArgument$GT$$GT$17haa7dd8b716637b54E', symObjAddr: 0x6620, symBinAddr: 0xEA770, symSize: 0x1D0 }
  - { offsetInCU: 0x273FE, offset: 0x4B6C02, size: 0x8, addend: 0x0, symName: '__ZN4core3ptr73drop_in_place$LT$alloc..boxed..Box$LT$syn..generics..GenericParam$GT$$GT$17hf6951dcd5ae07324E', symObjAddr: 0x67F0, symBinAddr: 0xEA940, symSize: 0x80 }
  - { offsetInCU: 0x27576, offset: 0x4B6D7A, size: 0x8, addend: 0x0, symName: '__ZN4core3ptr75drop_in_place$LT$alloc..boxed..Box$LT$syn..generics..TypeParamBound$GT$$GT$17he61c00698a311a34E', symObjAddr: 0x6870, symBinAddr: 0xEA9C0, symSize: 0xB0 }
  - { offsetInCU: 0x278D1, offset: 0x4B70D5, size: 0x8, addend: 0x0, symName: '__ZN4core3ptr86drop_in_place$LT$syn..punctuated..Punctuated$LT$syn..pat..Pat$C$syn..token..Or$GT$$GT$17h8e9173df21a44316E', symObjAddr: 0x6940, symBinAddr: 0xEAA70, symSize: 0x120 }
  - { offsetInCU: 0x27D17, offset: 0x4B751B, size: 0x8, addend: 0x0, symName: '__ZN4core3ptr87drop_in_place$LT$core..option..Option$LT$alloc..boxed..Box$LT$syn..pat..Pat$GT$$GT$$GT$17hd7b7c69f601b3926E', symObjAddr: 0x6A60, symBinAddr: 0xEAB90, symSize: 0x50 }
  - { offsetInCU: 0x27E89, offset: 0x4B768D, size: 0x8, addend: 0x0, symName: '__ZN4core3ptr87drop_in_place$LT$core..option..Option$LT$alloc..boxed..Box$LT$syn..ty..Type$GT$$GT$$GT$17hd74f5d971aec2972E', symObjAddr: 0x6AB0, symBinAddr: 0xEABE0, symSize: 0x50 }
  - { offsetInCU: 0x27FFB, offset: 0x4B77FF, size: 0x8, addend: 0x0, symName: '__ZN4core3ptr89drop_in_place$LT$core..option..Option$LT$alloc..boxed..Box$LT$syn..expr..Expr$GT$$GT$$GT$17h8e135ac1a25a2dc5E', symObjAddr: 0x6B00, symBinAddr: 0xEAC30, symSize: 0x50 }
  - { offsetInCU: 0x281AB, offset: 0x4B79AF, size: 0x8, addend: 0x0, symName: '__ZN4core3ptr89drop_in_place$LT$syn..punctuated..Punctuated$LT$syn..pat..Pat$C$syn..token..Comma$GT$$GT$17h8d60e47f3fb1f87aE', symObjAddr: 0x6B50, symBinAddr: 0xEAC80, symSize: 0x120 }
  - { offsetInCU: 0x28608, offset: 0x4B7E0C, size: 0x8, addend: 0x0, symName: '__ZN4core3ptr89drop_in_place$LT$syn..punctuated..Punctuated$LT$syn..ty..Type$C$syn..token..Comma$GT$$GT$17ha919b3114742fb9dE', symObjAddr: 0x6C70, symBinAddr: 0xEADA0, symSize: 0x120 }
  - { offsetInCU: 0x28A52, offset: 0x4B8256, size: 0x8, addend: 0x0, symName: '__ZN4core3ptr90drop_in_place$LT$core..option..Option$LT$syn..path..AngleBracketedGenericArguments$GT$$GT$17h80d9a5f0818c8bd9E', symObjAddr: 0x6D90, symBinAddr: 0xEAEC0, symSize: 0x130 }
  - { offsetInCU: 0x28EBD, offset: 0x4B86C1, size: 0x8, addend: 0x0, symName: '__ZN4core3ptr91drop_in_place$LT$syn..punctuated..Punctuated$LT$syn..expr..Expr$C$syn..token..Comma$GT$$GT$17h4f39b83dc86a4159E', symObjAddr: 0x6EC0, symBinAddr: 0xEAFF0, symSize: 0x120 }
  - { offsetInCU: 0x2931A, offset: 0x4B8B1E, size: 0x8, addend: 0x0, symName: '__ZN4core3ptr94drop_in_place$LT$syn..punctuated..Punctuated$LT$syn..pat..FieldPat$C$syn..token..Comma$GT$$GT$17h112950ea198c8281E', symObjAddr: 0x6FE0, symBinAddr: 0xEB110, symSize: 0xF0 }
  - { offsetInCU: 0x295E4, offset: 0x4B8DE8, size: 0x8, addend: 0x0, symName: '__ZN4core3ptr94drop_in_place$LT$syn..punctuated..Punctuated$LT$syn..ty..BareFnArg$C$syn..token..Comma$GT$$GT$17h1c7b44310f06243dE', symObjAddr: 0x70D0, symBinAddr: 0xEB200, symSize: 0xF0 }
  - { offsetInCU: 0x298AE, offset: 0x4B90B2, size: 0x8, addend: 0x0, symName: '__ZN4core3ptr95drop_in_place$LT$core..option..Option$LT$$LP$proc_macro2..Ident$C$syn..token..Colon$RP$$GT$$GT$17ha744bf0f41959716E.llvm.6340778183057508401', symObjAddr: 0x71C0, symBinAddr: 0xEB2F0, symSize: 0x30 }
  - { offsetInCU: 0x299CA, offset: 0x4B91CE, size: 0x8, addend: 0x0, symName: '__ZN4core3ptr96drop_in_place$LT$core..option..Option$LT$alloc..boxed..Box$LT$syn..path..PathSegment$GT$$GT$$GT$17hb447d0f626c86a4eE', symObjAddr: 0x71F0, symBinAddr: 0xEB320, symSize: 0x90 }
  - { offsetInCU: 0x29C4C, offset: 0x4B9450, size: 0x8, addend: 0x0, symName: '__ZN4core3ptr97drop_in_place$LT$syn..punctuated..Punctuated$LT$syn..expr..FieldValue$C$syn..token..Comma$GT$$GT$17h31b81f7462228dcbE', symObjAddr: 0x7280, symBinAddr: 0xEB3B0, symSize: 0xF0 }
  - { offsetInCU: 0x29F16, offset: 0x4B971A, size: 0x8, addend: 0x0, symName: '__ZN4core3ptr98drop_in_place$LT$alloc..vec..Vec$LT$$LP$syn..path..GenericArgument$C$syn..token..Comma$RP$$GT$$GT$17h0657ff261f33b640E', symObjAddr: 0x7370, symBinAddr: 0xEB4A0, symSize: 0xD0 }
  - { offsetInCU: 0x2A21F, offset: 0x4B9A23, size: 0x8, addend: 0x0, symName: '__ZN4core3ptr98drop_in_place$LT$syn..punctuated..Punctuated$LT$syn..lifetime..Lifetime$C$syn..token..Plus$GT$$GT$17h0f8fc5f20f465f47E', symObjAddr: 0x7440, symBinAddr: 0xEB570, symSize: 0xC0 }
  - { offsetInCU: 0x31DA0, offset: 0x4C15A4, size: 0x8, addend: 0x0, symName: '__ZN3syn2ty7parsing37_$LT$impl$u20$syn..ty..ReturnType$GT$5parse17he324a0d79314d8d8E.llvm.6340778183057508401', symObjAddr: 0xA420, symBinAddr: 0xECD20, symSize: 0x1C0 }
  - { offsetInCU: 0x322B7, offset: 0x4C1ABB, size: 0x8, addend: 0x0, symName: '__ZN3syn2ty7parsing42_$LT$impl$u20$syn..ty..TypeTraitObject$GT$12parse_bounds17hef91dc1b8f27672eE', symObjAddr: 0xA950, symBinAddr: 0xED090, symSize: 0x2F0 }
  - { offsetInCU: 0x3297A, offset: 0x4C217E, size: 0x8, addend: 0x0, symName: '__ZN3syn2ty7parsing40_$LT$impl$u20$syn..ty..TypeImplTrait$GT$5parse17hd7958562640d7c66E', symObjAddr: 0xAC80, symBinAddr: 0xED380, symSize: 0x350 }
  - { offsetInCU: 0xE0A, offset: 0x4CA5B7, size: 0x8, addend: 0x0, symName: '__ZN3syn3pat8printing75_$LT$impl$u20$quote..to_tokens..ToTokens$u20$for$u20$syn..pat..PatIdent$GT$9to_tokens17h348ed871f50ef358E', symObjAddr: 0x8BC0, symBinAddr: 0xF73A0, symSize: 0x200 }
  - { offsetInCU: 0x1390, offset: 0x4CAB3D, size: 0x8, addend: 0x0, symName: '__ZN3syn3pat8printing74_$LT$impl$u20$quote..to_tokens..ToTokens$u20$for$u20$syn..pat..PatRest$GT$9to_tokens17hbab31be22b0a07a1E', symObjAddr: 0x9180, symBinAddr: 0xF75A0, symSize: 0xF0 }
  - { offsetInCU: 0x1661, offset: 0x4CAE0E, size: 0x8, addend: 0x0, symName: '__ZN3syn3pat8printing74_$LT$impl$u20$quote..to_tokens..ToTokens$u20$for$u20$syn..pat..PatType$GT$9to_tokens17h413fc48f12d68c5eE', symObjAddr: 0x9610, symBinAddr: 0xF7690, symSize: 0x100 }
  - { offsetInCU: 0x18FA, offset: 0x4CB0A7, size: 0x8, addend: 0x0, symName: '__ZN60_$LT$syn..pat..Pat$u20$as$u20$quote..to_tokens..ToTokens$GT$9to_tokens17hd89cff4ed8404be9E', symObjAddr: 0x9960, symBinAddr: 0xF7790, symSize: 0xDC0 }
  - { offsetInCU: 0x3D25, offset: 0x4CD4D2, size: 0x8, addend: 0x0, symName: '__ZN77_$LT$$RF$$u5b$syn..attr..Attribute$u5d$$u20$as$u20$syn..attr..FilterAttrs$GT$5outer8is_outer17h05806f843d7deec4E.llvm.16708040419612450194', symObjAddr: 0x75A0, symBinAddr: 0xF6210, symSize: 0x20 }
  - { offsetInCU: 0x7653, offset: 0x4D0E00, size: 0x8, addend: 0x0, symName: '__ZN3syn3gen5clone67_$LT$impl$u20$core..clone..Clone$u20$for$u20$syn..pat..FieldPat$GT$5clone17h554250375942a4a5E', symObjAddr: 0xA720, symBinAddr: 0xF8550, symSize: 0x180 }
  - { offsetInCU: 0x7C8E, offset: 0x4D143B, size: 0x8, addend: 0x0, symName: '__ZN3syn3gen5clone66_$LT$impl$u20$core..clone..Clone$u20$for$u20$syn..pat..PatType$GT$5clone17h3c0c450348e02b94E', symObjAddr: 0xC120, symBinAddr: 0xF9BC0, symSize: 0x170 }
  - { offsetInCU: 0x81A5, offset: 0x4D1952, size: 0x8, addend: 0x0, symName: '__ZN3syn3gen5clone62_$LT$impl$u20$core..clone..Clone$u20$for$u20$syn..pat..Pat$GT$5clone17h09eb0d2ca566db48E', symObjAddr: 0xA8A0, symBinAddr: 0xF86D0, symSize: 0xCB0 }
  - { offsetInCU: 0x9A00, offset: 0x4D31AD, size: 0x8, addend: 0x0, symName: '__ZN3syn3gen5clone67_$LT$impl$u20$core..clone..Clone$u20$for$u20$syn..pat..PatIdent$GT$5clone17h798d2bf2d3132ef3E', symObjAddr: 0xB550, symBinAddr: 0xF9380, symSize: 0x1A0 }
  - { offsetInCU: 0x9EFF, offset: 0x4D36AC, size: 0x8, addend: 0x0, symName: '__ZN3syn3gen5clone68_$LT$impl$u20$core..clone..Clone$u20$for$u20$syn..pat..PatStruct$GT$5clone17h2daee392d264362dE', symObjAddr: 0xBA80, symBinAddr: 0xF9520, symSize: 0x3D0 }
  - { offsetInCU: 0xA59E, offset: 0x4D3D4B, size: 0x8, addend: 0x0, symName: '__ZN3syn3gen5clone73_$LT$impl$u20$core..clone..Clone$u20$for$u20$syn..pat..PatTupleStruct$GT$5clone17hcb5aab059582244bE', symObjAddr: 0xBE50, symBinAddr: 0xF98F0, symSize: 0x2D0 }
  - { offsetInCU: 0xC87A, offset: 0x4D6027, size: 0x8, addend: 0x0, symName: '__ZN4core3ptr100drop_in_place$LT$core..option..Option$LT$alloc..boxed..Box$LT$syn..path..GenericArgument$GT$$GT$$GT$17h7435c9de74860622E', symObjAddr: 0x80, symBinAddr: 0xEF380, symSize: 0x50 }
  - { offsetInCU: 0xCC1A, offset: 0x4D63C7, size: 0x8, addend: 0x0, symName: '__ZN4core3ptr100drop_in_place$LT$syn..punctuated..Punctuated$LT$syn..path..PathSegment$C$syn..token..PathSep$GT$$GT$17hf414cb3581f8337aE', symObjAddr: 0xD0, symBinAddr: 0xEF3D0, symSize: 0x260 }
  - { offsetInCU: 0xD594, offset: 0x4D6D41, size: 0x8, addend: 0x0, symName: '__ZN4core3ptr102drop_in_place$LT$syn..punctuated..Punctuated$LT$syn..path..GenericArgument$C$syn..token..Comma$GT$$GT$17h39496ba4e6dba6cfE', symObjAddr: 0x330, symBinAddr: 0xEF630, symSize: 0xF0 }
  - { offsetInCU: 0xD87D, offset: 0x4D702A, size: 0x8, addend: 0x0, symName: '__ZN4core3ptr103drop_in_place$LT$core..option..Option$LT$alloc..boxed..Box$LT$syn..generics..TypeParamBound$GT$$GT$$GT$17h5974f03e36b1a9c3E', symObjAddr: 0x420, symBinAddr: 0xEF720, symSize: 0x50 }
  - { offsetInCU: 0xDA8A, offset: 0x4D7237, size: 0x8, addend: 0x0, symName: '__ZN4core3ptr103drop_in_place$LT$syn..punctuated..Punctuated$LT$syn..generics..GenericParam$C$syn..token..Comma$GT$$GT$17hf42353fa44ed6da8E', symObjAddr: 0x470, symBinAddr: 0xEF770, symSize: 0xF0 }
  - { offsetInCU: 0xDF6C, offset: 0x4D7719, size: 0x8, addend: 0x0, symName: '__ZN4core3ptr104drop_in_place$LT$syn..punctuated..Punctuated$LT$syn..generics..TypeParamBound$C$syn..token..Plus$GT$$GT$17h532f52c4a894b056E', symObjAddr: 0x560, symBinAddr: 0xEF860, symSize: 0x230 }
  - { offsetInCU: 0xE888, offset: 0x4D8035, size: 0x8, addend: 0x0, symName: '__ZN4core3ptr34drop_in_place$LT$syn..lit..Lit$GT$17h8902f5ff67917034E', symObjAddr: 0x7E0, symBinAddr: 0xEFA90, symSize: 0x110 }
  - { offsetInCU: 0xED84, offset: 0x4D8531, size: 0x8, addend: 0x0, symName: '__ZN4core3ptr34drop_in_place$LT$syn..pat..Pat$GT$17h4581eea028ec0969E.llvm.16708040419612450194', symObjAddr: 0x8F0, symBinAddr: 0xEFBA0, symSize: 0xFF0 }
  - { offsetInCU: 0x128A9, offset: 0x4DC056, size: 0x8, addend: 0x0, symName: '__ZN4core3ptr34drop_in_place$LT$syn..ty..Type$GT$17h369e41ad4a9f1ae0E', symObjAddr: 0x18E0, symBinAddr: 0xF0B90, symSize: 0x460 }
  - { offsetInCU: 0x13B3B, offset: 0x4DD2E8, size: 0x8, addend: 0x0, symName: '__ZN4core3ptr36drop_in_place$LT$syn..expr..Expr$GT$17h0f7fd4c749bae801E', symObjAddr: 0x1D40, symBinAddr: 0xF0FF0, symSize: 0x2770 }
  - { offsetInCU: 0x1CA6D, offset: 0x4E621A, size: 0x8, addend: 0x0, symName: '__ZN4core3ptr36drop_in_place$LT$syn..mac..Macro$GT$17h4ffde962df30ebe2E', symObjAddr: 0x44B0, symBinAddr: 0xF3760, symSize: 0x40 }
  - { offsetInCU: 0x1CAA7, offset: 0x4E6254, size: 0x8, addend: 0x0, symName: '__ZN4core3ptr36drop_in_place$LT$syn..path..Path$GT$17habea856181211e1cE', symObjAddr: 0x44F0, symBinAddr: 0xF37A0, symSize: 0x220 }
  - { offsetInCU: 0x1D3DC, offset: 0x4E6B89, size: 0x8, addend: 0x0, symName: '__ZN4core3ptr37drop_in_place$LT$syn..stmt..Block$GT$17hcc21a21cf949414cE', symObjAddr: 0x4710, symBinAddr: 0xF39C0, symSize: 0xD0 }
  - { offsetInCU: 0x1D680, offset: 0x4E6E2D, size: 0x8, addend: 0x0, symName: '__ZN4core3ptr38drop_in_place$LT$syn..expr..Member$GT$17h022cbe5553aa40faE.llvm.16708040419612450194', symObjAddr: 0x47E0, symBinAddr: 0xF3A90, symSize: 0x30 }
  - { offsetInCU: 0x1D77D, offset: 0x4E6F2A, size: 0x8, addend: 0x0, symName: '__ZN4core3ptr39drop_in_place$LT$proc_macro2..Ident$GT$17h8101e88c3ac359d6E', symObjAddr: 0x4820, symBinAddr: 0xF3AC0, symSize: 0x30 }
  - { offsetInCU: 0x1D85B, offset: 0x4E7008, size: 0x8, addend: 0x0, symName: '__ZN4core3ptr40drop_in_place$LT$syn..ty..ReturnType$GT$17h02cf41e2fec63d90E', symObjAddr: 0x4850, symBinAddr: 0xF3AF0, symSize: 0x50 }
  - { offsetInCU: 0x1D9CD, offset: 0x4E717A, size: 0x8, addend: 0x0, symName: '__ZN4core3ptr41drop_in_place$LT$syn..expr..ExprConst$GT$17h725a13e551d9f276E', symObjAddr: 0x48A0, symBinAddr: 0xF3B40, symSize: 0x180 }
  - { offsetInCU: 0x1DF22, offset: 0x4E76CF, size: 0x8, addend: 0x0, symName: '__ZN4core3ptr44drop_in_place$LT$syn..lifetime..Lifetime$GT$17hf0cdec2e9ec456d6E', symObjAddr: 0x4A20, symBinAddr: 0xF3CC0, symSize: 0x30 }
  - { offsetInCU: 0x1E09B, offset: 0x4E7848, size: 0x8, addend: 0x0, symName: '__ZN4core3ptr44drop_in_place$LT$syn..parse..ParseBuffer$GT$17hd0dadba44a19aec2E', symObjAddr: 0x4A50, symBinAddr: 0xF3CF0, symSize: 0x70 }
  - { offsetInCU: 0x1E4D0, offset: 0x4E7C7D, size: 0x8, addend: 0x0, symName: '__ZN4core3ptr45drop_in_place$LT$proc_macro2..TokenStream$GT$17h3405f6c513e9f6cbE', symObjAddr: 0x4AC0, symBinAddr: 0xF3D60, symSize: 0x140 }
  - { offsetInCU: 0x1E93F, offset: 0x4E80EC, size: 0x8, addend: 0x0, symName: '__ZN4core3ptr45drop_in_place$LT$syn..generics..TypeParam$GT$17he5eda51070b7de47E', symObjAddr: 0x4C00, symBinAddr: 0xF3EA0, symSize: 0x230 }
  - { offsetInCU: 0x1F13B, offset: 0x4E88E8, size: 0x8, addend: 0x0, symName: '__ZN4core3ptr46drop_in_place$LT$syn..generics..ConstParam$GT$17hab0a58c4af8c549cE', symObjAddr: 0x4E30, symBinAddr: 0xF40D0, symSize: 0x150 }
  - { offsetInCU: 0x1F565, offset: 0x4E8D12, size: 0x8, addend: 0x0, symName: '__ZN4core3ptr47drop_in_place$LT$syn..path..GenericArgument$GT$17h54f8794633f96823E', symObjAddr: 0x4F80, symBinAddr: 0xF4220, symSize: 0x460 }
  - { offsetInCU: 0x2026E, offset: 0x4E9A1B, size: 0x8, addend: 0x0, symName: '__ZN4core3ptr49drop_in_place$LT$syn..generics..LifetimeParam$GT$17h41a7c7a290ea6289E', symObjAddr: 0x53E0, symBinAddr: 0xF4680, symSize: 0xF0 }
  - { offsetInCU: 0x20628, offset: 0x4E9DD5, size: 0x8, addend: 0x0, symName: '__ZN4core3ptr50drop_in_place$LT$syn..generics..TypeParamBound$GT$17hcd7771d4c6c221efE', symObjAddr: 0x54D0, symBinAddr: 0xF4770, symSize: 0xA0 }
  - { offsetInCU: 0x2078F, offset: 0x4E9F3C, size: 0x8, addend: 0x0, symName: '__ZN4core3ptr58drop_in_place$LT$alloc..vec..Vec$LT$syn..expr..Arm$GT$$GT$17h1a55df3d2cba1daaE', symObjAddr: 0x5570, symBinAddr: 0xF4810, symSize: 0xD0 }
  - { offsetInCU: 0x20A1C, offset: 0x4EA1C9, size: 0x8, addend: 0x0, symName: '__ZN4core3ptr59drop_in_place$LT$alloc..boxed..Box$LT$syn..pat..Pat$GT$$GT$17h563b135d87aca8abE.llvm.16708040419612450194', symObjAddr: 0x5640, symBinAddr: 0xF48E0, symSize: 0x50 }
  - { offsetInCU: 0x20B77, offset: 0x4EA324, size: 0x8, addend: 0x0, symName: '__ZN4core3ptr59drop_in_place$LT$alloc..boxed..Box$LT$syn..ty..Type$GT$$GT$17hffed36bad83adacbE', symObjAddr: 0x5690, symBinAddr: 0xF4930, symSize: 0x50 }
  - { offsetInCU: 0x20CD2, offset: 0x4EA47F, size: 0x8, addend: 0x0, symName: '__ZN4core3ptr61drop_in_place$LT$alloc..boxed..Box$LT$syn..expr..Expr$GT$$GT$17h01091e47f131475dE', symObjAddr: 0x56E0, symBinAddr: 0xF4980, symSize: 0x50 }
  - { offsetInCU: 0x20EA9, offset: 0x4EA656, size: 0x8, addend: 0x0, symName: '__ZN4core3ptr61drop_in_place$LT$syn..path..ParenthesizedGenericArguments$GT$17h43d4aac5494326a7E', symObjAddr: 0x5730, symBinAddr: 0xF49D0, symSize: 0x170 }
  - { offsetInCU: 0x21470, offset: 0x4EAC1D, size: 0x8, addend: 0x0, symName: '__ZN4core3ptr63drop_in_place$LT$alloc..boxed..Box$LT$syn..lit..LitRepr$GT$$GT$17hd8839b7fb35ee7afE', symObjAddr: 0x58A0, symBinAddr: 0xF4B40, symSize: 0x60 }
  - { offsetInCU: 0x21765, offset: 0x4EAF12, size: 0x8, addend: 0x0, symName: '__ZN4core3ptr64drop_in_place$LT$alloc..boxed..Box$LT$syn..pat..FieldPat$GT$$GT$17h4980b70a7597cc08E', symObjAddr: 0x5900, symBinAddr: 0xF4BA0, symSize: 0x140 }
  - { offsetInCU: 0x21E10, offset: 0x4EB5BD, size: 0x8, addend: 0x0, symName: '__ZN4core3ptr64drop_in_place$LT$alloc..boxed..Box$LT$syn..ty..BareFnArg$GT$$GT$17h8b34096c620314efE', symObjAddr: 0x5A40, symBinAddr: 0xF4CE0, symSize: 0x140 }
  - { offsetInCU: 0x22334, offset: 0x4EBAE1, size: 0x8, addend: 0x0, symName: '__ZN4core3ptr64drop_in_place$LT$alloc..vec..Vec$LT$syn..attr..Attribute$GT$$GT$17h3c8f2a04e701c675E.llvm.16708040419612450194', symObjAddr: 0x5B80, symBinAddr: 0xF4E20, symSize: 0xD0 }
  - { offsetInCU: 0x225C1, offset: 0x4EBD6E, size: 0x8, addend: 0x0, symName: '__ZN4core3ptr65drop_in_place$LT$core..option..Option$LT$syn..expr..Label$GT$$GT$17h78189e72a8cb7951E', symObjAddr: 0x5C50, symBinAddr: 0xF4EF0, symSize: 0x30 }
  - { offsetInCU: 0x226FC, offset: 0x4EBEA9, size: 0x8, addend: 0x0, symName: '__ZN4core3ptr65drop_in_place$LT$core..option..Option$LT$syn..path..QSelf$GT$$GT$17h9b72552ca06b7379E', symObjAddr: 0x5C80, symBinAddr: 0xF4F20, symSize: 0x50 }
  - { offsetInCU: 0x22895, offset: 0x4EC042, size: 0x8, addend: 0x0, symName: '__ZN4core3ptr66drop_in_place$LT$core..option..Option$LT$syn..pat..PatRest$GT$$GT$17h61677cf4ff3a7393E', symObjAddr: 0x5CD0, symBinAddr: 0xF4F70, symSize: 0xE0 }
  - { offsetInCU: 0x22B19, offset: 0x4EC2C6, size: 0x8, addend: 0x0, symName: '__ZN4core3ptr67drop_in_place$LT$alloc..boxed..Box$LT$syn..expr..FieldValue$GT$$GT$17h93aaccf8aa22ef88E', symObjAddr: 0x5DC0, symBinAddr: 0xF5050, symSize: 0x140 }
  - { offsetInCU: 0x2301D, offset: 0x4EC7CA, size: 0x8, addend: 0x0, symName: '__ZN4core3ptr68drop_in_place$LT$alloc..boxed..Box$LT$syn..path..PathSegment$GT$$GT$17h709dabdc13b58a71E', symObjAddr: 0x5F00, symBinAddr: 0xF5190, symSize: 0x190 }
  - { offsetInCU: 0x236FB, offset: 0x4ECEA8, size: 0x8, addend: 0x0, symName: '__ZN4core3ptr70drop_in_place$LT$core..option..Option$LT$syn..ty..BareVariadic$GT$$GT$17h45399348ea4b8d55E', symObjAddr: 0x6090, symBinAddr: 0xF5320, symSize: 0x120 }
  - { offsetInCU: 0x23C28, offset: 0x4ED3D5, size: 0x8, addend: 0x0, symName: '__ZN4core3ptr72drop_in_place$LT$alloc..boxed..Box$LT$syn..path..GenericArgument$GT$$GT$17haa7dd8b716637b54E', symObjAddr: 0x61B0, symBinAddr: 0xF5440, symSize: 0x2B0 }
  - { offsetInCU: 0x24613, offset: 0x4EDDC0, size: 0x8, addend: 0x0, symName: '__ZN4core3ptr72drop_in_place$LT$core..option..Option$LT$syn..lifetime..Lifetime$GT$$GT$17hfc363ccdd8bd9c32E', symObjAddr: 0x6460, symBinAddr: 0xF56F0, symSize: 0x30 }
  - { offsetInCU: 0x2472F, offset: 0x4EDEDC, size: 0x8, addend: 0x0, symName: '__ZN4core3ptr73drop_in_place$LT$alloc..boxed..Box$LT$syn..generics..GenericParam$GT$$GT$17hf6951dcd5ae07324E', symObjAddr: 0x6490, symBinAddr: 0xF5720, symSize: 0x80 }
  - { offsetInCU: 0x248A7, offset: 0x4EE054, size: 0x8, addend: 0x0, symName: '__ZN4core3ptr75drop_in_place$LT$alloc..boxed..Box$LT$syn..generics..TypeParamBound$GT$$GT$17he61c00698a311a34E', symObjAddr: 0x6510, symBinAddr: 0xF57A0, symSize: 0x160 }
  - { offsetInCU: 0x24E6D, offset: 0x4EE61A, size: 0x8, addend: 0x0, symName: '__ZN4core3ptr86drop_in_place$LT$syn..punctuated..Punctuated$LT$syn..pat..Pat$C$syn..token..Or$GT$$GT$17h8e9173df21a44316E', symObjAddr: 0x6670, symBinAddr: 0xF5900, symSize: 0x120 }
  - { offsetInCU: 0x252CA, offset: 0x4EEA77, size: 0x8, addend: 0x0, symName: '__ZN4core3ptr87drop_in_place$LT$core..option..Option$LT$alloc..boxed..Box$LT$syn..ty..Type$GT$$GT$$GT$17hd74f5d971aec2972E', symObjAddr: 0x6790, symBinAddr: 0xF5A20, symSize: 0x50 }
  - { offsetInCU: 0x2543C, offset: 0x4EEBE9, size: 0x8, addend: 0x0, symName: '__ZN4core3ptr89drop_in_place$LT$core..option..Option$LT$alloc..boxed..Box$LT$syn..expr..Expr$GT$$GT$$GT$17h8e135ac1a25a2dc5E', symObjAddr: 0x67E0, symBinAddr: 0xF5A70, symSize: 0x50 }
  - { offsetInCU: 0x255AE, offset: 0x4EED5B, size: 0x8, addend: 0x0, symName: '__ZN4core3ptr89drop_in_place$LT$syn..punctuated..Punctuated$LT$syn..ty..Type$C$syn..token..Comma$GT$$GT$17ha919b3114742fb9dE', symObjAddr: 0x6830, symBinAddr: 0xF5AC0, symSize: 0x120 }
  - { offsetInCU: 0x25A36, offset: 0x4EF1E3, size: 0x8, addend: 0x0, symName: '__ZN4core3ptr91drop_in_place$LT$syn..punctuated..Punctuated$LT$syn..expr..Expr$C$syn..token..Comma$GT$$GT$17h4f39b83dc86a4159E', symObjAddr: 0x6950, symBinAddr: 0xF5BE0, symSize: 0x120 }
  - { offsetInCU: 0x25E93, offset: 0x4EF640, size: 0x8, addend: 0x0, symName: '__ZN4core3ptr94drop_in_place$LT$syn..punctuated..Punctuated$LT$syn..pat..FieldPat$C$syn..token..Comma$GT$$GT$17h112950ea198c8281E', symObjAddr: 0x6A70, symBinAddr: 0xF5D00, symSize: 0xF0 }
  - { offsetInCU: 0x2615D, offset: 0x4EF90A, size: 0x8, addend: 0x0, symName: '__ZN4core3ptr94drop_in_place$LT$syn..punctuated..Punctuated$LT$syn..ty..BareFnArg$C$syn..token..Comma$GT$$GT$17h1c7b44310f06243dE', symObjAddr: 0x6B60, symBinAddr: 0xF5DF0, symSize: 0xF0 }
  - { offsetInCU: 0x26427, offset: 0x4EFBD4, size: 0x8, addend: 0x0, symName: '__ZN4core3ptr96drop_in_place$LT$core..option..Option$LT$alloc..boxed..Box$LT$syn..path..PathSegment$GT$$GT$$GT$17hb447d0f626c86a4eE', symObjAddr: 0x6C50, symBinAddr: 0xF5EE0, symSize: 0x180 }
  - { offsetInCU: 0x26AB8, offset: 0x4F0265, size: 0x8, addend: 0x0, symName: '__ZN4core3ptr97drop_in_place$LT$syn..punctuated..Punctuated$LT$syn..expr..FieldValue$C$syn..token..Comma$GT$$GT$17h31b81f7462228dcbE', symObjAddr: 0x6DD0, symBinAddr: 0xF6060, symSize: 0xF0 }
  - { offsetInCU: 0x26DFE, offset: 0x4F05AB, size: 0x8, addend: 0x0, symName: '__ZN4core3ptr98drop_in_place$LT$syn..punctuated..Punctuated$LT$syn..lifetime..Lifetime$C$syn..token..Plus$GT$$GT$17h0f8fc5f20f465f47E', symObjAddr: 0x6EC0, symBinAddr: 0xF6150, symSize: 0xC0 }
  - { offsetInCU: 0x2D0B4, offset: 0x4F6861, size: 0x8, addend: 0x0, symName: '__ZN3syn3pat7parsing31_$LT$impl$u20$syn..pat..Pat$GT$12parse_single17he8272f3d05bd5b62E', symObjAddr: 0x7690, symBinAddr: 0xF6230, symSize: 0x10A0 }
  - { offsetInCU: 0x31B91, offset: 0x4FB33E, size: 0x8, addend: 0x0, symName: '__ZN3syn3pat7parsing31_$LT$impl$u20$syn..pat..Pat$GT$29parse_multi_with_leading_vert17hff4a0f009e279073E', symObjAddr: 0x8750, symBinAddr: 0xF72D0, symSize: 0xD0 }
  - { offsetInCU: 0x35, offset: 0x5025BF, size: 0x8, addend: 0x0, symName: _anon.9fa2b4368973a3c0948f9ae02c44caa7.1.llvm.11936935375936494365, symObjAddr: 0xDA20, symBinAddr: 0x268B50, symSize: 0x0 }
  - { offsetInCU: 0x1D9A, offset: 0x504324, size: 0x8, addend: 0x0, symName: '__ZN4core3ptr100drop_in_place$LT$syn..punctuated..Punctuated$LT$syn..path..PathSegment$C$syn..token..PathSep$GT$$GT$17hf414cb3581f8337aE.llvm.11936935375936494365', symObjAddr: 0x250, symBinAddr: 0xF9D30, symSize: 0x140 }
  - { offsetInCU: 0x22ED, offset: 0x504877, size: 0x8, addend: 0x0, symName: '__ZN4core3ptr101drop_in_place$LT$core..option..Option$LT$alloc..boxed..Box$LT$syn..generics..GenericParam$GT$$GT$$GT$17hd5dce04b35fda9feE', symObjAddr: 0x390, symBinAddr: 0xF9E70, symSize: 0x90 }
  - { offsetInCU: 0x24D3, offset: 0x504A5D, size: 0x8, addend: 0x0, symName: '__ZN4core3ptr102drop_in_place$LT$syn..punctuated..Punctuated$LT$syn..path..GenericArgument$C$syn..token..Comma$GT$$GT$17h39496ba4e6dba6cfE.llvm.11936935375936494365', symObjAddr: 0x420, symBinAddr: 0xF9F00, symSize: 0xF0 }
  - { offsetInCU: 0x27CF, offset: 0x504D59, size: 0x8, addend: 0x0, symName: '__ZN4core3ptr103drop_in_place$LT$core..option..Option$LT$alloc..boxed..Box$LT$syn..generics..TypeParamBound$GT$$GT$$GT$17h5974f03e36b1a9c3E', symObjAddr: 0x510, symBinAddr: 0xF9FF0, symSize: 0x50 }
  - { offsetInCU: 0x299E, offset: 0x504F28, size: 0x8, addend: 0x0, symName: '__ZN4core3ptr103drop_in_place$LT$syn..punctuated..Punctuated$LT$syn..generics..GenericParam$C$syn..token..Comma$GT$$GT$17hf42353fa44ed6da8E', symObjAddr: 0x560, symBinAddr: 0xFA040, symSize: 0xF0 }
  - { offsetInCU: 0x2E6D, offset: 0x5053F7, size: 0x8, addend: 0x0, symName: '__ZN4core3ptr104drop_in_place$LT$syn..punctuated..Punctuated$LT$syn..generics..TypeParamBound$C$syn..token..Plus$GT$$GT$17h532f52c4a894b056E', symObjAddr: 0x650, symBinAddr: 0xFA130, symSize: 0x260 }
  - { offsetInCU: 0x3857, offset: 0x505DE1, size: 0x8, addend: 0x0, symName: '__ZN4core3ptr34drop_in_place$LT$syn..lit..Lit$GT$17h8902f5ff67917034E', symObjAddr: 0x8C0, symBinAddr: 0xFA390, symSize: 0x110 }
  - { offsetInCU: 0x3DCF, offset: 0x506359, size: 0x8, addend: 0x0, symName: '__ZN4core3ptr34drop_in_place$LT$syn..pat..Pat$GT$17h4581eea028ec0969E', symObjAddr: 0x9D0, symBinAddr: 0xFA4A0, symSize: 0x1000 }
  - { offsetInCU: 0x7913, offset: 0x509E9D, size: 0x8, addend: 0x0, symName: '__ZN4core3ptr34drop_in_place$LT$syn..ty..Type$GT$17h369e41ad4a9f1ae0E.llvm.11936935375936494365', symObjAddr: 0x19D0, symBinAddr: 0xFB4A0, symSize: 0x4F0 }
  - { offsetInCU: 0x8E7E, offset: 0x50B408, size: 0x8, addend: 0x0, symName: '__ZN4core3ptr36drop_in_place$LT$syn..expr..Expr$GT$17h0f7fd4c749bae801E.llvm.11936935375936494365', symObjAddr: 0x1EC0, symBinAddr: 0xFB990, symSize: 0x28C0 }
  - { offsetInCU: 0x12323, offset: 0x5148AD, size: 0x8, addend: 0x0, symName: '__ZN4core3ptr36drop_in_place$LT$syn..mac..Macro$GT$17h4ffde962df30ebe2E', symObjAddr: 0x4780, symBinAddr: 0xFE250, symSize: 0x40 }
  - { offsetInCU: 0x1237C, offset: 0x514906, size: 0x8, addend: 0x0, symName: '__ZN4core3ptr36drop_in_place$LT$syn..path..Path$GT$17habea856181211e1cE.llvm.11936935375936494365', symObjAddr: 0x47C0, symBinAddr: 0xFE290, symSize: 0x140 }
  - { offsetInCU: 0x128C1, offset: 0x514E4B, size: 0x8, addend: 0x0, symName: '__ZN4core3ptr37drop_in_place$LT$syn..stmt..Block$GT$17hcc21a21cf949414cE', symObjAddr: 0x4900, symBinAddr: 0xFE3D0, symSize: 0xD0 }
  - { offsetInCU: 0x12B65, offset: 0x5150EF, size: 0x8, addend: 0x0, symName: '__ZN4core3ptr38drop_in_place$LT$syn..expr..Member$GT$17h022cbe5553aa40faE', symObjAddr: 0x49D0, symBinAddr: 0xFE4A0, symSize: 0x30 }
  - { offsetInCU: 0x12C62, offset: 0x5151EC, size: 0x8, addend: 0x0, symName: '__ZN4core3ptr38drop_in_place$LT$syn..ty..TypePath$GT$17he8f590b78af8d8f3E', symObjAddr: 0x4A00, symBinAddr: 0xFE4D0, symSize: 0x80 }
  - { offsetInCU: 0x12DE1, offset: 0x51536B, size: 0x8, addend: 0x0, symName: '__ZN4core3ptr39drop_in_place$LT$proc_macro2..Ident$GT$17h8101e88c3ac359d6E.llvm.11936935375936494365', symObjAddr: 0x4A80, symBinAddr: 0xFE550, symSize: 0x30 }
  - { offsetInCU: 0x12EBF, offset: 0x515449, size: 0x8, addend: 0x0, symName: '__ZN4core3ptr40drop_in_place$LT$syn..ty..ReturnType$GT$17h02cf41e2fec63d90E', symObjAddr: 0x4AB0, symBinAddr: 0xFE580, symSize: 0x50 }
  - { offsetInCU: 0x13031, offset: 0x5155BB, size: 0x8, addend: 0x0, symName: '__ZN4core3ptr41drop_in_place$LT$syn..expr..ExprConst$GT$17h725a13e551d9f276E', symObjAddr: 0x4B00, symBinAddr: 0xFE5D0, symSize: 0x180 }
  - { offsetInCU: 0x135A5, offset: 0x515B2F, size: 0x8, addend: 0x0, symName: '__ZN4core3ptr42drop_in_place$LT$syn..path..Constraint$GT$17h07cd69a204b9a6d4E.llvm.11936935375936494365', symObjAddr: 0x4D60, symBinAddr: 0xFE750, symSize: 0x160 }
  - { offsetInCU: 0x13AE4, offset: 0x51606E, size: 0x8, addend: 0x0, symName: '__ZN4core3ptr44drop_in_place$LT$syn..lifetime..Lifetime$GT$17hf0cdec2e9ec456d6E.llvm.11936935375936494365', symObjAddr: 0x4EC0, symBinAddr: 0xFE8B0, symSize: 0x30 }
  - { offsetInCU: 0x13C5D, offset: 0x5161E7, size: 0x8, addend: 0x0, symName: '__ZN4core3ptr44drop_in_place$LT$syn..parse..ParseBuffer$GT$17hd0dadba44a19aec2E', symObjAddr: 0x4EF0, symBinAddr: 0xFE8E0, symSize: 0x70 }
  - { offsetInCU: 0x14092, offset: 0x51661C, size: 0x8, addend: 0x0, symName: '__ZN4core3ptr45drop_in_place$LT$proc_macro2..TokenStream$GT$17h3405f6c513e9f6cbE', symObjAddr: 0x4F60, symBinAddr: 0xFE950, symSize: 0x140 }
  - { offsetInCU: 0x144E2, offset: 0x516A6C, size: 0x8, addend: 0x0, symName: '__ZN4core3ptr45drop_in_place$LT$syn..generics..TypeParam$GT$17he5eda51070b7de47E', symObjAddr: 0x50A0, symBinAddr: 0xFEA90, symSize: 0x140 }
  - { offsetInCU: 0x148D4, offset: 0x516E5E, size: 0x8, addend: 0x0, symName: '__ZN4core3ptr45drop_in_place$LT$syn..path..PathArguments$GT$17h7160021b3fdea550E.llvm.11936935375936494365', symObjAddr: 0x51E0, symBinAddr: 0xFEBD0, symSize: 0xA0 }
  - { offsetInCU: 0x14AA9, offset: 0x517033, size: 0x8, addend: 0x0, symName: '__ZN4core3ptr46drop_in_place$LT$syn..generics..ConstParam$GT$17hab0a58c4af8c549cE', symObjAddr: 0x5280, symBinAddr: 0xFEC70, symSize: 0x150 }
  - { offsetInCU: 0x14E76, offset: 0x517400, size: 0x8, addend: 0x0, symName: '__ZN4core3ptr49drop_in_place$LT$syn..generics..LifetimeParam$GT$17h41a7c7a290ea6289E', symObjAddr: 0x53D0, symBinAddr: 0xFEDC0, symSize: 0xF0 }
  - { offsetInCU: 0x15230, offset: 0x5177BA, size: 0x8, addend: 0x0, symName: '__ZN4core3ptr50drop_in_place$LT$syn..generics..TypeParamBound$GT$17hcd7771d4c6c221efE', symObjAddr: 0x54C0, symBinAddr: 0xFEEB0, symSize: 0x160 }
  - { offsetInCU: 0x15650, offset: 0x517BDA, size: 0x8, addend: 0x0, symName: '__ZN4core3ptr58drop_in_place$LT$alloc..vec..Vec$LT$syn..expr..Arm$GT$$GT$17h1a55df3d2cba1daaE', symObjAddr: 0x5620, symBinAddr: 0xFF010, symSize: 0xD0 }
  - { offsetInCU: 0x158DD, offset: 0x517E67, size: 0x8, addend: 0x0, symName: '__ZN4core3ptr59drop_in_place$LT$alloc..boxed..Box$LT$syn..pat..Pat$GT$$GT$17h563b135d87aca8abE', symObjAddr: 0x56F0, symBinAddr: 0xFF0E0, symSize: 0x50 }
  - { offsetInCU: 0x15A38, offset: 0x517FC2, size: 0x8, addend: 0x0, symName: '__ZN4core3ptr59drop_in_place$LT$alloc..boxed..Box$LT$syn..ty..Type$GT$$GT$17hffed36bad83adacbE.llvm.11936935375936494365', symObjAddr: 0x5740, symBinAddr: 0xFF130, symSize: 0x50 }
  - { offsetInCU: 0x15B93, offset: 0x51811D, size: 0x8, addend: 0x0, symName: '__ZN4core3ptr61drop_in_place$LT$alloc..boxed..Box$LT$syn..expr..Expr$GT$$GT$17h01091e47f131475dE', symObjAddr: 0x5790, symBinAddr: 0xFF180, symSize: 0x50 }
  - { offsetInCU: 0x15D6A, offset: 0x5182F4, size: 0x8, addend: 0x0, symName: '__ZN4core3ptr61drop_in_place$LT$syn..path..ParenthesizedGenericArguments$GT$17h43d4aac5494326a7E.llvm.11936935375936494365', symObjAddr: 0x57E0, symBinAddr: 0xFF1D0, symSize: 0x170 }
  - { offsetInCU: 0x16331, offset: 0x5188BB, size: 0x8, addend: 0x0, symName: '__ZN4core3ptr63drop_in_place$LT$alloc..boxed..Box$LT$syn..lit..LitRepr$GT$$GT$17hd8839b7fb35ee7afE', symObjAddr: 0x5950, symBinAddr: 0xFF340, symSize: 0x60 }
  - { offsetInCU: 0x16626, offset: 0x518BB0, size: 0x8, addend: 0x0, symName: '__ZN4core3ptr64drop_in_place$LT$alloc..boxed..Box$LT$syn..pat..FieldPat$GT$$GT$17h4980b70a7597cc08E', symObjAddr: 0x59B0, symBinAddr: 0xFF3A0, symSize: 0x140 }
  - { offsetInCU: 0x16CD1, offset: 0x51925B, size: 0x8, addend: 0x0, symName: '__ZN4core3ptr64drop_in_place$LT$alloc..boxed..Box$LT$syn..ty..BareFnArg$GT$$GT$17h8b34096c620314efE', symObjAddr: 0x5AF0, symBinAddr: 0xFF4E0, symSize: 0x140 }
  - { offsetInCU: 0x171F5, offset: 0x51977F, size: 0x8, addend: 0x0, symName: '__ZN4core3ptr65drop_in_place$LT$core..option..Option$LT$syn..expr..Label$GT$$GT$17h78189e72a8cb7951E', symObjAddr: 0x5C30, symBinAddr: 0xFF620, symSize: 0x30 }
  - { offsetInCU: 0x17330, offset: 0x5198BA, size: 0x8, addend: 0x0, symName: '__ZN4core3ptr66drop_in_place$LT$core..option..Option$LT$syn..pat..PatRest$GT$$GT$17h61677cf4ff3a7393E', symObjAddr: 0x5C60, symBinAddr: 0xFF650, symSize: 0xE0 }
  - { offsetInCU: 0x175B4, offset: 0x519B3E, size: 0x8, addend: 0x0, symName: '__ZN4core3ptr67drop_in_place$LT$alloc..boxed..Box$LT$syn..expr..FieldValue$GT$$GT$17h93aaccf8aa22ef88E', symObjAddr: 0x5D40, symBinAddr: 0xFF730, symSize: 0x140 }
  - { offsetInCU: 0x17AB8, offset: 0x51A042, size: 0x8, addend: 0x0, symName: '__ZN4core3ptr68drop_in_place$LT$alloc..boxed..Box$LT$syn..path..PathSegment$GT$$GT$17h709dabdc13b58a71E', symObjAddr: 0x5E80, symBinAddr: 0xFF870, symSize: 0xD0 }
  - { offsetInCU: 0x17ED5, offset: 0x51A45F, size: 0x8, addend: 0x0, symName: '__ZN4core3ptr70drop_in_place$LT$core..option..Option$LT$syn..ty..BareVariadic$GT$$GT$17h45399348ea4b8d55E', symObjAddr: 0x5F60, symBinAddr: 0xFF940, symSize: 0x120 }
  - { offsetInCU: 0x18440, offset: 0x51A9CA, size: 0x8, addend: 0x0, symName: '__ZN4core3ptr72drop_in_place$LT$alloc..boxed..Box$LT$syn..path..GenericArgument$GT$$GT$17haa7dd8b716637b54E.llvm.11936935375936494365', symObjAddr: 0x6080, symBinAddr: 0xFFA60, symSize: 0x180 }
  - { offsetInCU: 0x18928, offset: 0x51AEB2, size: 0x8, addend: 0x0, symName: '__ZN4core3ptr72drop_in_place$LT$core..option..Option$LT$syn..lifetime..Lifetime$GT$$GT$17hfc363ccdd8bd9c32E', symObjAddr: 0x6200, symBinAddr: 0xFFBE0, symSize: 0x30 }
  - { offsetInCU: 0x18A63, offset: 0x51AFED, size: 0x8, addend: 0x0, symName: '__ZN4core3ptr73drop_in_place$LT$alloc..boxed..Box$LT$syn..generics..GenericParam$GT$$GT$17hf6951dcd5ae07324E', symObjAddr: 0x6260, symBinAddr: 0xFFC10, symSize: 0x80 }
  - { offsetInCU: 0x18BDB, offset: 0x51B165, size: 0x8, addend: 0x0, symName: '__ZN4core3ptr75drop_in_place$LT$alloc..boxed..Box$LT$syn..generics..TypeParamBound$GT$$GT$17he61c00698a311a34E', symObjAddr: 0x62E0, symBinAddr: 0xFFC90, symSize: 0x190 }
  - { offsetInCU: 0x192B3, offset: 0x51B83D, size: 0x8, addend: 0x0, symName: '__ZN4core3ptr86drop_in_place$LT$syn..punctuated..Punctuated$LT$syn..pat..Pat$C$syn..token..Or$GT$$GT$17h8e9173df21a44316E', symObjAddr: 0x6470, symBinAddr: 0xFFE20, symSize: 0x120 }
  - { offsetInCU: 0x196F9, offset: 0x51BC83, size: 0x8, addend: 0x0, symName: '__ZN4core3ptr87drop_in_place$LT$core..option..Option$LT$alloc..boxed..Box$LT$syn..pat..Pat$GT$$GT$$GT$17hd7b7c69f601b3926E', symObjAddr: 0x6590, symBinAddr: 0xFFF40, symSize: 0x50 }
  - { offsetInCU: 0x1986B, offset: 0x51BDF5, size: 0x8, addend: 0x0, symName: '__ZN4core3ptr87drop_in_place$LT$core..option..Option$LT$alloc..boxed..Box$LT$syn..ty..Type$GT$$GT$$GT$17hd74f5d971aec2972E.llvm.11936935375936494365', symObjAddr: 0x65E0, symBinAddr: 0xFFF90, symSize: 0x50 }
  - { offsetInCU: 0x199DD, offset: 0x51BF67, size: 0x8, addend: 0x0, symName: '__ZN4core3ptr89drop_in_place$LT$core..option..Option$LT$alloc..boxed..Box$LT$syn..expr..Expr$GT$$GT$$GT$17h8e135ac1a25a2dc5E', symObjAddr: 0x6630, symBinAddr: 0xFFFE0, symSize: 0x50 }
  - { offsetInCU: 0x19B8D, offset: 0x51C117, size: 0x8, addend: 0x0, symName: '__ZN4core3ptr89drop_in_place$LT$syn..punctuated..Punctuated$LT$syn..pat..Pat$C$syn..token..Comma$GT$$GT$17h8d60e47f3fb1f87aE', symObjAddr: 0x6680, symBinAddr: 0x100030, symSize: 0x120 }
  - { offsetInCU: 0x19FEA, offset: 0x51C574, size: 0x8, addend: 0x0, symName: '__ZN4core3ptr89drop_in_place$LT$syn..punctuated..Punctuated$LT$syn..ty..Type$C$syn..token..Comma$GT$$GT$17ha919b3114742fb9dE.llvm.11936935375936494365', symObjAddr: 0x67A0, symBinAddr: 0x100150, symSize: 0x120 }
  - { offsetInCU: 0x1A472, offset: 0x51C9FC, size: 0x8, addend: 0x0, symName: '__ZN4core3ptr91drop_in_place$LT$syn..punctuated..Punctuated$LT$syn..expr..Expr$C$syn..token..Comma$GT$$GT$17h4f39b83dc86a4159E', symObjAddr: 0x68E0, symBinAddr: 0x100270, symSize: 0x120 }
  - { offsetInCU: 0x1A8CF, offset: 0x51CE59, size: 0x8, addend: 0x0, symName: '__ZN4core3ptr94drop_in_place$LT$syn..punctuated..Punctuated$LT$syn..pat..FieldPat$C$syn..token..Comma$GT$$GT$17h112950ea198c8281E', symObjAddr: 0x6A00, symBinAddr: 0x100390, symSize: 0xF0 }
  - { offsetInCU: 0x1AB99, offset: 0x51D123, size: 0x8, addend: 0x0, symName: '__ZN4core3ptr94drop_in_place$LT$syn..punctuated..Punctuated$LT$syn..ty..BareFnArg$C$syn..token..Comma$GT$$GT$17h1c7b44310f06243dE', symObjAddr: 0x6AF0, symBinAddr: 0x100480, symSize: 0xF0 }
  - { offsetInCU: 0x1AE63, offset: 0x51D3ED, size: 0x8, addend: 0x0, symName: '__ZN4core3ptr96drop_in_place$LT$core..option..Option$LT$alloc..boxed..Box$LT$syn..path..PathSegment$GT$$GT$$GT$17hb447d0f626c86a4eE.llvm.11936935375936494365', symObjAddr: 0x6BE0, symBinAddr: 0x100570, symSize: 0x90 }
  - { offsetInCU: 0x1B104, offset: 0x51D68E, size: 0x8, addend: 0x0, symName: '__ZN4core3ptr97drop_in_place$LT$syn..punctuated..Punctuated$LT$syn..expr..FieldValue$C$syn..token..Comma$GT$$GT$17h31b81f7462228dcbE', symObjAddr: 0x6C70, symBinAddr: 0x100600, symSize: 0xF0 }
  - { offsetInCU: 0x1B44A, offset: 0x51D9D4, size: 0x8, addend: 0x0, symName: '__ZN4core3ptr98drop_in_place$LT$syn..punctuated..Punctuated$LT$syn..lifetime..Lifetime$C$syn..token..Plus$GT$$GT$17h0f8fc5f20f465f47E', symObjAddr: 0x6D60, symBinAddr: 0x1006F0, symSize: 0xC0 }
  - { offsetInCU: 0x215DD, offset: 0x523B67, size: 0x8, addend: 0x0, symName: '__ZN3syn4path8printing72_$LT$impl$u20$quote..to_tokens..ToTokens$u20$for$u20$syn..path..Path$GT$9to_tokens17hfb34523432ea271cE', symObjAddr: 0x9DB0, symBinAddr: 0x102F70, symSize: 0x70 }
  - { offsetInCU: 0x21887, offset: 0x523E11, size: 0x8, addend: 0x0, symName: '__ZN3syn4path8printing83_$LT$impl$u20$quote..to_tokens..ToTokens$u20$for$u20$syn..path..GenericArgument$GT$9to_tokens17h9a59d2d6bd262af6E', symObjAddr: 0x9F50, symBinAddr: 0x102FE0, symSize: 0x240 }
  - { offsetInCU: 0x21EAD, offset: 0x524437, size: 0x8, addend: 0x0, symName: '__ZN3syn4path8printing98_$LT$impl$u20$quote..to_tokens..ToTokens$u20$for$u20$syn..path..AngleBracketedGenericArguments$GT$9to_tokens17he4942a448a6b5094E', symObjAddr: 0xA190, symBinAddr: 0x103220, symSize: 0x200 }
  - { offsetInCU: 0x22664, offset: 0x524BEE, size: 0x8, addend: 0x0, symName: '__ZN64_$LT$syn..path..Path$u20$as$u20$core..convert..From$LT$T$GT$$GT$4from17h27b9250e6fa6a0e9E', symObjAddr: 0x7310, symBinAddr: 0x1007B0, symSize: 0xC0 }
  - { offsetInCU: 0x2270B, offset: 0x524C95, size: 0x8, addend: 0x0, symName: '__ZN3syn4path7parsing63_$LT$impl$u20$syn..parse..Parse$u20$for$u20$syn..path..Path$GT$5parse17h64cc595f7a2ba5adE', symObjAddr: 0x77C0, symBinAddr: 0x100A10, symSize: 0x20 }
  - { offsetInCU: 0x22741, offset: 0x524CCB, size: 0x8, addend: 0x0, symName: '__ZN3syn4path7parsing74_$LT$impl$u20$syn..parse..Parse$u20$for$u20$syn..path..GenericArgument$GT$5parse17h65a40b108c2e8b8aE', symObjAddr: 0x77E0, symBinAddr: 0x100A30, symSize: 0xEE0 }
  - { offsetInCU: 0x23DF8, offset: 0x526382, size: 0x8, addend: 0x0, symName: '__ZN3syn4path7parsing89_$LT$impl$u20$syn..parse..Parse$u20$for$u20$syn..path..AngleBracketedGenericArguments$GT$5parse17hb7926999981a34ccE', symObjAddr: 0x8A60, symBinAddr: 0x101C40, symSize: 0xC0 }
  - { offsetInCU: 0x23FE9, offset: 0x526573, size: 0x8, addend: 0x0, symName: '__ZN3syn4path7parsing88_$LT$impl$u20$syn..parse..Parse$u20$for$u20$syn..path..ParenthesizedGenericArguments$GT$5parse17hfb5732c56514d24fE', symObjAddr: 0x8B20, symBinAddr: 0x101D00, symSize: 0x3B0 }
  - { offsetInCU: 0x28A68, offset: 0x52AFF2, size: 0x8, addend: 0x0, symName: '__ZN3syn3gen5clone70_$LT$impl$u20$core..clone..Clone$u20$for$u20$syn..path..AssocConst$GT$5clone17h9f90c67dcaf31591E', symObjAddr: 0xA650, symBinAddr: 0x103420, symSize: 0x1E0 }
  - { offsetInCU: 0x28D6B, offset: 0x52B2F5, size: 0x8, addend: 0x0, symName: '__ZN3syn3gen5clone69_$LT$impl$u20$core..clone..Clone$u20$for$u20$syn..path..AssocType$GT$5clone17h5f2d03b9560795caE', symObjAddr: 0xA830, symBinAddr: 0x103600, symSize: 0x1E0 }
  - { offsetInCU: 0x2906E, offset: 0x52B5F8, size: 0x8, addend: 0x0, symName: '__ZN3syn3gen5clone70_$LT$impl$u20$core..clone..Clone$u20$for$u20$syn..path..Constraint$GT$5clone17hd65bf7716c6ea04fE', symObjAddr: 0xAA10, symBinAddr: 0x1037E0, symSize: 0x1A0 }
  - { offsetInCU: 0x2936F, offset: 0x52B8F9, size: 0x8, addend: 0x0, symName: '__ZN3syn3gen5clone75_$LT$impl$u20$core..clone..Clone$u20$for$u20$syn..path..GenericArgument$GT$5clone17h7af3968a8a6bb26dE', symObjAddr: 0xABB0, symBinAddr: 0x103980, symSize: 0x1A0 }
  - { offsetInCU: 0x29561, offset: 0x52BAEB, size: 0x8, addend: 0x0, symName: '__ZN3syn3gen5clone73_$LT$impl$u20$core..clone..Clone$u20$for$u20$syn..path..PathArguments$GT$5clone17hb2ce2f8366ba5c43E', symObjAddr: 0xAEC0, symBinAddr: 0x103B20, symSize: 0x190 }
  - { offsetInCU: 0x2B66C, offset: 0x52DBF6, size: 0x8, addend: 0x0, symName: __ZN3syn4path4Path8is_ident17h134d0fe341c9f063E, symObjAddr: 0x73D0, symBinAddr: 0x100870, symSize: 0x110 }
  - { offsetInCU: 0x2BB6A, offset: 0x52E0F4, size: 0x8, addend: 0x0, symName: __ZN3syn4path4Path9get_ident17h46f26b61a5616d05E, symObjAddr: 0x74E0, symBinAddr: 0x100980, symSize: 0x90 }
  - { offsetInCU: 0x2C493, offset: 0x52EA1D, size: 0x8, addend: 0x0, symName: '__ZN3syn4path7parsing59_$LT$impl$u20$syn..path..AngleBracketedGenericArguments$GT$8do_parse17hb08d246db2c3708aE.llvm.11936935375936494365', symObjAddr: 0x8730, symBinAddr: 0x101910, symSize: 0x330 }
  - { offsetInCU: 0x2CD5A, offset: 0x52F2E4, size: 0x8, addend: 0x0, symName: '__ZN3syn4path7parsing40_$LT$impl$u20$syn..path..PathSegment$GT$12parse_helper17h9184466aa9fa491fE', symObjAddr: 0x8EF0, symBinAddr: 0x1020B0, symSize: 0x380 }
  - { offsetInCU: 0x2D8D8, offset: 0x52FE62, size: 0x8, addend: 0x0, symName: '__ZN3syn4path7parsing33_$LT$impl$u20$syn..path..Path$GT$15parse_mod_style17ha248aba2a7f4b234E', symObjAddr: 0x9270, symBinAddr: 0x102430, symSize: 0x420 }
  - { offsetInCU: 0x2E263, offset: 0x5307ED, size: 0x8, addend: 0x0, symName: '__ZN3syn4path7parsing33_$LT$impl$u20$syn..path..Path$GT$12parse_helper17h93c4dc222d1465d8E', symObjAddr: 0x9690, symBinAddr: 0x102850, symSize: 0x310 }
  - { offsetInCU: 0x2E63F, offset: 0x530BC9, size: 0x8, addend: 0x0, symName: '__ZN3syn4path7parsing33_$LT$impl$u20$syn..path..Path$GT$10parse_rest17h674b45704d8e502eE', symObjAddr: 0x99A0, symBinAddr: 0x102B60, symSize: 0x370 }
  - { offsetInCU: 0x2ECB0, offset: 0x53123A, size: 0x8, addend: 0x0, symName: '__ZN3syn4path7parsing33_$LT$impl$u20$syn..path..Path$GT$12is_mod_style17hb0190b672a8d9ee2E', symObjAddr: 0x9D10, symBinAddr: 0x102ED0, symSize: 0xA0 }
  - { offsetInCU: 0x1E, offset: 0x536DDA, size: 0x8, addend: 0x0, symName: '__ZN4core3fmt3num52_$LT$impl$u20$core..fmt..Debug$u20$for$u20$usize$GT$3fmt17h05928cb6857c498fE', symObjAddr: 0x0, symBinAddr: 0x103CB0, symSize: 0x30 }
  - { offsetInCU: 0x6B, offset: 0x536E27, size: 0x8, addend: 0x0, symName: '__ZN64_$LT$alloc..ffi..c_str..NulError$u20$as$u20$core..fmt..Debug$GT$3fmt17h27eb6f0aef87a2a7E', symObjAddr: 0xA0, symBinAddr: 0x103D50, symSize: 0x50 }
  - { offsetInCU: 0x633, offset: 0x5373EF, size: 0x8, addend: 0x0, symName: '__ZN65_$LT$alloc..string..FromUtf8Error$u20$as$u20$core..fmt..Debug$GT$3fmt17h7e8b2a6ae2113c0eE', symObjAddr: 0xF0, symBinAddr: 0x103DA0, symSize: 0x70 }
  - { offsetInCU: 0x131E, offset: 0x5380DA, size: 0x8, addend: 0x0, symName: '__ZN4core3ptr26drop_in_place$LT$usize$GT$17h589ee933aeb38d3fE', symObjAddr: 0x30, symBinAddr: 0x103CE0, symSize: 0x10 }
  - { offsetInCU: 0x1369, offset: 0x538125, size: 0x8, addend: 0x0, symName: '__ZN4core3ptr46drop_in_place$LT$alloc..vec..Vec$LT$u8$GT$$GT$17hc2907af9838bcdd1E', symObjAddr: 0x40, symBinAddr: 0x103CF0, symSize: 0x20 }
  - { offsetInCU: 0x1472, offset: 0x53822E, size: 0x8, addend: 0x0, symName: '__ZN4core3ptr48drop_in_place$LT$alloc..ffi..c_str..NulError$GT$17h1aea77be2d5835acE', symObjAddr: 0x60, symBinAddr: 0x103D10, symSize: 0x20 }
  - { offsetInCU: 0x157B, offset: 0x538337, size: 0x8, addend: 0x0, symName: '__ZN4core3ptr49drop_in_place$LT$alloc..string..FromUtf8Error$GT$17h2fbc0159c498e595E', symObjAddr: 0x80, symBinAddr: 0x103D30, symSize: 0x20 }
  - { offsetInCU: 0x3103, offset: 0x539EBF, size: 0x8, addend: 0x0, symName: '__ZN4core3fmt3num52_$LT$impl$u20$core..fmt..Debug$u20$for$u20$usize$GT$3fmt17h05928cb6857c498fE', symObjAddr: 0x0, symBinAddr: 0x103CB0, symSize: 0x30 }
  - { offsetInCU: 0x4694, offset: 0x53B450, size: 0x8, addend: 0x0, symName: __ZN3syn3lit5value13parse_lit_str17h3c5d218175e31e78E, symObjAddr: 0x180, symBinAddr: 0x103E10, symSize: 0x8C0 }
  - { offsetInCU: 0x5B54, offset: 0x53C910, size: 0x8, addend: 0x0, symName: __ZN3syn3lit5value17parse_lit_str_raw17h168cf9b36ed3dcafE, symObjAddr: 0xA40, symBinAddr: 0x1046D0, symSize: 0x390 }
  - { offsetInCU: 0x6A78, offset: 0x53D834, size: 0x8, addend: 0x0, symName: __ZN3syn3lit5value18parse_lit_byte_str17h114ea87e1e5530f9E, symObjAddr: 0xDD0, symBinAddr: 0x104A60, symSize: 0x5F0 }
  - { offsetInCU: 0x7C16, offset: 0x53E9D2, size: 0x8, addend: 0x0, symName: __ZN3syn3lit5value15parse_lit_c_str17h2e23f382676eb89fE, symObjAddr: 0x13C0, symBinAddr: 0x105050, symSize: 0xDC0 }
  - { offsetInCU: 0x9748, offset: 0x540504, size: 0x8, addend: 0x0, symName: __ZN3syn3lit5value14parse_lit_byte17h8368b76f54c902edE, symObjAddr: 0x2180, symBinAddr: 0x105E10, symSize: 0x360 }
  - { offsetInCU: 0xA118, offset: 0x540ED4, size: 0x8, addend: 0x0, symName: __ZN3syn3lit5value14parse_lit_char17h4662affc67fe4c35E, symObjAddr: 0x24E0, symBinAddr: 0x106170, symSize: 0x540 }
  - { offsetInCU: 0xAB84, offset: 0x541940, size: 0x8, addend: 0x0, symName: __ZN3syn3lit5value11backslash_x17h6af15b4541eecc81E, symObjAddr: 0x2A20, symBinAddr: 0x1066B0, symSize: 0x140 }
  - { offsetInCU: 0xADA9, offset: 0x541B65, size: 0x8, addend: 0x0, symName: __ZN3syn3lit5value11backslash_x17hc9cdb612cbcee4eaE, symObjAddr: 0x2B60, symBinAddr: 0x1067F0, symSize: 0x160 }
  - { offsetInCU: 0xAFBF, offset: 0x541D7B, size: 0x8, addend: 0x0, symName: __ZN3syn3lit5value11backslash_u17h55bb2c22887e188dE, symObjAddr: 0x2CC0, symBinAddr: 0x106950, symSize: 0x320 }
  - { offsetInCU: 0xB6C0, offset: 0x54247C, size: 0x8, addend: 0x0, symName: __ZN3syn3lit5value13parse_lit_int17h099083565c080e1fE, symObjAddr: 0x2FE0, symBinAddr: 0x106C70, symSize: 0x640 }
  - { offsetInCU: 0xCB25, offset: 0x5438E1, size: 0x8, addend: 0x0, symName: __ZN3syn3lit5value15parse_lit_float17h1ae5183bffb9d56bE, symObjAddr: 0x3620, symBinAddr: 0x1072B0, symSize: 0x760 }
  - { offsetInCU: 0xDD9A, offset: 0x544B56, size: 0x8, addend: 0x0, symName: __ZN3syn3lit5value11backslash_u18panic_cold_display17h739e2f3538fc20ddE, symObjAddr: 0x3D80, symBinAddr: 0x1FE7A0, symSize: 0x59 }
  - { offsetInCU: 0x1E, offset: 0x54661A, size: 0x8, addend: 0x0, symName: __ZN4core3ops8function6FnOnce9call_once17h74ffd67680f50378E, symObjAddr: 0x0, symBinAddr: 0x107A10, symSize: 0x140 }
  - { offsetInCU: 0x17C9, offset: 0x547DC5, size: 0x8, addend: 0x0, symName: '__ZN4core3ptr100drop_in_place$LT$core..option..Option$LT$alloc..boxed..Box$LT$syn..path..GenericArgument$GT$$GT$$GT$17h7435c9de74860622E', symObjAddr: 0x140, symBinAddr: 0x107B50, symSize: 0x50 }
  - { offsetInCU: 0x1B69, offset: 0x548165, size: 0x8, addend: 0x0, symName: '__ZN4core3ptr100drop_in_place$LT$syn..punctuated..Punctuated$LT$syn..path..PathSegment$C$syn..token..PathSep$GT$$GT$17hf414cb3581f8337aE', symObjAddr: 0x190, symBinAddr: 0x107BA0, symSize: 0x260 }
  - { offsetInCU: 0x24E3, offset: 0x548ADF, size: 0x8, addend: 0x0, symName: '__ZN4core3ptr102drop_in_place$LT$syn..punctuated..Punctuated$LT$syn..path..GenericArgument$C$syn..token..Comma$GT$$GT$17h39496ba4e6dba6cfE', symObjAddr: 0x3F0, symBinAddr: 0x107E00, symSize: 0xF0 }
  - { offsetInCU: 0x27CC, offset: 0x548DC8, size: 0x8, addend: 0x0, symName: '__ZN4core3ptr103drop_in_place$LT$core..option..Option$LT$alloc..boxed..Box$LT$syn..generics..TypeParamBound$GT$$GT$$GT$17h5974f03e36b1a9c3E', symObjAddr: 0x4E0, symBinAddr: 0x107EF0, symSize: 0x50 }
  - { offsetInCU: 0x29D9, offset: 0x548FD5, size: 0x8, addend: 0x0, symName: '__ZN4core3ptr103drop_in_place$LT$syn..punctuated..Punctuated$LT$syn..generics..GenericParam$C$syn..token..Comma$GT$$GT$17hf42353fa44ed6da8E', symObjAddr: 0x530, symBinAddr: 0x107F40, symSize: 0xF0 }
  - { offsetInCU: 0x2EBB, offset: 0x5494B7, size: 0x8, addend: 0x0, symName: '__ZN4core3ptr104drop_in_place$LT$syn..punctuated..Punctuated$LT$syn..generics..TypeParamBound$C$syn..token..Plus$GT$$GT$17h532f52c4a894b056E', symObjAddr: 0x620, symBinAddr: 0x108030, symSize: 0x230 }
  - { offsetInCU: 0x3799, offset: 0x549D95, size: 0x8, addend: 0x0, symName: '__ZN4core3ptr34drop_in_place$LT$syn..lit..Lit$GT$17h8902f5ff67917034E', symObjAddr: 0x850, symBinAddr: 0x108260, symSize: 0x110 }
  - { offsetInCU: 0x3CD3, offset: 0x54A2CF, size: 0x8, addend: 0x0, symName: '__ZN4core3ptr34drop_in_place$LT$syn..pat..Pat$GT$17h4581eea028ec0969E.llvm.6604562245513491834', symObjAddr: 0x960, symBinAddr: 0x108370, symSize: 0x1000 }
  - { offsetInCU: 0x77F8, offset: 0x54DDF4, size: 0x8, addend: 0x0, symName: '__ZN4core3ptr34drop_in_place$LT$syn..ty..Type$GT$17h369e41ad4a9f1ae0E', symObjAddr: 0x1960, symBinAddr: 0x109370, symSize: 0x460 }
  - { offsetInCU: 0x8A8A, offset: 0x54F086, size: 0x8, addend: 0x0, symName: '__ZN4core3ptr36drop_in_place$LT$syn..expr..Expr$GT$17h0f7fd4c749bae801E', symObjAddr: 0x1DC0, symBinAddr: 0x1097D0, symSize: 0x2770 }
  - { offsetInCU: 0x119BC, offset: 0x557FB8, size: 0x8, addend: 0x0, symName: '__ZN4core3ptr36drop_in_place$LT$syn..mac..Macro$GT$17h4ffde962df30ebe2E', symObjAddr: 0x4530, symBinAddr: 0x10BF40, symSize: 0x40 }
  - { offsetInCU: 0x119F6, offset: 0x557FF2, size: 0x8, addend: 0x0, symName: '__ZN4core3ptr36drop_in_place$LT$syn..path..Path$GT$17habea856181211e1cE', symObjAddr: 0x4570, symBinAddr: 0x10BF80, symSize: 0x220 }
  - { offsetInCU: 0x1232B, offset: 0x558927, size: 0x8, addend: 0x0, symName: '__ZN4core3ptr37drop_in_place$LT$syn..stmt..Block$GT$17hcc21a21cf949414cE', symObjAddr: 0x4790, symBinAddr: 0x10C1A0, symSize: 0xD0 }
  - { offsetInCU: 0x125CF, offset: 0x558BCB, size: 0x8, addend: 0x0, symName: '__ZN4core3ptr38drop_in_place$LT$syn..expr..Member$GT$17h022cbe5553aa40faE', symObjAddr: 0x4860, symBinAddr: 0x10C270, symSize: 0x30 }
  - { offsetInCU: 0x126CC, offset: 0x558CC8, size: 0x8, addend: 0x0, symName: '__ZN4core3ptr39drop_in_place$LT$proc_macro2..Ident$GT$17h8101e88c3ac359d6E', symObjAddr: 0x4890, symBinAddr: 0x10C2A0, symSize: 0x30 }
  - { offsetInCU: 0x127AA, offset: 0x558DA6, size: 0x8, addend: 0x0, symName: '__ZN4core3ptr40drop_in_place$LT$syn..ty..ReturnType$GT$17h02cf41e2fec63d90E', symObjAddr: 0x48C0, symBinAddr: 0x10C2D0, symSize: 0x50 }
  - { offsetInCU: 0x1291C, offset: 0x558F18, size: 0x8, addend: 0x0, symName: '__ZN4core3ptr41drop_in_place$LT$syn..expr..ExprConst$GT$17h725a13e551d9f276E', symObjAddr: 0x4910, symBinAddr: 0x10C320, symSize: 0x180 }
  - { offsetInCU: 0x12E71, offset: 0x55946D, size: 0x8, addend: 0x0, symName: '__ZN4core3ptr41drop_in_place$LT$syn..expr..ExprRange$GT$17h438536f001486768E', symObjAddr: 0x4A90, symBinAddr: 0x10C4A0, symSize: 0x160 }
  - { offsetInCU: 0x133E2, offset: 0x5599DE, size: 0x8, addend: 0x0, symName: '__ZN4core3ptr44drop_in_place$LT$syn..lifetime..Lifetime$GT$17hf0cdec2e9ec456d6E', symObjAddr: 0x4BF0, symBinAddr: 0x10C600, symSize: 0x30 }
  - { offsetInCU: 0x1355B, offset: 0x559B57, size: 0x8, addend: 0x0, symName: '__ZN4core3ptr44drop_in_place$LT$syn..parse..ParseBuffer$GT$17hd0dadba44a19aec2E.llvm.6604562245513491834', symObjAddr: 0x4C20, symBinAddr: 0x10C630, symSize: 0x70 }
  - { offsetInCU: 0x13990, offset: 0x559F8C, size: 0x8, addend: 0x0, symName: '__ZN4core3ptr45drop_in_place$LT$proc_macro2..TokenStream$GT$17h3405f6c513e9f6cbE', symObjAddr: 0x4C90, symBinAddr: 0x10C6A0, symSize: 0x140 }
  - { offsetInCU: 0x13DFF, offset: 0x55A3FB, size: 0x8, addend: 0x0, symName: '__ZN4core3ptr45drop_in_place$LT$syn..generics..TypeParam$GT$17he5eda51070b7de47E', symObjAddr: 0x4DD0, symBinAddr: 0x10C7E0, symSize: 0x230 }
  - { offsetInCU: 0x145FB, offset: 0x55ABF7, size: 0x8, addend: 0x0, symName: '__ZN4core3ptr46drop_in_place$LT$syn..generics..ConstParam$GT$17hab0a58c4af8c549cE', symObjAddr: 0x5000, symBinAddr: 0x10CA10, symSize: 0x150 }
  - { offsetInCU: 0x14A25, offset: 0x55B021, size: 0x8, addend: 0x0, symName: '__ZN4core3ptr47drop_in_place$LT$syn..path..GenericArgument$GT$17h54f8794633f96823E', symObjAddr: 0x5150, symBinAddr: 0x10CB60, symSize: 0x460 }
  - { offsetInCU: 0x1572E, offset: 0x55BD2A, size: 0x8, addend: 0x0, symName: '__ZN4core3ptr49drop_in_place$LT$syn..generics..LifetimeParam$GT$17h41a7c7a290ea6289E', symObjAddr: 0x55B0, symBinAddr: 0x10CFC0, symSize: 0xF0 }
  - { offsetInCU: 0x15AE8, offset: 0x55C0E4, size: 0x8, addend: 0x0, symName: '__ZN4core3ptr50drop_in_place$LT$syn..generics..TypeParamBound$GT$17hcd7771d4c6c221efE', symObjAddr: 0x56A0, symBinAddr: 0x10D0B0, symSize: 0xA0 }
  - { offsetInCU: 0x15C4F, offset: 0x55C24B, size: 0x8, addend: 0x0, symName: '__ZN4core3ptr53drop_in_place$LT$syn..pat..parsing..PatRangeBound$GT$17hcc6099fc140c1b73E', symObjAddr: 0x5740, symBinAddr: 0x10D150, symSize: 0x210 }
  - { offsetInCU: 0x163E2, offset: 0x55C9DE, size: 0x8, addend: 0x0, symName: '__ZN4core3ptr58drop_in_place$LT$alloc..vec..Vec$LT$syn..expr..Arm$GT$$GT$17h1a55df3d2cba1daaE', symObjAddr: 0x5950, symBinAddr: 0x10D360, symSize: 0xD0 }
  - { offsetInCU: 0x1666F, offset: 0x55CC6B, size: 0x8, addend: 0x0, symName: '__ZN4core3ptr59drop_in_place$LT$alloc..boxed..Box$LT$syn..pat..Pat$GT$$GT$17h563b135d87aca8abE', symObjAddr: 0x5A20, symBinAddr: 0x10D430, symSize: 0x50 }
  - { offsetInCU: 0x167CA, offset: 0x55CDC6, size: 0x8, addend: 0x0, symName: '__ZN4core3ptr59drop_in_place$LT$alloc..boxed..Box$LT$syn..ty..Type$GT$$GT$17hffed36bad83adacbE', symObjAddr: 0x5A70, symBinAddr: 0x10D480, symSize: 0x50 }
  - { offsetInCU: 0x16925, offset: 0x55CF21, size: 0x8, addend: 0x0, symName: '__ZN4core3ptr61drop_in_place$LT$alloc..boxed..Box$LT$syn..expr..Expr$GT$$GT$17h01091e47f131475dE', symObjAddr: 0x5AC0, symBinAddr: 0x10D4D0, symSize: 0x50 }
  - { offsetInCU: 0x16AFC, offset: 0x55D0F8, size: 0x8, addend: 0x0, symName: '__ZN4core3ptr61drop_in_place$LT$syn..path..ParenthesizedGenericArguments$GT$17h43d4aac5494326a7E', symObjAddr: 0x5B10, symBinAddr: 0x10D520, symSize: 0x170 }
  - { offsetInCU: 0x170C3, offset: 0x55D6BF, size: 0x8, addend: 0x0, symName: '__ZN4core3ptr63drop_in_place$LT$alloc..boxed..Box$LT$syn..lit..LitRepr$GT$$GT$17hd8839b7fb35ee7afE', symObjAddr: 0x5C80, symBinAddr: 0x10D690, symSize: 0x60 }
  - { offsetInCU: 0x173B8, offset: 0x55D9B4, size: 0x8, addend: 0x0, symName: '__ZN4core3ptr64drop_in_place$LT$alloc..boxed..Box$LT$syn..pat..FieldPat$GT$$GT$17h4980b70a7597cc08E', symObjAddr: 0x5CE0, symBinAddr: 0x10D6F0, symSize: 0x140 }
  - { offsetInCU: 0x17A63, offset: 0x55E05F, size: 0x8, addend: 0x0, symName: '__ZN4core3ptr64drop_in_place$LT$alloc..boxed..Box$LT$syn..ty..BareFnArg$GT$$GT$17h8b34096c620314efE', symObjAddr: 0x5E20, symBinAddr: 0x10D830, symSize: 0x140 }
  - { offsetInCU: 0x17F87, offset: 0x55E583, size: 0x8, addend: 0x0, symName: '__ZN4core3ptr64drop_in_place$LT$alloc..vec..Vec$LT$syn..attr..Attribute$GT$$GT$17h3c8f2a04e701c675E.llvm.6604562245513491834', symObjAddr: 0x5F60, symBinAddr: 0x10D970, symSize: 0xD0 }
  - { offsetInCU: 0x18214, offset: 0x55E810, size: 0x8, addend: 0x0, symName: '__ZN4core3ptr65drop_in_place$LT$core..option..Option$LT$syn..expr..Label$GT$$GT$17h78189e72a8cb7951E', symObjAddr: 0x6030, symBinAddr: 0x10DA40, symSize: 0x30 }
  - { offsetInCU: 0x1834F, offset: 0x55E94B, size: 0x8, addend: 0x0, symName: '__ZN4core3ptr65drop_in_place$LT$core..option..Option$LT$syn..path..QSelf$GT$$GT$17h9b72552ca06b7379E', symObjAddr: 0x6060, symBinAddr: 0x10DA70, symSize: 0x50 }
  - { offsetInCU: 0x184D2, offset: 0x55EACE, size: 0x8, addend: 0x0, symName: '__ZN4core3ptr66drop_in_place$LT$core..option..Option$LT$syn..pat..PatRest$GT$$GT$17h61677cf4ff3a7393E', symObjAddr: 0x60B0, symBinAddr: 0x10DAC0, symSize: 0xE0 }
  - { offsetInCU: 0x18756, offset: 0x55ED52, size: 0x8, addend: 0x0, symName: '__ZN4core3ptr67drop_in_place$LT$alloc..boxed..Box$LT$syn..expr..FieldValue$GT$$GT$17h93aaccf8aa22ef88E', symObjAddr: 0x6190, symBinAddr: 0x10DBA0, symSize: 0x140 }
  - { offsetInCU: 0x18C5A, offset: 0x55F256, size: 0x8, addend: 0x0, symName: '__ZN4core3ptr68drop_in_place$LT$alloc..boxed..Box$LT$syn..path..PathSegment$GT$$GT$17h709dabdc13b58a71E', symObjAddr: 0x62D0, symBinAddr: 0x10DCE0, symSize: 0x190 }
  - { offsetInCU: 0x19338, offset: 0x55F934, size: 0x8, addend: 0x0, symName: '__ZN4core3ptr70drop_in_place$LT$core..option..Option$LT$syn..ty..BareVariadic$GT$$GT$17h45399348ea4b8d55E', symObjAddr: 0x6460, symBinAddr: 0x10DE70, symSize: 0x120 }
  - { offsetInCU: 0x19865, offset: 0x55FE61, size: 0x8, addend: 0x0, symName: '__ZN4core3ptr72drop_in_place$LT$alloc..boxed..Box$LT$syn..path..GenericArgument$GT$$GT$17haa7dd8b716637b54E', symObjAddr: 0x6580, symBinAddr: 0x10DF90, symSize: 0x2B0 }
  - { offsetInCU: 0x1A250, offset: 0x56084C, size: 0x8, addend: 0x0, symName: '__ZN4core3ptr72drop_in_place$LT$core..option..Option$LT$syn..lifetime..Lifetime$GT$$GT$17hfc363ccdd8bd9c32E', symObjAddr: 0x6830, symBinAddr: 0x10E240, symSize: 0x30 }
  - { offsetInCU: 0x1A36C, offset: 0x560968, size: 0x8, addend: 0x0, symName: '__ZN4core3ptr73drop_in_place$LT$alloc..boxed..Box$LT$syn..generics..GenericParam$GT$$GT$17hf6951dcd5ae07324E', symObjAddr: 0x6860, symBinAddr: 0x10E270, symSize: 0x80 }
  - { offsetInCU: 0x1A4E4, offset: 0x560AE0, size: 0x8, addend: 0x0, symName: '__ZN4core3ptr75drop_in_place$LT$alloc..boxed..Box$LT$syn..generics..TypeParamBound$GT$$GT$17he61c00698a311a34E', symObjAddr: 0x68E0, symBinAddr: 0x10E2F0, symSize: 0x160 }
  - { offsetInCU: 0x1AAAA, offset: 0x5610A6, size: 0x8, addend: 0x0, symName: '__ZN4core3ptr86drop_in_place$LT$syn..punctuated..Punctuated$LT$syn..pat..Pat$C$syn..token..Or$GT$$GT$17h8e9173df21a44316E', symObjAddr: 0x6A40, symBinAddr: 0x10E450, symSize: 0x120 }
  - { offsetInCU: 0x1AF07, offset: 0x561503, size: 0x8, addend: 0x0, symName: '__ZN4core3ptr87drop_in_place$LT$core..option..Option$LT$alloc..boxed..Box$LT$syn..pat..Pat$GT$$GT$$GT$17hd7b7c69f601b3926E', symObjAddr: 0x6B60, symBinAddr: 0x10E570, symSize: 0x50 }
  - { offsetInCU: 0x1B079, offset: 0x561675, size: 0x8, addend: 0x0, symName: '__ZN4core3ptr87drop_in_place$LT$core..option..Option$LT$alloc..boxed..Box$LT$syn..ty..Type$GT$$GT$$GT$17hd74f5d971aec2972E', symObjAddr: 0x6BB0, symBinAddr: 0x10E5C0, symSize: 0x50 }
  - { offsetInCU: 0x1B1EB, offset: 0x5617E7, size: 0x8, addend: 0x0, symName: '__ZN4core3ptr89drop_in_place$LT$core..option..Option$LT$alloc..boxed..Box$LT$syn..expr..Expr$GT$$GT$$GT$17h8e135ac1a25a2dc5E', symObjAddr: 0x6C00, symBinAddr: 0x10E610, symSize: 0x50 }
  - { offsetInCU: 0x1B39B, offset: 0x561997, size: 0x8, addend: 0x0, symName: '__ZN4core3ptr89drop_in_place$LT$syn..punctuated..Punctuated$LT$syn..pat..Pat$C$syn..token..Comma$GT$$GT$17h8d60e47f3fb1f87aE', symObjAddr: 0x6C50, symBinAddr: 0x10E660, symSize: 0x120 }
  - { offsetInCU: 0x1B7E1, offset: 0x561DDD, size: 0x8, addend: 0x0, symName: '__ZN4core3ptr89drop_in_place$LT$syn..punctuated..Punctuated$LT$syn..ty..Type$C$syn..token..Comma$GT$$GT$17ha919b3114742fb9dE', symObjAddr: 0x6D70, symBinAddr: 0x10E780, symSize: 0x120 }
  - { offsetInCU: 0x1BC69, offset: 0x562265, size: 0x8, addend: 0x0, symName: '__ZN4core3ptr91drop_in_place$LT$syn..punctuated..Punctuated$LT$syn..expr..Expr$C$syn..token..Comma$GT$$GT$17h4f39b83dc86a4159E', symObjAddr: 0x6E90, symBinAddr: 0x10E8A0, symSize: 0x120 }
  - { offsetInCU: 0x1C0C6, offset: 0x5626C2, size: 0x8, addend: 0x0, symName: '__ZN4core3ptr94drop_in_place$LT$syn..punctuated..Punctuated$LT$syn..pat..FieldPat$C$syn..token..Comma$GT$$GT$17h112950ea198c8281E', symObjAddr: 0x6FB0, symBinAddr: 0x10E9C0, symSize: 0xF0 }
  - { offsetInCU: 0x1C390, offset: 0x56298C, size: 0x8, addend: 0x0, symName: '__ZN4core3ptr94drop_in_place$LT$syn..punctuated..Punctuated$LT$syn..ty..BareFnArg$C$syn..token..Comma$GT$$GT$17h1c7b44310f06243dE', symObjAddr: 0x70A0, symBinAddr: 0x10EAB0, symSize: 0xF0 }
  - { offsetInCU: 0x1C65A, offset: 0x562C56, size: 0x8, addend: 0x0, symName: '__ZN4core3ptr96drop_in_place$LT$core..option..Option$LT$alloc..boxed..Box$LT$syn..path..PathSegment$GT$$GT$$GT$17hb447d0f626c86a4eE', symObjAddr: 0x7190, symBinAddr: 0x10EBA0, symSize: 0x180 }
  - { offsetInCU: 0x1CCEB, offset: 0x5632E7, size: 0x8, addend: 0x0, symName: '__ZN4core3ptr97drop_in_place$LT$syn..punctuated..Punctuated$LT$syn..expr..FieldValue$C$syn..token..Comma$GT$$GT$17h31b81f7462228dcbE', symObjAddr: 0x7310, symBinAddr: 0x10ED20, symSize: 0xF0 }
  - { offsetInCU: 0x1D031, offset: 0x56362D, size: 0x8, addend: 0x0, symName: '__ZN4core3ptr98drop_in_place$LT$syn..punctuated..Punctuated$LT$syn..lifetime..Lifetime$C$syn..token..Plus$GT$$GT$17h0f8fc5f20f465f47E', symObjAddr: 0x7400, symBinAddr: 0x10EE10, symSize: 0xC0 }
  - { offsetInCU: 0x211ED, offset: 0x5677E9, size: 0x8, addend: 0x0, symName: __ZN4core3ops8function6FnOnce9call_once17h74ffd67680f50378E, symObjAddr: 0x0, symBinAddr: 0x107A10, symSize: 0x140 }
  - { offsetInCU: 0x21B96, offset: 0x568192, size: 0x8, addend: 0x0, symName: __ZN3syn3pat7parsing14multi_pat_impl17h047667a96fb4a7f8E, symObjAddr: 0x74C0, symBinAddr: 0x10EED0, symSize: 0x410 }
  - { offsetInCU: 0x2255A, offset: 0x568B56, size: 0x8, addend: 0x0, symName: __ZN3syn3pat7parsing36pat_path_or_macro_or_struct_or_range17ha6b9b4e6671af2c5E, symObjAddr: 0x78D0, symBinAddr: 0x10F2E0, symSize: 0x2530 }
  - { offsetInCU: 0x26926, offset: 0x56CF22, size: 0x8, addend: 0x0, symName: __ZN3syn3pat7parsing8pat_wild17h3163b2cc2476a134E, symObjAddr: 0x9E00, symBinAddr: 0x111810, symSize: 0xA0 }
  - { offsetInCU: 0x26A31, offset: 0x56D02D, size: 0x8, addend: 0x0, symName: __ZN3syn3pat7parsing7pat_box17h176f8a2e65bc6ac7E, symObjAddr: 0x9EA0, symBinAddr: 0x1118B0, symSize: 0x220 }
  - { offsetInCU: 0x26D86, offset: 0x56D382, size: 0x8, addend: 0x0, symName: __ZN3syn3pat7parsing9pat_ident17h29c4fea1c82c143bE, symObjAddr: 0xA0C0, symBinAddr: 0x111AD0, symSize: 0x5C0 }
  - { offsetInCU: 0x277A7, offset: 0x56DDA3, size: 0x8, addend: 0x0, symName: __ZN3syn3pat7parsing19pat_range_half_open17h9918d3b6ea18cb21E, symObjAddr: 0xA680, symBinAddr: 0x112090, symSize: 0x380 }
  - { offsetInCU: 0x27B49, offset: 0x56E145, size: 0x8, addend: 0x0, symName: __ZN3syn3pat7parsing18pat_paren_or_tuple17h5846a503fc9a892bE, symObjAddr: 0xAA00, symBinAddr: 0x112410, symSize: 0x680 }
  - { offsetInCU: 0x282D4, offset: 0x56E8D0, size: 0x8, addend: 0x0, symName: __ZN3syn3pat7parsing13pat_reference17he9c12140d78c642fE, symObjAddr: 0xB080, symBinAddr: 0x112A90, symSize: 0x2A0 }
  - { offsetInCU: 0x28684, offset: 0x56EC80, size: 0x8, addend: 0x0, symName: __ZN3syn3pat7parsing16pat_lit_or_range17h9d56a323b0b14005E, symObjAddr: 0xB320, symBinAddr: 0x112D30, symSize: 0x610 }
  - { offsetInCU: 0x28B5B, offset: 0x56F157, size: 0x8, addend: 0x0, symName: __ZN3syn3pat7parsing15pat_range_bound17ha07cbae00643b70eE, symObjAddr: 0xB930, symBinAddr: 0x113340, symSize: 0x8D0 }
  - { offsetInCU: 0x2B325, offset: 0x571921, size: 0x8, addend: 0x0, symName: __ZN3syn3pat7parsing9pat_slice17heed66f754c4e282eE, symObjAddr: 0xC200, symBinAddr: 0x113C10, symSize: 0x720 }
  - { offsetInCU: 0x2BC23, offset: 0x57221F, size: 0x8, addend: 0x0, symName: __ZN3syn3pat7parsing9pat_const17ha05adebc1fdfb4e6E, symObjAddr: 0xC920, symBinAddr: 0x114330, symSize: 0x55E }
  - { offsetInCU: 0x1E, offset: 0x58186E, size: 0x8, addend: 0x0, symName: '__ZN4core3ptr100drop_in_place$LT$core..option..Option$LT$alloc..boxed..Box$LT$syn..path..GenericArgument$GT$$GT$$GT$17h7435c9de74860622E', symObjAddr: 0x0, symBinAddr: 0x114890, symSize: 0x50 }
  - { offsetInCU: 0x16A1, offset: 0x582EF1, size: 0x8, addend: 0x0, symName: '__ZN4core3ptr100drop_in_place$LT$core..option..Option$LT$alloc..boxed..Box$LT$syn..path..GenericArgument$GT$$GT$$GT$17h7435c9de74860622E', symObjAddr: 0x0, symBinAddr: 0x114890, symSize: 0x50 }
  - { offsetInCU: 0x192A, offset: 0x58317A, size: 0x8, addend: 0x0, symName: '__ZN4core3ptr100drop_in_place$LT$syn..punctuated..Punctuated$LT$syn..path..PathSegment$C$syn..token..PathSep$GT$$GT$17hf414cb3581f8337aE', symObjAddr: 0x50, symBinAddr: 0x1148E0, symSize: 0x140 }
  - { offsetInCU: 0x1E5E, offset: 0x5836AE, size: 0x8, addend: 0x0, symName: '__ZN4core3ptr103drop_in_place$LT$core..option..Option$LT$alloc..boxed..Box$LT$syn..generics..TypeParamBound$GT$$GT$$GT$17h5974f03e36b1a9c3E', symObjAddr: 0x190, symBinAddr: 0x114A20, symSize: 0x50 }
  - { offsetInCU: 0x206B, offset: 0x5838BB, size: 0x8, addend: 0x0, symName: '__ZN4core3ptr103drop_in_place$LT$syn..punctuated..Punctuated$LT$syn..generics..GenericParam$C$syn..token..Comma$GT$$GT$17hf42353fa44ed6da8E', symObjAddr: 0x1E0, symBinAddr: 0x114A70, symSize: 0xF0 }
  - { offsetInCU: 0x254D, offset: 0x583D9D, size: 0x8, addend: 0x0, symName: '__ZN4core3ptr104drop_in_place$LT$syn..punctuated..Punctuated$LT$syn..generics..TypeParamBound$C$syn..token..Plus$GT$$GT$17h532f52c4a894b056E', symObjAddr: 0x2D0, symBinAddr: 0x114B60, symSize: 0x230 }
  - { offsetInCU: 0x2E2B, offset: 0x58467B, size: 0x8, addend: 0x0, symName: '__ZN4core3ptr34drop_in_place$LT$syn..lit..Lit$GT$17h8902f5ff67917034E', symObjAddr: 0x500, symBinAddr: 0x114D90, symSize: 0x110 }
  - { offsetInCU: 0x3384, offset: 0x584BD4, size: 0x8, addend: 0x0, symName: '__ZN4core3ptr34drop_in_place$LT$syn..pat..Pat$GT$17h4581eea028ec0969E', symObjAddr: 0x610, symBinAddr: 0x114EA0, symSize: 0x1000 }
  - { offsetInCU: 0x6D54, offset: 0x5885A4, size: 0x8, addend: 0x0, symName: '__ZN4core3ptr34drop_in_place$LT$syn..ty..Type$GT$17h369e41ad4a9f1ae0E', symObjAddr: 0x1610, symBinAddr: 0x115EA0, symSize: 0x340 }
  - { offsetInCU: 0x7C41, offset: 0x589491, size: 0x8, addend: 0x0, symName: '__ZN4core3ptr36drop_in_place$LT$syn..expr..Expr$GT$17h0f7fd4c749bae801E', symObjAddr: 0x1950, symBinAddr: 0x1161E0, symSize: 0x28E0 }
  - { offsetInCU: 0x110D3, offset: 0x592923, size: 0x8, addend: 0x0, symName: '__ZN4core3ptr36drop_in_place$LT$syn..mac..Macro$GT$17h4ffde962df30ebe2E', symObjAddr: 0x4230, symBinAddr: 0x118AC0, symSize: 0x40 }
  - { offsetInCU: 0x11189, offset: 0x5929D9, size: 0x8, addend: 0x0, symName: '__ZN4core3ptr36drop_in_place$LT$syn..path..Path$GT$17habea856181211e1cE', symObjAddr: 0x4270, symBinAddr: 0x118B00, symSize: 0x220 }
  - { offsetInCU: 0x11ABE, offset: 0x59330E, size: 0x8, addend: 0x0, symName: '__ZN4core3ptr37drop_in_place$LT$syn..stmt..Block$GT$17hcc21a21cf949414cE', symObjAddr: 0x4490, symBinAddr: 0x118D20, symSize: 0xD0 }
  - { offsetInCU: 0x11D62, offset: 0x5935B2, size: 0x8, addend: 0x0, symName: '__ZN4core3ptr38drop_in_place$LT$syn..expr..Member$GT$17h022cbe5553aa40faE', symObjAddr: 0x4560, symBinAddr: 0x118DF0, symSize: 0x30 }
  - { offsetInCU: 0x11E5F, offset: 0x5936AF, size: 0x8, addend: 0x0, symName: '__ZN4core3ptr38drop_in_place$LT$syn..ty..TypePath$GT$17he8f590b78af8d8f3E', symObjAddr: 0x4590, symBinAddr: 0x118E20, symSize: 0x80 }
  - { offsetInCU: 0x11FDE, offset: 0x59382E, size: 0x8, addend: 0x0, symName: '__ZN4core3ptr39drop_in_place$LT$proc_macro2..Ident$GT$17h8101e88c3ac359d6E', symObjAddr: 0x4610, symBinAddr: 0x118EA0, symSize: 0x30 }
  - { offsetInCU: 0x120FA, offset: 0x59394A, size: 0x8, addend: 0x0, symName: '__ZN4core3ptr39drop_in_place$LT$syn..ty..BareFnArg$GT$17hac0a1b8fd6f7ad3cE', symObjAddr: 0x4640, symBinAddr: 0x118ED0, symSize: 0x110 }
  - { offsetInCU: 0x124C6, offset: 0x593D16, size: 0x8, addend: 0x0, symName: '__ZN4core3ptr40drop_in_place$LT$syn..ty..ReturnType$GT$17h02cf41e2fec63d90E', symObjAddr: 0x4750, symBinAddr: 0x118FE0, symSize: 0x50 }
  - { offsetInCU: 0x1278D, offset: 0x593FDD, size: 0x8, addend: 0x0, symName: '__ZN4core3ptr40drop_in_place$LT$syn..ty..TypeBareFn$GT$17h6adb001e6a03e7b0E', symObjAddr: 0x47A0, symBinAddr: 0x119030, symSize: 0x220 }
  - { offsetInCU: 0x130DF, offset: 0x59492F, size: 0x8, addend: 0x0, symName: '__ZN4core3ptr41drop_in_place$LT$syn..expr..ExprConst$GT$17h725a13e551d9f276E', symObjAddr: 0x49C0, symBinAddr: 0x119250, symSize: 0x180 }
  - { offsetInCU: 0x13634, offset: 0x594E84, size: 0x8, addend: 0x0, symName: '__ZN4core3ptr44drop_in_place$LT$syn..lifetime..Lifetime$GT$17hf0cdec2e9ec456d6E', symObjAddr: 0x4B40, symBinAddr: 0x1193D0, symSize: 0x30 }
  - { offsetInCU: 0x137AD, offset: 0x594FFD, size: 0x8, addend: 0x0, symName: '__ZN4core3ptr44drop_in_place$LT$syn..parse..ParseBuffer$GT$17hd0dadba44a19aec2E', symObjAddr: 0x4B70, symBinAddr: 0x119400, symSize: 0x70 }
  - { offsetInCU: 0x13BE2, offset: 0x595432, size: 0x8, addend: 0x0, symName: '__ZN4core3ptr45drop_in_place$LT$proc_macro2..TokenStream$GT$17h3405f6c513e9f6cbE', symObjAddr: 0x4BE0, symBinAddr: 0x119470, symSize: 0x140 }
  - { offsetInCU: 0x14051, offset: 0x5958A1, size: 0x8, addend: 0x0, symName: '__ZN4core3ptr45drop_in_place$LT$syn..generics..TypeParam$GT$17he5eda51070b7de47E', symObjAddr: 0x4D20, symBinAddr: 0x1195B0, symSize: 0x230 }
  - { offsetInCU: 0x1484D, offset: 0x59609D, size: 0x8, addend: 0x0, symName: '__ZN4core3ptr45drop_in_place$LT$syn..path..PathArguments$GT$17h7160021b3fdea550E', symObjAddr: 0x4F50, symBinAddr: 0x1197E0, symSize: 0x170 }
  - { offsetInCU: 0x14CEA, offset: 0x59653A, size: 0x8, addend: 0x0, symName: '__ZN4core3ptr46drop_in_place$LT$syn..generics..ConstParam$GT$17hab0a58c4af8c549cE', symObjAddr: 0x50C0, symBinAddr: 0x119950, symSize: 0x150 }
  - { offsetInCU: 0x15114, offset: 0x596964, size: 0x8, addend: 0x0, symName: '__ZN4core3ptr47drop_in_place$LT$syn..path..GenericArgument$GT$17h54f8794633f96823E', symObjAddr: 0x5210, symBinAddr: 0x119AA0, symSize: 0x4A0 }
  - { offsetInCU: 0x161BB, offset: 0x597A0B, size: 0x8, addend: 0x0, symName: '__ZN4core3ptr49drop_in_place$LT$syn..generics..LifetimeParam$GT$17h41a7c7a290ea6289E', symObjAddr: 0x56B0, symBinAddr: 0x119F40, symSize: 0xF0 }
  - { offsetInCU: 0x16575, offset: 0x597DC5, size: 0x8, addend: 0x0, symName: '__ZN4core3ptr50drop_in_place$LT$syn..generics..TypeParamBound$GT$17hcd7771d4c6c221efE', symObjAddr: 0x57A0, symBinAddr: 0x11A030, symSize: 0xA0 }
  - { offsetInCU: 0x166DC, offset: 0x597F2C, size: 0x8, addend: 0x0, symName: '__ZN4core3ptr58drop_in_place$LT$alloc..vec..Vec$LT$syn..expr..Arm$GT$$GT$17h1a55df3d2cba1daaE', symObjAddr: 0x5840, symBinAddr: 0x11A0D0, symSize: 0xD0 }
  - { offsetInCU: 0x16969, offset: 0x5981B9, size: 0x8, addend: 0x0, symName: '__ZN4core3ptr59drop_in_place$LT$alloc..boxed..Box$LT$syn..pat..Pat$GT$$GT$17h563b135d87aca8abE', symObjAddr: 0x5910, symBinAddr: 0x11A1A0, symSize: 0x50 }
  - { offsetInCU: 0x16AC4, offset: 0x598314, size: 0x8, addend: 0x0, symName: '__ZN4core3ptr59drop_in_place$LT$alloc..boxed..Box$LT$syn..ty..Type$GT$$GT$17hffed36bad83adacbE', symObjAddr: 0x5960, symBinAddr: 0x11A1F0, symSize: 0x50 }
  - { offsetInCU: 0x16C1F, offset: 0x59846F, size: 0x8, addend: 0x0, symName: '__ZN4core3ptr61drop_in_place$LT$alloc..boxed..Box$LT$syn..expr..Expr$GT$$GT$17h01091e47f131475dE', symObjAddr: 0x59B0, symBinAddr: 0x11A240, symSize: 0x50 }
  - { offsetInCU: 0x16DF6, offset: 0x598646, size: 0x8, addend: 0x0, symName: '__ZN4core3ptr61drop_in_place$LT$syn..path..ParenthesizedGenericArguments$GT$17h43d4aac5494326a7E', symObjAddr: 0x5A00, symBinAddr: 0x11A290, symSize: 0x170 }
  - { offsetInCU: 0x173BD, offset: 0x598C0D, size: 0x8, addend: 0x0, symName: '__ZN4core3ptr62drop_in_place$LT$syn..path..AngleBracketedGenericArguments$GT$17hc5b69f68243636ddE', symObjAddr: 0x5B70, symBinAddr: 0x11A400, symSize: 0x120 }
  - { offsetInCU: 0x177D3, offset: 0x599023, size: 0x8, addend: 0x0, symName: '__ZN4core3ptr63drop_in_place$LT$alloc..boxed..Box$LT$syn..lit..LitRepr$GT$$GT$17hd8839b7fb35ee7afE', symObjAddr: 0x5C90, symBinAddr: 0x11A520, symSize: 0x60 }
  - { offsetInCU: 0x17AC8, offset: 0x599318, size: 0x8, addend: 0x0, symName: '__ZN4core3ptr64drop_in_place$LT$alloc..boxed..Box$LT$syn..pat..FieldPat$GT$$GT$17h4980b70a7597cc08E', symObjAddr: 0x5CF0, symBinAddr: 0x11A580, symSize: 0x140 }
  - { offsetInCU: 0x18135, offset: 0x599985, size: 0x8, addend: 0x0, symName: '__ZN4core3ptr64drop_in_place$LT$alloc..boxed..Box$LT$syn..ty..BareFnArg$GT$$GT$17h8b34096c620314efE', symObjAddr: 0x5E30, symBinAddr: 0x11A6C0, symSize: 0x140 }
  - { offsetInCU: 0x18646, offset: 0x599E96, size: 0x8, addend: 0x0, symName: '__ZN4core3ptr64drop_in_place$LT$alloc..vec..Vec$LT$syn..attr..Attribute$GT$$GT$17h3c8f2a04e701c675E', symObjAddr: 0x5F70, symBinAddr: 0x11A800, symSize: 0xD0 }
  - { offsetInCU: 0x188D3, offset: 0x59A123, size: 0x8, addend: 0x0, symName: '__ZN4core3ptr65drop_in_place$LT$core..option..Option$LT$syn..expr..Label$GT$$GT$17h78189e72a8cb7951E', symObjAddr: 0x6040, symBinAddr: 0x11A8D0, symSize: 0x30 }
  - { offsetInCU: 0x18A0E, offset: 0x59A25E, size: 0x8, addend: 0x0, symName: '__ZN4core3ptr65drop_in_place$LT$core..option..Option$LT$syn..path..QSelf$GT$$GT$17h9b72552ca06b7379E', symObjAddr: 0x6070, symBinAddr: 0x11A900, symSize: 0x50 }
  - { offsetInCU: 0x18B91, offset: 0x59A3E1, size: 0x8, addend: 0x0, symName: '__ZN4core3ptr66drop_in_place$LT$core..option..Option$LT$syn..pat..PatRest$GT$$GT$17h61677cf4ff3a7393E', symObjAddr: 0x60C0, symBinAddr: 0x11A950, symSize: 0xE0 }
  - { offsetInCU: 0x18E15, offset: 0x59A665, size: 0x8, addend: 0x0, symName: '__ZN4core3ptr67drop_in_place$LT$alloc..boxed..Box$LT$syn..expr..FieldValue$GT$$GT$17h93aaccf8aa22ef88E', symObjAddr: 0x61A0, symBinAddr: 0x11AA30, symSize: 0x140 }
  - { offsetInCU: 0x19319, offset: 0x59AB69, size: 0x8, addend: 0x0, symName: '__ZN4core3ptr68drop_in_place$LT$alloc..boxed..Box$LT$syn..path..PathSegment$GT$$GT$17h709dabdc13b58a71E', symObjAddr: 0x62E0, symBinAddr: 0x11AB70, symSize: 0x190 }
  - { offsetInCU: 0x199F7, offset: 0x59B247, size: 0x8, addend: 0x0, symName: '__ZN4core3ptr70drop_in_place$LT$core..option..Option$LT$syn..ty..BareVariadic$GT$$GT$17h45399348ea4b8d55E', symObjAddr: 0x6470, symBinAddr: 0x11AD00, symSize: 0x120 }
  - { offsetInCU: 0x19F24, offset: 0x59B774, size: 0x8, addend: 0x0, symName: '__ZN4core3ptr72drop_in_place$LT$alloc..boxed..Box$LT$syn..path..GenericArgument$GT$$GT$17haa7dd8b716637b54E', symObjAddr: 0x6590, symBinAddr: 0x11AE20, symSize: 0x2B0 }
  - { offsetInCU: 0x1A8AF, offset: 0x59C0FF, size: 0x8, addend: 0x0, symName: '__ZN4core3ptr72drop_in_place$LT$core..option..Option$LT$syn..lifetime..Lifetime$GT$$GT$17hfc363ccdd8bd9c32E', symObjAddr: 0x6840, symBinAddr: 0x11B0D0, symSize: 0x30 }
  - { offsetInCU: 0x1A9CB, offset: 0x59C21B, size: 0x8, addend: 0x0, symName: '__ZN4core3ptr73drop_in_place$LT$alloc..boxed..Box$LT$syn..generics..GenericParam$GT$$GT$17hf6951dcd5ae07324E', symObjAddr: 0x6870, symBinAddr: 0x11B100, symSize: 0x80 }
  - { offsetInCU: 0x1AB43, offset: 0x59C393, size: 0x8, addend: 0x0, symName: '__ZN4core3ptr75drop_in_place$LT$alloc..boxed..Box$LT$syn..generics..TypeParamBound$GT$$GT$17he61c00698a311a34E', symObjAddr: 0x68F0, symBinAddr: 0x11B180, symSize: 0x160 }
  - { offsetInCU: 0x1B109, offset: 0x59C959, size: 0x8, addend: 0x0, symName: '__ZN4core3ptr86drop_in_place$LT$syn..punctuated..Punctuated$LT$syn..pat..Pat$C$syn..token..Or$GT$$GT$17h8e9173df21a44316E', symObjAddr: 0x6A50, symBinAddr: 0x11B2E0, symSize: 0x120 }
  - { offsetInCU: 0x1B54F, offset: 0x59CD9F, size: 0x8, addend: 0x0, symName: '__ZN4core3ptr87drop_in_place$LT$core..option..Option$LT$alloc..boxed..Box$LT$syn..pat..Pat$GT$$GT$$GT$17hd7b7c69f601b3926E', symObjAddr: 0x6B70, symBinAddr: 0x11B400, symSize: 0x50 }
  - { offsetInCU: 0x1B6C1, offset: 0x59CF11, size: 0x8, addend: 0x0, symName: '__ZN4core3ptr87drop_in_place$LT$core..option..Option$LT$alloc..boxed..Box$LT$syn..ty..Type$GT$$GT$$GT$17hd74f5d971aec2972E', symObjAddr: 0x6BC0, symBinAddr: 0x11B450, symSize: 0x50 }
  - { offsetInCU: 0x1B833, offset: 0x59D083, size: 0x8, addend: 0x0, symName: '__ZN4core3ptr89drop_in_place$LT$core..option..Option$LT$alloc..boxed..Box$LT$syn..expr..Expr$GT$$GT$$GT$17h8e135ac1a25a2dc5E', symObjAddr: 0x6C10, symBinAddr: 0x11B4A0, symSize: 0x50 }
  - { offsetInCU: 0x1B9E3, offset: 0x59D233, size: 0x8, addend: 0x0, symName: '__ZN4core3ptr89drop_in_place$LT$syn..punctuated..Punctuated$LT$syn..pat..Pat$C$syn..token..Comma$GT$$GT$17h8d60e47f3fb1f87aE', symObjAddr: 0x6C60, symBinAddr: 0x11B4F0, symSize: 0x120 }
  - { offsetInCU: 0x1BE40, offset: 0x59D690, size: 0x8, addend: 0x0, symName: '__ZN4core3ptr89drop_in_place$LT$syn..punctuated..Punctuated$LT$syn..ty..Type$C$syn..token..Comma$GT$$GT$17ha919b3114742fb9dE', symObjAddr: 0x6D80, symBinAddr: 0x11B610, symSize: 0x120 }
  - { offsetInCU: 0x1C28A, offset: 0x59DADA, size: 0x8, addend: 0x0, symName: '__ZN4core3ptr90drop_in_place$LT$core..option..Option$LT$syn..path..AngleBracketedGenericArguments$GT$$GT$17h80d9a5f0818c8bd9E', symObjAddr: 0x6EA0, symBinAddr: 0x11B730, symSize: 0x130 }
  - { offsetInCU: 0x1C6F5, offset: 0x59DF45, size: 0x8, addend: 0x0, symName: '__ZN4core3ptr91drop_in_place$LT$syn..punctuated..Punctuated$LT$syn..expr..Expr$C$syn..token..Comma$GT$$GT$17h4f39b83dc86a4159E', symObjAddr: 0x6FD0, symBinAddr: 0x11B860, symSize: 0x120 }
  - { offsetInCU: 0x1CB52, offset: 0x59E3A2, size: 0x8, addend: 0x0, symName: '__ZN4core3ptr92drop_in_place$LT$core..option..Option$LT$alloc..boxed..Box$LT$syn..ty..BareFnArg$GT$$GT$$GT$17ha02746b13f393dbcE', symObjAddr: 0x70F0, symBinAddr: 0x11B980, symSize: 0x50 }
  - { offsetInCU: 0x1CCC4, offset: 0x59E514, size: 0x8, addend: 0x0, symName: '__ZN4core3ptr94drop_in_place$LT$syn..punctuated..Punctuated$LT$syn..pat..FieldPat$C$syn..token..Comma$GT$$GT$17h112950ea198c8281E', symObjAddr: 0x7140, symBinAddr: 0x11B9D0, symSize: 0xF0 }
  - { offsetInCU: 0x1CF8E, offset: 0x59E7DE, size: 0x8, addend: 0x0, symName: '__ZN4core3ptr94drop_in_place$LT$syn..punctuated..Punctuated$LT$syn..ty..BareFnArg$C$syn..token..Comma$GT$$GT$17h1c7b44310f06243dE', symObjAddr: 0x7230, symBinAddr: 0x11BAC0, symSize: 0xF0 }
  - { offsetInCU: 0x1D258, offset: 0x59EAA8, size: 0x8, addend: 0x0, symName: '__ZN4core3ptr96drop_in_place$LT$core..option..Option$LT$alloc..boxed..Box$LT$syn..path..PathSegment$GT$$GT$$GT$17hb447d0f626c86a4eE', symObjAddr: 0x7320, symBinAddr: 0x11BBB0, symSize: 0x90 }
  - { offsetInCU: 0x1D4DA, offset: 0x59ED2A, size: 0x8, addend: 0x0, symName: '__ZN4core3ptr97drop_in_place$LT$syn..punctuated..Punctuated$LT$syn..expr..FieldValue$C$syn..token..Comma$GT$$GT$17h31b81f7462228dcbE', symObjAddr: 0x73B0, symBinAddr: 0x11BC40, symSize: 0xF0 }
  - { offsetInCU: 0x1D7A4, offset: 0x59EFF4, size: 0x8, addend: 0x0, symName: '__ZN4core3ptr98drop_in_place$LT$alloc..vec..Vec$LT$$LP$syn..path..GenericArgument$C$syn..token..Comma$RP$$GT$$GT$17h0657ff261f33b640E', symObjAddr: 0x74A0, symBinAddr: 0x11BD30, symSize: 0xD0 }
  - { offsetInCU: 0x1DAAD, offset: 0x59F2FD, size: 0x8, addend: 0x0, symName: '__ZN4core3ptr98drop_in_place$LT$syn..punctuated..Punctuated$LT$syn..lifetime..Lifetime$C$syn..token..Plus$GT$$GT$17h0f8fc5f20f465f47E', symObjAddr: 0x7570, symBinAddr: 0x11BE00, symSize: 0xC0 }
  - { offsetInCU: 0x2273E, offset: 0x5A3F8E, size: 0x8, addend: 0x0, symName: __ZN3syn2ty7parsing8ambig_ty17hc9eb00e08bc74836E, symObjAddr: 0x7630, symBinAddr: 0x11BEC0, symSize: 0x41C0 }
  - { offsetInCU: 0x2C191, offset: 0x5AD9E1, size: 0x8, addend: 0x0, symName: __ZN3syn2ty7parsing17parse_bare_fn_arg17ha417bfcad3ad9c3cE, symObjAddr: 0xB7F0, symBinAddr: 0x120080, symSize: 0xD80 }
  - { offsetInCU: 0x2E2CD, offset: 0x5AFB1D, size: 0x8, addend: 0x0, symName: __ZN3syn2ty7parsing19parse_bare_variadic17hf15461e356619008E, symObjAddr: 0xC570, symBinAddr: 0x120E00, symSize: 0x5B2 }
  - { offsetInCU: 0x1E, offset: 0x5BF90B, size: 0x8, addend: 0x0, symName: '__ZN101_$LT$core..iter..sources..empty..Empty$LT$T$GT$$u20$as$u20$core..iter..traits..iterator..Iterator$GT$4next17haeeca0e79a197665E', symObjAddr: 0x0, symBinAddr: 0x1213C0, symSize: 0x10 }
