---
triple:          'x86_64-apple-darwin'
binary-path:     "/Users/justinlanouette/Chaos/ChaöS-Token/hello_world/target/release/deps/libzerocopy_derive-7cc1cc351fd37f9e.dylib"
relocations:
  - { offsetInCU: 0x1E, offset: 0x1E, size: 0x8, addend: 0x0, symName: __ZN10proc_macro6bridge6client14HandleCounters3get17h2c76d49220b98e92E, symObjAddr: 0x0, symBinAddr: 0x1100, symSize: 0x10 }
  - { offsetInCU: 0x40, offset: 0x40, size: 0x8, addend: 0x0, symName: ___rustc_proc_macro_decls_772b819b79fe2b51__, symObjAddr: 0x11E50, symBinAddr: 0x264700, symSize: 0x0 }
  - { offsetInCU: 0x4E2, offset: 0x4E2, size: 0x8, addend: 0x0, symName: __ZN15zerocopy_derive19derive_known_layout17ha9011495a7ecc6b5E, symObjAddr: 0x7E80, symBinAddr: 0x8F80, symSize: 0x2220 }
  - { offsetInCU: 0x23E3, offset: 0x23E3, size: 0x8, addend: 0x0, symName: __ZN15zerocopy_derive18derive_from_zeroes17he5843a8c0e7b3a5dE, symObjAddr: 0xA0A0, symBinAddr: 0xB1A0, symSize: 0x6A0 }
  - { offsetInCU: 0x3DF6, offset: 0x3DF6, size: 0x8, addend: 0x0, symName: __ZN15zerocopy_derive17derive_from_bytes17h685904cae9a26834E, symObjAddr: 0xA740, symBinAddr: 0xB840, symSize: 0x6E0 }
  - { offsetInCU: 0x53C0, offset: 0x53C0, size: 0x8, addend: 0x0, symName: __ZN15zerocopy_derive15derive_as_bytes17h3bd2d553341c0a60E, symObjAddr: 0xAE20, symBinAddr: 0xBF20, symSize: 0x960 }
  - { offsetInCU: 0x735D, offset: 0x735D, size: 0x8, addend: 0x0, symName: __ZN15zerocopy_derive16derive_unaligned17h99da7b09522235d3E, symObjAddr: 0xB780, symBinAddr: 0xC880, symSize: 0x7C0 }
  - { offsetInCU: 0x944D, offset: 0x944D, size: 0x8, addend: 0x0, symName: __ZN15zerocopy_derive10impl_block17h4462ef60a01aaef3E, symObjAddr: 0xC010, symBinAddr: 0xD110, symSize: 0x1590 }
  - { offsetInCU: 0xBBC3, offset: 0xBBC3, size: 0x8, addend: 0x0, symName: __ZN15zerocopy_derive10impl_block17h77d92fdcffea5d21E, symObjAddr: 0xD5A0, symBinAddr: 0xE6A0, symSize: 0x1460 }
  - { offsetInCU: 0xE411, offset: 0xE411, size: 0x8, addend: 0x0, symName: __ZN15zerocopy_derive10impl_block17hf4e11fffe55c047dE, symObjAddr: 0xEA00, symBinAddr: 0xFB00, symSize: 0x106C }
  - { offsetInCU: 0x14661, offset: 0x14661, size: 0x8, addend: 0x0, symName: '__ZN42_$LT$$RF$T$u20$as$u20$core..fmt..Debug$GT$3fmt17hc37ed497ed8d8cbbE', symObjAddr: 0x10, symBinAddr: 0x1110, symSize: 0x30 }
  - { offsetInCU: 0x159DF, offset: 0x159DF, size: 0x8, addend: 0x0, symName: '__ZN4core3ptr100drop_in_place$LT$core..option..Option$LT$alloc..boxed..Box$LT$syn..path..GenericArgument$GT$$GT$$GT$17hcd46fb80bb4426e5E', symObjAddr: 0x40, symBinAddr: 0x1140, symSize: 0x50 }
  - { offsetInCU: 0x15BAC, offset: 0x15BAC, size: 0x8, addend: 0x0, symName: '__ZN4core3ptr102drop_in_place$LT$syn..punctuated..Punctuated$LT$syn..path..GenericArgument$C$syn..token..Comma$GT$$GT$17heaaab034628a2a18E', symObjAddr: 0x90, symBinAddr: 0x1190, symSize: 0xF0 }
  - { offsetInCU: 0x15ECC, offset: 0x15ECC, size: 0x8, addend: 0x0, symName: '__ZN4core3ptr103drop_in_place$LT$core..option..Option$LT$alloc..boxed..Box$LT$syn..generics..TypeParamBound$GT$$GT$$GT$17h05a49ed32eff1671E', symObjAddr: 0x180, symBinAddr: 0x1280, symSize: 0x50 }
  - { offsetInCU: 0x1605B, offset: 0x1605B, size: 0x8, addend: 0x0, symName: '__ZN4core3ptr103drop_in_place$LT$core..option..Option$LT$alloc..boxed..Box$LT$syn..generics..WherePredicate$GT$$GT$$GT$17hd90e2f068c70b745E', symObjAddr: 0x1D0, symBinAddr: 0x12D0, symSize: 0x50 }
  - { offsetInCU: 0x16259, offset: 0x16259, size: 0x8, addend: 0x0, symName: '__ZN4core3ptr103drop_in_place$LT$syn..punctuated..Punctuated$LT$syn..generics..GenericParam$C$syn..token..Comma$GT$$GT$17h4c8d183416e922e4E', symObjAddr: 0x220, symBinAddr: 0x1320, symSize: 0x150 }
  - { offsetInCU: 0x168EE, offset: 0x168EE, size: 0x8, addend: 0x0, symName: '__ZN4core3ptr104drop_in_place$LT$syn..punctuated..Punctuated$LT$syn..generics..TypeParamBound$C$syn..token..Plus$GT$$GT$17h14d7d9f74bee17faE', symObjAddr: 0x370, symBinAddr: 0x1470, symSize: 0x260 }
  - { offsetInCU: 0x172BC, offset: 0x172BC, size: 0x8, addend: 0x0, symName: '__ZN4core3ptr125drop_in_place$LT$core..option..Option$LT$alloc..vec..Vec$LT$$LP$syn..attr..Meta$C$zerocopy_derive..repr..Repr$RP$$GT$$GT$$GT$17h91bddc4ea46bb346E', symObjAddr: 0x5D0, symBinAddr: 0x16D0, symSize: 0xD0 }
  - { offsetInCU: 0x176D8, offset: 0x176D8, size: 0x8, addend: 0x0, symName: '__ZN4core3ptr183drop_in_place$LT$core..option..Option$LT$core..iter..adapters..flatten..Flatten$LT$core..option..IntoIter$LT$syn..punctuated..Iter$LT$syn..generics..WherePredicate$GT$$GT$$GT$$GT$$GT$17hb170371228415595E', symObjAddr: 0x6A0, symBinAddr: 0x17A0, symSize: 0xD0 }
  - { offsetInCU: 0x17BF2, offset: 0x17BF2, size: 0x8, addend: 0x0, symName: '__ZN4core3ptr34drop_in_place$LT$syn..lit..Lit$GT$17hbd412daaa9d55e9fE', symObjAddr: 0x770, symBinAddr: 0x1870, symSize: 0x120 }
  - { offsetInCU: 0x180E0, offset: 0x180E0, size: 0x8, addend: 0x0, symName: '__ZN4core3ptr34drop_in_place$LT$syn..pat..Pat$GT$17he2158bf5b9616153E', symObjAddr: 0x890, symBinAddr: 0x1990, symSize: 0xF70 }
  - { offsetInCU: 0x1BFF9, offset: 0x1BFF9, size: 0x8, addend: 0x0, symName: '__ZN4core3ptr34drop_in_place$LT$syn..ty..Type$GT$17h87f2c3d06e50cb41E', symObjAddr: 0x1800, symBinAddr: 0x2900, symSize: 0x5A0 }
  - { offsetInCU: 0x1D995, offset: 0x1D995, size: 0x8, addend: 0x0, symName: '__ZN4core3ptr36drop_in_place$LT$syn..expr..Expr$GT$17h1abc66c6856a0df5E', symObjAddr: 0x1DA0, symBinAddr: 0x2EA0, symSize: 0x2760 }
  - { offsetInCU: 0x2768C, offset: 0x2768C, size: 0x8, addend: 0x0, symName: '__ZN4core3ptr36drop_in_place$LT$syn..mac..Macro$GT$17hb6bd6f67d9ee6797E', symObjAddr: 0x4500, symBinAddr: 0x5600, symSize: 0x110 }
  - { offsetInCU: 0x27B29, offset: 0x27B29, size: 0x8, addend: 0x0, symName: '__ZN4core3ptr36drop_in_place$LT$syn..path..Path$GT$17hf46cc67adc8dabe6E', symObjAddr: 0x4610, symBinAddr: 0x5710, symSize: 0x280 }
  - { offsetInCU: 0x285D6, offset: 0x285D6, size: 0x8, addend: 0x0, symName: '__ZN4core3ptr37drop_in_place$LT$syn..stmt..Block$GT$17hfecb452d98558591E', symObjAddr: 0x4890, symBinAddr: 0x5990, symSize: 0xD0 }
  - { offsetInCU: 0x28948, offset: 0x28948, size: 0x8, addend: 0x0, symName: '__ZN4core3ptr38drop_in_place$LT$syn..data..Fields$GT$17h0c4aabd6e7d6241aE', symObjAddr: 0x4960, symBinAddr: 0x5A60, symSize: 0x190 }
  - { offsetInCU: 0x28E4C, offset: 0x28E4C, size: 0x8, addend: 0x0, symName: '__ZN4core3ptr38drop_in_place$LT$syn..derive..Data$GT$17hde90b7b5890779d1E', symObjAddr: 0x4AF0, symBinAddr: 0x5BF0, symSize: 0x1D0 }
  - { offsetInCU: 0x29530, offset: 0x29530, size: 0x8, addend: 0x0, symName: '__ZN4core3ptr38drop_in_place$LT$syn..error..Error$GT$17he09fbf83db3f476bE', symObjAddr: 0x4CC0, symBinAddr: 0x5DC0, symSize: 0x90 }
  - { offsetInCU: 0x297DE, offset: 0x297DE, size: 0x8, addend: 0x0, symName: '__ZN4core3ptr38drop_in_place$LT$syn..expr..Member$GT$17hba941f4c189dc795E', symObjAddr: 0x4D50, symBinAddr: 0x5E50, symSize: 0x30 }
  - { offsetInCU: 0x298DA, offset: 0x298DA, size: 0x8, addend: 0x0, symName: '__ZN4core3ptr39drop_in_place$LT$proc_macro2..Ident$GT$17hd6ce070b43e43c97E', symObjAddr: 0x4D80, symBinAddr: 0x5E80, symSize: 0x30 }
  - { offsetInCU: 0x299B7, offset: 0x299B7, size: 0x8, addend: 0x0, symName: '__ZN4core3ptr40drop_in_place$LT$syn..ty..ReturnType$GT$17h792ba338568d45a9E', symObjAddr: 0x4DB0, symBinAddr: 0x5EB0, symSize: 0x50 }
  - { offsetInCU: 0x29B27, offset: 0x29B27, size: 0x8, addend: 0x0, symName: '__ZN4core3ptr41drop_in_place$LT$syn..expr..ExprConst$GT$17hb9ba4f2625f15720E', symObjAddr: 0x4E00, symBinAddr: 0x5F00, symSize: 0x180 }
  - { offsetInCU: 0x2A114, offset: 0x2A114, size: 0x8, addend: 0x0, symName: '__ZN4core3ptr44drop_in_place$LT$syn..generics..Generics$GT$17h3d1376367cc963f1E', symObjAddr: 0x4F80, symBinAddr: 0x6080, symSize: 0x40 }
  - { offsetInCU: 0x2A131, offset: 0x2A131, size: 0x8, addend: 0x0, symName: '__ZN4core3ptr44drop_in_place$LT$syn..lifetime..Lifetime$GT$17hc4613dd5781cff6aE', symObjAddr: 0x4FC0, symBinAddr: 0x60C0, symSize: 0x30 }
  - { offsetInCU: 0x2A363, offset: 0x2A363, size: 0x8, addend: 0x0, symName: '__ZN4core3ptr45drop_in_place$LT$proc_macro2..TokenStream$GT$17h4851dd21cbf4c1a2E', symObjAddr: 0x4FF0, symBinAddr: 0x60F0, symSize: 0x140 }
  - { offsetInCU: 0x2A83B, offset: 0x2A83B, size: 0x8, addend: 0x0, symName: '__ZN4core3ptr45drop_in_place$LT$syn..derive..DeriveInput$GT$17h2f679b94a6f2733dE', symObjAddr: 0x5130, symBinAddr: 0x6230, symSize: 0x190 }
  - { offsetInCU: 0x2ADF6, offset: 0x2ADF6, size: 0x8, addend: 0x0, symName: '__ZN4core3ptr45drop_in_place$LT$syn..generics..TypeParam$GT$17h659ea6c0f216e41aE', symObjAddr: 0x52C0, symBinAddr: 0x63C0, symSize: 0x230 }
  - { offsetInCU: 0x2B66B, offset: 0x2B66B, size: 0x8, addend: 0x0, symName: '__ZN4core3ptr46drop_in_place$LT$syn..generics..ConstParam$GT$17h095591ccecb80218E', symObjAddr: 0x54F0, symBinAddr: 0x65F0, symSize: 0x150 }
  - { offsetInCU: 0x2BAEC, offset: 0x2BAEC, size: 0x8, addend: 0x0, symName: '__ZN4core3ptr47drop_in_place$LT$syn..path..GenericArgument$GT$17h7df0218258579c58E', symObjAddr: 0x5640, symBinAddr: 0x6740, symSize: 0x450 }
  - { offsetInCU: 0x2C862, offset: 0x2C862, size: 0x8, addend: 0x0, symName: '__ZN4core3ptr48drop_in_place$LT$syn..generics..GenericParam$GT$17hdaa7e21773dacddfE', symObjAddr: 0x5A90, symBinAddr: 0x6B90, symSize: 0x40 }
  - { offsetInCU: 0x2C87F, offset: 0x2C87F, size: 0x8, addend: 0x0, symName: '__ZN4core3ptr49drop_in_place$LT$syn..generics..LifetimeParam$GT$17h42283e1ea975e28fE', symObjAddr: 0x5AD0, symBinAddr: 0x6BD0, symSize: 0xF0 }
  - { offsetInCU: 0x2CC96, offset: 0x2CC96, size: 0x8, addend: 0x0, symName: '__ZN4core3ptr49drop_in_place$LT$syn..restriction..Visibility$GT$17h94a55d7a17cf647fE', symObjAddr: 0x5BC0, symBinAddr: 0x6CC0, symSize: 0x60 }
  - { offsetInCU: 0x2CE07, offset: 0x2CE07, size: 0x8, addend: 0x0, symName: '__ZN4core3ptr50drop_in_place$LT$syn..generics..TypeParamBound$GT$17h3e55c99574230180E', symObjAddr: 0x5C20, symBinAddr: 0x6D20, symSize: 0xA0 }
  - { offsetInCU: 0x2CFAB, offset: 0x2CFAB, size: 0x8, addend: 0x0, symName: '__ZN4core3ptr50drop_in_place$LT$syn..generics..WherePredicate$GT$17h7482adce382ba3beE', symObjAddr: 0x5CC0, symBinAddr: 0x6DC0, symSize: 0xA0 }
  - { offsetInCU: 0x2D14F, offset: 0x2D14F, size: 0x8, addend: 0x0, symName: '__ZN4core3ptr58drop_in_place$LT$alloc..vec..Vec$LT$syn..expr..Arm$GT$$GT$17he1c084b01428a786E', symObjAddr: 0x5D60, symBinAddr: 0x6E60, symSize: 0xD0 }
  - { offsetInCU: 0x2D40F, offset: 0x2D40F, size: 0x8, addend: 0x0, symName: '__ZN4core3ptr59drop_in_place$LT$alloc..boxed..Box$LT$syn..pat..Pat$GT$$GT$17h3b485c4e8bee9607E', symObjAddr: 0x5E30, symBinAddr: 0x6F30, symSize: 0x50 }
  - { offsetInCU: 0x2D568, offset: 0x2D568, size: 0x8, addend: 0x0, symName: '__ZN4core3ptr59drop_in_place$LT$alloc..boxed..Box$LT$syn..ty..Type$GT$$GT$17h529d4bae83980455E', symObjAddr: 0x5E80, symBinAddr: 0x6F80, symSize: 0x50 }
  - { offsetInCU: 0x2D6C1, offset: 0x2D6C1, size: 0x8, addend: 0x0, symName: '__ZN4core3ptr61drop_in_place$LT$alloc..boxed..Box$LT$syn..expr..Expr$GT$$GT$17h460ec2498556bb03E', symObjAddr: 0x5ED0, symBinAddr: 0x6FD0, symSize: 0x50 }
  - { offsetInCU: 0x2D839, offset: 0x2D839, size: 0x8, addend: 0x0, symName: '__ZN4core3ptr61drop_in_place$LT$alloc..vec..Vec$LT$syn..error..Error$GT$$GT$17h024066df62cba450E', symObjAddr: 0x5F20, symBinAddr: 0x7020, symSize: 0x100 }
  - { offsetInCU: 0x2DC37, offset: 0x2DC37, size: 0x8, addend: 0x0, symName: '__ZN4core3ptr61drop_in_place$LT$syn..path..ParenthesizedGenericArguments$GT$17he5db395c9e85d0bcE', symObjAddr: 0x6020, symBinAddr: 0x7120, symSize: 0x170 }
  - { offsetInCU: 0x2E240, offset: 0x2E240, size: 0x8, addend: 0x0, symName: '__ZN4core3ptr63drop_in_place$LT$alloc..boxed..Box$LT$syn..lit..LitRepr$GT$$GT$17h06befdf0496ebcdaE', symObjAddr: 0x6190, symBinAddr: 0x7290, symSize: 0x60 }
  - { offsetInCU: 0x2E547, offset: 0x2E547, size: 0x8, addend: 0x0, symName: '__ZN4core3ptr64drop_in_place$LT$alloc..boxed..Box$LT$syn..pat..FieldPat$GT$$GT$17h9d44220380a4d0a3E', symObjAddr: 0x61F0, symBinAddr: 0x72F0, symSize: 0x140 }
  - { offsetInCU: 0x2EC48, offset: 0x2EC48, size: 0x8, addend: 0x0, symName: '__ZN4core3ptr64drop_in_place$LT$alloc..boxed..Box$LT$syn..ty..BareFnArg$GT$$GT$17h3296e316e6a4b46aE', symObjAddr: 0x6330, symBinAddr: 0x7430, symSize: 0x140 }
  - { offsetInCU: 0x2F1D1, offset: 0x2F1D1, size: 0x8, addend: 0x0, symName: '__ZN4core3ptr65drop_in_place$LT$alloc..vec..Vec$LT$proc_macro..TokenTree$GT$$GT$17h23629d65d27f1a0fE', symObjAddr: 0x6470, symBinAddr: 0x7570, symSize: 0x110 }
  - { offsetInCU: 0x2F5C9, offset: 0x2F5C9, size: 0x8, addend: 0x0, symName: '__ZN4core3ptr65drop_in_place$LT$core..option..Option$LT$syn..expr..Label$GT$$GT$17h4464a9bb4850ad8cE', symObjAddr: 0x6580, symBinAddr: 0x7680, symSize: 0x30 }
  - { offsetInCU: 0x2F703, offset: 0x2F703, size: 0x8, addend: 0x0, symName: '__ZN4core3ptr66drop_in_place$LT$core..option..Option$LT$syn..pat..PatRest$GT$$GT$17he31e390125d6c440E', symObjAddr: 0x65B0, symBinAddr: 0x76B0, symSize: 0xE0 }
  - { offsetInCU: 0x2FA2B, offset: 0x2FA2B, size: 0x8, addend: 0x0, symName: '__ZN4core3ptr67drop_in_place$LT$alloc..boxed..Box$LT$syn..expr..FieldValue$GT$$GT$17h0d12b7a5aa94d7e9E', symObjAddr: 0x6690, symBinAddr: 0x7790, symSize: 0x140 }
  - { offsetInCU: 0x2FFB3, offset: 0x2FFB3, size: 0x8, addend: 0x0, symName: '__ZN4core3ptr70drop_in_place$LT$core..option..Option$LT$syn..ty..BareVariadic$GT$$GT$17h7723d310b943ca36E', symObjAddr: 0x67D0, symBinAddr: 0x78D0, symSize: 0x100 }
  - { offsetInCU: 0x3041E, offset: 0x3041E, size: 0x8, addend: 0x0, symName: '__ZN4core3ptr72drop_in_place$LT$alloc..boxed..Box$LT$syn..path..GenericArgument$GT$$GT$17h06f95a13408ebdafE', symObjAddr: 0x68D0, symBinAddr: 0x79D0, symSize: 0x2B0 }
  - { offsetInCU: 0x30E2F, offset: 0x30E2F, size: 0x8, addend: 0x0, symName: '__ZN4core3ptr72drop_in_place$LT$core..option..Option$LT$syn..lifetime..Lifetime$GT$$GT$17h81994ea203da09dcE', symObjAddr: 0x6B80, symBinAddr: 0x7C80, symSize: 0x30 }
  - { offsetInCU: 0x30F4A, offset: 0x30F4A, size: 0x8, addend: 0x0, symName: '__ZN4core3ptr73drop_in_place$LT$alloc..boxed..Box$LT$syn..generics..GenericParam$GT$$GT$17h85c8be7868d3af0dE', symObjAddr: 0x6BB0, symBinAddr: 0x7CB0, symSize: 0x80 }
  - { offsetInCU: 0x310DF, offset: 0x310DF, size: 0x8, addend: 0x0, symName: '__ZN4core3ptr73drop_in_place$LT$alloc..vec..Vec$LT$syn..generics..WherePredicate$GT$$GT$17h79ab588ebe5b63b5E', symObjAddr: 0x6C30, symBinAddr: 0x7D30, symSize: 0xD0 }
  - { offsetInCU: 0x3139F, offset: 0x3139F, size: 0x8, addend: 0x0, symName: '__ZN4core3ptr75drop_in_place$LT$alloc..boxed..Box$LT$syn..generics..TypeParamBound$GT$$GT$17h1941c611c3139631E', symObjAddr: 0x6D00, symBinAddr: 0x7E00, symSize: 0x1B0 }
  - { offsetInCU: 0x31ADC, offset: 0x31ADC, size: 0x8, addend: 0x0, symName: '__ZN4core3ptr75drop_in_place$LT$core..option..Option$LT$syn..generics..WhereClause$GT$$GT$17hdaff3ad4f7294bd5E', symObjAddr: 0x6EB0, symBinAddr: 0x7FB0, symSize: 0xD0 }
  - { offsetInCU: 0x31F18, offset: 0x31F18, size: 0x8, addend: 0x0, symName: '__ZN4core3ptr86drop_in_place$LT$syn..punctuated..Punctuated$LT$syn..pat..Pat$C$syn..token..Or$GT$$GT$17had6e801733142469E', symObjAddr: 0x6F80, symBinAddr: 0x8080, symSize: 0x120 }
  - { offsetInCU: 0x32393, offset: 0x32393, size: 0x8, addend: 0x0, symName: '__ZN4core3ptr87drop_in_place$LT$core..option..Option$LT$alloc..boxed..Box$LT$syn..pat..Pat$GT$$GT$$GT$17ha5cba3ae6cc21c54E', symObjAddr: 0x70A0, symBinAddr: 0x81A0, symSize: 0x50 }
  - { offsetInCU: 0x32503, offset: 0x32503, size: 0x8, addend: 0x0, symName: '__ZN4core3ptr87drop_in_place$LT$core..option..Option$LT$alloc..boxed..Box$LT$syn..ty..Type$GT$$GT$$GT$17h4b703a12e8077b57E', symObjAddr: 0x70F0, symBinAddr: 0x81F0, symSize: 0x50 }
  - { offsetInCU: 0x32673, offset: 0x32673, size: 0x8, addend: 0x0, symName: '__ZN4core3ptr89drop_in_place$LT$core..option..Option$LT$alloc..boxed..Box$LT$syn..expr..Expr$GT$$GT$$GT$17h9eee67e527e2e442E', symObjAddr: 0x7140, symBinAddr: 0x8240, symSize: 0x50 }
  - { offsetInCU: 0x32821, offset: 0x32821, size: 0x8, addend: 0x0, symName: '__ZN4core3ptr89drop_in_place$LT$syn..punctuated..Punctuated$LT$syn..pat..Pat$C$syn..token..Comma$GT$$GT$17he3d98e99a23dba01E', symObjAddr: 0x7190, symBinAddr: 0x8290, symSize: 0x120 }
  - { offsetInCU: 0x32D10, offset: 0x32D10, size: 0x8, addend: 0x0, symName: '__ZN4core3ptr90drop_in_place$LT$core..option..Option$LT$alloc..boxed..Box$LT$syn..data..Field$GT$$GT$$GT$17hcc0bb4c384daba88E', symObjAddr: 0x72B0, symBinAddr: 0x83B0, symSize: 0x1B0 }
  - { offsetInCU: 0x33421, offset: 0x33421, size: 0x8, addend: 0x0, symName: '__ZN4core3ptr91drop_in_place$LT$syn..punctuated..Punctuated$LT$syn..expr..Expr$C$syn..token..Comma$GT$$GT$17h2dea47310fc0e082E', symObjAddr: 0x7460, symBinAddr: 0x8560, symSize: 0x120 }
  - { offsetInCU: 0x3392B, offset: 0x3392B, size: 0x8, addend: 0x0, symName: '__ZN4core3ptr92drop_in_place$LT$core..option..Option$LT$alloc..boxed..Box$LT$syn..data..Variant$GT$$GT$$GT$17h26f3f871c95e930eE', symObjAddr: 0x7580, symBinAddr: 0x8680, symSize: 0x170 }
  - { offsetInCU: 0x33EFA, offset: 0x33EFA, size: 0x8, addend: 0x0, symName: '__ZN4core3ptr94drop_in_place$LT$syn..punctuated..Punctuated$LT$syn..pat..FieldPat$C$syn..token..Comma$GT$$GT$17h190748b2c55432b6E', symObjAddr: 0x76F0, symBinAddr: 0x87F0, symSize: 0xF0 }
  - { offsetInCU: 0x341F9, offset: 0x341F9, size: 0x8, addend: 0x0, symName: '__ZN4core3ptr94drop_in_place$LT$syn..punctuated..Punctuated$LT$syn..ty..BareFnArg$C$syn..token..Comma$GT$$GT$17h0cc9ca5fc13ffa0eE', symObjAddr: 0x77E0, symBinAddr: 0x88E0, symSize: 0xF0 }
  - { offsetInCU: 0x344FA, offset: 0x344FA, size: 0x8, addend: 0x0, symName: '__ZN4core3ptr96drop_in_place$LT$core..option..Option$LT$alloc..boxed..Box$LT$syn..path..PathSegment$GT$$GT$$GT$17h2d05e908c3bffd1cE', symObjAddr: 0x78D0, symBinAddr: 0x89D0, symSize: 0x1A0 }
  - { offsetInCU: 0x34BBB, offset: 0x34BBB, size: 0x8, addend: 0x0, symName: '__ZN4core3ptr97drop_in_place$LT$alloc..vec..Vec$LT$$LP$syn..attr..Meta$C$zerocopy_derive..repr..Repr$RP$$GT$$GT$17h377a5cc8b9056109E', symObjAddr: 0x7A70, symBinAddr: 0x8B70, symSize: 0xD0 }
  - { offsetInCU: 0x34EAF, offset: 0x34EAF, size: 0x8, addend: 0x0, symName: '__ZN4core3ptr97drop_in_place$LT$syn..punctuated..Punctuated$LT$syn..expr..FieldValue$C$syn..token..Comma$GT$$GT$17hc51e6e9ab972ef1bE', symObjAddr: 0x7B40, symBinAddr: 0x8C40, symSize: 0xF0 }
  - { offsetInCU: 0x35228, offset: 0x35228, size: 0x8, addend: 0x0, symName: '__ZN4core3ptr98drop_in_place$LT$syn..punctuated..Punctuated$LT$syn..lifetime..Lifetime$C$syn..token..Plus$GT$$GT$17h3346a70b7ba118ddE', symObjAddr: 0x7C30, symBinAddr: 0x8D30, symSize: 0xD0 }
  - { offsetInCU: 0x36551, offset: 0x36551, size: 0x8, addend: 0x0, symName: __ZN4core4iter8adapters5chain17and_then_or_clear17h4c01feb4a6934393E, symObjAddr: 0x7D00, symBinAddr: 0x8E00, symSize: 0x180 }
  - { offsetInCU: 0x38BF1, offset: 0x38BF1, size: 0x8, addend: 0x0, symName: __ZN10proc_macro6bridge6client14HandleCounters3get17h2c76d49220b98e92E, symObjAddr: 0x0, symBinAddr: 0x1100, symSize: 0x10 }
  - { offsetInCU: 0x43449, offset: 0x43449, size: 0x8, addend: 0x0, symName: __ZN15zerocopy_derive5Trait5ident17h5370fbb6e3ef4c4bE, symObjAddr: 0xBF40, symBinAddr: 0xD040, symSize: 0xD0 }
  - { offsetInCU: 0x1E, offset: 0x49153, size: 0x8, addend: 0x0, symName: '__ZN102_$LT$core..iter..adapters..map..Map$LT$I$C$F$GT$$u20$as$u20$core..iter..traits..iterator..Iterator$GT$4next17h1fbe17c9943d5715E', symObjAddr: 0x0, symBinAddr: 0x10B70, symSize: 0x180 }
  - { offsetInCU: 0x23F8, offset: 0x4B52D, size: 0x8, addend: 0x0, symName: '__ZN4core3ptr100drop_in_place$LT$core..option..Option$LT$alloc..boxed..Box$LT$syn..path..GenericArgument$GT$$GT$$GT$17hcd46fb80bb4426e5E', symObjAddr: 0x4B0, symBinAddr: 0x11020, symSize: 0x50 }
  - { offsetInCU: 0x2587, offset: 0x4B6BC, size: 0x8, addend: 0x0, symName: '__ZN4core3ptr101drop_in_place$LT$core..option..Option$LT$alloc..boxed..Box$LT$syn..generics..GenericParam$GT$$GT$$GT$17h58ee9819296a1b94E', symObjAddr: 0x500, symBinAddr: 0x11070, symSize: 0x50 }
  - { offsetInCU: 0x2773, offset: 0x4B8A8, size: 0x8, addend: 0x0, symName: '__ZN4core3ptr102drop_in_place$LT$syn..punctuated..Punctuated$LT$syn..path..GenericArgument$C$syn..token..Comma$GT$$GT$17heaaab034628a2a18E.llvm.11715531834729756347', symObjAddr: 0x550, symBinAddr: 0x110C0, symSize: 0xF0 }
  - { offsetInCU: 0x2A9A, offset: 0x4BBCF, size: 0x8, addend: 0x0, symName: '__ZN4core3ptr103drop_in_place$LT$core..option..Option$LT$alloc..boxed..Box$LT$syn..generics..TypeParamBound$GT$$GT$$GT$17h05a49ed32eff1671E', symObjAddr: 0x640, symBinAddr: 0x111B0, symSize: 0x50 }
  - { offsetInCU: 0x2C29, offset: 0x4BD5E, size: 0x8, addend: 0x0, symName: '__ZN4core3ptr103drop_in_place$LT$core..option..Option$LT$alloc..boxed..Box$LT$syn..generics..WherePredicate$GT$$GT$$GT$17hd90e2f068c70b745E', symObjAddr: 0x690, symBinAddr: 0x11200, symSize: 0x50 }
  - { offsetInCU: 0x2E34, offset: 0x4BF69, size: 0x8, addend: 0x0, symName: '__ZN4core3ptr103drop_in_place$LT$syn..punctuated..Punctuated$LT$syn..generics..GenericParam$C$syn..token..Comma$GT$$GT$17h4c8d183416e922e4E.llvm.11715531834729756347', symObjAddr: 0x6E0, symBinAddr: 0x11250, symSize: 0x120 }
  - { offsetInCU: 0x3522, offset: 0x4C657, size: 0x8, addend: 0x0, symName: '__ZN4core3ptr104drop_in_place$LT$syn..punctuated..Punctuated$LT$syn..generics..TypeParamBound$C$syn..token..Plus$GT$$GT$17h14d7d9f74bee17faE.llvm.11715531834729756347', symObjAddr: 0x800, symBinAddr: 0x11370, symSize: 0x310 }
  - { offsetInCU: 0x4318, offset: 0x4D44D, size: 0x8, addend: 0x0, symName: '__ZN4core3ptr105drop_in_place$LT$syn..punctuated..Punctuated$LT$syn..generics..WherePredicate$C$syn..token..Comma$GT$$GT$17hd5bbc73f2643e077E', symObjAddr: 0xB10, symBinAddr: 0x11680, symSize: 0x1A0 }
  - { offsetInCU: 0x4A27, offset: 0x4DB5C, size: 0x8, addend: 0x0, symName: '__ZN4core3ptr116drop_in_place$LT$core..option..Option$LT$$LP$syn..token..Else$C$alloc..boxed..Box$LT$syn..expr..Expr$GT$$RP$$GT$$GT$17h107360f2ce6c6a7bE', symObjAddr: 0xCB0, symBinAddr: 0x11820, symSize: 0x50 }
  - { offsetInCU: 0x4C2A, offset: 0x4DD5F, size: 0x8, addend: 0x0, symName: '__ZN4core3ptr1191drop_in_place$LT$core..iter..adapters..flatten..Flatten$LT$core..iter..adapters..map..Map$LT$core..iter..adapters..map..Map$LT$core..iter..adapters..map..Map$LT$core..slice..iter..Iter$LT$syn..error..Error$GT$$C$syn..error..Error..to_compile_error$GT$$C$$LT$proc_macro2..TokenStream$u20$as$u20$core..iter..traits..collect..FromIterator$LT$proc_macro2..TokenStream$GT$$GT$..from_iter$LT$core..iter..adapters..map..Map$LT$core..slice..iter..Iter$LT$syn..error..Error$GT$$C$syn..error..Error..to_compile_error$GT$$GT$..$u7b$$u7b$closure$u7d$$u7d$$GT$$C$$LT$proc_macro2..imp..TokenStream$u20$as$u20$core..iter..traits..collect..FromIterator$LT$proc_macro2..imp..TokenStream$GT$$GT$..from_iter$LT$core..iter..adapters..map..Map$LT$core..iter..adapters..map..Map$LT$core..slice..iter..Iter$LT$syn..error..Error$GT$$C$syn..error..Error..to_compile_error$GT$$C$$LT$proc_macro2..TokenStream$u20$as$u20$core..iter..traits..collect..FromIterator$LT$proc_macro2..TokenStream$GT$$GT$..from_iter$LT$core..iter..adapters..map..Map$LT$core..slice..iter..Iter$LT$syn..error..Error$GT$$C$syn..error..Error..to_compile_error$GT$$GT$..$u7b$$u7b$closure$u7d$$u7d$$GT$$GT$..$u7b$$u7b$closure$u7d$$u7d$$GT$$GT$$GT$17hca83d28f59a8322aE', symObjAddr: 0xD00, symBinAddr: 0x11870, symSize: 0x60 }
  - { offsetInCU: 0x4DAE, offset: 0x4DEE3, size: 0x8, addend: 0x0, symName: '__ZN4core3ptr126drop_in_place$LT$core..option..Option$LT$$LP$syn..token..And$C$core..option..Option$LT$syn..lifetime..Lifetime$GT$$RP$$GT$$GT$17h8ee334b03c766b55E', symObjAddr: 0xD60, symBinAddr: 0x118D0, symSize: 0x30 }
  - { offsetInCU: 0x503D, offset: 0x4E172, size: 0x8, addend: 0x0, symName: '__ZN4core3ptr33drop_in_place$LT$syn..ty..Abi$GT$17hd911565720dd5e6cE', symObjAddr: 0xD90, symBinAddr: 0x11900, symSize: 0x70 }
  - { offsetInCU: 0x5059, offset: 0x4E18E, size: 0x8, addend: 0x0, symName: '__ZN4core3ptr33drop_in_place$LT$syn..ty..Abi$GT$17hd911565720dd5e6cE', symObjAddr: 0xD90, symBinAddr: 0x11900, symSize: 0x70 }
  - { offsetInCU: 0x5331, offset: 0x4E466, size: 0x8, addend: 0x0, symName: '__ZN4core3ptr34drop_in_place$LT$syn..lit..Lit$GT$17hbd412daaa9d55e9fE', symObjAddr: 0xE00, symBinAddr: 0x11970, symSize: 0x120 }
  - { offsetInCU: 0x585D, offset: 0x4E992, size: 0x8, addend: 0x0, symName: '__ZN4core3ptr34drop_in_place$LT$syn..pat..Pat$GT$17he2158bf5b9616153E.llvm.11715531834729756347', symObjAddr: 0xF20, symBinAddr: 0x11A90, symSize: 0xF90 }
  - { offsetInCU: 0x97A4, offset: 0x528D9, size: 0x8, addend: 0x0, symName: '__ZN4core3ptr34drop_in_place$LT$syn..ty..Type$GT$17h87f2c3d06e50cb41E.llvm.11715531834729756347', symObjAddr: 0x1EB0, symBinAddr: 0x12A20, symSize: 0x510 }
  - { offsetInCU: 0xA7E6, offset: 0x5391B, size: 0x8, addend: 0x0, symName: '__ZN4core3ptr35drop_in_place$LT$syn..expr..Arm$GT$17h249f647705e0d489E.llvm.11715531834729756347', symObjAddr: 0x23C0, symBinAddr: 0x12F30, symSize: 0x170 }
  - { offsetInCU: 0xAE54, offset: 0x53F89, size: 0x8, addend: 0x0, symName: '__ZN4core3ptr36drop_in_place$LT$syn..attr..Meta$GT$17h53e68c0a88de82e3E.llvm.11715531834729756347', symObjAddr: 0x2530, symBinAddr: 0x130A0, symSize: 0x320 }
  - { offsetInCU: 0xBE07, offset: 0x54F3C, size: 0x8, addend: 0x0, symName: '__ZN4core3ptr36drop_in_place$LT$syn..expr..Expr$GT$17h1abc66c6856a0df5E.llvm.11715531834729756347', symObjAddr: 0x2850, symBinAddr: 0x133C0, symSize: 0x2790 }
  - { offsetInCU: 0x16126, offset: 0x5F25B, size: 0x8, addend: 0x0, symName: '__ZN4core3ptr36drop_in_place$LT$syn..item..Item$GT$17h26939cc79f313630E', symObjAddr: 0x4FE0, symBinAddr: 0x15B50, symSize: 0x17C0 }
  - { offsetInCU: 0x1BB54, offset: 0x64C89, size: 0x8, addend: 0x0, symName: '__ZN4core3ptr36drop_in_place$LT$syn..mac..Macro$GT$17hb6bd6f67d9ee6797E', symObjAddr: 0x67A0, symBinAddr: 0x17310, symSize: 0xE0 }
  - { offsetInCU: 0x1BEBC, offset: 0x64FF1, size: 0x8, addend: 0x0, symName: '__ZN4core3ptr36drop_in_place$LT$syn..path..Path$GT$17hf46cc67adc8dabe6E', symObjAddr: 0x6880, symBinAddr: 0x173F0, symSize: 0x180 }
  - { offsetInCU: 0x1C4C7, offset: 0x655FC, size: 0x8, addend: 0x0, symName: '__ZN4core3ptr36drop_in_place$LT$syn..stmt..Stmt$GT$17h53547f6f215ebc38E.llvm.11715531834729756347', symObjAddr: 0x6A00, symBinAddr: 0x17570, symSize: 0x380 }
  - { offsetInCU: 0x1D130, offset: 0x66265, size: 0x8, addend: 0x0, symName: '__ZN4core3ptr37drop_in_place$LT$syn..data..Field$GT$17hb929cf6ba2520cffE.llvm.11715531834729756347', symObjAddr: 0x6D80, symBinAddr: 0x178F0, symSize: 0x190 }
  - { offsetInCU: 0x1D720, offset: 0x66855, size: 0x8, addend: 0x0, symName: '__ZN4core3ptr37drop_in_place$LT$syn..item..FnArg$GT$17hacd7f84953c54876E', symObjAddr: 0x6F10, symBinAddr: 0x17A80, symSize: 0x230 }
  - { offsetInCU: 0x1E037, offset: 0x6716C, size: 0x8, addend: 0x0, symName: '__ZN4core3ptr37drop_in_place$LT$syn..stmt..Block$GT$17hfecb452d98558591E', symObjAddr: 0x7140, symBinAddr: 0x17CB0, symSize: 0xD0 }
  - { offsetInCU: 0x1E315, offset: 0x6744A, size: 0x8, addend: 0x0, symName: '__ZN4core3ptr38drop_in_place$LT$syn..expr..Member$GT$17hba941f4c189dc795E.llvm.11715531834729756347', symObjAddr: 0x7210, symBinAddr: 0x17D80, symSize: 0x30 }
  - { offsetInCU: 0x1E411, offset: 0x67546, size: 0x8, addend: 0x0, symName: '__ZN4core3ptr38drop_in_place$LT$syn..pat..PatType$GT$17hdeef7959f144a480E', symObjAddr: 0x7240, symBinAddr: 0x17DB0, symSize: 0x140 }
  - { offsetInCU: 0x1E9C3, offset: 0x67AF8, size: 0x8, addend: 0x0, symName: '__ZN4core3ptr39drop_in_place$LT$proc_macro2..Ident$GT$17hd6ce070b43e43c97E', symObjAddr: 0x7380, symBinAddr: 0x17EF0, symSize: 0x30 }
  - { offsetInCU: 0x1EAFD, offset: 0x67C32, size: 0x8, addend: 0x0, symName: '__ZN4core3ptr39drop_in_place$LT$syn..data..Variant$GT$17h43c9aca9263f65fcE.llvm.11715531834729756347', symObjAddr: 0x73B0, symBinAddr: 0x17F20, symSize: 0x2F0 }
  - { offsetInCU: 0x1F798, offset: 0x688CD, size: 0x8, addend: 0x0, symName: '__ZN4core3ptr39drop_in_place$LT$syn..item..UseTree$GT$17h59fc73846f0fa477E', symObjAddr: 0x76A0, symBinAddr: 0x18210, symSize: 0x1E0 }
  - { offsetInCU: 0x1FF2F, offset: 0x69064, size: 0x8, addend: 0x0, symName: '__ZN4core3ptr406drop_in_place$LT$core..iter..adapters..map..Map$LT$core..iter..adapters..flatten..FlatMap$LT$syn..punctuated..Iter$LT$syn..data..Variant$GT$$C$$RF$syn..data..Fields$C$$LT$syn..derive..DataEnum$u20$as$u20$zerocopy_derive..ext..DataExt$GT$..field_types..$u7b$$u7b$closure$u7d$$u7d$$GT$$C$$LT$syn..derive..DataEnum$u20$as$u20$zerocopy_derive..ext..DataExt$GT$..field_types..$u7b$$u7b$closure$u7d$$u7d$$GT$$GT$17hb26378e8ead2f172E', symObjAddr: 0x7880, symBinAddr: 0x183F0, symSize: 0xB0 }
  - { offsetInCU: 0x20370, offset: 0x694A5, size: 0x8, addend: 0x0, symName: '__ZN4core3ptr40drop_in_place$LT$syn..item..ImplItem$GT$17h6662b4808a99d37bE', symObjAddr: 0x7930, symBinAddr: 0x184A0, symSize: 0x220 }
  - { offsetInCU: 0x209BD, offset: 0x69AF2, size: 0x8, addend: 0x0, symName: '__ZN4core3ptr40drop_in_place$LT$syn..item..Receiver$GT$17h1a8c376c79d46ad4E', symObjAddr: 0x7B50, symBinAddr: 0x186C0, symSize: 0x130 }
  - { offsetInCU: 0x20FBB, offset: 0x6A0F0, size: 0x8, addend: 0x0, symName: '__ZN4core3ptr40drop_in_place$LT$syn..item..Variadic$GT$17h1b6ce0044511a78aE', symObjAddr: 0x7C80, symBinAddr: 0x187F0, symSize: 0x120 }
  - { offsetInCU: 0x2145E, offset: 0x6A593, size: 0x8, addend: 0x0, symName: '__ZN4core3ptr40drop_in_place$LT$syn..ty..ReturnType$GT$17h792ba338568d45a9E.llvm.11715531834729756347', symObjAddr: 0x7DA0, symBinAddr: 0x18910, symSize: 0x50 }
  - { offsetInCU: 0x21723, offset: 0x6A858, size: 0x8, addend: 0x0, symName: '__ZN4core3ptr41drop_in_place$LT$syn..item..Signature$GT$17hf073821f765232adE', symObjAddr: 0x7DF0, symBinAddr: 0x18960, symSize: 0x270 }
  - { offsetInCU: 0x22238, offset: 0x6B36D, size: 0x8, addend: 0x0, symName: '__ZN4core3ptr41drop_in_place$LT$syn..item..TraitItem$GT$17ha8fd8ed108907d06E', symObjAddr: 0x8060, symBinAddr: 0x18BD0, symSize: 0x3D0 }
  - { offsetInCU: 0x22E76, offset: 0x6BFAB, size: 0x8, addend: 0x0, symName: '__ZN4core3ptr42drop_in_place$LT$syn..item..ImplItemFn$GT$17heb6adec8e314294eE', symObjAddr: 0x8430, symBinAddr: 0x18FA0, symSize: 0x230 }
  - { offsetInCU: 0x23639, offset: 0x6C76E, size: 0x8, addend: 0x0, symName: '__ZN4core3ptr42drop_in_place$LT$syn..path..Constraint$GT$17h93c00fe9bdbe8b26E', symObjAddr: 0x8660, symBinAddr: 0x191D0, symSize: 0x160 }
  - { offsetInCU: 0x23D25, offset: 0x6CE5A, size: 0x8, addend: 0x0, symName: '__ZN4core3ptr43drop_in_place$LT$proc_macro2..TokenTree$GT$17h826eb63f7915abcdE.llvm.11715531834729756347', symObjAddr: 0x87C0, symBinAddr: 0x19330, symSize: 0x180 }
  - { offsetInCU: 0x2456D, offset: 0x6D6A2, size: 0x8, addend: 0x0, symName: '__ZN4core3ptr43drop_in_place$LT$syn..data..FieldsNamed$GT$17h2c04186982ee6c2aE', symObjAddr: 0x8940, symBinAddr: 0x194B0, symSize: 0x120 }
  - { offsetInCU: 0x24A31, offset: 0x6DB66, size: 0x8, addend: 0x0, symName: '__ZN4core3ptr43drop_in_place$LT$syn..item..ForeignItem$GT$17h175defebd750d824E', symObjAddr: 0x8A60, symBinAddr: 0x195D0, symSize: 0x340 }
  - { offsetInCU: 0x25442, offset: 0x6E577, size: 0x8, addend: 0x0, symName: '__ZN4core3ptr43drop_in_place$LT$syn..path..PathSegment$GT$17h221c9b67b5e26ce6E', symObjAddr: 0x8DA0, symBinAddr: 0x19910, symSize: 0x190 }
  - { offsetInCU: 0x25A02, offset: 0x6EB37, size: 0x8, addend: 0x0, symName: '__ZN4core3ptr44drop_in_place$LT$syn..generics..Generics$GT$17h3d1376367cc963f1E', symObjAddr: 0x8F30, symBinAddr: 0x19AA0, symSize: 0x240 }
  - { offsetInCU: 0x26343, offset: 0x6F478, size: 0x8, addend: 0x0, symName: '__ZN4core3ptr44drop_in_place$LT$syn..item..ImplItemType$GT$17hc0adb7ffab1a1824E', symObjAddr: 0x9170, symBinAddr: 0x19CE0, symSize: 0x1F0 }
  - { offsetInCU: 0x26956, offset: 0x6FA8B, size: 0x8, addend: 0x0, symName: '__ZN4core3ptr44drop_in_place$LT$syn..lifetime..Lifetime$GT$17hc4613dd5781cff6aE', symObjAddr: 0x9360, symBinAddr: 0x19ED0, symSize: 0x30 }
  - { offsetInCU: 0x26AAF, offset: 0x6FBE4, size: 0x8, addend: 0x0, symName: '__ZN4core3ptr45drop_in_place$LT$proc_macro2..TokenStream$GT$17h4851dd21cbf4c1a2E', symObjAddr: 0x9390, symBinAddr: 0x19F00, symSize: 0x70 }
  - { offsetInCU: 0x26BF7, offset: 0x6FD2C, size: 0x8, addend: 0x0, symName: '__ZN4core3ptr45drop_in_place$LT$syn..item..ImplItemConst$GT$17h31b575519c782faaE', symObjAddr: 0x9400, symBinAddr: 0x19F70, symSize: 0x210 }
  - { offsetInCU: 0x27248, offset: 0x7037D, size: 0x8, addend: 0x0, symName: '__ZN4core3ptr45drop_in_place$LT$syn..item..TraitItemType$GT$17hf945101cadc0b021E', symObjAddr: 0x9610, symBinAddr: 0x1A180, symSize: 0x290 }
  - { offsetInCU: 0x27BB2, offset: 0x70CE7, size: 0x8, addend: 0x0, symName: '__ZN4core3ptr45drop_in_place$LT$syn..path..PathArguments$GT$17h91f0d24a6e557409E.llvm.11715531834729756347', symObjAddr: 0x98A0, symBinAddr: 0x1A410, symSize: 0xB0 }
  - { offsetInCU: 0x27D64, offset: 0x70E99, size: 0x8, addend: 0x0, symName: '__ZN4core3ptr46drop_in_place$LT$syn..item..TraitItemConst$GT$17hbdbafb283b577211E', symObjAddr: 0x9950, symBinAddr: 0x1A4C0, symSize: 0x1B0 }
  - { offsetInCU: 0x28245, offset: 0x7137A, size: 0x8, addend: 0x0, symName: '__ZN4core3ptr47drop_in_place$LT$syn..generics..WhereClause$GT$17h927b14909fb7192cE', symObjAddr: 0x9B00, symBinAddr: 0x1A670, symSize: 0x120 }
  - { offsetInCU: 0x286CB, offset: 0x71800, size: 0x8, addend: 0x0, symName: '__ZN4core3ptr47drop_in_place$LT$syn..item..ForeignItemType$GT$17h868c03f581fbcf4cE', symObjAddr: 0x9C20, symBinAddr: 0x1A790, symSize: 0x1B0 }
  - { offsetInCU: 0x28D39, offset: 0x71E6E, size: 0x8, addend: 0x0, symName: '__ZN4core3ptr47drop_in_place$LT$syn..path..GenericArgument$GT$17h7df0218258579c58E', symObjAddr: 0x9DD0, symBinAddr: 0x1A940, symSize: 0x1C0 }
  - { offsetInCU: 0x29279, offset: 0x723AE, size: 0x8, addend: 0x0, symName: '__ZN4core3ptr48drop_in_place$LT$syn..generics..GenericParam$GT$17hdaa7e21773dacddfE.llvm.11715531834729756347', symObjAddr: 0x9F90, symBinAddr: 0x1AB00, symSize: 0x380 }
  - { offsetInCU: 0x29EE2, offset: 0x73017, size: 0x8, addend: 0x0, symName: '__ZN4core3ptr49drop_in_place$LT$syn..generics..PredicateType$GT$17h869601d4aa419665E.llvm.11715531834729756347', symObjAddr: 0xA310, symBinAddr: 0x1AE80, symSize: 0x250 }
  - { offsetInCU: 0x2A7FE, offset: 0x73933, size: 0x8, addend: 0x0, symName: '__ZN4core3ptr49drop_in_place$LT$syn..item..ForeignItemStatic$GT$17hf68bc7e15750a94cE', symObjAddr: 0xA560, symBinAddr: 0x1B0D0, symSize: 0x190 }
  - { offsetInCU: 0x2AF00, offset: 0x74035, size: 0x8, addend: 0x0, symName: '__ZN4core3ptr50drop_in_place$LT$$u5b$syn..item..ImplItem$u5d$$GT$17h0ed947c18d8bbd74E', symObjAddr: 0xA6F0, symBinAddr: 0x1B260, symSize: 0x210 }
  - { offsetInCU: 0x2B274, offset: 0x743A9, size: 0x8, addend: 0x0, symName: '__ZN4core3ptr50drop_in_place$LT$syn..generics..BoundLifetimes$GT$17h6ed1268a276d7f0dE', symObjAddr: 0xA900, symBinAddr: 0x1B470, symSize: 0x120 }
  - { offsetInCU: 0x2B6F6, offset: 0x7482B, size: 0x8, addend: 0x0, symName: '__ZN4core3ptr50drop_in_place$LT$syn..generics..TypeParamBound$GT$17h3e55c99574230180E', symObjAddr: 0xAA20, symBinAddr: 0x1B590, symSize: 0xA0 }
  - { offsetInCU: 0x2B87B, offset: 0x749B0, size: 0x8, addend: 0x0, symName: '__ZN4core3ptr50drop_in_place$LT$syn..generics..WherePredicate$GT$17h7482adce382ba3beE.llvm.11715531834729756347', symObjAddr: 0xAAC0, symBinAddr: 0x1B630, symSize: 0xA0 }
  - { offsetInCU: 0x2BA2B, offset: 0x74B60, size: 0x8, addend: 0x0, symName: '__ZN4core3ptr51drop_in_place$LT$$u5b$syn..item..TraitItem$u5d$$GT$17h7d9d66e406df6298E', symObjAddr: 0xAB60, symBinAddr: 0x1B6D0, symSize: 0x3E0 }
  - { offsetInCU: 0x2C3CD, offset: 0x75502, size: 0x8, addend: 0x0, symName: '__ZN4core3ptr52drop_in_place$LT$syn..restriction..VisRestricted$GT$17h2a6fe8f51ebd96cdE', symObjAddr: 0xAF40, symBinAddr: 0x1BAB0, symSize: 0x50 }
  - { offsetInCU: 0x2C564, offset: 0x75699, size: 0x8, addend: 0x0, symName: '__ZN4core3ptr53drop_in_place$LT$$u5b$syn..item..ForeignItem$u5d$$GT$17h2ce9e3e671ce72edE', symObjAddr: 0xAF90, symBinAddr: 0x1BB00, symSize: 0x370 }
  - { offsetInCU: 0x2CD82, offset: 0x75EB7, size: 0x8, addend: 0x0, symName: '__ZN4core3ptr58drop_in_place$LT$alloc..vec..Vec$LT$syn..expr..Arm$GT$$GT$17he1c084b01428a786E', symObjAddr: 0xB300, symBinAddr: 0x1BE70, symSize: 0xD0 }
  - { offsetInCU: 0x2D049, offset: 0x7617E, size: 0x8, addend: 0x0, symName: '__ZN4core3ptr59drop_in_place$LT$alloc..boxed..Box$LT$syn..pat..Pat$GT$$GT$17h3b485c4e8bee9607E.llvm.11715531834729756347', symObjAddr: 0xB3D0, symBinAddr: 0x1BF40, symSize: 0x50 }
  - { offsetInCU: 0x2D1A2, offset: 0x762D7, size: 0x8, addend: 0x0, symName: '__ZN4core3ptr59drop_in_place$LT$alloc..boxed..Box$LT$syn..ty..Type$GT$$GT$17h529d4bae83980455E', symObjAddr: 0xB420, symBinAddr: 0x1BF90, symSize: 0x50 }
  - { offsetInCU: 0x2D2FB, offset: 0x76430, size: 0x8, addend: 0x0, symName: '__ZN4core3ptr59drop_in_place$LT$alloc..vec..Vec$LT$syn..item..Item$GT$$GT$17h01aad7612673b95dE', symObjAddr: 0xB470, symBinAddr: 0x1BFE0, symSize: 0xD0 }
  - { offsetInCU: 0x2D5C2, offset: 0x766F7, size: 0x8, addend: 0x0, symName: '__ZN4core3ptr61drop_in_place$LT$alloc..boxed..Box$LT$syn..expr..Expr$GT$$GT$17h460ec2498556bb03E', symObjAddr: 0xB540, symBinAddr: 0x1C0B0, symSize: 0x50 }
  - { offsetInCU: 0x2D71B, offset: 0x76850, size: 0x8, addend: 0x0, symName: '__ZN4core3ptr61drop_in_place$LT$alloc..boxed..Box$LT$syn..path..Path$GT$$GT$17hced6f103b7c29aecE', symObjAddr: 0xB590, symBinAddr: 0x1C100, symSize: 0x100 }
  - { offsetInCU: 0x2DC3B, offset: 0x76D70, size: 0x8, addend: 0x0, symName: '__ZN4core3ptr61drop_in_place$LT$syn..path..ParenthesizedGenericArguments$GT$17he5db395c9e85d0bcE', symObjAddr: 0xB690, symBinAddr: 0x1C200, symSize: 0x170 }
  - { offsetInCU: 0x2E238, offset: 0x7736D, size: 0x8, addend: 0x0, symName: '__ZN4core3ptr62drop_in_place$LT$alloc..boxed..Box$LT$syn..data..Field$GT$$GT$17hc8c252d3afacde61E', symObjAddr: 0xB800, symBinAddr: 0x1C370, symSize: 0x50 }
  - { offsetInCU: 0x2E3B0, offset: 0x774E5, size: 0x8, addend: 0x0, symName: '__ZN4core3ptr62drop_in_place$LT$alloc..boxed..Box$LT$syn..item..FnArg$GT$$GT$17hbbb067fbb0ae6012E', symObjAddr: 0xB850, symBinAddr: 0x1C3C0, symSize: 0x60 }
  - { offsetInCU: 0x2E526, offset: 0x7765B, size: 0x8, addend: 0x0, symName: '__ZN4core3ptr62drop_in_place$LT$alloc..boxed..Box$LT$syn..stmt..Block$GT$$GT$17hdd9c09ed068667bdE', symObjAddr: 0xB8B0, symBinAddr: 0x1C420, symSize: 0xE0 }
  - { offsetInCU: 0x2E93F, offset: 0x77A74, size: 0x8, addend: 0x0, symName: '__ZN4core3ptr62drop_in_place$LT$syn..path..AngleBracketedGenericArguments$GT$17h45c6cda35e39d554E', symObjAddr: 0xB990, symBinAddr: 0x1C500, symSize: 0x120 }
  - { offsetInCU: 0x2EDC5, offset: 0x77EFA, size: 0x8, addend: 0x0, symName: '__ZN4core3ptr63drop_in_place$LT$alloc..vec..Vec$LT$syn..item..ImplItem$GT$$GT$17hace452111f074808E', symObjAddr: 0xBAB0, symBinAddr: 0x1C620, symSize: 0x80 }
  - { offsetInCU: 0x2F07D, offset: 0x781B2, size: 0x8, addend: 0x0, symName: '__ZN4core3ptr64drop_in_place$LT$alloc..boxed..Box$LT$syn..data..Variant$GT$$GT$17hf5c1d336e2e0223dE', symObjAddr: 0xBB30, symBinAddr: 0x1C6A0, symSize: 0x50 }
  - { offsetInCU: 0x2F1D6, offset: 0x7830B, size: 0x8, addend: 0x0, symName: '__ZN4core3ptr64drop_in_place$LT$alloc..boxed..Box$LT$syn..item..UseTree$GT$$GT$17h1dee02ab64191e99E', symObjAddr: 0xBB80, symBinAddr: 0x1C6F0, symSize: 0x50 }
  - { offsetInCU: 0x2F36D, offset: 0x784A2, size: 0x8, addend: 0x0, symName: '__ZN4core3ptr64drop_in_place$LT$alloc..boxed..Box$LT$syn..pat..FieldPat$GT$$GT$17h9d44220380a4d0a3E', symObjAddr: 0xBBD0, symBinAddr: 0x1C740, symSize: 0x140 }
  - { offsetInCU: 0x2FA37, offset: 0x78B6C, size: 0x8, addend: 0x0, symName: '__ZN4core3ptr64drop_in_place$LT$alloc..boxed..Box$LT$syn..ty..BareFnArg$GT$$GT$17h3296e316e6a4b46aE', symObjAddr: 0xBD10, symBinAddr: 0x1C880, symSize: 0x140 }
  - { offsetInCU: 0x2FFCA, offset: 0x790FF, size: 0x8, addend: 0x0, symName: '__ZN4core3ptr64drop_in_place$LT$alloc..vec..Vec$LT$syn..attr..Attribute$GT$$GT$17hc9106306279563c1E', symObjAddr: 0xBE50, symBinAddr: 0x1C9C0, symSize: 0xD0 }
  - { offsetInCU: 0x302C5, offset: 0x793FA, size: 0x8, addend: 0x0, symName: '__ZN4core3ptr64drop_in_place$LT$alloc..vec..Vec$LT$syn..item..TraitItem$GT$$GT$17h2a40389d549efc86E', symObjAddr: 0xBF20, symBinAddr: 0x1CA90, symSize: 0x80 }
  - { offsetInCU: 0x3057D, offset: 0x796B2, size: 0x8, addend: 0x0, symName: '__ZN4core3ptr65drop_in_place$LT$$LP$syn..item..FnArg$C$syn..token..Comma$RP$$GT$17h0151e8c70a5886d8E', symObjAddr: 0xBFA0, symBinAddr: 0x1CB10, symSize: 0x20 }
  - { offsetInCU: 0x30616, offset: 0x7974B, size: 0x8, addend: 0x0, symName: '__ZN4core3ptr65drop_in_place$LT$alloc..vec..Vec$LT$proc_macro..TokenTree$GT$$GT$17h23629d65d27f1a0fE', symObjAddr: 0xBFC0, symBinAddr: 0x1CB30, symSize: 0x110 }
  - { offsetInCU: 0x30A28, offset: 0x79B5D, size: 0x8, addend: 0x0, symName: '__ZN4core3ptr65drop_in_place$LT$core..option..Option$LT$syn..expr..Label$GT$$GT$17h4464a9bb4850ad8cE', symObjAddr: 0xC0D0, symBinAddr: 0x1CC40, symSize: 0x30 }
  - { offsetInCU: 0x30B62, offset: 0x79C97, size: 0x8, addend: 0x0, symName: '__ZN4core3ptr65drop_in_place$LT$core..option..Option$LT$syn..stmt..Block$GT$$GT$17h7e0c3c62562a1202E', symObjAddr: 0xC100, symBinAddr: 0x1CC70, symSize: 0xD0 }
  - { offsetInCU: 0x30E56, offset: 0x79F8B, size: 0x8, addend: 0x0, symName: '__ZN4core3ptr66drop_in_place$LT$alloc..vec..Vec$LT$proc_macro2..TokenTree$GT$$GT$17h0c88171e4bd8a95bE', symObjAddr: 0xC1D0, symBinAddr: 0x1CD40, symSize: 0xC0 }
  - { offsetInCU: 0x3112E, offset: 0x7A263, size: 0x8, addend: 0x0, symName: '__ZN4core3ptr66drop_in_place$LT$alloc..vec..Vec$LT$syn..item..ForeignItem$GT$$GT$17ha783b9306ad7f5dcE', symObjAddr: 0xC290, symBinAddr: 0x1CE00, symSize: 0x80 }
  - { offsetInCU: 0x313E6, offset: 0x7A51B, size: 0x8, addend: 0x0, symName: '__ZN4core3ptr67drop_in_place$LT$$LP$syn..pat..FieldPat$C$syn..token..Comma$RP$$GT$17h4397c7c88396bed7E.llvm.11715531834729756347', symObjAddr: 0xC310, symBinAddr: 0x1CE80, symSize: 0x120 }
  - { offsetInCU: 0x3197B, offset: 0x7AAB0, size: 0x8, addend: 0x0, symName: '__ZN4core3ptr67drop_in_place$LT$$LP$syn..ty..BareFnArg$C$syn..token..Comma$RP$$GT$17h4713b853dca17f54E.llvm.11715531834729756347', symObjAddr: 0xC430, symBinAddr: 0x1CFA0, symSize: 0x110 }
  - { offsetInCU: 0x31DF9, offset: 0x7AF2E, size: 0x8, addend: 0x0, symName: '__ZN4core3ptr67drop_in_place$LT$alloc..boxed..Box$LT$syn..expr..FieldValue$GT$$GT$17h0d12b7a5aa94d7e9E', symObjAddr: 0xC540, symBinAddr: 0x1D0B0, symSize: 0x140 }
  - { offsetInCU: 0x3236C, offset: 0x7B4A1, size: 0x8, addend: 0x0, symName: '__ZN4core3ptr68drop_in_place$LT$alloc..boxed..Box$LT$syn..path..PathSegment$GT$$GT$17h19d56ea5d5bc26b4E', symObjAddr: 0xC680, symBinAddr: 0x1D1F0, symSize: 0xF0 }
  - { offsetInCU: 0x3276E, offset: 0x7B8A3, size: 0x8, addend: 0x0, symName: '__ZN4core3ptr69drop_in_place$LT$core..option..Option$LT$syn..stmt..LocalInit$GT$$GT$17h02226105bb330417E', symObjAddr: 0xC770, symBinAddr: 0x1D2E0, symSize: 0xC0 }
  - { offsetInCU: 0x32A92, offset: 0x7BBC7, size: 0x8, addend: 0x0, symName: '__ZN4core3ptr70drop_in_place$LT$$LP$syn..expr..FieldValue$C$syn..token..Comma$RP$$GT$17hc61c248834b26e6cE.llvm.11715531834729756347', symObjAddr: 0xC830, symBinAddr: 0x1D3A0, symSize: 0x110 }
  - { offsetInCU: 0x32ED1, offset: 0x7C006, size: 0x8, addend: 0x0, symName: '__ZN4core3ptr70drop_in_place$LT$core..option..Option$LT$syn..ty..BareVariadic$GT$$GT$17h7723d310b943ca36E', symObjAddr: 0xC940, symBinAddr: 0x1D4B0, symSize: 0x100 }
  - { offsetInCU: 0x33330, offset: 0x7C465, size: 0x8, addend: 0x0, symName: '__ZN4core3ptr72drop_in_place$LT$alloc..boxed..Box$LT$syn..path..GenericArgument$GT$$GT$17h06f95a13408ebdafE.llvm.11715531834729756347', symObjAddr: 0xCA40, symBinAddr: 0x1D5B0, symSize: 0x190 }
  - { offsetInCU: 0x337F8, offset: 0x7C92D, size: 0x8, addend: 0x0, symName: '__ZN4core3ptr73drop_in_place$LT$$LP$syn..path..PathSegment$C$syn..token..PathSep$RP$$GT$17hbe17f43ca1f0acaaE.llvm.11715531834729756347', symObjAddr: 0xCBD0, symBinAddr: 0x1D740, symSize: 0xD0 }
  - { offsetInCU: 0x33ABB, offset: 0x7CBF0, size: 0x8, addend: 0x0, symName: '__ZN4core3ptr73drop_in_place$LT$alloc..boxed..Box$LT$syn..generics..GenericParam$GT$$GT$17h85c8be7868d3af0dE', symObjAddr: 0xCCA0, symBinAddr: 0x1D810, symSize: 0x50 }
  - { offsetInCU: 0x33C52, offset: 0x7CD87, size: 0x8, addend: 0x0, symName: '__ZN4core3ptr73drop_in_place$LT$alloc..vec..Vec$LT$syn..generics..WherePredicate$GT$$GT$17h79ab588ebe5b63b5E.llvm.11715531834729756347', symObjAddr: 0xCCF0, symBinAddr: 0x1D860, symSize: 0xD0 }
  - { offsetInCU: 0x33F2C, offset: 0x7D061, size: 0x8, addend: 0x0, symName: '__ZN4core3ptr75drop_in_place$LT$$LP$syn..path..GenericArgument$C$syn..token..Comma$RP$$GT$17h61152444e9c2b8c3E.llvm.11715531834729756347', symObjAddr: 0xCDC0, symBinAddr: 0x1D930, symSize: 0x180 }
  - { offsetInCU: 0x342BA, offset: 0x7D3EF, size: 0x8, addend: 0x0, symName: '__ZN4core3ptr75drop_in_place$LT$alloc..boxed..Box$LT$syn..generics..TypeParamBound$GT$$GT$17h1941c611c3139631E', symObjAddr: 0xCF40, symBinAddr: 0x1DAB0, symSize: 0x180 }
  - { offsetInCU: 0x34867, offset: 0x7D99C, size: 0x8, addend: 0x0, symName: '__ZN4core3ptr75drop_in_place$LT$alloc..boxed..Box$LT$syn..generics..WherePredicate$GT$$GT$17heb17c5b860848d75E', symObjAddr: 0xD0C0, symBinAddr: 0x1DC30, symSize: 0x80 }
  - { offsetInCU: 0x34AFE, offset: 0x7DC33, size: 0x8, addend: 0x0, symName: '__ZN4core3ptr77drop_in_place$LT$$LP$syn..generics..TypeParamBound$C$syn..token..Plus$RP$$GT$17h501519f61b906732E.llvm.11715531834729756347', symObjAddr: 0xD140, symBinAddr: 0x1DCB0, symSize: 0x180 }
  - { offsetInCU: 0x34F7D, offset: 0x7E0B2, size: 0x8, addend: 0x0, symName: '__ZN4core3ptr78drop_in_place$LT$$LP$syn..generics..WherePredicate$C$syn..token..Comma$RP$$GT$17h00b7592bfbdb41a8E.llvm.11715531834729756347', symObjAddr: 0xD2C0, symBinAddr: 0x1DE30, symSize: 0x60 }
  - { offsetInCU: 0x350DA, offset: 0x7E20F, size: 0x8, addend: 0x0, symName: '__ZN4core3ptr86drop_in_place$LT$$LP$syn..token..If$C$alloc..boxed..Box$LT$syn..expr..Expr$GT$$RP$$GT$17hc6110a1a4b1193afE', symObjAddr: 0xD320, symBinAddr: 0x1DE90, symSize: 0x50 }
  - { offsetInCU: 0x352ED, offset: 0x7E422, size: 0x8, addend: 0x0, symName: '__ZN4core3ptr86drop_in_place$LT$syn..punctuated..Punctuated$LT$syn..pat..Pat$C$syn..token..Or$GT$$GT$17had6e801733142469E', symObjAddr: 0xD370, symBinAddr: 0x1DEE0, symSize: 0x120 }
  - { offsetInCU: 0x35786, offset: 0x7E8BB, size: 0x8, addend: 0x0, symName: '__ZN4core3ptr87drop_in_place$LT$$LP$alloc..boxed..Box$LT$syn..pat..Pat$GT$$C$syn..token..Colon$RP$$GT$17hcea3ea1bcdca9d6cE', symObjAddr: 0xD490, symBinAddr: 0x1E000, symSize: 0x50 }
  - { offsetInCU: 0x358FE, offset: 0x7EA33, size: 0x8, addend: 0x0, symName: '__ZN4core3ptr87drop_in_place$LT$core..option..Option$LT$alloc..boxed..Box$LT$syn..ty..Type$GT$$GT$$GT$17h4b703a12e8077b57E', symObjAddr: 0xD4E0, symBinAddr: 0x1E050, symSize: 0x50 }
  - { offsetInCU: 0x35A6E, offset: 0x7EBA3, size: 0x8, addend: 0x0, symName: '__ZN4core3ptr89drop_in_place$LT$core..option..Option$LT$alloc..boxed..Box$LT$syn..expr..Expr$GT$$GT$$GT$17h9eee67e527e2e442E', symObjAddr: 0xD530, symBinAddr: 0x1E0A0, symSize: 0x50 }
  - { offsetInCU: 0x35BDE, offset: 0x7ED13, size: 0x8, addend: 0x0, symName: '__ZN4core3ptr89drop_in_place$LT$syn..punctuated..Punctuated$LT$syn..ty..Type$C$syn..token..Comma$GT$$GT$17h4c5ee6627469985fE.llvm.11715531834729756347', symObjAddr: 0xD580, symBinAddr: 0x1E0F0, symSize: 0x120 }
  - { offsetInCU: 0x36060, offset: 0x7F195, size: 0x8, addend: 0x0, symName: '__ZN4core3ptr90drop_in_place$LT$core..option..Option$LT$alloc..boxed..Box$LT$syn..data..Field$GT$$GT$$GT$17hcc0bb4c384daba88E', symObjAddr: 0xD6A0, symBinAddr: 0x1E210, symSize: 0x50 }
  - { offsetInCU: 0x361D0, offset: 0x7F305, size: 0x8, addend: 0x0, symName: '__ZN4core3ptr90drop_in_place$LT$core..option..Option$LT$alloc..boxed..Box$LT$syn..item..FnArg$GT$$GT$$GT$17h0cba06f463d3bb78E', symObjAddr: 0xD6F0, symBinAddr: 0x1E260, symSize: 0x50 }
  - { offsetInCU: 0x363BC, offset: 0x7F4F1, size: 0x8, addend: 0x0, symName: '__ZN4core3ptr91drop_in_place$LT$syn..punctuated..Punctuated$LT$syn..expr..Expr$C$syn..token..Comma$GT$$GT$17h2dea47310fc0e082E', symObjAddr: 0xD740, symBinAddr: 0x1E2B0, symSize: 0x120 }
  - { offsetInCU: 0x36851, offset: 0x7F986, size: 0x8, addend: 0x0, symName: '__ZN4core3ptr92drop_in_place$LT$core..option..Option$LT$$LP$syn..token..As$C$proc_macro2..Ident$RP$$GT$$GT$17hd8068fafa7a835c2E', symObjAddr: 0xD860, symBinAddr: 0x1E3D0, symSize: 0x30 }
  - { offsetInCU: 0x3696C, offset: 0x7FAA1, size: 0x8, addend: 0x0, symName: '__ZN4core3ptr92drop_in_place$LT$syn..punctuated..Punctuated$LT$syn..data..Field$C$syn..token..Comma$GT$$GT$17h292f7736a130f4e6E', symObjAddr: 0xD890, symBinAddr: 0x1E400, symSize: 0x120 }
  - { offsetInCU: 0x36DF2, offset: 0x7FF27, size: 0x8, addend: 0x0, symName: '__ZN4core3ptr92drop_in_place$LT$syn..punctuated..Punctuated$LT$syn..item..FnArg$C$syn..token..Comma$GT$$GT$17h01e74c628cf42456E', symObjAddr: 0xD9B0, symBinAddr: 0x1E520, symSize: 0x150 }
  - { offsetInCU: 0x3733D, offset: 0x80472, size: 0x8, addend: 0x0, symName: '__ZN4core3ptr94drop_in_place$LT$syn..punctuated..Punctuated$LT$syn..data..Variant$C$syn..token..Comma$GT$$GT$17h4ff82c0071c557f5E', symObjAddr: 0xDB00, symBinAddr: 0x1E670, symSize: 0x120 }
  - { offsetInCU: 0x3784E, offset: 0x80983, size: 0x8, addend: 0x0, symName: '__ZN4core3ptr94drop_in_place$LT$syn..punctuated..Punctuated$LT$syn..pat..FieldPat$C$syn..token..Comma$GT$$GT$17h190748b2c55432b6E', symObjAddr: 0xDC20, symBinAddr: 0x1E790, symSize: 0xF0 }
  - { offsetInCU: 0x37BE3, offset: 0x80D18, size: 0x8, addend: 0x0, symName: '__ZN4core3ptr94drop_in_place$LT$syn..punctuated..Punctuated$LT$syn..ty..BareFnArg$C$syn..token..Comma$GT$$GT$17h0cc9ca5fc13ffa0eE', symObjAddr: 0xDD10, symBinAddr: 0x1E880, symSize: 0xF0 }
  - { offsetInCU: 0x37EFE, offset: 0x81033, size: 0x8, addend: 0x0, symName: '__ZN4core3ptr95drop_in_place$LT$core..option..Option$LT$$LP$proc_macro2..Ident$C$syn..token..Colon$RP$$GT$$GT$17he64c4e79f17a93bbE.llvm.11715531834729756347', symObjAddr: 0xDE00, symBinAddr: 0x1E970, symSize: 0x30 }
  - { offsetInCU: 0x38019, offset: 0x8114E, size: 0x8, addend: 0x0, symName: '__ZN4core3ptr96drop_in_place$LT$core..option..Option$LT$alloc..boxed..Box$LT$syn..path..PathSegment$GT$$GT$$GT$17h2d05e908c3bffd1cE', symObjAddr: 0xDE30, symBinAddr: 0x1E9A0, symSize: 0xA0 }
  - { offsetInCU: 0x38333, offset: 0x81468, size: 0x8, addend: 0x0, symName: '__ZN4core3ptr97drop_in_place$LT$syn..punctuated..Punctuated$LT$syn..expr..FieldValue$C$syn..token..Comma$GT$$GT$17hc51e6e9ab972ef1bE', symObjAddr: 0xDF20, symBinAddr: 0x1EA40, symSize: 0xF0 }
  - { offsetInCU: 0x386E5, offset: 0x8181A, size: 0x8, addend: 0x0, symName: '__ZN4core3ptr98drop_in_place$LT$syn..punctuated..Punctuated$LT$syn..lifetime..Lifetime$C$syn..token..Plus$GT$$GT$17h3346a70b7ba118ddE.llvm.11715531834729756347', symObjAddr: 0xE010, symBinAddr: 0x1EB30, symSize: 0xD0 }
  - { offsetInCU: 0x38B57, offset: 0x81C8C, size: 0x8, addend: 0x0, symName: '__ZN4core3ptr99drop_in_place$LT$alloc..vec..Vec$LT$$LP$syn..generics..GenericParam$C$syn..token..Comma$RP$$GT$$GT$17h583037b1ed477771E.llvm.11715531834729756347', symObjAddr: 0xE0E0, symBinAddr: 0x1EC00, symSize: 0xD0 }
  - { offsetInCU: 0x3C882, offset: 0x859B7, size: 0x8, addend: 0x0, symName: '__ZN102_$LT$core..iter..adapters..map..Map$LT$I$C$F$GT$$u20$as$u20$core..iter..traits..iterator..Iterator$GT$4next17h1fbe17c9943d5715E', symObjAddr: 0x0, symBinAddr: 0x10B70, symSize: 0x180 }
  - { offsetInCU: 0x3DDC2, offset: 0x86EF7, size: 0x8, addend: 0x0, symName: '__ZN48_$LT$T$u20$as$u20$core..clone..CloneToUninit$GT$15clone_to_uninit17h964bb19ef5f1153fE', symObjAddr: 0x180, symBinAddr: 0x10CF0, symSize: 0x330 }
  - { offsetInCU: 0x43DF5, offset: 0x8CF2A, size: 0x8, addend: 0x0, symName: '__ZN67_$LT$alloc..vec..Vec$LT$T$C$A$GT$$u20$as$u20$core..clone..Clone$GT$5clone17hb75593395c3ff703E', symObjAddr: 0xE250, symBinAddr: 0x1ECD0, symSize: 0x150 }
  - { offsetInCU: 0x44227, offset: 0x8D35C, size: 0x8, addend: 0x0, symName: '__ZN67_$LT$alloc..vec..Vec$LT$T$C$A$GT$$u20$as$u20$core..clone..Clone$GT$5clone17hc04705614da61fc2E', symObjAddr: 0xE3A0, symBinAddr: 0x1EE20, symSize: 0x240 }
  - { offsetInCU: 0x44CC5, offset: 0x8DDFA, size: 0x8, addend: 0x0, symName: '__ZN70_$LT$alloc..vec..Vec$LT$T$C$A$GT$$u20$as$u20$core..ops..drop..Drop$GT$4drop17hc72dd6cf4eeab264E', symObjAddr: 0xF0B0, symBinAddr: 0x1F060, symSize: 0xB0 }
  - { offsetInCU: 0x4520A, offset: 0x8E33F, size: 0x8, addend: 0x0, symName: '__ZN97_$LT$alloc..vec..Vec$LT$T$C$A$GT$$u20$as$u20$alloc..vec..spec_extend..SpecExtend$LT$T$C$I$GT$$GT$11spec_extend17hd1e1a1f7d23be29bE', symObjAddr: 0xF560, symBinAddr: 0x1F110, symSize: 0x330 }
  - { offsetInCU: 0x45F11, offset: 0x8F046, size: 0x8, addend: 0x0, symName: '__ZN98_$LT$alloc..vec..Vec$LT$T$GT$$u20$as$u20$alloc..vec..spec_from_iter..SpecFromIter$LT$T$C$I$GT$$GT$9from_iter17h0b95d3c2d026bf21E', symObjAddr: 0xFA70, symBinAddr: 0x1F440, symSize: 0x2F0 }
  - { offsetInCU: 0x46B3F, offset: 0x8FC74, size: 0x8, addend: 0x0, symName: '__ZN98_$LT$alloc..vec..Vec$LT$T$GT$$u20$as$u20$alloc..vec..spec_from_iter..SpecFromIter$LT$T$C$I$GT$$GT$9from_iter17h1166bb471d0f1e51E', symObjAddr: 0xFD60, symBinAddr: 0x1F730, symSize: 0x120 }
  - { offsetInCU: 0x46EB4, offset: 0x8FFE9, size: 0x8, addend: 0x0, symName: '__ZN98_$LT$alloc..vec..Vec$LT$T$GT$$u20$as$u20$alloc..vec..spec_from_iter..SpecFromIter$LT$T$C$I$GT$$GT$9from_iter17h20a0388227d9ae23E', symObjAddr: 0xFE80, symBinAddr: 0x1F850, symSize: 0x120 }
  - { offsetInCU: 0x47229, offset: 0x9035E, size: 0x8, addend: 0x0, symName: '__ZN98_$LT$alloc..vec..Vec$LT$T$GT$$u20$as$u20$alloc..vec..spec_from_iter..SpecFromIter$LT$T$C$I$GT$$GT$9from_iter17h628267dd3064a96fE', symObjAddr: 0xFFA0, symBinAddr: 0x1F970, symSize: 0x120 }
  - { offsetInCU: 0x4759E, offset: 0x906D3, size: 0x8, addend: 0x0, symName: '__ZN98_$LT$alloc..vec..Vec$LT$T$GT$$u20$as$u20$alloc..vec..spec_from_iter..SpecFromIter$LT$T$C$I$GT$$GT$9from_iter17hb693973145e4e3aeE', symObjAddr: 0x100C0, symBinAddr: 0x1FA90, symSize: 0x0 }
  - { offsetInCU: 0x1E, offset: 0x99EAE, size: 0x8, addend: 0x0, symName: '__ZN42_$LT$$RF$T$u20$as$u20$core..fmt..Debug$GT$3fmt17h0a21f018c948c552E.llvm.16538252309161524279', symObjAddr: 0x0, symBinAddr: 0x1FCF0, symSize: 0xD0 }
  - { offsetInCU: 0xC1, offset: 0x99F51, size: 0x8, addend: 0x0, symName: '__ZN58_$LT$alloc..string..String$u20$as$u20$core..fmt..Write$GT$10write_char17h04bc467bd68a934bE', symObjAddr: 0x76A0, symBinAddr: 0x272E0, symSize: 0x140 }
  - { offsetInCU: 0x4C6, offset: 0x9A356, size: 0x8, addend: 0x0, symName: '__ZN58_$LT$alloc..string..String$u20$as$u20$core..fmt..Write$GT$9write_str17h46a93205c3443fbaE', symObjAddr: 0x77E0, symBinAddr: 0x27420, symSize: 0x60 }
  - { offsetInCU: 0x44FD, offset: 0x9E38D, size: 0x8, addend: 0x0, symName: '__ZN4core3ptr100drop_in_place$LT$core..option..Option$LT$alloc..boxed..Box$LT$syn..path..GenericArgument$GT$$GT$$GT$17hcd46fb80bb4426e5E', symObjAddr: 0x250, symBinAddr: 0x1FF40, symSize: 0x50 }
  - { offsetInCU: 0x468C, offset: 0x9E51C, size: 0x8, addend: 0x0, symName: '__ZN4core3ptr101drop_in_place$LT$alloc..vec..Vec$LT$$LP$syn..attr..Meta$C$zerocopy_derive..repr..EnumRepr$RP$$GT$$GT$17he09e7ff8a8737964E', symObjAddr: 0x2A0, symBinAddr: 0x1FF90, symSize: 0xD0 }
  - { offsetInCU: 0x49DD, offset: 0x9E86D, size: 0x8, addend: 0x0, symName: '__ZN4core3ptr102drop_in_place$LT$syn..punctuated..Punctuated$LT$syn..path..GenericArgument$C$syn..token..Comma$GT$$GT$17heaaab034628a2a18E', symObjAddr: 0x370, symBinAddr: 0x20060, symSize: 0xF0 }
  - { offsetInCU: 0x4CFD, offset: 0x9EB8D, size: 0x8, addend: 0x0, symName: '__ZN4core3ptr103drop_in_place$LT$core..option..Option$LT$alloc..boxed..Box$LT$syn..generics..TypeParamBound$GT$$GT$$GT$17h05a49ed32eff1671E', symObjAddr: 0x460, symBinAddr: 0x20150, symSize: 0x50 }
  - { offsetInCU: 0x4F08, offset: 0x9ED98, size: 0x8, addend: 0x0, symName: '__ZN4core3ptr103drop_in_place$LT$syn..punctuated..Punctuated$LT$syn..generics..GenericParam$C$syn..token..Comma$GT$$GT$17h4c8d183416e922e4E', symObjAddr: 0x4B0, symBinAddr: 0x201A0, symSize: 0x150 }
  - { offsetInCU: 0x559D, offset: 0x9F42D, size: 0x8, addend: 0x0, symName: '__ZN4core3ptr104drop_in_place$LT$syn..punctuated..Punctuated$LT$syn..generics..TypeParamBound$C$syn..token..Plus$GT$$GT$17h14d7d9f74bee17faE', symObjAddr: 0x600, symBinAddr: 0x202F0, symSize: 0x260 }
  - { offsetInCU: 0x6025, offset: 0x9FEB5, size: 0x8, addend: 0x0, symName: '__ZN4core3ptr139drop_in_place$LT$core..result..Result$LT$syn..punctuated..Punctuated$LT$syn..attr..Meta$C$syn..token..Comma$GT$$C$syn..error..Error$GT$$GT$17hd982894ec912d4bfE', symObjAddr: 0x860, symBinAddr: 0x20550, symSize: 0x190 }
  - { offsetInCU: 0x67EF, offset: 0xA067F, size: 0x8, addend: 0x0, symName: '__ZN4core3ptr34drop_in_place$LT$syn..lit..Lit$GT$17hbd412daaa9d55e9fE', symObjAddr: 0x9F0, symBinAddr: 0x206E0, symSize: 0x120 }
  - { offsetInCU: 0x6CDD, offset: 0xA0B6D, size: 0x8, addend: 0x0, symName: '__ZN4core3ptr34drop_in_place$LT$syn..pat..Pat$GT$17he2158bf5b9616153E', symObjAddr: 0xB10, symBinAddr: 0x20800, symSize: 0xF70 }
  - { offsetInCU: 0xABF6, offset: 0xA4A86, size: 0x8, addend: 0x0, symName: '__ZN4core3ptr34drop_in_place$LT$syn..ty..Type$GT$17h87f2c3d06e50cb41E', symObjAddr: 0x1A80, symBinAddr: 0x21770, symSize: 0x5A0 }
  - { offsetInCU: 0xC000, offset: 0xA5E90, size: 0x8, addend: 0x0, symName: '__ZN4core3ptr36drop_in_place$LT$syn..attr..Meta$GT$17h53e68c0a88de82e3E', symObjAddr: 0x2020, symBinAddr: 0x21D10, symSize: 0xA0 }
  - { offsetInCU: 0xC62C, offset: 0xA64BC, size: 0x8, addend: 0x0, symName: '__ZN4core3ptr36drop_in_place$LT$syn..expr..Expr$GT$17h1abc66c6856a0df5E', symObjAddr: 0x20C0, symBinAddr: 0x21DB0, symSize: 0x2760 }
  - { offsetInCU: 0x16323, offset: 0xB01B3, size: 0x8, addend: 0x0, symName: '__ZN4core3ptr36drop_in_place$LT$syn..mac..Macro$GT$17hb6bd6f67d9ee6797E', symObjAddr: 0x4820, symBinAddr: 0x24510, symSize: 0x110 }
  - { offsetInCU: 0x167C0, offset: 0xB0650, size: 0x8, addend: 0x0, symName: '__ZN4core3ptr36drop_in_place$LT$syn..path..Path$GT$17hf46cc67adc8dabe6E', symObjAddr: 0x4930, symBinAddr: 0x24620, symSize: 0x280 }
  - { offsetInCU: 0x172AB, offset: 0xB113B, size: 0x8, addend: 0x0, symName: '__ZN4core3ptr37drop_in_place$LT$syn..lit..LitInt$GT$17h1bb1f1baf805c02eE', symObjAddr: 0x4BB0, symBinAddr: 0x248A0, symSize: 0x70 }
  - { offsetInCU: 0x17630, offset: 0xB14C0, size: 0x8, addend: 0x0, symName: '__ZN4core3ptr37drop_in_place$LT$syn..stmt..Block$GT$17hfecb452d98558591E', symObjAddr: 0x4C20, symBinAddr: 0x24910, symSize: 0xD0 }
  - { offsetInCU: 0x17907, offset: 0xB1797, size: 0x8, addend: 0x0, symName: '__ZN4core3ptr38drop_in_place$LT$syn..error..Error$GT$17he09fbf83db3f476bE', symObjAddr: 0x4CF0, symBinAddr: 0x249E0, symSize: 0x90 }
  - { offsetInCU: 0x17BB5, offset: 0xB1A45, size: 0x8, addend: 0x0, symName: '__ZN4core3ptr38drop_in_place$LT$syn..expr..Member$GT$17hba941f4c189dc795E', symObjAddr: 0x4D80, symBinAddr: 0x24A70, symSize: 0x30 }
  - { offsetInCU: 0x17CB1, offset: 0xB1B41, size: 0x8, addend: 0x0, symName: '__ZN4core3ptr39drop_in_place$LT$proc_macro2..Ident$GT$17hd6ce070b43e43c97E', symObjAddr: 0x4DB0, symBinAddr: 0x24AA0, symSize: 0x30 }
  - { offsetInCU: 0x17D8E, offset: 0xB1C1E, size: 0x8, addend: 0x0, symName: '__ZN4core3ptr40drop_in_place$LT$syn..ty..ReturnType$GT$17h792ba338568d45a9E', symObjAddr: 0x4DE0, symBinAddr: 0x24AD0, symSize: 0x50 }
  - { offsetInCU: 0x17EFE, offset: 0xB1D8E, size: 0x8, addend: 0x0, symName: '__ZN4core3ptr41drop_in_place$LT$syn..expr..ExprConst$GT$17hb9ba4f2625f15720E', symObjAddr: 0x4E30, symBinAddr: 0x24B20, symSize: 0x180 }
  - { offsetInCU: 0x184EB, offset: 0xB237B, size: 0x8, addend: 0x0, symName: '__ZN4core3ptr42drop_in_place$LT$alloc..string..String$GT$17h69b2fad4c0066e64E.llvm.16538252309161524279', symObjAddr: 0x4FB0, symBinAddr: 0x24CA0, symSize: 0x20 }
  - { offsetInCU: 0x185F3, offset: 0xB2483, size: 0x8, addend: 0x0, symName: '__ZN4core3ptr44drop_in_place$LT$syn..lifetime..Lifetime$GT$17hc4613dd5781cff6aE', symObjAddr: 0x4FD0, symBinAddr: 0x24CC0, symSize: 0x30 }
  - { offsetInCU: 0x18825, offset: 0xB26B5, size: 0x8, addend: 0x0, symName: '__ZN4core3ptr45drop_in_place$LT$proc_macro2..TokenStream$GT$17h4851dd21cbf4c1a2E', symObjAddr: 0x5000, symBinAddr: 0x24CF0, symSize: 0x140 }
  - { offsetInCU: 0x18CBF, offset: 0xB2B4F, size: 0x8, addend: 0x0, symName: '__ZN4core3ptr45drop_in_place$LT$syn..generics..TypeParam$GT$17h659ea6c0f216e41aE', symObjAddr: 0x5140, symBinAddr: 0x24E30, symSize: 0x230 }
  - { offsetInCU: 0x19534, offset: 0xB33C4, size: 0x8, addend: 0x0, symName: '__ZN4core3ptr46drop_in_place$LT$syn..generics..ConstParam$GT$17h095591ccecb80218E', symObjAddr: 0x5370, symBinAddr: 0x25060, symSize: 0x150 }
  - { offsetInCU: 0x199B5, offset: 0xB3845, size: 0x8, addend: 0x0, symName: '__ZN4core3ptr47drop_in_place$LT$syn..path..GenericArgument$GT$17h7df0218258579c58E', symObjAddr: 0x54C0, symBinAddr: 0x251B0, symSize: 0x450 }
  - { offsetInCU: 0x1A72B, offset: 0xB45BB, size: 0x8, addend: 0x0, symName: '__ZN4core3ptr49drop_in_place$LT$syn..generics..LifetimeParam$GT$17h42283e1ea975e28fE', symObjAddr: 0x5910, symBinAddr: 0x25600, symSize: 0xF0 }
  - { offsetInCU: 0x1AB42, offset: 0xB49D2, size: 0x8, addend: 0x0, symName: '__ZN4core3ptr50drop_in_place$LT$syn..generics..TypeParamBound$GT$17h3e55c99574230180E', symObjAddr: 0x5A00, symBinAddr: 0x256F0, symSize: 0xA0 }
  - { offsetInCU: 0x1ACA8, offset: 0xB4B38, size: 0x8, addend: 0x0, symName: '__ZN4core3ptr58drop_in_place$LT$alloc..vec..Vec$LT$syn..expr..Arm$GT$$GT$17he1c084b01428a786E', symObjAddr: 0x5AA0, symBinAddr: 0x25790, symSize: 0xD0 }
  - { offsetInCU: 0x1AF68, offset: 0xB4DF8, size: 0x8, addend: 0x0, symName: '__ZN4core3ptr59drop_in_place$LT$alloc..boxed..Box$LT$syn..pat..Pat$GT$$GT$17h3b485c4e8bee9607E', symObjAddr: 0x5B70, symBinAddr: 0x25860, symSize: 0x50 }
  - { offsetInCU: 0x1B0C1, offset: 0xB4F51, size: 0x8, addend: 0x0, symName: '__ZN4core3ptr59drop_in_place$LT$alloc..boxed..Box$LT$syn..ty..Type$GT$$GT$17h529d4bae83980455E', symObjAddr: 0x5BC0, symBinAddr: 0x258B0, symSize: 0x50 }
  - { offsetInCU: 0x1B239, offset: 0xB50C9, size: 0x8, addend: 0x0, symName: '__ZN4core3ptr59drop_in_place$LT$alloc..vec..Vec$LT$syn..attr..Meta$GT$$GT$17hafcfdb2117f09f5fE', symObjAddr: 0x5C10, symBinAddr: 0x25900, symSize: 0xD0 }
  - { offsetInCU: 0x1B4F9, offset: 0xB5389, size: 0x8, addend: 0x0, symName: '__ZN4core3ptr61drop_in_place$LT$alloc..boxed..Box$LT$syn..expr..Expr$GT$$GT$17h460ec2498556bb03E', symObjAddr: 0x5CE0, symBinAddr: 0x259D0, symSize: 0x50 }
  - { offsetInCU: 0x1B671, offset: 0xB5501, size: 0x8, addend: 0x0, symName: '__ZN4core3ptr61drop_in_place$LT$alloc..vec..Vec$LT$syn..error..Error$GT$$GT$17h024066df62cba450E', symObjAddr: 0x5D30, symBinAddr: 0x25A20, symSize: 0x100 }
  - { offsetInCU: 0x1BA6F, offset: 0xB58FF, size: 0x8, addend: 0x0, symName: '__ZN4core3ptr61drop_in_place$LT$syn..path..ParenthesizedGenericArguments$GT$17he5db395c9e85d0bcE', symObjAddr: 0x5E30, symBinAddr: 0x25B20, symSize: 0x170 }
  - { offsetInCU: 0x1C078, offset: 0xB5F08, size: 0x8, addend: 0x0, symName: '__ZN4core3ptr63drop_in_place$LT$alloc..boxed..Box$LT$syn..lit..LitRepr$GT$$GT$17h06befdf0496ebcdaE', symObjAddr: 0x5FA0, symBinAddr: 0x25C90, symSize: 0x60 }
  - { offsetInCU: 0x1C37F, offset: 0xB620F, size: 0x8, addend: 0x0, symName: '__ZN4core3ptr64drop_in_place$LT$alloc..boxed..Box$LT$syn..pat..FieldPat$GT$$GT$17h9d44220380a4d0a3E', symObjAddr: 0x6000, symBinAddr: 0x25CF0, symSize: 0x140 }
  - { offsetInCU: 0x1CA80, offset: 0xB6910, size: 0x8, addend: 0x0, symName: '__ZN4core3ptr64drop_in_place$LT$alloc..boxed..Box$LT$syn..ty..BareFnArg$GT$$GT$17h3296e316e6a4b46aE', symObjAddr: 0x6140, symBinAddr: 0x25E30, symSize: 0x140 }
  - { offsetInCU: 0x1D009, offset: 0xB6E99, size: 0x8, addend: 0x0, symName: '__ZN4core3ptr65drop_in_place$LT$alloc..vec..Vec$LT$proc_macro..TokenTree$GT$$GT$17h23629d65d27f1a0fE', symObjAddr: 0x6280, symBinAddr: 0x25F70, symSize: 0x110 }
  - { offsetInCU: 0x1D401, offset: 0xB7291, size: 0x8, addend: 0x0, symName: '__ZN4core3ptr65drop_in_place$LT$core..option..Option$LT$syn..expr..Label$GT$$GT$17h4464a9bb4850ad8cE', symObjAddr: 0x6390, symBinAddr: 0x26080, symSize: 0x30 }
  - { offsetInCU: 0x1D53B, offset: 0xB73CB, size: 0x8, addend: 0x0, symName: '__ZN4core3ptr66drop_in_place$LT$core..option..Option$LT$syn..pat..PatRest$GT$$GT$17he31e390125d6c440E', symObjAddr: 0x63C0, symBinAddr: 0x260B0, symSize: 0xE0 }
  - { offsetInCU: 0x1D863, offset: 0xB76F3, size: 0x8, addend: 0x0, symName: '__ZN4core3ptr67drop_in_place$LT$alloc..boxed..Box$LT$syn..expr..FieldValue$GT$$GT$17h0d12b7a5aa94d7e9E', symObjAddr: 0x64A0, symBinAddr: 0x26190, symSize: 0x140 }
  - { offsetInCU: 0x1DDEB, offset: 0xB7C7B, size: 0x8, addend: 0x0, symName: '__ZN4core3ptr70drop_in_place$LT$core..option..Option$LT$syn..ty..BareVariadic$GT$$GT$17h7723d310b943ca36E', symObjAddr: 0x65E0, symBinAddr: 0x262D0, symSize: 0x100 }
  - { offsetInCU: 0x1E256, offset: 0xB80E6, size: 0x8, addend: 0x0, symName: '__ZN4core3ptr72drop_in_place$LT$alloc..boxed..Box$LT$syn..path..GenericArgument$GT$$GT$17h06f95a13408ebdafE', symObjAddr: 0x66E0, symBinAddr: 0x263D0, symSize: 0x2B0 }
  - { offsetInCU: 0x1EC67, offset: 0xB8AF7, size: 0x8, addend: 0x0, symName: '__ZN4core3ptr72drop_in_place$LT$core..option..Option$LT$syn..lifetime..Lifetime$GT$$GT$17h81994ea203da09dcE', symObjAddr: 0x6990, symBinAddr: 0x26680, symSize: 0x30 }
  - { offsetInCU: 0x1ED82, offset: 0xB8C12, size: 0x8, addend: 0x0, symName: '__ZN4core3ptr73drop_in_place$LT$alloc..boxed..Box$LT$syn..generics..GenericParam$GT$$GT$17h85c8be7868d3af0dE', symObjAddr: 0x69C0, symBinAddr: 0x266B0, symSize: 0x80 }
  - { offsetInCU: 0x1EEF8, offset: 0xB8D88, size: 0x8, addend: 0x0, symName: '__ZN4core3ptr75drop_in_place$LT$alloc..boxed..Box$LT$syn..generics..TypeParamBound$GT$$GT$17h1941c611c3139631E', symObjAddr: 0x6A40, symBinAddr: 0x26730, symSize: 0x1B0 }
  - { offsetInCU: 0x1F5F7, offset: 0xB9487, size: 0x8, addend: 0x0, symName: '__ZN4core3ptr86drop_in_place$LT$syn..punctuated..Punctuated$LT$syn..pat..Pat$C$syn..token..Or$GT$$GT$17had6e801733142469E', symObjAddr: 0x6BF0, symBinAddr: 0x268E0, symSize: 0x120 }
  - { offsetInCU: 0x1FA72, offset: 0xB9902, size: 0x8, addend: 0x0, symName: '__ZN4core3ptr87drop_in_place$LT$core..option..Option$LT$alloc..boxed..Box$LT$syn..pat..Pat$GT$$GT$$GT$17ha5cba3ae6cc21c54E', symObjAddr: 0x6D10, symBinAddr: 0x26A00, symSize: 0x50 }
  - { offsetInCU: 0x1FBE2, offset: 0xB9A72, size: 0x8, addend: 0x0, symName: '__ZN4core3ptr87drop_in_place$LT$core..option..Option$LT$alloc..boxed..Box$LT$syn..ty..Type$GT$$GT$$GT$17h4b703a12e8077b57E', symObjAddr: 0x6D60, symBinAddr: 0x26A50, symSize: 0x50 }
  - { offsetInCU: 0x1FD52, offset: 0xB9BE2, size: 0x8, addend: 0x0, symName: '__ZN4core3ptr89drop_in_place$LT$core..option..Option$LT$alloc..boxed..Box$LT$syn..attr..Meta$GT$$GT$$GT$17h5d3ac31381ac40d0E', symObjAddr: 0x6DB0, symBinAddr: 0x26AA0, symSize: 0x50 }
  - { offsetInCU: 0x1FEB5, offset: 0xB9D45, size: 0x8, addend: 0x0, symName: '__ZN4core3ptr89drop_in_place$LT$core..option..Option$LT$alloc..boxed..Box$LT$syn..expr..Expr$GT$$GT$$GT$17h9eee67e527e2e442E', symObjAddr: 0x6E00, symBinAddr: 0x26AF0, symSize: 0x50 }
  - { offsetInCU: 0x20063, offset: 0xB9EF3, size: 0x8, addend: 0x0, symName: '__ZN4core3ptr89drop_in_place$LT$syn..punctuated..Punctuated$LT$syn..pat..Pat$C$syn..token..Comma$GT$$GT$17he3d98e99a23dba01E', symObjAddr: 0x6E50, symBinAddr: 0x26B40, symSize: 0x120 }
  - { offsetInCU: 0x20533, offset: 0xBA3C3, size: 0x8, addend: 0x0, symName: '__ZN4core3ptr91drop_in_place$LT$syn..punctuated..Punctuated$LT$syn..expr..Expr$C$syn..token..Comma$GT$$GT$17h2dea47310fc0e082E', symObjAddr: 0x6F70, symBinAddr: 0x26C60, symSize: 0x120 }
  - { offsetInCU: 0x209C1, offset: 0xBA851, size: 0x8, addend: 0x0, symName: '__ZN4core3ptr94drop_in_place$LT$syn..punctuated..Punctuated$LT$syn..pat..FieldPat$C$syn..token..Comma$GT$$GT$17h190748b2c55432b6E', symObjAddr: 0x7090, symBinAddr: 0x26D80, symSize: 0xF0 }
  - { offsetInCU: 0x20CC0, offset: 0xBAB50, size: 0x8, addend: 0x0, symName: '__ZN4core3ptr94drop_in_place$LT$syn..punctuated..Punctuated$LT$syn..ty..BareFnArg$C$syn..token..Comma$GT$$GT$17h0cc9ca5fc13ffa0eE', symObjAddr: 0x7180, symBinAddr: 0x26E70, symSize: 0xF0 }
  - { offsetInCU: 0x20FC1, offset: 0xBAE51, size: 0x8, addend: 0x0, symName: '__ZN4core3ptr96drop_in_place$LT$core..option..Option$LT$alloc..boxed..Box$LT$syn..path..PathSegment$GT$$GT$$GT$17h2d05e908c3bffd1cE', symObjAddr: 0x7270, symBinAddr: 0x26F60, symSize: 0x1A0 }
  - { offsetInCU: 0x21682, offset: 0xBB512, size: 0x8, addend: 0x0, symName: '__ZN4core3ptr97drop_in_place$LT$syn..punctuated..Punctuated$LT$syn..expr..FieldValue$C$syn..token..Comma$GT$$GT$17hc51e6e9ab972ef1bE', symObjAddr: 0x7410, symBinAddr: 0x27100, symSize: 0xF0 }
  - { offsetInCU: 0x219FB, offset: 0xBB88B, size: 0x8, addend: 0x0, symName: '__ZN4core3ptr98drop_in_place$LT$syn..punctuated..Punctuated$LT$syn..lifetime..Lifetime$C$syn..token..Plus$GT$$GT$17h3346a70b7ba118ddE', symObjAddr: 0x7500, symBinAddr: 0x271F0, symSize: 0xD0 }
  - { offsetInCU: 0x2297B, offset: 0xBC80B, size: 0x8, addend: 0x0, symName: '__ZN42_$LT$$RF$T$u20$as$u20$core..fmt..Debug$GT$3fmt17h0a21f018c948c552E.llvm.16538252309161524279', symObjAddr: 0x0, symBinAddr: 0x1FCF0, symSize: 0xD0 }
  - { offsetInCU: 0x22A06, offset: 0xBC896, size: 0x8, addend: 0x0, symName: '__ZN42_$LT$$RF$T$u20$as$u20$core..fmt..Debug$GT$3fmt17h11af6b62b92553e7E.llvm.16538252309161524279', symObjAddr: 0xD0, symBinAddr: 0x1FDC0, symSize: 0x180 }
  - { offsetInCU: 0x22A81, offset: 0xBC911, size: 0x8, addend: 0x0, symName: '__ZN53_$LT$core..fmt..Error$u20$as$u20$core..fmt..Debug$GT$3fmt17h03dc662ab152f3aeE', symObjAddr: 0x7680, symBinAddr: 0x272C0, symSize: 0x20 }
  - { offsetInCU: 0x28B83, offset: 0xC2A13, size: 0x8, addend: 0x0, symName: __ZN15zerocopy_derive4repr5reprs17h6c913cbd9ee57935E, symObjAddr: 0xA3A0, symBinAddr: 0x29FE0, symSize: 0x750 }
  - { offsetInCU: 0x2A19F, offset: 0xC402F, size: 0x8, addend: 0x0, symName: '__ZN75_$LT$zerocopy_derive..repr..StructRepr$u20$as$u20$core..cmp..PartialOrd$GT$11partial_cmp17h8e1a2a7626c9dc21E', symObjAddr: 0xAAF0, symBinAddr: 0x2A730, symSize: 0x170 }
  - { offsetInCU: 0x2A71F, offset: 0xC45AF, size: 0x8, addend: 0x0, symName: '__ZN73_$LT$zerocopy_derive..repr..EnumRepr$u20$as$u20$core..cmp..PartialOrd$GT$11partial_cmp17h64e9f6facc8ce314E', symObjAddr: 0xAC60, symBinAddr: 0x2A8A0, symSize: 0x170 }
  - { offsetInCU: 0x2AC9F, offset: 0xC4B2F, size: 0x8, addend: 0x0, symName: '__ZN70_$LT$zerocopy_derive..repr..EnumRepr$u20$as$u20$core..fmt..Display$GT$3fmt17h034986664cda7704E', symObjAddr: 0xADD0, symBinAddr: 0x2AA10, symSize: 0x1D0 }
  - { offsetInCU: 0x31CC7, offset: 0xCBB57, size: 0x8, addend: 0x0, symName: '__ZN15zerocopy_derive4repr15Config$LT$R$GT$14validate_reprs17ha68991b466a234bbE', symObjAddr: 0x7840, symBinAddr: 0x27480, symSize: 0x1330 }
  - { offsetInCU: 0x3517C, offset: 0xCF00C, size: 0x8, addend: 0x0, symName: '__ZN15zerocopy_derive4repr15Config$LT$R$GT$14validate_reprs17hb7e0932366a9950eE', symObjAddr: 0x8B70, symBinAddr: 0x287B0, symSize: 0x12B0 }
  - { offsetInCU: 0x3827E, offset: 0xD210E, size: 0x8, addend: 0x0, symName: __ZN15zerocopy_derive4repr4Repr9from_meta17h34dfbc8858e276a5E, symObjAddr: 0x9E20, symBinAddr: 0x29A60, symSize: 0x580 }
  - { offsetInCU: 0x1E, offset: 0xD6ED2, size: 0x8, addend: 0x0, symName: '__ZN100_$LT$syn..punctuated..PrivateIter$LT$T$C$P$GT$$u20$as$u20$core..iter..traits..iterator..Iterator$GT$4next17h48ad01f832b3bb1dE.llvm.16624136339755655721', symObjAddr: 0x0, symBinAddr: 0x2ABE0, symSize: 0x0 }
  - { offsetInCU: 0x65D, offset: 0xD7511, size: 0x8, addend: 0x0, symName: '__ZN100_$LT$syn..punctuated..PrivateIter$LT$T$C$P$GT$$u20$as$u20$core..iter..traits..iterator..Iterator$GT$4next17h48ad01f832b3bb1dE.llvm.16624136339755655721', symObjAddr: 0x0, symBinAddr: 0x2ABE0, symSize: 0x0 }
  - { offsetInCU: 0x90E, offset: 0xD77C2, size: 0x8, addend: 0x0, symName: '__ZN100_$LT$syn..punctuated..PrivateIter$LT$T$C$P$GT$$u20$as$u20$core..iter..traits..iterator..Iterator$GT$4next17ha86db84a0a314e9eE.llvm.16624136339755655721', symObjAddr: 0x30, symBinAddr: 0x2AC10, symSize: 0x30 }
  - { offsetInCU: 0xB9B, offset: 0xD7A4F, size: 0x8, addend: 0x0, symName: '__ZN100_$LT$syn..punctuated..PrivateIter$LT$T$C$P$GT$$u20$as$u20$core..iter..traits..iterator..Iterator$GT$4next17hfe5e64b5d8fb5ddcE.llvm.16624136339755655721', symObjAddr: 0x60, symBinAddr: 0x2AC40, symSize: 0x30 }
  - { offsetInCU: 0x109A, offset: 0xD7F4E, size: 0x8, addend: 0x0, symName: '__ZN102_$LT$syn..punctuated..Punctuated$LT$T$C$P$GT$$u20$as$u20$core..iter..traits..collect..IntoIterator$GT$9into_iter17h560efe1f5490f334E', symObjAddr: 0x90, symBinAddr: 0x2AC70, symSize: 0x2D0 }
  - { offsetInCU: 0x1D97, offset: 0xD8C4B, size: 0x8, addend: 0x0, symName: '__ZN102_$LT$syn..punctuated..Punctuated$LT$T$C$P$GT$$u20$as$u20$core..iter..traits..collect..IntoIterator$GT$9into_iter17hacba5f6026a335b3E', symObjAddr: 0x360, symBinAddr: 0x2AF40, symSize: 0x2D0 }
  - { offsetInCU: 0x2A9A, offset: 0xD994E, size: 0x8, addend: 0x0, symName: '__ZN111_$LT$syn..punctuated..PrivateIter$LT$T$C$P$GT$$u20$as$u20$core..iter..traits..exact_size..ExactSizeIterator$GT$3len17h298f9cc40228ee7aE.llvm.16624136339755655721', symObjAddr: 0x630, symBinAddr: 0x2B210, symSize: 0x0 }
  - { offsetInCU: 0x2B89, offset: 0xD9A3D, size: 0x8, addend: 0x0, symName: '__ZN111_$LT$syn..punctuated..PrivateIter$LT$T$C$P$GT$$u20$as$u20$core..iter..traits..exact_size..ExactSizeIterator$GT$3len17h92e18e6702a52946E.llvm.16624136339755655721', symObjAddr: 0x660, symBinAddr: 0x2B240, symSize: 0x30 }
  - { offsetInCU: 0x2D9F, offset: 0xD9C53, size: 0x8, addend: 0x0, symName: '__ZN115_$LT$syn..punctuated..PrivateIter$LT$T$C$P$GT$$u20$as$u20$core..iter..traits..double_ended..DoubleEndedIterator$GT$9next_back17h16b9596ce0f6729eE.llvm.16624136339755655721', symObjAddr: 0x6C0, symBinAddr: 0x2B270, symSize: 0x30 }
  - { offsetInCU: 0x304E, offset: 0xD9F02, size: 0x8, addend: 0x0, symName: '__ZN115_$LT$syn..punctuated..PrivateIter$LT$T$C$P$GT$$u20$as$u20$core..iter..traits..double_ended..DoubleEndedIterator$GT$9next_back17h83d7799dcfe6db31E.llvm.16624136339755655721', symObjAddr: 0x6F0, symBinAddr: 0x2B2A0, symSize: 0x0 }
  - { offsetInCU: 0x34A1, offset: 0xDA355, size: 0x8, addend: 0x0, symName: '__ZN57_$LT$I$u20$as$u20$syn..punctuated..IterTrait$LT$T$GT$$GT$9clone_box17h17170a5143212197E.llvm.16624136339755655721', symObjAddr: 0x8C80, symBinAddr: 0x33400, symSize: 0x60 }
  - { offsetInCU: 0x36AE, offset: 0xDA562, size: 0x8, addend: 0x0, symName: '__ZN57_$LT$I$u20$as$u20$syn..punctuated..IterTrait$LT$T$GT$$GT$9clone_box17h31f7b09c2b61523dE.llvm.16624136339755655721', symObjAddr: 0x8CE0, symBinAddr: 0x33460, symSize: 0x60 }
  - { offsetInCU: 0x38BB, offset: 0xDA76F, size: 0x8, addend: 0x0, symName: '__ZN57_$LT$I$u20$as$u20$syn..punctuated..IterTrait$LT$T$GT$$GT$9clone_box17hca22f7998ddb7384E.llvm.16624136339755655721', symObjAddr: 0x8DA0, symBinAddr: 0x334C0, symSize: 0x60 }
  - { offsetInCU: 0x3ACE, offset: 0xDA982, size: 0x8, addend: 0x0, symName: '__ZN79_$LT$syn..punctuated..Punctuated$LT$T$C$P$GT$$u20$as$u20$core..clone..Clone$GT$5clone17h8974d6f1c6d28d11E', symObjAddr: 0x8E00, symBinAddr: 0x33520, symSize: 0xE0 }
  - { offsetInCU: 0x87F0, offset: 0xDF6A4, size: 0x8, addend: 0x0, symName: '__ZN40_$LT$F$u20$as$u20$syn..parse..Parser$GT$14__parse_scoped17h1da2a93a28f8b763E', symObjAddr: 0x910, symBinAddr: 0x2B2D0, symSize: 0x790 }
  - { offsetInCU: 0xE8F5, offset: 0xE57A9, size: 0x8, addend: 0x0, symName: '__ZN4core3ptr100drop_in_place$LT$core..option..Option$LT$alloc..boxed..Box$LT$syn..path..GenericArgument$GT$$GT$$GT$17hcd46fb80bb4426e5E', symObjAddr: 0x10A0, symBinAddr: 0x2BA60, symSize: 0x50 }
  - { offsetInCU: 0xEAA3, offset: 0xE5957, size: 0x8, addend: 0x0, symName: '__ZN4core3ptr101drop_in_place$LT$core..option..Option$LT$alloc..boxed..Box$LT$syn..generics..GenericParam$GT$$GT$$GT$17h58ee9819296a1b94E.llvm.16624136339755655721', symObjAddr: 0x10F0, symBinAddr: 0x2BAB0, symSize: 0x90 }
  - { offsetInCU: 0xEC7A, offset: 0xE5B2E, size: 0x8, addend: 0x0, symName: '__ZN4core3ptr102drop_in_place$LT$syn..punctuated..Punctuated$LT$syn..path..GenericArgument$C$syn..token..Comma$GT$$GT$17heaaab034628a2a18E', symObjAddr: 0x1180, symBinAddr: 0x2BB40, symSize: 0xF0 }
  - { offsetInCU: 0xEF9A, offset: 0xE5E4E, size: 0x8, addend: 0x0, symName: '__ZN4core3ptr103drop_in_place$LT$core..option..Option$LT$alloc..boxed..Box$LT$syn..generics..TypeParamBound$GT$$GT$$GT$17h05a49ed32eff1671E', symObjAddr: 0x1270, symBinAddr: 0x2BC30, symSize: 0x50 }
  - { offsetInCU: 0xF167, offset: 0xE601B, size: 0x8, addend: 0x0, symName: '__ZN4core3ptr103drop_in_place$LT$syn..punctuated..Punctuated$LT$syn..generics..GenericParam$C$syn..token..Comma$GT$$GT$17h4c8d183416e922e4E', symObjAddr: 0x12C0, symBinAddr: 0x2BC80, symSize: 0x150 }
  - { offsetInCU: 0xF7FC, offset: 0xE66B0, size: 0x8, addend: 0x0, symName: '__ZN4core3ptr104drop_in_place$LT$syn..punctuated..Punctuated$LT$syn..generics..TypeParamBound$C$syn..token..Plus$GT$$GT$17h14d7d9f74bee17faE', symObjAddr: 0x1410, symBinAddr: 0x2BDD0, symSize: 0x260 }
  - { offsetInCU: 0x10246, offset: 0xE70FA, size: 0x8, addend: 0x0, symName: '__ZN4core3ptr34drop_in_place$LT$syn..lit..Lit$GT$17hbd412daaa9d55e9fE', symObjAddr: 0x1670, symBinAddr: 0x2C030, symSize: 0x120 }
  - { offsetInCU: 0x10734, offset: 0xE75E8, size: 0x8, addend: 0x0, symName: '__ZN4core3ptr34drop_in_place$LT$syn..pat..Pat$GT$17he2158bf5b9616153E', symObjAddr: 0x1790, symBinAddr: 0x2C150, symSize: 0xF70 }
  - { offsetInCU: 0x1464D, offset: 0xEB501, size: 0x8, addend: 0x0, symName: '__ZN4core3ptr34drop_in_place$LT$syn..ty..Type$GT$17h87f2c3d06e50cb41E.llvm.16624136339755655721', symObjAddr: 0x2700, symBinAddr: 0x2D0C0, symSize: 0x5A0 }
  - { offsetInCU: 0x15A57, offset: 0xEC90B, size: 0x8, addend: 0x0, symName: '__ZN4core3ptr36drop_in_place$LT$syn..attr..Meta$GT$17h53e68c0a88de82e3E.llvm.16624136339755655721', symObjAddr: 0x2CA0, symBinAddr: 0x2D660, symSize: 0xA0 }
  - { offsetInCU: 0x16083, offset: 0xECF37, size: 0x8, addend: 0x0, symName: '__ZN4core3ptr36drop_in_place$LT$syn..expr..Expr$GT$17h1abc66c6856a0df5E.llvm.16624136339755655721', symObjAddr: 0x2D40, symBinAddr: 0x2D700, symSize: 0x2760 }
  - { offsetInCU: 0x1FD7A, offset: 0xF6C2E, size: 0x8, addend: 0x0, symName: '__ZN4core3ptr36drop_in_place$LT$syn..mac..Macro$GT$17hb6bd6f67d9ee6797E', symObjAddr: 0x54A0, symBinAddr: 0x2FE60, symSize: 0x110 }
  - { offsetInCU: 0x20217, offset: 0xF70CB, size: 0x8, addend: 0x0, symName: '__ZN4core3ptr36drop_in_place$LT$syn..path..Path$GT$17hf46cc67adc8dabe6E.llvm.16624136339755655721', symObjAddr: 0x55B0, symBinAddr: 0x2FF70, symSize: 0x280 }
  - { offsetInCU: 0x20CC4, offset: 0xF7B78, size: 0x8, addend: 0x0, symName: '__ZN4core3ptr37drop_in_place$LT$syn..stmt..Block$GT$17hfecb452d98558591E', symObjAddr: 0x5830, symBinAddr: 0x301F0, symSize: 0xD0 }
  - { offsetInCU: 0x20F9B, offset: 0xF7E4F, size: 0x8, addend: 0x0, symName: '__ZN4core3ptr38drop_in_place$LT$syn..expr..Member$GT$17hba941f4c189dc795E', symObjAddr: 0x5900, symBinAddr: 0x302C0, symSize: 0x30 }
  - { offsetInCU: 0x21097, offset: 0xF7F4B, size: 0x8, addend: 0x0, symName: '__ZN4core3ptr39drop_in_place$LT$proc_macro2..Ident$GT$17hd6ce070b43e43c97E.llvm.16624136339755655721', symObjAddr: 0x5930, symBinAddr: 0x302F0, symSize: 0x30 }
  - { offsetInCU: 0x212AA, offset: 0xF815E, size: 0x8, addend: 0x0, symName: '__ZN4core3ptr39drop_in_place$LT$syn..buffer..Entry$GT$17he6366cfe2331dbc9E', symObjAddr: 0x5960, symBinAddr: 0x30320, symSize: 0xB0 }
  - { offsetInCU: 0x21635, offset: 0xF84E9, size: 0x8, addend: 0x0, symName: '__ZN4core3ptr40drop_in_place$LT$syn..ty..ReturnType$GT$17h792ba338568d45a9E', symObjAddr: 0x5A10, symBinAddr: 0x303D0, symSize: 0x50 }
  - { offsetInCU: 0x217A5, offset: 0xF8659, size: 0x8, addend: 0x0, symName: '__ZN4core3ptr41drop_in_place$LT$syn..expr..ExprConst$GT$17hb9ba4f2625f15720E', symObjAddr: 0x5A60, symBinAddr: 0x30420, symSize: 0x180 }
  - { offsetInCU: 0x21D92, offset: 0xF8C46, size: 0x8, addend: 0x0, symName: '__ZN4core3ptr44drop_in_place$LT$syn..lifetime..Lifetime$GT$17hc4613dd5781cff6aE.llvm.16624136339755655721', symObjAddr: 0x5BE0, symBinAddr: 0x305A0, symSize: 0x30 }
  - { offsetInCU: 0x21E8E, offset: 0xF8D42, size: 0x8, addend: 0x0, symName: '__ZN4core3ptr44drop_in_place$LT$syn..parse..ParseBuffer$GT$17h5181664a931f6441E', symObjAddr: 0x5C10, symBinAddr: 0x305D0, symSize: 0x70 }
  - { offsetInCU: 0x2220A, offset: 0xF90BE, size: 0x8, addend: 0x0, symName: '__ZN4core3ptr45drop_in_place$LT$proc_macro2..TokenStream$GT$17h4851dd21cbf4c1a2E.llvm.16624136339755655721', symObjAddr: 0x5C80, symBinAddr: 0x30640, symSize: 0x140 }
  - { offsetInCU: 0x22666, offset: 0xF951A, size: 0x8, addend: 0x0, symName: '__ZN4core3ptr45drop_in_place$LT$syn..buffer..TokenBuffer$GT$17h1770fcedceb63ec7E', symObjAddr: 0x5DC0, symBinAddr: 0x30780, symSize: 0xC0 }
  - { offsetInCU: 0x228CE, offset: 0xF9782, size: 0x8, addend: 0x0, symName: '__ZN4core3ptr45drop_in_place$LT$syn..generics..TypeParam$GT$17h659ea6c0f216e41aE.llvm.16624136339755655721', symObjAddr: 0x5E80, symBinAddr: 0x30840, symSize: 0x230 }
  - { offsetInCU: 0x23143, offset: 0xF9FF7, size: 0x8, addend: 0x0, symName: '__ZN4core3ptr46drop_in_place$LT$syn..generics..ConstParam$GT$17h095591ccecb80218E.llvm.16624136339755655721', symObjAddr: 0x60B0, symBinAddr: 0x30A70, symSize: 0x150 }
  - { offsetInCU: 0x235C4, offset: 0xFA478, size: 0x8, addend: 0x0, symName: '__ZN4core3ptr47drop_in_place$LT$syn..path..GenericArgument$GT$17h7df0218258579c58E', symObjAddr: 0x6200, symBinAddr: 0x30BC0, symSize: 0x450 }
  - { offsetInCU: 0x2433A, offset: 0xFB1EE, size: 0x8, addend: 0x0, symName: '__ZN4core3ptr49drop_in_place$LT$syn..generics..LifetimeParam$GT$17h42283e1ea975e28fE.llvm.16624136339755655721', symObjAddr: 0x6650, symBinAddr: 0x31010, symSize: 0xF0 }
  - { offsetInCU: 0x24751, offset: 0xFB605, size: 0x8, addend: 0x0, symName: '__ZN4core3ptr50drop_in_place$LT$syn..generics..TypeParamBound$GT$17h3e55c99574230180E', symObjAddr: 0x6740, symBinAddr: 0x31100, symSize: 0xA0 }
  - { offsetInCU: 0x248B7, offset: 0xFB76B, size: 0x8, addend: 0x0, symName: '__ZN4core3ptr58drop_in_place$LT$alloc..vec..Vec$LT$syn..expr..Arm$GT$$GT$17he1c084b01428a786E', symObjAddr: 0x67E0, symBinAddr: 0x311A0, symSize: 0xD0 }
  - { offsetInCU: 0x24B77, offset: 0xFBA2B, size: 0x8, addend: 0x0, symName: '__ZN4core3ptr59drop_in_place$LT$alloc..boxed..Box$LT$syn..pat..Pat$GT$$GT$17h3b485c4e8bee9607E', symObjAddr: 0x68B0, symBinAddr: 0x31270, symSize: 0x50 }
  - { offsetInCU: 0x24CD0, offset: 0xFBB84, size: 0x8, addend: 0x0, symName: '__ZN4core3ptr59drop_in_place$LT$alloc..boxed..Box$LT$syn..ty..Type$GT$$GT$17h529d4bae83980455E', symObjAddr: 0x6900, symBinAddr: 0x312C0, symSize: 0x50 }
  - { offsetInCU: 0x24E48, offset: 0xFBCFC, size: 0x8, addend: 0x0, symName: '__ZN4core3ptr59drop_in_place$LT$alloc..vec..Vec$LT$syn..attr..Meta$GT$$GT$17hafcfdb2117f09f5fE.llvm.16624136339755655721', symObjAddr: 0x6950, symBinAddr: 0x31310, symSize: 0xD0 }
  - { offsetInCU: 0x2511B, offset: 0xFBFCF, size: 0x8, addend: 0x0, symName: '__ZN4core3ptr61drop_in_place$LT$alloc..boxed..Box$LT$syn..expr..Expr$GT$$GT$17h460ec2498556bb03E', symObjAddr: 0x6A20, symBinAddr: 0x313E0, symSize: 0x50 }
  - { offsetInCU: 0x25274, offset: 0xFC128, size: 0x8, addend: 0x0, symName: '__ZN4core3ptr61drop_in_place$LT$syn..path..ParenthesizedGenericArguments$GT$17he5db395c9e85d0bcE', symObjAddr: 0x6A70, symBinAddr: 0x31430, symSize: 0x170 }
  - { offsetInCU: 0x2587D, offset: 0xFC731, size: 0x8, addend: 0x0, symName: '__ZN4core3ptr63drop_in_place$LT$alloc..boxed..Box$LT$syn..lit..LitRepr$GT$$GT$17h06befdf0496ebcdaE', symObjAddr: 0x6BE0, symBinAddr: 0x315A0, symSize: 0x60 }
  - { offsetInCU: 0x25B84, offset: 0xFCA38, size: 0x8, addend: 0x0, symName: '__ZN4core3ptr64drop_in_place$LT$alloc..boxed..Box$LT$syn..pat..FieldPat$GT$$GT$17h9d44220380a4d0a3E', symObjAddr: 0x6C40, symBinAddr: 0x31600, symSize: 0x140 }
  - { offsetInCU: 0x26285, offset: 0xFD139, size: 0x8, addend: 0x0, symName: '__ZN4core3ptr64drop_in_place$LT$alloc..boxed..Box$LT$syn..ty..BareFnArg$GT$$GT$17h3296e316e6a4b46aE', symObjAddr: 0x6D80, symBinAddr: 0x31740, symSize: 0x140 }
  - { offsetInCU: 0x2680E, offset: 0xFD6C2, size: 0x8, addend: 0x0, symName: '__ZN4core3ptr65drop_in_place$LT$alloc..vec..Vec$LT$proc_macro..TokenTree$GT$$GT$17h23629d65d27f1a0fE.llvm.16624136339755655721', symObjAddr: 0x6EC0, symBinAddr: 0x31880, symSize: 0x110 }
  - { offsetInCU: 0x26C06, offset: 0xFDABA, size: 0x8, addend: 0x0, symName: '__ZN4core3ptr65drop_in_place$LT$core..option..Option$LT$syn..expr..Label$GT$$GT$17h4464a9bb4850ad8cE', symObjAddr: 0x6FD0, symBinAddr: 0x31990, symSize: 0x30 }
  - { offsetInCU: 0x26D40, offset: 0xFDBF4, size: 0x8, addend: 0x0, symName: '__ZN4core3ptr66drop_in_place$LT$core..option..Option$LT$syn..pat..PatRest$GT$$GT$17he31e390125d6c440E', symObjAddr: 0x7000, symBinAddr: 0x319C0, symSize: 0xE0 }
  - { offsetInCU: 0x27068, offset: 0xFDF1C, size: 0x8, addend: 0x0, symName: '__ZN4core3ptr67drop_in_place$LT$alloc..boxed..Box$LT$syn..expr..FieldValue$GT$$GT$17h0d12b7a5aa94d7e9E', symObjAddr: 0x70E0, symBinAddr: 0x31AA0, symSize: 0x140 }
  - { offsetInCU: 0x275F0, offset: 0xFE4A4, size: 0x8, addend: 0x0, symName: '__ZN4core3ptr70drop_in_place$LT$core..option..Option$LT$syn..ty..BareVariadic$GT$$GT$17h7723d310b943ca36E', symObjAddr: 0x7220, symBinAddr: 0x31BE0, symSize: 0x100 }
  - { offsetInCU: 0x27A5B, offset: 0xFE90F, size: 0x8, addend: 0x0, symName: '__ZN4core3ptr71drop_in_place$LT$alloc..vec..Vec$LT$syn..generics..GenericParam$GT$$GT$17h43b5ee2ba2bbc94eE.llvm.16624136339755655721', symObjAddr: 0x7320, symBinAddr: 0x31CE0, symSize: 0xD0 }
  - { offsetInCU: 0x27D4D, offset: 0xFEC01, size: 0x8, addend: 0x0, symName: '__ZN4core3ptr72drop_in_place$LT$alloc..boxed..Box$LT$syn..path..GenericArgument$GT$$GT$17h06f95a13408ebdafE', symObjAddr: 0x73F0, symBinAddr: 0x31DB0, symSize: 0x2B0 }
  - { offsetInCU: 0x2875E, offset: 0xFF612, size: 0x8, addend: 0x0, symName: '__ZN4core3ptr72drop_in_place$LT$core..option..Option$LT$syn..lifetime..Lifetime$GT$$GT$17h81994ea203da09dcE', symObjAddr: 0x76A0, symBinAddr: 0x32060, symSize: 0x30 }
  - { offsetInCU: 0x28879, offset: 0xFF72D, size: 0x8, addend: 0x0, symName: '__ZN4core3ptr73drop_in_place$LT$alloc..boxed..Box$LT$syn..generics..GenericParam$GT$$GT$17h85c8be7868d3af0dE', symObjAddr: 0x76D0, symBinAddr: 0x32090, symSize: 0x80 }
  - { offsetInCU: 0x289EF, offset: 0xFF8A3, size: 0x8, addend: 0x0, symName: '__ZN4core3ptr75drop_in_place$LT$alloc..boxed..Box$LT$syn..generics..TypeParamBound$GT$$GT$17h1941c611c3139631E', symObjAddr: 0x7750, symBinAddr: 0x32110, symSize: 0x1B0 }
  - { offsetInCU: 0x290EE, offset: 0xFFFA2, size: 0x8, addend: 0x0, symName: '__ZN4core3ptr86drop_in_place$LT$syn..punctuated..Punctuated$LT$syn..pat..Pat$C$syn..token..Or$GT$$GT$17had6e801733142469E', symObjAddr: 0x7900, symBinAddr: 0x322C0, symSize: 0x120 }
  - { offsetInCU: 0x29588, offset: 0x10043C, size: 0x8, addend: 0x0, symName: '__ZN4core3ptr87drop_in_place$LT$alloc..vec..Vec$LT$$LP$syn..attr..Meta$C$syn..token..Comma$RP$$GT$$GT$17hfc18f448669c8013E.llvm.16624136339755655721', symObjAddr: 0x7A20, symBinAddr: 0x323E0, symSize: 0xD0 }
  - { offsetInCU: 0x2987C, offset: 0x100730, size: 0x8, addend: 0x0, symName: '__ZN4core3ptr87drop_in_place$LT$core..option..Option$LT$alloc..boxed..Box$LT$syn..pat..Pat$GT$$GT$$GT$17ha5cba3ae6cc21c54E', symObjAddr: 0x7AF0, symBinAddr: 0x324B0, symSize: 0x50 }
  - { offsetInCU: 0x299EC, offset: 0x1008A0, size: 0x8, addend: 0x0, symName: '__ZN4core3ptr87drop_in_place$LT$core..option..Option$LT$alloc..boxed..Box$LT$syn..ty..Type$GT$$GT$$GT$17h4b703a12e8077b57E', symObjAddr: 0x7B40, symBinAddr: 0x32500, symSize: 0x50 }
  - { offsetInCU: 0x29B7B, offset: 0x100A2F, size: 0x8, addend: 0x0, symName: '__ZN4core3ptr89drop_in_place$LT$core..option..Option$LT$alloc..boxed..Box$LT$syn..attr..Meta$GT$$GT$$GT$17h5d3ac31381ac40d0E.llvm.16624136339755655721', symObjAddr: 0x7B90, symBinAddr: 0x32550, symSize: 0x50 }
  - { offsetInCU: 0x29CDE, offset: 0x100B92, size: 0x8, addend: 0x0, symName: '__ZN4core3ptr89drop_in_place$LT$core..option..Option$LT$alloc..boxed..Box$LT$syn..expr..Expr$GT$$GT$$GT$17h9eee67e527e2e442E', symObjAddr: 0x7BE0, symBinAddr: 0x325A0, symSize: 0x50 }
  - { offsetInCU: 0x29E8C, offset: 0x100D40, size: 0x8, addend: 0x0, symName: '__ZN4core3ptr89drop_in_place$LT$syn..punctuated..Punctuated$LT$syn..pat..Pat$C$syn..token..Comma$GT$$GT$17he3d98e99a23dba01E', symObjAddr: 0x7C30, symBinAddr: 0x325F0, symSize: 0x120 }
  - { offsetInCU: 0x2A35C, offset: 0x101210, size: 0x8, addend: 0x0, symName: '__ZN4core3ptr91drop_in_place$LT$syn..punctuated..Punctuated$LT$syn..attr..Meta$C$syn..token..Comma$GT$$GT$17ha969d6a2fc9bf02aE', symObjAddr: 0x7D50, symBinAddr: 0x32710, symSize: 0x120 }
  - { offsetInCU: 0x2A808, offset: 0x1016BC, size: 0x8, addend: 0x0, symName: '__ZN4core3ptr91drop_in_place$LT$syn..punctuated..Punctuated$LT$syn..expr..Expr$C$syn..token..Comma$GT$$GT$17h2dea47310fc0e082E', symObjAddr: 0x7E70, symBinAddr: 0x32830, symSize: 0x120 }
  - { offsetInCU: 0x2AC96, offset: 0x101B4A, size: 0x8, addend: 0x0, symName: '__ZN4core3ptr94drop_in_place$LT$syn..punctuated..Punctuated$LT$syn..pat..FieldPat$C$syn..token..Comma$GT$$GT$17h190748b2c55432b6E', symObjAddr: 0x7F90, symBinAddr: 0x32950, symSize: 0xF0 }
  - { offsetInCU: 0x2AF95, offset: 0x101E49, size: 0x8, addend: 0x0, symName: '__ZN4core3ptr94drop_in_place$LT$syn..punctuated..Punctuated$LT$syn..ty..BareFnArg$C$syn..token..Comma$GT$$GT$17h0cc9ca5fc13ffa0eE', symObjAddr: 0x8080, symBinAddr: 0x32A40, symSize: 0xF0 }
  - { offsetInCU: 0x2B296, offset: 0x10214A, size: 0x8, addend: 0x0, symName: '__ZN4core3ptr96drop_in_place$LT$core..option..Option$LT$alloc..boxed..Box$LT$syn..path..PathSegment$GT$$GT$$GT$17h2d05e908c3bffd1cE', symObjAddr: 0x8170, symBinAddr: 0x32B30, symSize: 0x1A0 }
  - { offsetInCU: 0x2B957, offset: 0x10280B, size: 0x8, addend: 0x0, symName: '__ZN4core3ptr97drop_in_place$LT$syn..punctuated..Punctuated$LT$syn..expr..FieldValue$C$syn..token..Comma$GT$$GT$17hc51e6e9ab972ef1bE', symObjAddr: 0x8310, symBinAddr: 0x32CD0, symSize: 0xF0 }
  - { offsetInCU: 0x2BCD0, offset: 0x102B84, size: 0x8, addend: 0x0, symName: '__ZN4core3ptr98drop_in_place$LT$syn..punctuated..Punctuated$LT$syn..lifetime..Lifetime$C$syn..token..Plus$GT$$GT$17h3346a70b7ba118ddE.llvm.16624136339755655721', symObjAddr: 0x8400, symBinAddr: 0x32DC0, symSize: 0xD0 }
  - { offsetInCU: 0x2C144, offset: 0x102FF8, size: 0x8, addend: 0x0, symName: '__ZN4core3ptr99drop_in_place$LT$alloc..vec..Vec$LT$$LP$syn..generics..GenericParam$C$syn..token..Comma$RP$$GT$$GT$17h583037b1ed477771E.llvm.16624136339755655721', symObjAddr: 0x84D0, symBinAddr: 0x32E90, symSize: 0xD0 }
  - { offsetInCU: 0x305DB, offset: 0x10748F, size: 0x8, addend: 0x0, symName: __ZN4core4iter6traits8iterator8Iterator10advance_by17h2c0e6186960aaa9aE.llvm.16624136339755655721, symObjAddr: 0x8990, symBinAddr: 0x33200, symSize: 0x0 }
  - { offsetInCU: 0x308EF, offset: 0x1077A3, size: 0x8, addend: 0x0, symName: __ZN4core4iter6traits8iterator8Iterator10advance_by17hcbfff272294bde47E.llvm.16624136339755655721, symObjAddr: 0x8A00, symBinAddr: 0x33270, symSize: 0x70 }
  - { offsetInCU: 0x30C54, offset: 0x107B08, size: 0x8, addend: 0x0, symName: __ZN4core4iter6traits8iterator8Iterator3nth17h6945b25f6a7f0912E.llvm.16624136339755655721, symObjAddr: 0x8AE0, symBinAddr: 0x332E0, symSize: 0x0 }
  - { offsetInCU: 0x31264, offset: 0x108118, size: 0x8, addend: 0x0, symName: __ZN4core4iter6traits8iterator8Iterator3nth17h7ee772aca35faa4eE.llvm.16624136339755655721, symObjAddr: 0x8BE0, symBinAddr: 0x33360, symSize: 0x80 }
  - { offsetInCU: 0x31823, offset: 0x1086D7, size: 0x8, addend: 0x0, symName: __ZN4core4iter6traits8iterator8Iterator9size_hint17h254d0bc166f215c8E.llvm.16624136339755655721, symObjAddr: 0x8C60, symBinAddr: 0x333E0, symSize: 0x0 }
  - { offsetInCU: 0x318C8, offset: 0x10877C, size: 0x8, addend: 0x0, symName: __ZN4core4iter6traits10exact_size17ExactSizeIterator8is_empty17h4e5b32b39d3627d2E.llvm.16624136339755655721, symObjAddr: 0x85A0, symBinAddr: 0x32F60, symSize: 0x0 }
  - { offsetInCU: 0x31A9B, offset: 0x10894F, size: 0x8, addend: 0x0, symName: __ZN4core4iter6traits10exact_size17ExactSizeIterator8is_empty17hfe47be7683dd65a6E.llvm.16624136339755655721, symObjAddr: 0x8600, symBinAddr: 0x32F90, symSize: 0x30 }
  - { offsetInCU: 0x31C14, offset: 0x108AC8, size: 0x8, addend: 0x0, symName: __ZN4core4iter6traits12double_ended19DoubleEndedIterator15advance_back_by17h24348270a069175eE.llvm.16624136339755655721, symObjAddr: 0x86B0, symBinAddr: 0x32FC0, symSize: 0x80 }
  - { offsetInCU: 0x31E36, offset: 0x108CEA, size: 0x8, addend: 0x0, symName: __ZN4core4iter6traits12double_ended19DoubleEndedIterator15advance_back_by17hc75af45baf6d2bd0E.llvm.16624136339755655721, symObjAddr: 0x8730, symBinAddr: 0x33040, symSize: 0x0 }
  - { offsetInCU: 0x320D2, offset: 0x108F86, size: 0x8, addend: 0x0, symName: __ZN4core4iter6traits12double_ended19DoubleEndedIterator8nth_back17h5de8cc986010f34aE.llvm.16624136339755655721, symObjAddr: 0x87B0, symBinAddr: 0x330C0, symSize: 0x0 }
  - { offsetInCU: 0x325BE, offset: 0x109472, size: 0x8, addend: 0x0, symName: __ZN4core4iter6traits12double_ended19DoubleEndedIterator8nth_back17hc097dae50394a5e4E.llvm.16624136339755655721, symObjAddr: 0x88F0, symBinAddr: 0x33160, symSize: 0xA0 }
  - { offsetInCU: 0x33676, offset: 0x10A52A, size: 0x8, addend: 0x0, symName: _anon.7dc70eb58e8e972edbf9bbba66682148.12.llvm.16624136339755655721, symObjAddr: 0xA220, symBinAddr: 0x2648D8, symSize: 0x0 }
  - { offsetInCU: 0x33756, offset: 0x10A60A, size: 0x8, addend: 0x0, symName: _anon.7dc70eb58e8e972edbf9bbba66682148.15.llvm.16624136339755655721, symObjAddr: 0xA330, symBinAddr: 0x2649E8, symSize: 0x0 }
  - { offsetInCU: 0x33836, offset: 0x10A6EA, size: 0x8, addend: 0x0, symName: _anon.7dc70eb58e8e972edbf9bbba66682148.18.llvm.16624136339755655721, symObjAddr: 0xA440, symBinAddr: 0x264AF8, symSize: 0x0 }
  - { offsetInCU: 0x1E, offset: 0x111736, size: 0x8, addend: 0x0, symName: __ZN5alloc7raw_vec11finish_grow17h867d020670e6c02dE.llvm.913868988073530079, symObjAddr: 0x0, symBinAddr: 0x33600, symSize: 0xA0 }
  - { offsetInCU: 0x4BAE, offset: 0x1162C6, size: 0x8, addend: 0x0, symName: __ZN5alloc7raw_vec11finish_grow17h867d020670e6c02dE.llvm.913868988073530079, symObjAddr: 0x0, symBinAddr: 0x33600, symSize: 0xA0 }
  - { offsetInCU: 0x5C2A, offset: 0x117342, size: 0x8, addend: 0x0, symName: '__ZN5alloc7raw_vec19RawVec$LT$T$C$A$GT$7reserve21do_reserve_and_handle17h3a00852d931147b6E', symObjAddr: 0x6B0, symBinAddr: 0x1FDE20, symSize: 0xA0 }
  - { offsetInCU: 0x5F22, offset: 0x11763A, size: 0x8, addend: 0x0, symName: '__ZN5alloc7raw_vec19RawVec$LT$T$C$A$GT$7reserve21do_reserve_and_handle17h7102ad9b6b329b30E', symObjAddr: 0x750, symBinAddr: 0x1FDEC0, symSize: 0xB0 }
  - { offsetInCU: 0x624D, offset: 0x117965, size: 0x8, addend: 0x0, symName: '__ZN5alloc7raw_vec19RawVec$LT$T$C$A$GT$7reserve21do_reserve_and_handle17h7a1f9f978e10d45dE', symObjAddr: 0x800, symBinAddr: 0x1FDF70, symSize: 0xB0 }
  - { offsetInCU: 0x6578, offset: 0x117C90, size: 0x8, addend: 0x0, symName: '__ZN5alloc7raw_vec19RawVec$LT$T$C$A$GT$7reserve21do_reserve_and_handle17ha5aad9ec9cfa4cf8E', symObjAddr: 0x970, symBinAddr: 0x1FE020, symSize: 0xC0 }
  - { offsetInCU: 0x68A5, offset: 0x117FBD, size: 0x8, addend: 0x0, symName: '__ZN5alloc7raw_vec19RawVec$LT$T$C$A$GT$7reserve21do_reserve_and_handle17hc5099fa4f8ac9b88E', symObjAddr: 0xA30, symBinAddr: 0x1FE0E0, symSize: 0xC0 }
  - { offsetInCU: 0xD84F, offset: 0x11EF67, size: 0x8, addend: 0x0, symName: '__ZN5alloc7raw_vec19RawVec$LT$T$C$A$GT$8grow_one17h062e233618865a53E', symObjAddr: 0xAF0, symBinAddr: 0x336A0, symSize: 0x0 }
  - { offsetInCU: 0xDD46, offset: 0x11F45E, size: 0x8, addend: 0x0, symName: '__ZN5alloc7raw_vec19RawVec$LT$T$C$A$GT$8grow_one17h0bd45f367752f681E', symObjAddr: 0xBA0, symBinAddr: 0x33750, symSize: 0xC0 }
  - { offsetInCU: 0xE23F, offset: 0x11F957, size: 0x8, addend: 0x0, symName: '__ZN5alloc7raw_vec19RawVec$LT$T$C$A$GT$8grow_one17h28f9a0c72631e4b6E', symObjAddr: 0xC60, symBinAddr: 0x33810, symSize: 0x0 }
  - { offsetInCU: 0xE580, offset: 0x11FC98, size: 0x8, addend: 0x0, symName: '__ZN5alloc7raw_vec19RawVec$LT$T$C$A$GT$8grow_one17h7d3205f61ad5418dE', symObjAddr: 0xD20, symBinAddr: 0x338D0, symSize: 0xC0 }
  - { offsetInCU: 0xE8C1, offset: 0x11FFD9, size: 0x8, addend: 0x0, symName: '__ZN5alloc7raw_vec19RawVec$LT$T$C$A$GT$8grow_one17ha163bdc52c2c8782E', symObjAddr: 0xDE0, symBinAddr: 0x33990, symSize: 0xA0 }
  - { offsetInCU: 0xED8B, offset: 0x1204A3, size: 0x8, addend: 0x0, symName: '__ZN5alloc7raw_vec19RawVec$LT$T$C$A$GT$8grow_one17hce31a98a2ba4c642E', symObjAddr: 0xE80, symBinAddr: 0x33A30, symSize: 0xC0 }
  - { offsetInCU: 0x1E, offset: 0x1208F9, size: 0x8, addend: 0x0, symName: '__ZN103_$LT$alloc..vec..into_iter..IntoIter$LT$T$C$A$GT$$u20$as$u20$core..iter..traits..iterator..Iterator$GT$4fold17h4eb1a03240f8cd1bE', symObjAddr: 0x0, symBinAddr: 0x33AF0, symSize: 0x190 }
  - { offsetInCU: 0x1D19, offset: 0x1225F4, size: 0x8, addend: 0x0, symName: '__ZN4core3ptr100drop_in_place$LT$core..option..Option$LT$alloc..boxed..Box$LT$syn..path..GenericArgument$GT$$GT$$GT$17hcd46fb80bb4426e5E', symObjAddr: 0x450, symBinAddr: 0x33E00, symSize: 0x50 }
  - { offsetInCU: 0x1EE6, offset: 0x1227C1, size: 0x8, addend: 0x0, symName: '__ZN4core3ptr102drop_in_place$LT$syn..punctuated..Punctuated$LT$syn..path..GenericArgument$C$syn..token..Comma$GT$$GT$17heaaab034628a2a18E', symObjAddr: 0x4A0, symBinAddr: 0x33E50, symSize: 0xF0 }
  - { offsetInCU: 0x2206, offset: 0x122AE1, size: 0x8, addend: 0x0, symName: '__ZN4core3ptr103drop_in_place$LT$core..option..Option$LT$alloc..boxed..Box$LT$syn..generics..TypeParamBound$GT$$GT$$GT$17h05a49ed32eff1671E', symObjAddr: 0x590, symBinAddr: 0x33F40, symSize: 0x50 }
  - { offsetInCU: 0x2411, offset: 0x122CEC, size: 0x8, addend: 0x0, symName: '__ZN4core3ptr103drop_in_place$LT$syn..punctuated..Punctuated$LT$syn..generics..GenericParam$C$syn..token..Comma$GT$$GT$17h4c8d183416e922e4E', symObjAddr: 0x5E0, symBinAddr: 0x33F90, symSize: 0x150 }
  - { offsetInCU: 0x2AA6, offset: 0x123381, size: 0x8, addend: 0x0, symName: '__ZN4core3ptr104drop_in_place$LT$syn..punctuated..Punctuated$LT$syn..generics..TypeParamBound$C$syn..token..Plus$GT$$GT$17h14d7d9f74bee17faE', symObjAddr: 0x730, symBinAddr: 0x340E0, symSize: 0x260 }
  - { offsetInCU: 0x3637, offset: 0x123F12, size: 0x8, addend: 0x0, symName: '__ZN4core3ptr117drop_in_place$LT$alloc..vec..into_iter..IntoIter$LT$$LP$syn..attr..Meta$C$zerocopy_derive..repr..EnumRepr$RP$$GT$$GT$17h5c6a0db3c1fb946aE.llvm.11337009941358621760', symObjAddr: 0x990, symBinAddr: 0x34340, symSize: 0x0 }
  - { offsetInCU: 0x3A92, offset: 0x12436D, size: 0x8, addend: 0x0, symName: '__ZN4core3ptr34drop_in_place$LT$syn..lit..Lit$GT$17hbd412daaa9d55e9fE', symObjAddr: 0xA80, symBinAddr: 0x34430, symSize: 0x120 }
  - { offsetInCU: 0x3F80, offset: 0x12485B, size: 0x8, addend: 0x0, symName: '__ZN4core3ptr34drop_in_place$LT$syn..pat..Pat$GT$17he2158bf5b9616153E', symObjAddr: 0xBA0, symBinAddr: 0x34550, symSize: 0xF70 }
  - { offsetInCU: 0x7E99, offset: 0x128774, size: 0x8, addend: 0x0, symName: '__ZN4core3ptr34drop_in_place$LT$syn..ty..Type$GT$17h87f2c3d06e50cb41E.llvm.11337009941358621760', symObjAddr: 0x1B10, symBinAddr: 0x354C0, symSize: 0x5A0 }
  - { offsetInCU: 0x92A3, offset: 0x129B7E, size: 0x8, addend: 0x0, symName: '__ZN4core3ptr36drop_in_place$LT$syn..attr..Meta$GT$17h53e68c0a88de82e3E.llvm.11337009941358621760', symObjAddr: 0x20B0, symBinAddr: 0x35A60, symSize: 0xA0 }
  - { offsetInCU: 0x98CF, offset: 0x12A1AA, size: 0x8, addend: 0x0, symName: '__ZN4core3ptr36drop_in_place$LT$syn..expr..Expr$GT$17h1abc66c6856a0df5E.llvm.11337009941358621760', symObjAddr: 0x2150, symBinAddr: 0x35B00, symSize: 0x2760 }
  - { offsetInCU: 0x135C6, offset: 0x133EA1, size: 0x8, addend: 0x0, symName: '__ZN4core3ptr36drop_in_place$LT$syn..mac..Macro$GT$17hb6bd6f67d9ee6797E', symObjAddr: 0x48B0, symBinAddr: 0x38260, symSize: 0x110 }
  - { offsetInCU: 0x13A63, offset: 0x13433E, size: 0x8, addend: 0x0, symName: '__ZN4core3ptr36drop_in_place$LT$syn..path..Path$GT$17hf46cc67adc8dabe6E.llvm.11337009941358621760', symObjAddr: 0x49C0, symBinAddr: 0x38370, symSize: 0x280 }
  - { offsetInCU: 0x14510, offset: 0x134DEB, size: 0x8, addend: 0x0, symName: '__ZN4core3ptr37drop_in_place$LT$syn..stmt..Block$GT$17hfecb452d98558591E', symObjAddr: 0x4C40, symBinAddr: 0x385F0, symSize: 0xD0 }
  - { offsetInCU: 0x147E7, offset: 0x1350C2, size: 0x8, addend: 0x0, symName: '__ZN4core3ptr38drop_in_place$LT$syn..expr..Member$GT$17hba941f4c189dc795E', symObjAddr: 0x4D10, symBinAddr: 0x386C0, symSize: 0x30 }
  - { offsetInCU: 0x148E3, offset: 0x1351BE, size: 0x8, addend: 0x0, symName: '__ZN4core3ptr39drop_in_place$LT$proc_macro2..Ident$GT$17hd6ce070b43e43c97E.llvm.11337009941358621760', symObjAddr: 0x4D40, symBinAddr: 0x386F0, symSize: 0x30 }
  - { offsetInCU: 0x149C0, offset: 0x13529B, size: 0x8, addend: 0x0, symName: '__ZN4core3ptr40drop_in_place$LT$syn..ty..ReturnType$GT$17h792ba338568d45a9E', symObjAddr: 0x4D70, symBinAddr: 0x38720, symSize: 0x50 }
  - { offsetInCU: 0x14B30, offset: 0x13540B, size: 0x8, addend: 0x0, symName: '__ZN4core3ptr41drop_in_place$LT$syn..expr..ExprConst$GT$17hb9ba4f2625f15720E', symObjAddr: 0x4DC0, symBinAddr: 0x38770, symSize: 0x180 }
  - { offsetInCU: 0x15253, offset: 0x135B2E, size: 0x8, addend: 0x0, symName: '__ZN4core3ptr43drop_in_place$LT$proc_macro2..TokenTree$GT$17h826eb63f7915abcdE.llvm.11337009941358621760', symObjAddr: 0x4F40, symBinAddr: 0x388F0, symSize: 0xB0 }
  - { offsetInCU: 0x155B0, offset: 0x135E8B, size: 0x8, addend: 0x0, symName: '__ZN4core3ptr44drop_in_place$LT$syn..lifetime..Lifetime$GT$17hc4613dd5781cff6aE.llvm.11337009941358621760', symObjAddr: 0x4FF0, symBinAddr: 0x389A0, symSize: 0x30 }
  - { offsetInCU: 0x15747, offset: 0x136022, size: 0x8, addend: 0x0, symName: '__ZN4core3ptr45drop_in_place$LT$proc_macro2..TokenStream$GT$17h4851dd21cbf4c1a2E.llvm.11337009941358621760', symObjAddr: 0x5020, symBinAddr: 0x389D0, symSize: 0x140 }
  - { offsetInCU: 0x15BE1, offset: 0x1364BC, size: 0x8, addend: 0x0, symName: '__ZN4core3ptr45drop_in_place$LT$syn..generics..TypeParam$GT$17h659ea6c0f216e41aE.llvm.11337009941358621760', symObjAddr: 0x5160, symBinAddr: 0x38B10, symSize: 0x230 }
  - { offsetInCU: 0x16456, offset: 0x136D31, size: 0x8, addend: 0x0, symName: '__ZN4core3ptr46drop_in_place$LT$syn..generics..ConstParam$GT$17h095591ccecb80218E.llvm.11337009941358621760', symObjAddr: 0x5390, symBinAddr: 0x38D40, symSize: 0x150 }
  - { offsetInCU: 0x168D7, offset: 0x1371B2, size: 0x8, addend: 0x0, symName: '__ZN4core3ptr47drop_in_place$LT$syn..path..GenericArgument$GT$17h7df0218258579c58E', symObjAddr: 0x54E0, symBinAddr: 0x38E90, symSize: 0x450 }
  - { offsetInCU: 0x1764D, offset: 0x137F28, size: 0x8, addend: 0x0, symName: '__ZN4core3ptr48drop_in_place$LT$syn..generics..GenericParam$GT$17hdaa7e21773dacddfE.llvm.11337009941358621760', symObjAddr: 0x5930, symBinAddr: 0x392E0, symSize: 0x40 }
  - { offsetInCU: 0x1766A, offset: 0x137F45, size: 0x8, addend: 0x0, symName: '__ZN4core3ptr49drop_in_place$LT$syn..generics..LifetimeParam$GT$17h42283e1ea975e28fE.llvm.11337009941358621760', symObjAddr: 0x5970, symBinAddr: 0x39320, symSize: 0xF0 }
  - { offsetInCU: 0x17A81, offset: 0x13835C, size: 0x8, addend: 0x0, symName: '__ZN4core3ptr50drop_in_place$LT$syn..generics..TypeParamBound$GT$17h3e55c99574230180E', symObjAddr: 0x5A60, symBinAddr: 0x39410, symSize: 0xA0 }
  - { offsetInCU: 0x17BE7, offset: 0x1384C2, size: 0x8, addend: 0x0, symName: '__ZN4core3ptr58drop_in_place$LT$alloc..vec..Vec$LT$syn..expr..Arm$GT$$GT$17he1c084b01428a786E', symObjAddr: 0x5B00, symBinAddr: 0x394B0, symSize: 0xD0 }
  - { offsetInCU: 0x17EA7, offset: 0x138782, size: 0x8, addend: 0x0, symName: '__ZN4core3ptr59drop_in_place$LT$alloc..boxed..Box$LT$syn..pat..Pat$GT$$GT$17h3b485c4e8bee9607E', symObjAddr: 0x5BD0, symBinAddr: 0x39580, symSize: 0x50 }
  - { offsetInCU: 0x18000, offset: 0x1388DB, size: 0x8, addend: 0x0, symName: '__ZN4core3ptr59drop_in_place$LT$alloc..boxed..Box$LT$syn..ty..Type$GT$$GT$17h529d4bae83980455E', symObjAddr: 0x5C20, symBinAddr: 0x395D0, symSize: 0x50 }
  - { offsetInCU: 0x18159, offset: 0x138A34, size: 0x8, addend: 0x0, symName: '__ZN4core3ptr61drop_in_place$LT$alloc..boxed..Box$LT$syn..expr..Expr$GT$$GT$17h460ec2498556bb03E', symObjAddr: 0x5C70, symBinAddr: 0x39620, symSize: 0x50 }
  - { offsetInCU: 0x182B2, offset: 0x138B8D, size: 0x8, addend: 0x0, symName: '__ZN4core3ptr61drop_in_place$LT$syn..path..ParenthesizedGenericArguments$GT$17he5db395c9e85d0bcE', symObjAddr: 0x5CC0, symBinAddr: 0x39670, symSize: 0x170 }
  - { offsetInCU: 0x188BB, offset: 0x139196, size: 0x8, addend: 0x0, symName: '__ZN4core3ptr63drop_in_place$LT$alloc..boxed..Box$LT$syn..lit..LitRepr$GT$$GT$17h06befdf0496ebcdaE', symObjAddr: 0x5E30, symBinAddr: 0x397E0, symSize: 0x60 }
  - { offsetInCU: 0x18BC2, offset: 0x13949D, size: 0x8, addend: 0x0, symName: '__ZN4core3ptr64drop_in_place$LT$alloc..boxed..Box$LT$syn..pat..FieldPat$GT$$GT$17h9d44220380a4d0a3E', symObjAddr: 0x5E90, symBinAddr: 0x39840, symSize: 0x140 }
  - { offsetInCU: 0x192C3, offset: 0x139B9E, size: 0x8, addend: 0x0, symName: '__ZN4core3ptr64drop_in_place$LT$alloc..boxed..Box$LT$syn..ty..BareFnArg$GT$$GT$17h3296e316e6a4b46aE', symObjAddr: 0x5FD0, symBinAddr: 0x39980, symSize: 0x140 }
  - { offsetInCU: 0x1984C, offset: 0x13A127, size: 0x8, addend: 0x0, symName: '__ZN4core3ptr65drop_in_place$LT$alloc..vec..Vec$LT$proc_macro..TokenTree$GT$$GT$17h23629d65d27f1a0fE.llvm.11337009941358621760', symObjAddr: 0x6110, symBinAddr: 0x39AC0, symSize: 0x110 }
  - { offsetInCU: 0x19C44, offset: 0x13A51F, size: 0x8, addend: 0x0, symName: '__ZN4core3ptr65drop_in_place$LT$core..option..Option$LT$syn..expr..Label$GT$$GT$17h4464a9bb4850ad8cE', symObjAddr: 0x6220, symBinAddr: 0x39BD0, symSize: 0x30 }
  - { offsetInCU: 0x19D7E, offset: 0x13A659, size: 0x8, addend: 0x0, symName: '__ZN4core3ptr66drop_in_place$LT$core..option..Option$LT$syn..pat..PatRest$GT$$GT$17he31e390125d6c440E', symObjAddr: 0x6250, symBinAddr: 0x39C00, symSize: 0xE0 }
  - { offsetInCU: 0x1A0A6, offset: 0x13A981, size: 0x8, addend: 0x0, symName: '__ZN4core3ptr67drop_in_place$LT$alloc..boxed..Box$LT$syn..expr..FieldValue$GT$$GT$17h0d12b7a5aa94d7e9E', symObjAddr: 0x6330, symBinAddr: 0x39CE0, symSize: 0x140 }
  - { offsetInCU: 0x1A62E, offset: 0x13AF09, size: 0x8, addend: 0x0, symName: '__ZN4core3ptr70drop_in_place$LT$core..option..Option$LT$syn..ty..BareVariadic$GT$$GT$17h7723d310b943ca36E', symObjAddr: 0x6470, symBinAddr: 0x39E20, symSize: 0x100 }
  - { offsetInCU: 0x1AA99, offset: 0x13B374, size: 0x8, addend: 0x0, symName: '__ZN4core3ptr72drop_in_place$LT$alloc..boxed..Box$LT$syn..path..GenericArgument$GT$$GT$17h06f95a13408ebdafE', symObjAddr: 0x6570, symBinAddr: 0x39F20, symSize: 0x2B0 }
  - { offsetInCU: 0x1B4AA, offset: 0x13BD85, size: 0x8, addend: 0x0, symName: '__ZN4core3ptr72drop_in_place$LT$core..option..Option$LT$syn..lifetime..Lifetime$GT$$GT$17h81994ea203da09dcE', symObjAddr: 0x6820, symBinAddr: 0x3A1D0, symSize: 0x30 }
  - { offsetInCU: 0x1B5C5, offset: 0x13BEA0, size: 0x8, addend: 0x0, symName: '__ZN4core3ptr73drop_in_place$LT$alloc..boxed..Box$LT$syn..generics..GenericParam$GT$$GT$17h85c8be7868d3af0dE', symObjAddr: 0x6850, symBinAddr: 0x3A200, symSize: 0x80 }
  - { offsetInCU: 0x1B73B, offset: 0x13C016, size: 0x8, addend: 0x0, symName: '__ZN4core3ptr75drop_in_place$LT$alloc..boxed..Box$LT$syn..generics..TypeParamBound$GT$$GT$17h1941c611c3139631E', symObjAddr: 0x68D0, symBinAddr: 0x3A280, symSize: 0x1B0 }
  - { offsetInCU: 0x1BDDD, offset: 0x13C6B8, size: 0x8, addend: 0x0, symName: '__ZN4core3ptr76drop_in_place$LT$$LP$syn..generics..GenericParam$C$syn..token..Comma$RP$$GT$17ha71cfcc8ec702ea8E.llvm.11337009941358621760', symObjAddr: 0x6A80, symBinAddr: 0x3A430, symSize: 0x40 }
  - { offsetInCU: 0x1BE76, offset: 0x13C751, size: 0x8, addend: 0x0, symName: '__ZN4core3ptr86drop_in_place$LT$syn..punctuated..Punctuated$LT$syn..pat..Pat$C$syn..token..Or$GT$$GT$17had6e801733142469E', symObjAddr: 0x6AC0, symBinAddr: 0x3A470, symSize: 0x120 }
  - { offsetInCU: 0x1C2F1, offset: 0x13CBCC, size: 0x8, addend: 0x0, symName: '__ZN4core3ptr87drop_in_place$LT$core..option..Option$LT$alloc..boxed..Box$LT$syn..pat..Pat$GT$$GT$$GT$17ha5cba3ae6cc21c54E', symObjAddr: 0x6BE0, symBinAddr: 0x3A590, symSize: 0x50 }
  - { offsetInCU: 0x1C461, offset: 0x13CD3C, size: 0x8, addend: 0x0, symName: '__ZN4core3ptr87drop_in_place$LT$core..option..Option$LT$alloc..boxed..Box$LT$syn..ty..Type$GT$$GT$$GT$17h4b703a12e8077b57E', symObjAddr: 0x6C30, symBinAddr: 0x3A5E0, symSize: 0x50 }
  - { offsetInCU: 0x1C5D1, offset: 0x13CEAC, size: 0x8, addend: 0x0, symName: '__ZN4core3ptr89drop_in_place$LT$core..option..Option$LT$alloc..boxed..Box$LT$syn..expr..Expr$GT$$GT$$GT$17h9eee67e527e2e442E', symObjAddr: 0x6C80, symBinAddr: 0x3A630, symSize: 0x50 }
  - { offsetInCU: 0x1C77F, offset: 0x13D05A, size: 0x8, addend: 0x0, symName: '__ZN4core3ptr89drop_in_place$LT$syn..punctuated..Punctuated$LT$syn..pat..Pat$C$syn..token..Comma$GT$$GT$17he3d98e99a23dba01E', symObjAddr: 0x6CD0, symBinAddr: 0x3A680, symSize: 0x120 }
  - { offsetInCU: 0x1CC4F, offset: 0x13D52A, size: 0x8, addend: 0x0, symName: '__ZN4core3ptr91drop_in_place$LT$syn..punctuated..Punctuated$LT$syn..expr..Expr$C$syn..token..Comma$GT$$GT$17h2dea47310fc0e082E', symObjAddr: 0x6DF0, symBinAddr: 0x3A7A0, symSize: 0x120 }
  - { offsetInCU: 0x1D0DD, offset: 0x13D9B8, size: 0x8, addend: 0x0, symName: '__ZN4core3ptr94drop_in_place$LT$syn..punctuated..Punctuated$LT$syn..pat..FieldPat$C$syn..token..Comma$GT$$GT$17h190748b2c55432b6E', symObjAddr: 0x6F10, symBinAddr: 0x3A8C0, symSize: 0xF0 }
  - { offsetInCU: 0x1D3DC, offset: 0x13DCB7, size: 0x8, addend: 0x0, symName: '__ZN4core3ptr94drop_in_place$LT$syn..punctuated..Punctuated$LT$syn..ty..BareFnArg$C$syn..token..Comma$GT$$GT$17h0cc9ca5fc13ffa0eE', symObjAddr: 0x7000, symBinAddr: 0x3A9B0, symSize: 0xF0 }
  - { offsetInCU: 0x1D6DD, offset: 0x13DFB8, size: 0x8, addend: 0x0, symName: '__ZN4core3ptr96drop_in_place$LT$core..option..Option$LT$alloc..boxed..Box$LT$syn..path..PathSegment$GT$$GT$$GT$17h2d05e908c3bffd1cE', symObjAddr: 0x70F0, symBinAddr: 0x3AAA0, symSize: 0x1A0 }
  - { offsetInCU: 0x1DDBD, offset: 0x13E698, size: 0x8, addend: 0x0, symName: '__ZN4core3ptr97drop_in_place$LT$syn..punctuated..Punctuated$LT$syn..expr..FieldValue$C$syn..token..Comma$GT$$GT$17hc51e6e9ab972ef1bE', symObjAddr: 0x72E0, symBinAddr: 0x3AC40, symSize: 0xF0 }
  - { offsetInCU: 0x1E117, offset: 0x13E9F2, size: 0x8, addend: 0x0, symName: '__ZN4core3ptr98drop_in_place$LT$syn..punctuated..Punctuated$LT$syn..lifetime..Lifetime$C$syn..token..Plus$GT$$GT$17h3346a70b7ba118ddE.llvm.11337009941358621760', symObjAddr: 0x73D0, symBinAddr: 0x3AD30, symSize: 0xD0 }
  - { offsetInCU: 0x26151, offset: 0x146A2C, size: 0x8, addend: 0x0, symName: '__ZN103_$LT$alloc..vec..into_iter..IntoIter$LT$T$C$A$GT$$u20$as$u20$core..iter..traits..iterator..Iterator$GT$4fold17h4eb1a03240f8cd1bE', symObjAddr: 0x0, symBinAddr: 0x33AF0, symSize: 0x190 }
  - { offsetInCU: 0x264E8, offset: 0x146DC3, size: 0x8, addend: 0x0, symName: '__ZN103_$LT$alloc..vec..into_iter..IntoIter$LT$T$C$A$GT$$u20$as$u20$core..iter..traits..iterator..Iterator$GT$4fold17h6e702cdfba3f2579E', symObjAddr: 0x190, symBinAddr: 0x33C80, symSize: 0x180 }
  - { offsetInCU: 0x26E18, offset: 0x1476F3, size: 0x8, addend: 0x0, symName: '__ZN86_$LT$alloc..vec..into_iter..IntoIter$LT$T$C$A$GT$$u20$as$u20$core..ops..drop..Drop$GT$4drop17h2c21468b09a17ea3E', symObjAddr: 0x74A0, symBinAddr: 0x3AE00, symSize: 0x120 }
  - { offsetInCU: 0x27195, offset: 0x147A70, size: 0x8, addend: 0x0, symName: '__ZN86_$LT$alloc..vec..into_iter..IntoIter$LT$T$C$A$GT$$u20$as$u20$core..ops..drop..Drop$GT$4drop17ha23b1c88365231d9E', symObjAddr: 0x75C0, symBinAddr: 0x3AF20, symSize: 0xF0 }
  - { offsetInCU: 0x27536, offset: 0x147E11, size: 0x8, addend: 0x0, symName: '__ZN86_$LT$alloc..vec..into_iter..IntoIter$LT$T$C$A$GT$$u20$as$u20$core..ops..drop..Drop$GT$4drop17ha3b5d01476d10e61E', symObjAddr: 0x76B0, symBinAddr: 0x3B010, symSize: 0xF0 }
  - { offsetInCU: 0x278A3, offset: 0x14817E, size: 0x8, addend: 0x0, symName: '__ZN86_$LT$alloc..vec..into_iter..IntoIter$LT$T$C$A$GT$$u20$as$u20$core..ops..drop..Drop$GT$4drop17haa8a99950e93297eE', symObjAddr: 0x77A0, symBinAddr: 0x3B100, symSize: 0xD0 }
  - { offsetInCU: 0x27C0D, offset: 0x1484E8, size: 0x8, addend: 0x0, symName: '__ZN86_$LT$alloc..vec..into_iter..IntoIter$LT$T$C$A$GT$$u20$as$u20$core..ops..drop..Drop$GT$4drop17hb91191b942cb9cdaE', symObjAddr: 0x7870, symBinAddr: 0x3B1D0, symSize: 0x113 }
  - { offsetInCU: 0x1E, offset: 0x14DE51, size: 0x8, addend: 0x0, symName: '__ZN40_$LT$F$u20$as$u20$syn..parse..Parser$GT$14__parse_scoped17h7ab7c9183412910bE', symObjAddr: 0x0, symBinAddr: 0x3B2F0, symSize: 0x3D0 }
  - { offsetInCU: 0x1CAB, offset: 0x14FADE, size: 0x8, addend: 0x0, symName: '__ZN4core3ptr100drop_in_place$LT$core..option..Option$LT$alloc..boxed..Box$LT$syn..path..GenericArgument$GT$$GT$$GT$17hcd46fb80bb4426e5E', symObjAddr: 0x750, symBinAddr: 0x3BA40, symSize: 0x50 }
  - { offsetInCU: 0x1E78, offset: 0x14FCAB, size: 0x8, addend: 0x0, symName: '__ZN4core3ptr102drop_in_place$LT$syn..punctuated..Punctuated$LT$syn..path..GenericArgument$C$syn..token..Comma$GT$$GT$17heaaab034628a2a18E', symObjAddr: 0x7A0, symBinAddr: 0x3BA90, symSize: 0xF0 }
  - { offsetInCU: 0x2198, offset: 0x14FFCB, size: 0x8, addend: 0x0, symName: '__ZN4core3ptr103drop_in_place$LT$core..option..Option$LT$alloc..boxed..Box$LT$syn..generics..TypeParamBound$GT$$GT$$GT$17h05a49ed32eff1671E', symObjAddr: 0x890, symBinAddr: 0x3BB80, symSize: 0x50 }
  - { offsetInCU: 0x243E, offset: 0x150271, size: 0x8, addend: 0x0, symName: '__ZN4core3ptr103drop_in_place$LT$core..option..Option$LT$alloc..boxed..Box$LT$syn..generics..WherePredicate$GT$$GT$$GT$17hd90e2f068c70b745E', symObjAddr: 0x8E0, symBinAddr: 0x3BBD0, symSize: 0xD0 }
  - { offsetInCU: 0x27D2, offset: 0x150605, size: 0x8, addend: 0x0, symName: '__ZN4core3ptr103drop_in_place$LT$syn..punctuated..Punctuated$LT$syn..generics..GenericParam$C$syn..token..Comma$GT$$GT$17h4c8d183416e922e4E', symObjAddr: 0x9B0, symBinAddr: 0x3BCA0, symSize: 0x150 }
  - { offsetInCU: 0x2D8E, offset: 0x150BC1, size: 0x8, addend: 0x0, symName: '__ZN4core3ptr104drop_in_place$LT$syn..punctuated..Punctuated$LT$syn..generics..TypeParamBound$C$syn..token..Plus$GT$$GT$17h14d7d9f74bee17faE', symObjAddr: 0xB00, symBinAddr: 0x3BDF0, symSize: 0x260 }
  - { offsetInCU: 0x371E, offset: 0x151551, size: 0x8, addend: 0x0, symName: '__ZN4core3ptr34drop_in_place$LT$syn..lit..Lit$GT$17hbd412daaa9d55e9fE', symObjAddr: 0xD60, symBinAddr: 0x3C050, symSize: 0x120 }
  - { offsetInCU: 0x3C0C, offset: 0x151A3F, size: 0x8, addend: 0x0, symName: '__ZN4core3ptr34drop_in_place$LT$syn..pat..Pat$GT$17he2158bf5b9616153E', symObjAddr: 0xE80, symBinAddr: 0x3C170, symSize: 0xF70 }
  - { offsetInCU: 0x7B25, offset: 0x155958, size: 0x8, addend: 0x0, symName: '__ZN4core3ptr34drop_in_place$LT$syn..ty..Type$GT$17h87f2c3d06e50cb41E', symObjAddr: 0x1DF0, symBinAddr: 0x3D0E0, symSize: 0x5A0 }
  - { offsetInCU: 0x94C1, offset: 0x1572F4, size: 0x8, addend: 0x0, symName: '__ZN4core3ptr36drop_in_place$LT$syn..expr..Expr$GT$17h1abc66c6856a0df5E', symObjAddr: 0x2390, symBinAddr: 0x3D680, symSize: 0x2760 }
  - { offsetInCU: 0x131B8, offset: 0x160FEB, size: 0x8, addend: 0x0, symName: '__ZN4core3ptr36drop_in_place$LT$syn..mac..Macro$GT$17hb6bd6f67d9ee6797E', symObjAddr: 0x4AF0, symBinAddr: 0x3FDE0, symSize: 0x110 }
  - { offsetInCU: 0x13655, offset: 0x161488, size: 0x8, addend: 0x0, symName: '__ZN4core3ptr36drop_in_place$LT$syn..path..Path$GT$17hf46cc67adc8dabe6E', symObjAddr: 0x4C00, symBinAddr: 0x3FEF0, symSize: 0x280 }
  - { offsetInCU: 0x14102, offset: 0x161F35, size: 0x8, addend: 0x0, symName: '__ZN4core3ptr37drop_in_place$LT$syn..lit..LitInt$GT$17h1bb1f1baf805c02eE', symObjAddr: 0x4E80, symBinAddr: 0x40170, symSize: 0x70 }
  - { offsetInCU: 0x14474, offset: 0x1622A7, size: 0x8, addend: 0x0, symName: '__ZN4core3ptr37drop_in_place$LT$syn..stmt..Block$GT$17hfecb452d98558591E', symObjAddr: 0x4EF0, symBinAddr: 0x401E0, symSize: 0xD0 }
  - { offsetInCU: 0x147E6, offset: 0x162619, size: 0x8, addend: 0x0, symName: '__ZN4core3ptr38drop_in_place$LT$syn..data..Fields$GT$17h0c4aabd6e7d6241aE', symObjAddr: 0x4FC0, symBinAddr: 0x402B0, symSize: 0x190 }
  - { offsetInCU: 0x14CEA, offset: 0x162B1D, size: 0x8, addend: 0x0, symName: '__ZN4core3ptr38drop_in_place$LT$syn..derive..Data$GT$17hde90b7b5890779d1E', symObjAddr: 0x5150, symBinAddr: 0x40440, symSize: 0x1D0 }
  - { offsetInCU: 0x15390, offset: 0x1631C3, size: 0x8, addend: 0x0, symName: '__ZN4core3ptr38drop_in_place$LT$syn..expr..Member$GT$17hba941f4c189dc795E', symObjAddr: 0x5320, symBinAddr: 0x40610, symSize: 0x30 }
  - { offsetInCU: 0x1548C, offset: 0x1632BF, size: 0x8, addend: 0x0, symName: '__ZN4core3ptr39drop_in_place$LT$proc_macro2..Ident$GT$17hd6ce070b43e43c97E', symObjAddr: 0x5350, symBinAddr: 0x40640, symSize: 0x30 }
  - { offsetInCU: 0x1569F, offset: 0x1634D2, size: 0x8, addend: 0x0, symName: '__ZN4core3ptr39drop_in_place$LT$syn..buffer..Entry$GT$17he6366cfe2331dbc9E', symObjAddr: 0x5380, symBinAddr: 0x40670, symSize: 0xB0 }
  - { offsetInCU: 0x15A2A, offset: 0x16385D, size: 0x8, addend: 0x0, symName: '__ZN4core3ptr40drop_in_place$LT$syn..ty..ReturnType$GT$17h792ba338568d45a9E', symObjAddr: 0x5430, symBinAddr: 0x40720, symSize: 0x50 }
  - { offsetInCU: 0x15B9A, offset: 0x1639CD, size: 0x8, addend: 0x0, symName: '__ZN4core3ptr41drop_in_place$LT$syn..expr..ExprConst$GT$17hb9ba4f2625f15720E', symObjAddr: 0x5480, symBinAddr: 0x40770, symSize: 0x180 }
  - { offsetInCU: 0x16187, offset: 0x163FBA, size: 0x8, addend: 0x0, symName: '__ZN4core3ptr44drop_in_place$LT$syn..generics..Generics$GT$17h3d1376367cc963f1E', symObjAddr: 0x5600, symBinAddr: 0x408F0, symSize: 0x40 }
  - { offsetInCU: 0x161A4, offset: 0x163FD7, size: 0x8, addend: 0x0, symName: '__ZN4core3ptr44drop_in_place$LT$syn..lifetime..Lifetime$GT$17hc4613dd5781cff6aE', symObjAddr: 0x5640, symBinAddr: 0x40930, symSize: 0x30 }
  - { offsetInCU: 0x162A0, offset: 0x1640D3, size: 0x8, addend: 0x0, symName: '__ZN4core3ptr44drop_in_place$LT$syn..parse..ParseBuffer$GT$17h5181664a931f6441E', symObjAddr: 0x5670, symBinAddr: 0x40960, symSize: 0x70 }
  - { offsetInCU: 0x1661C, offset: 0x16444F, size: 0x8, addend: 0x0, symName: '__ZN4core3ptr45drop_in_place$LT$proc_macro2..TokenStream$GT$17h4851dd21cbf4c1a2E', symObjAddr: 0x56E0, symBinAddr: 0x409D0, symSize: 0x140 }
  - { offsetInCU: 0x16A78, offset: 0x1648AB, size: 0x8, addend: 0x0, symName: '__ZN4core3ptr45drop_in_place$LT$syn..buffer..TokenBuffer$GT$17h1770fcedceb63ec7E', symObjAddr: 0x5820, symBinAddr: 0x40B10, symSize: 0xC0 }
  - { offsetInCU: 0x16D1E, offset: 0x164B51, size: 0x8, addend: 0x0, symName: '__ZN4core3ptr45drop_in_place$LT$syn..derive..DeriveInput$GT$17h2f679b94a6f2733dE', symObjAddr: 0x58E0, symBinAddr: 0x40BD0, symSize: 0x190 }
  - { offsetInCU: 0x172D9, offset: 0x16510C, size: 0x8, addend: 0x0, symName: '__ZN4core3ptr45drop_in_place$LT$syn..generics..TypeParam$GT$17h659ea6c0f216e41aE', symObjAddr: 0x5A70, symBinAddr: 0x40D60, symSize: 0x230 }
  - { offsetInCU: 0x17B4E, offset: 0x165981, size: 0x8, addend: 0x0, symName: '__ZN4core3ptr46drop_in_place$LT$syn..generics..ConstParam$GT$17h095591ccecb80218E', symObjAddr: 0x5CA0, symBinAddr: 0x40F90, symSize: 0x150 }
  - { offsetInCU: 0x17FCF, offset: 0x165E02, size: 0x8, addend: 0x0, symName: '__ZN4core3ptr47drop_in_place$LT$syn..path..GenericArgument$GT$17h7df0218258579c58E', symObjAddr: 0x5DF0, symBinAddr: 0x410E0, symSize: 0x450 }
  - { offsetInCU: 0x18D45, offset: 0x166B78, size: 0x8, addend: 0x0, symName: '__ZN4core3ptr49drop_in_place$LT$syn..generics..LifetimeParam$GT$17h42283e1ea975e28fE', symObjAddr: 0x6240, symBinAddr: 0x41530, symSize: 0xF0 }
  - { offsetInCU: 0x1915C, offset: 0x166F8F, size: 0x8, addend: 0x0, symName: '__ZN4core3ptr49drop_in_place$LT$syn..restriction..Visibility$GT$17h94a55d7a17cf647fE', symObjAddr: 0x6330, symBinAddr: 0x41620, symSize: 0x60 }
  - { offsetInCU: 0x192CD, offset: 0x167100, size: 0x8, addend: 0x0, symName: '__ZN4core3ptr50drop_in_place$LT$syn..generics..TypeParamBound$GT$17h3e55c99574230180E', symObjAddr: 0x6390, symBinAddr: 0x41680, symSize: 0xA0 }
  - { offsetInCU: 0x19433, offset: 0x167266, size: 0x8, addend: 0x0, symName: '__ZN4core3ptr58drop_in_place$LT$alloc..vec..Vec$LT$syn..expr..Arm$GT$$GT$17he1c084b01428a786E', symObjAddr: 0x6430, symBinAddr: 0x41720, symSize: 0xD0 }
  - { offsetInCU: 0x196F3, offset: 0x167526, size: 0x8, addend: 0x0, symName: '__ZN4core3ptr59drop_in_place$LT$alloc..boxed..Box$LT$syn..pat..Pat$GT$$GT$17h3b485c4e8bee9607E', symObjAddr: 0x6500, symBinAddr: 0x417F0, symSize: 0x50 }
  - { offsetInCU: 0x1984C, offset: 0x16767F, size: 0x8, addend: 0x0, symName: '__ZN4core3ptr59drop_in_place$LT$alloc..boxed..Box$LT$syn..ty..Type$GT$$GT$17h529d4bae83980455E', symObjAddr: 0x6550, symBinAddr: 0x41840, symSize: 0x50 }
  - { offsetInCU: 0x199A5, offset: 0x1677D8, size: 0x8, addend: 0x0, symName: '__ZN4core3ptr61drop_in_place$LT$alloc..boxed..Box$LT$syn..expr..Expr$GT$$GT$17h460ec2498556bb03E', symObjAddr: 0x65A0, symBinAddr: 0x41890, symSize: 0x50 }
  - { offsetInCU: 0x19AFE, offset: 0x167931, size: 0x8, addend: 0x0, symName: '__ZN4core3ptr61drop_in_place$LT$syn..path..ParenthesizedGenericArguments$GT$17he5db395c9e85d0bcE', symObjAddr: 0x65F0, symBinAddr: 0x418E0, symSize: 0x170 }
  - { offsetInCU: 0x1A107, offset: 0x167F3A, size: 0x8, addend: 0x0, symName: '__ZN4core3ptr63drop_in_place$LT$alloc..boxed..Box$LT$syn..lit..LitRepr$GT$$GT$17h06befdf0496ebcdaE', symObjAddr: 0x6760, symBinAddr: 0x41A50, symSize: 0x60 }
  - { offsetInCU: 0x1A40E, offset: 0x168241, size: 0x8, addend: 0x0, symName: '__ZN4core3ptr64drop_in_place$LT$alloc..boxed..Box$LT$syn..pat..FieldPat$GT$$GT$17h9d44220380a4d0a3E', symObjAddr: 0x67C0, symBinAddr: 0x41AB0, symSize: 0x140 }
  - { offsetInCU: 0x1AB0F, offset: 0x168942, size: 0x8, addend: 0x0, symName: '__ZN4core3ptr64drop_in_place$LT$alloc..boxed..Box$LT$syn..ty..BareFnArg$GT$$GT$17h3296e316e6a4b46aE', symObjAddr: 0x6900, symBinAddr: 0x41BF0, symSize: 0x140 }
  - { offsetInCU: 0x1B098, offset: 0x168ECB, size: 0x8, addend: 0x0, symName: '__ZN4core3ptr65drop_in_place$LT$alloc..vec..Vec$LT$proc_macro..TokenTree$GT$$GT$17h23629d65d27f1a0fE', symObjAddr: 0x6A40, symBinAddr: 0x41D30, symSize: 0x110 }
  - { offsetInCU: 0x1B490, offset: 0x1692C3, size: 0x8, addend: 0x0, symName: '__ZN4core3ptr65drop_in_place$LT$core..option..Option$LT$syn..expr..Label$GT$$GT$17h4464a9bb4850ad8cE', symObjAddr: 0x6B50, symBinAddr: 0x41E40, symSize: 0x30 }
  - { offsetInCU: 0x1B5CA, offset: 0x1693FD, size: 0x8, addend: 0x0, symName: '__ZN4core3ptr66drop_in_place$LT$core..option..Option$LT$syn..pat..PatRest$GT$$GT$17he31e390125d6c440E', symObjAddr: 0x6B80, symBinAddr: 0x41E70, symSize: 0xE0 }
  - { offsetInCU: 0x1B8F2, offset: 0x169725, size: 0x8, addend: 0x0, symName: '__ZN4core3ptr67drop_in_place$LT$alloc..boxed..Box$LT$syn..expr..FieldValue$GT$$GT$17h0d12b7a5aa94d7e9E', symObjAddr: 0x6C60, symBinAddr: 0x41F50, symSize: 0x140 }
  - { offsetInCU: 0x1BE7A, offset: 0x169CAD, size: 0x8, addend: 0x0, symName: '__ZN4core3ptr70drop_in_place$LT$core..option..Option$LT$syn..ty..BareVariadic$GT$$GT$17h7723d310b943ca36E', symObjAddr: 0x6DA0, symBinAddr: 0x42090, symSize: 0x100 }
  - { offsetInCU: 0x1C2E5, offset: 0x16A118, size: 0x8, addend: 0x0, symName: '__ZN4core3ptr72drop_in_place$LT$alloc..boxed..Box$LT$syn..path..GenericArgument$GT$$GT$17h06f95a13408ebdafE', symObjAddr: 0x6EA0, symBinAddr: 0x42190, symSize: 0x2B0 }
  - { offsetInCU: 0x1CCF6, offset: 0x16AB29, size: 0x8, addend: 0x0, symName: '__ZN4core3ptr72drop_in_place$LT$core..option..Option$LT$syn..lifetime..Lifetime$GT$$GT$17h81994ea203da09dcE', symObjAddr: 0x7150, symBinAddr: 0x42440, symSize: 0x30 }
  - { offsetInCU: 0x1CE11, offset: 0x16AC44, size: 0x8, addend: 0x0, symName: '__ZN4core3ptr73drop_in_place$LT$alloc..boxed..Box$LT$syn..generics..GenericParam$GT$$GT$17h85c8be7868d3af0dE', symObjAddr: 0x7180, symBinAddr: 0x42470, symSize: 0x80 }
  - { offsetInCU: 0x1CF87, offset: 0x16ADBA, size: 0x8, addend: 0x0, symName: '__ZN4core3ptr75drop_in_place$LT$alloc..boxed..Box$LT$syn..generics..TypeParamBound$GT$$GT$17h1941c611c3139631E', symObjAddr: 0x7200, symBinAddr: 0x424F0, symSize: 0x1B0 }
  - { offsetInCU: 0x1D6A5, offset: 0x16B4D8, size: 0x8, addend: 0x0, symName: '__ZN4core3ptr75drop_in_place$LT$core..option..Option$LT$syn..generics..WhereClause$GT$$GT$17hdaff3ad4f7294bd5E', symObjAddr: 0x73B0, symBinAddr: 0x426A0, symSize: 0x90 }
  - { offsetInCU: 0x1D999, offset: 0x16B7CC, size: 0x8, addend: 0x0, symName: '__ZN4core3ptr86drop_in_place$LT$syn..punctuated..Punctuated$LT$syn..pat..Pat$C$syn..token..Or$GT$$GT$17had6e801733142469E', symObjAddr: 0x7440, symBinAddr: 0x42730, symSize: 0x120 }
  - { offsetInCU: 0x1DE14, offset: 0x16BC47, size: 0x8, addend: 0x0, symName: '__ZN4core3ptr87drop_in_place$LT$core..option..Option$LT$alloc..boxed..Box$LT$syn..pat..Pat$GT$$GT$$GT$17ha5cba3ae6cc21c54E', symObjAddr: 0x7560, symBinAddr: 0x42850, symSize: 0x50 }
  - { offsetInCU: 0x1DF84, offset: 0x16BDB7, size: 0x8, addend: 0x0, symName: '__ZN4core3ptr87drop_in_place$LT$core..option..Option$LT$alloc..boxed..Box$LT$syn..ty..Type$GT$$GT$$GT$17h4b703a12e8077b57E', symObjAddr: 0x75B0, symBinAddr: 0x428A0, symSize: 0x50 }
  - { offsetInCU: 0x1E0F4, offset: 0x16BF27, size: 0x8, addend: 0x0, symName: '__ZN4core3ptr89drop_in_place$LT$core..option..Option$LT$alloc..boxed..Box$LT$syn..expr..Expr$GT$$GT$$GT$17h9eee67e527e2e442E', symObjAddr: 0x7600, symBinAddr: 0x428F0, symSize: 0x50 }
  - { offsetInCU: 0x1E2A2, offset: 0x16C0D5, size: 0x8, addend: 0x0, symName: '__ZN4core3ptr89drop_in_place$LT$syn..punctuated..Punctuated$LT$syn..pat..Pat$C$syn..token..Comma$GT$$GT$17he3d98e99a23dba01E', symObjAddr: 0x7650, symBinAddr: 0x42940, symSize: 0x120 }
  - { offsetInCU: 0x1E791, offset: 0x16C5C4, size: 0x8, addend: 0x0, symName: '__ZN4core3ptr90drop_in_place$LT$core..option..Option$LT$alloc..boxed..Box$LT$syn..data..Field$GT$$GT$$GT$17hcc0bb4c384daba88E', symObjAddr: 0x7770, symBinAddr: 0x42A60, symSize: 0x1B0 }
  - { offsetInCU: 0x1EEA2, offset: 0x16CCD5, size: 0x8, addend: 0x0, symName: '__ZN4core3ptr91drop_in_place$LT$syn..punctuated..Punctuated$LT$syn..expr..Expr$C$syn..token..Comma$GT$$GT$17h2dea47310fc0e082E', symObjAddr: 0x7920, symBinAddr: 0x42C10, symSize: 0x120 }
  - { offsetInCU: 0x1F3AC, offset: 0x16D1DF, size: 0x8, addend: 0x0, symName: '__ZN4core3ptr92drop_in_place$LT$core..option..Option$LT$alloc..boxed..Box$LT$syn..data..Variant$GT$$GT$$GT$17h26f3f871c95e930eE', symObjAddr: 0x7A40, symBinAddr: 0x42D30, symSize: 0x170 }
  - { offsetInCU: 0x1F97B, offset: 0x16D7AE, size: 0x8, addend: 0x0, symName: '__ZN4core3ptr94drop_in_place$LT$syn..punctuated..Punctuated$LT$syn..pat..FieldPat$C$syn..token..Comma$GT$$GT$17h190748b2c55432b6E', symObjAddr: 0x7BB0, symBinAddr: 0x42EA0, symSize: 0xF0 }
  - { offsetInCU: 0x1FC7A, offset: 0x16DAAD, size: 0x8, addend: 0x0, symName: '__ZN4core3ptr94drop_in_place$LT$syn..punctuated..Punctuated$LT$syn..ty..BareFnArg$C$syn..token..Comma$GT$$GT$17h0cc9ca5fc13ffa0eE', symObjAddr: 0x7CA0, symBinAddr: 0x42F90, symSize: 0xF0 }
  - { offsetInCU: 0x1FF7B, offset: 0x16DDAE, size: 0x8, addend: 0x0, symName: '__ZN4core3ptr96drop_in_place$LT$core..option..Option$LT$alloc..boxed..Box$LT$syn..path..PathSegment$GT$$GT$$GT$17h2d05e908c3bffd1cE', symObjAddr: 0x7D90, symBinAddr: 0x43080, symSize: 0x1A0 }
  - { offsetInCU: 0x2063C, offset: 0x16E46F, size: 0x8, addend: 0x0, symName: '__ZN4core3ptr97drop_in_place$LT$syn..punctuated..Punctuated$LT$syn..expr..FieldValue$C$syn..token..Comma$GT$$GT$17hc51e6e9ab972ef1bE', symObjAddr: 0x7F30, symBinAddr: 0x43220, symSize: 0xF0 }
  - { offsetInCU: 0x209B5, offset: 0x16E7E8, size: 0x8, addend: 0x0, symName: '__ZN4core3ptr98drop_in_place$LT$syn..punctuated..Punctuated$LT$syn..lifetime..Lifetime$C$syn..token..Plus$GT$$GT$17h3346a70b7ba118ddE', symObjAddr: 0x8020, symBinAddr: 0x43310, symSize: 0xC6 }
  - { offsetInCU: 0x238B4, offset: 0x1716E7, size: 0x8, addend: 0x0, symName: '__ZN40_$LT$F$u20$as$u20$syn..parse..Parser$GT$14__parse_scoped17h7ab7c9183412910bE', symObjAddr: 0x0, symBinAddr: 0x3B2F0, symSize: 0x3D0 }
  - { offsetInCU: 0x24992, offset: 0x1727C5, size: 0x8, addend: 0x0, symName: '__ZN40_$LT$F$u20$as$u20$syn..parse..Parser$GT$6parse217hee714b58bc248faeE', symObjAddr: 0x3D0, symBinAddr: 0x3B6C0, symSize: 0x380 }
  - { offsetInCU: 0x1E, offset: 0x17D70B, size: 0x8, addend: 0x0, symName: __ZN4core5slice4sort6shared9smallsort25insertion_sort_shift_left17h257384262d65e813E, symObjAddr: 0x0, symBinAddr: 0x433E0, symSize: 0x2A0 }
  - { offsetInCU: 0x39C9, offset: 0x1810B6, size: 0x8, addend: 0x0, symName: __ZN4core5slice4sort6shared9smallsort25insertion_sort_shift_left17h257384262d65e813E, symObjAddr: 0x0, symBinAddr: 0x433E0, symSize: 0x2A0 }
  - { offsetInCU: 0x42C1, offset: 0x1819AE, size: 0x8, addend: 0x0, symName: __ZN4core5slice4sort6shared9smallsort25insertion_sort_shift_left17hfe094893abe6377cE, symObjAddr: 0x2A0, symBinAddr: 0x43680, symSize: 0x2A0 }
  - { offsetInCU: 0x50FD, offset: 0x1827EA, size: 0x8, addend: 0x0, symName: __ZN4core5slice4sort6shared9smallsort31small_sort_general_with_scratch17h748bd5198d370d26E, symObjAddr: 0x540, symBinAddr: 0x43920, symSize: 0xD30 }
  - { offsetInCU: 0x7555, offset: 0x184C42, size: 0x8, addend: 0x0, symName: __ZN4core5slice4sort6shared9smallsort31small_sort_general_with_scratch17hb417e22c050983a3E, symObjAddr: 0x1270, symBinAddr: 0x44650, symSize: 0xD22 }
  - { offsetInCU: 0x1E, offset: 0x18E5DF, size: 0x8, addend: 0x0, symName: __ZN4core5slice4sort6stable5drift4sort17h56c7f9a05490d631E, symObjAddr: 0x0, symBinAddr: 0x45380, symSize: 0xC40 }
  - { offsetInCU: 0xEC6, offset: 0x18F487, size: 0x8, addend: 0x0, symName: __ZN4core5slice4sort6stable5drift4sort17h56c7f9a05490d631E, symObjAddr: 0x0, symBinAddr: 0x45380, symSize: 0xC40 }
  - { offsetInCU: 0x3081, offset: 0x191642, size: 0x8, addend: 0x0, symName: __ZN4core5slice4sort6stable5drift4sort17had8e809ab5bb7f16E, symObjAddr: 0xC40, symBinAddr: 0x45FC0, symSize: 0xC33 }
  - { offsetInCU: 0x1E, offset: 0x19E7A2, size: 0x8, addend: 0x0, symName: __ZN4core5slice4sort6stable9quicksort9quicksort17h2e6d9290742def99E, symObjAddr: 0x0, symBinAddr: 0x46C00, symSize: 0x9E0 }
  - { offsetInCU: 0xD29, offset: 0x19F4AD, size: 0x8, addend: 0x0, symName: __ZN4core5slice4sort6stable9quicksort9quicksort17h2e6d9290742def99E, symObjAddr: 0x0, symBinAddr: 0x46C00, symSize: 0x9E0 }
  - { offsetInCU: 0x2A8B, offset: 0x1A120F, size: 0x8, addend: 0x0, symName: __ZN4core5slice4sort6stable9quicksort9quicksort17h79409a63272090f3E, symObjAddr: 0x9E0, symBinAddr: 0x475E0, symSize: 0x9D8 }
  - { offsetInCU: 0x1E, offset: 0x1ADD05, size: 0x8, addend: 0x0, symName: __ZN3syn11parse_quote5parse17hb117d4ff4da066beE, symObjAddr: 0x0, symBinAddr: 0x47FC0, symSize: 0x420 }
  - { offsetInCU: 0x1B46, offset: 0x1AF82D, size: 0x8, addend: 0x0, symName: '__ZN4core3ptr100drop_in_place$LT$core..option..Option$LT$alloc..boxed..Box$LT$syn..path..GenericArgument$GT$$GT$$GT$17hcd46fb80bb4426e5E', symObjAddr: 0x470, symBinAddr: 0x483E0, symSize: 0x50 }
  - { offsetInCU: 0x1EE4, offset: 0x1AFBCB, size: 0x8, addend: 0x0, symName: '__ZN4core3ptr100drop_in_place$LT$syn..punctuated..Punctuated$LT$syn..path..PathSegment$C$syn..token..PathSep$GT$$GT$17ha240b6a45d24b591E', symObjAddr: 0x4C0, symBinAddr: 0x48430, symSize: 0x2B0 }
  - { offsetInCU: 0x299A, offset: 0x1B0681, size: 0x8, addend: 0x0, symName: '__ZN4core3ptr103drop_in_place$LT$core..option..Option$LT$alloc..boxed..Box$LT$syn..generics..TypeParamBound$GT$$GT$$GT$17h05a49ed32eff1671E', symObjAddr: 0x770, symBinAddr: 0x486E0, symSize: 0x50 }
  - { offsetInCU: 0x2BA5, offset: 0x1B088C, size: 0x8, addend: 0x0, symName: '__ZN4core3ptr103drop_in_place$LT$syn..punctuated..Punctuated$LT$syn..generics..GenericParam$C$syn..token..Comma$GT$$GT$17h4c8d183416e922e4E', symObjAddr: 0x7C0, symBinAddr: 0x48730, symSize: 0x150 }
  - { offsetInCU: 0x3180, offset: 0x1B0E67, size: 0x8, addend: 0x0, symName: '__ZN4core3ptr104drop_in_place$LT$syn..punctuated..Punctuated$LT$syn..generics..TypeParamBound$C$syn..token..Plus$GT$$GT$17h14d7d9f74bee17faE', symObjAddr: 0x910, symBinAddr: 0x48880, symSize: 0x260 }
  - { offsetInCU: 0x3BCA, offset: 0x1B18B1, size: 0x8, addend: 0x0, symName: '__ZN4core3ptr34drop_in_place$LT$syn..lit..Lit$GT$17hbd412daaa9d55e9fE', symObjAddr: 0xB70, symBinAddr: 0x48AE0, symSize: 0x120 }
  - { offsetInCU: 0x4099, offset: 0x1B1D80, size: 0x8, addend: 0x0, symName: '__ZN4core3ptr34drop_in_place$LT$syn..pat..Pat$GT$17he2158bf5b9616153E', symObjAddr: 0xC90, symBinAddr: 0x48C00, symSize: 0x1100 }
  - { offsetInCU: 0x8712, offset: 0x1B63F9, size: 0x8, addend: 0x0, symName: '__ZN4core3ptr34drop_in_place$LT$syn..ty..Type$GT$17h87f2c3d06e50cb41E', symObjAddr: 0x1D90, symBinAddr: 0x49D00, symSize: 0x520 }
  - { offsetInCU: 0x9D68, offset: 0x1B7A4F, size: 0x8, addend: 0x0, symName: '__ZN4core3ptr36drop_in_place$LT$syn..expr..Expr$GT$17h1abc66c6856a0df5E', symObjAddr: 0x22B0, symBinAddr: 0x4A220, symSize: 0x2840 }
  - { offsetInCU: 0x13E46, offset: 0x1C1B2D, size: 0x8, addend: 0x0, symName: '__ZN4core3ptr36drop_in_place$LT$syn..mac..Macro$GT$17hb6bd6f67d9ee6797E', symObjAddr: 0x4AF0, symBinAddr: 0x4CA60, symSize: 0x40 }
  - { offsetInCU: 0x13E80, offset: 0x1C1B67, size: 0x8, addend: 0x0, symName: '__ZN4core3ptr36drop_in_place$LT$syn..path..Path$GT$17hf46cc67adc8dabe6E', symObjAddr: 0x4B30, symBinAddr: 0x4CAA0, symSize: 0x280 }
  - { offsetInCU: 0x1492D, offset: 0x1C2614, size: 0x8, addend: 0x0, symName: '__ZN4core3ptr37drop_in_place$LT$syn..stmt..Block$GT$17hfecb452d98558591E', symObjAddr: 0x4DB0, symBinAddr: 0x4CD20, symSize: 0xD0 }
  - { offsetInCU: 0x14C42, offset: 0x1C2929, size: 0x8, addend: 0x0, symName: '__ZN4core3ptr38drop_in_place$LT$syn..error..Error$GT$17he09fbf83db3f476bE', symObjAddr: 0x4E80, symBinAddr: 0x4CDF0, symSize: 0x90 }
  - { offsetInCU: 0x14F03, offset: 0x1C2BEA, size: 0x8, addend: 0x0, symName: '__ZN4core3ptr38drop_in_place$LT$syn..expr..Member$GT$17hba941f4c189dc795E', symObjAddr: 0x4F10, symBinAddr: 0x4CE80, symSize: 0x30 }
  - { offsetInCU: 0x14FFF, offset: 0x1C2CE6, size: 0x8, addend: 0x0, symName: '__ZN4core3ptr39drop_in_place$LT$proc_macro2..Ident$GT$17hd6ce070b43e43c97E', symObjAddr: 0x4F40, symBinAddr: 0x4CEB0, symSize: 0x30 }
  - { offsetInCU: 0x15212, offset: 0x1C2EF9, size: 0x8, addend: 0x0, symName: '__ZN4core3ptr39drop_in_place$LT$syn..buffer..Entry$GT$17he6366cfe2331dbc9E', symObjAddr: 0x4F70, symBinAddr: 0x4CEE0, symSize: 0xB0 }
  - { offsetInCU: 0x1559D, offset: 0x1C3284, size: 0x8, addend: 0x0, symName: '__ZN4core3ptr40drop_in_place$LT$syn..ty..ReturnType$GT$17h792ba338568d45a9E', symObjAddr: 0x5020, symBinAddr: 0x4CF90, symSize: 0x50 }
  - { offsetInCU: 0x1570D, offset: 0x1C33F4, size: 0x8, addend: 0x0, symName: '__ZN4core3ptr41drop_in_place$LT$syn..expr..ExprConst$GT$17hb9ba4f2625f15720E', symObjAddr: 0x5070, symBinAddr: 0x4CFE0, symSize: 0x180 }
  - { offsetInCU: 0x15CFA, offset: 0x1C39E1, size: 0x8, addend: 0x0, symName: '__ZN4core3ptr44drop_in_place$LT$syn..lifetime..Lifetime$GT$17hc4613dd5781cff6aE', symObjAddr: 0x51F0, symBinAddr: 0x4D160, symSize: 0x30 }
  - { offsetInCU: 0x15DF6, offset: 0x1C3ADD, size: 0x8, addend: 0x0, symName: '__ZN4core3ptr44drop_in_place$LT$syn..parse..ParseBuffer$GT$17h5181664a931f6441E', symObjAddr: 0x5220, symBinAddr: 0x4D190, symSize: 0x70 }
  - { offsetInCU: 0x16172, offset: 0x1C3E59, size: 0x8, addend: 0x0, symName: '__ZN4core3ptr45drop_in_place$LT$proc_macro2..TokenStream$GT$17h4851dd21cbf4c1a2E', symObjAddr: 0x5290, symBinAddr: 0x4D200, symSize: 0x140 }
  - { offsetInCU: 0x165CE, offset: 0x1C42B5, size: 0x8, addend: 0x0, symName: '__ZN4core3ptr45drop_in_place$LT$syn..buffer..TokenBuffer$GT$17h1770fcedceb63ec7E', symObjAddr: 0x53D0, symBinAddr: 0x4D340, symSize: 0xC0 }
  - { offsetInCU: 0x16836, offset: 0x1C451D, size: 0x8, addend: 0x0, symName: '__ZN4core3ptr45drop_in_place$LT$syn..generics..TypeParam$GT$17h659ea6c0f216e41aE', symObjAddr: 0x5490, symBinAddr: 0x4D400, symSize: 0x230 }
  - { offsetInCU: 0x170AB, offset: 0x1C4D92, size: 0x8, addend: 0x0, symName: '__ZN4core3ptr46drop_in_place$LT$syn..generics..ConstParam$GT$17h095591ccecb80218E', symObjAddr: 0x56C0, symBinAddr: 0x4D630, symSize: 0x150 }
  - { offsetInCU: 0x1752C, offset: 0x1C5213, size: 0x8, addend: 0x0, symName: '__ZN4core3ptr47drop_in_place$LT$syn..path..GenericArgument$GT$17h7df0218258579c58E', symObjAddr: 0x5810, symBinAddr: 0x4D780, symSize: 0x4A0 }
  - { offsetInCU: 0x18632, offset: 0x1C6319, size: 0x8, addend: 0x0, symName: '__ZN4core3ptr49drop_in_place$LT$syn..generics..LifetimeParam$GT$17h42283e1ea975e28fE', symObjAddr: 0x5CB0, symBinAddr: 0x4DC20, symSize: 0xF0 }
  - { offsetInCU: 0x18A49, offset: 0x1C6730, size: 0x8, addend: 0x0, symName: '__ZN4core3ptr50drop_in_place$LT$syn..generics..TypeParamBound$GT$17h3e55c99574230180E', symObjAddr: 0x5DA0, symBinAddr: 0x4DD10, symSize: 0xA0 }
  - { offsetInCU: 0x18BED, offset: 0x1C68D4, size: 0x8, addend: 0x0, symName: '__ZN4core3ptr50drop_in_place$LT$syn..generics..WherePredicate$GT$17h7482adce382ba3beE', symObjAddr: 0x5E40, symBinAddr: 0x4DDB0, symSize: 0xA0 }
  - { offsetInCU: 0x18D91, offset: 0x1C6A78, size: 0x8, addend: 0x0, symName: '__ZN4core3ptr58drop_in_place$LT$alloc..vec..Vec$LT$syn..expr..Arm$GT$$GT$17he1c084b01428a786E', symObjAddr: 0x5EE0, symBinAddr: 0x4DE50, symSize: 0xD0 }
  - { offsetInCU: 0x19051, offset: 0x1C6D38, size: 0x8, addend: 0x0, symName: '__ZN4core3ptr59drop_in_place$LT$alloc..boxed..Box$LT$syn..pat..Pat$GT$$GT$17h3b485c4e8bee9607E', symObjAddr: 0x5FB0, symBinAddr: 0x4DF20, symSize: 0x50 }
  - { offsetInCU: 0x191AA, offset: 0x1C6E91, size: 0x8, addend: 0x0, symName: '__ZN4core3ptr59drop_in_place$LT$alloc..boxed..Box$LT$syn..ty..Type$GT$$GT$17h529d4bae83980455E', symObjAddr: 0x6000, symBinAddr: 0x4DF70, symSize: 0x50 }
  - { offsetInCU: 0x19303, offset: 0x1C6FEA, size: 0x8, addend: 0x0, symName: '__ZN4core3ptr61drop_in_place$LT$alloc..boxed..Box$LT$syn..expr..Expr$GT$$GT$17h460ec2498556bb03E', symObjAddr: 0x6050, symBinAddr: 0x4DFC0, symSize: 0x50 }
  - { offsetInCU: 0x194D8, offset: 0x1C71BF, size: 0x8, addend: 0x0, symName: '__ZN4core3ptr61drop_in_place$LT$syn..path..ParenthesizedGenericArguments$GT$17he5db395c9e85d0bcE', symObjAddr: 0x60A0, symBinAddr: 0x4E010, symSize: 0x170 }
  - { offsetInCU: 0x19ACE, offset: 0x1C77B5, size: 0x8, addend: 0x0, symName: '__ZN4core3ptr62drop_in_place$LT$syn..path..AngleBracketedGenericArguments$GT$17h45c6cda35e39d554E', symObjAddr: 0x6210, symBinAddr: 0x4E180, symSize: 0x120 }
  - { offsetInCU: 0x19F19, offset: 0x1C7C00, size: 0x8, addend: 0x0, symName: '__ZN4core3ptr63drop_in_place$LT$alloc..boxed..Box$LT$syn..lit..LitRepr$GT$$GT$17h06befdf0496ebcdaE', symObjAddr: 0x6330, symBinAddr: 0x4E2A0, symSize: 0x60 }
  - { offsetInCU: 0x1A220, offset: 0x1C7F07, size: 0x8, addend: 0x0, symName: '__ZN4core3ptr64drop_in_place$LT$alloc..boxed..Box$LT$syn..pat..FieldPat$GT$$GT$17h9d44220380a4d0a3E', symObjAddr: 0x6390, symBinAddr: 0x4E300, symSize: 0x140 }
  - { offsetInCU: 0x1A921, offset: 0x1C8608, size: 0x8, addend: 0x0, symName: '__ZN4core3ptr64drop_in_place$LT$alloc..boxed..Box$LT$syn..ty..BareFnArg$GT$$GT$17h3296e316e6a4b46aE', symObjAddr: 0x64D0, symBinAddr: 0x4E440, symSize: 0x140 }
  - { offsetInCU: 0x1AEAA, offset: 0x1C8B91, size: 0x8, addend: 0x0, symName: '__ZN4core3ptr65drop_in_place$LT$alloc..vec..Vec$LT$proc_macro..TokenTree$GT$$GT$17h23629d65d27f1a0fE', symObjAddr: 0x6610, symBinAddr: 0x4E580, symSize: 0x110 }
  - { offsetInCU: 0x1B2A2, offset: 0x1C8F89, size: 0x8, addend: 0x0, symName: '__ZN4core3ptr65drop_in_place$LT$core..option..Option$LT$syn..expr..Label$GT$$GT$17h4464a9bb4850ad8cE', symObjAddr: 0x6720, symBinAddr: 0x4E690, symSize: 0x30 }
  - { offsetInCU: 0x1B3DC, offset: 0x1C90C3, size: 0x8, addend: 0x0, symName: '__ZN4core3ptr66drop_in_place$LT$core..option..Option$LT$syn..pat..PatRest$GT$$GT$17he31e390125d6c440E', symObjAddr: 0x6750, symBinAddr: 0x4E6C0, symSize: 0xE0 }
  - { offsetInCU: 0x1B704, offset: 0x1C93EB, size: 0x8, addend: 0x0, symName: '__ZN4core3ptr67drop_in_place$LT$alloc..boxed..Box$LT$syn..expr..FieldValue$GT$$GT$17h0d12b7a5aa94d7e9E', symObjAddr: 0x6830, symBinAddr: 0x4E7A0, symSize: 0x140 }
  - { offsetInCU: 0x1BC6D, offset: 0x1C9954, size: 0x8, addend: 0x0, symName: '__ZN4core3ptr68drop_in_place$LT$alloc..boxed..Box$LT$syn..path..PathSegment$GT$$GT$17h19d56ea5d5bc26b4E', symObjAddr: 0x6970, symBinAddr: 0x4E8E0, symSize: 0x1B0 }
  - { offsetInCU: 0x1C37B, offset: 0x1CA062, size: 0x8, addend: 0x0, symName: '__ZN4core3ptr70drop_in_place$LT$core..option..Option$LT$syn..ty..BareVariadic$GT$$GT$17h7723d310b943ca36E', symObjAddr: 0x6B20, symBinAddr: 0x4EA90, symSize: 0x100 }
  - { offsetInCU: 0x1C7E6, offset: 0x1CA4CD, size: 0x8, addend: 0x0, symName: '__ZN4core3ptr72drop_in_place$LT$alloc..boxed..Box$LT$syn..path..GenericArgument$GT$$GT$17h06f95a13408ebdafE', symObjAddr: 0x6C20, symBinAddr: 0x4EB90, symSize: 0x2B0 }
  - { offsetInCU: 0x1D19E, offset: 0x1CAE85, size: 0x8, addend: 0x0, symName: '__ZN4core3ptr72drop_in_place$LT$core..option..Option$LT$syn..lifetime..Lifetime$GT$$GT$17h81994ea203da09dcE', symObjAddr: 0x6ED0, symBinAddr: 0x4EE40, symSize: 0x30 }
  - { offsetInCU: 0x1D2B9, offset: 0x1CAFA0, size: 0x8, addend: 0x0, symName: '__ZN4core3ptr73drop_in_place$LT$alloc..boxed..Box$LT$syn..generics..GenericParam$GT$$GT$17h85c8be7868d3af0dE', symObjAddr: 0x6F00, symBinAddr: 0x4EE70, symSize: 0x80 }
  - { offsetInCU: 0x1D42F, offset: 0x1CB116, size: 0x8, addend: 0x0, symName: '__ZN4core3ptr75drop_in_place$LT$alloc..boxed..Box$LT$syn..generics..TypeParamBound$GT$$GT$17h1941c611c3139631E', symObjAddr: 0x6F80, symBinAddr: 0x4EEF0, symSize: 0x1B0 }
  - { offsetInCU: 0x1DB2E, offset: 0x1CB815, size: 0x8, addend: 0x0, symName: '__ZN4core3ptr86drop_in_place$LT$syn..punctuated..Punctuated$LT$syn..pat..Pat$C$syn..token..Or$GT$$GT$17had6e801733142469E', symObjAddr: 0x7130, symBinAddr: 0x4F0A0, symSize: 0x120 }
  - { offsetInCU: 0x1DFA9, offset: 0x1CBC90, size: 0x8, addend: 0x0, symName: '__ZN4core3ptr87drop_in_place$LT$core..option..Option$LT$alloc..boxed..Box$LT$syn..pat..Pat$GT$$GT$$GT$17ha5cba3ae6cc21c54E', symObjAddr: 0x7250, symBinAddr: 0x4F1C0, symSize: 0x50 }
  - { offsetInCU: 0x1E119, offset: 0x1CBE00, size: 0x8, addend: 0x0, symName: '__ZN4core3ptr87drop_in_place$LT$core..option..Option$LT$alloc..boxed..Box$LT$syn..ty..Type$GT$$GT$$GT$17h4b703a12e8077b57E', symObjAddr: 0x72A0, symBinAddr: 0x4F210, symSize: 0x50 }
  - { offsetInCU: 0x1E289, offset: 0x1CBF70, size: 0x8, addend: 0x0, symName: '__ZN4core3ptr89drop_in_place$LT$core..option..Option$LT$alloc..boxed..Box$LT$syn..expr..Expr$GT$$GT$$GT$17h9eee67e527e2e442E', symObjAddr: 0x72F0, symBinAddr: 0x4F260, symSize: 0x50 }
  - { offsetInCU: 0x1E437, offset: 0x1CC11E, size: 0x8, addend: 0x0, symName: '__ZN4core3ptr89drop_in_place$LT$syn..punctuated..Punctuated$LT$syn..pat..Pat$C$syn..token..Comma$GT$$GT$17he3d98e99a23dba01E', symObjAddr: 0x7340, symBinAddr: 0x4F2B0, symSize: 0x120 }
  - { offsetInCU: 0x1E8C9, offset: 0x1CC5B0, size: 0x8, addend: 0x0, symName: '__ZN4core3ptr89drop_in_place$LT$syn..punctuated..Punctuated$LT$syn..ty..Type$C$syn..token..Comma$GT$$GT$17h4c5ee6627469985fE', symObjAddr: 0x7460, symBinAddr: 0x4F3D0, symSize: 0x120 }
  - { offsetInCU: 0x1ED44, offset: 0x1CCA2B, size: 0x8, addend: 0x0, symName: '__ZN4core3ptr90drop_in_place$LT$core..option..Option$LT$syn..path..AngleBracketedGenericArguments$GT$$GT$17hf746ebbd447b5ea5E', symObjAddr: 0x7580, symBinAddr: 0x4F4F0, symSize: 0x130 }
  - { offsetInCU: 0x1F1E6, offset: 0x1CCECD, size: 0x8, addend: 0x0, symName: '__ZN4core3ptr91drop_in_place$LT$syn..punctuated..Punctuated$LT$syn..expr..Expr$C$syn..token..Comma$GT$$GT$17h2dea47310fc0e082E', symObjAddr: 0x76B0, symBinAddr: 0x4F620, symSize: 0x120 }
  - { offsetInCU: 0x1F674, offset: 0x1CD35B, size: 0x8, addend: 0x0, symName: '__ZN4core3ptr94drop_in_place$LT$syn..punctuated..Punctuated$LT$syn..pat..FieldPat$C$syn..token..Comma$GT$$GT$17h190748b2c55432b6E', symObjAddr: 0x77D0, symBinAddr: 0x4F740, symSize: 0xF0 }
  - { offsetInCU: 0x1F973, offset: 0x1CD65A, size: 0x8, addend: 0x0, symName: '__ZN4core3ptr94drop_in_place$LT$syn..punctuated..Punctuated$LT$syn..ty..BareFnArg$C$syn..token..Comma$GT$$GT$17h0cc9ca5fc13ffa0eE', symObjAddr: 0x78C0, symBinAddr: 0x4F830, symSize: 0xF0 }
  - { offsetInCU: 0x1FC74, offset: 0x1CD95B, size: 0x8, addend: 0x0, symName: '__ZN4core3ptr96drop_in_place$LT$core..option..Option$LT$alloc..boxed..Box$LT$syn..path..PathSegment$GT$$GT$$GT$17h2d05e908c3bffd1cE', symObjAddr: 0x79B0, symBinAddr: 0x4F920, symSize: 0xA0 }
  - { offsetInCU: 0x1FEF3, offset: 0x1CDBDA, size: 0x8, addend: 0x0, symName: '__ZN4core3ptr97drop_in_place$LT$syn..punctuated..Punctuated$LT$syn..expr..FieldValue$C$syn..token..Comma$GT$$GT$17hc51e6e9ab972ef1bE', symObjAddr: 0x7A50, symBinAddr: 0x4F9C0, symSize: 0xF0 }
  - { offsetInCU: 0x201F0, offset: 0x1CDED7, size: 0x8, addend: 0x0, symName: '__ZN4core3ptr98drop_in_place$LT$alloc..vec..Vec$LT$$LP$syn..path..GenericArgument$C$syn..token..Comma$RP$$GT$$GT$17h460a79b9c2dc4819E', symObjAddr: 0x7B40, symBinAddr: 0x4FAB0, symSize: 0xD0 }
  - { offsetInCU: 0x20530, offset: 0x1CE217, size: 0x8, addend: 0x0, symName: '__ZN4core3ptr98drop_in_place$LT$syn..punctuated..Punctuated$LT$syn..lifetime..Lifetime$C$syn..token..Plus$GT$$GT$17h3346a70b7ba118ddE', symObjAddr: 0x7C10, symBinAddr: 0x4FB80, symSize: 0xC6 }
  - { offsetInCU: 0x27C82, offset: 0x1D5969, size: 0x8, addend: 0x0, symName: __ZN3syn11parse_quote5parse17hb117d4ff4da066beE, symObjAddr: 0x0, symBinAddr: 0x47FC0, symSize: 0x420 }
  - { offsetInCU: 0x2848C, offset: 0x1D6173, size: 0x8, addend: 0x0, symName: __ZN3syn11parse_quote5parse18panic_cold_display17hff45bec1258537b5E, symObjAddr: 0x420, symBinAddr: 0x1FE1A0, symSize: 0x50 }
  - { offsetInCU: 0x8AB, offset: 0x1DBF5A, size: 0x8, addend: 0x0, symName: __ZN10proc_macro6bridge6client10run_client17h30594d4b03f9ebffE, symObjAddr: 0x190, symBinAddr: 0x4FC50, symSize: 0x2E0 }
  - { offsetInCU: 0xF85, offset: 0x1DC634, size: 0x8, addend: 0x0, symName: __ZN10proc_macro6bridge6client10run_client17h688dd977212a6d8bE, symObjAddr: 0x470, symBinAddr: 0x4FF30, symSize: 0x2E0 }
  - { offsetInCU: 0x165F, offset: 0x1DCD0E, size: 0x8, addend: 0x0, symName: __ZN10proc_macro6bridge6client10run_client17h750dc113af7fe2d6E, symObjAddr: 0x750, symBinAddr: 0x50210, symSize: 0x2E0 }
  - { offsetInCU: 0x1D39, offset: 0x1DD3E8, size: 0x8, addend: 0x0, symName: __ZN10proc_macro6bridge6client10run_client17hb51702e172858772E, symObjAddr: 0xA30, symBinAddr: 0x504F0, symSize: 0x2E0 }
  - { offsetInCU: 0x2413, offset: 0x1DDAC2, size: 0x8, addend: 0x0, symName: __ZN10proc_macro6bridge6client10run_client17hdd1b7cd1ef62c2e5E, symObjAddr: 0xD10, symBinAddr: 0x507D0, symSize: 0x2DB }
  - { offsetInCU: 0xC5E, offset: 0x1E164F, size: 0x8, addend: 0x0, symName: '__ZN102_$LT$core..iter..adapters..map..Map$LT$I$C$F$GT$$u20$as$u20$core..iter..traits..iterator..Iterator$GT$4fold17hd2e476b5809ccd43E', symObjAddr: 0x140, symBinAddr: 0x50AB0, symSize: 0x0 }
  - { offsetInCU: 0x10DF, offset: 0x1E1AD0, size: 0x8, addend: 0x0, symName: '__ZN102_$LT$core..iter..adapters..map..Map$LT$I$C$F$GT$$u20$as$u20$core..iter..traits..iterator..Iterator$GT$4fold17hfbf09328f51c97ceE', symObjAddr: 0x2A0, symBinAddr: 0x50C10, symSize: 0x100 }
  - { offsetInCU: 0x2426, offset: 0x1E2E17, size: 0x8, addend: 0x0, symName: '__ZN4core3ptr50drop_in_place$LT$proc_macro2..imp..TokenStream$GT$17h468af637c157b700E.llvm.5577679045622965559', symObjAddr: 0x3A0, symBinAddr: 0x50D10, symSize: 0x140 }
  - { offsetInCU: 0x286B, offset: 0x1E325C, size: 0x8, addend: 0x0, symName: '__ZN4core3ptr65drop_in_place$LT$alloc..vec..Vec$LT$proc_macro..TokenTree$GT$$GT$17h23629d65d27f1a0fE.llvm.5577679045622965559', symObjAddr: 0x4E0, symBinAddr: 0x50E50, symSize: 0x107 }
  - { offsetInCU: 0x1E, offset: 0x1EBB01, size: 0x8, addend: 0x0, symName: '__ZN4core3ptr73drop_in_place$LT$core..cell..UnsafeCell$LT$syn..parse..Unexpected$GT$$GT$17h61c4ab3af956f0c1E.llvm.16244890241999201990', symObjAddr: 0x0, symBinAddr: 0x50F60, symSize: 0x50 }
  - { offsetInCU: 0xB7D, offset: 0x1EC660, size: 0x8, addend: 0x0, symName: '__ZN4core3ptr73drop_in_place$LT$core..cell..UnsafeCell$LT$syn..parse..Unexpected$GT$$GT$17h61c4ab3af956f0c1E.llvm.16244890241999201990', symObjAddr: 0x0, symBinAddr: 0x50F60, symSize: 0x50 }
  - { offsetInCU: 0x171E, offset: 0x1ED201, size: 0x8, addend: 0x0, symName: '__ZN68_$LT$alloc..rc..Rc$LT$T$C$A$GT$$u20$as$u20$core..ops..drop..Drop$GT$4drop17h34d851268b826e67E', symObjAddr: 0x100, symBinAddr: 0x50FB0, symSize: 0x40 }
  - { offsetInCU: 0x1992, offset: 0x1ED475, size: 0x8, addend: 0x0, symName: '__ZN68_$LT$alloc..rc..Rc$LT$T$C$A$GT$$u20$as$u20$core..ops..drop..Drop$GT$4drop17h5069ce35cc0f48afE', symObjAddr: 0x140, symBinAddr: 0x50FF0, symSize: 0xE0 }
  - { offsetInCU: 0x214B, offset: 0x1EDC2E, size: 0x8, addend: 0x0, symName: '__ZN80_$LT$alloc..rc..UniqueRcUninit$LT$T$C$A$GT$$u20$as$u20$core..ops..drop..Drop$GT$4drop17he099913ca890411fE', symObjAddr: 0x220, symBinAddr: 0x510D0, symSize: 0x4F }
  - { offsetInCU: 0x7AF, offset: 0x1EEE2E, size: 0x8, addend: 0x0, symName: '__ZN68_$LT$$RF$str$u20$as$u20$proc_macro..bridge..rpc..Encode$LT$S$GT$$GT$6encode17hea8f79616e564064E', symObjAddr: 0x80, symBinAddr: 0x51120, symSize: 0x230 }
  - { offsetInCU: 0x1E, offset: 0x1EF48B, size: 0x8, addend: 0x0, symName: __ZN3syn5error5Error11new_spanned17h40e7dc62f3e39e16E, symObjAddr: 0x0, symBinAddr: 0x51350, symSize: 0x180 }
  - { offsetInCU: 0x35, offset: 0x1EF4A2, size: 0x8, addend: 0x0, symName: _anon.69d03572532f37a35c0a13a3371e812c.0.llvm.7464746335285159872, symObjAddr: 0xD10, symBinAddr: 0x264C10, symSize: 0x0 }
  - { offsetInCU: 0x1C2, offset: 0x1EF62F, size: 0x8, addend: 0x0, symName: '__ZN58_$LT$alloc..string..String$u20$as$u20$core..fmt..Write$GT$10write_char17h04bc467bd68a934bE.llvm.7464746335285159872', symObjAddr: 0xA00, symBinAddr: 0x51D30, symSize: 0x140 }
  - { offsetInCU: 0x5C8, offset: 0x1EFA35, size: 0x8, addend: 0x0, symName: '__ZN58_$LT$alloc..string..String$u20$as$u20$core..fmt..Write$GT$9write_str17h46a93205c3443fbaE.llvm.7464746335285159872', symObjAddr: 0xB40, symBinAddr: 0x51E70, symSize: 0x5B }
  - { offsetInCU: 0xCE0, offset: 0x1F014D, size: 0x8, addend: 0x0, symName: '__ZN4core3ptr42drop_in_place$LT$alloc..string..String$GT$17h69b2fad4c0066e64E.llvm.7464746335285159872', symObjAddr: 0x770, symBinAddr: 0x51AA0, symSize: 0x20 }
  - { offsetInCU: 0xF1E, offset: 0x1F038B, size: 0x8, addend: 0x0, symName: '__ZN4core3ptr45drop_in_place$LT$proc_macro2..TokenStream$GT$17h4851dd21cbf4c1a2E.llvm.7464746335285159872', symObjAddr: 0x790, symBinAddr: 0x51AC0, symSize: 0x140 }
  - { offsetInCU: 0x137A, offset: 0x1F07E7, size: 0x8, addend: 0x0, symName: '__ZN4core3ptr65drop_in_place$LT$alloc..vec..Vec$LT$proc_macro..TokenTree$GT$$GT$17h23629d65d27f1a0fE.llvm.7464746335285159872', symObjAddr: 0x8D0, symBinAddr: 0x51C00, symSize: 0x110 }
  - { offsetInCU: 0x18C4, offset: 0x1F0D31, size: 0x8, addend: 0x0, symName: '__ZN53_$LT$core..fmt..Error$u20$as$u20$core..fmt..Debug$GT$3fmt17h03dc662ab152f3aeE.llvm.7464746335285159872', symObjAddr: 0x9E0, symBinAddr: 0x51D10, symSize: 0x20 }
  - { offsetInCU: 0x1C29, offset: 0x1F1096, size: 0x8, addend: 0x0, symName: _anon.69d03572532f37a35c0a13a3371e812c.4.llvm.7464746335285159872, symObjAddr: 0xD58, symBinAddr: 0x264C58, symSize: 0x0 }
  - { offsetInCU: 0x1FA6, offset: 0x1F1413, size: 0x8, addend: 0x0, symName: __ZN3syn5error5Error11new_spanned17h40e7dc62f3e39e16E, symObjAddr: 0x0, symBinAddr: 0x51350, symSize: 0x180 }
  - { offsetInCU: 0x2211, offset: 0x1F167E, size: 0x8, addend: 0x0, symName: __ZN3syn5error5Error11new_spanned17h5d9831444cbcabc4E, symObjAddr: 0x180, symBinAddr: 0x514D0, symSize: 0x180 }
  - { offsetInCU: 0x2489, offset: 0x1F18F6, size: 0x8, addend: 0x0, symName: __ZN3syn5error5Error11new_spanned17hbd180ca8b7d3b442E, symObjAddr: 0x300, symBinAddr: 0x51650, symSize: 0xE0 }
  - { offsetInCU: 0x2765, offset: 0x1F1BD2, size: 0x8, addend: 0x0, symName: __ZN3syn5error5Error11new_spanned17hf5f09daec0f7dd16E, symObjAddr: 0x3E0, symBinAddr: 0x51730, symSize: 0x180 }
  - { offsetInCU: 0x29F9, offset: 0x1F1E66, size: 0x8, addend: 0x0, symName: __ZN3syn5error5Error3new17h4cb9a92631da227aE, symObjAddr: 0x560, symBinAddr: 0x518B0, symSize: 0x100 }
  - { offsetInCU: 0x2BEB, offset: 0x1F2058, size: 0x8, addend: 0x0, symName: __ZN3syn5error5Error3new17h9847a41e71a1fa1fE, symObjAddr: 0x660, symBinAddr: 0x519B0, symSize: 0xF0 }
  - { offsetInCU: 0x1E, offset: 0x1FBB39, size: 0x8, addend: 0x0, symName: __ZN4core3fmt5Write9write_fmt17h83c76cbc7b80daafE, symObjAddr: 0x0, symBinAddr: 0x51ED0, symSize: 0x20 }
  - { offsetInCU: 0x9A, offset: 0x1FBBB5, size: 0x8, addend: 0x0, symName: '__ZN58_$LT$alloc..string..String$u20$as$u20$core..fmt..Write$GT$10write_char17h04bc467bd68a934bE', symObjAddr: 0x40, symBinAddr: 0x51F10, symSize: 0x140 }
  - { offsetInCU: 0x49F, offset: 0x1FBFBA, size: 0x8, addend: 0x0, symName: '__ZN58_$LT$alloc..string..String$u20$as$u20$core..fmt..Write$GT$9write_str17h46a93205c3443fbaE', symObjAddr: 0x180, symBinAddr: 0x52050, symSize: 0x5B }
  - { offsetInCU: 0xAC8, offset: 0x1FC5E3, size: 0x8, addend: 0x0, symName: '__ZN4core3ptr42drop_in_place$LT$alloc..string..String$GT$17h69b2fad4c0066e64E', symObjAddr: 0x20, symBinAddr: 0x51EF0, symSize: 0x20 }
  - { offsetInCU: 0xE5B, offset: 0x1FC976, size: 0x8, addend: 0x0, symName: __ZN4core3fmt5Write9write_fmt17h83c76cbc7b80daafE, symObjAddr: 0x0, symBinAddr: 0x51ED0, symSize: 0x20 }
  - { offsetInCU: 0x1E, offset: 0x1FD42B, size: 0x8, addend: 0x0, symName: '__ZN132_$LT$proc_macro2..fallback..TokenStream$u20$as$u20$core..iter..traits..collect..Extend$LT$proc_macro2..fallback..TokenStream$GT$$GT$6extend17h8c8b853b3e32f67dE', symObjAddr: 0x0, symBinAddr: 0x520B0, symSize: 0x200 }
  - { offsetInCU: 0x7F2, offset: 0x1FDBFF, size: 0x8, addend: 0x0, symName: '__ZN132_$LT$proc_macro2..fallback..TokenStream$u20$as$u20$core..iter..traits..collect..Extend$LT$proc_macro2..fallback..TokenStream$GT$$GT$6extend17h8c8b853b3e32f67dE', symObjAddr: 0x0, symBinAddr: 0x520B0, symSize: 0x200 }
  - { offsetInCU: 0x1E, offset: 0x200417, size: 0x8, addend: 0x0, symName: __ZN4core5slice4sort6shared5pivot11median3_rec17h2a22bbfa495110f7E.llvm.7313378777889292803, symObjAddr: 0x0, symBinAddr: 0x522B0, symSize: 0x100 }
  - { offsetInCU: 0x3145, offset: 0x20353E, size: 0x8, addend: 0x0, symName: __ZN4core5slice4sort6shared5pivot11median3_rec17h2a22bbfa495110f7E.llvm.7313378777889292803, symObjAddr: 0x0, symBinAddr: 0x522B0, symSize: 0x100 }
  - { offsetInCU: 0x3535, offset: 0x20392E, size: 0x8, addend: 0x0, symName: __ZN4core5slice4sort6shared5pivot11median3_rec17h8557ed604a0c74faE.llvm.7313378777889292803, symObjAddr: 0x100, symBinAddr: 0x523B0, symSize: 0x100 }
  - { offsetInCU: 0x1E, offset: 0x209EB7, size: 0x8, addend: 0x0, symName: __ZN3syn4attr8MetaList15parse_args_with17h6eca908c0ad28c8cE, symObjAddr: 0x0, symBinAddr: 0x524B0, symSize: 0xC0 }
  - { offsetInCU: 0x17BD, offset: 0x20B656, size: 0x8, addend: 0x0, symName: '__ZN4core3ptr45drop_in_place$LT$proc_macro2..TokenStream$GT$17h4851dd21cbf4c1a2E.llvm.16576138984803671819', symObjAddr: 0x180, symBinAddr: 0x52630, symSize: 0x140 }
  - { offsetInCU: 0x1C19, offset: 0x20BAB2, size: 0x8, addend: 0x0, symName: '__ZN4core3ptr65drop_in_place$LT$alloc..vec..Vec$LT$proc_macro..TokenTree$GT$$GT$17h23629d65d27f1a0fE.llvm.16576138984803671819', symObjAddr: 0x2C0, symBinAddr: 0x52770, symSize: 0x110 }
  - { offsetInCU: 0xA477, offset: 0x214310, size: 0x8, addend: 0x0, symName: __ZN3syn4attr8MetaList15parse_args_with17h6eca908c0ad28c8cE, symObjAddr: 0x0, symBinAddr: 0x524B0, symSize: 0xC0 }
  - { offsetInCU: 0xA7A9, offset: 0x214642, size: 0x8, addend: 0x0, symName: __ZN3syn4attr8MetaList15parse_args_with17hfe99813a19c5640bE, symObjAddr: 0xC0, symBinAddr: 0x52570, symSize: 0xC0 }
  - { offsetInCU: 0x1E, offset: 0x214D0C, size: 0x8, addend: 0x0, symName: '__ZN128_$LT$proc_macro2..imp..TokenStream$u20$as$u20$core..iter..traits..collect..FromIterator$LT$proc_macro2..imp..TokenStream$GT$$GT$9from_iter17h1c6170dd1d24b7edE', symObjAddr: 0x0, symBinAddr: 0x52880, symSize: 0x170 }
  - { offsetInCU: 0x6AB, offset: 0x215399, size: 0x8, addend: 0x0, symName: '__ZN128_$LT$proc_macro2..imp..TokenStream$u20$as$u20$core..iter..traits..collect..FromIterator$LT$proc_macro2..imp..TokenStream$GT$$GT$9from_iter17h1c6170dd1d24b7edE', symObjAddr: 0x0, symBinAddr: 0x52880, symSize: 0x170 }
  - { offsetInCU: 0xEA4, offset: 0x215B92, size: 0x8, addend: 0x0, symName: '__ZN4core3ptr50drop_in_place$LT$proc_macro2..imp..TokenStream$GT$17h468af637c157b700E.llvm.770982144448741148', symObjAddr: 0x1F0, symBinAddr: 0x529F0, symSize: 0x140 }
  - { offsetInCU: 0x12E9, offset: 0x215FD7, size: 0x8, addend: 0x0, symName: '__ZN4core3ptr55drop_in_place$LT$proc_macro2..fallback..TokenStream$GT$17h515645c170abc78aE.llvm.770982144448741148', symObjAddr: 0x330, symBinAddr: 0x52B30, symSize: 0x40 }
  - { offsetInCU: 0x137E, offset: 0x21606C, size: 0x8, addend: 0x0, symName: '__ZN4core3ptr58drop_in_place$LT$proc_macro2..imp..DeferredTokenStream$GT$17h510f3ac3b12e9309E.llvm.770982144448741148', symObjAddr: 0x370, symBinAddr: 0x52B70, symSize: 0x110 }
  - { offsetInCU: 0x170A, offset: 0x2163F8, size: 0x8, addend: 0x0, symName: '__ZN4core3ptr65drop_in_place$LT$alloc..vec..Vec$LT$proc_macro..TokenTree$GT$$GT$17h23629d65d27f1a0fE.llvm.770982144448741148', symObjAddr: 0x480, symBinAddr: 0x52C80, symSize: 0x110 }
  - { offsetInCU: 0x1E, offset: 0x217B93, size: 0x8, addend: 0x0, symName: '__ZN4core3ptr101drop_in_place$LT$alloc..vec..Vec$LT$$LP$syn..attr..Meta$C$zerocopy_derive..repr..EnumRepr$RP$$GT$$GT$17he09e7ff8a8737964E', symObjAddr: 0x0, symBinAddr: 0x52D90, symSize: 0xD0 }
  - { offsetInCU: 0x325, offset: 0x217E9A, size: 0x8, addend: 0x0, symName: '__ZN4core3ptr101drop_in_place$LT$alloc..vec..Vec$LT$$LP$syn..attr..Meta$C$zerocopy_derive..repr..EnumRepr$RP$$GT$$GT$17he09e7ff8a8737964E', symObjAddr: 0x0, symBinAddr: 0x52D90, symSize: 0xD0 }
  - { offsetInCU: 0x686, offset: 0x2181FB, size: 0x8, addend: 0x0, symName: __ZN4core5slice4sort6stable14driftsort_main17h8b9571b5317a21baE, symObjAddr: 0xD0, symBinAddr: 0x52E60, symSize: 0x100 }
  - { offsetInCU: 0xB9C, offset: 0x218711, size: 0x8, addend: 0x0, symName: __ZN4core5slice4sort6stable14driftsort_main17h9ca22e3d9df38cacE, symObjAddr: 0x1D0, symBinAddr: 0x52F60, symSize: 0xFF }
  - { offsetInCU: 0x1E, offset: 0x22295B, size: 0x8, addend: 0x0, symName: '__ZN10proc_macro6bridge104_$LT$impl$u20$proc_macro..bridge..rpc..Encode$LT$S$GT$$u20$for$u20$core..result..Result$LT$T$C$E$GT$$GT$6encode17h443bca91991f01e4E', symObjAddr: 0x0, symBinAddr: 0x53060, symSize: 0x280 }
  - { offsetInCU: 0x170, offset: 0x222AAD, size: 0x8, addend: 0x0, symName: '__ZN10proc_macro6bridge104_$LT$impl$u20$proc_macro..bridge..rpc..Encode$LT$S$GT$$u20$for$u20$core..result..Result$LT$T$C$E$GT$$GT$6encode17h443bca91991f01e4E', symObjAddr: 0x0, symBinAddr: 0x53060, symSize: 0x280 }
  - { offsetInCU: 0x4FE, offset: 0x222E3B, size: 0x8, addend: 0x0, symName: '__ZN10proc_macro6bridge104_$LT$impl$u20$proc_macro..bridge..rpc..Encode$LT$S$GT$$u20$for$u20$core..result..Result$LT$T$C$E$GT$$GT$6encode17h80de3f70ae3e72beE', symObjAddr: 0x280, symBinAddr: 0x532E0, symSize: 0x300 }
  - { offsetInCU: 0x1E, offset: 0x223BDE, size: 0x8, addend: 0x0, symName: '__ZN10proc_macro6bridge100_$LT$impl$u20$proc_macro..bridge..rpc..Encode$LT$S$GT$$u20$for$u20$core..option..Option$LT$T$GT$$GT$6encode17h5d60a289d680e864E', symObjAddr: 0x0, symBinAddr: 0x535E0, symSize: 0x240 }
  - { offsetInCU: 0x354, offset: 0x223F14, size: 0x8, addend: 0x0, symName: '__ZN10proc_macro6bridge100_$LT$impl$u20$proc_macro..bridge..rpc..Encode$LT$S$GT$$u20$for$u20$core..option..Option$LT$T$GT$$GT$6encode17h5d60a289d680e864E', symObjAddr: 0x0, symBinAddr: 0x535E0, symSize: 0x240 }
  - { offsetInCU: 0x6D7, offset: 0x224297, size: 0x8, addend: 0x0, symName: '__ZN10proc_macro6bridge100_$LT$impl$u20$proc_macro..bridge..rpc..Encode$LT$S$GT$$u20$for$u20$core..option..Option$LT$T$GT$$GT$6encode17hae4e37adb9af0a9cE', symObjAddr: 0x240, symBinAddr: 0x53820, symSize: 0x345 }
  - { offsetInCU: 0x1E, offset: 0x224CAA, size: 0x8, addend: 0x0, symName: '__ZN4core3ptr45drop_in_place$LT$proc_macro2..TokenStream$GT$17h4851dd21cbf4c1a2E.llvm.7563522772887736380', symObjAddr: 0x0, symBinAddr: 0x53B70, symSize: 0x140 }
  - { offsetInCU: 0x12CE, offset: 0x225F5A, size: 0x8, addend: 0x0, symName: '__ZN4core3ptr45drop_in_place$LT$proc_macro2..TokenStream$GT$17h4851dd21cbf4c1a2E.llvm.7563522772887736380', symObjAddr: 0x0, symBinAddr: 0x53B70, symSize: 0x140 }
  - { offsetInCU: 0x172A, offset: 0x2263B6, size: 0x8, addend: 0x0, symName: '__ZN4core3ptr65drop_in_place$LT$alloc..vec..Vec$LT$proc_macro..TokenTree$GT$$GT$17h23629d65d27f1a0fE.llvm.7563522772887736380', symObjAddr: 0x140, symBinAddr: 0x53CB0, symSize: 0x110 }
  - { offsetInCU: 0xA0A9, offset: 0x22ED35, size: 0x8, addend: 0x0, symName: '__ZN67_$LT$syn..derive..Data$u20$as$u20$zerocopy_derive..ext..DataExt$GT$11field_types17h5e60b44418dd1aa6E', symObjAddr: 0x2C0, symBinAddr: 0x53DC0, symSize: 0x130 }
  - { offsetInCU: 0x134, offset: 0x22FFDB, size: 0x8, addend: 0x0, symName: '__ZN4core3ptr52drop_in_place$LT$proc_macro..ConcatStreamsHelper$GT$17h5fe568fd2d158373E.llvm.8354100425755062767', symObjAddr: 0xA0, symBinAddr: 0x53EF0, symSize: 0xBE }
  - { offsetInCU: 0x1E, offset: 0x2307EE, size: 0x8, addend: 0x0, symName: __ZN10proc_macro6bridge14selfless_reify31reify_to_extern_c_fn_hrt_bridge7wrapper17h5602b0c6bee69cbeE, symObjAddr: 0x0, symBinAddr: 0x53FB0, symSize: 0x30 }
  - { offsetInCU: 0x2A1, offset: 0x230A71, size: 0x8, addend: 0x0, symName: __ZN10proc_macro6bridge14selfless_reify31reify_to_extern_c_fn_hrt_bridge7wrapper17h5602b0c6bee69cbeE, symObjAddr: 0x0, symBinAddr: 0x53FB0, symSize: 0x30 }
  - { offsetInCU: 0x31A, offset: 0x230AEA, size: 0x8, addend: 0x0, symName: __ZN10proc_macro6bridge14selfless_reify31reify_to_extern_c_fn_hrt_bridge7wrapper17h98c64f896fc378dfE, symObjAddr: 0x30, symBinAddr: 0x53FE0, symSize: 0x30 }
  - { offsetInCU: 0x393, offset: 0x230B63, size: 0x8, addend: 0x0, symName: __ZN10proc_macro6bridge14selfless_reify31reify_to_extern_c_fn_hrt_bridge7wrapper17hb035acc24e66f255E, symObjAddr: 0x60, symBinAddr: 0x54010, symSize: 0x30 }
  - { offsetInCU: 0x40C, offset: 0x230BDC, size: 0x8, addend: 0x0, symName: __ZN10proc_macro6bridge14selfless_reify31reify_to_extern_c_fn_hrt_bridge7wrapper17hc1cb51847464d2cdE, symObjAddr: 0x90, symBinAddr: 0x54040, symSize: 0x30 }
  - { offsetInCU: 0x485, offset: 0x230C55, size: 0x8, addend: 0x0, symName: __ZN10proc_macro6bridge14selfless_reify31reify_to_extern_c_fn_hrt_bridge7wrapper17hf60fafdeb7a77c30E, symObjAddr: 0xC0, symBinAddr: 0x54070, symSize: 0x25 }
  - { offsetInCU: 0x1E, offset: 0x230EAB, size: 0x8, addend: 0x0, symName: __ZN3syn3lit6LitInt12base10_parse17h223c7d53dc699092E, symObjAddr: 0x0, symBinAddr: 0x540A0, symSize: 0x70 }
  - { offsetInCU: 0xDA2, offset: 0x231C2F, size: 0x8, addend: 0x0, symName: __ZN3syn3lit6LitInt12base10_parse17h223c7d53dc699092E, symObjAddr: 0x0, symBinAddr: 0x540A0, symSize: 0x70 }
  - { offsetInCU: 0xBF5, offset: 0x2329CC, size: 0x8, addend: 0x0, symName: '__ZN4core3ptr45drop_in_place$LT$proc_macro2..TokenStream$GT$17h4851dd21cbf4c1a2E.llvm.548249817023001766', symObjAddr: 0x50, symBinAddr: 0x54110, symSize: 0x140 }
  - { offsetInCU: 0x1051, offset: 0x232E28, size: 0x8, addend: 0x0, symName: '__ZN4core3ptr65drop_in_place$LT$alloc..vec..Vec$LT$proc_macro..TokenTree$GT$$GT$17h23629d65d27f1a0fE.llvm.548249817023001766', symObjAddr: 0x190, symBinAddr: 0x54250, symSize: 0x110 }
  - { offsetInCU: 0x1E, offset: 0x233BD9, size: 0x8, addend: 0x0, symName: '__ZN42_$LT$$RF$T$u20$as$u20$core..fmt..Debug$GT$3fmt17ha2507062afba960fE', symObjAddr: 0x0, symBinAddr: 0x54360, symSize: 0x30 }
  - { offsetInCU: 0x106, offset: 0x233CC1, size: 0x8, addend: 0x0, symName: '__ZN42_$LT$$RF$T$u20$as$u20$core..fmt..Debug$GT$3fmt17ha2507062afba960fE', symObjAddr: 0x0, symBinAddr: 0x54360, symSize: 0x30 }
  - { offsetInCU: 0x1A0, offset: 0x233D5B, size: 0x8, addend: 0x0, symName: '__ZN44_$LT$$RF$T$u20$as$u20$core..fmt..Display$GT$3fmt17h9b92d2a828c3f1cbE', symObjAddr: 0x30, symBinAddr: 0x54390, symSize: 0x20 }
  - { offsetInCU: 0x1E8, offset: 0x233DA3, size: 0x8, addend: 0x0, symName: '__ZN44_$LT$$RF$T$u20$as$u20$core..fmt..Display$GT$3fmt17hd31e2f9c5abcb950E', symObjAddr: 0x50, symBinAddr: 0x543B0, symSize: 0xD }
  - { offsetInCU: 0x1E, offset: 0x233FF5, size: 0x8, addend: 0x0, symName: '__ZN77_$LT$$LP$A$C$B$RP$$u20$as$u20$proc_macro..bridge..rpc..DecodeMut$LT$S$GT$$GT$6decode17ha4e8947f080f5eb5E', symObjAddr: 0x0, symBinAddr: 0x543C0, symSize: 0xCA }
  - { offsetInCU: 0xB4, offset: 0x23408B, size: 0x8, addend: 0x0, symName: '__ZN77_$LT$$LP$A$C$B$RP$$u20$as$u20$proc_macro..bridge..rpc..DecodeMut$LT$S$GT$$GT$6decode17ha4e8947f080f5eb5E', symObjAddr: 0x0, symBinAddr: 0x543C0, symSize: 0xCA }
  - { offsetInCU: 0x4FD0, offset: 0x23A2A8, size: 0x8, addend: 0x0, symName: '__ZN3syn4item7parsing63_$LT$impl$u20$syn..parse..Parse$u20$for$u20$syn..item..Item$GT$5parse17h80cf7aab904a267aE', symObjAddr: 0xCD50, symBinAddr: 0x602D0, symSize: 0x190 }
  - { offsetInCU: 0x555C, offset: 0x23A834, size: 0x8, addend: 0x0, symName: '__ZN3syn4item7parsing68_$LT$impl$u20$syn..parse..Parse$u20$for$u20$syn..item..ItemMacro$GT$5parse17hc5bb9427f98c7017E', symObjAddr: 0xCEE0, symBinAddr: 0x60460, symSize: 0x6B0 }
  - { offsetInCU: 0x61ED, offset: 0x23B4C5, size: 0x8, addend: 0x0, symName: '__ZN3syn4item7parsing74_$LT$impl$u20$syn..parse..Parse$u20$for$u20$syn..item..ItemExternCrate$GT$5parse17h6d46d67dd87b398fE', symObjAddr: 0xD590, symBinAddr: 0x60B10, symSize: 0x910 }
  - { offsetInCU: 0x75AE, offset: 0x23C886, size: 0x8, addend: 0x0, symName: '__ZN3syn4item7parsing75_$LT$impl$u20$syn..parse..Parse$u20$for$u20$syn..item..StaticMutability$GT$5parse17h60646f4bbad23fa9E', symObjAddr: 0x1E6F0, symBinAddr: 0x6B590, symSize: 0xA0 }
  - { offsetInCU: 0x775F, offset: 0x23CA37, size: 0x8, addend: 0x0, symName: '__ZN3syn4item7parsing68_$LT$impl$u20$syn..parse..Parse$u20$for$u20$syn..item..Signature$GT$5parse17h055acddcceb01c9aE', symObjAddr: 0xF690, symBinAddr: 0x61420, symSize: 0xA90 }
  - { offsetInCU: 0x8705, offset: 0x23D9DD, size: 0x8, addend: 0x0, symName: '__ZN3syn4item7parsing67_$LT$impl$u20$syn..parse..Parse$u20$for$u20$syn..item..Receiver$GT$5parse17h7c38822b1e4d7a06E', symObjAddr: 0x10630, symBinAddr: 0x61EB0, symSize: 0xA20 }
  - { offsetInCU: 0x98C6, offset: 0x23EB9E, size: 0x8, addend: 0x0, symName: '__ZN3syn4item7parsing66_$LT$impl$u20$syn..parse..Parse$u20$for$u20$syn..item..ItemMod$GT$5parse17h216506bc1f5b0b64E', symObjAddr: 0x11050, symBinAddr: 0x628D0, symSize: 0xD80 }
  - { offsetInCU: 0xB627, offset: 0x2408FF, size: 0x8, addend: 0x0, symName: '__ZN3syn4item7parsing73_$LT$impl$u20$syn..parse..Parse$u20$for$u20$syn..item..ItemForeignMod$GT$5parse17ha80c1978f8841fabE', symObjAddr: 0x11DD0, symBinAddr: 0x63650, symSize: 0x720 }
  - { offsetInCU: 0xCA00, offset: 0x241CD8, size: 0x8, addend: 0x0, symName: '__ZN3syn4item7parsing70_$LT$impl$u20$syn..parse..Parse$u20$for$u20$syn..item..ForeignItem$GT$5parse17hae52281c277c1a2fE', symObjAddr: 0x124F0, symBinAddr: 0x63D70, symSize: 0x19B0 }
  - { offsetInCU: 0x10ED2, offset: 0x2461AA, size: 0x8, addend: 0x0, symName: '__ZN3syn4item7parsing69_$LT$impl$u20$syn..parse..Parse$u20$for$u20$syn..item..ItemStruct$GT$5parse17h5f37d45d0509ea74E', symObjAddr: 0x160C0, symBinAddr: 0x65720, symSize: 0x720 }
  - { offsetInCU: 0x119C0, offset: 0x246C98, size: 0x8, addend: 0x0, symName: '__ZN3syn4item7parsing67_$LT$impl$u20$syn..parse..Parse$u20$for$u20$syn..item..ItemEnum$GT$5parse17hcfc041400e96f868E', symObjAddr: 0x167E0, symBinAddr: 0x65E40, symSize: 0x720 }
  - { offsetInCU: 0x124B0, offset: 0x247788, size: 0x8, addend: 0x0, symName: '__ZN3syn4item7parsing68_$LT$impl$u20$syn..parse..Parse$u20$for$u20$syn..item..ItemUnion$GT$5parse17h3bd0150048f99936E', symObjAddr: 0x16F00, symBinAddr: 0x66560, symSize: 0x710 }
  - { offsetInCU: 0x12F94, offset: 0x24826C, size: 0x8, addend: 0x0, symName: '__ZN3syn4item7parsing68_$LT$impl$u20$syn..parse..Parse$u20$for$u20$syn..item..ItemTrait$GT$5parse17hba3917e64180f729E', symObjAddr: 0x17610, symBinAddr: 0x66C70, symSize: 0x630 }
  - { offsetInCU: 0x13CBE, offset: 0x248F96, size: 0x8, addend: 0x0, symName: '__ZN3syn4item7parsing68_$LT$impl$u20$syn..parse..Parse$u20$for$u20$syn..item..TraitItem$GT$5parse17h5e01dedab6d196dfE', symObjAddr: 0x17DA0, symBinAddr: 0x672A0, symSize: 0x1B80 }
  - { offsetInCU: 0x198B6, offset: 0x24EB8E, size: 0x8, addend: 0x0, symName: '__ZN3syn4item7parsing70_$LT$impl$u20$syn..parse..Parse$u20$for$u20$syn..item..TraitItemFn$GT$5parse17h386721044cd912e3E', symObjAddr: 0x1A250, symBinAddr: 0x68E20, symSize: 0x850 }
  - { offsetInCU: 0x1AEEA, offset: 0x2501C2, size: 0x8, addend: 0x0, symName: '__ZN3syn4item7parsing67_$LT$impl$u20$syn..parse..Parse$u20$for$u20$syn..item..ImplItem$GT$5parse17h6b1c6f6f70b03df2E', symObjAddr: 0x1B350, symBinAddr: 0x69670, symSize: 0x1BE0 }
  - { offsetInCU: 0x204EA, offset: 0x2557C2, size: 0x8, addend: 0x0, symName: '__ZN3syn4item7parsing72_$LT$impl$u20$syn..parse..Parse$u20$for$u20$syn..item..ImplItemMacro$GT$5parse17h34a4a0c85418b70aE', symObjAddr: 0x1E3B0, symBinAddr: 0x6B250, symSize: 0x0 }
  - { offsetInCU: 0x20BB7, offset: 0x255E8F, size: 0x8, addend: 0x0, symName: '__ZN3syn4item8printing83_$LT$impl$u20$quote..to_tokens..ToTokens$u20$for$u20$syn..item..ItemExternCrate$GT$9to_tokens17hfe36bc772e4277a0E', symObjAddr: 0x1E790, symBinAddr: 0x6B630, symSize: 0x250 }
  - { offsetInCU: 0x21173, offset: 0x25644B, size: 0x8, addend: 0x0, symName: '__ZN3syn4item8printing78_$LT$impl$u20$quote..to_tokens..ToTokens$u20$for$u20$syn..item..ItemStatic$GT$9to_tokens17hbc3d5375fc6c771cE', symObjAddr: 0x1EB70, symBinAddr: 0x6B880, symSize: 0x220 }
  - { offsetInCU: 0x216A9, offset: 0x256981, size: 0x8, addend: 0x0, symName: '__ZN3syn4item8printing75_$LT$impl$u20$quote..to_tokens..ToTokens$u20$for$u20$syn..item..ItemMod$GT$9to_tokens17h0200f7c6912b0a1cE', symObjAddr: 0x1F050, symBinAddr: 0x6BAA0, symSize: 0x230 }
  - { offsetInCU: 0x21BA5, offset: 0x256E7D, size: 0x8, addend: 0x0, symName: '__ZN3syn4item8printing76_$LT$impl$u20$quote..to_tokens..ToTokens$u20$for$u20$syn..item..ItemType$GT$9to_tokens17he708c67807a0f5e7E', symObjAddr: 0x1F440, symBinAddr: 0x6BCD0, symSize: 0x1C0 }
  - { offsetInCU: 0x21F04, offset: 0x2571DC, size: 0x8, addend: 0x0, symName: '__ZN3syn4item8printing76_$LT$impl$u20$quote..to_tokens..ToTokens$u20$for$u20$syn..item..ItemEnum$GT$9to_tokens17h182a12d3a154632dE', symObjAddr: 0x1F600, symBinAddr: 0x6BE90, symSize: 0x180 }
  - { offsetInCU: 0x221E9, offset: 0x2574C1, size: 0x8, addend: 0x0, symName: '__ZN3syn4item8printing78_$LT$impl$u20$quote..to_tokens..ToTokens$u20$for$u20$syn..item..ItemStruct$GT$9to_tokens17h8172cc7233ca8fbeE', symObjAddr: 0x1F780, symBinAddr: 0x6C010, symSize: 0x220 }
  - { offsetInCU: 0x225CF, offset: 0x2578A7, size: 0x8, addend: 0x0, symName: '__ZN3syn4item8printing77_$LT$impl$u20$quote..to_tokens..ToTokens$u20$for$u20$syn..item..ItemUnion$GT$9to_tokens17h6c795ad402d2a166E', symObjAddr: 0x1F9A0, symBinAddr: 0x6C230, symSize: 0x180 }
  - { offsetInCU: 0x228DA, offset: 0x257BB2, size: 0x8, addend: 0x0, symName: '__ZN3syn4item8printing77_$LT$impl$u20$quote..to_tokens..ToTokens$u20$for$u20$syn..item..ItemTrait$GT$9to_tokens17h8121c5f1327add6eE', symObjAddr: 0x1FB20, symBinAddr: 0x6C3B0, symSize: 0x320 }
  - { offsetInCU: 0x23327, offset: 0x2585FF, size: 0x8, addend: 0x0, symName: '__ZN3syn4item8printing82_$LT$impl$u20$quote..to_tokens..ToTokens$u20$for$u20$syn..item..ItemTraitAlias$GT$9to_tokens17hc5f43bf815c68949E', symObjAddr: 0x1FE40, symBinAddr: 0x6C6D0, symSize: 0x330 }
  - { offsetInCU: 0x23BFE, offset: 0x258ED6, size: 0x8, addend: 0x0, symName: '__ZN3syn4item8printing76_$LT$impl$u20$quote..to_tokens..ToTokens$u20$for$u20$syn..item..ItemImpl$GT$9to_tokens17h0c3a9ddae74c937dE', symObjAddr: 0x20170, symBinAddr: 0x6CA00, symSize: 0x340 }
  - { offsetInCU: 0x2444B, offset: 0x259723, size: 0x8, addend: 0x0, symName: '__ZN3syn4item8printing77_$LT$impl$u20$quote..to_tokens..ToTokens$u20$for$u20$syn..item..ItemMacro$GT$9to_tokens17haec818905d80644fE', symObjAddr: 0x204B0, symBinAddr: 0x6CD40, symSize: 0x190 }
  - { offsetInCU: 0x2487F, offset: 0x259B57, size: 0x8, addend: 0x0, symName: '__ZN3syn4item8printing82_$LT$impl$u20$quote..to_tokens..ToTokens$u20$for$u20$syn..item..TraitItemConst$GT$9to_tokens17h76e791416bf823d1E', symObjAddr: 0x20790, symBinAddr: 0x6CED0, symSize: 0x1C0 }
  - { offsetInCU: 0x24C16, offset: 0x259EEE, size: 0x8, addend: 0x0, symName: '__ZN3syn4item8printing81_$LT$impl$u20$quote..to_tokens..ToTokens$u20$for$u20$syn..item..TraitItemType$GT$9to_tokens17hbe42b3bab95c6768E', symObjAddr: 0x20AB0, symBinAddr: 0x6D090, symSize: 0x240 }
  - { offsetInCU: 0x2505A, offset: 0x25A332, size: 0x8, addend: 0x0, symName: '__ZN3syn4item8printing81_$LT$impl$u20$quote..to_tokens..ToTokens$u20$for$u20$syn..item..ImplItemConst$GT$9to_tokens17hdd48b33068953141E', symObjAddr: 0x20CF0, symBinAddr: 0x6D2D0, symSize: 0x240 }
  - { offsetInCU: 0x25512, offset: 0x25A7EA, size: 0x8, addend: 0x0, symName: '__ZN3syn4item8printing80_$LT$impl$u20$quote..to_tokens..ToTokens$u20$for$u20$syn..item..ImplItemType$GT$9to_tokens17hbce09990808c878cE', symObjAddr: 0x21090, symBinAddr: 0x6D510, symSize: 0x230 }
  - { offsetInCU: 0x25A00, offset: 0x25ACD8, size: 0x8, addend: 0x0, symName: '__ZN3syn4item8printing85_$LT$impl$u20$quote..to_tokens..ToTokens$u20$for$u20$syn..item..ForeignItemStatic$GT$9to_tokens17h378f5a1dfc9fdf33E', symObjAddr: 0x214C0, symBinAddr: 0x6D740, symSize: 0x200 }
  - { offsetInCU: 0x25E8A, offset: 0x25B162, size: 0x8, addend: 0x0, symName: '__ZN3syn4item8printing83_$LT$impl$u20$quote..to_tokens..ToTokens$u20$for$u20$syn..item..ForeignItemType$GT$9to_tokens17h4ed6b28f8ddb36b2E', symObjAddr: 0x216C0, symBinAddr: 0x6D940, symSize: 0x190 }
  - { offsetInCU: 0x26197, offset: 0x25B46F, size: 0x8, addend: 0x0, symName: '__ZN3syn4item8printing77_$LT$impl$u20$quote..to_tokens..ToTokens$u20$for$u20$syn..item..Signature$GT$9to_tokens17h487e336073ff52a3E', symObjAddr: 0x21850, symBinAddr: 0x6DAD0, symSize: 0x330 }
  - { offsetInCU: 0x2696E, offset: 0x25BC46, size: 0x8, addend: 0x0, symName: '__ZN3syn4item8printing76_$LT$impl$u20$quote..to_tokens..ToTokens$u20$for$u20$syn..item..Receiver$GT$9to_tokens17h0593f180191f94a9E', symObjAddr: 0x21B80, symBinAddr: 0x6DE00, symSize: 0x2E0 }
  - { offsetInCU: 0x2711E, offset: 0x25C3F6, size: 0x8, addend: 0x0, symName: '__ZN3syn4item8printing76_$LT$impl$u20$quote..to_tokens..ToTokens$u20$for$u20$syn..item..Variadic$GT$9to_tokens17h5d9696317f3ad996E', symObjAddr: 0x21E60, symBinAddr: 0x6E0E0, symSize: 0x130 }
  - { offsetInCU: 0x27435, offset: 0x25C70D, size: 0x8, addend: 0x0, symName: '__ZN62_$LT$syn..item..Item$u20$as$u20$quote..to_tokens..ToTokens$GT$9to_tokens17he7e69ecbc61b7b2cE', symObjAddr: 0x22010, symBinAddr: 0x6E210, symSize: 0x730 }
  - { offsetInCU: 0x282AE, offset: 0x25D586, size: 0x8, addend: 0x0, symName: '__ZN65_$LT$syn..item..UseTree$u20$as$u20$quote..to_tokens..ToTokens$GT$9to_tokens17hee39f883784acb47E', symObjAddr: 0x22740, symBinAddr: 0x6E940, symSize: 0x310 }
  - { offsetInCU: 0x28B63, offset: 0x25DE3B, size: 0x8, addend: 0x0, symName: '__ZN69_$LT$syn..item..ForeignItem$u20$as$u20$quote..to_tokens..ToTokens$GT$9to_tokens17hb7bfc5d782828218E', symObjAddr: 0x22A50, symBinAddr: 0x6EC50, symSize: 0x250 }
  - { offsetInCU: 0x28F87, offset: 0x25E25F, size: 0x8, addend: 0x0, symName: '__ZN67_$LT$syn..item..TraitItem$u20$as$u20$quote..to_tokens..ToTokens$GT$9to_tokens17h9010403c8466e854E', symObjAddr: 0x22CA0, symBinAddr: 0x6EEA0, symSize: 0x2B0 }
  - { offsetInCU: 0x2941A, offset: 0x25E6F2, size: 0x8, addend: 0x0, symName: '__ZN66_$LT$syn..item..ImplItem$u20$as$u20$quote..to_tokens..ToTokens$GT$9to_tokens17h9ce4fd01d680c33dE', symObjAddr: 0x22F50, symBinAddr: 0x6F150, symSize: 0x2E0 }
  - { offsetInCU: 0x2A0B5, offset: 0x25F38D, size: 0x8, addend: 0x0, symName: '__ZN3syn3gen5clone67_$LT$impl$u20$core..clone..Clone$u20$for$u20$syn..item..UseTree$GT$5clone17he4721d92d6223b97E', symObjAddr: 0x28540, symBinAddr: 0x74200, symSize: 0x2A0 }
  - { offsetInCU: 0x2A799, offset: 0x25FA71, size: 0x8, addend: 0x0, symName: '__ZN3syn3gen5clone71_$LT$impl$u20$core..clone..Clone$u20$for$u20$syn..item..ForeignItem$GT$5clone17hee3f13bdccecaf04E', symObjAddr: 0x23290, symBinAddr: 0x6F430, symSize: 0x2A0 }
  - { offsetInCU: 0x2AB77, offset: 0x25FE4F, size: 0x8, addend: 0x0, symName: '__ZN3syn3gen5clone77_$LT$impl$u20$core..clone..Clone$u20$for$u20$syn..item..ForeignItemStatic$GT$5clone17h1c013599a1b7e0d2E', symObjAddr: 0x23620, symBinAddr: 0x6F6D0, symSize: 0x1E0 }
  - { offsetInCU: 0x2B018, offset: 0x2602F0, size: 0x8, addend: 0x0, symName: '__ZN3syn3gen5clone75_$LT$impl$u20$core..clone..Clone$u20$for$u20$syn..item..ForeignItemType$GT$5clone17h39c42a7ed9f93bc7E', symObjAddr: 0x23800, symBinAddr: 0x6F8B0, symSize: 0x290 }
  - { offsetInCU: 0x2B359, offset: 0x260631, size: 0x8, addend: 0x0, symName: '__ZN3syn3gen5clone68_$LT$impl$u20$core..clone..Clone$u20$for$u20$syn..item..ImplItem$GT$5clone17hfcffd5bef6db6eefE', symObjAddr: 0x23A90, symBinAddr: 0x6FB40, symSize: 0x1E0 }
  - { offsetInCU: 0x2B69A, offset: 0x260972, size: 0x8, addend: 0x0, symName: '__ZN3syn3gen5clone73_$LT$impl$u20$core..clone..Clone$u20$for$u20$syn..item..ImplItemConst$GT$5clone17hcba22f66f4790359E', symObjAddr: 0x23C70, symBinAddr: 0x6FD20, symSize: 0x3C0 }
  - { offsetInCU: 0x2BA58, offset: 0x260D30, size: 0x8, addend: 0x0, symName: '__ZN3syn3gen5clone70_$LT$impl$u20$core..clone..Clone$u20$for$u20$syn..item..ImplItemFn$GT$5clone17hfa99a17b751a231eE', symObjAddr: 0x24030, symBinAddr: 0x700E0, symSize: 0x170 }
  - { offsetInCU: 0x2BB05, offset: 0x260DDD, size: 0x8, addend: 0x0, symName: '__ZN3syn3gen5clone72_$LT$impl$u20$core..clone..Clone$u20$for$u20$syn..item..ImplItemType$GT$5clone17h0cbe501e4ceb9fa6E', symObjAddr: 0x24230, symBinAddr: 0x70250, symSize: 0x360 }
  - { offsetInCU: 0x2BEBA, offset: 0x261192, size: 0x8, addend: 0x0, symName: '__ZN3syn3gen5clone64_$LT$impl$u20$core..clone..Clone$u20$for$u20$syn..item..Item$GT$5clone17h88393b98a180baddE', symObjAddr: 0x24590, symBinAddr: 0x705B0, symSize: 0x3C0 }
  - { offsetInCU: 0x2C40E, offset: 0x2616E6, size: 0x8, addend: 0x0, symName: '__ZN3syn3gen5clone69_$LT$impl$u20$core..clone..Clone$u20$for$u20$syn..item..ItemConst$GT$5clone17h625d5dfdf97f0db7E', symObjAddr: 0x24950, symBinAddr: 0x70970, symSize: 0x410 }
  - { offsetInCU: 0x2CBBA, offset: 0x261E92, size: 0x8, addend: 0x0, symName: '__ZN3syn3gen5clone68_$LT$impl$u20$core..clone..Clone$u20$for$u20$syn..item..ItemEnum$GT$5clone17hcbd28186f3af1a48E', symObjAddr: 0x24D60, symBinAddr: 0x70D80, symSize: 0x320 }
  - { offsetInCU: 0x2CEBE, offset: 0x262196, size: 0x8, addend: 0x0, symName: '__ZN3syn3gen5clone75_$LT$impl$u20$core..clone..Clone$u20$for$u20$syn..item..ItemExternCrate$GT$5clone17heae6e2f0373fe0bbE', symObjAddr: 0x25080, symBinAddr: 0x710A0, symSize: 0x1A0 }
  - { offsetInCU: 0x2D1D3, offset: 0x2624AB, size: 0x8, addend: 0x0, symName: '__ZN3syn3gen5clone66_$LT$impl$u20$core..clone..Clone$u20$for$u20$syn..item..ItemFn$GT$5clone17h4e6ff2347c0f748eE', symObjAddr: 0x25220, symBinAddr: 0x71240, symSize: 0x190 }
  - { offsetInCU: 0x2D46B, offset: 0x262743, size: 0x8, addend: 0x0, symName: '__ZN3syn3gen5clone68_$LT$impl$u20$core..clone..Clone$u20$for$u20$syn..item..ItemImpl$GT$5clone17hd2b1c2db65c8a4ebE', symObjAddr: 0x25490, symBinAddr: 0x713D0, symSize: 0x470 }
  - { offsetInCU: 0x2D93E, offset: 0x262C16, size: 0x8, addend: 0x0, symName: '__ZN3syn3gen5clone69_$LT$impl$u20$core..clone..Clone$u20$for$u20$syn..item..ItemMacro$GT$5clone17h7d6f56f137cac903E', symObjAddr: 0x25900, symBinAddr: 0x71840, symSize: 0x120 }
  - { offsetInCU: 0x2DB7A, offset: 0x262E52, size: 0x8, addend: 0x0, symName: '__ZN3syn3gen5clone67_$LT$impl$u20$core..clone..Clone$u20$for$u20$syn..item..ItemMod$GT$5clone17h08b706d9debac69fE', symObjAddr: 0x25A20, symBinAddr: 0x71960, symSize: 0x200 }
  - { offsetInCU: 0x2DE41, offset: 0x263119, size: 0x8, addend: 0x0, symName: '__ZN3syn3gen5clone70_$LT$impl$u20$core..clone..Clone$u20$for$u20$syn..item..ItemStatic$GT$5clone17h7d89c79988a48493E', symObjAddr: 0x25C20, symBinAddr: 0x71B60, symSize: 0x290 }
  - { offsetInCU: 0x2E512, offset: 0x2637EA, size: 0x8, addend: 0x0, symName: '__ZN3syn3gen5clone70_$LT$impl$u20$core..clone..Clone$u20$for$u20$syn..item..ItemStruct$GT$5clone17h25082ded106363f3E', symObjAddr: 0x25EB0, symBinAddr: 0x71DF0, symSize: 0x3D0 }
  - { offsetInCU: 0x2E927, offset: 0x263BFF, size: 0x8, addend: 0x0, symName: '__ZN3syn3gen5clone69_$LT$impl$u20$core..clone..Clone$u20$for$u20$syn..item..ItemTrait$GT$5clone17ha34a4241e37415ecE', symObjAddr: 0x26280, symBinAddr: 0x721C0, symSize: 0x3E0 }
  - { offsetInCU: 0x2ECB7, offset: 0x263F8F, size: 0x8, addend: 0x0, symName: '__ZN3syn3gen5clone74_$LT$impl$u20$core..clone..Clone$u20$for$u20$syn..item..ItemTraitAlias$GT$5clone17hef59f8a644aff956E', symObjAddr: 0x26660, symBinAddr: 0x725A0, symSize: 0x320 }
  - { offsetInCU: 0x2F017, offset: 0x2642EF, size: 0x8, addend: 0x0, symName: '__ZN3syn3gen5clone68_$LT$impl$u20$core..clone..Clone$u20$for$u20$syn..item..ItemType$GT$5clone17h2cc3a1af26227a5bE', symObjAddr: 0x26980, symBinAddr: 0x728C0, symSize: 0x350 }
  - { offsetInCU: 0x2F593, offset: 0x26486B, size: 0x8, addend: 0x0, symName: '__ZN3syn3gen5clone69_$LT$impl$u20$core..clone..Clone$u20$for$u20$syn..item..ItemUnion$GT$5clone17h9499aeac8cc94731E', symObjAddr: 0x26CD0, symBinAddr: 0x72C10, symSize: 0x340 }
  - { offsetInCU: 0x2F8E1, offset: 0x264BB9, size: 0x8, addend: 0x0, symName: '__ZN3syn3gen5clone67_$LT$impl$u20$core..clone..Clone$u20$for$u20$syn..item..ItemUse$GT$5clone17h83cf32ef390bdd8aE', symObjAddr: 0x27010, symBinAddr: 0x72F50, symSize: 0x130 }
  - { offsetInCU: 0x2F9A1, offset: 0x264C79, size: 0x8, addend: 0x0, symName: '__ZN3syn3gen5clone68_$LT$impl$u20$core..clone..Clone$u20$for$u20$syn..item..Receiver$GT$5clone17h3f91689b2c338982E', symObjAddr: 0x27140, symBinAddr: 0x73080, symSize: 0x1B0 }
  - { offsetInCU: 0x2FDB6, offset: 0x26508E, size: 0x8, addend: 0x0, symName: '__ZN3syn3gen5clone69_$LT$impl$u20$core..clone..Clone$u20$for$u20$syn..item..Signature$GT$5clone17hf28c97c0572e4c68E', symObjAddr: 0x272F0, symBinAddr: 0x73230, symSize: 0x5A0 }
  - { offsetInCU: 0x3056E, offset: 0x265846, size: 0x8, addend: 0x0, symName: '__ZN3syn3gen5clone69_$LT$impl$u20$core..clone..Clone$u20$for$u20$syn..item..TraitItem$GT$5clone17hd22c218447a047bfE', symObjAddr: 0x27890, symBinAddr: 0x737D0, symSize: 0x1E0 }
  - { offsetInCU: 0x308AF, offset: 0x265B87, size: 0x8, addend: 0x0, symName: '__ZN3syn3gen5clone74_$LT$impl$u20$core..clone..Clone$u20$for$u20$syn..item..TraitItemConst$GT$5clone17he22a2ce3bf5c1704E', symObjAddr: 0x27A70, symBinAddr: 0x739B0, symSize: 0x370 }
  - { offsetInCU: 0x30C77, offset: 0x265F4F, size: 0x8, addend: 0x0, symName: '__ZN3syn3gen5clone71_$LT$impl$u20$core..clone..Clone$u20$for$u20$syn..item..TraitItemFn$GT$5clone17h7ac8fc7a77eb5240E', symObjAddr: 0x27DE0, symBinAddr: 0x73D20, symSize: 0x150 }
  - { offsetInCU: 0x30D69, offset: 0x266041, size: 0x8, addend: 0x0, symName: '__ZN3syn3gen5clone73_$LT$impl$u20$core..clone..Clone$u20$for$u20$syn..item..TraitItemType$GT$5clone17h83742b5ed183cb22E', symObjAddr: 0x27F30, symBinAddr: 0x73E70, symSize: 0x390 }
  - { offsetInCU: 0x31128, offset: 0x266400, size: 0x8, addend: 0x0, symName: '__ZN3syn3gen5clone68_$LT$impl$u20$core..clone..Clone$u20$for$u20$syn..item..Variadic$GT$5clone17h397fcedc25d54663E', symObjAddr: 0x287E0, symBinAddr: 0x744A0, symSize: 0x110 }
  - { offsetInCU: 0x33B6D, offset: 0x268E45, size: 0x8, addend: 0x0, symName: '__ZN4core3ptr100drop_in_place$LT$core..option..Option$LT$alloc..boxed..Box$LT$syn..path..GenericArgument$GT$$GT$$GT$17h3a7c44b9e57fe410E', symObjAddr: 0x6C0, symBinAddr: 0x54830, symSize: 0x50 }
  - { offsetInCU: 0x33E8F, offset: 0x269167, size: 0x8, addend: 0x0, symName: '__ZN4core3ptr100drop_in_place$LT$syn..punctuated..Punctuated$LT$syn..path..PathSegment$C$syn..token..PathSep$GT$$GT$17he41ef64147139591E', symObjAddr: 0x710, symBinAddr: 0x54880, symSize: 0x2B0 }
  - { offsetInCU: 0x34945, offset: 0x269C1D, size: 0x8, addend: 0x0, symName: '__ZN4core3ptr103drop_in_place$LT$core..option..Option$LT$alloc..boxed..Box$LT$syn..generics..TypeParamBound$GT$$GT$$GT$17hb14e4384a768542bE', symObjAddr: 0x9C0, symBinAddr: 0x54B30, symSize: 0x50 }
  - { offsetInCU: 0x34B8E, offset: 0x269E66, size: 0x8, addend: 0x0, symName: '__ZN4core3ptr103drop_in_place$LT$core..option..Option$LT$alloc..boxed..Box$LT$syn..generics..WherePredicate$GT$$GT$$GT$17he190813f4819c5dbE', symObjAddr: 0xA10, symBinAddr: 0x54B80, symSize: 0xD0 }
  - { offsetInCU: 0x34F22, offset: 0x26A1FA, size: 0x8, addend: 0x0, symName: '__ZN4core3ptr103drop_in_place$LT$syn..punctuated..Punctuated$LT$syn..generics..GenericParam$C$syn..token..Comma$GT$$GT$17h0c6077a988036760E', symObjAddr: 0xAE0, symBinAddr: 0x54C50, symSize: 0xF0 }
  - { offsetInCU: 0x353C0, offset: 0x26A698, size: 0x8, addend: 0x0, symName: '__ZN4core3ptr104drop_in_place$LT$syn..punctuated..Punctuated$LT$syn..generics..TypeParamBound$C$syn..token..Plus$GT$$GT$17h724e4d9d1d65061aE', symObjAddr: 0xBD0, symBinAddr: 0x54D40, symSize: 0x190 }
  - { offsetInCU: 0x35A02, offset: 0x26ACDA, size: 0x8, addend: 0x0, symName: '__ZN4core3ptr107drop_in_place$LT$$LP$syn..restriction..Visibility$C$core..option..Option$LT$syn..token..Default$GT$$RP$$GT$17h7dbdeb5ac6957065E', symObjAddr: 0xD60, symBinAddr: 0x54ED0, symSize: 0x60 }
  - { offsetInCU: 0x35BBF, offset: 0x26AE97, size: 0x8, addend: 0x0, symName: '__ZN4core3ptr115drop_in_place$LT$core..option..Option$LT$$LP$alloc..boxed..Box$LT$syn..pat..Pat$GT$$C$syn..token..Colon$RP$$GT$$GT$17h787822396d5dcd7bE', symObjAddr: 0xDC0, symBinAddr: 0x54F30, symSize: 0x50 }
  - { offsetInCU: 0x35D91, offset: 0x26B069, size: 0x8, addend: 0x0, symName: '__ZN4core3ptr115drop_in_place$LT$core..option..Option$LT$$LP$syn..token..Brace$C$alloc..vec..Vec$LT$syn..item..Item$GT$$RP$$GT$$GT$17h4f61046186bbd7c9E', symObjAddr: 0xE10, symBinAddr: 0x54F80, symSize: 0xD0 }
  - { offsetInCU: 0x360A8, offset: 0x26B380, size: 0x8, addend: 0x0, symName: '__ZN4core3ptr126drop_in_place$LT$core..option..Option$LT$$LP$syn..token..And$C$core..option..Option$LT$syn..lifetime..Lifetime$GT$$RP$$GT$$GT$17h45c5d73e12cdf6f0E', symObjAddr: 0xEE0, symBinAddr: 0x55050, symSize: 0x30 }
  - { offsetInCU: 0x36356, offset: 0x26B62E, size: 0x8, addend: 0x0, symName: '__ZN4core3ptr34drop_in_place$LT$syn..lit..Lit$GT$17hd64dde89a262341dE', symObjAddr: 0xF90, symBinAddr: 0x55080, symSize: 0x120 }
  - { offsetInCU: 0x36825, offset: 0x26BAFD, size: 0x8, addend: 0x0, symName: '__ZN4core3ptr34drop_in_place$LT$syn..pat..Pat$GT$17hf88887878261d63cE', symObjAddr: 0x10B0, symBinAddr: 0x551A0, symSize: 0x1100 }
  - { offsetInCU: 0x3AE03, offset: 0x2700DB, size: 0x8, addend: 0x0, symName: '__ZN4core3ptr34drop_in_place$LT$syn..ty..Type$GT$17ha80dd29b0f9d4a3fE', symObjAddr: 0x21B0, symBinAddr: 0x562A0, symSize: 0x510 }
  - { offsetInCU: 0x3C47B, offset: 0x271753, size: 0x8, addend: 0x0, symName: '__ZN4core3ptr36drop_in_place$LT$syn..expr..Expr$GT$17h10f573b40ddd212cE', symObjAddr: 0x26C0, symBinAddr: 0x567B0, symSize: 0x2840 }
  - { offsetInCU: 0x46996, offset: 0x27BC6E, size: 0x8, addend: 0x0, symName: '__ZN4core3ptr36drop_in_place$LT$syn..item..Item$GT$17haa59cf9e39ab8cebE', symObjAddr: 0x4F00, symBinAddr: 0x58FF0, symSize: 0x1940 }
  - { offsetInCU: 0x4CD59, offset: 0x282031, size: 0x8, addend: 0x0, symName: '__ZN4core3ptr36drop_in_place$LT$syn..mac..Macro$GT$17hc3b30a7a8a34cc2dE', symObjAddr: 0x6840, symBinAddr: 0x5A930, symSize: 0x40 }
  - { offsetInCU: 0x4CD93, offset: 0x28206B, size: 0x8, addend: 0x0, symName: '__ZN4core3ptr36drop_in_place$LT$syn..path..Path$GT$17h75c74a97d5f0a03bE', symObjAddr: 0x6880, symBinAddr: 0x5A970, symSize: 0x280 }
  - { offsetInCU: 0x4D840, offset: 0x282B18, size: 0x8, addend: 0x0, symName: '__ZN4core3ptr37drop_in_place$LT$syn..stmt..Block$GT$17h6fc3254d5688f2c3E', symObjAddr: 0x6B00, symBinAddr: 0x5ABF0, symSize: 0xD0 }
  - { offsetInCU: 0x4DB36, offset: 0x282E0E, size: 0x8, addend: 0x0, symName: '__ZN4core3ptr38drop_in_place$LT$syn..data..Fields$GT$17h79840861dd1f691dE', symObjAddr: 0x6BD0, symBinAddr: 0x5ACC0, symSize: 0x190 }
  - { offsetInCU: 0x4DF80, offset: 0x283258, size: 0x8, addend: 0x0, symName: '__ZN4core3ptr38drop_in_place$LT$syn..expr..Member$GT$17h6b0cf84594ce6bceE', symObjAddr: 0x6D60, symBinAddr: 0x5AE50, symSize: 0x30 }
  - { offsetInCU: 0x4E07C, offset: 0x283354, size: 0x8, addend: 0x0, symName: '__ZN4core3ptr38drop_in_place$LT$syn..pat..PatType$GT$17h835dce85ba90235eE.llvm.18308377727791997679', symObjAddr: 0x6D90, symBinAddr: 0x5AE80, symSize: 0x140 }
  - { offsetInCU: 0x4E627, offset: 0x2838FF, size: 0x8, addend: 0x0, symName: '__ZN4core3ptr39drop_in_place$LT$proc_macro2..Ident$GT$17ha28fef9769e267d9E', symObjAddr: 0x6ED0, symBinAddr: 0x5AFC0, symSize: 0x30 }
  - { offsetInCU: 0x4E780, offset: 0x283A58, size: 0x8, addend: 0x0, symName: '__ZN4core3ptr39drop_in_place$LT$syn..item..UseTree$GT$17h7288572c631f954aE', symObjAddr: 0x6F70, symBinAddr: 0x5AFF0, symSize: 0xE0 }
  - { offsetInCU: 0x4EB84, offset: 0x283E5C, size: 0x8, addend: 0x0, symName: '__ZN4core3ptr40drop_in_place$LT$syn..item..ImplItem$GT$17h98907b2080b0ccb0E', symObjAddr: 0x7050, symBinAddr: 0x5B0D0, symSize: 0x4D0 }
  - { offsetInCU: 0x4F9B8, offset: 0x284C90, size: 0x8, addend: 0x0, symName: '__ZN4core3ptr40drop_in_place$LT$syn..item..Receiver$GT$17h5e68a437c3b8e574E.llvm.18308377727791997679', symObjAddr: 0x7520, symBinAddr: 0x5B5A0, symSize: 0x130 }
  - { offsetInCU: 0x4FFA3, offset: 0x28527B, size: 0x8, addend: 0x0, symName: '__ZN4core3ptr40drop_in_place$LT$syn..item..Variadic$GT$17hf9d4ebdb0f5e723aE', symObjAddr: 0x7660, symBinAddr: 0x5B6D0, symSize: 0x120 }
  - { offsetInCU: 0x50428, offset: 0x285700, size: 0x8, addend: 0x0, symName: '__ZN4core3ptr40drop_in_place$LT$syn..ty..ReturnType$GT$17h035a612e322b6510E', symObjAddr: 0x7780, symBinAddr: 0x5B7F0, symSize: 0x50 }
  - { offsetInCU: 0x50598, offset: 0x285870, size: 0x8, addend: 0x0, symName: '__ZN4core3ptr41drop_in_place$LT$syn..expr..ExprConst$GT$17hbfe19d5d621e6836E', symObjAddr: 0x77D0, symBinAddr: 0x5B840, symSize: 0x180 }
  - { offsetInCU: 0x50BA4, offset: 0x285E7C, size: 0x8, addend: 0x0, symName: '__ZN4core3ptr41drop_in_place$LT$syn..item..Signature$GT$17h41f785211ad8eb02E', symObjAddr: 0x7950, symBinAddr: 0x5B9C0, symSize: 0x180 }
  - { offsetInCU: 0x51294, offset: 0x28656C, size: 0x8, addend: 0x0, symName: '__ZN4core3ptr41drop_in_place$LT$syn..item..TraitItem$GT$17hc74edaa948c160a2E', symObjAddr: 0x7AD0, symBinAddr: 0x5BB40, symSize: 0x5F0 }
  - { offsetInCU: 0x52484, offset: 0x28775C, size: 0x8, addend: 0x0, symName: '__ZN4core3ptr42drop_in_place$LT$syn..item..ImplItemFn$GT$17haf8f89161f0a8aa1E', symObjAddr: 0x8110, symBinAddr: 0x5C130, symSize: 0x200 }
  - { offsetInCU: 0x52BEC, offset: 0x287EC4, size: 0x8, addend: 0x0, symName: '__ZN4core3ptr43drop_in_place$LT$syn..data..FieldsNamed$GT$17h56bef6f151514865E', symObjAddr: 0x8310, symBinAddr: 0x5C330, symSize: 0xE0 }
  - { offsetInCU: 0x52F8E, offset: 0x288266, size: 0x8, addend: 0x0, symName: '__ZN4core3ptr43drop_in_place$LT$syn..item..ForeignItem$GT$17h8033abfc56dac52fE', symObjAddr: 0x83F0, symBinAddr: 0x5C410, symSize: 0x520 }
  - { offsetInCU: 0x5433A, offset: 0x289612, size: 0x8, addend: 0x0, symName: '__ZN4core3ptr44drop_in_place$LT$syn..generics..Generics$GT$17h671de917167f8b66E', symObjAddr: 0x8910, symBinAddr: 0x5C930, symSize: 0x40 }
  - { offsetInCU: 0x54357, offset: 0x28962F, size: 0x8, addend: 0x0, symName: '__ZN4core3ptr44drop_in_place$LT$syn..lifetime..Lifetime$GT$17he37fa474f03de7b1E', symObjAddr: 0x8950, symBinAddr: 0x5C970, symSize: 0x30 }
  - { offsetInCU: 0x544CF, offset: 0x2897A7, size: 0x8, addend: 0x0, symName: '__ZN4core3ptr44drop_in_place$LT$syn..parse..ParseBuffer$GT$17hf792ff20095efc35E.llvm.18308377727791997679', symObjAddr: 0x8980, symBinAddr: 0x5C9A0, symSize: 0x70 }
  - { offsetInCU: 0x548E6, offset: 0x289BBE, size: 0x8, addend: 0x0, symName: '__ZN4core3ptr45drop_in_place$LT$proc_macro2..TokenStream$GT$17h76e8e68015f4924dE', symObjAddr: 0x89F0, symBinAddr: 0x5CA10, symSize: 0x140 }
  - { offsetInCU: 0x54D80, offset: 0x28A058, size: 0x8, addend: 0x0, symName: '__ZN4core3ptr45drop_in_place$LT$syn..generics..TypeParam$GT$17h188a459c1380ac75E', symObjAddr: 0x8B30, symBinAddr: 0x5CB50, symSize: 0x230 }
  - { offsetInCU: 0x555F5, offset: 0x28A8CD, size: 0x8, addend: 0x0, symName: '__ZN4core3ptr46drop_in_place$LT$syn..generics..ConstParam$GT$17h7a9b900b2b88bfcdE', symObjAddr: 0x8D60, symBinAddr: 0x5CD80, symSize: 0x150 }
  - { offsetInCU: 0x55A76, offset: 0x28AD4E, size: 0x8, addend: 0x0, symName: '__ZN4core3ptr47drop_in_place$LT$syn..path..GenericArgument$GT$17h593f06d6ca9a94d2E', symObjAddr: 0x8EB0, symBinAddr: 0x5CED0, symSize: 0x4A0 }
  - { offsetInCU: 0x56B7C, offset: 0x28BE54, size: 0x8, addend: 0x0, symName: '__ZN4core3ptr49drop_in_place$LT$syn..generics..LifetimeParam$GT$17h3a8835ab294bfd16E', symObjAddr: 0x9350, symBinAddr: 0x5D370, symSize: 0xF0 }
  - { offsetInCU: 0x56F93, offset: 0x28C26B, size: 0x8, addend: 0x0, symName: '__ZN4core3ptr49drop_in_place$LT$syn..restriction..Visibility$GT$17h3e52b998838defb1E', symObjAddr: 0x9440, symBinAddr: 0x5D460, symSize: 0x60 }
  - { offsetInCU: 0x57108, offset: 0x28C3E0, size: 0x8, addend: 0x0, symName: '__ZN4core3ptr50drop_in_place$LT$syn..generics..TypeParamBound$GT$17h81b4325b5900604dE', symObjAddr: 0x94A0, symBinAddr: 0x5D4C0, symSize: 0x1C0 }
  - { offsetInCU: 0x57684, offset: 0x28C95C, size: 0x8, addend: 0x0, symName: '__ZN4core3ptr58drop_in_place$LT$alloc..vec..Vec$LT$syn..expr..Arm$GT$$GT$17hff9224aadf2233b8E', symObjAddr: 0x96A0, symBinAddr: 0x5D680, symSize: 0xD0 }
  - { offsetInCU: 0x57944, offset: 0x28CC1C, size: 0x8, addend: 0x0, symName: '__ZN4core3ptr59drop_in_place$LT$alloc..boxed..Box$LT$syn..pat..Pat$GT$$GT$17h622b0c1db21c0742E', symObjAddr: 0x9770, symBinAddr: 0x5D750, symSize: 0x50 }
  - { offsetInCU: 0x57A9D, offset: 0x28CD75, size: 0x8, addend: 0x0, symName: '__ZN4core3ptr59drop_in_place$LT$alloc..boxed..Box$LT$syn..ty..Type$GT$$GT$17hde45fa887dd8b605E', symObjAddr: 0x97C0, symBinAddr: 0x5D7A0, symSize: 0x50 }
  - { offsetInCU: 0x57BF6, offset: 0x28CECE, size: 0x8, addend: 0x0, symName: '__ZN4core3ptr59drop_in_place$LT$alloc..vec..Vec$LT$syn..item..Item$GT$$GT$17h8590e8c8e196c3c2E', symObjAddr: 0x9810, symBinAddr: 0x5D7F0, symSize: 0xD0 }
  - { offsetInCU: 0x57EB6, offset: 0x28D18E, size: 0x8, addend: 0x0, symName: '__ZN4core3ptr59drop_in_place$LT$alloc..vec..Vec$LT$syn..stmt..Stmt$GT$$GT$17h6cf3e54f41bc03bdE', symObjAddr: 0x98E0, symBinAddr: 0x5D8C0, symSize: 0xD0 }
  - { offsetInCU: 0x58176, offset: 0x28D44E, size: 0x8, addend: 0x0, symName: '__ZN4core3ptr61drop_in_place$LT$alloc..boxed..Box$LT$syn..expr..Expr$GT$$GT$17hbb42293869113942E', symObjAddr: 0x99B0, symBinAddr: 0x5D990, symSize: 0x50 }
  - { offsetInCU: 0x5834B, offset: 0x28D623, size: 0x8, addend: 0x0, symName: '__ZN4core3ptr61drop_in_place$LT$syn..path..ParenthesizedGenericArguments$GT$17h6b1731382637937fE', symObjAddr: 0x9A70, symBinAddr: 0x5D9E0, symSize: 0x170 }
  - { offsetInCU: 0x58941, offset: 0x28DC19, size: 0x8, addend: 0x0, symName: '__ZN4core3ptr62drop_in_place$LT$alloc..boxed..Box$LT$syn..stmt..Block$GT$$GT$17h21dcb5adf0237a12E', symObjAddr: 0x9BE0, symBinAddr: 0x5DB50, symSize: 0xE0 }
  - { offsetInCU: 0x58D53, offset: 0x28E02B, size: 0x8, addend: 0x0, symName: '__ZN4core3ptr62drop_in_place$LT$syn..path..AngleBracketedGenericArguments$GT$17hf8fa172f007a1473E', symObjAddr: 0x9CC0, symBinAddr: 0x5DC30, symSize: 0x120 }
  - { offsetInCU: 0x5919E, offset: 0x28E476, size: 0x8, addend: 0x0, symName: '__ZN4core3ptr63drop_in_place$LT$alloc..boxed..Box$LT$syn..lit..LitRepr$GT$$GT$17h6e3a82ea4de7b84cE', symObjAddr: 0x9DE0, symBinAddr: 0x5DD50, symSize: 0x60 }
  - { offsetInCU: 0x59467, offset: 0x28E73F, size: 0x8, addend: 0x0, symName: '__ZN4core3ptr63drop_in_place$LT$alloc..vec..Vec$LT$syn..item..ImplItem$GT$$GT$17hc51fca07e67d35aeE', symObjAddr: 0x9E40, symBinAddr: 0x5DDB0, symSize: 0x80 }
  - { offsetInCU: 0x5973E, offset: 0x28EA16, size: 0x8, addend: 0x0, symName: '__ZN4core3ptr64drop_in_place$LT$alloc..boxed..Box$LT$syn..item..UseTree$GT$$GT$17he4d7024582150632E', symObjAddr: 0x9EC0, symBinAddr: 0x5DE30, symSize: 0xF0 }
  - { offsetInCU: 0x59C59, offset: 0x28EF31, size: 0x8, addend: 0x0, symName: '__ZN4core3ptr64drop_in_place$LT$alloc..boxed..Box$LT$syn..pat..FieldPat$GT$$GT$17hbf8f4867d84bd25dE', symObjAddr: 0x9FB0, symBinAddr: 0x5DF20, symSize: 0x140 }
  - { offsetInCU: 0x5A35A, offset: 0x28F632, size: 0x8, addend: 0x0, symName: '__ZN4core3ptr64drop_in_place$LT$alloc..boxed..Box$LT$syn..ty..BareFnArg$GT$$GT$17h6be6354eb1d1364dE', symObjAddr: 0xA0F0, symBinAddr: 0x5E060, symSize: 0x140 }
  - { offsetInCU: 0x5A8E3, offset: 0x28FBBB, size: 0x8, addend: 0x0, symName: '__ZN4core3ptr64drop_in_place$LT$alloc..vec..Vec$LT$syn..attr..Attribute$GT$$GT$17he33e25539d5885aeE', symObjAddr: 0xA230, symBinAddr: 0x5E1A0, symSize: 0xD0 }
  - { offsetInCU: 0x5ABD7, offset: 0x28FEAF, size: 0x8, addend: 0x0, symName: '__ZN4core3ptr64drop_in_place$LT$alloc..vec..Vec$LT$syn..item..TraitItem$GT$$GT$17hff1cc01ccae80d7aE', symObjAddr: 0xA300, symBinAddr: 0x5E270, symSize: 0x80 }
  - { offsetInCU: 0x5AE8F, offset: 0x290167, size: 0x8, addend: 0x0, symName: '__ZN4core3ptr65drop_in_place$LT$alloc..vec..Vec$LT$proc_macro..TokenTree$GT$$GT$17h8abd81f8596dbc59E', symObjAddr: 0xA380, symBinAddr: 0x5E2F0, symSize: 0x110 }
  - { offsetInCU: 0x5B287, offset: 0x29055F, size: 0x8, addend: 0x0, symName: '__ZN4core3ptr65drop_in_place$LT$core..option..Option$LT$syn..expr..Label$GT$$GT$17hac599686b33ef364E', symObjAddr: 0xA490, symBinAddr: 0x5E400, symSize: 0x30 }
  - { offsetInCU: 0x5B3C1, offset: 0x290699, size: 0x8, addend: 0x0, symName: '__ZN4core3ptr65drop_in_place$LT$core..option..Option$LT$syn..stmt..Block$GT$$GT$17h74f2551ed24e2d27E', symObjAddr: 0xA4C0, symBinAddr: 0x5E430, symSize: 0xD0 }
  - { offsetInCU: 0x5B696, offset: 0x29096E, size: 0x8, addend: 0x0, symName: '__ZN4core3ptr66drop_in_place$LT$alloc..vec..Vec$LT$syn..item..ForeignItem$GT$$GT$17h1f176e04eaf5e0dfE', symObjAddr: 0xA590, symBinAddr: 0x5E500, symSize: 0x80 }
  - { offsetInCU: 0x5B94E, offset: 0x290C26, size: 0x8, addend: 0x0, symName: '__ZN4core3ptr66drop_in_place$LT$core..option..Option$LT$syn..pat..PatRest$GT$$GT$17hd5bb3bc28aa78ac1E', symObjAddr: 0xA610, symBinAddr: 0x5E580, symSize: 0xE0 }
  - { offsetInCU: 0x5BC76, offset: 0x290F4E, size: 0x8, addend: 0x0, symName: '__ZN4core3ptr67drop_in_place$LT$alloc..boxed..Box$LT$syn..expr..FieldValue$GT$$GT$17hbbcf67a9d5e9863cE', symObjAddr: 0xA6F0, symBinAddr: 0x5E660, symSize: 0x140 }
  - { offsetInCU: 0x5C1DF, offset: 0x2914B7, size: 0x8, addend: 0x0, symName: '__ZN4core3ptr67drop_in_place$LT$core..option..Option$LT$proc_macro2..Ident$GT$$GT$17h430b2bec25099623E', symObjAddr: 0xA830, symBinAddr: 0x5E7A0, symSize: 0x30 }
  - { offsetInCU: 0x5C2DB, offset: 0x2915B3, size: 0x8, addend: 0x0, symName: '__ZN4core3ptr68drop_in_place$LT$alloc..boxed..Box$LT$syn..path..PathSegment$GT$$GT$17h99aaf90b3262bc1eE', symObjAddr: 0xA860, symBinAddr: 0x5E7D0, symSize: 0x1B0 }
  - { offsetInCU: 0x5C9E9, offset: 0x291CC1, size: 0x8, addend: 0x0, symName: '__ZN4core3ptr70drop_in_place$LT$core..option..Option$LT$syn..ty..BareVariadic$GT$$GT$17h79a19250e9f043b1E', symObjAddr: 0xAA30, symBinAddr: 0x5E980, symSize: 0x100 }
  - { offsetInCU: 0x5CE54, offset: 0x29212C, size: 0x8, addend: 0x0, symName: '__ZN4core3ptr72drop_in_place$LT$alloc..boxed..Box$LT$syn..path..GenericArgument$GT$$GT$17hfd308d374af4273dE', symObjAddr: 0xAB30, symBinAddr: 0x5EA80, symSize: 0x1D0 }
  - { offsetInCU: 0x5D3EF, offset: 0x2926C7, size: 0x8, addend: 0x0, symName: '__ZN4core3ptr72drop_in_place$LT$core..option..Option$LT$syn..lifetime..Lifetime$GT$$GT$17h49cce6f02f9c0590E', symObjAddr: 0xAD00, symBinAddr: 0x5EC50, symSize: 0x30 }
  - { offsetInCU: 0x5D50A, offset: 0x2927E2, size: 0x8, addend: 0x0, symName: '__ZN4core3ptr73drop_in_place$LT$alloc..boxed..Box$LT$syn..generics..GenericParam$GT$$GT$17ha26d5d145af4b203E', symObjAddr: 0xAD30, symBinAddr: 0x5EC80, symSize: 0x80 }
  - { offsetInCU: 0x5D680, offset: 0x292958, size: 0x8, addend: 0x0, symName: '__ZN4core3ptr75drop_in_place$LT$alloc..boxed..Box$LT$syn..generics..TypeParamBound$GT$$GT$17h129a4e927e5eb81bE', symObjAddr: 0xADB0, symBinAddr: 0x5ED00, symSize: 0xC0 }
  - { offsetInCU: 0x5D9F3, offset: 0x292CCB, size: 0x8, addend: 0x0, symName: '__ZN4core3ptr75drop_in_place$LT$core..option..Option$LT$syn..generics..WhereClause$GT$$GT$17haaf63f327098cdccE', symObjAddr: 0xAE70, symBinAddr: 0x5EDC0, symSize: 0x90 }
  - { offsetInCU: 0x5DCE7, offset: 0x292FBF, size: 0x8, addend: 0x0, symName: '__ZN4core3ptr86drop_in_place$LT$syn..punctuated..Punctuated$LT$syn..pat..Pat$C$syn..token..Or$GT$$GT$17h9cc6b5f7b6d3a555E', symObjAddr: 0xAF00, symBinAddr: 0x5EE50, symSize: 0x120 }
  - { offsetInCU: 0x5E162, offset: 0x29343A, size: 0x8, addend: 0x0, symName: '__ZN4core3ptr87drop_in_place$LT$core..option..Option$LT$alloc..boxed..Box$LT$syn..pat..Pat$GT$$GT$$GT$17h51cd48973d96c411E', symObjAddr: 0xB040, symBinAddr: 0x5EF70, symSize: 0x50 }
  - { offsetInCU: 0x5E2D2, offset: 0x2935AA, size: 0x8, addend: 0x0, symName: '__ZN4core3ptr87drop_in_place$LT$core..option..Option$LT$alloc..boxed..Box$LT$syn..ty..Type$GT$$GT$$GT$17h103a25a4a7d7374eE', symObjAddr: 0xB090, symBinAddr: 0x5EFC0, symSize: 0x50 }
  - { offsetInCU: 0x5E442, offset: 0x29371A, size: 0x8, addend: 0x0, symName: '__ZN4core3ptr89drop_in_place$LT$core..option..Option$LT$alloc..boxed..Box$LT$syn..expr..Expr$GT$$GT$$GT$17h9e02509cb2345d44E', symObjAddr: 0xB100, symBinAddr: 0x5F010, symSize: 0x50 }
  - { offsetInCU: 0x5E5F0, offset: 0x2938C8, size: 0x8, addend: 0x0, symName: '__ZN4core3ptr89drop_in_place$LT$syn..punctuated..Punctuated$LT$syn..pat..Pat$C$syn..token..Comma$GT$$GT$17hd3a83c36827f210aE', symObjAddr: 0xB150, symBinAddr: 0x5F060, symSize: 0x120 }
  - { offsetInCU: 0x5EA82, offset: 0x293D5A, size: 0x8, addend: 0x0, symName: '__ZN4core3ptr89drop_in_place$LT$syn..punctuated..Punctuated$LT$syn..ty..Type$C$syn..token..Comma$GT$$GT$17he030c4b7f24a5848E', symObjAddr: 0xB270, symBinAddr: 0x5F180, symSize: 0x120 }
  - { offsetInCU: 0x5EF3B, offset: 0x294213, size: 0x8, addend: 0x0, symName: '__ZN4core3ptr90drop_in_place$LT$core..option..Option$LT$alloc..boxed..Box$LT$syn..data..Field$GT$$GT$$GT$17h9f1aee8cd56c6727E', symObjAddr: 0xB390, symBinAddr: 0x5F2A0, symSize: 0x1B0 }
  - { offsetInCU: 0x5F636, offset: 0x29490E, size: 0x8, addend: 0x0, symName: '__ZN4core3ptr90drop_in_place$LT$core..option..Option$LT$alloc..boxed..Box$LT$syn..item..FnArg$GT$$GT$$GT$17h8635495a730dc0bfE', symObjAddr: 0xB540, symBinAddr: 0x5F450, symSize: 0x70 }
  - { offsetInCU: 0x5F7B0, offset: 0x294A88, size: 0x8, addend: 0x0, symName: '__ZN4core3ptr90drop_in_place$LT$core..option..Option$LT$syn..path..AngleBracketedGenericArguments$GT$$GT$17ha307713a95a0671eE', symObjAddr: 0xB5B0, symBinAddr: 0x5F4C0, symSize: 0x130 }
  - { offsetInCU: 0x5FC52, offset: 0x294F2A, size: 0x8, addend: 0x0, symName: '__ZN4core3ptr91drop_in_place$LT$syn..punctuated..Punctuated$LT$syn..expr..Expr$C$syn..token..Comma$GT$$GT$17h6f261e8f470c81f2E', symObjAddr: 0xB6E0, symBinAddr: 0x5F5F0, symSize: 0x120 }
  - { offsetInCU: 0x600E0, offset: 0x2953B8, size: 0x8, addend: 0x0, symName: '__ZN4core3ptr92drop_in_place$LT$core..option..Option$LT$$LP$syn..token..As$C$proc_macro2..Ident$RP$$GT$$GT$17h12a88945917fa9dbE', symObjAddr: 0xB800, symBinAddr: 0x5F710, symSize: 0x30 }
  - { offsetInCU: 0x60239, offset: 0x295511, size: 0x8, addend: 0x0, symName: '__ZN4core3ptr92drop_in_place$LT$core..option..Option$LT$alloc..boxed..Box$LT$syn..data..Variant$GT$$GT$$GT$17hb65f9b5d99f448afE', symObjAddr: 0xB830, symBinAddr: 0x5F740, symSize: 0x170 }
  - { offsetInCU: 0x60865, offset: 0x295B3D, size: 0x8, addend: 0x0, symName: '__ZN4core3ptr92drop_in_place$LT$syn..punctuated..Punctuated$LT$syn..item..FnArg$C$syn..token..Comma$GT$$GT$17h7de33e77eabaea82E', symObjAddr: 0xB9A0, symBinAddr: 0x5F8B0, symSize: 0x140 }
  - { offsetInCU: 0x60CE2, offset: 0x295FBA, size: 0x8, addend: 0x0, symName: '__ZN4core3ptr94drop_in_place$LT$syn..punctuated..Punctuated$LT$syn..data..Variant$C$syn..token..Comma$GT$$GT$17h310cd79aba4529ccE', symObjAddr: 0xBAE0, symBinAddr: 0x5F9F0, symSize: 0xE0 }
  - { offsetInCU: 0x61042, offset: 0x29631A, size: 0x8, addend: 0x0, symName: '__ZN4core3ptr94drop_in_place$LT$syn..punctuated..Punctuated$LT$syn..item..UseTree$C$syn..token..Comma$GT$$GT$17h6236871345889df7E', symObjAddr: 0xBBC0, symBinAddr: 0x5FAD0, symSize: 0xF0 }
  - { offsetInCU: 0x61388, offset: 0x296660, size: 0x8, addend: 0x0, symName: '__ZN4core3ptr94drop_in_place$LT$syn..punctuated..Punctuated$LT$syn..pat..FieldPat$C$syn..token..Comma$GT$$GT$17h43ec25af986ef674E', symObjAddr: 0xBCB0, symBinAddr: 0x5FBC0, symSize: 0xF0 }
  - { offsetInCU: 0x61687, offset: 0x29695F, size: 0x8, addend: 0x0, symName: '__ZN4core3ptr94drop_in_place$LT$syn..punctuated..Punctuated$LT$syn..ty..BareFnArg$C$syn..token..Comma$GT$$GT$17h7ba4c699ee390ebaE', symObjAddr: 0xBDA0, symBinAddr: 0x5FCB0, symSize: 0xF0 }
  - { offsetInCU: 0x61988, offset: 0x296C60, size: 0x8, addend: 0x0, symName: '__ZN4core3ptr96drop_in_place$LT$core..option..Option$LT$alloc..boxed..Box$LT$syn..path..PathSegment$GT$$GT$$GT$17h5de12a5a0f9e9ef9E', symObjAddr: 0xBE90, symBinAddr: 0x5FDA0, symSize: 0xA0 }
  - { offsetInCU: 0x61C07, offset: 0x296EDF, size: 0x8, addend: 0x0, symName: '__ZN4core3ptr97drop_in_place$LT$syn..punctuated..Punctuated$LT$syn..expr..FieldValue$C$syn..token..Comma$GT$$GT$17hf58d0a9a09266ab3E', symObjAddr: 0xBF30, symBinAddr: 0x5FE40, symSize: 0xF0 }
  - { offsetInCU: 0x61F04, offset: 0x2971DC, size: 0x8, addend: 0x0, symName: '__ZN4core3ptr98drop_in_place$LT$alloc..vec..Vec$LT$$LP$syn..path..GenericArgument$C$syn..token..Comma$RP$$GT$$GT$17h0dee282a026d5a38E', symObjAddr: 0xC020, symBinAddr: 0x5FF30, symSize: 0xD0 }
  - { offsetInCU: 0x62244, offset: 0x29751C, size: 0x8, addend: 0x0, symName: '__ZN4core3ptr98drop_in_place$LT$syn..punctuated..Punctuated$LT$syn..lifetime..Lifetime$C$syn..token..Plus$GT$$GT$17h600c2b78f78fd2b9E', symObjAddr: 0xC0F0, symBinAddr: 0x60000, symSize: 0xD0 }
  - { offsetInCU: 0x68F81, offset: 0x29E259, size: 0x8, addend: 0x0, symName: '__ZN48_$LT$T$u20$as$u20$core..clone..CloneToUninit$GT$15clone_to_uninit17h4081700a47491491E', symObjAddr: 0x300, symBinAddr: 0x544D0, symSize: 0x360 }
  - { offsetInCU: 0x70277, offset: 0x2A554F, size: 0x8, addend: 0x0, symName: '__ZN5alloc3vec16Vec$LT$T$C$A$GT$15append_elements17h17d0f6dcdaba10bcE', symObjAddr: 0xC230, symBinAddr: 0x600D0, symSize: 0x70 }
  - { offsetInCU: 0x704CD, offset: 0x2A57A5, size: 0x8, addend: 0x0, symName: __ZN3syn4item4Item13replace_attrs17h0529b41fa0d8dba2E, symObjAddr: 0xCB80, symBinAddr: 0x60140, symSize: 0x190 }
  - { offsetInCU: 0x1E, offset: 0x2B3B5F, size: 0x8, addend: 0x0, symName: '__ZN4core3ptr100drop_in_place$LT$alloc..vec..Vec$LT$$LP$syn..generics..TypeParamBound$C$syn..token..Plus$RP$$GT$$GT$17hea181150e4b37806E.llvm.991277207215265740', symObjAddr: 0x0, symBinAddr: 0x745B0, symSize: 0xD0 }
  - { offsetInCU: 0x12A9, offset: 0x2B4DEA, size: 0x8, addend: 0x0, symName: '__ZN111_$LT$syn..punctuated..PrivateIter$LT$T$C$P$GT$$u20$as$u20$core..iter..traits..exact_size..ExactSizeIterator$GT$3len17hd03ac3201b3cfde6E.llvm.991277207215265740', symObjAddr: 0x105D0, symBinAddr: 0x81020, symSize: 0x0 }
  - { offsetInCU: 0x1487, offset: 0x2B4FC8, size: 0x8, addend: 0x0, symName: '__ZN115_$LT$syn..punctuated..PrivateIter$LT$T$C$P$GT$$u20$as$u20$core..iter..traits..double_ended..DoubleEndedIterator$GT$9next_back17h7f4f61270a4204d7E.llvm.991277207215265740', symObjAddr: 0x104C0, symBinAddr: 0x80FF0, symSize: 0x0 }
  - { offsetInCU: 0x1901, offset: 0x2B5442, size: 0x8, addend: 0x0, symName: '__ZN100_$LT$syn..punctuated..PrivateIter$LT$T$C$P$GT$$u20$as$u20$core..iter..traits..iterator..Iterator$GT$4next17h2a509a6c34848c4aE.llvm.991277207215265740', symObjAddr: 0x103D0, symBinAddr: 0x80F60, symSize: 0x0 }
  - { offsetInCU: 0x1BB2, offset: 0x2B56F3, size: 0x8, addend: 0x0, symName: '__ZN100_$LT$syn..punctuated..PrivateIter$LT$T$C$P$GT$$u20$as$u20$core..iter..traits..iterator..Iterator$GT$4next17h63cbef55dd3a9f53E.llvm.991277207215265740', symObjAddr: 0x10430, symBinAddr: 0x80F90, symSize: 0x30 }
  - { offsetInCU: 0x1E3F, offset: 0x2B5980, size: 0x8, addend: 0x0, symName: '__ZN100_$LT$syn..punctuated..PrivateIter$LT$T$C$P$GT$$u20$as$u20$core..iter..traits..iterator..Iterator$GT$4next17h6b4639ca1419e80fE.llvm.991277207215265740', symObjAddr: 0x10460, symBinAddr: 0x80FC0, symSize: 0x30 }
  - { offsetInCU: 0x258F, offset: 0x2B60D0, size: 0x8, addend: 0x0, symName: '__ZN79_$LT$syn..punctuated..Punctuated$LT$T$C$P$GT$$u20$as$u20$core..clone..Clone$GT$5clone17h123489863670ef82E', symObjAddr: 0xCAC0, symBinAddr: 0x7FD50, symSize: 0x150 }
  - { offsetInCU: 0x2862, offset: 0x2B63A3, size: 0x8, addend: 0x0, symName: '__ZN79_$LT$syn..punctuated..Punctuated$LT$T$C$P$GT$$u20$as$u20$core..clone..Clone$GT$5clone17h22992bcace29f499E', symObjAddr: 0xCC10, symBinAddr: 0x7FEA0, symSize: 0xE0 }
  - { offsetInCU: 0x2AE9, offset: 0x2B662A, size: 0x8, addend: 0x0, symName: '__ZN79_$LT$syn..punctuated..Punctuated$LT$T$C$P$GT$$u20$as$u20$core..clone..Clone$GT$5clone17h2892afd7277887d8E', symObjAddr: 0xCCF0, symBinAddr: 0x7FF80, symSize: 0xE0 }
  - { offsetInCU: 0x2D70, offset: 0x2B68B1, size: 0x8, addend: 0x0, symName: '__ZN79_$LT$syn..punctuated..Punctuated$LT$T$C$P$GT$$u20$as$u20$core..clone..Clone$GT$5clone17h4f35f72a65007a75E', symObjAddr: 0xCDD0, symBinAddr: 0x80060, symSize: 0xC0 }
  - { offsetInCU: 0x2F9F, offset: 0x2B6AE0, size: 0x8, addend: 0x0, symName: '__ZN79_$LT$syn..punctuated..Punctuated$LT$T$C$P$GT$$u20$as$u20$core..clone..Clone$GT$5clone17h5b87dcc40d8ae16cE', symObjAddr: 0xCE90, symBinAddr: 0x80120, symSize: 0xE0 }
  - { offsetInCU: 0x3226, offset: 0x2B6D67, size: 0x8, addend: 0x0, symName: '__ZN79_$LT$syn..punctuated..Punctuated$LT$T$C$P$GT$$u20$as$u20$core..clone..Clone$GT$5clone17h5e7cb3171b95369bE', symObjAddr: 0xCF70, symBinAddr: 0x80200, symSize: 0xC0 }
  - { offsetInCU: 0x3454, offset: 0x2B6F95, size: 0x8, addend: 0x0, symName: '__ZN79_$LT$syn..punctuated..Punctuated$LT$T$C$P$GT$$u20$as$u20$core..clone..Clone$GT$5clone17h71b1884f4462d97bE', symObjAddr: 0xD030, symBinAddr: 0x802C0, symSize: 0xE0 }
  - { offsetInCU: 0x36DB, offset: 0x2B721C, size: 0x8, addend: 0x0, symName: '__ZN79_$LT$syn..punctuated..Punctuated$LT$T$C$P$GT$$u20$as$u20$core..clone..Clone$GT$5clone17h795b6e9f94c0c96cE', symObjAddr: 0xD110, symBinAddr: 0x803A0, symSize: 0xE0 }
  - { offsetInCU: 0x3962, offset: 0x2B74A3, size: 0x8, addend: 0x0, symName: '__ZN79_$LT$syn..punctuated..Punctuated$LT$T$C$P$GT$$u20$as$u20$core..clone..Clone$GT$5clone17h7b959744e3d5b8dbE', symObjAddr: 0xD1F0, symBinAddr: 0x80480, symSize: 0x110 }
  - { offsetInCU: 0x3C1F, offset: 0x2B7760, size: 0x8, addend: 0x0, symName: '__ZN79_$LT$syn..punctuated..Punctuated$LT$T$C$P$GT$$u20$as$u20$core..clone..Clone$GT$5clone17h8ecfcac09434508eE', symObjAddr: 0xD3E0, symBinAddr: 0x80590, symSize: 0x180 }
  - { offsetInCU: 0x3FF1, offset: 0x2B7B32, size: 0x8, addend: 0x0, symName: '__ZN79_$LT$syn..punctuated..Punctuated$LT$T$C$P$GT$$u20$as$u20$core..clone..Clone$GT$5clone17ha7ab2dd954c80b81E', symObjAddr: 0xD560, symBinAddr: 0x80710, symSize: 0xE0 }
  - { offsetInCU: 0x4277, offset: 0x2B7DB8, size: 0x8, addend: 0x0, symName: '__ZN79_$LT$syn..punctuated..Punctuated$LT$T$C$P$GT$$u20$as$u20$core..clone..Clone$GT$5clone17hc80da0ae5e8a9a5aE', symObjAddr: 0xD640, symBinAddr: 0x807F0, symSize: 0x110 }
  - { offsetInCU: 0x46FE, offset: 0x2B823F, size: 0x8, addend: 0x0, symName: '__ZN138_$LT$syn..punctuated..Punctuated$LT$T$C$P$GT$$u20$as$u20$core..iter..traits..collect..Extend$LT$syn..punctuated..Pair$LT$T$C$P$GT$$GT$$GT$6extend17hd3a7828e12a2fa09E', symObjAddr: 0xF2D0, symBinAddr: 0x80900, symSize: 0x3A0 }
  - { offsetInCU: 0x4C54, offset: 0x2B8795, size: 0x8, addend: 0x0, symName: '__ZN102_$LT$syn..punctuated..Punctuated$LT$T$C$P$GT$$u20$as$u20$core..iter..traits..collect..IntoIterator$GT$9into_iter17h9fd0831bc615f074E', symObjAddr: 0xF940, symBinAddr: 0x80CA0, symSize: 0x2C0 }
  - { offsetInCU: 0x6303, offset: 0x2B9E44, size: 0x8, addend: 0x0, symName: '__ZN57_$LT$I$u20$as$u20$syn..punctuated..IterTrait$LT$T$GT$$GT$9clone_box17hbe556fca14490948E.llvm.991277207215265740', symObjAddr: 0x106C0, symBinAddr: 0x81050, symSize: 0x60 }
  - { offsetInCU: 0x6516, offset: 0x2BA057, size: 0x8, addend: 0x0, symName: '__ZN97_$LT$syn..punctuated..Punctuated$LT$T$C$P$GT$$u20$as$u20$core..ops..index..Index$LT$usize$GT$$GT$5index17h20cbc4df05d7c9eaE', symObjAddr: 0x10780, symBinAddr: 0x810B0, symSize: 0x50 }
  - { offsetInCU: 0x66C0, offset: 0x2BA201, size: 0x8, addend: 0x0, symName: '__ZN3syn10punctuated8printing91_$LT$impl$u20$quote..to_tokens..ToTokens$u20$for$u20$syn..punctuated..Pair$LT$T$C$P$GT$$GT$9to_tokens17h6dc2c5660e354e29E', symObjAddr: 0x110C0, symBinAddr: 0x813D0, symSize: 0xD0 }
  - { offsetInCU: 0x688A, offset: 0x2BA3CB, size: 0x8, addend: 0x0, symName: '__ZN3syn10punctuated8printing91_$LT$impl$u20$quote..to_tokens..ToTokens$u20$for$u20$syn..punctuated..Pair$LT$T$C$P$GT$$GT$9to_tokens17hc2518142b17a3489E', symObjAddr: 0x11360, symBinAddr: 0x814A0, symSize: 0xF3 }
  - { offsetInCU: 0x6A73, offset: 0x2BA5B4, size: 0x8, addend: 0x0, symName: '__ZN3syn10punctuated8printing97_$LT$impl$u20$quote..to_tokens..ToTokens$u20$for$u20$syn..punctuated..Punctuated$LT$T$C$P$GT$$GT$9to_tokens17h060d1d80f541d446E', symObjAddr: 0x10820, symBinAddr: 0x81100, symSize: 0x150 }
  - { offsetInCU: 0x6FB8, offset: 0x2BAAF9, size: 0x8, addend: 0x0, symName: '__ZN3syn10punctuated8printing97_$LT$impl$u20$quote..to_tokens..ToTokens$u20$for$u20$syn..punctuated..Punctuated$LT$T$C$P$GT$$GT$9to_tokens17h7327b9d2fa65c2baE', symObjAddr: 0x10B90, symBinAddr: 0x81250, symSize: 0x180 }
  - { offsetInCU: 0xE7B9, offset: 0x2C22FA, size: 0x8, addend: 0x0, symName: '__ZN4core3ptr100drop_in_place$LT$alloc..vec..Vec$LT$$LP$syn..generics..TypeParamBound$C$syn..token..Plus$RP$$GT$$GT$17hea181150e4b37806E.llvm.991277207215265740', symObjAddr: 0x0, symBinAddr: 0x745B0, symSize: 0xD0 }
  - { offsetInCU: 0xEA98, offset: 0x2C25D9, size: 0x8, addend: 0x0, symName: '__ZN4core3ptr100drop_in_place$LT$core..option..Option$LT$alloc..boxed..Box$LT$syn..path..GenericArgument$GT$$GT$$GT$17h3a7c44b9e57fe410E.llvm.991277207215265740', symObjAddr: 0xD0, symBinAddr: 0x74680, symSize: 0x50 }
  - { offsetInCU: 0xEC84, offset: 0x2C27C5, size: 0x8, addend: 0x0, symName: '__ZN4core3ptr100drop_in_place$LT$syn..punctuated..Punctuated$LT$syn..path..PathSegment$C$syn..token..PathSep$GT$$GT$17he41ef64147139591E', symObjAddr: 0x120, symBinAddr: 0x746D0, symSize: 0x150 }
  - { offsetInCU: 0xF1E8, offset: 0x2C2D29, size: 0x8, addend: 0x0, symName: '__ZN4core3ptr101drop_in_place$LT$alloc..vec..Vec$LT$$LP$syn..generics..WherePredicate$C$syn..token..Comma$RP$$GT$$GT$17h480aa68a207f67a8E.llvm.991277207215265740', symObjAddr: 0x270, symBinAddr: 0x74820, symSize: 0x60 }
  - { offsetInCU: 0xF48B, offset: 0x2C2FCC, size: 0x8, addend: 0x0, symName: '__ZN4core3ptr102drop_in_place$LT$syn..punctuated..Punctuated$LT$syn..path..GenericArgument$C$syn..token..Comma$GT$$GT$17h8b1978399cfff48bE', symObjAddr: 0x2D0, symBinAddr: 0x74880, symSize: 0xF0 }
  - { offsetInCU: 0xF7AB, offset: 0x2C32EC, size: 0x8, addend: 0x0, symName: '__ZN4core3ptr103drop_in_place$LT$core..option..Option$LT$alloc..boxed..Box$LT$syn..generics..TypeParamBound$GT$$GT$$GT$17hb14e4384a768542bE.llvm.991277207215265740', symObjAddr: 0x3C0, symBinAddr: 0x74970, symSize: 0x50 }
  - { offsetInCU: 0xF9B6, offset: 0x2C34F7, size: 0x8, addend: 0x0, symName: '__ZN4core3ptr103drop_in_place$LT$syn..punctuated..Punctuated$LT$syn..generics..GenericParam$C$syn..token..Comma$GT$$GT$17h0c6077a988036760E.llvm.991277207215265740', symObjAddr: 0x410, symBinAddr: 0x749C0, symSize: 0xF0 }
  - { offsetInCU: 0xFF0E, offset: 0x2C3A4F, size: 0x8, addend: 0x0, symName: '__ZN4core3ptr104drop_in_place$LT$syn..punctuated..Punctuated$LT$syn..generics..TypeParamBound$C$syn..token..Plus$GT$$GT$17h724e4d9d1d65061aE.llvm.991277207215265740', symObjAddr: 0x500, symBinAddr: 0x74AB0, symSize: 0x190 }
  - { offsetInCU: 0x10531, offset: 0x2C4072, size: 0x8, addend: 0x0, symName: '__ZN4core3ptr126drop_in_place$LT$core..option..Option$LT$$LP$syn..token..And$C$core..option..Option$LT$syn..lifetime..Lifetime$GT$$RP$$GT$$GT$17h45c5d73e12cdf6f0E', symObjAddr: 0x690, symBinAddr: 0x74C40, symSize: 0x30 }
  - { offsetInCU: 0x10744, offset: 0x2C4285, size: 0x8, addend: 0x0, symName: '__ZN4core3ptr34drop_in_place$LT$syn..lit..Lit$GT$17hd64dde89a262341dE', symObjAddr: 0x6C0, symBinAddr: 0x74C70, symSize: 0x120 }
  - { offsetInCU: 0x10C51, offset: 0x2C4792, size: 0x8, addend: 0x0, symName: '__ZN4core3ptr34drop_in_place$LT$syn..pat..Pat$GT$17hf88887878261d63cE.llvm.991277207215265740', symObjAddr: 0x7E0, symBinAddr: 0x74D90, symSize: 0x1100 }
  - { offsetInCU: 0x152CA, offset: 0x2C8E0B, size: 0x8, addend: 0x0, symName: '__ZN4core3ptr34drop_in_place$LT$syn..ty..Type$GT$17ha80dd29b0f9d4a3fE.llvm.991277207215265740', symObjAddr: 0x18E0, symBinAddr: 0x75E90, symSize: 0x520 }
  - { offsetInCU: 0x1693F, offset: 0x2CA480, size: 0x8, addend: 0x0, symName: '__ZN4core3ptr36drop_in_place$LT$syn..expr..Expr$GT$17h10f573b40ddd212cE.llvm.991277207215265740', symObjAddr: 0x1E00, symBinAddr: 0x763B0, symSize: 0x2830 }
  - { offsetInCU: 0x20A42, offset: 0x2D4583, size: 0x8, addend: 0x0, symName: '__ZN4core3ptr36drop_in_place$LT$syn..mac..Macro$GT$17hc3b30a7a8a34cc2dE', symObjAddr: 0x4630, symBinAddr: 0x78BE0, symSize: 0x40 }
  - { offsetInCU: 0x20A7C, offset: 0x2D45BD, size: 0x8, addend: 0x0, symName: '__ZN4core3ptr36drop_in_place$LT$syn..path..Path$GT$17h75c74a97d5f0a03bE.llvm.991277207215265740', symObjAddr: 0x4670, symBinAddr: 0x78C20, symSize: 0x110 }
  - { offsetInCU: 0x20E9E, offset: 0x2D49DF, size: 0x8, addend: 0x0, symName: '__ZN4core3ptr37drop_in_place$LT$syn..data..Field$GT$17hb03070569ab32babE.llvm.991277207215265740', symObjAddr: 0x4780, symBinAddr: 0x78D30, symSize: 0x140 }
  - { offsetInCU: 0x212F2, offset: 0x2D4E33, size: 0x8, addend: 0x0, symName: '__ZN4core3ptr37drop_in_place$LT$syn..item..FnArg$GT$17h470fdeee5cba5e3aE.llvm.991277207215265740', symObjAddr: 0x48C0, symBinAddr: 0x78E70, symSize: 0x230 }
  - { offsetInCU: 0x21C0C, offset: 0x2D574D, size: 0x8, addend: 0x0, symName: '__ZN4core3ptr37drop_in_place$LT$syn..stmt..Block$GT$17h6fc3254d5688f2c3E', symObjAddr: 0x4AF0, symBinAddr: 0x790A0, symSize: 0xD0 }
  - { offsetInCU: 0x21EE3, offset: 0x2D5A24, size: 0x8, addend: 0x0, symName: '__ZN4core3ptr38drop_in_place$LT$syn..expr..Member$GT$17h6b0cf84594ce6bceE.llvm.991277207215265740', symObjAddr: 0x4BC0, symBinAddr: 0x79170, symSize: 0x30 }
  - { offsetInCU: 0x21FDF, offset: 0x2D5B20, size: 0x8, addend: 0x0, symName: '__ZN4core3ptr39drop_in_place$LT$proc_macro2..Ident$GT$17ha28fef9769e267d9E.llvm.991277207215265740', symObjAddr: 0x4BF0, symBinAddr: 0x791A0, symSize: 0x30 }
  - { offsetInCU: 0x22119, offset: 0x2D5C5A, size: 0x8, addend: 0x0, symName: '__ZN4core3ptr39drop_in_place$LT$syn..data..Variant$GT$17h92766dd8637b4069E', symObjAddr: 0x4C20, symBinAddr: 0x791D0, symSize: 0x150 }
  - { offsetInCU: 0x226C0, offset: 0x2D6201, size: 0x8, addend: 0x0, symName: '__ZN4core3ptr39drop_in_place$LT$syn..item..UseTree$GT$17h7288572c631f954aE.llvm.991277207215265740', symObjAddr: 0x4D70, symBinAddr: 0x79320, symSize: 0x1E0 }
  - { offsetInCU: 0x22E10, offset: 0x2D6951, size: 0x8, addend: 0x0, symName: '__ZN4core3ptr39drop_in_place$LT$syn..pat..FieldPat$GT$17he93d151251e1075bE.llvm.991277207215265740', symObjAddr: 0x4F50, symBinAddr: 0x79500, symSize: 0x120 }
  - { offsetInCU: 0x233AA, offset: 0x2D6EEB, size: 0x8, addend: 0x0, symName: '__ZN4core3ptr39drop_in_place$LT$syn..ty..BareFnArg$GT$17h06523caf0a2ebe3aE.llvm.991277207215265740', symObjAddr: 0x5070, symBinAddr: 0x79620, symSize: 0x110 }
  - { offsetInCU: 0x237CD, offset: 0x2D730E, size: 0x8, addend: 0x0, symName: '__ZN4core3ptr40drop_in_place$LT$syn..ty..ReturnType$GT$17h035a612e322b6510E', symObjAddr: 0x5180, symBinAddr: 0x79730, symSize: 0x50 }
  - { offsetInCU: 0x2393D, offset: 0x2D747E, size: 0x8, addend: 0x0, symName: '__ZN4core3ptr41drop_in_place$LT$syn..expr..ExprConst$GT$17hbfe19d5d621e6836E', symObjAddr: 0x51D0, symBinAddr: 0x79780, symSize: 0x180 }
  - { offsetInCU: 0x23F2A, offset: 0x2D7A6B, size: 0x8, addend: 0x0, symName: '__ZN4core3ptr42drop_in_place$LT$syn..expr..FieldValue$GT$17heed77b5eea8beaa5E.llvm.991277207215265740', symObjAddr: 0x5350, symBinAddr: 0x79900, symSize: 0x110 }
  - { offsetInCU: 0x2436B, offset: 0x2D7EAC, size: 0x8, addend: 0x0, symName: '__ZN4core3ptr43drop_in_place$LT$syn..path..PathSegment$GT$17h903332e979944cf4E.llvm.991277207215265740', symObjAddr: 0x5460, symBinAddr: 0x79A10, symSize: 0x190 }
  - { offsetInCU: 0x248CF, offset: 0x2D8410, size: 0x8, addend: 0x0, symName: '__ZN4core3ptr44drop_in_place$LT$syn..lifetime..Lifetime$GT$17he37fa474f03de7b1E.llvm.991277207215265740', symObjAddr: 0x55F0, symBinAddr: 0x79BA0, symSize: 0x30 }
  - { offsetInCU: 0x24B01, offset: 0x2D8642, size: 0x8, addend: 0x0, symName: '__ZN4core3ptr45drop_in_place$LT$proc_macro2..TokenStream$GT$17h76e8e68015f4924dE.llvm.991277207215265740', symObjAddr: 0x5620, symBinAddr: 0x79BD0, symSize: 0x140 }
  - { offsetInCU: 0x24F9B, offset: 0x2D8ADC, size: 0x8, addend: 0x0, symName: '__ZN4core3ptr45drop_in_place$LT$syn..generics..TypeParam$GT$17h188a459c1380ac75E.llvm.991277207215265740', symObjAddr: 0x5760, symBinAddr: 0x79D10, symSize: 0x230 }
  - { offsetInCU: 0x25810, offset: 0x2D9351, size: 0x8, addend: 0x0, symName: '__ZN4core3ptr46drop_in_place$LT$syn..generics..ConstParam$GT$17h7a9b900b2b88bfcdE.llvm.991277207215265740', symObjAddr: 0x5990, symBinAddr: 0x79F40, symSize: 0x150 }
  - { offsetInCU: 0x25C91, offset: 0x2D97D2, size: 0x8, addend: 0x0, symName: '__ZN4core3ptr47drop_in_place$LT$syn..path..GenericArgument$GT$17h593f06d6ca9a94d2E.llvm.991277207215265740', symObjAddr: 0x5AE0, symBinAddr: 0x7A090, symSize: 0x450 }
  - { offsetInCU: 0x26A07, offset: 0x2DA548, size: 0x8, addend: 0x0, symName: '__ZN4core3ptr48drop_in_place$LT$syn..generics..GenericParam$GT$17hd6859d95c1b7c168E.llvm.991277207215265740', symObjAddr: 0x5F30, symBinAddr: 0x7A4E0, symSize: 0x40 }
  - { offsetInCU: 0x26A24, offset: 0x2DA565, size: 0x8, addend: 0x0, symName: '__ZN4core3ptr49drop_in_place$LT$syn..generics..LifetimeParam$GT$17h3a8835ab294bfd16E.llvm.991277207215265740', symObjAddr: 0x5F70, symBinAddr: 0x7A520, symSize: 0xF0 }
  - { offsetInCU: 0x26E79, offset: 0x2DA9BA, size: 0x8, addend: 0x0, symName: '__ZN4core3ptr49drop_in_place$LT$syn..restriction..Visibility$GT$17h3e52b998838defb1E', symObjAddr: 0x6060, symBinAddr: 0x7A610, symSize: 0x150 }
  - { offsetInCU: 0x273E2, offset: 0x2DAF23, size: 0x8, addend: 0x0, symName: '__ZN4core3ptr50drop_in_place$LT$syn..generics..TypeParamBound$GT$17h81b4325b5900604dE.llvm.991277207215265740', symObjAddr: 0x61B0, symBinAddr: 0x7A760, symSize: 0x1C0 }
  - { offsetInCU: 0x2797D, offset: 0x2DB4BE, size: 0x8, addend: 0x0, symName: '__ZN4core3ptr50drop_in_place$LT$syn..generics..WherePredicate$GT$17h1dcd41fbf166681cE.llvm.991277207215265740', symObjAddr: 0x6370, symBinAddr: 0x7A920, symSize: 0xA0 }
  - { offsetInCU: 0x27B21, offset: 0x2DB662, size: 0x8, addend: 0x0, symName: '__ZN4core3ptr58drop_in_place$LT$alloc..vec..Vec$LT$syn..expr..Arm$GT$$GT$17hff9224aadf2233b8E', symObjAddr: 0x6410, symBinAddr: 0x7A9C0, symSize: 0xD0 }
  - { offsetInCU: 0x27DE1, offset: 0x2DB922, size: 0x8, addend: 0x0, symName: '__ZN4core3ptr59drop_in_place$LT$alloc..boxed..Box$LT$syn..pat..Pat$GT$$GT$17h622b0c1db21c0742E.llvm.991277207215265740', symObjAddr: 0x64E0, symBinAddr: 0x7AA90, symSize: 0x50 }
  - { offsetInCU: 0x27F3A, offset: 0x2DBA7B, size: 0x8, addend: 0x0, symName: '__ZN4core3ptr59drop_in_place$LT$alloc..boxed..Box$LT$syn..ty..Type$GT$$GT$17hde45fa887dd8b605E.llvm.991277207215265740', symObjAddr: 0x6530, symBinAddr: 0x7AAE0, symSize: 0x50 }
  - { offsetInCU: 0x28093, offset: 0x2DBBD4, size: 0x8, addend: 0x0, symName: '__ZN4core3ptr61drop_in_place$LT$alloc..boxed..Box$LT$syn..expr..Expr$GT$$GT$17hbb42293869113942E.llvm.991277207215265740', symObjAddr: 0x6650, symBinAddr: 0x7AB30, symSize: 0x50 }
  - { offsetInCU: 0x28268, offset: 0x2DBDA9, size: 0x8, addend: 0x0, symName: '__ZN4core3ptr61drop_in_place$LT$syn..path..ParenthesizedGenericArguments$GT$17h6b1731382637937fE.llvm.991277207215265740', symObjAddr: 0x66A0, symBinAddr: 0x7AB80, symSize: 0x170 }
  - { offsetInCU: 0x28871, offset: 0x2DC3B2, size: 0x8, addend: 0x0, symName: '__ZN4core3ptr63drop_in_place$LT$alloc..boxed..Box$LT$syn..lit..LitRepr$GT$$GT$17h6e3a82ea4de7b84cE', symObjAddr: 0x68B0, symBinAddr: 0x7ACF0, symSize: 0x60 }
  - { offsetInCU: 0x28B3A, offset: 0x2DC67B, size: 0x8, addend: 0x0, symName: '__ZN4core3ptr64drop_in_place$LT$alloc..boxed..Box$LT$syn..item..UseTree$GT$$GT$17he4d7024582150632E', symObjAddr: 0x6960, symBinAddr: 0x7AD50, symSize: 0x50 }
  - { offsetInCU: 0x28CB2, offset: 0x2DC7F3, size: 0x8, addend: 0x0, symName: '__ZN4core3ptr64drop_in_place$LT$alloc..boxed..Box$LT$syn..pat..FieldPat$GT$$GT$17hbf8f4867d84bd25dE', symObjAddr: 0x69B0, symBinAddr: 0x7ADA0, symSize: 0x140 }
  - { offsetInCU: 0x29375, offset: 0x2DCEB6, size: 0x8, addend: 0x0, symName: '__ZN4core3ptr64drop_in_place$LT$alloc..boxed..Box$LT$syn..ty..BareFnArg$GT$$GT$17h6be6354eb1d1364dE', symObjAddr: 0x6AF0, symBinAddr: 0x7AEE0, symSize: 0x140 }
  - { offsetInCU: 0x298FE, offset: 0x2DD43F, size: 0x8, addend: 0x0, symName: '__ZN4core3ptr65drop_in_place$LT$alloc..vec..Vec$LT$proc_macro..TokenTree$GT$$GT$17h8abd81f8596dbc59E.llvm.991277207215265740', symObjAddr: 0x6C30, symBinAddr: 0x7B020, symSize: 0x110 }
  - { offsetInCU: 0x29CF6, offset: 0x2DD837, size: 0x8, addend: 0x0, symName: '__ZN4core3ptr65drop_in_place$LT$core..option..Option$LT$syn..expr..Label$GT$$GT$17hac599686b33ef364E', symObjAddr: 0x6D40, symBinAddr: 0x7B130, symSize: 0x30 }
  - { offsetInCU: 0x29E30, offset: 0x2DD971, size: 0x8, addend: 0x0, symName: '__ZN4core3ptr66drop_in_place$LT$core..option..Option$LT$syn..pat..PatRest$GT$$GT$17hd5bb3bc28aa78ac1E', symObjAddr: 0x6D70, symBinAddr: 0x7B160, symSize: 0xE0 }
  - { offsetInCU: 0x2A158, offset: 0x2DDC99, size: 0x8, addend: 0x0, symName: '__ZN4core3ptr67drop_in_place$LT$alloc..boxed..Box$LT$syn..expr..FieldValue$GT$$GT$17hbbcf67a9d5e9863cE', symObjAddr: 0x6E50, symBinAddr: 0x7B240, symSize: 0x140 }
  - { offsetInCU: 0x2A6E0, offset: 0x2DE221, size: 0x8, addend: 0x0, symName: '__ZN4core3ptr70drop_in_place$LT$core..option..Option$LT$syn..ty..BareVariadic$GT$$GT$17h79a19250e9f043b1E', symObjAddr: 0x7030, symBinAddr: 0x7B380, symSize: 0x100 }
  - { offsetInCU: 0x2AB4B, offset: 0x2DE68C, size: 0x8, addend: 0x0, symName: '__ZN4core3ptr72drop_in_place$LT$alloc..boxed..Box$LT$syn..path..GenericArgument$GT$$GT$17hfd308d374af4273dE', symObjAddr: 0x7130, symBinAddr: 0x7B480, symSize: 0x2B0 }
  - { offsetInCU: 0x2B55C, offset: 0x2DF09D, size: 0x8, addend: 0x0, symName: '__ZN4core3ptr73drop_in_place$LT$alloc..boxed..Box$LT$syn..generics..GenericParam$GT$$GT$17ha26d5d145af4b203E.llvm.991277207215265740', symObjAddr: 0x73E0, symBinAddr: 0x7B730, symSize: 0x80 }
  - { offsetInCU: 0x2B6F1, offset: 0x2DF232, size: 0x8, addend: 0x0, symName: '__ZN4core3ptr73drop_in_place$LT$alloc..vec..Vec$LT$syn..generics..TypeParamBound$GT$$GT$17h559d22d805be3033E.llvm.991277207215265740', symObjAddr: 0x7460, symBinAddr: 0x7B7B0, symSize: 0xC0 }
  - { offsetInCU: 0x2B9C2, offset: 0x2DF503, size: 0x8, addend: 0x0, symName: '__ZN4core3ptr75drop_in_place$LT$alloc..boxed..Box$LT$syn..generics..TypeParamBound$GT$$GT$17h129a4e927e5eb81bE', symObjAddr: 0x7520, symBinAddr: 0x7B870, symSize: 0xC0 }
  - { offsetInCU: 0x2BCB9, offset: 0x2DF7FA, size: 0x8, addend: 0x0, symName: '__ZN4core3ptr76drop_in_place$LT$$LP$syn..generics..GenericParam$C$syn..token..Comma$RP$$GT$17hfa938bd7ff9e78c2E.llvm.991277207215265740', symObjAddr: 0x7630, symBinAddr: 0x7B930, symSize: 0x40 }
  - { offsetInCU: 0x2BD27, offset: 0x2DF868, size: 0x8, addend: 0x0, symName: '__ZN4core3ptr82drop_in_place$LT$alloc..vec..Vec$LT$$LP$syn..pat..Pat$C$syn..token..Or$RP$$GT$$GT$17h1f0f428d7b2d8011E.llvm.991277207215265740', symObjAddr: 0x7740, symBinAddr: 0x7B970, symSize: 0x0 }
  - { offsetInCU: 0x2C01F, offset: 0x2DFB60, size: 0x8, addend: 0x0, symName: '__ZN4core3ptr85drop_in_place$LT$alloc..vec..Vec$LT$$LP$syn..ty..Type$C$syn..token..Comma$RP$$GT$$GT$17h0cf4844ea7ad9568E.llvm.991277207215265740', symObjAddr: 0x7810, symBinAddr: 0x7BA40, symSize: 0xD0 }
  - { offsetInCU: 0x2C351, offset: 0x2DFE92, size: 0x8, addend: 0x0, symName: '__ZN4core3ptr86drop_in_place$LT$syn..punctuated..Punctuated$LT$syn..pat..Pat$C$syn..token..Or$GT$$GT$17h9cc6b5f7b6d3a555E', symObjAddr: 0x78E0, symBinAddr: 0x7BB10, symSize: 0x120 }
  - { offsetInCU: 0x2C7EB, offset: 0x2E032C, size: 0x8, addend: 0x0, symName: '__ZN4core3ptr87drop_in_place$LT$alloc..vec..Vec$LT$$LP$syn..expr..Expr$C$syn..token..Comma$RP$$GT$$GT$17hd1036fba4025974bE.llvm.991277207215265740', symObjAddr: 0x7A00, symBinAddr: 0x7BC30, symSize: 0xD0 }
  - { offsetInCU: 0x2CADF, offset: 0x2E0620, size: 0x8, addend: 0x0, symName: '__ZN4core3ptr87drop_in_place$LT$core..option..Option$LT$alloc..boxed..Box$LT$syn..pat..Pat$GT$$GT$$GT$17h51cd48973d96c411E', symObjAddr: 0x7AD0, symBinAddr: 0x7BD00, symSize: 0x50 }
  - { offsetInCU: 0x2CC4F, offset: 0x2E0790, size: 0x8, addend: 0x0, symName: '__ZN4core3ptr87drop_in_place$LT$core..option..Option$LT$alloc..boxed..Box$LT$syn..ty..Type$GT$$GT$$GT$17h103a25a4a7d7374eE.llvm.991277207215265740', symObjAddr: 0x7B20, symBinAddr: 0x7BD50, symSize: 0x50 }
  - { offsetInCU: 0x2CDDE, offset: 0x2E091F, size: 0x8, addend: 0x0, symName: '__ZN4core3ptr88drop_in_place$LT$alloc..vec..Vec$LT$$LP$syn..data..Field$C$syn..token..Comma$RP$$GT$$GT$17h066c67d26ce3e154E.llvm.991277207215265740', symObjAddr: 0x7B70, symBinAddr: 0x7BDA0, symSize: 0xD0 }
  - { offsetInCU: 0x2D0F5, offset: 0x2E0C36, size: 0x8, addend: 0x0, symName: '__ZN4core3ptr88drop_in_place$LT$alloc..vec..Vec$LT$$LP$syn..item..FnArg$C$syn..token..Comma$RP$$GT$$GT$17he8d49cd20c575884E.llvm.991277207215265740', symObjAddr: 0x7C40, symBinAddr: 0x7BE70, symSize: 0xD0 }
  - { offsetInCU: 0x2D3F4, offset: 0x2E0F35, size: 0x8, addend: 0x0, symName: '__ZN4core3ptr89drop_in_place$LT$core..option..Option$LT$alloc..boxed..Box$LT$syn..expr..Expr$GT$$GT$$GT$17h9e02509cb2345d44E', symObjAddr: 0x7D10, symBinAddr: 0x7BF40, symSize: 0x50 }
  - { offsetInCU: 0x2D5A2, offset: 0x2E10E3, size: 0x8, addend: 0x0, symName: '__ZN4core3ptr89drop_in_place$LT$syn..punctuated..Punctuated$LT$syn..pat..Pat$C$syn..token..Comma$GT$$GT$17hd3a83c36827f210aE', symObjAddr: 0x7D60, symBinAddr: 0x7BF90, symSize: 0x120 }
  - { offsetInCU: 0x2DA34, offset: 0x2E1575, size: 0x8, addend: 0x0, symName: '__ZN4core3ptr89drop_in_place$LT$syn..punctuated..Punctuated$LT$syn..ty..Type$C$syn..token..Comma$GT$$GT$17he030c4b7f24a5848E.llvm.991277207215265740', symObjAddr: 0x7E80, symBinAddr: 0x7C0B0, symSize: 0x120 }
  - { offsetInCU: 0x2DECE, offset: 0x2E1A0F, size: 0x8, addend: 0x0, symName: '__ZN4core3ptr90drop_in_place$LT$alloc..vec..Vec$LT$$LP$syn..data..Variant$C$syn..token..Comma$RP$$GT$$GT$17h3ac8ecccf673c389E.llvm.991277207215265740', symObjAddr: 0x7FA0, symBinAddr: 0x7C1D0, symSize: 0xD0 }
  - { offsetInCU: 0x2E1C2, offset: 0x2E1D03, size: 0x8, addend: 0x0, symName: '__ZN4core3ptr90drop_in_place$LT$alloc..vec..Vec$LT$$LP$syn..item..UseTree$C$syn..token..Comma$RP$$GT$$GT$17h1e4fface25e12fe6E.llvm.991277207215265740', symObjAddr: 0x8070, symBinAddr: 0x7C2A0, symSize: 0xD0 }
  - { offsetInCU: 0x2E4B8, offset: 0x2E1FF9, size: 0x8, addend: 0x0, symName: '__ZN4core3ptr90drop_in_place$LT$alloc..vec..Vec$LT$$LP$syn..pat..FieldPat$C$syn..token..Comma$RP$$GT$$GT$17h4d0a520927a96123E.llvm.991277207215265740', symObjAddr: 0x8140, symBinAddr: 0x7C370, symSize: 0xD0 }
  - { offsetInCU: 0x2E77A, offset: 0x2E22BB, size: 0x8, addend: 0x0, symName: '__ZN4core3ptr90drop_in_place$LT$alloc..vec..Vec$LT$$LP$syn..ty..BareFnArg$C$syn..token..Comma$RP$$GT$$GT$17h86271563b6e0e7d6E.llvm.991277207215265740', symObjAddr: 0x8210, symBinAddr: 0x7C440, symSize: 0xD0 }
  - { offsetInCU: 0x2EA5D, offset: 0x2E259E, size: 0x8, addend: 0x0, symName: '__ZN4core3ptr90drop_in_place$LT$core..option..Option$LT$alloc..boxed..Box$LT$syn..data..Field$GT$$GT$$GT$17h9f1aee8cd56c6727E.llvm.991277207215265740', symObjAddr: 0x82E0, symBinAddr: 0x7C510, symSize: 0x50 }
  - { offsetInCU: 0x2EBDF, offset: 0x2E2720, size: 0x8, addend: 0x0, symName: '__ZN4core3ptr91drop_in_place$LT$syn..punctuated..Punctuated$LT$syn..expr..Expr$C$syn..token..Comma$GT$$GT$17h6f261e8f470c81f2E.llvm.991277207215265740', symObjAddr: 0x8330, symBinAddr: 0x7C560, symSize: 0x120 }
  - { offsetInCU: 0x2F08C, offset: 0x2E2BCD, size: 0x8, addend: 0x0, symName: '__ZN4core3ptr92drop_in_place$LT$core..option..Option$LT$alloc..boxed..Box$LT$syn..data..Variant$GT$$GT$$GT$17hb65f9b5d99f448afE', symObjAddr: 0x8450, symBinAddr: 0x7C680, symSize: 0x50 }
  - { offsetInCU: 0x2F22D, offset: 0x2E2D6E, size: 0x8, addend: 0x0, symName: '__ZN4core3ptr92drop_in_place$LT$syn..punctuated..Punctuated$LT$syn..data..Field$C$syn..token..Comma$GT$$GT$17hf8968831c552f88dE', symObjAddr: 0x84A0, symBinAddr: 0x7C6D0, symSize: 0x120 }
  - { offsetInCU: 0x2F69F, offset: 0x2E31E0, size: 0x8, addend: 0x0, symName: '__ZN4core3ptr93drop_in_place$LT$alloc..vec..Vec$LT$$LP$syn..expr..FieldValue$C$syn..token..Comma$RP$$GT$$GT$17hf889827bae7d8b64E.llvm.991277207215265740', symObjAddr: 0x85C0, symBinAddr: 0x7C7F0, symSize: 0xD0 }
  - { offsetInCU: 0x2F97E, offset: 0x2E34BF, size: 0x8, addend: 0x0, symName: '__ZN4core3ptr94drop_in_place$LT$alloc..vec..Vec$LT$$LP$syn..lifetime..Lifetime$C$syn..token..Plus$RP$$GT$$GT$17h446c63e6d8248f75E.llvm.991277207215265740', symObjAddr: 0x8690, symBinAddr: 0x7C8C0, symSize: 0x90 }
  - { offsetInCU: 0x2FC60, offset: 0x2E37A1, size: 0x8, addend: 0x0, symName: '__ZN4core3ptr94drop_in_place$LT$syn..punctuated..Punctuated$LT$syn..data..Variant$C$syn..token..Comma$GT$$GT$17h310cd79aba4529ccE', symObjAddr: 0x8720, symBinAddr: 0x7C950, symSize: 0x120 }
  - { offsetInCU: 0x300CE, offset: 0x2E3C0F, size: 0x8, addend: 0x0, symName: '__ZN4core3ptr94drop_in_place$LT$syn..punctuated..Punctuated$LT$syn..pat..FieldPat$C$syn..token..Comma$GT$$GT$17h43ec25af986ef674E', symObjAddr: 0x8840, symBinAddr: 0x7CA70, symSize: 0xF0 }
  - { offsetInCU: 0x303CD, offset: 0x2E3F0E, size: 0x8, addend: 0x0, symName: '__ZN4core3ptr94drop_in_place$LT$syn..punctuated..Punctuated$LT$syn..ty..BareFnArg$C$syn..token..Comma$GT$$GT$17h7ba4c699ee390ebaE', symObjAddr: 0x8930, symBinAddr: 0x7CB60, symSize: 0xF0 }
  - { offsetInCU: 0x306CE, offset: 0x2E420F, size: 0x8, addend: 0x0, symName: '__ZN4core3ptr95drop_in_place$LT$core..option..Option$LT$$LP$proc_macro2..Ident$C$syn..token..Colon$RP$$GT$$GT$17h59fe297999aa3329E.llvm.991277207215265740', symObjAddr: 0x8A20, symBinAddr: 0x7CC50, symSize: 0x30 }
  - { offsetInCU: 0x307E9, offset: 0x2E432A, size: 0x8, addend: 0x0, symName: '__ZN4core3ptr96drop_in_place$LT$alloc..vec..Vec$LT$$LP$syn..path..PathSegment$C$syn..token..PathSep$RP$$GT$$GT$17h69d97f03bb66469bE.llvm.991277207215265740', symObjAddr: 0x8A50, symBinAddr: 0x7CC80, symSize: 0x100 }
  - { offsetInCU: 0x30BDD, offset: 0x2E471E, size: 0x8, addend: 0x0, symName: '__ZN4core3ptr96drop_in_place$LT$core..option..Option$LT$alloc..boxed..Box$LT$syn..path..PathSegment$GT$$GT$$GT$17h5de12a5a0f9e9ef9E.llvm.991277207215265740', symObjAddr: 0x8B50, symBinAddr: 0x7CD80, symSize: 0x1A0 }
  - { offsetInCU: 0x312BD, offset: 0x2E4DFE, size: 0x8, addend: 0x0, symName: '__ZN4core3ptr97drop_in_place$LT$syn..punctuated..Punctuated$LT$syn..expr..FieldValue$C$syn..token..Comma$GT$$GT$17hf58d0a9a09266ab3E', symObjAddr: 0x8D40, symBinAddr: 0x7CF20, symSize: 0xF0 }
  - { offsetInCU: 0x315BA, offset: 0x2E50FB, size: 0x8, addend: 0x0, symName: '__ZN4core3ptr98drop_in_place$LT$alloc..vec..Vec$LT$$LP$syn..path..GenericArgument$C$syn..token..Comma$RP$$GT$$GT$17h0dee282a026d5a38E.llvm.991277207215265740', symObjAddr: 0x8E30, symBinAddr: 0x7D010, symSize: 0xD0 }
  - { offsetInCU: 0x318BC, offset: 0x2E53FD, size: 0x8, addend: 0x0, symName: '__ZN4core3ptr98drop_in_place$LT$syn..punctuated..Punctuated$LT$syn..lifetime..Lifetime$C$syn..token..Plus$GT$$GT$17h600c2b78f78fd2b9E.llvm.991277207215265740', symObjAddr: 0x8F00, symBinAddr: 0x7D0E0, symSize: 0xD0 }
  - { offsetInCU: 0x31D30, offset: 0x2E5871, size: 0x8, addend: 0x0, symName: '__ZN4core3ptr99drop_in_place$LT$alloc..vec..Vec$LT$$LP$syn..generics..GenericParam$C$syn..token..Comma$RP$$GT$$GT$17haeaa257234ab8b89E.llvm.991277207215265740', symObjAddr: 0x8FD0, symBinAddr: 0x7D1B0, symSize: 0x60 }
  - { offsetInCU: 0x31FDB, offset: 0x2E5B1C, size: 0x8, addend: 0x0, symName: '__ZN4core3ptr99drop_in_place$LT$syn..punctuated..IntoPairs$LT$syn..path..PathSegment$C$syn..token..PathSep$GT$$GT$17h7bc58557d0a760d7E', symObjAddr: 0x9030, symBinAddr: 0x7D210, symSize: 0x60 }
  - { offsetInCU: 0x39A39, offset: 0x2ED57A, size: 0x8, addend: 0x0, symName: __ZN4core4iter6traits10exact_size17ExactSizeIterator8is_empty17h1a227f857cbffbf0E.llvm.991277207215265740, symObjAddr: 0x90F0, symBinAddr: 0x7D270, symSize: 0x0 }
  - { offsetInCU: 0x39BB2, offset: 0x2ED6F3, size: 0x8, addend: 0x0, symName: __ZN4core4iter6traits12double_ended19DoubleEndedIterator15advance_back_by17h8a4e4fb504e13f9aE.llvm.991277207215265740, symObjAddr: 0x9240, symBinAddr: 0x7D2A0, symSize: 0x0 }
  - { offsetInCU: 0x39E20, offset: 0x2ED961, size: 0x8, addend: 0x0, symName: __ZN4core4iter6traits12double_ended19DoubleEndedIterator8nth_back17h012b67c1856b5774E.llvm.991277207215265740, symObjAddr: 0x9330, symBinAddr: 0x7D320, symSize: 0x0 }
  - { offsetInCU: 0x3A2CC, offset: 0x2EDE0D, size: 0x8, addend: 0x0, symName: __ZN4core4iter6traits8iterator8Iterator10advance_by17h3d527f137a6d7fdfE.llvm.991277207215265740, symObjAddr: 0x95B0, symBinAddr: 0x7D3C0, symSize: 0x0 }
  - { offsetInCU: 0x3A631, offset: 0x2EE172, size: 0x8, addend: 0x0, symName: __ZN4core4iter6traits8iterator8Iterator3nth17h1e8866c786c3aeccE.llvm.991277207215265740, symObjAddr: 0x9760, symBinAddr: 0x7D430, symSize: 0x0 }
  - { offsetInCU: 0x3ABF0, offset: 0x2EE731, size: 0x8, addend: 0x0, symName: __ZN4core4iter6traits8iterator8Iterator9size_hint17h01b8df23581c5177E.llvm.991277207215265740, symObjAddr: 0x9960, symBinAddr: 0x7D4B0, symSize: 0x0 }
  - { offsetInCU: 0x3FCDB, offset: 0x2F381C, size: 0x8, addend: 0x0, symName: _anon.13e9612c7f1e77365c13ade4b7a3f6db.8.llvm.991277207215265740, symObjAddr: 0x13228, symBinAddr: 0x264DA0, symSize: 0x0 }
  - { offsetInCU: 0x41FA8, offset: 0x2F5AE9, size: 0x8, addend: 0x0, symName: '__ZN3syn10punctuated23Punctuated$LT$T$C$P$GT$10push_value17h2697ae8d07ed6279E', symObjAddr: 0xA040, symBinAddr: 0x7D4D0, symSize: 0x0 }
  - { offsetInCU: 0x42205, offset: 0x2F5D46, size: 0x8, addend: 0x0, symName: '__ZN3syn10punctuated23Punctuated$LT$T$C$P$GT$10push_value17h45c7a985809b3219E', symObjAddr: 0xA140, symBinAddr: 0x7D5D0, symSize: 0x110 }
  - { offsetInCU: 0x4256C, offset: 0x2F60AD, size: 0x8, addend: 0x0, symName: '__ZN3syn10punctuated23Punctuated$LT$T$C$P$GT$10push_value17h473f367d939ee38aE', symObjAddr: 0xA250, symBinAddr: 0x7D6E0, symSize: 0x100 }
  - { offsetInCU: 0x427C8, offset: 0x2F6309, size: 0x8, addend: 0x0, symName: '__ZN3syn10punctuated23Punctuated$LT$T$C$P$GT$10push_value17h4975d8317d65554cE', symObjAddr: 0xA350, symBinAddr: 0x7D7E0, symSize: 0x100 }
  - { offsetInCU: 0x42A3F, offset: 0x2F6580, size: 0x8, addend: 0x0, symName: '__ZN3syn10punctuated23Punctuated$LT$T$C$P$GT$10push_value17h56f029a21ae32372E', symObjAddr: 0xA450, symBinAddr: 0x7D8E0, symSize: 0x100 }
  - { offsetInCU: 0x42C9C, offset: 0x2F67DD, size: 0x8, addend: 0x0, symName: '__ZN3syn10punctuated23Punctuated$LT$T$C$P$GT$10push_value17h63a58ef4bac63b37E', symObjAddr: 0xA550, symBinAddr: 0x7D9E0, symSize: 0x100 }
  - { offsetInCU: 0x42EF9, offset: 0x2F6A3A, size: 0x8, addend: 0x0, symName: '__ZN3syn10punctuated23Punctuated$LT$T$C$P$GT$10push_value17h7a3a23979d9f27d8E', symObjAddr: 0xA650, symBinAddr: 0x7DAE0, symSize: 0x100 }
  - { offsetInCU: 0x43156, offset: 0x2F6C97, size: 0x8, addend: 0x0, symName: '__ZN3syn10punctuated23Punctuated$LT$T$C$P$GT$10push_value17h7b8b7e7a7cc7f473E', symObjAddr: 0xA750, symBinAddr: 0x7DBE0, symSize: 0x100 }
  - { offsetInCU: 0x433A6, offset: 0x2F6EE7, size: 0x8, addend: 0x0, symName: '__ZN3syn10punctuated23Punctuated$LT$T$C$P$GT$10push_value17h93661bd9a728ecd1E', symObjAddr: 0xA850, symBinAddr: 0x7DCE0, symSize: 0x100 }
  - { offsetInCU: 0x43610, offset: 0x2F7151, size: 0x8, addend: 0x0, symName: '__ZN3syn10punctuated23Punctuated$LT$T$C$P$GT$10push_value17hb6a278bfa99a1718E', symObjAddr: 0xA950, symBinAddr: 0x7DDE0, symSize: 0xD0 }
  - { offsetInCU: 0x4386C, offset: 0x2F73AD, size: 0x8, addend: 0x0, symName: '__ZN3syn10punctuated23Punctuated$LT$T$C$P$GT$10push_value17hc6035201a10f0061E', symObjAddr: 0xAA20, symBinAddr: 0x7DEB0, symSize: 0xF0 }
  - { offsetInCU: 0x43AC8, offset: 0x2F7609, size: 0x8, addend: 0x0, symName: '__ZN3syn10punctuated23Punctuated$LT$T$C$P$GT$10push_value17hd429ee0060d42f76E', symObjAddr: 0xAB10, symBinAddr: 0x7DFA0, symSize: 0xF0 }
  - { offsetInCU: 0x43D24, offset: 0x2F7865, size: 0x8, addend: 0x0, symName: '__ZN3syn10punctuated23Punctuated$LT$T$C$P$GT$10push_value17hdab02e89b3ba5c00E', symObjAddr: 0xAC00, symBinAddr: 0x7E090, symSize: 0x100 }
  - { offsetInCU: 0x43FA9, offset: 0x2F7AEA, size: 0x8, addend: 0x0, symName: '__ZN3syn10punctuated23Punctuated$LT$T$C$P$GT$10push_punct17h06896b7cca64befbE', symObjAddr: 0xAD00, symBinAddr: 0x7E190, symSize: 0x110 }
  - { offsetInCU: 0x443A3, offset: 0x2F7EE4, size: 0x8, addend: 0x0, symName: '__ZN3syn10punctuated23Punctuated$LT$T$C$P$GT$10push_punct17h0e6070274da9870bE', symObjAddr: 0xAE10, symBinAddr: 0x7E2A0, symSize: 0x120 }
  - { offsetInCU: 0x4479D, offset: 0x2F82DE, size: 0x8, addend: 0x0, symName: '__ZN3syn10punctuated23Punctuated$LT$T$C$P$GT$10push_punct17h24286cd6641c5efeE', symObjAddr: 0xAF30, symBinAddr: 0x7E3C0, symSize: 0xF0 }
  - { offsetInCU: 0x44B97, offset: 0x2F86D8, size: 0x8, addend: 0x0, symName: '__ZN3syn10punctuated23Punctuated$LT$T$C$P$GT$10push_punct17h27450a552d2ea5c7E', symObjAddr: 0xB020, symBinAddr: 0x7E4B0, symSize: 0x110 }
  - { offsetInCU: 0x44F9E, offset: 0x2F8ADF, size: 0x8, addend: 0x0, symName: '__ZN3syn10punctuated23Punctuated$LT$T$C$P$GT$10push_punct17h44bfb8b49b59ff15E', symObjAddr: 0xB130, symBinAddr: 0x7E5C0, symSize: 0x110 }
  - { offsetInCU: 0x45398, offset: 0x2F8ED9, size: 0x8, addend: 0x0, symName: '__ZN3syn10punctuated23Punctuated$LT$T$C$P$GT$10push_punct17h7ab9900f429df4d2E', symObjAddr: 0xB240, symBinAddr: 0x7E6D0, symSize: 0x110 }
  - { offsetInCU: 0x45785, offset: 0x2F92C6, size: 0x8, addend: 0x0, symName: '__ZN3syn10punctuated23Punctuated$LT$T$C$P$GT$10push_punct17h9e503a1a499ffaa4E', symObjAddr: 0xB350, symBinAddr: 0x7E7E0, symSize: 0x110 }
  - { offsetInCU: 0x45BAD, offset: 0x2F96EE, size: 0x8, addend: 0x0, symName: '__ZN3syn10punctuated23Punctuated$LT$T$C$P$GT$10push_punct17haecab6c445d3d0a0E', symObjAddr: 0xB460, symBinAddr: 0x7E8F0, symSize: 0x140 }
  - { offsetInCU: 0x460FA, offset: 0x2F9C3B, size: 0x8, addend: 0x0, symName: '__ZN3syn10punctuated23Punctuated$LT$T$C$P$GT$10push_punct17hb0efd3086160dde8E', symObjAddr: 0xB5A0, symBinAddr: 0x7EA30, symSize: 0xF0 }
  - { offsetInCU: 0x464F4, offset: 0x2FA035, size: 0x8, addend: 0x0, symName: '__ZN3syn10punctuated23Punctuated$LT$T$C$P$GT$10push_punct17hdafa07dad0c325a7E', symObjAddr: 0xB690, symBinAddr: 0x7EB20, symSize: 0x110 }
  - { offsetInCU: 0x46908, offset: 0x2FA449, size: 0x8, addend: 0x0, symName: '__ZN3syn10punctuated23Punctuated$LT$T$C$P$GT$10push_punct17hdd359bad1ebfd945E', symObjAddr: 0xB7A0, symBinAddr: 0x7EC30, symSize: 0x110 }
  - { offsetInCU: 0x46D02, offset: 0x2FA843, size: 0x8, addend: 0x0, symName: '__ZN3syn10punctuated23Punctuated$LT$T$C$P$GT$10push_punct17he61ebefe1fbd6233E', symObjAddr: 0xB8B0, symBinAddr: 0x7ED40, symSize: 0x110 }
  - { offsetInCU: 0x470FC, offset: 0x2FAC3D, size: 0x8, addend: 0x0, symName: '__ZN3syn10punctuated23Punctuated$LT$T$C$P$GT$10push_punct17hedabbd3c35f4a750E', symObjAddr: 0xB9C0, symBinAddr: 0x7EE50, symSize: 0x110 }
  - { offsetInCU: 0x474F6, offset: 0x2FB037, size: 0x8, addend: 0x0, symName: '__ZN3syn10punctuated23Punctuated$LT$T$C$P$GT$10push_punct17hfa5ffee47f85172bE', symObjAddr: 0xBAD0, symBinAddr: 0x7EF60, symSize: 0x110 }
  - { offsetInCU: 0x478F0, offset: 0x2FB431, size: 0x8, addend: 0x0, symName: '__ZN3syn10punctuated23Punctuated$LT$T$C$P$GT$10push_punct17hff6cad691140237dE', symObjAddr: 0xBBE0, symBinAddr: 0x7F070, symSize: 0x120 }
  - { offsetInCU: 0x47D83, offset: 0x2FB8C4, size: 0x8, addend: 0x0, symName: '__ZN3syn10punctuated23Punctuated$LT$T$C$P$GT$3pop17h6c6e5aa8da1faf58E', symObjAddr: 0xBD00, symBinAddr: 0x7F190, symSize: 0xA0 }
  - { offsetInCU: 0x48189, offset: 0x2FBCCA, size: 0x8, addend: 0x0, symName: '__ZN3syn10punctuated23Punctuated$LT$T$C$P$GT$4push17hdc36ad8613c26a5bE', symObjAddr: 0xBDA0, symBinAddr: 0x7F230, symSize: 0x170 }
  - { offsetInCU: 0x4853A, offset: 0x2FC07B, size: 0x8, addend: 0x0, symName: '__ZN3syn10punctuated23Punctuated$LT$T$C$P$GT$21parse_terminated_with17h19cf4460b97e8380E', symObjAddr: 0xBF10, symBinAddr: 0x7F3A0, symSize: 0x200 }
  - { offsetInCU: 0x48B34, offset: 0x2FC675, size: 0x8, addend: 0x0, symName: '__ZN3syn10punctuated23Punctuated$LT$T$C$P$GT$21parse_terminated_with17h804f2bc7bf3e5193E', symObjAddr: 0xC310, symBinAddr: 0x7F5A0, symSize: 0x3D0 }
  - { offsetInCU: 0x495D9, offset: 0x2FD11A, size: 0x8, addend: 0x0, symName: '__ZN3syn10punctuated23Punctuated$LT$T$C$P$GT$21parse_terminated_with17h88338cd3dff110dcE', symObjAddr: 0xC6E0, symBinAddr: 0x7F970, symSize: 0x3E0 }
  - { offsetInCU: 0x2D56, offset: 0x306F95, size: 0x8, addend: 0x0, symName: '__ZN3syn4expr7parsing63_$LT$impl$u20$syn..parse..Parse$u20$for$u20$syn..expr..Expr$GT$5parse17h2dd32c2563b281f1E', symObjAddr: 0x9380, symBinAddr: 0x89260, symSize: 0xF0 }
  - { offsetInCU: 0x2E06, offset: 0x307045, size: 0x8, addend: 0x0, symName: '__ZN3syn4expr7parsing66_$LT$impl$u20$syn..parse..Parse$u20$for$u20$syn..expr..ExprLit$GT$5parse17h037323e67b33f4e0E', symObjAddr: 0x9D40, symBinAddr: 0x89350, symSize: 0xF0 }
  - { offsetInCU: 0x2EF6, offset: 0x307135, size: 0x8, addend: 0x0, symName: '__ZN3syn4expr7parsing65_$LT$impl$u20$syn..parse..Parse$u20$for$u20$syn..expr..ExprIf$GT$5parse17h057f7aac17b81ecfE', symObjAddr: 0x9E70, symBinAddr: 0x89440, symSize: 0x10D0 }
  - { offsetInCU: 0x5859, offset: 0x309A98, size: 0x8, addend: 0x0, symName: '__ZN3syn4expr7parsing68_$LT$impl$u20$syn..parse..Parse$u20$for$u20$syn..expr..ExprInfer$GT$5parse17hee2966860a129500E', symObjAddr: 0xAF40, symBinAddr: 0x8A510, symSize: 0x190 }
  - { offsetInCU: 0x5C48, offset: 0x309E87, size: 0x8, addend: 0x0, symName: '__ZN3syn4expr7parsing70_$LT$impl$u20$syn..parse..Parse$u20$for$u20$syn..expr..ExprForLoop$GT$5parse17hedfbb0907538a2b3E', symObjAddr: 0xB0D0, symBinAddr: 0x8A6A0, symSize: 0xAE0 }
  - { offsetInCU: 0x6CB0, offset: 0x30AEEF, size: 0x8, addend: 0x0, symName: '__ZN3syn4expr7parsing67_$LT$impl$u20$syn..parse..Parse$u20$for$u20$syn..expr..ExprLoop$GT$5parse17h7ed0d5dbbb60f303E', symObjAddr: 0xBBB0, symBinAddr: 0x8B180, symSize: 0x670 }
  - { offsetInCU: 0x7B20, offset: 0x30BD5F, size: 0x8, addend: 0x0, symName: '__ZN3syn4expr7parsing68_$LT$impl$u20$syn..parse..Parse$u20$for$u20$syn..expr..ExprMatch$GT$5parse17h34519e3f1e766752E', symObjAddr: 0xC220, symBinAddr: 0x8B7F0, symSize: 0x870 }
  - { offsetInCU: 0x8A55, offset: 0x30CC94, size: 0x8, addend: 0x0, symName: '__ZN3syn4expr7parsing69_$LT$impl$u20$syn..parse..Parse$u20$for$u20$syn..expr..ExprReturn$GT$5parse17hc1b56b8a902787dbE', symObjAddr: 0xCDA0, symBinAddr: 0x8C060, symSize: 0x120 }
  - { offsetInCU: 0x8C39, offset: 0x30CE78, size: 0x8, addend: 0x0, symName: '__ZN3syn4expr7parsing71_$LT$impl$u20$syn..parse..Parse$u20$for$u20$syn..expr..ExprTryBlock$GT$5parse17h57d58ae4f0ae4d64E', symObjAddr: 0xCEC0, symBinAddr: 0x8C180, symSize: 0x140 }
  - { offsetInCU: 0x8DB9, offset: 0x30CFF8, size: 0x8, addend: 0x0, symName: '__ZN3syn4expr7parsing68_$LT$impl$u20$syn..parse..Parse$u20$for$u20$syn..expr..ExprYield$GT$5parse17h1274dc253af9a55dE', symObjAddr: 0xD000, symBinAddr: 0x8C2C0, symSize: 0x120 }
  - { offsetInCU: 0x8F9D, offset: 0x30D1DC, size: 0x8, addend: 0x0, symName: '__ZN3syn4expr7parsing68_$LT$impl$u20$syn..parse..Parse$u20$for$u20$syn..expr..ExprAsync$GT$5parse17h1b9426392ef89a9dE', symObjAddr: 0xD120, symBinAddr: 0x8C3E0, symSize: 0x1E0 }
  - { offsetInCU: 0x929F, offset: 0x30D4DE, size: 0x8, addend: 0x0, symName: '__ZN3syn4expr7parsing68_$LT$impl$u20$syn..parse..Parse$u20$for$u20$syn..expr..ExprWhile$GT$5parse17h632c2901c80fa142E', symObjAddr: 0xD300, symBinAddr: 0x8C5C0, symSize: 0x940 }
  - { offsetInCU: 0xA133, offset: 0x30E372, size: 0x8, addend: 0x0, symName: '__ZN3syn4expr7parsing68_$LT$impl$u20$syn..parse..Parse$u20$for$u20$syn..expr..ExprConst$GT$5parse17h3cb83d630e04595bE', symObjAddr: 0xDC40, symBinAddr: 0x8CF00, symSize: 0x480 }
  - { offsetInCU: 0xA968, offset: 0x30EBA7, size: 0x8, addend: 0x0, symName: '__ZN3syn4expr7parsing64_$LT$impl$u20$syn..parse..Parse$u20$for$u20$syn..expr..Label$GT$5parse17hef86b1bab95aa7abE', symObjAddr: 0xE0C0, symBinAddr: 0x8D380, symSize: 0x240 }
  - { offsetInCU: 0xAE27, offset: 0x30F066, size: 0x8, addend: 0x0, symName: '__ZN3syn4expr7parsing71_$LT$impl$u20$syn..parse..Parse$u20$for$u20$syn..expr..ExprContinue$GT$5parse17h63c6d49ae369ea01E', symObjAddr: 0xE300, symBinAddr: 0x8D5C0, symSize: 0x1B0 }
  - { offsetInCU: 0xAFA8, offset: 0x30F1E7, size: 0x8, addend: 0x0, symName: '__ZN3syn4expr7parsing69_$LT$impl$u20$syn..parse..Parse$u20$for$u20$syn..expr..FieldValue$GT$5parse17hcbc1792fb9342612E', symObjAddr: 0xE4B0, symBinAddr: 0x8D770, symSize: 0x670 }
  - { offsetInCU: 0xBA3B, offset: 0x30FC7A, size: 0x8, addend: 0x0, symName: '__ZN3syn4expr7parsing69_$LT$impl$u20$syn..parse..Parse$u20$for$u20$syn..expr..ExprUnsafe$GT$5parse17hd34f309eaaaddbf9E', symObjAddr: 0xEC40, symBinAddr: 0x8DDE0, symSize: 0x480 }
  - { offsetInCU: 0xC270, offset: 0x3104AF, size: 0x8, addend: 0x0, symName: '__ZN3syn4expr7parsing68_$LT$impl$u20$syn..parse..Parse$u20$for$u20$syn..expr..ExprBlock$GT$5parse17h61a2a565a082b026E', symObjAddr: 0xF0C0, symBinAddr: 0x8E260, symSize: 0x620 }
  - { offsetInCU: 0xD0CB, offset: 0x31130A, size: 0x8, addend: 0x0, symName: '__ZN3syn4expr7parsing70_$LT$impl$u20$syn..parse..Parse$u20$for$u20$syn..expr..RangeLimits$GT$5parse17hafc71f8b1811b3d4E', symObjAddr: 0xF6E0, symBinAddr: 0x8E880, symSize: 0x2F0 }
  - { offsetInCU: 0xDD4A, offset: 0x311F89, size: 0x8, addend: 0x0, symName: '__ZN3syn4expr7parsing67_$LT$impl$u20$syn..parse..Parse$u20$for$u20$syn..expr..ExprPath$GT$5parse17hcfacd5d2290fdd20E', symObjAddr: 0xFD70, symBinAddr: 0x8EF10, symSize: 0x240 }
  - { offsetInCU: 0xE18D, offset: 0x3123CC, size: 0x8, addend: 0x0, symName: '__ZN3syn4expr7parsing65_$LT$impl$u20$syn..parse..Parse$u20$for$u20$syn..expr..Member$GT$5parse17h207aacc2d4c7579fE', symObjAddr: 0xFFB0, symBinAddr: 0x8F150, symSize: 0xE0 }
  - { offsetInCU: 0xE3FD, offset: 0x31263C, size: 0x8, addend: 0x0, symName: '__ZN3syn4expr7parsing62_$LT$impl$u20$syn..parse..Parse$u20$for$u20$syn..expr..Arm$GT$5parse17h512532f6f815234dE', symObjAddr: 0x10090, symBinAddr: 0x8F230, symSize: 0xA10 }
  - { offsetInCU: 0xF31F, offset: 0x31355E, size: 0x8, addend: 0x0, symName: '__ZN3syn4expr7parsing64_$LT$impl$u20$syn..parse..Parse$u20$for$u20$syn..expr..Index$GT$5parse17h5b2fe44bac761272E', symObjAddr: 0x10AA0, symBinAddr: 0x8FC40, symSize: 0x180 }
  - { offsetInCU: 0xF9EF, offset: 0x313C2E, size: 0x8, addend: 0x0, symName: '__ZN3syn4expr8printing77_$LT$impl$u20$quote..to_tokens..ToTokens$u20$for$u20$syn..expr..ExprAsync$GT$9to_tokens17h7671d28113e1e04eE', symObjAddr: 0x10CC0, symBinAddr: 0x8FDC0, symSize: 0x160 }
  - { offsetInCU: 0x1007A, offset: 0x3142B9, size: 0x8, addend: 0x0, symName: '__ZN3syn4expr8printing77_$LT$impl$u20$quote..to_tokens..ToTokens$u20$for$u20$syn..expr..ExprBlock$GT$9to_tokens17h25103e38a45e4c1aE', symObjAddr: 0x10E40, symBinAddr: 0x8FF20, symSize: 0xF0 }
  - { offsetInCU: 0x105E2, offset: 0x314821, size: 0x8, addend: 0x0, symName: '__ZN3syn4expr8printing79_$LT$impl$u20$quote..to_tokens..ToTokens$u20$for$u20$syn..expr..ExprClosure$GT$9to_tokens17h22aefaf35f6b4a17E', symObjAddr: 0x10F60, symBinAddr: 0x90010, symSize: 0x400 }
  - { offsetInCU: 0x1132C, offset: 0x31556B, size: 0x8, addend: 0x0, symName: '__ZN3syn4expr8printing77_$LT$impl$u20$quote..to_tokens..ToTokens$u20$for$u20$syn..expr..ExprConst$GT$9to_tokens17hfc10e9b463dc8ee9E', symObjAddr: 0x11360, symBinAddr: 0x90410, symSize: 0xF0 }
  - { offsetInCU: 0x117AA, offset: 0x3159E9, size: 0x8, addend: 0x0, symName: '__ZN3syn4expr8printing80_$LT$impl$u20$quote..to_tokens..ToTokens$u20$for$u20$syn..expr..ExprContinue$GT$9to_tokens17h5bfb9035b6328620E', symObjAddr: 0x11450, symBinAddr: 0x90500, symSize: 0x130 }
  - { offsetInCU: 0x11D8E, offset: 0x315FCD, size: 0x8, addend: 0x0, symName: '__ZN3syn4expr8printing79_$LT$impl$u20$quote..to_tokens..ToTokens$u20$for$u20$syn..expr..ExprForLoop$GT$9to_tokens17h240fbce8573b3e2aE', symObjAddr: 0x11590, symBinAddr: 0x90630, symSize: 0x240 }
  - { offsetInCU: 0x12645, offset: 0x316884, size: 0x8, addend: 0x0, symName: '__ZN3syn4expr8printing74_$LT$impl$u20$quote..to_tokens..ToTokens$u20$for$u20$syn..expr..ExprIf$GT$9to_tokens17hf717ea11b1d1406aE', symObjAddr: 0x11860, symBinAddr: 0x90870, symSize: 0x330 }
  - { offsetInCU: 0x132B1, offset: 0x3174F0, size: 0x8, addend: 0x0, symName: '__ZN3syn4expr8printing77_$LT$impl$u20$quote..to_tokens..ToTokens$u20$for$u20$syn..expr..ExprInfer$GT$9to_tokens17h66f2f3192152ee7bE', symObjAddr: 0x11BA0, symBinAddr: 0x90BA0, symSize: 0xE0 }
  - { offsetInCU: 0x13759, offset: 0x317998, size: 0x8, addend: 0x0, symName: '__ZN3syn4expr8printing76_$LT$impl$u20$quote..to_tokens..ToTokens$u20$for$u20$syn..expr..ExprLoop$GT$9to_tokens17h32916f0a6a52df29E', symObjAddr: 0x11D20, symBinAddr: 0x90C80, symSize: 0x160 }
  - { offsetInCU: 0x13EFB, offset: 0x31813A, size: 0x8, addend: 0x0, symName: '__ZN3syn4expr8printing78_$LT$impl$u20$quote..to_tokens..ToTokens$u20$for$u20$syn..expr..ExprStruct$GT$9to_tokens17h5b9d34ef7b745589E', symObjAddr: 0x12260, symBinAddr: 0x90DE0, symSize: 0xA0 }
  - { offsetInCU: 0x14286, offset: 0x3184C5, size: 0x8, addend: 0x0, symName: '__ZN3syn4expr8printing80_$LT$impl$u20$quote..to_tokens..ToTokens$u20$for$u20$syn..expr..ExprTryBlock$GT$9to_tokens17h21b1a3e7eeb0a009E', symObjAddr: 0x12310, symBinAddr: 0x90E80, symSize: 0xF0 }
  - { offsetInCU: 0x14784, offset: 0x3189C3, size: 0x8, addend: 0x0, symName: '__ZN3syn4expr8printing78_$LT$impl$u20$quote..to_tokens..ToTokens$u20$for$u20$syn..expr..ExprUnsafe$GT$9to_tokens17h4dfc36d6c64a764dE', symObjAddr: 0x124A0, symBinAddr: 0x90F70, symSize: 0xF0 }
  - { offsetInCU: 0x14C5C, offset: 0x318E9B, size: 0x8, addend: 0x0, symName: '__ZN3syn4expr8printing71_$LT$impl$u20$quote..to_tokens..ToTokens$u20$for$u20$syn..expr..Arm$GT$9to_tokens17hb5881eaa41e95cfeE', symObjAddr: 0x12770, symBinAddr: 0x91060, symSize: 0x180 }
  - { offsetInCU: 0x15057, offset: 0x319296, size: 0x8, addend: 0x0, symName: '__ZN3syn4expr8printing74_$LT$impl$u20$quote..to_tokens..ToTokens$u20$for$u20$syn..expr..Member$GT$9to_tokens17h4e2d160d172ed775E', symObjAddr: 0x12BC0, symBinAddr: 0x91380, symSize: 0xC0 }
  - { offsetInCU: 0x1532A, offset: 0x319569, size: 0x8, addend: 0x0, symName: '__ZN3syn4expr8printing78_$LT$impl$u20$quote..to_tokens..ToTokens$u20$for$u20$syn..expr..FieldValue$GT$9to_tokens17heb932e58796058afE', symObjAddr: 0x128F0, symBinAddr: 0x911E0, symSize: 0x1A0 }
  - { offsetInCU: 0x1598E, offset: 0x319BCD, size: 0x8, addend: 0x0, symName: '__ZN62_$LT$syn..expr..Expr$u20$as$u20$quote..to_tokens..ToTokens$GT$9to_tokens17h591e04bab5b62929E', symObjAddr: 0x12D00, symBinAddr: 0x91440, symSize: 0x22C0 }
  - { offsetInCU: 0x21554, offset: 0x325793, size: 0x8, addend: 0x0, symName: '__ZN3syn3gen5clone63_$LT$impl$u20$core..clone..Clone$u20$for$u20$syn..expr..Arm$GT$5clone17h731a332d9e810dfbE', symObjAddr: 0x174C0, symBinAddr: 0x93700, symSize: 0x1F0 }
  - { offsetInCU: 0x21EAA, offset: 0x3260E9, size: 0x8, addend: 0x0, symName: '__ZN3syn3gen5clone64_$LT$impl$u20$core..clone..Clone$u20$for$u20$syn..expr..Expr$GT$5clone17hd0fbb57decae682fE', symObjAddr: 0x176B0, symBinAddr: 0x938F0, symSize: 0x1DF0 }
  - { offsetInCU: 0x25B74, offset: 0x329DB3, size: 0x8, addend: 0x0, symName: '__ZN3syn3gen5clone69_$LT$impl$u20$core..clone..Clone$u20$for$u20$syn..expr..ExprBlock$GT$5clone17hc672c8361322b75dE', symObjAddr: 0x199C0, symBinAddr: 0x956E0, symSize: 0x140 }
  - { offsetInCU: 0x25E4A, offset: 0x32A089, size: 0x8, addend: 0x0, symName: '__ZN3syn3gen5clone69_$LT$impl$u20$core..clone..Clone$u20$for$u20$syn..expr..ExprBreak$GT$5clone17h7bd0ca0880b96178E', symObjAddr: 0x19B00, symBinAddr: 0x95820, symSize: 0x1A0 }
  - { offsetInCU: 0x262FA, offset: 0x32A539, size: 0x8, addend: 0x0, symName: '__ZN3syn3gen5clone71_$LT$impl$u20$core..clone..Clone$u20$for$u20$syn..expr..ExprClosure$GT$5clone17h793550ac36ec18ecE', symObjAddr: 0x19F50, symBinAddr: 0x959C0, symSize: 0x380 }
  - { offsetInCU: 0x269C5, offset: 0x32AC04, size: 0x8, addend: 0x0, symName: '__ZN3syn3gen5clone71_$LT$impl$u20$core..clone..Clone$u20$for$u20$syn..expr..ExprForLoop$GT$5clone17h43600741ac808a48E', symObjAddr: 0x1A590, symBinAddr: 0x95D40, symSize: 0x2A0 }
  - { offsetInCU: 0x2711E, offset: 0x32B35D, size: 0x8, addend: 0x0, symName: '__ZN3syn3gen5clone66_$LT$impl$u20$core..clone..Clone$u20$for$u20$syn..expr..ExprIf$GT$5clone17h1d1ef5ce5034df51E', symObjAddr: 0x1A910, symBinAddr: 0x95FE0, symSize: 0x1E0 }
  - { offsetInCU: 0x2763D, offset: 0x32B87C, size: 0x8, addend: 0x0, symName: '__ZN3syn3gen5clone68_$LT$impl$u20$core..clone..Clone$u20$for$u20$syn..expr..ExprLoop$GT$5clone17h5ec892bf07c52e97E', symObjAddr: 0x1AE90, symBinAddr: 0x961C0, symSize: 0x150 }
  - { offsetInCU: 0x27941, offset: 0x32BB80, size: 0x8, addend: 0x0, symName: '__ZN3syn3gen5clone69_$LT$impl$u20$core..clone..Clone$u20$for$u20$syn..expr..ExprMatch$GT$5clone17ha5b2779974051841E', symObjAddr: 0x1B070, symBinAddr: 0x96310, symSize: 0x140 }
  - { offsetInCU: 0x27BC9, offset: 0x32BE08, size: 0x8, addend: 0x0, symName: '__ZN3syn3gen5clone74_$LT$impl$u20$core..clone..Clone$u20$for$u20$syn..expr..ExprMethodCall$GT$5clone17h4d51c2e74302fd51E', symObjAddr: 0x1B1B0, symBinAddr: 0x96450, symSize: 0x3A0 }
  - { offsetInCU: 0x282D0, offset: 0x32C50F, size: 0x8, addend: 0x0, symName: '__ZN3syn3gen5clone68_$LT$impl$u20$core..clone..Clone$u20$for$u20$syn..expr..ExprPath$GT$5clone17h5e066ec238ed93d5E', symObjAddr: 0x1B630, symBinAddr: 0x967F0, symSize: 0x1B0 }
  - { offsetInCU: 0x2863D, offset: 0x32C87C, size: 0x8, addend: 0x0, symName: '__ZN3syn3gen5clone69_$LT$impl$u20$core..clone..Clone$u20$for$u20$syn..expr..ExprRange$GT$5clone17h9227c42eb2ce8610E', symObjAddr: 0x1B7E0, symBinAddr: 0x969A0, symSize: 0x1A0 }
  - { offsetInCU: 0x28B49, offset: 0x32CD88, size: 0x8, addend: 0x0, symName: '__ZN3syn3gen5clone70_$LT$impl$u20$core..clone..Clone$u20$for$u20$syn..expr..ExprStruct$GT$5clone17h182ae561ae6d6028E', symObjAddr: 0x1BC00, symBinAddr: 0x96B40, symSize: 0x390 }
  - { offsetInCU: 0x29390, offset: 0x32D5CF, size: 0x8, addend: 0x0, symName: '__ZN3syn3gen5clone69_$LT$impl$u20$core..clone..Clone$u20$for$u20$syn..expr..ExprWhile$GT$5clone17hc9698df3873ae4b0E', symObjAddr: 0x1C150, symBinAddr: 0x96ED0, symSize: 0x200 }
  - { offsetInCU: 0x298B9, offset: 0x32DAF8, size: 0x8, addend: 0x0, symName: '__ZN3syn3gen5clone70_$LT$impl$u20$core..clone..Clone$u20$for$u20$syn..expr..FieldValue$GT$5clone17he5e5e61c3443e293E', symObjAddr: 0x1C440, symBinAddr: 0x970D0, symSize: 0x150 }
  - { offsetInCU: 0x2BBFA, offset: 0x32FE39, size: 0x8, addend: 0x0, symName: '__ZN4core3ptr100drop_in_place$LT$core..option..Option$LT$alloc..boxed..Box$LT$syn..path..GenericArgument$GT$$GT$$GT$17h3a7c44b9e57fe410E', symObjAddr: 0x1D0, symBinAddr: 0x815A0, symSize: 0x50 }
  - { offsetInCU: 0x2BF98, offset: 0x3301D7, size: 0x8, addend: 0x0, symName: '__ZN4core3ptr100drop_in_place$LT$syn..punctuated..Punctuated$LT$syn..path..PathSegment$C$syn..token..PathSep$GT$$GT$17he41ef64147139591E', symObjAddr: 0x220, symBinAddr: 0x815F0, symSize: 0x2B0 }
  - { offsetInCU: 0x2CA4E, offset: 0x330C8D, size: 0x8, addend: 0x0, symName: '__ZN4core3ptr103drop_in_place$LT$core..option..Option$LT$alloc..boxed..Box$LT$syn..generics..TypeParamBound$GT$$GT$$GT$17hb14e4384a768542bE', symObjAddr: 0x4D0, symBinAddr: 0x818A0, symSize: 0x50 }
  - { offsetInCU: 0x2CC59, offset: 0x330E98, size: 0x8, addend: 0x0, symName: '__ZN4core3ptr103drop_in_place$LT$syn..punctuated..Punctuated$LT$syn..generics..GenericParam$C$syn..token..Comma$GT$$GT$17h0c6077a988036760E', symObjAddr: 0x520, symBinAddr: 0x818F0, symSize: 0xF0 }
  - { offsetInCU: 0x2D154, offset: 0x331393, size: 0x8, addend: 0x0, symName: '__ZN4core3ptr104drop_in_place$LT$syn..punctuated..Punctuated$LT$syn..generics..TypeParamBound$C$syn..token..Plus$GT$$GT$17h724e4d9d1d65061aE', symObjAddr: 0x610, symBinAddr: 0x819E0, symSize: 0x190 }
  - { offsetInCU: 0x2D777, offset: 0x3319B6, size: 0x8, addend: 0x0, symName: '__ZN4core3ptr114drop_in_place$LT$core..option..Option$LT$$LP$syn..token..If$C$alloc..boxed..Box$LT$syn..expr..Expr$GT$$RP$$GT$$GT$17h65df04de8e20ab0aE.llvm.3179342279309578476', symObjAddr: 0x7A0, symBinAddr: 0x81B70, symSize: 0x0 }
  - { offsetInCU: 0x2D9A6, offset: 0x331BE5, size: 0x8, addend: 0x0, symName: '__ZN4core3ptr34drop_in_place$LT$syn..lit..Lit$GT$17hd64dde89a262341dE.llvm.3179342279309578476', symObjAddr: 0x7F0, symBinAddr: 0x81BC0, symSize: 0x130 }
  - { offsetInCU: 0x2DEDF, offset: 0x33211E, size: 0x8, addend: 0x0, symName: '__ZN4core3ptr34drop_in_place$LT$syn..pat..Pat$GT$17hf88887878261d63cE.llvm.3179342279309578476', symObjAddr: 0x920, symBinAddr: 0x81CF0, symSize: 0x1100 }
  - { offsetInCU: 0x32558, offset: 0x336797, size: 0x8, addend: 0x0, symName: '__ZN4core3ptr34drop_in_place$LT$syn..ty..Type$GT$17ha80dd29b0f9d4a3fE.llvm.3179342279309578476', symObjAddr: 0x1A20, symBinAddr: 0x82DF0, symSize: 0x520 }
  - { offsetInCU: 0x3361C, offset: 0x33785B, size: 0x8, addend: 0x0, symName: '__ZN4core3ptr35drop_in_place$LT$syn..expr..Arm$GT$17hd729aea1406305a9E', symObjAddr: 0x1F40, symBinAddr: 0x83310, symSize: 0x160 }
  - { offsetInCU: 0x340D5, offset: 0x338314, size: 0x8, addend: 0x0, symName: '__ZN4core3ptr36drop_in_place$LT$syn..expr..Expr$GT$17h10f573b40ddd212cE.llvm.3179342279309578476', symObjAddr: 0x20A0, symBinAddr: 0x83470, symSize: 0x2550 }
  - { offsetInCU: 0x3D4EC, offset: 0x34172B, size: 0x8, addend: 0x0, symName: '__ZN4core3ptr36drop_in_place$LT$syn..mac..Macro$GT$17hc3b30a7a8a34cc2dE.llvm.3179342279309578476', symObjAddr: 0x45F0, symBinAddr: 0x859C0, symSize: 0x40 }
  - { offsetInCU: 0x3D526, offset: 0x341765, size: 0x8, addend: 0x0, symName: '__ZN4core3ptr36drop_in_place$LT$syn..path..Path$GT$17h75c74a97d5f0a03bE.llvm.3179342279309578476', symObjAddr: 0x4630, symBinAddr: 0x85A00, symSize: 0x280 }
  - { offsetInCU: 0x3E011, offset: 0x342250, size: 0x8, addend: 0x0, symName: '__ZN4core3ptr37drop_in_place$LT$syn..lit..LitInt$GT$17hb1d9c894162666f0E.llvm.3179342279309578476', symObjAddr: 0x48B0, symBinAddr: 0x85C80, symSize: 0x70 }
  - { offsetInCU: 0x3E3A2, offset: 0x3425E1, size: 0x8, addend: 0x0, symName: '__ZN4core3ptr37drop_in_place$LT$syn..stmt..Block$GT$17h6fc3254d5688f2c3E.llvm.3179342279309578476', symObjAddr: 0x4920, symBinAddr: 0x85CF0, symSize: 0xD0 }
  - { offsetInCU: 0x3E6B7, offset: 0x3428F6, size: 0x8, addend: 0x0, symName: '__ZN4core3ptr38drop_in_place$LT$syn..expr..ExprIf$GT$17ha8d3c2042f45d05fE', symObjAddr: 0x49F0, symBinAddr: 0x85DC0, symSize: 0x200 }
  - { offsetInCU: 0x3EF73, offset: 0x3431B2, size: 0x8, addend: 0x0, symName: '__ZN4core3ptr38drop_in_place$LT$syn..expr..Member$GT$17h6b0cf84594ce6bceE.llvm.3179342279309578476', symObjAddr: 0x4BF0, symBinAddr: 0x85FC0, symSize: 0x30 }
  - { offsetInCU: 0x3F06F, offset: 0x3432AE, size: 0x8, addend: 0x0, symName: '__ZN4core3ptr39drop_in_place$LT$proc_macro2..Ident$GT$17ha28fef9769e267d9E.llvm.3179342279309578476', symObjAddr: 0x4C20, symBinAddr: 0x85FF0, symSize: 0x30 }
  - { offsetInCU: 0x3F14C, offset: 0x34338B, size: 0x8, addend: 0x0, symName: '__ZN4core3ptr40drop_in_place$LT$syn..ty..ReturnType$GT$17h035a612e322b6510E.llvm.3179342279309578476', symObjAddr: 0x4FB0, symBinAddr: 0x86020, symSize: 0x50 }
  - { offsetInCU: 0x3F2BC, offset: 0x3434FB, size: 0x8, addend: 0x0, symName: '__ZN4core3ptr41drop_in_place$LT$syn..expr..ExprConst$GT$17hbfe19d5d621e6836E', symObjAddr: 0x5030, symBinAddr: 0x86070, symSize: 0x180 }
  - { offsetInCU: 0x3F8C8, offset: 0x343B07, size: 0x8, addend: 0x0, symName: '__ZN4core3ptr44drop_in_place$LT$syn..lifetime..Lifetime$GT$17he37fa474f03de7b1E', symObjAddr: 0x58E0, symBinAddr: 0x861F0, symSize: 0x30 }
  - { offsetInCU: 0x3FA40, offset: 0x343C7F, size: 0x8, addend: 0x0, symName: '__ZN4core3ptr44drop_in_place$LT$syn..parse..ParseBuffer$GT$17hf792ff20095efc35E', symObjAddr: 0x5910, symBinAddr: 0x86220, symSize: 0x70 }
  - { offsetInCU: 0x3FE57, offset: 0x344096, size: 0x8, addend: 0x0, symName: '__ZN4core3ptr45drop_in_place$LT$proc_macro2..TokenStream$GT$17h76e8e68015f4924dE.llvm.3179342279309578476', symObjAddr: 0x5980, symBinAddr: 0x86290, symSize: 0x140 }
  - { offsetInCU: 0x402F1, offset: 0x344530, size: 0x8, addend: 0x0, symName: '__ZN4core3ptr45drop_in_place$LT$syn..generics..TypeParam$GT$17h188a459c1380ac75E', symObjAddr: 0x5AC0, symBinAddr: 0x863D0, symSize: 0x230 }
  - { offsetInCU: 0x40BC3, offset: 0x344E02, size: 0x8, addend: 0x0, symName: '__ZN4core3ptr46drop_in_place$LT$syn..expr..ExprMethodCall$GT$17hcac390ae151688a0E', symObjAddr: 0x5CF0, symBinAddr: 0x86600, symSize: 0x340 }
  - { offsetInCU: 0x41A10, offset: 0x345C4F, size: 0x8, addend: 0x0, symName: '__ZN4core3ptr46drop_in_place$LT$syn..generics..ConstParam$GT$17h7a9b900b2b88bfcdE', symObjAddr: 0x6030, symBinAddr: 0x86940, symSize: 0x150 }
  - { offsetInCU: 0x41F0D, offset: 0x34614C, size: 0x8, addend: 0x0, symName: '__ZN4core3ptr47drop_in_place$LT$syn..path..GenericArgument$GT$17h593f06d6ca9a94d2E', symObjAddr: 0x61B0, symBinAddr: 0x86A90, symSize: 0x4A0 }
  - { offsetInCU: 0x43013, offset: 0x347252, size: 0x8, addend: 0x0, symName: '__ZN4core3ptr49drop_in_place$LT$syn..generics..LifetimeParam$GT$17h3a8835ab294bfd16E', symObjAddr: 0x6650, symBinAddr: 0x86F30, symSize: 0xF0 }
  - { offsetInCU: 0x4342A, offset: 0x347669, size: 0x8, addend: 0x0, symName: '__ZN4core3ptr50drop_in_place$LT$syn..generics..TypeParamBound$GT$17h81b4325b5900604dE', symObjAddr: 0x6740, symBinAddr: 0x87020, symSize: 0x1C0 }
  - { offsetInCU: 0x43987, offset: 0x347BC6, size: 0x8, addend: 0x0, symName: '__ZN4core3ptr58drop_in_place$LT$alloc..vec..Vec$LT$syn..expr..Arm$GT$$GT$17hff9224aadf2233b8E.llvm.3179342279309578476', symObjAddr: 0x6900, symBinAddr: 0x871E0, symSize: 0xD0 }
  - { offsetInCU: 0x43C47, offset: 0x347E86, size: 0x8, addend: 0x0, symName: '__ZN4core3ptr59drop_in_place$LT$alloc..boxed..Box$LT$syn..pat..Pat$GT$$GT$17h622b0c1db21c0742E.llvm.3179342279309578476', symObjAddr: 0x69D0, symBinAddr: 0x872B0, symSize: 0x50 }
  - { offsetInCU: 0x43DA0, offset: 0x347FDF, size: 0x8, addend: 0x0, symName: '__ZN4core3ptr59drop_in_place$LT$alloc..boxed..Box$LT$syn..ty..Type$GT$$GT$17hde45fa887dd8b605E.llvm.3179342279309578476', symObjAddr: 0x6A20, symBinAddr: 0x87300, symSize: 0x50 }
  - { offsetInCU: 0x43EF9, offset: 0x348138, size: 0x8, addend: 0x0, symName: '__ZN4core3ptr59drop_in_place$LT$alloc..vec..Vec$LT$syn..stmt..Stmt$GT$$GT$17h6cf3e54f41bc03bdE', symObjAddr: 0x6A70, symBinAddr: 0x87350, symSize: 0xD0 }
  - { offsetInCU: 0x441B9, offset: 0x3483F8, size: 0x8, addend: 0x0, symName: '__ZN4core3ptr61drop_in_place$LT$alloc..boxed..Box$LT$syn..expr..Expr$GT$$GT$17hbb42293869113942E.llvm.3179342279309578476', symObjAddr: 0x6B40, symBinAddr: 0x87420, symSize: 0x50 }
  - { offsetInCU: 0x44331, offset: 0x348570, size: 0x8, addend: 0x0, symName: '__ZN4core3ptr61drop_in_place$LT$alloc..vec..Vec$LT$syn..expr..ExprIf$GT$$GT$17h974b97c8babb35d3E', symObjAddr: 0x6B90, symBinAddr: 0x87470, symSize: 0xD0 }
  - { offsetInCU: 0x4466F, offset: 0x3488AE, size: 0x8, addend: 0x0, symName: '__ZN4core3ptr61drop_in_place$LT$syn..path..ParenthesizedGenericArguments$GT$17h6b1731382637937fE', symObjAddr: 0x6C60, symBinAddr: 0x87540, symSize: 0x170 }
  - { offsetInCU: 0x44C65, offset: 0x348EA4, size: 0x8, addend: 0x0, symName: '__ZN4core3ptr62drop_in_place$LT$syn..path..AngleBracketedGenericArguments$GT$17hf8fa172f007a1473E', symObjAddr: 0x6DD0, symBinAddr: 0x876B0, symSize: 0x120 }
  - { offsetInCU: 0x450B0, offset: 0x3492EF, size: 0x8, addend: 0x0, symName: '__ZN4core3ptr63drop_in_place$LT$alloc..boxed..Box$LT$syn..lit..LitRepr$GT$$GT$17h6e3a82ea4de7b84cE', symObjAddr: 0x6EF0, symBinAddr: 0x877D0, symSize: 0x60 }
  - { offsetInCU: 0x45398, offset: 0x3495D7, size: 0x8, addend: 0x0, symName: '__ZN4core3ptr64drop_in_place$LT$alloc..boxed..Box$LT$syn..pat..FieldPat$GT$$GT$17hbf8f4867d84bd25dE', symObjAddr: 0x6F50, symBinAddr: 0x87830, symSize: 0x140 }
  - { offsetInCU: 0x45A99, offset: 0x349CD8, size: 0x8, addend: 0x0, symName: '__ZN4core3ptr64drop_in_place$LT$alloc..boxed..Box$LT$syn..ty..BareFnArg$GT$$GT$17h6be6354eb1d1364dE', symObjAddr: 0x7090, symBinAddr: 0x87970, symSize: 0x140 }
  - { offsetInCU: 0x46022, offset: 0x34A261, size: 0x8, addend: 0x0, symName: '__ZN4core3ptr64drop_in_place$LT$alloc..vec..Vec$LT$syn..attr..Attribute$GT$$GT$17he33e25539d5885aeE.llvm.3179342279309578476', symObjAddr: 0x71D0, symBinAddr: 0x87AB0, symSize: 0xD0 }
  - { offsetInCU: 0x46316, offset: 0x34A555, size: 0x8, addend: 0x0, symName: '__ZN4core3ptr65drop_in_place$LT$alloc..vec..Vec$LT$proc_macro..TokenTree$GT$$GT$17h8abd81f8596dbc59E.llvm.3179342279309578476', symObjAddr: 0x72A0, symBinAddr: 0x87B80, symSize: 0x110 }
  - { offsetInCU: 0x4670E, offset: 0x34A94D, size: 0x8, addend: 0x0, symName: '__ZN4core3ptr65drop_in_place$LT$core..option..Option$LT$syn..expr..Label$GT$$GT$17hac599686b33ef364E.llvm.3179342279309578476', symObjAddr: 0x73B0, symBinAddr: 0x87C90, symSize: 0x30 }
  - { offsetInCU: 0x46848, offset: 0x34AA87, size: 0x8, addend: 0x0, symName: '__ZN4core3ptr65drop_in_place$LT$core..option..Option$LT$syn..path..QSelf$GT$$GT$17h0b8dd5cda5f2cd6bE.llvm.3179342279309578476', symObjAddr: 0x73E0, symBinAddr: 0x87CC0, symSize: 0x50 }
  - { offsetInCU: 0x469DF, offset: 0x34AC1E, size: 0x8, addend: 0x0, symName: '__ZN4core3ptr66drop_in_place$LT$core..option..Option$LT$syn..pat..PatRest$GT$$GT$17hd5bb3bc28aa78ac1E', symObjAddr: 0x7430, symBinAddr: 0x87D10, symSize: 0xE0 }
  - { offsetInCU: 0x46D07, offset: 0x34AF46, size: 0x8, addend: 0x0, symName: '__ZN4core3ptr67drop_in_place$LT$alloc..boxed..Box$LT$syn..expr..FieldValue$GT$$GT$17hbbcf67a9d5e9863cE', symObjAddr: 0x7510, symBinAddr: 0x87DF0, symSize: 0x140 }
  - { offsetInCU: 0x47270, offset: 0x34B4AF, size: 0x8, addend: 0x0, symName: '__ZN4core3ptr68drop_in_place$LT$alloc..boxed..Box$LT$syn..path..PathSegment$GT$$GT$17h99aaf90b3262bc1eE', symObjAddr: 0x7650, symBinAddr: 0x87F30, symSize: 0x1B0 }
  - { offsetInCU: 0x4797E, offset: 0x34BBBD, size: 0x8, addend: 0x0, symName: '__ZN4core3ptr70drop_in_place$LT$core..option..Option$LT$syn..ty..BareVariadic$GT$$GT$17h79a19250e9f043b1E', symObjAddr: 0x7800, symBinAddr: 0x880E0, symSize: 0x100 }
  - { offsetInCU: 0x47DE9, offset: 0x34C028, size: 0x8, addend: 0x0, symName: '__ZN4core3ptr72drop_in_place$LT$alloc..boxed..Box$LT$syn..path..GenericArgument$GT$$GT$17hfd308d374af4273dE', symObjAddr: 0x7900, symBinAddr: 0x881E0, symSize: 0x1D0 }
  - { offsetInCU: 0x48384, offset: 0x34C5C3, size: 0x8, addend: 0x0, symName: '__ZN4core3ptr72drop_in_place$LT$core..option..Option$LT$syn..lifetime..Lifetime$GT$$GT$17h49cce6f02f9c0590E.llvm.3179342279309578476', symObjAddr: 0x7AD0, symBinAddr: 0x883B0, symSize: 0x30 }
  - { offsetInCU: 0x4849F, offset: 0x34C6DE, size: 0x8, addend: 0x0, symName: '__ZN4core3ptr73drop_in_place$LT$alloc..boxed..Box$LT$syn..generics..GenericParam$GT$$GT$17ha26d5d145af4b203E', symObjAddr: 0x7B00, symBinAddr: 0x883E0, symSize: 0x80 }
  - { offsetInCU: 0x48615, offset: 0x34C854, size: 0x8, addend: 0x0, symName: '__ZN4core3ptr75drop_in_place$LT$alloc..boxed..Box$LT$syn..generics..TypeParamBound$GT$$GT$17h129a4e927e5eb81bE', symObjAddr: 0x7B80, symBinAddr: 0x88460, symSize: 0xC0 }
  - { offsetInCU: 0x48969, offset: 0x34CBA8, size: 0x8, addend: 0x0, symName: '__ZN4core3ptr86drop_in_place$LT$syn..punctuated..Punctuated$LT$syn..pat..Pat$C$syn..token..Or$GT$$GT$17h9cc6b5f7b6d3a555E', symObjAddr: 0x7C60, symBinAddr: 0x88520, symSize: 0x120 }
  - { offsetInCU: 0x48DE4, offset: 0x34D023, size: 0x8, addend: 0x0, symName: '__ZN4core3ptr87drop_in_place$LT$core..option..Option$LT$alloc..boxed..Box$LT$syn..pat..Pat$GT$$GT$$GT$17h51cd48973d96c411E', symObjAddr: 0x7D80, symBinAddr: 0x88640, symSize: 0x50 }
  - { offsetInCU: 0x48F54, offset: 0x34D193, size: 0x8, addend: 0x0, symName: '__ZN4core3ptr87drop_in_place$LT$core..option..Option$LT$alloc..boxed..Box$LT$syn..ty..Type$GT$$GT$$GT$17h103a25a4a7d7374eE', symObjAddr: 0x7DD0, symBinAddr: 0x88690, symSize: 0x50 }
  - { offsetInCU: 0x490C4, offset: 0x34D303, size: 0x8, addend: 0x0, symName: '__ZN4core3ptr88drop_in_place$LT$$LP$syn..token..Else$C$alloc..boxed..Box$LT$syn..expr..Expr$GT$$RP$$GT$17ha4aa82534fb17f55E', symObjAddr: 0x7E20, symBinAddr: 0x886E0, symSize: 0x50 }
  - { offsetInCU: 0x4923C, offset: 0x34D47B, size: 0x8, addend: 0x0, symName: '__ZN4core3ptr89drop_in_place$LT$core..option..Option$LT$alloc..boxed..Box$LT$syn..expr..Expr$GT$$GT$$GT$17h9e02509cb2345d44E.llvm.3179342279309578476', symObjAddr: 0x7E70, symBinAddr: 0x88730, symSize: 0x50 }
  - { offsetInCU: 0x493EA, offset: 0x34D629, size: 0x8, addend: 0x0, symName: '__ZN4core3ptr89drop_in_place$LT$syn..punctuated..Punctuated$LT$syn..pat..Pat$C$syn..token..Comma$GT$$GT$17hd3a83c36827f210aE.llvm.3179342279309578476', symObjAddr: 0x7EC0, symBinAddr: 0x88780, symSize: 0x120 }
  - { offsetInCU: 0x4987C, offset: 0x34DABB, size: 0x8, addend: 0x0, symName: '__ZN4core3ptr89drop_in_place$LT$syn..punctuated..Punctuated$LT$syn..ty..Type$C$syn..token..Comma$GT$$GT$17he030c4b7f24a5848E', symObjAddr: 0x7FE0, symBinAddr: 0x888A0, symSize: 0x120 }
  - { offsetInCU: 0x49CF7, offset: 0x34DF36, size: 0x8, addend: 0x0, symName: '__ZN4core3ptr90drop_in_place$LT$core..option..Option$LT$syn..path..AngleBracketedGenericArguments$GT$$GT$17ha307713a95a0671eE.llvm.3179342279309578476', symObjAddr: 0x8100, symBinAddr: 0x889C0, symSize: 0x130 }
  - { offsetInCU: 0x4A15B, offset: 0x34E39A, size: 0x8, addend: 0x0, symName: '__ZN4core3ptr91drop_in_place$LT$syn..punctuated..Punctuated$LT$syn..expr..Expr$C$syn..token..Comma$GT$$GT$17h6f261e8f470c81f2E.llvm.3179342279309578476', symObjAddr: 0x8230, symBinAddr: 0x88AF0, symSize: 0x120 }
  - { offsetInCU: 0x4A5D6, offset: 0x34E815, size: 0x8, addend: 0x0, symName: '__ZN4core3ptr94drop_in_place$LT$syn..punctuated..Punctuated$LT$syn..pat..FieldPat$C$syn..token..Comma$GT$$GT$17h43ec25af986ef674E', symObjAddr: 0x8350, symBinAddr: 0x88C10, symSize: 0xF0 }
  - { offsetInCU: 0x4A8D5, offset: 0x34EB14, size: 0x8, addend: 0x0, symName: '__ZN4core3ptr94drop_in_place$LT$syn..punctuated..Punctuated$LT$syn..ty..BareFnArg$C$syn..token..Comma$GT$$GT$17h7ba4c699ee390ebaE', symObjAddr: 0x8440, symBinAddr: 0x88D00, symSize: 0xF0 }
  - { offsetInCU: 0x4ABD6, offset: 0x34EE15, size: 0x8, addend: 0x0, symName: '__ZN4core3ptr95drop_in_place$LT$core..option..Option$LT$$LP$proc_macro2..Ident$C$syn..token..Colon$RP$$GT$$GT$17h59fe297999aa3329E', symObjAddr: 0x8530, symBinAddr: 0x88DF0, symSize: 0x30 }
  - { offsetInCU: 0x4ACF1, offset: 0x34EF30, size: 0x8, addend: 0x0, symName: '__ZN4core3ptr96drop_in_place$LT$core..option..Option$LT$alloc..boxed..Box$LT$syn..path..PathSegment$GT$$GT$$GT$17h5de12a5a0f9e9ef9E', symObjAddr: 0x8560, symBinAddr: 0x88E20, symSize: 0xA0 }
  - { offsetInCU: 0x4AF70, offset: 0x34F1AF, size: 0x8, addend: 0x0, symName: '__ZN4core3ptr97drop_in_place$LT$syn..punctuated..Punctuated$LT$syn..expr..FieldValue$C$syn..token..Comma$GT$$GT$17hf58d0a9a09266ab3E.llvm.3179342279309578476', symObjAddr: 0x8600, symBinAddr: 0x88EC0, symSize: 0xF0 }
  - { offsetInCU: 0x4B2E9, offset: 0x34F528, size: 0x8, addend: 0x0, symName: '__ZN4core3ptr98drop_in_place$LT$syn..punctuated..Punctuated$LT$syn..lifetime..Lifetime$C$syn..token..Plus$GT$$GT$17h600c2b78f78fd2b9E', symObjAddr: 0x86F0, symBinAddr: 0x88FB0, symSize: 0xD0 }
  - { offsetInCU: 0x51625, offset: 0x355864, size: 0x8, addend: 0x0, symName: __ZN5alloc5alloc15exchange_malloc17h9a87608d0224859dE, symObjAddr: 0x87E0, symBinAddr: 0x89080, symSize: 0x40 }
  - { offsetInCU: 0x535CD, offset: 0x35780C, size: 0x8, addend: 0x0, symName: '__ZN69_$LT$alloc..boxed..Box$LT$T$C$A$GT$$u20$as$u20$core..clone..Clone$GT$5clone17h4fb5c51762622d36E', symObjAddr: 0x8E30, symBinAddr: 0x890C0, symSize: 0x90 }
  - { offsetInCU: 0x5529E, offset: 0x3594DD, size: 0x8, addend: 0x0, symName: __ZN3syn4expr4Expr13replace_attrs17h81659526e8109ac8E, symObjAddr: 0x9180, symBinAddr: 0x89150, symSize: 0x110 }
  - { offsetInCU: 0x56567, offset: 0x35A7A6, size: 0x8, addend: 0x0, symName: '__ZN3syn4expr7parsing40_$LT$impl$u20$syn..expr..RangeLimits$GT$14parse_obsolete17he8a69cc7d9cd98eeE', symObjAddr: 0xF9D0, symBinAddr: 0x8EB70, symSize: 0x3A0 }
  - { offsetInCU: 0x1834, offset: 0x369242, size: 0x8, addend: 0x0, symName: '__ZN4core3ptr100drop_in_place$LT$alloc..vec..Vec$LT$$LP$syn..generics..TypeParamBound$C$syn..token..Plus$RP$$GT$$GT$17hea181150e4b37806E.llvm.14025449986115119833', symObjAddr: 0x5D0, symBinAddr: 0x97670, symSize: 0xD0 }
  - { offsetInCU: 0x1B4E, offset: 0x36955C, size: 0x8, addend: 0x0, symName: '__ZN4core3ptr100drop_in_place$LT$core..option..Option$LT$alloc..boxed..Box$LT$syn..path..GenericArgument$GT$$GT$$GT$17h3a7c44b9e57fe410E', symObjAddr: 0x6A0, symBinAddr: 0x97740, symSize: 0x50 }
  - { offsetInCU: 0x1D1B, offset: 0x369729, size: 0x8, addend: 0x0, symName: '__ZN4core3ptr101drop_in_place$LT$alloc..vec..Vec$LT$$LP$syn..generics..WherePredicate$C$syn..token..Comma$RP$$GT$$GT$17h480aa68a207f67a8E.llvm.14025449986115119833', symObjAddr: 0x6F0, symBinAddr: 0x97790, symSize: 0xD0 }
  - { offsetInCU: 0x2039, offset: 0x369A47, size: 0x8, addend: 0x0, symName: '__ZN4core3ptr101drop_in_place$LT$core..option..Option$LT$alloc..boxed..Box$LT$syn..generics..GenericParam$GT$$GT$$GT$17h2bff155591650989E', symObjAddr: 0x7C0, symBinAddr: 0x97860, symSize: 0x50 }
  - { offsetInCU: 0x2225, offset: 0x369C33, size: 0x8, addend: 0x0, symName: '__ZN4core3ptr102drop_in_place$LT$syn..punctuated..Punctuated$LT$syn..path..GenericArgument$C$syn..token..Comma$GT$$GT$17h8b1978399cfff48bE.llvm.14025449986115119833', symObjAddr: 0x810, symBinAddr: 0x978B0, symSize: 0xF0 }
  - { offsetInCU: 0x254C, offset: 0x369F5A, size: 0x8, addend: 0x0, symName: '__ZN4core3ptr103drop_in_place$LT$core..option..Option$LT$alloc..boxed..Box$LT$syn..generics..TypeParamBound$GT$$GT$$GT$17hb14e4384a768542bE.llvm.14025449986115119833', symObjAddr: 0x900, symBinAddr: 0x979A0, symSize: 0x50 }
  - { offsetInCU: 0x26DB, offset: 0x36A0E9, size: 0x8, addend: 0x0, symName: '__ZN4core3ptr103drop_in_place$LT$core..option..Option$LT$alloc..boxed..Box$LT$syn..generics..WherePredicate$GT$$GT$$GT$17he190813f4819c5dbE', symObjAddr: 0x950, symBinAddr: 0x979F0, symSize: 0x50 }
  - { offsetInCU: 0x2905, offset: 0x36A313, size: 0x8, addend: 0x0, symName: '__ZN4core3ptr103drop_in_place$LT$syn..punctuated..Punctuated$LT$syn..generics..GenericParam$C$syn..token..Comma$GT$$GT$17h0c6077a988036760E.llvm.14025449986115119833', symObjAddr: 0x9A0, symBinAddr: 0x97A40, symSize: 0x1A0 }
  - { offsetInCU: 0x2FA7, offset: 0x36A9B5, size: 0x8, addend: 0x0, symName: '__ZN4core3ptr104drop_in_place$LT$syn..punctuated..Punctuated$LT$syn..generics..TypeParamBound$C$syn..token..Plus$GT$$GT$17h724e4d9d1d65061aE.llvm.14025449986115119833', symObjAddr: 0xB40, symBinAddr: 0x97BE0, symSize: 0x240 }
  - { offsetInCU: 0x38E2, offset: 0x36B2F0, size: 0x8, addend: 0x0, symName: '__ZN4core3ptr105drop_in_place$LT$syn..punctuated..Punctuated$LT$syn..generics..WherePredicate$C$syn..token..Comma$GT$$GT$17h18b5b213db2a676cE', symObjAddr: 0xD80, symBinAddr: 0x97E20, symSize: 0x1A0 }
  - { offsetInCU: 0x3FF1, offset: 0x36B9FF, size: 0x8, addend: 0x0, symName: '__ZN4core3ptr116drop_in_place$LT$core..option..Option$LT$$LP$syn..token..Else$C$alloc..boxed..Box$LT$syn..expr..Expr$GT$$RP$$GT$$GT$17h60c68b89176741daE', symObjAddr: 0xF20, symBinAddr: 0x97FC0, symSize: 0x50 }
  - { offsetInCU: 0x41F4, offset: 0x36BC02, size: 0x8, addend: 0x0, symName: '__ZN4core3ptr1247drop_in_place$LT$core..iter..adapters..flatten..Flatten$LT$core..iter..adapters..map..Map$LT$core..iter..adapters..map..Map$LT$core..iter..adapters..map..Map$LT$core..slice..iter..Iter$LT$syn..error..ErrorMessage$GT$$C$syn..error..ErrorMessage..to_compile_error$GT$$C$$LT$proc_macro2..TokenStream$u20$as$u20$core..iter..traits..collect..FromIterator$LT$proc_macro2..TokenStream$GT$$GT$..from_iter$LT$core..iter..adapters..map..Map$LT$core..slice..iter..Iter$LT$syn..error..ErrorMessage$GT$$C$syn..error..ErrorMessage..to_compile_error$GT$$GT$..$u7b$$u7b$closure$u7d$$u7d$$GT$$C$$LT$proc_macro2..imp..TokenStream$u20$as$u20$core..iter..traits..collect..FromIterator$LT$proc_macro2..imp..TokenStream$GT$$GT$..from_iter$LT$core..iter..adapters..map..Map$LT$core..iter..adapters..map..Map$LT$core..slice..iter..Iter$LT$syn..error..ErrorMessage$GT$$C$syn..error..ErrorMessage..to_compile_error$GT$$C$$LT$proc_macro2..TokenStream$u20$as$u20$core..iter..traits..collect..FromIterator$LT$proc_macro2..TokenStream$GT$$GT$..from_iter$LT$core..iter..adapters..map..Map$LT$core..slice..iter..Iter$LT$syn..error..ErrorMessage$GT$$C$syn..error..ErrorMessage..to_compile_error$GT$$GT$..$u7b$$u7b$closure$u7d$$u7d$$GT$$GT$..$u7b$$u7b$closure$u7d$$u7d$$GT$$GT$$GT$17hbfd06aec0e095371E', symObjAddr: 0xF70, symBinAddr: 0x98010, symSize: 0x60 }
  - { offsetInCU: 0x4378, offset: 0x36BD86, size: 0x8, addend: 0x0, symName: '__ZN4core3ptr126drop_in_place$LT$core..option..Option$LT$$LP$syn..token..And$C$core..option..Option$LT$syn..lifetime..Lifetime$GT$$RP$$GT$$GT$17h45c5d73e12cdf6f0E', symObjAddr: 0xFD0, symBinAddr: 0x98070, symSize: 0x30 }
  - { offsetInCU: 0x4607, offset: 0x36C015, size: 0x8, addend: 0x0, symName: '__ZN4core3ptr33drop_in_place$LT$syn..ty..Abi$GT$17h24b86e0564a98339E', symObjAddr: 0x1000, symBinAddr: 0x980A0, symSize: 0x70 }
  - { offsetInCU: 0x4623, offset: 0x36C031, size: 0x8, addend: 0x0, symName: '__ZN4core3ptr33drop_in_place$LT$syn..ty..Abi$GT$17h24b86e0564a98339E', symObjAddr: 0x1000, symBinAddr: 0x980A0, symSize: 0x70 }
  - { offsetInCU: 0x48FB, offset: 0x36C309, size: 0x8, addend: 0x0, symName: '__ZN4core3ptr34drop_in_place$LT$syn..lit..Lit$GT$17hd64dde89a262341dE', symObjAddr: 0x1070, symBinAddr: 0x98110, symSize: 0x120 }
  - { offsetInCU: 0x4E27, offset: 0x36C835, size: 0x8, addend: 0x0, symName: '__ZN4core3ptr34drop_in_place$LT$syn..pat..Pat$GT$17hf88887878261d63cE.llvm.14025449986115119833', symObjAddr: 0x1190, symBinAddr: 0x98230, symSize: 0x11B0 }
  - { offsetInCU: 0x96B9, offset: 0x3710C7, size: 0x8, addend: 0x0, symName: '__ZN4core3ptr34drop_in_place$LT$syn..ty..Type$GT$17ha80dd29b0f9d4a3fE.llvm.14025449986115119833', symObjAddr: 0x2340, symBinAddr: 0x993E0, symSize: 0x510 }
  - { offsetInCU: 0xA6FB, offset: 0x372109, size: 0x8, addend: 0x0, symName: '__ZN4core3ptr35drop_in_place$LT$syn..expr..Arm$GT$17hd729aea1406305a9E.llvm.14025449986115119833', symObjAddr: 0x2850, symBinAddr: 0x998F0, symSize: 0x170 }
  - { offsetInCU: 0xAD69, offset: 0x372777, size: 0x8, addend: 0x0, symName: '__ZN4core3ptr36drop_in_place$LT$syn..attr..Meta$GT$17h10362c0b846e6e23E.llvm.14025449986115119833', symObjAddr: 0x29C0, symBinAddr: 0x99A60, symSize: 0x320 }
  - { offsetInCU: 0xBCDE, offset: 0x3736EC, size: 0x8, addend: 0x0, symName: '__ZN4core3ptr36drop_in_place$LT$syn..expr..Expr$GT$17h10f573b40ddd212cE.llvm.14025449986115119833', symObjAddr: 0x2CE0, symBinAddr: 0x99D80, symSize: 0x25E0 }
  - { offsetInCU: 0x15886, offset: 0x37D294, size: 0x8, addend: 0x0, symName: '__ZN4core3ptr36drop_in_place$LT$syn..item..Item$GT$17haa59cf9e39ab8cebE.llvm.14025449986115119833', symObjAddr: 0x52C0, symBinAddr: 0x9C360, symSize: 0x17C0 }
  - { offsetInCU: 0x1B2B4, offset: 0x382CC2, size: 0x8, addend: 0x0, symName: '__ZN4core3ptr36drop_in_place$LT$syn..mac..Macro$GT$17hc3b30a7a8a34cc2dE', symObjAddr: 0x6A80, symBinAddr: 0x9DB20, symSize: 0xE0 }
  - { offsetInCU: 0x1B61C, offset: 0x38302A, size: 0x8, addend: 0x0, symName: '__ZN4core3ptr36drop_in_place$LT$syn..path..Path$GT$17h75c74a97d5f0a03bE.llvm.14025449986115119833', symObjAddr: 0x6B60, symBinAddr: 0x9DC00, symSize: 0x180 }
  - { offsetInCU: 0x1BC46, offset: 0x383654, size: 0x8, addend: 0x0, symName: '__ZN4core3ptr36drop_in_place$LT$syn..stmt..Stmt$GT$17hc4f94563f060e25dE.llvm.14025449986115119833', symObjAddr: 0x6CE0, symBinAddr: 0x9DD80, symSize: 0x380 }
  - { offsetInCU: 0x1C89C, offset: 0x3842AA, size: 0x8, addend: 0x0, symName: '__ZN4core3ptr37drop_in_place$LT$syn..data..Field$GT$17hb03070569ab32babE.llvm.14025449986115119833', symObjAddr: 0x7060, symBinAddr: 0x9E100, symSize: 0x190 }
  - { offsetInCU: 0x1CE8C, offset: 0x38489A, size: 0x8, addend: 0x0, symName: '__ZN4core3ptr37drop_in_place$LT$syn..item..FnArg$GT$17h470fdeee5cba5e3aE.llvm.14025449986115119833', symObjAddr: 0x71F0, symBinAddr: 0x9E290, symSize: 0x230 }
  - { offsetInCU: 0x1D7A3, offset: 0x3851B1, size: 0x8, addend: 0x0, symName: '__ZN4core3ptr37drop_in_place$LT$syn..stmt..Block$GT$17h6fc3254d5688f2c3E', symObjAddr: 0x7420, symBinAddr: 0x9E4C0, symSize: 0xD0 }
  - { offsetInCU: 0x1DA81, offset: 0x38548F, size: 0x8, addend: 0x0, symName: '__ZN4core3ptr38drop_in_place$LT$syn..expr..ExprIf$GT$17ha8d3c2042f45d05fE.llvm.14025449986115119833', symObjAddr: 0x74F0, symBinAddr: 0x9E590, symSize: 0x1B0 }
  - { offsetInCU: 0x1E35B, offset: 0x385D69, size: 0x8, addend: 0x0, symName: '__ZN4core3ptr38drop_in_place$LT$syn..expr..Member$GT$17h6b0cf84594ce6bceE.llvm.14025449986115119833', symObjAddr: 0x76A0, symBinAddr: 0x9E740, symSize: 0x30 }
  - { offsetInCU: 0x1E457, offset: 0x385E65, size: 0x8, addend: 0x0, symName: '__ZN4core3ptr38drop_in_place$LT$syn..pat..PatType$GT$17h835dce85ba90235eE.llvm.14025449986115119833', symObjAddr: 0x76D0, symBinAddr: 0x9E770, symSize: 0x140 }
  - { offsetInCU: 0x1EA09, offset: 0x386417, size: 0x8, addend: 0x0, symName: '__ZN4core3ptr39drop_in_place$LT$proc_macro2..Ident$GT$17ha28fef9769e267d9E.llvm.14025449986115119833', symObjAddr: 0x7810, symBinAddr: 0x9E8B0, symSize: 0x30 }
  - { offsetInCU: 0x1EC1C, offset: 0x38662A, size: 0x8, addend: 0x0, symName: '__ZN4core3ptr39drop_in_place$LT$syn..buffer..Entry$GT$17he93ada413d4474f7E.llvm.14025449986115119833', symObjAddr: 0x7840, symBinAddr: 0x9E8E0, symSize: 0xB0 }
  - { offsetInCU: 0x1F004, offset: 0x386A12, size: 0x8, addend: 0x0, symName: '__ZN4core3ptr39drop_in_place$LT$syn..data..Variant$GT$17h92766dd8637b4069E.llvm.14025449986115119833', symObjAddr: 0x78F0, symBinAddr: 0x9E990, symSize: 0x2F0 }
  - { offsetInCU: 0x1FC9F, offset: 0x3876AD, size: 0x8, addend: 0x0, symName: '__ZN4core3ptr39drop_in_place$LT$syn..item..UseTree$GT$17h7288572c631f954aE.llvm.14025449986115119833', symObjAddr: 0x7BE0, symBinAddr: 0x9EC80, symSize: 0x1E0 }
  - { offsetInCU: 0x203F8, offset: 0x387E06, size: 0x8, addend: 0x0, symName: '__ZN4core3ptr40drop_in_place$LT$syn..item..ImplItem$GT$17h98907b2080b0ccb0E', symObjAddr: 0x7DC0, symBinAddr: 0x9EE60, symSize: 0x220 }
  - { offsetInCU: 0x20A45, offset: 0x388453, size: 0x8, addend: 0x0, symName: '__ZN4core3ptr40drop_in_place$LT$syn..item..Receiver$GT$17h5e68a437c3b8e574E.llvm.14025449986115119833', symObjAddr: 0x7FE0, symBinAddr: 0x9F080, symSize: 0x130 }
  - { offsetInCU: 0x21043, offset: 0x388A51, size: 0x8, addend: 0x0, symName: '__ZN4core3ptr40drop_in_place$LT$syn..item..Variadic$GT$17hf9d4ebdb0f5e723aE', symObjAddr: 0x8110, symBinAddr: 0x9F1B0, symSize: 0x120 }
  - { offsetInCU: 0x214E6, offset: 0x388EF4, size: 0x8, addend: 0x0, symName: '__ZN4core3ptr40drop_in_place$LT$syn..ty..ReturnType$GT$17h035a612e322b6510E.llvm.14025449986115119833', symObjAddr: 0x8230, symBinAddr: 0x9F2D0, symSize: 0x50 }
  - { offsetInCU: 0x217AB, offset: 0x3891B9, size: 0x8, addend: 0x0, symName: '__ZN4core3ptr41drop_in_place$LT$syn..item..Signature$GT$17h41f785211ad8eb02E', symObjAddr: 0x8280, symBinAddr: 0x9F320, symSize: 0x270 }
  - { offsetInCU: 0x222C0, offset: 0x389CCE, size: 0x8, addend: 0x0, symName: '__ZN4core3ptr41drop_in_place$LT$syn..item..TraitItem$GT$17hc74edaa948c160a2E', symObjAddr: 0x84F0, symBinAddr: 0x9F590, symSize: 0x3D0 }
  - { offsetInCU: 0x22EFE, offset: 0x38A90C, size: 0x8, addend: 0x0, symName: '__ZN4core3ptr41drop_in_place$LT$syn..stmt..LocalInit$GT$17h30b5fda37459e0baE', symObjAddr: 0x88C0, symBinAddr: 0x9F960, symSize: 0xC0 }
  - { offsetInCU: 0x231EE, offset: 0x38ABFC, size: 0x8, addend: 0x0, symName: '__ZN4core3ptr42drop_in_place$LT$syn..item..ImplItemFn$GT$17haf8f89161f0a8aa1E', symObjAddr: 0x8980, symBinAddr: 0x9FA20, symSize: 0x230 }
  - { offsetInCU: 0x23992, offset: 0x38B3A0, size: 0x8, addend: 0x0, symName: '__ZN4core3ptr42drop_in_place$LT$syn..path..Constraint$GT$17h367871d1e7e54db0E', symObjAddr: 0x8BB0, symBinAddr: 0x9FC50, symSize: 0x160 }
  - { offsetInCU: 0x23F29, offset: 0x38B937, size: 0x8, addend: 0x0, symName: '__ZN4core3ptr43drop_in_place$LT$proc_macro2..TokenTree$GT$17h3cbee0aa221130b6E.llvm.14025449986115119833', symObjAddr: 0x8D10, symBinAddr: 0x9FDB0, symSize: 0xB0 }
  - { offsetInCU: 0x24286, offset: 0x38BC94, size: 0x8, addend: 0x0, symName: '__ZN4core3ptr43drop_in_place$LT$syn..data..FieldsNamed$GT$17h56bef6f151514865E', symObjAddr: 0x8DC0, symBinAddr: 0x9FE60, symSize: 0x120 }
  - { offsetInCU: 0x2474A, offset: 0x38C158, size: 0x8, addend: 0x0, symName: '__ZN4core3ptr43drop_in_place$LT$syn..item..ForeignItem$GT$17h8033abfc56dac52fE', symObjAddr: 0x8EE0, symBinAddr: 0x9FF80, symSize: 0x340 }
  - { offsetInCU: 0x2515B, offset: 0x38CB69, size: 0x8, addend: 0x0, symName: '__ZN4core3ptr43drop_in_place$LT$syn..path..PathSegment$GT$17h903332e979944cf4E.llvm.14025449986115119833', symObjAddr: 0x9220, symBinAddr: 0xA02C0, symSize: 0x190 }
  - { offsetInCU: 0x2573A, offset: 0x38D148, size: 0x8, addend: 0x0, symName: '__ZN4core3ptr44drop_in_place$LT$syn..generics..Generics$GT$17h671de917167f8b66E', symObjAddr: 0x93B0, symBinAddr: 0xA0450, symSize: 0x240 }
  - { offsetInCU: 0x2607B, offset: 0x38DA89, size: 0x8, addend: 0x0, symName: '__ZN4core3ptr44drop_in_place$LT$syn..item..ImplItemType$GT$17hb32b6c30c762cdafE', symObjAddr: 0x95F0, symBinAddr: 0xA0690, symSize: 0x1F0 }
  - { offsetInCU: 0x2668E, offset: 0x38E09C, size: 0x8, addend: 0x0, symName: '__ZN4core3ptr44drop_in_place$LT$syn..lifetime..Lifetime$GT$17he37fa474f03de7b1E.llvm.14025449986115119833', symObjAddr: 0x97E0, symBinAddr: 0xA0880, symSize: 0x30 }
  - { offsetInCU: 0x267E7, offset: 0x38E1F5, size: 0x8, addend: 0x0, symName: '__ZN4core3ptr45drop_in_place$LT$proc_macro2..TokenStream$GT$17h76e8e68015f4924dE.llvm.14025449986115119833', symObjAddr: 0x9810, symBinAddr: 0xA08B0, symSize: 0x70 }
  - { offsetInCU: 0x2694E, offset: 0x38E35C, size: 0x8, addend: 0x0, symName: '__ZN4core3ptr45drop_in_place$LT$syn..generics..TypeParam$GT$17h188a459c1380ac75E.llvm.14025449986115119833', symObjAddr: 0x9880, symBinAddr: 0xA0920, symSize: 0x230 }
  - { offsetInCU: 0x271EC, offset: 0x38EBFA, size: 0x8, addend: 0x0, symName: '__ZN4core3ptr45drop_in_place$LT$syn..item..ImplItemConst$GT$17he161f4752ea1c79dE', symObjAddr: 0x9AB0, symBinAddr: 0xA0B50, symSize: 0x210 }
  - { offsetInCU: 0x2783D, offset: 0x38F24B, size: 0x8, addend: 0x0, symName: '__ZN4core3ptr45drop_in_place$LT$syn..item..TraitItemType$GT$17h3e36cd56ba987949E', symObjAddr: 0x9CC0, symBinAddr: 0xA0D60, symSize: 0x290 }
  - { offsetInCU: 0x281A7, offset: 0x38FBB5, size: 0x8, addend: 0x0, symName: '__ZN4core3ptr45drop_in_place$LT$syn..path..PathArguments$GT$17hdbc6dfac6f3334e6E.llvm.14025449986115119833', symObjAddr: 0x9F50, symBinAddr: 0xA0FF0, symSize: 0xB0 }
  - { offsetInCU: 0x28378, offset: 0x38FD86, size: 0x8, addend: 0x0, symName: '__ZN4core3ptr46drop_in_place$LT$$u5b$syn..stmt..Stmt$u5d$$GT$17h24e62e137a325f40E.llvm.14025449986115119833', symObjAddr: 0xA000, symBinAddr: 0xA10A0, symSize: 0x2F0 }
  - { offsetInCU: 0x28A28, offset: 0x390436, size: 0x8, addend: 0x0, symName: '__ZN4core3ptr46drop_in_place$LT$syn..generics..ConstParam$GT$17h7a9b900b2b88bfcdE.llvm.14025449986115119833', symObjAddr: 0xA2F0, symBinAddr: 0xA1390, symSize: 0x150 }
  - { offsetInCU: 0x28E56, offset: 0x390864, size: 0x8, addend: 0x0, symName: '__ZN4core3ptr46drop_in_place$LT$syn..item..TraitItemConst$GT$17h1a851cb668e4b13cE', symObjAddr: 0xA440, symBinAddr: 0xA14E0, symSize: 0x1B0 }
  - { offsetInCU: 0x29337, offset: 0x390D45, size: 0x8, addend: 0x0, symName: '__ZN4core3ptr47drop_in_place$LT$syn..generics..WhereClause$GT$17h1a748a69ca415614E', symObjAddr: 0xA5F0, symBinAddr: 0xA1690, symSize: 0x120 }
  - { offsetInCU: 0x297BD, offset: 0x3911CB, size: 0x8, addend: 0x0, symName: '__ZN4core3ptr47drop_in_place$LT$syn..item..ForeignItemType$GT$17ha3462b8591c7bc98E', symObjAddr: 0xA710, symBinAddr: 0xA17B0, symSize: 0x1B0 }
  - { offsetInCU: 0x29E2B, offset: 0x391839, size: 0x8, addend: 0x0, symName: '__ZN4core3ptr47drop_in_place$LT$syn..path..GenericArgument$GT$17h593f06d6ca9a94d2E.llvm.14025449986115119833', symObjAddr: 0xA8C0, symBinAddr: 0xA1960, symSize: 0x1C0 }
  - { offsetInCU: 0x2A2EF, offset: 0x391CFD, size: 0x8, addend: 0x0, symName: '__ZN4core3ptr48drop_in_place$LT$syn..generics..GenericParam$GT$17hd6859d95c1b7c168E.llvm.14025449986115119833', symObjAddr: 0xAA80, symBinAddr: 0xA1B20, symSize: 0x150 }
  - { offsetInCU: 0x2A715, offset: 0x392123, size: 0x8, addend: 0x0, symName: '__ZN4core3ptr49drop_in_place$LT$syn..generics..LifetimeParam$GT$17h3a8835ab294bfd16E.llvm.14025449986115119833', symObjAddr: 0xABD0, symBinAddr: 0xA1C70, symSize: 0xF0 }
  - { offsetInCU: 0x2AB20, offset: 0x39252E, size: 0x8, addend: 0x0, symName: '__ZN4core3ptr49drop_in_place$LT$syn..generics..PredicateType$GT$17h28460a55196bd45fE.llvm.14025449986115119833', symObjAddr: 0xACC0, symBinAddr: 0xA1D60, symSize: 0x180 }
  - { offsetInCU: 0x2AFD8, offset: 0x3929E6, size: 0x8, addend: 0x0, symName: '__ZN4core3ptr49drop_in_place$LT$syn..item..ForeignItemStatic$GT$17h0b4273b292bce45dE', symObjAddr: 0xAE40, symBinAddr: 0xA1EE0, symSize: 0x190 }
  - { offsetInCU: 0x2B6DA, offset: 0x3930E8, size: 0x8, addend: 0x0, symName: '__ZN4core3ptr50drop_in_place$LT$$u5b$syn..item..ImplItem$u5d$$GT$17h9b63e3c09d4f2fecE.llvm.14025449986115119833', symObjAddr: 0xAFD0, symBinAddr: 0xA2070, symSize: 0x210 }
  - { offsetInCU: 0x2BA4E, offset: 0x39345C, size: 0x8, addend: 0x0, symName: '__ZN4core3ptr50drop_in_place$LT$syn..generics..TypeParamBound$GT$17h81b4325b5900604dE.llvm.14025449986115119833', symObjAddr: 0xB1E0, symBinAddr: 0xA2280, symSize: 0xA0 }
  - { offsetInCU: 0x2BBD3, offset: 0x3935E1, size: 0x8, addend: 0x0, symName: '__ZN4core3ptr50drop_in_place$LT$syn..generics..WherePredicate$GT$17h1dcd41fbf166681cE.llvm.14025449986115119833', symObjAddr: 0xB280, symBinAddr: 0xA2320, symSize: 0xA0 }
  - { offsetInCU: 0x2BD83, offset: 0x393791, size: 0x8, addend: 0x0, symName: '__ZN4core3ptr51drop_in_place$LT$$u5b$syn..item..TraitItem$u5d$$GT$17hfac7130e0b19ef2eE.llvm.14025449986115119833', symObjAddr: 0xB320, symBinAddr: 0xA23C0, symSize: 0x3E0 }
  - { offsetInCU: 0x2C725, offset: 0x394133, size: 0x8, addend: 0x0, symName: '__ZN4core3ptr52drop_in_place$LT$syn..restriction..VisRestricted$GT$17h3b9d7a9742b1c345E', symObjAddr: 0xB700, symBinAddr: 0xA27A0, symSize: 0x50 }
  - { offsetInCU: 0x2C8BC, offset: 0x3942CA, size: 0x8, addend: 0x0, symName: '__ZN4core3ptr53drop_in_place$LT$$u5b$syn..item..ForeignItem$u5d$$GT$17h566f3fc649dbb42bE.llvm.14025449986115119833', symObjAddr: 0xB750, symBinAddr: 0xA27F0, symSize: 0x370 }
  - { offsetInCU: 0x2D0DA, offset: 0x394AE8, size: 0x8, addend: 0x0, symName: '__ZN4core3ptr58drop_in_place$LT$alloc..vec..Vec$LT$syn..expr..Arm$GT$$GT$17hff9224aadf2233b8E.llvm.14025449986115119833', symObjAddr: 0xBAE0, symBinAddr: 0xA2B60, symSize: 0xD0 }
  - { offsetInCU: 0x2D3A1, offset: 0x394DAF, size: 0x8, addend: 0x0, symName: '__ZN4core3ptr59drop_in_place$LT$alloc..boxed..Box$LT$syn..pat..Pat$GT$$GT$17h622b0c1db21c0742E.llvm.14025449986115119833', symObjAddr: 0xBBB0, symBinAddr: 0xA2C30, symSize: 0x50 }
  - { offsetInCU: 0x2D4FA, offset: 0x394F08, size: 0x8, addend: 0x0, symName: '__ZN4core3ptr59drop_in_place$LT$alloc..boxed..Box$LT$syn..ty..Type$GT$$GT$17hde45fa887dd8b605E.llvm.14025449986115119833', symObjAddr: 0xBC00, symBinAddr: 0xA2C80, symSize: 0x50 }
  - { offsetInCU: 0x2D653, offset: 0x395061, size: 0x8, addend: 0x0, symName: '__ZN4core3ptr59drop_in_place$LT$alloc..vec..Vec$LT$syn..item..Item$GT$$GT$17h8590e8c8e196c3c2E.llvm.14025449986115119833', symObjAddr: 0xBC50, symBinAddr: 0xA2CD0, symSize: 0xD0 }
  - { offsetInCU: 0x2D91A, offset: 0x395328, size: 0x8, addend: 0x0, symName: '__ZN4core3ptr59drop_in_place$LT$alloc..vec..Vec$LT$syn..stmt..Stmt$GT$$GT$17h6cf3e54f41bc03bdE.llvm.14025449986115119833', symObjAddr: 0xBD20, symBinAddr: 0xA2DA0, symSize: 0x80 }
  - { offsetInCU: 0x2DBD2, offset: 0x3955E0, size: 0x8, addend: 0x0, symName: '__ZN4core3ptr61drop_in_place$LT$alloc..boxed..Box$LT$syn..expr..Expr$GT$$GT$17hbb42293869113942E', symObjAddr: 0xBDA0, symBinAddr: 0xA2E20, symSize: 0x50 }
  - { offsetInCU: 0x2DD2B, offset: 0x395739, size: 0x8, addend: 0x0, symName: '__ZN4core3ptr61drop_in_place$LT$alloc..boxed..Box$LT$syn..path..Path$GT$$GT$17h038a2aea8fe87c28E', symObjAddr: 0xBDF0, symBinAddr: 0xA2E70, symSize: 0x100 }
  - { offsetInCU: 0x2E24B, offset: 0x395C59, size: 0x8, addend: 0x0, symName: '__ZN4core3ptr61drop_in_place$LT$syn..path..ParenthesizedGenericArguments$GT$17h6b1731382637937fE', symObjAddr: 0xBEF0, symBinAddr: 0xA2F70, symSize: 0x170 }
  - { offsetInCU: 0x2E848, offset: 0x396256, size: 0x8, addend: 0x0, symName: '__ZN4core3ptr62drop_in_place$LT$alloc..boxed..Box$LT$syn..data..Field$GT$$GT$17hd46c7cc6f292f643E', symObjAddr: 0xC060, symBinAddr: 0xA30E0, symSize: 0x50 }
  - { offsetInCU: 0x2E9C0, offset: 0x3963CE, size: 0x8, addend: 0x0, symName: '__ZN4core3ptr62drop_in_place$LT$alloc..boxed..Box$LT$syn..item..FnArg$GT$$GT$17haeb55dec21588d58E', symObjAddr: 0xC0B0, symBinAddr: 0xA3130, symSize: 0x60 }
  - { offsetInCU: 0x2EB36, offset: 0x396544, size: 0x8, addend: 0x0, symName: '__ZN4core3ptr62drop_in_place$LT$alloc..boxed..Box$LT$syn..stmt..Block$GT$$GT$17h21dcb5adf0237a12E', symObjAddr: 0xC110, symBinAddr: 0xA3190, symSize: 0xE0 }
  - { offsetInCU: 0x2EF8D, offset: 0x39699B, size: 0x8, addend: 0x0, symName: '__ZN4core3ptr62drop_in_place$LT$alloc..vec..Vec$LT$syn..buffer..Entry$GT$$GT$17h17f61a784aa49e8bE.llvm.14025449986115119833', symObjAddr: 0xC1F0, symBinAddr: 0xA3270, symSize: 0xC0 }
  - { offsetInCU: 0x2F265, offset: 0x396C73, size: 0x8, addend: 0x0, symName: '__ZN4core3ptr62drop_in_place$LT$syn..path..AngleBracketedGenericArguments$GT$17hf8fa172f007a1473E', symObjAddr: 0xC2B0, symBinAddr: 0xA3330, symSize: 0x120 }
  - { offsetInCU: 0x2F6EB, offset: 0x3970F9, size: 0x8, addend: 0x0, symName: '__ZN4core3ptr63drop_in_place$LT$alloc..vec..Vec$LT$syn..item..ImplItem$GT$$GT$17hc51fca07e67d35aeE.llvm.14025449986115119833', symObjAddr: 0xC3D0, symBinAddr: 0xA3450, symSize: 0x80 }
  - { offsetInCU: 0x2F9A3, offset: 0x3973B1, size: 0x8, addend: 0x0, symName: '__ZN4core3ptr64drop_in_place$LT$alloc..boxed..Box$LT$syn..data..Variant$GT$$GT$17h9ea21bed4984fdbcE', symObjAddr: 0xC450, symBinAddr: 0xA34D0, symSize: 0x50 }
  - { offsetInCU: 0x2FAFC, offset: 0x39750A, size: 0x8, addend: 0x0, symName: '__ZN4core3ptr64drop_in_place$LT$alloc..boxed..Box$LT$syn..item..UseTree$GT$$GT$17he4d7024582150632E', symObjAddr: 0xC4A0, symBinAddr: 0xA3520, symSize: 0x50 }
  - { offsetInCU: 0x2FC93, offset: 0x3976A1, size: 0x8, addend: 0x0, symName: '__ZN4core3ptr64drop_in_place$LT$alloc..boxed..Box$LT$syn..pat..FieldPat$GT$$GT$17hbf8f4867d84bd25dE', symObjAddr: 0xC4F0, symBinAddr: 0xA3570, symSize: 0x140 }
  - { offsetInCU: 0x3035D, offset: 0x397D6B, size: 0x8, addend: 0x0, symName: '__ZN4core3ptr64drop_in_place$LT$alloc..boxed..Box$LT$syn..ty..BareFnArg$GT$$GT$17h6be6354eb1d1364dE', symObjAddr: 0xC630, symBinAddr: 0xA36B0, symSize: 0x140 }
  - { offsetInCU: 0x308F0, offset: 0x3982FE, size: 0x8, addend: 0x0, symName: '__ZN4core3ptr64drop_in_place$LT$alloc..vec..Vec$LT$syn..attr..Attribute$GT$$GT$17he33e25539d5885aeE.llvm.14025449986115119833', symObjAddr: 0xC770, symBinAddr: 0xA37F0, symSize: 0xD0 }
  - { offsetInCU: 0x30BEB, offset: 0x3985F9, size: 0x8, addend: 0x0, symName: '__ZN4core3ptr64drop_in_place$LT$alloc..vec..Vec$LT$syn..item..TraitItem$GT$$GT$17hff1cc01ccae80d7aE.llvm.14025449986115119833', symObjAddr: 0xC840, symBinAddr: 0xA38C0, symSize: 0x80 }
  - { offsetInCU: 0x30EA3, offset: 0x3988B1, size: 0x8, addend: 0x0, symName: '__ZN4core3ptr65drop_in_place$LT$$LP$syn..item..FnArg$C$syn..token..Comma$RP$$GT$17heafa789770a727bbE.llvm.14025449986115119833', symObjAddr: 0xC8C0, symBinAddr: 0xA3940, symSize: 0x20 }
  - { offsetInCU: 0x30F3C, offset: 0x39894A, size: 0x8, addend: 0x0, symName: '__ZN4core3ptr65drop_in_place$LT$alloc..vec..Vec$LT$proc_macro..TokenTree$GT$$GT$17h8abd81f8596dbc59E.llvm.14025449986115119833', symObjAddr: 0xC8E0, symBinAddr: 0xA3960, symSize: 0x110 }
  - { offsetInCU: 0x3134E, offset: 0x398D5C, size: 0x8, addend: 0x0, symName: '__ZN4core3ptr65drop_in_place$LT$core..option..Option$LT$syn..expr..Label$GT$$GT$17hac599686b33ef364E', symObjAddr: 0xC9F0, symBinAddr: 0xA3A70, symSize: 0x30 }
  - { offsetInCU: 0x31488, offset: 0x398E96, size: 0x8, addend: 0x0, symName: '__ZN4core3ptr65drop_in_place$LT$core..option..Option$LT$syn..stmt..Block$GT$$GT$17h74f2551ed24e2d27E', symObjAddr: 0xCA20, symBinAddr: 0xA3AA0, symSize: 0xD0 }
  - { offsetInCU: 0x3179B, offset: 0x3991A9, size: 0x8, addend: 0x0, symName: '__ZN4core3ptr66drop_in_place$LT$alloc..vec..Vec$LT$proc_macro2..TokenTree$GT$$GT$17hddd511686bdb58d1E', symObjAddr: 0xCAF0, symBinAddr: 0xA3B70, symSize: 0xC0 }
  - { offsetInCU: 0x31A73, offset: 0x399481, size: 0x8, addend: 0x0, symName: '__ZN4core3ptr66drop_in_place$LT$alloc..vec..Vec$LT$syn..item..ForeignItem$GT$$GT$17h1f176e04eaf5e0dfE.llvm.14025449986115119833', symObjAddr: 0xCBB0, symBinAddr: 0xA3C30, symSize: 0x80 }
  - { offsetInCU: 0x31D2B, offset: 0x399739, size: 0x8, addend: 0x0, symName: '__ZN4core3ptr67drop_in_place$LT$$LP$syn..pat..FieldPat$C$syn..token..Comma$RP$$GT$17h27317b85bbb0d5a5E.llvm.14025449986115119833', symObjAddr: 0xCC30, symBinAddr: 0xA3CB0, symSize: 0x120 }
  - { offsetInCU: 0x322C0, offset: 0x399CCE, size: 0x8, addend: 0x0, symName: '__ZN4core3ptr67drop_in_place$LT$$LP$syn..ty..BareFnArg$C$syn..token..Comma$RP$$GT$17h983f3d51957c3a07E.llvm.14025449986115119833', symObjAddr: 0xCD50, symBinAddr: 0xA3DD0, symSize: 0x110 }
  - { offsetInCU: 0x3273E, offset: 0x39A14C, size: 0x8, addend: 0x0, symName: '__ZN4core3ptr67drop_in_place$LT$alloc..boxed..Box$LT$syn..expr..FieldValue$GT$$GT$17hbbcf67a9d5e9863cE', symObjAddr: 0xCE60, symBinAddr: 0xA3EE0, symSize: 0x140 }
  - { offsetInCU: 0x32CB1, offset: 0x39A6BF, size: 0x8, addend: 0x0, symName: '__ZN4core3ptr68drop_in_place$LT$alloc..boxed..Box$LT$syn..path..PathSegment$GT$$GT$17h99aaf90b3262bc1eE', symObjAddr: 0xCFA0, symBinAddr: 0xA4020, symSize: 0xF0 }
  - { offsetInCU: 0x330B3, offset: 0x39AAC1, size: 0x8, addend: 0x0, symName: '__ZN4core3ptr69drop_in_place$LT$core..option..Option$LT$syn..stmt..LocalInit$GT$$GT$17h0978f9ea6e6b3bd1E', symObjAddr: 0xD120, symBinAddr: 0xA4110, symSize: 0xC0 }
  - { offsetInCU: 0x333D7, offset: 0x39ADE5, size: 0x8, addend: 0x0, symName: '__ZN4core3ptr70drop_in_place$LT$$LP$syn..expr..FieldValue$C$syn..token..Comma$RP$$GT$17h7bfdad78936e9ce8E.llvm.14025449986115119833', symObjAddr: 0xD1E0, symBinAddr: 0xA41D0, symSize: 0x110 }
  - { offsetInCU: 0x33816, offset: 0x39B224, size: 0x8, addend: 0x0, symName: '__ZN4core3ptr70drop_in_place$LT$core..option..Option$LT$syn..ty..BareVariadic$GT$$GT$17h79a19250e9f043b1E', symObjAddr: 0xD2F0, symBinAddr: 0xA42E0, symSize: 0x100 }
  - { offsetInCU: 0x33C75, offset: 0x39B683, size: 0x8, addend: 0x0, symName: '__ZN4core3ptr72drop_in_place$LT$alloc..boxed..Box$LT$syn..path..GenericArgument$GT$$GT$17hfd308d374af4273dE.llvm.14025449986115119833', symObjAddr: 0xD3F0, symBinAddr: 0xA43E0, symSize: 0x190 }
  - { offsetInCU: 0x3413D, offset: 0x39BB4B, size: 0x8, addend: 0x0, symName: '__ZN4core3ptr73drop_in_place$LT$$LP$syn..path..PathSegment$C$syn..token..PathSep$RP$$GT$17he36d39e19c04f3acE.llvm.14025449986115119833', symObjAddr: 0xD580, symBinAddr: 0xA4570, symSize: 0xD0 }
  - { offsetInCU: 0x34400, offset: 0x39BE0E, size: 0x8, addend: 0x0, symName: '__ZN4core3ptr73drop_in_place$LT$alloc..boxed..Box$LT$syn..generics..GenericParam$GT$$GT$17ha26d5d145af4b203E', symObjAddr: 0xD650, symBinAddr: 0xA4640, symSize: 0x80 }
  - { offsetInCU: 0x34576, offset: 0x39BF84, size: 0x8, addend: 0x0, symName: '__ZN4core3ptr75drop_in_place$LT$$LP$syn..path..GenericArgument$C$syn..token..Comma$RP$$GT$17hfc5ffe6787775104E.llvm.14025449986115119833', symObjAddr: 0xD6D0, symBinAddr: 0xA46C0, symSize: 0x180 }
  - { offsetInCU: 0x34904, offset: 0x39C312, size: 0x8, addend: 0x0, symName: '__ZN4core3ptr75drop_in_place$LT$alloc..boxed..Box$LT$syn..generics..TypeParamBound$GT$$GT$17h129a4e927e5eb81bE', symObjAddr: 0xD850, symBinAddr: 0xA4840, symSize: 0x180 }
  - { offsetInCU: 0x34ECE, offset: 0x39C8DC, size: 0x8, addend: 0x0, symName: '__ZN4core3ptr75drop_in_place$LT$alloc..boxed..Box$LT$syn..generics..WherePredicate$GT$$GT$17h9bdeede2dbadbeb6E', symObjAddr: 0xD9D0, symBinAddr: 0xA49C0, symSize: 0x80 }
  - { offsetInCU: 0x35165, offset: 0x39CB73, size: 0x8, addend: 0x0, symName: '__ZN4core3ptr76drop_in_place$LT$$LP$syn..generics..GenericParam$C$syn..token..Comma$RP$$GT$17hfa938bd7ff9e78c2E.llvm.14025449986115119833', symObjAddr: 0xDA50, symBinAddr: 0xA4A40, symSize: 0x40 }
  - { offsetInCU: 0x351A1, offset: 0x39CBAF, size: 0x8, addend: 0x0, symName: '__ZN4core3ptr77drop_in_place$LT$$LP$syn..generics..TypeParamBound$C$syn..token..Plus$RP$$GT$17h900d162b03245e2aE.llvm.14025449986115119833', symObjAddr: 0xDA90, symBinAddr: 0xA4A80, symSize: 0x180 }
  - { offsetInCU: 0x3563D, offset: 0x39D04B, size: 0x8, addend: 0x0, symName: '__ZN4core3ptr78drop_in_place$LT$$LP$syn..generics..WherePredicate$C$syn..token..Comma$RP$$GT$17hdfe19ac5c370d71bE.llvm.14025449986115119833', symObjAddr: 0xDC10, symBinAddr: 0xA4C00, symSize: 0x60 }
  - { offsetInCU: 0x357F7, offset: 0x39D205, size: 0x8, addend: 0x0, symName: '__ZN4core3ptr82drop_in_place$LT$alloc..vec..Vec$LT$$LP$syn..pat..Pat$C$syn..token..Or$RP$$GT$$GT$17h1f0f428d7b2d8011E.llvm.14025449986115119833', symObjAddr: 0xDC70, symBinAddr: 0xA4C60, symSize: 0x0 }
  - { offsetInCU: 0x35AF6, offset: 0x39D504, size: 0x8, addend: 0x0, symName: '__ZN4core3ptr85drop_in_place$LT$alloc..vec..Vec$LT$$LP$syn..ty..Type$C$syn..token..Comma$RP$$GT$$GT$17h0cf4844ea7ad9568E.llvm.14025449986115119833', symObjAddr: 0xDD40, symBinAddr: 0xA4D30, symSize: 0xD0 }
  - { offsetInCU: 0x35DF1, offset: 0x39D7FF, size: 0x8, addend: 0x0, symName: '__ZN4core3ptr86drop_in_place$LT$$LP$syn..token..If$C$alloc..boxed..Box$LT$syn..expr..Expr$GT$$RP$$GT$17hf09fe3e5c3a4feb0E', symObjAddr: 0xDE10, symBinAddr: 0xA4E00, symSize: 0x50 }
  - { offsetInCU: 0x35FA7, offset: 0x39D9B5, size: 0x8, addend: 0x0, symName: '__ZN4core3ptr86drop_in_place$LT$syn..punctuated..Punctuated$LT$syn..pat..Pat$C$syn..token..Or$GT$$GT$17h9cc6b5f7b6d3a555E', symObjAddr: 0xDE60, symBinAddr: 0xA4E50, symSize: 0x120 }
  - { offsetInCU: 0x36440, offset: 0x39DE4E, size: 0x8, addend: 0x0, symName: '__ZN4core3ptr87drop_in_place$LT$$LP$alloc..boxed..Box$LT$syn..pat..Pat$GT$$C$syn..token..Colon$RP$$GT$17h1f05e7b69125af95E', symObjAddr: 0xDF80, symBinAddr: 0xA4F70, symSize: 0x50 }
  - { offsetInCU: 0x36615, offset: 0x39E023, size: 0x8, addend: 0x0, symName: '__ZN4core3ptr87drop_in_place$LT$alloc..vec..Vec$LT$$LP$syn..expr..Expr$C$syn..token..Comma$RP$$GT$$GT$17hd1036fba4025974bE.llvm.14025449986115119833', symObjAddr: 0xDFD0, symBinAddr: 0xA4FC0, symSize: 0xD0 }
  - { offsetInCU: 0x36910, offset: 0x39E31E, size: 0x8, addend: 0x0, symName: '__ZN4core3ptr87drop_in_place$LT$core..option..Option$LT$alloc..boxed..Box$LT$syn..ty..Type$GT$$GT$$GT$17h103a25a4a7d7374eE', symObjAddr: 0xE0A0, symBinAddr: 0xA5090, symSize: 0x50 }
  - { offsetInCU: 0x36A80, offset: 0x39E48E, size: 0x8, addend: 0x0, symName: '__ZN4core3ptr88drop_in_place$LT$alloc..vec..Vec$LT$$LP$syn..data..Field$C$syn..token..Comma$RP$$GT$$GT$17h066c67d26ce3e154E.llvm.14025449986115119833', symObjAddr: 0xE0F0, symBinAddr: 0xA50E0, symSize: 0xD0 }
  - { offsetInCU: 0x36D7F, offset: 0x39E78D, size: 0x8, addend: 0x0, symName: '__ZN4core3ptr88drop_in_place$LT$alloc..vec..Vec$LT$$LP$syn..item..FnArg$C$syn..token..Comma$RP$$GT$$GT$17he8d49cd20c575884E.llvm.14025449986115119833', symObjAddr: 0xE1C0, symBinAddr: 0xA51B0, symSize: 0xC0 }
  - { offsetInCU: 0x37078, offset: 0x39EA86, size: 0x8, addend: 0x0, symName: '__ZN4core3ptr89drop_in_place$LT$core..option..Option$LT$alloc..boxed..Box$LT$syn..expr..Expr$GT$$GT$$GT$17h9e02509cb2345d44E', symObjAddr: 0xE280, symBinAddr: 0xA5270, symSize: 0x50 }
  - { offsetInCU: 0x371E8, offset: 0x39EBF6, size: 0x8, addend: 0x0, symName: '__ZN4core3ptr89drop_in_place$LT$syn..punctuated..Punctuated$LT$syn..ty..Type$C$syn..token..Comma$GT$$GT$17he030c4b7f24a5848E.llvm.14025449986115119833', symObjAddr: 0xE2D0, symBinAddr: 0xA52C0, symSize: 0x120 }
  - { offsetInCU: 0x376C7, offset: 0x39F0D5, size: 0x8, addend: 0x0, symName: '__ZN4core3ptr90drop_in_place$LT$alloc..vec..Vec$LT$$LP$syn..data..Variant$C$syn..token..Comma$RP$$GT$$GT$17h3ac8ecccf673c389E.llvm.14025449986115119833', symObjAddr: 0xE3F0, symBinAddr: 0xA53E0, symSize: 0xD0 }
  - { offsetInCU: 0x379C2, offset: 0x39F3D0, size: 0x8, addend: 0x0, symName: '__ZN4core3ptr90drop_in_place$LT$alloc..vec..Vec$LT$$LP$syn..item..UseTree$C$syn..token..Comma$RP$$GT$$GT$17h1e4fface25e12fe6E.llvm.14025449986115119833', symObjAddr: 0xE4C0, symBinAddr: 0xA54B0, symSize: 0xD0 }
  - { offsetInCU: 0x37CFD, offset: 0x39F70B, size: 0x8, addend: 0x0, symName: '__ZN4core3ptr90drop_in_place$LT$alloc..vec..Vec$LT$$LP$syn..pat..FieldPat$C$syn..token..Comma$RP$$GT$$GT$17h4d0a520927a96123E.llvm.14025449986115119833', symObjAddr: 0xE590, symBinAddr: 0xA5580, symSize: 0xD0 }
  - { offsetInCU: 0x38004, offset: 0x39FA12, size: 0x8, addend: 0x0, symName: '__ZN4core3ptr90drop_in_place$LT$alloc..vec..Vec$LT$$LP$syn..ty..BareFnArg$C$syn..token..Comma$RP$$GT$$GT$17h86271563b6e0e7d6E.llvm.14025449986115119833', symObjAddr: 0xE660, symBinAddr: 0xA5650, symSize: 0xD0 }
  - { offsetInCU: 0x382CF, offset: 0x39FCDD, size: 0x8, addend: 0x0, symName: '__ZN4core3ptr90drop_in_place$LT$core..option..Option$LT$alloc..boxed..Box$LT$syn..data..Field$GT$$GT$$GT$17h9f1aee8cd56c6727E', symObjAddr: 0xE730, symBinAddr: 0xA5720, symSize: 0x50 }
  - { offsetInCU: 0x3843F, offset: 0x39FE4D, size: 0x8, addend: 0x0, symName: '__ZN4core3ptr90drop_in_place$LT$core..option..Option$LT$alloc..boxed..Box$LT$syn..item..FnArg$GT$$GT$$GT$17h8635495a730dc0bfE', symObjAddr: 0xE780, symBinAddr: 0xA5770, symSize: 0x50 }
  - { offsetInCU: 0x385CE, offset: 0x39FFDC, size: 0x8, addend: 0x0, symName: '__ZN4core3ptr91drop_in_place$LT$syn..punctuated..Punctuated$LT$syn..expr..Expr$C$syn..token..Comma$GT$$GT$17h6f261e8f470c81f2E', symObjAddr: 0xE7D0, symBinAddr: 0xA57C0, symSize: 0x120 }
  - { offsetInCU: 0x38A63, offset: 0x3A0471, size: 0x8, addend: 0x0, symName: '__ZN4core3ptr92drop_in_place$LT$core..option..Option$LT$$LP$syn..token..As$C$proc_macro2..Ident$RP$$GT$$GT$17h12a88945917fa9dbE', symObjAddr: 0xE8F0, symBinAddr: 0xA58E0, symSize: 0x30 }
  - { offsetInCU: 0x38B7E, offset: 0x3A058C, size: 0x8, addend: 0x0, symName: '__ZN4core3ptr92drop_in_place$LT$syn..punctuated..Punctuated$LT$syn..data..Field$C$syn..token..Comma$GT$$GT$17hf8968831c552f88dE', symObjAddr: 0xE920, symBinAddr: 0xA5910, symSize: 0x120 }
  - { offsetInCU: 0x39004, offset: 0x3A0A12, size: 0x8, addend: 0x0, symName: '__ZN4core3ptr92drop_in_place$LT$syn..punctuated..Punctuated$LT$syn..item..FnArg$C$syn..token..Comma$GT$$GT$17h7de33e77eabaea82E', symObjAddr: 0xEA40, symBinAddr: 0xA5A30, symSize: 0x150 }
  - { offsetInCU: 0x394D3, offset: 0x3A0EE1, size: 0x8, addend: 0x0, symName: '__ZN4core3ptr93drop_in_place$LT$alloc..vec..Vec$LT$$LP$syn..expr..FieldValue$C$syn..token..Comma$RP$$GT$$GT$17hf889827bae7d8b64E.llvm.14025449986115119833', symObjAddr: 0xEB90, symBinAddr: 0xA5B80, symSize: 0xD0 }
  - { offsetInCU: 0x397F7, offset: 0x3A1205, size: 0x8, addend: 0x0, symName: '__ZN4core3ptr94drop_in_place$LT$alloc..vec..Vec$LT$$LP$syn..lifetime..Lifetime$C$syn..token..Plus$RP$$GT$$GT$17h446c63e6d8248f75E.llvm.14025449986115119833', symObjAddr: 0xEC60, symBinAddr: 0xA5C50, symSize: 0x90 }
  - { offsetInCU: 0x39AF8, offset: 0x3A1506, size: 0x8, addend: 0x0, symName: '__ZN4core3ptr94drop_in_place$LT$syn..punctuated..Punctuated$LT$syn..data..Variant$C$syn..token..Comma$GT$$GT$17h310cd79aba4529ccE', symObjAddr: 0xECF0, symBinAddr: 0xA5CE0, symSize: 0x120 }
  - { offsetInCU: 0x39FCB, offset: 0x3A19D9, size: 0x8, addend: 0x0, symName: '__ZN4core3ptr94drop_in_place$LT$syn..punctuated..Punctuated$LT$syn..pat..FieldPat$C$syn..token..Comma$GT$$GT$17h43ec25af986ef674E', symObjAddr: 0xEE10, symBinAddr: 0xA5E00, symSize: 0xF0 }
  - { offsetInCU: 0x3A322, offset: 0x3A1D30, size: 0x8, addend: 0x0, symName: '__ZN4core3ptr94drop_in_place$LT$syn..punctuated..Punctuated$LT$syn..ty..BareFnArg$C$syn..token..Comma$GT$$GT$17h7ba4c699ee390ebaE', symObjAddr: 0xEF00, symBinAddr: 0xA5EF0, symSize: 0xF0 }
  - { offsetInCU: 0x3A63D, offset: 0x3A204B, size: 0x8, addend: 0x0, symName: '__ZN4core3ptr95drop_in_place$LT$core..option..Option$LT$$LP$proc_macro2..Ident$C$syn..token..Colon$RP$$GT$$GT$17h59fe297999aa3329E.llvm.14025449986115119833', symObjAddr: 0xEFF0, symBinAddr: 0xA5FE0, symSize: 0x30 }
  - { offsetInCU: 0x3A758, offset: 0x3A2166, size: 0x8, addend: 0x0, symName: '__ZN4core3ptr96drop_in_place$LT$alloc..vec..Vec$LT$$LP$syn..path..PathSegment$C$syn..token..PathSep$RP$$GT$$GT$17h69d97f03bb66469bE.llvm.14025449986115119833', symObjAddr: 0xF020, symBinAddr: 0xA6010, symSize: 0xD0 }
  - { offsetInCU: 0x3AA55, offset: 0x3A2463, size: 0x8, addend: 0x0, symName: '__ZN4core3ptr96drop_in_place$LT$core..option..Option$LT$alloc..boxed..Box$LT$syn..path..PathSegment$GT$$GT$$GT$17h5de12a5a0f9e9ef9E', symObjAddr: 0xF0F0, symBinAddr: 0xA60E0, symSize: 0xA0 }
  - { offsetInCU: 0x3AD31, offset: 0x3A273F, size: 0x8, addend: 0x0, symName: '__ZN4core3ptr97drop_in_place$LT$syn..punctuated..Punctuated$LT$syn..expr..FieldValue$C$syn..token..Comma$GT$$GT$17hf58d0a9a09266ab3E', symObjAddr: 0xF1E0, symBinAddr: 0xA6180, symSize: 0xF0 }
  - { offsetInCU: 0x3B048, offset: 0x3A2A56, size: 0x8, addend: 0x0, symName: '__ZN4core3ptr98drop_in_place$LT$alloc..vec..Vec$LT$$LP$syn..path..GenericArgument$C$syn..token..Comma$RP$$GT$$GT$17h0dee282a026d5a38E.llvm.14025449986115119833', symObjAddr: 0xF2D0, symBinAddr: 0xA6270, symSize: 0xD0 }
  - { offsetInCU: 0x3B385, offset: 0x3A2D93, size: 0x8, addend: 0x0, symName: '__ZN4core3ptr98drop_in_place$LT$syn..punctuated..Punctuated$LT$syn..lifetime..Lifetime$C$syn..token..Plus$GT$$GT$17h600c2b78f78fd2b9E.llvm.14025449986115119833', symObjAddr: 0xF3A0, symBinAddr: 0xA6340, symSize: 0xD0 }
  - { offsetInCU: 0x3B7F7, offset: 0x3A3205, size: 0x8, addend: 0x0, symName: '__ZN4core3ptr99drop_in_place$LT$alloc..vec..Vec$LT$$LP$syn..generics..GenericParam$C$syn..token..Comma$RP$$GT$$GT$17haeaa257234ab8b89E.llvm.14025449986115119833', symObjAddr: 0xF470, symBinAddr: 0xA6410, symSize: 0xD0 }
  - { offsetInCU: 0x3BE99, offset: 0x3A38A7, size: 0x8, addend: 0x0, symName: '__ZN42_$LT$$RF$T$u20$as$u20$core..fmt..Debug$GT$3fmt17hd75f14d0cf92e165E', symObjAddr: 0x220, symBinAddr: 0x972C0, symSize: 0x80 }
  - { offsetInCU: 0x4105E, offset: 0x3A8A6C, size: 0x8, addend: 0x0, symName: '__ZN48_$LT$T$u20$as$u20$core..clone..CloneToUninit$GT$15clone_to_uninit17h573d7a4ee27ed36aE', symObjAddr: 0x2A0, symBinAddr: 0x97340, symSize: 0x330 }
  - { offsetInCU: 0x4226F, offset: 0x3A9C7D, size: 0x8, addend: 0x0, symName: '__ZN136_$LT$alloc..vec..Vec$LT$T$C$A$GT$$u20$as$u20$alloc..vec..spec_extend..SpecExtend$LT$T$C$alloc..vec..into_iter..IntoIter$LT$T$GT$$GT$$GT$11spec_extend17hccc28cc1a2272c75E', symObjAddr: 0x100, symBinAddr: 0x97220, symSize: 0xA0 }
  - { offsetInCU: 0x425A2, offset: 0x3A9FB0, size: 0x8, addend: 0x0, symName: '__ZN97_$LT$alloc..vec..Vec$LT$T$C$A$GT$$u20$as$u20$alloc..vec..spec_extend..SpecExtend$LT$T$C$I$GT$$GT$11spec_extend17ha7b17e62345c5d54E', symObjAddr: 0x13200, symBinAddr: 0xA8960, symSize: 0x330 }
  - { offsetInCU: 0x433F9, offset: 0x3AAE07, size: 0x8, addend: 0x0, symName: '__ZN65_$LT$alloc..vec..Vec$LT$T$C$A$GT$$u20$as$u20$core..fmt..Debug$GT$3fmt17h7df35ea0f5de10d6E', symObjAddr: 0xFA90, symBinAddr: 0xA6570, symSize: 0x80 }
  - { offsetInCU: 0x4360E, offset: 0x3AB01C, size: 0x8, addend: 0x0, symName: '__ZN67_$LT$alloc..vec..Vec$LT$T$C$A$GT$$u20$as$u20$core..clone..Clone$GT$5clone17h0918c192fa05002fE', symObjAddr: 0xFC70, symBinAddr: 0xA65F0, symSize: 0x0 }
  - { offsetInCU: 0x43A41, offset: 0x3AB44F, size: 0x8, addend: 0x0, symName: '__ZN67_$LT$alloc..vec..Vec$LT$T$C$A$GT$$u20$as$u20$core..clone..Clone$GT$5clone17h12f34926ea9f1126E', symObjAddr: 0xFDC0, symBinAddr: 0xA6740, symSize: 0x140 }
  - { offsetInCU: 0x43E73, offset: 0x3AB881, size: 0x8, addend: 0x0, symName: '__ZN67_$LT$alloc..vec..Vec$LT$T$C$A$GT$$u20$as$u20$core..clone..Clone$GT$5clone17h198f7ad4e9731601E', symObjAddr: 0xFF00, symBinAddr: 0xA6880, symSize: 0x150 }
  - { offsetInCU: 0x442A6, offset: 0x3ABCB4, size: 0x8, addend: 0x0, symName: '__ZN67_$LT$alloc..vec..Vec$LT$T$C$A$GT$$u20$as$u20$core..clone..Clone$GT$5clone17h1c4556f52f9d0d47E', symObjAddr: 0x10050, symBinAddr: 0xA69D0, symSize: 0x140 }
  - { offsetInCU: 0x44683, offset: 0x3AC091, size: 0x8, addend: 0x0, symName: '__ZN67_$LT$alloc..vec..Vec$LT$T$C$A$GT$$u20$as$u20$core..clone..Clone$GT$5clone17h231253a81e7a58bbE', symObjAddr: 0x10190, symBinAddr: 0xA6B10, symSize: 0x140 }
  - { offsetInCU: 0x44AB6, offset: 0x3AC4C4, size: 0x8, addend: 0x0, symName: '__ZN67_$LT$alloc..vec..Vec$LT$T$C$A$GT$$u20$as$u20$core..clone..Clone$GT$5clone17h26458e8ef80c3a9bE', symObjAddr: 0x102D0, symBinAddr: 0xA6C50, symSize: 0x150 }
  - { offsetInCU: 0x44EE9, offset: 0x3AC8F7, size: 0x8, addend: 0x0, symName: '__ZN67_$LT$alloc..vec..Vec$LT$T$C$A$GT$$u20$as$u20$core..clone..Clone$GT$5clone17h2b24796f45520c7bE', symObjAddr: 0x10420, symBinAddr: 0xA6DA0, symSize: 0x140 }
  - { offsetInCU: 0x452C6, offset: 0x3ACCD4, size: 0x8, addend: 0x0, symName: '__ZN67_$LT$alloc..vec..Vec$LT$T$C$A$GT$$u20$as$u20$core..clone..Clone$GT$5clone17h2f79e88de7934928E', symObjAddr: 0x10560, symBinAddr: 0xA6EE0, symSize: 0x140 }
  - { offsetInCU: 0x456A3, offset: 0x3AD0B1, size: 0x8, addend: 0x0, symName: '__ZN67_$LT$alloc..vec..Vec$LT$T$C$A$GT$$u20$as$u20$core..clone..Clone$GT$5clone17h31bc48edccfa1915E', symObjAddr: 0x106A0, symBinAddr: 0xA7020, symSize: 0x240 }
  - { offsetInCU: 0x45CC4, offset: 0x3AD6D2, size: 0x8, addend: 0x0, symName: '__ZN67_$LT$alloc..vec..Vec$LT$T$C$A$GT$$u20$as$u20$core..clone..Clone$GT$5clone17h363befc284095627E', symObjAddr: 0x108E0, symBinAddr: 0xA7260, symSize: 0x150 }
  - { offsetInCU: 0x460F7, offset: 0x3ADB05, size: 0x8, addend: 0x0, symName: '__ZN67_$LT$alloc..vec..Vec$LT$T$C$A$GT$$u20$as$u20$core..clone..Clone$GT$5clone17h4573a12392f30b82E', symObjAddr: 0x10A30, symBinAddr: 0xA73B0, symSize: 0x1A0 }
  - { offsetInCU: 0x46583, offset: 0x3ADF91, size: 0x8, addend: 0x0, symName: '__ZN67_$LT$alloc..vec..Vec$LT$T$C$A$GT$$u20$as$u20$core..clone..Clone$GT$5clone17h66d29e7a7f7f75a3E', symObjAddr: 0x10BD0, symBinAddr: 0xA7550, symSize: 0x140 }
  - { offsetInCU: 0x46960, offset: 0x3AE36E, size: 0x8, addend: 0x0, symName: '__ZN67_$LT$alloc..vec..Vec$LT$T$C$A$GT$$u20$as$u20$core..clone..Clone$GT$5clone17h6e06f5a531199142E', symObjAddr: 0x10D10, symBinAddr: 0xA7690, symSize: 0x180 }
  - { offsetInCU: 0x46E38, offset: 0x3AE846, size: 0x8, addend: 0x0, symName: '__ZN67_$LT$alloc..vec..Vec$LT$T$C$A$GT$$u20$as$u20$core..clone..Clone$GT$5clone17h7130fcf6814bc045E', symObjAddr: 0x10E90, symBinAddr: 0xA7810, symSize: 0x150 }
  - { offsetInCU: 0x4726B, offset: 0x3AEC79, size: 0x8, addend: 0x0, symName: '__ZN67_$LT$alloc..vec..Vec$LT$T$C$A$GT$$u20$as$u20$core..clone..Clone$GT$5clone17h7665f3814d75ccf2E', symObjAddr: 0x10FE0, symBinAddr: 0xA7960, symSize: 0x150 }
  - { offsetInCU: 0x4769E, offset: 0x3AF0AC, size: 0x8, addend: 0x0, symName: '__ZN67_$LT$alloc..vec..Vec$LT$T$C$A$GT$$u20$as$u20$core..clone..Clone$GT$5clone17h81c8c2fa81ddf714E', symObjAddr: 0x11130, symBinAddr: 0xA7AB0, symSize: 0x160 }
  - { offsetInCU: 0x47B12, offset: 0x3AF520, size: 0x8, addend: 0x0, symName: '__ZN67_$LT$alloc..vec..Vec$LT$T$C$A$GT$$u20$as$u20$core..clone..Clone$GT$5clone17h95e57492d3a10cc0E', symObjAddr: 0x113F0, symBinAddr: 0xA7C10, symSize: 0x140 }
  - { offsetInCU: 0x47EEF, offset: 0x3AF8FD, size: 0x8, addend: 0x0, symName: '__ZN67_$LT$alloc..vec..Vec$LT$T$C$A$GT$$u20$as$u20$core..clone..Clone$GT$5clone17ha4bb515f2984f91aE', symObjAddr: 0x11530, symBinAddr: 0xA7D50, symSize: 0x150 }
  - { offsetInCU: 0x48322, offset: 0x3AFD30, size: 0x8, addend: 0x0, symName: '__ZN67_$LT$alloc..vec..Vec$LT$T$C$A$GT$$u20$as$u20$core..clone..Clone$GT$5clone17haa8bb6b2679cb284E', symObjAddr: 0x11680, symBinAddr: 0xA7EA0, symSize: 0x240 }
  - { offsetInCU: 0x4891B, offset: 0x3B0329, size: 0x8, addend: 0x0, symName: '__ZN67_$LT$alloc..vec..Vec$LT$T$C$A$GT$$u20$as$u20$core..clone..Clone$GT$5clone17hbc42148281c8a2c5E', symObjAddr: 0x118C0, symBinAddr: 0xA80E0, symSize: 0x150 }
  - { offsetInCU: 0x48D4E, offset: 0x3B075C, size: 0x8, addend: 0x0, symName: '__ZN67_$LT$alloc..vec..Vec$LT$T$C$A$GT$$u20$as$u20$core..clone..Clone$GT$5clone17hdea0838f2711b888E', symObjAddr: 0x11A10, symBinAddr: 0xA8230, symSize: 0x180 }
  - { offsetInCU: 0x49250, offset: 0x3B0C5E, size: 0x8, addend: 0x0, symName: '__ZN67_$LT$alloc..vec..Vec$LT$T$C$A$GT$$u20$as$u20$core..clone..Clone$GT$5clone17he6fccb5bd9282467E', symObjAddr: 0x11B90, symBinAddr: 0xA83B0, symSize: 0x150 }
  - { offsetInCU: 0x49683, offset: 0x3B1091, size: 0x8, addend: 0x0, symName: '__ZN67_$LT$alloc..vec..Vec$LT$T$C$A$GT$$u20$as$u20$core..clone..Clone$GT$5clone17hfc43050c7448a50aE', symObjAddr: 0x11CE0, symBinAddr: 0xA8500, symSize: 0x140 }
  - { offsetInCU: 0x49A60, offset: 0x3B146E, size: 0x8, addend: 0x0, symName: '__ZN67_$LT$alloc..vec..Vec$LT$T$C$A$GT$$u20$as$u20$core..clone..Clone$GT$5clone17hffa782808f95fe1aE', symObjAddr: 0x11E20, symBinAddr: 0xA8640, symSize: 0x140 }
  - { offsetInCU: 0x4A310, offset: 0x3B1D1E, size: 0x8, addend: 0x0, symName: '__ZN70_$LT$alloc..vec..Vec$LT$T$C$A$GT$$u20$as$u20$core..ops..drop..Drop$GT$4drop17h04459a2ad506febfE', symObjAddr: 0x11F60, symBinAddr: 0xA8780, symSize: 0xB0 }
  - { offsetInCU: 0x4A372, offset: 0x3B1D80, size: 0x8, addend: 0x0, symName: '__ZN70_$LT$alloc..vec..Vec$LT$T$C$A$GT$$u20$as$u20$core..ops..drop..Drop$GT$4drop17h16fdfee690a97aabE', symObjAddr: 0x12150, symBinAddr: 0xA8830, symSize: 0xB0 }
  - { offsetInCU: 0x4A4ED, offset: 0x3B1EFB, size: 0x8, addend: 0x0, symName: '__ZN70_$LT$alloc..vec..Vec$LT$T$C$A$GT$$u20$as$u20$core..ops..drop..Drop$GT$4drop17h24dac77de93830d0E', symObjAddr: 0x12330, symBinAddr: 0xA88E0, symSize: 0x80 }
  - { offsetInCU: 0x4F4DD, offset: 0x3B6EEB, size: 0x8, addend: 0x0, symName: '__ZN5alloc3vec16Vec$LT$T$C$A$GT$16into_boxed_slice17hf01fc5c9dc27910bE', symObjAddr: 0xF5D0, symBinAddr: 0xA64E0, symSize: 0x90 }
  - { offsetInCU: 0x1E, offset: 0x3CB0DC, size: 0x8, addend: 0x0, symName: '__ZN4core3ptr100drop_in_place$LT$core..option..Option$LT$alloc..boxed..Box$LT$syn..path..GenericArgument$GT$$GT$$GT$17h3a7c44b9e57fe410E', symObjAddr: 0x0, symBinAddr: 0xA8C90, symSize: 0x50 }
  - { offsetInCU: 0xAB, offset: 0x3CB169, size: 0x8, addend: 0x0, symName: '__ZN58_$LT$alloc..string..String$u20$as$u20$core..fmt..Write$GT$10write_char17h04bc467bd68a934bE', symObjAddr: 0x71C0, symBinAddr: 0xAFE50, symSize: 0x140 }
  - { offsetInCU: 0x4B0, offset: 0x3CB56E, size: 0x8, addend: 0x0, symName: '__ZN58_$LT$alloc..string..String$u20$as$u20$core..fmt..Write$GT$9write_str17h46a93205c3443fbaE', symObjAddr: 0x7300, symBinAddr: 0xAFF90, symSize: 0x60 }
  - { offsetInCU: 0x145F, offset: 0x3CC51D, size: 0x8, addend: 0x0, symName: __ZN5alloc5alloc15exchange_malloc17h9a87608d0224859dE, symObjAddr: 0x7360, symBinAddr: 0xAFFF0, symSize: 0x40 }
  - { offsetInCU: 0x3804, offset: 0x3CE8C2, size: 0x8, addend: 0x0, symName: '__ZN4core3ptr100drop_in_place$LT$core..option..Option$LT$alloc..boxed..Box$LT$syn..path..GenericArgument$GT$$GT$$GT$17h3a7c44b9e57fe410E', symObjAddr: 0x0, symBinAddr: 0xA8C90, symSize: 0x50 }
  - { offsetInCU: 0x39D1, offset: 0x3CEA8F, size: 0x8, addend: 0x0, symName: '__ZN4core3ptr102drop_in_place$LT$syn..punctuated..Punctuated$LT$syn..path..GenericArgument$C$syn..token..Comma$GT$$GT$17h8b1978399cfff48bE', symObjAddr: 0x50, symBinAddr: 0xA8CE0, symSize: 0xF0 }
  - { offsetInCU: 0x3CF1, offset: 0x3CEDAF, size: 0x8, addend: 0x0, symName: '__ZN4core3ptr103drop_in_place$LT$core..option..Option$LT$alloc..boxed..Box$LT$syn..generics..TypeParamBound$GT$$GT$$GT$17hb14e4384a768542bE', symObjAddr: 0x140, symBinAddr: 0xA8DD0, symSize: 0x50 }
  - { offsetInCU: 0x3EFC, offset: 0x3CEFBA, size: 0x8, addend: 0x0, symName: '__ZN4core3ptr103drop_in_place$LT$syn..punctuated..Punctuated$LT$syn..generics..GenericParam$C$syn..token..Comma$GT$$GT$17h0c6077a988036760E', symObjAddr: 0x190, symBinAddr: 0xA8E20, symSize: 0xF0 }
  - { offsetInCU: 0x44D0, offset: 0x3CF58E, size: 0x8, addend: 0x0, symName: '__ZN4core3ptr104drop_in_place$LT$syn..punctuated..Punctuated$LT$syn..generics..TypeParamBound$C$syn..token..Plus$GT$$GT$17h724e4d9d1d65061aE', symObjAddr: 0x280, symBinAddr: 0xA8F10, symSize: 0x260 }
  - { offsetInCU: 0x4F1A, offset: 0x3CFFD8, size: 0x8, addend: 0x0, symName: '__ZN4core3ptr34drop_in_place$LT$syn..lit..Lit$GT$17hd64dde89a262341dE', symObjAddr: 0x4E0, symBinAddr: 0xA9170, symSize: 0x120 }
  - { offsetInCU: 0x5408, offset: 0x3D04C6, size: 0x8, addend: 0x0, symName: '__ZN4core3ptr34drop_in_place$LT$syn..pat..Pat$GT$17hf88887878261d63cE', symObjAddr: 0x600, symBinAddr: 0xA9290, symSize: 0xF70 }
  - { offsetInCU: 0x9321, offset: 0x3D43DF, size: 0x8, addend: 0x0, symName: '__ZN4core3ptr34drop_in_place$LT$syn..ty..Type$GT$17ha80dd29b0f9d4a3fE', symObjAddr: 0x1570, symBinAddr: 0xAA200, symSize: 0x5A0 }
  - { offsetInCU: 0xACBD, offset: 0x3D5D7B, size: 0x8, addend: 0x0, symName: '__ZN4core3ptr36drop_in_place$LT$syn..expr..Expr$GT$17h10f573b40ddd212cE.llvm.15963643447187171253', symObjAddr: 0x1B10, symBinAddr: 0xAA7A0, symSize: 0x2760 }
  - { offsetInCU: 0x149B4, offset: 0x3DFA72, size: 0x8, addend: 0x0, symName: '__ZN4core3ptr36drop_in_place$LT$syn..mac..Macro$GT$17hc3b30a7a8a34cc2dE', symObjAddr: 0x4270, symBinAddr: 0xACF00, symSize: 0x110 }
  - { offsetInCU: 0x14E51, offset: 0x3DFF0F, size: 0x8, addend: 0x0, symName: '__ZN4core3ptr36drop_in_place$LT$syn..path..Path$GT$17h75c74a97d5f0a03bE', symObjAddr: 0x4380, symBinAddr: 0xAD010, symSize: 0x280 }
  - { offsetInCU: 0x158FE, offset: 0x3E09BC, size: 0x8, addend: 0x0, symName: '__ZN4core3ptr37drop_in_place$LT$syn..stmt..Block$GT$17h6fc3254d5688f2c3E', symObjAddr: 0x4600, symBinAddr: 0xAD290, symSize: 0xD0 }
  - { offsetInCU: 0x15BD5, offset: 0x3E0C93, size: 0x8, addend: 0x0, symName: '__ZN4core3ptr38drop_in_place$LT$syn..expr..Member$GT$17h6b0cf84594ce6bceE', symObjAddr: 0x46D0, symBinAddr: 0xAD360, symSize: 0x30 }
  - { offsetInCU: 0x15D6C, offset: 0x3E0E2A, size: 0x8, addend: 0x0, symName: '__ZN4core3ptr38drop_in_place$LT$syn..group..Group$GT$17ha3c6933df6efe66fE', symObjAddr: 0x4700, symBinAddr: 0xAD390, symSize: 0x70 }
  - { offsetInCU: 0x16064, offset: 0x3E1122, size: 0x8, addend: 0x0, symName: '__ZN4core3ptr39drop_in_place$LT$proc_macro2..Ident$GT$17ha28fef9769e267d9E', symObjAddr: 0x4770, symBinAddr: 0xAD400, symSize: 0x30 }
  - { offsetInCU: 0x1617F, offset: 0x3E123D, size: 0x8, addend: 0x0, symName: '__ZN4core3ptr39drop_in_place$LT$syn..lit..LitFloat$GT$17h83bfdc788eb6081bE', symObjAddr: 0x47A0, symBinAddr: 0xAD430, symSize: 0x70 }
  - { offsetInCU: 0x164F1, offset: 0x3E15AF, size: 0x8, addend: 0x0, symName: '__ZN4core3ptr40drop_in_place$LT$syn..expr..ExprPath$GT$17h1e579ab03db12453E', symObjAddr: 0x4810, symBinAddr: 0xAD4A0, symSize: 0x110 }
  - { offsetInCU: 0x16954, offset: 0x3E1A12, size: 0x8, addend: 0x0, symName: '__ZN4core3ptr40drop_in_place$LT$syn..ty..ReturnType$GT$17h035a612e322b6510E', symObjAddr: 0x4920, symBinAddr: 0xAD5B0, symSize: 0x50 }
  - { offsetInCU: 0x16B21, offset: 0x3E1BDF, size: 0x8, addend: 0x0, symName: '__ZN4core3ptr41drop_in_place$LT$syn..attr..Attribute$GT$17h326c12be3efddb0cE', symObjAddr: 0x4970, symBinAddr: 0xAD600, symSize: 0xA0 }
  - { offsetInCU: 0x16B9C, offset: 0x3E1C5A, size: 0x8, addend: 0x0, symName: '__ZN4core3ptr41drop_in_place$LT$syn..expr..ExprConst$GT$17hbfe19d5d621e6836E', symObjAddr: 0x4A10, symBinAddr: 0xAD6A0, symSize: 0x180 }
  - { offsetInCU: 0x17189, offset: 0x3E2247, size: 0x8, addend: 0x0, symName: '__ZN4core3ptr42drop_in_place$LT$alloc..string..String$GT$17h9acfda4d1b128177E', symObjAddr: 0x4B90, symBinAddr: 0xAD820, symSize: 0x20 }
  - { offsetInCU: 0x17291, offset: 0x3E234F, size: 0x8, addend: 0x0, symName: '__ZN4core3ptr44drop_in_place$LT$syn..lifetime..Lifetime$GT$17he37fa474f03de7b1E', symObjAddr: 0x4BB0, symBinAddr: 0xAD840, symSize: 0x30 }
  - { offsetInCU: 0x1738D, offset: 0x3E244B, size: 0x8, addend: 0x0, symName: '__ZN4core3ptr44drop_in_place$LT$syn..parse..ParseBuffer$GT$17hf792ff20095efc35E', symObjAddr: 0x4BE0, symBinAddr: 0xAD870, symSize: 0x70 }
  - { offsetInCU: 0x177A4, offset: 0x3E2862, size: 0x8, addend: 0x0, symName: '__ZN4core3ptr45drop_in_place$LT$proc_macro2..TokenStream$GT$17h76e8e68015f4924dE', symObjAddr: 0x4C50, symBinAddr: 0xAD8E0, symSize: 0x140 }
  - { offsetInCU: 0x17C3E, offset: 0x3E2CFC, size: 0x8, addend: 0x0, symName: '__ZN4core3ptr45drop_in_place$LT$syn..generics..TypeParam$GT$17h188a459c1380ac75E', symObjAddr: 0x4D90, symBinAddr: 0xADA20, symSize: 0x230 }
  - { offsetInCU: 0x184B3, offset: 0x3E3571, size: 0x8, addend: 0x0, symName: '__ZN4core3ptr46drop_in_place$LT$syn..generics..ConstParam$GT$17h7a9b900b2b88bfcdE', symObjAddr: 0x4FC0, symBinAddr: 0xADC50, symSize: 0x150 }
  - { offsetInCU: 0x18934, offset: 0x3E39F2, size: 0x8, addend: 0x0, symName: '__ZN4core3ptr47drop_in_place$LT$syn..path..GenericArgument$GT$17h593f06d6ca9a94d2E', symObjAddr: 0x5110, symBinAddr: 0xADDA0, symSize: 0x450 }
  - { offsetInCU: 0x196AA, offset: 0x3E4768, size: 0x8, addend: 0x0, symName: '__ZN4core3ptr49drop_in_place$LT$syn..generics..LifetimeParam$GT$17h3a8835ab294bfd16E', symObjAddr: 0x5560, symBinAddr: 0xAE1F0, symSize: 0xF0 }
  - { offsetInCU: 0x19AC1, offset: 0x3E4B7F, size: 0x8, addend: 0x0, symName: '__ZN4core3ptr50drop_in_place$LT$syn..generics..TypeParamBound$GT$17h81b4325b5900604dE', symObjAddr: 0x5650, symBinAddr: 0xAE2E0, symSize: 0xA0 }
  - { offsetInCU: 0x19C27, offset: 0x3E4CE5, size: 0x8, addend: 0x0, symName: '__ZN4core3ptr58drop_in_place$LT$alloc..vec..Vec$LT$syn..expr..Arm$GT$$GT$17hff9224aadf2233b8E', symObjAddr: 0x56F0, symBinAddr: 0xAE380, symSize: 0xD0 }
  - { offsetInCU: 0x19EE7, offset: 0x3E4FA5, size: 0x8, addend: 0x0, symName: '__ZN4core3ptr59drop_in_place$LT$alloc..boxed..Box$LT$syn..pat..Pat$GT$$GT$17h622b0c1db21c0742E', symObjAddr: 0x57C0, symBinAddr: 0xAE450, symSize: 0x50 }
  - { offsetInCU: 0x1A040, offset: 0x3E50FE, size: 0x8, addend: 0x0, symName: '__ZN4core3ptr59drop_in_place$LT$alloc..boxed..Box$LT$syn..ty..Type$GT$$GT$17hde45fa887dd8b605E', symObjAddr: 0x5810, symBinAddr: 0xAE4A0, symSize: 0x50 }
  - { offsetInCU: 0x1A199, offset: 0x3E5257, size: 0x8, addend: 0x0, symName: '__ZN4core3ptr61drop_in_place$LT$alloc..boxed..Box$LT$syn..expr..Expr$GT$$GT$17hbb42293869113942E', symObjAddr: 0x5860, symBinAddr: 0xAE4F0, symSize: 0x50 }
  - { offsetInCU: 0x1A2F2, offset: 0x3E53B0, size: 0x8, addend: 0x0, symName: '__ZN4core3ptr61drop_in_place$LT$syn..path..ParenthesizedGenericArguments$GT$17h6b1731382637937fE', symObjAddr: 0x58B0, symBinAddr: 0xAE540, symSize: 0x170 }
  - { offsetInCU: 0x1A8FB, offset: 0x3E59B9, size: 0x8, addend: 0x0, symName: '__ZN4core3ptr63drop_in_place$LT$alloc..boxed..Box$LT$syn..lit..LitRepr$GT$$GT$17h6e3a82ea4de7b84cE', symObjAddr: 0x5A20, symBinAddr: 0xAE6B0, symSize: 0x60 }
  - { offsetInCU: 0x1AC02, offset: 0x3E5CC0, size: 0x8, addend: 0x0, symName: '__ZN4core3ptr64drop_in_place$LT$alloc..boxed..Box$LT$syn..pat..FieldPat$GT$$GT$17hbf8f4867d84bd25dE', symObjAddr: 0x5A80, symBinAddr: 0xAE710, symSize: 0x140 }
  - { offsetInCU: 0x1B303, offset: 0x3E63C1, size: 0x8, addend: 0x0, symName: '__ZN4core3ptr64drop_in_place$LT$alloc..boxed..Box$LT$syn..ty..BareFnArg$GT$$GT$17h6be6354eb1d1364dE', symObjAddr: 0x5BC0, symBinAddr: 0xAE850, symSize: 0x140 }
  - { offsetInCU: 0x1B88C, offset: 0x3E694A, size: 0x8, addend: 0x0, symName: '__ZN4core3ptr64drop_in_place$LT$alloc..vec..Vec$LT$syn..attr..Attribute$GT$$GT$17he33e25539d5885aeE.llvm.15963643447187171253', symObjAddr: 0x5D00, symBinAddr: 0xAE990, symSize: 0xD0 }
  - { offsetInCU: 0x1BB80, offset: 0x3E6C3E, size: 0x8, addend: 0x0, symName: '__ZN4core3ptr65drop_in_place$LT$alloc..vec..Vec$LT$proc_macro..TokenTree$GT$$GT$17h8abd81f8596dbc59E', symObjAddr: 0x5DD0, symBinAddr: 0xAEA60, symSize: 0x110 }
  - { offsetInCU: 0x1BF78, offset: 0x3E7036, size: 0x8, addend: 0x0, symName: '__ZN4core3ptr65drop_in_place$LT$core..option..Option$LT$syn..expr..Label$GT$$GT$17hac599686b33ef364E', symObjAddr: 0x5EE0, symBinAddr: 0xAEB70, symSize: 0x30 }
  - { offsetInCU: 0x1C0B2, offset: 0x3E7170, size: 0x8, addend: 0x0, symName: '__ZN4core3ptr65drop_in_place$LT$core..option..Option$LT$syn..path..QSelf$GT$$GT$17h0b8dd5cda5f2cd6bE', symObjAddr: 0x5F10, symBinAddr: 0xAEBA0, symSize: 0x50 }
  - { offsetInCU: 0x1C233, offset: 0x3E72F1, size: 0x8, addend: 0x0, symName: '__ZN4core3ptr66drop_in_place$LT$core..option..Option$LT$syn..pat..PatRest$GT$$GT$17hd5bb3bc28aa78ac1E', symObjAddr: 0x5F60, symBinAddr: 0xAEBF0, symSize: 0xE0 }
  - { offsetInCU: 0x1C55B, offset: 0x3E7619, size: 0x8, addend: 0x0, symName: '__ZN4core3ptr67drop_in_place$LT$alloc..boxed..Box$LT$syn..expr..FieldValue$GT$$GT$17hbbcf67a9d5e9863cE', symObjAddr: 0x6040, symBinAddr: 0xAECD0, symSize: 0x140 }
  - { offsetInCU: 0x1CAE3, offset: 0x3E7BA1, size: 0x8, addend: 0x0, symName: '__ZN4core3ptr70drop_in_place$LT$core..option..Option$LT$syn..ty..BareVariadic$GT$$GT$17h79a19250e9f043b1E', symObjAddr: 0x6180, symBinAddr: 0xAEE10, symSize: 0x100 }
  - { offsetInCU: 0x1CF4E, offset: 0x3E800C, size: 0x8, addend: 0x0, symName: '__ZN4core3ptr72drop_in_place$LT$alloc..boxed..Box$LT$syn..path..GenericArgument$GT$$GT$17hfd308d374af4273dE', symObjAddr: 0x6280, symBinAddr: 0xAEF10, symSize: 0x2B0 }
  - { offsetInCU: 0x1D95F, offset: 0x3E8A1D, size: 0x8, addend: 0x0, symName: '__ZN4core3ptr72drop_in_place$LT$core..option..Option$LT$syn..lifetime..Lifetime$GT$$GT$17h49cce6f02f9c0590E', symObjAddr: 0x6530, symBinAddr: 0xAF1C0, symSize: 0x30 }
  - { offsetInCU: 0x1DA7A, offset: 0x3E8B38, size: 0x8, addend: 0x0, symName: '__ZN4core3ptr73drop_in_place$LT$alloc..boxed..Box$LT$syn..generics..GenericParam$GT$$GT$17ha26d5d145af4b203E', symObjAddr: 0x6560, symBinAddr: 0xAF1F0, symSize: 0x80 }
  - { offsetInCU: 0x1DBF0, offset: 0x3E8CAE, size: 0x8, addend: 0x0, symName: '__ZN4core3ptr75drop_in_place$LT$alloc..boxed..Box$LT$syn..generics..TypeParamBound$GT$$GT$17h129a4e927e5eb81bE', symObjAddr: 0x65E0, symBinAddr: 0xAF270, symSize: 0x1B0 }
  - { offsetInCU: 0x1E2EF, offset: 0x3E93AD, size: 0x8, addend: 0x0, symName: '__ZN4core3ptr83drop_in_place$LT$core..result..Result$LT$syn..op..BinOp$C$syn..error..Error$GT$$GT$17h495a3ee3d6e6a47dE', symObjAddr: 0x6790, symBinAddr: 0xAF420, symSize: 0x80 }
  - { offsetInCU: 0x1E609, offset: 0x3E96C7, size: 0x8, addend: 0x0, symName: '__ZN4core3ptr86drop_in_place$LT$syn..punctuated..Punctuated$LT$syn..pat..Pat$C$syn..token..Or$GT$$GT$17h9cc6b5f7b6d3a555E', symObjAddr: 0x6810, symBinAddr: 0xAF4A0, symSize: 0x120 }
  - { offsetInCU: 0x1EA84, offset: 0x3E9B42, size: 0x8, addend: 0x0, symName: '__ZN4core3ptr87drop_in_place$LT$core..option..Option$LT$alloc..boxed..Box$LT$syn..pat..Pat$GT$$GT$$GT$17h51cd48973d96c411E', symObjAddr: 0x6930, symBinAddr: 0xAF5C0, symSize: 0x50 }
  - { offsetInCU: 0x1EBF4, offset: 0x3E9CB2, size: 0x8, addend: 0x0, symName: '__ZN4core3ptr87drop_in_place$LT$core..option..Option$LT$alloc..boxed..Box$LT$syn..ty..Type$GT$$GT$$GT$17h103a25a4a7d7374eE', symObjAddr: 0x6980, symBinAddr: 0xAF610, symSize: 0x50 }
  - { offsetInCU: 0x1ED64, offset: 0x3E9E22, size: 0x8, addend: 0x0, symName: '__ZN4core3ptr89drop_in_place$LT$core..option..Option$LT$alloc..boxed..Box$LT$syn..expr..Expr$GT$$GT$$GT$17h9e02509cb2345d44E', symObjAddr: 0x69D0, symBinAddr: 0xAF660, symSize: 0x50 }
  - { offsetInCU: 0x1EF12, offset: 0x3E9FD0, size: 0x8, addend: 0x0, symName: '__ZN4core3ptr89drop_in_place$LT$syn..punctuated..Punctuated$LT$syn..pat..Pat$C$syn..token..Comma$GT$$GT$17hd3a83c36827f210aE', symObjAddr: 0x6A20, symBinAddr: 0xAF6B0, symSize: 0x120 }
  - { offsetInCU: 0x1F3E2, offset: 0x3EA4A0, size: 0x8, addend: 0x0, symName: '__ZN4core3ptr91drop_in_place$LT$syn..punctuated..Punctuated$LT$syn..expr..Expr$C$syn..token..Comma$GT$$GT$17h6f261e8f470c81f2E', symObjAddr: 0x6B40, symBinAddr: 0xAF7D0, symSize: 0x120 }
  - { offsetInCU: 0x1F870, offset: 0x3EA92E, size: 0x8, addend: 0x0, symName: '__ZN4core3ptr94drop_in_place$LT$syn..punctuated..Punctuated$LT$syn..pat..FieldPat$C$syn..token..Comma$GT$$GT$17h43ec25af986ef674E', symObjAddr: 0x6C60, symBinAddr: 0xAF8F0, symSize: 0xF0 }
  - { offsetInCU: 0x1FB6F, offset: 0x3EAC2D, size: 0x8, addend: 0x0, symName: '__ZN4core3ptr94drop_in_place$LT$syn..punctuated..Punctuated$LT$syn..ty..BareFnArg$C$syn..token..Comma$GT$$GT$17h7ba4c699ee390ebaE', symObjAddr: 0x6D50, symBinAddr: 0xAF9E0, symSize: 0xF0 }
  - { offsetInCU: 0x1FE70, offset: 0x3EAF2E, size: 0x8, addend: 0x0, symName: '__ZN4core3ptr96drop_in_place$LT$core..option..Option$LT$alloc..boxed..Box$LT$syn..path..PathSegment$GT$$GT$$GT$17h5de12a5a0f9e9ef9E', symObjAddr: 0x6E40, symBinAddr: 0xAFAD0, symSize: 0x1A0 }
  - { offsetInCU: 0x20531, offset: 0x3EB5EF, size: 0x8, addend: 0x0, symName: '__ZN4core3ptr97drop_in_place$LT$syn..punctuated..Punctuated$LT$syn..expr..FieldValue$C$syn..token..Comma$GT$$GT$17hf58d0a9a09266ab3E', symObjAddr: 0x6FE0, symBinAddr: 0xAFC70, symSize: 0xF0 }
  - { offsetInCU: 0x208AA, offset: 0x3EB968, size: 0x8, addend: 0x0, symName: '__ZN4core3ptr98drop_in_place$LT$syn..punctuated..Punctuated$LT$syn..lifetime..Lifetime$C$syn..token..Plus$GT$$GT$17h600c2b78f78fd2b9E', symObjAddr: 0x70D0, symBinAddr: 0xAFD60, symSize: 0xD0 }
  - { offsetInCU: 0x214DC, offset: 0x3EC59A, size: 0x8, addend: 0x0, symName: '__ZN53_$LT$core..fmt..Error$u20$as$u20$core..fmt..Debug$GT$3fmt17h03dc662ab152f3aeE', symObjAddr: 0x71A0, symBinAddr: 0xAFE30, symSize: 0x20 }
  - { offsetInCU: 0x2C5AB, offset: 0x3F7669, size: 0x8, addend: 0x0, symName: __ZN3syn4expr7parsing32parse_with_earlier_boundary_rule17h04da014a226fbbe5E, symObjAddr: 0x73A0, symBinAddr: 0xB0030, symSize: 0x1430 }
  - { offsetInCU: 0x2E8E8, offset: 0x3F99A6, size: 0x8, addend: 0x0, symName: __ZN3syn4expr7parsing14can_begin_expr17h4653549300b8351bE, symObjAddr: 0x87D0, symBinAddr: 0xB1460, symSize: 0x370 }
  - { offsetInCU: 0x2FA17, offset: 0x3FAAD5, size: 0x8, addend: 0x0, symName: __ZN3syn4expr7parsing10parse_expr17he948d695e5f3d52eE.llvm.15963643447187171253, symObjAddr: 0x8B40, symBinAddr: 0xB17D0, symSize: 0x1330 }
  - { offsetInCU: 0x3283E, offset: 0x3FD8FC, size: 0x8, addend: 0x0, symName: __ZN3syn4expr7parsing15parse_binop_rhs17h6b864ca016112671E, symObjAddr: 0x9E70, symBinAddr: 0xB2B00, symSize: 0x4E0 }
  - { offsetInCU: 0x33329, offset: 0x3FE3E7, size: 0x8, addend: 0x0, symName: __ZN3syn4expr7parsing14ambiguous_expr17h5b5bba9c148d94dbE, symObjAddr: 0xA350, symBinAddr: 0xB2FE0, symSize: 0xF0 }
  - { offsetInCU: 0x333AC, offset: 0x3FE46A, size: 0x8, addend: 0x0, symName: __ZN3syn4expr7parsing10expr_attrs17h79ae24352e9d9d57E, symObjAddr: 0xA440, symBinAddr: 0xB30D0, symSize: 0x250 }
  - { offsetInCU: 0x33914, offset: 0x3FE9D2, size: 0x8, addend: 0x0, symName: __ZN3syn4expr7parsing10unary_expr17h1634cdc87bf326dfE, symObjAddr: 0xA690, symBinAddr: 0xB3320, symSize: 0x7C0 }
  - { offsetInCU: 0x34BAF, offset: 0x3FFC6D, size: 0x8, addend: 0x0, symName: __ZN3syn4expr7parsing12trailer_expr17hd6c52758b73443cfE, symObjAddr: 0xAE50, symBinAddr: 0xB3AE0, symSize: 0x1830 }
  - { offsetInCU: 0x385BA, offset: 0x403678, size: 0x8, addend: 0x0, symName: __ZN3syn4expr7parsing14trailer_helper17h681119187c5a546dE, symObjAddr: 0xC680, symBinAddr: 0xB5310, symSize: 0x1F80 }
  - { offsetInCU: 0x3C80C, offset: 0x4078CA, size: 0x8, addend: 0x0, symName: __ZN3syn4expr7parsing12atom_labeled17h4604f459baf45e1eE, symObjAddr: 0xE600, symBinAddr: 0xB7290, symSize: 0x590 }
  - { offsetInCU: 0x3D10B, offset: 0x4081C9, size: 0x8, addend: 0x0, symName: __ZN3syn4expr7parsing12expr_builtin17h8b5ff5122f88b230E, symObjAddr: 0xEB90, symBinAddr: 0xB7820, symSize: 0x410 }
  - { offsetInCU: 0x3DD38, offset: 0x408DF6, size: 0x8, addend: 0x0, symName: __ZN3syn4expr7parsing23path_or_macro_or_struct17he515cb28f35d860eE, symObjAddr: 0xEFA0, symBinAddr: 0xB7C30, symSize: 0x130 }
  - { offsetInCU: 0x3DDF4, offset: 0x408EB2, size: 0x8, addend: 0x0, symName: __ZN3syn4expr7parsing31rest_of_path_or_macro_or_struct17hab8b11d447eb17cdE, symObjAddr: 0xF0D0, symBinAddr: 0xB7D60, symSize: 0x3D0 }
  - { offsetInCU: 0x3E56C, offset: 0x40962A, size: 0x8, addend: 0x0, symName: __ZN3syn4expr7parsing14paren_or_tuple17hca3957091eeb9c50E, symObjAddr: 0xF4A0, symBinAddr: 0xB8130, symSize: 0x780 }
  - { offsetInCU: 0x3EEBC, offset: 0x409F7A, size: 0x8, addend: 0x0, symName: __ZN3syn4expr7parsing15array_or_repeat17h7503a4cc2fc5aa31E, symObjAddr: 0xFC20, symBinAddr: 0xB88B0, symSize: 0x950 }
  - { offsetInCU: 0x3FA71, offset: 0x40AB2F, size: 0x8, addend: 0x0, symName: __ZN3syn4expr7parsing10expr_group17ha2f3b33138d5864cE, symObjAddr: 0x10570, symBinAddr: 0xB9200, symSize: 0x870 }
  - { offsetInCU: 0x405EA, offset: 0x40B6A8, size: 0x8, addend: 0x0, symName: __ZN3syn4expr7parsing8expr_let17hf863f328b939742fE, symObjAddr: 0x10FC0, symBinAddr: 0xB9A70, symSize: 0x570 }
  - { offsetInCU: 0x40F46, offset: 0x40C004, size: 0x8, addend: 0x0, symName: __ZN3syn4expr7parsing10expr_unary17h1d4eb12bbc8abbd2E, symObjAddr: 0x11530, symBinAddr: 0xB9FE0, symSize: 0x2D0 }
  - { offsetInCU: 0x4151C, offset: 0x40C5DA, size: 0x8, addend: 0x0, symName: __ZN3syn4expr7parsing12expr_closure17h4e49f531e43f650cE, symObjAddr: 0x11800, symBinAddr: 0xBA2B0, symSize: 0x1580 }
  - { offsetInCU: 0x431A7, offset: 0x40E265, size: 0x8, addend: 0x0, symName: __ZN3syn4expr7parsing10expr_break17h3ba483e8fdc57f87E, symObjAddr: 0x12D80, symBinAddr: 0xBB830, symSize: 0x720 }
  - { offsetInCU: 0x44232, offset: 0x40F2F0, size: 0x8, addend: 0x0, symName: __ZN3syn4expr7parsing18expr_struct_helper17h62f8c2fd9c8d9ae6E, symObjAddr: 0x134A0, symBinAddr: 0xBBF50, symSize: 0x980 }
  - { offsetInCU: 0x45172, offset: 0x410230, size: 0x8, addend: 0x0, symName: __ZN3syn4expr7parsing10expr_range17h3255a6ff02803bdbE, symObjAddr: 0x13E20, symBinAddr: 0xBC8D0, symSize: 0xF0 }
  - { offsetInCU: 0x45334, offset: 0x4103F2, size: 0x8, addend: 0x0, symName: __ZN3syn4expr7parsing15parse_range_end17hbd7fe95ed93f48b3E, symObjAddr: 0x13F10, symBinAddr: 0xBC9C0, symSize: 0x11D }
  - { offsetInCU: 0x1E, offset: 0x422BA7, size: 0x8, addend: 0x0, symName: __ZN5alloc7raw_vec11finish_grow17h5993caaa74c4fbdfE.llvm.8028830779895567672, symObjAddr: 0x0, symBinAddr: 0xBCAE0, symSize: 0xA0 }
  - { offsetInCU: 0x69AB, offset: 0x429534, size: 0x8, addend: 0x0, symName: __ZN5alloc7raw_vec11finish_grow17h5993caaa74c4fbdfE.llvm.8028830779895567672, symObjAddr: 0x0, symBinAddr: 0xBCAE0, symSize: 0xA0 }
  - { offsetInCU: 0x8788, offset: 0x42B311, size: 0x8, addend: 0x0, symName: '__ZN5alloc7raw_vec19RawVec$LT$T$C$A$GT$7reserve21do_reserve_and_handle17h1257c9ee09466061E', symObjAddr: 0x1330, symBinAddr: 0x1FE1F0, symSize: 0xA0 }
  - { offsetInCU: 0x8A80, offset: 0x42B609, size: 0x8, addend: 0x0, symName: '__ZN5alloc7raw_vec19RawVec$LT$T$C$A$GT$7reserve21do_reserve_and_handle17h30f192da7d596089E', symObjAddr: 0x13D0, symBinAddr: 0x1FE290, symSize: 0xB0 }
  - { offsetInCU: 0x8DAB, offset: 0x42B934, size: 0x8, addend: 0x0, symName: '__ZN5alloc7raw_vec19RawVec$LT$T$C$A$GT$7reserve21do_reserve_and_handle17h7bcc278903fa73cdE', symObjAddr: 0x1480, symBinAddr: 0x1FE340, symSize: 0xB0 }
  - { offsetInCU: 0x90D6, offset: 0x42BC5F, size: 0x8, addend: 0x0, symName: '__ZN5alloc7raw_vec19RawVec$LT$T$C$A$GT$7reserve21do_reserve_and_handle17h96ca4a18a0a3ddafE', symObjAddr: 0x15F0, symBinAddr: 0x1FE3F0, symSize: 0xB0 }
  - { offsetInCU: 0x9403, offset: 0x42BF8C, size: 0x8, addend: 0x0, symName: '__ZN5alloc7raw_vec19RawVec$LT$T$C$A$GT$7reserve21do_reserve_and_handle17hbb3a7e81495482abE', symObjAddr: 0x16A0, symBinAddr: 0x1FE4A0, symSize: 0xB0 }
  - { offsetInCU: 0xFF1E, offset: 0x432AA7, size: 0x8, addend: 0x0, symName: '__ZN5alloc7raw_vec19RawVec$LT$T$C$A$GT$8grow_one17h095fa3667201f4f8E', symObjAddr: 0x1810, symBinAddr: 0xBCB80, symSize: 0xC0 }
  - { offsetInCU: 0x103EC, offset: 0x432F75, size: 0x8, addend: 0x0, symName: '__ZN5alloc7raw_vec19RawVec$LT$T$C$A$GT$8grow_one17h17381682e7253ec7E', symObjAddr: 0x18D0, symBinAddr: 0xBCC40, symSize: 0xC0 }
  - { offsetInCU: 0x108BA, offset: 0x433443, size: 0x8, addend: 0x0, symName: '__ZN5alloc7raw_vec19RawVec$LT$T$C$A$GT$8grow_one17h248c03912984705cE', symObjAddr: 0x1990, symBinAddr: 0xBCD00, symSize: 0xB0 }
  - { offsetInCU: 0x10D88, offset: 0x433911, size: 0x8, addend: 0x0, symName: '__ZN5alloc7raw_vec19RawVec$LT$T$C$A$GT$8grow_one17h3075326c15ed7061E', symObjAddr: 0x1A40, symBinAddr: 0xBCDB0, symSize: 0x0 }
  - { offsetInCU: 0x11258, offset: 0x433DE1, size: 0x8, addend: 0x0, symName: '__ZN5alloc7raw_vec19RawVec$LT$T$C$A$GT$8grow_one17h313fd240ac0cecb3E', symObjAddr: 0x1B00, symBinAddr: 0xBCE70, symSize: 0x0 }
  - { offsetInCU: 0x11726, offset: 0x4342AF, size: 0x8, addend: 0x0, symName: '__ZN5alloc7raw_vec19RawVec$LT$T$C$A$GT$8grow_one17h32f85f1d3098de7dE', symObjAddr: 0x1BC0, symBinAddr: 0xBCF30, symSize: 0x0 }
  - { offsetInCU: 0x11B8A, offset: 0x434713, size: 0x8, addend: 0x0, symName: '__ZN5alloc7raw_vec19RawVec$LT$T$C$A$GT$8grow_one17h46224c298c9c9296E', symObjAddr: 0x1C80, symBinAddr: 0xBCFF0, symSize: 0x0 }
  - { offsetInCU: 0x12056, offset: 0x434BDF, size: 0x8, addend: 0x0, symName: '__ZN5alloc7raw_vec19RawVec$LT$T$C$A$GT$8grow_one17h5a605c90d00a8a39E', symObjAddr: 0x1D30, symBinAddr: 0xBD0A0, symSize: 0xC0 }
  - { offsetInCU: 0x12524, offset: 0x4350AD, size: 0x8, addend: 0x0, symName: '__ZN5alloc7raw_vec19RawVec$LT$T$C$A$GT$8grow_one17h718e5b8a06d845cbE', symObjAddr: 0x1DF0, symBinAddr: 0xBD160, symSize: 0xC0 }
  - { offsetInCU: 0x12863, offset: 0x4353EC, size: 0x8, addend: 0x0, symName: '__ZN5alloc7raw_vec19RawVec$LT$T$C$A$GT$8grow_one17h72dabde20a137b04E', symObjAddr: 0x1EB0, symBinAddr: 0xBD220, symSize: 0xB0 }
  - { offsetInCU: 0x12D2F, offset: 0x4358B8, size: 0x8, addend: 0x0, symName: '__ZN5alloc7raw_vec19RawVec$LT$T$C$A$GT$8grow_one17h7c2c58db67a15848E', symObjAddr: 0x1F60, symBinAddr: 0xBD2D0, symSize: 0x0 }
  - { offsetInCU: 0x131FD, offset: 0x435D86, size: 0x8, addend: 0x0, symName: '__ZN5alloc7raw_vec19RawVec$LT$T$C$A$GT$8grow_one17h7d9544ea3e76eae9E', symObjAddr: 0x2020, symBinAddr: 0xBD390, symSize: 0xC0 }
  - { offsetInCU: 0x136CB, offset: 0x436254, size: 0x8, addend: 0x0, symName: '__ZN5alloc7raw_vec19RawVec$LT$T$C$A$GT$8grow_one17h82b0804d651d4ef5E', symObjAddr: 0x20E0, symBinAddr: 0xBD450, symSize: 0xC0 }
  - { offsetInCU: 0x13BC6, offset: 0x43674F, size: 0x8, addend: 0x0, symName: '__ZN5alloc7raw_vec19RawVec$LT$T$C$A$GT$8grow_one17h85907f27c23a559bE', symObjAddr: 0x21A0, symBinAddr: 0xBD510, symSize: 0xB0 }
  - { offsetInCU: 0x14092, offset: 0x436C1B, size: 0x8, addend: 0x0, symName: '__ZN5alloc7raw_vec19RawVec$LT$T$C$A$GT$8grow_one17ha5852730cd02935bE', symObjAddr: 0x2250, symBinAddr: 0xBD5C0, symSize: 0x0 }
  - { offsetInCU: 0x14560, offset: 0x4370E9, size: 0x8, addend: 0x0, symName: '__ZN5alloc7raw_vec19RawVec$LT$T$C$A$GT$8grow_one17hb30077ec058bafdfE', symObjAddr: 0x2310, symBinAddr: 0xBD680, symSize: 0xB0 }
  - { offsetInCU: 0x14A2C, offset: 0x4375B5, size: 0x8, addend: 0x0, symName: '__ZN5alloc7raw_vec19RawVec$LT$T$C$A$GT$8grow_one17hc0723e4af934b43eE', symObjAddr: 0x23C0, symBinAddr: 0xBD730, symSize: 0xC0 }
  - { offsetInCU: 0x14D6D, offset: 0x4378F6, size: 0x8, addend: 0x0, symName: '__ZN5alloc7raw_vec19RawVec$LT$T$C$A$GT$8grow_one17hc9702e9ac871cd96E', symObjAddr: 0x2480, symBinAddr: 0xBD7F0, symSize: 0xB0 }
  - { offsetInCU: 0x1523B, offset: 0x437DC4, size: 0x8, addend: 0x0, symName: '__ZN5alloc7raw_vec19RawVec$LT$T$C$A$GT$8grow_one17hcf254d991fef210fE', symObjAddr: 0x2530, symBinAddr: 0xBD8A0, symSize: 0xC0 }
  - { offsetInCU: 0x15709, offset: 0x438292, size: 0x8, addend: 0x0, symName: '__ZN5alloc7raw_vec19RawVec$LT$T$C$A$GT$8grow_one17hd89eb202b8db7e1aE', symObjAddr: 0x25F0, symBinAddr: 0xBD960, symSize: 0xC0 }
  - { offsetInCU: 0x15A4A, offset: 0x4385D3, size: 0x8, addend: 0x0, symName: '__ZN5alloc7raw_vec19RawVec$LT$T$C$A$GT$8grow_one17hdb610d4d82b2394dE', symObjAddr: 0x26B0, symBinAddr: 0xBDA20, symSize: 0xA0 }
  - { offsetInCU: 0x15ED9, offset: 0x438A62, size: 0x8, addend: 0x0, symName: '__ZN5alloc7raw_vec19RawVec$LT$T$C$A$GT$8grow_one17hdc14d76226baa6aaE', symObjAddr: 0x2750, symBinAddr: 0xBDAC0, symSize: 0xC0 }
  - { offsetInCU: 0x163A7, offset: 0x438F30, size: 0x8, addend: 0x0, symName: '__ZN5alloc7raw_vec19RawVec$LT$T$C$A$GT$8grow_one17hfb0e72b592d7c1fcE', symObjAddr: 0x2810, symBinAddr: 0xBDB80, symSize: 0xC0 }
  - { offsetInCU: 0x1E, offset: 0x4392DD, size: 0x8, addend: 0x0, symName: '__ZN4core3ptr100drop_in_place$LT$core..option..Option$LT$alloc..boxed..Box$LT$syn..path..GenericArgument$GT$$GT$$GT$17h3a7c44b9e57fe410E', symObjAddr: 0x0, symBinAddr: 0xBDC40, symSize: 0x50 }
  - { offsetInCU: 0x1A4F, offset: 0x43AD0E, size: 0x8, addend: 0x0, symName: '__ZN4core3ptr100drop_in_place$LT$core..option..Option$LT$alloc..boxed..Box$LT$syn..path..GenericArgument$GT$$GT$$GT$17h3a7c44b9e57fe410E', symObjAddr: 0x0, symBinAddr: 0xBDC40, symSize: 0x50 }
  - { offsetInCU: 0x1C1C, offset: 0x43AEDB, size: 0x8, addend: 0x0, symName: '__ZN4core3ptr102drop_in_place$LT$syn..punctuated..Punctuated$LT$syn..path..GenericArgument$C$syn..token..Comma$GT$$GT$17h8b1978399cfff48bE', symObjAddr: 0x50, symBinAddr: 0xBDC90, symSize: 0xF0 }
  - { offsetInCU: 0x1F3C, offset: 0x43B1FB, size: 0x8, addend: 0x0, symName: '__ZN4core3ptr103drop_in_place$LT$core..option..Option$LT$alloc..boxed..Box$LT$syn..generics..TypeParamBound$GT$$GT$$GT$17hb14e4384a768542bE', symObjAddr: 0x140, symBinAddr: 0xBDD80, symSize: 0x50 }
  - { offsetInCU: 0x2201, offset: 0x43B4C0, size: 0x8, addend: 0x0, symName: '__ZN4core3ptr103drop_in_place$LT$core..option..Option$LT$alloc..boxed..Box$LT$syn..generics..WherePredicate$GT$$GT$$GT$17he190813f4819c5dbE', symObjAddr: 0x190, symBinAddr: 0xBDDD0, symSize: 0xD0 }
  - { offsetInCU: 0x2595, offset: 0x43B854, size: 0x8, addend: 0x0, symName: '__ZN4core3ptr103drop_in_place$LT$syn..punctuated..Punctuated$LT$syn..generics..GenericParam$C$syn..token..Comma$GT$$GT$17h0c6077a988036760E', symObjAddr: 0x260, symBinAddr: 0xBDEA0, symSize: 0xF0 }
  - { offsetInCU: 0x2A90, offset: 0x43BD4F, size: 0x8, addend: 0x0, symName: '__ZN4core3ptr104drop_in_place$LT$syn..punctuated..Punctuated$LT$syn..generics..TypeParamBound$C$syn..token..Plus$GT$$GT$17h724e4d9d1d65061aE', symObjAddr: 0x350, symBinAddr: 0xBDF90, symSize: 0x260 }
  - { offsetInCU: 0x345E, offset: 0x43C71D, size: 0x8, addend: 0x0, symName: '__ZN4core3ptr115drop_in_place$LT$core..option..Option$LT$$LP$alloc..boxed..Box$LT$syn..pat..Pat$GT$$C$syn..token..Colon$RP$$GT$$GT$17h787822396d5dcd7bE', symObjAddr: 0x5B0, symBinAddr: 0xBE1F0, symSize: 0x50 }
  - { offsetInCU: 0x362C, offset: 0x43C8EB, size: 0x8, addend: 0x0, symName: '__ZN4core3ptr115drop_in_place$LT$core..option..Option$LT$$LP$syn..token..Brace$C$alloc..vec..Vec$LT$syn..item..Item$GT$$RP$$GT$$GT$17h4f61046186bbd7c9E', symObjAddr: 0x600, symBinAddr: 0xBE240, symSize: 0xD0 }
  - { offsetInCU: 0x3943, offset: 0x43CC02, size: 0x8, addend: 0x0, symName: '__ZN4core3ptr126drop_in_place$LT$core..option..Option$LT$$LP$syn..token..And$C$core..option..Option$LT$syn..lifetime..Lifetime$GT$$RP$$GT$$GT$17h45c5d73e12cdf6f0E', symObjAddr: 0x6D0, symBinAddr: 0xBE310, symSize: 0x30 }
  - { offsetInCU: 0x3B56, offset: 0x43CE15, size: 0x8, addend: 0x0, symName: '__ZN4core3ptr34drop_in_place$LT$syn..lit..Lit$GT$17hd64dde89a262341dE', symObjAddr: 0x700, symBinAddr: 0xBE340, symSize: 0x120 }
  - { offsetInCU: 0x4025, offset: 0x43D2E4, size: 0x8, addend: 0x0, symName: '__ZN4core3ptr34drop_in_place$LT$syn..pat..Pat$GT$17hf88887878261d63cE', symObjAddr: 0x820, symBinAddr: 0xBE460, symSize: 0xF70 }
  - { offsetInCU: 0x7F1F, offset: 0x4411DE, size: 0x8, addend: 0x0, symName: '__ZN4core3ptr34drop_in_place$LT$syn..ty..Type$GT$17ha80dd29b0f9d4a3fE', symObjAddr: 0x1790, symBinAddr: 0xBF3D0, symSize: 0x5A0 }
  - { offsetInCU: 0x98BB, offset: 0x442B7A, size: 0x8, addend: 0x0, symName: '__ZN4core3ptr36drop_in_place$LT$syn..expr..Expr$GT$17h10f573b40ddd212cE', symObjAddr: 0x1D30, symBinAddr: 0xBF970, symSize: 0x2760 }
  - { offsetInCU: 0x139D0, offset: 0x44CC8F, size: 0x8, addend: 0x0, symName: '__ZN4core3ptr36drop_in_place$LT$syn..item..Item$GT$17haa59cf9e39ab8cebE', symObjAddr: 0x4490, symBinAddr: 0xC20D0, symSize: 0x17C0 }
  - { offsetInCU: 0x195DF, offset: 0x45289E, size: 0x8, addend: 0x0, symName: '__ZN4core3ptr36drop_in_place$LT$syn..mac..Macro$GT$17hc3b30a7a8a34cc2dE', symObjAddr: 0x5C50, symBinAddr: 0xC3890, symSize: 0x110 }
  - { offsetInCU: 0x19A7C, offset: 0x452D3B, size: 0x8, addend: 0x0, symName: '__ZN4core3ptr36drop_in_place$LT$syn..path..Path$GT$17h75c74a97d5f0a03bE', symObjAddr: 0x5D60, symBinAddr: 0xC39A0, symSize: 0x280 }
  - { offsetInCU: 0x1A529, offset: 0x4537E8, size: 0x8, addend: 0x0, symName: '__ZN4core3ptr37drop_in_place$LT$syn..item..FnArg$GT$17h470fdeee5cba5e3aE', symObjAddr: 0x5FE0, symBinAddr: 0xC3C20, symSize: 0x160 }
  - { offsetInCU: 0x1AB08, offset: 0x453DC7, size: 0x8, addend: 0x0, symName: '__ZN4core3ptr37drop_in_place$LT$syn..stmt..Block$GT$17h6fc3254d5688f2c3E', symObjAddr: 0x6140, symBinAddr: 0xC3D80, symSize: 0xD0 }
  - { offsetInCU: 0x1ADFE, offset: 0x4540BD, size: 0x8, addend: 0x0, symName: '__ZN4core3ptr38drop_in_place$LT$syn..data..Fields$GT$17h79840861dd1f691dE', symObjAddr: 0x6210, symBinAddr: 0xC3E50, symSize: 0x190 }
  - { offsetInCU: 0x1B248, offset: 0x454507, size: 0x8, addend: 0x0, symName: '__ZN4core3ptr38drop_in_place$LT$syn..expr..Member$GT$17h6b0cf84594ce6bceE', symObjAddr: 0x63A0, symBinAddr: 0xC3FE0, symSize: 0x30 }
  - { offsetInCU: 0x1B344, offset: 0x454603, size: 0x8, addend: 0x0, symName: '__ZN4core3ptr39drop_in_place$LT$proc_macro2..Ident$GT$17ha28fef9769e267d9E', symObjAddr: 0x63D0, symBinAddr: 0xC4010, symSize: 0x30 }
  - { offsetInCU: 0x1B49D, offset: 0x45475C, size: 0x8, addend: 0x0, symName: '__ZN4core3ptr39drop_in_place$LT$syn..item..UseTree$GT$17h7288572c631f954aE', symObjAddr: 0x6400, symBinAddr: 0xC4040, symSize: 0xE0 }
  - { offsetInCU: 0x1B844, offset: 0x454B03, size: 0x8, addend: 0x0, symName: '__ZN4core3ptr39drop_in_place$LT$syn..ty..TypeGroup$GT$17hf74b5ab2edcb931fE', symObjAddr: 0x64E0, symBinAddr: 0xC4120, symSize: 0x50 }
  - { offsetInCU: 0x1BA2B, offset: 0x454CEA, size: 0x8, addend: 0x0, symName: '__ZN4core3ptr40drop_in_place$LT$syn..item..ImplItem$GT$17h98907b2080b0ccb0E', symObjAddr: 0x6530, symBinAddr: 0xC4170, symSize: 0x6E0 }
  - { offsetInCU: 0x1CF9C, offset: 0x45625B, size: 0x8, addend: 0x0, symName: '__ZN4core3ptr40drop_in_place$LT$syn..item..ItemImpl$GT$17h2e9f0b01a7977a55E', symObjAddr: 0x6C10, symBinAddr: 0xC4850, symSize: 0x1E0 }
  - { offsetInCU: 0x1D75C, offset: 0x456A1B, size: 0x8, addend: 0x0, symName: '__ZN4core3ptr40drop_in_place$LT$syn..item..Receiver$GT$17h5e68a437c3b8e574E', symObjAddr: 0x6DF0, symBinAddr: 0xC4A30, symSize: 0x130 }
  - { offsetInCU: 0x1DD47, offset: 0x457006, size: 0x8, addend: 0x0, symName: '__ZN4core3ptr40drop_in_place$LT$syn..item..Variadic$GT$17hf9d4ebdb0f5e723aE', symObjAddr: 0x6F20, symBinAddr: 0xC4B60, symSize: 0x110 }
  - { offsetInCU: 0x1E1C3, offset: 0x457482, size: 0x8, addend: 0x0, symName: '__ZN4core3ptr40drop_in_place$LT$syn..ty..ReturnType$GT$17h035a612e322b6510E', symObjAddr: 0x7030, symBinAddr: 0xC4C70, symSize: 0x50 }
  - { offsetInCU: 0x1E333, offset: 0x4575F2, size: 0x8, addend: 0x0, symName: '__ZN4core3ptr41drop_in_place$LT$syn..expr..ExprConst$GT$17hbfe19d5d621e6836E', symObjAddr: 0x7080, symBinAddr: 0xC4CC0, symSize: 0x180 }
  - { offsetInCU: 0x1E93F, offset: 0x457BFE, size: 0x8, addend: 0x0, symName: '__ZN4core3ptr41drop_in_place$LT$syn..item..Signature$GT$17h41f785211ad8eb02E', symObjAddr: 0x7200, symBinAddr: 0xC4E40, symSize: 0x180 }
  - { offsetInCU: 0x1F01F, offset: 0x4582DE, size: 0x8, addend: 0x0, symName: '__ZN4core3ptr41drop_in_place$LT$syn..item..TraitItem$GT$17hc74edaa948c160a2E', symObjAddr: 0x7380, symBinAddr: 0xC4FC0, symSize: 0x5E0 }
  - { offsetInCU: 0x201DB, offset: 0x45949A, size: 0x8, addend: 0x0, symName: '__ZN4core3ptr43drop_in_place$LT$syn..data..FieldsNamed$GT$17h56bef6f151514865E', symObjAddr: 0x7960, symBinAddr: 0xC55A0, symSize: 0xE0 }
  - { offsetInCU: 0x20501, offset: 0x4597C0, size: 0x8, addend: 0x0, symName: '__ZN4core3ptr44drop_in_place$LT$syn..generics..Generics$GT$17h671de917167f8b66E', symObjAddr: 0x7A40, symBinAddr: 0xC5680, symSize: 0x40 }
  - { offsetInCU: 0x2051E, offset: 0x4597DD, size: 0x8, addend: 0x0, symName: '__ZN4core3ptr44drop_in_place$LT$syn..lifetime..Lifetime$GT$17he37fa474f03de7b1E', symObjAddr: 0x7A80, symBinAddr: 0xC56C0, symSize: 0x30 }
  - { offsetInCU: 0x20696, offset: 0x459955, size: 0x8, addend: 0x0, symName: '__ZN4core3ptr44drop_in_place$LT$syn..parse..ParseBuffer$GT$17hf792ff20095efc35E', symObjAddr: 0x7AB0, symBinAddr: 0xC56F0, symSize: 0x70 }
  - { offsetInCU: 0x20AAD, offset: 0x459D6C, size: 0x8, addend: 0x0, symName: '__ZN4core3ptr45drop_in_place$LT$proc_macro2..TokenStream$GT$17h76e8e68015f4924dE', symObjAddr: 0x7B20, symBinAddr: 0xC5760, symSize: 0x140 }
  - { offsetInCU: 0x20F47, offset: 0x45A206, size: 0x8, addend: 0x0, symName: '__ZN4core3ptr45drop_in_place$LT$syn..generics..TypeParam$GT$17h188a459c1380ac75E', symObjAddr: 0x7C60, symBinAddr: 0xC58A0, symSize: 0x230 }
  - { offsetInCU: 0x217BC, offset: 0x45AA7B, size: 0x8, addend: 0x0, symName: '__ZN4core3ptr46drop_in_place$LT$syn..generics..ConstParam$GT$17h7a9b900b2b88bfcdE', symObjAddr: 0x7E90, symBinAddr: 0xC5AD0, symSize: 0x150 }
  - { offsetInCU: 0x21C3D, offset: 0x45AEFC, size: 0x8, addend: 0x0, symName: '__ZN4core3ptr47drop_in_place$LT$syn..path..GenericArgument$GT$17h593f06d6ca9a94d2E', symObjAddr: 0x7FE0, symBinAddr: 0xC5C20, symSize: 0x450 }
  - { offsetInCU: 0x229B3, offset: 0x45BC72, size: 0x8, addend: 0x0, symName: '__ZN4core3ptr49drop_in_place$LT$syn..generics..LifetimeParam$GT$17h3a8835ab294bfd16E', symObjAddr: 0x8430, symBinAddr: 0xC6070, symSize: 0xF0 }
  - { offsetInCU: 0x22DCA, offset: 0x45C089, size: 0x8, addend: 0x0, symName: '__ZN4core3ptr49drop_in_place$LT$syn..restriction..Visibility$GT$17h3e52b998838defb1E', symObjAddr: 0x8520, symBinAddr: 0xC6160, symSize: 0x60 }
  - { offsetInCU: 0x22F3B, offset: 0x45C1FA, size: 0x8, addend: 0x0, symName: '__ZN4core3ptr50drop_in_place$LT$syn..generics..TypeParamBound$GT$17h81b4325b5900604dE', symObjAddr: 0x8580, symBinAddr: 0xC61C0, symSize: 0xA0 }
  - { offsetInCU: 0x230A1, offset: 0x45C360, size: 0x8, addend: 0x0, symName: '__ZN4core3ptr58drop_in_place$LT$alloc..vec..Vec$LT$syn..expr..Arm$GT$$GT$17hff9224aadf2233b8E', symObjAddr: 0x8620, symBinAddr: 0xC6260, symSize: 0xD0 }
  - { offsetInCU: 0x23361, offset: 0x45C620, size: 0x8, addend: 0x0, symName: '__ZN4core3ptr59drop_in_place$LT$alloc..boxed..Box$LT$syn..pat..Pat$GT$$GT$17h622b0c1db21c0742E', symObjAddr: 0x86F0, symBinAddr: 0xC6330, symSize: 0x50 }
  - { offsetInCU: 0x234BA, offset: 0x45C779, size: 0x8, addend: 0x0, symName: '__ZN4core3ptr59drop_in_place$LT$alloc..boxed..Box$LT$syn..ty..Type$GT$$GT$17hde45fa887dd8b605E', symObjAddr: 0x8740, symBinAddr: 0xC6380, symSize: 0x50 }
  - { offsetInCU: 0x23613, offset: 0x45C8D2, size: 0x8, addend: 0x0, symName: '__ZN4core3ptr61drop_in_place$LT$alloc..boxed..Box$LT$syn..expr..Expr$GT$$GT$17hbb42293869113942E', symObjAddr: 0x8790, symBinAddr: 0xC63D0, symSize: 0x50 }
  - { offsetInCU: 0x2376C, offset: 0x45CA2B, size: 0x8, addend: 0x0, symName: '__ZN4core3ptr61drop_in_place$LT$syn..path..ParenthesizedGenericArguments$GT$17h6b1731382637937fE', symObjAddr: 0x87E0, symBinAddr: 0xC6420, symSize: 0x170 }
  - { offsetInCU: 0x23D75, offset: 0x45D034, size: 0x8, addend: 0x0, symName: '__ZN4core3ptr62drop_in_place$LT$alloc..boxed..Box$LT$syn..stmt..Block$GT$$GT$17h21dcb5adf0237a12E', symObjAddr: 0x8950, symBinAddr: 0xC6590, symSize: 0xE0 }
  - { offsetInCU: 0x24183, offset: 0x45D442, size: 0x8, addend: 0x0, symName: '__ZN4core3ptr63drop_in_place$LT$alloc..boxed..Box$LT$syn..lit..LitRepr$GT$$GT$17h6e3a82ea4de7b84cE', symObjAddr: 0x8A30, symBinAddr: 0xC6670, symSize: 0x60 }
  - { offsetInCU: 0x2444C, offset: 0x45D70B, size: 0x8, addend: 0x0, symName: '__ZN4core3ptr63drop_in_place$LT$alloc..vec..Vec$LT$syn..item..ImplItem$GT$$GT$17hc51fca07e67d35aeE', symObjAddr: 0x8A90, symBinAddr: 0xC66D0, symSize: 0x80 }
  - { offsetInCU: 0x24723, offset: 0x45D9E2, size: 0x8, addend: 0x0, symName: '__ZN4core3ptr64drop_in_place$LT$alloc..boxed..Box$LT$syn..item..UseTree$GT$$GT$17he4d7024582150632E', symObjAddr: 0x8B10, symBinAddr: 0xC6750, symSize: 0xF0 }
  - { offsetInCU: 0x24C3E, offset: 0x45DEFD, size: 0x8, addend: 0x0, symName: '__ZN4core3ptr64drop_in_place$LT$alloc..boxed..Box$LT$syn..pat..FieldPat$GT$$GT$17hbf8f4867d84bd25dE', symObjAddr: 0x8C00, symBinAddr: 0xC6840, symSize: 0x140 }
  - { offsetInCU: 0x2533F, offset: 0x45E5FE, size: 0x8, addend: 0x0, symName: '__ZN4core3ptr64drop_in_place$LT$alloc..boxed..Box$LT$syn..ty..BareFnArg$GT$$GT$17h6be6354eb1d1364dE', symObjAddr: 0x8D40, symBinAddr: 0xC6980, symSize: 0x140 }
  - { offsetInCU: 0x258C8, offset: 0x45EB87, size: 0x8, addend: 0x0, symName: '__ZN4core3ptr64drop_in_place$LT$alloc..vec..Vec$LT$syn..attr..Attribute$GT$$GT$17he33e25539d5885aeE', symObjAddr: 0x8E80, symBinAddr: 0xC6AC0, symSize: 0xD0 }
  - { offsetInCU: 0x25BBC, offset: 0x45EE7B, size: 0x8, addend: 0x0, symName: '__ZN4core3ptr64drop_in_place$LT$alloc..vec..Vec$LT$syn..item..TraitItem$GT$$GT$17hff1cc01ccae80d7aE', symObjAddr: 0x8F50, symBinAddr: 0xC6B90, symSize: 0x80 }
  - { offsetInCU: 0x25E74, offset: 0x45F133, size: 0x8, addend: 0x0, symName: '__ZN4core3ptr65drop_in_place$LT$alloc..vec..Vec$LT$proc_macro..TokenTree$GT$$GT$17h8abd81f8596dbc59E', symObjAddr: 0x8FD0, symBinAddr: 0xC6C10, symSize: 0x110 }
  - { offsetInCU: 0x2626C, offset: 0x45F52B, size: 0x8, addend: 0x0, symName: '__ZN4core3ptr65drop_in_place$LT$core..option..Option$LT$syn..expr..Label$GT$$GT$17hac599686b33ef364E', symObjAddr: 0x90E0, symBinAddr: 0xC6D20, symSize: 0x30 }
  - { offsetInCU: 0x263A6, offset: 0x45F665, size: 0x8, addend: 0x0, symName: '__ZN4core3ptr65drop_in_place$LT$core..option..Option$LT$syn..path..QSelf$GT$$GT$17h0b8dd5cda5f2cd6bE', symObjAddr: 0x9110, symBinAddr: 0xC6D50, symSize: 0x50 }
  - { offsetInCU: 0x26527, offset: 0x45F7E6, size: 0x8, addend: 0x0, symName: '__ZN4core3ptr65drop_in_place$LT$core..option..Option$LT$syn..stmt..Block$GT$$GT$17h74f2551ed24e2d27E', symObjAddr: 0x9160, symBinAddr: 0xC6DA0, symSize: 0xD0 }
  - { offsetInCU: 0x267FC, offset: 0x45FABB, size: 0x8, addend: 0x0, symName: '__ZN4core3ptr66drop_in_place$LT$alloc..vec..Vec$LT$syn..item..ForeignItem$GT$$GT$17h1f176e04eaf5e0dfE', symObjAddr: 0x9230, symBinAddr: 0xC6E70, symSize: 0x80 }
  - { offsetInCU: 0x26AB4, offset: 0x45FD73, size: 0x8, addend: 0x0, symName: '__ZN4core3ptr66drop_in_place$LT$core..option..Option$LT$syn..pat..PatRest$GT$$GT$17hd5bb3bc28aa78ac1E', symObjAddr: 0x92B0, symBinAddr: 0xC6EF0, symSize: 0xE0 }
  - { offsetInCU: 0x26DDC, offset: 0x46009B, size: 0x8, addend: 0x0, symName: '__ZN4core3ptr67drop_in_place$LT$alloc..boxed..Box$LT$syn..expr..FieldValue$GT$$GT$17hbbcf67a9d5e9863cE', symObjAddr: 0x9390, symBinAddr: 0xC6FD0, symSize: 0x140 }
  - { offsetInCU: 0x27364, offset: 0x460623, size: 0x8, addend: 0x0, symName: '__ZN4core3ptr70drop_in_place$LT$core..option..Option$LT$syn..ty..BareVariadic$GT$$GT$17h79a19250e9f043b1E', symObjAddr: 0x94D0, symBinAddr: 0xC7110, symSize: 0x100 }
  - { offsetInCU: 0x277CF, offset: 0x460A8E, size: 0x8, addend: 0x0, symName: '__ZN4core3ptr72drop_in_place$LT$alloc..boxed..Box$LT$syn..path..GenericArgument$GT$$GT$17hfd308d374af4273dE', symObjAddr: 0x95D0, symBinAddr: 0xC7210, symSize: 0x2B0 }
  - { offsetInCU: 0x281E0, offset: 0x46149F, size: 0x8, addend: 0x0, symName: '__ZN4core3ptr72drop_in_place$LT$core..option..Option$LT$syn..lifetime..Lifetime$GT$$GT$17h49cce6f02f9c0590E', symObjAddr: 0x9880, symBinAddr: 0xC74C0, symSize: 0x30 }
  - { offsetInCU: 0x282FB, offset: 0x4615BA, size: 0x8, addend: 0x0, symName: '__ZN4core3ptr73drop_in_place$LT$alloc..boxed..Box$LT$syn..generics..GenericParam$GT$$GT$17ha26d5d145af4b203E', symObjAddr: 0x98B0, symBinAddr: 0xC74F0, symSize: 0x80 }
  - { offsetInCU: 0x28471, offset: 0x461730, size: 0x8, addend: 0x0, symName: '__ZN4core3ptr75drop_in_place$LT$alloc..boxed..Box$LT$syn..generics..TypeParamBound$GT$$GT$17h129a4e927e5eb81bE', symObjAddr: 0x9930, symBinAddr: 0xC7570, symSize: 0x1B0 }
  - { offsetInCU: 0x28B8F, offset: 0x461E4E, size: 0x8, addend: 0x0, symName: '__ZN4core3ptr75drop_in_place$LT$core..option..Option$LT$syn..generics..WhereClause$GT$$GT$17haaf63f327098cdccE', symObjAddr: 0x9AE0, symBinAddr: 0xC7720, symSize: 0x90 }
  - { offsetInCU: 0x28E83, offset: 0x462142, size: 0x8, addend: 0x0, symName: '__ZN4core3ptr86drop_in_place$LT$syn..punctuated..Punctuated$LT$syn..pat..Pat$C$syn..token..Or$GT$$GT$17h9cc6b5f7b6d3a555E', symObjAddr: 0x9B70, symBinAddr: 0xC77B0, symSize: 0x120 }
  - { offsetInCU: 0x292FE, offset: 0x4625BD, size: 0x8, addend: 0x0, symName: '__ZN4core3ptr87drop_in_place$LT$core..option..Option$LT$alloc..boxed..Box$LT$syn..pat..Pat$GT$$GT$$GT$17h51cd48973d96c411E', symObjAddr: 0x9C90, symBinAddr: 0xC78D0, symSize: 0x50 }
  - { offsetInCU: 0x2946E, offset: 0x46272D, size: 0x8, addend: 0x0, symName: '__ZN4core3ptr87drop_in_place$LT$core..option..Option$LT$alloc..boxed..Box$LT$syn..ty..Type$GT$$GT$$GT$17h103a25a4a7d7374eE', symObjAddr: 0x9CE0, symBinAddr: 0xC7920, symSize: 0x50 }
  - { offsetInCU: 0x295DE, offset: 0x46289D, size: 0x8, addend: 0x0, symName: '__ZN4core3ptr89drop_in_place$LT$core..option..Option$LT$alloc..boxed..Box$LT$syn..expr..Expr$GT$$GT$$GT$17h9e02509cb2345d44E', symObjAddr: 0x9D30, symBinAddr: 0xC7970, symSize: 0x50 }
  - { offsetInCU: 0x2978C, offset: 0x462A4B, size: 0x8, addend: 0x0, symName: '__ZN4core3ptr89drop_in_place$LT$syn..punctuated..Punctuated$LT$syn..pat..Pat$C$syn..token..Comma$GT$$GT$17hd3a83c36827f210aE', symObjAddr: 0x9D80, symBinAddr: 0xC79C0, symSize: 0x120 }
  - { offsetInCU: 0x29C5C, offset: 0x462F1B, size: 0x8, addend: 0x0, symName: '__ZN4core3ptr90drop_in_place$LT$core..option..Option$LT$alloc..boxed..Box$LT$syn..data..Field$GT$$GT$$GT$17h9f1aee8cd56c6727E', symObjAddr: 0x9EA0, symBinAddr: 0xC7AE0, symSize: 0x1B0 }
  - { offsetInCU: 0x2A34E, offset: 0x46360D, size: 0x8, addend: 0x0, symName: '__ZN4core3ptr90drop_in_place$LT$core..option..Option$LT$alloc..boxed..Box$LT$syn..item..FnArg$GT$$GT$$GT$17h8635495a730dc0bfE', symObjAddr: 0xA050, symBinAddr: 0xC7C90, symSize: 0x50 }
  - { offsetInCU: 0x2A4EF, offset: 0x4637AE, size: 0x8, addend: 0x0, symName: '__ZN4core3ptr91drop_in_place$LT$syn..punctuated..Punctuated$LT$syn..expr..Expr$C$syn..token..Comma$GT$$GT$17h6f261e8f470c81f2E', symObjAddr: 0xA0A0, symBinAddr: 0xC7CE0, symSize: 0x120 }
  - { offsetInCU: 0x2A97D, offset: 0x463C3C, size: 0x8, addend: 0x0, symName: '__ZN4core3ptr92drop_in_place$LT$core..option..Option$LT$$LP$syn..token..As$C$proc_macro2..Ident$RP$$GT$$GT$17h12a88945917fa9dbE', symObjAddr: 0xA1C0, symBinAddr: 0xC7E00, symSize: 0x30 }
  - { offsetInCU: 0x2AAD6, offset: 0x463D95, size: 0x8, addend: 0x0, symName: '__ZN4core3ptr92drop_in_place$LT$core..option..Option$LT$alloc..boxed..Box$LT$syn..data..Variant$GT$$GT$$GT$17hb65f9b5d99f448afE', symObjAddr: 0xA1F0, symBinAddr: 0xC7E30, symSize: 0x170 }
  - { offsetInCU: 0x2B102, offset: 0x4643C1, size: 0x8, addend: 0x0, symName: '__ZN4core3ptr92drop_in_place$LT$syn..punctuated..Punctuated$LT$syn..item..FnArg$C$syn..token..Comma$GT$$GT$17h7de33e77eabaea82E', symObjAddr: 0xA360, symBinAddr: 0xC7FA0, symSize: 0x130 }
  - { offsetInCU: 0x2B568, offset: 0x464827, size: 0x8, addend: 0x0, symName: '__ZN4core3ptr94drop_in_place$LT$syn..punctuated..Punctuated$LT$syn..data..Variant$C$syn..token..Comma$GT$$GT$17h310cd79aba4529ccE', symObjAddr: 0xA490, symBinAddr: 0xC80D0, symSize: 0xE0 }
  - { offsetInCU: 0x2B8C8, offset: 0x464B87, size: 0x8, addend: 0x0, symName: '__ZN4core3ptr94drop_in_place$LT$syn..punctuated..Punctuated$LT$syn..item..UseTree$C$syn..token..Comma$GT$$GT$17h6236871345889df7E', symObjAddr: 0xA570, symBinAddr: 0xC81B0, symSize: 0xF0 }
  - { offsetInCU: 0x2BC0E, offset: 0x464ECD, size: 0x8, addend: 0x0, symName: '__ZN4core3ptr94drop_in_place$LT$syn..punctuated..Punctuated$LT$syn..pat..FieldPat$C$syn..token..Comma$GT$$GT$17h43ec25af986ef674E', symObjAddr: 0xA660, symBinAddr: 0xC82A0, symSize: 0xF0 }
  - { offsetInCU: 0x2BF0D, offset: 0x4651CC, size: 0x8, addend: 0x0, symName: '__ZN4core3ptr94drop_in_place$LT$syn..punctuated..Punctuated$LT$syn..ty..BareFnArg$C$syn..token..Comma$GT$$GT$17h7ba4c699ee390ebaE', symObjAddr: 0xA750, symBinAddr: 0xC8390, symSize: 0xF0 }
  - { offsetInCU: 0x2C20E, offset: 0x4654CD, size: 0x8, addend: 0x0, symName: '__ZN4core3ptr96drop_in_place$LT$core..option..Option$LT$alloc..boxed..Box$LT$syn..path..PathSegment$GT$$GT$$GT$17h5de12a5a0f9e9ef9E', symObjAddr: 0xA840, symBinAddr: 0xC8480, symSize: 0x1A0 }
  - { offsetInCU: 0x2C8CF, offset: 0x465B8E, size: 0x8, addend: 0x0, symName: '__ZN4core3ptr97drop_in_place$LT$syn..punctuated..Punctuated$LT$syn..expr..FieldValue$C$syn..token..Comma$GT$$GT$17hf58d0a9a09266ab3E', symObjAddr: 0xA9E0, symBinAddr: 0xC8620, symSize: 0xF0 }
  - { offsetInCU: 0x2CC48, offset: 0x465F07, size: 0x8, addend: 0x0, symName: '__ZN4core3ptr98drop_in_place$LT$syn..punctuated..Punctuated$LT$syn..lifetime..Lifetime$C$syn..token..Plus$GT$$GT$17h600c2b78f78fd2b9E', symObjAddr: 0xAAD0, symBinAddr: 0xC8710, symSize: 0xD0 }
  - { offsetInCU: 0x341C4, offset: 0x46D483, size: 0x8, addend: 0x0, symName: __ZN3syn4item7parsing18parse_rest_of_item17ha26e4acb71011a19E, symObjAddr: 0xAC50, symBinAddr: 0xC8890, symSize: 0x4180 }
  - { offsetInCU: 0x40A1B, offset: 0x479CDA, size: 0x8, addend: 0x0, symName: __ZN3syn4item7parsing12parse_macro217hf6831cf9afcd0b55E, symObjAddr: 0xFC80, symBinAddr: 0xCD8C0, symSize: 0x8D0 }
  - { offsetInCU: 0x42564, offset: 0x47B823, size: 0x8, addend: 0x0, symName: __ZN3syn4item7parsing14parse_item_use17h48b98338f7612e03E, symObjAddr: 0x10550, symBinAddr: 0xCE190, symSize: 0x580 }
  - { offsetInCU: 0x42FF7, offset: 0x47C2B6, size: 0x8, addend: 0x0, symName: __ZN3syn4item7parsing14parse_use_tree17h3459008fc061dfc3E, symObjAddr: 0x10AD0, symBinAddr: 0xCE710, symSize: 0xEA0 }
  - { offsetInCU: 0x45A71, offset: 0x47ED30, size: 0x8, addend: 0x0, symName: __ZN3syn4item7parsing14peek_signature17h6fcb1c3323e18828E, symObjAddr: 0x11970, symBinAddr: 0xCF5B0, symSize: 0x3E0 }
  - { offsetInCU: 0x46DC9, offset: 0x480088, size: 0x8, addend: 0x0, symName: __ZN3syn4item7parsing16parse_rest_of_fn17hd069073817548a43E, symObjAddr: 0x11D50, symBinAddr: 0xCF990, symSize: 0x540 }
  - { offsetInCU: 0x47AF7, offset: 0x480DB6, size: 0x8, addend: 0x0, symName: __ZN3syn4item7parsing24parse_fn_arg_or_variadic17h2531ec3f9cf1e73bE, symObjAddr: 0x12290, symBinAddr: 0xCFED0, symSize: 0xE20 }
  - { offsetInCU: 0x4A78E, offset: 0x483A4D, size: 0x8, addend: 0x0, symName: __ZN3syn4item7parsing13parse_fn_args17hef126a53be169aa0E, symObjAddr: 0x130B0, symBinAddr: 0xD0CF0, symSize: 0x7D0 }
  - { offsetInCU: 0x4B5EF, offset: 0x4848AE, size: 0x8, addend: 0x0, symName: __ZN3syn4item7parsing23parse_foreign_item_type17h802ebbe8ec67c11cE, symObjAddr: 0x13880, symBinAddr: 0xD14C0, symSize: 0x450 }
  - { offsetInCU: 0x4BCC9, offset: 0x484F88, size: 0x8, addend: 0x0, symName: __ZN3syn4item7parsing15parse_item_type17ha00b234c7541791bE, symObjAddr: 0x13CD0, symBinAddr: 0xD1910, symSize: 0x5F0 }
  - { offsetInCU: 0x4C703, offset: 0x4859C2, size: 0x8, addend: 0x0, symName: __ZN3syn4item7parsing26parse_trait_or_trait_alias17h869d58d0d710f92eE, symObjAddr: 0x142C0, symBinAddr: 0xD1F00, symSize: 0x880 }
  - { offsetInCU: 0x4E05A, offset: 0x487319, size: 0x8, addend: 0x0, symName: __ZN3syn4item7parsing19parse_rest_of_trait17hcfaaa983dae95479E, symObjAddr: 0x14B40, symBinAddr: 0xD2780, symSize: 0xB90 }
  - { offsetInCU: 0x4F841, offset: 0x488B00, size: 0x8, addend: 0x0, symName: __ZN3syn4item7parsing26parse_start_of_trait_alias17h30b54fc2a2c484e2E, symObjAddr: 0x156D0, symBinAddr: 0xD3310, symSize: 0x4B0 }
  - { offsetInCU: 0x502A9, offset: 0x489568, size: 0x8, addend: 0x0, symName: __ZN3syn4item7parsing25parse_rest_of_trait_alias17hc3ff4bca2b4f24ffE, symObjAddr: 0x15B80, symBinAddr: 0xD37C0, symSize: 0x670 }
  - { offsetInCU: 0x50F41, offset: 0x48A200, size: 0x8, addend: 0x0, symName: __ZN3syn4item7parsing21parse_trait_item_type17h346cdab40b3c4f88E, symObjAddr: 0x161F0, symBinAddr: 0xD3E30, symSize: 0x4D0 }
  - { offsetInCU: 0x51733, offset: 0x48A9F2, size: 0x8, addend: 0x0, symName: __ZN3syn4item7parsing10parse_impl17hdf5cb50f2b1c1c56E, symObjAddr: 0x166C0, symBinAddr: 0xD4300, symSize: 0x1700 }
  - { offsetInCU: 0x535AB, offset: 0x48C86A, size: 0x8, addend: 0x0, symName: __ZN3syn4item7parsing18parse_impl_item_fn17h8007279fefb73b29E, symObjAddr: 0x17DC0, symBinAddr: 0xD5A00, symSize: 0x770 }
  - { offsetInCU: 0x54302, offset: 0x48D5C1, size: 0x8, addend: 0x0, symName: __ZN3syn4item7parsing20parse_impl_item_type17hcc883153d233f1e7E, symObjAddr: 0x18530, symBinAddr: 0xD6170, symSize: 0x49B }
  - { offsetInCU: 0x59A23, offset: 0x492CE2, size: 0x8, addend: 0x0, symName: __ZN5alloc5alloc15exchange_malloc17h9a87608d0224859dE, symObjAddr: 0xAC10, symBinAddr: 0xC8850, symSize: 0x40 }
  - { offsetInCU: 0x5D6B7, offset: 0x496976, size: 0x8, addend: 0x0, symName: '__ZN5alloc3vec16Vec$LT$T$C$A$GT$4push17h8559c656bf8cfdb7E', symObjAddr: 0xABA0, symBinAddr: 0xC87E0, symSize: 0x70 }
  - { offsetInCU: 0x5E776, offset: 0x497A35, size: 0x8, addend: 0x0, symName: __ZN3syn4item7parsing16FlexibleItemType5parse17ha5c93c92e512e37dE, symObjAddr: 0xEDD0, symBinAddr: 0xCCA10, symSize: 0xA20 }
  - { offsetInCU: 0x5F4A5, offset: 0x498764, size: 0x8, addend: 0x0, symName: __ZN3syn4item7parsing16FlexibleItemType21parse_optional_bounds17h6e18b1c664fc4e1bE, symObjAddr: 0xF7F0, symBinAddr: 0xCD430, symSize: 0x340 }
  - { offsetInCU: 0x5FBAE, offset: 0x498E6D, size: 0x8, addend: 0x0, symName: __ZN3syn4item7parsing16FlexibleItemType25parse_optional_definition17hf229b9de02f2ada3E, symObjAddr: 0xFB30, symBinAddr: 0xCD770, symSize: 0x150 }
  - { offsetInCU: 0x527, offset: 0x4A4AD4, size: 0x8, addend: 0x0, symName: '__ZN76_$LT$syn..generics..WherePredicate$u20$as$u20$quote..to_tokens..ToTokens$GT$9to_tokens17hfb1e16b8ad40d7cfE', symObjAddr: 0x11550, symBinAddr: 0xE50B0, symSize: 0x190 }
  - { offsetInCU: 0xBF2, offset: 0x4A519F, size: 0x8, addend: 0x0, symName: '__ZN3syn8generics8printing80_$LT$impl$u20$quote..to_tokens..ToTokens$u20$for$u20$syn..generics..Generics$GT$9to_tokens17hd4a2af35b3698905E', symObjAddr: 0xF4D0, symBinAddr: 0xE40D0, symSize: 0x220 }
  - { offsetInCU: 0x13F5, offset: 0x4A59A2, size: 0x8, addend: 0x0, symName: '__ZN3syn8generics8printing86_$LT$impl$u20$quote..to_tokens..ToTokens$u20$for$u20$syn..generics..BoundLifetimes$GT$9to_tokens17hd15a7a043033bd7bE', symObjAddr: 0x10110, symBinAddr: 0xE42F0, symSize: 0x160 }
  - { offsetInCU: 0x18FA, offset: 0x4A5EA7, size: 0x8, addend: 0x0, symName: '__ZN3syn8generics8printing81_$LT$impl$u20$quote..to_tokens..ToTokens$u20$for$u20$syn..generics..TypeParam$GT$9to_tokens17had0957bfff47d1f9E', symObjAddr: 0x10490, symBinAddr: 0xE4450, symSize: 0x1E0 }
  - { offsetInCU: 0x2036, offset: 0x4A65E3, size: 0x8, addend: 0x0, symName: '__ZN3syn8generics8printing82_$LT$impl$u20$quote..to_tokens..ToTokens$u20$for$u20$syn..generics..TraitBound$GT$9to_tokens17h377c6cef550ec1bfE', symObjAddr: 0x10670, symBinAddr: 0xE4630, symSize: 0x200 }
  - { offsetInCU: 0x2685, offset: 0x4A6C32, size: 0x8, addend: 0x0, symName: '__ZN3syn8generics8printing82_$LT$impl$u20$quote..to_tokens..ToTokens$u20$for$u20$syn..generics..ConstParam$GT$9to_tokens17hee7453fb2d0e238bE', symObjAddr: 0x108A0, symBinAddr: 0xE4830, symSize: 0x1D0 }
  - { offsetInCU: 0x2A26, offset: 0x4A6FD3, size: 0x8, addend: 0x0, symName: '__ZN3syn8generics8printing83_$LT$impl$u20$quote..to_tokens..ToTokens$u20$for$u20$syn..generics..WhereClause$GT$9to_tokens17h909a6fdfe3e31442E', symObjAddr: 0x10A70, symBinAddr: 0xE4A00, symSize: 0x120 }
  - { offsetInCU: 0x2FD0, offset: 0x4A757D, size: 0x8, addend: 0x0, symName: '__ZN3syn8generics8printing85_$LT$impl$u20$quote..to_tokens..ToTokens$u20$for$u20$syn..generics..PredicateType$GT$9to_tokens17h8b4ffaf01fdc18f1E', symObjAddr: 0x10CF0, symBinAddr: 0xE4B20, symSize: 0x320 }
  - { offsetInCU: 0x3AC8, offset: 0x4A8075, size: 0x8, addend: 0x0, symName: '__ZN3syn8generics7parsing71_$LT$impl$u20$syn..parse..Parse$u20$for$u20$syn..generics..Generics$GT$5parse17h41c098435a7be9a0E', symObjAddr: 0x8920, symBinAddr: 0xDE100, symSize: 0x1100 }
  - { offsetInCU: 0x6183, offset: 0x4AA730, size: 0x8, addend: 0x0, symName: '__ZN3syn8generics7parsing76_$LT$impl$u20$syn..parse..Parse$u20$for$u20$syn..generics..LifetimeParam$GT$5parse17h5d8a6609f02a7b5bE', symObjAddr: 0xA520, symBinAddr: 0xDF200, symSize: 0x800 }
  - { offsetInCU: 0x720A, offset: 0x4AB7B7, size: 0x8, addend: 0x0, symName: '__ZN3syn8generics7parsing77_$LT$impl$u20$syn..parse..Parse$u20$for$u20$syn..generics..BoundLifetimes$GT$5parse17hc16736384c98dd41E', symObjAddr: 0xAD20, symBinAddr: 0xDFA00, symSize: 0x6A0 }
  - { offsetInCU: 0x7F74, offset: 0x4AC521, size: 0x8, addend: 0x0, symName: '__ZN3syn8generics7parsing72_$LT$impl$u20$syn..parse..Parse$u20$for$u20$syn..generics..TypeParam$GT$5parse17h9c7ea43a33d4115aE', symObjAddr: 0xB3C0, symBinAddr: 0xE00A0, symSize: 0x770 }
  - { offsetInCU: 0x90B3, offset: 0x4AD660, size: 0x8, addend: 0x0, symName: '__ZN3syn8generics7parsing77_$LT$impl$u20$syn..parse..Parse$u20$for$u20$syn..generics..TypeParamBound$GT$5parse17h25e623b87f173e12E', symObjAddr: 0xBB30, symBinAddr: 0xE0810, symSize: 0x1250 }
  - { offsetInCU: 0xCA58, offset: 0x4B1005, size: 0x8, addend: 0x0, symName: '__ZN3syn8generics7parsing73_$LT$impl$u20$syn..parse..Parse$u20$for$u20$syn..generics..TraitBound$GT$5parse17h690a689474a7b206E', symObjAddr: 0xD250, symBinAddr: 0xE1F30, symSize: 0x6B0 }
  - { offsetInCU: 0xD997, offset: 0x4B1F44, size: 0x8, addend: 0x0, symName: '__ZN3syn8generics7parsing73_$LT$impl$u20$syn..parse..Parse$u20$for$u20$syn..generics..ConstParam$GT$5parse17h7d6405b926c1a94eE', symObjAddr: 0xD9E0, symBinAddr: 0xE25E0, symSize: 0x970 }
  - { offsetInCU: 0xEE59, offset: 0x4B3406, size: 0x8, addend: 0x0, symName: '__ZN3syn8generics7parsing74_$LT$impl$u20$syn..parse..Parse$u20$for$u20$syn..generics..WhereClause$GT$5parse17hd23830e75acad64dE', symObjAddr: 0xE350, symBinAddr: 0xE2F50, symSize: 0x3B0 }
  - { offsetInCU: 0xF911, offset: 0x4B3EBE, size: 0x8, addend: 0x0, symName: '__ZN3syn8generics7parsing77_$LT$impl$u20$syn..parse..Parse$u20$for$u20$syn..generics..WherePredicate$GT$5parse17h70c29b17190c019cE', symObjAddr: 0xE700, symBinAddr: 0xE3300, symSize: 0xDD0 }
  - { offsetInCU: 0x1181C, offset: 0x4B5DC9, size: 0x8, addend: 0x0, symName: '__ZN74_$LT$syn..generics..GenericParam$u20$as$u20$quote..to_tokens..ToTokens$GT$9to_tokens17h597acb1380a7ac96E', symObjAddr: 0x11010, symBinAddr: 0xE4E40, symSize: 0x270 }
  - { offsetInCU: 0x16DDD, offset: 0x4BB38A, size: 0x8, addend: 0x0, symName: '__ZN3syn3gen5clone76_$LT$impl$u20$core..clone..Clone$u20$for$u20$syn..generics..GenericParam$GT$5clone17h384a14b3322897bfE', symObjAddr: 0x11910, symBinAddr: 0xE5430, symSize: 0x70 }
  - { offsetInCU: 0x16E80, offset: 0x4BB42D, size: 0x8, addend: 0x0, symName: '__ZN3syn3gen5clone78_$LT$impl$u20$core..clone..Clone$u20$for$u20$syn..generics..WherePredicate$GT$5clone17hbd6bd00e6f5532d2E', symObjAddr: 0x125F0, symBinAddr: 0xE5DB0, symSize: 0x100 }
  - { offsetInCU: 0x1711C, offset: 0x4BB6C9, size: 0x8, addend: 0x0, symName: '__ZN3syn3gen5clone74_$LT$impl$u20$core..clone..Clone$u20$for$u20$syn..generics..ConstParam$GT$5clone17h8bc67da494863269E', symObjAddr: 0x11720, symBinAddr: 0xE5240, symSize: 0x1F0 }
  - { offsetInCU: 0x173B0, offset: 0x4BB95D, size: 0x8, addend: 0x0, symName: '__ZN3syn3gen5clone77_$LT$impl$u20$core..clone..Clone$u20$for$u20$syn..generics..LifetimeParam$GT$5clone17hbf15cdf236adaa10E', symObjAddr: 0x11A90, symBinAddr: 0xE54A0, symSize: 0x130 }
  - { offsetInCU: 0x175D5, offset: 0x4BBB82, size: 0x8, addend: 0x0, symName: '__ZN3syn3gen5clone77_$LT$impl$u20$core..clone..Clone$u20$for$u20$syn..generics..PredicateType$GT$5clone17h013cd41ed055cad0E', symObjAddr: 0x11CA0, symBinAddr: 0xE55D0, symSize: 0x150 }
  - { offsetInCU: 0x17768, offset: 0x4BBD15, size: 0x8, addend: 0x0, symName: '__ZN3syn3gen5clone73_$LT$impl$u20$core..clone..Clone$u20$for$u20$syn..generics..TypeParam$GT$5clone17hddca7c785eaee5f9E', symObjAddr: 0x11F40, symBinAddr: 0xE5720, symSize: 0x2B0 }
  - { offsetInCU: 0x17C30, offset: 0x4BC1DD, size: 0x8, addend: 0x0, symName: '__ZN3syn3gen5clone78_$LT$impl$u20$core..clone..Clone$u20$for$u20$syn..generics..TypeParamBound$GT$5clone17hc8c21b6b99f4be95E', symObjAddr: 0x121F0, symBinAddr: 0xE59D0, symSize: 0x3E0 }
  - { offsetInCU: 0x1AF5F, offset: 0x4BF50C, size: 0x8, addend: 0x0, symName: '__ZN4core3ptr100drop_in_place$LT$core..option..Option$LT$alloc..boxed..Box$LT$syn..path..GenericArgument$GT$$GT$$GT$17h3a7c44b9e57fe410E', symObjAddr: 0x360, symBinAddr: 0xD6750, symSize: 0x50 }
  - { offsetInCU: 0x1B16A, offset: 0x4BF717, size: 0x8, addend: 0x0, symName: '__ZN4core3ptr100drop_in_place$LT$syn..punctuated..Punctuated$LT$syn..path..PathSegment$C$syn..token..PathSep$GT$$GT$17he41ef64147139591E', symObjAddr: 0x3B0, symBinAddr: 0xD67A0, symSize: 0x170 }
  - { offsetInCU: 0x1B7E3, offset: 0x4BFD90, size: 0x8, addend: 0x0, symName: '__ZN4core3ptr103drop_in_place$LT$core..option..Option$LT$alloc..boxed..Box$LT$syn..generics..TypeParamBound$GT$$GT$$GT$17hb14e4384a768542bE', symObjAddr: 0x520, symBinAddr: 0xD6910, symSize: 0x50 }
  - { offsetInCU: 0x1BA0D, offset: 0x4BFFBA, size: 0x8, addend: 0x0, symName: '__ZN4core3ptr103drop_in_place$LT$core..option..Option$LT$alloc..boxed..Box$LT$syn..generics..WherePredicate$GT$$GT$$GT$17he190813f4819c5dbE', symObjAddr: 0x570, symBinAddr: 0xD6960, symSize: 0xD0 }
  - { offsetInCU: 0x1BDA1, offset: 0x4C034E, size: 0x8, addend: 0x0, symName: '__ZN4core3ptr103drop_in_place$LT$syn..punctuated..Punctuated$LT$syn..generics..GenericParam$C$syn..token..Comma$GT$$GT$17h0c6077a988036760E.llvm.1278538373299499664', symObjAddr: 0x640, symBinAddr: 0xD6A30, symSize: 0xF0 }
  - { offsetInCU: 0x1C201, offset: 0x4C07AE, size: 0x8, addend: 0x0, symName: '__ZN4core3ptr104drop_in_place$LT$syn..punctuated..Punctuated$LT$syn..generics..TypeParamBound$C$syn..token..Plus$GT$$GT$17h724e4d9d1d65061aE', symObjAddr: 0x730, symBinAddr: 0xD6B20, symSize: 0x170 }
  - { offsetInCU: 0x1C79B, offset: 0x4C0D48, size: 0x8, addend: 0x0, symName: '__ZN4core3ptr105drop_in_place$LT$syn..punctuated..Punctuated$LT$syn..generics..WherePredicate$C$syn..token..Comma$GT$$GT$17h18b5b213db2a676cE', symObjAddr: 0x8A0, symBinAddr: 0xD6C90, symSize: 0x80 }
  - { offsetInCU: 0x1CA9B, offset: 0x4C1048, size: 0x8, addend: 0x0, symName: '__ZN4core3ptr34drop_in_place$LT$syn..lit..Lit$GT$17hd64dde89a262341dE', symObjAddr: 0x920, symBinAddr: 0xD6D10, symSize: 0x120 }
  - { offsetInCU: 0x1CFC7, offset: 0x4C1574, size: 0x8, addend: 0x0, symName: '__ZN4core3ptr34drop_in_place$LT$syn..pat..Pat$GT$17hf88887878261d63cE', symObjAddr: 0xA40, symBinAddr: 0xD6E30, symSize: 0x1100 }
  - { offsetInCU: 0x2165F, offset: 0x4C5C0C, size: 0x8, addend: 0x0, symName: '__ZN4core3ptr34drop_in_place$LT$syn..ty..Type$GT$17ha80dd29b0f9d4a3fE.llvm.1278538373299499664', symObjAddr: 0x1B40, symBinAddr: 0xD7F30, symSize: 0x520 }
  - { offsetInCU: 0x22CF3, offset: 0x4C72A0, size: 0x8, addend: 0x0, symName: '__ZN4core3ptr36drop_in_place$LT$syn..expr..Expr$GT$17h10f573b40ddd212cE.llvm.1278538373299499664', symObjAddr: 0x2060, symBinAddr: 0xD8450, symSize: 0x2840 }
  - { offsetInCU: 0x2CDD1, offset: 0x4D137E, size: 0x8, addend: 0x0, symName: '__ZN4core3ptr36drop_in_place$LT$syn..mac..Macro$GT$17hc3b30a7a8a34cc2dE', symObjAddr: 0x48A0, symBinAddr: 0xDAC90, symSize: 0x40 }
  - { offsetInCU: 0x2CE87, offset: 0x4D1434, size: 0x8, addend: 0x0, symName: '__ZN4core3ptr36drop_in_place$LT$syn..path..Path$GT$17h75c74a97d5f0a03bE', symObjAddr: 0x48E0, symBinAddr: 0xDACD0, symSize: 0x280 }
  - { offsetInCU: 0x2D934, offset: 0x4D1EE1, size: 0x8, addend: 0x0, symName: '__ZN4core3ptr37drop_in_place$LT$syn..stmt..Block$GT$17h6fc3254d5688f2c3E', symObjAddr: 0x4B60, symBinAddr: 0xDAF50, symSize: 0xD0 }
  - { offsetInCU: 0x2DC0B, offset: 0x4D21B8, size: 0x8, addend: 0x0, symName: '__ZN4core3ptr38drop_in_place$LT$syn..expr..Member$GT$17h6b0cf84594ce6bceE', symObjAddr: 0x4C30, symBinAddr: 0xDB020, symSize: 0x30 }
  - { offsetInCU: 0x2DD07, offset: 0x4D22B4, size: 0x8, addend: 0x0, symName: '__ZN4core3ptr39drop_in_place$LT$proc_macro2..Ident$GT$17ha28fef9769e267d9E.llvm.1278538373299499664', symObjAddr: 0x4C60, symBinAddr: 0xDB050, symSize: 0x30 }
  - { offsetInCU: 0x2DDE4, offset: 0x4D2391, size: 0x8, addend: 0x0, symName: '__ZN4core3ptr40drop_in_place$LT$syn..ty..ReturnType$GT$17h035a612e322b6510E', symObjAddr: 0x4C90, symBinAddr: 0xDB080, symSize: 0x50 }
  - { offsetInCU: 0x2DF54, offset: 0x4D2501, size: 0x8, addend: 0x0, symName: '__ZN4core3ptr41drop_in_place$LT$syn..expr..ExprConst$GT$17hbfe19d5d621e6836E', symObjAddr: 0x4CE0, symBinAddr: 0xDB0D0, symSize: 0x180 }
  - { offsetInCU: 0x2E541, offset: 0x4D2AEE, size: 0x8, addend: 0x0, symName: '__ZN4core3ptr44drop_in_place$LT$syn..lifetime..Lifetime$GT$17he37fa474f03de7b1E.llvm.1278538373299499664', symObjAddr: 0x4EA0, symBinAddr: 0xDB250, symSize: 0x30 }
  - { offsetInCU: 0x2E6B9, offset: 0x4D2C66, size: 0x8, addend: 0x0, symName: '__ZN4core3ptr44drop_in_place$LT$syn..parse..ParseBuffer$GT$17hf792ff20095efc35E', symObjAddr: 0x4ED0, symBinAddr: 0xDB280, symSize: 0x70 }
  - { offsetInCU: 0x2EAD0, offset: 0x4D307D, size: 0x8, addend: 0x0, symName: '__ZN4core3ptr45drop_in_place$LT$proc_macro2..TokenStream$GT$17h76e8e68015f4924dE.llvm.1278538373299499664', symObjAddr: 0x4F40, symBinAddr: 0xDB2F0, symSize: 0x140 }
  - { offsetInCU: 0x2EF6A, offset: 0x4D3517, size: 0x8, addend: 0x0, symName: '__ZN4core3ptr45drop_in_place$LT$syn..generics..TypeParam$GT$17h188a459c1380ac75E.llvm.1278538373299499664', symObjAddr: 0x5080, symBinAddr: 0xDB430, symSize: 0x230 }
  - { offsetInCU: 0x2F7DF, offset: 0x4D3D8C, size: 0x8, addend: 0x0, symName: '__ZN4core3ptr45drop_in_place$LT$syn..path..PathArguments$GT$17hdbc6dfac6f3334e6E', symObjAddr: 0x52B0, symBinAddr: 0xDB660, symSize: 0x190 }
  - { offsetInCU: 0x2FCAF, offset: 0x4D425C, size: 0x8, addend: 0x0, symName: '__ZN4core3ptr46drop_in_place$LT$syn..generics..ConstParam$GT$17h7a9b900b2b88bfcdE.llvm.1278538373299499664', symObjAddr: 0x5440, symBinAddr: 0xDB7F0, symSize: 0x150 }
  - { offsetInCU: 0x300D3, offset: 0x4D4680, size: 0x8, addend: 0x0, symName: '__ZN4core3ptr46drop_in_place$LT$syn..generics..TraitBound$GT$17hbfe193394d805ef5E.llvm.1278538373299499664', symObjAddr: 0x5590, symBinAddr: 0xDB940, symSize: 0x130 }
  - { offsetInCU: 0x30576, offset: 0x4D4B23, size: 0x8, addend: 0x0, symName: '__ZN4core3ptr47drop_in_place$LT$syn..path..GenericArgument$GT$17h593f06d6ca9a94d2E', symObjAddr: 0x56C0, symBinAddr: 0xDBA70, symSize: 0x4A0 }
  - { offsetInCU: 0x3167C, offset: 0x4D5C29, size: 0x8, addend: 0x0, symName: '__ZN4core3ptr49drop_in_place$LT$syn..generics..LifetimeParam$GT$17h3a8835ab294bfd16E.llvm.1278538373299499664', symObjAddr: 0x5B60, symBinAddr: 0xDBF10, symSize: 0xF0 }
  - { offsetInCU: 0x31AB2, offset: 0x4D605F, size: 0x8, addend: 0x0, symName: '__ZN4core3ptr50drop_in_place$LT$syn..generics..TypeParamBound$GT$17h81b4325b5900604dE', symObjAddr: 0x5CC0, symBinAddr: 0xDC000, symSize: 0xA0 }
  - { offsetInCU: 0x31C18, offset: 0x4D61C5, size: 0x8, addend: 0x0, symName: '__ZN4core3ptr58drop_in_place$LT$alloc..vec..Vec$LT$syn..expr..Arm$GT$$GT$17hff9224aadf2233b8E', symObjAddr: 0x5DA0, symBinAddr: 0xDC0A0, symSize: 0xD0 }
  - { offsetInCU: 0x31ED8, offset: 0x4D6485, size: 0x8, addend: 0x0, symName: '__ZN4core3ptr59drop_in_place$LT$alloc..boxed..Box$LT$syn..pat..Pat$GT$$GT$17h622b0c1db21c0742E', symObjAddr: 0x5E70, symBinAddr: 0xDC170, symSize: 0x50 }
  - { offsetInCU: 0x32031, offset: 0x4D65DE, size: 0x8, addend: 0x0, symName: '__ZN4core3ptr59drop_in_place$LT$alloc..boxed..Box$LT$syn..ty..Type$GT$$GT$17hde45fa887dd8b605E', symObjAddr: 0x5EC0, symBinAddr: 0xDC1C0, symSize: 0x50 }
  - { offsetInCU: 0x3218A, offset: 0x4D6737, size: 0x8, addend: 0x0, symName: '__ZN4core3ptr61drop_in_place$LT$alloc..boxed..Box$LT$syn..expr..Expr$GT$$GT$17hbb42293869113942E', symObjAddr: 0x5F10, symBinAddr: 0xDC210, symSize: 0x50 }
  - { offsetInCU: 0x3235F, offset: 0x4D690C, size: 0x8, addend: 0x0, symName: '__ZN4core3ptr61drop_in_place$LT$syn..path..ParenthesizedGenericArguments$GT$17h6b1731382637937fE', symObjAddr: 0x5F60, symBinAddr: 0xDC260, symSize: 0x170 }
  - { offsetInCU: 0x32955, offset: 0x4D6F02, size: 0x8, addend: 0x0, symName: '__ZN4core3ptr62drop_in_place$LT$syn..path..AngleBracketedGenericArguments$GT$17hf8fa172f007a1473E', symObjAddr: 0x60F0, symBinAddr: 0xDC3D0, symSize: 0x120 }
  - { offsetInCU: 0x32DA0, offset: 0x4D734D, size: 0x8, addend: 0x0, symName: '__ZN4core3ptr63drop_in_place$LT$alloc..boxed..Box$LT$syn..lit..LitRepr$GT$$GT$17h6e3a82ea4de7b84cE', symObjAddr: 0x6210, symBinAddr: 0xDC4F0, symSize: 0x60 }
  - { offsetInCU: 0x330A7, offset: 0x4D7654, size: 0x8, addend: 0x0, symName: '__ZN4core3ptr64drop_in_place$LT$alloc..boxed..Box$LT$syn..pat..FieldPat$GT$$GT$17hbf8f4867d84bd25dE', symObjAddr: 0x6270, symBinAddr: 0xDC550, symSize: 0x140 }
  - { offsetInCU: 0x337A8, offset: 0x4D7D55, size: 0x8, addend: 0x0, symName: '__ZN4core3ptr64drop_in_place$LT$alloc..boxed..Box$LT$syn..ty..BareFnArg$GT$$GT$17h6be6354eb1d1364dE', symObjAddr: 0x63B0, symBinAddr: 0xDC690, symSize: 0x140 }
  - { offsetInCU: 0x33D31, offset: 0x4D82DE, size: 0x8, addend: 0x0, symName: '__ZN4core3ptr64drop_in_place$LT$alloc..vec..Vec$LT$syn..attr..Attribute$GT$$GT$17he33e25539d5885aeE.llvm.1278538373299499664', symObjAddr: 0x64F0, symBinAddr: 0xDC7D0, symSize: 0xD0 }
  - { offsetInCU: 0x34025, offset: 0x4D85D2, size: 0x8, addend: 0x0, symName: '__ZN4core3ptr65drop_in_place$LT$alloc..vec..Vec$LT$proc_macro..TokenTree$GT$$GT$17h8abd81f8596dbc59E', symObjAddr: 0x65E0, symBinAddr: 0xDC8A0, symSize: 0x110 }
  - { offsetInCU: 0x3441D, offset: 0x4D89CA, size: 0x8, addend: 0x0, symName: '__ZN4core3ptr65drop_in_place$LT$core..option..Option$LT$syn..expr..Label$GT$$GT$17hac599686b33ef364E', symObjAddr: 0x66F0, symBinAddr: 0xDC9B0, symSize: 0x30 }
  - { offsetInCU: 0x34557, offset: 0x4D8B04, size: 0x8, addend: 0x0, symName: '__ZN4core3ptr66drop_in_place$LT$core..option..Option$LT$syn..pat..PatRest$GT$$GT$17hd5bb3bc28aa78ac1E', symObjAddr: 0x6720, symBinAddr: 0xDC9E0, symSize: 0xE0 }
  - { offsetInCU: 0x3487F, offset: 0x4D8E2C, size: 0x8, addend: 0x0, symName: '__ZN4core3ptr67drop_in_place$LT$alloc..boxed..Box$LT$syn..expr..FieldValue$GT$$GT$17hbbcf67a9d5e9863cE', symObjAddr: 0x6800, symBinAddr: 0xDCAC0, symSize: 0x140 }
  - { offsetInCU: 0x34DE8, offset: 0x4D9395, size: 0x8, addend: 0x0, symName: '__ZN4core3ptr68drop_in_place$LT$alloc..boxed..Box$LT$syn..path..PathSegment$GT$$GT$17h99aaf90b3262bc1eE', symObjAddr: 0x6940, symBinAddr: 0xDCC00, symSize: 0x1B0 }
  - { offsetInCU: 0x354F6, offset: 0x4D9AA3, size: 0x8, addend: 0x0, symName: '__ZN4core3ptr70drop_in_place$LT$core..option..Option$LT$syn..ty..BareVariadic$GT$$GT$17h79a19250e9f043b1E', symObjAddr: 0x6AF0, symBinAddr: 0xDCDB0, symSize: 0x100 }
  - { offsetInCU: 0x35961, offset: 0x4D9F0E, size: 0x8, addend: 0x0, symName: '__ZN4core3ptr72drop_in_place$LT$alloc..boxed..Box$LT$syn..path..GenericArgument$GT$$GT$17hfd308d374af4273dE', symObjAddr: 0x6BF0, symBinAddr: 0xDCEB0, symSize: 0x2B0 }
  - { offsetInCU: 0x36319, offset: 0x4DA8C6, size: 0x8, addend: 0x0, symName: '__ZN4core3ptr72drop_in_place$LT$core..option..Option$LT$syn..lifetime..Lifetime$GT$$GT$17h49cce6f02f9c0590E', symObjAddr: 0x6EA0, symBinAddr: 0xDD160, symSize: 0x30 }
  - { offsetInCU: 0x36434, offset: 0x4DA9E1, size: 0x8, addend: 0x0, symName: '__ZN4core3ptr73drop_in_place$LT$alloc..boxed..Box$LT$syn..generics..GenericParam$GT$$GT$17ha26d5d145af4b203E.llvm.1278538373299499664', symObjAddr: 0x6ED0, symBinAddr: 0xDD190, symSize: 0x80 }
  - { offsetInCU: 0x365AA, offset: 0x4DAB57, size: 0x8, addend: 0x0, symName: '__ZN4core3ptr75drop_in_place$LT$alloc..boxed..Box$LT$syn..generics..TypeParamBound$GT$$GT$17h129a4e927e5eb81bE', symObjAddr: 0x6F50, symBinAddr: 0xDD210, symSize: 0x1B0 }
  - { offsetInCU: 0x36CC8, offset: 0x4DB275, size: 0x8, addend: 0x0, symName: '__ZN4core3ptr86drop_in_place$LT$syn..punctuated..Punctuated$LT$syn..pat..Pat$C$syn..token..Or$GT$$GT$17h9cc6b5f7b6d3a555E', symObjAddr: 0x71B0, symBinAddr: 0xDD3C0, symSize: 0x120 }
  - { offsetInCU: 0x37143, offset: 0x4DB6F0, size: 0x8, addend: 0x0, symName: '__ZN4core3ptr87drop_in_place$LT$core..option..Option$LT$alloc..boxed..Box$LT$syn..pat..Pat$GT$$GT$$GT$17h51cd48973d96c411E', symObjAddr: 0x72D0, symBinAddr: 0xDD4E0, symSize: 0x50 }
  - { offsetInCU: 0x372B3, offset: 0x4DB860, size: 0x8, addend: 0x0, symName: '__ZN4core3ptr87drop_in_place$LT$core..option..Option$LT$alloc..boxed..Box$LT$syn..ty..Type$GT$$GT$$GT$17h103a25a4a7d7374eE', symObjAddr: 0x7320, symBinAddr: 0xDD530, symSize: 0x50 }
  - { offsetInCU: 0x37423, offset: 0x4DB9D0, size: 0x8, addend: 0x0, symName: '__ZN4core3ptr89drop_in_place$LT$core..option..Option$LT$alloc..boxed..Box$LT$syn..expr..Expr$GT$$GT$$GT$17h9e02509cb2345d44E', symObjAddr: 0x7370, symBinAddr: 0xDD580, symSize: 0x50 }
  - { offsetInCU: 0x375D1, offset: 0x4DBB7E, size: 0x8, addend: 0x0, symName: '__ZN4core3ptr89drop_in_place$LT$syn..punctuated..Punctuated$LT$syn..pat..Pat$C$syn..token..Comma$GT$$GT$17hd3a83c36827f210aE', symObjAddr: 0x73C0, symBinAddr: 0xDD5D0, symSize: 0x120 }
  - { offsetInCU: 0x37A63, offset: 0x4DC010, size: 0x8, addend: 0x0, symName: '__ZN4core3ptr89drop_in_place$LT$syn..punctuated..Punctuated$LT$syn..ty..Type$C$syn..token..Comma$GT$$GT$17he030c4b7f24a5848E', symObjAddr: 0x74E0, symBinAddr: 0xDD6F0, symSize: 0x120 }
  - { offsetInCU: 0x37EDE, offset: 0x4DC48B, size: 0x8, addend: 0x0, symName: '__ZN4core3ptr90drop_in_place$LT$core..option..Option$LT$syn..path..AngleBracketedGenericArguments$GT$$GT$17ha307713a95a0671eE', symObjAddr: 0x7600, symBinAddr: 0xDD810, symSize: 0x130 }
  - { offsetInCU: 0x38380, offset: 0x4DC92D, size: 0x8, addend: 0x0, symName: '__ZN4core3ptr91drop_in_place$LT$syn..punctuated..Punctuated$LT$syn..expr..Expr$C$syn..token..Comma$GT$$GT$17h6f261e8f470c81f2E', symObjAddr: 0x7730, symBinAddr: 0xDD940, symSize: 0x120 }
  - { offsetInCU: 0x3880E, offset: 0x4DCDBB, size: 0x8, addend: 0x0, symName: '__ZN4core3ptr94drop_in_place$LT$syn..punctuated..Punctuated$LT$syn..pat..FieldPat$C$syn..token..Comma$GT$$GT$17h43ec25af986ef674E', symObjAddr: 0x7850, symBinAddr: 0xDDA60, symSize: 0xF0 }
  - { offsetInCU: 0x38B0D, offset: 0x4DD0BA, size: 0x8, addend: 0x0, symName: '__ZN4core3ptr94drop_in_place$LT$syn..punctuated..Punctuated$LT$syn..ty..BareFnArg$C$syn..token..Comma$GT$$GT$17h7ba4c699ee390ebaE', symObjAddr: 0x7940, symBinAddr: 0xDDB50, symSize: 0xF0 }
  - { offsetInCU: 0x38E0E, offset: 0x4DD3BB, size: 0x8, addend: 0x0, symName: '__ZN4core3ptr96drop_in_place$LT$core..option..Option$LT$alloc..boxed..Box$LT$syn..path..PathSegment$GT$$GT$$GT$17h5de12a5a0f9e9ef9E', symObjAddr: 0x7A30, symBinAddr: 0xDDC40, symSize: 0xA0 }
  - { offsetInCU: 0x3908D, offset: 0x4DD63A, size: 0x8, addend: 0x0, symName: '__ZN4core3ptr97drop_in_place$LT$syn..punctuated..Punctuated$LT$syn..expr..FieldValue$C$syn..token..Comma$GT$$GT$17hf58d0a9a09266ab3E', symObjAddr: 0x7AD0, symBinAddr: 0xDDCE0, symSize: 0xF0 }
  - { offsetInCU: 0x3938A, offset: 0x4DD937, size: 0x8, addend: 0x0, symName: '__ZN4core3ptr98drop_in_place$LT$alloc..vec..Vec$LT$$LP$syn..path..GenericArgument$C$syn..token..Comma$RP$$GT$$GT$17h0dee282a026d5a38E', symObjAddr: 0x7BC0, symBinAddr: 0xDDDD0, symSize: 0xD0 }
  - { offsetInCU: 0x396CA, offset: 0x4DDC77, size: 0x8, addend: 0x0, symName: '__ZN4core3ptr98drop_in_place$LT$syn..punctuated..Punctuated$LT$syn..lifetime..Lifetime$C$syn..token..Plus$GT$$GT$17h600c2b78f78fd2b9E.llvm.1278538373299499664', symObjAddr: 0x7C90, symBinAddr: 0xDDEA0, symSize: 0xD0 }
  - { offsetInCU: 0x3DC1D, offset: 0x4E21CA, size: 0x8, addend: 0x0, symName: '__ZN48_$LT$T$u20$as$u20$core..clone..CloneToUninit$GT$15clone_to_uninit17hc598a6c9534b5b4fE', symObjAddr: 0x220, symBinAddr: 0xD6610, symSize: 0x140 }
  - { offsetInCU: 0x41C49, offset: 0x4E61F6, size: 0x8, addend: 0x0, symName: '__ZN52_$LT$$RF$T$u20$as$u20$quote..to_tokens..ToTokens$GT$9to_tokens17h105a97bdbe744db0E', symObjAddr: 0x7E10, symBinAddr: 0xDDF70, symSize: 0x190 }
  - { offsetInCU: 0x43617, offset: 0x4E7BC4, size: 0x8, addend: 0x0, symName: '__ZN3syn8generics7parsing47_$LT$impl$u20$syn..generics..TypeParamBound$GT$14parse_multiple17h33e6fbea8f6e153bE', symObjAddr: 0xCD80, symBinAddr: 0xE1A60, symSize: 0x4D0 }
  - { offsetInCU: 0xF8A, offset: 0x4F26FD, size: 0x8, addend: 0x0, symName: '__ZN60_$LT$syn..token..Underscore$u20$as$u20$syn..token..Token$GT$4peek17haec0894d2e05662cE', symObjAddr: 0xAD0, symBinAddr: 0xE6100, symSize: 0x1F0 }
  - { offsetInCU: 0x1840, offset: 0x4F2FB3, size: 0x8, addend: 0x0, symName: '__ZN55_$LT$syn..token..Paren$u20$as$u20$syn..token..Token$GT$4peek17h57c2615f1c93669bE', symObjAddr: 0xF20, symBinAddr: 0xE6410, symSize: 0xA0 }
  - { offsetInCU: 0x1A40, offset: 0x4F31B3, size: 0x8, addend: 0x0, symName: '__ZN55_$LT$syn..token..Brace$u20$as$u20$syn..token..Token$GT$4peek17h73c23ce965996843E', symObjAddr: 0xFC0, symBinAddr: 0xE64B0, symSize: 0xA0 }
  - { offsetInCU: 0x1C40, offset: 0x4F33B3, size: 0x8, addend: 0x0, symName: '__ZN57_$LT$syn..token..Bracket$u20$as$u20$syn..token..Token$GT$4peek17h872c9349a83dc2aaE', symObjAddr: 0x1060, symBinAddr: 0xE6550, symSize: 0xA0 }
  - { offsetInCU: 0x1E6D, offset: 0x4F35E0, size: 0x8, addend: 0x0, symName: '__ZN52_$LT$syn..token..As$u20$as$u20$syn..parse..Parse$GT$5parse17h8279010a971a5b00E', symObjAddr: 0x1350, symBinAddr: 0xE65F0, symSize: 0x60 }
  - { offsetInCU: 0x1F21, offset: 0x4F3694, size: 0x8, addend: 0x0, symName: '__ZN55_$LT$syn..token..Async$u20$as$u20$syn..token..Token$GT$4peek17hec3d206c6ab2af4dE', symObjAddr: 0x14D0, symBinAddr: 0xE6650, symSize: 0x20 }
  - { offsetInCU: 0x1F57, offset: 0x4F36CA, size: 0x8, addend: 0x0, symName: '__ZN54_$LT$syn..token..Auto$u20$as$u20$syn..token..Token$GT$4peek17h78aa4921345bdad2E', symObjAddr: 0x15F0, symBinAddr: 0xE6670, symSize: 0x20 }
  - { offsetInCU: 0x2014, offset: 0x4F3787, size: 0x8, addend: 0x0, symName: '__ZN55_$LT$syn..token..Const$u20$as$u20$syn..parse..Parse$GT$5parse17h4d7f78de797b5b9dE', symObjAddr: 0x1B30, symBinAddr: 0xE6690, symSize: 0x60 }
  - { offsetInCU: 0x209B, offset: 0x4F380E, size: 0x8, addend: 0x0, symName: '__ZN55_$LT$syn..token..Const$u20$as$u20$syn..token..Token$GT$4peek17h377299e8bbcdfde8E', symObjAddr: 0x1B90, symBinAddr: 0xE66F0, symSize: 0x20 }
  - { offsetInCU: 0x20D1, offset: 0x4F3844, size: 0x8, addend: 0x0, symName: '__ZN55_$LT$syn..token..Crate$u20$as$u20$syn..token..Token$GT$4peek17h41bdfdc9696d7a0cE', symObjAddr: 0x1DD0, symBinAddr: 0xE6710, symSize: 0x20 }
  - { offsetInCU: 0x2107, offset: 0x4F387A, size: 0x8, addend: 0x0, symName: '__ZN53_$LT$syn..token..Dyn$u20$as$u20$syn..parse..Parse$GT$5parse17ha918c5aa2904e233E', symObjAddr: 0x20D0, symBinAddr: 0xE6730, symSize: 0x60 }
  - { offsetInCU: 0x218E, offset: 0x4F3901, size: 0x8, addend: 0x0, symName: '__ZN54_$LT$syn..token..Else$u20$as$u20$syn..parse..Parse$GT$5parse17h45e080b72d435097E', symObjAddr: 0x21F0, symBinAddr: 0xE6790, symSize: 0x60 }
  - { offsetInCU: 0x2215, offset: 0x4F3988, size: 0x8, addend: 0x0, symName: '__ZN54_$LT$syn..token..Enum$u20$as$u20$syn..token..Token$GT$4peek17h5b346af13c7af550E', symObjAddr: 0x2370, symBinAddr: 0xE67F0, symSize: 0x20 }
  - { offsetInCU: 0x224B, offset: 0x4F39BE, size: 0x8, addend: 0x0, symName: '__ZN56_$LT$syn..token..Extern$u20$as$u20$syn..token..Token$GT$4peek17h4d12b1045a886c67E', symObjAddr: 0x2490, symBinAddr: 0xE6810, symSize: 0x20 }
  - { offsetInCU: 0x2281, offset: 0x4F39F4, size: 0x8, addend: 0x0, symName: '__ZN52_$LT$syn..token..Fn$u20$as$u20$syn..token..Token$GT$4peek17h72891b673cf8306dE', symObjAddr: 0x26D0, symBinAddr: 0xE6830, symSize: 0x20 }
  - { offsetInCU: 0x22B7, offset: 0x4F3A2A, size: 0x8, addend: 0x0, symName: '__ZN53_$LT$syn..token..For$u20$as$u20$syn..parse..Parse$GT$5parse17h685510a59deff120E', symObjAddr: 0x2790, symBinAddr: 0xE6850, symSize: 0x60 }
  - { offsetInCU: 0x233E, offset: 0x4F3AB1, size: 0x8, addend: 0x0, symName: '__ZN54_$LT$syn..token..Impl$u20$as$u20$syn..token..Token$GT$4peek17h2c90e0f4bad3b8a1E', symObjAddr: 0x2A30, symBinAddr: 0xE68B0, symSize: 0x20 }
  - { offsetInCU: 0x23A1, offset: 0x4F3B14, size: 0x8, addend: 0x0, symName: '__ZN52_$LT$syn..token..In$u20$as$u20$syn..parse..Parse$GT$5parse17h1c18d23d989fcf2fE', symObjAddr: 0x2AF0, symBinAddr: 0xE68D0, symSize: 0x60 }
  - { offsetInCU: 0x2455, offset: 0x4F3BC8, size: 0x8, addend: 0x0, symName: '__ZN55_$LT$syn..token..Macro$u20$as$u20$syn..token..Token$GT$4peek17he0611b0349443e81E', symObjAddr: 0x2EB0, symBinAddr: 0xE6930, symSize: 0x20 }
  - { offsetInCU: 0x24B8, offset: 0x4F3C2B, size: 0x8, addend: 0x0, symName: '__ZN53_$LT$syn..token..Mod$u20$as$u20$syn..token..Token$GT$4peek17h74a4826dd47e3e6eE', symObjAddr: 0x30F0, symBinAddr: 0xE6950, symSize: 0x20 }
  - { offsetInCU: 0x24EE, offset: 0x4F3C61, size: 0x8, addend: 0x0, symName: '__ZN63_$LT$syn..token..Move$u20$as$u20$quote..to_tokens..ToTokens$GT$9to_tokens17hfc53a9310558a724E', symObjAddr: 0x3130, symBinAddr: 0xE6970, symSize: 0x80 }
  - { offsetInCU: 0x2624, offset: 0x4F3D97, size: 0x8, addend: 0x0, symName: '__ZN54_$LT$syn..token..Move$u20$as$u20$syn..token..Token$GT$4peek17h7d01db15b0371cceE', symObjAddr: 0x3210, symBinAddr: 0xE69F0, symSize: 0x20 }
  - { offsetInCU: 0x265A, offset: 0x4F3DCD, size: 0x8, addend: 0x0, symName: '__ZN62_$LT$syn..token..Mut$u20$as$u20$quote..to_tokens..ToTokens$GT$9to_tokens17h65e7aec4e00a824aE', symObjAddr: 0x3250, symBinAddr: 0xE6A10, symSize: 0x80 }
  - { offsetInCU: 0x2790, offset: 0x4F3F03, size: 0x8, addend: 0x0, symName: '__ZN53_$LT$syn..token..Mut$u20$as$u20$syn..token..Token$GT$4peek17h98e42bddef3e0a22E', symObjAddr: 0x3330, symBinAddr: 0xE6A90, symSize: 0x20 }
  - { offsetInCU: 0x27F3, offset: 0x4F3F66, size: 0x8, addend: 0x0, symName: '__ZN53_$LT$syn..token..Ref$u20$as$u20$syn..token..Token$GT$4peek17h3da8beae293f82f6E', symObjAddr: 0x37B0, symBinAddr: 0xE6AB0, symSize: 0x20 }
  - { offsetInCU: 0x2829, offset: 0x4F3F9C, size: 0x8, addend: 0x0, symName: '__ZN58_$LT$syn..token..SelfType$u20$as$u20$syn..token..Token$GT$4peek17hc1ce6132e604b21cE', symObjAddr: 0x39F0, symBinAddr: 0xE6AD0, symSize: 0x20 }
  - { offsetInCU: 0x285F, offset: 0x4F3FD2, size: 0x8, addend: 0x0, symName: '__ZN59_$LT$syn..token..SelfValue$u20$as$u20$syn..token..Token$GT$4peek17hff0104bc0d4d51baE', symObjAddr: 0x3B10, symBinAddr: 0xE6AF0, symSize: 0x20 }
  - { offsetInCU: 0x2895, offset: 0x4F4008, size: 0x8, addend: 0x0, symName: '__ZN56_$LT$syn..token..Static$u20$as$u20$syn..parse..Parse$GT$5parse17h4347f0d5ba2722bcE', symObjAddr: 0x3BD0, symBinAddr: 0xE6B10, symSize: 0x60 }
  - { offsetInCU: 0x291C, offset: 0x4F408F, size: 0x8, addend: 0x0, symName: '__ZN56_$LT$syn..token..Static$u20$as$u20$syn..token..Token$GT$4peek17h5ec219d5f1c91b93E', symObjAddr: 0x3C30, symBinAddr: 0xE6B70, symSize: 0x20 }
  - { offsetInCU: 0x2952, offset: 0x4F40C5, size: 0x8, addend: 0x0, symName: '__ZN56_$LT$syn..token..Struct$u20$as$u20$syn..token..Token$GT$4peek17h5edcf684e7ec6370E', symObjAddr: 0x3D50, symBinAddr: 0xE6B90, symSize: 0x20 }
  - { offsetInCU: 0x2988, offset: 0x4F40FB, size: 0x8, addend: 0x0, symName: '__ZN55_$LT$syn..token..Super$u20$as$u20$syn..token..Token$GT$4peek17ha609af2487b5bfa9E', symObjAddr: 0x3E70, symBinAddr: 0xE6BB0, symSize: 0x20 }
  - { offsetInCU: 0x29BE, offset: 0x4F4131, size: 0x8, addend: 0x0, symName: '__ZN55_$LT$syn..token..Trait$u20$as$u20$syn..token..Token$GT$4peek17hcfd44ad9738ca41fE', symObjAddr: 0x3F90, symBinAddr: 0xE6BD0, symSize: 0x20 }
  - { offsetInCU: 0x2A21, offset: 0x4F4194, size: 0x8, addend: 0x0, symName: '__ZN53_$LT$syn..token..Try$u20$as$u20$syn..token..Token$GT$4peek17h34e6cdd2fa15187cE', symObjAddr: 0x40B0, symBinAddr: 0xE6BF0, symSize: 0x20 }
  - { offsetInCU: 0x2A57, offset: 0x4F41CA, size: 0x8, addend: 0x0, symName: '__ZN54_$LT$syn..token..Type$u20$as$u20$syn..token..Token$GT$4peek17hca9c5e9bd0dd640dE', symObjAddr: 0x41D0, symBinAddr: 0xE6C10, symSize: 0x20 }
  - { offsetInCU: 0x2A8D, offset: 0x4F4200, size: 0x8, addend: 0x0, symName: '__ZN55_$LT$syn..token..Union$u20$as$u20$syn..token..Token$GT$4peek17hfe4da05fa09964ffE', symObjAddr: 0x4410, symBinAddr: 0xE6C30, symSize: 0x20 }
  - { offsetInCU: 0x2AF0, offset: 0x4F4263, size: 0x8, addend: 0x0, symName: '__ZN56_$LT$syn..token..Unsafe$u20$as$u20$syn..parse..Parse$GT$5parse17h9c545ae7480a661bE', symObjAddr: 0x44D0, symBinAddr: 0xE6C50, symSize: 0x60 }
  - { offsetInCU: 0x2B77, offset: 0x4F42EA, size: 0x8, addend: 0x0, symName: '__ZN56_$LT$syn..token..Unsafe$u20$as$u20$syn..token..Token$GT$4peek17h8fab9a2efb3ee4c7E', symObjAddr: 0x4530, symBinAddr: 0xE6CB0, symSize: 0x20 }
  - { offsetInCU: 0x2BAD, offset: 0x4F4320, size: 0x8, addend: 0x0, symName: '__ZN53_$LT$syn..token..Use$u20$as$u20$syn..token..Token$GT$4peek17h370b8b005f72ed4aE', symObjAddr: 0x4770, symBinAddr: 0xE6CD0, symSize: 0x20 }
  - { offsetInCU: 0x2C3D, offset: 0x4F43B0, size: 0x8, addend: 0x0, symName: '__ZN53_$LT$syn..token..And$u20$as$u20$syn..token..Token$GT$4peek17h4ed3a008d858f163E', symObjAddr: 0x4C90, symBinAddr: 0xE6CF0, symSize: 0x20 }
  - { offsetInCU: 0x2CA0, offset: 0x4F4413, size: 0x8, addend: 0x0, symName: '__ZN55_$LT$syn..token..Colon$u20$as$u20$syn..parse..Parse$GT$5parse17h3063cb3e3ebc34a9E', symObjAddr: 0x5000, symBinAddr: 0xE6D10, symSize: 0x50 }
  - { offsetInCU: 0x2D02, offset: 0x4F4475, size: 0x8, addend: 0x0, symName: '__ZN55_$LT$syn..token..Colon$u20$as$u20$syn..token..Token$GT$4peek17he80a5de17f24d5edE', symObjAddr: 0x5050, symBinAddr: 0xE6D60, symSize: 0x20 }
  - { offsetInCU: 0x2D38, offset: 0x4F44AB, size: 0x8, addend: 0x0, symName: '__ZN55_$LT$syn..token..Comma$u20$as$u20$syn..parse..Parse$GT$5parse17hb823018bf88ed6f3E', symObjAddr: 0x50A0, symBinAddr: 0xE6D80, symSize: 0x50 }
  - { offsetInCU: 0x2D9A, offset: 0x4F450D, size: 0x8, addend: 0x0, symName: '__ZN55_$LT$syn..token..Comma$u20$as$u20$syn..token..Token$GT$4peek17h26e1aacea26147a4E', symObjAddr: 0x50F0, symBinAddr: 0xE6DD0, symSize: 0x20 }
  - { offsetInCU: 0x2DFD, offset: 0x4F4570, size: 0x8, addend: 0x0, symName: '__ZN53_$LT$syn..token..Dot$u20$as$u20$syn..token..Token$GT$4peek17h3281d72a1d61740fE', symObjAddr: 0x5230, symBinAddr: 0xE6DF0, symSize: 0x20 }
  - { offsetInCU: 0x2E60, offset: 0x4F45D3, size: 0x8, addend: 0x0, symName: '__ZN56_$LT$syn..token..DotDot$u20$as$u20$syn..token..Token$GT$4peek17ha63e1c7cbaa5f07fE', symObjAddr: 0x52D0, symBinAddr: 0xE6E10, symSize: 0x20 }
  - { offsetInCU: 0x2E96, offset: 0x4F4609, size: 0x8, addend: 0x0, symName: '__ZN59_$LT$syn..token..DotDotDot$u20$as$u20$syn..token..Token$GT$4peek17hecd050b6405d9aa0E', symObjAddr: 0x5390, symBinAddr: 0xE6E30, symSize: 0x20 }
  - { offsetInCU: 0x2ECC, offset: 0x4F463F, size: 0x8, addend: 0x0, symName: '__ZN58_$LT$syn..token..DotDotEq$u20$as$u20$syn..token..Token$GT$4peek17h9d3b070298fd3201E', symObjAddr: 0x5450, symBinAddr: 0xE6E50, symSize: 0x20 }
  - { offsetInCU: 0x2F2F, offset: 0x4F46A2, size: 0x8, addend: 0x0, symName: '__ZN52_$LT$syn..token..Eq$u20$as$u20$syn..parse..Parse$GT$5parse17h48510f330b26a2a8E', symObjAddr: 0x54A0, symBinAddr: 0xE6E70, symSize: 0x50 }
  - { offsetInCU: 0x2F91, offset: 0x4F4704, size: 0x8, addend: 0x0, symName: '__ZN52_$LT$syn..token..Eq$u20$as$u20$syn..token..Token$GT$4peek17ha038331794dca79cE', symObjAddr: 0x54F0, symBinAddr: 0xE6EC0, symSize: 0x20 }
  - { offsetInCU: 0x2FC7, offset: 0x4F473A, size: 0x8, addend: 0x0, symName: '__ZN52_$LT$syn..token..Gt$u20$as$u20$syn..parse..Parse$GT$5parse17h685c1b33fdd3602dE', symObjAddr: 0x5720, symBinAddr: 0xE6EE0, symSize: 0x50 }
  - { offsetInCU: 0x3029, offset: 0x4F479C, size: 0x8, addend: 0x0, symName: '__ZN52_$LT$syn..token..Gt$u20$as$u20$syn..token..Token$GT$4peek17h28c72eb0c24e86bbE', symObjAddr: 0x5770, symBinAddr: 0xE6F30, symSize: 0x20 }
  - { offsetInCU: 0x305F, offset: 0x4F47D2, size: 0x8, addend: 0x0, symName: '__ZN52_$LT$syn..token..Lt$u20$as$u20$syn..token..Token$GT$4peek17hb09f0ef836a6a928E', symObjAddr: 0x5950, symBinAddr: 0xE6F50, symSize: 0x20 }
  - { offsetInCU: 0x30C2, offset: 0x4F4835, size: 0x8, addend: 0x0, symName: '__ZN53_$LT$syn..token..Not$u20$as$u20$syn..parse..Parse$GT$5parse17h0e126244166e20f8E', symObjAddr: 0x5B80, symBinAddr: 0xE6F70, symSize: 0x50 }
  - { offsetInCU: 0x3124, offset: 0x4F4897, size: 0x8, addend: 0x0, symName: '__ZN53_$LT$syn..token..Not$u20$as$u20$syn..token..Token$GT$4peek17h20b2571300a10670E', symObjAddr: 0x5BD0, symBinAddr: 0xE6FC0, symSize: 0x20 }
  - { offsetInCU: 0x315A, offset: 0x4F48CD, size: 0x8, addend: 0x0, symName: '__ZN52_$LT$syn..token..Or$u20$as$u20$syn..token..Token$GT$4peek17haf7e709e752de2d5E', symObjAddr: 0x5C70, symBinAddr: 0xE6FE0, symSize: 0x20 }
  - { offsetInCU: 0x3190, offset: 0x4F4903, size: 0x8, addend: 0x0, symName: '__ZN57_$LT$syn..token..PathSep$u20$as$u20$syn..token..Token$GT$4peek17h734c6a0408fb2004E', symObjAddr: 0x5E50, symBinAddr: 0xE7000, symSize: 0x20 }
  - { offsetInCU: 0x31C6, offset: 0x4F4939, size: 0x8, addend: 0x0, symName: '__ZN54_$LT$syn..token..Plus$u20$as$u20$syn..parse..Parse$GT$5parse17h6443c7d34616ae6cE', symObjAddr: 0x5FE0, symBinAddr: 0xE7020, symSize: 0x50 }
  - { offsetInCU: 0x3255, offset: 0x4F49C8, size: 0x8, addend: 0x0, symName: '__ZN55_$LT$syn..token..Pound$u20$as$u20$syn..token..Token$GT$4peek17h12eda5e1e3c78599E', symObjAddr: 0x6170, symBinAddr: 0xE7070, symSize: 0x20 }
  - { offsetInCU: 0x32B8, offset: 0x4F4A2B, size: 0x8, addend: 0x0, symName: '__ZN58_$LT$syn..token..Question$u20$as$u20$syn..token..Token$GT$4peek17hb56a1f23ffedbbd1E', symObjAddr: 0x6210, symBinAddr: 0xE7090, symSize: 0x20 }
  - { offsetInCU: 0x331B, offset: 0x4F4A8E, size: 0x8, addend: 0x0, symName: '__ZN54_$LT$syn..token..Semi$u20$as$u20$syn..parse..Parse$GT$5parse17h922f96200e79aea7E', symObjAddr: 0x6300, symBinAddr: 0xE70B0, symSize: 0x50 }
  - { offsetInCU: 0x337D, offset: 0x4F4AF0, size: 0x8, addend: 0x0, symName: '__ZN54_$LT$syn..token..Semi$u20$as$u20$syn..token..Token$GT$4peek17h50c830ee30ef3530E', symObjAddr: 0x6350, symBinAddr: 0xE7100, symSize: 0x20 }
  - { offsetInCU: 0x33B3, offset: 0x4F4B26, size: 0x8, addend: 0x0, symName: '__ZN55_$LT$syn..token..ShlEq$u20$as$u20$syn..parse..Parse$GT$5parse17hffdec08a82c79705E', symObjAddr: 0x6440, symBinAddr: 0xE7120, symSize: 0x70 }
  - { offsetInCU: 0x3468, offset: 0x4F4BDB, size: 0x8, addend: 0x0, symName: '__ZN55_$LT$syn..token..ShrEq$u20$as$u20$syn..parse..Parse$GT$5parse17hd4adaf197d5b2e87E', symObjAddr: 0x65A0, symBinAddr: 0xE7190, symSize: 0x70 }
  - { offsetInCU: 0x351D, offset: 0x4F4C90, size: 0x8, addend: 0x0, symName: '__ZN54_$LT$syn..token..Star$u20$as$u20$syn..token..Token$GT$4peek17h14add24fe44afe84E', symObjAddr: 0x67F0, symBinAddr: 0xE7200, symSize: 0x20 }
  - { offsetInCU: 0xA9B4, offset: 0x4FC127, size: 0x8, addend: 0x0, symName: '__ZN4core3ptr45drop_in_place$LT$proc_macro2..TokenStream$GT$17h76e8e68015f4924dE.llvm.2200051395882591536', symObjAddr: 0x720, symBinAddr: 0xE5EB0, symSize: 0x140 }
  - { offsetInCU: 0xAE10, offset: 0x4FC583, size: 0x8, addend: 0x0, symName: '__ZN4core3ptr65drop_in_place$LT$alloc..vec..Vec$LT$proc_macro..TokenTree$GT$$GT$17h8abd81f8596dbc59E.llvm.2200051395882591536', symObjAddr: 0x860, symBinAddr: 0xE5FF0, symSize: 0x110 }
  - { offsetInCU: 0x10547, offset: 0x501CBA, size: 0x8, addend: 0x0, symName: __ZN3syn5token5Group8surround17heff89b5b653592dfE, symObjAddr: 0xE00, symBinAddr: 0xE62F0, symSize: 0x120 }
  - { offsetInCU: 0x1073F, offset: 0x501EB2, size: 0x8, addend: 0x0, symName: __ZN3syn5token5Brace8surround17h054d6fe3dea87f3aE, symObjAddr: 0x6FA0, symBinAddr: 0xE7220, symSize: 0x0 }
  - { offsetInCU: 0x109D1, offset: 0x502144, size: 0x8, addend: 0x0, symName: __ZN3syn5token5Brace8surround17h177bd1fb5200ae88E, symObjAddr: 0x7120, symBinAddr: 0xE73A0, symSize: 0x130 }
  - { offsetInCU: 0x10C55, offset: 0x5023C8, size: 0x8, addend: 0x0, symName: __ZN3syn5token5Brace8surround17h203049190772705cE, symObjAddr: 0x7250, symBinAddr: 0xE74D0, symSize: 0x200 }
  - { offsetInCU: 0x112F8, offset: 0x502A6B, size: 0x8, addend: 0x0, symName: __ZN3syn5token5Brace8surround17h296fbc9aacc45e8dE, symObjAddr: 0x7450, symBinAddr: 0xE76D0, symSize: 0x150 }
  - { offsetInCU: 0x1160B, offset: 0x502D7E, size: 0x8, addend: 0x0, symName: __ZN3syn5token5Brace8surround17h3cd15e098182f2caE, symObjAddr: 0x75A0, symBinAddr: 0xE7820, symSize: 0x220 }
  - { offsetInCU: 0x11AD9, offset: 0x50324C, size: 0x8, addend: 0x0, symName: __ZN3syn5token5Brace8surround17h4300b93fb32218b3E, symObjAddr: 0x77C0, symBinAddr: 0xE7A40, symSize: 0x1A0 }
  - { offsetInCU: 0x12009, offset: 0x50377C, size: 0x8, addend: 0x0, symName: __ZN3syn5token5Brace8surround17h57503f340a17145cE, symObjAddr: 0x7960, symBinAddr: 0xE7BE0, symSize: 0x220 }
  - { offsetInCU: 0x124A4, offset: 0x503C17, size: 0x8, addend: 0x0, symName: __ZN3syn5token5Brace8surround17h5add098b3195aebcE, symObjAddr: 0x7B80, symBinAddr: 0xE7E00, symSize: 0x200 }
  - { offsetInCU: 0x12BE3, offset: 0x504356, size: 0x8, addend: 0x0, symName: __ZN3syn5token5Brace8surround17h73c06cfc29e80b79E, symObjAddr: 0x80A0, symBinAddr: 0xE8000, symSize: 0x200 }
  - { offsetInCU: 0x13286, offset: 0x5049F9, size: 0x8, addend: 0x0, symName: __ZN3syn5token5Brace8surround17h81a192f6e1ba3b25E, symObjAddr: 0x82A0, symBinAddr: 0xE8200, symSize: 0x220 }
  - { offsetInCU: 0x13777, offset: 0x504EEA, size: 0x8, addend: 0x0, symName: __ZN3syn5token5Brace8surround17h885eae5b5f18a737E, symObjAddr: 0x84C0, symBinAddr: 0xE8420, symSize: 0x230 }
  - { offsetInCU: 0x13E2A, offset: 0x50559D, size: 0x8, addend: 0x0, symName: __ZN3syn5token5Brace8surround17h8dc2f11f6889f4faE, symObjAddr: 0x86F0, symBinAddr: 0xE8650, symSize: 0x0 }
  - { offsetInCU: 0x144CD, offset: 0x505C40, size: 0x8, addend: 0x0, symName: __ZN3syn5token5Brace8surround17h8f64d8eb67893fd1E, symObjAddr: 0x88F0, symBinAddr: 0xE8850, symSize: 0x220 }
  - { offsetInCU: 0x14962, offset: 0x5060D5, size: 0x8, addend: 0x0, symName: __ZN3syn5token5Brace8surround17h9105a8ad28ee9eacE, symObjAddr: 0x8B10, symBinAddr: 0xE8A70, symSize: 0x220 }
  - { offsetInCU: 0x14F19, offset: 0x50668C, size: 0x8, addend: 0x0, symName: __ZN3syn5token5Brace8surround17ha088df153eae400eE, symObjAddr: 0x8D30, symBinAddr: 0xE8C90, symSize: 0x260 }
  - { offsetInCU: 0x1568E, offset: 0x506E01, size: 0x8, addend: 0x0, symName: __ZN3syn5token5Brace8surround17hbe01d651f653d8afE, symObjAddr: 0x8F90, symBinAddr: 0xE8EF0, symSize: 0x590 }
  - { offsetInCU: 0x1628B, offset: 0x5079FE, size: 0x8, addend: 0x0, symName: __ZN3syn5token5Brace8surround17hc01d55ce5137971fE, symObjAddr: 0x9520, symBinAddr: 0xE9480, symSize: 0x220 }
  - { offsetInCU: 0x1671B, offset: 0x507E8E, size: 0x8, addend: 0x0, symName: __ZN3syn5token5Brace8surround17hcac216a5876b7b90E, symObjAddr: 0x9740, symBinAddr: 0xE96A0, symSize: 0x180 }
  - { offsetInCU: 0x169AD, offset: 0x508120, size: 0x8, addend: 0x0, symName: __ZN3syn5token5Brace8surround17hd179764b3f344586E, symObjAddr: 0x98C0, symBinAddr: 0xE9820, symSize: 0x220 }
  - { offsetInCU: 0x16EB7, offset: 0x50862A, size: 0x8, addend: 0x0, symName: __ZN3syn5token5Brace8surround17hd326a20e95a92237E, symObjAddr: 0x9AE0, symBinAddr: 0xE9A40, symSize: 0x470 }
  - { offsetInCU: 0x17AB0, offset: 0x509223, size: 0x8, addend: 0x0, symName: __ZN3syn5token5Brace8surround17hdec488e9714715d6E, symObjAddr: 0x9F50, symBinAddr: 0xE9EB0, symSize: 0x1B0 }
  - { offsetInCU: 0x1802F, offset: 0x5097A2, size: 0x8, addend: 0x0, symName: __ZN3syn5token5Brace8surround17heb4093c015441ecaE, symObjAddr: 0xA100, symBinAddr: 0xEA060, symSize: 0x200 }
  - { offsetInCU: 0x18695, offset: 0x509E08, size: 0x8, addend: 0x0, symName: __ZN3syn5token7Bracket8surround17h39ed741deec0cbbcE, symObjAddr: 0xA320, symBinAddr: 0xEA260, symSize: 0x130 }
  - { offsetInCU: 0x1887E, offset: 0x509FF1, size: 0x8, addend: 0x0, symName: __ZN3syn5token7Bracket8surround17h4010ca43394a9eecE, symObjAddr: 0xA450, symBinAddr: 0xEA390, symSize: 0x1A0 }
  - { offsetInCU: 0x18DF8, offset: 0x50A56B, size: 0x8, addend: 0x0, symName: __ZN3syn5token7Bracket8surround17h5da20462893431d0E, symObjAddr: 0xA790, symBinAddr: 0xEA530, symSize: 0x130 }
  - { offsetInCU: 0x1900E, offset: 0x50A781, size: 0x8, addend: 0x0, symName: __ZN3syn5token7Bracket8surround17ha5aff01b8fd5a0e1E, symObjAddr: 0xA9F0, symBinAddr: 0xEA660, symSize: 0x160 }
  - { offsetInCU: 0x19245, offset: 0x50A9B8, size: 0x8, addend: 0x0, symName: __ZN3syn5token7Bracket8surround17hc7c268cb755c8c19E, symObjAddr: 0xAB50, symBinAddr: 0xEA7C0, symSize: 0x150 }
  - { offsetInCU: 0x194A4, offset: 0x50AC17, size: 0x8, addend: 0x0, symName: __ZN3syn5token7Bracket8surround17hfab81345bbdd2f89E, symObjAddr: 0xACA0, symBinAddr: 0xEA910, symSize: 0x130 }
  - { offsetInCU: 0x19692, offset: 0x50AE05, size: 0x8, addend: 0x0, symName: __ZN3syn5token5Paren8surround17h0c12e09da3aa8e34E, symObjAddr: 0xADF0, symBinAddr: 0xEAA40, symSize: 0x1F0 }
  - { offsetInCU: 0x199B6, offset: 0x50B129, size: 0x8, addend: 0x0, symName: __ZN3syn5token5Paren8surround17h16e802a9434a262fE, symObjAddr: 0xAFE0, symBinAddr: 0xEAC30, symSize: 0x210 }
  - { offsetInCU: 0x1A114, offset: 0x50B887, size: 0x8, addend: 0x0, symName: __ZN3syn5token5Paren8surround17h28d44f6895295df5E, symObjAddr: 0xB1F0, symBinAddr: 0xEAE40, symSize: 0x1FC0 }
  - { offsetInCU: 0x21BB6, offset: 0x513329, size: 0x8, addend: 0x0, symName: __ZN3syn5token5Paren8surround17h38eece4b36020a96E, symObjAddr: 0xD1B0, symBinAddr: 0xECE00, symSize: 0x1A0 }
  - { offsetInCU: 0x22192, offset: 0x513905, size: 0x8, addend: 0x0, symName: __ZN3syn5token5Paren8surround17h4007655ded83f205E, symObjAddr: 0xD350, symBinAddr: 0xECFA0, symSize: 0x240 }
  - { offsetInCU: 0x2283F, offset: 0x513FB2, size: 0x8, addend: 0x0, symName: __ZN3syn5token5Paren8surround17h4549913c098e8324E, symObjAddr: 0xD590, symBinAddr: 0xED1E0, symSize: 0x590 }
  - { offsetInCU: 0x2347D, offset: 0x514BF0, size: 0x8, addend: 0x0, symName: __ZN3syn5token5Paren8surround17h4bee939971f7badbE, symObjAddr: 0xDB20, symBinAddr: 0xED770, symSize: 0x1A0 }
  - { offsetInCU: 0x239AE, offset: 0x515121, size: 0x8, addend: 0x0, symName: __ZN3syn5token5Paren8surround17h659862ce9b85cd3fE, symObjAddr: 0xDE60, symBinAddr: 0xED910, symSize: 0x120 }
  - { offsetInCU: 0x23C17, offset: 0x51538A, size: 0x8, addend: 0x0, symName: __ZN3syn5token5Paren8surround17h65f8affeb8dd01f8E, symObjAddr: 0xDF80, symBinAddr: 0xEDA30, symSize: 0x260 }
  - { offsetInCU: 0x24344, offset: 0x515AB7, size: 0x8, addend: 0x0, symName: __ZN3syn5token5Paren8surround17h8213022939b4c94aE, symObjAddr: 0xE1E0, symBinAddr: 0xEDC90, symSize: 0x210 }
  - { offsetInCU: 0x249BA, offset: 0x51612D, size: 0x8, addend: 0x0, symName: __ZN3syn5token5Paren8surround17h913431f398679f5cE, symObjAddr: 0xE3F0, symBinAddr: 0xEDEA0, symSize: 0x460 }
  - { offsetInCU: 0x25582, offset: 0x516CF5, size: 0x8, addend: 0x0, symName: __ZN3syn5token5Paren8surround17h94193c74c4feae5eE, symObjAddr: 0xE850, symBinAddr: 0xEE300, symSize: 0x120 }
  - { offsetInCU: 0x257A5, offset: 0x516F18, size: 0x8, addend: 0x0, symName: __ZN3syn5token5Paren8surround17hab374b99a74045c1E, symObjAddr: 0xE970, symBinAddr: 0xEE420, symSize: 0x180 }
  - { offsetInCU: 0x25AE0, offset: 0x517253, size: 0x8, addend: 0x0, symName: __ZN3syn5token5Paren8surround17hc5047487c1c6e5cbE, symObjAddr: 0xEAF0, symBinAddr: 0xEE5A0, symSize: 0x130 }
  - { offsetInCU: 0x25CAE, offset: 0x517421, size: 0x8, addend: 0x0, symName: __ZN3syn5token5Paren8surround17hd13f0c3754c57ba1E, symObjAddr: 0xEC20, symBinAddr: 0xEE6D0, symSize: 0x1A0 }
  - { offsetInCU: 0x26201, offset: 0x517974, size: 0x8, addend: 0x0, symName: __ZN3syn5token5Paren8surround17hef6358969a27e005E, symObjAddr: 0xF000, symBinAddr: 0xEE870, symSize: 0x1BA }
  - { offsetInCU: 0x15CC, offset: 0x52231C, size: 0x8, addend: 0x0, symName: '__ZN3syn2ty8printing76_$LT$impl$u20$quote..to_tokens..ToTokens$u20$for$u20$syn..ty..TypeBareFn$GT$9to_tokens17h9ada785e3c4ac8beE', symObjAddr: 0xB6E0, symBinAddr: 0xF8200, symSize: 0x210 }
  - { offsetInCU: 0x1CB3, offset: 0x522A03, size: 0x8, addend: 0x0, symName: '__ZN3syn2ty8printing78_$LT$impl$u20$quote..to_tokens..ToTokens$u20$for$u20$syn..ty..BareVariadic$GT$9to_tokens17hd841e8aff45580ffE', symObjAddr: 0xBF60, symBinAddr: 0xF8410, symSize: 0x130 }
  - { offsetInCU: 0x1F82, offset: 0x522CD2, size: 0x8, addend: 0x0, symName: '__ZN3syn2ty7parsing64_$LT$impl$u20$syn..parse..Parse$u20$for$u20$syn..ty..TypePtr$GT$5parse17hb3a631f8b5050729E', symObjAddr: 0x86C0, symBinAddr: 0xF5FC0, symSize: 0x440 }
  - { offsetInCU: 0x2BBD, offset: 0x52390D, size: 0x8, addend: 0x0, symName: '__ZN3syn2ty7parsing70_$LT$impl$u20$syn..parse..Parse$u20$for$u20$syn..ty..TypeReference$GT$5parse17h28b5cea3a2a5f18cE', symObjAddr: 0x8B00, symBinAddr: 0xF6400, symSize: 0x3C0 }
  - { offsetInCU: 0x332B, offset: 0x52407B, size: 0x8, addend: 0x0, symName: '__ZN3syn2ty7parsing67_$LT$impl$u20$syn..parse..Parse$u20$for$u20$syn..ty..TypeBareFn$GT$5parse17hc7333311caab7003E', symObjAddr: 0x8EC0, symBinAddr: 0xF67C0, symSize: 0x1020 }
  - { offsetInCU: 0x5017, offset: 0x525D67, size: 0x8, addend: 0x0, symName: '__ZN3syn2ty7parsing66_$LT$impl$u20$syn..parse..Parse$u20$for$u20$syn..ty..TypeNever$GT$5parse17hedcf4bce6d4b8acdE', symObjAddr: 0x9EE0, symBinAddr: 0xF77E0, symSize: 0x50 }
  - { offsetInCU: 0x50C5, offset: 0x525E15, size: 0x8, addend: 0x0, symName: '__ZN3syn2ty7parsing72_$LT$impl$u20$syn..parse..Parse$u20$for$u20$syn..ty..TypeTraitObject$GT$5parse17h2a2e48674bf544ceE', symObjAddr: 0xA790, symBinAddr: 0xF79F0, symSize: 0x190 }
  - { offsetInCU: 0x5707, offset: 0x526457, size: 0x8, addend: 0x0, symName: '__ZN3syn2ty7parsing66_$LT$impl$u20$syn..parse..Parse$u20$for$u20$syn..ty..TypeGroup$GT$5parse17h320d676d6240d83aE', symObjAddr: 0xAF50, symBinAddr: 0xF7FE0, symSize: 0x220 }
  - { offsetInCU: 0x5C8D, offset: 0x5269DD, size: 0x8, addend: 0x0, symName: '__ZN60_$LT$syn..ty..Type$u20$as$u20$quote..to_tokens..ToTokens$GT$9to_tokens17hc517846047fbd8d3E', symObjAddr: 0xC130, symBinAddr: 0xF8540, symSize: 0x800 }
  - { offsetInCU: 0x80C0, offset: 0x528E10, size: 0x8, addend: 0x0, symName: '__ZN77_$LT$$RF$$u5b$syn..attr..Attribute$u5d$$u20$as$u20$syn..attr..FilterAttrs$GT$5outer8is_outer17h41e17c2f166a63adE.llvm.7433280464014642904', symObjAddr: 0x7F60, symBinAddr: 0xF5FA0, symSize: 0x20 }
  - { offsetInCU: 0xAD5E, offset: 0x52BAAE, size: 0x8, addend: 0x0, symName: '__ZN3syn3gen5clone67_$LT$impl$u20$core..clone..Clone$u20$for$u20$syn..ty..BareFnArg$GT$5clone17h322032e98041fe57E', symObjAddr: 0xC960, symBinAddr: 0xF8D40, symSize: 0x140 }
  - { offsetInCU: 0xB1D3, offset: 0x52BF23, size: 0x8, addend: 0x0, symName: '__ZN3syn3gen5clone62_$LT$impl$u20$core..clone..Clone$u20$for$u20$syn..ty..Type$GT$5clone17hab6b515cddcf12a4E', symObjAddr: 0xCC10, symBinAddr: 0xF8E80, symSize: 0x8A0 }
  - { offsetInCU: 0xC9C2, offset: 0x52D712, size: 0x8, addend: 0x0, symName: '__ZN3syn3gen5clone68_$LT$impl$u20$core..clone..Clone$u20$for$u20$syn..ty..TypeBareFn$GT$5clone17h93542e2290e09c95E', symObjAddr: 0xD5C0, symBinAddr: 0xF9720, symSize: 0x490 }
  - { offsetInCU: 0xFBC1, offset: 0x530911, size: 0x8, addend: 0x0, symName: '__ZN4core3ptr100drop_in_place$LT$core..option..Option$LT$alloc..boxed..Box$LT$syn..path..GenericArgument$GT$$GT$$GT$17h3a7c44b9e57fe410E', symObjAddr: 0x1D0, symBinAddr: 0xEEA30, symSize: 0x50 }
  - { offsetInCU: 0xFF5F, offset: 0x530CAF, size: 0x8, addend: 0x0, symName: '__ZN4core3ptr100drop_in_place$LT$syn..punctuated..Punctuated$LT$syn..path..PathSegment$C$syn..token..PathSep$GT$$GT$17he41ef64147139591E', symObjAddr: 0x220, symBinAddr: 0xEEA80, symSize: 0x2B0 }
  - { offsetInCU: 0x10A15, offset: 0x531765, size: 0x8, addend: 0x0, symName: '__ZN4core3ptr103drop_in_place$LT$core..option..Option$LT$alloc..boxed..Box$LT$syn..generics..TypeParamBound$GT$$GT$$GT$17hb14e4384a768542bE', symObjAddr: 0x4D0, symBinAddr: 0xEED30, symSize: 0x50 }
  - { offsetInCU: 0x10C20, offset: 0x531970, size: 0x8, addend: 0x0, symName: '__ZN4core3ptr103drop_in_place$LT$syn..punctuated..Punctuated$LT$syn..generics..GenericParam$C$syn..token..Comma$GT$$GT$17h0c6077a988036760E', symObjAddr: 0x520, symBinAddr: 0xEED80, symSize: 0xF0 }
  - { offsetInCU: 0x1111B, offset: 0x531E6B, size: 0x8, addend: 0x0, symName: '__ZN4core3ptr104drop_in_place$LT$syn..punctuated..Punctuated$LT$syn..generics..TypeParamBound$C$syn..token..Plus$GT$$GT$17h724e4d9d1d65061aE', symObjAddr: 0x610, symBinAddr: 0xEEE70, symSize: 0x190 }
  - { offsetInCU: 0x117BA, offset: 0x53250A, size: 0x8, addend: 0x0, symName: '__ZN4core3ptr34drop_in_place$LT$syn..lit..Lit$GT$17hd64dde89a262341dE', symObjAddr: 0x7A0, symBinAddr: 0xEF000, symSize: 0x120 }
  - { offsetInCU: 0x11CA8, offset: 0x5329F8, size: 0x8, addend: 0x0, symName: '__ZN4core3ptr34drop_in_place$LT$syn..pat..Pat$GT$17hf88887878261d63cE', symObjAddr: 0x8C0, symBinAddr: 0xEF120, symSize: 0x1100 }
  - { offsetInCU: 0x16321, offset: 0x537071, size: 0x8, addend: 0x0, symName: '__ZN4core3ptr34drop_in_place$LT$syn..ty..Type$GT$17ha80dd29b0f9d4a3fE.llvm.7433280464014642904', symObjAddr: 0x19C0, symBinAddr: 0xF0220, symSize: 0x510 }
  - { offsetInCU: 0x17987, offset: 0x5386D7, size: 0x8, addend: 0x0, symName: '__ZN4core3ptr36drop_in_place$LT$syn..expr..Expr$GT$17h10f573b40ddd212cE', symObjAddr: 0x1ED0, symBinAddr: 0xF0730, symSize: 0x2840 }
  - { offsetInCU: 0x21A65, offset: 0x5427B5, size: 0x8, addend: 0x0, symName: '__ZN4core3ptr36drop_in_place$LT$syn..mac..Macro$GT$17hc3b30a7a8a34cc2dE', symObjAddr: 0x4710, symBinAddr: 0xF2F70, symSize: 0x40 }
  - { offsetInCU: 0x21A9F, offset: 0x5427EF, size: 0x8, addend: 0x0, symName: '__ZN4core3ptr36drop_in_place$LT$syn..path..Path$GT$17h75c74a97d5f0a03bE', symObjAddr: 0x4750, symBinAddr: 0xF2FB0, symSize: 0x280 }
  - { offsetInCU: 0x2254C, offset: 0x54329C, size: 0x8, addend: 0x0, symName: '__ZN4core3ptr37drop_in_place$LT$syn..stmt..Block$GT$17h6fc3254d5688f2c3E', symObjAddr: 0x49D0, symBinAddr: 0xF3230, symSize: 0xD0 }
  - { offsetInCU: 0x22823, offset: 0x543573, size: 0x8, addend: 0x0, symName: '__ZN4core3ptr38drop_in_place$LT$syn..expr..Member$GT$17h6b0cf84594ce6bceE', symObjAddr: 0x4AA0, symBinAddr: 0xF3300, symSize: 0x30 }
  - { offsetInCU: 0x229BA, offset: 0x54370A, size: 0x8, addend: 0x0, symName: '__ZN4core3ptr38drop_in_place$LT$syn..group..Group$GT$17ha3c6933df6efe66fE.llvm.7433280464014642904', symObjAddr: 0x4AD0, symBinAddr: 0xF3330, symSize: 0x70 }
  - { offsetInCU: 0x22CB2, offset: 0x543A02, size: 0x8, addend: 0x0, symName: '__ZN4core3ptr39drop_in_place$LT$proc_macro2..Ident$GT$17ha28fef9769e267d9E', symObjAddr: 0x4B40, symBinAddr: 0xF33A0, symSize: 0x30 }
  - { offsetInCU: 0x22D8F, offset: 0x543ADF, size: 0x8, addend: 0x0, symName: '__ZN4core3ptr40drop_in_place$LT$syn..ty..ReturnType$GT$17h035a612e322b6510E', symObjAddr: 0x4B70, symBinAddr: 0xF33D0, symSize: 0x50 }
  - { offsetInCU: 0x22EFF, offset: 0x543C4F, size: 0x8, addend: 0x0, symName: '__ZN4core3ptr41drop_in_place$LT$syn..expr..ExprConst$GT$17hbfe19d5d621e6836E', symObjAddr: 0x4BC0, symBinAddr: 0xF3420, symSize: 0x180 }
  - { offsetInCU: 0x234EC, offset: 0x54423C, size: 0x8, addend: 0x0, symName: '__ZN4core3ptr44drop_in_place$LT$syn..lifetime..Lifetime$GT$17he37fa474f03de7b1E', symObjAddr: 0x4D40, symBinAddr: 0xF35A0, symSize: 0x30 }
  - { offsetInCU: 0x235E8, offset: 0x544338, size: 0x8, addend: 0x0, symName: '__ZN4core3ptr44drop_in_place$LT$syn..parse..ParseBuffer$GT$17hf792ff20095efc35E', symObjAddr: 0x4D70, symBinAddr: 0xF35D0, symSize: 0x70 }
  - { offsetInCU: 0x239FF, offset: 0x54474F, size: 0x8, addend: 0x0, symName: '__ZN4core3ptr45drop_in_place$LT$proc_macro2..TokenStream$GT$17h76e8e68015f4924dE.llvm.7433280464014642904', symObjAddr: 0x4DE0, symBinAddr: 0xF3640, symSize: 0x140 }
  - { offsetInCU: 0x23E99, offset: 0x544BE9, size: 0x8, addend: 0x0, symName: '__ZN4core3ptr45drop_in_place$LT$syn..generics..TypeParam$GT$17h188a459c1380ac75E', symObjAddr: 0x4F20, symBinAddr: 0xF3780, symSize: 0x230 }
  - { offsetInCU: 0x2470E, offset: 0x54545E, size: 0x8, addend: 0x0, symName: '__ZN4core3ptr46drop_in_place$LT$syn..generics..ConstParam$GT$17h7a9b900b2b88bfcdE', symObjAddr: 0x5150, symBinAddr: 0xF39B0, symSize: 0x150 }
  - { offsetInCU: 0x24B8F, offset: 0x5458DF, size: 0x8, addend: 0x0, symName: '__ZN4core3ptr47drop_in_place$LT$syn..path..GenericArgument$GT$17h593f06d6ca9a94d2E', symObjAddr: 0x52A0, symBinAddr: 0xF3B00, symSize: 0x4A0 }
  - { offsetInCU: 0x25C95, offset: 0x5469E5, size: 0x8, addend: 0x0, symName: '__ZN4core3ptr49drop_in_place$LT$syn..generics..LifetimeParam$GT$17h3a8835ab294bfd16E', symObjAddr: 0x5740, symBinAddr: 0xF3FA0, symSize: 0xF0 }
  - { offsetInCU: 0x260AC, offset: 0x546DFC, size: 0x8, addend: 0x0, symName: '__ZN4core3ptr50drop_in_place$LT$syn..generics..TypeParamBound$GT$17h81b4325b5900604dE', symObjAddr: 0x5830, symBinAddr: 0xF4090, symSize: 0x1C0 }
  - { offsetInCU: 0x26609, offset: 0x547359, size: 0x8, addend: 0x0, symName: '__ZN4core3ptr58drop_in_place$LT$alloc..vec..Vec$LT$syn..expr..Arm$GT$$GT$17hff9224aadf2233b8E', symObjAddr: 0x59F0, symBinAddr: 0xF4250, symSize: 0xD0 }
  - { offsetInCU: 0x268C9, offset: 0x547619, size: 0x8, addend: 0x0, symName: '__ZN4core3ptr59drop_in_place$LT$alloc..boxed..Box$LT$syn..pat..Pat$GT$$GT$17h622b0c1db21c0742E', symObjAddr: 0x5AC0, symBinAddr: 0xF4320, symSize: 0x50 }
  - { offsetInCU: 0x26A22, offset: 0x547772, size: 0x8, addend: 0x0, symName: '__ZN4core3ptr59drop_in_place$LT$alloc..boxed..Box$LT$syn..ty..Type$GT$$GT$17hde45fa887dd8b605E', symObjAddr: 0x5B10, symBinAddr: 0xF4370, symSize: 0x50 }
  - { offsetInCU: 0x26B7B, offset: 0x5478CB, size: 0x8, addend: 0x0, symName: '__ZN4core3ptr61drop_in_place$LT$alloc..boxed..Box$LT$syn..expr..Expr$GT$$GT$17hbb42293869113942E', symObjAddr: 0x5B60, symBinAddr: 0xF43C0, symSize: 0x50 }
  - { offsetInCU: 0x26D50, offset: 0x547AA0, size: 0x8, addend: 0x0, symName: '__ZN4core3ptr61drop_in_place$LT$syn..path..ParenthesizedGenericArguments$GT$17h6b1731382637937fE', symObjAddr: 0x5C20, symBinAddr: 0xF4410, symSize: 0x170 }
  - { offsetInCU: 0x27346, offset: 0x548096, size: 0x8, addend: 0x0, symName: '__ZN4core3ptr62drop_in_place$LT$syn..path..AngleBracketedGenericArguments$GT$17hf8fa172f007a1473E', symObjAddr: 0x5D90, symBinAddr: 0xF4580, symSize: 0x120 }
  - { offsetInCU: 0x27791, offset: 0x5484E1, size: 0x8, addend: 0x0, symName: '__ZN4core3ptr63drop_in_place$LT$alloc..boxed..Box$LT$syn..lit..LitRepr$GT$$GT$17h6e3a82ea4de7b84cE', symObjAddr: 0x5EB0, symBinAddr: 0xF46A0, symSize: 0x60 }
  - { offsetInCU: 0x27A98, offset: 0x5487E8, size: 0x8, addend: 0x0, symName: '__ZN4core3ptr64drop_in_place$LT$alloc..boxed..Box$LT$syn..pat..FieldPat$GT$$GT$17hbf8f4867d84bd25dE', symObjAddr: 0x5F10, symBinAddr: 0xF4700, symSize: 0x140 }
  - { offsetInCU: 0x28199, offset: 0x548EE9, size: 0x8, addend: 0x0, symName: '__ZN4core3ptr64drop_in_place$LT$alloc..boxed..Box$LT$syn..ty..BareFnArg$GT$$GT$17h6be6354eb1d1364dE', symObjAddr: 0x6050, symBinAddr: 0xF4840, symSize: 0x140 }
  - { offsetInCU: 0x28722, offset: 0x549472, size: 0x8, addend: 0x0, symName: '__ZN4core3ptr64drop_in_place$LT$alloc..vec..Vec$LT$syn..attr..Attribute$GT$$GT$17he33e25539d5885aeE.llvm.7433280464014642904', symObjAddr: 0x6190, symBinAddr: 0xF4980, symSize: 0xD0 }
  - { offsetInCU: 0x28A16, offset: 0x549766, size: 0x8, addend: 0x0, symName: '__ZN4core3ptr65drop_in_place$LT$alloc..vec..Vec$LT$proc_macro..TokenTree$GT$$GT$17h8abd81f8596dbc59E.llvm.7433280464014642904', symObjAddr: 0x6260, symBinAddr: 0xF4A50, symSize: 0x110 }
  - { offsetInCU: 0x28E0E, offset: 0x549B5E, size: 0x8, addend: 0x0, symName: '__ZN4core3ptr65drop_in_place$LT$core..option..Option$LT$syn..expr..Label$GT$$GT$17hac599686b33ef364E', symObjAddr: 0x6370, symBinAddr: 0xF4B60, symSize: 0x30 }
  - { offsetInCU: 0x28F48, offset: 0x549C98, size: 0x8, addend: 0x0, symName: '__ZN4core3ptr65drop_in_place$LT$core..option..Option$LT$syn..path..QSelf$GT$$GT$17h0b8dd5cda5f2cd6bE', symObjAddr: 0x6400, symBinAddr: 0xF4B90, symSize: 0x50 }
  - { offsetInCU: 0x290DF, offset: 0x549E2F, size: 0x8, addend: 0x0, symName: '__ZN4core3ptr66drop_in_place$LT$core..option..Option$LT$syn..pat..PatRest$GT$$GT$17hd5bb3bc28aa78ac1E', symObjAddr: 0x6450, symBinAddr: 0xF4BE0, symSize: 0xE0 }
  - { offsetInCU: 0x29407, offset: 0x54A157, size: 0x8, addend: 0x0, symName: '__ZN4core3ptr67drop_in_place$LT$alloc..boxed..Box$LT$syn..expr..FieldValue$GT$$GT$17hbbcf67a9d5e9863cE', symObjAddr: 0x6530, symBinAddr: 0xF4CC0, symSize: 0x140 }
  - { offsetInCU: 0x29970, offset: 0x54A6C0, size: 0x8, addend: 0x0, symName: '__ZN4core3ptr68drop_in_place$LT$alloc..boxed..Box$LT$syn..path..PathSegment$GT$$GT$17h99aaf90b3262bc1eE', symObjAddr: 0x6670, symBinAddr: 0xF4E00, symSize: 0x1B0 }
  - { offsetInCU: 0x2A07E, offset: 0x54ADCE, size: 0x8, addend: 0x0, symName: '__ZN4core3ptr70drop_in_place$LT$core..option..Option$LT$syn..ty..BareVariadic$GT$$GT$17h79a19250e9f043b1E', symObjAddr: 0x6820, symBinAddr: 0xF4FB0, symSize: 0x100 }
  - { offsetInCU: 0x2A4E9, offset: 0x54B239, size: 0x8, addend: 0x0, symName: '__ZN4core3ptr72drop_in_place$LT$alloc..boxed..Box$LT$syn..path..GenericArgument$GT$$GT$17hfd308d374af4273dE', symObjAddr: 0x6920, symBinAddr: 0xF50B0, symSize: 0x1D0 }
  - { offsetInCU: 0x2AA84, offset: 0x54B7D4, size: 0x8, addend: 0x0, symName: '__ZN4core3ptr73drop_in_place$LT$alloc..boxed..Box$LT$syn..generics..GenericParam$GT$$GT$17ha26d5d145af4b203E', symObjAddr: 0x6AF0, symBinAddr: 0xF5280, symSize: 0x80 }
  - { offsetInCU: 0x2ABFA, offset: 0x54B94A, size: 0x8, addend: 0x0, symName: '__ZN4core3ptr75drop_in_place$LT$alloc..boxed..Box$LT$syn..generics..TypeParamBound$GT$$GT$17h129a4e927e5eb81bE', symObjAddr: 0x6B70, symBinAddr: 0xF5300, symSize: 0xC0 }
  - { offsetInCU: 0x2AF4E, offset: 0x54BC9E, size: 0x8, addend: 0x0, symName: '__ZN4core3ptr86drop_in_place$LT$syn..punctuated..Punctuated$LT$syn..pat..Pat$C$syn..token..Or$GT$$GT$17h9cc6b5f7b6d3a555E', symObjAddr: 0x6C50, symBinAddr: 0xF53C0, symSize: 0x120 }
  - { offsetInCU: 0x2B3C9, offset: 0x54C119, size: 0x8, addend: 0x0, symName: '__ZN4core3ptr87drop_in_place$LT$core..option..Option$LT$alloc..boxed..Box$LT$syn..pat..Pat$GT$$GT$$GT$17h51cd48973d96c411E', symObjAddr: 0x6D70, symBinAddr: 0xF54E0, symSize: 0x50 }
  - { offsetInCU: 0x2B539, offset: 0x54C289, size: 0x8, addend: 0x0, symName: '__ZN4core3ptr87drop_in_place$LT$core..option..Option$LT$alloc..boxed..Box$LT$syn..ty..Type$GT$$GT$$GT$17h103a25a4a7d7374eE', symObjAddr: 0x6DC0, symBinAddr: 0xF5530, symSize: 0x50 }
  - { offsetInCU: 0x2B6A9, offset: 0x54C3F9, size: 0x8, addend: 0x0, symName: '__ZN4core3ptr89drop_in_place$LT$core..option..Option$LT$alloc..boxed..Box$LT$syn..expr..Expr$GT$$GT$$GT$17h9e02509cb2345d44E', symObjAddr: 0x6E10, symBinAddr: 0xF5580, symSize: 0x50 }
  - { offsetInCU: 0x2B857, offset: 0x54C5A7, size: 0x8, addend: 0x0, symName: '__ZN4core3ptr89drop_in_place$LT$syn..punctuated..Punctuated$LT$syn..pat..Pat$C$syn..token..Comma$GT$$GT$17hd3a83c36827f210aE', symObjAddr: 0x6E60, symBinAddr: 0xF55D0, symSize: 0x120 }
  - { offsetInCU: 0x2BCE9, offset: 0x54CA39, size: 0x8, addend: 0x0, symName: '__ZN4core3ptr89drop_in_place$LT$syn..punctuated..Punctuated$LT$syn..ty..Type$C$syn..token..Comma$GT$$GT$17he030c4b7f24a5848E', symObjAddr: 0x6F80, symBinAddr: 0xF56F0, symSize: 0x120 }
  - { offsetInCU: 0x2C164, offset: 0x54CEB4, size: 0x8, addend: 0x0, symName: '__ZN4core3ptr90drop_in_place$LT$core..option..Option$LT$syn..path..AngleBracketedGenericArguments$GT$$GT$17ha307713a95a0671eE', symObjAddr: 0x70A0, symBinAddr: 0xF5810, symSize: 0x130 }
  - { offsetInCU: 0x2C606, offset: 0x54D356, size: 0x8, addend: 0x0, symName: '__ZN4core3ptr91drop_in_place$LT$syn..punctuated..Punctuated$LT$syn..expr..Expr$C$syn..token..Comma$GT$$GT$17h6f261e8f470c81f2E', symObjAddr: 0x71D0, symBinAddr: 0xF5940, symSize: 0x120 }
  - { offsetInCU: 0x2CA94, offset: 0x54D7E4, size: 0x8, addend: 0x0, symName: '__ZN4core3ptr94drop_in_place$LT$syn..punctuated..Punctuated$LT$syn..pat..FieldPat$C$syn..token..Comma$GT$$GT$17h43ec25af986ef674E', symObjAddr: 0x72F0, symBinAddr: 0xF5A60, symSize: 0xF0 }
  - { offsetInCU: 0x2CD93, offset: 0x54DAE3, size: 0x8, addend: 0x0, symName: '__ZN4core3ptr94drop_in_place$LT$syn..punctuated..Punctuated$LT$syn..ty..BareFnArg$C$syn..token..Comma$GT$$GT$17h7ba4c699ee390ebaE', symObjAddr: 0x73E0, symBinAddr: 0xF5B50, symSize: 0xF0 }
  - { offsetInCU: 0x2D094, offset: 0x54DDE4, size: 0x8, addend: 0x0, symName: '__ZN4core3ptr95drop_in_place$LT$core..option..Option$LT$$LP$proc_macro2..Ident$C$syn..token..Colon$RP$$GT$$GT$17h59fe297999aa3329E.llvm.7433280464014642904', symObjAddr: 0x74D0, symBinAddr: 0xF5C40, symSize: 0x30 }
  - { offsetInCU: 0x2D1AF, offset: 0x54DEFF, size: 0x8, addend: 0x0, symName: '__ZN4core3ptr96drop_in_place$LT$core..option..Option$LT$alloc..boxed..Box$LT$syn..path..PathSegment$GT$$GT$$GT$17h5de12a5a0f9e9ef9E', symObjAddr: 0x7500, symBinAddr: 0xF5C70, symSize: 0xA0 }
  - { offsetInCU: 0x2D42E, offset: 0x54E17E, size: 0x8, addend: 0x0, symName: '__ZN4core3ptr97drop_in_place$LT$syn..punctuated..Punctuated$LT$syn..expr..FieldValue$C$syn..token..Comma$GT$$GT$17hf58d0a9a09266ab3E', symObjAddr: 0x75A0, symBinAddr: 0xF5D10, symSize: 0xF0 }
  - { offsetInCU: 0x2D72B, offset: 0x54E47B, size: 0x8, addend: 0x0, symName: '__ZN4core3ptr98drop_in_place$LT$alloc..vec..Vec$LT$$LP$syn..path..GenericArgument$C$syn..token..Comma$RP$$GT$$GT$17h0dee282a026d5a38E', symObjAddr: 0x7690, symBinAddr: 0xF5E00, symSize: 0xD0 }
  - { offsetInCU: 0x2DA6B, offset: 0x54E7BB, size: 0x8, addend: 0x0, symName: '__ZN4core3ptr98drop_in_place$LT$syn..punctuated..Punctuated$LT$syn..lifetime..Lifetime$C$syn..token..Plus$GT$$GT$17h600c2b78f78fd2b9E', symObjAddr: 0x7760, symBinAddr: 0xF5ED0, symSize: 0xD0 }
  - { offsetInCU: 0x35B35, offset: 0x556885, size: 0x8, addend: 0x0, symName: '__ZN3syn2ty7parsing37_$LT$impl$u20$syn..ty..ReturnType$GT$5parse17h76bf66c5704e5568E.llvm.7433280464014642904', symObjAddr: 0xA5B0, symBinAddr: 0xF7830, symSize: 0x1C0 }
  - { offsetInCU: 0x3602E, offset: 0x556D7E, size: 0x8, addend: 0x0, symName: '__ZN3syn2ty7parsing42_$LT$impl$u20$syn..ty..TypeTraitObject$GT$12parse_bounds17hcce0f5f0c06eac47E', symObjAddr: 0xAAB0, symBinAddr: 0xF7B80, symSize: 0x200 }
  - { offsetInCU: 0x365E7, offset: 0x557337, size: 0x8, addend: 0x0, symName: '__ZN3syn2ty7parsing40_$LT$impl$u20$syn..ty..TypeImplTrait$GT$5parse17h57ff6f0ea678d301E', symObjAddr: 0xACF0, symBinAddr: 0xF7D80, symSize: 0x260 }
  - { offsetInCU: 0x1E, offset: 0x55E583, size: 0x8, addend: 0x0, symName: '__ZN4core3fmt3num52_$LT$impl$u20$core..fmt..Debug$u20$for$u20$usize$GT$3fmt17h9e5c63f85393f427E', symObjAddr: 0x0, symBinAddr: 0xF9BB0, symSize: 0x30 }
  - { offsetInCU: 0x50D, offset: 0x55EA72, size: 0x8, addend: 0x0, symName: '__ZN4core3ptr46drop_in_place$LT$alloc..vec..Vec$LT$u8$GT$$GT$17hac40de56aef3363bE', symObjAddr: 0x30, symBinAddr: 0xF9BE0, symSize: 0x20 }
  - { offsetInCU: 0x615, offset: 0x55EB7A, size: 0x8, addend: 0x0, symName: '__ZN4core3ptr48drop_in_place$LT$alloc..ffi..c_str..NulError$GT$17h22b4ea6536ce838bE', symObjAddr: 0x50, symBinAddr: 0xF9C00, symSize: 0x20 }
  - { offsetInCU: 0x71D, offset: 0x55EC82, size: 0x8, addend: 0x0, symName: '__ZN4core3ptr49drop_in_place$LT$alloc..string..FromUtf8Error$GT$17heaaeee83f03b2b7bE', symObjAddr: 0x70, symBinAddr: 0xF9C20, symSize: 0x20 }
  - { offsetInCU: 0x2376, offset: 0x5608DB, size: 0x8, addend: 0x0, symName: '__ZN4core3fmt3num52_$LT$impl$u20$core..fmt..Debug$u20$for$u20$usize$GT$3fmt17h9e5c63f85393f427E', symObjAddr: 0x0, symBinAddr: 0xF9BB0, symSize: 0x30 }
  - { offsetInCU: 0x3D91, offset: 0x5622F6, size: 0x8, addend: 0x0, symName: '__ZN65_$LT$alloc..string..FromUtf8Error$u20$as$u20$core..fmt..Debug$GT$3fmt17h0c1e2aafb1cc24ffE', symObjAddr: 0xE0, symBinAddr: 0xF9C90, symSize: 0x70 }
  - { offsetInCU: 0x44A8, offset: 0x562A0D, size: 0x8, addend: 0x0, symName: '__ZN64_$LT$alloc..ffi..c_str..NulError$u20$as$u20$core..fmt..Debug$GT$3fmt17h75cdff7a4e3710ebE', symObjAddr: 0x90, symBinAddr: 0xF9C40, symSize: 0x50 }
  - { offsetInCU: 0x501E, offset: 0x563583, size: 0x8, addend: 0x0, symName: __ZN3syn3lit5value13parse_lit_str17h9a56025a1403992cE, symObjAddr: 0x170, symBinAddr: 0xF9D00, symSize: 0x8F0 }
  - { offsetInCU: 0x6929, offset: 0x564E8E, size: 0x8, addend: 0x0, symName: __ZN3syn3lit5value17parse_lit_str_raw17h71a7a6b74a99cbf4E, symObjAddr: 0xA60, symBinAddr: 0xFA5F0, symSize: 0x3C0 }
  - { offsetInCU: 0x7BD6, offset: 0x56613B, size: 0x8, addend: 0x0, symName: __ZN3syn3lit5value18parse_lit_byte_str17he5816c9781ee600cE, symObjAddr: 0xE20, symBinAddr: 0xFA9B0, symSize: 0x600 }
  - { offsetInCU: 0x8FE9, offset: 0x56754E, size: 0x8, addend: 0x0, symName: __ZN3syn3lit5value15parse_lit_c_str17h8ea0e7f1f657a4ccE, symObjAddr: 0x1420, symBinAddr: 0xFAFB0, symSize: 0xD50 }
  - { offsetInCU: 0xAD6B, offset: 0x5692D0, size: 0x8, addend: 0x0, symName: __ZN3syn3lit5value14parse_lit_byte17h1a7c10a21ef1f8adE, symObjAddr: 0x2170, symBinAddr: 0xFBD00, symSize: 0x380 }
  - { offsetInCU: 0xB82F, offset: 0x569D94, size: 0x8, addend: 0x0, symName: __ZN3syn3lit5value14parse_lit_char17h1b6fdda66c901312E, symObjAddr: 0x24F0, symBinAddr: 0xFC080, symSize: 0x530 }
  - { offsetInCU: 0xC541, offset: 0x56AAA6, size: 0x8, addend: 0x0, symName: __ZN3syn3lit5value11backslash_x17had5b4021e53b86d3E, symObjAddr: 0x2A20, symBinAddr: 0xFC5B0, symSize: 0x160 }
  - { offsetInCU: 0xC7E1, offset: 0x56AD46, size: 0x8, addend: 0x0, symName: __ZN3syn3lit5value11backslash_x17hea0a6f2f0138e96cE, symObjAddr: 0x2B80, symBinAddr: 0xFC710, symSize: 0x140 }
  - { offsetInCU: 0xCA13, offset: 0x56AF78, size: 0x8, addend: 0x0, symName: __ZN3syn3lit5value11backslash_u17hc546eddee006fb27E, symObjAddr: 0x2CC0, symBinAddr: 0xFC850, symSize: 0x340 }
  - { offsetInCU: 0xD166, offset: 0x56B6CB, size: 0x8, addend: 0x0, symName: __ZN3syn3lit5value13parse_lit_int17h8a54417df181638cE, symObjAddr: 0x3000, symBinAddr: 0xFCB90, symSize: 0x710 }
  - { offsetInCU: 0xE786, offset: 0x56CCEB, size: 0x8, addend: 0x0, symName: __ZN3syn3lit5value15parse_lit_float17h48254a3bf7939b78E, symObjAddr: 0x3710, symBinAddr: 0xFD2A0, symSize: 0x7A0 }
  - { offsetInCU: 0xF988, offset: 0x56DEED, size: 0x8, addend: 0x0, symName: __ZN3syn3lit5value11backslash_u18panic_cold_display17ha129ad0961798f3eE, symObjAddr: 0x3EB0, symBinAddr: 0x1FE550, symSize: 0x59 }
  - { offsetInCU: 0x2258, offset: 0x571BB0, size: 0x8, addend: 0x0, symName: '__ZN77_$LT$$RF$$u5b$syn..attr..Attribute$u5d$$u20$as$u20$syn..attr..FilterAttrs$GT$5outer8is_outer17h41e17c2f166a63adE.llvm.15906860425259147884', symObjAddr: 0x7BC0, symBinAddr: 0x104F60, symSize: 0x20 }
  - { offsetInCU: 0x33E0, offset: 0x572D38, size: 0x8, addend: 0x0, symName: '__ZN3syn3pat8printing75_$LT$impl$u20$quote..to_tokens..ToTokens$u20$for$u20$syn..pat..PatIdent$GT$9to_tokens17h773c7ddcca1eed4aE', symObjAddr: 0x9130, symBinAddr: 0x106050, symSize: 0x1F0 }
  - { offsetInCU: 0x395E, offset: 0x5732B6, size: 0x8, addend: 0x0, symName: '__ZN3syn3pat8printing74_$LT$impl$u20$quote..to_tokens..ToTokens$u20$for$u20$syn..pat..PatRest$GT$9to_tokens17h5a916ef9f4d32210E', symObjAddr: 0x96B0, symBinAddr: 0x106240, symSize: 0xD0 }
  - { offsetInCU: 0x3BFF, offset: 0x573557, size: 0x8, addend: 0x0, symName: '__ZN3syn3pat8printing74_$LT$impl$u20$quote..to_tokens..ToTokens$u20$for$u20$syn..pat..PatType$GT$9to_tokens17hc06b7f213d6b0d4dE', symObjAddr: 0x9AC0, symBinAddr: 0x106310, symSize: 0xE0 }
  - { offsetInCU: 0x3E68, offset: 0x5737C0, size: 0x8, addend: 0x0, symName: '__ZN60_$LT$syn..pat..Pat$u20$as$u20$quote..to_tokens..ToTokens$GT$9to_tokens17h0cf42f7c25d434c6E', symObjAddr: 0x9DD0, symBinAddr: 0x1063F0, symSize: 0xF20 }
  - { offsetInCU: 0x8311, offset: 0x577C69, size: 0x8, addend: 0x0, symName: '__ZN3syn3gen5clone67_$LT$impl$u20$core..clone..Clone$u20$for$u20$syn..pat..FieldPat$GT$5clone17h844b6ab8c4c564e9E', symObjAddr: 0xACF0, symBinAddr: 0x107310, symSize: 0x180 }
  - { offsetInCU: 0x87F7, offset: 0x57814F, size: 0x8, addend: 0x0, symName: '__ZN3syn3gen5clone66_$LT$impl$u20$core..clone..Clone$u20$for$u20$syn..pat..PatType$GT$5clone17had7ff1b7fd2a7dd8E', symObjAddr: 0xC4A0, symBinAddr: 0x108760, symSize: 0x170 }
  - { offsetInCU: 0x8D41, offset: 0x578699, size: 0x8, addend: 0x0, symName: '__ZN3syn3gen5clone62_$LT$impl$u20$core..clone..Clone$u20$for$u20$syn..pat..Pat$GT$5clone17h5c8df087bec04fcbE', symObjAddr: 0xAE70, symBinAddr: 0x107490, symSize: 0xAE0 }
  - { offsetInCU: 0xA2ED, offset: 0x579C45, size: 0x8, addend: 0x0, symName: '__ZN3syn3gen5clone67_$LT$impl$u20$core..clone..Clone$u20$for$u20$syn..pat..PatIdent$GT$5clone17h4e1f2f3fc7ad63f5E', symObjAddr: 0xB950, symBinAddr: 0x107F70, symSize: 0x1A0 }
  - { offsetInCU: 0xA77A, offset: 0x57A0D2, size: 0x8, addend: 0x0, symName: '__ZN3syn3gen5clone68_$LT$impl$u20$core..clone..Clone$u20$for$u20$syn..pat..PatStruct$GT$5clone17h8a3afe9fa7cecfcfE', symObjAddr: 0xBE50, symBinAddr: 0x108110, symSize: 0x3B0 }
  - { offsetInCU: 0xADBC, offset: 0x57A714, size: 0x8, addend: 0x0, symName: '__ZN3syn3gen5clone73_$LT$impl$u20$core..clone..Clone$u20$for$u20$syn..pat..PatTupleStruct$GT$5clone17h1d3eed8ad7fca757E', symObjAddr: 0xC200, symBinAddr: 0x1084C0, symSize: 0x2A0 }
  - { offsetInCU: 0xD27F, offset: 0x57CBD7, size: 0x8, addend: 0x0, symName: '__ZN4core3ptr100drop_in_place$LT$core..option..Option$LT$alloc..boxed..Box$LT$syn..path..GenericArgument$GT$$GT$$GT$17h3a7c44b9e57fe410E', symObjAddr: 0x120, symBinAddr: 0xFDA40, symSize: 0x50 }
  - { offsetInCU: 0xD61D, offset: 0x57CF75, size: 0x8, addend: 0x0, symName: '__ZN4core3ptr100drop_in_place$LT$syn..punctuated..Punctuated$LT$syn..path..PathSegment$C$syn..token..PathSep$GT$$GT$17he41ef64147139591E', symObjAddr: 0x170, symBinAddr: 0xFDA90, symSize: 0x2B0 }
  - { offsetInCU: 0xE0D3, offset: 0x57DA2B, size: 0x8, addend: 0x0, symName: '__ZN4core3ptr103drop_in_place$LT$core..option..Option$LT$alloc..boxed..Box$LT$syn..generics..TypeParamBound$GT$$GT$$GT$17hb14e4384a768542bE', symObjAddr: 0x420, symBinAddr: 0xFDD40, symSize: 0x50 }
  - { offsetInCU: 0xE2DE, offset: 0x57DC36, size: 0x8, addend: 0x0, symName: '__ZN4core3ptr103drop_in_place$LT$syn..punctuated..Punctuated$LT$syn..generics..GenericParam$C$syn..token..Comma$GT$$GT$17h0c6077a988036760E', symObjAddr: 0x470, symBinAddr: 0xFDD90, symSize: 0xF0 }
  - { offsetInCU: 0xE7D9, offset: 0x57E131, size: 0x8, addend: 0x0, symName: '__ZN4core3ptr104drop_in_place$LT$syn..punctuated..Punctuated$LT$syn..generics..TypeParamBound$C$syn..token..Plus$GT$$GT$17h724e4d9d1d65061aE', symObjAddr: 0x560, symBinAddr: 0xFDE80, symSize: 0x190 }
  - { offsetInCU: 0xEEB6, offset: 0x57E80E, size: 0x8, addend: 0x0, symName: '__ZN4core3ptr34drop_in_place$LT$syn..lit..Lit$GT$17hd64dde89a262341dE', symObjAddr: 0x740, symBinAddr: 0xFE010, symSize: 0x120 }
  - { offsetInCU: 0xF366, offset: 0x57ECBE, size: 0x8, addend: 0x0, symName: '__ZN4core3ptr34drop_in_place$LT$syn..pat..Pat$GT$17hf88887878261d63cE.llvm.15906860425259147884', symObjAddr: 0x860, symBinAddr: 0xFE130, symSize: 0x10E0 }
  - { offsetInCU: 0x1391F, offset: 0x583277, size: 0x8, addend: 0x0, symName: '__ZN4core3ptr34drop_in_place$LT$syn..ty..Type$GT$17ha80dd29b0f9d4a3fE', symObjAddr: 0x1940, symBinAddr: 0xFF210, symSize: 0x520 }
  - { offsetInCU: 0x14F75, offset: 0x5848CD, size: 0x8, addend: 0x0, symName: '__ZN4core3ptr36drop_in_place$LT$syn..expr..Expr$GT$17h10f573b40ddd212cE', symObjAddr: 0x1E60, symBinAddr: 0xFF730, symSize: 0x2870 }
  - { offsetInCU: 0x1F249, offset: 0x58EBA1, size: 0x8, addend: 0x0, symName: '__ZN4core3ptr36drop_in_place$LT$syn..mac..Macro$GT$17hc3b30a7a8a34cc2dE', symObjAddr: 0x46D0, symBinAddr: 0x101FA0, symSize: 0x40 }
  - { offsetInCU: 0x1F283, offset: 0x58EBDB, size: 0x8, addend: 0x0, symName: '__ZN4core3ptr36drop_in_place$LT$syn..path..Path$GT$17h75c74a97d5f0a03bE', symObjAddr: 0x4710, symBinAddr: 0x101FE0, symSize: 0x280 }
  - { offsetInCU: 0x1FD30, offset: 0x58F688, size: 0x8, addend: 0x0, symName: '__ZN4core3ptr37drop_in_place$LT$syn..stmt..Block$GT$17h6fc3254d5688f2c3E', symObjAddr: 0x4990, symBinAddr: 0x102260, symSize: 0xD0 }
  - { offsetInCU: 0x20007, offset: 0x58F95F, size: 0x8, addend: 0x0, symName: '__ZN4core3ptr38drop_in_place$LT$syn..expr..Member$GT$17h6b0cf84594ce6bceE.llvm.15906860425259147884', symObjAddr: 0x4A60, symBinAddr: 0x102330, symSize: 0x30 }
  - { offsetInCU: 0x20103, offset: 0x58FA5B, size: 0x8, addend: 0x0, symName: '__ZN4core3ptr39drop_in_place$LT$proc_macro2..Ident$GT$17ha28fef9769e267d9E', symObjAddr: 0x4A90, symBinAddr: 0x102360, symSize: 0x30 }
  - { offsetInCU: 0x201E0, offset: 0x58FB38, size: 0x8, addend: 0x0, symName: '__ZN4core3ptr40drop_in_place$LT$syn..ty..ReturnType$GT$17h035a612e322b6510E', symObjAddr: 0x4AC0, symBinAddr: 0x102390, symSize: 0x50 }
  - { offsetInCU: 0x20350, offset: 0x58FCA8, size: 0x8, addend: 0x0, symName: '__ZN4core3ptr41drop_in_place$LT$syn..expr..ExprConst$GT$17hbfe19d5d621e6836E', symObjAddr: 0x4B10, symBinAddr: 0x1023E0, symSize: 0x180 }
  - { offsetInCU: 0x2093D, offset: 0x590295, size: 0x8, addend: 0x0, symName: '__ZN4core3ptr44drop_in_place$LT$syn..lifetime..Lifetime$GT$17he37fa474f03de7b1E', symObjAddr: 0x4C90, symBinAddr: 0x102560, symSize: 0x30 }
  - { offsetInCU: 0x20AB5, offset: 0x59040D, size: 0x8, addend: 0x0, symName: '__ZN4core3ptr44drop_in_place$LT$syn..parse..ParseBuffer$GT$17hf792ff20095efc35E', symObjAddr: 0x4CC0, symBinAddr: 0x102590, symSize: 0x70 }
  - { offsetInCU: 0x20ECC, offset: 0x590824, size: 0x8, addend: 0x0, symName: '__ZN4core3ptr45drop_in_place$LT$proc_macro2..TokenStream$GT$17h76e8e68015f4924dE', symObjAddr: 0x4D30, symBinAddr: 0x102600, symSize: 0x140 }
  - { offsetInCU: 0x21366, offset: 0x590CBE, size: 0x8, addend: 0x0, symName: '__ZN4core3ptr45drop_in_place$LT$syn..generics..TypeParam$GT$17h188a459c1380ac75E', symObjAddr: 0x4E70, symBinAddr: 0x102740, symSize: 0x230 }
  - { offsetInCU: 0x21BDB, offset: 0x591533, size: 0x8, addend: 0x0, symName: '__ZN4core3ptr46drop_in_place$LT$syn..generics..ConstParam$GT$17h7a9b900b2b88bfcdE', symObjAddr: 0x50A0, symBinAddr: 0x102970, symSize: 0x150 }
  - { offsetInCU: 0x2205C, offset: 0x5919B4, size: 0x8, addend: 0x0, symName: '__ZN4core3ptr47drop_in_place$LT$syn..path..GenericArgument$GT$17h593f06d6ca9a94d2E', symObjAddr: 0x51F0, symBinAddr: 0x102AC0, symSize: 0x4A0 }
  - { offsetInCU: 0x23162, offset: 0x592ABA, size: 0x8, addend: 0x0, symName: '__ZN4core3ptr49drop_in_place$LT$syn..generics..LifetimeParam$GT$17h3a8835ab294bfd16E', symObjAddr: 0x5690, symBinAddr: 0x102F60, symSize: 0xF0 }
  - { offsetInCU: 0x23579, offset: 0x592ED1, size: 0x8, addend: 0x0, symName: '__ZN4core3ptr50drop_in_place$LT$syn..generics..TypeParamBound$GT$17h81b4325b5900604dE', symObjAddr: 0x5780, symBinAddr: 0x103050, symSize: 0x1C0 }
  - { offsetInCU: 0x23AD6, offset: 0x59342E, size: 0x8, addend: 0x0, symName: '__ZN4core3ptr58drop_in_place$LT$alloc..vec..Vec$LT$syn..expr..Arm$GT$$GT$17hff9224aadf2233b8E', symObjAddr: 0x5940, symBinAddr: 0x103210, symSize: 0xD0 }
  - { offsetInCU: 0x23D96, offset: 0x5936EE, size: 0x8, addend: 0x0, symName: '__ZN4core3ptr59drop_in_place$LT$alloc..boxed..Box$LT$syn..pat..Pat$GT$$GT$17h622b0c1db21c0742E.llvm.15906860425259147884', symObjAddr: 0x5A10, symBinAddr: 0x1032E0, symSize: 0x50 }
  - { offsetInCU: 0x23EEF, offset: 0x593847, size: 0x8, addend: 0x0, symName: '__ZN4core3ptr59drop_in_place$LT$alloc..boxed..Box$LT$syn..ty..Type$GT$$GT$17hde45fa887dd8b605E', symObjAddr: 0x5A60, symBinAddr: 0x103330, symSize: 0x50 }
  - { offsetInCU: 0x24048, offset: 0x5939A0, size: 0x8, addend: 0x0, symName: '__ZN4core3ptr61drop_in_place$LT$alloc..boxed..Box$LT$syn..expr..Expr$GT$$GT$17hbb42293869113942E', symObjAddr: 0x5AB0, symBinAddr: 0x103380, symSize: 0x50 }
  - { offsetInCU: 0x2421D, offset: 0x593B75, size: 0x8, addend: 0x0, symName: '__ZN4core3ptr61drop_in_place$LT$syn..path..ParenthesizedGenericArguments$GT$17h6b1731382637937fE', symObjAddr: 0x5B00, symBinAddr: 0x1033D0, symSize: 0x170 }
  - { offsetInCU: 0x24813, offset: 0x59416B, size: 0x8, addend: 0x0, symName: '__ZN4core3ptr62drop_in_place$LT$syn..path..AngleBracketedGenericArguments$GT$17hf8fa172f007a1473E', symObjAddr: 0x5C70, symBinAddr: 0x103540, symSize: 0x120 }
  - { offsetInCU: 0x24C5E, offset: 0x5945B6, size: 0x8, addend: 0x0, symName: '__ZN4core3ptr63drop_in_place$LT$alloc..boxed..Box$LT$syn..lit..LitRepr$GT$$GT$17h6e3a82ea4de7b84cE', symObjAddr: 0x5D90, symBinAddr: 0x103660, symSize: 0x60 }
  - { offsetInCU: 0x24F65, offset: 0x5948BD, size: 0x8, addend: 0x0, symName: '__ZN4core3ptr64drop_in_place$LT$alloc..boxed..Box$LT$syn..pat..FieldPat$GT$$GT$17hbf8f4867d84bd25dE', symObjAddr: 0x5DF0, symBinAddr: 0x1036C0, symSize: 0x140 }
  - { offsetInCU: 0x25666, offset: 0x594FBE, size: 0x8, addend: 0x0, symName: '__ZN4core3ptr64drop_in_place$LT$alloc..boxed..Box$LT$syn..ty..BareFnArg$GT$$GT$17h6be6354eb1d1364dE', symObjAddr: 0x5F30, symBinAddr: 0x103800, symSize: 0x140 }
  - { offsetInCU: 0x25BEF, offset: 0x595547, size: 0x8, addend: 0x0, symName: '__ZN4core3ptr64drop_in_place$LT$alloc..vec..Vec$LT$syn..attr..Attribute$GT$$GT$17he33e25539d5885aeE.llvm.15906860425259147884', symObjAddr: 0x6070, symBinAddr: 0x103940, symSize: 0xD0 }
  - { offsetInCU: 0x25EE3, offset: 0x59583B, size: 0x8, addend: 0x0, symName: '__ZN4core3ptr65drop_in_place$LT$alloc..vec..Vec$LT$proc_macro..TokenTree$GT$$GT$17h8abd81f8596dbc59E', symObjAddr: 0x6140, symBinAddr: 0x103A10, symSize: 0x110 }
  - { offsetInCU: 0x262DB, offset: 0x595C33, size: 0x8, addend: 0x0, symName: '__ZN4core3ptr65drop_in_place$LT$core..option..Option$LT$syn..expr..Label$GT$$GT$17hac599686b33ef364E', symObjAddr: 0x6250, symBinAddr: 0x103B20, symSize: 0x30 }
  - { offsetInCU: 0x26415, offset: 0x595D6D, size: 0x8, addend: 0x0, symName: '__ZN4core3ptr65drop_in_place$LT$core..option..Option$LT$syn..path..QSelf$GT$$GT$17h0b8dd5cda5f2cd6bE', symObjAddr: 0x6280, symBinAddr: 0x103B50, symSize: 0x50 }
  - { offsetInCU: 0x265AC, offset: 0x595F04, size: 0x8, addend: 0x0, symName: '__ZN4core3ptr66drop_in_place$LT$core..option..Option$LT$syn..pat..PatRest$GT$$GT$17hd5bb3bc28aa78ac1E', symObjAddr: 0x62D0, symBinAddr: 0x103BA0, symSize: 0xE0 }
  - { offsetInCU: 0x268D4, offset: 0x59622C, size: 0x8, addend: 0x0, symName: '__ZN4core3ptr67drop_in_place$LT$alloc..boxed..Box$LT$syn..expr..FieldValue$GT$$GT$17hbbcf67a9d5e9863cE', symObjAddr: 0x63B0, symBinAddr: 0x103C80, symSize: 0x140 }
  - { offsetInCU: 0x26E3D, offset: 0x596795, size: 0x8, addend: 0x0, symName: '__ZN4core3ptr68drop_in_place$LT$alloc..boxed..Box$LT$syn..path..PathSegment$GT$$GT$17h99aaf90b3262bc1eE', symObjAddr: 0x64F0, symBinAddr: 0x103DC0, symSize: 0x1B0 }
  - { offsetInCU: 0x2754B, offset: 0x596EA3, size: 0x8, addend: 0x0, symName: '__ZN4core3ptr70drop_in_place$LT$core..option..Option$LT$syn..ty..BareVariadic$GT$$GT$17h79a19250e9f043b1E', symObjAddr: 0x66A0, symBinAddr: 0x103F70, symSize: 0x100 }
  - { offsetInCU: 0x279B6, offset: 0x59730E, size: 0x8, addend: 0x0, symName: '__ZN4core3ptr72drop_in_place$LT$alloc..boxed..Box$LT$syn..path..GenericArgument$GT$$GT$17hfd308d374af4273dE', symObjAddr: 0x67A0, symBinAddr: 0x104070, symSize: 0x1D0 }
  - { offsetInCU: 0x27F51, offset: 0x5978A9, size: 0x8, addend: 0x0, symName: '__ZN4core3ptr72drop_in_place$LT$core..option..Option$LT$syn..lifetime..Lifetime$GT$$GT$17h49cce6f02f9c0590E', symObjAddr: 0x6970, symBinAddr: 0x104240, symSize: 0x30 }
  - { offsetInCU: 0x2806C, offset: 0x5979C4, size: 0x8, addend: 0x0, symName: '__ZN4core3ptr73drop_in_place$LT$alloc..boxed..Box$LT$syn..generics..GenericParam$GT$$GT$17ha26d5d145af4b203E', symObjAddr: 0x69A0, symBinAddr: 0x104270, symSize: 0x80 }
  - { offsetInCU: 0x281E2, offset: 0x597B3A, size: 0x8, addend: 0x0, symName: '__ZN4core3ptr75drop_in_place$LT$alloc..boxed..Box$LT$syn..generics..TypeParamBound$GT$$GT$17h129a4e927e5eb81bE', symObjAddr: 0x6A20, symBinAddr: 0x1042F0, symSize: 0xC0 }
  - { offsetInCU: 0x28536, offset: 0x597E8E, size: 0x8, addend: 0x0, symName: '__ZN4core3ptr86drop_in_place$LT$syn..punctuated..Punctuated$LT$syn..pat..Pat$C$syn..token..Or$GT$$GT$17h9cc6b5f7b6d3a555E', symObjAddr: 0x6AE0, symBinAddr: 0x1043B0, symSize: 0x120 }
  - { offsetInCU: 0x289B1, offset: 0x598309, size: 0x8, addend: 0x0, symName: '__ZN4core3ptr87drop_in_place$LT$core..option..Option$LT$alloc..boxed..Box$LT$syn..pat..Pat$GT$$GT$$GT$17h51cd48973d96c411E', symObjAddr: 0x6C00, symBinAddr: 0x1044D0, symSize: 0x50 }
  - { offsetInCU: 0x28B21, offset: 0x598479, size: 0x8, addend: 0x0, symName: '__ZN4core3ptr87drop_in_place$LT$core..option..Option$LT$alloc..boxed..Box$LT$syn..ty..Type$GT$$GT$$GT$17h103a25a4a7d7374eE', symObjAddr: 0x6C50, symBinAddr: 0x104520, symSize: 0x50 }
  - { offsetInCU: 0x28C91, offset: 0x5985E9, size: 0x8, addend: 0x0, symName: '__ZN4core3ptr89drop_in_place$LT$core..option..Option$LT$alloc..boxed..Box$LT$syn..expr..Expr$GT$$GT$$GT$17h9e02509cb2345d44E', symObjAddr: 0x6CA0, symBinAddr: 0x104570, symSize: 0x50 }
  - { offsetInCU: 0x28E3F, offset: 0x598797, size: 0x8, addend: 0x0, symName: '__ZN4core3ptr89drop_in_place$LT$syn..punctuated..Punctuated$LT$syn..pat..Pat$C$syn..token..Comma$GT$$GT$17hd3a83c36827f210aE', symObjAddr: 0x6CF0, symBinAddr: 0x1045C0, symSize: 0x120 }
  - { offsetInCU: 0x292D1, offset: 0x598C29, size: 0x8, addend: 0x0, symName: '__ZN4core3ptr89drop_in_place$LT$syn..punctuated..Punctuated$LT$syn..ty..Type$C$syn..token..Comma$GT$$GT$17he030c4b7f24a5848E', symObjAddr: 0x6E10, symBinAddr: 0x1046E0, symSize: 0x120 }
  - { offsetInCU: 0x2974C, offset: 0x5990A4, size: 0x8, addend: 0x0, symName: '__ZN4core3ptr90drop_in_place$LT$core..option..Option$LT$syn..path..AngleBracketedGenericArguments$GT$$GT$17ha307713a95a0671eE', symObjAddr: 0x6F30, symBinAddr: 0x104800, symSize: 0x130 }
  - { offsetInCU: 0x29BEE, offset: 0x599546, size: 0x8, addend: 0x0, symName: '__ZN4core3ptr91drop_in_place$LT$syn..punctuated..Punctuated$LT$syn..expr..Expr$C$syn..token..Comma$GT$$GT$17h6f261e8f470c81f2E', symObjAddr: 0x7060, symBinAddr: 0x104930, symSize: 0x120 }
  - { offsetInCU: 0x2A07C, offset: 0x5999D4, size: 0x8, addend: 0x0, symName: '__ZN4core3ptr94drop_in_place$LT$syn..punctuated..Punctuated$LT$syn..pat..FieldPat$C$syn..token..Comma$GT$$GT$17h43ec25af986ef674E', symObjAddr: 0x7180, symBinAddr: 0x104A50, symSize: 0xF0 }
  - { offsetInCU: 0x2A37B, offset: 0x599CD3, size: 0x8, addend: 0x0, symName: '__ZN4core3ptr94drop_in_place$LT$syn..punctuated..Punctuated$LT$syn..ty..BareFnArg$C$syn..token..Comma$GT$$GT$17h7ba4c699ee390ebaE', symObjAddr: 0x7270, symBinAddr: 0x104B40, symSize: 0xF0 }
  - { offsetInCU: 0x2A67C, offset: 0x599FD4, size: 0x8, addend: 0x0, symName: '__ZN4core3ptr96drop_in_place$LT$core..option..Option$LT$alloc..boxed..Box$LT$syn..path..PathSegment$GT$$GT$$GT$17h5de12a5a0f9e9ef9E', symObjAddr: 0x7360, symBinAddr: 0x104C30, symSize: 0xA0 }
  - { offsetInCU: 0x2A8FB, offset: 0x59A253, size: 0x8, addend: 0x0, symName: '__ZN4core3ptr97drop_in_place$LT$syn..punctuated..Punctuated$LT$syn..expr..FieldValue$C$syn..token..Comma$GT$$GT$17hf58d0a9a09266ab3E', symObjAddr: 0x7400, symBinAddr: 0x104CD0, symSize: 0xF0 }
  - { offsetInCU: 0x2ABF8, offset: 0x59A550, size: 0x8, addend: 0x0, symName: '__ZN4core3ptr98drop_in_place$LT$alloc..vec..Vec$LT$$LP$syn..path..GenericArgument$C$syn..token..Comma$RP$$GT$$GT$17h0dee282a026d5a38E', symObjAddr: 0x74F0, symBinAddr: 0x104DC0, symSize: 0xD0 }
  - { offsetInCU: 0x2AF38, offset: 0x59A890, size: 0x8, addend: 0x0, symName: '__ZN4core3ptr98drop_in_place$LT$syn..punctuated..Punctuated$LT$syn..lifetime..Lifetime$C$syn..token..Plus$GT$$GT$17h600c2b78f78fd2b9E', symObjAddr: 0x75C0, symBinAddr: 0x104E90, symSize: 0xD0 }
  - { offsetInCU: 0x31570, offset: 0x5A0EC8, size: 0x8, addend: 0x0, symName: '__ZN3syn3pat7parsing31_$LT$impl$u20$syn..pat..Pat$GT$12parse_single17had5917816d6a4d92E', symObjAddr: 0x7CC0, symBinAddr: 0x104F80, symSize: 0xFF0 }
  - { offsetInCU: 0x36494, offset: 0x5A5DEC, size: 0x8, addend: 0x0, symName: '__ZN3syn3pat7parsing31_$LT$impl$u20$syn..pat..Pat$GT$29parse_multi_with_leading_vert17h1037b3b98e13f049E', symObjAddr: 0x8CD0, symBinAddr: 0x105F70, symSize: 0xE0 }
  - { offsetInCU: 0x35, offset: 0x5AD4BF, size: 0x8, addend: 0x0, symName: _anon.0b050a9e0cbe0aeeb92af8a853766f2a.0.llvm.661229634610467167, symObjAddr: 0xDFA0, symBinAddr: 0x2659A8, symSize: 0x0 }
  - { offsetInCU: 0x1FD8, offset: 0x5AF462, size: 0x8, addend: 0x0, symName: '__ZN4core3ptr100drop_in_place$LT$syn..punctuated..Punctuated$LT$syn..path..PathSegment$C$syn..token..PathSep$GT$$GT$17he41ef64147139591E.llvm.661229634610467167', symObjAddr: 0x410, symBinAddr: 0x1088D0, symSize: 0x170 }
  - { offsetInCU: 0x2670, offset: 0x5AFAFA, size: 0x8, addend: 0x0, symName: '__ZN4core3ptr101drop_in_place$LT$core..option..Option$LT$alloc..boxed..Box$LT$syn..generics..GenericParam$GT$$GT$$GT$17h2bff155591650989E', symObjAddr: 0x580, symBinAddr: 0x108A40, symSize: 0x90 }
  - { offsetInCU: 0x2854, offset: 0x5AFCDE, size: 0x8, addend: 0x0, symName: '__ZN4core3ptr102drop_in_place$LT$syn..punctuated..Punctuated$LT$syn..path..GenericArgument$C$syn..token..Comma$GT$$GT$17h8b1978399cfff48bE.llvm.661229634610467167', symObjAddr: 0x610, symBinAddr: 0x108AD0, symSize: 0xF0 }
  - { offsetInCU: 0x2B87, offset: 0x5B0011, size: 0x8, addend: 0x0, symName: '__ZN4core3ptr103drop_in_place$LT$core..option..Option$LT$alloc..boxed..Box$LT$syn..generics..TypeParamBound$GT$$GT$$GT$17hb14e4384a768542bE', symObjAddr: 0x700, symBinAddr: 0x108BC0, symSize: 0x50 }
  - { offsetInCU: 0x2D54, offset: 0x5B01DE, size: 0x8, addend: 0x0, symName: '__ZN4core3ptr103drop_in_place$LT$syn..punctuated..Punctuated$LT$syn..generics..GenericParam$C$syn..token..Comma$GT$$GT$17h0c6077a988036760E', symObjAddr: 0x750, symBinAddr: 0x108C10, symSize: 0xF0 }
  - { offsetInCU: 0x325B, offset: 0x5B06E5, size: 0x8, addend: 0x0, symName: '__ZN4core3ptr104drop_in_place$LT$syn..punctuated..Punctuated$LT$syn..generics..TypeParamBound$C$syn..token..Plus$GT$$GT$17h724e4d9d1d65061aE', symObjAddr: 0x840, symBinAddr: 0x108D00, symSize: 0x260 }
  - { offsetInCU: 0x3CAB, offset: 0x5B1135, size: 0x8, addend: 0x0, symName: '__ZN4core3ptr34drop_in_place$LT$syn..lit..Lit$GT$17hd64dde89a262341dE', symObjAddr: 0xAA0, symBinAddr: 0x108F60, symSize: 0x120 }
  - { offsetInCU: 0x41B8, offset: 0x5B1642, size: 0x8, addend: 0x0, symName: '__ZN4core3ptr34drop_in_place$LT$syn..pat..Pat$GT$17hf88887878261d63cE', symObjAddr: 0xBC0, symBinAddr: 0x109080, symSize: 0x1100 }
  - { offsetInCU: 0x8850, offset: 0x5B5CDA, size: 0x8, addend: 0x0, symName: '__ZN4core3ptr34drop_in_place$LT$syn..ty..Type$GT$17ha80dd29b0f9d4a3fE.llvm.661229634610467167', symObjAddr: 0x1CC0, symBinAddr: 0x10A180, symSize: 0x520 }
  - { offsetInCU: 0x9EC5, offset: 0x5B734F, size: 0x8, addend: 0x0, symName: '__ZN4core3ptr36drop_in_place$LT$syn..expr..Expr$GT$17h10f573b40ddd212cE.llvm.661229634610467167', symObjAddr: 0x21E0, symBinAddr: 0x10A6A0, symSize: 0x2830 }
  - { offsetInCU: 0x13FC8, offset: 0x5C1452, size: 0x8, addend: 0x0, symName: '__ZN4core3ptr36drop_in_place$LT$syn..mac..Macro$GT$17hc3b30a7a8a34cc2dE', symObjAddr: 0x4A10, symBinAddr: 0x10CED0, symSize: 0x40 }
  - { offsetInCU: 0x14021, offset: 0x5C14AB, size: 0x8, addend: 0x0, symName: '__ZN4core3ptr36drop_in_place$LT$syn..path..Path$GT$17h75c74a97d5f0a03bE.llvm.661229634610467167', symObjAddr: 0x4A50, symBinAddr: 0x10CF10, symSize: 0x1A0 }
  - { offsetInCU: 0x146AB, offset: 0x5C1B35, size: 0x8, addend: 0x0, symName: '__ZN4core3ptr37drop_in_place$LT$syn..stmt..Block$GT$17h6fc3254d5688f2c3E', symObjAddr: 0x4BF0, symBinAddr: 0x10D0B0, symSize: 0xD0 }
  - { offsetInCU: 0x14982, offset: 0x5C1E0C, size: 0x8, addend: 0x0, symName: '__ZN4core3ptr38drop_in_place$LT$syn..expr..Member$GT$17h6b0cf84594ce6bceE', symObjAddr: 0x4CC0, symBinAddr: 0x10D180, symSize: 0x30 }
  - { offsetInCU: 0x14A7E, offset: 0x5C1F08, size: 0x8, addend: 0x0, symName: '__ZN4core3ptr38drop_in_place$LT$syn..ty..TypePath$GT$17h6f484b80634b66aeE', symObjAddr: 0x4CF0, symBinAddr: 0x10D1B0, symSize: 0x70 }
  - { offsetInCU: 0x14BFB, offset: 0x5C2085, size: 0x8, addend: 0x0, symName: '__ZN4core3ptr39drop_in_place$LT$proc_macro2..Ident$GT$17ha28fef9769e267d9E.llvm.661229634610467167', symObjAddr: 0x4D60, symBinAddr: 0x10D220, symSize: 0x30 }
  - { offsetInCU: 0x14CD8, offset: 0x5C2162, size: 0x8, addend: 0x0, symName: '__ZN4core3ptr40drop_in_place$LT$syn..ty..ReturnType$GT$17h035a612e322b6510E.llvm.661229634610467167', symObjAddr: 0x4D90, symBinAddr: 0x10D250, symSize: 0x50 }
  - { offsetInCU: 0x14E48, offset: 0x5C22D2, size: 0x8, addend: 0x0, symName: '__ZN4core3ptr41drop_in_place$LT$syn..expr..ExprConst$GT$17hbfe19d5d621e6836E', symObjAddr: 0x4DE0, symBinAddr: 0x10D2A0, symSize: 0x180 }
  - { offsetInCU: 0x15454, offset: 0x5C28DE, size: 0x8, addend: 0x0, symName: '__ZN4core3ptr42drop_in_place$LT$syn..path..Constraint$GT$17h367871d1e7e54db0E.llvm.661229634610467167', symObjAddr: 0x5040, symBinAddr: 0x10D420, symSize: 0x160 }
  - { offsetInCU: 0x159C3, offset: 0x5C2E4D, size: 0x8, addend: 0x0, symName: '__ZN4core3ptr44drop_in_place$LT$syn..lifetime..Lifetime$GT$17he37fa474f03de7b1E.llvm.661229634610467167', symObjAddr: 0x51A0, symBinAddr: 0x10D580, symSize: 0x30 }
  - { offsetInCU: 0x15B3B, offset: 0x5C2FC5, size: 0x8, addend: 0x0, symName: '__ZN4core3ptr44drop_in_place$LT$syn..parse..ParseBuffer$GT$17hf792ff20095efc35E', symObjAddr: 0x51D0, symBinAddr: 0x10D5B0, symSize: 0x70 }
  - { offsetInCU: 0x15F52, offset: 0x5C33DC, size: 0x8, addend: 0x0, symName: '__ZN4core3ptr45drop_in_place$LT$proc_macro2..TokenStream$GT$17h76e8e68015f4924dE', symObjAddr: 0x5240, symBinAddr: 0x10D620, symSize: 0x140 }
  - { offsetInCU: 0x163CD, offset: 0x5C3857, size: 0x8, addend: 0x0, symName: '__ZN4core3ptr45drop_in_place$LT$syn..generics..TypeParam$GT$17h188a459c1380ac75E', symObjAddr: 0x5380, symBinAddr: 0x10D760, symSize: 0x140 }
  - { offsetInCU: 0x16816, offset: 0x5C3CA0, size: 0x8, addend: 0x0, symName: '__ZN4core3ptr45drop_in_place$LT$syn..path..PathArguments$GT$17hdbc6dfac6f3334e6E.llvm.661229634610467167', symObjAddr: 0x54C0, symBinAddr: 0x10D8A0, symSize: 0xB0 }
  - { offsetInCU: 0x169E7, offset: 0x5C3E71, size: 0x8, addend: 0x0, symName: '__ZN4core3ptr46drop_in_place$LT$syn..generics..ConstParam$GT$17h7a9b900b2b88bfcdE', symObjAddr: 0x5570, symBinAddr: 0x10D950, symSize: 0x150 }
  - { offsetInCU: 0x16E0B, offset: 0x5C4295, size: 0x8, addend: 0x0, symName: '__ZN4core3ptr49drop_in_place$LT$syn..generics..LifetimeParam$GT$17h3a8835ab294bfd16E', symObjAddr: 0x56C0, symBinAddr: 0x10DAA0, symSize: 0xF0 }
  - { offsetInCU: 0x17222, offset: 0x5C46AC, size: 0x8, addend: 0x0, symName: '__ZN4core3ptr50drop_in_place$LT$syn..generics..TypeParamBound$GT$17h81b4325b5900604dE', symObjAddr: 0x57B0, symBinAddr: 0x10DB90, symSize: 0x1C0 }
  - { offsetInCU: 0x1777F, offset: 0x5C4C09, size: 0x8, addend: 0x0, symName: '__ZN4core3ptr58drop_in_place$LT$alloc..vec..Vec$LT$syn..expr..Arm$GT$$GT$17hff9224aadf2233b8E', symObjAddr: 0x5970, symBinAddr: 0x10DD50, symSize: 0xD0 }
  - { offsetInCU: 0x17A3F, offset: 0x5C4EC9, size: 0x8, addend: 0x0, symName: '__ZN4core3ptr59drop_in_place$LT$alloc..boxed..Box$LT$syn..pat..Pat$GT$$GT$17h622b0c1db21c0742E', symObjAddr: 0x5A40, symBinAddr: 0x10DE20, symSize: 0x50 }
  - { offsetInCU: 0x17B98, offset: 0x5C5022, size: 0x8, addend: 0x0, symName: '__ZN4core3ptr59drop_in_place$LT$alloc..boxed..Box$LT$syn..ty..Type$GT$$GT$17hde45fa887dd8b605E.llvm.661229634610467167', symObjAddr: 0x5A90, symBinAddr: 0x10DE70, symSize: 0x50 }
  - { offsetInCU: 0x17CF1, offset: 0x5C517B, size: 0x8, addend: 0x0, symName: '__ZN4core3ptr61drop_in_place$LT$alloc..boxed..Box$LT$syn..expr..Expr$GT$$GT$17hbb42293869113942E', symObjAddr: 0x5AE0, symBinAddr: 0x10DEC0, symSize: 0x50 }
  - { offsetInCU: 0x17EC6, offset: 0x5C5350, size: 0x8, addend: 0x0, symName: '__ZN4core3ptr61drop_in_place$LT$syn..path..ParenthesizedGenericArguments$GT$17h6b1731382637937fE.llvm.661229634610467167', symObjAddr: 0x5B30, symBinAddr: 0x10DF10, symSize: 0x170 }
  - { offsetInCU: 0x184BC, offset: 0x5C5946, size: 0x8, addend: 0x0, symName: '__ZN4core3ptr63drop_in_place$LT$alloc..boxed..Box$LT$syn..lit..LitRepr$GT$$GT$17h6e3a82ea4de7b84cE', symObjAddr: 0x5CA0, symBinAddr: 0x10E080, symSize: 0x60 }
  - { offsetInCU: 0x187C3, offset: 0x5C5C4D, size: 0x8, addend: 0x0, symName: '__ZN4core3ptr64drop_in_place$LT$alloc..boxed..Box$LT$syn..pat..FieldPat$GT$$GT$17hbf8f4867d84bd25dE', symObjAddr: 0x5D00, symBinAddr: 0x10E0E0, symSize: 0x140 }
  - { offsetInCU: 0x18EC4, offset: 0x5C634E, size: 0x8, addend: 0x0, symName: '__ZN4core3ptr64drop_in_place$LT$alloc..boxed..Box$LT$syn..ty..BareFnArg$GT$$GT$17h6be6354eb1d1364dE', symObjAddr: 0x5E40, symBinAddr: 0x10E220, symSize: 0x140 }
  - { offsetInCU: 0x1944D, offset: 0x5C68D7, size: 0x8, addend: 0x0, symName: '__ZN4core3ptr65drop_in_place$LT$alloc..vec..Vec$LT$proc_macro..TokenTree$GT$$GT$17h8abd81f8596dbc59E', symObjAddr: 0x5F80, symBinAddr: 0x10E360, symSize: 0x110 }
  - { offsetInCU: 0x19845, offset: 0x5C6CCF, size: 0x8, addend: 0x0, symName: '__ZN4core3ptr65drop_in_place$LT$core..option..Option$LT$syn..expr..Label$GT$$GT$17hac599686b33ef364E', symObjAddr: 0x6090, symBinAddr: 0x10E470, symSize: 0x30 }
  - { offsetInCU: 0x1997F, offset: 0x5C6E09, size: 0x8, addend: 0x0, symName: '__ZN4core3ptr66drop_in_place$LT$core..option..Option$LT$syn..pat..PatRest$GT$$GT$17hd5bb3bc28aa78ac1E', symObjAddr: 0x60C0, symBinAddr: 0x10E4A0, symSize: 0xE0 }
  - { offsetInCU: 0x19CA7, offset: 0x5C7131, size: 0x8, addend: 0x0, symName: '__ZN4core3ptr67drop_in_place$LT$alloc..boxed..Box$LT$syn..expr..FieldValue$GT$$GT$17hbbcf67a9d5e9863cE', symObjAddr: 0x61A0, symBinAddr: 0x10E580, symSize: 0x140 }
  - { offsetInCU: 0x1A210, offset: 0x5C769A, size: 0x8, addend: 0x0, symName: '__ZN4core3ptr68drop_in_place$LT$alloc..boxed..Box$LT$syn..path..PathSegment$GT$$GT$17h99aaf90b3262bc1eE.llvm.661229634610467167', symObjAddr: 0x62E0, symBinAddr: 0x10E6C0, symSize: 0xF0 }
  - { offsetInCU: 0x1A631, offset: 0x5C7ABB, size: 0x8, addend: 0x0, symName: '__ZN4core3ptr70drop_in_place$LT$core..option..Option$LT$syn..ty..BareVariadic$GT$$GT$17h79a19250e9f043b1E', symObjAddr: 0x63D0, symBinAddr: 0x10E7B0, symSize: 0x100 }
  - { offsetInCU: 0x1AADA, offset: 0x5C7F64, size: 0x8, addend: 0x0, symName: '__ZN4core3ptr72drop_in_place$LT$alloc..boxed..Box$LT$syn..path..GenericArgument$GT$$GT$17hfd308d374af4273dE.llvm.661229634610467167', symObjAddr: 0x64D0, symBinAddr: 0x10E8B0, symSize: 0x190 }
  - { offsetInCU: 0x1AFB5, offset: 0x5C843F, size: 0x8, addend: 0x0, symName: '__ZN4core3ptr72drop_in_place$LT$core..option..Option$LT$syn..lifetime..Lifetime$GT$$GT$17h49cce6f02f9c0590E', symObjAddr: 0x6660, symBinAddr: 0x10EA40, symSize: 0x30 }
  - { offsetInCU: 0x1B0EF, offset: 0x5C8579, size: 0x8, addend: 0x0, symName: '__ZN4core3ptr73drop_in_place$LT$alloc..boxed..Box$LT$syn..generics..GenericParam$GT$$GT$17ha26d5d145af4b203E', symObjAddr: 0x66C0, symBinAddr: 0x10EA70, symSize: 0x80 }
  - { offsetInCU: 0x1B265, offset: 0x5C86EF, size: 0x8, addend: 0x0, symName: '__ZN4core3ptr75drop_in_place$LT$alloc..boxed..Box$LT$syn..generics..TypeParamBound$GT$$GT$17h129a4e927e5eb81bE', symObjAddr: 0x6740, symBinAddr: 0x10EAF0, symSize: 0x190 }
  - { offsetInCU: 0x1B970, offset: 0x5C8DFA, size: 0x8, addend: 0x0, symName: '__ZN4core3ptr86drop_in_place$LT$syn..punctuated..Punctuated$LT$syn..pat..Pat$C$syn..token..Or$GT$$GT$17h9cc6b5f7b6d3a555E', symObjAddr: 0x68D0, symBinAddr: 0x10EC80, symSize: 0x120 }
  - { offsetInCU: 0x1BDEB, offset: 0x5C9275, size: 0x8, addend: 0x0, symName: '__ZN4core3ptr87drop_in_place$LT$core..option..Option$LT$alloc..boxed..Box$LT$syn..pat..Pat$GT$$GT$$GT$17h51cd48973d96c411E', symObjAddr: 0x69F0, symBinAddr: 0x10EDA0, symSize: 0x50 }
  - { offsetInCU: 0x1BF5B, offset: 0x5C93E5, size: 0x8, addend: 0x0, symName: '__ZN4core3ptr87drop_in_place$LT$core..option..Option$LT$alloc..boxed..Box$LT$syn..ty..Type$GT$$GT$$GT$17h103a25a4a7d7374eE.llvm.661229634610467167', symObjAddr: 0x6A40, symBinAddr: 0x10EDF0, symSize: 0x50 }
  - { offsetInCU: 0x1C0CB, offset: 0x5C9555, size: 0x8, addend: 0x0, symName: '__ZN4core3ptr89drop_in_place$LT$core..option..Option$LT$alloc..boxed..Box$LT$syn..expr..Expr$GT$$GT$$GT$17h9e02509cb2345d44E', symObjAddr: 0x6A90, symBinAddr: 0x10EE40, symSize: 0x50 }
  - { offsetInCU: 0x1C279, offset: 0x5C9703, size: 0x8, addend: 0x0, symName: '__ZN4core3ptr89drop_in_place$LT$syn..punctuated..Punctuated$LT$syn..pat..Pat$C$syn..token..Comma$GT$$GT$17hd3a83c36827f210aE', symObjAddr: 0x6AE0, symBinAddr: 0x10EE90, symSize: 0x120 }
  - { offsetInCU: 0x1C70B, offset: 0x5C9B95, size: 0x8, addend: 0x0, symName: '__ZN4core3ptr89drop_in_place$LT$syn..punctuated..Punctuated$LT$syn..ty..Type$C$syn..token..Comma$GT$$GT$17he030c4b7f24a5848E.llvm.661229634610467167', symObjAddr: 0x6C00, symBinAddr: 0x10EFB0, symSize: 0x120 }
  - { offsetInCU: 0x1CBC4, offset: 0x5CA04E, size: 0x8, addend: 0x0, symName: '__ZN4core3ptr91drop_in_place$LT$syn..punctuated..Punctuated$LT$syn..expr..Expr$C$syn..token..Comma$GT$$GT$17h6f261e8f470c81f2E', symObjAddr: 0x6D40, symBinAddr: 0x10F0D0, symSize: 0x120 }
  - { offsetInCU: 0x1D052, offset: 0x5CA4DC, size: 0x8, addend: 0x0, symName: '__ZN4core3ptr94drop_in_place$LT$syn..punctuated..Punctuated$LT$syn..pat..FieldPat$C$syn..token..Comma$GT$$GT$17h43ec25af986ef674E', symObjAddr: 0x6E60, symBinAddr: 0x10F1F0, symSize: 0xF0 }
  - { offsetInCU: 0x1D351, offset: 0x5CA7DB, size: 0x8, addend: 0x0, symName: '__ZN4core3ptr94drop_in_place$LT$syn..punctuated..Punctuated$LT$syn..ty..BareFnArg$C$syn..token..Comma$GT$$GT$17h7ba4c699ee390ebaE', symObjAddr: 0x6F50, symBinAddr: 0x10F2E0, symSize: 0xF0 }
  - { offsetInCU: 0x1D652, offset: 0x5CAADC, size: 0x8, addend: 0x0, symName: '__ZN4core3ptr96drop_in_place$LT$core..option..Option$LT$alloc..boxed..Box$LT$syn..path..PathSegment$GT$$GT$$GT$17h5de12a5a0f9e9ef9E.llvm.661229634610467167', symObjAddr: 0x7040, symBinAddr: 0x10F3D0, symSize: 0xA0 }
  - { offsetInCU: 0x1D8F0, offset: 0x5CAD7A, size: 0x8, addend: 0x0, symName: '__ZN4core3ptr97drop_in_place$LT$syn..punctuated..Punctuated$LT$syn..expr..FieldValue$C$syn..token..Comma$GT$$GT$17hf58d0a9a09266ab3E', symObjAddr: 0x70E0, symBinAddr: 0x10F470, symSize: 0xF0 }
  - { offsetInCU: 0x1DC69, offset: 0x5CB0F3, size: 0x8, addend: 0x0, symName: '__ZN4core3ptr98drop_in_place$LT$syn..punctuated..Punctuated$LT$syn..lifetime..Lifetime$C$syn..token..Plus$GT$$GT$17h600c2b78f78fd2b9E', symObjAddr: 0x71D0, symBinAddr: 0x10F560, symSize: 0xD0 }
  - { offsetInCU: 0x24130, offset: 0x5D15BA, size: 0x8, addend: 0x0, symName: '__ZN3syn4path8printing83_$LT$impl$u20$quote..to_tokens..ToTokens$u20$for$u20$syn..path..GenericArgument$GT$9to_tokens17h805a5129364dcb73E', symObjAddr: 0xA600, symBinAddr: 0x1121B0, symSize: 0x1D0 }
  - { offsetInCU: 0x244BD, offset: 0x5D1947, size: 0x8, addend: 0x0, symName: '__ZN3syn4path8printing98_$LT$impl$u20$quote..to_tokens..ToTokens$u20$for$u20$syn..path..AngleBracketedGenericArguments$GT$9to_tokens17h077559fcda79fba1E', symObjAddr: 0xA7D0, symBinAddr: 0x112380, symSize: 0x200 }
  - { offsetInCU: 0x24C57, offset: 0x5D20E1, size: 0x8, addend: 0x0, symName: '__ZN64_$LT$syn..path..Path$u20$as$u20$core..convert..From$LT$T$GT$$GT$4from17hbd85b831f343d415E', symObjAddr: 0x76F0, symBinAddr: 0x10F630, symSize: 0xD0 }
  - { offsetInCU: 0x24D0F, offset: 0x5D2199, size: 0x8, addend: 0x0, symName: '__ZN3syn4path7parsing74_$LT$impl$u20$syn..parse..Parse$u20$for$u20$syn..path..GenericArgument$GT$5parse17hde9d8ada4733ca72E', symObjAddr: 0x7AB0, symBinAddr: 0x10F890, symSize: 0x1160 }
  - { offsetInCU: 0x2655E, offset: 0x5D39E8, size: 0x8, addend: 0x0, symName: '__ZN3syn4path7parsing89_$LT$impl$u20$syn..parse..Parse$u20$for$u20$syn..path..AngleBracketedGenericArguments$GT$5parse17h96a4c20c6a6191c9E', symObjAddr: 0x8FE0, symBinAddr: 0x110D40, symSize: 0xC0 }
  - { offsetInCU: 0x2672F, offset: 0x5D3BB9, size: 0x8, addend: 0x0, symName: '__ZN3syn4path7parsing88_$LT$impl$u20$syn..parse..Parse$u20$for$u20$syn..path..ParenthesizedGenericArguments$GT$5parse17haf45186e506dcd96E', symObjAddr: 0x90A0, symBinAddr: 0x110E00, symSize: 0x500 }
  - { offsetInCU: 0x2B96D, offset: 0x5D8DF7, size: 0x8, addend: 0x0, symName: '__ZN3syn3gen5clone70_$LT$impl$u20$core..clone..Clone$u20$for$u20$syn..path..AssocConst$GT$5clone17h66f2a9f2b96d69e0E', symObjAddr: 0xAC80, symBinAddr: 0x112580, symSize: 0x2B0 }
  - { offsetInCU: 0x2BE7A, offset: 0x5D9304, size: 0x8, addend: 0x0, symName: '__ZN3syn3gen5clone69_$LT$impl$u20$core..clone..Clone$u20$for$u20$syn..path..AssocType$GT$5clone17h8df52cda308869b4E', symObjAddr: 0xAF30, symBinAddr: 0x112830, symSize: 0x2B0 }
  - { offsetInCU: 0x2C387, offset: 0x5D9811, size: 0x8, addend: 0x0, symName: '__ZN3syn3gen5clone70_$LT$impl$u20$core..clone..Clone$u20$for$u20$syn..path..Constraint$GT$5clone17hdad9667d3c133e97E', symObjAddr: 0xB1E0, symBinAddr: 0x112AE0, symSize: 0x2A0 }
  - { offsetInCU: 0x2C894, offset: 0x5D9D1E, size: 0x8, addend: 0x0, symName: '__ZN3syn3gen5clone75_$LT$impl$u20$core..clone..Clone$u20$for$u20$syn..path..GenericArgument$GT$5clone17h4a3c345b544e8dd4E', symObjAddr: 0xB480, symBinAddr: 0x112D80, symSize: 0x110 }
  - { offsetInCU: 0x2CA54, offset: 0x5D9EDE, size: 0x8, addend: 0x0, symName: '__ZN3syn3gen5clone73_$LT$impl$u20$core..clone..Clone$u20$for$u20$syn..path..PathArguments$GT$5clone17h4d133aa66bc34849E', symObjAddr: 0xB6D0, symBinAddr: 0x112E90, symSize: 0x1D0 }
  - { offsetInCU: 0x2ED05, offset: 0x5DC18F, size: 0x8, addend: 0x0, symName: __ZN3syn4path4Path8is_ident17h19105ddf9028eaf5E, symObjAddr: 0x77C0, symBinAddr: 0x10F700, symSize: 0x110 }
  - { offsetInCU: 0x2F521, offset: 0x5DC9AB, size: 0x8, addend: 0x0, symName: __ZN3syn4path4Path9get_ident17h961ffa0bcf0dc105E, symObjAddr: 0x78D0, symBinAddr: 0x10F810, symSize: 0x80 }
  - { offsetInCU: 0x30047, offset: 0x5DD4D1, size: 0x8, addend: 0x0, symName: '__ZN3syn4path7parsing59_$LT$impl$u20$syn..path..AngleBracketedGenericArguments$GT$8do_parse17h9dd6471b3506b23bE.llvm.661229634610467167', symObjAddr: 0x8C90, symBinAddr: 0x1109F0, symSize: 0x350 }
  - { offsetInCU: 0x30924, offset: 0x5DDDAE, size: 0x8, addend: 0x0, symName: '__ZN3syn4path7parsing40_$LT$impl$u20$syn..path..PathSegment$GT$12parse_helper17h29b96fcf996789ddE', symObjAddr: 0x95C0, symBinAddr: 0x111300, symSize: 0x360 }
  - { offsetInCU: 0x315AC, offset: 0x5DEA36, size: 0x8, addend: 0x0, symName: '__ZN3syn4path7parsing33_$LT$impl$u20$syn..path..Path$GT$15parse_mod_style17h1aa28225ce8e8465E', symObjAddr: 0x9920, symBinAddr: 0x111660, symSize: 0x420 }
  - { offsetInCU: 0x31F53, offset: 0x5DF3DD, size: 0x8, addend: 0x0, symName: '__ZN3syn4path7parsing33_$LT$impl$u20$syn..path..Path$GT$12parse_helper17h4163216e5c260008E', symObjAddr: 0x9D40, symBinAddr: 0x111A80, symSize: 0x2F0 }
  - { offsetInCU: 0x322CB, offset: 0x5DF755, size: 0x8, addend: 0x0, symName: '__ZN3syn4path7parsing33_$LT$impl$u20$syn..path..Path$GT$10parse_rest17h5197131c3c9a8d38E', symObjAddr: 0xA030, symBinAddr: 0x111D70, symSize: 0x390 }
  - { offsetInCU: 0x3299D, offset: 0x5DFE27, size: 0x8, addend: 0x0, symName: '__ZN3syn4path7parsing33_$LT$impl$u20$syn..path..Path$GT$12is_mod_style17hb1baf805e22818f3E', symObjAddr: 0xA3C0, symBinAddr: 0x112100, symSize: 0xB0 }
  - { offsetInCU: 0x1E, offset: 0x5E57A8, size: 0x8, addend: 0x0, symName: '__ZN4core3ptr100drop_in_place$LT$core..option..Option$LT$alloc..boxed..Box$LT$syn..path..GenericArgument$GT$$GT$$GT$17h3a7c44b9e57fe410E', symObjAddr: 0x0, symBinAddr: 0x113060, symSize: 0x50 }
  - { offsetInCU: 0x1861, offset: 0x5E6FEB, size: 0x8, addend: 0x0, symName: '__ZN4core3ptr100drop_in_place$LT$core..option..Option$LT$alloc..boxed..Box$LT$syn..path..GenericArgument$GT$$GT$$GT$17h3a7c44b9e57fe410E', symObjAddr: 0x0, symBinAddr: 0x113060, symSize: 0x50 }
  - { offsetInCU: 0x1AE8, offset: 0x5E7272, size: 0x8, addend: 0x0, symName: '__ZN4core3ptr100drop_in_place$LT$syn..punctuated..Punctuated$LT$syn..path..PathSegment$C$syn..token..PathSep$GT$$GT$17he41ef64147139591E', symObjAddr: 0x50, symBinAddr: 0x1130B0, symSize: 0x170 }
  - { offsetInCU: 0x2161, offset: 0x5E78EB, size: 0x8, addend: 0x0, symName: '__ZN4core3ptr103drop_in_place$LT$core..option..Option$LT$alloc..boxed..Box$LT$syn..generics..TypeParamBound$GT$$GT$$GT$17hb14e4384a768542bE', symObjAddr: 0x1C0, symBinAddr: 0x113220, symSize: 0x50 }
  - { offsetInCU: 0x236C, offset: 0x5E7AF6, size: 0x8, addend: 0x0, symName: '__ZN4core3ptr103drop_in_place$LT$syn..punctuated..Punctuated$LT$syn..generics..GenericParam$C$syn..token..Comma$GT$$GT$17h0c6077a988036760E', symObjAddr: 0x210, symBinAddr: 0x113270, symSize: 0xF0 }
  - { offsetInCU: 0x2886, offset: 0x5E8010, size: 0x8, addend: 0x0, symName: '__ZN4core3ptr104drop_in_place$LT$syn..punctuated..Punctuated$LT$syn..generics..TypeParamBound$C$syn..token..Plus$GT$$GT$17h724e4d9d1d65061aE', symObjAddr: 0x300, symBinAddr: 0x113360, symSize: 0x260 }
  - { offsetInCU: 0x32D0, offset: 0x5E8A5A, size: 0x8, addend: 0x0, symName: '__ZN4core3ptr34drop_in_place$LT$syn..lit..Lit$GT$17hd64dde89a262341dE', symObjAddr: 0x560, symBinAddr: 0x1135C0, symSize: 0x120 }
  - { offsetInCU: 0x37BE, offset: 0x5E8F48, size: 0x8, addend: 0x0, symName: '__ZN4core3ptr34drop_in_place$LT$syn..pat..Pat$GT$17hf88887878261d63cE', symObjAddr: 0x680, symBinAddr: 0x1136E0, symSize: 0x1100 }
  - { offsetInCU: 0x7CE2, offset: 0x5ED46C, size: 0x8, addend: 0x0, symName: '__ZN4core3ptr34drop_in_place$LT$syn..ty..Type$GT$17ha80dd29b0f9d4a3fE', symObjAddr: 0x1780, symBinAddr: 0x1147E0, symSize: 0x370 }
  - { offsetInCU: 0x8CA7, offset: 0x5EE431, size: 0x8, addend: 0x0, symName: '__ZN4core3ptr36drop_in_place$LT$syn..expr..Expr$GT$17h10f573b40ddd212cE', symObjAddr: 0x1AF0, symBinAddr: 0x114B50, symSize: 0x2840 }
  - { offsetInCU: 0x12D85, offset: 0x5F850F, size: 0x8, addend: 0x0, symName: '__ZN4core3ptr36drop_in_place$LT$syn..mac..Macro$GT$17hc3b30a7a8a34cc2dE', symObjAddr: 0x4330, symBinAddr: 0x117390, symSize: 0x40 }
  - { offsetInCU: 0x12E3B, offset: 0x5F85C5, size: 0x8, addend: 0x0, symName: '__ZN4core3ptr36drop_in_place$LT$syn..path..Path$GT$17h75c74a97d5f0a03bE', symObjAddr: 0x4370, symBinAddr: 0x1173D0, symSize: 0x280 }
  - { offsetInCU: 0x138E8, offset: 0x5F9072, size: 0x8, addend: 0x0, symName: '__ZN4core3ptr37drop_in_place$LT$syn..stmt..Block$GT$17h6fc3254d5688f2c3E', symObjAddr: 0x45F0, symBinAddr: 0x117650, symSize: 0xD0 }
  - { offsetInCU: 0x13BBF, offset: 0x5F9349, size: 0x8, addend: 0x0, symName: '__ZN4core3ptr38drop_in_place$LT$syn..expr..Member$GT$17h6b0cf84594ce6bceE', symObjAddr: 0x46C0, symBinAddr: 0x117720, symSize: 0x30 }
  - { offsetInCU: 0x13CBB, offset: 0x5F9445, size: 0x8, addend: 0x0, symName: '__ZN4core3ptr38drop_in_place$LT$syn..ty..TypePath$GT$17h6f484b80634b66aeE', symObjAddr: 0x46F0, symBinAddr: 0x117750, symSize: 0x70 }
  - { offsetInCU: 0x13E38, offset: 0x5F95C2, size: 0x8, addend: 0x0, symName: '__ZN4core3ptr39drop_in_place$LT$proc_macro2..Ident$GT$17ha28fef9769e267d9E', symObjAddr: 0x4760, symBinAddr: 0x1177C0, symSize: 0x30 }
  - { offsetInCU: 0x13F53, offset: 0x5F96DD, size: 0x8, addend: 0x0, symName: '__ZN4core3ptr39drop_in_place$LT$syn..ty..BareFnArg$GT$17h06523caf0a2ebe3aE', symObjAddr: 0x4790, symBinAddr: 0x1177F0, symSize: 0x110 }
  - { offsetInCU: 0x14376, offset: 0x5F9B00, size: 0x8, addend: 0x0, symName: '__ZN4core3ptr40drop_in_place$LT$syn..ty..ReturnType$GT$17h035a612e322b6510E', symObjAddr: 0x48A0, symBinAddr: 0x117900, symSize: 0x50 }
  - { offsetInCU: 0x1463B, offset: 0x5F9DC5, size: 0x8, addend: 0x0, symName: '__ZN4core3ptr40drop_in_place$LT$syn..ty..TypeBareFn$GT$17h5f3260f854352573E', symObjAddr: 0x48F0, symBinAddr: 0x117950, symSize: 0x240 }
  - { offsetInCU: 0x14FBB, offset: 0x5FA745, size: 0x8, addend: 0x0, symName: '__ZN4core3ptr41drop_in_place$LT$syn..expr..ExprConst$GT$17hbfe19d5d621e6836E', symObjAddr: 0x4B30, symBinAddr: 0x117B90, symSize: 0x180 }
  - { offsetInCU: 0x155A8, offset: 0x5FAD32, size: 0x8, addend: 0x0, symName: '__ZN4core3ptr44drop_in_place$LT$syn..lifetime..Lifetime$GT$17he37fa474f03de7b1E', symObjAddr: 0x4CB0, symBinAddr: 0x117D10, symSize: 0x30 }
  - { offsetInCU: 0x15720, offset: 0x5FAEAA, size: 0x8, addend: 0x0, symName: '__ZN4core3ptr44drop_in_place$LT$syn..parse..ParseBuffer$GT$17hf792ff20095efc35E', symObjAddr: 0x4CE0, symBinAddr: 0x117D40, symSize: 0x70 }
  - { offsetInCU: 0x15B37, offset: 0x5FB2C1, size: 0x8, addend: 0x0, symName: '__ZN4core3ptr45drop_in_place$LT$proc_macro2..TokenStream$GT$17h76e8e68015f4924dE', symObjAddr: 0x4D50, symBinAddr: 0x117DB0, symSize: 0x140 }
  - { offsetInCU: 0x15FD1, offset: 0x5FB75B, size: 0x8, addend: 0x0, symName: '__ZN4core3ptr45drop_in_place$LT$syn..generics..TypeParam$GT$17h188a459c1380ac75E', symObjAddr: 0x4E90, symBinAddr: 0x117EF0, symSize: 0x230 }
  - { offsetInCU: 0x16846, offset: 0x5FBFD0, size: 0x8, addend: 0x0, symName: '__ZN4core3ptr45drop_in_place$LT$syn..path..PathArguments$GT$17hdbc6dfac6f3334e6E', symObjAddr: 0x50C0, symBinAddr: 0x118120, symSize: 0x190 }
  - { offsetInCU: 0x16D16, offset: 0x5FC4A0, size: 0x8, addend: 0x0, symName: '__ZN4core3ptr46drop_in_place$LT$syn..generics..ConstParam$GT$17h7a9b900b2b88bfcdE', symObjAddr: 0x5250, symBinAddr: 0x1182B0, symSize: 0x150 }
  - { offsetInCU: 0x17197, offset: 0x5FC921, size: 0x8, addend: 0x0, symName: '__ZN4core3ptr47drop_in_place$LT$syn..path..GenericArgument$GT$17h593f06d6ca9a94d2E', symObjAddr: 0x53A0, symBinAddr: 0x118400, symSize: 0x4A0 }
  - { offsetInCU: 0x1829D, offset: 0x5FDA27, size: 0x8, addend: 0x0, symName: '__ZN4core3ptr49drop_in_place$LT$syn..generics..LifetimeParam$GT$17h3a8835ab294bfd16E', symObjAddr: 0x5840, symBinAddr: 0x1188A0, symSize: 0xF0 }
  - { offsetInCU: 0x186B4, offset: 0x5FDE3E, size: 0x8, addend: 0x0, symName: '__ZN4core3ptr50drop_in_place$LT$syn..generics..TypeParamBound$GT$17h81b4325b5900604dE', symObjAddr: 0x5930, symBinAddr: 0x118990, symSize: 0xA0 }
  - { offsetInCU: 0x1881A, offset: 0x5FDFA4, size: 0x8, addend: 0x0, symName: '__ZN4core3ptr58drop_in_place$LT$alloc..vec..Vec$LT$syn..expr..Arm$GT$$GT$17hff9224aadf2233b8E', symObjAddr: 0x59D0, symBinAddr: 0x118A30, symSize: 0xD0 }
  - { offsetInCU: 0x18ADA, offset: 0x5FE264, size: 0x8, addend: 0x0, symName: '__ZN4core3ptr59drop_in_place$LT$alloc..boxed..Box$LT$syn..pat..Pat$GT$$GT$17h622b0c1db21c0742E', symObjAddr: 0x5AA0, symBinAddr: 0x118B00, symSize: 0x50 }
  - { offsetInCU: 0x18C33, offset: 0x5FE3BD, size: 0x8, addend: 0x0, symName: '__ZN4core3ptr59drop_in_place$LT$alloc..boxed..Box$LT$syn..ty..Type$GT$$GT$17hde45fa887dd8b605E', symObjAddr: 0x5AF0, symBinAddr: 0x118B50, symSize: 0x50 }
  - { offsetInCU: 0x18D8C, offset: 0x5FE516, size: 0x8, addend: 0x0, symName: '__ZN4core3ptr61drop_in_place$LT$alloc..boxed..Box$LT$syn..expr..Expr$GT$$GT$17hbb42293869113942E', symObjAddr: 0x5B40, symBinAddr: 0x118BA0, symSize: 0x50 }
  - { offsetInCU: 0x18F61, offset: 0x5FE6EB, size: 0x8, addend: 0x0, symName: '__ZN4core3ptr61drop_in_place$LT$syn..path..ParenthesizedGenericArguments$GT$17h6b1731382637937fE', symObjAddr: 0x5B90, symBinAddr: 0x118BF0, symSize: 0x170 }
  - { offsetInCU: 0x19557, offset: 0x5FECE1, size: 0x8, addend: 0x0, symName: '__ZN4core3ptr62drop_in_place$LT$syn..path..AngleBracketedGenericArguments$GT$17hf8fa172f007a1473E', symObjAddr: 0x5D00, symBinAddr: 0x118D60, symSize: 0x120 }
  - { offsetInCU: 0x199A2, offset: 0x5FF12C, size: 0x8, addend: 0x0, symName: '__ZN4core3ptr63drop_in_place$LT$alloc..boxed..Box$LT$syn..lit..LitRepr$GT$$GT$17h6e3a82ea4de7b84cE', symObjAddr: 0x5E20, symBinAddr: 0x118E80, symSize: 0x60 }
  - { offsetInCU: 0x19CA9, offset: 0x5FF433, size: 0x8, addend: 0x0, symName: '__ZN4core3ptr64drop_in_place$LT$alloc..boxed..Box$LT$syn..pat..FieldPat$GT$$GT$17hbf8f4867d84bd25dE', symObjAddr: 0x5E80, symBinAddr: 0x118EE0, symSize: 0x140 }
  - { offsetInCU: 0x1A36C, offset: 0x5FFAF6, size: 0x8, addend: 0x0, symName: '__ZN4core3ptr64drop_in_place$LT$alloc..boxed..Box$LT$syn..ty..BareFnArg$GT$$GT$17h6be6354eb1d1364dE', symObjAddr: 0x5FC0, symBinAddr: 0x119020, symSize: 0x140 }
  - { offsetInCU: 0x1A8E2, offset: 0x60006C, size: 0x8, addend: 0x0, symName: '__ZN4core3ptr64drop_in_place$LT$alloc..vec..Vec$LT$syn..attr..Attribute$GT$$GT$17he33e25539d5885aeE', symObjAddr: 0x6100, symBinAddr: 0x119160, symSize: 0xD0 }
  - { offsetInCU: 0x1ABD6, offset: 0x600360, size: 0x8, addend: 0x0, symName: '__ZN4core3ptr65drop_in_place$LT$alloc..vec..Vec$LT$proc_macro..TokenTree$GT$$GT$17h8abd81f8596dbc59E', symObjAddr: 0x61D0, symBinAddr: 0x119230, symSize: 0x110 }
  - { offsetInCU: 0x1AFCE, offset: 0x600758, size: 0x8, addend: 0x0, symName: '__ZN4core3ptr65drop_in_place$LT$core..option..Option$LT$syn..expr..Label$GT$$GT$17hac599686b33ef364E', symObjAddr: 0x62E0, symBinAddr: 0x119340, symSize: 0x30 }
  - { offsetInCU: 0x1B108, offset: 0x600892, size: 0x8, addend: 0x0, symName: '__ZN4core3ptr65drop_in_place$LT$core..option..Option$LT$syn..path..QSelf$GT$$GT$17h0b8dd5cda5f2cd6bE', symObjAddr: 0x6310, symBinAddr: 0x119370, symSize: 0x50 }
  - { offsetInCU: 0x1B289, offset: 0x600A13, size: 0x8, addend: 0x0, symName: '__ZN4core3ptr66drop_in_place$LT$core..option..Option$LT$syn..pat..PatRest$GT$$GT$17hd5bb3bc28aa78ac1E', symObjAddr: 0x6360, symBinAddr: 0x1193C0, symSize: 0xE0 }
  - { offsetInCU: 0x1B5B1, offset: 0x600D3B, size: 0x8, addend: 0x0, symName: '__ZN4core3ptr67drop_in_place$LT$alloc..boxed..Box$LT$syn..expr..FieldValue$GT$$GT$17hbbcf67a9d5e9863cE', symObjAddr: 0x6440, symBinAddr: 0x1194A0, symSize: 0x140 }
  - { offsetInCU: 0x1BB1A, offset: 0x6012A4, size: 0x8, addend: 0x0, symName: '__ZN4core3ptr68drop_in_place$LT$alloc..boxed..Box$LT$syn..path..PathSegment$GT$$GT$17h99aaf90b3262bc1eE', symObjAddr: 0x6580, symBinAddr: 0x1195E0, symSize: 0x1B0 }
  - { offsetInCU: 0x1C228, offset: 0x6019B2, size: 0x8, addend: 0x0, symName: '__ZN4core3ptr70drop_in_place$LT$core..option..Option$LT$syn..ty..BareVariadic$GT$$GT$17h79a19250e9f043b1E', symObjAddr: 0x6730, symBinAddr: 0x119790, symSize: 0x100 }
  - { offsetInCU: 0x1C693, offset: 0x601E1D, size: 0x8, addend: 0x0, symName: '__ZN4core3ptr72drop_in_place$LT$alloc..boxed..Box$LT$syn..path..GenericArgument$GT$$GT$17hfd308d374af4273dE', symObjAddr: 0x6830, symBinAddr: 0x119890, symSize: 0x2B0 }
  - { offsetInCU: 0x1D04B, offset: 0x6027D5, size: 0x8, addend: 0x0, symName: '__ZN4core3ptr72drop_in_place$LT$core..option..Option$LT$syn..lifetime..Lifetime$GT$$GT$17h49cce6f02f9c0590E', symObjAddr: 0x6AE0, symBinAddr: 0x119B40, symSize: 0x30 }
  - { offsetInCU: 0x1D166, offset: 0x6028F0, size: 0x8, addend: 0x0, symName: '__ZN4core3ptr73drop_in_place$LT$alloc..boxed..Box$LT$syn..generics..GenericParam$GT$$GT$17ha26d5d145af4b203E', symObjAddr: 0x6B10, symBinAddr: 0x119B70, symSize: 0x80 }
  - { offsetInCU: 0x1D2DC, offset: 0x602A66, size: 0x8, addend: 0x0, symName: '__ZN4core3ptr75drop_in_place$LT$alloc..boxed..Box$LT$syn..generics..TypeParamBound$GT$$GT$17h129a4e927e5eb81bE', symObjAddr: 0x6B90, symBinAddr: 0x119BF0, symSize: 0x1B0 }
  - { offsetInCU: 0x1D9DB, offset: 0x603165, size: 0x8, addend: 0x0, symName: '__ZN4core3ptr86drop_in_place$LT$syn..punctuated..Punctuated$LT$syn..pat..Pat$C$syn..token..Or$GT$$GT$17h9cc6b5f7b6d3a555E', symObjAddr: 0x6D40, symBinAddr: 0x119DA0, symSize: 0x120 }
  - { offsetInCU: 0x1DE56, offset: 0x6035E0, size: 0x8, addend: 0x0, symName: '__ZN4core3ptr87drop_in_place$LT$core..option..Option$LT$alloc..boxed..Box$LT$syn..pat..Pat$GT$$GT$$GT$17h51cd48973d96c411E', symObjAddr: 0x6E60, symBinAddr: 0x119EC0, symSize: 0x50 }
  - { offsetInCU: 0x1DFC6, offset: 0x603750, size: 0x8, addend: 0x0, symName: '__ZN4core3ptr87drop_in_place$LT$core..option..Option$LT$alloc..boxed..Box$LT$syn..ty..Type$GT$$GT$$GT$17h103a25a4a7d7374eE', symObjAddr: 0x6EB0, symBinAddr: 0x119F10, symSize: 0x50 }
  - { offsetInCU: 0x1E136, offset: 0x6038C0, size: 0x8, addend: 0x0, symName: '__ZN4core3ptr89drop_in_place$LT$core..option..Option$LT$alloc..boxed..Box$LT$syn..expr..Expr$GT$$GT$$GT$17h9e02509cb2345d44E', symObjAddr: 0x6F00, symBinAddr: 0x119F60, symSize: 0x50 }
  - { offsetInCU: 0x1E2E4, offset: 0x603A6E, size: 0x8, addend: 0x0, symName: '__ZN4core3ptr89drop_in_place$LT$syn..punctuated..Punctuated$LT$syn..pat..Pat$C$syn..token..Comma$GT$$GT$17hd3a83c36827f210aE', symObjAddr: 0x6F50, symBinAddr: 0x119FB0, symSize: 0x120 }
  - { offsetInCU: 0x1E776, offset: 0x603F00, size: 0x8, addend: 0x0, symName: '__ZN4core3ptr89drop_in_place$LT$syn..punctuated..Punctuated$LT$syn..ty..Type$C$syn..token..Comma$GT$$GT$17he030c4b7f24a5848E', symObjAddr: 0x7070, symBinAddr: 0x11A0D0, symSize: 0x120 }
  - { offsetInCU: 0x1EBF1, offset: 0x60437B, size: 0x8, addend: 0x0, symName: '__ZN4core3ptr90drop_in_place$LT$core..option..Option$LT$syn..path..AngleBracketedGenericArguments$GT$$GT$17ha307713a95a0671eE', symObjAddr: 0x7190, symBinAddr: 0x11A1F0, symSize: 0x130 }
  - { offsetInCU: 0x1F093, offset: 0x60481D, size: 0x8, addend: 0x0, symName: '__ZN4core3ptr91drop_in_place$LT$syn..punctuated..Punctuated$LT$syn..expr..Expr$C$syn..token..Comma$GT$$GT$17h6f261e8f470c81f2E', symObjAddr: 0x72C0, symBinAddr: 0x11A320, symSize: 0x120 }
  - { offsetInCU: 0x1F521, offset: 0x604CAB, size: 0x8, addend: 0x0, symName: '__ZN4core3ptr92drop_in_place$LT$core..option..Option$LT$alloc..boxed..Box$LT$syn..ty..BareFnArg$GT$$GT$$GT$17h4cd94c9c19d1a032E', symObjAddr: 0x73E0, symBinAddr: 0x11A440, symSize: 0x50 }
  - { offsetInCU: 0x1F691, offset: 0x604E1B, size: 0x8, addend: 0x0, symName: '__ZN4core3ptr94drop_in_place$LT$syn..punctuated..Punctuated$LT$syn..pat..FieldPat$C$syn..token..Comma$GT$$GT$17h43ec25af986ef674E', symObjAddr: 0x7430, symBinAddr: 0x11A490, symSize: 0xF0 }
  - { offsetInCU: 0x1F990, offset: 0x60511A, size: 0x8, addend: 0x0, symName: '__ZN4core3ptr94drop_in_place$LT$syn..punctuated..Punctuated$LT$syn..ty..BareFnArg$C$syn..token..Comma$GT$$GT$17h7ba4c699ee390ebaE', symObjAddr: 0x7520, symBinAddr: 0x11A580, symSize: 0xF0 }
  - { offsetInCU: 0x1FC91, offset: 0x60541B, size: 0x8, addend: 0x0, symName: '__ZN4core3ptr96drop_in_place$LT$core..option..Option$LT$alloc..boxed..Box$LT$syn..path..PathSegment$GT$$GT$$GT$17h5de12a5a0f9e9ef9E', symObjAddr: 0x7610, symBinAddr: 0x11A670, symSize: 0xA0 }
  - { offsetInCU: 0x1FF10, offset: 0x60569A, size: 0x8, addend: 0x0, symName: '__ZN4core3ptr97drop_in_place$LT$syn..punctuated..Punctuated$LT$syn..expr..FieldValue$C$syn..token..Comma$GT$$GT$17hf58d0a9a09266ab3E', symObjAddr: 0x76B0, symBinAddr: 0x11A710, symSize: 0xF0 }
  - { offsetInCU: 0x2020D, offset: 0x605997, size: 0x8, addend: 0x0, symName: '__ZN4core3ptr98drop_in_place$LT$alloc..vec..Vec$LT$$LP$syn..path..GenericArgument$C$syn..token..Comma$RP$$GT$$GT$17h0dee282a026d5a38E', symObjAddr: 0x77A0, symBinAddr: 0x11A800, symSize: 0xD0 }
  - { offsetInCU: 0x2054D, offset: 0x605CD7, size: 0x8, addend: 0x0, symName: '__ZN4core3ptr98drop_in_place$LT$syn..punctuated..Punctuated$LT$syn..lifetime..Lifetime$C$syn..token..Plus$GT$$GT$17h600c2b78f78fd2b9E', symObjAddr: 0x7870, symBinAddr: 0x11A8D0, symSize: 0xD0 }
  - { offsetInCU: 0x256A6, offset: 0x60AE30, size: 0x8, addend: 0x0, symName: __ZN3syn2ty7parsing8ambig_ty17hc9e14757ece56b97E, symObjAddr: 0x7980, symBinAddr: 0x11A9E0, symSize: 0x3F30 }
  - { offsetInCU: 0x2F5DD, offset: 0x614D67, size: 0x8, addend: 0x0, symName: __ZN3syn2ty7parsing17parse_bare_fn_arg17hca0453b7e81f84abE, symObjAddr: 0xB8B0, symBinAddr: 0x11E910, symSize: 0xCA0 }
  - { offsetInCU: 0x31861, offset: 0x616FEB, size: 0x8, addend: 0x0, symName: __ZN3syn2ty7parsing19parse_bare_variadic17h39c18671415c91ecE, symObjAddr: 0xC550, symBinAddr: 0x11F5B0, symSize: 0x5E1 }
  - { offsetInCU: 0x370A9, offset: 0x61C833, size: 0x8, addend: 0x0, symName: __ZN5alloc5alloc15exchange_malloc17h9a87608d0224859dE, symObjAddr: 0x7940, symBinAddr: 0x11A9A0, symSize: 0x40 }
  - { offsetInCU: 0x1E, offset: 0x627481, size: 0x8, addend: 0x0, symName: __ZN4core3ops8function6FnOnce9call_once17h9b6e03ddcec114ceE, symObjAddr: 0x0, symBinAddr: 0x11FBA0, symSize: 0x140 }
  - { offsetInCU: 0x18FF, offset: 0x628D62, size: 0x8, addend: 0x0, symName: '__ZN4core3ptr100drop_in_place$LT$core..option..Option$LT$alloc..boxed..Box$LT$syn..path..GenericArgument$GT$$GT$$GT$17h3a7c44b9e57fe410E', symObjAddr: 0x140, symBinAddr: 0x11FCE0, symSize: 0x50 }
  - { offsetInCU: 0x1C9D, offset: 0x629100, size: 0x8, addend: 0x0, symName: '__ZN4core3ptr100drop_in_place$LT$syn..punctuated..Punctuated$LT$syn..path..PathSegment$C$syn..token..PathSep$GT$$GT$17he41ef64147139591E', symObjAddr: 0x190, symBinAddr: 0x11FD30, symSize: 0x2B0 }
  - { offsetInCU: 0x2734, offset: 0x629B97, size: 0x8, addend: 0x0, symName: '__ZN4core3ptr102drop_in_place$LT$syn..punctuated..Punctuated$LT$syn..path..GenericArgument$C$syn..token..Comma$GT$$GT$17h8b1978399cfff48bE', symObjAddr: 0x440, symBinAddr: 0x11FFE0, symSize: 0xF0 }
  - { offsetInCU: 0x2A54, offset: 0x629EB7, size: 0x8, addend: 0x0, symName: '__ZN4core3ptr103drop_in_place$LT$core..option..Option$LT$alloc..boxed..Box$LT$syn..generics..TypeParamBound$GT$$GT$$GT$17hb14e4384a768542bE', symObjAddr: 0x530, symBinAddr: 0x1200D0, symSize: 0x50 }
