---
triple:          'x86_64-apple-darwin'
binary-path:     "/Users/justinlanouette/Chaos/ChaöS-Token/hello_world/target/release/build/semver-d2d30d2425332de7/build_script_build-d2d30d2425332de7"
relocations:
  - { offsetInCU: 0x1E, offset: 0x1E, size: 0x8, addend: 0x0, symName: '__ZN4core3ptr41drop_in_place$LT$std..process..Output$GT$17hbb5a08388b05e753E', symObjAddr: 0x0, symBinAddr: 0x100001820, symSize: 0x50 }
  - { offsetInCU: 0xA6E, offset: 0xA6E, size: 0x8, addend: 0x0, symName: '__ZN4core3ptr41drop_in_place$LT$std..process..Output$GT$17hbb5a08388b05e753E', symObjAddr: 0x0, symBinAddr: 0x100001820, symSize: 0x50 }
  - { offsetInCU: 0x10E3, offset: 0x10E3, size: 0x8, addend: 0x0, symName: '__ZN4core3ptr42drop_in_place$LT$std..process..Command$GT$17h6e7d3e8f6f507029E', symObjAddr: 0x50, symBinAddr: 0x100001870, symSize: 0x250 }
  - { offsetInCU: 0x3E6B, offset: 0x3E6B, size: 0x8, addend: 0x0, symName: '__ZN4core3str4iter22SplitInternal$LT$P$GT$4next17h991b622e385b949dE', symObjAddr: 0x2A0, symBinAddr: 0x100001AC0, symSize: 0x220 }
  - { offsetInCU: 0x4533, offset: 0x4533, size: 0x8, addend: 0x0, symName: __ZN18build_script_build4main17hef2e5a1ba3832795E, symObjAddr: 0x4C0, symBinAddr: 0x100001CE0, symSize: 0x8A0 }
  - { offsetInCU: 0x482, offset: 0x6482, size: 0x8, addend: 0x0, symName: '__ZN70_$LT$alloc..vec..Vec$LT$T$C$A$GT$$u20$as$u20$core..ops..drop..Drop$GT$4drop17h78b7631cff4fd37bE', symObjAddr: 0x10, symBinAddr: 0x1000025A0, symSize: 0xF0 }
  - { offsetInCU: 0x1E, offset: 0x6B38, size: 0x8, addend: 0x0, symName: '__ZN99_$LT$alloc..collections..btree..map..BTreeMap$LT$K$C$V$C$A$GT$$u20$as$u20$core..ops..drop..Drop$GT$4drop17h839400aa3d378b1aE', symObjAddr: 0x0, symBinAddr: 0x100002690, symSize: 0x3A8 }
  - { offsetInCU: 0xA24, offset: 0x753E, size: 0x8, addend: 0x0, symName: '__ZN99_$LT$alloc..collections..btree..map..BTreeMap$LT$K$C$V$C$A$GT$$u20$as$u20$core..ops..drop..Drop$GT$4drop17h839400aa3d378b1aE', symObjAddr: 0x0, symBinAddr: 0x100002690, symSize: 0x3A8 }
  - { offsetInCU: 0x1E, offset: 0x979E, size: 0x8, addend: 0x0, symName: __ZN3std2rt10lang_start17h04838faac6493175E, symObjAddr: 0x0, symBinAddr: 0x100002A40, symSize: 0x30 }
  - { offsetInCU: 0x5B, offset: 0x97DB, size: 0x8, addend: 0x0, symName: '__ZN3std2rt10lang_start28_$u7b$$u7b$closure$u7d$$u7d$17h76dc14b7e1f1a404E', symObjAddr: 0x30, symBinAddr: 0x100002A70, symSize: 0x10 }
  - { offsetInCU: 0x9F, offset: 0x981F, size: 0x8, addend: 0x0, symName: __ZN3std2rt10lang_start17h04838faac6493175E, symObjAddr: 0x0, symBinAddr: 0x100002A40, symSize: 0x30 }
  - { offsetInCU: 0x15E, offset: 0x98DE, size: 0x8, addend: 0x0, symName: '__ZN4core3ops8function6FnOnce40call_once$u7b$$u7b$vtable.shim$u7d$$u7d$17h480edf909eb4cd2aE', symObjAddr: 0x40, symBinAddr: 0x100002A80, symSize: 0x10 }
  - { offsetInCU: 0x1D8, offset: 0x9958, size: 0x8, addend: 0x0, symName: '__ZN4core3ptr85drop_in_place$LT$std..rt..lang_start$LT$$LP$$RP$$GT$..$u7b$$u7b$closure$u7d$$u7d$$GT$17h2012fa4f5caaa4cbE', symObjAddr: 0x50, symBinAddr: 0x100002A90, symSize: 0x6 }
  - { offsetInCU: 0x1E, offset: 0x99D9, size: 0x8, addend: 0x0, symName: __ZN3std10sys_common9backtrace28__rust_begin_short_backtrace17h67e8b8d768993a07E, symObjAddr: 0x0, symBinAddr: 0x100002AA0, symSize: 0x8 }
  - { offsetInCU: 0xBF, offset: 0x9A7A, size: 0x8, addend: 0x0, symName: __ZN3std10sys_common9backtrace28__rust_begin_short_backtrace17h67e8b8d768993a07E, symObjAddr: 0x0, symBinAddr: 0x100002AA0, symSize: 0x8 }
...
