---
triple:          'x86_64-apple-darwin'
binary-path:     "/Users/justinlanouette/Chaos/ChaöS-Token/hello_world/target/release/deps/libzeroize_derive-e22db5a15968fd5d.dylib"
relocations:
  - { offsetInCU: 0x1E, offset: 0x1E, size: 0x8, addend: 0x0, symName: '__ZN100_$LT$syn..punctuated..PrivateIter$LT$T$C$P$GT$$u20$as$u20$core..iter..traits..iterator..Iterator$GT$4next17h2a872df15b31074aE.llvm.5842168757042145188', symObjAddr: 0x0, symBinAddr: 0x43F0, symSize: 0x30 }
  - { offsetInCU: 0x8A6, offset: 0x8A6, size: 0x8, addend: 0x0, symName: '__ZN100_$LT$syn..punctuated..PrivateIter$LT$T$C$P$GT$$u20$as$u20$core..iter..traits..iterator..Iterator$GT$4next17h2a872df15b31074aE.llvm.5842168757042145188', symObjAddr: 0x0, symBinAddr: 0x43F0, symSize: 0x30 }
  - { offsetInCU: 0xB33, offset: 0xB33, size: 0x8, addend: 0x0, symName: '__ZN100_$LT$syn..punctuated..PrivateIter$LT$T$C$P$GT$$u20$as$u20$core..iter..traits..iterator..Iterator$GT$4next17h7baaca50b53b9277E.llvm.5842168757042145188', symObjAddr: 0x30, symBinAddr: 0x4420, symSize: 0x30 }
  - { offsetInCU: 0x1000, offset: 0x1000, size: 0x8, addend: 0x0, symName: '__ZN102_$LT$syn..punctuated..Punctuated$LT$T$C$P$GT$$u20$as$u20$core..iter..traits..collect..IntoIterator$GT$9into_iter17h46e4e14aeb55443eE', symObjAddr: 0x60, symBinAddr: 0x4450, symSize: 0x2D0 }
  - { offsetInCU: 0x1D8D, offset: 0x1D8D, size: 0x8, addend: 0x0, symName: '__ZN105_$LT$syn..punctuated..Punctuated$LT$T$C$P$GT$$u20$as$u20$core..iter..traits..collect..Extend$LT$T$GT$$GT$6extend17h775bceb12be226d1E', symObjAddr: 0x330, symBinAddr: 0x4720, symSize: 0x3D0 }
  - { offsetInCU: 0x2D3A, offset: 0x2D3A, size: 0x8, addend: 0x0, symName: '__ZN111_$LT$syn..punctuated..PrivateIter$LT$T$C$P$GT$$u20$as$u20$core..iter..traits..exact_size..ExactSizeIterator$GT$3len17h4f582fede195d438E.llvm.5842168757042145188', symObjAddr: 0x700, symBinAddr: 0x4AF0, symSize: 0x30 }
  - { offsetInCU: 0x2E3B, offset: 0x2E3B, size: 0x8, addend: 0x0, symName: '__ZN111_$LT$syn..punctuated..Punctuated$LT$T$C$P$GT$$u20$as$u20$core..iter..traits..collect..FromIterator$LT$T$GT$$GT$9from_iter17h371b0ff14af662deE', symObjAddr: 0x760, symBinAddr: 0x4B20, symSize: 0x130 }
  - { offsetInCU: 0x30A8, offset: 0x30A8, size: 0x8, addend: 0x0, symName: '__ZN115_$LT$syn..punctuated..PrivateIter$LT$T$C$P$GT$$u20$as$u20$core..iter..traits..double_ended..DoubleEndedIterator$GT$9next_back17h53ad85c359c3ab53E.llvm.5842168757042145188', symObjAddr: 0x8C0, symBinAddr: 0x4C50, symSize: 0x30 }
  - { offsetInCU: 0x36E7, offset: 0x36E7, size: 0x8, addend: 0x0, symName: '__ZN57_$LT$I$u20$as$u20$syn..punctuated..IterTrait$LT$T$GT$$GT$9clone_box17ha5539a5168ec8846E.llvm.5842168757042145188', symObjAddr: 0x9210, symBinAddr: 0xCF20, symSize: 0x60 }
  - { offsetInCU: 0x8A1B, offset: 0x8A1B, size: 0x8, addend: 0x0, symName: '__ZN40_$LT$F$u20$as$u20$syn..parse..Parser$GT$14__parse_scoped17h9e17cf90a92cac0dE', symObjAddr: 0x10B0, symBinAddr: 0x5050, symSize: 0x790 }
  - { offsetInCU: 0xC48E, offset: 0xC48E, size: 0x8, addend: 0x0, symName: '__ZN4core3ptr100drop_in_place$LT$core..option..Option$LT$alloc..boxed..Box$LT$syn..path..GenericArgument$GT$$GT$$GT$17hf167a5affd471861E', symObjAddr: 0x1840, symBinAddr: 0x57E0, symSize: 0x50 }
  - { offsetInCU: 0xC61D, offset: 0xC61D, size: 0x8, addend: 0x0, symName: '__ZN4core3ptr101drop_in_place$LT$alloc..vec..Vec$LT$$LP$syn..generics..WherePredicate$C$syn..token..Comma$RP$$GT$$GT$17h9cafe082ef7be592E', symObjAddr: 0x1890, symBinAddr: 0x5830, symSize: 0xD0 }
  - { offsetInCU: 0xC972, offset: 0xC972, size: 0x8, addend: 0x0, symName: '__ZN4core3ptr102drop_in_place$LT$syn..punctuated..Punctuated$LT$syn..path..GenericArgument$C$syn..token..Comma$GT$$GT$17h1b861efef910f67cE', symObjAddr: 0x1960, symBinAddr: 0x5900, symSize: 0xF0 }
  - { offsetInCU: 0xCC92, offset: 0xCC92, size: 0x8, addend: 0x0, symName: '__ZN4core3ptr103drop_in_place$LT$core..option..Option$LT$alloc..boxed..Box$LT$syn..generics..TypeParamBound$GT$$GT$$GT$17h9dea5ae092e08b20E', symObjAddr: 0x1A50, symBinAddr: 0x59F0, symSize: 0x50 }
  - { offsetInCU: 0xCE21, offset: 0xCE21, size: 0x8, addend: 0x0, symName: '__ZN4core3ptr103drop_in_place$LT$core..option..Option$LT$alloc..boxed..Box$LT$syn..generics..WherePredicate$GT$$GT$$GT$17hd6ba4467447c42cdE.llvm.5842168757042145188', symObjAddr: 0x1AA0, symBinAddr: 0x5A40, symSize: 0x50 }
  - { offsetInCU: 0xD01F, offset: 0xD01F, size: 0x8, addend: 0x0, symName: '__ZN4core3ptr103drop_in_place$LT$syn..punctuated..Punctuated$LT$syn..generics..GenericParam$C$syn..token..Comma$GT$$GT$17h658bde4a9636b124E.llvm.5842168757042145188', symObjAddr: 0x1AF0, symBinAddr: 0x5A90, symSize: 0xF0 }
  - { offsetInCU: 0xD5F3, offset: 0xD5F3, size: 0x8, addend: 0x0, symName: '__ZN4core3ptr104drop_in_place$LT$syn..punctuated..Punctuated$LT$syn..generics..TypeParamBound$C$syn..token..Plus$GT$$GT$17ha3f51cd584941d71E.llvm.5842168757042145188', symObjAddr: 0x1BE0, symBinAddr: 0x5B80, symSize: 0x240 }
  - { offsetInCU: 0xDEAE, offset: 0xDEAE, size: 0x8, addend: 0x0, symName: '__ZN4core3ptr105drop_in_place$LT$syn..punctuated..Punctuated$LT$syn..generics..WherePredicate$C$syn..token..Comma$GT$$GT$17he55656539e77b271E.llvm.5842168757042145188', symObjAddr: 0x1E20, symBinAddr: 0x5DC0, symSize: 0x120 }
  - { offsetInCU: 0xE3DA, offset: 0xE3DA, size: 0x8, addend: 0x0, symName: '__ZN4core3ptr34drop_in_place$LT$syn..lit..Lit$GT$17h0434771519353a93E', symObjAddr: 0x1F40, symBinAddr: 0x5EE0, symSize: 0x120 }
  - { offsetInCU: 0xE8C8, offset: 0xE8C8, size: 0x8, addend: 0x0, symName: '__ZN4core3ptr34drop_in_place$LT$syn..pat..Pat$GT$17h23cd663dffbc1ca7E', symObjAddr: 0x2060, symBinAddr: 0x6000, symSize: 0xF40 }
  - { offsetInCU: 0x1238E, offset: 0x1238E, size: 0x8, addend: 0x0, symName: '__ZN4core3ptr34drop_in_place$LT$syn..ty..Type$GT$17h909bc58921451c92E.llvm.5842168757042145188', symObjAddr: 0x2FA0, symBinAddr: 0x6F40, symSize: 0x580 }
  - { offsetInCU: 0x13685, offset: 0x13685, size: 0x8, addend: 0x0, symName: '__ZN4core3ptr36drop_in_place$LT$syn..attr..Meta$GT$17h5eb98af069a32022E.llvm.5842168757042145188', symObjAddr: 0x3520, symBinAddr: 0x74C0, symSize: 0xA0 }
  - { offsetInCU: 0x13CB1, offset: 0x13CB1, size: 0x8, addend: 0x0, symName: '__ZN4core3ptr36drop_in_place$LT$syn..expr..Expr$GT$17h594b288408c7049cE.llvm.5842168757042145188', symObjAddr: 0x35C0, symBinAddr: 0x7560, symSize: 0x2730 }
  - { offsetInCU: 0x1D111, offset: 0x1D111, size: 0x8, addend: 0x0, symName: '__ZN4core3ptr36drop_in_place$LT$syn..mac..Macro$GT$17h8834c68712008aa5E', symObjAddr: 0x5CF0, symBinAddr: 0x9C90, symSize: 0xE0 }
  - { offsetInCU: 0x1D49B, offset: 0x1D49B, size: 0x8, addend: 0x0, symName: '__ZN4core3ptr36drop_in_place$LT$syn..path..Path$GT$17ha7adc31831378d42E.llvm.5842168757042145188', symObjAddr: 0x5DD0, symBinAddr: 0x9D70, symSize: 0x240 }
  - { offsetInCU: 0x1DE35, offset: 0x1DE35, size: 0x8, addend: 0x0, symName: '__ZN4core3ptr37drop_in_place$LT$syn..stmt..Block$GT$17h53c13e8fb8186919E', symObjAddr: 0x6010, symBinAddr: 0x9FB0, symSize: 0xD0 }
  - { offsetInCU: 0x1E10C, offset: 0x1E10C, size: 0x8, addend: 0x0, symName: '__ZN4core3ptr38drop_in_place$LT$syn..expr..Member$GT$17h72e5bb4cd394e37dE', symObjAddr: 0x60E0, symBinAddr: 0xA080, symSize: 0x30 }
  - { offsetInCU: 0x1E208, offset: 0x1E208, size: 0x8, addend: 0x0, symName: '__ZN4core3ptr39drop_in_place$LT$proc_macro2..Ident$GT$17h5478e913d990d07bE', symObjAddr: 0x6110, symBinAddr: 0xA0B0, symSize: 0x30 }
  - { offsetInCU: 0x1E41B, offset: 0x1E41B, size: 0x8, addend: 0x0, symName: '__ZN4core3ptr39drop_in_place$LT$syn..buffer..Entry$GT$17hf44f0a6a23dcf947E', symObjAddr: 0x6140, symBinAddr: 0xA0E0, symSize: 0xB0 }
  - { offsetInCU: 0x1E7A6, offset: 0x1E7A6, size: 0x8, addend: 0x0, symName: '__ZN4core3ptr40drop_in_place$LT$syn..ty..ReturnType$GT$17h9812afc0e63dd5ffE', symObjAddr: 0x61F0, symBinAddr: 0xA190, symSize: 0x50 }
  - { offsetInCU: 0x1E916, offset: 0x1E916, size: 0x8, addend: 0x0, symName: '__ZN4core3ptr41drop_in_place$LT$syn..expr..ExprConst$GT$17h12ef3b77a42cb54cE', symObjAddr: 0x6240, symBinAddr: 0xA1E0, symSize: 0x180 }
  - { offsetInCU: 0x1EECF, offset: 0x1EECF, size: 0x8, addend: 0x0, symName: '__ZN4core3ptr44drop_in_place$LT$syn..lifetime..Lifetime$GT$17h93bd87bb57a48243E', symObjAddr: 0x63C0, symBinAddr: 0xA360, symSize: 0x30 }
  - { offsetInCU: 0x1EFCB, offset: 0x1EFCB, size: 0x8, addend: 0x0, symName: '__ZN4core3ptr44drop_in_place$LT$syn..parse..ParseBuffer$GT$17h73a2846d427910eeE', symObjAddr: 0x63F0, symBinAddr: 0xA390, symSize: 0x70 }
  - { offsetInCU: 0x1F347, offset: 0x1F347, size: 0x8, addend: 0x0, symName: '__ZN4core3ptr45drop_in_place$LT$proc_macro2..TokenStream$GT$17h9ee0c9f276c276e4E.llvm.5842168757042145188', symObjAddr: 0x6460, symBinAddr: 0xA400, symSize: 0x140 }
  - { offsetInCU: 0x1F7A3, offset: 0x1F7A3, size: 0x8, addend: 0x0, symName: '__ZN4core3ptr45drop_in_place$LT$syn..buffer..TokenBuffer$GT$17he9da39ba11c96b28E', symObjAddr: 0x65A0, symBinAddr: 0xA540, symSize: 0xC0 }
  - { offsetInCU: 0x1FA0B, offset: 0x1FA0B, size: 0x8, addend: 0x0, symName: '__ZN4core3ptr45drop_in_place$LT$syn..generics..TypeParam$GT$17hdb94c232af087417E.llvm.5842168757042145188', symObjAddr: 0x6660, symBinAddr: 0xA600, symSize: 0x230 }
  - { offsetInCU: 0x2024C, offset: 0x2024C, size: 0x8, addend: 0x0, symName: '__ZN4core3ptr46drop_in_place$LT$syn..generics..ConstParam$GT$17h7d9dde693af058dcE.llvm.5842168757042145188', symObjAddr: 0x6890, symBinAddr: 0xA830, symSize: 0x150 }
  - { offsetInCU: 0x20699, offset: 0x20699, size: 0x8, addend: 0x0, symName: '__ZN4core3ptr47drop_in_place$LT$syn..path..GenericArgument$GT$17he376c5495bfba2aeE', symObjAddr: 0x69E0, symBinAddr: 0xA980, symSize: 0x450 }
  - { offsetInCU: 0x2140F, offset: 0x2140F, size: 0x8, addend: 0x0, symName: '__ZN4core3ptr49drop_in_place$LT$syn..generics..LifetimeParam$GT$17h96cd9c33a102590dE.llvm.5842168757042145188', symObjAddr: 0x6E30, symBinAddr: 0xADD0, symSize: 0xF0 }
  - { offsetInCU: 0x217F2, offset: 0x217F2, size: 0x8, addend: 0x0, symName: '__ZN4core3ptr50drop_in_place$LT$syn..generics..TypeParamBound$GT$17h6ae628d1347497b7E', symObjAddr: 0x6F20, symBinAddr: 0xAEC0, symSize: 0xA0 }
  - { offsetInCU: 0x21996, offset: 0x21996, size: 0x8, addend: 0x0, symName: '__ZN4core3ptr50drop_in_place$LT$syn..generics..WherePredicate$GT$17h0636ac574991fb76E.llvm.5842168757042145188', symObjAddr: 0x6FC0, symBinAddr: 0xAF60, symSize: 0xA0 }
  - { offsetInCU: 0x21B3A, offset: 0x21B3A, size: 0x8, addend: 0x0, symName: '__ZN4core3ptr58drop_in_place$LT$alloc..vec..Vec$LT$syn..expr..Arm$GT$$GT$17h4100114fe8e302a1E', symObjAddr: 0x7060, symBinAddr: 0xB000, symSize: 0xD0 }
  - { offsetInCU: 0x21DFA, offset: 0x21DFA, size: 0x8, addend: 0x0, symName: '__ZN4core3ptr59drop_in_place$LT$alloc..boxed..Box$LT$syn..pat..Pat$GT$$GT$17hd6381a96bf9e5421E', symObjAddr: 0x7130, symBinAddr: 0xB0D0, symSize: 0x50 }
  - { offsetInCU: 0x21F53, offset: 0x21F53, size: 0x8, addend: 0x0, symName: '__ZN4core3ptr59drop_in_place$LT$alloc..boxed..Box$LT$syn..ty..Type$GT$$GT$17hc3e166ebcc84a858E', symObjAddr: 0x7180, symBinAddr: 0xB120, symSize: 0x50 }
  - { offsetInCU: 0x220CB, offset: 0x220CB, size: 0x8, addend: 0x0, symName: '__ZN4core3ptr59drop_in_place$LT$alloc..vec..Vec$LT$syn..attr..Meta$GT$$GT$17hd1d4da78c1dc96baE.llvm.5842168757042145188', symObjAddr: 0x71D0, symBinAddr: 0xB170, symSize: 0xD0 }
  - { offsetInCU: 0x2239E, offset: 0x2239E, size: 0x8, addend: 0x0, symName: '__ZN4core3ptr61drop_in_place$LT$alloc..boxed..Box$LT$syn..expr..Expr$GT$$GT$17h8a3c09d087fc5969E', symObjAddr: 0x72A0, symBinAddr: 0xB240, symSize: 0x50 }
  - { offsetInCU: 0x224F7, offset: 0x224F7, size: 0x8, addend: 0x0, symName: '__ZN4core3ptr61drop_in_place$LT$syn..path..ParenthesizedGenericArguments$GT$17hd70bdf37aa6ff03cE', symObjAddr: 0x72F0, symBinAddr: 0xB290, symSize: 0x170 }
  - { offsetInCU: 0x22B00, offset: 0x22B00, size: 0x8, addend: 0x0, symName: '__ZN4core3ptr63drop_in_place$LT$alloc..boxed..Box$LT$syn..lit..LitRepr$GT$$GT$17h31cfdbd46b573c47E', symObjAddr: 0x7460, symBinAddr: 0xB400, symSize: 0x60 }
  - { offsetInCU: 0x22E07, offset: 0x22E07, size: 0x8, addend: 0x0, symName: '__ZN4core3ptr64drop_in_place$LT$alloc..boxed..Box$LT$syn..pat..FieldPat$GT$$GT$17h3365f38bda158625E', symObjAddr: 0x74C0, symBinAddr: 0xB460, symSize: 0x140 }
  - { offsetInCU: 0x234D4, offset: 0x234D4, size: 0x8, addend: 0x0, symName: '__ZN4core3ptr64drop_in_place$LT$alloc..boxed..Box$LT$syn..ty..BareFnArg$GT$$GT$17h6b76f3676f3d0a49E', symObjAddr: 0x7600, symBinAddr: 0xB5A0, symSize: 0x140 }
  - { offsetInCU: 0x23A29, offset: 0x23A29, size: 0x8, addend: 0x0, symName: '__ZN4core3ptr65drop_in_place$LT$alloc..vec..Vec$LT$proc_macro..TokenTree$GT$$GT$17h7cd89395d30d9dbfE.llvm.5842168757042145188', symObjAddr: 0x7740, symBinAddr: 0xB6E0, symSize: 0x110 }
  - { offsetInCU: 0x23E21, offset: 0x23E21, size: 0x8, addend: 0x0, symName: '__ZN4core3ptr65drop_in_place$LT$core..option..Option$LT$syn..expr..Label$GT$$GT$17h54063f51e70a6435E', symObjAddr: 0x7850, symBinAddr: 0xB7F0, symSize: 0x30 }
  - { offsetInCU: 0x23F5B, offset: 0x23F5B, size: 0x8, addend: 0x0, symName: '__ZN4core3ptr66drop_in_place$LT$core..option..Option$LT$syn..pat..PatRest$GT$$GT$17h1383712323ca615bE', symObjAddr: 0x7880, symBinAddr: 0xB820, symSize: 0xE0 }
  - { offsetInCU: 0x2424F, offset: 0x2424F, size: 0x8, addend: 0x0, symName: '__ZN4core3ptr67drop_in_place$LT$alloc..boxed..Box$LT$syn..expr..FieldValue$GT$$GT$17h985c67b90f2c7616E', symObjAddr: 0x7960, symBinAddr: 0xB900, symSize: 0x140 }
  - { offsetInCU: 0x247A3, offset: 0x247A3, size: 0x8, addend: 0x0, symName: '__ZN4core3ptr70drop_in_place$LT$core..option..Option$LT$syn..ty..BareVariadic$GT$$GT$17he81f389e5718409eE', symObjAddr: 0x7AA0, symBinAddr: 0xBA40, symSize: 0x100 }
  - { offsetInCU: 0x24BDA, offset: 0x24BDA, size: 0x8, addend: 0x0, symName: '__ZN4core3ptr72drop_in_place$LT$alloc..boxed..Box$LT$syn..path..GenericArgument$GT$$GT$17h1b9e463cda3248a8E', symObjAddr: 0x7BA0, symBinAddr: 0xBB40, symSize: 0x2B0 }
  - { offsetInCU: 0x255EB, offset: 0x255EB, size: 0x8, addend: 0x0, symName: '__ZN4core3ptr72drop_in_place$LT$core..option..Option$LT$syn..lifetime..Lifetime$GT$$GT$17hc12d7babbc118bbdE', symObjAddr: 0x7E50, symBinAddr: 0xBDF0, symSize: 0x30 }
  - { offsetInCU: 0x25706, offset: 0x25706, size: 0x8, addend: 0x0, symName: '__ZN4core3ptr73drop_in_place$LT$alloc..boxed..Box$LT$syn..generics..GenericParam$GT$$GT$17h3331d3ffd607b7a6E.llvm.5842168757042145188', symObjAddr: 0x7E80, symBinAddr: 0xBE20, symSize: 0x80 }
  - { offsetInCU: 0x2589B, offset: 0x2589B, size: 0x8, addend: 0x0, symName: '__ZN4core3ptr73drop_in_place$LT$alloc..vec..Vec$LT$syn..generics..WherePredicate$GT$$GT$17hd79be4feb6ffe462E', symObjAddr: 0x7F00, symBinAddr: 0xBEA0, symSize: 0xD0 }
  - { offsetInCU: 0x25B6E, offset: 0x25B6E, size: 0x8, addend: 0x0, symName: '__ZN4core3ptr75drop_in_place$LT$alloc..boxed..Box$LT$syn..generics..TypeParamBound$GT$$GT$17heae9d7d18d79ffc2E', symObjAddr: 0x7FD0, symBinAddr: 0xBF70, symSize: 0x180 }
  - { offsetInCU: 0x2615A, offset: 0x2615A, size: 0x8, addend: 0x0, symName: '__ZN4core3ptr86drop_in_place$LT$syn..punctuated..Punctuated$LT$syn..pat..Pat$C$syn..token..Or$GT$$GT$17h033a362705bb3bb5E', symObjAddr: 0x8150, symBinAddr: 0xC0F0, symSize: 0x120 }
  - { offsetInCU: 0x265F4, offset: 0x265F4, size: 0x8, addend: 0x0, symName: '__ZN4core3ptr87drop_in_place$LT$alloc..vec..Vec$LT$$LP$syn..attr..Meta$C$syn..token..Comma$RP$$GT$$GT$17h9fd857b640a39d64E.llvm.5842168757042145188', symObjAddr: 0x8270, symBinAddr: 0xC210, symSize: 0xD0 }
  - { offsetInCU: 0x268E8, offset: 0x268E8, size: 0x8, addend: 0x0, symName: '__ZN4core3ptr87drop_in_place$LT$core..option..Option$LT$alloc..boxed..Box$LT$syn..pat..Pat$GT$$GT$$GT$17h23c83b610267a13bE', symObjAddr: 0x8340, symBinAddr: 0xC2E0, symSize: 0x50 }
  - { offsetInCU: 0x26A58, offset: 0x26A58, size: 0x8, addend: 0x0, symName: '__ZN4core3ptr87drop_in_place$LT$core..option..Option$LT$alloc..boxed..Box$LT$syn..ty..Type$GT$$GT$$GT$17h9272f0759741e526E', symObjAddr: 0x8390, symBinAddr: 0xC330, symSize: 0x50 }
  - { offsetInCU: 0x26BE7, offset: 0x26BE7, size: 0x8, addend: 0x0, symName: '__ZN4core3ptr89drop_in_place$LT$core..option..Option$LT$alloc..boxed..Box$LT$syn..attr..Meta$GT$$GT$$GT$17h72c1b2b28cd14e8aE.llvm.5842168757042145188', symObjAddr: 0x83E0, symBinAddr: 0xC380, symSize: 0x50 }
  - { offsetInCU: 0x26D4A, offset: 0x26D4A, size: 0x8, addend: 0x0, symName: '__ZN4core3ptr89drop_in_place$LT$core..option..Option$LT$alloc..boxed..Box$LT$syn..expr..Expr$GT$$GT$$GT$17h1b402876673ee224E', symObjAddr: 0x8430, symBinAddr: 0xC3D0, symSize: 0x50 }
  - { offsetInCU: 0x26EF8, offset: 0x26EF8, size: 0x8, addend: 0x0, symName: '__ZN4core3ptr89drop_in_place$LT$syn..punctuated..Punctuated$LT$syn..pat..Pat$C$syn..token..Comma$GT$$GT$17h1a51e79614c23b8fE', symObjAddr: 0x8480, symBinAddr: 0xC420, symSize: 0x120 }
  - { offsetInCU: 0x273C8, offset: 0x273C8, size: 0x8, addend: 0x0, symName: '__ZN4core3ptr91drop_in_place$LT$syn..punctuated..Punctuated$LT$syn..attr..Meta$C$syn..token..Comma$GT$$GT$17h2291e841c5620170E', symObjAddr: 0x85A0, symBinAddr: 0xC540, symSize: 0x120 }
  - { offsetInCU: 0x27874, offset: 0x27874, size: 0x8, addend: 0x0, symName: '__ZN4core3ptr91drop_in_place$LT$syn..punctuated..Punctuated$LT$syn..expr..Expr$C$syn..token..Comma$GT$$GT$17h2089aa266eda8e71E', symObjAddr: 0x86C0, symBinAddr: 0xC660, symSize: 0x120 }
  - { offsetInCU: 0x27D02, offset: 0x27D02, size: 0x8, addend: 0x0, symName: '__ZN4core3ptr94drop_in_place$LT$syn..punctuated..Punctuated$LT$syn..pat..FieldPat$C$syn..token..Comma$GT$$GT$17hebbefb546a57efdfE', symObjAddr: 0x87E0, symBinAddr: 0xC780, symSize: 0xF0 }
  - { offsetInCU: 0x28001, offset: 0x28001, size: 0x8, addend: 0x0, symName: '__ZN4core3ptr94drop_in_place$LT$syn..punctuated..Punctuated$LT$syn..ty..BareFnArg$C$syn..token..Comma$GT$$GT$17h8a5a74831bf9b9a0E', symObjAddr: 0x88D0, symBinAddr: 0xC870, symSize: 0xF0 }
  - { offsetInCU: 0x28302, offset: 0x28302, size: 0x8, addend: 0x0, symName: '__ZN4core3ptr96drop_in_place$LT$core..option..Option$LT$alloc..boxed..Box$LT$syn..path..PathSegment$GT$$GT$$GT$17h34901984f508e5eeE', symObjAddr: 0x89C0, symBinAddr: 0xC960, symSize: 0x1A0 }
  - { offsetInCU: 0x289E2, offset: 0x289E2, size: 0x8, addend: 0x0, symName: '__ZN4core3ptr97drop_in_place$LT$syn..punctuated..Punctuated$LT$syn..expr..FieldValue$C$syn..token..Comma$GT$$GT$17h1114c1cefa0baa61E', symObjAddr: 0x8BB0, symBinAddr: 0xCB00, symSize: 0xF0 }
  - { offsetInCU: 0x28D3C, offset: 0x28D3C, size: 0x8, addend: 0x0, symName: '__ZN4core3ptr98drop_in_place$LT$syn..punctuated..Punctuated$LT$syn..lifetime..Lifetime$C$syn..token..Plus$GT$$GT$17hf5d593077ac66faeE.llvm.5842168757042145188', symObjAddr: 0x8CA0, symBinAddr: 0xCBF0, symSize: 0xD0 }
  - { offsetInCU: 0x2E98E, offset: 0x2E98E, size: 0x8, addend: 0x0, symName: __ZN4core4iter6traits8iterator8Iterator10advance_by17h473a7f5f747b8466E.llvm.5842168757042145188, symObjAddr: 0x9080, symBinAddr: 0xCE10, symSize: 0x70 }
  - { offsetInCU: 0x2ECF2, offset: 0x2ECF2, size: 0x8, addend: 0x0, symName: __ZN4core4iter6traits8iterator8Iterator3nth17h28d1219097af7040E.llvm.5842168757042145188, symObjAddr: 0x9170, symBinAddr: 0xCE80, symSize: 0x80 }
  - { offsetInCU: 0x2F2B1, offset: 0x2F2B1, size: 0x8, addend: 0x0, symName: __ZN4core4iter6traits8iterator8Iterator9size_hint17h6b4e38c460dfe847E.llvm.5842168757042145188, symObjAddr: 0x91F0, symBinAddr: 0xCF00, symSize: 0x0 }
  - { offsetInCU: 0x2F355, offset: 0x2F355, size: 0x8, addend: 0x0, symName: __ZN4core4iter6traits10exact_size17ExactSizeIterator8is_empty17h5f5bdd98d8fcdecfE.llvm.5842168757042145188, symObjAddr: 0x8DA0, symBinAddr: 0xCCC0, symSize: 0x30 }
  - { offsetInCU: 0x2F4CD, offset: 0x2F4CD, size: 0x8, addend: 0x0, symName: __ZN4core4iter6traits12double_ended19DoubleEndedIterator15advance_back_by17ha3c5431b6b3b5f64E.llvm.5842168757042145188, symObjAddr: 0x8DD0, symBinAddr: 0xCCF0, symSize: 0x80 }
  - { offsetInCU: 0x2F73B, offset: 0x2F73B, size: 0x8, addend: 0x0, symName: __ZN4core4iter6traits12double_ended19DoubleEndedIterator8nth_back17heb3dac5731bddbe0E.llvm.5842168757042145188, symObjAddr: 0x8F70, symBinAddr: 0xCD70, symSize: 0xA0 }
  - { offsetInCU: 0x3338D, offset: 0x3338D, size: 0x8, addend: 0x0, symName: _anon.6db05e24e42d3462325b818253b504cc.12.llvm.5842168757042145188, symObjAddr: 0xAB90, symBinAddr: 0x2702A8, symSize: 0x0 }
  - { offsetInCU: 0x33FD7, offset: 0x33FD7, size: 0x8, addend: 0x0, symName: '__ZN3syn10punctuated23Punctuated$LT$T$C$P$GT$10push_punct17h43282de8c6c799dbE.llvm.5842168757042145188', symObjAddr: 0x8F0, symBinAddr: 0x4C80, symSize: 0x110 }
  - { offsetInCU: 0x34408, offset: 0x34408, size: 0x8, addend: 0x0, symName: '__ZN3syn10punctuated23Punctuated$LT$T$C$P$GT$10push_value17hf582e1b3d3b326ecE.llvm.5842168757042145188', symObjAddr: 0xA00, symBinAddr: 0x4D90, symSize: 0x100 }
  - { offsetInCU: 0x34733, offset: 0x34733, size: 0x8, addend: 0x0, symName: '__ZN3syn10punctuated23Punctuated$LT$T$C$P$GT$21parse_terminated_with17h4eff64173a5e44a5E', symObjAddr: 0xB00, symBinAddr: 0x4E90, symSize: 0x1C0 }
  - { offsetInCU: 0x1E, offset: 0x3AD71, size: 0x8, addend: 0x0, symName: __ZN3syn3gen5visit10visit_expr17hf0dd58eecd310d32E, symObjAddr: 0x0, symBinAddr: 0xCF80, symSize: 0x1F20 }
  - { offsetInCU: 0xA67C, offset: 0x453CF, size: 0x8, addend: 0x0, symName: __ZN3syn3gen5visit10visit_expr17hf0dd58eecd310d32E, symObjAddr: 0x0, symBinAddr: 0xCF80, symSize: 0x1F20 }
  - { offsetInCU: 0x11895, offset: 0x4C5E8, size: 0x8, addend: 0x0, symName: __ZN3syn3gen5visit10visit_item17h27c1ca0c0772c9c1E, symObjAddr: 0x1F20, symBinAddr: 0xEEA0, symSize: 0xA00 }
  - { offsetInCU: 0x144E3, offset: 0x4F236, size: 0x8, addend: 0x0, symName: __ZN3syn3gen5visit10visit_stmt17h461cd3de58efcc37E, symObjAddr: 0x2980, symBinAddr: 0xF8A0, symSize: 0x140 }
  - { offsetInCU: 0x14ACB, offset: 0x4F81E, size: 0x8, addend: 0x0, symName: __ZN3syn3gen5visit10visit_type17h1f09f8549a245834E, symObjAddr: 0x2AC0, symBinAddr: 0xF9E0, symSize: 0x350 }
  - { offsetInCU: 0x15DDC, offset: 0x50B2F, size: 0x8, addend: 0x0, symName: __ZN3syn3gen5visit11visit_field17h7b9237f6275f0ce9E, symObjAddr: 0x2F70, symBinAddr: 0xFD30, symSize: 0xE0 }
  - { offsetInCU: 0x160E6, offset: 0x50E39, size: 0x8, addend: 0x0, symName: __ZN3syn3gen5visit11visit_local17haf71feece1a5b9cdE, symObjAddr: 0x3050, symBinAddr: 0xFE10, symSize: 0xF0 }
  - { offsetInCU: 0x16587, offset: 0x512DA, size: 0x8, addend: 0x0, symName: __ZN3syn3gen5visit14visit_generics17hed134d3d1a4c7307E, symObjAddr: 0x3970, symBinAddr: 0xFF00, symSize: 0x1E0 }
  - { offsetInCU: 0x17169, offset: 0x51EBC, size: 0x8, addend: 0x0, symName: __ZN3syn3gen5visit14visit_pat_type17h59c9edabf6cf58b1E, symObjAddr: 0x3DC0, symBinAddr: 0x100E0, symSize: 0xC0 }
  - { offsetInCU: 0x17395, offset: 0x520E8, size: 0x8, addend: 0x0, symName: __ZN3syn3gen5visit15visit_expr_call17hf0ef21b0351e8f9bE, symObjAddr: 0x4090, symBinAddr: 0x101A0, symSize: 0x100 }
  - { offsetInCU: 0x17AF5, offset: 0x52848, size: 0x8, addend: 0x0, symName: __ZN3syn3gen5visit15visit_item_enum17hcbc5ab9e6b577e11E, symObjAddr: 0x45C0, symBinAddr: 0x102A0, symSize: 0x560 }
  - { offsetInCU: 0x199A9, offset: 0x546FC, size: 0x8, addend: 0x0, symName: __ZN3syn3gen5visit15visit_item_impl17h3b199aed8aa477aaE, symObjAddr: 0x4B20, symBinAddr: 0x10800, symSize: 0x310 }
  - { offsetInCU: 0x1AAC4, offset: 0x55817, size: 0x8, addend: 0x0, symName: __ZN3syn3gen5visit15visit_signature17haccf62430fc0d21cE, symObjAddr: 0x5170, symBinAddr: 0x10B10, symSize: 0x320 }
  - { offsetInCU: 0x1BEAD, offset: 0x56C00, size: 0x8, addend: 0x0, symName: __ZN3syn3gen5visit16visit_item_trait17h21153c0dbd939882E, symObjAddr: 0x6370, symBinAddr: 0x10E30, symSize: 0x400 }
  - { offsetInCU: 0x1D72A, offset: 0x5847D, size: 0x8, addend: 0x0, symName: __ZN3syn3gen5visit16visit_pat_struct17h428840e062eb5527E, symObjAddr: 0x6880, symBinAddr: 0x11230, symSize: 0x260 }
  - { offsetInCU: 0x1E132, offset: 0x58E85, size: 0x8, addend: 0x0, symName: __ZN3syn3gen5visit16visit_type_param17h395d70a917cd59cfE, symObjAddr: 0x6D10, symBinAddr: 0x11490, symSize: 0x1C0 }
  - { offsetInCU: 0x1EA59, offset: 0x597AC, size: 0x8, addend: 0x0, symName: __ZN3syn3gen5visit17visit_const_param17h43b8568cfe6264c3E, symObjAddr: 0x7080, symBinAddr: 0x11650, symSize: 0xF0 }
  - { offsetInCU: 0x1ECE9, offset: 0x59A3C, size: 0x8, addend: 0x0, symName: __ZN3syn3gen5visit17visit_expr_struct17h6bedd7fb90a4b0c4E, symObjAddr: 0x72F0, symBinAddr: 0x11740, symSize: 0x210 }
  - { offsetInCU: 0x1F4D4, offset: 0x5A227, size: 0x8, addend: 0x0, symName: __ZN3syn3gen5visit18visit_expr_closure17h3b8ee8744d19a37cE, symObjAddr: 0x7940, symBinAddr: 0x11950, symSize: 0x160 }
  - { offsetInCU: 0x1FE27, offset: 0x5AB7A, size: 0x8, addend: 0x0, symName: __ZN3syn3gen5visit18visit_fields_named17h46d321e5cee0ae18E, symObjAddr: 0x7AA0, symBinAddr: 0x11AB0, symSize: 0x160 }
  - { offsetInCU: 0x204F3, offset: 0x5B246, size: 0x8, addend: 0x0, symName: __ZN3syn3gen5visit18visit_foreign_item17h937057b42aea1d5eE, symObjAddr: 0x7C00, symBinAddr: 0x11C10, symSize: 0x330 }
  - { offsetInCU: 0x210FA, offset: 0x5BE4D, size: 0x8, addend: 0x0, symName: __ZN3syn3gen5visit18visit_impl_item_fn17hc9b02fe018688403E, symObjAddr: 0x7F30, symBinAddr: 0x11F40, symSize: 0x120 }
  - { offsetInCU: 0x215F9, offset: 0x5C34C, size: 0x8, addend: 0x0, symName: __ZN3syn3gen5visit18visit_type_bare_fn17h0693dcbca64087dfE, symObjAddr: 0x8050, symBinAddr: 0x12060, symSize: 0x260 }
  - { offsetInCU: 0x221F4, offset: 0x5CF47, size: 0x8, addend: 0x0, symName: __ZN3syn3gen5visit19visit_generic_param17hf45a36a73defc1d3E, symObjAddr: 0x8570, symBinAddr: 0x122C0, symSize: 0x1E0 }
  - { offsetInCU: 0x22966, offset: 0x5D6B9, size: 0x8, addend: 0x0, symName: __ZN3syn3gen5visit19visit_trait_item_fn17hd6a9c21d9362a649E, symObjAddr: 0x8800, symBinAddr: 0x124A0, symSize: 0x100 }
  - { offsetInCU: 0x22D10, offset: 0x5DA63, size: 0x8, addend: 0x0, symName: __ZN3syn3gen5visit20visit_impl_item_type17hd7e60344be59d41cE, symObjAddr: 0x8A10, symBinAddr: 0x125A0, symSize: 0x1E0 }
  - { offsetInCU: 0x239EE, offset: 0x5E741, size: 0x8, addend: 0x0, symName: __ZN3syn3gen5visit20visit_predicate_type17h82196d8a73096965E, symObjAddr: 0x8CD0, symBinAddr: 0x12780, symSize: 0x180 }
  - { offsetInCU: 0x24428, offset: 0x5F17B, size: 0x8, addend: 0x0, symName: __ZN3syn3gen5visit21visit_impl_item_const17he151f7cb693ff648E, symObjAddr: 0x90C0, symBinAddr: 0x12900, symSize: 0x1F0 }
  - { offsetInCU: 0x2512A, offset: 0x5FE7D, size: 0x8, addend: 0x0, symName: __ZN3syn3gen5visit21visit_trait_item_type17hb736fe2dfe5edfe0E, symObjAddr: 0x92B0, symBinAddr: 0x12AF0, symSize: 0x2E0 }
  - { offsetInCU: 0x264BD, offset: 0x61210, size: 0x8, addend: 0x0, symName: __ZN3syn3gen5visit21visit_where_predicate17h66dc7034296cf720E, symObjAddr: 0x96A0, symBinAddr: 0x12DD0, symSize: 0x2D0 }
  - { offsetInCU: 0x27786, offset: 0x624D9, size: 0x8, addend: 0x0, symName: __ZN3syn3gen5visit22visit_expr_method_call17hc2d837ec7978ffa3E, symObjAddr: 0x9970, symBinAddr: 0x130A0, symSize: 0x140 }
  - { offsetInCU: 0x2811C, offset: 0x62E6F, size: 0x8, addend: 0x0, symName: __ZN3syn3gen5visit22visit_generic_argument17h5f5ae23342aca230E, symObjAddr: 0x9AB0, symBinAddr: 0x131E0, symSize: 0x2B0 }
  - { offsetInCU: 0x29329, offset: 0x6407C, size: 0x8, addend: 0x0, symName: __ZN3syn3gen5visit22visit_item_trait_alias17h559884714d569929E, symObjAddr: 0x9E40, symBinAddr: 0x13490, symSize: 0x290 }
  - { offsetInCU: 0x2A684, offset: 0x653D7, size: 0x8, addend: 0x0, symName: __ZN3syn3gen5visit22visit_pat_tuple_struct17hb9f45853a8f9f816E, symObjAddr: 0xA0D0, symBinAddr: 0x13720, symSize: 0x110 }
  - { offsetInCU: 0x2AC66, offset: 0x659B9, size: 0x8, addend: 0x0, symName: __ZN3syn3gen5visit22visit_trait_item_const17hf2dbaee616d2e6dcE, symObjAddr: 0xA1E0, symBinAddr: 0x13830, symSize: 0x1E0 }
  - { offsetInCU: 0x2B8BF, offset: 0x66612, size: 0x8, addend: 0x0, symName: __ZN3syn3gen5visit9visit_arm17hbbda7422223600a7E, symObjAddr: 0xA760, symBinAddr: 0x13A10, symSize: 0xD0 }
  - { offsetInCU: 0x2BE5A, offset: 0x66BAD, size: 0x8, addend: 0x0, symName: __ZN3syn3gen5visit9visit_pat17hec1a94d80f46ef55E, symObjAddr: 0xA830, symBinAddr: 0x13AE0, symSize: 0xA4C }
  - { offsetInCU: 0x1E, offset: 0x74EE1, size: 0x8, addend: 0x0, symName: __ZN10proc_macro6bridge6client14HandleCounters3get17h2c76d49220b98e92E, symObjAddr: 0x0, symBinAddr: 0x14530, symSize: 0x10 }
  - { offsetInCU: 0x40, offset: 0x74F03, size: 0x8, addend: 0x0, symName: ___rustc_proc_macro_decls_8f355696ad98ab93__, symObjAddr: 0x104D8, symBinAddr: 0x2706A8, symSize: 0x0 }
  - { offsetInCU: 0x61E, offset: 0x754E1, size: 0x8, addend: 0x0, symName: __ZN14zeroize_derive14derive_zeroize17h5b250e30eb4dd741E, symObjAddr: 0xA4A0, symBinAddr: 0x1CB50, symSize: 0x1090 }
  - { offsetInCU: 0x2309, offset: 0x771CC, size: 0x8, addend: 0x0, symName: __ZN14zeroize_derive22derive_zeroize_on_drop17h792a290fc692e1a4E, symObjAddr: 0xB530, symBinAddr: 0x1DBE0, symSize: 0x960 }
  - { offsetInCU: 0x2E31, offset: 0x77CF4, size: 0x8, addend: 0x0, symName: '__ZN75_$LT$zeroize_derive..BoundAccumulator$u20$as$u20$syn..gen..visit..Visit$GT$10visit_path17hc555b948d7fa5c48E', symObjAddr: 0xC0C0, symBinAddr: 0x1E540, symSize: 0x230 }
  - { offsetInCU: 0x39A6, offset: 0x78869, size: 0x8, addend: 0x0, symName: __ZN14zeroize_derive15generate_fields17h8f4471a2490bb772E, symObjAddr: 0xD100, symBinAddr: 0x1F580, symSize: 0x1280 }
  - { offsetInCU: 0x6A02, offset: 0x7B8C5, size: 0x8, addend: 0x0, symName: __ZN14zeroize_derive9attr_skip17hb7916e3c38cc1981E.llvm.9810478976366452394, symObjAddr: 0xE380, symBinAddr: 0x20800, symSize: 0x562 }
  - { offsetInCU: 0x934C, offset: 0x7E20F, size: 0x8, addend: 0x0, symName: '__ZN4core3ptr100drop_in_place$LT$core..option..Option$LT$alloc..boxed..Box$LT$syn..path..GenericArgument$GT$$GT$$GT$17hf167a5affd471861E', symObjAddr: 0x29D0, symBinAddr: 0x15080, symSize: 0x50 }
  - { offsetInCU: 0x9519, offset: 0x7E3DC, size: 0x8, addend: 0x0, symName: '__ZN4core3ptr102drop_in_place$LT$syn..punctuated..Punctuated$LT$syn..path..GenericArgument$C$syn..token..Comma$GT$$GT$17h1b861efef910f67cE', symObjAddr: 0x2A20, symBinAddr: 0x150D0, symSize: 0xF0 }
  - { offsetInCU: 0x9839, offset: 0x7E6FC, size: 0x8, addend: 0x0, symName: '__ZN4core3ptr103drop_in_place$LT$core..option..Option$LT$alloc..boxed..Box$LT$syn..generics..TypeParamBound$GT$$GT$$GT$17h9dea5ae092e08b20E', symObjAddr: 0x2B10, symBinAddr: 0x151C0, symSize: 0x50 }
  - { offsetInCU: 0x9AFE, offset: 0x7E9C1, size: 0x8, addend: 0x0, symName: '__ZN4core3ptr103drop_in_place$LT$core..option..Option$LT$alloc..boxed..Box$LT$syn..generics..WherePredicate$GT$$GT$$GT$17hd6ba4467447c42cdE', symObjAddr: 0x2B60, symBinAddr: 0x15210, symSize: 0xD0 }
  - { offsetInCU: 0x9E92, offset: 0x7ED55, size: 0x8, addend: 0x0, symName: '__ZN4core3ptr103drop_in_place$LT$syn..punctuated..Punctuated$LT$syn..generics..GenericParam$C$syn..token..Comma$GT$$GT$17h658bde4a9636b124E', symObjAddr: 0x2C30, symBinAddr: 0x152E0, symSize: 0xF0 }
  - { offsetInCU: 0xA38D, offset: 0x7F250, size: 0x8, addend: 0x0, symName: '__ZN4core3ptr104drop_in_place$LT$syn..punctuated..Punctuated$LT$syn..generics..TypeParamBound$C$syn..token..Plus$GT$$GT$17ha3f51cd584941d71E', symObjAddr: 0x2D20, symBinAddr: 0x153D0, symSize: 0x240 }
  - { offsetInCU: 0xAC48, offset: 0x7FB0B, size: 0x8, addend: 0x0, symName: '__ZN4core3ptr105drop_in_place$LT$syn..punctuated..Punctuated$LT$syn..generics..WherePredicate$C$syn..token..Comma$GT$$GT$17he55656539e77b271E', symObjAddr: 0x2F60, symBinAddr: 0x15610, symSize: 0xE0 }
  - { offsetInCU: 0xB009, offset: 0x7FECC, size: 0x8, addend: 0x0, symName: '__ZN4core3ptr34drop_in_place$LT$syn..lit..Lit$GT$17h0434771519353a93E', symObjAddr: 0x3040, symBinAddr: 0x156F0, symSize: 0x120 }
  - { offsetInCU: 0xB4F7, offset: 0x803BA, size: 0x8, addend: 0x0, symName: '__ZN4core3ptr34drop_in_place$LT$syn..pat..Pat$GT$17h23cd663dffbc1ca7E', symObjAddr: 0x3160, symBinAddr: 0x15810, symSize: 0xF40 }
  - { offsetInCU: 0xEFBD, offset: 0x83E80, size: 0x8, addend: 0x0, symName: '__ZN4core3ptr34drop_in_place$LT$syn..ty..Type$GT$17h909bc58921451c92E', symObjAddr: 0x40A0, symBinAddr: 0x16750, symSize: 0x580 }
  - { offsetInCU: 0x102B4, offset: 0x85177, size: 0x8, addend: 0x0, symName: '__ZN4core3ptr36drop_in_place$LT$syn..attr..Meta$GT$17h5eb98af069a32022E', symObjAddr: 0x4620, symBinAddr: 0x16CD0, symSize: 0xA0 }
  - { offsetInCU: 0x108CD, offset: 0x85790, size: 0x8, addend: 0x0, symName: '__ZN4core3ptr36drop_in_place$LT$syn..expr..Expr$GT$17h594b288408c7049cE', symObjAddr: 0x46C0, symBinAddr: 0x16D70, symSize: 0x2730 }
  - { offsetInCU: 0x19D2D, offset: 0x8EBF0, size: 0x8, addend: 0x0, symName: '__ZN4core3ptr36drop_in_place$LT$syn..mac..Macro$GT$17h8834c68712008aa5E', symObjAddr: 0x6DF0, symBinAddr: 0x194A0, symSize: 0xE0 }
  - { offsetInCU: 0x1A0B7, offset: 0x8EF7A, size: 0x8, addend: 0x0, symName: '__ZN4core3ptr36drop_in_place$LT$syn..path..Path$GT$17ha7adc31831378d42E', symObjAddr: 0x6ED0, symBinAddr: 0x19580, symSize: 0x240 }
  - { offsetInCU: 0x1AA51, offset: 0x8F914, size: 0x8, addend: 0x0, symName: '__ZN4core3ptr37drop_in_place$LT$syn..stmt..Block$GT$17h53c13e8fb8186919E', symObjAddr: 0x7110, symBinAddr: 0x197C0, symSize: 0xD0 }
  - { offsetInCU: 0x1ADC3, offset: 0x8FC86, size: 0x8, addend: 0x0, symName: '__ZN4core3ptr38drop_in_place$LT$syn..data..Fields$GT$17h6b556079d9666bd6E', symObjAddr: 0x71E0, symBinAddr: 0x19890, symSize: 0x190 }
  - { offsetInCU: 0x1B2C7, offset: 0x9018A, size: 0x8, addend: 0x0, symName: '__ZN4core3ptr38drop_in_place$LT$syn..derive..Data$GT$17h945eb1bcf266c761E', symObjAddr: 0x7370, symBinAddr: 0x19A20, symSize: 0x1D0 }
  - { offsetInCU: 0x1B9AB, offset: 0x9086E, size: 0x8, addend: 0x0, symName: '__ZN4core3ptr38drop_in_place$LT$syn..error..Error$GT$17h5ccae85f8db8faadE', symObjAddr: 0x7540, symBinAddr: 0x19BF0, symSize: 0x90 }
  - { offsetInCU: 0x1BC59, offset: 0x90B1C, size: 0x8, addend: 0x0, symName: '__ZN4core3ptr38drop_in_place$LT$syn..expr..Member$GT$17h72e5bb4cd394e37dE', symObjAddr: 0x75D0, symBinAddr: 0x19C80, symSize: 0x30 }
  - { offsetInCU: 0x1BD55, offset: 0x90C18, size: 0x8, addend: 0x0, symName: '__ZN4core3ptr39drop_in_place$LT$proc_macro2..Ident$GT$17h5478e913d990d07bE', symObjAddr: 0x7600, symBinAddr: 0x19CB0, symSize: 0x30 }
  - { offsetInCU: 0x1BE32, offset: 0x90CF5, size: 0x8, addend: 0x0, symName: '__ZN4core3ptr40drop_in_place$LT$syn..ty..ReturnType$GT$17h9812afc0e63dd5ffE', symObjAddr: 0x7630, symBinAddr: 0x19CE0, symSize: 0x50 }
  - { offsetInCU: 0x1BFA2, offset: 0x90E65, size: 0x8, addend: 0x0, symName: '__ZN4core3ptr41drop_in_place$LT$syn..expr..ExprConst$GT$17h12ef3b77a42cb54cE', symObjAddr: 0x7680, symBinAddr: 0x19D30, symSize: 0x180 }
  - { offsetInCU: 0x1C57A, offset: 0x9143D, size: 0x8, addend: 0x0, symName: '__ZN4core3ptr43drop_in_place$LT$zeroize_derive..Bounds$GT$17h2f26f4fc1131b85dE', symObjAddr: 0x7800, symBinAddr: 0x19EB0, symSize: 0xE0 }
  - { offsetInCU: 0x1C8A0, offset: 0x91763, size: 0x8, addend: 0x0, symName: '__ZN4core3ptr44drop_in_place$LT$syn..generics..Generics$GT$17h4ff00b52cfb32523E', symObjAddr: 0x78E0, symBinAddr: 0x19F90, symSize: 0x40 }
  - { offsetInCU: 0x1C8BD, offset: 0x91780, size: 0x8, addend: 0x0, symName: '__ZN4core3ptr44drop_in_place$LT$syn..lifetime..Lifetime$GT$17h93bd87bb57a48243E', symObjAddr: 0x7920, symBinAddr: 0x19FD0, symSize: 0x30 }
  - { offsetInCU: 0x1CAEF, offset: 0x919B2, size: 0x8, addend: 0x0, symName: '__ZN4core3ptr45drop_in_place$LT$proc_macro2..TokenStream$GT$17h9ee0c9f276c276e4E.llvm.9810478976366452394', symObjAddr: 0x7950, symBinAddr: 0x1A000, symSize: 0x140 }
  - { offsetInCU: 0x1CFC7, offset: 0x91E8A, size: 0x8, addend: 0x0, symName: '__ZN4core3ptr45drop_in_place$LT$syn..derive..DeriveInput$GT$17h83ec9ce27fd461bdE', symObjAddr: 0x7A90, symBinAddr: 0x1A140, symSize: 0x190 }
  - { offsetInCU: 0x1D54E, offset: 0x92411, size: 0x8, addend: 0x0, symName: '__ZN4core3ptr45drop_in_place$LT$syn..generics..TypeParam$GT$17hdb94c232af087417E', symObjAddr: 0x7C20, symBinAddr: 0x1A2D0, symSize: 0x230 }
  - { offsetInCU: 0x1DD8F, offset: 0x92C52, size: 0x8, addend: 0x0, symName: '__ZN4core3ptr46drop_in_place$LT$syn..generics..ConstParam$GT$17h7d9dde693af058dcE', symObjAddr: 0x7E50, symBinAddr: 0x1A500, symSize: 0x150 }
  - { offsetInCU: 0x1E1DC, offset: 0x9309F, size: 0x8, addend: 0x0, symName: '__ZN4core3ptr47drop_in_place$LT$syn..path..GenericArgument$GT$17he376c5495bfba2aeE', symObjAddr: 0x7FA0, symBinAddr: 0x1A650, symSize: 0x450 }
  - { offsetInCU: 0x1EF52, offset: 0x93E15, size: 0x8, addend: 0x0, symName: '__ZN4core3ptr49drop_in_place$LT$syn..generics..LifetimeParam$GT$17h96cd9c33a102590dE', symObjAddr: 0x83F0, symBinAddr: 0x1AAA0, symSize: 0xF0 }
  - { offsetInCU: 0x1F335, offset: 0x941F8, size: 0x8, addend: 0x0, symName: '__ZN4core3ptr49drop_in_place$LT$syn..restriction..Visibility$GT$17h2ad9754b033941f0E', symObjAddr: 0x84E0, symBinAddr: 0x1AB90, symSize: 0x60 }
  - { offsetInCU: 0x1F4A6, offset: 0x94369, size: 0x8, addend: 0x0, symName: '__ZN4core3ptr50drop_in_place$LT$syn..generics..TypeParamBound$GT$17h6ae628d1347497b7E', symObjAddr: 0x8540, symBinAddr: 0x1ABF0, symSize: 0xA0 }
  - { offsetInCU: 0x1F60C, offset: 0x944CF, size: 0x8, addend: 0x0, symName: '__ZN4core3ptr58drop_in_place$LT$alloc..vec..Vec$LT$syn..expr..Arm$GT$$GT$17h4100114fe8e302a1E', symObjAddr: 0x85E0, symBinAddr: 0x1AC90, symSize: 0xD0 }
  - { offsetInCU: 0x1F8CC, offset: 0x9478F, size: 0x8, addend: 0x0, symName: '__ZN4core3ptr59drop_in_place$LT$alloc..boxed..Box$LT$syn..pat..Pat$GT$$GT$17hd6381a96bf9e5421E', symObjAddr: 0x86B0, symBinAddr: 0x1AD60, symSize: 0x50 }
  - { offsetInCU: 0x1FA25, offset: 0x948E8, size: 0x8, addend: 0x0, symName: '__ZN4core3ptr59drop_in_place$LT$alloc..boxed..Box$LT$syn..ty..Type$GT$$GT$17hc3e166ebcc84a858E', symObjAddr: 0x8700, symBinAddr: 0x1ADB0, symSize: 0x50 }
  - { offsetInCU: 0x1FB7E, offset: 0x94A41, size: 0x8, addend: 0x0, symName: '__ZN4core3ptr61drop_in_place$LT$alloc..boxed..Box$LT$syn..expr..Expr$GT$$GT$17h8a3c09d087fc5969E', symObjAddr: 0x8750, symBinAddr: 0x1AE00, symSize: 0x50 }
  - { offsetInCU: 0x1FCD7, offset: 0x94B9A, size: 0x8, addend: 0x0, symName: '__ZN4core3ptr61drop_in_place$LT$syn..path..ParenthesizedGenericArguments$GT$17hd70bdf37aa6ff03cE', symObjAddr: 0x87A0, symBinAddr: 0x1AE50, symSize: 0x170 }
  - { offsetInCU: 0x202FF, offset: 0x951C2, size: 0x8, addend: 0x0, symName: '__ZN4core3ptr62drop_in_place$LT$alloc..vec..Vec$LT$proc_macro2..Ident$GT$$GT$17h0015f8258039380fE', symObjAddr: 0x8910, symBinAddr: 0x1AFC0, symSize: 0x90 }
  - { offsetInCU: 0x20587, offset: 0x9544A, size: 0x8, addend: 0x0, symName: '__ZN4core3ptr63drop_in_place$LT$alloc..boxed..Box$LT$syn..lit..LitRepr$GT$$GT$17h31cfdbd46b573c47E', symObjAddr: 0x89A0, symBinAddr: 0x1B050, symSize: 0x60 }
  - { offsetInCU: 0x2088E, offset: 0x95751, size: 0x8, addend: 0x0, symName: '__ZN4core3ptr64drop_in_place$LT$alloc..boxed..Box$LT$syn..pat..FieldPat$GT$$GT$17h3365f38bda158625E', symObjAddr: 0x8A00, symBinAddr: 0x1B0B0, symSize: 0x140 }
  - { offsetInCU: 0x20F5B, offset: 0x95E1E, size: 0x8, addend: 0x0, symName: '__ZN4core3ptr64drop_in_place$LT$alloc..boxed..Box$LT$syn..ty..BareFnArg$GT$$GT$17h6b76f3676f3d0a49E', symObjAddr: 0x8B40, symBinAddr: 0x1B1F0, symSize: 0x140 }
  - { offsetInCU: 0x214B0, offset: 0x96373, size: 0x8, addend: 0x0, symName: '__ZN4core3ptr65drop_in_place$LT$alloc..vec..Vec$LT$proc_macro..TokenTree$GT$$GT$17h7cd89395d30d9dbfE.llvm.9810478976366452394', symObjAddr: 0x8C80, symBinAddr: 0x1B330, symSize: 0x110 }
  - { offsetInCU: 0x218A8, offset: 0x9676B, size: 0x8, addend: 0x0, symName: '__ZN4core3ptr65drop_in_place$LT$core..option..Option$LT$syn..expr..Label$GT$$GT$17h54063f51e70a6435E', symObjAddr: 0x8D90, symBinAddr: 0x1B440, symSize: 0x30 }
  - { offsetInCU: 0x219E2, offset: 0x968A5, size: 0x8, addend: 0x0, symName: '__ZN4core3ptr66drop_in_place$LT$core..option..Option$LT$syn..pat..PatRest$GT$$GT$17h1383712323ca615bE', symObjAddr: 0x8DC0, symBinAddr: 0x1B470, symSize: 0xE0 }
  - { offsetInCU: 0x21CB7, offset: 0x96B7A, size: 0x8, addend: 0x0, symName: '__ZN4core3ptr66drop_in_place$LT$syn..punctuated..Iter$LT$syn..data..Field$GT$$GT$17h48835738d2aabff1E.llvm.9810478976366452394', symObjAddr: 0x8EA0, symBinAddr: 0x1B550, symSize: 0x30 }
  - { offsetInCU: 0x21DFB, offset: 0x96CBE, size: 0x8, addend: 0x0, symName: '__ZN4core3ptr67drop_in_place$LT$alloc..boxed..Box$LT$syn..expr..FieldValue$GT$$GT$17h985c67b90f2c7616E', symObjAddr: 0x8ED0, symBinAddr: 0x1B580, symSize: 0x140 }
  - { offsetInCU: 0x2234F, offset: 0x97212, size: 0x8, addend: 0x0, symName: '__ZN4core3ptr70drop_in_place$LT$core..option..Option$LT$syn..ty..BareVariadic$GT$$GT$17he81f389e5718409eE', symObjAddr: 0x9010, symBinAddr: 0x1B6C0, symSize: 0x100 }
  - { offsetInCU: 0x22786, offset: 0x97649, size: 0x8, addend: 0x0, symName: '__ZN4core3ptr71drop_in_place$LT$core..option..Option$LT$zeroize_derive..Bounds$GT$$GT$17h54806da77d52d938E', symObjAddr: 0x9110, symBinAddr: 0x1B7C0, symSize: 0x100 }
  - { offsetInCU: 0x22AFF, offset: 0x979C2, size: 0x8, addend: 0x0, symName: '__ZN4core3ptr72drop_in_place$LT$alloc..boxed..Box$LT$syn..path..GenericArgument$GT$$GT$17h1b9e463cda3248a8E', symObjAddr: 0x9210, symBinAddr: 0x1B8C0, symSize: 0x2B0 }
  - { offsetInCU: 0x23510, offset: 0x983D3, size: 0x8, addend: 0x0, symName: '__ZN4core3ptr72drop_in_place$LT$core..option..Option$LT$syn..lifetime..Lifetime$GT$$GT$17hc12d7babbc118bbdE', symObjAddr: 0x94C0, symBinAddr: 0x1BB70, symSize: 0x30 }
  - { offsetInCU: 0x2362B, offset: 0x984EE, size: 0x8, addend: 0x0, symName: '__ZN4core3ptr73drop_in_place$LT$alloc..boxed..Box$LT$syn..generics..GenericParam$GT$$GT$17h3331d3ffd607b7a6E', symObjAddr: 0x94F0, symBinAddr: 0x1BBA0, symSize: 0x80 }
  - { offsetInCU: 0x237A1, offset: 0x98664, size: 0x8, addend: 0x0, symName: '__ZN4core3ptr75drop_in_place$LT$alloc..boxed..Box$LT$syn..generics..TypeParamBound$GT$$GT$17heae9d7d18d79ffc2E', symObjAddr: 0x9570, symBinAddr: 0x1BC20, symSize: 0x180 }
  - { offsetInCU: 0x23D4F, offset: 0x98C12, size: 0x8, addend: 0x0, symName: '__ZN4core3ptr75drop_in_place$LT$core..option..Option$LT$syn..generics..WhereClause$GT$$GT$17h9664a10b3d3dc94cE', symObjAddr: 0x96F0, symBinAddr: 0x1BDA0, symSize: 0x100 }
  - { offsetInCU: 0x24106, offset: 0x98FC9, size: 0x8, addend: 0x0, symName: '__ZN4core3ptr86drop_in_place$LT$syn..punctuated..Punctuated$LT$syn..pat..Pat$C$syn..token..Or$GT$$GT$17h033a362705bb3bb5E', symObjAddr: 0x97F0, symBinAddr: 0x1BEA0, symSize: 0x120 }
  - { offsetInCU: 0x24581, offset: 0x99444, size: 0x8, addend: 0x0, symName: '__ZN4core3ptr87drop_in_place$LT$core..option..Option$LT$alloc..boxed..Box$LT$syn..pat..Pat$GT$$GT$$GT$17h23c83b610267a13bE', symObjAddr: 0x9910, symBinAddr: 0x1BFC0, symSize: 0x50 }
  - { offsetInCU: 0x246F1, offset: 0x995B4, size: 0x8, addend: 0x0, symName: '__ZN4core3ptr87drop_in_place$LT$core..option..Option$LT$alloc..boxed..Box$LT$syn..ty..Type$GT$$GT$$GT$17h9272f0759741e526E', symObjAddr: 0x9960, symBinAddr: 0x1C010, symSize: 0x50 }
  - { offsetInCU: 0x24861, offset: 0x99724, size: 0x8, addend: 0x0, symName: '__ZN4core3ptr89drop_in_place$LT$core..option..Option$LT$alloc..boxed..Box$LT$syn..expr..Expr$GT$$GT$$GT$17h1b402876673ee224E', symObjAddr: 0x99B0, symBinAddr: 0x1C060, symSize: 0x50 }
  - { offsetInCU: 0x24A0F, offset: 0x998D2, size: 0x8, addend: 0x0, symName: '__ZN4core3ptr89drop_in_place$LT$syn..punctuated..Punctuated$LT$syn..pat..Pat$C$syn..token..Comma$GT$$GT$17h1a51e79614c23b8fE', symObjAddr: 0x9A00, symBinAddr: 0x1C0B0, symSize: 0x120 }
  - { offsetInCU: 0x24EFE, offset: 0x99DC1, size: 0x8, addend: 0x0, symName: '__ZN4core3ptr90drop_in_place$LT$core..option..Option$LT$alloc..boxed..Box$LT$syn..data..Field$GT$$GT$$GT$17h4856bf7e0667162fE', symObjAddr: 0x9B20, symBinAddr: 0x1C1D0, symSize: 0x1B0 }
  - { offsetInCU: 0x255DB, offset: 0x9A49E, size: 0x8, addend: 0x0, symName: '__ZN4core3ptr91drop_in_place$LT$syn..punctuated..Punctuated$LT$syn..expr..Expr$C$syn..token..Comma$GT$$GT$17h2089aa266eda8e71E', symObjAddr: 0x9CD0, symBinAddr: 0x1C380, symSize: 0x120 }
  - { offsetInCU: 0x25AE5, offset: 0x9A9A8, size: 0x8, addend: 0x0, symName: '__ZN4core3ptr92drop_in_place$LT$core..option..Option$LT$alloc..boxed..Box$LT$syn..data..Variant$GT$$GT$$GT$17hbb36ee259b8bcd1cE', symObjAddr: 0x9DF0, symBinAddr: 0x1C4A0, symSize: 0x170 }
  - { offsetInCU: 0x26080, offset: 0x9AF43, size: 0x8, addend: 0x0, symName: '__ZN4core3ptr94drop_in_place$LT$syn..punctuated..Punctuated$LT$syn..pat..FieldPat$C$syn..token..Comma$GT$$GT$17hebbefb546a57efdfE', symObjAddr: 0x9F60, symBinAddr: 0x1C610, symSize: 0xF0 }
  - { offsetInCU: 0x2637F, offset: 0x9B242, size: 0x8, addend: 0x0, symName: '__ZN4core3ptr94drop_in_place$LT$syn..punctuated..Punctuated$LT$syn..ty..BareFnArg$C$syn..token..Comma$GT$$GT$17h8a5a74831bf9b9a0E', symObjAddr: 0xA050, symBinAddr: 0x1C700, symSize: 0xF0 }
  - { offsetInCU: 0x26680, offset: 0x9B543, size: 0x8, addend: 0x0, symName: '__ZN4core3ptr96drop_in_place$LT$core..option..Option$LT$alloc..boxed..Box$LT$syn..path..PathSegment$GT$$GT$$GT$17h34901984f508e5eeE', symObjAddr: 0xA140, symBinAddr: 0x1C7F0, symSize: 0x1A0 }
  - { offsetInCU: 0x26D41, offset: 0x9BC04, size: 0x8, addend: 0x0, symName: '__ZN4core3ptr97drop_in_place$LT$syn..punctuated..Punctuated$LT$syn..expr..FieldValue$C$syn..token..Comma$GT$$GT$17h1114c1cefa0baa61E', symObjAddr: 0xA2E0, symBinAddr: 0x1C990, symSize: 0xF0 }
  - { offsetInCU: 0x270BA, offset: 0x9BF7D, size: 0x8, addend: 0x0, symName: '__ZN4core3ptr98drop_in_place$LT$syn..punctuated..Punctuated$LT$syn..lifetime..Lifetime$C$syn..token..Plus$GT$$GT$17hf5d593077ac66faeE', symObjAddr: 0xA3D0, symBinAddr: 0x1CA80, symSize: 0xD0 }
  - { offsetInCU: 0x282AF, offset: 0x9D172, size: 0x8, addend: 0x0, symName: '__ZN4core3ops8function5impls79_$LT$impl$u20$core..ops..function..FnMut$LT$A$GT$$u20$for$u20$$RF$mut$u20$F$GT$8call_mut17h2d01d2fd3eda0476E', symObjAddr: 0x2790, symBinAddr: 0x14E40, symSize: 0x190 }
  - { offsetInCU: 0x285FF, offset: 0x9D4C2, size: 0x8, addend: 0x0, symName: '__ZN4core3ops8function5impls80_$LT$impl$u20$core..ops..function..FnOnce$LT$A$GT$$u20$for$u20$$RF$mut$u20$F$GT$9call_once17h1e903f711ec9b67bE', symObjAddr: 0x2920, symBinAddr: 0x14FD0, symSize: 0xB0 }
  - { offsetInCU: 0x28EC3, offset: 0x9DD86, size: 0x8, addend: 0x0, symName: __ZN10proc_macro6bridge6client14HandleCounters3get17h2c76d49220b98e92E, symObjAddr: 0x0, symBinAddr: 0x14530, symSize: 0x10 }
  - { offsetInCU: 0x28EEB, offset: 0x9DDAE, size: 0x8, addend: 0x0, symName: __ZN3syn3gen5visit5Visit10visit_stmt17h873624fa5462f966E, symObjAddr: 0x30, symBinAddr: 0x14540, symSize: 0x10 }
  - { offsetInCU: 0x2907F, offset: 0x9DF42, size: 0x8, addend: 0x0, symName: __ZN3syn3gen5visit5Visit14visit_use_tree17h49533c56d9f3aa28E, symObjAddr: 0x660, symBinAddr: 0x14550, symSize: 0x90 }
  - { offsetInCU: 0x294AF, offset: 0x9E372, size: 0x8, addend: 0x0, symName: __ZN3syn3gen5visit5Visit16visit_assoc_type17h2254bc98cd82a75eE, symObjAddr: 0xA30, symBinAddr: 0x145E0, symSize: 0x90 }
  - { offsetInCU: 0x298EF, offset: 0x9E7B2, size: 0x8, addend: 0x0, symName: __ZN3syn3gen5visit5Visit16visit_constraint17hae261fd991a246e0E, symObjAddr: 0xAC0, symBinAddr: 0x14670, symSize: 0x120 }
  - { offsetInCU: 0x29FD9, offset: 0x9EE9C, size: 0x8, addend: 0x0, symName: __ZN3syn3gen5visit5Visit17visit_assoc_const17h1e1214ed43b4ddecE, symObjAddr: 0x13D0, symBinAddr: 0x14790, symSize: 0x40 }
  - { offsetInCU: 0x2A0DC, offset: 0x9EF9F, size: 0x8, addend: 0x0, symName: __ZN3syn3gen5visit5Visit19visit_generic_param17hff4b7442caa16df5E, symObjAddr: 0x1B40, symBinAddr: 0x147D0, symSize: 0x360 }
  - { offsetInCU: 0x2B18A, offset: 0xA004D, size: 0x8, addend: 0x0, symName: __ZN3syn3gen5visit5Visit22visit_generic_argument17h399035eedea43cafE, symObjAddr: 0x2310, symBinAddr: 0x14B30, symSize: 0x220 }
  - { offsetInCU: 0x2BD82, offset: 0xA0C45, size: 0x8, addend: 0x0, symName: __ZN3syn3gen5visit5Visit39visit_angle_bracketed_generic_arguments17he07cc084817b8cfdE, symObjAddr: 0x2670, symBinAddr: 0x14D50, symSize: 0xF0 }
  - { offsetInCU: 0x2F539, offset: 0xA43FC, size: 0x8, addend: 0x0, symName: __ZN14zeroize_derive12ZeroizeAttrs10parse_attr17h211a2cf27fd9941bE, symObjAddr: 0xC2F0, symBinAddr: 0x1E770, symSize: 0xE10 }
  - { offsetInCU: 0x1E, offset: 0xB82AE, size: 0x8, addend: 0x0, symName: '__ZN4core3ptr100drop_in_place$LT$alloc..vec..Vec$LT$$LP$proc_macro2..TokenStream$C$$RF$syn..data..Fields$RP$$GT$$GT$17h60caf7e5284b92a0E', symObjAddr: 0x0, symBinAddr: 0x20D70, symSize: 0xD0 }
  - { offsetInCU: 0x1DA3, offset: 0xBA033, size: 0x8, addend: 0x0, symName: '__ZN4core3ptr100drop_in_place$LT$alloc..vec..Vec$LT$$LP$proc_macro2..TokenStream$C$$RF$syn..data..Fields$RP$$GT$$GT$17h60caf7e5284b92a0E', symObjAddr: 0x0, symBinAddr: 0x20D70, symSize: 0xD0 }
  - { offsetInCU: 0x2073, offset: 0xBA303, size: 0x8, addend: 0x0, symName: '__ZN4core3ptr100drop_in_place$LT$core..option..Option$LT$alloc..boxed..Box$LT$syn..path..GenericArgument$GT$$GT$$GT$17hf167a5affd471861E', symObjAddr: 0xD0, symBinAddr: 0x20E40, symSize: 0x50 }
  - { offsetInCU: 0x23B4, offset: 0xBA644, size: 0x8, addend: 0x0, symName: '__ZN4core3ptr100drop_in_place$LT$syn..punctuated..Punctuated$LT$syn..path..PathSegment$C$syn..token..PathSep$GT$$GT$17h4b17d4c3c63cdcabE.llvm.6230317567470246779', symObjAddr: 0x120, symBinAddr: 0x20E90, symSize: 0x1C0 }
  - { offsetInCU: 0x2ACE, offset: 0xBAD5E, size: 0x8, addend: 0x0, symName: '__ZN4core3ptr102drop_in_place$LT$syn..punctuated..Punctuated$LT$syn..path..GenericArgument$C$syn..token..Comma$GT$$GT$17h1b861efef910f67cE.llvm.6230317567470246779', symObjAddr: 0x2E0, symBinAddr: 0x21050, symSize: 0xF0 }
  - { offsetInCU: 0x2DF5, offset: 0xBB085, size: 0x8, addend: 0x0, symName: '__ZN4core3ptr103drop_in_place$LT$core..option..Option$LT$alloc..boxed..Box$LT$syn..generics..TypeParamBound$GT$$GT$$GT$17h9dea5ae092e08b20E', symObjAddr: 0x3D0, symBinAddr: 0x21140, symSize: 0x50 }
  - { offsetInCU: 0x2F84, offset: 0xBB214, size: 0x8, addend: 0x0, symName: '__ZN4core3ptr103drop_in_place$LT$core..option..Option$LT$alloc..boxed..Box$LT$syn..generics..WherePredicate$GT$$GT$$GT$17hd6ba4467447c42cdE', symObjAddr: 0x420, symBinAddr: 0x21190, symSize: 0x50 }
  - { offsetInCU: 0x31CD, offset: 0xBB45D, size: 0x8, addend: 0x0, symName: '__ZN4core3ptr103drop_in_place$LT$syn..punctuated..Punctuated$LT$syn..generics..GenericParam$C$syn..token..Comma$GT$$GT$17h658bde4a9636b124E.llvm.6230317567470246779', symObjAddr: 0x470, symBinAddr: 0x211E0, symSize: 0x1A0 }
  - { offsetInCU: 0x37E7, offset: 0xBBA77, size: 0x8, addend: 0x0, symName: '__ZN4core3ptr104drop_in_place$LT$syn..punctuated..Punctuated$LT$syn..generics..TypeParamBound$C$syn..token..Plus$GT$$GT$17ha3f51cd584941d71E.llvm.6230317567470246779', symObjAddr: 0x610, symBinAddr: 0x21380, symSize: 0x240 }
  - { offsetInCU: 0x4141, offset: 0xBC3D1, size: 0x8, addend: 0x0, symName: '__ZN4core3ptr105drop_in_place$LT$syn..punctuated..Punctuated$LT$syn..generics..WherePredicate$C$syn..token..Comma$GT$$GT$17he55656539e77b271E', symObjAddr: 0x850, symBinAddr: 0x215C0, symSize: 0x120 }
  - { offsetInCU: 0x4605, offset: 0xBC895, size: 0x8, addend: 0x0, symName: '__ZN4core3ptr116drop_in_place$LT$core..option..Option$LT$$LP$syn..token..Else$C$alloc..boxed..Box$LT$syn..expr..Expr$GT$$RP$$GT$$GT$17h2fcad8ea93c2d858E', symObjAddr: 0x970, symBinAddr: 0x216E0, symSize: 0x50 }
  - { offsetInCU: 0x47CA, offset: 0xBCA5A, size: 0x8, addend: 0x0, symName: '__ZN4core3ptr126drop_in_place$LT$core..option..Option$LT$$LP$syn..token..And$C$core..option..Option$LT$syn..lifetime..Lifetime$GT$$RP$$GT$$GT$17h04a354e79283f187E', symObjAddr: 0x9C0, symBinAddr: 0x21730, symSize: 0x30 }
  - { offsetInCU: 0x4A59, offset: 0xBCCE9, size: 0x8, addend: 0x0, symName: '__ZN4core3ptr33drop_in_place$LT$syn..ty..Abi$GT$17h7a0cf64e58880fbdE', symObjAddr: 0x9F0, symBinAddr: 0x21760, symSize: 0x70 }
  - { offsetInCU: 0x4A75, offset: 0xBCD05, size: 0x8, addend: 0x0, symName: '__ZN4core3ptr33drop_in_place$LT$syn..ty..Abi$GT$17h7a0cf64e58880fbdE', symObjAddr: 0x9F0, symBinAddr: 0x21760, symSize: 0x70 }
  - { offsetInCU: 0x4D4D, offset: 0xBCFDD, size: 0x8, addend: 0x0, symName: '__ZN4core3ptr34drop_in_place$LT$syn..lit..Lit$GT$17h0434771519353a93E', symObjAddr: 0xA60, symBinAddr: 0x217D0, symSize: 0x120 }
  - { offsetInCU: 0x525A, offset: 0xBD4EA, size: 0x8, addend: 0x0, symName: '__ZN4core3ptr34drop_in_place$LT$syn..pat..Pat$GT$17h23cd663dffbc1ca7E.llvm.6230317567470246779', symObjAddr: 0xB80, symBinAddr: 0x218F0, symSize: 0xF90 }
  - { offsetInCU: 0x9182, offset: 0xC1412, size: 0x8, addend: 0x0, symName: '__ZN4core3ptr34drop_in_place$LT$syn..ty..Type$GT$17h909bc58921451c92E.llvm.6230317567470246779', symObjAddr: 0x1B10, symBinAddr: 0x22880, symSize: 0x510 }
  - { offsetInCU: 0xA1C4, offset: 0xC2454, size: 0x8, addend: 0x0, symName: '__ZN4core3ptr35drop_in_place$LT$syn..expr..Arm$GT$17h3ae3b195382bed6cE.llvm.6230317567470246779', symObjAddr: 0x2020, symBinAddr: 0x22D90, symSize: 0x170 }
  - { offsetInCU: 0xA7F4, offset: 0xC2A84, size: 0x8, addend: 0x0, symName: '__ZN4core3ptr36drop_in_place$LT$syn..attr..Meta$GT$17h5eb98af069a32022E.llvm.6230317567470246779', symObjAddr: 0x2190, symBinAddr: 0x22F00, symSize: 0x220 }
  - { offsetInCU: 0xB36E, offset: 0xC35FE, size: 0x8, addend: 0x0, symName: '__ZN4core3ptr36drop_in_place$LT$syn..expr..Expr$GT$17h594b288408c7049cE.llvm.6230317567470246779', symObjAddr: 0x23B0, symBinAddr: 0x23120, symSize: 0x2790 }
  - { offsetInCU: 0x156CB, offset: 0xCD95B, size: 0x8, addend: 0x0, symName: '__ZN4core3ptr36drop_in_place$LT$syn..item..Item$GT$17hf077086b79374f3cE', symObjAddr: 0x4B40, symBinAddr: 0x258B0, symSize: 0x1980 }
  - { offsetInCU: 0x1B321, offset: 0xD35B1, size: 0x8, addend: 0x0, symName: '__ZN4core3ptr36drop_in_place$LT$syn..mac..Macro$GT$17h8834c68712008aa5E', symObjAddr: 0x64C0, symBinAddr: 0x27230, symSize: 0xE0 }
  - { offsetInCU: 0x1B64B, offset: 0xD38DB, size: 0x8, addend: 0x0, symName: '__ZN4core3ptr36drop_in_place$LT$syn..path..Path$GT$17ha7adc31831378d42E', symObjAddr: 0x65A0, symBinAddr: 0x27310, symSize: 0x180 }
  - { offsetInCU: 0x1BC56, offset: 0xD3EE6, size: 0x8, addend: 0x0, symName: '__ZN4core3ptr36drop_in_place$LT$syn..stmt..Stmt$GT$17hac4a98890e409235E.llvm.6230317567470246779', symObjAddr: 0x6720, symBinAddr: 0x27490, symSize: 0x380 }
  - { offsetInCU: 0x1C8BF, offset: 0xD4B4F, size: 0x8, addend: 0x0, symName: '__ZN4core3ptr37drop_in_place$LT$syn..data..Field$GT$17h0ddd9504ee454c7aE.llvm.6230317567470246779', symObjAddr: 0x6AA0, symBinAddr: 0x27810, symSize: 0x190 }
  - { offsetInCU: 0x1CEAF, offset: 0xD513F, size: 0x8, addend: 0x0, symName: '__ZN4core3ptr37drop_in_place$LT$syn..item..FnArg$GT$17h1a20bbbda53d2965E', symObjAddr: 0x6C30, symBinAddr: 0x279A0, symSize: 0x230 }
  - { offsetInCU: 0x1D7C6, offset: 0xD5A56, size: 0x8, addend: 0x0, symName: '__ZN4core3ptr37drop_in_place$LT$syn..stmt..Block$GT$17h53c13e8fb8186919E', symObjAddr: 0x6E60, symBinAddr: 0x27BD0, symSize: 0xD0 }
  - { offsetInCU: 0x1DAA4, offset: 0xD5D34, size: 0x8, addend: 0x0, symName: '__ZN4core3ptr38drop_in_place$LT$syn..expr..Member$GT$17h72e5bb4cd394e37dE.llvm.6230317567470246779', symObjAddr: 0x6F30, symBinAddr: 0x27CA0, symSize: 0x30 }
  - { offsetInCU: 0x1DBA0, offset: 0xD5E30, size: 0x8, addend: 0x0, symName: '__ZN4core3ptr38drop_in_place$LT$syn..pat..PatType$GT$17h7e87261910ce35e6E', symObjAddr: 0x6F60, symBinAddr: 0x27CD0, symSize: 0x140 }
  - { offsetInCU: 0x1E152, offset: 0xD63E2, size: 0x8, addend: 0x0, symName: '__ZN4core3ptr39drop_in_place$LT$proc_macro2..Ident$GT$17h5478e913d990d07bE.llvm.6230317567470246779', symObjAddr: 0x70A0, symBinAddr: 0x27E10, symSize: 0x30 }
  - { offsetInCU: 0x1E28C, offset: 0xD651C, size: 0x8, addend: 0x0, symName: '__ZN4core3ptr39drop_in_place$LT$syn..data..Variant$GT$17hda7a47c5c0c4b08bE.llvm.6230317567470246779', symObjAddr: 0x70D0, symBinAddr: 0x27E40, symSize: 0x2F0 }
  - { offsetInCU: 0x1EF27, offset: 0xD71B7, size: 0x8, addend: 0x0, symName: '__ZN4core3ptr39drop_in_place$LT$syn..item..UseTree$GT$17hb89c78d38870947bE', symObjAddr: 0x73C0, symBinAddr: 0x28130, symSize: 0x1E0 }
  - { offsetInCU: 0x1F680, offset: 0xD7910, size: 0x8, addend: 0x0, symName: '__ZN4core3ptr40drop_in_place$LT$syn..item..ImplItem$GT$17h91f7af3e2958db7cE', symObjAddr: 0x75A0, symBinAddr: 0x28310, symSize: 0x220 }
  - { offsetInCU: 0x1FCCD, offset: 0xD7F5D, size: 0x8, addend: 0x0, symName: '__ZN4core3ptr40drop_in_place$LT$syn..item..Receiver$GT$17hf4af9b59e8f1f2d3E', symObjAddr: 0x77C0, symBinAddr: 0x28530, symSize: 0x130 }
  - { offsetInCU: 0x202CB, offset: 0xD855B, size: 0x8, addend: 0x0, symName: '__ZN4core3ptr40drop_in_place$LT$syn..item..Variadic$GT$17h88cf7d3c04485929E', symObjAddr: 0x78F0, symBinAddr: 0x28660, symSize: 0x120 }
  - { offsetInCU: 0x2076E, offset: 0xD89FE, size: 0x8, addend: 0x0, symName: '__ZN4core3ptr40drop_in_place$LT$syn..ty..ReturnType$GT$17h9812afc0e63dd5ffE.llvm.6230317567470246779', symObjAddr: 0x7A10, symBinAddr: 0x28780, symSize: 0x50 }
  - { offsetInCU: 0x208FD, offset: 0xD8B8D, size: 0x8, addend: 0x0, symName: '__ZN4core3ptr41drop_in_place$LT$syn..attr..Attribute$GT$17hb6e63553e4fc1fc4E.llvm.6230317567470246779', symObjAddr: 0x7A60, symBinAddr: 0x287D0, symSize: 0x160 }
  - { offsetInCU: 0x20DD1, offset: 0xD9061, size: 0x8, addend: 0x0, symName: '__ZN4core3ptr41drop_in_place$LT$syn..item..Signature$GT$17ha863cd0eacb37a71E', symObjAddr: 0x7BC0, symBinAddr: 0x28930, symSize: 0x270 }
  - { offsetInCU: 0x218E6, offset: 0xD9B76, size: 0x8, addend: 0x0, symName: '__ZN4core3ptr41drop_in_place$LT$syn..item..TraitItem$GT$17h251c9fb73ea1b634E', symObjAddr: 0x7E30, symBinAddr: 0x28BA0, symSize: 0x3D0 }
  - { offsetInCU: 0x22524, offset: 0xDA7B4, size: 0x8, addend: 0x0, symName: '__ZN4core3ptr42drop_in_place$LT$syn..item..ImplItemFn$GT$17h420d491956bc301aE', symObjAddr: 0x8200, symBinAddr: 0x28F70, symSize: 0x230 }
  - { offsetInCU: 0x22CE7, offset: 0xDAF77, size: 0x8, addend: 0x0, symName: '__ZN4core3ptr42drop_in_place$LT$syn..path..Constraint$GT$17hb28efaa6c9c7b351E', symObjAddr: 0x8430, symBinAddr: 0x291A0, symSize: 0x160 }
  - { offsetInCU: 0x233B4, offset: 0xDB644, size: 0x8, addend: 0x0, symName: '__ZN4core3ptr43drop_in_place$LT$proc_macro2..TokenTree$GT$17hf2eaab6769b0f4a4E.llvm.6230317567470246779', symObjAddr: 0x8590, symBinAddr: 0x29300, symSize: 0xB0 }
  - { offsetInCU: 0x23711, offset: 0xDB9A1, size: 0x8, addend: 0x0, symName: '__ZN4core3ptr43drop_in_place$LT$syn..data..FieldsNamed$GT$17hb8f1fc77ddebb133E', symObjAddr: 0x8640, symBinAddr: 0x293B0, symSize: 0x120 }
  - { offsetInCU: 0x23BD5, offset: 0xDBE65, size: 0x8, addend: 0x0, symName: '__ZN4core3ptr43drop_in_place$LT$syn..item..ForeignItem$GT$17h0c67c10e71452115E', symObjAddr: 0x8760, symBinAddr: 0x294D0, symSize: 0x340 }
  - { offsetInCU: 0x245E6, offset: 0xDC876, size: 0x8, addend: 0x0, symName: '__ZN4core3ptr43drop_in_place$LT$syn..path..PathSegment$GT$17h256973c71093d537E.llvm.6230317567470246779', symObjAddr: 0x8AA0, symBinAddr: 0x29810, symSize: 0x190 }
  - { offsetInCU: 0x24BA6, offset: 0xDCE36, size: 0x8, addend: 0x0, symName: '__ZN4core3ptr44drop_in_place$LT$syn..generics..Generics$GT$17h4ff00b52cfb32523E', symObjAddr: 0x8C30, symBinAddr: 0x299A0, symSize: 0x160 }
  - { offsetInCU: 0x2507F, offset: 0xDD30F, size: 0x8, addend: 0x0, symName: '__ZN4core3ptr44drop_in_place$LT$syn..item..ImplItemType$GT$17h0b0c1bd89de9d8f0E', symObjAddr: 0x8D90, symBinAddr: 0x29B00, symSize: 0x1F0 }
  - { offsetInCU: 0x25692, offset: 0xDD922, size: 0x8, addend: 0x0, symName: '__ZN4core3ptr44drop_in_place$LT$syn..lifetime..Lifetime$GT$17h93bd87bb57a48243E.llvm.6230317567470246779', symObjAddr: 0x8F80, symBinAddr: 0x29CF0, symSize: 0x30 }
  - { offsetInCU: 0x257EB, offset: 0xDDA7B, size: 0x8, addend: 0x0, symName: '__ZN4core3ptr45drop_in_place$LT$proc_macro2..TokenStream$GT$17h9ee0c9f276c276e4E.llvm.6230317567470246779', symObjAddr: 0x8FB0, symBinAddr: 0x29D20, symSize: 0x70 }
  - { offsetInCU: 0x25952, offset: 0xDDBE2, size: 0x8, addend: 0x0, symName: '__ZN4core3ptr45drop_in_place$LT$syn..generics..TypeParam$GT$17hdb94c232af087417E.llvm.6230317567470246779', symObjAddr: 0x9020, symBinAddr: 0x29D90, symSize: 0x230 }
  - { offsetInCU: 0x261BC, offset: 0xDE44C, size: 0x8, addend: 0x0, symName: '__ZN4core3ptr45drop_in_place$LT$syn..item..ImplItemConst$GT$17h7248134b0263bf6fE', symObjAddr: 0x9250, symBinAddr: 0x29FC0, symSize: 0x210 }
  - { offsetInCU: 0x2680D, offset: 0xDEA9D, size: 0x8, addend: 0x0, symName: '__ZN4core3ptr45drop_in_place$LT$syn..item..TraitItemType$GT$17h8e31291556efc10dE', symObjAddr: 0x9460, symBinAddr: 0x2A1D0, symSize: 0x290 }
  - { offsetInCU: 0x27177, offset: 0xDF407, size: 0x8, addend: 0x0, symName: '__ZN4core3ptr46drop_in_place$LT$syn..generics..ConstParam$GT$17h7d9dde693af058dcE.llvm.6230317567470246779', symObjAddr: 0x96F0, symBinAddr: 0x2A460, symSize: 0x150 }
  - { offsetInCU: 0x27571, offset: 0xDF801, size: 0x8, addend: 0x0, symName: '__ZN4core3ptr46drop_in_place$LT$syn..item..TraitItemConst$GT$17he197fc33ffeb21e9E', symObjAddr: 0x9840, symBinAddr: 0x2A5B0, symSize: 0x1B0 }
  - { offsetInCU: 0x27A52, offset: 0xDFCE2, size: 0x8, addend: 0x0, symName: '__ZN4core3ptr47drop_in_place$LT$syn..generics..WhereClause$GT$17h90207589c7f62fadE', symObjAddr: 0x99F0, symBinAddr: 0x2A760, symSize: 0x120 }
  - { offsetInCU: 0x27ED8, offset: 0xE0168, size: 0x8, addend: 0x0, symName: '__ZN4core3ptr47drop_in_place$LT$syn..item..ForeignItemType$GT$17ha97d2fc16a4ca895E', symObjAddr: 0x9B10, symBinAddr: 0x2A880, symSize: 0x1B0 }
  - { offsetInCU: 0x28546, offset: 0xE07D6, size: 0x8, addend: 0x0, symName: '__ZN4core3ptr47drop_in_place$LT$syn..path..GenericArgument$GT$17he376c5495bfba2aeE', symObjAddr: 0x9CC0, symBinAddr: 0x2AA30, symSize: 0x1C0 }
  - { offsetInCU: 0x289EB, offset: 0xE0C7B, size: 0x8, addend: 0x0, symName: '__ZN4core3ptr49drop_in_place$LT$syn..generics..LifetimeParam$GT$17h96cd9c33a102590dE.llvm.6230317567470246779', symObjAddr: 0x9E80, symBinAddr: 0x2ABF0, symSize: 0xF0 }
  - { offsetInCU: 0x28DD5, offset: 0xE1065, size: 0x8, addend: 0x0, symName: '__ZN4core3ptr49drop_in_place$LT$syn..item..ForeignItemStatic$GT$17ha479dcdccd2495e2E', symObjAddr: 0x9F70, symBinAddr: 0x2ACE0, symSize: 0x190 }
  - { offsetInCU: 0x294D7, offset: 0xE1767, size: 0x8, addend: 0x0, symName: '__ZN4core3ptr50drop_in_place$LT$$u5b$syn..item..ImplItem$u5d$$GT$17haecb84ca83f36bafE', symObjAddr: 0xA100, symBinAddr: 0x2AE70, symSize: 0x210 }
  - { offsetInCU: 0x2984B, offset: 0xE1ADB, size: 0x8, addend: 0x0, symName: '__ZN4core3ptr50drop_in_place$LT$syn..generics..TypeParamBound$GT$17h6ae628d1347497b7E', symObjAddr: 0xA310, symBinAddr: 0x2B080, symSize: 0xA0 }
  - { offsetInCU: 0x299EF, offset: 0xE1C7F, size: 0x8, addend: 0x0, symName: '__ZN4core3ptr50drop_in_place$LT$syn..generics..WherePredicate$GT$17h0636ac574991fb76E.llvm.6230317567470246779', symObjAddr: 0xA3B0, symBinAddr: 0x2B120, symSize: 0xA0 }
  - { offsetInCU: 0x29BB2, offset: 0xE1E42, size: 0x8, addend: 0x0, symName: '__ZN4core3ptr51drop_in_place$LT$$u5b$syn..item..TraitItem$u5d$$GT$17hcc80fa8f3c93f90bE', symObjAddr: 0xA450, symBinAddr: 0x2B1C0, symSize: 0x3E0 }
  - { offsetInCU: 0x2A554, offset: 0xE27E4, size: 0x8, addend: 0x0, symName: '__ZN4core3ptr52drop_in_place$LT$syn..restriction..VisRestricted$GT$17hcbff6c127efac225E', symObjAddr: 0xA830, symBinAddr: 0x2B5A0, symSize: 0x50 }
  - { offsetInCU: 0x2A6EB, offset: 0xE297B, size: 0x8, addend: 0x0, symName: '__ZN4core3ptr53drop_in_place$LT$$u5b$syn..item..ForeignItem$u5d$$GT$17h206a820152f94840E', symObjAddr: 0xA880, symBinAddr: 0x2B5F0, symSize: 0x370 }
  - { offsetInCU: 0x2AF09, offset: 0xE3199, size: 0x8, addend: 0x0, symName: '__ZN4core3ptr58drop_in_place$LT$alloc..vec..Vec$LT$syn..expr..Arm$GT$$GT$17h4100114fe8e302a1E', symObjAddr: 0xABF0, symBinAddr: 0x2B960, symSize: 0xD0 }
  - { offsetInCU: 0x2B1D0, offset: 0xE3460, size: 0x8, addend: 0x0, symName: '__ZN4core3ptr59drop_in_place$LT$alloc..boxed..Box$LT$syn..pat..Pat$GT$$GT$17hd6381a96bf9e5421E.llvm.6230317567470246779', symObjAddr: 0xACC0, symBinAddr: 0x2BA30, symSize: 0x50 }
  - { offsetInCU: 0x2B329, offset: 0xE35B9, size: 0x8, addend: 0x0, symName: '__ZN4core3ptr59drop_in_place$LT$alloc..boxed..Box$LT$syn..ty..Type$GT$$GT$17hc3e166ebcc84a858E', symObjAddr: 0xAD10, symBinAddr: 0x2BA80, symSize: 0x50 }
  - { offsetInCU: 0x2B482, offset: 0xE3712, size: 0x8, addend: 0x0, symName: '__ZN4core3ptr59drop_in_place$LT$alloc..vec..Vec$LT$syn..item..Item$GT$$GT$17hf6ea4ed239b93bfcE', symObjAddr: 0xAD60, symBinAddr: 0x2BAD0, symSize: 0xD0 }
  - { offsetInCU: 0x2B749, offset: 0xE39D9, size: 0x8, addend: 0x0, symName: '__ZN4core3ptr61drop_in_place$LT$alloc..boxed..Box$LT$syn..expr..Expr$GT$$GT$17h8a3c09d087fc5969E', symObjAddr: 0xAE30, symBinAddr: 0x2BBA0, symSize: 0x50 }
  - { offsetInCU: 0x2B8A2, offset: 0xE3B32, size: 0x8, addend: 0x0, symName: '__ZN4core3ptr61drop_in_place$LT$alloc..boxed..Box$LT$syn..path..Path$GT$$GT$17ha42e2630c5edd697E', symObjAddr: 0xAE80, symBinAddr: 0x2BBF0, symSize: 0x100 }
  - { offsetInCU: 0x2BDC2, offset: 0xE4052, size: 0x8, addend: 0x0, symName: '__ZN4core3ptr61drop_in_place$LT$syn..path..ParenthesizedGenericArguments$GT$17hd70bdf37aa6ff03cE.llvm.6230317567470246779', symObjAddr: 0xAF80, symBinAddr: 0x2BCF0, symSize: 0x170 }
  - { offsetInCU: 0x2C3BF, offset: 0xE464F, size: 0x8, addend: 0x0, symName: '__ZN4core3ptr62drop_in_place$LT$alloc..boxed..Box$LT$syn..data..Field$GT$$GT$17ha707e46c8c02a4fbE', symObjAddr: 0xB0F0, symBinAddr: 0x2BE60, symSize: 0x50 }
  - { offsetInCU: 0x2C537, offset: 0xE47C7, size: 0x8, addend: 0x0, symName: '__ZN4core3ptr62drop_in_place$LT$alloc..boxed..Box$LT$syn..item..FnArg$GT$$GT$17h046dbc6001efdaf9E', symObjAddr: 0xB140, symBinAddr: 0x2BEB0, symSize: 0x60 }
  - { offsetInCU: 0x2C6AD, offset: 0xE493D, size: 0x8, addend: 0x0, symName: '__ZN4core3ptr62drop_in_place$LT$alloc..boxed..Box$LT$syn..stmt..Block$GT$$GT$17h8e897edff3e46ef1E', symObjAddr: 0xB1A0, symBinAddr: 0x2BF10, symSize: 0xE0 }
  - { offsetInCU: 0x2CAC6, offset: 0xE4D56, size: 0x8, addend: 0x0, symName: '__ZN4core3ptr62drop_in_place$LT$syn..path..AngleBracketedGenericArguments$GT$17h158f3574e37847e0E.llvm.6230317567470246779', symObjAddr: 0xB280, symBinAddr: 0x2BFF0, symSize: 0x120 }
  - { offsetInCU: 0x2CF4C, offset: 0xE51DC, size: 0x8, addend: 0x0, symName: '__ZN4core3ptr63drop_in_place$LT$alloc..vec..Vec$LT$syn..item..ImplItem$GT$$GT$17hb22362c85347111dE', symObjAddr: 0xB3A0, symBinAddr: 0x2C110, symSize: 0x80 }
  - { offsetInCU: 0x2D204, offset: 0xE5494, size: 0x8, addend: 0x0, symName: '__ZN4core3ptr64drop_in_place$LT$alloc..boxed..Box$LT$syn..data..Variant$GT$$GT$17h2274bf9c7bf7b425E', symObjAddr: 0xB420, symBinAddr: 0x2C190, symSize: 0x50 }
  - { offsetInCU: 0x2D35D, offset: 0xE55ED, size: 0x8, addend: 0x0, symName: '__ZN4core3ptr64drop_in_place$LT$alloc..boxed..Box$LT$syn..item..UseTree$GT$$GT$17h6c438503b6203990E', symObjAddr: 0xB470, symBinAddr: 0x2C1E0, symSize: 0x50 }
  - { offsetInCU: 0x2D4F4, offset: 0xE5784, size: 0x8, addend: 0x0, symName: '__ZN4core3ptr64drop_in_place$LT$alloc..boxed..Box$LT$syn..pat..FieldPat$GT$$GT$17h3365f38bda158625E', symObjAddr: 0xB4C0, symBinAddr: 0x2C230, symSize: 0x140 }
  - { offsetInCU: 0x2DBBE, offset: 0xE5E4E, size: 0x8, addend: 0x0, symName: '__ZN4core3ptr64drop_in_place$LT$alloc..boxed..Box$LT$syn..ty..BareFnArg$GT$$GT$17h6b76f3676f3d0a49E', symObjAddr: 0xB600, symBinAddr: 0x2C370, symSize: 0x140 }
  - { offsetInCU: 0x2E151, offset: 0xE63E1, size: 0x8, addend: 0x0, symName: '__ZN4core3ptr64drop_in_place$LT$alloc..vec..Vec$LT$syn..attr..Attribute$GT$$GT$17hbe6f1c54229c385dE', symObjAddr: 0xB740, symBinAddr: 0x2C4B0, symSize: 0xD0 }
  - { offsetInCU: 0x2E44C, offset: 0xE66DC, size: 0x8, addend: 0x0, symName: '__ZN4core3ptr64drop_in_place$LT$alloc..vec..Vec$LT$syn..item..TraitItem$GT$$GT$17hd5708c0b612adb92E', symObjAddr: 0xB810, symBinAddr: 0x2C580, symSize: 0x80 }
  - { offsetInCU: 0x2E704, offset: 0xE6994, size: 0x8, addend: 0x0, symName: '__ZN4core3ptr65drop_in_place$LT$$LP$syn..item..FnArg$C$syn..token..Comma$RP$$GT$17h1a6a431e83773d28E', symObjAddr: 0xB890, symBinAddr: 0x2C600, symSize: 0x20 }
  - { offsetInCU: 0x2E79D, offset: 0xE6A2D, size: 0x8, addend: 0x0, symName: '__ZN4core3ptr65drop_in_place$LT$alloc..vec..Vec$LT$proc_macro..TokenTree$GT$$GT$17h7cd89395d30d9dbfE.llvm.6230317567470246779', symObjAddr: 0xB8B0, symBinAddr: 0x2C620, symSize: 0x110 }
  - { offsetInCU: 0x2EBAF, offset: 0xE6E3F, size: 0x8, addend: 0x0, symName: '__ZN4core3ptr65drop_in_place$LT$core..option..Option$LT$syn..expr..Label$GT$$GT$17h54063f51e70a6435E', symObjAddr: 0xB9C0, symBinAddr: 0x2C730, symSize: 0x30 }
  - { offsetInCU: 0x2ECE9, offset: 0xE6F79, size: 0x8, addend: 0x0, symName: '__ZN4core3ptr65drop_in_place$LT$core..option..Option$LT$syn..stmt..Block$GT$$GT$17h2d1754aa953cb374E', symObjAddr: 0xB9F0, symBinAddr: 0x2C760, symSize: 0xD0 }
  - { offsetInCU: 0x2EFBE, offset: 0xE724E, size: 0x8, addend: 0x0, symName: '__ZN4core3ptr66drop_in_place$LT$alloc..vec..Vec$LT$syn..item..ForeignItem$GT$$GT$17h3f6a2cf10d6b332dE', symObjAddr: 0xBAC0, symBinAddr: 0x2C830, symSize: 0x80 }
  - { offsetInCU: 0x2F276, offset: 0xE7506, size: 0x8, addend: 0x0, symName: '__ZN4core3ptr67drop_in_place$LT$$LP$syn..pat..FieldPat$C$syn..token..Comma$RP$$GT$17h8d74135fd6756aceE.llvm.6230317567470246779', symObjAddr: 0xBB40, symBinAddr: 0x2C8B0, symSize: 0x120 }
  - { offsetInCU: 0x2F80B, offset: 0xE7A9B, size: 0x8, addend: 0x0, symName: '__ZN4core3ptr67drop_in_place$LT$$LP$syn..ty..BareFnArg$C$syn..token..Comma$RP$$GT$17h0450c915292f5d3cE.llvm.6230317567470246779', symObjAddr: 0xBC60, symBinAddr: 0x2C9D0, symSize: 0x110 }
  - { offsetInCU: 0x2FC89, offset: 0xE7F19, size: 0x8, addend: 0x0, symName: '__ZN4core3ptr67drop_in_place$LT$alloc..boxed..Box$LT$syn..expr..FieldValue$GT$$GT$17h985c67b90f2c7616E', symObjAddr: 0xBD70, symBinAddr: 0x2CAE0, symSize: 0x140 }
  - { offsetInCU: 0x301FC, offset: 0xE848C, size: 0x8, addend: 0x0, symName: '__ZN4core3ptr68drop_in_place$LT$alloc..boxed..Box$LT$syn..path..PathSegment$GT$$GT$17ha1d12c8f4e9758ceE', symObjAddr: 0xBEB0, symBinAddr: 0x2CC20, symSize: 0xF0 }
  - { offsetInCU: 0x305FE, offset: 0xE888E, size: 0x8, addend: 0x0, symName: '__ZN4core3ptr69drop_in_place$LT$core..option..Option$LT$syn..stmt..LocalInit$GT$$GT$17h74ecc41b38c246cbE', symObjAddr: 0xBFA0, symBinAddr: 0x2CD10, symSize: 0xC0 }
  - { offsetInCU: 0x30922, offset: 0xE8BB2, size: 0x8, addend: 0x0, symName: '__ZN4core3ptr70drop_in_place$LT$$LP$syn..expr..FieldValue$C$syn..token..Comma$RP$$GT$17h1cc3f5cd5c94041cE.llvm.6230317567470246779', symObjAddr: 0xC060, symBinAddr: 0x2CDD0, symSize: 0x110 }
  - { offsetInCU: 0x30D61, offset: 0xE8FF1, size: 0x8, addend: 0x0, symName: '__ZN4core3ptr70drop_in_place$LT$core..option..Option$LT$syn..ty..BareVariadic$GT$$GT$17he81f389e5718409eE', symObjAddr: 0xC170, symBinAddr: 0x2CEE0, symSize: 0x100 }
  - { offsetInCU: 0x311C0, offset: 0xE9450, size: 0x8, addend: 0x0, symName: '__ZN4core3ptr72drop_in_place$LT$alloc..boxed..Box$LT$syn..path..GenericArgument$GT$$GT$17h1b9e463cda3248a8E.llvm.6230317567470246779', symObjAddr: 0xC270, symBinAddr: 0x2CFE0, symSize: 0x190 }
  - { offsetInCU: 0x31688, offset: 0xE9918, size: 0x8, addend: 0x0, symName: '__ZN4core3ptr73drop_in_place$LT$$LP$syn..path..PathSegment$C$syn..token..PathSep$RP$$GT$17h5ada4a09b6ca183bE.llvm.6230317567470246779', symObjAddr: 0xC400, symBinAddr: 0x2D170, symSize: 0xD0 }
  - { offsetInCU: 0x3194B, offset: 0xE9BDB, size: 0x8, addend: 0x0, symName: '__ZN4core3ptr73drop_in_place$LT$alloc..boxed..Box$LT$syn..generics..GenericParam$GT$$GT$17h3331d3ffd607b7a6E', symObjAddr: 0xC4D0, symBinAddr: 0x2D240, symSize: 0x80 }
  - { offsetInCU: 0x31AC1, offset: 0xE9D51, size: 0x8, addend: 0x0, symName: '__ZN4core3ptr75drop_in_place$LT$$LP$syn..path..GenericArgument$C$syn..token..Comma$RP$$GT$17hfc7909ab8fb3259bE.llvm.6230317567470246779', symObjAddr: 0xC550, symBinAddr: 0x2D2C0, symSize: 0x180 }
  - { offsetInCU: 0x31E4F, offset: 0xEA0DF, size: 0x8, addend: 0x0, symName: '__ZN4core3ptr75drop_in_place$LT$alloc..boxed..Box$LT$syn..generics..TypeParamBound$GT$$GT$17heae9d7d18d79ffc2E', symObjAddr: 0xC6D0, symBinAddr: 0x2D440, symSize: 0x180 }
  - { offsetInCU: 0x32419, offset: 0xEA6A9, size: 0x8, addend: 0x0, symName: '__ZN4core3ptr75drop_in_place$LT$alloc..boxed..Box$LT$syn..generics..WherePredicate$GT$$GT$17hc6f9031131ad3e87E', symObjAddr: 0xC850, symBinAddr: 0x2D5C0, symSize: 0x50 }
  - { offsetInCU: 0x32572, offset: 0xEA802, size: 0x8, addend: 0x0, symName: '__ZN4core3ptr76drop_in_place$LT$$LP$syn..generics..GenericParam$C$syn..token..Comma$RP$$GT$17h93b74fc4bfb92711E.llvm.6230317567470246779', symObjAddr: 0xC8A0, symBinAddr: 0x2D610, symSize: 0x40 }
  - { offsetInCU: 0x325AE, offset: 0xEA83E, size: 0x8, addend: 0x0, symName: '__ZN4core3ptr77drop_in_place$LT$$LP$syn..generics..TypeParamBound$C$syn..token..Plus$RP$$GT$17ha373c1591a0b3f17E.llvm.6230317567470246779', symObjAddr: 0xC8E0, symBinAddr: 0x2D650, symSize: 0x180 }
  - { offsetInCU: 0x32A4A, offset: 0xEACDA, size: 0x8, addend: 0x0, symName: '__ZN4core3ptr86drop_in_place$LT$$LP$syn..token..If$C$alloc..boxed..Box$LT$syn..expr..Expr$GT$$RP$$GT$17h472b5caef0deaefaE', symObjAddr: 0xCA60, symBinAddr: 0x2D7D0, symSize: 0x50 }
  - { offsetInCU: 0x32C5D, offset: 0xEAEED, size: 0x8, addend: 0x0, symName: '__ZN4core3ptr86drop_in_place$LT$syn..punctuated..Punctuated$LT$syn..pat..Pat$C$syn..token..Or$GT$$GT$17h033a362705bb3bb5E', symObjAddr: 0xCAB0, symBinAddr: 0x2D820, symSize: 0x120 }
  - { offsetInCU: 0x330F6, offset: 0xEB386, size: 0x8, addend: 0x0, symName: '__ZN4core3ptr87drop_in_place$LT$$LP$alloc..boxed..Box$LT$syn..pat..Pat$GT$$C$syn..token..Colon$RP$$GT$17h6f461ca1c7ebe57eE', symObjAddr: 0xCBD0, symBinAddr: 0x2D940, symSize: 0x50 }
  - { offsetInCU: 0x3326E, offset: 0xEB4FE, size: 0x8, addend: 0x0, symName: '__ZN4core3ptr87drop_in_place$LT$core..option..Option$LT$alloc..boxed..Box$LT$syn..ty..Type$GT$$GT$$GT$17h9272f0759741e526E', symObjAddr: 0xCC20, symBinAddr: 0x2D990, symSize: 0x50 }
  - { offsetInCU: 0x333DE, offset: 0xEB66E, size: 0x8, addend: 0x0, symName: '__ZN4core3ptr89drop_in_place$LT$core..option..Option$LT$alloc..boxed..Box$LT$syn..expr..Expr$GT$$GT$$GT$17h1b402876673ee224E', symObjAddr: 0xCC70, symBinAddr: 0x2D9E0, symSize: 0x50 }
  - { offsetInCU: 0x3354E, offset: 0xEB7DE, size: 0x8, addend: 0x0, symName: '__ZN4core3ptr89drop_in_place$LT$syn..punctuated..Punctuated$LT$syn..ty..Type$C$syn..token..Comma$GT$$GT$17hfe815f139041dbd4E.llvm.6230317567470246779', symObjAddr: 0xCCC0, symBinAddr: 0x2DA30, symSize: 0x120 }
  - { offsetInCU: 0x339D0, offset: 0xEBC60, size: 0x8, addend: 0x0, symName: '__ZN4core3ptr90drop_in_place$LT$core..option..Option$LT$alloc..boxed..Box$LT$syn..data..Field$GT$$GT$$GT$17h4856bf7e0667162fE', symObjAddr: 0xCDE0, symBinAddr: 0x2DB50, symSize: 0x50 }
  - { offsetInCU: 0x33B40, offset: 0xEBDD0, size: 0x8, addend: 0x0, symName: '__ZN4core3ptr90drop_in_place$LT$core..option..Option$LT$alloc..boxed..Box$LT$syn..item..FnArg$GT$$GT$$GT$17h8ac05b75c053970fE', symObjAddr: 0xCE30, symBinAddr: 0x2DBA0, symSize: 0x50 }
  - { offsetInCU: 0x33D2C, offset: 0xEBFBC, size: 0x8, addend: 0x0, symName: '__ZN4core3ptr91drop_in_place$LT$syn..punctuated..Punctuated$LT$syn..expr..Expr$C$syn..token..Comma$GT$$GT$17h2089aa266eda8e71E', symObjAddr: 0xCE80, symBinAddr: 0x2DBF0, symSize: 0x120 }
  - { offsetInCU: 0x341C1, offset: 0xEC451, size: 0x8, addend: 0x0, symName: '__ZN4core3ptr92drop_in_place$LT$core..option..Option$LT$$LP$syn..token..As$C$proc_macro2..Ident$RP$$GT$$GT$17h047e6e94eb8e9d6dE', symObjAddr: 0xCFA0, symBinAddr: 0x2DD10, symSize: 0x30 }
  - { offsetInCU: 0x342DC, offset: 0xEC56C, size: 0x8, addend: 0x0, symName: '__ZN4core3ptr92drop_in_place$LT$syn..punctuated..Punctuated$LT$syn..data..Field$C$syn..token..Comma$GT$$GT$17h4636bc8305ceda50E', symObjAddr: 0xCFD0, symBinAddr: 0x2DD40, symSize: 0x120 }
  - { offsetInCU: 0x34762, offset: 0xEC9F2, size: 0x8, addend: 0x0, symName: '__ZN4core3ptr92drop_in_place$LT$syn..punctuated..Punctuated$LT$syn..item..FnArg$C$syn..token..Comma$GT$$GT$17h529ac334c761afcbE', symObjAddr: 0xD0F0, symBinAddr: 0x2DE60, symSize: 0x150 }
  - { offsetInCU: 0x34CAD, offset: 0xECF3D, size: 0x8, addend: 0x0, symName: '__ZN4core3ptr94drop_in_place$LT$syn..punctuated..Punctuated$LT$syn..data..Variant$C$syn..token..Comma$GT$$GT$17h3faabe6d88c0d933E', symObjAddr: 0xD240, symBinAddr: 0x2DFB0, symSize: 0x120 }
  - { offsetInCU: 0x351BE, offset: 0xED44E, size: 0x8, addend: 0x0, symName: '__ZN4core3ptr94drop_in_place$LT$syn..punctuated..Punctuated$LT$syn..pat..FieldPat$C$syn..token..Comma$GT$$GT$17hebbefb546a57efdfE', symObjAddr: 0xD360, symBinAddr: 0x2E0D0, symSize: 0xF0 }
  - { offsetInCU: 0x35553, offset: 0xED7E3, size: 0x8, addend: 0x0, symName: '__ZN4core3ptr94drop_in_place$LT$syn..punctuated..Punctuated$LT$syn..ty..BareFnArg$C$syn..token..Comma$GT$$GT$17h8a5a74831bf9b9a0E', symObjAddr: 0xD450, symBinAddr: 0x2E1C0, symSize: 0xF0 }
  - { offsetInCU: 0x3586E, offset: 0xEDAFE, size: 0x8, addend: 0x0, symName: '__ZN4core3ptr95drop_in_place$LT$core..option..Option$LT$$LP$proc_macro2..Ident$C$syn..token..Colon$RP$$GT$$GT$17h832681df5a7527bdE.llvm.6230317567470246779', symObjAddr: 0xD540, symBinAddr: 0x2E2B0, symSize: 0x30 }
  - { offsetInCU: 0x35989, offset: 0xEDC19, size: 0x8, addend: 0x0, symName: '__ZN4core3ptr96drop_in_place$LT$core..option..Option$LT$alloc..boxed..Box$LT$syn..path..PathSegment$GT$$GT$$GT$17h34901984f508e5eeE.llvm.6230317567470246779', symObjAddr: 0xD570, symBinAddr: 0x2E2E0, symSize: 0xA0 }
  - { offsetInCU: 0x35C84, offset: 0xEDF14, size: 0x8, addend: 0x0, symName: '__ZN4core3ptr97drop_in_place$LT$syn..punctuated..Punctuated$LT$syn..expr..FieldValue$C$syn..token..Comma$GT$$GT$17h1114c1cefa0baa61E', symObjAddr: 0xD610, symBinAddr: 0x2E380, symSize: 0xF0 }
  - { offsetInCU: 0x36055, offset: 0xEE2E5, size: 0x8, addend: 0x0, symName: '__ZN4core3ptr98drop_in_place$LT$syn..punctuated..Punctuated$LT$syn..lifetime..Lifetime$C$syn..token..Plus$GT$$GT$17hf5d593077ac66faeE.llvm.6230317567470246779', symObjAddr: 0xD700, symBinAddr: 0x2E470, symSize: 0xD0 }
  - { offsetInCU: 0x39BD9, offset: 0xF1E69, size: 0x8, addend: 0x0, symName: '__ZN70_$LT$alloc..vec..Vec$LT$T$C$A$GT$$u20$as$u20$core..ops..drop..Drop$GT$4drop17h2db42c12447913fbE', symObjAddr: 0xDC90, symBinAddr: 0x2E780, symSize: 0x50 }
  - { offsetInCU: 0x39CEE, offset: 0xF1F7E, size: 0x8, addend: 0x0, symName: '__ZN70_$LT$alloc..vec..Vec$LT$T$C$A$GT$$u20$as$u20$core..ops..drop..Drop$GT$4drop17h5e45faf22aa13d0eE', symObjAddr: 0xE010, symBinAddr: 0x2E7D0, symSize: 0x50 }
  - { offsetInCU: 0x39E0A, offset: 0xF209A, size: 0x8, addend: 0x0, symName: '__ZN70_$LT$alloc..vec..Vec$LT$T$C$A$GT$$u20$as$u20$core..ops..drop..Drop$GT$4drop17hd6b4d5c8eeddadbbE', symObjAddr: 0xE3E0, symBinAddr: 0x2E820, symSize: 0xB0 }
  - { offsetInCU: 0x39FEF, offset: 0xF227F, size: 0x8, addend: 0x0, symName: '__ZN67_$LT$alloc..vec..Vec$LT$T$C$A$GT$$u20$as$u20$core..clone..Clone$GT$5clone17h1161495047e5df0bE', symObjAddr: 0xD7D0, symBinAddr: 0x2E540, symSize: 0x240 }
  - { offsetInCU: 0x3A6E4, offset: 0xF2974, size: 0x8, addend: 0x0, symName: '__ZN98_$LT$alloc..vec..Vec$LT$T$GT$$u20$as$u20$alloc..vec..spec_from_iter..SpecFromIter$LT$T$C$I$GT$$GT$9from_iter17h41dee7a0d8e8ef73E', symObjAddr: 0xE950, symBinAddr: 0x2E8D0, symSize: 0x3A4 }
  - { offsetInCU: 0x1E, offset: 0xFE1F4, size: 0x8, addend: 0x0, symName: __ZN5alloc7raw_vec11finish_grow17h5bfe5cf0116fea28E.llvm.2141894174379368428, symObjAddr: 0x0, symBinAddr: 0x2EC80, symSize: 0xA0 }
  - { offsetInCU: 0x46EE, offset: 0x1028C4, size: 0x8, addend: 0x0, symName: __ZN5alloc7raw_vec11finish_grow17h5bfe5cf0116fea28E.llvm.2141894174379368428, symObjAddr: 0x0, symBinAddr: 0x2EC80, symSize: 0xA0 }
  - { offsetInCU: 0x5782, offset: 0x103958, size: 0x8, addend: 0x0, symName: '__ZN5alloc7raw_vec19RawVec$LT$T$C$A$GT$7reserve21do_reserve_and_handle17h1954a10cbc6d44d9E', symObjAddr: 0x450, symBinAddr: 0x209DA0, symSize: 0xA0 }
  - { offsetInCU: 0x5A7A, offset: 0x103C50, size: 0x8, addend: 0x0, symName: '__ZN5alloc7raw_vec19RawVec$LT$T$C$A$GT$7reserve21do_reserve_and_handle17h24f37faf75921d0cE', symObjAddr: 0x4F0, symBinAddr: 0x209E40, symSize: 0xC0 }
  - { offsetInCU: 0x5DA7, offset: 0x103F7D, size: 0x8, addend: 0x0, symName: '__ZN5alloc7raw_vec19RawVec$LT$T$C$A$GT$7reserve21do_reserve_and_handle17hd6b1bc330c7dd729E', symObjAddr: 0x5B0, symBinAddr: 0x209F00, symSize: 0xC0 }
  - { offsetInCU: 0x60D4, offset: 0x1042AA, size: 0x8, addend: 0x0, symName: '__ZN5alloc7raw_vec19RawVec$LT$T$C$A$GT$7reserve21do_reserve_and_handle17hebe37466bb8fdb28E', symObjAddr: 0x670, symBinAddr: 0x209FC0, symSize: 0xC0 }
  - { offsetInCU: 0x65DE, offset: 0x1047B4, size: 0x8, addend: 0x0, symName: '__ZN77_$LT$alloc..raw_vec..RawVec$LT$T$C$A$GT$$u20$as$u20$core..ops..drop..Drop$GT$4drop17h09d986f59756801dE', symObjAddr: 0xA40, symBinAddr: 0x2F000, symSize: 0x0 }
  - { offsetInCU: 0xCA04, offset: 0x10ABDA, size: 0x8, addend: 0x0, symName: '__ZN5alloc7raw_vec19RawVec$LT$T$C$A$GT$8grow_one17h0bd163ad086771e0E', symObjAddr: 0x730, symBinAddr: 0x2ED20, symSize: 0xC0 }
  - { offsetInCU: 0xCEFF, offset: 0x10B0D5, size: 0x8, addend: 0x0, symName: '__ZN5alloc7raw_vec19RawVec$LT$T$C$A$GT$8grow_one17h245fb14f8f80d7b5E', symObjAddr: 0x7F0, symBinAddr: 0x2EDE0, symSize: 0xC0 }
  - { offsetInCU: 0xD240, offset: 0x10B416, size: 0x8, addend: 0x0, symName: '__ZN5alloc7raw_vec19RawVec$LT$T$C$A$GT$8grow_one17h4cc0343ba4576ae5E', symObjAddr: 0x8B0, symBinAddr: 0x2EEA0, symSize: 0xA0 }
  - { offsetInCU: 0xD6DC, offset: 0x10B8B2, size: 0x8, addend: 0x0, symName: '__ZN5alloc7raw_vec19RawVec$LT$T$C$A$GT$8grow_one17hb0df1af6715eff0dE', symObjAddr: 0x950, symBinAddr: 0x2EF40, symSize: 0xC0 }
  - { offsetInCU: 0x195B, offset: 0x10D6B1, size: 0x8, addend: 0x0, symName: '__ZN4core3ptr100drop_in_place$LT$core..option..Option$LT$alloc..boxed..Box$LT$syn..path..GenericArgument$GT$$GT$$GT$17hf167a5affd471861E', symObjAddr: 0x140, symBinAddr: 0x2F030, symSize: 0x50 }
  - { offsetInCU: 0x1CF9, offset: 0x10DA4F, size: 0x8, addend: 0x0, symName: '__ZN4core3ptr100drop_in_place$LT$syn..punctuated..Punctuated$LT$syn..path..PathSegment$C$syn..token..PathSep$GT$$GT$17h4b17d4c3c63cdcabE', symObjAddr: 0x190, symBinAddr: 0x2F080, symSize: 0x270 }
  - { offsetInCU: 0x269C, offset: 0x10E3F2, size: 0x8, addend: 0x0, symName: '__ZN4core3ptr103drop_in_place$LT$core..option..Option$LT$alloc..boxed..Box$LT$syn..generics..TypeParamBound$GT$$GT$$GT$17h9dea5ae092e08b20E', symObjAddr: 0x400, symBinAddr: 0x2F2F0, symSize: 0x50 }
  - { offsetInCU: 0x28A7, offset: 0x10E5FD, size: 0x8, addend: 0x0, symName: '__ZN4core3ptr103drop_in_place$LT$syn..punctuated..Punctuated$LT$syn..generics..GenericParam$C$syn..token..Comma$GT$$GT$17h658bde4a9636b124E.llvm.10673966588750114321', symObjAddr: 0x450, symBinAddr: 0x2F340, symSize: 0xF0 }
  - { offsetInCU: 0x2DC1, offset: 0x10EB17, size: 0x8, addend: 0x0, symName: '__ZN4core3ptr104drop_in_place$LT$syn..punctuated..Punctuated$LT$syn..generics..TypeParamBound$C$syn..token..Plus$GT$$GT$17ha3f51cd584941d71E.llvm.10673966588750114321', symObjAddr: 0x540, symBinAddr: 0x2F430, symSize: 0x240 }
  - { offsetInCU: 0x36F8, offset: 0x10F44E, size: 0x8, addend: 0x0, symName: '__ZN4core3ptr34drop_in_place$LT$syn..lit..Lit$GT$17h0434771519353a93E', symObjAddr: 0x780, symBinAddr: 0x2F670, symSize: 0x120 }
  - { offsetInCU: 0x3BC7, offset: 0x10F91D, size: 0x8, addend: 0x0, symName: '__ZN4core3ptr34drop_in_place$LT$syn..pat..Pat$GT$17h23cd663dffbc1ca7E', symObjAddr: 0x8A0, symBinAddr: 0x2F790, symSize: 0x1090 }
  - { offsetInCU: 0x7BC7, offset: 0x11391D, size: 0x8, addend: 0x0, symName: '__ZN4core3ptr34drop_in_place$LT$syn..ty..Type$GT$17h909bc58921451c92E.llvm.10673966588750114321', symObjAddr: 0x1930, symBinAddr: 0x30820, symSize: 0x4F0 }
  - { offsetInCU: 0x8B97, offset: 0x1148ED, size: 0x8, addend: 0x0, symName: '__ZN4core3ptr36drop_in_place$LT$syn..attr..Meta$GT$17h5eb98af069a32022E.llvm.10673966588750114321', symObjAddr: 0x1E20, symBinAddr: 0x30D10, symSize: 0xA0 }
  - { offsetInCU: 0x91A4, offset: 0x114EFA, size: 0x8, addend: 0x0, symName: '__ZN4core3ptr36drop_in_place$LT$syn..expr..Expr$GT$17h594b288408c7049cE.llvm.10673966588750114321', symObjAddr: 0x1EC0, symBinAddr: 0x30DB0, symSize: 0x27D0 }
  - { offsetInCU: 0x128D8, offset: 0x11E62E, size: 0x8, addend: 0x0, symName: '__ZN4core3ptr36drop_in_place$LT$syn..mac..Macro$GT$17h8834c68712008aa5E', symObjAddr: 0x4690, symBinAddr: 0x33580, symSize: 0x40 }
  - { offsetInCU: 0x12912, offset: 0x11E668, size: 0x8, addend: 0x0, symName: '__ZN4core3ptr36drop_in_place$LT$syn..path..Path$GT$17ha7adc31831378d42E.llvm.10673966588750114321', symObjAddr: 0x46D0, symBinAddr: 0x335C0, symSize: 0x240 }
  - { offsetInCU: 0x132AC, offset: 0x11F002, size: 0x8, addend: 0x0, symName: '__ZN4core3ptr37drop_in_place$LT$syn..stmt..Block$GT$17h53c13e8fb8186919E', symObjAddr: 0x4910, symBinAddr: 0x33800, symSize: 0xD0 }
  - { offsetInCU: 0x13583, offset: 0x11F2D9, size: 0x8, addend: 0x0, symName: '__ZN4core3ptr38drop_in_place$LT$syn..expr..Member$GT$17h72e5bb4cd394e37dE', symObjAddr: 0x49E0, symBinAddr: 0x338D0, symSize: 0x30 }
  - { offsetInCU: 0x1367F, offset: 0x11F3D5, size: 0x8, addend: 0x0, symName: '__ZN4core3ptr39drop_in_place$LT$proc_macro2..Ident$GT$17h5478e913d990d07bE', symObjAddr: 0x4A10, symBinAddr: 0x33900, symSize: 0x30 }
  - { offsetInCU: 0x1375C, offset: 0x11F4B2, size: 0x8, addend: 0x0, symName: '__ZN4core3ptr40drop_in_place$LT$syn..ty..ReturnType$GT$17h9812afc0e63dd5ffE', symObjAddr: 0x4A40, symBinAddr: 0x33930, symSize: 0x50 }
  - { offsetInCU: 0x138CC, offset: 0x11F622, size: 0x8, addend: 0x0, symName: '__ZN4core3ptr41drop_in_place$LT$syn..expr..ExprConst$GT$17h12ef3b77a42cb54cE', symObjAddr: 0x4A90, symBinAddr: 0x33980, symSize: 0x180 }
  - { offsetInCU: 0x13E85, offset: 0x11FBDB, size: 0x8, addend: 0x0, symName: '__ZN4core3ptr44drop_in_place$LT$syn..lifetime..Lifetime$GT$17h93bd87bb57a48243E', symObjAddr: 0x4C10, symBinAddr: 0x33B00, symSize: 0x30 }
  - { offsetInCU: 0x140B7, offset: 0x11FE0D, size: 0x8, addend: 0x0, symName: '__ZN4core3ptr45drop_in_place$LT$proc_macro2..TokenStream$GT$17h9ee0c9f276c276e4E.llvm.10673966588750114321', symObjAddr: 0x4C40, symBinAddr: 0x33B30, symSize: 0x140 }
  - { offsetInCU: 0x14551, offset: 0x1202A7, size: 0x8, addend: 0x0, symName: '__ZN4core3ptr45drop_in_place$LT$syn..generics..TypeParam$GT$17hdb94c232af087417E.llvm.10673966588750114321', symObjAddr: 0x4D80, symBinAddr: 0x33C70, symSize: 0x230 }
  - { offsetInCU: 0x14D92, offset: 0x120AE8, size: 0x8, addend: 0x0, symName: '__ZN4core3ptr46drop_in_place$LT$syn..generics..ConstParam$GT$17h7d9dde693af058dcE.llvm.10673966588750114321', symObjAddr: 0x4FB0, symBinAddr: 0x33EA0, symSize: 0x150 }
  - { offsetInCU: 0x151DF, offset: 0x120F35, size: 0x8, addend: 0x0, symName: '__ZN4core3ptr47drop_in_place$LT$syn..path..GenericArgument$GT$17he376c5495bfba2aeE', symObjAddr: 0x5100, symBinAddr: 0x33FF0, symSize: 0x4A0 }
  - { offsetInCU: 0x162E5, offset: 0x12203B, size: 0x8, addend: 0x0, symName: '__ZN4core3ptr49drop_in_place$LT$syn..generics..LifetimeParam$GT$17h96cd9c33a102590dE.llvm.10673966588750114321', symObjAddr: 0x55A0, symBinAddr: 0x34490, symSize: 0xF0 }
  - { offsetInCU: 0x166C8, offset: 0x12241E, size: 0x8, addend: 0x0, symName: '__ZN4core3ptr50drop_in_place$LT$syn..generics..TypeParamBound$GT$17h6ae628d1347497b7E', symObjAddr: 0x5690, symBinAddr: 0x34580, symSize: 0xA0 }
  - { offsetInCU: 0x1686C, offset: 0x1225C2, size: 0x8, addend: 0x0, symName: '__ZN4core3ptr50drop_in_place$LT$syn..generics..WherePredicate$GT$17h0636ac574991fb76E.llvm.10673966588750114321', symObjAddr: 0x5730, symBinAddr: 0x34620, symSize: 0xA0 }
  - { offsetInCU: 0x16A10, offset: 0x122766, size: 0x8, addend: 0x0, symName: '__ZN4core3ptr58drop_in_place$LT$alloc..vec..Vec$LT$syn..expr..Arm$GT$$GT$17h4100114fe8e302a1E', symObjAddr: 0x57D0, symBinAddr: 0x346C0, symSize: 0xD0 }
  - { offsetInCU: 0x16CD0, offset: 0x122A26, size: 0x8, addend: 0x0, symName: '__ZN4core3ptr59drop_in_place$LT$alloc..boxed..Box$LT$syn..pat..Pat$GT$$GT$17hd6381a96bf9e5421E', symObjAddr: 0x58A0, symBinAddr: 0x34790, symSize: 0x50 }
  - { offsetInCU: 0x16E29, offset: 0x122B7F, size: 0x8, addend: 0x0, symName: '__ZN4core3ptr59drop_in_place$LT$alloc..boxed..Box$LT$syn..ty..Type$GT$$GT$17hc3e166ebcc84a858E', symObjAddr: 0x58F0, symBinAddr: 0x347E0, symSize: 0x50 }
  - { offsetInCU: 0x16F82, offset: 0x122CD8, size: 0x8, addend: 0x0, symName: '__ZN4core3ptr61drop_in_place$LT$alloc..boxed..Box$LT$syn..expr..Expr$GT$$GT$17h8a3c09d087fc5969E', symObjAddr: 0x5940, symBinAddr: 0x34830, symSize: 0x50 }
  - { offsetInCU: 0x17157, offset: 0x122EAD, size: 0x8, addend: 0x0, symName: '__ZN4core3ptr61drop_in_place$LT$syn..path..ParenthesizedGenericArguments$GT$17hd70bdf37aa6ff03cE', symObjAddr: 0x5990, symBinAddr: 0x34880, symSize: 0x170 }
  - { offsetInCU: 0x1774D, offset: 0x1234A3, size: 0x8, addend: 0x0, symName: '__ZN4core3ptr62drop_in_place$LT$syn..path..AngleBracketedGenericArguments$GT$17h158f3574e37847e0E', symObjAddr: 0x5B00, symBinAddr: 0x349F0, symSize: 0x120 }
  - { offsetInCU: 0x17B98, offset: 0x1238EE, size: 0x8, addend: 0x0, symName: '__ZN4core3ptr63drop_in_place$LT$alloc..boxed..Box$LT$syn..lit..LitRepr$GT$$GT$17h31cfdbd46b573c47E', symObjAddr: 0x5C20, symBinAddr: 0x34B10, symSize: 0x60 }
  - { offsetInCU: 0x17E9F, offset: 0x123BF5, size: 0x8, addend: 0x0, symName: '__ZN4core3ptr64drop_in_place$LT$alloc..boxed..Box$LT$syn..pat..FieldPat$GT$$GT$17h3365f38bda158625E', symObjAddr: 0x5C80, symBinAddr: 0x34B70, symSize: 0x140 }
  - { offsetInCU: 0x1856C, offset: 0x1242C2, size: 0x8, addend: 0x0, symName: '__ZN4core3ptr64drop_in_place$LT$alloc..boxed..Box$LT$syn..ty..BareFnArg$GT$$GT$17h6b76f3676f3d0a49E', symObjAddr: 0x5DC0, symBinAddr: 0x34CB0, symSize: 0x140 }
  - { offsetInCU: 0x18AC1, offset: 0x124817, size: 0x8, addend: 0x0, symName: '__ZN4core3ptr65drop_in_place$LT$alloc..vec..Vec$LT$proc_macro..TokenTree$GT$$GT$17h7cd89395d30d9dbfE.llvm.10673966588750114321', symObjAddr: 0x5F00, symBinAddr: 0x34DF0, symSize: 0x110 }
  - { offsetInCU: 0x18EB9, offset: 0x124C0F, size: 0x8, addend: 0x0, symName: '__ZN4core3ptr65drop_in_place$LT$core..option..Option$LT$syn..expr..Label$GT$$GT$17h54063f51e70a6435E', symObjAddr: 0x6010, symBinAddr: 0x34F00, symSize: 0x30 }
  - { offsetInCU: 0x18FF3, offset: 0x124D49, size: 0x8, addend: 0x0, symName: '__ZN4core3ptr66drop_in_place$LT$core..option..Option$LT$syn..pat..PatRest$GT$$GT$17h1383712323ca615bE', symObjAddr: 0x6040, symBinAddr: 0x34F30, symSize: 0xE0 }
  - { offsetInCU: 0x192E7, offset: 0x12503D, size: 0x8, addend: 0x0, symName: '__ZN4core3ptr67drop_in_place$LT$alloc..boxed..Box$LT$syn..expr..FieldValue$GT$$GT$17h985c67b90f2c7616E', symObjAddr: 0x6120, symBinAddr: 0x35010, symSize: 0x140 }
  - { offsetInCU: 0x1981C, offset: 0x125572, size: 0x8, addend: 0x0, symName: '__ZN4core3ptr68drop_in_place$LT$alloc..boxed..Box$LT$syn..path..PathSegment$GT$$GT$17ha1d12c8f4e9758ceE', symObjAddr: 0x6260, symBinAddr: 0x35150, symSize: 0x1B0 }
  - { offsetInCU: 0x19F2A, offset: 0x125C80, size: 0x8, addend: 0x0, symName: '__ZN4core3ptr70drop_in_place$LT$core..option..Option$LT$syn..ty..BareVariadic$GT$$GT$17he81f389e5718409eE', symObjAddr: 0x6410, symBinAddr: 0x35300, symSize: 0x100 }
  - { offsetInCU: 0x1A361, offset: 0x1260B7, size: 0x8, addend: 0x0, symName: '__ZN4core3ptr72drop_in_place$LT$alloc..boxed..Box$LT$syn..path..GenericArgument$GT$$GT$17h1b9e463cda3248a8E', symObjAddr: 0x6510, symBinAddr: 0x35400, symSize: 0x2B0 }
  - { offsetInCU: 0x1AD19, offset: 0x126A6F, size: 0x8, addend: 0x0, symName: '__ZN4core3ptr72drop_in_place$LT$core..option..Option$LT$syn..lifetime..Lifetime$GT$$GT$17hc12d7babbc118bbdE', symObjAddr: 0x67C0, symBinAddr: 0x356B0, symSize: 0x30 }
  - { offsetInCU: 0x1AE34, offset: 0x126B8A, size: 0x8, addend: 0x0, symName: '__ZN4core3ptr73drop_in_place$LT$alloc..boxed..Box$LT$syn..generics..GenericParam$GT$$GT$17h3331d3ffd607b7a6E.llvm.10673966588750114321', symObjAddr: 0x67F0, symBinAddr: 0x356E0, symSize: 0x80 }
  - { offsetInCU: 0x1AFAA, offset: 0x126D00, size: 0x8, addend: 0x0, symName: '__ZN4core3ptr75drop_in_place$LT$alloc..boxed..Box$LT$syn..generics..TypeParamBound$GT$$GT$17heae9d7d18d79ffc2E', symObjAddr: 0x6870, symBinAddr: 0x35760, symSize: 0x180 }
  - { offsetInCU: 0x1B596, offset: 0x1272EC, size: 0x8, addend: 0x0, symName: '__ZN4core3ptr86drop_in_place$LT$syn..punctuated..Punctuated$LT$syn..pat..Pat$C$syn..token..Or$GT$$GT$17h033a362705bb3bb5E', symObjAddr: 0x69F0, symBinAddr: 0x358E0, symSize: 0x120 }
  - { offsetInCU: 0x1BA11, offset: 0x127767, size: 0x8, addend: 0x0, symName: '__ZN4core3ptr87drop_in_place$LT$core..option..Option$LT$alloc..boxed..Box$LT$syn..pat..Pat$GT$$GT$$GT$17h23c83b610267a13bE', symObjAddr: 0x6B10, symBinAddr: 0x35A00, symSize: 0x50 }
  - { offsetInCU: 0x1BB81, offset: 0x1278D7, size: 0x8, addend: 0x0, symName: '__ZN4core3ptr87drop_in_place$LT$core..option..Option$LT$alloc..boxed..Box$LT$syn..ty..Type$GT$$GT$$GT$17h9272f0759741e526E', symObjAddr: 0x6B60, symBinAddr: 0x35A50, symSize: 0x50 }
  - { offsetInCU: 0x1BCF1, offset: 0x127A47, size: 0x8, addend: 0x0, symName: '__ZN4core3ptr89drop_in_place$LT$core..option..Option$LT$alloc..boxed..Box$LT$syn..expr..Expr$GT$$GT$$GT$17h1b402876673ee224E', symObjAddr: 0x6BB0, symBinAddr: 0x35AA0, symSize: 0x50 }
  - { offsetInCU: 0x1BE9F, offset: 0x127BF5, size: 0x8, addend: 0x0, symName: '__ZN4core3ptr89drop_in_place$LT$syn..punctuated..Punctuated$LT$syn..pat..Pat$C$syn..token..Comma$GT$$GT$17h1a51e79614c23b8fE', symObjAddr: 0x6C00, symBinAddr: 0x35AF0, symSize: 0x120 }
  - { offsetInCU: 0x1C331, offset: 0x128087, size: 0x8, addend: 0x0, symName: '__ZN4core3ptr89drop_in_place$LT$syn..punctuated..Punctuated$LT$syn..ty..Type$C$syn..token..Comma$GT$$GT$17hfe815f139041dbd4E', symObjAddr: 0x6D20, symBinAddr: 0x35C10, symSize: 0x120 }
  - { offsetInCU: 0x1C7AC, offset: 0x128502, size: 0x8, addend: 0x0, symName: '__ZN4core3ptr90drop_in_place$LT$core..option..Option$LT$syn..path..AngleBracketedGenericArguments$GT$$GT$17h35b555e538b98195E', symObjAddr: 0x6E40, symBinAddr: 0x35D30, symSize: 0x130 }
  - { offsetInCU: 0x1CC4E, offset: 0x1289A4, size: 0x8, addend: 0x0, symName: '__ZN4core3ptr91drop_in_place$LT$syn..punctuated..Punctuated$LT$syn..expr..Expr$C$syn..token..Comma$GT$$GT$17h2089aa266eda8e71E', symObjAddr: 0x6F70, symBinAddr: 0x35E60, symSize: 0x120 }
  - { offsetInCU: 0x1D0DC, offset: 0x128E32, size: 0x8, addend: 0x0, symName: '__ZN4core3ptr94drop_in_place$LT$syn..punctuated..Punctuated$LT$syn..pat..FieldPat$C$syn..token..Comma$GT$$GT$17hebbefb546a57efdfE', symObjAddr: 0x7090, symBinAddr: 0x35F80, symSize: 0xF0 }
  - { offsetInCU: 0x1D3DB, offset: 0x129131, size: 0x8, addend: 0x0, symName: '__ZN4core3ptr94drop_in_place$LT$syn..punctuated..Punctuated$LT$syn..ty..BareFnArg$C$syn..token..Comma$GT$$GT$17h8a5a74831bf9b9a0E', symObjAddr: 0x7180, symBinAddr: 0x36070, symSize: 0xF0 }
  - { offsetInCU: 0x1D6DC, offset: 0x129432, size: 0x8, addend: 0x0, symName: '__ZN4core3ptr96drop_in_place$LT$core..option..Option$LT$alloc..boxed..Box$LT$syn..path..PathSegment$GT$$GT$$GT$17h34901984f508e5eeE', symObjAddr: 0x7270, symBinAddr: 0x36160, symSize: 0xA0 }
  - { offsetInCU: 0x1D97A, offset: 0x1296D0, size: 0x8, addend: 0x0, symName: '__ZN4core3ptr97drop_in_place$LT$syn..punctuated..Punctuated$LT$syn..expr..FieldValue$C$syn..token..Comma$GT$$GT$17h1114c1cefa0baa61E', symObjAddr: 0x7360, symBinAddr: 0x36200, symSize: 0xF0 }
  - { offsetInCU: 0x1DC77, offset: 0x1299CD, size: 0x8, addend: 0x0, symName: '__ZN4core3ptr98drop_in_place$LT$alloc..vec..Vec$LT$$LP$syn..path..GenericArgument$C$syn..token..Comma$RP$$GT$$GT$17h91d589744b2f2f3fE', symObjAddr: 0x7450, symBinAddr: 0x362F0, symSize: 0xD0 }
  - { offsetInCU: 0x1DF98, offset: 0x129CEE, size: 0x8, addend: 0x0, symName: '__ZN4core3ptr98drop_in_place$LT$syn..punctuated..Punctuated$LT$syn..lifetime..Lifetime$C$syn..token..Plus$GT$$GT$17hf5d593077ac66faeE.llvm.10673966588750114321', symObjAddr: 0x7520, symBinAddr: 0x363C0, symSize: 0xD0 }
  - { offsetInCU: 0x26219, offset: 0x131F6F, size: 0x8, addend: 0x0, symName: '__ZN86_$LT$alloc..vec..into_iter..IntoIter$LT$T$C$A$GT$$u20$as$u20$core..ops..drop..Drop$GT$4drop17h35ce62c33b73d9ddE', symObjAddr: 0x75F0, symBinAddr: 0x36490, symSize: 0xF0 }
  - { offsetInCU: 0x265BB, offset: 0x132311, size: 0x8, addend: 0x0, symName: '__ZN86_$LT$alloc..vec..into_iter..IntoIter$LT$T$C$A$GT$$u20$as$u20$core..ops..drop..Drop$GT$4drop17h4fd38e63cdba064eE', symObjAddr: 0x76E0, symBinAddr: 0x36580, symSize: 0xF0 }
  - { offsetInCU: 0x26960, offset: 0x1326B6, size: 0x8, addend: 0x0, symName: '__ZN86_$LT$alloc..vec..into_iter..IntoIter$LT$T$C$A$GT$$u20$as$u20$core..ops..drop..Drop$GT$4drop17h6b48f2a44dadd3cbE', symObjAddr: 0x77D0, symBinAddr: 0x36670, symSize: 0xF0 }
  - { offsetInCU: 0x26CCD, offset: 0x132A23, size: 0x8, addend: 0x0, symName: '__ZN86_$LT$alloc..vec..into_iter..IntoIter$LT$T$C$A$GT$$u20$as$u20$core..ops..drop..Drop$GT$4drop17h917368aacdaf1fb8E', symObjAddr: 0x78C0, symBinAddr: 0x36760, symSize: 0xF0 }
  - { offsetInCU: 0x2706E, offset: 0x132DC4, size: 0x8, addend: 0x0, symName: '__ZN86_$LT$alloc..vec..into_iter..IntoIter$LT$T$C$A$GT$$u20$as$u20$core..ops..drop..Drop$GT$4drop17hf9d8c2b7d1c42e89E', symObjAddr: 0x79B0, symBinAddr: 0x36850, symSize: 0xE3 }
  - { offsetInCU: 0x1E, offset: 0x137C8C, size: 0x8, addend: 0x0, symName: '__ZN40_$LT$F$u20$as$u20$syn..parse..Parser$GT$14__parse_scoped17hf0fb682e1219828fE', symObjAddr: 0x0, symBinAddr: 0x36940, symSize: 0x560 }
  - { offsetInCU: 0x121A, offset: 0x138E88, size: 0x8, addend: 0x0, symName: '__ZN4core3ptr100drop_in_place$LT$core..option..Option$LT$alloc..boxed..Box$LT$syn..path..GenericArgument$GT$$GT$$GT$17hf167a5affd471861E', symObjAddr: 0x8E0, symBinAddr: 0x37220, symSize: 0x50 }
  - { offsetInCU: 0x15B8, offset: 0x139226, size: 0x8, addend: 0x0, symName: '__ZN4core3ptr100drop_in_place$LT$syn..punctuated..Punctuated$LT$syn..path..PathSegment$C$syn..token..PathSep$GT$$GT$17h4b17d4c3c63cdcabE', symObjAddr: 0x930, symBinAddr: 0x37270, symSize: 0x270 }
  - { offsetInCU: 0x1F5B, offset: 0x139BC9, size: 0x8, addend: 0x0, symName: '__ZN4core3ptr103drop_in_place$LT$core..option..Option$LT$alloc..boxed..Box$LT$syn..generics..TypeParamBound$GT$$GT$$GT$17h9dea5ae092e08b20E', symObjAddr: 0xBA0, symBinAddr: 0x374E0, symSize: 0x50 }
  - { offsetInCU: 0x21A4, offset: 0x139E12, size: 0x8, addend: 0x0, symName: '__ZN4core3ptr103drop_in_place$LT$core..option..Option$LT$alloc..boxed..Box$LT$syn..generics..WherePredicate$GT$$GT$$GT$17hd6ba4467447c42cdE', symObjAddr: 0xBF0, symBinAddr: 0x37530, symSize: 0xD0 }
  - { offsetInCU: 0x2538, offset: 0x13A1A6, size: 0x8, addend: 0x0, symName: '__ZN4core3ptr103drop_in_place$LT$syn..punctuated..Punctuated$LT$syn..generics..GenericParam$C$syn..token..Comma$GT$$GT$17h658bde4a9636b124E', symObjAddr: 0xCC0, symBinAddr: 0x37600, symSize: 0xF0 }
  - { offsetInCU: 0x29F5, offset: 0x13A663, size: 0x8, addend: 0x0, symName: '__ZN4core3ptr104drop_in_place$LT$syn..punctuated..Punctuated$LT$syn..generics..TypeParamBound$C$syn..token..Plus$GT$$GT$17ha3f51cd584941d71E', symObjAddr: 0xDB0, symBinAddr: 0x376F0, symSize: 0x240 }
  - { offsetInCU: 0x332C, offset: 0x13AF9A, size: 0x8, addend: 0x0, symName: '__ZN4core3ptr34drop_in_place$LT$syn..lit..Lit$GT$17h0434771519353a93E', symObjAddr: 0xFF0, symBinAddr: 0x37930, symSize: 0x120 }
  - { offsetInCU: 0x37FB, offset: 0x13B469, size: 0x8, addend: 0x0, symName: '__ZN4core3ptr34drop_in_place$LT$syn..pat..Pat$GT$17h23cd663dffbc1ca7E', symObjAddr: 0x1110, symBinAddr: 0x37A50, symSize: 0x1090 }
  - { offsetInCU: 0x77FB, offset: 0x13F469, size: 0x8, addend: 0x0, symName: '__ZN4core3ptr34drop_in_place$LT$syn..ty..Type$GT$17h909bc58921451c92E', symObjAddr: 0x21A0, symBinAddr: 0x38AE0, symSize: 0x4F0 }
  - { offsetInCU: 0x8D3E, offset: 0x1409AC, size: 0x8, addend: 0x0, symName: '__ZN4core3ptr36drop_in_place$LT$syn..expr..Expr$GT$17h594b288408c7049cE', symObjAddr: 0x2690, symBinAddr: 0x38FD0, symSize: 0x27D0 }
  - { offsetInCU: 0x12472, offset: 0x14A0E0, size: 0x8, addend: 0x0, symName: '__ZN4core3ptr36drop_in_place$LT$syn..mac..Macro$GT$17h8834c68712008aa5E', symObjAddr: 0x4E60, symBinAddr: 0x3B7A0, symSize: 0x40 }
  - { offsetInCU: 0x124AC, offset: 0x14A11A, size: 0x8, addend: 0x0, symName: '__ZN4core3ptr36drop_in_place$LT$syn..path..Path$GT$17ha7adc31831378d42E', symObjAddr: 0x4EA0, symBinAddr: 0x3B7E0, symSize: 0x240 }
  - { offsetInCU: 0x12E46, offset: 0x14AAB4, size: 0x8, addend: 0x0, symName: '__ZN4core3ptr37drop_in_place$LT$syn..stmt..Block$GT$17h53c13e8fb8186919E', symObjAddr: 0x50E0, symBinAddr: 0x3BA20, symSize: 0xD0 }
  - { offsetInCU: 0x131B8, offset: 0x14AE26, size: 0x8, addend: 0x0, symName: '__ZN4core3ptr38drop_in_place$LT$syn..data..Fields$GT$17h6b556079d9666bd6E', symObjAddr: 0x51B0, symBinAddr: 0x3BAF0, symSize: 0x190 }
  - { offsetInCU: 0x136BC, offset: 0x14B32A, size: 0x8, addend: 0x0, symName: '__ZN4core3ptr38drop_in_place$LT$syn..derive..Data$GT$17h945eb1bcf266c761E', symObjAddr: 0x5340, symBinAddr: 0x3BC80, symSize: 0x1D0 }
  - { offsetInCU: 0x13D62, offset: 0x14B9D0, size: 0x8, addend: 0x0, symName: '__ZN4core3ptr38drop_in_place$LT$syn..expr..Member$GT$17h72e5bb4cd394e37dE', symObjAddr: 0x5510, symBinAddr: 0x3BE50, symSize: 0x30 }
  - { offsetInCU: 0x13E5E, offset: 0x14BACC, size: 0x8, addend: 0x0, symName: '__ZN4core3ptr39drop_in_place$LT$proc_macro2..Ident$GT$17h5478e913d990d07bE', symObjAddr: 0x5540, symBinAddr: 0x3BE80, symSize: 0x30 }
  - { offsetInCU: 0x14071, offset: 0x14BCDF, size: 0x8, addend: 0x0, symName: '__ZN4core3ptr39drop_in_place$LT$syn..buffer..Entry$GT$17hf44f0a6a23dcf947E', symObjAddr: 0x5570, symBinAddr: 0x3BEB0, symSize: 0xB0 }
  - { offsetInCU: 0x143FC, offset: 0x14C06A, size: 0x8, addend: 0x0, symName: '__ZN4core3ptr40drop_in_place$LT$syn..ty..ReturnType$GT$17h9812afc0e63dd5ffE', symObjAddr: 0x5620, symBinAddr: 0x3BF60, symSize: 0x50 }
  - { offsetInCU: 0x1456C, offset: 0x14C1DA, size: 0x8, addend: 0x0, symName: '__ZN4core3ptr41drop_in_place$LT$syn..expr..ExprConst$GT$17h12ef3b77a42cb54cE', symObjAddr: 0x5670, symBinAddr: 0x3BFB0, symSize: 0x180 }
  - { offsetInCU: 0x14B25, offset: 0x14C793, size: 0x8, addend: 0x0, symName: '__ZN4core3ptr43drop_in_place$LT$zeroize_derive..Bounds$GT$17h2f26f4fc1131b85dE', symObjAddr: 0x57F0, symBinAddr: 0x3C130, symSize: 0xE0 }
  - { offsetInCU: 0x14E4B, offset: 0x14CAB9, size: 0x8, addend: 0x0, symName: '__ZN4core3ptr44drop_in_place$LT$syn..generics..Generics$GT$17h4ff00b52cfb32523E', symObjAddr: 0x58D0, symBinAddr: 0x3C210, symSize: 0x40 }
  - { offsetInCU: 0x14E68, offset: 0x14CAD6, size: 0x8, addend: 0x0, symName: '__ZN4core3ptr44drop_in_place$LT$syn..lifetime..Lifetime$GT$17h93bd87bb57a48243E', symObjAddr: 0x5910, symBinAddr: 0x3C250, symSize: 0x30 }
  - { offsetInCU: 0x14F64, offset: 0x14CBD2, size: 0x8, addend: 0x0, symName: '__ZN4core3ptr44drop_in_place$LT$syn..parse..ParseBuffer$GT$17h73a2846d427910eeE', symObjAddr: 0x5940, symBinAddr: 0x3C280, symSize: 0x70 }
  - { offsetInCU: 0x152E0, offset: 0x14CF4E, size: 0x8, addend: 0x0, symName: '__ZN4core3ptr45drop_in_place$LT$proc_macro2..TokenStream$GT$17h9ee0c9f276c276e4E', symObjAddr: 0x59B0, symBinAddr: 0x3C2F0, symSize: 0x140 }
  - { offsetInCU: 0x1573C, offset: 0x14D3AA, size: 0x8, addend: 0x0, symName: '__ZN4core3ptr45drop_in_place$LT$syn..buffer..TokenBuffer$GT$17he9da39ba11c96b28E', symObjAddr: 0x5AF0, symBinAddr: 0x3C430, symSize: 0xC0 }
  - { offsetInCU: 0x159E2, offset: 0x14D650, size: 0x8, addend: 0x0, symName: '__ZN4core3ptr45drop_in_place$LT$syn..derive..DeriveInput$GT$17h83ec9ce27fd461bdE', symObjAddr: 0x5BB0, symBinAddr: 0x3C4F0, symSize: 0x190 }
  - { offsetInCU: 0x15F69, offset: 0x14DBD7, size: 0x8, addend: 0x0, symName: '__ZN4core3ptr45drop_in_place$LT$syn..generics..TypeParam$GT$17hdb94c232af087417E', symObjAddr: 0x5D40, symBinAddr: 0x3C680, symSize: 0x230 }
  - { offsetInCU: 0x167AA, offset: 0x14E418, size: 0x8, addend: 0x0, symName: '__ZN4core3ptr46drop_in_place$LT$syn..generics..ConstParam$GT$17h7d9dde693af058dcE', symObjAddr: 0x5F70, symBinAddr: 0x3C8B0, symSize: 0x150 }
  - { offsetInCU: 0x16BF7, offset: 0x14E865, size: 0x8, addend: 0x0, symName: '__ZN4core3ptr47drop_in_place$LT$syn..path..GenericArgument$GT$17he376c5495bfba2aeE', symObjAddr: 0x60C0, symBinAddr: 0x3CA00, symSize: 0x4A0 }
  - { offsetInCU: 0x17CFD, offset: 0x14F96B, size: 0x8, addend: 0x0, symName: '__ZN4core3ptr49drop_in_place$LT$syn..generics..LifetimeParam$GT$17h96cd9c33a102590dE', symObjAddr: 0x6560, symBinAddr: 0x3CEA0, symSize: 0xF0 }
  - { offsetInCU: 0x180E0, offset: 0x14FD4E, size: 0x8, addend: 0x0, symName: '__ZN4core3ptr49drop_in_place$LT$syn..restriction..Visibility$GT$17h2ad9754b033941f0E', symObjAddr: 0x6650, symBinAddr: 0x3CF90, symSize: 0x60 }
  - { offsetInCU: 0x18251, offset: 0x14FEBF, size: 0x8, addend: 0x0, symName: '__ZN4core3ptr50drop_in_place$LT$syn..generics..TypeParamBound$GT$17h6ae628d1347497b7E', symObjAddr: 0x66B0, symBinAddr: 0x3CFF0, symSize: 0xA0 }
  - { offsetInCU: 0x183B7, offset: 0x150025, size: 0x8, addend: 0x0, symName: '__ZN4core3ptr58drop_in_place$LT$alloc..vec..Vec$LT$syn..expr..Arm$GT$$GT$17h4100114fe8e302a1E', symObjAddr: 0x6750, symBinAddr: 0x3D090, symSize: 0xD0 }
  - { offsetInCU: 0x18677, offset: 0x1502E5, size: 0x8, addend: 0x0, symName: '__ZN4core3ptr59drop_in_place$LT$alloc..boxed..Box$LT$syn..pat..Pat$GT$$GT$17hd6381a96bf9e5421E', symObjAddr: 0x6820, symBinAddr: 0x3D160, symSize: 0x50 }
  - { offsetInCU: 0x187D0, offset: 0x15043E, size: 0x8, addend: 0x0, symName: '__ZN4core3ptr59drop_in_place$LT$alloc..boxed..Box$LT$syn..ty..Type$GT$$GT$17hc3e166ebcc84a858E', symObjAddr: 0x6870, symBinAddr: 0x3D1B0, symSize: 0x50 }
  - { offsetInCU: 0x18929, offset: 0x150597, size: 0x8, addend: 0x0, symName: '__ZN4core3ptr61drop_in_place$LT$alloc..boxed..Box$LT$syn..expr..Expr$GT$$GT$17h8a3c09d087fc5969E', symObjAddr: 0x68C0, symBinAddr: 0x3D200, symSize: 0x50 }
  - { offsetInCU: 0x18AFE, offset: 0x15076C, size: 0x8, addend: 0x0, symName: '__ZN4core3ptr61drop_in_place$LT$syn..path..ParenthesizedGenericArguments$GT$17hd70bdf37aa6ff03cE', symObjAddr: 0x6910, symBinAddr: 0x3D250, symSize: 0x170 }
  - { offsetInCU: 0x190F4, offset: 0x150D62, size: 0x8, addend: 0x0, symName: '__ZN4core3ptr62drop_in_place$LT$syn..path..AngleBracketedGenericArguments$GT$17h158f3574e37847e0E', symObjAddr: 0x6A80, symBinAddr: 0x3D3C0, symSize: 0x120 }
  - { offsetInCU: 0x1953F, offset: 0x1511AD, size: 0x8, addend: 0x0, symName: '__ZN4core3ptr63drop_in_place$LT$alloc..boxed..Box$LT$syn..lit..LitRepr$GT$$GT$17h31cfdbd46b573c47E', symObjAddr: 0x6BA0, symBinAddr: 0x3D4E0, symSize: 0x60 }
  - { offsetInCU: 0x19846, offset: 0x1514B4, size: 0x8, addend: 0x0, symName: '__ZN4core3ptr64drop_in_place$LT$alloc..boxed..Box$LT$syn..pat..FieldPat$GT$$GT$17h3365f38bda158625E', symObjAddr: 0x6C00, symBinAddr: 0x3D540, symSize: 0x140 }
  - { offsetInCU: 0x19F13, offset: 0x151B81, size: 0x8, addend: 0x0, symName: '__ZN4core3ptr64drop_in_place$LT$alloc..boxed..Box$LT$syn..ty..BareFnArg$GT$$GT$17h6b76f3676f3d0a49E', symObjAddr: 0x6D40, symBinAddr: 0x3D680, symSize: 0x140 }
  - { offsetInCU: 0x1A468, offset: 0x1520D6, size: 0x8, addend: 0x0, symName: '__ZN4core3ptr65drop_in_place$LT$alloc..vec..Vec$LT$proc_macro..TokenTree$GT$$GT$17h7cd89395d30d9dbfE', symObjAddr: 0x6E80, symBinAddr: 0x3D7C0, symSize: 0x110 }
  - { offsetInCU: 0x1A860, offset: 0x1524CE, size: 0x8, addend: 0x0, symName: '__ZN4core3ptr65drop_in_place$LT$core..option..Option$LT$syn..expr..Label$GT$$GT$17h54063f51e70a6435E', symObjAddr: 0x6F90, symBinAddr: 0x3D8D0, symSize: 0x30 }
  - { offsetInCU: 0x1A99A, offset: 0x152608, size: 0x8, addend: 0x0, symName: '__ZN4core3ptr66drop_in_place$LT$core..option..Option$LT$syn..pat..PatRest$GT$$GT$17h1383712323ca615bE', symObjAddr: 0x6FC0, symBinAddr: 0x3D900, symSize: 0xE0 }
  - { offsetInCU: 0x1AC8E, offset: 0x1528FC, size: 0x8, addend: 0x0, symName: '__ZN4core3ptr67drop_in_place$LT$alloc..boxed..Box$LT$syn..expr..FieldValue$GT$$GT$17h985c67b90f2c7616E', symObjAddr: 0x70A0, symBinAddr: 0x3D9E0, symSize: 0x140 }
  - { offsetInCU: 0x1B1C3, offset: 0x152E31, size: 0x8, addend: 0x0, symName: '__ZN4core3ptr68drop_in_place$LT$alloc..boxed..Box$LT$syn..path..PathSegment$GT$$GT$17ha1d12c8f4e9758ceE', symObjAddr: 0x71E0, symBinAddr: 0x3DB20, symSize: 0x1B0 }
  - { offsetInCU: 0x1B8D1, offset: 0x15353F, size: 0x8, addend: 0x0, symName: '__ZN4core3ptr70drop_in_place$LT$core..option..Option$LT$syn..ty..BareVariadic$GT$$GT$17he81f389e5718409eE', symObjAddr: 0x7390, symBinAddr: 0x3DCD0, symSize: 0x100 }
  - { offsetInCU: 0x1BD08, offset: 0x153976, size: 0x8, addend: 0x0, symName: '__ZN4core3ptr72drop_in_place$LT$alloc..boxed..Box$LT$syn..path..GenericArgument$GT$$GT$17h1b9e463cda3248a8E', symObjAddr: 0x7490, symBinAddr: 0x3DDD0, symSize: 0x2B0 }
  - { offsetInCU: 0x1C6C0, offset: 0x15432E, size: 0x8, addend: 0x0, symName: '__ZN4core3ptr72drop_in_place$LT$core..option..Option$LT$syn..lifetime..Lifetime$GT$$GT$17hc12d7babbc118bbdE', symObjAddr: 0x7740, symBinAddr: 0x3E080, symSize: 0x30 }
  - { offsetInCU: 0x1C7DB, offset: 0x154449, size: 0x8, addend: 0x0, symName: '__ZN4core3ptr73drop_in_place$LT$alloc..boxed..Box$LT$syn..generics..GenericParam$GT$$GT$17h3331d3ffd607b7a6E', symObjAddr: 0x7770, symBinAddr: 0x3E0B0, symSize: 0x80 }
  - { offsetInCU: 0x1C951, offset: 0x1545BF, size: 0x8, addend: 0x0, symName: '__ZN4core3ptr75drop_in_place$LT$alloc..boxed..Box$LT$syn..generics..TypeParamBound$GT$$GT$17heae9d7d18d79ffc2E', symObjAddr: 0x77F0, symBinAddr: 0x3E130, symSize: 0x180 }
  - { offsetInCU: 0x1CEFF, offset: 0x154B6D, size: 0x8, addend: 0x0, symName: '__ZN4core3ptr75drop_in_place$LT$core..option..Option$LT$syn..generics..WhereClause$GT$$GT$17h9664a10b3d3dc94cE', symObjAddr: 0x7970, symBinAddr: 0x3E2B0, symSize: 0x100 }
  - { offsetInCU: 0x1D2B6, offset: 0x154F24, size: 0x8, addend: 0x0, symName: '__ZN4core3ptr86drop_in_place$LT$syn..punctuated..Punctuated$LT$syn..pat..Pat$C$syn..token..Or$GT$$GT$17h033a362705bb3bb5E', symObjAddr: 0x7A70, symBinAddr: 0x3E3B0, symSize: 0x120 }
  - { offsetInCU: 0x1D731, offset: 0x15539F, size: 0x8, addend: 0x0, symName: '__ZN4core3ptr87drop_in_place$LT$core..option..Option$LT$alloc..boxed..Box$LT$syn..pat..Pat$GT$$GT$$GT$17h23c83b610267a13bE', symObjAddr: 0x7B90, symBinAddr: 0x3E4D0, symSize: 0x50 }
  - { offsetInCU: 0x1D8A1, offset: 0x15550F, size: 0x8, addend: 0x0, symName: '__ZN4core3ptr87drop_in_place$LT$core..option..Option$LT$alloc..boxed..Box$LT$syn..ty..Type$GT$$GT$$GT$17h9272f0759741e526E', symObjAddr: 0x7BE0, symBinAddr: 0x3E520, symSize: 0x50 }
  - { offsetInCU: 0x1DA11, offset: 0x15567F, size: 0x8, addend: 0x0, symName: '__ZN4core3ptr89drop_in_place$LT$core..option..Option$LT$alloc..boxed..Box$LT$syn..expr..Expr$GT$$GT$$GT$17h1b402876673ee224E', symObjAddr: 0x7C30, symBinAddr: 0x3E570, symSize: 0x50 }
  - { offsetInCU: 0x1DBBF, offset: 0x15582D, size: 0x8, addend: 0x0, symName: '__ZN4core3ptr89drop_in_place$LT$syn..punctuated..Punctuated$LT$syn..pat..Pat$C$syn..token..Comma$GT$$GT$17h1a51e79614c23b8fE', symObjAddr: 0x7C80, symBinAddr: 0x3E5C0, symSize: 0x120 }
  - { offsetInCU: 0x1E051, offset: 0x155CBF, size: 0x8, addend: 0x0, symName: '__ZN4core3ptr89drop_in_place$LT$syn..punctuated..Punctuated$LT$syn..ty..Type$C$syn..token..Comma$GT$$GT$17hfe815f139041dbd4E', symObjAddr: 0x7DA0, symBinAddr: 0x3E6E0, symSize: 0x120 }
  - { offsetInCU: 0x1E529, offset: 0x156197, size: 0x8, addend: 0x0, symName: '__ZN4core3ptr90drop_in_place$LT$core..option..Option$LT$alloc..boxed..Box$LT$syn..data..Field$GT$$GT$$GT$17h4856bf7e0667162fE', symObjAddr: 0x7EC0, symBinAddr: 0x3E800, symSize: 0x1B0 }
  - { offsetInCU: 0x1EBC8, offset: 0x156836, size: 0x8, addend: 0x0, symName: '__ZN4core3ptr90drop_in_place$LT$core..option..Option$LT$syn..path..AngleBracketedGenericArguments$GT$$GT$17h35b555e538b98195E', symObjAddr: 0x8070, symBinAddr: 0x3E9B0, symSize: 0x130 }
  - { offsetInCU: 0x1F06A, offset: 0x156CD8, size: 0x8, addend: 0x0, symName: '__ZN4core3ptr91drop_in_place$LT$syn..punctuated..Punctuated$LT$syn..expr..Expr$C$syn..token..Comma$GT$$GT$17h2089aa266eda8e71E', symObjAddr: 0x81A0, symBinAddr: 0x3EAE0, symSize: 0x120 }
  - { offsetInCU: 0x1F574, offset: 0x1571E2, size: 0x8, addend: 0x0, symName: '__ZN4core3ptr92drop_in_place$LT$core..option..Option$LT$alloc..boxed..Box$LT$syn..data..Variant$GT$$GT$$GT$17hbb36ee259b8bcd1cE', symObjAddr: 0x82C0, symBinAddr: 0x3EC00, symSize: 0x170 }
  - { offsetInCU: 0x1FB0F, offset: 0x15777D, size: 0x8, addend: 0x0, symName: '__ZN4core3ptr94drop_in_place$LT$syn..punctuated..Punctuated$LT$syn..pat..FieldPat$C$syn..token..Comma$GT$$GT$17hebbefb546a57efdfE', symObjAddr: 0x8430, symBinAddr: 0x3ED70, symSize: 0xF0 }
  - { offsetInCU: 0x1FE0E, offset: 0x157A7C, size: 0x8, addend: 0x0, symName: '__ZN4core3ptr94drop_in_place$LT$syn..punctuated..Punctuated$LT$syn..ty..BareFnArg$C$syn..token..Comma$GT$$GT$17h8a5a74831bf9b9a0E', symObjAddr: 0x8520, symBinAddr: 0x3EE60, symSize: 0xF0 }
  - { offsetInCU: 0x2010F, offset: 0x157D7D, size: 0x8, addend: 0x0, symName: '__ZN4core3ptr96drop_in_place$LT$core..option..Option$LT$alloc..boxed..Box$LT$syn..path..PathSegment$GT$$GT$$GT$17h34901984f508e5eeE', symObjAddr: 0x8610, symBinAddr: 0x3EF50, symSize: 0xA0 }
  - { offsetInCU: 0x2038E, offset: 0x157FFC, size: 0x8, addend: 0x0, symName: '__ZN4core3ptr97drop_in_place$LT$syn..punctuated..Punctuated$LT$syn..expr..FieldValue$C$syn..token..Comma$GT$$GT$17h1114c1cefa0baa61E', symObjAddr: 0x86B0, symBinAddr: 0x3EFF0, symSize: 0xF0 }
  - { offsetInCU: 0x2068B, offset: 0x1582F9, size: 0x8, addend: 0x0, symName: '__ZN4core3ptr98drop_in_place$LT$alloc..vec..Vec$LT$$LP$syn..path..GenericArgument$C$syn..token..Comma$RP$$GT$$GT$17h91d589744b2f2f3fE', symObjAddr: 0x87A0, symBinAddr: 0x3F0E0, symSize: 0xD0 }
  - { offsetInCU: 0x209CB, offset: 0x158639, size: 0x8, addend: 0x0, symName: '__ZN4core3ptr98drop_in_place$LT$syn..punctuated..Punctuated$LT$syn..lifetime..Lifetime$C$syn..token..Plus$GT$$GT$17hf5d593077ac66faeE', symObjAddr: 0x8870, symBinAddr: 0x3F1B0, symSize: 0xC6 }
  - { offsetInCU: 0x21C02, offset: 0x159870, size: 0x8, addend: 0x0, symName: '__ZN40_$LT$F$u20$as$u20$syn..parse..Parser$GT$14__parse_scoped17hf0fb682e1219828fE', symObjAddr: 0x0, symBinAddr: 0x36940, symSize: 0x560 }
  - { offsetInCU: 0x22D1A, offset: 0x15A988, size: 0x8, addend: 0x0, symName: '__ZN40_$LT$F$u20$as$u20$syn..parse..Parser$GT$6parse217hd747787d09bbbbc9E', symObjAddr: 0x560, symBinAddr: 0x36EA0, symSize: 0x380 }
  - { offsetInCU: 0x1E, offset: 0x167FE5, size: 0x8, addend: 0x0, symName: __ZN3syn3lit6LitStr10parse_with17hb33fe17f550e36b2E, symObjAddr: 0x0, symBinAddr: 0x3F280, symSize: 0x450 }
  - { offsetInCU: 0xC7D, offset: 0x168C44, size: 0x8, addend: 0x0, symName: '__ZN42_$LT$$RF$T$u20$as$u20$core..fmt..Debug$GT$3fmt17hdcb8a39278edd139E', symObjAddr: 0x450, symBinAddr: 0x3F6D0, symSize: 0x10 }
  - { offsetInCU: 0x1CAD, offset: 0x169C74, size: 0x8, addend: 0x0, symName: '__ZN4core3ptr100drop_in_place$LT$core..option..Option$LT$alloc..boxed..Box$LT$syn..path..GenericArgument$GT$$GT$$GT$17hf167a5affd471861E', symObjAddr: 0x460, symBinAddr: 0x3F6E0, symSize: 0x50 }
  - { offsetInCU: 0x204B, offset: 0x16A012, size: 0x8, addend: 0x0, symName: '__ZN4core3ptr100drop_in_place$LT$syn..punctuated..Punctuated$LT$syn..path..PathSegment$C$syn..token..PathSep$GT$$GT$17h4b17d4c3c63cdcabE', symObjAddr: 0x4B0, symBinAddr: 0x3F730, symSize: 0x270 }
  - { offsetInCU: 0x29EE, offset: 0x16A9B5, size: 0x8, addend: 0x0, symName: '__ZN4core3ptr103drop_in_place$LT$core..option..Option$LT$alloc..boxed..Box$LT$syn..generics..TypeParamBound$GT$$GT$$GT$17h9dea5ae092e08b20E', symObjAddr: 0x720, symBinAddr: 0x3F9A0, symSize: 0x50 }
  - { offsetInCU: 0x2C37, offset: 0x16ABFE, size: 0x8, addend: 0x0, symName: '__ZN4core3ptr103drop_in_place$LT$core..option..Option$LT$alloc..boxed..Box$LT$syn..generics..WherePredicate$GT$$GT$$GT$17hd6ba4467447c42cdE', symObjAddr: 0x770, symBinAddr: 0x3F9F0, symSize: 0xD0 }
  - { offsetInCU: 0x2FCB, offset: 0x16AF92, size: 0x8, addend: 0x0, symName: '__ZN4core3ptr103drop_in_place$LT$syn..punctuated..Punctuated$LT$syn..generics..GenericParam$C$syn..token..Comma$GT$$GT$17h658bde4a9636b124E', symObjAddr: 0x840, symBinAddr: 0x3FAC0, symSize: 0xF0 }
  - { offsetInCU: 0x3488, offset: 0x16B44F, size: 0x8, addend: 0x0, symName: '__ZN4core3ptr104drop_in_place$LT$syn..punctuated..Punctuated$LT$syn..generics..TypeParamBound$C$syn..token..Plus$GT$$GT$17ha3f51cd584941d71E', symObjAddr: 0x930, symBinAddr: 0x3FBB0, symSize: 0x240 }
  - { offsetInCU: 0x3D62, offset: 0x16BD29, size: 0x8, addend: 0x0, symName: '__ZN4core3ptr34drop_in_place$LT$syn..lit..Lit$GT$17h0434771519353a93E', symObjAddr: 0xB70, symBinAddr: 0x3FDF0, symSize: 0x120 }
  - { offsetInCU: 0x4231, offset: 0x16C1F8, size: 0x8, addend: 0x0, symName: '__ZN4core3ptr34drop_in_place$LT$syn..pat..Pat$GT$17h23cd663dffbc1ca7E', symObjAddr: 0xC90, symBinAddr: 0x3FF10, symSize: 0x1090 }
  - { offsetInCU: 0x8231, offset: 0x1701F8, size: 0x8, addend: 0x0, symName: '__ZN4core3ptr34drop_in_place$LT$syn..ty..Type$GT$17h909bc58921451c92E', symObjAddr: 0x1D20, symBinAddr: 0x40FA0, symSize: 0x4F0 }
  - { offsetInCU: 0x9774, offset: 0x17173B, size: 0x8, addend: 0x0, symName: '__ZN4core3ptr36drop_in_place$LT$syn..expr..Expr$GT$17h594b288408c7049cE', symObjAddr: 0x2210, symBinAddr: 0x41490, symSize: 0x27D0 }
  - { offsetInCU: 0x12EA8, offset: 0x17AE6F, size: 0x8, addend: 0x0, symName: '__ZN4core3ptr36drop_in_place$LT$syn..mac..Macro$GT$17h8834c68712008aa5E', symObjAddr: 0x49E0, symBinAddr: 0x43C60, symSize: 0x40 }
  - { offsetInCU: 0x12EE2, offset: 0x17AEA9, size: 0x8, addend: 0x0, symName: '__ZN4core3ptr36drop_in_place$LT$syn..path..Path$GT$17ha7adc31831378d42E', symObjAddr: 0x4A20, symBinAddr: 0x43CA0, symSize: 0x240 }
  - { offsetInCU: 0x1387C, offset: 0x17B843, size: 0x8, addend: 0x0, symName: '__ZN4core3ptr37drop_in_place$LT$syn..stmt..Block$GT$17h53c13e8fb8186919E', symObjAddr: 0x4C60, symBinAddr: 0x43EE0, symSize: 0xD0 }
  - { offsetInCU: 0x13B53, offset: 0x17BB1A, size: 0x8, addend: 0x0, symName: '__ZN4core3ptr38drop_in_place$LT$syn..expr..Member$GT$17h72e5bb4cd394e37dE', symObjAddr: 0x4D30, symBinAddr: 0x43FB0, symSize: 0x30 }
  - { offsetInCU: 0x13C4F, offset: 0x17BC16, size: 0x8, addend: 0x0, symName: '__ZN4core3ptr39drop_in_place$LT$proc_macro2..Ident$GT$17h5478e913d990d07bE', symObjAddr: 0x4D60, symBinAddr: 0x43FE0, symSize: 0x30 }
  - { offsetInCU: 0x13D2C, offset: 0x17BCF3, size: 0x8, addend: 0x0, symName: '__ZN4core3ptr40drop_in_place$LT$syn..ty..ReturnType$GT$17h9812afc0e63dd5ffE', symObjAddr: 0x4D90, symBinAddr: 0x44010, symSize: 0x50 }
  - { offsetInCU: 0x13E9C, offset: 0x17BE63, size: 0x8, addend: 0x0, symName: '__ZN4core3ptr41drop_in_place$LT$syn..expr..ExprConst$GT$17h12ef3b77a42cb54cE', symObjAddr: 0x4DE0, symBinAddr: 0x44060, symSize: 0x180 }
  - { offsetInCU: 0x14455, offset: 0x17C41C, size: 0x8, addend: 0x0, symName: '__ZN4core3ptr43drop_in_place$LT$zeroize_derive..Bounds$GT$17h2f26f4fc1131b85dE', symObjAddr: 0x4F60, symBinAddr: 0x441E0, symSize: 0xE0 }
  - { offsetInCU: 0x1477B, offset: 0x17C742, size: 0x8, addend: 0x0, symName: '__ZN4core3ptr44drop_in_place$LT$syn..lifetime..Lifetime$GT$17h93bd87bb57a48243E', symObjAddr: 0x5040, symBinAddr: 0x442C0, symSize: 0x30 }
  - { offsetInCU: 0x149AD, offset: 0x17C974, size: 0x8, addend: 0x0, symName: '__ZN4core3ptr45drop_in_place$LT$proc_macro2..TokenStream$GT$17h9ee0c9f276c276e4E', symObjAddr: 0x5070, symBinAddr: 0x442F0, symSize: 0x140 }
  - { offsetInCU: 0x14E47, offset: 0x17CE0E, size: 0x8, addend: 0x0, symName: '__ZN4core3ptr45drop_in_place$LT$syn..generics..TypeParam$GT$17hdb94c232af087417E', symObjAddr: 0x51B0, symBinAddr: 0x44430, symSize: 0x230 }
  - { offsetInCU: 0x15688, offset: 0x17D64F, size: 0x8, addend: 0x0, symName: '__ZN4core3ptr46drop_in_place$LT$syn..generics..ConstParam$GT$17h7d9dde693af058dcE', symObjAddr: 0x53E0, symBinAddr: 0x44660, symSize: 0x150 }
  - { offsetInCU: 0x15AD5, offset: 0x17DA9C, size: 0x8, addend: 0x0, symName: '__ZN4core3ptr47drop_in_place$LT$syn..path..GenericArgument$GT$17he376c5495bfba2aeE', symObjAddr: 0x5530, symBinAddr: 0x447B0, symSize: 0x4A0 }
  - { offsetInCU: 0x16BDB, offset: 0x17EBA2, size: 0x8, addend: 0x0, symName: '__ZN4core3ptr49drop_in_place$LT$syn..generics..LifetimeParam$GT$17h96cd9c33a102590dE', symObjAddr: 0x59D0, symBinAddr: 0x44C50, symSize: 0xF0 }
  - { offsetInCU: 0x16FBE, offset: 0x17EF85, size: 0x8, addend: 0x0, symName: '__ZN4core3ptr50drop_in_place$LT$syn..generics..TypeParamBound$GT$17h6ae628d1347497b7E', symObjAddr: 0x5AC0, symBinAddr: 0x44D40, symSize: 0xA0 }
  - { offsetInCU: 0x17124, offset: 0x17F0EB, size: 0x8, addend: 0x0, symName: '__ZN4core3ptr58drop_in_place$LT$alloc..vec..Vec$LT$syn..expr..Arm$GT$$GT$17h4100114fe8e302a1E', symObjAddr: 0x5B60, symBinAddr: 0x44DE0, symSize: 0xD0 }
  - { offsetInCU: 0x173E4, offset: 0x17F3AB, size: 0x8, addend: 0x0, symName: '__ZN4core3ptr59drop_in_place$LT$alloc..boxed..Box$LT$syn..pat..Pat$GT$$GT$17hd6381a96bf9e5421E', symObjAddr: 0x5C30, symBinAddr: 0x44EB0, symSize: 0x50 }
  - { offsetInCU: 0x1753D, offset: 0x17F504, size: 0x8, addend: 0x0, symName: '__ZN4core3ptr59drop_in_place$LT$alloc..boxed..Box$LT$syn..ty..Type$GT$$GT$17hc3e166ebcc84a858E', symObjAddr: 0x5C80, symBinAddr: 0x44F00, symSize: 0x50 }
  - { offsetInCU: 0x17696, offset: 0x17F65D, size: 0x8, addend: 0x0, symName: '__ZN4core3ptr61drop_in_place$LT$alloc..boxed..Box$LT$syn..expr..Expr$GT$$GT$17h8a3c09d087fc5969E', symObjAddr: 0x5CD0, symBinAddr: 0x44F50, symSize: 0x50 }
  - { offsetInCU: 0x1786B, offset: 0x17F832, size: 0x8, addend: 0x0, symName: '__ZN4core3ptr61drop_in_place$LT$syn..path..ParenthesizedGenericArguments$GT$17hd70bdf37aa6ff03cE', symObjAddr: 0x5D20, symBinAddr: 0x44FA0, symSize: 0x170 }
  - { offsetInCU: 0x17E61, offset: 0x17FE28, size: 0x8, addend: 0x0, symName: '__ZN4core3ptr62drop_in_place$LT$syn..path..AngleBracketedGenericArguments$GT$17h158f3574e37847e0E', symObjAddr: 0x5E90, symBinAddr: 0x45110, symSize: 0x120 }
  - { offsetInCU: 0x182AC, offset: 0x180273, size: 0x8, addend: 0x0, symName: '__ZN4core3ptr63drop_in_place$LT$alloc..boxed..Box$LT$syn..lit..LitRepr$GT$$GT$17h31cfdbd46b573c47E', symObjAddr: 0x5FB0, symBinAddr: 0x45230, symSize: 0x60 }
  - { offsetInCU: 0x185B3, offset: 0x18057A, size: 0x8, addend: 0x0, symName: '__ZN4core3ptr64drop_in_place$LT$alloc..boxed..Box$LT$syn..pat..FieldPat$GT$$GT$17h3365f38bda158625E', symObjAddr: 0x6010, symBinAddr: 0x45290, symSize: 0x140 }
  - { offsetInCU: 0x18C80, offset: 0x180C47, size: 0x8, addend: 0x0, symName: '__ZN4core3ptr64drop_in_place$LT$alloc..boxed..Box$LT$syn..ty..BareFnArg$GT$$GT$17h6b76f3676f3d0a49E', symObjAddr: 0x6150, symBinAddr: 0x453D0, symSize: 0x140 }
  - { offsetInCU: 0x191D5, offset: 0x18119C, size: 0x8, addend: 0x0, symName: '__ZN4core3ptr65drop_in_place$LT$alloc..vec..Vec$LT$proc_macro..TokenTree$GT$$GT$17h7cd89395d30d9dbfE', symObjAddr: 0x6290, symBinAddr: 0x45510, symSize: 0x110 }
  - { offsetInCU: 0x195CD, offset: 0x181594, size: 0x8, addend: 0x0, symName: '__ZN4core3ptr65drop_in_place$LT$core..option..Option$LT$syn..expr..Label$GT$$GT$17h54063f51e70a6435E', symObjAddr: 0x63A0, symBinAddr: 0x45620, symSize: 0x30 }
  - { offsetInCU: 0x19707, offset: 0x1816CE, size: 0x8, addend: 0x0, symName: '__ZN4core3ptr66drop_in_place$LT$core..option..Option$LT$syn..pat..PatRest$GT$$GT$17h1383712323ca615bE', symObjAddr: 0x63D0, symBinAddr: 0x45650, symSize: 0xE0 }
  - { offsetInCU: 0x199FB, offset: 0x1819C2, size: 0x8, addend: 0x0, symName: '__ZN4core3ptr67drop_in_place$LT$alloc..boxed..Box$LT$syn..expr..FieldValue$GT$$GT$17h985c67b90f2c7616E', symObjAddr: 0x64B0, symBinAddr: 0x45730, symSize: 0x140 }
  - { offsetInCU: 0x19F30, offset: 0x181EF7, size: 0x8, addend: 0x0, symName: '__ZN4core3ptr68drop_in_place$LT$alloc..boxed..Box$LT$syn..path..PathSegment$GT$$GT$17ha1d12c8f4e9758ceE', symObjAddr: 0x65F0, symBinAddr: 0x45870, symSize: 0x1B0 }
  - { offsetInCU: 0x1A63E, offset: 0x182605, size: 0x8, addend: 0x0, symName: '__ZN4core3ptr70drop_in_place$LT$core..option..Option$LT$syn..ty..BareVariadic$GT$$GT$17he81f389e5718409eE', symObjAddr: 0x67A0, symBinAddr: 0x45A20, symSize: 0x100 }
  - { offsetInCU: 0x1AA75, offset: 0x182A3C, size: 0x8, addend: 0x0, symName: '__ZN4core3ptr72drop_in_place$LT$alloc..boxed..Box$LT$syn..path..GenericArgument$GT$$GT$17h1b9e463cda3248a8E', symObjAddr: 0x68A0, symBinAddr: 0x45B20, symSize: 0x2B0 }
  - { offsetInCU: 0x1B42D, offset: 0x1833F4, size: 0x8, addend: 0x0, symName: '__ZN4core3ptr72drop_in_place$LT$core..option..Option$LT$syn..lifetime..Lifetime$GT$$GT$17hc12d7babbc118bbdE', symObjAddr: 0x6B50, symBinAddr: 0x45DD0, symSize: 0x30 }
  - { offsetInCU: 0x1B548, offset: 0x18350F, size: 0x8, addend: 0x0, symName: '__ZN4core3ptr73drop_in_place$LT$alloc..boxed..Box$LT$syn..generics..GenericParam$GT$$GT$17h3331d3ffd607b7a6E', symObjAddr: 0x6B80, symBinAddr: 0x45E00, symSize: 0x80 }
  - { offsetInCU: 0x1B6BE, offset: 0x183685, size: 0x8, addend: 0x0, symName: '__ZN4core3ptr75drop_in_place$LT$alloc..boxed..Box$LT$syn..generics..TypeParamBound$GT$$GT$17heae9d7d18d79ffc2E', symObjAddr: 0x6C00, symBinAddr: 0x45E80, symSize: 0x180 }
  - { offsetInCU: 0x1BCAA, offset: 0x183C71, size: 0x8, addend: 0x0, symName: '__ZN4core3ptr86drop_in_place$LT$syn..punctuated..Punctuated$LT$syn..pat..Pat$C$syn..token..Or$GT$$GT$17h033a362705bb3bb5E', symObjAddr: 0x6D80, symBinAddr: 0x46000, symSize: 0x120 }
  - { offsetInCU: 0x1C125, offset: 0x1840EC, size: 0x8, addend: 0x0, symName: '__ZN4core3ptr87drop_in_place$LT$core..option..Option$LT$alloc..boxed..Box$LT$syn..pat..Pat$GT$$GT$$GT$17h23c83b610267a13bE', symObjAddr: 0x6EA0, symBinAddr: 0x46120, symSize: 0x50 }
  - { offsetInCU: 0x1C295, offset: 0x18425C, size: 0x8, addend: 0x0, symName: '__ZN4core3ptr87drop_in_place$LT$core..option..Option$LT$alloc..boxed..Box$LT$syn..ty..Type$GT$$GT$$GT$17h9272f0759741e526E', symObjAddr: 0x6EF0, symBinAddr: 0x46170, symSize: 0x50 }
  - { offsetInCU: 0x1C405, offset: 0x1843CC, size: 0x8, addend: 0x0, symName: '__ZN4core3ptr89drop_in_place$LT$core..option..Option$LT$alloc..boxed..Box$LT$syn..expr..Expr$GT$$GT$$GT$17h1b402876673ee224E', symObjAddr: 0x6F40, symBinAddr: 0x461C0, symSize: 0x50 }
  - { offsetInCU: 0x1C5B3, offset: 0x18457A, size: 0x8, addend: 0x0, symName: '__ZN4core3ptr89drop_in_place$LT$syn..punctuated..Punctuated$LT$syn..pat..Pat$C$syn..token..Comma$GT$$GT$17h1a51e79614c23b8fE', symObjAddr: 0x6F90, symBinAddr: 0x46210, symSize: 0x120 }
  - { offsetInCU: 0x1CA45, offset: 0x184A0C, size: 0x8, addend: 0x0, symName: '__ZN4core3ptr89drop_in_place$LT$syn..punctuated..Punctuated$LT$syn..ty..Type$C$syn..token..Comma$GT$$GT$17hfe815f139041dbd4E', symObjAddr: 0x70B0, symBinAddr: 0x46330, symSize: 0x120 }
  - { offsetInCU: 0x1CEC0, offset: 0x184E87, size: 0x8, addend: 0x0, symName: '__ZN4core3ptr90drop_in_place$LT$core..option..Option$LT$syn..path..AngleBracketedGenericArguments$GT$$GT$17h35b555e538b98195E', symObjAddr: 0x71D0, symBinAddr: 0x46450, symSize: 0x130 }
  - { offsetInCU: 0x1D362, offset: 0x185329, size: 0x8, addend: 0x0, symName: '__ZN4core3ptr91drop_in_place$LT$syn..punctuated..Punctuated$LT$syn..expr..Expr$C$syn..token..Comma$GT$$GT$17h2089aa266eda8e71E', symObjAddr: 0x7300, symBinAddr: 0x46580, symSize: 0x120 }
  - { offsetInCU: 0x1D7F0, offset: 0x1857B7, size: 0x8, addend: 0x0, symName: '__ZN4core3ptr94drop_in_place$LT$syn..punctuated..Punctuated$LT$syn..pat..FieldPat$C$syn..token..Comma$GT$$GT$17hebbefb546a57efdfE', symObjAddr: 0x7420, symBinAddr: 0x466A0, symSize: 0xF0 }
  - { offsetInCU: 0x1DAEF, offset: 0x185AB6, size: 0x8, addend: 0x0, symName: '__ZN4core3ptr94drop_in_place$LT$syn..punctuated..Punctuated$LT$syn..ty..BareFnArg$C$syn..token..Comma$GT$$GT$17h8a5a74831bf9b9a0E', symObjAddr: 0x7510, symBinAddr: 0x46790, symSize: 0xF0 }
  - { offsetInCU: 0x1DDF0, offset: 0x185DB7, size: 0x8, addend: 0x0, symName: '__ZN4core3ptr96drop_in_place$LT$core..option..Option$LT$alloc..boxed..Box$LT$syn..path..PathSegment$GT$$GT$$GT$17h34901984f508e5eeE', symObjAddr: 0x7600, symBinAddr: 0x46880, symSize: 0xA0 }
  - { offsetInCU: 0x1E06F, offset: 0x186036, size: 0x8, addend: 0x0, symName: '__ZN4core3ptr97drop_in_place$LT$syn..punctuated..Punctuated$LT$syn..expr..FieldValue$C$syn..token..Comma$GT$$GT$17h1114c1cefa0baa61E', symObjAddr: 0x76A0, symBinAddr: 0x46920, symSize: 0xF0 }
  - { offsetInCU: 0x1E36C, offset: 0x186333, size: 0x8, addend: 0x0, symName: '__ZN4core3ptr98drop_in_place$LT$alloc..vec..Vec$LT$$LP$syn..path..GenericArgument$C$syn..token..Comma$RP$$GT$$GT$17h91d589744b2f2f3fE', symObjAddr: 0x7790, symBinAddr: 0x46A10, symSize: 0xD0 }
  - { offsetInCU: 0x1E6AC, offset: 0x186673, size: 0x8, addend: 0x0, symName: '__ZN4core3ptr98drop_in_place$LT$syn..punctuated..Punctuated$LT$syn..lifetime..Lifetime$C$syn..token..Plus$GT$$GT$17hf5d593077ac66faeE', symObjAddr: 0x7860, symBinAddr: 0x46AE0, symSize: 0xC6 }
  - { offsetInCU: 0x28555, offset: 0x19051C, size: 0x8, addend: 0x0, symName: __ZN3syn3lit6LitStr10parse_with17hb33fe17f550e36b2E, symObjAddr: 0x0, symBinAddr: 0x3F280, symSize: 0x450 }
  - { offsetInCU: 0x1E, offset: 0x193E24, size: 0x8, addend: 0x0, symName: __ZN3syn11parse_quote5parse17h6264aec84ffa689aE, symObjAddr: 0x0, symBinAddr: 0x46BB0, symSize: 0x420 }
  - { offsetInCU: 0x1B8E, offset: 0x195994, size: 0x8, addend: 0x0, symName: '__ZN4core3ptr100drop_in_place$LT$core..option..Option$LT$alloc..boxed..Box$LT$syn..path..GenericArgument$GT$$GT$$GT$17hf167a5affd471861E', symObjAddr: 0x470, symBinAddr: 0x46FD0, symSize: 0x50 }
  - { offsetInCU: 0x1F2C, offset: 0x195D32, size: 0x8, addend: 0x0, symName: '__ZN4core3ptr100drop_in_place$LT$syn..punctuated..Punctuated$LT$syn..path..PathSegment$C$syn..token..PathSep$GT$$GT$17h4b17d4c3c63cdcabE', symObjAddr: 0x4C0, symBinAddr: 0x47020, symSize: 0x270 }
  - { offsetInCU: 0x28CF, offset: 0x1966D5, size: 0x8, addend: 0x0, symName: '__ZN4core3ptr103drop_in_place$LT$core..option..Option$LT$alloc..boxed..Box$LT$syn..generics..TypeParamBound$GT$$GT$$GT$17h9dea5ae092e08b20E', symObjAddr: 0x730, symBinAddr: 0x47290, symSize: 0x50 }
  - { offsetInCU: 0x2ADA, offset: 0x1968E0, size: 0x8, addend: 0x0, symName: '__ZN4core3ptr103drop_in_place$LT$syn..punctuated..Punctuated$LT$syn..generics..GenericParam$C$syn..token..Comma$GT$$GT$17h658bde4a9636b124E', symObjAddr: 0x780, symBinAddr: 0x472E0, symSize: 0xF0 }
  - { offsetInCU: 0x2FF4, offset: 0x196DFA, size: 0x8, addend: 0x0, symName: '__ZN4core3ptr104drop_in_place$LT$syn..punctuated..Punctuated$LT$syn..generics..TypeParamBound$C$syn..token..Plus$GT$$GT$17ha3f51cd584941d71E', symObjAddr: 0x870, symBinAddr: 0x473D0, symSize: 0x240 }
  - { offsetInCU: 0x392B, offset: 0x197731, size: 0x8, addend: 0x0, symName: '__ZN4core3ptr34drop_in_place$LT$syn..lit..Lit$GT$17h0434771519353a93E', symObjAddr: 0xAB0, symBinAddr: 0x47610, symSize: 0x120 }
  - { offsetInCU: 0x3DFA, offset: 0x197C00, size: 0x8, addend: 0x0, symName: '__ZN4core3ptr34drop_in_place$LT$syn..pat..Pat$GT$17h23cd663dffbc1ca7E', symObjAddr: 0xBD0, symBinAddr: 0x47730, symSize: 0x1090 }
  - { offsetInCU: 0x7DFA, offset: 0x19BC00, size: 0x8, addend: 0x0, symName: '__ZN4core3ptr34drop_in_place$LT$syn..ty..Type$GT$17h909bc58921451c92E', symObjAddr: 0x1C60, symBinAddr: 0x487C0, symSize: 0x4F0 }
  - { offsetInCU: 0x933D, offset: 0x19D143, size: 0x8, addend: 0x0, symName: '__ZN4core3ptr36drop_in_place$LT$syn..expr..Expr$GT$17h594b288408c7049cE', symObjAddr: 0x2150, symBinAddr: 0x48CB0, symSize: 0x27D0 }
  - { offsetInCU: 0x12A71, offset: 0x1A6877, size: 0x8, addend: 0x0, symName: '__ZN4core3ptr36drop_in_place$LT$syn..mac..Macro$GT$17h8834c68712008aa5E', symObjAddr: 0x4920, symBinAddr: 0x4B480, symSize: 0x40 }
  - { offsetInCU: 0x12AAB, offset: 0x1A68B1, size: 0x8, addend: 0x0, symName: '__ZN4core3ptr36drop_in_place$LT$syn..path..Path$GT$17ha7adc31831378d42E', symObjAddr: 0x4960, symBinAddr: 0x4B4C0, symSize: 0x240 }
  - { offsetInCU: 0x13445, offset: 0x1A724B, size: 0x8, addend: 0x0, symName: '__ZN4core3ptr37drop_in_place$LT$syn..stmt..Block$GT$17h53c13e8fb8186919E', symObjAddr: 0x4BA0, symBinAddr: 0x4B700, symSize: 0xD0 }
  - { offsetInCU: 0x1375A, offset: 0x1A7560, size: 0x8, addend: 0x0, symName: '__ZN4core3ptr38drop_in_place$LT$syn..error..Error$GT$17h5ccae85f8db8faadE', symObjAddr: 0x4C70, symBinAddr: 0x4B7D0, symSize: 0x90 }
  - { offsetInCU: 0x13A1B, offset: 0x1A7821, size: 0x8, addend: 0x0, symName: '__ZN4core3ptr38drop_in_place$LT$syn..expr..Member$GT$17h72e5bb4cd394e37dE', symObjAddr: 0x4D00, symBinAddr: 0x4B860, symSize: 0x30 }
  - { offsetInCU: 0x13B17, offset: 0x1A791D, size: 0x8, addend: 0x0, symName: '__ZN4core3ptr39drop_in_place$LT$proc_macro2..Ident$GT$17h5478e913d990d07bE', symObjAddr: 0x4D30, symBinAddr: 0x4B890, symSize: 0x30 }
  - { offsetInCU: 0x13D2A, offset: 0x1A7B30, size: 0x8, addend: 0x0, symName: '__ZN4core3ptr39drop_in_place$LT$syn..buffer..Entry$GT$17hf44f0a6a23dcf947E', symObjAddr: 0x4D60, symBinAddr: 0x4B8C0, symSize: 0xB0 }
  - { offsetInCU: 0x140B5, offset: 0x1A7EBB, size: 0x8, addend: 0x0, symName: '__ZN4core3ptr40drop_in_place$LT$syn..ty..ReturnType$GT$17h9812afc0e63dd5ffE', symObjAddr: 0x4E10, symBinAddr: 0x4B970, symSize: 0x50 }
  - { offsetInCU: 0x14225, offset: 0x1A802B, size: 0x8, addend: 0x0, symName: '__ZN4core3ptr41drop_in_place$LT$syn..expr..ExprConst$GT$17h12ef3b77a42cb54cE', symObjAddr: 0x4E60, symBinAddr: 0x4B9C0, symSize: 0x180 }
  - { offsetInCU: 0x147DE, offset: 0x1A85E4, size: 0x8, addend: 0x0, symName: '__ZN4core3ptr44drop_in_place$LT$syn..lifetime..Lifetime$GT$17h93bd87bb57a48243E', symObjAddr: 0x4FE0, symBinAddr: 0x4BB40, symSize: 0x30 }
  - { offsetInCU: 0x148DA, offset: 0x1A86E0, size: 0x8, addend: 0x0, symName: '__ZN4core3ptr44drop_in_place$LT$syn..parse..ParseBuffer$GT$17h73a2846d427910eeE', symObjAddr: 0x5010, symBinAddr: 0x4BB70, symSize: 0x70 }
  - { offsetInCU: 0x14C56, offset: 0x1A8A5C, size: 0x8, addend: 0x0, symName: '__ZN4core3ptr45drop_in_place$LT$proc_macro2..TokenStream$GT$17h9ee0c9f276c276e4E', symObjAddr: 0x5080, symBinAddr: 0x4BBE0, symSize: 0x140 }
  - { offsetInCU: 0x150B2, offset: 0x1A8EB8, size: 0x8, addend: 0x0, symName: '__ZN4core3ptr45drop_in_place$LT$syn..buffer..TokenBuffer$GT$17he9da39ba11c96b28E', symObjAddr: 0x51C0, symBinAddr: 0x4BD20, symSize: 0xC0 }
  - { offsetInCU: 0x1531A, offset: 0x1A9120, size: 0x8, addend: 0x0, symName: '__ZN4core3ptr45drop_in_place$LT$syn..generics..TypeParam$GT$17hdb94c232af087417E', symObjAddr: 0x5280, symBinAddr: 0x4BDE0, symSize: 0x230 }
  - { offsetInCU: 0x15B5B, offset: 0x1A9961, size: 0x8, addend: 0x0, symName: '__ZN4core3ptr46drop_in_place$LT$syn..generics..ConstParam$GT$17h7d9dde693af058dcE', symObjAddr: 0x54B0, symBinAddr: 0x4C010, symSize: 0x150 }
  - { offsetInCU: 0x15FA8, offset: 0x1A9DAE, size: 0x8, addend: 0x0, symName: '__ZN4core3ptr47drop_in_place$LT$syn..path..GenericArgument$GT$17he376c5495bfba2aeE', symObjAddr: 0x5600, symBinAddr: 0x4C160, symSize: 0x4A0 }
  - { offsetInCU: 0x170AE, offset: 0x1AAEB4, size: 0x8, addend: 0x0, symName: '__ZN4core3ptr49drop_in_place$LT$syn..generics..LifetimeParam$GT$17h96cd9c33a102590dE', symObjAddr: 0x5AA0, symBinAddr: 0x4C600, symSize: 0xF0 }
  - { offsetInCU: 0x17491, offset: 0x1AB297, size: 0x8, addend: 0x0, symName: '__ZN4core3ptr50drop_in_place$LT$syn..generics..TypeParamBound$GT$17h6ae628d1347497b7E', symObjAddr: 0x5B90, symBinAddr: 0x4C6F0, symSize: 0xA0 }
  - { offsetInCU: 0x17635, offset: 0x1AB43B, size: 0x8, addend: 0x0, symName: '__ZN4core3ptr50drop_in_place$LT$syn..generics..WherePredicate$GT$17h0636ac574991fb76E', symObjAddr: 0x5C30, symBinAddr: 0x4C790, symSize: 0xA0 }
  - { offsetInCU: 0x177D9, offset: 0x1AB5DF, size: 0x8, addend: 0x0, symName: '__ZN4core3ptr58drop_in_place$LT$alloc..vec..Vec$LT$syn..expr..Arm$GT$$GT$17h4100114fe8e302a1E', symObjAddr: 0x5CD0, symBinAddr: 0x4C830, symSize: 0xD0 }
  - { offsetInCU: 0x17A99, offset: 0x1AB89F, size: 0x8, addend: 0x0, symName: '__ZN4core3ptr59drop_in_place$LT$alloc..boxed..Box$LT$syn..pat..Pat$GT$$GT$17hd6381a96bf9e5421E', symObjAddr: 0x5DA0, symBinAddr: 0x4C900, symSize: 0x50 }
  - { offsetInCU: 0x17BF2, offset: 0x1AB9F8, size: 0x8, addend: 0x0, symName: '__ZN4core3ptr59drop_in_place$LT$alloc..boxed..Box$LT$syn..ty..Type$GT$$GT$17hc3e166ebcc84a858E', symObjAddr: 0x5DF0, symBinAddr: 0x4C950, symSize: 0x50 }
  - { offsetInCU: 0x17D4B, offset: 0x1ABB51, size: 0x8, addend: 0x0, symName: '__ZN4core3ptr61drop_in_place$LT$alloc..boxed..Box$LT$syn..expr..Expr$GT$$GT$17h8a3c09d087fc5969E', symObjAddr: 0x5E40, symBinAddr: 0x4C9A0, symSize: 0x50 }
  - { offsetInCU: 0x17F20, offset: 0x1ABD26, size: 0x8, addend: 0x0, symName: '__ZN4core3ptr61drop_in_place$LT$syn..path..ParenthesizedGenericArguments$GT$17hd70bdf37aa6ff03cE', symObjAddr: 0x5E90, symBinAddr: 0x4C9F0, symSize: 0x170 }
  - { offsetInCU: 0x18516, offset: 0x1AC31C, size: 0x8, addend: 0x0, symName: '__ZN4core3ptr62drop_in_place$LT$syn..path..AngleBracketedGenericArguments$GT$17h158f3574e37847e0E', symObjAddr: 0x6000, symBinAddr: 0x4CB60, symSize: 0x120 }
  - { offsetInCU: 0x18961, offset: 0x1AC767, size: 0x8, addend: 0x0, symName: '__ZN4core3ptr63drop_in_place$LT$alloc..boxed..Box$LT$syn..lit..LitRepr$GT$$GT$17h31cfdbd46b573c47E', symObjAddr: 0x6120, symBinAddr: 0x4CC80, symSize: 0x60 }
  - { offsetInCU: 0x18C68, offset: 0x1ACA6E, size: 0x8, addend: 0x0, symName: '__ZN4core3ptr64drop_in_place$LT$alloc..boxed..Box$LT$syn..pat..FieldPat$GT$$GT$17h3365f38bda158625E', symObjAddr: 0x6180, symBinAddr: 0x4CCE0, symSize: 0x140 }
  - { offsetInCU: 0x19335, offset: 0x1AD13B, size: 0x8, addend: 0x0, symName: '__ZN4core3ptr64drop_in_place$LT$alloc..boxed..Box$LT$syn..ty..BareFnArg$GT$$GT$17h6b76f3676f3d0a49E', symObjAddr: 0x62C0, symBinAddr: 0x4CE20, symSize: 0x140 }
  - { offsetInCU: 0x1988A, offset: 0x1AD690, size: 0x8, addend: 0x0, symName: '__ZN4core3ptr65drop_in_place$LT$alloc..vec..Vec$LT$proc_macro..TokenTree$GT$$GT$17h7cd89395d30d9dbfE', symObjAddr: 0x6400, symBinAddr: 0x4CF60, symSize: 0x110 }
  - { offsetInCU: 0x19C82, offset: 0x1ADA88, size: 0x8, addend: 0x0, symName: '__ZN4core3ptr65drop_in_place$LT$core..option..Option$LT$syn..expr..Label$GT$$GT$17h54063f51e70a6435E', symObjAddr: 0x6510, symBinAddr: 0x4D070, symSize: 0x30 }
  - { offsetInCU: 0x19DBC, offset: 0x1ADBC2, size: 0x8, addend: 0x0, symName: '__ZN4core3ptr66drop_in_place$LT$core..option..Option$LT$syn..pat..PatRest$GT$$GT$17h1383712323ca615bE', symObjAddr: 0x6540, symBinAddr: 0x4D0A0, symSize: 0xE0 }
  - { offsetInCU: 0x1A0B0, offset: 0x1ADEB6, size: 0x8, addend: 0x0, symName: '__ZN4core3ptr67drop_in_place$LT$alloc..boxed..Box$LT$syn..expr..FieldValue$GT$$GT$17h985c67b90f2c7616E', symObjAddr: 0x6620, symBinAddr: 0x4D180, symSize: 0x140 }
  - { offsetInCU: 0x1A5E5, offset: 0x1AE3EB, size: 0x8, addend: 0x0, symName: '__ZN4core3ptr68drop_in_place$LT$alloc..boxed..Box$LT$syn..path..PathSegment$GT$$GT$17ha1d12c8f4e9758ceE', symObjAddr: 0x6760, symBinAddr: 0x4D2C0, symSize: 0x1B0 }
  - { offsetInCU: 0x1ACF3, offset: 0x1AEAF9, size: 0x8, addend: 0x0, symName: '__ZN4core3ptr70drop_in_place$LT$core..option..Option$LT$syn..ty..BareVariadic$GT$$GT$17he81f389e5718409eE', symObjAddr: 0x6910, symBinAddr: 0x4D470, symSize: 0x100 }
  - { offsetInCU: 0x1B12A, offset: 0x1AEF30, size: 0x8, addend: 0x0, symName: '__ZN4core3ptr72drop_in_place$LT$alloc..boxed..Box$LT$syn..path..GenericArgument$GT$$GT$17h1b9e463cda3248a8E', symObjAddr: 0x6A10, symBinAddr: 0x4D570, symSize: 0x2B0 }
  - { offsetInCU: 0x1BAE2, offset: 0x1AF8E8, size: 0x8, addend: 0x0, symName: '__ZN4core3ptr72drop_in_place$LT$core..option..Option$LT$syn..lifetime..Lifetime$GT$$GT$17hc12d7babbc118bbdE', symObjAddr: 0x6CC0, symBinAddr: 0x4D820, symSize: 0x30 }
  - { offsetInCU: 0x1BBFD, offset: 0x1AFA03, size: 0x8, addend: 0x0, symName: '__ZN4core3ptr73drop_in_place$LT$alloc..boxed..Box$LT$syn..generics..GenericParam$GT$$GT$17h3331d3ffd607b7a6E', symObjAddr: 0x6CF0, symBinAddr: 0x4D850, symSize: 0x80 }
  - { offsetInCU: 0x1BD73, offset: 0x1AFB79, size: 0x8, addend: 0x0, symName: '__ZN4core3ptr75drop_in_place$LT$alloc..boxed..Box$LT$syn..generics..TypeParamBound$GT$$GT$17heae9d7d18d79ffc2E', symObjAddr: 0x6D70, symBinAddr: 0x4D8D0, symSize: 0x180 }
  - { offsetInCU: 0x1C35F, offset: 0x1B0165, size: 0x8, addend: 0x0, symName: '__ZN4core3ptr86drop_in_place$LT$syn..punctuated..Punctuated$LT$syn..pat..Pat$C$syn..token..Or$GT$$GT$17h033a362705bb3bb5E', symObjAddr: 0x6EF0, symBinAddr: 0x4DA50, symSize: 0x120 }
  - { offsetInCU: 0x1C7DA, offset: 0x1B05E0, size: 0x8, addend: 0x0, symName: '__ZN4core3ptr87drop_in_place$LT$core..option..Option$LT$alloc..boxed..Box$LT$syn..pat..Pat$GT$$GT$$GT$17h23c83b610267a13bE', symObjAddr: 0x7010, symBinAddr: 0x4DB70, symSize: 0x50 }
  - { offsetInCU: 0x1C94A, offset: 0x1B0750, size: 0x8, addend: 0x0, symName: '__ZN4core3ptr87drop_in_place$LT$core..option..Option$LT$alloc..boxed..Box$LT$syn..ty..Type$GT$$GT$$GT$17h9272f0759741e526E', symObjAddr: 0x7060, symBinAddr: 0x4DBC0, symSize: 0x50 }
  - { offsetInCU: 0x1CABA, offset: 0x1B08C0, size: 0x8, addend: 0x0, symName: '__ZN4core3ptr89drop_in_place$LT$core..option..Option$LT$alloc..boxed..Box$LT$syn..expr..Expr$GT$$GT$$GT$17h1b402876673ee224E', symObjAddr: 0x70B0, symBinAddr: 0x4DC10, symSize: 0x50 }
  - { offsetInCU: 0x1CC68, offset: 0x1B0A6E, size: 0x8, addend: 0x0, symName: '__ZN4core3ptr89drop_in_place$LT$syn..punctuated..Punctuated$LT$syn..pat..Pat$C$syn..token..Comma$GT$$GT$17h1a51e79614c23b8fE', symObjAddr: 0x7100, symBinAddr: 0x4DC60, symSize: 0x120 }
  - { offsetInCU: 0x1D0FA, offset: 0x1B0F00, size: 0x8, addend: 0x0, symName: '__ZN4core3ptr89drop_in_place$LT$syn..punctuated..Punctuated$LT$syn..ty..Type$C$syn..token..Comma$GT$$GT$17hfe815f139041dbd4E', symObjAddr: 0x7220, symBinAddr: 0x4DD80, symSize: 0x120 }
  - { offsetInCU: 0x1D575, offset: 0x1B137B, size: 0x8, addend: 0x0, symName: '__ZN4core3ptr90drop_in_place$LT$core..option..Option$LT$syn..path..AngleBracketedGenericArguments$GT$$GT$17h35b555e538b98195E', symObjAddr: 0x7340, symBinAddr: 0x4DEA0, symSize: 0x130 }
  - { offsetInCU: 0x1DA17, offset: 0x1B181D, size: 0x8, addend: 0x0, symName: '__ZN4core3ptr91drop_in_place$LT$syn..punctuated..Punctuated$LT$syn..expr..Expr$C$syn..token..Comma$GT$$GT$17h2089aa266eda8e71E', symObjAddr: 0x7470, symBinAddr: 0x4DFD0, symSize: 0x120 }
  - { offsetInCU: 0x1DEA5, offset: 0x1B1CAB, size: 0x8, addend: 0x0, symName: '__ZN4core3ptr94drop_in_place$LT$syn..punctuated..Punctuated$LT$syn..pat..FieldPat$C$syn..token..Comma$GT$$GT$17hebbefb546a57efdfE', symObjAddr: 0x7590, symBinAddr: 0x4E0F0, symSize: 0xF0 }
  - { offsetInCU: 0x1E1A4, offset: 0x1B1FAA, size: 0x8, addend: 0x0, symName: '__ZN4core3ptr94drop_in_place$LT$syn..punctuated..Punctuated$LT$syn..ty..BareFnArg$C$syn..token..Comma$GT$$GT$17h8a5a74831bf9b9a0E', symObjAddr: 0x7680, symBinAddr: 0x4E1E0, symSize: 0xF0 }
  - { offsetInCU: 0x1E4A5, offset: 0x1B22AB, size: 0x8, addend: 0x0, symName: '__ZN4core3ptr96drop_in_place$LT$core..option..Option$LT$alloc..boxed..Box$LT$syn..path..PathSegment$GT$$GT$$GT$17h34901984f508e5eeE', symObjAddr: 0x7770, symBinAddr: 0x4E2D0, symSize: 0xA0 }
  - { offsetInCU: 0x1E724, offset: 0x1B252A, size: 0x8, addend: 0x0, symName: '__ZN4core3ptr97drop_in_place$LT$syn..punctuated..Punctuated$LT$syn..expr..FieldValue$C$syn..token..Comma$GT$$GT$17h1114c1cefa0baa61E', symObjAddr: 0x7810, symBinAddr: 0x4E370, symSize: 0xF0 }
  - { offsetInCU: 0x1EA21, offset: 0x1B2827, size: 0x8, addend: 0x0, symName: '__ZN4core3ptr98drop_in_place$LT$alloc..vec..Vec$LT$$LP$syn..path..GenericArgument$C$syn..token..Comma$RP$$GT$$GT$17h91d589744b2f2f3fE', symObjAddr: 0x7900, symBinAddr: 0x4E460, symSize: 0xD0 }
  - { offsetInCU: 0x1ED61, offset: 0x1B2B67, size: 0x8, addend: 0x0, symName: '__ZN4core3ptr98drop_in_place$LT$syn..punctuated..Punctuated$LT$syn..lifetime..Lifetime$C$syn..token..Plus$GT$$GT$17hf5d593077ac66faeE', symObjAddr: 0x79D0, symBinAddr: 0x4E530, symSize: 0xC6 }
  - { offsetInCU: 0x264C4, offset: 0x1BA2CA, size: 0x8, addend: 0x0, symName: __ZN3syn11parse_quote5parse17h6264aec84ffa689aE, symObjAddr: 0x0, symBinAddr: 0x46BB0, symSize: 0x420 }
  - { offsetInCU: 0x26CCF, offset: 0x1BAAD5, size: 0x8, addend: 0x0, symName: __ZN3syn11parse_quote5parse18panic_cold_display17hfa44e676c2cc1d32E, symObjAddr: 0x420, symBinAddr: 0x20A080, symSize: 0x50 }
  - { offsetInCU: 0x7AF, offset: 0x1C05CF, size: 0x8, addend: 0x0, symName: '__ZN68_$LT$$RF$str$u20$as$u20$proc_macro..bridge..rpc..Encode$LT$S$GT$$GT$6encode17h041459fc48986f5fE', symObjAddr: 0x80, symBinAddr: 0x4E600, symSize: 0x230 }
  - { offsetInCU: 0x35, offset: 0x1C0C42, size: 0x8, addend: 0x0, symName: _anon.f847d9ac2a1b73e3e34fe1baabcd462e.0.llvm.3304528208728069501, symObjAddr: 0x500, symBinAddr: 0x2706F0, symSize: 0x0 }
  - { offsetInCU: 0x18F, offset: 0x1C0D9C, size: 0x8, addend: 0x0, symName: '__ZN58_$LT$alloc..string..String$u20$as$u20$core..fmt..Write$GT$10write_char17h04bc467bd68a934bE.llvm.3304528208728069501', symObjAddr: 0x320, symBinAddr: 0x4EA50, symSize: 0x140 }
  - { offsetInCU: 0x594, offset: 0x1C11A1, size: 0x8, addend: 0x0, symName: '__ZN58_$LT$alloc..string..String$u20$as$u20$core..fmt..Write$GT$9write_str17h46a93205c3443fbaE.llvm.3304528208728069501', symObjAddr: 0x460, symBinAddr: 0x4EB90, symSize: 0x5B }
  - { offsetInCU: 0x1280, offset: 0x1C1E8D, size: 0x8, addend: 0x0, symName: '__ZN4core3ptr42drop_in_place$LT$alloc..string..String$GT$17h053396f099625664E.llvm.3304528208728069501', symObjAddr: 0x2E0, symBinAddr: 0x4EA10, symSize: 0x20 }
  - { offsetInCU: 0x16B0, offset: 0x1C22BD, size: 0x8, addend: 0x0, symName: '__ZN53_$LT$core..fmt..Error$u20$as$u20$core..fmt..Debug$GT$3fmt17h03dc662ab152f3aeE.llvm.3304528208728069501', symObjAddr: 0x300, symBinAddr: 0x4EA30, symSize: 0x20 }
  - { offsetInCU: 0x1CBD, offset: 0x1C28CA, size: 0x8, addend: 0x0, symName: _anon.f847d9ac2a1b73e3e34fe1baabcd462e.4.llvm.3304528208728069501, symObjAddr: 0x548, symBinAddr: 0x270738, symSize: 0x0 }
  - { offsetInCU: 0x2227, offset: 0x1C2E34, size: 0x8, addend: 0x0, symName: __ZN3syn5error5Error3new17ha6764feb9c7c6de3E, symObjAddr: 0x80, symBinAddr: 0x4E830, symSize: 0xF0 }
  - { offsetInCU: 0x261C, offset: 0x1C3229, size: 0x8, addend: 0x0, symName: __ZN3syn5error5Error3new17hb44d3ed14fbc6d64E, symObjAddr: 0x1F0, symBinAddr: 0x4E920, symSize: 0xF0 }
  - { offsetInCU: 0x48F, offset: 0x1C3FFD, size: 0x8, addend: 0x0, symName: __ZN10proc_macro6bridge6client10run_client17ha8fac30b7400c3ffE, symObjAddr: 0x190, symBinAddr: 0x4EBF0, symSize: 0x2E0 }
  - { offsetInCU: 0xB69, offset: 0x1C46D7, size: 0x8, addend: 0x0, symName: __ZN10proc_macro6bridge6client10run_client17hd5f964ad3a3c998eE, symObjAddr: 0x470, symBinAddr: 0x4EED0, symSize: 0x2DB }
  - { offsetInCU: 0x1E, offset: 0x1C6562, size: 0x8, addend: 0x0, symName: __ZN4core3fmt5Write9write_fmt17h16ecd90c588526f7E, symObjAddr: 0x0, symBinAddr: 0x4F1B0, symSize: 0x20 }
  - { offsetInCU: 0x98, offset: 0x1C65DC, size: 0x8, addend: 0x0, symName: '__ZN58_$LT$alloc..string..String$u20$as$u20$core..fmt..Write$GT$10write_char17h04bc467bd68a934bE', symObjAddr: 0x40, symBinAddr: 0x4F1F0, symSize: 0x140 }
  - { offsetInCU: 0x49D, offset: 0x1C69E1, size: 0x8, addend: 0x0, symName: '__ZN58_$LT$alloc..string..String$u20$as$u20$core..fmt..Write$GT$9write_str17h46a93205c3443fbaE', symObjAddr: 0x180, symBinAddr: 0x4F330, symSize: 0x5B }
  - { offsetInCU: 0xAC1, offset: 0x1C7005, size: 0x8, addend: 0x0, symName: '__ZN4core3ptr42drop_in_place$LT$alloc..string..String$GT$17h053396f099625664E', symObjAddr: 0x20, symBinAddr: 0x4F1D0, symSize: 0x20 }
  - { offsetInCU: 0xE54, offset: 0x1C7398, size: 0x8, addend: 0x0, symName: __ZN4core3fmt5Write9write_fmt17h16ecd90c588526f7E, symObjAddr: 0x0, symBinAddr: 0x4F1B0, symSize: 0x20 }
  - { offsetInCU: 0x1E, offset: 0x1C7E4C, size: 0x8, addend: 0x0, symName: __ZN3syn4attr8MetaList15parse_args_with17h59229be20929a332E, symObjAddr: 0x0, symBinAddr: 0x4F390, symSize: 0xC0 }
  - { offsetInCU: 0xCDB, offset: 0x1C8B09, size: 0x8, addend: 0x0, symName: '__ZN42_$LT$$RF$T$u20$as$u20$core..fmt..Debug$GT$3fmt17hae1821658805d81cE', symObjAddr: 0x310, symBinAddr: 0x4F6A0, symSize: 0x10 }
  - { offsetInCU: 0xD21, offset: 0x1C8B4F, size: 0x8, addend: 0x0, symName: '__ZN42_$LT$$RF$T$u20$as$u20$core..fmt..Debug$GT$3fmt17hd550611cf6ce259bE', symObjAddr: 0x320, symBinAddr: 0x4F6B0, symSize: 0xD }
  - { offsetInCU: 0xA18F, offset: 0x1D1FBD, size: 0x8, addend: 0x0, symName: __ZN3syn4attr8MetaList15parse_args_with17h59229be20929a332E, symObjAddr: 0x0, symBinAddr: 0x4F390, symSize: 0xC0 }
  - { offsetInCU: 0xA830, offset: 0x1D265E, size: 0x8, addend: 0x0, symName: __ZN3syn4attr9Attribute15parse_args_with17h8d7d94d6a6bd7affE, symObjAddr: 0xC0, symBinAddr: 0x4F450, symSize: 0x250 }
  - { offsetInCU: 0x1E, offset: 0x1D37FA, size: 0x8, addend: 0x0, symName: '__ZN4core3ptr73drop_in_place$LT$core..cell..UnsafeCell$LT$syn..parse..Unexpected$GT$$GT$17hbd45b1fb78179714E.llvm.17507544159665564260', symObjAddr: 0x0, symBinAddr: 0x4F6C0, symSize: 0x50 }
  - { offsetInCU: 0xB5F, offset: 0x1D433B, size: 0x8, addend: 0x0, symName: '__ZN4core3ptr73drop_in_place$LT$core..cell..UnsafeCell$LT$syn..parse..Unexpected$GT$$GT$17hbd45b1fb78179714E.llvm.17507544159665564260', symObjAddr: 0x0, symBinAddr: 0x4F6C0, symSize: 0x50 }
  - { offsetInCU: 0x1468, offset: 0x1D4C44, size: 0x8, addend: 0x0, symName: '__ZN68_$LT$alloc..rc..Rc$LT$T$C$A$GT$$u20$as$u20$core..ops..drop..Drop$GT$4drop17h7b4d5cb6a66d2036E', symObjAddr: 0x50, symBinAddr: 0x4F710, symSize: 0x40 }
  - { offsetInCU: 0x16DC, offset: 0x1D4EB8, size: 0x8, addend: 0x0, symName: '__ZN68_$LT$alloc..rc..Rc$LT$T$C$A$GT$$u20$as$u20$core..ops..drop..Drop$GT$4drop17hdd2003eb3a4d38d5E', symObjAddr: 0x90, symBinAddr: 0x4F750, symSize: 0xDE }
  - { offsetInCU: 0x1E, offset: 0x1D5D51, size: 0x8, addend: 0x0, symName: '__ZN10proc_macro6bridge104_$LT$impl$u20$proc_macro..bridge..rpc..Encode$LT$S$GT$$u20$for$u20$core..result..Result$LT$T$C$E$GT$$GT$6encode17h82499640f87c18edE', symObjAddr: 0x0, symBinAddr: 0x4F830, symSize: 0x300 }
  - { offsetInCU: 0x148, offset: 0x1D5E7B, size: 0x8, addend: 0x0, symName: '__ZN10proc_macro6bridge104_$LT$impl$u20$proc_macro..bridge..rpc..Encode$LT$S$GT$$u20$for$u20$core..result..Result$LT$T$C$E$GT$$GT$6encode17h82499640f87c18edE', symObjAddr: 0x0, symBinAddr: 0x4F830, symSize: 0x300 }
  - { offsetInCU: 0x5E5, offset: 0x1D6318, size: 0x8, addend: 0x0, symName: '__ZN10proc_macro6bridge104_$LT$impl$u20$proc_macro..bridge..rpc..Encode$LT$S$GT$$u20$for$u20$core..result..Result$LT$T$C$E$GT$$GT$6encode17h85852675d0cc39c9E', symObjAddr: 0x300, symBinAddr: 0x4FB30, symSize: 0x280 }
  - { offsetInCU: 0x1E, offset: 0x1D6FD6, size: 0x8, addend: 0x0, symName: '__ZN10proc_macro6bridge100_$LT$impl$u20$proc_macro..bridge..rpc..Encode$LT$S$GT$$u20$for$u20$core..option..Option$LT$T$GT$$GT$6encode17h6ae80136d6a9c40fE', symObjAddr: 0x0, symBinAddr: 0x4FDB0, symSize: 0x240 }
  - { offsetInCU: 0x352, offset: 0x1D730A, size: 0x8, addend: 0x0, symName: '__ZN10proc_macro6bridge100_$LT$impl$u20$proc_macro..bridge..rpc..Encode$LT$S$GT$$u20$for$u20$core..option..Option$LT$T$GT$$GT$6encode17h6ae80136d6a9c40fE', symObjAddr: 0x0, symBinAddr: 0x4FDB0, symSize: 0x240 }
  - { offsetInCU: 0x6D5, offset: 0x1D768D, size: 0x8, addend: 0x0, symName: '__ZN10proc_macro6bridge100_$LT$impl$u20$proc_macro..bridge..rpc..Encode$LT$S$GT$$u20$for$u20$core..option..Option$LT$T$GT$$GT$6encode17hb58f11ba83f2b223E', symObjAddr: 0x240, symBinAddr: 0x4FFF0, symSize: 0x345 }
  - { offsetInCU: 0x1E, offset: 0x1D80A1, size: 0x8, addend: 0x0, symName: __ZN10proc_macro6bridge14selfless_reify31reify_to_extern_c_fn_hrt_bridge7wrapper17h437ec98d3c780c7eE, symObjAddr: 0x0, symBinAddr: 0x50340, symSize: 0x30 }
  - { offsetInCU: 0x1CF, offset: 0x1D8252, size: 0x8, addend: 0x0, symName: __ZN10proc_macro6bridge14selfless_reify31reify_to_extern_c_fn_hrt_bridge7wrapper17h437ec98d3c780c7eE, symObjAddr: 0x0, symBinAddr: 0x50340, symSize: 0x30 }
  - { offsetInCU: 0x247, offset: 0x1D82CA, size: 0x8, addend: 0x0, symName: __ZN10proc_macro6bridge14selfless_reify31reify_to_extern_c_fn_hrt_bridge7wrapper17h64aa347b274506d9E, symObjAddr: 0x30, symBinAddr: 0x50370, symSize: 0x25 }
  - { offsetInCU: 0x1E, offset: 0x1D8520, size: 0x8, addend: 0x0, symName: '__ZN44_$LT$$RF$T$u20$as$u20$core..fmt..Display$GT$3fmt17h494b8e559782b570E', symObjAddr: 0x0, symBinAddr: 0x503A0, symSize: 0x17 }
  - { offsetInCU: 0x64, offset: 0x1D8566, size: 0x8, addend: 0x0, symName: '__ZN44_$LT$$RF$T$u20$as$u20$core..fmt..Display$GT$3fmt17h494b8e559782b570E', symObjAddr: 0x0, symBinAddr: 0x503A0, symSize: 0x17 }
  - { offsetInCU: 0x1E, offset: 0x1D87D0, size: 0x8, addend: 0x0, symName: '__ZN77_$LT$$LP$A$C$B$RP$$u20$as$u20$proc_macro..bridge..rpc..DecodeMut$LT$S$GT$$GT$6decode17hfe1b2da486cb14a4E', symObjAddr: 0x0, symBinAddr: 0x503C0, symSize: 0xCA }
  - { offsetInCU: 0xB4, offset: 0x1D8866, size: 0x8, addend: 0x0, symName: '__ZN77_$LT$$LP$A$C$B$RP$$u20$as$u20$proc_macro..bridge..rpc..DecodeMut$LT$S$GT$$GT$6decode17hfe1b2da486cb14a4E', symObjAddr: 0x0, symBinAddr: 0x503C0, symSize: 0xCA }
  - { offsetInCU: 0x843, offset: 0x1DA2F6, size: 0x8, addend: 0x0, symName: '__ZN42_$LT$$RF$T$u20$as$u20$core..fmt..Debug$GT$3fmt17h78c0272eb43c770fE', symObjAddr: 0xA0, symBinAddr: 0x50490, symSize: 0xD }
  - { offsetInCU: 0x1E, offset: 0x1E2B65, size: 0x8, addend: 0x0, symName: '__ZN42_$LT$$RF$T$u20$as$u20$core..fmt..Debug$GT$3fmt17h9c731e8b37303b08E', symObjAddr: 0x0, symBinAddr: 0x504A0, symSize: 0xD }
  - { offsetInCU: 0x99F, offset: 0x1E34E6, size: 0x8, addend: 0x0, symName: '__ZN42_$LT$$RF$T$u20$as$u20$core..fmt..Debug$GT$3fmt17h9c731e8b37303b08E', symObjAddr: 0x0, symBinAddr: 0x504A0, symSize: 0xD }
  - { offsetInCU: 0x1E, offset: 0x1EBA4A, size: 0x8, addend: 0x0, symName: '__ZN86_$LT$quote..__private..IdentFragmentAdapter$LT$T$GT$$u20$as$u20$core..fmt..Display$GT$3fmt17h74fda25a1161252dE', symObjAddr: 0x0, symBinAddr: 0x504B0, symSize: 0xD }
  - { offsetInCU: 0x77, offset: 0x1EBAA3, size: 0x8, addend: 0x0, symName: '__ZN86_$LT$quote..__private..IdentFragmentAdapter$LT$T$GT$$u20$as$u20$core..fmt..Display$GT$3fmt17h74fda25a1161252dE', symObjAddr: 0x0, symBinAddr: 0x504B0, symSize: 0xD }
  - { offsetInCU: 0x1E, offset: 0x1EBDAA, size: 0x8, addend: 0x0, symName: '__ZN42_$LT$$RF$T$u20$as$u20$core..fmt..Debug$GT$3fmt17h06c02adecedf4f95E', symObjAddr: 0x0, symBinAddr: 0x50500, symSize: 0x10 }
  - { offsetInCU: 0x4FDC, offset: 0x1F0D68, size: 0x8, addend: 0x0, symName: '__ZN3syn4item7parsing63_$LT$impl$u20$syn..parse..Parse$u20$for$u20$syn..item..Item$GT$5parse17h80cf7aab904a267aE', symObjAddr: 0xCD50, symBinAddr: 0x5CD80, symSize: 0x190 }
  - { offsetInCU: 0x5568, offset: 0x1F12F4, size: 0x8, addend: 0x0, symName: '__ZN3syn4item7parsing68_$LT$impl$u20$syn..parse..Parse$u20$for$u20$syn..item..ItemMacro$GT$5parse17hc5bb9427f98c7017E', symObjAddr: 0xCEE0, symBinAddr: 0x5CF10, symSize: 0x6B0 }
  - { offsetInCU: 0x61F5, offset: 0x1F1F81, size: 0x8, addend: 0x0, symName: '__ZN3syn4item7parsing74_$LT$impl$u20$syn..parse..Parse$u20$for$u20$syn..item..ItemExternCrate$GT$5parse17h6d46d67dd87b398fE', symObjAddr: 0xD590, symBinAddr: 0x5D5C0, symSize: 0x910 }
  - { offsetInCU: 0x75B4, offset: 0x1F3340, size: 0x8, addend: 0x0, symName: '__ZN3syn4item7parsing75_$LT$impl$u20$syn..parse..Parse$u20$for$u20$syn..item..StaticMutability$GT$5parse17h60646f4bbad23fa9E', symObjAddr: 0x1E6F0, symBinAddr: 0x68040, symSize: 0xA0 }
  - { offsetInCU: 0x7765, offset: 0x1F34F1, size: 0x8, addend: 0x0, symName: '__ZN3syn4item7parsing68_$LT$impl$u20$syn..parse..Parse$u20$for$u20$syn..item..Signature$GT$5parse17h055acddcceb01c9aE', symObjAddr: 0xF690, symBinAddr: 0x5DED0, symSize: 0xA90 }
  - { offsetInCU: 0x8706, offset: 0x1F4492, size: 0x8, addend: 0x0, symName: '__ZN3syn4item7parsing67_$LT$impl$u20$syn..parse..Parse$u20$for$u20$syn..item..Receiver$GT$5parse17h7c38822b1e4d7a06E', symObjAddr: 0x10630, symBinAddr: 0x5E960, symSize: 0xA20 }
  - { offsetInCU: 0x98C5, offset: 0x1F5651, size: 0x8, addend: 0x0, symName: '__ZN3syn4item7parsing66_$LT$impl$u20$syn..parse..Parse$u20$for$u20$syn..item..ItemMod$GT$5parse17h216506bc1f5b0b64E', symObjAddr: 0x11050, symBinAddr: 0x5F380, symSize: 0xD80 }
  - { offsetInCU: 0xB623, offset: 0x1F73AF, size: 0x8, addend: 0x0, symName: '__ZN3syn4item7parsing73_$LT$impl$u20$syn..parse..Parse$u20$for$u20$syn..item..ItemForeignMod$GT$5parse17ha80c1978f8841fabE', symObjAddr: 0x11DD0, symBinAddr: 0x60100, symSize: 0x720 }
  - { offsetInCU: 0xC9FA, offset: 0x1F8786, size: 0x8, addend: 0x0, symName: '__ZN3syn4item7parsing70_$LT$impl$u20$syn..parse..Parse$u20$for$u20$syn..item..ForeignItem$GT$5parse17hae52281c277c1a2fE', symObjAddr: 0x124F0, symBinAddr: 0x60820, symSize: 0x19B0 }
  - { offsetInCU: 0x10EC3, offset: 0x1FCC4F, size: 0x8, addend: 0x0, symName: '__ZN3syn4item7parsing69_$LT$impl$u20$syn..parse..Parse$u20$for$u20$syn..item..ItemStruct$GT$5parse17h5f37d45d0509ea74E', symObjAddr: 0x160C0, symBinAddr: 0x621D0, symSize: 0x720 }
  - { offsetInCU: 0x119AF, offset: 0x1FD73B, size: 0x8, addend: 0x0, symName: '__ZN3syn4item7parsing67_$LT$impl$u20$syn..parse..Parse$u20$for$u20$syn..item..ItemEnum$GT$5parse17hcfc041400e96f868E', symObjAddr: 0x167E0, symBinAddr: 0x628F0, symSize: 0x720 }
  - { offsetInCU: 0x1249D, offset: 0x1FE229, size: 0x8, addend: 0x0, symName: '__ZN3syn4item7parsing68_$LT$impl$u20$syn..parse..Parse$u20$for$u20$syn..item..ItemUnion$GT$5parse17h3bd0150048f99936E', symObjAddr: 0x16F00, symBinAddr: 0x63010, symSize: 0x710 }
  - { offsetInCU: 0x12F7F, offset: 0x1FED0B, size: 0x8, addend: 0x0, symName: '__ZN3syn4item7parsing68_$LT$impl$u20$syn..parse..Parse$u20$for$u20$syn..item..ItemTrait$GT$5parse17hba3917e64180f729E', symObjAddr: 0x17610, symBinAddr: 0x63720, symSize: 0x630 }
  - { offsetInCU: 0x13CA6, offset: 0x1FFA32, size: 0x8, addend: 0x0, symName: '__ZN3syn4item7parsing68_$LT$impl$u20$syn..parse..Parse$u20$for$u20$syn..item..TraitItem$GT$5parse17h5e01dedab6d196dfE', symObjAddr: 0x17DA0, symBinAddr: 0x63D50, symSize: 0x1B80 }
  - { offsetInCU: 0x1989A, offset: 0x205626, size: 0x8, addend: 0x0, symName: '__ZN3syn4item7parsing70_$LT$impl$u20$syn..parse..Parse$u20$for$u20$syn..item..TraitItemFn$GT$5parse17h386721044cd912e3E', symObjAddr: 0x1A250, symBinAddr: 0x658D0, symSize: 0x850 }
  - { offsetInCU: 0x1AECC, offset: 0x206C58, size: 0x8, addend: 0x0, symName: '__ZN3syn4item7parsing67_$LT$impl$u20$syn..parse..Parse$u20$for$u20$syn..item..ImplItem$GT$5parse17h6b1c6f6f70b03df2E', symObjAddr: 0x1B350, symBinAddr: 0x66120, symSize: 0x1BE0 }
  - { offsetInCU: 0x204C5, offset: 0x20C251, size: 0x8, addend: 0x0, symName: '__ZN3syn4item7parsing72_$LT$impl$u20$syn..parse..Parse$u20$for$u20$syn..item..ImplItemMacro$GT$5parse17h34a4a0c85418b70aE', symObjAddr: 0x1E3B0, symBinAddr: 0x67D00, symSize: 0x0 }
  - { offsetInCU: 0x20B91, offset: 0x20C91D, size: 0x8, addend: 0x0, symName: '__ZN3syn4item8printing83_$LT$impl$u20$quote..to_tokens..ToTokens$u20$for$u20$syn..item..ItemExternCrate$GT$9to_tokens17hfe36bc772e4277a0E', symObjAddr: 0x1E790, symBinAddr: 0x680E0, symSize: 0x250 }
  - { offsetInCU: 0x2114D, offset: 0x20CED9, size: 0x8, addend: 0x0, symName: '__ZN3syn4item8printing78_$LT$impl$u20$quote..to_tokens..ToTokens$u20$for$u20$syn..item..ItemStatic$GT$9to_tokens17hbc3d5375fc6c771cE', symObjAddr: 0x1EB70, symBinAddr: 0x68330, symSize: 0x220 }
  - { offsetInCU: 0x21683, offset: 0x20D40F, size: 0x8, addend: 0x0, symName: '__ZN3syn4item8printing75_$LT$impl$u20$quote..to_tokens..ToTokens$u20$for$u20$syn..item..ItemMod$GT$9to_tokens17h0200f7c6912b0a1cE', symObjAddr: 0x1F050, symBinAddr: 0x68550, symSize: 0x230 }
  - { offsetInCU: 0x21B7F, offset: 0x20D90B, size: 0x8, addend: 0x0, symName: '__ZN3syn4item8printing76_$LT$impl$u20$quote..to_tokens..ToTokens$u20$for$u20$syn..item..ItemType$GT$9to_tokens17he708c67807a0f5e7E', symObjAddr: 0x1F440, symBinAddr: 0x68780, symSize: 0x1C0 }
  - { offsetInCU: 0x21EDE, offset: 0x20DC6A, size: 0x8, addend: 0x0, symName: '__ZN3syn4item8printing76_$LT$impl$u20$quote..to_tokens..ToTokens$u20$for$u20$syn..item..ItemEnum$GT$9to_tokens17h182a12d3a154632dE', symObjAddr: 0x1F600, symBinAddr: 0x68940, symSize: 0x180 }
  - { offsetInCU: 0x221C3, offset: 0x20DF4F, size: 0x8, addend: 0x0, symName: '__ZN3syn4item8printing78_$LT$impl$u20$quote..to_tokens..ToTokens$u20$for$u20$syn..item..ItemStruct$GT$9to_tokens17h8172cc7233ca8fbeE', symObjAddr: 0x1F780, symBinAddr: 0x68AC0, symSize: 0x220 }
  - { offsetInCU: 0x225A8, offset: 0x20E334, size: 0x8, addend: 0x0, symName: '__ZN3syn4item8printing77_$LT$impl$u20$quote..to_tokens..ToTokens$u20$for$u20$syn..item..ItemUnion$GT$9to_tokens17h6c795ad402d2a166E', symObjAddr: 0x1F9A0, symBinAddr: 0x68CE0, symSize: 0x180 }
  - { offsetInCU: 0x228B3, offset: 0x20E63F, size: 0x8, addend: 0x0, symName: '__ZN3syn4item8printing77_$LT$impl$u20$quote..to_tokens..ToTokens$u20$for$u20$syn..item..ItemTrait$GT$9to_tokens17h8121c5f1327add6eE', symObjAddr: 0x1FB20, symBinAddr: 0x68E60, symSize: 0x320 }
  - { offsetInCU: 0x23300, offset: 0x20F08C, size: 0x8, addend: 0x0, symName: '__ZN3syn4item8printing82_$LT$impl$u20$quote..to_tokens..ToTokens$u20$for$u20$syn..item..ItemTraitAlias$GT$9to_tokens17hc5f43bf815c68949E', symObjAddr: 0x1FE40, symBinAddr: 0x69180, symSize: 0x330 }
  - { offsetInCU: 0x23BD7, offset: 0x20F963, size: 0x8, addend: 0x0, symName: '__ZN3syn4item8printing76_$LT$impl$u20$quote..to_tokens..ToTokens$u20$for$u20$syn..item..ItemImpl$GT$9to_tokens17h0c3a9ddae74c937dE', symObjAddr: 0x20170, symBinAddr: 0x694B0, symSize: 0x340 }
  - { offsetInCU: 0x24424, offset: 0x2101B0, size: 0x8, addend: 0x0, symName: '__ZN3syn4item8printing77_$LT$impl$u20$quote..to_tokens..ToTokens$u20$for$u20$syn..item..ItemMacro$GT$9to_tokens17haec818905d80644fE', symObjAddr: 0x204B0, symBinAddr: 0x697F0, symSize: 0x190 }
  - { offsetInCU: 0x24858, offset: 0x2105E4, size: 0x8, addend: 0x0, symName: '__ZN3syn4item8printing82_$LT$impl$u20$quote..to_tokens..ToTokens$u20$for$u20$syn..item..TraitItemConst$GT$9to_tokens17h76e791416bf823d1E', symObjAddr: 0x20790, symBinAddr: 0x69980, symSize: 0x1C0 }
  - { offsetInCU: 0x24BEF, offset: 0x21097B, size: 0x8, addend: 0x0, symName: '__ZN3syn4item8printing81_$LT$impl$u20$quote..to_tokens..ToTokens$u20$for$u20$syn..item..TraitItemType$GT$9to_tokens17hbe42b3bab95c6768E', symObjAddr: 0x20AB0, symBinAddr: 0x69B40, symSize: 0x240 }
  - { offsetInCU: 0x25033, offset: 0x210DBF, size: 0x8, addend: 0x0, symName: '__ZN3syn4item8printing81_$LT$impl$u20$quote..to_tokens..ToTokens$u20$for$u20$syn..item..ImplItemConst$GT$9to_tokens17hdd48b33068953141E', symObjAddr: 0x20CF0, symBinAddr: 0x69D80, symSize: 0x240 }
  - { offsetInCU: 0x254EB, offset: 0x211277, size: 0x8, addend: 0x0, symName: '__ZN3syn4item8printing80_$LT$impl$u20$quote..to_tokens..ToTokens$u20$for$u20$syn..item..ImplItemType$GT$9to_tokens17hbce09990808c878cE', symObjAddr: 0x21090, symBinAddr: 0x69FC0, symSize: 0x230 }
  - { offsetInCU: 0x259D9, offset: 0x211765, size: 0x8, addend: 0x0, symName: '__ZN3syn4item8printing85_$LT$impl$u20$quote..to_tokens..ToTokens$u20$for$u20$syn..item..ForeignItemStatic$GT$9to_tokens17h378f5a1dfc9fdf33E', symObjAddr: 0x214C0, symBinAddr: 0x6A1F0, symSize: 0x200 }
  - { offsetInCU: 0x25E63, offset: 0x211BEF, size: 0x8, addend: 0x0, symName: '__ZN3syn4item8printing83_$LT$impl$u20$quote..to_tokens..ToTokens$u20$for$u20$syn..item..ForeignItemType$GT$9to_tokens17h4ed6b28f8ddb36b2E', symObjAddr: 0x216C0, symBinAddr: 0x6A3F0, symSize: 0x190 }
  - { offsetInCU: 0x26170, offset: 0x211EFC, size: 0x8, addend: 0x0, symName: '__ZN3syn4item8printing77_$LT$impl$u20$quote..to_tokens..ToTokens$u20$for$u20$syn..item..Signature$GT$9to_tokens17h487e336073ff52a3E', symObjAddr: 0x21850, symBinAddr: 0x6A580, symSize: 0x330 }
  - { offsetInCU: 0x26947, offset: 0x2126D3, size: 0x8, addend: 0x0, symName: '__ZN3syn4item8printing76_$LT$impl$u20$quote..to_tokens..ToTokens$u20$for$u20$syn..item..Receiver$GT$9to_tokens17h0593f180191f94a9E', symObjAddr: 0x21B80, symBinAddr: 0x6A8B0, symSize: 0x2E0 }
  - { offsetInCU: 0x270F6, offset: 0x212E82, size: 0x8, addend: 0x0, symName: '__ZN3syn4item8printing76_$LT$impl$u20$quote..to_tokens..ToTokens$u20$for$u20$syn..item..Variadic$GT$9to_tokens17h5d9696317f3ad996E', symObjAddr: 0x21E60, symBinAddr: 0x6AB90, symSize: 0x130 }
  - { offsetInCU: 0x2740D, offset: 0x213199, size: 0x8, addend: 0x0, symName: '__ZN62_$LT$syn..item..Item$u20$as$u20$quote..to_tokens..ToTokens$GT$9to_tokens17he7e69ecbc61b7b2cE', symObjAddr: 0x22010, symBinAddr: 0x6ACC0, symSize: 0x730 }
  - { offsetInCU: 0x28287, offset: 0x214013, size: 0x8, addend: 0x0, symName: '__ZN65_$LT$syn..item..UseTree$u20$as$u20$quote..to_tokens..ToTokens$GT$9to_tokens17hee39f883784acb47E', symObjAddr: 0x22740, symBinAddr: 0x6B3F0, symSize: 0x310 }
  - { offsetInCU: 0x28B3F, offset: 0x2148CB, size: 0x8, addend: 0x0, symName: '__ZN69_$LT$syn..item..ForeignItem$u20$as$u20$quote..to_tokens..ToTokens$GT$9to_tokens17hb7bfc5d782828218E', symObjAddr: 0x22A50, symBinAddr: 0x6B700, symSize: 0x250 }
  - { offsetInCU: 0x28F64, offset: 0x214CF0, size: 0x8, addend: 0x0, symName: '__ZN67_$LT$syn..item..TraitItem$u20$as$u20$quote..to_tokens..ToTokens$GT$9to_tokens17h9010403c8466e854E', symObjAddr: 0x22CA0, symBinAddr: 0x6B950, symSize: 0x2B0 }
  - { offsetInCU: 0x293F8, offset: 0x215184, size: 0x8, addend: 0x0, symName: '__ZN66_$LT$syn..item..ImplItem$u20$as$u20$quote..to_tokens..ToTokens$GT$9to_tokens17h9ce4fd01d680c33dE', symObjAddr: 0x22F50, symBinAddr: 0x6BC00, symSize: 0x2E0 }
  - { offsetInCU: 0x2A06A, offset: 0x215DF6, size: 0x8, addend: 0x0, symName: '__ZN3syn3gen5debug63_$LT$impl$u20$core..fmt..Debug$u20$for$u20$syn..item..FnArg$GT$3fmt17hf7e3c1fc5ca3f64bE', symObjAddr: 0x288F0, symBinAddr: 0x71060, symSize: 0xA0 }
  - { offsetInCU: 0x2A15A, offset: 0x215EE6, size: 0x8, addend: 0x0, symName: '__ZN3syn3gen5debug69_$LT$impl$u20$core..fmt..Debug$u20$for$u20$syn..item..ForeignItem$GT$3fmt17h6849f1b2b44382cbE', symObjAddr: 0x28990, symBinAddr: 0x71100, symSize: 0x2D0 }
  - { offsetInCU: 0x2A352, offset: 0x2160DE, size: 0x8, addend: 0x0, symName: '__ZN3syn3gen5debug66_$LT$impl$u20$core..fmt..Debug$u20$for$u20$syn..item..ImplItem$GT$3fmt17h4ca7a15f44285d73E', symObjAddr: 0x29010, symBinAddr: 0x71500, symSize: 0x250 }
  - { offsetInCU: 0x2A505, offset: 0x216291, size: 0x8, addend: 0x0, symName: '__ZN3syn3gen5debug62_$LT$impl$u20$core..fmt..Debug$u20$for$u20$syn..item..Item$GT$3fmt17hde7cdfd45550a130E', symObjAddr: 0x29720, symBinAddr: 0x71A50, symSize: 0x620 }
  - { offsetInCU: 0x2A8D4, offset: 0x216660, size: 0x8, addend: 0x0, symName: '__ZN3syn3gen5debug66_$LT$impl$u20$core..fmt..Debug$u20$for$u20$syn..item..Receiver$GT$3fmt17h5350602347b32d94E', symObjAddr: 0x2AFD0, symBinAddr: 0x72D60, symSize: 0x100 }
  - { offsetInCU: 0x2A938, offset: 0x2166C4, size: 0x8, addend: 0x0, symName: '__ZN3syn3gen5debug67_$LT$impl$u20$core..fmt..Debug$u20$for$u20$syn..item..Signature$GT$3fmt17hd2444383cacc3738E', symObjAddr: 0x2B0D0, symBinAddr: 0x72E60, symSize: 0x1B0 }
  - { offsetInCU: 0x2A99C, offset: 0x216728, size: 0x8, addend: 0x0, symName: '__ZN3syn3gen5debug74_$LT$impl$u20$core..fmt..Debug$u20$for$u20$syn..item..StaticMutability$GT$3fmt17hcd179aa0f4e285c4E', symObjAddr: 0x2B280, symBinAddr: 0x73010, symSize: 0xA0 }
  - { offsetInCU: 0x2AA51, offset: 0x2167DD, size: 0x8, addend: 0x0, symName: '__ZN3syn3gen5debug67_$LT$impl$u20$core..fmt..Debug$u20$for$u20$syn..item..TraitItem$GT$3fmt17h330176b3ec2250a5E', symObjAddr: 0x2B320, symBinAddr: 0x730B0, symSize: 0x220 }
  - { offsetInCU: 0x2AC04, offset: 0x216990, size: 0x8, addend: 0x0, symName: '__ZN3syn3gen5debug65_$LT$impl$u20$core..fmt..Debug$u20$for$u20$syn..item..UseGlob$GT$3fmt17h8d40b3a7a4edd2c3E', symObjAddr: 0x2B960, symBinAddr: 0x73550, symSize: 0x60 }
  - { offsetInCU: 0x2AC68, offset: 0x2169F4, size: 0x8, addend: 0x0, symName: '__ZN3syn3gen5debug66_$LT$impl$u20$core..fmt..Debug$u20$for$u20$syn..item..UseGroup$GT$3fmt17heb41fee50ac90c45E', symObjAddr: 0x2B9C0, symBinAddr: 0x735B0, symSize: 0x80 }
  - { offsetInCU: 0x2ACCC, offset: 0x216A58, size: 0x8, addend: 0x0, symName: '__ZN3syn3gen5debug65_$LT$impl$u20$core..fmt..Debug$u20$for$u20$syn..item..UseName$GT$3fmt17h158eaa152c101c39E', symObjAddr: 0x2BA40, symBinAddr: 0x73630, symSize: 0x60 }
  - { offsetInCU: 0x2AD30, offset: 0x216ABC, size: 0x8, addend: 0x0, symName: '__ZN3syn3gen5debug65_$LT$impl$u20$core..fmt..Debug$u20$for$u20$syn..item..UsePath$GT$3fmt17hea72816e2b7bf718E', symObjAddr: 0x2BAA0, symBinAddr: 0x73690, symSize: 0xA0 }
  - { offsetInCU: 0x2AD94, offset: 0x216B20, size: 0x8, addend: 0x0, symName: '__ZN3syn3gen5debug67_$LT$impl$u20$core..fmt..Debug$u20$for$u20$syn..item..UseRename$GT$3fmt17hdd5878f1e774770eE', symObjAddr: 0x2BB40, symBinAddr: 0x73730, symSize: 0xA0 }
  - { offsetInCU: 0x2ADF8, offset: 0x216B84, size: 0x8, addend: 0x0, symName: '__ZN3syn3gen5debug65_$LT$impl$u20$core..fmt..Debug$u20$for$u20$syn..item..UseTree$GT$3fmt17h95246d04b8199285E', symObjAddr: 0x2BBE0, symBinAddr: 0x737D0, symSize: 0x140 }
  - { offsetInCU: 0x2B009, offset: 0x216D95, size: 0x8, addend: 0x0, symName: '__ZN3syn3gen5clone67_$LT$impl$u20$core..clone..Clone$u20$for$u20$syn..item..UseTree$GT$5clone17he4721d92d6223b97E', symObjAddr: 0x28540, symBinAddr: 0x70CB0, symSize: 0x2A0 }
  - { offsetInCU: 0x2B6ED, offset: 0x217479, size: 0x8, addend: 0x0, symName: '__ZN3syn3gen5clone71_$LT$impl$u20$core..clone..Clone$u20$for$u20$syn..item..ForeignItem$GT$5clone17hee3f13bdccecaf04E', symObjAddr: 0x23290, symBinAddr: 0x6BEE0, symSize: 0x2A0 }
  - { offsetInCU: 0x2BACB, offset: 0x217857, size: 0x8, addend: 0x0, symName: '__ZN3syn3gen5clone77_$LT$impl$u20$core..clone..Clone$u20$for$u20$syn..item..ForeignItemStatic$GT$5clone17h1c013599a1b7e0d2E', symObjAddr: 0x23620, symBinAddr: 0x6C180, symSize: 0x1E0 }
  - { offsetInCU: 0x2BF6C, offset: 0x217CF8, size: 0x8, addend: 0x0, symName: '__ZN3syn3gen5clone75_$LT$impl$u20$core..clone..Clone$u20$for$u20$syn..item..ForeignItemType$GT$5clone17h39c42a7ed9f93bc7E', symObjAddr: 0x23800, symBinAddr: 0x6C360, symSize: 0x290 }
  - { offsetInCU: 0x2C2AD, offset: 0x218039, size: 0x8, addend: 0x0, symName: '__ZN3syn3gen5clone68_$LT$impl$u20$core..clone..Clone$u20$for$u20$syn..item..ImplItem$GT$5clone17hfcffd5bef6db6eefE', symObjAddr: 0x23A90, symBinAddr: 0x6C5F0, symSize: 0x1E0 }
  - { offsetInCU: 0x2C5EE, offset: 0x21837A, size: 0x8, addend: 0x0, symName: '__ZN3syn3gen5clone73_$LT$impl$u20$core..clone..Clone$u20$for$u20$syn..item..ImplItemConst$GT$5clone17hcba22f66f4790359E', symObjAddr: 0x23C70, symBinAddr: 0x6C7D0, symSize: 0x3C0 }
  - { offsetInCU: 0x2C9AC, offset: 0x218738, size: 0x8, addend: 0x0, symName: '__ZN3syn3gen5clone70_$LT$impl$u20$core..clone..Clone$u20$for$u20$syn..item..ImplItemFn$GT$5clone17hfa99a17b751a231eE', symObjAddr: 0x24030, symBinAddr: 0x6CB90, symSize: 0x170 }
  - { offsetInCU: 0x2CA59, offset: 0x2187E5, size: 0x8, addend: 0x0, symName: '__ZN3syn3gen5clone72_$LT$impl$u20$core..clone..Clone$u20$for$u20$syn..item..ImplItemType$GT$5clone17h0cbe501e4ceb9fa6E', symObjAddr: 0x24230, symBinAddr: 0x6CD00, symSize: 0x360 }
  - { offsetInCU: 0x2CE0E, offset: 0x218B9A, size: 0x8, addend: 0x0, symName: '__ZN3syn3gen5clone64_$LT$impl$u20$core..clone..Clone$u20$for$u20$syn..item..Item$GT$5clone17h88393b98a180baddE', symObjAddr: 0x24590, symBinAddr: 0x6D060, symSize: 0x3C0 }
  - { offsetInCU: 0x2D362, offset: 0x2190EE, size: 0x8, addend: 0x0, symName: '__ZN3syn3gen5clone69_$LT$impl$u20$core..clone..Clone$u20$for$u20$syn..item..ItemConst$GT$5clone17h625d5dfdf97f0db7E', symObjAddr: 0x24950, symBinAddr: 0x6D420, symSize: 0x410 }
  - { offsetInCU: 0x2DB0E, offset: 0x21989A, size: 0x8, addend: 0x0, symName: '__ZN3syn3gen5clone68_$LT$impl$u20$core..clone..Clone$u20$for$u20$syn..item..ItemEnum$GT$5clone17hcbd28186f3af1a48E', symObjAddr: 0x24D60, symBinAddr: 0x6D830, symSize: 0x320 }
  - { offsetInCU: 0x2DE12, offset: 0x219B9E, size: 0x8, addend: 0x0, symName: '__ZN3syn3gen5clone75_$LT$impl$u20$core..clone..Clone$u20$for$u20$syn..item..ItemExternCrate$GT$5clone17heae6e2f0373fe0bbE', symObjAddr: 0x25080, symBinAddr: 0x6DB50, symSize: 0x1A0 }
  - { offsetInCU: 0x2E127, offset: 0x219EB3, size: 0x8, addend: 0x0, symName: '__ZN3syn3gen5clone66_$LT$impl$u20$core..clone..Clone$u20$for$u20$syn..item..ItemFn$GT$5clone17h4e6ff2347c0f748eE', symObjAddr: 0x25220, symBinAddr: 0x6DCF0, symSize: 0x190 }
  - { offsetInCU: 0x2E3BF, offset: 0x21A14B, size: 0x8, addend: 0x0, symName: '__ZN3syn3gen5clone68_$LT$impl$u20$core..clone..Clone$u20$for$u20$syn..item..ItemImpl$GT$5clone17hd2b1c2db65c8a4ebE', symObjAddr: 0x25490, symBinAddr: 0x6DE80, symSize: 0x470 }
  - { offsetInCU: 0x2E892, offset: 0x21A61E, size: 0x8, addend: 0x0, symName: '__ZN3syn3gen5clone69_$LT$impl$u20$core..clone..Clone$u20$for$u20$syn..item..ItemMacro$GT$5clone17h7d6f56f137cac903E', symObjAddr: 0x25900, symBinAddr: 0x6E2F0, symSize: 0x120 }
  - { offsetInCU: 0x2EACE, offset: 0x21A85A, size: 0x8, addend: 0x0, symName: '__ZN3syn3gen5clone67_$LT$impl$u20$core..clone..Clone$u20$for$u20$syn..item..ItemMod$GT$5clone17h08b706d9debac69fE', symObjAddr: 0x25A20, symBinAddr: 0x6E410, symSize: 0x200 }
  - { offsetInCU: 0x2ED95, offset: 0x21AB21, size: 0x8, addend: 0x0, symName: '__ZN3syn3gen5clone70_$LT$impl$u20$core..clone..Clone$u20$for$u20$syn..item..ItemStatic$GT$5clone17h7d89c79988a48493E', symObjAddr: 0x25C20, symBinAddr: 0x6E610, symSize: 0x290 }
  - { offsetInCU: 0x2F466, offset: 0x21B1F2, size: 0x8, addend: 0x0, symName: '__ZN3syn3gen5clone70_$LT$impl$u20$core..clone..Clone$u20$for$u20$syn..item..ItemStruct$GT$5clone17h25082ded106363f3E', symObjAddr: 0x25EB0, symBinAddr: 0x6E8A0, symSize: 0x3D0 }
  - { offsetInCU: 0x2F87B, offset: 0x21B607, size: 0x8, addend: 0x0, symName: '__ZN3syn3gen5clone69_$LT$impl$u20$core..clone..Clone$u20$for$u20$syn..item..ItemTrait$GT$5clone17ha34a4241e37415ecE', symObjAddr: 0x26280, symBinAddr: 0x6EC70, symSize: 0x3E0 }
  - { offsetInCU: 0x2FC0B, offset: 0x21B997, size: 0x8, addend: 0x0, symName: '__ZN3syn3gen5clone74_$LT$impl$u20$core..clone..Clone$u20$for$u20$syn..item..ItemTraitAlias$GT$5clone17hef59f8a644aff956E', symObjAddr: 0x26660, symBinAddr: 0x6F050, symSize: 0x320 }
  - { offsetInCU: 0x2FF6B, offset: 0x21BCF7, size: 0x8, addend: 0x0, symName: '__ZN3syn3gen5clone68_$LT$impl$u20$core..clone..Clone$u20$for$u20$syn..item..ItemType$GT$5clone17h2cc3a1af26227a5bE', symObjAddr: 0x26980, symBinAddr: 0x6F370, symSize: 0x350 }
  - { offsetInCU: 0x304E7, offset: 0x21C273, size: 0x8, addend: 0x0, symName: '__ZN3syn3gen5clone69_$LT$impl$u20$core..clone..Clone$u20$for$u20$syn..item..ItemUnion$GT$5clone17h9499aeac8cc94731E', symObjAddr: 0x26CD0, symBinAddr: 0x6F6C0, symSize: 0x340 }
  - { offsetInCU: 0x30835, offset: 0x21C5C1, size: 0x8, addend: 0x0, symName: '__ZN3syn3gen5clone67_$LT$impl$u20$core..clone..Clone$u20$for$u20$syn..item..ItemUse$GT$5clone17h83cf32ef390bdd8aE', symObjAddr: 0x27010, symBinAddr: 0x6FA00, symSize: 0x130 }
  - { offsetInCU: 0x308F5, offset: 0x21C681, size: 0x8, addend: 0x0, symName: '__ZN3syn3gen5clone68_$LT$impl$u20$core..clone..Clone$u20$for$u20$syn..item..Receiver$GT$5clone17h3f91689b2c338982E', symObjAddr: 0x27140, symBinAddr: 0x6FB30, symSize: 0x1B0 }
  - { offsetInCU: 0x30D0A, offset: 0x21CA96, size: 0x8, addend: 0x0, symName: '__ZN3syn3gen5clone69_$LT$impl$u20$core..clone..Clone$u20$for$u20$syn..item..Signature$GT$5clone17hf28c97c0572e4c68E', symObjAddr: 0x272F0, symBinAddr: 0x6FCE0, symSize: 0x5A0 }
  - { offsetInCU: 0x314C2, offset: 0x21D24E, size: 0x8, addend: 0x0, symName: '__ZN3syn3gen5clone69_$LT$impl$u20$core..clone..Clone$u20$for$u20$syn..item..TraitItem$GT$5clone17hd22c218447a047bfE', symObjAddr: 0x27890, symBinAddr: 0x70280, symSize: 0x1E0 }
  - { offsetInCU: 0x31803, offset: 0x21D58F, size: 0x8, addend: 0x0, symName: '__ZN3syn3gen5clone74_$LT$impl$u20$core..clone..Clone$u20$for$u20$syn..item..TraitItemConst$GT$5clone17he22a2ce3bf5c1704E', symObjAddr: 0x27A70, symBinAddr: 0x70460, symSize: 0x370 }
  - { offsetInCU: 0x31BCB, offset: 0x21D957, size: 0x8, addend: 0x0, symName: '__ZN3syn3gen5clone71_$LT$impl$u20$core..clone..Clone$u20$for$u20$syn..item..TraitItemFn$GT$5clone17h7ac8fc7a77eb5240E', symObjAddr: 0x27DE0, symBinAddr: 0x707D0, symSize: 0x150 }
  - { offsetInCU: 0x31CBD, offset: 0x21DA49, size: 0x8, addend: 0x0, symName: '__ZN3syn3gen5clone73_$LT$impl$u20$core..clone..Clone$u20$for$u20$syn..item..TraitItemType$GT$5clone17h83742b5ed183cb22E', symObjAddr: 0x27F30, symBinAddr: 0x70920, symSize: 0x390 }
  - { offsetInCU: 0x3207C, offset: 0x21DE08, size: 0x8, addend: 0x0, symName: '__ZN3syn3gen5clone68_$LT$impl$u20$core..clone..Clone$u20$for$u20$syn..item..Variadic$GT$5clone17h397fcedc25d54663E', symObjAddr: 0x287E0, symBinAddr: 0x70F50, symSize: 0x110 }
  - { offsetInCU: 0x34AC0, offset: 0x22084C, size: 0x8, addend: 0x0, symName: '__ZN4core3ptr100drop_in_place$LT$core..option..Option$LT$alloc..boxed..Box$LT$syn..path..GenericArgument$GT$$GT$$GT$17h3a7c44b9e57fe410E', symObjAddr: 0x6C0, symBinAddr: 0x50960, symSize: 0x50 }
  - { offsetInCU: 0x34DE2, offset: 0x220B6E, size: 0x8, addend: 0x0, symName: '__ZN4core3ptr100drop_in_place$LT$syn..punctuated..Punctuated$LT$syn..path..PathSegment$C$syn..token..PathSep$GT$$GT$17he41ef64147139591E', symObjAddr: 0x710, symBinAddr: 0x509B0, symSize: 0x2B0 }
  - { offsetInCU: 0x35898, offset: 0x221624, size: 0x8, addend: 0x0, symName: '__ZN4core3ptr103drop_in_place$LT$core..option..Option$LT$alloc..boxed..Box$LT$syn..generics..TypeParamBound$GT$$GT$$GT$17hb14e4384a768542bE', symObjAddr: 0x9C0, symBinAddr: 0x50C60, symSize: 0x50 }
  - { offsetInCU: 0x35AE1, offset: 0x22186D, size: 0x8, addend: 0x0, symName: '__ZN4core3ptr103drop_in_place$LT$core..option..Option$LT$alloc..boxed..Box$LT$syn..generics..WherePredicate$GT$$GT$$GT$17he190813f4819c5dbE', symObjAddr: 0xA10, symBinAddr: 0x50CB0, symSize: 0xD0 }
  - { offsetInCU: 0x35E75, offset: 0x221C01, size: 0x8, addend: 0x0, symName: '__ZN4core3ptr103drop_in_place$LT$syn..punctuated..Punctuated$LT$syn..generics..GenericParam$C$syn..token..Comma$GT$$GT$17h0c6077a988036760E', symObjAddr: 0xAE0, symBinAddr: 0x50D80, symSize: 0xF0 }
  - { offsetInCU: 0x36313, offset: 0x22209F, size: 0x8, addend: 0x0, symName: '__ZN4core3ptr104drop_in_place$LT$syn..punctuated..Punctuated$LT$syn..generics..TypeParamBound$C$syn..token..Plus$GT$$GT$17h724e4d9d1d65061aE', symObjAddr: 0xBD0, symBinAddr: 0x50E70, symSize: 0x190 }
  - { offsetInCU: 0x36955, offset: 0x2226E1, size: 0x8, addend: 0x0, symName: '__ZN4core3ptr107drop_in_place$LT$$LP$syn..restriction..Visibility$C$core..option..Option$LT$syn..token..Default$GT$$RP$$GT$17h7dbdeb5ac6957065E', symObjAddr: 0xD60, symBinAddr: 0x51000, symSize: 0x60 }
  - { offsetInCU: 0x36B12, offset: 0x22289E, size: 0x8, addend: 0x0, symName: '__ZN4core3ptr115drop_in_place$LT$core..option..Option$LT$$LP$alloc..boxed..Box$LT$syn..pat..Pat$GT$$C$syn..token..Colon$RP$$GT$$GT$17h787822396d5dcd7bE', symObjAddr: 0xDC0, symBinAddr: 0x51060, symSize: 0x50 }
  - { offsetInCU: 0x36CE4, offset: 0x222A70, size: 0x8, addend: 0x0, symName: '__ZN4core3ptr115drop_in_place$LT$core..option..Option$LT$$LP$syn..token..Brace$C$alloc..vec..Vec$LT$syn..item..Item$GT$$RP$$GT$$GT$17h4f61046186bbd7c9E', symObjAddr: 0xE10, symBinAddr: 0x510B0, symSize: 0xD0 }
  - { offsetInCU: 0x36FFB, offset: 0x222D87, size: 0x8, addend: 0x0, symName: '__ZN4core3ptr126drop_in_place$LT$core..option..Option$LT$$LP$syn..token..And$C$core..option..Option$LT$syn..lifetime..Lifetime$GT$$RP$$GT$$GT$17h45c5d73e12cdf6f0E', symObjAddr: 0xEE0, symBinAddr: 0x51180, symSize: 0x30 }
  - { offsetInCU: 0x37173, offset: 0x222EFF, size: 0x8, addend: 0x0, symName: '__ZN4core3ptr136drop_in_place$LT$core..option..Option$LT$$LP$core..option..Option$LT$syn..token..Not$GT$$C$syn..path..Path$C$syn..token..For$RP$$GT$$GT$17h9e7394229c3ee14eE', symObjAddr: 0xF10, symBinAddr: 0x511B0, symSize: 0x20 }
  - { offsetInCU: 0x372E1, offset: 0x22306D, size: 0x8, addend: 0x0, symName: '__ZN4core3ptr33drop_in_place$LT$syn..ty..Abi$GT$17h24b86e0564a98339E', symObjAddr: 0xF30, symBinAddr: 0x511D0, symSize: 0x60 }
  - { offsetInCU: 0x375EA, offset: 0x223376, size: 0x8, addend: 0x0, symName: '__ZN4core3ptr34drop_in_place$LT$syn..lit..Lit$GT$17hd64dde89a262341dE', symObjAddr: 0xF90, symBinAddr: 0x51230, symSize: 0x120 }
  - { offsetInCU: 0x37AB9, offset: 0x223845, size: 0x8, addend: 0x0, symName: '__ZN4core3ptr34drop_in_place$LT$syn..pat..Pat$GT$17hf88887878261d63cE', symObjAddr: 0x10B0, symBinAddr: 0x51350, symSize: 0x1100 }
  - { offsetInCU: 0x3C097, offset: 0x227E23, size: 0x8, addend: 0x0, symName: '__ZN4core3ptr34drop_in_place$LT$syn..ty..Type$GT$17ha80dd29b0f9d4a3fE', symObjAddr: 0x21B0, symBinAddr: 0x52450, symSize: 0x510 }
  - { offsetInCU: 0x3D70F, offset: 0x22949B, size: 0x8, addend: 0x0, symName: '__ZN4core3ptr36drop_in_place$LT$syn..expr..Expr$GT$17h10f573b40ddd212cE', symObjAddr: 0x26C0, symBinAddr: 0x52960, symSize: 0x2840 }
  - { offsetInCU: 0x47C2A, offset: 0x2339B6, size: 0x8, addend: 0x0, symName: '__ZN4core3ptr36drop_in_place$LT$syn..item..Item$GT$17haa59cf9e39ab8cebE', symObjAddr: 0x4F00, symBinAddr: 0x551A0, symSize: 0x1940 }
  - { offsetInCU: 0x4DFED, offset: 0x239D79, size: 0x8, addend: 0x0, symName: '__ZN4core3ptr36drop_in_place$LT$syn..mac..Macro$GT$17hc3b30a7a8a34cc2dE', symObjAddr: 0x6840, symBinAddr: 0x56AE0, symSize: 0x40 }
  - { offsetInCU: 0x4E027, offset: 0x239DB3, size: 0x8, addend: 0x0, symName: '__ZN4core3ptr36drop_in_place$LT$syn..path..Path$GT$17h75c74a97d5f0a03bE', symObjAddr: 0x6880, symBinAddr: 0x56B20, symSize: 0x280 }
  - { offsetInCU: 0x4EAD4, offset: 0x23A860, size: 0x8, addend: 0x0, symName: '__ZN4core3ptr37drop_in_place$LT$syn..stmt..Block$GT$17h6fc3254d5688f2c3E', symObjAddr: 0x6B00, symBinAddr: 0x56DA0, symSize: 0xD0 }
  - { offsetInCU: 0x4EDCA, offset: 0x23AB56, size: 0x8, addend: 0x0, symName: '__ZN4core3ptr38drop_in_place$LT$syn..data..Fields$GT$17h79840861dd1f691dE', symObjAddr: 0x6BD0, symBinAddr: 0x56E70, symSize: 0x190 }
  - { offsetInCU: 0x4F214, offset: 0x23AFA0, size: 0x8, addend: 0x0, symName: '__ZN4core3ptr38drop_in_place$LT$syn..expr..Member$GT$17h6b0cf84594ce6bceE', symObjAddr: 0x6D60, symBinAddr: 0x57000, symSize: 0x30 }
  - { offsetInCU: 0x4F310, offset: 0x23B09C, size: 0x8, addend: 0x0, symName: '__ZN4core3ptr38drop_in_place$LT$syn..pat..PatType$GT$17h835dce85ba90235eE.llvm.18308377727791997679', symObjAddr: 0x6D90, symBinAddr: 0x57030, symSize: 0x140 }
  - { offsetInCU: 0x4F8BB, offset: 0x23B647, size: 0x8, addend: 0x0, symName: '__ZN4core3ptr39drop_in_place$LT$proc_macro2..Ident$GT$17ha28fef9769e267d9E', symObjAddr: 0x6ED0, symBinAddr: 0x57170, symSize: 0x30 }
  - { offsetInCU: 0x4F998, offset: 0x23B724, size: 0x8, addend: 0x0, symName: '__ZN4core3ptr39drop_in_place$LT$syn..item..UseName$GT$17ha6f1a8ca343739ceE.llvm.18308377727791997679', symObjAddr: 0x6F00, symBinAddr: 0x571A0, symSize: 0x30 }
  - { offsetInCU: 0x4FA94, offset: 0x23B820, size: 0x8, addend: 0x0, symName: '__ZN4core3ptr39drop_in_place$LT$syn..item..UsePath$GT$17hc21ecdeb9e359de1E.llvm.18308377727791997679', symObjAddr: 0x6F30, symBinAddr: 0x571D0, symSize: 0x40 }
  - { offsetInCU: 0x4FAB4, offset: 0x23B840, size: 0x8, addend: 0x0, symName: '__ZN4core3ptr39drop_in_place$LT$syn..item..UsePath$GT$17hc21ecdeb9e359de1E.llvm.18308377727791997679', symObjAddr: 0x6F30, symBinAddr: 0x571D0, symSize: 0x40 }
  - { offsetInCU: 0x4FAD2, offset: 0x23B85E, size: 0x8, addend: 0x0, symName: '__ZN4core3ptr39drop_in_place$LT$syn..item..UsePath$GT$17hc21ecdeb9e359de1E.llvm.18308377727791997679', symObjAddr: 0x6F30, symBinAddr: 0x571D0, symSize: 0x40 }
  - { offsetInCU: 0x4FC10, offset: 0x23B99C, size: 0x8, addend: 0x0, symName: '__ZN4core3ptr39drop_in_place$LT$syn..item..UseTree$GT$17h7288572c631f954aE', symObjAddr: 0x6F70, symBinAddr: 0x57210, symSize: 0xE0 }
  - { offsetInCU: 0x50014, offset: 0x23BDA0, size: 0x8, addend: 0x0, symName: '__ZN4core3ptr40drop_in_place$LT$syn..item..ImplItem$GT$17h98907b2080b0ccb0E', symObjAddr: 0x7050, symBinAddr: 0x572F0, symSize: 0x4D0 }
  - { offsetInCU: 0x50E48, offset: 0x23CBD4, size: 0x8, addend: 0x0, symName: '__ZN4core3ptr40drop_in_place$LT$syn..item..Receiver$GT$17h5e68a437c3b8e574E.llvm.18308377727791997679', symObjAddr: 0x7520, symBinAddr: 0x577C0, symSize: 0x130 }
  - { offsetInCU: 0x51414, offset: 0x23D1A0, size: 0x8, addend: 0x0, symName: '__ZN4core3ptr40drop_in_place$LT$syn..item..UseGroup$GT$17h631eebd6a2b1005fE.llvm.18308377727791997679', symObjAddr: 0x7650, symBinAddr: 0x578F0, symSize: 0x10 }
  - { offsetInCU: 0x5144E, offset: 0x23D1DA, size: 0x8, addend: 0x0, symName: '__ZN4core3ptr40drop_in_place$LT$syn..item..Variadic$GT$17hf9d4ebdb0f5e723aE', symObjAddr: 0x7660, symBinAddr: 0x57900, symSize: 0x120 }
  - { offsetInCU: 0x518D3, offset: 0x23D65F, size: 0x8, addend: 0x0, symName: '__ZN4core3ptr40drop_in_place$LT$syn..ty..ReturnType$GT$17h035a612e322b6510E', symObjAddr: 0x7780, symBinAddr: 0x57A20, symSize: 0x50 }
  - { offsetInCU: 0x51A43, offset: 0x23D7CF, size: 0x8, addend: 0x0, symName: '__ZN4core3ptr41drop_in_place$LT$syn..expr..ExprConst$GT$17hbfe19d5d621e6836E', symObjAddr: 0x77D0, symBinAddr: 0x57A70, symSize: 0x180 }
  - { offsetInCU: 0x5204F, offset: 0x23DDDB, size: 0x8, addend: 0x0, symName: '__ZN4core3ptr41drop_in_place$LT$syn..item..Signature$GT$17h41f785211ad8eb02E', symObjAddr: 0x7950, symBinAddr: 0x57BF0, symSize: 0x180 }
  - { offsetInCU: 0x5273F, offset: 0x23E4CB, size: 0x8, addend: 0x0, symName: '__ZN4core3ptr41drop_in_place$LT$syn..item..TraitItem$GT$17hc74edaa948c160a2E', symObjAddr: 0x7AD0, symBinAddr: 0x57D70, symSize: 0x5F0 }
  - { offsetInCU: 0x5392F, offset: 0x23F6BB, size: 0x8, addend: 0x0, symName: '__ZN4core3ptr41drop_in_place$LT$syn..item..UseRename$GT$17h1b56964f5919297fE.llvm.18308377727791997679', symObjAddr: 0x80C0, symBinAddr: 0x58360, symSize: 0x50 }
  - { offsetInCU: 0x5394F, offset: 0x23F6DB, size: 0x8, addend: 0x0, symName: '__ZN4core3ptr41drop_in_place$LT$syn..item..UseRename$GT$17h1b56964f5919297fE.llvm.18308377727791997679', symObjAddr: 0x80C0, symBinAddr: 0x58360, symSize: 0x50 }
  - { offsetInCU: 0x5396D, offset: 0x23F6F9, size: 0x8, addend: 0x0, symName: '__ZN4core3ptr41drop_in_place$LT$syn..item..UseRename$GT$17h1b56964f5919297fE.llvm.18308377727791997679', symObjAddr: 0x80C0, symBinAddr: 0x58360, symSize: 0x50 }
  - { offsetInCU: 0x53AFC, offset: 0x23F888, size: 0x8, addend: 0x0, symName: '__ZN4core3ptr42drop_in_place$LT$syn..item..ImplItemFn$GT$17haf8f89161f0a8aa1E', symObjAddr: 0x8110, symBinAddr: 0x583B0, symSize: 0x200 }
  - { offsetInCU: 0x54264, offset: 0x23FFF0, size: 0x8, addend: 0x0, symName: '__ZN4core3ptr43drop_in_place$LT$syn..data..FieldsNamed$GT$17h56bef6f151514865E', symObjAddr: 0x8310, symBinAddr: 0x585B0, symSize: 0xE0 }
  - { offsetInCU: 0x54606, offset: 0x240392, size: 0x8, addend: 0x0, symName: '__ZN4core3ptr43drop_in_place$LT$syn..item..ForeignItem$GT$17h8033abfc56dac52fE', symObjAddr: 0x83F0, symBinAddr: 0x58690, symSize: 0x520 }
  - { offsetInCU: 0x559B2, offset: 0x24173E, size: 0x8, addend: 0x0, symName: '__ZN4core3ptr44drop_in_place$LT$syn..generics..Generics$GT$17h671de917167f8b66E', symObjAddr: 0x8910, symBinAddr: 0x58BB0, symSize: 0x40 }
  - { offsetInCU: 0x559CF, offset: 0x24175B, size: 0x8, addend: 0x0, symName: '__ZN4core3ptr44drop_in_place$LT$syn..lifetime..Lifetime$GT$17he37fa474f03de7b1E', symObjAddr: 0x8950, symBinAddr: 0x58BF0, symSize: 0x30 }
  - { offsetInCU: 0x55B47, offset: 0x2418D3, size: 0x8, addend: 0x0, symName: '__ZN4core3ptr44drop_in_place$LT$syn..parse..ParseBuffer$GT$17hf792ff20095efc35E.llvm.18308377727791997679', symObjAddr: 0x8980, symBinAddr: 0x58C20, symSize: 0x70 }
  - { offsetInCU: 0x55F5E, offset: 0x241CEA, size: 0x8, addend: 0x0, symName: '__ZN4core3ptr45drop_in_place$LT$proc_macro2..TokenStream$GT$17h76e8e68015f4924dE', symObjAddr: 0x89F0, symBinAddr: 0x58C90, symSize: 0x140 }
  - { offsetInCU: 0x563F8, offset: 0x242184, size: 0x8, addend: 0x0, symName: '__ZN4core3ptr45drop_in_place$LT$syn..generics..TypeParam$GT$17h188a459c1380ac75E', symObjAddr: 0x8B30, symBinAddr: 0x58DD0, symSize: 0x230 }
  - { offsetInCU: 0x56C6D, offset: 0x2429F9, size: 0x8, addend: 0x0, symName: '__ZN4core3ptr46drop_in_place$LT$syn..generics..ConstParam$GT$17h7a9b900b2b88bfcdE', symObjAddr: 0x8D60, symBinAddr: 0x59000, symSize: 0x150 }
  - { offsetInCU: 0x570EE, offset: 0x242E7A, size: 0x8, addend: 0x0, symName: '__ZN4core3ptr47drop_in_place$LT$syn..path..GenericArgument$GT$17h593f06d6ca9a94d2E', symObjAddr: 0x8EB0, symBinAddr: 0x59150, symSize: 0x4A0 }
  - { offsetInCU: 0x581F4, offset: 0x243F80, size: 0x8, addend: 0x0, symName: '__ZN4core3ptr49drop_in_place$LT$syn..generics..LifetimeParam$GT$17h3a8835ab294bfd16E', symObjAddr: 0x9350, symBinAddr: 0x595F0, symSize: 0xF0 }
  - { offsetInCU: 0x5860B, offset: 0x244397, size: 0x8, addend: 0x0, symName: '__ZN4core3ptr49drop_in_place$LT$syn..restriction..Visibility$GT$17h3e52b998838defb1E', symObjAddr: 0x9440, symBinAddr: 0x596E0, symSize: 0x60 }
  - { offsetInCU: 0x58780, offset: 0x24450C, size: 0x8, addend: 0x0, symName: '__ZN4core3ptr50drop_in_place$LT$syn..generics..TypeParamBound$GT$17h81b4325b5900604dE', symObjAddr: 0x94A0, symBinAddr: 0x59740, symSize: 0x1C0 }
  - { offsetInCU: 0x58CFC, offset: 0x244A88, size: 0x8, addend: 0x0, symName: '__ZN4core3ptr58drop_in_place$LT$alloc..vec..Vec$LT$syn..expr..Arm$GT$$GT$17hff9224aadf2233b8E', symObjAddr: 0x96A0, symBinAddr: 0x59900, symSize: 0xD0 }
  - { offsetInCU: 0x58FBC, offset: 0x244D48, size: 0x8, addend: 0x0, symName: '__ZN4core3ptr59drop_in_place$LT$alloc..boxed..Box$LT$syn..pat..Pat$GT$$GT$17h622b0c1db21c0742E', symObjAddr: 0x9770, symBinAddr: 0x599D0, symSize: 0x50 }
  - { offsetInCU: 0x59115, offset: 0x244EA1, size: 0x8, addend: 0x0, symName: '__ZN4core3ptr59drop_in_place$LT$alloc..boxed..Box$LT$syn..ty..Type$GT$$GT$17hde45fa887dd8b605E', symObjAddr: 0x97C0, symBinAddr: 0x59A20, symSize: 0x50 }
  - { offsetInCU: 0x5926E, offset: 0x244FFA, size: 0x8, addend: 0x0, symName: '__ZN4core3ptr59drop_in_place$LT$alloc..vec..Vec$LT$syn..item..Item$GT$$GT$17h8590e8c8e196c3c2E', symObjAddr: 0x9810, symBinAddr: 0x59A70, symSize: 0xD0 }
  - { offsetInCU: 0x5952E, offset: 0x2452BA, size: 0x8, addend: 0x0, symName: '__ZN4core3ptr59drop_in_place$LT$alloc..vec..Vec$LT$syn..stmt..Stmt$GT$$GT$17h6cf3e54f41bc03bdE', symObjAddr: 0x98E0, symBinAddr: 0x59B40, symSize: 0xD0 }
  - { offsetInCU: 0x597EE, offset: 0x24557A, size: 0x8, addend: 0x0, symName: '__ZN4core3ptr61drop_in_place$LT$alloc..boxed..Box$LT$syn..expr..Expr$GT$$GT$17hbb42293869113942E', symObjAddr: 0x99B0, symBinAddr: 0x59C10, symSize: 0x50 }
  - { offsetInCU: 0x59947, offset: 0x2456D3, size: 0x8, addend: 0x0, symName: '__ZN4core3ptr61drop_in_place$LT$core..option..Option$LT$syn..ty..Abi$GT$$GT$17h7dcd65a0d902f85aE', symObjAddr: 0x9A00, symBinAddr: 0x59C60, symSize: 0x70 }
  - { offsetInCU: 0x59CEB, offset: 0x245A77, size: 0x8, addend: 0x0, symName: '__ZN4core3ptr61drop_in_place$LT$syn..path..ParenthesizedGenericArguments$GT$17h6b1731382637937fE', symObjAddr: 0x9A70, symBinAddr: 0x59CD0, symSize: 0x170 }
  - { offsetInCU: 0x5A2E1, offset: 0x24606D, size: 0x8, addend: 0x0, symName: '__ZN4core3ptr62drop_in_place$LT$alloc..boxed..Box$LT$syn..stmt..Block$GT$$GT$17h21dcb5adf0237a12E', symObjAddr: 0x9BE0, symBinAddr: 0x59E40, symSize: 0xE0 }
  - { offsetInCU: 0x5A6F3, offset: 0x24647F, size: 0x8, addend: 0x0, symName: '__ZN4core3ptr62drop_in_place$LT$syn..path..AngleBracketedGenericArguments$GT$17hf8fa172f007a1473E', symObjAddr: 0x9CC0, symBinAddr: 0x59F20, symSize: 0x120 }
  - { offsetInCU: 0x5AB3E, offset: 0x2468CA, size: 0x8, addend: 0x0, symName: '__ZN4core3ptr63drop_in_place$LT$alloc..boxed..Box$LT$syn..lit..LitRepr$GT$$GT$17h6e3a82ea4de7b84cE', symObjAddr: 0x9DE0, symBinAddr: 0x5A040, symSize: 0x60 }
  - { offsetInCU: 0x5AE07, offset: 0x246B93, size: 0x8, addend: 0x0, symName: '__ZN4core3ptr63drop_in_place$LT$alloc..vec..Vec$LT$syn..item..ImplItem$GT$$GT$17hc51fca07e67d35aeE', symObjAddr: 0x9E40, symBinAddr: 0x5A0A0, symSize: 0x80 }
  - { offsetInCU: 0x5B0DE, offset: 0x246E6A, size: 0x8, addend: 0x0, symName: '__ZN4core3ptr64drop_in_place$LT$alloc..boxed..Box$LT$syn..item..UseTree$GT$$GT$17he4d7024582150632E', symObjAddr: 0x9EC0, symBinAddr: 0x5A120, symSize: 0xF0 }
  - { offsetInCU: 0x5B5F9, offset: 0x247385, size: 0x8, addend: 0x0, symName: '__ZN4core3ptr64drop_in_place$LT$alloc..boxed..Box$LT$syn..pat..FieldPat$GT$$GT$17hbf8f4867d84bd25dE', symObjAddr: 0x9FB0, symBinAddr: 0x5A210, symSize: 0x140 }
  - { offsetInCU: 0x5BCFA, offset: 0x247A86, size: 0x8, addend: 0x0, symName: '__ZN4core3ptr64drop_in_place$LT$alloc..boxed..Box$LT$syn..ty..BareFnArg$GT$$GT$17h6be6354eb1d1364dE', symObjAddr: 0xA0F0, symBinAddr: 0x5A350, symSize: 0x140 }
  - { offsetInCU: 0x5C283, offset: 0x24800F, size: 0x8, addend: 0x0, symName: '__ZN4core3ptr64drop_in_place$LT$alloc..vec..Vec$LT$syn..attr..Attribute$GT$$GT$17he33e25539d5885aeE', symObjAddr: 0xA230, symBinAddr: 0x5A490, symSize: 0xD0 }
  - { offsetInCU: 0x5C577, offset: 0x248303, size: 0x8, addend: 0x0, symName: '__ZN4core3ptr64drop_in_place$LT$alloc..vec..Vec$LT$syn..item..TraitItem$GT$$GT$17hff1cc01ccae80d7aE', symObjAddr: 0xA300, symBinAddr: 0x5A560, symSize: 0x80 }
  - { offsetInCU: 0x5C82F, offset: 0x2485BB, size: 0x8, addend: 0x0, symName: '__ZN4core3ptr65drop_in_place$LT$alloc..vec..Vec$LT$proc_macro..TokenTree$GT$$GT$17h8abd81f8596dbc59E', symObjAddr: 0xA380, symBinAddr: 0x5A5E0, symSize: 0x110 }
  - { offsetInCU: 0x5CC27, offset: 0x2489B3, size: 0x8, addend: 0x0, symName: '__ZN4core3ptr65drop_in_place$LT$core..option..Option$LT$syn..expr..Label$GT$$GT$17hac599686b33ef364E', symObjAddr: 0xA490, symBinAddr: 0x5A6F0, symSize: 0x30 }
  - { offsetInCU: 0x5CD61, offset: 0x248AED, size: 0x8, addend: 0x0, symName: '__ZN4core3ptr65drop_in_place$LT$core..option..Option$LT$syn..stmt..Block$GT$$GT$17h74f2551ed24e2d27E', symObjAddr: 0xA4C0, symBinAddr: 0x5A720, symSize: 0xD0 }
  - { offsetInCU: 0x5D036, offset: 0x248DC2, size: 0x8, addend: 0x0, symName: '__ZN4core3ptr66drop_in_place$LT$alloc..vec..Vec$LT$syn..item..ForeignItem$GT$$GT$17h1f176e04eaf5e0dfE', symObjAddr: 0xA590, symBinAddr: 0x5A7F0, symSize: 0x80 }
  - { offsetInCU: 0x5D2EE, offset: 0x24907A, size: 0x8, addend: 0x0, symName: '__ZN4core3ptr66drop_in_place$LT$core..option..Option$LT$syn..pat..PatRest$GT$$GT$17hd5bb3bc28aa78ac1E', symObjAddr: 0xA610, symBinAddr: 0x5A870, symSize: 0xE0 }
  - { offsetInCU: 0x5D616, offset: 0x2493A2, size: 0x8, addend: 0x0, symName: '__ZN4core3ptr67drop_in_place$LT$alloc..boxed..Box$LT$syn..expr..FieldValue$GT$$GT$17hbbcf67a9d5e9863cE', symObjAddr: 0xA6F0, symBinAddr: 0x5A950, symSize: 0x140 }
  - { offsetInCU: 0x5DB7F, offset: 0x24990B, size: 0x8, addend: 0x0, symName: '__ZN4core3ptr67drop_in_place$LT$core..option..Option$LT$proc_macro2..Ident$GT$$GT$17h430b2bec25099623E', symObjAddr: 0xA830, symBinAddr: 0x5AA90, symSize: 0x30 }
  - { offsetInCU: 0x5DC7B, offset: 0x249A07, size: 0x8, addend: 0x0, symName: '__ZN4core3ptr68drop_in_place$LT$alloc..boxed..Box$LT$syn..path..PathSegment$GT$$GT$17h99aaf90b3262bc1eE', symObjAddr: 0xA860, symBinAddr: 0x5AAC0, symSize: 0x1B0 }
  - { offsetInCU: 0x5E36A, offset: 0x24A0F6, size: 0x8, addend: 0x0, symName: '__ZN4core3ptr68drop_in_place$LT$core..option..Option$LT$syn..item..Variadic$GT$$GT$17hbfd9a809a8c7f20eE', symObjAddr: 0xAA10, symBinAddr: 0x5AC70, symSize: 0x20 }
  - { offsetInCU: 0x5E3A4, offset: 0x24A130, size: 0x8, addend: 0x0, symName: '__ZN4core3ptr70drop_in_place$LT$core..option..Option$LT$syn..ty..BareVariadic$GT$$GT$17h79a19250e9f043b1E', symObjAddr: 0xAA30, symBinAddr: 0x5AC90, symSize: 0x100 }
  - { offsetInCU: 0x5E80F, offset: 0x24A59B, size: 0x8, addend: 0x0, symName: '__ZN4core3ptr72drop_in_place$LT$alloc..boxed..Box$LT$syn..path..GenericArgument$GT$$GT$17hfd308d374af4273dE', symObjAddr: 0xAB30, symBinAddr: 0x5AD90, symSize: 0x1D0 }
  - { offsetInCU: 0x5EDAA, offset: 0x24AB36, size: 0x8, addend: 0x0, symName: '__ZN4core3ptr72drop_in_place$LT$core..option..Option$LT$syn..lifetime..Lifetime$GT$$GT$17h49cce6f02f9c0590E', symObjAddr: 0xAD00, symBinAddr: 0x5AF60, symSize: 0x30 }
  - { offsetInCU: 0x5EEC5, offset: 0x24AC51, size: 0x8, addend: 0x0, symName: '__ZN4core3ptr73drop_in_place$LT$alloc..boxed..Box$LT$syn..generics..GenericParam$GT$$GT$17ha26d5d145af4b203E', symObjAddr: 0xAD30, symBinAddr: 0x5AF90, symSize: 0x80 }
  - { offsetInCU: 0x5F03B, offset: 0x24ADC7, size: 0x8, addend: 0x0, symName: '__ZN4core3ptr75drop_in_place$LT$alloc..boxed..Box$LT$syn..generics..TypeParamBound$GT$$GT$17h129a4e927e5eb81bE', symObjAddr: 0xADB0, symBinAddr: 0x5B010, symSize: 0xC0 }
  - { offsetInCU: 0x5F3AE, offset: 0x24B13A, size: 0x8, addend: 0x0, symName: '__ZN4core3ptr75drop_in_place$LT$core..option..Option$LT$syn..generics..WhereClause$GT$$GT$17haaf63f327098cdccE', symObjAddr: 0xAE70, symBinAddr: 0x5B0D0, symSize: 0x90 }
  - { offsetInCU: 0x5F6A2, offset: 0x24B42E, size: 0x8, addend: 0x0, symName: '__ZN4core3ptr86drop_in_place$LT$syn..punctuated..Punctuated$LT$syn..pat..Pat$C$syn..token..Or$GT$$GT$17h9cc6b5f7b6d3a555E', symObjAddr: 0xAF00, symBinAddr: 0x5B160, symSize: 0x120 }
  - { offsetInCU: 0x5FB1D, offset: 0x24B8A9, size: 0x8, addend: 0x0, symName: '__ZN4core3ptr87drop_in_place$LT$core..option..Option$LT$$LP$syn..token..Eq$C$syn..ty..Type$RP$$GT$$GT$17h3b3da7647c1cdad5E', symObjAddr: 0xB020, symBinAddr: 0x5B280, symSize: 0x20 }
  - { offsetInCU: 0x5FB4F, offset: 0x24B8DB, size: 0x8, addend: 0x0, symName: '__ZN4core3ptr87drop_in_place$LT$core..option..Option$LT$alloc..boxed..Box$LT$syn..pat..Pat$GT$$GT$$GT$17h51cd48973d96c411E', symObjAddr: 0xB040, symBinAddr: 0x5B2A0, symSize: 0x50 }
  - { offsetInCU: 0x5FCBF, offset: 0x24BA4B, size: 0x8, addend: 0x0, symName: '__ZN4core3ptr87drop_in_place$LT$core..option..Option$LT$alloc..boxed..Box$LT$syn..ty..Type$GT$$GT$$GT$17h103a25a4a7d7374eE', symObjAddr: 0xB090, symBinAddr: 0x5B2F0, symSize: 0x50 }
  - { offsetInCU: 0x5FE2F, offset: 0x24BBBB, size: 0x8, addend: 0x0, symName: '__ZN4core3ptr89drop_in_place$LT$core..option..Option$LT$$LP$syn..token..Eq$C$syn..expr..Expr$RP$$GT$$GT$17h933a540a99ff8409E', symObjAddr: 0xB0E0, symBinAddr: 0x5B340, symSize: 0x20 }
  - { offsetInCU: 0x5FE61, offset: 0x24BBED, size: 0x8, addend: 0x0, symName: '__ZN4core3ptr89drop_in_place$LT$core..option..Option$LT$alloc..boxed..Box$LT$syn..expr..Expr$GT$$GT$$GT$17h9e02509cb2345d44E', symObjAddr: 0xB100, symBinAddr: 0x5B360, symSize: 0x50 }
  - { offsetInCU: 0x6000F, offset: 0x24BD9B, size: 0x8, addend: 0x0, symName: '__ZN4core3ptr89drop_in_place$LT$syn..punctuated..Punctuated$LT$syn..pat..Pat$C$syn..token..Comma$GT$$GT$17hd3a83c36827f210aE', symObjAddr: 0xB150, symBinAddr: 0x5B3B0, symSize: 0x120 }
  - { offsetInCU: 0x604A1, offset: 0x24C22D, size: 0x8, addend: 0x0, symName: '__ZN4core3ptr89drop_in_place$LT$syn..punctuated..Punctuated$LT$syn..ty..Type$C$syn..token..Comma$GT$$GT$17he030c4b7f24a5848E', symObjAddr: 0xB270, symBinAddr: 0x5B4D0, symSize: 0x120 }
  - { offsetInCU: 0x6095A, offset: 0x24C6E6, size: 0x8, addend: 0x0, symName: '__ZN4core3ptr90drop_in_place$LT$core..option..Option$LT$alloc..boxed..Box$LT$syn..data..Field$GT$$GT$$GT$17h9f1aee8cd56c6727E', symObjAddr: 0xB390, symBinAddr: 0x5B5F0, symSize: 0x1B0 }
  - { offsetInCU: 0x61055, offset: 0x24CDE1, size: 0x8, addend: 0x0, symName: '__ZN4core3ptr90drop_in_place$LT$core..option..Option$LT$alloc..boxed..Box$LT$syn..item..FnArg$GT$$GT$$GT$17h8635495a730dc0bfE', symObjAddr: 0xB540, symBinAddr: 0x5B7A0, symSize: 0x70 }
  - { offsetInCU: 0x611CF, offset: 0x24CF5B, size: 0x8, addend: 0x0, symName: '__ZN4core3ptr90drop_in_place$LT$core..option..Option$LT$syn..path..AngleBracketedGenericArguments$GT$$GT$17ha307713a95a0671eE', symObjAddr: 0xB5B0, symBinAddr: 0x5B810, symSize: 0x130 }
  - { offsetInCU: 0x61671, offset: 0x24D3FD, size: 0x8, addend: 0x0, symName: '__ZN4core3ptr91drop_in_place$LT$syn..punctuated..Punctuated$LT$syn..expr..Expr$C$syn..token..Comma$GT$$GT$17h6f261e8f470c81f2E', symObjAddr: 0xB6E0, symBinAddr: 0x5B940, symSize: 0x120 }
  - { offsetInCU: 0x61AFF, offset: 0x24D88B, size: 0x8, addend: 0x0, symName: '__ZN4core3ptr92drop_in_place$LT$core..option..Option$LT$$LP$syn..token..As$C$proc_macro2..Ident$RP$$GT$$GT$17h12a88945917fa9dbE', symObjAddr: 0xB800, symBinAddr: 0x5BA60, symSize: 0x30 }
  - { offsetInCU: 0x61C58, offset: 0x24D9E4, size: 0x8, addend: 0x0, symName: '__ZN4core3ptr92drop_in_place$LT$core..option..Option$LT$alloc..boxed..Box$LT$syn..data..Variant$GT$$GT$$GT$17hb65f9b5d99f448afE', symObjAddr: 0xB830, symBinAddr: 0x5BA90, symSize: 0x170 }
  - { offsetInCU: 0x62284, offset: 0x24E010, size: 0x8, addend: 0x0, symName: '__ZN4core3ptr92drop_in_place$LT$syn..punctuated..Punctuated$LT$syn..item..FnArg$C$syn..token..Comma$GT$$GT$17h7de33e77eabaea82E', symObjAddr: 0xB9A0, symBinAddr: 0x5BC00, symSize: 0x140 }
  - { offsetInCU: 0x62701, offset: 0x24E48D, size: 0x8, addend: 0x0, symName: '__ZN4core3ptr94drop_in_place$LT$syn..punctuated..Punctuated$LT$syn..data..Variant$C$syn..token..Comma$GT$$GT$17h310cd79aba4529ccE', symObjAddr: 0xBAE0, symBinAddr: 0x5BD40, symSize: 0xE0 }
  - { offsetInCU: 0x62A61, offset: 0x24E7ED, size: 0x8, addend: 0x0, symName: '__ZN4core3ptr94drop_in_place$LT$syn..punctuated..Punctuated$LT$syn..item..UseTree$C$syn..token..Comma$GT$$GT$17h6236871345889df7E', symObjAddr: 0xBBC0, symBinAddr: 0x5BE20, symSize: 0xF0 }
  - { offsetInCU: 0x62DA7, offset: 0x24EB33, size: 0x8, addend: 0x0, symName: '__ZN4core3ptr94drop_in_place$LT$syn..punctuated..Punctuated$LT$syn..pat..FieldPat$C$syn..token..Comma$GT$$GT$17h43ec25af986ef674E', symObjAddr: 0xBCB0, symBinAddr: 0x5BF10, symSize: 0xF0 }
  - { offsetInCU: 0x630A6, offset: 0x24EE32, size: 0x8, addend: 0x0, symName: '__ZN4core3ptr94drop_in_place$LT$syn..punctuated..Punctuated$LT$syn..ty..BareFnArg$C$syn..token..Comma$GT$$GT$17h7ba4c699ee390ebaE', symObjAddr: 0xBDA0, symBinAddr: 0x5C000, symSize: 0xF0 }
  - { offsetInCU: 0x633A7, offset: 0x24F133, size: 0x8, addend: 0x0, symName: '__ZN4core3ptr96drop_in_place$LT$core..option..Option$LT$alloc..boxed..Box$LT$syn..path..PathSegment$GT$$GT$$GT$17h5de12a5a0f9e9ef9E', symObjAddr: 0xBE90, symBinAddr: 0x5C0F0, symSize: 0xA0 }
  - { offsetInCU: 0x63626, offset: 0x24F3B2, size: 0x8, addend: 0x0, symName: '__ZN4core3ptr97drop_in_place$LT$syn..punctuated..Punctuated$LT$syn..expr..FieldValue$C$syn..token..Comma$GT$$GT$17hf58d0a9a09266ab3E', symObjAddr: 0xBF30, symBinAddr: 0x5C190, symSize: 0xF0 }
  - { offsetInCU: 0x63923, offset: 0x24F6AF, size: 0x8, addend: 0x0, symName: '__ZN4core3ptr98drop_in_place$LT$alloc..vec..Vec$LT$$LP$syn..path..GenericArgument$C$syn..token..Comma$RP$$GT$$GT$17h0dee282a026d5a38E', symObjAddr: 0xC020, symBinAddr: 0x5C280, symSize: 0xD0 }
  - { offsetInCU: 0x63C63, offset: 0x24F9EF, size: 0x8, addend: 0x0, symName: '__ZN4core3ptr98drop_in_place$LT$syn..punctuated..Punctuated$LT$syn..lifetime..Lifetime$C$syn..token..Plus$GT$$GT$17h600c2b78f78fd2b9E', symObjAddr: 0xC0F0, symBinAddr: 0x5C350, symSize: 0xD0 }
  - { offsetInCU: 0x660CC, offset: 0x251E58, size: 0x8, addend: 0x0, symName: '__ZN66_$LT$core..option..Option$LT$T$GT$$u20$as$u20$core..fmt..Debug$GT$3fmt17h04cdf44a1722b195E', symObjAddr: 0xC2E0, symBinAddr: 0x5C490, symSize: 0x60 }
  - { offsetInCU: 0x66132, offset: 0x251EBE, size: 0x8, addend: 0x0, symName: '__ZN66_$LT$core..option..Option$LT$T$GT$$u20$as$u20$core..fmt..Debug$GT$3fmt17h125de5a4ea542f00E', symObjAddr: 0xC340, symBinAddr: 0x5C4F0, symSize: 0x50 }
  - { offsetInCU: 0x66198, offset: 0x251F24, size: 0x8, addend: 0x0, symName: '__ZN66_$LT$core..option..Option$LT$T$GT$$u20$as$u20$core..fmt..Debug$GT$3fmt17h173390018063d9b2E', symObjAddr: 0xC390, symBinAddr: 0x5C540, symSize: 0x50 }
  - { offsetInCU: 0x661FE, offset: 0x251F8A, size: 0x8, addend: 0x0, symName: '__ZN66_$LT$core..option..Option$LT$T$GT$$u20$as$u20$core..fmt..Debug$GT$3fmt17h23a526921c844048E', symObjAddr: 0xC3E0, symBinAddr: 0x5C590, symSize: 0x60 }
  - { offsetInCU: 0x66264, offset: 0x251FF0, size: 0x8, addend: 0x0, symName: '__ZN66_$LT$core..option..Option$LT$T$GT$$u20$as$u20$core..fmt..Debug$GT$3fmt17h444f22eece7e8e0cE', symObjAddr: 0xC440, symBinAddr: 0x5C5F0, symSize: 0x50 }
  - { offsetInCU: 0x662CA, offset: 0x252056, size: 0x8, addend: 0x0, symName: '__ZN66_$LT$core..option..Option$LT$T$GT$$u20$as$u20$core..fmt..Debug$GT$3fmt17h4a9ba03cb680397cE', symObjAddr: 0xC490, symBinAddr: 0x5C640, symSize: 0x50 }
  - { offsetInCU: 0x66330, offset: 0x2520BC, size: 0x8, addend: 0x0, symName: '__ZN66_$LT$core..option..Option$LT$T$GT$$u20$as$u20$core..fmt..Debug$GT$3fmt17h5c6773f32a27c650E', symObjAddr: 0xC4E0, symBinAddr: 0x5C690, symSize: 0x50 }
  - { offsetInCU: 0x66396, offset: 0x252122, size: 0x8, addend: 0x0, symName: '__ZN66_$LT$core..option..Option$LT$T$GT$$u20$as$u20$core..fmt..Debug$GT$3fmt17h5d30cef098327974E', symObjAddr: 0xC530, symBinAddr: 0x5C6E0, symSize: 0x60 }
  - { offsetInCU: 0x663FC, offset: 0x252188, size: 0x8, addend: 0x0, symName: '__ZN66_$LT$core..option..Option$LT$T$GT$$u20$as$u20$core..fmt..Debug$GT$3fmt17h5e97d63aa1b30ccbE', symObjAddr: 0xC590, symBinAddr: 0x5C740, symSize: 0x50 }
  - { offsetInCU: 0x66462, offset: 0x2521EE, size: 0x8, addend: 0x0, symName: '__ZN66_$LT$core..option..Option$LT$T$GT$$u20$as$u20$core..fmt..Debug$GT$3fmt17h810f26adfe711fa9E', symObjAddr: 0xC5E0, symBinAddr: 0x5C790, symSize: 0x50 }
  - { offsetInCU: 0x664C8, offset: 0x252254, size: 0x8, addend: 0x0, symName: '__ZN66_$LT$core..option..Option$LT$T$GT$$u20$as$u20$core..fmt..Debug$GT$3fmt17h831dc3ce290fea6aE', symObjAddr: 0xC630, symBinAddr: 0x5C7E0, symSize: 0x20 }
  - { offsetInCU: 0x6650C, offset: 0x252298, size: 0x8, addend: 0x0, symName: '__ZN66_$LT$core..option..Option$LT$T$GT$$u20$as$u20$core..fmt..Debug$GT$3fmt17h88851a932c6a5270E', symObjAddr: 0xC650, symBinAddr: 0x5C800, symSize: 0x50 }
  - { offsetInCU: 0x66572, offset: 0x2522FE, size: 0x8, addend: 0x0, symName: '__ZN66_$LT$core..option..Option$LT$T$GT$$u20$as$u20$core..fmt..Debug$GT$3fmt17h92e5b42df743884fE', symObjAddr: 0xC6A0, symBinAddr: 0x5C850, symSize: 0x50 }
  - { offsetInCU: 0x665D8, offset: 0x252364, size: 0x8, addend: 0x0, symName: '__ZN66_$LT$core..option..Option$LT$T$GT$$u20$as$u20$core..fmt..Debug$GT$3fmt17h943ec9e7b02c5097E', symObjAddr: 0xC6F0, symBinAddr: 0x5C8A0, symSize: 0x60 }
  - { offsetInCU: 0x6663E, offset: 0x2523CA, size: 0x8, addend: 0x0, symName: '__ZN66_$LT$core..option..Option$LT$T$GT$$u20$as$u20$core..fmt..Debug$GT$3fmt17h943fce126144e090E', symObjAddr: 0xC750, symBinAddr: 0x5C900, symSize: 0x60 }
  - { offsetInCU: 0x666A4, offset: 0x252430, size: 0x8, addend: 0x0, symName: '__ZN66_$LT$core..option..Option$LT$T$GT$$u20$as$u20$core..fmt..Debug$GT$3fmt17h9d264003c8171d27E', symObjAddr: 0xC7B0, symBinAddr: 0x5C960, symSize: 0x60 }
  - { offsetInCU: 0x6670A, offset: 0x252496, size: 0x8, addend: 0x0, symName: '__ZN66_$LT$core..option..Option$LT$T$GT$$u20$as$u20$core..fmt..Debug$GT$3fmt17hc4565ff8152e74ddE', symObjAddr: 0xC810, symBinAddr: 0x5C9C0, symSize: 0x60 }
  - { offsetInCU: 0x66770, offset: 0x2524FC, size: 0x8, addend: 0x0, symName: '__ZN66_$LT$core..option..Option$LT$T$GT$$u20$as$u20$core..fmt..Debug$GT$3fmt17hc679ed963eefad6cE', symObjAddr: 0xC870, symBinAddr: 0x5CA20, symSize: 0x60 }
  - { offsetInCU: 0x667D6, offset: 0x252562, size: 0x8, addend: 0x0, symName: '__ZN66_$LT$core..option..Option$LT$T$GT$$u20$as$u20$core..fmt..Debug$GT$3fmt17hdff6c11dc8127d81E', symObjAddr: 0xC8D0, symBinAddr: 0x5CA80, symSize: 0x60 }
  - { offsetInCU: 0x6683C, offset: 0x2525C8, size: 0x8, addend: 0x0, symName: '__ZN66_$LT$core..option..Option$LT$T$GT$$u20$as$u20$core..fmt..Debug$GT$3fmt17he5c6d035a7e6347eE', symObjAddr: 0xC930, symBinAddr: 0x5CAE0, symSize: 0x60 }
  - { offsetInCU: 0x668A2, offset: 0x25262E, size: 0x8, addend: 0x0, symName: '__ZN66_$LT$core..option..Option$LT$T$GT$$u20$as$u20$core..fmt..Debug$GT$3fmt17hf5798e2dd0d945b2E', symObjAddr: 0xC990, symBinAddr: 0x5CB40, symSize: 0x50 }
  - { offsetInCU: 0x66908, offset: 0x252694, size: 0x8, addend: 0x0, symName: '__ZN66_$LT$core..option..Option$LT$T$GT$$u20$as$u20$core..fmt..Debug$GT$3fmt17hfbd740a3a57feb51E', symObjAddr: 0xC9E0, symBinAddr: 0x5CB90, symSize: 0x60 }
  - { offsetInCU: 0x67456, offset: 0x2531E2, size: 0x8, addend: 0x0, symName: '__ZN42_$LT$$RF$T$u20$as$u20$core..fmt..Debug$GT$3fmt17h06c02adecedf4f95E', symObjAddr: 0x0, symBinAddr: 0x50500, symSize: 0x10 }
  - { offsetInCU: 0x6749C, offset: 0x253228, size: 0x8, addend: 0x0, symName: '__ZN42_$LT$$RF$T$u20$as$u20$core..fmt..Debug$GT$3fmt17h386f1c19529404ffE', symObjAddr: 0x10, symBinAddr: 0x50510, symSize: 0x10 }
  - { offsetInCU: 0x674E2, offset: 0x25326E, size: 0x8, addend: 0x0, symName: '__ZN42_$LT$$RF$T$u20$as$u20$core..fmt..Debug$GT$3fmt17h59e602f5e5a02765E', symObjAddr: 0x20, symBinAddr: 0x50520, symSize: 0x10 }
  - { offsetInCU: 0x67528, offset: 0x2532B4, size: 0x8, addend: 0x0, symName: '__ZN42_$LT$$RF$T$u20$as$u20$core..fmt..Debug$GT$3fmt17h685cb89ea0e16ca5E', symObjAddr: 0x30, symBinAddr: 0x50530, symSize: 0xC0 }
  - { offsetInCU: 0x675AE, offset: 0x25333A, size: 0x8, addend: 0x0, symName: '__ZN42_$LT$$RF$T$u20$as$u20$core..fmt..Debug$GT$3fmt17hca28b073165b0fa2E', symObjAddr: 0xF0, symBinAddr: 0x505F0, symSize: 0x10 }
  - { offsetInCU: 0x6B6EC, offset: 0x257478, size: 0x8, addend: 0x0, symName: '__ZN48_$LT$T$u20$as$u20$core..clone..CloneToUninit$GT$15clone_to_uninit17h4081700a47491491E', symObjAddr: 0x300, symBinAddr: 0x50600, symSize: 0x360 }
  - { offsetInCU: 0x709F9, offset: 0x25C785, size: 0x8, addend: 0x0, symName: _anon.92dfd3ec73d6049f2210ee6b3fc0a284.49.llvm.18308377727791997679, symObjAddr: 0x33B30, symBinAddr: 0x270B18, symSize: 0x0 }
  - { offsetInCU: 0x70A44, offset: 0x25C7D0, size: 0x8, addend: 0x0, symName: _anon.92dfd3ec73d6049f2210ee6b3fc0a284.51.llvm.18308377727791997679, symObjAddr: 0x33B50, symBinAddr: 0x270B38, symSize: 0x0 }
  - { offsetInCU: 0x70A8F, offset: 0x25C81B, size: 0x8, addend: 0x0, symName: _anon.92dfd3ec73d6049f2210ee6b3fc0a284.235.llvm.18308377727791997679, symObjAddr: 0x34430, symBinAddr: 0x271418, symSize: 0x0 }
  - { offsetInCU: 0x70ADA, offset: 0x25C866, size: 0x8, addend: 0x0, symName: _anon.92dfd3ec73d6049f2210ee6b3fc0a284.237.llvm.18308377727791997679, symObjAddr: 0x34450, symBinAddr: 0x271438, symSize: 0x0 }
  - { offsetInCU: 0x70B25, offset: 0x25C8B1, size: 0x8, addend: 0x0, symName: _anon.92dfd3ec73d6049f2210ee6b3fc0a284.239.llvm.18308377727791997679, symObjAddr: 0x34470, symBinAddr: 0x271458, symSize: 0x0 }
  - { offsetInCU: 0x70B70, offset: 0x25C8FC, size: 0x8, addend: 0x0, symName: _anon.92dfd3ec73d6049f2210ee6b3fc0a284.241.llvm.18308377727791997679, symObjAddr: 0x34490, symBinAddr: 0x271478, symSize: 0x0 }
  - { offsetInCU: 0x70BBB, offset: 0x25C947, size: 0x8, addend: 0x0, symName: _anon.92dfd3ec73d6049f2210ee6b3fc0a284.243.llvm.18308377727791997679, symObjAddr: 0x344B0, symBinAddr: 0x271498, symSize: 0x0 }
  - { offsetInCU: 0x72C75, offset: 0x25EA01, size: 0x8, addend: 0x0, symName: '__ZN5alloc3vec16Vec$LT$T$C$A$GT$15append_elements17h17d0f6dcdaba10bcE', symObjAddr: 0xC230, symBinAddr: 0x5C420, symSize: 0x70 }
  - { offsetInCU: 0x72ECB, offset: 0x25EC57, size: 0x8, addend: 0x0, symName: __ZN3syn4item4Item13replace_attrs17h0529b41fa0d8dba2E, symObjAddr: 0xCB80, symBinAddr: 0x5CBF0, symSize: 0x190 }
  - { offsetInCU: 0x756ED, offset: 0x261479, size: 0x8, addend: 0x0, symName: '__ZN3syn3gen5debug46_$LT$impl$u20$syn..item..ForeignItemStatic$GT$5debug17hee45d3ba812ac4d3E', symObjAddr: 0x28DE0, symBinAddr: 0x713D0, symSize: 0x130 }
  - { offsetInCU: 0x757D0, offset: 0x26155C, size: 0x8, addend: 0x0, symName: '__ZN3syn3gen5debug42_$LT$impl$u20$syn..item..ImplItemConst$GT$5debug17h1c1a8bce2ea1fa22E', symObjAddr: 0x29280, symBinAddr: 0x71750, symSize: 0x1A0 }
  - { offsetInCU: 0x7583F, offset: 0x2615CB, size: 0x8, addend: 0x0, symName: '__ZN3syn3gen5debug41_$LT$impl$u20$syn..item..ImplItemType$GT$5debug17h1f9b74778210d64cE', symObjAddr: 0x295C0, symBinAddr: 0x718F0, symSize: 0x160 }
  - { offsetInCU: 0x759DD, offset: 0x261769, size: 0x8, addend: 0x0, symName: '__ZN3syn3gen5debug38_$LT$impl$u20$syn..item..ItemConst$GT$5debug17h10c74fa14bb3f0b3E', symObjAddr: 0x29D60, symBinAddr: 0x72070, symSize: 0x180 }
  - { offsetInCU: 0x75A4C, offset: 0x2617D8, size: 0x8, addend: 0x0, symName: '__ZN3syn3gen5debug37_$LT$impl$u20$syn..item..ItemEnum$GT$5debug17h8d91cb8bbb9f53e3E', symObjAddr: 0x29F00, symBinAddr: 0x721F0, symSize: 0x120 }
  - { offsetInCU: 0x75ABB, offset: 0x261847, size: 0x8, addend: 0x0, symName: '__ZN3syn3gen5debug44_$LT$impl$u20$syn..item..ItemExternCrate$GT$5debug17h44ac5b02fb33fbf6E', symObjAddr: 0x2A040, symBinAddr: 0x72310, symSize: 0x110 }
  - { offsetInCU: 0x75B2A, offset: 0x2618B6, size: 0x8, addend: 0x0, symName: '__ZN3syn3gen5debug37_$LT$impl$u20$syn..item..ItemImpl$GT$5debug17h099cc7fb635cb0c1E', symObjAddr: 0x2A310, symBinAddr: 0x72420, symSize: 0x160 }
  - { offsetInCU: 0x75B99, offset: 0x261925, size: 0x8, addend: 0x0, symName: '__ZN3syn3gen5debug36_$LT$impl$u20$syn..item..ItemMod$GT$5debug17h3efbd956be757ddeE', symObjAddr: 0x2A550, symBinAddr: 0x72580, symSize: 0x110 }
  - { offsetInCU: 0x75C08, offset: 0x261994, size: 0x8, addend: 0x0, symName: '__ZN3syn3gen5debug39_$LT$impl$u20$syn..item..ItemStatic$GT$5debug17h0e888fa56923924cE', symObjAddr: 0x2A680, symBinAddr: 0x72690, symSize: 0x170 }
  - { offsetInCU: 0x75C77, offset: 0x261A03, size: 0x8, addend: 0x0, symName: '__ZN3syn3gen5debug39_$LT$impl$u20$syn..item..ItemStruct$GT$5debug17hd67f1a1d1f2b18faE', symObjAddr: 0x2A810, symBinAddr: 0x72800, symSize: 0x120 }
  - { offsetInCU: 0x75CE6, offset: 0x261A72, size: 0x8, addend: 0x0, symName: '__ZN3syn3gen5debug38_$LT$impl$u20$syn..item..ItemTrait$GT$5debug17he05db6866e82bb3fE', symObjAddr: 0x2A950, symBinAddr: 0x72920, symSize: 0x1C0 }
  - { offsetInCU: 0x75D55, offset: 0x261AE1, size: 0x8, addend: 0x0, symName: '__ZN3syn3gen5debug43_$LT$impl$u20$syn..item..ItemTraitAlias$GT$5debug17h7d6d52994cd8e9e4E', symObjAddr: 0x2AB30, symBinAddr: 0x72AE0, symSize: 0x140 }
  - { offsetInCU: 0x75DC4, offset: 0x261B50, size: 0x8, addend: 0x0, symName: '__ZN3syn3gen5debug37_$LT$impl$u20$syn..item..ItemType$GT$5debug17h9d773c3fb2726754E', symObjAddr: 0x2AC90, symBinAddr: 0x72C20, symSize: 0x140 }
  - { offsetInCU: 0x75EA7, offset: 0x261C33, size: 0x8, addend: 0x0, symName: '__ZN3syn3gen5debug43_$LT$impl$u20$syn..item..TraitItemConst$GT$5debug17hcc998632d3f178f9E', symObjAddr: 0x2B560, symBinAddr: 0x732D0, symSize: 0x140 }
  - { offsetInCU: 0x75F16, offset: 0x261CA2, size: 0x8, addend: 0x0, symName: '__ZN3syn3gen5debug42_$LT$impl$u20$syn..item..TraitItemType$GT$5debug17h8c799fdc0a181826E', symObjAddr: 0x2B820, symBinAddr: 0x73410, symSize: 0x140 }
  - { offsetInCU: 0x1E, offset: 0x26D8D3, size: 0x8, addend: 0x0, symName: '__ZN4core3ptr100drop_in_place$LT$alloc..vec..Vec$LT$$LP$syn..generics..TypeParamBound$C$syn..token..Plus$RP$$GT$$GT$17hea181150e4b37806E.llvm.991277207215265740', symObjAddr: 0x0, symBinAddr: 0x73910, symSize: 0xD0 }
  - { offsetInCU: 0x1287, offset: 0x26EB3C, size: 0x8, addend: 0x0, symName: '__ZN111_$LT$syn..punctuated..PrivateIter$LT$T$C$P$GT$$u20$as$u20$core..iter..traits..exact_size..ExactSizeIterator$GT$3len17hd03ac3201b3cfde6E.llvm.991277207215265740', symObjAddr: 0x105D0, symBinAddr: 0x81220, symSize: 0x0 }
  - { offsetInCU: 0x1465, offset: 0x26ED1A, size: 0x8, addend: 0x0, symName: '__ZN115_$LT$syn..punctuated..PrivateIter$LT$T$C$P$GT$$u20$as$u20$core..iter..traits..double_ended..DoubleEndedIterator$GT$9next_back17h7f4f61270a4204d7E.llvm.991277207215265740', symObjAddr: 0x104C0, symBinAddr: 0x811F0, symSize: 0x0 }
  - { offsetInCU: 0x18DF, offset: 0x26F194, size: 0x8, addend: 0x0, symName: '__ZN100_$LT$syn..punctuated..PrivateIter$LT$T$C$P$GT$$u20$as$u20$core..iter..traits..iterator..Iterator$GT$4next17h2a509a6c34848c4aE.llvm.991277207215265740', symObjAddr: 0x103D0, symBinAddr: 0x81160, symSize: 0x0 }
  - { offsetInCU: 0x1B90, offset: 0x26F445, size: 0x8, addend: 0x0, symName: '__ZN100_$LT$syn..punctuated..PrivateIter$LT$T$C$P$GT$$u20$as$u20$core..iter..traits..iterator..Iterator$GT$4next17h63cbef55dd3a9f53E.llvm.991277207215265740', symObjAddr: 0x10430, symBinAddr: 0x81190, symSize: 0x30 }
  - { offsetInCU: 0x1E1D, offset: 0x26F6D2, size: 0x8, addend: 0x0, symName: '__ZN100_$LT$syn..punctuated..PrivateIter$LT$T$C$P$GT$$u20$as$u20$core..iter..traits..iterator..Iterator$GT$4next17h6b4639ca1419e80fE.llvm.991277207215265740', symObjAddr: 0x10460, symBinAddr: 0x811C0, symSize: 0x30 }
  - { offsetInCU: 0x256D, offset: 0x26FE22, size: 0x8, addend: 0x0, symName: '__ZN79_$LT$syn..punctuated..Punctuated$LT$T$C$P$GT$$u20$as$u20$core..clone..Clone$GT$5clone17h123489863670ef82E', symObjAddr: 0xCAC0, symBinAddr: 0x7F290, symSize: 0x150 }
  - { offsetInCU: 0x2840, offset: 0x2700F5, size: 0x8, addend: 0x0, symName: '__ZN79_$LT$syn..punctuated..Punctuated$LT$T$C$P$GT$$u20$as$u20$core..clone..Clone$GT$5clone17h22992bcace29f499E', symObjAddr: 0xCC10, symBinAddr: 0x7F3E0, symSize: 0xE0 }
  - { offsetInCU: 0x2AC7, offset: 0x27037C, size: 0x8, addend: 0x0, symName: '__ZN79_$LT$syn..punctuated..Punctuated$LT$T$C$P$GT$$u20$as$u20$core..clone..Clone$GT$5clone17h2892afd7277887d8E', symObjAddr: 0xCCF0, symBinAddr: 0x7F4C0, symSize: 0xE0 }
  - { offsetInCU: 0x2D4E, offset: 0x270603, size: 0x8, addend: 0x0, symName: '__ZN79_$LT$syn..punctuated..Punctuated$LT$T$C$P$GT$$u20$as$u20$core..clone..Clone$GT$5clone17h4f35f72a65007a75E', symObjAddr: 0xCDD0, symBinAddr: 0x7F5A0, symSize: 0xC0 }
  - { offsetInCU: 0x2F7D, offset: 0x270832, size: 0x8, addend: 0x0, symName: '__ZN79_$LT$syn..punctuated..Punctuated$LT$T$C$P$GT$$u20$as$u20$core..clone..Clone$GT$5clone17h5b87dcc40d8ae16cE', symObjAddr: 0xCE90, symBinAddr: 0x7F660, symSize: 0xE0 }
  - { offsetInCU: 0x3204, offset: 0x270AB9, size: 0x8, addend: 0x0, symName: '__ZN79_$LT$syn..punctuated..Punctuated$LT$T$C$P$GT$$u20$as$u20$core..clone..Clone$GT$5clone17h5e7cb3171b95369bE', symObjAddr: 0xCF70, symBinAddr: 0x7F740, symSize: 0xC0 }
  - { offsetInCU: 0x3432, offset: 0x270CE7, size: 0x8, addend: 0x0, symName: '__ZN79_$LT$syn..punctuated..Punctuated$LT$T$C$P$GT$$u20$as$u20$core..clone..Clone$GT$5clone17h71b1884f4462d97bE', symObjAddr: 0xD030, symBinAddr: 0x7F800, symSize: 0xE0 }
  - { offsetInCU: 0x36B9, offset: 0x270F6E, size: 0x8, addend: 0x0, symName: '__ZN79_$LT$syn..punctuated..Punctuated$LT$T$C$P$GT$$u20$as$u20$core..clone..Clone$GT$5clone17h795b6e9f94c0c96cE', symObjAddr: 0xD110, symBinAddr: 0x7F8E0, symSize: 0xE0 }
  - { offsetInCU: 0x3940, offset: 0x2711F5, size: 0x8, addend: 0x0, symName: '__ZN79_$LT$syn..punctuated..Punctuated$LT$T$C$P$GT$$u20$as$u20$core..clone..Clone$GT$5clone17h7b959744e3d5b8dbE', symObjAddr: 0xD1F0, symBinAddr: 0x7F9C0, symSize: 0x110 }
  - { offsetInCU: 0x3BFD, offset: 0x2714B2, size: 0x8, addend: 0x0, symName: '__ZN79_$LT$syn..punctuated..Punctuated$LT$T$C$P$GT$$u20$as$u20$core..clone..Clone$GT$5clone17h8ecfcac09434508eE', symObjAddr: 0xD3E0, symBinAddr: 0x7FAD0, symSize: 0x180 }
  - { offsetInCU: 0x3FCF, offset: 0x271884, size: 0x8, addend: 0x0, symName: '__ZN79_$LT$syn..punctuated..Punctuated$LT$T$C$P$GT$$u20$as$u20$core..clone..Clone$GT$5clone17ha7ab2dd954c80b81E', symObjAddr: 0xD560, symBinAddr: 0x7FC50, symSize: 0xE0 }
  - { offsetInCU: 0x4255, offset: 0x271B0A, size: 0x8, addend: 0x0, symName: '__ZN79_$LT$syn..punctuated..Punctuated$LT$T$C$P$GT$$u20$as$u20$core..clone..Clone$GT$5clone17hc80da0ae5e8a9a5aE', symObjAddr: 0xD640, symBinAddr: 0x7FD30, symSize: 0x110 }
  - { offsetInCU: 0x45BE, offset: 0x271E73, size: 0x8, addend: 0x0, symName: '__ZN77_$LT$syn..punctuated..Punctuated$LT$T$C$P$GT$$u20$as$u20$core..fmt..Debug$GT$3fmt17h2778f50863a7268fE', symObjAddr: 0xE610, symBinAddr: 0x7FE40, symSize: 0xC0 }
  - { offsetInCU: 0x4718, offset: 0x271FCD, size: 0x8, addend: 0x0, symName: '__ZN77_$LT$syn..punctuated..Punctuated$LT$T$C$P$GT$$u20$as$u20$core..fmt..Debug$GT$3fmt17h2e7fc9dc04941466E', symObjAddr: 0xE6D0, symBinAddr: 0x7FF00, symSize: 0xC0 }
  - { offsetInCU: 0x4872, offset: 0x272127, size: 0x8, addend: 0x0, symName: '__ZN77_$LT$syn..punctuated..Punctuated$LT$T$C$P$GT$$u20$as$u20$core..fmt..Debug$GT$3fmt17h326886298395da63E', symObjAddr: 0xE790, symBinAddr: 0x7FFC0, symSize: 0xC0 }
  - { offsetInCU: 0x49CC, offset: 0x272281, size: 0x8, addend: 0x0, symName: '__ZN77_$LT$syn..punctuated..Punctuated$LT$T$C$P$GT$$u20$as$u20$core..fmt..Debug$GT$3fmt17h40b87cc84d8d4b03E', symObjAddr: 0xE850, symBinAddr: 0x80080, symSize: 0xC0 }
  - { offsetInCU: 0x4B26, offset: 0x2723DB, size: 0x8, addend: 0x0, symName: '__ZN77_$LT$syn..punctuated..Punctuated$LT$T$C$P$GT$$u20$as$u20$core..fmt..Debug$GT$3fmt17h4ab7a98607251a66E', symObjAddr: 0xE910, symBinAddr: 0x80140, symSize: 0xC0 }
  - { offsetInCU: 0x4C80, offset: 0x272535, size: 0x8, addend: 0x0, symName: '__ZN77_$LT$syn..punctuated..Punctuated$LT$T$C$P$GT$$u20$as$u20$core..fmt..Debug$GT$3fmt17h7d6a6ad3441c0b06E', symObjAddr: 0xE9D0, symBinAddr: 0x80200, symSize: 0xC0 }
  - { offsetInCU: 0x4DDA, offset: 0x27268F, size: 0x8, addend: 0x0, symName: '__ZN77_$LT$syn..punctuated..Punctuated$LT$T$C$P$GT$$u20$as$u20$core..fmt..Debug$GT$3fmt17h9c71caf0c7f6394eE', symObjAddr: 0xEA90, symBinAddr: 0x802C0, symSize: 0xC0 }
  - { offsetInCU: 0x4F34, offset: 0x2727E9, size: 0x8, addend: 0x0, symName: '__ZN77_$LT$syn..punctuated..Punctuated$LT$T$C$P$GT$$u20$as$u20$core..fmt..Debug$GT$3fmt17h9ffca6260629d74dE', symObjAddr: 0xEB50, symBinAddr: 0x80380, symSize: 0xC0 }
  - { offsetInCU: 0x508E, offset: 0x272943, size: 0x8, addend: 0x0, symName: '__ZN77_$LT$syn..punctuated..Punctuated$LT$T$C$P$GT$$u20$as$u20$core..fmt..Debug$GT$3fmt17hb97860222c0ffca8E', symObjAddr: 0xEC10, symBinAddr: 0x80440, symSize: 0xC0 }
  - { offsetInCU: 0x51E8, offset: 0x272A9D, size: 0x8, addend: 0x0, symName: '__ZN77_$LT$syn..punctuated..Punctuated$LT$T$C$P$GT$$u20$as$u20$core..fmt..Debug$GT$3fmt17hbcf29ebe93aae909E', symObjAddr: 0xECD0, symBinAddr: 0x80500, symSize: 0xC0 }
  - { offsetInCU: 0x5342, offset: 0x272BF7, size: 0x8, addend: 0x0, symName: '__ZN77_$LT$syn..punctuated..Punctuated$LT$T$C$P$GT$$u20$as$u20$core..fmt..Debug$GT$3fmt17hc334d04b3b56370bE', symObjAddr: 0xED90, symBinAddr: 0x805C0, symSize: 0xC0 }
  - { offsetInCU: 0x549C, offset: 0x272D51, size: 0x8, addend: 0x0, symName: '__ZN77_$LT$syn..punctuated..Punctuated$LT$T$C$P$GT$$u20$as$u20$core..fmt..Debug$GT$3fmt17hd6892887395afd44E', symObjAddr: 0xEE50, symBinAddr: 0x80680, symSize: 0xC0 }
  - { offsetInCU: 0x55F6, offset: 0x272EAB, size: 0x8, addend: 0x0, symName: '__ZN77_$LT$syn..punctuated..Punctuated$LT$T$C$P$GT$$u20$as$u20$core..fmt..Debug$GT$3fmt17hde47e5f4e4543529E', symObjAddr: 0xEF10, symBinAddr: 0x80740, symSize: 0xC0 }
  - { offsetInCU: 0x5750, offset: 0x273005, size: 0x8, addend: 0x0, symName: '__ZN77_$LT$syn..punctuated..Punctuated$LT$T$C$P$GT$$u20$as$u20$core..fmt..Debug$GT$3fmt17heb6f2340dfa103b7E', symObjAddr: 0xEFD0, symBinAddr: 0x80800, symSize: 0xC0 }
  - { offsetInCU: 0x58AA, offset: 0x27315F, size: 0x8, addend: 0x0, symName: '__ZN77_$LT$syn..punctuated..Punctuated$LT$T$C$P$GT$$u20$as$u20$core..fmt..Debug$GT$3fmt17hec9054ab2048a388E', symObjAddr: 0xF090, symBinAddr: 0x808C0, symSize: 0xC0 }
  - { offsetInCU: 0x5A04, offset: 0x2732B9, size: 0x8, addend: 0x0, symName: '__ZN77_$LT$syn..punctuated..Punctuated$LT$T$C$P$GT$$u20$as$u20$core..fmt..Debug$GT$3fmt17hef18100a7a231e8fE', symObjAddr: 0xF150, symBinAddr: 0x80980, symSize: 0xC0 }
  - { offsetInCU: 0x5B5E, offset: 0x273413, size: 0x8, addend: 0x0, symName: '__ZN77_$LT$syn..punctuated..Punctuated$LT$T$C$P$GT$$u20$as$u20$core..fmt..Debug$GT$3fmt17hfa0e345197f14b06E', symObjAddr: 0xF210, symBinAddr: 0x80A40, symSize: 0xC0 }
  - { offsetInCU: 0x5DDC, offset: 0x273691, size: 0x8, addend: 0x0, symName: '__ZN138_$LT$syn..punctuated..Punctuated$LT$T$C$P$GT$$u20$as$u20$core..iter..traits..collect..Extend$LT$syn..punctuated..Pair$LT$T$C$P$GT$$GT$$GT$6extend17hd3a7828e12a2fa09E', symObjAddr: 0xF2D0, symBinAddr: 0x80B00, symSize: 0x3A0 }
  - { offsetInCU: 0x6332, offset: 0x273BE7, size: 0x8, addend: 0x0, symName: '__ZN102_$LT$syn..punctuated..Punctuated$LT$T$C$P$GT$$u20$as$u20$core..iter..traits..collect..IntoIterator$GT$9into_iter17h9fd0831bc615f074E', symObjAddr: 0xF940, symBinAddr: 0x80EA0, symSize: 0x2C0 }
  - { offsetInCU: 0x7A2E, offset: 0x2752E3, size: 0x8, addend: 0x0, symName: '__ZN57_$LT$I$u20$as$u20$syn..punctuated..IterTrait$LT$T$GT$$GT$9clone_box17hbe556fca14490948E.llvm.991277207215265740', symObjAddr: 0x106C0, symBinAddr: 0x81250, symSize: 0x60 }
  - { offsetInCU: 0x7C41, offset: 0x2754F6, size: 0x8, addend: 0x0, symName: '__ZN97_$LT$syn..punctuated..Punctuated$LT$T$C$P$GT$$u20$as$u20$core..ops..index..Index$LT$usize$GT$$GT$5index17h20cbc4df05d7c9eaE', symObjAddr: 0x10780, symBinAddr: 0x812B0, symSize: 0x50 }
  - { offsetInCU: 0x7DEB, offset: 0x2756A0, size: 0x8, addend: 0x0, symName: '__ZN3syn10punctuated8printing91_$LT$impl$u20$quote..to_tokens..ToTokens$u20$for$u20$syn..punctuated..Pair$LT$T$C$P$GT$$GT$9to_tokens17h6dc2c5660e354e29E', symObjAddr: 0x110C0, symBinAddr: 0x815D0, symSize: 0xD0 }
  - { offsetInCU: 0x7FB3, offset: 0x275868, size: 0x8, addend: 0x0, symName: '__ZN3syn10punctuated8printing91_$LT$impl$u20$quote..to_tokens..ToTokens$u20$for$u20$syn..punctuated..Pair$LT$T$C$P$GT$$GT$9to_tokens17hc2518142b17a3489E', symObjAddr: 0x11360, symBinAddr: 0x816A0, symSize: 0xF3 }
  - { offsetInCU: 0x819A, offset: 0x275A4F, size: 0x8, addend: 0x0, symName: '__ZN3syn10punctuated8printing97_$LT$impl$u20$quote..to_tokens..ToTokens$u20$for$u20$syn..punctuated..Punctuated$LT$T$C$P$GT$$GT$9to_tokens17h060d1d80f541d446E', symObjAddr: 0x10820, symBinAddr: 0x81300, symSize: 0x150 }
  - { offsetInCU: 0x86DF, offset: 0x275F94, size: 0x8, addend: 0x0, symName: '__ZN3syn10punctuated8printing97_$LT$impl$u20$quote..to_tokens..ToTokens$u20$for$u20$syn..punctuated..Punctuated$LT$T$C$P$GT$$GT$9to_tokens17h7327b9d2fa65c2baE', symObjAddr: 0x10B90, symBinAddr: 0x81450, symSize: 0x180 }
  - { offsetInCU: 0x101D7, offset: 0x27DA8C, size: 0x8, addend: 0x0, symName: '__ZN4core3ptr100drop_in_place$LT$alloc..vec..Vec$LT$$LP$syn..generics..TypeParamBound$C$syn..token..Plus$RP$$GT$$GT$17hea181150e4b37806E.llvm.991277207215265740', symObjAddr: 0x0, symBinAddr: 0x73910, symSize: 0xD0 }
  - { offsetInCU: 0x104B6, offset: 0x27DD6B, size: 0x8, addend: 0x0, symName: '__ZN4core3ptr100drop_in_place$LT$core..option..Option$LT$alloc..boxed..Box$LT$syn..path..GenericArgument$GT$$GT$$GT$17h3a7c44b9e57fe410E.llvm.991277207215265740', symObjAddr: 0xD0, symBinAddr: 0x739E0, symSize: 0x50 }
  - { offsetInCU: 0x106A2, offset: 0x27DF57, size: 0x8, addend: 0x0, symName: '__ZN4core3ptr100drop_in_place$LT$syn..punctuated..Punctuated$LT$syn..path..PathSegment$C$syn..token..PathSep$GT$$GT$17he41ef64147139591E', symObjAddr: 0x120, symBinAddr: 0x73A30, symSize: 0x150 }
  - { offsetInCU: 0x10C06, offset: 0x27E4BB, size: 0x8, addend: 0x0, symName: '__ZN4core3ptr101drop_in_place$LT$alloc..vec..Vec$LT$$LP$syn..generics..WherePredicate$C$syn..token..Comma$RP$$GT$$GT$17h480aa68a207f67a8E.llvm.991277207215265740', symObjAddr: 0x270, symBinAddr: 0x73B80, symSize: 0x60 }
  - { offsetInCU: 0x10EA9, offset: 0x27E75E, size: 0x8, addend: 0x0, symName: '__ZN4core3ptr102drop_in_place$LT$syn..punctuated..Punctuated$LT$syn..path..GenericArgument$C$syn..token..Comma$GT$$GT$17h8b1978399cfff48bE', symObjAddr: 0x2D0, symBinAddr: 0x73BE0, symSize: 0xF0 }
  - { offsetInCU: 0x111C9, offset: 0x27EA7E, size: 0x8, addend: 0x0, symName: '__ZN4core3ptr103drop_in_place$LT$core..option..Option$LT$alloc..boxed..Box$LT$syn..generics..TypeParamBound$GT$$GT$$GT$17hb14e4384a768542bE.llvm.991277207215265740', symObjAddr: 0x3C0, symBinAddr: 0x73CD0, symSize: 0x50 }
  - { offsetInCU: 0x113D4, offset: 0x27EC89, size: 0x8, addend: 0x0, symName: '__ZN4core3ptr103drop_in_place$LT$syn..punctuated..Punctuated$LT$syn..generics..GenericParam$C$syn..token..Comma$GT$$GT$17h0c6077a988036760E.llvm.991277207215265740', symObjAddr: 0x410, symBinAddr: 0x73D20, symSize: 0xF0 }
  - { offsetInCU: 0x1192C, offset: 0x27F1E1, size: 0x8, addend: 0x0, symName: '__ZN4core3ptr104drop_in_place$LT$syn..punctuated..Punctuated$LT$syn..generics..TypeParamBound$C$syn..token..Plus$GT$$GT$17h724e4d9d1d65061aE.llvm.991277207215265740', symObjAddr: 0x500, symBinAddr: 0x73E10, symSize: 0x190 }
  - { offsetInCU: 0x11F4F, offset: 0x27F804, size: 0x8, addend: 0x0, symName: '__ZN4core3ptr126drop_in_place$LT$core..option..Option$LT$$LP$syn..token..And$C$core..option..Option$LT$syn..lifetime..Lifetime$GT$$RP$$GT$$GT$17h45c5d73e12cdf6f0E', symObjAddr: 0x690, symBinAddr: 0x73FA0, symSize: 0x30 }
  - { offsetInCU: 0x12162, offset: 0x27FA17, size: 0x8, addend: 0x0, symName: '__ZN4core3ptr34drop_in_place$LT$syn..lit..Lit$GT$17hd64dde89a262341dE', symObjAddr: 0x6C0, symBinAddr: 0x73FD0, symSize: 0x120 }
  - { offsetInCU: 0x1266F, offset: 0x27FF24, size: 0x8, addend: 0x0, symName: '__ZN4core3ptr34drop_in_place$LT$syn..pat..Pat$GT$17hf88887878261d63cE.llvm.991277207215265740', symObjAddr: 0x7E0, symBinAddr: 0x740F0, symSize: 0x1100 }
  - { offsetInCU: 0x16CE8, offset: 0x28459D, size: 0x8, addend: 0x0, symName: '__ZN4core3ptr34drop_in_place$LT$syn..ty..Type$GT$17ha80dd29b0f9d4a3fE.llvm.991277207215265740', symObjAddr: 0x18E0, symBinAddr: 0x751F0, symSize: 0x520 }
  - { offsetInCU: 0x1835D, offset: 0x285C12, size: 0x8, addend: 0x0, symName: '__ZN4core3ptr36drop_in_place$LT$syn..expr..Expr$GT$17h10f573b40ddd212cE.llvm.991277207215265740', symObjAddr: 0x1E00, symBinAddr: 0x75710, symSize: 0x2830 }
  - { offsetInCU: 0x22460, offset: 0x28FD15, size: 0x8, addend: 0x0, symName: '__ZN4core3ptr36drop_in_place$LT$syn..mac..Macro$GT$17hc3b30a7a8a34cc2dE', symObjAddr: 0x4630, symBinAddr: 0x77F40, symSize: 0x40 }
  - { offsetInCU: 0x2249A, offset: 0x28FD4F, size: 0x8, addend: 0x0, symName: '__ZN4core3ptr36drop_in_place$LT$syn..path..Path$GT$17h75c74a97d5f0a03bE.llvm.991277207215265740', symObjAddr: 0x4670, symBinAddr: 0x77F80, symSize: 0x110 }
  - { offsetInCU: 0x228BC, offset: 0x290171, size: 0x8, addend: 0x0, symName: '__ZN4core3ptr37drop_in_place$LT$syn..data..Field$GT$17hb03070569ab32babE.llvm.991277207215265740', symObjAddr: 0x4780, symBinAddr: 0x78090, symSize: 0x140 }
  - { offsetInCU: 0x22D10, offset: 0x2905C5, size: 0x8, addend: 0x0, symName: '__ZN4core3ptr37drop_in_place$LT$syn..item..FnArg$GT$17h470fdeee5cba5e3aE.llvm.991277207215265740', symObjAddr: 0x48C0, symBinAddr: 0x781D0, symSize: 0x230 }
  - { offsetInCU: 0x2362A, offset: 0x290EDF, size: 0x8, addend: 0x0, symName: '__ZN4core3ptr37drop_in_place$LT$syn..stmt..Block$GT$17h6fc3254d5688f2c3E', symObjAddr: 0x4AF0, symBinAddr: 0x78400, symSize: 0xD0 }
  - { offsetInCU: 0x23901, offset: 0x2911B6, size: 0x8, addend: 0x0, symName: '__ZN4core3ptr38drop_in_place$LT$syn..expr..Member$GT$17h6b0cf84594ce6bceE.llvm.991277207215265740', symObjAddr: 0x4BC0, symBinAddr: 0x784D0, symSize: 0x30 }
  - { offsetInCU: 0x239FD, offset: 0x2912B2, size: 0x8, addend: 0x0, symName: '__ZN4core3ptr39drop_in_place$LT$proc_macro2..Ident$GT$17ha28fef9769e267d9E.llvm.991277207215265740', symObjAddr: 0x4BF0, symBinAddr: 0x78500, symSize: 0x30 }
  - { offsetInCU: 0x23B37, offset: 0x2913EC, size: 0x8, addend: 0x0, symName: '__ZN4core3ptr39drop_in_place$LT$syn..data..Variant$GT$17h92766dd8637b4069E', symObjAddr: 0x4C20, symBinAddr: 0x78530, symSize: 0x150 }
  - { offsetInCU: 0x240DE, offset: 0x291993, size: 0x8, addend: 0x0, symName: '__ZN4core3ptr39drop_in_place$LT$syn..item..UseTree$GT$17h7288572c631f954aE.llvm.991277207215265740', symObjAddr: 0x4D70, symBinAddr: 0x78680, symSize: 0x1E0 }
  - { offsetInCU: 0x2482E, offset: 0x2920E3, size: 0x8, addend: 0x0, symName: '__ZN4core3ptr39drop_in_place$LT$syn..pat..FieldPat$GT$17he93d151251e1075bE.llvm.991277207215265740', symObjAddr: 0x4F50, symBinAddr: 0x78860, symSize: 0x120 }
  - { offsetInCU: 0x24DC8, offset: 0x29267D, size: 0x8, addend: 0x0, symName: '__ZN4core3ptr39drop_in_place$LT$syn..ty..BareFnArg$GT$17h06523caf0a2ebe3aE.llvm.991277207215265740', symObjAddr: 0x5070, symBinAddr: 0x78980, symSize: 0x110 }
  - { offsetInCU: 0x251EB, offset: 0x292AA0, size: 0x8, addend: 0x0, symName: '__ZN4core3ptr40drop_in_place$LT$syn..ty..ReturnType$GT$17h035a612e322b6510E', symObjAddr: 0x5180, symBinAddr: 0x78A90, symSize: 0x50 }
  - { offsetInCU: 0x2535B, offset: 0x292C10, size: 0x8, addend: 0x0, symName: '__ZN4core3ptr41drop_in_place$LT$syn..expr..ExprConst$GT$17hbfe19d5d621e6836E', symObjAddr: 0x51D0, symBinAddr: 0x78AE0, symSize: 0x180 }
  - { offsetInCU: 0x25948, offset: 0x2931FD, size: 0x8, addend: 0x0, symName: '__ZN4core3ptr42drop_in_place$LT$syn..expr..FieldValue$GT$17heed77b5eea8beaa5E.llvm.991277207215265740', symObjAddr: 0x5350, symBinAddr: 0x78C60, symSize: 0x110 }
  - { offsetInCU: 0x25D89, offset: 0x29363E, size: 0x8, addend: 0x0, symName: '__ZN4core3ptr43drop_in_place$LT$syn..path..PathSegment$GT$17h903332e979944cf4E.llvm.991277207215265740', symObjAddr: 0x5460, symBinAddr: 0x78D70, symSize: 0x190 }
  - { offsetInCU: 0x262ED, offset: 0x293BA2, size: 0x8, addend: 0x0, symName: '__ZN4core3ptr44drop_in_place$LT$syn..lifetime..Lifetime$GT$17he37fa474f03de7b1E.llvm.991277207215265740', symObjAddr: 0x55F0, symBinAddr: 0x78F00, symSize: 0x30 }
  - { offsetInCU: 0x2651F, offset: 0x293DD4, size: 0x8, addend: 0x0, symName: '__ZN4core3ptr45drop_in_place$LT$proc_macro2..TokenStream$GT$17h76e8e68015f4924dE.llvm.991277207215265740', symObjAddr: 0x5620, symBinAddr: 0x78F30, symSize: 0x140 }
  - { offsetInCU: 0x269B9, offset: 0x29426E, size: 0x8, addend: 0x0, symName: '__ZN4core3ptr45drop_in_place$LT$syn..generics..TypeParam$GT$17h188a459c1380ac75E.llvm.991277207215265740', symObjAddr: 0x5760, symBinAddr: 0x79070, symSize: 0x230 }
  - { offsetInCU: 0x2722E, offset: 0x294AE3, size: 0x8, addend: 0x0, symName: '__ZN4core3ptr46drop_in_place$LT$syn..generics..ConstParam$GT$17h7a9b900b2b88bfcdE.llvm.991277207215265740', symObjAddr: 0x5990, symBinAddr: 0x792A0, symSize: 0x150 }
  - { offsetInCU: 0x276AF, offset: 0x294F64, size: 0x8, addend: 0x0, symName: '__ZN4core3ptr47drop_in_place$LT$syn..path..GenericArgument$GT$17h593f06d6ca9a94d2E.llvm.991277207215265740', symObjAddr: 0x5AE0, symBinAddr: 0x793F0, symSize: 0x450 }
  - { offsetInCU: 0x28425, offset: 0x295CDA, size: 0x8, addend: 0x0, symName: '__ZN4core3ptr48drop_in_place$LT$syn..generics..GenericParam$GT$17hd6859d95c1b7c168E.llvm.991277207215265740', symObjAddr: 0x5F30, symBinAddr: 0x79840, symSize: 0x40 }
  - { offsetInCU: 0x28442, offset: 0x295CF7, size: 0x8, addend: 0x0, symName: '__ZN4core3ptr49drop_in_place$LT$syn..generics..LifetimeParam$GT$17h3a8835ab294bfd16E.llvm.991277207215265740', symObjAddr: 0x5F70, symBinAddr: 0x79880, symSize: 0xF0 }
  - { offsetInCU: 0x28897, offset: 0x29614C, size: 0x8, addend: 0x0, symName: '__ZN4core3ptr49drop_in_place$LT$syn..restriction..Visibility$GT$17h3e52b998838defb1E', symObjAddr: 0x6060, symBinAddr: 0x79970, symSize: 0x150 }
  - { offsetInCU: 0x28E00, offset: 0x2966B5, size: 0x8, addend: 0x0, symName: '__ZN4core3ptr50drop_in_place$LT$syn..generics..TypeParamBound$GT$17h81b4325b5900604dE.llvm.991277207215265740', symObjAddr: 0x61B0, symBinAddr: 0x79AC0, symSize: 0x1C0 }
  - { offsetInCU: 0x2939B, offset: 0x296C50, size: 0x8, addend: 0x0, symName: '__ZN4core3ptr50drop_in_place$LT$syn..generics..WherePredicate$GT$17h1dcd41fbf166681cE.llvm.991277207215265740', symObjAddr: 0x6370, symBinAddr: 0x79C80, symSize: 0xA0 }
  - { offsetInCU: 0x2953F, offset: 0x296DF4, size: 0x8, addend: 0x0, symName: '__ZN4core3ptr58drop_in_place$LT$alloc..vec..Vec$LT$syn..expr..Arm$GT$$GT$17hff9224aadf2233b8E', symObjAddr: 0x6410, symBinAddr: 0x79D20, symSize: 0xD0 }
  - { offsetInCU: 0x297FF, offset: 0x2970B4, size: 0x8, addend: 0x0, symName: '__ZN4core3ptr59drop_in_place$LT$alloc..boxed..Box$LT$syn..pat..Pat$GT$$GT$17h622b0c1db21c0742E.llvm.991277207215265740', symObjAddr: 0x64E0, symBinAddr: 0x79DF0, symSize: 0x50 }
  - { offsetInCU: 0x29958, offset: 0x29720D, size: 0x8, addend: 0x0, symName: '__ZN4core3ptr59drop_in_place$LT$alloc..boxed..Box$LT$syn..ty..Type$GT$$GT$17hde45fa887dd8b605E.llvm.991277207215265740', symObjAddr: 0x6530, symBinAddr: 0x79E40, symSize: 0x50 }
  - { offsetInCU: 0x29AB1, offset: 0x297366, size: 0x8, addend: 0x0, symName: '__ZN4core3ptr61drop_in_place$LT$alloc..boxed..Box$LT$syn..expr..Expr$GT$$GT$17hbb42293869113942E.llvm.991277207215265740', symObjAddr: 0x6650, symBinAddr: 0x79E90, symSize: 0x50 }
  - { offsetInCU: 0x29C86, offset: 0x29753B, size: 0x8, addend: 0x0, symName: '__ZN4core3ptr61drop_in_place$LT$syn..path..ParenthesizedGenericArguments$GT$17h6b1731382637937fE.llvm.991277207215265740', symObjAddr: 0x66A0, symBinAddr: 0x79EE0, symSize: 0x170 }
  - { offsetInCU: 0x2A28F, offset: 0x297B44, size: 0x8, addend: 0x0, symName: '__ZN4core3ptr62drop_in_place$LT$alloc..boxed..Box$LT$syn..data..Field$GT$$GT$17hd46c7cc6f292f643E', symObjAddr: 0x6810, symBinAddr: 0x7A050, symSize: 0x50 }
  - { offsetInCU: 0x2A3E8, offset: 0x297C9D, size: 0x8, addend: 0x0, symName: '__ZN4core3ptr62drop_in_place$LT$alloc..boxed..Box$LT$syn..item..FnArg$GT$$GT$17haeb55dec21588d58E', symObjAddr: 0x6860, symBinAddr: 0x7A0A0, symSize: 0x50 }
  - { offsetInCU: 0x2A554, offset: 0x297E09, size: 0x8, addend: 0x0, symName: '__ZN4core3ptr63drop_in_place$LT$alloc..boxed..Box$LT$syn..lit..LitRepr$GT$$GT$17h6e3a82ea4de7b84cE', symObjAddr: 0x68B0, symBinAddr: 0x7A0F0, symSize: 0x60 }
  - { offsetInCU: 0x2A81D, offset: 0x2980D2, size: 0x8, addend: 0x0, symName: '__ZN4core3ptr64drop_in_place$LT$alloc..boxed..Box$LT$syn..data..Variant$GT$$GT$17h9ea21bed4984fdbcE', symObjAddr: 0x6910, symBinAddr: 0x7A150, symSize: 0x50 }
  - { offsetInCU: 0x2A976, offset: 0x29822B, size: 0x8, addend: 0x0, symName: '__ZN4core3ptr64drop_in_place$LT$alloc..boxed..Box$LT$syn..item..UseTree$GT$$GT$17he4d7024582150632E', symObjAddr: 0x6960, symBinAddr: 0x7A1A0, symSize: 0x50 }
  - { offsetInCU: 0x2AAEE, offset: 0x2983A3, size: 0x8, addend: 0x0, symName: '__ZN4core3ptr64drop_in_place$LT$alloc..boxed..Box$LT$syn..pat..FieldPat$GT$$GT$17hbf8f4867d84bd25dE', symObjAddr: 0x69B0, symBinAddr: 0x7A1F0, symSize: 0x140 }
  - { offsetInCU: 0x2B1B1, offset: 0x298A66, size: 0x8, addend: 0x0, symName: '__ZN4core3ptr64drop_in_place$LT$alloc..boxed..Box$LT$syn..ty..BareFnArg$GT$$GT$17h6be6354eb1d1364dE', symObjAddr: 0x6AF0, symBinAddr: 0x7A330, symSize: 0x140 }
  - { offsetInCU: 0x2B73A, offset: 0x298FEF, size: 0x8, addend: 0x0, symName: '__ZN4core3ptr65drop_in_place$LT$alloc..vec..Vec$LT$proc_macro..TokenTree$GT$$GT$17h8abd81f8596dbc59E.llvm.991277207215265740', symObjAddr: 0x6C30, symBinAddr: 0x7A470, symSize: 0x110 }
  - { offsetInCU: 0x2BB32, offset: 0x2993E7, size: 0x8, addend: 0x0, symName: '__ZN4core3ptr65drop_in_place$LT$core..option..Option$LT$syn..expr..Label$GT$$GT$17hac599686b33ef364E', symObjAddr: 0x6D40, symBinAddr: 0x7A580, symSize: 0x30 }
  - { offsetInCU: 0x2BC6C, offset: 0x299521, size: 0x8, addend: 0x0, symName: '__ZN4core3ptr66drop_in_place$LT$core..option..Option$LT$syn..pat..PatRest$GT$$GT$17hd5bb3bc28aa78ac1E', symObjAddr: 0x6D70, symBinAddr: 0x7A5B0, symSize: 0xE0 }
  - { offsetInCU: 0x2BF94, offset: 0x299849, size: 0x8, addend: 0x0, symName: '__ZN4core3ptr67drop_in_place$LT$alloc..boxed..Box$LT$syn..expr..FieldValue$GT$$GT$17hbbcf67a9d5e9863cE', symObjAddr: 0x6E50, symBinAddr: 0x7A690, symSize: 0x140 }
  - { offsetInCU: 0x2C4FD, offset: 0x299DB2, size: 0x8, addend: 0x0, symName: '__ZN4core3ptr68drop_in_place$LT$alloc..boxed..Box$LT$syn..path..PathSegment$GT$$GT$17h99aaf90b3262bc1eE', symObjAddr: 0x6F90, symBinAddr: 0x7A7D0, symSize: 0x50 }
  - { offsetInCU: 0x2C656, offset: 0x299F0B, size: 0x8, addend: 0x0, symName: '__ZN4core3ptr69drop_in_place$LT$alloc..boxed..Box$LT$syn..lifetime..Lifetime$GT$$GT$17hb9a813bc8517f5c9E', symObjAddr: 0x6FE0, symBinAddr: 0x7A820, symSize: 0x50 }
  - { offsetInCU: 0x2C80C, offset: 0x29A0C1, size: 0x8, addend: 0x0, symName: '__ZN4core3ptr70drop_in_place$LT$core..option..Option$LT$syn..ty..BareVariadic$GT$$GT$17h79a19250e9f043b1E', symObjAddr: 0x7030, symBinAddr: 0x7A870, symSize: 0x100 }
  - { offsetInCU: 0x2CC77, offset: 0x29A52C, size: 0x8, addend: 0x0, symName: '__ZN4core3ptr72drop_in_place$LT$alloc..boxed..Box$LT$syn..path..GenericArgument$GT$$GT$17hfd308d374af4273dE', symObjAddr: 0x7130, symBinAddr: 0x7A970, symSize: 0x2B0 }
  - { offsetInCU: 0x2D688, offset: 0x29AF3D, size: 0x8, addend: 0x0, symName: '__ZN4core3ptr73drop_in_place$LT$alloc..boxed..Box$LT$syn..generics..GenericParam$GT$$GT$17ha26d5d145af4b203E.llvm.991277207215265740', symObjAddr: 0x73E0, symBinAddr: 0x7AC20, symSize: 0x80 }
  - { offsetInCU: 0x2D81D, offset: 0x29B0D2, size: 0x8, addend: 0x0, symName: '__ZN4core3ptr73drop_in_place$LT$alloc..vec..Vec$LT$syn..generics..TypeParamBound$GT$$GT$17h559d22d805be3033E.llvm.991277207215265740', symObjAddr: 0x7460, symBinAddr: 0x7ACA0, symSize: 0xC0 }
  - { offsetInCU: 0x2DAEE, offset: 0x29B3A3, size: 0x8, addend: 0x0, symName: '__ZN4core3ptr75drop_in_place$LT$alloc..boxed..Box$LT$syn..generics..TypeParamBound$GT$$GT$17h129a4e927e5eb81bE', symObjAddr: 0x7520, symBinAddr: 0x7AD60, symSize: 0xC0 }
  - { offsetInCU: 0x2DDE5, offset: 0x29B69A, size: 0x8, addend: 0x0, symName: '__ZN4core3ptr75drop_in_place$LT$alloc..boxed..Box$LT$syn..generics..WherePredicate$GT$$GT$17h9bdeede2dbadbeb6E', symObjAddr: 0x75E0, symBinAddr: 0x7AE20, symSize: 0x50 }
  - { offsetInCU: 0x2DF51, offset: 0x29B806, size: 0x8, addend: 0x0, symName: '__ZN4core3ptr76drop_in_place$LT$$LP$syn..generics..GenericParam$C$syn..token..Comma$RP$$GT$17hfa938bd7ff9e78c2E.llvm.991277207215265740', symObjAddr: 0x7630, symBinAddr: 0x7AE70, symSize: 0x40 }
  - { offsetInCU: 0x2DFBF, offset: 0x29B874, size: 0x8, addend: 0x0, symName: '__ZN4core3ptr82drop_in_place$LT$alloc..vec..Vec$LT$$LP$syn..pat..Pat$C$syn..token..Or$RP$$GT$$GT$17h1f0f428d7b2d8011E.llvm.991277207215265740', symObjAddr: 0x7740, symBinAddr: 0x7AEB0, symSize: 0x0 }
  - { offsetInCU: 0x2E2B7, offset: 0x29BB6C, size: 0x8, addend: 0x0, symName: '__ZN4core3ptr85drop_in_place$LT$alloc..vec..Vec$LT$$LP$syn..ty..Type$C$syn..token..Comma$RP$$GT$$GT$17h0cf4844ea7ad9568E.llvm.991277207215265740', symObjAddr: 0x7810, symBinAddr: 0x7AF80, symSize: 0xD0 }
  - { offsetInCU: 0x2E5E9, offset: 0x29BE9E, size: 0x8, addend: 0x0, symName: '__ZN4core3ptr86drop_in_place$LT$syn..punctuated..Punctuated$LT$syn..pat..Pat$C$syn..token..Or$GT$$GT$17h9cc6b5f7b6d3a555E', symObjAddr: 0x78E0, symBinAddr: 0x7B050, symSize: 0x120 }
  - { offsetInCU: 0x2EA83, offset: 0x29C338, size: 0x8, addend: 0x0, symName: '__ZN4core3ptr87drop_in_place$LT$alloc..vec..Vec$LT$$LP$syn..expr..Expr$C$syn..token..Comma$RP$$GT$$GT$17hd1036fba4025974bE.llvm.991277207215265740', symObjAddr: 0x7A00, symBinAddr: 0x7B170, symSize: 0xD0 }
  - { offsetInCU: 0x2ED77, offset: 0x29C62C, size: 0x8, addend: 0x0, symName: '__ZN4core3ptr87drop_in_place$LT$core..option..Option$LT$alloc..boxed..Box$LT$syn..pat..Pat$GT$$GT$$GT$17h51cd48973d96c411E', symObjAddr: 0x7AD0, symBinAddr: 0x7B240, symSize: 0x50 }
  - { offsetInCU: 0x2EEE7, offset: 0x29C79C, size: 0x8, addend: 0x0, symName: '__ZN4core3ptr87drop_in_place$LT$core..option..Option$LT$alloc..boxed..Box$LT$syn..ty..Type$GT$$GT$$GT$17h103a25a4a7d7374eE.llvm.991277207215265740', symObjAddr: 0x7B20, symBinAddr: 0x7B290, symSize: 0x50 }
  - { offsetInCU: 0x2F076, offset: 0x29C92B, size: 0x8, addend: 0x0, symName: '__ZN4core3ptr88drop_in_place$LT$alloc..vec..Vec$LT$$LP$syn..data..Field$C$syn..token..Comma$RP$$GT$$GT$17h066c67d26ce3e154E.llvm.991277207215265740', symObjAddr: 0x7B70, symBinAddr: 0x7B2E0, symSize: 0xD0 }
  - { offsetInCU: 0x2F38D, offset: 0x29CC42, size: 0x8, addend: 0x0, symName: '__ZN4core3ptr88drop_in_place$LT$alloc..vec..Vec$LT$$LP$syn..item..FnArg$C$syn..token..Comma$RP$$GT$$GT$17he8d49cd20c575884E.llvm.991277207215265740', symObjAddr: 0x7C40, symBinAddr: 0x7B3B0, symSize: 0xD0 }
  - { offsetInCU: 0x2F68C, offset: 0x29CF41, size: 0x8, addend: 0x0, symName: '__ZN4core3ptr89drop_in_place$LT$core..option..Option$LT$alloc..boxed..Box$LT$syn..expr..Expr$GT$$GT$$GT$17h9e02509cb2345d44E', symObjAddr: 0x7D10, symBinAddr: 0x7B480, symSize: 0x50 }
  - { offsetInCU: 0x2F83A, offset: 0x29D0EF, size: 0x8, addend: 0x0, symName: '__ZN4core3ptr89drop_in_place$LT$syn..punctuated..Punctuated$LT$syn..pat..Pat$C$syn..token..Comma$GT$$GT$17hd3a83c36827f210aE', symObjAddr: 0x7D60, symBinAddr: 0x7B4D0, symSize: 0x120 }
  - { offsetInCU: 0x2FCCC, offset: 0x29D581, size: 0x8, addend: 0x0, symName: '__ZN4core3ptr89drop_in_place$LT$syn..punctuated..Punctuated$LT$syn..ty..Type$C$syn..token..Comma$GT$$GT$17he030c4b7f24a5848E.llvm.991277207215265740', symObjAddr: 0x7E80, symBinAddr: 0x7B5F0, symSize: 0x120 }
  - { offsetInCU: 0x30166, offset: 0x29DA1B, size: 0x8, addend: 0x0, symName: '__ZN4core3ptr90drop_in_place$LT$alloc..vec..Vec$LT$$LP$syn..data..Variant$C$syn..token..Comma$RP$$GT$$GT$17h3ac8ecccf673c389E.llvm.991277207215265740', symObjAddr: 0x7FA0, symBinAddr: 0x7B710, symSize: 0xD0 }
  - { offsetInCU: 0x3045A, offset: 0x29DD0F, size: 0x8, addend: 0x0, symName: '__ZN4core3ptr90drop_in_place$LT$alloc..vec..Vec$LT$$LP$syn..item..UseTree$C$syn..token..Comma$RP$$GT$$GT$17h1e4fface25e12fe6E.llvm.991277207215265740', symObjAddr: 0x8070, symBinAddr: 0x7B7E0, symSize: 0xD0 }
  - { offsetInCU: 0x30750, offset: 0x29E005, size: 0x8, addend: 0x0, symName: '__ZN4core3ptr90drop_in_place$LT$alloc..vec..Vec$LT$$LP$syn..pat..FieldPat$C$syn..token..Comma$RP$$GT$$GT$17h4d0a520927a96123E.llvm.991277207215265740', symObjAddr: 0x8140, symBinAddr: 0x7B8B0, symSize: 0xD0 }
  - { offsetInCU: 0x30A12, offset: 0x29E2C7, size: 0x8, addend: 0x0, symName: '__ZN4core3ptr90drop_in_place$LT$alloc..vec..Vec$LT$$LP$syn..ty..BareFnArg$C$syn..token..Comma$RP$$GT$$GT$17h86271563b6e0e7d6E.llvm.991277207215265740', symObjAddr: 0x8210, symBinAddr: 0x7B980, symSize: 0xD0 }
  - { offsetInCU: 0x30CF5, offset: 0x29E5AA, size: 0x8, addend: 0x0, symName: '__ZN4core3ptr90drop_in_place$LT$core..option..Option$LT$alloc..boxed..Box$LT$syn..data..Field$GT$$GT$$GT$17h9f1aee8cd56c6727E.llvm.991277207215265740', symObjAddr: 0x82E0, symBinAddr: 0x7BA50, symSize: 0x50 }
  - { offsetInCU: 0x30E77, offset: 0x29E72C, size: 0x8, addend: 0x0, symName: '__ZN4core3ptr91drop_in_place$LT$syn..punctuated..Punctuated$LT$syn..expr..Expr$C$syn..token..Comma$GT$$GT$17h6f261e8f470c81f2E.llvm.991277207215265740', symObjAddr: 0x8330, symBinAddr: 0x7BAA0, symSize: 0x120 }
  - { offsetInCU: 0x31324, offset: 0x29EBD9, size: 0x8, addend: 0x0, symName: '__ZN4core3ptr92drop_in_place$LT$core..option..Option$LT$alloc..boxed..Box$LT$syn..data..Variant$GT$$GT$$GT$17hb65f9b5d99f448afE', symObjAddr: 0x8450, symBinAddr: 0x7BBC0, symSize: 0x50 }
  - { offsetInCU: 0x314C5, offset: 0x29ED7A, size: 0x8, addend: 0x0, symName: '__ZN4core3ptr92drop_in_place$LT$syn..punctuated..Punctuated$LT$syn..data..Field$C$syn..token..Comma$GT$$GT$17hf8968831c552f88dE', symObjAddr: 0x84A0, symBinAddr: 0x7BC10, symSize: 0x120 }
  - { offsetInCU: 0x31937, offset: 0x29F1EC, size: 0x8, addend: 0x0, symName: '__ZN4core3ptr93drop_in_place$LT$alloc..vec..Vec$LT$$LP$syn..expr..FieldValue$C$syn..token..Comma$RP$$GT$$GT$17hf889827bae7d8b64E.llvm.991277207215265740', symObjAddr: 0x85C0, symBinAddr: 0x7BD30, symSize: 0xD0 }
  - { offsetInCU: 0x31C16, offset: 0x29F4CB, size: 0x8, addend: 0x0, symName: '__ZN4core3ptr94drop_in_place$LT$alloc..vec..Vec$LT$$LP$syn..lifetime..Lifetime$C$syn..token..Plus$RP$$GT$$GT$17h446c63e6d8248f75E.llvm.991277207215265740', symObjAddr: 0x8690, symBinAddr: 0x7BE00, symSize: 0x90 }
  - { offsetInCU: 0x31EF8, offset: 0x29F7AD, size: 0x8, addend: 0x0, symName: '__ZN4core3ptr94drop_in_place$LT$syn..punctuated..Punctuated$LT$syn..data..Variant$C$syn..token..Comma$GT$$GT$17h310cd79aba4529ccE', symObjAddr: 0x8720, symBinAddr: 0x7BE90, symSize: 0x120 }
  - { offsetInCU: 0x32366, offset: 0x29FC1B, size: 0x8, addend: 0x0, symName: '__ZN4core3ptr94drop_in_place$LT$syn..punctuated..Punctuated$LT$syn..pat..FieldPat$C$syn..token..Comma$GT$$GT$17h43ec25af986ef674E', symObjAddr: 0x8840, symBinAddr: 0x7BFB0, symSize: 0xF0 }
  - { offsetInCU: 0x32665, offset: 0x29FF1A, size: 0x8, addend: 0x0, symName: '__ZN4core3ptr94drop_in_place$LT$syn..punctuated..Punctuated$LT$syn..ty..BareFnArg$C$syn..token..Comma$GT$$GT$17h7ba4c699ee390ebaE', symObjAddr: 0x8930, symBinAddr: 0x7C0A0, symSize: 0xF0 }
  - { offsetInCU: 0x32966, offset: 0x2A021B, size: 0x8, addend: 0x0, symName: '__ZN4core3ptr95drop_in_place$LT$core..option..Option$LT$$LP$proc_macro2..Ident$C$syn..token..Colon$RP$$GT$$GT$17h59fe297999aa3329E.llvm.991277207215265740', symObjAddr: 0x8A20, symBinAddr: 0x7C190, symSize: 0x30 }
  - { offsetInCU: 0x32A81, offset: 0x2A0336, size: 0x8, addend: 0x0, symName: '__ZN4core3ptr96drop_in_place$LT$alloc..vec..Vec$LT$$LP$syn..path..PathSegment$C$syn..token..PathSep$RP$$GT$$GT$17h69d97f03bb66469bE.llvm.991277207215265740', symObjAddr: 0x8A50, symBinAddr: 0x7C1C0, symSize: 0x100 }
  - { offsetInCU: 0x32E75, offset: 0x2A072A, size: 0x8, addend: 0x0, symName: '__ZN4core3ptr96drop_in_place$LT$core..option..Option$LT$alloc..boxed..Box$LT$syn..path..PathSegment$GT$$GT$$GT$17h5de12a5a0f9e9ef9E.llvm.991277207215265740', symObjAddr: 0x8B50, symBinAddr: 0x7C2C0, symSize: 0x1A0 }
  - { offsetInCU: 0x33555, offset: 0x2A0E0A, size: 0x8, addend: 0x0, symName: '__ZN4core3ptr97drop_in_place$LT$syn..punctuated..Punctuated$LT$syn..expr..FieldValue$C$syn..token..Comma$GT$$GT$17hf58d0a9a09266ab3E', symObjAddr: 0x8D40, symBinAddr: 0x7C460, symSize: 0xF0 }
  - { offsetInCU: 0x33852, offset: 0x2A1107, size: 0x8, addend: 0x0, symName: '__ZN4core3ptr98drop_in_place$LT$alloc..vec..Vec$LT$$LP$syn..path..GenericArgument$C$syn..token..Comma$RP$$GT$$GT$17h0dee282a026d5a38E.llvm.991277207215265740', symObjAddr: 0x8E30, symBinAddr: 0x7C550, symSize: 0xD0 }
  - { offsetInCU: 0x33B54, offset: 0x2A1409, size: 0x8, addend: 0x0, symName: '__ZN4core3ptr98drop_in_place$LT$syn..punctuated..Punctuated$LT$syn..lifetime..Lifetime$C$syn..token..Plus$GT$$GT$17h600c2b78f78fd2b9E.llvm.991277207215265740', symObjAddr: 0x8F00, symBinAddr: 0x7C620, symSize: 0xD0 }
  - { offsetInCU: 0x33FC8, offset: 0x2A187D, size: 0x8, addend: 0x0, symName: '__ZN4core3ptr99drop_in_place$LT$alloc..vec..Vec$LT$$LP$syn..generics..GenericParam$C$syn..token..Comma$RP$$GT$$GT$17haeaa257234ab8b89E.llvm.991277207215265740', symObjAddr: 0x8FD0, symBinAddr: 0x7C6F0, symSize: 0x60 }
  - { offsetInCU: 0x34273, offset: 0x2A1B28, size: 0x8, addend: 0x0, symName: '__ZN4core3ptr99drop_in_place$LT$syn..punctuated..IntoPairs$LT$syn..path..PathSegment$C$syn..token..PathSep$GT$$GT$17h7bc58557d0a760d7E', symObjAddr: 0x9030, symBinAddr: 0x7C750, symSize: 0x60 }
  - { offsetInCU: 0x3C87D, offset: 0x2AA132, size: 0x8, addend: 0x0, symName: __ZN4core4iter6traits10exact_size17ExactSizeIterator8is_empty17h1a227f857cbffbf0E.llvm.991277207215265740, symObjAddr: 0x90F0, symBinAddr: 0x7C7B0, symSize: 0x0 }
  - { offsetInCU: 0x3C9F5, offset: 0x2AA2AA, size: 0x8, addend: 0x0, symName: __ZN4core4iter6traits12double_ended19DoubleEndedIterator15advance_back_by17h8a4e4fb504e13f9aE.llvm.991277207215265740, symObjAddr: 0x9240, symBinAddr: 0x7C7E0, symSize: 0x0 }
  - { offsetInCU: 0x3CC63, offset: 0x2AA518, size: 0x8, addend: 0x0, symName: __ZN4core4iter6traits12double_ended19DoubleEndedIterator8nth_back17h012b67c1856b5774E.llvm.991277207215265740, symObjAddr: 0x9330, symBinAddr: 0x7C860, symSize: 0x0 }
  - { offsetInCU: 0x3D10D, offset: 0x2AA9C2, size: 0x8, addend: 0x0, symName: __ZN4core4iter6traits8iterator8Iterator10advance_by17h3d527f137a6d7fdfE.llvm.991277207215265740, symObjAddr: 0x95B0, symBinAddr: 0x7C900, symSize: 0x0 }
  - { offsetInCU: 0x3D471, offset: 0x2AAD26, size: 0x8, addend: 0x0, symName: __ZN4core4iter6traits8iterator8Iterator3nth17h1e8866c786c3aeccE.llvm.991277207215265740, symObjAddr: 0x9760, symBinAddr: 0x7C970, symSize: 0x0 }
  - { offsetInCU: 0x3DA30, offset: 0x2AB2E5, size: 0x8, addend: 0x0, symName: __ZN4core4iter6traits8iterator8Iterator9size_hint17h01b8df23581c5177E.llvm.991277207215265740, symObjAddr: 0x9960, symBinAddr: 0x7C9F0, symSize: 0x0 }
  - { offsetInCU: 0x431B4, offset: 0x2B0A69, size: 0x8, addend: 0x0, symName: _anon.13e9612c7f1e77365c13ade4b7a3f6db.8.llvm.991277207215265740, symObjAddr: 0x13228, symBinAddr: 0x2715B0, symSize: 0x0 }
  - { offsetInCU: 0x45499, offset: 0x2B2D4E, size: 0x8, addend: 0x0, symName: '__ZN3syn10punctuated23Punctuated$LT$T$C$P$GT$10push_value17h2697ae8d07ed6279E', symObjAddr: 0xA040, symBinAddr: 0x7CA10, symSize: 0x0 }
  - { offsetInCU: 0x456F6, offset: 0x2B2FAB, size: 0x8, addend: 0x0, symName: '__ZN3syn10punctuated23Punctuated$LT$T$C$P$GT$10push_value17h45c7a985809b3219E', symObjAddr: 0xA140, symBinAddr: 0x7CB10, symSize: 0x110 }
  - { offsetInCU: 0x45A5D, offset: 0x2B3312, size: 0x8, addend: 0x0, symName: '__ZN3syn10punctuated23Punctuated$LT$T$C$P$GT$10push_value17h473f367d939ee38aE', symObjAddr: 0xA250, symBinAddr: 0x7CC20, symSize: 0x100 }
  - { offsetInCU: 0x45CB9, offset: 0x2B356E, size: 0x8, addend: 0x0, symName: '__ZN3syn10punctuated23Punctuated$LT$T$C$P$GT$10push_value17h4975d8317d65554cE', symObjAddr: 0xA350, symBinAddr: 0x7CD20, symSize: 0x100 }
  - { offsetInCU: 0x45F30, offset: 0x2B37E5, size: 0x8, addend: 0x0, symName: '__ZN3syn10punctuated23Punctuated$LT$T$C$P$GT$10push_value17h56f029a21ae32372E', symObjAddr: 0xA450, symBinAddr: 0x7CE20, symSize: 0x100 }
  - { offsetInCU: 0x4618D, offset: 0x2B3A42, size: 0x8, addend: 0x0, symName: '__ZN3syn10punctuated23Punctuated$LT$T$C$P$GT$10push_value17h63a58ef4bac63b37E', symObjAddr: 0xA550, symBinAddr: 0x7CF20, symSize: 0x100 }
  - { offsetInCU: 0x463EA, offset: 0x2B3C9F, size: 0x8, addend: 0x0, symName: '__ZN3syn10punctuated23Punctuated$LT$T$C$P$GT$10push_value17h7a3a23979d9f27d8E', symObjAddr: 0xA650, symBinAddr: 0x7D020, symSize: 0x100 }
  - { offsetInCU: 0x46647, offset: 0x2B3EFC, size: 0x8, addend: 0x0, symName: '__ZN3syn10punctuated23Punctuated$LT$T$C$P$GT$10push_value17h7b8b7e7a7cc7f473E', symObjAddr: 0xA750, symBinAddr: 0x7D120, symSize: 0x100 }
  - { offsetInCU: 0x46897, offset: 0x2B414C, size: 0x8, addend: 0x0, symName: '__ZN3syn10punctuated23Punctuated$LT$T$C$P$GT$10push_value17h93661bd9a728ecd1E', symObjAddr: 0xA850, symBinAddr: 0x7D220, symSize: 0x100 }
  - { offsetInCU: 0x46B01, offset: 0x2B43B6, size: 0x8, addend: 0x0, symName: '__ZN3syn10punctuated23Punctuated$LT$T$C$P$GT$10push_value17hb6a278bfa99a1718E', symObjAddr: 0xA950, symBinAddr: 0x7D320, symSize: 0xD0 }
  - { offsetInCU: 0x46D5D, offset: 0x2B4612, size: 0x8, addend: 0x0, symName: '__ZN3syn10punctuated23Punctuated$LT$T$C$P$GT$10push_value17hc6035201a10f0061E', symObjAddr: 0xAA20, symBinAddr: 0x7D3F0, symSize: 0xF0 }
  - { offsetInCU: 0x46FB9, offset: 0x2B486E, size: 0x8, addend: 0x0, symName: '__ZN3syn10punctuated23Punctuated$LT$T$C$P$GT$10push_value17hd429ee0060d42f76E', symObjAddr: 0xAB10, symBinAddr: 0x7D4E0, symSize: 0xF0 }
  - { offsetInCU: 0x47215, offset: 0x2B4ACA, size: 0x8, addend: 0x0, symName: '__ZN3syn10punctuated23Punctuated$LT$T$C$P$GT$10push_value17hdab02e89b3ba5c00E', symObjAddr: 0xAC00, symBinAddr: 0x7D5D0, symSize: 0x100 }
  - { offsetInCU: 0x4749A, offset: 0x2B4D4F, size: 0x8, addend: 0x0, symName: '__ZN3syn10punctuated23Punctuated$LT$T$C$P$GT$10push_punct17h06896b7cca64befbE', symObjAddr: 0xAD00, symBinAddr: 0x7D6D0, symSize: 0x110 }
  - { offsetInCU: 0x47894, offset: 0x2B5149, size: 0x8, addend: 0x0, symName: '__ZN3syn10punctuated23Punctuated$LT$T$C$P$GT$10push_punct17h0e6070274da9870bE', symObjAddr: 0xAE10, symBinAddr: 0x7D7E0, symSize: 0x120 }
  - { offsetInCU: 0x47C8E, offset: 0x2B5543, size: 0x8, addend: 0x0, symName: '__ZN3syn10punctuated23Punctuated$LT$T$C$P$GT$10push_punct17h24286cd6641c5efeE', symObjAddr: 0xAF30, symBinAddr: 0x7D900, symSize: 0xF0 }
  - { offsetInCU: 0x48088, offset: 0x2B593D, size: 0x8, addend: 0x0, symName: '__ZN3syn10punctuated23Punctuated$LT$T$C$P$GT$10push_punct17h27450a552d2ea5c7E', symObjAddr: 0xB020, symBinAddr: 0x7D9F0, symSize: 0x110 }
  - { offsetInCU: 0x4848F, offset: 0x2B5D44, size: 0x8, addend: 0x0, symName: '__ZN3syn10punctuated23Punctuated$LT$T$C$P$GT$10push_punct17h44bfb8b49b59ff15E', symObjAddr: 0xB130, symBinAddr: 0x7DB00, symSize: 0x110 }
  - { offsetInCU: 0x48889, offset: 0x2B613E, size: 0x8, addend: 0x0, symName: '__ZN3syn10punctuated23Punctuated$LT$T$C$P$GT$10push_punct17h7ab9900f429df4d2E', symObjAddr: 0xB240, symBinAddr: 0x7DC10, symSize: 0x110 }
  - { offsetInCU: 0x48C76, offset: 0x2B652B, size: 0x8, addend: 0x0, symName: '__ZN3syn10punctuated23Punctuated$LT$T$C$P$GT$10push_punct17h9e503a1a499ffaa4E', symObjAddr: 0xB350, symBinAddr: 0x7DD20, symSize: 0x110 }
  - { offsetInCU: 0x4909E, offset: 0x2B6953, size: 0x8, addend: 0x0, symName: '__ZN3syn10punctuated23Punctuated$LT$T$C$P$GT$10push_punct17haecab6c445d3d0a0E', symObjAddr: 0xB460, symBinAddr: 0x7DE30, symSize: 0x140 }
  - { offsetInCU: 0x495EB, offset: 0x2B6EA0, size: 0x8, addend: 0x0, symName: '__ZN3syn10punctuated23Punctuated$LT$T$C$P$GT$10push_punct17hb0efd3086160dde8E', symObjAddr: 0xB5A0, symBinAddr: 0x7DF70, symSize: 0xF0 }
  - { offsetInCU: 0x499E5, offset: 0x2B729A, size: 0x8, addend: 0x0, symName: '__ZN3syn10punctuated23Punctuated$LT$T$C$P$GT$10push_punct17hdafa07dad0c325a7E', symObjAddr: 0xB690, symBinAddr: 0x7E060, symSize: 0x110 }
  - { offsetInCU: 0x49DF9, offset: 0x2B76AE, size: 0x8, addend: 0x0, symName: '__ZN3syn10punctuated23Punctuated$LT$T$C$P$GT$10push_punct17hdd359bad1ebfd945E', symObjAddr: 0xB7A0, symBinAddr: 0x7E170, symSize: 0x110 }
  - { offsetInCU: 0x4A1F3, offset: 0x2B7AA8, size: 0x8, addend: 0x0, symName: '__ZN3syn10punctuated23Punctuated$LT$T$C$P$GT$10push_punct17he61ebefe1fbd6233E', symObjAddr: 0xB8B0, symBinAddr: 0x7E280, symSize: 0x110 }
  - { offsetInCU: 0x4A5ED, offset: 0x2B7EA2, size: 0x8, addend: 0x0, symName: '__ZN3syn10punctuated23Punctuated$LT$T$C$P$GT$10push_punct17hedabbd3c35f4a750E', symObjAddr: 0xB9C0, symBinAddr: 0x7E390, symSize: 0x110 }
  - { offsetInCU: 0x4A9E7, offset: 0x2B829C, size: 0x8, addend: 0x0, symName: '__ZN3syn10punctuated23Punctuated$LT$T$C$P$GT$10push_punct17hfa5ffee47f85172bE', symObjAddr: 0xBAD0, symBinAddr: 0x7E4A0, symSize: 0x110 }
  - { offsetInCU: 0x4ADE1, offset: 0x2B8696, size: 0x8, addend: 0x0, symName: '__ZN3syn10punctuated23Punctuated$LT$T$C$P$GT$10push_punct17hff6cad691140237dE', symObjAddr: 0xBBE0, symBinAddr: 0x7E5B0, symSize: 0x120 }
  - { offsetInCU: 0x4B274, offset: 0x2B8B29, size: 0x8, addend: 0x0, symName: '__ZN3syn10punctuated23Punctuated$LT$T$C$P$GT$3pop17h6c6e5aa8da1faf58E', symObjAddr: 0xBD00, symBinAddr: 0x7E6D0, symSize: 0xA0 }
  - { offsetInCU: 0x4B67A, offset: 0x2B8F2F, size: 0x8, addend: 0x0, symName: '__ZN3syn10punctuated23Punctuated$LT$T$C$P$GT$4push17hdc36ad8613c26a5bE', symObjAddr: 0xBDA0, symBinAddr: 0x7E770, symSize: 0x170 }
  - { offsetInCU: 0x4BA2B, offset: 0x2B92E0, size: 0x8, addend: 0x0, symName: '__ZN3syn10punctuated23Punctuated$LT$T$C$P$GT$21parse_terminated_with17h19cf4460b97e8380E', symObjAddr: 0xBF10, symBinAddr: 0x7E8E0, symSize: 0x200 }
  - { offsetInCU: 0x4C023, offset: 0x2B98D8, size: 0x8, addend: 0x0, symName: '__ZN3syn10punctuated23Punctuated$LT$T$C$P$GT$21parse_terminated_with17h804f2bc7bf3e5193E', symObjAddr: 0xC310, symBinAddr: 0x7EAE0, symSize: 0x3D0 }
  - { offsetInCU: 0x4CAC6, offset: 0x2BA37B, size: 0x8, addend: 0x0, symName: '__ZN3syn10punctuated23Punctuated$LT$T$C$P$GT$21parse_terminated_with17h88338cd3dff110dcE', symObjAddr: 0xC6E0, symBinAddr: 0x7EEB0, symSize: 0x3E0 }
  - { offsetInCU: 0x1E, offset: 0x2C15EF, size: 0x8, addend: 0x0, symName: '__ZN42_$LT$$RF$T$u20$as$u20$core..fmt..Debug$GT$3fmt17h22704bd9d9420e95E', symObjAddr: 0x0, symBinAddr: 0x817A0, symSize: 0x10 }
  - { offsetInCU: 0x2D60, offset: 0x2C4331, size: 0x8, addend: 0x0, symName: '__ZN3syn4expr7parsing63_$LT$impl$u20$syn..parse..Parse$u20$for$u20$syn..expr..Expr$GT$5parse17h2dd32c2563b281f1E', symObjAddr: 0x9380, symBinAddr: 0x89AD0, symSize: 0xF0 }
  - { offsetInCU: 0x2E10, offset: 0x2C43E1, size: 0x8, addend: 0x0, symName: '__ZN3syn4expr7parsing66_$LT$impl$u20$syn..parse..Parse$u20$for$u20$syn..expr..ExprLit$GT$5parse17h037323e67b33f4e0E', symObjAddr: 0x9D40, symBinAddr: 0x89BC0, symSize: 0xF0 }
  - { offsetInCU: 0x2F00, offset: 0x2C44D1, size: 0x8, addend: 0x0, symName: '__ZN3syn4expr7parsing65_$LT$impl$u20$syn..parse..Parse$u20$for$u20$syn..expr..ExprIf$GT$5parse17h057f7aac17b81ecfE', symObjAddr: 0x9E70, symBinAddr: 0x89CB0, symSize: 0x10D0 }
  - { offsetInCU: 0x5861, offset: 0x2C6E32, size: 0x8, addend: 0x0, symName: '__ZN3syn4expr7parsing68_$LT$impl$u20$syn..parse..Parse$u20$for$u20$syn..expr..ExprInfer$GT$5parse17hee2966860a129500E', symObjAddr: 0xAF40, symBinAddr: 0x8AD80, symSize: 0x190 }
  - { offsetInCU: 0x5C50, offset: 0x2C7221, size: 0x8, addend: 0x0, symName: '__ZN3syn4expr7parsing70_$LT$impl$u20$syn..parse..Parse$u20$for$u20$syn..expr..ExprForLoop$GT$5parse17hedfbb0907538a2b3E', symObjAddr: 0xB0D0, symBinAddr: 0x8AF10, symSize: 0xAE0 }
  - { offsetInCU: 0x6CB3, offset: 0x2C8284, size: 0x8, addend: 0x0, symName: '__ZN3syn4expr7parsing67_$LT$impl$u20$syn..parse..Parse$u20$for$u20$syn..expr..ExprLoop$GT$5parse17h7ed0d5dbbb60f303E', symObjAddr: 0xBBB0, symBinAddr: 0x8B9F0, symSize: 0x670 }
  - { offsetInCU: 0x7B21, offset: 0x2C90F2, size: 0x8, addend: 0x0, symName: '__ZN3syn4expr7parsing68_$LT$impl$u20$syn..parse..Parse$u20$for$u20$syn..expr..ExprMatch$GT$5parse17h34519e3f1e766752E', symObjAddr: 0xC220, symBinAddr: 0x8C060, symSize: 0x870 }
  - { offsetInCU: 0x8A54, offset: 0x2CA025, size: 0x8, addend: 0x0, symName: '__ZN3syn4expr7parsing69_$LT$impl$u20$syn..parse..Parse$u20$for$u20$syn..expr..ExprReturn$GT$5parse17hc1b56b8a902787dbE', symObjAddr: 0xCDA0, symBinAddr: 0x8C8D0, symSize: 0x120 }
  - { offsetInCU: 0x8C37, offset: 0x2CA208, size: 0x8, addend: 0x0, symName: '__ZN3syn4expr7parsing71_$LT$impl$u20$syn..parse..Parse$u20$for$u20$syn..expr..ExprTryBlock$GT$5parse17h57d58ae4f0ae4d64E', symObjAddr: 0xCEC0, symBinAddr: 0x8C9F0, symSize: 0x140 }
  - { offsetInCU: 0x8DB6, offset: 0x2CA387, size: 0x8, addend: 0x0, symName: '__ZN3syn4expr7parsing68_$LT$impl$u20$syn..parse..Parse$u20$for$u20$syn..expr..ExprYield$GT$5parse17h1274dc253af9a55dE', symObjAddr: 0xD000, symBinAddr: 0x8CB30, symSize: 0x120 }
  - { offsetInCU: 0x8F99, offset: 0x2CA56A, size: 0x8, addend: 0x0, symName: '__ZN3syn4expr7parsing68_$LT$impl$u20$syn..parse..Parse$u20$for$u20$syn..expr..ExprAsync$GT$5parse17h1b9426392ef89a9dE', symObjAddr: 0xD120, symBinAddr: 0x8CC50, symSize: 0x1E0 }
  - { offsetInCU: 0x929A, offset: 0x2CA86B, size: 0x8, addend: 0x0, symName: '__ZN3syn4expr7parsing68_$LT$impl$u20$syn..parse..Parse$u20$for$u20$syn..expr..ExprWhile$GT$5parse17h632c2901c80fa142E', symObjAddr: 0xD300, symBinAddr: 0x8CE30, symSize: 0x940 }
  - { offsetInCU: 0xA12C, offset: 0x2CB6FD, size: 0x8, addend: 0x0, symName: '__ZN3syn4expr7parsing68_$LT$impl$u20$syn..parse..Parse$u20$for$u20$syn..expr..ExprConst$GT$5parse17h3cb83d630e04595bE', symObjAddr: 0xDC40, symBinAddr: 0x8D770, symSize: 0x480 }
  - { offsetInCU: 0xA960, offset: 0x2CBF31, size: 0x8, addend: 0x0, symName: '__ZN3syn4expr7parsing64_$LT$impl$u20$syn..parse..Parse$u20$for$u20$syn..expr..Label$GT$5parse17hef86b1bab95aa7abE', symObjAddr: 0xE0C0, symBinAddr: 0x8DBF0, symSize: 0x240 }
  - { offsetInCU: 0xAE1F, offset: 0x2CC3F0, size: 0x8, addend: 0x0, symName: '__ZN3syn4expr7parsing71_$LT$impl$u20$syn..parse..Parse$u20$for$u20$syn..expr..ExprContinue$GT$5parse17h63c6d49ae369ea01E', symObjAddr: 0xE300, symBinAddr: 0x8DE30, symSize: 0x1B0 }
  - { offsetInCU: 0xAF9F, offset: 0x2CC570, size: 0x8, addend: 0x0, symName: '__ZN3syn4expr7parsing69_$LT$impl$u20$syn..parse..Parse$u20$for$u20$syn..expr..FieldValue$GT$5parse17hcbc1792fb9342612E', symObjAddr: 0xE4B0, symBinAddr: 0x8DFE0, symSize: 0x670 }
  - { offsetInCU: 0xBA31, offset: 0x2CD002, size: 0x8, addend: 0x0, symName: '__ZN3syn4expr7parsing69_$LT$impl$u20$syn..parse..Parse$u20$for$u20$syn..expr..ExprUnsafe$GT$5parse17hd34f309eaaaddbf9E', symObjAddr: 0xEC40, symBinAddr: 0x8E650, symSize: 0x480 }
  - { offsetInCU: 0xC265, offset: 0x2CD836, size: 0x8, addend: 0x0, symName: '__ZN3syn4expr7parsing68_$LT$impl$u20$syn..parse..Parse$u20$for$u20$syn..expr..ExprBlock$GT$5parse17h61a2a565a082b026E', symObjAddr: 0xF0C0, symBinAddr: 0x8EAD0, symSize: 0x620 }
  - { offsetInCU: 0xD0BF, offset: 0x2CE690, size: 0x8, addend: 0x0, symName: '__ZN3syn4expr7parsing70_$LT$impl$u20$syn..parse..Parse$u20$for$u20$syn..expr..RangeLimits$GT$5parse17hafc71f8b1811b3d4E', symObjAddr: 0xF6E0, symBinAddr: 0x8F0F0, symSize: 0x2F0 }
  - { offsetInCU: 0xDD3B, offset: 0x2CF30C, size: 0x8, addend: 0x0, symName: '__ZN3syn4expr7parsing67_$LT$impl$u20$syn..parse..Parse$u20$for$u20$syn..expr..ExprPath$GT$5parse17hcfacd5d2290fdd20E', symObjAddr: 0xFD70, symBinAddr: 0x8F780, symSize: 0x240 }
  - { offsetInCU: 0xE17E, offset: 0x2CF74F, size: 0x8, addend: 0x0, symName: '__ZN3syn4expr7parsing65_$LT$impl$u20$syn..parse..Parse$u20$for$u20$syn..expr..Member$GT$5parse17h207aacc2d4c7579fE', symObjAddr: 0xFFB0, symBinAddr: 0x8F9C0, symSize: 0xE0 }
  - { offsetInCU: 0xE3EE, offset: 0x2CF9BF, size: 0x8, addend: 0x0, symName: '__ZN3syn4expr7parsing62_$LT$impl$u20$syn..parse..Parse$u20$for$u20$syn..expr..Arm$GT$5parse17h512532f6f815234dE', symObjAddr: 0x10090, symBinAddr: 0x8FAA0, symSize: 0xA10 }
  - { offsetInCU: 0xF30F, offset: 0x2D08E0, size: 0x8, addend: 0x0, symName: '__ZN3syn4expr7parsing64_$LT$impl$u20$syn..parse..Parse$u20$for$u20$syn..expr..Index$GT$5parse17h5b2fe44bac761272E', symObjAddr: 0x10AA0, symBinAddr: 0x904B0, symSize: 0x180 }
  - { offsetInCU: 0xF9DF, offset: 0x2D0FB0, size: 0x8, addend: 0x0, symName: '__ZN3syn4expr8printing77_$LT$impl$u20$quote..to_tokens..ToTokens$u20$for$u20$syn..expr..ExprAsync$GT$9to_tokens17h7671d28113e1e04eE', symObjAddr: 0x10CC0, symBinAddr: 0x90630, symSize: 0x160 }
  - { offsetInCU: 0x1006A, offset: 0x2D163B, size: 0x8, addend: 0x0, symName: '__ZN3syn4expr8printing77_$LT$impl$u20$quote..to_tokens..ToTokens$u20$for$u20$syn..expr..ExprBlock$GT$9to_tokens17h25103e38a45e4c1aE', symObjAddr: 0x10E40, symBinAddr: 0x90790, symSize: 0xF0 }
  - { offsetInCU: 0x105D2, offset: 0x2D1BA3, size: 0x8, addend: 0x0, symName: '__ZN3syn4expr8printing79_$LT$impl$u20$quote..to_tokens..ToTokens$u20$for$u20$syn..expr..ExprClosure$GT$9to_tokens17h22aefaf35f6b4a17E', symObjAddr: 0x10F60, symBinAddr: 0x90880, symSize: 0x400 }
  - { offsetInCU: 0x1131C, offset: 0x2D28ED, size: 0x8, addend: 0x0, symName: '__ZN3syn4expr8printing77_$LT$impl$u20$quote..to_tokens..ToTokens$u20$for$u20$syn..expr..ExprConst$GT$9to_tokens17hfc10e9b463dc8ee9E', symObjAddr: 0x11360, symBinAddr: 0x90C80, symSize: 0xF0 }
  - { offsetInCU: 0x1179A, offset: 0x2D2D6B, size: 0x8, addend: 0x0, symName: '__ZN3syn4expr8printing80_$LT$impl$u20$quote..to_tokens..ToTokens$u20$for$u20$syn..expr..ExprContinue$GT$9to_tokens17h5bfb9035b6328620E', symObjAddr: 0x11450, symBinAddr: 0x90D70, symSize: 0x130 }
  - { offsetInCU: 0x11D7E, offset: 0x2D334F, size: 0x8, addend: 0x0, symName: '__ZN3syn4expr8printing79_$LT$impl$u20$quote..to_tokens..ToTokens$u20$for$u20$syn..expr..ExprForLoop$GT$9to_tokens17h240fbce8573b3e2aE', symObjAddr: 0x11590, symBinAddr: 0x90EA0, symSize: 0x240 }
  - { offsetInCU: 0x12635, offset: 0x2D3C06, size: 0x8, addend: 0x0, symName: '__ZN3syn4expr8printing74_$LT$impl$u20$quote..to_tokens..ToTokens$u20$for$u20$syn..expr..ExprIf$GT$9to_tokens17hf717ea11b1d1406aE', symObjAddr: 0x11860, symBinAddr: 0x910E0, symSize: 0x330 }
  - { offsetInCU: 0x132A1, offset: 0x2D4872, size: 0x8, addend: 0x0, symName: '__ZN3syn4expr8printing77_$LT$impl$u20$quote..to_tokens..ToTokens$u20$for$u20$syn..expr..ExprInfer$GT$9to_tokens17h66f2f3192152ee7bE', symObjAddr: 0x11BA0, symBinAddr: 0x91410, symSize: 0xE0 }
  - { offsetInCU: 0x13749, offset: 0x2D4D1A, size: 0x8, addend: 0x0, symName: '__ZN3syn4expr8printing76_$LT$impl$u20$quote..to_tokens..ToTokens$u20$for$u20$syn..expr..ExprLoop$GT$9to_tokens17h32916f0a6a52df29E', symObjAddr: 0x11D20, symBinAddr: 0x914F0, symSize: 0x160 }
  - { offsetInCU: 0x13EEB, offset: 0x2D54BC, size: 0x8, addend: 0x0, symName: '__ZN3syn4expr8printing78_$LT$impl$u20$quote..to_tokens..ToTokens$u20$for$u20$syn..expr..ExprStruct$GT$9to_tokens17h5b9d34ef7b745589E', symObjAddr: 0x12260, symBinAddr: 0x91650, symSize: 0xA0 }
  - { offsetInCU: 0x14276, offset: 0x2D5847, size: 0x8, addend: 0x0, symName: '__ZN3syn4expr8printing80_$LT$impl$u20$quote..to_tokens..ToTokens$u20$for$u20$syn..expr..ExprTryBlock$GT$9to_tokens17h21b1a3e7eeb0a009E', symObjAddr: 0x12310, symBinAddr: 0x916F0, symSize: 0xF0 }
  - { offsetInCU: 0x14774, offset: 0x2D5D45, size: 0x8, addend: 0x0, symName: '__ZN3syn4expr8printing78_$LT$impl$u20$quote..to_tokens..ToTokens$u20$for$u20$syn..expr..ExprUnsafe$GT$9to_tokens17h4dfc36d6c64a764dE', symObjAddr: 0x124A0, symBinAddr: 0x917E0, symSize: 0xF0 }
  - { offsetInCU: 0x14C4C, offset: 0x2D621D, size: 0x8, addend: 0x0, symName: '__ZN3syn4expr8printing71_$LT$impl$u20$quote..to_tokens..ToTokens$u20$for$u20$syn..expr..Arm$GT$9to_tokens17hb5881eaa41e95cfeE', symObjAddr: 0x12770, symBinAddr: 0x918D0, symSize: 0x180 }
  - { offsetInCU: 0x15047, offset: 0x2D6618, size: 0x8, addend: 0x0, symName: '__ZN3syn4expr8printing74_$LT$impl$u20$quote..to_tokens..ToTokens$u20$for$u20$syn..expr..Member$GT$9to_tokens17h4e2d160d172ed775E', symObjAddr: 0x12BC0, symBinAddr: 0x91BF0, symSize: 0xC0 }
  - { offsetInCU: 0x1531A, offset: 0x2D68EB, size: 0x8, addend: 0x0, symName: '__ZN3syn4expr8printing78_$LT$impl$u20$quote..to_tokens..ToTokens$u20$for$u20$syn..expr..FieldValue$GT$9to_tokens17heb932e58796058afE', symObjAddr: 0x128F0, symBinAddr: 0x91A50, symSize: 0x1A0 }
  - { offsetInCU: 0x1597E, offset: 0x2D6F4F, size: 0x8, addend: 0x0, symName: '__ZN62_$LT$syn..expr..Expr$u20$as$u20$quote..to_tokens..ToTokens$GT$9to_tokens17h591e04bab5b62929E', symObjAddr: 0x12D00, symBinAddr: 0x91CB0, symSize: 0x22C0 }
  - { offsetInCU: 0x21599, offset: 0x2E2B6A, size: 0x8, addend: 0x0, symName: '__ZN3syn3gen5debug61_$LT$impl$u20$core..fmt..Debug$u20$for$u20$syn..expr..Arm$GT$3fmt17hb8dfa2a47cfa48b5E', symObjAddr: 0x1C660, symBinAddr: 0x97A90, symSize: 0x100 }
  - { offsetInCU: 0x215FB, offset: 0x2E2BCC, size: 0x8, addend: 0x0, symName: '__ZN3syn3gen5debug62_$LT$impl$u20$core..fmt..Debug$u20$for$u20$syn..expr..Expr$GT$3fmt17h7d11a371693dc1c1E', symObjAddr: 0x1C760, symBinAddr: 0x97B90, symSize: 0x610 }
  - { offsetInCU: 0x21B4A, offset: 0x2E311B, size: 0x8, addend: 0x0, symName: '__ZN3syn3gen5debug68_$LT$impl$u20$core..fmt..Debug$u20$for$u20$syn..expr..FieldValue$GT$3fmt17h47ba43fcf13739b9E', symObjAddr: 0x1FFE0, symBinAddr: 0x99BF0, symSize: 0xC0 }
  - { offsetInCU: 0x21BAE, offset: 0x2E317F, size: 0x8, addend: 0x0, symName: '__ZN3syn3gen5debug63_$LT$impl$u20$core..fmt..Debug$u20$for$u20$syn..expr..Index$GT$3fmt17h58c615228454fc8aE', symObjAddr: 0x200A0, symBinAddr: 0x99CB0, symSize: 0x80 }
  - { offsetInCU: 0x21C12, offset: 0x2E31E3, size: 0x8, addend: 0x0, symName: '__ZN3syn3gen5debug64_$LT$impl$u20$core..fmt..Debug$u20$for$u20$syn..expr..Member$GT$3fmt17h6b428a40006dee15E', symObjAddr: 0x201A0, symBinAddr: 0x99D30, symSize: 0xA0 }
  - { offsetInCU: 0x21D02, offset: 0x2E32D3, size: 0x8, addend: 0x0, symName: '__ZN3syn3gen5debug69_$LT$impl$u20$core..fmt..Debug$u20$for$u20$syn..expr..RangeLimits$GT$3fmt17ha7be0c10f50b99f3E', symObjAddr: 0x20240, symBinAddr: 0x99DD0, symSize: 0xA0 }
  - { offsetInCU: 0x21DF8, offset: 0x2E33C9, size: 0x8, addend: 0x0, symName: '__ZN3syn3gen5clone63_$LT$impl$u20$core..clone..Clone$u20$for$u20$syn..expr..Arm$GT$5clone17h731a332d9e810dfbE', symObjAddr: 0x174C0, symBinAddr: 0x93F70, symSize: 0x1F0 }
  - { offsetInCU: 0x2274E, offset: 0x2E3D1F, size: 0x8, addend: 0x0, symName: '__ZN3syn3gen5clone64_$LT$impl$u20$core..clone..Clone$u20$for$u20$syn..expr..Expr$GT$5clone17hd0fbb57decae682fE', symObjAddr: 0x176B0, symBinAddr: 0x94160, symSize: 0x1DF0 }
  - { offsetInCU: 0x2641E, offset: 0x2E79EF, size: 0x8, addend: 0x0, symName: '__ZN3syn3gen5clone69_$LT$impl$u20$core..clone..Clone$u20$for$u20$syn..expr..ExprBlock$GT$5clone17hc672c8361322b75dE', symObjAddr: 0x199C0, symBinAddr: 0x95F50, symSize: 0x140 }
  - { offsetInCU: 0x266F4, offset: 0x2E7CC5, size: 0x8, addend: 0x0, symName: '__ZN3syn3gen5clone69_$LT$impl$u20$core..clone..Clone$u20$for$u20$syn..expr..ExprBreak$GT$5clone17h7bd0ca0880b96178E', symObjAddr: 0x19B00, symBinAddr: 0x96090, symSize: 0x1A0 }
  - { offsetInCU: 0x26BA4, offset: 0x2E8175, size: 0x8, addend: 0x0, symName: '__ZN3syn3gen5clone71_$LT$impl$u20$core..clone..Clone$u20$for$u20$syn..expr..ExprClosure$GT$5clone17h793550ac36ec18ecE', symObjAddr: 0x19F50, symBinAddr: 0x96230, symSize: 0x380 }
  - { offsetInCU: 0x2726F, offset: 0x2E8840, size: 0x8, addend: 0x0, symName: '__ZN3syn3gen5clone71_$LT$impl$u20$core..clone..Clone$u20$for$u20$syn..expr..ExprForLoop$GT$5clone17h43600741ac808a48E', symObjAddr: 0x1A590, symBinAddr: 0x965B0, symSize: 0x2A0 }
  - { offsetInCU: 0x279C8, offset: 0x2E8F99, size: 0x8, addend: 0x0, symName: '__ZN3syn3gen5clone66_$LT$impl$u20$core..clone..Clone$u20$for$u20$syn..expr..ExprIf$GT$5clone17h1d1ef5ce5034df51E', symObjAddr: 0x1A910, symBinAddr: 0x96850, symSize: 0x1E0 }
  - { offsetInCU: 0x27EE7, offset: 0x2E94B8, size: 0x8, addend: 0x0, symName: '__ZN3syn3gen5clone68_$LT$impl$u20$core..clone..Clone$u20$for$u20$syn..expr..ExprLoop$GT$5clone17h5ec892bf07c52e97E', symObjAddr: 0x1AE90, symBinAddr: 0x96A30, symSize: 0x150 }
  - { offsetInCU: 0x281EB, offset: 0x2E97BC, size: 0x8, addend: 0x0, symName: '__ZN3syn3gen5clone69_$LT$impl$u20$core..clone..Clone$u20$for$u20$syn..expr..ExprMatch$GT$5clone17ha5b2779974051841E', symObjAddr: 0x1B070, symBinAddr: 0x96B80, symSize: 0x140 }
  - { offsetInCU: 0x28473, offset: 0x2E9A44, size: 0x8, addend: 0x0, symName: '__ZN3syn3gen5clone74_$LT$impl$u20$core..clone..Clone$u20$for$u20$syn..expr..ExprMethodCall$GT$5clone17h4d51c2e74302fd51E', symObjAddr: 0x1B1B0, symBinAddr: 0x96CC0, symSize: 0x3A0 }
  - { offsetInCU: 0x28B7A, offset: 0x2EA14B, size: 0x8, addend: 0x0, symName: '__ZN3syn3gen5clone68_$LT$impl$u20$core..clone..Clone$u20$for$u20$syn..expr..ExprPath$GT$5clone17h5e066ec238ed93d5E', symObjAddr: 0x1B630, symBinAddr: 0x97060, symSize: 0x1B0 }
  - { offsetInCU: 0x28EE7, offset: 0x2EA4B8, size: 0x8, addend: 0x0, symName: '__ZN3syn3gen5clone69_$LT$impl$u20$core..clone..Clone$u20$for$u20$syn..expr..ExprRange$GT$5clone17h9227c42eb2ce8610E', symObjAddr: 0x1B7E0, symBinAddr: 0x97210, symSize: 0x1A0 }
  - { offsetInCU: 0x293F4, offset: 0x2EA9C5, size: 0x8, addend: 0x0, symName: '__ZN3syn3gen5clone70_$LT$impl$u20$core..clone..Clone$u20$for$u20$syn..expr..ExprStruct$GT$5clone17h182ae561ae6d6028E', symObjAddr: 0x1BC00, symBinAddr: 0x973B0, symSize: 0x390 }
  - { offsetInCU: 0x29C3B, offset: 0x2EB20C, size: 0x8, addend: 0x0, symName: '__ZN3syn3gen5clone69_$LT$impl$u20$core..clone..Clone$u20$for$u20$syn..expr..ExprWhile$GT$5clone17hc9698df3873ae4b0E', symObjAddr: 0x1C150, symBinAddr: 0x97740, symSize: 0x200 }
  - { offsetInCU: 0x2A164, offset: 0x2EB735, size: 0x8, addend: 0x0, symName: '__ZN3syn3gen5clone70_$LT$impl$u20$core..clone..Clone$u20$for$u20$syn..expr..FieldValue$GT$5clone17he5e5e61c3443e293E', symObjAddr: 0x1C440, symBinAddr: 0x97940, symSize: 0x150 }
  - { offsetInCU: 0x2C4A4, offset: 0x2EDA75, size: 0x8, addend: 0x0, symName: '__ZN4core3ptr100drop_in_place$LT$core..option..Option$LT$alloc..boxed..Box$LT$syn..path..GenericArgument$GT$$GT$$GT$17h3a7c44b9e57fe410E', symObjAddr: 0x1D0, symBinAddr: 0x81870, symSize: 0x50 }
  - { offsetInCU: 0x2C842, offset: 0x2EDE13, size: 0x8, addend: 0x0, symName: '__ZN4core3ptr100drop_in_place$LT$syn..punctuated..Punctuated$LT$syn..path..PathSegment$C$syn..token..PathSep$GT$$GT$17he41ef64147139591E', symObjAddr: 0x220, symBinAddr: 0x818C0, symSize: 0x2B0 }
  - { offsetInCU: 0x2D2F8, offset: 0x2EE8C9, size: 0x8, addend: 0x0, symName: '__ZN4core3ptr103drop_in_place$LT$core..option..Option$LT$alloc..boxed..Box$LT$syn..generics..TypeParamBound$GT$$GT$$GT$17hb14e4384a768542bE', symObjAddr: 0x4D0, symBinAddr: 0x81B70, symSize: 0x50 }
  - { offsetInCU: 0x2D503, offset: 0x2EEAD4, size: 0x8, addend: 0x0, symName: '__ZN4core3ptr103drop_in_place$LT$syn..punctuated..Punctuated$LT$syn..generics..GenericParam$C$syn..token..Comma$GT$$GT$17h0c6077a988036760E', symObjAddr: 0x520, symBinAddr: 0x81BC0, symSize: 0xF0 }
  - { offsetInCU: 0x2D9FE, offset: 0x2EEFCF, size: 0x8, addend: 0x0, symName: '__ZN4core3ptr104drop_in_place$LT$syn..punctuated..Punctuated$LT$syn..generics..TypeParamBound$C$syn..token..Plus$GT$$GT$17h724e4d9d1d65061aE', symObjAddr: 0x610, symBinAddr: 0x81CB0, symSize: 0x190 }
  - { offsetInCU: 0x2E021, offset: 0x2EF5F2, size: 0x8, addend: 0x0, symName: '__ZN4core3ptr114drop_in_place$LT$core..option..Option$LT$$LP$syn..token..If$C$alloc..boxed..Box$LT$syn..expr..Expr$GT$$RP$$GT$$GT$17h65df04de8e20ab0aE.llvm.3179342279309578476', symObjAddr: 0x7A0, symBinAddr: 0x81E40, symSize: 0x0 }
  - { offsetInCU: 0x2E250, offset: 0x2EF821, size: 0x8, addend: 0x0, symName: '__ZN4core3ptr34drop_in_place$LT$syn..lit..Lit$GT$17hd64dde89a262341dE.llvm.3179342279309578476', symObjAddr: 0x7F0, symBinAddr: 0x81E90, symSize: 0x130 }
  - { offsetInCU: 0x2E789, offset: 0x2EFD5A, size: 0x8, addend: 0x0, symName: '__ZN4core3ptr34drop_in_place$LT$syn..pat..Pat$GT$17hf88887878261d63cE.llvm.3179342279309578476', symObjAddr: 0x920, symBinAddr: 0x81FC0, symSize: 0x1100 }
  - { offsetInCU: 0x32E02, offset: 0x2F43D3, size: 0x8, addend: 0x0, symName: '__ZN4core3ptr34drop_in_place$LT$syn..ty..Type$GT$17ha80dd29b0f9d4a3fE.llvm.3179342279309578476', symObjAddr: 0x1A20, symBinAddr: 0x830C0, symSize: 0x520 }
  - { offsetInCU: 0x33EC6, offset: 0x2F5497, size: 0x8, addend: 0x0, symName: '__ZN4core3ptr35drop_in_place$LT$syn..expr..Arm$GT$17hd729aea1406305a9E', symObjAddr: 0x1F40, symBinAddr: 0x835E0, symSize: 0x160 }
  - { offsetInCU: 0x3497F, offset: 0x2F5F50, size: 0x8, addend: 0x0, symName: '__ZN4core3ptr36drop_in_place$LT$syn..expr..Expr$GT$17h10f573b40ddd212cE.llvm.3179342279309578476', symObjAddr: 0x20A0, symBinAddr: 0x83740, symSize: 0x2550 }
  - { offsetInCU: 0x3DD96, offset: 0x2FF367, size: 0x8, addend: 0x0, symName: '__ZN4core3ptr36drop_in_place$LT$syn..mac..Macro$GT$17hc3b30a7a8a34cc2dE.llvm.3179342279309578476', symObjAddr: 0x45F0, symBinAddr: 0x85C90, symSize: 0x40 }
  - { offsetInCU: 0x3DDD0, offset: 0x2FF3A1, size: 0x8, addend: 0x0, symName: '__ZN4core3ptr36drop_in_place$LT$syn..path..Path$GT$17h75c74a97d5f0a03bE.llvm.3179342279309578476', symObjAddr: 0x4630, symBinAddr: 0x85CD0, symSize: 0x280 }
  - { offsetInCU: 0x3E8BB, offset: 0x2FFE8C, size: 0x8, addend: 0x0, symName: '__ZN4core3ptr37drop_in_place$LT$syn..lit..LitInt$GT$17hb1d9c894162666f0E.llvm.3179342279309578476', symObjAddr: 0x48B0, symBinAddr: 0x85F50, symSize: 0x70 }
  - { offsetInCU: 0x3EC4C, offset: 0x30021D, size: 0x8, addend: 0x0, symName: '__ZN4core3ptr37drop_in_place$LT$syn..stmt..Block$GT$17h6fc3254d5688f2c3E.llvm.3179342279309578476', symObjAddr: 0x4920, symBinAddr: 0x85FC0, symSize: 0xD0 }
  - { offsetInCU: 0x3EF61, offset: 0x300532, size: 0x8, addend: 0x0, symName: '__ZN4core3ptr38drop_in_place$LT$syn..expr..ExprIf$GT$17ha8d3c2042f45d05fE', symObjAddr: 0x49F0, symBinAddr: 0x86090, symSize: 0x200 }
  - { offsetInCU: 0x3F81D, offset: 0x300DEE, size: 0x8, addend: 0x0, symName: '__ZN4core3ptr38drop_in_place$LT$syn..expr..Member$GT$17h6b0cf84594ce6bceE.llvm.3179342279309578476', symObjAddr: 0x4BF0, symBinAddr: 0x86290, symSize: 0x30 }
  - { offsetInCU: 0x3F919, offset: 0x300EEA, size: 0x8, addend: 0x0, symName: '__ZN4core3ptr39drop_in_place$LT$proc_macro2..Ident$GT$17ha28fef9769e267d9E.llvm.3179342279309578476', symObjAddr: 0x4C20, symBinAddr: 0x862C0, symSize: 0x30 }
  - { offsetInCU: 0x3F9F6, offset: 0x300FC7, size: 0x8, addend: 0x0, symName: '__ZN4core3ptr40drop_in_place$LT$syn..ty..ReturnType$GT$17h035a612e322b6510E.llvm.3179342279309578476', symObjAddr: 0x4FB0, symBinAddr: 0x862F0, symSize: 0x50 }
  - { offsetInCU: 0x3FB66, offset: 0x301137, size: 0x8, addend: 0x0, symName: '__ZN4core3ptr41drop_in_place$LT$syn..expr..ExprConst$GT$17hbfe19d5d621e6836E', symObjAddr: 0x5030, symBinAddr: 0x86340, symSize: 0x180 }
  - { offsetInCU: 0x40172, offset: 0x301743, size: 0x8, addend: 0x0, symName: '__ZN4core3ptr44drop_in_place$LT$syn..lifetime..Lifetime$GT$17he37fa474f03de7b1E', symObjAddr: 0x58E0, symBinAddr: 0x864C0, symSize: 0x30 }
  - { offsetInCU: 0x402EA, offset: 0x3018BB, size: 0x8, addend: 0x0, symName: '__ZN4core3ptr44drop_in_place$LT$syn..parse..ParseBuffer$GT$17hf792ff20095efc35E', symObjAddr: 0x5910, symBinAddr: 0x864F0, symSize: 0x70 }
  - { offsetInCU: 0x40701, offset: 0x301CD2, size: 0x8, addend: 0x0, symName: '__ZN4core3ptr45drop_in_place$LT$proc_macro2..TokenStream$GT$17h76e8e68015f4924dE.llvm.3179342279309578476', symObjAddr: 0x5980, symBinAddr: 0x86560, symSize: 0x140 }
  - { offsetInCU: 0x40B9B, offset: 0x30216C, size: 0x8, addend: 0x0, symName: '__ZN4core3ptr45drop_in_place$LT$syn..generics..TypeParam$GT$17h188a459c1380ac75E', symObjAddr: 0x5AC0, symBinAddr: 0x866A0, symSize: 0x230 }
  - { offsetInCU: 0x4146D, offset: 0x302A3E, size: 0x8, addend: 0x0, symName: '__ZN4core3ptr46drop_in_place$LT$syn..expr..ExprMethodCall$GT$17hcac390ae151688a0E', symObjAddr: 0x5CF0, symBinAddr: 0x868D0, symSize: 0x340 }
  - { offsetInCU: 0x422BA, offset: 0x30388B, size: 0x8, addend: 0x0, symName: '__ZN4core3ptr46drop_in_place$LT$syn..generics..ConstParam$GT$17h7a9b900b2b88bfcdE', symObjAddr: 0x6030, symBinAddr: 0x86C10, symSize: 0x150 }
  - { offsetInCU: 0x427B7, offset: 0x303D88, size: 0x8, addend: 0x0, symName: '__ZN4core3ptr47drop_in_place$LT$syn..path..GenericArgument$GT$17h593f06d6ca9a94d2E', symObjAddr: 0x61B0, symBinAddr: 0x86D60, symSize: 0x4A0 }
  - { offsetInCU: 0x438BD, offset: 0x304E8E, size: 0x8, addend: 0x0, symName: '__ZN4core3ptr49drop_in_place$LT$syn..generics..LifetimeParam$GT$17h3a8835ab294bfd16E', symObjAddr: 0x6650, symBinAddr: 0x87200, symSize: 0xF0 }
  - { offsetInCU: 0x43CD4, offset: 0x3052A5, size: 0x8, addend: 0x0, symName: '__ZN4core3ptr50drop_in_place$LT$syn..generics..TypeParamBound$GT$17h81b4325b5900604dE', symObjAddr: 0x6740, symBinAddr: 0x872F0, symSize: 0x1C0 }
  - { offsetInCU: 0x44231, offset: 0x305802, size: 0x8, addend: 0x0, symName: '__ZN4core3ptr58drop_in_place$LT$alloc..vec..Vec$LT$syn..expr..Arm$GT$$GT$17hff9224aadf2233b8E.llvm.3179342279309578476', symObjAddr: 0x6900, symBinAddr: 0x874B0, symSize: 0xD0 }
  - { offsetInCU: 0x444F1, offset: 0x305AC2, size: 0x8, addend: 0x0, symName: '__ZN4core3ptr59drop_in_place$LT$alloc..boxed..Box$LT$syn..pat..Pat$GT$$GT$17h622b0c1db21c0742E.llvm.3179342279309578476', symObjAddr: 0x69D0, symBinAddr: 0x87580, symSize: 0x50 }
  - { offsetInCU: 0x4464A, offset: 0x305C1B, size: 0x8, addend: 0x0, symName: '__ZN4core3ptr59drop_in_place$LT$alloc..boxed..Box$LT$syn..ty..Type$GT$$GT$17hde45fa887dd8b605E.llvm.3179342279309578476', symObjAddr: 0x6A20, symBinAddr: 0x875D0, symSize: 0x50 }
  - { offsetInCU: 0x447A3, offset: 0x305D74, size: 0x8, addend: 0x0, symName: '__ZN4core3ptr59drop_in_place$LT$alloc..vec..Vec$LT$syn..stmt..Stmt$GT$$GT$17h6cf3e54f41bc03bdE', symObjAddr: 0x6A70, symBinAddr: 0x87620, symSize: 0xD0 }
  - { offsetInCU: 0x44A63, offset: 0x306034, size: 0x8, addend: 0x0, symName: '__ZN4core3ptr61drop_in_place$LT$alloc..boxed..Box$LT$syn..expr..Expr$GT$$GT$17hbb42293869113942E.llvm.3179342279309578476', symObjAddr: 0x6B40, symBinAddr: 0x876F0, symSize: 0x50 }
  - { offsetInCU: 0x44BDB, offset: 0x3061AC, size: 0x8, addend: 0x0, symName: '__ZN4core3ptr61drop_in_place$LT$alloc..vec..Vec$LT$syn..expr..ExprIf$GT$$GT$17h974b97c8babb35d3E', symObjAddr: 0x6B90, symBinAddr: 0x87740, symSize: 0xD0 }
  - { offsetInCU: 0x44F19, offset: 0x3064EA, size: 0x8, addend: 0x0, symName: '__ZN4core3ptr61drop_in_place$LT$syn..path..ParenthesizedGenericArguments$GT$17h6b1731382637937fE', symObjAddr: 0x6C60, symBinAddr: 0x87810, symSize: 0x170 }
  - { offsetInCU: 0x4550F, offset: 0x306AE0, size: 0x8, addend: 0x0, symName: '__ZN4core3ptr62drop_in_place$LT$syn..path..AngleBracketedGenericArguments$GT$17hf8fa172f007a1473E', symObjAddr: 0x6DD0, symBinAddr: 0x87980, symSize: 0x120 }
  - { offsetInCU: 0x4595A, offset: 0x306F2B, size: 0x8, addend: 0x0, symName: '__ZN4core3ptr63drop_in_place$LT$alloc..boxed..Box$LT$syn..lit..LitRepr$GT$$GT$17h6e3a82ea4de7b84cE', symObjAddr: 0x6EF0, symBinAddr: 0x87AA0, symSize: 0x60 }
  - { offsetInCU: 0x45C42, offset: 0x307213, size: 0x8, addend: 0x0, symName: '__ZN4core3ptr64drop_in_place$LT$alloc..boxed..Box$LT$syn..pat..FieldPat$GT$$GT$17hbf8f4867d84bd25dE', symObjAddr: 0x6F50, symBinAddr: 0x87B00, symSize: 0x140 }
  - { offsetInCU: 0x46343, offset: 0x307914, size: 0x8, addend: 0x0, symName: '__ZN4core3ptr64drop_in_place$LT$alloc..boxed..Box$LT$syn..ty..BareFnArg$GT$$GT$17h6be6354eb1d1364dE', symObjAddr: 0x7090, symBinAddr: 0x87C40, symSize: 0x140 }
  - { offsetInCU: 0x468CC, offset: 0x307E9D, size: 0x8, addend: 0x0, symName: '__ZN4core3ptr64drop_in_place$LT$alloc..vec..Vec$LT$syn..attr..Attribute$GT$$GT$17he33e25539d5885aeE.llvm.3179342279309578476', symObjAddr: 0x71D0, symBinAddr: 0x87D80, symSize: 0xD0 }
  - { offsetInCU: 0x46BC0, offset: 0x308191, size: 0x8, addend: 0x0, symName: '__ZN4core3ptr65drop_in_place$LT$alloc..vec..Vec$LT$proc_macro..TokenTree$GT$$GT$17h8abd81f8596dbc59E.llvm.3179342279309578476', symObjAddr: 0x72A0, symBinAddr: 0x87E50, symSize: 0x110 }
  - { offsetInCU: 0x46FB8, offset: 0x308589, size: 0x8, addend: 0x0, symName: '__ZN4core3ptr65drop_in_place$LT$core..option..Option$LT$syn..expr..Label$GT$$GT$17hac599686b33ef364E.llvm.3179342279309578476', symObjAddr: 0x73B0, symBinAddr: 0x87F60, symSize: 0x30 }
  - { offsetInCU: 0x470F2, offset: 0x3086C3, size: 0x8, addend: 0x0, symName: '__ZN4core3ptr65drop_in_place$LT$core..option..Option$LT$syn..path..QSelf$GT$$GT$17h0b8dd5cda5f2cd6bE.llvm.3179342279309578476', symObjAddr: 0x73E0, symBinAddr: 0x87F90, symSize: 0x50 }
  - { offsetInCU: 0x47289, offset: 0x30885A, size: 0x8, addend: 0x0, symName: '__ZN4core3ptr66drop_in_place$LT$core..option..Option$LT$syn..pat..PatRest$GT$$GT$17hd5bb3bc28aa78ac1E', symObjAddr: 0x7430, symBinAddr: 0x87FE0, symSize: 0xE0 }
  - { offsetInCU: 0x475B1, offset: 0x308B82, size: 0x8, addend: 0x0, symName: '__ZN4core3ptr67drop_in_place$LT$alloc..boxed..Box$LT$syn..expr..FieldValue$GT$$GT$17hbbcf67a9d5e9863cE', symObjAddr: 0x7510, symBinAddr: 0x880C0, symSize: 0x140 }
  - { offsetInCU: 0x47B1A, offset: 0x3090EB, size: 0x8, addend: 0x0, symName: '__ZN4core3ptr68drop_in_place$LT$alloc..boxed..Box$LT$syn..path..PathSegment$GT$$GT$17h99aaf90b3262bc1eE', symObjAddr: 0x7650, symBinAddr: 0x88200, symSize: 0x1B0 }
  - { offsetInCU: 0x48228, offset: 0x3097F9, size: 0x8, addend: 0x0, symName: '__ZN4core3ptr70drop_in_place$LT$core..option..Option$LT$syn..ty..BareVariadic$GT$$GT$17h79a19250e9f043b1E', symObjAddr: 0x7800, symBinAddr: 0x883B0, symSize: 0x100 }
  - { offsetInCU: 0x48693, offset: 0x309C64, size: 0x8, addend: 0x0, symName: '__ZN4core3ptr72drop_in_place$LT$alloc..boxed..Box$LT$syn..path..GenericArgument$GT$$GT$17hfd308d374af4273dE', symObjAddr: 0x7900, symBinAddr: 0x884B0, symSize: 0x1D0 }
  - { offsetInCU: 0x48C2E, offset: 0x30A1FF, size: 0x8, addend: 0x0, symName: '__ZN4core3ptr72drop_in_place$LT$core..option..Option$LT$syn..lifetime..Lifetime$GT$$GT$17h49cce6f02f9c0590E.llvm.3179342279309578476', symObjAddr: 0x7AD0, symBinAddr: 0x88680, symSize: 0x30 }
  - { offsetInCU: 0x48D49, offset: 0x30A31A, size: 0x8, addend: 0x0, symName: '__ZN4core3ptr73drop_in_place$LT$alloc..boxed..Box$LT$syn..generics..GenericParam$GT$$GT$17ha26d5d145af4b203E', symObjAddr: 0x7B00, symBinAddr: 0x886B0, symSize: 0x80 }
  - { offsetInCU: 0x48EBF, offset: 0x30A490, size: 0x8, addend: 0x0, symName: '__ZN4core3ptr75drop_in_place$LT$alloc..boxed..Box$LT$syn..generics..TypeParamBound$GT$$GT$17h129a4e927e5eb81bE', symObjAddr: 0x7B80, symBinAddr: 0x88730, symSize: 0xC0 }
  - { offsetInCU: 0x491B6, offset: 0x30A787, size: 0x8, addend: 0x0, symName: '__ZN4core3ptr78drop_in_place$LT$core..option..Option$LT$syn..generics..BoundLifetimes$GT$$GT$17hcc2c861c1632285dE.llvm.3179342279309578476', symObjAddr: 0x7C40, symBinAddr: 0x887F0, symSize: 0x20 }
  - { offsetInCU: 0x4924B, offset: 0x30A81C, size: 0x8, addend: 0x0, symName: '__ZN4core3ptr86drop_in_place$LT$syn..punctuated..Punctuated$LT$syn..pat..Pat$C$syn..token..Or$GT$$GT$17h9cc6b5f7b6d3a555E', symObjAddr: 0x7C60, symBinAddr: 0x88810, symSize: 0x120 }
  - { offsetInCU: 0x496C6, offset: 0x30AC97, size: 0x8, addend: 0x0, symName: '__ZN4core3ptr87drop_in_place$LT$core..option..Option$LT$alloc..boxed..Box$LT$syn..pat..Pat$GT$$GT$$GT$17h51cd48973d96c411E', symObjAddr: 0x7D80, symBinAddr: 0x88930, symSize: 0x50 }
  - { offsetInCU: 0x49836, offset: 0x30AE07, size: 0x8, addend: 0x0, symName: '__ZN4core3ptr87drop_in_place$LT$core..option..Option$LT$alloc..boxed..Box$LT$syn..ty..Type$GT$$GT$$GT$17h103a25a4a7d7374eE', symObjAddr: 0x7DD0, symBinAddr: 0x88980, symSize: 0x50 }
  - { offsetInCU: 0x499A6, offset: 0x30AF77, size: 0x8, addend: 0x0, symName: '__ZN4core3ptr88drop_in_place$LT$$LP$syn..token..Else$C$alloc..boxed..Box$LT$syn..expr..Expr$GT$$RP$$GT$17ha4aa82534fb17f55E', symObjAddr: 0x7E20, symBinAddr: 0x889D0, symSize: 0x50 }
  - { offsetInCU: 0x49B1E, offset: 0x30B0EF, size: 0x8, addend: 0x0, symName: '__ZN4core3ptr89drop_in_place$LT$core..option..Option$LT$alloc..boxed..Box$LT$syn..expr..Expr$GT$$GT$$GT$17h9e02509cb2345d44E.llvm.3179342279309578476', symObjAddr: 0x7E70, symBinAddr: 0x88A20, symSize: 0x50 }
  - { offsetInCU: 0x49CCC, offset: 0x30B29D, size: 0x8, addend: 0x0, symName: '__ZN4core3ptr89drop_in_place$LT$syn..punctuated..Punctuated$LT$syn..pat..Pat$C$syn..token..Comma$GT$$GT$17hd3a83c36827f210aE.llvm.3179342279309578476', symObjAddr: 0x7EC0, symBinAddr: 0x88A70, symSize: 0x120 }
  - { offsetInCU: 0x4A15E, offset: 0x30B72F, size: 0x8, addend: 0x0, symName: '__ZN4core3ptr89drop_in_place$LT$syn..punctuated..Punctuated$LT$syn..ty..Type$C$syn..token..Comma$GT$$GT$17he030c4b7f24a5848E', symObjAddr: 0x7FE0, symBinAddr: 0x88B90, symSize: 0x120 }
  - { offsetInCU: 0x4A5D9, offset: 0x30BBAA, size: 0x8, addend: 0x0, symName: '__ZN4core3ptr90drop_in_place$LT$core..option..Option$LT$syn..path..AngleBracketedGenericArguments$GT$$GT$17ha307713a95a0671eE.llvm.3179342279309578476', symObjAddr: 0x8100, symBinAddr: 0x88CB0, symSize: 0x130 }
  - { offsetInCU: 0x4AA3D, offset: 0x30C00E, size: 0x8, addend: 0x0, symName: '__ZN4core3ptr91drop_in_place$LT$syn..punctuated..Punctuated$LT$syn..expr..Expr$C$syn..token..Comma$GT$$GT$17h6f261e8f470c81f2E.llvm.3179342279309578476', symObjAddr: 0x8230, symBinAddr: 0x88DE0, symSize: 0x120 }
  - { offsetInCU: 0x4AEB8, offset: 0x30C489, size: 0x8, addend: 0x0, symName: '__ZN4core3ptr94drop_in_place$LT$syn..punctuated..Punctuated$LT$syn..pat..FieldPat$C$syn..token..Comma$GT$$GT$17h43ec25af986ef674E', symObjAddr: 0x8350, symBinAddr: 0x88F00, symSize: 0xF0 }
  - { offsetInCU: 0x4B1B7, offset: 0x30C788, size: 0x8, addend: 0x0, symName: '__ZN4core3ptr94drop_in_place$LT$syn..punctuated..Punctuated$LT$syn..ty..BareFnArg$C$syn..token..Comma$GT$$GT$17h7ba4c699ee390ebaE', symObjAddr: 0x8440, symBinAddr: 0x88FF0, symSize: 0xF0 }
  - { offsetInCU: 0x4B4B8, offset: 0x30CA89, size: 0x8, addend: 0x0, symName: '__ZN4core3ptr95drop_in_place$LT$core..option..Option$LT$$LP$proc_macro2..Ident$C$syn..token..Colon$RP$$GT$$GT$17h59fe297999aa3329E', symObjAddr: 0x8530, symBinAddr: 0x890E0, symSize: 0x30 }
  - { offsetInCU: 0x4B5D3, offset: 0x30CBA4, size: 0x8, addend: 0x0, symName: '__ZN4core3ptr96drop_in_place$LT$core..option..Option$LT$alloc..boxed..Box$LT$syn..path..PathSegment$GT$$GT$$GT$17h5de12a5a0f9e9ef9E', symObjAddr: 0x8560, symBinAddr: 0x89110, symSize: 0xA0 }
  - { offsetInCU: 0x4B852, offset: 0x30CE23, size: 0x8, addend: 0x0, symName: '__ZN4core3ptr97drop_in_place$LT$syn..punctuated..Punctuated$LT$syn..expr..FieldValue$C$syn..token..Comma$GT$$GT$17hf58d0a9a09266ab3E.llvm.3179342279309578476', symObjAddr: 0x8600, symBinAddr: 0x891B0, symSize: 0xF0 }
  - { offsetInCU: 0x4BBCB, offset: 0x30D19C, size: 0x8, addend: 0x0, symName: '__ZN4core3ptr98drop_in_place$LT$syn..punctuated..Punctuated$LT$syn..lifetime..Lifetime$C$syn..token..Plus$GT$$GT$17h600c2b78f78fd2b9E', symObjAddr: 0x86F0, symBinAddr: 0x892A0, symSize: 0xD0 }
  - { offsetInCU: 0x4E0FF, offset: 0x30F6D0, size: 0x8, addend: 0x0, symName: '__ZN66_$LT$core..option..Option$LT$T$GT$$u20$as$u20$core..fmt..Debug$GT$3fmt17h04cdf44a1722b195E.llvm.3179342279309578476', symObjAddr: 0x88B0, symBinAddr: 0x893B0, symSize: 0x60 }
  - { offsetInCU: 0x4E165, offset: 0x30F736, size: 0x8, addend: 0x0, symName: '__ZN66_$LT$core..option..Option$LT$T$GT$$u20$as$u20$core..fmt..Debug$GT$3fmt17h13a5298de0d8de7cE.llvm.3179342279309578476', symObjAddr: 0x8910, symBinAddr: 0x89410, symSize: 0x50 }
  - { offsetInCU: 0x4E1CB, offset: 0x30F79C, size: 0x8, addend: 0x0, symName: '__ZN66_$LT$core..option..Option$LT$T$GT$$u20$as$u20$core..fmt..Debug$GT$3fmt17h200330ddec3c07f8E.llvm.3179342279309578476', symObjAddr: 0x8960, symBinAddr: 0x89460, symSize: 0x50 }
  - { offsetInCU: 0x4E231, offset: 0x30F802, size: 0x8, addend: 0x0, symName: '__ZN66_$LT$core..option..Option$LT$T$GT$$u20$as$u20$core..fmt..Debug$GT$3fmt17h23176864c8b101b1E.llvm.3179342279309578476', symObjAddr: 0x89B0, symBinAddr: 0x894B0, symSize: 0x60 }
  - { offsetInCU: 0x4E297, offset: 0x30F868, size: 0x8, addend: 0x0, symName: '__ZN66_$LT$core..option..Option$LT$T$GT$$u20$as$u20$core..fmt..Debug$GT$3fmt17h23a526921c844048E.llvm.3179342279309578476', symObjAddr: 0x8A10, symBinAddr: 0x89510, symSize: 0x60 }
  - { offsetInCU: 0x4E2FD, offset: 0x30F8CE, size: 0x8, addend: 0x0, symName: '__ZN66_$LT$core..option..Option$LT$T$GT$$u20$as$u20$core..fmt..Debug$GT$3fmt17h271adc8902619c7cE.llvm.3179342279309578476', symObjAddr: 0x8A70, symBinAddr: 0x89570, symSize: 0x60 }
  - { offsetInCU: 0x4E363, offset: 0x30F934, size: 0x8, addend: 0x0, symName: '__ZN66_$LT$core..option..Option$LT$T$GT$$u20$as$u20$core..fmt..Debug$GT$3fmt17h469430087ecec644E.llvm.3179342279309578476', symObjAddr: 0x8AD0, symBinAddr: 0x895D0, symSize: 0x50 }
  - { offsetInCU: 0x4E3C9, offset: 0x30F99A, size: 0x8, addend: 0x0, symName: '__ZN66_$LT$core..option..Option$LT$T$GT$$u20$as$u20$core..fmt..Debug$GT$3fmt17h55f5988edbdf8edcE.llvm.3179342279309578476', symObjAddr: 0x8B20, symBinAddr: 0x89620, symSize: 0x50 }
  - { offsetInCU: 0x4E42F, offset: 0x30FA00, size: 0x8, addend: 0x0, symName: '__ZN66_$LT$core..option..Option$LT$T$GT$$u20$as$u20$core..fmt..Debug$GT$3fmt17h8cffe639c8ff1980E', symObjAddr: 0x8B70, symBinAddr: 0x89670, symSize: 0x50 }
  - { offsetInCU: 0x4E495, offset: 0x30FA66, size: 0x8, addend: 0x0, symName: '__ZN66_$LT$core..option..Option$LT$T$GT$$u20$as$u20$core..fmt..Debug$GT$3fmt17h90598f4ce81c56a1E.llvm.3179342279309578476', symObjAddr: 0x8BC0, symBinAddr: 0x896C0, symSize: 0x50 }
  - { offsetInCU: 0x4E4FB, offset: 0x30FACC, size: 0x8, addend: 0x0, symName: '__ZN66_$LT$core..option..Option$LT$T$GT$$u20$as$u20$core..fmt..Debug$GT$3fmt17hb1ad12f8169eaa9eE.llvm.3179342279309578476', symObjAddr: 0x8C10, symBinAddr: 0x89710, symSize: 0x50 }
  - { offsetInCU: 0x4E561, offset: 0x30FB32, size: 0x8, addend: 0x0, symName: '__ZN66_$LT$core..option..Option$LT$T$GT$$u20$as$u20$core..fmt..Debug$GT$3fmt17hc4565ff8152e74ddE', symObjAddr: 0x8C60, symBinAddr: 0x89760, symSize: 0x60 }
  - { offsetInCU: 0x4E5C7, offset: 0x30FB98, size: 0x8, addend: 0x0, symName: '__ZN66_$LT$core..option..Option$LT$T$GT$$u20$as$u20$core..fmt..Debug$GT$3fmt17hc679ed963eefad6cE.llvm.3179342279309578476', symObjAddr: 0x8CC0, symBinAddr: 0x897C0, symSize: 0x60 }
  - { offsetInCU: 0x4E62D, offset: 0x30FBFE, size: 0x8, addend: 0x0, symName: '__ZN66_$LT$core..option..Option$LT$T$GT$$u20$as$u20$core..fmt..Debug$GT$3fmt17hd97ab819e391d0b4E.llvm.3179342279309578476', symObjAddr: 0x8D20, symBinAddr: 0x89820, symSize: 0x50 }
  - { offsetInCU: 0x4E693, offset: 0x30FC64, size: 0x8, addend: 0x0, symName: '__ZN66_$LT$core..option..Option$LT$T$GT$$u20$as$u20$core..fmt..Debug$GT$3fmt17hdf4568a624685b8eE.llvm.3179342279309578476', symObjAddr: 0x8D70, symBinAddr: 0x89870, symSize: 0x60 }
  - { offsetInCU: 0x4E6F9, offset: 0x30FCCA, size: 0x8, addend: 0x0, symName: '__ZN66_$LT$core..option..Option$LT$T$GT$$u20$as$u20$core..fmt..Debug$GT$3fmt17he5c6d035a7e6347eE.llvm.3179342279309578476', symObjAddr: 0x8DD0, symBinAddr: 0x898D0, symSize: 0x60 }
  - { offsetInCU: 0x4EE33, offset: 0x310404, size: 0x8, addend: 0x0, symName: '__ZN42_$LT$$RF$T$u20$as$u20$core..fmt..Debug$GT$3fmt17h22704bd9d9420e95E', symObjAddr: 0x0, symBinAddr: 0x817A0, symSize: 0x10 }
  - { offsetInCU: 0x4EE79, offset: 0x31044A, size: 0x8, addend: 0x0, symName: '__ZN42_$LT$$RF$T$u20$as$u20$core..fmt..Debug$GT$3fmt17h723b77224bb7bdc5E', symObjAddr: 0x10, symBinAddr: 0x817B0, symSize: 0x10 }
  - { offsetInCU: 0x4EEBF, offset: 0x310490, size: 0x8, addend: 0x0, symName: '__ZN42_$LT$$RF$T$u20$as$u20$core..fmt..Debug$GT$3fmt17hf4f9a6c03daabda3E', symObjAddr: 0x20, symBinAddr: 0x817C0, symSize: 0x80 }
  - { offsetInCU: 0x4F02B, offset: 0x3105FC, size: 0x8, addend: 0x0, symName: '__ZN4core3fmt3num50_$LT$impl$u20$core..fmt..Debug$u20$for$u20$u32$GT$3fmt17h9b07e82d325fa811E', symObjAddr: 0x1A0, symBinAddr: 0x81840, symSize: 0x30 }
  - { offsetInCU: 0x5293A, offset: 0x313F0B, size: 0x8, addend: 0x0, symName: __ZN5alloc5alloc15exchange_malloc17h9a87608d0224859dE, symObjAddr: 0x87E0, symBinAddr: 0x89370, symSize: 0x40 }
  - { offsetInCU: 0x548E0, offset: 0x315EB1, size: 0x8, addend: 0x0, symName: '__ZN69_$LT$alloc..boxed..Box$LT$T$C$A$GT$$u20$as$u20$core..clone..Clone$GT$5clone17h4fb5c51762622d36E', symObjAddr: 0x8E30, symBinAddr: 0x89930, symSize: 0x90 }
  - { offsetInCU: 0x55342, offset: 0x316913, size: 0x8, addend: 0x0, symName: _anon.274812f888e021c8bd305ab4cf6cfb10.41.llvm.3179342279309578476, symObjAddr: 0x24AF8, symBinAddr: 0x271D38, symSize: 0x0 }
  - { offsetInCU: 0x5538D, offset: 0x31695E, size: 0x8, addend: 0x0, symName: _anon.274812f888e021c8bd305ab4cf6cfb10.49.llvm.3179342279309578476, symObjAddr: 0x24B78, symBinAddr: 0x271DB8, symSize: 0x0 }
  - { offsetInCU: 0x553D8, offset: 0x3169A9, size: 0x8, addend: 0x0, symName: _anon.274812f888e021c8bd305ab4cf6cfb10.91.llvm.3179342279309578476, symObjAddr: 0x24BB8, symBinAddr: 0x271DF8, symSize: 0x0 }
  - { offsetInCU: 0x55423, offset: 0x3169F4, size: 0x8, addend: 0x0, symName: _anon.274812f888e021c8bd305ab4cf6cfb10.95.llvm.3179342279309578476, symObjAddr: 0x24BD8, symBinAddr: 0x271E18, symSize: 0x0 }
  - { offsetInCU: 0x5546E, offset: 0x316A3F, size: 0x8, addend: 0x0, symName: _anon.274812f888e021c8bd305ab4cf6cfb10.97.llvm.3179342279309578476, symObjAddr: 0x24BF8, symBinAddr: 0x271E38, symSize: 0x0 }
  - { offsetInCU: 0x554B9, offset: 0x316A8A, size: 0x8, addend: 0x0, symName: _anon.274812f888e021c8bd305ab4cf6cfb10.101.llvm.3179342279309578476, symObjAddr: 0x24C18, symBinAddr: 0x271E58, symSize: 0x0 }
  - { offsetInCU: 0x55504, offset: 0x316AD5, size: 0x8, addend: 0x0, symName: _anon.274812f888e021c8bd305ab4cf6cfb10.105.llvm.3179342279309578476, symObjAddr: 0x24C38, symBinAddr: 0x271E78, symSize: 0x0 }
  - { offsetInCU: 0x5554F, offset: 0x316B20, size: 0x8, addend: 0x0, symName: _anon.274812f888e021c8bd305ab4cf6cfb10.107.llvm.3179342279309578476, symObjAddr: 0x24C58, symBinAddr: 0x271E98, symSize: 0x0 }
  - { offsetInCU: 0x5559A, offset: 0x316B6B, size: 0x8, addend: 0x0, symName: _anon.274812f888e021c8bd305ab4cf6cfb10.109.llvm.3179342279309578476, symObjAddr: 0x24C78, symBinAddr: 0x271EB8, symSize: 0x0 }
  - { offsetInCU: 0x555E5, offset: 0x316BB6, size: 0x8, addend: 0x0, symName: _anon.274812f888e021c8bd305ab4cf6cfb10.113.llvm.3179342279309578476, symObjAddr: 0x24C98, symBinAddr: 0x271ED8, symSize: 0x0 }
  - { offsetInCU: 0x55630, offset: 0x316C01, size: 0x8, addend: 0x0, symName: _anon.274812f888e021c8bd305ab4cf6cfb10.115.llvm.3179342279309578476, symObjAddr: 0x24CB8, symBinAddr: 0x271EF8, symSize: 0x0 }
  - { offsetInCU: 0x5567B, offset: 0x316C4C, size: 0x8, addend: 0x0, symName: _anon.274812f888e021c8bd305ab4cf6cfb10.118.llvm.3179342279309578476, symObjAddr: 0x24CD8, symBinAddr: 0x271F18, symSize: 0x0 }
  - { offsetInCU: 0x556C6, offset: 0x316C97, size: 0x8, addend: 0x0, symName: _anon.274812f888e021c8bd305ab4cf6cfb10.121.llvm.3179342279309578476, symObjAddr: 0x24CF8, symBinAddr: 0x271F38, symSize: 0x0 }
  - { offsetInCU: 0x55711, offset: 0x316CE2, size: 0x8, addend: 0x0, symName: _anon.274812f888e021c8bd305ab4cf6cfb10.124.llvm.3179342279309578476, symObjAddr: 0x24D18, symBinAddr: 0x271F58, symSize: 0x0 }
  - { offsetInCU: 0x5575C, offset: 0x316D2D, size: 0x8, addend: 0x0, symName: _anon.274812f888e021c8bd305ab4cf6cfb10.126.llvm.3179342279309578476, symObjAddr: 0x24D38, symBinAddr: 0x271F78, symSize: 0x0 }
  - { offsetInCU: 0x557A7, offset: 0x316D78, size: 0x8, addend: 0x0, symName: _anon.274812f888e021c8bd305ab4cf6cfb10.127.llvm.3179342279309578476, symObjAddr: 0x24D58, symBinAddr: 0x271F98, symSize: 0x0 }
  - { offsetInCU: 0x557F2, offset: 0x316DC3, size: 0x8, addend: 0x0, symName: _anon.274812f888e021c8bd305ab4cf6cfb10.131.llvm.3179342279309578476, symObjAddr: 0x24D78, symBinAddr: 0x271FB8, symSize: 0x0 }
  - { offsetInCU: 0x5583D, offset: 0x316E0E, size: 0x8, addend: 0x0, symName: _anon.274812f888e021c8bd305ab4cf6cfb10.135.llvm.3179342279309578476, symObjAddr: 0x24D98, symBinAddr: 0x271FD8, symSize: 0x0 }
  - { offsetInCU: 0x55888, offset: 0x316E59, size: 0x8, addend: 0x0, symName: _anon.274812f888e021c8bd305ab4cf6cfb10.137.llvm.3179342279309578476, symObjAddr: 0x24DB8, symBinAddr: 0x271FF8, symSize: 0x0 }
  - { offsetInCU: 0x558D3, offset: 0x316EA4, size: 0x8, addend: 0x0, symName: _anon.274812f888e021c8bd305ab4cf6cfb10.140.llvm.3179342279309578476, symObjAddr: 0x24DD8, symBinAddr: 0x272018, symSize: 0x0 }
  - { offsetInCU: 0x5591E, offset: 0x316EEF, size: 0x8, addend: 0x0, symName: _anon.274812f888e021c8bd305ab4cf6cfb10.142.llvm.3179342279309578476, symObjAddr: 0x24DF8, symBinAddr: 0x272038, symSize: 0x0 }
  - { offsetInCU: 0x55969, offset: 0x316F3A, size: 0x8, addend: 0x0, symName: _anon.274812f888e021c8bd305ab4cf6cfb10.144.llvm.3179342279309578476, symObjAddr: 0x24E18, symBinAddr: 0x272058, symSize: 0x0 }
  - { offsetInCU: 0x559B4, offset: 0x316F85, size: 0x8, addend: 0x0, symName: _anon.274812f888e021c8bd305ab4cf6cfb10.146.llvm.3179342279309578476, symObjAddr: 0x24E38, symBinAddr: 0x272078, symSize: 0x0 }
  - { offsetInCU: 0x559FF, offset: 0x316FD0, size: 0x8, addend: 0x0, symName: _anon.274812f888e021c8bd305ab4cf6cfb10.148.llvm.3179342279309578476, symObjAddr: 0x24E58, symBinAddr: 0x272098, symSize: 0x0 }
  - { offsetInCU: 0x55A4A, offset: 0x31701B, size: 0x8, addend: 0x0, symName: _anon.274812f888e021c8bd305ab4cf6cfb10.150.llvm.3179342279309578476, symObjAddr: 0x24E78, symBinAddr: 0x2720B8, symSize: 0x0 }
  - { offsetInCU: 0x55A95, offset: 0x317066, size: 0x8, addend: 0x0, symName: _anon.274812f888e021c8bd305ab4cf6cfb10.153.llvm.3179342279309578476, symObjAddr: 0x24E98, symBinAddr: 0x2720D8, symSize: 0x0 }
  - { offsetInCU: 0x55AE0, offset: 0x3170B1, size: 0x8, addend: 0x0, symName: _anon.274812f888e021c8bd305ab4cf6cfb10.156.llvm.3179342279309578476, symObjAddr: 0x24EB8, symBinAddr: 0x2720F8, symSize: 0x0 }
  - { offsetInCU: 0x55B2B, offset: 0x3170FC, size: 0x8, addend: 0x0, symName: _anon.274812f888e021c8bd305ab4cf6cfb10.159.llvm.3179342279309578476, symObjAddr: 0x24ED8, symBinAddr: 0x272118, symSize: 0x0 }
  - { offsetInCU: 0x55B76, offset: 0x317147, size: 0x8, addend: 0x0, symName: _anon.274812f888e021c8bd305ab4cf6cfb10.162.llvm.3179342279309578476, symObjAddr: 0x24EF8, symBinAddr: 0x272138, symSize: 0x0 }
  - { offsetInCU: 0x55BC1, offset: 0x317192, size: 0x8, addend: 0x0, symName: _anon.274812f888e021c8bd305ab4cf6cfb10.165.llvm.3179342279309578476, symObjAddr: 0x24F18, symBinAddr: 0x272158, symSize: 0x0 }
  - { offsetInCU: 0x55C0C, offset: 0x3171DD, size: 0x8, addend: 0x0, symName: _anon.274812f888e021c8bd305ab4cf6cfb10.167.llvm.3179342279309578476, symObjAddr: 0x24F38, symBinAddr: 0x272178, symSize: 0x0 }
  - { offsetInCU: 0x55C57, offset: 0x317228, size: 0x8, addend: 0x0, symName: _anon.274812f888e021c8bd305ab4cf6cfb10.168.llvm.3179342279309578476, symObjAddr: 0x24F58, symBinAddr: 0x272198, symSize: 0x0 }
  - { offsetInCU: 0x55CA2, offset: 0x317273, size: 0x8, addend: 0x0, symName: _anon.274812f888e021c8bd305ab4cf6cfb10.171.llvm.3179342279309578476, symObjAddr: 0x24F78, symBinAddr: 0x2721B8, symSize: 0x0 }
  - { offsetInCU: 0x55CED, offset: 0x3172BE, size: 0x8, addend: 0x0, symName: _anon.274812f888e021c8bd305ab4cf6cfb10.174.llvm.3179342279309578476, symObjAddr: 0x24F98, symBinAddr: 0x2721D8, symSize: 0x0 }
  - { offsetInCU: 0x55D38, offset: 0x317309, size: 0x8, addend: 0x0, symName: _anon.274812f888e021c8bd305ab4cf6cfb10.178.llvm.3179342279309578476, symObjAddr: 0x24FB8, symBinAddr: 0x2721F8, symSize: 0x0 }
  - { offsetInCU: 0x55D83, offset: 0x317354, size: 0x8, addend: 0x0, symName: _anon.274812f888e021c8bd305ab4cf6cfb10.183.llvm.3179342279309578476, symObjAddr: 0x24FD8, symBinAddr: 0x272218, symSize: 0x0 }
  - { offsetInCU: 0x55DCE, offset: 0x31739F, size: 0x8, addend: 0x0, symName: _anon.274812f888e021c8bd305ab4cf6cfb10.186.llvm.3179342279309578476, symObjAddr: 0x24FF8, symBinAddr: 0x272238, symSize: 0x0 }
  - { offsetInCU: 0x55E19, offset: 0x3173EA, size: 0x8, addend: 0x0, symName: _anon.274812f888e021c8bd305ab4cf6cfb10.189.llvm.3179342279309578476, symObjAddr: 0x25018, symBinAddr: 0x272258, symSize: 0x0 }
  - { offsetInCU: 0x55E64, offset: 0x317435, size: 0x8, addend: 0x0, symName: _anon.274812f888e021c8bd305ab4cf6cfb10.192.llvm.3179342279309578476, symObjAddr: 0x25038, symBinAddr: 0x272278, symSize: 0x0 }
  - { offsetInCU: 0x55EAF, offset: 0x317480, size: 0x8, addend: 0x0, symName: _anon.274812f888e021c8bd305ab4cf6cfb10.195.llvm.3179342279309578476, symObjAddr: 0x25058, symBinAddr: 0x272298, symSize: 0x0 }
  - { offsetInCU: 0x55EFA, offset: 0x3174CB, size: 0x8, addend: 0x0, symName: _anon.274812f888e021c8bd305ab4cf6cfb10.198.llvm.3179342279309578476, symObjAddr: 0x25078, symBinAddr: 0x2722B8, symSize: 0x0 }
  - { offsetInCU: 0x55F45, offset: 0x317516, size: 0x8, addend: 0x0, symName: _anon.274812f888e021c8bd305ab4cf6cfb10.200.llvm.3179342279309578476, symObjAddr: 0x25098, symBinAddr: 0x2722D8, symSize: 0x0 }
  - { offsetInCU: 0x55F90, offset: 0x317561, size: 0x8, addend: 0x0, symName: _anon.274812f888e021c8bd305ab4cf6cfb10.202.llvm.3179342279309578476, symObjAddr: 0x250B8, symBinAddr: 0x2722F8, symSize: 0x0 }
  - { offsetInCU: 0x55FDB, offset: 0x3175AC, size: 0x8, addend: 0x0, symName: _anon.274812f888e021c8bd305ab4cf6cfb10.206.llvm.3179342279309578476, symObjAddr: 0x250D8, symBinAddr: 0x272318, symSize: 0x0 }
  - { offsetInCU: 0x56026, offset: 0x3175F7, size: 0x8, addend: 0x0, symName: _anon.274812f888e021c8bd305ab4cf6cfb10.208.llvm.3179342279309578476, symObjAddr: 0x250F8, symBinAddr: 0x272338, symSize: 0x0 }
  - { offsetInCU: 0x56071, offset: 0x317642, size: 0x8, addend: 0x0, symName: _anon.274812f888e021c8bd305ab4cf6cfb10.212.llvm.3179342279309578476, symObjAddr: 0x25118, symBinAddr: 0x272358, symSize: 0x0 }
  - { offsetInCU: 0x560BC, offset: 0x31768D, size: 0x8, addend: 0x0, symName: _anon.274812f888e021c8bd305ab4cf6cfb10.214.llvm.3179342279309578476, symObjAddr: 0x25138, symBinAddr: 0x272378, symSize: 0x0 }
  - { offsetInCU: 0x56107, offset: 0x3176D8, size: 0x8, addend: 0x0, symName: _anon.274812f888e021c8bd305ab4cf6cfb10.218.llvm.3179342279309578476, symObjAddr: 0x25158, symBinAddr: 0x272398, symSize: 0x0 }
  - { offsetInCU: 0x56152, offset: 0x317723, size: 0x8, addend: 0x0, symName: _anon.274812f888e021c8bd305ab4cf6cfb10.222.llvm.3179342279309578476, symObjAddr: 0x25178, symBinAddr: 0x2723B8, symSize: 0x0 }
  - { offsetInCU: 0x5619D, offset: 0x31776E, size: 0x8, addend: 0x0, symName: _anon.274812f888e021c8bd305ab4cf6cfb10.224.llvm.3179342279309578476, symObjAddr: 0x25198, symBinAddr: 0x2723D8, symSize: 0x0 }
  - { offsetInCU: 0x561E8, offset: 0x3177B9, size: 0x8, addend: 0x0, symName: _anon.274812f888e021c8bd305ab4cf6cfb10.227.llvm.3179342279309578476, symObjAddr: 0x251B8, symBinAddr: 0x2723F8, symSize: 0x0 }
  - { offsetInCU: 0x56233, offset: 0x317804, size: 0x8, addend: 0x0, symName: _anon.274812f888e021c8bd305ab4cf6cfb10.231.llvm.3179342279309578476, symObjAddr: 0x251D8, symBinAddr: 0x272418, symSize: 0x0 }
  - { offsetInCU: 0x5627E, offset: 0x31784F, size: 0x8, addend: 0x0, symName: _anon.274812f888e021c8bd305ab4cf6cfb10.234.llvm.3179342279309578476, symObjAddr: 0x251F8, symBinAddr: 0x272438, symSize: 0x0 }
  - { offsetInCU: 0x562C9, offset: 0x31789A, size: 0x8, addend: 0x0, symName: _anon.274812f888e021c8bd305ab4cf6cfb10.236.llvm.3179342279309578476, symObjAddr: 0x25218, symBinAddr: 0x272458, symSize: 0x0 }
  - { offsetInCU: 0x56314, offset: 0x3178E5, size: 0x8, addend: 0x0, symName: _anon.274812f888e021c8bd305ab4cf6cfb10.240.llvm.3179342279309578476, symObjAddr: 0x25238, symBinAddr: 0x272478, symSize: 0x0 }
  - { offsetInCU: 0x5635F, offset: 0x317930, size: 0x8, addend: 0x0, symName: _anon.274812f888e021c8bd305ab4cf6cfb10.243.llvm.3179342279309578476, symObjAddr: 0x25258, symBinAddr: 0x272498, symSize: 0x0 }
  - { offsetInCU: 0x563AA, offset: 0x31797B, size: 0x8, addend: 0x0, symName: _anon.274812f888e021c8bd305ab4cf6cfb10.247.llvm.3179342279309578476, symObjAddr: 0x25278, symBinAddr: 0x2724B8, symSize: 0x0 }
  - { offsetInCU: 0x563F5, offset: 0x3179C6, size: 0x8, addend: 0x0, symName: _anon.274812f888e021c8bd305ab4cf6cfb10.249.llvm.3179342279309578476, symObjAddr: 0x25298, symBinAddr: 0x2724D8, symSize: 0x0 }
  - { offsetInCU: 0x56440, offset: 0x317A11, size: 0x8, addend: 0x0, symName: _anon.274812f888e021c8bd305ab4cf6cfb10.252.llvm.3179342279309578476, symObjAddr: 0x252B8, symBinAddr: 0x2724F8, symSize: 0x0 }
  - { offsetInCU: 0x5648B, offset: 0x317A5C, size: 0x8, addend: 0x0, symName: _anon.274812f888e021c8bd305ab4cf6cfb10.255.llvm.3179342279309578476, symObjAddr: 0x252D8, symBinAddr: 0x272518, symSize: 0x0 }
  - { offsetInCU: 0x564D6, offset: 0x317AA7, size: 0x8, addend: 0x0, symName: _anon.274812f888e021c8bd305ab4cf6cfb10.258.llvm.3179342279309578476, symObjAddr: 0x252F8, symBinAddr: 0x272538, symSize: 0x0 }
  - { offsetInCU: 0x56521, offset: 0x317AF2, size: 0x8, addend: 0x0, symName: _anon.274812f888e021c8bd305ab4cf6cfb10.260.llvm.3179342279309578476, symObjAddr: 0x25318, symBinAddr: 0x272558, symSize: 0x0 }
  - { offsetInCU: 0x577F0, offset: 0x318DC1, size: 0x8, addend: 0x0, symName: __ZN3syn4expr4Expr13replace_attrs17h81659526e8109ac8E, symObjAddr: 0x9180, symBinAddr: 0x899C0, symSize: 0x110 }
  - { offsetInCU: 0x58AB9, offset: 0x31A08A, size: 0x8, addend: 0x0, symName: '__ZN3syn4expr7parsing40_$LT$impl$u20$syn..expr..RangeLimits$GT$14parse_obsolete17he8a69cc7d9cd98eeE', symObjAddr: 0xF9D0, symBinAddr: 0x8F3E0, symSize: 0x3A0 }
  - { offsetInCU: 0x5A7E1, offset: 0x31BDB2, size: 0x8, addend: 0x0, symName: '__ZN3syn3gen5debug38_$LT$impl$u20$syn..expr..ExprArray$GT$5debug17h6d5efa13339fef8bE.llvm.3179342279309578476', symObjAddr: 0x1CE10, symBinAddr: 0x981A0, symSize: 0x90 }
  - { offsetInCU: 0x5A860, offset: 0x31BE31, size: 0x8, addend: 0x0, symName: '__ZN3syn3gen5debug39_$LT$impl$u20$syn..expr..ExprAssign$GT$5debug17h74a0506d2bd2cae2E.llvm.3179342279309578476', symObjAddr: 0x1CF60, symBinAddr: 0x98230, symSize: 0xB0 }
  - { offsetInCU: 0x5A8DF, offset: 0x31BEB0, size: 0x8, addend: 0x0, symName: '__ZN3syn3gen5debug38_$LT$impl$u20$syn..expr..ExprAsync$GT$5debug17h79bb1a8cfeb6ca58E.llvm.3179342279309578476', symObjAddr: 0x1D0D0, symBinAddr: 0x982E0, symSize: 0xB0 }
  - { offsetInCU: 0x5A95E, offset: 0x31BF2F, size: 0x8, addend: 0x0, symName: '__ZN3syn3gen5debug38_$LT$impl$u20$syn..expr..ExprAwait$GT$5debug17h74eabeaea83d2df0E.llvm.3179342279309578476', symObjAddr: 0x1D240, symBinAddr: 0x98390, symSize: 0xB0 }
  - { offsetInCU: 0x5A9DD, offset: 0x31BFAE, size: 0x8, addend: 0x0, symName: '__ZN3syn3gen5debug39_$LT$impl$u20$syn..expr..ExprBinary$GT$5debug17haf3a4a99381b41c4E.llvm.3179342279309578476', symObjAddr: 0x1D3B0, symBinAddr: 0x98440, symSize: 0xB0 }
  - { offsetInCU: 0x5AA5C, offset: 0x31C02D, size: 0x8, addend: 0x0, symName: '__ZN3syn3gen5debug38_$LT$impl$u20$syn..expr..ExprBlock$GT$5debug17h5ad5c9bb49e9cbebE.llvm.3179342279309578476', symObjAddr: 0x1D500, symBinAddr: 0x984F0, symSize: 0x90 }
  - { offsetInCU: 0x5AADB, offset: 0x31C0AC, size: 0x8, addend: 0x0, symName: '__ZN3syn3gen5debug38_$LT$impl$u20$syn..expr..ExprBreak$GT$5debug17h53edf4c429bcff72E.llvm.3179342279309578476', symObjAddr: 0x1D650, symBinAddr: 0x98580, symSize: 0xB0 }
  - { offsetInCU: 0x5AB5A, offset: 0x31C12B, size: 0x8, addend: 0x0, symName: '__ZN3syn3gen5debug37_$LT$impl$u20$syn..expr..ExprCall$GT$5debug17h439097010ad3712dE.llvm.3179342279309578476', symObjAddr: 0x1D7C0, symBinAddr: 0x98630, symSize: 0xB0 }
  - { offsetInCU: 0x5ABD9, offset: 0x31C1AA, size: 0x8, addend: 0x0, symName: '__ZN3syn3gen5debug37_$LT$impl$u20$syn..expr..ExprCast$GT$5debug17h07fa54ed8569c2ccE.llvm.3179342279309578476', symObjAddr: 0x1D930, symBinAddr: 0x986E0, symSize: 0xB0 }
  - { offsetInCU: 0x5AC2C, offset: 0x31C1FD, size: 0x8, addend: 0x0, symName: '__ZN3syn3gen5debug40_$LT$impl$u20$syn..expr..ExprClosure$GT$5debug17h49560f335ef720a1E.llvm.3179342279309578476', symObjAddr: 0x1DA00, symBinAddr: 0x98790, symSize: 0x1A0 }
  - { offsetInCU: 0x5ACC7, offset: 0x31C298, size: 0x8, addend: 0x0, symName: '__ZN3syn3gen5debug38_$LT$impl$u20$syn..expr..ExprConst$GT$5debug17h7cd844e6de67123eE', symObjAddr: 0x1DC40, symBinAddr: 0x98930, symSize: 0x90 }
  - { offsetInCU: 0x5AD46, offset: 0x31C317, size: 0x8, addend: 0x0, symName: '__ZN3syn3gen5debug41_$LT$impl$u20$syn..expr..ExprContinue$GT$5debug17h25b41b84a3e38629E.llvm.3179342279309578476', symObjAddr: 0x1DD70, symBinAddr: 0x989C0, symSize: 0x90 }
  - { offsetInCU: 0x5ADC5, offset: 0x31C396, size: 0x8, addend: 0x0, symName: '__ZN3syn3gen5debug38_$LT$impl$u20$syn..expr..ExprField$GT$5debug17h205042c3f47750f4E.llvm.3179342279309578476', symObjAddr: 0x1DEC0, symBinAddr: 0x98A50, symSize: 0xB0 }
  - { offsetInCU: 0x5AE18, offset: 0x31C3E9, size: 0x8, addend: 0x0, symName: '__ZN3syn3gen5debug40_$LT$impl$u20$syn..expr..ExprForLoop$GT$5debug17h4b59cf4a724a2c86E.llvm.3179342279309578476', symObjAddr: 0x1DF90, symBinAddr: 0x98B00, symSize: 0x110 }
  - { offsetInCU: 0x5AEB3, offset: 0x31C484, size: 0x8, addend: 0x0, symName: '__ZN3syn3gen5debug38_$LT$impl$u20$syn..expr..ExprGroup$GT$5debug17h1d1b609150833a21E.llvm.3179342279309578476', symObjAddr: 0x1E140, symBinAddr: 0x98C10, symSize: 0x90 }
  - { offsetInCU: 0x5AF3F, offset: 0x31C510, size: 0x8, addend: 0x0, symName: '__ZN3syn3gen5debug35_$LT$impl$u20$syn..expr..ExprIf$GT$5debug17hcac2201cfc7dada3E.llvm.3179342279309578476', symObjAddr: 0x1E2B0, symBinAddr: 0x98CA0, symSize: 0xD0 }
  - { offsetInCU: 0x5AFBE, offset: 0x31C58F, size: 0x8, addend: 0x0, symName: '__ZN3syn3gen5debug38_$LT$impl$u20$syn..expr..ExprIndex$GT$5debug17h323b881039833519E.llvm.3179342279309578476', symObjAddr: 0x1E440, symBinAddr: 0x98D70, symSize: 0xB0 }
  - { offsetInCU: 0x5B03D, offset: 0x31C60E, size: 0x8, addend: 0x0, symName: '__ZN3syn3gen5debug38_$LT$impl$u20$syn..expr..ExprInfer$GT$5debug17h9d4639858a4d0641E.llvm.3179342279309578476', symObjAddr: 0x1E570, symBinAddr: 0x98E20, symSize: 0x70 }
  - { offsetInCU: 0x5B0BC, offset: 0x31C68D, size: 0x8, addend: 0x0, symName: '__ZN3syn3gen5debug36_$LT$impl$u20$syn..expr..ExprLet$GT$5debug17h1696a2ddd44c0843E.llvm.3179342279309578476', symObjAddr: 0x1E6C0, symBinAddr: 0x98E90, symSize: 0xD0 }
  - { offsetInCU: 0x5B13B, offset: 0x31C70C, size: 0x8, addend: 0x0, symName: '__ZN3syn3gen5debug36_$LT$impl$u20$syn..expr..ExprLit$GT$5debug17h5ec886d2fd2ff811E', symObjAddr: 0x1E810, symBinAddr: 0x98F60, symSize: 0x70 }
  - { offsetInCU: 0x5B1BA, offset: 0x31C78B, size: 0x8, addend: 0x0, symName: '__ZN3syn3gen5debug37_$LT$impl$u20$syn..expr..ExprLoop$GT$5debug17h27d66799f1355cf5E.llvm.3179342279309578476', symObjAddr: 0x1E940, symBinAddr: 0x98FD0, symSize: 0xB0 }
  - { offsetInCU: 0x5B239, offset: 0x31C80A, size: 0x8, addend: 0x0, symName: '__ZN3syn3gen5debug38_$LT$impl$u20$syn..expr..ExprMacro$GT$5debug17h7fd350c5472f2f8eE', symObjAddr: 0x1EA70, symBinAddr: 0x99080, symSize: 0x70 }
  - { offsetInCU: 0x5B2B8, offset: 0x31C889, size: 0x8, addend: 0x0, symName: '__ZN3syn3gen5debug38_$LT$impl$u20$syn..expr..ExprMatch$GT$5debug17ha6c2d5a86207b236E.llvm.3179342279309578476', symObjAddr: 0x1EBC0, symBinAddr: 0x990F0, symSize: 0xD0 }
  - { offsetInCU: 0x5B2FE, offset: 0x31C8CF, size: 0x8, addend: 0x0, symName: '__ZN3syn3gen5debug43_$LT$impl$u20$syn..expr..ExprMethodCall$GT$5debug17h0e83005c80f7585bE.llvm.3179342279309578476', symObjAddr: 0x1ECB0, symBinAddr: 0x991C0, symSize: 0x110 }
  - { offsetInCU: 0x5B399, offset: 0x31C96A, size: 0x8, addend: 0x0, symName: '__ZN3syn3gen5debug38_$LT$impl$u20$syn..expr..ExprParen$GT$5debug17h122db919c04853b2E.llvm.3179342279309578476', symObjAddr: 0x1EE60, symBinAddr: 0x992D0, symSize: 0x90 }
  - { offsetInCU: 0x5B418, offset: 0x31C9E9, size: 0x8, addend: 0x0, symName: '__ZN3syn3gen5debug37_$LT$impl$u20$syn..expr..ExprPath$GT$5debug17hd68d527510baf187E', symObjAddr: 0x1EF90, symBinAddr: 0x99360, symSize: 0x90 }
  - { offsetInCU: 0x5B497, offset: 0x31CA68, size: 0x8, addend: 0x0, symName: '__ZN3syn3gen5debug38_$LT$impl$u20$syn..expr..ExprRange$GT$5debug17h3c8b25a89e649496E', symObjAddr: 0x1F0E0, symBinAddr: 0x993F0, symSize: 0xB0 }
  - { offsetInCU: 0x5B516, offset: 0x31CAE7, size: 0x8, addend: 0x0, symName: '__ZN3syn3gen5debug42_$LT$impl$u20$syn..expr..ExprReference$GT$5debug17h27e82d8b2b90d783E.llvm.3179342279309578476', symObjAddr: 0x1F250, symBinAddr: 0x994A0, symSize: 0xB0 }
  - { offsetInCU: 0x5B595, offset: 0x31CB66, size: 0x8, addend: 0x0, symName: '__ZN3syn3gen5debug39_$LT$impl$u20$syn..expr..ExprRepeat$GT$5debug17h794915fe36fa6651E.llvm.3179342279309578476', symObjAddr: 0x1F3E0, symBinAddr: 0x99550, symSize: 0xD0 }
  - { offsetInCU: 0x5B614, offset: 0x31CBE5, size: 0x8, addend: 0x0, symName: '__ZN3syn3gen5debug39_$LT$impl$u20$syn..expr..ExprReturn$GT$5debug17h2da5368e65db279aE.llvm.3179342279309578476', symObjAddr: 0x1F550, symBinAddr: 0x99620, symSize: 0x90 }
  - { offsetInCU: 0x5B65A, offset: 0x31CC2B, size: 0x8, addend: 0x0, symName: '__ZN3syn3gen5debug39_$LT$impl$u20$syn..expr..ExprStruct$GT$5debug17h79b799711402b583E.llvm.3179342279309578476', symObjAddr: 0x1F600, symBinAddr: 0x996B0, symSize: 0x110 }
  - { offsetInCU: 0x5B6F5, offset: 0x31CCC6, size: 0x8, addend: 0x0, symName: '__ZN3syn3gen5debug36_$LT$impl$u20$syn..expr..ExprTry$GT$5debug17hf74eb5ab047b43b8E.llvm.3179342279309578476', symObjAddr: 0x1F7B0, symBinAddr: 0x997C0, symSize: 0x90 }
  - { offsetInCU: 0x5B774, offset: 0x31CD45, size: 0x8, addend: 0x0, symName: '__ZN3syn3gen5debug41_$LT$impl$u20$syn..expr..ExprTryBlock$GT$5debug17h5b2840ad0488a746E.llvm.3179342279309578476', symObjAddr: 0x1F8E0, symBinAddr: 0x99850, symSize: 0x90 }
  - { offsetInCU: 0x5B7F3, offset: 0x31CDC4, size: 0x8, addend: 0x0, symName: '__ZN3syn3gen5debug38_$LT$impl$u20$syn..expr..ExprTuple$GT$5debug17h4ab0e7832155ebb7E.llvm.3179342279309578476', symObjAddr: 0x1FA10, symBinAddr: 0x998E0, symSize: 0x90 }
  - { offsetInCU: 0x5B872, offset: 0x31CE43, size: 0x8, addend: 0x0, symName: '__ZN3syn3gen5debug38_$LT$impl$u20$syn..expr..ExprUnary$GT$5debug17h308f30c3f91ab642E.llvm.3179342279309578476', symObjAddr: 0x1FB40, symBinAddr: 0x99970, symSize: 0x90 }
  - { offsetInCU: 0x5B8F1, offset: 0x31CEC2, size: 0x8, addend: 0x0, symName: '__ZN3syn3gen5debug39_$LT$impl$u20$syn..expr..ExprUnsafe$GT$5debug17hde471af817c082a6E.llvm.3179342279309578476', symObjAddr: 0x1FC70, symBinAddr: 0x99A00, symSize: 0x90 }
  - { offsetInCU: 0x5B970, offset: 0x31CF41, size: 0x8, addend: 0x0, symName: '__ZN3syn3gen5debug38_$LT$impl$u20$syn..expr..ExprWhile$GT$5debug17he60336dce6ac7ca9E.llvm.3179342279309578476', symObjAddr: 0x1FDE0, symBinAddr: 0x99A90, symSize: 0xD0 }
  - { offsetInCU: 0x5B9EF, offset: 0x31CFC0, size: 0x8, addend: 0x0, symName: '__ZN3syn3gen5debug38_$LT$impl$u20$syn..expr..ExprYield$GT$5debug17h2414b4fac533e803E.llvm.3179342279309578476', symObjAddr: 0x1FF50, symBinAddr: 0x99B60, symSize: 0x90 }
  - { offsetInCU: 0x1834, offset: 0x329DCA, size: 0x8, addend: 0x0, symName: '__ZN4core3ptr100drop_in_place$LT$alloc..vec..Vec$LT$$LP$syn..generics..TypeParamBound$C$syn..token..Plus$RP$$GT$$GT$17hea181150e4b37806E.llvm.14025449986115119833', symObjAddr: 0x5D0, symBinAddr: 0x9A340, symSize: 0xD0 }
  - { offsetInCU: 0x1B4E, offset: 0x32A0E4, size: 0x8, addend: 0x0, symName: '__ZN4core3ptr100drop_in_place$LT$core..option..Option$LT$alloc..boxed..Box$LT$syn..path..GenericArgument$GT$$GT$$GT$17h3a7c44b9e57fe410E', symObjAddr: 0x6A0, symBinAddr: 0x9A410, symSize: 0x50 }
  - { offsetInCU: 0x1D1B, offset: 0x32A2B1, size: 0x8, addend: 0x0, symName: '__ZN4core3ptr101drop_in_place$LT$alloc..vec..Vec$LT$$LP$syn..generics..WherePredicate$C$syn..token..Comma$RP$$GT$$GT$17h480aa68a207f67a8E.llvm.14025449986115119833', symObjAddr: 0x6F0, symBinAddr: 0x9A460, symSize: 0xD0 }
  - { offsetInCU: 0x2039, offset: 0x32A5CF, size: 0x8, addend: 0x0, symName: '__ZN4core3ptr101drop_in_place$LT$core..option..Option$LT$alloc..boxed..Box$LT$syn..generics..GenericParam$GT$$GT$$GT$17h2bff155591650989E', symObjAddr: 0x7C0, symBinAddr: 0x9A530, symSize: 0x50 }
  - { offsetInCU: 0x2225, offset: 0x32A7BB, size: 0x8, addend: 0x0, symName: '__ZN4core3ptr102drop_in_place$LT$syn..punctuated..Punctuated$LT$syn..path..GenericArgument$C$syn..token..Comma$GT$$GT$17h8b1978399cfff48bE.llvm.14025449986115119833', symObjAddr: 0x810, symBinAddr: 0x9A580, symSize: 0xF0 }
  - { offsetInCU: 0x254C, offset: 0x32AAE2, size: 0x8, addend: 0x0, symName: '__ZN4core3ptr103drop_in_place$LT$core..option..Option$LT$alloc..boxed..Box$LT$syn..generics..TypeParamBound$GT$$GT$$GT$17hb14e4384a768542bE.llvm.14025449986115119833', symObjAddr: 0x900, symBinAddr: 0x9A670, symSize: 0x50 }
  - { offsetInCU: 0x26DB, offset: 0x32AC71, size: 0x8, addend: 0x0, symName: '__ZN4core3ptr103drop_in_place$LT$core..option..Option$LT$alloc..boxed..Box$LT$syn..generics..WherePredicate$GT$$GT$$GT$17he190813f4819c5dbE', symObjAddr: 0x950, symBinAddr: 0x9A6C0, symSize: 0x50 }
  - { offsetInCU: 0x2905, offset: 0x32AE9B, size: 0x8, addend: 0x0, symName: '__ZN4core3ptr103drop_in_place$LT$syn..punctuated..Punctuated$LT$syn..generics..GenericParam$C$syn..token..Comma$GT$$GT$17h0c6077a988036760E.llvm.14025449986115119833', symObjAddr: 0x9A0, symBinAddr: 0x9A710, symSize: 0x1A0 }
  - { offsetInCU: 0x2FA7, offset: 0x32B53D, size: 0x8, addend: 0x0, symName: '__ZN4core3ptr104drop_in_place$LT$syn..punctuated..Punctuated$LT$syn..generics..TypeParamBound$C$syn..token..Plus$GT$$GT$17h724e4d9d1d65061aE.llvm.14025449986115119833', symObjAddr: 0xB40, symBinAddr: 0x9A8B0, symSize: 0x240 }
  - { offsetInCU: 0x38E2, offset: 0x32BE78, size: 0x8, addend: 0x0, symName: '__ZN4core3ptr105drop_in_place$LT$syn..punctuated..Punctuated$LT$syn..generics..WherePredicate$C$syn..token..Comma$GT$$GT$17h18b5b213db2a676cE', symObjAddr: 0xD80, symBinAddr: 0x9AAF0, symSize: 0x1A0 }
  - { offsetInCU: 0x3FF1, offset: 0x32C587, size: 0x8, addend: 0x0, symName: '__ZN4core3ptr116drop_in_place$LT$core..option..Option$LT$$LP$syn..token..Else$C$alloc..boxed..Box$LT$syn..expr..Expr$GT$$RP$$GT$$GT$17h60c68b89176741daE', symObjAddr: 0xF20, symBinAddr: 0x9AC90, symSize: 0x50 }
  - { offsetInCU: 0x41F4, offset: 0x32C78A, size: 0x8, addend: 0x0, symName: '__ZN4core3ptr1247drop_in_place$LT$core..iter..adapters..flatten..Flatten$LT$core..iter..adapters..map..Map$LT$core..iter..adapters..map..Map$LT$core..iter..adapters..map..Map$LT$core..slice..iter..Iter$LT$syn..error..ErrorMessage$GT$$C$syn..error..ErrorMessage..to_compile_error$GT$$C$$LT$proc_macro2..TokenStream$u20$as$u20$core..iter..traits..collect..FromIterator$LT$proc_macro2..TokenStream$GT$$GT$..from_iter$LT$core..iter..adapters..map..Map$LT$core..slice..iter..Iter$LT$syn..error..ErrorMessage$GT$$C$syn..error..ErrorMessage..to_compile_error$GT$$GT$..$u7b$$u7b$closure$u7d$$u7d$$GT$$C$$LT$proc_macro2..imp..TokenStream$u20$as$u20$core..iter..traits..collect..FromIterator$LT$proc_macro2..imp..TokenStream$GT$$GT$..from_iter$LT$core..iter..adapters..map..Map$LT$core..iter..adapters..map..Map$LT$core..slice..iter..Iter$LT$syn..error..ErrorMessage$GT$$C$syn..error..ErrorMessage..to_compile_error$GT$$C$$LT$proc_macro2..TokenStream$u20$as$u20$core..iter..traits..collect..FromIterator$LT$proc_macro2..TokenStream$GT$$GT$..from_iter$LT$core..iter..adapters..map..Map$LT$core..slice..iter..Iter$LT$syn..error..ErrorMessage$GT$$C$syn..error..ErrorMessage..to_compile_error$GT$$GT$..$u7b$$u7b$closure$u7d$$u7d$$GT$$GT$..$u7b$$u7b$closure$u7d$$u7d$$GT$$GT$$GT$17hbfd06aec0e095371E', symObjAddr: 0xF70, symBinAddr: 0x9ACE0, symSize: 0x60 }
  - { offsetInCU: 0x4378, offset: 0x32C90E, size: 0x8, addend: 0x0, symName: '__ZN4core3ptr126drop_in_place$LT$core..option..Option$LT$$LP$syn..token..And$C$core..option..Option$LT$syn..lifetime..Lifetime$GT$$RP$$GT$$GT$17h45c5d73e12cdf6f0E', symObjAddr: 0xFD0, symBinAddr: 0x9AD40, symSize: 0x30 }
  - { offsetInCU: 0x4607, offset: 0x32CB9D, size: 0x8, addend: 0x0, symName: '__ZN4core3ptr33drop_in_place$LT$syn..ty..Abi$GT$17h24b86e0564a98339E', symObjAddr: 0x1000, symBinAddr: 0x9AD70, symSize: 0x70 }
  - { offsetInCU: 0x4623, offset: 0x32CBB9, size: 0x8, addend: 0x0, symName: '__ZN4core3ptr33drop_in_place$LT$syn..ty..Abi$GT$17h24b86e0564a98339E', symObjAddr: 0x1000, symBinAddr: 0x9AD70, symSize: 0x70 }
  - { offsetInCU: 0x48FB, offset: 0x32CE91, size: 0x8, addend: 0x0, symName: '__ZN4core3ptr34drop_in_place$LT$syn..lit..Lit$GT$17hd64dde89a262341dE', symObjAddr: 0x1070, symBinAddr: 0x9ADE0, symSize: 0x120 }
  - { offsetInCU: 0x4E27, offset: 0x32D3BD, size: 0x8, addend: 0x0, symName: '__ZN4core3ptr34drop_in_place$LT$syn..pat..Pat$GT$17hf88887878261d63cE.llvm.14025449986115119833', symObjAddr: 0x1190, symBinAddr: 0x9AF00, symSize: 0x11B0 }
  - { offsetInCU: 0x96B9, offset: 0x331C4F, size: 0x8, addend: 0x0, symName: '__ZN4core3ptr34drop_in_place$LT$syn..ty..Type$GT$17ha80dd29b0f9d4a3fE.llvm.14025449986115119833', symObjAddr: 0x2340, symBinAddr: 0x9C0B0, symSize: 0x510 }
  - { offsetInCU: 0xA6FB, offset: 0x332C91, size: 0x8, addend: 0x0, symName: '__ZN4core3ptr35drop_in_place$LT$syn..expr..Arm$GT$17hd729aea1406305a9E.llvm.14025449986115119833', symObjAddr: 0x2850, symBinAddr: 0x9C5C0, symSize: 0x170 }
  - { offsetInCU: 0xAD69, offset: 0x3332FF, size: 0x8, addend: 0x0, symName: '__ZN4core3ptr36drop_in_place$LT$syn..attr..Meta$GT$17h10362c0b846e6e23E.llvm.14025449986115119833', symObjAddr: 0x29C0, symBinAddr: 0x9C730, symSize: 0x320 }
  - { offsetInCU: 0xBCDE, offset: 0x334274, size: 0x8, addend: 0x0, symName: '__ZN4core3ptr36drop_in_place$LT$syn..expr..Expr$GT$17h10f573b40ddd212cE.llvm.14025449986115119833', symObjAddr: 0x2CE0, symBinAddr: 0x9CA50, symSize: 0x25E0 }
  - { offsetInCU: 0x15886, offset: 0x33DE1C, size: 0x8, addend: 0x0, symName: '__ZN4core3ptr36drop_in_place$LT$syn..item..Item$GT$17haa59cf9e39ab8cebE.llvm.14025449986115119833', symObjAddr: 0x52C0, symBinAddr: 0x9F030, symSize: 0x17C0 }
  - { offsetInCU: 0x1B2B4, offset: 0x34384A, size: 0x8, addend: 0x0, symName: '__ZN4core3ptr36drop_in_place$LT$syn..mac..Macro$GT$17hc3b30a7a8a34cc2dE', symObjAddr: 0x6A80, symBinAddr: 0xA07F0, symSize: 0xE0 }
  - { offsetInCU: 0x1B61C, offset: 0x343BB2, size: 0x8, addend: 0x0, symName: '__ZN4core3ptr36drop_in_place$LT$syn..path..Path$GT$17h75c74a97d5f0a03bE.llvm.14025449986115119833', symObjAddr: 0x6B60, symBinAddr: 0xA08D0, symSize: 0x180 }
  - { offsetInCU: 0x1BC46, offset: 0x3441DC, size: 0x8, addend: 0x0, symName: '__ZN4core3ptr36drop_in_place$LT$syn..stmt..Stmt$GT$17hc4f94563f060e25dE.llvm.14025449986115119833', symObjAddr: 0x6CE0, symBinAddr: 0xA0A50, symSize: 0x380 }
  - { offsetInCU: 0x1C89C, offset: 0x344E32, size: 0x8, addend: 0x0, symName: '__ZN4core3ptr37drop_in_place$LT$syn..data..Field$GT$17hb03070569ab32babE.llvm.14025449986115119833', symObjAddr: 0x7060, symBinAddr: 0xA0DD0, symSize: 0x190 }
  - { offsetInCU: 0x1CE8C, offset: 0x345422, size: 0x8, addend: 0x0, symName: '__ZN4core3ptr37drop_in_place$LT$syn..item..FnArg$GT$17h470fdeee5cba5e3aE.llvm.14025449986115119833', symObjAddr: 0x71F0, symBinAddr: 0xA0F60, symSize: 0x230 }
  - { offsetInCU: 0x1D7A3, offset: 0x345D39, size: 0x8, addend: 0x0, symName: '__ZN4core3ptr37drop_in_place$LT$syn..stmt..Block$GT$17h6fc3254d5688f2c3E', symObjAddr: 0x7420, symBinAddr: 0xA1190, symSize: 0xD0 }
  - { offsetInCU: 0x1DA81, offset: 0x346017, size: 0x8, addend: 0x0, symName: '__ZN4core3ptr38drop_in_place$LT$syn..expr..ExprIf$GT$17ha8d3c2042f45d05fE.llvm.14025449986115119833', symObjAddr: 0x74F0, symBinAddr: 0xA1260, symSize: 0x1B0 }
  - { offsetInCU: 0x1E35B, offset: 0x3468F1, size: 0x8, addend: 0x0, symName: '__ZN4core3ptr38drop_in_place$LT$syn..expr..Member$GT$17h6b0cf84594ce6bceE.llvm.14025449986115119833', symObjAddr: 0x76A0, symBinAddr: 0xA1410, symSize: 0x30 }
  - { offsetInCU: 0x1E457, offset: 0x3469ED, size: 0x8, addend: 0x0, symName: '__ZN4core3ptr38drop_in_place$LT$syn..pat..PatType$GT$17h835dce85ba90235eE.llvm.14025449986115119833', symObjAddr: 0x76D0, symBinAddr: 0xA1440, symSize: 0x140 }
  - { offsetInCU: 0x1EA09, offset: 0x346F9F, size: 0x8, addend: 0x0, symName: '__ZN4core3ptr39drop_in_place$LT$proc_macro2..Ident$GT$17ha28fef9769e267d9E.llvm.14025449986115119833', symObjAddr: 0x7810, symBinAddr: 0xA1580, symSize: 0x30 }
  - { offsetInCU: 0x1EC1C, offset: 0x3471B2, size: 0x8, addend: 0x0, symName: '__ZN4core3ptr39drop_in_place$LT$syn..buffer..Entry$GT$17he93ada413d4474f7E.llvm.14025449986115119833', symObjAddr: 0x7840, symBinAddr: 0xA15B0, symSize: 0xB0 }
  - { offsetInCU: 0x1F004, offset: 0x34759A, size: 0x8, addend: 0x0, symName: '__ZN4core3ptr39drop_in_place$LT$syn..data..Variant$GT$17h92766dd8637b4069E.llvm.14025449986115119833', symObjAddr: 0x78F0, symBinAddr: 0xA1660, symSize: 0x2F0 }
  - { offsetInCU: 0x1FC9F, offset: 0x348235, size: 0x8, addend: 0x0, symName: '__ZN4core3ptr39drop_in_place$LT$syn..item..UseTree$GT$17h7288572c631f954aE.llvm.14025449986115119833', symObjAddr: 0x7BE0, symBinAddr: 0xA1950, symSize: 0x1E0 }
  - { offsetInCU: 0x203F8, offset: 0x34898E, size: 0x8, addend: 0x0, symName: '__ZN4core3ptr40drop_in_place$LT$syn..item..ImplItem$GT$17h98907b2080b0ccb0E', symObjAddr: 0x7DC0, symBinAddr: 0xA1B30, symSize: 0x220 }
  - { offsetInCU: 0x20A45, offset: 0x348FDB, size: 0x8, addend: 0x0, symName: '__ZN4core3ptr40drop_in_place$LT$syn..item..Receiver$GT$17h5e68a437c3b8e574E.llvm.14025449986115119833', symObjAddr: 0x7FE0, symBinAddr: 0xA1D50, symSize: 0x130 }
  - { offsetInCU: 0x21043, offset: 0x3495D9, size: 0x8, addend: 0x0, symName: '__ZN4core3ptr40drop_in_place$LT$syn..item..Variadic$GT$17hf9d4ebdb0f5e723aE', symObjAddr: 0x8110, symBinAddr: 0xA1E80, symSize: 0x120 }
  - { offsetInCU: 0x214E6, offset: 0x349A7C, size: 0x8, addend: 0x0, symName: '__ZN4core3ptr40drop_in_place$LT$syn..ty..ReturnType$GT$17h035a612e322b6510E.llvm.14025449986115119833', symObjAddr: 0x8230, symBinAddr: 0xA1FA0, symSize: 0x50 }
  - { offsetInCU: 0x217AB, offset: 0x349D41, size: 0x8, addend: 0x0, symName: '__ZN4core3ptr41drop_in_place$LT$syn..item..Signature$GT$17h41f785211ad8eb02E', symObjAddr: 0x8280, symBinAddr: 0xA1FF0, symSize: 0x270 }
  - { offsetInCU: 0x222C0, offset: 0x34A856, size: 0x8, addend: 0x0, symName: '__ZN4core3ptr41drop_in_place$LT$syn..item..TraitItem$GT$17hc74edaa948c160a2E', symObjAddr: 0x84F0, symBinAddr: 0xA2260, symSize: 0x3D0 }
  - { offsetInCU: 0x22EFE, offset: 0x34B494, size: 0x8, addend: 0x0, symName: '__ZN4core3ptr41drop_in_place$LT$syn..stmt..LocalInit$GT$17h30b5fda37459e0baE', symObjAddr: 0x88C0, symBinAddr: 0xA2630, symSize: 0xC0 }
  - { offsetInCU: 0x231EE, offset: 0x34B784, size: 0x8, addend: 0x0, symName: '__ZN4core3ptr42drop_in_place$LT$syn..item..ImplItemFn$GT$17haf8f89161f0a8aa1E', symObjAddr: 0x8980, symBinAddr: 0xA26F0, symSize: 0x230 }
  - { offsetInCU: 0x23992, offset: 0x34BF28, size: 0x8, addend: 0x0, symName: '__ZN4core3ptr42drop_in_place$LT$syn..path..Constraint$GT$17h367871d1e7e54db0E', symObjAddr: 0x8BB0, symBinAddr: 0xA2920, symSize: 0x160 }
  - { offsetInCU: 0x23F29, offset: 0x34C4BF, size: 0x8, addend: 0x0, symName: '__ZN4core3ptr43drop_in_place$LT$proc_macro2..TokenTree$GT$17h3cbee0aa221130b6E.llvm.14025449986115119833', symObjAddr: 0x8D10, symBinAddr: 0xA2A80, symSize: 0xB0 }
  - { offsetInCU: 0x24286, offset: 0x34C81C, size: 0x8, addend: 0x0, symName: '__ZN4core3ptr43drop_in_place$LT$syn..data..FieldsNamed$GT$17h56bef6f151514865E', symObjAddr: 0x8DC0, symBinAddr: 0xA2B30, symSize: 0x120 }
  - { offsetInCU: 0x2474A, offset: 0x34CCE0, size: 0x8, addend: 0x0, symName: '__ZN4core3ptr43drop_in_place$LT$syn..item..ForeignItem$GT$17h8033abfc56dac52fE', symObjAddr: 0x8EE0, symBinAddr: 0xA2C50, symSize: 0x340 }
  - { offsetInCU: 0x2515B, offset: 0x34D6F1, size: 0x8, addend: 0x0, symName: '__ZN4core3ptr43drop_in_place$LT$syn..path..PathSegment$GT$17h903332e979944cf4E.llvm.14025449986115119833', symObjAddr: 0x9220, symBinAddr: 0xA2F90, symSize: 0x190 }
  - { offsetInCU: 0x2573A, offset: 0x34DCD0, size: 0x8, addend: 0x0, symName: '__ZN4core3ptr44drop_in_place$LT$syn..generics..Generics$GT$17h671de917167f8b66E', symObjAddr: 0x93B0, symBinAddr: 0xA3120, symSize: 0x240 }
  - { offsetInCU: 0x2607B, offset: 0x34E611, size: 0x8, addend: 0x0, symName: '__ZN4core3ptr44drop_in_place$LT$syn..item..ImplItemType$GT$17hb32b6c30c762cdafE', symObjAddr: 0x95F0, symBinAddr: 0xA3360, symSize: 0x1F0 }
  - { offsetInCU: 0x2668E, offset: 0x34EC24, size: 0x8, addend: 0x0, symName: '__ZN4core3ptr44drop_in_place$LT$syn..lifetime..Lifetime$GT$17he37fa474f03de7b1E.llvm.14025449986115119833', symObjAddr: 0x97E0, symBinAddr: 0xA3550, symSize: 0x30 }
  - { offsetInCU: 0x267E7, offset: 0x34ED7D, size: 0x8, addend: 0x0, symName: '__ZN4core3ptr45drop_in_place$LT$proc_macro2..TokenStream$GT$17h76e8e68015f4924dE.llvm.14025449986115119833', symObjAddr: 0x9810, symBinAddr: 0xA3580, symSize: 0x70 }
  - { offsetInCU: 0x2694E, offset: 0x34EEE4, size: 0x8, addend: 0x0, symName: '__ZN4core3ptr45drop_in_place$LT$syn..generics..TypeParam$GT$17h188a459c1380ac75E.llvm.14025449986115119833', symObjAddr: 0x9880, symBinAddr: 0xA35F0, symSize: 0x230 }
  - { offsetInCU: 0x271EC, offset: 0x34F782, size: 0x8, addend: 0x0, symName: '__ZN4core3ptr45drop_in_place$LT$syn..item..ImplItemConst$GT$17he161f4752ea1c79dE', symObjAddr: 0x9AB0, symBinAddr: 0xA3820, symSize: 0x210 }
  - { offsetInCU: 0x2783D, offset: 0x34FDD3, size: 0x8, addend: 0x0, symName: '__ZN4core3ptr45drop_in_place$LT$syn..item..TraitItemType$GT$17h3e36cd56ba987949E', symObjAddr: 0x9CC0, symBinAddr: 0xA3A30, symSize: 0x290 }
  - { offsetInCU: 0x281A7, offset: 0x35073D, size: 0x8, addend: 0x0, symName: '__ZN4core3ptr45drop_in_place$LT$syn..path..PathArguments$GT$17hdbc6dfac6f3334e6E.llvm.14025449986115119833', symObjAddr: 0x9F50, symBinAddr: 0xA3CC0, symSize: 0xB0 }
  - { offsetInCU: 0x28378, offset: 0x35090E, size: 0x8, addend: 0x0, symName: '__ZN4core3ptr46drop_in_place$LT$$u5b$syn..stmt..Stmt$u5d$$GT$17h24e62e137a325f40E.llvm.14025449986115119833', symObjAddr: 0xA000, symBinAddr: 0xA3D70, symSize: 0x2F0 }
  - { offsetInCU: 0x28A28, offset: 0x350FBE, size: 0x8, addend: 0x0, symName: '__ZN4core3ptr46drop_in_place$LT$syn..generics..ConstParam$GT$17h7a9b900b2b88bfcdE.llvm.14025449986115119833', symObjAddr: 0xA2F0, symBinAddr: 0xA4060, symSize: 0x150 }
  - { offsetInCU: 0x28E56, offset: 0x3513EC, size: 0x8, addend: 0x0, symName: '__ZN4core3ptr46drop_in_place$LT$syn..item..TraitItemConst$GT$17h1a851cb668e4b13cE', symObjAddr: 0xA440, symBinAddr: 0xA41B0, symSize: 0x1B0 }
  - { offsetInCU: 0x29337, offset: 0x3518CD, size: 0x8, addend: 0x0, symName: '__ZN4core3ptr47drop_in_place$LT$syn..generics..WhereClause$GT$17h1a748a69ca415614E', symObjAddr: 0xA5F0, symBinAddr: 0xA4360, symSize: 0x120 }
  - { offsetInCU: 0x297BD, offset: 0x351D53, size: 0x8, addend: 0x0, symName: '__ZN4core3ptr47drop_in_place$LT$syn..item..ForeignItemType$GT$17ha3462b8591c7bc98E', symObjAddr: 0xA710, symBinAddr: 0xA4480, symSize: 0x1B0 }
  - { offsetInCU: 0x29E2B, offset: 0x3523C1, size: 0x8, addend: 0x0, symName: '__ZN4core3ptr47drop_in_place$LT$syn..path..GenericArgument$GT$17h593f06d6ca9a94d2E.llvm.14025449986115119833', symObjAddr: 0xA8C0, symBinAddr: 0xA4630, symSize: 0x1C0 }
  - { offsetInCU: 0x2A2EF, offset: 0x352885, size: 0x8, addend: 0x0, symName: '__ZN4core3ptr48drop_in_place$LT$syn..generics..GenericParam$GT$17hd6859d95c1b7c168E.llvm.14025449986115119833', symObjAddr: 0xAA80, symBinAddr: 0xA47F0, symSize: 0x150 }
  - { offsetInCU: 0x2A715, offset: 0x352CAB, size: 0x8, addend: 0x0, symName: '__ZN4core3ptr49drop_in_place$LT$syn..generics..LifetimeParam$GT$17h3a8835ab294bfd16E.llvm.14025449986115119833', symObjAddr: 0xABD0, symBinAddr: 0xA4940, symSize: 0xF0 }
  - { offsetInCU: 0x2AB20, offset: 0x3530B6, size: 0x8, addend: 0x0, symName: '__ZN4core3ptr49drop_in_place$LT$syn..generics..PredicateType$GT$17h28460a55196bd45fE.llvm.14025449986115119833', symObjAddr: 0xACC0, symBinAddr: 0xA4A30, symSize: 0x180 }
  - { offsetInCU: 0x2AFD8, offset: 0x35356E, size: 0x8, addend: 0x0, symName: '__ZN4core3ptr49drop_in_place$LT$syn..item..ForeignItemStatic$GT$17h0b4273b292bce45dE', symObjAddr: 0xAE40, symBinAddr: 0xA4BB0, symSize: 0x190 }
  - { offsetInCU: 0x2B6DA, offset: 0x353C70, size: 0x8, addend: 0x0, symName: '__ZN4core3ptr50drop_in_place$LT$$u5b$syn..item..ImplItem$u5d$$GT$17h9b63e3c09d4f2fecE.llvm.14025449986115119833', symObjAddr: 0xAFD0, symBinAddr: 0xA4D40, symSize: 0x210 }
  - { offsetInCU: 0x2BA4E, offset: 0x353FE4, size: 0x8, addend: 0x0, symName: '__ZN4core3ptr50drop_in_place$LT$syn..generics..TypeParamBound$GT$17h81b4325b5900604dE.llvm.14025449986115119833', symObjAddr: 0xB1E0, symBinAddr: 0xA4F50, symSize: 0xA0 }
  - { offsetInCU: 0x2BBD3, offset: 0x354169, size: 0x8, addend: 0x0, symName: '__ZN4core3ptr50drop_in_place$LT$syn..generics..WherePredicate$GT$17h1dcd41fbf166681cE.llvm.14025449986115119833', symObjAddr: 0xB280, symBinAddr: 0xA4FF0, symSize: 0xA0 }
  - { offsetInCU: 0x2BD83, offset: 0x354319, size: 0x8, addend: 0x0, symName: '__ZN4core3ptr51drop_in_place$LT$$u5b$syn..item..TraitItem$u5d$$GT$17hfac7130e0b19ef2eE.llvm.14025449986115119833', symObjAddr: 0xB320, symBinAddr: 0xA5090, symSize: 0x3E0 }
  - { offsetInCU: 0x2C725, offset: 0x354CBB, size: 0x8, addend: 0x0, symName: '__ZN4core3ptr52drop_in_place$LT$syn..restriction..VisRestricted$GT$17h3b9d7a9742b1c345E', symObjAddr: 0xB700, symBinAddr: 0xA5470, symSize: 0x50 }
  - { offsetInCU: 0x2C8BC, offset: 0x354E52, size: 0x8, addend: 0x0, symName: '__ZN4core3ptr53drop_in_place$LT$$u5b$syn..item..ForeignItem$u5d$$GT$17h566f3fc649dbb42bE.llvm.14025449986115119833', symObjAddr: 0xB750, symBinAddr: 0xA54C0, symSize: 0x370 }
  - { offsetInCU: 0x2D0DA, offset: 0x355670, size: 0x8, addend: 0x0, symName: '__ZN4core3ptr58drop_in_place$LT$alloc..vec..Vec$LT$syn..expr..Arm$GT$$GT$17hff9224aadf2233b8E.llvm.14025449986115119833', symObjAddr: 0xBAE0, symBinAddr: 0xA5830, symSize: 0xD0 }
  - { offsetInCU: 0x2D3A1, offset: 0x355937, size: 0x8, addend: 0x0, symName: '__ZN4core3ptr59drop_in_place$LT$alloc..boxed..Box$LT$syn..pat..Pat$GT$$GT$17h622b0c1db21c0742E.llvm.14025449986115119833', symObjAddr: 0xBBB0, symBinAddr: 0xA5900, symSize: 0x50 }
  - { offsetInCU: 0x2D4FA, offset: 0x355A90, size: 0x8, addend: 0x0, symName: '__ZN4core3ptr59drop_in_place$LT$alloc..boxed..Box$LT$syn..ty..Type$GT$$GT$17hde45fa887dd8b605E.llvm.14025449986115119833', symObjAddr: 0xBC00, symBinAddr: 0xA5950, symSize: 0x50 }
  - { offsetInCU: 0x2D653, offset: 0x355BE9, size: 0x8, addend: 0x0, symName: '__ZN4core3ptr59drop_in_place$LT$alloc..vec..Vec$LT$syn..item..Item$GT$$GT$17h8590e8c8e196c3c2E.llvm.14025449986115119833', symObjAddr: 0xBC50, symBinAddr: 0xA59A0, symSize: 0xD0 }
  - { offsetInCU: 0x2D91A, offset: 0x355EB0, size: 0x8, addend: 0x0, symName: '__ZN4core3ptr59drop_in_place$LT$alloc..vec..Vec$LT$syn..stmt..Stmt$GT$$GT$17h6cf3e54f41bc03bdE.llvm.14025449986115119833', symObjAddr: 0xBD20, symBinAddr: 0xA5A70, symSize: 0x80 }
  - { offsetInCU: 0x2DBD2, offset: 0x356168, size: 0x8, addend: 0x0, symName: '__ZN4core3ptr61drop_in_place$LT$alloc..boxed..Box$LT$syn..expr..Expr$GT$$GT$17hbb42293869113942E', symObjAddr: 0xBDA0, symBinAddr: 0xA5AF0, symSize: 0x50 }
  - { offsetInCU: 0x2DD2B, offset: 0x3562C1, size: 0x8, addend: 0x0, symName: '__ZN4core3ptr61drop_in_place$LT$alloc..boxed..Box$LT$syn..path..Path$GT$$GT$17h038a2aea8fe87c28E', symObjAddr: 0xBDF0, symBinAddr: 0xA5B40, symSize: 0x100 }
  - { offsetInCU: 0x2E24B, offset: 0x3567E1, size: 0x8, addend: 0x0, symName: '__ZN4core3ptr61drop_in_place$LT$syn..path..ParenthesizedGenericArguments$GT$17h6b1731382637937fE', symObjAddr: 0xBEF0, symBinAddr: 0xA5C40, symSize: 0x170 }
  - { offsetInCU: 0x2E848, offset: 0x356DDE, size: 0x8, addend: 0x0, symName: '__ZN4core3ptr62drop_in_place$LT$alloc..boxed..Box$LT$syn..data..Field$GT$$GT$17hd46c7cc6f292f643E', symObjAddr: 0xC060, symBinAddr: 0xA5DB0, symSize: 0x50 }
  - { offsetInCU: 0x2E9C0, offset: 0x356F56, size: 0x8, addend: 0x0, symName: '__ZN4core3ptr62drop_in_place$LT$alloc..boxed..Box$LT$syn..item..FnArg$GT$$GT$17haeb55dec21588d58E', symObjAddr: 0xC0B0, symBinAddr: 0xA5E00, symSize: 0x60 }
  - { offsetInCU: 0x2EB36, offset: 0x3570CC, size: 0x8, addend: 0x0, symName: '__ZN4core3ptr62drop_in_place$LT$alloc..boxed..Box$LT$syn..stmt..Block$GT$$GT$17h21dcb5adf0237a12E', symObjAddr: 0xC110, symBinAddr: 0xA5E60, symSize: 0xE0 }
  - { offsetInCU: 0x2EF8D, offset: 0x357523, size: 0x8, addend: 0x0, symName: '__ZN4core3ptr62drop_in_place$LT$alloc..vec..Vec$LT$syn..buffer..Entry$GT$$GT$17h17f61a784aa49e8bE.llvm.14025449986115119833', symObjAddr: 0xC1F0, symBinAddr: 0xA5F40, symSize: 0xC0 }
  - { offsetInCU: 0x2F265, offset: 0x3577FB, size: 0x8, addend: 0x0, symName: '__ZN4core3ptr62drop_in_place$LT$syn..path..AngleBracketedGenericArguments$GT$17hf8fa172f007a1473E', symObjAddr: 0xC2B0, symBinAddr: 0xA6000, symSize: 0x120 }
  - { offsetInCU: 0x2F6EB, offset: 0x357C81, size: 0x8, addend: 0x0, symName: '__ZN4core3ptr63drop_in_place$LT$alloc..vec..Vec$LT$syn..item..ImplItem$GT$$GT$17hc51fca07e67d35aeE.llvm.14025449986115119833', symObjAddr: 0xC3D0, symBinAddr: 0xA6120, symSize: 0x80 }
  - { offsetInCU: 0x2F9A3, offset: 0x357F39, size: 0x8, addend: 0x0, symName: '__ZN4core3ptr64drop_in_place$LT$alloc..boxed..Box$LT$syn..data..Variant$GT$$GT$17h9ea21bed4984fdbcE', symObjAddr: 0xC450, symBinAddr: 0xA61A0, symSize: 0x50 }
  - { offsetInCU: 0x2FAFC, offset: 0x358092, size: 0x8, addend: 0x0, symName: '__ZN4core3ptr64drop_in_place$LT$alloc..boxed..Box$LT$syn..item..UseTree$GT$$GT$17he4d7024582150632E', symObjAddr: 0xC4A0, symBinAddr: 0xA61F0, symSize: 0x50 }
  - { offsetInCU: 0x2FC93, offset: 0x358229, size: 0x8, addend: 0x0, symName: '__ZN4core3ptr64drop_in_place$LT$alloc..boxed..Box$LT$syn..pat..FieldPat$GT$$GT$17hbf8f4867d84bd25dE', symObjAddr: 0xC4F0, symBinAddr: 0xA6240, symSize: 0x140 }
  - { offsetInCU: 0x3035D, offset: 0x3588F3, size: 0x8, addend: 0x0, symName: '__ZN4core3ptr64drop_in_place$LT$alloc..boxed..Box$LT$syn..ty..BareFnArg$GT$$GT$17h6be6354eb1d1364dE', symObjAddr: 0xC630, symBinAddr: 0xA6380, symSize: 0x140 }
  - { offsetInCU: 0x308F0, offset: 0x358E86, size: 0x8, addend: 0x0, symName: '__ZN4core3ptr64drop_in_place$LT$alloc..vec..Vec$LT$syn..attr..Attribute$GT$$GT$17he33e25539d5885aeE.llvm.14025449986115119833', symObjAddr: 0xC770, symBinAddr: 0xA64C0, symSize: 0xD0 }
  - { offsetInCU: 0x30BEB, offset: 0x359181, size: 0x8, addend: 0x0, symName: '__ZN4core3ptr64drop_in_place$LT$alloc..vec..Vec$LT$syn..item..TraitItem$GT$$GT$17hff1cc01ccae80d7aE.llvm.14025449986115119833', symObjAddr: 0xC840, symBinAddr: 0xA6590, symSize: 0x80 }
  - { offsetInCU: 0x30EA3, offset: 0x359439, size: 0x8, addend: 0x0, symName: '__ZN4core3ptr65drop_in_place$LT$$LP$syn..item..FnArg$C$syn..token..Comma$RP$$GT$17heafa789770a727bbE.llvm.14025449986115119833', symObjAddr: 0xC8C0, symBinAddr: 0xA6610, symSize: 0x20 }
  - { offsetInCU: 0x30F3C, offset: 0x3594D2, size: 0x8, addend: 0x0, symName: '__ZN4core3ptr65drop_in_place$LT$alloc..vec..Vec$LT$proc_macro..TokenTree$GT$$GT$17h8abd81f8596dbc59E.llvm.14025449986115119833', symObjAddr: 0xC8E0, symBinAddr: 0xA6630, symSize: 0x110 }
  - { offsetInCU: 0x3134E, offset: 0x3598E4, size: 0x8, addend: 0x0, symName: '__ZN4core3ptr65drop_in_place$LT$core..option..Option$LT$syn..expr..Label$GT$$GT$17hac599686b33ef364E', symObjAddr: 0xC9F0, symBinAddr: 0xA6740, symSize: 0x30 }
  - { offsetInCU: 0x31488, offset: 0x359A1E, size: 0x8, addend: 0x0, symName: '__ZN4core3ptr65drop_in_place$LT$core..option..Option$LT$syn..stmt..Block$GT$$GT$17h74f2551ed24e2d27E', symObjAddr: 0xCA20, symBinAddr: 0xA6770, symSize: 0xD0 }
  - { offsetInCU: 0x3179B, offset: 0x359D31, size: 0x8, addend: 0x0, symName: '__ZN4core3ptr66drop_in_place$LT$alloc..vec..Vec$LT$proc_macro2..TokenTree$GT$$GT$17hddd511686bdb58d1E', symObjAddr: 0xCAF0, symBinAddr: 0xA6840, symSize: 0xC0 }
  - { offsetInCU: 0x31A73, offset: 0x35A009, size: 0x8, addend: 0x0, symName: '__ZN4core3ptr66drop_in_place$LT$alloc..vec..Vec$LT$syn..item..ForeignItem$GT$$GT$17h1f176e04eaf5e0dfE.llvm.14025449986115119833', symObjAddr: 0xCBB0, symBinAddr: 0xA6900, symSize: 0x80 }
  - { offsetInCU: 0x31D2B, offset: 0x35A2C1, size: 0x8, addend: 0x0, symName: '__ZN4core3ptr67drop_in_place$LT$$LP$syn..pat..FieldPat$C$syn..token..Comma$RP$$GT$17h27317b85bbb0d5a5E.llvm.14025449986115119833', symObjAddr: 0xCC30, symBinAddr: 0xA6980, symSize: 0x120 }
  - { offsetInCU: 0x322C0, offset: 0x35A856, size: 0x8, addend: 0x0, symName: '__ZN4core3ptr67drop_in_place$LT$$LP$syn..ty..BareFnArg$C$syn..token..Comma$RP$$GT$17h983f3d51957c3a07E.llvm.14025449986115119833', symObjAddr: 0xCD50, symBinAddr: 0xA6AA0, symSize: 0x110 }
  - { offsetInCU: 0x3273E, offset: 0x35ACD4, size: 0x8, addend: 0x0, symName: '__ZN4core3ptr67drop_in_place$LT$alloc..boxed..Box$LT$syn..expr..FieldValue$GT$$GT$17hbbcf67a9d5e9863cE', symObjAddr: 0xCE60, symBinAddr: 0xA6BB0, symSize: 0x140 }
  - { offsetInCU: 0x32CB1, offset: 0x35B247, size: 0x8, addend: 0x0, symName: '__ZN4core3ptr68drop_in_place$LT$alloc..boxed..Box$LT$syn..path..PathSegment$GT$$GT$17h99aaf90b3262bc1eE', symObjAddr: 0xCFA0, symBinAddr: 0xA6CF0, symSize: 0xF0 }
  - { offsetInCU: 0x330B3, offset: 0x35B649, size: 0x8, addend: 0x0, symName: '__ZN4core3ptr69drop_in_place$LT$core..option..Option$LT$syn..stmt..LocalInit$GT$$GT$17h0978f9ea6e6b3bd1E', symObjAddr: 0xD120, symBinAddr: 0xA6DE0, symSize: 0xC0 }
  - { offsetInCU: 0x333D7, offset: 0x35B96D, size: 0x8, addend: 0x0, symName: '__ZN4core3ptr70drop_in_place$LT$$LP$syn..expr..FieldValue$C$syn..token..Comma$RP$$GT$17h7bfdad78936e9ce8E.llvm.14025449986115119833', symObjAddr: 0xD1E0, symBinAddr: 0xA6EA0, symSize: 0x110 }
  - { offsetInCU: 0x33816, offset: 0x35BDAC, size: 0x8, addend: 0x0, symName: '__ZN4core3ptr70drop_in_place$LT$core..option..Option$LT$syn..ty..BareVariadic$GT$$GT$17h79a19250e9f043b1E', symObjAddr: 0xD2F0, symBinAddr: 0xA6FB0, symSize: 0x100 }
  - { offsetInCU: 0x33C75, offset: 0x35C20B, size: 0x8, addend: 0x0, symName: '__ZN4core3ptr72drop_in_place$LT$alloc..boxed..Box$LT$syn..path..GenericArgument$GT$$GT$17hfd308d374af4273dE.llvm.14025449986115119833', symObjAddr: 0xD3F0, symBinAddr: 0xA70B0, symSize: 0x190 }
  - { offsetInCU: 0x3413D, offset: 0x35C6D3, size: 0x8, addend: 0x0, symName: '__ZN4core3ptr73drop_in_place$LT$$LP$syn..path..PathSegment$C$syn..token..PathSep$RP$$GT$17he36d39e19c04f3acE.llvm.14025449986115119833', symObjAddr: 0xD580, symBinAddr: 0xA7240, symSize: 0xD0 }
  - { offsetInCU: 0x34400, offset: 0x35C996, size: 0x8, addend: 0x0, symName: '__ZN4core3ptr73drop_in_place$LT$alloc..boxed..Box$LT$syn..generics..GenericParam$GT$$GT$17ha26d5d145af4b203E', symObjAddr: 0xD650, symBinAddr: 0xA7310, symSize: 0x80 }
  - { offsetInCU: 0x34576, offset: 0x35CB0C, size: 0x8, addend: 0x0, symName: '__ZN4core3ptr75drop_in_place$LT$$LP$syn..path..GenericArgument$C$syn..token..Comma$RP$$GT$17hfc5ffe6787775104E.llvm.14025449986115119833', symObjAddr: 0xD6D0, symBinAddr: 0xA7390, symSize: 0x180 }
  - { offsetInCU: 0x34904, offset: 0x35CE9A, size: 0x8, addend: 0x0, symName: '__ZN4core3ptr75drop_in_place$LT$alloc..boxed..Box$LT$syn..generics..TypeParamBound$GT$$GT$17h129a4e927e5eb81bE', symObjAddr: 0xD850, symBinAddr: 0xA7510, symSize: 0x180 }
  - { offsetInCU: 0x34ECE, offset: 0x35D464, size: 0x8, addend: 0x0, symName: '__ZN4core3ptr75drop_in_place$LT$alloc..boxed..Box$LT$syn..generics..WherePredicate$GT$$GT$17h9bdeede2dbadbeb6E', symObjAddr: 0xD9D0, symBinAddr: 0xA7690, symSize: 0x80 }
  - { offsetInCU: 0x35165, offset: 0x35D6FB, size: 0x8, addend: 0x0, symName: '__ZN4core3ptr76drop_in_place$LT$$LP$syn..generics..GenericParam$C$syn..token..Comma$RP$$GT$17hfa938bd7ff9e78c2E.llvm.14025449986115119833', symObjAddr: 0xDA50, symBinAddr: 0xA7710, symSize: 0x40 }
  - { offsetInCU: 0x351A1, offset: 0x35D737, size: 0x8, addend: 0x0, symName: '__ZN4core3ptr77drop_in_place$LT$$LP$syn..generics..TypeParamBound$C$syn..token..Plus$RP$$GT$17h900d162b03245e2aE.llvm.14025449986115119833', symObjAddr: 0xDA90, symBinAddr: 0xA7750, symSize: 0x180 }
  - { offsetInCU: 0x3563D, offset: 0x35DBD3, size: 0x8, addend: 0x0, symName: '__ZN4core3ptr78drop_in_place$LT$$LP$syn..generics..WherePredicate$C$syn..token..Comma$RP$$GT$17hdfe19ac5c370d71bE.llvm.14025449986115119833', symObjAddr: 0xDC10, symBinAddr: 0xA78D0, symSize: 0x60 }
  - { offsetInCU: 0x357F7, offset: 0x35DD8D, size: 0x8, addend: 0x0, symName: '__ZN4core3ptr82drop_in_place$LT$alloc..vec..Vec$LT$$LP$syn..pat..Pat$C$syn..token..Or$RP$$GT$$GT$17h1f0f428d7b2d8011E.llvm.14025449986115119833', symObjAddr: 0xDC70, symBinAddr: 0xA7930, symSize: 0x0 }
  - { offsetInCU: 0x35AF6, offset: 0x35E08C, size: 0x8, addend: 0x0, symName: '__ZN4core3ptr85drop_in_place$LT$alloc..vec..Vec$LT$$LP$syn..ty..Type$C$syn..token..Comma$RP$$GT$$GT$17h0cf4844ea7ad9568E.llvm.14025449986115119833', symObjAddr: 0xDD40, symBinAddr: 0xA7A00, symSize: 0xD0 }
  - { offsetInCU: 0x35DF1, offset: 0x35E387, size: 0x8, addend: 0x0, symName: '__ZN4core3ptr86drop_in_place$LT$$LP$syn..token..If$C$alloc..boxed..Box$LT$syn..expr..Expr$GT$$RP$$GT$17hf09fe3e5c3a4feb0E', symObjAddr: 0xDE10, symBinAddr: 0xA7AD0, symSize: 0x50 }
  - { offsetInCU: 0x35FA7, offset: 0x35E53D, size: 0x8, addend: 0x0, symName: '__ZN4core3ptr86drop_in_place$LT$syn..punctuated..Punctuated$LT$syn..pat..Pat$C$syn..token..Or$GT$$GT$17h9cc6b5f7b6d3a555E', symObjAddr: 0xDE60, symBinAddr: 0xA7B20, symSize: 0x120 }
  - { offsetInCU: 0x36440, offset: 0x35E9D6, size: 0x8, addend: 0x0, symName: '__ZN4core3ptr87drop_in_place$LT$$LP$alloc..boxed..Box$LT$syn..pat..Pat$GT$$C$syn..token..Colon$RP$$GT$17h1f05e7b69125af95E', symObjAddr: 0xDF80, symBinAddr: 0xA7C40, symSize: 0x50 }
  - { offsetInCU: 0x36615, offset: 0x35EBAB, size: 0x8, addend: 0x0, symName: '__ZN4core3ptr87drop_in_place$LT$alloc..vec..Vec$LT$$LP$syn..expr..Expr$C$syn..token..Comma$RP$$GT$$GT$17hd1036fba4025974bE.llvm.14025449986115119833', symObjAddr: 0xDFD0, symBinAddr: 0xA7C90, symSize: 0xD0 }
  - { offsetInCU: 0x36910, offset: 0x35EEA6, size: 0x8, addend: 0x0, symName: '__ZN4core3ptr87drop_in_place$LT$core..option..Option$LT$alloc..boxed..Box$LT$syn..ty..Type$GT$$GT$$GT$17h103a25a4a7d7374eE', symObjAddr: 0xE0A0, symBinAddr: 0xA7D60, symSize: 0x50 }
  - { offsetInCU: 0x36A80, offset: 0x35F016, size: 0x8, addend: 0x0, symName: '__ZN4core3ptr88drop_in_place$LT$alloc..vec..Vec$LT$$LP$syn..data..Field$C$syn..token..Comma$RP$$GT$$GT$17h066c67d26ce3e154E.llvm.14025449986115119833', symObjAddr: 0xE0F0, symBinAddr: 0xA7DB0, symSize: 0xD0 }
  - { offsetInCU: 0x36D7F, offset: 0x35F315, size: 0x8, addend: 0x0, symName: '__ZN4core3ptr88drop_in_place$LT$alloc..vec..Vec$LT$$LP$syn..item..FnArg$C$syn..token..Comma$RP$$GT$$GT$17he8d49cd20c575884E.llvm.14025449986115119833', symObjAddr: 0xE1C0, symBinAddr: 0xA7E80, symSize: 0xC0 }
  - { offsetInCU: 0x37078, offset: 0x35F60E, size: 0x8, addend: 0x0, symName: '__ZN4core3ptr89drop_in_place$LT$core..option..Option$LT$alloc..boxed..Box$LT$syn..expr..Expr$GT$$GT$$GT$17h9e02509cb2345d44E', symObjAddr: 0xE280, symBinAddr: 0xA7F40, symSize: 0x50 }
  - { offsetInCU: 0x371E8, offset: 0x35F77E, size: 0x8, addend: 0x0, symName: '__ZN4core3ptr89drop_in_place$LT$syn..punctuated..Punctuated$LT$syn..ty..Type$C$syn..token..Comma$GT$$GT$17he030c4b7f24a5848E.llvm.14025449986115119833', symObjAddr: 0xE2D0, symBinAddr: 0xA7F90, symSize: 0x120 }
  - { offsetInCU: 0x376C7, offset: 0x35FC5D, size: 0x8, addend: 0x0, symName: '__ZN4core3ptr90drop_in_place$LT$alloc..vec..Vec$LT$$LP$syn..data..Variant$C$syn..token..Comma$RP$$GT$$GT$17h3ac8ecccf673c389E.llvm.14025449986115119833', symObjAddr: 0xE3F0, symBinAddr: 0xA80B0, symSize: 0xD0 }
  - { offsetInCU: 0x379C2, offset: 0x35FF58, size: 0x8, addend: 0x0, symName: '__ZN4core3ptr90drop_in_place$LT$alloc..vec..Vec$LT$$LP$syn..item..UseTree$C$syn..token..Comma$RP$$GT$$GT$17h1e4fface25e12fe6E.llvm.14025449986115119833', symObjAddr: 0xE4C0, symBinAddr: 0xA8180, symSize: 0xD0 }
  - { offsetInCU: 0x37CFD, offset: 0x360293, size: 0x8, addend: 0x0, symName: '__ZN4core3ptr90drop_in_place$LT$alloc..vec..Vec$LT$$LP$syn..pat..FieldPat$C$syn..token..Comma$RP$$GT$$GT$17h4d0a520927a96123E.llvm.14025449986115119833', symObjAddr: 0xE590, symBinAddr: 0xA8250, symSize: 0xD0 }
  - { offsetInCU: 0x38004, offset: 0x36059A, size: 0x8, addend: 0x0, symName: '__ZN4core3ptr90drop_in_place$LT$alloc..vec..Vec$LT$$LP$syn..ty..BareFnArg$C$syn..token..Comma$RP$$GT$$GT$17h86271563b6e0e7d6E.llvm.14025449986115119833', symObjAddr: 0xE660, symBinAddr: 0xA8320, symSize: 0xD0 }
  - { offsetInCU: 0x382CF, offset: 0x360865, size: 0x8, addend: 0x0, symName: '__ZN4core3ptr90drop_in_place$LT$core..option..Option$LT$alloc..boxed..Box$LT$syn..data..Field$GT$$GT$$GT$17h9f1aee8cd56c6727E', symObjAddr: 0xE730, symBinAddr: 0xA83F0, symSize: 0x50 }
  - { offsetInCU: 0x3843F, offset: 0x3609D5, size: 0x8, addend: 0x0, symName: '__ZN4core3ptr90drop_in_place$LT$core..option..Option$LT$alloc..boxed..Box$LT$syn..item..FnArg$GT$$GT$$GT$17h8635495a730dc0bfE', symObjAddr: 0xE780, symBinAddr: 0xA8440, symSize: 0x50 }
  - { offsetInCU: 0x385CE, offset: 0x360B64, size: 0x8, addend: 0x0, symName: '__ZN4core3ptr91drop_in_place$LT$syn..punctuated..Punctuated$LT$syn..expr..Expr$C$syn..token..Comma$GT$$GT$17h6f261e8f470c81f2E', symObjAddr: 0xE7D0, symBinAddr: 0xA8490, symSize: 0x120 }
  - { offsetInCU: 0x38A63, offset: 0x360FF9, size: 0x8, addend: 0x0, symName: '__ZN4core3ptr92drop_in_place$LT$core..option..Option$LT$$LP$syn..token..As$C$proc_macro2..Ident$RP$$GT$$GT$17h12a88945917fa9dbE', symObjAddr: 0xE8F0, symBinAddr: 0xA85B0, symSize: 0x30 }
  - { offsetInCU: 0x38B7E, offset: 0x361114, size: 0x8, addend: 0x0, symName: '__ZN4core3ptr92drop_in_place$LT$syn..punctuated..Punctuated$LT$syn..data..Field$C$syn..token..Comma$GT$$GT$17hf8968831c552f88dE', symObjAddr: 0xE920, symBinAddr: 0xA85E0, symSize: 0x120 }
  - { offsetInCU: 0x39004, offset: 0x36159A, size: 0x8, addend: 0x0, symName: '__ZN4core3ptr92drop_in_place$LT$syn..punctuated..Punctuated$LT$syn..item..FnArg$C$syn..token..Comma$GT$$GT$17h7de33e77eabaea82E', symObjAddr: 0xEA40, symBinAddr: 0xA8700, symSize: 0x150 }
  - { offsetInCU: 0x394D3, offset: 0x361A69, size: 0x8, addend: 0x0, symName: '__ZN4core3ptr93drop_in_place$LT$alloc..vec..Vec$LT$$LP$syn..expr..FieldValue$C$syn..token..Comma$RP$$GT$$GT$17hf889827bae7d8b64E.llvm.14025449986115119833', symObjAddr: 0xEB90, symBinAddr: 0xA8850, symSize: 0xD0 }
  - { offsetInCU: 0x397F7, offset: 0x361D8D, size: 0x8, addend: 0x0, symName: '__ZN4core3ptr94drop_in_place$LT$alloc..vec..Vec$LT$$LP$syn..lifetime..Lifetime$C$syn..token..Plus$RP$$GT$$GT$17h446c63e6d8248f75E.llvm.14025449986115119833', symObjAddr: 0xEC60, symBinAddr: 0xA8920, symSize: 0x90 }
  - { offsetInCU: 0x39AF8, offset: 0x36208E, size: 0x8, addend: 0x0, symName: '__ZN4core3ptr94drop_in_place$LT$syn..punctuated..Punctuated$LT$syn..data..Variant$C$syn..token..Comma$GT$$GT$17h310cd79aba4529ccE', symObjAddr: 0xECF0, symBinAddr: 0xA89B0, symSize: 0x120 }
  - { offsetInCU: 0x39FCB, offset: 0x362561, size: 0x8, addend: 0x0, symName: '__ZN4core3ptr94drop_in_place$LT$syn..punctuated..Punctuated$LT$syn..pat..FieldPat$C$syn..token..Comma$GT$$GT$17h43ec25af986ef674E', symObjAddr: 0xEE10, symBinAddr: 0xA8AD0, symSize: 0xF0 }
  - { offsetInCU: 0x3A322, offset: 0x3628B8, size: 0x8, addend: 0x0, symName: '__ZN4core3ptr94drop_in_place$LT$syn..punctuated..Punctuated$LT$syn..ty..BareFnArg$C$syn..token..Comma$GT$$GT$17h7ba4c699ee390ebaE', symObjAddr: 0xEF00, symBinAddr: 0xA8BC0, symSize: 0xF0 }
  - { offsetInCU: 0x3A63D, offset: 0x362BD3, size: 0x8, addend: 0x0, symName: '__ZN4core3ptr95drop_in_place$LT$core..option..Option$LT$$LP$proc_macro2..Ident$C$syn..token..Colon$RP$$GT$$GT$17h59fe297999aa3329E.llvm.14025449986115119833', symObjAddr: 0xEFF0, symBinAddr: 0xA8CB0, symSize: 0x30 }
  - { offsetInCU: 0x3A758, offset: 0x362CEE, size: 0x8, addend: 0x0, symName: '__ZN4core3ptr96drop_in_place$LT$alloc..vec..Vec$LT$$LP$syn..path..PathSegment$C$syn..token..PathSep$RP$$GT$$GT$17h69d97f03bb66469bE.llvm.14025449986115119833', symObjAddr: 0xF020, symBinAddr: 0xA8CE0, symSize: 0xD0 }
  - { offsetInCU: 0x3AA55, offset: 0x362FEB, size: 0x8, addend: 0x0, symName: '__ZN4core3ptr96drop_in_place$LT$core..option..Option$LT$alloc..boxed..Box$LT$syn..path..PathSegment$GT$$GT$$GT$17h5de12a5a0f9e9ef9E', symObjAddr: 0xF0F0, symBinAddr: 0xA8DB0, symSize: 0xA0 }
  - { offsetInCU: 0x3AD31, offset: 0x3632C7, size: 0x8, addend: 0x0, symName: '__ZN4core3ptr97drop_in_place$LT$syn..punctuated..Punctuated$LT$syn..expr..FieldValue$C$syn..token..Comma$GT$$GT$17hf58d0a9a09266ab3E', symObjAddr: 0xF1E0, symBinAddr: 0xA8E50, symSize: 0xF0 }
  - { offsetInCU: 0x3B048, offset: 0x3635DE, size: 0x8, addend: 0x0, symName: '__ZN4core3ptr98drop_in_place$LT$alloc..vec..Vec$LT$$LP$syn..path..GenericArgument$C$syn..token..Comma$RP$$GT$$GT$17h0dee282a026d5a38E.llvm.14025449986115119833', symObjAddr: 0xF2D0, symBinAddr: 0xA8F40, symSize: 0xD0 }
  - { offsetInCU: 0x3B385, offset: 0x36391B, size: 0x8, addend: 0x0, symName: '__ZN4core3ptr98drop_in_place$LT$syn..punctuated..Punctuated$LT$syn..lifetime..Lifetime$C$syn..token..Plus$GT$$GT$17h600c2b78f78fd2b9E.llvm.14025449986115119833', symObjAddr: 0xF3A0, symBinAddr: 0xA9010, symSize: 0xD0 }
  - { offsetInCU: 0x3B7F7, offset: 0x363D8D, size: 0x8, addend: 0x0, symName: '__ZN4core3ptr99drop_in_place$LT$alloc..vec..Vec$LT$$LP$syn..generics..GenericParam$C$syn..token..Comma$RP$$GT$$GT$17haeaa257234ab8b89E.llvm.14025449986115119833', symObjAddr: 0xF470, symBinAddr: 0xA90E0, symSize: 0xD0 }
  - { offsetInCU: 0x3BE99, offset: 0x36442F, size: 0x8, addend: 0x0, symName: '__ZN42_$LT$$RF$T$u20$as$u20$core..fmt..Debug$GT$3fmt17h758ab51884d35a1aE', symObjAddr: 0x1A0, symBinAddr: 0x99F10, symSize: 0x80 }
  - { offsetInCU: 0x3C09A, offset: 0x364630, size: 0x8, addend: 0x0, symName: '__ZN42_$LT$$RF$T$u20$as$u20$core..fmt..Debug$GT$3fmt17hd75f14d0cf92e165E', symObjAddr: 0x220, symBinAddr: 0x99F90, symSize: 0x80 }
  - { offsetInCU: 0x4125F, offset: 0x3697F5, size: 0x8, addend: 0x0, symName: '__ZN48_$LT$T$u20$as$u20$core..clone..CloneToUninit$GT$15clone_to_uninit17h573d7a4ee27ed36aE', symObjAddr: 0x2A0, symBinAddr: 0x9A010, symSize: 0x330 }
  - { offsetInCU: 0x42468, offset: 0x36A9FE, size: 0x8, addend: 0x0, symName: '__ZN136_$LT$alloc..vec..Vec$LT$T$C$A$GT$$u20$as$u20$alloc..vec..spec_extend..SpecExtend$LT$T$C$alloc..vec..into_iter..IntoIter$LT$T$GT$$GT$$GT$11spec_extend17hccc28cc1a2272c75E', symObjAddr: 0x100, symBinAddr: 0x99E70, symSize: 0xA0 }
  - { offsetInCU: 0x4279B, offset: 0x36AD31, size: 0x8, addend: 0x0, symName: '__ZN97_$LT$alloc..vec..Vec$LT$T$C$A$GT$$u20$as$u20$alloc..vec..spec_extend..SpecExtend$LT$T$C$I$GT$$GT$11spec_extend17ha7b17e62345c5d54E', symObjAddr: 0x13200, symBinAddr: 0xAB930, symSize: 0x330 }
  - { offsetInCU: 0x4378C, offset: 0x36BD22, size: 0x8, addend: 0x0, symName: '__ZN65_$LT$alloc..vec..Vec$LT$T$C$A$GT$$u20$as$u20$core..fmt..Debug$GT$3fmt17h0776bf106e76a4cfE', symObjAddr: 0xF710, symBinAddr: 0xA9240, symSize: 0x80 }
  - { offsetInCU: 0x4396E, offset: 0x36BF04, size: 0x8, addend: 0x0, symName: '__ZN65_$LT$alloc..vec..Vec$LT$T$C$A$GT$$u20$as$u20$core..fmt..Debug$GT$3fmt17h38904bcc75ecb31fE', symObjAddr: 0xF790, symBinAddr: 0xA92C0, symSize: 0x80 }
  - { offsetInCU: 0x43B50, offset: 0x36C0E6, size: 0x8, addend: 0x0, symName: '__ZN65_$LT$alloc..vec..Vec$LT$T$C$A$GT$$u20$as$u20$core..fmt..Debug$GT$3fmt17h457af28f9230c771E', symObjAddr: 0xF810, symBinAddr: 0xA9340, symSize: 0x80 }
  - { offsetInCU: 0x43D32, offset: 0x36C2C8, size: 0x8, addend: 0x0, symName: '__ZN65_$LT$alloc..vec..Vec$LT$T$C$A$GT$$u20$as$u20$core..fmt..Debug$GT$3fmt17h78353a29ca907f42E', symObjAddr: 0xF990, symBinAddr: 0xA93C0, symSize: 0x80 }
  - { offsetInCU: 0x43F14, offset: 0x36C4AA, size: 0x8, addend: 0x0, symName: '__ZN65_$LT$alloc..vec..Vec$LT$T$C$A$GT$$u20$as$u20$core..fmt..Debug$GT$3fmt17h7a1e9f0ab38cda9bE', symObjAddr: 0xFA10, symBinAddr: 0xA9440, symSize: 0x80 }
  - { offsetInCU: 0x440F6, offset: 0x36C68C, size: 0x8, addend: 0x0, symName: '__ZN65_$LT$alloc..vec..Vec$LT$T$C$A$GT$$u20$as$u20$core..fmt..Debug$GT$3fmt17h7df35ea0f5de10d6E', symObjAddr: 0xFA90, symBinAddr: 0xA94C0, symSize: 0x80 }
  - { offsetInCU: 0x442C7, offset: 0x36C85D, size: 0x8, addend: 0x0, symName: '__ZN65_$LT$alloc..vec..Vec$LT$T$C$A$GT$$u20$as$u20$core..fmt..Debug$GT$3fmt17haa7667db208ac38aE', symObjAddr: 0xFB10, symBinAddr: 0xA9540, symSize: 0x80 }
  - { offsetInCU: 0x444ED, offset: 0x36CA83, size: 0x8, addend: 0x0, symName: '__ZN67_$LT$alloc..vec..Vec$LT$T$C$A$GT$$u20$as$u20$core..clone..Clone$GT$5clone17h0918c192fa05002fE', symObjAddr: 0xFC70, symBinAddr: 0xA95C0, symSize: 0x0 }
  - { offsetInCU: 0x44920, offset: 0x36CEB6, size: 0x8, addend: 0x0, symName: '__ZN67_$LT$alloc..vec..Vec$LT$T$C$A$GT$$u20$as$u20$core..clone..Clone$GT$5clone17h12f34926ea9f1126E', symObjAddr: 0xFDC0, symBinAddr: 0xA9710, symSize: 0x140 }
  - { offsetInCU: 0x44D52, offset: 0x36D2E8, size: 0x8, addend: 0x0, symName: '__ZN67_$LT$alloc..vec..Vec$LT$T$C$A$GT$$u20$as$u20$core..clone..Clone$GT$5clone17h198f7ad4e9731601E', symObjAddr: 0xFF00, symBinAddr: 0xA9850, symSize: 0x150 }
  - { offsetInCU: 0x45185, offset: 0x36D71B, size: 0x8, addend: 0x0, symName: '__ZN67_$LT$alloc..vec..Vec$LT$T$C$A$GT$$u20$as$u20$core..clone..Clone$GT$5clone17h1c4556f52f9d0d47E', symObjAddr: 0x10050, symBinAddr: 0xA99A0, symSize: 0x140 }
  - { offsetInCU: 0x45562, offset: 0x36DAF8, size: 0x8, addend: 0x0, symName: '__ZN67_$LT$alloc..vec..Vec$LT$T$C$A$GT$$u20$as$u20$core..clone..Clone$GT$5clone17h231253a81e7a58bbE', symObjAddr: 0x10190, symBinAddr: 0xA9AE0, symSize: 0x140 }
  - { offsetInCU: 0x45995, offset: 0x36DF2B, size: 0x8, addend: 0x0, symName: '__ZN67_$LT$alloc..vec..Vec$LT$T$C$A$GT$$u20$as$u20$core..clone..Clone$GT$5clone17h26458e8ef80c3a9bE', symObjAddr: 0x102D0, symBinAddr: 0xA9C20, symSize: 0x150 }
  - { offsetInCU: 0x45DC8, offset: 0x36E35E, size: 0x8, addend: 0x0, symName: '__ZN67_$LT$alloc..vec..Vec$LT$T$C$A$GT$$u20$as$u20$core..clone..Clone$GT$5clone17h2b24796f45520c7bE', symObjAddr: 0x10420, symBinAddr: 0xA9D70, symSize: 0x140 }
  - { offsetInCU: 0x461A5, offset: 0x36E73B, size: 0x8, addend: 0x0, symName: '__ZN67_$LT$alloc..vec..Vec$LT$T$C$A$GT$$u20$as$u20$core..clone..Clone$GT$5clone17h2f79e88de7934928E', symObjAddr: 0x10560, symBinAddr: 0xA9EB0, symSize: 0x140 }
  - { offsetInCU: 0x46582, offset: 0x36EB18, size: 0x8, addend: 0x0, symName: '__ZN67_$LT$alloc..vec..Vec$LT$T$C$A$GT$$u20$as$u20$core..clone..Clone$GT$5clone17h31bc48edccfa1915E', symObjAddr: 0x106A0, symBinAddr: 0xA9FF0, symSize: 0x240 }
  - { offsetInCU: 0x46BA3, offset: 0x36F139, size: 0x8, addend: 0x0, symName: '__ZN67_$LT$alloc..vec..Vec$LT$T$C$A$GT$$u20$as$u20$core..clone..Clone$GT$5clone17h363befc284095627E', symObjAddr: 0x108E0, symBinAddr: 0xAA230, symSize: 0x150 }
  - { offsetInCU: 0x46FD6, offset: 0x36F56C, size: 0x8, addend: 0x0, symName: '__ZN67_$LT$alloc..vec..Vec$LT$T$C$A$GT$$u20$as$u20$core..clone..Clone$GT$5clone17h4573a12392f30b82E', symObjAddr: 0x10A30, symBinAddr: 0xAA380, symSize: 0x1A0 }
  - { offsetInCU: 0x47462, offset: 0x36F9F8, size: 0x8, addend: 0x0, symName: '__ZN67_$LT$alloc..vec..Vec$LT$T$C$A$GT$$u20$as$u20$core..clone..Clone$GT$5clone17h66d29e7a7f7f75a3E', symObjAddr: 0x10BD0, symBinAddr: 0xAA520, symSize: 0x140 }
  - { offsetInCU: 0x4783F, offset: 0x36FDD5, size: 0x8, addend: 0x0, symName: '__ZN67_$LT$alloc..vec..Vec$LT$T$C$A$GT$$u20$as$u20$core..clone..Clone$GT$5clone17h6e06f5a531199142E', symObjAddr: 0x10D10, symBinAddr: 0xAA660, symSize: 0x180 }
  - { offsetInCU: 0x47D17, offset: 0x3702AD, size: 0x8, addend: 0x0, symName: '__ZN67_$LT$alloc..vec..Vec$LT$T$C$A$GT$$u20$as$u20$core..clone..Clone$GT$5clone17h7130fcf6814bc045E', symObjAddr: 0x10E90, symBinAddr: 0xAA7E0, symSize: 0x150 }
  - { offsetInCU: 0x4814A, offset: 0x3706E0, size: 0x8, addend: 0x0, symName: '__ZN67_$LT$alloc..vec..Vec$LT$T$C$A$GT$$u20$as$u20$core..clone..Clone$GT$5clone17h7665f3814d75ccf2E', symObjAddr: 0x10FE0, symBinAddr: 0xAA930, symSize: 0x150 }
  - { offsetInCU: 0x4857D, offset: 0x370B13, size: 0x8, addend: 0x0, symName: '__ZN67_$LT$alloc..vec..Vec$LT$T$C$A$GT$$u20$as$u20$core..clone..Clone$GT$5clone17h81c8c2fa81ddf714E', symObjAddr: 0x11130, symBinAddr: 0xAAA80, symSize: 0x160 }
  - { offsetInCU: 0x489F1, offset: 0x370F87, size: 0x8, addend: 0x0, symName: '__ZN67_$LT$alloc..vec..Vec$LT$T$C$A$GT$$u20$as$u20$core..clone..Clone$GT$5clone17h95e57492d3a10cc0E', symObjAddr: 0x113F0, symBinAddr: 0xAABE0, symSize: 0x140 }
  - { offsetInCU: 0x48DCE, offset: 0x371364, size: 0x8, addend: 0x0, symName: '__ZN67_$LT$alloc..vec..Vec$LT$T$C$A$GT$$u20$as$u20$core..clone..Clone$GT$5clone17ha4bb515f2984f91aE', symObjAddr: 0x11530, symBinAddr: 0xAAD20, symSize: 0x150 }
  - { offsetInCU: 0x49201, offset: 0x371797, size: 0x8, addend: 0x0, symName: '__ZN67_$LT$alloc..vec..Vec$LT$T$C$A$GT$$u20$as$u20$core..clone..Clone$GT$5clone17haa8bb6b2679cb284E', symObjAddr: 0x11680, symBinAddr: 0xAAE70, symSize: 0x240 }
  - { offsetInCU: 0x497FA, offset: 0x371D90, size: 0x8, addend: 0x0, symName: '__ZN67_$LT$alloc..vec..Vec$LT$T$C$A$GT$$u20$as$u20$core..clone..Clone$GT$5clone17hbc42148281c8a2c5E', symObjAddr: 0x118C0, symBinAddr: 0xAB0B0, symSize: 0x150 }
  - { offsetInCU: 0x49C2D, offset: 0x3721C3, size: 0x8, addend: 0x0, symName: '__ZN67_$LT$alloc..vec..Vec$LT$T$C$A$GT$$u20$as$u20$core..clone..Clone$GT$5clone17hdea0838f2711b888E', symObjAddr: 0x11A10, symBinAddr: 0xAB200, symSize: 0x180 }
  - { offsetInCU: 0x4A12F, offset: 0x3726C5, size: 0x8, addend: 0x0, symName: '__ZN67_$LT$alloc..vec..Vec$LT$T$C$A$GT$$u20$as$u20$core..clone..Clone$GT$5clone17he6fccb5bd9282467E', symObjAddr: 0x11B90, symBinAddr: 0xAB380, symSize: 0x150 }
  - { offsetInCU: 0x4A562, offset: 0x372AF8, size: 0x8, addend: 0x0, symName: '__ZN67_$LT$alloc..vec..Vec$LT$T$C$A$GT$$u20$as$u20$core..clone..Clone$GT$5clone17hfc43050c7448a50aE', symObjAddr: 0x11CE0, symBinAddr: 0xAB4D0, symSize: 0x140 }
  - { offsetInCU: 0x4A93F, offset: 0x372ED5, size: 0x8, addend: 0x0, symName: '__ZN67_$LT$alloc..vec..Vec$LT$T$C$A$GT$$u20$as$u20$core..clone..Clone$GT$5clone17hffa782808f95fe1aE', symObjAddr: 0x11E20, symBinAddr: 0xAB610, symSize: 0x140 }
  - { offsetInCU: 0x4B1EF, offset: 0x373785, size: 0x8, addend: 0x0, symName: '__ZN70_$LT$alloc..vec..Vec$LT$T$C$A$GT$$u20$as$u20$core..ops..drop..Drop$GT$4drop17h04459a2ad506febfE', symObjAddr: 0x11F60, symBinAddr: 0xAB750, symSize: 0xB0 }
  - { offsetInCU: 0x4B251, offset: 0x3737E7, size: 0x8, addend: 0x0, symName: '__ZN70_$LT$alloc..vec..Vec$LT$T$C$A$GT$$u20$as$u20$core..ops..drop..Drop$GT$4drop17h16fdfee690a97aabE', symObjAddr: 0x12150, symBinAddr: 0xAB800, symSize: 0xB0 }
  - { offsetInCU: 0x4B3CC, offset: 0x373962, size: 0x8, addend: 0x0, symName: '__ZN70_$LT$alloc..vec..Vec$LT$T$C$A$GT$$u20$as$u20$core..ops..drop..Drop$GT$4drop17h24dac77de93830d0E', symObjAddr: 0x12330, symBinAddr: 0xAB8B0, symSize: 0x80 }
  - { offsetInCU: 0x5041E, offset: 0x3789B4, size: 0x8, addend: 0x0, symName: '__ZN5alloc3vec16Vec$LT$T$C$A$GT$16into_boxed_slice17hf01fc5c9dc27910bE', symObjAddr: 0xF5D0, symBinAddr: 0xA91B0, symSize: 0x90 }
  - { offsetInCU: 0x1E, offset: 0x38D994, size: 0x8, addend: 0x0, symName: '__ZN4core3ptr100drop_in_place$LT$core..option..Option$LT$alloc..boxed..Box$LT$syn..path..GenericArgument$GT$$GT$$GT$17h3a7c44b9e57fe410E', symObjAddr: 0x0, symBinAddr: 0xABC60, symSize: 0x50 }
  - { offsetInCU: 0xA9, offset: 0x38DA1F, size: 0x8, addend: 0x0, symName: '__ZN58_$LT$alloc..string..String$u20$as$u20$core..fmt..Write$GT$10write_char17h04bc467bd68a934bE', symObjAddr: 0x71C0, symBinAddr: 0xB2E20, symSize: 0x140 }
  - { offsetInCU: 0x4AE, offset: 0x38DE24, size: 0x8, addend: 0x0, symName: '__ZN58_$LT$alloc..string..String$u20$as$u20$core..fmt..Write$GT$9write_str17h46a93205c3443fbaE', symObjAddr: 0x7300, symBinAddr: 0xB2F60, symSize: 0x60 }
  - { offsetInCU: 0x1455, offset: 0x38EDCB, size: 0x8, addend: 0x0, symName: __ZN5alloc5alloc15exchange_malloc17h9a87608d0224859dE, symObjAddr: 0x7360, symBinAddr: 0xB2FC0, symSize: 0x40 }
  - { offsetInCU: 0x37F8, offset: 0x39116E, size: 0x8, addend: 0x0, symName: '__ZN4core3ptr100drop_in_place$LT$core..option..Option$LT$alloc..boxed..Box$LT$syn..path..GenericArgument$GT$$GT$$GT$17h3a7c44b9e57fe410E', symObjAddr: 0x0, symBinAddr: 0xABC60, symSize: 0x50 }
  - { offsetInCU: 0x39C5, offset: 0x39133B, size: 0x8, addend: 0x0, symName: '__ZN4core3ptr102drop_in_place$LT$syn..punctuated..Punctuated$LT$syn..path..GenericArgument$C$syn..token..Comma$GT$$GT$17h8b1978399cfff48bE', symObjAddr: 0x50, symBinAddr: 0xABCB0, symSize: 0xF0 }
  - { offsetInCU: 0x3CE5, offset: 0x39165B, size: 0x8, addend: 0x0, symName: '__ZN4core3ptr103drop_in_place$LT$core..option..Option$LT$alloc..boxed..Box$LT$syn..generics..TypeParamBound$GT$$GT$$GT$17hb14e4384a768542bE', symObjAddr: 0x140, symBinAddr: 0xABDA0, symSize: 0x50 }
  - { offsetInCU: 0x3EF0, offset: 0x391866, size: 0x8, addend: 0x0, symName: '__ZN4core3ptr103drop_in_place$LT$syn..punctuated..Punctuated$LT$syn..generics..GenericParam$C$syn..token..Comma$GT$$GT$17h0c6077a988036760E', symObjAddr: 0x190, symBinAddr: 0xABDF0, symSize: 0xF0 }
  - { offsetInCU: 0x44C4, offset: 0x391E3A, size: 0x8, addend: 0x0, symName: '__ZN4core3ptr104drop_in_place$LT$syn..punctuated..Punctuated$LT$syn..generics..TypeParamBound$C$syn..token..Plus$GT$$GT$17h724e4d9d1d65061aE', symObjAddr: 0x280, symBinAddr: 0xABEE0, symSize: 0x260 }
  - { offsetInCU: 0x4F0E, offset: 0x392884, size: 0x8, addend: 0x0, symName: '__ZN4core3ptr34drop_in_place$LT$syn..lit..Lit$GT$17hd64dde89a262341dE', symObjAddr: 0x4E0, symBinAddr: 0xAC140, symSize: 0x120 }
  - { offsetInCU: 0x53FC, offset: 0x392D72, size: 0x8, addend: 0x0, symName: '__ZN4core3ptr34drop_in_place$LT$syn..pat..Pat$GT$17hf88887878261d63cE', symObjAddr: 0x600, symBinAddr: 0xAC260, symSize: 0xF70 }
  - { offsetInCU: 0x9315, offset: 0x396C8B, size: 0x8, addend: 0x0, symName: '__ZN4core3ptr34drop_in_place$LT$syn..ty..Type$GT$17ha80dd29b0f9d4a3fE', symObjAddr: 0x1570, symBinAddr: 0xAD1D0, symSize: 0x5A0 }
  - { offsetInCU: 0xACB1, offset: 0x398627, size: 0x8, addend: 0x0, symName: '__ZN4core3ptr36drop_in_place$LT$syn..expr..Expr$GT$17h10f573b40ddd212cE.llvm.15963643447187171253', symObjAddr: 0x1B10, symBinAddr: 0xAD770, symSize: 0x2760 }
  - { offsetInCU: 0x149A8, offset: 0x3A231E, size: 0x8, addend: 0x0, symName: '__ZN4core3ptr36drop_in_place$LT$syn..mac..Macro$GT$17hc3b30a7a8a34cc2dE', symObjAddr: 0x4270, symBinAddr: 0xAFED0, symSize: 0x110 }
  - { offsetInCU: 0x14E45, offset: 0x3A27BB, size: 0x8, addend: 0x0, symName: '__ZN4core3ptr36drop_in_place$LT$syn..path..Path$GT$17h75c74a97d5f0a03bE', symObjAddr: 0x4380, symBinAddr: 0xAFFE0, symSize: 0x280 }
  - { offsetInCU: 0x158F2, offset: 0x3A3268, size: 0x8, addend: 0x0, symName: '__ZN4core3ptr37drop_in_place$LT$syn..stmt..Block$GT$17h6fc3254d5688f2c3E', symObjAddr: 0x4600, symBinAddr: 0xB0260, symSize: 0xD0 }
  - { offsetInCU: 0x15BC9, offset: 0x3A353F, size: 0x8, addend: 0x0, symName: '__ZN4core3ptr38drop_in_place$LT$syn..expr..Member$GT$17h6b0cf84594ce6bceE', symObjAddr: 0x46D0, symBinAddr: 0xB0330, symSize: 0x30 }
  - { offsetInCU: 0x15D60, offset: 0x3A36D6, size: 0x8, addend: 0x0, symName: '__ZN4core3ptr38drop_in_place$LT$syn..group..Group$GT$17ha3c6933df6efe66fE', symObjAddr: 0x4700, symBinAddr: 0xB0360, symSize: 0x70 }
  - { offsetInCU: 0x16058, offset: 0x3A39CE, size: 0x8, addend: 0x0, symName: '__ZN4core3ptr39drop_in_place$LT$proc_macro2..Ident$GT$17ha28fef9769e267d9E', symObjAddr: 0x4770, symBinAddr: 0xB03D0, symSize: 0x30 }
  - { offsetInCU: 0x16173, offset: 0x3A3AE9, size: 0x8, addend: 0x0, symName: '__ZN4core3ptr39drop_in_place$LT$syn..lit..LitFloat$GT$17h83bfdc788eb6081bE', symObjAddr: 0x47A0, symBinAddr: 0xB0400, symSize: 0x70 }
  - { offsetInCU: 0x164E5, offset: 0x3A3E5B, size: 0x8, addend: 0x0, symName: '__ZN4core3ptr40drop_in_place$LT$syn..expr..ExprPath$GT$17h1e579ab03db12453E', symObjAddr: 0x4810, symBinAddr: 0xB0470, symSize: 0x110 }
  - { offsetInCU: 0x16948, offset: 0x3A42BE, size: 0x8, addend: 0x0, symName: '__ZN4core3ptr40drop_in_place$LT$syn..ty..ReturnType$GT$17h035a612e322b6510E', symObjAddr: 0x4920, symBinAddr: 0xB0580, symSize: 0x50 }
  - { offsetInCU: 0x16B15, offset: 0x3A448B, size: 0x8, addend: 0x0, symName: '__ZN4core3ptr41drop_in_place$LT$syn..attr..Attribute$GT$17h326c12be3efddb0cE', symObjAddr: 0x4970, symBinAddr: 0xB05D0, symSize: 0xA0 }
  - { offsetInCU: 0x16B90, offset: 0x3A4506, size: 0x8, addend: 0x0, symName: '__ZN4core3ptr41drop_in_place$LT$syn..expr..ExprConst$GT$17hbfe19d5d621e6836E', symObjAddr: 0x4A10, symBinAddr: 0xB0670, symSize: 0x180 }
  - { offsetInCU: 0x1717D, offset: 0x3A4AF3, size: 0x8, addend: 0x0, symName: '__ZN4core3ptr42drop_in_place$LT$alloc..string..String$GT$17h9acfda4d1b128177E', symObjAddr: 0x4B90, symBinAddr: 0xB07F0, symSize: 0x20 }
  - { offsetInCU: 0x17285, offset: 0x3A4BFB, size: 0x8, addend: 0x0, symName: '__ZN4core3ptr44drop_in_place$LT$syn..lifetime..Lifetime$GT$17he37fa474f03de7b1E', symObjAddr: 0x4BB0, symBinAddr: 0xB0810, symSize: 0x30 }
  - { offsetInCU: 0x17381, offset: 0x3A4CF7, size: 0x8, addend: 0x0, symName: '__ZN4core3ptr44drop_in_place$LT$syn..parse..ParseBuffer$GT$17hf792ff20095efc35E', symObjAddr: 0x4BE0, symBinAddr: 0xB0840, symSize: 0x70 }
  - { offsetInCU: 0x17798, offset: 0x3A510E, size: 0x8, addend: 0x0, symName: '__ZN4core3ptr45drop_in_place$LT$proc_macro2..TokenStream$GT$17h76e8e68015f4924dE', symObjAddr: 0x4C50, symBinAddr: 0xB08B0, symSize: 0x140 }
  - { offsetInCU: 0x17C32, offset: 0x3A55A8, size: 0x8, addend: 0x0, symName: '__ZN4core3ptr45drop_in_place$LT$syn..generics..TypeParam$GT$17h188a459c1380ac75E', symObjAddr: 0x4D90, symBinAddr: 0xB09F0, symSize: 0x230 }
  - { offsetInCU: 0x184A7, offset: 0x3A5E1D, size: 0x8, addend: 0x0, symName: '__ZN4core3ptr46drop_in_place$LT$syn..generics..ConstParam$GT$17h7a9b900b2b88bfcdE', symObjAddr: 0x4FC0, symBinAddr: 0xB0C20, symSize: 0x150 }
  - { offsetInCU: 0x18928, offset: 0x3A629E, size: 0x8, addend: 0x0, symName: '__ZN4core3ptr47drop_in_place$LT$syn..path..GenericArgument$GT$17h593f06d6ca9a94d2E', symObjAddr: 0x5110, symBinAddr: 0xB0D70, symSize: 0x450 }
  - { offsetInCU: 0x1969E, offset: 0x3A7014, size: 0x8, addend: 0x0, symName: '__ZN4core3ptr49drop_in_place$LT$syn..generics..LifetimeParam$GT$17h3a8835ab294bfd16E', symObjAddr: 0x5560, symBinAddr: 0xB11C0, symSize: 0xF0 }
  - { offsetInCU: 0x19AB5, offset: 0x3A742B, size: 0x8, addend: 0x0, symName: '__ZN4core3ptr50drop_in_place$LT$syn..generics..TypeParamBound$GT$17h81b4325b5900604dE', symObjAddr: 0x5650, symBinAddr: 0xB12B0, symSize: 0xA0 }
  - { offsetInCU: 0x19C1B, offset: 0x3A7591, size: 0x8, addend: 0x0, symName: '__ZN4core3ptr58drop_in_place$LT$alloc..vec..Vec$LT$syn..expr..Arm$GT$$GT$17hff9224aadf2233b8E', symObjAddr: 0x56F0, symBinAddr: 0xB1350, symSize: 0xD0 }
  - { offsetInCU: 0x19EDB, offset: 0x3A7851, size: 0x8, addend: 0x0, symName: '__ZN4core3ptr59drop_in_place$LT$alloc..boxed..Box$LT$syn..pat..Pat$GT$$GT$17h622b0c1db21c0742E', symObjAddr: 0x57C0, symBinAddr: 0xB1420, symSize: 0x50 }
  - { offsetInCU: 0x1A034, offset: 0x3A79AA, size: 0x8, addend: 0x0, symName: '__ZN4core3ptr59drop_in_place$LT$alloc..boxed..Box$LT$syn..ty..Type$GT$$GT$17hde45fa887dd8b605E', symObjAddr: 0x5810, symBinAddr: 0xB1470, symSize: 0x50 }
  - { offsetInCU: 0x1A18D, offset: 0x3A7B03, size: 0x8, addend: 0x0, symName: '__ZN4core3ptr61drop_in_place$LT$alloc..boxed..Box$LT$syn..expr..Expr$GT$$GT$17hbb42293869113942E', symObjAddr: 0x5860, symBinAddr: 0xB14C0, symSize: 0x50 }
  - { offsetInCU: 0x1A2E6, offset: 0x3A7C5C, size: 0x8, addend: 0x0, symName: '__ZN4core3ptr61drop_in_place$LT$syn..path..ParenthesizedGenericArguments$GT$17h6b1731382637937fE', symObjAddr: 0x58B0, symBinAddr: 0xB1510, symSize: 0x170 }
  - { offsetInCU: 0x1A8EF, offset: 0x3A8265, size: 0x8, addend: 0x0, symName: '__ZN4core3ptr63drop_in_place$LT$alloc..boxed..Box$LT$syn..lit..LitRepr$GT$$GT$17h6e3a82ea4de7b84cE', symObjAddr: 0x5A20, symBinAddr: 0xB1680, symSize: 0x60 }
  - { offsetInCU: 0x1ABF6, offset: 0x3A856C, size: 0x8, addend: 0x0, symName: '__ZN4core3ptr64drop_in_place$LT$alloc..boxed..Box$LT$syn..pat..FieldPat$GT$$GT$17hbf8f4867d84bd25dE', symObjAddr: 0x5A80, symBinAddr: 0xB16E0, symSize: 0x140 }
  - { offsetInCU: 0x1B2F7, offset: 0x3A8C6D, size: 0x8, addend: 0x0, symName: '__ZN4core3ptr64drop_in_place$LT$alloc..boxed..Box$LT$syn..ty..BareFnArg$GT$$GT$17h6be6354eb1d1364dE', symObjAddr: 0x5BC0, symBinAddr: 0xB1820, symSize: 0x140 }
  - { offsetInCU: 0x1B880, offset: 0x3A91F6, size: 0x8, addend: 0x0, symName: '__ZN4core3ptr64drop_in_place$LT$alloc..vec..Vec$LT$syn..attr..Attribute$GT$$GT$17he33e25539d5885aeE.llvm.15963643447187171253', symObjAddr: 0x5D00, symBinAddr: 0xB1960, symSize: 0xD0 }
  - { offsetInCU: 0x1BB74, offset: 0x3A94EA, size: 0x8, addend: 0x0, symName: '__ZN4core3ptr65drop_in_place$LT$alloc..vec..Vec$LT$proc_macro..TokenTree$GT$$GT$17h8abd81f8596dbc59E', symObjAddr: 0x5DD0, symBinAddr: 0xB1A30, symSize: 0x110 }
  - { offsetInCU: 0x1BF6C, offset: 0x3A98E2, size: 0x8, addend: 0x0, symName: '__ZN4core3ptr65drop_in_place$LT$core..option..Option$LT$syn..expr..Label$GT$$GT$17hac599686b33ef364E', symObjAddr: 0x5EE0, symBinAddr: 0xB1B40, symSize: 0x30 }
  - { offsetInCU: 0x1C0A6, offset: 0x3A9A1C, size: 0x8, addend: 0x0, symName: '__ZN4core3ptr65drop_in_place$LT$core..option..Option$LT$syn..path..QSelf$GT$$GT$17h0b8dd5cda5f2cd6bE', symObjAddr: 0x5F10, symBinAddr: 0xB1B70, symSize: 0x50 }
  - { offsetInCU: 0x1C227, offset: 0x3A9B9D, size: 0x8, addend: 0x0, symName: '__ZN4core3ptr66drop_in_place$LT$core..option..Option$LT$syn..pat..PatRest$GT$$GT$17hd5bb3bc28aa78ac1E', symObjAddr: 0x5F60, symBinAddr: 0xB1BC0, symSize: 0xE0 }
  - { offsetInCU: 0x1C54F, offset: 0x3A9EC5, size: 0x8, addend: 0x0, symName: '__ZN4core3ptr67drop_in_place$LT$alloc..boxed..Box$LT$syn..expr..FieldValue$GT$$GT$17hbbcf67a9d5e9863cE', symObjAddr: 0x6040, symBinAddr: 0xB1CA0, symSize: 0x140 }
  - { offsetInCU: 0x1CAD7, offset: 0x3AA44D, size: 0x8, addend: 0x0, symName: '__ZN4core3ptr70drop_in_place$LT$core..option..Option$LT$syn..ty..BareVariadic$GT$$GT$17h79a19250e9f043b1E', symObjAddr: 0x6180, symBinAddr: 0xB1DE0, symSize: 0x100 }
  - { offsetInCU: 0x1CF42, offset: 0x3AA8B8, size: 0x8, addend: 0x0, symName: '__ZN4core3ptr72drop_in_place$LT$alloc..boxed..Box$LT$syn..path..GenericArgument$GT$$GT$17hfd308d374af4273dE', symObjAddr: 0x6280, symBinAddr: 0xB1EE0, symSize: 0x2B0 }
  - { offsetInCU: 0x1D953, offset: 0x3AB2C9, size: 0x8, addend: 0x0, symName: '__ZN4core3ptr72drop_in_place$LT$core..option..Option$LT$syn..lifetime..Lifetime$GT$$GT$17h49cce6f02f9c0590E', symObjAddr: 0x6530, symBinAddr: 0xB2190, symSize: 0x30 }
  - { offsetInCU: 0x1DA6E, offset: 0x3AB3E4, size: 0x8, addend: 0x0, symName: '__ZN4core3ptr73drop_in_place$LT$alloc..boxed..Box$LT$syn..generics..GenericParam$GT$$GT$17ha26d5d145af4b203E', symObjAddr: 0x6560, symBinAddr: 0xB21C0, symSize: 0x80 }
  - { offsetInCU: 0x1DBE4, offset: 0x3AB55A, size: 0x8, addend: 0x0, symName: '__ZN4core3ptr75drop_in_place$LT$alloc..boxed..Box$LT$syn..generics..TypeParamBound$GT$$GT$17h129a4e927e5eb81bE', symObjAddr: 0x65E0, symBinAddr: 0xB2240, symSize: 0x1B0 }
  - { offsetInCU: 0x1E2E3, offset: 0x3ABC59, size: 0x8, addend: 0x0, symName: '__ZN4core3ptr83drop_in_place$LT$core..result..Result$LT$syn..op..BinOp$C$syn..error..Error$GT$$GT$17h495a3ee3d6e6a47dE', symObjAddr: 0x6790, symBinAddr: 0xB23F0, symSize: 0x80 }
  - { offsetInCU: 0x1E5FD, offset: 0x3ABF73, size: 0x8, addend: 0x0, symName: '__ZN4core3ptr86drop_in_place$LT$syn..punctuated..Punctuated$LT$syn..pat..Pat$C$syn..token..Or$GT$$GT$17h9cc6b5f7b6d3a555E', symObjAddr: 0x6810, symBinAddr: 0xB2470, symSize: 0x120 }
  - { offsetInCU: 0x1EA78, offset: 0x3AC3EE, size: 0x8, addend: 0x0, symName: '__ZN4core3ptr87drop_in_place$LT$core..option..Option$LT$alloc..boxed..Box$LT$syn..pat..Pat$GT$$GT$$GT$17h51cd48973d96c411E', symObjAddr: 0x6930, symBinAddr: 0xB2590, symSize: 0x50 }
  - { offsetInCU: 0x1EBE8, offset: 0x3AC55E, size: 0x8, addend: 0x0, symName: '__ZN4core3ptr87drop_in_place$LT$core..option..Option$LT$alloc..boxed..Box$LT$syn..ty..Type$GT$$GT$$GT$17h103a25a4a7d7374eE', symObjAddr: 0x6980, symBinAddr: 0xB25E0, symSize: 0x50 }
  - { offsetInCU: 0x1ED58, offset: 0x3AC6CE, size: 0x8, addend: 0x0, symName: '__ZN4core3ptr89drop_in_place$LT$core..option..Option$LT$alloc..boxed..Box$LT$syn..expr..Expr$GT$$GT$$GT$17h9e02509cb2345d44E', symObjAddr: 0x69D0, symBinAddr: 0xB2630, symSize: 0x50 }
  - { offsetInCU: 0x1EF06, offset: 0x3AC87C, size: 0x8, addend: 0x0, symName: '__ZN4core3ptr89drop_in_place$LT$syn..punctuated..Punctuated$LT$syn..pat..Pat$C$syn..token..Comma$GT$$GT$17hd3a83c36827f210aE', symObjAddr: 0x6A20, symBinAddr: 0xB2680, symSize: 0x120 }
  - { offsetInCU: 0x1F3D6, offset: 0x3ACD4C, size: 0x8, addend: 0x0, symName: '__ZN4core3ptr91drop_in_place$LT$syn..punctuated..Punctuated$LT$syn..expr..Expr$C$syn..token..Comma$GT$$GT$17h6f261e8f470c81f2E', symObjAddr: 0x6B40, symBinAddr: 0xB27A0, symSize: 0x120 }
  - { offsetInCU: 0x1F864, offset: 0x3AD1DA, size: 0x8, addend: 0x0, symName: '__ZN4core3ptr94drop_in_place$LT$syn..punctuated..Punctuated$LT$syn..pat..FieldPat$C$syn..token..Comma$GT$$GT$17h43ec25af986ef674E', symObjAddr: 0x6C60, symBinAddr: 0xB28C0, symSize: 0xF0 }
  - { offsetInCU: 0x1FB63, offset: 0x3AD4D9, size: 0x8, addend: 0x0, symName: '__ZN4core3ptr94drop_in_place$LT$syn..punctuated..Punctuated$LT$syn..ty..BareFnArg$C$syn..token..Comma$GT$$GT$17h7ba4c699ee390ebaE', symObjAddr: 0x6D50, symBinAddr: 0xB29B0, symSize: 0xF0 }
  - { offsetInCU: 0x1FE64, offset: 0x3AD7DA, size: 0x8, addend: 0x0, symName: '__ZN4core3ptr96drop_in_place$LT$core..option..Option$LT$alloc..boxed..Box$LT$syn..path..PathSegment$GT$$GT$$GT$17h5de12a5a0f9e9ef9E', symObjAddr: 0x6E40, symBinAddr: 0xB2AA0, symSize: 0x1A0 }
  - { offsetInCU: 0x20525, offset: 0x3ADE9B, size: 0x8, addend: 0x0, symName: '__ZN4core3ptr97drop_in_place$LT$syn..punctuated..Punctuated$LT$syn..expr..FieldValue$C$syn..token..Comma$GT$$GT$17hf58d0a9a09266ab3E', symObjAddr: 0x6FE0, symBinAddr: 0xB2C40, symSize: 0xF0 }
  - { offsetInCU: 0x2089E, offset: 0x3AE214, size: 0x8, addend: 0x0, symName: '__ZN4core3ptr98drop_in_place$LT$syn..punctuated..Punctuated$LT$syn..lifetime..Lifetime$C$syn..token..Plus$GT$$GT$17h600c2b78f78fd2b9E', symObjAddr: 0x70D0, symBinAddr: 0xB2D30, symSize: 0xD0 }
  - { offsetInCU: 0x214D0, offset: 0x3AEE46, size: 0x8, addend: 0x0, symName: '__ZN53_$LT$core..fmt..Error$u20$as$u20$core..fmt..Debug$GT$3fmt17h03dc662ab152f3aeE', symObjAddr: 0x71A0, symBinAddr: 0xB2E00, symSize: 0x20 }
  - { offsetInCU: 0x2C59C, offset: 0x3B9F12, size: 0x8, addend: 0x0, symName: __ZN3syn4expr7parsing32parse_with_earlier_boundary_rule17h04da014a226fbbe5E, symObjAddr: 0x73A0, symBinAddr: 0xB3000, symSize: 0x1430 }
  - { offsetInCU: 0x2E8D7, offset: 0x3BC24D, size: 0x8, addend: 0x0, symName: __ZN3syn4expr7parsing14can_begin_expr17h4653549300b8351bE, symObjAddr: 0x87D0, symBinAddr: 0xB4430, symSize: 0x370 }
  - { offsetInCU: 0x2FA06, offset: 0x3BD37C, size: 0x8, addend: 0x0, symName: __ZN3syn4expr7parsing10parse_expr17he948d695e5f3d52eE.llvm.15963643447187171253, symObjAddr: 0x8B40, symBinAddr: 0xB47A0, symSize: 0x1330 }
  - { offsetInCU: 0x32826, offset: 0x3C019C, size: 0x8, addend: 0x0, symName: __ZN3syn4expr7parsing15parse_binop_rhs17h6b864ca016112671E, symObjAddr: 0x9E70, symBinAddr: 0xB5AD0, symSize: 0x4E0 }
  - { offsetInCU: 0x33310, offset: 0x3C0C86, size: 0x8, addend: 0x0, symName: __ZN3syn4expr7parsing14ambiguous_expr17h5b5bba9c148d94dbE, symObjAddr: 0xA350, symBinAddr: 0xB5FB0, symSize: 0xF0 }
  - { offsetInCU: 0x33392, offset: 0x3C0D08, size: 0x8, addend: 0x0, symName: __ZN3syn4expr7parsing10expr_attrs17h79ae24352e9d9d57E, symObjAddr: 0xA440, symBinAddr: 0xB60A0, symSize: 0x250 }
  - { offsetInCU: 0x338FA, offset: 0x3C1270, size: 0x8, addend: 0x0, symName: __ZN3syn4expr7parsing10unary_expr17h1634cdc87bf326dfE, symObjAddr: 0xA690, symBinAddr: 0xB62F0, symSize: 0x7C0 }
  - { offsetInCU: 0x34B91, offset: 0x3C2507, size: 0x8, addend: 0x0, symName: __ZN3syn4expr7parsing12trailer_expr17hd6c52758b73443cfE, symObjAddr: 0xAE50, symBinAddr: 0xB6AB0, symSize: 0x1830 }
  - { offsetInCU: 0x3859C, offset: 0x3C5F12, size: 0x8, addend: 0x0, symName: __ZN3syn4expr7parsing14trailer_helper17h681119187c5a546dE, symObjAddr: 0xC680, symBinAddr: 0xB82E0, symSize: 0x1F80 }
  - { offsetInCU: 0x3C7EC, offset: 0x3CA162, size: 0x8, addend: 0x0, symName: __ZN3syn4expr7parsing12atom_labeled17h4604f459baf45e1eE, symObjAddr: 0xE600, symBinAddr: 0xBA260, symSize: 0x590 }
  - { offsetInCU: 0x3D0EB, offset: 0x3CAA61, size: 0x8, addend: 0x0, symName: __ZN3syn4expr7parsing12expr_builtin17h8b5ff5122f88b230E, symObjAddr: 0xEB90, symBinAddr: 0xBA7F0, symSize: 0x410 }
  - { offsetInCU: 0x3DD17, offset: 0x3CB68D, size: 0x8, addend: 0x0, symName: __ZN3syn4expr7parsing23path_or_macro_or_struct17he515cb28f35d860eE, symObjAddr: 0xEFA0, symBinAddr: 0xBAC00, symSize: 0x130 }
  - { offsetInCU: 0x3DDD3, offset: 0x3CB749, size: 0x8, addend: 0x0, symName: __ZN3syn4expr7parsing31rest_of_path_or_macro_or_struct17hab8b11d447eb17cdE, symObjAddr: 0xF0D0, symBinAddr: 0xBAD30, symSize: 0x3D0 }
  - { offsetInCU: 0x3E549, offset: 0x3CBEBF, size: 0x8, addend: 0x0, symName: __ZN3syn4expr7parsing14paren_or_tuple17hca3957091eeb9c50E, symObjAddr: 0xF4A0, symBinAddr: 0xBB100, symSize: 0x780 }
  - { offsetInCU: 0x3EE97, offset: 0x3CC80D, size: 0x8, addend: 0x0, symName: __ZN3syn4expr7parsing15array_or_repeat17h7503a4cc2fc5aa31E, symObjAddr: 0xFC20, symBinAddr: 0xBB880, symSize: 0x950 }
  - { offsetInCU: 0x3FA48, offset: 0x3CD3BE, size: 0x8, addend: 0x0, symName: __ZN3syn4expr7parsing10expr_group17ha2f3b33138d5864cE, symObjAddr: 0x10570, symBinAddr: 0xBC1D0, symSize: 0x870 }
  - { offsetInCU: 0x405C1, offset: 0x3CDF37, size: 0x8, addend: 0x0, symName: __ZN3syn4expr7parsing8expr_let17hf863f328b939742fE, symObjAddr: 0x10FC0, symBinAddr: 0xBCA40, symSize: 0x570 }
  - { offsetInCU: 0x40F1D, offset: 0x3CE893, size: 0x8, addend: 0x0, symName: __ZN3syn4expr7parsing10expr_unary17h1d4eb12bbc8abbd2E, symObjAddr: 0x11530, symBinAddr: 0xBCFB0, symSize: 0x2D0 }
  - { offsetInCU: 0x414F3, offset: 0x3CEE69, size: 0x8, addend: 0x0, symName: __ZN3syn4expr7parsing12expr_closure17h4e49f531e43f650cE, symObjAddr: 0x11800, symBinAddr: 0xBD280, symSize: 0x1580 }
  - { offsetInCU: 0x43177, offset: 0x3D0AED, size: 0x8, addend: 0x0, symName: __ZN3syn4expr7parsing10expr_break17h3ba483e8fdc57f87E, symObjAddr: 0x12D80, symBinAddr: 0xBE800, symSize: 0x720 }
  - { offsetInCU: 0x44200, offset: 0x3D1B76, size: 0x8, addend: 0x0, symName: __ZN3syn4expr7parsing18expr_struct_helper17h62f8c2fd9c8d9ae6E, symObjAddr: 0x134A0, symBinAddr: 0xBEF20, symSize: 0x980 }
  - { offsetInCU: 0x4513E, offset: 0x3D2AB4, size: 0x8, addend: 0x0, symName: __ZN3syn4expr7parsing10expr_range17h3255a6ff02803bdbE, symObjAddr: 0x13E20, symBinAddr: 0xBF8A0, symSize: 0xF0 }
  - { offsetInCU: 0x452FE, offset: 0x3D2C74, size: 0x8, addend: 0x0, symName: __ZN3syn4expr7parsing15parse_range_end17hbd7fe95ed93f48b3E, symObjAddr: 0x13F10, symBinAddr: 0xBF990, symSize: 0x11D }
  - { offsetInCU: 0x1E, offset: 0x3E5428, size: 0x8, addend: 0x0, symName: __ZN5alloc7raw_vec11finish_grow17h5993caaa74c4fbdfE.llvm.8028830779895567672, symObjAddr: 0x0, symBinAddr: 0xBFAB0, symSize: 0xA0 }
  - { offsetInCU: 0x69AB, offset: 0x3EBDB5, size: 0x8, addend: 0x0, symName: __ZN5alloc7raw_vec11finish_grow17h5993caaa74c4fbdfE.llvm.8028830779895567672, symObjAddr: 0x0, symBinAddr: 0xBFAB0, symSize: 0xA0 }
  - { offsetInCU: 0x875C, offset: 0x3EDB66, size: 0x8, addend: 0x0, symName: '__ZN5alloc7raw_vec19RawVec$LT$T$C$A$GT$7reserve21do_reserve_and_handle17h1257c9ee09466061E', symObjAddr: 0x1330, symBinAddr: 0x20A0D0, symSize: 0xA0 }
  - { offsetInCU: 0x8A54, offset: 0x3EDE5E, size: 0x8, addend: 0x0, symName: '__ZN5alloc7raw_vec19RawVec$LT$T$C$A$GT$7reserve21do_reserve_and_handle17h30f192da7d596089E', symObjAddr: 0x13D0, symBinAddr: 0x20A170, symSize: 0xB0 }
  - { offsetInCU: 0x8D7F, offset: 0x3EE189, size: 0x8, addend: 0x0, symName: '__ZN5alloc7raw_vec19RawVec$LT$T$C$A$GT$7reserve21do_reserve_and_handle17h7bcc278903fa73cdE', symObjAddr: 0x1480, symBinAddr: 0x20A220, symSize: 0xB0 }
  - { offsetInCU: 0x90AA, offset: 0x3EE4B4, size: 0x8, addend: 0x0, symName: '__ZN5alloc7raw_vec19RawVec$LT$T$C$A$GT$7reserve21do_reserve_and_handle17h96ca4a18a0a3ddafE', symObjAddr: 0x15F0, symBinAddr: 0x20A2D0, symSize: 0xB0 }
  - { offsetInCU: 0x93D7, offset: 0x3EE7E1, size: 0x8, addend: 0x0, symName: '__ZN5alloc7raw_vec19RawVec$LT$T$C$A$GT$7reserve21do_reserve_and_handle17hbb3a7e81495482abE', symObjAddr: 0x16A0, symBinAddr: 0x20A380, symSize: 0xB0 }
  - { offsetInCU: 0xFEEE, offset: 0x3F52F8, size: 0x8, addend: 0x0, symName: '__ZN5alloc7raw_vec19RawVec$LT$T$C$A$GT$8grow_one17h095fa3667201f4f8E', symObjAddr: 0x1810, symBinAddr: 0xBFB50, symSize: 0xC0 }
  - { offsetInCU: 0x103BC, offset: 0x3F57C6, size: 0x8, addend: 0x0, symName: '__ZN5alloc7raw_vec19RawVec$LT$T$C$A$GT$8grow_one17h17381682e7253ec7E', symObjAddr: 0x18D0, symBinAddr: 0xBFC10, symSize: 0xC0 }
  - { offsetInCU: 0x1088A, offset: 0x3F5C94, size: 0x8, addend: 0x0, symName: '__ZN5alloc7raw_vec19RawVec$LT$T$C$A$GT$8grow_one17h248c03912984705cE', symObjAddr: 0x1990, symBinAddr: 0xBFCD0, symSize: 0xB0 }
  - { offsetInCU: 0x10D58, offset: 0x3F6162, size: 0x8, addend: 0x0, symName: '__ZN5alloc7raw_vec19RawVec$LT$T$C$A$GT$8grow_one17h3075326c15ed7061E', symObjAddr: 0x1A40, symBinAddr: 0xBFD80, symSize: 0x0 }
  - { offsetInCU: 0x11228, offset: 0x3F6632, size: 0x8, addend: 0x0, symName: '__ZN5alloc7raw_vec19RawVec$LT$T$C$A$GT$8grow_one17h313fd240ac0cecb3E', symObjAddr: 0x1B00, symBinAddr: 0xBFE40, symSize: 0x0 }
  - { offsetInCU: 0x116F6, offset: 0x3F6B00, size: 0x8, addend: 0x0, symName: '__ZN5alloc7raw_vec19RawVec$LT$T$C$A$GT$8grow_one17h32f85f1d3098de7dE', symObjAddr: 0x1BC0, symBinAddr: 0xBFF00, symSize: 0x0 }
  - { offsetInCU: 0x11B5A, offset: 0x3F6F64, size: 0x8, addend: 0x0, symName: '__ZN5alloc7raw_vec19RawVec$LT$T$C$A$GT$8grow_one17h46224c298c9c9296E', symObjAddr: 0x1C80, symBinAddr: 0xBFFC0, symSize: 0x0 }
  - { offsetInCU: 0x12026, offset: 0x3F7430, size: 0x8, addend: 0x0, symName: '__ZN5alloc7raw_vec19RawVec$LT$T$C$A$GT$8grow_one17h5a605c90d00a8a39E', symObjAddr: 0x1D30, symBinAddr: 0xC0070, symSize: 0xC0 }
  - { offsetInCU: 0x124F4, offset: 0x3F78FE, size: 0x8, addend: 0x0, symName: '__ZN5alloc7raw_vec19RawVec$LT$T$C$A$GT$8grow_one17h718e5b8a06d845cbE', symObjAddr: 0x1DF0, symBinAddr: 0xC0130, symSize: 0xC0 }
  - { offsetInCU: 0x12833, offset: 0x3F7C3D, size: 0x8, addend: 0x0, symName: '__ZN5alloc7raw_vec19RawVec$LT$T$C$A$GT$8grow_one17h72dabde20a137b04E', symObjAddr: 0x1EB0, symBinAddr: 0xC01F0, symSize: 0xB0 }
  - { offsetInCU: 0x12CFF, offset: 0x3F8109, size: 0x8, addend: 0x0, symName: '__ZN5alloc7raw_vec19RawVec$LT$T$C$A$GT$8grow_one17h7c2c58db67a15848E', symObjAddr: 0x1F60, symBinAddr: 0xC02A0, symSize: 0x0 }
  - { offsetInCU: 0x131CD, offset: 0x3F85D7, size: 0x8, addend: 0x0, symName: '__ZN5alloc7raw_vec19RawVec$LT$T$C$A$GT$8grow_one17h7d9544ea3e76eae9E', symObjAddr: 0x2020, symBinAddr: 0xC0360, symSize: 0xC0 }
  - { offsetInCU: 0x1369B, offset: 0x3F8AA5, size: 0x8, addend: 0x0, symName: '__ZN5alloc7raw_vec19RawVec$LT$T$C$A$GT$8grow_one17h82b0804d651d4ef5E', symObjAddr: 0x20E0, symBinAddr: 0xC0420, symSize: 0xC0 }
  - { offsetInCU: 0x13B96, offset: 0x3F8FA0, size: 0x8, addend: 0x0, symName: '__ZN5alloc7raw_vec19RawVec$LT$T$C$A$GT$8grow_one17h85907f27c23a559bE', symObjAddr: 0x21A0, symBinAddr: 0xC04E0, symSize: 0xB0 }
  - { offsetInCU: 0x14062, offset: 0x3F946C, size: 0x8, addend: 0x0, symName: '__ZN5alloc7raw_vec19RawVec$LT$T$C$A$GT$8grow_one17ha5852730cd02935bE', symObjAddr: 0x2250, symBinAddr: 0xC0590, symSize: 0x0 }
  - { offsetInCU: 0x14530, offset: 0x3F993A, size: 0x8, addend: 0x0, symName: '__ZN5alloc7raw_vec19RawVec$LT$T$C$A$GT$8grow_one17hb30077ec058bafdfE', symObjAddr: 0x2310, symBinAddr: 0xC0650, symSize: 0xB0 }
  - { offsetInCU: 0x149FC, offset: 0x3F9E06, size: 0x8, addend: 0x0, symName: '__ZN5alloc7raw_vec19RawVec$LT$T$C$A$GT$8grow_one17hc0723e4af934b43eE', symObjAddr: 0x23C0, symBinAddr: 0xC0700, symSize: 0xC0 }
  - { offsetInCU: 0x14D3D, offset: 0x3FA147, size: 0x8, addend: 0x0, symName: '__ZN5alloc7raw_vec19RawVec$LT$T$C$A$GT$8grow_one17hc9702e9ac871cd96E', symObjAddr: 0x2480, symBinAddr: 0xC07C0, symSize: 0xB0 }
  - { offsetInCU: 0x1520B, offset: 0x3FA615, size: 0x8, addend: 0x0, symName: '__ZN5alloc7raw_vec19RawVec$LT$T$C$A$GT$8grow_one17hcf254d991fef210fE', symObjAddr: 0x2530, symBinAddr: 0xC0870, symSize: 0xC0 }
  - { offsetInCU: 0x156D9, offset: 0x3FAAE3, size: 0x8, addend: 0x0, symName: '__ZN5alloc7raw_vec19RawVec$LT$T$C$A$GT$8grow_one17hd89eb202b8db7e1aE', symObjAddr: 0x25F0, symBinAddr: 0xC0930, symSize: 0xC0 }
  - { offsetInCU: 0x15A1A, offset: 0x3FAE24, size: 0x8, addend: 0x0, symName: '__ZN5alloc7raw_vec19RawVec$LT$T$C$A$GT$8grow_one17hdb610d4d82b2394dE', symObjAddr: 0x26B0, symBinAddr: 0xC09F0, symSize: 0xA0 }
  - { offsetInCU: 0x15EA9, offset: 0x3FB2B3, size: 0x8, addend: 0x0, symName: '__ZN5alloc7raw_vec19RawVec$LT$T$C$A$GT$8grow_one17hdc14d76226baa6aaE', symObjAddr: 0x2750, symBinAddr: 0xC0A90, symSize: 0xC0 }
  - { offsetInCU: 0x16377, offset: 0x3FB781, size: 0x8, addend: 0x0, symName: '__ZN5alloc7raw_vec19RawVec$LT$T$C$A$GT$8grow_one17hfb0e72b592d7c1fcE', symObjAddr: 0x2810, symBinAddr: 0xC0B50, symSize: 0xC0 }
  - { offsetInCU: 0x1E, offset: 0x3FBB2E, size: 0x8, addend: 0x0, symName: '__ZN4core3ptr100drop_in_place$LT$core..option..Option$LT$alloc..boxed..Box$LT$syn..path..GenericArgument$GT$$GT$$GT$17h3a7c44b9e57fe410E', symObjAddr: 0x0, symBinAddr: 0xC0C10, symSize: 0x50 }
  - { offsetInCU: 0x1A4F, offset: 0x3FD55F, size: 0x8, addend: 0x0, symName: '__ZN4core3ptr100drop_in_place$LT$core..option..Option$LT$alloc..boxed..Box$LT$syn..path..GenericArgument$GT$$GT$$GT$17h3a7c44b9e57fe410E', symObjAddr: 0x0, symBinAddr: 0xC0C10, symSize: 0x50 }
  - { offsetInCU: 0x1C1C, offset: 0x3FD72C, size: 0x8, addend: 0x0, symName: '__ZN4core3ptr102drop_in_place$LT$syn..punctuated..Punctuated$LT$syn..path..GenericArgument$C$syn..token..Comma$GT$$GT$17h8b1978399cfff48bE', symObjAddr: 0x50, symBinAddr: 0xC0C60, symSize: 0xF0 }
  - { offsetInCU: 0x1F3C, offset: 0x3FDA4C, size: 0x8, addend: 0x0, symName: '__ZN4core3ptr103drop_in_place$LT$core..option..Option$LT$alloc..boxed..Box$LT$syn..generics..TypeParamBound$GT$$GT$$GT$17hb14e4384a768542bE', symObjAddr: 0x140, symBinAddr: 0xC0D50, symSize: 0x50 }
  - { offsetInCU: 0x2201, offset: 0x3FDD11, size: 0x8, addend: 0x0, symName: '__ZN4core3ptr103drop_in_place$LT$core..option..Option$LT$alloc..boxed..Box$LT$syn..generics..WherePredicate$GT$$GT$$GT$17he190813f4819c5dbE', symObjAddr: 0x190, symBinAddr: 0xC0DA0, symSize: 0xD0 }
  - { offsetInCU: 0x2595, offset: 0x3FE0A5, size: 0x8, addend: 0x0, symName: '__ZN4core3ptr103drop_in_place$LT$syn..punctuated..Punctuated$LT$syn..generics..GenericParam$C$syn..token..Comma$GT$$GT$17h0c6077a988036760E', symObjAddr: 0x260, symBinAddr: 0xC0E70, symSize: 0xF0 }
  - { offsetInCU: 0x2A90, offset: 0x3FE5A0, size: 0x8, addend: 0x0, symName: '__ZN4core3ptr104drop_in_place$LT$syn..punctuated..Punctuated$LT$syn..generics..TypeParamBound$C$syn..token..Plus$GT$$GT$17h724e4d9d1d65061aE', symObjAddr: 0x350, symBinAddr: 0xC0F60, symSize: 0x260 }
  - { offsetInCU: 0x345E, offset: 0x3FEF6E, size: 0x8, addend: 0x0, symName: '__ZN4core3ptr115drop_in_place$LT$core..option..Option$LT$$LP$alloc..boxed..Box$LT$syn..pat..Pat$GT$$C$syn..token..Colon$RP$$GT$$GT$17h787822396d5dcd7bE', symObjAddr: 0x5B0, symBinAddr: 0xC11C0, symSize: 0x50 }
  - { offsetInCU: 0x362C, offset: 0x3FF13C, size: 0x8, addend: 0x0, symName: '__ZN4core3ptr115drop_in_place$LT$core..option..Option$LT$$LP$syn..token..Brace$C$alloc..vec..Vec$LT$syn..item..Item$GT$$RP$$GT$$GT$17h4f61046186bbd7c9E', symObjAddr: 0x600, symBinAddr: 0xC1210, symSize: 0xD0 }
  - { offsetInCU: 0x3943, offset: 0x3FF453, size: 0x8, addend: 0x0, symName: '__ZN4core3ptr126drop_in_place$LT$core..option..Option$LT$$LP$syn..token..And$C$core..option..Option$LT$syn..lifetime..Lifetime$GT$$RP$$GT$$GT$17h45c5d73e12cdf6f0E', symObjAddr: 0x6D0, symBinAddr: 0xC12E0, symSize: 0x30 }
  - { offsetInCU: 0x3B56, offset: 0x3FF666, size: 0x8, addend: 0x0, symName: '__ZN4core3ptr34drop_in_place$LT$syn..lit..Lit$GT$17hd64dde89a262341dE', symObjAddr: 0x700, symBinAddr: 0xC1310, symSize: 0x120 }
  - { offsetInCU: 0x4025, offset: 0x3FFB35, size: 0x8, addend: 0x0, symName: '__ZN4core3ptr34drop_in_place$LT$syn..pat..Pat$GT$17hf88887878261d63cE', symObjAddr: 0x820, symBinAddr: 0xC1430, symSize: 0xF70 }
  - { offsetInCU: 0x7F1F, offset: 0x403A2F, size: 0x8, addend: 0x0, symName: '__ZN4core3ptr34drop_in_place$LT$syn..ty..Type$GT$17ha80dd29b0f9d4a3fE', symObjAddr: 0x1790, symBinAddr: 0xC23A0, symSize: 0x5A0 }
  - { offsetInCU: 0x98BB, offset: 0x4053CB, size: 0x8, addend: 0x0, symName: '__ZN4core3ptr36drop_in_place$LT$syn..expr..Expr$GT$17h10f573b40ddd212cE', symObjAddr: 0x1D30, symBinAddr: 0xC2940, symSize: 0x2760 }
  - { offsetInCU: 0x139D0, offset: 0x40F4E0, size: 0x8, addend: 0x0, symName: '__ZN4core3ptr36drop_in_place$LT$syn..item..Item$GT$17haa59cf9e39ab8cebE', symObjAddr: 0x4490, symBinAddr: 0xC50A0, symSize: 0x17C0 }
  - { offsetInCU: 0x195DF, offset: 0x4150EF, size: 0x8, addend: 0x0, symName: '__ZN4core3ptr36drop_in_place$LT$syn..mac..Macro$GT$17hc3b30a7a8a34cc2dE', symObjAddr: 0x5C50, symBinAddr: 0xC6860, symSize: 0x110 }
  - { offsetInCU: 0x19A7C, offset: 0x41558C, size: 0x8, addend: 0x0, symName: '__ZN4core3ptr36drop_in_place$LT$syn..path..Path$GT$17h75c74a97d5f0a03bE', symObjAddr: 0x5D60, symBinAddr: 0xC6970, symSize: 0x280 }
  - { offsetInCU: 0x1A529, offset: 0x416039, size: 0x8, addend: 0x0, symName: '__ZN4core3ptr37drop_in_place$LT$syn..item..FnArg$GT$17h470fdeee5cba5e3aE', symObjAddr: 0x5FE0, symBinAddr: 0xC6BF0, symSize: 0x160 }
  - { offsetInCU: 0x1AB08, offset: 0x416618, size: 0x8, addend: 0x0, symName: '__ZN4core3ptr37drop_in_place$LT$syn..stmt..Block$GT$17h6fc3254d5688f2c3E', symObjAddr: 0x6140, symBinAddr: 0xC6D50, symSize: 0xD0 }
  - { offsetInCU: 0x1ADFE, offset: 0x41690E, size: 0x8, addend: 0x0, symName: '__ZN4core3ptr38drop_in_place$LT$syn..data..Fields$GT$17h79840861dd1f691dE', symObjAddr: 0x6210, symBinAddr: 0xC6E20, symSize: 0x190 }
  - { offsetInCU: 0x1B248, offset: 0x416D58, size: 0x8, addend: 0x0, symName: '__ZN4core3ptr38drop_in_place$LT$syn..expr..Member$GT$17h6b0cf84594ce6bceE', symObjAddr: 0x63A0, symBinAddr: 0xC6FB0, symSize: 0x30 }
  - { offsetInCU: 0x1B344, offset: 0x416E54, size: 0x8, addend: 0x0, symName: '__ZN4core3ptr39drop_in_place$LT$proc_macro2..Ident$GT$17ha28fef9769e267d9E', symObjAddr: 0x63D0, symBinAddr: 0xC6FE0, symSize: 0x30 }
  - { offsetInCU: 0x1B49D, offset: 0x416FAD, size: 0x8, addend: 0x0, symName: '__ZN4core3ptr39drop_in_place$LT$syn..item..UseTree$GT$17h7288572c631f954aE', symObjAddr: 0x6400, symBinAddr: 0xC7010, symSize: 0xE0 }
  - { offsetInCU: 0x1B844, offset: 0x417354, size: 0x8, addend: 0x0, symName: '__ZN4core3ptr39drop_in_place$LT$syn..ty..TypeGroup$GT$17hf74b5ab2edcb931fE', symObjAddr: 0x64E0, symBinAddr: 0xC70F0, symSize: 0x50 }
  - { offsetInCU: 0x1BA2B, offset: 0x41753B, size: 0x8, addend: 0x0, symName: '__ZN4core3ptr40drop_in_place$LT$syn..item..ImplItem$GT$17h98907b2080b0ccb0E', symObjAddr: 0x6530, symBinAddr: 0xC7140, symSize: 0x6E0 }
  - { offsetInCU: 0x1CF9C, offset: 0x418AAC, size: 0x8, addend: 0x0, symName: '__ZN4core3ptr40drop_in_place$LT$syn..item..ItemImpl$GT$17h2e9f0b01a7977a55E', symObjAddr: 0x6C10, symBinAddr: 0xC7820, symSize: 0x1E0 }
  - { offsetInCU: 0x1D75C, offset: 0x41926C, size: 0x8, addend: 0x0, symName: '__ZN4core3ptr40drop_in_place$LT$syn..item..Receiver$GT$17h5e68a437c3b8e574E', symObjAddr: 0x6DF0, symBinAddr: 0xC7A00, symSize: 0x130 }
  - { offsetInCU: 0x1DD47, offset: 0x419857, size: 0x8, addend: 0x0, symName: '__ZN4core3ptr40drop_in_place$LT$syn..item..Variadic$GT$17hf9d4ebdb0f5e723aE', symObjAddr: 0x6F20, symBinAddr: 0xC7B30, symSize: 0x110 }
  - { offsetInCU: 0x1E1C3, offset: 0x419CD3, size: 0x8, addend: 0x0, symName: '__ZN4core3ptr40drop_in_place$LT$syn..ty..ReturnType$GT$17h035a612e322b6510E', symObjAddr: 0x7030, symBinAddr: 0xC7C40, symSize: 0x50 }
  - { offsetInCU: 0x1E333, offset: 0x419E43, size: 0x8, addend: 0x0, symName: '__ZN4core3ptr41drop_in_place$LT$syn..expr..ExprConst$GT$17hbfe19d5d621e6836E', symObjAddr: 0x7080, symBinAddr: 0xC7C90, symSize: 0x180 }
  - { offsetInCU: 0x1E93F, offset: 0x41A44F, size: 0x8, addend: 0x0, symName: '__ZN4core3ptr41drop_in_place$LT$syn..item..Signature$GT$17h41f785211ad8eb02E', symObjAddr: 0x7200, symBinAddr: 0xC7E10, symSize: 0x180 }
  - { offsetInCU: 0x1F01F, offset: 0x41AB2F, size: 0x8, addend: 0x0, symName: '__ZN4core3ptr41drop_in_place$LT$syn..item..TraitItem$GT$17hc74edaa948c160a2E', symObjAddr: 0x7380, symBinAddr: 0xC7F90, symSize: 0x5E0 }
  - { offsetInCU: 0x201DB, offset: 0x41BCEB, size: 0x8, addend: 0x0, symName: '__ZN4core3ptr43drop_in_place$LT$syn..data..FieldsNamed$GT$17h56bef6f151514865E', symObjAddr: 0x7960, symBinAddr: 0xC8570, symSize: 0xE0 }
  - { offsetInCU: 0x20501, offset: 0x41C011, size: 0x8, addend: 0x0, symName: '__ZN4core3ptr44drop_in_place$LT$syn..generics..Generics$GT$17h671de917167f8b66E', symObjAddr: 0x7A40, symBinAddr: 0xC8650, symSize: 0x40 }
  - { offsetInCU: 0x2051E, offset: 0x41C02E, size: 0x8, addend: 0x0, symName: '__ZN4core3ptr44drop_in_place$LT$syn..lifetime..Lifetime$GT$17he37fa474f03de7b1E', symObjAddr: 0x7A80, symBinAddr: 0xC8690, symSize: 0x30 }
  - { offsetInCU: 0x20696, offset: 0x41C1A6, size: 0x8, addend: 0x0, symName: '__ZN4core3ptr44drop_in_place$LT$syn..parse..ParseBuffer$GT$17hf792ff20095efc35E', symObjAddr: 0x7AB0, symBinAddr: 0xC86C0, symSize: 0x70 }
  - { offsetInCU: 0x20AAD, offset: 0x41C5BD, size: 0x8, addend: 0x0, symName: '__ZN4core3ptr45drop_in_place$LT$proc_macro2..TokenStream$GT$17h76e8e68015f4924dE', symObjAddr: 0x7B20, symBinAddr: 0xC8730, symSize: 0x140 }
  - { offsetInCU: 0x20F47, offset: 0x41CA57, size: 0x8, addend: 0x0, symName: '__ZN4core3ptr45drop_in_place$LT$syn..generics..TypeParam$GT$17h188a459c1380ac75E', symObjAddr: 0x7C60, symBinAddr: 0xC8870, symSize: 0x230 }
  - { offsetInCU: 0x217BC, offset: 0x41D2CC, size: 0x8, addend: 0x0, symName: '__ZN4core3ptr46drop_in_place$LT$syn..generics..ConstParam$GT$17h7a9b900b2b88bfcdE', symObjAddr: 0x7E90, symBinAddr: 0xC8AA0, symSize: 0x150 }
  - { offsetInCU: 0x21C3D, offset: 0x41D74D, size: 0x8, addend: 0x0, symName: '__ZN4core3ptr47drop_in_place$LT$syn..path..GenericArgument$GT$17h593f06d6ca9a94d2E', symObjAddr: 0x7FE0, symBinAddr: 0xC8BF0, symSize: 0x450 }
  - { offsetInCU: 0x229B3, offset: 0x41E4C3, size: 0x8, addend: 0x0, symName: '__ZN4core3ptr49drop_in_place$LT$syn..generics..LifetimeParam$GT$17h3a8835ab294bfd16E', symObjAddr: 0x8430, symBinAddr: 0xC9040, symSize: 0xF0 }
  - { offsetInCU: 0x22DCA, offset: 0x41E8DA, size: 0x8, addend: 0x0, symName: '__ZN4core3ptr49drop_in_place$LT$syn..restriction..Visibility$GT$17h3e52b998838defb1E', symObjAddr: 0x8520, symBinAddr: 0xC9130, symSize: 0x60 }
  - { offsetInCU: 0x22F3B, offset: 0x41EA4B, size: 0x8, addend: 0x0, symName: '__ZN4core3ptr50drop_in_place$LT$syn..generics..TypeParamBound$GT$17h81b4325b5900604dE', symObjAddr: 0x8580, symBinAddr: 0xC9190, symSize: 0xA0 }
  - { offsetInCU: 0x230A1, offset: 0x41EBB1, size: 0x8, addend: 0x0, symName: '__ZN4core3ptr58drop_in_place$LT$alloc..vec..Vec$LT$syn..expr..Arm$GT$$GT$17hff9224aadf2233b8E', symObjAddr: 0x8620, symBinAddr: 0xC9230, symSize: 0xD0 }
  - { offsetInCU: 0x23361, offset: 0x41EE71, size: 0x8, addend: 0x0, symName: '__ZN4core3ptr59drop_in_place$LT$alloc..boxed..Box$LT$syn..pat..Pat$GT$$GT$17h622b0c1db21c0742E', symObjAddr: 0x86F0, symBinAddr: 0xC9300, symSize: 0x50 }
  - { offsetInCU: 0x234BA, offset: 0x41EFCA, size: 0x8, addend: 0x0, symName: '__ZN4core3ptr59drop_in_place$LT$alloc..boxed..Box$LT$syn..ty..Type$GT$$GT$17hde45fa887dd8b605E', symObjAddr: 0x8740, symBinAddr: 0xC9350, symSize: 0x50 }
  - { offsetInCU: 0x23613, offset: 0x41F123, size: 0x8, addend: 0x0, symName: '__ZN4core3ptr61drop_in_place$LT$alloc..boxed..Box$LT$syn..expr..Expr$GT$$GT$17hbb42293869113942E', symObjAddr: 0x8790, symBinAddr: 0xC93A0, symSize: 0x50 }
  - { offsetInCU: 0x2376C, offset: 0x41F27C, size: 0x8, addend: 0x0, symName: '__ZN4core3ptr61drop_in_place$LT$syn..path..ParenthesizedGenericArguments$GT$17h6b1731382637937fE', symObjAddr: 0x87E0, symBinAddr: 0xC93F0, symSize: 0x170 }
  - { offsetInCU: 0x23D75, offset: 0x41F885, size: 0x8, addend: 0x0, symName: '__ZN4core3ptr62drop_in_place$LT$alloc..boxed..Box$LT$syn..stmt..Block$GT$$GT$17h21dcb5adf0237a12E', symObjAddr: 0x8950, symBinAddr: 0xC9560, symSize: 0xE0 }
  - { offsetInCU: 0x24183, offset: 0x41FC93, size: 0x8, addend: 0x0, symName: '__ZN4core3ptr63drop_in_place$LT$alloc..boxed..Box$LT$syn..lit..LitRepr$GT$$GT$17h6e3a82ea4de7b84cE', symObjAddr: 0x8A30, symBinAddr: 0xC9640, symSize: 0x60 }
  - { offsetInCU: 0x2444C, offset: 0x41FF5C, size: 0x8, addend: 0x0, symName: '__ZN4core3ptr63drop_in_place$LT$alloc..vec..Vec$LT$syn..item..ImplItem$GT$$GT$17hc51fca07e67d35aeE', symObjAddr: 0x8A90, symBinAddr: 0xC96A0, symSize: 0x80 }
  - { offsetInCU: 0x24723, offset: 0x420233, size: 0x8, addend: 0x0, symName: '__ZN4core3ptr64drop_in_place$LT$alloc..boxed..Box$LT$syn..item..UseTree$GT$$GT$17he4d7024582150632E', symObjAddr: 0x8B10, symBinAddr: 0xC9720, symSize: 0xF0 }
  - { offsetInCU: 0x24C3E, offset: 0x42074E, size: 0x8, addend: 0x0, symName: '__ZN4core3ptr64drop_in_place$LT$alloc..boxed..Box$LT$syn..pat..FieldPat$GT$$GT$17hbf8f4867d84bd25dE', symObjAddr: 0x8C00, symBinAddr: 0xC9810, symSize: 0x140 }
  - { offsetInCU: 0x2533F, offset: 0x420E4F, size: 0x8, addend: 0x0, symName: '__ZN4core3ptr64drop_in_place$LT$alloc..boxed..Box$LT$syn..ty..BareFnArg$GT$$GT$17h6be6354eb1d1364dE', symObjAddr: 0x8D40, symBinAddr: 0xC9950, symSize: 0x140 }
  - { offsetInCU: 0x258C8, offset: 0x4213D8, size: 0x8, addend: 0x0, symName: '__ZN4core3ptr64drop_in_place$LT$alloc..vec..Vec$LT$syn..attr..Attribute$GT$$GT$17he33e25539d5885aeE', symObjAddr: 0x8E80, symBinAddr: 0xC9A90, symSize: 0xD0 }
  - { offsetInCU: 0x25BBC, offset: 0x4216CC, size: 0x8, addend: 0x0, symName: '__ZN4core3ptr64drop_in_place$LT$alloc..vec..Vec$LT$syn..item..TraitItem$GT$$GT$17hff1cc01ccae80d7aE', symObjAddr: 0x8F50, symBinAddr: 0xC9B60, symSize: 0x80 }
  - { offsetInCU: 0x25E74, offset: 0x421984, size: 0x8, addend: 0x0, symName: '__ZN4core3ptr65drop_in_place$LT$alloc..vec..Vec$LT$proc_macro..TokenTree$GT$$GT$17h8abd81f8596dbc59E', symObjAddr: 0x8FD0, symBinAddr: 0xC9BE0, symSize: 0x110 }
  - { offsetInCU: 0x2626C, offset: 0x421D7C, size: 0x8, addend: 0x0, symName: '__ZN4core3ptr65drop_in_place$LT$core..option..Option$LT$syn..expr..Label$GT$$GT$17hac599686b33ef364E', symObjAddr: 0x90E0, symBinAddr: 0xC9CF0, symSize: 0x30 }
  - { offsetInCU: 0x263A6, offset: 0x421EB6, size: 0x8, addend: 0x0, symName: '__ZN4core3ptr65drop_in_place$LT$core..option..Option$LT$syn..path..QSelf$GT$$GT$17h0b8dd5cda5f2cd6bE', symObjAddr: 0x9110, symBinAddr: 0xC9D20, symSize: 0x50 }
  - { offsetInCU: 0x26527, offset: 0x422037, size: 0x8, addend: 0x0, symName: '__ZN4core3ptr65drop_in_place$LT$core..option..Option$LT$syn..stmt..Block$GT$$GT$17h74f2551ed24e2d27E', symObjAddr: 0x9160, symBinAddr: 0xC9D70, symSize: 0xD0 }
  - { offsetInCU: 0x267FC, offset: 0x42230C, size: 0x8, addend: 0x0, symName: '__ZN4core3ptr66drop_in_place$LT$alloc..vec..Vec$LT$syn..item..ForeignItem$GT$$GT$17h1f176e04eaf5e0dfE', symObjAddr: 0x9230, symBinAddr: 0xC9E40, symSize: 0x80 }
  - { offsetInCU: 0x26AB4, offset: 0x4225C4, size: 0x8, addend: 0x0, symName: '__ZN4core3ptr66drop_in_place$LT$core..option..Option$LT$syn..pat..PatRest$GT$$GT$17hd5bb3bc28aa78ac1E', symObjAddr: 0x92B0, symBinAddr: 0xC9EC0, symSize: 0xE0 }
  - { offsetInCU: 0x26DDC, offset: 0x4228EC, size: 0x8, addend: 0x0, symName: '__ZN4core3ptr67drop_in_place$LT$alloc..boxed..Box$LT$syn..expr..FieldValue$GT$$GT$17hbbcf67a9d5e9863cE', symObjAddr: 0x9390, symBinAddr: 0xC9FA0, symSize: 0x140 }
  - { offsetInCU: 0x27364, offset: 0x422E74, size: 0x8, addend: 0x0, symName: '__ZN4core3ptr70drop_in_place$LT$core..option..Option$LT$syn..ty..BareVariadic$GT$$GT$17h79a19250e9f043b1E', symObjAddr: 0x94D0, symBinAddr: 0xCA0E0, symSize: 0x100 }
  - { offsetInCU: 0x277CF, offset: 0x4232DF, size: 0x8, addend: 0x0, symName: '__ZN4core3ptr72drop_in_place$LT$alloc..boxed..Box$LT$syn..path..GenericArgument$GT$$GT$17hfd308d374af4273dE', symObjAddr: 0x95D0, symBinAddr: 0xCA1E0, symSize: 0x2B0 }
  - { offsetInCU: 0x281E0, offset: 0x423CF0, size: 0x8, addend: 0x0, symName: '__ZN4core3ptr72drop_in_place$LT$core..option..Option$LT$syn..lifetime..Lifetime$GT$$GT$17h49cce6f02f9c0590E', symObjAddr: 0x9880, symBinAddr: 0xCA490, symSize: 0x30 }
  - { offsetInCU: 0x282FB, offset: 0x423E0B, size: 0x8, addend: 0x0, symName: '__ZN4core3ptr73drop_in_place$LT$alloc..boxed..Box$LT$syn..generics..GenericParam$GT$$GT$17ha26d5d145af4b203E', symObjAddr: 0x98B0, symBinAddr: 0xCA4C0, symSize: 0x80 }
  - { offsetInCU: 0x28471, offset: 0x423F81, size: 0x8, addend: 0x0, symName: '__ZN4core3ptr75drop_in_place$LT$alloc..boxed..Box$LT$syn..generics..TypeParamBound$GT$$GT$17h129a4e927e5eb81bE', symObjAddr: 0x9930, symBinAddr: 0xCA540, symSize: 0x1B0 }
  - { offsetInCU: 0x28B8F, offset: 0x42469F, size: 0x8, addend: 0x0, symName: '__ZN4core3ptr75drop_in_place$LT$core..option..Option$LT$syn..generics..WhereClause$GT$$GT$17haaf63f327098cdccE', symObjAddr: 0x9AE0, symBinAddr: 0xCA6F0, symSize: 0x90 }
  - { offsetInCU: 0x28E83, offset: 0x424993, size: 0x8, addend: 0x0, symName: '__ZN4core3ptr86drop_in_place$LT$syn..punctuated..Punctuated$LT$syn..pat..Pat$C$syn..token..Or$GT$$GT$17h9cc6b5f7b6d3a555E', symObjAddr: 0x9B70, symBinAddr: 0xCA780, symSize: 0x120 }
  - { offsetInCU: 0x292FE, offset: 0x424E0E, size: 0x8, addend: 0x0, symName: '__ZN4core3ptr87drop_in_place$LT$core..option..Option$LT$alloc..boxed..Box$LT$syn..pat..Pat$GT$$GT$$GT$17h51cd48973d96c411E', symObjAddr: 0x9C90, symBinAddr: 0xCA8A0, symSize: 0x50 }
  - { offsetInCU: 0x2946E, offset: 0x424F7E, size: 0x8, addend: 0x0, symName: '__ZN4core3ptr87drop_in_place$LT$core..option..Option$LT$alloc..boxed..Box$LT$syn..ty..Type$GT$$GT$$GT$17h103a25a4a7d7374eE', symObjAddr: 0x9CE0, symBinAddr: 0xCA8F0, symSize: 0x50 }
  - { offsetInCU: 0x295DE, offset: 0x4250EE, size: 0x8, addend: 0x0, symName: '__ZN4core3ptr89drop_in_place$LT$core..option..Option$LT$alloc..boxed..Box$LT$syn..expr..Expr$GT$$GT$$GT$17h9e02509cb2345d44E', symObjAddr: 0x9D30, symBinAddr: 0xCA940, symSize: 0x50 }
  - { offsetInCU: 0x2978C, offset: 0x42529C, size: 0x8, addend: 0x0, symName: '__ZN4core3ptr89drop_in_place$LT$syn..punctuated..Punctuated$LT$syn..pat..Pat$C$syn..token..Comma$GT$$GT$17hd3a83c36827f210aE', symObjAddr: 0x9D80, symBinAddr: 0xCA990, symSize: 0x120 }
  - { offsetInCU: 0x29C5C, offset: 0x42576C, size: 0x8, addend: 0x0, symName: '__ZN4core3ptr90drop_in_place$LT$core..option..Option$LT$alloc..boxed..Box$LT$syn..data..Field$GT$$GT$$GT$17h9f1aee8cd56c6727E', symObjAddr: 0x9EA0, symBinAddr: 0xCAAB0, symSize: 0x1B0 }
  - { offsetInCU: 0x2A34E, offset: 0x425E5E, size: 0x8, addend: 0x0, symName: '__ZN4core3ptr90drop_in_place$LT$core..option..Option$LT$alloc..boxed..Box$LT$syn..item..FnArg$GT$$GT$$GT$17h8635495a730dc0bfE', symObjAddr: 0xA050, symBinAddr: 0xCAC60, symSize: 0x50 }
  - { offsetInCU: 0x2A4EF, offset: 0x425FFF, size: 0x8, addend: 0x0, symName: '__ZN4core3ptr91drop_in_place$LT$syn..punctuated..Punctuated$LT$syn..expr..Expr$C$syn..token..Comma$GT$$GT$17h6f261e8f470c81f2E', symObjAddr: 0xA0A0, symBinAddr: 0xCACB0, symSize: 0x120 }
  - { offsetInCU: 0x2A97D, offset: 0x42648D, size: 0x8, addend: 0x0, symName: '__ZN4core3ptr92drop_in_place$LT$core..option..Option$LT$$LP$syn..token..As$C$proc_macro2..Ident$RP$$GT$$GT$17h12a88945917fa9dbE', symObjAddr: 0xA1C0, symBinAddr: 0xCADD0, symSize: 0x30 }
  - { offsetInCU: 0x2AAD6, offset: 0x4265E6, size: 0x8, addend: 0x0, symName: '__ZN4core3ptr92drop_in_place$LT$core..option..Option$LT$alloc..boxed..Box$LT$syn..data..Variant$GT$$GT$$GT$17hb65f9b5d99f448afE', symObjAddr: 0xA1F0, symBinAddr: 0xCAE00, symSize: 0x170 }
  - { offsetInCU: 0x2B102, offset: 0x426C12, size: 0x8, addend: 0x0, symName: '__ZN4core3ptr92drop_in_place$LT$syn..punctuated..Punctuated$LT$syn..item..FnArg$C$syn..token..Comma$GT$$GT$17h7de33e77eabaea82E', symObjAddr: 0xA360, symBinAddr: 0xCAF70, symSize: 0x130 }
  - { offsetInCU: 0x2B568, offset: 0x427078, size: 0x8, addend: 0x0, symName: '__ZN4core3ptr94drop_in_place$LT$syn..punctuated..Punctuated$LT$syn..data..Variant$C$syn..token..Comma$GT$$GT$17h310cd79aba4529ccE', symObjAddr: 0xA490, symBinAddr: 0xCB0A0, symSize: 0xE0 }
  - { offsetInCU: 0x2B8C8, offset: 0x4273D8, size: 0x8, addend: 0x0, symName: '__ZN4core3ptr94drop_in_place$LT$syn..punctuated..Punctuated$LT$syn..item..UseTree$C$syn..token..Comma$GT$$GT$17h6236871345889df7E', symObjAddr: 0xA570, symBinAddr: 0xCB180, symSize: 0xF0 }
  - { offsetInCU: 0x2BC0E, offset: 0x42771E, size: 0x8, addend: 0x0, symName: '__ZN4core3ptr94drop_in_place$LT$syn..punctuated..Punctuated$LT$syn..pat..FieldPat$C$syn..token..Comma$GT$$GT$17h43ec25af986ef674E', symObjAddr: 0xA660, symBinAddr: 0xCB270, symSize: 0xF0 }
  - { offsetInCU: 0x2BF0D, offset: 0x427A1D, size: 0x8, addend: 0x0, symName: '__ZN4core3ptr94drop_in_place$LT$syn..punctuated..Punctuated$LT$syn..ty..BareFnArg$C$syn..token..Comma$GT$$GT$17h7ba4c699ee390ebaE', symObjAddr: 0xA750, symBinAddr: 0xCB360, symSize: 0xF0 }
  - { offsetInCU: 0x2C20E, offset: 0x427D1E, size: 0x8, addend: 0x0, symName: '__ZN4core3ptr96drop_in_place$LT$core..option..Option$LT$alloc..boxed..Box$LT$syn..path..PathSegment$GT$$GT$$GT$17h5de12a5a0f9e9ef9E', symObjAddr: 0xA840, symBinAddr: 0xCB450, symSize: 0x1A0 }
  - { offsetInCU: 0x2C8CF, offset: 0x4283DF, size: 0x8, addend: 0x0, symName: '__ZN4core3ptr97drop_in_place$LT$syn..punctuated..Punctuated$LT$syn..expr..FieldValue$C$syn..token..Comma$GT$$GT$17hf58d0a9a09266ab3E', symObjAddr: 0xA9E0, symBinAddr: 0xCB5F0, symSize: 0xF0 }
  - { offsetInCU: 0x2CC48, offset: 0x428758, size: 0x8, addend: 0x0, symName: '__ZN4core3ptr98drop_in_place$LT$syn..punctuated..Punctuated$LT$syn..lifetime..Lifetime$C$syn..token..Plus$GT$$GT$17h600c2b78f78fd2b9E', symObjAddr: 0xAAD0, symBinAddr: 0xCB6E0, symSize: 0xD0 }
  - { offsetInCU: 0x341C3, offset: 0x42FCD3, size: 0x8, addend: 0x0, symName: __ZN3syn4item7parsing18parse_rest_of_item17ha26e4acb71011a19E, symObjAddr: 0xAC50, symBinAddr: 0xCB860, symSize: 0x4180 }
  - { offsetInCU: 0x40A0C, offset: 0x43C51C, size: 0x8, addend: 0x0, symName: __ZN3syn4item7parsing12parse_macro217hf6831cf9afcd0b55E, symObjAddr: 0xFC80, symBinAddr: 0xD0890, symSize: 0x8D0 }
  - { offsetInCU: 0x42554, offset: 0x43E064, size: 0x8, addend: 0x0, symName: __ZN3syn4item7parsing14parse_item_use17h48b98338f7612e03E, symObjAddr: 0x10550, symBinAddr: 0xD1160, symSize: 0x580 }
  - { offsetInCU: 0x42FE3, offset: 0x43EAF3, size: 0x8, addend: 0x0, symName: __ZN3syn4item7parsing14parse_use_tree17h3459008fc061dfc3E, symObjAddr: 0x10AD0, symBinAddr: 0xD16E0, symSize: 0xEA0 }
  - { offsetInCU: 0x45A5B, offset: 0x44156B, size: 0x8, addend: 0x0, symName: __ZN3syn4item7parsing14peek_signature17h6fcb1c3323e18828E, symObjAddr: 0x11970, symBinAddr: 0xD2580, symSize: 0x3E0 }
  - { offsetInCU: 0x46DB3, offset: 0x4428C3, size: 0x8, addend: 0x0, symName: __ZN3syn4item7parsing16parse_rest_of_fn17hd069073817548a43E, symObjAddr: 0x11D50, symBinAddr: 0xD2960, symSize: 0x540 }
  - { offsetInCU: 0x47AE0, offset: 0x4435F0, size: 0x8, addend: 0x0, symName: __ZN3syn4item7parsing24parse_fn_arg_or_variadic17h2531ec3f9cf1e73bE, symObjAddr: 0x12290, symBinAddr: 0xD2EA0, symSize: 0xE20 }
  - { offsetInCU: 0x4A774, offset: 0x446284, size: 0x8, addend: 0x0, symName: __ZN3syn4item7parsing13parse_fn_args17hef126a53be169aa0E, symObjAddr: 0x130B0, symBinAddr: 0xD3CC0, symSize: 0x7D0 }
  - { offsetInCU: 0x4B5D3, offset: 0x4470E3, size: 0x8, addend: 0x0, symName: __ZN3syn4item7parsing23parse_foreign_item_type17h802ebbe8ec67c11cE, symObjAddr: 0x13880, symBinAddr: 0xD4490, symSize: 0x450 }
  - { offsetInCU: 0x4BCAC, offset: 0x4477BC, size: 0x8, addend: 0x0, symName: __ZN3syn4item7parsing15parse_item_type17ha00b234c7541791bE, symObjAddr: 0x13CD0, symBinAddr: 0xD48E0, symSize: 0x5F0 }
  - { offsetInCU: 0x4C6E2, offset: 0x4481F2, size: 0x8, addend: 0x0, symName: __ZN3syn4item7parsing26parse_trait_or_trait_alias17h869d58d0d710f92eE, symObjAddr: 0x142C0, symBinAddr: 0xD4ED0, symSize: 0x880 }
  - { offsetInCU: 0x4E038, offset: 0x449B48, size: 0x8, addend: 0x0, symName: __ZN3syn4item7parsing19parse_rest_of_trait17hcfaaa983dae95479E, symObjAddr: 0x14B40, symBinAddr: 0xD5750, symSize: 0xB90 }
  - { offsetInCU: 0x4F81D, offset: 0x44B32D, size: 0x8, addend: 0x0, symName: __ZN3syn4item7parsing26parse_start_of_trait_alias17h30b54fc2a2c484e2E, symObjAddr: 0x156D0, symBinAddr: 0xD62E0, symSize: 0x4B0 }
  - { offsetInCU: 0x50283, offset: 0x44BD93, size: 0x8, addend: 0x0, symName: __ZN3syn4item7parsing25parse_rest_of_trait_alias17hc3ff4bca2b4f24ffE, symObjAddr: 0x15B80, symBinAddr: 0xD6790, symSize: 0x670 }
  - { offsetInCU: 0x50F19, offset: 0x44CA29, size: 0x8, addend: 0x0, symName: __ZN3syn4item7parsing21parse_trait_item_type17h346cdab40b3c4f88E, symObjAddr: 0x161F0, symBinAddr: 0xD6E00, symSize: 0x4D0 }
  - { offsetInCU: 0x5170B, offset: 0x44D21B, size: 0x8, addend: 0x0, symName: __ZN3syn4item7parsing10parse_impl17hdf5cb50f2b1c1c56E, symObjAddr: 0x166C0, symBinAddr: 0xD72D0, symSize: 0x1700 }
  - { offsetInCU: 0x53579, offset: 0x44F089, size: 0x8, addend: 0x0, symName: __ZN3syn4item7parsing18parse_impl_item_fn17h8007279fefb73b29E, symObjAddr: 0x17DC0, symBinAddr: 0xD89D0, symSize: 0x770 }
  - { offsetInCU: 0x542CD, offset: 0x44FDDD, size: 0x8, addend: 0x0, symName: __ZN3syn4item7parsing20parse_impl_item_type17hcc883153d233f1e7E, symObjAddr: 0x18530, symBinAddr: 0xD9140, symSize: 0x49B }
  - { offsetInCU: 0x599EB, offset: 0x4554FB, size: 0x8, addend: 0x0, symName: __ZN5alloc5alloc15exchange_malloc17h9a87608d0224859dE, symObjAddr: 0xAC10, symBinAddr: 0xCB820, symSize: 0x40 }
  - { offsetInCU: 0x5D679, offset: 0x459189, size: 0x8, addend: 0x0, symName: '__ZN5alloc3vec16Vec$LT$T$C$A$GT$4push17h8559c656bf8cfdb7E', symObjAddr: 0xABA0, symBinAddr: 0xCB7B0, symSize: 0x70 }
  - { offsetInCU: 0x5E738, offset: 0x45A248, size: 0x8, addend: 0x0, symName: __ZN3syn4item7parsing16FlexibleItemType5parse17ha5c93c92e512e37dE, symObjAddr: 0xEDD0, symBinAddr: 0xCF9E0, symSize: 0xA20 }
  - { offsetInCU: 0x5F461, offset: 0x45AF71, size: 0x8, addend: 0x0, symName: __ZN3syn4item7parsing16FlexibleItemType21parse_optional_bounds17h6e18b1c664fc4e1bE, symObjAddr: 0xF7F0, symBinAddr: 0xD0400, symSize: 0x340 }
  - { offsetInCU: 0x5FB68, offset: 0x45B678, size: 0x8, addend: 0x0, symName: __ZN3syn4item7parsing16FlexibleItemType25parse_optional_definition17hf229b9de02f2ada3E, symObjAddr: 0xFB30, symBinAddr: 0xD0740, symSize: 0x150 }
  - { offsetInCU: 0x1E, offset: 0x466DCF, size: 0x8, addend: 0x0, symName: '__ZN42_$LT$$RF$T$u20$as$u20$core..fmt..Debug$GT$3fmt17h921457b402879af4E', symObjAddr: 0x0, symBinAddr: 0xD95E0, symSize: 0x80 }
  - { offsetInCU: 0x56C, offset: 0x46731D, size: 0x8, addend: 0x0, symName: '__ZN3syn8generics8printing80_$LT$impl$u20$quote..to_tokens..ToTokens$u20$for$u20$syn..generics..Generics$GT$9to_tokens17hd4a2af35b3698905E', symObjAddr: 0xF4D0, symBinAddr: 0xE7730, symSize: 0x220 }
  - { offsetInCU: 0xD70, offset: 0x467B21, size: 0x8, addend: 0x0, symName: '__ZN3syn8generics8printing84_$LT$impl$u20$quote..to_tokens..ToTokens$u20$for$u20$syn..generics..ImplGenerics$GT$9to_tokens17h4ab04c178462d76aE', symObjAddr: 0xF6F0, symBinAddr: 0xE7950, symSize: 0x650 }
  - { offsetInCU: 0x21CC, offset: 0x468F7D, size: 0x8, addend: 0x0, symName: '__ZN3syn8generics8printing84_$LT$impl$u20$quote..to_tokens..ToTokens$u20$for$u20$syn..generics..TypeGenerics$GT$9to_tokens17h0622ece7b6d3cd84E', symObjAddr: 0xFD40, symBinAddr: 0xE7FA0, symSize: 0x360 }
  - { offsetInCU: 0x2D5E, offset: 0x469B0F, size: 0x8, addend: 0x0, symName: '__ZN3syn8generics8printing86_$LT$impl$u20$quote..to_tokens..ToTokens$u20$for$u20$syn..generics..BoundLifetimes$GT$9to_tokens17hd15a7a043033bd7bE', symObjAddr: 0x10110, symBinAddr: 0xE8300, symSize: 0x160 }
  - { offsetInCU: 0x3263, offset: 0x46A014, size: 0x8, addend: 0x0, symName: '__ZN3syn8generics8printing81_$LT$impl$u20$quote..to_tokens..ToTokens$u20$for$u20$syn..generics..TypeParam$GT$9to_tokens17had0957bfff47d1f9E', symObjAddr: 0x10490, symBinAddr: 0xE8460, symSize: 0x1E0 }
  - { offsetInCU: 0x399F, offset: 0x46A750, size: 0x8, addend: 0x0, symName: '__ZN3syn8generics8printing82_$LT$impl$u20$quote..to_tokens..ToTokens$u20$for$u20$syn..generics..TraitBound$GT$9to_tokens17h377c6cef550ec1bfE', symObjAddr: 0x10670, symBinAddr: 0xE8640, symSize: 0x200 }
  - { offsetInCU: 0x3FEE, offset: 0x46AD9F, size: 0x8, addend: 0x0, symName: '__ZN3syn8generics8printing82_$LT$impl$u20$quote..to_tokens..ToTokens$u20$for$u20$syn..generics..ConstParam$GT$9to_tokens17hee7453fb2d0e238bE', symObjAddr: 0x108A0, symBinAddr: 0xE8840, symSize: 0x1D0 }
  - { offsetInCU: 0x438F, offset: 0x46B140, size: 0x8, addend: 0x0, symName: '__ZN3syn8generics8printing83_$LT$impl$u20$quote..to_tokens..ToTokens$u20$for$u20$syn..generics..WhereClause$GT$9to_tokens17h909a6fdfe3e31442E', symObjAddr: 0x10A70, symBinAddr: 0xE8A10, symSize: 0x120 }
  - { offsetInCU: 0x4939, offset: 0x46B6EA, size: 0x8, addend: 0x0, symName: '__ZN3syn8generics8printing85_$LT$impl$u20$quote..to_tokens..ToTokens$u20$for$u20$syn..generics..PredicateType$GT$9to_tokens17h8b4ffaf01fdc18f1E', symObjAddr: 0x10CF0, symBinAddr: 0xE8B30, symSize: 0x320 }
  - { offsetInCU: 0x5449, offset: 0x46C1FA, size: 0x8, addend: 0x0, symName: '__ZN3syn8generics7parsing71_$LT$impl$u20$syn..parse..Parse$u20$for$u20$syn..generics..Generics$GT$5parse17h41c098435a7be9a0E', symObjAddr: 0x8920, symBinAddr: 0xE1760, symSize: 0x1100 }
  - { offsetInCU: 0x7B02, offset: 0x46E8B3, size: 0x8, addend: 0x0, symName: '__ZN3syn8generics7parsing76_$LT$impl$u20$syn..parse..Parse$u20$for$u20$syn..generics..LifetimeParam$GT$5parse17h5d8a6609f02a7b5bE', symObjAddr: 0xA520, symBinAddr: 0xE2860, symSize: 0x800 }
  - { offsetInCU: 0x8B86, offset: 0x46F937, size: 0x8, addend: 0x0, symName: '__ZN3syn8generics7parsing77_$LT$impl$u20$syn..parse..Parse$u20$for$u20$syn..generics..BoundLifetimes$GT$5parse17hc16736384c98dd41E', symObjAddr: 0xAD20, symBinAddr: 0xE3060, symSize: 0x6A0 }
  - { offsetInCU: 0x98F0, offset: 0x4706A1, size: 0x8, addend: 0x0, symName: '__ZN3syn8generics7parsing72_$LT$impl$u20$syn..parse..Parse$u20$for$u20$syn..generics..TypeParam$GT$5parse17h9c7ea43a33d4115aE', symObjAddr: 0xB3C0, symBinAddr: 0xE3700, symSize: 0x770 }
  - { offsetInCU: 0xAA2C, offset: 0x4717DD, size: 0x8, addend: 0x0, symName: '__ZN3syn8generics7parsing77_$LT$impl$u20$syn..parse..Parse$u20$for$u20$syn..generics..TypeParamBound$GT$5parse17h25e623b87f173e12E', symObjAddr: 0xBB30, symBinAddr: 0xE3E70, symSize: 0x1250 }
  - { offsetInCU: 0xE3CF, offset: 0x475180, size: 0x8, addend: 0x0, symName: '__ZN3syn8generics7parsing73_$LT$impl$u20$syn..parse..Parse$u20$for$u20$syn..generics..TraitBound$GT$5parse17h690a689474a7b206E', symObjAddr: 0xD250, symBinAddr: 0xE5590, symSize: 0x6B0 }
  - { offsetInCU: 0xF30B, offset: 0x4760BC, size: 0x8, addend: 0x0, symName: '__ZN3syn8generics7parsing73_$LT$impl$u20$syn..parse..Parse$u20$for$u20$syn..generics..ConstParam$GT$5parse17h7d6405b926c1a94eE', symObjAddr: 0xD9E0, symBinAddr: 0xE5C40, symSize: 0x970 }
  - { offsetInCU: 0x107CB, offset: 0x47757C, size: 0x8, addend: 0x0, symName: '__ZN3syn8generics7parsing74_$LT$impl$u20$syn..parse..Parse$u20$for$u20$syn..generics..WhereClause$GT$5parse17hd23830e75acad64dE', symObjAddr: 0xE350, symBinAddr: 0xE65B0, symSize: 0x3B0 }
  - { offsetInCU: 0x11282, offset: 0x478033, size: 0x8, addend: 0x0, symName: '__ZN3syn8generics7parsing77_$LT$impl$u20$syn..parse..Parse$u20$for$u20$syn..generics..WherePredicate$GT$5parse17h70c29b17190c019cE', symObjAddr: 0xE700, symBinAddr: 0xE6960, symSize: 0xDD0 }
  - { offsetInCU: 0x13188, offset: 0x479F39, size: 0x8, addend: 0x0, symName: '__ZN74_$LT$syn..generics..GenericParam$u20$as$u20$quote..to_tokens..ToTokens$GT$9to_tokens17h597acb1380a7ac96E', symObjAddr: 0x11010, symBinAddr: 0xE8E50, symSize: 0x270 }
  - { offsetInCU: 0x18805, offset: 0x47F5B6, size: 0x8, addend: 0x0, symName: '__ZN3syn3gen5debug72_$LT$impl$u20$core..fmt..Debug$u20$for$u20$syn..generics..ConstParam$GT$3fmt17h892db2eaff8cbd22E', symObjAddr: 0x127B0, symBinAddr: 0xE9DD0, symSize: 0x130 }
  - { offsetInCU: 0x18869, offset: 0x47F61A, size: 0x8, addend: 0x0, symName: '__ZN3syn3gen5debug74_$LT$impl$u20$core..fmt..Debug$u20$for$u20$syn..generics..GenericParam$GT$3fmt17hfff15bcd0440d795E', symObjAddr: 0x128E0, symBinAddr: 0xE9F00, symSize: 0xE0 }
  - { offsetInCU: 0x18992, offset: 0x47F743, size: 0x8, addend: 0x0, symName: '__ZN3syn3gen5debug70_$LT$impl$u20$core..fmt..Debug$u20$for$u20$syn..generics..Generics$GT$3fmt17h9dadfb880ef428a1E', symObjAddr: 0x129C0, symBinAddr: 0xE9FE0, symSize: 0xC0 }
  - { offsetInCU: 0x189F6, offset: 0x47F7A7, size: 0x8, addend: 0x0, symName: '__ZN3syn3gen5debug75_$LT$impl$u20$core..fmt..Debug$u20$for$u20$syn..generics..LifetimeParam$GT$3fmt17h958058f68143fa4cE', symObjAddr: 0x12A80, symBinAddr: 0xEA0A0, symSize: 0xC0 }
  - { offsetInCU: 0x18A5A, offset: 0x47F80B, size: 0x8, addend: 0x0, symName: '__ZN3syn3gen5debug79_$LT$impl$u20$core..fmt..Debug$u20$for$u20$syn..generics..PredicateLifetime$GT$3fmt17hbbb848098702f45fE', symObjAddr: 0x12B40, symBinAddr: 0xEA160, symSize: 0xA0 }
  - { offsetInCU: 0x18ABE, offset: 0x47F86F, size: 0x8, addend: 0x0, symName: '__ZN3syn3gen5debug75_$LT$impl$u20$core..fmt..Debug$u20$for$u20$syn..generics..PredicateType$GT$3fmt17h981d4aa7ee9ab138E', symObjAddr: 0x12BE0, symBinAddr: 0xEA200, symSize: 0xC0 }
  - { offsetInCU: 0x18B22, offset: 0x47F8D3, size: 0x8, addend: 0x0, symName: '__ZN3syn3gen5debug72_$LT$impl$u20$core..fmt..Debug$u20$for$u20$syn..generics..TraitBound$GT$3fmt17h808d99d323caf010E', symObjAddr: 0x12CA0, symBinAddr: 0xEA2C0, symSize: 0xC0 }
  - { offsetInCU: 0x18B86, offset: 0x47F937, size: 0x8, addend: 0x0, symName: '__ZN3syn3gen5debug80_$LT$impl$u20$core..fmt..Debug$u20$for$u20$syn..generics..TraitBoundModifier$GT$3fmt17hd43ffabab70db5e5E', symObjAddr: 0x12D60, symBinAddr: 0xEA380, symSize: 0xA0 }
  - { offsetInCU: 0x18C3B, offset: 0x47F9EC, size: 0x8, addend: 0x0, symName: '__ZN3syn3gen5debug71_$LT$impl$u20$core..fmt..Debug$u20$for$u20$syn..generics..TypeParam$GT$3fmt17h024a2ee1af41901aE', symObjAddr: 0x12E00, symBinAddr: 0xEA420, symSize: 0x100 }
  - { offsetInCU: 0x18C9F, offset: 0x47FA50, size: 0x8, addend: 0x0, symName: '__ZN3syn3gen5debug76_$LT$impl$u20$core..fmt..Debug$u20$for$u20$syn..generics..TypeParamBound$GT$3fmt17h92fa8a1a89829a1cE', symObjAddr: 0x12F00, symBinAddr: 0xEA520, symSize: 0x140 }
  - { offsetInCU: 0x18DEF, offset: 0x47FBA0, size: 0x8, addend: 0x0, symName: '__ZN3syn3gen5debug76_$LT$impl$u20$core..fmt..Debug$u20$for$u20$syn..generics..WherePredicate$GT$3fmt17h66121acb29a5b026E', symObjAddr: 0x130C0, symBinAddr: 0xEA660, symSize: 0xA0 }
  - { offsetInCU: 0x18F74, offset: 0x47FD25, size: 0x8, addend: 0x0, symName: '__ZN3syn3gen5clone78_$LT$impl$u20$core..clone..Clone$u20$for$u20$syn..generics..WherePredicate$GT$5clone17hbd6bd00e6f5532d2E', symObjAddr: 0x125F0, symBinAddr: 0xE9CD0, symSize: 0x100 }
  - { offsetInCU: 0x19210, offset: 0x47FFC1, size: 0x8, addend: 0x0, symName: '__ZN3syn3gen5clone74_$LT$impl$u20$core..clone..Clone$u20$for$u20$syn..generics..ConstParam$GT$5clone17h8bc67da494863269E', symObjAddr: 0x11720, symBinAddr: 0xE90C0, symSize: 0x1F0 }
  - { offsetInCU: 0x194C9, offset: 0x48027A, size: 0x8, addend: 0x0, symName: '__ZN3syn3gen5clone72_$LT$impl$u20$core..clone..Clone$u20$for$u20$syn..generics..Generics$GT$5clone17h371b39e9c163a495E', symObjAddr: 0x11980, symBinAddr: 0xE92B0, symSize: 0x110 }
  - { offsetInCU: 0x195C2, offset: 0x480373, size: 0x8, addend: 0x0, symName: '__ZN3syn3gen5clone77_$LT$impl$u20$core..clone..Clone$u20$for$u20$syn..generics..LifetimeParam$GT$5clone17hbf15cdf236adaa10E', symObjAddr: 0x11A90, symBinAddr: 0xE93C0, symSize: 0x130 }
  - { offsetInCU: 0x197E7, offset: 0x480598, size: 0x8, addend: 0x0, symName: '__ZN3syn3gen5clone77_$LT$impl$u20$core..clone..Clone$u20$for$u20$syn..generics..PredicateType$GT$5clone17h013cd41ed055cad0E', symObjAddr: 0x11CA0, symBinAddr: 0xE94F0, symSize: 0x150 }
  - { offsetInCU: 0x1997A, offset: 0x48072B, size: 0x8, addend: 0x0, symName: '__ZN3syn3gen5clone73_$LT$impl$u20$core..clone..Clone$u20$for$u20$syn..generics..TypeParam$GT$5clone17hddca7c785eaee5f9E', symObjAddr: 0x11F40, symBinAddr: 0xE9640, symSize: 0x2B0 }
  - { offsetInCU: 0x19E42, offset: 0x480BF3, size: 0x8, addend: 0x0, symName: '__ZN3syn3gen5clone78_$LT$impl$u20$core..clone..Clone$u20$for$u20$syn..generics..TypeParamBound$GT$5clone17hc8c21b6b99f4be95E', symObjAddr: 0x121F0, symBinAddr: 0xE98F0, symSize: 0x3E0 }
  - { offsetInCU: 0x1D16F, offset: 0x483F20, size: 0x8, addend: 0x0, symName: '__ZN4core3ptr100drop_in_place$LT$core..option..Option$LT$alloc..boxed..Box$LT$syn..path..GenericArgument$GT$$GT$$GT$17h3a7c44b9e57fe410E', symObjAddr: 0x360, symBinAddr: 0xD9860, symSize: 0x50 }
  - { offsetInCU: 0x1D37A, offset: 0x48412B, size: 0x8, addend: 0x0, symName: '__ZN4core3ptr100drop_in_place$LT$syn..punctuated..Punctuated$LT$syn..path..PathSegment$C$syn..token..PathSep$GT$$GT$17he41ef64147139591E', symObjAddr: 0x3B0, symBinAddr: 0xD98B0, symSize: 0x170 }
  - { offsetInCU: 0x1D9F3, offset: 0x4847A4, size: 0x8, addend: 0x0, symName: '__ZN4core3ptr103drop_in_place$LT$core..option..Option$LT$alloc..boxed..Box$LT$syn..generics..TypeParamBound$GT$$GT$$GT$17hb14e4384a768542bE', symObjAddr: 0x520, symBinAddr: 0xD9A20, symSize: 0x50 }
  - { offsetInCU: 0x1DC1D, offset: 0x4849CE, size: 0x8, addend: 0x0, symName: '__ZN4core3ptr103drop_in_place$LT$core..option..Option$LT$alloc..boxed..Box$LT$syn..generics..WherePredicate$GT$$GT$$GT$17he190813f4819c5dbE', symObjAddr: 0x570, symBinAddr: 0xD9A70, symSize: 0xD0 }
  - { offsetInCU: 0x1DFB1, offset: 0x484D62, size: 0x8, addend: 0x0, symName: '__ZN4core3ptr103drop_in_place$LT$syn..punctuated..Punctuated$LT$syn..generics..GenericParam$C$syn..token..Comma$GT$$GT$17h0c6077a988036760E.llvm.1278538373299499664', symObjAddr: 0x640, symBinAddr: 0xD9B40, symSize: 0xF0 }
  - { offsetInCU: 0x1E411, offset: 0x4851C2, size: 0x8, addend: 0x0, symName: '__ZN4core3ptr104drop_in_place$LT$syn..punctuated..Punctuated$LT$syn..generics..TypeParamBound$C$syn..token..Plus$GT$$GT$17h724e4d9d1d65061aE', symObjAddr: 0x730, symBinAddr: 0xD9C30, symSize: 0x170 }
  - { offsetInCU: 0x1E9AB, offset: 0x48575C, size: 0x8, addend: 0x0, symName: '__ZN4core3ptr105drop_in_place$LT$syn..punctuated..Punctuated$LT$syn..generics..WherePredicate$C$syn..token..Comma$GT$$GT$17h18b5b213db2a676cE', symObjAddr: 0x8A0, symBinAddr: 0xD9DA0, symSize: 0x80 }
  - { offsetInCU: 0x1ECAB, offset: 0x485A5C, size: 0x8, addend: 0x0, symName: '__ZN4core3ptr34drop_in_place$LT$syn..lit..Lit$GT$17hd64dde89a262341dE', symObjAddr: 0x920, symBinAddr: 0xD9E20, symSize: 0x120 }
  - { offsetInCU: 0x1F1D7, offset: 0x485F88, size: 0x8, addend: 0x0, symName: '__ZN4core3ptr34drop_in_place$LT$syn..pat..Pat$GT$17hf88887878261d63cE', symObjAddr: 0xA40, symBinAddr: 0xD9F40, symSize: 0x1100 }
  - { offsetInCU: 0x2386F, offset: 0x48A620, size: 0x8, addend: 0x0, symName: '__ZN4core3ptr34drop_in_place$LT$syn..ty..Type$GT$17ha80dd29b0f9d4a3fE.llvm.1278538373299499664', symObjAddr: 0x1B40, symBinAddr: 0xDB040, symSize: 0x520 }
  - { offsetInCU: 0x24F03, offset: 0x48BCB4, size: 0x8, addend: 0x0, symName: '__ZN4core3ptr36drop_in_place$LT$syn..expr..Expr$GT$17h10f573b40ddd212cE.llvm.1278538373299499664', symObjAddr: 0x2060, symBinAddr: 0xDB560, symSize: 0x2840 }
  - { offsetInCU: 0x2EFE1, offset: 0x495D92, size: 0x8, addend: 0x0, symName: '__ZN4core3ptr36drop_in_place$LT$syn..mac..Macro$GT$17hc3b30a7a8a34cc2dE', symObjAddr: 0x48A0, symBinAddr: 0xDDDA0, symSize: 0x40 }
  - { offsetInCU: 0x2F097, offset: 0x495E48, size: 0x8, addend: 0x0, symName: '__ZN4core3ptr36drop_in_place$LT$syn..path..Path$GT$17h75c74a97d5f0a03bE', symObjAddr: 0x48E0, symBinAddr: 0xDDDE0, symSize: 0x280 }
  - { offsetInCU: 0x2FB44, offset: 0x4968F5, size: 0x8, addend: 0x0, symName: '__ZN4core3ptr37drop_in_place$LT$syn..stmt..Block$GT$17h6fc3254d5688f2c3E', symObjAddr: 0x4B60, symBinAddr: 0xDE060, symSize: 0xD0 }
  - { offsetInCU: 0x2FE1B, offset: 0x496BCC, size: 0x8, addend: 0x0, symName: '__ZN4core3ptr38drop_in_place$LT$syn..expr..Member$GT$17h6b0cf84594ce6bceE', symObjAddr: 0x4C30, symBinAddr: 0xDE130, symSize: 0x30 }
  - { offsetInCU: 0x2FF17, offset: 0x496CC8, size: 0x8, addend: 0x0, symName: '__ZN4core3ptr39drop_in_place$LT$proc_macro2..Ident$GT$17ha28fef9769e267d9E.llvm.1278538373299499664', symObjAddr: 0x4C60, symBinAddr: 0xDE160, symSize: 0x30 }
  - { offsetInCU: 0x2FFF4, offset: 0x496DA5, size: 0x8, addend: 0x0, symName: '__ZN4core3ptr40drop_in_place$LT$syn..ty..ReturnType$GT$17h035a612e322b6510E', symObjAddr: 0x4C90, symBinAddr: 0xDE190, symSize: 0x50 }
  - { offsetInCU: 0x30164, offset: 0x496F15, size: 0x8, addend: 0x0, symName: '__ZN4core3ptr41drop_in_place$LT$syn..expr..ExprConst$GT$17hbfe19d5d621e6836E', symObjAddr: 0x4CE0, symBinAddr: 0xDE1E0, symSize: 0x180 }
  - { offsetInCU: 0x30751, offset: 0x497502, size: 0x8, addend: 0x0, symName: '__ZN4core3ptr44drop_in_place$LT$syn..lifetime..Lifetime$GT$17he37fa474f03de7b1E.llvm.1278538373299499664', symObjAddr: 0x4EA0, symBinAddr: 0xDE360, symSize: 0x30 }
  - { offsetInCU: 0x308C9, offset: 0x49767A, size: 0x8, addend: 0x0, symName: '__ZN4core3ptr44drop_in_place$LT$syn..parse..ParseBuffer$GT$17hf792ff20095efc35E', symObjAddr: 0x4ED0, symBinAddr: 0xDE390, symSize: 0x70 }
  - { offsetInCU: 0x30CE0, offset: 0x497A91, size: 0x8, addend: 0x0, symName: '__ZN4core3ptr45drop_in_place$LT$proc_macro2..TokenStream$GT$17h76e8e68015f4924dE.llvm.1278538373299499664', symObjAddr: 0x4F40, symBinAddr: 0xDE400, symSize: 0x140 }
  - { offsetInCU: 0x3117A, offset: 0x497F2B, size: 0x8, addend: 0x0, symName: '__ZN4core3ptr45drop_in_place$LT$syn..generics..TypeParam$GT$17h188a459c1380ac75E.llvm.1278538373299499664', symObjAddr: 0x5080, symBinAddr: 0xDE540, symSize: 0x230 }
  - { offsetInCU: 0x319EF, offset: 0x4987A0, size: 0x8, addend: 0x0, symName: '__ZN4core3ptr45drop_in_place$LT$syn..path..PathArguments$GT$17hdbc6dfac6f3334e6E', symObjAddr: 0x52B0, symBinAddr: 0xDE770, symSize: 0x190 }
  - { offsetInCU: 0x31EBF, offset: 0x498C70, size: 0x8, addend: 0x0, symName: '__ZN4core3ptr46drop_in_place$LT$syn..generics..ConstParam$GT$17h7a9b900b2b88bfcdE.llvm.1278538373299499664', symObjAddr: 0x5440, symBinAddr: 0xDE900, symSize: 0x150 }
  - { offsetInCU: 0x322E3, offset: 0x499094, size: 0x8, addend: 0x0, symName: '__ZN4core3ptr46drop_in_place$LT$syn..generics..TraitBound$GT$17hbfe193394d805ef5E.llvm.1278538373299499664', symObjAddr: 0x5590, symBinAddr: 0xDEA50, symSize: 0x130 }
  - { offsetInCU: 0x32786, offset: 0x499537, size: 0x8, addend: 0x0, symName: '__ZN4core3ptr47drop_in_place$LT$syn..path..GenericArgument$GT$17h593f06d6ca9a94d2E', symObjAddr: 0x56C0, symBinAddr: 0xDEB80, symSize: 0x4A0 }
  - { offsetInCU: 0x3388C, offset: 0x49A63D, size: 0x8, addend: 0x0, symName: '__ZN4core3ptr49drop_in_place$LT$syn..generics..LifetimeParam$GT$17h3a8835ab294bfd16E.llvm.1278538373299499664', symObjAddr: 0x5B60, symBinAddr: 0xDF020, symSize: 0xF0 }
  - { offsetInCU: 0x33CA3, offset: 0x49AA54, size: 0x8, addend: 0x0, symName: '__ZN4core3ptr49drop_in_place$LT$syn..generics..PredicateType$GT$17h28460a55196bd45fE.llvm.1278538373299499664', symObjAddr: 0x5C50, symBinAddr: 0xDF110, symSize: 0x70 }
  - { offsetInCU: 0x33D13, offset: 0x49AAC4, size: 0x8, addend: 0x0, symName: '__ZN4core3ptr50drop_in_place$LT$syn..generics..TypeParamBound$GT$17h81b4325b5900604dE', symObjAddr: 0x5CC0, symBinAddr: 0xDF180, symSize: 0xA0 }
  - { offsetInCU: 0x33E79, offset: 0x49AC2A, size: 0x8, addend: 0x0, symName: '__ZN4core3ptr53drop_in_place$LT$syn..generics..PredicateLifetime$GT$17hd47626f38faed49cE.llvm.1278538373299499664', symObjAddr: 0x5D60, symBinAddr: 0xDF220, symSize: 0x40 }
  - { offsetInCU: 0x33E99, offset: 0x49AC4A, size: 0x8, addend: 0x0, symName: '__ZN4core3ptr53drop_in_place$LT$syn..generics..PredicateLifetime$GT$17hd47626f38faed49cE.llvm.1278538373299499664', symObjAddr: 0x5D60, symBinAddr: 0xDF220, symSize: 0x40 }
  - { offsetInCU: 0x33EB7, offset: 0x49AC68, size: 0x8, addend: 0x0, symName: '__ZN4core3ptr53drop_in_place$LT$syn..generics..PredicateLifetime$GT$17hd47626f38faed49cE.llvm.1278538373299499664', symObjAddr: 0x5D60, symBinAddr: 0xDF220, symSize: 0x40 }
  - { offsetInCU: 0x33ED5, offset: 0x49AC86, size: 0x8, addend: 0x0, symName: '__ZN4core3ptr53drop_in_place$LT$syn..generics..PredicateLifetime$GT$17hd47626f38faed49cE.llvm.1278538373299499664', symObjAddr: 0x5D60, symBinAddr: 0xDF220, symSize: 0x40 }
  - { offsetInCU: 0x33F98, offset: 0x49AD49, size: 0x8, addend: 0x0, symName: '__ZN4core3ptr58drop_in_place$LT$alloc..vec..Vec$LT$syn..expr..Arm$GT$$GT$17hff9224aadf2233b8E', symObjAddr: 0x5DA0, symBinAddr: 0xDF260, symSize: 0xD0 }
  - { offsetInCU: 0x34258, offset: 0x49B009, size: 0x8, addend: 0x0, symName: '__ZN4core3ptr59drop_in_place$LT$alloc..boxed..Box$LT$syn..pat..Pat$GT$$GT$17h622b0c1db21c0742E', symObjAddr: 0x5E70, symBinAddr: 0xDF330, symSize: 0x50 }
  - { offsetInCU: 0x343B1, offset: 0x49B162, size: 0x8, addend: 0x0, symName: '__ZN4core3ptr59drop_in_place$LT$alloc..boxed..Box$LT$syn..ty..Type$GT$$GT$17hde45fa887dd8b605E', symObjAddr: 0x5EC0, symBinAddr: 0xDF380, symSize: 0x50 }
  - { offsetInCU: 0x3450A, offset: 0x49B2BB, size: 0x8, addend: 0x0, symName: '__ZN4core3ptr61drop_in_place$LT$alloc..boxed..Box$LT$syn..expr..Expr$GT$$GT$17hbb42293869113942E', symObjAddr: 0x5F10, symBinAddr: 0xDF3D0, symSize: 0x50 }
  - { offsetInCU: 0x346DF, offset: 0x49B490, size: 0x8, addend: 0x0, symName: '__ZN4core3ptr61drop_in_place$LT$syn..path..ParenthesizedGenericArguments$GT$17h6b1731382637937fE', symObjAddr: 0x5F60, symBinAddr: 0xDF420, symSize: 0x170 }
  - { offsetInCU: 0x34CD5, offset: 0x49BA86, size: 0x8, addend: 0x0, symName: '__ZN4core3ptr62drop_in_place$LT$core..option..Option$LT$syn..ty..Type$GT$$GT$17h80abfa6e6ae64438E', symObjAddr: 0x60D0, symBinAddr: 0xDF590, symSize: 0x20 }
  - { offsetInCU: 0x34CF0, offset: 0x49BAA1, size: 0x8, addend: 0x0, symName: '__ZN4core3ptr62drop_in_place$LT$syn..path..AngleBracketedGenericArguments$GT$17hf8fa172f007a1473E', symObjAddr: 0x60F0, symBinAddr: 0xDF5B0, symSize: 0x120 }
  - { offsetInCU: 0x3513B, offset: 0x49BEEC, size: 0x8, addend: 0x0, symName: '__ZN4core3ptr63drop_in_place$LT$alloc..boxed..Box$LT$syn..lit..LitRepr$GT$$GT$17h6e3a82ea4de7b84cE', symObjAddr: 0x6210, symBinAddr: 0xDF6D0, symSize: 0x60 }
  - { offsetInCU: 0x35442, offset: 0x49C1F3, size: 0x8, addend: 0x0, symName: '__ZN4core3ptr64drop_in_place$LT$alloc..boxed..Box$LT$syn..pat..FieldPat$GT$$GT$17hbf8f4867d84bd25dE', symObjAddr: 0x6270, symBinAddr: 0xDF730, symSize: 0x140 }
  - { offsetInCU: 0x35B43, offset: 0x49C8F4, size: 0x8, addend: 0x0, symName: '__ZN4core3ptr64drop_in_place$LT$alloc..boxed..Box$LT$syn..ty..BareFnArg$GT$$GT$17h6be6354eb1d1364dE', symObjAddr: 0x63B0, symBinAddr: 0xDF870, symSize: 0x140 }
  - { offsetInCU: 0x360CC, offset: 0x49CE7D, size: 0x8, addend: 0x0, symName: '__ZN4core3ptr64drop_in_place$LT$alloc..vec..Vec$LT$syn..attr..Attribute$GT$$GT$17he33e25539d5885aeE.llvm.1278538373299499664', symObjAddr: 0x64F0, symBinAddr: 0xDF9B0, symSize: 0xD0 }
  - { offsetInCU: 0x363C0, offset: 0x49D171, size: 0x8, addend: 0x0, symName: '__ZN4core3ptr64drop_in_place$LT$core..option..Option$LT$syn..expr..Expr$GT$$GT$17h1cf468d72a93daa3E', symObjAddr: 0x65C0, symBinAddr: 0xDFA80, symSize: 0x20 }
  - { offsetInCU: 0x363DB, offset: 0x49D18C, size: 0x8, addend: 0x0, symName: '__ZN4core3ptr65drop_in_place$LT$alloc..vec..Vec$LT$proc_macro..TokenTree$GT$$GT$17h8abd81f8596dbc59E', symObjAddr: 0x65E0, symBinAddr: 0xDFAA0, symSize: 0x110 }
  - { offsetInCU: 0x367D3, offset: 0x49D584, size: 0x8, addend: 0x0, symName: '__ZN4core3ptr65drop_in_place$LT$core..option..Option$LT$syn..expr..Label$GT$$GT$17hac599686b33ef364E', symObjAddr: 0x66F0, symBinAddr: 0xDFBB0, symSize: 0x30 }
  - { offsetInCU: 0x3690D, offset: 0x49D6BE, size: 0x8, addend: 0x0, symName: '__ZN4core3ptr66drop_in_place$LT$core..option..Option$LT$syn..pat..PatRest$GT$$GT$17hd5bb3bc28aa78ac1E', symObjAddr: 0x6720, symBinAddr: 0xDFBE0, symSize: 0xE0 }
  - { offsetInCU: 0x36C35, offset: 0x49D9E6, size: 0x8, addend: 0x0, symName: '__ZN4core3ptr67drop_in_place$LT$alloc..boxed..Box$LT$syn..expr..FieldValue$GT$$GT$17hbbcf67a9d5e9863cE', symObjAddr: 0x6800, symBinAddr: 0xDFCC0, symSize: 0x140 }
  - { offsetInCU: 0x3719E, offset: 0x49DF4F, size: 0x8, addend: 0x0, symName: '__ZN4core3ptr68drop_in_place$LT$alloc..boxed..Box$LT$syn..path..PathSegment$GT$$GT$17h99aaf90b3262bc1eE', symObjAddr: 0x6940, symBinAddr: 0xDFE00, symSize: 0x1B0 }
  - { offsetInCU: 0x378AC, offset: 0x49E65D, size: 0x8, addend: 0x0, symName: '__ZN4core3ptr70drop_in_place$LT$core..option..Option$LT$syn..ty..BareVariadic$GT$$GT$17h79a19250e9f043b1E', symObjAddr: 0x6AF0, symBinAddr: 0xDFFB0, symSize: 0x100 }
  - { offsetInCU: 0x37D17, offset: 0x49EAC8, size: 0x8, addend: 0x0, symName: '__ZN4core3ptr72drop_in_place$LT$alloc..boxed..Box$LT$syn..path..GenericArgument$GT$$GT$17hfd308d374af4273dE', symObjAddr: 0x6BF0, symBinAddr: 0xE00B0, symSize: 0x2B0 }
  - { offsetInCU: 0x386CF, offset: 0x49F480, size: 0x8, addend: 0x0, symName: '__ZN4core3ptr72drop_in_place$LT$core..option..Option$LT$syn..lifetime..Lifetime$GT$$GT$17h49cce6f02f9c0590E', symObjAddr: 0x6EA0, symBinAddr: 0xE0360, symSize: 0x30 }
  - { offsetInCU: 0x387EA, offset: 0x49F59B, size: 0x8, addend: 0x0, symName: '__ZN4core3ptr73drop_in_place$LT$alloc..boxed..Box$LT$syn..generics..GenericParam$GT$$GT$17ha26d5d145af4b203E.llvm.1278538373299499664', symObjAddr: 0x6ED0, symBinAddr: 0xE0390, symSize: 0x80 }
  - { offsetInCU: 0x38960, offset: 0x49F711, size: 0x8, addend: 0x0, symName: '__ZN4core3ptr75drop_in_place$LT$alloc..boxed..Box$LT$syn..generics..TypeParamBound$GT$$GT$17h129a4e927e5eb81bE', symObjAddr: 0x6F50, symBinAddr: 0xE0410, symSize: 0x1B0 }
  - { offsetInCU: 0x39040, offset: 0x49FDF1, size: 0x8, addend: 0x0, symName: '__ZN4core3ptr75drop_in_place$LT$core..option..Option$LT$syn..generics..WhereClause$GT$$GT$17haaf63f327098cdccE', symObjAddr: 0x7100, symBinAddr: 0xE05C0, symSize: 0x90 }
  - { offsetInCU: 0x392D7, offset: 0x4A0088, size: 0x8, addend: 0x0, symName: '__ZN4core3ptr78drop_in_place$LT$core..option..Option$LT$syn..generics..BoundLifetimes$GT$$GT$17hcc2c861c1632285dE', symObjAddr: 0x7190, symBinAddr: 0xE0650, symSize: 0x20 }
  - { offsetInCU: 0x3936C, offset: 0x4A011D, size: 0x8, addend: 0x0, symName: '__ZN4core3ptr86drop_in_place$LT$syn..punctuated..Punctuated$LT$syn..pat..Pat$C$syn..token..Or$GT$$GT$17h9cc6b5f7b6d3a555E', symObjAddr: 0x71B0, symBinAddr: 0xE0670, symSize: 0x120 }
  - { offsetInCU: 0x397E7, offset: 0x4A0598, size: 0x8, addend: 0x0, symName: '__ZN4core3ptr87drop_in_place$LT$core..option..Option$LT$alloc..boxed..Box$LT$syn..pat..Pat$GT$$GT$$GT$17h51cd48973d96c411E', symObjAddr: 0x72D0, symBinAddr: 0xE0790, symSize: 0x50 }
  - { offsetInCU: 0x39957, offset: 0x4A0708, size: 0x8, addend: 0x0, symName: '__ZN4core3ptr87drop_in_place$LT$core..option..Option$LT$alloc..boxed..Box$LT$syn..ty..Type$GT$$GT$$GT$17h103a25a4a7d7374eE', symObjAddr: 0x7320, symBinAddr: 0xE07E0, symSize: 0x50 }
  - { offsetInCU: 0x39AC7, offset: 0x4A0878, size: 0x8, addend: 0x0, symName: '__ZN4core3ptr89drop_in_place$LT$core..option..Option$LT$alloc..boxed..Box$LT$syn..expr..Expr$GT$$GT$$GT$17h9e02509cb2345d44E', symObjAddr: 0x7370, symBinAddr: 0xE0830, symSize: 0x50 }
  - { offsetInCU: 0x39C75, offset: 0x4A0A26, size: 0x8, addend: 0x0, symName: '__ZN4core3ptr89drop_in_place$LT$syn..punctuated..Punctuated$LT$syn..pat..Pat$C$syn..token..Comma$GT$$GT$17hd3a83c36827f210aE', symObjAddr: 0x73C0, symBinAddr: 0xE0880, symSize: 0x120 }
  - { offsetInCU: 0x3A107, offset: 0x4A0EB8, size: 0x8, addend: 0x0, symName: '__ZN4core3ptr89drop_in_place$LT$syn..punctuated..Punctuated$LT$syn..ty..Type$C$syn..token..Comma$GT$$GT$17he030c4b7f24a5848E', symObjAddr: 0x74E0, symBinAddr: 0xE09A0, symSize: 0x120 }
  - { offsetInCU: 0x3A582, offset: 0x4A1333, size: 0x8, addend: 0x0, symName: '__ZN4core3ptr90drop_in_place$LT$core..option..Option$LT$syn..path..AngleBracketedGenericArguments$GT$$GT$17ha307713a95a0671eE', symObjAddr: 0x7600, symBinAddr: 0xE0AC0, symSize: 0x130 }
  - { offsetInCU: 0x3AA24, offset: 0x4A17D5, size: 0x8, addend: 0x0, symName: '__ZN4core3ptr91drop_in_place$LT$syn..punctuated..Punctuated$LT$syn..expr..Expr$C$syn..token..Comma$GT$$GT$17h6f261e8f470c81f2E', symObjAddr: 0x7730, symBinAddr: 0xE0BF0, symSize: 0x120 }
  - { offsetInCU: 0x3AEB2, offset: 0x4A1C63, size: 0x8, addend: 0x0, symName: '__ZN4core3ptr94drop_in_place$LT$syn..punctuated..Punctuated$LT$syn..pat..FieldPat$C$syn..token..Comma$GT$$GT$17h43ec25af986ef674E', symObjAddr: 0x7850, symBinAddr: 0xE0D10, symSize: 0xF0 }
  - { offsetInCU: 0x3B1B1, offset: 0x4A1F62, size: 0x8, addend: 0x0, symName: '__ZN4core3ptr94drop_in_place$LT$syn..punctuated..Punctuated$LT$syn..ty..BareFnArg$C$syn..token..Comma$GT$$GT$17h7ba4c699ee390ebaE', symObjAddr: 0x7940, symBinAddr: 0xE0E00, symSize: 0xF0 }
  - { offsetInCU: 0x3B4B2, offset: 0x4A2263, size: 0x8, addend: 0x0, symName: '__ZN4core3ptr96drop_in_place$LT$core..option..Option$LT$alloc..boxed..Box$LT$syn..path..PathSegment$GT$$GT$$GT$17h5de12a5a0f9e9ef9E', symObjAddr: 0x7A30, symBinAddr: 0xE0EF0, symSize: 0xA0 }
  - { offsetInCU: 0x3B731, offset: 0x4A24E2, size: 0x8, addend: 0x0, symName: '__ZN4core3ptr97drop_in_place$LT$syn..punctuated..Punctuated$LT$syn..expr..FieldValue$C$syn..token..Comma$GT$$GT$17hf58d0a9a09266ab3E', symObjAddr: 0x7AD0, symBinAddr: 0xE0F90, symSize: 0xF0 }
  - { offsetInCU: 0x3BA2E, offset: 0x4A27DF, size: 0x8, addend: 0x0, symName: '__ZN4core3ptr98drop_in_place$LT$alloc..vec..Vec$LT$$LP$syn..path..GenericArgument$C$syn..token..Comma$RP$$GT$$GT$17h0dee282a026d5a38E', symObjAddr: 0x7BC0, symBinAddr: 0xE1080, symSize: 0xD0 }
  - { offsetInCU: 0x3BD6E, offset: 0x4A2B1F, size: 0x8, addend: 0x0, symName: '__ZN4core3ptr98drop_in_place$LT$syn..punctuated..Punctuated$LT$syn..lifetime..Lifetime$C$syn..token..Plus$GT$$GT$17h600c2b78f78fd2b9E.llvm.1278538373299499664', symObjAddr: 0x7C90, symBinAddr: 0xE1150, symSize: 0xD0 }
  - { offsetInCU: 0x3E22B, offset: 0x4A4FDC, size: 0x8, addend: 0x0, symName: '__ZN66_$LT$core..option..Option$LT$T$GT$$u20$as$u20$core..fmt..Debug$GT$3fmt17h3f9cb4e734346458E', symObjAddr: 0x7FB0, symBinAddr: 0xE13B0, symSize: 0x50 }
  - { offsetInCU: 0x3E291, offset: 0x4A5042, size: 0x8, addend: 0x0, symName: '__ZN66_$LT$core..option..Option$LT$T$GT$$u20$as$u20$core..fmt..Debug$GT$3fmt17h4df9694f63b1094bE', symObjAddr: 0x8000, symBinAddr: 0xE1400, symSize: 0x50 }
  - { offsetInCU: 0x3E2F7, offset: 0x4A50A8, size: 0x8, addend: 0x0, symName: '__ZN66_$LT$core..option..Option$LT$T$GT$$u20$as$u20$core..fmt..Debug$GT$3fmt17h5b7250fe1c239fe0E', symObjAddr: 0x8050, symBinAddr: 0xE1450, symSize: 0x60 }
  - { offsetInCU: 0x3E35D, offset: 0x4A510E, size: 0x8, addend: 0x0, symName: '__ZN66_$LT$core..option..Option$LT$T$GT$$u20$as$u20$core..fmt..Debug$GT$3fmt17h7f047cf087f50b1aE', symObjAddr: 0x80B0, symBinAddr: 0xE14B0, symSize: 0x60 }
  - { offsetInCU: 0x3E3C3, offset: 0x4A5174, size: 0x8, addend: 0x0, symName: '__ZN66_$LT$core..option..Option$LT$T$GT$$u20$as$u20$core..fmt..Debug$GT$3fmt17h8207a204a4ce830cE', symObjAddr: 0x8110, symBinAddr: 0xE1510, symSize: 0x50 }
  - { offsetInCU: 0x3E429, offset: 0x4A51DA, size: 0x8, addend: 0x0, symName: '__ZN66_$LT$core..option..Option$LT$T$GT$$u20$as$u20$core..fmt..Debug$GT$3fmt17h90598f4ce81c56a1E', symObjAddr: 0x8160, symBinAddr: 0xE1560, symSize: 0x50 }
  - { offsetInCU: 0x3E48F, offset: 0x4A5240, size: 0x8, addend: 0x0, symName: '__ZN66_$LT$core..option..Option$LT$T$GT$$u20$as$u20$core..fmt..Debug$GT$3fmt17h9d6a24eae4b62f21E', symObjAddr: 0x81B0, symBinAddr: 0xE15B0, symSize: 0x60 }
  - { offsetInCU: 0x3E4F5, offset: 0x4A52A6, size: 0x8, addend: 0x0, symName: '__ZN66_$LT$core..option..Option$LT$T$GT$$u20$as$u20$core..fmt..Debug$GT$3fmt17ha4a0a8dd99e06ff0E', symObjAddr: 0x8210, symBinAddr: 0xE1610, symSize: 0x60 }
  - { offsetInCU: 0x3E55B, offset: 0x4A530C, size: 0x8, addend: 0x0, symName: '__ZN66_$LT$core..option..Option$LT$T$GT$$u20$as$u20$core..fmt..Debug$GT$3fmt17he5c6d035a7e6347eE', symObjAddr: 0x8270, symBinAddr: 0xE1670, symSize: 0x60 }
  - { offsetInCU: 0x3EC40, offset: 0x4A59F1, size: 0x8, addend: 0x0, symName: '__ZN42_$LT$$RF$T$u20$as$u20$core..fmt..Debug$GT$3fmt17h921457b402879af4E', symObjAddr: 0x0, symBinAddr: 0xD95E0, symSize: 0x80 }
  - { offsetInCU: 0x3ECC4, offset: 0x4A5A75, size: 0x8, addend: 0x0, symName: '__ZN42_$LT$$RF$T$u20$as$u20$core..fmt..Debug$GT$3fmt17ha8ec4306c231e8e6E', symObjAddr: 0x80, symBinAddr: 0xD9660, symSize: 0xC0 }
  - { offsetInCU: 0x40A8A, offset: 0x4A783B, size: 0x8, addend: 0x0, symName: '__ZN48_$LT$T$u20$as$u20$core..clone..CloneToUninit$GT$15clone_to_uninit17hc598a6c9534b5b4fE', symObjAddr: 0x220, symBinAddr: 0xD9720, symSize: 0x140 }
  - { offsetInCU: 0x43CEC, offset: 0x4AAA9D, size: 0x8, addend: 0x0, symName: _anon.3efb8cbe47e27110b2021387cd2a15db.52.llvm.1278538373299499664, symObjAddr: 0x159B8, symBinAddr: 0x2729E0, symSize: 0x0 }
  - { offsetInCU: 0x43D37, offset: 0x4AAAE8, size: 0x8, addend: 0x0, symName: _anon.3efb8cbe47e27110b2021387cd2a15db.54.llvm.1278538373299499664, symObjAddr: 0x159D8, symBinAddr: 0x272A00, symSize: 0x0 }
  - { offsetInCU: 0x43D82, offset: 0x4AAB33, size: 0x8, addend: 0x0, symName: _anon.3efb8cbe47e27110b2021387cd2a15db.56.llvm.1278538373299499664, symObjAddr: 0x159F8, symBinAddr: 0x272A20, symSize: 0x0 }
  - { offsetInCU: 0x43DCD, offset: 0x4AAB7E, size: 0x8, addend: 0x0, symName: _anon.3efb8cbe47e27110b2021387cd2a15db.87.llvm.1278538373299499664, symObjAddr: 0x15BB8, symBinAddr: 0x272BE0, symSize: 0x0 }
  - { offsetInCU: 0x43E18, offset: 0x4AABC9, size: 0x8, addend: 0x0, symName: _anon.3efb8cbe47e27110b2021387cd2a15db.89.llvm.1278538373299499664, symObjAddr: 0x15BD8, symBinAddr: 0x272C00, symSize: 0x0 }
  - { offsetInCU: 0x43E63, offset: 0x4AAC14, size: 0x8, addend: 0x0, symName: _anon.3efb8cbe47e27110b2021387cd2a15db.96.llvm.1278538373299499664, symObjAddr: 0x15C38, symBinAddr: 0x272C60, symSize: 0x0 }
  - { offsetInCU: 0x43EAE, offset: 0x4AAC5F, size: 0x8, addend: 0x0, symName: _anon.3efb8cbe47e27110b2021387cd2a15db.97.llvm.1278538373299499664, symObjAddr: 0x15C58, symBinAddr: 0x272C80, symSize: 0x0 }
  - { offsetInCU: 0x44D8F, offset: 0x4ABB40, size: 0x8, addend: 0x0, symName: '__ZN52_$LT$$RF$T$u20$as$u20$quote..to_tokens..ToTokens$GT$9to_tokens17h105a97bdbe744db0E', symObjAddr: 0x7E10, symBinAddr: 0xE1220, symSize: 0x190 }
  - { offsetInCU: 0x45829, offset: 0x4AC5DA, size: 0x8, addend: 0x0, symName: __ZN3syn8generics8Generics17make_where_clause17h8413fcc584b77195E, symObjAddr: 0x8710, symBinAddr: 0xE16D0, symSize: 0x90 }
  - { offsetInCU: 0x46903, offset: 0x4AD6B4, size: 0x8, addend: 0x0, symName: '__ZN3syn8generics7parsing47_$LT$impl$u20$syn..generics..TypeParamBound$GT$14parse_multiple17h33e6fbea8f6e153bE', symObjAddr: 0xCD80, symBinAddr: 0xE50C0, symSize: 0x4D0 }
  - { offsetInCU: 0x1E, offset: 0x4B755B, size: 0x8, addend: 0x0, symName: '__ZN42_$LT$$RF$T$u20$as$u20$core..fmt..Debug$GT$3fmt17h065a38d2d7c650a8E', symObjAddr: 0x0, symBinAddr: 0xEA700, symSize: 0x20 }
  - { offsetInCU: 0xF24, offset: 0x4B8461, size: 0x8, addend: 0x0, symName: '__ZN51_$LT$syn..token..In$u20$as$u20$core..fmt..Debug$GT$3fmt17hd3e85b92090ec6ffE', symObjAddr: 0x2A50, symBinAddr: 0xEBA30, symSize: 0x20 }
  - { offsetInCU: 0xF78, offset: 0x4B84B5, size: 0x8, addend: 0x0, symName: '__ZN52_$LT$syn..token..Mut$u20$as$u20$core..fmt..Debug$GT$3fmt17h21113ae0f4bcc45fE', symObjAddr: 0x3230, symBinAddr: 0xEBC10, symSize: 0x20 }
  - { offsetInCU: 0xFCC, offset: 0x4B8509, size: 0x8, addend: 0x0, symName: '__ZN51_$LT$syn..token..If$u20$as$u20$core..fmt..Debug$GT$3fmt17h0695c81a75f6fbe5E', symObjAddr: 0x2810, symBinAddr: 0xEB9D0, symSize: 0x20 }
  - { offsetInCU: 0x1023, offset: 0x4B8560, size: 0x8, addend: 0x0, symName: '__ZN54_$LT$syn..token..Paren$u20$as$u20$core..fmt..Debug$GT$3fmt17h4cf3184c73a85e6bE', symObjAddr: 0xADD0, symBinAddr: 0xF0200, symSize: 0x20 }
  - { offsetInCU: 0x10A5, offset: 0x4B85E2, size: 0x8, addend: 0x0, symName: '__ZN52_$LT$syn..token..For$u20$as$u20$core..fmt..Debug$GT$3fmt17h2a9c2d89f150647bE', symObjAddr: 0x26F0, symBinAddr: 0xEB950, symSize: 0x20 }
  - { offsetInCU: 0x1155, offset: 0x4B8692, size: 0x8, addend: 0x0, symName: '__ZN51_$LT$syn..token..As$u20$as$u20$core..fmt..Debug$GT$3fmt17he5ea036a7dbc4574E', symObjAddr: 0x12B0, symBinAddr: 0xEB5B0, symSize: 0x20 }
  - { offsetInCU: 0x11A9, offset: 0x4B86E6, size: 0x8, addend: 0x0, symName: '__ZN54_$LT$syn..token..Async$u20$as$u20$core..fmt..Debug$GT$3fmt17h9c55c47669d7b510E', symObjAddr: 0x13D0, symBinAddr: 0xEB630, symSize: 0x20 }
  - { offsetInCU: 0x1200, offset: 0x4B873D, size: 0x8, addend: 0x0, symName: '__ZN53_$LT$syn..token..Semi$u20$as$u20$core..fmt..Debug$GT$3fmt17hcde5bcd439e9c167E', symObjAddr: 0x6DF0, symBinAddr: 0xECA20, symSize: 0x20 }
  - { offsetInCU: 0x1257, offset: 0x4B8794, size: 0x8, addend: 0x0, symName: '__ZN51_$LT$syn..token..Lt$u20$as$u20$core..fmt..Debug$GT$3fmt17h23ac138274cf8ab2E', symObjAddr: 0x6BF0, symBinAddr: 0xEC820, symSize: 0x20 }
  - { offsetInCU: 0x12AE, offset: 0x4B87EB, size: 0x8, addend: 0x0, symName: '__ZN54_$LT$syn..token..Comma$u20$as$u20$core..fmt..Debug$GT$3fmt17h98ca273f2a690189E', symObjAddr: 0x6A30, symBinAddr: 0xEC6C0, symSize: 0x20 }
  - { offsetInCU: 0x1305, offset: 0x4B8842, size: 0x8, addend: 0x0, symName: '__ZN51_$LT$syn..token..Eq$u20$as$u20$core..fmt..Debug$GT$3fmt17he5c741d2470e89a3E', symObjAddr: 0x6AF0, symBinAddr: 0xEC760, symSize: 0x20 }
  - { offsetInCU: 0x1387, offset: 0x4B88C4, size: 0x8, addend: 0x0, symName: '__ZN54_$LT$syn..token..Const$u20$as$u20$core..fmt..Debug$GT$3fmt17ha74a6d80d0fc7567E', symObjAddr: 0x1A90, symBinAddr: 0xEB6D0, symSize: 0x20 }
  - { offsetInCU: 0x13DB, offset: 0x4B8918, size: 0x8, addend: 0x0, symName: '__ZN55_$LT$syn..token..Unsafe$u20$as$u20$core..fmt..Debug$GT$3fmt17h11e5e8289ba70d70E', symObjAddr: 0x4430, symBinAddr: 0xEBF90, symSize: 0x20 }
  - { offsetInCU: 0x1463, offset: 0x4B89A0, size: 0x8, addend: 0x0, symName: '__ZN51_$LT$syn..token..Gt$u20$as$u20$core..fmt..Debug$GT$3fmt17h538821dc3c07b6abE', symObjAddr: 0x6B90, symBinAddr: 0xEC7E0, symSize: 0x20 }
  - { offsetInCU: 0x14E8, offset: 0x4B8A25, size: 0x8, addend: 0x0, symName: '__ZN56_$LT$syn..token..PathSep$u20$as$u20$core..fmt..Debug$GT$3fmt17hc0eb79735d18b82bE', symObjAddr: 0x6CF0, symBinAddr: 0xEC920, symSize: 0x20 }
  - { offsetInCU: 0x153F, offset: 0x4B8A7C, size: 0x8, addend: 0x0, symName: '__ZN52_$LT$syn..token..And$u20$as$u20$core..fmt..Debug$GT$3fmt17hba345ea3bb742cfcE', symObjAddr: 0x6950, symBinAddr: 0xEC600, symSize: 0x20 }
  - { offsetInCU: 0x1596, offset: 0x4B8AD3, size: 0x8, addend: 0x0, symName: '__ZN54_$LT$syn..token..Colon$u20$as$u20$core..fmt..Debug$GT$3fmt17h2e9f8edc092a8e79E', symObjAddr: 0x6A10, symBinAddr: 0xEC6A0, symSize: 0x20 }
  - { offsetInCU: 0x15ED, offset: 0x4B8B2A, size: 0x8, addend: 0x0, symName: '__ZN52_$LT$syn..token..Not$u20$as$u20$core..fmt..Debug$GT$3fmt17hdd6ad752951bd1b8E', symObjAddr: 0x6C70, symBinAddr: 0xEC8A0, symSize: 0x20 }
  - { offsetInCU: 0x1644, offset: 0x4B8B81, size: 0x8, addend: 0x0, symName: '__ZN55_$LT$syn..token..DotDot$u20$as$u20$core..fmt..Debug$GT$3fmt17hdf846bf749bbc41dE', symObjAddr: 0x6A90, symBinAddr: 0xEC700, symSize: 0x20 }
  - { offsetInCU: 0x1698, offset: 0x4B8BD5, size: 0x8, addend: 0x0, symName: '__ZN55_$LT$syn..token..Static$u20$as$u20$core..fmt..Debug$GT$3fmt17hef984473e33a3aa3E', symObjAddr: 0x3B30, symBinAddr: 0xEBD90, symSize: 0x20 }
  - { offsetInCU: 0x171D, offset: 0x4B8C5A, size: 0x8, addend: 0x0, symName: '__ZN54_$LT$syn..token..Brace$u20$as$u20$core..fmt..Debug$GT$3fmt17hbbc514eaa4e2dcf4E', symObjAddr: 0x6F80, symBinAddr: 0xECB40, symSize: 0x20 }
  - { offsetInCU: 0x1774, offset: 0x4B8CB1, size: 0x8, addend: 0x0, symName: '__ZN51_$LT$syn..token..Or$u20$as$u20$core..fmt..Debug$GT$3fmt17hdac464455275ff35E', symObjAddr: 0x6C90, symBinAddr: 0xEC8C0, symSize: 0x20 }
  - { offsetInCU: 0x17FA, offset: 0x4B8D37, size: 0x8, addend: 0x0, symName: '__ZN60_$LT$syn..token..Underscore$u20$as$u20$syn..token..Token$GT$4peek17haec0894d2e05662cE', symObjAddr: 0xAD0, symBinAddr: 0xEB070, symSize: 0x1F0 }
  - { offsetInCU: 0x20AF, offset: 0x4B95EC, size: 0x8, addend: 0x0, symName: '__ZN54_$LT$syn..token..Group$u20$as$u20$core..fmt..Debug$GT$3fmt17h3d880b1e82b9876dE', symObjAddr: 0xCC0, symBinAddr: 0xEB260, symSize: 0x20 }
  - { offsetInCU: 0x20F5, offset: 0x4B9632, size: 0x8, addend: 0x0, symName: '__ZN55_$LT$syn..token..Paren$u20$as$u20$syn..token..Token$GT$4peek17h57c2615f1c93669bE', symObjAddr: 0xF20, symBinAddr: 0xEB3A0, symSize: 0xA0 }
  - { offsetInCU: 0x22F5, offset: 0x4B9832, size: 0x8, addend: 0x0, symName: '__ZN55_$LT$syn..token..Brace$u20$as$u20$syn..token..Token$GT$4peek17h73c23ce965996843E', symObjAddr: 0xFC0, symBinAddr: 0xEB440, symSize: 0xA0 }
  - { offsetInCU: 0x24F5, offset: 0x4B9A32, size: 0x8, addend: 0x0, symName: '__ZN57_$LT$syn..token..Bracket$u20$as$u20$syn..token..Token$GT$4peek17h872c9349a83dc2aaE', symObjAddr: 0x1060, symBinAddr: 0xEB4E0, symSize: 0xA0 }
  - { offsetInCU: 0x26F5, offset: 0x4B9C32, size: 0x8, addend: 0x0, symName: '__ZN59_$LT$syn..token..Underscore$u20$as$u20$core..fmt..Debug$GT$3fmt17h4f5e84f51a6c0148E', symObjAddr: 0x1160, symBinAddr: 0xEB580, symSize: 0x20 }
  - { offsetInCU: 0x273B, offset: 0x4B9C78, size: 0x8, addend: 0x0, symName: '__ZN57_$LT$syn..token..As$u20$as$u20$core..default..Default$GT$7default17h6e21ca7a67d70738E', symObjAddr: 0x12A0, symBinAddr: 0xEB5A0, symSize: 0x0 }
  - { offsetInCU: 0x278C, offset: 0x4B9CC9, size: 0x8, addend: 0x0, symName: '__ZN52_$LT$syn..token..As$u20$as$u20$syn..parse..Parse$GT$5parse17h8279010a971a5b00E', symObjAddr: 0x1350, symBinAddr: 0xEB5D0, symSize: 0x60 }
  - { offsetInCU: 0x2840, offset: 0x4B9D7D, size: 0x8, addend: 0x0, symName: '__ZN55_$LT$syn..token..Async$u20$as$u20$syn..token..Token$GT$4peek17hec3d206c6ab2af4dE', symObjAddr: 0x14D0, symBinAddr: 0xEB650, symSize: 0x20 }
  - { offsetInCU: 0x2876, offset: 0x4B9DB3, size: 0x8, addend: 0x0, symName: '__ZN54_$LT$syn..token..Auto$u20$as$u20$syn..token..Token$GT$4peek17h78aa4921345bdad2E', symObjAddr: 0x15F0, symBinAddr: 0xEB670, symSize: 0x20 }
  - { offsetInCU: 0x28AC, offset: 0x4B9DE9, size: 0x8, addend: 0x0, symName: '__ZN54_$LT$syn..token..Await$u20$as$u20$core..fmt..Debug$GT$3fmt17hfe5f5b2d40443a82E', symObjAddr: 0x1610, symBinAddr: 0xEB690, symSize: 0x20 }
  - { offsetInCU: 0x291C, offset: 0x4B9E59, size: 0x8, addend: 0x0, symName: '__ZN54_$LT$syn..token..Break$u20$as$u20$core..fmt..Debug$GT$3fmt17h140b00a459c56904E', symObjAddr: 0x1970, symBinAddr: 0xEB6B0, symSize: 0x20 }
  - { offsetInCU: 0x29B9, offset: 0x4B9EF6, size: 0x8, addend: 0x0, symName: '__ZN55_$LT$syn..token..Const$u20$as$u20$syn..parse..Parse$GT$5parse17h4d7f78de797b5b9dE', symObjAddr: 0x1B30, symBinAddr: 0xEB6F0, symSize: 0x60 }
  - { offsetInCU: 0x2A40, offset: 0x4B9F7D, size: 0x8, addend: 0x0, symName: '__ZN55_$LT$syn..token..Const$u20$as$u20$syn..token..Token$GT$4peek17h377299e8bbcdfde8E', symObjAddr: 0x1B90, symBinAddr: 0xEB750, symSize: 0x20 }
  - { offsetInCU: 0x2A76, offset: 0x4B9FB3, size: 0x8, addend: 0x0, symName: '__ZN57_$LT$syn..token..Continue$u20$as$u20$core..fmt..Debug$GT$3fmt17h74501bccbbcabc89E', symObjAddr: 0x1BB0, symBinAddr: 0xEB770, symSize: 0x20 }
  - { offsetInCU: 0x2AB9, offset: 0x4B9FF6, size: 0x8, addend: 0x0, symName: '__ZN54_$LT$syn..token..Crate$u20$as$u20$core..fmt..Debug$GT$3fmt17h9bf72ae17d68140aE', symObjAddr: 0x1CD0, symBinAddr: 0xEB790, symSize: 0x20 }
  - { offsetInCU: 0x2AFC, offset: 0x4BA039, size: 0x8, addend: 0x0, symName: '__ZN55_$LT$syn..token..Crate$u20$as$u20$syn..token..Token$GT$4peek17h41bdfdc9696d7a0cE', symObjAddr: 0x1DD0, symBinAddr: 0xEB7B0, symSize: 0x20 }
  - { offsetInCU: 0x2B32, offset: 0x4BA06F, size: 0x8, addend: 0x0, symName: '__ZN53_$LT$syn..token..Dyn$u20$as$u20$syn..parse..Parse$GT$5parse17ha918c5aa2904e233E', symObjAddr: 0x20D0, symBinAddr: 0xEB7D0, symSize: 0x60 }
  - { offsetInCU: 0x2BB9, offset: 0x4BA0F6, size: 0x8, addend: 0x0, symName: '__ZN54_$LT$syn..token..Else$u20$as$u20$syn..parse..Parse$GT$5parse17h45e080b72d435097E', symObjAddr: 0x21F0, symBinAddr: 0xEB830, symSize: 0x60 }
  - { offsetInCU: 0x2C40, offset: 0x4BA17D, size: 0x8, addend: 0x0, symName: '__ZN53_$LT$syn..token..Enum$u20$as$u20$core..fmt..Debug$GT$3fmt17hd123ceec410c2321E', symObjAddr: 0x2270, symBinAddr: 0xEB890, symSize: 0x20 }
  - { offsetInCU: 0x2C83, offset: 0x4BA1C0, size: 0x8, addend: 0x0, symName: '__ZN54_$LT$syn..token..Enum$u20$as$u20$syn..token..Token$GT$4peek17h5b346af13c7af550E', symObjAddr: 0x2370, symBinAddr: 0xEB8B0, symSize: 0x20 }
  - { offsetInCU: 0x2CB9, offset: 0x4BA1F6, size: 0x8, addend: 0x0, symName: '__ZN55_$LT$syn..token..Extern$u20$as$u20$core..fmt..Debug$GT$3fmt17h2a8b05458ab1b7b4E', symObjAddr: 0x2390, symBinAddr: 0xEB8D0, symSize: 0x20 }
  - { offsetInCU: 0x2CFC, offset: 0x4BA239, size: 0x8, addend: 0x0, symName: '__ZN56_$LT$syn..token..Extern$u20$as$u20$syn..token..Token$GT$4peek17h4d12b1045a886c67E', symObjAddr: 0x2490, symBinAddr: 0xEB8F0, symSize: 0x20 }
  - { offsetInCU: 0x2D32, offset: 0x4BA26F, size: 0x8, addend: 0x0, symName: '__ZN51_$LT$syn..token..Fn$u20$as$u20$core..fmt..Debug$GT$3fmt17h26d80e8d20dd621aE', symObjAddr: 0x25D0, symBinAddr: 0xEB910, symSize: 0x20 }
  - { offsetInCU: 0x2D75, offset: 0x4BA2B2, size: 0x8, addend: 0x0, symName: '__ZN52_$LT$syn..token..Fn$u20$as$u20$syn..token..Token$GT$4peek17h72891b673cf8306dE', symObjAddr: 0x26D0, symBinAddr: 0xEB930, symSize: 0x20 }
  - { offsetInCU: 0x2DAB, offset: 0x4BA2E8, size: 0x8, addend: 0x0, symName: '__ZN53_$LT$syn..token..For$u20$as$u20$syn..parse..Parse$GT$5parse17h685510a59deff120E', symObjAddr: 0x2790, symBinAddr: 0xEB970, symSize: 0x60 }
  - { offsetInCU: 0x2E32, offset: 0x4BA36F, size: 0x8, addend: 0x0, symName: '__ZN53_$LT$syn..token..Impl$u20$as$u20$core..fmt..Debug$GT$3fmt17h77098e01f63d26f6E', symObjAddr: 0x2930, symBinAddr: 0xEB9F0, symSize: 0x20 }
  - { offsetInCU: 0x2E75, offset: 0x4BA3B2, size: 0x8, addend: 0x0, symName: '__ZN54_$LT$syn..token..Impl$u20$as$u20$syn..token..Token$GT$4peek17h2c90e0f4bad3b8a1E', symObjAddr: 0x2A30, symBinAddr: 0xEBA10, symSize: 0x20 }
  - { offsetInCU: 0x2ED8, offset: 0x4BA415, size: 0x8, addend: 0x0, symName: '__ZN52_$LT$syn..token..In$u20$as$u20$syn..parse..Parse$GT$5parse17h1c18d23d989fcf2fE', symObjAddr: 0x2AF0, symBinAddr: 0xEBA50, symSize: 0x60 }
  - { offsetInCU: 0x2F5F, offset: 0x4BA49C, size: 0x8, addend: 0x0, symName: '__ZN52_$LT$syn..token..Let$u20$as$u20$core..fmt..Debug$GT$3fmt17h100a513939918867E', symObjAddr: 0x2B70, symBinAddr: 0xEBAB0, symSize: 0x20 }
  - { offsetInCU: 0x2FA2, offset: 0x4BA4DF, size: 0x8, addend: 0x0, symName: '__ZN53_$LT$syn..token..Loop$u20$as$u20$core..fmt..Debug$GT$3fmt17h5272abd49502cfd0E', symObjAddr: 0x2C90, symBinAddr: 0xEBAD0, symSize: 0x20 }
  - { offsetInCU: 0x3012, offset: 0x4BA54F, size: 0x8, addend: 0x0, symName: '__ZN55_$LT$syn..token..Macro$u20$as$u20$syn..token..Token$GT$4peek17he0611b0349443e81E', symObjAddr: 0x2EB0, symBinAddr: 0xEBAF0, symSize: 0x20 }
  - { offsetInCU: 0x3048, offset: 0x4BA585, size: 0x8, addend: 0x0, symName: '__ZN54_$LT$syn..token..Match$u20$as$u20$core..fmt..Debug$GT$3fmt17h87f664083e267951E', symObjAddr: 0x2ED0, symBinAddr: 0xEBB10, symSize: 0x20 }
  - { offsetInCU: 0x30B8, offset: 0x4BA5F5, size: 0x8, addend: 0x0, symName: '__ZN52_$LT$syn..token..Mod$u20$as$u20$core..fmt..Debug$GT$3fmt17h049990bd0d73ee3cE', symObjAddr: 0x2FF0, symBinAddr: 0xEBB30, symSize: 0x20 }
  - { offsetInCU: 0x30FB, offset: 0x4BA638, size: 0x8, addend: 0x0, symName: '__ZN53_$LT$syn..token..Mod$u20$as$u20$syn..token..Token$GT$4peek17h74a4826dd47e3e6eE', symObjAddr: 0x30F0, symBinAddr: 0xEBB50, symSize: 0x20 }
  - { offsetInCU: 0x3131, offset: 0x4BA66E, size: 0x8, addend: 0x0, symName: '__ZN63_$LT$syn..token..Move$u20$as$u20$quote..to_tokens..ToTokens$GT$9to_tokens17hfc53a9310558a724E', symObjAddr: 0x3130, symBinAddr: 0xEBB70, symSize: 0x80 }
  - { offsetInCU: 0x3267, offset: 0x4BA7A4, size: 0x8, addend: 0x0, symName: '__ZN54_$LT$syn..token..Move$u20$as$u20$syn..token..Token$GT$4peek17h7d01db15b0371cceE', symObjAddr: 0x3210, symBinAddr: 0xEBBF0, symSize: 0x20 }
  - { offsetInCU: 0x329D, offset: 0x4BA7DA, size: 0x8, addend: 0x0, symName: '__ZN62_$LT$syn..token..Mut$u20$as$u20$quote..to_tokens..ToTokens$GT$9to_tokens17h65e7aec4e00a824aE', symObjAddr: 0x3250, symBinAddr: 0xEBC30, symSize: 0x80 }
  - { offsetInCU: 0x33D3, offset: 0x4BA910, size: 0x8, addend: 0x0, symName: '__ZN53_$LT$syn..token..Mut$u20$as$u20$syn..token..Token$GT$4peek17h98e42bddef3e0a22E', symObjAddr: 0x3330, symBinAddr: 0xEBCB0, symSize: 0x20 }
  - { offsetInCU: 0x3409, offset: 0x4BA946, size: 0x8, addend: 0x0, symName: '__ZN52_$LT$syn..token..Pub$u20$as$u20$core..fmt..Debug$GT$3fmt17hb17326217af1a7a5E', symObjAddr: 0x3590, symBinAddr: 0xEBCD0, symSize: 0x20 }
  - { offsetInCU: 0x347A, offset: 0x4BA9B7, size: 0x8, addend: 0x0, symName: '__ZN53_$LT$syn..token..Ref$u20$as$u20$syn..token..Token$GT$4peek17h3da8beae293f82f6E', symObjAddr: 0x37B0, symBinAddr: 0xEBCF0, symSize: 0x20 }
  - { offsetInCU: 0x34B0, offset: 0x4BA9ED, size: 0x8, addend: 0x0, symName: '__ZN55_$LT$syn..token..Return$u20$as$u20$core..fmt..Debug$GT$3fmt17h19400861091d7f7bE', symObjAddr: 0x37D0, symBinAddr: 0xEBD10, symSize: 0x20 }
  - { offsetInCU: 0x34F3, offset: 0x4BAA30, size: 0x8, addend: 0x0, symName: '__ZN58_$LT$syn..token..SelfType$u20$as$u20$syn..token..Token$GT$4peek17hc1ce6132e604b21cE', symObjAddr: 0x39F0, symBinAddr: 0xEBD30, symSize: 0x20 }
  - { offsetInCU: 0x3529, offset: 0x4BAA66, size: 0x8, addend: 0x0, symName: '__ZN58_$LT$syn..token..SelfValue$u20$as$u20$core..fmt..Debug$GT$3fmt17hca9b88e9e2bb1a6eE', symObjAddr: 0x3A10, symBinAddr: 0xEBD50, symSize: 0x20 }
  - { offsetInCU: 0x356C, offset: 0x4BAAA9, size: 0x8, addend: 0x0, symName: '__ZN59_$LT$syn..token..SelfValue$u20$as$u20$syn..token..Token$GT$4peek17hff0104bc0d4d51baE', symObjAddr: 0x3B10, symBinAddr: 0xEBD70, symSize: 0x20 }
  - { offsetInCU: 0x35A2, offset: 0x4BAADF, size: 0x8, addend: 0x0, symName: '__ZN56_$LT$syn..token..Static$u20$as$u20$syn..parse..Parse$GT$5parse17h4347f0d5ba2722bcE', symObjAddr: 0x3BD0, symBinAddr: 0xEBDB0, symSize: 0x60 }
  - { offsetInCU: 0x3629, offset: 0x4BAB66, size: 0x8, addend: 0x0, symName: '__ZN56_$LT$syn..token..Static$u20$as$u20$syn..token..Token$GT$4peek17h5ec219d5f1c91b93E', symObjAddr: 0x3C30, symBinAddr: 0xEBE10, symSize: 0x20 }
  - { offsetInCU: 0x365F, offset: 0x4BAB9C, size: 0x8, addend: 0x0, symName: '__ZN55_$LT$syn..token..Struct$u20$as$u20$core..fmt..Debug$GT$3fmt17ha83e5e259edb480cE', symObjAddr: 0x3C50, symBinAddr: 0xEBE30, symSize: 0x20 }
  - { offsetInCU: 0x36A2, offset: 0x4BABDF, size: 0x8, addend: 0x0, symName: '__ZN56_$LT$syn..token..Struct$u20$as$u20$syn..token..Token$GT$4peek17h5edcf684e7ec6370E', symObjAddr: 0x3D50, symBinAddr: 0xEBE50, symSize: 0x20 }
  - { offsetInCU: 0x36D8, offset: 0x4BAC15, size: 0x8, addend: 0x0, symName: '__ZN55_$LT$syn..token..Super$u20$as$u20$syn..token..Token$GT$4peek17ha609af2487b5bfa9E', symObjAddr: 0x3E70, symBinAddr: 0xEBE70, symSize: 0x20 }
  - { offsetInCU: 0x370E, offset: 0x4BAC4B, size: 0x8, addend: 0x0, symName: '__ZN54_$LT$syn..token..Trait$u20$as$u20$core..fmt..Debug$GT$3fmt17h1a85d3d7e7a7158dE', symObjAddr: 0x3E90, symBinAddr: 0xEBE90, symSize: 0x20 }
  - { offsetInCU: 0x3751, offset: 0x4BAC8E, size: 0x8, addend: 0x0, symName: '__ZN55_$LT$syn..token..Trait$u20$as$u20$syn..token..Token$GT$4peek17hcfd44ad9738ca41fE', symObjAddr: 0x3F90, symBinAddr: 0xEBEB0, symSize: 0x20 }
  - { offsetInCU: 0x3787, offset: 0x4BACC4, size: 0x8, addend: 0x0, symName: '__ZN52_$LT$syn..token..Try$u20$as$u20$core..fmt..Debug$GT$3fmt17h9a9815345bc30767E', symObjAddr: 0x3FB0, symBinAddr: 0xEBED0, symSize: 0x20 }
  - { offsetInCU: 0x37F7, offset: 0x4BAD34, size: 0x8, addend: 0x0, symName: '__ZN53_$LT$syn..token..Try$u20$as$u20$syn..token..Token$GT$4peek17h34e6cdd2fa15187cE', symObjAddr: 0x40B0, symBinAddr: 0xEBEF0, symSize: 0x20 }
  - { offsetInCU: 0x382D, offset: 0x4BAD6A, size: 0x8, addend: 0x0, symName: '__ZN53_$LT$syn..token..Type$u20$as$u20$core..fmt..Debug$GT$3fmt17hf9797e0202805ff8E', symObjAddr: 0x40D0, symBinAddr: 0xEBF10, symSize: 0x20 }
  - { offsetInCU: 0x3870, offset: 0x4BADAD, size: 0x8, addend: 0x0, symName: '__ZN54_$LT$syn..token..Type$u20$as$u20$syn..token..Token$GT$4peek17hca9c5e9bd0dd640dE', symObjAddr: 0x41D0, symBinAddr: 0xEBF30, symSize: 0x20 }
  - { offsetInCU: 0x38A6, offset: 0x4BADE3, size: 0x8, addend: 0x0, symName: '__ZN54_$LT$syn..token..Union$u20$as$u20$core..fmt..Debug$GT$3fmt17h47d9456a4ab4549dE', symObjAddr: 0x4310, symBinAddr: 0xEBF50, symSize: 0x20 }
  - { offsetInCU: 0x38E9, offset: 0x4BAE26, size: 0x8, addend: 0x0, symName: '__ZN55_$LT$syn..token..Union$u20$as$u20$syn..token..Token$GT$4peek17hfe4da05fa09964ffE', symObjAddr: 0x4410, symBinAddr: 0xEBF70, symSize: 0x20 }
  - { offsetInCU: 0x394C, offset: 0x4BAE89, size: 0x8, addend: 0x0, symName: '__ZN56_$LT$syn..token..Unsafe$u20$as$u20$syn..parse..Parse$GT$5parse17h9c545ae7480a661bE', symObjAddr: 0x44D0, symBinAddr: 0xEBFB0, symSize: 0x60 }
  - { offsetInCU: 0x39D3, offset: 0x4BAF10, size: 0x8, addend: 0x0, symName: '__ZN56_$LT$syn..token..Unsafe$u20$as$u20$syn..token..Token$GT$4peek17h8fab9a2efb3ee4c7E', symObjAddr: 0x4530, symBinAddr: 0xEC010, symSize: 0x20 }
  - { offsetInCU: 0x3A09, offset: 0x4BAF46, size: 0x8, addend: 0x0, symName: '__ZN52_$LT$syn..token..Use$u20$as$u20$core..fmt..Debug$GT$3fmt17hed806273691d5fe4E', symObjAddr: 0x4670, symBinAddr: 0xEC030, symSize: 0x20 }
  - { offsetInCU: 0x3A4C, offset: 0x4BAF89, size: 0x8, addend: 0x0, symName: '__ZN53_$LT$syn..token..Use$u20$as$u20$syn..token..Token$GT$4peek17h370b8b005f72ed4aE', symObjAddr: 0x4770, symBinAddr: 0xEC050, symSize: 0x20 }
  - { offsetInCU: 0x3A82, offset: 0x4BAFBF, size: 0x8, addend: 0x0, symName: '__ZN54_$LT$syn..token..Where$u20$as$u20$core..fmt..Debug$GT$3fmt17hdb600231f5380a94E', symObjAddr: 0x48B0, symBinAddr: 0xEC070, symSize: 0x20 }
  - { offsetInCU: 0x3AC5, offset: 0x4BB002, size: 0x8, addend: 0x0, symName: '__ZN54_$LT$syn..token..While$u20$as$u20$core..fmt..Debug$GT$3fmt17hac59473dd75f8e4aE', symObjAddr: 0x49D0, symBinAddr: 0xEC090, symSize: 0x20 }
  - { offsetInCU: 0x3B35, offset: 0x4BB072, size: 0x8, addend: 0x0, symName: '__ZN54_$LT$syn..token..Yield$u20$as$u20$core..fmt..Debug$GT$3fmt17h14128b898c55719fE', symObjAddr: 0x4AF0, symBinAddr: 0xEC0B0, symSize: 0x20 }
  - { offsetInCU: 0x3BA5, offset: 0x4BB0E2, size: 0x8, addend: 0x0, symName: '__ZN53_$LT$syn..token..And$u20$as$u20$syn..token..Token$GT$4peek17h4ed3a008d858f163E', symObjAddr: 0x4C90, symBinAddr: 0xEC0D0, symSize: 0x20 }
  - { offsetInCU: 0x3C08, offset: 0x4BB145, size: 0x8, addend: 0x0, symName: '__ZN55_$LT$syn..token..Colon$u20$as$u20$syn..parse..Parse$GT$5parse17h3063cb3e3ebc34a9E', symObjAddr: 0x5000, symBinAddr: 0xEC0F0, symSize: 0x50 }
  - { offsetInCU: 0x3C6A, offset: 0x4BB1A7, size: 0x8, addend: 0x0, symName: '__ZN55_$LT$syn..token..Colon$u20$as$u20$syn..token..Token$GT$4peek17he80a5de17f24d5edE', symObjAddr: 0x5050, symBinAddr: 0xEC140, symSize: 0x20 }
  - { offsetInCU: 0x3CA0, offset: 0x4BB1DD, size: 0x8, addend: 0x0, symName: '__ZN55_$LT$syn..token..Comma$u20$as$u20$syn..parse..Parse$GT$5parse17hb823018bf88ed6f3E', symObjAddr: 0x50A0, symBinAddr: 0xEC160, symSize: 0x50 }
  - { offsetInCU: 0x3D02, offset: 0x4BB23F, size: 0x8, addend: 0x0, symName: '__ZN55_$LT$syn..token..Comma$u20$as$u20$syn..token..Token$GT$4peek17h26e1aacea26147a4E', symObjAddr: 0x50F0, symBinAddr: 0xEC1B0, symSize: 0x20 }
  - { offsetInCU: 0x3D65, offset: 0x4BB2A2, size: 0x8, addend: 0x0, symName: '__ZN53_$LT$syn..token..Dot$u20$as$u20$syn..token..Token$GT$4peek17h3281d72a1d61740fE', symObjAddr: 0x5230, symBinAddr: 0xEC1D0, symSize: 0x20 }
  - { offsetInCU: 0x3DC8, offset: 0x4BB305, size: 0x8, addend: 0x0, symName: '__ZN56_$LT$syn..token..DotDot$u20$as$u20$syn..token..Token$GT$4peek17ha63e1c7cbaa5f07fE', symObjAddr: 0x52D0, symBinAddr: 0xEC1F0, symSize: 0x20 }
  - { offsetInCU: 0x3DFE, offset: 0x4BB33B, size: 0x8, addend: 0x0, symName: '__ZN59_$LT$syn..token..DotDotDot$u20$as$u20$syn..token..Token$GT$4peek17hecd050b6405d9aa0E', symObjAddr: 0x5390, symBinAddr: 0xEC210, symSize: 0x20 }
  - { offsetInCU: 0x3E34, offset: 0x4BB371, size: 0x8, addend: 0x0, symName: '__ZN58_$LT$syn..token..DotDotEq$u20$as$u20$syn..token..Token$GT$4peek17h9d3b070298fd3201E', symObjAddr: 0x5450, symBinAddr: 0xEC230, symSize: 0x20 }
  - { offsetInCU: 0x3E97, offset: 0x4BB3D4, size: 0x8, addend: 0x0, symName: '__ZN52_$LT$syn..token..Eq$u20$as$u20$syn..parse..Parse$GT$5parse17h48510f330b26a2a8E', symObjAddr: 0x54A0, symBinAddr: 0xEC250, symSize: 0x50 }
  - { offsetInCU: 0x3EF9, offset: 0x4BB436, size: 0x8, addend: 0x0, symName: '__ZN52_$LT$syn..token..Eq$u20$as$u20$syn..token..Token$GT$4peek17ha038331794dca79cE', symObjAddr: 0x54F0, symBinAddr: 0xEC2A0, symSize: 0x20 }
  - { offsetInCU: 0x3F2F, offset: 0x4BB46C, size: 0x8, addend: 0x0, symName: '__ZN52_$LT$syn..token..Gt$u20$as$u20$syn..parse..Parse$GT$5parse17h685c1b33fdd3602dE', symObjAddr: 0x5720, symBinAddr: 0xEC2C0, symSize: 0x50 }
  - { offsetInCU: 0x3F91, offset: 0x4BB4CE, size: 0x8, addend: 0x0, symName: '__ZN52_$LT$syn..token..Gt$u20$as$u20$syn..token..Token$GT$4peek17h28c72eb0c24e86bbE', symObjAddr: 0x5770, symBinAddr: 0xEC310, symSize: 0x20 }
  - { offsetInCU: 0x3FC7, offset: 0x4BB504, size: 0x8, addend: 0x0, symName: '__ZN52_$LT$syn..token..Lt$u20$as$u20$syn..token..Token$GT$4peek17hb09f0ef836a6a928E', symObjAddr: 0x5950, symBinAddr: 0xEC330, symSize: 0x20 }
  - { offsetInCU: 0x402A, offset: 0x4BB567, size: 0x8, addend: 0x0, symName: '__ZN53_$LT$syn..token..Not$u20$as$u20$syn..parse..Parse$GT$5parse17h0e126244166e20f8E', symObjAddr: 0x5B80, symBinAddr: 0xEC350, symSize: 0x50 }
  - { offsetInCU: 0x408C, offset: 0x4BB5C9, size: 0x8, addend: 0x0, symName: '__ZN53_$LT$syn..token..Not$u20$as$u20$syn..token..Token$GT$4peek17h20b2571300a10670E', symObjAddr: 0x5BD0, symBinAddr: 0xEC3A0, symSize: 0x20 }
  - { offsetInCU: 0x40C2, offset: 0x4BB5FF, size: 0x8, addend: 0x0, symName: '__ZN52_$LT$syn..token..Or$u20$as$u20$syn..token..Token$GT$4peek17haf7e709e752de2d5E', symObjAddr: 0x5C70, symBinAddr: 0xEC3C0, symSize: 0x20 }
  - { offsetInCU: 0x40F8, offset: 0x4BB635, size: 0x8, addend: 0x0, symName: '__ZN57_$LT$syn..token..PathSep$u20$as$u20$syn..token..Token$GT$4peek17h734c6a0408fb2004E', symObjAddr: 0x5E50, symBinAddr: 0xEC3E0, symSize: 0x20 }
  - { offsetInCU: 0x412E, offset: 0x4BB66B, size: 0x8, addend: 0x0, symName: '__ZN54_$LT$syn..token..Plus$u20$as$u20$syn..parse..Parse$GT$5parse17h6443c7d34616ae6cE', symObjAddr: 0x5FE0, symBinAddr: 0xEC400, symSize: 0x50 }
  - { offsetInCU: 0x41BD, offset: 0x4BB6FA, size: 0x8, addend: 0x0, symName: '__ZN55_$LT$syn..token..Pound$u20$as$u20$syn..token..Token$GT$4peek17h12eda5e1e3c78599E', symObjAddr: 0x6170, symBinAddr: 0xEC450, symSize: 0x20 }
  - { offsetInCU: 0x4220, offset: 0x4BB75D, size: 0x8, addend: 0x0, symName: '__ZN58_$LT$syn..token..Question$u20$as$u20$syn..token..Token$GT$4peek17hb56a1f23ffedbbd1E', symObjAddr: 0x6210, symBinAddr: 0xEC470, symSize: 0x20 }
  - { offsetInCU: 0x4283, offset: 0x4BB7C0, size: 0x8, addend: 0x0, symName: '__ZN54_$LT$syn..token..Semi$u20$as$u20$syn..parse..Parse$GT$5parse17h922f96200e79aea7E', symObjAddr: 0x6300, symBinAddr: 0xEC490, symSize: 0x50 }
  - { offsetInCU: 0x42E5, offset: 0x4BB822, size: 0x8, addend: 0x0, symName: '__ZN54_$LT$syn..token..Semi$u20$as$u20$syn..token..Token$GT$4peek17h50c830ee30ef3530E', symObjAddr: 0x6350, symBinAddr: 0xEC4E0, symSize: 0x20 }
  - { offsetInCU: 0x431B, offset: 0x4BB858, size: 0x8, addend: 0x0, symName: '__ZN55_$LT$syn..token..ShlEq$u20$as$u20$syn..parse..Parse$GT$5parse17hffdec08a82c79705E', symObjAddr: 0x6440, symBinAddr: 0xEC500, symSize: 0x70 }
  - { offsetInCU: 0x43D0, offset: 0x4BB90D, size: 0x8, addend: 0x0, symName: '__ZN55_$LT$syn..token..ShrEq$u20$as$u20$syn..parse..Parse$GT$5parse17hd4adaf197d5b2e87E', symObjAddr: 0x65A0, symBinAddr: 0xEC570, symSize: 0x70 }
  - { offsetInCU: 0x4485, offset: 0x4BB9C2, size: 0x8, addend: 0x0, symName: '__ZN54_$LT$syn..token..Star$u20$as$u20$syn..token..Token$GT$4peek17h14add24fe44afe84E', symObjAddr: 0x67F0, symBinAddr: 0xEC5E0, symSize: 0x20 }
  - { offsetInCU: 0x44BB, offset: 0x4BB9F8, size: 0x8, addend: 0x0, symName: '__ZN55_$LT$syn..token..AndAnd$u20$as$u20$core..fmt..Debug$GT$3fmt17h517ec44e4f31b9bcE', symObjAddr: 0x6970, symBinAddr: 0xEC620, symSize: 0x20 }
  - { offsetInCU: 0x4501, offset: 0x4BBA3E, size: 0x8, addend: 0x0, symName: '__ZN54_$LT$syn..token..AndEq$u20$as$u20$core..fmt..Debug$GT$3fmt17he04430dff59383ccE', symObjAddr: 0x6990, symBinAddr: 0xEC640, symSize: 0x20 }
  - { offsetInCU: 0x4547, offset: 0x4BBA84, size: 0x8, addend: 0x0, symName: '__ZN54_$LT$syn..token..Caret$u20$as$u20$core..fmt..Debug$GT$3fmt17h6bdb5c08a00b02d8E', symObjAddr: 0x69D0, symBinAddr: 0xEC660, symSize: 0x20 }
  - { offsetInCU: 0x458D, offset: 0x4BBACA, size: 0x8, addend: 0x0, symName: '__ZN56_$LT$syn..token..CaretEq$u20$as$u20$core..fmt..Debug$GT$3fmt17h4d788f01802d1ee8E', symObjAddr: 0x69F0, symBinAddr: 0xEC680, symSize: 0x20 }
  - { offsetInCU: 0x45D3, offset: 0x4BBB10, size: 0x8, addend: 0x0, symName: '__ZN52_$LT$syn..token..Dot$u20$as$u20$core..fmt..Debug$GT$3fmt17h84fdb5aa24915636E', symObjAddr: 0x6A70, symBinAddr: 0xEC6E0, symSize: 0x20 }
  - { offsetInCU: 0x4619, offset: 0x4BBB56, size: 0x8, addend: 0x0, symName: '__ZN58_$LT$syn..token..DotDotDot$u20$as$u20$core..fmt..Debug$GT$3fmt17h30c8614296e42033E', symObjAddr: 0x6AB0, symBinAddr: 0xEC720, symSize: 0x20 }
  - { offsetInCU: 0x465F, offset: 0x4BBB9C, size: 0x8, addend: 0x0, symName: '__ZN57_$LT$syn..token..DotDotEq$u20$as$u20$core..fmt..Debug$GT$3fmt17he092ad5d4f185beaE', symObjAddr: 0x6AD0, symBinAddr: 0xEC740, symSize: 0x20 }
  - { offsetInCU: 0x46A5, offset: 0x4BBBE2, size: 0x8, addend: 0x0, symName: '__ZN53_$LT$syn..token..EqEq$u20$as$u20$core..fmt..Debug$GT$3fmt17h3e77d6a595b8b587E', symObjAddr: 0x6B10, symBinAddr: 0xEC780, symSize: 0x20 }
  - { offsetInCU: 0x46EB, offset: 0x4BBC28, size: 0x8, addend: 0x0, symName: '__ZN57_$LT$syn..token..FatArrow$u20$as$u20$core..fmt..Debug$GT$3fmt17h646e36699e49fac9E', symObjAddr: 0x6B30, symBinAddr: 0xEC7A0, symSize: 0x20 }
  - { offsetInCU: 0x4731, offset: 0x4BBC6E, size: 0x8, addend: 0x0, symName: '__ZN51_$LT$syn..token..Ge$u20$as$u20$core..fmt..Debug$GT$3fmt17h0c76ca5da106983cE', symObjAddr: 0x6B70, symBinAddr: 0xEC7C0, symSize: 0x20 }
  - { offsetInCU: 0x4777, offset: 0x4BBCB4, size: 0x8, addend: 0x0, symName: '__ZN51_$LT$syn..token..Le$u20$as$u20$core..fmt..Debug$GT$3fmt17h292dc4247c10c9fcE', symObjAddr: 0x6BD0, symBinAddr: 0xEC800, symSize: 0x20 }
  - { offsetInCU: 0x47BD, offset: 0x4BBCFA, size: 0x8, addend: 0x0, symName: '__ZN54_$LT$syn..token..Minus$u20$as$u20$core..fmt..Debug$GT$3fmt17h8651606a7aeeb482E', symObjAddr: 0x6C10, symBinAddr: 0xEC840, symSize: 0x20 }
  - { offsetInCU: 0x4803, offset: 0x4BBD40, size: 0x8, addend: 0x0, symName: '__ZN56_$LT$syn..token..MinusEq$u20$as$u20$core..fmt..Debug$GT$3fmt17h3b091f2f7b8e3625E', symObjAddr: 0x6C30, symBinAddr: 0xEC860, symSize: 0x20 }
  - { offsetInCU: 0x4849, offset: 0x4BBD86, size: 0x8, addend: 0x0, symName: '__ZN51_$LT$syn..token..Ne$u20$as$u20$core..fmt..Debug$GT$3fmt17h28897cfe03dc285fE', symObjAddr: 0x6C50, symBinAddr: 0xEC880, symSize: 0x20 }
  - { offsetInCU: 0x488F, offset: 0x4BBDCC, size: 0x8, addend: 0x0, symName: '__ZN53_$LT$syn..token..OrEq$u20$as$u20$core..fmt..Debug$GT$3fmt17h8e995faa3c2e6bceE', symObjAddr: 0x6CB0, symBinAddr: 0xEC8E0, symSize: 0x20 }
  - { offsetInCU: 0x48D5, offset: 0x4BBE12, size: 0x8, addend: 0x0, symName: '__ZN53_$LT$syn..token..OrOr$u20$as$u20$core..fmt..Debug$GT$3fmt17h6f5c0ef62c3c4d13E', symObjAddr: 0x6CD0, symBinAddr: 0xEC900, symSize: 0x20 }
  - { offsetInCU: 0x491B, offset: 0x4BBE58, size: 0x8, addend: 0x0, symName: '__ZN56_$LT$syn..token..Percent$u20$as$u20$core..fmt..Debug$GT$3fmt17hc742b1a8ef9fd8f5E', symObjAddr: 0x6D10, symBinAddr: 0xEC940, symSize: 0x20 }
  - { offsetInCU: 0x4961, offset: 0x4BBE9E, size: 0x8, addend: 0x0, symName: '__ZN58_$LT$syn..token..PercentEq$u20$as$u20$core..fmt..Debug$GT$3fmt17h9be507f2dedb1fc8E', symObjAddr: 0x6D30, symBinAddr: 0xEC960, symSize: 0x20 }
  - { offsetInCU: 0x49A7, offset: 0x4BBEE4, size: 0x8, addend: 0x0, symName: '__ZN53_$LT$syn..token..Plus$u20$as$u20$core..fmt..Debug$GT$3fmt17hc24ba078138903daE', symObjAddr: 0x6D50, symBinAddr: 0xEC980, symSize: 0x20 }
  - { offsetInCU: 0x49ED, offset: 0x4BBF2A, size: 0x8, addend: 0x0, symName: '__ZN55_$LT$syn..token..PlusEq$u20$as$u20$core..fmt..Debug$GT$3fmt17h446d34207bcf9a09E', symObjAddr: 0x6D70, symBinAddr: 0xEC9A0, symSize: 0x20 }
  - { offsetInCU: 0x4A33, offset: 0x4BBF70, size: 0x8, addend: 0x0, symName: '__ZN54_$LT$syn..token..Pound$u20$as$u20$core..fmt..Debug$GT$3fmt17hc90c63166b6fc15eE', symObjAddr: 0x6D90, symBinAddr: 0xEC9C0, symSize: 0x20 }
  - { offsetInCU: 0x4A79, offset: 0x4BBFB6, size: 0x8, addend: 0x0, symName: '__ZN57_$LT$syn..token..Question$u20$as$u20$core..fmt..Debug$GT$3fmt17h073549ffde372513E', symObjAddr: 0x6DB0, symBinAddr: 0xEC9E0, symSize: 0x20 }
  - { offsetInCU: 0x4ABF, offset: 0x4BBFFC, size: 0x8, addend: 0x0, symName: '__ZN55_$LT$syn..token..RArrow$u20$as$u20$core..fmt..Debug$GT$3fmt17h453f931e713d1455E', symObjAddr: 0x6DD0, symBinAddr: 0xECA00, symSize: 0x20 }
  - { offsetInCU: 0x4B05, offset: 0x4BC042, size: 0x8, addend: 0x0, symName: '__ZN52_$LT$syn..token..Shl$u20$as$u20$core..fmt..Debug$GT$3fmt17h3220572d1cd06295E', symObjAddr: 0x6E10, symBinAddr: 0xECA40, symSize: 0x20 }
  - { offsetInCU: 0x4B4B, offset: 0x4BC088, size: 0x8, addend: 0x0, symName: '__ZN54_$LT$syn..token..ShlEq$u20$as$u20$core..fmt..Debug$GT$3fmt17he033e24998dc3014E', symObjAddr: 0x6E50, symBinAddr: 0xECA60, symSize: 0x20 }
  - { offsetInCU: 0x4B91, offset: 0x4BC0CE, size: 0x8, addend: 0x0, symName: '__ZN52_$LT$syn..token..Shr$u20$as$u20$core..fmt..Debug$GT$3fmt17h6d7dfabf5240c3fbE', symObjAddr: 0x6E70, symBinAddr: 0xECA80, symSize: 0x20 }
  - { offsetInCU: 0x4BD7, offset: 0x4BC114, size: 0x8, addend: 0x0, symName: '__ZN54_$LT$syn..token..ShrEq$u20$as$u20$core..fmt..Debug$GT$3fmt17h8d404d46926446f7E', symObjAddr: 0x6E90, symBinAddr: 0xECAA0, symSize: 0x20 }
  - { offsetInCU: 0x4C1D, offset: 0x4BC15A, size: 0x8, addend: 0x0, symName: '__ZN54_$LT$syn..token..Slash$u20$as$u20$core..fmt..Debug$GT$3fmt17h13668b027cf75558E', symObjAddr: 0x6EB0, symBinAddr: 0xECAC0, symSize: 0x20 }
  - { offsetInCU: 0x4C63, offset: 0x4BC1A0, size: 0x8, addend: 0x0, symName: '__ZN56_$LT$syn..token..SlashEq$u20$as$u20$core..fmt..Debug$GT$3fmt17h4f6a0e198357947eE', symObjAddr: 0x6ED0, symBinAddr: 0xECAE0, symSize: 0x20 }
  - { offsetInCU: 0x4CA9, offset: 0x4BC1E6, size: 0x8, addend: 0x0, symName: '__ZN53_$LT$syn..token..Star$u20$as$u20$core..fmt..Debug$GT$3fmt17h9e02b3a58cbeb9b3E', symObjAddr: 0x6EF0, symBinAddr: 0xECB00, symSize: 0x20 }
  - { offsetInCU: 0x4CEF, offset: 0x4BC22C, size: 0x8, addend: 0x0, symName: '__ZN55_$LT$syn..token..StarEq$u20$as$u20$core..fmt..Debug$GT$3fmt17h8f91135bb6bc23feE', symObjAddr: 0x6F10, symBinAddr: 0xECB20, symSize: 0x20 }
  - { offsetInCU: 0x4DCF, offset: 0x4BC30C, size: 0x8, addend: 0x0, symName: '__ZN56_$LT$syn..token..Bracket$u20$as$u20$core..fmt..Debug$GT$3fmt17hbe5dd06eb333ca14E', symObjAddr: 0xA300, symBinAddr: 0xEFA00, symSize: 0x20 }
  - { offsetInCU: 0xC17E, offset: 0x4C36BB, size: 0x8, addend: 0x0, symName: '__ZN4core3ptr45drop_in_place$LT$proc_macro2..TokenStream$GT$17h76e8e68015f4924dE.llvm.2200051395882591536', symObjAddr: 0x720, symBinAddr: 0xEAE20, symSize: 0x140 }
  - { offsetInCU: 0xC5DA, offset: 0x4C3B17, size: 0x8, addend: 0x0, symName: '__ZN4core3ptr65drop_in_place$LT$alloc..vec..Vec$LT$proc_macro..TokenTree$GT$$GT$17h8abd81f8596dbc59E.llvm.2200051395882591536', symObjAddr: 0x860, symBinAddr: 0xEAF60, symSize: 0x110 }
  - { offsetInCU: 0xEA04, offset: 0x4C5F41, size: 0x8, addend: 0x0, symName: '__ZN42_$LT$$RF$T$u20$as$u20$core..fmt..Debug$GT$3fmt17h065a38d2d7c650a8E', symObjAddr: 0x0, symBinAddr: 0xEA700, symSize: 0x20 }
  - { offsetInCU: 0xEA6B, offset: 0x4C5FA8, size: 0x8, addend: 0x0, symName: '__ZN42_$LT$$RF$T$u20$as$u20$core..fmt..Debug$GT$3fmt17h0a9479851cbc0ba3E', symObjAddr: 0x20, symBinAddr: 0xEA720, symSize: 0x20 }
  - { offsetInCU: 0xEAD2, offset: 0x4C600F, size: 0x8, addend: 0x0, symName: '__ZN42_$LT$$RF$T$u20$as$u20$core..fmt..Debug$GT$3fmt17h0e5fa80adbafe8e8E', symObjAddr: 0x40, symBinAddr: 0xEA740, symSize: 0x20 }
  - { offsetInCU: 0xEB35, offset: 0x4C6072, size: 0x8, addend: 0x0, symName: '__ZN42_$LT$$RF$T$u20$as$u20$core..fmt..Debug$GT$3fmt17h1015a198ba069656E', symObjAddr: 0x60, symBinAddr: 0xEA760, symSize: 0x70 }
  - { offsetInCU: 0xEBD9, offset: 0x4C6116, size: 0x8, addend: 0x0, symName: '__ZN42_$LT$$RF$T$u20$as$u20$core..fmt..Debug$GT$3fmt17h10ad8936572c7ba7E', symObjAddr: 0xD0, symBinAddr: 0xEA7D0, symSize: 0x20 }
  - { offsetInCU: 0xEC40, offset: 0x4C617D, size: 0x8, addend: 0x0, symName: '__ZN42_$LT$$RF$T$u20$as$u20$core..fmt..Debug$GT$3fmt17h153a3d87ed21d4a8E', symObjAddr: 0xF0, symBinAddr: 0xEA7F0, symSize: 0x20 }
  - { offsetInCU: 0xECA7, offset: 0x4C61E4, size: 0x8, addend: 0x0, symName: '__ZN42_$LT$$RF$T$u20$as$u20$core..fmt..Debug$GT$3fmt17h1d7f9559b5b0cdedE', symObjAddr: 0x110, symBinAddr: 0xEA810, symSize: 0x70 }
  - { offsetInCU: 0xED4B, offset: 0x4C6288, size: 0x8, addend: 0x0, symName: '__ZN42_$LT$$RF$T$u20$as$u20$core..fmt..Debug$GT$3fmt17h29af75233da5b776E', symObjAddr: 0x180, symBinAddr: 0xEA880, symSize: 0x20 }
  - { offsetInCU: 0xEDB2, offset: 0x4C62EF, size: 0x8, addend: 0x0, symName: '__ZN42_$LT$$RF$T$u20$as$u20$core..fmt..Debug$GT$3fmt17h2b9735dd17ba52ffE', symObjAddr: 0x1A0, symBinAddr: 0xEA8A0, symSize: 0x20 }
  - { offsetInCU: 0xEE15, offset: 0x4C6352, size: 0x8, addend: 0x0, symName: '__ZN42_$LT$$RF$T$u20$as$u20$core..fmt..Debug$GT$3fmt17h2f6f73b3b57e8362E', symObjAddr: 0x1C0, symBinAddr: 0xEA8C0, symSize: 0x20 }
  - { offsetInCU: 0xEE7C, offset: 0x4C63B9, size: 0x8, addend: 0x0, symName: '__ZN42_$LT$$RF$T$u20$as$u20$core..fmt..Debug$GT$3fmt17h3502b2b783ea1da2E', symObjAddr: 0x1E0, symBinAddr: 0xEA8E0, symSize: 0x20 }
  - { offsetInCU: 0xEEDF, offset: 0x4C641C, size: 0x8, addend: 0x0, symName: '__ZN42_$LT$$RF$T$u20$as$u20$core..fmt..Debug$GT$3fmt17h41361609eb2a6425E', symObjAddr: 0x200, symBinAddr: 0xEA900, symSize: 0x20 }
  - { offsetInCU: 0xEF46, offset: 0x4C6483, size: 0x8, addend: 0x0, symName: '__ZN42_$LT$$RF$T$u20$as$u20$core..fmt..Debug$GT$3fmt17h4b2e4c49a74d9d33E', symObjAddr: 0x220, symBinAddr: 0xEA920, symSize: 0x20 }
  - { offsetInCU: 0xEFAD, offset: 0x4C64EA, size: 0x8, addend: 0x0, symName: '__ZN42_$LT$$RF$T$u20$as$u20$core..fmt..Debug$GT$3fmt17h54859b4f1ad40b9eE', symObjAddr: 0x240, symBinAddr: 0xEA940, symSize: 0x20 }
  - { offsetInCU: 0xF014, offset: 0x4C6551, size: 0x8, addend: 0x0, symName: '__ZN42_$LT$$RF$T$u20$as$u20$core..fmt..Debug$GT$3fmt17h5cfc10f0ce6a158bE', symObjAddr: 0x260, symBinAddr: 0xEA960, symSize: 0x20 }
  - { offsetInCU: 0xF07B, offset: 0x4C65B8, size: 0x8, addend: 0x0, symName: '__ZN42_$LT$$RF$T$u20$as$u20$core..fmt..Debug$GT$3fmt17h5d5fa8ff2c6a0cfcE', symObjAddr: 0x280, symBinAddr: 0xEA980, symSize: 0x20 }
  - { offsetInCU: 0xF0DE, offset: 0x4C661B, size: 0x8, addend: 0x0, symName: '__ZN42_$LT$$RF$T$u20$as$u20$core..fmt..Debug$GT$3fmt17h63f30622f67887b5E', symObjAddr: 0x2A0, symBinAddr: 0xEA9A0, symSize: 0x20 }
  - { offsetInCU: 0xF145, offset: 0x4C6682, size: 0x8, addend: 0x0, symName: '__ZN42_$LT$$RF$T$u20$as$u20$core..fmt..Debug$GT$3fmt17h6584a1393cc72654E', symObjAddr: 0x2C0, symBinAddr: 0xEA9C0, symSize: 0x20 }
  - { offsetInCU: 0xF1AC, offset: 0x4C66E9, size: 0x8, addend: 0x0, symName: '__ZN42_$LT$$RF$T$u20$as$u20$core..fmt..Debug$GT$3fmt17h65da8c3ae0ba1b95E', symObjAddr: 0x2E0, symBinAddr: 0xEA9E0, symSize: 0x20 }
  - { offsetInCU: 0xF213, offset: 0x4C6750, size: 0x8, addend: 0x0, symName: '__ZN42_$LT$$RF$T$u20$as$u20$core..fmt..Debug$GT$3fmt17h74ea5419b5ec0b64E', symObjAddr: 0x300, symBinAddr: 0xEAA00, symSize: 0x20 }
  - { offsetInCU: 0xF276, offset: 0x4C67B3, size: 0x8, addend: 0x0, symName: '__ZN42_$LT$$RF$T$u20$as$u20$core..fmt..Debug$GT$3fmt17h855c982447a22cd6E', symObjAddr: 0x320, symBinAddr: 0xEAA20, symSize: 0x70 }
  - { offsetInCU: 0xF31A, offset: 0x4C6857, size: 0x8, addend: 0x0, symName: '__ZN42_$LT$$RF$T$u20$as$u20$core..fmt..Debug$GT$3fmt17h8f9d47f8e8f850daE', symObjAddr: 0x390, symBinAddr: 0xEAA90, symSize: 0x20 }
  - { offsetInCU: 0xF381, offset: 0x4C68BE, size: 0x8, addend: 0x0, symName: '__ZN42_$LT$$RF$T$u20$as$u20$core..fmt..Debug$GT$3fmt17h9bd5c3a4e97f7d77E', symObjAddr: 0x3B0, symBinAddr: 0xEAAB0, symSize: 0x20 }
  - { offsetInCU: 0xF3E8, offset: 0x4C6925, size: 0x8, addend: 0x0, symName: '__ZN42_$LT$$RF$T$u20$as$u20$core..fmt..Debug$GT$3fmt17ha8438b721a59e33cE', symObjAddr: 0x3D0, symBinAddr: 0xEAAD0, symSize: 0x20 }
  - { offsetInCU: 0xF44F, offset: 0x4C698C, size: 0x8, addend: 0x0, symName: '__ZN42_$LT$$RF$T$u20$as$u20$core..fmt..Debug$GT$3fmt17ha95203994b1c7c94E', symObjAddr: 0x3F0, symBinAddr: 0xEAAF0, symSize: 0x70 }
  - { offsetInCU: 0xF4F3, offset: 0x4C6A30, size: 0x8, addend: 0x0, symName: '__ZN42_$LT$$RF$T$u20$as$u20$core..fmt..Debug$GT$3fmt17haf2fc05885fa0122E', symObjAddr: 0x460, symBinAddr: 0xEAB60, symSize: 0x20 }
  - { offsetInCU: 0xF556, offset: 0x4C6A93, size: 0x8, addend: 0x0, symName: '__ZN42_$LT$$RF$T$u20$as$u20$core..fmt..Debug$GT$3fmt17hbe4e39c10842df62E', symObjAddr: 0x480, symBinAddr: 0xEAB80, symSize: 0x20 }
  - { offsetInCU: 0xF5BD, offset: 0x4C6AFA, size: 0x8, addend: 0x0, symName: '__ZN42_$LT$$RF$T$u20$as$u20$core..fmt..Debug$GT$3fmt17hc1afa149f6c27c2cE', symObjAddr: 0x4A0, symBinAddr: 0xEABA0, symSize: 0x20 }
  - { offsetInCU: 0xF624, offset: 0x4C6B61, size: 0x8, addend: 0x0, symName: '__ZN42_$LT$$RF$T$u20$as$u20$core..fmt..Debug$GT$3fmt17hdbed7ff7592dee7dE', symObjAddr: 0x4C0, symBinAddr: 0xEABC0, symSize: 0x70 }
  - { offsetInCU: 0xF6C8, offset: 0x4C6C05, size: 0x8, addend: 0x0, symName: '__ZN42_$LT$$RF$T$u20$as$u20$core..fmt..Debug$GT$3fmt17he278a521f04baf42E', symObjAddr: 0x530, symBinAddr: 0xEAC30, symSize: 0x70 }
  - { offsetInCU: 0xF76C, offset: 0x4C6CA9, size: 0x8, addend: 0x0, symName: '__ZN42_$LT$$RF$T$u20$as$u20$core..fmt..Debug$GT$3fmt17he3805f99b6037b55E', symObjAddr: 0x5A0, symBinAddr: 0xEACA0, symSize: 0x20 }
  - { offsetInCU: 0xF7D3, offset: 0x4C6D10, size: 0x8, addend: 0x0, symName: '__ZN42_$LT$$RF$T$u20$as$u20$core..fmt..Debug$GT$3fmt17he43b68b7b0b90a56E', symObjAddr: 0x5C0, symBinAddr: 0xEACC0, symSize: 0x70 }
  - { offsetInCU: 0xF877, offset: 0x4C6DB4, size: 0x8, addend: 0x0, symName: '__ZN42_$LT$$RF$T$u20$as$u20$core..fmt..Debug$GT$3fmt17he64bc245e5912552E', symObjAddr: 0x630, symBinAddr: 0xEAD30, symSize: 0x20 }
  - { offsetInCU: 0xF8DE, offset: 0x4C6E1B, size: 0x8, addend: 0x0, symName: '__ZN42_$LT$$RF$T$u20$as$u20$core..fmt..Debug$GT$3fmt17hf0339c5718582797E', symObjAddr: 0x650, symBinAddr: 0xEAD50, symSize: 0x20 }
  - { offsetInCU: 0xF945, offset: 0x4C6E82, size: 0x8, addend: 0x0, symName: '__ZN42_$LT$$RF$T$u20$as$u20$core..fmt..Debug$GT$3fmt17hf8197a523326b39fE', symObjAddr: 0x670, symBinAddr: 0xEAD70, symSize: 0x20 }
  - { offsetInCU: 0xF9A8, offset: 0x4C6EE5, size: 0x8, addend: 0x0, symName: '__ZN42_$LT$$RF$T$u20$as$u20$core..fmt..Debug$GT$3fmt17hfd0504a4114d56e3E', symObjAddr: 0x690, symBinAddr: 0xEAD90, symSize: 0x70 }
  - { offsetInCU: 0xFA4C, offset: 0x4C6F89, size: 0x8, addend: 0x0, symName: '__ZN42_$LT$$RF$T$u20$as$u20$core..fmt..Debug$GT$3fmt17hff083606606d66fdE', symObjAddr: 0x700, symBinAddr: 0xEAE00, symSize: 0x20 }
  - { offsetInCU: 0x13414, offset: 0x4CA951, size: 0x8, addend: 0x0, symName: __ZN3syn5token5Group8surround17heff89b5b653592dfE, symObjAddr: 0xE00, symBinAddr: 0xEB280, symSize: 0x120 }
  - { offsetInCU: 0x1360C, offset: 0x4CAB49, size: 0x8, addend: 0x0, symName: __ZN3syn5token5Brace8surround17h054d6fe3dea87f3aE, symObjAddr: 0x6FA0, symBinAddr: 0xECB60, symSize: 0x0 }
  - { offsetInCU: 0x1389E, offset: 0x4CADDB, size: 0x8, addend: 0x0, symName: __ZN3syn5token5Brace8surround17h177bd1fb5200ae88E, symObjAddr: 0x7120, symBinAddr: 0xECCE0, symSize: 0x130 }
  - { offsetInCU: 0x13B22, offset: 0x4CB05F, size: 0x8, addend: 0x0, symName: __ZN3syn5token5Brace8surround17h203049190772705cE, symObjAddr: 0x7250, symBinAddr: 0xECE10, symSize: 0x200 }
  - { offsetInCU: 0x141C5, offset: 0x4CB702, size: 0x8, addend: 0x0, symName: __ZN3syn5token5Brace8surround17h296fbc9aacc45e8dE, symObjAddr: 0x7450, symBinAddr: 0xED010, symSize: 0x150 }
  - { offsetInCU: 0x144D8, offset: 0x4CBA15, size: 0x8, addend: 0x0, symName: __ZN3syn5token5Brace8surround17h3cd15e098182f2caE, symObjAddr: 0x75A0, symBinAddr: 0xED160, symSize: 0x220 }
  - { offsetInCU: 0x149C0, offset: 0x4CBEFD, size: 0x8, addend: 0x0, symName: __ZN3syn5token5Brace8surround17h57503f340a17145cE, symObjAddr: 0x7960, symBinAddr: 0xED380, symSize: 0x220 }
  - { offsetInCU: 0x14E5B, offset: 0x4CC398, size: 0x8, addend: 0x0, symName: __ZN3syn5token5Brace8surround17h5add098b3195aebcE, symObjAddr: 0x7B80, symBinAddr: 0xED5A0, symSize: 0x200 }
  - { offsetInCU: 0x1559A, offset: 0x4CCAD7, size: 0x8, addend: 0x0, symName: __ZN3syn5token5Brace8surround17h73c06cfc29e80b79E, symObjAddr: 0x80A0, symBinAddr: 0xED7A0, symSize: 0x200 }
  - { offsetInCU: 0x15C3D, offset: 0x4CD17A, size: 0x8, addend: 0x0, symName: __ZN3syn5token5Brace8surround17h81a192f6e1ba3b25E, symObjAddr: 0x82A0, symBinAddr: 0xED9A0, symSize: 0x220 }
  - { offsetInCU: 0x1612E, offset: 0x4CD66B, size: 0x8, addend: 0x0, symName: __ZN3syn5token5Brace8surround17h885eae5b5f18a737E, symObjAddr: 0x84C0, symBinAddr: 0xEDBC0, symSize: 0x230 }
  - { offsetInCU: 0x167E1, offset: 0x4CDD1E, size: 0x8, addend: 0x0, symName: __ZN3syn5token5Brace8surround17h8dc2f11f6889f4faE, symObjAddr: 0x86F0, symBinAddr: 0xEDDF0, symSize: 0x0 }
  - { offsetInCU: 0x16E84, offset: 0x4CE3C1, size: 0x8, addend: 0x0, symName: __ZN3syn5token5Brace8surround17h8f64d8eb67893fd1E, symObjAddr: 0x88F0, symBinAddr: 0xEDFF0, symSize: 0x220 }
  - { offsetInCU: 0x17319, offset: 0x4CE856, size: 0x8, addend: 0x0, symName: __ZN3syn5token5Brace8surround17h9105a8ad28ee9eacE, symObjAddr: 0x8B10, symBinAddr: 0xEE210, symSize: 0x220 }
  - { offsetInCU: 0x178D0, offset: 0x4CEE0D, size: 0x8, addend: 0x0, symName: __ZN3syn5token5Brace8surround17ha088df153eae400eE, symObjAddr: 0x8D30, symBinAddr: 0xEE430, symSize: 0x260 }
  - { offsetInCU: 0x18045, offset: 0x4CF582, size: 0x8, addend: 0x0, symName: __ZN3syn5token5Brace8surround17hbe01d651f653d8afE, symObjAddr: 0x8F90, symBinAddr: 0xEE690, symSize: 0x590 }
  - { offsetInCU: 0x18C42, offset: 0x4D017F, size: 0x8, addend: 0x0, symName: __ZN3syn5token5Brace8surround17hc01d55ce5137971fE, symObjAddr: 0x9520, symBinAddr: 0xEEC20, symSize: 0x220 }
  - { offsetInCU: 0x190D2, offset: 0x4D060F, size: 0x8, addend: 0x0, symName: __ZN3syn5token5Brace8surround17hcac216a5876b7b90E, symObjAddr: 0x9740, symBinAddr: 0xEEE40, symSize: 0x180 }
  - { offsetInCU: 0x19364, offset: 0x4D08A1, size: 0x8, addend: 0x0, symName: __ZN3syn5token5Brace8surround17hd179764b3f344586E, symObjAddr: 0x98C0, symBinAddr: 0xEEFC0, symSize: 0x220 }
  - { offsetInCU: 0x1986E, offset: 0x4D0DAB, size: 0x8, addend: 0x0, symName: __ZN3syn5token5Brace8surround17hd326a20e95a92237E, symObjAddr: 0x9AE0, symBinAddr: 0xEF1E0, symSize: 0x470 }
  - { offsetInCU: 0x1A467, offset: 0x4D19A4, size: 0x8, addend: 0x0, symName: __ZN3syn5token5Brace8surround17hdec488e9714715d6E, symObjAddr: 0x9F50, symBinAddr: 0xEF650, symSize: 0x1B0 }
  - { offsetInCU: 0x1A9E6, offset: 0x4D1F23, size: 0x8, addend: 0x0, symName: __ZN3syn5token5Brace8surround17heb4093c015441ecaE, symObjAddr: 0xA100, symBinAddr: 0xEF800, symSize: 0x200 }
  - { offsetInCU: 0x1B04C, offset: 0x4D2589, size: 0x8, addend: 0x0, symName: __ZN3syn5token7Bracket8surround17h39ed741deec0cbbcE, symObjAddr: 0xA320, symBinAddr: 0xEFA20, symSize: 0x130 }
  - { offsetInCU: 0x1B235, offset: 0x4D2772, size: 0x8, addend: 0x0, symName: __ZN3syn5token7Bracket8surround17h4010ca43394a9eecE, symObjAddr: 0xA450, symBinAddr: 0xEFB50, symSize: 0x1A0 }
  - { offsetInCU: 0x1B7AF, offset: 0x4D2CEC, size: 0x8, addend: 0x0, symName: __ZN3syn5token7Bracket8surround17h5da20462893431d0E, symObjAddr: 0xA790, symBinAddr: 0xEFCF0, symSize: 0x130 }
  - { offsetInCU: 0x1B9C5, offset: 0x4D2F02, size: 0x8, addend: 0x0, symName: __ZN3syn5token7Bracket8surround17ha5aff01b8fd5a0e1E, symObjAddr: 0xA9F0, symBinAddr: 0xEFE20, symSize: 0x160 }
  - { offsetInCU: 0x1BBFC, offset: 0x4D3139, size: 0x8, addend: 0x0, symName: __ZN3syn5token7Bracket8surround17hc7c268cb755c8c19E, symObjAddr: 0xAB50, symBinAddr: 0xEFF80, symSize: 0x150 }
  - { offsetInCU: 0x1BE5B, offset: 0x4D3398, size: 0x8, addend: 0x0, symName: __ZN3syn5token7Bracket8surround17hfab81345bbdd2f89E, symObjAddr: 0xACA0, symBinAddr: 0xF00D0, symSize: 0x130 }
  - { offsetInCU: 0x1C049, offset: 0x4D3586, size: 0x8, addend: 0x0, symName: __ZN3syn5token5Paren8surround17h0c12e09da3aa8e34E, symObjAddr: 0xADF0, symBinAddr: 0xF0220, symSize: 0x1F0 }
  - { offsetInCU: 0x1C36D, offset: 0x4D38AA, size: 0x8, addend: 0x0, symName: __ZN3syn5token5Paren8surround17h16e802a9434a262fE, symObjAddr: 0xAFE0, symBinAddr: 0xF0410, symSize: 0x210 }
  - { offsetInCU: 0x1CACB, offset: 0x4D4008, size: 0x8, addend: 0x0, symName: __ZN3syn5token5Paren8surround17h28d44f6895295df5E, symObjAddr: 0xB1F0, symBinAddr: 0xF0620, symSize: 0x1FC0 }
  - { offsetInCU: 0x2456D, offset: 0x4DBAAA, size: 0x8, addend: 0x0, symName: __ZN3syn5token5Paren8surround17h38eece4b36020a96E, symObjAddr: 0xD1B0, symBinAddr: 0xF25E0, symSize: 0x1A0 }
  - { offsetInCU: 0x24B49, offset: 0x4DC086, size: 0x8, addend: 0x0, symName: __ZN3syn5token5Paren8surround17h4007655ded83f205E, symObjAddr: 0xD350, symBinAddr: 0xF2780, symSize: 0x240 }
  - { offsetInCU: 0x251F6, offset: 0x4DC733, size: 0x8, addend: 0x0, symName: __ZN3syn5token5Paren8surround17h4549913c098e8324E, symObjAddr: 0xD590, symBinAddr: 0xF29C0, symSize: 0x590 }
  - { offsetInCU: 0x25E34, offset: 0x4DD371, size: 0x8, addend: 0x0, symName: __ZN3syn5token5Paren8surround17h4bee939971f7badbE, symObjAddr: 0xDB20, symBinAddr: 0xF2F50, symSize: 0x1A0 }
  - { offsetInCU: 0x26365, offset: 0x4DD8A2, size: 0x8, addend: 0x0, symName: __ZN3syn5token5Paren8surround17h659862ce9b85cd3fE, symObjAddr: 0xDE60, symBinAddr: 0xF30F0, symSize: 0x120 }
