---
triple:          'x86_64-apple-darwin'
binary-path:     "/Users/justinlanouette/Chaos/ChaöS-Token/hello_world/target/release/deps/libborsh_derive-b18511ba99f5f2f6.dylib"
relocations:
  - { offsetInCU: 0x1E, offset: 0x1E, size: 0x8, addend: 0x0, symName: '__ZN4core3ptr100drop_in_place$LT$core..option..Option$LT$alloc..boxed..Box$LT$syn..path..GenericArgument$GT$$GT$$GT$17h807a36ffbab107a4E', symObjAddr: 0x0, symBinAddr: 0x2DE0, symSize: 0x50 }
  - { offsetInCU: 0x1E88, offset: 0x1E88, size: 0x8, addend: 0x0, symName: '__ZN4core3ptr100drop_in_place$LT$core..option..Option$LT$alloc..boxed..Box$LT$syn..path..GenericArgument$GT$$GT$$GT$17h807a36ffbab107a4E', symObjAddr: 0x0, symBinAddr: 0x2DE0, symSize: 0x50 }
  - { offsetInCU: 0x2226, offset: 0x2226, size: 0x8, addend: 0x0, symName: '__ZN4core3ptr100drop_in_place$LT$syn..punctuated..Punctuated$LT$syn..path..PathSegment$C$syn..token..PathSep$GT$$GT$17hcb9c7ae6720123ceE.llvm.3138272232758202634', symObjAddr: 0x50, symBinAddr: 0x2E30, symSize: 0x270 }
  - { offsetInCU: 0x2BE8, offset: 0x2BE8, size: 0x8, addend: 0x0, symName: '__ZN4core3ptr101drop_in_place$LT$core..option..Option$LT$alloc..vec..Vec$LT$syn..generics..WherePredicate$GT$$GT$$GT$17h9b97eb8149fa9b49E', symObjAddr: 0x2C0, symBinAddr: 0x30A0, symSize: 0xD0 }
  - { offsetInCU: 0x2EC5, offset: 0x2EC5, size: 0x8, addend: 0x0, symName: '__ZN4core3ptr103drop_in_place$LT$core..option..Option$LT$alloc..boxed..Box$LT$syn..generics..TypeParamBound$GT$$GT$$GT$17h0017d361ebb9471fE', symObjAddr: 0x390, symBinAddr: 0x3170, symSize: 0x50 }
  - { offsetInCU: 0x30D0, offset: 0x30D0, size: 0x8, addend: 0x0, symName: '__ZN4core3ptr103drop_in_place$LT$syn..punctuated..Punctuated$LT$syn..generics..GenericParam$C$syn..token..Comma$GT$$GT$17hf5a644fae414a53cE', symObjAddr: 0x3E0, symBinAddr: 0x31C0, symSize: 0xF0 }
  - { offsetInCU: 0x35CB, offset: 0x35CB, size: 0x8, addend: 0x0, symName: '__ZN4core3ptr104drop_in_place$LT$syn..punctuated..Punctuated$LT$syn..generics..TypeParamBound$C$syn..token..Plus$GT$$GT$17ha86a9d1599e32cffE', symObjAddr: 0x4D0, symBinAddr: 0x32B0, symSize: 0x190 }
  - { offsetInCU: 0x3BEE, offset: 0x3BEE, size: 0x8, addend: 0x0, symName: '__ZN4core3ptr122drop_in_place$LT$core..option..Option$LT$borsh_derive..internals..attributes..field..schema..with_funcs..WithFuncs$GT$$GT$17he02ffe9b3554ccf8E', symObjAddr: 0x660, symBinAddr: 0x3440, symSize: 0x70 }
  - { offsetInCU: 0x3C7B, offset: 0x3C7B, size: 0x8, addend: 0x0, symName: '__ZN4core3ptr135drop_in_place$LT$$LP$borsh_derive..internals..attributes..Symbol$C$borsh_derive..internals..attributes..field..bounds..Variants$RP$$GT$17h341bcd2920da8f53E', symObjAddr: 0x6D0, symBinAddr: 0x34B0, symSize: 0x140 }
  - { offsetInCU: 0x4075, offset: 0x4075, size: 0x8, addend: 0x0, symName: '__ZN4core3ptr34drop_in_place$LT$syn..lit..Lit$GT$17h7e230476d36822bfE', symObjAddr: 0x810, symBinAddr: 0x35F0, symSize: 0x120 }
  - { offsetInCU: 0x4544, offset: 0x4544, size: 0x8, addend: 0x0, symName: '__ZN4core3ptr34drop_in_place$LT$syn..pat..Pat$GT$17h5b0a97e980f53e46E', symObjAddr: 0x930, symBinAddr: 0x3710, symSize: 0xEE0 }
  - { offsetInCU: 0x7D6A, offset: 0x7D6A, size: 0x8, addend: 0x0, symName: '__ZN4core3ptr34drop_in_place$LT$syn..ty..Type$GT$17h19f850f61918f31fE.llvm.3138272232758202634', symObjAddr: 0x1810, symBinAddr: 0x45F0, symSize: 0x4F0 }
  - { offsetInCU: 0x92AD, offset: 0x92AD, size: 0x8, addend: 0x0, symName: '__ZN4core3ptr36drop_in_place$LT$syn..expr..Expr$GT$17h98f7f68f0a06dff7E', symObjAddr: 0x1D00, symBinAddr: 0x4AE0, symSize: 0x2680 }
  - { offsetInCU: 0x124C7, offset: 0x124C7, size: 0x8, addend: 0x0, symName: '__ZN4core3ptr36drop_in_place$LT$syn..mac..Macro$GT$17hdf5bac46d7f74bccE', symObjAddr: 0x4380, symBinAddr: 0x7160, symSize: 0x40 }
  - { offsetInCU: 0x12501, offset: 0x12501, size: 0x8, addend: 0x0, symName: '__ZN4core3ptr36drop_in_place$LT$syn..path..Path$GT$17hb2feba4d905af1b2E', symObjAddr: 0x43C0, symBinAddr: 0x71A0, symSize: 0x240 }
  - { offsetInCU: 0x12E9B, offset: 0x12E9B, size: 0x8, addend: 0x0, symName: '__ZN4core3ptr37drop_in_place$LT$syn..path..QSelf$GT$17h2ad306e037f599caE.llvm.3138272232758202634', symObjAddr: 0x4600, symBinAddr: 0x73E0, symSize: 0x50 }
  - { offsetInCU: 0x13013, offset: 0x13013, size: 0x8, addend: 0x0, symName: '__ZN4core3ptr37drop_in_place$LT$syn..stmt..Block$GT$17h9594e7bdfd216ee2E', symObjAddr: 0x4650, symBinAddr: 0x7430, symSize: 0xD0 }
  - { offsetInCU: 0x132EA, offset: 0x132EA, size: 0x8, addend: 0x0, symName: '__ZN4core3ptr387drop_in_place$LT$alloc..boxed..Box$LT$dyn$u20$core..ops..function..Fn$LT$$LP$borsh_derive..internals..attributes..Symbol$C$borsh_derive..internals..attributes..Symbol$C$$RF$syn..meta..ParseNestedMeta$RP$$GT$$u2b$Output$u20$$u3d$$u20$core..result..Result$LT$borsh_derive..internals..attributes..field..Variants$C$syn..error..Error$GT$$u2b$core..marker..Sync$u2b$core..marker..Send$GT$$GT$17h77f1b768cc41541aE.llvm.3138272232758202634', symObjAddr: 0x4720, symBinAddr: 0x7500, symSize: 0x0 }
  - { offsetInCU: 0x134E3, offset: 0x134E3, size: 0x8, addend: 0x0, symName: '__ZN4core3ptr38drop_in_place$LT$syn..expr..Member$GT$17hd3bc25e187f7fae3E', symObjAddr: 0x4790, symBinAddr: 0x7570, symSize: 0x30 }
  - { offsetInCU: 0x135DF, offset: 0x135DF, size: 0x8, addend: 0x0, symName: '__ZN4core3ptr39drop_in_place$LT$proc_macro2..Ident$GT$17hb5fbe0c131bfa218E', symObjAddr: 0x47C0, symBinAddr: 0x75A0, symSize: 0x30 }
  - { offsetInCU: 0x136BC, offset: 0x136BC, size: 0x8, addend: 0x0, symName: '__ZN4core3ptr40drop_in_place$LT$syn..expr..ExprPath$GT$17hac51ab24dfe997baE.llvm.3138272232758202634', symObjAddr: 0x47F0, symBinAddr: 0x75D0, symSize: 0x120 }
  - { offsetInCU: 0x13B6C, offset: 0x13B6C, size: 0x8, addend: 0x0, symName: '__ZN4core3ptr40drop_in_place$LT$syn..ty..ReturnType$GT$17h2041b3e02720652aE', symObjAddr: 0x4910, symBinAddr: 0x76F0, symSize: 0x50 }
  - { offsetInCU: 0x13CDC, offset: 0x13CDC, size: 0x8, addend: 0x0, symName: '__ZN4core3ptr41drop_in_place$LT$syn..expr..ExprConst$GT$17h546d2eac1f274d91E', symObjAddr: 0x4960, symBinAddr: 0x7740, symSize: 0x180 }
  - { offsetInCU: 0x142B4, offset: 0x142B4, size: 0x8, addend: 0x0, symName: '__ZN4core3ptr441drop_in_place$LT$$LP$borsh_derive..internals..attributes..Symbol$C$alloc..boxed..Box$LT$dyn$u20$core..ops..function..Fn$LT$$LP$borsh_derive..internals..attributes..Symbol$C$borsh_derive..internals..attributes..Symbol$C$$RF$syn..meta..ParseNestedMeta$RP$$GT$$u2b$Output$u20$$u3d$$u20$core..result..Result$LT$borsh_derive..internals..attributes..field..Variants$C$syn..error..Error$GT$$u2b$core..marker..Sync$u2b$core..marker..Send$GT$$RP$$GT$17h949ff3602bdbf817E', symObjAddr: 0x4AE0, symBinAddr: 0x78C0, symSize: 0x70 }
  - { offsetInCU: 0x144CE, offset: 0x144CE, size: 0x8, addend: 0x0, symName: '__ZN4core3ptr44drop_in_place$LT$syn..lifetime..Lifetime$GT$17h8afd172b97690efdE', symObjAddr: 0x4B50, symBinAddr: 0x7930, symSize: 0x30 }
  - { offsetInCU: 0x14700, offset: 0x14700, size: 0x8, addend: 0x0, symName: '__ZN4core3ptr45drop_in_place$LT$proc_macro2..TokenStream$GT$17h207b9d10b43ca09fE', symObjAddr: 0x4B80, symBinAddr: 0x7960, symSize: 0x140 }
  - { offsetInCU: 0x14B9A, offset: 0x14B9A, size: 0x8, addend: 0x0, symName: '__ZN4core3ptr45drop_in_place$LT$syn..generics..TypeParam$GT$17h6c3c07424bcf6a4eE', symObjAddr: 0x4CC0, symBinAddr: 0x7AA0, symSize: 0x230 }
  - { offsetInCU: 0x153DB, offset: 0x153DB, size: 0x8, addend: 0x0, symName: '__ZN4core3ptr46drop_in_place$LT$syn..generics..ConstParam$GT$17hd0de4a5923445da7E', symObjAddr: 0x4EF0, symBinAddr: 0x7CD0, symSize: 0x150 }
  - { offsetInCU: 0x15828, offset: 0x15828, size: 0x8, addend: 0x0, symName: '__ZN4core3ptr47drop_in_place$LT$syn..path..GenericArgument$GT$17hf4dd383aa34a4f0fE', symObjAddr: 0x5040, symBinAddr: 0x7E20, symSize: 0x4A0 }
  - { offsetInCU: 0x1692E, offset: 0x1692E, size: 0x8, addend: 0x0, symName: '__ZN4core3ptr49drop_in_place$LT$syn..generics..LifetimeParam$GT$17hd0b2e7526885b204E', symObjAddr: 0x54E0, symBinAddr: 0x82C0, symSize: 0xF0 }
  - { offsetInCU: 0x16D11, offset: 0x16D11, size: 0x8, addend: 0x0, symName: '__ZN4core3ptr50drop_in_place$LT$syn..generics..TypeParamBound$GT$17hdc238d3175f8eb5aE', symObjAddr: 0x55D0, symBinAddr: 0x83B0, symSize: 0x180 }
  - { offsetInCU: 0x1715B, offset: 0x1715B, size: 0x8, addend: 0x0, symName: '__ZN4core3ptr58drop_in_place$LT$alloc..vec..Vec$LT$syn..expr..Arm$GT$$GT$17ha0ec4334cda5515cE', symObjAddr: 0x5750, symBinAddr: 0x8530, symSize: 0xD0 }
  - { offsetInCU: 0x1741B, offset: 0x1741B, size: 0x8, addend: 0x0, symName: '__ZN4core3ptr59drop_in_place$LT$alloc..boxed..Box$LT$syn..pat..Pat$GT$$GT$17h67f20b4715509286E', symObjAddr: 0x5820, symBinAddr: 0x8600, symSize: 0x50 }
  - { offsetInCU: 0x17574, offset: 0x17574, size: 0x8, addend: 0x0, symName: '__ZN4core3ptr59drop_in_place$LT$alloc..boxed..Box$LT$syn..ty..Type$GT$$GT$17hb9082e267b94188dE', symObjAddr: 0x5870, symBinAddr: 0x8650, symSize: 0x50 }
  - { offsetInCU: 0x176CD, offset: 0x176CD, size: 0x8, addend: 0x0, symName: '__ZN4core3ptr61drop_in_place$LT$alloc..boxed..Box$LT$syn..expr..Expr$GT$$GT$17h01310d89a7a8aab3E', symObjAddr: 0x58C0, symBinAddr: 0x86A0, symSize: 0x50 }
  - { offsetInCU: 0x178A2, offset: 0x178A2, size: 0x8, addend: 0x0, symName: '__ZN4core3ptr61drop_in_place$LT$syn..path..ParenthesizedGenericArguments$GT$17h7fee2959ae354450E', symObjAddr: 0x5910, symBinAddr: 0x86F0, symSize: 0x170 }
  - { offsetInCU: 0x17E98, offset: 0x17E98, size: 0x8, addend: 0x0, symName: '__ZN4core3ptr62drop_in_place$LT$syn..path..AngleBracketedGenericArguments$GT$17h79141db867cfe0cbE', symObjAddr: 0x5A80, symBinAddr: 0x8860, symSize: 0x120 }
  - { offsetInCU: 0x182E3, offset: 0x182E3, size: 0x8, addend: 0x0, symName: '__ZN4core3ptr63drop_in_place$LT$alloc..boxed..Box$LT$syn..lit..LitRepr$GT$$GT$17hf23a84bed7f64f98E', symObjAddr: 0x5BA0, symBinAddr: 0x8980, symSize: 0x60 }
  - { offsetInCU: 0x185EA, offset: 0x185EA, size: 0x8, addend: 0x0, symName: '__ZN4core3ptr64drop_in_place$LT$alloc..boxed..Box$LT$syn..pat..FieldPat$GT$$GT$17ha5ec27d4d418dbdfE', symObjAddr: 0x5C00, symBinAddr: 0x89E0, symSize: 0x140 }
  - { offsetInCU: 0x18CB7, offset: 0x18CB7, size: 0x8, addend: 0x0, symName: '__ZN4core3ptr64drop_in_place$LT$alloc..boxed..Box$LT$syn..ty..BareFnArg$GT$$GT$17hb416cdff09d8949eE', symObjAddr: 0x5D40, symBinAddr: 0x8B20, symSize: 0x140 }
  - { offsetInCU: 0x1920C, offset: 0x1920C, size: 0x8, addend: 0x0, symName: '__ZN4core3ptr65drop_in_place$LT$alloc..vec..Vec$LT$proc_macro..TokenTree$GT$$GT$17h54365d0bdf61b883E', symObjAddr: 0x5E80, symBinAddr: 0x8C60, symSize: 0x110 }
  - { offsetInCU: 0x19604, offset: 0x19604, size: 0x8, addend: 0x0, symName: '__ZN4core3ptr65drop_in_place$LT$core..option..Option$LT$syn..expr..Label$GT$$GT$17h6cb338f3d3fef208E', symObjAddr: 0x5F90, symBinAddr: 0x8D70, symSize: 0x30 }
  - { offsetInCU: 0x1973E, offset: 0x1973E, size: 0x8, addend: 0x0, symName: '__ZN4core3ptr65drop_in_place$LT$core..option..Option$LT$syn..path..QSelf$GT$$GT$17h77b32165fa1277f0E', symObjAddr: 0x5FC0, symBinAddr: 0x8DA0, symSize: 0x50 }
  - { offsetInCU: 0x198D5, offset: 0x198D5, size: 0x8, addend: 0x0, symName: '__ZN4core3ptr66drop_in_place$LT$core..option..Option$LT$syn..pat..PatRest$GT$$GT$17h7c9095b226142979E', symObjAddr: 0x6010, symBinAddr: 0x8DF0, symSize: 0xE0 }
  - { offsetInCU: 0x19BC9, offset: 0x19BC9, size: 0x8, addend: 0x0, symName: '__ZN4core3ptr67drop_in_place$LT$alloc..boxed..Box$LT$syn..expr..FieldValue$GT$$GT$17hb048d8ef1ec03e8dE', symObjAddr: 0x60F0, symBinAddr: 0x8ED0, symSize: 0x140 }
  - { offsetInCU: 0x1A0FE, offset: 0x1A0FE, size: 0x8, addend: 0x0, symName: '__ZN4core3ptr68drop_in_place$LT$alloc..boxed..Box$LT$syn..path..PathSegment$GT$$GT$17h582dcd8abb4b1a74E', symObjAddr: 0x6230, symBinAddr: 0x9010, symSize: 0x1B0 }
  - { offsetInCU: 0x1A80C, offset: 0x1A80C, size: 0x8, addend: 0x0, symName: '__ZN4core3ptr70drop_in_place$LT$core..option..Option$LT$syn..ty..BareVariadic$GT$$GT$17hf6d2a770387443a3E', symObjAddr: 0x63E0, symBinAddr: 0x91C0, symSize: 0x100 }
  - { offsetInCU: 0x1AC43, offset: 0x1AC43, size: 0x8, addend: 0x0, symName: '__ZN4core3ptr72drop_in_place$LT$alloc..boxed..Box$LT$syn..path..GenericArgument$GT$$GT$17hcc60f7ab467d198fE', symObjAddr: 0x64E0, symBinAddr: 0x92C0, symSize: 0x1D0 }
  - { offsetInCU: 0x1B1DE, offset: 0x1B1DE, size: 0x8, addend: 0x0, symName: '__ZN4core3ptr72drop_in_place$LT$core..option..Option$LT$syn..lifetime..Lifetime$GT$$GT$17h70ad3b488ebe3596E', symObjAddr: 0x66B0, symBinAddr: 0x9490, symSize: 0x30 }
  - { offsetInCU: 0x1B2F9, offset: 0x1B2F9, size: 0x8, addend: 0x0, symName: '__ZN4core3ptr73drop_in_place$LT$alloc..boxed..Box$LT$syn..generics..GenericParam$GT$$GT$17hd8823d2eb1a41dfaE', symObjAddr: 0x66E0, symBinAddr: 0x94C0, symSize: 0x80 }
  - { offsetInCU: 0x1B548, offset: 0x1B548, size: 0x8, addend: 0x0, symName: '__ZN4core3ptr73drop_in_place$LT$borsh_derive..internals..attributes..field..Variants$GT$17hd8d39875cf34ff27E.llvm.3138272232758202634', symObjAddr: 0x6760, symBinAddr: 0x9540, symSize: 0x330 }
  - { offsetInCU: 0x1BF68, offset: 0x1BF68, size: 0x8, addend: 0x0, symName: '__ZN4core3ptr75drop_in_place$LT$alloc..boxed..Box$LT$syn..generics..TypeParamBound$GT$$GT$17hc0dbc3e6560133a8E', symObjAddr: 0x6A90, symBinAddr: 0x9870, symSize: 0xC0 }
  - { offsetInCU: 0x1C25F, offset: 0x1C25F, size: 0x8, addend: 0x0, symName: '__ZN4core3ptr81drop_in_place$LT$borsh_derive..internals..attributes..field..bounds..Variants$GT$17hb351e70a81248b11E.llvm.3138272232758202634', symObjAddr: 0x6B50, symBinAddr: 0x9930, symSize: 0x140 }
  - { offsetInCU: 0x1C539, offset: 0x1C539, size: 0x8, addend: 0x0, symName: '__ZN4core3ptr81drop_in_place$LT$borsh_derive..internals..attributes..field..schema..Variants$GT$17h1bcb120dc97abdc8E.llvm.3138272232758202634', symObjAddr: 0x6C90, symBinAddr: 0x9A70, symSize: 0x160 }
  - { offsetInCU: 0x1C9D3, offset: 0x1C9D3, size: 0x8, addend: 0x0, symName: '__ZN4core3ptr86drop_in_place$LT$syn..punctuated..Punctuated$LT$syn..pat..Pat$C$syn..token..Or$GT$$GT$17hb407e891b009195eE', symObjAddr: 0x6DF0, symBinAddr: 0x9BD0, symSize: 0x120 }
  - { offsetInCU: 0x1CE4E, offset: 0x1CE4E, size: 0x8, addend: 0x0, symName: '__ZN4core3ptr87drop_in_place$LT$core..option..Option$LT$alloc..boxed..Box$LT$syn..pat..Pat$GT$$GT$$GT$17h27575db68a752b00E', symObjAddr: 0x6F10, symBinAddr: 0x9CF0, symSize: 0x50 }
  - { offsetInCU: 0x1CFBE, offset: 0x1CFBE, size: 0x8, addend: 0x0, symName: '__ZN4core3ptr87drop_in_place$LT$core..option..Option$LT$alloc..boxed..Box$LT$syn..ty..Type$GT$$GT$$GT$17h2cce7e91b6f26339E', symObjAddr: 0x6F60, symBinAddr: 0x9D40, symSize: 0x50 }
  - { offsetInCU: 0x1D12E, offset: 0x1D12E, size: 0x8, addend: 0x0, symName: '__ZN4core3ptr89drop_in_place$LT$core..option..Option$LT$alloc..boxed..Box$LT$syn..expr..Expr$GT$$GT$$GT$17h4805299351d776eaE', symObjAddr: 0x6FB0, symBinAddr: 0x9D90, symSize: 0x50 }
  - { offsetInCU: 0x1D2DC, offset: 0x1D2DC, size: 0x8, addend: 0x0, symName: '__ZN4core3ptr89drop_in_place$LT$syn..punctuated..Punctuated$LT$syn..pat..Pat$C$syn..token..Comma$GT$$GT$17hbfa21962153cb723E', symObjAddr: 0x7000, symBinAddr: 0x9DE0, symSize: 0x120 }
  - { offsetInCU: 0x1D76E, offset: 0x1D76E, size: 0x8, addend: 0x0, symName: '__ZN4core3ptr89drop_in_place$LT$syn..punctuated..Punctuated$LT$syn..ty..Type$C$syn..token..Comma$GT$$GT$17h487f88da4f994ccfE', symObjAddr: 0x7120, symBinAddr: 0x9F00, symSize: 0x120 }
  - { offsetInCU: 0x1DBE9, offset: 0x1DBE9, size: 0x8, addend: 0x0, symName: '__ZN4core3ptr90drop_in_place$LT$core..option..Option$LT$syn..path..AngleBracketedGenericArguments$GT$$GT$17h44b2ad11f3f45684E', symObjAddr: 0x7240, symBinAddr: 0xA020, symSize: 0x130 }
  - { offsetInCU: 0x1E08B, offset: 0x1E08B, size: 0x8, addend: 0x0, symName: '__ZN4core3ptr91drop_in_place$LT$syn..punctuated..Punctuated$LT$syn..expr..Expr$C$syn..token..Comma$GT$$GT$17hd2c79695be72d75eE', symObjAddr: 0x7370, symBinAddr: 0xA150, symSize: 0x120 }
  - { offsetInCU: 0x1E519, offset: 0x1E519, size: 0x8, addend: 0x0, symName: '__ZN4core3ptr94drop_in_place$LT$syn..punctuated..Punctuated$LT$syn..pat..FieldPat$C$syn..token..Comma$GT$$GT$17hb2b4aed8f633cba0E', symObjAddr: 0x7490, symBinAddr: 0xA270, symSize: 0xF0 }
  - { offsetInCU: 0x1E818, offset: 0x1E818, size: 0x8, addend: 0x0, symName: '__ZN4core3ptr94drop_in_place$LT$syn..punctuated..Punctuated$LT$syn..ty..BareFnArg$C$syn..token..Comma$GT$$GT$17h59c18cbb4f726140E', symObjAddr: 0x7580, symBinAddr: 0xA360, symSize: 0xF0 }
  - { offsetInCU: 0x1EB19, offset: 0x1EB19, size: 0x8, addend: 0x0, symName: '__ZN4core3ptr96drop_in_place$LT$core..option..Option$LT$alloc..boxed..Box$LT$syn..path..PathSegment$GT$$GT$$GT$17hd67a31bad3bc4ef4E', symObjAddr: 0x7670, symBinAddr: 0xA450, symSize: 0xA0 }
  - { offsetInCU: 0x1ED98, offset: 0x1ED98, size: 0x8, addend: 0x0, symName: '__ZN4core3ptr97drop_in_place$LT$syn..punctuated..Punctuated$LT$syn..expr..FieldValue$C$syn..token..Comma$GT$$GT$17h2644f25adad08ccbE', symObjAddr: 0x7710, symBinAddr: 0xA4F0, symSize: 0xF0 }
  - { offsetInCU: 0x1F095, offset: 0x1F095, size: 0x8, addend: 0x0, symName: '__ZN4core3ptr98drop_in_place$LT$alloc..vec..Vec$LT$$LP$syn..path..GenericArgument$C$syn..token..Comma$RP$$GT$$GT$17h050ecd3ba4b8a9c3E', symObjAddr: 0x7800, symBinAddr: 0xA5E0, symSize: 0xD0 }
  - { offsetInCU: 0x1F3D5, offset: 0x1F3D5, size: 0x8, addend: 0x0, symName: '__ZN4core3ptr98drop_in_place$LT$syn..punctuated..Punctuated$LT$syn..lifetime..Lifetime$C$syn..token..Plus$GT$$GT$17hfbe9a104e4a4f23fE', symObjAddr: 0x78D0, symBinAddr: 0xA6B0, symSize: 0xD0 }
  - { offsetInCU: 0x4A6CB, offset: 0x4A6CB, size: 0x8, addend: 0x0, symName: '__ZN5alloc11collections5btree4node208Handle$LT$alloc..collections..btree..node..NodeRef$LT$alloc..collections..btree..node..marker..Mut$C$K$C$V$C$alloc..collections..btree..node..marker..Leaf$GT$$C$alloc..collections..btree..node..marker..KV$GT$5split17h19d6611eb0a0c99dE', symObjAddr: 0x8160, symBinAddr: 0xA780, symSize: 0x200 }
  - { offsetInCU: 0x4B311, offset: 0x4B311, size: 0x8, addend: 0x0, symName: '__ZN5alloc11collections5btree4node208Handle$LT$alloc..collections..btree..node..NodeRef$LT$alloc..collections..btree..node..marker..Mut$C$K$C$V$C$alloc..collections..btree..node..marker..Leaf$GT$$C$alloc..collections..btree..node..marker..KV$GT$5split17h20ae0dd33cac9934E', symObjAddr: 0x8360, symBinAddr: 0xA980, symSize: 0x220 }
  - { offsetInCU: 0x4BFC0, offset: 0x4BFC0, size: 0x8, addend: 0x0, symName: '__ZN5alloc11collections5btree4node208Handle$LT$alloc..collections..btree..node..NodeRef$LT$alloc..collections..btree..node..marker..Mut$C$K$C$V$C$alloc..collections..btree..node..marker..Leaf$GT$$C$alloc..collections..btree..node..marker..KV$GT$5split17h42bf3949d95787dcE', symObjAddr: 0x8580, symBinAddr: 0xABA0, symSize: 0x230 }
  - { offsetInCU: 0x4CC52, offset: 0x4CC52, size: 0x8, addend: 0x0, symName: '__ZN5alloc11collections5btree4node208Handle$LT$alloc..collections..btree..node..NodeRef$LT$alloc..collections..btree..node..marker..Mut$C$K$C$V$C$alloc..collections..btree..node..marker..Leaf$GT$$C$alloc..collections..btree..node..marker..KV$GT$5split17h8c5b854c60d6e536E', symObjAddr: 0x87B0, symBinAddr: 0xADD0, symSize: 0x230 }
  - { offsetInCU: 0x4D895, offset: 0x4D895, size: 0x8, addend: 0x0, symName: '__ZN5alloc11collections5btree4node208Handle$LT$alloc..collections..btree..node..NodeRef$LT$alloc..collections..btree..node..marker..Mut$C$K$C$V$C$alloc..collections..btree..node..marker..Leaf$GT$$C$alloc..collections..btree..node..marker..KV$GT$5split17hbdee1c2157b016c0E', symObjAddr: 0x89E0, symBinAddr: 0xB000, symSize: 0x280 }
  - { offsetInCU: 0x4EE28, offset: 0x4EE28, size: 0x8, addend: 0x0, symName: '__ZN5alloc11collections5btree4node210Handle$LT$alloc..collections..btree..node..NodeRef$LT$alloc..collections..btree..node..marker..Mut$C$K$C$V$C$alloc..collections..btree..node..marker..Leaf$GT$$C$alloc..collections..btree..node..marker..Edge$GT$16insert_recursing17h131ec31aca716d5bE', symObjAddr: 0x8C60, symBinAddr: 0xB280, symSize: 0xE80 }
  - { offsetInCU: 0x51A84, offset: 0x51A84, size: 0x8, addend: 0x0, symName: '__ZN5alloc11collections5btree4node210Handle$LT$alloc..collections..btree..node..NodeRef$LT$alloc..collections..btree..node..marker..Mut$C$K$C$V$C$alloc..collections..btree..node..marker..Leaf$GT$$C$alloc..collections..btree..node..marker..Edge$GT$16insert_recursing17h45e30c8da714fe86E', symObjAddr: 0x9AE0, symBinAddr: 0xC100, symSize: 0x0 }
  - { offsetInCU: 0x5477D, offset: 0x5477D, size: 0x8, addend: 0x0, symName: '__ZN5alloc11collections5btree4node210Handle$LT$alloc..collections..btree..node..NodeRef$LT$alloc..collections..btree..node..marker..Mut$C$K$C$V$C$alloc..collections..btree..node..marker..Leaf$GT$$C$alloc..collections..btree..node..marker..Edge$GT$16insert_recursing17h5b60c239417cedf0E', symObjAddr: 0xA7D0, symBinAddr: 0xCDF0, symSize: 0xE80 }
  - { offsetInCU: 0x57350, offset: 0x57350, size: 0x8, addend: 0x0, symName: '__ZN5alloc11collections5btree4node210Handle$LT$alloc..collections..btree..node..NodeRef$LT$alloc..collections..btree..node..marker..Mut$C$K$C$V$C$alloc..collections..btree..node..marker..Leaf$GT$$C$alloc..collections..btree..node..marker..Edge$GT$16insert_recursing17hd15947bbd32e50bdE', symObjAddr: 0xB650, symBinAddr: 0xDC70, symSize: 0xE60 }
  - { offsetInCU: 0x5A010, offset: 0x5A010, size: 0x8, addend: 0x0, symName: '__ZN5alloc11collections5btree4node210Handle$LT$alloc..collections..btree..node..NodeRef$LT$alloc..collections..btree..node..marker..Mut$C$K$C$V$C$alloc..collections..btree..node..marker..Leaf$GT$$C$alloc..collections..btree..node..marker..Edge$GT$16insert_recursing17he7cbea685ab5b459E', symObjAddr: 0xC4B0, symBinAddr: 0xEAD0, symSize: 0xFF0 }
  - { offsetInCU: 0x5C33D, offset: 0x5C33D, size: 0x8, addend: 0x0, symName: '__ZN5alloc11collections5btree4node212Handle$LT$alloc..collections..btree..node..NodeRef$LT$alloc..collections..btree..node..marker..Mut$C$K$C$V$C$alloc..collections..btree..node..marker..Internal$GT$$C$alloc..collections..btree..node..marker..KV$GT$5split17h0bd6387a6ba42d19E', symObjAddr: 0xD4A0, symBinAddr: 0xFAC0, symSize: 0x2E0 }
  - { offsetInCU: 0x5D48D, offset: 0x5D48D, size: 0x8, addend: 0x0, symName: '__ZN5alloc11collections5btree4node212Handle$LT$alloc..collections..btree..node..NodeRef$LT$alloc..collections..btree..node..marker..Mut$C$K$C$V$C$alloc..collections..btree..node..marker..Internal$GT$$C$alloc..collections..btree..node..marker..KV$GT$5split17h21d6e791be3b6d38E', symObjAddr: 0xD780, symBinAddr: 0xFDA0, symSize: 0x2F0 }
  - { offsetInCU: 0x5E678, offset: 0x5E678, size: 0x8, addend: 0x0, symName: '__ZN5alloc11collections5btree4node212Handle$LT$alloc..collections..btree..node..NodeRef$LT$alloc..collections..btree..node..marker..Mut$C$K$C$V$C$alloc..collections..btree..node..marker..Internal$GT$$C$alloc..collections..btree..node..marker..KV$GT$5split17h24df240734dc9623E', symObjAddr: 0xDA70, symBinAddr: 0x10090, symSize: 0x300 }
  - { offsetInCU: 0x5F7AA, offset: 0x5F7AA, size: 0x8, addend: 0x0, symName: '__ZN5alloc11collections5btree4node212Handle$LT$alloc..collections..btree..node..NodeRef$LT$alloc..collections..btree..node..marker..Mut$C$K$C$V$C$alloc..collections..btree..node..marker..Internal$GT$$C$alloc..collections..btree..node..marker..KV$GT$5split17h4bc90c807dc6742bE', symObjAddr: 0xDD70, symBinAddr: 0x10390, symSize: 0x350 }
  - { offsetInCU: 0x6080E, offset: 0x6080E, size: 0x8, addend: 0x0, symName: '__ZN5alloc11collections5btree4node212Handle$LT$alloc..collections..btree..node..NodeRef$LT$alloc..collections..btree..node..marker..Mut$C$K$C$V$C$alloc..collections..btree..node..marker..Internal$GT$$C$alloc..collections..btree..node..marker..KV$GT$5split17hd418b4aa8bd601e1E', symObjAddr: 0xE0C0, symBinAddr: 0x106E0, symSize: 0x300 }
  - { offsetInCU: 0x61BCD, offset: 0x61BCD, size: 0x8, addend: 0x0, symName: '__ZN5alloc11collections5btree4node29BalancingContext$LT$K$C$V$GT$15bulk_steal_left17h0dc4078500f572c1E', symObjAddr: 0xE550, symBinAddr: 0x109E0, symSize: 0x400 }
  - { offsetInCU: 0x63138, offset: 0x63138, size: 0x8, addend: 0x0, symName: '__ZN5alloc11collections5btree4node29BalancingContext$LT$K$C$V$GT$15bulk_steal_left17ha0919123522ef422E', symObjAddr: 0xE950, symBinAddr: 0x10DE0, symSize: 0x440 }
  - { offsetInCU: 0x64529, offset: 0x64529, size: 0x8, addend: 0x0, symName: '__ZN5alloc11collections5btree4node29BalancingContext$LT$K$C$V$GT$15bulk_steal_left17hb4c126658ca13686E', symObjAddr: 0xED90, symBinAddr: 0x11220, symSize: 0x400 }
  - { offsetInCU: 0x65AFC, offset: 0x65AFC, size: 0x8, addend: 0x0, symName: '__ZN5alloc11collections5btree4node29BalancingContext$LT$K$C$V$GT$15bulk_steal_left17hbdcbaac6373d8145E', symObjAddr: 0xF190, symBinAddr: 0x11620, symSize: 0x3D0 }
  - { offsetInCU: 0x66F65, offset: 0x66F65, size: 0x8, addend: 0x0, symName: '__ZN5alloc11collections5btree4node29BalancingContext$LT$K$C$V$GT$16bulk_steal_right17h7cbca776e39cd72cE', symObjAddr: 0xF560, symBinAddr: 0x119F0, symSize: 0x4B0 }
  - { offsetInCU: 0x685E5, offset: 0x685E5, size: 0x8, addend: 0x0, symName: '__ZN5alloc11collections5btree4node29BalancingContext$LT$K$C$V$GT$16bulk_steal_right17haf7e4f60c11e7b59E', symObjAddr: 0xFA10, symBinAddr: 0x11EA0, symSize: 0x4C0 }
  - { offsetInCU: 0x69C47, offset: 0x69C47, size: 0x8, addend: 0x0, symName: '__ZN5alloc11collections5btree4node29BalancingContext$LT$K$C$V$GT$16bulk_steal_right17hc9e14db88d066337E', symObjAddr: 0xFED0, symBinAddr: 0x12360, symSize: 0x540 }
  - { offsetInCU: 0x6B0C4, offset: 0x6B0C4, size: 0x8, addend: 0x0, symName: '__ZN5alloc11collections5btree4node29BalancingContext$LT$K$C$V$GT$16bulk_steal_right17hd6de9780cbdaed98E', symObjAddr: 0x10410, symBinAddr: 0x128A0, symSize: 0x4C0 }
  - { offsetInCU: 0x6C60C, offset: 0x6C60C, size: 0x8, addend: 0x0, symName: '__ZN5alloc11collections5btree4node29BalancingContext$LT$K$C$V$GT$8do_merge17h50c62760aa0035c1E', symObjAddr: 0x108D0, symBinAddr: 0x12D60, symSize: 0x430 }
  - { offsetInCU: 0x6D775, offset: 0x6D775, size: 0x8, addend: 0x0, symName: '__ZN5alloc11collections5btree4node29BalancingContext$LT$K$C$V$GT$8do_merge17h63bb98604a928925E', symObjAddr: 0x10D00, symBinAddr: 0x13190, symSize: 0x400 }
  - { offsetInCU: 0x6E9AB, offset: 0x6E9AB, size: 0x8, addend: 0x0, symName: '__ZN5alloc11collections5btree4node29BalancingContext$LT$K$C$V$GT$8do_merge17ha1a7bc29826f2f2dE', symObjAddr: 0x11100, symBinAddr: 0x13590, symSize: 0x410 }
  - { offsetInCU: 0x6FBF1, offset: 0x6FBF1, size: 0x8, addend: 0x0, symName: '__ZN5alloc11collections5btree4node29BalancingContext$LT$K$C$V$GT$8do_merge17haee3875e5ded5857E', symObjAddr: 0x11510, symBinAddr: 0x139A0, symSize: 0x410 }
  - { offsetInCU: 0x7177F, offset: 0x7177F, size: 0x8, addend: 0x0, symName: '__ZN5alloc11collections5btree6remove259_$LT$impl$u20$alloc..collections..btree..node..Handle$LT$alloc..collections..btree..node..NodeRef$LT$alloc..collections..btree..node..marker..Mut$C$K$C$V$C$alloc..collections..btree..node..marker..Leaf$GT$$C$alloc..collections..btree..node..marker..KV$GT$$GT$14remove_leaf_kv17h14645fc6341608ebE', symObjAddr: 0x11920, symBinAddr: 0x13DB0, symSize: 0x980 }
  - { offsetInCU: 0x73DE6, offset: 0x73DE6, size: 0x8, addend: 0x0, symName: '__ZN5alloc11collections5btree6remove259_$LT$impl$u20$alloc..collections..btree..node..Handle$LT$alloc..collections..btree..node..NodeRef$LT$alloc..collections..btree..node..marker..Mut$C$K$C$V$C$alloc..collections..btree..node..marker..Leaf$GT$$C$alloc..collections..btree..node..marker..KV$GT$$GT$14remove_leaf_kv17h15c764ca8a914707E', symObjAddr: 0x122A0, symBinAddr: 0x14730, symSize: 0x930 }
  - { offsetInCU: 0x76538, offset: 0x76538, size: 0x8, addend: 0x0, symName: '__ZN5alloc11collections5btree6remove259_$LT$impl$u20$alloc..collections..btree..node..Handle$LT$alloc..collections..btree..node..NodeRef$LT$alloc..collections..btree..node..marker..Mut$C$K$C$V$C$alloc..collections..btree..node..marker..Leaf$GT$$C$alloc..collections..btree..node..marker..KV$GT$$GT$14remove_leaf_kv17h3e59aee046a9cd10E', symObjAddr: 0x12BD0, symBinAddr: 0x15060, symSize: 0x930 }
  - { offsetInCU: 0x78C89, offset: 0x78C89, size: 0x8, addend: 0x0, symName: '__ZN5alloc11collections5btree6remove259_$LT$impl$u20$alloc..collections..btree..node..Handle$LT$alloc..collections..btree..node..NodeRef$LT$alloc..collections..btree..node..marker..Mut$C$K$C$V$C$alloc..collections..btree..node..marker..Leaf$GT$$C$alloc..collections..btree..node..marker..KV$GT$$GT$14remove_leaf_kv17hfac0dea212703a4bE', symObjAddr: 0x13500, symBinAddr: 0x15990, symSize: 0x970 }
  - { offsetInCU: 0x7AEC8, offset: 0x7AEC8, size: 0x8, addend: 0x0, symName: '__ZN5alloc11collections5btree6remove269_$LT$impl$u20$alloc..collections..btree..node..Handle$LT$alloc..collections..btree..node..NodeRef$LT$alloc..collections..btree..node..marker..Mut$C$K$C$V$C$alloc..collections..btree..node..marker..LeafOrInternal$GT$$C$alloc..collections..btree..node..marker..KV$GT$$GT$18remove_kv_tracking17h2b19e1c7cff0e43aE', symObjAddr: 0x13E70, symBinAddr: 0x16300, symSize: 0x320 }
  - { offsetInCU: 0x7BDC1, offset: 0x7BDC1, size: 0x8, addend: 0x0, symName: '__ZN5alloc11collections5btree6remove269_$LT$impl$u20$alloc..collections..btree..node..Handle$LT$alloc..collections..btree..node..NodeRef$LT$alloc..collections..btree..node..marker..Mut$C$K$C$V$C$alloc..collections..btree..node..marker..LeafOrInternal$GT$$C$alloc..collections..btree..node..marker..KV$GT$$GT$18remove_kv_tracking17h5442a78224f20ccdE', symObjAddr: 0x14190, symBinAddr: 0x16620, symSize: 0x330 }
  - { offsetInCU: 0x7CCBA, offset: 0x7CCBA, size: 0x8, addend: 0x0, symName: '__ZN5alloc11collections5btree6remove269_$LT$impl$u20$alloc..collections..btree..node..Handle$LT$alloc..collections..btree..node..NodeRef$LT$alloc..collections..btree..node..marker..Mut$C$K$C$V$C$alloc..collections..btree..node..marker..LeafOrInternal$GT$$C$alloc..collections..btree..node..marker..KV$GT$$GT$18remove_kv_tracking17h8231f2171d1b32b2E', symObjAddr: 0x144C0, symBinAddr: 0x16950, symSize: 0x3A0 }
  - { offsetInCU: 0x7DB21, offset: 0x7DB21, size: 0x8, addend: 0x0, symName: '__ZN5alloc11collections5btree6remove269_$LT$impl$u20$alloc..collections..btree..node..Handle$LT$alloc..collections..btree..node..NodeRef$LT$alloc..collections..btree..node..marker..Mut$C$K$C$V$C$alloc..collections..btree..node..marker..LeafOrInternal$GT$$C$alloc..collections..btree..node..marker..KV$GT$$GT$18remove_kv_tracking17hd02829432dbd8851E', symObjAddr: 0x14860, symBinAddr: 0x16CF0, symSize: 0x330 }
  - { offsetInCU: 0x7E64D, offset: 0x7E64D, size: 0x8, addend: 0x0, symName: '__ZN5alloc11collections5btree6search142_$LT$impl$u20$alloc..collections..btree..node..NodeRef$LT$BorrowType$C$K$C$V$C$alloc..collections..btree..node..marker..LeafOrInternal$GT$$GT$11search_tree17h134010a535cc035bE', symObjAddr: 0x14B90, symBinAddr: 0x17020, symSize: 0x1A0 }
  - { offsetInCU: 0x7EE0A, offset: 0x7EE0A, size: 0x8, addend: 0x0, symName: '__ZN5alloc11collections5btree6search142_$LT$impl$u20$alloc..collections..btree..node..NodeRef$LT$BorrowType$C$K$C$V$C$alloc..collections..btree..node..marker..LeafOrInternal$GT$$GT$11search_tree17h153115995d514b93E', symObjAddr: 0x14D30, symBinAddr: 0x171C0, symSize: 0x0 }
  - { offsetInCU: 0x7F4AD, offset: 0x7F4AD, size: 0x8, addend: 0x0, symName: '__ZN5alloc11collections5btree6search142_$LT$impl$u20$alloc..collections..btree..node..NodeRef$LT$BorrowType$C$K$C$V$C$alloc..collections..btree..node..marker..LeafOrInternal$GT$$GT$11search_tree17h2bc7a1b9cede9b06E', symObjAddr: 0x14ED0, symBinAddr: 0x17360, symSize: 0x1A0 }
  - { offsetInCU: 0x7FB50, offset: 0x7FB50, size: 0x8, addend: 0x0, symName: '__ZN5alloc11collections5btree6search142_$LT$impl$u20$alloc..collections..btree..node..NodeRef$LT$BorrowType$C$K$C$V$C$alloc..collections..btree..node..marker..LeafOrInternal$GT$$GT$11search_tree17h36790711860776f9E', symObjAddr: 0x15070, symBinAddr: 0x17500, symSize: 0x1A0 }
  - { offsetInCU: 0x801F3, offset: 0x801F3, size: 0x8, addend: 0x0, symName: '__ZN5alloc11collections5btree6search142_$LT$impl$u20$alloc..collections..btree..node..NodeRef$LT$BorrowType$C$K$C$V$C$alloc..collections..btree..node..marker..LeafOrInternal$GT$$GT$11search_tree17he8eea96c824225c1E', symObjAddr: 0x15210, symBinAddr: 0x176A0, symSize: 0x1A0 }
  - { offsetInCU: 0x1E, offset: 0x838D4, size: 0x8, addend: 0x0, symName: '__ZN100_$LT$syn..punctuated..PrivateIter$LT$T$C$P$GT$$u20$as$u20$core..iter..traits..iterator..Iterator$GT$4next17h1bba546e2f1156a1E.llvm.17008197666061784203', symObjAddr: 0x0, symBinAddr: 0x17840, symSize: 0x0 }
  - { offsetInCU: 0xC72, offset: 0x84528, size: 0x8, addend: 0x0, symName: '__ZN100_$LT$syn..punctuated..PrivateIter$LT$T$C$P$GT$$u20$as$u20$core..iter..traits..iterator..Iterator$GT$4next17h1bba546e2f1156a1E.llvm.17008197666061784203', symObjAddr: 0x0, symBinAddr: 0x17840, symSize: 0x0 }
  - { offsetInCU: 0xF23, offset: 0x847D9, size: 0x8, addend: 0x0, symName: '__ZN100_$LT$syn..punctuated..PrivateIter$LT$T$C$P$GT$$u20$as$u20$core..iter..traits..iterator..Iterator$GT$4next17h4d429228c3e12014E.llvm.17008197666061784203', symObjAddr: 0x30, symBinAddr: 0x17870, symSize: 0x30 }
  - { offsetInCU: 0x11B0, offset: 0x84A66, size: 0x8, addend: 0x0, symName: '__ZN100_$LT$syn..punctuated..PrivateIter$LT$T$C$P$GT$$u20$as$u20$core..iter..traits..iterator..Iterator$GT$4next17h95e7ecae0ceb960aE.llvm.17008197666061784203', symObjAddr: 0x60, symBinAddr: 0x178A0, symSize: 0x30 }
  - { offsetInCU: 0x143D, offset: 0x84CF3, size: 0x8, addend: 0x0, symName: '__ZN100_$LT$syn..punctuated..PrivateIter$LT$T$C$P$GT$$u20$as$u20$core..iter..traits..iterator..Iterator$GT$4next17h96b34f02356d64f3E.llvm.17008197666061784203', symObjAddr: 0x90, symBinAddr: 0x178D0, symSize: 0x30 }
  - { offsetInCU: 0x16CA, offset: 0x84F80, size: 0x8, addend: 0x0, symName: '__ZN100_$LT$syn..punctuated..PrivateIter$LT$T$C$P$GT$$u20$as$u20$core..iter..traits..iterator..Iterator$GT$4next17hb691fbdc6f3fa2e5E.llvm.17008197666061784203', symObjAddr: 0xC0, symBinAddr: 0x17900, symSize: 0x30 }
  - { offsetInCU: 0x1957, offset: 0x8520D, size: 0x8, addend: 0x0, symName: '__ZN100_$LT$syn..punctuated..PrivateIter$LT$T$C$P$GT$$u20$as$u20$core..iter..traits..iterator..Iterator$GT$4next17hb79c677c39f8d274E.llvm.17008197666061784203', symObjAddr: 0xF0, symBinAddr: 0x17930, symSize: 0x30 }
  - { offsetInCU: 0x1BE4, offset: 0x8549A, size: 0x8, addend: 0x0, symName: '__ZN100_$LT$syn..punctuated..PrivateIter$LT$T$C$P$GT$$u20$as$u20$core..iter..traits..iterator..Iterator$GT$4next17hc5e1cd397ae292b9E.llvm.17008197666061784203', symObjAddr: 0x120, symBinAddr: 0x17960, symSize: 0x30 }
  - { offsetInCU: 0x209F, offset: 0x85955, size: 0x8, addend: 0x0, symName: '__ZN102_$LT$syn..punctuated..Punctuated$LT$T$C$P$GT$$u20$as$u20$core..iter..traits..collect..IntoIterator$GT$9into_iter17h773b74b81b261355E', symObjAddr: 0x150, symBinAddr: 0x17990, symSize: 0x2D0 }
  - { offsetInCU: 0x2D9C, offset: 0x86652, size: 0x8, addend: 0x0, symName: '__ZN102_$LT$syn..punctuated..Punctuated$LT$T$C$P$GT$$u20$as$u20$core..iter..traits..collect..IntoIterator$GT$9into_iter17h87cea47e2410db63E', symObjAddr: 0x420, symBinAddr: 0x17C60, symSize: 0x2D0 }
  - { offsetInCU: 0x3A3B, offset: 0x872F1, size: 0x8, addend: 0x0, symName: '__ZN102_$LT$syn..punctuated..Punctuated$LT$T$C$P$GT$$u20$as$u20$core..iter..traits..collect..IntoIterator$GT$9into_iter17h994e10da0643ad14E', symObjAddr: 0x6F0, symBinAddr: 0x17F30, symSize: 0x2D0 }
  - { offsetInCU: 0x4826, offset: 0x880DC, size: 0x8, addend: 0x0, symName: '__ZN105_$LT$syn..punctuated..Punctuated$LT$T$C$P$GT$$u20$as$u20$core..iter..traits..collect..Extend$LT$T$GT$$GT$6extend17he85a2bd81812659cE', symObjAddr: 0x9C0, symBinAddr: 0x18200, symSize: 0x140 }
  - { offsetInCU: 0x4C22, offset: 0x884D8, size: 0x8, addend: 0x0, symName: '__ZN111_$LT$syn..punctuated..PrivateIter$LT$T$C$P$GT$$u20$as$u20$core..iter..traits..exact_size..ExactSizeIterator$GT$3len17h01af276a7c5c270eE.llvm.17008197666061784203', symObjAddr: 0xB00, symBinAddr: 0x18340, symSize: 0x0 }
  - { offsetInCU: 0x4D11, offset: 0x885C7, size: 0x8, addend: 0x0, symName: '__ZN111_$LT$syn..punctuated..PrivateIter$LT$T$C$P$GT$$u20$as$u20$core..iter..traits..exact_size..ExactSizeIterator$GT$3len17h35dcbcfcfe101068E.llvm.17008197666061784203', symObjAddr: 0xB80, symBinAddr: 0x18370, symSize: 0x30 }
  - { offsetInCU: 0x4E84, offset: 0x8873A, size: 0x8, addend: 0x0, symName: '__ZN111_$LT$syn..punctuated..Punctuated$LT$T$C$P$GT$$u20$as$u20$core..iter..traits..collect..FromIterator$LT$T$GT$$GT$9from_iter17h1fb0ad66a9cf7df0E', symObjAddr: 0xC40, symBinAddr: 0x183A0, symSize: 0x190 }
  - { offsetInCU: 0x5251, offset: 0x88B07, size: 0x8, addend: 0x0, symName: '__ZN111_$LT$syn..punctuated..Punctuated$LT$T$C$P$GT$$u20$as$u20$core..iter..traits..collect..FromIterator$LT$T$GT$$GT$9from_iter17h242d5af42ec6f97cE', symObjAddr: 0xDD0, symBinAddr: 0x18530, symSize: 0x390 }
  - { offsetInCU: 0x5B2C, offset: 0x893E2, size: 0x8, addend: 0x0, symName: '__ZN111_$LT$syn..punctuated..Punctuated$LT$T$C$P$GT$$u20$as$u20$core..iter..traits..collect..FromIterator$LT$T$GT$$GT$9from_iter17hc40ef293963b4dd4E', symObjAddr: 0x1160, symBinAddr: 0x188C0, symSize: 0x200 }
  - { offsetInCU: 0x5FA9, offset: 0x8985F, size: 0x8, addend: 0x0, symName: '__ZN115_$LT$syn..punctuated..PrivateIter$LT$T$C$P$GT$$u20$as$u20$core..iter..traits..double_ended..DoubleEndedIterator$GT$9next_back17h374e44ba0dbad4a9E.llvm.17008197666061784203', symObjAddr: 0x1360, symBinAddr: 0x18AC0, symSize: 0x0 }
  - { offsetInCU: 0x627C, offset: 0x89B32, size: 0x8, addend: 0x0, symName: '__ZN115_$LT$syn..punctuated..PrivateIter$LT$T$C$P$GT$$u20$as$u20$core..iter..traits..double_ended..DoubleEndedIterator$GT$9next_back17h8735db60f5db7161E.llvm.17008197666061784203', symObjAddr: 0x1450, symBinAddr: 0x18AF0, symSize: 0x30 }
  - { offsetInCU: 0x6800, offset: 0x8A0B6, size: 0x8, addend: 0x0, symName: '__ZN57_$LT$I$u20$as$u20$syn..punctuated..IterTrait$LT$T$GT$$GT$9clone_box17h238ca8864600998dE.llvm.17008197666061784203', symObjAddr: 0xBBA0, symBinAddr: 0x221B0, symSize: 0x60 }
  - { offsetInCU: 0x6A0D, offset: 0x8A2C3, size: 0x8, addend: 0x0, symName: '__ZN57_$LT$I$u20$as$u20$syn..punctuated..IterTrait$LT$T$GT$$GT$9clone_box17h4f79e2ef33aa5874E.llvm.17008197666061784203', symObjAddr: 0xBCC0, symBinAddr: 0x22210, symSize: 0x60 }
  - { offsetInCU: 0x6C1A, offset: 0x8A4D0, size: 0x8, addend: 0x0, symName: '__ZN57_$LT$I$u20$as$u20$syn..punctuated..IterTrait$LT$T$GT$$GT$9clone_box17h7776655a91858a79E.llvm.17008197666061784203', symObjAddr: 0xBD20, symBinAddr: 0x22270, symSize: 0x60 }
  - { offsetInCU: 0x6E2D, offset: 0x8A6E3, size: 0x8, addend: 0x0, symName: '__ZN79_$LT$syn..punctuated..Punctuated$LT$T$C$P$GT$$u20$as$u20$core..clone..Clone$GT$5clone17hbb3e473caad45084E', symObjAddr: 0xBF00, symBinAddr: 0x222D0, symSize: 0xE0 }
  - { offsetInCU: 0xBCB4, offset: 0x8F56A, size: 0x8, addend: 0x0, symName: '__ZN40_$LT$F$u20$as$u20$syn..parse..Parser$GT$14__parse_scoped17h2df863a016faad7aE', symObjAddr: 0x1EB0, symBinAddr: 0x19020, symSize: 0x790 }
  - { offsetInCU: 0xCDEF, offset: 0x906A5, size: 0x8, addend: 0x0, symName: '__ZN40_$LT$F$u20$as$u20$syn..parse..Parser$GT$14__parse_scoped17h379aebc36bcff21eE', symObjAddr: 0x2640, symBinAddr: 0x197B0, symSize: 0x570 }
  - { offsetInCU: 0x10C3F, offset: 0x944F5, size: 0x8, addend: 0x0, symName: '__ZN4core3ptr100drop_in_place$LT$core..option..Option$LT$alloc..boxed..Box$LT$syn..path..GenericArgument$GT$$GT$$GT$17h807a36ffbab107a4E.llvm.17008197666061784203', symObjAddr: 0x2BB0, symBinAddr: 0x19D20, symSize: 0x50 }
  - { offsetInCU: 0x10FDD, offset: 0x94893, size: 0x8, addend: 0x0, symName: '__ZN4core3ptr100drop_in_place$LT$syn..punctuated..Punctuated$LT$syn..path..PathSegment$C$syn..token..PathSep$GT$$GT$17hcb9c7ae6720123ceE', symObjAddr: 0x2C00, symBinAddr: 0x19D70, symSize: 0x270 }
  - { offsetInCU: 0x11980, offset: 0x95236, size: 0x8, addend: 0x0, symName: '__ZN4core3ptr101drop_in_place$LT$alloc..vec..Vec$LT$$LP$syn..generics..WherePredicate$C$syn..token..Comma$RP$$GT$$GT$17hc7364c0b4c022db4E.llvm.17008197666061784203', symObjAddr: 0x2E70, symBinAddr: 0x19FE0, symSize: 0xD0 }
  - { offsetInCU: 0x11C97, offset: 0x9554D, size: 0x8, addend: 0x0, symName: '__ZN4core3ptr101drop_in_place$LT$core..option..Option$LT$alloc..boxed..Box$LT$syn..generics..GenericParam$GT$$GT$$GT$17h2214ea905dba9bafE.llvm.17008197666061784203', symObjAddr: 0x2F40, symBinAddr: 0x1A0B0, symSize: 0x90 }
  - { offsetInCU: 0x11E30, offset: 0x956E6, size: 0x8, addend: 0x0, symName: '__ZN4core3ptr103drop_in_place$LT$core..option..Option$LT$alloc..boxed..Box$LT$syn..generics..TypeParamBound$GT$$GT$$GT$17h0017d361ebb9471fE', symObjAddr: 0x2FD0, symBinAddr: 0x1A140, symSize: 0x50 }
  - { offsetInCU: 0x11FBF, offset: 0x95875, size: 0x8, addend: 0x0, symName: '__ZN4core3ptr103drop_in_place$LT$core..option..Option$LT$alloc..boxed..Box$LT$syn..generics..WherePredicate$GT$$GT$$GT$17he4ee84860b39964eE.llvm.17008197666061784203', symObjAddr: 0x3020, symBinAddr: 0x1A190, symSize: 0x50 }
  - { offsetInCU: 0x1217F, offset: 0x95A35, size: 0x8, addend: 0x0, symName: '__ZN4core3ptr103drop_in_place$LT$syn..punctuated..Punctuated$LT$syn..generics..GenericParam$C$syn..token..Comma$GT$$GT$17hf5a644fae414a53cE.llvm.17008197666061784203', symObjAddr: 0x3070, symBinAddr: 0x1A1E0, symSize: 0xF0 }
  - { offsetInCU: 0x12699, offset: 0x95F4F, size: 0x8, addend: 0x0, symName: '__ZN4core3ptr104drop_in_place$LT$syn..punctuated..Punctuated$LT$syn..generics..TypeParamBound$C$syn..token..Plus$GT$$GT$17ha86a9d1599e32cffE.llvm.17008197666061784203', symObjAddr: 0x3160, symBinAddr: 0x1A2D0, symSize: 0x240 }
  - { offsetInCU: 0x12F54, offset: 0x9680A, size: 0x8, addend: 0x0, symName: '__ZN4core3ptr105drop_in_place$LT$syn..punctuated..Punctuated$LT$syn..generics..WherePredicate$C$syn..token..Comma$GT$$GT$17h0facfbae47ccf694E.llvm.17008197666061784203', symObjAddr: 0x33A0, symBinAddr: 0x1A510, symSize: 0x120 }
  - { offsetInCU: 0x133E5, offset: 0x96C9B, size: 0x8, addend: 0x0, symName: '__ZN4core3ptr113drop_in_place$LT$alloc..vec..Vec$LT$borsh_derive..internals..attributes..field..schema..ParameterOverride$GT$$GT$17h6fa10cebfae39231E.llvm.17008197666061784203', symObjAddr: 0x34C0, symBinAddr: 0x1A630, symSize: 0x110 }
  - { offsetInCU: 0x137D3, offset: 0x97089, size: 0x8, addend: 0x0, symName: '__ZN4core3ptr118drop_in_place$LT$$LP$borsh_derive..internals..attributes..field..schema..ParameterOverride$C$syn..token..Comma$RP$$GT$17hb9fd9782232d7c0cE', symObjAddr: 0x35D0, symBinAddr: 0x1A740, symSize: 0x50 }
  - { offsetInCU: 0x137FD, offset: 0x970B3, size: 0x8, addend: 0x0, symName: '__ZN4core3ptr118drop_in_place$LT$$LP$borsh_derive..internals..attributes..field..schema..ParameterOverride$C$syn..token..Comma$RP$$GT$17hb9fd9782232d7c0cE', symObjAddr: 0x35D0, symBinAddr: 0x1A740, symSize: 0x50 }
  - { offsetInCU: 0x1381B, offset: 0x970D1, size: 0x8, addend: 0x0, symName: '__ZN4core3ptr118drop_in_place$LT$$LP$borsh_derive..internals..attributes..field..schema..ParameterOverride$C$syn..token..Comma$RP$$GT$17hb9fd9782232d7c0cE', symObjAddr: 0x35D0, symBinAddr: 0x1A740, symSize: 0x50 }
  - { offsetInCU: 0x13839, offset: 0x970EF, size: 0x8, addend: 0x0, symName: '__ZN4core3ptr118drop_in_place$LT$$LP$borsh_derive..internals..attributes..field..schema..ParameterOverride$C$syn..token..Comma$RP$$GT$17hb9fd9782232d7c0cE', symObjAddr: 0x35D0, symBinAddr: 0x1A740, symSize: 0x50 }
  - { offsetInCU: 0x13924, offset: 0x971DA, size: 0x8, addend: 0x0, symName: '__ZN4core3ptr141drop_in_place$LT$alloc..vec..Vec$LT$$LP$borsh_derive..internals..attributes..field..schema..ParameterOverride$C$syn..token..Comma$RP$$GT$$GT$17hc108f5553d4af2a5E.llvm.17008197666061784203', symObjAddr: 0x3620, symBinAddr: 0x1A790, symSize: 0x110 }
  - { offsetInCU: 0x13D16, offset: 0x975CC, size: 0x8, addend: 0x0, symName: '__ZN4core3ptr143drop_in_place$LT$core..option..Option$LT$alloc..boxed..Box$LT$borsh_derive..internals..attributes..field..schema..ParameterOverride$GT$$GT$$GT$17h504bfdb7c6aedce8E.llvm.17008197666061784203', symObjAddr: 0x3730, symBinAddr: 0x1A8A0, symSize: 0x80 }
  - { offsetInCU: 0x13FB5, offset: 0x9786B, size: 0x8, addend: 0x0, symName: '__ZN4core3ptr145drop_in_place$LT$syn..punctuated..Punctuated$LT$borsh_derive..internals..attributes..field..schema..ParameterOverride$C$syn..token..Comma$GT$$GT$17h78fad09faf4b39d7E', symObjAddr: 0x37B0, symBinAddr: 0x1A920, symSize: 0x190 }
  - { offsetInCU: 0x14600, offset: 0x97EB6, size: 0x8, addend: 0x0, symName: '__ZN4core3ptr198drop_in_place$LT$core..iter..adapters..map..Map$LT$syn..punctuated..Iter$LT$syn..generics..GenericParam$GT$$C$borsh_derive..internals..generics..without_defaults..$u7b$$u7b$closure$u7d$$u7d$$GT$$GT$17hc1bdb45ad268a0a3E.llvm.17008197666061784203', symObjAddr: 0x3940, symBinAddr: 0x1AAB0, symSize: 0x0 }
  - { offsetInCU: 0x147F5, offset: 0x980AB, size: 0x8, addend: 0x0, symName: '__ZN4core3ptr34drop_in_place$LT$syn..lit..Lit$GT$17h7e230476d36822bfE', symObjAddr: 0x3970, symBinAddr: 0x1AAE0, symSize: 0x120 }
  - { offsetInCU: 0x14CC4, offset: 0x9857A, size: 0x8, addend: 0x0, symName: '__ZN4core3ptr34drop_in_place$LT$syn..pat..Pat$GT$17h5b0a97e980f53e46E', symObjAddr: 0x3A90, symBinAddr: 0x1AC00, symSize: 0x1090 }
  - { offsetInCU: 0x18CC4, offset: 0x9C57A, size: 0x8, addend: 0x0, symName: '__ZN4core3ptr34drop_in_place$LT$syn..ty..Type$GT$17h19f850f61918f31fE.llvm.17008197666061784203', symObjAddr: 0x4B20, symBinAddr: 0x1BC90, symSize: 0x4F0 }
  - { offsetInCU: 0x1A207, offset: 0x9DABD, size: 0x8, addend: 0x0, symName: '__ZN4core3ptr36drop_in_place$LT$syn..expr..Expr$GT$17h98f7f68f0a06dff7E.llvm.17008197666061784203', symObjAddr: 0x5010, symBinAddr: 0x1C180, symSize: 0x27D0 }
  - { offsetInCU: 0x2393B, offset: 0xA71F1, size: 0x8, addend: 0x0, symName: '__ZN4core3ptr36drop_in_place$LT$syn..mac..Macro$GT$17hdf5bac46d7f74bccE', symObjAddr: 0x77E0, symBinAddr: 0x1E950, symSize: 0x40 }
  - { offsetInCU: 0x23975, offset: 0xA722B, size: 0x8, addend: 0x0, symName: '__ZN4core3ptr36drop_in_place$LT$syn..path..Path$GT$17hb2feba4d905af1b2E', symObjAddr: 0x7820, symBinAddr: 0x1E990, symSize: 0x120 }
  - { offsetInCU: 0x23DBE, offset: 0xA7674, size: 0x8, addend: 0x0, symName: '__ZN4core3ptr37drop_in_place$LT$syn..stmt..Block$GT$17h9594e7bdfd216ee2E', symObjAddr: 0x7940, symBinAddr: 0x1EAB0, symSize: 0xD0 }
  - { offsetInCU: 0x24095, offset: 0xA794B, size: 0x8, addend: 0x0, symName: '__ZN4core3ptr38drop_in_place$LT$syn..expr..Member$GT$17hd3bc25e187f7fae3E', symObjAddr: 0x7A10, symBinAddr: 0x1EB80, symSize: 0x30 }
  - { offsetInCU: 0x24191, offset: 0xA7A47, size: 0x8, addend: 0x0, symName: '__ZN4core3ptr39drop_in_place$LT$proc_macro2..Ident$GT$17hb5fbe0c131bfa218E.llvm.17008197666061784203', symObjAddr: 0x7A40, symBinAddr: 0x1EBB0, symSize: 0x30 }
  - { offsetInCU: 0x243A4, offset: 0xA7C5A, size: 0x8, addend: 0x0, symName: '__ZN4core3ptr39drop_in_place$LT$syn..buffer..Entry$GT$17h0b9baa6bbaf945c7E', symObjAddr: 0x7A70, symBinAddr: 0x1EBE0, symSize: 0xB0 }
  - { offsetInCU: 0x2472F, offset: 0xA7FE5, size: 0x8, addend: 0x0, symName: '__ZN4core3ptr40drop_in_place$LT$syn..ty..ReturnType$GT$17h2041b3e02720652aE', symObjAddr: 0x7B20, symBinAddr: 0x1EC90, symSize: 0x50 }
  - { offsetInCU: 0x2489F, offset: 0xA8155, size: 0x8, addend: 0x0, symName: '__ZN4core3ptr41drop_in_place$LT$syn..expr..ExprConst$GT$17h546d2eac1f274d91E', symObjAddr: 0x7B70, symBinAddr: 0x1ECE0, symSize: 0x180 }
  - { offsetInCU: 0x24E58, offset: 0xA870E, size: 0x8, addend: 0x0, symName: '__ZN4core3ptr43drop_in_place$LT$syn..path..PathSegment$GT$17h0721b544fffbe36eE.llvm.17008197666061784203', symObjAddr: 0x7CF0, symBinAddr: 0x1EE60, symSize: 0x190 }
  - { offsetInCU: 0x253BC, offset: 0xA8C72, size: 0x8, addend: 0x0, symName: '__ZN4core3ptr44drop_in_place$LT$syn..lifetime..Lifetime$GT$17h8afd172b97690efdE.llvm.17008197666061784203', symObjAddr: 0x7E80, symBinAddr: 0x1EFF0, symSize: 0x30 }
  - { offsetInCU: 0x254B8, offset: 0xA8D6E, size: 0x8, addend: 0x0, symName: '__ZN4core3ptr44drop_in_place$LT$syn..parse..ParseBuffer$GT$17h09013ce2f932da57E', symObjAddr: 0x7EB0, symBinAddr: 0x1F020, symSize: 0x70 }
  - { offsetInCU: 0x25834, offset: 0xA90EA, size: 0x8, addend: 0x0, symName: '__ZN4core3ptr45drop_in_place$LT$proc_macro2..TokenStream$GT$17h207b9d10b43ca09fE', symObjAddr: 0x7F20, symBinAddr: 0x1F090, symSize: 0x140 }
  - { offsetInCU: 0x25C90, offset: 0xA9546, size: 0x8, addend: 0x0, symName: '__ZN4core3ptr45drop_in_place$LT$syn..buffer..TokenBuffer$GT$17ha41c7bdecc45d618E', symObjAddr: 0x8060, symBinAddr: 0x1F1D0, symSize: 0xC0 }
  - { offsetInCU: 0x25EF8, offset: 0xA97AE, size: 0x8, addend: 0x0, symName: '__ZN4core3ptr45drop_in_place$LT$syn..generics..TypeParam$GT$17h6c3c07424bcf6a4eE.llvm.17008197666061784203', symObjAddr: 0x8120, symBinAddr: 0x1F290, symSize: 0x230 }
  - { offsetInCU: 0x26739, offset: 0xA9FEF, size: 0x8, addend: 0x0, symName: '__ZN4core3ptr46drop_in_place$LT$syn..generics..ConstParam$GT$17hd0de4a5923445da7E.llvm.17008197666061784203', symObjAddr: 0x8350, symBinAddr: 0x1F4C0, symSize: 0x150 }
  - { offsetInCU: 0x26B86, offset: 0xAA43C, size: 0x8, addend: 0x0, symName: '__ZN4core3ptr47drop_in_place$LT$syn..path..GenericArgument$GT$17hf4dd383aa34a4f0fE.llvm.17008197666061784203', symObjAddr: 0x84A0, symBinAddr: 0x1F610, symSize: 0x4A0 }
  - { offsetInCU: 0x27C8C, offset: 0xAB542, size: 0x8, addend: 0x0, symName: '__ZN4core3ptr48drop_in_place$LT$syn..generics..GenericParam$GT$17h0e26a9446f7f3380E', symObjAddr: 0x8940, symBinAddr: 0x1FAB0, symSize: 0x40 }
  - { offsetInCU: 0x27CA9, offset: 0xAB55F, size: 0x8, addend: 0x0, symName: '__ZN4core3ptr49drop_in_place$LT$syn..generics..LifetimeParam$GT$17hd0b2e7526885b204E.llvm.17008197666061784203', symObjAddr: 0x8980, symBinAddr: 0x1FAF0, symSize: 0xF0 }
  - { offsetInCU: 0x2808C, offset: 0xAB942, size: 0x8, addend: 0x0, symName: '__ZN4core3ptr50drop_in_place$LT$syn..generics..TypeParamBound$GT$17hdc238d3175f8eb5aE', symObjAddr: 0x8A70, symBinAddr: 0x1FBE0, symSize: 0xA0 }
  - { offsetInCU: 0x28230, offset: 0xABAE6, size: 0x8, addend: 0x0, symName: '__ZN4core3ptr50drop_in_place$LT$syn..generics..WherePredicate$GT$17h36871859cc3339e6E.llvm.17008197666061784203', symObjAddr: 0x8B10, symBinAddr: 0x1FC80, symSize: 0xA0 }
  - { offsetInCU: 0x283D4, offset: 0xABC8A, size: 0x8, addend: 0x0, symName: '__ZN4core3ptr58drop_in_place$LT$alloc..vec..Vec$LT$syn..expr..Arm$GT$$GT$17ha0ec4334cda5515cE', symObjAddr: 0x8BB0, symBinAddr: 0x1FD20, symSize: 0xD0 }
  - { offsetInCU: 0x28694, offset: 0xABF4A, size: 0x8, addend: 0x0, symName: '__ZN4core3ptr59drop_in_place$LT$alloc..boxed..Box$LT$syn..pat..Pat$GT$$GT$17h67f20b4715509286E', symObjAddr: 0x8C80, symBinAddr: 0x1FDF0, symSize: 0x50 }
  - { offsetInCU: 0x287ED, offset: 0xAC0A3, size: 0x8, addend: 0x0, symName: '__ZN4core3ptr59drop_in_place$LT$alloc..boxed..Box$LT$syn..ty..Type$GT$$GT$17hb9082e267b94188dE.llvm.17008197666061784203', symObjAddr: 0x8CD0, symBinAddr: 0x1FE40, symSize: 0x50 }
  - { offsetInCU: 0x28946, offset: 0xAC1FC, size: 0x8, addend: 0x0, symName: '__ZN4core3ptr61drop_in_place$LT$alloc..boxed..Box$LT$syn..expr..Expr$GT$$GT$17h01310d89a7a8aab3E', symObjAddr: 0x8D20, symBinAddr: 0x1FE90, symSize: 0x50 }
  - { offsetInCU: 0x28B1B, offset: 0xAC3D1, size: 0x8, addend: 0x0, symName: '__ZN4core3ptr61drop_in_place$LT$syn..path..ParenthesizedGenericArguments$GT$17h7fee2959ae354450E.llvm.17008197666061784203', symObjAddr: 0x8D70, symBinAddr: 0x1FEE0, symSize: 0x170 }
  - { offsetInCU: 0x29111, offset: 0xAC9C7, size: 0x8, addend: 0x0, symName: '__ZN4core3ptr62drop_in_place$LT$syn..path..AngleBracketedGenericArguments$GT$17h79141db867cfe0cbE.llvm.17008197666061784203', symObjAddr: 0x8EE0, symBinAddr: 0x20050, symSize: 0x120 }
  - { offsetInCU: 0x2955C, offset: 0xACE12, size: 0x8, addend: 0x0, symName: '__ZN4core3ptr63drop_in_place$LT$alloc..boxed..Box$LT$syn..lit..LitRepr$GT$$GT$17hf23a84bed7f64f98E', symObjAddr: 0x9000, symBinAddr: 0x20170, symSize: 0x60 }
  - { offsetInCU: 0x29863, offset: 0xAD119, size: 0x8, addend: 0x0, symName: '__ZN4core3ptr64drop_in_place$LT$alloc..boxed..Box$LT$syn..pat..FieldPat$GT$$GT$17ha5ec27d4d418dbdfE', symObjAddr: 0x9060, symBinAddr: 0x201D0, symSize: 0x140 }
  - { offsetInCU: 0x29F30, offset: 0xAD7E6, size: 0x8, addend: 0x0, symName: '__ZN4core3ptr64drop_in_place$LT$alloc..boxed..Box$LT$syn..ty..BareFnArg$GT$$GT$17hb416cdff09d8949eE', symObjAddr: 0x91A0, symBinAddr: 0x20310, symSize: 0x140 }
  - { offsetInCU: 0x2A485, offset: 0xADD3B, size: 0x8, addend: 0x0, symName: '__ZN4core3ptr65drop_in_place$LT$alloc..vec..Vec$LT$proc_macro..TokenTree$GT$$GT$17h54365d0bdf61b883E', symObjAddr: 0x92E0, symBinAddr: 0x20450, symSize: 0x110 }
  - { offsetInCU: 0x2A87D, offset: 0xAE133, size: 0x8, addend: 0x0, symName: '__ZN4core3ptr65drop_in_place$LT$core..option..Option$LT$syn..expr..Label$GT$$GT$17h6cb338f3d3fef208E', symObjAddr: 0x93F0, symBinAddr: 0x20560, symSize: 0x30 }
  - { offsetInCU: 0x2A9B7, offset: 0xAE26D, size: 0x8, addend: 0x0, symName: '__ZN4core3ptr66drop_in_place$LT$core..option..Option$LT$syn..pat..PatRest$GT$$GT$17h7c9095b226142979E', symObjAddr: 0x9420, symBinAddr: 0x20590, symSize: 0xE0 }
  - { offsetInCU: 0x2ACAB, offset: 0xAE561, size: 0x8, addend: 0x0, symName: '__ZN4core3ptr67drop_in_place$LT$alloc..boxed..Box$LT$syn..expr..FieldValue$GT$$GT$17hb048d8ef1ec03e8dE', symObjAddr: 0x9500, symBinAddr: 0x20670, symSize: 0x140 }
  - { offsetInCU: 0x2B1E0, offset: 0xAEA96, size: 0x8, addend: 0x0, symName: '__ZN4core3ptr68drop_in_place$LT$alloc..boxed..Box$LT$syn..path..PathSegment$GT$$GT$17h582dcd8abb4b1a74E', symObjAddr: 0x9640, symBinAddr: 0x207B0, symSize: 0x1B0 }
  - { offsetInCU: 0x2B8EE, offset: 0xAF1A4, size: 0x8, addend: 0x0, symName: '__ZN4core3ptr70drop_in_place$LT$core..option..Option$LT$syn..ty..BareVariadic$GT$$GT$17hf6d2a770387443a3E', symObjAddr: 0x97F0, symBinAddr: 0x20960, symSize: 0x100 }
  - { offsetInCU: 0x2BD25, offset: 0xAF5DB, size: 0x8, addend: 0x0, symName: '__ZN4core3ptr71drop_in_place$LT$alloc..vec..Vec$LT$syn..generics..GenericParam$GT$$GT$17hb33167e3254965b5E.llvm.17008197666061784203', symObjAddr: 0x98F0, symBinAddr: 0x20A60, symSize: 0x60 }
  - { offsetInCU: 0x2BF86, offset: 0xAF83C, size: 0x8, addend: 0x0, symName: '__ZN4core3ptr72drop_in_place$LT$alloc..boxed..Box$LT$syn..path..GenericArgument$GT$$GT$17hcc60f7ab467d198fE', symObjAddr: 0x9950, symBinAddr: 0x20AC0, symSize: 0x2B0 }
  - { offsetInCU: 0x2C93E, offset: 0xB01F4, size: 0x8, addend: 0x0, symName: '__ZN4core3ptr72drop_in_place$LT$core..option..Option$LT$syn..lifetime..Lifetime$GT$$GT$17h70ad3b488ebe3596E', symObjAddr: 0x9C00, symBinAddr: 0x20D70, symSize: 0x30 }
  - { offsetInCU: 0x2CA59, offset: 0xB030F, size: 0x8, addend: 0x0, symName: '__ZN4core3ptr73drop_in_place$LT$alloc..boxed..Box$LT$syn..generics..GenericParam$GT$$GT$17hd8823d2eb1a41dfaE.llvm.17008197666061784203', symObjAddr: 0x9C30, symBinAddr: 0x20DA0, symSize: 0x80 }
  - { offsetInCU: 0x2CBEE, offset: 0xB04A4, size: 0x8, addend: 0x0, symName: '__ZN4core3ptr73drop_in_place$LT$alloc..vec..Vec$LT$syn..generics..WherePredicate$GT$$GT$17h339feaab3a542528E.llvm.17008197666061784203', symObjAddr: 0x9CB0, symBinAddr: 0x20E20, symSize: 0xD0 }
  - { offsetInCU: 0x2CEC1, offset: 0xB0777, size: 0x8, addend: 0x0, symName: '__ZN4core3ptr75drop_in_place$LT$alloc..boxed..Box$LT$syn..generics..TypeParamBound$GT$$GT$17hc0dbc3e6560133a8E', symObjAddr: 0x9D80, symBinAddr: 0x20EF0, symSize: 0x180 }
  - { offsetInCU: 0x2D450, offset: 0xB0D06, size: 0x8, addend: 0x0, symName: '__ZN4core3ptr76drop_in_place$LT$$LP$syn..generics..GenericParam$C$syn..token..Comma$RP$$GT$17h0bb5aafe5c3ba690E', symObjAddr: 0x9F00, symBinAddr: 0x21070, symSize: 0x40 }
  - { offsetInCU: 0x2D4FC, offset: 0xB0DB2, size: 0x8, addend: 0x0, symName: '__ZN4core3ptr86drop_in_place$LT$syn..punctuated..Punctuated$LT$syn..pat..Pat$C$syn..token..Or$GT$$GT$17hb407e891b009195eE', symObjAddr: 0x9F40, symBinAddr: 0x210B0, symSize: 0x120 }
  - { offsetInCU: 0x2D977, offset: 0xB122D, size: 0x8, addend: 0x0, symName: '__ZN4core3ptr87drop_in_place$LT$core..option..Option$LT$alloc..boxed..Box$LT$syn..pat..Pat$GT$$GT$$GT$17h27575db68a752b00E', symObjAddr: 0xA060, symBinAddr: 0x211D0, symSize: 0x50 }
  - { offsetInCU: 0x2DAE7, offset: 0xB139D, size: 0x8, addend: 0x0, symName: '__ZN4core3ptr87drop_in_place$LT$core..option..Option$LT$alloc..boxed..Box$LT$syn..ty..Type$GT$$GT$$GT$17h2cce7e91b6f26339E.llvm.17008197666061784203', symObjAddr: 0xA0B0, symBinAddr: 0x21220, symSize: 0x50 }
  - { offsetInCU: 0x2DC57, offset: 0xB150D, size: 0x8, addend: 0x0, symName: '__ZN4core3ptr89drop_in_place$LT$core..option..Option$LT$alloc..boxed..Box$LT$syn..expr..Expr$GT$$GT$$GT$17h4805299351d776eaE', symObjAddr: 0xA100, symBinAddr: 0x21270, symSize: 0x50 }
  - { offsetInCU: 0x2DE05, offset: 0xB16BB, size: 0x8, addend: 0x0, symName: '__ZN4core3ptr89drop_in_place$LT$syn..punctuated..Punctuated$LT$syn..pat..Pat$C$syn..token..Comma$GT$$GT$17hbfa21962153cb723E', symObjAddr: 0xA150, symBinAddr: 0x212C0, symSize: 0x120 }
  - { offsetInCU: 0x2E297, offset: 0xB1B4D, size: 0x8, addend: 0x0, symName: '__ZN4core3ptr89drop_in_place$LT$syn..punctuated..Punctuated$LT$syn..ty..Type$C$syn..token..Comma$GT$$GT$17h487f88da4f994ccfE', symObjAddr: 0xA270, symBinAddr: 0x213E0, symSize: 0x120 }
  - { offsetInCU: 0x2E712, offset: 0xB1FC8, size: 0x8, addend: 0x0, symName: '__ZN4core3ptr90drop_in_place$LT$borsh_derive..internals..attributes..field..schema..ParameterOverride$GT$17h1d663f6e7c19f7c3E', symObjAddr: 0xA390, symBinAddr: 0x21500, symSize: 0x50 }
  - { offsetInCU: 0x2E732, offset: 0xB1FE8, size: 0x8, addend: 0x0, symName: '__ZN4core3ptr90drop_in_place$LT$borsh_derive..internals..attributes..field..schema..ParameterOverride$GT$17h1d663f6e7c19f7c3E', symObjAddr: 0xA390, symBinAddr: 0x21500, symSize: 0x50 }
  - { offsetInCU: 0x2E750, offset: 0xB2006, size: 0x8, addend: 0x0, symName: '__ZN4core3ptr90drop_in_place$LT$borsh_derive..internals..attributes..field..schema..ParameterOverride$GT$17h1d663f6e7c19f7c3E', symObjAddr: 0xA390, symBinAddr: 0x21500, symSize: 0x50 }
  - { offsetInCU: 0x2E812, offset: 0xB20C8, size: 0x8, addend: 0x0, symName: '__ZN4core3ptr90drop_in_place$LT$core..option..Option$LT$syn..path..AngleBracketedGenericArguments$GT$$GT$17h44b2ad11f3f45684E', symObjAddr: 0xA3E0, symBinAddr: 0x21550, symSize: 0x130 }
  - { offsetInCU: 0x2ECB4, offset: 0xB256A, size: 0x8, addend: 0x0, symName: '__ZN4core3ptr91drop_in_place$LT$syn..punctuated..Punctuated$LT$syn..expr..Expr$C$syn..token..Comma$GT$$GT$17hd2c79695be72d75eE', symObjAddr: 0xA510, symBinAddr: 0x21680, symSize: 0x120 }
  - { offsetInCU: 0x2F142, offset: 0xB29F8, size: 0x8, addend: 0x0, symName: '__ZN4core3ptr94drop_in_place$LT$syn..punctuated..Punctuated$LT$syn..pat..FieldPat$C$syn..token..Comma$GT$$GT$17hb2b4aed8f633cba0E', symObjAddr: 0xA630, symBinAddr: 0x217A0, symSize: 0xF0 }
  - { offsetInCU: 0x2F441, offset: 0xB2CF7, size: 0x8, addend: 0x0, symName: '__ZN4core3ptr94drop_in_place$LT$syn..punctuated..Punctuated$LT$syn..ty..BareFnArg$C$syn..token..Comma$GT$$GT$17h59c18cbb4f726140E', symObjAddr: 0xA720, symBinAddr: 0x21890, symSize: 0xF0 }
  - { offsetInCU: 0x2F742, offset: 0xB2FF8, size: 0x8, addend: 0x0, symName: '__ZN4core3ptr96drop_in_place$LT$core..option..Option$LT$alloc..boxed..Box$LT$syn..path..PathSegment$GT$$GT$$GT$17hd67a31bad3bc4ef4E.llvm.17008197666061784203', symObjAddr: 0xA810, symBinAddr: 0x21980, symSize: 0xA0 }
  - { offsetInCU: 0x2F9E0, offset: 0xB3296, size: 0x8, addend: 0x0, symName: '__ZN4core3ptr97drop_in_place$LT$syn..punctuated..Punctuated$LT$syn..expr..FieldValue$C$syn..token..Comma$GT$$GT$17h2644f25adad08ccbE', symObjAddr: 0xA900, symBinAddr: 0x21A20, symSize: 0xF0 }
  - { offsetInCU: 0x2FCDD, offset: 0xB3593, size: 0x8, addend: 0x0, symName: '__ZN4core3ptr98drop_in_place$LT$alloc..vec..Vec$LT$$LP$syn..path..GenericArgument$C$syn..token..Comma$RP$$GT$$GT$17h050ecd3ba4b8a9c3E', symObjAddr: 0xA9F0, symBinAddr: 0x21B10, symSize: 0xD0 }
  - { offsetInCU: 0x2FFFE, offset: 0xB38B4, size: 0x8, addend: 0x0, symName: '__ZN4core3ptr98drop_in_place$LT$syn..punctuated..Punctuated$LT$syn..lifetime..Lifetime$C$syn..token..Plus$GT$$GT$17hfbe9a104e4a4f23fE.llvm.17008197666061784203', symObjAddr: 0xAAC0, symBinAddr: 0x21BE0, symSize: 0xD0 }
  - { offsetInCU: 0x30472, offset: 0xB3D28, size: 0x8, addend: 0x0, symName: '__ZN4core3ptr99drop_in_place$LT$alloc..vec..Vec$LT$$LP$syn..generics..GenericParam$C$syn..token..Comma$RP$$GT$$GT$17hd5be3580214ccad0E.llvm.17008197666061784203', symObjAddr: 0xAB90, symBinAddr: 0x21CB0, symSize: 0x60 }
  - { offsetInCU: 0x3690B, offset: 0xBA1C1, size: 0x8, addend: 0x0, symName: __ZN4core4iter6traits8iterator8Iterator10advance_by17h170314e8fde4f770E.llvm.17008197666061784203, symObjAddr: 0xB500, symBinAddr: 0x21FB0, symSize: 0x0 }
  - { offsetInCU: 0x36C50, offset: 0xBA506, size: 0x8, addend: 0x0, symName: __ZN4core4iter6traits8iterator8Iterator10advance_by17h41cb4d25fd249605E.llvm.17008197666061784203, symObjAddr: 0xB640, symBinAddr: 0x22020, symSize: 0x70 }
  - { offsetInCU: 0x36FB4, offset: 0xBA86A, size: 0x8, addend: 0x0, symName: __ZN4core4iter6traits8iterator8Iterator3nth17h13bd6c2b94477dc4E.llvm.17008197666061784203, symObjAddr: 0xB880, symBinAddr: 0x22090, symSize: 0x0 }
  - { offsetInCU: 0x375C4, offset: 0xBAE7A, size: 0x8, addend: 0x0, symName: __ZN4core4iter6traits8iterator8Iterator3nth17h9af58f28a84f8ba4E.llvm.17008197666061784203, symObjAddr: 0xB900, symBinAddr: 0x22110, symSize: 0x80 }
  - { offsetInCU: 0x37B83, offset: 0xBB439, size: 0x8, addend: 0x0, symName: __ZN4core4iter6traits8iterator8Iterator9size_hint17h2663922286e33aa6E.llvm.17008197666061784203, symObjAddr: 0xBB80, symBinAddr: 0x22190, symSize: 0x0 }
  - { offsetInCU: 0x37C27, offset: 0xBB4DD, size: 0x8, addend: 0x0, symName: __ZN4core4iter6traits10exact_size17ExactSizeIterator8is_empty17h3fc97ffe80fe7b5cE.llvm.17008197666061784203, symObjAddr: 0xAC50, symBinAddr: 0x21D10, symSize: 0x0 }
  - { offsetInCU: 0x37DF9, offset: 0xBB6AF, size: 0x8, addend: 0x0, symName: __ZN4core4iter6traits10exact_size17ExactSizeIterator8is_empty17heb292e5e49c453e3E.llvm.17008197666061784203, symObjAddr: 0xAD10, symBinAddr: 0x21D40, symSize: 0x30 }
  - { offsetInCU: 0x37F71, offset: 0xBB827, size: 0x8, addend: 0x0, symName: __ZN4core4iter6traits12double_ended19DoubleEndedIterator15advance_back_by17h52c4fad987e2145fE.llvm.17008197666061784203, symObjAddr: 0xAE30, symBinAddr: 0x21D70, symSize: 0x0 }
  - { offsetInCU: 0x38193, offset: 0xBBA49, size: 0x8, addend: 0x0, symName: __ZN4core4iter6traits12double_ended19DoubleEndedIterator15advance_back_by17hace2d9a386e25f45E.llvm.17008197666061784203, symObjAddr: 0xB020, symBinAddr: 0x21DF0, symSize: 0x80 }
  - { offsetInCU: 0x38401, offset: 0xBBCB7, size: 0x8, addend: 0x0, symName: __ZN4core4iter6traits12double_ended19DoubleEndedIterator8nth_back17h052ff98abc9863b8E.llvm.17008197666061784203, symObjAddr: 0xB0A0, symBinAddr: 0x21E70, symSize: 0x0 }
  - { offsetInCU: 0x388EB, offset: 0xBC1A1, size: 0x8, addend: 0x0, symName: __ZN4core4iter6traits12double_ended19DoubleEndedIterator8nth_back17h59f10f3b6132d66dE.llvm.17008197666061784203, symObjAddr: 0xB320, symBinAddr: 0x21F10, symSize: 0xA0 }
  - { offsetInCU: 0x3CE08, offset: 0xC06BE, size: 0x8, addend: 0x0, symName: _anon.dedb1631e7eff6ae7da1fbe3b952a8bd.12.llvm.17008197666061784203, symObjAddr: 0xD878, symBinAddr: 0x3CC530, symSize: 0x0 }
  - { offsetInCU: 0x3CEE6, offset: 0xC079C, size: 0x8, addend: 0x0, symName: _anon.dedb1631e7eff6ae7da1fbe3b952a8bd.15.llvm.17008197666061784203, symObjAddr: 0xD988, symBinAddr: 0x3CC640, symSize: 0x0 }
  - { offsetInCU: 0x3CFF8, offset: 0xC08AE, size: 0x8, addend: 0x0, symName: _anon.dedb1631e7eff6ae7da1fbe3b952a8bd.24.llvm.17008197666061784203, symObjAddr: 0xDCB8, symBinAddr: 0x3CC750, symSize: 0x0 }
  - { offsetInCU: 0x3ECF7, offset: 0xC25AD, size: 0x8, addend: 0x0, symName: '__ZN3syn10punctuated23Punctuated$LT$T$C$P$GT$10push_punct17hb71b38f147a54774E.llvm.17008197666061784203', symObjAddr: 0x14B0, symBinAddr: 0x18B20, symSize: 0x110 }
  - { offsetInCU: 0x3F150, offset: 0xC2A06, size: 0x8, addend: 0x0, symName: '__ZN3syn10punctuated23Punctuated$LT$T$C$P$GT$10push_value17h0f4861a790b04413E', symObjAddr: 0x15C0, symBinAddr: 0x18C30, symSize: 0xF0 }
  - { offsetInCU: 0x3F39F, offset: 0xC2C55, size: 0x8, addend: 0x0, symName: '__ZN3syn10punctuated23Punctuated$LT$T$C$P$GT$10push_value17h3af82d700949e694E.llvm.17008197666061784203', symObjAddr: 0x16B0, symBinAddr: 0x18D20, symSize: 0x100 }
  - { offsetInCU: 0x3FC48, offset: 0xC34FE, size: 0x8, addend: 0x0, symName: '__ZN3syn10punctuated23Punctuated$LT$T$C$P$GT$4push17h84155dd1e4aeaec4E.llvm.17008197666061784203', symObjAddr: 0x1BE0, symBinAddr: 0x18E20, symSize: 0x200 }
  - { offsetInCU: 0x1357, offset: 0xCD1E5, size: 0x8, addend: 0x0, symName: '__ZN4core3ptr100drop_in_place$LT$core..option..Option$LT$alloc..boxed..Box$LT$syn..path..GenericArgument$GT$$GT$$GT$17h807a36ffbab107a4E', symObjAddr: 0x3E0, symBinAddr: 0x226E0, symSize: 0x50 }
  - { offsetInCU: 0x1698, offset: 0xCD526, size: 0x8, addend: 0x0, symName: '__ZN4core3ptr100drop_in_place$LT$syn..punctuated..Punctuated$LT$syn..path..PathSegment$C$syn..token..PathSep$GT$$GT$17hcb9c7ae6720123ceE.llvm.18330882100277081493', symObjAddr: 0x430, symBinAddr: 0x22730, symSize: 0x1C0 }
  - { offsetInCU: 0x1DB2, offset: 0xCDC40, size: 0x8, addend: 0x0, symName: '__ZN4core3ptr102drop_in_place$LT$syn..punctuated..Punctuated$LT$syn..path..GenericArgument$C$syn..token..Comma$GT$$GT$17h87ac6172553c146eE.llvm.18330882100277081493', symObjAddr: 0x5F0, symBinAddr: 0x228F0, symSize: 0xF0 }
  - { offsetInCU: 0x20D9, offset: 0xCDF67, size: 0x8, addend: 0x0, symName: '__ZN4core3ptr103drop_in_place$LT$core..option..Option$LT$alloc..boxed..Box$LT$syn..generics..TypeParamBound$GT$$GT$$GT$17h0017d361ebb9471fE', symObjAddr: 0x6E0, symBinAddr: 0x229E0, symSize: 0x50 }
  - { offsetInCU: 0x2268, offset: 0xCE0F6, size: 0x8, addend: 0x0, symName: '__ZN4core3ptr103drop_in_place$LT$core..option..Option$LT$alloc..boxed..Box$LT$syn..generics..WherePredicate$GT$$GT$$GT$17he4ee84860b39964eE', symObjAddr: 0x730, symBinAddr: 0x22A30, symSize: 0x50 }
  - { offsetInCU: 0x24B1, offset: 0xCE33F, size: 0x8, addend: 0x0, symName: '__ZN4core3ptr103drop_in_place$LT$syn..punctuated..Punctuated$LT$syn..generics..GenericParam$C$syn..token..Comma$GT$$GT$17hf5a644fae414a53cE.llvm.18330882100277081493', symObjAddr: 0x780, symBinAddr: 0x22A80, symSize: 0x1A0 }
  - { offsetInCU: 0x2ACB, offset: 0xCE959, size: 0x8, addend: 0x0, symName: '__ZN4core3ptr104drop_in_place$LT$syn..punctuated..Punctuated$LT$syn..generics..TypeParamBound$C$syn..token..Plus$GT$$GT$17ha86a9d1599e32cffE.llvm.18330882100277081493', symObjAddr: 0x920, symBinAddr: 0x22C20, symSize: 0x240 }
  - { offsetInCU: 0x3425, offset: 0xCF2B3, size: 0x8, addend: 0x0, symName: '__ZN4core3ptr105drop_in_place$LT$syn..punctuated..Punctuated$LT$syn..generics..WherePredicate$C$syn..token..Comma$GT$$GT$17h0facfbae47ccf694E', symObjAddr: 0xB60, symBinAddr: 0x22E60, symSize: 0x120 }
  - { offsetInCU: 0x3908, offset: 0xCF796, size: 0x8, addend: 0x0, symName: '__ZN4core3ptr113drop_in_place$LT$alloc..vec..Vec$LT$borsh_derive..internals..attributes..field..schema..ParameterOverride$GT$$GT$17h6fa10cebfae39231E', symObjAddr: 0xC80, symBinAddr: 0x22F80, symSize: 0x110 }
  - { offsetInCU: 0x3D1C, offset: 0xCFBAA, size: 0x8, addend: 0x0, symName: '__ZN4core3ptr116drop_in_place$LT$core..option..Option$LT$$LP$syn..token..Else$C$alloc..boxed..Box$LT$syn..expr..Expr$GT$$RP$$GT$$GT$17hb951ce330a3d3793E', symObjAddr: 0xD90, symBinAddr: 0x23090, symSize: 0x50 }
  - { offsetInCU: 0x3EA3, offset: 0xCFD31, size: 0x8, addend: 0x0, symName: '__ZN4core3ptr118drop_in_place$LT$$LP$borsh_derive..internals..attributes..field..schema..ParameterOverride$C$syn..token..Comma$RP$$GT$17hb9fd9782232d7c0cE.llvm.18330882100277081493', symObjAddr: 0xDE0, symBinAddr: 0x230E0, symSize: 0x50 }
  - { offsetInCU: 0x3EC3, offset: 0xCFD51, size: 0x8, addend: 0x0, symName: '__ZN4core3ptr118drop_in_place$LT$$LP$borsh_derive..internals..attributes..field..schema..ParameterOverride$C$syn..token..Comma$RP$$GT$17hb9fd9782232d7c0cE.llvm.18330882100277081493', symObjAddr: 0xDE0, symBinAddr: 0x230E0, symSize: 0x50 }
  - { offsetInCU: 0x3EE1, offset: 0xCFD6F, size: 0x8, addend: 0x0, symName: '__ZN4core3ptr118drop_in_place$LT$$LP$borsh_derive..internals..attributes..field..schema..ParameterOverride$C$syn..token..Comma$RP$$GT$17hb9fd9782232d7c0cE.llvm.18330882100277081493', symObjAddr: 0xDE0, symBinAddr: 0x230E0, symSize: 0x50 }
  - { offsetInCU: 0x3EFF, offset: 0xCFD8D, size: 0x8, addend: 0x0, symName: '__ZN4core3ptr118drop_in_place$LT$$LP$borsh_derive..internals..attributes..field..schema..ParameterOverride$C$syn..token..Comma$RP$$GT$17hb9fd9782232d7c0cE.llvm.18330882100277081493', symObjAddr: 0xDE0, symBinAddr: 0x230E0, symSize: 0x50 }
  - { offsetInCU: 0x4000, offset: 0xCFE8E, size: 0x8, addend: 0x0, symName: '__ZN4core3ptr120drop_in_place$LT$core..option..IntoIter$LT$borsh_derive..internals..attributes..field..schema..ParameterOverride$GT$$GT$17h6549b7ee6cd9204dE.llvm.18330882100277081493', symObjAddr: 0xE30, symBinAddr: 0x23130, symSize: 0x50 }
  - { offsetInCU: 0x419E, offset: 0xD002C, size: 0x8, addend: 0x0, symName: '__ZN4core3ptr126drop_in_place$LT$core..option..Option$LT$$LP$syn..token..And$C$core..option..Option$LT$syn..lifetime..Lifetime$GT$$RP$$GT$$GT$17h6e7fb811cea1c0d0E', symObjAddr: 0xE80, symBinAddr: 0x23180, symSize: 0x30 }
  - { offsetInCU: 0x442D, offset: 0xD02BB, size: 0x8, addend: 0x0, symName: '__ZN4core3ptr33drop_in_place$LT$syn..ty..Abi$GT$17hcd62cf1c51a838d5E', symObjAddr: 0xEB0, symBinAddr: 0x231B0, symSize: 0x70 }
  - { offsetInCU: 0x4449, offset: 0xD02D7, size: 0x8, addend: 0x0, symName: '__ZN4core3ptr33drop_in_place$LT$syn..ty..Abi$GT$17hcd62cf1c51a838d5E', symObjAddr: 0xEB0, symBinAddr: 0x231B0, symSize: 0x70 }
  - { offsetInCU: 0x4721, offset: 0xD05AF, size: 0x8, addend: 0x0, symName: '__ZN4core3ptr34drop_in_place$LT$syn..lit..Lit$GT$17h7e230476d36822bfE', symObjAddr: 0xF20, symBinAddr: 0x23220, symSize: 0x120 }
  - { offsetInCU: 0x4C2E, offset: 0xD0ABC, size: 0x8, addend: 0x0, symName: '__ZN4core3ptr34drop_in_place$LT$syn..pat..Pat$GT$17h5b0a97e980f53e46E.llvm.18330882100277081493', symObjAddr: 0x1040, symBinAddr: 0x23340, symSize: 0xF90 }
  - { offsetInCU: 0x8B56, offset: 0xD49E4, size: 0x8, addend: 0x0, symName: '__ZN4core3ptr34drop_in_place$LT$syn..ty..Type$GT$17h19f850f61918f31fE.llvm.18330882100277081493', symObjAddr: 0x1FD0, symBinAddr: 0x242D0, symSize: 0x510 }
  - { offsetInCU: 0x9B98, offset: 0xD5A26, size: 0x8, addend: 0x0, symName: '__ZN4core3ptr35drop_in_place$LT$syn..expr..Arm$GT$17h6d479b3a57c8d9afE.llvm.18330882100277081493', symObjAddr: 0x24E0, symBinAddr: 0x247E0, symSize: 0x170 }
  - { offsetInCU: 0xA1C8, offset: 0xD6056, size: 0x8, addend: 0x0, symName: '__ZN4core3ptr36drop_in_place$LT$syn..attr..Meta$GT$17h9c6516c11edbb27aE.llvm.18330882100277081493', symObjAddr: 0x2650, symBinAddr: 0x24950, symSize: 0x220 }
  - { offsetInCU: 0xAD42, offset: 0xD6BD0, size: 0x8, addend: 0x0, symName: '__ZN4core3ptr36drop_in_place$LT$syn..expr..Expr$GT$17h98f7f68f0a06dff7E.llvm.18330882100277081493', symObjAddr: 0x2870, symBinAddr: 0x24B70, symSize: 0x2790 }
  - { offsetInCU: 0x1509F, offset: 0xE0F2D, size: 0x8, addend: 0x0, symName: '__ZN4core3ptr36drop_in_place$LT$syn..item..Item$GT$17h24d40c73a939e473E', symObjAddr: 0x5000, symBinAddr: 0x27300, symSize: 0x1980 }
  - { offsetInCU: 0x1ACF5, offset: 0xE6B83, size: 0x8, addend: 0x0, symName: '__ZN4core3ptr36drop_in_place$LT$syn..mac..Macro$GT$17hdf5bac46d7f74bccE', symObjAddr: 0x6980, symBinAddr: 0x28C80, symSize: 0xE0 }
  - { offsetInCU: 0x1B01F, offset: 0xE6EAD, size: 0x8, addend: 0x0, symName: '__ZN4core3ptr36drop_in_place$LT$syn..path..Path$GT$17hb2feba4d905af1b2E', symObjAddr: 0x6A60, symBinAddr: 0x28D60, symSize: 0x180 }
  - { offsetInCU: 0x1B62A, offset: 0xE74B8, size: 0x8, addend: 0x0, symName: '__ZN4core3ptr36drop_in_place$LT$syn..stmt..Stmt$GT$17hb085f466989f9353E.llvm.18330882100277081493', symObjAddr: 0x6BE0, symBinAddr: 0x28EE0, symSize: 0x380 }
  - { offsetInCU: 0x1C293, offset: 0xE8121, size: 0x8, addend: 0x0, symName: '__ZN4core3ptr37drop_in_place$LT$syn..data..Field$GT$17h5540c27bbdef20caE.llvm.18330882100277081493', symObjAddr: 0x6F60, symBinAddr: 0x29260, symSize: 0x190 }
  - { offsetInCU: 0x1C883, offset: 0xE8711, size: 0x8, addend: 0x0, symName: '__ZN4core3ptr37drop_in_place$LT$syn..item..FnArg$GT$17h4adc6a467eb3a753E', symObjAddr: 0x70F0, symBinAddr: 0x293F0, symSize: 0x230 }
  - { offsetInCU: 0x1D19A, offset: 0xE9028, size: 0x8, addend: 0x0, symName: '__ZN4core3ptr37drop_in_place$LT$syn..stmt..Block$GT$17h9594e7bdfd216ee2E', symObjAddr: 0x7320, symBinAddr: 0x29620, symSize: 0xD0 }
  - { offsetInCU: 0x1D478, offset: 0xE9306, size: 0x8, addend: 0x0, symName: '__ZN4core3ptr38drop_in_place$LT$syn..expr..Member$GT$17hd3bc25e187f7fae3E.llvm.18330882100277081493', symObjAddr: 0x73F0, symBinAddr: 0x296F0, symSize: 0x30 }
  - { offsetInCU: 0x1D574, offset: 0xE9402, size: 0x8, addend: 0x0, symName: '__ZN4core3ptr38drop_in_place$LT$syn..pat..PatType$GT$17h882c6ad1dd9bcad9E', symObjAddr: 0x7420, symBinAddr: 0x29720, symSize: 0x140 }
  - { offsetInCU: 0x1DB26, offset: 0xE99B4, size: 0x8, addend: 0x0, symName: '__ZN4core3ptr39drop_in_place$LT$proc_macro2..Ident$GT$17hb5fbe0c131bfa218E.llvm.18330882100277081493', symObjAddr: 0x7560, symBinAddr: 0x29860, symSize: 0x30 }
  - { offsetInCU: 0x1DC60, offset: 0xE9AEE, size: 0x8, addend: 0x0, symName: '__ZN4core3ptr39drop_in_place$LT$syn..data..Variant$GT$17h1f1bba34f11b855fE.llvm.18330882100277081493', symObjAddr: 0x7590, symBinAddr: 0x29890, symSize: 0x2F0 }
  - { offsetInCU: 0x1E8FB, offset: 0xEA789, size: 0x8, addend: 0x0, symName: '__ZN4core3ptr39drop_in_place$LT$syn..item..UseTree$GT$17h50a21b861d0a28b5E', symObjAddr: 0x7880, symBinAddr: 0x29B80, symSize: 0x1E0 }
  - { offsetInCU: 0x1F054, offset: 0xEAEE2, size: 0x8, addend: 0x0, symName: '__ZN4core3ptr40drop_in_place$LT$syn..item..ImplItem$GT$17h2d22de3bbcf8b20fE', symObjAddr: 0x7A60, symBinAddr: 0x29D60, symSize: 0x220 }
  - { offsetInCU: 0x1F6A1, offset: 0xEB52F, size: 0x8, addend: 0x0, symName: '__ZN4core3ptr40drop_in_place$LT$syn..item..Receiver$GT$17h5a8404d668a12e36E', symObjAddr: 0x7C80, symBinAddr: 0x29F80, symSize: 0x130 }
  - { offsetInCU: 0x1FC9F, offset: 0xEBB2D, size: 0x8, addend: 0x0, symName: '__ZN4core3ptr40drop_in_place$LT$syn..item..Variadic$GT$17hdbb1399d6c7845eeE', symObjAddr: 0x7DB0, symBinAddr: 0x2A0B0, symSize: 0x120 }
  - { offsetInCU: 0x20142, offset: 0xEBFD0, size: 0x8, addend: 0x0, symName: '__ZN4core3ptr40drop_in_place$LT$syn..ty..ReturnType$GT$17h2041b3e02720652aE.llvm.18330882100277081493', symObjAddr: 0x7ED0, symBinAddr: 0x2A1D0, symSize: 0x50 }
  - { offsetInCU: 0x202D1, offset: 0xEC15F, size: 0x8, addend: 0x0, symName: '__ZN4core3ptr41drop_in_place$LT$syn..attr..Attribute$GT$17hf752d0cb3cd5ce28E.llvm.18330882100277081493', symObjAddr: 0x7F20, symBinAddr: 0x2A220, symSize: 0x160 }
  - { offsetInCU: 0x207A5, offset: 0xEC633, size: 0x8, addend: 0x0, symName: '__ZN4core3ptr41drop_in_place$LT$syn..item..Signature$GT$17h1d4a1cdd0f529f08E', symObjAddr: 0x8080, symBinAddr: 0x2A380, symSize: 0x270 }
  - { offsetInCU: 0x212BA, offset: 0xED148, size: 0x8, addend: 0x0, symName: '__ZN4core3ptr41drop_in_place$LT$syn..item..TraitItem$GT$17h7d5d22b27ba09b49E', symObjAddr: 0x82F0, symBinAddr: 0x2A5F0, symSize: 0x3D0 }
  - { offsetInCU: 0x21EF8, offset: 0xEDD86, size: 0x8, addend: 0x0, symName: '__ZN4core3ptr42drop_in_place$LT$syn..item..ImplItemFn$GT$17haa319bffc380d13fE', symObjAddr: 0x86C0, symBinAddr: 0x2A9C0, symSize: 0x230 }
  - { offsetInCU: 0x226BB, offset: 0xEE549, size: 0x8, addend: 0x0, symName: '__ZN4core3ptr42drop_in_place$LT$syn..path..Constraint$GT$17h6bdfcf449c6d15baE', symObjAddr: 0x88F0, symBinAddr: 0x2ABF0, symSize: 0x160 }
  - { offsetInCU: 0x22D88, offset: 0xEEC16, size: 0x8, addend: 0x0, symName: '__ZN4core3ptr43drop_in_place$LT$proc_macro2..TokenTree$GT$17h953cd300908e3bf8E.llvm.18330882100277081493', symObjAddr: 0x8A50, symBinAddr: 0x2AD50, symSize: 0xB0 }
  - { offsetInCU: 0x230E5, offset: 0xEEF73, size: 0x8, addend: 0x0, symName: '__ZN4core3ptr43drop_in_place$LT$syn..data..FieldsNamed$GT$17h3a62e728a0de492fE', symObjAddr: 0x8B00, symBinAddr: 0x2AE00, symSize: 0x120 }
  - { offsetInCU: 0x235A9, offset: 0xEF437, size: 0x8, addend: 0x0, symName: '__ZN4core3ptr43drop_in_place$LT$syn..item..ForeignItem$GT$17hfa8fa7df6fbae9e7E', symObjAddr: 0x8C20, symBinAddr: 0x2AF20, symSize: 0x340 }
  - { offsetInCU: 0x23FBA, offset: 0xEFE48, size: 0x8, addend: 0x0, symName: '__ZN4core3ptr43drop_in_place$LT$syn..path..PathSegment$GT$17h0721b544fffbe36eE.llvm.18330882100277081493', symObjAddr: 0x8F60, symBinAddr: 0x2B260, symSize: 0x190 }
  - { offsetInCU: 0x2457A, offset: 0xF0408, size: 0x8, addend: 0x0, symName: '__ZN4core3ptr44drop_in_place$LT$syn..generics..Generics$GT$17h6cc36a2c79e64375E', symObjAddr: 0x90F0, symBinAddr: 0x2B3F0, symSize: 0x160 }
  - { offsetInCU: 0x24A53, offset: 0xF08E1, size: 0x8, addend: 0x0, symName: '__ZN4core3ptr44drop_in_place$LT$syn..item..ImplItemType$GT$17h3fd1bc4d4c6abcdbE', symObjAddr: 0x9250, symBinAddr: 0x2B550, symSize: 0x1F0 }
  - { offsetInCU: 0x25066, offset: 0xF0EF4, size: 0x8, addend: 0x0, symName: '__ZN4core3ptr44drop_in_place$LT$syn..lifetime..Lifetime$GT$17h8afd172b97690efdE.llvm.18330882100277081493', symObjAddr: 0x9440, symBinAddr: 0x2B740, symSize: 0x30 }
  - { offsetInCU: 0x251BF, offset: 0xF104D, size: 0x8, addend: 0x0, symName: '__ZN4core3ptr45drop_in_place$LT$proc_macro2..TokenStream$GT$17h207b9d10b43ca09fE.llvm.18330882100277081493', symObjAddr: 0x9470, symBinAddr: 0x2B770, symSize: 0x70 }
  - { offsetInCU: 0x25326, offset: 0xF11B4, size: 0x8, addend: 0x0, symName: '__ZN4core3ptr45drop_in_place$LT$syn..generics..TypeParam$GT$17h6c3c07424bcf6a4eE.llvm.18330882100277081493', symObjAddr: 0x94E0, symBinAddr: 0x2B7E0, symSize: 0x230 }
  - { offsetInCU: 0x25B90, offset: 0xF1A1E, size: 0x8, addend: 0x0, symName: '__ZN4core3ptr45drop_in_place$LT$syn..item..ImplItemConst$GT$17h6d539e2179b3d3a0E', symObjAddr: 0x9710, symBinAddr: 0x2BA10, symSize: 0x210 }
  - { offsetInCU: 0x261E1, offset: 0xF206F, size: 0x8, addend: 0x0, symName: '__ZN4core3ptr45drop_in_place$LT$syn..item..TraitItemType$GT$17hf856ff238c24729dE', symObjAddr: 0x9920, symBinAddr: 0x2BC20, symSize: 0x290 }
  - { offsetInCU: 0x26B4B, offset: 0xF29D9, size: 0x8, addend: 0x0, symName: '__ZN4core3ptr46drop_in_place$LT$syn..generics..ConstParam$GT$17hd0de4a5923445da7E.llvm.18330882100277081493', symObjAddr: 0x9BB0, symBinAddr: 0x2BEB0, symSize: 0x150 }
  - { offsetInCU: 0x26F45, offset: 0xF2DD3, size: 0x8, addend: 0x0, symName: '__ZN4core3ptr46drop_in_place$LT$syn..item..TraitItemConst$GT$17hfa019ccd56d97e8fE', symObjAddr: 0x9D00, symBinAddr: 0x2C000, symSize: 0x1B0 }
  - { offsetInCU: 0x27426, offset: 0xF32B4, size: 0x8, addend: 0x0, symName: '__ZN4core3ptr47drop_in_place$LT$syn..generics..WhereClause$GT$17h886e9dcae0082af0E', symObjAddr: 0x9EB0, symBinAddr: 0x2C1B0, symSize: 0x120 }
  - { offsetInCU: 0x278AC, offset: 0xF373A, size: 0x8, addend: 0x0, symName: '__ZN4core3ptr47drop_in_place$LT$syn..item..ForeignItemType$GT$17h420668889d2ef199E', symObjAddr: 0x9FD0, symBinAddr: 0x2C2D0, symSize: 0x1B0 }
  - { offsetInCU: 0x27F1A, offset: 0xF3DA8, size: 0x8, addend: 0x0, symName: '__ZN4core3ptr47drop_in_place$LT$syn..path..GenericArgument$GT$17hf4dd383aa34a4f0fE', symObjAddr: 0xA180, symBinAddr: 0x2C480, symSize: 0x1C0 }
  - { offsetInCU: 0x283BF, offset: 0xF424D, size: 0x8, addend: 0x0, symName: '__ZN4core3ptr48drop_in_place$LT$syn..generics..GenericParam$GT$17h0e26a9446f7f3380E.llvm.18330882100277081493', symObjAddr: 0xA340, symBinAddr: 0x2C640, symSize: 0x40 }
  - { offsetInCU: 0x283DC, offset: 0xF426A, size: 0x8, addend: 0x0, symName: '__ZN4core3ptr49drop_in_place$LT$syn..generics..LifetimeParam$GT$17hd0b2e7526885b204E.llvm.18330882100277081493', symObjAddr: 0xA380, symBinAddr: 0x2C680, symSize: 0xF0 }
  - { offsetInCU: 0x287C6, offset: 0xF4654, size: 0x8, addend: 0x0, symName: '__ZN4core3ptr49drop_in_place$LT$syn..item..ForeignItemStatic$GT$17h7b51502cd2a926d8E', symObjAddr: 0xA470, symBinAddr: 0x2C770, symSize: 0x190 }
  - { offsetInCU: 0x28EC8, offset: 0xF4D56, size: 0x8, addend: 0x0, symName: '__ZN4core3ptr50drop_in_place$LT$$u5b$syn..item..ImplItem$u5d$$GT$17he15f06cc938ae9a3E', symObjAddr: 0xA600, symBinAddr: 0x2C900, symSize: 0x210 }
  - { offsetInCU: 0x2923C, offset: 0xF50CA, size: 0x8, addend: 0x0, symName: '__ZN4core3ptr50drop_in_place$LT$syn..generics..TypeParamBound$GT$17hdc238d3175f8eb5aE', symObjAddr: 0xA810, symBinAddr: 0x2CB10, symSize: 0xA0 }
  - { offsetInCU: 0x293E0, offset: 0xF526E, size: 0x8, addend: 0x0, symName: '__ZN4core3ptr50drop_in_place$LT$syn..generics..WherePredicate$GT$17h36871859cc3339e6E.llvm.18330882100277081493', symObjAddr: 0xA8B0, symBinAddr: 0x2CBB0, symSize: 0xA0 }
  - { offsetInCU: 0x295A3, offset: 0xF5431, size: 0x8, addend: 0x0, symName: '__ZN4core3ptr51drop_in_place$LT$$u5b$syn..item..TraitItem$u5d$$GT$17h9f3ba2e4789da83aE', symObjAddr: 0xA950, symBinAddr: 0x2CC50, symSize: 0x3E0 }
  - { offsetInCU: 0x29F45, offset: 0xF5DD3, size: 0x8, addend: 0x0, symName: '__ZN4core3ptr52drop_in_place$LT$syn..restriction..VisRestricted$GT$17h06288e1a731bb533E', symObjAddr: 0xAD30, symBinAddr: 0x2D030, symSize: 0x50 }
  - { offsetInCU: 0x2A0DC, offset: 0xF5F6A, size: 0x8, addend: 0x0, symName: '__ZN4core3ptr53drop_in_place$LT$$u5b$syn..item..ForeignItem$u5d$$GT$17h808e0b42dcb79f21E', symObjAddr: 0xAD80, symBinAddr: 0x2D080, symSize: 0x370 }
  - { offsetInCU: 0x2A938, offset: 0xF67C6, size: 0x8, addend: 0x0, symName: '__ZN4core3ptr57drop_in_place$LT$alloc..vec..Vec$LT$syn..ty..Type$GT$$GT$17h7077bc1b57d637e0E.llvm.18330882100277081493', symObjAddr: 0xB0F0, symBinAddr: 0x2D3F0, symSize: 0xD0 }
  - { offsetInCU: 0x2AC12, offset: 0xF6AA0, size: 0x8, addend: 0x0, symName: '__ZN4core3ptr58drop_in_place$LT$alloc..vec..Vec$LT$syn..expr..Arm$GT$$GT$17ha0ec4334cda5515cE', symObjAddr: 0xB1C0, symBinAddr: 0x2D4C0, symSize: 0xD0 }
  - { offsetInCU: 0x2AED9, offset: 0xF6D67, size: 0x8, addend: 0x0, symName: '__ZN4core3ptr59drop_in_place$LT$alloc..boxed..Box$LT$syn..pat..Pat$GT$$GT$17h67f20b4715509286E.llvm.18330882100277081493', symObjAddr: 0xB290, symBinAddr: 0x2D590, symSize: 0x50 }
  - { offsetInCU: 0x2B032, offset: 0xF6EC0, size: 0x8, addend: 0x0, symName: '__ZN4core3ptr59drop_in_place$LT$alloc..boxed..Box$LT$syn..ty..Type$GT$$GT$17hb9082e267b94188dE', symObjAddr: 0xB2E0, symBinAddr: 0x2D5E0, symSize: 0x50 }
  - { offsetInCU: 0x2B18B, offset: 0xF7019, size: 0x8, addend: 0x0, symName: '__ZN4core3ptr59drop_in_place$LT$alloc..vec..Vec$LT$syn..item..Item$GT$$GT$17h2a5825361415996bE', symObjAddr: 0xB330, symBinAddr: 0x2D630, symSize: 0xD0 }
  - { offsetInCU: 0x2B452, offset: 0xF72E0, size: 0x8, addend: 0x0, symName: '__ZN4core3ptr61drop_in_place$LT$alloc..boxed..Box$LT$syn..expr..Expr$GT$$GT$17h01310d89a7a8aab3E', symObjAddr: 0xB400, symBinAddr: 0x2D700, symSize: 0x50 }
  - { offsetInCU: 0x2B5AB, offset: 0xF7439, size: 0x8, addend: 0x0, symName: '__ZN4core3ptr61drop_in_place$LT$alloc..boxed..Box$LT$syn..path..Path$GT$$GT$17h2d45a08a8710e5a4E', symObjAddr: 0xB450, symBinAddr: 0x2D750, symSize: 0x100 }
  - { offsetInCU: 0x2BACB, offset: 0xF7959, size: 0x8, addend: 0x0, symName: '__ZN4core3ptr61drop_in_place$LT$syn..path..ParenthesizedGenericArguments$GT$17h7fee2959ae354450E.llvm.18330882100277081493', symObjAddr: 0xB550, symBinAddr: 0x2D850, symSize: 0x170 }
  - { offsetInCU: 0x2C0C8, offset: 0xF7F56, size: 0x8, addend: 0x0, symName: '__ZN4core3ptr62drop_in_place$LT$alloc..boxed..Box$LT$syn..data..Field$GT$$GT$17ha0d175a9a6290c7fE', symObjAddr: 0xB6C0, symBinAddr: 0x2D9C0, symSize: 0x50 }
  - { offsetInCU: 0x2C240, offset: 0xF80CE, size: 0x8, addend: 0x0, symName: '__ZN4core3ptr62drop_in_place$LT$alloc..boxed..Box$LT$syn..item..FnArg$GT$$GT$17h89324e209b7a70dbE', symObjAddr: 0xB710, symBinAddr: 0x2DA10, symSize: 0x60 }
  - { offsetInCU: 0x2C3B6, offset: 0xF8244, size: 0x8, addend: 0x0, symName: '__ZN4core3ptr62drop_in_place$LT$alloc..boxed..Box$LT$syn..stmt..Block$GT$$GT$17h21c07dacdc69fe64E', symObjAddr: 0xB770, symBinAddr: 0x2DA70, symSize: 0xE0 }
  - { offsetInCU: 0x2C80D, offset: 0xF869B, size: 0x8, addend: 0x0, symName: '__ZN4core3ptr62drop_in_place$LT$alloc..vec..Vec$LT$proc_macro2..Ident$GT$$GT$17h797813b5b7183904E.llvm.18330882100277081493', symObjAddr: 0xB850, symBinAddr: 0x2DB50, symSize: 0x90 }
  - { offsetInCU: 0x2CAA8, offset: 0xF8936, size: 0x8, addend: 0x0, symName: '__ZN4core3ptr62drop_in_place$LT$syn..path..AngleBracketedGenericArguments$GT$17h79141db867cfe0cbE.llvm.18330882100277081493', symObjAddr: 0xB8E0, symBinAddr: 0x2DBE0, symSize: 0x120 }
  - { offsetInCU: 0x2CF2E, offset: 0xF8DBC, size: 0x8, addend: 0x0, symName: '__ZN4core3ptr63drop_in_place$LT$alloc..vec..Vec$LT$syn..item..ImplItem$GT$$GT$17h007721c20fa45e29E', symObjAddr: 0xBA00, symBinAddr: 0x2DD00, symSize: 0x80 }
  - { offsetInCU: 0x2D1E6, offset: 0xF9074, size: 0x8, addend: 0x0, symName: '__ZN4core3ptr64drop_in_place$LT$alloc..boxed..Box$LT$syn..data..Variant$GT$$GT$17h7ad29d94c3b64bedE', symObjAddr: 0xBA80, symBinAddr: 0x2DD80, symSize: 0x50 }
  - { offsetInCU: 0x2D33F, offset: 0xF91CD, size: 0x8, addend: 0x0, symName: '__ZN4core3ptr64drop_in_place$LT$alloc..boxed..Box$LT$syn..item..UseTree$GT$$GT$17hcff22927a7b1d60cE', symObjAddr: 0xBAD0, symBinAddr: 0x2DDD0, symSize: 0x50 }
  - { offsetInCU: 0x2D4D6, offset: 0xF9364, size: 0x8, addend: 0x0, symName: '__ZN4core3ptr64drop_in_place$LT$alloc..boxed..Box$LT$syn..pat..FieldPat$GT$$GT$17ha5ec27d4d418dbdfE', symObjAddr: 0xBB20, symBinAddr: 0x2DE20, symSize: 0x140 }
  - { offsetInCU: 0x2DBA0, offset: 0xF9A2E, size: 0x8, addend: 0x0, symName: '__ZN4core3ptr64drop_in_place$LT$alloc..boxed..Box$LT$syn..ty..BareFnArg$GT$$GT$17hb416cdff09d8949eE', symObjAddr: 0xBC60, symBinAddr: 0x2DF60, symSize: 0x140 }
  - { offsetInCU: 0x2E133, offset: 0xF9FC1, size: 0x8, addend: 0x0, symName: '__ZN4core3ptr64drop_in_place$LT$alloc..vec..Vec$LT$syn..attr..Attribute$GT$$GT$17he95047edc4b7891fE', symObjAddr: 0xBDA0, symBinAddr: 0x2E0A0, symSize: 0xD0 }
  - { offsetInCU: 0x2E42E, offset: 0xFA2BC, size: 0x8, addend: 0x0, symName: '__ZN4core3ptr64drop_in_place$LT$alloc..vec..Vec$LT$syn..item..TraitItem$GT$$GT$17h717ffb9eec17e0fbE', symObjAddr: 0xBE70, symBinAddr: 0x2E170, symSize: 0x80 }
  - { offsetInCU: 0x2E6E6, offset: 0xFA574, size: 0x8, addend: 0x0, symName: '__ZN4core3ptr65drop_in_place$LT$$LP$syn..item..FnArg$C$syn..token..Comma$RP$$GT$17hc8c06881b45d9b04E', symObjAddr: 0xBEF0, symBinAddr: 0x2E1F0, symSize: 0x20 }
  - { offsetInCU: 0x2E77F, offset: 0xFA60D, size: 0x8, addend: 0x0, symName: '__ZN4core3ptr65drop_in_place$LT$alloc..vec..Vec$LT$proc_macro..TokenTree$GT$$GT$17h54365d0bdf61b883E.llvm.18330882100277081493', symObjAddr: 0xBF10, symBinAddr: 0x2E210, symSize: 0x110 }
  - { offsetInCU: 0x2EB91, offset: 0xFAA1F, size: 0x8, addend: 0x0, symName: '__ZN4core3ptr65drop_in_place$LT$core..option..Option$LT$syn..expr..Label$GT$$GT$17h6cb338f3d3fef208E', symObjAddr: 0xC020, symBinAddr: 0x2E320, symSize: 0x30 }
  - { offsetInCU: 0x2ECCB, offset: 0xFAB59, size: 0x8, addend: 0x0, symName: '__ZN4core3ptr65drop_in_place$LT$core..option..Option$LT$syn..stmt..Block$GT$$GT$17hd140006410a9f2fcE', symObjAddr: 0xC050, symBinAddr: 0x2E350, symSize: 0xD0 }
  - { offsetInCU: 0x2EFDE, offset: 0xFAE6C, size: 0x8, addend: 0x0, symName: '__ZN4core3ptr66drop_in_place$LT$alloc..vec..Vec$LT$proc_macro2..TokenTree$GT$$GT$17he91ffee41b5fd895E', symObjAddr: 0xC120, symBinAddr: 0x2E420, symSize: 0xC0 }
  - { offsetInCU: 0x2F2B6, offset: 0xFB144, size: 0x8, addend: 0x0, symName: '__ZN4core3ptr66drop_in_place$LT$alloc..vec..Vec$LT$syn..item..ForeignItem$GT$$GT$17hfe0fe72a753aee6fE', symObjAddr: 0xC1E0, symBinAddr: 0x2E4E0, symSize: 0x80 }
  - { offsetInCU: 0x2F56E, offset: 0xFB3FC, size: 0x8, addend: 0x0, symName: '__ZN4core3ptr67drop_in_place$LT$$LP$syn..pat..FieldPat$C$syn..token..Comma$RP$$GT$17hfc6f8bf15b786d70E.llvm.18330882100277081493', symObjAddr: 0xC260, symBinAddr: 0x2E560, symSize: 0x120 }
  - { offsetInCU: 0x2FB03, offset: 0xFB991, size: 0x8, addend: 0x0, symName: '__ZN4core3ptr67drop_in_place$LT$$LP$syn..ty..BareFnArg$C$syn..token..Comma$RP$$GT$17he8de77d50ee8f2eaE.llvm.18330882100277081493', symObjAddr: 0xC380, symBinAddr: 0x2E680, symSize: 0x110 }
  - { offsetInCU: 0x2FF81, offset: 0xFBE0F, size: 0x8, addend: 0x0, symName: '__ZN4core3ptr67drop_in_place$LT$alloc..boxed..Box$LT$syn..expr..FieldValue$GT$$GT$17hb048d8ef1ec03e8dE', symObjAddr: 0xC490, symBinAddr: 0x2E790, symSize: 0x140 }
  - { offsetInCU: 0x304F4, offset: 0xFC382, size: 0x8, addend: 0x0, symName: '__ZN4core3ptr68drop_in_place$LT$alloc..boxed..Box$LT$syn..path..PathSegment$GT$$GT$17h582dcd8abb4b1a74E', symObjAddr: 0xC5D0, symBinAddr: 0x2E8D0, symSize: 0xF0 }
  - { offsetInCU: 0x308F6, offset: 0xFC784, size: 0x8, addend: 0x0, symName: '__ZN4core3ptr69drop_in_place$LT$core..option..Option$LT$syn..stmt..LocalInit$GT$$GT$17h81c3248154e6e592E', symObjAddr: 0xC6C0, symBinAddr: 0x2E9C0, symSize: 0xC0 }
  - { offsetInCU: 0x30C1A, offset: 0xFCAA8, size: 0x8, addend: 0x0, symName: '__ZN4core3ptr70drop_in_place$LT$$LP$syn..expr..FieldValue$C$syn..token..Comma$RP$$GT$17h6481efb44f6c1921E.llvm.18330882100277081493', symObjAddr: 0xC780, symBinAddr: 0x2EA80, symSize: 0x110 }
  - { offsetInCU: 0x31059, offset: 0xFCEE7, size: 0x8, addend: 0x0, symName: '__ZN4core3ptr70drop_in_place$LT$core..option..Option$LT$syn..ty..BareVariadic$GT$$GT$17hf6d2a770387443a3E', symObjAddr: 0xC890, symBinAddr: 0x2EB90, symSize: 0x100 }
  - { offsetInCU: 0x314B8, offset: 0xFD346, size: 0x8, addend: 0x0, symName: '__ZN4core3ptr72drop_in_place$LT$alloc..boxed..Box$LT$syn..path..GenericArgument$GT$$GT$17hcc60f7ab467d198fE.llvm.18330882100277081493', symObjAddr: 0xC990, symBinAddr: 0x2EC90, symSize: 0x190 }
  - { offsetInCU: 0x31980, offset: 0xFD80E, size: 0x8, addend: 0x0, symName: '__ZN4core3ptr73drop_in_place$LT$$LP$syn..path..PathSegment$C$syn..token..PathSep$RP$$GT$17h4c8ba49407cc4502E.llvm.18330882100277081493', symObjAddr: 0xCB20, symBinAddr: 0x2EE20, symSize: 0xD0 }
  - { offsetInCU: 0x31C43, offset: 0xFDAD1, size: 0x8, addend: 0x0, symName: '__ZN4core3ptr73drop_in_place$LT$alloc..boxed..Box$LT$syn..generics..GenericParam$GT$$GT$17hd8823d2eb1a41dfaE', symObjAddr: 0xCBF0, symBinAddr: 0x2EEF0, symSize: 0x80 }
  - { offsetInCU: 0x31DF7, offset: 0xFDC85, size: 0x8, addend: 0x0, symName: '__ZN4core3ptr73drop_in_place$LT$alloc..vec..Vec$LT$syn..generics..WherePredicate$GT$$GT$17h339feaab3a542528E.llvm.18330882100277081493', symObjAddr: 0xCC70, symBinAddr: 0x2EF70, symSize: 0xD0 }
  - { offsetInCU: 0x320D1, offset: 0xFDF5F, size: 0x8, addend: 0x0, symName: '__ZN4core3ptr75drop_in_place$LT$$LP$syn..path..GenericArgument$C$syn..token..Comma$RP$$GT$17hca3753d5bf2c7bc9E.llvm.18330882100277081493', symObjAddr: 0xCD40, symBinAddr: 0x2F040, symSize: 0x180 }
  - { offsetInCU: 0x3245F, offset: 0xFE2ED, size: 0x8, addend: 0x0, symName: '__ZN4core3ptr75drop_in_place$LT$alloc..boxed..Box$LT$syn..generics..TypeParamBound$GT$$GT$17hc0dbc3e6560133a8E', symObjAddr: 0xCEC0, symBinAddr: 0x2F1C0, symSize: 0x180 }
  - { offsetInCU: 0x32A29, offset: 0xFE8B7, size: 0x8, addend: 0x0, symName: '__ZN4core3ptr75drop_in_place$LT$alloc..boxed..Box$LT$syn..generics..WherePredicate$GT$$GT$17h359a727300b2732cE', symObjAddr: 0xD040, symBinAddr: 0x2F340, symSize: 0x50 }
  - { offsetInCU: 0x32B82, offset: 0xFEA10, size: 0x8, addend: 0x0, symName: '__ZN4core3ptr76drop_in_place$LT$$LP$syn..generics..GenericParam$C$syn..token..Comma$RP$$GT$17h0bb5aafe5c3ba690E.llvm.18330882100277081493', symObjAddr: 0xD090, symBinAddr: 0x2F390, symSize: 0x40 }
  - { offsetInCU: 0x32BBE, offset: 0xFEA4C, size: 0x8, addend: 0x0, symName: '__ZN4core3ptr77drop_in_place$LT$$LP$syn..generics..TypeParamBound$C$syn..token..Plus$RP$$GT$17h1c8858989426d09aE.llvm.18330882100277081493', symObjAddr: 0xD0D0, symBinAddr: 0x2F3D0, symSize: 0x180 }
  - { offsetInCU: 0x33098, offset: 0xFEF26, size: 0x8, addend: 0x0, symName: '__ZN4core3ptr78drop_in_place$LT$core..option..IntoIter$LT$syn..generics..GenericParam$GT$$GT$17h62f232462f2b9b00E.llvm.18330882100277081493', symObjAddr: 0xD250, symBinAddr: 0x2F550, symSize: 0x50 }
  - { offsetInCU: 0x33115, offset: 0xFEFA3, size: 0x8, addend: 0x0, symName: '__ZN4core3ptr86drop_in_place$LT$$LP$syn..token..If$C$alloc..boxed..Box$LT$syn..expr..Expr$GT$$RP$$GT$17h6926a360c64deff8E', symObjAddr: 0xD2A0, symBinAddr: 0x2F5A0, symSize: 0x50 }
  - { offsetInCU: 0x33328, offset: 0xFF1B6, size: 0x8, addend: 0x0, symName: '__ZN4core3ptr86drop_in_place$LT$syn..punctuated..Punctuated$LT$syn..pat..Pat$C$syn..token..Or$GT$$GT$17hb407e891b009195eE', symObjAddr: 0xD2F0, symBinAddr: 0x2F5F0, symSize: 0x120 }
  - { offsetInCU: 0x337C1, offset: 0xFF64F, size: 0x8, addend: 0x0, symName: '__ZN4core3ptr87drop_in_place$LT$$LP$alloc..boxed..Box$LT$syn..pat..Pat$GT$$C$syn..token..Colon$RP$$GT$17h915004843e38d259E', symObjAddr: 0xD410, symBinAddr: 0x2F710, symSize: 0x50 }
  - { offsetInCU: 0x33939, offset: 0xFF7C7, size: 0x8, addend: 0x0, symName: '__ZN4core3ptr87drop_in_place$LT$core..option..Option$LT$alloc..boxed..Box$LT$syn..ty..Type$GT$$GT$$GT$17h2cce7e91b6f26339E', symObjAddr: 0xD460, symBinAddr: 0x2F760, symSize: 0x50 }
  - { offsetInCU: 0x33AA9, offset: 0xFF937, size: 0x8, addend: 0x0, symName: '__ZN4core3ptr89drop_in_place$LT$core..option..Option$LT$alloc..boxed..Box$LT$syn..expr..Expr$GT$$GT$$GT$17h4805299351d776eaE', symObjAddr: 0xD4B0, symBinAddr: 0x2F7B0, symSize: 0x50 }
  - { offsetInCU: 0x33C19, offset: 0xFFAA7, size: 0x8, addend: 0x0, symName: '__ZN4core3ptr89drop_in_place$LT$syn..punctuated..Punctuated$LT$syn..ty..Type$C$syn..token..Comma$GT$$GT$17h487f88da4f994ccfE.llvm.18330882100277081493', symObjAddr: 0xD500, symBinAddr: 0x2F800, symSize: 0x120 }
  - { offsetInCU: 0x3409B, offset: 0xFFF29, size: 0x8, addend: 0x0, symName: '__ZN4core3ptr90drop_in_place$LT$borsh_derive..internals..attributes..field..schema..ParameterOverride$GT$17h1d663f6e7c19f7c3E.llvm.18330882100277081493', symObjAddr: 0xD620, symBinAddr: 0x2F920, symSize: 0x50 }
  - { offsetInCU: 0x340BB, offset: 0xFFF49, size: 0x8, addend: 0x0, symName: '__ZN4core3ptr90drop_in_place$LT$borsh_derive..internals..attributes..field..schema..ParameterOverride$GT$17h1d663f6e7c19f7c3E.llvm.18330882100277081493', symObjAddr: 0xD620, symBinAddr: 0x2F920, symSize: 0x50 }
  - { offsetInCU: 0x340D9, offset: 0xFFF67, size: 0x8, addend: 0x0, symName: '__ZN4core3ptr90drop_in_place$LT$borsh_derive..internals..attributes..field..schema..ParameterOverride$GT$17h1d663f6e7c19f7c3E.llvm.18330882100277081493', symObjAddr: 0xD620, symBinAddr: 0x2F920, symSize: 0x50 }
  - { offsetInCU: 0x3419B, offset: 0x100029, size: 0x8, addend: 0x0, symName: '__ZN4core3ptr90drop_in_place$LT$core..option..Option$LT$alloc..boxed..Box$LT$syn..data..Field$GT$$GT$$GT$17hf222b09314c1288bE', symObjAddr: 0xD670, symBinAddr: 0x2F970, symSize: 0x50 }
  - { offsetInCU: 0x3430B, offset: 0x100199, size: 0x8, addend: 0x0, symName: '__ZN4core3ptr90drop_in_place$LT$core..option..Option$LT$alloc..boxed..Box$LT$syn..item..FnArg$GT$$GT$$GT$17h0e9af7a093873dfcE', symObjAddr: 0xD6C0, symBinAddr: 0x2F9C0, symSize: 0x50 }
  - { offsetInCU: 0x344F7, offset: 0x100385, size: 0x8, addend: 0x0, symName: '__ZN4core3ptr91drop_in_place$LT$syn..punctuated..Punctuated$LT$syn..expr..Expr$C$syn..token..Comma$GT$$GT$17hd2c79695be72d75eE', symObjAddr: 0xD710, symBinAddr: 0x2FA10, symSize: 0x120 }
  - { offsetInCU: 0x3498C, offset: 0x10081A, size: 0x8, addend: 0x0, symName: '__ZN4core3ptr92drop_in_place$LT$core..option..Option$LT$$LP$syn..token..As$C$proc_macro2..Ident$RP$$GT$$GT$17h72e95f32d94ad3d1E', symObjAddr: 0xD830, symBinAddr: 0x2FB30, symSize: 0x30 }
  - { offsetInCU: 0x34AA7, offset: 0x100935, size: 0x8, addend: 0x0, symName: '__ZN4core3ptr92drop_in_place$LT$syn..punctuated..Punctuated$LT$syn..data..Field$C$syn..token..Comma$GT$$GT$17h894c449d173e79ceE', symObjAddr: 0xD860, symBinAddr: 0x2FB60, symSize: 0x120 }
  - { offsetInCU: 0x34F2D, offset: 0x100DBB, size: 0x8, addend: 0x0, symName: '__ZN4core3ptr92drop_in_place$LT$syn..punctuated..Punctuated$LT$syn..item..FnArg$C$syn..token..Comma$GT$$GT$17hff1a63072c1ce6f9E', symObjAddr: 0xD980, symBinAddr: 0x2FC80, symSize: 0x150 }
  - { offsetInCU: 0x35478, offset: 0x101306, size: 0x8, addend: 0x0, symName: '__ZN4core3ptr94drop_in_place$LT$syn..punctuated..Punctuated$LT$syn..data..Variant$C$syn..token..Comma$GT$$GT$17h737b847700047fecE', symObjAddr: 0xDAD0, symBinAddr: 0x2FDD0, symSize: 0x120 }
  - { offsetInCU: 0x35989, offset: 0x101817, size: 0x8, addend: 0x0, symName: '__ZN4core3ptr94drop_in_place$LT$syn..punctuated..Punctuated$LT$syn..pat..FieldPat$C$syn..token..Comma$GT$$GT$17hb2b4aed8f633cba0E', symObjAddr: 0xDBF0, symBinAddr: 0x2FEF0, symSize: 0xF0 }
  - { offsetInCU: 0x35D1E, offset: 0x101BAC, size: 0x8, addend: 0x0, symName: '__ZN4core3ptr94drop_in_place$LT$syn..punctuated..Punctuated$LT$syn..ty..BareFnArg$C$syn..token..Comma$GT$$GT$17h59c18cbb4f726140E', symObjAddr: 0xDCE0, symBinAddr: 0x2FFE0, symSize: 0xF0 }
  - { offsetInCU: 0x36039, offset: 0x101EC7, size: 0x8, addend: 0x0, symName: '__ZN4core3ptr95drop_in_place$LT$core..option..Option$LT$$LP$proc_macro2..Ident$C$syn..token..Colon$RP$$GT$$GT$17hb8658778f8de25a0E.llvm.18330882100277081493', symObjAddr: 0xDDD0, symBinAddr: 0x300D0, symSize: 0x30 }
  - { offsetInCU: 0x36154, offset: 0x101FE2, size: 0x8, addend: 0x0, symName: '__ZN4core3ptr96drop_in_place$LT$core..option..Option$LT$alloc..boxed..Box$LT$syn..path..PathSegment$GT$$GT$$GT$17hd67a31bad3bc4ef4E.llvm.18330882100277081493', symObjAddr: 0xDE00, symBinAddr: 0x30100, symSize: 0xA0 }
  - { offsetInCU: 0x3644F, offset: 0x1022DD, size: 0x8, addend: 0x0, symName: '__ZN4core3ptr97drop_in_place$LT$syn..punctuated..Punctuated$LT$syn..expr..FieldValue$C$syn..token..Comma$GT$$GT$17h2644f25adad08ccbE', symObjAddr: 0xDEA0, symBinAddr: 0x301A0, symSize: 0xF0 }
  - { offsetInCU: 0x36820, offset: 0x1026AE, size: 0x8, addend: 0x0, symName: '__ZN4core3ptr98drop_in_place$LT$syn..punctuated..Punctuated$LT$syn..lifetime..Lifetime$C$syn..token..Plus$GT$$GT$17hfbe9a104e4a4f23fE.llvm.18330882100277081493', symObjAddr: 0xDF90, symBinAddr: 0x30290, symSize: 0xD0 }
  - { offsetInCU: 0x36C92, offset: 0x102B20, size: 0x8, addend: 0x0, symName: '__ZN4core3ptr99drop_in_place$LT$alloc..vec..Vec$LT$$LP$syn..generics..GenericParam$C$syn..token..Comma$RP$$GT$$GT$17hd5be3580214ccad0E.llvm.18330882100277081493', symObjAddr: 0xE060, symBinAddr: 0x30360, symSize: 0x60 }
  - { offsetInCU: 0x398D4, offset: 0x105762, size: 0x8, addend: 0x0, symName: '__ZN48_$LT$T$u20$as$u20$core..clone..CloneToUninit$GT$15clone_to_uninit17he249dc479137515fE', symObjAddr: 0xB0, symBinAddr: 0x223B0, symSize: 0x330 }
  - { offsetInCU: 0x3B2AF, offset: 0x10713D, size: 0x8, addend: 0x0, symName: '__ZN67_$LT$alloc..vec..Vec$LT$T$C$A$GT$$u20$as$u20$core..clone..Clone$GT$5clone17h233d14f6c2cb50b5E', symObjAddr: 0xE240, symBinAddr: 0x30500, symSize: 0x140 }
  - { offsetInCU: 0x3B68C, offset: 0x10751A, size: 0x8, addend: 0x0, symName: '__ZN67_$LT$alloc..vec..Vec$LT$T$C$A$GT$$u20$as$u20$core..clone..Clone$GT$5clone17h32e26badae94b9c4E', symObjAddr: 0xE380, symBinAddr: 0x30640, symSize: 0x150 }
  - { offsetInCU: 0x3BB2F, offset: 0x1079BD, size: 0x8, addend: 0x0, symName: '__ZN67_$LT$alloc..vec..Vec$LT$T$C$A$GT$$u20$as$u20$core..clone..Clone$GT$5clone17h3e39b3566a00c807E', symObjAddr: 0xE4D0, symBinAddr: 0x30790, symSize: 0x140 }
  - { offsetInCU: 0x3BF0C, offset: 0x107D9A, size: 0x8, addend: 0x0, symName: '__ZN67_$LT$alloc..vec..Vec$LT$T$C$A$GT$$u20$as$u20$core..clone..Clone$GT$5clone17h475e0c132f5297b1E', symObjAddr: 0xE610, symBinAddr: 0x308D0, symSize: 0x150 }
  - { offsetInCU: 0x3C340, offset: 0x1081CE, size: 0x8, addend: 0x0, symName: '__ZN67_$LT$alloc..vec..Vec$LT$T$C$A$GT$$u20$as$u20$core..clone..Clone$GT$5clone17h8e6027ce5623921eE', symObjAddr: 0xE760, symBinAddr: 0x30A20, symSize: 0x240 }
  - { offsetInCU: 0x3CE64, offset: 0x108CF2, size: 0x8, addend: 0x0, symName: '__ZN70_$LT$alloc..vec..Vec$LT$T$C$A$GT$$u20$as$u20$core..ops..drop..Drop$GT$4drop17h3d9a5f315a4ce7aaE', symObjAddr: 0xECD0, symBinAddr: 0x30C60, symSize: 0xB0 }
  - { offsetInCU: 0x3CECF, offset: 0x108D5D, size: 0x8, addend: 0x0, symName: '__ZN70_$LT$alloc..vec..Vec$LT$T$C$A$GT$$u20$as$u20$core..ops..drop..Drop$GT$4drop17hd43c580f4b3c9ab3E', symObjAddr: 0xF330, symBinAddr: 0x30D10, symSize: 0xB0 }
  - { offsetInCU: 0x3D7CF, offset: 0x10965D, size: 0x8, addend: 0x0, symName: '__ZN5alloc3vec16in_place_collect108_$LT$impl$u20$alloc..vec..spec_from_iter..SpecFromIter$LT$T$C$I$GT$$u20$for$u20$alloc..vec..Vec$LT$T$GT$$GT$9from_iter17h764705d8d289866bE', symObjAddr: 0xE100, symBinAddr: 0x303C0, symSize: 0x140 }
  - { offsetInCU: 0x3DD97, offset: 0x109C25, size: 0x8, addend: 0x0, symName: '__ZN98_$LT$alloc..vec..Vec$LT$T$GT$$u20$as$u20$alloc..vec..spec_from_iter..SpecFromIter$LT$T$C$I$GT$$GT$9from_iter17h0ec2a4a705243392E', symObjAddr: 0xFCF0, symBinAddr: 0x30DC0, symSize: 0x300 }
  - { offsetInCU: 0x3E709, offset: 0x10A597, size: 0x8, addend: 0x0, symName: '__ZN98_$LT$alloc..vec..Vec$LT$T$GT$$u20$as$u20$alloc..vec..spec_from_iter..SpecFromIter$LT$T$C$I$GT$$GT$9from_iter17h6240cdde53f4f25bE', symObjAddr: 0xFFF0, symBinAddr: 0x310C0, symSize: 0x1C0 }
  - { offsetInCU: 0x3EE3C, offset: 0x10ACCA, size: 0x8, addend: 0x0, symName: '__ZN98_$LT$alloc..vec..Vec$LT$T$GT$$u20$as$u20$alloc..vec..spec_from_iter..SpecFromIter$LT$T$C$I$GT$$GT$9from_iter17h6288c7f470ecdc12E', symObjAddr: 0x101B0, symBinAddr: 0x31280, symSize: 0x1C0 }
  - { offsetInCU: 0x3F56F, offset: 0x10B3FD, size: 0x8, addend: 0x0, symName: '__ZN98_$LT$alloc..vec..Vec$LT$T$GT$$u20$as$u20$alloc..vec..spec_from_iter..SpecFromIter$LT$T$C$I$GT$$GT$9from_iter17h9948e572481d50bdE', symObjAddr: 0x10370, symBinAddr: 0x31440, symSize: 0x410 }
  - { offsetInCU: 0x40027, offset: 0x10BEB5, size: 0x8, addend: 0x0, symName: '__ZN98_$LT$alloc..vec..Vec$LT$T$GT$$u20$as$u20$alloc..vec..spec_from_iter..SpecFromIter$LT$T$C$I$GT$$GT$9from_iter17had1908eed077491fE', symObjAddr: 0x10780, symBinAddr: 0x31850, symSize: 0x300 }
  - { offsetInCU: 0x40C03, offset: 0x10CA91, size: 0x8, addend: 0x0, symName: '__ZN98_$LT$alloc..vec..Vec$LT$T$GT$$u20$as$u20$alloc..vec..spec_from_iter..SpecFromIter$LT$T$C$I$GT$$GT$9from_iter17hd8506367692034a5E', symObjAddr: 0x10A80, symBinAddr: 0x31B50, symSize: 0x1C0 }
  - { offsetInCU: 0x41336, offset: 0x10D1C4, size: 0x8, addend: 0x0, symName: '__ZN98_$LT$alloc..vec..Vec$LT$T$GT$$u20$as$u20$alloc..vec..spec_from_iter..SpecFromIter$LT$T$C$I$GT$$GT$9from_iter17he19865c7656d179bE', symObjAddr: 0x10C40, symBinAddr: 0x31D10, symSize: 0x2E0 }
  - { offsetInCU: 0x41CA8, offset: 0x10DB36, size: 0x8, addend: 0x0, symName: '__ZN98_$LT$alloc..vec..Vec$LT$T$GT$$u20$as$u20$alloc..vec..spec_from_iter..SpecFromIter$LT$T$C$I$GT$$GT$9from_iter17he2e88ba25c702982E', symObjAddr: 0x10F20, symBinAddr: 0x31FF0, symSize: 0x340 }
  - { offsetInCU: 0x42AAA, offset: 0x10E938, size: 0x8, addend: 0x0, symName: '__ZN98_$LT$alloc..vec..Vec$LT$T$GT$$u20$as$u20$alloc..vec..spec_from_iter..SpecFromIter$LT$T$C$I$GT$$GT$9from_iter17hf1d90ddb685fb5f3E', symObjAddr: 0x11260, symBinAddr: 0x32330, symSize: 0x1B7 }
  - { offsetInCU: 0x1E, offset: 0x12446C, size: 0x8, addend: 0x0, symName: '__ZN4core3ptr181drop_in_place$LT$hashbrown..scopeguard..ScopeGuard$LT$$RF$mut$u20$hashbrown..raw..RawTableInner$C$hashbrown..raw..RawTableInner..rehash_in_place..$u7b$$u7b$closure$u7d$$u7d$$GT$$GT$17hc7e4ff3d451195c4E', symObjAddr: 0x0, symBinAddr: 0x324F0, symSize: 0xC0 }
  - { offsetInCU: 0x1617, offset: 0x125A65, size: 0x8, addend: 0x0, symName: '__ZN76_$LT$hashbrown..raw..RawTable$LT$T$C$A$GT$$u20$as$u20$core..clone..Clone$GT$5clone17h031796d1e9acf480E', symObjAddr: 0x690, symBinAddr: 0x32B80, symSize: 0x2D0 }
  - { offsetInCU: 0x223D, offset: 0x12668B, size: 0x8, addend: 0x0, symName: '__ZN76_$LT$hashbrown..raw..RawTable$LT$T$C$A$GT$$u20$as$u20$core..clone..Clone$GT$5clone17h0c7462fdf948db54E', symObjAddr: 0x960, symBinAddr: 0x32E50, symSize: 0x350 }
  - { offsetInCU: 0x3033, offset: 0x127481, size: 0x8, addend: 0x0, symName: '__ZN79_$LT$hashbrown..raw..RawTable$LT$T$C$A$GT$$u20$as$u20$core..ops..drop..Drop$GT$4drop17h20156d1fb400a58fE', symObjAddr: 0xCB0, symBinAddr: 0x331A0, symSize: 0x1E0 }
  - { offsetInCU: 0x3B29, offset: 0x127F77, size: 0x8, addend: 0x0, symName: '__ZN79_$LT$hashbrown..raw..RawTable$LT$T$C$A$GT$$u20$as$u20$core..ops..drop..Drop$GT$4drop17h3c889643a99c8b0aE', symObjAddr: 0xE90, symBinAddr: 0x33380, symSize: 0x110 }
  - { offsetInCU: 0x43B3, offset: 0x128801, size: 0x8, addend: 0x0, symName: '__ZN79_$LT$hashbrown..raw..RawTable$LT$T$C$A$GT$$u20$as$u20$core..ops..drop..Drop$GT$4drop17hdcdf3a3476420f66E', symObjAddr: 0xFA0, symBinAddr: 0x33490, symSize: 0x120 }
  - { offsetInCU: 0x4CA5, offset: 0x1290F3, size: 0x8, addend: 0x0, symName: '__ZN79_$LT$hashbrown..raw..RawTable$LT$T$C$A$GT$$u20$as$u20$core..ops..drop..Drop$GT$4drop17hf9e81da66e898352E', symObjAddr: 0x10C0, symBinAddr: 0x335B0, symSize: 0x120 }
  - { offsetInCU: 0x4CD3, offset: 0x129121, size: 0x8, addend: 0x0, symName: '__ZN79_$LT$hashbrown..raw..RawTable$LT$T$C$A$GT$$u20$as$u20$core..ops..drop..Drop$GT$4drop17hf9e81da66e898352E', symObjAddr: 0x10C0, symBinAddr: 0x335B0, symSize: 0x120 }
  - { offsetInCU: 0x4CFA, offset: 0x129148, size: 0x8, addend: 0x0, symName: '__ZN79_$LT$hashbrown..raw..RawTable$LT$T$C$A$GT$$u20$as$u20$core..ops..drop..Drop$GT$4drop17hf9e81da66e898352E', symObjAddr: 0x10C0, symBinAddr: 0x335B0, symSize: 0x120 }
  - { offsetInCU: 0x4D0B, offset: 0x129159, size: 0x8, addend: 0x0, symName: '__ZN79_$LT$hashbrown..raw..RawTable$LT$T$C$A$GT$$u20$as$u20$core..ops..drop..Drop$GT$4drop17hf9e81da66e898352E', symObjAddr: 0x10C0, symBinAddr: 0x335B0, symSize: 0x120 }
  - { offsetInCU: 0x690A, offset: 0x12AD58, size: 0x8, addend: 0x0, symName: '__ZN4core3ptr181drop_in_place$LT$hashbrown..scopeguard..ScopeGuard$LT$$RF$mut$u20$hashbrown..raw..RawTableInner$C$hashbrown..raw..RawTableInner..rehash_in_place..$u7b$$u7b$closure$u7d$$u7d$$GT$$GT$17hc7e4ff3d451195c4E', symObjAddr: 0x0, symBinAddr: 0x324F0, symSize: 0xC0 }
  - { offsetInCU: 0x78B0, offset: 0x12BCFE, size: 0x8, addend: 0x0, symName: '__ZN4core3ptr196drop_in_place$LT$hashbrown..scopeguard..ScopeGuard$LT$hashbrown..raw..RawTableInner$C$hashbrown..raw..RawTableInner..prepare_resize$LT$alloc..alloc..Global$GT$..$u7b$$u7b$closure$u7d$$u7d$$GT$$GT$17h5a35b6e0c26994ddE', symObjAddr: 0xC0, symBinAddr: 0x325B0, symSize: 0x40 }
  - { offsetInCU: 0x8056, offset: 0x12C4A4, size: 0x8, addend: 0x0, symName: '__ZN4core3ptr277drop_in_place$LT$hashbrown..scopeguard..ScopeGuard$LT$$LP$usize$C$$RF$mut$u20$hashbrown..raw..RawTable$LT$$LP$proc_macro2..Ident$C$$LP$$RP$$RP$$GT$$RP$$C$hashbrown..raw..RawTable$LT$$LP$proc_macro2..Ident$C$$LP$$RP$$RP$$GT$..clone_from_impl..$u7b$$u7b$closure$u7d$$u7d$$GT$$GT$17ha59f6e92a48807d2E', symObjAddr: 0x100, symBinAddr: 0x325F0, symSize: 0x80 }
  - { offsetInCU: 0x807C, offset: 0x12C4CA, size: 0x8, addend: 0x0, symName: '__ZN4core3ptr277drop_in_place$LT$hashbrown..scopeguard..ScopeGuard$LT$$LP$usize$C$$RF$mut$u20$hashbrown..raw..RawTable$LT$$LP$proc_macro2..Ident$C$$LP$$RP$$RP$$GT$$RP$$C$hashbrown..raw..RawTable$LT$$LP$proc_macro2..Ident$C$$LP$$RP$$RP$$GT$..clone_from_impl..$u7b$$u7b$closure$u7d$$u7d$$GT$$GT$17ha59f6e92a48807d2E', symObjAddr: 0x100, symBinAddr: 0x325F0, symSize: 0x80 }
  - { offsetInCU: 0x8091, offset: 0x12C4DF, size: 0x8, addend: 0x0, symName: '__ZN4core3ptr277drop_in_place$LT$hashbrown..scopeguard..ScopeGuard$LT$$LP$usize$C$$RF$mut$u20$hashbrown..raw..RawTable$LT$$LP$proc_macro2..Ident$C$$LP$$RP$$RP$$GT$$RP$$C$hashbrown..raw..RawTable$LT$$LP$proc_macro2..Ident$C$$LP$$RP$$RP$$GT$..clone_from_impl..$u7b$$u7b$closure$u7d$$u7d$$GT$$GT$17ha59f6e92a48807d2E', symObjAddr: 0x100, symBinAddr: 0x325F0, symSize: 0x80 }
  - { offsetInCU: 0x80A1, offset: 0x12C4EF, size: 0x8, addend: 0x0, symName: '__ZN4core3ptr277drop_in_place$LT$hashbrown..scopeguard..ScopeGuard$LT$$LP$usize$C$$RF$mut$u20$hashbrown..raw..RawTable$LT$$LP$proc_macro2..Ident$C$$LP$$RP$$RP$$GT$$RP$$C$hashbrown..raw..RawTable$LT$$LP$proc_macro2..Ident$C$$LP$$RP$$RP$$GT$..clone_from_impl..$u7b$$u7b$closure$u7d$$u7d$$GT$$GT$17ha59f6e92a48807d2E', symObjAddr: 0x100, symBinAddr: 0x325F0, symSize: 0x80 }
  - { offsetInCU: 0x833A, offset: 0x12C788, size: 0x8, addend: 0x0, symName: '__ZN4core3ptr333drop_in_place$LT$hashbrown..scopeguard..ScopeGuard$LT$$LP$usize$C$$RF$mut$u20$hashbrown..raw..RawTable$LT$$LP$proc_macro2..Ident$C$alloc..vec..Vec$LT$syn..ty..Type$GT$$RP$$GT$$RP$$C$hashbrown..raw..RawTable$LT$$LP$proc_macro2..Ident$C$alloc..vec..Vec$LT$syn..ty..Type$GT$$RP$$GT$..clone_from_impl..$u7b$$u7b$closure$u7d$$u7d$$GT$$GT$17h97fa5adfa72d313bE', symObjAddr: 0x180, symBinAddr: 0x32670, symSize: 0x140 }
  - { offsetInCU: 0x8A5E, offset: 0x12CEAC, size: 0x8, addend: 0x0, symName: '__ZN4core3ptr45drop_in_place$LT$proc_macro2..TokenStream$GT$17h207b9d10b43ca09fE.llvm.993292286892618894', symObjAddr: 0x2C0, symBinAddr: 0x327B0, symSize: 0x140 }
  - { offsetInCU: 0x8EBA, offset: 0x12D308, size: 0x8, addend: 0x0, symName: '__ZN4core3ptr58drop_in_place$LT$$LP$proc_macro2..Ident$C$$LP$$RP$$RP$$GT$17h85aca2d5e7de996eE', symObjAddr: 0x400, symBinAddr: 0x328F0, symSize: 0x30 }
  - { offsetInCU: 0x9013, offset: 0x12D461, size: 0x8, addend: 0x0, symName: '__ZN4core3ptr61drop_in_place$LT$$LP$alloc..string..String$C$$LP$$RP$$RP$$GT$17ha51b1cb733442f9aE', symObjAddr: 0x430, symBinAddr: 0x32920, symSize: 0x20 }
  - { offsetInCU: 0x913A, offset: 0x12D588, size: 0x8, addend: 0x0, symName: '__ZN4core3ptr65drop_in_place$LT$alloc..vec..Vec$LT$proc_macro..TokenTree$GT$$GT$17h54365d0bdf61b883E.llvm.993292286892618894', symObjAddr: 0x450, symBinAddr: 0x32940, symSize: 0x110 }
  - { offsetInCU: 0x9532, offset: 0x12D980, size: 0x8, addend: 0x0, symName: '__ZN4core3ptr74drop_in_place$LT$$LP$proc_macro2..Ident$C$proc_macro2..TokenStream$RP$$GT$17h5f0e4fd30114d079E', symObjAddr: 0x560, symBinAddr: 0x32A50, symSize: 0x40 }
  - { offsetInCU: 0x9552, offset: 0x12D9A0, size: 0x8, addend: 0x0, symName: '__ZN4core3ptr74drop_in_place$LT$$LP$proc_macro2..Ident$C$proc_macro2..TokenStream$RP$$GT$17h5f0e4fd30114d079E', symObjAddr: 0x560, symBinAddr: 0x32A50, symSize: 0x40 }
  - { offsetInCU: 0x9570, offset: 0x12D9BE, size: 0x8, addend: 0x0, symName: '__ZN4core3ptr74drop_in_place$LT$$LP$proc_macro2..Ident$C$proc_macro2..TokenStream$RP$$GT$17h5f0e4fd30114d079E', symObjAddr: 0x560, symBinAddr: 0x32A50, symSize: 0x40 }
  - { offsetInCU: 0x9632, offset: 0x12DA80, size: 0x8, addend: 0x0, symName: '__ZN4core3ptr86drop_in_place$LT$$LP$proc_macro2..Ident$C$alloc..vec..Vec$LT$syn..ty..Type$GT$$RP$$GT$17he04cb2c99f65cf79E', symObjAddr: 0x5A0, symBinAddr: 0x32A90, symSize: 0xF0 }
  - { offsetInCU: 0x172F9, offset: 0x13B747, size: 0x8, addend: 0x0, symName: '__ZN9hashbrown3raw21RawTable$LT$T$C$A$GT$14reserve_rehash17h5b8d6d6e3916d65bE.llvm.993292286892618894', symObjAddr: 0x1270, symBinAddr: 0x322B70, symSize: 0x7D0 }
  - { offsetInCU: 0x19786, offset: 0x13DBD4, size: 0x8, addend: 0x0, symName: '__ZN9hashbrown3raw21RawTable$LT$T$C$A$GT$14reserve_rehash17h99c346e7c09c8070E.llvm.993292286892618894', symObjAddr: 0x1A40, symBinAddr: 0x323340, symSize: 0x760 }
  - { offsetInCU: 0x1BC0C, offset: 0x14005A, size: 0x8, addend: 0x0, symName: '__ZN9hashbrown3raw21RawTable$LT$T$C$A$GT$14reserve_rehash17ha2b4dd0aba51ee40E.llvm.993292286892618894', symObjAddr: 0x21A0, symBinAddr: 0x323AA0, symSize: 0x790 }
  - { offsetInCU: 0x1E0F5, offset: 0x142543, size: 0x8, addend: 0x0, symName: '__ZN9hashbrown3raw21RawTable$LT$T$C$A$GT$14reserve_rehash17hf88c19258568483bE.llvm.993292286892618894', symObjAddr: 0x2930, symBinAddr: 0x324230, symSize: 0x7D0 }
  - { offsetInCU: 0x1E, offset: 0x144E74, size: 0x8, addend: 0x0, symName: __ZN5alloc7raw_vec11finish_grow17hbd7a3a207273d714E.llvm.11489771009240445334, symObjAddr: 0x0, symBinAddr: 0x336D0, symSize: 0xA0 }
  - { offsetInCU: 0x50F6, offset: 0x149F4C, size: 0x8, addend: 0x0, symName: __ZN5alloc7raw_vec11finish_grow17hbd7a3a207273d714E.llvm.11489771009240445334, symObjAddr: 0x0, symBinAddr: 0x336D0, symSize: 0xA0 }
  - { offsetInCU: 0x65E5, offset: 0x14B43B, size: 0x8, addend: 0x0, symName: '__ZN5alloc7raw_vec19RawVec$LT$T$C$A$GT$7reserve21do_reserve_and_handle17h0ae585c1367ce769E', symObjAddr: 0x810, symBinAddr: 0x324A00, symSize: 0x0 }
  - { offsetInCU: 0x6912, offset: 0x14B768, size: 0x8, addend: 0x0, symName: '__ZN5alloc7raw_vec19RawVec$LT$T$C$A$GT$7reserve21do_reserve_and_handle17h4730b09a25498116E', symObjAddr: 0x8C0, symBinAddr: 0x324AB0, symSize: 0xC0 }
  - { offsetInCU: 0x6C3F, offset: 0x14BA95, size: 0x8, addend: 0x0, symName: '__ZN5alloc7raw_vec19RawVec$LT$T$C$A$GT$7reserve21do_reserve_and_handle17h60444726b14f408aE', symObjAddr: 0x980, symBinAddr: 0x324B70, symSize: 0xC0 }
  - { offsetInCU: 0x6F6C, offset: 0x14BDC2, size: 0x8, addend: 0x0, symName: '__ZN5alloc7raw_vec19RawVec$LT$T$C$A$GT$7reserve21do_reserve_and_handle17h6a15697a038bbbe0E', symObjAddr: 0xA40, symBinAddr: 0x324C30, symSize: 0xC0 }
  - { offsetInCU: 0x7299, offset: 0x14C0EF, size: 0x8, addend: 0x0, symName: '__ZN5alloc7raw_vec19RawVec$LT$T$C$A$GT$7reserve21do_reserve_and_handle17h7d28e9be3504ff5fE', symObjAddr: 0xB00, symBinAddr: 0x324CF0, symSize: 0xA0 }
  - { offsetInCU: 0x7591, offset: 0x14C3E7, size: 0x8, addend: 0x0, symName: '__ZN5alloc7raw_vec19RawVec$LT$T$C$A$GT$7reserve21do_reserve_and_handle17hccbf122dc1d2fda1E', symObjAddr: 0xBA0, symBinAddr: 0x324D90, symSize: 0xB0 }
  - { offsetInCU: 0xE072, offset: 0x152EC8, size: 0x8, addend: 0x0, symName: '__ZN5alloc7raw_vec19RawVec$LT$T$C$A$GT$8grow_one17h0ff7610ae87bd207E', symObjAddr: 0xC50, symBinAddr: 0x33770, symSize: 0xC0 }
  - { offsetInCU: 0xE53E, offset: 0x153394, size: 0x8, addend: 0x0, symName: '__ZN5alloc7raw_vec19RawVec$LT$T$C$A$GT$8grow_one17h2206328cf771ed7dE', symObjAddr: 0xD10, symBinAddr: 0x33830, symSize: 0xC0 }
  - { offsetInCU: 0xE87F, offset: 0x1536D5, size: 0x8, addend: 0x0, symName: '__ZN5alloc7raw_vec19RawVec$LT$T$C$A$GT$8grow_one17h33f13d1f0644149aE', symObjAddr: 0xDD0, symBinAddr: 0x338F0, symSize: 0xA0 }
  - { offsetInCU: 0xED87, offset: 0x153BDD, size: 0x8, addend: 0x0, symName: '__ZN5alloc7raw_vec19RawVec$LT$T$C$A$GT$8grow_one17h70b07fcb9a3a46dcE', symObjAddr: 0xE70, symBinAddr: 0x33990, symSize: 0xC0 }
  - { offsetInCU: 0xF255, offset: 0x1540AB, size: 0x8, addend: 0x0, symName: '__ZN5alloc7raw_vec19RawVec$LT$T$C$A$GT$8grow_one17h85e89a412597b0b8E', symObjAddr: 0xF30, symBinAddr: 0x33A50, symSize: 0xC0 }
  - { offsetInCU: 0xF596, offset: 0x1543EC, size: 0x8, addend: 0x0, symName: '__ZN5alloc7raw_vec19RawVec$LT$T$C$A$GT$8grow_one17h89dadf49eed5cc86E', symObjAddr: 0xFF0, symBinAddr: 0x33B10, symSize: 0xC0 }
  - { offsetInCU: 0xFA64, offset: 0x1548BA, size: 0x8, addend: 0x0, symName: '__ZN5alloc7raw_vec19RawVec$LT$T$C$A$GT$8grow_one17hdb731f518bb6b8d8E', symObjAddr: 0x10B0, symBinAddr: 0x33BD0, symSize: 0xC0 }
  - { offsetInCU: 0xFF41, offset: 0x154D97, size: 0x8, addend: 0x0, symName: '__ZN5alloc7raw_vec19RawVec$LT$T$C$A$GT$8grow_one17hf90a085196d148ccE', symObjAddr: 0x1170, symBinAddr: 0x33C90, symSize: 0xB0 }
  - { offsetInCU: 0x1E, offset: 0x1551DE, size: 0x8, addend: 0x0, symName: __ZN3syn4meta15ParseNestedMeta17parse_nested_meta17h16540a3cce615dacE, symObjAddr: 0x0, symBinAddr: 0x33D40, symSize: 0x270 }
  - { offsetInCU: 0xF4, offset: 0x1552B4, size: 0x8, addend: 0x0, symName: '__ZN58_$LT$alloc..string..String$u20$as$u20$core..fmt..Write$GT$10write_char17h04bc467bd68a934bE', symObjAddr: 0x97C0, symBinAddr: 0x3D470, symSize: 0x140 }
  - { offsetInCU: 0x4F9, offset: 0x1556B9, size: 0x8, addend: 0x0, symName: '__ZN58_$LT$alloc..string..String$u20$as$u20$core..fmt..Write$GT$9write_str17h46a93205c3443fbaE', symObjAddr: 0x9900, symBinAddr: 0x3D5B0, symSize: 0x5B }
  - { offsetInCU: 0x4478, offset: 0x159638, size: 0x8, addend: 0x0, symName: '__ZN4core3ptr100drop_in_place$LT$core..option..Option$LT$alloc..boxed..Box$LT$syn..path..GenericArgument$GT$$GT$$GT$17h807a36ffbab107a4E', symObjAddr: 0x2A00, symBinAddr: 0x366B0, symSize: 0x50 }
  - { offsetInCU: 0x4645, offset: 0x159805, size: 0x8, addend: 0x0, symName: '__ZN4core3ptr102drop_in_place$LT$syn..punctuated..Punctuated$LT$syn..path..GenericArgument$C$syn..token..Comma$GT$$GT$17h87ac6172553c146eE', symObjAddr: 0x2A50, symBinAddr: 0x36700, symSize: 0xF0 }
  - { offsetInCU: 0x4965, offset: 0x159B25, size: 0x8, addend: 0x0, symName: '__ZN4core3ptr103drop_in_place$LT$core..option..Option$LT$alloc..boxed..Box$LT$syn..generics..TypeParamBound$GT$$GT$$GT$17h0017d361ebb9471fE', symObjAddr: 0x2B40, symBinAddr: 0x367F0, symSize: 0x50 }
  - { offsetInCU: 0x4B70, offset: 0x159D30, size: 0x8, addend: 0x0, symName: '__ZN4core3ptr103drop_in_place$LT$syn..punctuated..Punctuated$LT$syn..generics..GenericParam$C$syn..token..Comma$GT$$GT$17hf5a644fae414a53cE', symObjAddr: 0x2B90, symBinAddr: 0x36840, symSize: 0xF0 }
  - { offsetInCU: 0x5144, offset: 0x15A304, size: 0x8, addend: 0x0, symName: '__ZN4core3ptr104drop_in_place$LT$syn..punctuated..Punctuated$LT$syn..generics..TypeParamBound$C$syn..token..Plus$GT$$GT$17ha86a9d1599e32cffE', symObjAddr: 0x2C80, symBinAddr: 0x36930, symSize: 0x240 }
  - { offsetInCU: 0x5A1E, offset: 0x15ABDE, size: 0x8, addend: 0x0, symName: '__ZN4core3ptr34drop_in_place$LT$syn..lit..Lit$GT$17h7e230476d36822bfE', symObjAddr: 0x2EC0, symBinAddr: 0x36B70, symSize: 0x120 }
  - { offsetInCU: 0x5F0C, offset: 0x15B0CC, size: 0x8, addend: 0x0, symName: '__ZN4core3ptr34drop_in_place$LT$syn..pat..Pat$GT$17h5b0a97e980f53e46E', symObjAddr: 0x2FE0, symBinAddr: 0x36C90, symSize: 0xF40 }
  - { offsetInCU: 0x99D2, offset: 0x15EB92, size: 0x8, addend: 0x0, symName: '__ZN4core3ptr34drop_in_place$LT$syn..ty..Type$GT$17h19f850f61918f31fE', symObjAddr: 0x3F20, symBinAddr: 0x37BD0, symSize: 0x580 }
  - { offsetInCU: 0xB25B, offset: 0x16041B, size: 0x8, addend: 0x0, symName: '__ZN4core3ptr36drop_in_place$LT$syn..expr..Expr$GT$17h98f7f68f0a06dff7E', symObjAddr: 0x44A0, symBinAddr: 0x38150, symSize: 0x2730 }
  - { offsetInCU: 0x146BB, offset: 0x16987B, size: 0x8, addend: 0x0, symName: '__ZN4core3ptr36drop_in_place$LT$syn..mac..Macro$GT$17hdf5bac46d7f74bccE', symObjAddr: 0x6BD0, symBinAddr: 0x3A880, symSize: 0xE0 }
  - { offsetInCU: 0x14A45, offset: 0x169C05, size: 0x8, addend: 0x0, symName: '__ZN4core3ptr36drop_in_place$LT$syn..path..Path$GT$17hb2feba4d905af1b2E', symObjAddr: 0x6CB0, symBinAddr: 0x3A960, symSize: 0x240 }
  - { offsetInCU: 0x153DF, offset: 0x16A59F, size: 0x8, addend: 0x0, symName: '__ZN4core3ptr37drop_in_place$LT$syn..stmt..Block$GT$17h9594e7bdfd216ee2E', symObjAddr: 0x6EF0, symBinAddr: 0x3ABA0, symSize: 0xD0 }
  - { offsetInCU: 0x156B6, offset: 0x16A876, size: 0x8, addend: 0x0, symName: '__ZN4core3ptr38drop_in_place$LT$syn..expr..Member$GT$17hd3bc25e187f7fae3E', symObjAddr: 0x6FC0, symBinAddr: 0x3AC70, symSize: 0x30 }
  - { offsetInCU: 0x157B2, offset: 0x16A972, size: 0x8, addend: 0x0, symName: '__ZN4core3ptr39drop_in_place$LT$proc_macro2..Ident$GT$17hb5fbe0c131bfa218E', symObjAddr: 0x6FF0, symBinAddr: 0x3ACA0, symSize: 0x30 }
  - { offsetInCU: 0x159C5, offset: 0x16AB85, size: 0x8, addend: 0x0, symName: '__ZN4core3ptr39drop_in_place$LT$syn..buffer..Entry$GT$17h0b9baa6bbaf945c7E', symObjAddr: 0x7020, symBinAddr: 0x3ACD0, symSize: 0xB0 }
  - { offsetInCU: 0x15D50, offset: 0x16AF10, size: 0x8, addend: 0x0, symName: '__ZN4core3ptr40drop_in_place$LT$syn..ty..ReturnType$GT$17h2041b3e02720652aE', symObjAddr: 0x70D0, symBinAddr: 0x3AD80, symSize: 0x50 }
  - { offsetInCU: 0x15EC0, offset: 0x16B080, size: 0x8, addend: 0x0, symName: '__ZN4core3ptr41drop_in_place$LT$syn..expr..ExprConst$GT$17h546d2eac1f274d91E', symObjAddr: 0x7120, symBinAddr: 0x3ADD0, symSize: 0x180 }
  - { offsetInCU: 0x16479, offset: 0x16B639, size: 0x8, addend: 0x0, symName: '__ZN4core3ptr42drop_in_place$LT$alloc..string..String$GT$17h4efd19822f3e4515E', symObjAddr: 0x72A0, symBinAddr: 0x3AF50, symSize: 0x20 }
  - { offsetInCU: 0x16581, offset: 0x16B741, size: 0x8, addend: 0x0, symName: '__ZN4core3ptr44drop_in_place$LT$syn..lifetime..Lifetime$GT$17h8afd172b97690efdE', symObjAddr: 0x72C0, symBinAddr: 0x3AF70, symSize: 0x30 }
  - { offsetInCU: 0x1667D, offset: 0x16B83D, size: 0x8, addend: 0x0, symName: '__ZN4core3ptr44drop_in_place$LT$syn..parse..ParseBuffer$GT$17h09013ce2f932da57E', symObjAddr: 0x72F0, symBinAddr: 0x3AFA0, symSize: 0x70 }
  - { offsetInCU: 0x169F9, offset: 0x16BBB9, size: 0x8, addend: 0x0, symName: '__ZN4core3ptr45drop_in_place$LT$proc_macro2..TokenStream$GT$17h207b9d10b43ca09fE', symObjAddr: 0x7360, symBinAddr: 0x3B010, symSize: 0x140 }
  - { offsetInCU: 0x16E55, offset: 0x16C015, size: 0x8, addend: 0x0, symName: '__ZN4core3ptr45drop_in_place$LT$syn..buffer..TokenBuffer$GT$17ha41c7bdecc45d618E', symObjAddr: 0x74A0, symBinAddr: 0x3B150, symSize: 0xC0 }
  - { offsetInCU: 0x170BD, offset: 0x16C27D, size: 0x8, addend: 0x0, symName: '__ZN4core3ptr45drop_in_place$LT$syn..generics..TypeParam$GT$17h6c3c07424bcf6a4eE', symObjAddr: 0x7560, symBinAddr: 0x3B210, symSize: 0x230 }
  - { offsetInCU: 0x178FE, offset: 0x16CABE, size: 0x8, addend: 0x0, symName: '__ZN4core3ptr46drop_in_place$LT$syn..generics..ConstParam$GT$17hd0de4a5923445da7E', symObjAddr: 0x7790, symBinAddr: 0x3B440, symSize: 0x150 }
  - { offsetInCU: 0x17D4B, offset: 0x16CF0B, size: 0x8, addend: 0x0, symName: '__ZN4core3ptr47drop_in_place$LT$syn..path..GenericArgument$GT$17hf4dd383aa34a4f0fE', symObjAddr: 0x78E0, symBinAddr: 0x3B590, symSize: 0x450 }
  - { offsetInCU: 0x18AC1, offset: 0x16DC81, size: 0x8, addend: 0x0, symName: '__ZN4core3ptr49drop_in_place$LT$syn..generics..LifetimeParam$GT$17hd0b2e7526885b204E', symObjAddr: 0x7D30, symBinAddr: 0x3B9E0, symSize: 0xF0 }
  - { offsetInCU: 0x18EA4, offset: 0x16E064, size: 0x8, addend: 0x0, symName: '__ZN4core3ptr50drop_in_place$LT$syn..generics..TypeParamBound$GT$17hdc238d3175f8eb5aE', symObjAddr: 0x7E20, symBinAddr: 0x3BAD0, symSize: 0xA0 }
  - { offsetInCU: 0x1900A, offset: 0x16E1CA, size: 0x8, addend: 0x0, symName: '__ZN4core3ptr58drop_in_place$LT$alloc..vec..Vec$LT$syn..expr..Arm$GT$$GT$17ha0ec4334cda5515cE', symObjAddr: 0x7EC0, symBinAddr: 0x3BB70, symSize: 0xD0 }
  - { offsetInCU: 0x192CA, offset: 0x16E48A, size: 0x8, addend: 0x0, symName: '__ZN4core3ptr59drop_in_place$LT$alloc..boxed..Box$LT$syn..pat..Pat$GT$$GT$17h67f20b4715509286E', symObjAddr: 0x7F90, symBinAddr: 0x3BC40, symSize: 0x50 }
  - { offsetInCU: 0x19423, offset: 0x16E5E3, size: 0x8, addend: 0x0, symName: '__ZN4core3ptr59drop_in_place$LT$alloc..boxed..Box$LT$syn..ty..Type$GT$$GT$17hb9082e267b94188dE', symObjAddr: 0x7FE0, symBinAddr: 0x3BC90, symSize: 0x50 }
  - { offsetInCU: 0x1957C, offset: 0x16E73C, size: 0x8, addend: 0x0, symName: '__ZN4core3ptr61drop_in_place$LT$alloc..boxed..Box$LT$syn..expr..Expr$GT$$GT$17h01310d89a7a8aab3E', symObjAddr: 0x8030, symBinAddr: 0x3BCE0, symSize: 0x50 }
  - { offsetInCU: 0x196D5, offset: 0x16E895, size: 0x8, addend: 0x0, symName: '__ZN4core3ptr61drop_in_place$LT$syn..path..ParenthesizedGenericArguments$GT$17h7fee2959ae354450E', symObjAddr: 0x8080, symBinAddr: 0x3BD30, symSize: 0x170 }
  - { offsetInCU: 0x19CDE, offset: 0x16EE9E, size: 0x8, addend: 0x0, symName: '__ZN4core3ptr63drop_in_place$LT$alloc..boxed..Box$LT$syn..lit..LitRepr$GT$$GT$17hf23a84bed7f64f98E', symObjAddr: 0x81F0, symBinAddr: 0x3BEA0, symSize: 0x60 }
  - { offsetInCU: 0x19FE5, offset: 0x16F1A5, size: 0x8, addend: 0x0, symName: '__ZN4core3ptr64drop_in_place$LT$alloc..boxed..Box$LT$syn..pat..FieldPat$GT$$GT$17ha5ec27d4d418dbdfE', symObjAddr: 0x8250, symBinAddr: 0x3BF00, symSize: 0x140 }
  - { offsetInCU: 0x1A6B2, offset: 0x16F872, size: 0x8, addend: 0x0, symName: '__ZN4core3ptr64drop_in_place$LT$alloc..boxed..Box$LT$syn..ty..BareFnArg$GT$$GT$17hb416cdff09d8949eE', symObjAddr: 0x8390, symBinAddr: 0x3C040, symSize: 0x140 }
  - { offsetInCU: 0x1AC07, offset: 0x16FDC7, size: 0x8, addend: 0x0, symName: '__ZN4core3ptr65drop_in_place$LT$alloc..vec..Vec$LT$proc_macro..TokenTree$GT$$GT$17h54365d0bdf61b883E', symObjAddr: 0x84D0, symBinAddr: 0x3C180, symSize: 0x110 }
  - { offsetInCU: 0x1AFFF, offset: 0x1701BF, size: 0x8, addend: 0x0, symName: '__ZN4core3ptr65drop_in_place$LT$core..option..Option$LT$syn..expr..Label$GT$$GT$17h6cb338f3d3fef208E', symObjAddr: 0x85E0, symBinAddr: 0x3C290, symSize: 0x30 }
  - { offsetInCU: 0x1B139, offset: 0x1702F9, size: 0x8, addend: 0x0, symName: '__ZN4core3ptr66drop_in_place$LT$core..option..Option$LT$syn..pat..PatRest$GT$$GT$17h7c9095b226142979E', symObjAddr: 0x8610, symBinAddr: 0x3C2C0, symSize: 0xE0 }
  - { offsetInCU: 0x1B42D, offset: 0x1705ED, size: 0x8, addend: 0x0, symName: '__ZN4core3ptr67drop_in_place$LT$alloc..boxed..Box$LT$syn..expr..FieldValue$GT$$GT$17hb048d8ef1ec03e8dE', symObjAddr: 0x86F0, symBinAddr: 0x3C3A0, symSize: 0x140 }
  - { offsetInCU: 0x1B981, offset: 0x170B41, size: 0x8, addend: 0x0, symName: '__ZN4core3ptr70drop_in_place$LT$core..option..Option$LT$syn..ty..BareVariadic$GT$$GT$17hf6d2a770387443a3E', symObjAddr: 0x8830, symBinAddr: 0x3C4E0, symSize: 0x100 }
  - { offsetInCU: 0x1BDB8, offset: 0x170F78, size: 0x8, addend: 0x0, symName: '__ZN4core3ptr72drop_in_place$LT$alloc..boxed..Box$LT$syn..path..GenericArgument$GT$$GT$17hcc60f7ab467d198fE', symObjAddr: 0x8930, symBinAddr: 0x3C5E0, symSize: 0x2B0 }
  - { offsetInCU: 0x1C7C9, offset: 0x171989, size: 0x8, addend: 0x0, symName: '__ZN4core3ptr72drop_in_place$LT$core..option..Option$LT$syn..lifetime..Lifetime$GT$$GT$17h70ad3b488ebe3596E', symObjAddr: 0x8BE0, symBinAddr: 0x3C890, symSize: 0x30 }
  - { offsetInCU: 0x1C8E4, offset: 0x171AA4, size: 0x8, addend: 0x0, symName: '__ZN4core3ptr73drop_in_place$LT$alloc..boxed..Box$LT$syn..generics..GenericParam$GT$$GT$17hd8823d2eb1a41dfaE', symObjAddr: 0x8C10, symBinAddr: 0x3C8C0, symSize: 0x80 }
  - { offsetInCU: 0x1CA5A, offset: 0x171C1A, size: 0x8, addend: 0x0, symName: '__ZN4core3ptr75drop_in_place$LT$alloc..boxed..Box$LT$syn..generics..TypeParamBound$GT$$GT$17hc0dbc3e6560133a8E', symObjAddr: 0x8C90, symBinAddr: 0x3C940, symSize: 0x180 }
  - { offsetInCU: 0x1D046, offset: 0x172206, size: 0x8, addend: 0x0, symName: '__ZN4core3ptr86drop_in_place$LT$syn..punctuated..Punctuated$LT$syn..pat..Pat$C$syn..token..Or$GT$$GT$17hb407e891b009195eE', symObjAddr: 0x8E10, symBinAddr: 0x3CAC0, symSize: 0x120 }
  - { offsetInCU: 0x1D4C1, offset: 0x172681, size: 0x8, addend: 0x0, symName: '__ZN4core3ptr87drop_in_place$LT$core..option..Option$LT$alloc..boxed..Box$LT$syn..pat..Pat$GT$$GT$$GT$17h27575db68a752b00E', symObjAddr: 0x8F30, symBinAddr: 0x3CBE0, symSize: 0x50 }
  - { offsetInCU: 0x1D631, offset: 0x1727F1, size: 0x8, addend: 0x0, symName: '__ZN4core3ptr87drop_in_place$LT$core..option..Option$LT$alloc..boxed..Box$LT$syn..ty..Type$GT$$GT$$GT$17h2cce7e91b6f26339E', symObjAddr: 0x8F80, symBinAddr: 0x3CC30, symSize: 0x50 }
  - { offsetInCU: 0x1D7A1, offset: 0x172961, size: 0x8, addend: 0x0, symName: '__ZN4core3ptr89drop_in_place$LT$core..option..Option$LT$alloc..boxed..Box$LT$syn..expr..Expr$GT$$GT$$GT$17h4805299351d776eaE', symObjAddr: 0x8FD0, symBinAddr: 0x3CC80, symSize: 0x50 }
  - { offsetInCU: 0x1D94F, offset: 0x172B0F, size: 0x8, addend: 0x0, symName: '__ZN4core3ptr89drop_in_place$LT$syn..punctuated..Punctuated$LT$syn..pat..Pat$C$syn..token..Comma$GT$$GT$17hbfa21962153cb723E', symObjAddr: 0x9020, symBinAddr: 0x3CCD0, symSize: 0x120 }
  - { offsetInCU: 0x1DE1F, offset: 0x172FDF, size: 0x8, addend: 0x0, symName: '__ZN4core3ptr91drop_in_place$LT$syn..punctuated..Punctuated$LT$syn..expr..Expr$C$syn..token..Comma$GT$$GT$17hd2c79695be72d75eE', symObjAddr: 0x9140, symBinAddr: 0x3CDF0, symSize: 0x120 }
  - { offsetInCU: 0x1E2AD, offset: 0x17346D, size: 0x8, addend: 0x0, symName: '__ZN4core3ptr94drop_in_place$LT$syn..punctuated..Punctuated$LT$syn..pat..FieldPat$C$syn..token..Comma$GT$$GT$17hb2b4aed8f633cba0E', symObjAddr: 0x9260, symBinAddr: 0x3CF10, symSize: 0xF0 }
  - { offsetInCU: 0x1E5AC, offset: 0x17376C, size: 0x8, addend: 0x0, symName: '__ZN4core3ptr94drop_in_place$LT$syn..punctuated..Punctuated$LT$syn..ty..BareFnArg$C$syn..token..Comma$GT$$GT$17h59c18cbb4f726140E', symObjAddr: 0x9350, symBinAddr: 0x3D000, symSize: 0xF0 }
  - { offsetInCU: 0x1E8AD, offset: 0x173A6D, size: 0x8, addend: 0x0, symName: '__ZN4core3ptr96drop_in_place$LT$core..option..Option$LT$alloc..boxed..Box$LT$syn..path..PathSegment$GT$$GT$$GT$17hd67a31bad3bc4ef4E', symObjAddr: 0x9440, symBinAddr: 0x3D0F0, symSize: 0x1A0 }
  - { offsetInCU: 0x1EF6E, offset: 0x17412E, size: 0x8, addend: 0x0, symName: '__ZN4core3ptr97drop_in_place$LT$syn..punctuated..Punctuated$LT$syn..expr..FieldValue$C$syn..token..Comma$GT$$GT$17h2644f25adad08ccbE', symObjAddr: 0x95E0, symBinAddr: 0x3D290, symSize: 0xF0 }
  - { offsetInCU: 0x1F2E7, offset: 0x1744A7, size: 0x8, addend: 0x0, symName: '__ZN4core3ptr98drop_in_place$LT$syn..punctuated..Punctuated$LT$syn..lifetime..Lifetime$C$syn..token..Plus$GT$$GT$17hfbe9a104e4a4f23fE', symObjAddr: 0x96D0, symBinAddr: 0x3D380, symSize: 0xD0 }
  - { offsetInCU: 0x1FE4B, offset: 0x17500B, size: 0x8, addend: 0x0, symName: '__ZN53_$LT$core..fmt..Error$u20$as$u20$core..fmt..Debug$GT$3fmt17h03dc662ab152f3aeE', symObjAddr: 0x97A0, symBinAddr: 0x3D450, symSize: 0x20 }
  - { offsetInCU: 0x251B0, offset: 0x17A370, size: 0x8, addend: 0x0, symName: '__ZN40_$LT$F$u20$as$u20$syn..parse..Parser$GT$14__parse_scoped17h593017d3b3dbdef8E', symObjAddr: 0x7E0, symBinAddr: 0x34490, symSize: 0x8A0 }
  - { offsetInCU: 0x26638, offset: 0x17B7F8, size: 0x8, addend: 0x0, symName: '__ZN40_$LT$F$u20$as$u20$syn..parse..Parser$GT$14__parse_scoped17h85b1c1a76421d652E', symObjAddr: 0x1080, symBinAddr: 0x34D30, symSize: 0x4E0 }
  - { offsetInCU: 0x272BD, offset: 0x17C47D, size: 0x8, addend: 0x0, symName: '__ZN40_$LT$F$u20$as$u20$syn..parse..Parser$GT$14__parse_scoped17haf5cc54f297851c6E', symObjAddr: 0x1560, symBinAddr: 0x35210, symSize: 0x760 }
  - { offsetInCU: 0x28283, offset: 0x17D443, size: 0x8, addend: 0x0, symName: '__ZN40_$LT$F$u20$as$u20$syn..parse..Parser$GT$14__parse_scoped17hc460bf0414ff0c3fE', symObjAddr: 0x1CC0, symBinAddr: 0x35970, symSize: 0x680 }
  - { offsetInCU: 0x29081, offset: 0x17E241, size: 0x8, addend: 0x0, symName: '__ZN40_$LT$F$u20$as$u20$syn..parse..Parser$GT$14__parse_scoped17hd59dafe71a94cd3cE', symObjAddr: 0x2340, symBinAddr: 0x35FF0, symSize: 0x6C0 }
  - { offsetInCU: 0x305BE, offset: 0x18577E, size: 0x8, addend: 0x0, symName: __ZN3syn4meta15ParseNestedMeta17parse_nested_meta17h16540a3cce615dacE, symObjAddr: 0x0, symBinAddr: 0x33D40, symSize: 0x270 }
  - { offsetInCU: 0x30E08, offset: 0x185FC8, size: 0x8, addend: 0x0, symName: __ZN3syn4meta15ParseNestedMeta17parse_nested_meta17h56067dec27a5d936E, symObjAddr: 0x270, symBinAddr: 0x33FB0, symSize: 0x270 }
  - { offsetInCU: 0x31652, offset: 0x186812, size: 0x8, addend: 0x0, symName: __ZN3syn4meta15ParseNestedMeta17parse_nested_meta17hc20e1bf0874bd625E, symObjAddr: 0x4E0, symBinAddr: 0x34220, symSize: 0x270 }
  - { offsetInCU: 0xB2, offset: 0x18AD9D, size: 0x8, addend: 0x0, symName: '__ZN58_$LT$alloc..string..String$u20$as$u20$core..fmt..Write$GT$10write_char17h04bc467bd68a934bE', symObjAddr: 0x75D0, symBinAddr: 0x44A30, symSize: 0x140 }
  - { offsetInCU: 0x4B7, offset: 0x18B1A2, size: 0x8, addend: 0x0, symName: '__ZN58_$LT$alloc..string..String$u20$as$u20$core..fmt..Write$GT$9write_str17h46a93205c3443fbaE', symObjAddr: 0x7710, symBinAddr: 0x44B70, symSize: 0x60 }
  - { offsetInCU: 0x3B0F, offset: 0x18E7FA, size: 0x8, addend: 0x0, symName: '__ZN4core3ptr100drop_in_place$LT$core..option..Option$LT$alloc..boxed..Box$LT$syn..path..GenericArgument$GT$$GT$$GT$17h807a36ffbab107a4E', symObjAddr: 0x1B0, symBinAddr: 0x3D610, symSize: 0x50 }
  - { offsetInCU: 0x3EAD, offset: 0x18EB98, size: 0x8, addend: 0x0, symName: '__ZN4core3ptr100drop_in_place$LT$syn..punctuated..Punctuated$LT$syn..path..PathSegment$C$syn..token..PathSep$GT$$GT$17hcb9c7ae6720123ceE', symObjAddr: 0x200, symBinAddr: 0x3D660, symSize: 0x270 }
  - { offsetInCU: 0x4850, offset: 0x18F53B, size: 0x8, addend: 0x0, symName: '__ZN4core3ptr103drop_in_place$LT$core..option..Option$LT$alloc..boxed..Box$LT$syn..generics..TypeParamBound$GT$$GT$$GT$17h0017d361ebb9471fE', symObjAddr: 0x470, symBinAddr: 0x3D8D0, symSize: 0x50 }
  - { offsetInCU: 0x4A5B, offset: 0x18F746, size: 0x8, addend: 0x0, symName: '__ZN4core3ptr103drop_in_place$LT$syn..punctuated..Punctuated$LT$syn..generics..GenericParam$C$syn..token..Comma$GT$$GT$17hf5a644fae414a53cE.llvm.15098691417758764569', symObjAddr: 0x4C0, symBinAddr: 0x3D920, symSize: 0xF0 }
  - { offsetInCU: 0x4F56, offset: 0x18FC41, size: 0x8, addend: 0x0, symName: '__ZN4core3ptr104drop_in_place$LT$syn..punctuated..Punctuated$LT$syn..generics..TypeParamBound$C$syn..token..Plus$GT$$GT$17ha86a9d1599e32cffE', symObjAddr: 0x5B0, symBinAddr: 0x3DA10, symSize: 0x190 }
  - { offsetInCU: 0x5598, offset: 0x190283, size: 0x8, addend: 0x0, symName: '__ZN4core3ptr168drop_in_place$LT$core..iter..adapters..map..Map$LT$syn..generics..TypeParams$C$borsh_derive..internals..generics..FindTyParams..new..$u7b$$u7b$closure$u7d$$u7d$$GT$$GT$17h59736fcde3cc9c29E.llvm.15098691417758764569', symObjAddr: 0x740, symBinAddr: 0x3DBA0, symSize: 0x30 }
  - { offsetInCU: 0x57B6, offset: 0x1904A1, size: 0x8, addend: 0x0, symName: '__ZN4core3ptr34drop_in_place$LT$syn..lit..Lit$GT$17h7e230476d36822bfE', symObjAddr: 0x770, symBinAddr: 0x3DBD0, symSize: 0x120 }
  - { offsetInCU: 0x5CA4, offset: 0x19098F, size: 0x8, addend: 0x0, symName: '__ZN4core3ptr34drop_in_place$LT$syn..pat..Pat$GT$17h5b0a97e980f53e46E', symObjAddr: 0x890, symBinAddr: 0x3DCF0, symSize: 0x1090 }
  - { offsetInCU: 0x9CA4, offset: 0x19498F, size: 0x8, addend: 0x0, symName: '__ZN4core3ptr34drop_in_place$LT$syn..ty..Type$GT$17h19f850f61918f31fE.llvm.15098691417758764569', symObjAddr: 0x1920, symBinAddr: 0x3ED80, symSize: 0x4F0 }
  - { offsetInCU: 0xB1E7, offset: 0x195ED2, size: 0x8, addend: 0x0, symName: '__ZN4core3ptr36drop_in_place$LT$syn..expr..Expr$GT$17h98f7f68f0a06dff7E.llvm.15098691417758764569', symObjAddr: 0x1E10, symBinAddr: 0x3F270, symSize: 0x27D0 }
  - { offsetInCU: 0x1491B, offset: 0x19F606, size: 0x8, addend: 0x0, symName: '__ZN4core3ptr36drop_in_place$LT$syn..mac..Macro$GT$17hdf5bac46d7f74bccE', symObjAddr: 0x45E0, symBinAddr: 0x41A40, symSize: 0x40 }
  - { offsetInCU: 0x14955, offset: 0x19F640, size: 0x8, addend: 0x0, symName: '__ZN4core3ptr36drop_in_place$LT$syn..path..Path$GT$17hb2feba4d905af1b2E', symObjAddr: 0x4620, symBinAddr: 0x41A80, symSize: 0x240 }
  - { offsetInCU: 0x152EF, offset: 0x19FFDA, size: 0x8, addend: 0x0, symName: '__ZN4core3ptr37drop_in_place$LT$syn..stmt..Block$GT$17h9594e7bdfd216ee2E', symObjAddr: 0x4860, symBinAddr: 0x41CC0, symSize: 0xD0 }
  - { offsetInCU: 0x155C6, offset: 0x1A02B1, size: 0x8, addend: 0x0, symName: '__ZN4core3ptr38drop_in_place$LT$syn..expr..Member$GT$17hd3bc25e187f7fae3E', symObjAddr: 0x4930, symBinAddr: 0x41D90, symSize: 0x30 }
  - { offsetInCU: 0x156C2, offset: 0x1A03AD, size: 0x8, addend: 0x0, symName: '__ZN4core3ptr39drop_in_place$LT$proc_macro2..Ident$GT$17hb5fbe0c131bfa218E.llvm.15098691417758764569', symObjAddr: 0x4960, symBinAddr: 0x41DC0, symSize: 0x30 }
  - { offsetInCU: 0x1579F, offset: 0x1A048A, size: 0x8, addend: 0x0, symName: '__ZN4core3ptr40drop_in_place$LT$syn..ty..ReturnType$GT$17h2041b3e02720652aE', symObjAddr: 0x4990, symBinAddr: 0x41DF0, symSize: 0x50 }
  - { offsetInCU: 0x1590F, offset: 0x1A05FA, size: 0x8, addend: 0x0, symName: '__ZN4core3ptr41drop_in_place$LT$syn..expr..ExprConst$GT$17h546d2eac1f274d91E', symObjAddr: 0x49E0, symBinAddr: 0x41E40, symSize: 0x180 }
  - { offsetInCU: 0x15EC8, offset: 0x1A0BB3, size: 0x8, addend: 0x0, symName: '__ZN4core3ptr42drop_in_place$LT$alloc..string..String$GT$17h4efd19822f3e4515E', symObjAddr: 0x4B60, symBinAddr: 0x41FC0, symSize: 0x20 }
  - { offsetInCU: 0x15FD0, offset: 0x1A0CBB, size: 0x8, addend: 0x0, symName: '__ZN4core3ptr44drop_in_place$LT$syn..lifetime..Lifetime$GT$17h8afd172b97690efdE.llvm.15098691417758764569', symObjAddr: 0x4B80, symBinAddr: 0x41FE0, symSize: 0x30 }
  - { offsetInCU: 0x16202, offset: 0x1A0EED, size: 0x8, addend: 0x0, symName: '__ZN4core3ptr45drop_in_place$LT$proc_macro2..TokenStream$GT$17h207b9d10b43ca09fE', symObjAddr: 0x4BB0, symBinAddr: 0x42010, symSize: 0x140 }
  - { offsetInCU: 0x1666A, offset: 0x1A1355, size: 0x8, addend: 0x0, symName: '__ZN4core3ptr45drop_in_place$LT$syn..generics..TypeParam$GT$17h6c3c07424bcf6a4eE.llvm.15098691417758764569', symObjAddr: 0x4CF0, symBinAddr: 0x42150, symSize: 0x230 }
  - { offsetInCU: 0x16EAB, offset: 0x1A1B96, size: 0x8, addend: 0x0, symName: '__ZN4core3ptr46drop_in_place$LT$syn..generics..ConstParam$GT$17hd0de4a5923445da7E.llvm.15098691417758764569', symObjAddr: 0x4F20, symBinAddr: 0x42380, symSize: 0x150 }
  - { offsetInCU: 0x172F8, offset: 0x1A1FE3, size: 0x8, addend: 0x0, symName: '__ZN4core3ptr47drop_in_place$LT$syn..path..GenericArgument$GT$17hf4dd383aa34a4f0fE', symObjAddr: 0x5070, symBinAddr: 0x424D0, symSize: 0x4A0 }
  - { offsetInCU: 0x183FE, offset: 0x1A30E9, size: 0x8, addend: 0x0, symName: '__ZN4core3ptr49drop_in_place$LT$syn..generics..LifetimeParam$GT$17hd0b2e7526885b204E.llvm.15098691417758764569', symObjAddr: 0x5510, symBinAddr: 0x42970, symSize: 0xF0 }
  - { offsetInCU: 0x187E1, offset: 0x1A34CC, size: 0x8, addend: 0x0, symName: '__ZN4core3ptr50drop_in_place$LT$syn..generics..TypeParamBound$GT$17hdc238d3175f8eb5aE', symObjAddr: 0x5600, symBinAddr: 0x42A60, symSize: 0x180 }
  - { offsetInCU: 0x18C4A, offset: 0x1A3935, size: 0x8, addend: 0x0, symName: '__ZN4core3ptr57drop_in_place$LT$alloc..vec..Vec$LT$syn..ty..Type$GT$$GT$17h7077bc1b57d637e0E', symObjAddr: 0x5780, symBinAddr: 0x42BE0, symSize: 0xD0 }
  - { offsetInCU: 0x18F0A, offset: 0x1A3BF5, size: 0x8, addend: 0x0, symName: '__ZN4core3ptr58drop_in_place$LT$alloc..vec..Vec$LT$syn..expr..Arm$GT$$GT$17ha0ec4334cda5515cE', symObjAddr: 0x5850, symBinAddr: 0x42CB0, symSize: 0xD0 }
  - { offsetInCU: 0x191CA, offset: 0x1A3EB5, size: 0x8, addend: 0x0, symName: '__ZN4core3ptr59drop_in_place$LT$alloc..boxed..Box$LT$syn..pat..Pat$GT$$GT$17h67f20b4715509286E', symObjAddr: 0x5920, symBinAddr: 0x42D80, symSize: 0x50 }
  - { offsetInCU: 0x19323, offset: 0x1A400E, size: 0x8, addend: 0x0, symName: '__ZN4core3ptr59drop_in_place$LT$alloc..boxed..Box$LT$syn..ty..Type$GT$$GT$17hb9082e267b94188dE', symObjAddr: 0x5970, symBinAddr: 0x42DD0, symSize: 0x50 }
  - { offsetInCU: 0x1947C, offset: 0x1A4167, size: 0x8, addend: 0x0, symName: '__ZN4core3ptr61drop_in_place$LT$alloc..boxed..Box$LT$syn..expr..Expr$GT$$GT$17h01310d89a7a8aab3E', symObjAddr: 0x59C0, symBinAddr: 0x42E20, symSize: 0x50 }
  - { offsetInCU: 0x19651, offset: 0x1A433C, size: 0x8, addend: 0x0, symName: '__ZN4core3ptr61drop_in_place$LT$syn..path..ParenthesizedGenericArguments$GT$17h7fee2959ae354450E', symObjAddr: 0x5A10, symBinAddr: 0x42E70, symSize: 0x170 }
  - { offsetInCU: 0x19C66, offset: 0x1A4951, size: 0x8, addend: 0x0, symName: '__ZN4core3ptr62drop_in_place$LT$alloc..vec..Vec$LT$proc_macro2..Ident$GT$$GT$17h797813b5b7183904E.llvm.15098691417758764569', symObjAddr: 0x5B80, symBinAddr: 0x42FE0, symSize: 0x90 }
  - { offsetInCU: 0x19EEE, offset: 0x1A4BD9, size: 0x8, addend: 0x0, symName: '__ZN4core3ptr62drop_in_place$LT$syn..path..AngleBracketedGenericArguments$GT$17h79141db867cfe0cbE', symObjAddr: 0x5C10, symBinAddr: 0x43070, symSize: 0x120 }
  - { offsetInCU: 0x1A339, offset: 0x1A5024, size: 0x8, addend: 0x0, symName: '__ZN4core3ptr63drop_in_place$LT$alloc..boxed..Box$LT$syn..lit..LitRepr$GT$$GT$17hf23a84bed7f64f98E', symObjAddr: 0x5D30, symBinAddr: 0x43190, symSize: 0x60 }
  - { offsetInCU: 0x1A640, offset: 0x1A532B, size: 0x8, addend: 0x0, symName: '__ZN4core3ptr64drop_in_place$LT$alloc..boxed..Box$LT$syn..pat..FieldPat$GT$$GT$17ha5ec27d4d418dbdfE', symObjAddr: 0x5D90, symBinAddr: 0x431F0, symSize: 0x140 }
  - { offsetInCU: 0x1AD0D, offset: 0x1A59F8, size: 0x8, addend: 0x0, symName: '__ZN4core3ptr64drop_in_place$LT$alloc..boxed..Box$LT$syn..ty..BareFnArg$GT$$GT$17hb416cdff09d8949eE', symObjAddr: 0x5ED0, symBinAddr: 0x43330, symSize: 0x140 }
  - { offsetInCU: 0x1B262, offset: 0x1A5F4D, size: 0x8, addend: 0x0, symName: '__ZN4core3ptr65drop_in_place$LT$alloc..vec..Vec$LT$proc_macro..TokenTree$GT$$GT$17h54365d0bdf61b883E', symObjAddr: 0x6010, symBinAddr: 0x43470, symSize: 0x110 }
  - { offsetInCU: 0x1B65A, offset: 0x1A6345, size: 0x8, addend: 0x0, symName: '__ZN4core3ptr65drop_in_place$LT$core..option..Option$LT$syn..expr..Label$GT$$GT$17h6cb338f3d3fef208E', symObjAddr: 0x6120, symBinAddr: 0x43580, symSize: 0x30 }
  - { offsetInCU: 0x1B794, offset: 0x1A647F, size: 0x8, addend: 0x0, symName: '__ZN4core3ptr66drop_in_place$LT$core..option..Option$LT$syn..pat..PatRest$GT$$GT$17h7c9095b226142979E', symObjAddr: 0x6150, symBinAddr: 0x435B0, symSize: 0xE0 }
  - { offsetInCU: 0x1BA88, offset: 0x1A6773, size: 0x8, addend: 0x0, symName: '__ZN4core3ptr67drop_in_place$LT$alloc..boxed..Box$LT$syn..expr..FieldValue$GT$$GT$17hb048d8ef1ec03e8dE', symObjAddr: 0x6230, symBinAddr: 0x43690, symSize: 0x140 }
  - { offsetInCU: 0x1BFBD, offset: 0x1A6CA8, size: 0x8, addend: 0x0, symName: '__ZN4core3ptr68drop_in_place$LT$alloc..boxed..Box$LT$syn..path..PathSegment$GT$$GT$17h582dcd8abb4b1a74E', symObjAddr: 0x6370, symBinAddr: 0x437D0, symSize: 0x1B0 }
  - { offsetInCU: 0x1C7A4, offset: 0x1A748F, size: 0x8, addend: 0x0, symName: '__ZN4core3ptr68drop_in_place$LT$borsh_derive..internals..generics..FindTyParams$GT$17he80daff20c61038bE', symObjAddr: 0x6520, symBinAddr: 0x43980, symSize: 0xA0 }
  - { offsetInCU: 0x1CBB8, offset: 0x1A78A3, size: 0x8, addend: 0x0, symName: '__ZN4core3ptr70drop_in_place$LT$core..option..Option$LT$syn..ty..BareVariadic$GT$$GT$17hf6d2a770387443a3E', symObjAddr: 0x65C0, symBinAddr: 0x43A20, symSize: 0x100 }
  - { offsetInCU: 0x1CFEF, offset: 0x1A7CDA, size: 0x8, addend: 0x0, symName: '__ZN4core3ptr72drop_in_place$LT$alloc..boxed..Box$LT$syn..path..GenericArgument$GT$$GT$17hcc60f7ab467d198fE', symObjAddr: 0x66C0, symBinAddr: 0x43B20, symSize: 0x1D0 }
  - { offsetInCU: 0x1D58A, offset: 0x1A8275, size: 0x8, addend: 0x0, symName: '__ZN4core3ptr72drop_in_place$LT$core..option..Option$LT$syn..lifetime..Lifetime$GT$$GT$17h70ad3b488ebe3596E', symObjAddr: 0x6890, symBinAddr: 0x43CF0, symSize: 0x30 }
  - { offsetInCU: 0x1D6A5, offset: 0x1A8390, size: 0x8, addend: 0x0, symName: '__ZN4core3ptr73drop_in_place$LT$alloc..boxed..Box$LT$syn..generics..GenericParam$GT$$GT$17hd8823d2eb1a41dfaE.llvm.15098691417758764569', symObjAddr: 0x68C0, symBinAddr: 0x43D20, symSize: 0x80 }
  - { offsetInCU: 0x1D81B, offset: 0x1A8506, size: 0x8, addend: 0x0, symName: '__ZN4core3ptr75drop_in_place$LT$alloc..boxed..Box$LT$syn..generics..TypeParamBound$GT$$GT$17hc0dbc3e6560133a8E', symObjAddr: 0x6940, symBinAddr: 0x43DA0, symSize: 0xC0 }
  - { offsetInCU: 0x1DB6F, offset: 0x1A885A, size: 0x8, addend: 0x0, symName: '__ZN4core3ptr86drop_in_place$LT$syn..punctuated..Punctuated$LT$syn..pat..Pat$C$syn..token..Or$GT$$GT$17hb407e891b009195eE', symObjAddr: 0x6A00, symBinAddr: 0x43E60, symSize: 0x120 }
  - { offsetInCU: 0x1DFEA, offset: 0x1A8CD5, size: 0x8, addend: 0x0, symName: '__ZN4core3ptr87drop_in_place$LT$core..option..Option$LT$alloc..boxed..Box$LT$syn..pat..Pat$GT$$GT$$GT$17h27575db68a752b00E', symObjAddr: 0x6B20, symBinAddr: 0x43F80, symSize: 0x50 }
  - { offsetInCU: 0x1E15A, offset: 0x1A8E45, size: 0x8, addend: 0x0, symName: '__ZN4core3ptr87drop_in_place$LT$core..option..Option$LT$alloc..boxed..Box$LT$syn..ty..Type$GT$$GT$$GT$17h2cce7e91b6f26339E', symObjAddr: 0x6B70, symBinAddr: 0x43FD0, symSize: 0x50 }
  - { offsetInCU: 0x1E2CA, offset: 0x1A8FB5, size: 0x8, addend: 0x0, symName: '__ZN4core3ptr89drop_in_place$LT$core..option..Option$LT$alloc..boxed..Box$LT$syn..expr..Expr$GT$$GT$$GT$17h4805299351d776eaE', symObjAddr: 0x6BC0, symBinAddr: 0x44020, symSize: 0x50 }
  - { offsetInCU: 0x1E478, offset: 0x1A9163, size: 0x8, addend: 0x0, symName: '__ZN4core3ptr89drop_in_place$LT$syn..punctuated..Punctuated$LT$syn..pat..Pat$C$syn..token..Comma$GT$$GT$17hbfa21962153cb723E', symObjAddr: 0x6C10, symBinAddr: 0x44070, symSize: 0x120 }
  - { offsetInCU: 0x1E90A, offset: 0x1A95F5, size: 0x8, addend: 0x0, symName: '__ZN4core3ptr89drop_in_place$LT$syn..punctuated..Punctuated$LT$syn..ty..Type$C$syn..token..Comma$GT$$GT$17h487f88da4f994ccfE', symObjAddr: 0x6D30, symBinAddr: 0x44190, symSize: 0x120 }
  - { offsetInCU: 0x1ED85, offset: 0x1A9A70, size: 0x8, addend: 0x0, symName: '__ZN4core3ptr90drop_in_place$LT$core..option..Option$LT$syn..path..AngleBracketedGenericArguments$GT$$GT$17h44b2ad11f3f45684E', symObjAddr: 0x6E50, symBinAddr: 0x442B0, symSize: 0x130 }
  - { offsetInCU: 0x1F227, offset: 0x1A9F12, size: 0x8, addend: 0x0, symName: '__ZN4core3ptr91drop_in_place$LT$syn..punctuated..Punctuated$LT$syn..expr..Expr$C$syn..token..Comma$GT$$GT$17hd2c79695be72d75eE', symObjAddr: 0x6F80, symBinAddr: 0x443E0, symSize: 0x120 }
  - { offsetInCU: 0x1F6B5, offset: 0x1AA3A0, size: 0x8, addend: 0x0, symName: '__ZN4core3ptr94drop_in_place$LT$syn..punctuated..Punctuated$LT$syn..pat..FieldPat$C$syn..token..Comma$GT$$GT$17hb2b4aed8f633cba0E', symObjAddr: 0x70A0, symBinAddr: 0x44500, symSize: 0xF0 }
  - { offsetInCU: 0x1F9B4, offset: 0x1AA69F, size: 0x8, addend: 0x0, symName: '__ZN4core3ptr94drop_in_place$LT$syn..punctuated..Punctuated$LT$syn..ty..BareFnArg$C$syn..token..Comma$GT$$GT$17h59c18cbb4f726140E', symObjAddr: 0x7190, symBinAddr: 0x445F0, symSize: 0xF0 }
  - { offsetInCU: 0x1FCB5, offset: 0x1AA9A0, size: 0x8, addend: 0x0, symName: '__ZN4core3ptr96drop_in_place$LT$core..option..Option$LT$alloc..boxed..Box$LT$syn..path..PathSegment$GT$$GT$$GT$17hd67a31bad3bc4ef4E', symObjAddr: 0x7280, symBinAddr: 0x446E0, symSize: 0xA0 }
  - { offsetInCU: 0x1FF34, offset: 0x1AAC1F, size: 0x8, addend: 0x0, symName: '__ZN4core3ptr97drop_in_place$LT$syn..punctuated..Punctuated$LT$syn..expr..FieldValue$C$syn..token..Comma$GT$$GT$17h2644f25adad08ccbE', symObjAddr: 0x7320, symBinAddr: 0x44780, symSize: 0xF0 }
  - { offsetInCU: 0x20231, offset: 0x1AAF1C, size: 0x8, addend: 0x0, symName: '__ZN4core3ptr98drop_in_place$LT$alloc..vec..Vec$LT$$LP$syn..path..GenericArgument$C$syn..token..Comma$RP$$GT$$GT$17h050ecd3ba4b8a9c3E', symObjAddr: 0x7410, symBinAddr: 0x44870, symSize: 0xD0 }
  - { offsetInCU: 0x20571, offset: 0x1AB25C, size: 0x8, addend: 0x0, symName: '__ZN4core3ptr98drop_in_place$LT$syn..punctuated..Punctuated$LT$syn..lifetime..Lifetime$C$syn..token..Plus$GT$$GT$17hfbe9a104e4a4f23fE.llvm.15098691417758764569', symObjAddr: 0x74E0, symBinAddr: 0x44940, symSize: 0xD0 }
  - { offsetInCU: 0x213B6, offset: 0x1AC0A1, size: 0x8, addend: 0x0, symName: '__ZN53_$LT$core..fmt..Error$u20$as$u20$core..fmt..Debug$GT$3fmt17h03dc662ab152f3aeE', symObjAddr: 0x75B0, symBinAddr: 0x44A10, symSize: 0x20 }
  - { offsetInCU: 0x2C0A6, offset: 0x1B6D91, size: 0x8, addend: 0x0, symName: __ZN12borsh_derive9internals8generics16without_defaults17hf6fdfd18bd1bb806E, symObjAddr: 0x7810, symBinAddr: 0x44BD0, symSize: 0x120 }
  - { offsetInCU: 0x2C4E8, offset: 0x1B71D3, size: 0x8, addend: 0x0, symName: __ZN12borsh_derive9internals8generics24type_contains_some_param17he37ca9c0f9f5a2aaE, symObjAddr: 0x7930, symBinAddr: 0x44CF0, symSize: 0x490 }
  - { offsetInCU: 0x2EC8D, offset: 0x1B9978, size: 0x8, addend: 0x0, symName: __ZN12borsh_derive9internals8generics12FindTyParams3new17h6e815524f833aecfE, symObjAddr: 0x7DC0, symBinAddr: 0x45180, symSize: 0x310 }
  - { offsetInCU: 0x305B8, offset: 0x1BB2A3, size: 0x8, addend: 0x0, symName: __ZN12borsh_derive9internals8generics12FindTyParams18process_for_bounds17h5afcfbc9eb7ebb90E, symObjAddr: 0x80D0, symBinAddr: 0x45490, symSize: 0x1020 }
  - { offsetInCU: 0x346BD, offset: 0x1BF3A8, size: 0x8, addend: 0x0, symName: __ZN12borsh_derive9internals8generics12FindTyParams18process_for_params17he984adb7b616c646E, symObjAddr: 0x90F0, symBinAddr: 0x464B0, symSize: 0x880 }
  - { offsetInCU: 0x36E79, offset: 0x1C1B64, size: 0x8, addend: 0x0, symName: __ZN12borsh_derive9internals8generics12FindTyParams20visit_type_top_level17h45a049615027e811E.llvm.15098691417758764569, symObjAddr: 0x9980, symBinAddr: 0x46D30, symSize: 0x1F0 }
  - { offsetInCU: 0x3790A, offset: 0x1C25F5, size: 0x8, addend: 0x0, symName: __ZN12borsh_derive9internals8generics12FindTyParams28param_associated_type_insert17h532655871b097612E, symObjAddr: 0x9B70, symBinAddr: 0x46F20, symSize: 0x350 }
  - { offsetInCU: 0x389A6, offset: 0x1C3691, size: 0x8, addend: 0x0, symName: __ZN12borsh_derive9internals8generics12FindTyParams10visit_path17hc1be057ba64544a0E, symObjAddr: 0x9EC0, symBinAddr: 0x47270, symSize: 0x540 }
  - { offsetInCU: 0x3A548, offset: 0x1C5233, size: 0x8, addend: 0x0, symName: __ZN12borsh_derive9internals8generics12FindTyParams10visit_type17h2735cfdfced15322E, symObjAddr: 0xA400, symBinAddr: 0x477B0, symSize: 0x380 }
  - { offsetInCU: 0x1E, offset: 0x1CBDE0, size: 0x8, addend: 0x0, symName: '__ZN108_$LT$alloc..collections..btree..map..Iter$LT$K$C$V$GT$$u20$as$u20$core..iter..traits..iterator..Iterator$GT$4next17h88e6613418b6b2c1E', symObjAddr: 0x0, symBinAddr: 0x47B30, symSize: 0x0 }
  - { offsetInCU: 0x1B7F, offset: 0x1CD941, size: 0x8, addend: 0x0, symName: '__ZN4core3ptr100drop_in_place$LT$core..option..Option$LT$alloc..boxed..Box$LT$syn..path..GenericArgument$GT$$GT$$GT$17h807a36ffbab107a4E', symObjAddr: 0x250, symBinAddr: 0x47D70, symSize: 0x50 }
  - { offsetInCU: 0x1F1D, offset: 0x1CDCDF, size: 0x8, addend: 0x0, symName: '__ZN4core3ptr100drop_in_place$LT$syn..punctuated..Punctuated$LT$syn..path..PathSegment$C$syn..token..PathSep$GT$$GT$17hcb9c7ae6720123ceE.llvm.11221171659423945045', symObjAddr: 0x2A0, symBinAddr: 0x47DC0, symSize: 0x270 }
  - { offsetInCU: 0x28DF, offset: 0x1CE6A1, size: 0x8, addend: 0x0, symName: '__ZN4core3ptr101drop_in_place$LT$core..option..Option$LT$alloc..vec..Vec$LT$syn..generics..WherePredicate$GT$$GT$$GT$17h9b97eb8149fa9b49E', symObjAddr: 0x510, symBinAddr: 0x48030, symSize: 0xD0 }
  - { offsetInCU: 0x2BBC, offset: 0x1CE97E, size: 0x8, addend: 0x0, symName: '__ZN4core3ptr103drop_in_place$LT$core..option..Option$LT$alloc..boxed..Box$LT$syn..generics..TypeParamBound$GT$$GT$$GT$17h0017d361ebb9471fE', symObjAddr: 0x5E0, symBinAddr: 0x48100, symSize: 0x50 }
  - { offsetInCU: 0x2DC7, offset: 0x1CEB89, size: 0x8, addend: 0x0, symName: '__ZN4core3ptr103drop_in_place$LT$syn..punctuated..Punctuated$LT$syn..generics..GenericParam$C$syn..token..Comma$GT$$GT$17hf5a644fae414a53cE', symObjAddr: 0x630, symBinAddr: 0x48150, symSize: 0xF0 }
  - { offsetInCU: 0x32C2, offset: 0x1CF084, size: 0x8, addend: 0x0, symName: '__ZN4core3ptr104drop_in_place$LT$syn..punctuated..Punctuated$LT$syn..generics..TypeParamBound$C$syn..token..Plus$GT$$GT$17ha86a9d1599e32cffE', symObjAddr: 0x720, symBinAddr: 0x48240, symSize: 0x190 }
  - { offsetInCU: 0x38E5, offset: 0x1CF6A7, size: 0x8, addend: 0x0, symName: '__ZN4core3ptr122drop_in_place$LT$core..option..Option$LT$borsh_derive..internals..attributes..field..schema..with_funcs..WithFuncs$GT$$GT$17he02ffe9b3554ccf8E', symObjAddr: 0x8B0, symBinAddr: 0x483D0, symSize: 0x70 }
  - { offsetInCU: 0x3953, offset: 0x1CF715, size: 0x8, addend: 0x0, symName: '__ZN4core3ptr265drop_in_place$LT$$LT$alloc..collections..btree..map..IntoIter$LT$K$C$V$C$A$GT$$u20$as$u20$core..ops..drop..Drop$GT$..drop..DropGuard$LT$borsh_derive..internals..attributes..Symbol$C$borsh_derive..internals..attributes..field..Variants$C$alloc..alloc..Global$GT$$GT$17hadfd8874a5e1eb0dE.llvm.11221171659423945045', symObjAddr: 0x920, symBinAddr: 0x48440, symSize: 0x70 }
  - { offsetInCU: 0x3AA8, offset: 0x1CF86A, size: 0x8, addend: 0x0, symName: '__ZN4core3ptr273drop_in_place$LT$$LT$alloc..collections..btree..map..IntoIter$LT$K$C$V$C$A$GT$$u20$as$u20$core..ops..drop..Drop$GT$..drop..DropGuard$LT$borsh_derive..internals..attributes..Symbol$C$borsh_derive..internals..attributes..field..bounds..Variants$C$alloc..alloc..Global$GT$$GT$17h9bf48f3f96a20a1eE.llvm.11221171659423945045', symObjAddr: 0x990, symBinAddr: 0x484B0, symSize: 0x2C0 }
  - { offsetInCU: 0x4091, offset: 0x1CFE53, size: 0x8, addend: 0x0, symName: '__ZN4core3ptr273drop_in_place$LT$$LT$alloc..collections..btree..map..IntoIter$LT$K$C$V$C$A$GT$$u20$as$u20$core..ops..drop..Drop$GT$..drop..DropGuard$LT$borsh_derive..internals..attributes..Symbol$C$borsh_derive..internals..attributes..field..schema..Variants$C$alloc..alloc..Global$GT$$GT$17h6af429e028813faaE.llvm.11221171659423945045', symObjAddr: 0xC50, symBinAddr: 0x48770, symSize: 0x70 }
  - { offsetInCU: 0x41E6, offset: 0x1CFFA8, size: 0x8, addend: 0x0, symName: '__ZN4core3ptr285drop_in_place$LT$$LT$alloc..collections..btree..map..IntoIter$LT$K$C$V$C$A$GT$$u20$as$u20$core..ops..drop..Drop$GT$..drop..DropGuard$LT$borsh_derive..internals..attributes..Symbol$C$borsh_derive..internals..attributes..field..schema..with_funcs..Variants$C$alloc..alloc..Global$GT$$GT$17ha16c8fc4a8fb69a2E.llvm.11221171659423945045', symObjAddr: 0xCC0, symBinAddr: 0x487E0, symSize: 0x60 }
  - { offsetInCU: 0x434F, offset: 0x1D0111, size: 0x8, addend: 0x0, symName: '__ZN4core3ptr34drop_in_place$LT$syn..lit..Lit$GT$17h7e230476d36822bfE', symObjAddr: 0xD20, symBinAddr: 0x48840, symSize: 0x120 }
  - { offsetInCU: 0x481E, offset: 0x1D05E0, size: 0x8, addend: 0x0, symName: '__ZN4core3ptr34drop_in_place$LT$syn..pat..Pat$GT$17h5b0a97e980f53e46E', symObjAddr: 0xE40, symBinAddr: 0x48960, symSize: 0xEE0 }
  - { offsetInCU: 0x8044, offset: 0x1D3E06, size: 0x8, addend: 0x0, symName: '__ZN4core3ptr34drop_in_place$LT$syn..ty..Type$GT$17h19f850f61918f31fE.llvm.11221171659423945045', symObjAddr: 0x1D20, symBinAddr: 0x49840, symSize: 0x4F0 }
  - { offsetInCU: 0x9587, offset: 0x1D5349, size: 0x8, addend: 0x0, symName: '__ZN4core3ptr36drop_in_place$LT$syn..expr..Expr$GT$17h98f7f68f0a06dff7E', symObjAddr: 0x2210, symBinAddr: 0x49D30, symSize: 0x2680 }
  - { offsetInCU: 0x127A1, offset: 0x1DE563, size: 0x8, addend: 0x0, symName: '__ZN4core3ptr36drop_in_place$LT$syn..mac..Macro$GT$17hdf5bac46d7f74bccE', symObjAddr: 0x4890, symBinAddr: 0x4C3B0, symSize: 0x40 }
  - { offsetInCU: 0x127DB, offset: 0x1DE59D, size: 0x8, addend: 0x0, symName: '__ZN4core3ptr36drop_in_place$LT$syn..path..Path$GT$17hb2feba4d905af1b2E', symObjAddr: 0x48D0, symBinAddr: 0x4C3F0, symSize: 0x240 }
  - { offsetInCU: 0x13175, offset: 0x1DEF37, size: 0x8, addend: 0x0, symName: '__ZN4core3ptr37drop_in_place$LT$syn..path..QSelf$GT$17h2ad306e037f599caE.llvm.11221171659423945045', symObjAddr: 0x4B10, symBinAddr: 0x4C630, symSize: 0x50 }
  - { offsetInCU: 0x132ED, offset: 0x1DF0AF, size: 0x8, addend: 0x0, symName: '__ZN4core3ptr37drop_in_place$LT$syn..stmt..Block$GT$17h9594e7bdfd216ee2E', symObjAddr: 0x4B60, symBinAddr: 0x4C680, symSize: 0xD0 }
  - { offsetInCU: 0x135C4, offset: 0x1DF386, size: 0x8, addend: 0x0, symName: '__ZN4core3ptr38drop_in_place$LT$syn..expr..Member$GT$17hd3bc25e187f7fae3E', symObjAddr: 0x4CA0, symBinAddr: 0x4C750, symSize: 0x30 }
  - { offsetInCU: 0x136C0, offset: 0x1DF482, size: 0x8, addend: 0x0, symName: '__ZN4core3ptr39drop_in_place$LT$proc_macro2..Ident$GT$17hb5fbe0c131bfa218E', symObjAddr: 0x4CD0, symBinAddr: 0x4C780, symSize: 0x30 }
  - { offsetInCU: 0x1379D, offset: 0x1DF55F, size: 0x8, addend: 0x0, symName: '__ZN4core3ptr40drop_in_place$LT$syn..expr..ExprPath$GT$17hac51ab24dfe997baE.llvm.11221171659423945045', symObjAddr: 0x4D00, symBinAddr: 0x4C7B0, symSize: 0x120 }
  - { offsetInCU: 0x13C4D, offset: 0x1DFA0F, size: 0x8, addend: 0x0, symName: '__ZN4core3ptr40drop_in_place$LT$syn..ty..ReturnType$GT$17h2041b3e02720652aE', symObjAddr: 0x4E20, symBinAddr: 0x4C8D0, symSize: 0x50 }
  - { offsetInCU: 0x13DBD, offset: 0x1DFB7F, size: 0x8, addend: 0x0, symName: '__ZN4core3ptr41drop_in_place$LT$syn..expr..ExprConst$GT$17h546d2eac1f274d91E', symObjAddr: 0x4E70, symBinAddr: 0x4C920, symSize: 0x180 }
  - { offsetInCU: 0x14376, offset: 0x1E0138, size: 0x8, addend: 0x0, symName: '__ZN4core3ptr44drop_in_place$LT$syn..lifetime..Lifetime$GT$17h8afd172b97690efdE', symObjAddr: 0x4FF0, symBinAddr: 0x4CAA0, symSize: 0x30 }
  - { offsetInCU: 0x145A8, offset: 0x1E036A, size: 0x8, addend: 0x0, symName: '__ZN4core3ptr45drop_in_place$LT$proc_macro2..TokenStream$GT$17h207b9d10b43ca09fE', symObjAddr: 0x5020, symBinAddr: 0x4CAD0, symSize: 0x140 }
  - { offsetInCU: 0x14A42, offset: 0x1E0804, size: 0x8, addend: 0x0, symName: '__ZN4core3ptr45drop_in_place$LT$syn..generics..TypeParam$GT$17h6c3c07424bcf6a4eE', symObjAddr: 0x5160, symBinAddr: 0x4CC10, symSize: 0x230 }
  - { offsetInCU: 0x15283, offset: 0x1E1045, size: 0x8, addend: 0x0, symName: '__ZN4core3ptr46drop_in_place$LT$syn..generics..ConstParam$GT$17hd0de4a5923445da7E', symObjAddr: 0x5390, symBinAddr: 0x4CE40, symSize: 0x150 }
  - { offsetInCU: 0x156D0, offset: 0x1E1492, size: 0x8, addend: 0x0, symName: '__ZN4core3ptr47drop_in_place$LT$syn..path..GenericArgument$GT$17hf4dd383aa34a4f0fE', symObjAddr: 0x54E0, symBinAddr: 0x4CF90, symSize: 0x4A0 }
  - { offsetInCU: 0x167D6, offset: 0x1E2598, size: 0x8, addend: 0x0, symName: '__ZN4core3ptr49drop_in_place$LT$syn..generics..LifetimeParam$GT$17hd0b2e7526885b204E', symObjAddr: 0x5980, symBinAddr: 0x4D430, symSize: 0xF0 }
  - { offsetInCU: 0x16BB9, offset: 0x1E297B, size: 0x8, addend: 0x0, symName: '__ZN4core3ptr50drop_in_place$LT$syn..generics..TypeParamBound$GT$17hdc238d3175f8eb5aE', symObjAddr: 0x5A70, symBinAddr: 0x4D520, symSize: 0x180 }
  - { offsetInCU: 0x17022, offset: 0x1E2DE4, size: 0x8, addend: 0x0, symName: '__ZN4core3ptr579drop_in_place$LT$$LT$alloc..collections..btree..map..IntoIter$LT$K$C$V$C$A$GT$$u20$as$u20$core..ops..drop..Drop$GT$..drop..DropGuard$LT$borsh_derive..internals..attributes..Symbol$C$alloc..boxed..Box$LT$dyn$u20$core..ops..function..Fn$LT$$LP$borsh_derive..internals..attributes..Symbol$C$borsh_derive..internals..attributes..Symbol$C$$RF$syn..meta..ParseNestedMeta$RP$$GT$$u2b$Output$u20$$u3d$$u20$core..result..Result$LT$borsh_derive..internals..attributes..field..Variants$C$syn..error..Error$GT$$u2b$core..marker..Sync$u2b$core..marker..Send$GT$$C$alloc..alloc..Global$GT$$GT$17h728bb75ac9998023E.llvm.11221171659423945045', symObjAddr: 0x5BF0, symBinAddr: 0x4D6A0, symSize: 0x0 }
  - { offsetInCU: 0x1732B, offset: 0x1E30ED, size: 0x8, addend: 0x0, symName: '__ZN4core3ptr58drop_in_place$LT$alloc..vec..Vec$LT$syn..expr..Arm$GT$$GT$17ha0ec4334cda5515cE', symObjAddr: 0x5CB0, symBinAddr: 0x4D760, symSize: 0xD0 }
  - { offsetInCU: 0x175EB, offset: 0x1E33AD, size: 0x8, addend: 0x0, symName: '__ZN4core3ptr59drop_in_place$LT$alloc..boxed..Box$LT$syn..pat..Pat$GT$$GT$17h67f20b4715509286E', symObjAddr: 0x5D80, symBinAddr: 0x4D830, symSize: 0x50 }
  - { offsetInCU: 0x17744, offset: 0x1E3506, size: 0x8, addend: 0x0, symName: '__ZN4core3ptr59drop_in_place$LT$alloc..boxed..Box$LT$syn..ty..Type$GT$$GT$17hb9082e267b94188dE', symObjAddr: 0x5DD0, symBinAddr: 0x4D880, symSize: 0x50 }
  - { offsetInCU: 0x1789D, offset: 0x1E365F, size: 0x8, addend: 0x0, symName: '__ZN4core3ptr61drop_in_place$LT$alloc..boxed..Box$LT$syn..expr..Expr$GT$$GT$17h01310d89a7a8aab3E', symObjAddr: 0x5E20, symBinAddr: 0x4D8D0, symSize: 0x50 }
  - { offsetInCU: 0x17A72, offset: 0x1E3834, size: 0x8, addend: 0x0, symName: '__ZN4core3ptr61drop_in_place$LT$syn..path..ParenthesizedGenericArguments$GT$17h7fee2959ae354450E', symObjAddr: 0x5E70, symBinAddr: 0x4D920, symSize: 0x170 }
  - { offsetInCU: 0x18068, offset: 0x1E3E2A, size: 0x8, addend: 0x0, symName: '__ZN4core3ptr62drop_in_place$LT$syn..path..AngleBracketedGenericArguments$GT$17h79141db867cfe0cbE', symObjAddr: 0x5FE0, symBinAddr: 0x4DA90, symSize: 0x120 }
  - { offsetInCU: 0x184B3, offset: 0x1E4275, size: 0x8, addend: 0x0, symName: '__ZN4core3ptr63drop_in_place$LT$alloc..boxed..Box$LT$syn..lit..LitRepr$GT$$GT$17hf23a84bed7f64f98E', symObjAddr: 0x6100, symBinAddr: 0x4DBB0, symSize: 0x60 }
  - { offsetInCU: 0x187BA, offset: 0x1E457C, size: 0x8, addend: 0x0, symName: '__ZN4core3ptr64drop_in_place$LT$alloc..boxed..Box$LT$syn..pat..FieldPat$GT$$GT$17ha5ec27d4d418dbdfE', symObjAddr: 0x6160, symBinAddr: 0x4DC10, symSize: 0x140 }
  - { offsetInCU: 0x18E87, offset: 0x1E4C49, size: 0x8, addend: 0x0, symName: '__ZN4core3ptr64drop_in_place$LT$alloc..boxed..Box$LT$syn..ty..BareFnArg$GT$$GT$17hb416cdff09d8949eE', symObjAddr: 0x62A0, symBinAddr: 0x4DD50, symSize: 0x140 }
  - { offsetInCU: 0x193DC, offset: 0x1E519E, size: 0x8, addend: 0x0, symName: '__ZN4core3ptr65drop_in_place$LT$alloc..vec..Vec$LT$proc_macro..TokenTree$GT$$GT$17h54365d0bdf61b883E', symObjAddr: 0x63E0, symBinAddr: 0x4DE90, symSize: 0x110 }
  - { offsetInCU: 0x197D4, offset: 0x1E5596, size: 0x8, addend: 0x0, symName: '__ZN4core3ptr65drop_in_place$LT$core..option..Option$LT$syn..expr..Label$GT$$GT$17h6cb338f3d3fef208E', symObjAddr: 0x64F0, symBinAddr: 0x4DFA0, symSize: 0x30 }
  - { offsetInCU: 0x1990E, offset: 0x1E56D0, size: 0x8, addend: 0x0, symName: '__ZN4core3ptr65drop_in_place$LT$core..option..Option$LT$syn..path..QSelf$GT$$GT$17h77b32165fa1277f0E', symObjAddr: 0x6520, symBinAddr: 0x4DFD0, symSize: 0x50 }
  - { offsetInCU: 0x19AA5, offset: 0x1E5867, size: 0x8, addend: 0x0, symName: '__ZN4core3ptr66drop_in_place$LT$core..option..Option$LT$syn..pat..PatRest$GT$$GT$17h7c9095b226142979E', symObjAddr: 0x6570, symBinAddr: 0x4E020, symSize: 0xE0 }
  - { offsetInCU: 0x19D99, offset: 0x1E5B5B, size: 0x8, addend: 0x0, symName: '__ZN4core3ptr67drop_in_place$LT$alloc..boxed..Box$LT$syn..expr..FieldValue$GT$$GT$17hb048d8ef1ec03e8dE', symObjAddr: 0x6650, symBinAddr: 0x4E100, symSize: 0x140 }
  - { offsetInCU: 0x1A2CE, offset: 0x1E6090, size: 0x8, addend: 0x0, symName: '__ZN4core3ptr68drop_in_place$LT$alloc..boxed..Box$LT$syn..path..PathSegment$GT$$GT$17h582dcd8abb4b1a74E', symObjAddr: 0x6790, symBinAddr: 0x4E240, symSize: 0x1B0 }
  - { offsetInCU: 0x1A9DC, offset: 0x1E679E, size: 0x8, addend: 0x0, symName: '__ZN4core3ptr70drop_in_place$LT$core..option..Option$LT$syn..ty..BareVariadic$GT$$GT$17hf6d2a770387443a3E', symObjAddr: 0x6940, symBinAddr: 0x4E3F0, symSize: 0x100 }
  - { offsetInCU: 0x1AE13, offset: 0x1E6BD5, size: 0x8, addend: 0x0, symName: '__ZN4core3ptr72drop_in_place$LT$alloc..boxed..Box$LT$syn..path..GenericArgument$GT$$GT$17hcc60f7ab467d198fE', symObjAddr: 0x6A40, symBinAddr: 0x4E4F0, symSize: 0x1D0 }
  - { offsetInCU: 0x1B3AE, offset: 0x1E7170, size: 0x8, addend: 0x0, symName: '__ZN4core3ptr72drop_in_place$LT$core..option..Option$LT$syn..lifetime..Lifetime$GT$$GT$17h70ad3b488ebe3596E', symObjAddr: 0x6C10, symBinAddr: 0x4E6C0, symSize: 0x30 }
  - { offsetInCU: 0x1B4C9, offset: 0x1E728B, size: 0x8, addend: 0x0, symName: '__ZN4core3ptr73drop_in_place$LT$alloc..boxed..Box$LT$syn..generics..GenericParam$GT$$GT$17hd8823d2eb1a41dfaE', symObjAddr: 0x6C40, symBinAddr: 0x4E6F0, symSize: 0x80 }
  - { offsetInCU: 0x1B718, offset: 0x1E74DA, size: 0x8, addend: 0x0, symName: '__ZN4core3ptr73drop_in_place$LT$borsh_derive..internals..attributes..field..Variants$GT$17hd8d39875cf34ff27E.llvm.11221171659423945045', symObjAddr: 0x6CC0, symBinAddr: 0x4E770, symSize: 0x330 }
  - { offsetInCU: 0x1C138, offset: 0x1E7EFA, size: 0x8, addend: 0x0, symName: '__ZN4core3ptr75drop_in_place$LT$alloc..boxed..Box$LT$syn..generics..TypeParamBound$GT$$GT$17hc0dbc3e6560133a8E', symObjAddr: 0x6FF0, symBinAddr: 0x4EAA0, symSize: 0xC0 }
  - { offsetInCU: 0x1C42F, offset: 0x1E81F1, size: 0x8, addend: 0x0, symName: '__ZN4core3ptr81drop_in_place$LT$borsh_derive..internals..attributes..field..schema..Variants$GT$17h1bcb120dc97abdc8E.llvm.11221171659423945045', symObjAddr: 0x71F0, symBinAddr: 0x4EB60, symSize: 0x160 }
  - { offsetInCU: 0x1C8C9, offset: 0x1E868B, size: 0x8, addend: 0x0, symName: '__ZN4core3ptr86drop_in_place$LT$syn..punctuated..Punctuated$LT$syn..pat..Pat$C$syn..token..Or$GT$$GT$17hb407e891b009195eE', symObjAddr: 0x7350, symBinAddr: 0x4ECC0, symSize: 0x120 }
  - { offsetInCU: 0x1CD44, offset: 0x1E8B06, size: 0x8, addend: 0x0, symName: '__ZN4core3ptr87drop_in_place$LT$core..option..Option$LT$alloc..boxed..Box$LT$syn..pat..Pat$GT$$GT$$GT$17h27575db68a752b00E', symObjAddr: 0x7470, symBinAddr: 0x4EDE0, symSize: 0x50 }
  - { offsetInCU: 0x1CEB4, offset: 0x1E8C76, size: 0x8, addend: 0x0, symName: '__ZN4core3ptr87drop_in_place$LT$core..option..Option$LT$alloc..boxed..Box$LT$syn..ty..Type$GT$$GT$$GT$17h2cce7e91b6f26339E', symObjAddr: 0x74C0, symBinAddr: 0x4EE30, symSize: 0x50 }
  - { offsetInCU: 0x1D024, offset: 0x1E8DE6, size: 0x8, addend: 0x0, symName: '__ZN4core3ptr89drop_in_place$LT$core..option..Option$LT$alloc..boxed..Box$LT$syn..expr..Expr$GT$$GT$$GT$17h4805299351d776eaE', symObjAddr: 0x7510, symBinAddr: 0x4EE80, symSize: 0x50 }
  - { offsetInCU: 0x1D1D2, offset: 0x1E8F94, size: 0x8, addend: 0x0, symName: '__ZN4core3ptr89drop_in_place$LT$syn..punctuated..Punctuated$LT$syn..pat..Pat$C$syn..token..Comma$GT$$GT$17hbfa21962153cb723E', symObjAddr: 0x7560, symBinAddr: 0x4EED0, symSize: 0x120 }
  - { offsetInCU: 0x1D664, offset: 0x1E9426, size: 0x8, addend: 0x0, symName: '__ZN4core3ptr89drop_in_place$LT$syn..punctuated..Punctuated$LT$syn..ty..Type$C$syn..token..Comma$GT$$GT$17h487f88da4f994ccfE', symObjAddr: 0x7680, symBinAddr: 0x4EFF0, symSize: 0x120 }
  - { offsetInCU: 0x1DADF, offset: 0x1E98A1, size: 0x8, addend: 0x0, symName: '__ZN4core3ptr90drop_in_place$LT$core..option..Option$LT$syn..path..AngleBracketedGenericArguments$GT$$GT$17h44b2ad11f3f45684E', symObjAddr: 0x77A0, symBinAddr: 0x4F110, symSize: 0x130 }
  - { offsetInCU: 0x1DF81, offset: 0x1E9D43, size: 0x8, addend: 0x0, symName: '__ZN4core3ptr91drop_in_place$LT$syn..punctuated..Punctuated$LT$syn..expr..Expr$C$syn..token..Comma$GT$$GT$17hd2c79695be72d75eE', symObjAddr: 0x78D0, symBinAddr: 0x4F240, symSize: 0x120 }
  - { offsetInCU: 0x1E40F, offset: 0x1EA1D1, size: 0x8, addend: 0x0, symName: '__ZN4core3ptr94drop_in_place$LT$syn..punctuated..Punctuated$LT$syn..pat..FieldPat$C$syn..token..Comma$GT$$GT$17hb2b4aed8f633cba0E', symObjAddr: 0x79F0, symBinAddr: 0x4F360, symSize: 0xF0 }
  - { offsetInCU: 0x1E70E, offset: 0x1EA4D0, size: 0x8, addend: 0x0, symName: '__ZN4core3ptr94drop_in_place$LT$syn..punctuated..Punctuated$LT$syn..ty..BareFnArg$C$syn..token..Comma$GT$$GT$17h59c18cbb4f726140E', symObjAddr: 0x7AE0, symBinAddr: 0x4F450, symSize: 0xF0 }
  - { offsetInCU: 0x1EA0F, offset: 0x1EA7D1, size: 0x8, addend: 0x0, symName: '__ZN4core3ptr96drop_in_place$LT$core..option..Option$LT$alloc..boxed..Box$LT$syn..path..PathSegment$GT$$GT$$GT$17hd67a31bad3bc4ef4E', symObjAddr: 0x7BD0, symBinAddr: 0x4F540, symSize: 0xA0 }
  - { offsetInCU: 0x1EC8E, offset: 0x1EAA50, size: 0x8, addend: 0x0, symName: '__ZN4core3ptr97drop_in_place$LT$syn..punctuated..Punctuated$LT$syn..expr..FieldValue$C$syn..token..Comma$GT$$GT$17h2644f25adad08ccbE', symObjAddr: 0x7C70, symBinAddr: 0x4F5E0, symSize: 0xF0 }
  - { offsetInCU: 0x1EF8B, offset: 0x1EAD4D, size: 0x8, addend: 0x0, symName: '__ZN4core3ptr98drop_in_place$LT$alloc..vec..Vec$LT$$LP$syn..path..GenericArgument$C$syn..token..Comma$RP$$GT$$GT$17h050ecd3ba4b8a9c3E', symObjAddr: 0x7D60, symBinAddr: 0x4F6D0, symSize: 0xD0 }
  - { offsetInCU: 0x1F2CB, offset: 0x1EB08D, size: 0x8, addend: 0x0, symName: '__ZN4core3ptr98drop_in_place$LT$syn..punctuated..Punctuated$LT$syn..lifetime..Lifetime$C$syn..token..Plus$GT$$GT$17hfbe9a104e4a4f23fE', symObjAddr: 0x7E30, symBinAddr: 0x4F7A0, symSize: 0xD0 }
  - { offsetInCU: 0x27792, offset: 0x1F3554, size: 0x8, addend: 0x0, symName: '__ZN108_$LT$alloc..collections..btree..map..Iter$LT$K$C$V$GT$$u20$as$u20$core..iter..traits..iterator..Iterator$GT$4next17h88e6613418b6b2c1E', symObjAddr: 0x0, symBinAddr: 0x47B30, symSize: 0x0 }
  - { offsetInCU: 0x29D4B, offset: 0x1F5B0D, size: 0x8, addend: 0x0, symName: '__ZN99_$LT$alloc..collections..btree..map..BTreeMap$LT$K$C$V$C$A$GT$$u20$as$u20$core..ops..drop..Drop$GT$4drop17h22d0e39471564499E', symObjAddr: 0x9E50, symBinAddr: 0x51540, symSize: 0x320 }
  - { offsetInCU: 0x2A3FD, offset: 0x1F61BF, size: 0x8, addend: 0x0, symName: '__ZN99_$LT$alloc..collections..btree..map..BTreeMap$LT$K$C$V$C$A$GT$$u20$as$u20$core..ops..drop..Drop$GT$4drop17h4a723b390ed29f82E', symObjAddr: 0xA170, symBinAddr: 0x51860, symSize: 0x0 }
  - { offsetInCU: 0x2A7CF, offset: 0x1F6591, size: 0x8, addend: 0x0, symName: '__ZN99_$LT$alloc..collections..btree..map..BTreeMap$LT$K$C$V$C$A$GT$$u20$as$u20$core..ops..drop..Drop$GT$4drop17h94c76736d1bc1becE', symObjAddr: 0xA280, symBinAddr: 0x51970, symSize: 0xC0 }
  - { offsetInCU: 0x2A9C7, offset: 0x1F6789, size: 0x8, addend: 0x0, symName: '__ZN99_$LT$alloc..collections..btree..map..BTreeMap$LT$K$C$V$C$A$GT$$u20$as$u20$core..ops..drop..Drop$GT$4drop17hc1ae26e092063bb5E', symObjAddr: 0xA340, symBinAddr: 0x51A30, symSize: 0xC0 }
  - { offsetInCU: 0x2ABBF, offset: 0x1F6981, size: 0x8, addend: 0x0, symName: '__ZN99_$LT$alloc..collections..btree..map..BTreeMap$LT$K$C$V$C$A$GT$$u20$as$u20$core..ops..drop..Drop$GT$4drop17hd9b67b4a0fea3d87E', symObjAddr: 0xA400, symBinAddr: 0x51AF0, symSize: 0xB8 }
  - { offsetInCU: 0x332A4, offset: 0x1FF066, size: 0x8, addend: 0x0, symName: '__ZN5alloc11collections5btree3map25BTreeMap$LT$K$C$V$C$A$GT$6insert17h8cdd99f1f9c59460E', symObjAddr: 0x7F00, symBinAddr: 0x4F870, symSize: 0x140 }
  - { offsetInCU: 0x336F7, offset: 0x1FF4B9, size: 0x8, addend: 0x0, symName: '__ZN5alloc11collections5btree3map25BTreeMap$LT$K$C$V$C$A$GT$6insert17h9074892aaf87fc00E', symObjAddr: 0x8040, symBinAddr: 0x4F9B0, symSize: 0x110 }
  - { offsetInCU: 0x33B14, offset: 0x1FF8D6, size: 0x8, addend: 0x0, symName: '__ZN5alloc11collections5btree3map25BTreeMap$LT$K$C$V$C$A$GT$6insert17hb67c36f5cd1c6375E', symObjAddr: 0x8150, symBinAddr: 0x4FAC0, symSize: 0x170 }
  - { offsetInCU: 0x33F7F, offset: 0x1FFD41, size: 0x8, addend: 0x0, symName: '__ZN5alloc11collections5btree3map25BTreeMap$LT$K$C$V$C$A$GT$6insert17hc0472a040553013eE', symObjAddr: 0x82C0, symBinAddr: 0x4FC30, symSize: 0x110 }
  - { offsetInCU: 0x3439C, offset: 0x20015E, size: 0x8, addend: 0x0, symName: '__ZN5alloc11collections5btree3map25BTreeMap$LT$K$C$V$C$A$GT$6insert17hc194face4a5b27c1E', symObjAddr: 0x83D0, symBinAddr: 0x4FD40, symSize: 0x110 }
  - { offsetInCU: 0x347BA, offset: 0x20057C, size: 0x8, addend: 0x0, symName: '__ZN5alloc11collections5btree3map25BTreeMap$LT$K$C$V$C$A$GT$6insert17hc285b8408f00d184E', symObjAddr: 0x84E0, symBinAddr: 0x4FE50, symSize: 0x140 }
  - { offsetInCU: 0x34BAB, offset: 0x20096D, size: 0x8, addend: 0x0, symName: '__ZN5alloc11collections5btree3map25BTreeMap$LT$K$C$V$C$A$GT$6insert17hf4a1a9a8cd9e3411E', symObjAddr: 0x8620, symBinAddr: 0x4FF90, symSize: 0x110 }
  - { offsetInCU: 0x34FC9, offset: 0x200D8B, size: 0x8, addend: 0x0, symName: '__ZN5alloc11collections5btree3map25BTreeMap$LT$K$C$V$C$A$GT$6insert17hfff679943a1cab23E', symObjAddr: 0x8730, symBinAddr: 0x500A0, symSize: 0x140 }
  - { offsetInCU: 0x35423, offset: 0x2011E5, size: 0x8, addend: 0x0, symName: '__ZN5alloc11collections5btree3map25IntoIter$LT$K$C$V$C$A$GT$10dying_next17h1e92f3cac13d3057E.llvm.11221171659423945045', symObjAddr: 0x8AF0, symBinAddr: 0x501E0, symSize: 0x3E0 }
  - { offsetInCU: 0x35E49, offset: 0x201C0B, size: 0x8, addend: 0x0, symName: '__ZN5alloc11collections5btree3map25IntoIter$LT$K$C$V$C$A$GT$10dying_next17h6e420f579572fb97E.llvm.11221171659423945045', symObjAddr: 0x8ED0, symBinAddr: 0x505C0, symSize: 0x0 }
  - { offsetInCU: 0x3686F, offset: 0x202631, size: 0x8, addend: 0x0, symName: '__ZN5alloc11collections5btree3map25IntoIter$LT$K$C$V$C$A$GT$10dying_next17h912fa80c24dfdf4dE.llvm.11221171659423945045', symObjAddr: 0x92B0, symBinAddr: 0x509A0, symSize: 0x3E0 }
  - { offsetInCU: 0x37295, offset: 0x203057, size: 0x8, addend: 0x0, symName: '__ZN5alloc11collections5btree3map25IntoIter$LT$K$C$V$C$A$GT$10dying_next17he9963cbbef9fc565E.llvm.11221171659423945045', symObjAddr: 0x9690, symBinAddr: 0x50D80, symSize: 0x3E0 }
  - { offsetInCU: 0x37CBB, offset: 0x203A7D, size: 0x8, addend: 0x0, symName: '__ZN5alloc11collections5btree3map25IntoIter$LT$K$C$V$C$A$GT$10dying_next17hf78e8064f3e7e646E.llvm.11221171659423945045', symObjAddr: 0x9A70, symBinAddr: 0x51160, symSize: 0x3E0 }
  - { offsetInCU: 0x1E, offset: 0x20BDC9, size: 0x8, addend: 0x0, symName: '__ZN103_$LT$alloc..vec..into_iter..IntoIter$LT$T$C$A$GT$$u20$as$u20$core..iter..traits..iterator..Iterator$GT$4fold17h297ace3dc350a7b3E', symObjAddr: 0x0, symBinAddr: 0x51BB0, symSize: 0xB0 }
  - { offsetInCU: 0x35, offset: 0x20BDE0, size: 0x8, addend: 0x0, symName: _anon.341a1a58cd56da560372be382ae48c32.0.llvm.1391875374137507954, symObjAddr: 0x93F0, symBinAddr: 0x3CC9E8, symSize: 0x0 }
  - { offsetInCU: 0x50D8, offset: 0x210E83, size: 0x8, addend: 0x0, symName: '__ZN86_$LT$alloc..vec..into_iter..IntoIter$LT$T$C$A$GT$$u20$as$u20$core..ops..drop..Drop$GT$4drop17h53cfd01132cc6e52E', symObjAddr: 0x7B30, symBinAddr: 0x59480, symSize: 0x120 }
  - { offsetInCU: 0x5556, offset: 0x211301, size: 0x8, addend: 0x0, symName: '__ZN86_$LT$alloc..vec..into_iter..IntoIter$LT$T$C$A$GT$$u20$as$u20$core..ops..drop..Drop$GT$4drop17h561f6ddfe2ca0ccbE', symObjAddr: 0x7C50, symBinAddr: 0x595A0, symSize: 0x100 }
  - { offsetInCU: 0x59BD, offset: 0x211768, size: 0x8, addend: 0x0, symName: '__ZN86_$LT$alloc..vec..into_iter..IntoIter$LT$T$C$A$GT$$u20$as$u20$core..ops..drop..Drop$GT$4drop17h6d6ba8a62fe00d25E', symObjAddr: 0x7D50, symBinAddr: 0x596A0, symSize: 0xA0 }
  - { offsetInCU: 0x5CA0, offset: 0x211A4B, size: 0x8, addend: 0x0, symName: '__ZN86_$LT$alloc..vec..into_iter..IntoIter$LT$T$C$A$GT$$u20$as$u20$core..ops..drop..Drop$GT$4drop17h71f82983ade7277fE', symObjAddr: 0x7DF0, symBinAddr: 0x59740, symSize: 0xF0 }
  - { offsetInCU: 0x6041, offset: 0x211DEC, size: 0x8, addend: 0x0, symName: '__ZN86_$LT$alloc..vec..into_iter..IntoIter$LT$T$C$A$GT$$u20$as$u20$core..ops..drop..Drop$GT$4drop17h8ea2522a8bbc6827E', symObjAddr: 0x7EE0, symBinAddr: 0x59830, symSize: 0xD0 }
  - { offsetInCU: 0x63AB, offset: 0x212156, size: 0x8, addend: 0x0, symName: '__ZN86_$LT$alloc..vec..into_iter..IntoIter$LT$T$C$A$GT$$u20$as$u20$core..ops..drop..Drop$GT$4drop17h95a2afec4cb64f61E', symObjAddr: 0x7FB0, symBinAddr: 0x59900, symSize: 0x110 }
  - { offsetInCU: 0x67A1, offset: 0x21254C, size: 0x8, addend: 0x0, symName: '__ZN86_$LT$alloc..vec..into_iter..IntoIter$LT$T$C$A$GT$$u20$as$u20$core..ops..drop..Drop$GT$4drop17ha400c5fd828ca742E', symObjAddr: 0x80C0, symBinAddr: 0x59A10, symSize: 0xF0 }
  - { offsetInCU: 0x6B0E, offset: 0x2128B9, size: 0x8, addend: 0x0, symName: '__ZN86_$LT$alloc..vec..into_iter..IntoIter$LT$T$C$A$GT$$u20$as$u20$core..ops..drop..Drop$GT$4drop17had54cf5ad836f2b7E', symObjAddr: 0x81B0, symBinAddr: 0x59B00, symSize: 0xF0 }
  - { offsetInCU: 0x6E7B, offset: 0x212C26, size: 0x8, addend: 0x0, symName: '__ZN86_$LT$alloc..vec..into_iter..IntoIter$LT$T$C$A$GT$$u20$as$u20$core..ops..drop..Drop$GT$4drop17he35a79790d1f4929E', symObjAddr: 0x82A0, symBinAddr: 0x59BF0, symSize: 0xF0 }
  - { offsetInCU: 0x7220, offset: 0x212FCB, size: 0x8, addend: 0x0, symName: '__ZN86_$LT$alloc..vec..into_iter..IntoIter$LT$T$C$A$GT$$u20$as$u20$core..ops..drop..Drop$GT$4drop17hec112877fedca33cE', symObjAddr: 0x8390, symBinAddr: 0x59CE0, symSize: 0xE3 }
  - { offsetInCU: 0x7593, offset: 0x21333E, size: 0x8, addend: 0x0, symName: '__ZN103_$LT$alloc..vec..into_iter..IntoIter$LT$T$C$A$GT$$u20$as$u20$core..iter..traits..iterator..Iterator$GT$4fold17h297ace3dc350a7b3E', symObjAddr: 0x0, symBinAddr: 0x51BB0, symSize: 0xB0 }
  - { offsetInCU: 0x787D, offset: 0x213628, size: 0x8, addend: 0x0, symName: '__ZN103_$LT$alloc..vec..into_iter..IntoIter$LT$T$C$A$GT$$u20$as$u20$core..iter..traits..iterator..Iterator$GT$4fold17hef3d52a9f20ab132E', symObjAddr: 0x290, symBinAddr: 0x51C60, symSize: 0x230 }
  - { offsetInCU: 0xBFBC, offset: 0x217D67, size: 0x8, addend: 0x0, symName: '__ZN4core3ptr100drop_in_place$LT$core..option..Option$LT$alloc..boxed..Box$LT$syn..path..GenericArgument$GT$$GT$$GT$17h807a36ffbab107a4E', symObjAddr: 0x4C0, symBinAddr: 0x51E90, symSize: 0x50 }
  - { offsetInCU: 0xC35A, offset: 0x218105, size: 0x8, addend: 0x0, symName: '__ZN4core3ptr100drop_in_place$LT$syn..punctuated..Punctuated$LT$syn..path..PathSegment$C$syn..token..PathSep$GT$$GT$17hcb9c7ae6720123ceE', symObjAddr: 0x510, symBinAddr: 0x51EE0, symSize: 0x270 }
  - { offsetInCU: 0xCCFD, offset: 0x218AA8, size: 0x8, addend: 0x0, symName: '__ZN4core3ptr101drop_in_place$LT$core..option..Option$LT$alloc..boxed..Box$LT$syn..generics..GenericParam$GT$$GT$$GT$17h2214ea905dba9bafE', symObjAddr: 0x780, symBinAddr: 0x52150, symSize: 0x50 }
  - { offsetInCU: 0xCF27, offset: 0x218CD2, size: 0x8, addend: 0x0, symName: '__ZN4core3ptr103drop_in_place$LT$core..option..Option$LT$alloc..boxed..Box$LT$syn..generics..TypeParamBound$GT$$GT$$GT$17h0017d361ebb9471fE', symObjAddr: 0x7D0, symBinAddr: 0x521A0, symSize: 0xD0 }
  - { offsetInCU: 0xD258, offset: 0x219003, size: 0x8, addend: 0x0, symName: '__ZN4core3ptr103drop_in_place$LT$syn..punctuated..Punctuated$LT$syn..generics..GenericParam$C$syn..token..Comma$GT$$GT$17hf5a644fae414a53cE.llvm.1391875374137507954', symObjAddr: 0x8A0, symBinAddr: 0x52270, symSize: 0xC0 }
  - { offsetInCU: 0xD6CC, offset: 0x219477, size: 0x8, addend: 0x0, symName: '__ZN4core3ptr104drop_in_place$LT$syn..punctuated..Punctuated$LT$syn..generics..TypeParamBound$C$syn..token..Plus$GT$$GT$17ha86a9d1599e32cffE.llvm.1391875374137507954', symObjAddr: 0x960, symBinAddr: 0x52330, symSize: 0x2C0 }
  - { offsetInCU: 0xE302, offset: 0x21A0AD, size: 0x8, addend: 0x0, symName: '__ZN4core3ptr118drop_in_place$LT$$LP$borsh_derive..internals..attributes..field..schema..ParameterOverride$C$syn..token..Comma$RP$$GT$17hb9fd9782232d7c0cE.llvm.1391875374137507954', symObjAddr: 0xC20, symBinAddr: 0x525F0, symSize: 0x50 }
  - { offsetInCU: 0xE322, offset: 0x21A0CD, size: 0x8, addend: 0x0, symName: '__ZN4core3ptr118drop_in_place$LT$$LP$borsh_derive..internals..attributes..field..schema..ParameterOverride$C$syn..token..Comma$RP$$GT$17hb9fd9782232d7c0cE.llvm.1391875374137507954', symObjAddr: 0xC20, symBinAddr: 0x525F0, symSize: 0x50 }
  - { offsetInCU: 0xE340, offset: 0x21A0EB, size: 0x8, addend: 0x0, symName: '__ZN4core3ptr118drop_in_place$LT$$LP$borsh_derive..internals..attributes..field..schema..ParameterOverride$C$syn..token..Comma$RP$$GT$17hb9fd9782232d7c0cE.llvm.1391875374137507954', symObjAddr: 0xC20, symBinAddr: 0x525F0, symSize: 0x50 }
  - { offsetInCU: 0xE35E, offset: 0x21A109, size: 0x8, addend: 0x0, symName: '__ZN4core3ptr118drop_in_place$LT$$LP$borsh_derive..internals..attributes..field..schema..ParameterOverride$C$syn..token..Comma$RP$$GT$17hb9fd9782232d7c0cE.llvm.1391875374137507954', symObjAddr: 0xC20, symBinAddr: 0x525F0, symSize: 0x50 }
  - { offsetInCU: 0xE4DB, offset: 0x21A286, size: 0x8, addend: 0x0, symName: '__ZN4core3ptr34drop_in_place$LT$syn..lit..Lit$GT$17h7e230476d36822bfE', symObjAddr: 0xC70, symBinAddr: 0x52640, symSize: 0x120 }
  - { offsetInCU: 0xE9AA, offset: 0x21A755, size: 0x8, addend: 0x0, symName: '__ZN4core3ptr34drop_in_place$LT$syn..pat..Pat$GT$17h5b0a97e980f53e46E', symObjAddr: 0xD90, symBinAddr: 0x52760, symSize: 0x1090 }
  - { offsetInCU: 0x129AA, offset: 0x21E755, size: 0x8, addend: 0x0, symName: '__ZN4core3ptr34drop_in_place$LT$syn..ty..Type$GT$17h19f850f61918f31fE.llvm.1391875374137507954', symObjAddr: 0x1E20, symBinAddr: 0x537F0, symSize: 0x4F0 }
  - { offsetInCU: 0x13EED, offset: 0x21FC98, size: 0x8, addend: 0x0, symName: '__ZN4core3ptr36drop_in_place$LT$syn..expr..Expr$GT$17h98f7f68f0a06dff7E', symObjAddr: 0x2310, symBinAddr: 0x53CE0, symSize: 0x27D0 }
  - { offsetInCU: 0x1D621, offset: 0x2293CC, size: 0x8, addend: 0x0, symName: '__ZN4core3ptr36drop_in_place$LT$syn..mac..Macro$GT$17hdf5bac46d7f74bccE', symObjAddr: 0x4AE0, symBinAddr: 0x564B0, symSize: 0x40 }
  - { offsetInCU: 0x1D65B, offset: 0x229406, size: 0x8, addend: 0x0, symName: '__ZN4core3ptr36drop_in_place$LT$syn..path..Path$GT$17hb2feba4d905af1b2E', symObjAddr: 0x4B20, symBinAddr: 0x564F0, symSize: 0x240 }
  - { offsetInCU: 0x1DFF5, offset: 0x229DA0, size: 0x8, addend: 0x0, symName: '__ZN4core3ptr37drop_in_place$LT$syn..stmt..Block$GT$17h9594e7bdfd216ee2E', symObjAddr: 0x4D60, symBinAddr: 0x56730, symSize: 0xD0 }
  - { offsetInCU: 0x1E30A, offset: 0x22A0B5, size: 0x8, addend: 0x0, symName: '__ZN4core3ptr38drop_in_place$LT$syn..error..Error$GT$17h629ad0985f92efc9E.llvm.1391875374137507954', symObjAddr: 0x4E30, symBinAddr: 0x56800, symSize: 0x90 }
  - { offsetInCU: 0x1E5CC, offset: 0x22A377, size: 0x8, addend: 0x0, symName: '__ZN4core3ptr38drop_in_place$LT$syn..expr..Member$GT$17hd3bc25e187f7fae3E', symObjAddr: 0x4EC0, symBinAddr: 0x56890, symSize: 0x30 }
  - { offsetInCU: 0x1E6C8, offset: 0x22A473, size: 0x8, addend: 0x0, symName: '__ZN4core3ptr39drop_in_place$LT$proc_macro2..Ident$GT$17hb5fbe0c131bfa218E', symObjAddr: 0x4EF0, symBinAddr: 0x568C0, symSize: 0x30 }
  - { offsetInCU: 0x1E7A5, offset: 0x22A550, size: 0x8, addend: 0x0, symName: '__ZN4core3ptr40drop_in_place$LT$syn..ty..ReturnType$GT$17h2041b3e02720652aE', symObjAddr: 0x4F20, symBinAddr: 0x568F0, symSize: 0x50 }
  - { offsetInCU: 0x1E915, offset: 0x22A6C0, size: 0x8, addend: 0x0, symName: '__ZN4core3ptr41drop_in_place$LT$syn..expr..ExprConst$GT$17h546d2eac1f274d91E', symObjAddr: 0x4F70, symBinAddr: 0x56940, symSize: 0x180 }
  - { offsetInCU: 0x1F004, offset: 0x22ADAF, size: 0x8, addend: 0x0, symName: '__ZN4core3ptr43drop_in_place$LT$proc_macro2..TokenTree$GT$17h953cd300908e3bf8E.llvm.1391875374137507954', symObjAddr: 0x50F0, symBinAddr: 0x56AC0, symSize: 0xB0 }
  - { offsetInCU: 0x1F361, offset: 0x22B10C, size: 0x8, addend: 0x0, symName: '__ZN4core3ptr44drop_in_place$LT$syn..lifetime..Lifetime$GT$17h8afd172b97690efdE', symObjAddr: 0x51A0, symBinAddr: 0x56B70, symSize: 0x30 }
  - { offsetInCU: 0x1F4F8, offset: 0x22B2A3, size: 0x8, addend: 0x0, symName: '__ZN4core3ptr45drop_in_place$LT$proc_macro2..TokenStream$GT$17h207b9d10b43ca09fE.llvm.1391875374137507954', symObjAddr: 0x51D0, symBinAddr: 0x56BA0, symSize: 0x140 }
  - { offsetInCU: 0x1F9B1, offset: 0x22B75C, size: 0x8, addend: 0x0, symName: '__ZN4core3ptr47drop_in_place$LT$syn..path..GenericArgument$GT$17hf4dd383aa34a4f0fE', symObjAddr: 0x5310, symBinAddr: 0x56CE0, symSize: 0x4A0 }
  - { offsetInCU: 0x20B52, offset: 0x22C8FD, size: 0x8, addend: 0x0, symName: '__ZN4core3ptr48drop_in_place$LT$syn..generics..GenericParam$GT$17h0e26a9446f7f3380E.llvm.1391875374137507954', symObjAddr: 0x57B0, symBinAddr: 0x57180, symSize: 0x380 }
  - { offsetInCU: 0x21740, offset: 0x22D4EB, size: 0x8, addend: 0x0, symName: '__ZN4core3ptr50drop_in_place$LT$syn..generics..WherePredicate$GT$17h36871859cc3339e6E.llvm.1391875374137507954', symObjAddr: 0x5B30, symBinAddr: 0x57500, symSize: 0xA0 }
  - { offsetInCU: 0x218E4, offset: 0x22D68F, size: 0x8, addend: 0x0, symName: '__ZN4core3ptr58drop_in_place$LT$alloc..vec..Vec$LT$syn..expr..Arm$GT$$GT$17ha0ec4334cda5515cE', symObjAddr: 0x5BD0, symBinAddr: 0x575A0, symSize: 0xD0 }
  - { offsetInCU: 0x21BA4, offset: 0x22D94F, size: 0x8, addend: 0x0, symName: '__ZN4core3ptr59drop_in_place$LT$alloc..boxed..Box$LT$syn..pat..Pat$GT$$GT$17h67f20b4715509286E', symObjAddr: 0x5CA0, symBinAddr: 0x57670, symSize: 0x50 }
  - { offsetInCU: 0x21CFD, offset: 0x22DAA8, size: 0x8, addend: 0x0, symName: '__ZN4core3ptr59drop_in_place$LT$alloc..boxed..Box$LT$syn..ty..Type$GT$$GT$17hb9082e267b94188dE', symObjAddr: 0x5CF0, symBinAddr: 0x576C0, symSize: 0x50 }
  - { offsetInCU: 0x21E56, offset: 0x22DC01, size: 0x8, addend: 0x0, symName: '__ZN4core3ptr61drop_in_place$LT$alloc..boxed..Box$LT$syn..expr..Expr$GT$$GT$17h01310d89a7a8aab3E', symObjAddr: 0x5D40, symBinAddr: 0x57710, symSize: 0x50 }
  - { offsetInCU: 0x2202B, offset: 0x22DDD6, size: 0x8, addend: 0x0, symName: '__ZN4core3ptr61drop_in_place$LT$syn..path..ParenthesizedGenericArguments$GT$17h7fee2959ae354450E', symObjAddr: 0x5D90, symBinAddr: 0x57760, symSize: 0x170 }
  - { offsetInCU: 0x22621, offset: 0x22E3CC, size: 0x8, addend: 0x0, symName: '__ZN4core3ptr62drop_in_place$LT$syn..path..AngleBracketedGenericArguments$GT$17h79141db867cfe0cbE', symObjAddr: 0x5F00, symBinAddr: 0x578D0, symSize: 0x120 }
  - { offsetInCU: 0x22A6C, offset: 0x22E817, size: 0x8, addend: 0x0, symName: '__ZN4core3ptr63drop_in_place$LT$alloc..boxed..Box$LT$syn..lit..LitRepr$GT$$GT$17hf23a84bed7f64f98E', symObjAddr: 0x6020, symBinAddr: 0x579F0, symSize: 0x60 }
  - { offsetInCU: 0x22D73, offset: 0x22EB1E, size: 0x8, addend: 0x0, symName: '__ZN4core3ptr64drop_in_place$LT$alloc..boxed..Box$LT$syn..pat..FieldPat$GT$$GT$17ha5ec27d4d418dbdfE', symObjAddr: 0x6080, symBinAddr: 0x57A50, symSize: 0x140 }
  - { offsetInCU: 0x23440, offset: 0x22F1EB, size: 0x8, addend: 0x0, symName: '__ZN4core3ptr64drop_in_place$LT$alloc..boxed..Box$LT$syn..ty..BareFnArg$GT$$GT$17hb416cdff09d8949eE', symObjAddr: 0x61C0, symBinAddr: 0x57B90, symSize: 0x140 }
  - { offsetInCU: 0x23995, offset: 0x22F740, size: 0x8, addend: 0x0, symName: '__ZN4core3ptr65drop_in_place$LT$alloc..vec..Vec$LT$proc_macro..TokenTree$GT$$GT$17h54365d0bdf61b883E.llvm.1391875374137507954', symObjAddr: 0x6300, symBinAddr: 0x57CD0, symSize: 0x110 }
  - { offsetInCU: 0x23D8D, offset: 0x22FB38, size: 0x8, addend: 0x0, symName: '__ZN4core3ptr65drop_in_place$LT$core..option..Option$LT$syn..expr..Label$GT$$GT$17h6cb338f3d3fef208E', symObjAddr: 0x6410, symBinAddr: 0x57DE0, symSize: 0x30 }
  - { offsetInCU: 0x23EC7, offset: 0x22FC72, size: 0x8, addend: 0x0, symName: '__ZN4core3ptr66drop_in_place$LT$core..option..Option$LT$syn..pat..PatRest$GT$$GT$17h7c9095b226142979E', symObjAddr: 0x6440, symBinAddr: 0x57E10, symSize: 0xE0 }
  - { offsetInCU: 0x241BB, offset: 0x22FF66, size: 0x8, addend: 0x0, symName: '__ZN4core3ptr67drop_in_place$LT$alloc..boxed..Box$LT$syn..expr..FieldValue$GT$$GT$17hb048d8ef1ec03e8dE', symObjAddr: 0x6520, symBinAddr: 0x57EF0, symSize: 0x140 }
  - { offsetInCU: 0x246F0, offset: 0x23049B, size: 0x8, addend: 0x0, symName: '__ZN4core3ptr68drop_in_place$LT$alloc..boxed..Box$LT$syn..path..PathSegment$GT$$GT$17h582dcd8abb4b1a74E', symObjAddr: 0x6660, symBinAddr: 0x58030, symSize: 0x1B0 }
  - { offsetInCU: 0x24DFE, offset: 0x230BA9, size: 0x8, addend: 0x0, symName: '__ZN4core3ptr70drop_in_place$LT$core..option..Option$LT$syn..ty..BareVariadic$GT$$GT$17hf6d2a770387443a3E', symObjAddr: 0x6810, symBinAddr: 0x581E0, symSize: 0x100 }
  - { offsetInCU: 0x25254, offset: 0x230FFF, size: 0x8, addend: 0x0, symName: '__ZN4core3ptr72drop_in_place$LT$alloc..boxed..Box$LT$syn..path..GenericArgument$GT$$GT$17hcc60f7ab467d198fE', symObjAddr: 0x6910, symBinAddr: 0x582E0, symSize: 0x270 }
  - { offsetInCU: 0x25AA8, offset: 0x231853, size: 0x8, addend: 0x0, symName: '__ZN4core3ptr72drop_in_place$LT$core..option..Option$LT$syn..lifetime..Lifetime$GT$$GT$17h70ad3b488ebe3596E', symObjAddr: 0x6B80, symBinAddr: 0x58550, symSize: 0x30 }
  - { offsetInCU: 0x25BC3, offset: 0x23196E, size: 0x8, addend: 0x0, symName: '__ZN4core3ptr73drop_in_place$LT$alloc..boxed..Box$LT$syn..generics..GenericParam$GT$$GT$17hd8823d2eb1a41dfaE.llvm.1391875374137507954', symObjAddr: 0x6BB0, symBinAddr: 0x58580, symSize: 0x50 }
  - { offsetInCU: 0x25D1C, offset: 0x231AC7, size: 0x8, addend: 0x0, symName: '__ZN4core3ptr75drop_in_place$LT$alloc..boxed..Box$LT$syn..generics..TypeParamBound$GT$$GT$17hc0dbc3e6560133a8E', symObjAddr: 0x6C00, symBinAddr: 0x585D0, symSize: 0x210 }
  - { offsetInCU: 0x26918, offset: 0x2326C3, size: 0x8, addend: 0x0, symName: '__ZN4core3ptr78drop_in_place$LT$alloc..vec..into_iter..IntoIter$LT$proc_macro2..Ident$GT$$GT$17h9741feb72176d126E.llvm.1391875374137507954', symObjAddr: 0x6E10, symBinAddr: 0x587E0, symSize: 0xA0 }
  - { offsetInCU: 0x26C75, offset: 0x232A20, size: 0x8, addend: 0x0, symName: '__ZN4core3ptr86drop_in_place$LT$syn..punctuated..Punctuated$LT$syn..pat..Pat$C$syn..token..Or$GT$$GT$17hb407e891b009195eE', symObjAddr: 0x6EB0, symBinAddr: 0x58880, symSize: 0x120 }
  - { offsetInCU: 0x270F0, offset: 0x232E9B, size: 0x8, addend: 0x0, symName: '__ZN4core3ptr87drop_in_place$LT$core..option..Option$LT$alloc..boxed..Box$LT$syn..pat..Pat$GT$$GT$$GT$17h27575db68a752b00E', symObjAddr: 0x6FD0, symBinAddr: 0x589A0, symSize: 0x50 }
  - { offsetInCU: 0x27260, offset: 0x23300B, size: 0x8, addend: 0x0, symName: '__ZN4core3ptr87drop_in_place$LT$core..option..Option$LT$alloc..boxed..Box$LT$syn..ty..Type$GT$$GT$$GT$17h2cce7e91b6f26339E', symObjAddr: 0x7020, symBinAddr: 0x589F0, symSize: 0x50 }
  - { offsetInCU: 0x273D0, offset: 0x23317B, size: 0x8, addend: 0x0, symName: '__ZN4core3ptr89drop_in_place$LT$core..option..Option$LT$alloc..boxed..Box$LT$syn..expr..Expr$GT$$GT$$GT$17h4805299351d776eaE', symObjAddr: 0x7070, symBinAddr: 0x58A40, symSize: 0x50 }
  - { offsetInCU: 0x2757E, offset: 0x233329, size: 0x8, addend: 0x0, symName: '__ZN4core3ptr89drop_in_place$LT$syn..punctuated..Punctuated$LT$syn..pat..Pat$C$syn..token..Comma$GT$$GT$17hbfa21962153cb723E', symObjAddr: 0x70C0, symBinAddr: 0x58A90, symSize: 0x120 }
  - { offsetInCU: 0x27A10, offset: 0x2337BB, size: 0x8, addend: 0x0, symName: '__ZN4core3ptr89drop_in_place$LT$syn..punctuated..Punctuated$LT$syn..ty..Type$C$syn..token..Comma$GT$$GT$17h487f88da4f994ccfE', symObjAddr: 0x71E0, symBinAddr: 0x58BB0, symSize: 0x120 }
  - { offsetInCU: 0x27E8B, offset: 0x233C36, size: 0x8, addend: 0x0, symName: '__ZN4core3ptr90drop_in_place$LT$borsh_derive..internals..attributes..field..schema..ParameterOverride$GT$17h1d663f6e7c19f7c3E.llvm.1391875374137507954', symObjAddr: 0x7300, symBinAddr: 0x58CD0, symSize: 0x50 }
  - { offsetInCU: 0x27EAB, offset: 0x233C56, size: 0x8, addend: 0x0, symName: '__ZN4core3ptr90drop_in_place$LT$borsh_derive..internals..attributes..field..schema..ParameterOverride$GT$17h1d663f6e7c19f7c3E.llvm.1391875374137507954', symObjAddr: 0x7300, symBinAddr: 0x58CD0, symSize: 0x50 }
  - { offsetInCU: 0x27EC9, offset: 0x233C74, size: 0x8, addend: 0x0, symName: '__ZN4core3ptr90drop_in_place$LT$borsh_derive..internals..attributes..field..schema..ParameterOverride$GT$17h1d663f6e7c19f7c3E.llvm.1391875374137507954', symObjAddr: 0x7300, symBinAddr: 0x58CD0, symSize: 0x50 }
  - { offsetInCU: 0x27F8B, offset: 0x233D36, size: 0x8, addend: 0x0, symName: '__ZN4core3ptr90drop_in_place$LT$core..option..Option$LT$syn..path..AngleBracketedGenericArguments$GT$$GT$17h44b2ad11f3f45684E', symObjAddr: 0x7350, symBinAddr: 0x58D20, symSize: 0x130 }
  - { offsetInCU: 0x2842D, offset: 0x2341D8, size: 0x8, addend: 0x0, symName: '__ZN4core3ptr91drop_in_place$LT$syn..punctuated..Punctuated$LT$syn..expr..Expr$C$syn..token..Comma$GT$$GT$17hd2c79695be72d75eE', symObjAddr: 0x7480, symBinAddr: 0x58E50, symSize: 0x120 }
  - { offsetInCU: 0x288BB, offset: 0x234666, size: 0x8, addend: 0x0, symName: '__ZN4core3ptr94drop_in_place$LT$syn..punctuated..Punctuated$LT$syn..pat..FieldPat$C$syn..token..Comma$GT$$GT$17hb2b4aed8f633cba0E', symObjAddr: 0x75A0, symBinAddr: 0x58F70, symSize: 0xF0 }
  - { offsetInCU: 0x28BBA, offset: 0x234965, size: 0x8, addend: 0x0, symName: '__ZN4core3ptr94drop_in_place$LT$syn..punctuated..Punctuated$LT$syn..ty..BareFnArg$C$syn..token..Comma$GT$$GT$17h59c18cbb4f726140E', symObjAddr: 0x7690, symBinAddr: 0x59060, symSize: 0xF0 }
  - { offsetInCU: 0x28EBB, offset: 0x234C66, size: 0x8, addend: 0x0, symName: '__ZN4core3ptr96drop_in_place$LT$core..option..Option$LT$alloc..boxed..Box$LT$syn..path..PathSegment$GT$$GT$$GT$17hd67a31bad3bc4ef4E', symObjAddr: 0x7780, symBinAddr: 0x59150, symSize: 0xA0 }
  - { offsetInCU: 0x29159, offset: 0x234F04, size: 0x8, addend: 0x0, symName: '__ZN4core3ptr97drop_in_place$LT$syn..punctuated..Punctuated$LT$syn..expr..FieldValue$C$syn..token..Comma$GT$$GT$17h2644f25adad08ccbE', symObjAddr: 0x7870, symBinAddr: 0x591F0, symSize: 0xF0 }
  - { offsetInCU: 0x29456, offset: 0x235201, size: 0x8, addend: 0x0, symName: '__ZN4core3ptr98drop_in_place$LT$alloc..vec..Vec$LT$$LP$syn..path..GenericArgument$C$syn..token..Comma$RP$$GT$$GT$17h050ecd3ba4b8a9c3E', symObjAddr: 0x7960, symBinAddr: 0x592E0, symSize: 0xD0 }
  - { offsetInCU: 0x29777, offset: 0x235522, size: 0x8, addend: 0x0, symName: '__ZN4core3ptr98drop_in_place$LT$syn..punctuated..Punctuated$LT$syn..lifetime..Lifetime$C$syn..token..Plus$GT$$GT$17hfbe9a104e4a4f23fE.llvm.1391875374137507954', symObjAddr: 0x7A30, symBinAddr: 0x593B0, symSize: 0xD0 }
  - { offsetInCU: 0x1E, offset: 0x23CCC4, size: 0x8, addend: 0x0, symName: '__ZN4core3ptr100drop_in_place$LT$core..option..Option$LT$alloc..boxed..Box$LT$syn..path..GenericArgument$GT$$GT$$GT$17h807a36ffbab107a4E', symObjAddr: 0x0, symBinAddr: 0x59DD0, symSize: 0x50 }
  - { offsetInCU: 0xA9, offset: 0x23CD4F, size: 0x8, addend: 0x0, symName: '__ZN58_$LT$alloc..string..String$u20$as$u20$core..fmt..Write$GT$10write_char17h04bc467bd68a934bE', symObjAddr: 0x7630, symBinAddr: 0x61400, symSize: 0x140 }
  - { offsetInCU: 0x4AE, offset: 0x23D154, size: 0x8, addend: 0x0, symName: '__ZN58_$LT$alloc..string..String$u20$as$u20$core..fmt..Write$GT$9write_str17h46a93205c3443fbaE', symObjAddr: 0x7770, symBinAddr: 0x61540, symSize: 0x60 }
  - { offsetInCU: 0x737, offset: 0x23D3DD, size: 0x8, addend: 0x0, symName: '__ZN60_$LT$alloc..string..String$u20$as$u20$core..fmt..Display$GT$3fmt17h0d0eb46f3054e2dfE', symObjAddr: 0x77D0, symBinAddr: 0x615A0, symSize: 0x20 }
  - { offsetInCU: 0x3B49, offset: 0x2407EF, size: 0x8, addend: 0x0, symName: '__ZN4core3ptr100drop_in_place$LT$core..option..Option$LT$alloc..boxed..Box$LT$syn..path..GenericArgument$GT$$GT$$GT$17h807a36ffbab107a4E', symObjAddr: 0x0, symBinAddr: 0x59DD0, symSize: 0x50 }
  - { offsetInCU: 0x3D16, offset: 0x2409BC, size: 0x8, addend: 0x0, symName: '__ZN4core3ptr102drop_in_place$LT$syn..punctuated..Punctuated$LT$syn..path..GenericArgument$C$syn..token..Comma$GT$$GT$17h87ac6172553c146eE', symObjAddr: 0x50, symBinAddr: 0x59E20, symSize: 0xF0 }
  - { offsetInCU: 0x4036, offset: 0x240CDC, size: 0x8, addend: 0x0, symName: '__ZN4core3ptr103drop_in_place$LT$core..option..Option$LT$alloc..boxed..Box$LT$syn..generics..TypeParamBound$GT$$GT$$GT$17h0017d361ebb9471fE', symObjAddr: 0x140, symBinAddr: 0x59F10, symSize: 0x50 }
  - { offsetInCU: 0x42FB, offset: 0x240FA1, size: 0x8, addend: 0x0, symName: '__ZN4core3ptr103drop_in_place$LT$core..option..Option$LT$alloc..boxed..Box$LT$syn..generics..WherePredicate$GT$$GT$$GT$17he4ee84860b39964eE', symObjAddr: 0x190, symBinAddr: 0x59F60, symSize: 0xD0 }
  - { offsetInCU: 0x468F, offset: 0x241335, size: 0x8, addend: 0x0, symName: '__ZN4core3ptr103drop_in_place$LT$syn..punctuated..Punctuated$LT$syn..generics..GenericParam$C$syn..token..Comma$GT$$GT$17hf5a644fae414a53cE', symObjAddr: 0x260, symBinAddr: 0x5A030, symSize: 0xF0 }
  - { offsetInCU: 0x4B8A, offset: 0x241830, size: 0x8, addend: 0x0, symName: '__ZN4core3ptr104drop_in_place$LT$syn..punctuated..Punctuated$LT$syn..generics..TypeParamBound$C$syn..token..Plus$GT$$GT$17ha86a9d1599e32cffE', symObjAddr: 0x350, symBinAddr: 0x5A120, symSize: 0x240 }
  - { offsetInCU: 0x54C1, offset: 0x242167, size: 0x8, addend: 0x0, symName: '__ZN4core3ptr34drop_in_place$LT$syn..lit..Lit$GT$17h7e230476d36822bfE', symObjAddr: 0x590, symBinAddr: 0x5A360, symSize: 0x120 }
  - { offsetInCU: 0x59AF, offset: 0x242655, size: 0x8, addend: 0x0, symName: '__ZN4core3ptr34drop_in_place$LT$syn..pat..Pat$GT$17h5b0a97e980f53e46E', symObjAddr: 0x6B0, symBinAddr: 0x5A480, symSize: 0xF40 }
  - { offsetInCU: 0x9475, offset: 0x24611B, size: 0x8, addend: 0x0, symName: '__ZN4core3ptr34drop_in_place$LT$syn..ty..Type$GT$17h19f850f61918f31fE', symObjAddr: 0x15F0, symBinAddr: 0x5B3C0, symSize: 0x580 }
  - { offsetInCU: 0xACFE, offset: 0x2479A4, size: 0x8, addend: 0x0, symName: '__ZN4core3ptr36drop_in_place$LT$syn..expr..Expr$GT$17h98f7f68f0a06dff7E', symObjAddr: 0x1B70, symBinAddr: 0x5B940, symSize: 0x2730 }
  - { offsetInCU: 0x1415E, offset: 0x250E04, size: 0x8, addend: 0x0, symName: '__ZN4core3ptr36drop_in_place$LT$syn..mac..Macro$GT$17hdf5bac46d7f74bccE', symObjAddr: 0x42A0, symBinAddr: 0x5E070, symSize: 0xE0 }
  - { offsetInCU: 0x144E8, offset: 0x25118E, size: 0x8, addend: 0x0, symName: '__ZN4core3ptr36drop_in_place$LT$syn..path..Path$GT$17hb2feba4d905af1b2E', symObjAddr: 0x4380, symBinAddr: 0x5E150, symSize: 0x240 }
  - { offsetInCU: 0x14E82, offset: 0x251B28, size: 0x8, addend: 0x0, symName: '__ZN4core3ptr37drop_in_place$LT$syn..stmt..Block$GT$17h9594e7bdfd216ee2E', symObjAddr: 0x45C0, symBinAddr: 0x5E390, symSize: 0xD0 }
  - { offsetInCU: 0x151F4, offset: 0x251E9A, size: 0x8, addend: 0x0, symName: '__ZN4core3ptr38drop_in_place$LT$syn..data..Fields$GT$17h94a42cb3cde271eeE', symObjAddr: 0x4690, symBinAddr: 0x5E460, symSize: 0x190 }
  - { offsetInCU: 0x1563E, offset: 0x2522E4, size: 0x8, addend: 0x0, symName: '__ZN4core3ptr38drop_in_place$LT$syn..expr..Member$GT$17hd3bc25e187f7fae3E', symObjAddr: 0x4820, symBinAddr: 0x5E5F0, symSize: 0x30 }
  - { offsetInCU: 0x1573A, offset: 0x2523E0, size: 0x8, addend: 0x0, symName: '__ZN4core3ptr39drop_in_place$LT$proc_macro2..Ident$GT$17hb5fbe0c131bfa218E', symObjAddr: 0x4850, symBinAddr: 0x5E620, symSize: 0x30 }
  - { offsetInCU: 0x15817, offset: 0x2524BD, size: 0x8, addend: 0x0, symName: '__ZN4core3ptr40drop_in_place$LT$syn..ty..ReturnType$GT$17h2041b3e02720652aE', symObjAddr: 0x4880, symBinAddr: 0x5E650, symSize: 0x50 }
  - { offsetInCU: 0x15987, offset: 0x25262D, size: 0x8, addend: 0x0, symName: '__ZN4core3ptr41drop_in_place$LT$syn..expr..ExprConst$GT$17h546d2eac1f274d91E', symObjAddr: 0x48D0, symBinAddr: 0x5E6A0, symSize: 0x180 }
  - { offsetInCU: 0x15F40, offset: 0x252BE6, size: 0x8, addend: 0x0, symName: '__ZN4core3ptr42drop_in_place$LT$alloc..string..String$GT$17h4efd19822f3e4515E', symObjAddr: 0x4A50, symBinAddr: 0x5E820, symSize: 0x20 }
  - { offsetInCU: 0x160C4, offset: 0x252D6A, size: 0x8, addend: 0x0, symName: '__ZN4core3ptr42drop_in_place$LT$syn..item..ItemStruct$GT$17h3ea4702e48db4792E', symObjAddr: 0x4A70, symBinAddr: 0x5E840, symSize: 0x190 }
  - { offsetInCU: 0x16608, offset: 0x2532AE, size: 0x8, addend: 0x0, symName: '__ZN4core3ptr44drop_in_place$LT$syn..generics..Generics$GT$17h6cc36a2c79e64375E', symObjAddr: 0x4C00, symBinAddr: 0x5E9D0, symSize: 0x40 }
  - { offsetInCU: 0x16625, offset: 0x2532CB, size: 0x8, addend: 0x0, symName: '__ZN4core3ptr44drop_in_place$LT$syn..lifetime..Lifetime$GT$17h8afd172b97690efdE', symObjAddr: 0x4C40, symBinAddr: 0x5EA10, symSize: 0x30 }
  - { offsetInCU: 0x16857, offset: 0x2534FD, size: 0x8, addend: 0x0, symName: '__ZN4core3ptr45drop_in_place$LT$proc_macro2..TokenStream$GT$17h207b9d10b43ca09fE', symObjAddr: 0x4C70, symBinAddr: 0x5EA40, symSize: 0x140 }
  - { offsetInCU: 0x16CF1, offset: 0x253997, size: 0x8, addend: 0x0, symName: '__ZN4core3ptr45drop_in_place$LT$syn..generics..TypeParam$GT$17h6c3c07424bcf6a4eE', symObjAddr: 0x4DB0, symBinAddr: 0x5EB80, symSize: 0x230 }
  - { offsetInCU: 0x17532, offset: 0x2541D8, size: 0x8, addend: 0x0, symName: '__ZN4core3ptr46drop_in_place$LT$syn..generics..ConstParam$GT$17hd0de4a5923445da7E', symObjAddr: 0x4FE0, symBinAddr: 0x5EDB0, symSize: 0x150 }
  - { offsetInCU: 0x1797F, offset: 0x254625, size: 0x8, addend: 0x0, symName: '__ZN4core3ptr47drop_in_place$LT$syn..generics..WhereClause$GT$17h886e9dcae0082af0E', symObjAddr: 0x5130, symBinAddr: 0x5EF00, symSize: 0xE0 }
  - { offsetInCU: 0x17D02, offset: 0x2549A8, size: 0x8, addend: 0x0, symName: '__ZN4core3ptr47drop_in_place$LT$syn..path..GenericArgument$GT$17hf4dd383aa34a4f0fE', symObjAddr: 0x5210, symBinAddr: 0x5EFE0, symSize: 0x450 }
  - { offsetInCU: 0x18A78, offset: 0x25571E, size: 0x8, addend: 0x0, symName: '__ZN4core3ptr49drop_in_place$LT$syn..generics..LifetimeParam$GT$17hd0b2e7526885b204E', symObjAddr: 0x5660, symBinAddr: 0x5F430, symSize: 0xF0 }
  - { offsetInCU: 0x18E5B, offset: 0x255B01, size: 0x8, addend: 0x0, symName: '__ZN4core3ptr49drop_in_place$LT$syn..restriction..Visibility$GT$17h1d2333c931110048E', symObjAddr: 0x5750, symBinAddr: 0x5F520, symSize: 0x60 }
  - { offsetInCU: 0x18FCC, offset: 0x255C72, size: 0x8, addend: 0x0, symName: '__ZN4core3ptr50drop_in_place$LT$syn..generics..TypeParamBound$GT$17hdc238d3175f8eb5aE', symObjAddr: 0x57B0, symBinAddr: 0x5F580, symSize: 0xA0 }
  - { offsetInCU: 0x19132, offset: 0x255DD8, size: 0x8, addend: 0x0, symName: '__ZN4core3ptr58drop_in_place$LT$alloc..vec..Vec$LT$syn..expr..Arm$GT$$GT$17ha0ec4334cda5515cE', symObjAddr: 0x5850, symBinAddr: 0x5F620, symSize: 0xD0 }
  - { offsetInCU: 0x193F2, offset: 0x256098, size: 0x8, addend: 0x0, symName: '__ZN4core3ptr59drop_in_place$LT$alloc..boxed..Box$LT$syn..pat..Pat$GT$$GT$17h67f20b4715509286E', symObjAddr: 0x5920, symBinAddr: 0x5F6F0, symSize: 0x50 }
  - { offsetInCU: 0x1954B, offset: 0x2561F1, size: 0x8, addend: 0x0, symName: '__ZN4core3ptr59drop_in_place$LT$alloc..boxed..Box$LT$syn..ty..Type$GT$$GT$17hb9082e267b94188dE', symObjAddr: 0x5970, symBinAddr: 0x5F740, symSize: 0x50 }
  - { offsetInCU: 0x196A4, offset: 0x25634A, size: 0x8, addend: 0x0, symName: '__ZN4core3ptr61drop_in_place$LT$alloc..boxed..Box$LT$syn..expr..Expr$GT$$GT$17h01310d89a7a8aab3E', symObjAddr: 0x59C0, symBinAddr: 0x5F790, symSize: 0x50 }
  - { offsetInCU: 0x197FD, offset: 0x2564A3, size: 0x8, addend: 0x0, symName: '__ZN4core3ptr61drop_in_place$LT$syn..path..ParenthesizedGenericArguments$GT$17h7fee2959ae354450E', symObjAddr: 0x5A10, symBinAddr: 0x5F7E0, symSize: 0x170 }
  - { offsetInCU: 0x19E06, offset: 0x256AAC, size: 0x8, addend: 0x0, symName: '__ZN4core3ptr63drop_in_place$LT$alloc..boxed..Box$LT$syn..lit..LitRepr$GT$$GT$17hf23a84bed7f64f98E', symObjAddr: 0x5B80, symBinAddr: 0x5F950, symSize: 0x60 }
  - { offsetInCU: 0x1A10D, offset: 0x256DB3, size: 0x8, addend: 0x0, symName: '__ZN4core3ptr64drop_in_place$LT$alloc..boxed..Box$LT$syn..pat..FieldPat$GT$$GT$17ha5ec27d4d418dbdfE', symObjAddr: 0x5BE0, symBinAddr: 0x5F9B0, symSize: 0x140 }
  - { offsetInCU: 0x1A7DA, offset: 0x257480, size: 0x8, addend: 0x0, symName: '__ZN4core3ptr64drop_in_place$LT$alloc..boxed..Box$LT$syn..ty..BareFnArg$GT$$GT$17hb416cdff09d8949eE', symObjAddr: 0x5D20, symBinAddr: 0x5FAF0, symSize: 0x140 }
  - { offsetInCU: 0x1AD2F, offset: 0x2579D5, size: 0x8, addend: 0x0, symName: '__ZN4core3ptr64drop_in_place$LT$alloc..vec..Vec$LT$syn..attr..Attribute$GT$$GT$17he95047edc4b7891fE', symObjAddr: 0x5E60, symBinAddr: 0x5FC30, symSize: 0xD0 }
  - { offsetInCU: 0x1AFEF, offset: 0x257C95, size: 0x8, addend: 0x0, symName: '__ZN4core3ptr65drop_in_place$LT$alloc..vec..Vec$LT$proc_macro..TokenTree$GT$$GT$17h54365d0bdf61b883E', symObjAddr: 0x5F30, symBinAddr: 0x5FD00, symSize: 0x110 }
  - { offsetInCU: 0x1B3E7, offset: 0x25808D, size: 0x8, addend: 0x0, symName: '__ZN4core3ptr65drop_in_place$LT$core..option..Option$LT$syn..expr..Label$GT$$GT$17h6cb338f3d3fef208E', symObjAddr: 0x6040, symBinAddr: 0x5FE10, symSize: 0x30 }
  - { offsetInCU: 0x1B521, offset: 0x2581C7, size: 0x8, addend: 0x0, symName: '__ZN4core3ptr66drop_in_place$LT$core..option..Option$LT$syn..pat..PatRest$GT$$GT$17h7c9095b226142979E', symObjAddr: 0x6070, symBinAddr: 0x5FE40, symSize: 0xE0 }
  - { offsetInCU: 0x1B815, offset: 0x2584BB, size: 0x8, addend: 0x0, symName: '__ZN4core3ptr67drop_in_place$LT$alloc..boxed..Box$LT$syn..expr..FieldValue$GT$$GT$17hb048d8ef1ec03e8dE', symObjAddr: 0x6150, symBinAddr: 0x5FF20, symSize: 0x140 }
  - { offsetInCU: 0x1BD69, offset: 0x258A0F, size: 0x8, addend: 0x0, symName: '__ZN4core3ptr68drop_in_place$LT$alloc..vec..Vec$LT$proc_macro2..TokenStream$GT$$GT$17h12fe98a0b6dc7a7eE', symObjAddr: 0x6290, symBinAddr: 0x60060, symSize: 0xC0 }
  - { offsetInCU: 0x1C13E, offset: 0x258DE4, size: 0x8, addend: 0x0, symName: '__ZN4core3ptr68drop_in_place$LT$borsh_derive..internals..generics..FindTyParams$GT$17he80daff20c61038bE', symObjAddr: 0x6350, symBinAddr: 0x60120, symSize: 0xA0 }
  - { offsetInCU: 0x1C552, offset: 0x2591F8, size: 0x8, addend: 0x0, symName: '__ZN4core3ptr70drop_in_place$LT$core..option..Option$LT$syn..ty..BareVariadic$GT$$GT$17hf6d2a770387443a3E', symObjAddr: 0x63F0, symBinAddr: 0x601C0, symSize: 0x100 }
  - { offsetInCU: 0x1C989, offset: 0x25962F, size: 0x8, addend: 0x0, symName: '__ZN4core3ptr72drop_in_place$LT$alloc..boxed..Box$LT$syn..path..GenericArgument$GT$$GT$17hcc60f7ab467d198fE', symObjAddr: 0x64F0, symBinAddr: 0x602C0, symSize: 0x2B0 }
  - { offsetInCU: 0x1D39A, offset: 0x25A040, size: 0x8, addend: 0x0, symName: '__ZN4core3ptr72drop_in_place$LT$core..option..Option$LT$syn..lifetime..Lifetime$GT$$GT$17h70ad3b488ebe3596E', symObjAddr: 0x67A0, symBinAddr: 0x60570, symSize: 0x30 }
  - { offsetInCU: 0x1D4B5, offset: 0x25A15B, size: 0x8, addend: 0x0, symName: '__ZN4core3ptr73drop_in_place$LT$alloc..boxed..Box$LT$syn..generics..GenericParam$GT$$GT$17hd8823d2eb1a41dfaE', symObjAddr: 0x67D0, symBinAddr: 0x605A0, symSize: 0x80 }
  - { offsetInCU: 0x1D62B, offset: 0x25A2D1, size: 0x8, addend: 0x0, symName: '__ZN4core3ptr75drop_in_place$LT$alloc..boxed..Box$LT$syn..generics..TypeParamBound$GT$$GT$17hc0dbc3e6560133a8E', symObjAddr: 0x6850, symBinAddr: 0x60620, symSize: 0x180 }
  - { offsetInCU: 0x1DBD9, offset: 0x25A87F, size: 0x8, addend: 0x0, symName: '__ZN4core3ptr75drop_in_place$LT$core..option..Option$LT$syn..generics..WhereClause$GT$$GT$17h2c16f6dc41ab983cE', symObjAddr: 0x69D0, symBinAddr: 0x607A0, symSize: 0x100 }
  - { offsetInCU: 0x1DF90, offset: 0x25AC36, size: 0x8, addend: 0x0, symName: '__ZN4core3ptr86drop_in_place$LT$syn..punctuated..Punctuated$LT$syn..pat..Pat$C$syn..token..Or$GT$$GT$17hb407e891b009195eE', symObjAddr: 0x6AD0, symBinAddr: 0x608A0, symSize: 0x120 }
  - { offsetInCU: 0x1E40B, offset: 0x25B0B1, size: 0x8, addend: 0x0, symName: '__ZN4core3ptr87drop_in_place$LT$core..option..Option$LT$alloc..boxed..Box$LT$syn..pat..Pat$GT$$GT$$GT$17h27575db68a752b00E', symObjAddr: 0x6BF0, symBinAddr: 0x609C0, symSize: 0x50 }
  - { offsetInCU: 0x1E57B, offset: 0x25B221, size: 0x8, addend: 0x0, symName: '__ZN4core3ptr87drop_in_place$LT$core..option..Option$LT$alloc..boxed..Box$LT$syn..ty..Type$GT$$GT$$GT$17h2cce7e91b6f26339E', symObjAddr: 0x6C40, symBinAddr: 0x60A10, symSize: 0x50 }
  - { offsetInCU: 0x1E6EB, offset: 0x25B391, size: 0x8, addend: 0x0, symName: '__ZN4core3ptr89drop_in_place$LT$core..option..Option$LT$alloc..boxed..Box$LT$syn..expr..Expr$GT$$GT$$GT$17h4805299351d776eaE', symObjAddr: 0x6C90, symBinAddr: 0x60A60, symSize: 0x50 }
  - { offsetInCU: 0x1E899, offset: 0x25B53F, size: 0x8, addend: 0x0, symName: '__ZN4core3ptr89drop_in_place$LT$syn..punctuated..Punctuated$LT$syn..pat..Pat$C$syn..token..Comma$GT$$GT$17hbfa21962153cb723E', symObjAddr: 0x6CE0, symBinAddr: 0x60AB0, symSize: 0x120 }
  - { offsetInCU: 0x1ED88, offset: 0x25BA2E, size: 0x8, addend: 0x0, symName: '__ZN4core3ptr90drop_in_place$LT$core..option..Option$LT$alloc..boxed..Box$LT$syn..data..Field$GT$$GT$$GT$17hf222b09314c1288bE', symObjAddr: 0x6E00, symBinAddr: 0x60BD0, symSize: 0x1B0 }
  - { offsetInCU: 0x1F465, offset: 0x25C10B, size: 0x8, addend: 0x0, symName: '__ZN4core3ptr91drop_in_place$LT$syn..punctuated..Punctuated$LT$syn..expr..Expr$C$syn..token..Comma$GT$$GT$17hd2c79695be72d75eE', symObjAddr: 0x6FB0, symBinAddr: 0x60D80, symSize: 0x120 }
  - { offsetInCU: 0x1F8F3, offset: 0x25C599, size: 0x8, addend: 0x0, symName: '__ZN4core3ptr94drop_in_place$LT$syn..punctuated..Punctuated$LT$syn..pat..FieldPat$C$syn..token..Comma$GT$$GT$17hb2b4aed8f633cba0E', symObjAddr: 0x70D0, symBinAddr: 0x60EA0, symSize: 0xF0 }
  - { offsetInCU: 0x1FBF2, offset: 0x25C898, size: 0x8, addend: 0x0, symName: '__ZN4core3ptr94drop_in_place$LT$syn..punctuated..Punctuated$LT$syn..ty..BareFnArg$C$syn..token..Comma$GT$$GT$17h59c18cbb4f726140E', symObjAddr: 0x71C0, symBinAddr: 0x60F90, symSize: 0xF0 }
  - { offsetInCU: 0x1FEF3, offset: 0x25CB99, size: 0x8, addend: 0x0, symName: '__ZN4core3ptr96drop_in_place$LT$core..option..Option$LT$alloc..boxed..Box$LT$syn..path..PathSegment$GT$$GT$$GT$17hd67a31bad3bc4ef4E', symObjAddr: 0x72B0, symBinAddr: 0x61080, symSize: 0x1A0 }
  - { offsetInCU: 0x205B4, offset: 0x25D25A, size: 0x8, addend: 0x0, symName: '__ZN4core3ptr97drop_in_place$LT$syn..punctuated..Punctuated$LT$syn..expr..FieldValue$C$syn..token..Comma$GT$$GT$17h2644f25adad08ccbE', symObjAddr: 0x7450, symBinAddr: 0x61220, symSize: 0xF0 }
  - { offsetInCU: 0x2092D, offset: 0x25D5D3, size: 0x8, addend: 0x0, symName: '__ZN4core3ptr98drop_in_place$LT$syn..punctuated..Punctuated$LT$syn..lifetime..Lifetime$C$syn..token..Plus$GT$$GT$17hfbe9a104e4a4f23fE', symObjAddr: 0x7540, symBinAddr: 0x61310, symSize: 0xD0 }
  - { offsetInCU: 0x215B2, offset: 0x25E258, size: 0x8, addend: 0x0, symName: '__ZN53_$LT$core..fmt..Error$u20$as$u20$core..fmt..Debug$GT$3fmt17h03dc662ab152f3aeE', symObjAddr: 0x7610, symBinAddr: 0x613E0, symSize: 0x20 }
  - { offsetInCU: 0x2C11F, offset: 0x268DC5, size: 0x8, addend: 0x0, symName: __ZN12borsh_derive9internals6schema5enums7process17ha3bd2af53ed4cfdcE, symObjAddr: 0x77F0, symBinAddr: 0x615C0, symSize: 0x3027 }
  - { offsetInCU: 0x1E, offset: 0x271C86, size: 0x8, addend: 0x0, symName: '__ZN4core3ptr100drop_in_place$LT$core..option..Option$LT$alloc..boxed..Box$LT$syn..path..GenericArgument$GT$$GT$$GT$17h807a36ffbab107a4E', symObjAddr: 0x0, symBinAddr: 0x645F0, symSize: 0x50 }
  - { offsetInCU: 0x9C, offset: 0x271D04, size: 0x8, addend: 0x0, symName: '__ZN58_$LT$alloc..string..String$u20$as$u20$core..fmt..Write$GT$10write_char17h04bc467bd68a934bE', symObjAddr: 0x7720, symBinAddr: 0x6BD10, symSize: 0x140 }
  - { offsetInCU: 0x4A1, offset: 0x272109, size: 0x8, addend: 0x0, symName: '__ZN58_$LT$alloc..string..String$u20$as$u20$core..fmt..Write$GT$9write_str17h46a93205c3443fbaE', symObjAddr: 0x7860, symBinAddr: 0x6BE50, symSize: 0x60 }
  - { offsetInCU: 0x3603, offset: 0x27526B, size: 0x8, addend: 0x0, symName: '__ZN4core3ptr100drop_in_place$LT$core..option..Option$LT$alloc..boxed..Box$LT$syn..path..GenericArgument$GT$$GT$$GT$17h807a36ffbab107a4E', symObjAddr: 0x0, symBinAddr: 0x645F0, symSize: 0x50 }
  - { offsetInCU: 0x37B1, offset: 0x275419, size: 0x8, addend: 0x0, symName: '__ZN4core3ptr101drop_in_place$LT$core..option..Option$LT$alloc..vec..Vec$LT$syn..generics..WherePredicate$GT$$GT$$GT$17h9b97eb8149fa9b49E', symObjAddr: 0x50, symBinAddr: 0x64640, symSize: 0xD0 }
  - { offsetInCU: 0x3ACC, offset: 0x275734, size: 0x8, addend: 0x0, symName: '__ZN4core3ptr102drop_in_place$LT$syn..punctuated..Punctuated$LT$syn..path..GenericArgument$C$syn..token..Comma$GT$$GT$17h87ac6172553c146eE', symObjAddr: 0x120, symBinAddr: 0x64710, symSize: 0xF0 }
  - { offsetInCU: 0x3DEC, offset: 0x275A54, size: 0x8, addend: 0x0, symName: '__ZN4core3ptr103drop_in_place$LT$core..option..Option$LT$alloc..boxed..Box$LT$syn..generics..TypeParamBound$GT$$GT$$GT$17h0017d361ebb9471fE', symObjAddr: 0x210, symBinAddr: 0x64800, symSize: 0x50 }
  - { offsetInCU: 0x40B1, offset: 0x275D19, size: 0x8, addend: 0x0, symName: '__ZN4core3ptr103drop_in_place$LT$core..option..Option$LT$alloc..boxed..Box$LT$syn..generics..WherePredicate$GT$$GT$$GT$17he4ee84860b39964eE', symObjAddr: 0x260, symBinAddr: 0x64850, symSize: 0xD0 }
  - { offsetInCU: 0x4445, offset: 0x2760AD, size: 0x8, addend: 0x0, symName: '__ZN4core3ptr103drop_in_place$LT$syn..punctuated..Punctuated$LT$syn..generics..GenericParam$C$syn..token..Comma$GT$$GT$17hf5a644fae414a53cE', symObjAddr: 0x330, symBinAddr: 0x64920, symSize: 0xF0 }
  - { offsetInCU: 0x4940, offset: 0x2765A8, size: 0x8, addend: 0x0, symName: '__ZN4core3ptr104drop_in_place$LT$syn..punctuated..Punctuated$LT$syn..generics..TypeParamBound$C$syn..token..Plus$GT$$GT$17ha86a9d1599e32cffE', symObjAddr: 0x420, symBinAddr: 0x64A10, symSize: 0x240 }
  - { offsetInCU: 0x5296, offset: 0x276EFE, size: 0x8, addend: 0x0, symName: '__ZN4core3ptr111drop_in_place$LT$core..option..Option$LT$borsh_derive..internals..attributes..field..schema..Attributes$GT$$GT$17h7d96964c2b1a2d1aE', symObjAddr: 0x660, symBinAddr: 0x64C50, symSize: 0x190 }
  - { offsetInCU: 0x56FC, offset: 0x277364, size: 0x8, addend: 0x0, symName: '__ZN4core3ptr122drop_in_place$LT$core..option..Option$LT$borsh_derive..internals..attributes..field..schema..with_funcs..WithFuncs$GT$$GT$17he02ffe9b3554ccf8E', symObjAddr: 0x7F0, symBinAddr: 0x64DE0, symSize: 0x70 }
  - { offsetInCU: 0x5824, offset: 0x27748C, size: 0x8, addend: 0x0, symName: '__ZN4core3ptr34drop_in_place$LT$syn..lit..Lit$GT$17h7e230476d36822bfE', symObjAddr: 0x860, symBinAddr: 0x64E50, symSize: 0x120 }
  - { offsetInCU: 0x5D12, offset: 0x27797A, size: 0x8, addend: 0x0, symName: '__ZN4core3ptr34drop_in_place$LT$syn..pat..Pat$GT$17h5b0a97e980f53e46E', symObjAddr: 0x980, symBinAddr: 0x64F70, symSize: 0xF40 }
  - { offsetInCU: 0x97D8, offset: 0x27B440, size: 0x8, addend: 0x0, symName: '__ZN4core3ptr34drop_in_place$LT$syn..ty..Type$GT$17h19f850f61918f31fE', symObjAddr: 0x18C0, symBinAddr: 0x65EB0, symSize: 0x580 }
  - { offsetInCU: 0xB061, offset: 0x27CCC9, size: 0x8, addend: 0x0, symName: '__ZN4core3ptr36drop_in_place$LT$syn..expr..Expr$GT$17h98f7f68f0a06dff7E', symObjAddr: 0x1E40, symBinAddr: 0x66430, symSize: 0x2730 }
  - { offsetInCU: 0x144C1, offset: 0x286129, size: 0x8, addend: 0x0, symName: '__ZN4core3ptr36drop_in_place$LT$syn..mac..Macro$GT$17hdf5bac46d7f74bccE', symObjAddr: 0x4570, symBinAddr: 0x68B60, symSize: 0xE0 }
  - { offsetInCU: 0x1484B, offset: 0x2864B3, size: 0x8, addend: 0x0, symName: '__ZN4core3ptr36drop_in_place$LT$syn..path..Path$GT$17hb2feba4d905af1b2E', symObjAddr: 0x4650, symBinAddr: 0x68C40, symSize: 0x240 }
  - { offsetInCU: 0x151E5, offset: 0x286E4D, size: 0x8, addend: 0x0, symName: '__ZN4core3ptr37drop_in_place$LT$syn..stmt..Block$GT$17h9594e7bdfd216ee2E', symObjAddr: 0x4890, symBinAddr: 0x68E80, symSize: 0xD0 }
  - { offsetInCU: 0x154FA, offset: 0x287162, size: 0x8, addend: 0x0, symName: '__ZN4core3ptr38drop_in_place$LT$syn..error..Error$GT$17h629ad0985f92efc9E', symObjAddr: 0x4960, symBinAddr: 0x68F50, symSize: 0x90 }
  - { offsetInCU: 0x157BC, offset: 0x287424, size: 0x8, addend: 0x0, symName: '__ZN4core3ptr38drop_in_place$LT$syn..expr..Member$GT$17hd3bc25e187f7fae3E', symObjAddr: 0x49F0, symBinAddr: 0x68FE0, symSize: 0x30 }
  - { offsetInCU: 0x158B8, offset: 0x287520, size: 0x8, addend: 0x0, symName: '__ZN4core3ptr39drop_in_place$LT$proc_macro2..Ident$GT$17hb5fbe0c131bfa218E', symObjAddr: 0x4A20, symBinAddr: 0x69010, symSize: 0x30 }
  - { offsetInCU: 0x15995, offset: 0x2875FD, size: 0x8, addend: 0x0, symName: '__ZN4core3ptr40drop_in_place$LT$syn..expr..ExprPath$GT$17hac51ab24dfe997baE', symObjAddr: 0x4A50, symBinAddr: 0x69040, symSize: 0x110 }
  - { offsetInCU: 0x15DC4, offset: 0x287A2C, size: 0x8, addend: 0x0, symName: '__ZN4core3ptr40drop_in_place$LT$syn..ty..ReturnType$GT$17h2041b3e02720652aE', symObjAddr: 0x4B60, symBinAddr: 0x69150, symSize: 0x50 }
  - { offsetInCU: 0x15F34, offset: 0x287B9C, size: 0x8, addend: 0x0, symName: '__ZN4core3ptr41drop_in_place$LT$syn..expr..ExprConst$GT$17h546d2eac1f274d91E', symObjAddr: 0x4BB0, symBinAddr: 0x691A0, symSize: 0x180 }
  - { offsetInCU: 0x164ED, offset: 0x288155, size: 0x8, addend: 0x0, symName: '__ZN4core3ptr42drop_in_place$LT$alloc..string..String$GT$17h4efd19822f3e4515E', symObjAddr: 0x4D30, symBinAddr: 0x69320, symSize: 0x20 }
  - { offsetInCU: 0x165F5, offset: 0x28825D, size: 0x8, addend: 0x0, symName: '__ZN4core3ptr44drop_in_place$LT$syn..generics..Generics$GT$17h6cc36a2c79e64375E', symObjAddr: 0x4D50, symBinAddr: 0x69340, symSize: 0x40 }
  - { offsetInCU: 0x16612, offset: 0x28827A, size: 0x8, addend: 0x0, symName: '__ZN4core3ptr44drop_in_place$LT$syn..lifetime..Lifetime$GT$17h8afd172b97690efdE', symObjAddr: 0x4D90, symBinAddr: 0x69380, symSize: 0x30 }
  - { offsetInCU: 0x16844, offset: 0x2884AC, size: 0x8, addend: 0x0, symName: '__ZN4core3ptr45drop_in_place$LT$proc_macro2..TokenStream$GT$17h207b9d10b43ca09fE', symObjAddr: 0x4DC0, symBinAddr: 0x693B0, symSize: 0x140 }
  - { offsetInCU: 0x16CDE, offset: 0x288946, size: 0x8, addend: 0x0, symName: '__ZN4core3ptr45drop_in_place$LT$syn..generics..TypeParam$GT$17h6c3c07424bcf6a4eE', symObjAddr: 0x4F00, symBinAddr: 0x694F0, symSize: 0x230 }
  - { offsetInCU: 0x1751F, offset: 0x289187, size: 0x8, addend: 0x0, symName: '__ZN4core3ptr46drop_in_place$LT$syn..generics..ConstParam$GT$17hd0de4a5923445da7E', symObjAddr: 0x5130, symBinAddr: 0x69720, symSize: 0x150 }
  - { offsetInCU: 0x1796C, offset: 0x2895D4, size: 0x8, addend: 0x0, symName: '__ZN4core3ptr47drop_in_place$LT$syn..generics..WhereClause$GT$17h886e9dcae0082af0E', symObjAddr: 0x5280, symBinAddr: 0x69870, symSize: 0xE0 }
  - { offsetInCU: 0x17CEF, offset: 0x289957, size: 0x8, addend: 0x0, symName: '__ZN4core3ptr47drop_in_place$LT$syn..path..GenericArgument$GT$17hf4dd383aa34a4f0fE', symObjAddr: 0x5360, symBinAddr: 0x69950, symSize: 0x450 }
  - { offsetInCU: 0x18A65, offset: 0x28A6CD, size: 0x8, addend: 0x0, symName: '__ZN4core3ptr49drop_in_place$LT$syn..generics..LifetimeParam$GT$17hd0b2e7526885b204E', symObjAddr: 0x57B0, symBinAddr: 0x69DA0, symSize: 0xF0 }
  - { offsetInCU: 0x18E48, offset: 0x28AAB0, size: 0x8, addend: 0x0, symName: '__ZN4core3ptr50drop_in_place$LT$syn..generics..TypeParamBound$GT$17hdc238d3175f8eb5aE', symObjAddr: 0x58A0, symBinAddr: 0x69E90, symSize: 0xA0 }
  - { offsetInCU: 0x18FAE, offset: 0x28AC16, size: 0x8, addend: 0x0, symName: '__ZN4core3ptr58drop_in_place$LT$alloc..vec..Vec$LT$syn..expr..Arm$GT$$GT$17ha0ec4334cda5515cE', symObjAddr: 0x5940, symBinAddr: 0x69F30, symSize: 0xD0 }
  - { offsetInCU: 0x1926E, offset: 0x28AED6, size: 0x8, addend: 0x0, symName: '__ZN4core3ptr59drop_in_place$LT$alloc..boxed..Box$LT$syn..pat..Pat$GT$$GT$17h67f20b4715509286E', symObjAddr: 0x5A10, symBinAddr: 0x6A000, symSize: 0x50 }
  - { offsetInCU: 0x193C7, offset: 0x28B02F, size: 0x8, addend: 0x0, symName: '__ZN4core3ptr59drop_in_place$LT$alloc..boxed..Box$LT$syn..ty..Type$GT$$GT$17hb9082e267b94188dE', symObjAddr: 0x5A60, symBinAddr: 0x6A050, symSize: 0x50 }
  - { offsetInCU: 0x19520, offset: 0x28B188, size: 0x8, addend: 0x0, symName: '__ZN4core3ptr61drop_in_place$LT$alloc..boxed..Box$LT$syn..expr..Expr$GT$$GT$17h01310d89a7a8aab3E', symObjAddr: 0x5AB0, symBinAddr: 0x6A0A0, symSize: 0x50 }
  - { offsetInCU: 0x19679, offset: 0x28B2E1, size: 0x8, addend: 0x0, symName: '__ZN4core3ptr61drop_in_place$LT$syn..path..ParenthesizedGenericArguments$GT$17h7fee2959ae354450E', symObjAddr: 0x5B00, symBinAddr: 0x6A0F0, symSize: 0x170 }
  - { offsetInCU: 0x19C82, offset: 0x28B8EA, size: 0x8, addend: 0x0, symName: '__ZN4core3ptr63drop_in_place$LT$alloc..boxed..Box$LT$syn..lit..LitRepr$GT$$GT$17hf23a84bed7f64f98E', symObjAddr: 0x5C70, symBinAddr: 0x6A260, symSize: 0x60 }
  - { offsetInCU: 0x19F89, offset: 0x28BBF1, size: 0x8, addend: 0x0, symName: '__ZN4core3ptr64drop_in_place$LT$alloc..boxed..Box$LT$syn..pat..FieldPat$GT$$GT$17ha5ec27d4d418dbdfE', symObjAddr: 0x5CD0, symBinAddr: 0x6A2C0, symSize: 0x140 }
  - { offsetInCU: 0x1A656, offset: 0x28C2BE, size: 0x8, addend: 0x0, symName: '__ZN4core3ptr64drop_in_place$LT$alloc..boxed..Box$LT$syn..ty..BareFnArg$GT$$GT$17hb416cdff09d8949eE', symObjAddr: 0x5E10, symBinAddr: 0x6A400, symSize: 0x140 }
  - { offsetInCU: 0x1ABAB, offset: 0x28C813, size: 0x8, addend: 0x0, symName: '__ZN4core3ptr65drop_in_place$LT$alloc..vec..Vec$LT$proc_macro..TokenTree$GT$$GT$17h54365d0bdf61b883E', symObjAddr: 0x5F50, symBinAddr: 0x6A540, symSize: 0x110 }
  - { offsetInCU: 0x1AFA3, offset: 0x28CC0B, size: 0x8, addend: 0x0, symName: '__ZN4core3ptr65drop_in_place$LT$core..option..Option$LT$syn..expr..Label$GT$$GT$17h6cb338f3d3fef208E', symObjAddr: 0x6060, symBinAddr: 0x6A650, symSize: 0x30 }
  - { offsetInCU: 0x1B0DD, offset: 0x28CD45, size: 0x8, addend: 0x0, symName: '__ZN4core3ptr65drop_in_place$LT$core..option..Option$LT$syn..path..QSelf$GT$$GT$17h77b32165fa1277f0E', symObjAddr: 0x6090, symBinAddr: 0x6A680, symSize: 0x50 }
  - { offsetInCU: 0x1B25E, offset: 0x28CEC6, size: 0x8, addend: 0x0, symName: '__ZN4core3ptr66drop_in_place$LT$core..option..Option$LT$syn..pat..PatRest$GT$$GT$17h7c9095b226142979E', symObjAddr: 0x60E0, symBinAddr: 0x6A6D0, symSize: 0xE0 }
  - { offsetInCU: 0x1B552, offset: 0x28D1BA, size: 0x8, addend: 0x0, symName: '__ZN4core3ptr67drop_in_place$LT$alloc..boxed..Box$LT$syn..expr..FieldValue$GT$$GT$17hb048d8ef1ec03e8dE', symObjAddr: 0x61C0, symBinAddr: 0x6A7B0, symSize: 0x140 }
  - { offsetInCU: 0x1BAA6, offset: 0x28D70E, size: 0x8, addend: 0x0, symName: '__ZN4core3ptr68drop_in_place$LT$alloc..vec..Vec$LT$proc_macro2..TokenStream$GT$$GT$17h12fe98a0b6dc7a7eE', symObjAddr: 0x6300, symBinAddr: 0x6A8F0, symSize: 0xC0 }
  - { offsetInCU: 0x1BE9A, offset: 0x28DB02, size: 0x8, addend: 0x0, symName: '__ZN4core3ptr68drop_in_place$LT$borsh_derive..internals..schema..GenericsOutput$GT$17hd4471ac95f6cc160E', symObjAddr: 0x63C0, symBinAddr: 0x6A9B0, symSize: 0xA0 }
  - { offsetInCU: 0x1C2CD, offset: 0x28DF35, size: 0x8, addend: 0x0, symName: '__ZN4core3ptr70drop_in_place$LT$core..option..Option$LT$syn..ty..BareVariadic$GT$$GT$17hf6d2a770387443a3E', symObjAddr: 0x6460, symBinAddr: 0x6AA50, symSize: 0x100 }
  - { offsetInCU: 0x1C704, offset: 0x28E36C, size: 0x8, addend: 0x0, symName: '__ZN4core3ptr72drop_in_place$LT$alloc..boxed..Box$LT$syn..path..GenericArgument$GT$$GT$17hcc60f7ab467d198fE', symObjAddr: 0x6560, symBinAddr: 0x6AB50, symSize: 0x2B0 }
  - { offsetInCU: 0x1D115, offset: 0x28ED7D, size: 0x8, addend: 0x0, symName: '__ZN4core3ptr72drop_in_place$LT$core..option..Option$LT$syn..lifetime..Lifetime$GT$$GT$17h70ad3b488ebe3596E', symObjAddr: 0x6810, symBinAddr: 0x6AE00, symSize: 0x30 }
  - { offsetInCU: 0x1D230, offset: 0x28EE98, size: 0x8, addend: 0x0, symName: '__ZN4core3ptr73drop_in_place$LT$alloc..boxed..Box$LT$syn..generics..GenericParam$GT$$GT$17hd8823d2eb1a41dfaE', symObjAddr: 0x6840, symBinAddr: 0x6AE30, symSize: 0x80 }
  - { offsetInCU: 0x1D3A6, offset: 0x28F00E, size: 0x8, addend: 0x0, symName: '__ZN4core3ptr75drop_in_place$LT$alloc..boxed..Box$LT$syn..generics..TypeParamBound$GT$$GT$17hc0dbc3e6560133a8E', symObjAddr: 0x68C0, symBinAddr: 0x6AEB0, symSize: 0x180 }
  - { offsetInCU: 0x1D992, offset: 0x28F5FA, size: 0x8, addend: 0x0, symName: '__ZN4core3ptr75drop_in_place$LT$borsh_derive..internals..attributes..field..Attributes$GT$17hd8b691ab19c82347E', symObjAddr: 0x6A40, symBinAddr: 0x6B030, symSize: 0x230 }
  - { offsetInCU: 0x1E01D, offset: 0x28FC85, size: 0x8, addend: 0x0, symName: '__ZN4core3ptr75drop_in_place$LT$core..option..Option$LT$syn..generics..WhereClause$GT$$GT$17h2c16f6dc41ab983cE', symObjAddr: 0x6C70, symBinAddr: 0x6B260, symSize: 0x100 }
  - { offsetInCU: 0x1E3D4, offset: 0x29003C, size: 0x8, addend: 0x0, symName: '__ZN4core3ptr86drop_in_place$LT$syn..punctuated..Punctuated$LT$syn..pat..Pat$C$syn..token..Or$GT$$GT$17hb407e891b009195eE', symObjAddr: 0x6D70, symBinAddr: 0x6B360, symSize: 0x120 }
  - { offsetInCU: 0x1E84F, offset: 0x2904B7, size: 0x8, addend: 0x0, symName: '__ZN4core3ptr87drop_in_place$LT$core..option..Option$LT$alloc..boxed..Box$LT$syn..pat..Pat$GT$$GT$$GT$17h27575db68a752b00E', symObjAddr: 0x6E90, symBinAddr: 0x6B480, symSize: 0x50 }
  - { offsetInCU: 0x1E9BF, offset: 0x290627, size: 0x8, addend: 0x0, symName: '__ZN4core3ptr87drop_in_place$LT$core..option..Option$LT$alloc..boxed..Box$LT$syn..ty..Type$GT$$GT$$GT$17h2cce7e91b6f26339E', symObjAddr: 0x6EE0, symBinAddr: 0x6B4D0, symSize: 0x50 }
  - { offsetInCU: 0x1EB2F, offset: 0x290797, size: 0x8, addend: 0x0, symName: '__ZN4core3ptr89drop_in_place$LT$core..option..Option$LT$alloc..boxed..Box$LT$syn..expr..Expr$GT$$GT$$GT$17h4805299351d776eaE', symObjAddr: 0x6F30, symBinAddr: 0x6B520, symSize: 0x50 }
  - { offsetInCU: 0x1ECDD, offset: 0x290945, size: 0x8, addend: 0x0, symName: '__ZN4core3ptr89drop_in_place$LT$syn..punctuated..Punctuated$LT$syn..pat..Pat$C$syn..token..Comma$GT$$GT$17hbfa21962153cb723E', symObjAddr: 0x6F80, symBinAddr: 0x6B570, symSize: 0x120 }
  - { offsetInCU: 0x1F1AD, offset: 0x290E15, size: 0x8, addend: 0x0, symName: '__ZN4core3ptr91drop_in_place$LT$syn..punctuated..Punctuated$LT$syn..expr..Expr$C$syn..token..Comma$GT$$GT$17hd2c79695be72d75eE', symObjAddr: 0x70A0, symBinAddr: 0x6B690, symSize: 0x120 }
  - { offsetInCU: 0x1F63B, offset: 0x2912A3, size: 0x8, addend: 0x0, symName: '__ZN4core3ptr94drop_in_place$LT$syn..punctuated..Punctuated$LT$syn..pat..FieldPat$C$syn..token..Comma$GT$$GT$17hb2b4aed8f633cba0E', symObjAddr: 0x71C0, symBinAddr: 0x6B7B0, symSize: 0xF0 }
  - { offsetInCU: 0x1F93A, offset: 0x2915A2, size: 0x8, addend: 0x0, symName: '__ZN4core3ptr94drop_in_place$LT$syn..punctuated..Punctuated$LT$syn..ty..BareFnArg$C$syn..token..Comma$GT$$GT$17h59c18cbb4f726140E', symObjAddr: 0x72B0, symBinAddr: 0x6B8A0, symSize: 0xF0 }
  - { offsetInCU: 0x1FC3B, offset: 0x2918A3, size: 0x8, addend: 0x0, symName: '__ZN4core3ptr96drop_in_place$LT$core..option..Option$LT$alloc..boxed..Box$LT$syn..path..PathSegment$GT$$GT$$GT$17hd67a31bad3bc4ef4E', symObjAddr: 0x73A0, symBinAddr: 0x6B990, symSize: 0x1A0 }
  - { offsetInCU: 0x202FC, offset: 0x291F64, size: 0x8, addend: 0x0, symName: '__ZN4core3ptr97drop_in_place$LT$syn..punctuated..Punctuated$LT$syn..expr..FieldValue$C$syn..token..Comma$GT$$GT$17h2644f25adad08ccbE', symObjAddr: 0x7540, symBinAddr: 0x6BB30, symSize: 0xF0 }
  - { offsetInCU: 0x20675, offset: 0x2922DD, size: 0x8, addend: 0x0, symName: '__ZN4core3ptr98drop_in_place$LT$syn..punctuated..Punctuated$LT$syn..lifetime..Lifetime$C$syn..token..Plus$GT$$GT$17hfbe9a104e4a4f23fE', symObjAddr: 0x7630, symBinAddr: 0x6BC20, symSize: 0xD0 }
  - { offsetInCU: 0x21016, offset: 0x292C7E, size: 0x8, addend: 0x0, symName: '__ZN53_$LT$core..fmt..Error$u20$as$u20$core..fmt..Debug$GT$3fmt17h03dc662ab152f3aeE', symObjAddr: 0x7700, symBinAddr: 0x6BCF0, symSize: 0x20 }
  - { offsetInCU: 0x2A060, offset: 0x29BCC8, size: 0x8, addend: 0x0, symName: __ZN12borsh_derive9internals6schema7structs7process17h2cfff9fc9e6c8ad5E, symObjAddr: 0x78C0, symBinAddr: 0x6BEB0, symSize: 0x1D70 }
  - { offsetInCU: 0x2C152, offset: 0x29DDBA, size: 0x8, addend: 0x0, symName: __ZN12borsh_derive9internals6schema7structs13process_field17h051b9f823c5a2895E, symObjAddr: 0x9630, symBinAddr: 0x6DC20, symSize: 0xA90 }
  - { offsetInCU: 0x1D39, offset: 0x2A561E, size: 0x8, addend: 0x0, symName: '__ZN4core3ptr100drop_in_place$LT$core..option..Option$LT$alloc..boxed..Box$LT$syn..path..GenericArgument$GT$$GT$$GT$17h807a36ffbab107a4E', symObjAddr: 0x10, symBinAddr: 0x6E6B0, symSize: 0x50 }
  - { offsetInCU: 0x20D7, offset: 0x2A59BC, size: 0x8, addend: 0x0, symName: '__ZN4core3ptr100drop_in_place$LT$syn..punctuated..Punctuated$LT$syn..path..PathSegment$C$syn..token..PathSep$GT$$GT$17hcb9c7ae6720123ceE', symObjAddr: 0x60, symBinAddr: 0x6E700, symSize: 0x270 }
  - { offsetInCU: 0x2A99, offset: 0x2A637E, size: 0x8, addend: 0x0, symName: '__ZN4core3ptr101drop_in_place$LT$core..option..Option$LT$alloc..vec..Vec$LT$syn..generics..WherePredicate$GT$$GT$$GT$17h9b97eb8149fa9b49E', symObjAddr: 0x2D0, symBinAddr: 0x6E970, symSize: 0xD0 }
  - { offsetInCU: 0x2D76, offset: 0x2A665B, size: 0x8, addend: 0x0, symName: '__ZN4core3ptr103drop_in_place$LT$core..option..Option$LT$alloc..boxed..Box$LT$syn..generics..TypeParamBound$GT$$GT$$GT$17h0017d361ebb9471fE', symObjAddr: 0x3A0, symBinAddr: 0x6EA40, symSize: 0x50 }
  - { offsetInCU: 0x2F81, offset: 0x2A6866, size: 0x8, addend: 0x0, symName: '__ZN4core3ptr103drop_in_place$LT$syn..punctuated..Punctuated$LT$syn..generics..GenericParam$C$syn..token..Comma$GT$$GT$17hf5a644fae414a53cE', symObjAddr: 0x3F0, symBinAddr: 0x6EA90, symSize: 0xF0 }
  - { offsetInCU: 0x347C, offset: 0x2A6D61, size: 0x8, addend: 0x0, symName: '__ZN4core3ptr104drop_in_place$LT$syn..punctuated..Punctuated$LT$syn..generics..TypeParamBound$C$syn..token..Plus$GT$$GT$17ha86a9d1599e32cffE', symObjAddr: 0x4E0, symBinAddr: 0x6EB80, symSize: 0x190 }
  - { offsetInCU: 0x3A9F, offset: 0x2A7384, size: 0x8, addend: 0x0, symName: '__ZN4core3ptr122drop_in_place$LT$core..option..Option$LT$borsh_derive..internals..attributes..field..schema..with_funcs..WithFuncs$GT$$GT$17he02ffe9b3554ccf8E', symObjAddr: 0x670, symBinAddr: 0x6ED10, symSize: 0x70 }
  - { offsetInCU: 0x3BC7, offset: 0x2A74AC, size: 0x8, addend: 0x0, symName: '__ZN4core3ptr34drop_in_place$LT$syn..lit..Lit$GT$17h7e230476d36822bfE', symObjAddr: 0x6E0, symBinAddr: 0x6ED80, symSize: 0x120 }
  - { offsetInCU: 0x40B5, offset: 0x2A799A, size: 0x8, addend: 0x0, symName: '__ZN4core3ptr34drop_in_place$LT$syn..pat..Pat$GT$17h5b0a97e980f53e46E', symObjAddr: 0x800, symBinAddr: 0x6EEA0, symSize: 0x1090 }
  - { offsetInCU: 0x80B5, offset: 0x2AB99A, size: 0x8, addend: 0x0, symName: '__ZN4core3ptr34drop_in_place$LT$syn..ty..Type$GT$17h19f850f61918f31fE', symObjAddr: 0x1890, symBinAddr: 0x6FF30, symSize: 0x4F0 }
  - { offsetInCU: 0x95F8, offset: 0x2ACEDD, size: 0x8, addend: 0x0, symName: '__ZN4core3ptr36drop_in_place$LT$syn..expr..Expr$GT$17h98f7f68f0a06dff7E', symObjAddr: 0x1D80, symBinAddr: 0x70420, symSize: 0x27D0 }
  - { offsetInCU: 0x12D2C, offset: 0x2B6611, size: 0x8, addend: 0x0, symName: '__ZN4core3ptr36drop_in_place$LT$syn..mac..Macro$GT$17hdf5bac46d7f74bccE', symObjAddr: 0x4550, symBinAddr: 0x72BF0, symSize: 0x40 }
  - { offsetInCU: 0x12D66, offset: 0x2B664B, size: 0x8, addend: 0x0, symName: '__ZN4core3ptr36drop_in_place$LT$syn..path..Path$GT$17hb2feba4d905af1b2E', symObjAddr: 0x4590, symBinAddr: 0x72C30, symSize: 0x240 }
  - { offsetInCU: 0x13700, offset: 0x2B6FE5, size: 0x8, addend: 0x0, symName: '__ZN4core3ptr37drop_in_place$LT$syn..stmt..Block$GT$17h9594e7bdfd216ee2E', symObjAddr: 0x47D0, symBinAddr: 0x72E70, symSize: 0xD0 }
  - { offsetInCU: 0x139D7, offset: 0x2B72BC, size: 0x8, addend: 0x0, symName: '__ZN4core3ptr38drop_in_place$LT$syn..expr..Member$GT$17hd3bc25e187f7fae3E', symObjAddr: 0x48A0, symBinAddr: 0x72F40, symSize: 0x30 }
  - { offsetInCU: 0x13AD3, offset: 0x2B73B8, size: 0x8, addend: 0x0, symName: '__ZN4core3ptr39drop_in_place$LT$proc_macro2..Ident$GT$17hb5fbe0c131bfa218E', symObjAddr: 0x48D0, symBinAddr: 0x72F70, symSize: 0x30 }
  - { offsetInCU: 0x13BB0, offset: 0x2B7495, size: 0x8, addend: 0x0, symName: '__ZN4core3ptr40drop_in_place$LT$syn..expr..ExprPath$GT$17hac51ab24dfe997baE', symObjAddr: 0x4900, symBinAddr: 0x72FA0, symSize: 0x110 }
  - { offsetInCU: 0x13FDF, offset: 0x2B78C4, size: 0x8, addend: 0x0, symName: '__ZN4core3ptr40drop_in_place$LT$syn..ty..ReturnType$GT$17h2041b3e02720652aE', symObjAddr: 0x4A10, symBinAddr: 0x730B0, symSize: 0x50 }
  - { offsetInCU: 0x1414F, offset: 0x2B7A34, size: 0x8, addend: 0x0, symName: '__ZN4core3ptr41drop_in_place$LT$syn..expr..ExprConst$GT$17h546d2eac1f274d91E', symObjAddr: 0x4A60, symBinAddr: 0x73100, symSize: 0x180 }
  - { offsetInCU: 0x14708, offset: 0x2B7FED, size: 0x8, addend: 0x0, symName: '__ZN4core3ptr44drop_in_place$LT$syn..lifetime..Lifetime$GT$17h8afd172b97690efdE', symObjAddr: 0x4BE0, symBinAddr: 0x73280, symSize: 0x30 }
  - { offsetInCU: 0x1493A, offset: 0x2B821F, size: 0x8, addend: 0x0, symName: '__ZN4core3ptr45drop_in_place$LT$proc_macro2..TokenStream$GT$17h207b9d10b43ca09fE', symObjAddr: 0x4C10, symBinAddr: 0x732B0, symSize: 0x140 }
  - { offsetInCU: 0x14DD4, offset: 0x2B86B9, size: 0x8, addend: 0x0, symName: '__ZN4core3ptr45drop_in_place$LT$syn..generics..TypeParam$GT$17h6c3c07424bcf6a4eE', symObjAddr: 0x4D50, symBinAddr: 0x733F0, symSize: 0x230 }
  - { offsetInCU: 0x15615, offset: 0x2B8EFA, size: 0x8, addend: 0x0, symName: '__ZN4core3ptr46drop_in_place$LT$syn..generics..ConstParam$GT$17hd0de4a5923445da7E', symObjAddr: 0x4F80, symBinAddr: 0x73620, symSize: 0x150 }
  - { offsetInCU: 0x15ADE, offset: 0x2B93C3, size: 0x8, addend: 0x0, symName: '__ZN4core3ptr47drop_in_place$LT$syn..path..GenericArgument$GT$17hf4dd383aa34a4f0fE', symObjAddr: 0x5100, symBinAddr: 0x73770, symSize: 0x4A0 }
  - { offsetInCU: 0x16BE4, offset: 0x2BA4C9, size: 0x8, addend: 0x0, symName: '__ZN4core3ptr49drop_in_place$LT$syn..generics..LifetimeParam$GT$17hd0b2e7526885b204E', symObjAddr: 0x55A0, symBinAddr: 0x73C10, symSize: 0xF0 }
  - { offsetInCU: 0x16FC7, offset: 0x2BA8AC, size: 0x8, addend: 0x0, symName: '__ZN4core3ptr50drop_in_place$LT$syn..generics..TypeParamBound$GT$17hdc238d3175f8eb5aE', symObjAddr: 0x5690, symBinAddr: 0x73D00, symSize: 0x180 }
  - { offsetInCU: 0x17411, offset: 0x2BACF6, size: 0x8, addend: 0x0, symName: '__ZN4core3ptr58drop_in_place$LT$alloc..vec..Vec$LT$syn..expr..Arm$GT$$GT$17ha0ec4334cda5515cE', symObjAddr: 0x5810, symBinAddr: 0x73E80, symSize: 0xD0 }
  - { offsetInCU: 0x176D1, offset: 0x2BAFB6, size: 0x8, addend: 0x0, symName: '__ZN4core3ptr59drop_in_place$LT$alloc..boxed..Box$LT$syn..pat..Pat$GT$$GT$17h67f20b4715509286E', symObjAddr: 0x58E0, symBinAddr: 0x73F50, symSize: 0x50 }
  - { offsetInCU: 0x1782A, offset: 0x2BB10F, size: 0x8, addend: 0x0, symName: '__ZN4core3ptr59drop_in_place$LT$alloc..boxed..Box$LT$syn..ty..Type$GT$$GT$17hb9082e267b94188dE', symObjAddr: 0x5930, symBinAddr: 0x73FA0, symSize: 0x50 }
  - { offsetInCU: 0x17983, offset: 0x2BB268, size: 0x8, addend: 0x0, symName: '__ZN4core3ptr61drop_in_place$LT$alloc..boxed..Box$LT$syn..expr..Expr$GT$$GT$17h01310d89a7a8aab3E', symObjAddr: 0x5980, symBinAddr: 0x73FF0, symSize: 0x50 }
  - { offsetInCU: 0x17B58, offset: 0x2BB43D, size: 0x8, addend: 0x0, symName: '__ZN4core3ptr61drop_in_place$LT$syn..path..ParenthesizedGenericArguments$GT$17h7fee2959ae354450E', symObjAddr: 0x59D0, symBinAddr: 0x74040, symSize: 0x170 }
  - { offsetInCU: 0x1814E, offset: 0x2BBA33, size: 0x8, addend: 0x0, symName: '__ZN4core3ptr62drop_in_place$LT$syn..path..AngleBracketedGenericArguments$GT$17h79141db867cfe0cbE', symObjAddr: 0x5B40, symBinAddr: 0x741B0, symSize: 0x120 }
  - { offsetInCU: 0x18599, offset: 0x2BBE7E, size: 0x8, addend: 0x0, symName: '__ZN4core3ptr63drop_in_place$LT$alloc..boxed..Box$LT$syn..lit..LitRepr$GT$$GT$17hf23a84bed7f64f98E.llvm.737803811414500395', symObjAddr: 0x5C60, symBinAddr: 0x742D0, symSize: 0x60 }
  - { offsetInCU: 0x188A0, offset: 0x2BC185, size: 0x8, addend: 0x0, symName: '__ZN4core3ptr64drop_in_place$LT$alloc..boxed..Box$LT$syn..pat..FieldPat$GT$$GT$17ha5ec27d4d418dbdfE', symObjAddr: 0x5CC0, symBinAddr: 0x74330, symSize: 0x140 }
  - { offsetInCU: 0x18F6D, offset: 0x2BC852, size: 0x8, addend: 0x0, symName: '__ZN4core3ptr64drop_in_place$LT$alloc..boxed..Box$LT$syn..ty..BareFnArg$GT$$GT$17hb416cdff09d8949eE', symObjAddr: 0x5E00, symBinAddr: 0x74470, symSize: 0x140 }
  - { offsetInCU: 0x194C2, offset: 0x2BCDA7, size: 0x8, addend: 0x0, symName: '__ZN4core3ptr65drop_in_place$LT$alloc..vec..Vec$LT$proc_macro..TokenTree$GT$$GT$17h54365d0bdf61b883E', symObjAddr: 0x5F40, symBinAddr: 0x745B0, symSize: 0x110 }
  - { offsetInCU: 0x198BA, offset: 0x2BD19F, size: 0x8, addend: 0x0, symName: '__ZN4core3ptr65drop_in_place$LT$core..option..Option$LT$syn..expr..Label$GT$$GT$17h6cb338f3d3fef208E', symObjAddr: 0x6050, symBinAddr: 0x746C0, symSize: 0x30 }
  - { offsetInCU: 0x199F4, offset: 0x2BD2D9, size: 0x8, addend: 0x0, symName: '__ZN4core3ptr65drop_in_place$LT$core..option..Option$LT$syn..path..QSelf$GT$$GT$17h77b32165fa1277f0E', symObjAddr: 0x6080, symBinAddr: 0x746F0, symSize: 0x50 }
  - { offsetInCU: 0x19B75, offset: 0x2BD45A, size: 0x8, addend: 0x0, symName: '__ZN4core3ptr66drop_in_place$LT$core..option..Option$LT$syn..pat..PatRest$GT$$GT$17h7c9095b226142979E', symObjAddr: 0x60D0, symBinAddr: 0x74740, symSize: 0xE0 }
  - { offsetInCU: 0x19E69, offset: 0x2BD74E, size: 0x8, addend: 0x0, symName: '__ZN4core3ptr67drop_in_place$LT$alloc..boxed..Box$LT$syn..expr..FieldValue$GT$$GT$17hb048d8ef1ec03e8dE', symObjAddr: 0x61B0, symBinAddr: 0x74820, symSize: 0x140 }
  - { offsetInCU: 0x1A39E, offset: 0x2BDC83, size: 0x8, addend: 0x0, symName: '__ZN4core3ptr68drop_in_place$LT$alloc..boxed..Box$LT$syn..path..PathSegment$GT$$GT$17h582dcd8abb4b1a74E', symObjAddr: 0x62F0, symBinAddr: 0x74960, symSize: 0x1B0 }
  - { offsetInCU: 0x1AAAC, offset: 0x2BE391, size: 0x8, addend: 0x0, symName: '__ZN4core3ptr70drop_in_place$LT$core..option..Option$LT$syn..ty..BareVariadic$GT$$GT$17hf6d2a770387443a3E', symObjAddr: 0x64A0, symBinAddr: 0x74B10, symSize: 0x100 }
  - { offsetInCU: 0x1AEE3, offset: 0x2BE7C8, size: 0x8, addend: 0x0, symName: '__ZN4core3ptr72drop_in_place$LT$alloc..boxed..Box$LT$syn..path..GenericArgument$GT$$GT$17hcc60f7ab467d198fE', symObjAddr: 0x65A0, symBinAddr: 0x74C10, symSize: 0x1D0 }
  - { offsetInCU: 0x1B47E, offset: 0x2BED63, size: 0x8, addend: 0x0, symName: '__ZN4core3ptr72drop_in_place$LT$core..option..Option$LT$syn..lifetime..Lifetime$GT$$GT$17h70ad3b488ebe3596E', symObjAddr: 0x6770, symBinAddr: 0x74DE0, symSize: 0x30 }
  - { offsetInCU: 0x1B599, offset: 0x2BEE7E, size: 0x8, addend: 0x0, symName: '__ZN4core3ptr73drop_in_place$LT$alloc..boxed..Box$LT$syn..generics..GenericParam$GT$$GT$17hd8823d2eb1a41dfaE', symObjAddr: 0x67A0, symBinAddr: 0x74E10, symSize: 0x80 }
  - { offsetInCU: 0x1B70F, offset: 0x2BEFF4, size: 0x8, addend: 0x0, symName: '__ZN4core3ptr75drop_in_place$LT$alloc..boxed..Box$LT$syn..generics..TypeParamBound$GT$$GT$17hc0dbc3e6560133a8E', symObjAddr: 0x6820, symBinAddr: 0x74E90, symSize: 0xC0 }
  - { offsetInCU: 0x1BA63, offset: 0x2BF348, size: 0x8, addend: 0x0, symName: '__ZN4core3ptr86drop_in_place$LT$syn..punctuated..Punctuated$LT$syn..pat..Pat$C$syn..token..Or$GT$$GT$17hb407e891b009195eE', symObjAddr: 0x68E0, symBinAddr: 0x74F50, symSize: 0x120 }
  - { offsetInCU: 0x1BEDE, offset: 0x2BF7C3, size: 0x8, addend: 0x0, symName: '__ZN4core3ptr87drop_in_place$LT$core..option..Option$LT$alloc..boxed..Box$LT$syn..pat..Pat$GT$$GT$$GT$17h27575db68a752b00E', symObjAddr: 0x6A00, symBinAddr: 0x75070, symSize: 0x50 }
  - { offsetInCU: 0x1C04E, offset: 0x2BF933, size: 0x8, addend: 0x0, symName: '__ZN4core3ptr87drop_in_place$LT$core..option..Option$LT$alloc..boxed..Box$LT$syn..ty..Type$GT$$GT$$GT$17h2cce7e91b6f26339E', symObjAddr: 0x6A50, symBinAddr: 0x750C0, symSize: 0x50 }
  - { offsetInCU: 0x1C1BE, offset: 0x2BFAA3, size: 0x8, addend: 0x0, symName: '__ZN4core3ptr89drop_in_place$LT$core..option..Option$LT$alloc..boxed..Box$LT$syn..expr..Expr$GT$$GT$$GT$17h4805299351d776eaE', symObjAddr: 0x6AA0, symBinAddr: 0x75110, symSize: 0x50 }
  - { offsetInCU: 0x1C36C, offset: 0x2BFC51, size: 0x8, addend: 0x0, symName: '__ZN4core3ptr89drop_in_place$LT$syn..punctuated..Punctuated$LT$syn..pat..Pat$C$syn..token..Comma$GT$$GT$17hbfa21962153cb723E', symObjAddr: 0x6AF0, symBinAddr: 0x75160, symSize: 0x120 }
  - { offsetInCU: 0x1C7FE, offset: 0x2C00E3, size: 0x8, addend: 0x0, symName: '__ZN4core3ptr89drop_in_place$LT$syn..punctuated..Punctuated$LT$syn..ty..Type$C$syn..token..Comma$GT$$GT$17h487f88da4f994ccfE', symObjAddr: 0x6C10, symBinAddr: 0x75280, symSize: 0x120 }
  - { offsetInCU: 0x1CC79, offset: 0x2C055E, size: 0x8, addend: 0x0, symName: '__ZN4core3ptr90drop_in_place$LT$core..option..Option$LT$syn..path..AngleBracketedGenericArguments$GT$$GT$17h44b2ad11f3f45684E', symObjAddr: 0x6D30, symBinAddr: 0x753A0, symSize: 0x130 }
  - { offsetInCU: 0x1D11B, offset: 0x2C0A00, size: 0x8, addend: 0x0, symName: '__ZN4core3ptr91drop_in_place$LT$syn..punctuated..Punctuated$LT$syn..expr..Expr$C$syn..token..Comma$GT$$GT$17hd2c79695be72d75eE', symObjAddr: 0x6E60, symBinAddr: 0x754D0, symSize: 0x120 }
  - { offsetInCU: 0x1D5A9, offset: 0x2C0E8E, size: 0x8, addend: 0x0, symName: '__ZN4core3ptr94drop_in_place$LT$syn..punctuated..Punctuated$LT$syn..pat..FieldPat$C$syn..token..Comma$GT$$GT$17hb2b4aed8f633cba0E', symObjAddr: 0x6F80, symBinAddr: 0x755F0, symSize: 0xF0 }
  - { offsetInCU: 0x1D8A8, offset: 0x2C118D, size: 0x8, addend: 0x0, symName: '__ZN4core3ptr94drop_in_place$LT$syn..punctuated..Punctuated$LT$syn..ty..BareFnArg$C$syn..token..Comma$GT$$GT$17h59c18cbb4f726140E', symObjAddr: 0x7070, symBinAddr: 0x756E0, symSize: 0xF0 }
  - { offsetInCU: 0x1DBA9, offset: 0x2C148E, size: 0x8, addend: 0x0, symName: '__ZN4core3ptr96drop_in_place$LT$core..option..Option$LT$alloc..boxed..Box$LT$syn..path..PathSegment$GT$$GT$$GT$17hd67a31bad3bc4ef4E', symObjAddr: 0x7160, symBinAddr: 0x757D0, symSize: 0xA0 }
  - { offsetInCU: 0x1DE28, offset: 0x2C170D, size: 0x8, addend: 0x0, symName: '__ZN4core3ptr97drop_in_place$LT$syn..punctuated..Punctuated$LT$syn..expr..FieldValue$C$syn..token..Comma$GT$$GT$17h2644f25adad08ccbE', symObjAddr: 0x7200, symBinAddr: 0x75870, symSize: 0xF0 }
  - { offsetInCU: 0x1E125, offset: 0x2C1A0A, size: 0x8, addend: 0x0, symName: '__ZN4core3ptr98drop_in_place$LT$alloc..vec..Vec$LT$$LP$syn..path..GenericArgument$C$syn..token..Comma$RP$$GT$$GT$17h050ecd3ba4b8a9c3E', symObjAddr: 0x72F0, symBinAddr: 0x75960, symSize: 0xD0 }
  - { offsetInCU: 0x1E465, offset: 0x2C1D4A, size: 0x8, addend: 0x0, symName: '__ZN4core3ptr98drop_in_place$LT$syn..punctuated..Punctuated$LT$syn..lifetime..Lifetime$C$syn..token..Plus$GT$$GT$17hfbe9a104e4a4f23fE', symObjAddr: 0x73C0, symBinAddr: 0x75A30, symSize: 0xD0 }
  - { offsetInCU: 0x241F3, offset: 0x2C7AD8, size: 0x8, addend: 0x0, symName: '__ZN55_$LT$syn..token..Paren$u20$as$u20$syn..token..Token$GT$7display17hbc4dffd680193e0fE.llvm.737803811414500395', symObjAddr: 0x7490, symBinAddr: 0x75B00, symSize: 0x20 }
  - { offsetInCU: 0x29BAD, offset: 0x2CD492, size: 0x8, addend: 0x0, symName: '__ZN60_$LT$alloc..string..String$u20$as$u20$core..fmt..Display$GT$3fmt17h0d0eb46f3054e2dfE', symObjAddr: 0x74B0, symBinAddr: 0x75B20, symSize: 0x20 }
  - { offsetInCU: 0x2C00D, offset: 0x2CF8F2, size: 0x8, addend: 0x0, symName: __ZN12borsh_derive9internals10attributes7parsing12get_lit_str217h88330428dbcff1fcE.llvm.737803811414500395, symObjAddr: 0x74D0, symBinAddr: 0x75B40, symSize: 0x200 }
  - { offsetInCU: 0x2C231, offset: 0x2CFB16, size: 0x8, addend: 0x0, symName: __ZN12borsh_derive9internals10attributes7parsing14parse_lit_into17h34a55291def6d714E, symObjAddr: 0x76D0, symBinAddr: 0x75D40, symSize: 0x120 }
  - { offsetInCU: 0x2C663, offset: 0x2CFF48, size: 0x8, addend: 0x0, symName: __ZN12borsh_derive9internals10attributes7parsing14parse_lit_into17hca2cf3dc307049ddE, symObjAddr: 0x77F0, symBinAddr: 0x75E60, symSize: 0x130 }
  - { offsetInCU: 0x2CA92, offset: 0x2D0377, size: 0x8, addend: 0x0, symName: __ZN12borsh_derive9internals10attributes7parsing18parse_lit_into_vec17h293d68977567fbd8E, symObjAddr: 0x7920, symBinAddr: 0x75F90, symSize: 0x190 }
  - { offsetInCU: 0x2CEEC, offset: 0x2D07D1, size: 0x8, addend: 0x0, symName: __ZN12borsh_derive9internals10attributes7parsing18parse_lit_into_vec17h8b7d165f12548a75E, symObjAddr: 0x7AB0, symBinAddr: 0x76120, symSize: 0x190 }
  - { offsetInCU: 0x2D368, offset: 0x2D0C4D, size: 0x8, addend: 0x0, symName: __ZN12borsh_derive9internals10attributes7parsing21get_nested_meta_logic17h1a1b700cbbc401afE, symObjAddr: 0x7C40, symBinAddr: 0x762B0, symSize: 0x8D0 }
  - { offsetInCU: 0x2E645, offset: 0x2D1F2A, size: 0x8, addend: 0x0, symName: __ZN12borsh_derive9internals10attributes7parsing21get_nested_meta_logic17h2a344acf1cf3a24eE, symObjAddr: 0x8510, symBinAddr: 0x76B80, symSize: 0x570 }
  - { offsetInCU: 0x2F167, offset: 0x2D2A4C, size: 0x8, addend: 0x0, symName: __ZN12borsh_derive9internals10attributes7parsing21get_nested_meta_logic17h507d46e2f1207b7fE, symObjAddr: 0x8A80, symBinAddr: 0x770F0, symSize: 0x7F0 }
  - { offsetInCU: 0x301D6, offset: 0x2D3ABB, size: 0x8, addend: 0x0, symName: __ZN12borsh_derive9internals10attributes7parsing21get_nested_meta_logic17h8f4cf7001e764ed2E, symObjAddr: 0x9270, symBinAddr: 0x778E0, symSize: 0x6F0 }
  - { offsetInCU: 0x310C6, offset: 0x2D49AB, size: 0x8, addend: 0x0, symName: __ZN12borsh_derive9internals10attributes7parsing23meta_get_by_symbol_keys17h4f11c45f091a8ee4E, symObjAddr: 0x9960, symBinAddr: 0x77FD0, symSize: 0x1F0 }
  - { offsetInCU: 0x31780, offset: 0x2D5065, size: 0x8, addend: 0x0, symName: __ZN12borsh_derive9internals10attributes7parsing23meta_get_by_symbol_keys17h71ca67d4d2f9674aE, symObjAddr: 0x9B50, symBinAddr: 0x781C0, symSize: 0x1F0 }
  - { offsetInCU: 0x31E3A, offset: 0x2D571F, size: 0x8, addend: 0x0, symName: __ZN12borsh_derive9internals10attributes7parsing23meta_get_by_symbol_keys17h96df9c87da5585c4E, symObjAddr: 0x9D40, symBinAddr: 0x783B0, symSize: 0x1F0 }
  - { offsetInCU: 0x1E, offset: 0x2DA7E5, size: 0x8, addend: 0x0, symName: '__ZN40_$LT$F$u20$as$u20$syn..parse..Parser$GT$14__parse_scoped17h01727d3599ea8a21E', symObjAddr: 0x0, symBinAddr: 0x785A0, symSize: 0x3F0 }
  - { offsetInCU: 0x1B7D, offset: 0x2DC344, size: 0x8, addend: 0x0, symName: '__ZN4core3ptr100drop_in_place$LT$core..option..Option$LT$alloc..boxed..Box$LT$syn..path..GenericArgument$GT$$GT$$GT$17h807a36ffbab107a4E', symObjAddr: 0x2440, symBinAddr: 0x7A9E0, symSize: 0x50 }
  - { offsetInCU: 0x1F1B, offset: 0x2DC6E2, size: 0x8, addend: 0x0, symName: '__ZN4core3ptr100drop_in_place$LT$syn..punctuated..Punctuated$LT$syn..path..PathSegment$C$syn..token..PathSep$GT$$GT$17hcb9c7ae6720123ceE', symObjAddr: 0x2490, symBinAddr: 0x7AA30, symSize: 0x270 }
  - { offsetInCU: 0x28BE, offset: 0x2DD085, size: 0x8, addend: 0x0, symName: '__ZN4core3ptr103drop_in_place$LT$core..option..Option$LT$alloc..boxed..Box$LT$syn..generics..TypeParamBound$GT$$GT$$GT$17h0017d361ebb9471fE', symObjAddr: 0x2700, symBinAddr: 0x7ACA0, symSize: 0x50 }
  - { offsetInCU: 0x2A4D, offset: 0x2DD214, size: 0x8, addend: 0x0, symName: '__ZN4core3ptr103drop_in_place$LT$core..option..Option$LT$alloc..boxed..Box$LT$syn..generics..WherePredicate$GT$$GT$$GT$17he4ee84860b39964eE', symObjAddr: 0x2750, symBinAddr: 0x7ACF0, symSize: 0x50 }
  - { offsetInCU: 0x2C4B, offset: 0x2DD412, size: 0x8, addend: 0x0, symName: '__ZN4core3ptr103drop_in_place$LT$syn..punctuated..Punctuated$LT$syn..generics..GenericParam$C$syn..token..Comma$GT$$GT$17hf5a644fae414a53cE', symObjAddr: 0x27A0, symBinAddr: 0x7AD40, symSize: 0xF0 }
  - { offsetInCU: 0x3146, offset: 0x2DD90D, size: 0x8, addend: 0x0, symName: '__ZN4core3ptr104drop_in_place$LT$syn..punctuated..Punctuated$LT$syn..generics..TypeParamBound$C$syn..token..Plus$GT$$GT$17ha86a9d1599e32cffE', symObjAddr: 0x2890, symBinAddr: 0x7AE30, symSize: 0x190 }
  - { offsetInCU: 0x37E5, offset: 0x2DDFAC, size: 0x8, addend: 0x0, symName: '__ZN4core3ptr34drop_in_place$LT$syn..lit..Lit$GT$17h7e230476d36822bfE', symObjAddr: 0x2A20, symBinAddr: 0x7AFC0, symSize: 0x120 }
  - { offsetInCU: 0x3CB4, offset: 0x2DE47B, size: 0x8, addend: 0x0, symName: '__ZN4core3ptr34drop_in_place$LT$syn..pat..Pat$GT$17h5b0a97e980f53e46E', symObjAddr: 0x2B40, symBinAddr: 0x7B0E0, symSize: 0xEE0 }
  - { offsetInCU: 0x74DA, offset: 0x2E1CA1, size: 0x8, addend: 0x0, symName: '__ZN4core3ptr34drop_in_place$LT$syn..ty..Type$GT$17h19f850f61918f31fE', symObjAddr: 0x3A20, symBinAddr: 0x7BFC0, symSize: 0x4F0 }
  - { offsetInCU: 0x8A1D, offset: 0x2E31E4, size: 0x8, addend: 0x0, symName: '__ZN4core3ptr36drop_in_place$LT$syn..expr..Expr$GT$17h98f7f68f0a06dff7E', symObjAddr: 0x3F10, symBinAddr: 0x7C4B0, symSize: 0x2680 }
  - { offsetInCU: 0x11C37, offset: 0x2EC3FE, size: 0x8, addend: 0x0, symName: '__ZN4core3ptr36drop_in_place$LT$syn..mac..Macro$GT$17hdf5bac46d7f74bccE', symObjAddr: 0x6590, symBinAddr: 0x7EB30, symSize: 0x40 }
  - { offsetInCU: 0x11C71, offset: 0x2EC438, size: 0x8, addend: 0x0, symName: '__ZN4core3ptr36drop_in_place$LT$syn..path..Path$GT$17hb2feba4d905af1b2E', symObjAddr: 0x65D0, symBinAddr: 0x7EB70, symSize: 0x240 }
  - { offsetInCU: 0x1260B, offset: 0x2ECDD2, size: 0x8, addend: 0x0, symName: '__ZN4core3ptr37drop_in_place$LT$syn..path..QSelf$GT$17h2ad306e037f599caE', symObjAddr: 0x6810, symBinAddr: 0x7EDB0, symSize: 0x50 }
  - { offsetInCU: 0x12783, offset: 0x2ECF4A, size: 0x8, addend: 0x0, symName: '__ZN4core3ptr37drop_in_place$LT$syn..stmt..Block$GT$17h9594e7bdfd216ee2E', symObjAddr: 0x6860, symBinAddr: 0x7EE00, symSize: 0xD0 }
  - { offsetInCU: 0x12AF5, offset: 0x2ED2BC, size: 0x8, addend: 0x0, symName: '__ZN4core3ptr38drop_in_place$LT$syn..data..Fields$GT$17h94a42cb3cde271eeE', symObjAddr: 0x6930, symBinAddr: 0x7EED0, symSize: 0x190 }
  - { offsetInCU: 0x12FF9, offset: 0x2ED7C0, size: 0x8, addend: 0x0, symName: '__ZN4core3ptr38drop_in_place$LT$syn..derive..Data$GT$17ha7c2d2584ce21ed6E', symObjAddr: 0x6AC0, symBinAddr: 0x7F060, symSize: 0x1D0 }
  - { offsetInCU: 0x1369F, offset: 0x2EDE66, size: 0x8, addend: 0x0, symName: '__ZN4core3ptr38drop_in_place$LT$syn..expr..Member$GT$17hd3bc25e187f7fae3E', symObjAddr: 0x6C90, symBinAddr: 0x7F230, symSize: 0x30 }
  - { offsetInCU: 0x1379B, offset: 0x2EDF62, size: 0x8, addend: 0x0, symName: '__ZN4core3ptr39drop_in_place$LT$proc_macro2..Ident$GT$17hb5fbe0c131bfa218E', symObjAddr: 0x6CC0, symBinAddr: 0x7F260, symSize: 0x30 }
  - { offsetInCU: 0x139AE, offset: 0x2EE175, size: 0x8, addend: 0x0, symName: '__ZN4core3ptr39drop_in_place$LT$syn..buffer..Entry$GT$17h0b9baa6bbaf945c7E', symObjAddr: 0x6CF0, symBinAddr: 0x7F290, symSize: 0xB0 }
  - { offsetInCU: 0x13D39, offset: 0x2EE500, size: 0x8, addend: 0x0, symName: '__ZN4core3ptr40drop_in_place$LT$syn..expr..ExprPath$GT$17hac51ab24dfe997baE', symObjAddr: 0x6DA0, symBinAddr: 0x7F340, symSize: 0x120 }
  - { offsetInCU: 0x14265, offset: 0x2EEA2C, size: 0x8, addend: 0x0, symName: '__ZN4core3ptr40drop_in_place$LT$syn..item..ItemEnum$GT$17hc51cef1779d36fc2E', symObjAddr: 0x6EC0, symBinAddr: 0x7F460, symSize: 0x240 }
  - { offsetInCU: 0x14AAB, offset: 0x2EF272, size: 0x8, addend: 0x0, symName: '__ZN4core3ptr40drop_in_place$LT$syn..ty..ReturnType$GT$17h2041b3e02720652aE', symObjAddr: 0x7100, symBinAddr: 0x7F6A0, symSize: 0x50 }
  - { offsetInCU: 0x14C1B, offset: 0x2EF3E2, size: 0x8, addend: 0x0, symName: '__ZN4core3ptr41drop_in_place$LT$syn..expr..ExprConst$GT$17h546d2eac1f274d91E', symObjAddr: 0x7150, symBinAddr: 0x7F6F0, symSize: 0x180 }
  - { offsetInCU: 0x151D4, offset: 0x2EF99B, size: 0x8, addend: 0x0, symName: '__ZN4core3ptr41drop_in_place$LT$syn..item..ItemUnion$GT$17h4235a1fd7b84ab2dE', symObjAddr: 0x72D0, symBinAddr: 0x7F870, symSize: 0x250 }
  - { offsetInCU: 0x15A35, offset: 0x2F01FC, size: 0x8, addend: 0x0, symName: '__ZN4core3ptr42drop_in_place$LT$syn..item..ItemStruct$GT$17h3ea4702e48db4792E', symObjAddr: 0x7520, symBinAddr: 0x7FAC0, symSize: 0x190 }
  - { offsetInCU: 0x15F79, offset: 0x2F0740, size: 0x8, addend: 0x0, symName: '__ZN4core3ptr43drop_in_place$LT$syn..data..FieldsNamed$GT$17h3a62e728a0de492fE', symObjAddr: 0x76B0, symBinAddr: 0x7FC50, symSize: 0xE0 }
  - { offsetInCU: 0x1629F, offset: 0x2F0A66, size: 0x8, addend: 0x0, symName: '__ZN4core3ptr44drop_in_place$LT$syn..generics..Generics$GT$17h6cc36a2c79e64375E', symObjAddr: 0x7790, symBinAddr: 0x7FD30, symSize: 0x40 }
  - { offsetInCU: 0x162BC, offset: 0x2F0A83, size: 0x8, addend: 0x0, symName: '__ZN4core3ptr44drop_in_place$LT$syn..lifetime..Lifetime$GT$17h8afd172b97690efdE', symObjAddr: 0x77D0, symBinAddr: 0x7FD70, symSize: 0x30 }
  - { offsetInCU: 0x163B8, offset: 0x2F0B7F, size: 0x8, addend: 0x0, symName: '__ZN4core3ptr44drop_in_place$LT$syn..parse..ParseBuffer$GT$17h09013ce2f932da57E', symObjAddr: 0x7800, symBinAddr: 0x7FDA0, symSize: 0x70 }
  - { offsetInCU: 0x16734, offset: 0x2F0EFB, size: 0x8, addend: 0x0, symName: '__ZN4core3ptr45drop_in_place$LT$proc_macro2..TokenStream$GT$17h207b9d10b43ca09fE', symObjAddr: 0x7870, symBinAddr: 0x7FE10, symSize: 0x140 }
  - { offsetInCU: 0x16B90, offset: 0x2F1357, size: 0x8, addend: 0x0, symName: '__ZN4core3ptr45drop_in_place$LT$syn..buffer..TokenBuffer$GT$17ha41c7bdecc45d618E', symObjAddr: 0x79B0, symBinAddr: 0x7FF50, symSize: 0xC0 }
  - { offsetInCU: 0x16DBA, offset: 0x2F1581, size: 0x8, addend: 0x0, symName: '__ZN4core3ptr45drop_in_place$LT$syn..derive..DeriveInput$GT$17hd3395813efa9185aE', symObjAddr: 0x7A70, symBinAddr: 0x80010, symSize: 0x190 }
  - { offsetInCU: 0x17341, offset: 0x2F1B08, size: 0x8, addend: 0x0, symName: '__ZN4core3ptr45drop_in_place$LT$syn..generics..TypeParam$GT$17h6c3c07424bcf6a4eE', symObjAddr: 0x7C00, symBinAddr: 0x801A0, symSize: 0x230 }
  - { offsetInCU: 0x17B82, offset: 0x2F2349, size: 0x8, addend: 0x0, symName: '__ZN4core3ptr46drop_in_place$LT$syn..generics..ConstParam$GT$17hd0de4a5923445da7E', symObjAddr: 0x7E30, symBinAddr: 0x803D0, symSize: 0x150 }
  - { offsetInCU: 0x17FCF, offset: 0x2F2796, size: 0x8, addend: 0x0, symName: '__ZN4core3ptr47drop_in_place$LT$syn..path..GenericArgument$GT$17hf4dd383aa34a4f0fE', symObjAddr: 0x7F80, symBinAddr: 0x80520, symSize: 0x4A0 }
  - { offsetInCU: 0x190D5, offset: 0x2F389C, size: 0x8, addend: 0x0, symName: '__ZN4core3ptr49drop_in_place$LT$syn..generics..LifetimeParam$GT$17hd0b2e7526885b204E', symObjAddr: 0x8420, symBinAddr: 0x809C0, symSize: 0xF0 }
  - { offsetInCU: 0x194B8, offset: 0x2F3C7F, size: 0x8, addend: 0x0, symName: '__ZN4core3ptr49drop_in_place$LT$syn..restriction..Visibility$GT$17h1d2333c931110048E', symObjAddr: 0x8510, symBinAddr: 0x80AB0, symSize: 0x60 }
  - { offsetInCU: 0x19629, offset: 0x2F3DF0, size: 0x8, addend: 0x0, symName: '__ZN4core3ptr50drop_in_place$LT$syn..generics..TypeParamBound$GT$17hdc238d3175f8eb5aE', symObjAddr: 0x8570, symBinAddr: 0x80B10, symSize: 0x180 }
  - { offsetInCU: 0x19AB1, offset: 0x2F4278, size: 0x8, addend: 0x0, symName: '__ZN4core3ptr50drop_in_place$LT$syn..generics..WherePredicate$GT$17h36871859cc3339e6E', symObjAddr: 0x86F0, symBinAddr: 0x80C90, symSize: 0xA0 }
  - { offsetInCU: 0x19C55, offset: 0x2F441C, size: 0x8, addend: 0x0, symName: '__ZN4core3ptr58drop_in_place$LT$alloc..vec..Vec$LT$syn..expr..Arm$GT$$GT$17ha0ec4334cda5515cE', symObjAddr: 0x8790, symBinAddr: 0x80D30, symSize: 0xD0 }
  - { offsetInCU: 0x19F15, offset: 0x2F46DC, size: 0x8, addend: 0x0, symName: '__ZN4core3ptr59drop_in_place$LT$alloc..boxed..Box$LT$syn..pat..Pat$GT$$GT$17h67f20b4715509286E', symObjAddr: 0x8860, symBinAddr: 0x80E00, symSize: 0x50 }
  - { offsetInCU: 0x1A06E, offset: 0x2F4835, size: 0x8, addend: 0x0, symName: '__ZN4core3ptr59drop_in_place$LT$alloc..boxed..Box$LT$syn..ty..Type$GT$$GT$17hb9082e267b94188dE', symObjAddr: 0x88B0, symBinAddr: 0x80E50, symSize: 0x50 }
  - { offsetInCU: 0x1A1C7, offset: 0x2F498E, size: 0x8, addend: 0x0, symName: '__ZN4core3ptr61drop_in_place$LT$alloc..boxed..Box$LT$syn..expr..Expr$GT$$GT$17h01310d89a7a8aab3E', symObjAddr: 0x8900, symBinAddr: 0x80EA0, symSize: 0x50 }
  - { offsetInCU: 0x1A39C, offset: 0x2F4B63, size: 0x8, addend: 0x0, symName: '__ZN4core3ptr61drop_in_place$LT$syn..path..ParenthesizedGenericArguments$GT$17h7fee2959ae354450E', symObjAddr: 0x8950, symBinAddr: 0x80EF0, symSize: 0x170 }
  - { offsetInCU: 0x1A992, offset: 0x2F5159, size: 0x8, addend: 0x0, symName: '__ZN4core3ptr62drop_in_place$LT$syn..path..AngleBracketedGenericArguments$GT$17h79141db867cfe0cbE', symObjAddr: 0x8AC0, symBinAddr: 0x81060, symSize: 0x120 }
  - { offsetInCU: 0x1ADDD, offset: 0x2F55A4, size: 0x8, addend: 0x0, symName: '__ZN4core3ptr63drop_in_place$LT$alloc..boxed..Box$LT$syn..lit..LitRepr$GT$$GT$17hf23a84bed7f64f98E', symObjAddr: 0x8BE0, symBinAddr: 0x81180, symSize: 0x60 }
  - { offsetInCU: 0x1B0E4, offset: 0x2F58AB, size: 0x8, addend: 0x0, symName: '__ZN4core3ptr64drop_in_place$LT$alloc..boxed..Box$LT$syn..pat..FieldPat$GT$$GT$17ha5ec27d4d418dbdfE', symObjAddr: 0x8C40, symBinAddr: 0x811E0, symSize: 0x140 }
  - { offsetInCU: 0x1B7B1, offset: 0x2F5F78, size: 0x8, addend: 0x0, symName: '__ZN4core3ptr64drop_in_place$LT$alloc..boxed..Box$LT$syn..ty..BareFnArg$GT$$GT$17hb416cdff09d8949eE', symObjAddr: 0x8D80, symBinAddr: 0x81320, symSize: 0x140 }
  - { offsetInCU: 0x1BD06, offset: 0x2F64CD, size: 0x8, addend: 0x0, symName: '__ZN4core3ptr65drop_in_place$LT$alloc..vec..Vec$LT$proc_macro..TokenTree$GT$$GT$17h54365d0bdf61b883E', symObjAddr: 0x8EC0, symBinAddr: 0x81460, symSize: 0x110 }
  - { offsetInCU: 0x1C0FE, offset: 0x2F68C5, size: 0x8, addend: 0x0, symName: '__ZN4core3ptr65drop_in_place$LT$core..option..Option$LT$syn..expr..Label$GT$$GT$17h6cb338f3d3fef208E', symObjAddr: 0x8FD0, symBinAddr: 0x81570, symSize: 0x30 }
  - { offsetInCU: 0x1C238, offset: 0x2F69FF, size: 0x8, addend: 0x0, symName: '__ZN4core3ptr65drop_in_place$LT$core..option..Option$LT$syn..path..QSelf$GT$$GT$17h77b32165fa1277f0E', symObjAddr: 0x9000, symBinAddr: 0x815A0, symSize: 0x50 }
  - { offsetInCU: 0x1C3CF, offset: 0x2F6B96, size: 0x8, addend: 0x0, symName: '__ZN4core3ptr66drop_in_place$LT$core..option..Option$LT$syn..pat..PatRest$GT$$GT$17h7c9095b226142979E', symObjAddr: 0x9050, symBinAddr: 0x815F0, symSize: 0xE0 }
  - { offsetInCU: 0x1C6C3, offset: 0x2F6E8A, size: 0x8, addend: 0x0, symName: '__ZN4core3ptr67drop_in_place$LT$alloc..boxed..Box$LT$syn..expr..FieldValue$GT$$GT$17hb048d8ef1ec03e8dE', symObjAddr: 0x9130, symBinAddr: 0x816D0, symSize: 0x140 }
  - { offsetInCU: 0x1CBF8, offset: 0x2F73BF, size: 0x8, addend: 0x0, symName: '__ZN4core3ptr68drop_in_place$LT$alloc..boxed..Box$LT$syn..path..PathSegment$GT$$GT$17h582dcd8abb4b1a74E', symObjAddr: 0x9270, symBinAddr: 0x81810, symSize: 0x1B0 }
  - { offsetInCU: 0x1D306, offset: 0x2F7ACD, size: 0x8, addend: 0x0, symName: '__ZN4core3ptr70drop_in_place$LT$core..option..Option$LT$syn..ty..BareVariadic$GT$$GT$17hf6d2a770387443a3E', symObjAddr: 0x9420, symBinAddr: 0x819C0, symSize: 0x100 }
  - { offsetInCU: 0x1D73D, offset: 0x2F7F04, size: 0x8, addend: 0x0, symName: '__ZN4core3ptr72drop_in_place$LT$alloc..boxed..Box$LT$syn..path..GenericArgument$GT$$GT$17hcc60f7ab467d198fE', symObjAddr: 0x9520, symBinAddr: 0x81AC0, symSize: 0x1D0 }
  - { offsetInCU: 0x1DCD8, offset: 0x2F849F, size: 0x8, addend: 0x0, symName: '__ZN4core3ptr72drop_in_place$LT$core..option..Option$LT$syn..lifetime..Lifetime$GT$$GT$17h70ad3b488ebe3596E', symObjAddr: 0x96F0, symBinAddr: 0x81C90, symSize: 0x30 }
  - { offsetInCU: 0x1DDF3, offset: 0x2F85BA, size: 0x8, addend: 0x0, symName: '__ZN4core3ptr73drop_in_place$LT$alloc..boxed..Box$LT$syn..generics..GenericParam$GT$$GT$17hd8823d2eb1a41dfaE', symObjAddr: 0x9720, symBinAddr: 0x81CC0, symSize: 0x80 }
  - { offsetInCU: 0x1DF69, offset: 0x2F8730, size: 0x8, addend: 0x0, symName: '__ZN4core3ptr75drop_in_place$LT$alloc..boxed..Box$LT$syn..generics..TypeParamBound$GT$$GT$17hc0dbc3e6560133a8E', symObjAddr: 0x97A0, symBinAddr: 0x81D40, symSize: 0xC0 }
  - { offsetInCU: 0x1E2FB, offset: 0x2F8AC2, size: 0x8, addend: 0x0, symName: '__ZN4core3ptr75drop_in_place$LT$core..option..Option$LT$syn..generics..WhereClause$GT$$GT$17h2c16f6dc41ab983cE', symObjAddr: 0x9860, symBinAddr: 0x81E00, symSize: 0x130 }
  - { offsetInCU: 0x1E7FA, offset: 0x2F8FC1, size: 0x8, addend: 0x0, symName: '__ZN4core3ptr86drop_in_place$LT$syn..punctuated..Punctuated$LT$syn..pat..Pat$C$syn..token..Or$GT$$GT$17hb407e891b009195eE', symObjAddr: 0x9990, symBinAddr: 0x81F30, symSize: 0x120 }
  - { offsetInCU: 0x1EC75, offset: 0x2F943C, size: 0x8, addend: 0x0, symName: '__ZN4core3ptr87drop_in_place$LT$core..option..Option$LT$alloc..boxed..Box$LT$syn..pat..Pat$GT$$GT$$GT$17h27575db68a752b00E', symObjAddr: 0x9AB0, symBinAddr: 0x82050, symSize: 0x50 }
  - { offsetInCU: 0x1EDE5, offset: 0x2F95AC, size: 0x8, addend: 0x0, symName: '__ZN4core3ptr87drop_in_place$LT$core..option..Option$LT$alloc..boxed..Box$LT$syn..ty..Type$GT$$GT$$GT$17h2cce7e91b6f26339E', symObjAddr: 0x9B00, symBinAddr: 0x820A0, symSize: 0x50 }
  - { offsetInCU: 0x1EF55, offset: 0x2F971C, size: 0x8, addend: 0x0, symName: '__ZN4core3ptr89drop_in_place$LT$core..option..Option$LT$alloc..boxed..Box$LT$syn..expr..Expr$GT$$GT$$GT$17h4805299351d776eaE', symObjAddr: 0x9B50, symBinAddr: 0x820F0, symSize: 0x50 }
  - { offsetInCU: 0x1F103, offset: 0x2F98CA, size: 0x8, addend: 0x0, symName: '__ZN4core3ptr89drop_in_place$LT$syn..punctuated..Punctuated$LT$syn..pat..Pat$C$syn..token..Comma$GT$$GT$17hbfa21962153cb723E', symObjAddr: 0x9BA0, symBinAddr: 0x82140, symSize: 0x120 }
  - { offsetInCU: 0x1F595, offset: 0x2F9D5C, size: 0x8, addend: 0x0, symName: '__ZN4core3ptr89drop_in_place$LT$syn..punctuated..Punctuated$LT$syn..ty..Type$C$syn..token..Comma$GT$$GT$17h487f88da4f994ccfE', symObjAddr: 0x9CC0, symBinAddr: 0x82260, symSize: 0x120 }
  - { offsetInCU: 0x1FA6D, offset: 0x2FA234, size: 0x8, addend: 0x0, symName: '__ZN4core3ptr90drop_in_place$LT$core..option..Option$LT$alloc..boxed..Box$LT$syn..data..Field$GT$$GT$$GT$17hf222b09314c1288bE', symObjAddr: 0x9DE0, symBinAddr: 0x82380, symSize: 0x1B0 }
  - { offsetInCU: 0x2010C, offset: 0x2FA8D3, size: 0x8, addend: 0x0, symName: '__ZN4core3ptr90drop_in_place$LT$core..option..Option$LT$syn..path..AngleBracketedGenericArguments$GT$$GT$17h44b2ad11f3f45684E', symObjAddr: 0x9F90, symBinAddr: 0x82530, symSize: 0x130 }
  - { offsetInCU: 0x205AE, offset: 0x2FAD75, size: 0x8, addend: 0x0, symName: '__ZN4core3ptr91drop_in_place$LT$syn..punctuated..Punctuated$LT$syn..expr..Expr$C$syn..token..Comma$GT$$GT$17hd2c79695be72d75eE', symObjAddr: 0xA0C0, symBinAddr: 0x82660, symSize: 0x120 }
  - { offsetInCU: 0x20AB8, offset: 0x2FB27F, size: 0x8, addend: 0x0, symName: '__ZN4core3ptr92drop_in_place$LT$core..option..Option$LT$alloc..boxed..Box$LT$syn..data..Variant$GT$$GT$$GT$17he76d2e647315dc3fE', symObjAddr: 0xA1E0, symBinAddr: 0x82780, symSize: 0x170 }
  - { offsetInCU: 0x21053, offset: 0x2FB81A, size: 0x8, addend: 0x0, symName: '__ZN4core3ptr94drop_in_place$LT$syn..punctuated..Punctuated$LT$syn..data..Variant$C$syn..token..Comma$GT$$GT$17h737b847700047fecE', symObjAddr: 0xA350, symBinAddr: 0x828F0, symSize: 0xE0 }
  - { offsetInCU: 0x21356, offset: 0x2FBB1D, size: 0x8, addend: 0x0, symName: '__ZN4core3ptr94drop_in_place$LT$syn..punctuated..Punctuated$LT$syn..pat..FieldPat$C$syn..token..Comma$GT$$GT$17hb2b4aed8f633cba0E', symObjAddr: 0xA430, symBinAddr: 0x829D0, symSize: 0xF0 }
  - { offsetInCU: 0x21655, offset: 0x2FBE1C, size: 0x8, addend: 0x0, symName: '__ZN4core3ptr94drop_in_place$LT$syn..punctuated..Punctuated$LT$syn..ty..BareFnArg$C$syn..token..Comma$GT$$GT$17h59c18cbb4f726140E', symObjAddr: 0xA520, symBinAddr: 0x82AC0, symSize: 0xF0 }
  - { offsetInCU: 0x21956, offset: 0x2FC11D, size: 0x8, addend: 0x0, symName: '__ZN4core3ptr96drop_in_place$LT$core..option..Option$LT$alloc..boxed..Box$LT$syn..path..PathSegment$GT$$GT$$GT$17hd67a31bad3bc4ef4E', symObjAddr: 0xA610, symBinAddr: 0x82BB0, symSize: 0xA0 }
  - { offsetInCU: 0x21BD5, offset: 0x2FC39C, size: 0x8, addend: 0x0, symName: '__ZN4core3ptr97drop_in_place$LT$syn..punctuated..Punctuated$LT$syn..expr..FieldValue$C$syn..token..Comma$GT$$GT$17h2644f25adad08ccbE', symObjAddr: 0xA6B0, symBinAddr: 0x82C50, symSize: 0xF0 }
  - { offsetInCU: 0x21ED2, offset: 0x2FC699, size: 0x8, addend: 0x0, symName: '__ZN4core3ptr98drop_in_place$LT$alloc..vec..Vec$LT$$LP$syn..path..GenericArgument$C$syn..token..Comma$RP$$GT$$GT$17h050ecd3ba4b8a9c3E', symObjAddr: 0xA7A0, symBinAddr: 0x82D40, symSize: 0xD0 }
  - { offsetInCU: 0x22212, offset: 0x2FC9D9, size: 0x8, addend: 0x0, symName: '__ZN4core3ptr98drop_in_place$LT$syn..punctuated..Punctuated$LT$syn..lifetime..Lifetime$C$syn..token..Plus$GT$$GT$17hfbe9a104e4a4f23fE', symObjAddr: 0xA870, symBinAddr: 0x82E10, symSize: 0xC6 }
  - { offsetInCU: 0x26078, offset: 0x30083F, size: 0x8, addend: 0x0, symName: '__ZN40_$LT$F$u20$as$u20$syn..parse..Parser$GT$14__parse_scoped17h01727d3599ea8a21E', symObjAddr: 0x0, symBinAddr: 0x785A0, symSize: 0x3F0 }
  - { offsetInCU: 0x26AE9, offset: 0x3012B0, size: 0x8, addend: 0x0, symName: '__ZN40_$LT$F$u20$as$u20$syn..parse..Parser$GT$14__parse_scoped17h2f3cb7af03009015E', symObjAddr: 0x3F0, symBinAddr: 0x78990, symSize: 0x420 }
  - { offsetInCU: 0x27562, offset: 0x301D29, size: 0x8, addend: 0x0, symName: '__ZN40_$LT$F$u20$as$u20$syn..parse..Parser$GT$6parse217h161db1a9ede2abfaE', symObjAddr: 0x810, symBinAddr: 0x78DB0, symSize: 0x380 }
  - { offsetInCU: 0x27D9D, offset: 0x302564, size: 0x8, addend: 0x0, symName: '__ZN40_$LT$F$u20$as$u20$syn..parse..Parser$GT$6parse217h1842ce09aad910c8E', symObjAddr: 0xB90, symBinAddr: 0x79130, symSize: 0x3B0 }
  - { offsetInCU: 0x285E0, offset: 0x302DA7, size: 0x8, addend: 0x0, symName: '__ZN40_$LT$F$u20$as$u20$syn..parse..Parser$GT$6parse217h3f17fc255c557f71E', symObjAddr: 0xF40, symBinAddr: 0x794E0, symSize: 0x380 }
  - { offsetInCU: 0x28E1B, offset: 0x3035E2, size: 0x8, addend: 0x0, symName: '__ZN40_$LT$F$u20$as$u20$syn..parse..Parser$GT$6parse217h43c90a46afa6eaf2E', symObjAddr: 0x12C0, symBinAddr: 0x79860, symSize: 0x380 }
  - { offsetInCU: 0x29656, offset: 0x303E1D, size: 0x8, addend: 0x0, symName: '__ZN40_$LT$F$u20$as$u20$syn..parse..Parser$GT$6parse217h71ac4ae6488d9e06E', symObjAddr: 0x1640, symBinAddr: 0x79BE0, symSize: 0x380 }
  - { offsetInCU: 0x29E91, offset: 0x304658, size: 0x8, addend: 0x0, symName: '__ZN40_$LT$F$u20$as$u20$syn..parse..Parser$GT$6parse217hbb84e024b1b1ef2dE', symObjAddr: 0x19C0, symBinAddr: 0x79F60, symSize: 0x380 }
  - { offsetInCU: 0x2A6CC, offset: 0x304E93, size: 0x8, addend: 0x0, symName: '__ZN40_$LT$F$u20$as$u20$syn..parse..Parser$GT$6parse217hc786a28e47f3480aE', symObjAddr: 0x1D40, symBinAddr: 0x7A2E0, symSize: 0x380 }
  - { offsetInCU: 0x2AF07, offset: 0x3056CE, size: 0x8, addend: 0x0, symName: '__ZN40_$LT$F$u20$as$u20$syn..parse..Parser$GT$6parse217hf26a26d0bb249846E', symObjAddr: 0x20C0, symBinAddr: 0x7A660, symSize: 0x380 }
  - { offsetInCU: 0x8ADE, offset: 0x3192D1, size: 0x8, addend: 0x0, symName: '__ZN4core3ptr100drop_in_place$LT$core..option..Option$LT$alloc..boxed..Box$LT$syn..path..GenericArgument$GT$$GT$$GT$17h807a36ffbab107a4E', symObjAddr: 0x130, symBinAddr: 0x82EE0, symSize: 0x50 }
  - { offsetInCU: 0x8C8C, offset: 0x31947F, size: 0x8, addend: 0x0, symName: '__ZN4core3ptr101drop_in_place$LT$core..option..Option$LT$alloc..vec..Vec$LT$syn..generics..WherePredicate$GT$$GT$$GT$17h9b97eb8149fa9b49E', symObjAddr: 0x180, symBinAddr: 0x82F30, symSize: 0xD0 }
  - { offsetInCU: 0x8FA7, offset: 0x31979A, size: 0x8, addend: 0x0, symName: '__ZN4core3ptr102drop_in_place$LT$syn..punctuated..Punctuated$LT$syn..path..GenericArgument$C$syn..token..Comma$GT$$GT$17h87ac6172553c146eE', symObjAddr: 0x250, symBinAddr: 0x83000, symSize: 0xF0 }
  - { offsetInCU: 0x92C7, offset: 0x319ABA, size: 0x8, addend: 0x0, symName: '__ZN4core3ptr103drop_in_place$LT$core..option..Option$LT$alloc..boxed..Box$LT$syn..generics..TypeParamBound$GT$$GT$$GT$17h0017d361ebb9471fE', symObjAddr: 0x340, symBinAddr: 0x830F0, symSize: 0x50 }
  - { offsetInCU: 0x958C, offset: 0x319D7F, size: 0x8, addend: 0x0, symName: '__ZN4core3ptr103drop_in_place$LT$core..option..Option$LT$alloc..boxed..Box$LT$syn..generics..WherePredicate$GT$$GT$$GT$17he4ee84860b39964eE', symObjAddr: 0x390, symBinAddr: 0x83140, symSize: 0xD0 }
  - { offsetInCU: 0x9920, offset: 0x31A113, size: 0x8, addend: 0x0, symName: '__ZN4core3ptr103drop_in_place$LT$syn..punctuated..Punctuated$LT$syn..generics..GenericParam$C$syn..token..Comma$GT$$GT$17hf5a644fae414a53cE', symObjAddr: 0x460, symBinAddr: 0x83210, symSize: 0xF0 }
  - { offsetInCU: 0x9E1B, offset: 0x31A60E, size: 0x8, addend: 0x0, symName: '__ZN4core3ptr104drop_in_place$LT$syn..punctuated..Punctuated$LT$syn..generics..TypeParamBound$C$syn..token..Plus$GT$$GT$17ha86a9d1599e32cffE', symObjAddr: 0x550, symBinAddr: 0x83300, symSize: 0x240 }
  - { offsetInCU: 0xA6D6, offset: 0x31AEC9, size: 0x8, addend: 0x0, symName: '__ZN4core3ptr107drop_in_place$LT$core..option..Option$LT$borsh_derive..internals..attributes..field..bounds..Bounds$GT$$GT$17h6c6d4413576fc644E', symObjAddr: 0x790, symBinAddr: 0x83540, symSize: 0x1A0 }
  - { offsetInCU: 0xACB1, offset: 0x31B4A4, size: 0x8, addend: 0x0, symName: '__ZN4core3ptr122drop_in_place$LT$core..option..Option$LT$borsh_derive..internals..attributes..field..schema..with_funcs..WithFuncs$GT$$GT$17he02ffe9b3554ccf8E', symObjAddr: 0x930, symBinAddr: 0x836E0, symSize: 0x50 }
  - { offsetInCU: 0xADA7, offset: 0x31B59A, size: 0x8, addend: 0x0, symName: '__ZN4core3ptr34drop_in_place$LT$syn..lit..Lit$GT$17h7e230476d36822bfE', symObjAddr: 0x980, symBinAddr: 0x83730, symSize: 0x120 }
  - { offsetInCU: 0xB295, offset: 0x31BA88, size: 0x8, addend: 0x0, symName: '__ZN4core3ptr34drop_in_place$LT$syn..pat..Pat$GT$17h5b0a97e980f53e46E', symObjAddr: 0xAA0, symBinAddr: 0x83850, symSize: 0xF40 }
  - { offsetInCU: 0xED5B, offset: 0x31F54E, size: 0x8, addend: 0x0, symName: '__ZN4core3ptr34drop_in_place$LT$syn..ty..Type$GT$17h19f850f61918f31fE', symObjAddr: 0x19E0, symBinAddr: 0x84790, symSize: 0x580 }
  - { offsetInCU: 0x105E4, offset: 0x320DD7, size: 0x8, addend: 0x0, symName: '__ZN4core3ptr36drop_in_place$LT$syn..expr..Expr$GT$17h98f7f68f0a06dff7E', symObjAddr: 0x1F60, symBinAddr: 0x84D10, symSize: 0x2730 }
  - { offsetInCU: 0x19A44, offset: 0x32A237, size: 0x8, addend: 0x0, symName: '__ZN4core3ptr36drop_in_place$LT$syn..mac..Macro$GT$17hdf5bac46d7f74bccE', symObjAddr: 0x4690, symBinAddr: 0x87440, symSize: 0xE0 }
  - { offsetInCU: 0x19DCE, offset: 0x32A5C1, size: 0x8, addend: 0x0, symName: '__ZN4core3ptr36drop_in_place$LT$syn..path..Path$GT$17hb2feba4d905af1b2E', symObjAddr: 0x4770, symBinAddr: 0x87520, symSize: 0x240 }
  - { offsetInCU: 0x1A768, offset: 0x32AF5B, size: 0x8, addend: 0x0, symName: '__ZN4core3ptr37drop_in_place$LT$syn..stmt..Block$GT$17h9594e7bdfd216ee2E', symObjAddr: 0x49B0, symBinAddr: 0x87760, symSize: 0xD0 }
  - { offsetInCU: 0x1AA7D, offset: 0x32B270, size: 0x8, addend: 0x0, symName: '__ZN4core3ptr38drop_in_place$LT$syn..error..Error$GT$17h629ad0985f92efc9E', symObjAddr: 0x4A80, symBinAddr: 0x87830, symSize: 0x90 }
  - { offsetInCU: 0x1AD3F, offset: 0x32B532, size: 0x8, addend: 0x0, symName: '__ZN4core3ptr38drop_in_place$LT$syn..expr..Member$GT$17hd3bc25e187f7fae3E', symObjAddr: 0x4B10, symBinAddr: 0x878C0, symSize: 0x30 }
  - { offsetInCU: 0x1AE3B, offset: 0x32B62E, size: 0x8, addend: 0x0, symName: '__ZN4core3ptr39drop_in_place$LT$proc_macro2..Ident$GT$17hb5fbe0c131bfa218E', symObjAddr: 0x4B40, symBinAddr: 0x878F0, symSize: 0x30 }
  - { offsetInCU: 0x1AF18, offset: 0x32B70B, size: 0x8, addend: 0x0, symName: '__ZN4core3ptr40drop_in_place$LT$syn..ty..ReturnType$GT$17h2041b3e02720652aE', symObjAddr: 0x4B70, symBinAddr: 0x87920, symSize: 0x50 }
  - { offsetInCU: 0x1B088, offset: 0x32B87B, size: 0x8, addend: 0x0, symName: '__ZN4core3ptr41drop_in_place$LT$syn..expr..ExprConst$GT$17h546d2eac1f274d91E', symObjAddr: 0x4BC0, symBinAddr: 0x87970, symSize: 0x180 }
  - { offsetInCU: 0x1B641, offset: 0x32BE34, size: 0x8, addend: 0x0, symName: '__ZN4core3ptr44drop_in_place$LT$syn..lifetime..Lifetime$GT$17h8afd172b97690efdE', symObjAddr: 0x4D40, symBinAddr: 0x87AF0, symSize: 0x30 }
  - { offsetInCU: 0x1B873, offset: 0x32C066, size: 0x8, addend: 0x0, symName: '__ZN4core3ptr45drop_in_place$LT$proc_macro2..TokenStream$GT$17h207b9d10b43ca09fE', symObjAddr: 0x4D70, symBinAddr: 0x87B20, symSize: 0x140 }
  - { offsetInCU: 0x1BD0D, offset: 0x32C500, size: 0x8, addend: 0x0, symName: '__ZN4core3ptr45drop_in_place$LT$syn..generics..TypeParam$GT$17h6c3c07424bcf6a4eE', symObjAddr: 0x4EB0, symBinAddr: 0x87C60, symSize: 0x230 }
  - { offsetInCU: 0x1C54E, offset: 0x32CD41, size: 0x8, addend: 0x0, symName: '__ZN4core3ptr46drop_in_place$LT$syn..generics..ConstParam$GT$17hd0de4a5923445da7E', symObjAddr: 0x50E0, symBinAddr: 0x87E90, symSize: 0x150 }
  - { offsetInCU: 0x1C99B, offset: 0x32D18E, size: 0x8, addend: 0x0, symName: '__ZN4core3ptr47drop_in_place$LT$syn..generics..WhereClause$GT$17h886e9dcae0082af0E', symObjAddr: 0x5230, symBinAddr: 0x87FE0, symSize: 0xE0 }
  - { offsetInCU: 0x1CD1E, offset: 0x32D511, size: 0x8, addend: 0x0, symName: '__ZN4core3ptr47drop_in_place$LT$syn..path..GenericArgument$GT$17hf4dd383aa34a4f0fE', symObjAddr: 0x5310, symBinAddr: 0x880C0, symSize: 0x450 }
  - { offsetInCU: 0x1DA94, offset: 0x32E287, size: 0x8, addend: 0x0, symName: '__ZN4core3ptr49drop_in_place$LT$syn..generics..LifetimeParam$GT$17hd0b2e7526885b204E', symObjAddr: 0x5760, symBinAddr: 0x88510, symSize: 0xF0 }
  - { offsetInCU: 0x1DE77, offset: 0x32E66A, size: 0x8, addend: 0x0, symName: '__ZN4core3ptr50drop_in_place$LT$syn..generics..TypeParamBound$GT$17hdc238d3175f8eb5aE', symObjAddr: 0x5850, symBinAddr: 0x88600, symSize: 0xA0 }
  - { offsetInCU: 0x1DFDD, offset: 0x32E7D0, size: 0x8, addend: 0x0, symName: '__ZN4core3ptr58drop_in_place$LT$alloc..vec..Vec$LT$syn..expr..Arm$GT$$GT$17ha0ec4334cda5515cE', symObjAddr: 0x58F0, symBinAddr: 0x886A0, symSize: 0xD0 }
  - { offsetInCU: 0x1E29D, offset: 0x32EA90, size: 0x8, addend: 0x0, symName: '__ZN4core3ptr59drop_in_place$LT$alloc..boxed..Box$LT$syn..pat..Pat$GT$$GT$17h67f20b4715509286E', symObjAddr: 0x59C0, symBinAddr: 0x88770, symSize: 0x50 }
  - { offsetInCU: 0x1E3F6, offset: 0x32EBE9, size: 0x8, addend: 0x0, symName: '__ZN4core3ptr59drop_in_place$LT$alloc..boxed..Box$LT$syn..ty..Type$GT$$GT$17hb9082e267b94188dE', symObjAddr: 0x5A10, symBinAddr: 0x887C0, symSize: 0x50 }
  - { offsetInCU: 0x1E54F, offset: 0x32ED42, size: 0x8, addend: 0x0, symName: '__ZN4core3ptr61drop_in_place$LT$alloc..boxed..Box$LT$syn..expr..Expr$GT$$GT$17h01310d89a7a8aab3E', symObjAddr: 0x5A60, symBinAddr: 0x88810, symSize: 0x50 }
  - { offsetInCU: 0x1E6A8, offset: 0x32EE9B, size: 0x8, addend: 0x0, symName: '__ZN4core3ptr61drop_in_place$LT$syn..path..ParenthesizedGenericArguments$GT$17h7fee2959ae354450E', symObjAddr: 0x5AB0, symBinAddr: 0x88860, symSize: 0x170 }
  - { offsetInCU: 0x1ECD0, offset: 0x32F4C3, size: 0x8, addend: 0x0, symName: '__ZN4core3ptr62drop_in_place$LT$alloc..vec..Vec$LT$proc_macro2..Ident$GT$$GT$17h797813b5b7183904E', symObjAddr: 0x5C20, symBinAddr: 0x889D0, symSize: 0x90 }
  - { offsetInCU: 0x1EF58, offset: 0x32F74B, size: 0x8, addend: 0x0, symName: '__ZN4core3ptr63drop_in_place$LT$alloc..boxed..Box$LT$syn..lit..LitRepr$GT$$GT$17hf23a84bed7f64f98E', symObjAddr: 0x5CB0, symBinAddr: 0x88A60, symSize: 0x60 }
  - { offsetInCU: 0x1F25F, offset: 0x32FA52, size: 0x8, addend: 0x0, symName: '__ZN4core3ptr64drop_in_place$LT$alloc..boxed..Box$LT$syn..pat..FieldPat$GT$$GT$17ha5ec27d4d418dbdfE', symObjAddr: 0x5D10, symBinAddr: 0x88AC0, symSize: 0x140 }
  - { offsetInCU: 0x1F92C, offset: 0x33011F, size: 0x8, addend: 0x0, symName: '__ZN4core3ptr64drop_in_place$LT$alloc..boxed..Box$LT$syn..ty..BareFnArg$GT$$GT$17hb416cdff09d8949eE', symObjAddr: 0x5E50, symBinAddr: 0x88C00, symSize: 0x140 }
  - { offsetInCU: 0x1FE81, offset: 0x330674, size: 0x8, addend: 0x0, symName: '__ZN4core3ptr65drop_in_place$LT$alloc..vec..Vec$LT$proc_macro..TokenTree$GT$$GT$17h54365d0bdf61b883E', symObjAddr: 0x5F90, symBinAddr: 0x88D40, symSize: 0x110 }
  - { offsetInCU: 0x20279, offset: 0x330A6C, size: 0x8, addend: 0x0, symName: '__ZN4core3ptr65drop_in_place$LT$core..option..Option$LT$syn..expr..Label$GT$$GT$17h6cb338f3d3fef208E', symObjAddr: 0x60A0, symBinAddr: 0x88E50, symSize: 0x30 }
  - { offsetInCU: 0x203B3, offset: 0x330BA6, size: 0x8, addend: 0x0, symName: '__ZN4core3ptr65drop_in_place$LT$core..option..Option$LT$syn..path..QSelf$GT$$GT$17h77b32165fa1277f0E', symObjAddr: 0x60D0, symBinAddr: 0x88E80, symSize: 0x50 }
  - { offsetInCU: 0x20534, offset: 0x330D27, size: 0x8, addend: 0x0, symName: '__ZN4core3ptr66drop_in_place$LT$core..option..Option$LT$syn..pat..PatRest$GT$$GT$17h7c9095b226142979E', symObjAddr: 0x6120, symBinAddr: 0x88ED0, symSize: 0xE0 }
  - { offsetInCU: 0x20828, offset: 0x33101B, size: 0x8, addend: 0x0, symName: '__ZN4core3ptr66drop_in_place$LT$syn..punctuated..Iter$LT$syn..data..Field$GT$$GT$17h9ff36bda9c8ec2f2E.llvm.16115067038265871232', symObjAddr: 0x6200, symBinAddr: 0x88FB0, symSize: 0x30 }
  - { offsetInCU: 0x2096C, offset: 0x33115F, size: 0x8, addend: 0x0, symName: '__ZN4core3ptr67drop_in_place$LT$alloc..boxed..Box$LT$syn..expr..FieldValue$GT$$GT$17hb048d8ef1ec03e8dE', symObjAddr: 0x6230, symBinAddr: 0x88FE0, symSize: 0x140 }
  - { offsetInCU: 0x20EC0, offset: 0x3316B3, size: 0x8, addend: 0x0, symName: '__ZN4core3ptr68drop_in_place$LT$alloc..vec..Vec$LT$proc_macro2..TokenStream$GT$$GT$17h12fe98a0b6dc7a7eE', symObjAddr: 0x6370, symBinAddr: 0x89120, symSize: 0xC0 }
  - { offsetInCU: 0x21276, offset: 0x331A69, size: 0x8, addend: 0x0, symName: '__ZN4core3ptr68drop_in_place$LT$borsh_derive..internals..generics..FindTyParams$GT$17he80daff20c61038bE', symObjAddr: 0x6430, symBinAddr: 0x891E0, symSize: 0xA0 }
  - { offsetInCU: 0x2166B, offset: 0x331E5E, size: 0x8, addend: 0x0, symName: '__ZN4core3ptr68drop_in_place$LT$core..option..Option$LT$syn..expr..ExprPath$GT$$GT$17h41dad2f121aec28cE', symObjAddr: 0x64D0, symBinAddr: 0x89280, symSize: 0x140 }
  - { offsetInCU: 0x21AED, offset: 0x3322E0, size: 0x8, addend: 0x0, symName: '__ZN4core3ptr70drop_in_place$LT$core..option..Option$LT$syn..ty..BareVariadic$GT$$GT$17hf6d2a770387443a3E', symObjAddr: 0x6610, symBinAddr: 0x893C0, symSize: 0x100 }
  - { offsetInCU: 0x21F24, offset: 0x332717, size: 0x8, addend: 0x0, symName: '__ZN4core3ptr72drop_in_place$LT$alloc..boxed..Box$LT$syn..path..GenericArgument$GT$$GT$17hcc60f7ab467d198fE', symObjAddr: 0x6710, symBinAddr: 0x894C0, symSize: 0x2B0 }
  - { offsetInCU: 0x22935, offset: 0x333128, size: 0x8, addend: 0x0, symName: '__ZN4core3ptr72drop_in_place$LT$core..option..Option$LT$syn..lifetime..Lifetime$GT$$GT$17h70ad3b488ebe3596E', symObjAddr: 0x69C0, symBinAddr: 0x89770, symSize: 0x30 }
  - { offsetInCU: 0x22A50, offset: 0x333243, size: 0x8, addend: 0x0, symName: '__ZN4core3ptr73drop_in_place$LT$alloc..boxed..Box$LT$syn..generics..GenericParam$GT$$GT$17hd8823d2eb1a41dfaE', symObjAddr: 0x69F0, symBinAddr: 0x897A0, symSize: 0x80 }
  - { offsetInCU: 0x22BC6, offset: 0x3333B9, size: 0x8, addend: 0x0, symName: '__ZN4core3ptr73drop_in_place$LT$alloc..vec..Vec$LT$syn..generics..WherePredicate$GT$$GT$17h339feaab3a542528E', symObjAddr: 0x6A70, symBinAddr: 0x89820, symSize: 0xD0 }
  - { offsetInCU: 0x22E86, offset: 0x333679, size: 0x8, addend: 0x0, symName: '__ZN4core3ptr75drop_in_place$LT$alloc..boxed..Box$LT$syn..generics..TypeParamBound$GT$$GT$17hc0dbc3e6560133a8E', symObjAddr: 0x6B40, symBinAddr: 0x898F0, symSize: 0x180 }
  - { offsetInCU: 0x23434, offset: 0x333C27, size: 0x8, addend: 0x0, symName: '__ZN4core3ptr75drop_in_place$LT$core..option..Option$LT$syn..generics..WhereClause$GT$$GT$17h2c16f6dc41ab983cE', symObjAddr: 0x6CC0, symBinAddr: 0x89A70, symSize: 0x100 }
  - { offsetInCU: 0x2380A, offset: 0x333FFD, size: 0x8, addend: 0x0, symName: '__ZN4core3ptr83drop_in_place$LT$borsh_derive..internals..attributes..field..schema..Attributes$GT$17he34ddc318de7f63dE', symObjAddr: 0x6DC0, symBinAddr: 0x89B70, symSize: 0x160 }
  - { offsetInCU: 0x23C94, offset: 0x334487, size: 0x8, addend: 0x0, symName: '__ZN4core3ptr86drop_in_place$LT$syn..punctuated..Punctuated$LT$syn..pat..Pat$C$syn..token..Or$GT$$GT$17hb407e891b009195eE', symObjAddr: 0x6F20, symBinAddr: 0x89CD0, symSize: 0x120 }
  - { offsetInCU: 0x2410F, offset: 0x334902, size: 0x8, addend: 0x0, symName: '__ZN4core3ptr87drop_in_place$LT$core..option..Option$LT$alloc..boxed..Box$LT$syn..pat..Pat$GT$$GT$$GT$17h27575db68a752b00E', symObjAddr: 0x7040, symBinAddr: 0x89DF0, symSize: 0x50 }
  - { offsetInCU: 0x2427F, offset: 0x334A72, size: 0x8, addend: 0x0, symName: '__ZN4core3ptr87drop_in_place$LT$core..option..Option$LT$alloc..boxed..Box$LT$syn..ty..Type$GT$$GT$$GT$17h2cce7e91b6f26339E', symObjAddr: 0x7090, symBinAddr: 0x89E40, symSize: 0x50 }
  - { offsetInCU: 0x243EF, offset: 0x334BE2, size: 0x8, addend: 0x0, symName: '__ZN4core3ptr89drop_in_place$LT$core..option..Option$LT$alloc..boxed..Box$LT$syn..expr..Expr$GT$$GT$$GT$17h4805299351d776eaE', symObjAddr: 0x70E0, symBinAddr: 0x89E90, symSize: 0x50 }
  - { offsetInCU: 0x2459D, offset: 0x334D90, size: 0x8, addend: 0x0, symName: '__ZN4core3ptr89drop_in_place$LT$syn..punctuated..Punctuated$LT$syn..pat..Pat$C$syn..token..Comma$GT$$GT$17hbfa21962153cb723E', symObjAddr: 0x7130, symBinAddr: 0x89EE0, symSize: 0x120 }
  - { offsetInCU: 0x24A6D, offset: 0x335260, size: 0x8, addend: 0x0, symName: '__ZN4core3ptr91drop_in_place$LT$syn..punctuated..Punctuated$LT$syn..expr..Expr$C$syn..token..Comma$GT$$GT$17hd2c79695be72d75eE', symObjAddr: 0x7250, symBinAddr: 0x8A000, symSize: 0x120 }
  - { offsetInCU: 0x24EFB, offset: 0x3356EE, size: 0x8, addend: 0x0, symName: '__ZN4core3ptr94drop_in_place$LT$syn..punctuated..Punctuated$LT$syn..pat..FieldPat$C$syn..token..Comma$GT$$GT$17hb2b4aed8f633cba0E', symObjAddr: 0x7370, symBinAddr: 0x8A120, symSize: 0xF0 }
  - { offsetInCU: 0x251FA, offset: 0x3359ED, size: 0x8, addend: 0x0, symName: '__ZN4core3ptr94drop_in_place$LT$syn..punctuated..Punctuated$LT$syn..ty..BareFnArg$C$syn..token..Comma$GT$$GT$17h59c18cbb4f726140E', symObjAddr: 0x7460, symBinAddr: 0x8A210, symSize: 0xF0 }
  - { offsetInCU: 0x254FB, offset: 0x335CEE, size: 0x8, addend: 0x0, symName: '__ZN4core3ptr96drop_in_place$LT$core..option..Option$LT$alloc..boxed..Box$LT$syn..path..PathSegment$GT$$GT$$GT$17hd67a31bad3bc4ef4E', symObjAddr: 0x7550, symBinAddr: 0x8A300, symSize: 0x1A0 }
  - { offsetInCU: 0x25BBC, offset: 0x3363AF, size: 0x8, addend: 0x0, symName: '__ZN4core3ptr97drop_in_place$LT$syn..punctuated..Punctuated$LT$syn..expr..FieldValue$C$syn..token..Comma$GT$$GT$17h2644f25adad08ccbE', symObjAddr: 0x76F0, symBinAddr: 0x8A4A0, symSize: 0xF0 }
  - { offsetInCU: 0x25F35, offset: 0x336728, size: 0x8, addend: 0x0, symName: '__ZN4core3ptr98drop_in_place$LT$syn..punctuated..Punctuated$LT$syn..lifetime..Lifetime$C$syn..token..Plus$GT$$GT$17hfbe9a104e4a4f23fE', symObjAddr: 0x77E0, symBinAddr: 0x8A590, symSize: 0xD0 }
  - { offsetInCU: 0x29520, offset: 0x339D13, size: 0x8, addend: 0x0, symName: __ZN12borsh_derive9internals6schema18filter_used_params17haa87d86bb9ff0ad4E, symObjAddr: 0x85D0, symBinAddr: 0x8B360, symSize: 0x460 }
  - { offsetInCU: 0x29C9E, offset: 0x33A491, size: 0x8, addend: 0x0, symName: __ZN12borsh_derive9internals6schema11visit_field17ha92d86764ac33854E, symObjAddr: 0x8A30, symBinAddr: 0x8B7C0, symSize: 0x320 }
  - { offsetInCU: 0x2A039, offset: 0x33A82C, size: 0x8, addend: 0x0, symName: __ZN12borsh_derive9internals6schema19visit_struct_fields17h33ec536170daa7adE, symObjAddr: 0x8D50, symBinAddr: 0x8BAE0, symSize: 0x1E0 }
  - { offsetInCU: 0x2A7B0, offset: 0x33AFA3, size: 0x8, addend: 0x0, symName: __ZN12borsh_derive9internals6schema33visit_struct_fields_unconditional17h77ab2e54ff7acfffE, symObjAddr: 0x8F30, symBinAddr: 0x8BCC0, symSize: 0x144 }
  - { offsetInCU: 0x2CBB5, offset: 0x33D3A8, size: 0x8, addend: 0x0, symName: __ZN12borsh_derive9internals6schema14GenericsOutput6result17h6631f14ba698445dE, symObjAddr: 0x78D0, symBinAddr: 0x8A660, symSize: 0xD00 }
  - { offsetInCU: 0x4C, offset: 0x3416CD, size: 0x8, addend: 0x0, symName: __ZN12borsh_derive9internals10attributes5field21BORSH_FIELD_PARSE_MAP17he223e0f4650ff8acE, symObjAddr: 0xA118, symBinAddr: 0x3D4000, symSize: 0x0 }
  - { offsetInCU: 0x214, offset: 0x341895, size: 0x8, addend: 0x0, symName: '__ZN12borsh_derive9internals10attributes5field21BORSH_FIELD_PARSE_MAP28_$u7b$$u7b$closure$u7d$$u7d$28_$u7b$$u7b$closure$u7d$$u7d$17h7fb1dde5d2cd0d86E', symObjAddr: 0x7E20, symBinAddr: 0x93BF0, symSize: 0xD0 }
  - { offsetInCU: 0x368, offset: 0x3419E9, size: 0x8, addend: 0x0, symName: '__ZN12borsh_derive9internals10attributes5field21BORSH_FIELD_PARSE_MAP28_$u7b$$u7b$closure$u7d$$u7d$28_$u7b$$u7b$closure$u7d$$u7d$17ha2c6911c9d0d3b81E', symObjAddr: 0x7EF0, symBinAddr: 0x93CC0, symSize: 0x80 }
  - { offsetInCU: 0x3C8, offset: 0x341A49, size: 0x8, addend: 0x0, symName: '__ZN12borsh_derive9internals10attributes5field21BORSH_FIELD_PARSE_MAP28_$u7b$$u7b$closure$u7d$$u7d$28_$u7b$$u7b$closure$u7d$$u7d$17ha322a1e257d8dd19E', symObjAddr: 0x7F70, symBinAddr: 0x93D40, symSize: 0x80 }
  - { offsetInCU: 0x428, offset: 0x341AA9, size: 0x8, addend: 0x0, symName: '__ZN12borsh_derive9internals10attributes5field21BORSH_FIELD_PARSE_MAP28_$u7b$$u7b$closure$u7d$$u7d$28_$u7b$$u7b$closure$u7d$$u7d$17h34f43afe7df5a537E', symObjAddr: 0x7FF0, symBinAddr: 0x93DC0, symSize: 0xD0 }
  - { offsetInCU: 0x590, offset: 0x341C11, size: 0x8, addend: 0x0, symName: '__ZN12borsh_derive9internals10attributes5field21BORSH_FIELD_PARSE_MAP28_$u7b$$u7b$closure$u7d$$u7d$28_$u7b$$u7b$closure$u7d$$u7d$17hf23e064857d18d33E', symObjAddr: 0x80C0, symBinAddr: 0x93E90, symSize: 0x20 }
  - { offsetInCU: 0x96E, offset: 0x341FEF, size: 0x8, addend: 0x0, symName: '__ZN248_$LT$borsh_derive..internals..attributes..field..Attributes$u20$as$u20$core..convert..From$LT$alloc..collections..btree..map..BTreeMap$LT$borsh_derive..internals..attributes..Symbol$C$borsh_derive..internals..attributes..field..Variants$GT$$GT$$GT$4from17hf26e6e9b8939ccc9E', symObjAddr: 0x80E0, symBinAddr: 0x93EB0, symSize: 0x940 }
  - { offsetInCU: 0x700C, offset: 0x34868D, size: 0x8, addend: 0x0, symName: '__ZN4core3ptr100drop_in_place$LT$core..option..Option$LT$alloc..boxed..Box$LT$syn..path..GenericArgument$GT$$GT$$GT$17h807a36ffbab107a4E', symObjAddr: 0x750, symBinAddr: 0x8C520, symSize: 0x50 }
  - { offsetInCU: 0x73AA, offset: 0x348A2B, size: 0x8, addend: 0x0, symName: '__ZN4core3ptr100drop_in_place$LT$syn..punctuated..Punctuated$LT$syn..path..PathSegment$C$syn..token..PathSep$GT$$GT$17hcb9c7ae6720123ceE', symObjAddr: 0x7A0, symBinAddr: 0x8C570, symSize: 0x270 }
  - { offsetInCU: 0x7D6C, offset: 0x3493ED, size: 0x8, addend: 0x0, symName: '__ZN4core3ptr101drop_in_place$LT$core..option..Option$LT$alloc..vec..Vec$LT$syn..generics..WherePredicate$GT$$GT$$GT$17h9b97eb8149fa9b49E', symObjAddr: 0xA10, symBinAddr: 0x8C7E0, symSize: 0xD0 }
  - { offsetInCU: 0x8049, offset: 0x3496CA, size: 0x8, addend: 0x0, symName: '__ZN4core3ptr101drop_in_place$LT$core..option..Option$LT$borsh_derive..internals..attributes..field..Variants$GT$$GT$17h764ee13be8be0be0E', symObjAddr: 0xAE0, symBinAddr: 0x8C8B0, symSize: 0x70 }
  - { offsetInCU: 0x80B7, offset: 0x349738, size: 0x8, addend: 0x0, symName: '__ZN4core3ptr103drop_in_place$LT$core..option..Option$LT$alloc..boxed..Box$LT$syn..generics..TypeParamBound$GT$$GT$$GT$17h0017d361ebb9471fE', symObjAddr: 0xB50, symBinAddr: 0x8C920, symSize: 0x50 }
  - { offsetInCU: 0x82C2, offset: 0x349943, size: 0x8, addend: 0x0, symName: '__ZN4core3ptr103drop_in_place$LT$syn..punctuated..Punctuated$LT$syn..generics..GenericParam$C$syn..token..Comma$GT$$GT$17hf5a644fae414a53cE', symObjAddr: 0xBA0, symBinAddr: 0x8C970, symSize: 0xF0 }
  - { offsetInCU: 0x87BD, offset: 0x349E3E, size: 0x8, addend: 0x0, symName: '__ZN4core3ptr104drop_in_place$LT$syn..punctuated..Punctuated$LT$syn..generics..TypeParamBound$C$syn..token..Plus$GT$$GT$17ha86a9d1599e32cffE', symObjAddr: 0xC90, symBinAddr: 0x8CA60, symSize: 0x190 }
  - { offsetInCU: 0x8DE0, offset: 0x34A461, size: 0x8, addend: 0x0, symName: '__ZN4core3ptr122drop_in_place$LT$core..option..Option$LT$borsh_derive..internals..attributes..field..schema..with_funcs..WithFuncs$GT$$GT$17he02ffe9b3554ccf8E', symObjAddr: 0xE20, symBinAddr: 0x8CBF0, symSize: 0x70 }
  - { offsetInCU: 0x8F08, offset: 0x34A589, size: 0x8, addend: 0x0, symName: '__ZN4core3ptr34drop_in_place$LT$syn..lit..Lit$GT$17h7e230476d36822bfE', symObjAddr: 0xE90, symBinAddr: 0x8CC60, symSize: 0x120 }
  - { offsetInCU: 0x93D7, offset: 0x34AA58, size: 0x8, addend: 0x0, symName: '__ZN4core3ptr34drop_in_place$LT$syn..pat..Pat$GT$17h5b0a97e980f53e46E', symObjAddr: 0xFB0, symBinAddr: 0x8CD80, symSize: 0xEE0 }
  - { offsetInCU: 0xCBFD, offset: 0x34E27E, size: 0x8, addend: 0x0, symName: '__ZN4core3ptr34drop_in_place$LT$syn..ty..Type$GT$17h19f850f61918f31fE', symObjAddr: 0x1E90, symBinAddr: 0x8DC60, symSize: 0x4F0 }
  - { offsetInCU: 0xE140, offset: 0x34F7C1, size: 0x8, addend: 0x0, symName: '__ZN4core3ptr36drop_in_place$LT$syn..expr..Expr$GT$17h98f7f68f0a06dff7E', symObjAddr: 0x2380, symBinAddr: 0x8E150, symSize: 0x2680 }
  - { offsetInCU: 0x1735A, offset: 0x3589DB, size: 0x8, addend: 0x0, symName: '__ZN4core3ptr36drop_in_place$LT$syn..mac..Macro$GT$17hdf5bac46d7f74bccE', symObjAddr: 0x4A00, symBinAddr: 0x907D0, symSize: 0x40 }
  - { offsetInCU: 0x17394, offset: 0x358A15, size: 0x8, addend: 0x0, symName: '__ZN4core3ptr36drop_in_place$LT$syn..path..Path$GT$17hb2feba4d905af1b2E', symObjAddr: 0x4A40, symBinAddr: 0x90810, symSize: 0x240 }
  - { offsetInCU: 0x17D2E, offset: 0x3593AF, size: 0x8, addend: 0x0, symName: '__ZN4core3ptr37drop_in_place$LT$syn..path..QSelf$GT$17h2ad306e037f599caE', symObjAddr: 0x4C80, symBinAddr: 0x90A50, symSize: 0x50 }
  - { offsetInCU: 0x17EA6, offset: 0x359527, size: 0x8, addend: 0x0, symName: '__ZN4core3ptr37drop_in_place$LT$syn..stmt..Block$GT$17h9594e7bdfd216ee2E', symObjAddr: 0x4CD0, symBinAddr: 0x90AA0, symSize: 0xD0 }
  - { offsetInCU: 0x1817D, offset: 0x3597FE, size: 0x8, addend: 0x0, symName: '__ZN4core3ptr387drop_in_place$LT$alloc..boxed..Box$LT$dyn$u20$core..ops..function..Fn$LT$$LP$borsh_derive..internals..attributes..Symbol$C$borsh_derive..internals..attributes..Symbol$C$$RF$syn..meta..ParseNestedMeta$RP$$GT$$u2b$Output$u20$$u3d$$u20$core..result..Result$LT$borsh_derive..internals..attributes..field..Variants$C$syn..error..Error$GT$$u2b$core..marker..Sync$u2b$core..marker..Send$GT$$GT$17h77f1b768cc41541aE', symObjAddr: 0x4DA0, symBinAddr: 0x90B70, symSize: 0x60 }
  - { offsetInCU: 0x1836E, offset: 0x3599EF, size: 0x8, addend: 0x0, symName: '__ZN4core3ptr38drop_in_place$LT$syn..expr..Member$GT$17hd3bc25e187f7fae3E', symObjAddr: 0x4E00, symBinAddr: 0x90BD0, symSize: 0x30 }
  - { offsetInCU: 0x1846A, offset: 0x359AEB, size: 0x8, addend: 0x0, symName: '__ZN4core3ptr39drop_in_place$LT$proc_macro2..Ident$GT$17hb5fbe0c131bfa218E', symObjAddr: 0x4E30, symBinAddr: 0x90C00, symSize: 0x30 }
  - { offsetInCU: 0x18547, offset: 0x359BC8, size: 0x8, addend: 0x0, symName: '__ZN4core3ptr40drop_in_place$LT$syn..expr..ExprPath$GT$17hac51ab24dfe997baE', symObjAddr: 0x4E60, symBinAddr: 0x90C30, symSize: 0x120 }
  - { offsetInCU: 0x189F7, offset: 0x35A078, size: 0x8, addend: 0x0, symName: '__ZN4core3ptr40drop_in_place$LT$syn..ty..ReturnType$GT$17h2041b3e02720652aE', symObjAddr: 0x4F80, symBinAddr: 0x90D50, symSize: 0x50 }
  - { offsetInCU: 0x18B67, offset: 0x35A1E8, size: 0x8, addend: 0x0, symName: '__ZN4core3ptr41drop_in_place$LT$syn..expr..ExprConst$GT$17h546d2eac1f274d91E', symObjAddr: 0x4FD0, symBinAddr: 0x90DA0, symSize: 0x180 }
  - { offsetInCU: 0x19120, offset: 0x35A7A1, size: 0x8, addend: 0x0, symName: '__ZN4core3ptr44drop_in_place$LT$syn..lifetime..Lifetime$GT$17h8afd172b97690efdE', symObjAddr: 0x5150, symBinAddr: 0x90F20, symSize: 0x30 }
  - { offsetInCU: 0x19352, offset: 0x35A9D3, size: 0x8, addend: 0x0, symName: '__ZN4core3ptr45drop_in_place$LT$proc_macro2..TokenStream$GT$17h207b9d10b43ca09fE', symObjAddr: 0x5180, symBinAddr: 0x90F50, symSize: 0x140 }
  - { offsetInCU: 0x197EC, offset: 0x35AE6D, size: 0x8, addend: 0x0, symName: '__ZN4core3ptr45drop_in_place$LT$syn..generics..TypeParam$GT$17h6c3c07424bcf6a4eE', symObjAddr: 0x52C0, symBinAddr: 0x91090, symSize: 0x230 }
  - { offsetInCU: 0x1A02D, offset: 0x35B6AE, size: 0x8, addend: 0x0, symName: '__ZN4core3ptr46drop_in_place$LT$syn..generics..ConstParam$GT$17hd0de4a5923445da7E', symObjAddr: 0x54F0, symBinAddr: 0x912C0, symSize: 0x150 }
  - { offsetInCU: 0x1A47A, offset: 0x35BAFB, size: 0x8, addend: 0x0, symName: '__ZN4core3ptr47drop_in_place$LT$syn..path..GenericArgument$GT$17hf4dd383aa34a4f0fE', symObjAddr: 0x5640, symBinAddr: 0x91410, symSize: 0x4A0 }
  - { offsetInCU: 0x1B580, offset: 0x35CC01, size: 0x8, addend: 0x0, symName: '__ZN4core3ptr49drop_in_place$LT$syn..generics..LifetimeParam$GT$17hd0b2e7526885b204E', symObjAddr: 0x5AE0, symBinAddr: 0x918B0, symSize: 0xF0 }
  - { offsetInCU: 0x1B963, offset: 0x35CFE4, size: 0x8, addend: 0x0, symName: '__ZN4core3ptr50drop_in_place$LT$syn..generics..TypeParamBound$GT$17hdc238d3175f8eb5aE', symObjAddr: 0x5BD0, symBinAddr: 0x919A0, symSize: 0x180 }
  - { offsetInCU: 0x1BDAD, offset: 0x35D42E, size: 0x8, addend: 0x0, symName: '__ZN4core3ptr58drop_in_place$LT$alloc..vec..Vec$LT$syn..expr..Arm$GT$$GT$17ha0ec4334cda5515cE', symObjAddr: 0x5D50, symBinAddr: 0x91B20, symSize: 0xD0 }
  - { offsetInCU: 0x1C06D, offset: 0x35D6EE, size: 0x8, addend: 0x0, symName: '__ZN4core3ptr59drop_in_place$LT$alloc..boxed..Box$LT$syn..pat..Pat$GT$$GT$17h67f20b4715509286E', symObjAddr: 0x5E20, symBinAddr: 0x91BF0, symSize: 0x50 }
  - { offsetInCU: 0x1C1C6, offset: 0x35D847, size: 0x8, addend: 0x0, symName: '__ZN4core3ptr59drop_in_place$LT$alloc..boxed..Box$LT$syn..ty..Type$GT$$GT$17hb9082e267b94188dE', symObjAddr: 0x5E70, symBinAddr: 0x91C40, symSize: 0x50 }
  - { offsetInCU: 0x1C31F, offset: 0x35D9A0, size: 0x8, addend: 0x0, symName: '__ZN4core3ptr61drop_in_place$LT$alloc..boxed..Box$LT$syn..expr..Expr$GT$$GT$17h01310d89a7a8aab3E', symObjAddr: 0x5EC0, symBinAddr: 0x91C90, symSize: 0x50 }
  - { offsetInCU: 0x1C4F4, offset: 0x35DB75, size: 0x8, addend: 0x0, symName: '__ZN4core3ptr61drop_in_place$LT$syn..path..ParenthesizedGenericArguments$GT$17h7fee2959ae354450E', symObjAddr: 0x5F10, symBinAddr: 0x91CE0, symSize: 0x170 }
  - { offsetInCU: 0x1CAEA, offset: 0x35E16B, size: 0x8, addend: 0x0, symName: '__ZN4core3ptr62drop_in_place$LT$syn..path..AngleBracketedGenericArguments$GT$17h79141db867cfe0cbE', symObjAddr: 0x6080, symBinAddr: 0x91E50, symSize: 0x120 }
  - { offsetInCU: 0x1CF35, offset: 0x35E5B6, size: 0x8, addend: 0x0, symName: '__ZN4core3ptr63drop_in_place$LT$alloc..boxed..Box$LT$syn..lit..LitRepr$GT$$GT$17hf23a84bed7f64f98E', symObjAddr: 0x61A0, symBinAddr: 0x91F70, symSize: 0x60 }
  - { offsetInCU: 0x1D23C, offset: 0x35E8BD, size: 0x8, addend: 0x0, symName: '__ZN4core3ptr64drop_in_place$LT$alloc..boxed..Box$LT$syn..pat..FieldPat$GT$$GT$17ha5ec27d4d418dbdfE', symObjAddr: 0x6200, symBinAddr: 0x91FD0, symSize: 0x140 }
  - { offsetInCU: 0x1D909, offset: 0x35EF8A, size: 0x8, addend: 0x0, symName: '__ZN4core3ptr64drop_in_place$LT$alloc..boxed..Box$LT$syn..ty..BareFnArg$GT$$GT$17hb416cdff09d8949eE', symObjAddr: 0x6340, symBinAddr: 0x92110, symSize: 0x140 }
  - { offsetInCU: 0x1DE5E, offset: 0x35F4DF, size: 0x8, addend: 0x0, symName: '__ZN4core3ptr65drop_in_place$LT$alloc..vec..Vec$LT$proc_macro..TokenTree$GT$$GT$17h54365d0bdf61b883E', symObjAddr: 0x6480, symBinAddr: 0x92250, symSize: 0x110 }
  - { offsetInCU: 0x1E256, offset: 0x35F8D7, size: 0x8, addend: 0x0, symName: '__ZN4core3ptr65drop_in_place$LT$core..option..Option$LT$syn..expr..Label$GT$$GT$17h6cb338f3d3fef208E', symObjAddr: 0x6590, symBinAddr: 0x92360, symSize: 0x30 }
  - { offsetInCU: 0x1E390, offset: 0x35FA11, size: 0x8, addend: 0x0, symName: '__ZN4core3ptr65drop_in_place$LT$core..option..Option$LT$syn..path..QSelf$GT$$GT$17h77b32165fa1277f0E', symObjAddr: 0x65C0, symBinAddr: 0x92390, symSize: 0x50 }
  - { offsetInCU: 0x1E527, offset: 0x35FBA8, size: 0x8, addend: 0x0, symName: '__ZN4core3ptr66drop_in_place$LT$core..option..Option$LT$syn..pat..PatRest$GT$$GT$17h7c9095b226142979E', symObjAddr: 0x6610, symBinAddr: 0x923E0, symSize: 0xE0 }
  - { offsetInCU: 0x1E81B, offset: 0x35FE9C, size: 0x8, addend: 0x0, symName: '__ZN4core3ptr67drop_in_place$LT$alloc..boxed..Box$LT$syn..expr..FieldValue$GT$$GT$17hb048d8ef1ec03e8dE', symObjAddr: 0x66F0, symBinAddr: 0x924C0, symSize: 0x140 }
  - { offsetInCU: 0x1ED50, offset: 0x3603D1, size: 0x8, addend: 0x0, symName: '__ZN4core3ptr68drop_in_place$LT$alloc..boxed..Box$LT$syn..path..PathSegment$GT$$GT$17h582dcd8abb4b1a74E', symObjAddr: 0x6830, symBinAddr: 0x92600, symSize: 0x1B0 }
  - { offsetInCU: 0x1F45E, offset: 0x360ADF, size: 0x8, addend: 0x0, symName: '__ZN4core3ptr70drop_in_place$LT$core..option..Option$LT$syn..ty..BareVariadic$GT$$GT$17hf6d2a770387443a3E', symObjAddr: 0x69E0, symBinAddr: 0x927B0, symSize: 0x100 }
  - { offsetInCU: 0x1F895, offset: 0x360F16, size: 0x8, addend: 0x0, symName: '__ZN4core3ptr72drop_in_place$LT$alloc..boxed..Box$LT$syn..path..GenericArgument$GT$$GT$17hcc60f7ab467d198fE', symObjAddr: 0x6AE0, symBinAddr: 0x928B0, symSize: 0x1D0 }
  - { offsetInCU: 0x1FE30, offset: 0x3614B1, size: 0x8, addend: 0x0, symName: '__ZN4core3ptr72drop_in_place$LT$core..option..Option$LT$syn..lifetime..Lifetime$GT$$GT$17h70ad3b488ebe3596E', symObjAddr: 0x6CB0, symBinAddr: 0x92A80, symSize: 0x30 }
  - { offsetInCU: 0x1FF4B, offset: 0x3615CC, size: 0x8, addend: 0x0, symName: '__ZN4core3ptr73drop_in_place$LT$alloc..boxed..Box$LT$syn..generics..GenericParam$GT$$GT$17hd8823d2eb1a41dfaE', symObjAddr: 0x6CE0, symBinAddr: 0x92AB0, symSize: 0x80 }
  - { offsetInCU: 0x200C1, offset: 0x361742, size: 0x8, addend: 0x0, symName: '__ZN4core3ptr73drop_in_place$LT$borsh_derive..internals..attributes..field..Variants$GT$17hd8d39875cf34ff27E', symObjAddr: 0x6D60, symBinAddr: 0x92B30, symSize: 0x60 }
  - { offsetInCU: 0x200DE, offset: 0x36175F, size: 0x8, addend: 0x0, symName: '__ZN4core3ptr75drop_in_place$LT$alloc..boxed..Box$LT$syn..generics..TypeParamBound$GT$$GT$17hc0dbc3e6560133a8E', symObjAddr: 0x6DC0, symBinAddr: 0x92B90, symSize: 0xC0 }
  - { offsetInCU: 0x20413, offset: 0x361A94, size: 0x8, addend: 0x0, symName: '__ZN4core3ptr75drop_in_place$LT$borsh_derive..internals..attributes..field..Attributes$GT$17hd8b691ab19c82347E', symObjAddr: 0x6E80, symBinAddr: 0x92C50, symSize: 0xD0 }
  - { offsetInCU: 0x2050F, offset: 0x361B90, size: 0x8, addend: 0x0, symName: '__ZN4core3ptr79drop_in_place$LT$borsh_derive..internals..attributes..field..bounds..Bounds$GT$17h2a41a76408029b40E', symObjAddr: 0x6F50, symBinAddr: 0x92D20, symSize: 0x1A0 }
  - { offsetInCU: 0x20B42, offset: 0x3621C3, size: 0x8, addend: 0x0, symName: '__ZN4core3ptr83drop_in_place$LT$borsh_derive..internals..attributes..field..schema..Attributes$GT$17he34ddc318de7f63dE', symObjAddr: 0x70F0, symBinAddr: 0x92EC0, symSize: 0x180 }
  - { offsetInCU: 0x20FFE, offset: 0x36267F, size: 0x8, addend: 0x0, symName: '__ZN4core3ptr86drop_in_place$LT$syn..punctuated..Punctuated$LT$syn..pat..Pat$C$syn..token..Or$GT$$GT$17hb407e891b009195eE', symObjAddr: 0x7270, symBinAddr: 0x93040, symSize: 0x120 }
  - { offsetInCU: 0x21479, offset: 0x362AFA, size: 0x8, addend: 0x0, symName: '__ZN4core3ptr87drop_in_place$LT$core..option..Option$LT$alloc..boxed..Box$LT$syn..pat..Pat$GT$$GT$$GT$17h27575db68a752b00E', symObjAddr: 0x7390, symBinAddr: 0x93160, symSize: 0x50 }
  - { offsetInCU: 0x215E9, offset: 0x362C6A, size: 0x8, addend: 0x0, symName: '__ZN4core3ptr87drop_in_place$LT$core..option..Option$LT$alloc..boxed..Box$LT$syn..ty..Type$GT$$GT$$GT$17h2cce7e91b6f26339E', symObjAddr: 0x73E0, symBinAddr: 0x931B0, symSize: 0x50 }
  - { offsetInCU: 0x21759, offset: 0x362DDA, size: 0x8, addend: 0x0, symName: '__ZN4core3ptr89drop_in_place$LT$core..option..Option$LT$alloc..boxed..Box$LT$syn..expr..Expr$GT$$GT$$GT$17h4805299351d776eaE', symObjAddr: 0x7430, symBinAddr: 0x93200, symSize: 0x50 }
  - { offsetInCU: 0x21907, offset: 0x362F88, size: 0x8, addend: 0x0, symName: '__ZN4core3ptr89drop_in_place$LT$syn..punctuated..Punctuated$LT$syn..pat..Pat$C$syn..token..Comma$GT$$GT$17hbfa21962153cb723E', symObjAddr: 0x7480, symBinAddr: 0x93250, symSize: 0x120 }
  - { offsetInCU: 0x21D99, offset: 0x36341A, size: 0x8, addend: 0x0, symName: '__ZN4core3ptr89drop_in_place$LT$syn..punctuated..Punctuated$LT$syn..ty..Type$C$syn..token..Comma$GT$$GT$17h487f88da4f994ccfE', symObjAddr: 0x75A0, symBinAddr: 0x93370, symSize: 0x120 }
  - { offsetInCU: 0x22214, offset: 0x363895, size: 0x8, addend: 0x0, symName: '__ZN4core3ptr90drop_in_place$LT$core..option..Option$LT$syn..path..AngleBracketedGenericArguments$GT$$GT$17h44b2ad11f3f45684E', symObjAddr: 0x76C0, symBinAddr: 0x93490, symSize: 0x130 }
  - { offsetInCU: 0x226B6, offset: 0x363D37, size: 0x8, addend: 0x0, symName: '__ZN4core3ptr91drop_in_place$LT$syn..punctuated..Punctuated$LT$syn..expr..Expr$C$syn..token..Comma$GT$$GT$17hd2c79695be72d75eE', symObjAddr: 0x77F0, symBinAddr: 0x935C0, symSize: 0x120 }
  - { offsetInCU: 0x22B44, offset: 0x3641C5, size: 0x8, addend: 0x0, symName: '__ZN4core3ptr94drop_in_place$LT$syn..punctuated..Punctuated$LT$syn..pat..FieldPat$C$syn..token..Comma$GT$$GT$17hb2b4aed8f633cba0E', symObjAddr: 0x7910, symBinAddr: 0x936E0, symSize: 0xF0 }
  - { offsetInCU: 0x22E43, offset: 0x3644C4, size: 0x8, addend: 0x0, symName: '__ZN4core3ptr94drop_in_place$LT$syn..punctuated..Punctuated$LT$syn..ty..BareFnArg$C$syn..token..Comma$GT$$GT$17h59c18cbb4f726140E', symObjAddr: 0x7A00, symBinAddr: 0x937D0, symSize: 0xF0 }
  - { offsetInCU: 0x23144, offset: 0x3647C5, size: 0x8, addend: 0x0, symName: '__ZN4core3ptr96drop_in_place$LT$core..option..Option$LT$alloc..boxed..Box$LT$syn..path..PathSegment$GT$$GT$$GT$17hd67a31bad3bc4ef4E', symObjAddr: 0x7AF0, symBinAddr: 0x938C0, symSize: 0xA0 }
  - { offsetInCU: 0x233C3, offset: 0x364A44, size: 0x8, addend: 0x0, symName: '__ZN4core3ptr97drop_in_place$LT$syn..punctuated..Punctuated$LT$syn..expr..FieldValue$C$syn..token..Comma$GT$$GT$17h2644f25adad08ccbE', symObjAddr: 0x7B90, symBinAddr: 0x93960, symSize: 0xF0 }
  - { offsetInCU: 0x236C0, offset: 0x364D41, size: 0x8, addend: 0x0, symName: '__ZN4core3ptr98drop_in_place$LT$alloc..vec..Vec$LT$$LP$syn..path..GenericArgument$C$syn..token..Comma$RP$$GT$$GT$17h050ecd3ba4b8a9c3E', symObjAddr: 0x7C80, symBinAddr: 0x93A50, symSize: 0xD0 }
  - { offsetInCU: 0x23A00, offset: 0x365081, size: 0x8, addend: 0x0, symName: '__ZN4core3ptr98drop_in_place$LT$syn..punctuated..Punctuated$LT$syn..lifetime..Lifetime$C$syn..token..Plus$GT$$GT$17hfbe9a104e4a4f23fE', symObjAddr: 0x7D50, symBinAddr: 0x93B20, symSize: 0xD0 }
  - { offsetInCU: 0x24AC1, offset: 0x366142, size: 0x8, addend: 0x0, symName: '__ZN4core3ops8function6FnOnce40call_once$u7b$$u7b$vtable.shim$u7d$$u7d$17h1aa8a4fe769d7aaaE', symObjAddr: 0x40, symBinAddr: 0x8BE10, symSize: 0xD0 }
  - { offsetInCU: 0x24BB1, offset: 0x366232, size: 0x8, addend: 0x0, symName: '__ZN4core3ops8function6FnOnce40call_once$u7b$$u7b$vtable.shim$u7d$$u7d$17h884d60ecddd2ea7cE', symObjAddr: 0x110, symBinAddr: 0x8BEE0, symSize: 0x20 }
  - { offsetInCU: 0x24C49, offset: 0x3662CA, size: 0x8, addend: 0x0, symName: '__ZN4core3ops8function6FnOnce40call_once$u7b$$u7b$vtable.shim$u7d$$u7d$17h8922a5f09b9ae020E', symObjAddr: 0x130, symBinAddr: 0x8BF00, symSize: 0xD0 }
  - { offsetInCU: 0x24E02, offset: 0x366483, size: 0x8, addend: 0x0, symName: '__ZN4core3ops8function6FnOnce40call_once$u7b$$u7b$vtable.shim$u7d$$u7d$17hc2f6a6ecbf24329eE', symObjAddr: 0x200, symBinAddr: 0x8BFD0, symSize: 0xD0 }
  - { offsetInCU: 0x24FA7, offset: 0x366628, size: 0x8, addend: 0x0, symName: '__ZN4core3ops8function6FnOnce40call_once$u7b$$u7b$vtable.shim$u7d$$u7d$17hc9aa3c631edfcbc9E', symObjAddr: 0x2D0, symBinAddr: 0x8C0A0, symSize: 0xD0 }
  - { offsetInCU: 0x25066, offset: 0x3666E7, size: 0x8, addend: 0x0, symName: __ZN4core3ops8function6FnOnce9call_once17h61855520ceb1c918E, symObjAddr: 0x3A0, symBinAddr: 0x8C170, symSize: 0x3B0 }
  - { offsetInCU: 0x2DD06, offset: 0x36F387, size: 0x8, addend: 0x0, symName: __ZN12borsh_derive9internals10attributes5field10Attributes5parse17h5bd14ea1f5f85414E, symObjAddr: 0x8A20, symBinAddr: 0x947F0, symSize: 0x4B0 }
  - { offsetInCU: 0x2E3E9, offset: 0x36FA6A, size: 0x8, addend: 0x0, symName: __ZN12borsh_derive9internals10attributes5field10Attributes19needs_bounds_derive17h2e03ac941f75a1d5E, symObjAddr: 0x8ED0, symBinAddr: 0x94CA0, symSize: 0x110 }
  - { offsetInCU: 0x1E, offset: 0x373B50, size: 0x8, addend: 0x0, symName: '__ZN4core3ptr100drop_in_place$LT$core..option..Option$LT$alloc..boxed..Box$LT$syn..path..GenericArgument$GT$$GT$$GT$17h807a36ffbab107a4E', symObjAddr: 0x0, symBinAddr: 0x94DB0, symSize: 0x50 }
  - { offsetInCU: 0x1A21, offset: 0x375553, size: 0x8, addend: 0x0, symName: '__ZN4core3ptr100drop_in_place$LT$core..option..Option$LT$alloc..boxed..Box$LT$syn..path..GenericArgument$GT$$GT$$GT$17h807a36ffbab107a4E', symObjAddr: 0x0, symBinAddr: 0x94DB0, symSize: 0x50 }
  - { offsetInCU: 0x1BCF, offset: 0x375701, size: 0x8, addend: 0x0, symName: '__ZN4core3ptr101drop_in_place$LT$core..option..Option$LT$alloc..vec..Vec$LT$syn..generics..WherePredicate$GT$$GT$$GT$17h9b97eb8149fa9b49E', symObjAddr: 0x50, symBinAddr: 0x94E00, symSize: 0xD0 }
  - { offsetInCU: 0x1EEA, offset: 0x375A1C, size: 0x8, addend: 0x0, symName: '__ZN4core3ptr102drop_in_place$LT$syn..punctuated..Punctuated$LT$syn..path..GenericArgument$C$syn..token..Comma$GT$$GT$17h87ac6172553c146eE', symObjAddr: 0x120, symBinAddr: 0x94ED0, symSize: 0xF0 }
  - { offsetInCU: 0x220A, offset: 0x375D3C, size: 0x8, addend: 0x0, symName: '__ZN4core3ptr103drop_in_place$LT$core..option..Option$LT$alloc..boxed..Box$LT$syn..generics..TypeParamBound$GT$$GT$$GT$17h0017d361ebb9471fE', symObjAddr: 0x210, symBinAddr: 0x94FC0, symSize: 0x50 }
  - { offsetInCU: 0x24CF, offset: 0x376001, size: 0x8, addend: 0x0, symName: '__ZN4core3ptr103drop_in_place$LT$core..option..Option$LT$alloc..boxed..Box$LT$syn..generics..WherePredicate$GT$$GT$$GT$17he4ee84860b39964eE', symObjAddr: 0x260, symBinAddr: 0x95010, symSize: 0xD0 }
  - { offsetInCU: 0x2863, offset: 0x376395, size: 0x8, addend: 0x0, symName: '__ZN4core3ptr103drop_in_place$LT$syn..punctuated..Punctuated$LT$syn..generics..GenericParam$C$syn..token..Comma$GT$$GT$17hf5a644fae414a53cE', symObjAddr: 0x330, symBinAddr: 0x950E0, symSize: 0xF0 }
  - { offsetInCU: 0x2D5E, offset: 0x376890, size: 0x8, addend: 0x0, symName: '__ZN4core3ptr104drop_in_place$LT$syn..punctuated..Punctuated$LT$syn..generics..TypeParamBound$C$syn..token..Plus$GT$$GT$17ha86a9d1599e32cffE', symObjAddr: 0x420, symBinAddr: 0x951D0, symSize: 0x240 }
  - { offsetInCU: 0x3619, offset: 0x37714B, size: 0x8, addend: 0x0, symName: '__ZN4core3ptr107drop_in_place$LT$core..option..Option$LT$borsh_derive..internals..attributes..field..bounds..Bounds$GT$$GT$17h6c6d4413576fc644E', symObjAddr: 0x660, symBinAddr: 0x95410, symSize: 0x1A0 }
  - { offsetInCU: 0x3C8F, offset: 0x3777C1, size: 0x8, addend: 0x0, symName: '__ZN4core3ptr111drop_in_place$LT$core..option..Option$LT$borsh_derive..internals..attributes..field..schema..Attributes$GT$$GT$17h7d96964c2b1a2d1aE', symObjAddr: 0x800, symBinAddr: 0x955B0, symSize: 0x160 }
  - { offsetInCU: 0x40C3, offset: 0x377BF5, size: 0x8, addend: 0x0, symName: '__ZN4core3ptr122drop_in_place$LT$core..option..Option$LT$borsh_derive..internals..attributes..field..schema..with_funcs..WithFuncs$GT$$GT$17he02ffe9b3554ccf8E', symObjAddr: 0x960, symBinAddr: 0x95710, symSize: 0x50 }
  - { offsetInCU: 0x41B9, offset: 0x377CEB, size: 0x8, addend: 0x0, symName: '__ZN4core3ptr34drop_in_place$LT$syn..lit..Lit$GT$17h7e230476d36822bfE', symObjAddr: 0x9B0, symBinAddr: 0x95760, symSize: 0x120 }
  - { offsetInCU: 0x46A7, offset: 0x3781D9, size: 0x8, addend: 0x0, symName: '__ZN4core3ptr34drop_in_place$LT$syn..pat..Pat$GT$17h5b0a97e980f53e46E', symObjAddr: 0xAD0, symBinAddr: 0x95880, symSize: 0xF40 }
  - { offsetInCU: 0x816D, offset: 0x37BC9F, size: 0x8, addend: 0x0, symName: '__ZN4core3ptr34drop_in_place$LT$syn..ty..Type$GT$17h19f850f61918f31fE', symObjAddr: 0x1A10, symBinAddr: 0x967C0, symSize: 0x580 }
  - { offsetInCU: 0x99F6, offset: 0x37D528, size: 0x8, addend: 0x0, symName: '__ZN4core3ptr36drop_in_place$LT$syn..expr..Expr$GT$17h98f7f68f0a06dff7E', symObjAddr: 0x1F90, symBinAddr: 0x96D40, symSize: 0x2730 }
  - { offsetInCU: 0x12E56, offset: 0x386988, size: 0x8, addend: 0x0, symName: '__ZN4core3ptr36drop_in_place$LT$syn..mac..Macro$GT$17hdf5bac46d7f74bccE', symObjAddr: 0x46C0, symBinAddr: 0x99470, symSize: 0xE0 }
  - { offsetInCU: 0x131E0, offset: 0x386D12, size: 0x8, addend: 0x0, symName: '__ZN4core3ptr36drop_in_place$LT$syn..path..Path$GT$17hb2feba4d905af1b2E', symObjAddr: 0x47A0, symBinAddr: 0x99550, symSize: 0x240 }
  - { offsetInCU: 0x13B7A, offset: 0x3876AC, size: 0x8, addend: 0x0, symName: '__ZN4core3ptr37drop_in_place$LT$syn..stmt..Block$GT$17h9594e7bdfd216ee2E', symObjAddr: 0x49E0, symBinAddr: 0x99790, symSize: 0xD0 }
  - { offsetInCU: 0x13E51, offset: 0x387983, size: 0x8, addend: 0x0, symName: '__ZN4core3ptr38drop_in_place$LT$syn..expr..Member$GT$17hd3bc25e187f7fae3E', symObjAddr: 0x4AB0, symBinAddr: 0x99860, symSize: 0x30 }
  - { offsetInCU: 0x13F4D, offset: 0x387A7F, size: 0x8, addend: 0x0, symName: '__ZN4core3ptr39drop_in_place$LT$proc_macro2..Ident$GT$17hb5fbe0c131bfa218E', symObjAddr: 0x4AE0, symBinAddr: 0x99890, symSize: 0x30 }
  - { offsetInCU: 0x1402A, offset: 0x387B5C, size: 0x8, addend: 0x0, symName: '__ZN4core3ptr40drop_in_place$LT$syn..ty..ReturnType$GT$17h2041b3e02720652aE', symObjAddr: 0x4B10, symBinAddr: 0x998C0, symSize: 0x50 }
  - { offsetInCU: 0x1419A, offset: 0x387CCC, size: 0x8, addend: 0x0, symName: '__ZN4core3ptr41drop_in_place$LT$syn..expr..ExprConst$GT$17h546d2eac1f274d91E', symObjAddr: 0x4B60, symBinAddr: 0x99910, symSize: 0x180 }
  - { offsetInCU: 0x14753, offset: 0x388285, size: 0x8, addend: 0x0, symName: '__ZN4core3ptr44drop_in_place$LT$syn..generics..Generics$GT$17h6cc36a2c79e64375E', symObjAddr: 0x4CE0, symBinAddr: 0x99A90, symSize: 0x40 }
  - { offsetInCU: 0x14770, offset: 0x3882A2, size: 0x8, addend: 0x0, symName: '__ZN4core3ptr44drop_in_place$LT$syn..lifetime..Lifetime$GT$17h8afd172b97690efdE', symObjAddr: 0x4D20, symBinAddr: 0x99AD0, symSize: 0x30 }
  - { offsetInCU: 0x149A2, offset: 0x3884D4, size: 0x8, addend: 0x0, symName: '__ZN4core3ptr45drop_in_place$LT$proc_macro2..TokenStream$GT$17h207b9d10b43ca09fE', symObjAddr: 0x4D50, symBinAddr: 0x99B00, symSize: 0x140 }
  - { offsetInCU: 0x14E3C, offset: 0x38896E, size: 0x8, addend: 0x0, symName: '__ZN4core3ptr45drop_in_place$LT$syn..generics..TypeParam$GT$17h6c3c07424bcf6a4eE', symObjAddr: 0x4E90, symBinAddr: 0x99C40, symSize: 0x230 }
  - { offsetInCU: 0x1567D, offset: 0x3891AF, size: 0x8, addend: 0x0, symName: '__ZN4core3ptr46drop_in_place$LT$syn..generics..ConstParam$GT$17hd0de4a5923445da7E', symObjAddr: 0x50C0, symBinAddr: 0x99E70, symSize: 0x150 }
  - { offsetInCU: 0x15ACA, offset: 0x3895FC, size: 0x8, addend: 0x0, symName: '__ZN4core3ptr47drop_in_place$LT$syn..generics..WhereClause$GT$17h886e9dcae0082af0E', symObjAddr: 0x5210, symBinAddr: 0x99FC0, symSize: 0xE0 }
  - { offsetInCU: 0x15E4D, offset: 0x38997F, size: 0x8, addend: 0x0, symName: '__ZN4core3ptr47drop_in_place$LT$syn..path..GenericArgument$GT$17hf4dd383aa34a4f0fE', symObjAddr: 0x52F0, symBinAddr: 0x9A0A0, symSize: 0x450 }
  - { offsetInCU: 0x16BC3, offset: 0x38A6F5, size: 0x8, addend: 0x0, symName: '__ZN4core3ptr49drop_in_place$LT$syn..generics..LifetimeParam$GT$17hd0b2e7526885b204E', symObjAddr: 0x5740, symBinAddr: 0x9A4F0, symSize: 0xF0 }
  - { offsetInCU: 0x16FA6, offset: 0x38AAD8, size: 0x8, addend: 0x0, symName: '__ZN4core3ptr50drop_in_place$LT$syn..generics..TypeParamBound$GT$17hdc238d3175f8eb5aE', symObjAddr: 0x5830, symBinAddr: 0x9A5E0, symSize: 0xA0 }
  - { offsetInCU: 0x1710C, offset: 0x38AC3E, size: 0x8, addend: 0x0, symName: '__ZN4core3ptr58drop_in_place$LT$alloc..vec..Vec$LT$syn..expr..Arm$GT$$GT$17ha0ec4334cda5515cE', symObjAddr: 0x58D0, symBinAddr: 0x9A680, symSize: 0xD0 }
  - { offsetInCU: 0x173CC, offset: 0x38AEFE, size: 0x8, addend: 0x0, symName: '__ZN4core3ptr59drop_in_place$LT$alloc..boxed..Box$LT$syn..pat..Pat$GT$$GT$17h67f20b4715509286E', symObjAddr: 0x59A0, symBinAddr: 0x9A750, symSize: 0x50 }
  - { offsetInCU: 0x17525, offset: 0x38B057, size: 0x8, addend: 0x0, symName: '__ZN4core3ptr59drop_in_place$LT$alloc..boxed..Box$LT$syn..ty..Type$GT$$GT$17hb9082e267b94188dE', symObjAddr: 0x59F0, symBinAddr: 0x9A7A0, symSize: 0x50 }
  - { offsetInCU: 0x1767E, offset: 0x38B1B0, size: 0x8, addend: 0x0, symName: '__ZN4core3ptr61drop_in_place$LT$alloc..boxed..Box$LT$syn..expr..Expr$GT$$GT$17h01310d89a7a8aab3E', symObjAddr: 0x5A40, symBinAddr: 0x9A7F0, symSize: 0x50 }
  - { offsetInCU: 0x177D7, offset: 0x38B309, size: 0x8, addend: 0x0, symName: '__ZN4core3ptr61drop_in_place$LT$syn..path..ParenthesizedGenericArguments$GT$17h7fee2959ae354450E', symObjAddr: 0x5A90, symBinAddr: 0x9A840, symSize: 0x170 }
  - { offsetInCU: 0x17DE0, offset: 0x38B912, size: 0x8, addend: 0x0, symName: '__ZN4core3ptr63drop_in_place$LT$alloc..boxed..Box$LT$syn..lit..LitRepr$GT$$GT$17hf23a84bed7f64f98E', symObjAddr: 0x5C00, symBinAddr: 0x9A9B0, symSize: 0x60 }
  - { offsetInCU: 0x180E7, offset: 0x38BC19, size: 0x8, addend: 0x0, symName: '__ZN4core3ptr64drop_in_place$LT$alloc..boxed..Box$LT$syn..pat..FieldPat$GT$$GT$17ha5ec27d4d418dbdfE', symObjAddr: 0x5C60, symBinAddr: 0x9AA10, symSize: 0x140 }
  - { offsetInCU: 0x187B4, offset: 0x38C2E6, size: 0x8, addend: 0x0, symName: '__ZN4core3ptr64drop_in_place$LT$alloc..boxed..Box$LT$syn..ty..BareFnArg$GT$$GT$17hb416cdff09d8949eE', symObjAddr: 0x5DA0, symBinAddr: 0x9AB50, symSize: 0x140 }
  - { offsetInCU: 0x18D09, offset: 0x38C83B, size: 0x8, addend: 0x0, symName: '__ZN4core3ptr64drop_in_place$LT$borsh_derive..internals..serialize..FieldId$GT$17h37a15f362dd4dc50E', symObjAddr: 0x5EE0, symBinAddr: 0x9AC90, symSize: 0x40 }
  - { offsetInCU: 0x18DAE, offset: 0x38C8E0, size: 0x8, addend: 0x0, symName: '__ZN4core3ptr65drop_in_place$LT$alloc..vec..Vec$LT$proc_macro..TokenTree$GT$$GT$17h54365d0bdf61b883E', symObjAddr: 0x5F20, symBinAddr: 0x9ACD0, symSize: 0x110 }
  - { offsetInCU: 0x191A6, offset: 0x38CCD8, size: 0x8, addend: 0x0, symName: '__ZN4core3ptr65drop_in_place$LT$core..option..Option$LT$syn..expr..Label$GT$$GT$17h6cb338f3d3fef208E', symObjAddr: 0x6030, symBinAddr: 0x9ADE0, symSize: 0x30 }
  - { offsetInCU: 0x192E0, offset: 0x38CE12, size: 0x8, addend: 0x0, symName: '__ZN4core3ptr65drop_in_place$LT$core..option..Option$LT$syn..path..QSelf$GT$$GT$17h77b32165fa1277f0E', symObjAddr: 0x6060, symBinAddr: 0x9AE10, symSize: 0x50 }
  - { offsetInCU: 0x19461, offset: 0x38CF93, size: 0x8, addend: 0x0, symName: '__ZN4core3ptr66drop_in_place$LT$core..option..Option$LT$syn..pat..PatRest$GT$$GT$17h7c9095b226142979E', symObjAddr: 0x60B0, symBinAddr: 0x9AE60, symSize: 0xE0 }
  - { offsetInCU: 0x19755, offset: 0x38D287, size: 0x8, addend: 0x0, symName: '__ZN4core3ptr67drop_in_place$LT$alloc..boxed..Box$LT$syn..expr..FieldValue$GT$$GT$17hb048d8ef1ec03e8dE', symObjAddr: 0x6190, symBinAddr: 0x9AF40, symSize: 0x140 }
  - { offsetInCU: 0x19DA1, offset: 0x38D8D3, size: 0x8, addend: 0x0, symName: '__ZN4core3ptr68drop_in_place$LT$borsh_derive..internals..generics..FindTyParams$GT$17he80daff20c61038bE', symObjAddr: 0x62D0, symBinAddr: 0x9B080, symSize: 0xA0 }
  - { offsetInCU: 0x1A196, offset: 0x38DCC8, size: 0x8, addend: 0x0, symName: '__ZN4core3ptr68drop_in_place$LT$core..option..Option$LT$syn..expr..ExprPath$GT$$GT$17h41dad2f121aec28cE', symObjAddr: 0x6370, symBinAddr: 0x9B120, symSize: 0x140 }
  - { offsetInCU: 0x1A618, offset: 0x38E14A, size: 0x8, addend: 0x0, symName: '__ZN4core3ptr70drop_in_place$LT$core..option..Option$LT$syn..ty..BareVariadic$GT$$GT$17hf6d2a770387443a3E', symObjAddr: 0x64B0, symBinAddr: 0x9B260, symSize: 0x100 }
  - { offsetInCU: 0x1AA30, offset: 0x38E562, size: 0x8, addend: 0x0, symName: '__ZN4core3ptr71drop_in_place$LT$borsh_derive..internals..serialize..GenericsOutput$GT$17ha3d59c163defd5eeE', symObjAddr: 0x65B0, symBinAddr: 0x9B360, symSize: 0xE0 }
  - { offsetInCU: 0x1AD1E, offset: 0x38E850, size: 0x8, addend: 0x0, symName: '__ZN4core3ptr72drop_in_place$LT$alloc..boxed..Box$LT$syn..path..GenericArgument$GT$$GT$17hcc60f7ab467d198fE', symObjAddr: 0x6690, symBinAddr: 0x9B440, symSize: 0x2B0 }
  - { offsetInCU: 0x1B72F, offset: 0x38F261, size: 0x8, addend: 0x0, symName: '__ZN4core3ptr72drop_in_place$LT$core..option..Option$LT$syn..lifetime..Lifetime$GT$$GT$17h70ad3b488ebe3596E', symObjAddr: 0x6940, symBinAddr: 0x9B6F0, symSize: 0x30 }
  - { offsetInCU: 0x1B84A, offset: 0x38F37C, size: 0x8, addend: 0x0, symName: '__ZN4core3ptr73drop_in_place$LT$alloc..boxed..Box$LT$syn..generics..GenericParam$GT$$GT$17hd8823d2eb1a41dfaE', symObjAddr: 0x6970, symBinAddr: 0x9B720, symSize: 0x80 }
  - { offsetInCU: 0x1B9C0, offset: 0x38F4F2, size: 0x8, addend: 0x0, symName: '__ZN4core3ptr75drop_in_place$LT$alloc..boxed..Box$LT$syn..generics..TypeParamBound$GT$$GT$17hc0dbc3e6560133a8E', symObjAddr: 0x69F0, symBinAddr: 0x9B7A0, symSize: 0x180 }
  - { offsetInCU: 0x1BF6E, offset: 0x38FAA0, size: 0x8, addend: 0x0, symName: '__ZN4core3ptr75drop_in_place$LT$borsh_derive..internals..serialize..enums..VariantBody$GT$17h46e1c8d7238cd1d3E', symObjAddr: 0x6B70, symBinAddr: 0x9B920, symSize: 0x50 }
  - { offsetInCU: 0x1BFDC, offset: 0x38FB0E, size: 0x8, addend: 0x0, symName: '__ZN4core3ptr75drop_in_place$LT$core..option..Option$LT$syn..generics..WhereClause$GT$$GT$17h2c16f6dc41ab983cE', symObjAddr: 0x6BC0, symBinAddr: 0x9B970, symSize: 0x100 }
  - { offsetInCU: 0x1C336, offset: 0x38FE68, size: 0x8, addend: 0x0, symName: '__ZN4core3ptr77drop_in_place$LT$borsh_derive..internals..serialize..enums..VariantFields$GT$17haf3205f4c5ab7deeE', symObjAddr: 0x6CC0, symBinAddr: 0x9BA70, symSize: 0x40 }
  - { offsetInCU: 0x1C3B0, offset: 0x38FEE2, size: 0x8, addend: 0x0, symName: '__ZN4core3ptr86drop_in_place$LT$syn..punctuated..Punctuated$LT$syn..pat..Pat$C$syn..token..Or$GT$$GT$17hb407e891b009195eE', symObjAddr: 0x6D00, symBinAddr: 0x9BAB0, symSize: 0x120 }
  - { offsetInCU: 0x1C82B, offset: 0x39035D, size: 0x8, addend: 0x0, symName: '__ZN4core3ptr87drop_in_place$LT$core..option..Option$LT$alloc..boxed..Box$LT$syn..pat..Pat$GT$$GT$$GT$17h27575db68a752b00E', symObjAddr: 0x6E20, symBinAddr: 0x9BBD0, symSize: 0x50 }
  - { offsetInCU: 0x1C99B, offset: 0x3904CD, size: 0x8, addend: 0x0, symName: '__ZN4core3ptr87drop_in_place$LT$core..option..Option$LT$alloc..boxed..Box$LT$syn..ty..Type$GT$$GT$$GT$17h2cce7e91b6f26339E', symObjAddr: 0x6E70, symBinAddr: 0x9BC20, symSize: 0x50 }
  - { offsetInCU: 0x1CB0B, offset: 0x39063D, size: 0x8, addend: 0x0, symName: '__ZN4core3ptr89drop_in_place$LT$core..option..Option$LT$alloc..boxed..Box$LT$syn..expr..Expr$GT$$GT$$GT$17h4805299351d776eaE', symObjAddr: 0x6EC0, symBinAddr: 0x9BC70, symSize: 0x50 }
  - { offsetInCU: 0x1CCB9, offset: 0x3907EB, size: 0x8, addend: 0x0, symName: '__ZN4core3ptr89drop_in_place$LT$syn..punctuated..Punctuated$LT$syn..pat..Pat$C$syn..token..Comma$GT$$GT$17hbfa21962153cb723E', symObjAddr: 0x6F10, symBinAddr: 0x9BCC0, symSize: 0x120 }
  - { offsetInCU: 0x1D189, offset: 0x390CBB, size: 0x8, addend: 0x0, symName: '__ZN4core3ptr91drop_in_place$LT$syn..punctuated..Punctuated$LT$syn..expr..Expr$C$syn..token..Comma$GT$$GT$17hd2c79695be72d75eE', symObjAddr: 0x7030, symBinAddr: 0x9BDE0, symSize: 0x120 }
  - { offsetInCU: 0x1D617, offset: 0x391149, size: 0x8, addend: 0x0, symName: '__ZN4core3ptr94drop_in_place$LT$syn..punctuated..Punctuated$LT$syn..pat..FieldPat$C$syn..token..Comma$GT$$GT$17hb2b4aed8f633cba0E', symObjAddr: 0x7150, symBinAddr: 0x9BF00, symSize: 0xF0 }
  - { offsetInCU: 0x1D916, offset: 0x391448, size: 0x8, addend: 0x0, symName: '__ZN4core3ptr94drop_in_place$LT$syn..punctuated..Punctuated$LT$syn..ty..BareFnArg$C$syn..token..Comma$GT$$GT$17h59c18cbb4f726140E', symObjAddr: 0x7240, symBinAddr: 0x9BFF0, symSize: 0xF0 }
  - { offsetInCU: 0x1DC17, offset: 0x391749, size: 0x8, addend: 0x0, symName: '__ZN4core3ptr96drop_in_place$LT$core..option..Option$LT$alloc..boxed..Box$LT$syn..path..PathSegment$GT$$GT$$GT$17hd67a31bad3bc4ef4E', symObjAddr: 0x7330, symBinAddr: 0x9C0E0, symSize: 0x1A0 }
  - { offsetInCU: 0x1E2D8, offset: 0x391E0A, size: 0x8, addend: 0x0, symName: '__ZN4core3ptr97drop_in_place$LT$syn..punctuated..Punctuated$LT$syn..expr..FieldValue$C$syn..token..Comma$GT$$GT$17h2644f25adad08ccbE', symObjAddr: 0x74D0, symBinAddr: 0x9C280, symSize: 0xF0 }
  - { offsetInCU: 0x1E651, offset: 0x392183, size: 0x8, addend: 0x0, symName: '__ZN4core3ptr98drop_in_place$LT$syn..punctuated..Punctuated$LT$syn..lifetime..Lifetime$C$syn..token..Plus$GT$$GT$17hfbe9a104e4a4f23fE', symObjAddr: 0x75C0, symBinAddr: 0x9C370, symSize: 0xD0 }
  - { offsetInCU: 0x2953E, offset: 0x39D070, size: 0x8, addend: 0x0, symName: __ZN12borsh_derive9internals9serialize5enums7process17h6db639a7b02826e4E, symObjAddr: 0x7690, symBinAddr: 0x9C440, symSize: 0x2220 }
  - { offsetInCU: 0x2BAB1, offset: 0x39F5E3, size: 0x8, addend: 0x0, symName: __ZN12borsh_derive9internals9serialize5enums13process_field17h6f76a794f431ee73E, symObjAddr: 0x98B0, symBinAddr: 0x9E660, symSize: 0x481 }
  - { offsetInCU: 0x1E, offset: 0x3A4A76, size: 0x8, addend: 0x0, symName: '__ZN4core3ptr100drop_in_place$LT$core..option..Option$LT$alloc..boxed..Box$LT$syn..path..GenericArgument$GT$$GT$$GT$17h807a36ffbab107a4E', symObjAddr: 0x0, symBinAddr: 0x9EAF0, symSize: 0x50 }
  - { offsetInCU: 0x1943, offset: 0x3A639B, size: 0x8, addend: 0x0, symName: '__ZN4core3ptr100drop_in_place$LT$core..option..Option$LT$alloc..boxed..Box$LT$syn..path..GenericArgument$GT$$GT$$GT$17h807a36ffbab107a4E', symObjAddr: 0x0, symBinAddr: 0x9EAF0, symSize: 0x50 }
  - { offsetInCU: 0x1CE1, offset: 0x3A6739, size: 0x8, addend: 0x0, symName: '__ZN4core3ptr100drop_in_place$LT$syn..punctuated..Punctuated$LT$syn..path..PathSegment$C$syn..token..PathSep$GT$$GT$17hcb9c7ae6720123ceE.llvm.12639779309957514692', symObjAddr: 0x50, symBinAddr: 0x9EB40, symSize: 0x270 }
  - { offsetInCU: 0x26A3, offset: 0x3A70FB, size: 0x8, addend: 0x0, symName: '__ZN4core3ptr101drop_in_place$LT$core..option..Option$LT$alloc..vec..Vec$LT$syn..generics..WherePredicate$GT$$GT$$GT$17h9b97eb8149fa9b49E', symObjAddr: 0x2C0, symBinAddr: 0x9EDB0, symSize: 0xD0 }
  - { offsetInCU: 0x2980, offset: 0x3A73D8, size: 0x8, addend: 0x0, symName: '__ZN4core3ptr103drop_in_place$LT$core..option..Option$LT$alloc..boxed..Box$LT$syn..generics..TypeParamBound$GT$$GT$$GT$17h0017d361ebb9471fE', symObjAddr: 0x390, symBinAddr: 0x9EE80, symSize: 0x50 }
  - { offsetInCU: 0x2B8B, offset: 0x3A75E3, size: 0x8, addend: 0x0, symName: '__ZN4core3ptr103drop_in_place$LT$syn..punctuated..Punctuated$LT$syn..generics..GenericParam$C$syn..token..Comma$GT$$GT$17hf5a644fae414a53cE', symObjAddr: 0x3E0, symBinAddr: 0x9EED0, symSize: 0xF0 }
  - { offsetInCU: 0x3086, offset: 0x3A7ADE, size: 0x8, addend: 0x0, symName: '__ZN4core3ptr104drop_in_place$LT$syn..punctuated..Punctuated$LT$syn..generics..TypeParamBound$C$syn..token..Plus$GT$$GT$17ha86a9d1599e32cffE', symObjAddr: 0x4D0, symBinAddr: 0x9EFC0, symSize: 0x190 }
  - { offsetInCU: 0x36A9, offset: 0x3A8101, size: 0x8, addend: 0x0, symName: '__ZN4core3ptr122drop_in_place$LT$core..option..Option$LT$borsh_derive..internals..attributes..field..schema..with_funcs..WithFuncs$GT$$GT$17he02ffe9b3554ccf8E', symObjAddr: 0x660, symBinAddr: 0x9F150, symSize: 0x70 }
  - { offsetInCU: 0x3736, offset: 0x3A818E, size: 0x8, addend: 0x0, symName: '__ZN4core3ptr135drop_in_place$LT$$LP$borsh_derive..internals..attributes..Symbol$C$borsh_derive..internals..attributes..field..bounds..Variants$RP$$GT$17h341bcd2920da8f53E.llvm.12639779309957514692', symObjAddr: 0x6D0, symBinAddr: 0x9F1C0, symSize: 0x140 }
  - { offsetInCU: 0x3B30, offset: 0x3A8588, size: 0x8, addend: 0x0, symName: '__ZN4core3ptr34drop_in_place$LT$syn..lit..Lit$GT$17h7e230476d36822bfE', symObjAddr: 0x810, symBinAddr: 0x9F300, symSize: 0x120 }
  - { offsetInCU: 0x3FFF, offset: 0x3A8A57, size: 0x8, addend: 0x0, symName: '__ZN4core3ptr34drop_in_place$LT$syn..pat..Pat$GT$17h5b0a97e980f53e46E', symObjAddr: 0x930, symBinAddr: 0x9F420, symSize: 0xEE0 }
  - { offsetInCU: 0x7825, offset: 0x3AC27D, size: 0x8, addend: 0x0, symName: '__ZN4core3ptr34drop_in_place$LT$syn..ty..Type$GT$17h19f850f61918f31fE.llvm.12639779309957514692', symObjAddr: 0x1810, symBinAddr: 0xA0300, symSize: 0x4F0 }
  - { offsetInCU: 0x8D68, offset: 0x3AD7C0, size: 0x8, addend: 0x0, symName: '__ZN4core3ptr36drop_in_place$LT$syn..expr..Expr$GT$17h98f7f68f0a06dff7E', symObjAddr: 0x1D00, symBinAddr: 0xA07F0, symSize: 0x2680 }
  - { offsetInCU: 0x11F82, offset: 0x3B69DA, size: 0x8, addend: 0x0, symName: '__ZN4core3ptr36drop_in_place$LT$syn..mac..Macro$GT$17hdf5bac46d7f74bccE', symObjAddr: 0x4380, symBinAddr: 0xA2E70, symSize: 0x40 }
  - { offsetInCU: 0x11FBC, offset: 0x3B6A14, size: 0x8, addend: 0x0, symName: '__ZN4core3ptr36drop_in_place$LT$syn..path..Path$GT$17hb2feba4d905af1b2E', symObjAddr: 0x43C0, symBinAddr: 0xA2EB0, symSize: 0x240 }
  - { offsetInCU: 0x12956, offset: 0x3B73AE, size: 0x8, addend: 0x0, symName: '__ZN4core3ptr37drop_in_place$LT$syn..path..QSelf$GT$17h2ad306e037f599caE.llvm.12639779309957514692', symObjAddr: 0x4600, symBinAddr: 0xA30F0, symSize: 0x50 }
  - { offsetInCU: 0x12ACE, offset: 0x3B7526, size: 0x8, addend: 0x0, symName: '__ZN4core3ptr37drop_in_place$LT$syn..stmt..Block$GT$17h9594e7bdfd216ee2E', symObjAddr: 0x4650, symBinAddr: 0xA3140, symSize: 0xD0 }
  - { offsetInCU: 0x12DA5, offset: 0x3B77FD, size: 0x8, addend: 0x0, symName: '__ZN4core3ptr387drop_in_place$LT$alloc..boxed..Box$LT$dyn$u20$core..ops..function..Fn$LT$$LP$borsh_derive..internals..attributes..Symbol$C$borsh_derive..internals..attributes..Symbol$C$$RF$syn..meta..ParseNestedMeta$RP$$GT$$u2b$Output$u20$$u3d$$u20$core..result..Result$LT$borsh_derive..internals..attributes..field..Variants$C$syn..error..Error$GT$$u2b$core..marker..Sync$u2b$core..marker..Send$GT$$GT$17h77f1b768cc41541aE.llvm.12639779309957514692', symObjAddr: 0x4720, symBinAddr: 0xA3210, symSize: 0x0 }
  - { offsetInCU: 0x12FB1, offset: 0x3B7A09, size: 0x8, addend: 0x0, symName: '__ZN4core3ptr38drop_in_place$LT$syn..expr..Member$GT$17hd3bc25e187f7fae3E', symObjAddr: 0x4790, symBinAddr: 0xA3280, symSize: 0x30 }
  - { offsetInCU: 0x130AD, offset: 0x3B7B05, size: 0x8, addend: 0x0, symName: '__ZN4core3ptr39drop_in_place$LT$proc_macro2..Ident$GT$17hb5fbe0c131bfa218E', symObjAddr: 0x47C0, symBinAddr: 0xA32B0, symSize: 0x30 }
  - { offsetInCU: 0x1318A, offset: 0x3B7BE2, size: 0x8, addend: 0x0, symName: '__ZN4core3ptr40drop_in_place$LT$syn..expr..ExprPath$GT$17hac51ab24dfe997baE.llvm.12639779309957514692', symObjAddr: 0x47F0, symBinAddr: 0xA32E0, symSize: 0x120 }
  - { offsetInCU: 0x1363A, offset: 0x3B8092, size: 0x8, addend: 0x0, symName: '__ZN4core3ptr40drop_in_place$LT$syn..ty..ReturnType$GT$17h2041b3e02720652aE', symObjAddr: 0x4910, symBinAddr: 0xA3400, symSize: 0x50 }
  - { offsetInCU: 0x137AA, offset: 0x3B8202, size: 0x8, addend: 0x0, symName: '__ZN4core3ptr41drop_in_place$LT$syn..expr..ExprConst$GT$17h546d2eac1f274d91E', symObjAddr: 0x4960, symBinAddr: 0xA3450, symSize: 0x180 }
  - { offsetInCU: 0x13D63, offset: 0x3B87BB, size: 0x8, addend: 0x0, symName: '__ZN4core3ptr44drop_in_place$LT$syn..lifetime..Lifetime$GT$17h8afd172b97690efdE', symObjAddr: 0x4AE0, symBinAddr: 0xA35D0, symSize: 0x30 }
  - { offsetInCU: 0x13F95, offset: 0x3B89ED, size: 0x8, addend: 0x0, symName: '__ZN4core3ptr45drop_in_place$LT$proc_macro2..TokenStream$GT$17h207b9d10b43ca09fE', symObjAddr: 0x4B10, symBinAddr: 0xA3600, symSize: 0x140 }
  - { offsetInCU: 0x1442F, offset: 0x3B8E87, size: 0x8, addend: 0x0, symName: '__ZN4core3ptr45drop_in_place$LT$syn..generics..TypeParam$GT$17h6c3c07424bcf6a4eE', symObjAddr: 0x4C50, symBinAddr: 0xA3740, symSize: 0x230 }
  - { offsetInCU: 0x14C70, offset: 0x3B96C8, size: 0x8, addend: 0x0, symName: '__ZN4core3ptr46drop_in_place$LT$syn..generics..ConstParam$GT$17hd0de4a5923445da7E', symObjAddr: 0x4E80, symBinAddr: 0xA3970, symSize: 0x150 }
  - { offsetInCU: 0x150BD, offset: 0x3B9B15, size: 0x8, addend: 0x0, symName: '__ZN4core3ptr47drop_in_place$LT$syn..path..GenericArgument$GT$17hf4dd383aa34a4f0fE', symObjAddr: 0x4FD0, symBinAddr: 0xA3AC0, symSize: 0x4A0 }
  - { offsetInCU: 0x161C3, offset: 0x3BAC1B, size: 0x8, addend: 0x0, symName: '__ZN4core3ptr49drop_in_place$LT$syn..generics..LifetimeParam$GT$17hd0b2e7526885b204E', symObjAddr: 0x5470, symBinAddr: 0xA3F60, symSize: 0xF0 }
  - { offsetInCU: 0x165A6, offset: 0x3BAFFE, size: 0x8, addend: 0x0, symName: '__ZN4core3ptr50drop_in_place$LT$syn..generics..TypeParamBound$GT$17hdc238d3175f8eb5aE', symObjAddr: 0x5560, symBinAddr: 0xA4050, symSize: 0x180 }
  - { offsetInCU: 0x169F0, offset: 0x3BB448, size: 0x8, addend: 0x0, symName: '__ZN4core3ptr58drop_in_place$LT$alloc..vec..Vec$LT$syn..expr..Arm$GT$$GT$17ha0ec4334cda5515cE', symObjAddr: 0x56E0, symBinAddr: 0xA41D0, symSize: 0xD0 }
  - { offsetInCU: 0x16CB0, offset: 0x3BB708, size: 0x8, addend: 0x0, symName: '__ZN4core3ptr59drop_in_place$LT$alloc..boxed..Box$LT$syn..pat..Pat$GT$$GT$17h67f20b4715509286E', symObjAddr: 0x57B0, symBinAddr: 0xA42A0, symSize: 0x50 }
  - { offsetInCU: 0x16E09, offset: 0x3BB861, size: 0x8, addend: 0x0, symName: '__ZN4core3ptr59drop_in_place$LT$alloc..boxed..Box$LT$syn..ty..Type$GT$$GT$17hb9082e267b94188dE', symObjAddr: 0x5800, symBinAddr: 0xA42F0, symSize: 0x50 }
  - { offsetInCU: 0x16F62, offset: 0x3BB9BA, size: 0x8, addend: 0x0, symName: '__ZN4core3ptr61drop_in_place$LT$alloc..boxed..Box$LT$syn..expr..Expr$GT$$GT$17h01310d89a7a8aab3E', symObjAddr: 0x5850, symBinAddr: 0xA4340, symSize: 0x50 }
  - { offsetInCU: 0x17137, offset: 0x3BBB8F, size: 0x8, addend: 0x0, symName: '__ZN4core3ptr61drop_in_place$LT$syn..path..ParenthesizedGenericArguments$GT$17h7fee2959ae354450E', symObjAddr: 0x58A0, symBinAddr: 0xA4390, symSize: 0x170 }
  - { offsetInCU: 0x1772D, offset: 0x3BC185, size: 0x8, addend: 0x0, symName: '__ZN4core3ptr62drop_in_place$LT$syn..path..AngleBracketedGenericArguments$GT$17h79141db867cfe0cbE', symObjAddr: 0x5A10, symBinAddr: 0xA4500, symSize: 0x120 }
  - { offsetInCU: 0x17B78, offset: 0x3BC5D0, size: 0x8, addend: 0x0, symName: '__ZN4core3ptr63drop_in_place$LT$alloc..boxed..Box$LT$syn..lit..LitRepr$GT$$GT$17hf23a84bed7f64f98E', symObjAddr: 0x5B30, symBinAddr: 0xA4620, symSize: 0x60 }
  - { offsetInCU: 0x17E7F, offset: 0x3BC8D7, size: 0x8, addend: 0x0, symName: '__ZN4core3ptr64drop_in_place$LT$alloc..boxed..Box$LT$syn..pat..FieldPat$GT$$GT$17ha5ec27d4d418dbdfE', symObjAddr: 0x5B90, symBinAddr: 0xA4680, symSize: 0x140 }
  - { offsetInCU: 0x1854C, offset: 0x3BCFA4, size: 0x8, addend: 0x0, symName: '__ZN4core3ptr64drop_in_place$LT$alloc..boxed..Box$LT$syn..ty..BareFnArg$GT$$GT$17hb416cdff09d8949eE', symObjAddr: 0x5CD0, symBinAddr: 0xA47C0, symSize: 0x140 }
  - { offsetInCU: 0x18AA1, offset: 0x3BD4F9, size: 0x8, addend: 0x0, symName: '__ZN4core3ptr65drop_in_place$LT$alloc..vec..Vec$LT$proc_macro..TokenTree$GT$$GT$17h54365d0bdf61b883E', symObjAddr: 0x5E10, symBinAddr: 0xA4900, symSize: 0x110 }
  - { offsetInCU: 0x18E99, offset: 0x3BD8F1, size: 0x8, addend: 0x0, symName: '__ZN4core3ptr65drop_in_place$LT$core..option..Option$LT$syn..expr..Label$GT$$GT$17h6cb338f3d3fef208E', symObjAddr: 0x5F20, symBinAddr: 0xA4A10, symSize: 0x30 }
  - { offsetInCU: 0x18FD3, offset: 0x3BDA2B, size: 0x8, addend: 0x0, symName: '__ZN4core3ptr65drop_in_place$LT$core..option..Option$LT$syn..path..QSelf$GT$$GT$17h77b32165fa1277f0E', symObjAddr: 0x5F50, symBinAddr: 0xA4A40, symSize: 0x50 }
  - { offsetInCU: 0x1916A, offset: 0x3BDBC2, size: 0x8, addend: 0x0, symName: '__ZN4core3ptr66drop_in_place$LT$core..option..Option$LT$syn..pat..PatRest$GT$$GT$17h7c9095b226142979E', symObjAddr: 0x5FA0, symBinAddr: 0xA4A90, symSize: 0xE0 }
  - { offsetInCU: 0x1945E, offset: 0x3BDEB6, size: 0x8, addend: 0x0, symName: '__ZN4core3ptr67drop_in_place$LT$alloc..boxed..Box$LT$syn..expr..FieldValue$GT$$GT$17hb048d8ef1ec03e8dE', symObjAddr: 0x6080, symBinAddr: 0xA4B70, symSize: 0x140 }
  - { offsetInCU: 0x19993, offset: 0x3BE3EB, size: 0x8, addend: 0x0, symName: '__ZN4core3ptr68drop_in_place$LT$alloc..boxed..Box$LT$syn..path..PathSegment$GT$$GT$17h582dcd8abb4b1a74E', symObjAddr: 0x61C0, symBinAddr: 0xA4CB0, symSize: 0x1B0 }
  - { offsetInCU: 0x1A0A1, offset: 0x3BEAF9, size: 0x8, addend: 0x0, symName: '__ZN4core3ptr70drop_in_place$LT$core..option..Option$LT$syn..ty..BareVariadic$GT$$GT$17hf6d2a770387443a3E', symObjAddr: 0x6370, symBinAddr: 0xA4E60, symSize: 0x100 }
  - { offsetInCU: 0x1A4D8, offset: 0x3BEF30, size: 0x8, addend: 0x0, symName: '__ZN4core3ptr72drop_in_place$LT$alloc..boxed..Box$LT$syn..path..GenericArgument$GT$$GT$17hcc60f7ab467d198fE', symObjAddr: 0x6470, symBinAddr: 0xA4F60, symSize: 0x1D0 }
  - { offsetInCU: 0x1AA73, offset: 0x3BF4CB, size: 0x8, addend: 0x0, symName: '__ZN4core3ptr72drop_in_place$LT$core..option..Option$LT$syn..lifetime..Lifetime$GT$$GT$17h70ad3b488ebe3596E', symObjAddr: 0x6640, symBinAddr: 0xA5130, symSize: 0x30 }
  - { offsetInCU: 0x1AB8E, offset: 0x3BF5E6, size: 0x8, addend: 0x0, symName: '__ZN4core3ptr73drop_in_place$LT$alloc..boxed..Box$LT$syn..generics..GenericParam$GT$$GT$17hd8823d2eb1a41dfaE', symObjAddr: 0x6670, symBinAddr: 0xA5160, symSize: 0x80 }
  - { offsetInCU: 0x1ADDD, offset: 0x3BF835, size: 0x8, addend: 0x0, symName: '__ZN4core3ptr73drop_in_place$LT$borsh_derive..internals..attributes..field..Variants$GT$17hd8d39875cf34ff27E.llvm.12639779309957514692', symObjAddr: 0x66F0, symBinAddr: 0xA51E0, symSize: 0x330 }
  - { offsetInCU: 0x1B7FD, offset: 0x3C0255, size: 0x8, addend: 0x0, symName: '__ZN4core3ptr75drop_in_place$LT$alloc..boxed..Box$LT$syn..generics..TypeParamBound$GT$$GT$17hc0dbc3e6560133a8E', symObjAddr: 0x6A20, symBinAddr: 0xA5510, symSize: 0xC0 }
  - { offsetInCU: 0x1BAF4, offset: 0x3C054C, size: 0x8, addend: 0x0, symName: '__ZN4core3ptr81drop_in_place$LT$borsh_derive..internals..attributes..field..bounds..Variants$GT$17hb351e70a81248b11E.llvm.12639779309957514692', symObjAddr: 0x6AE0, symBinAddr: 0xA55D0, symSize: 0x140 }
  - { offsetInCU: 0x1BDCE, offset: 0x3C0826, size: 0x8, addend: 0x0, symName: '__ZN4core3ptr81drop_in_place$LT$borsh_derive..internals..attributes..field..schema..Variants$GT$17h1bcb120dc97abdc8E.llvm.12639779309957514692', symObjAddr: 0x6C20, symBinAddr: 0xA5710, symSize: 0x160 }
  - { offsetInCU: 0x1C268, offset: 0x3C0CC0, size: 0x8, addend: 0x0, symName: '__ZN4core3ptr86drop_in_place$LT$syn..punctuated..Punctuated$LT$syn..pat..Pat$C$syn..token..Or$GT$$GT$17hb407e891b009195eE', symObjAddr: 0x6D80, symBinAddr: 0xA5870, symSize: 0x120 }
  - { offsetInCU: 0x1C6E3, offset: 0x3C113B, size: 0x8, addend: 0x0, symName: '__ZN4core3ptr87drop_in_place$LT$core..option..Option$LT$alloc..boxed..Box$LT$syn..pat..Pat$GT$$GT$$GT$17h27575db68a752b00E', symObjAddr: 0x6EA0, symBinAddr: 0xA5990, symSize: 0x50 }
  - { offsetInCU: 0x1C853, offset: 0x3C12AB, size: 0x8, addend: 0x0, symName: '__ZN4core3ptr87drop_in_place$LT$core..option..Option$LT$alloc..boxed..Box$LT$syn..ty..Type$GT$$GT$$GT$17h2cce7e91b6f26339E', symObjAddr: 0x6EF0, symBinAddr: 0xA59E0, symSize: 0x50 }
  - { offsetInCU: 0x1C9C3, offset: 0x3C141B, size: 0x8, addend: 0x0, symName: '__ZN4core3ptr89drop_in_place$LT$core..option..Option$LT$alloc..boxed..Box$LT$syn..expr..Expr$GT$$GT$$GT$17h4805299351d776eaE', symObjAddr: 0x6F40, symBinAddr: 0xA5A30, symSize: 0x50 }
  - { offsetInCU: 0x1CB71, offset: 0x3C15C9, size: 0x8, addend: 0x0, symName: '__ZN4core3ptr89drop_in_place$LT$syn..punctuated..Punctuated$LT$syn..pat..Pat$C$syn..token..Comma$GT$$GT$17hbfa21962153cb723E', symObjAddr: 0x6F90, symBinAddr: 0xA5A80, symSize: 0x120 }
  - { offsetInCU: 0x1D003, offset: 0x3C1A5B, size: 0x8, addend: 0x0, symName: '__ZN4core3ptr89drop_in_place$LT$syn..punctuated..Punctuated$LT$syn..ty..Type$C$syn..token..Comma$GT$$GT$17h487f88da4f994ccfE', symObjAddr: 0x70B0, symBinAddr: 0xA5BA0, symSize: 0x120 }
  - { offsetInCU: 0x1D47E, offset: 0x3C1ED6, size: 0x8, addend: 0x0, symName: '__ZN4core3ptr90drop_in_place$LT$core..option..Option$LT$syn..path..AngleBracketedGenericArguments$GT$$GT$17h44b2ad11f3f45684E', symObjAddr: 0x71D0, symBinAddr: 0xA5CC0, symSize: 0x130 }
  - { offsetInCU: 0x1D920, offset: 0x3C2378, size: 0x8, addend: 0x0, symName: '__ZN4core3ptr91drop_in_place$LT$syn..punctuated..Punctuated$LT$syn..expr..Expr$C$syn..token..Comma$GT$$GT$17hd2c79695be72d75eE', symObjAddr: 0x7300, symBinAddr: 0xA5DF0, symSize: 0x120 }
  - { offsetInCU: 0x1DDAE, offset: 0x3C2806, size: 0x8, addend: 0x0, symName: '__ZN4core3ptr94drop_in_place$LT$syn..punctuated..Punctuated$LT$syn..pat..FieldPat$C$syn..token..Comma$GT$$GT$17hb2b4aed8f633cba0E', symObjAddr: 0x7420, symBinAddr: 0xA5F10, symSize: 0xF0 }
  - { offsetInCU: 0x1E0AD, offset: 0x3C2B05, size: 0x8, addend: 0x0, symName: '__ZN4core3ptr94drop_in_place$LT$syn..punctuated..Punctuated$LT$syn..ty..BareFnArg$C$syn..token..Comma$GT$$GT$17h59c18cbb4f726140E', symObjAddr: 0x7510, symBinAddr: 0xA6000, symSize: 0xF0 }
  - { offsetInCU: 0x1E3AE, offset: 0x3C2E06, size: 0x8, addend: 0x0, symName: '__ZN4core3ptr96drop_in_place$LT$core..option..Option$LT$alloc..boxed..Box$LT$syn..path..PathSegment$GT$$GT$$GT$17hd67a31bad3bc4ef4E', symObjAddr: 0x7600, symBinAddr: 0xA60F0, symSize: 0xA0 }
  - { offsetInCU: 0x1E62D, offset: 0x3C3085, size: 0x8, addend: 0x0, symName: '__ZN4core3ptr97drop_in_place$LT$syn..punctuated..Punctuated$LT$syn..expr..FieldValue$C$syn..token..Comma$GT$$GT$17h2644f25adad08ccbE', symObjAddr: 0x76A0, symBinAddr: 0xA6190, symSize: 0xF0 }
  - { offsetInCU: 0x1E92A, offset: 0x3C3382, size: 0x8, addend: 0x0, symName: '__ZN4core3ptr98drop_in_place$LT$alloc..vec..Vec$LT$$LP$syn..path..GenericArgument$C$syn..token..Comma$RP$$GT$$GT$17h050ecd3ba4b8a9c3E', symObjAddr: 0x7790, symBinAddr: 0xA6280, symSize: 0xD0 }
  - { offsetInCU: 0x1EC6A, offset: 0x3C36C2, size: 0x8, addend: 0x0, symName: '__ZN4core3ptr98drop_in_place$LT$syn..punctuated..Punctuated$LT$syn..lifetime..Lifetime$C$syn..token..Plus$GT$$GT$17hfbe9a104e4a4f23fE', symObjAddr: 0x7860, symBinAddr: 0xA6350, symSize: 0xD0 }
  - { offsetInCU: 0x2AE1D, offset: 0x3CF875, size: 0x8, addend: 0x0, symName: '__ZN5alloc11collections5btree3map5entry28VacantEntry$LT$K$C$V$C$A$GT$6insert17h322c9e29540a5476E', symObjAddr: 0x7930, symBinAddr: 0xA6420, symSize: 0x160 }
  - { offsetInCU: 0x2B354, offset: 0x3CFDAC, size: 0x8, addend: 0x0, symName: '__ZN5alloc11collections5btree3map5entry28VacantEntry$LT$K$C$V$C$A$GT$6insert17h4049941c7edde90bE', symObjAddr: 0x7A90, symBinAddr: 0xA6580, symSize: 0x160 }
  - { offsetInCU: 0x2B88C, offset: 0x3D02E4, size: 0x8, addend: 0x0, symName: '__ZN5alloc11collections5btree3map5entry28VacantEntry$LT$K$C$V$C$A$GT$6insert17h723e19e06ba9905cE', symObjAddr: 0x7BF0, symBinAddr: 0xA66E0, symSize: 0x180 }
  - { offsetInCU: 0x2BD9D, offset: 0x3D07F5, size: 0x8, addend: 0x0, symName: '__ZN5alloc11collections5btree3map5entry28VacantEntry$LT$K$C$V$C$A$GT$6insert17h7a4507b07b6b273dE', symObjAddr: 0x7D70, symBinAddr: 0xA6860, symSize: 0x160 }
  - { offsetInCU: 0x2C2D4, offset: 0x3D0D2C, size: 0x8, addend: 0x0, symName: '__ZN5alloc11collections5btree3map5entry28VacantEntry$LT$K$C$V$C$A$GT$6insert17h8b517dfb75c5dcb8E', symObjAddr: 0x7ED0, symBinAddr: 0xA69C0, symSize: 0x160 }
  - { offsetInCU: 0x2C809, offset: 0x3D1261, size: 0x8, addend: 0x0, symName: '__ZN5alloc11collections5btree3map5entry28VacantEntry$LT$K$C$V$C$A$GT$6insert17hb8a940941f44213bE', symObjAddr: 0x8030, symBinAddr: 0xA6B20, symSize: 0x190 }
  - { offsetInCU: 0x2CD33, offset: 0x3D178B, size: 0x8, addend: 0x0, symName: '__ZN5alloc11collections5btree3map5entry28VacantEntry$LT$K$C$V$C$A$GT$6insert17he4f65db899b149ebE', symObjAddr: 0x81C0, symBinAddr: 0xA6CB0, symSize: 0x170 }
  - { offsetInCU: 0x2D263, offset: 0x3D1CBB, size: 0x8, addend: 0x0, symName: '__ZN5alloc11collections5btree3map5entry28VacantEntry$LT$K$C$V$C$A$GT$6insert17he7f0a117275f7896E', symObjAddr: 0x8330, symBinAddr: 0xA6E20, symSize: 0x180 }
  - { offsetInCU: 0x2D769, offset: 0x3D21C1, size: 0x8, addend: 0x0, symName: '__ZN5alloc11collections5btree3map5entry30OccupiedEntry$LT$K$C$V$C$A$GT$9remove_kv17h0076cd0e5cdbe23fE', symObjAddr: 0x8650, symBinAddr: 0xA6FA0, symSize: 0x100 }
  - { offsetInCU: 0x2DA8B, offset: 0x3D24E3, size: 0x8, addend: 0x0, symName: '__ZN5alloc11collections5btree3map5entry30OccupiedEntry$LT$K$C$V$C$A$GT$9remove_kv17h02f16d06f8af2c81E', symObjAddr: 0x8750, symBinAddr: 0xA70A0, symSize: 0x100 }
  - { offsetInCU: 0x2DDAD, offset: 0x3D2805, size: 0x8, addend: 0x0, symName: '__ZN5alloc11collections5btree3map5entry30OccupiedEntry$LT$K$C$V$C$A$GT$9remove_kv17h94f2731d2034053bE', symObjAddr: 0x8850, symBinAddr: 0xA71A0, symSize: 0x100 }
  - { offsetInCU: 0x2E0E4, offset: 0x3D2B3C, size: 0x8, addend: 0x0, symName: '__ZN5alloc11collections5btree3map5entry30OccupiedEntry$LT$K$C$V$C$A$GT$9remove_kv17ha149cfd307ec1e28E', symObjAddr: 0x8950, symBinAddr: 0xA72A0, symSize: 0x15B }
  - { offsetInCU: 0x1E, offset: 0x3D9D8B, size: 0x8, addend: 0x0, symName: __ZN3syn3lit6LitStr10parse_with17h1f9fd2e0218fe024E, symObjAddr: 0x0, symBinAddr: 0xA7400, symSize: 0x370 }
  - { offsetInCU: 0x1CD2, offset: 0x3DBA3F, size: 0x8, addend: 0x0, symName: '__ZN4core3ptr100drop_in_place$LT$core..option..Option$LT$alloc..boxed..Box$LT$syn..path..GenericArgument$GT$$GT$$GT$17h807a36ffbab107a4E', symObjAddr: 0xE50, symBinAddr: 0xA8250, symSize: 0x50 }
  - { offsetInCU: 0x2070, offset: 0x3DBDDD, size: 0x8, addend: 0x0, symName: '__ZN4core3ptr100drop_in_place$LT$syn..punctuated..Punctuated$LT$syn..path..PathSegment$C$syn..token..PathSep$GT$$GT$17hcb9c7ae6720123ceE', symObjAddr: 0xEA0, symBinAddr: 0xA82A0, symSize: 0x270 }
  - { offsetInCU: 0x2A13, offset: 0x3DC780, size: 0x8, addend: 0x0, symName: '__ZN4core3ptr103drop_in_place$LT$core..option..Option$LT$alloc..boxed..Box$LT$syn..generics..TypeParamBound$GT$$GT$$GT$17h0017d361ebb9471fE', symObjAddr: 0x1110, symBinAddr: 0xA8510, symSize: 0x50 }
  - { offsetInCU: 0x2C5C, offset: 0x3DC9C9, size: 0x8, addend: 0x0, symName: '__ZN4core3ptr103drop_in_place$LT$core..option..Option$LT$alloc..boxed..Box$LT$syn..generics..WherePredicate$GT$$GT$$GT$17he4ee84860b39964eE', symObjAddr: 0x1160, symBinAddr: 0xA8560, symSize: 0xD0 }
  - { offsetInCU: 0x2FF0, offset: 0x3DCD5D, size: 0x8, addend: 0x0, symName: '__ZN4core3ptr103drop_in_place$LT$syn..punctuated..Punctuated$LT$syn..generics..GenericParam$C$syn..token..Comma$GT$$GT$17hf5a644fae414a53cE', symObjAddr: 0x1230, symBinAddr: 0xA8630, symSize: 0xF0 }
  - { offsetInCU: 0x348E, offset: 0x3DD1FB, size: 0x8, addend: 0x0, symName: '__ZN4core3ptr104drop_in_place$LT$syn..punctuated..Punctuated$LT$syn..generics..TypeParamBound$C$syn..token..Plus$GT$$GT$17ha86a9d1599e32cffE', symObjAddr: 0x1320, symBinAddr: 0xA8720, symSize: 0x190 }
  - { offsetInCU: 0x3A73, offset: 0x3DD7E0, size: 0x8, addend: 0x0, symName: '__ZN4core3ptr105drop_in_place$LT$syn..punctuated..Punctuated$LT$syn..generics..WherePredicate$C$syn..token..Comma$GT$$GT$17h0facfbae47ccf694E', symObjAddr: 0x14B0, symBinAddr: 0xA88B0, symSize: 0xE0 }
  - { offsetInCU: 0x3DB8, offset: 0x3DDB25, size: 0x8, addend: 0x0, symName: '__ZN4core3ptr143drop_in_place$LT$core..option..Option$LT$alloc..boxed..Box$LT$borsh_derive..internals..attributes..field..schema..ParameterOverride$GT$$GT$$GT$17h504bfdb7c6aedce8E', symObjAddr: 0x1590, symBinAddr: 0xA8990, symSize: 0x80 }
  - { offsetInCU: 0x4076, offset: 0x3DDDE3, size: 0x8, addend: 0x0, symName: '__ZN4core3ptr145drop_in_place$LT$syn..punctuated..Punctuated$LT$borsh_derive..internals..attributes..field..schema..ParameterOverride$C$syn..token..Comma$GT$$GT$17h78fad09faf4b39d7E', symObjAddr: 0x1610, symBinAddr: 0xA8A10, symSize: 0x190 }
  - { offsetInCU: 0x471E, offset: 0x3DE48B, size: 0x8, addend: 0x0, symName: '__ZN4core3ptr34drop_in_place$LT$syn..lit..Lit$GT$17h7e230476d36822bfE', symObjAddr: 0x17A0, symBinAddr: 0xA8BA0, symSize: 0x120 }
  - { offsetInCU: 0x4BED, offset: 0x3DE95A, size: 0x8, addend: 0x0, symName: '__ZN4core3ptr34drop_in_place$LT$syn..pat..Pat$GT$17h5b0a97e980f53e46E', symObjAddr: 0x18C0, symBinAddr: 0xA8CC0, symSize: 0xEE0 }
  - { offsetInCU: 0x8413, offset: 0x3E2180, size: 0x8, addend: 0x0, symName: '__ZN4core3ptr34drop_in_place$LT$syn..ty..Type$GT$17h19f850f61918f31fE', symObjAddr: 0x27A0, symBinAddr: 0xA9BA0, symSize: 0x4F0 }
  - { offsetInCU: 0x9956, offset: 0x3E36C3, size: 0x8, addend: 0x0, symName: '__ZN4core3ptr36drop_in_place$LT$syn..expr..Expr$GT$17h98f7f68f0a06dff7E', symObjAddr: 0x2C90, symBinAddr: 0xAA090, symSize: 0x2680 }
  - { offsetInCU: 0x12B70, offset: 0x3EC8DD, size: 0x8, addend: 0x0, symName: '__ZN4core3ptr36drop_in_place$LT$syn..mac..Macro$GT$17hdf5bac46d7f74bccE', symObjAddr: 0x5310, symBinAddr: 0xAC710, symSize: 0x40 }
  - { offsetInCU: 0x12BAA, offset: 0x3EC917, size: 0x8, addend: 0x0, symName: '__ZN4core3ptr36drop_in_place$LT$syn..path..Path$GT$17hb2feba4d905af1b2E', symObjAddr: 0x5350, symBinAddr: 0xAC750, symSize: 0x240 }
  - { offsetInCU: 0x13544, offset: 0x3ED2B1, size: 0x8, addend: 0x0, symName: '__ZN4core3ptr37drop_in_place$LT$syn..path..QSelf$GT$17h2ad306e037f599caE', symObjAddr: 0x5590, symBinAddr: 0xAC990, symSize: 0x50 }
  - { offsetInCU: 0x136BC, offset: 0x3ED429, size: 0x8, addend: 0x0, symName: '__ZN4core3ptr37drop_in_place$LT$syn..stmt..Block$GT$17h9594e7bdfd216ee2E', symObjAddr: 0x55E0, symBinAddr: 0xAC9E0, symSize: 0xD0 }
  - { offsetInCU: 0x13993, offset: 0x3ED700, size: 0x8, addend: 0x0, symName: '__ZN4core3ptr38drop_in_place$LT$syn..expr..Member$GT$17hd3bc25e187f7fae3E', symObjAddr: 0x56B0, symBinAddr: 0xACAB0, symSize: 0x30 }
  - { offsetInCU: 0x13A8F, offset: 0x3ED7FC, size: 0x8, addend: 0x0, symName: '__ZN4core3ptr39drop_in_place$LT$proc_macro2..Ident$GT$17hb5fbe0c131bfa218E', symObjAddr: 0x56E0, symBinAddr: 0xACAE0, symSize: 0x30 }
  - { offsetInCU: 0x13B6C, offset: 0x3ED8D9, size: 0x8, addend: 0x0, symName: '__ZN4core3ptr40drop_in_place$LT$syn..expr..ExprPath$GT$17hac51ab24dfe997baE', symObjAddr: 0x5710, symBinAddr: 0xACB10, symSize: 0x120 }
  - { offsetInCU: 0x1401C, offset: 0x3EDD89, size: 0x8, addend: 0x0, symName: '__ZN4core3ptr40drop_in_place$LT$syn..ty..ReturnType$GT$17h2041b3e02720652aE', symObjAddr: 0x5830, symBinAddr: 0xACC30, symSize: 0x50 }
  - { offsetInCU: 0x1418C, offset: 0x3EDEF9, size: 0x8, addend: 0x0, symName: '__ZN4core3ptr41drop_in_place$LT$syn..expr..ExprConst$GT$17h546d2eac1f274d91E', symObjAddr: 0x5880, symBinAddr: 0xACC80, symSize: 0x180 }
  - { offsetInCU: 0x14745, offset: 0x3EE4B2, size: 0x8, addend: 0x0, symName: '__ZN4core3ptr44drop_in_place$LT$syn..lifetime..Lifetime$GT$17h8afd172b97690efdE', symObjAddr: 0x5A00, symBinAddr: 0xACE00, symSize: 0x30 }
  - { offsetInCU: 0x14977, offset: 0x3EE6E4, size: 0x8, addend: 0x0, symName: '__ZN4core3ptr45drop_in_place$LT$proc_macro2..TokenStream$GT$17h207b9d10b43ca09fE.llvm.7573651213689431092', symObjAddr: 0x5A30, symBinAddr: 0xACE30, symSize: 0x140 }
  - { offsetInCU: 0x14E11, offset: 0x3EEB7E, size: 0x8, addend: 0x0, symName: '__ZN4core3ptr45drop_in_place$LT$syn..generics..TypeParam$GT$17h6c3c07424bcf6a4eE', symObjAddr: 0x5B70, symBinAddr: 0xACF70, symSize: 0x230 }
  - { offsetInCU: 0x15652, offset: 0x3EF3BF, size: 0x8, addend: 0x0, symName: '__ZN4core3ptr46drop_in_place$LT$syn..generics..ConstParam$GT$17hd0de4a5923445da7E', symObjAddr: 0x5DA0, symBinAddr: 0xAD1A0, symSize: 0x150 }
  - { offsetInCU: 0x15A9F, offset: 0x3EF80C, size: 0x8, addend: 0x0, symName: '__ZN4core3ptr47drop_in_place$LT$syn..path..GenericArgument$GT$17hf4dd383aa34a4f0fE', symObjAddr: 0x5EF0, symBinAddr: 0xAD2F0, symSize: 0x4A0 }
  - { offsetInCU: 0x16BA5, offset: 0x3F0912, size: 0x8, addend: 0x0, symName: '__ZN4core3ptr49drop_in_place$LT$syn..generics..LifetimeParam$GT$17hd0b2e7526885b204E', symObjAddr: 0x6390, symBinAddr: 0xAD790, symSize: 0xF0 }
  - { offsetInCU: 0x16F88, offset: 0x3F0CF5, size: 0x8, addend: 0x0, symName: '__ZN4core3ptr50drop_in_place$LT$syn..generics..TypeParamBound$GT$17hdc238d3175f8eb5aE', symObjAddr: 0x6480, symBinAddr: 0xAD880, symSize: 0x180 }
  - { offsetInCU: 0x173D2, offset: 0x3F113F, size: 0x8, addend: 0x0, symName: '__ZN4core3ptr58drop_in_place$LT$alloc..vec..Vec$LT$syn..expr..Arm$GT$$GT$17ha0ec4334cda5515cE', symObjAddr: 0x6600, symBinAddr: 0xADA00, symSize: 0xD0 }
  - { offsetInCU: 0x17692, offset: 0x3F13FF, size: 0x8, addend: 0x0, symName: '__ZN4core3ptr59drop_in_place$LT$alloc..boxed..Box$LT$syn..pat..Pat$GT$$GT$17h67f20b4715509286E', symObjAddr: 0x66D0, symBinAddr: 0xADAD0, symSize: 0x50 }
  - { offsetInCU: 0x177EB, offset: 0x3F1558, size: 0x8, addend: 0x0, symName: '__ZN4core3ptr59drop_in_place$LT$alloc..boxed..Box$LT$syn..ty..Type$GT$$GT$17hb9082e267b94188dE', symObjAddr: 0x6720, symBinAddr: 0xADB20, symSize: 0x50 }
  - { offsetInCU: 0x17944, offset: 0x3F16B1, size: 0x8, addend: 0x0, symName: '__ZN4core3ptr61drop_in_place$LT$alloc..boxed..Box$LT$syn..expr..Expr$GT$$GT$17h01310d89a7a8aab3E', symObjAddr: 0x6770, symBinAddr: 0xADB70, symSize: 0x50 }
  - { offsetInCU: 0x17B19, offset: 0x3F1886, size: 0x8, addend: 0x0, symName: '__ZN4core3ptr61drop_in_place$LT$syn..path..ParenthesizedGenericArguments$GT$17h7fee2959ae354450E', symObjAddr: 0x67C0, symBinAddr: 0xADBC0, symSize: 0x170 }
  - { offsetInCU: 0x1810F, offset: 0x3F1E7C, size: 0x8, addend: 0x0, symName: '__ZN4core3ptr62drop_in_place$LT$syn..path..AngleBracketedGenericArguments$GT$17h79141db867cfe0cbE', symObjAddr: 0x6930, symBinAddr: 0xADD30, symSize: 0x120 }
  - { offsetInCU: 0x1855A, offset: 0x3F22C7, size: 0x8, addend: 0x0, symName: '__ZN4core3ptr63drop_in_place$LT$alloc..boxed..Box$LT$syn..lit..LitRepr$GT$$GT$17hf23a84bed7f64f98E.llvm.7573651213689431092', symObjAddr: 0x6A50, symBinAddr: 0xADE50, symSize: 0x60 }
  - { offsetInCU: 0x18861, offset: 0x3F25CE, size: 0x8, addend: 0x0, symName: '__ZN4core3ptr64drop_in_place$LT$alloc..boxed..Box$LT$syn..pat..FieldPat$GT$$GT$17ha5ec27d4d418dbdfE', symObjAddr: 0x6AB0, symBinAddr: 0xADEB0, symSize: 0x140 }
  - { offsetInCU: 0x18F2E, offset: 0x3F2C9B, size: 0x8, addend: 0x0, symName: '__ZN4core3ptr64drop_in_place$LT$alloc..boxed..Box$LT$syn..ty..BareFnArg$GT$$GT$17hb416cdff09d8949eE', symObjAddr: 0x6BF0, symBinAddr: 0xADFF0, symSize: 0x140 }
  - { offsetInCU: 0x19483, offset: 0x3F31F0, size: 0x8, addend: 0x0, symName: '__ZN4core3ptr65drop_in_place$LT$alloc..vec..Vec$LT$proc_macro..TokenTree$GT$$GT$17h54365d0bdf61b883E.llvm.7573651213689431092', symObjAddr: 0x6D30, symBinAddr: 0xAE130, symSize: 0x110 }
  - { offsetInCU: 0x1987B, offset: 0x3F35E8, size: 0x8, addend: 0x0, symName: '__ZN4core3ptr65drop_in_place$LT$core..option..Option$LT$syn..expr..Label$GT$$GT$17h6cb338f3d3fef208E', symObjAddr: 0x6E40, symBinAddr: 0xAE240, symSize: 0x30 }
  - { offsetInCU: 0x199B5, offset: 0x3F3722, size: 0x8, addend: 0x0, symName: '__ZN4core3ptr65drop_in_place$LT$core..option..Option$LT$syn..path..QSelf$GT$$GT$17h77b32165fa1277f0E', symObjAddr: 0x6E70, symBinAddr: 0xAE270, symSize: 0x50 }
  - { offsetInCU: 0x19B4C, offset: 0x3F38B9, size: 0x8, addend: 0x0, symName: '__ZN4core3ptr66drop_in_place$LT$core..option..Option$LT$syn..pat..PatRest$GT$$GT$17h7c9095b226142979E', symObjAddr: 0x6EC0, symBinAddr: 0xAE2C0, symSize: 0xE0 }
  - { offsetInCU: 0x19E40, offset: 0x3F3BAD, size: 0x8, addend: 0x0, symName: '__ZN4core3ptr67drop_in_place$LT$alloc..boxed..Box$LT$syn..expr..FieldValue$GT$$GT$17hb048d8ef1ec03e8dE', symObjAddr: 0x6FA0, symBinAddr: 0xAE3A0, symSize: 0x140 }
  - { offsetInCU: 0x1A375, offset: 0x3F40E2, size: 0x8, addend: 0x0, symName: '__ZN4core3ptr68drop_in_place$LT$alloc..boxed..Box$LT$syn..path..PathSegment$GT$$GT$17h582dcd8abb4b1a74E', symObjAddr: 0x70E0, symBinAddr: 0xAE4E0, symSize: 0x1B0 }
  - { offsetInCU: 0x1AA83, offset: 0x3F47F0, size: 0x8, addend: 0x0, symName: '__ZN4core3ptr70drop_in_place$LT$core..option..Option$LT$syn..ty..BareVariadic$GT$$GT$17hf6d2a770387443a3E', symObjAddr: 0x7290, symBinAddr: 0xAE690, symSize: 0x100 }
  - { offsetInCU: 0x1AEBA, offset: 0x3F4C27, size: 0x8, addend: 0x0, symName: '__ZN4core3ptr72drop_in_place$LT$alloc..boxed..Box$LT$syn..path..GenericArgument$GT$$GT$17hcc60f7ab467d198fE', symObjAddr: 0x7390, symBinAddr: 0xAE790, symSize: 0x1D0 }
  - { offsetInCU: 0x1B455, offset: 0x3F51C2, size: 0x8, addend: 0x0, symName: '__ZN4core3ptr72drop_in_place$LT$core..option..Option$LT$syn..lifetime..Lifetime$GT$$GT$17h70ad3b488ebe3596E', symObjAddr: 0x7560, symBinAddr: 0xAE960, symSize: 0x30 }
  - { offsetInCU: 0x1B570, offset: 0x3F52DD, size: 0x8, addend: 0x0, symName: '__ZN4core3ptr73drop_in_place$LT$alloc..boxed..Box$LT$syn..generics..GenericParam$GT$$GT$17hd8823d2eb1a41dfaE', symObjAddr: 0x7590, symBinAddr: 0xAE990, symSize: 0x80 }
  - { offsetInCU: 0x1B6E6, offset: 0x3F5453, size: 0x8, addend: 0x0, symName: '__ZN4core3ptr75drop_in_place$LT$alloc..boxed..Box$LT$syn..generics..TypeParamBound$GT$$GT$17hc0dbc3e6560133a8E', symObjAddr: 0x7610, symBinAddr: 0xAEA10, symSize: 0xC0 }
  - { offsetInCU: 0x1BA3A, offset: 0x3F57A7, size: 0x8, addend: 0x0, symName: '__ZN4core3ptr86drop_in_place$LT$syn..punctuated..Punctuated$LT$syn..pat..Pat$C$syn..token..Or$GT$$GT$17hb407e891b009195eE', symObjAddr: 0x76D0, symBinAddr: 0xAEAD0, symSize: 0x120 }
  - { offsetInCU: 0x1BEB5, offset: 0x3F5C22, size: 0x8, addend: 0x0, symName: '__ZN4core3ptr87drop_in_place$LT$core..option..Option$LT$alloc..boxed..Box$LT$syn..pat..Pat$GT$$GT$$GT$17h27575db68a752b00E', symObjAddr: 0x77F0, symBinAddr: 0xAEBF0, symSize: 0x50 }
  - { offsetInCU: 0x1C025, offset: 0x3F5D92, size: 0x8, addend: 0x0, symName: '__ZN4core3ptr87drop_in_place$LT$core..option..Option$LT$alloc..boxed..Box$LT$syn..ty..Type$GT$$GT$$GT$17h2cce7e91b6f26339E', symObjAddr: 0x7840, symBinAddr: 0xAEC40, symSize: 0x50 }
  - { offsetInCU: 0x1C195, offset: 0x3F5F02, size: 0x8, addend: 0x0, symName: '__ZN4core3ptr89drop_in_place$LT$core..option..Option$LT$alloc..boxed..Box$LT$syn..expr..Expr$GT$$GT$$GT$17h4805299351d776eaE', symObjAddr: 0x7890, symBinAddr: 0xAEC90, symSize: 0x50 }
  - { offsetInCU: 0x1C343, offset: 0x3F60B0, size: 0x8, addend: 0x0, symName: '__ZN4core3ptr89drop_in_place$LT$syn..punctuated..Punctuated$LT$syn..pat..Pat$C$syn..token..Comma$GT$$GT$17hbfa21962153cb723E', symObjAddr: 0x78E0, symBinAddr: 0xAECE0, symSize: 0x120 }
  - { offsetInCU: 0x1C7D5, offset: 0x3F6542, size: 0x8, addend: 0x0, symName: '__ZN4core3ptr89drop_in_place$LT$syn..punctuated..Punctuated$LT$syn..ty..Type$C$syn..token..Comma$GT$$GT$17h487f88da4f994ccfE', symObjAddr: 0x7A00, symBinAddr: 0xAEE00, symSize: 0x120 }
  - { offsetInCU: 0x1CC50, offset: 0x3F69BD, size: 0x8, addend: 0x0, symName: '__ZN4core3ptr90drop_in_place$LT$core..option..Option$LT$syn..path..AngleBracketedGenericArguments$GT$$GT$17h44b2ad11f3f45684E', symObjAddr: 0x7B20, symBinAddr: 0xAEF20, symSize: 0x130 }
  - { offsetInCU: 0x1D0F2, offset: 0x3F6E5F, size: 0x8, addend: 0x0, symName: '__ZN4core3ptr91drop_in_place$LT$syn..punctuated..Punctuated$LT$syn..expr..Expr$C$syn..token..Comma$GT$$GT$17hd2c79695be72d75eE', symObjAddr: 0x7C50, symBinAddr: 0xAF050, symSize: 0x120 }
  - { offsetInCU: 0x1D580, offset: 0x3F72ED, size: 0x8, addend: 0x0, symName: '__ZN4core3ptr94drop_in_place$LT$syn..punctuated..Punctuated$LT$syn..pat..FieldPat$C$syn..token..Comma$GT$$GT$17hb2b4aed8f633cba0E', symObjAddr: 0x7D70, symBinAddr: 0xAF170, symSize: 0xF0 }
  - { offsetInCU: 0x1D87F, offset: 0x3F75EC, size: 0x8, addend: 0x0, symName: '__ZN4core3ptr94drop_in_place$LT$syn..punctuated..Punctuated$LT$syn..ty..BareFnArg$C$syn..token..Comma$GT$$GT$17h59c18cbb4f726140E', symObjAddr: 0x7E60, symBinAddr: 0xAF260, symSize: 0xF0 }
  - { offsetInCU: 0x1DB80, offset: 0x3F78ED, size: 0x8, addend: 0x0, symName: '__ZN4core3ptr96drop_in_place$LT$core..option..Option$LT$alloc..boxed..Box$LT$syn..path..PathSegment$GT$$GT$$GT$17hd67a31bad3bc4ef4E', symObjAddr: 0x7F50, symBinAddr: 0xAF350, symSize: 0xA0 }
  - { offsetInCU: 0x1DDFF, offset: 0x3F7B6C, size: 0x8, addend: 0x0, symName: '__ZN4core3ptr97drop_in_place$LT$syn..punctuated..Punctuated$LT$syn..expr..FieldValue$C$syn..token..Comma$GT$$GT$17h2644f25adad08ccbE', symObjAddr: 0x7FF0, symBinAddr: 0xAF3F0, symSize: 0xF0 }
  - { offsetInCU: 0x1E0FC, offset: 0x3F7E69, size: 0x8, addend: 0x0, symName: '__ZN4core3ptr98drop_in_place$LT$alloc..vec..Vec$LT$$LP$syn..path..GenericArgument$C$syn..token..Comma$RP$$GT$$GT$17h050ecd3ba4b8a9c3E', symObjAddr: 0x80E0, symBinAddr: 0xAF4E0, symSize: 0xD0 }
  - { offsetInCU: 0x1E43C, offset: 0x3F81A9, size: 0x8, addend: 0x0, symName: '__ZN4core3ptr98drop_in_place$LT$syn..punctuated..Punctuated$LT$syn..lifetime..Lifetime$C$syn..token..Plus$GT$$GT$17hfbe9a104e4a4f23fE', symObjAddr: 0x81B0, symBinAddr: 0xAF5B0, symSize: 0xD0 }
  - { offsetInCU: 0x28D97, offset: 0x402B04, size: 0x8, addend: 0x0, symName: __ZN3syn3lit6LitStr10parse_with17h1f9fd2e0218fe024E, symObjAddr: 0x0, symBinAddr: 0xA7400, symSize: 0x370 }
  - { offsetInCU: 0x29912, offset: 0x40367F, size: 0x8, addend: 0x0, symName: __ZN3syn3lit6LitStr10parse_with17h36cfe1d43b8fb680E, symObjAddr: 0x370, symBinAddr: 0xA7770, symSize: 0x360 }
  - { offsetInCU: 0x2A4E3, offset: 0x404250, size: 0x8, addend: 0x0, symName: __ZN3syn3lit6LitStr10parse_with17hbaa35a7ed8106782E, symObjAddr: 0x6D0, symBinAddr: 0xA7AD0, symSize: 0x450 }
  - { offsetInCU: 0x2B40C, offset: 0x405179, size: 0x8, addend: 0x0, symName: __ZN3syn3lit6LitStr10parse_with17he016b7306c787b0cE, symObjAddr: 0xB20, symBinAddr: 0xA7F20, symSize: 0x330 }
  - { offsetInCU: 0x2CBC1, offset: 0x40692E, size: 0x8, addend: 0x0, symName: __ZN5quote9to_tokens8ToTokens17into_token_stream17h01dca0caaf0f8b82E, symObjAddr: 0x8280, symBinAddr: 0xAF680, symSize: 0xD2 }
  - { offsetInCU: 0x1E, offset: 0x408D0A, size: 0x8, addend: 0x0, symName: '__ZN4core3ptr100drop_in_place$LT$core..option..Option$LT$alloc..boxed..Box$LT$syn..path..GenericArgument$GT$$GT$$GT$17h807a36ffbab107a4E', symObjAddr: 0x0, symBinAddr: 0xAF760, symSize: 0x50 }
  - { offsetInCU: 0x191A, offset: 0x40A606, size: 0x8, addend: 0x0, symName: '__ZN4core3ptr100drop_in_place$LT$core..option..Option$LT$alloc..boxed..Box$LT$syn..path..GenericArgument$GT$$GT$$GT$17h807a36ffbab107a4E', symObjAddr: 0x0, symBinAddr: 0xAF760, symSize: 0x50 }
  - { offsetInCU: 0x1AE7, offset: 0x40A7D3, size: 0x8, addend: 0x0, symName: '__ZN4core3ptr102drop_in_place$LT$syn..punctuated..Punctuated$LT$syn..path..GenericArgument$C$syn..token..Comma$GT$$GT$17h87ac6172553c146eE', symObjAddr: 0x50, symBinAddr: 0xAF7B0, symSize: 0xF0 }
  - { offsetInCU: 0x1E07, offset: 0x40AAF3, size: 0x8, addend: 0x0, symName: '__ZN4core3ptr103drop_in_place$LT$core..option..Option$LT$alloc..boxed..Box$LT$syn..generics..TypeParamBound$GT$$GT$$GT$17h0017d361ebb9471fE', symObjAddr: 0x140, symBinAddr: 0xAF8A0, symSize: 0x50 }
  - { offsetInCU: 0x20CC, offset: 0x40ADB8, size: 0x8, addend: 0x0, symName: '__ZN4core3ptr103drop_in_place$LT$core..option..Option$LT$alloc..boxed..Box$LT$syn..generics..WherePredicate$GT$$GT$$GT$17he4ee84860b39964eE', symObjAddr: 0x190, symBinAddr: 0xAF8F0, symSize: 0xD0 }
  - { offsetInCU: 0x2460, offset: 0x40B14C, size: 0x8, addend: 0x0, symName: '__ZN4core3ptr103drop_in_place$LT$syn..punctuated..Punctuated$LT$syn..generics..GenericParam$C$syn..token..Comma$GT$$GT$17hf5a644fae414a53cE', symObjAddr: 0x260, symBinAddr: 0xAF9C0, symSize: 0xF0 }
  - { offsetInCU: 0x295B, offset: 0x40B647, size: 0x8, addend: 0x0, symName: '__ZN4core3ptr104drop_in_place$LT$syn..punctuated..Punctuated$LT$syn..generics..TypeParamBound$C$syn..token..Plus$GT$$GT$17ha86a9d1599e32cffE', symObjAddr: 0x350, symBinAddr: 0xAFAB0, symSize: 0x240 }
  - { offsetInCU: 0x3292, offset: 0x40BF7E, size: 0x8, addend: 0x0, symName: '__ZN4core3ptr34drop_in_place$LT$syn..lit..Lit$GT$17h7e230476d36822bfE', symObjAddr: 0x590, symBinAddr: 0xAFCF0, symSize: 0x120 }
  - { offsetInCU: 0x3780, offset: 0x40C46C, size: 0x8, addend: 0x0, symName: '__ZN4core3ptr34drop_in_place$LT$syn..pat..Pat$GT$17h5b0a97e980f53e46E', symObjAddr: 0x6B0, symBinAddr: 0xAFE10, symSize: 0xF40 }
  - { offsetInCU: 0x7246, offset: 0x40FF32, size: 0x8, addend: 0x0, symName: '__ZN4core3ptr34drop_in_place$LT$syn..ty..Type$GT$17h19f850f61918f31fE', symObjAddr: 0x15F0, symBinAddr: 0xB0D50, symSize: 0x580 }
  - { offsetInCU: 0x8ACF, offset: 0x4117BB, size: 0x8, addend: 0x0, symName: '__ZN4core3ptr36drop_in_place$LT$syn..expr..Expr$GT$17h98f7f68f0a06dff7E', symObjAddr: 0x1B70, symBinAddr: 0xB12D0, symSize: 0x2730 }
  - { offsetInCU: 0x11F2F, offset: 0x41AC1B, size: 0x8, addend: 0x0, symName: '__ZN4core3ptr36drop_in_place$LT$syn..mac..Macro$GT$17hdf5bac46d7f74bccE', symObjAddr: 0x42A0, symBinAddr: 0xB3A00, symSize: 0xE0 }
  - { offsetInCU: 0x122B9, offset: 0x41AFA5, size: 0x8, addend: 0x0, symName: '__ZN4core3ptr36drop_in_place$LT$syn..path..Path$GT$17hb2feba4d905af1b2E', symObjAddr: 0x4380, symBinAddr: 0xB3AE0, symSize: 0x240 }
  - { offsetInCU: 0x12C53, offset: 0x41B93F, size: 0x8, addend: 0x0, symName: '__ZN4core3ptr37drop_in_place$LT$syn..stmt..Block$GT$17h9594e7bdfd216ee2E', symObjAddr: 0x45C0, symBinAddr: 0xB3D20, symSize: 0xD0 }
  - { offsetInCU: 0x12F2A, offset: 0x41BC16, size: 0x8, addend: 0x0, symName: '__ZN4core3ptr38drop_in_place$LT$syn..expr..Member$GT$17hd3bc25e187f7fae3E', symObjAddr: 0x4690, symBinAddr: 0xB3DF0, symSize: 0x30 }
  - { offsetInCU: 0x13026, offset: 0x41BD12, size: 0x8, addend: 0x0, symName: '__ZN4core3ptr39drop_in_place$LT$proc_macro2..Ident$GT$17hb5fbe0c131bfa218E', symObjAddr: 0x46C0, symBinAddr: 0xB3E20, symSize: 0x30 }
  - { offsetInCU: 0x13103, offset: 0x41BDEF, size: 0x8, addend: 0x0, symName: '__ZN4core3ptr40drop_in_place$LT$syn..ty..ReturnType$GT$17h2041b3e02720652aE', symObjAddr: 0x46F0, symBinAddr: 0xB3E50, symSize: 0x50 }
  - { offsetInCU: 0x13273, offset: 0x41BF5F, size: 0x8, addend: 0x0, symName: '__ZN4core3ptr41drop_in_place$LT$syn..expr..ExprConst$GT$17h546d2eac1f274d91E', symObjAddr: 0x4740, symBinAddr: 0xB3EA0, symSize: 0x180 }
  - { offsetInCU: 0x1382C, offset: 0x41C518, size: 0x8, addend: 0x0, symName: '__ZN4core3ptr44drop_in_place$LT$syn..generics..Generics$GT$17h6cc36a2c79e64375E', symObjAddr: 0x48C0, symBinAddr: 0xB4020, symSize: 0x40 }
  - { offsetInCU: 0x13849, offset: 0x41C535, size: 0x8, addend: 0x0, symName: '__ZN4core3ptr44drop_in_place$LT$syn..lifetime..Lifetime$GT$17h8afd172b97690efdE', symObjAddr: 0x4900, symBinAddr: 0xB4060, symSize: 0x30 }
  - { offsetInCU: 0x13A7B, offset: 0x41C767, size: 0x8, addend: 0x0, symName: '__ZN4core3ptr45drop_in_place$LT$proc_macro2..TokenStream$GT$17h207b9d10b43ca09fE', symObjAddr: 0x4930, symBinAddr: 0xB4090, symSize: 0x140 }
  - { offsetInCU: 0x13F15, offset: 0x41CC01, size: 0x8, addend: 0x0, symName: '__ZN4core3ptr45drop_in_place$LT$syn..generics..TypeParam$GT$17h6c3c07424bcf6a4eE', symObjAddr: 0x4A70, symBinAddr: 0xB41D0, symSize: 0x230 }
  - { offsetInCU: 0x14756, offset: 0x41D442, size: 0x8, addend: 0x0, symName: '__ZN4core3ptr46drop_in_place$LT$syn..generics..ConstParam$GT$17hd0de4a5923445da7E', symObjAddr: 0x4CA0, symBinAddr: 0xB4400, symSize: 0x150 }
  - { offsetInCU: 0x14BA3, offset: 0x41D88F, size: 0x8, addend: 0x0, symName: '__ZN4core3ptr47drop_in_place$LT$syn..generics..WhereClause$GT$17h886e9dcae0082af0E', symObjAddr: 0x4DF0, symBinAddr: 0xB4550, symSize: 0xE0 }
  - { offsetInCU: 0x14F26, offset: 0x41DC12, size: 0x8, addend: 0x0, symName: '__ZN4core3ptr47drop_in_place$LT$syn..path..GenericArgument$GT$17hf4dd383aa34a4f0fE', symObjAddr: 0x4ED0, symBinAddr: 0xB4630, symSize: 0x450 }
  - { offsetInCU: 0x15C9C, offset: 0x41E988, size: 0x8, addend: 0x0, symName: '__ZN4core3ptr49drop_in_place$LT$syn..generics..LifetimeParam$GT$17hd0b2e7526885b204E', symObjAddr: 0x5320, symBinAddr: 0xB4A80, symSize: 0xF0 }
  - { offsetInCU: 0x1607F, offset: 0x41ED6B, size: 0x8, addend: 0x0, symName: '__ZN4core3ptr50drop_in_place$LT$syn..generics..TypeParamBound$GT$17hdc238d3175f8eb5aE', symObjAddr: 0x5410, symBinAddr: 0xB4B70, symSize: 0xA0 }
  - { offsetInCU: 0x161E5, offset: 0x41EED1, size: 0x8, addend: 0x0, symName: '__ZN4core3ptr58drop_in_place$LT$alloc..vec..Vec$LT$syn..expr..Arm$GT$$GT$17ha0ec4334cda5515cE', symObjAddr: 0x54B0, symBinAddr: 0xB4C10, symSize: 0xD0 }
  - { offsetInCU: 0x164A5, offset: 0x41F191, size: 0x8, addend: 0x0, symName: '__ZN4core3ptr59drop_in_place$LT$alloc..boxed..Box$LT$syn..pat..Pat$GT$$GT$17h67f20b4715509286E', symObjAddr: 0x5580, symBinAddr: 0xB4CE0, symSize: 0x50 }
  - { offsetInCU: 0x165FE, offset: 0x41F2EA, size: 0x8, addend: 0x0, symName: '__ZN4core3ptr59drop_in_place$LT$alloc..boxed..Box$LT$syn..ty..Type$GT$$GT$17hb9082e267b94188dE', symObjAddr: 0x55D0, symBinAddr: 0xB4D30, symSize: 0x50 }
  - { offsetInCU: 0x16757, offset: 0x41F443, size: 0x8, addend: 0x0, symName: '__ZN4core3ptr61drop_in_place$LT$alloc..boxed..Box$LT$syn..expr..Expr$GT$$GT$17h01310d89a7a8aab3E', symObjAddr: 0x5620, symBinAddr: 0xB4D80, symSize: 0x50 }
  - { offsetInCU: 0x168B0, offset: 0x41F59C, size: 0x8, addend: 0x0, symName: '__ZN4core3ptr61drop_in_place$LT$syn..path..ParenthesizedGenericArguments$GT$17h7fee2959ae354450E', symObjAddr: 0x5670, symBinAddr: 0xB4DD0, symSize: 0x170 }
  - { offsetInCU: 0x16EB9, offset: 0x41FBA5, size: 0x8, addend: 0x0, symName: '__ZN4core3ptr63drop_in_place$LT$alloc..boxed..Box$LT$syn..lit..LitRepr$GT$$GT$17hf23a84bed7f64f98E', symObjAddr: 0x57E0, symBinAddr: 0xB4F40, symSize: 0x60 }
  - { offsetInCU: 0x171C0, offset: 0x41FEAC, size: 0x8, addend: 0x0, symName: '__ZN4core3ptr64drop_in_place$LT$alloc..boxed..Box$LT$syn..pat..FieldPat$GT$$GT$17ha5ec27d4d418dbdfE', symObjAddr: 0x5840, symBinAddr: 0xB4FA0, symSize: 0x140 }
  - { offsetInCU: 0x1788D, offset: 0x420579, size: 0x8, addend: 0x0, symName: '__ZN4core3ptr64drop_in_place$LT$alloc..boxed..Box$LT$syn..ty..BareFnArg$GT$$GT$17hb416cdff09d8949eE', symObjAddr: 0x5980, symBinAddr: 0xB50E0, symSize: 0x140 }
  - { offsetInCU: 0x17DE2, offset: 0x420ACE, size: 0x8, addend: 0x0, symName: '__ZN4core3ptr65drop_in_place$LT$alloc..vec..Vec$LT$proc_macro..TokenTree$GT$$GT$17h54365d0bdf61b883E', symObjAddr: 0x5AC0, symBinAddr: 0xB5220, symSize: 0x110 }
  - { offsetInCU: 0x181DA, offset: 0x420EC6, size: 0x8, addend: 0x0, symName: '__ZN4core3ptr65drop_in_place$LT$core..option..Option$LT$syn..expr..Label$GT$$GT$17h6cb338f3d3fef208E', symObjAddr: 0x5BD0, symBinAddr: 0xB5330, symSize: 0x30 }
  - { offsetInCU: 0x18314, offset: 0x421000, size: 0x8, addend: 0x0, symName: '__ZN4core3ptr66drop_in_place$LT$core..option..Option$LT$syn..pat..PatRest$GT$$GT$17h7c9095b226142979E', symObjAddr: 0x5C00, symBinAddr: 0xB5360, symSize: 0xE0 }
  - { offsetInCU: 0x18608, offset: 0x4212F4, size: 0x8, addend: 0x0, symName: '__ZN4core3ptr67drop_in_place$LT$alloc..boxed..Box$LT$syn..expr..FieldValue$GT$$GT$17hb048d8ef1ec03e8dE', symObjAddr: 0x5CE0, symBinAddr: 0xB5440, symSize: 0x140 }
  - { offsetInCU: 0x18C54, offset: 0x421940, size: 0x8, addend: 0x0, symName: '__ZN4core3ptr68drop_in_place$LT$borsh_derive..internals..generics..FindTyParams$GT$17he80daff20c61038bE', symObjAddr: 0x5E20, symBinAddr: 0xB5580, symSize: 0xA0 }
  - { offsetInCU: 0x19068, offset: 0x421D54, size: 0x8, addend: 0x0, symName: '__ZN4core3ptr70drop_in_place$LT$core..option..Option$LT$syn..ty..BareVariadic$GT$$GT$17hf6d2a770387443a3E', symObjAddr: 0x5EC0, symBinAddr: 0xB5620, symSize: 0x100 }
  - { offsetInCU: 0x1949F, offset: 0x42218B, size: 0x8, addend: 0x0, symName: '__ZN4core3ptr72drop_in_place$LT$alloc..boxed..Box$LT$syn..path..GenericArgument$GT$$GT$17hcc60f7ab467d198fE', symObjAddr: 0x5FC0, symBinAddr: 0xB5720, symSize: 0x2B0 }
  - { offsetInCU: 0x19EB0, offset: 0x422B9C, size: 0x8, addend: 0x0, symName: '__ZN4core3ptr72drop_in_place$LT$core..option..Option$LT$syn..lifetime..Lifetime$GT$$GT$17h70ad3b488ebe3596E', symObjAddr: 0x6270, symBinAddr: 0xB59D0, symSize: 0x30 }
  - { offsetInCU: 0x19FCB, offset: 0x422CB7, size: 0x8, addend: 0x0, symName: '__ZN4core3ptr73drop_in_place$LT$alloc..boxed..Box$LT$syn..generics..GenericParam$GT$$GT$17hd8823d2eb1a41dfaE', symObjAddr: 0x62A0, symBinAddr: 0xB5A00, symSize: 0x80 }
  - { offsetInCU: 0x1A17F, offset: 0x422E6B, size: 0x8, addend: 0x0, symName: '__ZN4core3ptr73drop_in_place$LT$borsh_derive..internals..deserialize..GenericsOutput$GT$17h1d1595f535d9f1ceE', symObjAddr: 0x6320, symBinAddr: 0xB5A80, symSize: 0x100 }
  - { offsetInCU: 0x1A461, offset: 0x42314D, size: 0x8, addend: 0x0, symName: '__ZN4core3ptr75drop_in_place$LT$alloc..boxed..Box$LT$syn..generics..TypeParamBound$GT$$GT$17hc0dbc3e6560133a8E', symObjAddr: 0x6420, symBinAddr: 0xB5B80, symSize: 0x180 }
  - { offsetInCU: 0x1AA0F, offset: 0x4236FB, size: 0x8, addend: 0x0, symName: '__ZN4core3ptr75drop_in_place$LT$core..option..Option$LT$syn..generics..WhereClause$GT$$GT$17h2c16f6dc41ab983cE', symObjAddr: 0x65A0, symBinAddr: 0xB5D00, symSize: 0x100 }
  - { offsetInCU: 0x1ADC6, offset: 0x423AB2, size: 0x8, addend: 0x0, symName: '__ZN4core3ptr86drop_in_place$LT$syn..punctuated..Punctuated$LT$syn..pat..Pat$C$syn..token..Or$GT$$GT$17hb407e891b009195eE', symObjAddr: 0x66A0, symBinAddr: 0xB5E00, symSize: 0x120 }
  - { offsetInCU: 0x1B241, offset: 0x423F2D, size: 0x8, addend: 0x0, symName: '__ZN4core3ptr87drop_in_place$LT$core..option..Option$LT$alloc..boxed..Box$LT$syn..pat..Pat$GT$$GT$$GT$17h27575db68a752b00E', symObjAddr: 0x67C0, symBinAddr: 0xB5F20, symSize: 0x50 }
  - { offsetInCU: 0x1B3B1, offset: 0x42409D, size: 0x8, addend: 0x0, symName: '__ZN4core3ptr87drop_in_place$LT$core..option..Option$LT$alloc..boxed..Box$LT$syn..ty..Type$GT$$GT$$GT$17h2cce7e91b6f26339E', symObjAddr: 0x6810, symBinAddr: 0xB5F70, symSize: 0x50 }
  - { offsetInCU: 0x1B521, offset: 0x42420D, size: 0x8, addend: 0x0, symName: '__ZN4core3ptr89drop_in_place$LT$core..option..Option$LT$alloc..boxed..Box$LT$syn..expr..Expr$GT$$GT$$GT$17h4805299351d776eaE', symObjAddr: 0x6860, symBinAddr: 0xB5FC0, symSize: 0x50 }
  - { offsetInCU: 0x1B6CF, offset: 0x4243BB, size: 0x8, addend: 0x0, symName: '__ZN4core3ptr89drop_in_place$LT$syn..punctuated..Punctuated$LT$syn..pat..Pat$C$syn..token..Comma$GT$$GT$17hbfa21962153cb723E', symObjAddr: 0x68B0, symBinAddr: 0xB6010, symSize: 0x120 }
  - { offsetInCU: 0x1BB9F, offset: 0x42488B, size: 0x8, addend: 0x0, symName: '__ZN4core3ptr91drop_in_place$LT$syn..punctuated..Punctuated$LT$syn..expr..Expr$C$syn..token..Comma$GT$$GT$17hd2c79695be72d75eE', symObjAddr: 0x69D0, symBinAddr: 0xB6130, symSize: 0x120 }
  - { offsetInCU: 0x1C02D, offset: 0x424D19, size: 0x8, addend: 0x0, symName: '__ZN4core3ptr94drop_in_place$LT$syn..punctuated..Punctuated$LT$syn..pat..FieldPat$C$syn..token..Comma$GT$$GT$17hb2b4aed8f633cba0E', symObjAddr: 0x6AF0, symBinAddr: 0xB6250, symSize: 0xF0 }
  - { offsetInCU: 0x1C32C, offset: 0x425018, size: 0x8, addend: 0x0, symName: '__ZN4core3ptr94drop_in_place$LT$syn..punctuated..Punctuated$LT$syn..ty..BareFnArg$C$syn..token..Comma$GT$$GT$17h59c18cbb4f726140E', symObjAddr: 0x6BE0, symBinAddr: 0xB6340, symSize: 0xF0 }
  - { offsetInCU: 0x1C62D, offset: 0x425319, size: 0x8, addend: 0x0, symName: '__ZN4core3ptr96drop_in_place$LT$core..option..Option$LT$alloc..boxed..Box$LT$syn..path..PathSegment$GT$$GT$$GT$17hd67a31bad3bc4ef4E', symObjAddr: 0x6CD0, symBinAddr: 0xB6430, symSize: 0x1A0 }
  - { offsetInCU: 0x1CCEE, offset: 0x4259DA, size: 0x8, addend: 0x0, symName: '__ZN4core3ptr97drop_in_place$LT$syn..punctuated..Punctuated$LT$syn..expr..FieldValue$C$syn..token..Comma$GT$$GT$17h2644f25adad08ccbE', symObjAddr: 0x6E70, symBinAddr: 0xB65D0, symSize: 0xF0 }
  - { offsetInCU: 0x1D067, offset: 0x425D53, size: 0x8, addend: 0x0, symName: '__ZN4core3ptr98drop_in_place$LT$syn..punctuated..Punctuated$LT$syn..lifetime..Lifetime$C$syn..token..Plus$GT$$GT$17hfbe9a104e4a4f23fE', symObjAddr: 0x6F60, symBinAddr: 0xB66C0, symSize: 0xD0 }
  - { offsetInCU: 0x28234, offset: 0x430F20, size: 0x8, addend: 0x0, symName: __ZN12borsh_derive9internals11deserialize5enums7process17h04d4e67b1e7c2378E, symObjAddr: 0x7030, symBinAddr: 0xB6790, symSize: 0x1F09 }
  - { offsetInCU: 0x1E, offset: 0x435AE5, size: 0x8, addend: 0x0, symName: '__ZN4core3ptr100drop_in_place$LT$core..option..Option$LT$alloc..boxed..Box$LT$syn..path..GenericArgument$GT$$GT$$GT$17h807a36ffbab107a4E', symObjAddr: 0x0, symBinAddr: 0xB86A0, symSize: 0x50 }
  - { offsetInCU: 0x27F1, offset: 0x4382B8, size: 0x8, addend: 0x0, symName: '__ZN4core3ptr100drop_in_place$LT$core..option..Option$LT$alloc..boxed..Box$LT$syn..path..GenericArgument$GT$$GT$$GT$17h807a36ffbab107a4E', symObjAddr: 0x0, symBinAddr: 0xB86A0, symSize: 0x50 }
  - { offsetInCU: 0x2B8F, offset: 0x438656, size: 0x8, addend: 0x0, symName: '__ZN4core3ptr100drop_in_place$LT$syn..punctuated..Punctuated$LT$syn..path..PathSegment$C$syn..token..PathSep$GT$$GT$17hcb9c7ae6720123ceE', symObjAddr: 0x50, symBinAddr: 0xB86F0, symSize: 0x270 }
  - { offsetInCU: 0x3532, offset: 0x438FF9, size: 0x8, addend: 0x0, symName: '__ZN4core3ptr103drop_in_place$LT$core..option..Option$LT$alloc..boxed..Box$LT$syn..generics..TypeParamBound$GT$$GT$$GT$17h0017d361ebb9471fE', symObjAddr: 0x2C0, symBinAddr: 0xB8960, symSize: 0x50 }
  - { offsetInCU: 0x373D, offset: 0x439204, size: 0x8, addend: 0x0, symName: '__ZN4core3ptr103drop_in_place$LT$syn..punctuated..Punctuated$LT$syn..generics..GenericParam$C$syn..token..Comma$GT$$GT$17hf5a644fae414a53cE', symObjAddr: 0x310, symBinAddr: 0xB89B0, symSize: 0xF0 }
  - { offsetInCU: 0x3C38, offset: 0x4396FF, size: 0x8, addend: 0x0, symName: '__ZN4core3ptr104drop_in_place$LT$syn..punctuated..Punctuated$LT$syn..generics..TypeParamBound$C$syn..token..Plus$GT$$GT$17ha86a9d1599e32cffE', symObjAddr: 0x400, symBinAddr: 0xB8AA0, symSize: 0x190 }
  - { offsetInCU: 0x42D7, offset: 0x439D9E, size: 0x8, addend: 0x0, symName: '__ZN4core3ptr34drop_in_place$LT$syn..lit..Lit$GT$17h7e230476d36822bfE', symObjAddr: 0x590, symBinAddr: 0xB8C30, symSize: 0x120 }
  - { offsetInCU: 0x47C5, offset: 0x43A28C, size: 0x8, addend: 0x0, symName: '__ZN4core3ptr34drop_in_place$LT$syn..pat..Pat$GT$17h5b0a97e980f53e46E', symObjAddr: 0x6B0, symBinAddr: 0xB8D50, symSize: 0x1090 }
  - { offsetInCU: 0x87C5, offset: 0x43E28C, size: 0x8, addend: 0x0, symName: '__ZN4core3ptr34drop_in_place$LT$syn..ty..Type$GT$17h19f850f61918f31fE', symObjAddr: 0x1740, symBinAddr: 0xB9DE0, symSize: 0x4F0 }
  - { offsetInCU: 0x9D08, offset: 0x43F7CF, size: 0x8, addend: 0x0, symName: '__ZN4core3ptr36drop_in_place$LT$syn..expr..Expr$GT$17h98f7f68f0a06dff7E', symObjAddr: 0x1C30, symBinAddr: 0xBA2D0, symSize: 0x27D0 }
  - { offsetInCU: 0x1343C, offset: 0x448F03, size: 0x8, addend: 0x0, symName: '__ZN4core3ptr36drop_in_place$LT$syn..mac..Macro$GT$17hdf5bac46d7f74bccE', symObjAddr: 0x4400, symBinAddr: 0xBCAA0, symSize: 0x40 }
  - { offsetInCU: 0x13476, offset: 0x448F3D, size: 0x8, addend: 0x0, symName: '__ZN4core3ptr36drop_in_place$LT$syn..path..Path$GT$17hb2feba4d905af1b2E', symObjAddr: 0x4440, symBinAddr: 0xBCAE0, symSize: 0x240 }
  - { offsetInCU: 0x13E10, offset: 0x4498D7, size: 0x8, addend: 0x0, symName: '__ZN4core3ptr37drop_in_place$LT$syn..stmt..Block$GT$17h9594e7bdfd216ee2E', symObjAddr: 0x4680, symBinAddr: 0xBCD20, symSize: 0xD0 }
  - { offsetInCU: 0x140E7, offset: 0x449BAE, size: 0x8, addend: 0x0, symName: '__ZN4core3ptr38drop_in_place$LT$syn..expr..Member$GT$17hd3bc25e187f7fae3E', symObjAddr: 0x4750, symBinAddr: 0xBCDF0, symSize: 0x30 }
  - { offsetInCU: 0x141E3, offset: 0x449CAA, size: 0x8, addend: 0x0, symName: '__ZN4core3ptr39drop_in_place$LT$proc_macro2..Ident$GT$17hb5fbe0c131bfa218E', symObjAddr: 0x4780, symBinAddr: 0xBCE20, symSize: 0x30 }
  - { offsetInCU: 0x142C0, offset: 0x449D87, size: 0x8, addend: 0x0, symName: '__ZN4core3ptr40drop_in_place$LT$syn..ty..ReturnType$GT$17h2041b3e02720652aE', symObjAddr: 0x47B0, symBinAddr: 0xBCE50, symSize: 0x50 }
  - { offsetInCU: 0x14430, offset: 0x449EF7, size: 0x8, addend: 0x0, symName: '__ZN4core3ptr41drop_in_place$LT$syn..expr..ExprConst$GT$17h546d2eac1f274d91E', symObjAddr: 0x4800, symBinAddr: 0xBCEA0, symSize: 0x180 }
  - { offsetInCU: 0x149E9, offset: 0x44A4B0, size: 0x8, addend: 0x0, symName: '__ZN4core3ptr44drop_in_place$LT$syn..lifetime..Lifetime$GT$17h8afd172b97690efdE', symObjAddr: 0x4980, symBinAddr: 0xBD020, symSize: 0x30 }
  - { offsetInCU: 0x14C1B, offset: 0x44A6E2, size: 0x8, addend: 0x0, symName: '__ZN4core3ptr45drop_in_place$LT$proc_macro2..TokenStream$GT$17h207b9d10b43ca09fE', symObjAddr: 0x49B0, symBinAddr: 0xBD050, symSize: 0x140 }
  - { offsetInCU: 0x150B5, offset: 0x44AB7C, size: 0x8, addend: 0x0, symName: '__ZN4core3ptr45drop_in_place$LT$syn..generics..TypeParam$GT$17h6c3c07424bcf6a4eE', symObjAddr: 0x4AF0, symBinAddr: 0xBD190, symSize: 0x230 }
  - { offsetInCU: 0x158F6, offset: 0x44B3BD, size: 0x8, addend: 0x0, symName: '__ZN4core3ptr46drop_in_place$LT$syn..generics..ConstParam$GT$17hd0de4a5923445da7E', symObjAddr: 0x4D20, symBinAddr: 0xBD3C0, symSize: 0x150 }
  - { offsetInCU: 0x15D43, offset: 0x44B80A, size: 0x8, addend: 0x0, symName: '__ZN4core3ptr47drop_in_place$LT$syn..path..GenericArgument$GT$17hf4dd383aa34a4f0fE', symObjAddr: 0x4E70, symBinAddr: 0xBD510, symSize: 0x4A0 }
  - { offsetInCU: 0x16E49, offset: 0x44C910, size: 0x8, addend: 0x0, symName: '__ZN4core3ptr49drop_in_place$LT$syn..generics..LifetimeParam$GT$17hd0b2e7526885b204E', symObjAddr: 0x5310, symBinAddr: 0xBD9B0, symSize: 0xF0 }
  - { offsetInCU: 0x1722C, offset: 0x44CCF3, size: 0x8, addend: 0x0, symName: '__ZN4core3ptr50drop_in_place$LT$syn..generics..TypeParamBound$GT$17hdc238d3175f8eb5aE', symObjAddr: 0x5400, symBinAddr: 0xBDAA0, symSize: 0x180 }
  - { offsetInCU: 0x17676, offset: 0x44D13D, size: 0x8, addend: 0x0, symName: '__ZN4core3ptr58drop_in_place$LT$alloc..vec..Vec$LT$syn..expr..Arm$GT$$GT$17ha0ec4334cda5515cE', symObjAddr: 0x5580, symBinAddr: 0xBDC20, symSize: 0xD0 }
  - { offsetInCU: 0x17936, offset: 0x44D3FD, size: 0x8, addend: 0x0, symName: '__ZN4core3ptr59drop_in_place$LT$alloc..boxed..Box$LT$syn..pat..Pat$GT$$GT$17h67f20b4715509286E', symObjAddr: 0x5650, symBinAddr: 0xBDCF0, symSize: 0x50 }
  - { offsetInCU: 0x17A8F, offset: 0x44D556, size: 0x8, addend: 0x0, symName: '__ZN4core3ptr59drop_in_place$LT$alloc..boxed..Box$LT$syn..ty..Type$GT$$GT$17hb9082e267b94188dE', symObjAddr: 0x56A0, symBinAddr: 0xBDD40, symSize: 0x50 }
  - { offsetInCU: 0x17BE8, offset: 0x44D6AF, size: 0x8, addend: 0x0, symName: '__ZN4core3ptr61drop_in_place$LT$alloc..boxed..Box$LT$syn..expr..Expr$GT$$GT$17h01310d89a7a8aab3E', symObjAddr: 0x56F0, symBinAddr: 0xBDD90, symSize: 0x50 }
  - { offsetInCU: 0x17DBD, offset: 0x44D884, size: 0x8, addend: 0x0, symName: '__ZN4core3ptr61drop_in_place$LT$syn..path..ParenthesizedGenericArguments$GT$17h7fee2959ae354450E', symObjAddr: 0x5740, symBinAddr: 0xBDDE0, symSize: 0x170 }
  - { offsetInCU: 0x183B3, offset: 0x44DE7A, size: 0x8, addend: 0x0, symName: '__ZN4core3ptr62drop_in_place$LT$syn..path..AngleBracketedGenericArguments$GT$17h79141db867cfe0cbE', symObjAddr: 0x58B0, symBinAddr: 0xBDF50, symSize: 0x120 }
  - { offsetInCU: 0x187FE, offset: 0x44E2C5, size: 0x8, addend: 0x0, symName: '__ZN4core3ptr63drop_in_place$LT$alloc..boxed..Box$LT$syn..lit..LitRepr$GT$$GT$17hf23a84bed7f64f98E', symObjAddr: 0x59D0, symBinAddr: 0xBE070, symSize: 0x60 }
  - { offsetInCU: 0x18B05, offset: 0x44E5CC, size: 0x8, addend: 0x0, symName: '__ZN4core3ptr64drop_in_place$LT$alloc..boxed..Box$LT$syn..pat..FieldPat$GT$$GT$17ha5ec27d4d418dbdfE', symObjAddr: 0x5A30, symBinAddr: 0xBE0D0, symSize: 0x140 }
  - { offsetInCU: 0x191D2, offset: 0x44EC99, size: 0x8, addend: 0x0, symName: '__ZN4core3ptr64drop_in_place$LT$alloc..boxed..Box$LT$syn..ty..BareFnArg$GT$$GT$17hb416cdff09d8949eE', symObjAddr: 0x5B70, symBinAddr: 0xBE210, symSize: 0x140 }
  - { offsetInCU: 0x19727, offset: 0x44F1EE, size: 0x8, addend: 0x0, symName: '__ZN4core3ptr65drop_in_place$LT$alloc..vec..Vec$LT$proc_macro..TokenTree$GT$$GT$17h54365d0bdf61b883E', symObjAddr: 0x5CB0, symBinAddr: 0xBE350, symSize: 0x110 }
  - { offsetInCU: 0x19B1F, offset: 0x44F5E6, size: 0x8, addend: 0x0, symName: '__ZN4core3ptr65drop_in_place$LT$core..option..Option$LT$syn..expr..Label$GT$$GT$17h6cb338f3d3fef208E', symObjAddr: 0x5DC0, symBinAddr: 0xBE460, symSize: 0x30 }
  - { offsetInCU: 0x19C59, offset: 0x44F720, size: 0x8, addend: 0x0, symName: '__ZN4core3ptr66drop_in_place$LT$core..option..Option$LT$syn..pat..PatRest$GT$$GT$17h7c9095b226142979E', symObjAddr: 0x5DF0, symBinAddr: 0xBE490, symSize: 0xE0 }
  - { offsetInCU: 0x19F4D, offset: 0x44FA14, size: 0x8, addend: 0x0, symName: '__ZN4core3ptr67drop_in_place$LT$alloc..boxed..Box$LT$syn..expr..FieldValue$GT$$GT$17hb048d8ef1ec03e8dE', symObjAddr: 0x5ED0, symBinAddr: 0xBE570, symSize: 0x140 }
  - { offsetInCU: 0x1A482, offset: 0x44FF49, size: 0x8, addend: 0x0, symName: '__ZN4core3ptr68drop_in_place$LT$alloc..boxed..Box$LT$syn..path..PathSegment$GT$$GT$17h582dcd8abb4b1a74E', symObjAddr: 0x6010, symBinAddr: 0xBE6B0, symSize: 0x1B0 }
  - { offsetInCU: 0x1AB90, offset: 0x450657, size: 0x8, addend: 0x0, symName: '__ZN4core3ptr70drop_in_place$LT$core..option..Option$LT$syn..ty..BareVariadic$GT$$GT$17hf6d2a770387443a3E', symObjAddr: 0x61C0, symBinAddr: 0xBE860, symSize: 0x100 }
  - { offsetInCU: 0x1AFC7, offset: 0x450A8E, size: 0x8, addend: 0x0, symName: '__ZN4core3ptr72drop_in_place$LT$alloc..boxed..Box$LT$syn..path..GenericArgument$GT$$GT$17hcc60f7ab467d198fE', symObjAddr: 0x62C0, symBinAddr: 0xBE960, symSize: 0x1D0 }
  - { offsetInCU: 0x1B562, offset: 0x451029, size: 0x8, addend: 0x0, symName: '__ZN4core3ptr72drop_in_place$LT$core..option..Option$LT$syn..lifetime..Lifetime$GT$$GT$17h70ad3b488ebe3596E', symObjAddr: 0x6490, symBinAddr: 0xBEB30, symSize: 0x30 }
  - { offsetInCU: 0x1B67D, offset: 0x451144, size: 0x8, addend: 0x0, symName: '__ZN4core3ptr73drop_in_place$LT$alloc..boxed..Box$LT$syn..generics..GenericParam$GT$$GT$17hd8823d2eb1a41dfaE', symObjAddr: 0x64C0, symBinAddr: 0xBEB60, symSize: 0x80 }
  - { offsetInCU: 0x1B7F3, offset: 0x4512BA, size: 0x8, addend: 0x0, symName: '__ZN4core3ptr75drop_in_place$LT$alloc..boxed..Box$LT$syn..generics..TypeParamBound$GT$$GT$17hc0dbc3e6560133a8E', symObjAddr: 0x6540, symBinAddr: 0xBEBE0, symSize: 0xC0 }
  - { offsetInCU: 0x1BB47, offset: 0x45160E, size: 0x8, addend: 0x0, symName: '__ZN4core3ptr86drop_in_place$LT$syn..punctuated..Punctuated$LT$syn..pat..Pat$C$syn..token..Or$GT$$GT$17hb407e891b009195eE', symObjAddr: 0x6600, symBinAddr: 0xBECA0, symSize: 0x120 }
  - { offsetInCU: 0x1BFC2, offset: 0x451A89, size: 0x8, addend: 0x0, symName: '__ZN4core3ptr87drop_in_place$LT$core..option..Option$LT$alloc..boxed..Box$LT$syn..pat..Pat$GT$$GT$$GT$17h27575db68a752b00E', symObjAddr: 0x6720, symBinAddr: 0xBEDC0, symSize: 0x50 }
  - { offsetInCU: 0x1C132, offset: 0x451BF9, size: 0x8, addend: 0x0, symName: '__ZN4core3ptr87drop_in_place$LT$core..option..Option$LT$alloc..boxed..Box$LT$syn..ty..Type$GT$$GT$$GT$17h2cce7e91b6f26339E', symObjAddr: 0x6770, symBinAddr: 0xBEE10, symSize: 0x50 }
  - { offsetInCU: 0x1C2A2, offset: 0x451D69, size: 0x8, addend: 0x0, symName: '__ZN4core3ptr89drop_in_place$LT$core..option..Option$LT$alloc..boxed..Box$LT$syn..expr..Expr$GT$$GT$$GT$17h4805299351d776eaE', symObjAddr: 0x67C0, symBinAddr: 0xBEE60, symSize: 0x50 }
  - { offsetInCU: 0x1C450, offset: 0x451F17, size: 0x8, addend: 0x0, symName: '__ZN4core3ptr89drop_in_place$LT$syn..punctuated..Punctuated$LT$syn..pat..Pat$C$syn..token..Comma$GT$$GT$17hbfa21962153cb723E', symObjAddr: 0x6810, symBinAddr: 0xBEEB0, symSize: 0x120 }
  - { offsetInCU: 0x1C8E2, offset: 0x4523A9, size: 0x8, addend: 0x0, symName: '__ZN4core3ptr89drop_in_place$LT$syn..punctuated..Punctuated$LT$syn..ty..Type$C$syn..token..Comma$GT$$GT$17h487f88da4f994ccfE', symObjAddr: 0x6930, symBinAddr: 0xBEFD0, symSize: 0x120 }
  - { offsetInCU: 0x1CD5D, offset: 0x452824, size: 0x8, addend: 0x0, symName: '__ZN4core3ptr90drop_in_place$LT$core..option..Option$LT$syn..path..AngleBracketedGenericArguments$GT$$GT$17h44b2ad11f3f45684E', symObjAddr: 0x6A50, symBinAddr: 0xBF0F0, symSize: 0x130 }
  - { offsetInCU: 0x1D1FF, offset: 0x452CC6, size: 0x8, addend: 0x0, symName: '__ZN4core3ptr91drop_in_place$LT$syn..punctuated..Punctuated$LT$syn..expr..Expr$C$syn..token..Comma$GT$$GT$17hd2c79695be72d75eE', symObjAddr: 0x6B80, symBinAddr: 0xBF220, symSize: 0x120 }
  - { offsetInCU: 0x1D68D, offset: 0x453154, size: 0x8, addend: 0x0, symName: '__ZN4core3ptr94drop_in_place$LT$syn..punctuated..Punctuated$LT$syn..pat..FieldPat$C$syn..token..Comma$GT$$GT$17hb2b4aed8f633cba0E', symObjAddr: 0x6CA0, symBinAddr: 0xBF340, symSize: 0xF0 }
  - { offsetInCU: 0x1D98C, offset: 0x453453, size: 0x8, addend: 0x0, symName: '__ZN4core3ptr94drop_in_place$LT$syn..punctuated..Punctuated$LT$syn..ty..BareFnArg$C$syn..token..Comma$GT$$GT$17h59c18cbb4f726140E', symObjAddr: 0x6D90, symBinAddr: 0xBF430, symSize: 0xF0 }
  - { offsetInCU: 0x1DC8D, offset: 0x453754, size: 0x8, addend: 0x0, symName: '__ZN4core3ptr96drop_in_place$LT$core..option..Option$LT$alloc..boxed..Box$LT$syn..path..PathSegment$GT$$GT$$GT$17hd67a31bad3bc4ef4E', symObjAddr: 0x6E80, symBinAddr: 0xBF520, symSize: 0xA0 }
  - { offsetInCU: 0x1DF0C, offset: 0x4539D3, size: 0x8, addend: 0x0, symName: '__ZN4core3ptr97drop_in_place$LT$syn..punctuated..Punctuated$LT$syn..expr..FieldValue$C$syn..token..Comma$GT$$GT$17h2644f25adad08ccbE', symObjAddr: 0x6F20, symBinAddr: 0xBF5C0, symSize: 0xF0 }
  - { offsetInCU: 0x1E209, offset: 0x453CD0, size: 0x8, addend: 0x0, symName: '__ZN4core3ptr98drop_in_place$LT$alloc..vec..Vec$LT$$LP$syn..path..GenericArgument$C$syn..token..Comma$RP$$GT$$GT$17h050ecd3ba4b8a9c3E', symObjAddr: 0x7010, symBinAddr: 0xBF6B0, symSize: 0xD0 }
  - { offsetInCU: 0x1E549, offset: 0x454010, size: 0x8, addend: 0x0, symName: '__ZN4core3ptr98drop_in_place$LT$syn..punctuated..Punctuated$LT$syn..lifetime..Lifetime$C$syn..token..Plus$GT$$GT$17hfbe9a104e4a4f23fE', symObjAddr: 0x70E0, symBinAddr: 0xBF780, symSize: 0xD0 }
  - { offsetInCU: 0x29565, offset: 0x45F02C, size: 0x8, addend: 0x0, symName: __ZN12borsh_derive9internals17enum_discriminant13Discriminants3new17h69ccf0a84aab0360E, symObjAddr: 0x71B0, symBinAddr: 0xBF850, symSize: 0x560 }
  - { offsetInCU: 0x2A85F, offset: 0x460326, size: 0x8, addend: 0x0, symName: __ZN12borsh_derive9internals17enum_discriminant13Discriminants3get17h96d1107205f97c0cE, symObjAddr: 0x7710, symBinAddr: 0xBFDB0, symSize: 0x32E }
  - { offsetInCU: 0x1E, offset: 0x46316E, size: 0x8, addend: 0x0, symName: __ZN10proc_macro6bridge6client14HandleCounters3get17h2c76d49220b98e92E, symObjAddr: 0x0, symBinAddr: 0xC00E0, symSize: 0x10 }
  - { offsetInCU: 0x40, offset: 0x463190, size: 0x8, addend: 0x0, symName: ___rustc_proc_macro_decls_2e43221fc68df0e3__, symObjAddr: 0xA818, symBinAddr: 0x3CD0C0, symSize: 0x0 }
  - { offsetInCU: 0x6D, offset: 0x4631BD, size: 0x8, addend: 0x0, symName: __ZN12borsh_derive25check_attrs_get_cratename17h42ca3e64f64c6ef5E, symObjAddr: 0x8080, symBinAddr: 0xC8160, symSize: 0x1C0 }
  - { offsetInCU: 0x472, offset: 0x4635C2, size: 0x8, addend: 0x0, symName: __ZN12borsh_derive15borsh_serialize17h2f441f4d3f39a40aE, symObjAddr: 0x8240, symBinAddr: 0xC8320, symSize: 0x5F0 }
  - { offsetInCU: 0x104E, offset: 0x46419E, size: 0x8, addend: 0x0, symName: __ZN12borsh_derive17borsh_deserialize17h3ae59e2183f7e103E, symObjAddr: 0x8830, symBinAddr: 0xC8910, symSize: 0x5F0 }
  - { offsetInCU: 0x1C2A, offset: 0x464D7A, size: 0x8, addend: 0x0, symName: __ZN12borsh_derive12borsh_schema17h3b2488035cc26e2fE, symObjAddr: 0x8E20, symBinAddr: 0xC8F00, symSize: 0x6D0 }
  - { offsetInCU: 0x633C, offset: 0x46948C, size: 0x8, addend: 0x0, symName: '__ZN4core3ptr100drop_in_place$LT$core..option..Option$LT$alloc..boxed..Box$LT$syn..path..GenericArgument$GT$$GT$$GT$17h807a36ffbab107a4E', symObjAddr: 0x10, symBinAddr: 0xC00F0, symSize: 0x50 }
  - { offsetInCU: 0x6509, offset: 0x469659, size: 0x8, addend: 0x0, symName: '__ZN4core3ptr102drop_in_place$LT$syn..punctuated..Punctuated$LT$syn..path..GenericArgument$C$syn..token..Comma$GT$$GT$17h87ac6172553c146eE', symObjAddr: 0x60, symBinAddr: 0xC0140, symSize: 0xF0 }
  - { offsetInCU: 0x6829, offset: 0x469979, size: 0x8, addend: 0x0, symName: '__ZN4core3ptr103drop_in_place$LT$core..option..Option$LT$alloc..boxed..Box$LT$syn..generics..TypeParamBound$GT$$GT$$GT$17h0017d361ebb9471fE', symObjAddr: 0x150, symBinAddr: 0xC0230, symSize: 0x50 }
  - { offsetInCU: 0x6AEE, offset: 0x469C3E, size: 0x8, addend: 0x0, symName: '__ZN4core3ptr103drop_in_place$LT$core..option..Option$LT$alloc..boxed..Box$LT$syn..generics..WherePredicate$GT$$GT$$GT$17he4ee84860b39964eE', symObjAddr: 0x1A0, symBinAddr: 0xC0280, symSize: 0xD0 }
  - { offsetInCU: 0x6E82, offset: 0x469FD2, size: 0x8, addend: 0x0, symName: '__ZN4core3ptr103drop_in_place$LT$syn..punctuated..Punctuated$LT$syn..generics..GenericParam$C$syn..token..Comma$GT$$GT$17hf5a644fae414a53cE', symObjAddr: 0x270, symBinAddr: 0xC0350, symSize: 0xF0 }
  - { offsetInCU: 0x737D, offset: 0x46A4CD, size: 0x8, addend: 0x0, symName: '__ZN4core3ptr104drop_in_place$LT$syn..punctuated..Punctuated$LT$syn..generics..TypeParamBound$C$syn..token..Plus$GT$$GT$17ha86a9d1599e32cffE', symObjAddr: 0x360, symBinAddr: 0xC0440, symSize: 0x240 }
  - { offsetInCU: 0x7CB4, offset: 0x46AE04, size: 0x8, addend: 0x0, symName: '__ZN4core3ptr34drop_in_place$LT$syn..lit..Lit$GT$17h7e230476d36822bfE', symObjAddr: 0x5A0, symBinAddr: 0xC0680, symSize: 0x120 }
  - { offsetInCU: 0x81A2, offset: 0x46B2F2, size: 0x8, addend: 0x0, symName: '__ZN4core3ptr34drop_in_place$LT$syn..pat..Pat$GT$17h5b0a97e980f53e46E', symObjAddr: 0x6C0, symBinAddr: 0xC07A0, symSize: 0xF40 }
  - { offsetInCU: 0xBC68, offset: 0x46EDB8, size: 0x8, addend: 0x0, symName: '__ZN4core3ptr34drop_in_place$LT$syn..ty..Type$GT$17h19f850f61918f31fE', symObjAddr: 0x1600, symBinAddr: 0xC16E0, symSize: 0x580 }
  - { offsetInCU: 0xD4F1, offset: 0x470641, size: 0x8, addend: 0x0, symName: '__ZN4core3ptr36drop_in_place$LT$syn..expr..Expr$GT$17h98f7f68f0a06dff7E', symObjAddr: 0x1B80, symBinAddr: 0xC1C60, symSize: 0x2730 }
  - { offsetInCU: 0x16951, offset: 0x479AA1, size: 0x8, addend: 0x0, symName: '__ZN4core3ptr36drop_in_place$LT$syn..mac..Macro$GT$17hdf5bac46d7f74bccE', symObjAddr: 0x42B0, symBinAddr: 0xC4390, symSize: 0xE0 }
  - { offsetInCU: 0x16CDB, offset: 0x479E2B, size: 0x8, addend: 0x0, symName: '__ZN4core3ptr36drop_in_place$LT$syn..path..Path$GT$17hb2feba4d905af1b2E', symObjAddr: 0x4390, symBinAddr: 0xC4470, symSize: 0x240 }
  - { offsetInCU: 0x17675, offset: 0x47A7C5, size: 0x8, addend: 0x0, symName: '__ZN4core3ptr37drop_in_place$LT$syn..stmt..Block$GT$17h9594e7bdfd216ee2E', symObjAddr: 0x45D0, symBinAddr: 0xC46B0, symSize: 0xD0 }
  - { offsetInCU: 0x179E7, offset: 0x47AB37, size: 0x8, addend: 0x0, symName: '__ZN4core3ptr38drop_in_place$LT$syn..data..Fields$GT$17h94a42cb3cde271eeE', symObjAddr: 0x46A0, symBinAddr: 0xC4780, symSize: 0x190 }
  - { offsetInCU: 0x17EEB, offset: 0x47B03B, size: 0x8, addend: 0x0, symName: '__ZN4core3ptr38drop_in_place$LT$syn..derive..Data$GT$17ha7c2d2584ce21ed6E', symObjAddr: 0x4830, symBinAddr: 0xC4910, symSize: 0x1D0 }
  - { offsetInCU: 0x185CF, offset: 0x47B71F, size: 0x8, addend: 0x0, symName: '__ZN4core3ptr38drop_in_place$LT$syn..error..Error$GT$17h629ad0985f92efc9E', symObjAddr: 0x4A00, symBinAddr: 0xC4AE0, symSize: 0x90 }
  - { offsetInCU: 0x1887E, offset: 0x47B9CE, size: 0x8, addend: 0x0, symName: '__ZN4core3ptr38drop_in_place$LT$syn..expr..Member$GT$17hd3bc25e187f7fae3E', symObjAddr: 0x4A90, symBinAddr: 0xC4B70, symSize: 0x30 }
  - { offsetInCU: 0x1897A, offset: 0x47BACA, size: 0x8, addend: 0x0, symName: '__ZN4core3ptr39drop_in_place$LT$proc_macro2..Ident$GT$17hb5fbe0c131bfa218E', symObjAddr: 0x4AC0, symBinAddr: 0xC4BA0, symSize: 0x30 }
  - { offsetInCU: 0x18AD3, offset: 0x47BC23, size: 0x8, addend: 0x0, symName: '__ZN4core3ptr40drop_in_place$LT$syn..item..ItemEnum$GT$17hc51cef1779d36fc2E', symObjAddr: 0x4AF0, symBinAddr: 0xC4BD0, symSize: 0x240 }
  - { offsetInCU: 0x19319, offset: 0x47C469, size: 0x8, addend: 0x0, symName: '__ZN4core3ptr40drop_in_place$LT$syn..ty..ReturnType$GT$17h2041b3e02720652aE', symObjAddr: 0x4D30, symBinAddr: 0xC4E10, symSize: 0x50 }
  - { offsetInCU: 0x19489, offset: 0x47C5D9, size: 0x8, addend: 0x0, symName: '__ZN4core3ptr41drop_in_place$LT$syn..expr..ExprConst$GT$17h546d2eac1f274d91E', symObjAddr: 0x4D80, symBinAddr: 0xC4E60, symSize: 0x180 }
  - { offsetInCU: 0x19A42, offset: 0x47CB92, size: 0x8, addend: 0x0, symName: '__ZN4core3ptr41drop_in_place$LT$syn..item..ItemUnion$GT$17h4235a1fd7b84ab2dE', symObjAddr: 0x4F00, symBinAddr: 0xC4FE0, symSize: 0x250 }
  - { offsetInCU: 0x1A2A3, offset: 0x47D3F3, size: 0x8, addend: 0x0, symName: '__ZN4core3ptr42drop_in_place$LT$syn..item..ItemStruct$GT$17h3ea4702e48db4792E', symObjAddr: 0x5150, symBinAddr: 0xC5230, symSize: 0x190 }
  - { offsetInCU: 0x1A7E7, offset: 0x47D937, size: 0x8, addend: 0x0, symName: '__ZN4core3ptr43drop_in_place$LT$syn..data..FieldsNamed$GT$17h3a62e728a0de492fE', symObjAddr: 0x52E0, symBinAddr: 0xC53C0, symSize: 0xE0 }
  - { offsetInCU: 0x1AB0D, offset: 0x47DC5D, size: 0x8, addend: 0x0, symName: '__ZN4core3ptr44drop_in_place$LT$syn..generics..Generics$GT$17h6cc36a2c79e64375E', symObjAddr: 0x53C0, symBinAddr: 0xC54A0, symSize: 0x40 }
  - { offsetInCU: 0x1AB2A, offset: 0x47DC7A, size: 0x8, addend: 0x0, symName: '__ZN4core3ptr44drop_in_place$LT$syn..lifetime..Lifetime$GT$17h8afd172b97690efdE', symObjAddr: 0x5400, symBinAddr: 0xC54E0, symSize: 0x30 }
  - { offsetInCU: 0x1AD5C, offset: 0x47DEAC, size: 0x8, addend: 0x0, symName: '__ZN4core3ptr45drop_in_place$LT$proc_macro2..TokenStream$GT$17h207b9d10b43ca09fE', symObjAddr: 0x5430, symBinAddr: 0xC5510, symSize: 0x140 }
  - { offsetInCU: 0x1B1B8, offset: 0x47E308, size: 0x8, addend: 0x0, symName: '__ZN4core3ptr45drop_in_place$LT$syn..derive..DeriveInput$GT$17hd3395813efa9185aE', symObjAddr: 0x5570, symBinAddr: 0xC5650, symSize: 0x190 }
  - { offsetInCU: 0x1B73F, offset: 0x47E88F, size: 0x8, addend: 0x0, symName: '__ZN4core3ptr45drop_in_place$LT$syn..generics..TypeParam$GT$17h6c3c07424bcf6a4eE', symObjAddr: 0x5700, symBinAddr: 0xC57E0, symSize: 0x230 }
  - { offsetInCU: 0x1BF80, offset: 0x47F0D0, size: 0x8, addend: 0x0, symName: '__ZN4core3ptr46drop_in_place$LT$syn..generics..ConstParam$GT$17hd0de4a5923445da7E', symObjAddr: 0x5930, symBinAddr: 0xC5A10, symSize: 0x150 }
  - { offsetInCU: 0x1C3CD, offset: 0x47F51D, size: 0x8, addend: 0x0, symName: '__ZN4core3ptr47drop_in_place$LT$syn..path..GenericArgument$GT$17hf4dd383aa34a4f0fE', symObjAddr: 0x5A80, symBinAddr: 0xC5B60, symSize: 0x450 }
  - { offsetInCU: 0x1D143, offset: 0x480293, size: 0x8, addend: 0x0, symName: '__ZN4core3ptr49drop_in_place$LT$syn..generics..LifetimeParam$GT$17hd0b2e7526885b204E', symObjAddr: 0x5ED0, symBinAddr: 0xC5FB0, symSize: 0xF0 }
  - { offsetInCU: 0x1D526, offset: 0x480676, size: 0x8, addend: 0x0, symName: '__ZN4core3ptr49drop_in_place$LT$syn..restriction..Visibility$GT$17h1d2333c931110048E', symObjAddr: 0x5FC0, symBinAddr: 0xC60A0, symSize: 0x60 }
  - { offsetInCU: 0x1D697, offset: 0x4807E7, size: 0x8, addend: 0x0, symName: '__ZN4core3ptr50drop_in_place$LT$syn..generics..TypeParamBound$GT$17hdc238d3175f8eb5aE', symObjAddr: 0x6020, symBinAddr: 0xC6100, symSize: 0xA0 }
  - { offsetInCU: 0x1D7FD, offset: 0x48094D, size: 0x8, addend: 0x0, symName: '__ZN4core3ptr58drop_in_place$LT$alloc..vec..Vec$LT$syn..expr..Arm$GT$$GT$17ha0ec4334cda5515cE', symObjAddr: 0x60C0, symBinAddr: 0xC61A0, symSize: 0xD0 }
  - { offsetInCU: 0x1DABD, offset: 0x480C0D, size: 0x8, addend: 0x0, symName: '__ZN4core3ptr59drop_in_place$LT$alloc..boxed..Box$LT$syn..pat..Pat$GT$$GT$17h67f20b4715509286E', symObjAddr: 0x6190, symBinAddr: 0xC6270, symSize: 0x50 }
  - { offsetInCU: 0x1DC16, offset: 0x480D66, size: 0x8, addend: 0x0, symName: '__ZN4core3ptr59drop_in_place$LT$alloc..boxed..Box$LT$syn..ty..Type$GT$$GT$17hb9082e267b94188dE', symObjAddr: 0x61E0, symBinAddr: 0xC62C0, symSize: 0x50 }
  - { offsetInCU: 0x1DD6F, offset: 0x480EBF, size: 0x8, addend: 0x0, symName: '__ZN4core3ptr61drop_in_place$LT$alloc..boxed..Box$LT$syn..expr..Expr$GT$$GT$17h01310d89a7a8aab3E', symObjAddr: 0x6230, symBinAddr: 0xC6310, symSize: 0x50 }
  - { offsetInCU: 0x1DEC8, offset: 0x481018, size: 0x8, addend: 0x0, symName: '__ZN4core3ptr61drop_in_place$LT$syn..path..ParenthesizedGenericArguments$GT$17h7fee2959ae354450E', symObjAddr: 0x6280, symBinAddr: 0xC6360, symSize: 0x170 }
  - { offsetInCU: 0x1E4D1, offset: 0x481621, size: 0x8, addend: 0x0, symName: '__ZN4core3ptr63drop_in_place$LT$alloc..boxed..Box$LT$syn..lit..LitRepr$GT$$GT$17hf23a84bed7f64f98E', symObjAddr: 0x63F0, symBinAddr: 0xC64D0, symSize: 0x60 }
  - { offsetInCU: 0x1E7D8, offset: 0x481928, size: 0x8, addend: 0x0, symName: '__ZN4core3ptr64drop_in_place$LT$alloc..boxed..Box$LT$syn..pat..FieldPat$GT$$GT$17ha5ec27d4d418dbdfE', symObjAddr: 0x6450, symBinAddr: 0xC6530, symSize: 0x140 }
  - { offsetInCU: 0x1EEA5, offset: 0x481FF5, size: 0x8, addend: 0x0, symName: '__ZN4core3ptr64drop_in_place$LT$alloc..boxed..Box$LT$syn..ty..BareFnArg$GT$$GT$17hb416cdff09d8949eE', symObjAddr: 0x6590, symBinAddr: 0xC6670, symSize: 0x140 }
  - { offsetInCU: 0x1F3FA, offset: 0x48254A, size: 0x8, addend: 0x0, symName: '__ZN4core3ptr65drop_in_place$LT$alloc..vec..Vec$LT$proc_macro..TokenTree$GT$$GT$17h54365d0bdf61b883E', symObjAddr: 0x66D0, symBinAddr: 0xC67B0, symSize: 0x110 }
  - { offsetInCU: 0x1F7F2, offset: 0x482942, size: 0x8, addend: 0x0, symName: '__ZN4core3ptr65drop_in_place$LT$core..option..Option$LT$syn..expr..Label$GT$$GT$17h6cb338f3d3fef208E', symObjAddr: 0x67E0, symBinAddr: 0xC68C0, symSize: 0x30 }
  - { offsetInCU: 0x1F92C, offset: 0x482A7C, size: 0x8, addend: 0x0, symName: '__ZN4core3ptr66drop_in_place$LT$core..option..Option$LT$syn..pat..PatRest$GT$$GT$17h7c9095b226142979E', symObjAddr: 0x6810, symBinAddr: 0xC68F0, symSize: 0xE0 }
  - { offsetInCU: 0x1FC20, offset: 0x482D70, size: 0x8, addend: 0x0, symName: '__ZN4core3ptr67drop_in_place$LT$alloc..boxed..Box$LT$syn..expr..FieldValue$GT$$GT$17hb048d8ef1ec03e8dE', symObjAddr: 0x68F0, symBinAddr: 0xC69D0, symSize: 0x140 }
  - { offsetInCU: 0x20174, offset: 0x4832C4, size: 0x8, addend: 0x0, symName: '__ZN4core3ptr70drop_in_place$LT$core..option..Option$LT$syn..ty..BareVariadic$GT$$GT$17hf6d2a770387443a3E', symObjAddr: 0x6A30, symBinAddr: 0xC6B10, symSize: 0x100 }
  - { offsetInCU: 0x205AB, offset: 0x4836FB, size: 0x8, addend: 0x0, symName: '__ZN4core3ptr72drop_in_place$LT$alloc..boxed..Box$LT$syn..path..GenericArgument$GT$$GT$17hcc60f7ab467d198fE', symObjAddr: 0x6B30, symBinAddr: 0xC6C10, symSize: 0x2B0 }
  - { offsetInCU: 0x20FBC, offset: 0x48410C, size: 0x8, addend: 0x0, symName: '__ZN4core3ptr72drop_in_place$LT$core..option..Option$LT$syn..lifetime..Lifetime$GT$$GT$17h70ad3b488ebe3596E', symObjAddr: 0x6DE0, symBinAddr: 0xC6EC0, symSize: 0x30 }
  - { offsetInCU: 0x210D7, offset: 0x484227, size: 0x8, addend: 0x0, symName: '__ZN4core3ptr73drop_in_place$LT$alloc..boxed..Box$LT$syn..generics..GenericParam$GT$$GT$17hd8823d2eb1a41dfaE', symObjAddr: 0x6E10, symBinAddr: 0xC6EF0, symSize: 0x80 }
  - { offsetInCU: 0x2124D, offset: 0x48439D, size: 0x8, addend: 0x0, symName: '__ZN4core3ptr75drop_in_place$LT$alloc..boxed..Box$LT$syn..generics..TypeParamBound$GT$$GT$17hc0dbc3e6560133a8E', symObjAddr: 0x6E90, symBinAddr: 0xC6F70, symSize: 0x180 }
  - { offsetInCU: 0x21858, offset: 0x4849A8, size: 0x8, addend: 0x0, symName: '__ZN4core3ptr75drop_in_place$LT$core..option..Option$LT$syn..generics..WhereClause$GT$$GT$17h2c16f6dc41ab983cE', symObjAddr: 0x7010, symBinAddr: 0xC70F0, symSize: 0x100 }
  - { offsetInCU: 0x21C0F, offset: 0x484D5F, size: 0x8, addend: 0x0, symName: '__ZN4core3ptr86drop_in_place$LT$syn..punctuated..Punctuated$LT$syn..pat..Pat$C$syn..token..Or$GT$$GT$17hb407e891b009195eE', symObjAddr: 0x7110, symBinAddr: 0xC71F0, symSize: 0x120 }
  - { offsetInCU: 0x2208A, offset: 0x4851DA, size: 0x8, addend: 0x0, symName: '__ZN4core3ptr87drop_in_place$LT$core..option..Option$LT$alloc..boxed..Box$LT$syn..pat..Pat$GT$$GT$$GT$17h27575db68a752b00E', symObjAddr: 0x7230, symBinAddr: 0xC7310, symSize: 0x50 }
  - { offsetInCU: 0x221FA, offset: 0x48534A, size: 0x8, addend: 0x0, symName: '__ZN4core3ptr87drop_in_place$LT$core..option..Option$LT$alloc..boxed..Box$LT$syn..ty..Type$GT$$GT$$GT$17h2cce7e91b6f26339E', symObjAddr: 0x7280, symBinAddr: 0xC7360, symSize: 0x50 }
  - { offsetInCU: 0x22389, offset: 0x4854D9, size: 0x8, addend: 0x0, symName: '__ZN4core3ptr88drop_in_place$LT$core..result..Result$LT$syn..item..ItemEnum$C$syn..error..Error$GT$$GT$17h85c9dad25b4416daE', symObjAddr: 0x72D0, symBinAddr: 0xC73B0, symSize: 0xA0 }
  - { offsetInCU: 0x2264D, offset: 0x48579D, size: 0x8, addend: 0x0, symName: '__ZN4core3ptr89drop_in_place$LT$core..option..Option$LT$alloc..boxed..Box$LT$syn..expr..Expr$GT$$GT$$GT$17h4805299351d776eaE', symObjAddr: 0x7370, symBinAddr: 0xC7450, symSize: 0x50 }
  - { offsetInCU: 0x227BD, offset: 0x48590D, size: 0x8, addend: 0x0, symName: '__ZN4core3ptr89drop_in_place$LT$core..result..Result$LT$syn..item..ItemUnion$C$syn..error..Error$GT$$GT$17h41fcb1ce6b917151E', symObjAddr: 0x73C0, symBinAddr: 0xC74A0, symSize: 0xA0 }
  - { offsetInCU: 0x22ABF, offset: 0x485C0F, size: 0x8, addend: 0x0, symName: '__ZN4core3ptr89drop_in_place$LT$syn..punctuated..Punctuated$LT$syn..pat..Pat$C$syn..token..Comma$GT$$GT$17hbfa21962153cb723E', symObjAddr: 0x7460, symBinAddr: 0xC7540, symSize: 0x120 }
  - { offsetInCU: 0x22FAE, offset: 0x4860FE, size: 0x8, addend: 0x0, symName: '__ZN4core3ptr90drop_in_place$LT$core..option..Option$LT$alloc..boxed..Box$LT$syn..data..Field$GT$$GT$$GT$17hf222b09314c1288bE', symObjAddr: 0x7580, symBinAddr: 0xC7660, symSize: 0x1B0 }
  - { offsetInCU: 0x2364D, offset: 0x48679D, size: 0x8, addend: 0x0, symName: '__ZN4core3ptr90drop_in_place$LT$core..result..Result$LT$syn..item..ItemStruct$C$syn..error..Error$GT$$GT$17h08d58e205c454011E', symObjAddr: 0x7730, symBinAddr: 0xC7810, symSize: 0xA0 }
  - { offsetInCU: 0x2394F, offset: 0x486A9F, size: 0x8, addend: 0x0, symName: '__ZN4core3ptr91drop_in_place$LT$syn..punctuated..Punctuated$LT$syn..expr..Expr$C$syn..token..Comma$GT$$GT$17hd2c79695be72d75eE', symObjAddr: 0x77D0, symBinAddr: 0xC78B0, symSize: 0x120 }
  - { offsetInCU: 0x23E59, offset: 0x486FA9, size: 0x8, addend: 0x0, symName: '__ZN4core3ptr92drop_in_place$LT$core..option..Option$LT$alloc..boxed..Box$LT$syn..data..Variant$GT$$GT$$GT$17he76d2e647315dc3fE', symObjAddr: 0x78F0, symBinAddr: 0xC79D0, symSize: 0x170 }
  - { offsetInCU: 0x243F4, offset: 0x487544, size: 0x8, addend: 0x0, symName: '__ZN4core3ptr94drop_in_place$LT$syn..punctuated..Punctuated$LT$syn..data..Variant$C$syn..token..Comma$GT$$GT$17h737b847700047fecE', symObjAddr: 0x7A60, symBinAddr: 0xC7B40, symSize: 0xE0 }
  - { offsetInCU: 0x246F7, offset: 0x487847, size: 0x8, addend: 0x0, symName: '__ZN4core3ptr94drop_in_place$LT$syn..punctuated..Punctuated$LT$syn..pat..FieldPat$C$syn..token..Comma$GT$$GT$17hb2b4aed8f633cba0E', symObjAddr: 0x7B40, symBinAddr: 0xC7C20, symSize: 0xF0 }
  - { offsetInCU: 0x249F6, offset: 0x487B46, size: 0x8, addend: 0x0, symName: '__ZN4core3ptr94drop_in_place$LT$syn..punctuated..Punctuated$LT$syn..ty..BareFnArg$C$syn..token..Comma$GT$$GT$17h59c18cbb4f726140E', symObjAddr: 0x7C30, symBinAddr: 0xC7D10, symSize: 0xF0 }
  - { offsetInCU: 0x24CF7, offset: 0x487E47, size: 0x8, addend: 0x0, symName: '__ZN4core3ptr96drop_in_place$LT$core..option..Option$LT$alloc..boxed..Box$LT$syn..path..PathSegment$GT$$GT$$GT$17hd67a31bad3bc4ef4E', symObjAddr: 0x7D20, symBinAddr: 0xC7E00, symSize: 0x1A0 }
  - { offsetInCU: 0x253B8, offset: 0x488508, size: 0x8, addend: 0x0, symName: '__ZN4core3ptr97drop_in_place$LT$syn..punctuated..Punctuated$LT$syn..expr..FieldValue$C$syn..token..Comma$GT$$GT$17h2644f25adad08ccbE', symObjAddr: 0x7EC0, symBinAddr: 0xC7FA0, symSize: 0xF0 }
  - { offsetInCU: 0x25731, offset: 0x488881, size: 0x8, addend: 0x0, symName: '__ZN4core3ptr98drop_in_place$LT$syn..punctuated..Punctuated$LT$syn..lifetime..Lifetime$C$syn..token..Plus$GT$$GT$17hfbe9a104e4a4f23fE', symObjAddr: 0x7FB0, symBinAddr: 0xC8090, symSize: 0xD0 }
  - { offsetInCU: 0x26969, offset: 0x489AB9, size: 0x8, addend: 0x0, symName: __ZN10proc_macro6bridge6client14HandleCounters3get17h2c76d49220b98e92E, symObjAddr: 0x0, symBinAddr: 0xC00E0, symSize: 0x10 }
  - { offsetInCU: 0x2D89, offset: 0x497633, size: 0x8, addend: 0x0, symName: '__ZN4core3ptr39drop_in_place$LT$proc_macro2..Ident$GT$17hb5fbe0c131bfa218E', symObjAddr: 0x1A0, symBinAddr: 0xC9630, symSize: 0x30 }
  - { offsetInCU: 0x2F9C, offset: 0x497846, size: 0x8, addend: 0x0, symName: '__ZN4core3ptr45drop_in_place$LT$proc_macro2..TokenStream$GT$17h207b9d10b43ca09fE', symObjAddr: 0x1D0, symBinAddr: 0xC9660, symSize: 0x140 }
  - { offsetInCU: 0x3417, offset: 0x497CC1, size: 0x8, addend: 0x0, symName: '__ZN4core3ptr57drop_in_place$LT$alloc..vec..Vec$LT$syn..ty..Type$GT$$GT$17h7077bc1b57d637e0E', symObjAddr: 0x340, symBinAddr: 0xC97A0, symSize: 0xD0 }
  - { offsetInCU: 0x36EA, offset: 0x497F94, size: 0x8, addend: 0x0, symName: '__ZN4core3ptr65drop_in_place$LT$alloc..vec..Vec$LT$proc_macro..TokenTree$GT$$GT$17h54365d0bdf61b883E', symObjAddr: 0x410, symBinAddr: 0xC9870, symSize: 0x110 }
  - { offsetInCU: 0x62B7, offset: 0x49AB61, size: 0x8, addend: 0x0, symName: __ZN4core3ops8function6FnOnce9call_once17h79f636732af79144E.llvm.314945398313257423, symObjAddr: 0x140, symBinAddr: 0xC95D0, symSize: 0x60 }
  - { offsetInCU: 0xD6E4, offset: 0x4A1F8E, size: 0x8, addend: 0x0, symName: '__ZN9hashbrown3map28HashMap$LT$K$C$V$C$S$C$A$GT$6insert17h1e5b3c93141e641aE', symObjAddr: 0x6E0, symBinAddr: 0xC9980, symSize: 0x2F0 }
  - { offsetInCU: 0xE6B8, offset: 0x4A2F62, size: 0x8, addend: 0x0, symName: '__ZN9hashbrown3map28HashMap$LT$K$C$V$C$S$C$A$GT$6insert17hbd1e05252dc2062aE', symObjAddr: 0x9D0, symBinAddr: 0xC9C70, symSize: 0x200 }
  - { offsetInCU: 0xF5A0, offset: 0x4A3E4A, size: 0x8, addend: 0x0, symName: '__ZN9hashbrown3map28HashMap$LT$K$C$V$C$S$C$A$GT$6insert17hcdad78af20706063E', symObjAddr: 0xBD0, symBinAddr: 0xC9E70, symSize: 0x220 }
  - { offsetInCU: 0x105EC, offset: 0x4A4E96, size: 0x8, addend: 0x0, symName: '__ZN9hashbrown3map28HashMap$LT$K$C$V$C$S$C$A$GT$6insert17hef40c6f1a4306345E', symObjAddr: 0xDF0, symBinAddr: 0xCA090, symSize: 0x2C1 }
  - { offsetInCU: 0x1E, offset: 0x4A6B74, size: 0x8, addend: 0x0, symName: '__ZN4core3ops8function6FnOnce40call_once$u7b$$u7b$vtable.shim$u7d$$u7d$17hea58f1ba199b670aE', symObjAddr: 0x0, symBinAddr: 0xCA360, symSize: 0xA0 }
  - { offsetInCU: 0x51, offset: 0x4A6BA7, size: 0x8, addend: 0x0, symName: __ZN12borsh_derive9internals10attributes5field6schema22SCHEMA_FIELD_PARSE_MAP17hc1fbb00838334a58E, symObjAddr: 0x8C28, symBinAddr: 0x3D4030, symSize: 0x0 }
  - { offsetInCU: 0xB0, offset: 0x4A6C06, size: 0x8, addend: 0x0, symName: '__ZN12borsh_derive9internals10attributes5field6schema22SCHEMA_FIELD_PARSE_MAP28_$u7b$$u7b$closure$u7d$$u7d$28_$u7b$$u7b$closure$u7d$$u7d$17h82cffb58be789805E', symObjAddr: 0x7570, symBinAddr: 0xD18D0, symSize: 0x60 }
  - { offsetInCU: 0x10F, offset: 0x4A6C65, size: 0x8, addend: 0x0, symName: '__ZN12borsh_derive9internals10attributes5field6schema22SCHEMA_FIELD_PARSE_MAP28_$u7b$$u7b$closure$u7d$$u7d$28_$u7b$$u7b$closure$u7d$$u7d$17h7c22f0924e9ef363E', symObjAddr: 0x75D0, symBinAddr: 0xD1930, symSize: 0x220 }
  - { offsetInCU: 0x5B4, offset: 0x4A710A, size: 0x8, addend: 0x0, symName: '__ZN264_$LT$borsh_derive..internals..attributes..field..schema..Attributes$u20$as$u20$core..convert..From$LT$alloc..collections..btree..map..BTreeMap$LT$borsh_derive..internals..attributes..Symbol$C$borsh_derive..internals..attributes..field..schema..Variants$GT$$GT$$GT$4from17h439f6b9f9870c3c3E', symObjAddr: 0x77F0, symBinAddr: 0xD1B50, symSize: 0x370 }
  - { offsetInCU: 0x9DA, offset: 0x4A7530, size: 0x8, addend: 0x0, symName: '__ZN107_$LT$borsh_derive..internals..attributes..field..schema..ParameterOverride$u20$as$u20$syn..parse..Parse$GT$5parse17hd4177f936d52b0caE', symObjAddr: 0x7B60, symBinAddr: 0xD1EC0, symSize: 0x1E3 }
  - { offsetInCU: 0x5CB0, offset: 0x4AC806, size: 0x8, addend: 0x0, symName: '__ZN4core3ptr100drop_in_place$LT$core..option..Option$LT$alloc..boxed..Box$LT$syn..path..GenericArgument$GT$$GT$$GT$17h807a36ffbab107a4E', symObjAddr: 0x220, symBinAddr: 0xCA580, symSize: 0x50 }
  - { offsetInCU: 0x604E, offset: 0x4ACBA4, size: 0x8, addend: 0x0, symName: '__ZN4core3ptr100drop_in_place$LT$syn..punctuated..Punctuated$LT$syn..path..PathSegment$C$syn..token..PathSep$GT$$GT$17hcb9c7ae6720123ceE', symObjAddr: 0x270, symBinAddr: 0xCA5D0, symSize: 0x270 }
  - { offsetInCU: 0x69F1, offset: 0x4AD547, size: 0x8, addend: 0x0, symName: '__ZN4core3ptr103drop_in_place$LT$core..option..Option$LT$alloc..boxed..Box$LT$syn..generics..TypeParamBound$GT$$GT$$GT$17h0017d361ebb9471fE', symObjAddr: 0x4E0, symBinAddr: 0xCA840, symSize: 0x50 }
  - { offsetInCU: 0x6BFC, offset: 0x4AD752, size: 0x8, addend: 0x0, symName: '__ZN4core3ptr103drop_in_place$LT$syn..punctuated..Punctuated$LT$syn..generics..GenericParam$C$syn..token..Comma$GT$$GT$17hf5a644fae414a53cE', symObjAddr: 0x530, symBinAddr: 0xCA890, symSize: 0xF0 }
  - { offsetInCU: 0x70F7, offset: 0x4ADC4D, size: 0x8, addend: 0x0, symName: '__ZN4core3ptr104drop_in_place$LT$syn..punctuated..Punctuated$LT$syn..generics..TypeParamBound$C$syn..token..Plus$GT$$GT$17ha86a9d1599e32cffE', symObjAddr: 0x620, symBinAddr: 0xCA980, symSize: 0x190 }
  - { offsetInCU: 0x771A, offset: 0x4AE270, size: 0x8, addend: 0x0, symName: '__ZN4core3ptr141drop_in_place$LT$core..option..Option$LT$alloc..vec..Vec$LT$borsh_derive..internals..attributes..field..schema..ParameterOverride$GT$$GT$$GT$17he3a210a562ca3e78E', symObjAddr: 0x7B0, symBinAddr: 0xCAB10, symSize: 0x110 }
  - { offsetInCU: 0x7BA1, offset: 0x4AE6F7, size: 0x8, addend: 0x0, symName: '__ZN4core3ptr34drop_in_place$LT$syn..lit..Lit$GT$17h7e230476d36822bfE', symObjAddr: 0x8C0, symBinAddr: 0xCAC20, symSize: 0x120 }
  - { offsetInCU: 0x8070, offset: 0x4AEBC6, size: 0x8, addend: 0x0, symName: '__ZN4core3ptr34drop_in_place$LT$syn..pat..Pat$GT$17h5b0a97e980f53e46E', symObjAddr: 0x9E0, symBinAddr: 0xCAD40, symSize: 0xEE0 }
  - { offsetInCU: 0xB896, offset: 0x4B23EC, size: 0x8, addend: 0x0, symName: '__ZN4core3ptr34drop_in_place$LT$syn..ty..Type$GT$17h19f850f61918f31fE', symObjAddr: 0x18C0, symBinAddr: 0xCBC20, symSize: 0x4F0 }
  - { offsetInCU: 0xCDD9, offset: 0x4B392F, size: 0x8, addend: 0x0, symName: '__ZN4core3ptr36drop_in_place$LT$syn..expr..Expr$GT$17h98f7f68f0a06dff7E', symObjAddr: 0x1DB0, symBinAddr: 0xCC110, symSize: 0x2680 }
  - { offsetInCU: 0x15FF3, offset: 0x4BCB49, size: 0x8, addend: 0x0, symName: '__ZN4core3ptr36drop_in_place$LT$syn..mac..Macro$GT$17hdf5bac46d7f74bccE', symObjAddr: 0x4430, symBinAddr: 0xCE790, symSize: 0x40 }
  - { offsetInCU: 0x1602D, offset: 0x4BCB83, size: 0x8, addend: 0x0, symName: '__ZN4core3ptr36drop_in_place$LT$syn..path..Path$GT$17hb2feba4d905af1b2E', symObjAddr: 0x4470, symBinAddr: 0xCE7D0, symSize: 0x240 }
  - { offsetInCU: 0x169C7, offset: 0x4BD51D, size: 0x8, addend: 0x0, symName: '__ZN4core3ptr37drop_in_place$LT$syn..path..QSelf$GT$17h2ad306e037f599caE', symObjAddr: 0x46B0, symBinAddr: 0xCEA10, symSize: 0x50 }
  - { offsetInCU: 0x16B3F, offset: 0x4BD695, size: 0x8, addend: 0x0, symName: '__ZN4core3ptr37drop_in_place$LT$syn..stmt..Block$GT$17h9594e7bdfd216ee2E', symObjAddr: 0x4700, symBinAddr: 0xCEA60, symSize: 0xD0 }
  - { offsetInCU: 0x16E16, offset: 0x4BD96C, size: 0x8, addend: 0x0, symName: '__ZN4core3ptr38drop_in_place$LT$syn..expr..Member$GT$17hd3bc25e187f7fae3E', symObjAddr: 0x47D0, symBinAddr: 0xCEB30, symSize: 0x30 }
  - { offsetInCU: 0x16F12, offset: 0x4BDA68, size: 0x8, addend: 0x0, symName: '__ZN4core3ptr39drop_in_place$LT$proc_macro2..Ident$GT$17hb5fbe0c131bfa218E', symObjAddr: 0x4800, symBinAddr: 0xCEB60, symSize: 0x30 }
  - { offsetInCU: 0x16FEF, offset: 0x4BDB45, size: 0x8, addend: 0x0, symName: '__ZN4core3ptr40drop_in_place$LT$syn..expr..ExprPath$GT$17hac51ab24dfe997baE', symObjAddr: 0x4830, symBinAddr: 0xCEB90, symSize: 0x120 }
  - { offsetInCU: 0x1749F, offset: 0x4BDFF5, size: 0x8, addend: 0x0, symName: '__ZN4core3ptr40drop_in_place$LT$syn..ty..ReturnType$GT$17h2041b3e02720652aE', symObjAddr: 0x4950, symBinAddr: 0xCECB0, symSize: 0x50 }
  - { offsetInCU: 0x1760F, offset: 0x4BE165, size: 0x8, addend: 0x0, symName: '__ZN4core3ptr41drop_in_place$LT$syn..expr..ExprConst$GT$17h546d2eac1f274d91E', symObjAddr: 0x49A0, symBinAddr: 0xCED00, symSize: 0x180 }
  - { offsetInCU: 0x17BC8, offset: 0x4BE71E, size: 0x8, addend: 0x0, symName: '__ZN4core3ptr44drop_in_place$LT$syn..lifetime..Lifetime$GT$17h8afd172b97690efdE', symObjAddr: 0x4B20, symBinAddr: 0xCEE80, symSize: 0x30 }
  - { offsetInCU: 0x17DFA, offset: 0x4BE950, size: 0x8, addend: 0x0, symName: '__ZN4core3ptr45drop_in_place$LT$proc_macro2..TokenStream$GT$17h207b9d10b43ca09fE', symObjAddr: 0x4B50, symBinAddr: 0xCEEB0, symSize: 0x140 }
  - { offsetInCU: 0x18294, offset: 0x4BEDEA, size: 0x8, addend: 0x0, symName: '__ZN4core3ptr45drop_in_place$LT$syn..generics..TypeParam$GT$17h6c3c07424bcf6a4eE', symObjAddr: 0x4C90, symBinAddr: 0xCEFF0, symSize: 0x230 }
  - { offsetInCU: 0x18AD5, offset: 0x4BF62B, size: 0x8, addend: 0x0, symName: '__ZN4core3ptr46drop_in_place$LT$syn..generics..ConstParam$GT$17hd0de4a5923445da7E', symObjAddr: 0x4EC0, symBinAddr: 0xCF220, symSize: 0x150 }
  - { offsetInCU: 0x18F22, offset: 0x4BFA78, size: 0x8, addend: 0x0, symName: '__ZN4core3ptr47drop_in_place$LT$syn..path..GenericArgument$GT$17hf4dd383aa34a4f0fE', symObjAddr: 0x5010, symBinAddr: 0xCF370, symSize: 0x4A0 }
  - { offsetInCU: 0x1A028, offset: 0x4C0B7E, size: 0x8, addend: 0x0, symName: '__ZN4core3ptr49drop_in_place$LT$syn..generics..LifetimeParam$GT$17hd0b2e7526885b204E', symObjAddr: 0x54B0, symBinAddr: 0xCF810, symSize: 0xF0 }
  - { offsetInCU: 0x1A40B, offset: 0x4C0F61, size: 0x8, addend: 0x0, symName: '__ZN4core3ptr50drop_in_place$LT$syn..generics..TypeParamBound$GT$17hdc238d3175f8eb5aE', symObjAddr: 0x55A0, symBinAddr: 0xCF900, symSize: 0x180 }
  - { offsetInCU: 0x1A855, offset: 0x4C13AB, size: 0x8, addend: 0x0, symName: '__ZN4core3ptr58drop_in_place$LT$alloc..vec..Vec$LT$syn..expr..Arm$GT$$GT$17ha0ec4334cda5515cE', symObjAddr: 0x5720, symBinAddr: 0xCFA80, symSize: 0xD0 }
  - { offsetInCU: 0x1AB15, offset: 0x4C166B, size: 0x8, addend: 0x0, symName: '__ZN4core3ptr59drop_in_place$LT$alloc..boxed..Box$LT$syn..pat..Pat$GT$$GT$17h67f20b4715509286E', symObjAddr: 0x57F0, symBinAddr: 0xCFB50, symSize: 0x50 }
  - { offsetInCU: 0x1AC6E, offset: 0x4C17C4, size: 0x8, addend: 0x0, symName: '__ZN4core3ptr59drop_in_place$LT$alloc..boxed..Box$LT$syn..ty..Type$GT$$GT$17hb9082e267b94188dE', symObjAddr: 0x5840, symBinAddr: 0xCFBA0, symSize: 0x50 }
  - { offsetInCU: 0x1ADC7, offset: 0x4C191D, size: 0x8, addend: 0x0, symName: '__ZN4core3ptr61drop_in_place$LT$alloc..boxed..Box$LT$syn..expr..Expr$GT$$GT$17h01310d89a7a8aab3E', symObjAddr: 0x5890, symBinAddr: 0xCFBF0, symSize: 0x50 }
  - { offsetInCU: 0x1AF9C, offset: 0x4C1AF2, size: 0x8, addend: 0x0, symName: '__ZN4core3ptr61drop_in_place$LT$syn..path..ParenthesizedGenericArguments$GT$17h7fee2959ae354450E', symObjAddr: 0x58E0, symBinAddr: 0xCFC40, symSize: 0x170 }
  - { offsetInCU: 0x1B592, offset: 0x4C20E8, size: 0x8, addend: 0x0, symName: '__ZN4core3ptr62drop_in_place$LT$syn..path..AngleBracketedGenericArguments$GT$17h79141db867cfe0cbE', symObjAddr: 0x5A50, symBinAddr: 0xCFDB0, symSize: 0x120 }
  - { offsetInCU: 0x1B9DD, offset: 0x4C2533, size: 0x8, addend: 0x0, symName: '__ZN4core3ptr63drop_in_place$LT$alloc..boxed..Box$LT$syn..lit..LitRepr$GT$$GT$17hf23a84bed7f64f98E', symObjAddr: 0x5B70, symBinAddr: 0xCFED0, symSize: 0x60 }
  - { offsetInCU: 0x1BCE4, offset: 0x4C283A, size: 0x8, addend: 0x0, symName: '__ZN4core3ptr64drop_in_place$LT$alloc..boxed..Box$LT$syn..pat..FieldPat$GT$$GT$17ha5ec27d4d418dbdfE', symObjAddr: 0x5BD0, symBinAddr: 0xCFF30, symSize: 0x140 }
  - { offsetInCU: 0x1C3B1, offset: 0x4C2F07, size: 0x8, addend: 0x0, symName: '__ZN4core3ptr64drop_in_place$LT$alloc..boxed..Box$LT$syn..ty..BareFnArg$GT$$GT$17hb416cdff09d8949eE', symObjAddr: 0x5D10, symBinAddr: 0xD0070, symSize: 0x140 }
  - { offsetInCU: 0x1C906, offset: 0x4C345C, size: 0x8, addend: 0x0, symName: '__ZN4core3ptr65drop_in_place$LT$alloc..vec..Vec$LT$proc_macro..TokenTree$GT$$GT$17h54365d0bdf61b883E', symObjAddr: 0x5E50, symBinAddr: 0xD01B0, symSize: 0x110 }
  - { offsetInCU: 0x1CCFE, offset: 0x4C3854, size: 0x8, addend: 0x0, symName: '__ZN4core3ptr65drop_in_place$LT$core..option..Option$LT$syn..expr..Label$GT$$GT$17h6cb338f3d3fef208E', symObjAddr: 0x5F60, symBinAddr: 0xD02C0, symSize: 0x30 }
  - { offsetInCU: 0x1CE38, offset: 0x4C398E, size: 0x8, addend: 0x0, symName: '__ZN4core3ptr65drop_in_place$LT$core..option..Option$LT$syn..path..QSelf$GT$$GT$17h77b32165fa1277f0E', symObjAddr: 0x5F90, symBinAddr: 0xD02F0, symSize: 0x50 }
  - { offsetInCU: 0x1CFCF, offset: 0x4C3B25, size: 0x8, addend: 0x0, symName: '__ZN4core3ptr66drop_in_place$LT$core..option..Option$LT$syn..pat..PatRest$GT$$GT$17h7c9095b226142979E', symObjAddr: 0x5FE0, symBinAddr: 0xD0340, symSize: 0xE0 }
  - { offsetInCU: 0x1D2C3, offset: 0x4C3E19, size: 0x8, addend: 0x0, symName: '__ZN4core3ptr67drop_in_place$LT$alloc..boxed..Box$LT$syn..expr..FieldValue$GT$$GT$17hb048d8ef1ec03e8dE', symObjAddr: 0x60C0, symBinAddr: 0xD0420, symSize: 0x140 }
  - { offsetInCU: 0x1D7F8, offset: 0x4C434E, size: 0x8, addend: 0x0, symName: '__ZN4core3ptr68drop_in_place$LT$alloc..boxed..Box$LT$syn..path..PathSegment$GT$$GT$17h582dcd8abb4b1a74E', symObjAddr: 0x6200, symBinAddr: 0xD0560, symSize: 0x1B0 }
  - { offsetInCU: 0x1DF06, offset: 0x4C4A5C, size: 0x8, addend: 0x0, symName: '__ZN4core3ptr70drop_in_place$LT$core..option..Option$LT$syn..ty..BareVariadic$GT$$GT$17hf6d2a770387443a3E', symObjAddr: 0x63B0, symBinAddr: 0xD0710, symSize: 0x100 }
  - { offsetInCU: 0x1E33D, offset: 0x4C4E93, size: 0x8, addend: 0x0, symName: '__ZN4core3ptr72drop_in_place$LT$alloc..boxed..Box$LT$syn..path..GenericArgument$GT$$GT$17hcc60f7ab467d198fE', symObjAddr: 0x64B0, symBinAddr: 0xD0810, symSize: 0x1D0 }
  - { offsetInCU: 0x1E8D8, offset: 0x4C542E, size: 0x8, addend: 0x0, symName: '__ZN4core3ptr72drop_in_place$LT$core..option..Option$LT$syn..lifetime..Lifetime$GT$$GT$17h70ad3b488ebe3596E', symObjAddr: 0x6680, symBinAddr: 0xD09E0, symSize: 0x30 }
  - { offsetInCU: 0x1E9F3, offset: 0x4C5549, size: 0x8, addend: 0x0, symName: '__ZN4core3ptr73drop_in_place$LT$alloc..boxed..Box$LT$syn..generics..GenericParam$GT$$GT$17hd8823d2eb1a41dfaE', symObjAddr: 0x66B0, symBinAddr: 0xD0A10, symSize: 0x80 }
  - { offsetInCU: 0x1EB69, offset: 0x4C56BF, size: 0x8, addend: 0x0, symName: '__ZN4core3ptr75drop_in_place$LT$alloc..boxed..Box$LT$syn..generics..TypeParamBound$GT$$GT$17hc0dbc3e6560133a8E', symObjAddr: 0x6730, symBinAddr: 0xD0A90, symSize: 0xC0 }
  - { offsetInCU: 0x1EE9E, offset: 0x4C59F4, size: 0x8, addend: 0x0, symName: '__ZN4core3ptr81drop_in_place$LT$borsh_derive..internals..attributes..field..schema..Variants$GT$17h1bcb120dc97abdc8E', symObjAddr: 0x67F0, symBinAddr: 0xD0B50, symSize: 0x160 }
  - { offsetInCU: 0x1F338, offset: 0x4C5E8E, size: 0x8, addend: 0x0, symName: '__ZN4core3ptr86drop_in_place$LT$syn..punctuated..Punctuated$LT$syn..pat..Pat$C$syn..token..Or$GT$$GT$17hb407e891b009195eE', symObjAddr: 0x6950, symBinAddr: 0xD0CB0, symSize: 0x120 }
  - { offsetInCU: 0x1F7B3, offset: 0x4C6309, size: 0x8, addend: 0x0, symName: '__ZN4core3ptr87drop_in_place$LT$core..option..Option$LT$alloc..boxed..Box$LT$syn..pat..Pat$GT$$GT$$GT$17h27575db68a752b00E', symObjAddr: 0x6A70, symBinAddr: 0xD0DD0, symSize: 0x50 }
  - { offsetInCU: 0x1F923, offset: 0x4C6479, size: 0x8, addend: 0x0, symName: '__ZN4core3ptr87drop_in_place$LT$core..option..Option$LT$alloc..boxed..Box$LT$syn..ty..Type$GT$$GT$$GT$17h2cce7e91b6f26339E', symObjAddr: 0x6AC0, symBinAddr: 0xD0E20, symSize: 0x50 }
  - { offsetInCU: 0x1FA93, offset: 0x4C65E9, size: 0x8, addend: 0x0, symName: '__ZN4core3ptr89drop_in_place$LT$core..option..Option$LT$alloc..boxed..Box$LT$syn..expr..Expr$GT$$GT$$GT$17h4805299351d776eaE', symObjAddr: 0x6B10, symBinAddr: 0xD0E70, symSize: 0x50 }
  - { offsetInCU: 0x1FC41, offset: 0x4C6797, size: 0x8, addend: 0x0, symName: '__ZN4core3ptr89drop_in_place$LT$syn..punctuated..Punctuated$LT$syn..pat..Pat$C$syn..token..Comma$GT$$GT$17hbfa21962153cb723E', symObjAddr: 0x6B60, symBinAddr: 0xD0EC0, symSize: 0x120 }
  - { offsetInCU: 0x200D3, offset: 0x4C6C29, size: 0x8, addend: 0x0, symName: '__ZN4core3ptr89drop_in_place$LT$syn..punctuated..Punctuated$LT$syn..ty..Type$C$syn..token..Comma$GT$$GT$17h487f88da4f994ccfE', symObjAddr: 0x6C80, symBinAddr: 0xD0FE0, symSize: 0x120 }
  - { offsetInCU: 0x2054E, offset: 0x4C70A4, size: 0x8, addend: 0x0, symName: '__ZN4core3ptr90drop_in_place$LT$core..option..Option$LT$syn..path..AngleBracketedGenericArguments$GT$$GT$17h44b2ad11f3f45684E', symObjAddr: 0x6DA0, symBinAddr: 0xD1100, symSize: 0x130 }
  - { offsetInCU: 0x209F0, offset: 0x4C7546, size: 0x8, addend: 0x0, symName: '__ZN4core3ptr91drop_in_place$LT$syn..punctuated..Punctuated$LT$syn..expr..Expr$C$syn..token..Comma$GT$$GT$17hd2c79695be72d75eE', symObjAddr: 0x6ED0, symBinAddr: 0xD1230, symSize: 0x120 }
  - { offsetInCU: 0x20E7E, offset: 0x4C79D4, size: 0x8, addend: 0x0, symName: '__ZN4core3ptr94drop_in_place$LT$borsh_derive..internals..attributes..field..schema..with_funcs..WithFuncs$GT$17ha179873240a6d6cfE', symObjAddr: 0x6FF0, symBinAddr: 0xD1350, symSize: 0x70 }
  - { offsetInCU: 0x20EE6, offset: 0x4C7A3C, size: 0x8, addend: 0x0, symName: '__ZN4core3ptr94drop_in_place$LT$syn..punctuated..Punctuated$LT$syn..pat..FieldPat$C$syn..token..Comma$GT$$GT$17hb2b4aed8f633cba0E', symObjAddr: 0x7060, symBinAddr: 0xD13C0, symSize: 0xF0 }
  - { offsetInCU: 0x211E5, offset: 0x4C7D3B, size: 0x8, addend: 0x0, symName: '__ZN4core3ptr94drop_in_place$LT$syn..punctuated..Punctuated$LT$syn..ty..BareFnArg$C$syn..token..Comma$GT$$GT$17h59c18cbb4f726140E', symObjAddr: 0x7150, symBinAddr: 0xD14B0, symSize: 0xF0 }
  - { offsetInCU: 0x214E6, offset: 0x4C803C, size: 0x8, addend: 0x0, symName: '__ZN4core3ptr96drop_in_place$LT$core..option..Option$LT$alloc..boxed..Box$LT$syn..path..PathSegment$GT$$GT$$GT$17hd67a31bad3bc4ef4E', symObjAddr: 0x7240, symBinAddr: 0xD15A0, symSize: 0xA0 }
  - { offsetInCU: 0x21765, offset: 0x4C82BB, size: 0x8, addend: 0x0, symName: '__ZN4core3ptr97drop_in_place$LT$syn..punctuated..Punctuated$LT$syn..expr..FieldValue$C$syn..token..Comma$GT$$GT$17h2644f25adad08ccbE', symObjAddr: 0x72E0, symBinAddr: 0xD1640, symSize: 0xF0 }
  - { offsetInCU: 0x21A62, offset: 0x4C85B8, size: 0x8, addend: 0x0, symName: '__ZN4core3ptr98drop_in_place$LT$alloc..vec..Vec$LT$$LP$syn..path..GenericArgument$C$syn..token..Comma$RP$$GT$$GT$17h050ecd3ba4b8a9c3E', symObjAddr: 0x73D0, symBinAddr: 0xD1730, symSize: 0xD0 }
  - { offsetInCU: 0x21DA2, offset: 0x4C88F8, size: 0x8, addend: 0x0, symName: '__ZN4core3ptr98drop_in_place$LT$syn..punctuated..Punctuated$LT$syn..lifetime..Lifetime$C$syn..token..Plus$GT$$GT$17hfbe9a104e4a4f23fE', symObjAddr: 0x74A0, symBinAddr: 0xD1800, symSize: 0xD0 }
  - { offsetInCU: 0x23493, offset: 0x4C9FE9, size: 0x8, addend: 0x0, symName: '__ZN4core3ops8function6FnOnce40call_once$u7b$$u7b$vtable.shim$u7d$$u7d$17hea58f1ba199b670aE', symObjAddr: 0x0, symBinAddr: 0xCA360, symSize: 0xA0 }
  - { offsetInCU: 0x23582, offset: 0x4CA0D8, size: 0x8, addend: 0x0, symName: '__ZN4core3ops8function6FnOnce40call_once$u7b$$u7b$vtable.shim$u7d$$u7d$17heb8169def13c17edE', symObjAddr: 0xA0, symBinAddr: 0xCA400, symSize: 0x20 }
  - { offsetInCU: 0x235D9, offset: 0x4CA12F, size: 0x8, addend: 0x0, symName: __ZN4core3ops8function6FnOnce9call_once17h43ebcad878166714E, symObjAddr: 0xC0, symBinAddr: 0xCA420, symSize: 0x160 }
  - { offsetInCU: 0x1E, offset: 0x4D48D5, size: 0x8, addend: 0x0, symName: '__ZN4core3ptr100drop_in_place$LT$core..option..Option$LT$alloc..boxed..Box$LT$syn..path..GenericArgument$GT$$GT$$GT$17h807a36ffbab107a4E', symObjAddr: 0x0, symBinAddr: 0xD20B0, symSize: 0x50 }
  - { offsetInCU: 0x35, offset: 0x4D48EC, size: 0x8, addend: 0x0, symName: _anon.a9acbe2f730fe5a9d0d85a14c1b3ce2e.0.llvm.14746713999245060059, symObjAddr: 0x8F60, symBinAddr: 0x3CD250, symSize: 0x0 }
  - { offsetInCU: 0x8475, offset: 0x4DCD2C, size: 0x8, addend: 0x0, symName: '__ZN4core3ptr100drop_in_place$LT$core..option..Option$LT$alloc..boxed..Box$LT$syn..path..GenericArgument$GT$$GT$$GT$17h807a36ffbab107a4E', symObjAddr: 0x0, symBinAddr: 0xD20B0, symSize: 0x50 }
  - { offsetInCU: 0x8642, offset: 0x4DCEF9, size: 0x8, addend: 0x0, symName: '__ZN4core3ptr102drop_in_place$LT$syn..punctuated..Punctuated$LT$syn..path..GenericArgument$C$syn..token..Comma$GT$$GT$17h87ac6172553c146eE', symObjAddr: 0x50, symBinAddr: 0xD2100, symSize: 0xF0 }
  - { offsetInCU: 0x8962, offset: 0x4DD219, size: 0x8, addend: 0x0, symName: '__ZN4core3ptr103drop_in_place$LT$core..option..Option$LT$alloc..boxed..Box$LT$syn..generics..TypeParamBound$GT$$GT$$GT$17h0017d361ebb9471fE', symObjAddr: 0x140, symBinAddr: 0xD21F0, symSize: 0x50 }
  - { offsetInCU: 0x8B6D, offset: 0x4DD424, size: 0x8, addend: 0x0, symName: '__ZN4core3ptr103drop_in_place$LT$syn..punctuated..Punctuated$LT$syn..generics..GenericParam$C$syn..token..Comma$GT$$GT$17hf5a644fae414a53cE', symObjAddr: 0x190, symBinAddr: 0xD2240, symSize: 0xF0 }
  - { offsetInCU: 0x9141, offset: 0x4DD9F8, size: 0x8, addend: 0x0, symName: '__ZN4core3ptr104drop_in_place$LT$syn..punctuated..Punctuated$LT$syn..generics..TypeParamBound$C$syn..token..Plus$GT$$GT$17ha86a9d1599e32cffE', symObjAddr: 0x280, symBinAddr: 0xD2330, symSize: 0x240 }
  - { offsetInCU: 0x9A78, offset: 0x4DE32F, size: 0x8, addend: 0x0, symName: '__ZN4core3ptr34drop_in_place$LT$syn..lit..Lit$GT$17h7e230476d36822bfE', symObjAddr: 0x4C0, symBinAddr: 0xD2570, symSize: 0x120 }
  - { offsetInCU: 0x9F66, offset: 0x4DE81D, size: 0x8, addend: 0x0, symName: '__ZN4core3ptr34drop_in_place$LT$syn..pat..Pat$GT$17h5b0a97e980f53e46E', symObjAddr: 0x5E0, symBinAddr: 0xD2690, symSize: 0xF40 }
  - { offsetInCU: 0xDA2C, offset: 0x4E22E3, size: 0x8, addend: 0x0, symName: '__ZN4core3ptr34drop_in_place$LT$syn..ty..Type$GT$17h19f850f61918f31fE', symObjAddr: 0x1520, symBinAddr: 0xD35D0, symSize: 0x580 }
  - { offsetInCU: 0xF2B5, offset: 0x4E3B6C, size: 0x8, addend: 0x0, symName: '__ZN4core3ptr36drop_in_place$LT$syn..expr..Expr$GT$17h98f7f68f0a06dff7E', symObjAddr: 0x1AA0, symBinAddr: 0xD3B50, symSize: 0x2730 }
  - { offsetInCU: 0x18715, offset: 0x4ECFCC, size: 0x8, addend: 0x0, symName: '__ZN4core3ptr36drop_in_place$LT$syn..mac..Macro$GT$17hdf5bac46d7f74bccE', symObjAddr: 0x41D0, symBinAddr: 0xD6280, symSize: 0xE0 }
  - { offsetInCU: 0x18A9F, offset: 0x4ED356, size: 0x8, addend: 0x0, symName: '__ZN4core3ptr36drop_in_place$LT$syn..path..Path$GT$17hb2feba4d905af1b2E.llvm.14746713999245060059', symObjAddr: 0x42B0, symBinAddr: 0xD6360, symSize: 0x240 }
  - { offsetInCU: 0x19439, offset: 0x4EDCF0, size: 0x8, addend: 0x0, symName: '__ZN4core3ptr37drop_in_place$LT$syn..stmt..Block$GT$17h9594e7bdfd216ee2E', symObjAddr: 0x44F0, symBinAddr: 0xD65A0, symSize: 0xD0 }
  - { offsetInCU: 0x1974E, offset: 0x4EE005, size: 0x8, addend: 0x0, symName: '__ZN4core3ptr38drop_in_place$LT$syn..error..Error$GT$17h629ad0985f92efc9E.llvm.14746713999245060059', symObjAddr: 0x45C0, symBinAddr: 0xD6670, symSize: 0x90 }
  - { offsetInCU: 0x19A10, offset: 0x4EE2C7, size: 0x8, addend: 0x0, symName: '__ZN4core3ptr38drop_in_place$LT$syn..expr..Member$GT$17hd3bc25e187f7fae3E', symObjAddr: 0x4650, symBinAddr: 0xD6700, symSize: 0x30 }
  - { offsetInCU: 0x19B0C, offset: 0x4EE3C3, size: 0x8, addend: 0x0, symName: '__ZN4core3ptr39drop_in_place$LT$proc_macro2..Ident$GT$17hb5fbe0c131bfa218E', symObjAddr: 0x4680, symBinAddr: 0xD6730, symSize: 0x30 }
  - { offsetInCU: 0x19BE9, offset: 0x4EE4A0, size: 0x8, addend: 0x0, symName: '__ZN4core3ptr40drop_in_place$LT$syn..expr..ExprPath$GT$17hac51ab24dfe997baE', symObjAddr: 0x46B0, symBinAddr: 0xD6760, symSize: 0x110 }
  - { offsetInCU: 0x1A018, offset: 0x4EE8CF, size: 0x8, addend: 0x0, symName: '__ZN4core3ptr40drop_in_place$LT$syn..ty..ReturnType$GT$17h2041b3e02720652aE', symObjAddr: 0x47C0, symBinAddr: 0xD6870, symSize: 0x50 }
  - { offsetInCU: 0x1A188, offset: 0x4EEA3F, size: 0x8, addend: 0x0, symName: '__ZN4core3ptr41drop_in_place$LT$syn..expr..ExprConst$GT$17h546d2eac1f274d91E', symObjAddr: 0x4810, symBinAddr: 0xD68C0, symSize: 0x180 }
  - { offsetInCU: 0x1A741, offset: 0x4EEFF8, size: 0x8, addend: 0x0, symName: '__ZN4core3ptr44drop_in_place$LT$syn..lifetime..Lifetime$GT$17h8afd172b97690efdE', symObjAddr: 0x4990, symBinAddr: 0xD6A40, symSize: 0x30 }
  - { offsetInCU: 0x1A973, offset: 0x4EF22A, size: 0x8, addend: 0x0, symName: '__ZN4core3ptr45drop_in_place$LT$proc_macro2..TokenStream$GT$17h207b9d10b43ca09fE.llvm.14746713999245060059', symObjAddr: 0x49C0, symBinAddr: 0xD6A70, symSize: 0x140 }
  - { offsetInCU: 0x1AE0D, offset: 0x4EF6C4, size: 0x8, addend: 0x0, symName: '__ZN4core3ptr45drop_in_place$LT$syn..generics..TypeParam$GT$17h6c3c07424bcf6a4eE', symObjAddr: 0x4B00, symBinAddr: 0xD6BB0, symSize: 0x230 }
  - { offsetInCU: 0x1B64E, offset: 0x4EFF05, size: 0x8, addend: 0x0, symName: '__ZN4core3ptr46drop_in_place$LT$syn..generics..ConstParam$GT$17hd0de4a5923445da7E', symObjAddr: 0x4D30, symBinAddr: 0xD6DE0, symSize: 0x150 }
  - { offsetInCU: 0x1BA9B, offset: 0x4F0352, size: 0x8, addend: 0x0, symName: '__ZN4core3ptr47drop_in_place$LT$syn..path..GenericArgument$GT$17hf4dd383aa34a4f0fE', symObjAddr: 0x4E80, symBinAddr: 0xD6F30, symSize: 0x450 }
  - { offsetInCU: 0x1C811, offset: 0x4F10C8, size: 0x8, addend: 0x0, symName: '__ZN4core3ptr49drop_in_place$LT$syn..generics..LifetimeParam$GT$17hd0b2e7526885b204E', symObjAddr: 0x52D0, symBinAddr: 0xD7380, symSize: 0xF0 }
  - { offsetInCU: 0x1CBF4, offset: 0x4F14AB, size: 0x8, addend: 0x0, symName: '__ZN4core3ptr50drop_in_place$LT$syn..generics..TypeParamBound$GT$17hdc238d3175f8eb5aE', symObjAddr: 0x53C0, symBinAddr: 0xD7470, symSize: 0xA0 }
  - { offsetInCU: 0x1CD5A, offset: 0x4F1611, size: 0x8, addend: 0x0, symName: '__ZN4core3ptr58drop_in_place$LT$alloc..vec..Vec$LT$syn..expr..Arm$GT$$GT$17ha0ec4334cda5515cE', symObjAddr: 0x5460, symBinAddr: 0xD7510, symSize: 0xD0 }
  - { offsetInCU: 0x1D01A, offset: 0x4F18D1, size: 0x8, addend: 0x0, symName: '__ZN4core3ptr59drop_in_place$LT$alloc..boxed..Box$LT$syn..pat..Pat$GT$$GT$17h67f20b4715509286E', symObjAddr: 0x5530, symBinAddr: 0xD75E0, symSize: 0x50 }
  - { offsetInCU: 0x1D173, offset: 0x4F1A2A, size: 0x8, addend: 0x0, symName: '__ZN4core3ptr59drop_in_place$LT$alloc..boxed..Box$LT$syn..ty..Type$GT$$GT$17hb9082e267b94188dE', symObjAddr: 0x5580, symBinAddr: 0xD7630, symSize: 0x50 }
  - { offsetInCU: 0x1D2CC, offset: 0x4F1B83, size: 0x8, addend: 0x0, symName: '__ZN4core3ptr61drop_in_place$LT$alloc..boxed..Box$LT$syn..expr..Expr$GT$$GT$17h01310d89a7a8aab3E', symObjAddr: 0x55D0, symBinAddr: 0xD7680, symSize: 0x50 }
  - { offsetInCU: 0x1D425, offset: 0x4F1CDC, size: 0x8, addend: 0x0, symName: '__ZN4core3ptr61drop_in_place$LT$syn..path..ParenthesizedGenericArguments$GT$17h7fee2959ae354450E', symObjAddr: 0x5620, symBinAddr: 0xD76D0, symSize: 0x170 }
  - { offsetInCU: 0x1DA4D, offset: 0x4F2304, size: 0x8, addend: 0x0, symName: '__ZN4core3ptr63drop_in_place$LT$alloc..boxed..Box$LT$syn..lit..LitRepr$GT$$GT$17hf23a84bed7f64f98E', symObjAddr: 0x5820, symBinAddr: 0xD7840, symSize: 0x60 }
  - { offsetInCU: 0x1DD54, offset: 0x4F260B, size: 0x8, addend: 0x0, symName: '__ZN4core3ptr64drop_in_place$LT$alloc..boxed..Box$LT$syn..pat..FieldPat$GT$$GT$17ha5ec27d4d418dbdfE', symObjAddr: 0x5880, symBinAddr: 0xD78A0, symSize: 0x140 }
  - { offsetInCU: 0x1E421, offset: 0x4F2CD8, size: 0x8, addend: 0x0, symName: '__ZN4core3ptr64drop_in_place$LT$alloc..boxed..Box$LT$syn..ty..BareFnArg$GT$$GT$17hb416cdff09d8949eE', symObjAddr: 0x59C0, symBinAddr: 0xD79E0, symSize: 0x140 }
  - { offsetInCU: 0x1E976, offset: 0x4F322D, size: 0x8, addend: 0x0, symName: '__ZN4core3ptr65drop_in_place$LT$alloc..vec..Vec$LT$proc_macro..TokenTree$GT$$GT$17h54365d0bdf61b883E.llvm.14746713999245060059', symObjAddr: 0x5B00, symBinAddr: 0xD7B20, symSize: 0x110 }
  - { offsetInCU: 0x1ED6E, offset: 0x4F3625, size: 0x8, addend: 0x0, symName: '__ZN4core3ptr65drop_in_place$LT$core..option..Option$LT$syn..expr..Label$GT$$GT$17h6cb338f3d3fef208E', symObjAddr: 0x5C10, symBinAddr: 0xD7C30, symSize: 0x30 }
  - { offsetInCU: 0x1EEA8, offset: 0x4F375F, size: 0x8, addend: 0x0, symName: '__ZN4core3ptr65drop_in_place$LT$core..option..Option$LT$syn..path..QSelf$GT$$GT$17h77b32165fa1277f0E', symObjAddr: 0x5C40, symBinAddr: 0xD7C60, symSize: 0x50 }
  - { offsetInCU: 0x1F029, offset: 0x4F38E0, size: 0x8, addend: 0x0, symName: '__ZN4core3ptr66drop_in_place$LT$core..option..Option$LT$syn..pat..PatRest$GT$$GT$17h7c9095b226142979E', symObjAddr: 0x5C90, symBinAddr: 0xD7CB0, symSize: 0xE0 }
  - { offsetInCU: 0x1F31D, offset: 0x4F3BD4, size: 0x8, addend: 0x0, symName: '__ZN4core3ptr67drop_in_place$LT$alloc..boxed..Box$LT$syn..expr..FieldValue$GT$$GT$17hb048d8ef1ec03e8dE', symObjAddr: 0x5D70, symBinAddr: 0xD7D90, symSize: 0x140 }
  - { offsetInCU: 0x1F94A, offset: 0x4F4201, size: 0x8, addend: 0x0, symName: '__ZN4core3ptr68drop_in_place$LT$borsh_derive..internals..generics..FindTyParams$GT$17he80daff20c61038bE.llvm.14746713999245060059', symObjAddr: 0x5EB0, symBinAddr: 0xD7ED0, symSize: 0xA0 }
  - { offsetInCU: 0x1FD5E, offset: 0x4F4615, size: 0x8, addend: 0x0, symName: '__ZN4core3ptr70drop_in_place$LT$core..option..Option$LT$syn..ty..BareVariadic$GT$$GT$17hf6d2a770387443a3E', symObjAddr: 0x5F50, symBinAddr: 0xD7F70, symSize: 0x100 }
  - { offsetInCU: 0x20195, offset: 0x4F4A4C, size: 0x8, addend: 0x0, symName: '__ZN4core3ptr72drop_in_place$LT$alloc..boxed..Box$LT$syn..path..GenericArgument$GT$$GT$17hcc60f7ab467d198fE', symObjAddr: 0x6050, symBinAddr: 0xD8070, symSize: 0x2B0 }
  - { offsetInCU: 0x20BA6, offset: 0x4F545D, size: 0x8, addend: 0x0, symName: '__ZN4core3ptr72drop_in_place$LT$core..option..Option$LT$syn..lifetime..Lifetime$GT$$GT$17h70ad3b488ebe3596E', symObjAddr: 0x6300, symBinAddr: 0xD8320, symSize: 0x30 }
  - { offsetInCU: 0x20CC1, offset: 0x4F5578, size: 0x8, addend: 0x0, symName: '__ZN4core3ptr73drop_in_place$LT$alloc..boxed..Box$LT$syn..generics..GenericParam$GT$$GT$17hd8823d2eb1a41dfaE', symObjAddr: 0x6330, symBinAddr: 0xD8350, symSize: 0x80 }
  - { offsetInCU: 0x20E56, offset: 0x4F570D, size: 0x8, addend: 0x0, symName: '__ZN4core3ptr73drop_in_place$LT$alloc..vec..Vec$LT$syn..generics..WherePredicate$GT$$GT$17h339feaab3a542528E.llvm.14746713999245060059', symObjAddr: 0x63B0, symBinAddr: 0xD83D0, symSize: 0xD0 }
  - { offsetInCU: 0x21129, offset: 0x4F59E0, size: 0x8, addend: 0x0, symName: '__ZN4core3ptr75drop_in_place$LT$alloc..boxed..Box$LT$syn..generics..TypeParamBound$GT$$GT$17hc0dbc3e6560133a8E', symObjAddr: 0x6480, symBinAddr: 0xD84A0, symSize: 0x180 }
  - { offsetInCU: 0x21715, offset: 0x4F5FCC, size: 0x8, addend: 0x0, symName: '__ZN4core3ptr86drop_in_place$LT$syn..punctuated..Punctuated$LT$syn..pat..Pat$C$syn..token..Or$GT$$GT$17hb407e891b009195eE', symObjAddr: 0x6600, symBinAddr: 0xD8620, symSize: 0x120 }
  - { offsetInCU: 0x21B90, offset: 0x4F6447, size: 0x8, addend: 0x0, symName: '__ZN4core3ptr87drop_in_place$LT$core..option..Option$LT$alloc..boxed..Box$LT$syn..pat..Pat$GT$$GT$$GT$17h27575db68a752b00E', symObjAddr: 0x6720, symBinAddr: 0xD8740, symSize: 0x50 }
  - { offsetInCU: 0x21D00, offset: 0x4F65B7, size: 0x8, addend: 0x0, symName: '__ZN4core3ptr87drop_in_place$LT$core..option..Option$LT$alloc..boxed..Box$LT$syn..ty..Type$GT$$GT$$GT$17h2cce7e91b6f26339E', symObjAddr: 0x6770, symBinAddr: 0xD8790, symSize: 0x50 }
  - { offsetInCU: 0x21E70, offset: 0x4F6727, size: 0x8, addend: 0x0, symName: '__ZN4core3ptr89drop_in_place$LT$core..option..Option$LT$alloc..boxed..Box$LT$syn..expr..Expr$GT$$GT$$GT$17h4805299351d776eaE', symObjAddr: 0x67C0, symBinAddr: 0xD87E0, symSize: 0x50 }
  - { offsetInCU: 0x2201E, offset: 0x4F68D5, size: 0x8, addend: 0x0, symName: '__ZN4core3ptr89drop_in_place$LT$syn..punctuated..Punctuated$LT$syn..pat..Pat$C$syn..token..Comma$GT$$GT$17hbfa21962153cb723E', symObjAddr: 0x6810, symBinAddr: 0xD8830, symSize: 0x120 }
  - { offsetInCU: 0x224EE, offset: 0x4F6DA5, size: 0x8, addend: 0x0, symName: '__ZN4core3ptr91drop_in_place$LT$syn..punctuated..Punctuated$LT$syn..expr..Expr$C$syn..token..Comma$GT$$GT$17hd2c79695be72d75eE', symObjAddr: 0x6930, symBinAddr: 0xD8950, symSize: 0x120 }
  - { offsetInCU: 0x2297C, offset: 0x4F7233, size: 0x8, addend: 0x0, symName: '__ZN4core3ptr94drop_in_place$LT$syn..punctuated..Punctuated$LT$syn..pat..FieldPat$C$syn..token..Comma$GT$$GT$17hb2b4aed8f633cba0E', symObjAddr: 0x6A50, symBinAddr: 0xD8A70, symSize: 0xF0 }
  - { offsetInCU: 0x22C7B, offset: 0x4F7532, size: 0x8, addend: 0x0, symName: '__ZN4core3ptr94drop_in_place$LT$syn..punctuated..Punctuated$LT$syn..ty..BareFnArg$C$syn..token..Comma$GT$$GT$17h59c18cbb4f726140E', symObjAddr: 0x6B40, symBinAddr: 0xD8B60, symSize: 0xF0 }
  - { offsetInCU: 0x22F7C, offset: 0x4F7833, size: 0x8, addend: 0x0, symName: '__ZN4core3ptr96drop_in_place$LT$core..option..Option$LT$alloc..boxed..Box$LT$syn..path..PathSegment$GT$$GT$$GT$17hd67a31bad3bc4ef4E', symObjAddr: 0x6C30, symBinAddr: 0xD8C50, symSize: 0x1A0 }
  - { offsetInCU: 0x2363D, offset: 0x4F7EF4, size: 0x8, addend: 0x0, symName: '__ZN4core3ptr97drop_in_place$LT$syn..punctuated..Punctuated$LT$syn..expr..FieldValue$C$syn..token..Comma$GT$$GT$17h2644f25adad08ccbE', symObjAddr: 0x6DD0, symBinAddr: 0xD8DF0, symSize: 0xF0 }
  - { offsetInCU: 0x239B6, offset: 0x4F826D, size: 0x8, addend: 0x0, symName: '__ZN4core3ptr98drop_in_place$LT$syn..punctuated..Punctuated$LT$syn..lifetime..Lifetime$C$syn..token..Plus$GT$$GT$17hfbe9a104e4a4f23fE', symObjAddr: 0x6EC0, symBinAddr: 0xD8EE0, symSize: 0xD0 }
  - { offsetInCU: 0x27F57, offset: 0x4FC80E, size: 0x8, addend: 0x0, symName: __ZN12borsh_derive9internals9serialize14GenericsOutput6extend17h10e560640788dd4fE, symObjAddr: 0x7020, symBinAddr: 0xD8FB0, symSize: 0x280 }
  - { offsetInCU: 0x28454, offset: 0x4FCD0B, size: 0x8, addend: 0x0, symName: __ZN12borsh_derive9internals9serialize7FieldId18new_struct_unnamed17h661f22ba2eaad622E, symObjAddr: 0x72A0, symBinAddr: 0xD9230, symSize: 0x120 }
  - { offsetInCU: 0x288DD, offset: 0x4FD194, size: 0x8, addend: 0x0, symName: __ZN12borsh_derive9internals9serialize7FieldId16new_enum_unnamed17h12ff1aaeb66404c4E, symObjAddr: 0x73C0, symBinAddr: 0xD9350, symSize: 0x120 }
  - { offsetInCU: 0x28F9F, offset: 0x4FD856, size: 0x8, addend: 0x0, symName: __ZN12borsh_derive9internals9serialize7FieldId16serialize_output17hfee238b822a4aa6bE, symObjAddr: 0x74E0, symBinAddr: 0xD9470, symSize: 0x890 }
  - { offsetInCU: 0x29A16, offset: 0x4FE2CD, size: 0x8, addend: 0x0, symName: __ZN12borsh_derive9internals9serialize7FieldId19enum_variant_header17h6c68f3959fc3cd28E, symObjAddr: 0x7D70, symBinAddr: 0xD9D00, symSize: 0x2F3 }
  - { offsetInCU: 0x1E, offset: 0x5010CE, size: 0x8, addend: 0x0, symName: '__ZN4core3ptr100drop_in_place$LT$core..option..Option$LT$alloc..boxed..Box$LT$syn..path..GenericArgument$GT$$GT$$GT$17h807a36ffbab107a4E', symObjAddr: 0x0, symBinAddr: 0xDA000, symSize: 0x50 }
  - { offsetInCU: 0x192C, offset: 0x5029DC, size: 0x8, addend: 0x0, symName: '__ZN4core3ptr100drop_in_place$LT$core..option..Option$LT$alloc..boxed..Box$LT$syn..path..GenericArgument$GT$$GT$$GT$17h807a36ffbab107a4E', symObjAddr: 0x0, symBinAddr: 0xDA000, symSize: 0x50 }
  - { offsetInCU: 0x1ADA, offset: 0x502B8A, size: 0x8, addend: 0x0, symName: '__ZN4core3ptr101drop_in_place$LT$core..option..Option$LT$alloc..vec..Vec$LT$syn..generics..WherePredicate$GT$$GT$$GT$17h9b97eb8149fa9b49E', symObjAddr: 0x50, symBinAddr: 0xDA050, symSize: 0xD0 }
  - { offsetInCU: 0x1DF5, offset: 0x502EA5, size: 0x8, addend: 0x0, symName: '__ZN4core3ptr102drop_in_place$LT$syn..punctuated..Punctuated$LT$syn..path..GenericArgument$C$syn..token..Comma$GT$$GT$17h87ac6172553c146eE', symObjAddr: 0x120, symBinAddr: 0xDA120, symSize: 0xF0 }
  - { offsetInCU: 0x2115, offset: 0x5031C5, size: 0x8, addend: 0x0, symName: '__ZN4core3ptr103drop_in_place$LT$core..option..Option$LT$alloc..boxed..Box$LT$syn..generics..TypeParamBound$GT$$GT$$GT$17h0017d361ebb9471fE', symObjAddr: 0x210, symBinAddr: 0xDA210, symSize: 0x50 }
  - { offsetInCU: 0x23DA, offset: 0x50348A, size: 0x8, addend: 0x0, symName: '__ZN4core3ptr103drop_in_place$LT$core..option..Option$LT$alloc..boxed..Box$LT$syn..generics..WherePredicate$GT$$GT$$GT$17he4ee84860b39964eE', symObjAddr: 0x260, symBinAddr: 0xDA260, symSize: 0xD0 }
  - { offsetInCU: 0x276E, offset: 0x50381E, size: 0x8, addend: 0x0, symName: '__ZN4core3ptr103drop_in_place$LT$syn..punctuated..Punctuated$LT$syn..generics..GenericParam$C$syn..token..Comma$GT$$GT$17hf5a644fae414a53cE', symObjAddr: 0x330, symBinAddr: 0xDA330, symSize: 0xF0 }
  - { offsetInCU: 0x2C69, offset: 0x503D19, size: 0x8, addend: 0x0, symName: '__ZN4core3ptr104drop_in_place$LT$syn..punctuated..Punctuated$LT$syn..generics..TypeParamBound$C$syn..token..Plus$GT$$GT$17ha86a9d1599e32cffE', symObjAddr: 0x420, symBinAddr: 0xDA420, symSize: 0x240 }
  - { offsetInCU: 0x3524, offset: 0x5045D4, size: 0x8, addend: 0x0, symName: '__ZN4core3ptr107drop_in_place$LT$core..option..Option$LT$borsh_derive..internals..attributes..field..bounds..Bounds$GT$$GT$17h6c6d4413576fc644E', symObjAddr: 0x660, symBinAddr: 0xDA660, symSize: 0x1A0 }
  - { offsetInCU: 0x3B9A, offset: 0x504C4A, size: 0x8, addend: 0x0, symName: '__ZN4core3ptr111drop_in_place$LT$core..option..Option$LT$borsh_derive..internals..attributes..field..schema..Attributes$GT$$GT$17h7d96964c2b1a2d1aE', symObjAddr: 0x800, symBinAddr: 0xDA800, symSize: 0x160 }
  - { offsetInCU: 0x3FCE, offset: 0x50507E, size: 0x8, addend: 0x0, symName: '__ZN4core3ptr122drop_in_place$LT$core..option..Option$LT$borsh_derive..internals..attributes..field..schema..with_funcs..WithFuncs$GT$$GT$17he02ffe9b3554ccf8E', symObjAddr: 0x960, symBinAddr: 0xDA960, symSize: 0x50 }
  - { offsetInCU: 0x40C4, offset: 0x505174, size: 0x8, addend: 0x0, symName: '__ZN4core3ptr34drop_in_place$LT$syn..lit..Lit$GT$17h7e230476d36822bfE', symObjAddr: 0x9B0, symBinAddr: 0xDA9B0, symSize: 0x120 }
  - { offsetInCU: 0x45B2, offset: 0x505662, size: 0x8, addend: 0x0, symName: '__ZN4core3ptr34drop_in_place$LT$syn..pat..Pat$GT$17h5b0a97e980f53e46E', symObjAddr: 0xAD0, symBinAddr: 0xDAAD0, symSize: 0xF40 }
  - { offsetInCU: 0x8078, offset: 0x509128, size: 0x8, addend: 0x0, symName: '__ZN4core3ptr34drop_in_place$LT$syn..ty..Type$GT$17h19f850f61918f31fE', symObjAddr: 0x1A10, symBinAddr: 0xDBA10, symSize: 0x580 }
  - { offsetInCU: 0x9901, offset: 0x50A9B1, size: 0x8, addend: 0x0, symName: '__ZN4core3ptr36drop_in_place$LT$syn..expr..Expr$GT$17h98f7f68f0a06dff7E', symObjAddr: 0x1F90, symBinAddr: 0xDBF90, symSize: 0x2730 }
  - { offsetInCU: 0x12D61, offset: 0x513E11, size: 0x8, addend: 0x0, symName: '__ZN4core3ptr36drop_in_place$LT$syn..mac..Macro$GT$17hdf5bac46d7f74bccE', symObjAddr: 0x46C0, symBinAddr: 0xDE6C0, symSize: 0xE0 }
  - { offsetInCU: 0x130EB, offset: 0x51419B, size: 0x8, addend: 0x0, symName: '__ZN4core3ptr36drop_in_place$LT$syn..path..Path$GT$17hb2feba4d905af1b2E', symObjAddr: 0x47A0, symBinAddr: 0xDE7A0, symSize: 0x240 }
  - { offsetInCU: 0x13A85, offset: 0x514B35, size: 0x8, addend: 0x0, symName: '__ZN4core3ptr37drop_in_place$LT$syn..stmt..Block$GT$17h9594e7bdfd216ee2E', symObjAddr: 0x49E0, symBinAddr: 0xDE9E0, symSize: 0xD0 }
  - { offsetInCU: 0x13D5C, offset: 0x514E0C, size: 0x8, addend: 0x0, symName: '__ZN4core3ptr38drop_in_place$LT$syn..expr..Member$GT$17hd3bc25e187f7fae3E', symObjAddr: 0x4AB0, symBinAddr: 0xDEAB0, symSize: 0x30 }
  - { offsetInCU: 0x13E58, offset: 0x514F08, size: 0x8, addend: 0x0, symName: '__ZN4core3ptr39drop_in_place$LT$proc_macro2..Ident$GT$17hb5fbe0c131bfa218E', symObjAddr: 0x4AE0, symBinAddr: 0xDEAE0, symSize: 0x30 }
  - { offsetInCU: 0x13F35, offset: 0x514FE5, size: 0x8, addend: 0x0, symName: '__ZN4core3ptr40drop_in_place$LT$syn..ty..ReturnType$GT$17h2041b3e02720652aE', symObjAddr: 0x4B10, symBinAddr: 0xDEB10, symSize: 0x50 }
  - { offsetInCU: 0x140A5, offset: 0x515155, size: 0x8, addend: 0x0, symName: '__ZN4core3ptr41drop_in_place$LT$syn..expr..ExprConst$GT$17h546d2eac1f274d91E', symObjAddr: 0x4B60, symBinAddr: 0xDEB60, symSize: 0x180 }
  - { offsetInCU: 0x1465E, offset: 0x51570E, size: 0x8, addend: 0x0, symName: '__ZN4core3ptr44drop_in_place$LT$syn..generics..Generics$GT$17h6cc36a2c79e64375E', symObjAddr: 0x4CE0, symBinAddr: 0xDECE0, symSize: 0x40 }
  - { offsetInCU: 0x1467B, offset: 0x51572B, size: 0x8, addend: 0x0, symName: '__ZN4core3ptr44drop_in_place$LT$syn..lifetime..Lifetime$GT$17h8afd172b97690efdE', symObjAddr: 0x4D20, symBinAddr: 0xDED20, symSize: 0x30 }
  - { offsetInCU: 0x148AD, offset: 0x51595D, size: 0x8, addend: 0x0, symName: '__ZN4core3ptr45drop_in_place$LT$proc_macro2..TokenStream$GT$17h207b9d10b43ca09fE', symObjAddr: 0x4D50, symBinAddr: 0xDED50, symSize: 0x140 }
  - { offsetInCU: 0x14D47, offset: 0x515DF7, size: 0x8, addend: 0x0, symName: '__ZN4core3ptr45drop_in_place$LT$syn..generics..TypeParam$GT$17h6c3c07424bcf6a4eE', symObjAddr: 0x4E90, symBinAddr: 0xDEE90, symSize: 0x230 }
  - { offsetInCU: 0x15588, offset: 0x516638, size: 0x8, addend: 0x0, symName: '__ZN4core3ptr46drop_in_place$LT$syn..generics..ConstParam$GT$17hd0de4a5923445da7E', symObjAddr: 0x50C0, symBinAddr: 0xDF0C0, symSize: 0x150 }
  - { offsetInCU: 0x159D5, offset: 0x516A85, size: 0x8, addend: 0x0, symName: '__ZN4core3ptr47drop_in_place$LT$syn..generics..WhereClause$GT$17h886e9dcae0082af0E', symObjAddr: 0x5210, symBinAddr: 0xDF210, symSize: 0xE0 }
  - { offsetInCU: 0x15D58, offset: 0x516E08, size: 0x8, addend: 0x0, symName: '__ZN4core3ptr47drop_in_place$LT$syn..path..GenericArgument$GT$17hf4dd383aa34a4f0fE', symObjAddr: 0x52F0, symBinAddr: 0xDF2F0, symSize: 0x450 }
  - { offsetInCU: 0x16ACE, offset: 0x517B7E, size: 0x8, addend: 0x0, symName: '__ZN4core3ptr49drop_in_place$LT$syn..generics..LifetimeParam$GT$17hd0b2e7526885b204E', symObjAddr: 0x5740, symBinAddr: 0xDF740, symSize: 0xF0 }
  - { offsetInCU: 0x16EB1, offset: 0x517F61, size: 0x8, addend: 0x0, symName: '__ZN4core3ptr50drop_in_place$LT$syn..generics..TypeParamBound$GT$17hdc238d3175f8eb5aE', symObjAddr: 0x5830, symBinAddr: 0xDF830, symSize: 0xA0 }
  - { offsetInCU: 0x17017, offset: 0x5180C7, size: 0x8, addend: 0x0, symName: '__ZN4core3ptr58drop_in_place$LT$alloc..vec..Vec$LT$syn..expr..Arm$GT$$GT$17ha0ec4334cda5515cE', symObjAddr: 0x58D0, symBinAddr: 0xDF8D0, symSize: 0xD0 }
  - { offsetInCU: 0x172D7, offset: 0x518387, size: 0x8, addend: 0x0, symName: '__ZN4core3ptr59drop_in_place$LT$alloc..boxed..Box$LT$syn..pat..Pat$GT$$GT$17h67f20b4715509286E', symObjAddr: 0x59A0, symBinAddr: 0xDF9A0, symSize: 0x50 }
  - { offsetInCU: 0x17430, offset: 0x5184E0, size: 0x8, addend: 0x0, symName: '__ZN4core3ptr59drop_in_place$LT$alloc..boxed..Box$LT$syn..ty..Type$GT$$GT$17hb9082e267b94188dE', symObjAddr: 0x59F0, symBinAddr: 0xDF9F0, symSize: 0x50 }
  - { offsetInCU: 0x17589, offset: 0x518639, size: 0x8, addend: 0x0, symName: '__ZN4core3ptr61drop_in_place$LT$alloc..boxed..Box$LT$syn..expr..Expr$GT$$GT$17h01310d89a7a8aab3E', symObjAddr: 0x5A40, symBinAddr: 0xDFA40, symSize: 0x50 }
  - { offsetInCU: 0x176E2, offset: 0x518792, size: 0x8, addend: 0x0, symName: '__ZN4core3ptr61drop_in_place$LT$syn..path..ParenthesizedGenericArguments$GT$17h7fee2959ae354450E', symObjAddr: 0x5A90, symBinAddr: 0xDFA90, symSize: 0x170 }
  - { offsetInCU: 0x17CEB, offset: 0x518D9B, size: 0x8, addend: 0x0, symName: '__ZN4core3ptr63drop_in_place$LT$alloc..boxed..Box$LT$syn..lit..LitRepr$GT$$GT$17hf23a84bed7f64f98E', symObjAddr: 0x5C00, symBinAddr: 0xDFC00, symSize: 0x60 }
  - { offsetInCU: 0x17FF2, offset: 0x5190A2, size: 0x8, addend: 0x0, symName: '__ZN4core3ptr64drop_in_place$LT$alloc..boxed..Box$LT$syn..pat..FieldPat$GT$$GT$17ha5ec27d4d418dbdfE', symObjAddr: 0x5C60, symBinAddr: 0xDFC60, symSize: 0x140 }
  - { offsetInCU: 0x186BF, offset: 0x51976F, size: 0x8, addend: 0x0, symName: '__ZN4core3ptr64drop_in_place$LT$alloc..boxed..Box$LT$syn..ty..BareFnArg$GT$$GT$17hb416cdff09d8949eE', symObjAddr: 0x5DA0, symBinAddr: 0xDFDA0, symSize: 0x140 }
  - { offsetInCU: 0x18C14, offset: 0x519CC4, size: 0x8, addend: 0x0, symName: '__ZN4core3ptr64drop_in_place$LT$borsh_derive..internals..serialize..FieldId$GT$17h37a15f362dd4dc50E', symObjAddr: 0x5EE0, symBinAddr: 0xDFEE0, symSize: 0x40 }
  - { offsetInCU: 0x18CB9, offset: 0x519D69, size: 0x8, addend: 0x0, symName: '__ZN4core3ptr65drop_in_place$LT$alloc..vec..Vec$LT$proc_macro..TokenTree$GT$$GT$17h54365d0bdf61b883E', symObjAddr: 0x5F20, symBinAddr: 0xDFF20, symSize: 0x110 }
  - { offsetInCU: 0x190B1, offset: 0x51A161, size: 0x8, addend: 0x0, symName: '__ZN4core3ptr65drop_in_place$LT$core..option..Option$LT$syn..expr..Label$GT$$GT$17h6cb338f3d3fef208E', symObjAddr: 0x6030, symBinAddr: 0xE0030, symSize: 0x30 }
  - { offsetInCU: 0x191EB, offset: 0x51A29B, size: 0x8, addend: 0x0, symName: '__ZN4core3ptr65drop_in_place$LT$core..option..Option$LT$syn..path..QSelf$GT$$GT$17h77b32165fa1277f0E', symObjAddr: 0x6060, symBinAddr: 0xE0060, symSize: 0x50 }
  - { offsetInCU: 0x1936C, offset: 0x51A41C, size: 0x8, addend: 0x0, symName: '__ZN4core3ptr66drop_in_place$LT$core..option..Option$LT$syn..pat..PatRest$GT$$GT$17h7c9095b226142979E', symObjAddr: 0x60B0, symBinAddr: 0xE00B0, symSize: 0xE0 }
  - { offsetInCU: 0x19660, offset: 0x51A710, size: 0x8, addend: 0x0, symName: '__ZN4core3ptr67drop_in_place$LT$alloc..boxed..Box$LT$syn..expr..FieldValue$GT$$GT$17hb048d8ef1ec03e8dE', symObjAddr: 0x6190, symBinAddr: 0xE0190, symSize: 0x140 }
  - { offsetInCU: 0x19CAC, offset: 0x51AD5C, size: 0x8, addend: 0x0, symName: '__ZN4core3ptr68drop_in_place$LT$borsh_derive..internals..generics..FindTyParams$GT$17he80daff20c61038bE', symObjAddr: 0x62D0, symBinAddr: 0xE02D0, symSize: 0xA0 }
  - { offsetInCU: 0x1A0A1, offset: 0x51B151, size: 0x8, addend: 0x0, symName: '__ZN4core3ptr68drop_in_place$LT$core..option..Option$LT$syn..expr..ExprPath$GT$$GT$17h41dad2f121aec28cE', symObjAddr: 0x6370, symBinAddr: 0xE0370, symSize: 0x140 }
  - { offsetInCU: 0x1A523, offset: 0x51B5D3, size: 0x8, addend: 0x0, symName: '__ZN4core3ptr70drop_in_place$LT$core..option..Option$LT$syn..ty..BareVariadic$GT$$GT$17hf6d2a770387443a3E', symObjAddr: 0x64B0, symBinAddr: 0xE04B0, symSize: 0x100 }
  - { offsetInCU: 0x1A93B, offset: 0x51B9EB, size: 0x8, addend: 0x0, symName: '__ZN4core3ptr71drop_in_place$LT$borsh_derive..internals..serialize..GenericsOutput$GT$17ha3d59c163defd5eeE', symObjAddr: 0x65B0, symBinAddr: 0xE05B0, symSize: 0xE0 }
  - { offsetInCU: 0x1AC29, offset: 0x51BCD9, size: 0x8, addend: 0x0, symName: '__ZN4core3ptr72drop_in_place$LT$alloc..boxed..Box$LT$syn..path..GenericArgument$GT$$GT$17hcc60f7ab467d198fE', symObjAddr: 0x6690, symBinAddr: 0xE0690, symSize: 0x2B0 }
  - { offsetInCU: 0x1B63A, offset: 0x51C6EA, size: 0x8, addend: 0x0, symName: '__ZN4core3ptr72drop_in_place$LT$core..option..Option$LT$syn..lifetime..Lifetime$GT$$GT$17h70ad3b488ebe3596E', symObjAddr: 0x6940, symBinAddr: 0xE0940, symSize: 0x30 }
  - { offsetInCU: 0x1B755, offset: 0x51C805, size: 0x8, addend: 0x0, symName: '__ZN4core3ptr73drop_in_place$LT$alloc..boxed..Box$LT$syn..generics..GenericParam$GT$$GT$17hd8823d2eb1a41dfaE', symObjAddr: 0x6970, symBinAddr: 0xE0970, symSize: 0x80 }
  - { offsetInCU: 0x1B8CB, offset: 0x51C97B, size: 0x8, addend: 0x0, symName: '__ZN4core3ptr75drop_in_place$LT$alloc..boxed..Box$LT$syn..generics..TypeParamBound$GT$$GT$17hc0dbc3e6560133a8E', symObjAddr: 0x69F0, symBinAddr: 0xE09F0, symSize: 0x180 }
  - { offsetInCU: 0x1BE79, offset: 0x51CF29, size: 0x8, addend: 0x0, symName: '__ZN4core3ptr75drop_in_place$LT$core..option..Option$LT$syn..generics..WhereClause$GT$$GT$17h2c16f6dc41ab983cE', symObjAddr: 0x6B70, symBinAddr: 0xE0B70, symSize: 0x100 }
  - { offsetInCU: 0x1C230, offset: 0x51D2E0, size: 0x8, addend: 0x0, symName: '__ZN4core3ptr86drop_in_place$LT$syn..punctuated..Punctuated$LT$syn..pat..Pat$C$syn..token..Or$GT$$GT$17hb407e891b009195eE', symObjAddr: 0x6C70, symBinAddr: 0xE0C70, symSize: 0x120 }
  - { offsetInCU: 0x1C6AB, offset: 0x51D75B, size: 0x8, addend: 0x0, symName: '__ZN4core3ptr87drop_in_place$LT$core..option..Option$LT$alloc..boxed..Box$LT$syn..pat..Pat$GT$$GT$$GT$17h27575db68a752b00E', symObjAddr: 0x6D90, symBinAddr: 0xE0D90, symSize: 0x50 }
  - { offsetInCU: 0x1C81B, offset: 0x51D8CB, size: 0x8, addend: 0x0, symName: '__ZN4core3ptr87drop_in_place$LT$core..option..Option$LT$alloc..boxed..Box$LT$syn..ty..Type$GT$$GT$$GT$17h2cce7e91b6f26339E', symObjAddr: 0x6DE0, symBinAddr: 0xE0DE0, symSize: 0x50 }
  - { offsetInCU: 0x1C98B, offset: 0x51DA3B, size: 0x8, addend: 0x0, symName: '__ZN4core3ptr89drop_in_place$LT$core..option..Option$LT$alloc..boxed..Box$LT$syn..expr..Expr$GT$$GT$$GT$17h4805299351d776eaE', symObjAddr: 0x6E30, symBinAddr: 0xE0E30, symSize: 0x50 }
  - { offsetInCU: 0x1CB39, offset: 0x51DBE9, size: 0x8, addend: 0x0, symName: '__ZN4core3ptr89drop_in_place$LT$syn..punctuated..Punctuated$LT$syn..pat..Pat$C$syn..token..Comma$GT$$GT$17hbfa21962153cb723E', symObjAddr: 0x6E80, symBinAddr: 0xE0E80, symSize: 0x120 }
  - { offsetInCU: 0x1D009, offset: 0x51E0B9, size: 0x8, addend: 0x0, symName: '__ZN4core3ptr91drop_in_place$LT$syn..punctuated..Punctuated$LT$syn..expr..Expr$C$syn..token..Comma$GT$$GT$17hd2c79695be72d75eE', symObjAddr: 0x6FA0, symBinAddr: 0xE0FA0, symSize: 0x120 }
  - { offsetInCU: 0x1D497, offset: 0x51E547, size: 0x8, addend: 0x0, symName: '__ZN4core3ptr94drop_in_place$LT$syn..punctuated..Punctuated$LT$syn..pat..FieldPat$C$syn..token..Comma$GT$$GT$17hb2b4aed8f633cba0E', symObjAddr: 0x70C0, symBinAddr: 0xE10C0, symSize: 0xF0 }
  - { offsetInCU: 0x1D796, offset: 0x51E846, size: 0x8, addend: 0x0, symName: '__ZN4core3ptr94drop_in_place$LT$syn..punctuated..Punctuated$LT$syn..ty..BareFnArg$C$syn..token..Comma$GT$$GT$17h59c18cbb4f726140E', symObjAddr: 0x71B0, symBinAddr: 0xE11B0, symSize: 0xF0 }
  - { offsetInCU: 0x1DA97, offset: 0x51EB47, size: 0x8, addend: 0x0, symName: '__ZN4core3ptr96drop_in_place$LT$core..option..Option$LT$alloc..boxed..Box$LT$syn..path..PathSegment$GT$$GT$$GT$17hd67a31bad3bc4ef4E', symObjAddr: 0x72A0, symBinAddr: 0xE12A0, symSize: 0x1A0 }
  - { offsetInCU: 0x1E158, offset: 0x51F208, size: 0x8, addend: 0x0, symName: '__ZN4core3ptr97drop_in_place$LT$syn..punctuated..Punctuated$LT$syn..expr..FieldValue$C$syn..token..Comma$GT$$GT$17h2644f25adad08ccbE', symObjAddr: 0x7440, symBinAddr: 0xE1440, symSize: 0xF0 }
  - { offsetInCU: 0x1E4D1, offset: 0x51F581, size: 0x8, addend: 0x0, symName: '__ZN4core3ptr98drop_in_place$LT$syn..punctuated..Punctuated$LT$syn..lifetime..Lifetime$C$syn..token..Plus$GT$$GT$17hfbe9a104e4a4f23fE', symObjAddr: 0x7530, symBinAddr: 0xE1530, symSize: 0xD0 }
  - { offsetInCU: 0x2891D, offset: 0x5299CD, size: 0x8, addend: 0x0, symName: __ZN12borsh_derive9internals9serialize7structs7process17h961c7abb19defdf1E, symObjAddr: 0x7600, symBinAddr: 0xE1600, symSize: 0xCC0 }
  - { offsetInCU: 0x29CD2, offset: 0x52AD82, size: 0x8, addend: 0x0, symName: __ZN12borsh_derive9internals9serialize7structs13process_field17h269012e71627166bE, symObjAddr: 0x82C0, symBinAddr: 0xE22C0, symSize: 0x3DA }
  - { offsetInCU: 0x1E, offset: 0x52FA00, size: 0x8, addend: 0x0, symName: '__ZN4core3ptr100drop_in_place$LT$core..option..Option$LT$alloc..boxed..Box$LT$syn..path..GenericArgument$GT$$GT$$GT$17h807a36ffbab107a4E', symObjAddr: 0x0, symBinAddr: 0xE26A0, symSize: 0x50 }
  - { offsetInCU: 0x18DE, offset: 0x5312C0, size: 0x8, addend: 0x0, symName: '__ZN4core3ptr100drop_in_place$LT$core..option..Option$LT$alloc..boxed..Box$LT$syn..path..GenericArgument$GT$$GT$$GT$17h807a36ffbab107a4E', symObjAddr: 0x0, symBinAddr: 0xE26A0, symSize: 0x50 }
  - { offsetInCU: 0x1AAB, offset: 0x53148D, size: 0x8, addend: 0x0, symName: '__ZN4core3ptr102drop_in_place$LT$syn..punctuated..Punctuated$LT$syn..path..GenericArgument$C$syn..token..Comma$GT$$GT$17h87ac6172553c146eE', symObjAddr: 0x50, symBinAddr: 0xE26F0, symSize: 0xF0 }
  - { offsetInCU: 0x1DCB, offset: 0x5317AD, size: 0x8, addend: 0x0, symName: '__ZN4core3ptr103drop_in_place$LT$core..option..Option$LT$alloc..boxed..Box$LT$syn..generics..TypeParamBound$GT$$GT$$GT$17h0017d361ebb9471fE', symObjAddr: 0x140, symBinAddr: 0xE27E0, symSize: 0x50 }
  - { offsetInCU: 0x1FD6, offset: 0x5319B8, size: 0x8, addend: 0x0, symName: '__ZN4core3ptr103drop_in_place$LT$syn..punctuated..Punctuated$LT$syn..generics..GenericParam$C$syn..token..Comma$GT$$GT$17hf5a644fae414a53cE', symObjAddr: 0x190, symBinAddr: 0xE2830, symSize: 0xF0 }
  - { offsetInCU: 0x25AA, offset: 0x531F8C, size: 0x8, addend: 0x0, symName: '__ZN4core3ptr104drop_in_place$LT$syn..punctuated..Punctuated$LT$syn..generics..TypeParamBound$C$syn..token..Plus$GT$$GT$17ha86a9d1599e32cffE', symObjAddr: 0x280, symBinAddr: 0xE2920, symSize: 0x240 }
  - { offsetInCU: 0x2EE1, offset: 0x5328C3, size: 0x8, addend: 0x0, symName: '__ZN4core3ptr34drop_in_place$LT$syn..lit..Lit$GT$17h7e230476d36822bfE', symObjAddr: 0x4C0, symBinAddr: 0xE2B60, symSize: 0x120 }
  - { offsetInCU: 0x33CF, offset: 0x532DB1, size: 0x8, addend: 0x0, symName: '__ZN4core3ptr34drop_in_place$LT$syn..pat..Pat$GT$17h5b0a97e980f53e46E', symObjAddr: 0x5E0, symBinAddr: 0xE2C80, symSize: 0xF40 }
  - { offsetInCU: 0x6E95, offset: 0x536877, size: 0x8, addend: 0x0, symName: '__ZN4core3ptr34drop_in_place$LT$syn..ty..Type$GT$17h19f850f61918f31fE', symObjAddr: 0x1520, symBinAddr: 0xE3BC0, symSize: 0x580 }
  - { offsetInCU: 0x871E, offset: 0x538100, size: 0x8, addend: 0x0, symName: '__ZN4core3ptr36drop_in_place$LT$syn..expr..Expr$GT$17h98f7f68f0a06dff7E', symObjAddr: 0x1AA0, symBinAddr: 0xE4140, symSize: 0x2730 }
  - { offsetInCU: 0x11B7E, offset: 0x541560, size: 0x8, addend: 0x0, symName: '__ZN4core3ptr36drop_in_place$LT$syn..mac..Macro$GT$17hdf5bac46d7f74bccE', symObjAddr: 0x41D0, symBinAddr: 0xE6870, symSize: 0xE0 }
  - { offsetInCU: 0x11F08, offset: 0x5418EA, size: 0x8, addend: 0x0, symName: '__ZN4core3ptr36drop_in_place$LT$syn..path..Path$GT$17hb2feba4d905af1b2E.llvm.541625254716414517', symObjAddr: 0x42B0, symBinAddr: 0xE6950, symSize: 0x240 }
  - { offsetInCU: 0x128A2, offset: 0x542284, size: 0x8, addend: 0x0, symName: '__ZN4core3ptr37drop_in_place$LT$syn..stmt..Block$GT$17h9594e7bdfd216ee2E', symObjAddr: 0x44F0, symBinAddr: 0xE6B90, symSize: 0xD0 }
  - { offsetInCU: 0x12B79, offset: 0x54255B, size: 0x8, addend: 0x0, symName: '__ZN4core3ptr38drop_in_place$LT$syn..expr..Member$GT$17hd3bc25e187f7fae3E', symObjAddr: 0x45C0, symBinAddr: 0xE6C60, symSize: 0x30 }
  - { offsetInCU: 0x12C75, offset: 0x542657, size: 0x8, addend: 0x0, symName: '__ZN4core3ptr39drop_in_place$LT$proc_macro2..Ident$GT$17hb5fbe0c131bfa218E', symObjAddr: 0x45F0, symBinAddr: 0xE6C90, symSize: 0x30 }
  - { offsetInCU: 0x12D52, offset: 0x542734, size: 0x8, addend: 0x0, symName: '__ZN4core3ptr40drop_in_place$LT$syn..ty..ReturnType$GT$17h2041b3e02720652aE', symObjAddr: 0x4620, symBinAddr: 0xE6CC0, symSize: 0x50 }
  - { offsetInCU: 0x12EC2, offset: 0x5428A4, size: 0x8, addend: 0x0, symName: '__ZN4core3ptr41drop_in_place$LT$syn..expr..ExprConst$GT$17h546d2eac1f274d91E', symObjAddr: 0x4670, symBinAddr: 0xE6D10, symSize: 0x180 }
  - { offsetInCU: 0x1347B, offset: 0x542E5D, size: 0x8, addend: 0x0, symName: '__ZN4core3ptr44drop_in_place$LT$syn..lifetime..Lifetime$GT$17h8afd172b97690efdE', symObjAddr: 0x47F0, symBinAddr: 0xE6E90, symSize: 0x30 }
  - { offsetInCU: 0x136AD, offset: 0x54308F, size: 0x8, addend: 0x0, symName: '__ZN4core3ptr45drop_in_place$LT$proc_macro2..TokenStream$GT$17h207b9d10b43ca09fE', symObjAddr: 0x4820, symBinAddr: 0xE6EC0, symSize: 0x140 }
  - { offsetInCU: 0x13B47, offset: 0x543529, size: 0x8, addend: 0x0, symName: '__ZN4core3ptr45drop_in_place$LT$syn..generics..TypeParam$GT$17h6c3c07424bcf6a4eE', symObjAddr: 0x4960, symBinAddr: 0xE7000, symSize: 0x230 }
  - { offsetInCU: 0x14388, offset: 0x543D6A, size: 0x8, addend: 0x0, symName: '__ZN4core3ptr46drop_in_place$LT$syn..generics..ConstParam$GT$17hd0de4a5923445da7E', symObjAddr: 0x4B90, symBinAddr: 0xE7230, symSize: 0x150 }
  - { offsetInCU: 0x147D5, offset: 0x5441B7, size: 0x8, addend: 0x0, symName: '__ZN4core3ptr47drop_in_place$LT$syn..path..GenericArgument$GT$17hf4dd383aa34a4f0fE', symObjAddr: 0x4CE0, symBinAddr: 0xE7380, symSize: 0x450 }
  - { offsetInCU: 0x1554B, offset: 0x544F2D, size: 0x8, addend: 0x0, symName: '__ZN4core3ptr49drop_in_place$LT$syn..generics..LifetimeParam$GT$17hd0b2e7526885b204E', symObjAddr: 0x5130, symBinAddr: 0xE77D0, symSize: 0xF0 }
  - { offsetInCU: 0x1592E, offset: 0x545310, size: 0x8, addend: 0x0, symName: '__ZN4core3ptr50drop_in_place$LT$syn..generics..TypeParamBound$GT$17hdc238d3175f8eb5aE', symObjAddr: 0x5220, symBinAddr: 0xE78C0, symSize: 0xA0 }
  - { offsetInCU: 0x15A94, offset: 0x545476, size: 0x8, addend: 0x0, symName: '__ZN4core3ptr58drop_in_place$LT$alloc..vec..Vec$LT$syn..expr..Arm$GT$$GT$17ha0ec4334cda5515cE', symObjAddr: 0x52C0, symBinAddr: 0xE7960, symSize: 0xD0 }
  - { offsetInCU: 0x15D54, offset: 0x545736, size: 0x8, addend: 0x0, symName: '__ZN4core3ptr59drop_in_place$LT$alloc..boxed..Box$LT$syn..pat..Pat$GT$$GT$17h67f20b4715509286E', symObjAddr: 0x5390, symBinAddr: 0xE7A30, symSize: 0x50 }
  - { offsetInCU: 0x15EAD, offset: 0x54588F, size: 0x8, addend: 0x0, symName: '__ZN4core3ptr59drop_in_place$LT$alloc..boxed..Box$LT$syn..ty..Type$GT$$GT$17hb9082e267b94188dE', symObjAddr: 0x53E0, symBinAddr: 0xE7A80, symSize: 0x50 }
  - { offsetInCU: 0x16006, offset: 0x5459E8, size: 0x8, addend: 0x0, symName: '__ZN4core3ptr61drop_in_place$LT$alloc..boxed..Box$LT$syn..expr..Expr$GT$$GT$17h01310d89a7a8aab3E', symObjAddr: 0x5430, symBinAddr: 0xE7AD0, symSize: 0x50 }
  - { offsetInCU: 0x1615F, offset: 0x545B41, size: 0x8, addend: 0x0, symName: '__ZN4core3ptr61drop_in_place$LT$syn..path..ParenthesizedGenericArguments$GT$17h7fee2959ae354450E', symObjAddr: 0x5480, symBinAddr: 0xE7B20, symSize: 0x170 }
  - { offsetInCU: 0x16768, offset: 0x54614A, size: 0x8, addend: 0x0, symName: '__ZN4core3ptr63drop_in_place$LT$alloc..boxed..Box$LT$syn..lit..LitRepr$GT$$GT$17hf23a84bed7f64f98E', symObjAddr: 0x55F0, symBinAddr: 0xE7C90, symSize: 0x60 }
  - { offsetInCU: 0x16A6F, offset: 0x546451, size: 0x8, addend: 0x0, symName: '__ZN4core3ptr64drop_in_place$LT$alloc..boxed..Box$LT$syn..pat..FieldPat$GT$$GT$17ha5ec27d4d418dbdfE', symObjAddr: 0x5650, symBinAddr: 0xE7CF0, symSize: 0x140 }
  - { offsetInCU: 0x1713C, offset: 0x546B1E, size: 0x8, addend: 0x0, symName: '__ZN4core3ptr64drop_in_place$LT$alloc..boxed..Box$LT$syn..ty..BareFnArg$GT$$GT$17hb416cdff09d8949eE', symObjAddr: 0x5790, symBinAddr: 0xE7E30, symSize: 0x140 }
  - { offsetInCU: 0x17691, offset: 0x547073, size: 0x8, addend: 0x0, symName: '__ZN4core3ptr65drop_in_place$LT$alloc..vec..Vec$LT$proc_macro..TokenTree$GT$$GT$17h54365d0bdf61b883E', symObjAddr: 0x58D0, symBinAddr: 0xE7F70, symSize: 0x110 }
  - { offsetInCU: 0x17A89, offset: 0x54746B, size: 0x8, addend: 0x0, symName: '__ZN4core3ptr65drop_in_place$LT$core..option..Option$LT$syn..expr..Label$GT$$GT$17h6cb338f3d3fef208E', symObjAddr: 0x59E0, symBinAddr: 0xE8080, symSize: 0x30 }
  - { offsetInCU: 0x17BC3, offset: 0x5475A5, size: 0x8, addend: 0x0, symName: '__ZN4core3ptr66drop_in_place$LT$core..option..Option$LT$syn..pat..PatRest$GT$$GT$17h7c9095b226142979E', symObjAddr: 0x5A10, symBinAddr: 0xE80B0, symSize: 0xE0 }
  - { offsetInCU: 0x17EB7, offset: 0x547899, size: 0x8, addend: 0x0, symName: '__ZN4core3ptr67drop_in_place$LT$alloc..boxed..Box$LT$syn..expr..FieldValue$GT$$GT$17hb048d8ef1ec03e8dE', symObjAddr: 0x5AF0, symBinAddr: 0xE8190, symSize: 0x140 }
  - { offsetInCU: 0x1840B, offset: 0x547DED, size: 0x8, addend: 0x0, symName: '__ZN4core3ptr70drop_in_place$LT$core..option..Option$LT$syn..ty..BareVariadic$GT$$GT$17hf6d2a770387443a3E', symObjAddr: 0x5C30, symBinAddr: 0xE82D0, symSize: 0x100 }
  - { offsetInCU: 0x18842, offset: 0x548224, size: 0x8, addend: 0x0, symName: '__ZN4core3ptr72drop_in_place$LT$alloc..boxed..Box$LT$syn..path..GenericArgument$GT$$GT$17hcc60f7ab467d198fE', symObjAddr: 0x5D30, symBinAddr: 0xE83D0, symSize: 0x2B0 }
  - { offsetInCU: 0x19253, offset: 0x548C35, size: 0x8, addend: 0x0, symName: '__ZN4core3ptr72drop_in_place$LT$core..option..Option$LT$syn..lifetime..Lifetime$GT$$GT$17h70ad3b488ebe3596E', symObjAddr: 0x5FE0, symBinAddr: 0xE8680, symSize: 0x30 }
  - { offsetInCU: 0x1936E, offset: 0x548D50, size: 0x8, addend: 0x0, symName: '__ZN4core3ptr73drop_in_place$LT$alloc..boxed..Box$LT$syn..generics..GenericParam$GT$$GT$17hd8823d2eb1a41dfaE', symObjAddr: 0x6010, symBinAddr: 0xE86B0, symSize: 0x80 }
  - { offsetInCU: 0x194E4, offset: 0x548EC6, size: 0x8, addend: 0x0, symName: '__ZN4core3ptr75drop_in_place$LT$alloc..boxed..Box$LT$syn..generics..TypeParamBound$GT$$GT$17hc0dbc3e6560133a8E', symObjAddr: 0x6090, symBinAddr: 0xE8730, symSize: 0x180 }
  - { offsetInCU: 0x19AD0, offset: 0x5494B2, size: 0x8, addend: 0x0, symName: '__ZN4core3ptr86drop_in_place$LT$syn..punctuated..Punctuated$LT$syn..pat..Pat$C$syn..token..Or$GT$$GT$17hb407e891b009195eE', symObjAddr: 0x6210, symBinAddr: 0xE88B0, symSize: 0x120 }
  - { offsetInCU: 0x19F4B, offset: 0x54992D, size: 0x8, addend: 0x0, symName: '__ZN4core3ptr87drop_in_place$LT$core..option..Option$LT$alloc..boxed..Box$LT$syn..pat..Pat$GT$$GT$$GT$17h27575db68a752b00E', symObjAddr: 0x6330, symBinAddr: 0xE89D0, symSize: 0x50 }
  - { offsetInCU: 0x1A0BB, offset: 0x549A9D, size: 0x8, addend: 0x0, symName: '__ZN4core3ptr87drop_in_place$LT$core..option..Option$LT$alloc..boxed..Box$LT$syn..ty..Type$GT$$GT$$GT$17h2cce7e91b6f26339E', symObjAddr: 0x6380, symBinAddr: 0xE8A20, symSize: 0x50 }
  - { offsetInCU: 0x1A22B, offset: 0x549C0D, size: 0x8, addend: 0x0, symName: '__ZN4core3ptr89drop_in_place$LT$core..option..Option$LT$alloc..boxed..Box$LT$syn..expr..Expr$GT$$GT$$GT$17h4805299351d776eaE', symObjAddr: 0x63D0, symBinAddr: 0xE8A70, symSize: 0x50 }
  - { offsetInCU: 0x1A3D9, offset: 0x549DBB, size: 0x8, addend: 0x0, symName: '__ZN4core3ptr89drop_in_place$LT$syn..punctuated..Punctuated$LT$syn..pat..Pat$C$syn..token..Comma$GT$$GT$17hbfa21962153cb723E', symObjAddr: 0x6420, symBinAddr: 0xE8AC0, symSize: 0x120 }
  - { offsetInCU: 0x1A8A9, offset: 0x54A28B, size: 0x8, addend: 0x0, symName: '__ZN4core3ptr91drop_in_place$LT$syn..punctuated..Punctuated$LT$syn..expr..Expr$C$syn..token..Comma$GT$$GT$17hd2c79695be72d75eE', symObjAddr: 0x6540, symBinAddr: 0xE8BE0, symSize: 0x120 }
  - { offsetInCU: 0x1AD37, offset: 0x54A719, size: 0x8, addend: 0x0, symName: '__ZN4core3ptr94drop_in_place$LT$syn..punctuated..Punctuated$LT$syn..pat..FieldPat$C$syn..token..Comma$GT$$GT$17hb2b4aed8f633cba0E', symObjAddr: 0x6660, symBinAddr: 0xE8D00, symSize: 0xF0 }
  - { offsetInCU: 0x1B036, offset: 0x54AA18, size: 0x8, addend: 0x0, symName: '__ZN4core3ptr94drop_in_place$LT$syn..punctuated..Punctuated$LT$syn..ty..BareFnArg$C$syn..token..Comma$GT$$GT$17h59c18cbb4f726140E', symObjAddr: 0x6750, symBinAddr: 0xE8DF0, symSize: 0xF0 }
  - { offsetInCU: 0x1B337, offset: 0x54AD19, size: 0x8, addend: 0x0, symName: '__ZN4core3ptr96drop_in_place$LT$core..option..Option$LT$alloc..boxed..Box$LT$syn..path..PathSegment$GT$$GT$$GT$17hd67a31bad3bc4ef4E', symObjAddr: 0x6840, symBinAddr: 0xE8EE0, symSize: 0x1A0 }
  - { offsetInCU: 0x1B9F8, offset: 0x54B3DA, size: 0x8, addend: 0x0, symName: '__ZN4core3ptr97drop_in_place$LT$syn..punctuated..Punctuated$LT$syn..expr..FieldValue$C$syn..token..Comma$GT$$GT$17h2644f25adad08ccbE', symObjAddr: 0x69E0, symBinAddr: 0xE9080, symSize: 0xF0 }
  - { offsetInCU: 0x1BD71, offset: 0x54B753, size: 0x8, addend: 0x0, symName: '__ZN4core3ptr98drop_in_place$LT$syn..punctuated..Punctuated$LT$syn..lifetime..Lifetime$C$syn..token..Plus$GT$$GT$17hfbe9a104e4a4f23fE', symObjAddr: 0x6AD0, symBinAddr: 0xE9170, symSize: 0xD0 }
  - { offsetInCU: 0x2674B, offset: 0x55612D, size: 0x8, addend: 0x0, symName: __ZN12borsh_derive9internals10attributes4item25contains_use_discriminant17h1e4ab8b3ab8f360bE, symObjAddr: 0x6C40, symBinAddr: 0xE9240, symSize: 0x240 }
  - { offsetInCU: 0x26F85, offset: 0x556967, size: 0x8, addend: 0x0, symName: __ZN12borsh_derive9internals10attributes4item24contains_initialize_with17h6194f241c872fd99E, symObjAddr: 0x6E80, symBinAddr: 0xE9480, symSize: 0x150 }
  - { offsetInCU: 0x2721E, offset: 0x556C00, size: 0x8, addend: 0x0, symName: __ZN12borsh_derive9internals10attributes4item9get_crate17h45580f14f1b0a53eE, symObjAddr: 0x6FD0, symBinAddr: 0xE95D0, symSize: 0x141 }
  - { offsetInCU: 0x1E, offset: 0x559466, size: 0x8, addend: 0x0, symName: '__ZN4core3ptr100drop_in_place$LT$core..option..Option$LT$alloc..boxed..Box$LT$syn..path..GenericArgument$GT$$GT$$GT$17h807a36ffbab107a4E', symObjAddr: 0x0, symBinAddr: 0xE9720, symSize: 0x50 }
  - { offsetInCU: 0x189B, offset: 0x55ACE3, size: 0x8, addend: 0x0, symName: '__ZN4core3ptr100drop_in_place$LT$core..option..Option$LT$alloc..boxed..Box$LT$syn..path..GenericArgument$GT$$GT$$GT$17h807a36ffbab107a4E', symObjAddr: 0x0, symBinAddr: 0xE9720, symSize: 0x50 }
  - { offsetInCU: 0x1A68, offset: 0x55AEB0, size: 0x8, addend: 0x0, symName: '__ZN4core3ptr102drop_in_place$LT$syn..punctuated..Punctuated$LT$syn..path..GenericArgument$C$syn..token..Comma$GT$$GT$17h87ac6172553c146eE', symObjAddr: 0x50, symBinAddr: 0xE9770, symSize: 0xF0 }
  - { offsetInCU: 0x1D88, offset: 0x55B1D0, size: 0x8, addend: 0x0, symName: '__ZN4core3ptr103drop_in_place$LT$core..option..Option$LT$alloc..boxed..Box$LT$syn..generics..TypeParamBound$GT$$GT$$GT$17h0017d361ebb9471fE', symObjAddr: 0x140, symBinAddr: 0xE9860, symSize: 0x50 }
  - { offsetInCU: 0x204D, offset: 0x55B495, size: 0x8, addend: 0x0, symName: '__ZN4core3ptr103drop_in_place$LT$core..option..Option$LT$alloc..boxed..Box$LT$syn..generics..WherePredicate$GT$$GT$$GT$17he4ee84860b39964eE', symObjAddr: 0x190, symBinAddr: 0xE98B0, symSize: 0xD0 }
  - { offsetInCU: 0x23E1, offset: 0x55B829, size: 0x8, addend: 0x0, symName: '__ZN4core3ptr103drop_in_place$LT$syn..punctuated..Punctuated$LT$syn..generics..GenericParam$C$syn..token..Comma$GT$$GT$17hf5a644fae414a53cE', symObjAddr: 0x260, symBinAddr: 0xE9980, symSize: 0xF0 }
  - { offsetInCU: 0x28DC, offset: 0x55BD24, size: 0x8, addend: 0x0, symName: '__ZN4core3ptr104drop_in_place$LT$syn..punctuated..Punctuated$LT$syn..generics..TypeParamBound$C$syn..token..Plus$GT$$GT$17ha86a9d1599e32cffE', symObjAddr: 0x350, symBinAddr: 0xE9A70, symSize: 0x240 }
  - { offsetInCU: 0x3213, offset: 0x55C65B, size: 0x8, addend: 0x0, symName: '__ZN4core3ptr34drop_in_place$LT$syn..lit..Lit$GT$17h7e230476d36822bfE', symObjAddr: 0x590, symBinAddr: 0xE9CB0, symSize: 0x120 }
  - { offsetInCU: 0x3701, offset: 0x55CB49, size: 0x8, addend: 0x0, symName: '__ZN4core3ptr34drop_in_place$LT$syn..pat..Pat$GT$17h5b0a97e980f53e46E', symObjAddr: 0x6B0, symBinAddr: 0xE9DD0, symSize: 0xF40 }
  - { offsetInCU: 0x71C7, offset: 0x56060F, size: 0x8, addend: 0x0, symName: '__ZN4core3ptr34drop_in_place$LT$syn..ty..Type$GT$17h19f850f61918f31fE', symObjAddr: 0x15F0, symBinAddr: 0xEAD10, symSize: 0x580 }
  - { offsetInCU: 0x8A50, offset: 0x561E98, size: 0x8, addend: 0x0, symName: '__ZN4core3ptr36drop_in_place$LT$syn..expr..Expr$GT$17h98f7f68f0a06dff7E', symObjAddr: 0x1B70, symBinAddr: 0xEB290, symSize: 0x2730 }
  - { offsetInCU: 0x11EB0, offset: 0x56B2F8, size: 0x8, addend: 0x0, symName: '__ZN4core3ptr36drop_in_place$LT$syn..mac..Macro$GT$17hdf5bac46d7f74bccE', symObjAddr: 0x42A0, symBinAddr: 0xED9C0, symSize: 0xE0 }
  - { offsetInCU: 0x1223A, offset: 0x56B682, size: 0x8, addend: 0x0, symName: '__ZN4core3ptr36drop_in_place$LT$syn..path..Path$GT$17hb2feba4d905af1b2E', symObjAddr: 0x4380, symBinAddr: 0xEDAA0, symSize: 0x240 }
  - { offsetInCU: 0x12BD4, offset: 0x56C01C, size: 0x8, addend: 0x0, symName: '__ZN4core3ptr37drop_in_place$LT$syn..stmt..Block$GT$17h9594e7bdfd216ee2E', symObjAddr: 0x45C0, symBinAddr: 0xEDCE0, symSize: 0xD0 }
  - { offsetInCU: 0x12EAB, offset: 0x56C2F3, size: 0x8, addend: 0x0, symName: '__ZN4core3ptr38drop_in_place$LT$syn..expr..Member$GT$17hd3bc25e187f7fae3E', symObjAddr: 0x4690, symBinAddr: 0xEDDB0, symSize: 0x30 }
  - { offsetInCU: 0x12FA7, offset: 0x56C3EF, size: 0x8, addend: 0x0, symName: '__ZN4core3ptr39drop_in_place$LT$proc_macro2..Ident$GT$17hb5fbe0c131bfa218E', symObjAddr: 0x46C0, symBinAddr: 0xEDDE0, symSize: 0x30 }
  - { offsetInCU: 0x13084, offset: 0x56C4CC, size: 0x8, addend: 0x0, symName: '__ZN4core3ptr40drop_in_place$LT$syn..ty..ReturnType$GT$17h2041b3e02720652aE', symObjAddr: 0x46F0, symBinAddr: 0xEDE10, symSize: 0x50 }
  - { offsetInCU: 0x131F4, offset: 0x56C63C, size: 0x8, addend: 0x0, symName: '__ZN4core3ptr41drop_in_place$LT$syn..expr..ExprConst$GT$17h546d2eac1f274d91E', symObjAddr: 0x4740, symBinAddr: 0xEDE60, symSize: 0x180 }
  - { offsetInCU: 0x137AD, offset: 0x56CBF5, size: 0x8, addend: 0x0, symName: '__ZN4core3ptr44drop_in_place$LT$syn..generics..Generics$GT$17h6cc36a2c79e64375E', symObjAddr: 0x48C0, symBinAddr: 0xEDFE0, symSize: 0x40 }
  - { offsetInCU: 0x137CA, offset: 0x56CC12, size: 0x8, addend: 0x0, symName: '__ZN4core3ptr44drop_in_place$LT$syn..lifetime..Lifetime$GT$17h8afd172b97690efdE', symObjAddr: 0x4900, symBinAddr: 0xEE020, symSize: 0x30 }
  - { offsetInCU: 0x139FC, offset: 0x56CE44, size: 0x8, addend: 0x0, symName: '__ZN4core3ptr45drop_in_place$LT$proc_macro2..TokenStream$GT$17h207b9d10b43ca09fE', symObjAddr: 0x4930, symBinAddr: 0xEE050, symSize: 0x140 }
  - { offsetInCU: 0x13E96, offset: 0x56D2DE, size: 0x8, addend: 0x0, symName: '__ZN4core3ptr45drop_in_place$LT$syn..generics..TypeParam$GT$17h6c3c07424bcf6a4eE', symObjAddr: 0x4A70, symBinAddr: 0xEE190, symSize: 0x230 }
  - { offsetInCU: 0x146D7, offset: 0x56DB1F, size: 0x8, addend: 0x0, symName: '__ZN4core3ptr46drop_in_place$LT$syn..generics..ConstParam$GT$17hd0de4a5923445da7E', symObjAddr: 0x4CA0, symBinAddr: 0xEE3C0, symSize: 0x150 }
  - { offsetInCU: 0x14B24, offset: 0x56DF6C, size: 0x8, addend: 0x0, symName: '__ZN4core3ptr47drop_in_place$LT$syn..generics..WhereClause$GT$17h886e9dcae0082af0E', symObjAddr: 0x4DF0, symBinAddr: 0xEE510, symSize: 0xE0 }
  - { offsetInCU: 0x14EA7, offset: 0x56E2EF, size: 0x8, addend: 0x0, symName: '__ZN4core3ptr47drop_in_place$LT$syn..path..GenericArgument$GT$17hf4dd383aa34a4f0fE', symObjAddr: 0x4ED0, symBinAddr: 0xEE5F0, symSize: 0x450 }
  - { offsetInCU: 0x15C1D, offset: 0x56F065, size: 0x8, addend: 0x0, symName: '__ZN4core3ptr49drop_in_place$LT$syn..generics..LifetimeParam$GT$17hd0b2e7526885b204E', symObjAddr: 0x5320, symBinAddr: 0xEEA40, symSize: 0xF0 }
  - { offsetInCU: 0x16000, offset: 0x56F448, size: 0x8, addend: 0x0, symName: '__ZN4core3ptr50drop_in_place$LT$syn..generics..TypeParamBound$GT$17hdc238d3175f8eb5aE', symObjAddr: 0x5410, symBinAddr: 0xEEB30, symSize: 0xA0 }
  - { offsetInCU: 0x16166, offset: 0x56F5AE, size: 0x8, addend: 0x0, symName: '__ZN4core3ptr58drop_in_place$LT$alloc..vec..Vec$LT$syn..expr..Arm$GT$$GT$17ha0ec4334cda5515cE', symObjAddr: 0x54B0, symBinAddr: 0xEEBD0, symSize: 0xD0 }
  - { offsetInCU: 0x16426, offset: 0x56F86E, size: 0x8, addend: 0x0, symName: '__ZN4core3ptr59drop_in_place$LT$alloc..boxed..Box$LT$syn..pat..Pat$GT$$GT$17h67f20b4715509286E', symObjAddr: 0x5580, symBinAddr: 0xEECA0, symSize: 0x50 }
  - { offsetInCU: 0x1657F, offset: 0x56F9C7, size: 0x8, addend: 0x0, symName: '__ZN4core3ptr59drop_in_place$LT$alloc..boxed..Box$LT$syn..ty..Type$GT$$GT$17hb9082e267b94188dE', symObjAddr: 0x55D0, symBinAddr: 0xEECF0, symSize: 0x50 }
  - { offsetInCU: 0x166D8, offset: 0x56FB20, size: 0x8, addend: 0x0, symName: '__ZN4core3ptr61drop_in_place$LT$alloc..boxed..Box$LT$syn..expr..Expr$GT$$GT$17h01310d89a7a8aab3E', symObjAddr: 0x5620, symBinAddr: 0xEED40, symSize: 0x50 }
  - { offsetInCU: 0x16831, offset: 0x56FC79, size: 0x8, addend: 0x0, symName: '__ZN4core3ptr61drop_in_place$LT$syn..path..ParenthesizedGenericArguments$GT$17h7fee2959ae354450E', symObjAddr: 0x5670, symBinAddr: 0xEED90, symSize: 0x170 }
  - { offsetInCU: 0x16E3A, offset: 0x570282, size: 0x8, addend: 0x0, symName: '__ZN4core3ptr63drop_in_place$LT$alloc..boxed..Box$LT$syn..lit..LitRepr$GT$$GT$17hf23a84bed7f64f98E', symObjAddr: 0x57E0, symBinAddr: 0xEEF00, symSize: 0x60 }
  - { offsetInCU: 0x17141, offset: 0x570589, size: 0x8, addend: 0x0, symName: '__ZN4core3ptr64drop_in_place$LT$alloc..boxed..Box$LT$syn..pat..FieldPat$GT$$GT$17ha5ec27d4d418dbdfE', symObjAddr: 0x5840, symBinAddr: 0xEEF60, symSize: 0x140 }
  - { offsetInCU: 0x1780E, offset: 0x570C56, size: 0x8, addend: 0x0, symName: '__ZN4core3ptr64drop_in_place$LT$alloc..boxed..Box$LT$syn..ty..BareFnArg$GT$$GT$17hb416cdff09d8949eE', symObjAddr: 0x5980, symBinAddr: 0xEF0A0, symSize: 0x140 }
  - { offsetInCU: 0x17D63, offset: 0x5711AB, size: 0x8, addend: 0x0, symName: '__ZN4core3ptr65drop_in_place$LT$alloc..vec..Vec$LT$proc_macro..TokenTree$GT$$GT$17h54365d0bdf61b883E', symObjAddr: 0x5AC0, symBinAddr: 0xEF1E0, symSize: 0x110 }
  - { offsetInCU: 0x1815B, offset: 0x5715A3, size: 0x8, addend: 0x0, symName: '__ZN4core3ptr65drop_in_place$LT$core..option..Option$LT$syn..expr..Label$GT$$GT$17h6cb338f3d3fef208E', symObjAddr: 0x5BD0, symBinAddr: 0xEF2F0, symSize: 0x30 }
  - { offsetInCU: 0x18295, offset: 0x5716DD, size: 0x8, addend: 0x0, symName: '__ZN4core3ptr66drop_in_place$LT$core..option..Option$LT$syn..pat..PatRest$GT$$GT$17h7c9095b226142979E', symObjAddr: 0x5C00, symBinAddr: 0xEF320, symSize: 0xE0 }
  - { offsetInCU: 0x18589, offset: 0x5719D1, size: 0x8, addend: 0x0, symName: '__ZN4core3ptr67drop_in_place$LT$alloc..boxed..Box$LT$syn..expr..FieldValue$GT$$GT$17hb048d8ef1ec03e8dE', symObjAddr: 0x5CE0, symBinAddr: 0xEF400, symSize: 0x140 }
  - { offsetInCU: 0x18BD5, offset: 0x57201D, size: 0x8, addend: 0x0, symName: '__ZN4core3ptr68drop_in_place$LT$borsh_derive..internals..generics..FindTyParams$GT$17he80daff20c61038bE', symObjAddr: 0x5E20, symBinAddr: 0xEF540, symSize: 0xA0 }
  - { offsetInCU: 0x18FE9, offset: 0x572431, size: 0x8, addend: 0x0, symName: '__ZN4core3ptr70drop_in_place$LT$core..option..Option$LT$syn..ty..BareVariadic$GT$$GT$17hf6d2a770387443a3E', symObjAddr: 0x5EC0, symBinAddr: 0xEF5E0, symSize: 0x100 }
  - { offsetInCU: 0x19420, offset: 0x572868, size: 0x8, addend: 0x0, symName: '__ZN4core3ptr72drop_in_place$LT$alloc..boxed..Box$LT$syn..path..GenericArgument$GT$$GT$17hcc60f7ab467d198fE', symObjAddr: 0x5FC0, symBinAddr: 0xEF6E0, symSize: 0x2B0 }
  - { offsetInCU: 0x19E31, offset: 0x573279, size: 0x8, addend: 0x0, symName: '__ZN4core3ptr72drop_in_place$LT$core..option..Option$LT$syn..lifetime..Lifetime$GT$$GT$17h70ad3b488ebe3596E', symObjAddr: 0x6270, symBinAddr: 0xEF990, symSize: 0x30 }
  - { offsetInCU: 0x19F4C, offset: 0x573394, size: 0x8, addend: 0x0, symName: '__ZN4core3ptr73drop_in_place$LT$alloc..boxed..Box$LT$syn..generics..GenericParam$GT$$GT$17hd8823d2eb1a41dfaE', symObjAddr: 0x62A0, symBinAddr: 0xEF9C0, symSize: 0x80 }
  - { offsetInCU: 0x1A100, offset: 0x573548, size: 0x8, addend: 0x0, symName: '__ZN4core3ptr73drop_in_place$LT$borsh_derive..internals..deserialize..GenericsOutput$GT$17h1d1595f535d9f1ceE', symObjAddr: 0x6320, symBinAddr: 0xEFA40, symSize: 0x100 }
  - { offsetInCU: 0x1A3E2, offset: 0x57382A, size: 0x8, addend: 0x0, symName: '__ZN4core3ptr75drop_in_place$LT$alloc..boxed..Box$LT$syn..generics..TypeParamBound$GT$$GT$17hc0dbc3e6560133a8E', symObjAddr: 0x6420, symBinAddr: 0xEFB40, symSize: 0x180 }
  - { offsetInCU: 0x1A990, offset: 0x573DD8, size: 0x8, addend: 0x0, symName: '__ZN4core3ptr75drop_in_place$LT$core..option..Option$LT$syn..generics..WhereClause$GT$$GT$17h2c16f6dc41ab983cE', symObjAddr: 0x65A0, symBinAddr: 0xEFCC0, symSize: 0x100 }
  - { offsetInCU: 0x1AD47, offset: 0x57418F, size: 0x8, addend: 0x0, symName: '__ZN4core3ptr86drop_in_place$LT$syn..punctuated..Punctuated$LT$syn..pat..Pat$C$syn..token..Or$GT$$GT$17hb407e891b009195eE', symObjAddr: 0x66A0, symBinAddr: 0xEFDC0, symSize: 0x120 }
  - { offsetInCU: 0x1B1C2, offset: 0x57460A, size: 0x8, addend: 0x0, symName: '__ZN4core3ptr87drop_in_place$LT$core..option..Option$LT$alloc..boxed..Box$LT$syn..pat..Pat$GT$$GT$$GT$17h27575db68a752b00E', symObjAddr: 0x67C0, symBinAddr: 0xEFEE0, symSize: 0x50 }
  - { offsetInCU: 0x1B332, offset: 0x57477A, size: 0x8, addend: 0x0, symName: '__ZN4core3ptr87drop_in_place$LT$core..option..Option$LT$alloc..boxed..Box$LT$syn..ty..Type$GT$$GT$$GT$17h2cce7e91b6f26339E', symObjAddr: 0x6810, symBinAddr: 0xEFF30, symSize: 0x50 }
  - { offsetInCU: 0x1B4A2, offset: 0x5748EA, size: 0x8, addend: 0x0, symName: '__ZN4core3ptr89drop_in_place$LT$core..option..Option$LT$alloc..boxed..Box$LT$syn..expr..Expr$GT$$GT$$GT$17h4805299351d776eaE', symObjAddr: 0x6860, symBinAddr: 0xEFF80, symSize: 0x50 }
  - { offsetInCU: 0x1B650, offset: 0x574A98, size: 0x8, addend: 0x0, symName: '__ZN4core3ptr89drop_in_place$LT$syn..punctuated..Punctuated$LT$syn..pat..Pat$C$syn..token..Comma$GT$$GT$17hbfa21962153cb723E', symObjAddr: 0x68B0, symBinAddr: 0xEFFD0, symSize: 0x120 }
  - { offsetInCU: 0x1BB20, offset: 0x574F68, size: 0x8, addend: 0x0, symName: '__ZN4core3ptr91drop_in_place$LT$syn..punctuated..Punctuated$LT$syn..expr..Expr$C$syn..token..Comma$GT$$GT$17hd2c79695be72d75eE', symObjAddr: 0x69D0, symBinAddr: 0xF00F0, symSize: 0x120 }
  - { offsetInCU: 0x1BFAE, offset: 0x5753F6, size: 0x8, addend: 0x0, symName: '__ZN4core3ptr94drop_in_place$LT$syn..punctuated..Punctuated$LT$syn..pat..FieldPat$C$syn..token..Comma$GT$$GT$17hb2b4aed8f633cba0E', symObjAddr: 0x6AF0, symBinAddr: 0xF0210, symSize: 0xF0 }
  - { offsetInCU: 0x1C2AD, offset: 0x5756F5, size: 0x8, addend: 0x0, symName: '__ZN4core3ptr94drop_in_place$LT$syn..punctuated..Punctuated$LT$syn..ty..BareFnArg$C$syn..token..Comma$GT$$GT$17h59c18cbb4f726140E', symObjAddr: 0x6BE0, symBinAddr: 0xF0300, symSize: 0xF0 }
  - { offsetInCU: 0x1C5AE, offset: 0x5759F6, size: 0x8, addend: 0x0, symName: '__ZN4core3ptr96drop_in_place$LT$core..option..Option$LT$alloc..boxed..Box$LT$syn..path..PathSegment$GT$$GT$$GT$17hd67a31bad3bc4ef4E', symObjAddr: 0x6CD0, symBinAddr: 0xF03F0, symSize: 0x1A0 }
  - { offsetInCU: 0x1CC6F, offset: 0x5760B7, size: 0x8, addend: 0x0, symName: '__ZN4core3ptr97drop_in_place$LT$syn..punctuated..Punctuated$LT$syn..expr..FieldValue$C$syn..token..Comma$GT$$GT$17h2644f25adad08ccbE', symObjAddr: 0x6E70, symBinAddr: 0xF0590, symSize: 0xF0 }
  - { offsetInCU: 0x1CFE8, offset: 0x576430, size: 0x8, addend: 0x0, symName: '__ZN4core3ptr98drop_in_place$LT$syn..punctuated..Punctuated$LT$syn..lifetime..Lifetime$C$syn..token..Plus$GT$$GT$17hfbe9a104e4a4f23fE', symObjAddr: 0x6F60, symBinAddr: 0xF0680, symSize: 0xD0 }
  - { offsetInCU: 0x27936, offset: 0x580D7E, size: 0x8, addend: 0x0, symName: __ZN12borsh_derive9internals11deserialize7structs7process17h19db1ed50ac901a9E, symObjAddr: 0x7030, symBinAddr: 0xF0750, symSize: 0x160A }
  - { offsetInCU: 0x1E, offset: 0x584F01, size: 0x8, addend: 0x0, symName: '__ZN4core3ptr100drop_in_place$LT$core..option..Option$LT$alloc..boxed..Box$LT$syn..path..GenericArgument$GT$$GT$$GT$17h807a36ffbab107a4E', symObjAddr: 0x0, symBinAddr: 0xF1D60, symSize: 0x50 }
  - { offsetInCU: 0x8343, offset: 0x58D226, size: 0x8, addend: 0x0, symName: '__ZN4core3ptr100drop_in_place$LT$core..option..Option$LT$alloc..boxed..Box$LT$syn..path..GenericArgument$GT$$GT$$GT$17h807a36ffbab107a4E', symObjAddr: 0x0, symBinAddr: 0xF1D60, symSize: 0x50 }
  - { offsetInCU: 0x84F1, offset: 0x58D3D4, size: 0x8, addend: 0x0, symName: '__ZN4core3ptr101drop_in_place$LT$core..option..Option$LT$alloc..vec..Vec$LT$syn..generics..WherePredicate$GT$$GT$$GT$17h9b97eb8149fa9b49E', symObjAddr: 0x50, symBinAddr: 0xF1DB0, symSize: 0xD0 }
  - { offsetInCU: 0x880C, offset: 0x58D6EF, size: 0x8, addend: 0x0, symName: '__ZN4core3ptr102drop_in_place$LT$syn..punctuated..Punctuated$LT$syn..path..GenericArgument$C$syn..token..Comma$GT$$GT$17h87ac6172553c146eE', symObjAddr: 0x120, symBinAddr: 0xF1E80, symSize: 0xF0 }
  - { offsetInCU: 0x8B2C, offset: 0x58DA0F, size: 0x8, addend: 0x0, symName: '__ZN4core3ptr103drop_in_place$LT$core..option..Option$LT$alloc..boxed..Box$LT$syn..generics..TypeParamBound$GT$$GT$$GT$17h0017d361ebb9471fE', symObjAddr: 0x210, symBinAddr: 0xF1F70, symSize: 0x50 }
  - { offsetInCU: 0x8D37, offset: 0x58DC1A, size: 0x8, addend: 0x0, symName: '__ZN4core3ptr103drop_in_place$LT$syn..punctuated..Punctuated$LT$syn..generics..GenericParam$C$syn..token..Comma$GT$$GT$17hf5a644fae414a53cE', symObjAddr: 0x260, symBinAddr: 0xF1FC0, symSize: 0xF0 }
  - { offsetInCU: 0x930B, offset: 0x58E1EE, size: 0x8, addend: 0x0, symName: '__ZN4core3ptr104drop_in_place$LT$syn..punctuated..Punctuated$LT$syn..generics..TypeParamBound$C$syn..token..Plus$GT$$GT$17ha86a9d1599e32cffE', symObjAddr: 0x350, symBinAddr: 0xF20B0, symSize: 0x240 }
  - { offsetInCU: 0x9BC6, offset: 0x58EAA9, size: 0x8, addend: 0x0, symName: '__ZN4core3ptr107drop_in_place$LT$core..option..Option$LT$borsh_derive..internals..attributes..field..bounds..Bounds$GT$$GT$17h6c6d4413576fc644E', symObjAddr: 0x590, symBinAddr: 0xF22F0, symSize: 0x1A0 }
  - { offsetInCU: 0xA25B, offset: 0x58F13E, size: 0x8, addend: 0x0, symName: '__ZN4core3ptr111drop_in_place$LT$core..option..Option$LT$borsh_derive..internals..attributes..field..schema..Attributes$GT$$GT$17h7d96964c2b1a2d1aE', symObjAddr: 0x730, symBinAddr: 0xF2490, symSize: 0x190 }
  - { offsetInCU: 0xA6C1, offset: 0x58F5A4, size: 0x8, addend: 0x0, symName: '__ZN4core3ptr122drop_in_place$LT$core..option..Option$LT$borsh_derive..internals..attributes..field..schema..with_funcs..WithFuncs$GT$$GT$17he02ffe9b3554ccf8E', symObjAddr: 0x8C0, symBinAddr: 0xF2620, symSize: 0x70 }
  - { offsetInCU: 0xA7E9, offset: 0x58F6CC, size: 0x8, addend: 0x0, symName: '__ZN4core3ptr34drop_in_place$LT$syn..lit..Lit$GT$17h7e230476d36822bfE', symObjAddr: 0x930, symBinAddr: 0xF2690, symSize: 0x120 }
  - { offsetInCU: 0xACD7, offset: 0x58FBBA, size: 0x8, addend: 0x0, symName: '__ZN4core3ptr34drop_in_place$LT$syn..pat..Pat$GT$17h5b0a97e980f53e46E', symObjAddr: 0xA50, symBinAddr: 0xF27B0, symSize: 0xF40 }
  - { offsetInCU: 0xE79D, offset: 0x593680, size: 0x8, addend: 0x0, symName: '__ZN4core3ptr34drop_in_place$LT$syn..ty..Type$GT$17h19f850f61918f31fE', symObjAddr: 0x1990, symBinAddr: 0xF36F0, symSize: 0x580 }
  - { offsetInCU: 0x10026, offset: 0x594F09, size: 0x8, addend: 0x0, symName: '__ZN4core3ptr36drop_in_place$LT$syn..expr..Expr$GT$17h98f7f68f0a06dff7E', symObjAddr: 0x1F10, symBinAddr: 0xF3C70, symSize: 0x2730 }
  - { offsetInCU: 0x19486, offset: 0x59E369, size: 0x8, addend: 0x0, symName: '__ZN4core3ptr36drop_in_place$LT$syn..mac..Macro$GT$17hdf5bac46d7f74bccE', symObjAddr: 0x4640, symBinAddr: 0xF63A0, symSize: 0xE0 }
  - { offsetInCU: 0x19810, offset: 0x59E6F3, size: 0x8, addend: 0x0, symName: '__ZN4core3ptr36drop_in_place$LT$syn..path..Path$GT$17hb2feba4d905af1b2E', symObjAddr: 0x4720, symBinAddr: 0xF6480, symSize: 0x240 }
  - { offsetInCU: 0x1A1AA, offset: 0x59F08D, size: 0x8, addend: 0x0, symName: '__ZN4core3ptr37drop_in_place$LT$syn..stmt..Block$GT$17h9594e7bdfd216ee2E', symObjAddr: 0x4960, symBinAddr: 0xF66C0, symSize: 0xD0 }
  - { offsetInCU: 0x1A4BF, offset: 0x59F3A2, size: 0x8, addend: 0x0, symName: '__ZN4core3ptr38drop_in_place$LT$syn..error..Error$GT$17h629ad0985f92efc9E', symObjAddr: 0x4A30, symBinAddr: 0xF6790, symSize: 0x90 }
  - { offsetInCU: 0x1A781, offset: 0x59F664, size: 0x8, addend: 0x0, symName: '__ZN4core3ptr38drop_in_place$LT$syn..expr..Member$GT$17hd3bc25e187f7fae3E', symObjAddr: 0x4AC0, symBinAddr: 0xF6820, symSize: 0x30 }
  - { offsetInCU: 0x1A87D, offset: 0x59F760, size: 0x8, addend: 0x0, symName: '__ZN4core3ptr39drop_in_place$LT$proc_macro2..Ident$GT$17hb5fbe0c131bfa218E', symObjAddr: 0x4AF0, symBinAddr: 0xF6850, symSize: 0x30 }
  - { offsetInCU: 0x1A95A, offset: 0x59F83D, size: 0x8, addend: 0x0, symName: '__ZN4core3ptr40drop_in_place$LT$syn..expr..ExprPath$GT$17hac51ab24dfe997baE', symObjAddr: 0x4B20, symBinAddr: 0xF6880, symSize: 0x110 }
  - { offsetInCU: 0x1AD89, offset: 0x59FC6C, size: 0x8, addend: 0x0, symName: '__ZN4core3ptr40drop_in_place$LT$syn..ty..ReturnType$GT$17h2041b3e02720652aE', symObjAddr: 0x4C30, symBinAddr: 0xF6990, symSize: 0x50 }
  - { offsetInCU: 0x1AEF9, offset: 0x59FDDC, size: 0x8, addend: 0x0, symName: '__ZN4core3ptr41drop_in_place$LT$syn..expr..ExprConst$GT$17h546d2eac1f274d91E', symObjAddr: 0x4C80, symBinAddr: 0xF69E0, symSize: 0x180 }
  - { offsetInCU: 0x1B4B2, offset: 0x5A0395, size: 0x8, addend: 0x0, symName: '__ZN4core3ptr44drop_in_place$LT$syn..lifetime..Lifetime$GT$17h8afd172b97690efdE', symObjAddr: 0x4E00, symBinAddr: 0xF6B60, symSize: 0x30 }
  - { offsetInCU: 0x1B6E4, offset: 0x5A05C7, size: 0x8, addend: 0x0, symName: '__ZN4core3ptr45drop_in_place$LT$proc_macro2..TokenStream$GT$17h207b9d10b43ca09fE', symObjAddr: 0x4E30, symBinAddr: 0xF6B90, symSize: 0x140 }
  - { offsetInCU: 0x1BB7E, offset: 0x5A0A61, size: 0x8, addend: 0x0, symName: '__ZN4core3ptr45drop_in_place$LT$syn..generics..TypeParam$GT$17h6c3c07424bcf6a4eE', symObjAddr: 0x4F70, symBinAddr: 0xF6CD0, symSize: 0x230 }
  - { offsetInCU: 0x1C3BF, offset: 0x5A12A2, size: 0x8, addend: 0x0, symName: '__ZN4core3ptr46drop_in_place$LT$syn..generics..ConstParam$GT$17hd0de4a5923445da7E', symObjAddr: 0x51A0, symBinAddr: 0xF6F00, symSize: 0x150 }
  - { offsetInCU: 0x1C80C, offset: 0x5A16EF, size: 0x8, addend: 0x0, symName: '__ZN4core3ptr47drop_in_place$LT$syn..path..GenericArgument$GT$17hf4dd383aa34a4f0fE', symObjAddr: 0x52F0, symBinAddr: 0xF7050, symSize: 0x450 }
  - { offsetInCU: 0x1D582, offset: 0x5A2465, size: 0x8, addend: 0x0, symName: '__ZN4core3ptr49drop_in_place$LT$syn..generics..LifetimeParam$GT$17hd0b2e7526885b204E', symObjAddr: 0x5740, symBinAddr: 0xF74A0, symSize: 0xF0 }
  - { offsetInCU: 0x1D965, offset: 0x5A2848, size: 0x8, addend: 0x0, symName: '__ZN4core3ptr50drop_in_place$LT$syn..generics..TypeParamBound$GT$17hdc238d3175f8eb5aE', symObjAddr: 0x5830, symBinAddr: 0xF7590, symSize: 0xA0 }
  - { offsetInCU: 0x1DACB, offset: 0x5A29AE, size: 0x8, addend: 0x0, symName: '__ZN4core3ptr58drop_in_place$LT$alloc..vec..Vec$LT$syn..expr..Arm$GT$$GT$17ha0ec4334cda5515cE', symObjAddr: 0x58D0, symBinAddr: 0xF7630, symSize: 0xD0 }
  - { offsetInCU: 0x1DD8B, offset: 0x5A2C6E, size: 0x8, addend: 0x0, symName: '__ZN4core3ptr59drop_in_place$LT$alloc..boxed..Box$LT$syn..pat..Pat$GT$$GT$17h67f20b4715509286E', symObjAddr: 0x59A0, symBinAddr: 0xF7700, symSize: 0x50 }
  - { offsetInCU: 0x1DEE4, offset: 0x5A2DC7, size: 0x8, addend: 0x0, symName: '__ZN4core3ptr59drop_in_place$LT$alloc..boxed..Box$LT$syn..ty..Type$GT$$GT$17hb9082e267b94188dE', symObjAddr: 0x59F0, symBinAddr: 0xF7750, symSize: 0x50 }
  - { offsetInCU: 0x1E03D, offset: 0x5A2F20, size: 0x8, addend: 0x0, symName: '__ZN4core3ptr61drop_in_place$LT$alloc..boxed..Box$LT$syn..expr..Expr$GT$$GT$17h01310d89a7a8aab3E', symObjAddr: 0x5A40, symBinAddr: 0xF77A0, symSize: 0x50 }
  - { offsetInCU: 0x1E196, offset: 0x5A3079, size: 0x8, addend: 0x0, symName: '__ZN4core3ptr61drop_in_place$LT$syn..path..ParenthesizedGenericArguments$GT$17h7fee2959ae354450E', symObjAddr: 0x5A90, symBinAddr: 0xF77F0, symSize: 0x170 }
  - { offsetInCU: 0x1E7BE, offset: 0x5A36A1, size: 0x8, addend: 0x0, symName: '__ZN4core3ptr63drop_in_place$LT$alloc..boxed..Box$LT$syn..lit..LitRepr$GT$$GT$17hf23a84bed7f64f98E', symObjAddr: 0x5C90, symBinAddr: 0xF7960, symSize: 0x60 }
  - { offsetInCU: 0x1EAC5, offset: 0x5A39A8, size: 0x8, addend: 0x0, symName: '__ZN4core3ptr64drop_in_place$LT$alloc..boxed..Box$LT$syn..pat..FieldPat$GT$$GT$17ha5ec27d4d418dbdfE', symObjAddr: 0x5CF0, symBinAddr: 0xF79C0, symSize: 0x140 }
  - { offsetInCU: 0x1F192, offset: 0x5A4075, size: 0x8, addend: 0x0, symName: '__ZN4core3ptr64drop_in_place$LT$alloc..boxed..Box$LT$syn..ty..BareFnArg$GT$$GT$17hb416cdff09d8949eE', symObjAddr: 0x5E30, symBinAddr: 0xF7B00, symSize: 0x140 }
  - { offsetInCU: 0x1F6E7, offset: 0x5A45CA, size: 0x8, addend: 0x0, symName: '__ZN4core3ptr65drop_in_place$LT$alloc..vec..Vec$LT$proc_macro..TokenTree$GT$$GT$17h54365d0bdf61b883E', symObjAddr: 0x5F70, symBinAddr: 0xF7C40, symSize: 0x110 }
  - { offsetInCU: 0x1FADF, offset: 0x5A49C2, size: 0x8, addend: 0x0, symName: '__ZN4core3ptr65drop_in_place$LT$core..option..Option$LT$syn..expr..Label$GT$$GT$17h6cb338f3d3fef208E', symObjAddr: 0x6080, symBinAddr: 0xF7D50, symSize: 0x30 }
  - { offsetInCU: 0x1FC19, offset: 0x5A4AFC, size: 0x8, addend: 0x0, symName: '__ZN4core3ptr65drop_in_place$LT$core..option..Option$LT$syn..path..QSelf$GT$$GT$17h77b32165fa1277f0E', symObjAddr: 0x60B0, symBinAddr: 0xF7D80, symSize: 0x50 }
  - { offsetInCU: 0x1FD9A, offset: 0x5A4C7D, size: 0x8, addend: 0x0, symName: '__ZN4core3ptr66drop_in_place$LT$core..option..Option$LT$syn..pat..PatRest$GT$$GT$17h7c9095b226142979E', symObjAddr: 0x6100, symBinAddr: 0xF7DD0, symSize: 0xE0 }
  - { offsetInCU: 0x2008E, offset: 0x5A4F71, size: 0x8, addend: 0x0, symName: '__ZN4core3ptr67drop_in_place$LT$alloc..boxed..Box$LT$syn..expr..FieldValue$GT$$GT$17hb048d8ef1ec03e8dE', symObjAddr: 0x61E0, symBinAddr: 0xF7EB0, symSize: 0x140 }
  - { offsetInCU: 0x206BB, offset: 0x5A559E, size: 0x8, addend: 0x0, symName: '__ZN4core3ptr68drop_in_place$LT$borsh_derive..internals..generics..FindTyParams$GT$17he80daff20c61038bE.llvm.4612648979185222059', symObjAddr: 0x6320, symBinAddr: 0xF7FF0, symSize: 0xA0 }
  - { offsetInCU: 0x20ACF, offset: 0x5A59B2, size: 0x8, addend: 0x0, symName: '__ZN4core3ptr70drop_in_place$LT$core..option..Option$LT$syn..ty..BareVariadic$GT$$GT$17hf6d2a770387443a3E', symObjAddr: 0x63C0, symBinAddr: 0xF8090, symSize: 0x100 }
  - { offsetInCU: 0x20F06, offset: 0x5A5DE9, size: 0x8, addend: 0x0, symName: '__ZN4core3ptr72drop_in_place$LT$alloc..boxed..Box$LT$syn..path..GenericArgument$GT$$GT$17hcc60f7ab467d198fE', symObjAddr: 0x64C0, symBinAddr: 0xF8190, symSize: 0x2B0 }
  - { offsetInCU: 0x21917, offset: 0x5A67FA, size: 0x8, addend: 0x0, symName: '__ZN4core3ptr72drop_in_place$LT$core..option..Option$LT$syn..lifetime..Lifetime$GT$$GT$17h70ad3b488ebe3596E', symObjAddr: 0x6770, symBinAddr: 0xF8440, symSize: 0x30 }
  - { offsetInCU: 0x21A32, offset: 0x5A6915, size: 0x8, addend: 0x0, symName: '__ZN4core3ptr73drop_in_place$LT$alloc..boxed..Box$LT$syn..generics..GenericParam$GT$$GT$17hd8823d2eb1a41dfaE', symObjAddr: 0x67A0, symBinAddr: 0xF8470, symSize: 0x80 }
  - { offsetInCU: 0x21BA8, offset: 0x5A6A8B, size: 0x8, addend: 0x0, symName: '__ZN4core3ptr73drop_in_place$LT$alloc..vec..Vec$LT$syn..generics..WherePredicate$GT$$GT$17h339feaab3a542528E.llvm.4612648979185222059', symObjAddr: 0x6820, symBinAddr: 0xF84F0, symSize: 0xD0 }
  - { offsetInCU: 0x21E68, offset: 0x5A6D4B, size: 0x8, addend: 0x0, symName: '__ZN4core3ptr75drop_in_place$LT$alloc..boxed..Box$LT$syn..generics..TypeParamBound$GT$$GT$17hc0dbc3e6560133a8E', symObjAddr: 0x68F0, symBinAddr: 0xF85C0, symSize: 0x180 }
  - { offsetInCU: 0x22454, offset: 0x5A7337, size: 0x8, addend: 0x0, symName: '__ZN4core3ptr86drop_in_place$LT$syn..punctuated..Punctuated$LT$syn..pat..Pat$C$syn..token..Or$GT$$GT$17hb407e891b009195eE', symObjAddr: 0x6A70, symBinAddr: 0xF8740, symSize: 0x120 }
  - { offsetInCU: 0x228CF, offset: 0x5A77B2, size: 0x8, addend: 0x0, symName: '__ZN4core3ptr87drop_in_place$LT$core..option..Option$LT$alloc..boxed..Box$LT$syn..pat..Pat$GT$$GT$$GT$17h27575db68a752b00E', symObjAddr: 0x6B90, symBinAddr: 0xF8860, symSize: 0x50 }
  - { offsetInCU: 0x22A3F, offset: 0x5A7922, size: 0x8, addend: 0x0, symName: '__ZN4core3ptr87drop_in_place$LT$core..option..Option$LT$alloc..boxed..Box$LT$syn..ty..Type$GT$$GT$$GT$17h2cce7e91b6f26339E', symObjAddr: 0x6BE0, symBinAddr: 0xF88B0, symSize: 0x50 }
  - { offsetInCU: 0x22BAF, offset: 0x5A7A92, size: 0x8, addend: 0x0, symName: '__ZN4core3ptr89drop_in_place$LT$core..option..Option$LT$alloc..boxed..Box$LT$syn..expr..Expr$GT$$GT$$GT$17h4805299351d776eaE', symObjAddr: 0x6C30, symBinAddr: 0xF8900, symSize: 0x50 }
  - { offsetInCU: 0x22D5D, offset: 0x5A7C40, size: 0x8, addend: 0x0, symName: '__ZN4core3ptr89drop_in_place$LT$syn..punctuated..Punctuated$LT$syn..pat..Pat$C$syn..token..Comma$GT$$GT$17hbfa21962153cb723E', symObjAddr: 0x6C80, symBinAddr: 0xF8950, symSize: 0x120 }
  - { offsetInCU: 0x2322D, offset: 0x5A8110, size: 0x8, addend: 0x0, symName: '__ZN4core3ptr91drop_in_place$LT$syn..punctuated..Punctuated$LT$syn..expr..Expr$C$syn..token..Comma$GT$$GT$17hd2c79695be72d75eE', symObjAddr: 0x6DA0, symBinAddr: 0xF8A70, symSize: 0x120 }
  - { offsetInCU: 0x236BB, offset: 0x5A859E, size: 0x8, addend: 0x0, symName: '__ZN4core3ptr94drop_in_place$LT$syn..punctuated..Punctuated$LT$syn..pat..FieldPat$C$syn..token..Comma$GT$$GT$17hb2b4aed8f633cba0E', symObjAddr: 0x6EC0, symBinAddr: 0xF8B90, symSize: 0xF0 }
  - { offsetInCU: 0x239BA, offset: 0x5A889D, size: 0x8, addend: 0x0, symName: '__ZN4core3ptr94drop_in_place$LT$syn..punctuated..Punctuated$LT$syn..ty..BareFnArg$C$syn..token..Comma$GT$$GT$17h59c18cbb4f726140E', symObjAddr: 0x6FB0, symBinAddr: 0xF8C80, symSize: 0xF0 }
  - { offsetInCU: 0x23CBB, offset: 0x5A8B9E, size: 0x8, addend: 0x0, symName: '__ZN4core3ptr96drop_in_place$LT$core..option..Option$LT$alloc..boxed..Box$LT$syn..path..PathSegment$GT$$GT$$GT$17hd67a31bad3bc4ef4E', symObjAddr: 0x70A0, symBinAddr: 0xF8D70, symSize: 0x1A0 }
  - { offsetInCU: 0x2437C, offset: 0x5A925F, size: 0x8, addend: 0x0, symName: '__ZN4core3ptr97drop_in_place$LT$syn..punctuated..Punctuated$LT$syn..expr..FieldValue$C$syn..token..Comma$GT$$GT$17h2644f25adad08ccbE', symObjAddr: 0x7240, symBinAddr: 0xF8F10, symSize: 0xF0 }
  - { offsetInCU: 0x246F5, offset: 0x5A95D8, size: 0x8, addend: 0x0, symName: '__ZN4core3ptr98drop_in_place$LT$syn..punctuated..Punctuated$LT$syn..lifetime..Lifetime$C$syn..token..Plus$GT$$GT$17hfbe9a104e4a4f23fE', symObjAddr: 0x7330, symBinAddr: 0xF9000, symSize: 0xD0 }
  - { offsetInCU: 0x27AA9, offset: 0x5AC98C, size: 0x8, addend: 0x0, symName: __ZN12borsh_derive9internals11deserialize13process_field17ha8f967a6c6762cb9E, symObjAddr: 0x79E0, symBinAddr: 0xF95E0, symSize: 0xA2D }
  - { offsetInCU: 0x2927F, offset: 0x5AE162, size: 0x8, addend: 0x0, symName: __ZN12borsh_derive9internals11deserialize14GenericsOutput6extend17h2973df1631a6ee5aE, symObjAddr: 0x74D0, symBinAddr: 0xF90D0, symSize: 0x510 }
  - { offsetInCU: 0x1E, offset: 0x5B17E2, size: 0x8, addend: 0x0, symName: '__ZN4core3ptr44drop_in_place$LT$proc_macro_crate..Error$GT$17h6f90019bfa1f28efE.llvm.6262415155154817643', symObjAddr: 0x0, symBinAddr: 0xFA010, symSize: 0x1F0 }
  - { offsetInCU: 0x35, offset: 0x5B17F9, size: 0x8, addend: 0x0, symName: _anon.4d4d3d38c91683a64f2e359d4964a699.0.llvm.6262415155154817643, symObjAddr: 0x560, symBinAddr: 0x3CD438, symSize: 0x0 }
  - { offsetInCU: 0x2396, offset: 0x5B3B5A, size: 0x8, addend: 0x0, symName: '__ZN4core3ptr44drop_in_place$LT$proc_macro_crate..Error$GT$17h6f90019bfa1f28efE.llvm.6262415155154817643', symObjAddr: 0x0, symBinAddr: 0xFA010, symSize: 0x1F0 }
  - { offsetInCU: 0xB296, offset: 0x5BCA5A, size: 0x8, addend: 0x0, symName: __ZN12borsh_derive9internals9cratename3get17h8cac93fcdabf4b96E, symObjAddr: 0x220, symBinAddr: 0xFA200, symSize: 0x2F6 }
  - { offsetInCU: 0x1E, offset: 0x5BD316, size: 0x8, addend: 0x0, symName: '__ZN4core3ops8function6FnOnce40call_once$u7b$$u7b$vtable.shim$u7d$$u7d$17h8907e01ba53549ccE', symObjAddr: 0x0, symBinAddr: 0xFA500, symSize: 0xD0 }
  - { offsetInCU: 0x56, offset: 0x5BD34E, size: 0x8, addend: 0x0, symName: __ZN12borsh_derive9internals10attributes5field6schema10with_funcs26WITH_FUNCS_FIELD_PARSE_MAP17hd7f499612044d5e9E, symObjAddr: 0x8638, symBinAddr: 0x3D4060, symSize: 0x0 }
  - { offsetInCU: 0xEE, offset: 0x5BD3E6, size: 0x8, addend: 0x0, symName: '__ZN12borsh_derive9internals10attributes5field6schema10with_funcs26WITH_FUNCS_FIELD_PARSE_MAP28_$u7b$$u7b$closure$u7d$$u7d$28_$u7b$$u7b$closure$u7d$$u7d$17h0211147781ca89d3E', symObjAddr: 0x7360, symBinAddr: 0x101860, symSize: 0x70 }
  - { offsetInCU: 0x14E, offset: 0x5BD446, size: 0x8, addend: 0x0, symName: '__ZN12borsh_derive9internals10attributes5field6schema10with_funcs26WITH_FUNCS_FIELD_PARSE_MAP28_$u7b$$u7b$closure$u7d$$u7d$28_$u7b$$u7b$closure$u7d$$u7d$17hdab1c8c15fb1b9e7E', symObjAddr: 0x73D0, symBinAddr: 0x1018D0, symSize: 0x70 }
  - { offsetInCU: 0x2C4, offset: 0x5BD5BC, size: 0x8, addend: 0x0, symName: '__ZN287_$LT$borsh_derive..internals..attributes..field..schema..with_funcs..WithFuncs$u20$as$u20$core..convert..From$LT$alloc..collections..btree..map..BTreeMap$LT$borsh_derive..internals..attributes..Symbol$C$borsh_derive..internals..attributes..field..schema..with_funcs..Variants$GT$$GT$$GT$4from17h706f41d513b833b7E', symObjAddr: 0x7440, symBinAddr: 0x101940, symSize: 0x3C0 }
  - { offsetInCU: 0x530F, offset: 0x5C2607, size: 0x8, addend: 0x0, symName: '__ZN4core3ptr100drop_in_place$LT$core..option..Option$LT$alloc..boxed..Box$LT$syn..path..GenericArgument$GT$$GT$$GT$17h807a36ffbab107a4E', symObjAddr: 0x2F0, symBinAddr: 0xFA7F0, symSize: 0x50 }
  - { offsetInCU: 0x56AD, offset: 0x5C29A5, size: 0x8, addend: 0x0, symName: '__ZN4core3ptr100drop_in_place$LT$syn..punctuated..Punctuated$LT$syn..path..PathSegment$C$syn..token..PathSep$GT$$GT$17hcb9c7ae6720123ceE', symObjAddr: 0x340, symBinAddr: 0xFA840, symSize: 0x270 }
  - { offsetInCU: 0x6050, offset: 0x5C3348, size: 0x8, addend: 0x0, symName: '__ZN4core3ptr103drop_in_place$LT$core..option..Option$LT$alloc..boxed..Box$LT$syn..generics..TypeParamBound$GT$$GT$$GT$17h0017d361ebb9471fE', symObjAddr: 0x5B0, symBinAddr: 0xFAAB0, symSize: 0x50 }
  - { offsetInCU: 0x625B, offset: 0x5C3553, size: 0x8, addend: 0x0, symName: '__ZN4core3ptr103drop_in_place$LT$syn..punctuated..Punctuated$LT$syn..generics..GenericParam$C$syn..token..Comma$GT$$GT$17hf5a644fae414a53cE', symObjAddr: 0x600, symBinAddr: 0xFAB00, symSize: 0xF0 }
  - { offsetInCU: 0x6756, offset: 0x5C3A4E, size: 0x8, addend: 0x0, symName: '__ZN4core3ptr104drop_in_place$LT$syn..punctuated..Punctuated$LT$syn..generics..TypeParamBound$C$syn..token..Plus$GT$$GT$17ha86a9d1599e32cffE', symObjAddr: 0x6F0, symBinAddr: 0xFABF0, symSize: 0x190 }
  - { offsetInCU: 0x6DF5, offset: 0x5C40ED, size: 0x8, addend: 0x0, symName: '__ZN4core3ptr34drop_in_place$LT$syn..lit..Lit$GT$17h7e230476d36822bfE', symObjAddr: 0x880, symBinAddr: 0xFAD80, symSize: 0x120 }
  - { offsetInCU: 0x72C4, offset: 0x5C45BC, size: 0x8, addend: 0x0, symName: '__ZN4core3ptr34drop_in_place$LT$syn..pat..Pat$GT$17h5b0a97e980f53e46E', symObjAddr: 0x9A0, symBinAddr: 0xFAEA0, symSize: 0xEE0 }
  - { offsetInCU: 0xAAEA, offset: 0x5C7DE2, size: 0x8, addend: 0x0, symName: '__ZN4core3ptr34drop_in_place$LT$syn..ty..Type$GT$17h19f850f61918f31fE', symObjAddr: 0x1880, symBinAddr: 0xFBD80, symSize: 0x4F0 }
  - { offsetInCU: 0xC02D, offset: 0x5C9325, size: 0x8, addend: 0x0, symName: '__ZN4core3ptr36drop_in_place$LT$syn..expr..Expr$GT$17h98f7f68f0a06dff7E', symObjAddr: 0x1D70, symBinAddr: 0xFC270, symSize: 0x2680 }
  - { offsetInCU: 0x15247, offset: 0x5D253F, size: 0x8, addend: 0x0, symName: '__ZN4core3ptr36drop_in_place$LT$syn..mac..Macro$GT$17hdf5bac46d7f74bccE', symObjAddr: 0x43F0, symBinAddr: 0xFE8F0, symSize: 0x40 }
  - { offsetInCU: 0x15281, offset: 0x5D2579, size: 0x8, addend: 0x0, symName: '__ZN4core3ptr36drop_in_place$LT$syn..path..Path$GT$17hb2feba4d905af1b2E', symObjAddr: 0x4430, symBinAddr: 0xFE930, symSize: 0x240 }
  - { offsetInCU: 0x15C1B, offset: 0x5D2F13, size: 0x8, addend: 0x0, symName: '__ZN4core3ptr37drop_in_place$LT$syn..path..QSelf$GT$17h2ad306e037f599caE', symObjAddr: 0x4670, symBinAddr: 0xFEB70, symSize: 0x50 }
