---
triple:          'x86_64-apple-darwin'
binary-path:     "/Users/justinlanouette/Chaos/ChaöS-Token/hello_world/target/release/deps/libbytemuck_derive-f875ccc1aad210ea.dylib"
relocations:
  - { offsetInCU: 0x1E, offset: 0x1E, size: 0x8, addend: 0x0, symName: '__ZN4core3ops8function5impls80_$LT$impl$u20$core..ops..function..FnOnce$LT$A$GT$$u20$for$u20$$RF$mut$u20$F$GT$9call_once17h4e0c9fc1ce5b6a60E', symObjAddr: 0x0, symBinAddr: 0x3210, symSize: 0x140 }
  - { offsetInCU: 0x144, offset: 0x144, size: 0x8, addend: 0x0, symName: '__ZN58_$LT$alloc..string..String$u20$as$u20$core..fmt..Write$GT$10write_char17h04bc467bd68a934bE', symObjAddr: 0x7AD0, symBinAddr: 0xACD0, symSize: 0x140 }
  - { offsetInCU: 0x549, offset: 0x549, size: 0x8, addend: 0x0, symName: '__ZN58_$LT$alloc..string..String$u20$as$u20$core..fmt..Write$GT$9write_str17h46a93205c3443fbaE', symObjAddr: 0x7C10, symBinAddr: 0xAE10, symSize: 0x60 }
  - { offsetInCU: 0x4498, offset: 0x4498, size: 0x8, addend: 0x0, symName: '__ZN4core3ptr100drop_in_place$LT$core..option..Option$LT$alloc..boxed..Box$LT$syn..path..GenericArgument$GT$$GT$$GT$17hb5a67e4079e7919fE', symObjAddr: 0x3B0, symBinAddr: 0x35B0, symSize: 0x50 }
  - { offsetInCU: 0x4684, offset: 0x4684, size: 0x8, addend: 0x0, symName: '__ZN4core3ptr100drop_in_place$LT$syn..punctuated..Punctuated$LT$proc_macro2..TokenStream$C$syn..token..Comma$GT$$GT$17h1962b6553a8cc47bE', symObjAddr: 0x400, symBinAddr: 0x3600, symSize: 0x110 }
  - { offsetInCU: 0x4B51, offset: 0x4B51, size: 0x8, addend: 0x0, symName: '__ZN4core3ptr102drop_in_place$LT$syn..punctuated..Punctuated$LT$syn..path..GenericArgument$C$syn..token..Comma$GT$$GT$17hd8c171c87cfb4313E', symObjAddr: 0x510, symBinAddr: 0x3710, symSize: 0xF0 }
  - { offsetInCU: 0x4E71, offset: 0x4E71, size: 0x8, addend: 0x0, symName: '__ZN4core3ptr103drop_in_place$LT$core..option..Option$LT$alloc..boxed..Box$LT$syn..generics..TypeParamBound$GT$$GT$$GT$17hdfcf4360b16eebfbE', symObjAddr: 0x600, symBinAddr: 0x3800, symSize: 0x50 }
  - { offsetInCU: 0x507C, offset: 0x507C, size: 0x8, addend: 0x0, symName: '__ZN4core3ptr103drop_in_place$LT$syn..punctuated..Punctuated$LT$syn..generics..GenericParam$C$syn..token..Comma$GT$$GT$17h93670e6688afe9d4E', symObjAddr: 0x650, symBinAddr: 0x3850, symSize: 0xF0 }
  - { offsetInCU: 0x5650, offset: 0x5650, size: 0x8, addend: 0x0, symName: '__ZN4core3ptr104drop_in_place$LT$syn..punctuated..Punctuated$LT$syn..generics..TypeParamBound$C$syn..token..Plus$GT$$GT$17h890bf6e730b9f26fE', symObjAddr: 0x740, symBinAddr: 0x3940, symSize: 0x240 }
  - { offsetInCU: 0x5F0B, offset: 0x5F0B, size: 0x8, addend: 0x0, symName: '__ZN4core3ptr176drop_in_place$LT$core..iter..adapters..map..Map$LT$syn..punctuated..Iter$LT$syn..data..Field$GT$$C$bytemuck_derive..traits..get_field_types..$u7b$$u7b$closure$u7d$$u7d$$GT$$GT$17h36dbcb1739b459cbE', symObjAddr: 0x980, symBinAddr: 0x3B80, symSize: 0x30 }
  - { offsetInCU: 0x60A3, offset: 0x60A3, size: 0x8, addend: 0x0, symName: '__ZN4core3ptr34drop_in_place$LT$syn..lit..Lit$GT$17h6e21d94489882724E', symObjAddr: 0x9B0, symBinAddr: 0x3BB0, symSize: 0x120 }
  - { offsetInCU: 0x6591, offset: 0x6591, size: 0x8, addend: 0x0, symName: '__ZN4core3ptr34drop_in_place$LT$syn..pat..Pat$GT$17h12af3a77ec5e4c06E', symObjAddr: 0xAD0, symBinAddr: 0x3CD0, symSize: 0xF40 }
  - { offsetInCU: 0xA057, offset: 0xA057, size: 0x8, addend: 0x0, symName: '__ZN4core3ptr34drop_in_place$LT$syn..ty..Type$GT$17h03ec94c8bf6d8c4bE', symObjAddr: 0x1A10, symBinAddr: 0x4C10, symSize: 0x580 }
  - { offsetInCU: 0xB38C, offset: 0xB38C, size: 0x8, addend: 0x0, symName: '__ZN4core3ptr356drop_in_place$LT$core..iter..adapters..zip..Zip$LT$core..iter..adapters..map..Map$LT$syn..punctuated..Iter$LT$syn..data..Variant$GT$$C$bytemuck_derive..traits..generate_checked_bit_pattern_enum_with_fields..$u7b$$u7b$closure$u7d$$u7d$$GT$$C$bytemuck_derive..traits..VariantDiscriminantIterator$LT$syn..punctuated..Iter$LT$syn..data..Variant$GT$$GT$$GT$$GT$17h31826b5bdbfa116aE', symObjAddr: 0x1F90, symBinAddr: 0x5190, symSize: 0x70 }
  - { offsetInCU: 0xBB9C, offset: 0xBB9C, size: 0x8, addend: 0x0, symName: '__ZN4core3ptr36drop_in_place$LT$syn..expr..Expr$GT$17hbf6e9783b008b839E', symObjAddr: 0x2000, symBinAddr: 0x5200, symSize: 0x2730 }
  - { offsetInCU: 0x14FFC, offset: 0x14FFC, size: 0x8, addend: 0x0, symName: '__ZN4core3ptr36drop_in_place$LT$syn..mac..Macro$GT$17hb7d376e8ff250e1eE', symObjAddr: 0x4730, symBinAddr: 0x7930, symSize: 0xE0 }
  - { offsetInCU: 0x15386, offset: 0x15386, size: 0x8, addend: 0x0, symName: '__ZN4core3ptr36drop_in_place$LT$syn..path..Path$GT$17h72ec20184e102e8fE', symObjAddr: 0x4810, symBinAddr: 0x7A10, symSize: 0x240 }
  - { offsetInCU: 0x15D5E, offset: 0x15D5E, size: 0x8, addend: 0x0, symName: '__ZN4core3ptr37drop_in_place$LT$syn..lit..LitInt$GT$17h1e0256e712f9a4c7E', symObjAddr: 0x4A50, symBinAddr: 0x7C50, symSize: 0x70 }
  - { offsetInCU: 0x160D0, offset: 0x160D0, size: 0x8, addend: 0x0, symName: '__ZN4core3ptr37drop_in_place$LT$syn..stmt..Block$GT$17h51c74ef5625755b3E', symObjAddr: 0x4AC0, symBinAddr: 0x7CC0, symSize: 0xD0 }
  - { offsetInCU: 0x16442, offset: 0x16442, size: 0x8, addend: 0x0, symName: '__ZN4core3ptr38drop_in_place$LT$syn..data..Fields$GT$17hf911f4ca325547e6E', symObjAddr: 0x4B90, symBinAddr: 0x7D90, symSize: 0x190 }
  - { offsetInCU: 0x168CA, offset: 0x168CA, size: 0x8, addend: 0x0, symName: '__ZN4core3ptr38drop_in_place$LT$syn..error..Error$GT$17h93ee8a83d34bad82E.llvm.12054734651600137968', symObjAddr: 0x4D20, symBinAddr: 0x7F20, symSize: 0x90 }
  - { offsetInCU: 0x16B8B, offset: 0x16B8B, size: 0x8, addend: 0x0, symName: '__ZN4core3ptr38drop_in_place$LT$syn..expr..Member$GT$17h8c060e1cf0c3bf66E', symObjAddr: 0x4DB0, symBinAddr: 0x7FB0, symSize: 0x30 }
  - { offsetInCU: 0x16D9E, offset: 0x16D9E, size: 0x8, addend: 0x0, symName: '__ZN4core3ptr39drop_in_place$LT$proc_macro2..Group$GT$17h071bee85389705f1E', symObjAddr: 0x4DE0, symBinAddr: 0x7FE0, symSize: 0x60 }
  - { offsetInCU: 0x16EEA, offset: 0x16EEA, size: 0x8, addend: 0x0, symName: '__ZN4core3ptr39drop_in_place$LT$proc_macro2..Ident$GT$17h99f97753d3a4af38E', symObjAddr: 0x4E40, symBinAddr: 0x8040, symSize: 0x30 }
  - { offsetInCU: 0x16FC7, offset: 0x16FC7, size: 0x8, addend: 0x0, symName: '__ZN4core3ptr40drop_in_place$LT$syn..ty..ReturnType$GT$17hfd7f794d059fb3d2E', symObjAddr: 0x4E70, symBinAddr: 0x8070, symSize: 0x50 }
  - { offsetInCU: 0x17137, offset: 0x17137, size: 0x8, addend: 0x0, symName: '__ZN4core3ptr41drop_in_place$LT$syn..expr..ExprConst$GT$17hb3de85d21851b870E', symObjAddr: 0x4EC0, symBinAddr: 0x80C0, symSize: 0x180 }
  - { offsetInCU: 0x176F0, offset: 0x176F0, size: 0x8, addend: 0x0, symName: '__ZN4core3ptr42drop_in_place$LT$alloc..string..String$GT$17hfe9675182ef40682E.llvm.12054734651600137968', symObjAddr: 0x5040, symBinAddr: 0x8240, symSize: 0x20 }
  - { offsetInCU: 0x17836, offset: 0x17836, size: 0x8, addend: 0x0, symName: '__ZN4core3ptr436drop_in_place$LT$core..iter..adapters..map..Map$LT$core..iter..adapters..zip..Zip$LT$core..iter..adapters..map..Map$LT$syn..punctuated..Iter$LT$syn..data..Variant$GT$$C$bytemuck_derive..traits..generate_checked_bit_pattern_enum_with_fields..$u7b$$u7b$closure$u7d$$u7d$$GT$$C$syn..punctuated..Iter$LT$syn..data..Variant$GT$$GT$$C$bytemuck_derive..traits..generate_checked_bit_pattern_enum_with_fields..$u7b$$u7b$closure$u7d$$u7d$$GT$$GT$17h24c36576bcc612bfE', symObjAddr: 0x5060, symBinAddr: 0x8260, symSize: 0x70 }
  - { offsetInCU: 0x17A93, offset: 0x17A93, size: 0x8, addend: 0x0, symName: '__ZN4core3ptr436drop_in_place$LT$core..iter..adapters..map..Map$LT$core..iter..adapters..zip..Zip$LT$core..iter..adapters..map..Map$LT$syn..punctuated..Iter$LT$syn..data..Variant$GT$$C$bytemuck_derive..traits..generate_checked_bit_pattern_enum_with_fields..$u7b$$u7b$closure$u7d$$u7d$$GT$$C$syn..punctuated..Iter$LT$syn..data..Variant$GT$$GT$$C$bytemuck_derive..traits..generate_checked_bit_pattern_enum_with_fields..$u7b$$u7b$closure$u7d$$u7d$$GT$$GT$17h3be9d1b7141edbd6E', symObjAddr: 0x50D0, symBinAddr: 0x82D0, symSize: 0x70 }
  - { offsetInCU: 0x17CD1, offset: 0x17CD1, size: 0x8, addend: 0x0, symName: '__ZN4core3ptr436drop_in_place$LT$core..iter..adapters..map..Map$LT$core..iter..adapters..zip..Zip$LT$core..iter..adapters..map..Map$LT$syn..punctuated..Iter$LT$syn..data..Variant$GT$$C$bytemuck_derive..traits..generate_checked_bit_pattern_enum_with_fields..$u7b$$u7b$closure$u7d$$u7d$$GT$$C$syn..punctuated..Iter$LT$syn..data..Variant$GT$$GT$$C$bytemuck_derive..traits..generate_checked_bit_pattern_enum_with_fields..$u7b$$u7b$closure$u7d$$u7d$$GT$$GT$17h4b6ad60c20ae075cE', symObjAddr: 0x5140, symBinAddr: 0x8340, symSize: 0x70 }
  - { offsetInCU: 0x17F2E, offset: 0x17F2E, size: 0x8, addend: 0x0, symName: '__ZN4core3ptr43drop_in_place$LT$proc_macro2..TokenTree$GT$17hf517ccc1b5a9dc4aE', symObjAddr: 0x51B0, symBinAddr: 0x83B0, symSize: 0xB0 }
  - { offsetInCU: 0x18289, offset: 0x18289, size: 0x8, addend: 0x0, symName: '__ZN4core3ptr44drop_in_place$LT$syn..lifetime..Lifetime$GT$17hb07dd50c5955fb35E', symObjAddr: 0x5260, symBinAddr: 0x8460, symSize: 0x30 }
  - { offsetInCU: 0x18401, offset: 0x18401, size: 0x8, addend: 0x0, symName: '__ZN4core3ptr44drop_in_place$LT$syn..parse..ParseBuffer$GT$17h414ae3203566f226E', symObjAddr: 0x5290, symBinAddr: 0x8490, symSize: 0x70 }
  - { offsetInCU: 0x1877D, offset: 0x1877D, size: 0x8, addend: 0x0, symName: '__ZN4core3ptr45drop_in_place$LT$proc_macro2..TokenStream$GT$17h5362bc4cba28da63E.llvm.12054734651600137968', symObjAddr: 0x5300, symBinAddr: 0x8500, symSize: 0x140 }
  - { offsetInCU: 0x18C17, offset: 0x18C17, size: 0x8, addend: 0x0, symName: '__ZN4core3ptr45drop_in_place$LT$syn..generics..TypeParam$GT$17hc7ad554d9eeeebceE', symObjAddr: 0x5440, symBinAddr: 0x8640, symSize: 0x230 }
  - { offsetInCU: 0x19458, offset: 0x19458, size: 0x8, addend: 0x0, symName: '__ZN4core3ptr46drop_in_place$LT$syn..generics..ConstParam$GT$17h27b4e0dc162bd1d1E', symObjAddr: 0x5670, symBinAddr: 0x8870, symSize: 0x150 }
  - { offsetInCU: 0x198A5, offset: 0x198A5, size: 0x8, addend: 0x0, symName: '__ZN4core3ptr47drop_in_place$LT$syn..path..GenericArgument$GT$17hbbd563ff98e9beecE', symObjAddr: 0x57C0, symBinAddr: 0x89C0, symSize: 0x450 }
  - { offsetInCU: 0x1A61B, offset: 0x1A61B, size: 0x8, addend: 0x0, symName: '__ZN4core3ptr49drop_in_place$LT$syn..generics..LifetimeParam$GT$17h217bc35af328a5a0E', symObjAddr: 0x5C10, symBinAddr: 0x8E10, symSize: 0xF0 }
  - { offsetInCU: 0x1AA3C, offset: 0x1AA3C, size: 0x8, addend: 0x0, symName: '__ZN4core3ptr49drop_in_place$LT$syn..restriction..Visibility$GT$17hd5d254cf61929f27E', symObjAddr: 0x5D00, symBinAddr: 0x8F00, symSize: 0x60 }
  - { offsetInCU: 0x1ABAD, offset: 0x1ABAD, size: 0x8, addend: 0x0, symName: '__ZN4core3ptr50drop_in_place$LT$syn..generics..TypeParamBound$GT$17h8625d3fe1e19312aE', symObjAddr: 0x5D60, symBinAddr: 0x8F60, symSize: 0xA0 }
  - { offsetInCU: 0x1ADAE, offset: 0x1ADAE, size: 0x8, addend: 0x0, symName: '__ZN4core3ptr56drop_in_place$LT$proc_macro2..token_stream..IntoIter$GT$17h12d6315fb17af1c5E', symObjAddr: 0x5E00, symBinAddr: 0x9000, symSize: 0x20 }
  - { offsetInCU: 0x1AE5E, offset: 0x1AE5E, size: 0x8, addend: 0x0, symName: '__ZN4core3ptr58drop_in_place$LT$alloc..vec..Vec$LT$syn..expr..Arm$GT$$GT$17h05ff2414ffa1123bE', symObjAddr: 0x5E20, symBinAddr: 0x9020, symSize: 0xD0 }
  - { offsetInCU: 0x1B11E, offset: 0x1B11E, size: 0x8, addend: 0x0, symName: '__ZN4core3ptr59drop_in_place$LT$alloc..boxed..Box$LT$syn..pat..Pat$GT$$GT$17hb7c93ec8e1c96643E', symObjAddr: 0x5EF0, symBinAddr: 0x90F0, symSize: 0x50 }
  - { offsetInCU: 0x1B277, offset: 0x1B277, size: 0x8, addend: 0x0, symName: '__ZN4core3ptr59drop_in_place$LT$alloc..boxed..Box$LT$syn..ty..Type$GT$$GT$17hb95b5ff5597f137cE', symObjAddr: 0x5F40, symBinAddr: 0x9140, symSize: 0x50 }
  - { offsetInCU: 0x1B3EF, offset: 0x1B3EF, size: 0x8, addend: 0x0, symName: '__ZN4core3ptr60drop_in_place$LT$alloc..vec..Vec$LT$syn..lit..LitInt$GT$$GT$17h571a15899e8d5506E', symObjAddr: 0x5F90, symBinAddr: 0x9190, symSize: 0x60 }
  - { offsetInCU: 0x1B61C, offset: 0x1B61C, size: 0x8, addend: 0x0, symName: '__ZN4core3ptr61drop_in_place$LT$alloc..boxed..Box$LT$syn..expr..Expr$GT$$GT$17h9491aa3708e9ad9dE', symObjAddr: 0x5FF0, symBinAddr: 0x91F0, symSize: 0x50 }
  - { offsetInCU: 0x1B775, offset: 0x1B775, size: 0x8, addend: 0x0, symName: '__ZN4core3ptr61drop_in_place$LT$syn..path..ParenthesizedGenericArguments$GT$17h91b81dde2975a31fE', symObjAddr: 0x6040, symBinAddr: 0x9240, symSize: 0x170 }
  - { offsetInCU: 0x1BD9D, offset: 0x1BD9D, size: 0x8, addend: 0x0, symName: '__ZN4core3ptr62drop_in_place$LT$alloc..vec..Vec$LT$proc_macro2..Ident$GT$$GT$17h1a599e736f732b13E', symObjAddr: 0x61B0, symBinAddr: 0x93B0, symSize: 0x90 }
  - { offsetInCU: 0x1C025, offset: 0x1C025, size: 0x8, addend: 0x0, symName: '__ZN4core3ptr63drop_in_place$LT$alloc..boxed..Box$LT$syn..lit..LitRepr$GT$$GT$17hcfa95594142fffd5E', symObjAddr: 0x6240, symBinAddr: 0x9440, symSize: 0x60 }
  - { offsetInCU: 0x1C32C, offset: 0x1C32C, size: 0x8, addend: 0x0, symName: '__ZN4core3ptr64drop_in_place$LT$alloc..boxed..Box$LT$syn..pat..FieldPat$GT$$GT$17he472a16cb1d8da57E', symObjAddr: 0x62A0, symBinAddr: 0x94A0, symSize: 0x140 }
  - { offsetInCU: 0x1C9F9, offset: 0x1C9F9, size: 0x8, addend: 0x0, symName: '__ZN4core3ptr64drop_in_place$LT$alloc..boxed..Box$LT$syn..ty..BareFnArg$GT$$GT$17haa798ceb4d63d514E', symObjAddr: 0x63E0, symBinAddr: 0x95E0, symSize: 0x140 }
  - { offsetInCU: 0x1CF4E, offset: 0x1CF4E, size: 0x8, addend: 0x0, symName: '__ZN4core3ptr65drop_in_place$LT$alloc..vec..Vec$LT$proc_macro..TokenTree$GT$$GT$17h79f3e7fd38303a81E.llvm.12054734651600137968', symObjAddr: 0x6520, symBinAddr: 0x9720, symSize: 0x110 }
  - { offsetInCU: 0x1D346, offset: 0x1D346, size: 0x8, addend: 0x0, symName: '__ZN4core3ptr65drop_in_place$LT$core..option..Option$LT$syn..expr..Label$GT$$GT$17hdc00345ddddbd974E', symObjAddr: 0x6630, symBinAddr: 0x9830, symSize: 0x30 }
  - { offsetInCU: 0x1D480, offset: 0x1D480, size: 0x8, addend: 0x0, symName: '__ZN4core3ptr66drop_in_place$LT$core..option..Option$LT$syn..pat..PatRest$GT$$GT$17h167e885b89721015E', symObjAddr: 0x6660, symBinAddr: 0x9860, symSize: 0xE0 }
  - { offsetInCU: 0x1D774, offset: 0x1D774, size: 0x8, addend: 0x0, symName: '__ZN4core3ptr67drop_in_place$LT$alloc..boxed..Box$LT$syn..expr..FieldValue$GT$$GT$17h35f55d2aea1459bfE', symObjAddr: 0x6740, symBinAddr: 0x9940, symSize: 0x140 }
  - { offsetInCU: 0x1DCC8, offset: 0x1DCC8, size: 0x8, addend: 0x0, symName: '__ZN4core3ptr68drop_in_place$LT$alloc..vec..Vec$LT$proc_macro2..TokenStream$GT$$GT$17hc51cac03cd1cc7a8E', symObjAddr: 0x6880, symBinAddr: 0x9A80, symSize: 0xC0 }
  - { offsetInCU: 0x1DFA5, offset: 0x1DFA5, size: 0x8, addend: 0x0, symName: '__ZN4core3ptr70drop_in_place$LT$core..option..Option$LT$syn..ty..BareVariadic$GT$$GT$17h7a7328bd70cf2580E', symObjAddr: 0x6940, symBinAddr: 0x9B40, symSize: 0x100 }
  - { offsetInCU: 0x1E3DC, offset: 0x1E3DC, size: 0x8, addend: 0x0, symName: '__ZN4core3ptr72drop_in_place$LT$alloc..boxed..Box$LT$syn..path..GenericArgument$GT$$GT$17hd869661114e7eb2fE', symObjAddr: 0x6A40, symBinAddr: 0x9C40, symSize: 0x2B0 }
  - { offsetInCU: 0x1EDED, offset: 0x1EDED, size: 0x8, addend: 0x0, symName: '__ZN4core3ptr72drop_in_place$LT$core..option..Option$LT$syn..lifetime..Lifetime$GT$$GT$17h25f12c99b928716eE', symObjAddr: 0x6CF0, symBinAddr: 0x9EF0, symSize: 0x30 }
  - { offsetInCU: 0x1EF08, offset: 0x1EF08, size: 0x8, addend: 0x0, symName: '__ZN4core3ptr73drop_in_place$LT$alloc..boxed..Box$LT$syn..generics..GenericParam$GT$$GT$17h3f6e2a0b1d08d5d4E', symObjAddr: 0x6D20, symBinAddr: 0x9F20, symSize: 0x80 }
  - { offsetInCU: 0x1F07E, offset: 0x1F07E, size: 0x8, addend: 0x0, symName: '__ZN4core3ptr75drop_in_place$LT$alloc..boxed..Box$LT$syn..generics..TypeParamBound$GT$$GT$17hcb0f7ecb0cbe9c25E', symObjAddr: 0x6DA0, symBinAddr: 0x9FA0, symSize: 0x180 }
  - { offsetInCU: 0x1F66A, offset: 0x1F66A, size: 0x8, addend: 0x0, symName: '__ZN4core3ptr86drop_in_place$LT$syn..punctuated..Punctuated$LT$syn..pat..Pat$C$syn..token..Or$GT$$GT$17hbbaac93b620a59f0E', symObjAddr: 0x6F20, symBinAddr: 0xA120, symSize: 0x120 }
  - { offsetInCU: 0x1FAE5, offset: 0x1FAE5, size: 0x8, addend: 0x0, symName: '__ZN4core3ptr87drop_in_place$LT$core..option..Option$LT$alloc..boxed..Box$LT$syn..pat..Pat$GT$$GT$$GT$17hda27f65557d8367dE', symObjAddr: 0x7040, symBinAddr: 0xA240, symSize: 0x50 }
  - { offsetInCU: 0x1FC55, offset: 0x1FC55, size: 0x8, addend: 0x0, symName: '__ZN4core3ptr87drop_in_place$LT$core..option..Option$LT$alloc..boxed..Box$LT$syn..ty..Type$GT$$GT$$GT$17h0861a3ec4fa6e258E', symObjAddr: 0x7090, symBinAddr: 0xA290, symSize: 0x50 }
  - { offsetInCU: 0x1FDC5, offset: 0x1FDC5, size: 0x8, addend: 0x0, symName: '__ZN4core3ptr89drop_in_place$LT$core..option..Option$LT$alloc..boxed..Box$LT$syn..expr..Expr$GT$$GT$$GT$17heab20deee7c3ee6dE', symObjAddr: 0x70E0, symBinAddr: 0xA2E0, symSize: 0x50 }
  - { offsetInCU: 0x1FF73, offset: 0x1FF73, size: 0x8, addend: 0x0, symName: '__ZN4core3ptr89drop_in_place$LT$syn..punctuated..Punctuated$LT$syn..pat..Pat$C$syn..token..Comma$GT$$GT$17hd3071c3e257d3ee3E', symObjAddr: 0x7130, symBinAddr: 0xA330, symSize: 0x120 }
  - { offsetInCU: 0x20481, offset: 0x20481, size: 0x8, addend: 0x0, symName: '__ZN4core3ptr90drop_in_place$LT$core..option..Option$LT$alloc..boxed..Box$LT$syn..data..Field$GT$$GT$$GT$17h6f6e5533d5f1ea35E', symObjAddr: 0x7250, symBinAddr: 0xA450, symSize: 0x1B0 }
  - { offsetInCU: 0x20B5E, offset: 0x20B5E, size: 0x8, addend: 0x0, symName: '__ZN4core3ptr91drop_in_place$LT$syn..punctuated..Punctuated$LT$syn..expr..Expr$C$syn..token..Comma$GT$$GT$17h2f1f4ce24d410019E', symObjAddr: 0x7400, symBinAddr: 0xA600, symSize: 0x120 }
  - { offsetInCU: 0x20FEC, offset: 0x20FEC, size: 0x8, addend: 0x0, symName: '__ZN4core3ptr94drop_in_place$LT$syn..punctuated..Punctuated$LT$syn..pat..FieldPat$C$syn..token..Comma$GT$$GT$17h4738c9f46215af09E', symObjAddr: 0x7520, symBinAddr: 0xA720, symSize: 0xF0 }
  - { offsetInCU: 0x212EB, offset: 0x212EB, size: 0x8, addend: 0x0, symName: '__ZN4core3ptr94drop_in_place$LT$syn..punctuated..Punctuated$LT$syn..ty..BareFnArg$C$syn..token..Comma$GT$$GT$17h6441ee8ed369fbe8E', symObjAddr: 0x7610, symBinAddr: 0xA810, symSize: 0xF0 }
  - { offsetInCU: 0x215EC, offset: 0x215EC, size: 0x8, addend: 0x0, symName: '__ZN4core3ptr96drop_in_place$LT$core..option..Option$LT$alloc..boxed..Box$LT$syn..path..PathSegment$GT$$GT$$GT$17hc38badba6091c6d8E', symObjAddr: 0x7700, symBinAddr: 0xA900, symSize: 0x1A0 }
  - { offsetInCU: 0x21CAD, offset: 0x21CAD, size: 0x8, addend: 0x0, symName: '__ZN4core3ptr97drop_in_place$LT$syn..punctuated..Punctuated$LT$syn..expr..FieldValue$C$syn..token..Comma$GT$$GT$17h163154fb91ad56d1E', symObjAddr: 0x78A0, symBinAddr: 0xAAA0, symSize: 0xF0 }
  - { offsetInCU: 0x21FAA, offset: 0x21FAA, size: 0x8, addend: 0x0, symName: '__ZN4core3ptr98drop_in_place$LT$core..option..Option$LT$alloc..boxed..Box$LT$proc_macro2..TokenStream$GT$$GT$$GT$17h4a4b5d0a5d43afb0E', symObjAddr: 0x7990, symBinAddr: 0xAB90, symSize: 0x50 }
  - { offsetInCU: 0x22189, offset: 0x22189, size: 0x8, addend: 0x0, symName: '__ZN4core3ptr98drop_in_place$LT$syn..punctuated..Punctuated$LT$syn..lifetime..Lifetime$C$syn..token..Plus$GT$$GT$17h86851af115fa534bE', symObjAddr: 0x79E0, symBinAddr: 0xABE0, symSize: 0xD0 }
  - { offsetInCU: 0x23021, offset: 0x23021, size: 0x8, addend: 0x0, symName: '__ZN53_$LT$core..fmt..Error$u20$as$u20$core..fmt..Debug$GT$3fmt17h03dc662ab152f3aeE', symObjAddr: 0x7AB0, symBinAddr: 0xACB0, symSize: 0x20 }
  - { offsetInCU: 0x27D4F, offset: 0x27D4F, size: 0x8, addend: 0x0, symName: '__ZN4core3ops8function5impls80_$LT$impl$u20$core..ops..function..FnOnce$LT$A$GT$$u20$for$u20$$RF$mut$u20$F$GT$9call_once17h4e0c9fc1ce5b6a60E', symObjAddr: 0x0, symBinAddr: 0x3210, symSize: 0x140 }
  - { offsetInCU: 0x281BC, offset: 0x281BC, size: 0x8, addend: 0x0, symName: '__ZN4core3ops8function5impls80_$LT$impl$u20$core..ops..function..FnOnce$LT$A$GT$$u20$for$u20$$RF$mut$u20$F$GT$9call_once17h5b78273d8192bf86E', symObjAddr: 0x140, symBinAddr: 0x3350, symSize: 0x140 }
  - { offsetInCU: 0x28629, offset: 0x28629, size: 0x8, addend: 0x0, symName: '__ZN4core3ops8function5impls80_$LT$impl$u20$core..ops..function..FnOnce$LT$A$GT$$u20$for$u20$$RF$mut$u20$F$GT$9call_once17h8167e985c9860241E', symObjAddr: 0x290, symBinAddr: 0x3490, symSize: 0x120 }
  - { offsetInCU: 0x2B9D3, offset: 0x2B9D3, size: 0x8, addend: 0x0, symName: _anon.0540f8c1b16caf7baf64e3e508995219.5.llvm.12054734651600137968, symObjAddr: 0x19FF8, symBinAddr: 0x2A4228, symSize: 0x0 }
  - { offsetInCU: 0x324C2, offset: 0x324C2, size: 0x8, addend: 0x0, symName: __ZN15bytemuck_derive6traits9Derivable10trait_impl17h139a7fc68ed485eeE, symObjAddr: 0x7C90, symBinAddr: 0xAE70, symSize: 0x0 }
  - { offsetInCU: 0x3250D, offset: 0x3250D, size: 0x8, addend: 0x0, symName: '__ZN83_$LT$bytemuck_derive..traits..Pod$u20$as$u20$bytemuck_derive..traits..Derivable$GT$5ident17hbe8b5a4442819ed5E', symObjAddr: 0x7D40, symBinAddr: 0xAF20, symSize: 0xB0 }
  - { offsetInCU: 0x3258B, offset: 0x3258B, size: 0x8, addend: 0x0, symName: '__ZN83_$LT$bytemuck_derive..traits..Pod$u20$as$u20$bytemuck_derive..traits..Derivable$GT$7asserts17hab810bd48cec0350E', symObjAddr: 0x7DF0, symBinAddr: 0xAFD0, symSize: 0x400 }
  - { offsetInCU: 0x32BBC, offset: 0x32BBC, size: 0x8, addend: 0x0, symName: '__ZN93_$LT$bytemuck_derive..traits..AnyBitPattern$u20$as$u20$bytemuck_derive..traits..Derivable$GT$5ident17h700585f8d66433c7E', symObjAddr: 0x8270, symBinAddr: 0xB3D0, symSize: 0xB0 }
  - { offsetInCU: 0x32C3A, offset: 0x32C3A, size: 0x8, addend: 0x0, symName: '__ZN93_$LT$bytemuck_derive..traits..AnyBitPattern$u20$as$u20$bytemuck_derive..traits..Derivable$GT$7asserts17h37bf6ff4c7895a4aE', symObjAddr: 0x83B0, symBinAddr: 0xB480, symSize: 0x120 }
  - { offsetInCU: 0x32CC6, offset: 0x32CC6, size: 0x8, addend: 0x0, symName: '__ZN88_$LT$bytemuck_derive..traits..Zeroable$u20$as$u20$bytemuck_derive..traits..Derivable$GT$5ident17h41171f616e07849aE', symObjAddr: 0x84D0, symBinAddr: 0xB5A0, symSize: 0xB0 }
  - { offsetInCU: 0x32D74, offset: 0x32D74, size: 0x8, addend: 0x0, symName: '__ZN88_$LT$bytemuck_derive..traits..Zeroable$u20$as$u20$bytemuck_derive..traits..Derivable$GT$16check_attributes17h8d92e637020d7082E', symObjAddr: 0x8580, symBinAddr: 0xB650, symSize: 0x2A0 }
  - { offsetInCU: 0x33A2F, offset: 0x33A2F, size: 0x8, addend: 0x0, symName: '__ZN88_$LT$bytemuck_derive..traits..NoUninit$u20$as$u20$bytemuck_derive..traits..Derivable$GT$5ident17h7c67ebe4c5de37b7E', symObjAddr: 0x8910, symBinAddr: 0xB8F0, symSize: 0xB0 }
  - { offsetInCU: 0x33AAD, offset: 0x33AAD, size: 0x8, addend: 0x0, symName: '__ZN88_$LT$bytemuck_derive..traits..NoUninit$u20$as$u20$bytemuck_derive..traits..Derivable$GT$16check_attributes17h6f74930bdc4f5084E', symObjAddr: 0x89C0, symBinAddr: 0xB9A0, symSize: 0xF0 }
  - { offsetInCU: 0x33BC1, offset: 0x33BC1, size: 0x8, addend: 0x0, symName: '__ZN88_$LT$bytemuck_derive..traits..NoUninit$u20$as$u20$bytemuck_derive..traits..Derivable$GT$7asserts17h5c155bcc4e4d76d9E', symObjAddr: 0x8AB0, symBinAddr: 0xBA90, symSize: 0x3D0 }
  - { offsetInCU: 0x34274, offset: 0x34274, size: 0x8, addend: 0x0, symName: '__ZN97_$LT$bytemuck_derive..traits..CheckedBitPattern$u20$as$u20$bytemuck_derive..traits..Derivable$GT$5ident17h06357d24d87200b6E', symObjAddr: 0x8E80, symBinAddr: 0xBE60, symSize: 0xB0 }
  - { offsetInCU: 0x342F2, offset: 0x342F2, size: 0x8, addend: 0x0, symName: '__ZN97_$LT$bytemuck_derive..traits..CheckedBitPattern$u20$as$u20$bytemuck_derive..traits..Derivable$GT$16check_attributes17h459820c51bdc5c18E', symObjAddr: 0x8F30, symBinAddr: 0xBF10, symSize: 0x1B0 }
  - { offsetInCU: 0x3478E, offset: 0x3478E, size: 0x8, addend: 0x0, symName: '__ZN97_$LT$bytemuck_derive..traits..CheckedBitPattern$u20$as$u20$bytemuck_derive..traits..Derivable$GT$7asserts17h28aec4919b473744E', symObjAddr: 0x90E0, symBinAddr: 0xC0C0, symSize: 0x190 }
  - { offsetInCU: 0x34849, offset: 0x34849, size: 0x8, addend: 0x0, symName: '__ZN97_$LT$bytemuck_derive..traits..CheckedBitPattern$u20$as$u20$bytemuck_derive..traits..Derivable$GT$10trait_impl17hf0c11a2fb267a808E', symObjAddr: 0x9270, symBinAddr: 0xC250, symSize: 0x1EA0 }
  - { offsetInCU: 0x381DD, offset: 0x381DD, size: 0x8, addend: 0x0, symName: '__ZN98_$LT$bytemuck_derive..traits..TransparentWrapper$u20$as$u20$bytemuck_derive..traits..Derivable$GT$5ident17h40f1c6fedcceb6dcE', symObjAddr: 0xB5A0, symBinAddr: 0xE580, symSize: 0x1D0 }
  - { offsetInCU: 0x383BE, offset: 0x383BE, size: 0x8, addend: 0x0, symName: '__ZN98_$LT$bytemuck_derive..traits..TransparentWrapper$u20$as$u20$bytemuck_derive..traits..Derivable$GT$7asserts17h5f6cd072e3cde265E', symObjAddr: 0xB770, symBinAddr: 0xE750, symSize: 0xF00 }
  - { offsetInCU: 0x39913, offset: 0x39913, size: 0x8, addend: 0x0, symName: '__ZN90_$LT$bytemuck_derive..traits..Contiguous$u20$as$u20$bytemuck_derive..traits..Derivable$GT$5ident17h1e309a36b63f6a52E', symObjAddr: 0xC6F0, symBinAddr: 0xF650, symSize: 0xB0 }
  - { offsetInCU: 0x39A2A, offset: 0x39A2A, size: 0x8, addend: 0x0, symName: '__ZN90_$LT$bytemuck_derive..traits..Contiguous$u20$as$u20$bytemuck_derive..traits..Derivable$GT$10trait_impl17h0ca228cfed23371bE', symObjAddr: 0xC7A0, symBinAddr: 0xF700, symSize: 0x1470 }
  - { offsetInCU: 0x3B8B0, offset: 0x3B8B0, size: 0x8, addend: 0x0, symName: __ZN15bytemuck_derive6traits45generate_checked_bit_pattern_enum_with_fields17hbe18987019bb461dE, symObjAddr: 0xDC10, symBinAddr: 0x10B70, symSize: 0x6DC0 }
  - { offsetInCU: 0x44E65, offset: 0x44E65, size: 0x8, addend: 0x0, symName: __ZN15bytemuck_derive6traits26generate_assert_no_padding17h15be48fa911fdf6fE, symObjAddr: 0x149D0, symBinAddr: 0x17930, symSize: 0xA20 }
  - { offsetInCU: 0x4567D, offset: 0x4567D, size: 0x8, addend: 0x0, symName: __ZN15bytemuck_derive6traits25generate_fields_are_trait17hbfbb205ff34d5025E.llvm.12054734651600137968, symObjAddr: 0x153F0, symBinAddr: 0x18350, symSize: 0x800 }
  - { offsetInCU: 0x45E57, offset: 0x45E57, size: 0x8, addend: 0x0, symName: __ZN15bytemuck_derive6traits21get_ident_from_stream17hb1b500cdb69391f7E, symObjAddr: 0x15BF0, symBinAddr: 0x18B50, symSize: 0x1C0 }
  - { offsetInCU: 0x463C5, offset: 0x463C5, size: 0x8, addend: 0x0, symName: __ZN15bytemuck_derive6traits8get_repr17h3227d9551eda57c3E.llvm.12054734651600137968, symObjAddr: 0x15DB0, symBinAddr: 0x18D10, symSize: 0x2A0 }
  - { offsetInCU: 0x46B55, offset: 0x46B55, size: 0x8, addend: 0x0, symName: '__ZN77_$LT$bytemuck_derive..traits..Representation$u20$as$u20$syn..parse..Parse$GT$5parse17h89d9ac59e29d1222E', symObjAddr: 0x16050, symBinAddr: 0x18FB0, symSize: 0xDC0 }
  - { offsetInCU: 0x4A154, offset: 0x4A154, size: 0x8, addend: 0x0, symName: '__ZN86_$LT$bytemuck_derive..traits..Representation$u20$as$u20$quote..to_tokens..ToTokens$GT$9to_tokens17h7366ba7ed8cef390E', symObjAddr: 0x16E10, symBinAddr: 0x19D70, symSize: 0x8F0 }
  - { offsetInCU: 0x4B3FC, offset: 0x4B3FC, size: 0x8, addend: 0x0, symName: __ZN15bytemuck_derive6traits14parse_int_expr17hb06a941f70b41015E.llvm.12054734651600137968, symObjAddr: 0x17790, symBinAddr: 0x1A660, symSize: 0x130 }
  - { offsetInCU: 0x4B699, offset: 0x4B699, size: 0x8, addend: 0x0, symName: __ZN15bytemuck_derive6traits19bytemuck_crate_name17hf2a48b299fbe873eE, symObjAddr: 0x178C0, symBinAddr: 0x1A790, symSize: 0x210 }
  - { offsetInCU: 0x4BCA0, offset: 0x4BCA0, size: 0x8, addend: 0x0, symName: '__ZN83_$LT$bytemuck_derive..traits..IntegerRepr$u20$as$u20$quote..to_tokens..ToTokens$GT$9to_tokens17h2f0c62088eaaf2c7E', symObjAddr: 0x17AD0, symBinAddr: 0x1A9A0, symSize: 0x2F0 }
  - { offsetInCU: 0x4FA0B, offset: 0x4FA0B, size: 0x8, addend: 0x0, symName: __ZN15bytemuck_derive6traits18TransparentWrapper16get_wrapper_type17h985668faed313748E.llvm.12054734651600137968, symObjAddr: 0xB110, symBinAddr: 0xE0F0, symSize: 0x490 }
  - { offsetInCU: 0x1E, offset: 0x567B1, size: 0x8, addend: 0x0, symName: '__ZN106_$LT$core..iter..adapters..flatten..Flatten$LT$I$GT$$u20$as$u20$core..iter..traits..iterator..Iterator$GT$4next17h24f43987ef51617dE', symObjAddr: 0x0, symBinAddr: 0x1AC90, symSize: 0x240 }
  - { offsetInCU: 0x2480, offset: 0x58C13, size: 0x8, addend: 0x0, symName: '__ZN4core3ptr100drop_in_place$LT$core..option..Option$LT$alloc..boxed..Box$LT$syn..path..GenericArgument$GT$$GT$$GT$17hb5a67e4079e7919fE', symObjAddr: 0x570, symBinAddr: 0x1B200, symSize: 0x50 }
  - { offsetInCU: 0x27C1, offset: 0x58F54, size: 0x8, addend: 0x0, symName: '__ZN4core3ptr100drop_in_place$LT$syn..punctuated..Punctuated$LT$syn..path..PathSegment$C$syn..token..PathSep$GT$$GT$17h6b8714b021672400E.llvm.15517702397638235356', symObjAddr: 0x5C0, symBinAddr: 0x1B250, symSize: 0x1C0 }
  - { offsetInCU: 0x2E7E, offset: 0x59611, size: 0x8, addend: 0x0, symName: '__ZN4core3ptr101drop_in_place$LT$core..option..Option$LT$alloc..boxed..Box$LT$syn..generics..GenericParam$GT$$GT$$GT$17h92096e3c0cdb95fbE', symObjAddr: 0x780, symBinAddr: 0x1B410, symSize: 0x50 }
  - { offsetInCU: 0x306A, offset: 0x597FD, size: 0x8, addend: 0x0, symName: '__ZN4core3ptr102drop_in_place$LT$syn..punctuated..Punctuated$LT$syn..path..GenericArgument$C$syn..token..Comma$GT$$GT$17hd8c171c87cfb4313E.llvm.15517702397638235356', symObjAddr: 0x7D0, symBinAddr: 0x1B460, symSize: 0xF0 }
  - { offsetInCU: 0x3391, offset: 0x59B24, size: 0x8, addend: 0x0, symName: '__ZN4core3ptr103drop_in_place$LT$core..option..Option$LT$alloc..boxed..Box$LT$syn..generics..TypeParamBound$GT$$GT$$GT$17hdfcf4360b16eebfbE.llvm.15517702397638235356', symObjAddr: 0x8C0, symBinAddr: 0x1B550, symSize: 0x50 }
  - { offsetInCU: 0x3520, offset: 0x59CB3, size: 0x8, addend: 0x0, symName: '__ZN4core3ptr103drop_in_place$LT$core..option..Option$LT$alloc..boxed..Box$LT$syn..generics..WherePredicate$GT$$GT$$GT$17h691b9cfb56ca2c5eE', symObjAddr: 0x910, symBinAddr: 0x1B5A0, symSize: 0x50 }
  - { offsetInCU: 0x374A, offset: 0x59EDD, size: 0x8, addend: 0x0, symName: '__ZN4core3ptr103drop_in_place$LT$syn..punctuated..Punctuated$LT$syn..generics..GenericParam$C$syn..token..Comma$GT$$GT$17h93670e6688afe9d4E.llvm.15517702397638235356', symObjAddr: 0x960, symBinAddr: 0x1B5F0, symSize: 0x1A0 }
  - { offsetInCU: 0x3D51, offset: 0x5A4E4, size: 0x8, addend: 0x0, symName: '__ZN4core3ptr104drop_in_place$LT$syn..punctuated..Punctuated$LT$syn..generics..TypeParamBound$C$syn..token..Plus$GT$$GT$17h890bf6e730b9f26fE.llvm.15517702397638235356', symObjAddr: 0xB00, symBinAddr: 0x1B790, symSize: 0x240 }
  - { offsetInCU: 0x46E9, offset: 0x5AE7C, size: 0x8, addend: 0x0, symName: '__ZN4core3ptr105drop_in_place$LT$syn..punctuated..Punctuated$LT$syn..generics..WherePredicate$C$syn..token..Comma$GT$$GT$17h153e3fb43ee38d46E.llvm.15517702397638235356', symObjAddr: 0xD40, symBinAddr: 0x1B9D0, symSize: 0x1A0 }
  - { offsetInCU: 0x4DF8, offset: 0x5B58B, size: 0x8, addend: 0x0, symName: '__ZN4core3ptr116drop_in_place$LT$core..option..Option$LT$$LP$syn..token..Else$C$alloc..boxed..Box$LT$syn..expr..Expr$GT$$RP$$GT$$GT$17h810bd37959cb384eE', symObjAddr: 0xEE0, symBinAddr: 0x1BB70, symSize: 0x50 }
  - { offsetInCU: 0x4FBD, offset: 0x5B750, size: 0x8, addend: 0x0, symName: '__ZN4core3ptr126drop_in_place$LT$core..option..Option$LT$$LP$syn..token..And$C$core..option..Option$LT$syn..lifetime..Lifetime$GT$$RP$$GT$$GT$17hc8f17eeaf1a52c07E', symObjAddr: 0xF30, symBinAddr: 0x1BBC0, symSize: 0x30 }
  - { offsetInCU: 0x5154, offset: 0x5B8E7, size: 0x8, addend: 0x0, symName: '__ZN4core3ptr128drop_in_place$LT$alloc..vec..Vec$LT$syn..punctuated..Punctuated$LT$syn..generics..WherePredicate$C$syn..token..Comma$GT$$GT$$GT$17hbec532f7eebde6ddE', symObjAddr: 0xF60, symBinAddr: 0x1BBF0, symSize: 0xC0 }
  - { offsetInCU: 0x54A8, offset: 0x5BC3B, size: 0x8, addend: 0x0, symName: '__ZN4core3ptr190drop_in_place$LT$core..iter..adapters..flatten..Flatten$LT$alloc..vec..into_iter..IntoIter$LT$syn..punctuated..Punctuated$LT$syn..generics..WherePredicate$C$syn..token..Comma$GT$$GT$$GT$$GT$17h0d52ada8110d1d9eE', symObjAddr: 0x1020, symBinAddr: 0x1BCB0, symSize: 0x80 }
  - { offsetInCU: 0x57C8, offset: 0x5BF5B, size: 0x8, addend: 0x0, symName: '__ZN4core3ptr33drop_in_place$LT$syn..ty..Abi$GT$17h39f73003d02f14e2E', symObjAddr: 0x10A0, symBinAddr: 0x1BD30, symSize: 0x70 }
  - { offsetInCU: 0x57E4, offset: 0x5BF77, size: 0x8, addend: 0x0, symName: '__ZN4core3ptr33drop_in_place$LT$syn..ty..Abi$GT$17h39f73003d02f14e2E', symObjAddr: 0x10A0, symBinAddr: 0x1BD30, symSize: 0x70 }
  - { offsetInCU: 0x5ABC, offset: 0x5C24F, size: 0x8, addend: 0x0, symName: '__ZN4core3ptr34drop_in_place$LT$syn..lit..Lit$GT$17h6e21d94489882724E', symObjAddr: 0x1110, symBinAddr: 0x1BDA0, symSize: 0x120 }
  - { offsetInCU: 0x5FC9, offset: 0x5C75C, size: 0x8, addend: 0x0, symName: '__ZN4core3ptr34drop_in_place$LT$syn..pat..Pat$GT$17h12af3a77ec5e4c06E.llvm.15517702397638235356', symObjAddr: 0x1230, symBinAddr: 0x1BEC0, symSize: 0xF90 }
  - { offsetInCU: 0x9EEF, offset: 0x60682, size: 0x8, addend: 0x0, symName: '__ZN4core3ptr34drop_in_place$LT$syn..ty..Type$GT$17h03ec94c8bf6d8c4bE.llvm.15517702397638235356', symObjAddr: 0x21C0, symBinAddr: 0x1CE50, symSize: 0x510 }
  - { offsetInCU: 0xAF31, offset: 0x616C4, size: 0x8, addend: 0x0, symName: '__ZN4core3ptr35drop_in_place$LT$syn..expr..Arm$GT$17hd2f6006124e97931E.llvm.15517702397638235356', symObjAddr: 0x26D0, symBinAddr: 0x1D360, symSize: 0x170 }
  - { offsetInCU: 0xB52D, offset: 0x61CC0, size: 0x8, addend: 0x0, symName: '__ZN4core3ptr36drop_in_place$LT$syn..attr..Meta$GT$17h47436d13af9adcd7E.llvm.15517702397638235356', symObjAddr: 0x2840, symBinAddr: 0x1D4D0, symSize: 0x220 }
  - { offsetInCU: 0xC0A7, offset: 0x6283A, size: 0x8, addend: 0x0, symName: '__ZN4core3ptr36drop_in_place$LT$syn..expr..Expr$GT$17hbf6e9783b008b839E.llvm.15517702397638235356', symObjAddr: 0x2A60, symBinAddr: 0x1D6F0, symSize: 0x2790 }
  - { offsetInCU: 0x163C6, offset: 0x6CB59, size: 0x8, addend: 0x0, symName: '__ZN4core3ptr36drop_in_place$LT$syn..item..Item$GT$17h44faed7f7ac9a7efE', symObjAddr: 0x51F0, symBinAddr: 0x1FE80, symSize: 0x17C0 }
  - { offsetInCU: 0x1BDF4, offset: 0x72587, size: 0x8, addend: 0x0, symName: '__ZN4core3ptr36drop_in_place$LT$syn..mac..Macro$GT$17hb7d376e8ff250e1eE', symObjAddr: 0x69B0, symBinAddr: 0x21640, symSize: 0xE0 }
  - { offsetInCU: 0x1C11E, offset: 0x728B1, size: 0x8, addend: 0x0, symName: '__ZN4core3ptr36drop_in_place$LT$syn..path..Path$GT$17h72ec20184e102e8fE.llvm.15517702397638235356', symObjAddr: 0x6A90, symBinAddr: 0x21720, symSize: 0x180 }
  - { offsetInCU: 0x1C729, offset: 0x72EBC, size: 0x8, addend: 0x0, symName: '__ZN4core3ptr36drop_in_place$LT$syn..stmt..Stmt$GT$17h6339c2b8f5a1e76eE.llvm.15517702397638235356', symObjAddr: 0x6C10, symBinAddr: 0x218A0, symSize: 0x380 }
  - { offsetInCU: 0x1D392, offset: 0x73B25, size: 0x8, addend: 0x0, symName: '__ZN4core3ptr37drop_in_place$LT$syn..data..Field$GT$17h52fc657762c275a2E.llvm.15517702397638235356', symObjAddr: 0x6F90, symBinAddr: 0x21C20, symSize: 0x190 }
  - { offsetInCU: 0x1D982, offset: 0x74115, size: 0x8, addend: 0x0, symName: '__ZN4core3ptr37drop_in_place$LT$syn..item..FnArg$GT$17hebb49e6a2a0b5974E', symObjAddr: 0x7120, symBinAddr: 0x21DB0, symSize: 0x230 }
  - { offsetInCU: 0x1E2D7, offset: 0x74A6A, size: 0x8, addend: 0x0, symName: '__ZN4core3ptr37drop_in_place$LT$syn..lit..LitInt$GT$17h1e0256e712f9a4c7E.llvm.15517702397638235356', symObjAddr: 0x7350, symBinAddr: 0x21FE0, symSize: 0x70 }
  - { offsetInCU: 0x1E649, offset: 0x74DDC, size: 0x8, addend: 0x0, symName: '__ZN4core3ptr37drop_in_place$LT$syn..stmt..Block$GT$17h51c74ef5625755b3E', symObjAddr: 0x73C0, symBinAddr: 0x22050, symSize: 0xD0 }
  - { offsetInCU: 0x1E927, offset: 0x750BA, size: 0x8, addend: 0x0, symName: '__ZN4core3ptr38drop_in_place$LT$syn..expr..Member$GT$17h8c060e1cf0c3bf66E.llvm.15517702397638235356', symObjAddr: 0x7490, symBinAddr: 0x22120, symSize: 0x30 }
  - { offsetInCU: 0x1EA23, offset: 0x751B6, size: 0x8, addend: 0x0, symName: '__ZN4core3ptr38drop_in_place$LT$syn..pat..PatType$GT$17he7a199044c2b9d0dE', symObjAddr: 0x74C0, symBinAddr: 0x22150, symSize: 0x140 }
  - { offsetInCU: 0x1EFD5, offset: 0x75768, size: 0x8, addend: 0x0, symName: '__ZN4core3ptr39drop_in_place$LT$proc_macro2..Ident$GT$17h99f97753d3a4af38E.llvm.15517702397638235356', symObjAddr: 0x7600, symBinAddr: 0x22290, symSize: 0x30 }
  - { offsetInCU: 0x1F10F, offset: 0x758A2, size: 0x8, addend: 0x0, symName: '__ZN4core3ptr39drop_in_place$LT$syn..data..Variant$GT$17hd551b72016143d26E.llvm.15517702397638235356', symObjAddr: 0x7630, symBinAddr: 0x222C0, symSize: 0x2F0 }
  - { offsetInCU: 0x1FDAA, offset: 0x7653D, size: 0x8, addend: 0x0, symName: '__ZN4core3ptr39drop_in_place$LT$syn..item..UseTree$GT$17h3154cb0f1de4c557E', symObjAddr: 0x7920, symBinAddr: 0x225B0, symSize: 0x1E0 }
  - { offsetInCU: 0x20503, offset: 0x76C96, size: 0x8, addend: 0x0, symName: '__ZN4core3ptr40drop_in_place$LT$syn..item..ImplItem$GT$17h4b66b5a19789085fE', symObjAddr: 0x7B00, symBinAddr: 0x22790, symSize: 0x220 }
  - { offsetInCU: 0x20B50, offset: 0x772E3, size: 0x8, addend: 0x0, symName: '__ZN4core3ptr40drop_in_place$LT$syn..item..Receiver$GT$17h7ba37c1db7fb3522E', symObjAddr: 0x7D20, symBinAddr: 0x229B0, symSize: 0x130 }
  - { offsetInCU: 0x2114E, offset: 0x778E1, size: 0x8, addend: 0x0, symName: '__ZN4core3ptr40drop_in_place$LT$syn..item..Variadic$GT$17h16985db861cce7e8E', symObjAddr: 0x7E50, symBinAddr: 0x22AE0, symSize: 0x120 }
  - { offsetInCU: 0x215F1, offset: 0x77D84, size: 0x8, addend: 0x0, symName: '__ZN4core3ptr40drop_in_place$LT$syn..ty..ReturnType$GT$17hfd7f794d059fb3d2E.llvm.15517702397638235356', symObjAddr: 0x7F70, symBinAddr: 0x22C00, symSize: 0x50 }
  - { offsetInCU: 0x21780, offset: 0x77F13, size: 0x8, addend: 0x0, symName: '__ZN4core3ptr41drop_in_place$LT$syn..attr..Attribute$GT$17h6f376240630ff38eE.llvm.15517702397638235356', symObjAddr: 0x7FC0, symBinAddr: 0x22C50, symSize: 0x160 }
  - { offsetInCU: 0x21C92, offset: 0x78425, size: 0x8, addend: 0x0, symName: '__ZN4core3ptr41drop_in_place$LT$syn..item..Signature$GT$17h86e7848e61c80a12E', symObjAddr: 0x8120, symBinAddr: 0x22DB0, symSize: 0x270 }
  - { offsetInCU: 0x227A7, offset: 0x78F3A, size: 0x8, addend: 0x0, symName: '__ZN4core3ptr41drop_in_place$LT$syn..item..TraitItem$GT$17h9e2ae24ba8ef7723E', symObjAddr: 0x8390, symBinAddr: 0x23020, symSize: 0x3D0 }
  - { offsetInCU: 0x233E5, offset: 0x79B78, size: 0x8, addend: 0x0, symName: '__ZN4core3ptr42drop_in_place$LT$syn..item..ImplItemFn$GT$17hdc0b89f65f4e4e03E', symObjAddr: 0x8760, symBinAddr: 0x233F0, symSize: 0x230 }
  - { offsetInCU: 0x23BA8, offset: 0x7A33B, size: 0x8, addend: 0x0, symName: '__ZN4core3ptr42drop_in_place$LT$syn..path..Constraint$GT$17h13a35d12f7c07a6cE', symObjAddr: 0x8990, symBinAddr: 0x23620, symSize: 0x160 }
  - { offsetInCU: 0x24294, offset: 0x7AA27, size: 0x8, addend: 0x0, symName: '__ZN4core3ptr43drop_in_place$LT$proc_macro2..TokenTree$GT$17hf517ccc1b5a9dc4aE.llvm.15517702397638235356', symObjAddr: 0x8AF0, symBinAddr: 0x23780, symSize: 0x180 }
  - { offsetInCU: 0x24ADA, offset: 0x7B26D, size: 0x8, addend: 0x0, symName: '__ZN4core3ptr43drop_in_place$LT$syn..data..FieldsNamed$GT$17h5a8ecda4c4f24a45E', symObjAddr: 0x8C70, symBinAddr: 0x23900, symSize: 0x120 }
  - { offsetInCU: 0x24F9E, offset: 0x7B731, size: 0x8, addend: 0x0, symName: '__ZN4core3ptr43drop_in_place$LT$syn..item..ForeignItem$GT$17h03f3fb5b4dd8bd17E', symObjAddr: 0x8D90, symBinAddr: 0x23A20, symSize: 0x340 }
  - { offsetInCU: 0x259AF, offset: 0x7C142, size: 0x8, addend: 0x0, symName: '__ZN4core3ptr43drop_in_place$LT$syn..path..PathSegment$GT$17h4bf0ac4b42e10698E.llvm.15517702397638235356', symObjAddr: 0x90D0, symBinAddr: 0x23D60, symSize: 0x190 }
  - { offsetInCU: 0x25F8E, offset: 0x7C721, size: 0x8, addend: 0x0, symName: '__ZN4core3ptr44drop_in_place$LT$syn..generics..Generics$GT$17hd02b1baa30b9147cE', symObjAddr: 0x9260, symBinAddr: 0x23EF0, symSize: 0x240 }
  - { offsetInCU: 0x268CF, offset: 0x7D062, size: 0x8, addend: 0x0, symName: '__ZN4core3ptr44drop_in_place$LT$syn..item..ImplItemType$GT$17ha90acc6c69a72d7fE', symObjAddr: 0x94A0, symBinAddr: 0x24130, symSize: 0x1F0 }
  - { offsetInCU: 0x26EE2, offset: 0x7D675, size: 0x8, addend: 0x0, symName: '__ZN4core3ptr44drop_in_place$LT$syn..lifetime..Lifetime$GT$17hb07dd50c5955fb35E.llvm.15517702397638235356', symObjAddr: 0x9690, symBinAddr: 0x24320, symSize: 0x30 }
  - { offsetInCU: 0x2703B, offset: 0x7D7CE, size: 0x8, addend: 0x0, symName: '__ZN4core3ptr45drop_in_place$LT$proc_macro2..TokenStream$GT$17h5362bc4cba28da63E.llvm.15517702397638235356', symObjAddr: 0x96C0, symBinAddr: 0x24350, symSize: 0x70 }
  - { offsetInCU: 0x271A2, offset: 0x7D935, size: 0x8, addend: 0x0, symName: '__ZN4core3ptr45drop_in_place$LT$syn..generics..TypeParam$GT$17hc7ad554d9eeeebceE.llvm.15517702397638235356', symObjAddr: 0x9730, symBinAddr: 0x243C0, symSize: 0x230 }
  - { offsetInCU: 0x27A40, offset: 0x7E1D3, size: 0x8, addend: 0x0, symName: '__ZN4core3ptr45drop_in_place$LT$syn..item..ImplItemConst$GT$17h5da20d6405f32b84E', symObjAddr: 0x9960, symBinAddr: 0x245F0, symSize: 0x210 }
  - { offsetInCU: 0x28091, offset: 0x7E824, size: 0x8, addend: 0x0, symName: '__ZN4core3ptr45drop_in_place$LT$syn..item..TraitItemType$GT$17hff243beb94b171e9E', symObjAddr: 0x9B70, symBinAddr: 0x24800, symSize: 0x290 }
  - { offsetInCU: 0x289FB, offset: 0x7F18E, size: 0x8, addend: 0x0, symName: '__ZN4core3ptr46drop_in_place$LT$syn..generics..ConstParam$GT$17h27b4e0dc162bd1d1E.llvm.15517702397638235356', symObjAddr: 0x9E00, symBinAddr: 0x24A90, symSize: 0x150 }
  - { offsetInCU: 0x28E29, offset: 0x7F5BC, size: 0x8, addend: 0x0, symName: '__ZN4core3ptr46drop_in_place$LT$syn..item..TraitItemConst$GT$17hca6774dd776b1aa2E', symObjAddr: 0x9F50, symBinAddr: 0x24BE0, symSize: 0x1B0 }
  - { offsetInCU: 0x2930A, offset: 0x7FA9D, size: 0x8, addend: 0x0, symName: '__ZN4core3ptr47drop_in_place$LT$syn..generics..WhereClause$GT$17h540d9ee0a26e3df8E', symObjAddr: 0xA100, symBinAddr: 0x24D90, symSize: 0x120 }
  - { offsetInCU: 0x29790, offset: 0x7FF23, size: 0x8, addend: 0x0, symName: '__ZN4core3ptr47drop_in_place$LT$syn..item..ForeignItemType$GT$17hb584571b0132754cE', symObjAddr: 0xA220, symBinAddr: 0x24EB0, symSize: 0x1B0 }
  - { offsetInCU: 0x29DFE, offset: 0x80591, size: 0x8, addend: 0x0, symName: '__ZN4core3ptr47drop_in_place$LT$syn..path..GenericArgument$GT$17hbbd563ff98e9beecE', symObjAddr: 0xA3D0, symBinAddr: 0x25060, symSize: 0x1C0 }
  - { offsetInCU: 0x2A2C2, offset: 0x80A55, size: 0x8, addend: 0x0, symName: '__ZN4core3ptr48drop_in_place$LT$syn..generics..GenericParam$GT$17h5a823c375f20cbc3E', symObjAddr: 0xA590, symBinAddr: 0x25220, symSize: 0x150 }
  - { offsetInCU: 0x2A6E8, offset: 0x80E7B, size: 0x8, addend: 0x0, symName: '__ZN4core3ptr49drop_in_place$LT$syn..generics..LifetimeParam$GT$17h217bc35af328a5a0E.llvm.15517702397638235356', symObjAddr: 0xA6E0, symBinAddr: 0x25370, symSize: 0xF0 }
  - { offsetInCU: 0x2AAF3, offset: 0x81286, size: 0x8, addend: 0x0, symName: '__ZN4core3ptr49drop_in_place$LT$syn..generics..PredicateType$GT$17h52a914323041cfe5E.llvm.15517702397638235356', symObjAddr: 0xA7D0, symBinAddr: 0x25460, symSize: 0x180 }
  - { offsetInCU: 0x2AFAB, offset: 0x8173E, size: 0x8, addend: 0x0, symName: '__ZN4core3ptr49drop_in_place$LT$syn..item..ForeignItemStatic$GT$17h458816f72a5bfa0fE', symObjAddr: 0xA950, symBinAddr: 0x255E0, symSize: 0x190 }
  - { offsetInCU: 0x2B6AD, offset: 0x81E40, size: 0x8, addend: 0x0, symName: '__ZN4core3ptr50drop_in_place$LT$$u5b$syn..item..ImplItem$u5d$$GT$17h74a43ad69d1c0a09E', symObjAddr: 0xAAE0, symBinAddr: 0x25770, symSize: 0x210 }
  - { offsetInCU: 0x2BA21, offset: 0x821B4, size: 0x8, addend: 0x0, symName: '__ZN4core3ptr50drop_in_place$LT$syn..generics..TypeParamBound$GT$17h8625d3fe1e19312aE.llvm.15517702397638235356', symObjAddr: 0xACF0, symBinAddr: 0x25980, symSize: 0xA0 }
  - { offsetInCU: 0x2BBA6, offset: 0x82339, size: 0x8, addend: 0x0, symName: '__ZN4core3ptr50drop_in_place$LT$syn..generics..WherePredicate$GT$17hd291954f64354b17E.llvm.15517702397638235356', symObjAddr: 0xAD90, symBinAddr: 0x25A20, symSize: 0xA0 }
  - { offsetInCU: 0x2BD56, offset: 0x824E9, size: 0x8, addend: 0x0, symName: '__ZN4core3ptr51drop_in_place$LT$$u5b$syn..item..TraitItem$u5d$$GT$17h466e91c829a9f9e6E', symObjAddr: 0xAE30, symBinAddr: 0x25AC0, symSize: 0x3E0 }
  - { offsetInCU: 0x2C6F8, offset: 0x82E8B, size: 0x8, addend: 0x0, symName: '__ZN4core3ptr52drop_in_place$LT$syn..restriction..VisRestricted$GT$17hdd691197b920b338E', symObjAddr: 0xB210, symBinAddr: 0x25EA0, symSize: 0x50 }
  - { offsetInCU: 0x2C88F, offset: 0x83022, size: 0x8, addend: 0x0, symName: '__ZN4core3ptr53drop_in_place$LT$$u5b$syn..item..ForeignItem$u5d$$GT$17hb69a80c6535173afE', symObjAddr: 0xB260, symBinAddr: 0x25EF0, symSize: 0x370 }
  - { offsetInCU: 0x2D0AD, offset: 0x83840, size: 0x8, addend: 0x0, symName: '__ZN4core3ptr58drop_in_place$LT$alloc..vec..Vec$LT$syn..expr..Arm$GT$$GT$17h05ff2414ffa1123bE', symObjAddr: 0xB5D0, symBinAddr: 0x26260, symSize: 0xD0 }
  - { offsetInCU: 0x2D374, offset: 0x83B07, size: 0x8, addend: 0x0, symName: '__ZN4core3ptr59drop_in_place$LT$alloc..boxed..Box$LT$syn..pat..Pat$GT$$GT$17hb7c93ec8e1c96643E.llvm.15517702397638235356', symObjAddr: 0xB6A0, symBinAddr: 0x26330, symSize: 0x50 }
  - { offsetInCU: 0x2D4CD, offset: 0x83C60, size: 0x8, addend: 0x0, symName: '__ZN4core3ptr59drop_in_place$LT$alloc..boxed..Box$LT$syn..ty..Type$GT$$GT$17hb95b5ff5597f137cE', symObjAddr: 0xB6F0, symBinAddr: 0x26380, symSize: 0x50 }
  - { offsetInCU: 0x2D626, offset: 0x83DB9, size: 0x8, addend: 0x0, symName: '__ZN4core3ptr59drop_in_place$LT$alloc..vec..Vec$LT$syn..item..Item$GT$$GT$17hb5bf77ab53c36185E', symObjAddr: 0xB740, symBinAddr: 0x263D0, symSize: 0xD0 }
  - { offsetInCU: 0x2D94A, offset: 0x840DD, size: 0x8, addend: 0x0, symName: '__ZN4core3ptr60drop_in_place$LT$alloc..vec..Vec$LT$syn..lit..LitInt$GT$$GT$17h571a15899e8d5506E', symObjAddr: 0xB810, symBinAddr: 0x264A0, symSize: 0xD0 }
  - { offsetInCU: 0x2DE79, offset: 0x8460C, size: 0x8, addend: 0x0, symName: '__ZN4core3ptr61drop_in_place$LT$alloc..boxed..Box$LT$syn..expr..Expr$GT$$GT$17h9491aa3708e9ad9dE', symObjAddr: 0xB8E0, symBinAddr: 0x26570, symSize: 0x50 }
  - { offsetInCU: 0x2DFD2, offset: 0x84765, size: 0x8, addend: 0x0, symName: '__ZN4core3ptr61drop_in_place$LT$alloc..boxed..Box$LT$syn..path..Path$GT$$GT$17hd3a7bc791a763f84E', symObjAddr: 0xB930, symBinAddr: 0x265C0, symSize: 0x100 }
  - { offsetInCU: 0x2E4F2, offset: 0x84C85, size: 0x8, addend: 0x0, symName: '__ZN4core3ptr61drop_in_place$LT$syn..path..ParenthesizedGenericArguments$GT$17h91b81dde2975a31fE.llvm.15517702397638235356', symObjAddr: 0xBA30, symBinAddr: 0x266C0, symSize: 0x170 }
  - { offsetInCU: 0x2EAEF, offset: 0x85282, size: 0x8, addend: 0x0, symName: '__ZN4core3ptr62drop_in_place$LT$alloc..boxed..Box$LT$syn..data..Field$GT$$GT$17he0f9adef117c9c52E', symObjAddr: 0xBBA0, symBinAddr: 0x26830, symSize: 0x50 }
  - { offsetInCU: 0x2EC67, offset: 0x853FA, size: 0x8, addend: 0x0, symName: '__ZN4core3ptr62drop_in_place$LT$alloc..boxed..Box$LT$syn..item..FnArg$GT$$GT$17hc3d24186dd0c8202E', symObjAddr: 0xBBF0, symBinAddr: 0x26880, symSize: 0x60 }
  - { offsetInCU: 0x2EDDD, offset: 0x85570, size: 0x8, addend: 0x0, symName: '__ZN4core3ptr62drop_in_place$LT$alloc..boxed..Box$LT$syn..stmt..Block$GT$$GT$17hf7d54175727b7c89E', symObjAddr: 0xBC50, symBinAddr: 0x268E0, symSize: 0xE0 }
  - { offsetInCU: 0x2F234, offset: 0x859C7, size: 0x8, addend: 0x0, symName: '__ZN4core3ptr62drop_in_place$LT$alloc..vec..Vec$LT$proc_macro2..Ident$GT$$GT$17h1a599e736f732b13E', symObjAddr: 0xBD30, symBinAddr: 0x269C0, symSize: 0x90 }
  - { offsetInCU: 0x2F4CF, offset: 0x85C62, size: 0x8, addend: 0x0, symName: '__ZN4core3ptr62drop_in_place$LT$syn..path..AngleBracketedGenericArguments$GT$17h29bacf499fafc34bE.llvm.15517702397638235356', symObjAddr: 0xBDC0, symBinAddr: 0x26A50, symSize: 0x120 }
  - { offsetInCU: 0x2F955, offset: 0x860E8, size: 0x8, addend: 0x0, symName: '__ZN4core3ptr63drop_in_place$LT$alloc..vec..Vec$LT$syn..item..ImplItem$GT$$GT$17h7387663304a11bc3E', symObjAddr: 0xBEE0, symBinAddr: 0x26B70, symSize: 0x80 }
  - { offsetInCU: 0x2FC0D, offset: 0x863A0, size: 0x8, addend: 0x0, symName: '__ZN4core3ptr64drop_in_place$LT$alloc..boxed..Box$LT$syn..data..Variant$GT$$GT$17hef12f5b737facb0cE', symObjAddr: 0xBF60, symBinAddr: 0x26BF0, symSize: 0x50 }
  - { offsetInCU: 0x2FD66, offset: 0x864F9, size: 0x8, addend: 0x0, symName: '__ZN4core3ptr64drop_in_place$LT$alloc..boxed..Box$LT$syn..item..UseTree$GT$$GT$17h80eb5d728760dce9E', symObjAddr: 0xBFB0, symBinAddr: 0x26C40, symSize: 0x50 }
  - { offsetInCU: 0x2FEFD, offset: 0x86690, size: 0x8, addend: 0x0, symName: '__ZN4core3ptr64drop_in_place$LT$alloc..boxed..Box$LT$syn..pat..FieldPat$GT$$GT$17he472a16cb1d8da57E', symObjAddr: 0xC000, symBinAddr: 0x26C90, symSize: 0x140 }
  - { offsetInCU: 0x305C7, offset: 0x86D5A, size: 0x8, addend: 0x0, symName: '__ZN4core3ptr64drop_in_place$LT$alloc..boxed..Box$LT$syn..ty..BareFnArg$GT$$GT$17haa798ceb4d63d514E', symObjAddr: 0xC140, symBinAddr: 0x26DD0, symSize: 0x140 }
  - { offsetInCU: 0x30B5A, offset: 0x872ED, size: 0x8, addend: 0x0, symName: '__ZN4core3ptr64drop_in_place$LT$alloc..vec..Vec$LT$syn..attr..Attribute$GT$$GT$17hb3dc958ddf372543E', symObjAddr: 0xC280, symBinAddr: 0x26F10, symSize: 0xD0 }
  - { offsetInCU: 0x30E55, offset: 0x875E8, size: 0x8, addend: 0x0, symName: '__ZN4core3ptr64drop_in_place$LT$alloc..vec..Vec$LT$syn..item..TraitItem$GT$$GT$17h16cf0d4f0ff9300fE', symObjAddr: 0xC350, symBinAddr: 0x26FE0, symSize: 0x80 }
  - { offsetInCU: 0x3110D, offset: 0x878A0, size: 0x8, addend: 0x0, symName: '__ZN4core3ptr65drop_in_place$LT$$LP$syn..item..FnArg$C$syn..token..Comma$RP$$GT$17hefd8bb5704ecb48dE', symObjAddr: 0xC3D0, symBinAddr: 0x27060, symSize: 0x20 }
  - { offsetInCU: 0x311A6, offset: 0x87939, size: 0x8, addend: 0x0, symName: '__ZN4core3ptr65drop_in_place$LT$alloc..vec..Vec$LT$proc_macro..TokenTree$GT$$GT$17h79f3e7fd38303a81E.llvm.15517702397638235356', symObjAddr: 0xC3F0, symBinAddr: 0x27080, symSize: 0x110 }
  - { offsetInCU: 0x315B8, offset: 0x87D4B, size: 0x8, addend: 0x0, symName: '__ZN4core3ptr65drop_in_place$LT$core..option..Option$LT$syn..expr..Label$GT$$GT$17hdc00345ddddbd974E', symObjAddr: 0xC500, symBinAddr: 0x27190, symSize: 0x30 }
  - { offsetInCU: 0x316F2, offset: 0x87E85, size: 0x8, addend: 0x0, symName: '__ZN4core3ptr65drop_in_place$LT$core..option..Option$LT$syn..stmt..Block$GT$$GT$17hd4459be6ec2eb83eE', symObjAddr: 0xC530, symBinAddr: 0x271C0, symSize: 0xD0 }
  - { offsetInCU: 0x319E6, offset: 0x88179, size: 0x8, addend: 0x0, symName: '__ZN4core3ptr66drop_in_place$LT$alloc..vec..Vec$LT$proc_macro2..TokenTree$GT$$GT$17hfea2c4585d4c1da1E', symObjAddr: 0xC600, symBinAddr: 0x27290, symSize: 0xC0 }
  - { offsetInCU: 0x31CBE, offset: 0x88451, size: 0x8, addend: 0x0, symName: '__ZN4core3ptr66drop_in_place$LT$alloc..vec..Vec$LT$syn..item..ForeignItem$GT$$GT$17hbf285cce4a23b73eE', symObjAddr: 0xC6C0, symBinAddr: 0x27350, symSize: 0x80 }
  - { offsetInCU: 0x31F76, offset: 0x88709, size: 0x8, addend: 0x0, symName: '__ZN4core3ptr67drop_in_place$LT$$LP$syn..pat..FieldPat$C$syn..token..Comma$RP$$GT$17h1419004344e9750dE.llvm.15517702397638235356', symObjAddr: 0xC740, symBinAddr: 0x273D0, symSize: 0x120 }
  - { offsetInCU: 0x3250B, offset: 0x88C9E, size: 0x8, addend: 0x0, symName: '__ZN4core3ptr67drop_in_place$LT$$LP$syn..ty..BareFnArg$C$syn..token..Comma$RP$$GT$17hf25b18337635698fE.llvm.15517702397638235356', symObjAddr: 0xC860, symBinAddr: 0x274F0, symSize: 0x110 }
  - { offsetInCU: 0x32989, offset: 0x8911C, size: 0x8, addend: 0x0, symName: '__ZN4core3ptr67drop_in_place$LT$alloc..boxed..Box$LT$syn..expr..FieldValue$GT$$GT$17h35f55d2aea1459bfE', symObjAddr: 0xC970, symBinAddr: 0x27600, symSize: 0x140 }
  - { offsetInCU: 0x32EFC, offset: 0x8968F, size: 0x8, addend: 0x0, symName: '__ZN4core3ptr68drop_in_place$LT$alloc..boxed..Box$LT$syn..path..PathSegment$GT$$GT$17hd508f81b8f7a2e78E', symObjAddr: 0xCAB0, symBinAddr: 0x27740, symSize: 0xF0 }
  - { offsetInCU: 0x3333C, offset: 0x89ACF, size: 0x8, addend: 0x0, symName: '__ZN4core3ptr68drop_in_place$LT$alloc..vec..Vec$LT$proc_macro2..TokenStream$GT$$GT$17hc51cac03cd1cc7a8E', symObjAddr: 0xCBA0, symBinAddr: 0x27830, symSize: 0xC0 }
  - { offsetInCU: 0x33614, offset: 0x89DA7, size: 0x8, addend: 0x0, symName: '__ZN4core3ptr69drop_in_place$LT$core..option..Option$LT$syn..stmt..LocalInit$GT$$GT$17h75b1008e9338cd44E', symObjAddr: 0xCC60, symBinAddr: 0x278F0, symSize: 0xC0 }
  - { offsetInCU: 0x33A11, offset: 0x8A1A4, size: 0x8, addend: 0x0, symName: '__ZN4core3ptr702drop_in_place$LT$core..iter..adapters..GenericShunt$LT$core..iter..adapters..map..Map$LT$core..iter..adapters..zip..Zip$LT$core..iter..adapters..zip..Zip$LT$core..iter..adapters..map..Map$LT$syn..punctuated..Iter$LT$syn..data..Variant$GT$$C$bytemuck_derive..traits..generate_checked_bit_pattern_enum_with_fields..$u7b$$u7b$closure$u7d$$u7d$$GT$$C$bytemuck_derive..traits..VariantDiscriminantIterator$LT$syn..punctuated..Iter$LT$syn..data..Variant$GT$$GT$$GT$$C$syn..punctuated..Iter$LT$syn..data..Variant$GT$$GT$$C$bytemuck_derive..traits..generate_checked_bit_pattern_enum_with_fields..$u7b$$u7b$closure$u7d$$u7d$$GT$$C$core..result..Result$LT$core..convert..Infallible$C$syn..error..Error$GT$$GT$$GT$17h1621d47094da8b4dE', symObjAddr: 0xCD20, symBinAddr: 0x279B0, symSize: 0xA0 }
  - { offsetInCU: 0x33DA6, offset: 0x8A539, size: 0x8, addend: 0x0, symName: '__ZN4core3ptr70drop_in_place$LT$$LP$syn..expr..FieldValue$C$syn..token..Comma$RP$$GT$17hffb2599879e2e1f8E.llvm.15517702397638235356', symObjAddr: 0xCDC0, symBinAddr: 0x27A50, symSize: 0x110 }
  - { offsetInCU: 0x341E5, offset: 0x8A978, size: 0x8, addend: 0x0, symName: '__ZN4core3ptr70drop_in_place$LT$core..option..Option$LT$syn..ty..BareVariadic$GT$$GT$17h7a7328bd70cf2580E', symObjAddr: 0xCED0, symBinAddr: 0x27B60, symSize: 0x100 }
  - { offsetInCU: 0x34644, offset: 0x8ADD7, size: 0x8, addend: 0x0, symName: '__ZN4core3ptr72drop_in_place$LT$alloc..boxed..Box$LT$syn..path..GenericArgument$GT$$GT$17hd869661114e7eb2fE.llvm.15517702397638235356', symObjAddr: 0xCFD0, symBinAddr: 0x27C60, symSize: 0x190 }
  - { offsetInCU: 0x34B0C, offset: 0x8B29F, size: 0x8, addend: 0x0, symName: '__ZN4core3ptr73drop_in_place$LT$$LP$syn..path..PathSegment$C$syn..token..PathSep$RP$$GT$17hec80ed98cf70cc51E.llvm.15517702397638235356', symObjAddr: 0xD160, symBinAddr: 0x27DF0, symSize: 0xD0 }
  - { offsetInCU: 0x34DCF, offset: 0x8B562, size: 0x8, addend: 0x0, symName: '__ZN4core3ptr73drop_in_place$LT$alloc..boxed..Box$LT$syn..generics..GenericParam$GT$$GT$17h3f6e2a0b1d08d5d4E', symObjAddr: 0xD230, symBinAddr: 0x27EC0, symSize: 0x80 }
  - { offsetInCU: 0x34F83, offset: 0x8B716, size: 0x8, addend: 0x0, symName: '__ZN4core3ptr73drop_in_place$LT$alloc..vec..Vec$LT$syn..generics..WherePredicate$GT$$GT$17h78fd5914acc5d9d7E', symObjAddr: 0xD2B0, symBinAddr: 0x27F40, symSize: 0xD0 }
  - { offsetInCU: 0x3525D, offset: 0x8B9F0, size: 0x8, addend: 0x0, symName: '__ZN4core3ptr75drop_in_place$LT$$LP$syn..path..GenericArgument$C$syn..token..Comma$RP$$GT$17h1a5eae0aee00f0c7E.llvm.15517702397638235356', symObjAddr: 0xD380, symBinAddr: 0x28010, symSize: 0x180 }
  - { offsetInCU: 0x355EB, offset: 0x8BD7E, size: 0x8, addend: 0x0, symName: '__ZN4core3ptr75drop_in_place$LT$alloc..boxed..Box$LT$syn..generics..TypeParamBound$GT$$GT$17hcb0f7ecb0cbe9c25E', symObjAddr: 0xD500, symBinAddr: 0x28190, symSize: 0x180 }
  - { offsetInCU: 0x35BB5, offset: 0x8C348, size: 0x8, addend: 0x0, symName: '__ZN4core3ptr75drop_in_place$LT$alloc..boxed..Box$LT$syn..generics..WherePredicate$GT$$GT$17h1d944e5794f6f8a7E', symObjAddr: 0xD680, symBinAddr: 0x28310, symSize: 0x80 }
  - { offsetInCU: 0x35E4C, offset: 0x8C5DF, size: 0x8, addend: 0x0, symName: '__ZN4core3ptr76drop_in_place$LT$$LP$syn..generics..GenericParam$C$syn..token..Comma$RP$$GT$17hbfb363dbd1123fa2E.llvm.15517702397638235356', symObjAddr: 0xD700, symBinAddr: 0x28390, symSize: 0x40 }
  - { offsetInCU: 0x35E88, offset: 0x8C61B, size: 0x8, addend: 0x0, symName: '__ZN4core3ptr77drop_in_place$LT$$LP$syn..generics..TypeParamBound$C$syn..token..Plus$RP$$GT$17hef0d87d89e0aa4a8E.llvm.15517702397638235356', symObjAddr: 0xD740, symBinAddr: 0x283D0, symSize: 0x180 }
  - { offsetInCU: 0x36324, offset: 0x8CAB7, size: 0x8, addend: 0x0, symName: '__ZN4core3ptr78drop_in_place$LT$$LP$syn..generics..WherePredicate$C$syn..token..Comma$RP$$GT$17h66d9e84b8662549cE.llvm.15517702397638235356', symObjAddr: 0xD8C0, symBinAddr: 0x28550, symSize: 0x60 }
  - { offsetInCU: 0x36481, offset: 0x8CC14, size: 0x8, addend: 0x0, symName: '__ZN4core3ptr86drop_in_place$LT$$LP$syn..token..If$C$alloc..boxed..Box$LT$syn..expr..Expr$GT$$RP$$GT$17h94a1472a989e336bE', symObjAddr: 0xD920, symBinAddr: 0x285B0, symSize: 0x50 }
  - { offsetInCU: 0x36694, offset: 0x8CE27, size: 0x8, addend: 0x0, symName: '__ZN4core3ptr86drop_in_place$LT$syn..punctuated..Punctuated$LT$syn..pat..Pat$C$syn..token..Or$GT$$GT$17hbbaac93b620a59f0E', symObjAddr: 0xD970, symBinAddr: 0x28600, symSize: 0x120 }
  - { offsetInCU: 0x36B2D, offset: 0x8D2C0, size: 0x8, addend: 0x0, symName: '__ZN4core3ptr87drop_in_place$LT$$LP$alloc..boxed..Box$LT$syn..pat..Pat$GT$$C$syn..token..Colon$RP$$GT$17h6ec4647656380e96E', symObjAddr: 0xDA90, symBinAddr: 0x28720, symSize: 0x50 }
  - { offsetInCU: 0x36CA5, offset: 0x8D438, size: 0x8, addend: 0x0, symName: '__ZN4core3ptr87drop_in_place$LT$core..option..Option$LT$alloc..boxed..Box$LT$syn..ty..Type$GT$$GT$$GT$17h0861a3ec4fa6e258E', symObjAddr: 0xDAE0, symBinAddr: 0x28770, symSize: 0x50 }
  - { offsetInCU: 0x36E15, offset: 0x8D5A8, size: 0x8, addend: 0x0, symName: '__ZN4core3ptr89drop_in_place$LT$core..option..Option$LT$alloc..boxed..Box$LT$syn..expr..Expr$GT$$GT$$GT$17heab20deee7c3ee6dE', symObjAddr: 0xDB30, symBinAddr: 0x287C0, symSize: 0x50 }
  - { offsetInCU: 0x36F85, offset: 0x8D718, size: 0x8, addend: 0x0, symName: '__ZN4core3ptr89drop_in_place$LT$syn..punctuated..Punctuated$LT$syn..ty..Type$C$syn..token..Comma$GT$$GT$17h1894de61a59af999E.llvm.15517702397638235356', symObjAddr: 0xDB80, symBinAddr: 0x28810, symSize: 0x120 }
  - { offsetInCU: 0x37407, offset: 0x8DB9A, size: 0x8, addend: 0x0, symName: '__ZN4core3ptr90drop_in_place$LT$core..option..Option$LT$alloc..boxed..Box$LT$syn..data..Field$GT$$GT$$GT$17h6f6e5533d5f1ea35E', symObjAddr: 0xDCA0, symBinAddr: 0x28930, symSize: 0x50 }
  - { offsetInCU: 0x37577, offset: 0x8DD0A, size: 0x8, addend: 0x0, symName: '__ZN4core3ptr90drop_in_place$LT$core..option..Option$LT$alloc..boxed..Box$LT$syn..item..FnArg$GT$$GT$$GT$17he02f1146dbbca37cE', symObjAddr: 0xDCF0, symBinAddr: 0x28980, symSize: 0x50 }
  - { offsetInCU: 0x37763, offset: 0x8DEF6, size: 0x8, addend: 0x0, symName: '__ZN4core3ptr91drop_in_place$LT$syn..punctuated..Punctuated$LT$syn..expr..Expr$C$syn..token..Comma$GT$$GT$17h2f1f4ce24d410019E', symObjAddr: 0xDD40, symBinAddr: 0x289D0, symSize: 0x120 }
  - { offsetInCU: 0x37BF8, offset: 0x8E38B, size: 0x8, addend: 0x0, symName: '__ZN4core3ptr92drop_in_place$LT$core..option..Option$LT$$LP$syn..token..As$C$proc_macro2..Ident$RP$$GT$$GT$17h42516ee9ca6b0b68E', symObjAddr: 0xDE60, symBinAddr: 0x28AF0, symSize: 0x30 }
  - { offsetInCU: 0x37D13, offset: 0x8E4A6, size: 0x8, addend: 0x0, symName: '__ZN4core3ptr92drop_in_place$LT$syn..punctuated..Punctuated$LT$syn..data..Field$C$syn..token..Comma$GT$$GT$17h23be6835b4cf8a8cE', symObjAddr: 0xDE90, symBinAddr: 0x28B20, symSize: 0x120 }
  - { offsetInCU: 0x38199, offset: 0x8E92C, size: 0x8, addend: 0x0, symName: '__ZN4core3ptr92drop_in_place$LT$syn..punctuated..Punctuated$LT$syn..item..FnArg$C$syn..token..Comma$GT$$GT$17h36c677e3819bb1dbE', symObjAddr: 0xDFB0, symBinAddr: 0x28C40, symSize: 0x150 }
  - { offsetInCU: 0x386E4, offset: 0x8EE77, size: 0x8, addend: 0x0, symName: '__ZN4core3ptr94drop_in_place$LT$syn..punctuated..Punctuated$LT$syn..data..Variant$C$syn..token..Comma$GT$$GT$17h228908340994d256E', symObjAddr: 0xE100, symBinAddr: 0x28D90, symSize: 0x120 }
  - { offsetInCU: 0x38BF5, offset: 0x8F388, size: 0x8, addend: 0x0, symName: '__ZN4core3ptr94drop_in_place$LT$syn..punctuated..Punctuated$LT$syn..pat..FieldPat$C$syn..token..Comma$GT$$GT$17h4738c9f46215af09E', symObjAddr: 0xE220, symBinAddr: 0x28EB0, symSize: 0xF0 }
  - { offsetInCU: 0x38F8A, offset: 0x8F71D, size: 0x8, addend: 0x0, symName: '__ZN4core3ptr94drop_in_place$LT$syn..punctuated..Punctuated$LT$syn..ty..BareFnArg$C$syn..token..Comma$GT$$GT$17h6441ee8ed369fbe8E', symObjAddr: 0xE310, symBinAddr: 0x28FA0, symSize: 0xF0 }
  - { offsetInCU: 0x392A5, offset: 0x8FA38, size: 0x8, addend: 0x0, symName: '__ZN4core3ptr95drop_in_place$LT$core..option..Option$LT$$LP$proc_macro2..Ident$C$syn..token..Colon$RP$$GT$$GT$17h3ca7031c0359e315E.llvm.15517702397638235356', symObjAddr: 0xE400, symBinAddr: 0x29090, symSize: 0x30 }
  - { offsetInCU: 0x393C0, offset: 0x8FB53, size: 0x8, addend: 0x0, symName: '__ZN4core3ptr96drop_in_place$LT$core..option..Option$LT$alloc..boxed..Box$LT$syn..path..PathSegment$GT$$GT$$GT$17hc38badba6091c6d8E.llvm.15517702397638235356', symObjAddr: 0xE430, symBinAddr: 0x290C0, symSize: 0xA0 }
  - { offsetInCU: 0x396DA, offset: 0x8FE6D, size: 0x8, addend: 0x0, symName: '__ZN4core3ptr97drop_in_place$LT$syn..punctuated..Punctuated$LT$syn..expr..FieldValue$C$syn..token..Comma$GT$$GT$17h163154fb91ad56d1E', symObjAddr: 0xE520, symBinAddr: 0x29160, symSize: 0xF0 }
  - { offsetInCU: 0x39A8C, offset: 0x9021F, size: 0x8, addend: 0x0, symName: '__ZN4core3ptr98drop_in_place$LT$syn..punctuated..Punctuated$LT$syn..lifetime..Lifetime$C$syn..token..Plus$GT$$GT$17h86851af115fa534bE.llvm.15517702397638235356', symObjAddr: 0xE610, symBinAddr: 0x29250, symSize: 0xD0 }
  - { offsetInCU: 0x3D487, offset: 0x93C1A, size: 0x8, addend: 0x0, symName: '__ZN106_$LT$core..iter..adapters..flatten..Flatten$LT$I$GT$$u20$as$u20$core..iter..traits..iterator..Iterator$GT$4next17h24f43987ef51617dE', symObjAddr: 0x0, symBinAddr: 0x1AC90, symSize: 0x240 }
  - { offsetInCU: 0x3E27F, offset: 0x94A12, size: 0x8, addend: 0x0, symName: '__ZN48_$LT$T$u20$as$u20$core..clone..CloneToUninit$GT$15clone_to_uninit17hd9b226fb2ec98dbaE', symObjAddr: 0x240, symBinAddr: 0x1AED0, symSize: 0x330 }
  - { offsetInCU: 0x44597, offset: 0x9AD2A, size: 0x8, addend: 0x0, symName: '__ZN67_$LT$alloc..vec..Vec$LT$T$C$A$GT$$u20$as$u20$core..clone..Clone$GT$5clone17h701ecd752f52b16cE', symObjAddr: 0xE6E0, symBinAddr: 0x29320, symSize: 0x240 }
  - { offsetInCU: 0x450E5, offset: 0x9B878, size: 0x8, addend: 0x0, symName: '__ZN70_$LT$alloc..vec..Vec$LT$T$C$A$GT$$u20$as$u20$core..ops..drop..Drop$GT$4drop17h4051bf8f1c550affE', symObjAddr: 0xEC70, symBinAddr: 0x29560, symSize: 0xB0 }
  - { offsetInCU: 0x45147, offset: 0x9B8DA, size: 0x8, addend: 0x0, symName: '__ZN70_$LT$alloc..vec..Vec$LT$T$C$A$GT$$u20$as$u20$core..ops..drop..Drop$GT$4drop17h59eb619eee9265e8E', symObjAddr: 0xEDD0, symBinAddr: 0x29610, symSize: 0xA0 }
  - { offsetInCU: 0x454DA, offset: 0x9BC6D, size: 0x8, addend: 0x0, symName: '__ZN70_$LT$alloc..vec..Vec$LT$T$C$A$GT$$u20$as$u20$core..ops..drop..Drop$GT$4drop17h5b3f3aaec7587e43E', symObjAddr: 0xEE70, symBinAddr: 0x296B0, symSize: 0xB0 }
  - { offsetInCU: 0x46361, offset: 0x9CAF4, size: 0x8, addend: 0x0, symName: '__ZN98_$LT$alloc..vec..Vec$LT$T$GT$$u20$as$u20$alloc..vec..spec_from_iter..SpecFromIter$LT$T$C$I$GT$$GT$9from_iter17h3024a95bcd97046bE', symObjAddr: 0xF800, symBinAddr: 0x29760, symSize: 0x370 }
  - { offsetInCU: 0x46C86, offset: 0x9D419, size: 0x8, addend: 0x0, symName: '__ZN98_$LT$alloc..vec..Vec$LT$T$GT$$u20$as$u20$alloc..vec..spec_from_iter..SpecFromIter$LT$T$C$I$GT$$GT$9from_iter17h5bd8da0dda5acad0E', symObjAddr: 0xFB70, symBinAddr: 0x29AD0, symSize: 0x3E0 }
  - { offsetInCU: 0x47BB4, offset: 0x9E347, size: 0x8, addend: 0x0, symName: '__ZN98_$LT$alloc..vec..Vec$LT$T$GT$$u20$as$u20$alloc..vec..spec_from_iter..SpecFromIter$LT$T$C$I$GT$$GT$9from_iter17h5ea71f5e1d6f10fdE', symObjAddr: 0xFF50, symBinAddr: 0x29EB0, symSize: 0x2D0 }
  - { offsetInCU: 0x4809C, offset: 0x9E82F, size: 0x8, addend: 0x0, symName: '__ZN98_$LT$alloc..vec..Vec$LT$T$GT$$u20$as$u20$alloc..vec..spec_from_iter..SpecFromIter$LT$T$C$I$GT$$GT$9from_iter17h5fd0bc6b9df08576E', symObjAddr: 0x10220, symBinAddr: 0x2A180, symSize: 0x2C0 }
  - { offsetInCU: 0x48A19, offset: 0x9F1AC, size: 0x8, addend: 0x0, symName: '__ZN98_$LT$alloc..vec..Vec$LT$T$GT$$u20$as$u20$alloc..vec..spec_from_iter..SpecFromIter$LT$T$C$I$GT$$GT$9from_iter17h91f56b2e1115527cE', symObjAddr: 0x104E0, symBinAddr: 0x2A440, symSize: 0x370 }
  - { offsetInCU: 0x4933E, offset: 0x9FAD1, size: 0x8, addend: 0x0, symName: '__ZN98_$LT$alloc..vec..Vec$LT$T$GT$$u20$as$u20$alloc..vec..spec_from_iter..SpecFromIter$LT$T$C$I$GT$$GT$9from_iter17ha565e409e79ad4ecE', symObjAddr: 0x10850, symBinAddr: 0x2A7B0, symSize: 0x260 }
  - { offsetInCU: 0x49F40, offset: 0xA06D3, size: 0x8, addend: 0x0, symName: '__ZN98_$LT$alloc..vec..Vec$LT$T$GT$$u20$as$u20$alloc..vec..spec_from_iter..SpecFromIter$LT$T$C$I$GT$$GT$9from_iter17hb529a098633bf58cE', symObjAddr: 0x10AB0, symBinAddr: 0x2AA10, symSize: 0x2D0 }
  - { offsetInCU: 0x4A9B6, offset: 0xA1149, size: 0x8, addend: 0x0, symName: '__ZN98_$LT$alloc..vec..Vec$LT$T$GT$$u20$as$u20$alloc..vec..spec_from_iter..SpecFromIter$LT$T$C$I$GT$$GT$9from_iter17hea3176a48b3713ceE', symObjAddr: 0x10D80, symBinAddr: 0x2ACE0, symSize: 0x23E }
  - { offsetInCU: 0x1E, offset: 0xACA8C, size: 0x8, addend: 0x0, symName: __ZN10proc_macro6bridge6client14HandleCounters3get17h2c76d49220b98e92E, symObjAddr: 0x0, symBinAddr: 0x2AF20, symSize: 0x10 }
  - { offsetInCU: 0x40, offset: 0xACAAE, size: 0x8, addend: 0x0, symName: ___rustc_proc_macro_decls_1da0ee3d5cd10429__, symObjAddr: 0xEC20, symBinAddr: 0x2A47F8, symSize: 0x0 }
  - { offsetInCU: 0x5AA, offset: 0xAD018, size: 0x8, addend: 0x0, symName: __ZN15bytemuck_derive10derive_pod17hbd34c0d19562adf8E, symObjAddr: 0x7970, symBinAddr: 0x32880, symSize: 0x760 }
  - { offsetInCU: 0x10B0, offset: 0xADB1E, size: 0x8, addend: 0x0, symName: __ZN15bytemuck_derive20derive_anybitpattern17h25435b9f1429e326E, symObjAddr: 0x80D0, symBinAddr: 0x32FE0, symSize: 0x940 }
  - { offsetInCU: 0x1C26, offset: 0xAE694, size: 0x8, addend: 0x0, symName: __ZN15bytemuck_derive15derive_zeroable17h3a9401ec4c2c8912E, symObjAddr: 0x8A10, symBinAddr: 0x33920, symSize: 0x10D0 }
  - { offsetInCU: 0x36DF, offset: 0xB014D, size: 0x8, addend: 0x0, symName: __ZN15bytemuck_derive16derive_no_uninit17h409438be84556830E, symObjAddr: 0x9AE0, symBinAddr: 0x349F0, symSize: 0x710 }
  - { offsetInCU: 0x412F, offset: 0xB0B9D, size: 0x8, addend: 0x0, symName: __ZN15bytemuck_derive16derive_maybe_pod17h41f5b8eca497b510E, symObjAddr: 0xA1F0, symBinAddr: 0x35100, symSize: 0x700 }
  - { offsetInCU: 0x4B5A, offset: 0xB15C8, size: 0x8, addend: 0x0, symName: __ZN15bytemuck_derive18derive_transparent17h49418d88126697acE, symObjAddr: 0xA8F0, symBinAddr: 0x35800, symSize: 0x730 }
  - { offsetInCU: 0x55EB, offset: 0xB2059, size: 0x8, addend: 0x0, symName: __ZN15bytemuck_derive17derive_contiguous17ha9e30ca86674f04fE, symObjAddr: 0xB020, symBinAddr: 0x35F30, symSize: 0x730 }
  - { offsetInCU: 0x5D43, offset: 0xB27B1, size: 0x8, addend: 0x0, symName: __ZN15bytemuck_derive14derive_byte_eq17hfb1ed87bb8b40fcfE, symObjAddr: 0xB750, symBinAddr: 0x36660, symSize: 0xA30 }
  - { offsetInCU: 0x698A, offset: 0xB33F8, size: 0x8, addend: 0x0, symName: __ZN15bytemuck_derive16derive_byte_hash17h9f76eab5c147c0fbE, symObjAddr: 0xC180, symBinAddr: 0x37090, symSize: 0xEA6 }
  - { offsetInCU: 0xB36B, offset: 0xB7DD9, size: 0x8, addend: 0x0, symName: '__ZN4core3ptr100drop_in_place$LT$core..option..Option$LT$alloc..boxed..Box$LT$syn..path..GenericArgument$GT$$GT$$GT$17hb5a67e4079e7919fE', symObjAddr: 0xD0, symBinAddr: 0x2AFE0, symSize: 0x50 }
  - { offsetInCU: 0xB538, offset: 0xB7FA6, size: 0x8, addend: 0x0, symName: '__ZN4core3ptr102drop_in_place$LT$syn..punctuated..Punctuated$LT$syn..path..GenericArgument$C$syn..token..Comma$GT$$GT$17hd8c171c87cfb4313E', symObjAddr: 0x120, symBinAddr: 0x2B030, symSize: 0xF0 }
  - { offsetInCU: 0xB858, offset: 0xB82C6, size: 0x8, addend: 0x0, symName: '__ZN4core3ptr103drop_in_place$LT$core..option..Option$LT$alloc..boxed..Box$LT$syn..generics..TypeParamBound$GT$$GT$$GT$17hdfcf4360b16eebfbE', symObjAddr: 0x210, symBinAddr: 0x2B120, symSize: 0x50 }
  - { offsetInCU: 0xBB1D, offset: 0xB858B, size: 0x8, addend: 0x0, symName: '__ZN4core3ptr103drop_in_place$LT$core..option..Option$LT$alloc..boxed..Box$LT$syn..generics..WherePredicate$GT$$GT$$GT$17h691b9cfb56ca2c5eE', symObjAddr: 0x260, symBinAddr: 0x2B170, symSize: 0xD0 }
  - { offsetInCU: 0xBEB1, offset: 0xB891F, size: 0x8, addend: 0x0, symName: '__ZN4core3ptr103drop_in_place$LT$syn..punctuated..Punctuated$LT$syn..generics..GenericParam$C$syn..token..Comma$GT$$GT$17h93670e6688afe9d4E', symObjAddr: 0x330, symBinAddr: 0x2B240, symSize: 0xF0 }
  - { offsetInCU: 0xC3AC, offset: 0xB8E1A, size: 0x8, addend: 0x0, symName: '__ZN4core3ptr104drop_in_place$LT$syn..punctuated..Punctuated$LT$syn..generics..TypeParamBound$C$syn..token..Plus$GT$$GT$17h890bf6e730b9f26fE', symObjAddr: 0x420, symBinAddr: 0x2B330, symSize: 0x240 }
  - { offsetInCU: 0xCC48, offset: 0xB96B6, size: 0x8, addend: 0x0, symName: '__ZN4core3ptr128drop_in_place$LT$alloc..vec..Vec$LT$syn..punctuated..Punctuated$LT$syn..generics..WherePredicate$C$syn..token..Comma$GT$$GT$$GT$17hbec532f7eebde6ddE', symObjAddr: 0x660, symBinAddr: 0x2B570, symSize: 0xC0 }
  - { offsetInCU: 0xCFC0, offset: 0xB9A2E, size: 0x8, addend: 0x0, symName: '__ZN4core3ptr34drop_in_place$LT$syn..lit..Lit$GT$17h6e21d94489882724E', symObjAddr: 0x720, symBinAddr: 0x2B630, symSize: 0x120 }
  - { offsetInCU: 0xD4AE, offset: 0xB9F1C, size: 0x8, addend: 0x0, symName: '__ZN4core3ptr34drop_in_place$LT$syn..pat..Pat$GT$17h12af3a77ec5e4c06E', symObjAddr: 0x840, symBinAddr: 0x2B750, symSize: 0xF40 }
  - { offsetInCU: 0x10F74, offset: 0xBD9E2, size: 0x8, addend: 0x0, symName: '__ZN4core3ptr34drop_in_place$LT$syn..ty..Type$GT$17h03ec94c8bf6d8c4bE', symObjAddr: 0x1780, symBinAddr: 0x2C690, symSize: 0x580 }
  - { offsetInCU: 0x127FD, offset: 0xBF26B, size: 0x8, addend: 0x0, symName: '__ZN4core3ptr36drop_in_place$LT$syn..expr..Expr$GT$17hbf6e9783b008b839E', symObjAddr: 0x1D00, symBinAddr: 0x2CC10, symSize: 0x2730 }
  - { offsetInCU: 0x1BC5D, offset: 0xC86CB, size: 0x8, addend: 0x0, symName: '__ZN4core3ptr36drop_in_place$LT$syn..mac..Macro$GT$17hb7d376e8ff250e1eE', symObjAddr: 0x4430, symBinAddr: 0x2F340, symSize: 0xE0 }
  - { offsetInCU: 0x1BFE7, offset: 0xC8A55, size: 0x8, addend: 0x0, symName: '__ZN4core3ptr36drop_in_place$LT$syn..path..Path$GT$17h72ec20184e102e8fE', symObjAddr: 0x4510, symBinAddr: 0x2F420, symSize: 0x240 }
  - { offsetInCU: 0x1C981, offset: 0xC93EF, size: 0x8, addend: 0x0, symName: '__ZN4core3ptr37drop_in_place$LT$syn..stmt..Block$GT$17h51c74ef5625755b3E', symObjAddr: 0x4750, symBinAddr: 0x2F660, symSize: 0xD0 }
  - { offsetInCU: 0x1CCF3, offset: 0xC9761, size: 0x8, addend: 0x0, symName: '__ZN4core3ptr38drop_in_place$LT$syn..data..Fields$GT$17hf911f4ca325547e6E', symObjAddr: 0x4820, symBinAddr: 0x2F730, symSize: 0x190 }
  - { offsetInCU: 0x1D1F7, offset: 0xC9C65, size: 0x8, addend: 0x0, symName: '__ZN4core3ptr38drop_in_place$LT$syn..derive..Data$GT$17hd8ade54b020cd8c3E', symObjAddr: 0x49B0, symBinAddr: 0x2F8C0, symSize: 0x1D0 }
  - { offsetInCU: 0x1D8DB, offset: 0xCA349, size: 0x8, addend: 0x0, symName: '__ZN4core3ptr38drop_in_place$LT$syn..error..Error$GT$17h93ee8a83d34bad82E', symObjAddr: 0x4B80, symBinAddr: 0x2FA90, symSize: 0x90 }
  - { offsetInCU: 0x1DB89, offset: 0xCA5F7, size: 0x8, addend: 0x0, symName: '__ZN4core3ptr38drop_in_place$LT$syn..expr..Member$GT$17h8c060e1cf0c3bf66E', symObjAddr: 0x4C10, symBinAddr: 0x2FB20, symSize: 0x30 }
  - { offsetInCU: 0x1DC85, offset: 0xCA6F3, size: 0x8, addend: 0x0, symName: '__ZN4core3ptr39drop_in_place$LT$proc_macro2..Ident$GT$17h99f97753d3a4af38E', symObjAddr: 0x4C40, symBinAddr: 0x2FB50, symSize: 0x30 }
  - { offsetInCU: 0x1DD62, offset: 0xCA7D0, size: 0x8, addend: 0x0, symName: '__ZN4core3ptr40drop_in_place$LT$syn..ty..ReturnType$GT$17hfd7f794d059fb3d2E', symObjAddr: 0x4C70, symBinAddr: 0x2FB80, symSize: 0x50 }
  - { offsetInCU: 0x1DED2, offset: 0xCA940, size: 0x8, addend: 0x0, symName: '__ZN4core3ptr41drop_in_place$LT$syn..expr..ExprConst$GT$17hb3de85d21851b870E', symObjAddr: 0x4CC0, symBinAddr: 0x2FBD0, symSize: 0x180 }
  - { offsetInCU: 0x1E48B, offset: 0xCAEF9, size: 0x8, addend: 0x0, symName: '__ZN4core3ptr44drop_in_place$LT$syn..generics..Generics$GT$17hd02b1baa30b9147cE', symObjAddr: 0x4E40, symBinAddr: 0x2FD50, symSize: 0x40 }
  - { offsetInCU: 0x1E4A8, offset: 0xCAF16, size: 0x8, addend: 0x0, symName: '__ZN4core3ptr44drop_in_place$LT$syn..lifetime..Lifetime$GT$17hb07dd50c5955fb35E', symObjAddr: 0x4E80, symBinAddr: 0x2FD90, symSize: 0x30 }
  - { offsetInCU: 0x1E6DA, offset: 0xCB148, size: 0x8, addend: 0x0, symName: '__ZN4core3ptr45drop_in_place$LT$proc_macro2..TokenStream$GT$17h5362bc4cba28da63E.llvm.13441809280367558989', symObjAddr: 0x4EB0, symBinAddr: 0x2FDC0, symSize: 0x140 }
  - { offsetInCU: 0x1EBB2, offset: 0xCB620, size: 0x8, addend: 0x0, symName: '__ZN4core3ptr45drop_in_place$LT$syn..derive..DeriveInput$GT$17h998f15e384e6b4edE', symObjAddr: 0x4FF0, symBinAddr: 0x2FF00, symSize: 0x190 }
  - { offsetInCU: 0x1F139, offset: 0xCBBA7, size: 0x8, addend: 0x0, symName: '__ZN4core3ptr45drop_in_place$LT$syn..generics..TypeParam$GT$17hc7ad554d9eeeebceE', symObjAddr: 0x5180, symBinAddr: 0x30090, symSize: 0x230 }
  - { offsetInCU: 0x1F97A, offset: 0xCC3E8, size: 0x8, addend: 0x0, symName: '__ZN4core3ptr46drop_in_place$LT$syn..generics..ConstParam$GT$17h27b4e0dc162bd1d1E', symObjAddr: 0x53B0, symBinAddr: 0x302C0, symSize: 0x150 }
  - { offsetInCU: 0x1FDC7, offset: 0xCC835, size: 0x8, addend: 0x0, symName: '__ZN4core3ptr47drop_in_place$LT$syn..path..GenericArgument$GT$17hbbd563ff98e9beecE', symObjAddr: 0x5500, symBinAddr: 0x30410, symSize: 0x450 }
  - { offsetInCU: 0x20B3D, offset: 0xCD5AB, size: 0x8, addend: 0x0, symName: '__ZN4core3ptr49drop_in_place$LT$syn..generics..LifetimeParam$GT$17h217bc35af328a5a0E', symObjAddr: 0x5950, symBinAddr: 0x30860, symSize: 0xF0 }
  - { offsetInCU: 0x20F20, offset: 0xCD98E, size: 0x8, addend: 0x0, symName: '__ZN4core3ptr49drop_in_place$LT$syn..restriction..Visibility$GT$17hd5d254cf61929f27E', symObjAddr: 0x5A40, symBinAddr: 0x30950, symSize: 0x60 }
  - { offsetInCU: 0x21091, offset: 0xCDAFF, size: 0x8, addend: 0x0, symName: '__ZN4core3ptr50drop_in_place$LT$syn..generics..TypeParamBound$GT$17h8625d3fe1e19312aE', symObjAddr: 0x5AA0, symBinAddr: 0x309B0, symSize: 0xA0 }
  - { offsetInCU: 0x211F7, offset: 0xCDC65, size: 0x8, addend: 0x0, symName: '__ZN4core3ptr58drop_in_place$LT$alloc..vec..Vec$LT$syn..expr..Arm$GT$$GT$17h05ff2414ffa1123bE', symObjAddr: 0x5B40, symBinAddr: 0x30A50, symSize: 0xD0 }
  - { offsetInCU: 0x214B7, offset: 0xCDF25, size: 0x8, addend: 0x0, symName: '__ZN4core3ptr59drop_in_place$LT$alloc..boxed..Box$LT$syn..pat..Pat$GT$$GT$17hb7c93ec8e1c96643E', symObjAddr: 0x5C10, symBinAddr: 0x30B20, symSize: 0x50 }
  - { offsetInCU: 0x21610, offset: 0xCE07E, size: 0x8, addend: 0x0, symName: '__ZN4core3ptr59drop_in_place$LT$alloc..boxed..Box$LT$syn..ty..Type$GT$$GT$17hb95b5ff5597f137cE', symObjAddr: 0x5C60, symBinAddr: 0x30B70, symSize: 0x50 }
  - { offsetInCU: 0x21769, offset: 0xCE1D7, size: 0x8, addend: 0x0, symName: '__ZN4core3ptr61drop_in_place$LT$alloc..boxed..Box$LT$syn..expr..Expr$GT$$GT$17h9491aa3708e9ad9dE', symObjAddr: 0x5CB0, symBinAddr: 0x30BC0, symSize: 0x50 }
  - { offsetInCU: 0x218C2, offset: 0xCE330, size: 0x8, addend: 0x0, symName: '__ZN4core3ptr61drop_in_place$LT$syn..path..ParenthesizedGenericArguments$GT$17h91b81dde2975a31fE', symObjAddr: 0x5D00, symBinAddr: 0x30C10, symSize: 0x170 }
  - { offsetInCU: 0x21ECB, offset: 0xCE939, size: 0x8, addend: 0x0, symName: '__ZN4core3ptr63drop_in_place$LT$alloc..boxed..Box$LT$syn..lit..LitRepr$GT$$GT$17hcfa95594142fffd5E', symObjAddr: 0x5E70, symBinAddr: 0x30D80, symSize: 0x60 }
  - { offsetInCU: 0x221D2, offset: 0xCEC40, size: 0x8, addend: 0x0, symName: '__ZN4core3ptr64drop_in_place$LT$alloc..boxed..Box$LT$syn..pat..FieldPat$GT$$GT$17he472a16cb1d8da57E', symObjAddr: 0x5ED0, symBinAddr: 0x30DE0, symSize: 0x140 }
  - { offsetInCU: 0x2289F, offset: 0xCF30D, size: 0x8, addend: 0x0, symName: '__ZN4core3ptr64drop_in_place$LT$alloc..boxed..Box$LT$syn..ty..BareFnArg$GT$$GT$17haa798ceb4d63d514E', symObjAddr: 0x6010, symBinAddr: 0x30F20, symSize: 0x140 }
  - { offsetInCU: 0x22DF4, offset: 0xCF862, size: 0x8, addend: 0x0, symName: '__ZN4core3ptr64drop_in_place$LT$alloc..vec..Vec$LT$syn..attr..Attribute$GT$$GT$17hb3dc958ddf372543E', symObjAddr: 0x6150, symBinAddr: 0x31060, symSize: 0xD0 }
  - { offsetInCU: 0x230B4, offset: 0xCFB22, size: 0x8, addend: 0x0, symName: '__ZN4core3ptr65drop_in_place$LT$alloc..vec..Vec$LT$proc_macro..TokenTree$GT$$GT$17h79f3e7fd38303a81E.llvm.13441809280367558989', symObjAddr: 0x6220, symBinAddr: 0x31130, symSize: 0x110 }
  - { offsetInCU: 0x234AC, offset: 0xCFF1A, size: 0x8, addend: 0x0, symName: '__ZN4core3ptr65drop_in_place$LT$core..option..Option$LT$syn..expr..Label$GT$$GT$17hdc00345ddddbd974E', symObjAddr: 0x6330, symBinAddr: 0x31240, symSize: 0x30 }
  - { offsetInCU: 0x235E6, offset: 0xD0054, size: 0x8, addend: 0x0, symName: '__ZN4core3ptr66drop_in_place$LT$core..option..Option$LT$syn..pat..PatRest$GT$$GT$17h167e885b89721015E', symObjAddr: 0x6360, symBinAddr: 0x31270, symSize: 0xE0 }
  - { offsetInCU: 0x238DA, offset: 0xD0348, size: 0x8, addend: 0x0, symName: '__ZN4core3ptr67drop_in_place$LT$alloc..boxed..Box$LT$syn..expr..FieldValue$GT$$GT$17h35f55d2aea1459bfE', symObjAddr: 0x6440, symBinAddr: 0x31350, symSize: 0x140 }
  - { offsetInCU: 0x23E2E, offset: 0xD089C, size: 0x8, addend: 0x0, symName: '__ZN4core3ptr70drop_in_place$LT$core..option..Option$LT$syn..ty..BareVariadic$GT$$GT$17h7a7328bd70cf2580E', symObjAddr: 0x6580, symBinAddr: 0x31490, symSize: 0x100 }
  - { offsetInCU: 0x24265, offset: 0xD0CD3, size: 0x8, addend: 0x0, symName: '__ZN4core3ptr72drop_in_place$LT$alloc..boxed..Box$LT$syn..path..GenericArgument$GT$$GT$17hd869661114e7eb2fE', symObjAddr: 0x6680, symBinAddr: 0x31590, symSize: 0x2B0 }
  - { offsetInCU: 0x24C76, offset: 0xD16E4, size: 0x8, addend: 0x0, symName: '__ZN4core3ptr72drop_in_place$LT$core..option..Option$LT$syn..lifetime..Lifetime$GT$$GT$17h25f12c99b928716eE', symObjAddr: 0x6930, symBinAddr: 0x31840, symSize: 0x30 }
  - { offsetInCU: 0x24D91, offset: 0xD17FF, size: 0x8, addend: 0x0, symName: '__ZN4core3ptr73drop_in_place$LT$alloc..boxed..Box$LT$syn..generics..GenericParam$GT$$GT$17h3f6e2a0b1d08d5d4E', symObjAddr: 0x6960, symBinAddr: 0x31870, symSize: 0x80 }
  - { offsetInCU: 0x24F26, offset: 0xD1994, size: 0x8, addend: 0x0, symName: '__ZN4core3ptr73drop_in_place$LT$alloc..vec..Vec$LT$syn..generics..WherePredicate$GT$$GT$17h78fd5914acc5d9d7E', symObjAddr: 0x69E0, symBinAddr: 0x318F0, symSize: 0xD0 }
  - { offsetInCU: 0x251F9, offset: 0xD1C67, size: 0x8, addend: 0x0, symName: '__ZN4core3ptr75drop_in_place$LT$alloc..boxed..Box$LT$syn..generics..TypeParamBound$GT$$GT$17hcb0f7ecb0cbe9c25E', symObjAddr: 0x6AB0, symBinAddr: 0x319C0, symSize: 0x180 }
  - { offsetInCU: 0x25804, offset: 0xD2272, size: 0x8, addend: 0x0, symName: '__ZN4core3ptr75drop_in_place$LT$core..option..Option$LT$syn..generics..WhereClause$GT$$GT$17h9cb4dda8947ae374E', symObjAddr: 0x6C30, symBinAddr: 0x31B40, symSize: 0x90 }
  - { offsetInCU: 0x25AF8, offset: 0xD2566, size: 0x8, addend: 0x0, symName: '__ZN4core3ptr86drop_in_place$LT$syn..punctuated..Punctuated$LT$syn..pat..Pat$C$syn..token..Or$GT$$GT$17hbbaac93b620a59f0E', symObjAddr: 0x6CC0, symBinAddr: 0x31BD0, symSize: 0x120 }
  - { offsetInCU: 0x25F73, offset: 0xD29E1, size: 0x8, addend: 0x0, symName: '__ZN4core3ptr87drop_in_place$LT$core..option..Option$LT$alloc..boxed..Box$LT$syn..pat..Pat$GT$$GT$$GT$17hda27f65557d8367dE', symObjAddr: 0x6DE0, symBinAddr: 0x31CF0, symSize: 0x50 }
  - { offsetInCU: 0x260E3, offset: 0xD2B51, size: 0x8, addend: 0x0, symName: '__ZN4core3ptr87drop_in_place$LT$core..option..Option$LT$alloc..boxed..Box$LT$syn..ty..Type$GT$$GT$$GT$17h0861a3ec4fa6e258E', symObjAddr: 0x6E30, symBinAddr: 0x31D40, symSize: 0x50 }
  - { offsetInCU: 0x26253, offset: 0xD2CC1, size: 0x8, addend: 0x0, symName: '__ZN4core3ptr89drop_in_place$LT$core..option..Option$LT$alloc..boxed..Box$LT$syn..expr..Expr$GT$$GT$$GT$17heab20deee7c3ee6dE', symObjAddr: 0x6E80, symBinAddr: 0x31D90, symSize: 0x50 }
  - { offsetInCU: 0x26401, offset: 0xD2E6F, size: 0x8, addend: 0x0, symName: '__ZN4core3ptr89drop_in_place$LT$syn..punctuated..Punctuated$LT$syn..pat..Pat$C$syn..token..Comma$GT$$GT$17hd3071c3e257d3ee3E', symObjAddr: 0x6ED0, symBinAddr: 0x31DE0, symSize: 0x120 }
  - { offsetInCU: 0x268F0, offset: 0xD335E, size: 0x8, addend: 0x0, symName: '__ZN4core3ptr90drop_in_place$LT$core..option..Option$LT$alloc..boxed..Box$LT$syn..data..Field$GT$$GT$$GT$17h6f6e5533d5f1ea35E', symObjAddr: 0x6FF0, symBinAddr: 0x31F00, symSize: 0x1B0 }
  - { offsetInCU: 0x26FCD, offset: 0xD3A3B, size: 0x8, addend: 0x0, symName: '__ZN4core3ptr91drop_in_place$LT$syn..punctuated..Punctuated$LT$syn..expr..Expr$C$syn..token..Comma$GT$$GT$17h2f1f4ce24d410019E', symObjAddr: 0x71A0, symBinAddr: 0x320B0, symSize: 0x120 }
  - { offsetInCU: 0x274D7, offset: 0xD3F45, size: 0x8, addend: 0x0, symName: '__ZN4core3ptr92drop_in_place$LT$core..option..Option$LT$alloc..boxed..Box$LT$syn..data..Variant$GT$$GT$$GT$17h1b82b5b54ce0f8a2E', symObjAddr: 0x72C0, symBinAddr: 0x321D0, symSize: 0x170 }
  - { offsetInCU: 0x27A72, offset: 0xD44E0, size: 0x8, addend: 0x0, symName: '__ZN4core3ptr94drop_in_place$LT$syn..punctuated..Punctuated$LT$syn..pat..FieldPat$C$syn..token..Comma$GT$$GT$17h4738c9f46215af09E', symObjAddr: 0x7430, symBinAddr: 0x32340, symSize: 0xF0 }
  - { offsetInCU: 0x27D71, offset: 0xD47DF, size: 0x8, addend: 0x0, symName: '__ZN4core3ptr94drop_in_place$LT$syn..punctuated..Punctuated$LT$syn..ty..BareFnArg$C$syn..token..Comma$GT$$GT$17h6441ee8ed369fbe8E', symObjAddr: 0x7520, symBinAddr: 0x32430, symSize: 0xF0 }
  - { offsetInCU: 0x28072, offset: 0xD4AE0, size: 0x8, addend: 0x0, symName: '__ZN4core3ptr96drop_in_place$LT$core..option..Option$LT$alloc..boxed..Box$LT$syn..path..PathSegment$GT$$GT$$GT$17hc38badba6091c6d8E', symObjAddr: 0x7610, symBinAddr: 0x32520, symSize: 0x1A0 }
  - { offsetInCU: 0x28733, offset: 0xD51A1, size: 0x8, addend: 0x0, symName: '__ZN4core3ptr97drop_in_place$LT$syn..punctuated..Punctuated$LT$syn..expr..FieldValue$C$syn..token..Comma$GT$$GT$17h163154fb91ad56d1E', symObjAddr: 0x77B0, symBinAddr: 0x326C0, symSize: 0xF0 }
  - { offsetInCU: 0x28AAC, offset: 0xD551A, size: 0x8, addend: 0x0, symName: '__ZN4core3ptr98drop_in_place$LT$syn..punctuated..Punctuated$LT$syn..lifetime..Lifetime$C$syn..token..Plus$GT$$GT$17h86851af115fa534bE', symObjAddr: 0x78A0, symBinAddr: 0x327B0, symSize: 0xD0 }
  - { offsetInCU: 0x29050, offset: 0xD5ABE, size: 0x8, addend: 0x0, symName: '__ZN4core3ops8function5impls80_$LT$impl$u20$core..ops..function..FnOnce$LT$A$GT$$u20$for$u20$$RF$mut$u20$F$GT$9call_once17hd91b63688ff97c3fE', symObjAddr: 0x10, symBinAddr: 0x2AF30, symSize: 0xB0 }
  - { offsetInCU: 0x2AE57, offset: 0xD78C5, size: 0x8, addend: 0x0, symName: __ZN10proc_macro6bridge6client14HandleCounters3get17h2c76d49220b98e92E, symObjAddr: 0x0, symBinAddr: 0x2AF20, symSize: 0x10 }
  - { offsetInCU: 0x1E, offset: 0xE4469, size: 0x8, addend: 0x0, symName: '__ZN100_$LT$syn..punctuated..PrivateIter$LT$T$C$P$GT$$u20$as$u20$core..iter..traits..iterator..Iterator$GT$4next17h82efa3b76b349dc9E.llvm.11089578220771412662', symObjAddr: 0x0, symBinAddr: 0x37F40, symSize: 0x30 }
  - { offsetInCU: 0x686, offset: 0xE4AD1, size: 0x8, addend: 0x0, symName: '__ZN100_$LT$syn..punctuated..PrivateIter$LT$T$C$P$GT$$u20$as$u20$core..iter..traits..iterator..Iterator$GT$4next17h82efa3b76b349dc9E.llvm.11089578220771412662', symObjAddr: 0x0, symBinAddr: 0x37F40, symSize: 0x30 }
  - { offsetInCU: 0x99A, offset: 0xE4DE5, size: 0x8, addend: 0x0, symName: '__ZN102_$LT$syn..punctuated..Punctuated$LT$T$C$P$GT$$u20$as$u20$core..iter..traits..collect..IntoIterator$GT$9into_iter17h6a52286e24453637E', symObjAddr: 0x30, symBinAddr: 0x37F70, symSize: 0x2D0 }
  - { offsetInCU: 0x169D, offset: 0xE5AE8, size: 0x8, addend: 0x0, symName: '__ZN105_$LT$syn..punctuated..Punctuated$LT$T$C$P$GT$$u20$as$u20$core..iter..traits..collect..Extend$LT$T$GT$$GT$6extend17hd641f116ab62053fE', symObjAddr: 0x300, symBinAddr: 0x38240, symSize: 0x140 }
  - { offsetInCU: 0x197C, offset: 0xE5DC7, size: 0x8, addend: 0x0, symName: '__ZN111_$LT$syn..punctuated..PrivateIter$LT$T$C$P$GT$$u20$as$u20$core..iter..traits..exact_size..ExactSizeIterator$GT$3len17hfe7dfb5689da83dbE.llvm.11089578220771412662', symObjAddr: 0x440, symBinAddr: 0x38380, symSize: 0x30 }
  - { offsetInCU: 0x1ADB, offset: 0xE5F26, size: 0x8, addend: 0x0, symName: '__ZN115_$LT$syn..punctuated..PrivateIter$LT$T$C$P$GT$$u20$as$u20$core..iter..traits..double_ended..DoubleEndedIterator$GT$9next_back17h956e5f6e022ff188E.llvm.11089578220771412662', symObjAddr: 0x470, symBinAddr: 0x383B0, symSize: 0x30 }
  - { offsetInCU: 0x1F84, offset: 0xE63CF, size: 0x8, addend: 0x0, symName: '__ZN57_$LT$I$u20$as$u20$syn..punctuated..IterTrait$LT$T$GT$$GT$9clone_box17hbd989af04f4ffe26E.llvm.11089578220771412662', symObjAddr: 0x8AC0, symBinAddr: 0x407B0, symSize: 0x60 }
  - { offsetInCU: 0x6C60, offset: 0xEB0AB, size: 0x8, addend: 0x0, symName: '__ZN40_$LT$F$u20$as$u20$syn..parse..Parser$GT$14__parse_scoped17h4a6875344fe24250E', symObjAddr: 0xAD0, symBinAddr: 0x38810, symSize: 0x570 }
  - { offsetInCU: 0xC17D, offset: 0xF05C8, size: 0x8, addend: 0x0, symName: '__ZN4core3ptr100drop_in_place$LT$core..option..Option$LT$alloc..boxed..Box$LT$syn..path..GenericArgument$GT$$GT$$GT$17hb5a67e4079e7919fE', symObjAddr: 0x1040, symBinAddr: 0x38D80, symSize: 0x50 }
  - { offsetInCU: 0xC51B, offset: 0xF0966, size: 0x8, addend: 0x0, symName: '__ZN4core3ptr100drop_in_place$LT$syn..punctuated..Punctuated$LT$syn..path..PathSegment$C$syn..token..PathSep$GT$$GT$17h6b8714b021672400E', symObjAddr: 0x1090, symBinAddr: 0x38DD0, symSize: 0x270 }
  - { offsetInCU: 0xCEBE, offset: 0xF1309, size: 0x8, addend: 0x0, symName: '__ZN4core3ptr101drop_in_place$LT$alloc..vec..Vec$LT$$LP$syn..generics..WherePredicate$C$syn..token..Comma$RP$$GT$$GT$17h9c8d1cd9b29f1e9cE.llvm.11089578220771412662', symObjAddr: 0x1300, symBinAddr: 0x39040, symSize: 0x60 }
  - { offsetInCU: 0xD110, offset: 0xF155B, size: 0x8, addend: 0x0, symName: '__ZN4core3ptr103drop_in_place$LT$core..option..Option$LT$alloc..boxed..Box$LT$syn..generics..TypeParamBound$GT$$GT$$GT$17hdfcf4360b16eebfbE', symObjAddr: 0x1360, symBinAddr: 0x390A0, symSize: 0x50 }
  - { offsetInCU: 0xD29F, offset: 0xF16EA, size: 0x8, addend: 0x0, symName: '__ZN4core3ptr103drop_in_place$LT$core..option..Option$LT$alloc..boxed..Box$LT$syn..generics..WherePredicate$GT$$GT$$GT$17h691b9cfb56ca2c5eE.llvm.11089578220771412662', symObjAddr: 0x13B0, symBinAddr: 0x390F0, symSize: 0x50 }
  - { offsetInCU: 0xD49D, offset: 0xF18E8, size: 0x8, addend: 0x0, symName: '__ZN4core3ptr103drop_in_place$LT$syn..punctuated..Punctuated$LT$syn..generics..GenericParam$C$syn..token..Comma$GT$$GT$17h93670e6688afe9d4E.llvm.11089578220771412662', symObjAddr: 0x1400, symBinAddr: 0x39140, symSize: 0xF0 }
  - { offsetInCU: 0xD9B7, offset: 0xF1E02, size: 0x8, addend: 0x0, symName: '__ZN4core3ptr104drop_in_place$LT$syn..punctuated..Punctuated$LT$syn..generics..TypeParamBound$C$syn..token..Plus$GT$$GT$17h890bf6e730b9f26fE.llvm.11089578220771412662', symObjAddr: 0x14F0, symBinAddr: 0x39230, symSize: 0x240 }
  - { offsetInCU: 0xE272, offset: 0xF26BD, size: 0x8, addend: 0x0, symName: '__ZN4core3ptr105drop_in_place$LT$syn..punctuated..Punctuated$LT$syn..generics..WherePredicate$C$syn..token..Comma$GT$$GT$17h153e3fb43ee38d46E', symObjAddr: 0x1730, symBinAddr: 0x39470, symSize: 0xB0 }
  - { offsetInCU: 0xE6DD, offset: 0xF2B28, size: 0x8, addend: 0x0, symName: '__ZN4core3ptr34drop_in_place$LT$syn..lit..Lit$GT$17h6e21d94489882724E', symObjAddr: 0x17E0, symBinAddr: 0x39520, symSize: 0x120 }
  - { offsetInCU: 0xEBAC, offset: 0xF2FF7, size: 0x8, addend: 0x0, symName: '__ZN4core3ptr34drop_in_place$LT$syn..pat..Pat$GT$17h12af3a77ec5e4c06E', symObjAddr: 0x1900, symBinAddr: 0x39640, symSize: 0x1090 }
  - { offsetInCU: 0x12BAC, offset: 0xF6FF7, size: 0x8, addend: 0x0, symName: '__ZN4core3ptr34drop_in_place$LT$syn..ty..Type$GT$17h03ec94c8bf6d8c4bE.llvm.11089578220771412662', symObjAddr: 0x2990, symBinAddr: 0x3A6D0, symSize: 0x4F0 }
  - { offsetInCU: 0x140EF, offset: 0xF853A, size: 0x8, addend: 0x0, symName: '__ZN4core3ptr36drop_in_place$LT$syn..expr..Expr$GT$17hbf6e9783b008b839E', symObjAddr: 0x2E80, symBinAddr: 0x3ABC0, symSize: 0x27D0 }
  - { offsetInCU: 0x1D823, offset: 0x101C6E, size: 0x8, addend: 0x0, symName: '__ZN4core3ptr36drop_in_place$LT$syn..mac..Macro$GT$17hb7d376e8ff250e1eE', symObjAddr: 0x5650, symBinAddr: 0x3D390, symSize: 0x40 }
  - { offsetInCU: 0x1D85D, offset: 0x101CA8, size: 0x8, addend: 0x0, symName: '__ZN4core3ptr36drop_in_place$LT$syn..path..Path$GT$17h72ec20184e102e8fE', symObjAddr: 0x5690, symBinAddr: 0x3D3D0, symSize: 0x240 }
  - { offsetInCU: 0x1E1F7, offset: 0x102642, size: 0x8, addend: 0x0, symName: '__ZN4core3ptr37drop_in_place$LT$syn..stmt..Block$GT$17h51c74ef5625755b3E', symObjAddr: 0x58D0, symBinAddr: 0x3D610, symSize: 0xD0 }
  - { offsetInCU: 0x1E4CE, offset: 0x102919, size: 0x8, addend: 0x0, symName: '__ZN4core3ptr38drop_in_place$LT$syn..expr..Member$GT$17h8c060e1cf0c3bf66E', symObjAddr: 0x59A0, symBinAddr: 0x3D6E0, symSize: 0x30 }
  - { offsetInCU: 0x1E5CA, offset: 0x102A15, size: 0x8, addend: 0x0, symName: '__ZN4core3ptr39drop_in_place$LT$proc_macro2..Ident$GT$17h99f97753d3a4af38E', symObjAddr: 0x59D0, symBinAddr: 0x3D710, symSize: 0x30 }
  - { offsetInCU: 0x1E7DD, offset: 0x102C28, size: 0x8, addend: 0x0, symName: '__ZN4core3ptr39drop_in_place$LT$syn..buffer..Entry$GT$17h61a159652b737e43E', symObjAddr: 0x5A00, symBinAddr: 0x3D740, symSize: 0xB0 }
  - { offsetInCU: 0x1EB68, offset: 0x102FB3, size: 0x8, addend: 0x0, symName: '__ZN4core3ptr40drop_in_place$LT$syn..ty..ReturnType$GT$17hfd7f794d059fb3d2E', symObjAddr: 0x5AB0, symBinAddr: 0x3D7F0, symSize: 0x50 }
  - { offsetInCU: 0x1ECD8, offset: 0x103123, size: 0x8, addend: 0x0, symName: '__ZN4core3ptr41drop_in_place$LT$syn..expr..ExprConst$GT$17hb3de85d21851b870E', symObjAddr: 0x5B00, symBinAddr: 0x3D840, symSize: 0x180 }
  - { offsetInCU: 0x1F291, offset: 0x1036DC, size: 0x8, addend: 0x0, symName: '__ZN4core3ptr44drop_in_place$LT$syn..lifetime..Lifetime$GT$17hb07dd50c5955fb35E', symObjAddr: 0x5C80, symBinAddr: 0x3D9C0, symSize: 0x30 }
  - { offsetInCU: 0x1F38D, offset: 0x1037D8, size: 0x8, addend: 0x0, symName: '__ZN4core3ptr44drop_in_place$LT$syn..parse..ParseBuffer$GT$17h414ae3203566f226E', symObjAddr: 0x5CB0, symBinAddr: 0x3D9F0, symSize: 0x70 }
  - { offsetInCU: 0x1F709, offset: 0x103B54, size: 0x8, addend: 0x0, symName: '__ZN4core3ptr45drop_in_place$LT$proc_macro2..TokenStream$GT$17h5362bc4cba28da63E.llvm.11089578220771412662', symObjAddr: 0x5D20, symBinAddr: 0x3DA60, symSize: 0x140 }
  - { offsetInCU: 0x1FB65, offset: 0x103FB0, size: 0x8, addend: 0x0, symName: '__ZN4core3ptr45drop_in_place$LT$syn..buffer..TokenBuffer$GT$17h4dd1cad1b70fd82dE', symObjAddr: 0x5E60, symBinAddr: 0x3DBA0, symSize: 0xC0 }
  - { offsetInCU: 0x1FDCD, offset: 0x104218, size: 0x8, addend: 0x0, symName: '__ZN4core3ptr45drop_in_place$LT$syn..generics..TypeParam$GT$17hc7ad554d9eeeebceE.llvm.11089578220771412662', symObjAddr: 0x5F20, symBinAddr: 0x3DC60, symSize: 0x230 }
  - { offsetInCU: 0x2060E, offset: 0x104A59, size: 0x8, addend: 0x0, symName: '__ZN4core3ptr46drop_in_place$LT$syn..generics..ConstParam$GT$17h27b4e0dc162bd1d1E.llvm.11089578220771412662', symObjAddr: 0x6150, symBinAddr: 0x3DE90, symSize: 0x150 }
  - { offsetInCU: 0x20A5B, offset: 0x104EA6, size: 0x8, addend: 0x0, symName: '__ZN4core3ptr47drop_in_place$LT$syn..path..GenericArgument$GT$17hbbd563ff98e9beecE', symObjAddr: 0x62A0, symBinAddr: 0x3DFE0, symSize: 0x4A0 }
  - { offsetInCU: 0x21B61, offset: 0x105FAC, size: 0x8, addend: 0x0, symName: '__ZN4core3ptr49drop_in_place$LT$syn..generics..LifetimeParam$GT$17h217bc35af328a5a0E.llvm.11089578220771412662', symObjAddr: 0x6740, symBinAddr: 0x3E480, symSize: 0xF0 }
  - { offsetInCU: 0x21F44, offset: 0x10638F, size: 0x8, addend: 0x0, symName: '__ZN4core3ptr50drop_in_place$LT$syn..generics..TypeParamBound$GT$17h8625d3fe1e19312aE', symObjAddr: 0x6830, symBinAddr: 0x3E570, symSize: 0xA0 }
  - { offsetInCU: 0x220E8, offset: 0x106533, size: 0x8, addend: 0x0, symName: '__ZN4core3ptr50drop_in_place$LT$syn..generics..WherePredicate$GT$17hd291954f64354b17E.llvm.11089578220771412662', symObjAddr: 0x68D0, symBinAddr: 0x3E610, symSize: 0xA0 }
  - { offsetInCU: 0x2228C, offset: 0x1066D7, size: 0x8, addend: 0x0, symName: '__ZN4core3ptr58drop_in_place$LT$alloc..vec..Vec$LT$syn..expr..Arm$GT$$GT$17h05ff2414ffa1123bE', symObjAddr: 0x6970, symBinAddr: 0x3E6B0, symSize: 0xD0 }
  - { offsetInCU: 0x2254C, offset: 0x106997, size: 0x8, addend: 0x0, symName: '__ZN4core3ptr59drop_in_place$LT$alloc..boxed..Box$LT$syn..pat..Pat$GT$$GT$17hb7c93ec8e1c96643E', symObjAddr: 0x6A40, symBinAddr: 0x3E780, symSize: 0x50 }
  - { offsetInCU: 0x226A5, offset: 0x106AF0, size: 0x8, addend: 0x0, symName: '__ZN4core3ptr59drop_in_place$LT$alloc..boxed..Box$LT$syn..ty..Type$GT$$GT$17hb95b5ff5597f137cE', symObjAddr: 0x6A90, symBinAddr: 0x3E7D0, symSize: 0x50 }
  - { offsetInCU: 0x227FE, offset: 0x106C49, size: 0x8, addend: 0x0, symName: '__ZN4core3ptr61drop_in_place$LT$alloc..boxed..Box$LT$syn..expr..Expr$GT$$GT$17h9491aa3708e9ad9dE', symObjAddr: 0x6AE0, symBinAddr: 0x3E820, symSize: 0x50 }
  - { offsetInCU: 0x229D3, offset: 0x106E1E, size: 0x8, addend: 0x0, symName: '__ZN4core3ptr61drop_in_place$LT$syn..path..ParenthesizedGenericArguments$GT$17h91b81dde2975a31fE', symObjAddr: 0x6B30, symBinAddr: 0x3E870, symSize: 0x170 }
  - { offsetInCU: 0x22FC9, offset: 0x107414, size: 0x8, addend: 0x0, symName: '__ZN4core3ptr62drop_in_place$LT$syn..path..AngleBracketedGenericArguments$GT$17h29bacf499fafc34bE', symObjAddr: 0x6CA0, symBinAddr: 0x3E9E0, symSize: 0x120 }
  - { offsetInCU: 0x23414, offset: 0x10785F, size: 0x8, addend: 0x0, symName: '__ZN4core3ptr63drop_in_place$LT$alloc..boxed..Box$LT$syn..lit..LitRepr$GT$$GT$17hcfa95594142fffd5E', symObjAddr: 0x6DC0, symBinAddr: 0x3EB00, symSize: 0x60 }
  - { offsetInCU: 0x2371B, offset: 0x107B66, size: 0x8, addend: 0x0, symName: '__ZN4core3ptr64drop_in_place$LT$alloc..boxed..Box$LT$syn..pat..FieldPat$GT$$GT$17he472a16cb1d8da57E', symObjAddr: 0x6E20, symBinAddr: 0x3EB60, symSize: 0x140 }
  - { offsetInCU: 0x23DE8, offset: 0x108233, size: 0x8, addend: 0x0, symName: '__ZN4core3ptr64drop_in_place$LT$alloc..boxed..Box$LT$syn..ty..BareFnArg$GT$$GT$17haa798ceb4d63d514E', symObjAddr: 0x6F60, symBinAddr: 0x3ECA0, symSize: 0x140 }
  - { offsetInCU: 0x2433D, offset: 0x108788, size: 0x8, addend: 0x0, symName: '__ZN4core3ptr65drop_in_place$LT$alloc..vec..Vec$LT$proc_macro..TokenTree$GT$$GT$17h79f3e7fd38303a81E.llvm.11089578220771412662', symObjAddr: 0x70A0, symBinAddr: 0x3EDE0, symSize: 0x110 }
  - { offsetInCU: 0x24735, offset: 0x108B80, size: 0x8, addend: 0x0, symName: '__ZN4core3ptr65drop_in_place$LT$core..option..Option$LT$syn..expr..Label$GT$$GT$17hdc00345ddddbd974E', symObjAddr: 0x71B0, symBinAddr: 0x3EEF0, symSize: 0x30 }
  - { offsetInCU: 0x2486F, offset: 0x108CBA, size: 0x8, addend: 0x0, symName: '__ZN4core3ptr66drop_in_place$LT$core..option..Option$LT$syn..pat..PatRest$GT$$GT$17h167e885b89721015E', symObjAddr: 0x71E0, symBinAddr: 0x3EF20, symSize: 0xE0 }
  - { offsetInCU: 0x24B63, offset: 0x108FAE, size: 0x8, addend: 0x0, symName: '__ZN4core3ptr67drop_in_place$LT$alloc..boxed..Box$LT$syn..expr..FieldValue$GT$$GT$17h35f55d2aea1459bfE', symObjAddr: 0x72C0, symBinAddr: 0x3F000, symSize: 0x140 }
  - { offsetInCU: 0x25098, offset: 0x1094E3, size: 0x8, addend: 0x0, symName: '__ZN4core3ptr68drop_in_place$LT$alloc..boxed..Box$LT$syn..path..PathSegment$GT$$GT$17hd508f81b8f7a2e78E', symObjAddr: 0x7400, symBinAddr: 0x3F140, symSize: 0x1B0 }
  - { offsetInCU: 0x257A6, offset: 0x109BF1, size: 0x8, addend: 0x0, symName: '__ZN4core3ptr70drop_in_place$LT$core..option..Option$LT$syn..ty..BareVariadic$GT$$GT$17h7a7328bd70cf2580E', symObjAddr: 0x75B0, symBinAddr: 0x3F2F0, symSize: 0x100 }
  - { offsetInCU: 0x25BDD, offset: 0x10A028, size: 0x8, addend: 0x0, symName: '__ZN4core3ptr72drop_in_place$LT$alloc..boxed..Box$LT$syn..path..GenericArgument$GT$$GT$17hd869661114e7eb2fE', symObjAddr: 0x76B0, symBinAddr: 0x3F3F0, symSize: 0x2B0 }
  - { offsetInCU: 0x26595, offset: 0x10A9E0, size: 0x8, addend: 0x0, symName: '__ZN4core3ptr72drop_in_place$LT$core..option..Option$LT$syn..lifetime..Lifetime$GT$$GT$17h25f12c99b928716eE', symObjAddr: 0x7960, symBinAddr: 0x3F6A0, symSize: 0x30 }
  - { offsetInCU: 0x266B0, offset: 0x10AAFB, size: 0x8, addend: 0x0, symName: '__ZN4core3ptr73drop_in_place$LT$alloc..boxed..Box$LT$syn..generics..GenericParam$GT$$GT$17h3f6e2a0b1d08d5d4E.llvm.11089578220771412662', symObjAddr: 0x7990, symBinAddr: 0x3F6D0, symSize: 0x80 }
  - { offsetInCU: 0x26845, offset: 0x10AC90, size: 0x8, addend: 0x0, symName: '__ZN4core3ptr73drop_in_place$LT$alloc..vec..Vec$LT$syn..generics..WherePredicate$GT$$GT$17h78fd5914acc5d9d7E.llvm.11089578220771412662', symObjAddr: 0x7A10, symBinAddr: 0x3F750, symSize: 0xD0 }
  - { offsetInCU: 0x26B18, offset: 0x10AF63, size: 0x8, addend: 0x0, symName: '__ZN4core3ptr75drop_in_place$LT$alloc..boxed..Box$LT$syn..generics..TypeParamBound$GT$$GT$17hcb0f7ecb0cbe9c25E', symObjAddr: 0x7AE0, symBinAddr: 0x3F820, symSize: 0x180 }
  - { offsetInCU: 0x27104, offset: 0x10B54F, size: 0x8, addend: 0x0, symName: '__ZN4core3ptr86drop_in_place$LT$syn..punctuated..Punctuated$LT$syn..pat..Pat$C$syn..token..Or$GT$$GT$17hbbaac93b620a59f0E', symObjAddr: 0x7C60, symBinAddr: 0x3F9A0, symSize: 0x120 }
  - { offsetInCU: 0x2757F, offset: 0x10B9CA, size: 0x8, addend: 0x0, symName: '__ZN4core3ptr87drop_in_place$LT$core..option..Option$LT$alloc..boxed..Box$LT$syn..pat..Pat$GT$$GT$$GT$17hda27f65557d8367dE', symObjAddr: 0x7D80, symBinAddr: 0x3FAC0, symSize: 0x50 }
  - { offsetInCU: 0x276EF, offset: 0x10BB3A, size: 0x8, addend: 0x0, symName: '__ZN4core3ptr87drop_in_place$LT$core..option..Option$LT$alloc..boxed..Box$LT$syn..ty..Type$GT$$GT$$GT$17h0861a3ec4fa6e258E', symObjAddr: 0x7DD0, symBinAddr: 0x3FB10, symSize: 0x50 }
  - { offsetInCU: 0x2785F, offset: 0x10BCAA, size: 0x8, addend: 0x0, symName: '__ZN4core3ptr89drop_in_place$LT$core..option..Option$LT$alloc..boxed..Box$LT$syn..expr..Expr$GT$$GT$$GT$17heab20deee7c3ee6dE', symObjAddr: 0x7E20, symBinAddr: 0x3FB60, symSize: 0x50 }
  - { offsetInCU: 0x27A0D, offset: 0x10BE58, size: 0x8, addend: 0x0, symName: '__ZN4core3ptr89drop_in_place$LT$syn..punctuated..Punctuated$LT$syn..pat..Pat$C$syn..token..Comma$GT$$GT$17hd3071c3e257d3ee3E', symObjAddr: 0x7E70, symBinAddr: 0x3FBB0, symSize: 0x120 }
  - { offsetInCU: 0x27E9F, offset: 0x10C2EA, size: 0x8, addend: 0x0, symName: '__ZN4core3ptr89drop_in_place$LT$syn..punctuated..Punctuated$LT$syn..ty..Type$C$syn..token..Comma$GT$$GT$17h1894de61a59af999E', symObjAddr: 0x7F90, symBinAddr: 0x3FCD0, symSize: 0x120 }
  - { offsetInCU: 0x2831A, offset: 0x10C765, size: 0x8, addend: 0x0, symName: '__ZN4core3ptr90drop_in_place$LT$core..option..Option$LT$syn..path..AngleBracketedGenericArguments$GT$$GT$17hdef236189643d6dbE', symObjAddr: 0x80B0, symBinAddr: 0x3FDF0, symSize: 0x130 }
  - { offsetInCU: 0x287BC, offset: 0x10CC07, size: 0x8, addend: 0x0, symName: '__ZN4core3ptr91drop_in_place$LT$syn..punctuated..Punctuated$LT$syn..expr..Expr$C$syn..token..Comma$GT$$GT$17h2f1f4ce24d410019E', symObjAddr: 0x81E0, symBinAddr: 0x3FF20, symSize: 0x120 }
  - { offsetInCU: 0x28C4A, offset: 0x10D095, size: 0x8, addend: 0x0, symName: '__ZN4core3ptr94drop_in_place$LT$syn..punctuated..Punctuated$LT$syn..pat..FieldPat$C$syn..token..Comma$GT$$GT$17h4738c9f46215af09E', symObjAddr: 0x8300, symBinAddr: 0x40040, symSize: 0xF0 }
  - { offsetInCU: 0x28F49, offset: 0x10D394, size: 0x8, addend: 0x0, symName: '__ZN4core3ptr94drop_in_place$LT$syn..punctuated..Punctuated$LT$syn..ty..BareFnArg$C$syn..token..Comma$GT$$GT$17h6441ee8ed369fbe8E', symObjAddr: 0x83F0, symBinAddr: 0x40130, symSize: 0xF0 }
  - { offsetInCU: 0x2924A, offset: 0x10D695, size: 0x8, addend: 0x0, symName: '__ZN4core3ptr96drop_in_place$LT$core..option..Option$LT$alloc..boxed..Box$LT$syn..path..PathSegment$GT$$GT$$GT$17hc38badba6091c6d8E', symObjAddr: 0x84E0, symBinAddr: 0x40220, symSize: 0xA0 }
  - { offsetInCU: 0x294E8, offset: 0x10D933, size: 0x8, addend: 0x0, symName: '__ZN4core3ptr97drop_in_place$LT$syn..punctuated..Punctuated$LT$syn..expr..FieldValue$C$syn..token..Comma$GT$$GT$17h163154fb91ad56d1E', symObjAddr: 0x85D0, symBinAddr: 0x402C0, symSize: 0xF0 }
  - { offsetInCU: 0x297E5, offset: 0x10DC30, size: 0x8, addend: 0x0, symName: '__ZN4core3ptr98drop_in_place$LT$alloc..vec..Vec$LT$$LP$syn..path..GenericArgument$C$syn..token..Comma$RP$$GT$$GT$17h374bd21798875d9aE', symObjAddr: 0x86C0, symBinAddr: 0x403B0, symSize: 0xD0 }
  - { offsetInCU: 0x29B06, offset: 0x10DF51, size: 0x8, addend: 0x0, symName: '__ZN4core3ptr98drop_in_place$LT$syn..punctuated..Punctuated$LT$syn..lifetime..Lifetime$C$syn..token..Plus$GT$$GT$17h86851af115fa534bE.llvm.11089578220771412662', symObjAddr: 0x8790, symBinAddr: 0x40480, symSize: 0xD0 }
  - { offsetInCU: 0x2D34C, offset: 0x111797, size: 0x8, addend: 0x0, symName: __ZN4core4iter6traits8iterator8Iterator10advance_by17h3057f99ec5d72857E.llvm.11089578220771412662, symObjAddr: 0x89B0, symBinAddr: 0x406A0, symSize: 0x70 }
  - { offsetInCU: 0x2D6B6, offset: 0x111B01, size: 0x8, addend: 0x0, symName: __ZN4core4iter6traits8iterator8Iterator3nth17hf242f3c7789ea361E.llvm.11089578220771412662, symObjAddr: 0x8A20, symBinAddr: 0x40710, symSize: 0x80 }
  - { offsetInCU: 0x2DC7F, offset: 0x1120CA, size: 0x8, addend: 0x0, symName: __ZN4core4iter6traits8iterator8Iterator9size_hint17hcf9a773686f3c253E.llvm.11089578220771412662, symObjAddr: 0x8AA0, symBinAddr: 0x40790, symSize: 0x20 }
  - { offsetInCU: 0x2DD24, offset: 0x11216F, size: 0x8, addend: 0x0, symName: __ZN4core4iter6traits10exact_size17ExactSizeIterator8is_empty17h803b829e8a2838bbE.llvm.11089578220771412662, symObjAddr: 0x8860, symBinAddr: 0x40550, symSize: 0x30 }
  - { offsetInCU: 0x2DE9E, offset: 0x1122E9, size: 0x8, addend: 0x0, symName: __ZN4core4iter6traits12double_ended19DoubleEndedIterator15advance_back_by17h2f4726662e6b60c9E.llvm.11089578220771412662, symObjAddr: 0x8890, symBinAddr: 0x40580, symSize: 0x80 }
  - { offsetInCU: 0x2E10E, offset: 0x112559, size: 0x8, addend: 0x0, symName: __ZN4core4iter6traits12double_ended19DoubleEndedIterator8nth_back17h70bb80bd076b9368E.llvm.11089578220771412662, symObjAddr: 0x8910, symBinAddr: 0x40600, symSize: 0xA0 }
  - { offsetInCU: 0x2F01A, offset: 0x113465, size: 0x8, addend: 0x0, symName: _anon.26e4f8927d4cef34c1b0bf46f93b967b.9.llvm.11089578220771412662, symObjAddr: 0x9F70, symBinAddr: 0x2A48F0, symSize: 0x0 }
  - { offsetInCU: 0x2F860, offset: 0x113CAB, size: 0x8, addend: 0x0, symName: '__ZN3syn10punctuated23Punctuated$LT$T$C$P$GT$10push_punct17haf34194b4ed1dda1E.llvm.11089578220771412662', symObjAddr: 0x4A0, symBinAddr: 0x383E0, symSize: 0x110 }
  - { offsetInCU: 0x2FC94, offset: 0x1140DF, size: 0x8, addend: 0x0, symName: '__ZN3syn10punctuated23Punctuated$LT$T$C$P$GT$10push_value17h4f215260f76548fbE.llvm.11089578220771412662', symObjAddr: 0x5B0, symBinAddr: 0x384F0, symSize: 0x100 }
  - { offsetInCU: 0x30296, offset: 0x1146E1, size: 0x8, addend: 0x0, symName: '__ZN3syn10punctuated23Punctuated$LT$T$C$P$GT$4push17h30aa9921be1ab0fbE', symObjAddr: 0x760, symBinAddr: 0x385F0, symSize: 0x220 }
  - { offsetInCU: 0x1E, offset: 0x1194C8, size: 0x8, addend: 0x0, symName: __ZN5alloc7raw_vec11finish_grow17h4acc6d78dc60f4b6E.llvm.6756048975413739298, symObjAddr: 0x0, symBinAddr: 0x40810, symSize: 0xA0 }
  - { offsetInCU: 0x47C5, offset: 0x11DC6F, size: 0x8, addend: 0x0, symName: __ZN5alloc7raw_vec11finish_grow17h4acc6d78dc60f4b6E.llvm.6756048975413739298, symObjAddr: 0x0, symBinAddr: 0x40810, symSize: 0xA0 }
  - { offsetInCU: 0x57E5, offset: 0x11EC8F, size: 0x8, addend: 0x0, symName: '__ZN5alloc7raw_vec19RawVec$LT$T$C$A$GT$7reserve21do_reserve_and_handle17h3202a663b1b8604cE', symObjAddr: 0x510, symBinAddr: 0x231E30, symSize: 0xC0 }
  - { offsetInCU: 0x5B19, offset: 0x11EFC3, size: 0x8, addend: 0x0, symName: '__ZN5alloc7raw_vec19RawVec$LT$T$C$A$GT$7reserve21do_reserve_and_handle17h7387d10d388fed5fE', symObjAddr: 0x5D0, symBinAddr: 0x231EF0, symSize: 0x0 }
  - { offsetInCU: 0x5E4B, offset: 0x11F2F5, size: 0x8, addend: 0x0, symName: '__ZN5alloc7raw_vec19RawVec$LT$T$C$A$GT$7reserve21do_reserve_and_handle17h77df2b74d68c4a6aE', symObjAddr: 0x680, symBinAddr: 0x231FA0, symSize: 0xC0 }
  - { offsetInCU: 0x617F, offset: 0x11F629, size: 0x8, addend: 0x0, symName: '__ZN5alloc7raw_vec19RawVec$LT$T$C$A$GT$7reserve21do_reserve_and_handle17hb567ab57e16f2d08E', symObjAddr: 0x740, symBinAddr: 0x232060, symSize: 0xA0 }
  - { offsetInCU: 0x647D, offset: 0x11F927, size: 0x8, addend: 0x0, symName: '__ZN5alloc7raw_vec19RawVec$LT$T$C$A$GT$7reserve21do_reserve_and_handle17hf0092fc660189708E', symObjAddr: 0x7E0, symBinAddr: 0x232100, symSize: 0x0 }
  - { offsetInCU: 0xCCF4, offset: 0x12619E, size: 0x8, addend: 0x0, symName: '__ZN5alloc7raw_vec19RawVec$LT$T$C$A$GT$8grow_one17h296dd86ebe652d16E', symObjAddr: 0x890, symBinAddr: 0x408B0, symSize: 0xB0 }
  - { offsetInCU: 0xD03B, offset: 0x1264E5, size: 0x8, addend: 0x0, symName: '__ZN5alloc7raw_vec19RawVec$LT$T$C$A$GT$8grow_one17h31195cbf9b4373c0E', symObjAddr: 0x940, symBinAddr: 0x40960, symSize: 0xA0 }
  - { offsetInCU: 0xD4D1, offset: 0x12697B, size: 0x8, addend: 0x0, symName: '__ZN5alloc7raw_vec19RawVec$LT$T$C$A$GT$8grow_one17h6bce316a678f29f5E', symObjAddr: 0x9E0, symBinAddr: 0x40A00, symSize: 0xC0 }
  - { offsetInCU: 0xD9D4, offset: 0x126E7E, size: 0x8, addend: 0x0, symName: '__ZN5alloc7raw_vec19RawVec$LT$T$C$A$GT$8grow_one17hc5b79c3339be9e1eE', symObjAddr: 0xAA0, symBinAddr: 0x40AC0, symSize: 0xC0 }
  - { offsetInCU: 0xDEAA, offset: 0x127354, size: 0x8, addend: 0x0, symName: '__ZN5alloc7raw_vec19RawVec$LT$T$C$A$GT$8grow_one17hdd48cb472fd44006E', symObjAddr: 0xB60, symBinAddr: 0x40B80, symSize: 0xC0 }
  - { offsetInCU: 0x12F, offset: 0x1278C1, size: 0x8, addend: 0x0, symName: '__ZN58_$LT$alloc..string..String$u20$as$u20$core..fmt..Write$GT$10write_char17h04bc467bd68a934bE', symObjAddr: 0x8F20, symBinAddr: 0x49AC0, symSize: 0x140 }
  - { offsetInCU: 0x534, offset: 0x127CC6, size: 0x8, addend: 0x0, symName: '__ZN58_$LT$alloc..string..String$u20$as$u20$core..fmt..Write$GT$9write_str17h46a93205c3443fbaE', symObjAddr: 0x9060, symBinAddr: 0x49C00, symSize: 0x5B }
  - { offsetInCU: 0x38F2, offset: 0x12B084, size: 0x8, addend: 0x0, symName: '__ZN4core3ptr100drop_in_place$LT$core..option..Option$LT$alloc..boxed..Box$LT$syn..path..GenericArgument$GT$$GT$$GT$17hb5a67e4079e7919fE', symObjAddr: 0x2090, symBinAddr: 0x42C30, symSize: 0x50 }
  - { offsetInCU: 0x3A62, offset: 0x12B1F4, size: 0x8, addend: 0x0, symName: '__ZN4core3ptr101drop_in_place$LT$$LP$proc_macro2..Ident$C$core..result..Result$LT$i64$C$syn..error..Error$GT$$RP$$GT$17hc284d72fe08957a3E', symObjAddr: 0x20E0, symBinAddr: 0x42C80, symSize: 0xA0 }
  - { offsetInCU: 0x3E2F, offset: 0x12B5C1, size: 0x8, addend: 0x0, symName: '__ZN4core3ptr102drop_in_place$LT$syn..punctuated..Punctuated$LT$syn..path..GenericArgument$C$syn..token..Comma$GT$$GT$17hd8c171c87cfb4313E', symObjAddr: 0x2180, symBinAddr: 0x42D20, symSize: 0xF0 }
  - { offsetInCU: 0x414F, offset: 0x12B8E1, size: 0x8, addend: 0x0, symName: '__ZN4core3ptr103drop_in_place$LT$core..option..Option$LT$alloc..boxed..Box$LT$syn..generics..TypeParamBound$GT$$GT$$GT$17hdfcf4360b16eebfbE', symObjAddr: 0x2270, symBinAddr: 0x42E10, symSize: 0x50 }
  - { offsetInCU: 0x435A, offset: 0x12BAEC, size: 0x8, addend: 0x0, symName: '__ZN4core3ptr103drop_in_place$LT$syn..punctuated..Punctuated$LT$syn..generics..GenericParam$C$syn..token..Comma$GT$$GT$17h93670e6688afe9d4E', symObjAddr: 0x22C0, symBinAddr: 0x42E60, symSize: 0xF0 }
  - { offsetInCU: 0x48B2, offset: 0x12C044, size: 0x8, addend: 0x0, symName: '__ZN4core3ptr104drop_in_place$LT$syn..punctuated..Punctuated$LT$syn..generics..TypeParamBound$C$syn..token..Plus$GT$$GT$17h890bf6e730b9f26fE', symObjAddr: 0x23B0, symBinAddr: 0x42F50, symSize: 0x240 }
  - { offsetInCU: 0x512F, offset: 0x12C8C1, size: 0x8, addend: 0x0, symName: '__ZN4core3ptr34drop_in_place$LT$syn..lit..Lit$GT$17h6e21d94489882724E', symObjAddr: 0x25F0, symBinAddr: 0x43190, symSize: 0x120 }
  - { offsetInCU: 0x55DF, offset: 0x12CD71, size: 0x8, addend: 0x0, symName: '__ZN4core3ptr34drop_in_place$LT$syn..pat..Pat$GT$17h12af3a77ec5e4c06E', symObjAddr: 0x2710, symBinAddr: 0x432B0, symSize: 0xF40 }
  - { offsetInCU: 0x9048, offset: 0x1307DA, size: 0x8, addend: 0x0, symName: '__ZN4core3ptr34drop_in_place$LT$syn..ty..Type$GT$17h03ec94c8bf6d8c4bE', symObjAddr: 0x3650, symBinAddr: 0x441F0, symSize: 0x580 }
  - { offsetInCU: 0xA8D1, offset: 0x132063, size: 0x8, addend: 0x0, symName: '__ZN4core3ptr36drop_in_place$LT$syn..expr..Expr$GT$17hbf6e9783b008b839E', symObjAddr: 0x3BD0, symBinAddr: 0x44770, symSize: 0x2730 }
  - { offsetInCU: 0x13D31, offset: 0x13B4C3, size: 0x8, addend: 0x0, symName: '__ZN4core3ptr36drop_in_place$LT$syn..mac..Macro$GT$17hb7d376e8ff250e1eE', symObjAddr: 0x6300, symBinAddr: 0x46EA0, symSize: 0xE0 }
  - { offsetInCU: 0x140BB, offset: 0x13B84D, size: 0x8, addend: 0x0, symName: '__ZN4core3ptr36drop_in_place$LT$syn..path..Path$GT$17h72ec20184e102e8fE', symObjAddr: 0x63E0, symBinAddr: 0x46F80, symSize: 0x240 }
  - { offsetInCU: 0x14A55, offset: 0x13C1E7, size: 0x8, addend: 0x0, symName: '__ZN4core3ptr37drop_in_place$LT$syn..lit..LitInt$GT$17h1e0256e712f9a4c7E', symObjAddr: 0x6620, symBinAddr: 0x471C0, symSize: 0x70 }
  - { offsetInCU: 0x14DC7, offset: 0x13C559, size: 0x8, addend: 0x0, symName: '__ZN4core3ptr37drop_in_place$LT$syn..stmt..Block$GT$17h51c74ef5625755b3E', symObjAddr: 0x6690, symBinAddr: 0x47230, symSize: 0xD0 }
  - { offsetInCU: 0x1509E, offset: 0x13C830, size: 0x8, addend: 0x0, symName: '__ZN4core3ptr38drop_in_place$LT$syn..error..Error$GT$17h93ee8a83d34bad82E', symObjAddr: 0x6760, symBinAddr: 0x47300, symSize: 0x90 }
  - { offsetInCU: 0x1534C, offset: 0x13CADE, size: 0x8, addend: 0x0, symName: '__ZN4core3ptr38drop_in_place$LT$syn..expr..Member$GT$17h8c060e1cf0c3bf66E', symObjAddr: 0x67F0, symBinAddr: 0x47390, symSize: 0x30 }
  - { offsetInCU: 0x15448, offset: 0x13CBDA, size: 0x8, addend: 0x0, symName: '__ZN4core3ptr39drop_in_place$LT$proc_macro2..Ident$GT$17h99f97753d3a4af38E', symObjAddr: 0x6820, symBinAddr: 0x473C0, symSize: 0x30 }
  - { offsetInCU: 0x15525, offset: 0x13CCB7, size: 0x8, addend: 0x0, symName: '__ZN4core3ptr40drop_in_place$LT$syn..ty..ReturnType$GT$17hfd7f794d059fb3d2E', symObjAddr: 0x6850, symBinAddr: 0x473F0, symSize: 0x50 }
  - { offsetInCU: 0x15695, offset: 0x13CE27, size: 0x8, addend: 0x0, symName: '__ZN4core3ptr41drop_in_place$LT$syn..expr..ExprConst$GT$17hb3de85d21851b870E', symObjAddr: 0x68A0, symBinAddr: 0x47440, symSize: 0x180 }
  - { offsetInCU: 0x15C4E, offset: 0x13D3E0, size: 0x8, addend: 0x0, symName: '__ZN4core3ptr42drop_in_place$LT$alloc..string..String$GT$17hfe9675182ef40682E.llvm.6541719940094382906', symObjAddr: 0x6A20, symBinAddr: 0x475C0, symSize: 0x20 }
  - { offsetInCU: 0x15D56, offset: 0x13D4E8, size: 0x8, addend: 0x0, symName: '__ZN4core3ptr44drop_in_place$LT$syn..lifetime..Lifetime$GT$17hb07dd50c5955fb35E', symObjAddr: 0x6A40, symBinAddr: 0x475E0, symSize: 0x30 }
  - { offsetInCU: 0x15F2B, offset: 0x13D6BD, size: 0x8, addend: 0x0, symName: '__ZN4core3ptr45drop_in_place$LT$proc_macro2..TokenStream$GT$17h5362bc4cba28da63E', symObjAddr: 0x6A70, symBinAddr: 0x47610, symSize: 0x140 }
  - { offsetInCU: 0x16387, offset: 0x13DB19, size: 0x8, addend: 0x0, symName: '__ZN4core3ptr45drop_in_place$LT$syn..attr..MetaNameValue$GT$17hdb324a3fa2db5323E', symObjAddr: 0x6BB0, symBinAddr: 0x47750, symSize: 0x40 }
  - { offsetInCU: 0x163F5, offset: 0x13DB87, size: 0x8, addend: 0x0, symName: '__ZN4core3ptr45drop_in_place$LT$syn..generics..TypeParam$GT$17hc7ad554d9eeeebceE', symObjAddr: 0x6BF0, symBinAddr: 0x47790, symSize: 0x230 }
  - { offsetInCU: 0x16C36, offset: 0x13E3C8, size: 0x8, addend: 0x0, symName: '__ZN4core3ptr46drop_in_place$LT$syn..generics..ConstParam$GT$17h27b4e0dc162bd1d1E', symObjAddr: 0x6E20, symBinAddr: 0x479C0, symSize: 0x150 }
  - { offsetInCU: 0x17083, offset: 0x13E815, size: 0x8, addend: 0x0, symName: '__ZN4core3ptr47drop_in_place$LT$syn..path..GenericArgument$GT$17hbbd563ff98e9beecE', symObjAddr: 0x6F70, symBinAddr: 0x47B10, symSize: 0x450 }
  - { offsetInCU: 0x17DF9, offset: 0x13F58B, size: 0x8, addend: 0x0, symName: '__ZN4core3ptr49drop_in_place$LT$syn..generics..LifetimeParam$GT$17h217bc35af328a5a0E', symObjAddr: 0x73C0, symBinAddr: 0x47F60, symSize: 0xF0 }
  - { offsetInCU: 0x181DC, offset: 0x13F96E, size: 0x8, addend: 0x0, symName: '__ZN4core3ptr50drop_in_place$LT$syn..generics..TypeParamBound$GT$17h8625d3fe1e19312aE', symObjAddr: 0x74B0, symBinAddr: 0x48050, symSize: 0xA0 }
  - { offsetInCU: 0x18342, offset: 0x13FAD4, size: 0x8, addend: 0x0, symName: '__ZN4core3ptr58drop_in_place$LT$alloc..vec..Vec$LT$syn..expr..Arm$GT$$GT$17h05ff2414ffa1123bE', symObjAddr: 0x7550, symBinAddr: 0x480F0, symSize: 0xD0 }
  - { offsetInCU: 0x18602, offset: 0x13FD94, size: 0x8, addend: 0x0, symName: '__ZN4core3ptr59drop_in_place$LT$alloc..boxed..Box$LT$syn..pat..Pat$GT$$GT$17hb7c93ec8e1c96643E', symObjAddr: 0x7620, symBinAddr: 0x481C0, symSize: 0x50 }
  - { offsetInCU: 0x1875B, offset: 0x13FEED, size: 0x8, addend: 0x0, symName: '__ZN4core3ptr59drop_in_place$LT$alloc..boxed..Box$LT$syn..ty..Type$GT$$GT$17hb95b5ff5597f137cE', symObjAddr: 0x7670, symBinAddr: 0x48210, symSize: 0x50 }
  - { offsetInCU: 0x188B4, offset: 0x140046, size: 0x8, addend: 0x0, symName: '__ZN4core3ptr61drop_in_place$LT$alloc..boxed..Box$LT$syn..expr..Expr$GT$$GT$17h9491aa3708e9ad9dE', symObjAddr: 0x76C0, symBinAddr: 0x48260, symSize: 0x50 }
  - { offsetInCU: 0x18A0D, offset: 0x14019F, size: 0x8, addend: 0x0, symName: '__ZN4core3ptr61drop_in_place$LT$syn..path..ParenthesizedGenericArguments$GT$17h91b81dde2975a31fE', symObjAddr: 0x7710, symBinAddr: 0x482B0, symSize: 0x170 }
  - { offsetInCU: 0x19016, offset: 0x1407A8, size: 0x8, addend: 0x0, symName: '__ZN4core3ptr63drop_in_place$LT$alloc..boxed..Box$LT$syn..lit..LitRepr$GT$$GT$17hcfa95594142fffd5E', symObjAddr: 0x7880, symBinAddr: 0x48420, symSize: 0x60 }
  - { offsetInCU: 0x1931D, offset: 0x140AAF, size: 0x8, addend: 0x0, symName: '__ZN4core3ptr64drop_in_place$LT$alloc..boxed..Box$LT$syn..pat..FieldPat$GT$$GT$17he472a16cb1d8da57E', symObjAddr: 0x78E0, symBinAddr: 0x48480, symSize: 0x140 }
  - { offsetInCU: 0x199EA, offset: 0x14117C, size: 0x8, addend: 0x0, symName: '__ZN4core3ptr64drop_in_place$LT$alloc..boxed..Box$LT$syn..ty..BareFnArg$GT$$GT$17haa798ceb4d63d514E', symObjAddr: 0x7A20, symBinAddr: 0x485C0, symSize: 0x140 }
  - { offsetInCU: 0x19F3F, offset: 0x1416D1, size: 0x8, addend: 0x0, symName: '__ZN4core3ptr64drop_in_place$LT$alloc..vec..Vec$LT$syn..attr..Attribute$GT$$GT$17hb3dc958ddf372543E', symObjAddr: 0x7B60, symBinAddr: 0x48700, symSize: 0xD0 }
  - { offsetInCU: 0x1A1FF, offset: 0x141991, size: 0x8, addend: 0x0, symName: '__ZN4core3ptr65drop_in_place$LT$alloc..vec..Vec$LT$proc_macro..TokenTree$GT$$GT$17h79f3e7fd38303a81E', symObjAddr: 0x7C30, symBinAddr: 0x487D0, symSize: 0x110 }
  - { offsetInCU: 0x1A5F7, offset: 0x141D89, size: 0x8, addend: 0x0, symName: '__ZN4core3ptr65drop_in_place$LT$core..option..Option$LT$syn..expr..Label$GT$$GT$17hdc00345ddddbd974E', symObjAddr: 0x7D40, symBinAddr: 0x488E0, symSize: 0x30 }
  - { offsetInCU: 0x1A731, offset: 0x141EC3, size: 0x8, addend: 0x0, symName: '__ZN4core3ptr66drop_in_place$LT$core..option..Option$LT$syn..pat..PatRest$GT$$GT$17h167e885b89721015E', symObjAddr: 0x7D70, symBinAddr: 0x48910, symSize: 0xE0 }
  - { offsetInCU: 0x1AA25, offset: 0x1421B7, size: 0x8, addend: 0x0, symName: '__ZN4core3ptr67drop_in_place$LT$alloc..boxed..Box$LT$syn..expr..FieldValue$GT$$GT$17h35f55d2aea1459bfE', symObjAddr: 0x7E50, symBinAddr: 0x489F0, symSize: 0x140 }
  - { offsetInCU: 0x1AF79, offset: 0x14270B, size: 0x8, addend: 0x0, symName: '__ZN4core3ptr70drop_in_place$LT$core..option..Option$LT$syn..ty..BareVariadic$GT$$GT$17h7a7328bd70cf2580E', symObjAddr: 0x7F90, symBinAddr: 0x48B30, symSize: 0x100 }
  - { offsetInCU: 0x1B3B0, offset: 0x142B42, size: 0x8, addend: 0x0, symName: '__ZN4core3ptr72drop_in_place$LT$alloc..boxed..Box$LT$syn..path..GenericArgument$GT$$GT$17hd869661114e7eb2fE', symObjAddr: 0x8090, symBinAddr: 0x48C30, symSize: 0x2B0 }
  - { offsetInCU: 0x1BDC1, offset: 0x143553, size: 0x8, addend: 0x0, symName: '__ZN4core3ptr72drop_in_place$LT$core..option..Option$LT$syn..lifetime..Lifetime$GT$$GT$17h25f12c99b928716eE', symObjAddr: 0x8340, symBinAddr: 0x48EE0, symSize: 0x30 }
  - { offsetInCU: 0x1BEDC, offset: 0x14366E, size: 0x8, addend: 0x0, symName: '__ZN4core3ptr73drop_in_place$LT$alloc..boxed..Box$LT$syn..generics..GenericParam$GT$$GT$17h3f6e2a0b1d08d5d4E', symObjAddr: 0x8370, symBinAddr: 0x48F10, symSize: 0x80 }
  - { offsetInCU: 0x1C052, offset: 0x1437E4, size: 0x8, addend: 0x0, symName: '__ZN4core3ptr75drop_in_place$LT$alloc..boxed..Box$LT$syn..generics..TypeParamBound$GT$$GT$17hcb0f7ecb0cbe9c25E', symObjAddr: 0x83F0, symBinAddr: 0x48F90, symSize: 0x180 }
  - { offsetInCU: 0x1C63E, offset: 0x143DD0, size: 0x8, addend: 0x0, symName: '__ZN4core3ptr86drop_in_place$LT$syn..punctuated..Punctuated$LT$syn..pat..Pat$C$syn..token..Or$GT$$GT$17hbbaac93b620a59f0E', symObjAddr: 0x8570, symBinAddr: 0x49110, symSize: 0x120 }
  - { offsetInCU: 0x1CAB9, offset: 0x14424B, size: 0x8, addend: 0x0, symName: '__ZN4core3ptr87drop_in_place$LT$core..option..Option$LT$alloc..boxed..Box$LT$syn..pat..Pat$GT$$GT$$GT$17hda27f65557d8367dE', symObjAddr: 0x8690, symBinAddr: 0x49230, symSize: 0x50 }
  - { offsetInCU: 0x1CC29, offset: 0x1443BB, size: 0x8, addend: 0x0, symName: '__ZN4core3ptr87drop_in_place$LT$core..option..Option$LT$alloc..boxed..Box$LT$syn..ty..Type$GT$$GT$$GT$17h0861a3ec4fa6e258E', symObjAddr: 0x86E0, symBinAddr: 0x49280, symSize: 0x50 }
  - { offsetInCU: 0x1CD99, offset: 0x14452B, size: 0x8, addend: 0x0, symName: '__ZN4core3ptr89drop_in_place$LT$core..option..Option$LT$alloc..boxed..Box$LT$syn..expr..Expr$GT$$GT$$GT$17heab20deee7c3ee6dE', symObjAddr: 0x8730, symBinAddr: 0x492D0, symSize: 0x50 }
  - { offsetInCU: 0x1CF47, offset: 0x1446D9, size: 0x8, addend: 0x0, symName: '__ZN4core3ptr89drop_in_place$LT$syn..punctuated..Punctuated$LT$syn..pat..Pat$C$syn..token..Comma$GT$$GT$17hd3071c3e257d3ee3E', symObjAddr: 0x8780, symBinAddr: 0x49320, symSize: 0x120 }
  - { offsetInCU: 0x1D417, offset: 0x144BA9, size: 0x8, addend: 0x0, symName: '__ZN4core3ptr91drop_in_place$LT$syn..punctuated..Punctuated$LT$syn..expr..Expr$C$syn..token..Comma$GT$$GT$17h2f1f4ce24d410019E', symObjAddr: 0x88A0, symBinAddr: 0x49440, symSize: 0x120 }
  - { offsetInCU: 0x1D8A5, offset: 0x145037, size: 0x8, addend: 0x0, symName: '__ZN4core3ptr94drop_in_place$LT$syn..punctuated..Punctuated$LT$syn..pat..FieldPat$C$syn..token..Comma$GT$$GT$17h4738c9f46215af09E', symObjAddr: 0x89C0, symBinAddr: 0x49560, symSize: 0xF0 }
  - { offsetInCU: 0x1DBA4, offset: 0x145336, size: 0x8, addend: 0x0, symName: '__ZN4core3ptr94drop_in_place$LT$syn..punctuated..Punctuated$LT$syn..ty..BareFnArg$C$syn..token..Comma$GT$$GT$17h6441ee8ed369fbe8E', symObjAddr: 0x8AB0, symBinAddr: 0x49650, symSize: 0xF0 }
  - { offsetInCU: 0x1DEA5, offset: 0x145637, size: 0x8, addend: 0x0, symName: '__ZN4core3ptr96drop_in_place$LT$core..option..Option$LT$alloc..boxed..Box$LT$syn..path..PathSegment$GT$$GT$$GT$17hc38badba6091c6d8E', symObjAddr: 0x8BA0, symBinAddr: 0x49740, symSize: 0x1A0 }
  - { offsetInCU: 0x1E566, offset: 0x145CF8, size: 0x8, addend: 0x0, symName: '__ZN4core3ptr97drop_in_place$LT$syn..punctuated..Punctuated$LT$syn..expr..FieldValue$C$syn..token..Comma$GT$$GT$17h163154fb91ad56d1E', symObjAddr: 0x8D40, symBinAddr: 0x498E0, symSize: 0xF0 }
  - { offsetInCU: 0x1E8DF, offset: 0x146071, size: 0x8, addend: 0x0, symName: '__ZN4core3ptr98drop_in_place$LT$syn..punctuated..Punctuated$LT$syn..lifetime..Lifetime$C$syn..token..Plus$GT$$GT$17h86851af115fa534bE', symObjAddr: 0x8E30, symBinAddr: 0x499D0, symSize: 0xD0 }
  - { offsetInCU: 0x1F3C5, offset: 0x146B57, size: 0x8, addend: 0x0, symName: '__ZN53_$LT$core..fmt..Error$u20$as$u20$core..fmt..Debug$GT$3fmt17h03dc662ab152f3aeE', symObjAddr: 0x8F00, symBinAddr: 0x49AA0, symSize: 0x20 }
  - { offsetInCU: 0x1F413, offset: 0x146BA5, size: 0x8, addend: 0x0, symName: '__ZN102_$LT$core..iter..adapters..map..Map$LT$I$C$F$GT$$u20$as$u20$core..iter..traits..iterator..Iterator$GT$8try_fold17h3d074fe7c398d05dE', symObjAddr: 0xA0, symBinAddr: 0x40C40, symSize: 0xB10 }
  - { offsetInCU: 0x21A24, offset: 0x1491B6, size: 0x8, addend: 0x0, symName: '__ZN102_$LT$core..iter..adapters..map..Map$LT$I$C$F$GT$$u20$as$u20$core..iter..traits..iterator..Iterator$GT$8try_fold17h7da0b894a651f90cE', symObjAddr: 0xBB0, symBinAddr: 0x41750, symSize: 0x990 }
  - { offsetInCU: 0x23162, offset: 0x14A8F4, size: 0x8, addend: 0x0, symName: '__ZN102_$LT$core..iter..adapters..map..Map$LT$I$C$F$GT$$u20$as$u20$core..iter..traits..iterator..Iterator$GT$8try_fold17hd653fe84e59c159cE', symObjAddr: 0x1540, symBinAddr: 0x420E0, symSize: 0x970 }
  - { offsetInCU: 0x24869, offset: 0x14BFFB, size: 0x8, addend: 0x0, symName: '__ZN102_$LT$core..iter..adapters..map..Map$LT$I$C$F$GT$$u20$as$u20$core..iter..traits..iterator..Iterator$GT$8try_fold17hf980a227d96ac983E', symObjAddr: 0x1EB0, symBinAddr: 0x42A50, symSize: 0x1E0 }
  - { offsetInCU: 0x1ADA, offset: 0x15CCEA, size: 0x8, addend: 0x0, symName: '__ZN4core3ptr100drop_in_place$LT$core..option..Option$LT$alloc..boxed..Box$LT$syn..path..GenericArgument$GT$$GT$$GT$17hb5a67e4079e7919fE', symObjAddr: 0xA0, symBinAddr: 0x49C60, symSize: 0x50 }
  - { offsetInCU: 0x1E78, offset: 0x15D088, size: 0x8, addend: 0x0, symName: '__ZN4core3ptr100drop_in_place$LT$syn..punctuated..Punctuated$LT$syn..path..PathSegment$C$syn..token..PathSep$GT$$GT$17h6b8714b021672400E', symObjAddr: 0xF0, symBinAddr: 0x49CB0, symSize: 0x270 }
  - { offsetInCU: 0x281B, offset: 0x15DA2B, size: 0x8, addend: 0x0, symName: '__ZN4core3ptr103drop_in_place$LT$core..option..Option$LT$alloc..boxed..Box$LT$syn..generics..TypeParamBound$GT$$GT$$GT$17hdfcf4360b16eebfbE', symObjAddr: 0x360, symBinAddr: 0x49F20, symSize: 0x50 }
  - { offsetInCU: 0x29AA, offset: 0x15DBBA, size: 0x8, addend: 0x0, symName: '__ZN4core3ptr103drop_in_place$LT$core..option..Option$LT$alloc..boxed..Box$LT$syn..generics..WherePredicate$GT$$GT$$GT$17h691b9cfb56ca2c5eE.llvm.4991154266411287512', symObjAddr: 0x3B0, symBinAddr: 0x49F70, symSize: 0x50 }
  - { offsetInCU: 0x2BA8, offset: 0x15DDB8, size: 0x8, addend: 0x0, symName: '__ZN4core3ptr103drop_in_place$LT$syn..punctuated..Punctuated$LT$syn..generics..GenericParam$C$syn..token..Comma$GT$$GT$17h93670e6688afe9d4E.llvm.4991154266411287512', symObjAddr: 0x400, symBinAddr: 0x49FC0, symSize: 0xF0 }
  - { offsetInCU: 0x30C2, offset: 0x15E2D2, size: 0x8, addend: 0x0, symName: '__ZN4core3ptr104drop_in_place$LT$syn..punctuated..Punctuated$LT$syn..generics..TypeParamBound$C$syn..token..Plus$GT$$GT$17h890bf6e730b9f26fE.llvm.4991154266411287512', symObjAddr: 0x4F0, symBinAddr: 0x4A0B0, symSize: 0x240 }
  - { offsetInCU: 0x399C, offset: 0x15EBAC, size: 0x8, addend: 0x0, symName: '__ZN4core3ptr105drop_in_place$LT$syn..punctuated..Punctuated$LT$syn..generics..WherePredicate$C$syn..token..Comma$GT$$GT$17h153e3fb43ee38d46E.llvm.4991154266411287512', symObjAddr: 0x730, symBinAddr: 0x4A2F0, symSize: 0xB0 }
  - { offsetInCU: 0x3E07, offset: 0x15F017, size: 0x8, addend: 0x0, symName: '__ZN4core3ptr34drop_in_place$LT$syn..lit..Lit$GT$17h6e21d94489882724E', symObjAddr: 0x7E0, symBinAddr: 0x4A3A0, symSize: 0x120 }
  - { offsetInCU: 0x42D6, offset: 0x15F4E6, size: 0x8, addend: 0x0, symName: '__ZN4core3ptr34drop_in_place$LT$syn..pat..Pat$GT$17h12af3a77ec5e4c06E', symObjAddr: 0x900, symBinAddr: 0x4A4C0, symSize: 0x1090 }
  - { offsetInCU: 0x82D6, offset: 0x1634E6, size: 0x8, addend: 0x0, symName: '__ZN4core3ptr34drop_in_place$LT$syn..ty..Type$GT$17h03ec94c8bf6d8c4bE.llvm.4991154266411287512', symObjAddr: 0x1990, symBinAddr: 0x4B550, symSize: 0x4F0 }
  - { offsetInCU: 0x9819, offset: 0x164A29, size: 0x8, addend: 0x0, symName: '__ZN4core3ptr36drop_in_place$LT$syn..expr..Expr$GT$17hbf6e9783b008b839E', symObjAddr: 0x1E80, symBinAddr: 0x4BA40, symSize: 0x27D0 }
  - { offsetInCU: 0x12F4D, offset: 0x16E15D, size: 0x8, addend: 0x0, symName: '__ZN4core3ptr36drop_in_place$LT$syn..mac..Macro$GT$17hb7d376e8ff250e1eE', symObjAddr: 0x4650, symBinAddr: 0x4E210, symSize: 0x40 }
  - { offsetInCU: 0x12F87, offset: 0x16E197, size: 0x8, addend: 0x0, symName: '__ZN4core3ptr36drop_in_place$LT$syn..path..Path$GT$17h72ec20184e102e8fE.llvm.4991154266411287512', symObjAddr: 0x4690, symBinAddr: 0x4E250, symSize: 0x240 }
  - { offsetInCU: 0x1399D, offset: 0x16EBAD, size: 0x8, addend: 0x0, symName: '__ZN4core3ptr37drop_in_place$LT$syn..data..Field$GT$17h52fc657762c275a2E.llvm.4991154266411287512', symObjAddr: 0x48D0, symBinAddr: 0x4E490, symSize: 0x180 }
  - { offsetInCU: 0x13EDF, offset: 0x16F0EF, size: 0x8, addend: 0x0, symName: '__ZN4core3ptr37drop_in_place$LT$syn..stmt..Block$GT$17h51c74ef5625755b3E', symObjAddr: 0x4A50, symBinAddr: 0x4E610, symSize: 0xD0 }
  - { offsetInCU: 0x141B6, offset: 0x16F3C6, size: 0x8, addend: 0x0, symName: '__ZN4core3ptr39drop_in_place$LT$proc_macro2..Ident$GT$17h99f97753d3a4af38E', symObjAddr: 0x4B20, symBinAddr: 0x4E6E0, symSize: 0x30 }
  - { offsetInCU: 0x14293, offset: 0x16F4A3, size: 0x8, addend: 0x0, symName: '__ZN4core3ptr40drop_in_place$LT$syn..ty..ReturnType$GT$17hfd7f794d059fb3d2E', symObjAddr: 0x4B50, symBinAddr: 0x4E710, symSize: 0x50 }
  - { offsetInCU: 0x14403, offset: 0x16F613, size: 0x8, addend: 0x0, symName: '__ZN4core3ptr41drop_in_place$LT$syn..expr..ExprConst$GT$17hb3de85d21851b870E', symObjAddr: 0x4BA0, symBinAddr: 0x4E760, symSize: 0x180 }
  - { offsetInCU: 0x14AF2, offset: 0x16FD02, size: 0x8, addend: 0x0, symName: '__ZN4core3ptr43drop_in_place$LT$proc_macro2..TokenTree$GT$17hf517ccc1b5a9dc4aE.llvm.4991154266411287512', symObjAddr: 0x4D20, symBinAddr: 0x4E8E0, symSize: 0xB0 }
  - { offsetInCU: 0x14E4D, offset: 0x17005D, size: 0x8, addend: 0x0, symName: '__ZN4core3ptr44drop_in_place$LT$syn..lifetime..Lifetime$GT$17hb07dd50c5955fb35E', symObjAddr: 0x4DD0, symBinAddr: 0x4E990, symSize: 0x30 }
  - { offsetInCU: 0x14FE4, offset: 0x1701F4, size: 0x8, addend: 0x0, symName: '__ZN4core3ptr45drop_in_place$LT$proc_macro2..TokenStream$GT$17h5362bc4cba28da63E', symObjAddr: 0x4E00, symBinAddr: 0x4E9C0, symSize: 0x140 }
  - { offsetInCU: 0x1547E, offset: 0x17068E, size: 0x8, addend: 0x0, symName: '__ZN4core3ptr45drop_in_place$LT$syn..generics..TypeParam$GT$17hc7ad554d9eeeebceE.llvm.4991154266411287512', symObjAddr: 0x4F40, symBinAddr: 0x4EB00, symSize: 0x230 }
  - { offsetInCU: 0x15CBF, offset: 0x170ECF, size: 0x8, addend: 0x0, symName: '__ZN4core3ptr46drop_in_place$LT$syn..generics..ConstParam$GT$17h27b4e0dc162bd1d1E.llvm.4991154266411287512', symObjAddr: 0x5170, symBinAddr: 0x4ED30, symSize: 0x150 }
  - { offsetInCU: 0x1610C, offset: 0x17131C, size: 0x8, addend: 0x0, symName: '__ZN4core3ptr47drop_in_place$LT$syn..path..GenericArgument$GT$17hbbd563ff98e9beecE', symObjAddr: 0x52C0, symBinAddr: 0x4EE80, symSize: 0x4A0 }
  - { offsetInCU: 0x17212, offset: 0x172422, size: 0x8, addend: 0x0, symName: '__ZN4core3ptr49drop_in_place$LT$syn..generics..LifetimeParam$GT$17h217bc35af328a5a0E.llvm.4991154266411287512', symObjAddr: 0x5760, symBinAddr: 0x4F320, symSize: 0xF0 }
  - { offsetInCU: 0x175F5, offset: 0x172805, size: 0x8, addend: 0x0, symName: '__ZN4core3ptr49drop_in_place$LT$syn..restriction..Visibility$GT$17hd5d254cf61929f27E.llvm.4991154266411287512', symObjAddr: 0x5850, symBinAddr: 0x4F410, symSize: 0x60 }
  - { offsetInCU: 0x17766, offset: 0x172976, size: 0x8, addend: 0x0, symName: '__ZN4core3ptr50drop_in_place$LT$syn..generics..TypeParamBound$GT$17h8625d3fe1e19312aE', symObjAddr: 0x58B0, symBinAddr: 0x4F470, symSize: 0xA0 }
  - { offsetInCU: 0x1790A, offset: 0x172B1A, size: 0x8, addend: 0x0, symName: '__ZN4core3ptr50drop_in_place$LT$syn..generics..WherePredicate$GT$17hd291954f64354b17E.llvm.4991154266411287512', symObjAddr: 0x5950, symBinAddr: 0x4F510, symSize: 0xA0 }
  - { offsetInCU: 0x17AAE, offset: 0x172CBE, size: 0x8, addend: 0x0, symName: '__ZN4core3ptr58drop_in_place$LT$alloc..vec..Vec$LT$syn..expr..Arm$GT$$GT$17h05ff2414ffa1123bE', symObjAddr: 0x59F0, symBinAddr: 0x4F5B0, symSize: 0xD0 }
  - { offsetInCU: 0x17D6E, offset: 0x172F7E, size: 0x8, addend: 0x0, symName: '__ZN4core3ptr59drop_in_place$LT$alloc..boxed..Box$LT$syn..pat..Pat$GT$$GT$17hb7c93ec8e1c96643E', symObjAddr: 0x5AC0, symBinAddr: 0x4F680, symSize: 0x50 }
  - { offsetInCU: 0x17EC7, offset: 0x1730D7, size: 0x8, addend: 0x0, symName: '__ZN4core3ptr59drop_in_place$LT$alloc..boxed..Box$LT$syn..ty..Type$GT$$GT$17hb95b5ff5597f137cE', symObjAddr: 0x5B10, symBinAddr: 0x4F6D0, symSize: 0x50 }
  - { offsetInCU: 0x18020, offset: 0x173230, size: 0x8, addend: 0x0, symName: '__ZN4core3ptr61drop_in_place$LT$alloc..boxed..Box$LT$syn..expr..Expr$GT$$GT$17h9491aa3708e9ad9dE', symObjAddr: 0x5B60, symBinAddr: 0x4F720, symSize: 0x50 }
  - { offsetInCU: 0x181F5, offset: 0x173405, size: 0x8, addend: 0x0, symName: '__ZN4core3ptr61drop_in_place$LT$syn..path..ParenthesizedGenericArguments$GT$17h91b81dde2975a31fE', symObjAddr: 0x5BB0, symBinAddr: 0x4F770, symSize: 0x170 }
  - { offsetInCU: 0x187EB, offset: 0x1739FB, size: 0x8, addend: 0x0, symName: '__ZN4core3ptr62drop_in_place$LT$syn..path..AngleBracketedGenericArguments$GT$17h29bacf499fafc34bE', symObjAddr: 0x5D20, symBinAddr: 0x4F8E0, symSize: 0x120 }
  - { offsetInCU: 0x18C36, offset: 0x173E46, size: 0x8, addend: 0x0, symName: '__ZN4core3ptr63drop_in_place$LT$alloc..boxed..Box$LT$syn..lit..LitRepr$GT$$GT$17hcfa95594142fffd5E', symObjAddr: 0x5E40, symBinAddr: 0x4FA00, symSize: 0x60 }
  - { offsetInCU: 0x18F3D, offset: 0x17414D, size: 0x8, addend: 0x0, symName: '__ZN4core3ptr64drop_in_place$LT$alloc..boxed..Box$LT$syn..pat..FieldPat$GT$$GT$17he472a16cb1d8da57E', symObjAddr: 0x5EA0, symBinAddr: 0x4FA60, symSize: 0x140 }
  - { offsetInCU: 0x1960A, offset: 0x17481A, size: 0x8, addend: 0x0, symName: '__ZN4core3ptr64drop_in_place$LT$alloc..boxed..Box$LT$syn..ty..BareFnArg$GT$$GT$17haa798ceb4d63d514E', symObjAddr: 0x5FE0, symBinAddr: 0x4FBA0, symSize: 0x140 }
  - { offsetInCU: 0x19B5F, offset: 0x174D6F, size: 0x8, addend: 0x0, symName: '__ZN4core3ptr65drop_in_place$LT$alloc..vec..Vec$LT$proc_macro..TokenTree$GT$$GT$17h79f3e7fd38303a81E', symObjAddr: 0x6120, symBinAddr: 0x4FCE0, symSize: 0x110 }
  - { offsetInCU: 0x19F57, offset: 0x175167, size: 0x8, addend: 0x0, symName: '__ZN4core3ptr65drop_in_place$LT$core..option..Option$LT$syn..expr..Label$GT$$GT$17hdc00345ddddbd974E', symObjAddr: 0x6230, symBinAddr: 0x4FDF0, symSize: 0x30 }
  - { offsetInCU: 0x1A091, offset: 0x1752A1, size: 0x8, addend: 0x0, symName: '__ZN4core3ptr66drop_in_place$LT$core..option..Option$LT$syn..pat..PatRest$GT$$GT$17h167e885b89721015E', symObjAddr: 0x6260, symBinAddr: 0x4FE20, symSize: 0xE0 }
  - { offsetInCU: 0x1A385, offset: 0x175595, size: 0x8, addend: 0x0, symName: '__ZN4core3ptr67drop_in_place$LT$alloc..boxed..Box$LT$syn..expr..FieldValue$GT$$GT$17h35f55d2aea1459bfE', symObjAddr: 0x6340, symBinAddr: 0x4FF00, symSize: 0x140 }
  - { offsetInCU: 0x1A8BA, offset: 0x175ACA, size: 0x8, addend: 0x0, symName: '__ZN4core3ptr67drop_in_place$LT$core..option..Option$LT$proc_macro2..Ident$GT$$GT$17h4f4b1dfb604dd237E.llvm.4991154266411287512', symObjAddr: 0x6480, symBinAddr: 0x50040, symSize: 0x30 }
  - { offsetInCU: 0x1A9B6, offset: 0x175BC6, size: 0x8, addend: 0x0, symName: '__ZN4core3ptr68drop_in_place$LT$alloc..boxed..Box$LT$syn..path..PathSegment$GT$$GT$17hd508f81b8f7a2e78E', symObjAddr: 0x64B0, symBinAddr: 0x50070, symSize: 0x1B0 }
  - { offsetInCU: 0x1B0C4, offset: 0x1762D4, size: 0x8, addend: 0x0, symName: '__ZN4core3ptr70drop_in_place$LT$core..option..Option$LT$syn..ty..BareVariadic$GT$$GT$17h7a7328bd70cf2580E', symObjAddr: 0x6660, symBinAddr: 0x50220, symSize: 0x100 }
  - { offsetInCU: 0x1B4FB, offset: 0x17670B, size: 0x8, addend: 0x0, symName: '__ZN4core3ptr72drop_in_place$LT$alloc..boxed..Box$LT$syn..path..GenericArgument$GT$$GT$17hd869661114e7eb2fE', symObjAddr: 0x6760, symBinAddr: 0x50320, symSize: 0x2B0 }
  - { offsetInCU: 0x1BEB3, offset: 0x1770C3, size: 0x8, addend: 0x0, symName: '__ZN4core3ptr72drop_in_place$LT$core..option..Option$LT$syn..lifetime..Lifetime$GT$$GT$17h25f12c99b928716eE', symObjAddr: 0x6A10, symBinAddr: 0x505D0, symSize: 0x30 }
  - { offsetInCU: 0x1BFCE, offset: 0x1771DE, size: 0x8, addend: 0x0, symName: '__ZN4core3ptr73drop_in_place$LT$alloc..boxed..Box$LT$syn..generics..GenericParam$GT$$GT$17h3f6e2a0b1d08d5d4E.llvm.4991154266411287512', symObjAddr: 0x6A40, symBinAddr: 0x50600, symSize: 0x80 }
  - { offsetInCU: 0x1C144, offset: 0x177354, size: 0x8, addend: 0x0, symName: '__ZN4core3ptr75drop_in_place$LT$alloc..boxed..Box$LT$syn..generics..TypeParamBound$GT$$GT$17hcb0f7ecb0cbe9c25E', symObjAddr: 0x6AC0, symBinAddr: 0x50680, symSize: 0x180 }
  - { offsetInCU: 0x1C730, offset: 0x177940, size: 0x8, addend: 0x0, symName: '__ZN4core3ptr86drop_in_place$LT$syn..punctuated..Punctuated$LT$syn..pat..Pat$C$syn..token..Or$GT$$GT$17hbbaac93b620a59f0E', symObjAddr: 0x6C40, symBinAddr: 0x50800, symSize: 0x120 }
  - { offsetInCU: 0x1CBAB, offset: 0x177DBB, size: 0x8, addend: 0x0, symName: '__ZN4core3ptr87drop_in_place$LT$core..option..Option$LT$alloc..boxed..Box$LT$syn..pat..Pat$GT$$GT$$GT$17hda27f65557d8367dE', symObjAddr: 0x6D60, symBinAddr: 0x50920, symSize: 0x50 }
  - { offsetInCU: 0x1CD1B, offset: 0x177F2B, size: 0x8, addend: 0x0, symName: '__ZN4core3ptr87drop_in_place$LT$core..option..Option$LT$alloc..boxed..Box$LT$syn..ty..Type$GT$$GT$$GT$17h0861a3ec4fa6e258E', symObjAddr: 0x6DB0, symBinAddr: 0x50970, symSize: 0x50 }
  - { offsetInCU: 0x1CE8B, offset: 0x17809B, size: 0x8, addend: 0x0, symName: '__ZN4core3ptr89drop_in_place$LT$core..option..Option$LT$alloc..boxed..Box$LT$syn..expr..Expr$GT$$GT$$GT$17heab20deee7c3ee6dE', symObjAddr: 0x6E00, symBinAddr: 0x509C0, symSize: 0x50 }
  - { offsetInCU: 0x1D039, offset: 0x178249, size: 0x8, addend: 0x0, symName: '__ZN4core3ptr89drop_in_place$LT$syn..punctuated..Punctuated$LT$syn..pat..Pat$C$syn..token..Comma$GT$$GT$17hd3071c3e257d3ee3E', symObjAddr: 0x6E50, symBinAddr: 0x50A10, symSize: 0x120 }
  - { offsetInCU: 0x1D4CB, offset: 0x1786DB, size: 0x8, addend: 0x0, symName: '__ZN4core3ptr89drop_in_place$LT$syn..punctuated..Punctuated$LT$syn..ty..Type$C$syn..token..Comma$GT$$GT$17h1894de61a59af999E', symObjAddr: 0x6F70, symBinAddr: 0x50B30, symSize: 0x120 }
  - { offsetInCU: 0x1D946, offset: 0x178B56, size: 0x8, addend: 0x0, symName: '__ZN4core3ptr90drop_in_place$LT$core..option..Option$LT$syn..path..AngleBracketedGenericArguments$GT$$GT$17hdef236189643d6dbE', symObjAddr: 0x7090, symBinAddr: 0x50C50, symSize: 0x130 }
  - { offsetInCU: 0x1DDE8, offset: 0x178FF8, size: 0x8, addend: 0x0, symName: '__ZN4core3ptr91drop_in_place$LT$syn..punctuated..Punctuated$LT$syn..expr..Expr$C$syn..token..Comma$GT$$GT$17h2f1f4ce24d410019E', symObjAddr: 0x71C0, symBinAddr: 0x50D80, symSize: 0x120 }
  - { offsetInCU: 0x1E276, offset: 0x179486, size: 0x8, addend: 0x0, symName: '__ZN4core3ptr94drop_in_place$LT$syn..punctuated..Punctuated$LT$syn..pat..FieldPat$C$syn..token..Comma$GT$$GT$17h4738c9f46215af09E', symObjAddr: 0x72E0, symBinAddr: 0x50EA0, symSize: 0xF0 }
  - { offsetInCU: 0x1E575, offset: 0x179785, size: 0x8, addend: 0x0, symName: '__ZN4core3ptr94drop_in_place$LT$syn..punctuated..Punctuated$LT$syn..ty..BareFnArg$C$syn..token..Comma$GT$$GT$17h6441ee8ed369fbe8E', symObjAddr: 0x73D0, symBinAddr: 0x50F90, symSize: 0xF0 }
  - { offsetInCU: 0x1E876, offset: 0x179A86, size: 0x8, addend: 0x0, symName: '__ZN4core3ptr96drop_in_place$LT$core..option..Option$LT$alloc..boxed..Box$LT$syn..path..PathSegment$GT$$GT$$GT$17hc38badba6091c6d8E', symObjAddr: 0x74C0, symBinAddr: 0x51080, symSize: 0xA0 }
  - { offsetInCU: 0x1EB14, offset: 0x179D24, size: 0x8, addend: 0x0, symName: '__ZN4core3ptr97drop_in_place$LT$syn..punctuated..Punctuated$LT$syn..expr..FieldValue$C$syn..token..Comma$GT$$GT$17h163154fb91ad56d1E', symObjAddr: 0x75B0, symBinAddr: 0x51120, symSize: 0xF0 }
  - { offsetInCU: 0x1EE11, offset: 0x17A021, size: 0x8, addend: 0x0, symName: '__ZN4core3ptr98drop_in_place$LT$alloc..vec..Vec$LT$$LP$syn..path..GenericArgument$C$syn..token..Comma$RP$$GT$$GT$17h374bd21798875d9aE', symObjAddr: 0x76A0, symBinAddr: 0x51210, symSize: 0xD0 }
  - { offsetInCU: 0x1F132, offset: 0x17A342, size: 0x8, addend: 0x0, symName: '__ZN4core3ptr98drop_in_place$LT$syn..punctuated..Punctuated$LT$syn..lifetime..Lifetime$C$syn..token..Plus$GT$$GT$17h86851af115fa534bE.llvm.4991154266411287512', symObjAddr: 0x7770, symBinAddr: 0x512E0, symSize: 0xD0 }
  - { offsetInCU: 0x274C8, offset: 0x1826D8, size: 0x8, addend: 0x0, symName: '__ZN86_$LT$alloc..vec..into_iter..IntoIter$LT$T$C$A$GT$$u20$as$u20$core..ops..drop..Drop$GT$4drop17h2a7859531f8ef212E', symObjAddr: 0x7840, symBinAddr: 0x513B0, symSize: 0xF0 }
  - { offsetInCU: 0x27836, offset: 0x182A46, size: 0x8, addend: 0x0, symName: '__ZN86_$LT$alloc..vec..into_iter..IntoIter$LT$T$C$A$GT$$u20$as$u20$core..ops..drop..Drop$GT$4drop17h310f7f0f703ed14dE', symObjAddr: 0x7930, symBinAddr: 0x514A0, symSize: 0x110 }
  - { offsetInCU: 0x27C2D, offset: 0x182E3D, size: 0x8, addend: 0x0, symName: '__ZN86_$LT$alloc..vec..into_iter..IntoIter$LT$T$C$A$GT$$u20$as$u20$core..ops..drop..Drop$GT$4drop17h8dfd7ced3f1513e6E', symObjAddr: 0x7A40, symBinAddr: 0x515B0, symSize: 0xF0 }
  - { offsetInCU: 0x27F9B, offset: 0x1831AB, size: 0x8, addend: 0x0, symName: '__ZN86_$LT$alloc..vec..into_iter..IntoIter$LT$T$C$A$GT$$u20$as$u20$core..ops..drop..Drop$GT$4drop17ha2f5405310f21f24E', symObjAddr: 0x7B30, symBinAddr: 0x516A0, symSize: 0xF0 }
  - { offsetInCU: 0x28341, offset: 0x183551, size: 0x8, addend: 0x0, symName: '__ZN86_$LT$alloc..vec..into_iter..IntoIter$LT$T$C$A$GT$$u20$as$u20$core..ops..drop..Drop$GT$4drop17he15af3fa3518c742E', symObjAddr: 0x7C20, symBinAddr: 0x51790, symSize: 0xD0 }
  - { offsetInCU: 0x286AC, offset: 0x1838BC, size: 0x8, addend: 0x0, symName: '__ZN86_$LT$alloc..vec..into_iter..IntoIter$LT$T$C$A$GT$$u20$as$u20$core..ops..drop..Drop$GT$4drop17hed5ea1d7d9e67908E', symObjAddr: 0x7CF0, symBinAddr: 0x51860, symSize: 0xCD }
  - { offsetInCU: 0x1E, offset: 0x188B20, size: 0x8, addend: 0x0, symName: '__ZN40_$LT$F$u20$as$u20$syn..parse..Parser$GT$14__parse_scoped17h508a882ce0ee1f84E', symObjAddr: 0x0, symBinAddr: 0x51930, symSize: 0x380 }
  - { offsetInCU: 0x1CC7, offset: 0x18A7C9, size: 0x8, addend: 0x0, symName: '__ZN4core3ptr100drop_in_place$LT$core..option..Option$LT$alloc..boxed..Box$LT$syn..path..GenericArgument$GT$$GT$$GT$17hb5a67e4079e7919fE', symObjAddr: 0xEE0, symBinAddr: 0x52810, symSize: 0x50 }
  - { offsetInCU: 0x1E94, offset: 0x18A996, size: 0x8, addend: 0x0, symName: '__ZN4core3ptr102drop_in_place$LT$syn..punctuated..Punctuated$LT$syn..path..GenericArgument$C$syn..token..Comma$GT$$GT$17hd8c171c87cfb4313E', symObjAddr: 0xF30, symBinAddr: 0x52860, symSize: 0xF0 }
  - { offsetInCU: 0x21B4, offset: 0x18ACB6, size: 0x8, addend: 0x0, symName: '__ZN4core3ptr103drop_in_place$LT$core..option..Option$LT$alloc..boxed..Box$LT$syn..generics..TypeParamBound$GT$$GT$$GT$17hdfcf4360b16eebfbE', symObjAddr: 0x1020, symBinAddr: 0x52950, symSize: 0x50 }
  - { offsetInCU: 0x2479, offset: 0x18AF7B, size: 0x8, addend: 0x0, symName: '__ZN4core3ptr103drop_in_place$LT$core..option..Option$LT$alloc..boxed..Box$LT$syn..generics..WherePredicate$GT$$GT$$GT$17h691b9cfb56ca2c5eE', symObjAddr: 0x1070, symBinAddr: 0x529A0, symSize: 0xD0 }
  - { offsetInCU: 0x280D, offset: 0x18B30F, size: 0x8, addend: 0x0, symName: '__ZN4core3ptr103drop_in_place$LT$syn..punctuated..Punctuated$LT$syn..generics..GenericParam$C$syn..token..Comma$GT$$GT$17h93670e6688afe9d4E', symObjAddr: 0x1140, symBinAddr: 0x52A70, symSize: 0xF0 }
  - { offsetInCU: 0x2D08, offset: 0x18B80A, size: 0x8, addend: 0x0, symName: '__ZN4core3ptr104drop_in_place$LT$syn..punctuated..Punctuated$LT$syn..generics..TypeParamBound$C$syn..token..Plus$GT$$GT$17h890bf6e730b9f26fE', symObjAddr: 0x1230, symBinAddr: 0x52B60, symSize: 0x240 }
  - { offsetInCU: 0x363F, offset: 0x18C141, size: 0x8, addend: 0x0, symName: '__ZN4core3ptr34drop_in_place$LT$syn..lit..Lit$GT$17h6e21d94489882724E', symObjAddr: 0x1470, symBinAddr: 0x52DA0, symSize: 0x120 }
  - { offsetInCU: 0x3B2D, offset: 0x18C62F, size: 0x8, addend: 0x0, symName: '__ZN4core3ptr34drop_in_place$LT$syn..pat..Pat$GT$17h12af3a77ec5e4c06E', symObjAddr: 0x1590, symBinAddr: 0x52EC0, symSize: 0xF40 }
  - { offsetInCU: 0x75F3, offset: 0x1900F5, size: 0x8, addend: 0x0, symName: '__ZN4core3ptr34drop_in_place$LT$syn..ty..Type$GT$17h03ec94c8bf6d8c4bE', symObjAddr: 0x24D0, symBinAddr: 0x53E00, symSize: 0x580 }
  - { offsetInCU: 0x8E7C, offset: 0x19197E, size: 0x8, addend: 0x0, symName: '__ZN4core3ptr36drop_in_place$LT$syn..expr..Expr$GT$17hbf6e9783b008b839E', symObjAddr: 0x2A50, symBinAddr: 0x54380, symSize: 0x2730 }
  - { offsetInCU: 0x122DC, offset: 0x19ADDE, size: 0x8, addend: 0x0, symName: '__ZN4core3ptr36drop_in_place$LT$syn..mac..Macro$GT$17hb7d376e8ff250e1eE', symObjAddr: 0x5180, symBinAddr: 0x56AB0, symSize: 0xE0 }
  - { offsetInCU: 0x12666, offset: 0x19B168, size: 0x8, addend: 0x0, symName: '__ZN4core3ptr36drop_in_place$LT$syn..path..Path$GT$17h72ec20184e102e8fE', symObjAddr: 0x5260, symBinAddr: 0x56B90, symSize: 0x240 }
  - { offsetInCU: 0x13000, offset: 0x19BB02, size: 0x8, addend: 0x0, symName: '__ZN4core3ptr37drop_in_place$LT$syn..stmt..Block$GT$17h51c74ef5625755b3E', symObjAddr: 0x54A0, symBinAddr: 0x56DD0, symSize: 0xD0 }
  - { offsetInCU: 0x13372, offset: 0x19BE74, size: 0x8, addend: 0x0, symName: '__ZN4core3ptr38drop_in_place$LT$syn..data..Fields$GT$17hf911f4ca325547e6E', symObjAddr: 0x5570, symBinAddr: 0x56EA0, symSize: 0x190 }
  - { offsetInCU: 0x13876, offset: 0x19C378, size: 0x8, addend: 0x0, symName: '__ZN4core3ptr38drop_in_place$LT$syn..derive..Data$GT$17hd8ade54b020cd8c3E', symObjAddr: 0x5700, symBinAddr: 0x57030, symSize: 0x1D0 }
  - { offsetInCU: 0x13F1C, offset: 0x19CA1E, size: 0x8, addend: 0x0, symName: '__ZN4core3ptr38drop_in_place$LT$syn..expr..Member$GT$17h8c060e1cf0c3bf66E', symObjAddr: 0x58D0, symBinAddr: 0x57200, symSize: 0x30 }
  - { offsetInCU: 0x14018, offset: 0x19CB1A, size: 0x8, addend: 0x0, symName: '__ZN4core3ptr39drop_in_place$LT$proc_macro2..Ident$GT$17h99f97753d3a4af38E', symObjAddr: 0x5900, symBinAddr: 0x57230, symSize: 0x30 }
  - { offsetInCU: 0x1422B, offset: 0x19CD2D, size: 0x8, addend: 0x0, symName: '__ZN4core3ptr39drop_in_place$LT$syn..buffer..Entry$GT$17h61a159652b737e43E', symObjAddr: 0x5930, symBinAddr: 0x57260, symSize: 0xB0 }
  - { offsetInCU: 0x145B6, offset: 0x19D0B8, size: 0x8, addend: 0x0, symName: '__ZN4core3ptr40drop_in_place$LT$syn..ty..ReturnType$GT$17hfd7f794d059fb3d2E', symObjAddr: 0x59E0, symBinAddr: 0x57310, symSize: 0x50 }
  - { offsetInCU: 0x14726, offset: 0x19D228, size: 0x8, addend: 0x0, symName: '__ZN4core3ptr41drop_in_place$LT$syn..expr..ExprConst$GT$17hb3de85d21851b870E', symObjAddr: 0x5A30, symBinAddr: 0x57360, symSize: 0x180 }
  - { offsetInCU: 0x14CDF, offset: 0x19D7E1, size: 0x8, addend: 0x0, symName: '__ZN4core3ptr44drop_in_place$LT$syn..generics..Generics$GT$17hd02b1baa30b9147cE', symObjAddr: 0x5BB0, symBinAddr: 0x574E0, symSize: 0x40 }
  - { offsetInCU: 0x14CFC, offset: 0x19D7FE, size: 0x8, addend: 0x0, symName: '__ZN4core3ptr44drop_in_place$LT$syn..lifetime..Lifetime$GT$17hb07dd50c5955fb35E', symObjAddr: 0x5BF0, symBinAddr: 0x57520, symSize: 0x30 }
  - { offsetInCU: 0x14DF8, offset: 0x19D8FA, size: 0x8, addend: 0x0, symName: '__ZN4core3ptr44drop_in_place$LT$syn..parse..ParseBuffer$GT$17h414ae3203566f226E', symObjAddr: 0x5C20, symBinAddr: 0x57550, symSize: 0x70 }
  - { offsetInCU: 0x15174, offset: 0x19DC76, size: 0x8, addend: 0x0, symName: '__ZN4core3ptr45drop_in_place$LT$proc_macro2..TokenStream$GT$17h5362bc4cba28da63E', symObjAddr: 0x5C90, symBinAddr: 0x575C0, symSize: 0x140 }
  - { offsetInCU: 0x155D0, offset: 0x19E0D2, size: 0x8, addend: 0x0, symName: '__ZN4core3ptr45drop_in_place$LT$syn..attr..MetaNameValue$GT$17hdb324a3fa2db5323E', symObjAddr: 0x5DD0, symBinAddr: 0x57700, symSize: 0x40 }
  - { offsetInCU: 0x155ED, offset: 0x19E0EF, size: 0x8, addend: 0x0, symName: '__ZN4core3ptr45drop_in_place$LT$syn..buffer..TokenBuffer$GT$17h4dd1cad1b70fd82dE', symObjAddr: 0x5E10, symBinAddr: 0x57740, symSize: 0xC0 }
  - { offsetInCU: 0x15893, offset: 0x19E395, size: 0x8, addend: 0x0, symName: '__ZN4core3ptr45drop_in_place$LT$syn..derive..DeriveInput$GT$17h998f15e384e6b4edE', symObjAddr: 0x5ED0, symBinAddr: 0x57800, symSize: 0x190 }
  - { offsetInCU: 0x15E1A, offset: 0x19E91C, size: 0x8, addend: 0x0, symName: '__ZN4core3ptr45drop_in_place$LT$syn..generics..TypeParam$GT$17hc7ad554d9eeeebceE', symObjAddr: 0x6060, symBinAddr: 0x57990, symSize: 0x230 }
  - { offsetInCU: 0x1665B, offset: 0x19F15D, size: 0x8, addend: 0x0, symName: '__ZN4core3ptr46drop_in_place$LT$syn..generics..ConstParam$GT$17h27b4e0dc162bd1d1E', symObjAddr: 0x6290, symBinAddr: 0x57BC0, symSize: 0x150 }
  - { offsetInCU: 0x16AA8, offset: 0x19F5AA, size: 0x8, addend: 0x0, symName: '__ZN4core3ptr47drop_in_place$LT$syn..path..GenericArgument$GT$17hbbd563ff98e9beecE', symObjAddr: 0x63E0, symBinAddr: 0x57D10, symSize: 0x450 }
  - { offsetInCU: 0x1781E, offset: 0x1A0320, size: 0x8, addend: 0x0, symName: '__ZN4core3ptr49drop_in_place$LT$syn..generics..LifetimeParam$GT$17h217bc35af328a5a0E', symObjAddr: 0x6830, symBinAddr: 0x58160, symSize: 0xF0 }
  - { offsetInCU: 0x17C01, offset: 0x1A0703, size: 0x8, addend: 0x0, symName: '__ZN4core3ptr49drop_in_place$LT$syn..restriction..Visibility$GT$17hd5d254cf61929f27E', symObjAddr: 0x6920, symBinAddr: 0x58250, symSize: 0x60 }
  - { offsetInCU: 0x17D72, offset: 0x1A0874, size: 0x8, addend: 0x0, symName: '__ZN4core3ptr50drop_in_place$LT$syn..generics..TypeParamBound$GT$17h8625d3fe1e19312aE', symObjAddr: 0x6980, symBinAddr: 0x582B0, symSize: 0xA0 }
  - { offsetInCU: 0x17ED8, offset: 0x1A09DA, size: 0x8, addend: 0x0, symName: '__ZN4core3ptr58drop_in_place$LT$alloc..vec..Vec$LT$syn..expr..Arm$GT$$GT$17h05ff2414ffa1123bE', symObjAddr: 0x6A20, symBinAddr: 0x58350, symSize: 0xD0 }
  - { offsetInCU: 0x18198, offset: 0x1A0C9A, size: 0x8, addend: 0x0, symName: '__ZN4core3ptr59drop_in_place$LT$alloc..boxed..Box$LT$syn..pat..Pat$GT$$GT$17hb7c93ec8e1c96643E', symObjAddr: 0x6AF0, symBinAddr: 0x58420, symSize: 0x50 }
  - { offsetInCU: 0x182F1, offset: 0x1A0DF3, size: 0x8, addend: 0x0, symName: '__ZN4core3ptr59drop_in_place$LT$alloc..boxed..Box$LT$syn..ty..Type$GT$$GT$17hb95b5ff5597f137cE', symObjAddr: 0x6B40, symBinAddr: 0x58470, symSize: 0x50 }
  - { offsetInCU: 0x1844A, offset: 0x1A0F4C, size: 0x8, addend: 0x0, symName: '__ZN4core3ptr61drop_in_place$LT$alloc..boxed..Box$LT$syn..expr..Expr$GT$$GT$17h9491aa3708e9ad9dE', symObjAddr: 0x6B90, symBinAddr: 0x584C0, symSize: 0x50 }
  - { offsetInCU: 0x185A3, offset: 0x1A10A5, size: 0x8, addend: 0x0, symName: '__ZN4core3ptr61drop_in_place$LT$syn..path..ParenthesizedGenericArguments$GT$17h91b81dde2975a31fE', symObjAddr: 0x6BE0, symBinAddr: 0x58510, symSize: 0x170 }
  - { offsetInCU: 0x18BAC, offset: 0x1A16AE, size: 0x8, addend: 0x0, symName: '__ZN4core3ptr63drop_in_place$LT$alloc..boxed..Box$LT$syn..lit..LitRepr$GT$$GT$17hcfa95594142fffd5E', symObjAddr: 0x6D50, symBinAddr: 0x58680, symSize: 0x60 }
  - { offsetInCU: 0x18EB3, offset: 0x1A19B5, size: 0x8, addend: 0x0, symName: '__ZN4core3ptr64drop_in_place$LT$alloc..boxed..Box$LT$syn..pat..FieldPat$GT$$GT$17he472a16cb1d8da57E', symObjAddr: 0x6DB0, symBinAddr: 0x586E0, symSize: 0x140 }
  - { offsetInCU: 0x19580, offset: 0x1A2082, size: 0x8, addend: 0x0, symName: '__ZN4core3ptr64drop_in_place$LT$alloc..boxed..Box$LT$syn..ty..BareFnArg$GT$$GT$17haa798ceb4d63d514E', symObjAddr: 0x6EF0, symBinAddr: 0x58820, symSize: 0x140 }
  - { offsetInCU: 0x19AD5, offset: 0x1A25D7, size: 0x8, addend: 0x0, symName: '__ZN4core3ptr65drop_in_place$LT$alloc..vec..Vec$LT$proc_macro..TokenTree$GT$$GT$17h79f3e7fd38303a81E', symObjAddr: 0x7030, symBinAddr: 0x58960, symSize: 0x110 }
  - { offsetInCU: 0x19ECD, offset: 0x1A29CF, size: 0x8, addend: 0x0, symName: '__ZN4core3ptr65drop_in_place$LT$core..option..Option$LT$syn..expr..Label$GT$$GT$17hdc00345ddddbd974E', symObjAddr: 0x7140, symBinAddr: 0x58A70, symSize: 0x30 }
  - { offsetInCU: 0x1A007, offset: 0x1A2B09, size: 0x8, addend: 0x0, symName: '__ZN4core3ptr66drop_in_place$LT$core..option..Option$LT$syn..pat..PatRest$GT$$GT$17h167e885b89721015E', symObjAddr: 0x7170, symBinAddr: 0x58AA0, symSize: 0xE0 }
  - { offsetInCU: 0x1A2FB, offset: 0x1A2DFD, size: 0x8, addend: 0x0, symName: '__ZN4core3ptr67drop_in_place$LT$alloc..boxed..Box$LT$syn..expr..FieldValue$GT$$GT$17h35f55d2aea1459bfE', symObjAddr: 0x7250, symBinAddr: 0x58B80, symSize: 0x140 }
  - { offsetInCU: 0x1A84F, offset: 0x1A3351, size: 0x8, addend: 0x0, symName: '__ZN4core3ptr70drop_in_place$LT$core..option..Option$LT$syn..ty..BareVariadic$GT$$GT$17h7a7328bd70cf2580E', symObjAddr: 0x7390, symBinAddr: 0x58CC0, symSize: 0x100 }
  - { offsetInCU: 0x1AC86, offset: 0x1A3788, size: 0x8, addend: 0x0, symName: '__ZN4core3ptr72drop_in_place$LT$alloc..boxed..Box$LT$syn..path..GenericArgument$GT$$GT$17hd869661114e7eb2fE', symObjAddr: 0x7490, symBinAddr: 0x58DC0, symSize: 0x2B0 }
  - { offsetInCU: 0x1B697, offset: 0x1A4199, size: 0x8, addend: 0x0, symName: '__ZN4core3ptr72drop_in_place$LT$core..option..Option$LT$syn..lifetime..Lifetime$GT$$GT$17h25f12c99b928716eE', symObjAddr: 0x7740, symBinAddr: 0x59070, symSize: 0x30 }
  - { offsetInCU: 0x1B7B2, offset: 0x1A42B4, size: 0x8, addend: 0x0, symName: '__ZN4core3ptr73drop_in_place$LT$alloc..boxed..Box$LT$syn..generics..GenericParam$GT$$GT$17h3f6e2a0b1d08d5d4E', symObjAddr: 0x7770, symBinAddr: 0x590A0, symSize: 0x80 }
  - { offsetInCU: 0x1B928, offset: 0x1A442A, size: 0x8, addend: 0x0, symName: '__ZN4core3ptr75drop_in_place$LT$alloc..boxed..Box$LT$syn..generics..TypeParamBound$GT$$GT$17hcb0f7ecb0cbe9c25E', symObjAddr: 0x77F0, symBinAddr: 0x59120, symSize: 0x180 }
  - { offsetInCU: 0x1BF33, offset: 0x1A4A35, size: 0x8, addend: 0x0, symName: '__ZN4core3ptr75drop_in_place$LT$core..option..Option$LT$syn..generics..WhereClause$GT$$GT$17h9cb4dda8947ae374E', symObjAddr: 0x7970, symBinAddr: 0x592A0, symSize: 0x90 }
  - { offsetInCU: 0x1C227, offset: 0x1A4D29, size: 0x8, addend: 0x0, symName: '__ZN4core3ptr86drop_in_place$LT$syn..punctuated..Punctuated$LT$syn..pat..Pat$C$syn..token..Or$GT$$GT$17hbbaac93b620a59f0E', symObjAddr: 0x7A00, symBinAddr: 0x59330, symSize: 0x120 }
  - { offsetInCU: 0x1C6A2, offset: 0x1A51A4, size: 0x8, addend: 0x0, symName: '__ZN4core3ptr87drop_in_place$LT$core..option..Option$LT$alloc..boxed..Box$LT$syn..pat..Pat$GT$$GT$$GT$17hda27f65557d8367dE', symObjAddr: 0x7B20, symBinAddr: 0x59450, symSize: 0x50 }
  - { offsetInCU: 0x1C812, offset: 0x1A5314, size: 0x8, addend: 0x0, symName: '__ZN4core3ptr87drop_in_place$LT$core..option..Option$LT$alloc..boxed..Box$LT$syn..ty..Type$GT$$GT$$GT$17h0861a3ec4fa6e258E', symObjAddr: 0x7B70, symBinAddr: 0x594A0, symSize: 0x50 }
  - { offsetInCU: 0x1C982, offset: 0x1A5484, size: 0x8, addend: 0x0, symName: '__ZN4core3ptr89drop_in_place$LT$core..option..Option$LT$alloc..boxed..Box$LT$syn..expr..Expr$GT$$GT$$GT$17heab20deee7c3ee6dE', symObjAddr: 0x7BC0, symBinAddr: 0x594F0, symSize: 0x50 }
  - { offsetInCU: 0x1CB30, offset: 0x1A5632, size: 0x8, addend: 0x0, symName: '__ZN4core3ptr89drop_in_place$LT$syn..punctuated..Punctuated$LT$syn..pat..Pat$C$syn..token..Comma$GT$$GT$17hd3071c3e257d3ee3E', symObjAddr: 0x7C10, symBinAddr: 0x59540, symSize: 0x120 }
  - { offsetInCU: 0x1D01F, offset: 0x1A5B21, size: 0x8, addend: 0x0, symName: '__ZN4core3ptr90drop_in_place$LT$core..option..Option$LT$alloc..boxed..Box$LT$syn..data..Field$GT$$GT$$GT$17h6f6e5533d5f1ea35E', symObjAddr: 0x7D30, symBinAddr: 0x59660, symSize: 0x1B0 }
  - { offsetInCU: 0x1D6FC, offset: 0x1A61FE, size: 0x8, addend: 0x0, symName: '__ZN4core3ptr91drop_in_place$LT$syn..punctuated..Punctuated$LT$syn..expr..Expr$C$syn..token..Comma$GT$$GT$17h2f1f4ce24d410019E', symObjAddr: 0x7EE0, symBinAddr: 0x59810, symSize: 0x120 }
  - { offsetInCU: 0x1DC06, offset: 0x1A6708, size: 0x8, addend: 0x0, symName: '__ZN4core3ptr92drop_in_place$LT$core..option..Option$LT$alloc..boxed..Box$LT$syn..data..Variant$GT$$GT$$GT$17h1b82b5b54ce0f8a2E', symObjAddr: 0x8000, symBinAddr: 0x59930, symSize: 0x170 }
  - { offsetInCU: 0x1E1A1, offset: 0x1A6CA3, size: 0x8, addend: 0x0, symName: '__ZN4core3ptr94drop_in_place$LT$syn..punctuated..Punctuated$LT$syn..pat..FieldPat$C$syn..token..Comma$GT$$GT$17h4738c9f46215af09E', symObjAddr: 0x8170, symBinAddr: 0x59AA0, symSize: 0xF0 }
  - { offsetInCU: 0x1E4A0, offset: 0x1A6FA2, size: 0x8, addend: 0x0, symName: '__ZN4core3ptr94drop_in_place$LT$syn..punctuated..Punctuated$LT$syn..ty..BareFnArg$C$syn..token..Comma$GT$$GT$17h6441ee8ed369fbe8E', symObjAddr: 0x8260, symBinAddr: 0x59B90, symSize: 0xF0 }
  - { offsetInCU: 0x1E7A1, offset: 0x1A72A3, size: 0x8, addend: 0x0, symName: '__ZN4core3ptr96drop_in_place$LT$core..option..Option$LT$alloc..boxed..Box$LT$syn..path..PathSegment$GT$$GT$$GT$17hc38badba6091c6d8E', symObjAddr: 0x8350, symBinAddr: 0x59C80, symSize: 0x1A0 }
  - { offsetInCU: 0x1EE62, offset: 0x1A7964, size: 0x8, addend: 0x0, symName: '__ZN4core3ptr97drop_in_place$LT$syn..punctuated..Punctuated$LT$syn..expr..FieldValue$C$syn..token..Comma$GT$$GT$17h163154fb91ad56d1E', symObjAddr: 0x84F0, symBinAddr: 0x59E20, symSize: 0xF0 }
  - { offsetInCU: 0x1F1DB, offset: 0x1A7CDD, size: 0x8, addend: 0x0, symName: '__ZN4core3ptr98drop_in_place$LT$syn..punctuated..Punctuated$LT$syn..lifetime..Lifetime$C$syn..token..Plus$GT$$GT$17h86851af115fa534bE', symObjAddr: 0x85E0, symBinAddr: 0x59F10, symSize: 0xC6 }
  - { offsetInCU: 0x22594, offset: 0x1AB096, size: 0x8, addend: 0x0, symName: '__ZN40_$LT$F$u20$as$u20$syn..parse..Parser$GT$14__parse_scoped17h508a882ce0ee1f84E', symObjAddr: 0x0, symBinAddr: 0x51930, symSize: 0x380 }
  - { offsetInCU: 0x22F92, offset: 0x1ABA94, size: 0x8, addend: 0x0, symName: '__ZN40_$LT$F$u20$as$u20$syn..parse..Parser$GT$14__parse_scoped17h59017e4cfe81b7e5E', symObjAddr: 0x380, symBinAddr: 0x51CB0, symSize: 0x420 }
  - { offsetInCU: 0x23A0D, offset: 0x1AC50F, size: 0x8, addend: 0x0, symName: '__ZN40_$LT$F$u20$as$u20$syn..parse..Parser$GT$6parse217hae7ac35b8505d85dE', symObjAddr: 0x7A0, symBinAddr: 0x520D0, symSize: 0x3C0 }
  - { offsetInCU: 0x24276, offset: 0x1ACD78, size: 0x8, addend: 0x0, symName: '__ZN40_$LT$F$u20$as$u20$syn..parse..Parser$GT$6parse217hbf5079a07aeef4efE', symObjAddr: 0xB60, symBinAddr: 0x52490, symSize: 0x380 }
  - { offsetInCU: 0x1E, offset: 0x1B7BE7, size: 0x8, addend: 0x0, symName: '__ZN40_$LT$F$u20$as$u20$syn..parse..Parser$GT$14__parse_scoped17h216c30f4d3b99015E', symObjAddr: 0x0, symBinAddr: 0x59FE0, symSize: 0xAF0 }
  - { offsetInCU: 0x1D5A, offset: 0x1B9923, size: 0x8, addend: 0x0, symName: '__ZN4core3ptr100drop_in_place$LT$core..option..Option$LT$alloc..boxed..Box$LT$syn..path..GenericArgument$GT$$GT$$GT$17hb5a67e4079e7919fE', symObjAddr: 0xAF0, symBinAddr: 0x5AAD0, symSize: 0x50 }
  - { offsetInCU: 0x1F27, offset: 0x1B9AF0, size: 0x8, addend: 0x0, symName: '__ZN4core3ptr102drop_in_place$LT$syn..punctuated..Punctuated$LT$syn..path..GenericArgument$C$syn..token..Comma$GT$$GT$17hd8c171c87cfb4313E', symObjAddr: 0xB40, symBinAddr: 0x5AB20, symSize: 0xF0 }
  - { offsetInCU: 0x2247, offset: 0x1B9E10, size: 0x8, addend: 0x0, symName: '__ZN4core3ptr103drop_in_place$LT$core..option..Option$LT$alloc..boxed..Box$LT$syn..generics..TypeParamBound$GT$$GT$$GT$17hdfcf4360b16eebfbE', symObjAddr: 0xC30, symBinAddr: 0x5AC10, symSize: 0x50 }
  - { offsetInCU: 0x2452, offset: 0x1BA01B, size: 0x8, addend: 0x0, symName: '__ZN4core3ptr103drop_in_place$LT$syn..punctuated..Punctuated$LT$syn..generics..GenericParam$C$syn..token..Comma$GT$$GT$17h93670e6688afe9d4E', symObjAddr: 0xC80, symBinAddr: 0x5AC60, symSize: 0xF0 }
  - { offsetInCU: 0x2A26, offset: 0x1BA5EF, size: 0x8, addend: 0x0, symName: '__ZN4core3ptr104drop_in_place$LT$syn..punctuated..Punctuated$LT$syn..generics..TypeParamBound$C$syn..token..Plus$GT$$GT$17h890bf6e730b9f26fE', symObjAddr: 0xD70, symBinAddr: 0x5AD50, symSize: 0x240 }
  - { offsetInCU: 0x3300, offset: 0x1BAEC9, size: 0x8, addend: 0x0, symName: '__ZN4core3ptr34drop_in_place$LT$syn..lit..Lit$GT$17h6e21d94489882724E', symObjAddr: 0xFB0, symBinAddr: 0x5AF90, symSize: 0x120 }
  - { offsetInCU: 0x37EE, offset: 0x1BB3B7, size: 0x8, addend: 0x0, symName: '__ZN4core3ptr34drop_in_place$LT$syn..pat..Pat$GT$17h12af3a77ec5e4c06E', symObjAddr: 0x10D0, symBinAddr: 0x5B0B0, symSize: 0xF40 }
  - { offsetInCU: 0x72B4, offset: 0x1BEE7D, size: 0x8, addend: 0x0, symName: '__ZN4core3ptr34drop_in_place$LT$syn..ty..Type$GT$17h03ec94c8bf6d8c4bE', symObjAddr: 0x2010, symBinAddr: 0x5BFF0, symSize: 0x580 }
  - { offsetInCU: 0x8B3D, offset: 0x1C0706, size: 0x8, addend: 0x0, symName: '__ZN4core3ptr36drop_in_place$LT$syn..expr..Expr$GT$17hbf6e9783b008b839E', symObjAddr: 0x2590, symBinAddr: 0x5C570, symSize: 0x2730 }
  - { offsetInCU: 0x11F9D, offset: 0x1C9B66, size: 0x8, addend: 0x0, symName: '__ZN4core3ptr36drop_in_place$LT$syn..mac..Macro$GT$17hb7d376e8ff250e1eE', symObjAddr: 0x4CC0, symBinAddr: 0x5ECA0, symSize: 0xE0 }
  - { offsetInCU: 0x12327, offset: 0x1C9EF0, size: 0x8, addend: 0x0, symName: '__ZN4core3ptr36drop_in_place$LT$syn..path..Path$GT$17h72ec20184e102e8fE', symObjAddr: 0x4DA0, symBinAddr: 0x5ED80, symSize: 0x240 }
  - { offsetInCU: 0x12CC1, offset: 0x1CA88A, size: 0x8, addend: 0x0, symName: '__ZN4core3ptr37drop_in_place$LT$syn..stmt..Block$GT$17h51c74ef5625755b3E', symObjAddr: 0x4FE0, symBinAddr: 0x5EFC0, symSize: 0xD0 }
  - { offsetInCU: 0x12F98, offset: 0x1CAB61, size: 0x8, addend: 0x0, symName: '__ZN4core3ptr38drop_in_place$LT$syn..expr..Member$GT$17h8c060e1cf0c3bf66E', symObjAddr: 0x50B0, symBinAddr: 0x5F090, symSize: 0x30 }
  - { offsetInCU: 0x13094, offset: 0x1CAC5D, size: 0x8, addend: 0x0, symName: '__ZN4core3ptr39drop_in_place$LT$proc_macro2..Ident$GT$17h99f97753d3a4af38E', symObjAddr: 0x50E0, symBinAddr: 0x5F0C0, symSize: 0x30 }
  - { offsetInCU: 0x132A7, offset: 0x1CAE70, size: 0x8, addend: 0x0, symName: '__ZN4core3ptr39drop_in_place$LT$syn..buffer..Entry$GT$17h61a159652b737e43E', symObjAddr: 0x5110, symBinAddr: 0x5F0F0, symSize: 0xB0 }
  - { offsetInCU: 0x13632, offset: 0x1CB1FB, size: 0x8, addend: 0x0, symName: '__ZN4core3ptr40drop_in_place$LT$syn..ty..ReturnType$GT$17hfd7f794d059fb3d2E', symObjAddr: 0x51C0, symBinAddr: 0x5F1A0, symSize: 0x50 }
  - { offsetInCU: 0x137A2, offset: 0x1CB36B, size: 0x8, addend: 0x0, symName: '__ZN4core3ptr41drop_in_place$LT$syn..expr..ExprConst$GT$17hb3de85d21851b870E', symObjAddr: 0x5210, symBinAddr: 0x5F1F0, symSize: 0x180 }
  - { offsetInCU: 0x13D5B, offset: 0x1CB924, size: 0x8, addend: 0x0, symName: '__ZN4core3ptr44drop_in_place$LT$syn..lifetime..Lifetime$GT$17hb07dd50c5955fb35E', symObjAddr: 0x5390, symBinAddr: 0x5F370, symSize: 0x30 }
  - { offsetInCU: 0x13E57, offset: 0x1CBA20, size: 0x8, addend: 0x0, symName: '__ZN4core3ptr44drop_in_place$LT$syn..parse..ParseBuffer$GT$17h414ae3203566f226E', symObjAddr: 0x53C0, symBinAddr: 0x5F3A0, symSize: 0x70 }
  - { offsetInCU: 0x141D3, offset: 0x1CBD9C, size: 0x8, addend: 0x0, symName: '__ZN4core3ptr45drop_in_place$LT$proc_macro2..TokenStream$GT$17h5362bc4cba28da63E', symObjAddr: 0x5430, symBinAddr: 0x5F410, symSize: 0x140 }
  - { offsetInCU: 0x1462F, offset: 0x1CC1F8, size: 0x8, addend: 0x0, symName: '__ZN4core3ptr45drop_in_place$LT$syn..buffer..TokenBuffer$GT$17h4dd1cad1b70fd82dE', symObjAddr: 0x5570, symBinAddr: 0x5F550, symSize: 0xC0 }
  - { offsetInCU: 0x14897, offset: 0x1CC460, size: 0x8, addend: 0x0, symName: '__ZN4core3ptr45drop_in_place$LT$syn..generics..TypeParam$GT$17hc7ad554d9eeeebceE', symObjAddr: 0x5630, symBinAddr: 0x5F610, symSize: 0x230 }
  - { offsetInCU: 0x150D8, offset: 0x1CCCA1, size: 0x8, addend: 0x0, symName: '__ZN4core3ptr46drop_in_place$LT$syn..generics..ConstParam$GT$17h27b4e0dc162bd1d1E', symObjAddr: 0x5860, symBinAddr: 0x5F840, symSize: 0x150 }
  - { offsetInCU: 0x15525, offset: 0x1CD0EE, size: 0x8, addend: 0x0, symName: '__ZN4core3ptr47drop_in_place$LT$syn..path..GenericArgument$GT$17hbbd563ff98e9beecE', symObjAddr: 0x59B0, symBinAddr: 0x5F990, symSize: 0x450 }
  - { offsetInCU: 0x1629B, offset: 0x1CDE64, size: 0x8, addend: 0x0, symName: '__ZN4core3ptr49drop_in_place$LT$syn..generics..LifetimeParam$GT$17h217bc35af328a5a0E', symObjAddr: 0x5E00, symBinAddr: 0x5FDE0, symSize: 0xF0 }
  - { offsetInCU: 0x1667E, offset: 0x1CE247, size: 0x8, addend: 0x0, symName: '__ZN4core3ptr50drop_in_place$LT$syn..generics..TypeParamBound$GT$17h8625d3fe1e19312aE', symObjAddr: 0x5EF0, symBinAddr: 0x5FED0, symSize: 0xA0 }
  - { offsetInCU: 0x167E4, offset: 0x1CE3AD, size: 0x8, addend: 0x0, symName: '__ZN4core3ptr58drop_in_place$LT$alloc..vec..Vec$LT$syn..expr..Arm$GT$$GT$17h05ff2414ffa1123bE', symObjAddr: 0x5F90, symBinAddr: 0x5FF70, symSize: 0xD0 }
  - { offsetInCU: 0x16AA4, offset: 0x1CE66D, size: 0x8, addend: 0x0, symName: '__ZN4core3ptr59drop_in_place$LT$alloc..boxed..Box$LT$syn..pat..Pat$GT$$GT$17hb7c93ec8e1c96643E', symObjAddr: 0x6060, symBinAddr: 0x60040, symSize: 0x50 }
  - { offsetInCU: 0x16BFD, offset: 0x1CE7C6, size: 0x8, addend: 0x0, symName: '__ZN4core3ptr59drop_in_place$LT$alloc..boxed..Box$LT$syn..ty..Type$GT$$GT$17hb95b5ff5597f137cE', symObjAddr: 0x60B0, symBinAddr: 0x60090, symSize: 0x50 }
  - { offsetInCU: 0x16D56, offset: 0x1CE91F, size: 0x8, addend: 0x0, symName: '__ZN4core3ptr61drop_in_place$LT$alloc..boxed..Box$LT$syn..expr..Expr$GT$$GT$17h9491aa3708e9ad9dE', symObjAddr: 0x6100, symBinAddr: 0x600E0, symSize: 0x50 }
  - { offsetInCU: 0x16EAF, offset: 0x1CEA78, size: 0x8, addend: 0x0, symName: '__ZN4core3ptr61drop_in_place$LT$syn..path..ParenthesizedGenericArguments$GT$17h91b81dde2975a31fE', symObjAddr: 0x6150, symBinAddr: 0x60130, symSize: 0x170 }
  - { offsetInCU: 0x174B8, offset: 0x1CF081, size: 0x8, addend: 0x0, symName: '__ZN4core3ptr63drop_in_place$LT$alloc..boxed..Box$LT$syn..lit..LitRepr$GT$$GT$17hcfa95594142fffd5E', symObjAddr: 0x62C0, symBinAddr: 0x602A0, symSize: 0x60 }
  - { offsetInCU: 0x177BF, offset: 0x1CF388, size: 0x8, addend: 0x0, symName: '__ZN4core3ptr64drop_in_place$LT$alloc..boxed..Box$LT$syn..pat..FieldPat$GT$$GT$17he472a16cb1d8da57E', symObjAddr: 0x6320, symBinAddr: 0x60300, symSize: 0x140 }
  - { offsetInCU: 0x17E8C, offset: 0x1CFA55, size: 0x8, addend: 0x0, symName: '__ZN4core3ptr64drop_in_place$LT$alloc..boxed..Box$LT$syn..ty..BareFnArg$GT$$GT$17haa798ceb4d63d514E', symObjAddr: 0x6460, symBinAddr: 0x60440, symSize: 0x140 }
  - { offsetInCU: 0x183E1, offset: 0x1CFFAA, size: 0x8, addend: 0x0, symName: '__ZN4core3ptr65drop_in_place$LT$alloc..vec..Vec$LT$proc_macro..TokenTree$GT$$GT$17h79f3e7fd38303a81E', symObjAddr: 0x65A0, symBinAddr: 0x60580, symSize: 0x110 }
  - { offsetInCU: 0x187D9, offset: 0x1D03A2, size: 0x8, addend: 0x0, symName: '__ZN4core3ptr65drop_in_place$LT$core..option..Option$LT$syn..expr..Label$GT$$GT$17hdc00345ddddbd974E', symObjAddr: 0x66B0, symBinAddr: 0x60690, symSize: 0x30 }
  - { offsetInCU: 0x18913, offset: 0x1D04DC, size: 0x8, addend: 0x0, symName: '__ZN4core3ptr66drop_in_place$LT$core..option..Option$LT$syn..pat..PatRest$GT$$GT$17h167e885b89721015E', symObjAddr: 0x66E0, symBinAddr: 0x606C0, symSize: 0xE0 }
  - { offsetInCU: 0x18C07, offset: 0x1D07D0, size: 0x8, addend: 0x0, symName: '__ZN4core3ptr67drop_in_place$LT$alloc..boxed..Box$LT$syn..expr..FieldValue$GT$$GT$17h35f55d2aea1459bfE', symObjAddr: 0x67C0, symBinAddr: 0x607A0, symSize: 0x140 }
  - { offsetInCU: 0x1915B, offset: 0x1D0D24, size: 0x8, addend: 0x0, symName: '__ZN4core3ptr70drop_in_place$LT$core..option..Option$LT$syn..ty..BareVariadic$GT$$GT$17h7a7328bd70cf2580E', symObjAddr: 0x6900, symBinAddr: 0x608E0, symSize: 0x100 }
  - { offsetInCU: 0x19592, offset: 0x1D115B, size: 0x8, addend: 0x0, symName: '__ZN4core3ptr72drop_in_place$LT$alloc..boxed..Box$LT$syn..path..GenericArgument$GT$$GT$17hd869661114e7eb2fE', symObjAddr: 0x6A00, symBinAddr: 0x609E0, symSize: 0x2B0 }
  - { offsetInCU: 0x19FA3, offset: 0x1D1B6C, size: 0x8, addend: 0x0, symName: '__ZN4core3ptr72drop_in_place$LT$core..option..Option$LT$syn..lifetime..Lifetime$GT$$GT$17h25f12c99b928716eE', symObjAddr: 0x6CB0, symBinAddr: 0x60C90, symSize: 0x30 }
  - { offsetInCU: 0x1A0BE, offset: 0x1D1C87, size: 0x8, addend: 0x0, symName: '__ZN4core3ptr73drop_in_place$LT$alloc..boxed..Box$LT$syn..generics..GenericParam$GT$$GT$17h3f6e2a0b1d08d5d4E', symObjAddr: 0x6CE0, symBinAddr: 0x60CC0, symSize: 0x80 }
  - { offsetInCU: 0x1A234, offset: 0x1D1DFD, size: 0x8, addend: 0x0, symName: '__ZN4core3ptr75drop_in_place$LT$alloc..boxed..Box$LT$syn..generics..TypeParamBound$GT$$GT$17hcb0f7ecb0cbe9c25E', symObjAddr: 0x6D60, symBinAddr: 0x60D40, symSize: 0x180 }
  - { offsetInCU: 0x1A7C3, offset: 0x1D238C, size: 0x8, addend: 0x0, symName: '__ZN4core3ptr84drop_in_place$LT$core..result..Result$LT$syn..path..Path$C$syn..error..Error$GT$$GT$17h7d57f0952fde51b6E', symObjAddr: 0x6EE0, symBinAddr: 0x60EC0, symSize: 0xA0 }
  - { offsetInCU: 0x1AAE3, offset: 0x1D26AC, size: 0x8, addend: 0x0, symName: '__ZN4core3ptr86drop_in_place$LT$syn..punctuated..Punctuated$LT$syn..pat..Pat$C$syn..token..Or$GT$$GT$17hbbaac93b620a59f0E', symObjAddr: 0x6F80, symBinAddr: 0x60F60, symSize: 0x120 }
  - { offsetInCU: 0x1AF5E, offset: 0x1D2B27, size: 0x8, addend: 0x0, symName: '__ZN4core3ptr87drop_in_place$LT$core..option..Option$LT$alloc..boxed..Box$LT$syn..pat..Pat$GT$$GT$$GT$17hda27f65557d8367dE', symObjAddr: 0x70A0, symBinAddr: 0x61080, symSize: 0x50 }
  - { offsetInCU: 0x1B0CE, offset: 0x1D2C97, size: 0x8, addend: 0x0, symName: '__ZN4core3ptr87drop_in_place$LT$core..option..Option$LT$alloc..boxed..Box$LT$syn..ty..Type$GT$$GT$$GT$17h0861a3ec4fa6e258E', symObjAddr: 0x70F0, symBinAddr: 0x610D0, symSize: 0x50 }
  - { offsetInCU: 0x1B23E, offset: 0x1D2E07, size: 0x8, addend: 0x0, symName: '__ZN4core3ptr89drop_in_place$LT$core..option..Option$LT$alloc..boxed..Box$LT$syn..expr..Expr$GT$$GT$$GT$17heab20deee7c3ee6dE', symObjAddr: 0x7140, symBinAddr: 0x61120, symSize: 0x50 }
  - { offsetInCU: 0x1B3EC, offset: 0x1D2FB5, size: 0x8, addend: 0x0, symName: '__ZN4core3ptr89drop_in_place$LT$syn..punctuated..Punctuated$LT$syn..pat..Pat$C$syn..token..Comma$GT$$GT$17hd3071c3e257d3ee3E', symObjAddr: 0x7190, symBinAddr: 0x61170, symSize: 0x120 }
  - { offsetInCU: 0x1B8BC, offset: 0x1D3485, size: 0x8, addend: 0x0, symName: '__ZN4core3ptr91drop_in_place$LT$syn..punctuated..Punctuated$LT$syn..expr..Expr$C$syn..token..Comma$GT$$GT$17h2f1f4ce24d410019E', symObjAddr: 0x72B0, symBinAddr: 0x61290, symSize: 0x120 }
  - { offsetInCU: 0x1BD4A, offset: 0x1D3913, size: 0x8, addend: 0x0, symName: '__ZN4core3ptr94drop_in_place$LT$syn..punctuated..Punctuated$LT$syn..pat..FieldPat$C$syn..token..Comma$GT$$GT$17h4738c9f46215af09E', symObjAddr: 0x73D0, symBinAddr: 0x613B0, symSize: 0xF0 }
  - { offsetInCU: 0x1C049, offset: 0x1D3C12, size: 0x8, addend: 0x0, symName: '__ZN4core3ptr94drop_in_place$LT$syn..punctuated..Punctuated$LT$syn..ty..BareFnArg$C$syn..token..Comma$GT$$GT$17h6441ee8ed369fbe8E', symObjAddr: 0x74C0, symBinAddr: 0x614A0, symSize: 0xF0 }
  - { offsetInCU: 0x1C34A, offset: 0x1D3F13, size: 0x8, addend: 0x0, symName: '__ZN4core3ptr96drop_in_place$LT$core..option..Option$LT$alloc..boxed..Box$LT$syn..path..PathSegment$GT$$GT$$GT$17hc38badba6091c6d8E', symObjAddr: 0x75B0, symBinAddr: 0x61590, symSize: 0x1A0 }
  - { offsetInCU: 0x1CA0B, offset: 0x1D45D4, size: 0x8, addend: 0x0, symName: '__ZN4core3ptr97drop_in_place$LT$syn..punctuated..Punctuated$LT$syn..expr..FieldValue$C$syn..token..Comma$GT$$GT$17h163154fb91ad56d1E', symObjAddr: 0x7750, symBinAddr: 0x61730, symSize: 0xF0 }
  - { offsetInCU: 0x1CD84, offset: 0x1D494D, size: 0x8, addend: 0x0, symName: '__ZN4core3ptr98drop_in_place$LT$syn..punctuated..Punctuated$LT$syn..lifetime..Lifetime$C$syn..token..Plus$GT$$GT$17h86851af115fa534bE', symObjAddr: 0x7840, symBinAddr: 0x61820, symSize: 0xD0 }
  - { offsetInCU: 0x200F9, offset: 0x1D7CC2, size: 0x8, addend: 0x0, symName: '__ZN40_$LT$F$u20$as$u20$syn..parse..Parser$GT$14__parse_scoped17h216c30f4d3b99015E', symObjAddr: 0x0, symBinAddr: 0x59FE0, symSize: 0xAF0 }
  - { offsetInCU: 0x26C86, offset: 0x1DE84F, size: 0x8, addend: 0x0, symName: '__ZN58_$LT$alloc..string..String$u20$as$u20$core..fmt..Debug$GT$3fmt17h46296bde07017096E', symObjAddr: 0x7910, symBinAddr: 0x618F0, symSize: 0x18 }
  - { offsetInCU: 0xE23, offset: 0x1E542C, size: 0x8, addend: 0x0, symName: __ZN10proc_macro6bridge6client10run_client17h1942700ce800d5bfE, symObjAddr: 0x190, symBinAddr: 0x61910, symSize: 0x2E0 }
  - { offsetInCU: 0x14FD, offset: 0x1E5B06, size: 0x8, addend: 0x0, symName: __ZN10proc_macro6bridge6client10run_client17h384761c756da0e74E, symObjAddr: 0x470, symBinAddr: 0x61BF0, symSize: 0x2E0 }
  - { offsetInCU: 0x1BD7, offset: 0x1E61E0, size: 0x8, addend: 0x0, symName: __ZN10proc_macro6bridge6client10run_client17h4430409a317c544bE, symObjAddr: 0x750, symBinAddr: 0x61ED0, symSize: 0x2E0 }
  - { offsetInCU: 0x22B1, offset: 0x1E68BA, size: 0x8, addend: 0x0, symName: __ZN10proc_macro6bridge6client10run_client17h74af80f8a9a1e1e9E, symObjAddr: 0xA30, symBinAddr: 0x621B0, symSize: 0x2E0 }
  - { offsetInCU: 0x298B, offset: 0x1E6F94, size: 0x8, addend: 0x0, symName: __ZN10proc_macro6bridge6client10run_client17h902e131d5be49b0cE, symObjAddr: 0xD10, symBinAddr: 0x62490, symSize: 0x2E0 }
  - { offsetInCU: 0x3065, offset: 0x1E766E, size: 0x8, addend: 0x0, symName: __ZN10proc_macro6bridge6client10run_client17hc5044e42005cbe6cE, symObjAddr: 0xFF0, symBinAddr: 0x62770, symSize: 0x2E0 }
  - { offsetInCU: 0x373F, offset: 0x1E7D48, size: 0x8, addend: 0x0, symName: __ZN10proc_macro6bridge6client10run_client17hc8f1214e31a1793fE, symObjAddr: 0x12D0, symBinAddr: 0x62A50, symSize: 0x2E0 }
  - { offsetInCU: 0x3E19, offset: 0x1E8422, size: 0x8, addend: 0x0, symName: __ZN10proc_macro6bridge6client10run_client17hd284dfe034008543E, symObjAddr: 0x15B0, symBinAddr: 0x62D30, symSize: 0x2E0 }
  - { offsetInCU: 0x44F3, offset: 0x1E8AFC, size: 0x8, addend: 0x0, symName: __ZN10proc_macro6bridge6client10run_client17hdba1ce96eb95b70bE, symObjAddr: 0x1890, symBinAddr: 0x63010, symSize: 0x2DB }
  - { offsetInCU: 0x12EB, offset: 0x1EE379, size: 0x8, addend: 0x0, symName: '__ZN4core3ptr94drop_in_place$LT$core..result..Result$LT$core..convert..Infallible$C$syn..error..Error$GT$$GT$17he4b45b13b3144395E.llvm.13594409298345682490', symObjAddr: 0x2A0, symBinAddr: 0x632F0, symSize: 0x90 }
  - { offsetInCU: 0x1A2F, offset: 0x1EEABD, size: 0x8, addend: 0x0, symName: __ZN4core4iter8adapters11try_process17h09c7c516a7adc458E, symObjAddr: 0x330, symBinAddr: 0x63380, symSize: 0x170 }
  - { offsetInCU: 0x1E65, offset: 0x1EEEF3, size: 0x8, addend: 0x0, symName: __ZN4core4iter8adapters11try_process17h30a339e035245ba3E, symObjAddr: 0x4A0, symBinAddr: 0x634F0, symSize: 0x180 }
  - { offsetInCU: 0x229B, offset: 0x1EF329, size: 0x8, addend: 0x0, symName: __ZN4core4iter8adapters11try_process17h7cad2b2e84be5d75E, symObjAddr: 0x620, symBinAddr: 0x63670, symSize: 0x170 }
  - { offsetInCU: 0x26D1, offset: 0x1EF75F, size: 0x8, addend: 0x0, symName: __ZN4core4iter8adapters11try_process17hbcdde357799f1303E, symObjAddr: 0x790, symBinAddr: 0x637E0, symSize: 0x173 }
  - { offsetInCU: 0x128D, offset: 0x1FAB88, size: 0x8, addend: 0x0, symName: '__ZN4core3ptr100drop_in_place$LT$core..option..Option$LT$alloc..boxed..Box$LT$syn..path..GenericArgument$GT$$GT$$GT$17hb5a67e4079e7919fE', symObjAddr: 0x7D0, symBinAddr: 0x64060, symSize: 0x50 }
  - { offsetInCU: 0x145A, offset: 0x1FAD55, size: 0x8, addend: 0x0, symName: '__ZN4core3ptr102drop_in_place$LT$syn..punctuated..Punctuated$LT$syn..path..GenericArgument$C$syn..token..Comma$GT$$GT$17hd8c171c87cfb4313E', symObjAddr: 0x820, symBinAddr: 0x640B0, symSize: 0xF0 }
  - { offsetInCU: 0x177A, offset: 0x1FB075, size: 0x8, addend: 0x0, symName: '__ZN4core3ptr103drop_in_place$LT$core..option..Option$LT$alloc..boxed..Box$LT$syn..generics..TypeParamBound$GT$$GT$$GT$17hdfcf4360b16eebfbE', symObjAddr: 0x910, symBinAddr: 0x641A0, symSize: 0x50 }
  - { offsetInCU: 0x1A3F, offset: 0x1FB33A, size: 0x8, addend: 0x0, symName: '__ZN4core3ptr103drop_in_place$LT$core..option..Option$LT$alloc..boxed..Box$LT$syn..generics..WherePredicate$GT$$GT$$GT$17h691b9cfb56ca2c5eE', symObjAddr: 0x960, symBinAddr: 0x641F0, symSize: 0xD0 }
  - { offsetInCU: 0x1DD3, offset: 0x1FB6CE, size: 0x8, addend: 0x0, symName: '__ZN4core3ptr103drop_in_place$LT$syn..punctuated..Punctuated$LT$syn..generics..GenericParam$C$syn..token..Comma$GT$$GT$17h93670e6688afe9d4E', symObjAddr: 0xA30, symBinAddr: 0x642C0, symSize: 0xF0 }
  - { offsetInCU: 0x22CE, offset: 0x1FBBC9, size: 0x8, addend: 0x0, symName: '__ZN4core3ptr104drop_in_place$LT$syn..punctuated..Punctuated$LT$syn..generics..TypeParamBound$C$syn..token..Plus$GT$$GT$17h890bf6e730b9f26fE', symObjAddr: 0xB20, symBinAddr: 0x643B0, symSize: 0x240 }
  - { offsetInCU: 0x2B4B, offset: 0x1FC446, size: 0x8, addend: 0x0, symName: '__ZN4core3ptr105drop_in_place$LT$syn..punctuated..Punctuated$LT$syn..generics..WherePredicate$C$syn..token..Comma$GT$$GT$17h153e3fb43ee38d46E', symObjAddr: 0xD60, symBinAddr: 0x645F0, symSize: 0x80 }
  - { offsetInCU: 0x2DEE, offset: 0x1FC6E9, size: 0x8, addend: 0x0, symName: '__ZN4core3ptr34drop_in_place$LT$syn..lit..Lit$GT$17h6e21d94489882724E', symObjAddr: 0xDE0, symBinAddr: 0x64670, symSize: 0x120 }
  - { offsetInCU: 0x32DC, offset: 0x1FCBD7, size: 0x8, addend: 0x0, symName: '__ZN4core3ptr34drop_in_place$LT$syn..pat..Pat$GT$17h12af3a77ec5e4c06E', symObjAddr: 0xF00, symBinAddr: 0x64790, symSize: 0xF40 }
  - { offsetInCU: 0x6DA2, offset: 0x20069D, size: 0x8, addend: 0x0, symName: '__ZN4core3ptr34drop_in_place$LT$syn..ty..Type$GT$17h03ec94c8bf6d8c4bE', symObjAddr: 0x1E40, symBinAddr: 0x656D0, symSize: 0x580 }
  - { offsetInCU: 0x862B, offset: 0x201F26, size: 0x8, addend: 0x0, symName: '__ZN4core3ptr36drop_in_place$LT$syn..expr..Expr$GT$17hbf6e9783b008b839E', symObjAddr: 0x23C0, symBinAddr: 0x65C50, symSize: 0x2730 }
  - { offsetInCU: 0x11A8B, offset: 0x20B386, size: 0x8, addend: 0x0, symName: '__ZN4core3ptr36drop_in_place$LT$syn..mac..Macro$GT$17hb7d376e8ff250e1eE', symObjAddr: 0x4AF0, symBinAddr: 0x68380, symSize: 0xE0 }
  - { offsetInCU: 0x11E15, offset: 0x20B710, size: 0x8, addend: 0x0, symName: '__ZN4core3ptr36drop_in_place$LT$syn..path..Path$GT$17h72ec20184e102e8fE', symObjAddr: 0x4BD0, symBinAddr: 0x68460, symSize: 0x240 }
  - { offsetInCU: 0x127AF, offset: 0x20C0AA, size: 0x8, addend: 0x0, symName: '__ZN4core3ptr37drop_in_place$LT$syn..stmt..Block$GT$17h51c74ef5625755b3E', symObjAddr: 0x4E10, symBinAddr: 0x686A0, symSize: 0xD0 }
  - { offsetInCU: 0x12A86, offset: 0x20C381, size: 0x8, addend: 0x0, symName: '__ZN4core3ptr38drop_in_place$LT$syn..expr..Member$GT$17h8c060e1cf0c3bf66E', symObjAddr: 0x4EE0, symBinAddr: 0x68770, symSize: 0x30 }
  - { offsetInCU: 0x12B82, offset: 0x20C47D, size: 0x8, addend: 0x0, symName: '__ZN4core3ptr39drop_in_place$LT$proc_macro2..Ident$GT$17h99f97753d3a4af38E', symObjAddr: 0x4F10, symBinAddr: 0x687A0, symSize: 0x30 }
  - { offsetInCU: 0x12C5F, offset: 0x20C55A, size: 0x8, addend: 0x0, symName: '__ZN4core3ptr40drop_in_place$LT$syn..ty..ReturnType$GT$17hfd7f794d059fb3d2E', symObjAddr: 0x4F40, symBinAddr: 0x687D0, symSize: 0x50 }
  - { offsetInCU: 0x12DCF, offset: 0x20C6CA, size: 0x8, addend: 0x0, symName: '__ZN4core3ptr41drop_in_place$LT$syn..expr..ExprConst$GT$17hb3de85d21851b870E', symObjAddr: 0x4F90, symBinAddr: 0x68820, symSize: 0x180 }
  - { offsetInCU: 0x13388, offset: 0x20CC83, size: 0x8, addend: 0x0, symName: '__ZN4core3ptr44drop_in_place$LT$syn..lifetime..Lifetime$GT$17hb07dd50c5955fb35E', symObjAddr: 0x5110, symBinAddr: 0x689A0, symSize: 0x30 }
  - { offsetInCU: 0x135BA, offset: 0x20CEB5, size: 0x8, addend: 0x0, symName: '__ZN4core3ptr45drop_in_place$LT$proc_macro2..TokenStream$GT$17h5362bc4cba28da63E.llvm.14696262136265859327', symObjAddr: 0x5140, symBinAddr: 0x689D0, symSize: 0x140 }
  - { offsetInCU: 0x13A54, offset: 0x20D34F, size: 0x8, addend: 0x0, symName: '__ZN4core3ptr45drop_in_place$LT$syn..generics..TypeParam$GT$17hc7ad554d9eeeebceE', symObjAddr: 0x5280, symBinAddr: 0x68B10, symSize: 0x230 }
  - { offsetInCU: 0x14295, offset: 0x20DB90, size: 0x8, addend: 0x0, symName: '__ZN4core3ptr46drop_in_place$LT$syn..generics..ConstParam$GT$17h27b4e0dc162bd1d1E', symObjAddr: 0x54B0, symBinAddr: 0x68D40, symSize: 0x150 }
  - { offsetInCU: 0x146E2, offset: 0x20DFDD, size: 0x8, addend: 0x0, symName: '__ZN4core3ptr47drop_in_place$LT$syn..path..GenericArgument$GT$17hbbd563ff98e9beecE', symObjAddr: 0x5600, symBinAddr: 0x68E90, symSize: 0x450 }
  - { offsetInCU: 0x15458, offset: 0x20ED53, size: 0x8, addend: 0x0, symName: '__ZN4core3ptr49drop_in_place$LT$syn..generics..LifetimeParam$GT$17h217bc35af328a5a0E', symObjAddr: 0x5A50, symBinAddr: 0x692E0, symSize: 0xF0 }
  - { offsetInCU: 0x1583B, offset: 0x20F136, size: 0x8, addend: 0x0, symName: '__ZN4core3ptr50drop_in_place$LT$syn..generics..TypeParamBound$GT$17h8625d3fe1e19312aE', symObjAddr: 0x5B40, symBinAddr: 0x693D0, symSize: 0xA0 }
  - { offsetInCU: 0x159A1, offset: 0x20F29C, size: 0x8, addend: 0x0, symName: '__ZN4core3ptr58drop_in_place$LT$alloc..vec..Vec$LT$syn..expr..Arm$GT$$GT$17h05ff2414ffa1123bE', symObjAddr: 0x5BE0, symBinAddr: 0x69470, symSize: 0xD0 }
  - { offsetInCU: 0x15C61, offset: 0x20F55C, size: 0x8, addend: 0x0, symName: '__ZN4core3ptr59drop_in_place$LT$alloc..boxed..Box$LT$syn..pat..Pat$GT$$GT$17hb7c93ec8e1c96643E', symObjAddr: 0x5CB0, symBinAddr: 0x69540, symSize: 0x50 }
  - { offsetInCU: 0x15DBA, offset: 0x20F6B5, size: 0x8, addend: 0x0, symName: '__ZN4core3ptr59drop_in_place$LT$alloc..boxed..Box$LT$syn..ty..Type$GT$$GT$17hb95b5ff5597f137cE', symObjAddr: 0x5D00, symBinAddr: 0x69590, symSize: 0x50 }
  - { offsetInCU: 0x15F13, offset: 0x20F80E, size: 0x8, addend: 0x0, symName: '__ZN4core3ptr61drop_in_place$LT$alloc..boxed..Box$LT$syn..expr..Expr$GT$$GT$17h9491aa3708e9ad9dE', symObjAddr: 0x5D50, symBinAddr: 0x695E0, symSize: 0x50 }
  - { offsetInCU: 0x1606C, offset: 0x20F967, size: 0x8, addend: 0x0, symName: '__ZN4core3ptr61drop_in_place$LT$syn..path..ParenthesizedGenericArguments$GT$17h91b81dde2975a31fE', symObjAddr: 0x5DA0, symBinAddr: 0x69630, symSize: 0x170 }
  - { offsetInCU: 0x16675, offset: 0x20FF70, size: 0x8, addend: 0x0, symName: '__ZN4core3ptr63drop_in_place$LT$alloc..boxed..Box$LT$syn..lit..LitRepr$GT$$GT$17hcfa95594142fffd5E', symObjAddr: 0x5F10, symBinAddr: 0x697A0, symSize: 0x60 }
  - { offsetInCU: 0x1697C, offset: 0x210277, size: 0x8, addend: 0x0, symName: '__ZN4core3ptr64drop_in_place$LT$alloc..boxed..Box$LT$syn..pat..FieldPat$GT$$GT$17he472a16cb1d8da57E', symObjAddr: 0x5F70, symBinAddr: 0x69800, symSize: 0x140 }
  - { offsetInCU: 0x17049, offset: 0x210944, size: 0x8, addend: 0x0, symName: '__ZN4core3ptr64drop_in_place$LT$alloc..boxed..Box$LT$syn..ty..BareFnArg$GT$$GT$17haa798ceb4d63d514E', symObjAddr: 0x60B0, symBinAddr: 0x69940, symSize: 0x140 }
  - { offsetInCU: 0x1759E, offset: 0x210E99, size: 0x8, addend: 0x0, symName: '__ZN4core3ptr65drop_in_place$LT$alloc..vec..Vec$LT$proc_macro..TokenTree$GT$$GT$17h79f3e7fd38303a81E.llvm.14696262136265859327', symObjAddr: 0x61F0, symBinAddr: 0x69A80, symSize: 0x110 }
  - { offsetInCU: 0x17996, offset: 0x211291, size: 0x8, addend: 0x0, symName: '__ZN4core3ptr65drop_in_place$LT$core..option..Option$LT$syn..expr..Label$GT$$GT$17hdc00345ddddbd974E', symObjAddr: 0x6300, symBinAddr: 0x69B90, symSize: 0x30 }
  - { offsetInCU: 0x17AD0, offset: 0x2113CB, size: 0x8, addend: 0x0, symName: '__ZN4core3ptr66drop_in_place$LT$core..option..Option$LT$syn..pat..PatRest$GT$$GT$17h167e885b89721015E', symObjAddr: 0x6330, symBinAddr: 0x69BC0, symSize: 0xE0 }
  - { offsetInCU: 0x17DC4, offset: 0x2116BF, size: 0x8, addend: 0x0, symName: '__ZN4core3ptr67drop_in_place$LT$alloc..boxed..Box$LT$syn..expr..FieldValue$GT$$GT$17h35f55d2aea1459bfE', symObjAddr: 0x6410, symBinAddr: 0x69CA0, symSize: 0x140 }
  - { offsetInCU: 0x18318, offset: 0x211C13, size: 0x8, addend: 0x0, symName: '__ZN4core3ptr70drop_in_place$LT$core..option..Option$LT$syn..ty..BareVariadic$GT$$GT$17h7a7328bd70cf2580E', symObjAddr: 0x6550, symBinAddr: 0x69DE0, symSize: 0x100 }
  - { offsetInCU: 0x1874F, offset: 0x21204A, size: 0x8, addend: 0x0, symName: '__ZN4core3ptr72drop_in_place$LT$alloc..boxed..Box$LT$syn..path..GenericArgument$GT$$GT$17hd869661114e7eb2fE', symObjAddr: 0x6650, symBinAddr: 0x69EE0, symSize: 0x2B0 }
  - { offsetInCU: 0x19160, offset: 0x212A5B, size: 0x8, addend: 0x0, symName: '__ZN4core3ptr72drop_in_place$LT$core..option..Option$LT$syn..lifetime..Lifetime$GT$$GT$17h25f12c99b928716eE', symObjAddr: 0x6900, symBinAddr: 0x6A190, symSize: 0x30 }
  - { offsetInCU: 0x1927B, offset: 0x212B76, size: 0x8, addend: 0x0, symName: '__ZN4core3ptr73drop_in_place$LT$alloc..boxed..Box$LT$syn..generics..GenericParam$GT$$GT$17h3f6e2a0b1d08d5d4E', symObjAddr: 0x6930, symBinAddr: 0x6A1C0, symSize: 0x80 }
  - { offsetInCU: 0x193F1, offset: 0x212CEC, size: 0x8, addend: 0x0, symName: '__ZN4core3ptr75drop_in_place$LT$alloc..boxed..Box$LT$syn..generics..TypeParamBound$GT$$GT$17hcb0f7ecb0cbe9c25E', symObjAddr: 0x69B0, symBinAddr: 0x6A240, symSize: 0x180 }
  - { offsetInCU: 0x199DD, offset: 0x2132D8, size: 0x8, addend: 0x0, symName: '__ZN4core3ptr86drop_in_place$LT$syn..punctuated..Punctuated$LT$syn..pat..Pat$C$syn..token..Or$GT$$GT$17hbbaac93b620a59f0E', symObjAddr: 0x6B30, symBinAddr: 0x6A3C0, symSize: 0x120 }
  - { offsetInCU: 0x19E58, offset: 0x213753, size: 0x8, addend: 0x0, symName: '__ZN4core3ptr87drop_in_place$LT$core..option..Option$LT$alloc..boxed..Box$LT$syn..pat..Pat$GT$$GT$$GT$17hda27f65557d8367dE', symObjAddr: 0x6C50, symBinAddr: 0x6A4E0, symSize: 0x50 }
  - { offsetInCU: 0x19FC8, offset: 0x2138C3, size: 0x8, addend: 0x0, symName: '__ZN4core3ptr87drop_in_place$LT$core..option..Option$LT$alloc..boxed..Box$LT$syn..ty..Type$GT$$GT$$GT$17h0861a3ec4fa6e258E', symObjAddr: 0x6CA0, symBinAddr: 0x6A530, symSize: 0x50 }
  - { offsetInCU: 0x1A138, offset: 0x213A33, size: 0x8, addend: 0x0, symName: '__ZN4core3ptr89drop_in_place$LT$core..option..Option$LT$alloc..boxed..Box$LT$syn..expr..Expr$GT$$GT$$GT$17heab20deee7c3ee6dE', symObjAddr: 0x6CF0, symBinAddr: 0x6A580, symSize: 0x50 }
  - { offsetInCU: 0x1A2E6, offset: 0x213BE1, size: 0x8, addend: 0x0, symName: '__ZN4core3ptr89drop_in_place$LT$syn..punctuated..Punctuated$LT$syn..pat..Pat$C$syn..token..Comma$GT$$GT$17hd3071c3e257d3ee3E', symObjAddr: 0x6D40, symBinAddr: 0x6A5D0, symSize: 0x120 }
  - { offsetInCU: 0x1A7B6, offset: 0x2140B1, size: 0x8, addend: 0x0, symName: '__ZN4core3ptr91drop_in_place$LT$syn..punctuated..Punctuated$LT$syn..expr..Expr$C$syn..token..Comma$GT$$GT$17h2f1f4ce24d410019E', symObjAddr: 0x6E60, symBinAddr: 0x6A6F0, symSize: 0x120 }
  - { offsetInCU: 0x1AC44, offset: 0x21453F, size: 0x8, addend: 0x0, symName: '__ZN4core3ptr94drop_in_place$LT$syn..punctuated..Punctuated$LT$syn..pat..FieldPat$C$syn..token..Comma$GT$$GT$17h4738c9f46215af09E', symObjAddr: 0x6F80, symBinAddr: 0x6A810, symSize: 0xF0 }
  - { offsetInCU: 0x1AF43, offset: 0x21483E, size: 0x8, addend: 0x0, symName: '__ZN4core3ptr94drop_in_place$LT$syn..punctuated..Punctuated$LT$syn..ty..BareFnArg$C$syn..token..Comma$GT$$GT$17h6441ee8ed369fbe8E', symObjAddr: 0x7070, symBinAddr: 0x6A900, symSize: 0xF0 }
  - { offsetInCU: 0x1B244, offset: 0x214B3F, size: 0x8, addend: 0x0, symName: '__ZN4core3ptr96drop_in_place$LT$core..option..Option$LT$alloc..boxed..Box$LT$syn..path..PathSegment$GT$$GT$$GT$17hc38badba6091c6d8E', symObjAddr: 0x7160, symBinAddr: 0x6A9F0, symSize: 0x1A0 }
  - { offsetInCU: 0x1B905, offset: 0x215200, size: 0x8, addend: 0x0, symName: '__ZN4core3ptr97drop_in_place$LT$syn..punctuated..Punctuated$LT$syn..expr..FieldValue$C$syn..token..Comma$GT$$GT$17h163154fb91ad56d1E', symObjAddr: 0x7300, symBinAddr: 0x6AB90, symSize: 0xF0 }
  - { offsetInCU: 0x1BC7E, offset: 0x215579, size: 0x8, addend: 0x0, symName: '__ZN4core3ptr98drop_in_place$LT$syn..punctuated..Punctuated$LT$syn..lifetime..Lifetime$C$syn..token..Plus$GT$$GT$17h86851af115fa534bE', symObjAddr: 0x73F0, symBinAddr: 0x6AC80, symSize: 0xD0 }
  - { offsetInCU: 0x268D2, offset: 0x2201CD, size: 0x8, addend: 0x0, symName: __ZN3syn3lit6LitStr10parse_with17h11ca1d48eedbb036E, symObjAddr: 0xD0, symBinAddr: 0x63960, symSize: 0x360 }
  - { offsetInCU: 0x27487, offset: 0x220D82, size: 0x8, addend: 0x0, symName: __ZN3syn3lit6LitStr10parse_with17hb10fe9d880283f19E, symObjAddr: 0x430, symBinAddr: 0x63CC0, symSize: 0x3A0 }
  - { offsetInCU: 0x1E, offset: 0x2244C0, size: 0x8, addend: 0x0, symName: __ZN3syn11parse_quote5parse17h602593aff8d8ff47E, symObjAddr: 0x0, symBinAddr: 0x6AD50, symSize: 0x420 }
  - { offsetInCU: 0x1B8E, offset: 0x226030, size: 0x8, addend: 0x0, symName: '__ZN4core3ptr100drop_in_place$LT$core..option..Option$LT$alloc..boxed..Box$LT$syn..path..GenericArgument$GT$$GT$$GT$17hb5a67e4079e7919fE', symObjAddr: 0x890, symBinAddr: 0x6B590, symSize: 0x50 }
  - { offsetInCU: 0x1F2C, offset: 0x2263CE, size: 0x8, addend: 0x0, symName: '__ZN4core3ptr100drop_in_place$LT$syn..punctuated..Punctuated$LT$syn..path..PathSegment$C$syn..token..PathSep$GT$$GT$17h6b8714b021672400E', symObjAddr: 0x8E0, symBinAddr: 0x6B5E0, symSize: 0x270 }
  - { offsetInCU: 0x28CF, offset: 0x226D71, size: 0x8, addend: 0x0, symName: '__ZN4core3ptr103drop_in_place$LT$core..option..Option$LT$alloc..boxed..Box$LT$syn..generics..TypeParamBound$GT$$GT$$GT$17hdfcf4360b16eebfbE', symObjAddr: 0xB50, symBinAddr: 0x6B850, symSize: 0x50 }
  - { offsetInCU: 0x2ADA, offset: 0x226F7C, size: 0x8, addend: 0x0, symName: '__ZN4core3ptr103drop_in_place$LT$syn..punctuated..Punctuated$LT$syn..generics..GenericParam$C$syn..token..Comma$GT$$GT$17h93670e6688afe9d4E', symObjAddr: 0xBA0, symBinAddr: 0x6B8A0, symSize: 0xF0 }
  - { offsetInCU: 0x2FF4, offset: 0x227496, size: 0x8, addend: 0x0, symName: '__ZN4core3ptr104drop_in_place$LT$syn..punctuated..Punctuated$LT$syn..generics..TypeParamBound$C$syn..token..Plus$GT$$GT$17h890bf6e730b9f26fE', symObjAddr: 0xC90, symBinAddr: 0x6B990, symSize: 0x240 }
  - { offsetInCU: 0x392B, offset: 0x227DCD, size: 0x8, addend: 0x0, symName: '__ZN4core3ptr34drop_in_place$LT$syn..lit..Lit$GT$17h6e21d94489882724E', symObjAddr: 0xED0, symBinAddr: 0x6BBD0, symSize: 0x120 }
  - { offsetInCU: 0x3DFA, offset: 0x22829C, size: 0x8, addend: 0x0, symName: '__ZN4core3ptr34drop_in_place$LT$syn..pat..Pat$GT$17h12af3a77ec5e4c06E', symObjAddr: 0xFF0, symBinAddr: 0x6BCF0, symSize: 0x1090 }
  - { offsetInCU: 0x7DFA, offset: 0x22C29C, size: 0x8, addend: 0x0, symName: '__ZN4core3ptr34drop_in_place$LT$syn..ty..Type$GT$17h03ec94c8bf6d8c4bE', symObjAddr: 0x2080, symBinAddr: 0x6CD80, symSize: 0x4F0 }
  - { offsetInCU: 0x933D, offset: 0x22D7DF, size: 0x8, addend: 0x0, symName: '__ZN4core3ptr36drop_in_place$LT$syn..expr..Expr$GT$17hbf6e9783b008b839E', symObjAddr: 0x2570, symBinAddr: 0x6D270, symSize: 0x27D0 }
  - { offsetInCU: 0x12A71, offset: 0x236F13, size: 0x8, addend: 0x0, symName: '__ZN4core3ptr36drop_in_place$LT$syn..mac..Macro$GT$17hb7d376e8ff250e1eE', symObjAddr: 0x4D40, symBinAddr: 0x6FA40, symSize: 0x40 }
  - { offsetInCU: 0x12AAB, offset: 0x236F4D, size: 0x8, addend: 0x0, symName: '__ZN4core3ptr36drop_in_place$LT$syn..path..Path$GT$17h72ec20184e102e8fE', symObjAddr: 0x4D80, symBinAddr: 0x6FA80, symSize: 0x240 }
  - { offsetInCU: 0x13445, offset: 0x2378E7, size: 0x8, addend: 0x0, symName: '__ZN4core3ptr37drop_in_place$LT$syn..stmt..Block$GT$17h51c74ef5625755b3E', symObjAddr: 0x4FC0, symBinAddr: 0x6FCC0, symSize: 0xD0 }
  - { offsetInCU: 0x1375A, offset: 0x237BFC, size: 0x8, addend: 0x0, symName: '__ZN4core3ptr38drop_in_place$LT$syn..error..Error$GT$17h93ee8a83d34bad82E', symObjAddr: 0x5090, symBinAddr: 0x6FD90, symSize: 0x90 }
  - { offsetInCU: 0x13A1B, offset: 0x237EBD, size: 0x8, addend: 0x0, symName: '__ZN4core3ptr38drop_in_place$LT$syn..expr..Member$GT$17h8c060e1cf0c3bf66E', symObjAddr: 0x5120, symBinAddr: 0x6FE20, symSize: 0x30 }
  - { offsetInCU: 0x13B17, offset: 0x237FB9, size: 0x8, addend: 0x0, symName: '__ZN4core3ptr39drop_in_place$LT$proc_macro2..Ident$GT$17h99f97753d3a4af38E', symObjAddr: 0x5150, symBinAddr: 0x6FE50, symSize: 0x30 }
  - { offsetInCU: 0x13D2A, offset: 0x2381CC, size: 0x8, addend: 0x0, symName: '__ZN4core3ptr39drop_in_place$LT$syn..buffer..Entry$GT$17h61a159652b737e43E', symObjAddr: 0x5180, symBinAddr: 0x6FE80, symSize: 0xB0 }
  - { offsetInCU: 0x140B5, offset: 0x238557, size: 0x8, addend: 0x0, symName: '__ZN4core3ptr40drop_in_place$LT$syn..ty..ReturnType$GT$17hfd7f794d059fb3d2E', symObjAddr: 0x5230, symBinAddr: 0x6FF30, symSize: 0x50 }
  - { offsetInCU: 0x14225, offset: 0x2386C7, size: 0x8, addend: 0x0, symName: '__ZN4core3ptr41drop_in_place$LT$syn..expr..ExprConst$GT$17hb3de85d21851b870E', symObjAddr: 0x5280, symBinAddr: 0x6FF80, symSize: 0x180 }
  - { offsetInCU: 0x147DE, offset: 0x238C80, size: 0x8, addend: 0x0, symName: '__ZN4core3ptr44drop_in_place$LT$syn..lifetime..Lifetime$GT$17hb07dd50c5955fb35E', symObjAddr: 0x5400, symBinAddr: 0x70100, symSize: 0x30 }
  - { offsetInCU: 0x148DA, offset: 0x238D7C, size: 0x8, addend: 0x0, symName: '__ZN4core3ptr44drop_in_place$LT$syn..parse..ParseBuffer$GT$17h414ae3203566f226E', symObjAddr: 0x5430, symBinAddr: 0x70130, symSize: 0x70 }
  - { offsetInCU: 0x14C56, offset: 0x2390F8, size: 0x8, addend: 0x0, symName: '__ZN4core3ptr45drop_in_place$LT$proc_macro2..TokenStream$GT$17h5362bc4cba28da63E', symObjAddr: 0x54A0, symBinAddr: 0x701A0, symSize: 0x140 }
  - { offsetInCU: 0x150B2, offset: 0x239554, size: 0x8, addend: 0x0, symName: '__ZN4core3ptr45drop_in_place$LT$syn..buffer..TokenBuffer$GT$17h4dd1cad1b70fd82dE', symObjAddr: 0x55E0, symBinAddr: 0x702E0, symSize: 0xC0 }
  - { offsetInCU: 0x1531A, offset: 0x2397BC, size: 0x8, addend: 0x0, symName: '__ZN4core3ptr45drop_in_place$LT$syn..generics..TypeParam$GT$17hc7ad554d9eeeebceE', symObjAddr: 0x56A0, symBinAddr: 0x703A0, symSize: 0x230 }
  - { offsetInCU: 0x15B5B, offset: 0x239FFD, size: 0x8, addend: 0x0, symName: '__ZN4core3ptr46drop_in_place$LT$syn..generics..ConstParam$GT$17h27b4e0dc162bd1d1E', symObjAddr: 0x58D0, symBinAddr: 0x705D0, symSize: 0x150 }
  - { offsetInCU: 0x15FA8, offset: 0x23A44A, size: 0x8, addend: 0x0, symName: '__ZN4core3ptr47drop_in_place$LT$syn..path..GenericArgument$GT$17hbbd563ff98e9beecE', symObjAddr: 0x5A20, symBinAddr: 0x70720, symSize: 0x4A0 }
  - { offsetInCU: 0x170AE, offset: 0x23B550, size: 0x8, addend: 0x0, symName: '__ZN4core3ptr49drop_in_place$LT$syn..generics..LifetimeParam$GT$17h217bc35af328a5a0E', symObjAddr: 0x5EC0, symBinAddr: 0x70BC0, symSize: 0xF0 }
  - { offsetInCU: 0x17491, offset: 0x23B933, size: 0x8, addend: 0x0, symName: '__ZN4core3ptr50drop_in_place$LT$syn..generics..TypeParamBound$GT$17h8625d3fe1e19312aE', symObjAddr: 0x5FB0, symBinAddr: 0x70CB0, symSize: 0xA0 }
  - { offsetInCU: 0x17635, offset: 0x23BAD7, size: 0x8, addend: 0x0, symName: '__ZN4core3ptr50drop_in_place$LT$syn..generics..WherePredicate$GT$17hd291954f64354b17E', symObjAddr: 0x6050, symBinAddr: 0x70D50, symSize: 0xA0 }
  - { offsetInCU: 0x177D9, offset: 0x23BC7B, size: 0x8, addend: 0x0, symName: '__ZN4core3ptr58drop_in_place$LT$alloc..vec..Vec$LT$syn..expr..Arm$GT$$GT$17h05ff2414ffa1123bE', symObjAddr: 0x60F0, symBinAddr: 0x70DF0, symSize: 0xD0 }
  - { offsetInCU: 0x17A99, offset: 0x23BF3B, size: 0x8, addend: 0x0, symName: '__ZN4core3ptr59drop_in_place$LT$alloc..boxed..Box$LT$syn..pat..Pat$GT$$GT$17hb7c93ec8e1c96643E', symObjAddr: 0x61C0, symBinAddr: 0x70EC0, symSize: 0x50 }
  - { offsetInCU: 0x17BF2, offset: 0x23C094, size: 0x8, addend: 0x0, symName: '__ZN4core3ptr59drop_in_place$LT$alloc..boxed..Box$LT$syn..ty..Type$GT$$GT$17hb95b5ff5597f137cE', symObjAddr: 0x6210, symBinAddr: 0x70F10, symSize: 0x50 }
  - { offsetInCU: 0x17D4B, offset: 0x23C1ED, size: 0x8, addend: 0x0, symName: '__ZN4core3ptr61drop_in_place$LT$alloc..boxed..Box$LT$syn..expr..Expr$GT$$GT$17h9491aa3708e9ad9dE', symObjAddr: 0x6260, symBinAddr: 0x70F60, symSize: 0x50 }
  - { offsetInCU: 0x17F20, offset: 0x23C3C2, size: 0x8, addend: 0x0, symName: '__ZN4core3ptr61drop_in_place$LT$syn..path..ParenthesizedGenericArguments$GT$17h91b81dde2975a31fE', symObjAddr: 0x62B0, symBinAddr: 0x70FB0, symSize: 0x170 }
  - { offsetInCU: 0x18516, offset: 0x23C9B8, size: 0x8, addend: 0x0, symName: '__ZN4core3ptr62drop_in_place$LT$syn..path..AngleBracketedGenericArguments$GT$17h29bacf499fafc34bE', symObjAddr: 0x6420, symBinAddr: 0x71120, symSize: 0x120 }
  - { offsetInCU: 0x18961, offset: 0x23CE03, size: 0x8, addend: 0x0, symName: '__ZN4core3ptr63drop_in_place$LT$alloc..boxed..Box$LT$syn..lit..LitRepr$GT$$GT$17hcfa95594142fffd5E', symObjAddr: 0x6540, symBinAddr: 0x71240, symSize: 0x60 }
  - { offsetInCU: 0x18C68, offset: 0x23D10A, size: 0x8, addend: 0x0, symName: '__ZN4core3ptr64drop_in_place$LT$alloc..boxed..Box$LT$syn..pat..FieldPat$GT$$GT$17he472a16cb1d8da57E', symObjAddr: 0x65A0, symBinAddr: 0x712A0, symSize: 0x140 }
  - { offsetInCU: 0x19335, offset: 0x23D7D7, size: 0x8, addend: 0x0, symName: '__ZN4core3ptr64drop_in_place$LT$alloc..boxed..Box$LT$syn..ty..BareFnArg$GT$$GT$17haa798ceb4d63d514E', symObjAddr: 0x66E0, symBinAddr: 0x713E0, symSize: 0x140 }
  - { offsetInCU: 0x1988A, offset: 0x23DD2C, size: 0x8, addend: 0x0, symName: '__ZN4core3ptr65drop_in_place$LT$alloc..vec..Vec$LT$proc_macro..TokenTree$GT$$GT$17h79f3e7fd38303a81E', symObjAddr: 0x6820, symBinAddr: 0x71520, symSize: 0x110 }
  - { offsetInCU: 0x19C82, offset: 0x23E124, size: 0x8, addend: 0x0, symName: '__ZN4core3ptr65drop_in_place$LT$core..option..Option$LT$syn..expr..Label$GT$$GT$17hdc00345ddddbd974E', symObjAddr: 0x6930, symBinAddr: 0x71630, symSize: 0x30 }
  - { offsetInCU: 0x19DBC, offset: 0x23E25E, size: 0x8, addend: 0x0, symName: '__ZN4core3ptr66drop_in_place$LT$core..option..Option$LT$syn..pat..PatRest$GT$$GT$17h167e885b89721015E', symObjAddr: 0x6960, symBinAddr: 0x71660, symSize: 0xE0 }
  - { offsetInCU: 0x1A0B0, offset: 0x23E552, size: 0x8, addend: 0x0, symName: '__ZN4core3ptr67drop_in_place$LT$alloc..boxed..Box$LT$syn..expr..FieldValue$GT$$GT$17h35f55d2aea1459bfE', symObjAddr: 0x6A40, symBinAddr: 0x71740, symSize: 0x140 }
  - { offsetInCU: 0x1A5E5, offset: 0x23EA87, size: 0x8, addend: 0x0, symName: '__ZN4core3ptr68drop_in_place$LT$alloc..boxed..Box$LT$syn..path..PathSegment$GT$$GT$17hd508f81b8f7a2e78E', symObjAddr: 0x6B80, symBinAddr: 0x71880, symSize: 0x1B0 }
  - { offsetInCU: 0x1ACF3, offset: 0x23F195, size: 0x8, addend: 0x0, symName: '__ZN4core3ptr70drop_in_place$LT$core..option..Option$LT$syn..ty..BareVariadic$GT$$GT$17h7a7328bd70cf2580E', symObjAddr: 0x6D30, symBinAddr: 0x71A30, symSize: 0x100 }
  - { offsetInCU: 0x1B12A, offset: 0x23F5CC, size: 0x8, addend: 0x0, symName: '__ZN4core3ptr72drop_in_place$LT$alloc..boxed..Box$LT$syn..path..GenericArgument$GT$$GT$17hd869661114e7eb2fE', symObjAddr: 0x6E30, symBinAddr: 0x71B30, symSize: 0x2B0 }
  - { offsetInCU: 0x1BAE2, offset: 0x23FF84, size: 0x8, addend: 0x0, symName: '__ZN4core3ptr72drop_in_place$LT$core..option..Option$LT$syn..lifetime..Lifetime$GT$$GT$17h25f12c99b928716eE', symObjAddr: 0x70E0, symBinAddr: 0x71DE0, symSize: 0x30 }
  - { offsetInCU: 0x1BBFD, offset: 0x24009F, size: 0x8, addend: 0x0, symName: '__ZN4core3ptr73drop_in_place$LT$alloc..boxed..Box$LT$syn..generics..GenericParam$GT$$GT$17h3f6e2a0b1d08d5d4E', symObjAddr: 0x7110, symBinAddr: 0x71E10, symSize: 0x80 }
  - { offsetInCU: 0x1BD73, offset: 0x240215, size: 0x8, addend: 0x0, symName: '__ZN4core3ptr75drop_in_place$LT$alloc..boxed..Box$LT$syn..generics..TypeParamBound$GT$$GT$17hcb0f7ecb0cbe9c25E', symObjAddr: 0x7190, symBinAddr: 0x71E90, symSize: 0x180 }
  - { offsetInCU: 0x1C35F, offset: 0x240801, size: 0x8, addend: 0x0, symName: '__ZN4core3ptr86drop_in_place$LT$syn..punctuated..Punctuated$LT$syn..pat..Pat$C$syn..token..Or$GT$$GT$17hbbaac93b620a59f0E', symObjAddr: 0x7310, symBinAddr: 0x72010, symSize: 0x120 }
  - { offsetInCU: 0x1C7DA, offset: 0x240C7C, size: 0x8, addend: 0x0, symName: '__ZN4core3ptr87drop_in_place$LT$core..option..Option$LT$alloc..boxed..Box$LT$syn..pat..Pat$GT$$GT$$GT$17hda27f65557d8367dE', symObjAddr: 0x7430, symBinAddr: 0x72130, symSize: 0x50 }
  - { offsetInCU: 0x1C94A, offset: 0x240DEC, size: 0x8, addend: 0x0, symName: '__ZN4core3ptr87drop_in_place$LT$core..option..Option$LT$alloc..boxed..Box$LT$syn..ty..Type$GT$$GT$$GT$17h0861a3ec4fa6e258E', symObjAddr: 0x7480, symBinAddr: 0x72180, symSize: 0x50 }
  - { offsetInCU: 0x1CABA, offset: 0x240F5C, size: 0x8, addend: 0x0, symName: '__ZN4core3ptr89drop_in_place$LT$core..option..Option$LT$alloc..boxed..Box$LT$syn..expr..Expr$GT$$GT$$GT$17heab20deee7c3ee6dE', symObjAddr: 0x74D0, symBinAddr: 0x721D0, symSize: 0x50 }
  - { offsetInCU: 0x1CC68, offset: 0x24110A, size: 0x8, addend: 0x0, symName: '__ZN4core3ptr89drop_in_place$LT$syn..punctuated..Punctuated$LT$syn..pat..Pat$C$syn..token..Comma$GT$$GT$17hd3071c3e257d3ee3E', symObjAddr: 0x7520, symBinAddr: 0x72220, symSize: 0x120 }
  - { offsetInCU: 0x1D0FA, offset: 0x24159C, size: 0x8, addend: 0x0, symName: '__ZN4core3ptr89drop_in_place$LT$syn..punctuated..Punctuated$LT$syn..ty..Type$C$syn..token..Comma$GT$$GT$17h1894de61a59af999E', symObjAddr: 0x7640, symBinAddr: 0x72340, symSize: 0x120 }
  - { offsetInCU: 0x1D575, offset: 0x241A17, size: 0x8, addend: 0x0, symName: '__ZN4core3ptr90drop_in_place$LT$core..option..Option$LT$syn..path..AngleBracketedGenericArguments$GT$$GT$17hdef236189643d6dbE', symObjAddr: 0x7760, symBinAddr: 0x72460, symSize: 0x130 }
  - { offsetInCU: 0x1DA17, offset: 0x241EB9, size: 0x8, addend: 0x0, symName: '__ZN4core3ptr91drop_in_place$LT$syn..punctuated..Punctuated$LT$syn..expr..Expr$C$syn..token..Comma$GT$$GT$17h2f1f4ce24d410019E', symObjAddr: 0x7890, symBinAddr: 0x72590, symSize: 0x120 }
  - { offsetInCU: 0x1DEA5, offset: 0x242347, size: 0x8, addend: 0x0, symName: '__ZN4core3ptr94drop_in_place$LT$syn..punctuated..Punctuated$LT$syn..pat..FieldPat$C$syn..token..Comma$GT$$GT$17h4738c9f46215af09E', symObjAddr: 0x79B0, symBinAddr: 0x726B0, symSize: 0xF0 }
  - { offsetInCU: 0x1E1A4, offset: 0x242646, size: 0x8, addend: 0x0, symName: '__ZN4core3ptr94drop_in_place$LT$syn..punctuated..Punctuated$LT$syn..ty..BareFnArg$C$syn..token..Comma$GT$$GT$17h6441ee8ed369fbe8E', symObjAddr: 0x7AA0, symBinAddr: 0x727A0, symSize: 0xF0 }
  - { offsetInCU: 0x1E4A5, offset: 0x242947, size: 0x8, addend: 0x0, symName: '__ZN4core3ptr96drop_in_place$LT$core..option..Option$LT$alloc..boxed..Box$LT$syn..path..PathSegment$GT$$GT$$GT$17hc38badba6091c6d8E', symObjAddr: 0x7B90, symBinAddr: 0x72890, symSize: 0xA0 }
  - { offsetInCU: 0x1E724, offset: 0x242BC6, size: 0x8, addend: 0x0, symName: '__ZN4core3ptr97drop_in_place$LT$syn..punctuated..Punctuated$LT$syn..expr..FieldValue$C$syn..token..Comma$GT$$GT$17h163154fb91ad56d1E', symObjAddr: 0x7C30, symBinAddr: 0x72930, symSize: 0xF0 }
  - { offsetInCU: 0x1EA21, offset: 0x242EC3, size: 0x8, addend: 0x0, symName: '__ZN4core3ptr98drop_in_place$LT$alloc..vec..Vec$LT$$LP$syn..path..GenericArgument$C$syn..token..Comma$RP$$GT$$GT$17h374bd21798875d9aE', symObjAddr: 0x7D20, symBinAddr: 0x72A20, symSize: 0xD0 }
  - { offsetInCU: 0x1ED61, offset: 0x243203, size: 0x8, addend: 0x0, symName: '__ZN4core3ptr98drop_in_place$LT$syn..punctuated..Punctuated$LT$syn..lifetime..Lifetime$C$syn..token..Plus$GT$$GT$17h86851af115fa534bE', symObjAddr: 0x7DF0, symBinAddr: 0x72AF0, symSize: 0xC6 }
  - { offsetInCU: 0x26752, offset: 0x24ABF4, size: 0x8, addend: 0x0, symName: __ZN3syn11parse_quote5parse17h602593aff8d8ff47E, symObjAddr: 0x0, symBinAddr: 0x6AD50, symSize: 0x420 }
  - { offsetInCU: 0x26F57, offset: 0x24B3F9, size: 0x8, addend: 0x0, symName: __ZN3syn11parse_quote5parse17ha4a3591d4c513480E, symObjAddr: 0x420, symBinAddr: 0x6B170, symSize: 0x420 }
  - { offsetInCU: 0x27779, offset: 0x24BC1B, size: 0x8, addend: 0x0, symName: __ZN3syn11parse_quote5parse18panic_cold_display17hed684bde4ea43acbE, symObjAddr: 0x840, symBinAddr: 0x2321B0, symSize: 0x50 }
  - { offsetInCU: 0x15EC, offset: 0x2525F3, size: 0x8, addend: 0x0, symName: '__ZN4core3ptr100drop_in_place$LT$core..option..Option$LT$alloc..boxed..Box$LT$syn..path..GenericArgument$GT$$GT$$GT$17hb5a67e4079e7919fE', symObjAddr: 0xA0, symBinAddr: 0x72BC0, symSize: 0x50 }
  - { offsetInCU: 0x17B9, offset: 0x2527C0, size: 0x8, addend: 0x0, symName: '__ZN4core3ptr102drop_in_place$LT$syn..punctuated..Punctuated$LT$syn..path..GenericArgument$C$syn..token..Comma$GT$$GT$17hd8c171c87cfb4313E', symObjAddr: 0xF0, symBinAddr: 0x72C10, symSize: 0xF0 }
  - { offsetInCU: 0x1AD9, offset: 0x252AE0, size: 0x8, addend: 0x0, symName: '__ZN4core3ptr103drop_in_place$LT$core..option..Option$LT$alloc..boxed..Box$LT$syn..generics..TypeParamBound$GT$$GT$$GT$17hdfcf4360b16eebfbE', symObjAddr: 0x1E0, symBinAddr: 0x72D00, symSize: 0x50 }
  - { offsetInCU: 0x1CE4, offset: 0x252CEB, size: 0x8, addend: 0x0, symName: '__ZN4core3ptr103drop_in_place$LT$syn..punctuated..Punctuated$LT$syn..generics..GenericParam$C$syn..token..Comma$GT$$GT$17h93670e6688afe9d4E', symObjAddr: 0x230, symBinAddr: 0x72D50, symSize: 0xF0 }
  - { offsetInCU: 0x22B8, offset: 0x2532BF, size: 0x8, addend: 0x0, symName: '__ZN4core3ptr104drop_in_place$LT$syn..punctuated..Punctuated$LT$syn..generics..TypeParamBound$C$syn..token..Plus$GT$$GT$17h890bf6e730b9f26fE', symObjAddr: 0x320, symBinAddr: 0x72E40, symSize: 0x240 }
  - { offsetInCU: 0x2BEF, offset: 0x253BF6, size: 0x8, addend: 0x0, symName: '__ZN4core3ptr34drop_in_place$LT$syn..lit..Lit$GT$17h6e21d94489882724E', symObjAddr: 0x560, symBinAddr: 0x73080, symSize: 0x120 }
  - { offsetInCU: 0x30DD, offset: 0x2540E4, size: 0x8, addend: 0x0, symName: '__ZN4core3ptr34drop_in_place$LT$syn..pat..Pat$GT$17h12af3a77ec5e4c06E', symObjAddr: 0x680, symBinAddr: 0x731A0, symSize: 0xF40 }
  - { offsetInCU: 0x6BA3, offset: 0x257BAA, size: 0x8, addend: 0x0, symName: '__ZN4core3ptr34drop_in_place$LT$syn..ty..Type$GT$17h03ec94c8bf6d8c4bE', symObjAddr: 0x15C0, symBinAddr: 0x740E0, symSize: 0x580 }
  - { offsetInCU: 0x842C, offset: 0x259433, size: 0x8, addend: 0x0, symName: '__ZN4core3ptr36drop_in_place$LT$syn..expr..Expr$GT$17hbf6e9783b008b839E', symObjAddr: 0x1B40, symBinAddr: 0x74660, symSize: 0x2730 }
  - { offsetInCU: 0x1188C, offset: 0x262893, size: 0x8, addend: 0x0, symName: '__ZN4core3ptr36drop_in_place$LT$syn..mac..Macro$GT$17hb7d376e8ff250e1eE', symObjAddr: 0x4270, symBinAddr: 0x76D90, symSize: 0xE0 }
  - { offsetInCU: 0x11C16, offset: 0x262C1D, size: 0x8, addend: 0x0, symName: '__ZN4core3ptr36drop_in_place$LT$syn..path..Path$GT$17h72ec20184e102e8fE.llvm.7132881378565842890', symObjAddr: 0x4350, symBinAddr: 0x76E70, symSize: 0x240 }
  - { offsetInCU: 0x125B0, offset: 0x2635B7, size: 0x8, addend: 0x0, symName: '__ZN4core3ptr37drop_in_place$LT$syn..stmt..Block$GT$17h51c74ef5625755b3E', symObjAddr: 0x4590, symBinAddr: 0x770B0, symSize: 0xD0 }
  - { offsetInCU: 0x12887, offset: 0x26388E, size: 0x8, addend: 0x0, symName: '__ZN4core3ptr38drop_in_place$LT$syn..expr..Member$GT$17h8c060e1cf0c3bf66E', symObjAddr: 0x4660, symBinAddr: 0x77180, symSize: 0x30 }
  - { offsetInCU: 0x12983, offset: 0x26398A, size: 0x8, addend: 0x0, symName: '__ZN4core3ptr39drop_in_place$LT$proc_macro2..Ident$GT$17h99f97753d3a4af38E', symObjAddr: 0x4690, symBinAddr: 0x771B0, symSize: 0x30 }
  - { offsetInCU: 0x12A60, offset: 0x263A67, size: 0x8, addend: 0x0, symName: '__ZN4core3ptr40drop_in_place$LT$syn..ty..ReturnType$GT$17hfd7f794d059fb3d2E', symObjAddr: 0x46C0, symBinAddr: 0x771E0, symSize: 0x50 }
  - { offsetInCU: 0x12BD0, offset: 0x263BD7, size: 0x8, addend: 0x0, symName: '__ZN4core3ptr41drop_in_place$LT$syn..expr..ExprConst$GT$17hb3de85d21851b870E', symObjAddr: 0x4710, symBinAddr: 0x77230, symSize: 0x180 }
  - { offsetInCU: 0x13189, offset: 0x264190, size: 0x8, addend: 0x0, symName: '__ZN4core3ptr44drop_in_place$LT$syn..lifetime..Lifetime$GT$17hb07dd50c5955fb35E', symObjAddr: 0x4890, symBinAddr: 0x773B0, symSize: 0x30 }
  - { offsetInCU: 0x133BB, offset: 0x2643C2, size: 0x8, addend: 0x0, symName: '__ZN4core3ptr45drop_in_place$LT$proc_macro2..TokenStream$GT$17h5362bc4cba28da63E.llvm.7132881378565842890', symObjAddr: 0x48C0, symBinAddr: 0x773E0, symSize: 0x140 }
  - { offsetInCU: 0x13855, offset: 0x26485C, size: 0x8, addend: 0x0, symName: '__ZN4core3ptr45drop_in_place$LT$syn..generics..TypeParam$GT$17hc7ad554d9eeeebceE', symObjAddr: 0x4A00, symBinAddr: 0x77520, symSize: 0x230 }
  - { offsetInCU: 0x14096, offset: 0x26509D, size: 0x8, addend: 0x0, symName: '__ZN4core3ptr46drop_in_place$LT$syn..generics..ConstParam$GT$17h27b4e0dc162bd1d1E', symObjAddr: 0x4C30, symBinAddr: 0x77750, symSize: 0x150 }
  - { offsetInCU: 0x144E3, offset: 0x2654EA, size: 0x8, addend: 0x0, symName: '__ZN4core3ptr47drop_in_place$LT$syn..path..GenericArgument$GT$17hbbd563ff98e9beecE', symObjAddr: 0x4D80, symBinAddr: 0x778A0, symSize: 0x450 }
  - { offsetInCU: 0x15259, offset: 0x266260, size: 0x8, addend: 0x0, symName: '__ZN4core3ptr49drop_in_place$LT$syn..generics..LifetimeParam$GT$17h217bc35af328a5a0E', symObjAddr: 0x51D0, symBinAddr: 0x77CF0, symSize: 0xF0 }
  - { offsetInCU: 0x1563C, offset: 0x266643, size: 0x8, addend: 0x0, symName: '__ZN4core3ptr50drop_in_place$LT$syn..generics..TypeParamBound$GT$17h8625d3fe1e19312aE', symObjAddr: 0x52C0, symBinAddr: 0x77DE0, symSize: 0xA0 }
  - { offsetInCU: 0x157A2, offset: 0x2667A9, size: 0x8, addend: 0x0, symName: '__ZN4core3ptr58drop_in_place$LT$alloc..vec..Vec$LT$syn..expr..Arm$GT$$GT$17h05ff2414ffa1123bE', symObjAddr: 0x5360, symBinAddr: 0x77E80, symSize: 0xD0 }
  - { offsetInCU: 0x15A62, offset: 0x266A69, size: 0x8, addend: 0x0, symName: '__ZN4core3ptr59drop_in_place$LT$alloc..boxed..Box$LT$syn..pat..Pat$GT$$GT$17hb7c93ec8e1c96643E', symObjAddr: 0x5430, symBinAddr: 0x77F50, symSize: 0x50 }
  - { offsetInCU: 0x15BBB, offset: 0x266BC2, size: 0x8, addend: 0x0, symName: '__ZN4core3ptr59drop_in_place$LT$alloc..boxed..Box$LT$syn..ty..Type$GT$$GT$17hb95b5ff5597f137cE', symObjAddr: 0x5480, symBinAddr: 0x77FA0, symSize: 0x50 }
  - { offsetInCU: 0x15D14, offset: 0x266D1B, size: 0x8, addend: 0x0, symName: '__ZN4core3ptr61drop_in_place$LT$alloc..boxed..Box$LT$syn..expr..Expr$GT$$GT$17h9491aa3708e9ad9dE', symObjAddr: 0x54D0, symBinAddr: 0x77FF0, symSize: 0x50 }
  - { offsetInCU: 0x15E6D, offset: 0x266E74, size: 0x8, addend: 0x0, symName: '__ZN4core3ptr61drop_in_place$LT$syn..path..ParenthesizedGenericArguments$GT$17h91b81dde2975a31fE', symObjAddr: 0x5520, symBinAddr: 0x78040, symSize: 0x170 }
  - { offsetInCU: 0x16476, offset: 0x26747D, size: 0x8, addend: 0x0, symName: '__ZN4core3ptr63drop_in_place$LT$alloc..boxed..Box$LT$syn..lit..LitRepr$GT$$GT$17hcfa95594142fffd5E', symObjAddr: 0x5690, symBinAddr: 0x781B0, symSize: 0x60 }
  - { offsetInCU: 0x1677D, offset: 0x267784, size: 0x8, addend: 0x0, symName: '__ZN4core3ptr64drop_in_place$LT$alloc..boxed..Box$LT$syn..pat..FieldPat$GT$$GT$17he472a16cb1d8da57E', symObjAddr: 0x56F0, symBinAddr: 0x78210, symSize: 0x140 }
  - { offsetInCU: 0x16E4A, offset: 0x267E51, size: 0x8, addend: 0x0, symName: '__ZN4core3ptr64drop_in_place$LT$alloc..boxed..Box$LT$syn..ty..BareFnArg$GT$$GT$17haa798ceb4d63d514E', symObjAddr: 0x5830, symBinAddr: 0x78350, symSize: 0x140 }
  - { offsetInCU: 0x1739F, offset: 0x2683A6, size: 0x8, addend: 0x0, symName: '__ZN4core3ptr65drop_in_place$LT$alloc..vec..Vec$LT$proc_macro..TokenTree$GT$$GT$17h79f3e7fd38303a81E.llvm.7132881378565842890', symObjAddr: 0x5970, symBinAddr: 0x78490, symSize: 0x110 }
  - { offsetInCU: 0x17797, offset: 0x26879E, size: 0x8, addend: 0x0, symName: '__ZN4core3ptr65drop_in_place$LT$core..option..Option$LT$syn..expr..Label$GT$$GT$17hdc00345ddddbd974E', symObjAddr: 0x5A80, symBinAddr: 0x785A0, symSize: 0x30 }
  - { offsetInCU: 0x178D1, offset: 0x2688D8, size: 0x8, addend: 0x0, symName: '__ZN4core3ptr66drop_in_place$LT$core..option..Option$LT$syn..pat..PatRest$GT$$GT$17h167e885b89721015E', symObjAddr: 0x5AB0, symBinAddr: 0x785D0, symSize: 0xE0 }
  - { offsetInCU: 0x17BC5, offset: 0x268BCC, size: 0x8, addend: 0x0, symName: '__ZN4core3ptr67drop_in_place$LT$alloc..boxed..Box$LT$syn..expr..FieldValue$GT$$GT$17h35f55d2aea1459bfE', symObjAddr: 0x5B90, symBinAddr: 0x786B0, symSize: 0x140 }
  - { offsetInCU: 0x18119, offset: 0x269120, size: 0x8, addend: 0x0, symName: '__ZN4core3ptr70drop_in_place$LT$core..option..Option$LT$syn..ty..BareVariadic$GT$$GT$17h7a7328bd70cf2580E', symObjAddr: 0x5CD0, symBinAddr: 0x787F0, symSize: 0x100 }
  - { offsetInCU: 0x18550, offset: 0x269557, size: 0x8, addend: 0x0, symName: '__ZN4core3ptr72drop_in_place$LT$alloc..boxed..Box$LT$syn..path..GenericArgument$GT$$GT$17hd869661114e7eb2fE', symObjAddr: 0x5DD0, symBinAddr: 0x788F0, symSize: 0x2B0 }
  - { offsetInCU: 0x18F61, offset: 0x269F68, size: 0x8, addend: 0x0, symName: '__ZN4core3ptr72drop_in_place$LT$core..option..Option$LT$syn..lifetime..Lifetime$GT$$GT$17h25f12c99b928716eE', symObjAddr: 0x6080, symBinAddr: 0x78BA0, symSize: 0x30 }
  - { offsetInCU: 0x1907C, offset: 0x26A083, size: 0x8, addend: 0x0, symName: '__ZN4core3ptr73drop_in_place$LT$alloc..boxed..Box$LT$syn..generics..GenericParam$GT$$GT$17h3f6e2a0b1d08d5d4E', symObjAddr: 0x60B0, symBinAddr: 0x78BD0, symSize: 0x80 }
  - { offsetInCU: 0x191F2, offset: 0x26A1F9, size: 0x8, addend: 0x0, symName: '__ZN4core3ptr75drop_in_place$LT$alloc..boxed..Box$LT$syn..generics..TypeParamBound$GT$$GT$17hcb0f7ecb0cbe9c25E', symObjAddr: 0x6130, symBinAddr: 0x78C50, symSize: 0x180 }
  - { offsetInCU: 0x197DE, offset: 0x26A7E5, size: 0x8, addend: 0x0, symName: '__ZN4core3ptr86drop_in_place$LT$syn..punctuated..Punctuated$LT$syn..pat..Pat$C$syn..token..Or$GT$$GT$17hbbaac93b620a59f0E', symObjAddr: 0x62B0, symBinAddr: 0x78DD0, symSize: 0x120 }
  - { offsetInCU: 0x19C59, offset: 0x26AC60, size: 0x8, addend: 0x0, symName: '__ZN4core3ptr87drop_in_place$LT$core..option..Option$LT$alloc..boxed..Box$LT$syn..pat..Pat$GT$$GT$$GT$17hda27f65557d8367dE', symObjAddr: 0x63D0, symBinAddr: 0x78EF0, symSize: 0x50 }
  - { offsetInCU: 0x19DC9, offset: 0x26ADD0, size: 0x8, addend: 0x0, symName: '__ZN4core3ptr87drop_in_place$LT$core..option..Option$LT$alloc..boxed..Box$LT$syn..ty..Type$GT$$GT$$GT$17h0861a3ec4fa6e258E', symObjAddr: 0x6420, symBinAddr: 0x78F40, symSize: 0x50 }
  - { offsetInCU: 0x19F39, offset: 0x26AF40, size: 0x8, addend: 0x0, symName: '__ZN4core3ptr89drop_in_place$LT$core..option..Option$LT$alloc..boxed..Box$LT$syn..expr..Expr$GT$$GT$$GT$17heab20deee7c3ee6dE', symObjAddr: 0x6470, symBinAddr: 0x78F90, symSize: 0x50 }
  - { offsetInCU: 0x1A0E7, offset: 0x26B0EE, size: 0x8, addend: 0x0, symName: '__ZN4core3ptr89drop_in_place$LT$syn..punctuated..Punctuated$LT$syn..pat..Pat$C$syn..token..Comma$GT$$GT$17hd3071c3e257d3ee3E', symObjAddr: 0x64C0, symBinAddr: 0x78FE0, symSize: 0x120 }
  - { offsetInCU: 0x1A5B7, offset: 0x26B5BE, size: 0x8, addend: 0x0, symName: '__ZN4core3ptr91drop_in_place$LT$syn..punctuated..Punctuated$LT$syn..expr..Expr$C$syn..token..Comma$GT$$GT$17h2f1f4ce24d410019E', symObjAddr: 0x65E0, symBinAddr: 0x79100, symSize: 0x120 }
  - { offsetInCU: 0x1AA45, offset: 0x26BA4C, size: 0x8, addend: 0x0, symName: '__ZN4core3ptr94drop_in_place$LT$syn..punctuated..Punctuated$LT$syn..pat..FieldPat$C$syn..token..Comma$GT$$GT$17h4738c9f46215af09E', symObjAddr: 0x6700, symBinAddr: 0x79220, symSize: 0xF0 }
  - { offsetInCU: 0x1AD44, offset: 0x26BD4B, size: 0x8, addend: 0x0, symName: '__ZN4core3ptr94drop_in_place$LT$syn..punctuated..Punctuated$LT$syn..ty..BareFnArg$C$syn..token..Comma$GT$$GT$17h6441ee8ed369fbe8E', symObjAddr: 0x67F0, symBinAddr: 0x79310, symSize: 0xF0 }
  - { offsetInCU: 0x1B045, offset: 0x26C04C, size: 0x8, addend: 0x0, symName: '__ZN4core3ptr96drop_in_place$LT$core..option..Option$LT$alloc..boxed..Box$LT$syn..path..PathSegment$GT$$GT$$GT$17hc38badba6091c6d8E', symObjAddr: 0x68E0, symBinAddr: 0x79400, symSize: 0x1A0 }
  - { offsetInCU: 0x1B706, offset: 0x26C70D, size: 0x8, addend: 0x0, symName: '__ZN4core3ptr97drop_in_place$LT$syn..punctuated..Punctuated$LT$syn..expr..FieldValue$C$syn..token..Comma$GT$$GT$17h163154fb91ad56d1E', symObjAddr: 0x6A80, symBinAddr: 0x795A0, symSize: 0xF0 }
  - { offsetInCU: 0x1BA7F, offset: 0x26CA86, size: 0x8, addend: 0x0, symName: '__ZN4core3ptr98drop_in_place$LT$syn..punctuated..Punctuated$LT$syn..lifetime..Lifetime$C$syn..token..Plus$GT$$GT$17h86851af115fa534bE', symObjAddr: 0x6B70, symBinAddr: 0x79690, symSize: 0xD0 }
  - { offsetInCU: 0x35, offset: 0x278313, size: 0x8, addend: 0x0, symName: _anon.0a0e83117a75bd4cb9b62a4a2bf05e51.2.llvm.632683881006801552, symObjAddr: 0x1450, symBinAddr: 0x2A4A50, symSize: 0x0 }
  - { offsetInCU: 0x281, offset: 0x27855F, size: 0x8, addend: 0x0, symName: '__ZN58_$LT$alloc..string..String$u20$as$u20$core..fmt..Write$GT$10write_char17h04bc467bd68a934bE.llvm.632683881006801552', symObjAddr: 0xFF0, symBinAddr: 0x7A650, symSize: 0x140 }
  - { offsetInCU: 0x687, offset: 0x278965, size: 0x8, addend: 0x0, symName: '__ZN58_$LT$alloc..string..String$u20$as$u20$core..fmt..Write$GT$9write_str17h46a93205c3443fbaE.llvm.632683881006801552', symObjAddr: 0x1130, symBinAddr: 0x7A790, symSize: 0x5B }
  - { offsetInCU: 0x132F, offset: 0x27960D, size: 0x8, addend: 0x0, symName: '__ZN4core3ptr42drop_in_place$LT$alloc..string..String$GT$17hfe9675182ef40682E.llvm.632683881006801552', symObjAddr: 0xD60, symBinAddr: 0x7A3C0, symSize: 0x20 }
  - { offsetInCU: 0x156D, offset: 0x27984B, size: 0x8, addend: 0x0, symName: '__ZN4core3ptr45drop_in_place$LT$proc_macro2..TokenStream$GT$17h5362bc4cba28da63E.llvm.632683881006801552', symObjAddr: 0xD80, symBinAddr: 0x7A3E0, symSize: 0x140 }
  - { offsetInCU: 0x19C9, offset: 0x279CA7, size: 0x8, addend: 0x0, symName: '__ZN4core3ptr65drop_in_place$LT$alloc..vec..Vec$LT$proc_macro..TokenTree$GT$$GT$17h79f3e7fd38303a81E.llvm.632683881006801552', symObjAddr: 0xEC0, symBinAddr: 0x7A520, symSize: 0x110 }
  - { offsetInCU: 0x20E0, offset: 0x27A3BE, size: 0x8, addend: 0x0, symName: '__ZN53_$LT$core..fmt..Error$u20$as$u20$core..fmt..Debug$GT$3fmt17h03dc662ab152f3aeE.llvm.632683881006801552', symObjAddr: 0xFD0, symBinAddr: 0x7A630, symSize: 0x20 }
  - { offsetInCU: 0x25D8, offset: 0x27A8B6, size: 0x8, addend: 0x0, symName: _anon.0a0e83117a75bd4cb9b62a4a2bf05e51.6.llvm.632683881006801552, symObjAddr: 0x1498, symBinAddr: 0x2A4A98, symSize: 0x0 }
  - { offsetInCU: 0x28C2, offset: 0x27ABA0, size: 0x8, addend: 0x0, symName: __ZN3syn5error6new_at17h1114d8f821580354E, symObjAddr: 0xC60, symBinAddr: 0x7A2C0, symSize: 0x100 }
  - { offsetInCU: 0x2DEB, offset: 0x27B0C9, size: 0x8, addend: 0x0, symName: __ZN3syn5error5Error11new_spanned17h654e1bd72ef1f68cE, symObjAddr: 0x80, symBinAddr: 0x79760, symSize: 0xE0 }
  - { offsetInCU: 0x318B, offset: 0x27B469, size: 0x8, addend: 0x0, symName: __ZN3syn5error5Error11new_spanned17hab421620a0fbe169E, symObjAddr: 0x160, symBinAddr: 0x79840, symSize: 0x180 }
  - { offsetInCU: 0x3416, offset: 0x27B6F4, size: 0x8, addend: 0x0, symName: __ZN3syn5error5Error11new_spanned17hc482f3ae5cc4701cE, symObjAddr: 0x2E0, symBinAddr: 0x799C0, symSize: 0x180 }
  - { offsetInCU: 0x36C9, offset: 0x27B9A7, size: 0x8, addend: 0x0, symName: __ZN3syn5error5Error11new_spanned17hd34ffe53b4c87e69E, symObjAddr: 0x460, symBinAddr: 0x79B40, symSize: 0x190 }
  - { offsetInCU: 0x397C, offset: 0x27BC5A, size: 0x8, addend: 0x0, symName: __ZN3syn5error5Error11new_spanned17he9d7140621f39a34E, symObjAddr: 0x5F0, symBinAddr: 0x79CD0, symSize: 0x180 }
  - { offsetInCU: 0x3BEF, offset: 0x27BECD, size: 0x8, addend: 0x0, symName: __ZN3syn5error5Error11new_spanned17heffeb86505d5bc12E, symObjAddr: 0x770, symBinAddr: 0x79E50, symSize: 0x190 }
  - { offsetInCU: 0x3EA2, offset: 0x27C180, size: 0x8, addend: 0x0, symName: __ZN3syn5error5Error3new17h3d67c5277980e65aE, symObjAddr: 0x900, symBinAddr: 0x79FE0, symSize: 0x100 }
  - { offsetInCU: 0x4094, offset: 0x27C372, size: 0x8, addend: 0x0, symName: __ZN3syn5error5Error3new17h60dabc1fa08217f5E, symObjAddr: 0xA00, symBinAddr: 0x7A0E0, symSize: 0xF0 }
  - { offsetInCU: 0x44AA, offset: 0x27C788, size: 0x8, addend: 0x0, symName: __ZN3syn5error5Error3new17h7151c0ec090fe0c1E, symObjAddr: 0xAF0, symBinAddr: 0x7A1D0, symSize: 0xF0 }
  - { offsetInCU: 0x1E, offset: 0x286A1F, size: 0x8, addend: 0x0, symName: '__ZN4core3ptr73drop_in_place$LT$core..cell..UnsafeCell$LT$syn..parse..Unexpected$GT$$GT$17h499ddb4cb4b7be7fE.llvm.15597074751518223249', symObjAddr: 0x0, symBinAddr: 0x7A7F0, symSize: 0x50 }
  - { offsetInCU: 0xB7D, offset: 0x28757E, size: 0x8, addend: 0x0, symName: '__ZN4core3ptr73drop_in_place$LT$core..cell..UnsafeCell$LT$syn..parse..Unexpected$GT$$GT$17h499ddb4cb4b7be7fE.llvm.15597074751518223249', symObjAddr: 0x0, symBinAddr: 0x7A7F0, symSize: 0x50 }
  - { offsetInCU: 0x171C, offset: 0x28811D, size: 0x8, addend: 0x0, symName: '__ZN68_$LT$alloc..rc..Rc$LT$T$C$A$GT$$u20$as$u20$core..ops..drop..Drop$GT$4drop17h04b0c5b4cae3437aE', symObjAddr: 0x100, symBinAddr: 0x7A840, symSize: 0xE0 }
  - { offsetInCU: 0x1C3D, offset: 0x28863E, size: 0x8, addend: 0x0, symName: '__ZN68_$LT$alloc..rc..Rc$LT$T$C$A$GT$$u20$as$u20$core..ops..drop..Drop$GT$4drop17h92af1a89353ed728E', symObjAddr: 0x1E0, symBinAddr: 0x7A920, symSize: 0x40 }
  - { offsetInCU: 0x2149, offset: 0x288B4A, size: 0x8, addend: 0x0, symName: '__ZN80_$LT$alloc..rc..UniqueRcUninit$LT$T$C$A$GT$$u20$as$u20$core..ops..drop..Drop$GT$4drop17hdd5cd07b2eaa5d8fE', symObjAddr: 0x220, symBinAddr: 0x7A960, symSize: 0x4F }
  - { offsetInCU: 0x1E, offset: 0x2895BB, size: 0x8, addend: 0x0, symName: __ZN3syn4attr9Attribute15parse_args_with17h3d6a89ae5bc0922fE, symObjAddr: 0x0, symBinAddr: 0x7A9B0, symSize: 0x2F0 }
  - { offsetInCU: 0xA618, offset: 0x293BB5, size: 0x8, addend: 0x0, symName: __ZN3syn4attr9Attribute15parse_args_with17h3d6a89ae5bc0922fE, symObjAddr: 0x0, symBinAddr: 0x7A9B0, symSize: 0x2F0 }
  - { offsetInCU: 0xB38F, offset: 0x29492C, size: 0x8, addend: 0x0, symName: __ZN3syn4attr9Attribute15parse_args_with17h764120424790e6a8E, symObjAddr: 0x2F0, symBinAddr: 0x7ACA0, symSize: 0x2DC }
  - { offsetInCU: 0x7AF, offset: 0x2964FC, size: 0x8, addend: 0x0, symName: '__ZN68_$LT$$RF$str$u20$as$u20$proc_macro..bridge..rpc..Encode$LT$S$GT$$GT$6encode17h448bd9049ebcf028E', symObjAddr: 0x80, symBinAddr: 0x7AF80, symSize: 0x230 }
  - { offsetInCU: 0x1E, offset: 0x296B5C, size: 0x8, addend: 0x0, symName: '__ZN120_$LT$proc_macro2..fallback..TokenStream$u20$as$u20$core..iter..traits..collect..Extend$LT$proc_macro2..TokenTree$GT$$GT$6extend17h8922cde5d28ccb44E', symObjAddr: 0x0, symBinAddr: 0x7B1B0, symSize: 0x280 }
  - { offsetInCU: 0x9AC, offset: 0x2974EA, size: 0x8, addend: 0x0, symName: '__ZN120_$LT$proc_macro2..fallback..TokenStream$u20$as$u20$core..iter..traits..collect..Extend$LT$proc_macro2..TokenTree$GT$$GT$6extend17h8922cde5d28ccb44E', symObjAddr: 0x0, symBinAddr: 0x7B1B0, symSize: 0x280 }
  - { offsetInCU: 0x1333, offset: 0x297E71, size: 0x8, addend: 0x0, symName: '__ZN78_$LT$proc_macro2..fallback..Ident$u20$as$u20$core..cmp..PartialEq$LT$T$GT$$GT$2eq17he37703a6f0d60301E', symObjAddr: 0x4F0, symBinAddr: 0x7B6A0, symSize: 0x72 }
  - { offsetInCU: 0x1FC1, offset: 0x298AFF, size: 0x8, addend: 0x0, symName: '__ZN4core3ptr45drop_in_place$LT$proc_macro2..TokenStream$GT$17h5362bc4cba28da63E', symObjAddr: 0x280, symBinAddr: 0x7B430, symSize: 0x140 }
  - { offsetInCU: 0x241D, offset: 0x298F5B, size: 0x8, addend: 0x0, symName: '__ZN4core3ptr56drop_in_place$LT$proc_macro2..token_stream..IntoIter$GT$17h12d6315fb17af1c5E', symObjAddr: 0x3C0, symBinAddr: 0x7B570, symSize: 0x20 }
  - { offsetInCU: 0x24CD, offset: 0x29900B, size: 0x8, addend: 0x0, symName: '__ZN4core3ptr65drop_in_place$LT$alloc..vec..Vec$LT$proc_macro..TokenTree$GT$$GT$17h79f3e7fd38303a81E', symObjAddr: 0x3E0, symBinAddr: 0x7B590, symSize: 0x110 }
  - { offsetInCU: 0x98, offset: 0x29B3B5, size: 0x8, addend: 0x0, symName: '__ZN58_$LT$alloc..string..String$u20$as$u20$core..fmt..Write$GT$10write_char17h04bc467bd68a934bE', symObjAddr: 0x60, symBinAddr: 0x7B760, symSize: 0x140 }
  - { offsetInCU: 0x49D, offset: 0x29B7BA, size: 0x8, addend: 0x0, symName: '__ZN58_$LT$alloc..string..String$u20$as$u20$core..fmt..Write$GT$9write_str17h46a93205c3443fbaE', symObjAddr: 0x1A0, symBinAddr: 0x7B8A0, symSize: 0x5B }
  - { offsetInCU: 0xAC1, offset: 0x29BDDE, size: 0x8, addend: 0x0, symName: '__ZN4core3ptr42drop_in_place$LT$alloc..string..String$GT$17hfe9675182ef40682E', symObjAddr: 0x40, symBinAddr: 0x7B740, symSize: 0x20 }
  - { offsetInCU: 0xEAD, offset: 0x29C1CA, size: 0x8, addend: 0x0, symName: __ZN4core3fmt5Write9write_fmt17habf248b38f63b012E, symObjAddr: 0x20, symBinAddr: 0x7B720, symSize: 0x20 }
  - { offsetInCU: 0x1E, offset: 0x29CC26, size: 0x8, addend: 0x0, symName: __ZN10proc_macro6bridge14selfless_reify31reify_to_extern_c_fn_hrt_bridge7wrapper17h2a30805ce1330e63E, symObjAddr: 0x0, symBinAddr: 0x7B900, symSize: 0x30 }
  - { offsetInCU: 0x3B9, offset: 0x29CFC1, size: 0x8, addend: 0x0, symName: __ZN10proc_macro6bridge14selfless_reify31reify_to_extern_c_fn_hrt_bridge7wrapper17h2a30805ce1330e63E, symObjAddr: 0x0, symBinAddr: 0x7B900, symSize: 0x30 }
  - { offsetInCU: 0x432, offset: 0x29D03A, size: 0x8, addend: 0x0, symName: __ZN10proc_macro6bridge14selfless_reify31reify_to_extern_c_fn_hrt_bridge7wrapper17h2fcc736928ce9e48E, symObjAddr: 0x30, symBinAddr: 0x7B930, symSize: 0x30 }
  - { offsetInCU: 0x4AB, offset: 0x29D0B3, size: 0x8, addend: 0x0, symName: __ZN10proc_macro6bridge14selfless_reify31reify_to_extern_c_fn_hrt_bridge7wrapper17h8bbab4510bed177aE, symObjAddr: 0x60, symBinAddr: 0x7B960, symSize: 0x30 }
  - { offsetInCU: 0x524, offset: 0x29D12C, size: 0x8, addend: 0x0, symName: __ZN10proc_macro6bridge14selfless_reify31reify_to_extern_c_fn_hrt_bridge7wrapper17hcde46b1b8d421721E, symObjAddr: 0x90, symBinAddr: 0x7B990, symSize: 0x30 }
  - { offsetInCU: 0x59D, offset: 0x29D1A5, size: 0x8, addend: 0x0, symName: __ZN10proc_macro6bridge14selfless_reify31reify_to_extern_c_fn_hrt_bridge7wrapper17hcea3d2dc69666bf7E, symObjAddr: 0xC0, symBinAddr: 0x7B9C0, symSize: 0x30 }
  - { offsetInCU: 0x616, offset: 0x29D21E, size: 0x8, addend: 0x0, symName: __ZN10proc_macro6bridge14selfless_reify31reify_to_extern_c_fn_hrt_bridge7wrapper17hd3b6b49148aec663E, symObjAddr: 0xF0, symBinAddr: 0x7B9F0, symSize: 0x30 }
  - { offsetInCU: 0x68F, offset: 0x29D297, size: 0x8, addend: 0x0, symName: __ZN10proc_macro6bridge14selfless_reify31reify_to_extern_c_fn_hrt_bridge7wrapper17he2b88a7346ef5ab0E, symObjAddr: 0x120, symBinAddr: 0x7BA20, symSize: 0x30 }
  - { offsetInCU: 0x708, offset: 0x29D310, size: 0x8, addend: 0x0, symName: __ZN10proc_macro6bridge14selfless_reify31reify_to_extern_c_fn_hrt_bridge7wrapper17hfb7119e142502f1dE, symObjAddr: 0x150, symBinAddr: 0x7BA50, symSize: 0x30 }
  - { offsetInCU: 0x781, offset: 0x29D389, size: 0x8, addend: 0x0, symName: __ZN10proc_macro6bridge14selfless_reify31reify_to_extern_c_fn_hrt_bridge7wrapper17hfbc051be5f456b32E, symObjAddr: 0x180, symBinAddr: 0x7BA80, symSize: 0x25 }
  - { offsetInCU: 0x1E, offset: 0x29D5E0, size: 0x8, addend: 0x0, symName: '__ZN10proc_macro6bridge100_$LT$impl$u20$proc_macro..bridge..rpc..Encode$LT$S$GT$$u20$for$u20$core..option..Option$LT$T$GT$$GT$6encode17h0f7c924e1b797508E', symObjAddr: 0x0, symBinAddr: 0x7BAB0, symSize: 0x350 }
  - { offsetInCU: 0x354, offset: 0x29D916, size: 0x8, addend: 0x0, symName: '__ZN10proc_macro6bridge100_$LT$impl$u20$proc_macro..bridge..rpc..Encode$LT$S$GT$$u20$for$u20$core..option..Option$LT$T$GT$$GT$6encode17h0f7c924e1b797508E', symObjAddr: 0x0, symBinAddr: 0x7BAB0, symSize: 0x350 }
  - { offsetInCU: 0x8FD, offset: 0x29DEBF, size: 0x8, addend: 0x0, symName: '__ZN10proc_macro6bridge100_$LT$impl$u20$proc_macro..bridge..rpc..Encode$LT$S$GT$$u20$for$u20$core..option..Option$LT$T$GT$$GT$6encode17hf2c65c34da8a2202E', symObjAddr: 0x350, symBinAddr: 0x7BE00, symSize: 0x240 }
  - { offsetInCU: 0x1E, offset: 0x29E6C8, size: 0x8, addend: 0x0, symName: '__ZN115_$LT$proc_macro2..imp..TokenStream$u20$as$u20$core..iter..traits..collect..Extend$LT$proc_macro2..TokenTree$GT$$GT$6extend17h181d569be1d48c7fE', symObjAddr: 0x0, symBinAddr: 0x7C040, symSize: 0x110 }
  - { offsetInCU: 0x78B, offset: 0x29EE35, size: 0x8, addend: 0x0, symName: '__ZN115_$LT$proc_macro2..imp..TokenStream$u20$as$u20$core..iter..traits..collect..Extend$LT$proc_macro2..TokenTree$GT$$GT$6extend17h181d569be1d48c7fE', symObjAddr: 0x0, symBinAddr: 0x7C040, symSize: 0x110 }
  - { offsetInCU: 0x1673, offset: 0x29FD1D, size: 0x8, addend: 0x0, symName: '__ZN4core3ptr56drop_in_place$LT$proc_macro2..token_stream..IntoIter$GT$17h12d6315fb17af1c5E.llvm.7152988751588762029', symObjAddr: 0x130, symBinAddr: 0x7C150, symSize: 0x20 }
  - { offsetInCU: 0x1E, offset: 0x2A00E3, size: 0x8, addend: 0x0, symName: '__ZN10proc_macro6bridge104_$LT$impl$u20$proc_macro..bridge..rpc..Encode$LT$S$GT$$u20$for$u20$core..result..Result$LT$T$C$E$GT$$GT$6encode17hb195875996399ab2E', symObjAddr: 0x0, symBinAddr: 0x7C170, symSize: 0x300 }
  - { offsetInCU: 0x149, offset: 0x2A020E, size: 0x8, addend: 0x0, symName: '__ZN10proc_macro6bridge104_$LT$impl$u20$proc_macro..bridge..rpc..Encode$LT$S$GT$$u20$for$u20$core..result..Result$LT$T$C$E$GT$$GT$6encode17hb195875996399ab2E', symObjAddr: 0x0, symBinAddr: 0x7C170, symSize: 0x300 }
  - { offsetInCU: 0x5E6, offset: 0x2A06AB, size: 0x8, addend: 0x0, symName: '__ZN10proc_macro6bridge104_$LT$impl$u20$proc_macro..bridge..rpc..Encode$LT$S$GT$$u20$for$u20$core..result..Result$LT$T$C$E$GT$$GT$6encode17hfcfe8aef2ec55d0fE', symObjAddr: 0x300, symBinAddr: 0x7C470, symSize: 0x280 }
  - { offsetInCU: 0x1E, offset: 0x2A1369, size: 0x8, addend: 0x0, symName: '__ZN44_$LT$$RF$T$u20$as$u20$core..fmt..Display$GT$3fmt17he92ab2f8e266861cE', symObjAddr: 0x0, symBinAddr: 0x7C6F0, symSize: 0x10 }
  - { offsetInCU: 0x64, offset: 0x2A13AF, size: 0x8, addend: 0x0, symName: '__ZN44_$LT$$RF$T$u20$as$u20$core..fmt..Display$GT$3fmt17he92ab2f8e266861cE', symObjAddr: 0x0, symBinAddr: 0x7C6F0, symSize: 0x10 }
  - { offsetInCU: 0x360, offset: 0x2A16AB, size: 0x8, addend: 0x0, symName: '__ZN4core3ptr45drop_in_place$LT$proc_macro2..TokenStream$GT$17h5362bc4cba28da63E.llvm.5071500381328583329', symObjAddr: 0x10, symBinAddr: 0x7C700, symSize: 0x140 }
  - { offsetInCU: 0x7BC, offset: 0x2A1B07, size: 0x8, addend: 0x0, symName: '__ZN4core3ptr65drop_in_place$LT$alloc..vec..Vec$LT$proc_macro..TokenTree$GT$$GT$17h79f3e7fd38303a81E.llvm.5071500381328583329', symObjAddr: 0x150, symBinAddr: 0x7C840, symSize: 0x110 }
  - { offsetInCU: 0x1E, offset: 0x2A33A6, size: 0x8, addend: 0x0, symName: '__ZN4core3ptr45drop_in_place$LT$proc_macro2..TokenStream$GT$17h5362bc4cba28da63E.llvm.18360582611418865148', symObjAddr: 0x0, symBinAddr: 0x7C950, symSize: 0x140 }
  - { offsetInCU: 0xB2C, offset: 0x2A3EB4, size: 0x8, addend: 0x0, symName: '__ZN4core3ptr45drop_in_place$LT$proc_macro2..TokenStream$GT$17h5362bc4cba28da63E.llvm.18360582611418865148', symObjAddr: 0x0, symBinAddr: 0x7C950, symSize: 0x140 }
  - { offsetInCU: 0xF88, offset: 0x2A4310, size: 0x8, addend: 0x0, symName: '__ZN4core3ptr65drop_in_place$LT$alloc..vec..Vec$LT$proc_macro..TokenTree$GT$$GT$17h79f3e7fd38303a81E.llvm.18360582611418865148', symObjAddr: 0x140, symBinAddr: 0x7CA90, symSize: 0x110 }
  - { offsetInCU: 0x1E, offset: 0x2A509F, size: 0x8, addend: 0x0, symName: '__ZN4core3ptr45drop_in_place$LT$proc_macro2..TokenStream$GT$17h5362bc4cba28da63E.llvm.65419231120728662', symObjAddr: 0x0, symBinAddr: 0x7CBA0, symSize: 0x140 }
  - { offsetInCU: 0xB2C, offset: 0x2A5BAD, size: 0x8, addend: 0x0, symName: '__ZN4core3ptr45drop_in_place$LT$proc_macro2..TokenStream$GT$17h5362bc4cba28da63E.llvm.65419231120728662', symObjAddr: 0x0, symBinAddr: 0x7CBA0, symSize: 0x140 }
  - { offsetInCU: 0xF88, offset: 0x2A6009, size: 0x8, addend: 0x0, symName: '__ZN4core3ptr65drop_in_place$LT$alloc..vec..Vec$LT$proc_macro..TokenTree$GT$$GT$17h79f3e7fd38303a81E.llvm.65419231120728662', symObjAddr: 0x140, symBinAddr: 0x7CCE0, symSize: 0x110 }
  - { offsetInCU: 0x1E, offset: 0x2A6D9F, size: 0x8, addend: 0x0, symName: '__ZN4core3ptr45drop_in_place$LT$proc_macro2..TokenStream$GT$17h5362bc4cba28da63E.llvm.17073700049508693934', symObjAddr: 0x0, symBinAddr: 0x7CDF0, symSize: 0x140 }
  - { offsetInCU: 0xB2C, offset: 0x2A78AD, size: 0x8, addend: 0x0, symName: '__ZN4core3ptr45drop_in_place$LT$proc_macro2..TokenStream$GT$17h5362bc4cba28da63E.llvm.17073700049508693934', symObjAddr: 0x0, symBinAddr: 0x7CDF0, symSize: 0x140 }
  - { offsetInCU: 0xF88, offset: 0x2A7D09, size: 0x8, addend: 0x0, symName: '__ZN4core3ptr65drop_in_place$LT$alloc..vec..Vec$LT$proc_macro..TokenTree$GT$$GT$17h79f3e7fd38303a81E.llvm.17073700049508693934', symObjAddr: 0x140, symBinAddr: 0x7CF30, symSize: 0x110 }
  - { offsetInCU: 0x1E, offset: 0x2A8A98, size: 0x8, addend: 0x0, symName: '__ZN4core3ptr45drop_in_place$LT$proc_macro2..TokenStream$GT$17h5362bc4cba28da63E.llvm.7524965469967973851', symObjAddr: 0x0, symBinAddr: 0x7D040, symSize: 0x140 }
  - { offsetInCU: 0xB2C, offset: 0x2A95A6, size: 0x8, addend: 0x0, symName: '__ZN4core3ptr45drop_in_place$LT$proc_macro2..TokenStream$GT$17h5362bc4cba28da63E.llvm.7524965469967973851', symObjAddr: 0x0, symBinAddr: 0x7D040, symSize: 0x140 }
  - { offsetInCU: 0xF88, offset: 0x2A9A02, size: 0x8, addend: 0x0, symName: '__ZN4core3ptr65drop_in_place$LT$alloc..vec..Vec$LT$proc_macro..TokenTree$GT$$GT$17h79f3e7fd38303a81E.llvm.7524965469967973851', symObjAddr: 0x140, symBinAddr: 0x7D180, symSize: 0x110 }
  - { offsetInCU: 0x1E, offset: 0x2AA791, size: 0x8, addend: 0x0, symName: '__ZN44_$LT$$RF$T$u20$as$u20$core..fmt..Display$GT$3fmt17hbc4c0b154574fe34E', symObjAddr: 0x0, symBinAddr: 0x7D290, symSize: 0x20 }
  - { offsetInCU: 0x64, offset: 0x2AA7D7, size: 0x8, addend: 0x0, symName: '__ZN44_$LT$$RF$T$u20$as$u20$core..fmt..Display$GT$3fmt17hbc4c0b154574fe34E', symObjAddr: 0x0, symBinAddr: 0x7D290, symSize: 0x20 }
  - { offsetInCU: 0x1E, offset: 0x2AAA52, size: 0x8, addend: 0x0, symName: '__ZN77_$LT$$LP$A$C$B$RP$$u20$as$u20$proc_macro..bridge..rpc..DecodeMut$LT$S$GT$$GT$6decode17hda49ade6949ef681E', symObjAddr: 0x0, symBinAddr: 0x7D2B0, symSize: 0xCA }
  - { offsetInCU: 0xB4, offset: 0x2AAAE8, size: 0x8, addend: 0x0, symName: '__ZN77_$LT$$LP$A$C$B$RP$$u20$as$u20$proc_macro..bridge..rpc..DecodeMut$LT$S$GT$$GT$6decode17hda49ade6949ef681E', symObjAddr: 0x0, symBinAddr: 0x7D2B0, symSize: 0xCA }
  - { offsetInCU: 0x4FCF, offset: 0x2B0D04, size: 0x8, addend: 0x0, symName: '__ZN3syn4item7parsing63_$LT$impl$u20$syn..parse..Parse$u20$for$u20$syn..item..Item$GT$5parse17h80cf7aab904a267aE', symObjAddr: 0xCD50, symBinAddr: 0x891C0, symSize: 0x190 }
  - { offsetInCU: 0x555B, offset: 0x2B1290, size: 0x8, addend: 0x0, symName: '__ZN3syn4item7parsing68_$LT$impl$u20$syn..parse..Parse$u20$for$u20$syn..item..ItemMacro$GT$5parse17hc5bb9427f98c7017E', symObjAddr: 0xCEE0, symBinAddr: 0x89350, symSize: 0x6B0 }
  - { offsetInCU: 0x61E8, offset: 0x2B1F1D, size: 0x8, addend: 0x0, symName: '__ZN3syn4item7parsing74_$LT$impl$u20$syn..parse..Parse$u20$for$u20$syn..item..ItemExternCrate$GT$5parse17h6d46d67dd87b398fE', symObjAddr: 0xD590, symBinAddr: 0x89A00, symSize: 0x910 }
  - { offsetInCU: 0x75A7, offset: 0x2B32DC, size: 0x8, addend: 0x0, symName: '__ZN3syn4item7parsing75_$LT$impl$u20$syn..parse..Parse$u20$for$u20$syn..item..StaticMutability$GT$5parse17h60646f4bbad23fa9E', symObjAddr: 0x1E6F0, symBinAddr: 0x94480, symSize: 0xA0 }
  - { offsetInCU: 0x7758, offset: 0x2B348D, size: 0x8, addend: 0x0, symName: '__ZN3syn4item7parsing68_$LT$impl$u20$syn..parse..Parse$u20$for$u20$syn..item..Signature$GT$5parse17h055acddcceb01c9aE', symObjAddr: 0xF690, symBinAddr: 0x8A310, symSize: 0xA90 }
  - { offsetInCU: 0x86F8, offset: 0x2B442D, size: 0x8, addend: 0x0, symName: '__ZN3syn4item7parsing67_$LT$impl$u20$syn..parse..Parse$u20$for$u20$syn..item..Receiver$GT$5parse17h7c38822b1e4d7a06E', symObjAddr: 0x10630, symBinAddr: 0x8ADA0, symSize: 0xA20 }
  - { offsetInCU: 0x98BA, offset: 0x2B55EF, size: 0x8, addend: 0x0, symName: '__ZN3syn4item7parsing66_$LT$impl$u20$syn..parse..Parse$u20$for$u20$syn..item..ItemMod$GT$5parse17h216506bc1f5b0b64E', symObjAddr: 0x11050, symBinAddr: 0x8B7C0, symSize: 0xD80 }
  - { offsetInCU: 0xB617, offset: 0x2B734C, size: 0x8, addend: 0x0, symName: '__ZN3syn4item7parsing73_$LT$impl$u20$syn..parse..Parse$u20$for$u20$syn..item..ItemForeignMod$GT$5parse17ha80c1978f8841fabE', symObjAddr: 0x11DD0, symBinAddr: 0x8C540, symSize: 0x720 }
  - { offsetInCU: 0xC9ED, offset: 0x2B8722, size: 0x8, addend: 0x0, symName: '__ZN3syn4item7parsing70_$LT$impl$u20$syn..parse..Parse$u20$for$u20$syn..item..ForeignItem$GT$5parse17hae52281c277c1a2fE', symObjAddr: 0x124F0, symBinAddr: 0x8CC60, symSize: 0x19B0 }
  - { offsetInCU: 0x10EB7, offset: 0x2BCBEC, size: 0x8, addend: 0x0, symName: '__ZN3syn4item7parsing69_$LT$impl$u20$syn..parse..Parse$u20$for$u20$syn..item..ItemStruct$GT$5parse17h5f37d45d0509ea74E', symObjAddr: 0x160C0, symBinAddr: 0x8E610, symSize: 0x720 }
  - { offsetInCU: 0x119A2, offset: 0x2BD6D7, size: 0x8, addend: 0x0, symName: '__ZN3syn4item7parsing67_$LT$impl$u20$syn..parse..Parse$u20$for$u20$syn..item..ItemEnum$GT$5parse17hcfc041400e96f868E', symObjAddr: 0x167E0, symBinAddr: 0x8ED30, symSize: 0x720 }
  - { offsetInCU: 0x12490, offset: 0x2BE1C5, size: 0x8, addend: 0x0, symName: '__ZN3syn4item7parsing68_$LT$impl$u20$syn..parse..Parse$u20$for$u20$syn..item..ItemUnion$GT$5parse17h3bd0150048f99936E', symObjAddr: 0x16F00, symBinAddr: 0x8F450, symSize: 0x710 }
  - { offsetInCU: 0x12F72, offset: 0x2BECA7, size: 0x8, addend: 0x0, symName: '__ZN3syn4item7parsing68_$LT$impl$u20$syn..parse..Parse$u20$for$u20$syn..item..ItemTrait$GT$5parse17hba3917e64180f729E', symObjAddr: 0x17610, symBinAddr: 0x8FB60, symSize: 0x630 }
  - { offsetInCU: 0x13C99, offset: 0x2BF9CE, size: 0x8, addend: 0x0, symName: '__ZN3syn4item7parsing68_$LT$impl$u20$syn..parse..Parse$u20$for$u20$syn..item..TraitItem$GT$5parse17h5e01dedab6d196dfE', symObjAddr: 0x17DA0, symBinAddr: 0x90190, symSize: 0x1B80 }
  - { offsetInCU: 0x1988E, offset: 0x2C55C3, size: 0x8, addend: 0x0, symName: '__ZN3syn4item7parsing70_$LT$impl$u20$syn..parse..Parse$u20$for$u20$syn..item..TraitItemFn$GT$5parse17h386721044cd912e3E', symObjAddr: 0x1A250, symBinAddr: 0x91D10, symSize: 0x850 }
  - { offsetInCU: 0x1AEBE, offset: 0x2C6BF3, size: 0x8, addend: 0x0, symName: '__ZN3syn4item7parsing67_$LT$impl$u20$syn..parse..Parse$u20$for$u20$syn..item..ImplItem$GT$5parse17h6b1c6f6f70b03df2E', symObjAddr: 0x1B350, symBinAddr: 0x92560, symSize: 0x1BE0 }
  - { offsetInCU: 0x204B6, offset: 0x2CC1EB, size: 0x8, addend: 0x0, symName: '__ZN3syn4item7parsing72_$LT$impl$u20$syn..parse..Parse$u20$for$u20$syn..item..ImplItemMacro$GT$5parse17h34a4a0c85418b70aE', symObjAddr: 0x1E3B0, symBinAddr: 0x94140, symSize: 0x0 }
  - { offsetInCU: 0x20B82, offset: 0x2CC8B7, size: 0x8, addend: 0x0, symName: '__ZN3syn4item8printing83_$LT$impl$u20$quote..to_tokens..ToTokens$u20$for$u20$syn..item..ItemExternCrate$GT$9to_tokens17hfe36bc772e4277a0E', symObjAddr: 0x1E790, symBinAddr: 0x94520, symSize: 0x250 }
  - { offsetInCU: 0x2113E, offset: 0x2CCE73, size: 0x8, addend: 0x0, symName: '__ZN3syn4item8printing78_$LT$impl$u20$quote..to_tokens..ToTokens$u20$for$u20$syn..item..ItemStatic$GT$9to_tokens17hbc3d5375fc6c771cE', symObjAddr: 0x1EB70, symBinAddr: 0x94770, symSize: 0x220 }
  - { offsetInCU: 0x21674, offset: 0x2CD3A9, size: 0x8, addend: 0x0, symName: '__ZN3syn4item8printing75_$LT$impl$u20$quote..to_tokens..ToTokens$u20$for$u20$syn..item..ItemMod$GT$9to_tokens17h0200f7c6912b0a1cE', symObjAddr: 0x1F050, symBinAddr: 0x94990, symSize: 0x230 }
  - { offsetInCU: 0x21B70, offset: 0x2CD8A5, size: 0x8, addend: 0x0, symName: '__ZN3syn4item8printing76_$LT$impl$u20$quote..to_tokens..ToTokens$u20$for$u20$syn..item..ItemType$GT$9to_tokens17he708c67807a0f5e7E', symObjAddr: 0x1F440, symBinAddr: 0x94BC0, symSize: 0x1C0 }
  - { offsetInCU: 0x21ECF, offset: 0x2CDC04, size: 0x8, addend: 0x0, symName: '__ZN3syn4item8printing76_$LT$impl$u20$quote..to_tokens..ToTokens$u20$for$u20$syn..item..ItemEnum$GT$9to_tokens17h182a12d3a154632dE', symObjAddr: 0x1F600, symBinAddr: 0x94D80, symSize: 0x180 }
  - { offsetInCU: 0x221B4, offset: 0x2CDEE9, size: 0x8, addend: 0x0, symName: '__ZN3syn4item8printing78_$LT$impl$u20$quote..to_tokens..ToTokens$u20$for$u20$syn..item..ItemStruct$GT$9to_tokens17h8172cc7233ca8fbeE', symObjAddr: 0x1F780, symBinAddr: 0x94F00, symSize: 0x220 }
  - { offsetInCU: 0x22599, offset: 0x2CE2CE, size: 0x8, addend: 0x0, symName: '__ZN3syn4item8printing77_$LT$impl$u20$quote..to_tokens..ToTokens$u20$for$u20$syn..item..ItemUnion$GT$9to_tokens17h6c795ad402d2a166E', symObjAddr: 0x1F9A0, symBinAddr: 0x95120, symSize: 0x180 }
  - { offsetInCU: 0x228A4, offset: 0x2CE5D9, size: 0x8, addend: 0x0, symName: '__ZN3syn4item8printing77_$LT$impl$u20$quote..to_tokens..ToTokens$u20$for$u20$syn..item..ItemTrait$GT$9to_tokens17h8121c5f1327add6eE', symObjAddr: 0x1FB20, symBinAddr: 0x952A0, symSize: 0x320 }
  - { offsetInCU: 0x232F1, offset: 0x2CF026, size: 0x8, addend: 0x0, symName: '__ZN3syn4item8printing82_$LT$impl$u20$quote..to_tokens..ToTokens$u20$for$u20$syn..item..ItemTraitAlias$GT$9to_tokens17hc5f43bf815c68949E', symObjAddr: 0x1FE40, symBinAddr: 0x955C0, symSize: 0x330 }
  - { offsetInCU: 0x23BC7, offset: 0x2CF8FC, size: 0x8, addend: 0x0, symName: '__ZN3syn4item8printing76_$LT$impl$u20$quote..to_tokens..ToTokens$u20$for$u20$syn..item..ItemImpl$GT$9to_tokens17h0c3a9ddae74c937dE', symObjAddr: 0x20170, symBinAddr: 0x958F0, symSize: 0x340 }
  - { offsetInCU: 0x24416, offset: 0x2D014B, size: 0x8, addend: 0x0, symName: '__ZN3syn4item8printing77_$LT$impl$u20$quote..to_tokens..ToTokens$u20$for$u20$syn..item..ItemMacro$GT$9to_tokens17haec818905d80644fE', symObjAddr: 0x204B0, symBinAddr: 0x95C30, symSize: 0x190 }
  - { offsetInCU: 0x2484A, offset: 0x2D057F, size: 0x8, addend: 0x0, symName: '__ZN3syn4item8printing82_$LT$impl$u20$quote..to_tokens..ToTokens$u20$for$u20$syn..item..TraitItemConst$GT$9to_tokens17h76e791416bf823d1E', symObjAddr: 0x20790, symBinAddr: 0x95DC0, symSize: 0x1C0 }
  - { offsetInCU: 0x24BE3, offset: 0x2D0918, size: 0x8, addend: 0x0, symName: '__ZN3syn4item8printing81_$LT$impl$u20$quote..to_tokens..ToTokens$u20$for$u20$syn..item..TraitItemType$GT$9to_tokens17hbe42b3bab95c6768E', symObjAddr: 0x20AB0, symBinAddr: 0x95F80, symSize: 0x240 }
  - { offsetInCU: 0x25029, offset: 0x2D0D5E, size: 0x8, addend: 0x0, symName: '__ZN3syn4item8printing81_$LT$impl$u20$quote..to_tokens..ToTokens$u20$for$u20$syn..item..ImplItemConst$GT$9to_tokens17hdd48b33068953141E', symObjAddr: 0x20CF0, symBinAddr: 0x961C0, symSize: 0x240 }
  - { offsetInCU: 0x254E1, offset: 0x2D1216, size: 0x8, addend: 0x0, symName: '__ZN3syn4item8printing80_$LT$impl$u20$quote..to_tokens..ToTokens$u20$for$u20$syn..item..ImplItemType$GT$9to_tokens17hbce09990808c878cE', symObjAddr: 0x21090, symBinAddr: 0x96400, symSize: 0x230 }
  - { offsetInCU: 0x259CF, offset: 0x2D1704, size: 0x8, addend: 0x0, symName: '__ZN3syn4item8printing85_$LT$impl$u20$quote..to_tokens..ToTokens$u20$for$u20$syn..item..ForeignItemStatic$GT$9to_tokens17h378f5a1dfc9fdf33E', symObjAddr: 0x214C0, symBinAddr: 0x96630, symSize: 0x200 }
  - { offsetInCU: 0x25E59, offset: 0x2D1B8E, size: 0x8, addend: 0x0, symName: '__ZN3syn4item8printing83_$LT$impl$u20$quote..to_tokens..ToTokens$u20$for$u20$syn..item..ForeignItemType$GT$9to_tokens17h4ed6b28f8ddb36b2E', symObjAddr: 0x216C0, symBinAddr: 0x96830, symSize: 0x190 }
  - { offsetInCU: 0x26166, offset: 0x2D1E9B, size: 0x8, addend: 0x0, symName: '__ZN3syn4item8printing77_$LT$impl$u20$quote..to_tokens..ToTokens$u20$for$u20$syn..item..Signature$GT$9to_tokens17h487e336073ff52a3E', symObjAddr: 0x21850, symBinAddr: 0x969C0, symSize: 0x330 }
  - { offsetInCU: 0x2693D, offset: 0x2D2672, size: 0x8, addend: 0x0, symName: '__ZN3syn4item8printing76_$LT$impl$u20$quote..to_tokens..ToTokens$u20$for$u20$syn..item..Receiver$GT$9to_tokens17h0593f180191f94a9E', symObjAddr: 0x21B80, symBinAddr: 0x96CF0, symSize: 0x2E0 }
  - { offsetInCU: 0x270ED, offset: 0x2D2E22, size: 0x8, addend: 0x0, symName: '__ZN3syn4item8printing76_$LT$impl$u20$quote..to_tokens..ToTokens$u20$for$u20$syn..item..Variadic$GT$9to_tokens17h5d9696317f3ad996E', symObjAddr: 0x21E60, symBinAddr: 0x96FD0, symSize: 0x130 }
  - { offsetInCU: 0x27404, offset: 0x2D3139, size: 0x8, addend: 0x0, symName: '__ZN62_$LT$syn..item..Item$u20$as$u20$quote..to_tokens..ToTokens$GT$9to_tokens17he7e69ecbc61b7b2cE', symObjAddr: 0x22010, symBinAddr: 0x97100, symSize: 0x730 }
  - { offsetInCU: 0x2827E, offset: 0x2D3FB3, size: 0x8, addend: 0x0, symName: '__ZN65_$LT$syn..item..UseTree$u20$as$u20$quote..to_tokens..ToTokens$GT$9to_tokens17hee39f883784acb47E', symObjAddr: 0x22740, symBinAddr: 0x97830, symSize: 0x310 }
  - { offsetInCU: 0x28B33, offset: 0x2D4868, size: 0x8, addend: 0x0, symName: '__ZN69_$LT$syn..item..ForeignItem$u20$as$u20$quote..to_tokens..ToTokens$GT$9to_tokens17hb7bfc5d782828218E', symObjAddr: 0x22A50, symBinAddr: 0x97B40, symSize: 0x250 }
  - { offsetInCU: 0x28F58, offset: 0x2D4C8D, size: 0x8, addend: 0x0, symName: '__ZN67_$LT$syn..item..TraitItem$u20$as$u20$quote..to_tokens..ToTokens$GT$9to_tokens17h9010403c8466e854E', symObjAddr: 0x22CA0, symBinAddr: 0x97D90, symSize: 0x2B0 }
  - { offsetInCU: 0x293EC, offset: 0x2D5121, size: 0x8, addend: 0x0, symName: '__ZN66_$LT$syn..item..ImplItem$u20$as$u20$quote..to_tokens..ToTokens$GT$9to_tokens17h9ce4fd01d680c33dE', symObjAddr: 0x22F50, symBinAddr: 0x98040, symSize: 0x2E0 }
  - { offsetInCU: 0x2A088, offset: 0x2D5DBD, size: 0x8, addend: 0x0, symName: '__ZN3syn3gen5clone67_$LT$impl$u20$core..clone..Clone$u20$for$u20$syn..item..UseTree$GT$5clone17he4721d92d6223b97E', symObjAddr: 0x28540, symBinAddr: 0x9D0F0, symSize: 0x2A0 }
  - { offsetInCU: 0x2A76C, offset: 0x2D64A1, size: 0x8, addend: 0x0, symName: '__ZN3syn3gen5clone71_$LT$impl$u20$core..clone..Clone$u20$for$u20$syn..item..ForeignItem$GT$5clone17hee3f13bdccecaf04E', symObjAddr: 0x23290, symBinAddr: 0x98320, symSize: 0x2A0 }
  - { offsetInCU: 0x2AB4B, offset: 0x2D6880, size: 0x8, addend: 0x0, symName: '__ZN3syn3gen5clone77_$LT$impl$u20$core..clone..Clone$u20$for$u20$syn..item..ForeignItemStatic$GT$5clone17h1c013599a1b7e0d2E', symObjAddr: 0x23620, symBinAddr: 0x985C0, symSize: 0x1E0 }
  - { offsetInCU: 0x2AFEC, offset: 0x2D6D21, size: 0x8, addend: 0x0, symName: '__ZN3syn3gen5clone75_$LT$impl$u20$core..clone..Clone$u20$for$u20$syn..item..ForeignItemType$GT$5clone17h39c42a7ed9f93bc7E', symObjAddr: 0x23800, symBinAddr: 0x987A0, symSize: 0x290 }
  - { offsetInCU: 0x2B32D, offset: 0x2D7062, size: 0x8, addend: 0x0, symName: '__ZN3syn3gen5clone68_$LT$impl$u20$core..clone..Clone$u20$for$u20$syn..item..ImplItem$GT$5clone17hfcffd5bef6db6eefE', symObjAddr: 0x23A90, symBinAddr: 0x98A30, symSize: 0x1E0 }
  - { offsetInCU: 0x2B66F, offset: 0x2D73A4, size: 0x8, addend: 0x0, symName: '__ZN3syn3gen5clone73_$LT$impl$u20$core..clone..Clone$u20$for$u20$syn..item..ImplItemConst$GT$5clone17hcba22f66f4790359E', symObjAddr: 0x23C70, symBinAddr: 0x98C10, symSize: 0x3C0 }
  - { offsetInCU: 0x2BA2D, offset: 0x2D7762, size: 0x8, addend: 0x0, symName: '__ZN3syn3gen5clone70_$LT$impl$u20$core..clone..Clone$u20$for$u20$syn..item..ImplItemFn$GT$5clone17hfa99a17b751a231eE', symObjAddr: 0x24030, symBinAddr: 0x98FD0, symSize: 0x170 }
  - { offsetInCU: 0x2BADA, offset: 0x2D780F, size: 0x8, addend: 0x0, symName: '__ZN3syn3gen5clone72_$LT$impl$u20$core..clone..Clone$u20$for$u20$syn..item..ImplItemType$GT$5clone17h0cbe501e4ceb9fa6E', symObjAddr: 0x24230, symBinAddr: 0x99140, symSize: 0x360 }
  - { offsetInCU: 0x2BE8F, offset: 0x2D7BC4, size: 0x8, addend: 0x0, symName: '__ZN3syn3gen5clone64_$LT$impl$u20$core..clone..Clone$u20$for$u20$syn..item..Item$GT$5clone17h88393b98a180baddE', symObjAddr: 0x24590, symBinAddr: 0x994A0, symSize: 0x3C0 }
  - { offsetInCU: 0x2C3E4, offset: 0x2D8119, size: 0x8, addend: 0x0, symName: '__ZN3syn3gen5clone69_$LT$impl$u20$core..clone..Clone$u20$for$u20$syn..item..ItemConst$GT$5clone17h625d5dfdf97f0db7E', symObjAddr: 0x24950, symBinAddr: 0x99860, symSize: 0x410 }
  - { offsetInCU: 0x2CB90, offset: 0x2D88C5, size: 0x8, addend: 0x0, symName: '__ZN3syn3gen5clone68_$LT$impl$u20$core..clone..Clone$u20$for$u20$syn..item..ItemEnum$GT$5clone17hcbd28186f3af1a48E', symObjAddr: 0x24D60, symBinAddr: 0x99C70, symSize: 0x320 }
  - { offsetInCU: 0x2CE94, offset: 0x2D8BC9, size: 0x8, addend: 0x0, symName: '__ZN3syn3gen5clone75_$LT$impl$u20$core..clone..Clone$u20$for$u20$syn..item..ItemExternCrate$GT$5clone17heae6e2f0373fe0bbE', symObjAddr: 0x25080, symBinAddr: 0x99F90, symSize: 0x1A0 }
  - { offsetInCU: 0x2D1A9, offset: 0x2D8EDE, size: 0x8, addend: 0x0, symName: '__ZN3syn3gen5clone66_$LT$impl$u20$core..clone..Clone$u20$for$u20$syn..item..ItemFn$GT$5clone17h4e6ff2347c0f748eE', symObjAddr: 0x25220, symBinAddr: 0x9A130, symSize: 0x190 }
  - { offsetInCU: 0x2D441, offset: 0x2D9176, size: 0x8, addend: 0x0, symName: '__ZN3syn3gen5clone68_$LT$impl$u20$core..clone..Clone$u20$for$u20$syn..item..ItemImpl$GT$5clone17hd2b1c2db65c8a4ebE', symObjAddr: 0x25490, symBinAddr: 0x9A2C0, symSize: 0x470 }
  - { offsetInCU: 0x2D914, offset: 0x2D9649, size: 0x8, addend: 0x0, symName: '__ZN3syn3gen5clone69_$LT$impl$u20$core..clone..Clone$u20$for$u20$syn..item..ItemMacro$GT$5clone17h7d6f56f137cac903E', symObjAddr: 0x25900, symBinAddr: 0x9A730, symSize: 0x120 }
  - { offsetInCU: 0x2DB50, offset: 0x2D9885, size: 0x8, addend: 0x0, symName: '__ZN3syn3gen5clone67_$LT$impl$u20$core..clone..Clone$u20$for$u20$syn..item..ItemMod$GT$5clone17h08b706d9debac69fE', symObjAddr: 0x25A20, symBinAddr: 0x9A850, symSize: 0x200 }
  - { offsetInCU: 0x2DE17, offset: 0x2D9B4C, size: 0x8, addend: 0x0, symName: '__ZN3syn3gen5clone70_$LT$impl$u20$core..clone..Clone$u20$for$u20$syn..item..ItemStatic$GT$5clone17h7d89c79988a48493E', symObjAddr: 0x25C20, symBinAddr: 0x9AA50, symSize: 0x290 }
  - { offsetInCU: 0x2E4E8, offset: 0x2DA21D, size: 0x8, addend: 0x0, symName: '__ZN3syn3gen5clone70_$LT$impl$u20$core..clone..Clone$u20$for$u20$syn..item..ItemStruct$GT$5clone17h25082ded106363f3E', symObjAddr: 0x25EB0, symBinAddr: 0x9ACE0, symSize: 0x3D0 }
  - { offsetInCU: 0x2E8FD, offset: 0x2DA632, size: 0x8, addend: 0x0, symName: '__ZN3syn3gen5clone69_$LT$impl$u20$core..clone..Clone$u20$for$u20$syn..item..ItemTrait$GT$5clone17ha34a4241e37415ecE', symObjAddr: 0x26280, symBinAddr: 0x9B0B0, symSize: 0x3E0 }
  - { offsetInCU: 0x2EC8D, offset: 0x2DA9C2, size: 0x8, addend: 0x0, symName: '__ZN3syn3gen5clone74_$LT$impl$u20$core..clone..Clone$u20$for$u20$syn..item..ItemTraitAlias$GT$5clone17hef59f8a644aff956E', symObjAddr: 0x26660, symBinAddr: 0x9B490, symSize: 0x320 }
  - { offsetInCU: 0x2EFED, offset: 0x2DAD22, size: 0x8, addend: 0x0, symName: '__ZN3syn3gen5clone68_$LT$impl$u20$core..clone..Clone$u20$for$u20$syn..item..ItemType$GT$5clone17h2cc3a1af26227a5bE', symObjAddr: 0x26980, symBinAddr: 0x9B7B0, symSize: 0x350 }
  - { offsetInCU: 0x2F569, offset: 0x2DB29E, size: 0x8, addend: 0x0, symName: '__ZN3syn3gen5clone69_$LT$impl$u20$core..clone..Clone$u20$for$u20$syn..item..ItemUnion$GT$5clone17h9499aeac8cc94731E', symObjAddr: 0x26CD0, symBinAddr: 0x9BB00, symSize: 0x340 }
  - { offsetInCU: 0x2F8B7, offset: 0x2DB5EC, size: 0x8, addend: 0x0, symName: '__ZN3syn3gen5clone67_$LT$impl$u20$core..clone..Clone$u20$for$u20$syn..item..ItemUse$GT$5clone17h83cf32ef390bdd8aE', symObjAddr: 0x27010, symBinAddr: 0x9BE40, symSize: 0x130 }
  - { offsetInCU: 0x2F977, offset: 0x2DB6AC, size: 0x8, addend: 0x0, symName: '__ZN3syn3gen5clone68_$LT$impl$u20$core..clone..Clone$u20$for$u20$syn..item..Receiver$GT$5clone17h3f91689b2c338982E', symObjAddr: 0x27140, symBinAddr: 0x9BF70, symSize: 0x1B0 }
  - { offsetInCU: 0x2FD8C, offset: 0x2DBAC1, size: 0x8, addend: 0x0, symName: '__ZN3syn3gen5clone69_$LT$impl$u20$core..clone..Clone$u20$for$u20$syn..item..Signature$GT$5clone17hf28c97c0572e4c68E', symObjAddr: 0x272F0, symBinAddr: 0x9C120, symSize: 0x5A0 }
  - { offsetInCU: 0x30544, offset: 0x2DC279, size: 0x8, addend: 0x0, symName: '__ZN3syn3gen5clone69_$LT$impl$u20$core..clone..Clone$u20$for$u20$syn..item..TraitItem$GT$5clone17hd22c218447a047bfE', symObjAddr: 0x27890, symBinAddr: 0x9C6C0, symSize: 0x1E0 }
  - { offsetInCU: 0x30886, offset: 0x2DC5BB, size: 0x8, addend: 0x0, symName: '__ZN3syn3gen5clone74_$LT$impl$u20$core..clone..Clone$u20$for$u20$syn..item..TraitItemConst$GT$5clone17he22a2ce3bf5c1704E', symObjAddr: 0x27A70, symBinAddr: 0x9C8A0, symSize: 0x370 }
  - { offsetInCU: 0x30C4E, offset: 0x2DC983, size: 0x8, addend: 0x0, symName: '__ZN3syn3gen5clone71_$LT$impl$u20$core..clone..Clone$u20$for$u20$syn..item..TraitItemFn$GT$5clone17h7ac8fc7a77eb5240E', symObjAddr: 0x27DE0, symBinAddr: 0x9CC10, symSize: 0x150 }
  - { offsetInCU: 0x30D40, offset: 0x2DCA75, size: 0x8, addend: 0x0, symName: '__ZN3syn3gen5clone73_$LT$impl$u20$core..clone..Clone$u20$for$u20$syn..item..TraitItemType$GT$5clone17h83742b5ed183cb22E', symObjAddr: 0x27F30, symBinAddr: 0x9CD60, symSize: 0x390 }
  - { offsetInCU: 0x310FF, offset: 0x2DCE34, size: 0x8, addend: 0x0, symName: '__ZN3syn3gen5clone68_$LT$impl$u20$core..clone..Clone$u20$for$u20$syn..item..Variadic$GT$5clone17h397fcedc25d54663E', symObjAddr: 0x287E0, symBinAddr: 0x9D390, symSize: 0x110 }
  - { offsetInCU: 0x33B43, offset: 0x2DF878, size: 0x8, addend: 0x0, symName: '__ZN4core3ptr100drop_in_place$LT$core..option..Option$LT$alloc..boxed..Box$LT$syn..path..GenericArgument$GT$$GT$$GT$17h3a7c44b9e57fe410E', symObjAddr: 0x6C0, symBinAddr: 0x7D720, symSize: 0x50 }
  - { offsetInCU: 0x33E65, offset: 0x2DFB9A, size: 0x8, addend: 0x0, symName: '__ZN4core3ptr100drop_in_place$LT$syn..punctuated..Punctuated$LT$syn..path..PathSegment$C$syn..token..PathSep$GT$$GT$17he41ef64147139591E', symObjAddr: 0x710, symBinAddr: 0x7D770, symSize: 0x2B0 }
  - { offsetInCU: 0x3491B, offset: 0x2E0650, size: 0x8, addend: 0x0, symName: '__ZN4core3ptr103drop_in_place$LT$core..option..Option$LT$alloc..boxed..Box$LT$syn..generics..TypeParamBound$GT$$GT$$GT$17hb14e4384a768542bE', symObjAddr: 0x9C0, symBinAddr: 0x7DA20, symSize: 0x50 }
  - { offsetInCU: 0x34B64, offset: 0x2E0899, size: 0x8, addend: 0x0, symName: '__ZN4core3ptr103drop_in_place$LT$core..option..Option$LT$alloc..boxed..Box$LT$syn..generics..WherePredicate$GT$$GT$$GT$17he190813f4819c5dbE', symObjAddr: 0xA10, symBinAddr: 0x7DA70, symSize: 0xD0 }
  - { offsetInCU: 0x34EF8, offset: 0x2E0C2D, size: 0x8, addend: 0x0, symName: '__ZN4core3ptr103drop_in_place$LT$syn..punctuated..Punctuated$LT$syn..generics..GenericParam$C$syn..token..Comma$GT$$GT$17h0c6077a988036760E', symObjAddr: 0xAE0, symBinAddr: 0x7DB40, symSize: 0xF0 }
  - { offsetInCU: 0x35396, offset: 0x2E10CB, size: 0x8, addend: 0x0, symName: '__ZN4core3ptr104drop_in_place$LT$syn..punctuated..Punctuated$LT$syn..generics..TypeParamBound$C$syn..token..Plus$GT$$GT$17h724e4d9d1d65061aE', symObjAddr: 0xBD0, symBinAddr: 0x7DC30, symSize: 0x190 }
  - { offsetInCU: 0x359D8, offset: 0x2E170D, size: 0x8, addend: 0x0, symName: '__ZN4core3ptr107drop_in_place$LT$$LP$syn..restriction..Visibility$C$core..option..Option$LT$syn..token..Default$GT$$RP$$GT$17h7dbdeb5ac6957065E', symObjAddr: 0xD60, symBinAddr: 0x7DDC0, symSize: 0x60 }
  - { offsetInCU: 0x35B95, offset: 0x2E18CA, size: 0x8, addend: 0x0, symName: '__ZN4core3ptr115drop_in_place$LT$core..option..Option$LT$$LP$alloc..boxed..Box$LT$syn..pat..Pat$GT$$C$syn..token..Colon$RP$$GT$$GT$17h787822396d5dcd7bE', symObjAddr: 0xDC0, symBinAddr: 0x7DE20, symSize: 0x50 }
  - { offsetInCU: 0x35D67, offset: 0x2E1A9C, size: 0x8, addend: 0x0, symName: '__ZN4core3ptr115drop_in_place$LT$core..option..Option$LT$$LP$syn..token..Brace$C$alloc..vec..Vec$LT$syn..item..Item$GT$$RP$$GT$$GT$17h4f61046186bbd7c9E', symObjAddr: 0xE10, symBinAddr: 0x7DE70, symSize: 0xD0 }
  - { offsetInCU: 0x3607E, offset: 0x2E1DB3, size: 0x8, addend: 0x0, symName: '__ZN4core3ptr126drop_in_place$LT$core..option..Option$LT$$LP$syn..token..And$C$core..option..Option$LT$syn..lifetime..Lifetime$GT$$RP$$GT$$GT$17h45c5d73e12cdf6f0E', symObjAddr: 0xEE0, symBinAddr: 0x7DF40, symSize: 0x30 }
  - { offsetInCU: 0x3632C, offset: 0x2E2061, size: 0x8, addend: 0x0, symName: '__ZN4core3ptr34drop_in_place$LT$syn..lit..Lit$GT$17hd64dde89a262341dE', symObjAddr: 0xF90, symBinAddr: 0x7DF70, symSize: 0x120 }
  - { offsetInCU: 0x367FB, offset: 0x2E2530, size: 0x8, addend: 0x0, symName: '__ZN4core3ptr34drop_in_place$LT$syn..pat..Pat$GT$17hf88887878261d63cE', symObjAddr: 0x10B0, symBinAddr: 0x7E090, symSize: 0x1100 }
  - { offsetInCU: 0x3ADD9, offset: 0x2E6B0E, size: 0x8, addend: 0x0, symName: '__ZN4core3ptr34drop_in_place$LT$syn..ty..Type$GT$17ha80dd29b0f9d4a3fE', symObjAddr: 0x21B0, symBinAddr: 0x7F190, symSize: 0x510 }
  - { offsetInCU: 0x3C451, offset: 0x2E8186, size: 0x8, addend: 0x0, symName: '__ZN4core3ptr36drop_in_place$LT$syn..expr..Expr$GT$17h10f573b40ddd212cE', symObjAddr: 0x26C0, symBinAddr: 0x7F6A0, symSize: 0x2840 }
  - { offsetInCU: 0x4696C, offset: 0x2F26A1, size: 0x8, addend: 0x0, symName: '__ZN4core3ptr36drop_in_place$LT$syn..item..Item$GT$17haa59cf9e39ab8cebE', symObjAddr: 0x4F00, symBinAddr: 0x81EE0, symSize: 0x1940 }
  - { offsetInCU: 0x4CD2F, offset: 0x2F8A64, size: 0x8, addend: 0x0, symName: '__ZN4core3ptr36drop_in_place$LT$syn..mac..Macro$GT$17hc3b30a7a8a34cc2dE', symObjAddr: 0x6840, symBinAddr: 0x83820, symSize: 0x40 }
  - { offsetInCU: 0x4CD69, offset: 0x2F8A9E, size: 0x8, addend: 0x0, symName: '__ZN4core3ptr36drop_in_place$LT$syn..path..Path$GT$17h75c74a97d5f0a03bE', symObjAddr: 0x6880, symBinAddr: 0x83860, symSize: 0x280 }
  - { offsetInCU: 0x4D816, offset: 0x2F954B, size: 0x8, addend: 0x0, symName: '__ZN4core3ptr37drop_in_place$LT$syn..stmt..Block$GT$17h6fc3254d5688f2c3E', symObjAddr: 0x6B00, symBinAddr: 0x83AE0, symSize: 0xD0 }
  - { offsetInCU: 0x4DB0C, offset: 0x2F9841, size: 0x8, addend: 0x0, symName: '__ZN4core3ptr38drop_in_place$LT$syn..data..Fields$GT$17h79840861dd1f691dE', symObjAddr: 0x6BD0, symBinAddr: 0x83BB0, symSize: 0x190 }
  - { offsetInCU: 0x4DF56, offset: 0x2F9C8B, size: 0x8, addend: 0x0, symName: '__ZN4core3ptr38drop_in_place$LT$syn..expr..Member$GT$17h6b0cf84594ce6bceE', symObjAddr: 0x6D60, symBinAddr: 0x83D40, symSize: 0x30 }
  - { offsetInCU: 0x4E052, offset: 0x2F9D87, size: 0x8, addend: 0x0, symName: '__ZN4core3ptr38drop_in_place$LT$syn..pat..PatType$GT$17h835dce85ba90235eE.llvm.18308377727791997679', symObjAddr: 0x6D90, symBinAddr: 0x83D70, symSize: 0x140 }
  - { offsetInCU: 0x4E5FD, offset: 0x2FA332, size: 0x8, addend: 0x0, symName: '__ZN4core3ptr39drop_in_place$LT$proc_macro2..Ident$GT$17ha28fef9769e267d9E', symObjAddr: 0x6ED0, symBinAddr: 0x83EB0, symSize: 0x30 }
  - { offsetInCU: 0x4E756, offset: 0x2FA48B, size: 0x8, addend: 0x0, symName: '__ZN4core3ptr39drop_in_place$LT$syn..item..UseTree$GT$17h7288572c631f954aE', symObjAddr: 0x6F70, symBinAddr: 0x83EE0, symSize: 0xE0 }
  - { offsetInCU: 0x4EB5A, offset: 0x2FA88F, size: 0x8, addend: 0x0, symName: '__ZN4core3ptr40drop_in_place$LT$syn..item..ImplItem$GT$17h98907b2080b0ccb0E', symObjAddr: 0x7050, symBinAddr: 0x83FC0, symSize: 0x4D0 }
  - { offsetInCU: 0x4F98E, offset: 0x2FB6C3, size: 0x8, addend: 0x0, symName: '__ZN4core3ptr40drop_in_place$LT$syn..item..Receiver$GT$17h5e68a437c3b8e574E.llvm.18308377727791997679', symObjAddr: 0x7520, symBinAddr: 0x84490, symSize: 0x130 }
  - { offsetInCU: 0x4FF79, offset: 0x2FBCAE, size: 0x8, addend: 0x0, symName: '__ZN4core3ptr40drop_in_place$LT$syn..item..Variadic$GT$17hf9d4ebdb0f5e723aE', symObjAddr: 0x7660, symBinAddr: 0x845C0, symSize: 0x120 }
  - { offsetInCU: 0x503FE, offset: 0x2FC133, size: 0x8, addend: 0x0, symName: '__ZN4core3ptr40drop_in_place$LT$syn..ty..ReturnType$GT$17h035a612e322b6510E', symObjAddr: 0x7780, symBinAddr: 0x846E0, symSize: 0x50 }
  - { offsetInCU: 0x5056E, offset: 0x2FC2A3, size: 0x8, addend: 0x0, symName: '__ZN4core3ptr41drop_in_place$LT$syn..expr..ExprConst$GT$17hbfe19d5d621e6836E', symObjAddr: 0x77D0, symBinAddr: 0x84730, symSize: 0x180 }
  - { offsetInCU: 0x50B7A, offset: 0x2FC8AF, size: 0x8, addend: 0x0, symName: '__ZN4core3ptr41drop_in_place$LT$syn..item..Signature$GT$17h41f785211ad8eb02E', symObjAddr: 0x7950, symBinAddr: 0x848B0, symSize: 0x180 }
  - { offsetInCU: 0x5126A, offset: 0x2FCF9F, size: 0x8, addend: 0x0, symName: '__ZN4core3ptr41drop_in_place$LT$syn..item..TraitItem$GT$17hc74edaa948c160a2E', symObjAddr: 0x7AD0, symBinAddr: 0x84A30, symSize: 0x5F0 }
  - { offsetInCU: 0x5245A, offset: 0x2FE18F, size: 0x8, addend: 0x0, symName: '__ZN4core3ptr42drop_in_place$LT$syn..item..ImplItemFn$GT$17haf8f89161f0a8aa1E', symObjAddr: 0x8110, symBinAddr: 0x85020, symSize: 0x200 }
  - { offsetInCU: 0x52BC2, offset: 0x2FE8F7, size: 0x8, addend: 0x0, symName: '__ZN4core3ptr43drop_in_place$LT$syn..data..FieldsNamed$GT$17h56bef6f151514865E', symObjAddr: 0x8310, symBinAddr: 0x85220, symSize: 0xE0 }
  - { offsetInCU: 0x52F64, offset: 0x2FEC99, size: 0x8, addend: 0x0, symName: '__ZN4core3ptr43drop_in_place$LT$syn..item..ForeignItem$GT$17h8033abfc56dac52fE', symObjAddr: 0x83F0, symBinAddr: 0x85300, symSize: 0x520 }
  - { offsetInCU: 0x54310, offset: 0x300045, size: 0x8, addend: 0x0, symName: '__ZN4core3ptr44drop_in_place$LT$syn..generics..Generics$GT$17h671de917167f8b66E', symObjAddr: 0x8910, symBinAddr: 0x85820, symSize: 0x40 }
  - { offsetInCU: 0x5432D, offset: 0x300062, size: 0x8, addend: 0x0, symName: '__ZN4core3ptr44drop_in_place$LT$syn..lifetime..Lifetime$GT$17he37fa474f03de7b1E', symObjAddr: 0x8950, symBinAddr: 0x85860, symSize: 0x30 }
  - { offsetInCU: 0x544A5, offset: 0x3001DA, size: 0x8, addend: 0x0, symName: '__ZN4core3ptr44drop_in_place$LT$syn..parse..ParseBuffer$GT$17hf792ff20095efc35E.llvm.18308377727791997679', symObjAddr: 0x8980, symBinAddr: 0x85890, symSize: 0x70 }
  - { offsetInCU: 0x548BC, offset: 0x3005F1, size: 0x8, addend: 0x0, symName: '__ZN4core3ptr45drop_in_place$LT$proc_macro2..TokenStream$GT$17h76e8e68015f4924dE', symObjAddr: 0x89F0, symBinAddr: 0x85900, symSize: 0x140 }
  - { offsetInCU: 0x54D56, offset: 0x300A8B, size: 0x8, addend: 0x0, symName: '__ZN4core3ptr45drop_in_place$LT$syn..generics..TypeParam$GT$17h188a459c1380ac75E', symObjAddr: 0x8B30, symBinAddr: 0x85A40, symSize: 0x230 }
  - { offsetInCU: 0x555CB, offset: 0x301300, size: 0x8, addend: 0x0, symName: '__ZN4core3ptr46drop_in_place$LT$syn..generics..ConstParam$GT$17h7a9b900b2b88bfcdE', symObjAddr: 0x8D60, symBinAddr: 0x85C70, symSize: 0x150 }
  - { offsetInCU: 0x55A4C, offset: 0x301781, size: 0x8, addend: 0x0, symName: '__ZN4core3ptr47drop_in_place$LT$syn..path..GenericArgument$GT$17h593f06d6ca9a94d2E', symObjAddr: 0x8EB0, symBinAddr: 0x85DC0, symSize: 0x4A0 }
  - { offsetInCU: 0x56B52, offset: 0x302887, size: 0x8, addend: 0x0, symName: '__ZN4core3ptr49drop_in_place$LT$syn..generics..LifetimeParam$GT$17h3a8835ab294bfd16E', symObjAddr: 0x9350, symBinAddr: 0x86260, symSize: 0xF0 }
  - { offsetInCU: 0x56F69, offset: 0x302C9E, size: 0x8, addend: 0x0, symName: '__ZN4core3ptr49drop_in_place$LT$syn..restriction..Visibility$GT$17h3e52b998838defb1E', symObjAddr: 0x9440, symBinAddr: 0x86350, symSize: 0x60 }
  - { offsetInCU: 0x570DE, offset: 0x302E13, size: 0x8, addend: 0x0, symName: '__ZN4core3ptr50drop_in_place$LT$syn..generics..TypeParamBound$GT$17h81b4325b5900604dE', symObjAddr: 0x94A0, symBinAddr: 0x863B0, symSize: 0x1C0 }
  - { offsetInCU: 0x5765A, offset: 0x30338F, size: 0x8, addend: 0x0, symName: '__ZN4core3ptr58drop_in_place$LT$alloc..vec..Vec$LT$syn..expr..Arm$GT$$GT$17hff9224aadf2233b8E', symObjAddr: 0x96A0, symBinAddr: 0x86570, symSize: 0xD0 }
  - { offsetInCU: 0x5791A, offset: 0x30364F, size: 0x8, addend: 0x0, symName: '__ZN4core3ptr59drop_in_place$LT$alloc..boxed..Box$LT$syn..pat..Pat$GT$$GT$17h622b0c1db21c0742E', symObjAddr: 0x9770, symBinAddr: 0x86640, symSize: 0x50 }
  - { offsetInCU: 0x57A73, offset: 0x3037A8, size: 0x8, addend: 0x0, symName: '__ZN4core3ptr59drop_in_place$LT$alloc..boxed..Box$LT$syn..ty..Type$GT$$GT$17hde45fa887dd8b605E', symObjAddr: 0x97C0, symBinAddr: 0x86690, symSize: 0x50 }
  - { offsetInCU: 0x57BCC, offset: 0x303901, size: 0x8, addend: 0x0, symName: '__ZN4core3ptr59drop_in_place$LT$alloc..vec..Vec$LT$syn..item..Item$GT$$GT$17h8590e8c8e196c3c2E', symObjAddr: 0x9810, symBinAddr: 0x866E0, symSize: 0xD0 }
  - { offsetInCU: 0x57E8C, offset: 0x303BC1, size: 0x8, addend: 0x0, symName: '__ZN4core3ptr59drop_in_place$LT$alloc..vec..Vec$LT$syn..stmt..Stmt$GT$$GT$17h6cf3e54f41bc03bdE', symObjAddr: 0x98E0, symBinAddr: 0x867B0, symSize: 0xD0 }
  - { offsetInCU: 0x5814C, offset: 0x303E81, size: 0x8, addend: 0x0, symName: '__ZN4core3ptr61drop_in_place$LT$alloc..boxed..Box$LT$syn..expr..Expr$GT$$GT$17hbb42293869113942E', symObjAddr: 0x99B0, symBinAddr: 0x86880, symSize: 0x50 }
  - { offsetInCU: 0x58321, offset: 0x304056, size: 0x8, addend: 0x0, symName: '__ZN4core3ptr61drop_in_place$LT$syn..path..ParenthesizedGenericArguments$GT$17h6b1731382637937fE', symObjAddr: 0x9A70, symBinAddr: 0x868D0, symSize: 0x170 }
  - { offsetInCU: 0x58917, offset: 0x30464C, size: 0x8, addend: 0x0, symName: '__ZN4core3ptr62drop_in_place$LT$alloc..boxed..Box$LT$syn..stmt..Block$GT$$GT$17h21dcb5adf0237a12E', symObjAddr: 0x9BE0, symBinAddr: 0x86A40, symSize: 0xE0 }
  - { offsetInCU: 0x58D29, offset: 0x304A5E, size: 0x8, addend: 0x0, symName: '__ZN4core3ptr62drop_in_place$LT$syn..path..AngleBracketedGenericArguments$GT$17hf8fa172f007a1473E', symObjAddr: 0x9CC0, symBinAddr: 0x86B20, symSize: 0x120 }
  - { offsetInCU: 0x59174, offset: 0x304EA9, size: 0x8, addend: 0x0, symName: '__ZN4core3ptr63drop_in_place$LT$alloc..boxed..Box$LT$syn..lit..LitRepr$GT$$GT$17h6e3a82ea4de7b84cE', symObjAddr: 0x9DE0, symBinAddr: 0x86C40, symSize: 0x60 }
  - { offsetInCU: 0x5943D, offset: 0x305172, size: 0x8, addend: 0x0, symName: '__ZN4core3ptr63drop_in_place$LT$alloc..vec..Vec$LT$syn..item..ImplItem$GT$$GT$17hc51fca07e67d35aeE', symObjAddr: 0x9E40, symBinAddr: 0x86CA0, symSize: 0x80 }
  - { offsetInCU: 0x59714, offset: 0x305449, size: 0x8, addend: 0x0, symName: '__ZN4core3ptr64drop_in_place$LT$alloc..boxed..Box$LT$syn..item..UseTree$GT$$GT$17he4d7024582150632E', symObjAddr: 0x9EC0, symBinAddr: 0x86D20, symSize: 0xF0 }
  - { offsetInCU: 0x59C2F, offset: 0x305964, size: 0x8, addend: 0x0, symName: '__ZN4core3ptr64drop_in_place$LT$alloc..boxed..Box$LT$syn..pat..FieldPat$GT$$GT$17hbf8f4867d84bd25dE', symObjAddr: 0x9FB0, symBinAddr: 0x86E10, symSize: 0x140 }
  - { offsetInCU: 0x5A330, offset: 0x306065, size: 0x8, addend: 0x0, symName: '__ZN4core3ptr64drop_in_place$LT$alloc..boxed..Box$LT$syn..ty..BareFnArg$GT$$GT$17h6be6354eb1d1364dE', symObjAddr: 0xA0F0, symBinAddr: 0x86F50, symSize: 0x140 }
  - { offsetInCU: 0x5A8B9, offset: 0x3065EE, size: 0x8, addend: 0x0, symName: '__ZN4core3ptr64drop_in_place$LT$alloc..vec..Vec$LT$syn..attr..Attribute$GT$$GT$17he33e25539d5885aeE', symObjAddr: 0xA230, symBinAddr: 0x87090, symSize: 0xD0 }
  - { offsetInCU: 0x5ABAD, offset: 0x3068E2, size: 0x8, addend: 0x0, symName: '__ZN4core3ptr64drop_in_place$LT$alloc..vec..Vec$LT$syn..item..TraitItem$GT$$GT$17hff1cc01ccae80d7aE', symObjAddr: 0xA300, symBinAddr: 0x87160, symSize: 0x80 }
  - { offsetInCU: 0x5AE65, offset: 0x306B9A, size: 0x8, addend: 0x0, symName: '__ZN4core3ptr65drop_in_place$LT$alloc..vec..Vec$LT$proc_macro..TokenTree$GT$$GT$17h8abd81f8596dbc59E', symObjAddr: 0xA380, symBinAddr: 0x871E0, symSize: 0x110 }
  - { offsetInCU: 0x5B25D, offset: 0x306F92, size: 0x8, addend: 0x0, symName: '__ZN4core3ptr65drop_in_place$LT$core..option..Option$LT$syn..expr..Label$GT$$GT$17hac599686b33ef364E', symObjAddr: 0xA490, symBinAddr: 0x872F0, symSize: 0x30 }
  - { offsetInCU: 0x5B397, offset: 0x3070CC, size: 0x8, addend: 0x0, symName: '__ZN4core3ptr65drop_in_place$LT$core..option..Option$LT$syn..stmt..Block$GT$$GT$17h74f2551ed24e2d27E', symObjAddr: 0xA4C0, symBinAddr: 0x87320, symSize: 0xD0 }
  - { offsetInCU: 0x5B66C, offset: 0x3073A1, size: 0x8, addend: 0x0, symName: '__ZN4core3ptr66drop_in_place$LT$alloc..vec..Vec$LT$syn..item..ForeignItem$GT$$GT$17h1f176e04eaf5e0dfE', symObjAddr: 0xA590, symBinAddr: 0x873F0, symSize: 0x80 }
  - { offsetInCU: 0x5B924, offset: 0x307659, size: 0x8, addend: 0x0, symName: '__ZN4core3ptr66drop_in_place$LT$core..option..Option$LT$syn..pat..PatRest$GT$$GT$17hd5bb3bc28aa78ac1E', symObjAddr: 0xA610, symBinAddr: 0x87470, symSize: 0xE0 }
  - { offsetInCU: 0x5BC4C, offset: 0x307981, size: 0x8, addend: 0x0, symName: '__ZN4core3ptr67drop_in_place$LT$alloc..boxed..Box$LT$syn..expr..FieldValue$GT$$GT$17hbbcf67a9d5e9863cE', symObjAddr: 0xA6F0, symBinAddr: 0x87550, symSize: 0x140 }
  - { offsetInCU: 0x5C1B5, offset: 0x307EEA, size: 0x8, addend: 0x0, symName: '__ZN4core3ptr67drop_in_place$LT$core..option..Option$LT$proc_macro2..Ident$GT$$GT$17h430b2bec25099623E', symObjAddr: 0xA830, symBinAddr: 0x87690, symSize: 0x30 }
  - { offsetInCU: 0x5C2B1, offset: 0x307FE6, size: 0x8, addend: 0x0, symName: '__ZN4core3ptr68drop_in_place$LT$alloc..boxed..Box$LT$syn..path..PathSegment$GT$$GT$17h99aaf90b3262bc1eE', symObjAddr: 0xA860, symBinAddr: 0x876C0, symSize: 0x1B0 }
  - { offsetInCU: 0x5C9BF, offset: 0x3086F4, size: 0x8, addend: 0x0, symName: '__ZN4core3ptr70drop_in_place$LT$core..option..Option$LT$syn..ty..BareVariadic$GT$$GT$17h79a19250e9f043b1E', symObjAddr: 0xAA30, symBinAddr: 0x87870, symSize: 0x100 }
  - { offsetInCU: 0x5CE2A, offset: 0x308B5F, size: 0x8, addend: 0x0, symName: '__ZN4core3ptr72drop_in_place$LT$alloc..boxed..Box$LT$syn..path..GenericArgument$GT$$GT$17hfd308d374af4273dE', symObjAddr: 0xAB30, symBinAddr: 0x87970, symSize: 0x1D0 }
  - { offsetInCU: 0x5D3C5, offset: 0x3090FA, size: 0x8, addend: 0x0, symName: '__ZN4core3ptr72drop_in_place$LT$core..option..Option$LT$syn..lifetime..Lifetime$GT$$GT$17h49cce6f02f9c0590E', symObjAddr: 0xAD00, symBinAddr: 0x87B40, symSize: 0x30 }
  - { offsetInCU: 0x5D4E0, offset: 0x309215, size: 0x8, addend: 0x0, symName: '__ZN4core3ptr73drop_in_place$LT$alloc..boxed..Box$LT$syn..generics..GenericParam$GT$$GT$17ha26d5d145af4b203E', symObjAddr: 0xAD30, symBinAddr: 0x87B70, symSize: 0x80 }
  - { offsetInCU: 0x5D656, offset: 0x30938B, size: 0x8, addend: 0x0, symName: '__ZN4core3ptr75drop_in_place$LT$alloc..boxed..Box$LT$syn..generics..TypeParamBound$GT$$GT$17h129a4e927e5eb81bE', symObjAddr: 0xADB0, symBinAddr: 0x87BF0, symSize: 0xC0 }
  - { offsetInCU: 0x5D9C9, offset: 0x3096FE, size: 0x8, addend: 0x0, symName: '__ZN4core3ptr75drop_in_place$LT$core..option..Option$LT$syn..generics..WhereClause$GT$$GT$17haaf63f327098cdccE', symObjAddr: 0xAE70, symBinAddr: 0x87CB0, symSize: 0x90 }
  - { offsetInCU: 0x5DCBD, offset: 0x3099F2, size: 0x8, addend: 0x0, symName: '__ZN4core3ptr86drop_in_place$LT$syn..punctuated..Punctuated$LT$syn..pat..Pat$C$syn..token..Or$GT$$GT$17h9cc6b5f7b6d3a555E', symObjAddr: 0xAF00, symBinAddr: 0x87D40, symSize: 0x120 }
  - { offsetInCU: 0x5E138, offset: 0x309E6D, size: 0x8, addend: 0x0, symName: '__ZN4core3ptr87drop_in_place$LT$core..option..Option$LT$alloc..boxed..Box$LT$syn..pat..Pat$GT$$GT$$GT$17h51cd48973d96c411E', symObjAddr: 0xB040, symBinAddr: 0x87E60, symSize: 0x50 }
  - { offsetInCU: 0x5E2A8, offset: 0x309FDD, size: 0x8, addend: 0x0, symName: '__ZN4core3ptr87drop_in_place$LT$core..option..Option$LT$alloc..boxed..Box$LT$syn..ty..Type$GT$$GT$$GT$17h103a25a4a7d7374eE', symObjAddr: 0xB090, symBinAddr: 0x87EB0, symSize: 0x50 }
  - { offsetInCU: 0x5E418, offset: 0x30A14D, size: 0x8, addend: 0x0, symName: '__ZN4core3ptr89drop_in_place$LT$core..option..Option$LT$alloc..boxed..Box$LT$syn..expr..Expr$GT$$GT$$GT$17h9e02509cb2345d44E', symObjAddr: 0xB100, symBinAddr: 0x87F00, symSize: 0x50 }
  - { offsetInCU: 0x5E5C6, offset: 0x30A2FB, size: 0x8, addend: 0x0, symName: '__ZN4core3ptr89drop_in_place$LT$syn..punctuated..Punctuated$LT$syn..pat..Pat$C$syn..token..Comma$GT$$GT$17hd3a83c36827f210aE', symObjAddr: 0xB150, symBinAddr: 0x87F50, symSize: 0x120 }
  - { offsetInCU: 0x5EA58, offset: 0x30A78D, size: 0x8, addend: 0x0, symName: '__ZN4core3ptr89drop_in_place$LT$syn..punctuated..Punctuated$LT$syn..ty..Type$C$syn..token..Comma$GT$$GT$17he030c4b7f24a5848E', symObjAddr: 0xB270, symBinAddr: 0x88070, symSize: 0x120 }
  - { offsetInCU: 0x5EF11, offset: 0x30AC46, size: 0x8, addend: 0x0, symName: '__ZN4core3ptr90drop_in_place$LT$core..option..Option$LT$alloc..boxed..Box$LT$syn..data..Field$GT$$GT$$GT$17h9f1aee8cd56c6727E', symObjAddr: 0xB390, symBinAddr: 0x88190, symSize: 0x1B0 }
  - { offsetInCU: 0x5F60C, offset: 0x30B341, size: 0x8, addend: 0x0, symName: '__ZN4core3ptr90drop_in_place$LT$core..option..Option$LT$alloc..boxed..Box$LT$syn..item..FnArg$GT$$GT$$GT$17h8635495a730dc0bfE', symObjAddr: 0xB540, symBinAddr: 0x88340, symSize: 0x70 }
  - { offsetInCU: 0x5F786, offset: 0x30B4BB, size: 0x8, addend: 0x0, symName: '__ZN4core3ptr90drop_in_place$LT$core..option..Option$LT$syn..path..AngleBracketedGenericArguments$GT$$GT$17ha307713a95a0671eE', symObjAddr: 0xB5B0, symBinAddr: 0x883B0, symSize: 0x130 }
  - { offsetInCU: 0x5FC28, offset: 0x30B95D, size: 0x8, addend: 0x0, symName: '__ZN4core3ptr91drop_in_place$LT$syn..punctuated..Punctuated$LT$syn..expr..Expr$C$syn..token..Comma$GT$$GT$17h6f261e8f470c81f2E', symObjAddr: 0xB6E0, symBinAddr: 0x884E0, symSize: 0x120 }
  - { offsetInCU: 0x600B6, offset: 0x30BDEB, size: 0x8, addend: 0x0, symName: '__ZN4core3ptr92drop_in_place$LT$core..option..Option$LT$$LP$syn..token..As$C$proc_macro2..Ident$RP$$GT$$GT$17h12a88945917fa9dbE', symObjAddr: 0xB800, symBinAddr: 0x88600, symSize: 0x30 }
  - { offsetInCU: 0x6020F, offset: 0x30BF44, size: 0x8, addend: 0x0, symName: '__ZN4core3ptr92drop_in_place$LT$core..option..Option$LT$alloc..boxed..Box$LT$syn..data..Variant$GT$$GT$$GT$17hb65f9b5d99f448afE', symObjAddr: 0xB830, symBinAddr: 0x88630, symSize: 0x170 }
  - { offsetInCU: 0x6083B, offset: 0x30C570, size: 0x8, addend: 0x0, symName: '__ZN4core3ptr92drop_in_place$LT$syn..punctuated..Punctuated$LT$syn..item..FnArg$C$syn..token..Comma$GT$$GT$17h7de33e77eabaea82E', symObjAddr: 0xB9A0, symBinAddr: 0x887A0, symSize: 0x140 }
  - { offsetInCU: 0x60CB8, offset: 0x30C9ED, size: 0x8, addend: 0x0, symName: '__ZN4core3ptr94drop_in_place$LT$syn..punctuated..Punctuated$LT$syn..data..Variant$C$syn..token..Comma$GT$$GT$17h310cd79aba4529ccE', symObjAddr: 0xBAE0, symBinAddr: 0x888E0, symSize: 0xE0 }
  - { offsetInCU: 0x61018, offset: 0x30CD4D, size: 0x8, addend: 0x0, symName: '__ZN4core3ptr94drop_in_place$LT$syn..punctuated..Punctuated$LT$syn..item..UseTree$C$syn..token..Comma$GT$$GT$17h6236871345889df7E', symObjAddr: 0xBBC0, symBinAddr: 0x889C0, symSize: 0xF0 }
  - { offsetInCU: 0x6135E, offset: 0x30D093, size: 0x8, addend: 0x0, symName: '__ZN4core3ptr94drop_in_place$LT$syn..punctuated..Punctuated$LT$syn..pat..FieldPat$C$syn..token..Comma$GT$$GT$17h43ec25af986ef674E', symObjAddr: 0xBCB0, symBinAddr: 0x88AB0, symSize: 0xF0 }
  - { offsetInCU: 0x6165D, offset: 0x30D392, size: 0x8, addend: 0x0, symName: '__ZN4core3ptr94drop_in_place$LT$syn..punctuated..Punctuated$LT$syn..ty..BareFnArg$C$syn..token..Comma$GT$$GT$17h7ba4c699ee390ebaE', symObjAddr: 0xBDA0, symBinAddr: 0x88BA0, symSize: 0xF0 }
  - { offsetInCU: 0x6195E, offset: 0x30D693, size: 0x8, addend: 0x0, symName: '__ZN4core3ptr96drop_in_place$LT$core..option..Option$LT$alloc..boxed..Box$LT$syn..path..PathSegment$GT$$GT$$GT$17h5de12a5a0f9e9ef9E', symObjAddr: 0xBE90, symBinAddr: 0x88C90, symSize: 0xA0 }
  - { offsetInCU: 0x61BDD, offset: 0x30D912, size: 0x8, addend: 0x0, symName: '__ZN4core3ptr97drop_in_place$LT$syn..punctuated..Punctuated$LT$syn..expr..FieldValue$C$syn..token..Comma$GT$$GT$17hf58d0a9a09266ab3E', symObjAddr: 0xBF30, symBinAddr: 0x88D30, symSize: 0xF0 }
  - { offsetInCU: 0x61EDA, offset: 0x30DC0F, size: 0x8, addend: 0x0, symName: '__ZN4core3ptr98drop_in_place$LT$alloc..vec..Vec$LT$$LP$syn..path..GenericArgument$C$syn..token..Comma$RP$$GT$$GT$17h0dee282a026d5a38E', symObjAddr: 0xC020, symBinAddr: 0x88E20, symSize: 0xD0 }
  - { offsetInCU: 0x6221A, offset: 0x30DF4F, size: 0x8, addend: 0x0, symName: '__ZN4core3ptr98drop_in_place$LT$syn..punctuated..Punctuated$LT$syn..lifetime..Lifetime$C$syn..token..Plus$GT$$GT$17h600c2b78f78fd2b9E', symObjAddr: 0xC0F0, symBinAddr: 0x88EF0, symSize: 0xD0 }
  - { offsetInCU: 0x68F56, offset: 0x314C8B, size: 0x8, addend: 0x0, symName: '__ZN48_$LT$T$u20$as$u20$core..clone..CloneToUninit$GT$15clone_to_uninit17h4081700a47491491E', symObjAddr: 0x300, symBinAddr: 0x7D3C0, symSize: 0x360 }
  - { offsetInCU: 0x70245, offset: 0x31BF7A, size: 0x8, addend: 0x0, symName: '__ZN5alloc3vec16Vec$LT$T$C$A$GT$15append_elements17h17d0f6dcdaba10bcE', symObjAddr: 0xC230, symBinAddr: 0x88FC0, symSize: 0x70 }
  - { offsetInCU: 0x7049C, offset: 0x31C1D1, size: 0x8, addend: 0x0, symName: __ZN3syn4item4Item13replace_attrs17h0529b41fa0d8dba2E, symObjAddr: 0xCB80, symBinAddr: 0x89030, symSize: 0x190 }
  - { offsetInCU: 0x1E, offset: 0x32A5E2, size: 0x8, addend: 0x0, symName: '__ZN4core3ptr100drop_in_place$LT$alloc..vec..Vec$LT$$LP$syn..generics..TypeParamBound$C$syn..token..Plus$RP$$GT$$GT$17hea181150e4b37806E.llvm.991277207215265740', symObjAddr: 0x0, symBinAddr: 0x9D4A0, symSize: 0xD0 }
  - { offsetInCU: 0x130F, offset: 0x32B8D3, size: 0x8, addend: 0x0, symName: '__ZN111_$LT$syn..punctuated..PrivateIter$LT$T$C$P$GT$$u20$as$u20$core..iter..traits..exact_size..ExactSizeIterator$GT$3len17h50a0616fbc194d0cE.llvm.991277207215265740', symObjAddr: 0x10550, symBinAddr: 0xAA8F0, symSize: 0x0 }
  - { offsetInCU: 0x13FF, offset: 0x32B9C3, size: 0x8, addend: 0x0, symName: '__ZN111_$LT$syn..punctuated..PrivateIter$LT$T$C$P$GT$$u20$as$u20$core..iter..traits..exact_size..ExactSizeIterator$GT$3len17hd03ac3201b3cfde6E.llvm.991277207215265740', symObjAddr: 0x105D0, symBinAddr: 0xAA920, symSize: 0x0 }
  - { offsetInCU: 0x16EF, offset: 0x32BCB3, size: 0x8, addend: 0x0, symName: '__ZN115_$LT$syn..punctuated..PrivateIter$LT$T$C$P$GT$$u20$as$u20$core..iter..traits..double_ended..DoubleEndedIterator$GT$9next_back17h7f4f61270a4204d7E.llvm.991277207215265740', symObjAddr: 0x104C0, symBinAddr: 0xAA890, symSize: 0x0 }
  - { offsetInCU: 0x19A3, offset: 0x32BF67, size: 0x8, addend: 0x0, symName: '__ZN115_$LT$syn..punctuated..PrivateIter$LT$T$C$P$GT$$u20$as$u20$core..iter..traits..double_ended..DoubleEndedIterator$GT$9next_back17ha17ab53f0e146145E.llvm.991277207215265740', symObjAddr: 0x10520, symBinAddr: 0xAA8C0, symSize: 0x0 }
  - { offsetInCU: 0x1E83, offset: 0x32C447, size: 0x8, addend: 0x0, symName: '__ZN100_$LT$syn..punctuated..PrivateIter$LT$T$C$P$GT$$u20$as$u20$core..iter..traits..iterator..Iterator$GT$4next17h2a509a6c34848c4aE.llvm.991277207215265740', symObjAddr: 0x103D0, symBinAddr: 0xAA7D0, symSize: 0x0 }
  - { offsetInCU: 0x2139, offset: 0x32C6FD, size: 0x8, addend: 0x0, symName: '__ZN100_$LT$syn..punctuated..PrivateIter$LT$T$C$P$GT$$u20$as$u20$core..iter..traits..iterator..Iterator$GT$4next17h5eda91cdb09673d1E.llvm.991277207215265740', symObjAddr: 0x10400, symBinAddr: 0xAA800, symSize: 0x0 }
  - { offsetInCU: 0x23CB, offset: 0x32C98F, size: 0x8, addend: 0x0, symName: '__ZN100_$LT$syn..punctuated..PrivateIter$LT$T$C$P$GT$$u20$as$u20$core..iter..traits..iterator..Iterator$GT$4next17h63cbef55dd3a9f53E.llvm.991277207215265740', symObjAddr: 0x10430, symBinAddr: 0xAA830, symSize: 0x30 }
  - { offsetInCU: 0x265D, offset: 0x32CC21, size: 0x8, addend: 0x0, symName: '__ZN100_$LT$syn..punctuated..PrivateIter$LT$T$C$P$GT$$u20$as$u20$core..iter..traits..iterator..Iterator$GT$4next17h6b4639ca1419e80fE.llvm.991277207215265740', symObjAddr: 0x10460, symBinAddr: 0xAA860, symSize: 0x30 }
  - { offsetInCU: 0x2DB2, offset: 0x32D376, size: 0x8, addend: 0x0, symName: '__ZN79_$LT$syn..punctuated..Punctuated$LT$T$C$P$GT$$u20$as$u20$core..clone..Clone$GT$5clone17h123489863670ef82E', symObjAddr: 0xCAC0, symBinAddr: 0xA9020, symSize: 0x150 }
  - { offsetInCU: 0x3085, offset: 0x32D649, size: 0x8, addend: 0x0, symName: '__ZN79_$LT$syn..punctuated..Punctuated$LT$T$C$P$GT$$u20$as$u20$core..clone..Clone$GT$5clone17h22992bcace29f499E', symObjAddr: 0xCC10, symBinAddr: 0xA9170, symSize: 0xE0 }
  - { offsetInCU: 0x330C, offset: 0x32D8D0, size: 0x8, addend: 0x0, symName: '__ZN79_$LT$syn..punctuated..Punctuated$LT$T$C$P$GT$$u20$as$u20$core..clone..Clone$GT$5clone17h2892afd7277887d8E', symObjAddr: 0xCCF0, symBinAddr: 0xA9250, symSize: 0xE0 }
  - { offsetInCU: 0x3593, offset: 0x32DB57, size: 0x8, addend: 0x0, symName: '__ZN79_$LT$syn..punctuated..Punctuated$LT$T$C$P$GT$$u20$as$u20$core..clone..Clone$GT$5clone17h4f35f72a65007a75E', symObjAddr: 0xCDD0, symBinAddr: 0xA9330, symSize: 0xC0 }
  - { offsetInCU: 0x37C2, offset: 0x32DD86, size: 0x8, addend: 0x0, symName: '__ZN79_$LT$syn..punctuated..Punctuated$LT$T$C$P$GT$$u20$as$u20$core..clone..Clone$GT$5clone17h5b87dcc40d8ae16cE', symObjAddr: 0xCE90, symBinAddr: 0xA93F0, symSize: 0xE0 }
  - { offsetInCU: 0x3A49, offset: 0x32E00D, size: 0x8, addend: 0x0, symName: '__ZN79_$LT$syn..punctuated..Punctuated$LT$T$C$P$GT$$u20$as$u20$core..clone..Clone$GT$5clone17h5e7cb3171b95369bE', symObjAddr: 0xCF70, symBinAddr: 0xA94D0, symSize: 0xC0 }
  - { offsetInCU: 0x3C77, offset: 0x32E23B, size: 0x8, addend: 0x0, symName: '__ZN79_$LT$syn..punctuated..Punctuated$LT$T$C$P$GT$$u20$as$u20$core..clone..Clone$GT$5clone17h71b1884f4462d97bE', symObjAddr: 0xD030, symBinAddr: 0xA9590, symSize: 0xE0 }
  - { offsetInCU: 0x3EFE, offset: 0x32E4C2, size: 0x8, addend: 0x0, symName: '__ZN79_$LT$syn..punctuated..Punctuated$LT$T$C$P$GT$$u20$as$u20$core..clone..Clone$GT$5clone17h795b6e9f94c0c96cE', symObjAddr: 0xD110, symBinAddr: 0xA9670, symSize: 0xE0 }
  - { offsetInCU: 0x4185, offset: 0x32E749, size: 0x8, addend: 0x0, symName: '__ZN79_$LT$syn..punctuated..Punctuated$LT$T$C$P$GT$$u20$as$u20$core..clone..Clone$GT$5clone17h7b959744e3d5b8dbE', symObjAddr: 0xD1F0, symBinAddr: 0xA9750, symSize: 0x110 }
  - { offsetInCU: 0x4442, offset: 0x32EA06, size: 0x8, addend: 0x0, symName: '__ZN79_$LT$syn..punctuated..Punctuated$LT$T$C$P$GT$$u20$as$u20$core..clone..Clone$GT$5clone17h8ecfcac09434508eE', symObjAddr: 0xD3E0, symBinAddr: 0xA9860, symSize: 0x180 }
  - { offsetInCU: 0x4814, offset: 0x32EDD8, size: 0x8, addend: 0x0, symName: '__ZN79_$LT$syn..punctuated..Punctuated$LT$T$C$P$GT$$u20$as$u20$core..clone..Clone$GT$5clone17ha7ab2dd954c80b81E', symObjAddr: 0xD560, symBinAddr: 0xA99E0, symSize: 0xE0 }
  - { offsetInCU: 0x4A9A, offset: 0x32F05E, size: 0x8, addend: 0x0, symName: '__ZN79_$LT$syn..punctuated..Punctuated$LT$T$C$P$GT$$u20$as$u20$core..clone..Clone$GT$5clone17hc80da0ae5e8a9a5aE', symObjAddr: 0xD640, symBinAddr: 0xA9AC0, symSize: 0x110 }
  - { offsetInCU: 0x4F21, offset: 0x32F4E5, size: 0x8, addend: 0x0, symName: '__ZN138_$LT$syn..punctuated..Punctuated$LT$T$C$P$GT$$u20$as$u20$core..iter..traits..collect..Extend$LT$syn..punctuated..Pair$LT$T$C$P$GT$$GT$$GT$6extend17hd3a7828e12a2fa09E', symObjAddr: 0xF2D0, symBinAddr: 0xA9BD0, symSize: 0x3A0 }
  - { offsetInCU: 0x5552, offset: 0x32FB16, size: 0x8, addend: 0x0, symName: '__ZN102_$LT$syn..punctuated..Punctuated$LT$T$C$P$GT$$u20$as$u20$core..iter..traits..collect..IntoIterator$GT$9into_iter17h698c57053df0ce3aE', symObjAddr: 0xF670, symBinAddr: 0xA9F70, symSize: 0x2D0 }
  - { offsetInCU: 0x624F, offset: 0x330813, size: 0x8, addend: 0x0, symName: '__ZN102_$LT$syn..punctuated..Punctuated$LT$T$C$P$GT$$u20$as$u20$core..iter..traits..collect..IntoIterator$GT$9into_iter17h9fd0831bc615f074E', symObjAddr: 0xF940, symBinAddr: 0xAA240, symSize: 0x2C0 }
  - { offsetInCU: 0x6F46, offset: 0x33150A, size: 0x8, addend: 0x0, symName: '__ZN102_$LT$syn..punctuated..Punctuated$LT$T$C$P$GT$$u20$as$u20$core..iter..traits..collect..IntoIterator$GT$9into_iter17ha7d65590a9674661E', symObjAddr: 0xFC00, symBinAddr: 0xAA500, symSize: 0x2D0 }
  - { offsetInCU: 0x8632, offset: 0x332BF6, size: 0x8, addend: 0x0, symName: '__ZN57_$LT$I$u20$as$u20$syn..punctuated..IterTrait$LT$T$GT$$GT$9clone_box17hbe556fca14490948E.llvm.991277207215265740', symObjAddr: 0x106C0, symBinAddr: 0xAA950, symSize: 0x60 }
  - { offsetInCU: 0x8841, offset: 0x332E05, size: 0x8, addend: 0x0, symName: '__ZN57_$LT$I$u20$as$u20$syn..punctuated..IterTrait$LT$T$GT$$GT$9clone_box17hc37750fcf967705cE.llvm.991277207215265740', symObjAddr: 0x10720, symBinAddr: 0xAA9B0, symSize: 0x60 }
  - { offsetInCU: 0x8A56, offset: 0x33301A, size: 0x8, addend: 0x0, symName: '__ZN97_$LT$syn..punctuated..Punctuated$LT$T$C$P$GT$$u20$as$u20$core..ops..index..Index$LT$usize$GT$$GT$5index17h20cbc4df05d7c9eaE', symObjAddr: 0x10780, symBinAddr: 0xAAA10, symSize: 0x50 }
  - { offsetInCU: 0x8BFF, offset: 0x3331C3, size: 0x8, addend: 0x0, symName: '__ZN3syn10punctuated8printing91_$LT$impl$u20$quote..to_tokens..ToTokens$u20$for$u20$syn..punctuated..Pair$LT$T$C$P$GT$$GT$9to_tokens17h6dc2c5660e354e29E', symObjAddr: 0x110C0, symBinAddr: 0xAAD30, symSize: 0xD0 }
  - { offsetInCU: 0x8DC8, offset: 0x33338C, size: 0x8, addend: 0x0, symName: '__ZN3syn10punctuated8printing91_$LT$impl$u20$quote..to_tokens..ToTokens$u20$for$u20$syn..punctuated..Pair$LT$T$C$P$GT$$GT$9to_tokens17hc2518142b17a3489E', symObjAddr: 0x11360, symBinAddr: 0xAAE00, symSize: 0xF3 }
  - { offsetInCU: 0x8FB0, offset: 0x333574, size: 0x8, addend: 0x0, symName: '__ZN3syn10punctuated8printing97_$LT$impl$u20$quote..to_tokens..ToTokens$u20$for$u20$syn..punctuated..Punctuated$LT$T$C$P$GT$$GT$9to_tokens17h060d1d80f541d446E', symObjAddr: 0x10820, symBinAddr: 0xAAA60, symSize: 0x150 }
  - { offsetInCU: 0x94F6, offset: 0x333ABA, size: 0x8, addend: 0x0, symName: '__ZN3syn10punctuated8printing97_$LT$impl$u20$quote..to_tokens..ToTokens$u20$for$u20$syn..punctuated..Punctuated$LT$T$C$P$GT$$GT$9to_tokens17h7327b9d2fa65c2baE', symObjAddr: 0x10B90, symBinAddr: 0xAABB0, symSize: 0x180 }
  - { offsetInCU: 0x10DE4, offset: 0x33B3A8, size: 0x8, addend: 0x0, symName: '__ZN4core3ptr100drop_in_place$LT$alloc..vec..Vec$LT$$LP$syn..generics..TypeParamBound$C$syn..token..Plus$RP$$GT$$GT$17hea181150e4b37806E.llvm.991277207215265740', symObjAddr: 0x0, symBinAddr: 0x9D4A0, symSize: 0xD0 }
  - { offsetInCU: 0x110C3, offset: 0x33B687, size: 0x8, addend: 0x0, symName: '__ZN4core3ptr100drop_in_place$LT$core..option..Option$LT$alloc..boxed..Box$LT$syn..path..GenericArgument$GT$$GT$$GT$17h3a7c44b9e57fe410E.llvm.991277207215265740', symObjAddr: 0xD0, symBinAddr: 0x9D570, symSize: 0x50 }
  - { offsetInCU: 0x112AF, offset: 0x33B873, size: 0x8, addend: 0x0, symName: '__ZN4core3ptr100drop_in_place$LT$syn..punctuated..Punctuated$LT$syn..path..PathSegment$C$syn..token..PathSep$GT$$GT$17he41ef64147139591E', symObjAddr: 0x120, symBinAddr: 0x9D5C0, symSize: 0x150 }
  - { offsetInCU: 0x11813, offset: 0x33BDD7, size: 0x8, addend: 0x0, symName: '__ZN4core3ptr101drop_in_place$LT$alloc..vec..Vec$LT$$LP$syn..generics..WherePredicate$C$syn..token..Comma$RP$$GT$$GT$17h480aa68a207f67a8E.llvm.991277207215265740', symObjAddr: 0x270, symBinAddr: 0x9D710, symSize: 0x60 }
  - { offsetInCU: 0x11AB6, offset: 0x33C07A, size: 0x8, addend: 0x0, symName: '__ZN4core3ptr102drop_in_place$LT$syn..punctuated..Punctuated$LT$syn..path..GenericArgument$C$syn..token..Comma$GT$$GT$17h8b1978399cfff48bE', symObjAddr: 0x2D0, symBinAddr: 0x9D770, symSize: 0xF0 }
  - { offsetInCU: 0x11DD6, offset: 0x33C39A, size: 0x8, addend: 0x0, symName: '__ZN4core3ptr103drop_in_place$LT$core..option..Option$LT$alloc..boxed..Box$LT$syn..generics..TypeParamBound$GT$$GT$$GT$17hb14e4384a768542bE.llvm.991277207215265740', symObjAddr: 0x3C0, symBinAddr: 0x9D860, symSize: 0x50 }
  - { offsetInCU: 0x11FE1, offset: 0x33C5A5, size: 0x8, addend: 0x0, symName: '__ZN4core3ptr103drop_in_place$LT$syn..punctuated..Punctuated$LT$syn..generics..GenericParam$C$syn..token..Comma$GT$$GT$17h0c6077a988036760E.llvm.991277207215265740', symObjAddr: 0x410, symBinAddr: 0x9D8B0, symSize: 0xF0 }
  - { offsetInCU: 0x12539, offset: 0x33CAFD, size: 0x8, addend: 0x0, symName: '__ZN4core3ptr104drop_in_place$LT$syn..punctuated..Punctuated$LT$syn..generics..TypeParamBound$C$syn..token..Plus$GT$$GT$17h724e4d9d1d65061aE.llvm.991277207215265740', symObjAddr: 0x500, symBinAddr: 0x9D9A0, symSize: 0x190 }
  - { offsetInCU: 0x12B5C, offset: 0x33D120, size: 0x8, addend: 0x0, symName: '__ZN4core3ptr126drop_in_place$LT$core..option..Option$LT$$LP$syn..token..And$C$core..option..Option$LT$syn..lifetime..Lifetime$GT$$RP$$GT$$GT$17h45c5d73e12cdf6f0E', symObjAddr: 0x690, symBinAddr: 0x9DB30, symSize: 0x30 }
  - { offsetInCU: 0x12D6F, offset: 0x33D333, size: 0x8, addend: 0x0, symName: '__ZN4core3ptr34drop_in_place$LT$syn..lit..Lit$GT$17hd64dde89a262341dE', symObjAddr: 0x6C0, symBinAddr: 0x9DB60, symSize: 0x120 }
  - { offsetInCU: 0x1327C, offset: 0x33D840, size: 0x8, addend: 0x0, symName: '__ZN4core3ptr34drop_in_place$LT$syn..pat..Pat$GT$17hf88887878261d63cE.llvm.991277207215265740', symObjAddr: 0x7E0, symBinAddr: 0x9DC80, symSize: 0x1100 }
  - { offsetInCU: 0x178F5, offset: 0x341EB9, size: 0x8, addend: 0x0, symName: '__ZN4core3ptr34drop_in_place$LT$syn..ty..Type$GT$17ha80dd29b0f9d4a3fE.llvm.991277207215265740', symObjAddr: 0x18E0, symBinAddr: 0x9ED80, symSize: 0x520 }
  - { offsetInCU: 0x18F6A, offset: 0x34352E, size: 0x8, addend: 0x0, symName: '__ZN4core3ptr36drop_in_place$LT$syn..expr..Expr$GT$17h10f573b40ddd212cE.llvm.991277207215265740', symObjAddr: 0x1E00, symBinAddr: 0x9F2A0, symSize: 0x2830 }
  - { offsetInCU: 0x2306D, offset: 0x34D631, size: 0x8, addend: 0x0, symName: '__ZN4core3ptr36drop_in_place$LT$syn..mac..Macro$GT$17hc3b30a7a8a34cc2dE', symObjAddr: 0x4630, symBinAddr: 0xA1AD0, symSize: 0x40 }
  - { offsetInCU: 0x230A7, offset: 0x34D66B, size: 0x8, addend: 0x0, symName: '__ZN4core3ptr36drop_in_place$LT$syn..path..Path$GT$17h75c74a97d5f0a03bE.llvm.991277207215265740', symObjAddr: 0x4670, symBinAddr: 0xA1B10, symSize: 0x110 }
  - { offsetInCU: 0x234C9, offset: 0x34DA8D, size: 0x8, addend: 0x0, symName: '__ZN4core3ptr37drop_in_place$LT$syn..data..Field$GT$17hb03070569ab32babE.llvm.991277207215265740', symObjAddr: 0x4780, symBinAddr: 0xA1C20, symSize: 0x140 }
  - { offsetInCU: 0x2391D, offset: 0x34DEE1, size: 0x8, addend: 0x0, symName: '__ZN4core3ptr37drop_in_place$LT$syn..item..FnArg$GT$17h470fdeee5cba5e3aE.llvm.991277207215265740', symObjAddr: 0x48C0, symBinAddr: 0xA1D60, symSize: 0x230 }
  - { offsetInCU: 0x24237, offset: 0x34E7FB, size: 0x8, addend: 0x0, symName: '__ZN4core3ptr37drop_in_place$LT$syn..stmt..Block$GT$17h6fc3254d5688f2c3E', symObjAddr: 0x4AF0, symBinAddr: 0xA1F90, symSize: 0xD0 }
  - { offsetInCU: 0x2450E, offset: 0x34EAD2, size: 0x8, addend: 0x0, symName: '__ZN4core3ptr38drop_in_place$LT$syn..expr..Member$GT$17h6b0cf84594ce6bceE.llvm.991277207215265740', symObjAddr: 0x4BC0, symBinAddr: 0xA2060, symSize: 0x30 }
  - { offsetInCU: 0x2460A, offset: 0x34EBCE, size: 0x8, addend: 0x0, symName: '__ZN4core3ptr39drop_in_place$LT$proc_macro2..Ident$GT$17ha28fef9769e267d9E.llvm.991277207215265740', symObjAddr: 0x4BF0, symBinAddr: 0xA2090, symSize: 0x30 }
  - { offsetInCU: 0x24744, offset: 0x34ED08, size: 0x8, addend: 0x0, symName: '__ZN4core3ptr39drop_in_place$LT$syn..data..Variant$GT$17h92766dd8637b4069E', symObjAddr: 0x4C20, symBinAddr: 0xA20C0, symSize: 0x150 }
  - { offsetInCU: 0x24CEB, offset: 0x34F2AF, size: 0x8, addend: 0x0, symName: '__ZN4core3ptr39drop_in_place$LT$syn..item..UseTree$GT$17h7288572c631f954aE.llvm.991277207215265740', symObjAddr: 0x4D70, symBinAddr: 0xA2210, symSize: 0x1E0 }
  - { offsetInCU: 0x2543B, offset: 0x34F9FF, size: 0x8, addend: 0x0, symName: '__ZN4core3ptr39drop_in_place$LT$syn..pat..FieldPat$GT$17he93d151251e1075bE.llvm.991277207215265740', symObjAddr: 0x4F50, symBinAddr: 0xA23F0, symSize: 0x120 }
  - { offsetInCU: 0x259D5, offset: 0x34FF99, size: 0x8, addend: 0x0, symName: '__ZN4core3ptr39drop_in_place$LT$syn..ty..BareFnArg$GT$17h06523caf0a2ebe3aE.llvm.991277207215265740', symObjAddr: 0x5070, symBinAddr: 0xA2510, symSize: 0x110 }
  - { offsetInCU: 0x25DF8, offset: 0x3503BC, size: 0x8, addend: 0x0, symName: '__ZN4core3ptr40drop_in_place$LT$syn..ty..ReturnType$GT$17h035a612e322b6510E', symObjAddr: 0x5180, symBinAddr: 0xA2620, symSize: 0x50 }
  - { offsetInCU: 0x25F68, offset: 0x35052C, size: 0x8, addend: 0x0, symName: '__ZN4core3ptr41drop_in_place$LT$syn..expr..ExprConst$GT$17hbfe19d5d621e6836E', symObjAddr: 0x51D0, symBinAddr: 0xA2670, symSize: 0x180 }
  - { offsetInCU: 0x26555, offset: 0x350B19, size: 0x8, addend: 0x0, symName: '__ZN4core3ptr42drop_in_place$LT$syn..expr..FieldValue$GT$17heed77b5eea8beaa5E.llvm.991277207215265740', symObjAddr: 0x5350, symBinAddr: 0xA27F0, symSize: 0x110 }
  - { offsetInCU: 0x26996, offset: 0x350F5A, size: 0x8, addend: 0x0, symName: '__ZN4core3ptr43drop_in_place$LT$syn..path..PathSegment$GT$17h903332e979944cf4E.llvm.991277207215265740', symObjAddr: 0x5460, symBinAddr: 0xA2900, symSize: 0x190 }
  - { offsetInCU: 0x26EFA, offset: 0x3514BE, size: 0x8, addend: 0x0, symName: '__ZN4core3ptr44drop_in_place$LT$syn..lifetime..Lifetime$GT$17he37fa474f03de7b1E.llvm.991277207215265740', symObjAddr: 0x55F0, symBinAddr: 0xA2A90, symSize: 0x30 }
  - { offsetInCU: 0x2712C, offset: 0x3516F0, size: 0x8, addend: 0x0, symName: '__ZN4core3ptr45drop_in_place$LT$proc_macro2..TokenStream$GT$17h76e8e68015f4924dE.llvm.991277207215265740', symObjAddr: 0x5620, symBinAddr: 0xA2AC0, symSize: 0x140 }
  - { offsetInCU: 0x275C6, offset: 0x351B8A, size: 0x8, addend: 0x0, symName: '__ZN4core3ptr45drop_in_place$LT$syn..generics..TypeParam$GT$17h188a459c1380ac75E.llvm.991277207215265740', symObjAddr: 0x5760, symBinAddr: 0xA2C00, symSize: 0x230 }
  - { offsetInCU: 0x27E3B, offset: 0x3523FF, size: 0x8, addend: 0x0, symName: '__ZN4core3ptr46drop_in_place$LT$syn..generics..ConstParam$GT$17h7a9b900b2b88bfcdE.llvm.991277207215265740', symObjAddr: 0x5990, symBinAddr: 0xA2E30, symSize: 0x150 }
  - { offsetInCU: 0x282BC, offset: 0x352880, size: 0x8, addend: 0x0, symName: '__ZN4core3ptr47drop_in_place$LT$syn..path..GenericArgument$GT$17h593f06d6ca9a94d2E.llvm.991277207215265740', symObjAddr: 0x5AE0, symBinAddr: 0xA2F80, symSize: 0x450 }
  - { offsetInCU: 0x29032, offset: 0x3535F6, size: 0x8, addend: 0x0, symName: '__ZN4core3ptr48drop_in_place$LT$syn..generics..GenericParam$GT$17hd6859d95c1b7c168E.llvm.991277207215265740', symObjAddr: 0x5F30, symBinAddr: 0xA33D0, symSize: 0x40 }
  - { offsetInCU: 0x2904F, offset: 0x353613, size: 0x8, addend: 0x0, symName: '__ZN4core3ptr49drop_in_place$LT$syn..generics..LifetimeParam$GT$17h3a8835ab294bfd16E.llvm.991277207215265740', symObjAddr: 0x5F70, symBinAddr: 0xA3410, symSize: 0xF0 }
  - { offsetInCU: 0x294A4, offset: 0x353A68, size: 0x8, addend: 0x0, symName: '__ZN4core3ptr49drop_in_place$LT$syn..restriction..Visibility$GT$17h3e52b998838defb1E', symObjAddr: 0x6060, symBinAddr: 0xA3500, symSize: 0x150 }
  - { offsetInCU: 0x29A0D, offset: 0x353FD1, size: 0x8, addend: 0x0, symName: '__ZN4core3ptr50drop_in_place$LT$syn..generics..TypeParamBound$GT$17h81b4325b5900604dE.llvm.991277207215265740', symObjAddr: 0x61B0, symBinAddr: 0xA3650, symSize: 0x1C0 }
  - { offsetInCU: 0x29FA8, offset: 0x35456C, size: 0x8, addend: 0x0, symName: '__ZN4core3ptr50drop_in_place$LT$syn..generics..WherePredicate$GT$17h1dcd41fbf166681cE.llvm.991277207215265740', symObjAddr: 0x6370, symBinAddr: 0xA3810, symSize: 0xA0 }
  - { offsetInCU: 0x2A14C, offset: 0x354710, size: 0x8, addend: 0x0, symName: '__ZN4core3ptr58drop_in_place$LT$alloc..vec..Vec$LT$syn..expr..Arm$GT$$GT$17hff9224aadf2233b8E', symObjAddr: 0x6410, symBinAddr: 0xA38B0, symSize: 0xD0 }
  - { offsetInCU: 0x2A40C, offset: 0x3549D0, size: 0x8, addend: 0x0, symName: '__ZN4core3ptr59drop_in_place$LT$alloc..boxed..Box$LT$syn..pat..Pat$GT$$GT$17h622b0c1db21c0742E.llvm.991277207215265740', symObjAddr: 0x64E0, symBinAddr: 0xA3980, symSize: 0x50 }
  - { offsetInCU: 0x2A565, offset: 0x354B29, size: 0x8, addend: 0x0, symName: '__ZN4core3ptr59drop_in_place$LT$alloc..boxed..Box$LT$syn..ty..Type$GT$$GT$17hde45fa887dd8b605E.llvm.991277207215265740', symObjAddr: 0x6530, symBinAddr: 0xA39D0, symSize: 0x50 }
  - { offsetInCU: 0x2A6DD, offset: 0x354CA1, size: 0x8, addend: 0x0, symName: '__ZN4core3ptr60drop_in_place$LT$alloc..vec..Vec$LT$syn..data..Field$GT$$GT$17hc3bb014db8148fb4E.llvm.991277207215265740', symObjAddr: 0x6580, symBinAddr: 0xA3A20, symSize: 0xD0 }
  - { offsetInCU: 0x2A9B0, offset: 0x354F74, size: 0x8, addend: 0x0, symName: '__ZN4core3ptr61drop_in_place$LT$alloc..boxed..Box$LT$syn..expr..Expr$GT$$GT$17hbb42293869113942E.llvm.991277207215265740', symObjAddr: 0x6650, symBinAddr: 0xA3AF0, symSize: 0x50 }
  - { offsetInCU: 0x2AB85, offset: 0x355149, size: 0x8, addend: 0x0, symName: '__ZN4core3ptr61drop_in_place$LT$syn..path..ParenthesizedGenericArguments$GT$17h6b1731382637937fE.llvm.991277207215265740', symObjAddr: 0x66A0, symBinAddr: 0xA3B40, symSize: 0x170 }
  - { offsetInCU: 0x2B18E, offset: 0x355752, size: 0x8, addend: 0x0, symName: '__ZN4core3ptr63drop_in_place$LT$alloc..boxed..Box$LT$syn..lit..LitRepr$GT$$GT$17h6e3a82ea4de7b84cE', symObjAddr: 0x68B0, symBinAddr: 0xA3CB0, symSize: 0x60 }
  - { offsetInCU: 0x2B457, offset: 0x355A1B, size: 0x8, addend: 0x0, symName: '__ZN4core3ptr64drop_in_place$LT$alloc..boxed..Box$LT$syn..item..UseTree$GT$$GT$17he4d7024582150632E', symObjAddr: 0x6960, symBinAddr: 0xA3D10, symSize: 0x50 }
  - { offsetInCU: 0x2B5CF, offset: 0x355B93, size: 0x8, addend: 0x0, symName: '__ZN4core3ptr64drop_in_place$LT$alloc..boxed..Box$LT$syn..pat..FieldPat$GT$$GT$17hbf8f4867d84bd25dE', symObjAddr: 0x69B0, symBinAddr: 0xA3D60, symSize: 0x140 }
  - { offsetInCU: 0x2BC92, offset: 0x356256, size: 0x8, addend: 0x0, symName: '__ZN4core3ptr64drop_in_place$LT$alloc..boxed..Box$LT$syn..ty..BareFnArg$GT$$GT$17h6be6354eb1d1364dE', symObjAddr: 0x6AF0, symBinAddr: 0xA3EA0, symSize: 0x140 }
  - { offsetInCU: 0x2C21B, offset: 0x3567DF, size: 0x8, addend: 0x0, symName: '__ZN4core3ptr65drop_in_place$LT$alloc..vec..Vec$LT$proc_macro..TokenTree$GT$$GT$17h8abd81f8596dbc59E.llvm.991277207215265740', symObjAddr: 0x6C30, symBinAddr: 0xA3FE0, symSize: 0x110 }
  - { offsetInCU: 0x2C613, offset: 0x356BD7, size: 0x8, addend: 0x0, symName: '__ZN4core3ptr65drop_in_place$LT$core..option..Option$LT$syn..expr..Label$GT$$GT$17hac599686b33ef364E', symObjAddr: 0x6D40, symBinAddr: 0xA40F0, symSize: 0x30 }
  - { offsetInCU: 0x2C74D, offset: 0x356D11, size: 0x8, addend: 0x0, symName: '__ZN4core3ptr66drop_in_place$LT$core..option..Option$LT$syn..pat..PatRest$GT$$GT$17hd5bb3bc28aa78ac1E', symObjAddr: 0x6D70, symBinAddr: 0xA4120, symSize: 0xE0 }
  - { offsetInCU: 0x2CA75, offset: 0x357039, size: 0x8, addend: 0x0, symName: '__ZN4core3ptr67drop_in_place$LT$alloc..boxed..Box$LT$syn..expr..FieldValue$GT$$GT$17hbbcf67a9d5e9863cE', symObjAddr: 0x6E50, symBinAddr: 0xA4200, symSize: 0x140 }
  - { offsetInCU: 0x2CFFD, offset: 0x3575C1, size: 0x8, addend: 0x0, symName: '__ZN4core3ptr70drop_in_place$LT$core..option..Option$LT$syn..ty..BareVariadic$GT$$GT$17h79a19250e9f043b1E', symObjAddr: 0x7030, symBinAddr: 0xA4340, symSize: 0x100 }
  - { offsetInCU: 0x2D468, offset: 0x357A2C, size: 0x8, addend: 0x0, symName: '__ZN4core3ptr72drop_in_place$LT$alloc..boxed..Box$LT$syn..path..GenericArgument$GT$$GT$17hfd308d374af4273dE', symObjAddr: 0x7130, symBinAddr: 0xA4440, symSize: 0x2B0 }
  - { offsetInCU: 0x2DE79, offset: 0x35843D, size: 0x8, addend: 0x0, symName: '__ZN4core3ptr73drop_in_place$LT$alloc..boxed..Box$LT$syn..generics..GenericParam$GT$$GT$17ha26d5d145af4b203E.llvm.991277207215265740', symObjAddr: 0x73E0, symBinAddr: 0xA46F0, symSize: 0x80 }
  - { offsetInCU: 0x2E00E, offset: 0x3585D2, size: 0x8, addend: 0x0, symName: '__ZN4core3ptr73drop_in_place$LT$alloc..vec..Vec$LT$syn..generics..TypeParamBound$GT$$GT$17h559d22d805be3033E.llvm.991277207215265740', symObjAddr: 0x7460, symBinAddr: 0xA4770, symSize: 0xC0 }
  - { offsetInCU: 0x2E2DF, offset: 0x3588A3, size: 0x8, addend: 0x0, symName: '__ZN4core3ptr75drop_in_place$LT$alloc..boxed..Box$LT$syn..generics..TypeParamBound$GT$$GT$17h129a4e927e5eb81bE', symObjAddr: 0x7520, symBinAddr: 0xA4830, symSize: 0xC0 }
  - { offsetInCU: 0x2E5D6, offset: 0x358B9A, size: 0x8, addend: 0x0, symName: '__ZN4core3ptr76drop_in_place$LT$$LP$syn..generics..GenericParam$C$syn..token..Comma$RP$$GT$17hfa938bd7ff9e78c2E.llvm.991277207215265740', symObjAddr: 0x7630, symBinAddr: 0xA48F0, symSize: 0x40 }
  - { offsetInCU: 0x2E644, offset: 0x358C08, size: 0x8, addend: 0x0, symName: '__ZN4core3ptr79drop_in_place$LT$alloc..vec..Vec$LT$$LP$syn..data..Field$C$$LP$$RP$$RP$$GT$$GT$17h5a3df1ef3eba3b8cE.llvm.991277207215265740', symObjAddr: 0x7670, symBinAddr: 0xA4930, symSize: 0xD0 }
  - { offsetInCU: 0x2E96A, offset: 0x358F2E, size: 0x8, addend: 0x0, symName: '__ZN4core3ptr82drop_in_place$LT$alloc..vec..Vec$LT$$LP$syn..pat..Pat$C$syn..token..Or$RP$$GT$$GT$17h1f0f428d7b2d8011E.llvm.991277207215265740', symObjAddr: 0x7740, symBinAddr: 0xA4A00, symSize: 0x0 }
  - { offsetInCU: 0x2EC62, offset: 0x359226, size: 0x8, addend: 0x0, symName: '__ZN4core3ptr85drop_in_place$LT$alloc..vec..Vec$LT$$LP$syn..ty..Type$C$syn..token..Comma$RP$$GT$$GT$17h0cf4844ea7ad9568E.llvm.991277207215265740', symObjAddr: 0x7810, symBinAddr: 0xA4AD0, symSize: 0xD0 }
  - { offsetInCU: 0x2EF94, offset: 0x359558, size: 0x8, addend: 0x0, symName: '__ZN4core3ptr86drop_in_place$LT$syn..punctuated..Punctuated$LT$syn..pat..Pat$C$syn..token..Or$GT$$GT$17h9cc6b5f7b6d3a555E', symObjAddr: 0x78E0, symBinAddr: 0xA4BA0, symSize: 0x120 }
  - { offsetInCU: 0x2F42E, offset: 0x3599F2, size: 0x8, addend: 0x0, symName: '__ZN4core3ptr87drop_in_place$LT$alloc..vec..Vec$LT$$LP$syn..expr..Expr$C$syn..token..Comma$RP$$GT$$GT$17hd1036fba4025974bE.llvm.991277207215265740', symObjAddr: 0x7A00, symBinAddr: 0xA4CC0, symSize: 0xD0 }
  - { offsetInCU: 0x2F722, offset: 0x359CE6, size: 0x8, addend: 0x0, symName: '__ZN4core3ptr87drop_in_place$LT$core..option..Option$LT$alloc..boxed..Box$LT$syn..pat..Pat$GT$$GT$$GT$17h51cd48973d96c411E', symObjAddr: 0x7AD0, symBinAddr: 0xA4D90, symSize: 0x50 }
  - { offsetInCU: 0x2F892, offset: 0x359E56, size: 0x8, addend: 0x0, symName: '__ZN4core3ptr87drop_in_place$LT$core..option..Option$LT$alloc..boxed..Box$LT$syn..ty..Type$GT$$GT$$GT$17h103a25a4a7d7374eE.llvm.991277207215265740', symObjAddr: 0x7B20, symBinAddr: 0xA4DE0, symSize: 0x50 }
  - { offsetInCU: 0x2FA21, offset: 0x359FE5, size: 0x8, addend: 0x0, symName: '__ZN4core3ptr88drop_in_place$LT$alloc..vec..Vec$LT$$LP$syn..data..Field$C$syn..token..Comma$RP$$GT$$GT$17h066c67d26ce3e154E.llvm.991277207215265740', symObjAddr: 0x7B70, symBinAddr: 0xA4E30, symSize: 0xD0 }
  - { offsetInCU: 0x2FD38, offset: 0x35A2FC, size: 0x8, addend: 0x0, symName: '__ZN4core3ptr88drop_in_place$LT$alloc..vec..Vec$LT$$LP$syn..item..FnArg$C$syn..token..Comma$RP$$GT$$GT$17he8d49cd20c575884E.llvm.991277207215265740', symObjAddr: 0x7C40, symBinAddr: 0xA4F00, symSize: 0xD0 }
  - { offsetInCU: 0x30037, offset: 0x35A5FB, size: 0x8, addend: 0x0, symName: '__ZN4core3ptr89drop_in_place$LT$core..option..Option$LT$alloc..boxed..Box$LT$syn..expr..Expr$GT$$GT$$GT$17h9e02509cb2345d44E', symObjAddr: 0x7D10, symBinAddr: 0xA4FD0, symSize: 0x50 }
  - { offsetInCU: 0x301E5, offset: 0x35A7A9, size: 0x8, addend: 0x0, symName: '__ZN4core3ptr89drop_in_place$LT$syn..punctuated..Punctuated$LT$syn..pat..Pat$C$syn..token..Comma$GT$$GT$17hd3a83c36827f210aE', symObjAddr: 0x7D60, symBinAddr: 0xA5020, symSize: 0x120 }
  - { offsetInCU: 0x30677, offset: 0x35AC3B, size: 0x8, addend: 0x0, symName: '__ZN4core3ptr89drop_in_place$LT$syn..punctuated..Punctuated$LT$syn..ty..Type$C$syn..token..Comma$GT$$GT$17he030c4b7f24a5848E.llvm.991277207215265740', symObjAddr: 0x7E80, symBinAddr: 0xA5140, symSize: 0x120 }
  - { offsetInCU: 0x30B11, offset: 0x35B0D5, size: 0x8, addend: 0x0, symName: '__ZN4core3ptr90drop_in_place$LT$alloc..vec..Vec$LT$$LP$syn..data..Variant$C$syn..token..Comma$RP$$GT$$GT$17h3ac8ecccf673c389E.llvm.991277207215265740', symObjAddr: 0x7FA0, symBinAddr: 0xA5260, symSize: 0xD0 }
  - { offsetInCU: 0x30E05, offset: 0x35B3C9, size: 0x8, addend: 0x0, symName: '__ZN4core3ptr90drop_in_place$LT$alloc..vec..Vec$LT$$LP$syn..item..UseTree$C$syn..token..Comma$RP$$GT$$GT$17h1e4fface25e12fe6E.llvm.991277207215265740', symObjAddr: 0x8070, symBinAddr: 0xA5330, symSize: 0xD0 }
  - { offsetInCU: 0x310FB, offset: 0x35B6BF, size: 0x8, addend: 0x0, symName: '__ZN4core3ptr90drop_in_place$LT$alloc..vec..Vec$LT$$LP$syn..pat..FieldPat$C$syn..token..Comma$RP$$GT$$GT$17h4d0a520927a96123E.llvm.991277207215265740', symObjAddr: 0x8140, symBinAddr: 0xA5400, symSize: 0xD0 }
  - { offsetInCU: 0x313BD, offset: 0x35B981, size: 0x8, addend: 0x0, symName: '__ZN4core3ptr90drop_in_place$LT$alloc..vec..Vec$LT$$LP$syn..ty..BareFnArg$C$syn..token..Comma$RP$$GT$$GT$17h86271563b6e0e7d6E.llvm.991277207215265740', symObjAddr: 0x8210, symBinAddr: 0xA54D0, symSize: 0xD0 }
  - { offsetInCU: 0x316A0, offset: 0x35BC64, size: 0x8, addend: 0x0, symName: '__ZN4core3ptr90drop_in_place$LT$core..option..Option$LT$alloc..boxed..Box$LT$syn..data..Field$GT$$GT$$GT$17h9f1aee8cd56c6727E.llvm.991277207215265740', symObjAddr: 0x82E0, symBinAddr: 0xA55A0, symSize: 0x50 }
  - { offsetInCU: 0x31822, offset: 0x35BDE6, size: 0x8, addend: 0x0, symName: '__ZN4core3ptr91drop_in_place$LT$syn..punctuated..Punctuated$LT$syn..expr..Expr$C$syn..token..Comma$GT$$GT$17h6f261e8f470c81f2E.llvm.991277207215265740', symObjAddr: 0x8330, symBinAddr: 0xA55F0, symSize: 0x120 }
  - { offsetInCU: 0x31CCF, offset: 0x35C293, size: 0x8, addend: 0x0, symName: '__ZN4core3ptr92drop_in_place$LT$core..option..Option$LT$alloc..boxed..Box$LT$syn..data..Variant$GT$$GT$$GT$17hb65f9b5d99f448afE', symObjAddr: 0x8450, symBinAddr: 0xA5710, symSize: 0x50 }
  - { offsetInCU: 0x31E70, offset: 0x35C434, size: 0x8, addend: 0x0, symName: '__ZN4core3ptr92drop_in_place$LT$syn..punctuated..Punctuated$LT$syn..data..Field$C$syn..token..Comma$GT$$GT$17hf8968831c552f88dE', symObjAddr: 0x84A0, symBinAddr: 0xA5760, symSize: 0x120 }
  - { offsetInCU: 0x322E2, offset: 0x35C8A6, size: 0x8, addend: 0x0, symName: '__ZN4core3ptr93drop_in_place$LT$alloc..vec..Vec$LT$$LP$syn..expr..FieldValue$C$syn..token..Comma$RP$$GT$$GT$17hf889827bae7d8b64E.llvm.991277207215265740', symObjAddr: 0x85C0, symBinAddr: 0xA5880, symSize: 0xD0 }
  - { offsetInCU: 0x325C1, offset: 0x35CB85, size: 0x8, addend: 0x0, symName: '__ZN4core3ptr94drop_in_place$LT$alloc..vec..Vec$LT$$LP$syn..lifetime..Lifetime$C$syn..token..Plus$RP$$GT$$GT$17h446c63e6d8248f75E.llvm.991277207215265740', symObjAddr: 0x8690, symBinAddr: 0xA5950, symSize: 0x90 }
  - { offsetInCU: 0x328A3, offset: 0x35CE67, size: 0x8, addend: 0x0, symName: '__ZN4core3ptr94drop_in_place$LT$syn..punctuated..Punctuated$LT$syn..data..Variant$C$syn..token..Comma$GT$$GT$17h310cd79aba4529ccE', symObjAddr: 0x8720, symBinAddr: 0xA59E0, symSize: 0x120 }
  - { offsetInCU: 0x32D11, offset: 0x35D2D5, size: 0x8, addend: 0x0, symName: '__ZN4core3ptr94drop_in_place$LT$syn..punctuated..Punctuated$LT$syn..pat..FieldPat$C$syn..token..Comma$GT$$GT$17h43ec25af986ef674E', symObjAddr: 0x8840, symBinAddr: 0xA5B00, symSize: 0xF0 }
  - { offsetInCU: 0x33010, offset: 0x35D5D4, size: 0x8, addend: 0x0, symName: '__ZN4core3ptr94drop_in_place$LT$syn..punctuated..Punctuated$LT$syn..ty..BareFnArg$C$syn..token..Comma$GT$$GT$17h7ba4c699ee390ebaE', symObjAddr: 0x8930, symBinAddr: 0xA5BF0, symSize: 0xF0 }
  - { offsetInCU: 0x33311, offset: 0x35D8D5, size: 0x8, addend: 0x0, symName: '__ZN4core3ptr95drop_in_place$LT$core..option..Option$LT$$LP$proc_macro2..Ident$C$syn..token..Colon$RP$$GT$$GT$17h59fe297999aa3329E.llvm.991277207215265740', symObjAddr: 0x8A20, symBinAddr: 0xA5CE0, symSize: 0x30 }
  - { offsetInCU: 0x3342C, offset: 0x35D9F0, size: 0x8, addend: 0x0, symName: '__ZN4core3ptr96drop_in_place$LT$alloc..vec..Vec$LT$$LP$syn..path..PathSegment$C$syn..token..PathSep$RP$$GT$$GT$17h69d97f03bb66469bE.llvm.991277207215265740', symObjAddr: 0x8A50, symBinAddr: 0xA5D10, symSize: 0x100 }
  - { offsetInCU: 0x33820, offset: 0x35DDE4, size: 0x8, addend: 0x0, symName: '__ZN4core3ptr96drop_in_place$LT$core..option..Option$LT$alloc..boxed..Box$LT$syn..path..PathSegment$GT$$GT$$GT$17h5de12a5a0f9e9ef9E.llvm.991277207215265740', symObjAddr: 0x8B50, symBinAddr: 0xA5E10, symSize: 0x1A0 }
  - { offsetInCU: 0x33F00, offset: 0x35E4C4, size: 0x8, addend: 0x0, symName: '__ZN4core3ptr97drop_in_place$LT$syn..punctuated..Punctuated$LT$syn..expr..FieldValue$C$syn..token..Comma$GT$$GT$17hf58d0a9a09266ab3E', symObjAddr: 0x8D40, symBinAddr: 0xA5FB0, symSize: 0xF0 }
  - { offsetInCU: 0x341FD, offset: 0x35E7C1, size: 0x8, addend: 0x0, symName: '__ZN4core3ptr98drop_in_place$LT$alloc..vec..Vec$LT$$LP$syn..path..GenericArgument$C$syn..token..Comma$RP$$GT$$GT$17h0dee282a026d5a38E.llvm.991277207215265740', symObjAddr: 0x8E30, symBinAddr: 0xA60A0, symSize: 0xD0 }
  - { offsetInCU: 0x344FF, offset: 0x35EAC3, size: 0x8, addend: 0x0, symName: '__ZN4core3ptr98drop_in_place$LT$syn..punctuated..Punctuated$LT$syn..lifetime..Lifetime$C$syn..token..Plus$GT$$GT$17h600c2b78f78fd2b9E.llvm.991277207215265740', symObjAddr: 0x8F00, symBinAddr: 0xA6170, symSize: 0xD0 }
  - { offsetInCU: 0x34973, offset: 0x35EF37, size: 0x8, addend: 0x0, symName: '__ZN4core3ptr99drop_in_place$LT$alloc..vec..Vec$LT$$LP$syn..generics..GenericParam$C$syn..token..Comma$RP$$GT$$GT$17haeaa257234ab8b89E.llvm.991277207215265740', symObjAddr: 0x8FD0, symBinAddr: 0xA6240, symSize: 0x60 }
  - { offsetInCU: 0x34C1E, offset: 0x35F1E2, size: 0x8, addend: 0x0, symName: '__ZN4core3ptr99drop_in_place$LT$syn..punctuated..IntoPairs$LT$syn..path..PathSegment$C$syn..token..PathSep$GT$$GT$17h7bc58557d0a760d7E', symObjAddr: 0x9030, symBinAddr: 0xA62A0, symSize: 0x60 }
  - { offsetInCU: 0x3D070, offset: 0x367634, size: 0x8, addend: 0x0, symName: __ZN4core4iter6traits10exact_size17ExactSizeIterator8is_empty17h1a227f857cbffbf0E.llvm.991277207215265740, symObjAddr: 0x90F0, symBinAddr: 0xA6300, symSize: 0x0 }
  - { offsetInCU: 0x3D244, offset: 0x367808, size: 0x8, addend: 0x0, symName: __ZN4core4iter6traits10exact_size17ExactSizeIterator8is_empty17h8e26652340b1cc60E.llvm.991277207215265740, symObjAddr: 0x9120, symBinAddr: 0xA6330, symSize: 0x0 }
  - { offsetInCU: 0x3D3BE, offset: 0x367982, size: 0x8, addend: 0x0, symName: __ZN4core4iter6traits12double_ended19DoubleEndedIterator15advance_back_by17h1140f40754684fb9E.llvm.991277207215265740, symObjAddr: 0x9150, symBinAddr: 0xA6360, symSize: 0x0 }
  - { offsetInCU: 0x3D610, offset: 0x367BD4, size: 0x8, addend: 0x0, symName: __ZN4core4iter6traits12double_ended19DoubleEndedIterator15advance_back_by17h8a4e4fb504e13f9aE.llvm.991277207215265740, symObjAddr: 0x9240, symBinAddr: 0xA63E0, symSize: 0x0 }
  - { offsetInCU: 0x3D880, offset: 0x367E44, size: 0x8, addend: 0x0, symName: __ZN4core4iter6traits12double_ended19DoubleEndedIterator8nth_back17h012b67c1856b5774E.llvm.991277207215265740, symObjAddr: 0x9330, symBinAddr: 0xA6460, symSize: 0x0 }
  - { offsetInCU: 0x3DD71, offset: 0x368335, size: 0x8, addend: 0x0, symName: __ZN4core4iter6traits12double_ended19DoubleEndedIterator8nth_back17h318f60fcaf78f97eE.llvm.991277207215265740, symObjAddr: 0x93D0, symBinAddr: 0xA6500, symSize: 0x0 }
  - { offsetInCU: 0x3E222, offset: 0x3687E6, size: 0x8, addend: 0x0, symName: __ZN4core4iter6traits8iterator8Iterator10advance_by17h3d527f137a6d7fdfE.llvm.991277207215265740, symObjAddr: 0x95B0, symBinAddr: 0xA65A0, symSize: 0x0 }
  - { offsetInCU: 0x3E53B, offset: 0x368AFF, size: 0x8, addend: 0x0, symName: __ZN4core4iter6traits8iterator8Iterator10advance_by17h7c4ef1b391a0bc39E.llvm.991277207215265740, symObjAddr: 0x9620, symBinAddr: 0xA6610, symSize: 0x0 }
  - { offsetInCU: 0x3E8A5, offset: 0x368E69, size: 0x8, addend: 0x0, symName: __ZN4core4iter6traits8iterator8Iterator3nth17h1e8866c786c3aeccE.llvm.991277207215265740, symObjAddr: 0x9760, symBinAddr: 0xA6680, symSize: 0x0 }
  - { offsetInCU: 0x3EEBF, offset: 0x369483, size: 0x8, addend: 0x0, symName: __ZN4core4iter6traits8iterator8Iterator3nth17h6888513c7a8c22bfE.llvm.991277207215265740, symObjAddr: 0x9860, symBinAddr: 0xA6700, symSize: 0x0 }
  - { offsetInCU: 0x3F488, offset: 0x369A4C, size: 0x8, addend: 0x0, symName: __ZN4core4iter6traits8iterator8Iterator9size_hint17h01b8df23581c5177E.llvm.991277207215265740, symObjAddr: 0x9960, symBinAddr: 0xA6780, symSize: 0x0 }
  - { offsetInCU: 0x44D8C, offset: 0x36F350, size: 0x8, addend: 0x0, symName: _anon.13e9612c7f1e77365c13ade4b7a3f6db.8.llvm.991277207215265740, symObjAddr: 0x13228, symBinAddr: 0x2A4CD0, symSize: 0x0 }
  - { offsetInCU: 0x44E6A, offset: 0x36F42E, size: 0x8, addend: 0x0, symName: _anon.13e9612c7f1e77365c13ade4b7a3f6db.11.llvm.991277207215265740, symObjAddr: 0x13338, symBinAddr: 0x2A4DE0, symSize: 0x0 }
  - { offsetInCU: 0x475CB, offset: 0x371B8F, size: 0x8, addend: 0x0, symName: '__ZN3syn10punctuated23Punctuated$LT$T$C$P$GT$10push_value17h2697ae8d07ed6279E', symObjAddr: 0xA040, symBinAddr: 0xA67A0, symSize: 0x0 }
  - { offsetInCU: 0x4782A, offset: 0x371DEE, size: 0x8, addend: 0x0, symName: '__ZN3syn10punctuated23Punctuated$LT$T$C$P$GT$10push_value17h45c7a985809b3219E', symObjAddr: 0xA140, symBinAddr: 0xA68A0, symSize: 0x110 }
  - { offsetInCU: 0x47B93, offset: 0x372157, size: 0x8, addend: 0x0, symName: '__ZN3syn10punctuated23Punctuated$LT$T$C$P$GT$10push_value17h473f367d939ee38aE', symObjAddr: 0xA250, symBinAddr: 0xA69B0, symSize: 0x100 }
  - { offsetInCU: 0x47DF1, offset: 0x3723B5, size: 0x8, addend: 0x0, symName: '__ZN3syn10punctuated23Punctuated$LT$T$C$P$GT$10push_value17h4975d8317d65554cE', symObjAddr: 0xA350, symBinAddr: 0xA6AB0, symSize: 0x100 }
  - { offsetInCU: 0x4806A, offset: 0x37262E, size: 0x8, addend: 0x0, symName: '__ZN3syn10punctuated23Punctuated$LT$T$C$P$GT$10push_value17h56f029a21ae32372E', symObjAddr: 0xA450, symBinAddr: 0xA6BB0, symSize: 0x100 }
  - { offsetInCU: 0x482C9, offset: 0x37288D, size: 0x8, addend: 0x0, symName: '__ZN3syn10punctuated23Punctuated$LT$T$C$P$GT$10push_value17h63a58ef4bac63b37E', symObjAddr: 0xA550, symBinAddr: 0xA6CB0, symSize: 0x100 }
  - { offsetInCU: 0x48528, offset: 0x372AEC, size: 0x8, addend: 0x0, symName: '__ZN3syn10punctuated23Punctuated$LT$T$C$P$GT$10push_value17h7a3a23979d9f27d8E', symObjAddr: 0xA650, symBinAddr: 0xA6DB0, symSize: 0x100 }
  - { offsetInCU: 0x48787, offset: 0x372D4B, size: 0x8, addend: 0x0, symName: '__ZN3syn10punctuated23Punctuated$LT$T$C$P$GT$10push_value17h7b8b7e7a7cc7f473E', symObjAddr: 0xA750, symBinAddr: 0xA6EB0, symSize: 0x100 }
  - { offsetInCU: 0x489D9, offset: 0x372F9D, size: 0x8, addend: 0x0, symName: '__ZN3syn10punctuated23Punctuated$LT$T$C$P$GT$10push_value17h93661bd9a728ecd1E', symObjAddr: 0xA850, symBinAddr: 0xA6FB0, symSize: 0x100 }
  - { offsetInCU: 0x48C45, offset: 0x373209, size: 0x8, addend: 0x0, symName: '__ZN3syn10punctuated23Punctuated$LT$T$C$P$GT$10push_value17hb6a278bfa99a1718E', symObjAddr: 0xA950, symBinAddr: 0xA70B0, symSize: 0xD0 }
  - { offsetInCU: 0x48EA3, offset: 0x373467, size: 0x8, addend: 0x0, symName: '__ZN3syn10punctuated23Punctuated$LT$T$C$P$GT$10push_value17hc6035201a10f0061E', symObjAddr: 0xAA20, symBinAddr: 0xA7180, symSize: 0xF0 }
  - { offsetInCU: 0x49101, offset: 0x3736C5, size: 0x8, addend: 0x0, symName: '__ZN3syn10punctuated23Punctuated$LT$T$C$P$GT$10push_value17hd429ee0060d42f76E', symObjAddr: 0xAB10, symBinAddr: 0xA7270, symSize: 0xF0 }
  - { offsetInCU: 0x4935F, offset: 0x373923, size: 0x8, addend: 0x0, symName: '__ZN3syn10punctuated23Punctuated$LT$T$C$P$GT$10push_value17hdab02e89b3ba5c00E', symObjAddr: 0xAC00, symBinAddr: 0xA7360, symSize: 0x100 }
  - { offsetInCU: 0x495E6, offset: 0x373BAA, size: 0x8, addend: 0x0, symName: '__ZN3syn10punctuated23Punctuated$LT$T$C$P$GT$10push_punct17h06896b7cca64befbE', symObjAddr: 0xAD00, symBinAddr: 0xA7460, symSize: 0x110 }
  - { offsetInCU: 0x499E2, offset: 0x373FA6, size: 0x8, addend: 0x0, symName: '__ZN3syn10punctuated23Punctuated$LT$T$C$P$GT$10push_punct17h0e6070274da9870bE', symObjAddr: 0xAE10, symBinAddr: 0xA7570, symSize: 0x120 }
  - { offsetInCU: 0x49DDE, offset: 0x3743A2, size: 0x8, addend: 0x0, symName: '__ZN3syn10punctuated23Punctuated$LT$T$C$P$GT$10push_punct17h24286cd6641c5efeE', symObjAddr: 0xAF30, symBinAddr: 0xA7690, symSize: 0xF0 }
  - { offsetInCU: 0x4A1DA, offset: 0x37479E, size: 0x8, addend: 0x0, symName: '__ZN3syn10punctuated23Punctuated$LT$T$C$P$GT$10push_punct17h27450a552d2ea5c7E', symObjAddr: 0xB020, symBinAddr: 0xA7780, symSize: 0x110 }
  - { offsetInCU: 0x4A5E3, offset: 0x374BA7, size: 0x8, addend: 0x0, symName: '__ZN3syn10punctuated23Punctuated$LT$T$C$P$GT$10push_punct17h44bfb8b49b59ff15E', symObjAddr: 0xB130, symBinAddr: 0xA7890, symSize: 0x110 }
  - { offsetInCU: 0x4A9DF, offset: 0x374FA3, size: 0x8, addend: 0x0, symName: '__ZN3syn10punctuated23Punctuated$LT$T$C$P$GT$10push_punct17h7ab9900f429df4d2E', symObjAddr: 0xB240, symBinAddr: 0xA79A0, symSize: 0x110 }
  - { offsetInCU: 0x4ADCE, offset: 0x375392, size: 0x8, addend: 0x0, symName: '__ZN3syn10punctuated23Punctuated$LT$T$C$P$GT$10push_punct17h9e503a1a499ffaa4E', symObjAddr: 0xB350, symBinAddr: 0xA7AB0, symSize: 0x110 }
  - { offsetInCU: 0x4B1F8, offset: 0x3757BC, size: 0x8, addend: 0x0, symName: '__ZN3syn10punctuated23Punctuated$LT$T$C$P$GT$10push_punct17haecab6c445d3d0a0E', symObjAddr: 0xB460, symBinAddr: 0xA7BC0, symSize: 0x140 }
  - { offsetInCU: 0x4B747, offset: 0x375D0B, size: 0x8, addend: 0x0, symName: '__ZN3syn10punctuated23Punctuated$LT$T$C$P$GT$10push_punct17hb0efd3086160dde8E', symObjAddr: 0xB5A0, symBinAddr: 0xA7D00, symSize: 0xF0 }
  - { offsetInCU: 0x4BB43, offset: 0x376107, size: 0x8, addend: 0x0, symName: '__ZN3syn10punctuated23Punctuated$LT$T$C$P$GT$10push_punct17hdafa07dad0c325a7E', symObjAddr: 0xB690, symBinAddr: 0xA7DF0, symSize: 0x110 }
  - { offsetInCU: 0x4BF59, offset: 0x37651D, size: 0x8, addend: 0x0, symName: '__ZN3syn10punctuated23Punctuated$LT$T$C$P$GT$10push_punct17hdd359bad1ebfd945E', symObjAddr: 0xB7A0, symBinAddr: 0xA7F00, symSize: 0x110 }
  - { offsetInCU: 0x4C355, offset: 0x376919, size: 0x8, addend: 0x0, symName: '__ZN3syn10punctuated23Punctuated$LT$T$C$P$GT$10push_punct17he61ebefe1fbd6233E', symObjAddr: 0xB8B0, symBinAddr: 0xA8010, symSize: 0x110 }
  - { offsetInCU: 0x4C751, offset: 0x376D15, size: 0x8, addend: 0x0, symName: '__ZN3syn10punctuated23Punctuated$LT$T$C$P$GT$10push_punct17hedabbd3c35f4a750E', symObjAddr: 0xB9C0, symBinAddr: 0xA8120, symSize: 0x110 }
  - { offsetInCU: 0x4CB4D, offset: 0x377111, size: 0x8, addend: 0x0, symName: '__ZN3syn10punctuated23Punctuated$LT$T$C$P$GT$10push_punct17hfa5ffee47f85172bE', symObjAddr: 0xBAD0, symBinAddr: 0xA8230, symSize: 0x110 }
  - { offsetInCU: 0x4CF49, offset: 0x37750D, size: 0x8, addend: 0x0, symName: '__ZN3syn10punctuated23Punctuated$LT$T$C$P$GT$10push_punct17hff6cad691140237dE', symObjAddr: 0xBBE0, symBinAddr: 0xA8340, symSize: 0x120 }
  - { offsetInCU: 0x4D3DE, offset: 0x3779A2, size: 0x8, addend: 0x0, symName: '__ZN3syn10punctuated23Punctuated$LT$T$C$P$GT$3pop17h6c6e5aa8da1faf58E', symObjAddr: 0xBD00, symBinAddr: 0xA8460, symSize: 0xA0 }
  - { offsetInCU: 0x4D7E6, offset: 0x377DAA, size: 0x8, addend: 0x0, symName: '__ZN3syn10punctuated23Punctuated$LT$T$C$P$GT$4push17hdc36ad8613c26a5bE', symObjAddr: 0xBDA0, symBinAddr: 0xA8500, symSize: 0x170 }
  - { offsetInCU: 0x4DB99, offset: 0x37815D, size: 0x8, addend: 0x0, symName: '__ZN3syn10punctuated23Punctuated$LT$T$C$P$GT$21parse_terminated_with17h19cf4460b97e8380E', symObjAddr: 0xBF10, symBinAddr: 0xA8670, symSize: 0x200 }
  - { offsetInCU: 0x4E191, offset: 0x378755, size: 0x8, addend: 0x0, symName: '__ZN3syn10punctuated23Punctuated$LT$T$C$P$GT$21parse_terminated_with17h804f2bc7bf3e5193E', symObjAddr: 0xC310, symBinAddr: 0xA8870, symSize: 0x3D0 }
  - { offsetInCU: 0x4EC38, offset: 0x3791FC, size: 0x8, addend: 0x0, symName: '__ZN3syn10punctuated23Punctuated$LT$T$C$P$GT$21parse_terminated_with17h88338cd3dff110dcE', symObjAddr: 0xC6E0, symBinAddr: 0xA8C40, symSize: 0x3E0 }
  - { offsetInCU: 0x2D53, offset: 0x384E2D, size: 0x8, addend: 0x0, symName: '__ZN3syn4expr7parsing63_$LT$impl$u20$syn..parse..Parse$u20$for$u20$syn..expr..Expr$GT$5parse17h2dd32c2563b281f1E', symObjAddr: 0x9380, symBinAddr: 0xB2BC0, symSize: 0xF0 }
  - { offsetInCU: 0x2E03, offset: 0x384EDD, size: 0x8, addend: 0x0, symName: '__ZN3syn4expr7parsing66_$LT$impl$u20$syn..parse..Parse$u20$for$u20$syn..expr..ExprLit$GT$5parse17h037323e67b33f4e0E', symObjAddr: 0x9D40, symBinAddr: 0xB2CB0, symSize: 0xF0 }
  - { offsetInCU: 0x2EF3, offset: 0x384FCD, size: 0x8, addend: 0x0, symName: '__ZN3syn4expr7parsing65_$LT$impl$u20$syn..parse..Parse$u20$for$u20$syn..expr..ExprIf$GT$5parse17h057f7aac17b81ecfE', symObjAddr: 0x9E70, symBinAddr: 0xB2DA0, symSize: 0x10D0 }
  - { offsetInCU: 0x585A, offset: 0x387934, size: 0x8, addend: 0x0, symName: '__ZN3syn4expr7parsing68_$LT$impl$u20$syn..parse..Parse$u20$for$u20$syn..expr..ExprInfer$GT$5parse17hee2966860a129500E', symObjAddr: 0xAF40, symBinAddr: 0xB3E70, symSize: 0x190 }
  - { offsetInCU: 0x5C4A, offset: 0x387D24, size: 0x8, addend: 0x0, symName: '__ZN3syn4expr7parsing70_$LT$impl$u20$syn..parse..Parse$u20$for$u20$syn..expr..ExprForLoop$GT$5parse17hedfbb0907538a2b3E', symObjAddr: 0xB0D0, symBinAddr: 0xB4000, symSize: 0xAE0 }
  - { offsetInCU: 0x6CAF, offset: 0x388D89, size: 0x8, addend: 0x0, symName: '__ZN3syn4expr7parsing67_$LT$impl$u20$syn..parse..Parse$u20$for$u20$syn..expr..ExprLoop$GT$5parse17h7ed0d5dbbb60f303E', symObjAddr: 0xBBB0, symBinAddr: 0xB4AE0, symSize: 0x670 }
  - { offsetInCU: 0x7B1E, offset: 0x389BF8, size: 0x8, addend: 0x0, symName: '__ZN3syn4expr7parsing68_$LT$impl$u20$syn..parse..Parse$u20$for$u20$syn..expr..ExprMatch$GT$5parse17h34519e3f1e766752E', symObjAddr: 0xC220, symBinAddr: 0xB5150, symSize: 0x870 }
  - { offsetInCU: 0x8A53, offset: 0x38AB2D, size: 0x8, addend: 0x0, symName: '__ZN3syn4expr7parsing69_$LT$impl$u20$syn..parse..Parse$u20$for$u20$syn..expr..ExprReturn$GT$5parse17hc1b56b8a902787dbE', symObjAddr: 0xCDA0, symBinAddr: 0xB59C0, symSize: 0x120 }
  - { offsetInCU: 0x8C38, offset: 0x38AD12, size: 0x8, addend: 0x0, symName: '__ZN3syn4expr7parsing71_$LT$impl$u20$syn..parse..Parse$u20$for$u20$syn..expr..ExprTryBlock$GT$5parse17h57d58ae4f0ae4d64E', symObjAddr: 0xCEC0, symBinAddr: 0xB5AE0, symSize: 0x140 }
  - { offsetInCU: 0x8DB8, offset: 0x38AE92, size: 0x8, addend: 0x0, symName: '__ZN3syn4expr7parsing68_$LT$impl$u20$syn..parse..Parse$u20$for$u20$syn..expr..ExprYield$GT$5parse17h1274dc253af9a55dE', symObjAddr: 0xD000, symBinAddr: 0xB5C20, symSize: 0x120 }
  - { offsetInCU: 0x8F9D, offset: 0x38B077, size: 0x8, addend: 0x0, symName: '__ZN3syn4expr7parsing68_$LT$impl$u20$syn..parse..Parse$u20$for$u20$syn..expr..ExprAsync$GT$5parse17h1b9426392ef89a9dE', symObjAddr: 0xD120, symBinAddr: 0xB5D40, symSize: 0x1E0 }
  - { offsetInCU: 0x92A0, offset: 0x38B37A, size: 0x8, addend: 0x0, symName: '__ZN3syn4expr7parsing68_$LT$impl$u20$syn..parse..Parse$u20$for$u20$syn..expr..ExprWhile$GT$5parse17h632c2901c80fa142E', symObjAddr: 0xD300, symBinAddr: 0xB5F20, symSize: 0x940 }
  - { offsetInCU: 0xA133, offset: 0x38C20D, size: 0x8, addend: 0x0, symName: '__ZN3syn4expr7parsing68_$LT$impl$u20$syn..parse..Parse$u20$for$u20$syn..expr..ExprConst$GT$5parse17h3cb83d630e04595bE', symObjAddr: 0xDC40, symBinAddr: 0xB6860, symSize: 0x480 }
  - { offsetInCU: 0xA967, offset: 0x38CA41, size: 0x8, addend: 0x0, symName: '__ZN3syn4expr7parsing64_$LT$impl$u20$syn..parse..Parse$u20$for$u20$syn..expr..Label$GT$5parse17hef86b1bab95aa7abE', symObjAddr: 0xE0C0, symBinAddr: 0xB6CE0, symSize: 0x240 }
  - { offsetInCU: 0xAE28, offset: 0x38CF02, size: 0x8, addend: 0x0, symName: '__ZN3syn4expr7parsing71_$LT$impl$u20$syn..parse..Parse$u20$for$u20$syn..expr..ExprContinue$GT$5parse17h63c6d49ae369ea01E', symObjAddr: 0xE300, symBinAddr: 0xB6F20, symSize: 0x1B0 }
  - { offsetInCU: 0xAFA9, offset: 0x38D083, size: 0x8, addend: 0x0, symName: '__ZN3syn4expr7parsing69_$LT$impl$u20$syn..parse..Parse$u20$for$u20$syn..expr..FieldValue$GT$5parse17hcbc1792fb9342612E', symObjAddr: 0xE4B0, symBinAddr: 0xB70D0, symSize: 0x670 }
  - { offsetInCU: 0xBA3B, offset: 0x38DB15, size: 0x8, addend: 0x0, symName: '__ZN3syn4expr7parsing69_$LT$impl$u20$syn..parse..Parse$u20$for$u20$syn..expr..ExprUnsafe$GT$5parse17hd34f309eaaaddbf9E', symObjAddr: 0xEC40, symBinAddr: 0xB7740, symSize: 0x480 }
  - { offsetInCU: 0xC26F, offset: 0x38E349, size: 0x8, addend: 0x0, symName: '__ZN3syn4expr7parsing68_$LT$impl$u20$syn..parse..Parse$u20$for$u20$syn..expr..ExprBlock$GT$5parse17h61a2a565a082b026E', symObjAddr: 0xF0C0, symBinAddr: 0xB7BC0, symSize: 0x620 }
  - { offsetInCU: 0xD0C9, offset: 0x38F1A3, size: 0x8, addend: 0x0, symName: '__ZN3syn4expr7parsing70_$LT$impl$u20$syn..parse..Parse$u20$for$u20$syn..expr..RangeLimits$GT$5parse17hafc71f8b1811b3d4E', symObjAddr: 0xF6E0, symBinAddr: 0xB81E0, symSize: 0x2F0 }
  - { offsetInCU: 0xDD45, offset: 0x38FE1F, size: 0x8, addend: 0x0, symName: '__ZN3syn4expr7parsing67_$LT$impl$u20$syn..parse..Parse$u20$for$u20$syn..expr..ExprPath$GT$5parse17hcfacd5d2290fdd20E', symObjAddr: 0xFD70, symBinAddr: 0xB8870, symSize: 0x240 }
  - { offsetInCU: 0xE188, offset: 0x390262, size: 0x8, addend: 0x0, symName: '__ZN3syn4expr7parsing65_$LT$impl$u20$syn..parse..Parse$u20$for$u20$syn..expr..Member$GT$5parse17h207aacc2d4c7579fE', symObjAddr: 0xFFB0, symBinAddr: 0xB8AB0, symSize: 0xE0 }
  - { offsetInCU: 0xE3F8, offset: 0x3904D2, size: 0x8, addend: 0x0, symName: '__ZN3syn4expr7parsing62_$LT$impl$u20$syn..parse..Parse$u20$for$u20$syn..expr..Arm$GT$5parse17h512532f6f815234dE', symObjAddr: 0x10090, symBinAddr: 0xB8B90, symSize: 0xA10 }
  - { offsetInCU: 0xF320, offset: 0x3913FA, size: 0x8, addend: 0x0, symName: '__ZN3syn4expr7parsing64_$LT$impl$u20$syn..parse..Parse$u20$for$u20$syn..expr..Index$GT$5parse17h5b2fe44bac761272E', symObjAddr: 0x10AA0, symBinAddr: 0xB95A0, symSize: 0x180 }
  - { offsetInCU: 0xF9F2, offset: 0x391ACC, size: 0x8, addend: 0x0, symName: '__ZN3syn4expr8printing77_$LT$impl$u20$quote..to_tokens..ToTokens$u20$for$u20$syn..expr..ExprAsync$GT$9to_tokens17h7671d28113e1e04eE', symObjAddr: 0x10CC0, symBinAddr: 0xB9720, symSize: 0x160 }
  - { offsetInCU: 0x1007D, offset: 0x392157, size: 0x8, addend: 0x0, symName: '__ZN3syn4expr8printing77_$LT$impl$u20$quote..to_tokens..ToTokens$u20$for$u20$syn..expr..ExprBlock$GT$9to_tokens17h25103e38a45e4c1aE', symObjAddr: 0x10E40, symBinAddr: 0xB9880, symSize: 0xF0 }
  - { offsetInCU: 0x105E5, offset: 0x3926BF, size: 0x8, addend: 0x0, symName: '__ZN3syn4expr8printing79_$LT$impl$u20$quote..to_tokens..ToTokens$u20$for$u20$syn..expr..ExprClosure$GT$9to_tokens17h22aefaf35f6b4a17E', symObjAddr: 0x10F60, symBinAddr: 0xB9970, symSize: 0x400 }
  - { offsetInCU: 0x1132E, offset: 0x393408, size: 0x8, addend: 0x0, symName: '__ZN3syn4expr8printing77_$LT$impl$u20$quote..to_tokens..ToTokens$u20$for$u20$syn..expr..ExprConst$GT$9to_tokens17hfc10e9b463dc8ee9E', symObjAddr: 0x11360, symBinAddr: 0xB9D70, symSize: 0xF0 }
  - { offsetInCU: 0x117AC, offset: 0x393886, size: 0x8, addend: 0x0, symName: '__ZN3syn4expr8printing80_$LT$impl$u20$quote..to_tokens..ToTokens$u20$for$u20$syn..expr..ExprContinue$GT$9to_tokens17h5bfb9035b6328620E', symObjAddr: 0x11450, symBinAddr: 0xB9E60, symSize: 0x130 }
  - { offsetInCU: 0x11D90, offset: 0x393E6A, size: 0x8, addend: 0x0, symName: '__ZN3syn4expr8printing79_$LT$impl$u20$quote..to_tokens..ToTokens$u20$for$u20$syn..expr..ExprForLoop$GT$9to_tokens17h240fbce8573b3e2aE', symObjAddr: 0x11590, symBinAddr: 0xB9F90, symSize: 0x240 }
  - { offsetInCU: 0x12647, offset: 0x394721, size: 0x8, addend: 0x0, symName: '__ZN3syn4expr8printing74_$LT$impl$u20$quote..to_tokens..ToTokens$u20$for$u20$syn..expr..ExprIf$GT$9to_tokens17hf717ea11b1d1406aE', symObjAddr: 0x11860, symBinAddr: 0xBA1D0, symSize: 0x330 }
  - { offsetInCU: 0x132B4, offset: 0x39538E, size: 0x8, addend: 0x0, symName: '__ZN3syn4expr8printing77_$LT$impl$u20$quote..to_tokens..ToTokens$u20$for$u20$syn..expr..ExprInfer$GT$9to_tokens17h66f2f3192152ee7bE', symObjAddr: 0x11BA0, symBinAddr: 0xBA500, symSize: 0xE0 }
  - { offsetInCU: 0x1375C, offset: 0x395836, size: 0x8, addend: 0x0, symName: '__ZN3syn4expr8printing76_$LT$impl$u20$quote..to_tokens..ToTokens$u20$for$u20$syn..expr..ExprLoop$GT$9to_tokens17h32916f0a6a52df29E', symObjAddr: 0x11D20, symBinAddr: 0xBA5E0, symSize: 0x160 }
  - { offsetInCU: 0x13EFE, offset: 0x395FD8, size: 0x8, addend: 0x0, symName: '__ZN3syn4expr8printing78_$LT$impl$u20$quote..to_tokens..ToTokens$u20$for$u20$syn..expr..ExprStruct$GT$9to_tokens17h5b9d34ef7b745589E', symObjAddr: 0x12260, symBinAddr: 0xBA740, symSize: 0xA0 }
  - { offsetInCU: 0x14289, offset: 0x396363, size: 0x8, addend: 0x0, symName: '__ZN3syn4expr8printing80_$LT$impl$u20$quote..to_tokens..ToTokens$u20$for$u20$syn..expr..ExprTryBlock$GT$9to_tokens17h21b1a3e7eeb0a009E', symObjAddr: 0x12310, symBinAddr: 0xBA7E0, symSize: 0xF0 }
  - { offsetInCU: 0x14787, offset: 0x396861, size: 0x8, addend: 0x0, symName: '__ZN3syn4expr8printing78_$LT$impl$u20$quote..to_tokens..ToTokens$u20$for$u20$syn..expr..ExprUnsafe$GT$9to_tokens17h4dfc36d6c64a764dE', symObjAddr: 0x124A0, symBinAddr: 0xBA8D0, symSize: 0xF0 }
  - { offsetInCU: 0x14C5F, offset: 0x396D39, size: 0x8, addend: 0x0, symName: '__ZN3syn4expr8printing71_$LT$impl$u20$quote..to_tokens..ToTokens$u20$for$u20$syn..expr..Arm$GT$9to_tokens17hb5881eaa41e95cfeE', symObjAddr: 0x12770, symBinAddr: 0xBA9C0, symSize: 0x180 }
  - { offsetInCU: 0x1505B, offset: 0x397135, size: 0x8, addend: 0x0, symName: '__ZN3syn4expr8printing74_$LT$impl$u20$quote..to_tokens..ToTokens$u20$for$u20$syn..expr..Member$GT$9to_tokens17h4e2d160d172ed775E', symObjAddr: 0x12BC0, symBinAddr: 0xBACE0, symSize: 0xC0 }
  - { offsetInCU: 0x1532E, offset: 0x397408, size: 0x8, addend: 0x0, symName: '__ZN3syn4expr8printing78_$LT$impl$u20$quote..to_tokens..ToTokens$u20$for$u20$syn..expr..FieldValue$GT$9to_tokens17heb932e58796058afE', symObjAddr: 0x128F0, symBinAddr: 0xBAB40, symSize: 0x1A0 }
  - { offsetInCU: 0x15992, offset: 0x397A6C, size: 0x8, addend: 0x0, symName: '__ZN62_$LT$syn..expr..Expr$u20$as$u20$quote..to_tokens..ToTokens$GT$9to_tokens17h591e04bab5b62929E', symObjAddr: 0x12D00, symBinAddr: 0xBADA0, symSize: 0x22C0 }
  - { offsetInCU: 0x21564, offset: 0x3A363E, size: 0x8, addend: 0x0, symName: '__ZN3syn3gen5clone63_$LT$impl$u20$core..clone..Clone$u20$for$u20$syn..expr..Arm$GT$5clone17h731a332d9e810dfbE', symObjAddr: 0x174C0, symBinAddr: 0xBD060, symSize: 0x1F0 }
  - { offsetInCU: 0x21EBA, offset: 0x3A3F94, size: 0x8, addend: 0x0, symName: '__ZN3syn3gen5clone64_$LT$impl$u20$core..clone..Clone$u20$for$u20$syn..expr..Expr$GT$5clone17hd0fbb57decae682fE', symObjAddr: 0x176B0, symBinAddr: 0xBD250, symSize: 0x1DF0 }
  - { offsetInCU: 0x25B90, offset: 0x3A7C6A, size: 0x8, addend: 0x0, symName: '__ZN3syn3gen5clone69_$LT$impl$u20$core..clone..Clone$u20$for$u20$syn..expr..ExprBlock$GT$5clone17hc672c8361322b75dE', symObjAddr: 0x199C0, symBinAddr: 0xBF040, symSize: 0x140 }
  - { offsetInCU: 0x25E66, offset: 0x3A7F40, size: 0x8, addend: 0x0, symName: '__ZN3syn3gen5clone69_$LT$impl$u20$core..clone..Clone$u20$for$u20$syn..expr..ExprBreak$GT$5clone17h7bd0ca0880b96178E', symObjAddr: 0x19B00, symBinAddr: 0xBF180, symSize: 0x1A0 }
  - { offsetInCU: 0x26316, offset: 0x3A83F0, size: 0x8, addend: 0x0, symName: '__ZN3syn3gen5clone71_$LT$impl$u20$core..clone..Clone$u20$for$u20$syn..expr..ExprClosure$GT$5clone17h793550ac36ec18ecE', symObjAddr: 0x19F50, symBinAddr: 0xBF320, symSize: 0x380 }
  - { offsetInCU: 0x269E1, offset: 0x3A8ABB, size: 0x8, addend: 0x0, symName: '__ZN3syn3gen5clone71_$LT$impl$u20$core..clone..Clone$u20$for$u20$syn..expr..ExprForLoop$GT$5clone17h43600741ac808a48E', symObjAddr: 0x1A590, symBinAddr: 0xBF6A0, symSize: 0x2A0 }
  - { offsetInCU: 0x2713A, offset: 0x3A9214, size: 0x8, addend: 0x0, symName: '__ZN3syn3gen5clone66_$LT$impl$u20$core..clone..Clone$u20$for$u20$syn..expr..ExprIf$GT$5clone17h1d1ef5ce5034df51E', symObjAddr: 0x1A910, symBinAddr: 0xBF940, symSize: 0x1E0 }
  - { offsetInCU: 0x27659, offset: 0x3A9733, size: 0x8, addend: 0x0, symName: '__ZN3syn3gen5clone68_$LT$impl$u20$core..clone..Clone$u20$for$u20$syn..expr..ExprLoop$GT$5clone17h5ec892bf07c52e97E', symObjAddr: 0x1AE90, symBinAddr: 0xBFB20, symSize: 0x150 }
  - { offsetInCU: 0x2795D, offset: 0x3A9A37, size: 0x8, addend: 0x0, symName: '__ZN3syn3gen5clone69_$LT$impl$u20$core..clone..Clone$u20$for$u20$syn..expr..ExprMatch$GT$5clone17ha5b2779974051841E', symObjAddr: 0x1B070, symBinAddr: 0xBFC70, symSize: 0x140 }
  - { offsetInCU: 0x27BE5, offset: 0x3A9CBF, size: 0x8, addend: 0x0, symName: '__ZN3syn3gen5clone74_$LT$impl$u20$core..clone..Clone$u20$for$u20$syn..expr..ExprMethodCall$GT$5clone17h4d51c2e74302fd51E', symObjAddr: 0x1B1B0, symBinAddr: 0xBFDB0, symSize: 0x3A0 }
  - { offsetInCU: 0x282EC, offset: 0x3AA3C6, size: 0x8, addend: 0x0, symName: '__ZN3syn3gen5clone68_$LT$impl$u20$core..clone..Clone$u20$for$u20$syn..expr..ExprPath$GT$5clone17h5e066ec238ed93d5E', symObjAddr: 0x1B630, symBinAddr: 0xC0150, symSize: 0x1B0 }
  - { offsetInCU: 0x28659, offset: 0x3AA733, size: 0x8, addend: 0x0, symName: '__ZN3syn3gen5clone69_$LT$impl$u20$core..clone..Clone$u20$for$u20$syn..expr..ExprRange$GT$5clone17h9227c42eb2ce8610E', symObjAddr: 0x1B7E0, symBinAddr: 0xC0300, symSize: 0x1A0 }
  - { offsetInCU: 0x28B65, offset: 0x3AAC3F, size: 0x8, addend: 0x0, symName: '__ZN3syn3gen5clone70_$LT$impl$u20$core..clone..Clone$u20$for$u20$syn..expr..ExprStruct$GT$5clone17h182ae561ae6d6028E', symObjAddr: 0x1BC00, symBinAddr: 0xC04A0, symSize: 0x390 }
  - { offsetInCU: 0x293AC, offset: 0x3AB486, size: 0x8, addend: 0x0, symName: '__ZN3syn3gen5clone69_$LT$impl$u20$core..clone..Clone$u20$for$u20$syn..expr..ExprWhile$GT$5clone17hc9698df3873ae4b0E', symObjAddr: 0x1C150, symBinAddr: 0xC0830, symSize: 0x200 }
  - { offsetInCU: 0x298D5, offset: 0x3AB9AF, size: 0x8, addend: 0x0, symName: '__ZN3syn3gen5clone70_$LT$impl$u20$core..clone..Clone$u20$for$u20$syn..expr..FieldValue$GT$5clone17he5e5e61c3443e293E', symObjAddr: 0x1C440, symBinAddr: 0xC0A30, symSize: 0x150 }
  - { offsetInCU: 0x2BC15, offset: 0x3ADCEF, size: 0x8, addend: 0x0, symName: '__ZN4core3ptr100drop_in_place$LT$core..option..Option$LT$alloc..boxed..Box$LT$syn..path..GenericArgument$GT$$GT$$GT$17h3a7c44b9e57fe410E', symObjAddr: 0x1D0, symBinAddr: 0xAAF00, symSize: 0x50 }
  - { offsetInCU: 0x2BFB3, offset: 0x3AE08D, size: 0x8, addend: 0x0, symName: '__ZN4core3ptr100drop_in_place$LT$syn..punctuated..Punctuated$LT$syn..path..PathSegment$C$syn..token..PathSep$GT$$GT$17he41ef64147139591E', symObjAddr: 0x220, symBinAddr: 0xAAF50, symSize: 0x2B0 }
  - { offsetInCU: 0x2CA69, offset: 0x3AEB43, size: 0x8, addend: 0x0, symName: '__ZN4core3ptr103drop_in_place$LT$core..option..Option$LT$alloc..boxed..Box$LT$syn..generics..TypeParamBound$GT$$GT$$GT$17hb14e4384a768542bE', symObjAddr: 0x4D0, symBinAddr: 0xAB200, symSize: 0x50 }
  - { offsetInCU: 0x2CC74, offset: 0x3AED4E, size: 0x8, addend: 0x0, symName: '__ZN4core3ptr103drop_in_place$LT$syn..punctuated..Punctuated$LT$syn..generics..GenericParam$C$syn..token..Comma$GT$$GT$17h0c6077a988036760E', symObjAddr: 0x520, symBinAddr: 0xAB250, symSize: 0xF0 }
  - { offsetInCU: 0x2D16F, offset: 0x3AF249, size: 0x8, addend: 0x0, symName: '__ZN4core3ptr104drop_in_place$LT$syn..punctuated..Punctuated$LT$syn..generics..TypeParamBound$C$syn..token..Plus$GT$$GT$17h724e4d9d1d65061aE', symObjAddr: 0x610, symBinAddr: 0xAB340, symSize: 0x190 }
  - { offsetInCU: 0x2D792, offset: 0x3AF86C, size: 0x8, addend: 0x0, symName: '__ZN4core3ptr114drop_in_place$LT$core..option..Option$LT$$LP$syn..token..If$C$alloc..boxed..Box$LT$syn..expr..Expr$GT$$RP$$GT$$GT$17h65df04de8e20ab0aE.llvm.3179342279309578476', symObjAddr: 0x7A0, symBinAddr: 0xAB4D0, symSize: 0x0 }
  - { offsetInCU: 0x2D9C1, offset: 0x3AFA9B, size: 0x8, addend: 0x0, symName: '__ZN4core3ptr34drop_in_place$LT$syn..lit..Lit$GT$17hd64dde89a262341dE.llvm.3179342279309578476', symObjAddr: 0x7F0, symBinAddr: 0xAB520, symSize: 0x130 }
  - { offsetInCU: 0x2DEFA, offset: 0x3AFFD4, size: 0x8, addend: 0x0, symName: '__ZN4core3ptr34drop_in_place$LT$syn..pat..Pat$GT$17hf88887878261d63cE.llvm.3179342279309578476', symObjAddr: 0x920, symBinAddr: 0xAB650, symSize: 0x1100 }
  - { offsetInCU: 0x32573, offset: 0x3B464D, size: 0x8, addend: 0x0, symName: '__ZN4core3ptr34drop_in_place$LT$syn..ty..Type$GT$17ha80dd29b0f9d4a3fE.llvm.3179342279309578476', symObjAddr: 0x1A20, symBinAddr: 0xAC750, symSize: 0x520 }
  - { offsetInCU: 0x33637, offset: 0x3B5711, size: 0x8, addend: 0x0, symName: '__ZN4core3ptr35drop_in_place$LT$syn..expr..Arm$GT$17hd729aea1406305a9E', symObjAddr: 0x1F40, symBinAddr: 0xACC70, symSize: 0x160 }
  - { offsetInCU: 0x340F0, offset: 0x3B61CA, size: 0x8, addend: 0x0, symName: '__ZN4core3ptr36drop_in_place$LT$syn..expr..Expr$GT$17h10f573b40ddd212cE.llvm.3179342279309578476', symObjAddr: 0x20A0, symBinAddr: 0xACDD0, symSize: 0x2550 }
  - { offsetInCU: 0x3D507, offset: 0x3BF5E1, size: 0x8, addend: 0x0, symName: '__ZN4core3ptr36drop_in_place$LT$syn..mac..Macro$GT$17hc3b30a7a8a34cc2dE.llvm.3179342279309578476', symObjAddr: 0x45F0, symBinAddr: 0xAF320, symSize: 0x40 }
  - { offsetInCU: 0x3D541, offset: 0x3BF61B, size: 0x8, addend: 0x0, symName: '__ZN4core3ptr36drop_in_place$LT$syn..path..Path$GT$17h75c74a97d5f0a03bE.llvm.3179342279309578476', symObjAddr: 0x4630, symBinAddr: 0xAF360, symSize: 0x280 }
  - { offsetInCU: 0x3E02C, offset: 0x3C0106, size: 0x8, addend: 0x0, symName: '__ZN4core3ptr37drop_in_place$LT$syn..lit..LitInt$GT$17hb1d9c894162666f0E.llvm.3179342279309578476', symObjAddr: 0x48B0, symBinAddr: 0xAF5E0, symSize: 0x70 }
  - { offsetInCU: 0x3E3BD, offset: 0x3C0497, size: 0x8, addend: 0x0, symName: '__ZN4core3ptr37drop_in_place$LT$syn..stmt..Block$GT$17h6fc3254d5688f2c3E.llvm.3179342279309578476', symObjAddr: 0x4920, symBinAddr: 0xAF650, symSize: 0xD0 }
  - { offsetInCU: 0x3E6D2, offset: 0x3C07AC, size: 0x8, addend: 0x0, symName: '__ZN4core3ptr38drop_in_place$LT$syn..expr..ExprIf$GT$17ha8d3c2042f45d05fE', symObjAddr: 0x49F0, symBinAddr: 0xAF720, symSize: 0x200 }
  - { offsetInCU: 0x3EF8E, offset: 0x3C1068, size: 0x8, addend: 0x0, symName: '__ZN4core3ptr38drop_in_place$LT$syn..expr..Member$GT$17h6b0cf84594ce6bceE.llvm.3179342279309578476', symObjAddr: 0x4BF0, symBinAddr: 0xAF920, symSize: 0x30 }
  - { offsetInCU: 0x3F08A, offset: 0x3C1164, size: 0x8, addend: 0x0, symName: '__ZN4core3ptr39drop_in_place$LT$proc_macro2..Ident$GT$17ha28fef9769e267d9E.llvm.3179342279309578476', symObjAddr: 0x4C20, symBinAddr: 0xAF950, symSize: 0x30 }
  - { offsetInCU: 0x3F167, offset: 0x3C1241, size: 0x8, addend: 0x0, symName: '__ZN4core3ptr40drop_in_place$LT$syn..ty..ReturnType$GT$17h035a612e322b6510E.llvm.3179342279309578476', symObjAddr: 0x4FB0, symBinAddr: 0xAF980, symSize: 0x50 }
  - { offsetInCU: 0x3F2D7, offset: 0x3C13B1, size: 0x8, addend: 0x0, symName: '__ZN4core3ptr41drop_in_place$LT$syn..expr..ExprConst$GT$17hbfe19d5d621e6836E', symObjAddr: 0x5030, symBinAddr: 0xAF9D0, symSize: 0x180 }
  - { offsetInCU: 0x3F8E3, offset: 0x3C19BD, size: 0x8, addend: 0x0, symName: '__ZN4core3ptr44drop_in_place$LT$syn..lifetime..Lifetime$GT$17he37fa474f03de7b1E', symObjAddr: 0x58E0, symBinAddr: 0xAFB50, symSize: 0x30 }
  - { offsetInCU: 0x3FA5B, offset: 0x3C1B35, size: 0x8, addend: 0x0, symName: '__ZN4core3ptr44drop_in_place$LT$syn..parse..ParseBuffer$GT$17hf792ff20095efc35E', symObjAddr: 0x5910, symBinAddr: 0xAFB80, symSize: 0x70 }
  - { offsetInCU: 0x3FE72, offset: 0x3C1F4C, size: 0x8, addend: 0x0, symName: '__ZN4core3ptr45drop_in_place$LT$proc_macro2..TokenStream$GT$17h76e8e68015f4924dE.llvm.3179342279309578476', symObjAddr: 0x5980, symBinAddr: 0xAFBF0, symSize: 0x140 }
  - { offsetInCU: 0x4030C, offset: 0x3C23E6, size: 0x8, addend: 0x0, symName: '__ZN4core3ptr45drop_in_place$LT$syn..generics..TypeParam$GT$17h188a459c1380ac75E', symObjAddr: 0x5AC0, symBinAddr: 0xAFD30, symSize: 0x230 }
  - { offsetInCU: 0x40BDE, offset: 0x3C2CB8, size: 0x8, addend: 0x0, symName: '__ZN4core3ptr46drop_in_place$LT$syn..expr..ExprMethodCall$GT$17hcac390ae151688a0E', symObjAddr: 0x5CF0, symBinAddr: 0xAFF60, symSize: 0x340 }
  - { offsetInCU: 0x41A2B, offset: 0x3C3B05, size: 0x8, addend: 0x0, symName: '__ZN4core3ptr46drop_in_place$LT$syn..generics..ConstParam$GT$17h7a9b900b2b88bfcdE', symObjAddr: 0x6030, symBinAddr: 0xB02A0, symSize: 0x150 }
  - { offsetInCU: 0x41F28, offset: 0x3C4002, size: 0x8, addend: 0x0, symName: '__ZN4core3ptr47drop_in_place$LT$syn..path..GenericArgument$GT$17h593f06d6ca9a94d2E', symObjAddr: 0x61B0, symBinAddr: 0xB03F0, symSize: 0x4A0 }
  - { offsetInCU: 0x4302E, offset: 0x3C5108, size: 0x8, addend: 0x0, symName: '__ZN4core3ptr49drop_in_place$LT$syn..generics..LifetimeParam$GT$17h3a8835ab294bfd16E', symObjAddr: 0x6650, symBinAddr: 0xB0890, symSize: 0xF0 }
  - { offsetInCU: 0x43445, offset: 0x3C551F, size: 0x8, addend: 0x0, symName: '__ZN4core3ptr50drop_in_place$LT$syn..generics..TypeParamBound$GT$17h81b4325b5900604dE', symObjAddr: 0x6740, symBinAddr: 0xB0980, symSize: 0x1C0 }
  - { offsetInCU: 0x439A2, offset: 0x3C5A7C, size: 0x8, addend: 0x0, symName: '__ZN4core3ptr58drop_in_place$LT$alloc..vec..Vec$LT$syn..expr..Arm$GT$$GT$17hff9224aadf2233b8E.llvm.3179342279309578476', symObjAddr: 0x6900, symBinAddr: 0xB0B40, symSize: 0xD0 }
  - { offsetInCU: 0x43C62, offset: 0x3C5D3C, size: 0x8, addend: 0x0, symName: '__ZN4core3ptr59drop_in_place$LT$alloc..boxed..Box$LT$syn..pat..Pat$GT$$GT$17h622b0c1db21c0742E.llvm.3179342279309578476', symObjAddr: 0x69D0, symBinAddr: 0xB0C10, symSize: 0x50 }
  - { offsetInCU: 0x43DBB, offset: 0x3C5E95, size: 0x8, addend: 0x0, symName: '__ZN4core3ptr59drop_in_place$LT$alloc..boxed..Box$LT$syn..ty..Type$GT$$GT$17hde45fa887dd8b605E.llvm.3179342279309578476', symObjAddr: 0x6A20, symBinAddr: 0xB0C60, symSize: 0x50 }
  - { offsetInCU: 0x43F14, offset: 0x3C5FEE, size: 0x8, addend: 0x0, symName: '__ZN4core3ptr59drop_in_place$LT$alloc..vec..Vec$LT$syn..stmt..Stmt$GT$$GT$17h6cf3e54f41bc03bdE', symObjAddr: 0x6A70, symBinAddr: 0xB0CB0, symSize: 0xD0 }
  - { offsetInCU: 0x441D4, offset: 0x3C62AE, size: 0x8, addend: 0x0, symName: '__ZN4core3ptr61drop_in_place$LT$alloc..boxed..Box$LT$syn..expr..Expr$GT$$GT$17hbb42293869113942E.llvm.3179342279309578476', symObjAddr: 0x6B40, symBinAddr: 0xB0D80, symSize: 0x50 }
  - { offsetInCU: 0x4434C, offset: 0x3C6426, size: 0x8, addend: 0x0, symName: '__ZN4core3ptr61drop_in_place$LT$alloc..vec..Vec$LT$syn..expr..ExprIf$GT$$GT$17h974b97c8babb35d3E', symObjAddr: 0x6B90, symBinAddr: 0xB0DD0, symSize: 0xD0 }
  - { offsetInCU: 0x4468A, offset: 0x3C6764, size: 0x8, addend: 0x0, symName: '__ZN4core3ptr61drop_in_place$LT$syn..path..ParenthesizedGenericArguments$GT$17h6b1731382637937fE', symObjAddr: 0x6C60, symBinAddr: 0xB0EA0, symSize: 0x170 }
  - { offsetInCU: 0x44C80, offset: 0x3C6D5A, size: 0x8, addend: 0x0, symName: '__ZN4core3ptr62drop_in_place$LT$syn..path..AngleBracketedGenericArguments$GT$17hf8fa172f007a1473E', symObjAddr: 0x6DD0, symBinAddr: 0xB1010, symSize: 0x120 }
  - { offsetInCU: 0x450CB, offset: 0x3C71A5, size: 0x8, addend: 0x0, symName: '__ZN4core3ptr63drop_in_place$LT$alloc..boxed..Box$LT$syn..lit..LitRepr$GT$$GT$17h6e3a82ea4de7b84cE', symObjAddr: 0x6EF0, symBinAddr: 0xB1130, symSize: 0x60 }
  - { offsetInCU: 0x453B3, offset: 0x3C748D, size: 0x8, addend: 0x0, symName: '__ZN4core3ptr64drop_in_place$LT$alloc..boxed..Box$LT$syn..pat..FieldPat$GT$$GT$17hbf8f4867d84bd25dE', symObjAddr: 0x6F50, symBinAddr: 0xB1190, symSize: 0x140 }
  - { offsetInCU: 0x45AB4, offset: 0x3C7B8E, size: 0x8, addend: 0x0, symName: '__ZN4core3ptr64drop_in_place$LT$alloc..boxed..Box$LT$syn..ty..BareFnArg$GT$$GT$17h6be6354eb1d1364dE', symObjAddr: 0x7090, symBinAddr: 0xB12D0, symSize: 0x140 }
  - { offsetInCU: 0x4603D, offset: 0x3C8117, size: 0x8, addend: 0x0, symName: '__ZN4core3ptr64drop_in_place$LT$alloc..vec..Vec$LT$syn..attr..Attribute$GT$$GT$17he33e25539d5885aeE.llvm.3179342279309578476', symObjAddr: 0x71D0, symBinAddr: 0xB1410, symSize: 0xD0 }
  - { offsetInCU: 0x46331, offset: 0x3C840B, size: 0x8, addend: 0x0, symName: '__ZN4core3ptr65drop_in_place$LT$alloc..vec..Vec$LT$proc_macro..TokenTree$GT$$GT$17h8abd81f8596dbc59E.llvm.3179342279309578476', symObjAddr: 0x72A0, symBinAddr: 0xB14E0, symSize: 0x110 }
  - { offsetInCU: 0x46729, offset: 0x3C8803, size: 0x8, addend: 0x0, symName: '__ZN4core3ptr65drop_in_place$LT$core..option..Option$LT$syn..expr..Label$GT$$GT$17hac599686b33ef364E.llvm.3179342279309578476', symObjAddr: 0x73B0, symBinAddr: 0xB15F0, symSize: 0x30 }
  - { offsetInCU: 0x46863, offset: 0x3C893D, size: 0x8, addend: 0x0, symName: '__ZN4core3ptr65drop_in_place$LT$core..option..Option$LT$syn..path..QSelf$GT$$GT$17h0b8dd5cda5f2cd6bE.llvm.3179342279309578476', symObjAddr: 0x73E0, symBinAddr: 0xB1620, symSize: 0x50 }
  - { offsetInCU: 0x469FA, offset: 0x3C8AD4, size: 0x8, addend: 0x0, symName: '__ZN4core3ptr66drop_in_place$LT$core..option..Option$LT$syn..pat..PatRest$GT$$GT$17hd5bb3bc28aa78ac1E', symObjAddr: 0x7430, symBinAddr: 0xB1670, symSize: 0xE0 }
  - { offsetInCU: 0x46D22, offset: 0x3C8DFC, size: 0x8, addend: 0x0, symName: '__ZN4core3ptr67drop_in_place$LT$alloc..boxed..Box$LT$syn..expr..FieldValue$GT$$GT$17hbbcf67a9d5e9863cE', symObjAddr: 0x7510, symBinAddr: 0xB1750, symSize: 0x140 }
  - { offsetInCU: 0x4728B, offset: 0x3C9365, size: 0x8, addend: 0x0, symName: '__ZN4core3ptr68drop_in_place$LT$alloc..boxed..Box$LT$syn..path..PathSegment$GT$$GT$17h99aaf90b3262bc1eE', symObjAddr: 0x7650, symBinAddr: 0xB1890, symSize: 0x1B0 }
  - { offsetInCU: 0x47999, offset: 0x3C9A73, size: 0x8, addend: 0x0, symName: '__ZN4core3ptr70drop_in_place$LT$core..option..Option$LT$syn..ty..BareVariadic$GT$$GT$17h79a19250e9f043b1E', symObjAddr: 0x7800, symBinAddr: 0xB1A40, symSize: 0x100 }
  - { offsetInCU: 0x47E04, offset: 0x3C9EDE, size: 0x8, addend: 0x0, symName: '__ZN4core3ptr72drop_in_place$LT$alloc..boxed..Box$LT$syn..path..GenericArgument$GT$$GT$17hfd308d374af4273dE', symObjAddr: 0x7900, symBinAddr: 0xB1B40, symSize: 0x1D0 }
  - { offsetInCU: 0x4839F, offset: 0x3CA479, size: 0x8, addend: 0x0, symName: '__ZN4core3ptr72drop_in_place$LT$core..option..Option$LT$syn..lifetime..Lifetime$GT$$GT$17h49cce6f02f9c0590E.llvm.3179342279309578476', symObjAddr: 0x7AD0, symBinAddr: 0xB1D10, symSize: 0x30 }
  - { offsetInCU: 0x484BA, offset: 0x3CA594, size: 0x8, addend: 0x0, symName: '__ZN4core3ptr73drop_in_place$LT$alloc..boxed..Box$LT$syn..generics..GenericParam$GT$$GT$17ha26d5d145af4b203E', symObjAddr: 0x7B00, symBinAddr: 0xB1D40, symSize: 0x80 }
  - { offsetInCU: 0x48630, offset: 0x3CA70A, size: 0x8, addend: 0x0, symName: '__ZN4core3ptr75drop_in_place$LT$alloc..boxed..Box$LT$syn..generics..TypeParamBound$GT$$GT$17h129a4e927e5eb81bE', symObjAddr: 0x7B80, symBinAddr: 0xB1DC0, symSize: 0xC0 }
  - { offsetInCU: 0x48984, offset: 0x3CAA5E, size: 0x8, addend: 0x0, symName: '__ZN4core3ptr86drop_in_place$LT$syn..punctuated..Punctuated$LT$syn..pat..Pat$C$syn..token..Or$GT$$GT$17h9cc6b5f7b6d3a555E', symObjAddr: 0x7C60, symBinAddr: 0xB1E80, symSize: 0x120 }
  - { offsetInCU: 0x48DFF, offset: 0x3CAED9, size: 0x8, addend: 0x0, symName: '__ZN4core3ptr87drop_in_place$LT$core..option..Option$LT$alloc..boxed..Box$LT$syn..pat..Pat$GT$$GT$$GT$17h51cd48973d96c411E', symObjAddr: 0x7D80, symBinAddr: 0xB1FA0, symSize: 0x50 }
  - { offsetInCU: 0x48F6F, offset: 0x3CB049, size: 0x8, addend: 0x0, symName: '__ZN4core3ptr87drop_in_place$LT$core..option..Option$LT$alloc..boxed..Box$LT$syn..ty..Type$GT$$GT$$GT$17h103a25a4a7d7374eE', symObjAddr: 0x7DD0, symBinAddr: 0xB1FF0, symSize: 0x50 }
  - { offsetInCU: 0x490DF, offset: 0x3CB1B9, size: 0x8, addend: 0x0, symName: '__ZN4core3ptr88drop_in_place$LT$$LP$syn..token..Else$C$alloc..boxed..Box$LT$syn..expr..Expr$GT$$RP$$GT$17ha4aa82534fb17f55E', symObjAddr: 0x7E20, symBinAddr: 0xB2040, symSize: 0x50 }
  - { offsetInCU: 0x49257, offset: 0x3CB331, size: 0x8, addend: 0x0, symName: '__ZN4core3ptr89drop_in_place$LT$core..option..Option$LT$alloc..boxed..Box$LT$syn..expr..Expr$GT$$GT$$GT$17h9e02509cb2345d44E.llvm.3179342279309578476', symObjAddr: 0x7E70, symBinAddr: 0xB2090, symSize: 0x50 }
  - { offsetInCU: 0x49405, offset: 0x3CB4DF, size: 0x8, addend: 0x0, symName: '__ZN4core3ptr89drop_in_place$LT$syn..punctuated..Punctuated$LT$syn..pat..Pat$C$syn..token..Comma$GT$$GT$17hd3a83c36827f210aE.llvm.3179342279309578476', symObjAddr: 0x7EC0, symBinAddr: 0xB20E0, symSize: 0x120 }
  - { offsetInCU: 0x49897, offset: 0x3CB971, size: 0x8, addend: 0x0, symName: '__ZN4core3ptr89drop_in_place$LT$syn..punctuated..Punctuated$LT$syn..ty..Type$C$syn..token..Comma$GT$$GT$17he030c4b7f24a5848E', symObjAddr: 0x7FE0, symBinAddr: 0xB2200, symSize: 0x120 }
  - { offsetInCU: 0x49D12, offset: 0x3CBDEC, size: 0x8, addend: 0x0, symName: '__ZN4core3ptr90drop_in_place$LT$core..option..Option$LT$syn..path..AngleBracketedGenericArguments$GT$$GT$17ha307713a95a0671eE.llvm.3179342279309578476', symObjAddr: 0x8100, symBinAddr: 0xB2320, symSize: 0x130 }
  - { offsetInCU: 0x4A176, offset: 0x3CC250, size: 0x8, addend: 0x0, symName: '__ZN4core3ptr91drop_in_place$LT$syn..punctuated..Punctuated$LT$syn..expr..Expr$C$syn..token..Comma$GT$$GT$17h6f261e8f470c81f2E.llvm.3179342279309578476', symObjAddr: 0x8230, symBinAddr: 0xB2450, symSize: 0x120 }
  - { offsetInCU: 0x4A5F1, offset: 0x3CC6CB, size: 0x8, addend: 0x0, symName: '__ZN4core3ptr94drop_in_place$LT$syn..punctuated..Punctuated$LT$syn..pat..FieldPat$C$syn..token..Comma$GT$$GT$17h43ec25af986ef674E', symObjAddr: 0x8350, symBinAddr: 0xB2570, symSize: 0xF0 }
  - { offsetInCU: 0x4A8F0, offset: 0x3CC9CA, size: 0x8, addend: 0x0, symName: '__ZN4core3ptr94drop_in_place$LT$syn..punctuated..Punctuated$LT$syn..ty..BareFnArg$C$syn..token..Comma$GT$$GT$17h7ba4c699ee390ebaE', symObjAddr: 0x8440, symBinAddr: 0xB2660, symSize: 0xF0 }
  - { offsetInCU: 0x4ABF1, offset: 0x3CCCCB, size: 0x8, addend: 0x0, symName: '__ZN4core3ptr95drop_in_place$LT$core..option..Option$LT$$LP$proc_macro2..Ident$C$syn..token..Colon$RP$$GT$$GT$17h59fe297999aa3329E', symObjAddr: 0x8530, symBinAddr: 0xB2750, symSize: 0x30 }
  - { offsetInCU: 0x4AD0C, offset: 0x3CCDE6, size: 0x8, addend: 0x0, symName: '__ZN4core3ptr96drop_in_place$LT$core..option..Option$LT$alloc..boxed..Box$LT$syn..path..PathSegment$GT$$GT$$GT$17h5de12a5a0f9e9ef9E', symObjAddr: 0x8560, symBinAddr: 0xB2780, symSize: 0xA0 }
  - { offsetInCU: 0x4AF8B, offset: 0x3CD065, size: 0x8, addend: 0x0, symName: '__ZN4core3ptr97drop_in_place$LT$syn..punctuated..Punctuated$LT$syn..expr..FieldValue$C$syn..token..Comma$GT$$GT$17hf58d0a9a09266ab3E.llvm.3179342279309578476', symObjAddr: 0x8600, symBinAddr: 0xB2820, symSize: 0xF0 }
  - { offsetInCU: 0x4B304, offset: 0x3CD3DE, size: 0x8, addend: 0x0, symName: '__ZN4core3ptr98drop_in_place$LT$syn..punctuated..Punctuated$LT$syn..lifetime..Lifetime$C$syn..token..Plus$GT$$GT$17h600c2b78f78fd2b9E', symObjAddr: 0x86F0, symBinAddr: 0xB2910, symSize: 0xD0 }
  - { offsetInCU: 0x5163E, offset: 0x3D3718, size: 0x8, addend: 0x0, symName: __ZN5alloc5alloc15exchange_malloc17h9a87608d0224859dE, symObjAddr: 0x87E0, symBinAddr: 0xB29E0, symSize: 0x40 }
  - { offsetInCU: 0x535E6, offset: 0x3D56C0, size: 0x8, addend: 0x0, symName: '__ZN69_$LT$alloc..boxed..Box$LT$T$C$A$GT$$u20$as$u20$core..clone..Clone$GT$5clone17h4fb5c51762622d36E', symObjAddr: 0x8E30, symBinAddr: 0xB2A20, symSize: 0x90 }
  - { offsetInCU: 0x552B7, offset: 0x3D7391, size: 0x8, addend: 0x0, symName: __ZN3syn4expr4Expr13replace_attrs17h81659526e8109ac8E, symObjAddr: 0x9180, symBinAddr: 0xB2AB0, symSize: 0x110 }
  - { offsetInCU: 0x5658E, offset: 0x3D8668, size: 0x8, addend: 0x0, symName: '__ZN3syn4expr7parsing40_$LT$impl$u20$syn..expr..RangeLimits$GT$14parse_obsolete17he8a69cc7d9cd98eeE', symObjAddr: 0xF9D0, symBinAddr: 0xB84D0, symSize: 0x3A0 }
  - { offsetInCU: 0x185E, offset: 0x3E716E, size: 0x8, addend: 0x0, symName: '__ZN4core3ptr100drop_in_place$LT$alloc..vec..Vec$LT$$LP$syn..generics..TypeParamBound$C$syn..token..Plus$RP$$GT$$GT$17hea181150e4b37806E.llvm.14025449986115119833', symObjAddr: 0x5D0, symBinAddr: 0xC0FD0, symSize: 0xD0 }
  - { offsetInCU: 0x1B78, offset: 0x3E7488, size: 0x8, addend: 0x0, symName: '__ZN4core3ptr100drop_in_place$LT$core..option..Option$LT$alloc..boxed..Box$LT$syn..path..GenericArgument$GT$$GT$$GT$17h3a7c44b9e57fe410E', symObjAddr: 0x6A0, symBinAddr: 0xC10A0, symSize: 0x50 }
  - { offsetInCU: 0x1D45, offset: 0x3E7655, size: 0x8, addend: 0x0, symName: '__ZN4core3ptr101drop_in_place$LT$alloc..vec..Vec$LT$$LP$syn..generics..WherePredicate$C$syn..token..Comma$RP$$GT$$GT$17h480aa68a207f67a8E.llvm.14025449986115119833', symObjAddr: 0x6F0, symBinAddr: 0xC10F0, symSize: 0xD0 }
  - { offsetInCU: 0x2063, offset: 0x3E7973, size: 0x8, addend: 0x0, symName: '__ZN4core3ptr101drop_in_place$LT$core..option..Option$LT$alloc..boxed..Box$LT$syn..generics..GenericParam$GT$$GT$$GT$17h2bff155591650989E', symObjAddr: 0x7C0, symBinAddr: 0xC11C0, symSize: 0x50 }
  - { offsetInCU: 0x224F, offset: 0x3E7B5F, size: 0x8, addend: 0x0, symName: '__ZN4core3ptr102drop_in_place$LT$syn..punctuated..Punctuated$LT$syn..path..GenericArgument$C$syn..token..Comma$GT$$GT$17h8b1978399cfff48bE.llvm.14025449986115119833', symObjAddr: 0x810, symBinAddr: 0xC1210, symSize: 0xF0 }
  - { offsetInCU: 0x2576, offset: 0x3E7E86, size: 0x8, addend: 0x0, symName: '__ZN4core3ptr103drop_in_place$LT$core..option..Option$LT$alloc..boxed..Box$LT$syn..generics..TypeParamBound$GT$$GT$$GT$17hb14e4384a768542bE.llvm.14025449986115119833', symObjAddr: 0x900, symBinAddr: 0xC1300, symSize: 0x50 }
  - { offsetInCU: 0x2705, offset: 0x3E8015, size: 0x8, addend: 0x0, symName: '__ZN4core3ptr103drop_in_place$LT$core..option..Option$LT$alloc..boxed..Box$LT$syn..generics..WherePredicate$GT$$GT$$GT$17he190813f4819c5dbE', symObjAddr: 0x950, symBinAddr: 0xC1350, symSize: 0x50 }
  - { offsetInCU: 0x292F, offset: 0x3E823F, size: 0x8, addend: 0x0, symName: '__ZN4core3ptr103drop_in_place$LT$syn..punctuated..Punctuated$LT$syn..generics..GenericParam$C$syn..token..Comma$GT$$GT$17h0c6077a988036760E.llvm.14025449986115119833', symObjAddr: 0x9A0, symBinAddr: 0xC13A0, symSize: 0x1A0 }
  - { offsetInCU: 0x2FD1, offset: 0x3E88E1, size: 0x8, addend: 0x0, symName: '__ZN4core3ptr104drop_in_place$LT$syn..punctuated..Punctuated$LT$syn..generics..TypeParamBound$C$syn..token..Plus$GT$$GT$17h724e4d9d1d65061aE.llvm.14025449986115119833', symObjAddr: 0xB40, symBinAddr: 0xC1540, symSize: 0x240 }
  - { offsetInCU: 0x390C, offset: 0x3E921C, size: 0x8, addend: 0x0, symName: '__ZN4core3ptr105drop_in_place$LT$syn..punctuated..Punctuated$LT$syn..generics..WherePredicate$C$syn..token..Comma$GT$$GT$17h18b5b213db2a676cE', symObjAddr: 0xD80, symBinAddr: 0xC1780, symSize: 0x1A0 }
  - { offsetInCU: 0x401B, offset: 0x3E992B, size: 0x8, addend: 0x0, symName: '__ZN4core3ptr116drop_in_place$LT$core..option..Option$LT$$LP$syn..token..Else$C$alloc..boxed..Box$LT$syn..expr..Expr$GT$$RP$$GT$$GT$17h60c68b89176741daE', symObjAddr: 0xF20, symBinAddr: 0xC1920, symSize: 0x50 }
  - { offsetInCU: 0x421E, offset: 0x3E9B2E, size: 0x8, addend: 0x0, symName: '__ZN4core3ptr1247drop_in_place$LT$core..iter..adapters..flatten..Flatten$LT$core..iter..adapters..map..Map$LT$core..iter..adapters..map..Map$LT$core..iter..adapters..map..Map$LT$core..slice..iter..Iter$LT$syn..error..ErrorMessage$GT$$C$syn..error..ErrorMessage..to_compile_error$GT$$C$$LT$proc_macro2..TokenStream$u20$as$u20$core..iter..traits..collect..FromIterator$LT$proc_macro2..TokenStream$GT$$GT$..from_iter$LT$core..iter..adapters..map..Map$LT$core..slice..iter..Iter$LT$syn..error..ErrorMessage$GT$$C$syn..error..ErrorMessage..to_compile_error$GT$$GT$..$u7b$$u7b$closure$u7d$$u7d$$GT$$C$$LT$proc_macro2..imp..TokenStream$u20$as$u20$core..iter..traits..collect..FromIterator$LT$proc_macro2..imp..TokenStream$GT$$GT$..from_iter$LT$core..iter..adapters..map..Map$LT$core..iter..adapters..map..Map$LT$core..slice..iter..Iter$LT$syn..error..ErrorMessage$GT$$C$syn..error..ErrorMessage..to_compile_error$GT$$C$$LT$proc_macro2..TokenStream$u20$as$u20$core..iter..traits..collect..FromIterator$LT$proc_macro2..TokenStream$GT$$GT$..from_iter$LT$core..iter..adapters..map..Map$LT$core..slice..iter..Iter$LT$syn..error..ErrorMessage$GT$$C$syn..error..ErrorMessage..to_compile_error$GT$$GT$..$u7b$$u7b$closure$u7d$$u7d$$GT$$GT$..$u7b$$u7b$closure$u7d$$u7d$$GT$$GT$$GT$17hbfd06aec0e095371E', symObjAddr: 0xF70, symBinAddr: 0xC1970, symSize: 0x60 }
  - { offsetInCU: 0x43A2, offset: 0x3E9CB2, size: 0x8, addend: 0x0, symName: '__ZN4core3ptr126drop_in_place$LT$core..option..Option$LT$$LP$syn..token..And$C$core..option..Option$LT$syn..lifetime..Lifetime$GT$$RP$$GT$$GT$17h45c5d73e12cdf6f0E', symObjAddr: 0xFD0, symBinAddr: 0xC19D0, symSize: 0x30 }
  - { offsetInCU: 0x4631, offset: 0x3E9F41, size: 0x8, addend: 0x0, symName: '__ZN4core3ptr33drop_in_place$LT$syn..ty..Abi$GT$17h24b86e0564a98339E', symObjAddr: 0x1000, symBinAddr: 0xC1A00, symSize: 0x70 }
  - { offsetInCU: 0x464D, offset: 0x3E9F5D, size: 0x8, addend: 0x0, symName: '__ZN4core3ptr33drop_in_place$LT$syn..ty..Abi$GT$17h24b86e0564a98339E', symObjAddr: 0x1000, symBinAddr: 0xC1A00, symSize: 0x70 }
  - { offsetInCU: 0x4925, offset: 0x3EA235, size: 0x8, addend: 0x0, symName: '__ZN4core3ptr34drop_in_place$LT$syn..lit..Lit$GT$17hd64dde89a262341dE', symObjAddr: 0x1070, symBinAddr: 0xC1A70, symSize: 0x120 }
  - { offsetInCU: 0x4E51, offset: 0x3EA761, size: 0x8, addend: 0x0, symName: '__ZN4core3ptr34drop_in_place$LT$syn..pat..Pat$GT$17hf88887878261d63cE.llvm.14025449986115119833', symObjAddr: 0x1190, symBinAddr: 0xC1B90, symSize: 0x11B0 }
  - { offsetInCU: 0x96E1, offset: 0x3EEFF1, size: 0x8, addend: 0x0, symName: '__ZN4core3ptr34drop_in_place$LT$syn..ty..Type$GT$17ha80dd29b0f9d4a3fE.llvm.14025449986115119833', symObjAddr: 0x2340, symBinAddr: 0xC2D40, symSize: 0x510 }
  - { offsetInCU: 0xA723, offset: 0x3F0033, size: 0x8, addend: 0x0, symName: '__ZN4core3ptr35drop_in_place$LT$syn..expr..Arm$GT$17hd729aea1406305a9E.llvm.14025449986115119833', symObjAddr: 0x2850, symBinAddr: 0xC3250, symSize: 0x170 }
  - { offsetInCU: 0xAD91, offset: 0x3F06A1, size: 0x8, addend: 0x0, symName: '__ZN4core3ptr36drop_in_place$LT$syn..attr..Meta$GT$17h10362c0b846e6e23E.llvm.14025449986115119833', symObjAddr: 0x29C0, symBinAddr: 0xC33C0, symSize: 0x320 }
  - { offsetInCU: 0xBD06, offset: 0x3F1616, size: 0x8, addend: 0x0, symName: '__ZN4core3ptr36drop_in_place$LT$syn..expr..Expr$GT$17h10f573b40ddd212cE.llvm.14025449986115119833', symObjAddr: 0x2CE0, symBinAddr: 0xC36E0, symSize: 0x25E0 }
  - { offsetInCU: 0x158AE, offset: 0x3FB1BE, size: 0x8, addend: 0x0, symName: '__ZN4core3ptr36drop_in_place$LT$syn..item..Item$GT$17haa59cf9e39ab8cebE.llvm.14025449986115119833', symObjAddr: 0x52C0, symBinAddr: 0xC5CC0, symSize: 0x17C0 }
  - { offsetInCU: 0x1B2DC, offset: 0x400BEC, size: 0x8, addend: 0x0, symName: '__ZN4core3ptr36drop_in_place$LT$syn..mac..Macro$GT$17hc3b30a7a8a34cc2dE', symObjAddr: 0x6A80, symBinAddr: 0xC7480, symSize: 0xE0 }
  - { offsetInCU: 0x1B644, offset: 0x400F54, size: 0x8, addend: 0x0, symName: '__ZN4core3ptr36drop_in_place$LT$syn..path..Path$GT$17h75c74a97d5f0a03bE.llvm.14025449986115119833', symObjAddr: 0x6B60, symBinAddr: 0xC7560, symSize: 0x180 }
  - { offsetInCU: 0x1BC6E, offset: 0x40157E, size: 0x8, addend: 0x0, symName: '__ZN4core3ptr36drop_in_place$LT$syn..stmt..Stmt$GT$17hc4f94563f060e25dE.llvm.14025449986115119833', symObjAddr: 0x6CE0, symBinAddr: 0xC76E0, symSize: 0x380 }
  - { offsetInCU: 0x1C8C4, offset: 0x4021D4, size: 0x8, addend: 0x0, symName: '__ZN4core3ptr37drop_in_place$LT$syn..data..Field$GT$17hb03070569ab32babE.llvm.14025449986115119833', symObjAddr: 0x7060, symBinAddr: 0xC7A60, symSize: 0x190 }
  - { offsetInCU: 0x1CEB4, offset: 0x4027C4, size: 0x8, addend: 0x0, symName: '__ZN4core3ptr37drop_in_place$LT$syn..item..FnArg$GT$17h470fdeee5cba5e3aE.llvm.14025449986115119833', symObjAddr: 0x71F0, symBinAddr: 0xC7BF0, symSize: 0x230 }
  - { offsetInCU: 0x1D7CB, offset: 0x4030DB, size: 0x8, addend: 0x0, symName: '__ZN4core3ptr37drop_in_place$LT$syn..stmt..Block$GT$17h6fc3254d5688f2c3E', symObjAddr: 0x7420, symBinAddr: 0xC7E20, symSize: 0xD0 }
  - { offsetInCU: 0x1DAA9, offset: 0x4033B9, size: 0x8, addend: 0x0, symName: '__ZN4core3ptr38drop_in_place$LT$syn..expr..ExprIf$GT$17ha8d3c2042f45d05fE.llvm.14025449986115119833', symObjAddr: 0x74F0, symBinAddr: 0xC7EF0, symSize: 0x1B0 }
  - { offsetInCU: 0x1E383, offset: 0x403C93, size: 0x8, addend: 0x0, symName: '__ZN4core3ptr38drop_in_place$LT$syn..expr..Member$GT$17h6b0cf84594ce6bceE.llvm.14025449986115119833', symObjAddr: 0x76A0, symBinAddr: 0xC80A0, symSize: 0x30 }
  - { offsetInCU: 0x1E47F, offset: 0x403D8F, size: 0x8, addend: 0x0, symName: '__ZN4core3ptr38drop_in_place$LT$syn..pat..PatType$GT$17h835dce85ba90235eE.llvm.14025449986115119833', symObjAddr: 0x76D0, symBinAddr: 0xC80D0, symSize: 0x140 }
  - { offsetInCU: 0x1EA31, offset: 0x404341, size: 0x8, addend: 0x0, symName: '__ZN4core3ptr39drop_in_place$LT$proc_macro2..Ident$GT$17ha28fef9769e267d9E.llvm.14025449986115119833', symObjAddr: 0x7810, symBinAddr: 0xC8210, symSize: 0x30 }
  - { offsetInCU: 0x1EC44, offset: 0x404554, size: 0x8, addend: 0x0, symName: '__ZN4core3ptr39drop_in_place$LT$syn..buffer..Entry$GT$17he93ada413d4474f7E.llvm.14025449986115119833', symObjAddr: 0x7840, symBinAddr: 0xC8240, symSize: 0xB0 }
  - { offsetInCU: 0x1F02C, offset: 0x40493C, size: 0x8, addend: 0x0, symName: '__ZN4core3ptr39drop_in_place$LT$syn..data..Variant$GT$17h92766dd8637b4069E.llvm.14025449986115119833', symObjAddr: 0x78F0, symBinAddr: 0xC82F0, symSize: 0x2F0 }
  - { offsetInCU: 0x1FCC7, offset: 0x4055D7, size: 0x8, addend: 0x0, symName: '__ZN4core3ptr39drop_in_place$LT$syn..item..UseTree$GT$17h7288572c631f954aE.llvm.14025449986115119833', symObjAddr: 0x7BE0, symBinAddr: 0xC85E0, symSize: 0x1E0 }
  - { offsetInCU: 0x20420, offset: 0x405D30, size: 0x8, addend: 0x0, symName: '__ZN4core3ptr40drop_in_place$LT$syn..item..ImplItem$GT$17h98907b2080b0ccb0E', symObjAddr: 0x7DC0, symBinAddr: 0xC87C0, symSize: 0x220 }
  - { offsetInCU: 0x20A6D, offset: 0x40637D, size: 0x8, addend: 0x0, symName: '__ZN4core3ptr40drop_in_place$LT$syn..item..Receiver$GT$17h5e68a437c3b8e574E.llvm.14025449986115119833', symObjAddr: 0x7FE0, symBinAddr: 0xC89E0, symSize: 0x130 }
  - { offsetInCU: 0x2106B, offset: 0x40697B, size: 0x8, addend: 0x0, symName: '__ZN4core3ptr40drop_in_place$LT$syn..item..Variadic$GT$17hf9d4ebdb0f5e723aE', symObjAddr: 0x8110, symBinAddr: 0xC8B10, symSize: 0x120 }
  - { offsetInCU: 0x2150E, offset: 0x406E1E, size: 0x8, addend: 0x0, symName: '__ZN4core3ptr40drop_in_place$LT$syn..ty..ReturnType$GT$17h035a612e322b6510E.llvm.14025449986115119833', symObjAddr: 0x8230, symBinAddr: 0xC8C30, symSize: 0x50 }
  - { offsetInCU: 0x217D3, offset: 0x4070E3, size: 0x8, addend: 0x0, symName: '__ZN4core3ptr41drop_in_place$LT$syn..item..Signature$GT$17h41f785211ad8eb02E', symObjAddr: 0x8280, symBinAddr: 0xC8C80, symSize: 0x270 }
  - { offsetInCU: 0x222E8, offset: 0x407BF8, size: 0x8, addend: 0x0, symName: '__ZN4core3ptr41drop_in_place$LT$syn..item..TraitItem$GT$17hc74edaa948c160a2E', symObjAddr: 0x84F0, symBinAddr: 0xC8EF0, symSize: 0x3D0 }
  - { offsetInCU: 0x22F26, offset: 0x408836, size: 0x8, addend: 0x0, symName: '__ZN4core3ptr41drop_in_place$LT$syn..stmt..LocalInit$GT$17h30b5fda37459e0baE', symObjAddr: 0x88C0, symBinAddr: 0xC92C0, symSize: 0xC0 }
  - { offsetInCU: 0x23216, offset: 0x408B26, size: 0x8, addend: 0x0, symName: '__ZN4core3ptr42drop_in_place$LT$syn..item..ImplItemFn$GT$17haf8f89161f0a8aa1E', symObjAddr: 0x8980, symBinAddr: 0xC9380, symSize: 0x230 }
  - { offsetInCU: 0x239BA, offset: 0x4092CA, size: 0x8, addend: 0x0, symName: '__ZN4core3ptr42drop_in_place$LT$syn..path..Constraint$GT$17h367871d1e7e54db0E', symObjAddr: 0x8BB0, symBinAddr: 0xC95B0, symSize: 0x160 }
  - { offsetInCU: 0x23F51, offset: 0x409861, size: 0x8, addend: 0x0, symName: '__ZN4core3ptr43drop_in_place$LT$proc_macro2..TokenTree$GT$17h3cbee0aa221130b6E.llvm.14025449986115119833', symObjAddr: 0x8D10, symBinAddr: 0xC9710, symSize: 0xB0 }
  - { offsetInCU: 0x242AC, offset: 0x409BBC, size: 0x8, addend: 0x0, symName: '__ZN4core3ptr43drop_in_place$LT$syn..data..FieldsNamed$GT$17h56bef6f151514865E', symObjAddr: 0x8DC0, symBinAddr: 0xC97C0, symSize: 0x120 }
  - { offsetInCU: 0x24770, offset: 0x40A080, size: 0x8, addend: 0x0, symName: '__ZN4core3ptr43drop_in_place$LT$syn..item..ForeignItem$GT$17h8033abfc56dac52fE', symObjAddr: 0x8EE0, symBinAddr: 0xC98E0, symSize: 0x340 }
  - { offsetInCU: 0x25181, offset: 0x40AA91, size: 0x8, addend: 0x0, symName: '__ZN4core3ptr43drop_in_place$LT$syn..path..PathSegment$GT$17h903332e979944cf4E.llvm.14025449986115119833', symObjAddr: 0x9220, symBinAddr: 0xC9C20, symSize: 0x190 }
  - { offsetInCU: 0x25760, offset: 0x40B070, size: 0x8, addend: 0x0, symName: '__ZN4core3ptr44drop_in_place$LT$syn..generics..Generics$GT$17h671de917167f8b66E', symObjAddr: 0x93B0, symBinAddr: 0xC9DB0, symSize: 0x240 }
  - { offsetInCU: 0x260A1, offset: 0x40B9B1, size: 0x8, addend: 0x0, symName: '__ZN4core3ptr44drop_in_place$LT$syn..item..ImplItemType$GT$17hb32b6c30c762cdafE', symObjAddr: 0x95F0, symBinAddr: 0xC9FF0, symSize: 0x1F0 }
  - { offsetInCU: 0x266B4, offset: 0x40BFC4, size: 0x8, addend: 0x0, symName: '__ZN4core3ptr44drop_in_place$LT$syn..lifetime..Lifetime$GT$17he37fa474f03de7b1E.llvm.14025449986115119833', symObjAddr: 0x97E0, symBinAddr: 0xCA1E0, symSize: 0x30 }
  - { offsetInCU: 0x2680D, offset: 0x40C11D, size: 0x8, addend: 0x0, symName: '__ZN4core3ptr45drop_in_place$LT$proc_macro2..TokenStream$GT$17h76e8e68015f4924dE.llvm.14025449986115119833', symObjAddr: 0x9810, symBinAddr: 0xCA210, symSize: 0x70 }
  - { offsetInCU: 0x26974, offset: 0x40C284, size: 0x8, addend: 0x0, symName: '__ZN4core3ptr45drop_in_place$LT$syn..generics..TypeParam$GT$17h188a459c1380ac75E.llvm.14025449986115119833', symObjAddr: 0x9880, symBinAddr: 0xCA280, symSize: 0x230 }
  - { offsetInCU: 0x27212, offset: 0x40CB22, size: 0x8, addend: 0x0, symName: '__ZN4core3ptr45drop_in_place$LT$syn..item..ImplItemConst$GT$17he161f4752ea1c79dE', symObjAddr: 0x9AB0, symBinAddr: 0xCA4B0, symSize: 0x210 }
  - { offsetInCU: 0x27863, offset: 0x40D173, size: 0x8, addend: 0x0, symName: '__ZN4core3ptr45drop_in_place$LT$syn..item..TraitItemType$GT$17h3e36cd56ba987949E', symObjAddr: 0x9CC0, symBinAddr: 0xCA6C0, symSize: 0x290 }
  - { offsetInCU: 0x281CD, offset: 0x40DADD, size: 0x8, addend: 0x0, symName: '__ZN4core3ptr45drop_in_place$LT$syn..path..PathArguments$GT$17hdbc6dfac6f3334e6E.llvm.14025449986115119833', symObjAddr: 0x9F50, symBinAddr: 0xCA950, symSize: 0xB0 }
  - { offsetInCU: 0x2839E, offset: 0x40DCAE, size: 0x8, addend: 0x0, symName: '__ZN4core3ptr46drop_in_place$LT$$u5b$syn..stmt..Stmt$u5d$$GT$17h24e62e137a325f40E.llvm.14025449986115119833', symObjAddr: 0xA000, symBinAddr: 0xCAA00, symSize: 0x2F0 }
  - { offsetInCU: 0x28A4E, offset: 0x40E35E, size: 0x8, addend: 0x0, symName: '__ZN4core3ptr46drop_in_place$LT$syn..generics..ConstParam$GT$17h7a9b900b2b88bfcdE.llvm.14025449986115119833', symObjAddr: 0xA2F0, symBinAddr: 0xCACF0, symSize: 0x150 }
  - { offsetInCU: 0x28E7C, offset: 0x40E78C, size: 0x8, addend: 0x0, symName: '__ZN4core3ptr46drop_in_place$LT$syn..item..TraitItemConst$GT$17h1a851cb668e4b13cE', symObjAddr: 0xA440, symBinAddr: 0xCAE40, symSize: 0x1B0 }
  - { offsetInCU: 0x2935D, offset: 0x40EC6D, size: 0x8, addend: 0x0, symName: '__ZN4core3ptr47drop_in_place$LT$syn..generics..WhereClause$GT$17h1a748a69ca415614E', symObjAddr: 0xA5F0, symBinAddr: 0xCAFF0, symSize: 0x120 }
  - { offsetInCU: 0x297E3, offset: 0x40F0F3, size: 0x8, addend: 0x0, symName: '__ZN4core3ptr47drop_in_place$LT$syn..item..ForeignItemType$GT$17ha3462b8591c7bc98E', symObjAddr: 0xA710, symBinAddr: 0xCB110, symSize: 0x1B0 }
  - { offsetInCU: 0x29E51, offset: 0x40F761, size: 0x8, addend: 0x0, symName: '__ZN4core3ptr47drop_in_place$LT$syn..path..GenericArgument$GT$17h593f06d6ca9a94d2E.llvm.14025449986115119833', symObjAddr: 0xA8C0, symBinAddr: 0xCB2C0, symSize: 0x1C0 }
  - { offsetInCU: 0x2A315, offset: 0x40FC25, size: 0x8, addend: 0x0, symName: '__ZN4core3ptr48drop_in_place$LT$syn..generics..GenericParam$GT$17hd6859d95c1b7c168E.llvm.14025449986115119833', symObjAddr: 0xAA80, symBinAddr: 0xCB480, symSize: 0x150 }
  - { offsetInCU: 0x2A73B, offset: 0x41004B, size: 0x8, addend: 0x0, symName: '__ZN4core3ptr49drop_in_place$LT$syn..generics..LifetimeParam$GT$17h3a8835ab294bfd16E.llvm.14025449986115119833', symObjAddr: 0xABD0, symBinAddr: 0xCB5D0, symSize: 0xF0 }
  - { offsetInCU: 0x2AB46, offset: 0x410456, size: 0x8, addend: 0x0, symName: '__ZN4core3ptr49drop_in_place$LT$syn..generics..PredicateType$GT$17h28460a55196bd45fE.llvm.14025449986115119833', symObjAddr: 0xACC0, symBinAddr: 0xCB6C0, symSize: 0x180 }
  - { offsetInCU: 0x2AFFE, offset: 0x41090E, size: 0x8, addend: 0x0, symName: '__ZN4core3ptr49drop_in_place$LT$syn..item..ForeignItemStatic$GT$17h0b4273b292bce45dE', symObjAddr: 0xAE40, symBinAddr: 0xCB840, symSize: 0x190 }
  - { offsetInCU: 0x2B700, offset: 0x411010, size: 0x8, addend: 0x0, symName: '__ZN4core3ptr50drop_in_place$LT$$u5b$syn..item..ImplItem$u5d$$GT$17h9b63e3c09d4f2fecE.llvm.14025449986115119833', symObjAddr: 0xAFD0, symBinAddr: 0xCB9D0, symSize: 0x210 }
  - { offsetInCU: 0x2BA74, offset: 0x411384, size: 0x8, addend: 0x0, symName: '__ZN4core3ptr50drop_in_place$LT$syn..generics..TypeParamBound$GT$17h81b4325b5900604dE.llvm.14025449986115119833', symObjAddr: 0xB1E0, symBinAddr: 0xCBBE0, symSize: 0xA0 }
  - { offsetInCU: 0x2BBF9, offset: 0x411509, size: 0x8, addend: 0x0, symName: '__ZN4core3ptr50drop_in_place$LT$syn..generics..WherePredicate$GT$17h1dcd41fbf166681cE.llvm.14025449986115119833', symObjAddr: 0xB280, symBinAddr: 0xCBC80, symSize: 0xA0 }
  - { offsetInCU: 0x2BDA9, offset: 0x4116B9, size: 0x8, addend: 0x0, symName: '__ZN4core3ptr51drop_in_place$LT$$u5b$syn..item..TraitItem$u5d$$GT$17hfac7130e0b19ef2eE.llvm.14025449986115119833', symObjAddr: 0xB320, symBinAddr: 0xCBD20, symSize: 0x3E0 }
  - { offsetInCU: 0x2C74B, offset: 0x41205B, size: 0x8, addend: 0x0, symName: '__ZN4core3ptr52drop_in_place$LT$syn..restriction..VisRestricted$GT$17h3b9d7a9742b1c345E', symObjAddr: 0xB700, symBinAddr: 0xCC100, symSize: 0x50 }
  - { offsetInCU: 0x2C8E2, offset: 0x4121F2, size: 0x8, addend: 0x0, symName: '__ZN4core3ptr53drop_in_place$LT$$u5b$syn..item..ForeignItem$u5d$$GT$17h566f3fc649dbb42bE.llvm.14025449986115119833', symObjAddr: 0xB750, symBinAddr: 0xCC150, symSize: 0x370 }
  - { offsetInCU: 0x2D100, offset: 0x412A10, size: 0x8, addend: 0x0, symName: '__ZN4core3ptr58drop_in_place$LT$alloc..vec..Vec$LT$syn..expr..Arm$GT$$GT$17hff9224aadf2233b8E.llvm.14025449986115119833', symObjAddr: 0xBAE0, symBinAddr: 0xCC4C0, symSize: 0xD0 }
  - { offsetInCU: 0x2D3C7, offset: 0x412CD7, size: 0x8, addend: 0x0, symName: '__ZN4core3ptr59drop_in_place$LT$alloc..boxed..Box$LT$syn..pat..Pat$GT$$GT$17h622b0c1db21c0742E.llvm.14025449986115119833', symObjAddr: 0xBBB0, symBinAddr: 0xCC590, symSize: 0x50 }
  - { offsetInCU: 0x2D520, offset: 0x412E30, size: 0x8, addend: 0x0, symName: '__ZN4core3ptr59drop_in_place$LT$alloc..boxed..Box$LT$syn..ty..Type$GT$$GT$17hde45fa887dd8b605E.llvm.14025449986115119833', symObjAddr: 0xBC00, symBinAddr: 0xCC5E0, symSize: 0x50 }
  - { offsetInCU: 0x2D679, offset: 0x412F89, size: 0x8, addend: 0x0, symName: '__ZN4core3ptr59drop_in_place$LT$alloc..vec..Vec$LT$syn..item..Item$GT$$GT$17h8590e8c8e196c3c2E.llvm.14025449986115119833', symObjAddr: 0xBC50, symBinAddr: 0xCC630, symSize: 0xD0 }
  - { offsetInCU: 0x2D940, offset: 0x413250, size: 0x8, addend: 0x0, symName: '__ZN4core3ptr59drop_in_place$LT$alloc..vec..Vec$LT$syn..stmt..Stmt$GT$$GT$17h6cf3e54f41bc03bdE.llvm.14025449986115119833', symObjAddr: 0xBD20, symBinAddr: 0xCC700, symSize: 0x80 }
  - { offsetInCU: 0x2DBF8, offset: 0x413508, size: 0x8, addend: 0x0, symName: '__ZN4core3ptr61drop_in_place$LT$alloc..boxed..Box$LT$syn..expr..Expr$GT$$GT$17hbb42293869113942E', symObjAddr: 0xBDA0, symBinAddr: 0xCC780, symSize: 0x50 }
  - { offsetInCU: 0x2DD51, offset: 0x413661, size: 0x8, addend: 0x0, symName: '__ZN4core3ptr61drop_in_place$LT$alloc..boxed..Box$LT$syn..path..Path$GT$$GT$17h038a2aea8fe87c28E', symObjAddr: 0xBDF0, symBinAddr: 0xCC7D0, symSize: 0x100 }
  - { offsetInCU: 0x2E271, offset: 0x413B81, size: 0x8, addend: 0x0, symName: '__ZN4core3ptr61drop_in_place$LT$syn..path..ParenthesizedGenericArguments$GT$17h6b1731382637937fE', symObjAddr: 0xBEF0, symBinAddr: 0xCC8D0, symSize: 0x170 }
  - { offsetInCU: 0x2E86E, offset: 0x41417E, size: 0x8, addend: 0x0, symName: '__ZN4core3ptr62drop_in_place$LT$alloc..boxed..Box$LT$syn..data..Field$GT$$GT$17hd46c7cc6f292f643E', symObjAddr: 0xC060, symBinAddr: 0xCCA40, symSize: 0x50 }
  - { offsetInCU: 0x2E9E6, offset: 0x4142F6, size: 0x8, addend: 0x0, symName: '__ZN4core3ptr62drop_in_place$LT$alloc..boxed..Box$LT$syn..item..FnArg$GT$$GT$17haeb55dec21588d58E', symObjAddr: 0xC0B0, symBinAddr: 0xCCA90, symSize: 0x60 }
  - { offsetInCU: 0x2EB5C, offset: 0x41446C, size: 0x8, addend: 0x0, symName: '__ZN4core3ptr62drop_in_place$LT$alloc..boxed..Box$LT$syn..stmt..Block$GT$$GT$17h21dcb5adf0237a12E', symObjAddr: 0xC110, symBinAddr: 0xCCAF0, symSize: 0xE0 }
  - { offsetInCU: 0x2EFB3, offset: 0x4148C3, size: 0x8, addend: 0x0, symName: '__ZN4core3ptr62drop_in_place$LT$alloc..vec..Vec$LT$syn..buffer..Entry$GT$$GT$17h17f61a784aa49e8bE.llvm.14025449986115119833', symObjAddr: 0xC1F0, symBinAddr: 0xCCBD0, symSize: 0xC0 }
  - { offsetInCU: 0x2F28B, offset: 0x414B9B, size: 0x8, addend: 0x0, symName: '__ZN4core3ptr62drop_in_place$LT$syn..path..AngleBracketedGenericArguments$GT$17hf8fa172f007a1473E', symObjAddr: 0xC2B0, symBinAddr: 0xCCC90, symSize: 0x120 }
  - { offsetInCU: 0x2F711, offset: 0x415021, size: 0x8, addend: 0x0, symName: '__ZN4core3ptr63drop_in_place$LT$alloc..vec..Vec$LT$syn..item..ImplItem$GT$$GT$17hc51fca07e67d35aeE.llvm.14025449986115119833', symObjAddr: 0xC3D0, symBinAddr: 0xCCDB0, symSize: 0x80 }
  - { offsetInCU: 0x2F9C9, offset: 0x4152D9, size: 0x8, addend: 0x0, symName: '__ZN4core3ptr64drop_in_place$LT$alloc..boxed..Box$LT$syn..data..Variant$GT$$GT$17h9ea21bed4984fdbcE', symObjAddr: 0xC450, symBinAddr: 0xCCE30, symSize: 0x50 }
  - { offsetInCU: 0x2FB22, offset: 0x415432, size: 0x8, addend: 0x0, symName: '__ZN4core3ptr64drop_in_place$LT$alloc..boxed..Box$LT$syn..item..UseTree$GT$$GT$17he4d7024582150632E', symObjAddr: 0xC4A0, symBinAddr: 0xCCE80, symSize: 0x50 }
  - { offsetInCU: 0x2FCB9, offset: 0x4155C9, size: 0x8, addend: 0x0, symName: '__ZN4core3ptr64drop_in_place$LT$alloc..boxed..Box$LT$syn..pat..FieldPat$GT$$GT$17hbf8f4867d84bd25dE', symObjAddr: 0xC4F0, symBinAddr: 0xCCED0, symSize: 0x140 }
  - { offsetInCU: 0x30383, offset: 0x415C93, size: 0x8, addend: 0x0, symName: '__ZN4core3ptr64drop_in_place$LT$alloc..boxed..Box$LT$syn..ty..BareFnArg$GT$$GT$17h6be6354eb1d1364dE', symObjAddr: 0xC630, symBinAddr: 0xCD010, symSize: 0x140 }
  - { offsetInCU: 0x30916, offset: 0x416226, size: 0x8, addend: 0x0, symName: '__ZN4core3ptr64drop_in_place$LT$alloc..vec..Vec$LT$syn..attr..Attribute$GT$$GT$17he33e25539d5885aeE.llvm.14025449986115119833', symObjAddr: 0xC770, symBinAddr: 0xCD150, symSize: 0xD0 }
  - { offsetInCU: 0x30C11, offset: 0x416521, size: 0x8, addend: 0x0, symName: '__ZN4core3ptr64drop_in_place$LT$alloc..vec..Vec$LT$syn..item..TraitItem$GT$$GT$17hff1cc01ccae80d7aE.llvm.14025449986115119833', symObjAddr: 0xC840, symBinAddr: 0xCD220, symSize: 0x80 }
  - { offsetInCU: 0x30EC9, offset: 0x4167D9, size: 0x8, addend: 0x0, symName: '__ZN4core3ptr65drop_in_place$LT$$LP$syn..item..FnArg$C$syn..token..Comma$RP$$GT$17heafa789770a727bbE.llvm.14025449986115119833', symObjAddr: 0xC8C0, symBinAddr: 0xCD2A0, symSize: 0x20 }
  - { offsetInCU: 0x30F62, offset: 0x416872, size: 0x8, addend: 0x0, symName: '__ZN4core3ptr65drop_in_place$LT$alloc..vec..Vec$LT$proc_macro..TokenTree$GT$$GT$17h8abd81f8596dbc59E.llvm.14025449986115119833', symObjAddr: 0xC8E0, symBinAddr: 0xCD2C0, symSize: 0x110 }
  - { offsetInCU: 0x31374, offset: 0x416C84, size: 0x8, addend: 0x0, symName: '__ZN4core3ptr65drop_in_place$LT$core..option..Option$LT$syn..expr..Label$GT$$GT$17hac599686b33ef364E', symObjAddr: 0xC9F0, symBinAddr: 0xCD3D0, symSize: 0x30 }
  - { offsetInCU: 0x314AE, offset: 0x416DBE, size: 0x8, addend: 0x0, symName: '__ZN4core3ptr65drop_in_place$LT$core..option..Option$LT$syn..stmt..Block$GT$$GT$17h74f2551ed24e2d27E', symObjAddr: 0xCA20, symBinAddr: 0xCD400, symSize: 0xD0 }
  - { offsetInCU: 0x317C1, offset: 0x4170D1, size: 0x8, addend: 0x0, symName: '__ZN4core3ptr66drop_in_place$LT$alloc..vec..Vec$LT$proc_macro2..TokenTree$GT$$GT$17hddd511686bdb58d1E', symObjAddr: 0xCAF0, symBinAddr: 0xCD4D0, symSize: 0xC0 }
  - { offsetInCU: 0x31A99, offset: 0x4173A9, size: 0x8, addend: 0x0, symName: '__ZN4core3ptr66drop_in_place$LT$alloc..vec..Vec$LT$syn..item..ForeignItem$GT$$GT$17h1f176e04eaf5e0dfE.llvm.14025449986115119833', symObjAddr: 0xCBB0, symBinAddr: 0xCD590, symSize: 0x80 }
  - { offsetInCU: 0x31D51, offset: 0x417661, size: 0x8, addend: 0x0, symName: '__ZN4core3ptr67drop_in_place$LT$$LP$syn..pat..FieldPat$C$syn..token..Comma$RP$$GT$17h27317b85bbb0d5a5E.llvm.14025449986115119833', symObjAddr: 0xCC30, symBinAddr: 0xCD610, symSize: 0x120 }
  - { offsetInCU: 0x322E6, offset: 0x417BF6, size: 0x8, addend: 0x0, symName: '__ZN4core3ptr67drop_in_place$LT$$LP$syn..ty..BareFnArg$C$syn..token..Comma$RP$$GT$17h983f3d51957c3a07E.llvm.14025449986115119833', symObjAddr: 0xCD50, symBinAddr: 0xCD730, symSize: 0x110 }
  - { offsetInCU: 0x32764, offset: 0x418074, size: 0x8, addend: 0x0, symName: '__ZN4core3ptr67drop_in_place$LT$alloc..boxed..Box$LT$syn..expr..FieldValue$GT$$GT$17hbbcf67a9d5e9863cE', symObjAddr: 0xCE60, symBinAddr: 0xCD840, symSize: 0x140 }
  - { offsetInCU: 0x32CD7, offset: 0x4185E7, size: 0x8, addend: 0x0, symName: '__ZN4core3ptr68drop_in_place$LT$alloc..boxed..Box$LT$syn..path..PathSegment$GT$$GT$17h99aaf90b3262bc1eE', symObjAddr: 0xCFA0, symBinAddr: 0xCD980, symSize: 0xF0 }
  - { offsetInCU: 0x330D9, offset: 0x4189E9, size: 0x8, addend: 0x0, symName: '__ZN4core3ptr69drop_in_place$LT$core..option..Option$LT$syn..stmt..LocalInit$GT$$GT$17h0978f9ea6e6b3bd1E', symObjAddr: 0xD120, symBinAddr: 0xCDA70, symSize: 0xC0 }
  - { offsetInCU: 0x333FD, offset: 0x418D0D, size: 0x8, addend: 0x0, symName: '__ZN4core3ptr70drop_in_place$LT$$LP$syn..expr..FieldValue$C$syn..token..Comma$RP$$GT$17h7bfdad78936e9ce8E.llvm.14025449986115119833', symObjAddr: 0xD1E0, symBinAddr: 0xCDB30, symSize: 0x110 }
  - { offsetInCU: 0x3383C, offset: 0x41914C, size: 0x8, addend: 0x0, symName: '__ZN4core3ptr70drop_in_place$LT$core..option..Option$LT$syn..ty..BareVariadic$GT$$GT$17h79a19250e9f043b1E', symObjAddr: 0xD2F0, symBinAddr: 0xCDC40, symSize: 0x100 }
  - { offsetInCU: 0x33C9B, offset: 0x4195AB, size: 0x8, addend: 0x0, symName: '__ZN4core3ptr72drop_in_place$LT$alloc..boxed..Box$LT$syn..path..GenericArgument$GT$$GT$17hfd308d374af4273dE.llvm.14025449986115119833', symObjAddr: 0xD3F0, symBinAddr: 0xCDD40, symSize: 0x190 }
  - { offsetInCU: 0x34163, offset: 0x419A73, size: 0x8, addend: 0x0, symName: '__ZN4core3ptr73drop_in_place$LT$$LP$syn..path..PathSegment$C$syn..token..PathSep$RP$$GT$17he36d39e19c04f3acE.llvm.14025449986115119833', symObjAddr: 0xD580, symBinAddr: 0xCDED0, symSize: 0xD0 }
  - { offsetInCU: 0x34426, offset: 0x419D36, size: 0x8, addend: 0x0, symName: '__ZN4core3ptr73drop_in_place$LT$alloc..boxed..Box$LT$syn..generics..GenericParam$GT$$GT$17ha26d5d145af4b203E', symObjAddr: 0xD650, symBinAddr: 0xCDFA0, symSize: 0x80 }
  - { offsetInCU: 0x3459C, offset: 0x419EAC, size: 0x8, addend: 0x0, symName: '__ZN4core3ptr75drop_in_place$LT$$LP$syn..path..GenericArgument$C$syn..token..Comma$RP$$GT$17hfc5ffe6787775104E.llvm.14025449986115119833', symObjAddr: 0xD6D0, symBinAddr: 0xCE020, symSize: 0x180 }
  - { offsetInCU: 0x3492A, offset: 0x41A23A, size: 0x8, addend: 0x0, symName: '__ZN4core3ptr75drop_in_place$LT$alloc..boxed..Box$LT$syn..generics..TypeParamBound$GT$$GT$17h129a4e927e5eb81bE', symObjAddr: 0xD850, symBinAddr: 0xCE1A0, symSize: 0x180 }
  - { offsetInCU: 0x34EF4, offset: 0x41A804, size: 0x8, addend: 0x0, symName: '__ZN4core3ptr75drop_in_place$LT$alloc..boxed..Box$LT$syn..generics..WherePredicate$GT$$GT$17h9bdeede2dbadbeb6E', symObjAddr: 0xD9D0, symBinAddr: 0xCE320, symSize: 0x80 }
  - { offsetInCU: 0x3518B, offset: 0x41AA9B, size: 0x8, addend: 0x0, symName: '__ZN4core3ptr76drop_in_place$LT$$LP$syn..generics..GenericParam$C$syn..token..Comma$RP$$GT$17hfa938bd7ff9e78c2E.llvm.14025449986115119833', symObjAddr: 0xDA50, symBinAddr: 0xCE3A0, symSize: 0x40 }
  - { offsetInCU: 0x351C7, offset: 0x41AAD7, size: 0x8, addend: 0x0, symName: '__ZN4core3ptr77drop_in_place$LT$$LP$syn..generics..TypeParamBound$C$syn..token..Plus$RP$$GT$17h900d162b03245e2aE.llvm.14025449986115119833', symObjAddr: 0xDA90, symBinAddr: 0xCE3E0, symSize: 0x180 }
  - { offsetInCU: 0x35663, offset: 0x41AF73, size: 0x8, addend: 0x0, symName: '__ZN4core3ptr78drop_in_place$LT$$LP$syn..generics..WherePredicate$C$syn..token..Comma$RP$$GT$17hdfe19ac5c370d71bE.llvm.14025449986115119833', symObjAddr: 0xDC10, symBinAddr: 0xCE560, symSize: 0x60 }
  - { offsetInCU: 0x3581D, offset: 0x41B12D, size: 0x8, addend: 0x0, symName: '__ZN4core3ptr82drop_in_place$LT$alloc..vec..Vec$LT$$LP$syn..pat..Pat$C$syn..token..Or$RP$$GT$$GT$17h1f0f428d7b2d8011E.llvm.14025449986115119833', symObjAddr: 0xDC70, symBinAddr: 0xCE5C0, symSize: 0x0 }
  - { offsetInCU: 0x35B1C, offset: 0x41B42C, size: 0x8, addend: 0x0, symName: '__ZN4core3ptr85drop_in_place$LT$alloc..vec..Vec$LT$$LP$syn..ty..Type$C$syn..token..Comma$RP$$GT$$GT$17h0cf4844ea7ad9568E.llvm.14025449986115119833', symObjAddr: 0xDD40, symBinAddr: 0xCE690, symSize: 0xD0 }
  - { offsetInCU: 0x35E17, offset: 0x41B727, size: 0x8, addend: 0x0, symName: '__ZN4core3ptr86drop_in_place$LT$$LP$syn..token..If$C$alloc..boxed..Box$LT$syn..expr..Expr$GT$$RP$$GT$17hf09fe3e5c3a4feb0E', symObjAddr: 0xDE10, symBinAddr: 0xCE760, symSize: 0x50 }
  - { offsetInCU: 0x35FCD, offset: 0x41B8DD, size: 0x8, addend: 0x0, symName: '__ZN4core3ptr86drop_in_place$LT$syn..punctuated..Punctuated$LT$syn..pat..Pat$C$syn..token..Or$GT$$GT$17h9cc6b5f7b6d3a555E', symObjAddr: 0xDE60, symBinAddr: 0xCE7B0, symSize: 0x120 }
  - { offsetInCU: 0x36466, offset: 0x41BD76, size: 0x8, addend: 0x0, symName: '__ZN4core3ptr87drop_in_place$LT$$LP$alloc..boxed..Box$LT$syn..pat..Pat$GT$$C$syn..token..Colon$RP$$GT$17h1f05e7b69125af95E', symObjAddr: 0xDF80, symBinAddr: 0xCE8D0, symSize: 0x50 }
  - { offsetInCU: 0x3663B, offset: 0x41BF4B, size: 0x8, addend: 0x0, symName: '__ZN4core3ptr87drop_in_place$LT$alloc..vec..Vec$LT$$LP$syn..expr..Expr$C$syn..token..Comma$RP$$GT$$GT$17hd1036fba4025974bE.llvm.14025449986115119833', symObjAddr: 0xDFD0, symBinAddr: 0xCE920, symSize: 0xD0 }
  - { offsetInCU: 0x36936, offset: 0x41C246, size: 0x8, addend: 0x0, symName: '__ZN4core3ptr87drop_in_place$LT$core..option..Option$LT$alloc..boxed..Box$LT$syn..ty..Type$GT$$GT$$GT$17h103a25a4a7d7374eE', symObjAddr: 0xE0A0, symBinAddr: 0xCE9F0, symSize: 0x50 }
  - { offsetInCU: 0x36AA6, offset: 0x41C3B6, size: 0x8, addend: 0x0, symName: '__ZN4core3ptr88drop_in_place$LT$alloc..vec..Vec$LT$$LP$syn..data..Field$C$syn..token..Comma$RP$$GT$$GT$17h066c67d26ce3e154E.llvm.14025449986115119833', symObjAddr: 0xE0F0, symBinAddr: 0xCEA40, symSize: 0xD0 }
  - { offsetInCU: 0x36DA5, offset: 0x41C6B5, size: 0x8, addend: 0x0, symName: '__ZN4core3ptr88drop_in_place$LT$alloc..vec..Vec$LT$$LP$syn..item..FnArg$C$syn..token..Comma$RP$$GT$$GT$17he8d49cd20c575884E.llvm.14025449986115119833', symObjAddr: 0xE1C0, symBinAddr: 0xCEB10, symSize: 0xC0 }
  - { offsetInCU: 0x3709E, offset: 0x41C9AE, size: 0x8, addend: 0x0, symName: '__ZN4core3ptr89drop_in_place$LT$core..option..Option$LT$alloc..boxed..Box$LT$syn..expr..Expr$GT$$GT$$GT$17h9e02509cb2345d44E', symObjAddr: 0xE280, symBinAddr: 0xCEBD0, symSize: 0x50 }
  - { offsetInCU: 0x3720E, offset: 0x41CB1E, size: 0x8, addend: 0x0, symName: '__ZN4core3ptr89drop_in_place$LT$syn..punctuated..Punctuated$LT$syn..ty..Type$C$syn..token..Comma$GT$$GT$17he030c4b7f24a5848E.llvm.14025449986115119833', symObjAddr: 0xE2D0, symBinAddr: 0xCEC20, symSize: 0x120 }
  - { offsetInCU: 0x376ED, offset: 0x41CFFD, size: 0x8, addend: 0x0, symName: '__ZN4core3ptr90drop_in_place$LT$alloc..vec..Vec$LT$$LP$syn..data..Variant$C$syn..token..Comma$RP$$GT$$GT$17h3ac8ecccf673c389E.llvm.14025449986115119833', symObjAddr: 0xE3F0, symBinAddr: 0xCED40, symSize: 0xD0 }
  - { offsetInCU: 0x379E8, offset: 0x41D2F8, size: 0x8, addend: 0x0, symName: '__ZN4core3ptr90drop_in_place$LT$alloc..vec..Vec$LT$$LP$syn..item..UseTree$C$syn..token..Comma$RP$$GT$$GT$17h1e4fface25e12fe6E.llvm.14025449986115119833', symObjAddr: 0xE4C0, symBinAddr: 0xCEE10, symSize: 0xD0 }
  - { offsetInCU: 0x37D23, offset: 0x41D633, size: 0x8, addend: 0x0, symName: '__ZN4core3ptr90drop_in_place$LT$alloc..vec..Vec$LT$$LP$syn..pat..FieldPat$C$syn..token..Comma$RP$$GT$$GT$17h4d0a520927a96123E.llvm.14025449986115119833', symObjAddr: 0xE590, symBinAddr: 0xCEEE0, symSize: 0xD0 }
  - { offsetInCU: 0x3802A, offset: 0x41D93A, size: 0x8, addend: 0x0, symName: '__ZN4core3ptr90drop_in_place$LT$alloc..vec..Vec$LT$$LP$syn..ty..BareFnArg$C$syn..token..Comma$RP$$GT$$GT$17h86271563b6e0e7d6E.llvm.14025449986115119833', symObjAddr: 0xE660, symBinAddr: 0xCEFB0, symSize: 0xD0 }
  - { offsetInCU: 0x382F5, offset: 0x41DC05, size: 0x8, addend: 0x0, symName: '__ZN4core3ptr90drop_in_place$LT$core..option..Option$LT$alloc..boxed..Box$LT$syn..data..Field$GT$$GT$$GT$17h9f1aee8cd56c6727E', symObjAddr: 0xE730, symBinAddr: 0xCF080, symSize: 0x50 }
  - { offsetInCU: 0x38465, offset: 0x41DD75, size: 0x8, addend: 0x0, symName: '__ZN4core3ptr90drop_in_place$LT$core..option..Option$LT$alloc..boxed..Box$LT$syn..item..FnArg$GT$$GT$$GT$17h8635495a730dc0bfE', symObjAddr: 0xE780, symBinAddr: 0xCF0D0, symSize: 0x50 }
  - { offsetInCU: 0x385F4, offset: 0x41DF04, size: 0x8, addend: 0x0, symName: '__ZN4core3ptr91drop_in_place$LT$syn..punctuated..Punctuated$LT$syn..expr..Expr$C$syn..token..Comma$GT$$GT$17h6f261e8f470c81f2E', symObjAddr: 0xE7D0, symBinAddr: 0xCF120, symSize: 0x120 }
  - { offsetInCU: 0x38A89, offset: 0x41E399, size: 0x8, addend: 0x0, symName: '__ZN4core3ptr92drop_in_place$LT$core..option..Option$LT$$LP$syn..token..As$C$proc_macro2..Ident$RP$$GT$$GT$17h12a88945917fa9dbE', symObjAddr: 0xE8F0, symBinAddr: 0xCF240, symSize: 0x30 }
  - { offsetInCU: 0x38BA4, offset: 0x41E4B4, size: 0x8, addend: 0x0, symName: '__ZN4core3ptr92drop_in_place$LT$syn..punctuated..Punctuated$LT$syn..data..Field$C$syn..token..Comma$GT$$GT$17hf8968831c552f88dE', symObjAddr: 0xE920, symBinAddr: 0xCF270, symSize: 0x120 }
  - { offsetInCU: 0x3902A, offset: 0x41E93A, size: 0x8, addend: 0x0, symName: '__ZN4core3ptr92drop_in_place$LT$syn..punctuated..Punctuated$LT$syn..item..FnArg$C$syn..token..Comma$GT$$GT$17h7de33e77eabaea82E', symObjAddr: 0xEA40, symBinAddr: 0xCF390, symSize: 0x150 }
  - { offsetInCU: 0x394F9, offset: 0x41EE09, size: 0x8, addend: 0x0, symName: '__ZN4core3ptr93drop_in_place$LT$alloc..vec..Vec$LT$$LP$syn..expr..FieldValue$C$syn..token..Comma$RP$$GT$$GT$17hf889827bae7d8b64E.llvm.14025449986115119833', symObjAddr: 0xEB90, symBinAddr: 0xCF4E0, symSize: 0xD0 }
  - { offsetInCU: 0x3981D, offset: 0x41F12D, size: 0x8, addend: 0x0, symName: '__ZN4core3ptr94drop_in_place$LT$alloc..vec..Vec$LT$$LP$syn..lifetime..Lifetime$C$syn..token..Plus$RP$$GT$$GT$17h446c63e6d8248f75E.llvm.14025449986115119833', symObjAddr: 0xEC60, symBinAddr: 0xCF5B0, symSize: 0x90 }
  - { offsetInCU: 0x39B1E, offset: 0x41F42E, size: 0x8, addend: 0x0, symName: '__ZN4core3ptr94drop_in_place$LT$syn..punctuated..Punctuated$LT$syn..data..Variant$C$syn..token..Comma$GT$$GT$17h310cd79aba4529ccE', symObjAddr: 0xECF0, symBinAddr: 0xCF640, symSize: 0x120 }
  - { offsetInCU: 0x39FF1, offset: 0x41F901, size: 0x8, addend: 0x0, symName: '__ZN4core3ptr94drop_in_place$LT$syn..punctuated..Punctuated$LT$syn..pat..FieldPat$C$syn..token..Comma$GT$$GT$17h43ec25af986ef674E', symObjAddr: 0xEE10, symBinAddr: 0xCF760, symSize: 0xF0 }
  - { offsetInCU: 0x3A348, offset: 0x41FC58, size: 0x8, addend: 0x0, symName: '__ZN4core3ptr94drop_in_place$LT$syn..punctuated..Punctuated$LT$syn..ty..BareFnArg$C$syn..token..Comma$GT$$GT$17h7ba4c699ee390ebaE', symObjAddr: 0xEF00, symBinAddr: 0xCF850, symSize: 0xF0 }
  - { offsetInCU: 0x3A663, offset: 0x41FF73, size: 0x8, addend: 0x0, symName: '__ZN4core3ptr95drop_in_place$LT$core..option..Option$LT$$LP$proc_macro2..Ident$C$syn..token..Colon$RP$$GT$$GT$17h59fe297999aa3329E.llvm.14025449986115119833', symObjAddr: 0xEFF0, symBinAddr: 0xCF940, symSize: 0x30 }
  - { offsetInCU: 0x3A77E, offset: 0x42008E, size: 0x8, addend: 0x0, symName: '__ZN4core3ptr96drop_in_place$LT$alloc..vec..Vec$LT$$LP$syn..path..PathSegment$C$syn..token..PathSep$RP$$GT$$GT$17h69d97f03bb66469bE.llvm.14025449986115119833', symObjAddr: 0xF020, symBinAddr: 0xCF970, symSize: 0xD0 }
  - { offsetInCU: 0x3AA7B, offset: 0x42038B, size: 0x8, addend: 0x0, symName: '__ZN4core3ptr96drop_in_place$LT$core..option..Option$LT$alloc..boxed..Box$LT$syn..path..PathSegment$GT$$GT$$GT$17h5de12a5a0f9e9ef9E', symObjAddr: 0xF0F0, symBinAddr: 0xCFA40, symSize: 0xA0 }
  - { offsetInCU: 0x3AD57, offset: 0x420667, size: 0x8, addend: 0x0, symName: '__ZN4core3ptr97drop_in_place$LT$syn..punctuated..Punctuated$LT$syn..expr..FieldValue$C$syn..token..Comma$GT$$GT$17hf58d0a9a09266ab3E', symObjAddr: 0xF1E0, symBinAddr: 0xCFAE0, symSize: 0xF0 }
  - { offsetInCU: 0x3B06E, offset: 0x42097E, size: 0x8, addend: 0x0, symName: '__ZN4core3ptr98drop_in_place$LT$alloc..vec..Vec$LT$$LP$syn..path..GenericArgument$C$syn..token..Comma$RP$$GT$$GT$17h0dee282a026d5a38E.llvm.14025449986115119833', symObjAddr: 0xF2D0, symBinAddr: 0xCFBD0, symSize: 0xD0 }
  - { offsetInCU: 0x3B3AB, offset: 0x420CBB, size: 0x8, addend: 0x0, symName: '__ZN4core3ptr98drop_in_place$LT$syn..punctuated..Punctuated$LT$syn..lifetime..Lifetime$C$syn..token..Plus$GT$$GT$17h600c2b78f78fd2b9E.llvm.14025449986115119833', symObjAddr: 0xF3A0, symBinAddr: 0xCFCA0, symSize: 0xD0 }
  - { offsetInCU: 0x3B81D, offset: 0x42112D, size: 0x8, addend: 0x0, symName: '__ZN4core3ptr99drop_in_place$LT$alloc..vec..Vec$LT$$LP$syn..generics..GenericParam$C$syn..token..Comma$RP$$GT$$GT$17haeaa257234ab8b89E.llvm.14025449986115119833', symObjAddr: 0xF470, symBinAddr: 0xCFD70, symSize: 0xD0 }
  - { offsetInCU: 0x3BEBF, offset: 0x4217CF, size: 0x8, addend: 0x0, symName: '__ZN42_$LT$$RF$T$u20$as$u20$core..fmt..Debug$GT$3fmt17hd75f14d0cf92e165E', symObjAddr: 0x220, symBinAddr: 0xC0C20, symSize: 0x80 }
  - { offsetInCU: 0x4109B, offset: 0x4269AB, size: 0x8, addend: 0x0, symName: '__ZN48_$LT$T$u20$as$u20$core..clone..CloneToUninit$GT$15clone_to_uninit17h573d7a4ee27ed36aE', symObjAddr: 0x2A0, symBinAddr: 0xC0CA0, symSize: 0x330 }
  - { offsetInCU: 0x4256C, offset: 0x427E7C, size: 0x8, addend: 0x0, symName: '__ZN136_$LT$alloc..vec..Vec$LT$T$C$A$GT$$u20$as$u20$alloc..vec..spec_extend..SpecExtend$LT$T$C$alloc..vec..into_iter..IntoIter$LT$T$GT$$GT$$GT$11spec_extend17hccc28cc1a2272c75E', symObjAddr: 0x100, symBinAddr: 0xC0B80, symSize: 0xA0 }
  - { offsetInCU: 0x4289F, offset: 0x4281AF, size: 0x8, addend: 0x0, symName: '__ZN97_$LT$alloc..vec..Vec$LT$T$C$A$GT$$u20$as$u20$alloc..vec..spec_extend..SpecExtend$LT$T$C$I$GT$$GT$11spec_extend17ha7b17e62345c5d54E', symObjAddr: 0x13200, symBinAddr: 0xD2340, symSize: 0x330 }
  - { offsetInCU: 0x4372B, offset: 0x42903B, size: 0x8, addend: 0x0, symName: '__ZN65_$LT$alloc..vec..Vec$LT$T$C$A$GT$$u20$as$u20$core..fmt..Debug$GT$3fmt17h54a5de57d1ec4d2eE', symObjAddr: 0xF890, symBinAddr: 0xCFED0, symSize: 0x80 }
  - { offsetInCU: 0x4390D, offset: 0x42921D, size: 0x8, addend: 0x0, symName: '__ZN65_$LT$alloc..vec..Vec$LT$T$C$A$GT$$u20$as$u20$core..fmt..Debug$GT$3fmt17h7df35ea0f5de10d6E', symObjAddr: 0xFA90, symBinAddr: 0xCFF50, symSize: 0x80 }
  - { offsetInCU: 0x43B22, offset: 0x429432, size: 0x8, addend: 0x0, symName: '__ZN67_$LT$alloc..vec..Vec$LT$T$C$A$GT$$u20$as$u20$core..clone..Clone$GT$5clone17h0918c192fa05002fE', symObjAddr: 0xFC70, symBinAddr: 0xCFFD0, symSize: 0x0 }
  - { offsetInCU: 0x43F57, offset: 0x429867, size: 0x8, addend: 0x0, symName: '__ZN67_$LT$alloc..vec..Vec$LT$T$C$A$GT$$u20$as$u20$core..clone..Clone$GT$5clone17h12f34926ea9f1126E', symObjAddr: 0xFDC0, symBinAddr: 0xD0120, symSize: 0x140 }
  - { offsetInCU: 0x4438B, offset: 0x429C9B, size: 0x8, addend: 0x0, symName: '__ZN67_$LT$alloc..vec..Vec$LT$T$C$A$GT$$u20$as$u20$core..clone..Clone$GT$5clone17h198f7ad4e9731601E', symObjAddr: 0xFF00, symBinAddr: 0xD0260, symSize: 0x150 }
  - { offsetInCU: 0x447C0, offset: 0x42A0D0, size: 0x8, addend: 0x0, symName: '__ZN67_$LT$alloc..vec..Vec$LT$T$C$A$GT$$u20$as$u20$core..clone..Clone$GT$5clone17h1c4556f52f9d0d47E', symObjAddr: 0x10050, symBinAddr: 0xD03B0, symSize: 0x140 }
  - { offsetInCU: 0x44B9D, offset: 0x42A4AD, size: 0x8, addend: 0x0, symName: '__ZN67_$LT$alloc..vec..Vec$LT$T$C$A$GT$$u20$as$u20$core..clone..Clone$GT$5clone17h231253a81e7a58bbE', symObjAddr: 0x10190, symBinAddr: 0xD04F0, symSize: 0x140 }
  - { offsetInCU: 0x44FD2, offset: 0x42A8E2, size: 0x8, addend: 0x0, symName: '__ZN67_$LT$alloc..vec..Vec$LT$T$C$A$GT$$u20$as$u20$core..clone..Clone$GT$5clone17h26458e8ef80c3a9bE', symObjAddr: 0x102D0, symBinAddr: 0xD0630, symSize: 0x150 }
  - { offsetInCU: 0x45407, offset: 0x42AD17, size: 0x8, addend: 0x0, symName: '__ZN67_$LT$alloc..vec..Vec$LT$T$C$A$GT$$u20$as$u20$core..clone..Clone$GT$5clone17h2b24796f45520c7bE', symObjAddr: 0x10420, symBinAddr: 0xD0780, symSize: 0x140 }
  - { offsetInCU: 0x457E4, offset: 0x42B0F4, size: 0x8, addend: 0x0, symName: '__ZN67_$LT$alloc..vec..Vec$LT$T$C$A$GT$$u20$as$u20$core..clone..Clone$GT$5clone17h2f79e88de7934928E', symObjAddr: 0x10560, symBinAddr: 0xD08C0, symSize: 0x140 }
  - { offsetInCU: 0x45BC1, offset: 0x42B4D1, size: 0x8, addend: 0x0, symName: '__ZN67_$LT$alloc..vec..Vec$LT$T$C$A$GT$$u20$as$u20$core..clone..Clone$GT$5clone17h31bc48edccfa1915E', symObjAddr: 0x106A0, symBinAddr: 0xD0A00, symSize: 0x240 }
  - { offsetInCU: 0x461E2, offset: 0x42BAF2, size: 0x8, addend: 0x0, symName: '__ZN67_$LT$alloc..vec..Vec$LT$T$C$A$GT$$u20$as$u20$core..clone..Clone$GT$5clone17h363befc284095627E', symObjAddr: 0x108E0, symBinAddr: 0xD0C40, symSize: 0x150 }
  - { offsetInCU: 0x46617, offset: 0x42BF27, size: 0x8, addend: 0x0, symName: '__ZN67_$LT$alloc..vec..Vec$LT$T$C$A$GT$$u20$as$u20$core..clone..Clone$GT$5clone17h4573a12392f30b82E', symObjAddr: 0x10A30, symBinAddr: 0xD0D90, symSize: 0x1A0 }
  - { offsetInCU: 0x46AA5, offset: 0x42C3B5, size: 0x8, addend: 0x0, symName: '__ZN67_$LT$alloc..vec..Vec$LT$T$C$A$GT$$u20$as$u20$core..clone..Clone$GT$5clone17h66d29e7a7f7f75a3E', symObjAddr: 0x10BD0, symBinAddr: 0xD0F30, symSize: 0x140 }
  - { offsetInCU: 0x46E82, offset: 0x42C792, size: 0x8, addend: 0x0, symName: '__ZN67_$LT$alloc..vec..Vec$LT$T$C$A$GT$$u20$as$u20$core..clone..Clone$GT$5clone17h6e06f5a531199142E', symObjAddr: 0x10D10, symBinAddr: 0xD1070, symSize: 0x180 }
  - { offsetInCU: 0x4735C, offset: 0x42CC6C, size: 0x8, addend: 0x0, symName: '__ZN67_$LT$alloc..vec..Vec$LT$T$C$A$GT$$u20$as$u20$core..clone..Clone$GT$5clone17h7130fcf6814bc045E', symObjAddr: 0x10E90, symBinAddr: 0xD11F0, symSize: 0x150 }
  - { offsetInCU: 0x47791, offset: 0x42D0A1, size: 0x8, addend: 0x0, symName: '__ZN67_$LT$alloc..vec..Vec$LT$T$C$A$GT$$u20$as$u20$core..clone..Clone$GT$5clone17h7665f3814d75ccf2E', symObjAddr: 0x10FE0, symBinAddr: 0xD1340, symSize: 0x150 }
  - { offsetInCU: 0x47BC6, offset: 0x42D4D6, size: 0x8, addend: 0x0, symName: '__ZN67_$LT$alloc..vec..Vec$LT$T$C$A$GT$$u20$as$u20$core..clone..Clone$GT$5clone17h81c8c2fa81ddf714E', symObjAddr: 0x11130, symBinAddr: 0xD1490, symSize: 0x160 }
  - { offsetInCU: 0x4803C, offset: 0x42D94C, size: 0x8, addend: 0x0, symName: '__ZN67_$LT$alloc..vec..Vec$LT$T$C$A$GT$$u20$as$u20$core..clone..Clone$GT$5clone17h95e57492d3a10cc0E', symObjAddr: 0x113F0, symBinAddr: 0xD15F0, symSize: 0x140 }
  - { offsetInCU: 0x48419, offset: 0x42DD29, size: 0x8, addend: 0x0, symName: '__ZN67_$LT$alloc..vec..Vec$LT$T$C$A$GT$$u20$as$u20$core..clone..Clone$GT$5clone17ha4bb515f2984f91aE', symObjAddr: 0x11530, symBinAddr: 0xD1730, symSize: 0x150 }
  - { offsetInCU: 0x4884E, offset: 0x42E15E, size: 0x8, addend: 0x0, symName: '__ZN67_$LT$alloc..vec..Vec$LT$T$C$A$GT$$u20$as$u20$core..clone..Clone$GT$5clone17haa8bb6b2679cb284E', symObjAddr: 0x11680, symBinAddr: 0xD1880, symSize: 0x240 }
  - { offsetInCU: 0x48E49, offset: 0x42E759, size: 0x8, addend: 0x0, symName: '__ZN67_$LT$alloc..vec..Vec$LT$T$C$A$GT$$u20$as$u20$core..clone..Clone$GT$5clone17hbc42148281c8a2c5E', symObjAddr: 0x118C0, symBinAddr: 0xD1AC0, symSize: 0x150 }
  - { offsetInCU: 0x4927E, offset: 0x42EB8E, size: 0x8, addend: 0x0, symName: '__ZN67_$LT$alloc..vec..Vec$LT$T$C$A$GT$$u20$as$u20$core..clone..Clone$GT$5clone17hdea0838f2711b888E', symObjAddr: 0x11A10, symBinAddr: 0xD1C10, symSize: 0x180 }
  - { offsetInCU: 0x49780, offset: 0x42F090, size: 0x8, addend: 0x0, symName: '__ZN67_$LT$alloc..vec..Vec$LT$T$C$A$GT$$u20$as$u20$core..clone..Clone$GT$5clone17he6fccb5bd9282467E', symObjAddr: 0x11B90, symBinAddr: 0xD1D90, symSize: 0x150 }
  - { offsetInCU: 0x49BB5, offset: 0x42F4C5, size: 0x8, addend: 0x0, symName: '__ZN67_$LT$alloc..vec..Vec$LT$T$C$A$GT$$u20$as$u20$core..clone..Clone$GT$5clone17hfc43050c7448a50aE', symObjAddr: 0x11CE0, symBinAddr: 0xD1EE0, symSize: 0x140 }
  - { offsetInCU: 0x49F92, offset: 0x42F8A2, size: 0x8, addend: 0x0, symName: '__ZN67_$LT$alloc..vec..Vec$LT$T$C$A$GT$$u20$as$u20$core..clone..Clone$GT$5clone17hffa782808f95fe1aE', symObjAddr: 0x11E20, symBinAddr: 0xD2020, symSize: 0x140 }
  - { offsetInCU: 0x4A844, offset: 0x430154, size: 0x8, addend: 0x0, symName: '__ZN70_$LT$alloc..vec..Vec$LT$T$C$A$GT$$u20$as$u20$core..ops..drop..Drop$GT$4drop17h04459a2ad506febfE', symObjAddr: 0x11F60, symBinAddr: 0xD2160, symSize: 0xB0 }
  - { offsetInCU: 0x4A8A6, offset: 0x4301B6, size: 0x8, addend: 0x0, symName: '__ZN70_$LT$alloc..vec..Vec$LT$T$C$A$GT$$u20$as$u20$core..ops..drop..Drop$GT$4drop17h16fdfee690a97aabE', symObjAddr: 0x12150, symBinAddr: 0xD2210, symSize: 0xB0 }
  - { offsetInCU: 0x4AA21, offset: 0x430331, size: 0x8, addend: 0x0, symName: '__ZN70_$LT$alloc..vec..Vec$LT$T$C$A$GT$$u20$as$u20$core..ops..drop..Drop$GT$4drop17h24dac77de93830d0E', symObjAddr: 0x12330, symBinAddr: 0xD22C0, symSize: 0x80 }
  - { offsetInCU: 0x4FA83, offset: 0x435393, size: 0x8, addend: 0x0, symName: '__ZN5alloc3vec16Vec$LT$T$C$A$GT$16into_boxed_slice17hf01fc5c9dc27910bE', symObjAddr: 0xF5D0, symBinAddr: 0xCFE40, symSize: 0x90 }
  - { offsetInCU: 0x1E, offset: 0x4497A1, size: 0x8, addend: 0x0, symName: '__ZN4core3ptr100drop_in_place$LT$core..option..Option$LT$alloc..boxed..Box$LT$syn..path..GenericArgument$GT$$GT$$GT$17h3a7c44b9e57fe410E', symObjAddr: 0x0, symBinAddr: 0xD2670, symSize: 0x50 }
  - { offsetInCU: 0xA8, offset: 0x44982B, size: 0x8, addend: 0x0, symName: '__ZN58_$LT$alloc..string..String$u20$as$u20$core..fmt..Write$GT$10write_char17h04bc467bd68a934bE', symObjAddr: 0x71C0, symBinAddr: 0xD9830, symSize: 0x140 }
  - { offsetInCU: 0x4AD, offset: 0x449C30, size: 0x8, addend: 0x0, symName: '__ZN58_$LT$alloc..string..String$u20$as$u20$core..fmt..Write$GT$9write_str17h46a93205c3443fbaE', symObjAddr: 0x7300, symBinAddr: 0xD9970, symSize: 0x60 }
  - { offsetInCU: 0x1455, offset: 0x44ABD8, size: 0x8, addend: 0x0, symName: __ZN5alloc5alloc15exchange_malloc17h9a87608d0224859dE, symObjAddr: 0x7360, symBinAddr: 0xD99D0, symSize: 0x40 }
  - { offsetInCU: 0x37FA, offset: 0x44CF7D, size: 0x8, addend: 0x0, symName: '__ZN4core3ptr100drop_in_place$LT$core..option..Option$LT$alloc..boxed..Box$LT$syn..path..GenericArgument$GT$$GT$$GT$17h3a7c44b9e57fe410E', symObjAddr: 0x0, symBinAddr: 0xD2670, symSize: 0x50 }
  - { offsetInCU: 0x39C7, offset: 0x44D14A, size: 0x8, addend: 0x0, symName: '__ZN4core3ptr102drop_in_place$LT$syn..punctuated..Punctuated$LT$syn..path..GenericArgument$C$syn..token..Comma$GT$$GT$17h8b1978399cfff48bE', symObjAddr: 0x50, symBinAddr: 0xD26C0, symSize: 0xF0 }
  - { offsetInCU: 0x3CE7, offset: 0x44D46A, size: 0x8, addend: 0x0, symName: '__ZN4core3ptr103drop_in_place$LT$core..option..Option$LT$alloc..boxed..Box$LT$syn..generics..TypeParamBound$GT$$GT$$GT$17hb14e4384a768542bE', symObjAddr: 0x140, symBinAddr: 0xD27B0, symSize: 0x50 }
  - { offsetInCU: 0x3EF2, offset: 0x44D675, size: 0x8, addend: 0x0, symName: '__ZN4core3ptr103drop_in_place$LT$syn..punctuated..Punctuated$LT$syn..generics..GenericParam$C$syn..token..Comma$GT$$GT$17h0c6077a988036760E', symObjAddr: 0x190, symBinAddr: 0xD2800, symSize: 0xF0 }
  - { offsetInCU: 0x44C6, offset: 0x44DC49, size: 0x8, addend: 0x0, symName: '__ZN4core3ptr104drop_in_place$LT$syn..punctuated..Punctuated$LT$syn..generics..TypeParamBound$C$syn..token..Plus$GT$$GT$17h724e4d9d1d65061aE', symObjAddr: 0x280, symBinAddr: 0xD28F0, symSize: 0x260 }
  - { offsetInCU: 0x4F10, offset: 0x44E693, size: 0x8, addend: 0x0, symName: '__ZN4core3ptr34drop_in_place$LT$syn..lit..Lit$GT$17hd64dde89a262341dE', symObjAddr: 0x4E0, symBinAddr: 0xD2B50, symSize: 0x120 }
  - { offsetInCU: 0x53FE, offset: 0x44EB81, size: 0x8, addend: 0x0, symName: '__ZN4core3ptr34drop_in_place$LT$syn..pat..Pat$GT$17hf88887878261d63cE', symObjAddr: 0x600, symBinAddr: 0xD2C70, symSize: 0xF70 }
  - { offsetInCU: 0x9317, offset: 0x452A9A, size: 0x8, addend: 0x0, symName: '__ZN4core3ptr34drop_in_place$LT$syn..ty..Type$GT$17ha80dd29b0f9d4a3fE', symObjAddr: 0x1570, symBinAddr: 0xD3BE0, symSize: 0x5A0 }
  - { offsetInCU: 0xACB3, offset: 0x454436, size: 0x8, addend: 0x0, symName: '__ZN4core3ptr36drop_in_place$LT$syn..expr..Expr$GT$17h10f573b40ddd212cE.llvm.15963643447187171253', symObjAddr: 0x1B10, symBinAddr: 0xD4180, symSize: 0x2760 }
  - { offsetInCU: 0x149AA, offset: 0x45E12D, size: 0x8, addend: 0x0, symName: '__ZN4core3ptr36drop_in_place$LT$syn..mac..Macro$GT$17hc3b30a7a8a34cc2dE', symObjAddr: 0x4270, symBinAddr: 0xD68E0, symSize: 0x110 }
  - { offsetInCU: 0x14E47, offset: 0x45E5CA, size: 0x8, addend: 0x0, symName: '__ZN4core3ptr36drop_in_place$LT$syn..path..Path$GT$17h75c74a97d5f0a03bE', symObjAddr: 0x4380, symBinAddr: 0xD69F0, symSize: 0x280 }
  - { offsetInCU: 0x158F4, offset: 0x45F077, size: 0x8, addend: 0x0, symName: '__ZN4core3ptr37drop_in_place$LT$syn..stmt..Block$GT$17h6fc3254d5688f2c3E', symObjAddr: 0x4600, symBinAddr: 0xD6C70, symSize: 0xD0 }
  - { offsetInCU: 0x15BCB, offset: 0x45F34E, size: 0x8, addend: 0x0, symName: '__ZN4core3ptr38drop_in_place$LT$syn..expr..Member$GT$17h6b0cf84594ce6bceE', symObjAddr: 0x46D0, symBinAddr: 0xD6D40, symSize: 0x30 }
  - { offsetInCU: 0x15D62, offset: 0x45F4E5, size: 0x8, addend: 0x0, symName: '__ZN4core3ptr38drop_in_place$LT$syn..group..Group$GT$17ha3c6933df6efe66fE', symObjAddr: 0x4700, symBinAddr: 0xD6D70, symSize: 0x70 }
  - { offsetInCU: 0x1605A, offset: 0x45F7DD, size: 0x8, addend: 0x0, symName: '__ZN4core3ptr39drop_in_place$LT$proc_macro2..Ident$GT$17ha28fef9769e267d9E', symObjAddr: 0x4770, symBinAddr: 0xD6DE0, symSize: 0x30 }
  - { offsetInCU: 0x16175, offset: 0x45F8F8, size: 0x8, addend: 0x0, symName: '__ZN4core3ptr39drop_in_place$LT$syn..lit..LitFloat$GT$17h83bfdc788eb6081bE', symObjAddr: 0x47A0, symBinAddr: 0xD6E10, symSize: 0x70 }
  - { offsetInCU: 0x164E7, offset: 0x45FC6A, size: 0x8, addend: 0x0, symName: '__ZN4core3ptr40drop_in_place$LT$syn..expr..ExprPath$GT$17h1e579ab03db12453E', symObjAddr: 0x4810, symBinAddr: 0xD6E80, symSize: 0x110 }
  - { offsetInCU: 0x1694A, offset: 0x4600CD, size: 0x8, addend: 0x0, symName: '__ZN4core3ptr40drop_in_place$LT$syn..ty..ReturnType$GT$17h035a612e322b6510E', symObjAddr: 0x4920, symBinAddr: 0xD6F90, symSize: 0x50 }
  - { offsetInCU: 0x16B17, offset: 0x46029A, size: 0x8, addend: 0x0, symName: '__ZN4core3ptr41drop_in_place$LT$syn..attr..Attribute$GT$17h326c12be3efddb0cE', symObjAddr: 0x4970, symBinAddr: 0xD6FE0, symSize: 0xA0 }
  - { offsetInCU: 0x16B92, offset: 0x460315, size: 0x8, addend: 0x0, symName: '__ZN4core3ptr41drop_in_place$LT$syn..expr..ExprConst$GT$17hbfe19d5d621e6836E', symObjAddr: 0x4A10, symBinAddr: 0xD7080, symSize: 0x180 }
  - { offsetInCU: 0x1717F, offset: 0x460902, size: 0x8, addend: 0x0, symName: '__ZN4core3ptr42drop_in_place$LT$alloc..string..String$GT$17h9acfda4d1b128177E', symObjAddr: 0x4B90, symBinAddr: 0xD7200, symSize: 0x20 }
  - { offsetInCU: 0x17287, offset: 0x460A0A, size: 0x8, addend: 0x0, symName: '__ZN4core3ptr44drop_in_place$LT$syn..lifetime..Lifetime$GT$17he37fa474f03de7b1E', symObjAddr: 0x4BB0, symBinAddr: 0xD7220, symSize: 0x30 }
  - { offsetInCU: 0x17383, offset: 0x460B06, size: 0x8, addend: 0x0, symName: '__ZN4core3ptr44drop_in_place$LT$syn..parse..ParseBuffer$GT$17hf792ff20095efc35E', symObjAddr: 0x4BE0, symBinAddr: 0xD7250, symSize: 0x70 }
  - { offsetInCU: 0x1779A, offset: 0x460F1D, size: 0x8, addend: 0x0, symName: '__ZN4core3ptr45drop_in_place$LT$proc_macro2..TokenStream$GT$17h76e8e68015f4924dE', symObjAddr: 0x4C50, symBinAddr: 0xD72C0, symSize: 0x140 }
  - { offsetInCU: 0x17C34, offset: 0x4613B7, size: 0x8, addend: 0x0, symName: '__ZN4core3ptr45drop_in_place$LT$syn..generics..TypeParam$GT$17h188a459c1380ac75E', symObjAddr: 0x4D90, symBinAddr: 0xD7400, symSize: 0x230 }
  - { offsetInCU: 0x184A9, offset: 0x461C2C, size: 0x8, addend: 0x0, symName: '__ZN4core3ptr46drop_in_place$LT$syn..generics..ConstParam$GT$17h7a9b900b2b88bfcdE', symObjAddr: 0x4FC0, symBinAddr: 0xD7630, symSize: 0x150 }
  - { offsetInCU: 0x1892A, offset: 0x4620AD, size: 0x8, addend: 0x0, symName: '__ZN4core3ptr47drop_in_place$LT$syn..path..GenericArgument$GT$17h593f06d6ca9a94d2E', symObjAddr: 0x5110, symBinAddr: 0xD7780, symSize: 0x450 }
  - { offsetInCU: 0x196A0, offset: 0x462E23, size: 0x8, addend: 0x0, symName: '__ZN4core3ptr49drop_in_place$LT$syn..generics..LifetimeParam$GT$17h3a8835ab294bfd16E', symObjAddr: 0x5560, symBinAddr: 0xD7BD0, symSize: 0xF0 }
  - { offsetInCU: 0x19AB7, offset: 0x46323A, size: 0x8, addend: 0x0, symName: '__ZN4core3ptr50drop_in_place$LT$syn..generics..TypeParamBound$GT$17h81b4325b5900604dE', symObjAddr: 0x5650, symBinAddr: 0xD7CC0, symSize: 0xA0 }
  - { offsetInCU: 0x19C1D, offset: 0x4633A0, size: 0x8, addend: 0x0, symName: '__ZN4core3ptr58drop_in_place$LT$alloc..vec..Vec$LT$syn..expr..Arm$GT$$GT$17hff9224aadf2233b8E', symObjAddr: 0x56F0, symBinAddr: 0xD7D60, symSize: 0xD0 }
  - { offsetInCU: 0x19EDD, offset: 0x463660, size: 0x8, addend: 0x0, symName: '__ZN4core3ptr59drop_in_place$LT$alloc..boxed..Box$LT$syn..pat..Pat$GT$$GT$17h622b0c1db21c0742E', symObjAddr: 0x57C0, symBinAddr: 0xD7E30, symSize: 0x50 }
  - { offsetInCU: 0x1A036, offset: 0x4637B9, size: 0x8, addend: 0x0, symName: '__ZN4core3ptr59drop_in_place$LT$alloc..boxed..Box$LT$syn..ty..Type$GT$$GT$17hde45fa887dd8b605E', symObjAddr: 0x5810, symBinAddr: 0xD7E80, symSize: 0x50 }
  - { offsetInCU: 0x1A18F, offset: 0x463912, size: 0x8, addend: 0x0, symName: '__ZN4core3ptr61drop_in_place$LT$alloc..boxed..Box$LT$syn..expr..Expr$GT$$GT$17hbb42293869113942E', symObjAddr: 0x5860, symBinAddr: 0xD7ED0, symSize: 0x50 }
  - { offsetInCU: 0x1A2E8, offset: 0x463A6B, size: 0x8, addend: 0x0, symName: '__ZN4core3ptr61drop_in_place$LT$syn..path..ParenthesizedGenericArguments$GT$17h6b1731382637937fE', symObjAddr: 0x58B0, symBinAddr: 0xD7F20, symSize: 0x170 }
  - { offsetInCU: 0x1A8F1, offset: 0x464074, size: 0x8, addend: 0x0, symName: '__ZN4core3ptr63drop_in_place$LT$alloc..boxed..Box$LT$syn..lit..LitRepr$GT$$GT$17h6e3a82ea4de7b84cE', symObjAddr: 0x5A20, symBinAddr: 0xD8090, symSize: 0x60 }
  - { offsetInCU: 0x1ABF8, offset: 0x46437B, size: 0x8, addend: 0x0, symName: '__ZN4core3ptr64drop_in_place$LT$alloc..boxed..Box$LT$syn..pat..FieldPat$GT$$GT$17hbf8f4867d84bd25dE', symObjAddr: 0x5A80, symBinAddr: 0xD80F0, symSize: 0x140 }
  - { offsetInCU: 0x1B2F9, offset: 0x464A7C, size: 0x8, addend: 0x0, symName: '__ZN4core3ptr64drop_in_place$LT$alloc..boxed..Box$LT$syn..ty..BareFnArg$GT$$GT$17h6be6354eb1d1364dE', symObjAddr: 0x5BC0, symBinAddr: 0xD8230, symSize: 0x140 }
  - { offsetInCU: 0x1B882, offset: 0x465005, size: 0x8, addend: 0x0, symName: '__ZN4core3ptr64drop_in_place$LT$alloc..vec..Vec$LT$syn..attr..Attribute$GT$$GT$17he33e25539d5885aeE.llvm.15963643447187171253', symObjAddr: 0x5D00, symBinAddr: 0xD8370, symSize: 0xD0 }
  - { offsetInCU: 0x1BB76, offset: 0x4652F9, size: 0x8, addend: 0x0, symName: '__ZN4core3ptr65drop_in_place$LT$alloc..vec..Vec$LT$proc_macro..TokenTree$GT$$GT$17h8abd81f8596dbc59E', symObjAddr: 0x5DD0, symBinAddr: 0xD8440, symSize: 0x110 }
  - { offsetInCU: 0x1BF6E, offset: 0x4656F1, size: 0x8, addend: 0x0, symName: '__ZN4core3ptr65drop_in_place$LT$core..option..Option$LT$syn..expr..Label$GT$$GT$17hac599686b33ef364E', symObjAddr: 0x5EE0, symBinAddr: 0xD8550, symSize: 0x30 }
  - { offsetInCU: 0x1C0A8, offset: 0x46582B, size: 0x8, addend: 0x0, symName: '__ZN4core3ptr65drop_in_place$LT$core..option..Option$LT$syn..path..QSelf$GT$$GT$17h0b8dd5cda5f2cd6bE', symObjAddr: 0x5F10, symBinAddr: 0xD8580, symSize: 0x50 }
  - { offsetInCU: 0x1C229, offset: 0x4659AC, size: 0x8, addend: 0x0, symName: '__ZN4core3ptr66drop_in_place$LT$core..option..Option$LT$syn..pat..PatRest$GT$$GT$17hd5bb3bc28aa78ac1E', symObjAddr: 0x5F60, symBinAddr: 0xD85D0, symSize: 0xE0 }
  - { offsetInCU: 0x1C551, offset: 0x465CD4, size: 0x8, addend: 0x0, symName: '__ZN4core3ptr67drop_in_place$LT$alloc..boxed..Box$LT$syn..expr..FieldValue$GT$$GT$17hbbcf67a9d5e9863cE', symObjAddr: 0x6040, symBinAddr: 0xD86B0, symSize: 0x140 }
  - { offsetInCU: 0x1CAD9, offset: 0x46625C, size: 0x8, addend: 0x0, symName: '__ZN4core3ptr70drop_in_place$LT$core..option..Option$LT$syn..ty..BareVariadic$GT$$GT$17h79a19250e9f043b1E', symObjAddr: 0x6180, symBinAddr: 0xD87F0, symSize: 0x100 }
  - { offsetInCU: 0x1CF44, offset: 0x4666C7, size: 0x8, addend: 0x0, symName: '__ZN4core3ptr72drop_in_place$LT$alloc..boxed..Box$LT$syn..path..GenericArgument$GT$$GT$17hfd308d374af4273dE', symObjAddr: 0x6280, symBinAddr: 0xD88F0, symSize: 0x2B0 }
  - { offsetInCU: 0x1D955, offset: 0x4670D8, size: 0x8, addend: 0x0, symName: '__ZN4core3ptr72drop_in_place$LT$core..option..Option$LT$syn..lifetime..Lifetime$GT$$GT$17h49cce6f02f9c0590E', symObjAddr: 0x6530, symBinAddr: 0xD8BA0, symSize: 0x30 }
  - { offsetInCU: 0x1DA70, offset: 0x4671F3, size: 0x8, addend: 0x0, symName: '__ZN4core3ptr73drop_in_place$LT$alloc..boxed..Box$LT$syn..generics..GenericParam$GT$$GT$17ha26d5d145af4b203E', symObjAddr: 0x6560, symBinAddr: 0xD8BD0, symSize: 0x80 }
  - { offsetInCU: 0x1DBE6, offset: 0x467369, size: 0x8, addend: 0x0, symName: '__ZN4core3ptr75drop_in_place$LT$alloc..boxed..Box$LT$syn..generics..TypeParamBound$GT$$GT$17h129a4e927e5eb81bE', symObjAddr: 0x65E0, symBinAddr: 0xD8C50, symSize: 0x1B0 }
  - { offsetInCU: 0x1E2E5, offset: 0x467A68, size: 0x8, addend: 0x0, symName: '__ZN4core3ptr83drop_in_place$LT$core..result..Result$LT$syn..op..BinOp$C$syn..error..Error$GT$$GT$17h495a3ee3d6e6a47dE', symObjAddr: 0x6790, symBinAddr: 0xD8E00, symSize: 0x80 }
  - { offsetInCU: 0x1E5FF, offset: 0x467D82, size: 0x8, addend: 0x0, symName: '__ZN4core3ptr86drop_in_place$LT$syn..punctuated..Punctuated$LT$syn..pat..Pat$C$syn..token..Or$GT$$GT$17h9cc6b5f7b6d3a555E', symObjAddr: 0x6810, symBinAddr: 0xD8E80, symSize: 0x120 }
  - { offsetInCU: 0x1EA7A, offset: 0x4681FD, size: 0x8, addend: 0x0, symName: '__ZN4core3ptr87drop_in_place$LT$core..option..Option$LT$alloc..boxed..Box$LT$syn..pat..Pat$GT$$GT$$GT$17h51cd48973d96c411E', symObjAddr: 0x6930, symBinAddr: 0xD8FA0, symSize: 0x50 }
  - { offsetInCU: 0x1EBEA, offset: 0x46836D, size: 0x8, addend: 0x0, symName: '__ZN4core3ptr87drop_in_place$LT$core..option..Option$LT$alloc..boxed..Box$LT$syn..ty..Type$GT$$GT$$GT$17h103a25a4a7d7374eE', symObjAddr: 0x6980, symBinAddr: 0xD8FF0, symSize: 0x50 }
  - { offsetInCU: 0x1ED5A, offset: 0x4684DD, size: 0x8, addend: 0x0, symName: '__ZN4core3ptr89drop_in_place$LT$core..option..Option$LT$alloc..boxed..Box$LT$syn..expr..Expr$GT$$GT$$GT$17h9e02509cb2345d44E', symObjAddr: 0x69D0, symBinAddr: 0xD9040, symSize: 0x50 }
  - { offsetInCU: 0x1EF08, offset: 0x46868B, size: 0x8, addend: 0x0, symName: '__ZN4core3ptr89drop_in_place$LT$syn..punctuated..Punctuated$LT$syn..pat..Pat$C$syn..token..Comma$GT$$GT$17hd3a83c36827f210aE', symObjAddr: 0x6A20, symBinAddr: 0xD9090, symSize: 0x120 }
  - { offsetInCU: 0x1F3D8, offset: 0x468B5B, size: 0x8, addend: 0x0, symName: '__ZN4core3ptr91drop_in_place$LT$syn..punctuated..Punctuated$LT$syn..expr..Expr$C$syn..token..Comma$GT$$GT$17h6f261e8f470c81f2E', symObjAddr: 0x6B40, symBinAddr: 0xD91B0, symSize: 0x120 }
  - { offsetInCU: 0x1F866, offset: 0x468FE9, size: 0x8, addend: 0x0, symName: '__ZN4core3ptr94drop_in_place$LT$syn..punctuated..Punctuated$LT$syn..pat..FieldPat$C$syn..token..Comma$GT$$GT$17h43ec25af986ef674E', symObjAddr: 0x6C60, symBinAddr: 0xD92D0, symSize: 0xF0 }
  - { offsetInCU: 0x1FB65, offset: 0x4692E8, size: 0x8, addend: 0x0, symName: '__ZN4core3ptr94drop_in_place$LT$syn..punctuated..Punctuated$LT$syn..ty..BareFnArg$C$syn..token..Comma$GT$$GT$17h7ba4c699ee390ebaE', symObjAddr: 0x6D50, symBinAddr: 0xD93C0, symSize: 0xF0 }
  - { offsetInCU: 0x1FE66, offset: 0x4695E9, size: 0x8, addend: 0x0, symName: '__ZN4core3ptr96drop_in_place$LT$core..option..Option$LT$alloc..boxed..Box$LT$syn..path..PathSegment$GT$$GT$$GT$17h5de12a5a0f9e9ef9E', symObjAddr: 0x6E40, symBinAddr: 0xD94B0, symSize: 0x1A0 }
  - { offsetInCU: 0x20527, offset: 0x469CAA, size: 0x8, addend: 0x0, symName: '__ZN4core3ptr97drop_in_place$LT$syn..punctuated..Punctuated$LT$syn..expr..FieldValue$C$syn..token..Comma$GT$$GT$17hf58d0a9a09266ab3E', symObjAddr: 0x6FE0, symBinAddr: 0xD9650, symSize: 0xF0 }
  - { offsetInCU: 0x208A0, offset: 0x46A023, size: 0x8, addend: 0x0, symName: '__ZN4core3ptr98drop_in_place$LT$syn..punctuated..Punctuated$LT$syn..lifetime..Lifetime$C$syn..token..Plus$GT$$GT$17h600c2b78f78fd2b9E', symObjAddr: 0x70D0, symBinAddr: 0xD9740, symSize: 0xD0 }
  - { offsetInCU: 0x214D2, offset: 0x46AC55, size: 0x8, addend: 0x0, symName: '__ZN53_$LT$core..fmt..Error$u20$as$u20$core..fmt..Debug$GT$3fmt17h03dc662ab152f3aeE', symObjAddr: 0x71A0, symBinAddr: 0xD9810, symSize: 0x20 }
  - { offsetInCU: 0x2C59B, offset: 0x475D1E, size: 0x8, addend: 0x0, symName: __ZN3syn4expr7parsing32parse_with_earlier_boundary_rule17h04da014a226fbbe5E, symObjAddr: 0x73A0, symBinAddr: 0xD9A10, symSize: 0x1430 }
  - { offsetInCU: 0x2E8D5, offset: 0x478058, size: 0x8, addend: 0x0, symName: __ZN3syn4expr7parsing14can_begin_expr17h4653549300b8351bE, symObjAddr: 0x87D0, symBinAddr: 0xDAE40, symSize: 0x370 }
  - { offsetInCU: 0x2FA04, offset: 0x479187, size: 0x8, addend: 0x0, symName: __ZN3syn4expr7parsing10parse_expr17he948d695e5f3d52eE.llvm.15963643447187171253, symObjAddr: 0x8B40, symBinAddr: 0xDB1B0, symSize: 0x1330 }
  - { offsetInCU: 0x3282E, offset: 0x47BFB1, size: 0x8, addend: 0x0, symName: __ZN3syn4expr7parsing15parse_binop_rhs17h6b864ca016112671E, symObjAddr: 0x9E70, symBinAddr: 0xDC4E0, symSize: 0x4E0 }
  - { offsetInCU: 0x3331A, offset: 0x47CA9D, size: 0x8, addend: 0x0, symName: __ZN3syn4expr7parsing14ambiguous_expr17h5b5bba9c148d94dbE, symObjAddr: 0xA350, symBinAddr: 0xDC9C0, symSize: 0xF0 }
  - { offsetInCU: 0x3339D, offset: 0x47CB20, size: 0x8, addend: 0x0, symName: __ZN3syn4expr7parsing10expr_attrs17h79ae24352e9d9d57E, symObjAddr: 0xA440, symBinAddr: 0xDCAB0, symSize: 0x250 }
  - { offsetInCU: 0x33905, offset: 0x47D088, size: 0x8, addend: 0x0, symName: __ZN3syn4expr7parsing10unary_expr17h1634cdc87bf326dfE, symObjAddr: 0xA690, symBinAddr: 0xDCD00, symSize: 0x7C0 }
  - { offsetInCU: 0x34B9C, offset: 0x47E31F, size: 0x8, addend: 0x0, symName: __ZN3syn4expr7parsing12trailer_expr17hd6c52758b73443cfE, symObjAddr: 0xAE50, symBinAddr: 0xDD4C0, symSize: 0x1830 }
  - { offsetInCU: 0x385A7, offset: 0x481D2A, size: 0x8, addend: 0x0, symName: __ZN3syn4expr7parsing14trailer_helper17h681119187c5a546dE, symObjAddr: 0xC680, symBinAddr: 0xDECF0, symSize: 0x1F80 }
  - { offsetInCU: 0x3C809, offset: 0x485F8C, size: 0x8, addend: 0x0, symName: __ZN3syn4expr7parsing12atom_labeled17h4604f459baf45e1eE, symObjAddr: 0xE600, symBinAddr: 0xE0C70, symSize: 0x590 }
  - { offsetInCU: 0x3D108, offset: 0x48688B, size: 0x8, addend: 0x0, symName: __ZN3syn4expr7parsing12expr_builtin17h8b5ff5122f88b230E, symObjAddr: 0xEB90, symBinAddr: 0xE1200, symSize: 0x410 }
  - { offsetInCU: 0x3DD34, offset: 0x4874B7, size: 0x8, addend: 0x0, symName: __ZN3syn4expr7parsing23path_or_macro_or_struct17he515cb28f35d860eE, symObjAddr: 0xEFA0, symBinAddr: 0xE1610, symSize: 0x130 }
  - { offsetInCU: 0x3DDF0, offset: 0x487573, size: 0x8, addend: 0x0, symName: __ZN3syn4expr7parsing31rest_of_path_or_macro_or_struct17hab8b11d447eb17cdE, symObjAddr: 0xF0D0, symBinAddr: 0xE1740, symSize: 0x3D0 }
  - { offsetInCU: 0x3E566, offset: 0x487CE9, size: 0x8, addend: 0x0, symName: __ZN3syn4expr7parsing14paren_or_tuple17hca3957091eeb9c50E, symObjAddr: 0xF4A0, symBinAddr: 0xE1B10, symSize: 0x780 }
  - { offsetInCU: 0x3EEB5, offset: 0x488638, size: 0x8, addend: 0x0, symName: __ZN3syn4expr7parsing15array_or_repeat17h7503a4cc2fc5aa31E, symObjAddr: 0xFC20, symBinAddr: 0xE2290, symSize: 0x950 }
  - { offsetInCU: 0x3FA65, offset: 0x4891E8, size: 0x8, addend: 0x0, symName: __ZN3syn4expr7parsing10expr_group17ha2f3b33138d5864cE, symObjAddr: 0x10570, symBinAddr: 0xE2BE0, symSize: 0x870 }
  - { offsetInCU: 0x405E0, offset: 0x489D63, size: 0x8, addend: 0x0, symName: __ZN3syn4expr7parsing8expr_let17hf863f328b939742fE, symObjAddr: 0x10FC0, symBinAddr: 0xE3450, symSize: 0x570 }
  - { offsetInCU: 0x40F40, offset: 0x48A6C3, size: 0x8, addend: 0x0, symName: __ZN3syn4expr7parsing10expr_unary17h1d4eb12bbc8abbd2E, symObjAddr: 0x11530, symBinAddr: 0xE39C0, symSize: 0x2D0 }
  - { offsetInCU: 0x41518, offset: 0x48AC9B, size: 0x8, addend: 0x0, symName: __ZN3syn4expr7parsing12expr_closure17h4e49f531e43f650cE, symObjAddr: 0x11800, symBinAddr: 0xE3C90, symSize: 0x1580 }
  - { offsetInCU: 0x4319D, offset: 0x48C920, size: 0x8, addend: 0x0, symName: __ZN3syn4expr7parsing10expr_break17h3ba483e8fdc57f87E, symObjAddr: 0x12D80, symBinAddr: 0xE5210, symSize: 0x720 }
  - { offsetInCU: 0x44226, offset: 0x48D9A9, size: 0x8, addend: 0x0, symName: __ZN3syn4expr7parsing18expr_struct_helper17h62f8c2fd9c8d9ae6E, symObjAddr: 0x134A0, symBinAddr: 0xE5930, symSize: 0x980 }
  - { offsetInCU: 0x45163, offset: 0x48E8E6, size: 0x8, addend: 0x0, symName: __ZN3syn4expr7parsing10expr_range17h3255a6ff02803bdbE, symObjAddr: 0x13E20, symBinAddr: 0xE62B0, symSize: 0xF0 }
  - { offsetInCU: 0x45323, offset: 0x48EAA6, size: 0x8, addend: 0x0, symName: __ZN3syn4expr7parsing15parse_range_end17hbd7fe95ed93f48b3E, symObjAddr: 0x13F10, symBinAddr: 0xE63A0, symSize: 0x11D }
  - { offsetInCU: 0x1E, offset: 0x4A129D, size: 0x8, addend: 0x0, symName: __ZN5alloc7raw_vec11finish_grow17h5993caaa74c4fbdfE.llvm.8028830779895567672, symObjAddr: 0x0, symBinAddr: 0xE64C0, symSize: 0xA0 }
  - { offsetInCU: 0x6BCA, offset: 0x4A7E49, size: 0x8, addend: 0x0, symName: __ZN5alloc7raw_vec11finish_grow17h5993caaa74c4fbdfE.llvm.8028830779895567672, symObjAddr: 0x0, symBinAddr: 0xE64C0, symSize: 0xA0 }
  - { offsetInCU: 0x8A73, offset: 0x4A9CF2, size: 0x8, addend: 0x0, symName: '__ZN5alloc7raw_vec19RawVec$LT$T$C$A$GT$7reserve21do_reserve_and_handle17h1257c9ee09466061E', symObjAddr: 0x1330, symBinAddr: 0x232200, symSize: 0xA0 }
  - { offsetInCU: 0x8D71, offset: 0x4A9FF0, size: 0x8, addend: 0x0, symName: '__ZN5alloc7raw_vec19RawVec$LT$T$C$A$GT$7reserve21do_reserve_and_handle17h30f192da7d596089E', symObjAddr: 0x13D0, symBinAddr: 0x2322A0, symSize: 0xB0 }
  - { offsetInCU: 0x90A3, offset: 0x4AA322, size: 0x8, addend: 0x0, symName: '__ZN5alloc7raw_vec19RawVec$LT$T$C$A$GT$7reserve21do_reserve_and_handle17h7bcc278903fa73cdE', symObjAddr: 0x1480, symBinAddr: 0x232350, symSize: 0xB0 }
  - { offsetInCU: 0x93D5, offset: 0x4AA654, size: 0x8, addend: 0x0, symName: '__ZN5alloc7raw_vec19RawVec$LT$T$C$A$GT$7reserve21do_reserve_and_handle17h96ca4a18a0a3ddafE', symObjAddr: 0x15F0, symBinAddr: 0x232400, symSize: 0xB0 }
  - { offsetInCU: 0x9709, offset: 0x4AA988, size: 0x8, addend: 0x0, symName: '__ZN5alloc7raw_vec19RawVec$LT$T$C$A$GT$7reserve21do_reserve_and_handle17hbb3a7e81495482abE', symObjAddr: 0x16A0, symBinAddr: 0x2324B0, symSize: 0xB0 }
  - { offsetInCU: 0x9A3B, offset: 0x4AACBA, size: 0x8, addend: 0x0, symName: '__ZN5alloc7raw_vec19RawVec$LT$T$C$A$GT$7reserve21do_reserve_and_handle17hccb0e22338161cc6E', symObjAddr: 0x1750, symBinAddr: 0x232560, symSize: 0xC0 }
  - { offsetInCU: 0x106F5, offset: 0x4B1974, size: 0x8, addend: 0x0, symName: '__ZN5alloc7raw_vec19RawVec$LT$T$C$A$GT$8grow_one17h095fa3667201f4f8E', symObjAddr: 0x1810, symBinAddr: 0xE6560, symSize: 0xC0 }
  - { offsetInCU: 0x10BCB, offset: 0x4B1E4A, size: 0x8, addend: 0x0, symName: '__ZN5alloc7raw_vec19RawVec$LT$T$C$A$GT$8grow_one17h17381682e7253ec7E', symObjAddr: 0x18D0, symBinAddr: 0xE6620, symSize: 0xC0 }
  - { offsetInCU: 0x110A1, offset: 0x4B2320, size: 0x8, addend: 0x0, symName: '__ZN5alloc7raw_vec19RawVec$LT$T$C$A$GT$8grow_one17h248c03912984705cE', symObjAddr: 0x1990, symBinAddr: 0xE66E0, symSize: 0xB0 }
  - { offsetInCU: 0x11577, offset: 0x4B27F6, size: 0x8, addend: 0x0, symName: '__ZN5alloc7raw_vec19RawVec$LT$T$C$A$GT$8grow_one17h3075326c15ed7061E', symObjAddr: 0x1A40, symBinAddr: 0xE6790, symSize: 0x0 }
  - { offsetInCU: 0x11A4F, offset: 0x4B2CCE, size: 0x8, addend: 0x0, symName: '__ZN5alloc7raw_vec19RawVec$LT$T$C$A$GT$8grow_one17h313fd240ac0cecb3E', symObjAddr: 0x1B00, symBinAddr: 0xE6850, symSize: 0x0 }
  - { offsetInCU: 0x11F25, offset: 0x4B31A4, size: 0x8, addend: 0x0, symName: '__ZN5alloc7raw_vec19RawVec$LT$T$C$A$GT$8grow_one17h32f85f1d3098de7dE', symObjAddr: 0x1BC0, symBinAddr: 0xE6910, symSize: 0x0 }
  - { offsetInCU: 0x12391, offset: 0x4B3610, size: 0x8, addend: 0x0, symName: '__ZN5alloc7raw_vec19RawVec$LT$T$C$A$GT$8grow_one17h46224c298c9c9296E', symObjAddr: 0x1C80, symBinAddr: 0xE69D0, symSize: 0x0 }
  - { offsetInCU: 0x12865, offset: 0x4B3AE4, size: 0x8, addend: 0x0, symName: '__ZN5alloc7raw_vec19RawVec$LT$T$C$A$GT$8grow_one17h5a605c90d00a8a39E', symObjAddr: 0x1D30, symBinAddr: 0xE6A80, symSize: 0xC0 }
  - { offsetInCU: 0x12D3B, offset: 0x4B3FBA, size: 0x8, addend: 0x0, symName: '__ZN5alloc7raw_vec19RawVec$LT$T$C$A$GT$8grow_one17h718e5b8a06d845cbE', symObjAddr: 0x1DF0, symBinAddr: 0xE6B40, symSize: 0xC0 }
  - { offsetInCU: 0x13082, offset: 0x4B4301, size: 0x8, addend: 0x0, symName: '__ZN5alloc7raw_vec19RawVec$LT$T$C$A$GT$8grow_one17h72dabde20a137b04E', symObjAddr: 0x1EB0, symBinAddr: 0xE6C00, symSize: 0xB0 }
  - { offsetInCU: 0x13556, offset: 0x4B47D5, size: 0x8, addend: 0x0, symName: '__ZN5alloc7raw_vec19RawVec$LT$T$C$A$GT$8grow_one17h7c2c58db67a15848E', symObjAddr: 0x1F60, symBinAddr: 0xE6CB0, symSize: 0x0 }
  - { offsetInCU: 0x13A2C, offset: 0x4B4CAB, size: 0x8, addend: 0x0, symName: '__ZN5alloc7raw_vec19RawVec$LT$T$C$A$GT$8grow_one17h7d9544ea3e76eae9E', symObjAddr: 0x2020, symBinAddr: 0xE6D70, symSize: 0xC0 }
  - { offsetInCU: 0x13F02, offset: 0x4B5181, size: 0x8, addend: 0x0, symName: '__ZN5alloc7raw_vec19RawVec$LT$T$C$A$GT$8grow_one17h82b0804d651d4ef5E', symObjAddr: 0x20E0, symBinAddr: 0xE6E30, symSize: 0xC0 }
  - { offsetInCU: 0x14405, offset: 0x4B5684, size: 0x8, addend: 0x0, symName: '__ZN5alloc7raw_vec19RawVec$LT$T$C$A$GT$8grow_one17h85907f27c23a559bE', symObjAddr: 0x21A0, symBinAddr: 0xE6EF0, symSize: 0xB0 }
  - { offsetInCU: 0x148D9, offset: 0x4B5B58, size: 0x8, addend: 0x0, symName: '__ZN5alloc7raw_vec19RawVec$LT$T$C$A$GT$8grow_one17ha5852730cd02935bE', symObjAddr: 0x2250, symBinAddr: 0xE6FA0, symSize: 0x0 }
  - { offsetInCU: 0x14DAF, offset: 0x4B602E, size: 0x8, addend: 0x0, symName: '__ZN5alloc7raw_vec19RawVec$LT$T$C$A$GT$8grow_one17hb30077ec058bafdfE', symObjAddr: 0x2310, symBinAddr: 0xE7060, symSize: 0xB0 }
  - { offsetInCU: 0x15283, offset: 0x4B6502, size: 0x8, addend: 0x0, symName: '__ZN5alloc7raw_vec19RawVec$LT$T$C$A$GT$8grow_one17hc0723e4af934b43eE', symObjAddr: 0x23C0, symBinAddr: 0xE7110, symSize: 0xC0 }
  - { offsetInCU: 0x155CC, offset: 0x4B684B, size: 0x8, addend: 0x0, symName: '__ZN5alloc7raw_vec19RawVec$LT$T$C$A$GT$8grow_one17hc9702e9ac871cd96E', symObjAddr: 0x2480, symBinAddr: 0xE71D0, symSize: 0xB0 }
  - { offsetInCU: 0x15AA2, offset: 0x4B6D21, size: 0x8, addend: 0x0, symName: '__ZN5alloc7raw_vec19RawVec$LT$T$C$A$GT$8grow_one17hcf254d991fef210fE', symObjAddr: 0x2530, symBinAddr: 0xE7280, symSize: 0xC0 }
  - { offsetInCU: 0x15F78, offset: 0x4B71F7, size: 0x8, addend: 0x0, symName: '__ZN5alloc7raw_vec19RawVec$LT$T$C$A$GT$8grow_one17hd89eb202b8db7e1aE', symObjAddr: 0x25F0, symBinAddr: 0xE7340, symSize: 0xC0 }
  - { offsetInCU: 0x162C1, offset: 0x4B7540, size: 0x8, addend: 0x0, symName: '__ZN5alloc7raw_vec19RawVec$LT$T$C$A$GT$8grow_one17hdb610d4d82b2394dE', symObjAddr: 0x26B0, symBinAddr: 0xE7400, symSize: 0xA0 }
  - { offsetInCU: 0x16757, offset: 0x4B79D6, size: 0x8, addend: 0x0, symName: '__ZN5alloc7raw_vec19RawVec$LT$T$C$A$GT$8grow_one17hdc14d76226baa6aaE', symObjAddr: 0x2750, symBinAddr: 0xE74A0, symSize: 0xC0 }
  - { offsetInCU: 0x16C2D, offset: 0x4B7EAC, size: 0x8, addend: 0x0, symName: '__ZN5alloc7raw_vec19RawVec$LT$T$C$A$GT$8grow_one17hfb0e72b592d7c1fcE', symObjAddr: 0x2810, symBinAddr: 0xE7560, symSize: 0xC0 }
  - { offsetInCU: 0x1E, offset: 0x4B8261, size: 0x8, addend: 0x0, symName: '__ZN4core3ptr100drop_in_place$LT$core..option..Option$LT$alloc..boxed..Box$LT$syn..path..GenericArgument$GT$$GT$$GT$17h3a7c44b9e57fe410E', symObjAddr: 0x0, symBinAddr: 0xE7620, symSize: 0x50 }
  - { offsetInCU: 0x1A4F, offset: 0x4B9C92, size: 0x8, addend: 0x0, symName: '__ZN4core3ptr100drop_in_place$LT$core..option..Option$LT$alloc..boxed..Box$LT$syn..path..GenericArgument$GT$$GT$$GT$17h3a7c44b9e57fe410E', symObjAddr: 0x0, symBinAddr: 0xE7620, symSize: 0x50 }
  - { offsetInCU: 0x1C1C, offset: 0x4B9E5F, size: 0x8, addend: 0x0, symName: '__ZN4core3ptr102drop_in_place$LT$syn..punctuated..Punctuated$LT$syn..path..GenericArgument$C$syn..token..Comma$GT$$GT$17h8b1978399cfff48bE', symObjAddr: 0x50, symBinAddr: 0xE7670, symSize: 0xF0 }
  - { offsetInCU: 0x1F3C, offset: 0x4BA17F, size: 0x8, addend: 0x0, symName: '__ZN4core3ptr103drop_in_place$LT$core..option..Option$LT$alloc..boxed..Box$LT$syn..generics..TypeParamBound$GT$$GT$$GT$17hb14e4384a768542bE', symObjAddr: 0x140, symBinAddr: 0xE7760, symSize: 0x50 }
  - { offsetInCU: 0x2201, offset: 0x4BA444, size: 0x8, addend: 0x0, symName: '__ZN4core3ptr103drop_in_place$LT$core..option..Option$LT$alloc..boxed..Box$LT$syn..generics..WherePredicate$GT$$GT$$GT$17he190813f4819c5dbE', symObjAddr: 0x190, symBinAddr: 0xE77B0, symSize: 0xD0 }
  - { offsetInCU: 0x2595, offset: 0x4BA7D8, size: 0x8, addend: 0x0, symName: '__ZN4core3ptr103drop_in_place$LT$syn..punctuated..Punctuated$LT$syn..generics..GenericParam$C$syn..token..Comma$GT$$GT$17h0c6077a988036760E', symObjAddr: 0x260, symBinAddr: 0xE7880, symSize: 0xF0 }
  - { offsetInCU: 0x2A90, offset: 0x4BACD3, size: 0x8, addend: 0x0, symName: '__ZN4core3ptr104drop_in_place$LT$syn..punctuated..Punctuated$LT$syn..generics..TypeParamBound$C$syn..token..Plus$GT$$GT$17h724e4d9d1d65061aE', symObjAddr: 0x350, symBinAddr: 0xE7970, symSize: 0x260 }
  - { offsetInCU: 0x345E, offset: 0x4BB6A1, size: 0x8, addend: 0x0, symName: '__ZN4core3ptr115drop_in_place$LT$core..option..Option$LT$$LP$alloc..boxed..Box$LT$syn..pat..Pat$GT$$C$syn..token..Colon$RP$$GT$$GT$17h787822396d5dcd7bE', symObjAddr: 0x5B0, symBinAddr: 0xE7BD0, symSize: 0x50 }
  - { offsetInCU: 0x362C, offset: 0x4BB86F, size: 0x8, addend: 0x0, symName: '__ZN4core3ptr115drop_in_place$LT$core..option..Option$LT$$LP$syn..token..Brace$C$alloc..vec..Vec$LT$syn..item..Item$GT$$RP$$GT$$GT$17h4f61046186bbd7c9E', symObjAddr: 0x600, symBinAddr: 0xE7C20, symSize: 0xD0 }
  - { offsetInCU: 0x3943, offset: 0x4BBB86, size: 0x8, addend: 0x0, symName: '__ZN4core3ptr126drop_in_place$LT$core..option..Option$LT$$LP$syn..token..And$C$core..option..Option$LT$syn..lifetime..Lifetime$GT$$RP$$GT$$GT$17h45c5d73e12cdf6f0E', symObjAddr: 0x6D0, symBinAddr: 0xE7CF0, symSize: 0x30 }
  - { offsetInCU: 0x3B56, offset: 0x4BBD99, size: 0x8, addend: 0x0, symName: '__ZN4core3ptr34drop_in_place$LT$syn..lit..Lit$GT$17hd64dde89a262341dE', symObjAddr: 0x700, symBinAddr: 0xE7D20, symSize: 0x120 }
  - { offsetInCU: 0x4025, offset: 0x4BC268, size: 0x8, addend: 0x0, symName: '__ZN4core3ptr34drop_in_place$LT$syn..pat..Pat$GT$17hf88887878261d63cE', symObjAddr: 0x820, symBinAddr: 0xE7E40, symSize: 0xF70 }
  - { offsetInCU: 0x7F1F, offset: 0x4C0162, size: 0x8, addend: 0x0, symName: '__ZN4core3ptr34drop_in_place$LT$syn..ty..Type$GT$17ha80dd29b0f9d4a3fE', symObjAddr: 0x1790, symBinAddr: 0xE8DB0, symSize: 0x5A0 }
  - { offsetInCU: 0x98BB, offset: 0x4C1AFE, size: 0x8, addend: 0x0, symName: '__ZN4core3ptr36drop_in_place$LT$syn..expr..Expr$GT$17h10f573b40ddd212cE', symObjAddr: 0x1D30, symBinAddr: 0xE9350, symSize: 0x2760 }
  - { offsetInCU: 0x139D0, offset: 0x4CBC13, size: 0x8, addend: 0x0, symName: '__ZN4core3ptr36drop_in_place$LT$syn..item..Item$GT$17haa59cf9e39ab8cebE', symObjAddr: 0x4490, symBinAddr: 0xEBAB0, symSize: 0x17C0 }
  - { offsetInCU: 0x195DF, offset: 0x4D1822, size: 0x8, addend: 0x0, symName: '__ZN4core3ptr36drop_in_place$LT$syn..mac..Macro$GT$17hc3b30a7a8a34cc2dE', symObjAddr: 0x5C50, symBinAddr: 0xED270, symSize: 0x110 }
  - { offsetInCU: 0x19A7C, offset: 0x4D1CBF, size: 0x8, addend: 0x0, symName: '__ZN4core3ptr36drop_in_place$LT$syn..path..Path$GT$17h75c74a97d5f0a03bE', symObjAddr: 0x5D60, symBinAddr: 0xED380, symSize: 0x280 }
  - { offsetInCU: 0x1A529, offset: 0x4D276C, size: 0x8, addend: 0x0, symName: '__ZN4core3ptr37drop_in_place$LT$syn..item..FnArg$GT$17h470fdeee5cba5e3aE', symObjAddr: 0x5FE0, symBinAddr: 0xED600, symSize: 0x160 }
  - { offsetInCU: 0x1AB08, offset: 0x4D2D4B, size: 0x8, addend: 0x0, symName: '__ZN4core3ptr37drop_in_place$LT$syn..stmt..Block$GT$17h6fc3254d5688f2c3E', symObjAddr: 0x6140, symBinAddr: 0xED760, symSize: 0xD0 }
  - { offsetInCU: 0x1ADFE, offset: 0x4D3041, size: 0x8, addend: 0x0, symName: '__ZN4core3ptr38drop_in_place$LT$syn..data..Fields$GT$17h79840861dd1f691dE', symObjAddr: 0x6210, symBinAddr: 0xED830, symSize: 0x190 }
  - { offsetInCU: 0x1B248, offset: 0x4D348B, size: 0x8, addend: 0x0, symName: '__ZN4core3ptr38drop_in_place$LT$syn..expr..Member$GT$17h6b0cf84594ce6bceE', symObjAddr: 0x63A0, symBinAddr: 0xED9C0, symSize: 0x30 }
  - { offsetInCU: 0x1B344, offset: 0x4D3587, size: 0x8, addend: 0x0, symName: '__ZN4core3ptr39drop_in_place$LT$proc_macro2..Ident$GT$17ha28fef9769e267d9E', symObjAddr: 0x63D0, symBinAddr: 0xED9F0, symSize: 0x30 }
  - { offsetInCU: 0x1B49D, offset: 0x4D36E0, size: 0x8, addend: 0x0, symName: '__ZN4core3ptr39drop_in_place$LT$syn..item..UseTree$GT$17h7288572c631f954aE', symObjAddr: 0x6400, symBinAddr: 0xEDA20, symSize: 0xE0 }
  - { offsetInCU: 0x1B844, offset: 0x4D3A87, size: 0x8, addend: 0x0, symName: '__ZN4core3ptr39drop_in_place$LT$syn..ty..TypeGroup$GT$17hf74b5ab2edcb931fE', symObjAddr: 0x64E0, symBinAddr: 0xEDB00, symSize: 0x50 }
  - { offsetInCU: 0x1BA2B, offset: 0x4D3C6E, size: 0x8, addend: 0x0, symName: '__ZN4core3ptr40drop_in_place$LT$syn..item..ImplItem$GT$17h98907b2080b0ccb0E', symObjAddr: 0x6530, symBinAddr: 0xEDB50, symSize: 0x6E0 }
  - { offsetInCU: 0x1CF9C, offset: 0x4D51DF, size: 0x8, addend: 0x0, symName: '__ZN4core3ptr40drop_in_place$LT$syn..item..ItemImpl$GT$17h2e9f0b01a7977a55E', symObjAddr: 0x6C10, symBinAddr: 0xEE230, symSize: 0x1E0 }
  - { offsetInCU: 0x1D75C, offset: 0x4D599F, size: 0x8, addend: 0x0, symName: '__ZN4core3ptr40drop_in_place$LT$syn..item..Receiver$GT$17h5e68a437c3b8e574E', symObjAddr: 0x6DF0, symBinAddr: 0xEE410, symSize: 0x130 }
  - { offsetInCU: 0x1DD47, offset: 0x4D5F8A, size: 0x8, addend: 0x0, symName: '__ZN4core3ptr40drop_in_place$LT$syn..item..Variadic$GT$17hf9d4ebdb0f5e723aE', symObjAddr: 0x6F20, symBinAddr: 0xEE540, symSize: 0x110 }
  - { offsetInCU: 0x1E1C3, offset: 0x4D6406, size: 0x8, addend: 0x0, symName: '__ZN4core3ptr40drop_in_place$LT$syn..ty..ReturnType$GT$17h035a612e322b6510E', symObjAddr: 0x7030, symBinAddr: 0xEE650, symSize: 0x50 }
  - { offsetInCU: 0x1E333, offset: 0x4D6576, size: 0x8, addend: 0x0, symName: '__ZN4core3ptr41drop_in_place$LT$syn..expr..ExprConst$GT$17hbfe19d5d621e6836E', symObjAddr: 0x7080, symBinAddr: 0xEE6A0, symSize: 0x180 }
  - { offsetInCU: 0x1E93F, offset: 0x4D6B82, size: 0x8, addend: 0x0, symName: '__ZN4core3ptr41drop_in_place$LT$syn..item..Signature$GT$17h41f785211ad8eb02E', symObjAddr: 0x7200, symBinAddr: 0xEE820, symSize: 0x180 }
  - { offsetInCU: 0x1F01F, offset: 0x4D7262, size: 0x8, addend: 0x0, symName: '__ZN4core3ptr41drop_in_place$LT$syn..item..TraitItem$GT$17hc74edaa948c160a2E', symObjAddr: 0x7380, symBinAddr: 0xEE9A0, symSize: 0x5E0 }
  - { offsetInCU: 0x201DB, offset: 0x4D841E, size: 0x8, addend: 0x0, symName: '__ZN4core3ptr43drop_in_place$LT$syn..data..FieldsNamed$GT$17h56bef6f151514865E', symObjAddr: 0x7960, symBinAddr: 0xEEF80, symSize: 0xE0 }
  - { offsetInCU: 0x20501, offset: 0x4D8744, size: 0x8, addend: 0x0, symName: '__ZN4core3ptr44drop_in_place$LT$syn..generics..Generics$GT$17h671de917167f8b66E', symObjAddr: 0x7A40, symBinAddr: 0xEF060, symSize: 0x40 }
  - { offsetInCU: 0x2051E, offset: 0x4D8761, size: 0x8, addend: 0x0, symName: '__ZN4core3ptr44drop_in_place$LT$syn..lifetime..Lifetime$GT$17he37fa474f03de7b1E', symObjAddr: 0x7A80, symBinAddr: 0xEF0A0, symSize: 0x30 }
  - { offsetInCU: 0x20696, offset: 0x4D88D9, size: 0x8, addend: 0x0, symName: '__ZN4core3ptr44drop_in_place$LT$syn..parse..ParseBuffer$GT$17hf792ff20095efc35E', symObjAddr: 0x7AB0, symBinAddr: 0xEF0D0, symSize: 0x70 }
  - { offsetInCU: 0x20AAD, offset: 0x4D8CF0, size: 0x8, addend: 0x0, symName: '__ZN4core3ptr45drop_in_place$LT$proc_macro2..TokenStream$GT$17h76e8e68015f4924dE', symObjAddr: 0x7B20, symBinAddr: 0xEF140, symSize: 0x140 }
  - { offsetInCU: 0x20F47, offset: 0x4D918A, size: 0x8, addend: 0x0, symName: '__ZN4core3ptr45drop_in_place$LT$syn..generics..TypeParam$GT$17h188a459c1380ac75E', symObjAddr: 0x7C60, symBinAddr: 0xEF280, symSize: 0x230 }
  - { offsetInCU: 0x217BC, offset: 0x4D99FF, size: 0x8, addend: 0x0, symName: '__ZN4core3ptr46drop_in_place$LT$syn..generics..ConstParam$GT$17h7a9b900b2b88bfcdE', symObjAddr: 0x7E90, symBinAddr: 0xEF4B0, symSize: 0x150 }
  - { offsetInCU: 0x21C3D, offset: 0x4D9E80, size: 0x8, addend: 0x0, symName: '__ZN4core3ptr47drop_in_place$LT$syn..path..GenericArgument$GT$17h593f06d6ca9a94d2E', symObjAddr: 0x7FE0, symBinAddr: 0xEF600, symSize: 0x450 }
  - { offsetInCU: 0x229B3, offset: 0x4DABF6, size: 0x8, addend: 0x0, symName: '__ZN4core3ptr49drop_in_place$LT$syn..generics..LifetimeParam$GT$17h3a8835ab294bfd16E', symObjAddr: 0x8430, symBinAddr: 0xEFA50, symSize: 0xF0 }
  - { offsetInCU: 0x22DCA, offset: 0x4DB00D, size: 0x8, addend: 0x0, symName: '__ZN4core3ptr49drop_in_place$LT$syn..restriction..Visibility$GT$17h3e52b998838defb1E', symObjAddr: 0x8520, symBinAddr: 0xEFB40, symSize: 0x60 }
  - { offsetInCU: 0x22F3B, offset: 0x4DB17E, size: 0x8, addend: 0x0, symName: '__ZN4core3ptr50drop_in_place$LT$syn..generics..TypeParamBound$GT$17h81b4325b5900604dE', symObjAddr: 0x8580, symBinAddr: 0xEFBA0, symSize: 0xA0 }
  - { offsetInCU: 0x230A1, offset: 0x4DB2E4, size: 0x8, addend: 0x0, symName: '__ZN4core3ptr58drop_in_place$LT$alloc..vec..Vec$LT$syn..expr..Arm$GT$$GT$17hff9224aadf2233b8E', symObjAddr: 0x8620, symBinAddr: 0xEFC40, symSize: 0xD0 }
  - { offsetInCU: 0x23361, offset: 0x4DB5A4, size: 0x8, addend: 0x0, symName: '__ZN4core3ptr59drop_in_place$LT$alloc..boxed..Box$LT$syn..pat..Pat$GT$$GT$17h622b0c1db21c0742E', symObjAddr: 0x86F0, symBinAddr: 0xEFD10, symSize: 0x50 }
  - { offsetInCU: 0x234BA, offset: 0x4DB6FD, size: 0x8, addend: 0x0, symName: '__ZN4core3ptr59drop_in_place$LT$alloc..boxed..Box$LT$syn..ty..Type$GT$$GT$17hde45fa887dd8b605E', symObjAddr: 0x8740, symBinAddr: 0xEFD60, symSize: 0x50 }
  - { offsetInCU: 0x23613, offset: 0x4DB856, size: 0x8, addend: 0x0, symName: '__ZN4core3ptr61drop_in_place$LT$alloc..boxed..Box$LT$syn..expr..Expr$GT$$GT$17hbb42293869113942E', symObjAddr: 0x8790, symBinAddr: 0xEFDB0, symSize: 0x50 }
  - { offsetInCU: 0x2376C, offset: 0x4DB9AF, size: 0x8, addend: 0x0, symName: '__ZN4core3ptr61drop_in_place$LT$syn..path..ParenthesizedGenericArguments$GT$17h6b1731382637937fE', symObjAddr: 0x87E0, symBinAddr: 0xEFE00, symSize: 0x170 }
  - { offsetInCU: 0x23D75, offset: 0x4DBFB8, size: 0x8, addend: 0x0, symName: '__ZN4core3ptr62drop_in_place$LT$alloc..boxed..Box$LT$syn..stmt..Block$GT$$GT$17h21dcb5adf0237a12E', symObjAddr: 0x8950, symBinAddr: 0xEFF70, symSize: 0xE0 }
  - { offsetInCU: 0x24183, offset: 0x4DC3C6, size: 0x8, addend: 0x0, symName: '__ZN4core3ptr63drop_in_place$LT$alloc..boxed..Box$LT$syn..lit..LitRepr$GT$$GT$17h6e3a82ea4de7b84cE', symObjAddr: 0x8A30, symBinAddr: 0xF0050, symSize: 0x60 }
  - { offsetInCU: 0x2444C, offset: 0x4DC68F, size: 0x8, addend: 0x0, symName: '__ZN4core3ptr63drop_in_place$LT$alloc..vec..Vec$LT$syn..item..ImplItem$GT$$GT$17hc51fca07e67d35aeE', symObjAddr: 0x8A90, symBinAddr: 0xF00B0, symSize: 0x80 }
  - { offsetInCU: 0x24723, offset: 0x4DC966, size: 0x8, addend: 0x0, symName: '__ZN4core3ptr64drop_in_place$LT$alloc..boxed..Box$LT$syn..item..UseTree$GT$$GT$17he4d7024582150632E', symObjAddr: 0x8B10, symBinAddr: 0xF0130, symSize: 0xF0 }
  - { offsetInCU: 0x24C3E, offset: 0x4DCE81, size: 0x8, addend: 0x0, symName: '__ZN4core3ptr64drop_in_place$LT$alloc..boxed..Box$LT$syn..pat..FieldPat$GT$$GT$17hbf8f4867d84bd25dE', symObjAddr: 0x8C00, symBinAddr: 0xF0220, symSize: 0x140 }
  - { offsetInCU: 0x2533F, offset: 0x4DD582, size: 0x8, addend: 0x0, symName: '__ZN4core3ptr64drop_in_place$LT$alloc..boxed..Box$LT$syn..ty..BareFnArg$GT$$GT$17h6be6354eb1d1364dE', symObjAddr: 0x8D40, symBinAddr: 0xF0360, symSize: 0x140 }
  - { offsetInCU: 0x258C8, offset: 0x4DDB0B, size: 0x8, addend: 0x0, symName: '__ZN4core3ptr64drop_in_place$LT$alloc..vec..Vec$LT$syn..attr..Attribute$GT$$GT$17he33e25539d5885aeE', symObjAddr: 0x8E80, symBinAddr: 0xF04A0, symSize: 0xD0 }
  - { offsetInCU: 0x25BBC, offset: 0x4DDDFF, size: 0x8, addend: 0x0, symName: '__ZN4core3ptr64drop_in_place$LT$alloc..vec..Vec$LT$syn..item..TraitItem$GT$$GT$17hff1cc01ccae80d7aE', symObjAddr: 0x8F50, symBinAddr: 0xF0570, symSize: 0x80 }
  - { offsetInCU: 0x25E74, offset: 0x4DE0B7, size: 0x8, addend: 0x0, symName: '__ZN4core3ptr65drop_in_place$LT$alloc..vec..Vec$LT$proc_macro..TokenTree$GT$$GT$17h8abd81f8596dbc59E', symObjAddr: 0x8FD0, symBinAddr: 0xF05F0, symSize: 0x110 }
  - { offsetInCU: 0x2626C, offset: 0x4DE4AF, size: 0x8, addend: 0x0, symName: '__ZN4core3ptr65drop_in_place$LT$core..option..Option$LT$syn..expr..Label$GT$$GT$17hac599686b33ef364E', symObjAddr: 0x90E0, symBinAddr: 0xF0700, symSize: 0x30 }
  - { offsetInCU: 0x263A6, offset: 0x4DE5E9, size: 0x8, addend: 0x0, symName: '__ZN4core3ptr65drop_in_place$LT$core..option..Option$LT$syn..path..QSelf$GT$$GT$17h0b8dd5cda5f2cd6bE', symObjAddr: 0x9110, symBinAddr: 0xF0730, symSize: 0x50 }
  - { offsetInCU: 0x26527, offset: 0x4DE76A, size: 0x8, addend: 0x0, symName: '__ZN4core3ptr65drop_in_place$LT$core..option..Option$LT$syn..stmt..Block$GT$$GT$17h74f2551ed24e2d27E', symObjAddr: 0x9160, symBinAddr: 0xF0780, symSize: 0xD0 }
  - { offsetInCU: 0x267FC, offset: 0x4DEA3F, size: 0x8, addend: 0x0, symName: '__ZN4core3ptr66drop_in_place$LT$alloc..vec..Vec$LT$syn..item..ForeignItem$GT$$GT$17h1f176e04eaf5e0dfE', symObjAddr: 0x9230, symBinAddr: 0xF0850, symSize: 0x80 }
  - { offsetInCU: 0x26AB4, offset: 0x4DECF7, size: 0x8, addend: 0x0, symName: '__ZN4core3ptr66drop_in_place$LT$core..option..Option$LT$syn..pat..PatRest$GT$$GT$17hd5bb3bc28aa78ac1E', symObjAddr: 0x92B0, symBinAddr: 0xF08D0, symSize: 0xE0 }
  - { offsetInCU: 0x26DDC, offset: 0x4DF01F, size: 0x8, addend: 0x0, symName: '__ZN4core3ptr67drop_in_place$LT$alloc..boxed..Box$LT$syn..expr..FieldValue$GT$$GT$17hbbcf67a9d5e9863cE', symObjAddr: 0x9390, symBinAddr: 0xF09B0, symSize: 0x140 }
  - { offsetInCU: 0x27364, offset: 0x4DF5A7, size: 0x8, addend: 0x0, symName: '__ZN4core3ptr70drop_in_place$LT$core..option..Option$LT$syn..ty..BareVariadic$GT$$GT$17h79a19250e9f043b1E', symObjAddr: 0x94D0, symBinAddr: 0xF0AF0, symSize: 0x100 }
  - { offsetInCU: 0x277CF, offset: 0x4DFA12, size: 0x8, addend: 0x0, symName: '__ZN4core3ptr72drop_in_place$LT$alloc..boxed..Box$LT$syn..path..GenericArgument$GT$$GT$17hfd308d374af4273dE', symObjAddr: 0x95D0, symBinAddr: 0xF0BF0, symSize: 0x2B0 }
  - { offsetInCU: 0x281E0, offset: 0x4E0423, size: 0x8, addend: 0x0, symName: '__ZN4core3ptr72drop_in_place$LT$core..option..Option$LT$syn..lifetime..Lifetime$GT$$GT$17h49cce6f02f9c0590E', symObjAddr: 0x9880, symBinAddr: 0xF0EA0, symSize: 0x30 }
  - { offsetInCU: 0x282FB, offset: 0x4E053E, size: 0x8, addend: 0x0, symName: '__ZN4core3ptr73drop_in_place$LT$alloc..boxed..Box$LT$syn..generics..GenericParam$GT$$GT$17ha26d5d145af4b203E', symObjAddr: 0x98B0, symBinAddr: 0xF0ED0, symSize: 0x80 }
  - { offsetInCU: 0x28471, offset: 0x4E06B4, size: 0x8, addend: 0x0, symName: '__ZN4core3ptr75drop_in_place$LT$alloc..boxed..Box$LT$syn..generics..TypeParamBound$GT$$GT$17h129a4e927e5eb81bE', symObjAddr: 0x9930, symBinAddr: 0xF0F50, symSize: 0x1B0 }
  - { offsetInCU: 0x28B8F, offset: 0x4E0DD2, size: 0x8, addend: 0x0, symName: '__ZN4core3ptr75drop_in_place$LT$core..option..Option$LT$syn..generics..WhereClause$GT$$GT$17haaf63f327098cdccE', symObjAddr: 0x9AE0, symBinAddr: 0xF1100, symSize: 0x90 }
  - { offsetInCU: 0x28E83, offset: 0x4E10C6, size: 0x8, addend: 0x0, symName: '__ZN4core3ptr86drop_in_place$LT$syn..punctuated..Punctuated$LT$syn..pat..Pat$C$syn..token..Or$GT$$GT$17h9cc6b5f7b6d3a555E', symObjAddr: 0x9B70, symBinAddr: 0xF1190, symSize: 0x120 }
  - { offsetInCU: 0x292FE, offset: 0x4E1541, size: 0x8, addend: 0x0, symName: '__ZN4core3ptr87drop_in_place$LT$core..option..Option$LT$alloc..boxed..Box$LT$syn..pat..Pat$GT$$GT$$GT$17h51cd48973d96c411E', symObjAddr: 0x9C90, symBinAddr: 0xF12B0, symSize: 0x50 }
  - { offsetInCU: 0x2946E, offset: 0x4E16B1, size: 0x8, addend: 0x0, symName: '__ZN4core3ptr87drop_in_place$LT$core..option..Option$LT$alloc..boxed..Box$LT$syn..ty..Type$GT$$GT$$GT$17h103a25a4a7d7374eE', symObjAddr: 0x9CE0, symBinAddr: 0xF1300, symSize: 0x50 }
  - { offsetInCU: 0x295DE, offset: 0x4E1821, size: 0x8, addend: 0x0, symName: '__ZN4core3ptr89drop_in_place$LT$core..option..Option$LT$alloc..boxed..Box$LT$syn..expr..Expr$GT$$GT$$GT$17h9e02509cb2345d44E', symObjAddr: 0x9D30, symBinAddr: 0xF1350, symSize: 0x50 }
  - { offsetInCU: 0x2978C, offset: 0x4E19CF, size: 0x8, addend: 0x0, symName: '__ZN4core3ptr89drop_in_place$LT$syn..punctuated..Punctuated$LT$syn..pat..Pat$C$syn..token..Comma$GT$$GT$17hd3a83c36827f210aE', symObjAddr: 0x9D80, symBinAddr: 0xF13A0, symSize: 0x120 }
  - { offsetInCU: 0x29C5C, offset: 0x4E1E9F, size: 0x8, addend: 0x0, symName: '__ZN4core3ptr90drop_in_place$LT$core..option..Option$LT$alloc..boxed..Box$LT$syn..data..Field$GT$$GT$$GT$17h9f1aee8cd56c6727E', symObjAddr: 0x9EA0, symBinAddr: 0xF14C0, symSize: 0x1B0 }
  - { offsetInCU: 0x2A34E, offset: 0x4E2591, size: 0x8, addend: 0x0, symName: '__ZN4core3ptr90drop_in_place$LT$core..option..Option$LT$alloc..boxed..Box$LT$syn..item..FnArg$GT$$GT$$GT$17h8635495a730dc0bfE', symObjAddr: 0xA050, symBinAddr: 0xF1670, symSize: 0x50 }
  - { offsetInCU: 0x2A4EF, offset: 0x4E2732, size: 0x8, addend: 0x0, symName: '__ZN4core3ptr91drop_in_place$LT$syn..punctuated..Punctuated$LT$syn..expr..Expr$C$syn..token..Comma$GT$$GT$17h6f261e8f470c81f2E', symObjAddr: 0xA0A0, symBinAddr: 0xF16C0, symSize: 0x120 }
  - { offsetInCU: 0x2A97D, offset: 0x4E2BC0, size: 0x8, addend: 0x0, symName: '__ZN4core3ptr92drop_in_place$LT$core..option..Option$LT$$LP$syn..token..As$C$proc_macro2..Ident$RP$$GT$$GT$17h12a88945917fa9dbE', symObjAddr: 0xA1C0, symBinAddr: 0xF17E0, symSize: 0x30 }
  - { offsetInCU: 0x2AAD6, offset: 0x4E2D19, size: 0x8, addend: 0x0, symName: '__ZN4core3ptr92drop_in_place$LT$core..option..Option$LT$alloc..boxed..Box$LT$syn..data..Variant$GT$$GT$$GT$17hb65f9b5d99f448afE', symObjAddr: 0xA1F0, symBinAddr: 0xF1810, symSize: 0x170 }
  - { offsetInCU: 0x2B102, offset: 0x4E3345, size: 0x8, addend: 0x0, symName: '__ZN4core3ptr92drop_in_place$LT$syn..punctuated..Punctuated$LT$syn..item..FnArg$C$syn..token..Comma$GT$$GT$17h7de33e77eabaea82E', symObjAddr: 0xA360, symBinAddr: 0xF1980, symSize: 0x130 }
  - { offsetInCU: 0x2B568, offset: 0x4E37AB, size: 0x8, addend: 0x0, symName: '__ZN4core3ptr94drop_in_place$LT$syn..punctuated..Punctuated$LT$syn..data..Variant$C$syn..token..Comma$GT$$GT$17h310cd79aba4529ccE', symObjAddr: 0xA490, symBinAddr: 0xF1AB0, symSize: 0xE0 }
  - { offsetInCU: 0x2B8C8, offset: 0x4E3B0B, size: 0x8, addend: 0x0, symName: '__ZN4core3ptr94drop_in_place$LT$syn..punctuated..Punctuated$LT$syn..item..UseTree$C$syn..token..Comma$GT$$GT$17h6236871345889df7E', symObjAddr: 0xA570, symBinAddr: 0xF1B90, symSize: 0xF0 }
  - { offsetInCU: 0x2BC0E, offset: 0x4E3E51, size: 0x8, addend: 0x0, symName: '__ZN4core3ptr94drop_in_place$LT$syn..punctuated..Punctuated$LT$syn..pat..FieldPat$C$syn..token..Comma$GT$$GT$17h43ec25af986ef674E', symObjAddr: 0xA660, symBinAddr: 0xF1C80, symSize: 0xF0 }
  - { offsetInCU: 0x2BF0D, offset: 0x4E4150, size: 0x8, addend: 0x0, symName: '__ZN4core3ptr94drop_in_place$LT$syn..punctuated..Punctuated$LT$syn..ty..BareFnArg$C$syn..token..Comma$GT$$GT$17h7ba4c699ee390ebaE', symObjAddr: 0xA750, symBinAddr: 0xF1D70, symSize: 0xF0 }
  - { offsetInCU: 0x2C20E, offset: 0x4E4451, size: 0x8, addend: 0x0, symName: '__ZN4core3ptr96drop_in_place$LT$core..option..Option$LT$alloc..boxed..Box$LT$syn..path..PathSegment$GT$$GT$$GT$17h5de12a5a0f9e9ef9E', symObjAddr: 0xA840, symBinAddr: 0xF1E60, symSize: 0x1A0 }
  - { offsetInCU: 0x2C8CF, offset: 0x4E4B12, size: 0x8, addend: 0x0, symName: '__ZN4core3ptr97drop_in_place$LT$syn..punctuated..Punctuated$LT$syn..expr..FieldValue$C$syn..token..Comma$GT$$GT$17hf58d0a9a09266ab3E', symObjAddr: 0xA9E0, symBinAddr: 0xF2000, symSize: 0xF0 }
  - { offsetInCU: 0x2CC48, offset: 0x4E4E8B, size: 0x8, addend: 0x0, symName: '__ZN4core3ptr98drop_in_place$LT$syn..punctuated..Punctuated$LT$syn..lifetime..Lifetime$C$syn..token..Plus$GT$$GT$17h600c2b78f78fd2b9E', symObjAddr: 0xAAD0, symBinAddr: 0xF20F0, symSize: 0xD0 }
  - { offsetInCU: 0x341C4, offset: 0x4EC407, size: 0x8, addend: 0x0, symName: __ZN3syn4item7parsing18parse_rest_of_item17ha26e4acb71011a19E, symObjAddr: 0xAC50, symBinAddr: 0xF2270, symSize: 0x4180 }
  - { offsetInCU: 0x40A0C, offset: 0x4F8C4F, size: 0x8, addend: 0x0, symName: __ZN3syn4item7parsing12parse_macro217hf6831cf9afcd0b55E, symObjAddr: 0xFC80, symBinAddr: 0xF72A0, symSize: 0x8D0 }
  - { offsetInCU: 0x42554, offset: 0x4FA797, size: 0x8, addend: 0x0, symName: __ZN3syn4item7parsing14parse_item_use17h48b98338f7612e03E, symObjAddr: 0x10550, symBinAddr: 0xF7B70, symSize: 0x580 }
  - { offsetInCU: 0x42FE3, offset: 0x4FB226, size: 0x8, addend: 0x0, symName: __ZN3syn4item7parsing14parse_use_tree17h3459008fc061dfc3E, symObjAddr: 0x10AD0, symBinAddr: 0xF80F0, symSize: 0xEA0 }
  - { offsetInCU: 0x45A5A, offset: 0x4FDC9D, size: 0x8, addend: 0x0, symName: __ZN3syn4item7parsing14peek_signature17h6fcb1c3323e18828E, symObjAddr: 0x11970, symBinAddr: 0xF8F90, symSize: 0x3E0 }
  - { offsetInCU: 0x46DB2, offset: 0x4FEFF5, size: 0x8, addend: 0x0, symName: __ZN3syn4item7parsing16parse_rest_of_fn17hd069073817548a43E, symObjAddr: 0x11D50, symBinAddr: 0xF9370, symSize: 0x540 }
  - { offsetInCU: 0x47AE0, offset: 0x4FFD23, size: 0x8, addend: 0x0, symName: __ZN3syn4item7parsing24parse_fn_arg_or_variadic17h2531ec3f9cf1e73bE, symObjAddr: 0x12290, symBinAddr: 0xF98B0, symSize: 0xE20 }
  - { offsetInCU: 0x4A778, offset: 0x5029BB, size: 0x8, addend: 0x0, symName: __ZN3syn4item7parsing13parse_fn_args17hef126a53be169aa0E, symObjAddr: 0x130B0, symBinAddr: 0xFA6D0, symSize: 0x7D0 }
  - { offsetInCU: 0x4B5D5, offset: 0x503818, size: 0x8, addend: 0x0, symName: __ZN3syn4item7parsing23parse_foreign_item_type17h802ebbe8ec67c11cE, symObjAddr: 0x13880, symBinAddr: 0xFAEA0, symSize: 0x450 }
  - { offsetInCU: 0x4BCAE, offset: 0x503EF1, size: 0x8, addend: 0x0, symName: __ZN3syn4item7parsing15parse_item_type17ha00b234c7541791bE, symObjAddr: 0x13CD0, symBinAddr: 0xFB2F0, symSize: 0x5F0 }
  - { offsetInCU: 0x4C6E6, offset: 0x504929, size: 0x8, addend: 0x0, symName: __ZN3syn4item7parsing26parse_trait_or_trait_alias17h869d58d0d710f92eE, symObjAddr: 0x142C0, symBinAddr: 0xFB8E0, symSize: 0x880 }
  - { offsetInCU: 0x4E03C, offset: 0x50627F, size: 0x8, addend: 0x0, symName: __ZN3syn4item7parsing19parse_rest_of_trait17hcfaaa983dae95479E, symObjAddr: 0x14B40, symBinAddr: 0xFC160, symSize: 0xB90 }
  - { offsetInCU: 0x4F820, offset: 0x507A63, size: 0x8, addend: 0x0, symName: __ZN3syn4item7parsing26parse_start_of_trait_alias17h30b54fc2a2c484e2E, symObjAddr: 0x156D0, symBinAddr: 0xFCCF0, symSize: 0x4B0 }
  - { offsetInCU: 0x50286, offset: 0x5084C9, size: 0x8, addend: 0x0, symName: __ZN3syn4item7parsing25parse_rest_of_trait_alias17hc3ff4bca2b4f24ffE, symObjAddr: 0x15B80, symBinAddr: 0xFD1A0, symSize: 0x670 }
  - { offsetInCU: 0x50F1B, offset: 0x50915E, size: 0x8, addend: 0x0, symName: __ZN3syn4item7parsing21parse_trait_item_type17h346cdab40b3c4f88E, symObjAddr: 0x161F0, symBinAddr: 0xFD810, symSize: 0x4D0 }
  - { offsetInCU: 0x5170C, offset: 0x50994F, size: 0x8, addend: 0x0, symName: __ZN3syn4item7parsing10parse_impl17hdf5cb50f2b1c1c56E, symObjAddr: 0x166C0, symBinAddr: 0xFDCE0, symSize: 0x1700 }
  - { offsetInCU: 0x53579, offset: 0x50B7BC, size: 0x8, addend: 0x0, symName: __ZN3syn4item7parsing18parse_impl_item_fn17h8007279fefb73b29E, symObjAddr: 0x17DC0, symBinAddr: 0xFF3E0, symSize: 0x770 }
  - { offsetInCU: 0x542CC, offset: 0x50C50F, size: 0x8, addend: 0x0, symName: __ZN3syn4item7parsing20parse_impl_item_type17hcc883153d233f1e7E, symObjAddr: 0x18530, symBinAddr: 0xFFB50, symSize: 0x49B }
  - { offsetInCU: 0x599E9, offset: 0x511C2C, size: 0x8, addend: 0x0, symName: __ZN5alloc5alloc15exchange_malloc17h9a87608d0224859dE, symObjAddr: 0xAC10, symBinAddr: 0xF2230, symSize: 0x40 }
  - { offsetInCU: 0x5D67A, offset: 0x5158BD, size: 0x8, addend: 0x0, symName: '__ZN5alloc3vec16Vec$LT$T$C$A$GT$4push17h8559c656bf8cfdb7E', symObjAddr: 0xABA0, symBinAddr: 0xF21C0, symSize: 0x70 }
  - { offsetInCU: 0x5E76C, offset: 0x5169AF, size: 0x8, addend: 0x0, symName: __ZN3syn4item7parsing16FlexibleItemType5parse17ha5c93c92e512e37dE, symObjAddr: 0xEDD0, symBinAddr: 0xF63F0, symSize: 0xA20 }
  - { offsetInCU: 0x5F49A, offset: 0x5176DD, size: 0x8, addend: 0x0, symName: __ZN3syn4item7parsing16FlexibleItemType21parse_optional_bounds17h6e18b1c664fc4e1bE, symObjAddr: 0xF7F0, symBinAddr: 0xF6E10, symSize: 0x340 }
  - { offsetInCU: 0x5FBA1, offset: 0x517DE4, size: 0x8, addend: 0x0, symName: __ZN3syn4item7parsing16FlexibleItemType25parse_optional_definition17hf229b9de02f2ada3E, symObjAddr: 0xFB30, symBinAddr: 0xF7150, symSize: 0x150 }
  - { offsetInCU: 0x55F, offset: 0x523AD1, size: 0x8, addend: 0x0, symName: '__ZN3syn8generics8printing80_$LT$impl$u20$quote..to_tokens..ToTokens$u20$for$u20$syn..generics..Generics$GT$9to_tokens17hd4a2af35b3698905E', symObjAddr: 0xF4D0, symBinAddr: 0x10DC90, symSize: 0x220 }
  - { offsetInCU: 0xD63, offset: 0x5242D5, size: 0x8, addend: 0x0, symName: '__ZN3syn8generics8printing84_$LT$impl$u20$quote..to_tokens..ToTokens$u20$for$u20$syn..generics..ImplGenerics$GT$9to_tokens17h4ab04c178462d76aE', symObjAddr: 0xF6F0, symBinAddr: 0x10DEB0, symSize: 0x650 }
  - { offsetInCU: 0x21BF, offset: 0x525731, size: 0x8, addend: 0x0, symName: '__ZN3syn8generics8printing84_$LT$impl$u20$quote..to_tokens..ToTokens$u20$for$u20$syn..generics..TypeGenerics$GT$9to_tokens17h0622ece7b6d3cd84E', symObjAddr: 0xFD40, symBinAddr: 0x10E500, symSize: 0x360 }
  - { offsetInCU: 0x2D53, offset: 0x5262C5, size: 0x8, addend: 0x0, symName: '__ZN3syn8generics8printing86_$LT$impl$u20$quote..to_tokens..ToTokens$u20$for$u20$syn..generics..BoundLifetimes$GT$9to_tokens17hd15a7a043033bd7bE', symObjAddr: 0x10110, symBinAddr: 0x10E860, symSize: 0x160 }
  - { offsetInCU: 0x3257, offset: 0x5267C9, size: 0x8, addend: 0x0, symName: '__ZN3syn8generics8printing81_$LT$impl$u20$quote..to_tokens..ToTokens$u20$for$u20$syn..generics..TypeParam$GT$9to_tokens17had0957bfff47d1f9E', symObjAddr: 0x10490, symBinAddr: 0x10E9C0, symSize: 0x1E0 }
  - { offsetInCU: 0x3993, offset: 0x526F05, size: 0x8, addend: 0x0, symName: '__ZN3syn8generics8printing82_$LT$impl$u20$quote..to_tokens..ToTokens$u20$for$u20$syn..generics..TraitBound$GT$9to_tokens17h377c6cef550ec1bfE', symObjAddr: 0x10670, symBinAddr: 0x10EBA0, symSize: 0x200 }
  - { offsetInCU: 0x3FE1, offset: 0x527553, size: 0x8, addend: 0x0, symName: '__ZN3syn8generics8printing82_$LT$impl$u20$quote..to_tokens..ToTokens$u20$for$u20$syn..generics..ConstParam$GT$9to_tokens17hee7453fb2d0e238bE', symObjAddr: 0x108A0, symBinAddr: 0x10EDA0, symSize: 0x1D0 }
  - { offsetInCU: 0x4382, offset: 0x5278F4, size: 0x8, addend: 0x0, symName: '__ZN3syn8generics8printing83_$LT$impl$u20$quote..to_tokens..ToTokens$u20$for$u20$syn..generics..WhereClause$GT$9to_tokens17h909a6fdfe3e31442E', symObjAddr: 0x10A70, symBinAddr: 0x10EF70, symSize: 0x120 }
  - { offsetInCU: 0x492C, offset: 0x527E9E, size: 0x8, addend: 0x0, symName: '__ZN3syn8generics8printing85_$LT$impl$u20$quote..to_tokens..ToTokens$u20$for$u20$syn..generics..PredicateType$GT$9to_tokens17h8b4ffaf01fdc18f1E', symObjAddr: 0x10CF0, symBinAddr: 0x10F090, symSize: 0x320 }
  - { offsetInCU: 0x5435, offset: 0x5289A7, size: 0x8, addend: 0x0, symName: '__ZN84_$LT$syn..generics..TypeParams$u20$as$u20$core..iter..traits..iterator..Iterator$GT$4next17h891d32c21a4e3c50E', symObjAddr: 0x87F0, symBinAddr: 0x107C70, symSize: 0x0 }
  - { offsetInCU: 0x54BA, offset: 0x528A2C, size: 0x8, addend: 0x0, symName: '__ZN3syn8generics7parsing71_$LT$impl$u20$syn..parse..Parse$u20$for$u20$syn..generics..Generics$GT$5parse17h41c098435a7be9a0E', symObjAddr: 0x8920, symBinAddr: 0x107CC0, symSize: 0x1100 }
  - { offsetInCU: 0x7B74, offset: 0x52B0E6, size: 0x8, addend: 0x0, symName: '__ZN3syn8generics7parsing76_$LT$impl$u20$syn..parse..Parse$u20$for$u20$syn..generics..LifetimeParam$GT$5parse17h5d8a6609f02a7b5bE', symObjAddr: 0xA520, symBinAddr: 0x108DC0, symSize: 0x800 }
  - { offsetInCU: 0x8BFB, offset: 0x52C16D, size: 0x8, addend: 0x0, symName: '__ZN3syn8generics7parsing77_$LT$impl$u20$syn..parse..Parse$u20$for$u20$syn..generics..BoundLifetimes$GT$5parse17hc16736384c98dd41E', symObjAddr: 0xAD20, symBinAddr: 0x1095C0, symSize: 0x6A0 }
  - { offsetInCU: 0x9969, offset: 0x52CEDB, size: 0x8, addend: 0x0, symName: '__ZN3syn8generics7parsing72_$LT$impl$u20$syn..parse..Parse$u20$for$u20$syn..generics..TypeParam$GT$5parse17h9c7ea43a33d4115aE', symObjAddr: 0xB3C0, symBinAddr: 0x109C60, symSize: 0x770 }
  - { offsetInCU: 0xAAA9, offset: 0x52E01B, size: 0x8, addend: 0x0, symName: '__ZN3syn8generics7parsing77_$LT$impl$u20$syn..parse..Parse$u20$for$u20$syn..generics..TypeParamBound$GT$5parse17h25e623b87f173e12E', symObjAddr: 0xBB30, symBinAddr: 0x10A3D0, symSize: 0x1250 }
  - { offsetInCU: 0xE44F, offset: 0x5319C1, size: 0x8, addend: 0x0, symName: '__ZN3syn8generics7parsing73_$LT$impl$u20$syn..parse..Parse$u20$for$u20$syn..generics..TraitBound$GT$5parse17h690a689474a7b206E', symObjAddr: 0xD250, symBinAddr: 0x10BAF0, symSize: 0x6B0 }
  - { offsetInCU: 0xF38D, offset: 0x5328FF, size: 0x8, addend: 0x0, symName: '__ZN3syn8generics7parsing73_$LT$impl$u20$syn..parse..Parse$u20$for$u20$syn..generics..ConstParam$GT$5parse17h7d6405b926c1a94eE', symObjAddr: 0xD9E0, symBinAddr: 0x10C1A0, symSize: 0x970 }
  - { offsetInCU: 0x10851, offset: 0x533DC3, size: 0x8, addend: 0x0, symName: '__ZN3syn8generics7parsing74_$LT$impl$u20$syn..parse..Parse$u20$for$u20$syn..generics..WhereClause$GT$5parse17hd23830e75acad64dE', symObjAddr: 0xE350, symBinAddr: 0x10CB10, symSize: 0x3B0 }
  - { offsetInCU: 0x1130A, offset: 0x53487C, size: 0x8, addend: 0x0, symName: '__ZN3syn8generics7parsing77_$LT$impl$u20$syn..parse..Parse$u20$for$u20$syn..generics..WherePredicate$GT$5parse17h70c29b17190c019cE', symObjAddr: 0xE700, symBinAddr: 0x10CEC0, symSize: 0xDD0 }
  - { offsetInCU: 0x13215, offset: 0x536787, size: 0x8, addend: 0x0, symName: '__ZN74_$LT$syn..generics..GenericParam$u20$as$u20$quote..to_tokens..ToTokens$GT$9to_tokens17h597acb1380a7ac96E', symObjAddr: 0x11010, symBinAddr: 0x10F3B0, symSize: 0x270 }
  - { offsetInCU: 0x188AB, offset: 0x53BE1D, size: 0x8, addend: 0x0, symName: '__ZN3syn3gen5clone78_$LT$impl$u20$core..clone..Clone$u20$for$u20$syn..generics..WherePredicate$GT$5clone17hbd6bd00e6f5532d2E', symObjAddr: 0x125F0, symBinAddr: 0x110120, symSize: 0x100 }
  - { offsetInCU: 0x18B47, offset: 0x53C0B9, size: 0x8, addend: 0x0, symName: '__ZN3syn3gen5clone74_$LT$impl$u20$core..clone..Clone$u20$for$u20$syn..generics..ConstParam$GT$5clone17h8bc67da494863269E', symObjAddr: 0x11720, symBinAddr: 0x10F620, symSize: 0x1F0 }
  - { offsetInCU: 0x18DDB, offset: 0x53C34D, size: 0x8, addend: 0x0, symName: '__ZN3syn3gen5clone77_$LT$impl$u20$core..clone..Clone$u20$for$u20$syn..generics..LifetimeParam$GT$5clone17hbf15cdf236adaa10E', symObjAddr: 0x11A90, symBinAddr: 0x10F810, symSize: 0x130 }
  - { offsetInCU: 0x19000, offset: 0x53C572, size: 0x8, addend: 0x0, symName: '__ZN3syn3gen5clone77_$LT$impl$u20$core..clone..Clone$u20$for$u20$syn..generics..PredicateType$GT$5clone17h013cd41ed055cad0E', symObjAddr: 0x11CA0, symBinAddr: 0x10F940, symSize: 0x150 }
  - { offsetInCU: 0x19193, offset: 0x53C705, size: 0x8, addend: 0x0, symName: '__ZN3syn3gen5clone73_$LT$impl$u20$core..clone..Clone$u20$for$u20$syn..generics..TypeParam$GT$5clone17hddca7c785eaee5f9E', symObjAddr: 0x11F40, symBinAddr: 0x10FA90, symSize: 0x2B0 }
  - { offsetInCU: 0x1965B, offset: 0x53CBCD, size: 0x8, addend: 0x0, symName: '__ZN3syn3gen5clone78_$LT$impl$u20$core..clone..Clone$u20$for$u20$syn..generics..TypeParamBound$GT$5clone17hc8c21b6b99f4be95E', symObjAddr: 0x121F0, symBinAddr: 0x10FD40, symSize: 0x3E0 }
  - { offsetInCU: 0x1C98A, offset: 0x53FEFC, size: 0x8, addend: 0x0, symName: '__ZN4core3ptr100drop_in_place$LT$core..option..Option$LT$alloc..boxed..Box$LT$syn..path..GenericArgument$GT$$GT$$GT$17h3a7c44b9e57fe410E', symObjAddr: 0x360, symBinAddr: 0x100130, symSize: 0x50 }
  - { offsetInCU: 0x1CB95, offset: 0x540107, size: 0x8, addend: 0x0, symName: '__ZN4core3ptr100drop_in_place$LT$syn..punctuated..Punctuated$LT$syn..path..PathSegment$C$syn..token..PathSep$GT$$GT$17he41ef64147139591E', symObjAddr: 0x3B0, symBinAddr: 0x100180, symSize: 0x170 }
  - { offsetInCU: 0x1D20E, offset: 0x540780, size: 0x8, addend: 0x0, symName: '__ZN4core3ptr103drop_in_place$LT$core..option..Option$LT$alloc..boxed..Box$LT$syn..generics..TypeParamBound$GT$$GT$$GT$17hb14e4384a768542bE', symObjAddr: 0x520, symBinAddr: 0x1002F0, symSize: 0x50 }
  - { offsetInCU: 0x1D438, offset: 0x5409AA, size: 0x8, addend: 0x0, symName: '__ZN4core3ptr103drop_in_place$LT$core..option..Option$LT$alloc..boxed..Box$LT$syn..generics..WherePredicate$GT$$GT$$GT$17he190813f4819c5dbE', symObjAddr: 0x570, symBinAddr: 0x100340, symSize: 0xD0 }
  - { offsetInCU: 0x1D7CC, offset: 0x540D3E, size: 0x8, addend: 0x0, symName: '__ZN4core3ptr103drop_in_place$LT$syn..punctuated..Punctuated$LT$syn..generics..GenericParam$C$syn..token..Comma$GT$$GT$17h0c6077a988036760E.llvm.1278538373299499664', symObjAddr: 0x640, symBinAddr: 0x100410, symSize: 0xF0 }
  - { offsetInCU: 0x1DC2C, offset: 0x54119E, size: 0x8, addend: 0x0, symName: '__ZN4core3ptr104drop_in_place$LT$syn..punctuated..Punctuated$LT$syn..generics..TypeParamBound$C$syn..token..Plus$GT$$GT$17h724e4d9d1d65061aE', symObjAddr: 0x730, symBinAddr: 0x100500, symSize: 0x170 }
  - { offsetInCU: 0x1E1C6, offset: 0x541738, size: 0x8, addend: 0x0, symName: '__ZN4core3ptr105drop_in_place$LT$syn..punctuated..Punctuated$LT$syn..generics..WherePredicate$C$syn..token..Comma$GT$$GT$17h18b5b213db2a676cE', symObjAddr: 0x8A0, symBinAddr: 0x100670, symSize: 0x80 }
  - { offsetInCU: 0x1E4C6, offset: 0x541A38, size: 0x8, addend: 0x0, symName: '__ZN4core3ptr34drop_in_place$LT$syn..lit..Lit$GT$17hd64dde89a262341dE', symObjAddr: 0x920, symBinAddr: 0x1006F0, symSize: 0x120 }
  - { offsetInCU: 0x1E9F2, offset: 0x541F64, size: 0x8, addend: 0x0, symName: '__ZN4core3ptr34drop_in_place$LT$syn..pat..Pat$GT$17hf88887878261d63cE', symObjAddr: 0xA40, symBinAddr: 0x100810, symSize: 0x1100 }
  - { offsetInCU: 0x2308A, offset: 0x5465FC, size: 0x8, addend: 0x0, symName: '__ZN4core3ptr34drop_in_place$LT$syn..ty..Type$GT$17ha80dd29b0f9d4a3fE.llvm.1278538373299499664', symObjAddr: 0x1B40, symBinAddr: 0x101910, symSize: 0x520 }
  - { offsetInCU: 0x2471E, offset: 0x547C90, size: 0x8, addend: 0x0, symName: '__ZN4core3ptr36drop_in_place$LT$syn..expr..Expr$GT$17h10f573b40ddd212cE.llvm.1278538373299499664', symObjAddr: 0x2060, symBinAddr: 0x101E30, symSize: 0x2840 }
  - { offsetInCU: 0x2E7FC, offset: 0x551D6E, size: 0x8, addend: 0x0, symName: '__ZN4core3ptr36drop_in_place$LT$syn..mac..Macro$GT$17hc3b30a7a8a34cc2dE', symObjAddr: 0x48A0, symBinAddr: 0x104670, symSize: 0x40 }
  - { offsetInCU: 0x2E8B2, offset: 0x551E24, size: 0x8, addend: 0x0, symName: '__ZN4core3ptr36drop_in_place$LT$syn..path..Path$GT$17h75c74a97d5f0a03bE', symObjAddr: 0x48E0, symBinAddr: 0x1046B0, symSize: 0x280 }
  - { offsetInCU: 0x2F35F, offset: 0x5528D1, size: 0x8, addend: 0x0, symName: '__ZN4core3ptr37drop_in_place$LT$syn..stmt..Block$GT$17h6fc3254d5688f2c3E', symObjAddr: 0x4B60, symBinAddr: 0x104930, symSize: 0xD0 }
  - { offsetInCU: 0x2F636, offset: 0x552BA8, size: 0x8, addend: 0x0, symName: '__ZN4core3ptr38drop_in_place$LT$syn..expr..Member$GT$17h6b0cf84594ce6bceE', symObjAddr: 0x4C30, symBinAddr: 0x104A00, symSize: 0x30 }
  - { offsetInCU: 0x2F732, offset: 0x552CA4, size: 0x8, addend: 0x0, symName: '__ZN4core3ptr39drop_in_place$LT$proc_macro2..Ident$GT$17ha28fef9769e267d9E.llvm.1278538373299499664', symObjAddr: 0x4C60, symBinAddr: 0x104A30, symSize: 0x30 }
  - { offsetInCU: 0x2F80F, offset: 0x552D81, size: 0x8, addend: 0x0, symName: '__ZN4core3ptr40drop_in_place$LT$syn..ty..ReturnType$GT$17h035a612e322b6510E', symObjAddr: 0x4C90, symBinAddr: 0x104A60, symSize: 0x50 }
  - { offsetInCU: 0x2F97F, offset: 0x552EF1, size: 0x8, addend: 0x0, symName: '__ZN4core3ptr41drop_in_place$LT$syn..expr..ExprConst$GT$17hbfe19d5d621e6836E', symObjAddr: 0x4CE0, symBinAddr: 0x104AB0, symSize: 0x180 }
  - { offsetInCU: 0x2FF6C, offset: 0x5534DE, size: 0x8, addend: 0x0, symName: '__ZN4core3ptr44drop_in_place$LT$syn..lifetime..Lifetime$GT$17he37fa474f03de7b1E.llvm.1278538373299499664', symObjAddr: 0x4EA0, symBinAddr: 0x104C30, symSize: 0x30 }
  - { offsetInCU: 0x300E4, offset: 0x553656, size: 0x8, addend: 0x0, symName: '__ZN4core3ptr44drop_in_place$LT$syn..parse..ParseBuffer$GT$17hf792ff20095efc35E', symObjAddr: 0x4ED0, symBinAddr: 0x104C60, symSize: 0x70 }
  - { offsetInCU: 0x304FB, offset: 0x553A6D, size: 0x8, addend: 0x0, symName: '__ZN4core3ptr45drop_in_place$LT$proc_macro2..TokenStream$GT$17h76e8e68015f4924dE.llvm.1278538373299499664', symObjAddr: 0x4F40, symBinAddr: 0x104CD0, symSize: 0x140 }
  - { offsetInCU: 0x30995, offset: 0x553F07, size: 0x8, addend: 0x0, symName: '__ZN4core3ptr45drop_in_place$LT$syn..generics..TypeParam$GT$17h188a459c1380ac75E.llvm.1278538373299499664', symObjAddr: 0x5080, symBinAddr: 0x104E10, symSize: 0x230 }
  - { offsetInCU: 0x3120A, offset: 0x55477C, size: 0x8, addend: 0x0, symName: '__ZN4core3ptr45drop_in_place$LT$syn..path..PathArguments$GT$17hdbc6dfac6f3334e6E', symObjAddr: 0x52B0, symBinAddr: 0x105040, symSize: 0x190 }
  - { offsetInCU: 0x316DA, offset: 0x554C4C, size: 0x8, addend: 0x0, symName: '__ZN4core3ptr46drop_in_place$LT$syn..generics..ConstParam$GT$17h7a9b900b2b88bfcdE.llvm.1278538373299499664', symObjAddr: 0x5440, symBinAddr: 0x1051D0, symSize: 0x150 }
  - { offsetInCU: 0x31AFE, offset: 0x555070, size: 0x8, addend: 0x0, symName: '__ZN4core3ptr46drop_in_place$LT$syn..generics..TraitBound$GT$17hbfe193394d805ef5E.llvm.1278538373299499664', symObjAddr: 0x5590, symBinAddr: 0x105320, symSize: 0x130 }
  - { offsetInCU: 0x31FA1, offset: 0x555513, size: 0x8, addend: 0x0, symName: '__ZN4core3ptr47drop_in_place$LT$syn..path..GenericArgument$GT$17h593f06d6ca9a94d2E', symObjAddr: 0x56C0, symBinAddr: 0x105450, symSize: 0x4A0 }
  - { offsetInCU: 0x330A7, offset: 0x556619, size: 0x8, addend: 0x0, symName: '__ZN4core3ptr49drop_in_place$LT$syn..generics..LifetimeParam$GT$17h3a8835ab294bfd16E.llvm.1278538373299499664', symObjAddr: 0x5B60, symBinAddr: 0x1058F0, symSize: 0xF0 }
  - { offsetInCU: 0x334DD, offset: 0x556A4F, size: 0x8, addend: 0x0, symName: '__ZN4core3ptr50drop_in_place$LT$syn..generics..TypeParamBound$GT$17h81b4325b5900604dE', symObjAddr: 0x5CC0, symBinAddr: 0x1059E0, symSize: 0xA0 }
  - { offsetInCU: 0x33643, offset: 0x556BB5, size: 0x8, addend: 0x0, symName: '__ZN4core3ptr58drop_in_place$LT$alloc..vec..Vec$LT$syn..expr..Arm$GT$$GT$17hff9224aadf2233b8E', symObjAddr: 0x5DA0, symBinAddr: 0x105A80, symSize: 0xD0 }
  - { offsetInCU: 0x33903, offset: 0x556E75, size: 0x8, addend: 0x0, symName: '__ZN4core3ptr59drop_in_place$LT$alloc..boxed..Box$LT$syn..pat..Pat$GT$$GT$17h622b0c1db21c0742E', symObjAddr: 0x5E70, symBinAddr: 0x105B50, symSize: 0x50 }
  - { offsetInCU: 0x33A5C, offset: 0x556FCE, size: 0x8, addend: 0x0, symName: '__ZN4core3ptr59drop_in_place$LT$alloc..boxed..Box$LT$syn..ty..Type$GT$$GT$17hde45fa887dd8b605E', symObjAddr: 0x5EC0, symBinAddr: 0x105BA0, symSize: 0x50 }
  - { offsetInCU: 0x33BB5, offset: 0x557127, size: 0x8, addend: 0x0, symName: '__ZN4core3ptr61drop_in_place$LT$alloc..boxed..Box$LT$syn..expr..Expr$GT$$GT$17hbb42293869113942E', symObjAddr: 0x5F10, symBinAddr: 0x105BF0, symSize: 0x50 }
  - { offsetInCU: 0x33D8A, offset: 0x5572FC, size: 0x8, addend: 0x0, symName: '__ZN4core3ptr61drop_in_place$LT$syn..path..ParenthesizedGenericArguments$GT$17h6b1731382637937fE', symObjAddr: 0x5F60, symBinAddr: 0x105C40, symSize: 0x170 }
  - { offsetInCU: 0x34380, offset: 0x5578F2, size: 0x8, addend: 0x0, symName: '__ZN4core3ptr62drop_in_place$LT$syn..path..AngleBracketedGenericArguments$GT$17hf8fa172f007a1473E', symObjAddr: 0x60F0, symBinAddr: 0x105DB0, symSize: 0x120 }
  - { offsetInCU: 0x347CB, offset: 0x557D3D, size: 0x8, addend: 0x0, symName: '__ZN4core3ptr63drop_in_place$LT$alloc..boxed..Box$LT$syn..lit..LitRepr$GT$$GT$17h6e3a82ea4de7b84cE', symObjAddr: 0x6210, symBinAddr: 0x105ED0, symSize: 0x60 }
  - { offsetInCU: 0x34AD2, offset: 0x558044, size: 0x8, addend: 0x0, symName: '__ZN4core3ptr64drop_in_place$LT$alloc..boxed..Box$LT$syn..pat..FieldPat$GT$$GT$17hbf8f4867d84bd25dE', symObjAddr: 0x6270, symBinAddr: 0x105F30, symSize: 0x140 }
  - { offsetInCU: 0x351D3, offset: 0x558745, size: 0x8, addend: 0x0, symName: '__ZN4core3ptr64drop_in_place$LT$alloc..boxed..Box$LT$syn..ty..BareFnArg$GT$$GT$17h6be6354eb1d1364dE', symObjAddr: 0x63B0, symBinAddr: 0x106070, symSize: 0x140 }
  - { offsetInCU: 0x3575C, offset: 0x558CCE, size: 0x8, addend: 0x0, symName: '__ZN4core3ptr64drop_in_place$LT$alloc..vec..Vec$LT$syn..attr..Attribute$GT$$GT$17he33e25539d5885aeE.llvm.1278538373299499664', symObjAddr: 0x64F0, symBinAddr: 0x1061B0, symSize: 0xD0 }
  - { offsetInCU: 0x35A50, offset: 0x558FC2, size: 0x8, addend: 0x0, symName: '__ZN4core3ptr65drop_in_place$LT$alloc..vec..Vec$LT$proc_macro..TokenTree$GT$$GT$17h8abd81f8596dbc59E', symObjAddr: 0x65E0, symBinAddr: 0x106280, symSize: 0x110 }
  - { offsetInCU: 0x35E48, offset: 0x5593BA, size: 0x8, addend: 0x0, symName: '__ZN4core3ptr65drop_in_place$LT$core..option..Option$LT$syn..expr..Label$GT$$GT$17hac599686b33ef364E', symObjAddr: 0x66F0, symBinAddr: 0x106390, symSize: 0x30 }
  - { offsetInCU: 0x35F82, offset: 0x5594F4, size: 0x8, addend: 0x0, symName: '__ZN4core3ptr66drop_in_place$LT$core..option..Option$LT$syn..pat..PatRest$GT$$GT$17hd5bb3bc28aa78ac1E', symObjAddr: 0x6720, symBinAddr: 0x1063C0, symSize: 0xE0 }
  - { offsetInCU: 0x362AA, offset: 0x55981C, size: 0x8, addend: 0x0, symName: '__ZN4core3ptr67drop_in_place$LT$alloc..boxed..Box$LT$syn..expr..FieldValue$GT$$GT$17hbbcf67a9d5e9863cE', symObjAddr: 0x6800, symBinAddr: 0x1064A0, symSize: 0x140 }
  - { offsetInCU: 0x36813, offset: 0x559D85, size: 0x8, addend: 0x0, symName: '__ZN4core3ptr68drop_in_place$LT$alloc..boxed..Box$LT$syn..path..PathSegment$GT$$GT$17h99aaf90b3262bc1eE', symObjAddr: 0x6940, symBinAddr: 0x1065E0, symSize: 0x1B0 }
  - { offsetInCU: 0x36F21, offset: 0x55A493, size: 0x8, addend: 0x0, symName: '__ZN4core3ptr70drop_in_place$LT$core..option..Option$LT$syn..ty..BareVariadic$GT$$GT$17h79a19250e9f043b1E', symObjAddr: 0x6AF0, symBinAddr: 0x106790, symSize: 0x100 }
  - { offsetInCU: 0x3738C, offset: 0x55A8FE, size: 0x8, addend: 0x0, symName: '__ZN4core3ptr72drop_in_place$LT$alloc..boxed..Box$LT$syn..path..GenericArgument$GT$$GT$17hfd308d374af4273dE', symObjAddr: 0x6BF0, symBinAddr: 0x106890, symSize: 0x2B0 }
  - { offsetInCU: 0x37D44, offset: 0x55B2B6, size: 0x8, addend: 0x0, symName: '__ZN4core3ptr72drop_in_place$LT$core..option..Option$LT$syn..lifetime..Lifetime$GT$$GT$17h49cce6f02f9c0590E', symObjAddr: 0x6EA0, symBinAddr: 0x106B40, symSize: 0x30 }
  - { offsetInCU: 0x37E5F, offset: 0x55B3D1, size: 0x8, addend: 0x0, symName: '__ZN4core3ptr73drop_in_place$LT$alloc..boxed..Box$LT$syn..generics..GenericParam$GT$$GT$17ha26d5d145af4b203E.llvm.1278538373299499664', symObjAddr: 0x6ED0, symBinAddr: 0x106B70, symSize: 0x80 }
  - { offsetInCU: 0x37FD5, offset: 0x55B547, size: 0x8, addend: 0x0, symName: '__ZN4core3ptr75drop_in_place$LT$alloc..boxed..Box$LT$syn..generics..TypeParamBound$GT$$GT$17h129a4e927e5eb81bE', symObjAddr: 0x6F50, symBinAddr: 0x106BF0, symSize: 0x1B0 }
  - { offsetInCU: 0x386B5, offset: 0x55BC27, size: 0x8, addend: 0x0, symName: '__ZN4core3ptr75drop_in_place$LT$core..option..Option$LT$syn..generics..WhereClause$GT$$GT$17haaf63f327098cdccE', symObjAddr: 0x7100, symBinAddr: 0x106DA0, symSize: 0x90 }
  - { offsetInCU: 0x389A9, offset: 0x55BF1B, size: 0x8, addend: 0x0, symName: '__ZN4core3ptr86drop_in_place$LT$syn..punctuated..Punctuated$LT$syn..pat..Pat$C$syn..token..Or$GT$$GT$17h9cc6b5f7b6d3a555E', symObjAddr: 0x71B0, symBinAddr: 0x106E30, symSize: 0x120 }
  - { offsetInCU: 0x38E24, offset: 0x55C396, size: 0x8, addend: 0x0, symName: '__ZN4core3ptr87drop_in_place$LT$core..option..Option$LT$alloc..boxed..Box$LT$syn..pat..Pat$GT$$GT$$GT$17h51cd48973d96c411E', symObjAddr: 0x72D0, symBinAddr: 0x106F50, symSize: 0x50 }
  - { offsetInCU: 0x38F94, offset: 0x55C506, size: 0x8, addend: 0x0, symName: '__ZN4core3ptr87drop_in_place$LT$core..option..Option$LT$alloc..boxed..Box$LT$syn..ty..Type$GT$$GT$$GT$17h103a25a4a7d7374eE', symObjAddr: 0x7320, symBinAddr: 0x106FA0, symSize: 0x50 }
  - { offsetInCU: 0x39104, offset: 0x55C676, size: 0x8, addend: 0x0, symName: '__ZN4core3ptr89drop_in_place$LT$core..option..Option$LT$alloc..boxed..Box$LT$syn..expr..Expr$GT$$GT$$GT$17h9e02509cb2345d44E', symObjAddr: 0x7370, symBinAddr: 0x106FF0, symSize: 0x50 }
  - { offsetInCU: 0x392B2, offset: 0x55C824, size: 0x8, addend: 0x0, symName: '__ZN4core3ptr89drop_in_place$LT$syn..punctuated..Punctuated$LT$syn..pat..Pat$C$syn..token..Comma$GT$$GT$17hd3a83c36827f210aE', symObjAddr: 0x73C0, symBinAddr: 0x107040, symSize: 0x120 }
  - { offsetInCU: 0x39744, offset: 0x55CCB6, size: 0x8, addend: 0x0, symName: '__ZN4core3ptr89drop_in_place$LT$syn..punctuated..Punctuated$LT$syn..ty..Type$C$syn..token..Comma$GT$$GT$17he030c4b7f24a5848E', symObjAddr: 0x74E0, symBinAddr: 0x107160, symSize: 0x120 }
  - { offsetInCU: 0x39BBF, offset: 0x55D131, size: 0x8, addend: 0x0, symName: '__ZN4core3ptr90drop_in_place$LT$core..option..Option$LT$syn..path..AngleBracketedGenericArguments$GT$$GT$17ha307713a95a0671eE', symObjAddr: 0x7600, symBinAddr: 0x107280, symSize: 0x130 }
  - { offsetInCU: 0x3A061, offset: 0x55D5D3, size: 0x8, addend: 0x0, symName: '__ZN4core3ptr91drop_in_place$LT$syn..punctuated..Punctuated$LT$syn..expr..Expr$C$syn..token..Comma$GT$$GT$17h6f261e8f470c81f2E', symObjAddr: 0x7730, symBinAddr: 0x1073B0, symSize: 0x120 }
  - { offsetInCU: 0x3A4EF, offset: 0x55DA61, size: 0x8, addend: 0x0, symName: '__ZN4core3ptr94drop_in_place$LT$syn..punctuated..Punctuated$LT$syn..pat..FieldPat$C$syn..token..Comma$GT$$GT$17h43ec25af986ef674E', symObjAddr: 0x7850, symBinAddr: 0x1074D0, symSize: 0xF0 }
  - { offsetInCU: 0x3A7EE, offset: 0x55DD60, size: 0x8, addend: 0x0, symName: '__ZN4core3ptr94drop_in_place$LT$syn..punctuated..Punctuated$LT$syn..ty..BareFnArg$C$syn..token..Comma$GT$$GT$17h7ba4c699ee390ebaE', symObjAddr: 0x7940, symBinAddr: 0x1075C0, symSize: 0xF0 }
  - { offsetInCU: 0x3AAEF, offset: 0x55E061, size: 0x8, addend: 0x0, symName: '__ZN4core3ptr96drop_in_place$LT$core..option..Option$LT$alloc..boxed..Box$LT$syn..path..PathSegment$GT$$GT$$GT$17h5de12a5a0f9e9ef9E', symObjAddr: 0x7A30, symBinAddr: 0x1076B0, symSize: 0xA0 }
  - { offsetInCU: 0x3AD6E, offset: 0x55E2E0, size: 0x8, addend: 0x0, symName: '__ZN4core3ptr97drop_in_place$LT$syn..punctuated..Punctuated$LT$syn..expr..FieldValue$C$syn..token..Comma$GT$$GT$17hf58d0a9a09266ab3E', symObjAddr: 0x7AD0, symBinAddr: 0x107750, symSize: 0xF0 }
  - { offsetInCU: 0x3B06B, offset: 0x55E5DD, size: 0x8, addend: 0x0, symName: '__ZN4core3ptr98drop_in_place$LT$alloc..vec..Vec$LT$$LP$syn..path..GenericArgument$C$syn..token..Comma$RP$$GT$$GT$17h0dee282a026d5a38E', symObjAddr: 0x7BC0, symBinAddr: 0x107840, symSize: 0xD0 }
  - { offsetInCU: 0x3B3AB, offset: 0x55E91D, size: 0x8, addend: 0x0, symName: '__ZN4core3ptr98drop_in_place$LT$syn..punctuated..Punctuated$LT$syn..lifetime..Lifetime$C$syn..token..Plus$GT$$GT$17h600c2b78f78fd2b9E.llvm.1278538373299499664', symObjAddr: 0x7C90, symBinAddr: 0x107910, symSize: 0xD0 }
  - { offsetInCU: 0x3F9BD, offset: 0x562F2F, size: 0x8, addend: 0x0, symName: '__ZN48_$LT$T$u20$as$u20$core..clone..CloneToUninit$GT$15clone_to_uninit17hc598a6c9534b5b4fE', symObjAddr: 0x220, symBinAddr: 0xFFFF0, symSize: 0x140 }
  - { offsetInCU: 0x43A35, offset: 0x566FA7, size: 0x8, addend: 0x0, symName: '__ZN52_$LT$$RF$T$u20$as$u20$quote..to_tokens..ToTokens$GT$9to_tokens17h105a97bdbe744db0E', symObjAddr: 0x7E10, symBinAddr: 0x1079E0, symSize: 0x190 }
  - { offsetInCU: 0x44483, offset: 0x5679F5, size: 0x8, addend: 0x0, symName: __ZN3syn8generics8Generics11type_params17h9a5113385dc931b2E, symObjAddr: 0x86A0, symBinAddr: 0x107B70, symSize: 0x0 }
  - { offsetInCU: 0x44763, offset: 0x567CD5, size: 0x8, addend: 0x0, symName: __ZN3syn8generics8Generics17make_where_clause17h8413fcc584b77195E, symObjAddr: 0x8710, symBinAddr: 0x107BE0, symSize: 0x90 }
  - { offsetInCU: 0x45849, offset: 0x568DBB, size: 0x8, addend: 0x0, symName: '__ZN3syn8generics7parsing47_$LT$impl$u20$syn..generics..TypeParamBound$GT$14parse_multiple17h33e6fbea8f6e153bE', symObjAddr: 0xCD80, symBinAddr: 0x10B620, symSize: 0x4D0 }
  - { offsetInCU: 0xF23, offset: 0x573CCB, size: 0x8, addend: 0x0, symName: '__ZN64_$LT$syn..token..Comma$u20$as$u20$quote..to_tokens..ToTokens$GT$9to_tokens17h832a5ffc78b55b16E', symObjAddr: 0x5070, symBinAddr: 0x111100, symSize: 0x30 }
  - { offsetInCU: 0xF7C, offset: 0x573D24, size: 0x8, addend: 0x0, symName: '__ZN60_$LT$syn..token..Underscore$u20$as$u20$syn..token..Token$GT$4peek17haec0894d2e05662cE', symObjAddr: 0xAD0, symBinAddr: 0x110470, symSize: 0x1F0 }
  - { offsetInCU: 0x1831, offset: 0x5745D9, size: 0x8, addend: 0x0, symName: '__ZN55_$LT$syn..token..Paren$u20$as$u20$syn..token..Token$GT$4peek17h57c2615f1c93669bE', symObjAddr: 0xF20, symBinAddr: 0x110780, symSize: 0xA0 }
  - { offsetInCU: 0x1A31, offset: 0x5747D9, size: 0x8, addend: 0x0, symName: '__ZN55_$LT$syn..token..Brace$u20$as$u20$syn..token..Token$GT$4peek17h73c23ce965996843E', symObjAddr: 0xFC0, symBinAddr: 0x110820, symSize: 0xA0 }
  - { offsetInCU: 0x1C31, offset: 0x5749D9, size: 0x8, addend: 0x0, symName: '__ZN57_$LT$syn..token..Bracket$u20$as$u20$syn..token..Token$GT$4peek17h872c9349a83dc2aaE', symObjAddr: 0x1060, symBinAddr: 0x1108C0, symSize: 0xA0 }
  - { offsetInCU: 0x1E31, offset: 0x574BD9, size: 0x8, addend: 0x0, symName: '__ZN57_$LT$syn..token..As$u20$as$u20$core..default..Default$GT$7default17h6e21ca7a67d70738E', symObjAddr: 0x12A0, symBinAddr: 0x110960, symSize: 0x0 }
  - { offsetInCU: 0x1E82, offset: 0x574C2A, size: 0x8, addend: 0x0, symName: '__ZN52_$LT$syn..token..As$u20$as$u20$syn..parse..Parse$GT$5parse17h8279010a971a5b00E', symObjAddr: 0x1350, symBinAddr: 0x110970, symSize: 0x60 }
  - { offsetInCU: 0x1F36, offset: 0x574CDE, size: 0x8, addend: 0x0, symName: '__ZN55_$LT$syn..token..Async$u20$as$u20$syn..token..Token$GT$4peek17hec3d206c6ab2af4dE', symObjAddr: 0x14D0, symBinAddr: 0x1109D0, symSize: 0x20 }
  - { offsetInCU: 0x1F6C, offset: 0x574D14, size: 0x8, addend: 0x0, symName: '__ZN54_$LT$syn..token..Auto$u20$as$u20$syn..token..Token$GT$4peek17h78aa4921345bdad2E', symObjAddr: 0x15F0, symBinAddr: 0x1109F0, symSize: 0x20 }
  - { offsetInCU: 0x2029, offset: 0x574DD1, size: 0x8, addend: 0x0, symName: '__ZN55_$LT$syn..token..Const$u20$as$u20$syn..parse..Parse$GT$5parse17h4d7f78de797b5b9dE', symObjAddr: 0x1B30, symBinAddr: 0x110A10, symSize: 0x60 }
  - { offsetInCU: 0x20B0, offset: 0x574E58, size: 0x8, addend: 0x0, symName: '__ZN55_$LT$syn..token..Const$u20$as$u20$syn..token..Token$GT$4peek17h377299e8bbcdfde8E', symObjAddr: 0x1B90, symBinAddr: 0x110A70, symSize: 0x20 }
  - { offsetInCU: 0x20E6, offset: 0x574E8E, size: 0x8, addend: 0x0, symName: '__ZN55_$LT$syn..token..Crate$u20$as$u20$syn..token..Token$GT$4peek17h41bdfdc9696d7a0cE', symObjAddr: 0x1DD0, symBinAddr: 0x110A90, symSize: 0x20 }
  - { offsetInCU: 0x211C, offset: 0x574EC4, size: 0x8, addend: 0x0, symName: '__ZN53_$LT$syn..token..Dyn$u20$as$u20$syn..parse..Parse$GT$5parse17ha918c5aa2904e233E', symObjAddr: 0x20D0, symBinAddr: 0x110AB0, symSize: 0x60 }
  - { offsetInCU: 0x21A3, offset: 0x574F4B, size: 0x8, addend: 0x0, symName: '__ZN54_$LT$syn..token..Else$u20$as$u20$syn..parse..Parse$GT$5parse17h45e080b72d435097E', symObjAddr: 0x21F0, symBinAddr: 0x110B10, symSize: 0x60 }
  - { offsetInCU: 0x222A, offset: 0x574FD2, size: 0x8, addend: 0x0, symName: '__ZN54_$LT$syn..token..Enum$u20$as$u20$syn..token..Token$GT$4peek17h5b346af13c7af550E', symObjAddr: 0x2370, symBinAddr: 0x110B70, symSize: 0x20 }
  - { offsetInCU: 0x2260, offset: 0x575008, size: 0x8, addend: 0x0, symName: '__ZN56_$LT$syn..token..Extern$u20$as$u20$syn..token..Token$GT$4peek17h4d12b1045a886c67E', symObjAddr: 0x2490, symBinAddr: 0x110B90, symSize: 0x20 }
  - { offsetInCU: 0x2296, offset: 0x57503E, size: 0x8, addend: 0x0, symName: '__ZN52_$LT$syn..token..Fn$u20$as$u20$syn..token..Token$GT$4peek17h72891b673cf8306dE', symObjAddr: 0x26D0, symBinAddr: 0x110BB0, symSize: 0x20 }
  - { offsetInCU: 0x22CC, offset: 0x575074, size: 0x8, addend: 0x0, symName: '__ZN53_$LT$syn..token..For$u20$as$u20$syn..parse..Parse$GT$5parse17h685510a59deff120E', symObjAddr: 0x2790, symBinAddr: 0x110BD0, symSize: 0x60 }
  - { offsetInCU: 0x2353, offset: 0x5750FB, size: 0x8, addend: 0x0, symName: '__ZN54_$LT$syn..token..Impl$u20$as$u20$syn..token..Token$GT$4peek17h2c90e0f4bad3b8a1E', symObjAddr: 0x2A30, symBinAddr: 0x110C30, symSize: 0x20 }
  - { offsetInCU: 0x23B6, offset: 0x57515E, size: 0x8, addend: 0x0, symName: '__ZN52_$LT$syn..token..In$u20$as$u20$syn..parse..Parse$GT$5parse17h1c18d23d989fcf2fE', symObjAddr: 0x2AF0, symBinAddr: 0x110C50, symSize: 0x60 }
  - { offsetInCU: 0x246A, offset: 0x575212, size: 0x8, addend: 0x0, symName: '__ZN55_$LT$syn..token..Macro$u20$as$u20$syn..token..Token$GT$4peek17he0611b0349443e81E', symObjAddr: 0x2EB0, symBinAddr: 0x110CB0, symSize: 0x20 }
  - { offsetInCU: 0x24CD, offset: 0x575275, size: 0x8, addend: 0x0, symName: '__ZN53_$LT$syn..token..Mod$u20$as$u20$syn..token..Token$GT$4peek17h74a4826dd47e3e6eE', symObjAddr: 0x30F0, symBinAddr: 0x110CD0, symSize: 0x20 }
  - { offsetInCU: 0x2503, offset: 0x5752AB, size: 0x8, addend: 0x0, symName: '__ZN63_$LT$syn..token..Move$u20$as$u20$quote..to_tokens..ToTokens$GT$9to_tokens17hfc53a9310558a724E', symObjAddr: 0x3130, symBinAddr: 0x110CF0, symSize: 0x80 }
  - { offsetInCU: 0x2639, offset: 0x5753E1, size: 0x8, addend: 0x0, symName: '__ZN54_$LT$syn..token..Move$u20$as$u20$syn..token..Token$GT$4peek17h7d01db15b0371cceE', symObjAddr: 0x3210, symBinAddr: 0x110D70, symSize: 0x20 }
  - { offsetInCU: 0x266F, offset: 0x575417, size: 0x8, addend: 0x0, symName: '__ZN62_$LT$syn..token..Mut$u20$as$u20$quote..to_tokens..ToTokens$GT$9to_tokens17h65e7aec4e00a824aE', symObjAddr: 0x3250, symBinAddr: 0x110D90, symSize: 0x80 }
  - { offsetInCU: 0x27A5, offset: 0x57554D, size: 0x8, addend: 0x0, symName: '__ZN53_$LT$syn..token..Mut$u20$as$u20$syn..token..Token$GT$4peek17h98e42bddef3e0a22E', symObjAddr: 0x3330, symBinAddr: 0x110E10, symSize: 0x20 }
  - { offsetInCU: 0x2808, offset: 0x5755B0, size: 0x8, addend: 0x0, symName: '__ZN53_$LT$syn..token..Ref$u20$as$u20$syn..token..Token$GT$4peek17h3da8beae293f82f6E', symObjAddr: 0x37B0, symBinAddr: 0x110E30, symSize: 0x20 }
  - { offsetInCU: 0x283E, offset: 0x5755E6, size: 0x8, addend: 0x0, symName: '__ZN58_$LT$syn..token..SelfType$u20$as$u20$syn..token..Token$GT$4peek17hc1ce6132e604b21cE', symObjAddr: 0x39F0, symBinAddr: 0x110E50, symSize: 0x20 }
  - { offsetInCU: 0x2874, offset: 0x57561C, size: 0x8, addend: 0x0, symName: '__ZN59_$LT$syn..token..SelfValue$u20$as$u20$syn..token..Token$GT$4peek17hff0104bc0d4d51baE', symObjAddr: 0x3B10, symBinAddr: 0x110E70, symSize: 0x20 }
  - { offsetInCU: 0x28AA, offset: 0x575652, size: 0x8, addend: 0x0, symName: '__ZN56_$LT$syn..token..Static$u20$as$u20$syn..parse..Parse$GT$5parse17h4347f0d5ba2722bcE', symObjAddr: 0x3BD0, symBinAddr: 0x110E90, symSize: 0x60 }
  - { offsetInCU: 0x2931, offset: 0x5756D9, size: 0x8, addend: 0x0, symName: '__ZN56_$LT$syn..token..Static$u20$as$u20$syn..token..Token$GT$4peek17h5ec219d5f1c91b93E', symObjAddr: 0x3C30, symBinAddr: 0x110EF0, symSize: 0x20 }
  - { offsetInCU: 0x2967, offset: 0x57570F, size: 0x8, addend: 0x0, symName: '__ZN56_$LT$syn..token..Struct$u20$as$u20$syn..token..Token$GT$4peek17h5edcf684e7ec6370E', symObjAddr: 0x3D50, symBinAddr: 0x110F10, symSize: 0x20 }
  - { offsetInCU: 0x299D, offset: 0x575745, size: 0x8, addend: 0x0, symName: '__ZN55_$LT$syn..token..Super$u20$as$u20$syn..token..Token$GT$4peek17ha609af2487b5bfa9E', symObjAddr: 0x3E70, symBinAddr: 0x110F30, symSize: 0x20 }
  - { offsetInCU: 0x29D3, offset: 0x57577B, size: 0x8, addend: 0x0, symName: '__ZN55_$LT$syn..token..Trait$u20$as$u20$syn..token..Token$GT$4peek17hcfd44ad9738ca41fE', symObjAddr: 0x3F90, symBinAddr: 0x110F50, symSize: 0x20 }
  - { offsetInCU: 0x2A36, offset: 0x5757DE, size: 0x8, addend: 0x0, symName: '__ZN53_$LT$syn..token..Try$u20$as$u20$syn..token..Token$GT$4peek17h34e6cdd2fa15187cE', symObjAddr: 0x40B0, symBinAddr: 0x110F70, symSize: 0x20 }
  - { offsetInCU: 0x2A6C, offset: 0x575814, size: 0x8, addend: 0x0, symName: '__ZN54_$LT$syn..token..Type$u20$as$u20$syn..token..Token$GT$4peek17hca9c5e9bd0dd640dE', symObjAddr: 0x41D0, symBinAddr: 0x110F90, symSize: 0x20 }
  - { offsetInCU: 0x2AA2, offset: 0x57584A, size: 0x8, addend: 0x0, symName: '__ZN55_$LT$syn..token..Union$u20$as$u20$syn..token..Token$GT$4peek17hfe4da05fa09964ffE', symObjAddr: 0x4410, symBinAddr: 0x110FB0, symSize: 0x20 }
  - { offsetInCU: 0x2B05, offset: 0x5758AD, size: 0x8, addend: 0x0, symName: '__ZN56_$LT$syn..token..Unsafe$u20$as$u20$syn..parse..Parse$GT$5parse17h9c545ae7480a661bE', symObjAddr: 0x44D0, symBinAddr: 0x110FD0, symSize: 0x60 }
  - { offsetInCU: 0x2B8C, offset: 0x575934, size: 0x8, addend: 0x0, symName: '__ZN56_$LT$syn..token..Unsafe$u20$as$u20$syn..token..Token$GT$4peek17h8fab9a2efb3ee4c7E', symObjAddr: 0x4530, symBinAddr: 0x111030, symSize: 0x20 }
  - { offsetInCU: 0x2BC2, offset: 0x57596A, size: 0x8, addend: 0x0, symName: '__ZN53_$LT$syn..token..Use$u20$as$u20$syn..token..Token$GT$4peek17h370b8b005f72ed4aE', symObjAddr: 0x4770, symBinAddr: 0x111050, symSize: 0x20 }
  - { offsetInCU: 0x2C52, offset: 0x5759FA, size: 0x8, addend: 0x0, symName: '__ZN53_$LT$syn..token..And$u20$as$u20$syn..token..Token$GT$4peek17h4ed3a008d858f163E', symObjAddr: 0x4C90, symBinAddr: 0x111070, symSize: 0x20 }
  - { offsetInCU: 0x2CB5, offset: 0x575A5D, size: 0x8, addend: 0x0, symName: '__ZN55_$LT$syn..token..Colon$u20$as$u20$syn..parse..Parse$GT$5parse17h3063cb3e3ebc34a9E', symObjAddr: 0x5000, symBinAddr: 0x111090, symSize: 0x50 }
  - { offsetInCU: 0x2D17, offset: 0x575ABF, size: 0x8, addend: 0x0, symName: '__ZN55_$LT$syn..token..Colon$u20$as$u20$syn..token..Token$GT$4peek17he80a5de17f24d5edE', symObjAddr: 0x5050, symBinAddr: 0x1110E0, symSize: 0x20 }
  - { offsetInCU: 0x2D4D, offset: 0x575AF5, size: 0x8, addend: 0x0, symName: '__ZN55_$LT$syn..token..Comma$u20$as$u20$syn..parse..Parse$GT$5parse17hb823018bf88ed6f3E', symObjAddr: 0x50A0, symBinAddr: 0x111130, symSize: 0x50 }
  - { offsetInCU: 0x2DAF, offset: 0x575B57, size: 0x8, addend: 0x0, symName: '__ZN55_$LT$syn..token..Comma$u20$as$u20$syn..token..Token$GT$4peek17h26e1aacea26147a4E', symObjAddr: 0x50F0, symBinAddr: 0x111180, symSize: 0x20 }
  - { offsetInCU: 0x2E12, offset: 0x575BBA, size: 0x8, addend: 0x0, symName: '__ZN53_$LT$syn..token..Dot$u20$as$u20$syn..token..Token$GT$4peek17h3281d72a1d61740fE', symObjAddr: 0x5230, symBinAddr: 0x1111A0, symSize: 0x20 }
  - { offsetInCU: 0x2E75, offset: 0x575C1D, size: 0x8, addend: 0x0, symName: '__ZN56_$LT$syn..token..DotDot$u20$as$u20$syn..token..Token$GT$4peek17ha63e1c7cbaa5f07fE', symObjAddr: 0x52D0, symBinAddr: 0x1111C0, symSize: 0x20 }
  - { offsetInCU: 0x2EAB, offset: 0x575C53, size: 0x8, addend: 0x0, symName: '__ZN59_$LT$syn..token..DotDotDot$u20$as$u20$syn..token..Token$GT$4peek17hecd050b6405d9aa0E', symObjAddr: 0x5390, symBinAddr: 0x1111E0, symSize: 0x20 }
  - { offsetInCU: 0x2EE1, offset: 0x575C89, size: 0x8, addend: 0x0, symName: '__ZN58_$LT$syn..token..DotDotEq$u20$as$u20$syn..token..Token$GT$4peek17h9d3b070298fd3201E', symObjAddr: 0x5450, symBinAddr: 0x111200, symSize: 0x20 }
  - { offsetInCU: 0x2F44, offset: 0x575CEC, size: 0x8, addend: 0x0, symName: '__ZN52_$LT$syn..token..Eq$u20$as$u20$syn..parse..Parse$GT$5parse17h48510f330b26a2a8E', symObjAddr: 0x54A0, symBinAddr: 0x111220, symSize: 0x50 }
  - { offsetInCU: 0x2FA6, offset: 0x575D4E, size: 0x8, addend: 0x0, symName: '__ZN52_$LT$syn..token..Eq$u20$as$u20$syn..token..Token$GT$4peek17ha038331794dca79cE', symObjAddr: 0x54F0, symBinAddr: 0x111270, symSize: 0x20 }
  - { offsetInCU: 0x2FDC, offset: 0x575D84, size: 0x8, addend: 0x0, symName: '__ZN52_$LT$syn..token..Gt$u20$as$u20$syn..parse..Parse$GT$5parse17h685c1b33fdd3602dE', symObjAddr: 0x5720, symBinAddr: 0x111290, symSize: 0x50 }
  - { offsetInCU: 0x303E, offset: 0x575DE6, size: 0x8, addend: 0x0, symName: '__ZN52_$LT$syn..token..Gt$u20$as$u20$syn..token..Token$GT$4peek17h28c72eb0c24e86bbE', symObjAddr: 0x5770, symBinAddr: 0x1112E0, symSize: 0x20 }
  - { offsetInCU: 0x3074, offset: 0x575E1C, size: 0x8, addend: 0x0, symName: '__ZN52_$LT$syn..token..Lt$u20$as$u20$syn..token..Token$GT$4peek17hb09f0ef836a6a928E', symObjAddr: 0x5950, symBinAddr: 0x111300, symSize: 0x20 }
  - { offsetInCU: 0x30D7, offset: 0x575E7F, size: 0x8, addend: 0x0, symName: '__ZN53_$LT$syn..token..Not$u20$as$u20$syn..parse..Parse$GT$5parse17h0e126244166e20f8E', symObjAddr: 0x5B80, symBinAddr: 0x111320, symSize: 0x50 }
  - { offsetInCU: 0x3139, offset: 0x575EE1, size: 0x8, addend: 0x0, symName: '__ZN53_$LT$syn..token..Not$u20$as$u20$syn..token..Token$GT$4peek17h20b2571300a10670E', symObjAddr: 0x5BD0, symBinAddr: 0x111370, symSize: 0x20 }
  - { offsetInCU: 0x316F, offset: 0x575F17, size: 0x8, addend: 0x0, symName: '__ZN52_$LT$syn..token..Or$u20$as$u20$syn..token..Token$GT$4peek17haf7e709e752de2d5E', symObjAddr: 0x5C70, symBinAddr: 0x111390, symSize: 0x20 }
  - { offsetInCU: 0x31A5, offset: 0x575F4D, size: 0x8, addend: 0x0, symName: '__ZN57_$LT$syn..token..PathSep$u20$as$u20$syn..token..Token$GT$4peek17h734c6a0408fb2004E', symObjAddr: 0x5E50, symBinAddr: 0x1113B0, symSize: 0x20 }
  - { offsetInCU: 0x31DB, offset: 0x575F83, size: 0x8, addend: 0x0, symName: '__ZN54_$LT$syn..token..Plus$u20$as$u20$syn..parse..Parse$GT$5parse17h6443c7d34616ae6cE', symObjAddr: 0x5FE0, symBinAddr: 0x1113D0, symSize: 0x50 }
  - { offsetInCU: 0x326A, offset: 0x576012, size: 0x8, addend: 0x0, symName: '__ZN55_$LT$syn..token..Pound$u20$as$u20$syn..token..Token$GT$4peek17h12eda5e1e3c78599E', symObjAddr: 0x6170, symBinAddr: 0x111420, symSize: 0x20 }
  - { offsetInCU: 0x32CD, offset: 0x576075, size: 0x8, addend: 0x0, symName: '__ZN58_$LT$syn..token..Question$u20$as$u20$syn..token..Token$GT$4peek17hb56a1f23ffedbbd1E', symObjAddr: 0x6210, symBinAddr: 0x111440, symSize: 0x20 }
  - { offsetInCU: 0x3330, offset: 0x5760D8, size: 0x8, addend: 0x0, symName: '__ZN54_$LT$syn..token..Semi$u20$as$u20$syn..parse..Parse$GT$5parse17h922f96200e79aea7E', symObjAddr: 0x6300, symBinAddr: 0x111460, symSize: 0x50 }
  - { offsetInCU: 0x3392, offset: 0x57613A, size: 0x8, addend: 0x0, symName: '__ZN54_$LT$syn..token..Semi$u20$as$u20$syn..token..Token$GT$4peek17h50c830ee30ef3530E', symObjAddr: 0x6350, symBinAddr: 0x1114B0, symSize: 0x20 }
  - { offsetInCU: 0x33C8, offset: 0x576170, size: 0x8, addend: 0x0, symName: '__ZN55_$LT$syn..token..ShlEq$u20$as$u20$syn..parse..Parse$GT$5parse17hffdec08a82c79705E', symObjAddr: 0x6440, symBinAddr: 0x1114D0, symSize: 0x70 }
  - { offsetInCU: 0x347D, offset: 0x576225, size: 0x8, addend: 0x0, symName: '__ZN55_$LT$syn..token..ShrEq$u20$as$u20$syn..parse..Parse$GT$5parse17hd4adaf197d5b2e87E', symObjAddr: 0x65A0, symBinAddr: 0x111540, symSize: 0x70 }
  - { offsetInCU: 0x3532, offset: 0x5762DA, size: 0x8, addend: 0x0, symName: '__ZN54_$LT$syn..token..Star$u20$as$u20$syn..token..Token$GT$4peek17h14add24fe44afe84E', symObjAddr: 0x67F0, symBinAddr: 0x1115B0, symSize: 0x20 }
  - { offsetInCU: 0xA9CB, offset: 0x57D773, size: 0x8, addend: 0x0, symName: '__ZN4core3ptr45drop_in_place$LT$proc_macro2..TokenStream$GT$17h76e8e68015f4924dE.llvm.2200051395882591536', symObjAddr: 0x720, symBinAddr: 0x110220, symSize: 0x140 }
  - { offsetInCU: 0xAE27, offset: 0x57DBCF, size: 0x8, addend: 0x0, symName: '__ZN4core3ptr65drop_in_place$LT$alloc..vec..Vec$LT$proc_macro..TokenTree$GT$$GT$17h8abd81f8596dbc59E.llvm.2200051395882591536', symObjAddr: 0x860, symBinAddr: 0x110360, symSize: 0x110 }
  - { offsetInCU: 0x1055E, offset: 0x583306, size: 0x8, addend: 0x0, symName: __ZN3syn5token5Group8surround17heff89b5b653592dfE, symObjAddr: 0xE00, symBinAddr: 0x110660, symSize: 0x120 }
  - { offsetInCU: 0x10756, offset: 0x5834FE, size: 0x8, addend: 0x0, symName: __ZN3syn5token5Brace8surround17h054d6fe3dea87f3aE, symObjAddr: 0x6FA0, symBinAddr: 0x1115D0, symSize: 0x0 }
  - { offsetInCU: 0x109E8, offset: 0x583790, size: 0x8, addend: 0x0, symName: __ZN3syn5token5Brace8surround17h177bd1fb5200ae88E, symObjAddr: 0x7120, symBinAddr: 0x111750, symSize: 0x130 }
  - { offsetInCU: 0x10C6C, offset: 0x583A14, size: 0x8, addend: 0x0, symName: __ZN3syn5token5Brace8surround17h203049190772705cE, symObjAddr: 0x7250, symBinAddr: 0x111880, symSize: 0x200 }
  - { offsetInCU: 0x1130F, offset: 0x5840B7, size: 0x8, addend: 0x0, symName: __ZN3syn5token5Brace8surround17h296fbc9aacc45e8dE, symObjAddr: 0x7450, symBinAddr: 0x111A80, symSize: 0x150 }
  - { offsetInCU: 0x11622, offset: 0x5843CA, size: 0x8, addend: 0x0, symName: __ZN3syn5token5Brace8surround17h3cd15e098182f2caE, symObjAddr: 0x75A0, symBinAddr: 0x111BD0, symSize: 0x220 }
  - { offsetInCU: 0x11AF0, offset: 0x584898, size: 0x8, addend: 0x0, symName: __ZN3syn5token5Brace8surround17h4300b93fb32218b3E, symObjAddr: 0x77C0, symBinAddr: 0x111DF0, symSize: 0x1A0 }
  - { offsetInCU: 0x1201F, offset: 0x584DC7, size: 0x8, addend: 0x0, symName: __ZN3syn5token5Brace8surround17h57503f340a17145cE, symObjAddr: 0x7960, symBinAddr: 0x111F90, symSize: 0x220 }
  - { offsetInCU: 0x124BA, offset: 0x585262, size: 0x8, addend: 0x0, symName: __ZN3syn5token5Brace8surround17h5add098b3195aebcE, symObjAddr: 0x7B80, symBinAddr: 0x1121B0, symSize: 0x200 }
  - { offsetInCU: 0x12BF9, offset: 0x5859A1, size: 0x8, addend: 0x0, symName: __ZN3syn5token5Brace8surround17h73c06cfc29e80b79E, symObjAddr: 0x80A0, symBinAddr: 0x1123B0, symSize: 0x200 }
  - { offsetInCU: 0x1329C, offset: 0x586044, size: 0x8, addend: 0x0, symName: __ZN3syn5token5Brace8surround17h81a192f6e1ba3b25E, symObjAddr: 0x82A0, symBinAddr: 0x1125B0, symSize: 0x220 }
  - { offsetInCU: 0x1378D, offset: 0x586535, size: 0x8, addend: 0x0, symName: __ZN3syn5token5Brace8surround17h885eae5b5f18a737E, symObjAddr: 0x84C0, symBinAddr: 0x1127D0, symSize: 0x230 }
  - { offsetInCU: 0x13E3F, offset: 0x586BE7, size: 0x8, addend: 0x0, symName: __ZN3syn5token5Brace8surround17h8dc2f11f6889f4faE, symObjAddr: 0x86F0, symBinAddr: 0x112A00, symSize: 0x0 }
  - { offsetInCU: 0x144E2, offset: 0x58728A, size: 0x8, addend: 0x0, symName: __ZN3syn5token5Brace8surround17h8f64d8eb67893fd1E, symObjAddr: 0x88F0, symBinAddr: 0x112C00, symSize: 0x220 }
  - { offsetInCU: 0x14977, offset: 0x58771F, size: 0x8, addend: 0x0, symName: __ZN3syn5token5Brace8surround17h9105a8ad28ee9eacE, symObjAddr: 0x8B10, symBinAddr: 0x112E20, symSize: 0x220 }
  - { offsetInCU: 0x14F2E, offset: 0x587CD6, size: 0x8, addend: 0x0, symName: __ZN3syn5token5Brace8surround17ha088df153eae400eE, symObjAddr: 0x8D30, symBinAddr: 0x113040, symSize: 0x260 }
  - { offsetInCU: 0x156A3, offset: 0x58844B, size: 0x8, addend: 0x0, symName: __ZN3syn5token5Brace8surround17hbe01d651f653d8afE, symObjAddr: 0x8F90, symBinAddr: 0x1132A0, symSize: 0x590 }
  - { offsetInCU: 0x1629F, offset: 0x589047, size: 0x8, addend: 0x0, symName: __ZN3syn5token5Brace8surround17hc01d55ce5137971fE, symObjAddr: 0x9520, symBinAddr: 0x113830, symSize: 0x220 }
  - { offsetInCU: 0x1672F, offset: 0x5894D7, size: 0x8, addend: 0x0, symName: __ZN3syn5token5Brace8surround17hcac216a5876b7b90E, symObjAddr: 0x9740, symBinAddr: 0x113A50, symSize: 0x180 }
  - { offsetInCU: 0x169C1, offset: 0x589769, size: 0x8, addend: 0x0, symName: __ZN3syn5token5Brace8surround17hd179764b3f344586E, symObjAddr: 0x98C0, symBinAddr: 0x113BD0, symSize: 0x220 }
  - { offsetInCU: 0x16ECB, offset: 0x589C73, size: 0x8, addend: 0x0, symName: __ZN3syn5token5Brace8surround17hd326a20e95a92237E, symObjAddr: 0x9AE0, symBinAddr: 0x113DF0, symSize: 0x470 }
  - { offsetInCU: 0x17AC3, offset: 0x58A86B, size: 0x8, addend: 0x0, symName: __ZN3syn5token5Brace8surround17hdec488e9714715d6E, symObjAddr: 0x9F50, symBinAddr: 0x114260, symSize: 0x1B0 }
  - { offsetInCU: 0x18041, offset: 0x58ADE9, size: 0x8, addend: 0x0, symName: __ZN3syn5token5Brace8surround17heb4093c015441ecaE, symObjAddr: 0xA100, symBinAddr: 0x114410, symSize: 0x200 }
  - { offsetInCU: 0x186A7, offset: 0x58B44F, size: 0x8, addend: 0x0, symName: __ZN3syn5token7Bracket8surround17h39ed741deec0cbbcE, symObjAddr: 0xA320, symBinAddr: 0x114610, symSize: 0x130 }
  - { offsetInCU: 0x18890, offset: 0x58B638, size: 0x8, addend: 0x0, symName: __ZN3syn5token7Bracket8surround17h4010ca43394a9eecE, symObjAddr: 0xA450, symBinAddr: 0x114740, symSize: 0x1A0 }
  - { offsetInCU: 0x18E09, offset: 0x58BBB1, size: 0x8, addend: 0x0, symName: __ZN3syn5token7Bracket8surround17h5da20462893431d0E, symObjAddr: 0xA790, symBinAddr: 0x1148E0, symSize: 0x130 }
  - { offsetInCU: 0x1901F, offset: 0x58BDC7, size: 0x8, addend: 0x0, symName: __ZN3syn5token7Bracket8surround17ha5aff01b8fd5a0e1E, symObjAddr: 0xA9F0, symBinAddr: 0x114A10, symSize: 0x160 }
  - { offsetInCU: 0x19256, offset: 0x58BFFE, size: 0x8, addend: 0x0, symName: __ZN3syn5token7Bracket8surround17hc7c268cb755c8c19E, symObjAddr: 0xAB50, symBinAddr: 0x114B70, symSize: 0x150 }
  - { offsetInCU: 0x194B5, offset: 0x58C25D, size: 0x8, addend: 0x0, symName: __ZN3syn5token7Bracket8surround17hfab81345bbdd2f89E, symObjAddr: 0xACA0, symBinAddr: 0x114CC0, symSize: 0x130 }
  - { offsetInCU: 0x196A3, offset: 0x58C44B, size: 0x8, addend: 0x0, symName: __ZN3syn5token5Paren8surround17h0c12e09da3aa8e34E, symObjAddr: 0xADF0, symBinAddr: 0x114DF0, symSize: 0x1F0 }
  - { offsetInCU: 0x199C7, offset: 0x58C76F, size: 0x8, addend: 0x0, symName: __ZN3syn5token5Paren8surround17h16e802a9434a262fE, symObjAddr: 0xAFE0, symBinAddr: 0x114FE0, symSize: 0x210 }
  - { offsetInCU: 0x1A124, offset: 0x58CECC, size: 0x8, addend: 0x0, symName: __ZN3syn5token5Paren8surround17h28d44f6895295df5E, symObjAddr: 0xB1F0, symBinAddr: 0x1151F0, symSize: 0x1FC0 }
  - { offsetInCU: 0x21BC6, offset: 0x59496E, size: 0x8, addend: 0x0, symName: __ZN3syn5token5Paren8surround17h38eece4b36020a96E, symObjAddr: 0xD1B0, symBinAddr: 0x1171B0, symSize: 0x1A0 }
  - { offsetInCU: 0x221A1, offset: 0x594F49, size: 0x8, addend: 0x0, symName: __ZN3syn5token5Paren8surround17h4007655ded83f205E, symObjAddr: 0xD350, symBinAddr: 0x117350, symSize: 0x240 }
  - { offsetInCU: 0x2284D, offset: 0x5955F5, size: 0x8, addend: 0x0, symName: __ZN3syn5token5Paren8surround17h4549913c098e8324E, symObjAddr: 0xD590, symBinAddr: 0x117590, symSize: 0x590 }
  - { offsetInCU: 0x2348A, offset: 0x596232, size: 0x8, addend: 0x0, symName: __ZN3syn5token5Paren8surround17h4bee939971f7badbE, symObjAddr: 0xDB20, symBinAddr: 0x117B20, symSize: 0x1A0 }
  - { offsetInCU: 0x239BA, offset: 0x596762, size: 0x8, addend: 0x0, symName: __ZN3syn5token5Paren8surround17h659862ce9b85cd3fE, symObjAddr: 0xDE60, symBinAddr: 0x117CC0, symSize: 0x120 }
  - { offsetInCU: 0x23C23, offset: 0x5969CB, size: 0x8, addend: 0x0, symName: __ZN3syn5token5Paren8surround17h65f8affeb8dd01f8E, symObjAddr: 0xDF80, symBinAddr: 0x117DE0, symSize: 0x260 }
  - { offsetInCU: 0x2434E, offset: 0x5970F6, size: 0x8, addend: 0x0, symName: __ZN3syn5token5Paren8surround17h8213022939b4c94aE, symObjAddr: 0xE1E0, symBinAddr: 0x118040, symSize: 0x210 }
  - { offsetInCU: 0x249C3, offset: 0x59776B, size: 0x8, addend: 0x0, symName: __ZN3syn5token5Paren8surround17h913431f398679f5cE, symObjAddr: 0xE3F0, symBinAddr: 0x118250, symSize: 0x460 }
  - { offsetInCU: 0x2558A, offset: 0x598332, size: 0x8, addend: 0x0, symName: __ZN3syn5token5Paren8surround17h94193c74c4feae5eE, symObjAddr: 0xE850, symBinAddr: 0x1186B0, symSize: 0x120 }
  - { offsetInCU: 0x257AD, offset: 0x598555, size: 0x8, addend: 0x0, symName: __ZN3syn5token5Paren8surround17hab374b99a74045c1E, symObjAddr: 0xE970, symBinAddr: 0x1187D0, symSize: 0x180 }
  - { offsetInCU: 0x25AE8, offset: 0x598890, size: 0x8, addend: 0x0, symName: __ZN3syn5token5Paren8surround17hc5047487c1c6e5cbE, symObjAddr: 0xEAF0, symBinAddr: 0x118950, symSize: 0x130 }
  - { offsetInCU: 0x25CB6, offset: 0x598A5E, size: 0x8, addend: 0x0, symName: __ZN3syn5token5Paren8surround17hd13f0c3754c57ba1E, symObjAddr: 0xEC20, symBinAddr: 0x118A80, symSize: 0x1A0 }
  - { offsetInCU: 0x26208, offset: 0x598FB0, size: 0x8, addend: 0x0, symName: __ZN3syn5token5Paren8surround17hef6358969a27e005E, symObjAddr: 0xF000, symBinAddr: 0x118C20, symSize: 0x1BA }
  - { offsetInCU: 0x15C9, offset: 0x5A3968, size: 0x8, addend: 0x0, symName: '__ZN3syn2ty8printing76_$LT$impl$u20$quote..to_tokens..ToTokens$u20$for$u20$syn..ty..TypeBareFn$GT$9to_tokens17h9ada785e3c4ac8beE', symObjAddr: 0xB6E0, symBinAddr: 0x1225B0, symSize: 0x210 }
  - { offsetInCU: 0x1CB0, offset: 0x5A404F, size: 0x8, addend: 0x0, symName: '__ZN3syn2ty8printing78_$LT$impl$u20$quote..to_tokens..ToTokens$u20$for$u20$syn..ty..BareVariadic$GT$9to_tokens17hd841e8aff45580ffE', symObjAddr: 0xBF60, symBinAddr: 0x1227C0, symSize: 0x130 }
  - { offsetInCU: 0x1F7F, offset: 0x5A431E, size: 0x8, addend: 0x0, symName: '__ZN3syn2ty7parsing64_$LT$impl$u20$syn..parse..Parse$u20$for$u20$syn..ty..TypePtr$GT$5parse17hb3a631f8b5050729E', symObjAddr: 0x86C0, symBinAddr: 0x120370, symSize: 0x440 }
  - { offsetInCU: 0x2BBD, offset: 0x5A4F5C, size: 0x8, addend: 0x0, symName: '__ZN3syn2ty7parsing70_$LT$impl$u20$syn..parse..Parse$u20$for$u20$syn..ty..TypeReference$GT$5parse17h28b5cea3a2a5f18cE', symObjAddr: 0x8B00, symBinAddr: 0x1207B0, symSize: 0x3C0 }
  - { offsetInCU: 0x332F, offset: 0x5A56CE, size: 0x8, addend: 0x0, symName: '__ZN3syn2ty7parsing67_$LT$impl$u20$syn..parse..Parse$u20$for$u20$syn..ty..TypeBareFn$GT$5parse17hc7333311caab7003E', symObjAddr: 0x8EC0, symBinAddr: 0x120B70, symSize: 0x1020 }
  - { offsetInCU: 0x501A, offset: 0x5A73B9, size: 0x8, addend: 0x0, symName: '__ZN3syn2ty7parsing66_$LT$impl$u20$syn..parse..Parse$u20$for$u20$syn..ty..TypeNever$GT$5parse17hedcf4bce6d4b8acdE', symObjAddr: 0x9EE0, symBinAddr: 0x121B90, symSize: 0x50 }
  - { offsetInCU: 0x50C8, offset: 0x5A7467, size: 0x8, addend: 0x0, symName: '__ZN3syn2ty7parsing72_$LT$impl$u20$syn..parse..Parse$u20$for$u20$syn..ty..TypeTraitObject$GT$5parse17h2a2e48674bf544ceE', symObjAddr: 0xA790, symBinAddr: 0x121DA0, symSize: 0x190 }
  - { offsetInCU: 0x5708, offset: 0x5A7AA7, size: 0x8, addend: 0x0, symName: '__ZN3syn2ty7parsing66_$LT$impl$u20$syn..parse..Parse$u20$for$u20$syn..ty..TypeGroup$GT$5parse17h320d676d6240d83aE', symObjAddr: 0xAF50, symBinAddr: 0x122390, symSize: 0x220 }
  - { offsetInCU: 0x5C90, offset: 0x5A802F, size: 0x8, addend: 0x0, symName: '__ZN60_$LT$syn..ty..Type$u20$as$u20$quote..to_tokens..ToTokens$GT$9to_tokens17hc517846047fbd8d3E', symObjAddr: 0xC130, symBinAddr: 0x1228F0, symSize: 0x800 }
  - { offsetInCU: 0x80C4, offset: 0x5AA463, size: 0x8, addend: 0x0, symName: '__ZN77_$LT$$RF$$u5b$syn..attr..Attribute$u5d$$u20$as$u20$syn..attr..FilterAttrs$GT$5outer8is_outer17h41e17c2f166a63adE.llvm.7433280464014642904', symObjAddr: 0x7F60, symBinAddr: 0x120350, symSize: 0x20 }
  - { offsetInCU: 0xAD62, offset: 0x5AD101, size: 0x8, addend: 0x0, symName: '__ZN3syn3gen5clone67_$LT$impl$u20$core..clone..Clone$u20$for$u20$syn..ty..BareFnArg$GT$5clone17h322032e98041fe57E', symObjAddr: 0xC960, symBinAddr: 0x1230F0, symSize: 0x140 }
  - { offsetInCU: 0xB1D7, offset: 0x5AD576, size: 0x8, addend: 0x0, symName: '__ZN3syn3gen5clone62_$LT$impl$u20$core..clone..Clone$u20$for$u20$syn..ty..Type$GT$5clone17hab6b515cddcf12a4E', symObjAddr: 0xCC10, symBinAddr: 0x123230, symSize: 0x8A0 }
  - { offsetInCU: 0xC9C7, offset: 0x5AED66, size: 0x8, addend: 0x0, symName: '__ZN3syn3gen5clone68_$LT$impl$u20$core..clone..Clone$u20$for$u20$syn..ty..TypeBareFn$GT$5clone17h93542e2290e09c95E', symObjAddr: 0xD5C0, symBinAddr: 0x123AD0, symSize: 0x490 }
  - { offsetInCU: 0xFBC5, offset: 0x5B1F64, size: 0x8, addend: 0x0, symName: '__ZN4core3ptr100drop_in_place$LT$core..option..Option$LT$alloc..boxed..Box$LT$syn..path..GenericArgument$GT$$GT$$GT$17h3a7c44b9e57fe410E', symObjAddr: 0x1D0, symBinAddr: 0x118DE0, symSize: 0x50 }
  - { offsetInCU: 0xFF63, offset: 0x5B2302, size: 0x8, addend: 0x0, symName: '__ZN4core3ptr100drop_in_place$LT$syn..punctuated..Punctuated$LT$syn..path..PathSegment$C$syn..token..PathSep$GT$$GT$17he41ef64147139591E', symObjAddr: 0x220, symBinAddr: 0x118E30, symSize: 0x2B0 }
  - { offsetInCU: 0x10A19, offset: 0x5B2DB8, size: 0x8, addend: 0x0, symName: '__ZN4core3ptr103drop_in_place$LT$core..option..Option$LT$alloc..boxed..Box$LT$syn..generics..TypeParamBound$GT$$GT$$GT$17hb14e4384a768542bE', symObjAddr: 0x4D0, symBinAddr: 0x1190E0, symSize: 0x50 }
  - { offsetInCU: 0x10C24, offset: 0x5B2FC3, size: 0x8, addend: 0x0, symName: '__ZN4core3ptr103drop_in_place$LT$syn..punctuated..Punctuated$LT$syn..generics..GenericParam$C$syn..token..Comma$GT$$GT$17h0c6077a988036760E', symObjAddr: 0x520, symBinAddr: 0x119130, symSize: 0xF0 }
  - { offsetInCU: 0x1111F, offset: 0x5B34BE, size: 0x8, addend: 0x0, symName: '__ZN4core3ptr104drop_in_place$LT$syn..punctuated..Punctuated$LT$syn..generics..TypeParamBound$C$syn..token..Plus$GT$$GT$17h724e4d9d1d65061aE', symObjAddr: 0x610, symBinAddr: 0x119220, symSize: 0x190 }
  - { offsetInCU: 0x117BE, offset: 0x5B3B5D, size: 0x8, addend: 0x0, symName: '__ZN4core3ptr34drop_in_place$LT$syn..lit..Lit$GT$17hd64dde89a262341dE', symObjAddr: 0x7A0, symBinAddr: 0x1193B0, symSize: 0x120 }
  - { offsetInCU: 0x11CAC, offset: 0x5B404B, size: 0x8, addend: 0x0, symName: '__ZN4core3ptr34drop_in_place$LT$syn..pat..Pat$GT$17hf88887878261d63cE', symObjAddr: 0x8C0, symBinAddr: 0x1194D0, symSize: 0x1100 }
  - { offsetInCU: 0x16325, offset: 0x5B86C4, size: 0x8, addend: 0x0, symName: '__ZN4core3ptr34drop_in_place$LT$syn..ty..Type$GT$17ha80dd29b0f9d4a3fE.llvm.7433280464014642904', symObjAddr: 0x19C0, symBinAddr: 0x11A5D0, symSize: 0x510 }
  - { offsetInCU: 0x1798B, offset: 0x5B9D2A, size: 0x8, addend: 0x0, symName: '__ZN4core3ptr36drop_in_place$LT$syn..expr..Expr$GT$17h10f573b40ddd212cE', symObjAddr: 0x1ED0, symBinAddr: 0x11AAE0, symSize: 0x2840 }
  - { offsetInCU: 0x21A69, offset: 0x5C3E08, size: 0x8, addend: 0x0, symName: '__ZN4core3ptr36drop_in_place$LT$syn..mac..Macro$GT$17hc3b30a7a8a34cc2dE', symObjAddr: 0x4710, symBinAddr: 0x11D320, symSize: 0x40 }
  - { offsetInCU: 0x21AA3, offset: 0x5C3E42, size: 0x8, addend: 0x0, symName: '__ZN4core3ptr36drop_in_place$LT$syn..path..Path$GT$17h75c74a97d5f0a03bE', symObjAddr: 0x4750, symBinAddr: 0x11D360, symSize: 0x280 }
  - { offsetInCU: 0x22550, offset: 0x5C48EF, size: 0x8, addend: 0x0, symName: '__ZN4core3ptr37drop_in_place$LT$syn..stmt..Block$GT$17h6fc3254d5688f2c3E', symObjAddr: 0x49D0, symBinAddr: 0x11D5E0, symSize: 0xD0 }
  - { offsetInCU: 0x22827, offset: 0x5C4BC6, size: 0x8, addend: 0x0, symName: '__ZN4core3ptr38drop_in_place$LT$syn..expr..Member$GT$17h6b0cf84594ce6bceE', symObjAddr: 0x4AA0, symBinAddr: 0x11D6B0, symSize: 0x30 }
