---
triple:          'x86_64-apple-darwin'
binary-path:     "/Users/justinlanouette/Chaos/ChaöS-Token/hello_world/target/release/build/ahash-cbdf8f5e8b920677/build_script_build-cbdf8f5e8b920677"
relocations:
  - { offsetInCU: 0x1E, offset: 0x1E, size: 0x8, addend: 0x0, symName: '__ZN4core3ptr39drop_in_place$LT$std..env..VarError$GT$17hba3a82c3ca84109fE', symObjAddr: 0x0, symBinAddr: 0x1000015D0, symSize: 0x30 }
  - { offsetInCU: 0x92, offset: 0x92, size: 0x8, addend: 0x0, symName: '__ZN55_$LT$std..env..VarError$u20$as$u20$core..fmt..Debug$GT$3fmt17hf9237b4ce8a4fbe3E', symObjAddr: 0xE0, symBinAddr: 0x1000016B0, symSize: 0x50 }
  - { offsetInCU: 0x2CA, offset: 0x2CA, size: 0x8, addend: 0x0, symName: '__ZN4core3ptr39drop_in_place$LT$std..env..VarError$GT$17hba3a82c3ca84109fE', symObjAddr: 0x0, symBinAddr: 0x1000015D0, symSize: 0x30 }
  - { offsetInCU: 0x407, offset: 0x407, size: 0x8, addend: 0x0, symName: '__ZN4core3ptr51drop_in_place$LT$$RF$std..ffi..os_str..OsString$GT$17h607ef9db5fdc634dE', symObjAddr: 0x30, symBinAddr: 0x100001600, symSize: 0x10 }
  - { offsetInCU: 0xAB6, offset: 0xAB6, size: 0x8, addend: 0x0, symName: '__ZN4core5slice5ascii30_$LT$impl$u20$$u5b$u8$u5d$$GT$20eq_ignore_ascii_case17hed5578f88c190e7eE', symObjAddr: 0x40, symBinAddr: 0x100001610, symSize: 0xA0 }
  - { offsetInCU: 0x1319, offset: 0x1319, size: 0x8, addend: 0x0, symName: __ZN18build_script_build4main17hcb98fecc6e322e16E, symObjAddr: 0x130, symBinAddr: 0x100001700, symSize: 0xDC0 }
  - { offsetInCU: 0x1E, offset: 0x2F85, size: 0x8, addend: 0x0, symName: __ZN3std2rt10lang_start17h4e550b0fb3061425E, symObjAddr: 0x0, symBinAddr: 0x1000024E0, symSize: 0x30 }
  - { offsetInCU: 0x5B, offset: 0x2FC2, size: 0x8, addend: 0x0, symName: '__ZN3std2rt10lang_start28_$u7b$$u7b$closure$u7d$$u7d$17hbdd8a3c13bcea911E', symObjAddr: 0x30, symBinAddr: 0x100002510, symSize: 0x10 }
  - { offsetInCU: 0x9F, offset: 0x3006, size: 0x8, addend: 0x0, symName: __ZN3std2rt10lang_start17h4e550b0fb3061425E, symObjAddr: 0x0, symBinAddr: 0x1000024E0, symSize: 0x30 }
  - { offsetInCU: 0x15E, offset: 0x30C5, size: 0x8, addend: 0x0, symName: '__ZN4core3ops8function6FnOnce40call_once$u7b$$u7b$vtable.shim$u7d$$u7d$17h23e02d497ccc64a8E', symObjAddr: 0x40, symBinAddr: 0x100002520, symSize: 0x10 }
  - { offsetInCU: 0x1D8, offset: 0x313F, size: 0x8, addend: 0x0, symName: '__ZN4core3ptr85drop_in_place$LT$std..rt..lang_start$LT$$LP$$RP$$GT$..$u7b$$u7b$closure$u7d$$u7d$$GT$17he4f38dd3e2fba987E', symObjAddr: 0x50, symBinAddr: 0x100002530, symSize: 0x6 }
  - { offsetInCU: 0x1E, offset: 0x31C0, size: 0x8, addend: 0x0, symName: __ZN3std10sys_common9backtrace28__rust_begin_short_backtrace17h384d65f304327921E, symObjAddr: 0x0, symBinAddr: 0x100002540, symSize: 0x8 }
  - { offsetInCU: 0xBF, offset: 0x3261, size: 0x8, addend: 0x0, symName: __ZN3std10sys_common9backtrace28__rust_begin_short_backtrace17h384d65f304327921E, symObjAddr: 0x0, symBinAddr: 0x100002540, symSize: 0x8 }
  - { offsetInCU: 0x1E, offset: 0x3306, size: 0x8, addend: 0x0, symName: '__ZN42_$LT$$RF$T$u20$as$u20$core..fmt..Debug$GT$3fmt17hc474965dd3a21038E', symObjAddr: 0x0, symBinAddr: 0x100002550, symSize: 0xD }
  - { offsetInCU: 0x64, offset: 0x334C, size: 0x8, addend: 0x0, symName: '__ZN42_$LT$$RF$T$u20$as$u20$core..fmt..Debug$GT$3fmt17hc474965dd3a21038E', symObjAddr: 0x0, symBinAddr: 0x100002550, symSize: 0xD }
  - { offsetInCU: 0x1E, offset: 0x36D6, size: 0x8, addend: 0x0, symName: '__ZN4core3ptr42drop_in_place$LT$std..process..Command$GT$17h8b065d755e101fe0E', symObjAddr: 0x0, symBinAddr: 0x1000025A0, symSize: 0x250 }
  - { offsetInCU: 0xEFE, offset: 0x45B6, size: 0x8, addend: 0x0, symName: '__ZN4core3ptr42drop_in_place$LT$std..process..Command$GT$17h8b065d755e101fe0E', symObjAddr: 0x0, symBinAddr: 0x1000025A0, symSize: 0x250 }
  - { offsetInCU: 0x30DC, offset: 0x6794, size: 0x8, addend: 0x0, symName: '__ZN81_$LT$core..str..pattern..CharSearcher$u20$as$u20$core..str..pattern..Searcher$GT$10next_match17hc7a77fb1661897c4E', symObjAddr: 0x9A0, symBinAddr: 0x100002F40, symSize: 0x200 }
  - { offsetInCU: 0x4E86, offset: 0x853E, size: 0x8, addend: 0x0, symName: '__ZN13version_check43version_and_date_from_rustc_verbose_version28_$u7b$$u7b$closure$u7d$$u7d$17h4fb9aa5ad5da3a21E', symObjAddr: 0xBA0, symBinAddr: 0x100003140, symSize: 0x140 }
  - { offsetInCU: 0x561C, offset: 0x8CD4, size: 0x8, addend: 0x0, symName: __ZN13version_check20get_version_and_date17h8cceddac134abb74E, symObjAddr: 0xCE0, symBinAddr: 0x100003280, symSize: 0xB10 }
  - { offsetInCU: 0x99FA, offset: 0xD0B2, size: 0x8, addend: 0x0, symName: '__ZN4core3str4iter22SplitInternal$LT$P$GT$19next_back_inclusive17h15ec9d8aff1bf50cE', symObjAddr: 0x250, symBinAddr: 0x1000027F0, symSize: 0x1F0 }
  - { offsetInCU: 0x9F3D, offset: 0xD5F5, size: 0x8, addend: 0x0, symName: '__ZN4core3str4iter22SplitInternal$LT$P$GT$4next17h6e8f1040ff85ba34E', symObjAddr: 0x440, symBinAddr: 0x1000029E0, symSize: 0x560 }
  - { offsetInCU: 0xBA7, offset: 0x101C4, size: 0x8, addend: 0x0, symName: '__ZN4core3str21_$LT$impl$u20$str$GT$12trim_matches17hba6316cc224fda15E', symObjAddr: 0x40, symBinAddr: 0x100003D90, symSize: 0x2D0 }
  - { offsetInCU: 0x14D9, offset: 0x10AF6, size: 0x8, addend: 0x0, symName: '__ZN4core3str21_$LT$impl$u20$str$GT$16trim_end_matches17h1f23a69ffe20f705E', symObjAddr: 0x310, symBinAddr: 0x100004060, symSize: 0x5E0 }
  - { offsetInCU: 0x19FB, offset: 0x11018, size: 0x8, addend: 0x0, symName: '__ZN4core3str21_$LT$impl$u20$str$GT$16trim_end_matches17hc21b4bceb5532df4E', symObjAddr: 0x8F0, symBinAddr: 0x100004640, symSize: 0x130 }
  - { offsetInCU: 0x1F81, offset: 0x1159E, size: 0x8, addend: 0x0, symName: '__ZN4core3str21_$LT$impl$u20$str$GT$18trim_start_matches17hbd683a569d9479acE', symObjAddr: 0x1010, symBinAddr: 0x100004770, symSize: 0x191 }
  - { offsetInCU: 0x1E, offset: 0x12E0E, size: 0x8, addend: 0x0, symName: '__ZN4core3str7pattern13simd_contains28_$u7b$$u7b$closure$u7d$$u7d$17h82bc0617bd012a47E', symObjAddr: 0x0, symBinAddr: 0x100049F60, symSize: 0x130 }
  - { offsetInCU: 0x3AF, offset: 0x1319F, size: 0x8, addend: 0x0, symName: '__ZN4core3str7pattern13simd_contains28_$u7b$$u7b$closure$u7d$$u7d$17h82bc0617bd012a47E', symObjAddr: 0x0, symBinAddr: 0x100049F60, symSize: 0x130 }
  - { offsetInCU: 0xBEA, offset: 0x139DA, size: 0x8, addend: 0x0, symName: '__ZN55_$LT$$RF$str$u20$as$u20$core..str..pattern..Pattern$GT$15is_contained_in17hbbef826cef545265E.llvm.12511697664242607515', symObjAddr: 0x460, symBinAddr: 0x100004C40, symSize: 0x720 }
  - { offsetInCU: 0x41EB, offset: 0x16FDB, size: 0x8, addend: 0x0, symName: __ZN4core3str7pattern14TwoWaySearcher4next17h09a436f612872d93E, symObjAddr: 0x130, symBinAddr: 0x100004910, symSize: 0x330 }
  - { offsetInCU: 0x4794, offset: 0x17584, size: 0x8, addend: 0x0, symName: __ZN13version_check7channel7Channel4read17hb90e5f44c0e948f7E, symObjAddr: 0xB80, symBinAddr: 0x100005360, symSize: 0xA0 }
  - { offsetInCU: 0x4ACD, offset: 0x178BD, size: 0x8, addend: 0x0, symName: __ZN13version_check7channel7Channel5parse17h2fbea84511702cd9E, symObjAddr: 0xC20, symBinAddr: 0x100005400, symSize: 0x140 }
  - { offsetInCU: 0x72A, offset: 0x1855C, size: 0x8, addend: 0x0, symName: '__ZN90_$LT$core..str..iter..Split$LT$P$GT$$u20$as$u20$core..iter..traits..iterator..Iterator$GT$4next17h63510ed30587137fE', symObjAddr: 0x30, symBinAddr: 0x100005540, symSize: 0x220 }
  - { offsetInCU: 0x194C, offset: 0x1977E, size: 0x8, addend: 0x0, symName: __ZN13version_check7version7Version4read17hf4e160da44b602a4E, symObjAddr: 0x250, symBinAddr: 0x100005760, symSize: 0xB0 }
  - { offsetInCU: 0x1DA7, offset: 0x19BD9, size: 0x8, addend: 0x0, symName: __ZN13version_check7version7Version5parse17hce6c79ff7c0ea755E, symObjAddr: 0x300, symBinAddr: 0x100005810, symSize: 0x140 }
  - { offsetInCU: 0x207F, offset: 0x19EB1, size: 0x8, addend: 0x0, symName: __ZN13version_check7version7Version7at_most17h6594d61fca695cecE, symObjAddr: 0x470, symBinAddr: 0x100005950, symSize: 0x30 }
  - { offsetInCU: 0x53E, offset: 0x1A666, size: 0x8, addend: 0x0, symName: '__ZN70_$LT$alloc..vec..Vec$LT$T$C$A$GT$$u20$as$u20$core..ops..drop..Drop$GT$4drop17hef4d2a026fd19792E', symObjAddr: 0x60, symBinAddr: 0x100005980, symSize: 0xE8 }
  - { offsetInCU: 0x1E, offset: 0x1AC67, size: 0x8, addend: 0x0, symName: '__ZN99_$LT$alloc..collections..btree..map..BTreeMap$LT$K$C$V$C$A$GT$$u20$as$u20$core..ops..drop..Drop$GT$4drop17h03d19f9a512d0f97E', symObjAddr: 0x0, symBinAddr: 0x100005A70, symSize: 0x3A8 }
  - { offsetInCU: 0xA24, offset: 0x1B66D, size: 0x8, addend: 0x0, symName: '__ZN99_$LT$alloc..collections..btree..map..BTreeMap$LT$K$C$V$C$A$GT$$u20$as$u20$core..ops..drop..Drop$GT$4drop17h03d19f9a512d0f97E', symObjAddr: 0x0, symBinAddr: 0x100005A70, symSize: 0x3A8 }
...
