---
triple:          'x86_64-apple-darwin'
binary-path:     "/Users/justinlanouette/Chaos/ChaöS-Token/hello_world/target/release/deps/libbytemuck_derive-925548668f13a603.dylib"
relocations:
  - { offsetInCU: 0x1E, offset: 0x1E, size: 0x8, addend: 0x0, symName: '__ZN4core3ops8function5impls80_$LT$impl$u20$core..ops..function..FnOnce$LT$A$GT$$u20$for$u20$$RF$mut$u20$F$GT$9call_once17h2a3cf421059262eaE', symObjAddr: 0x0, symBinAddr: 0x11A0, symSize: 0x120 }
  - { offsetInCU: 0x142, offset: 0x142, size: 0x8, addend: 0x0, symName: '__ZN58_$LT$alloc..string..String$u20$as$u20$core..fmt..Write$GT$10write_char17hd329c0cb943f081aE', symObjAddr: 0x65F0, symBinAddr: 0x7780, symSize: 0x130 }
  - { offsetInCU: 0x4E9, offset: 0x4E9, size: 0x8, addend: 0x0, symName: '__ZN58_$LT$alloc..string..String$u20$as$u20$core..fmt..Write$GT$9write_str17h1ff5aa96ca91c6d5E', symObjAddr: 0x6720, symBinAddr: 0x78B0, symSize: 0x60 }
  - { offsetInCU: 0x271D, offset: 0x271D, size: 0x8, addend: 0x0, symName: __ZN5alloc3fmt6format17h0a81fc4f18a8ee07E, symObjAddr: 0x6780, symBinAddr: 0x7910, symSize: 0xC0 }
  - { offsetInCU: 0x42CF, offset: 0x42CF, size: 0x8, addend: 0x0, symName: '__ZN4core3ptr100drop_in_place$LT$core..option..Option$LT$alloc..boxed..Box$LT$syn..path..GenericArgument$GT$$GT$$GT$17h81d5ae68dac3e542E', symObjAddr: 0x330, symBinAddr: 0x14C0, symSize: 0x50 }
  - { offsetInCU: 0x44BD, offset: 0x44BD, size: 0x8, addend: 0x0, symName: '__ZN4core3ptr100drop_in_place$LT$syn..punctuated..Punctuated$LT$proc_macro2..TokenStream$C$syn..token..Comma$GT$$GT$17ha1f76f73a493fad8E', symObjAddr: 0x380, symBinAddr: 0x1510, symSize: 0x120 }
  - { offsetInCU: 0x4957, offset: 0x4957, size: 0x8, addend: 0x0, symName: '__ZN4core3ptr102drop_in_place$LT$syn..punctuated..Punctuated$LT$syn..path..GenericArgument$C$syn..token..Comma$GT$$GT$17hc105d9a0c2ba0082E', symObjAddr: 0x4A0, symBinAddr: 0x1630, symSize: 0xF0 }
  - { offsetInCU: 0x4C40, offset: 0x4C40, size: 0x8, addend: 0x0, symName: '__ZN4core3ptr103drop_in_place$LT$core..option..Option$LT$alloc..boxed..Box$LT$syn..generics..TypeParamBound$GT$$GT$$GT$17hf90da6392a4e3d41E', symObjAddr: 0x590, symBinAddr: 0x1720, symSize: 0x50 }
  - { offsetInCU: 0x4E4D, offset: 0x4E4D, size: 0x8, addend: 0x0, symName: '__ZN4core3ptr103drop_in_place$LT$syn..punctuated..Punctuated$LT$syn..generics..GenericParam$C$syn..token..Comma$GT$$GT$17h911e43a7dc8fdff1E', symObjAddr: 0x5E0, symBinAddr: 0x1770, symSize: 0xF0 }
  - { offsetInCU: 0x53E9, offset: 0x53E9, size: 0x8, addend: 0x0, symName: '__ZN4core3ptr104drop_in_place$LT$syn..punctuated..Punctuated$LT$syn..generics..TypeParamBound$C$syn..token..Plus$GT$$GT$17h7ddaaad70512ee37E', symObjAddr: 0x6D0, symBinAddr: 0x1860, symSize: 0x230 }
  - { offsetInCU: 0x5C6A, offset: 0x5C6A, size: 0x8, addend: 0x0, symName: '__ZN4core3ptr34drop_in_place$LT$syn..lit..Lit$GT$17h2e2e13a98dbc9907E', symObjAddr: 0x900, symBinAddr: 0x1A90, symSize: 0x110 }
  - { offsetInCU: 0x61C3, offset: 0x61C3, size: 0x8, addend: 0x0, symName: '__ZN4core3ptr34drop_in_place$LT$syn..pat..Pat$GT$17hec6f59d6862832acE', symObjAddr: 0xA10, symBinAddr: 0x1BA0, symSize: 0xA30 }
  - { offsetInCU: 0x8FEE, offset: 0x8FEE, size: 0x8, addend: 0x0, symName: '__ZN4core3ptr34drop_in_place$LT$syn..ty..Type$GT$17h34d0fb967b9e90dcE', symObjAddr: 0x1440, symBinAddr: 0x25D0, symSize: 0x5C0 }
  - { offsetInCU: 0xA2B1, offset: 0xA2B1, size: 0x8, addend: 0x0, symName: '__ZN4core3ptr356drop_in_place$LT$core..iter..adapters..zip..Zip$LT$core..iter..adapters..map..Map$LT$syn..punctuated..Iter$LT$syn..data..Variant$GT$$C$bytemuck_derive..traits..generate_checked_bit_pattern_enum_with_fields..$u7b$$u7b$closure$u7d$$u7d$$GT$$C$bytemuck_derive..traits..VariantDiscriminantIterator$LT$syn..punctuated..Iter$LT$syn..data..Variant$GT$$GT$$GT$$GT$17h6d147e03e523c440E', symObjAddr: 0x1A00, symBinAddr: 0x2B90, symSize: 0x70 }
  - { offsetInCU: 0xAAE2, offset: 0xAAE2, size: 0x8, addend: 0x0, symName: '__ZN4core3ptr36drop_in_place$LT$syn..expr..Expr$GT$17h187d7b86dfeaeb43E', symObjAddr: 0x1A70, symBinAddr: 0x2C00, symSize: 0x1D10 }
  - { offsetInCU: 0x127F9, offset: 0x127F9, size: 0x8, addend: 0x0, symName: '__ZN4core3ptr36drop_in_place$LT$syn..mac..Macro$GT$17he23e0f3502fe2b80E', symObjAddr: 0x3780, symBinAddr: 0x4910, symSize: 0xE0 }
  - { offsetInCU: 0x12B6A, offset: 0x12B6A, size: 0x8, addend: 0x0, symName: '__ZN4core3ptr36drop_in_place$LT$syn..path..Path$GT$17hef30d7983279258eE', symObjAddr: 0x3860, symBinAddr: 0x49F0, symSize: 0x220 }
  - { offsetInCU: 0x1349F, offset: 0x1349F, size: 0x8, addend: 0x0, symName: '__ZN4core3ptr37drop_in_place$LT$core..fmt..Error$GT$17h2d8c7cbf3c71e787E', symObjAddr: 0x3A80, symBinAddr: 0x4C10, symSize: 0x10 }
  - { offsetInCU: 0x13509, offset: 0x13509, size: 0x8, addend: 0x0, symName: '__ZN4core3ptr37drop_in_place$LT$syn..lit..LitInt$GT$17hc876321d13470039E', symObjAddr: 0x3A90, symBinAddr: 0x4C20, symSize: 0x70 }
  - { offsetInCU: 0x13889, offset: 0x13889, size: 0x8, addend: 0x0, symName: '__ZN4core3ptr37drop_in_place$LT$syn..stmt..Block$GT$17h94636dfbf4d98dacE', symObjAddr: 0x3B00, symBinAddr: 0x4C90, symSize: 0xD0 }
  - { offsetInCU: 0x13BC8, offset: 0x13BC8, size: 0x8, addend: 0x0, symName: '__ZN4core3ptr38drop_in_place$LT$syn..data..Fields$GT$17h4293814b0b343c16E', symObjAddr: 0x3BD0, symBinAddr: 0x4D60, symSize: 0x190 }
  - { offsetInCU: 0x14024, offset: 0x14024, size: 0x8, addend: 0x0, symName: '__ZN4core3ptr38drop_in_place$LT$syn..error..Error$GT$17hf620798e4687ca19E.llvm.18003102475610000843', symObjAddr: 0x3D60, symBinAddr: 0x4EF0, symSize: 0x80 }
  - { offsetInCU: 0x142F5, offset: 0x142F5, size: 0x8, addend: 0x0, symName: '__ZN4core3ptr38drop_in_place$LT$syn..expr..Member$GT$17h42589c34bb8285abE', symObjAddr: 0x3DE0, symBinAddr: 0x4F70, symSize: 0x30 }
  - { offsetInCU: 0x14509, offset: 0x14509, size: 0x8, addend: 0x0, symName: '__ZN4core3ptr39drop_in_place$LT$proc_macro2..Group$GT$17he383e25ecd11775aE', symObjAddr: 0x3E10, symBinAddr: 0x4FA0, symSize: 0x60 }
  - { offsetInCU: 0x14657, offset: 0x14657, size: 0x8, addend: 0x0, symName: '__ZN4core3ptr39drop_in_place$LT$proc_macro2..Ident$GT$17h85dcc65b6772a923E', symObjAddr: 0x3E70, symBinAddr: 0x5000, symSize: 0x30 }
  - { offsetInCU: 0x14735, offset: 0x14735, size: 0x8, addend: 0x0, symName: '__ZN4core3ptr40drop_in_place$LT$syn..ty..ReturnType$GT$17h3baf2840577fc6efE', symObjAddr: 0x3EA0, symBinAddr: 0x5030, symSize: 0x50 }
  - { offsetInCU: 0x148A7, offset: 0x148A7, size: 0x8, addend: 0x0, symName: '__ZN4core3ptr41drop_in_place$LT$syn..expr..ExprConst$GT$17hd61e0a3a79e02810E', symObjAddr: 0x3EF0, symBinAddr: 0x5080, symSize: 0x120 }
  - { offsetInCU: 0x14D68, offset: 0x14D68, size: 0x8, addend: 0x0, symName: '__ZN4core3ptr42drop_in_place$LT$alloc..string..String$GT$17hbb2ae86b98a74c87E', symObjAddr: 0x4010, symBinAddr: 0x51A0, symSize: 0x20 }
  - { offsetInCU: 0x14EAF, offset: 0x14EAF, size: 0x8, addend: 0x0, symName: '__ZN4core3ptr436drop_in_place$LT$core..iter..adapters..map..Map$LT$core..iter..adapters..zip..Zip$LT$core..iter..adapters..map..Map$LT$syn..punctuated..Iter$LT$syn..data..Variant$GT$$C$bytemuck_derive..traits..generate_checked_bit_pattern_enum_with_fields..$u7b$$u7b$closure$u7d$$u7d$$GT$$C$syn..punctuated..Iter$LT$syn..data..Variant$GT$$GT$$C$bytemuck_derive..traits..generate_checked_bit_pattern_enum_with_fields..$u7b$$u7b$closure$u7d$$u7d$$GT$$GT$17h0b1fa1e8fbb9c568E', symObjAddr: 0x4030, symBinAddr: 0x51C0, symSize: 0x70 }
  - { offsetInCU: 0x150EF, offset: 0x150EF, size: 0x8, addend: 0x0, symName: '__ZN4core3ptr436drop_in_place$LT$core..iter..adapters..map..Map$LT$core..iter..adapters..zip..Zip$LT$core..iter..adapters..map..Map$LT$syn..punctuated..Iter$LT$syn..data..Variant$GT$$C$bytemuck_derive..traits..generate_checked_bit_pattern_enum_with_fields..$u7b$$u7b$closure$u7d$$u7d$$GT$$C$syn..punctuated..Iter$LT$syn..data..Variant$GT$$GT$$C$bytemuck_derive..traits..generate_checked_bit_pattern_enum_with_fields..$u7b$$u7b$closure$u7d$$u7d$$GT$$GT$17h7c80b7b023e12dcdE', symObjAddr: 0x40A0, symBinAddr: 0x5230, symSize: 0x70 }
  - { offsetInCU: 0x1534E, offset: 0x1534E, size: 0x8, addend: 0x0, symName: '__ZN4core3ptr436drop_in_place$LT$core..iter..adapters..map..Map$LT$core..iter..adapters..zip..Zip$LT$core..iter..adapters..map..Map$LT$syn..punctuated..Iter$LT$syn..data..Variant$GT$$C$bytemuck_derive..traits..generate_checked_bit_pattern_enum_with_fields..$u7b$$u7b$closure$u7d$$u7d$$GT$$C$syn..punctuated..Iter$LT$syn..data..Variant$GT$$GT$$C$bytemuck_derive..traits..generate_checked_bit_pattern_enum_with_fields..$u7b$$u7b$closure$u7d$$u7d$$GT$$GT$17hb486b3e4a825ae7cE', symObjAddr: 0x4110, symBinAddr: 0x52A0, symSize: 0x70 }
  - { offsetInCU: 0x155AD, offset: 0x155AD, size: 0x8, addend: 0x0, symName: '__ZN4core3ptr43drop_in_place$LT$proc_macro2..TokenTree$GT$17hc3425d1801380e94E', symObjAddr: 0x4180, symBinAddr: 0x5310, symSize: 0xB0 }
  - { offsetInCU: 0x158C1, offset: 0x158C1, size: 0x8, addend: 0x0, symName: '__ZN4core3ptr44drop_in_place$LT$syn..lifetime..Lifetime$GT$17h02a95ffc84ffd974E', symObjAddr: 0x4230, symBinAddr: 0x53C0, symSize: 0x30 }
  - { offsetInCU: 0x15A3A, offset: 0x15A3A, size: 0x8, addend: 0x0, symName: '__ZN4core3ptr44drop_in_place$LT$syn..parse..ParseBuffer$GT$17h475e5b802a1664f7E', symObjAddr: 0x4260, symBinAddr: 0x53F0, symSize: 0x70 }
  - { offsetInCU: 0x15DD4, offset: 0x15DD4, size: 0x8, addend: 0x0, symName: '__ZN4core3ptr45drop_in_place$LT$proc_macro2..TokenStream$GT$17h661e8a5a3640a978E.llvm.18003102475610000843', symObjAddr: 0x42D0, symBinAddr: 0x5460, symSize: 0x140 }
  - { offsetInCU: 0x16243, offset: 0x16243, size: 0x8, addend: 0x0, symName: '__ZN4core3ptr45drop_in_place$LT$syn..generics..TypeParam$GT$17hd9ee95d550b3e236E', symObjAddr: 0x4410, symBinAddr: 0x55A0, symSize: 0x1E0 }
  - { offsetInCU: 0x1699D, offset: 0x1699D, size: 0x8, addend: 0x0, symName: '__ZN4core3ptr46drop_in_place$LT$syn..generics..ConstParam$GT$17hb4dcba9e9f309263E', symObjAddr: 0x45F0, symBinAddr: 0x5780, symSize: 0x100 }
  - { offsetInCU: 0x16D25, offset: 0x16D25, size: 0x8, addend: 0x0, symName: '__ZN4core3ptr47drop_in_place$LT$syn..path..GenericArgument$GT$17h8ff7afdf2989254bE', symObjAddr: 0x46F0, symBinAddr: 0x5880, symSize: 0x460 }
  - { offsetInCU: 0x17A2E, offset: 0x17A2E, size: 0x8, addend: 0x0, symName: '__ZN4core3ptr49drop_in_place$LT$syn..generics..LifetimeParam$GT$17ha4f70bb42723c9c1E', symObjAddr: 0x4B50, symBinAddr: 0x5CE0, symSize: 0xA0 }
  - { offsetInCU: 0x17D48, offset: 0x17D48, size: 0x8, addend: 0x0, symName: '__ZN4core3ptr50drop_in_place$LT$syn..generics..TypeParamBound$GT$17hd7e85b849f628957E', symObjAddr: 0x4BF0, symBinAddr: 0x5D80, symSize: 0xA0 }
  - { offsetInCU: 0x17F4A, offset: 0x17F4A, size: 0x8, addend: 0x0, symName: '__ZN4core3ptr56drop_in_place$LT$proc_macro2..token_stream..IntoIter$GT$17hf9782c885e78ad3bE', symObjAddr: 0x4C90, symBinAddr: 0x5E20, symSize: 0x20 }
  - { offsetInCU: 0x17FFA, offset: 0x17FFA, size: 0x8, addend: 0x0, symName: '__ZN4core3ptr58drop_in_place$LT$alloc..vec..Vec$LT$syn..expr..Arm$GT$$GT$17h6bd6c3d1f6387055E', symObjAddr: 0x4CB0, symBinAddr: 0x5E40, symSize: 0xD0 }
  - { offsetInCU: 0x18287, offset: 0x18287, size: 0x8, addend: 0x0, symName: '__ZN4core3ptr59drop_in_place$LT$alloc..boxed..Box$LT$syn..pat..Pat$GT$$GT$17hda655f7a9a4c7219E', symObjAddr: 0x4D80, symBinAddr: 0x5F10, symSize: 0x50 }
  - { offsetInCU: 0x183E2, offset: 0x183E2, size: 0x8, addend: 0x0, symName: '__ZN4core3ptr59drop_in_place$LT$alloc..boxed..Box$LT$syn..ty..Type$GT$$GT$17h7c46f1a27385755aE', symObjAddr: 0x4DD0, symBinAddr: 0x5F60, symSize: 0x50 }
  - { offsetInCU: 0x1853D, offset: 0x1853D, size: 0x8, addend: 0x0, symName: '__ZN4core3ptr61drop_in_place$LT$alloc..boxed..Box$LT$syn..expr..Expr$GT$$GT$17h0f9eb18f16709c9dE', symObjAddr: 0x4E20, symBinAddr: 0x5FB0, symSize: 0x50 }
  - { offsetInCU: 0x18698, offset: 0x18698, size: 0x8, addend: 0x0, symName: '__ZN4core3ptr61drop_in_place$LT$syn..path..ParenthesizedGenericArguments$GT$17h9caa3aea5837eb56E', symObjAddr: 0x4E70, symBinAddr: 0x6000, symSize: 0x170 }
  - { offsetInCU: 0x18C91, offset: 0x18C91, size: 0x8, addend: 0x0, symName: '__ZN4core3ptr62drop_in_place$LT$alloc..vec..Vec$LT$proc_macro2..Ident$GT$$GT$17h43f0c28288e1ac75E', symObjAddr: 0x4FE0, symBinAddr: 0x6170, symSize: 0x80 }
  - { offsetInCU: 0x18EFC, offset: 0x18EFC, size: 0x8, addend: 0x0, symName: '__ZN4core3ptr63drop_in_place$LT$alloc..boxed..Box$LT$syn..lit..LitRepr$GT$$GT$17h35a4411a17750418E', symObjAddr: 0x5060, symBinAddr: 0x61F0, symSize: 0x60 }
  - { offsetInCU: 0x191F1, offset: 0x191F1, size: 0x8, addend: 0x0, symName: '__ZN4core3ptr64drop_in_place$LT$alloc..boxed..Box$LT$syn..pat..FieldPat$GT$$GT$17h51affbaae84ab277E', symObjAddr: 0x50C0, symBinAddr: 0x6250, symSize: 0x100 }
  - { offsetInCU: 0x1980C, offset: 0x1980C, size: 0x8, addend: 0x0, symName: '__ZN4core3ptr64drop_in_place$LT$alloc..boxed..Box$LT$syn..ty..BareFnArg$GT$$GT$17ha646ec070779f4a0E', symObjAddr: 0x51C0, symBinAddr: 0x6350, symSize: 0xF0 }
  - { offsetInCU: 0x19C9E, offset: 0x19C9E, size: 0x8, addend: 0x0, symName: '__ZN4core3ptr65drop_in_place$LT$core..option..Option$LT$syn..expr..Label$GT$$GT$17h7470e669be35e9e2E', symObjAddr: 0x52B0, symBinAddr: 0x6440, symSize: 0x30 }
  - { offsetInCU: 0x19DD9, offset: 0x19DD9, size: 0x8, addend: 0x0, symName: '__ZN4core3ptr66drop_in_place$LT$core..option..Option$LT$syn..pat..PatRest$GT$$GT$17hb47fb34b4c60ff4cE', symObjAddr: 0x52E0, symBinAddr: 0x6470, symSize: 0x70 }
  - { offsetInCU: 0x1A02F, offset: 0x1A02F, size: 0x8, addend: 0x0, symName: '__ZN4core3ptr67drop_in_place$LT$alloc..boxed..Box$LT$syn..expr..FieldValue$GT$$GT$17h409ff751c9d10852E', symObjAddr: 0x5350, symBinAddr: 0x64E0, symSize: 0xF0 }
  - { offsetInCU: 0x1A4C0, offset: 0x1A4C0, size: 0x8, addend: 0x0, symName: '__ZN4core3ptr68drop_in_place$LT$alloc..vec..Vec$LT$proc_macro2..TokenStream$GT$$GT$17h6ff86210fe775761E', symObjAddr: 0x5440, symBinAddr: 0x65D0, symSize: 0xC0 }
  - { offsetInCU: 0x1A76C, offset: 0x1A76C, size: 0x8, addend: 0x0, symName: '__ZN4core3ptr70drop_in_place$LT$core..option..Option$LT$syn..ty..BareVariadic$GT$$GT$17hd561fe5259fe880fE', symObjAddr: 0x5500, symBinAddr: 0x6690, symSize: 0xC0 }
  - { offsetInCU: 0x1ABF9, offset: 0x1ABF9, size: 0x8, addend: 0x0, symName: '__ZN4core3ptr72drop_in_place$LT$alloc..boxed..Box$LT$syn..path..GenericArgument$GT$$GT$17h9e1c2fd89a12c330E', symObjAddr: 0x55C0, symBinAddr: 0x6750, symSize: 0x2B0 }
  - { offsetInCU: 0x1B5E4, offset: 0x1B5E4, size: 0x8, addend: 0x0, symName: '__ZN4core3ptr72drop_in_place$LT$core..option..Option$LT$syn..lifetime..Lifetime$GT$$GT$17h204d66df25055d6bE', symObjAddr: 0x5870, symBinAddr: 0x6A00, symSize: 0x30 }
  - { offsetInCU: 0x1B700, offset: 0x1B700, size: 0x8, addend: 0x0, symName: '__ZN4core3ptr73drop_in_place$LT$alloc..boxed..Box$LT$syn..generics..GenericParam$GT$$GT$17hd2636ca4399a3a9fE', symObjAddr: 0x58A0, symBinAddr: 0x6A30, symSize: 0x80 }
  - { offsetInCU: 0x1B878, offset: 0x1B878, size: 0x8, addend: 0x0, symName: '__ZN4core3ptr75drop_in_place$LT$alloc..boxed..Box$LT$syn..generics..TypeParamBound$GT$$GT$17h2eecd7a4ccb01a6dE', symObjAddr: 0x5920, symBinAddr: 0x6AB0, symSize: 0x160 }
  - { offsetInCU: 0x1BE3E, offset: 0x1BE3E, size: 0x8, addend: 0x0, symName: '__ZN4core3ptr86drop_in_place$LT$syn..punctuated..Punctuated$LT$syn..pat..Pat$C$syn..token..Or$GT$$GT$17h0a64ebd164b5dc32E', symObjAddr: 0x5A80, symBinAddr: 0x6C10, symSize: 0x120 }
  - { offsetInCU: 0x1C284, offset: 0x1C284, size: 0x8, addend: 0x0, symName: '__ZN4core3ptr87drop_in_place$LT$core..option..Option$LT$alloc..boxed..Box$LT$syn..pat..Pat$GT$$GT$$GT$17h13222549103f42daE', symObjAddr: 0x5BA0, symBinAddr: 0x6D30, symSize: 0x50 }
  - { offsetInCU: 0x1C3F6, offset: 0x1C3F6, size: 0x8, addend: 0x0, symName: '__ZN4core3ptr87drop_in_place$LT$core..option..Option$LT$alloc..boxed..Box$LT$syn..ty..Type$GT$$GT$$GT$17h7b50ff63bc2302e5E', symObjAddr: 0x5BF0, symBinAddr: 0x6D80, symSize: 0x50 }
  - { offsetInCU: 0x1C568, offset: 0x1C568, size: 0x8, addend: 0x0, symName: '__ZN4core3ptr89drop_in_place$LT$core..option..Option$LT$alloc..boxed..Box$LT$syn..expr..Expr$GT$$GT$$GT$17h57d0a0d85babf42eE', symObjAddr: 0x5C40, symBinAddr: 0x6DD0, symSize: 0x50 }
  - { offsetInCU: 0x1C718, offset: 0x1C718, size: 0x8, addend: 0x0, symName: '__ZN4core3ptr89drop_in_place$LT$syn..punctuated..Punctuated$LT$syn..pat..Pat$C$syn..token..Comma$GT$$GT$17h95741bc582d9544fE', symObjAddr: 0x5C90, symBinAddr: 0x6E20, symSize: 0x120 }
  - { offsetInCU: 0x1CC2F, offset: 0x1CC2F, size: 0x8, addend: 0x0, symName: '__ZN4core3ptr90drop_in_place$LT$core..option..Option$LT$alloc..boxed..Box$LT$syn..data..Field$GT$$GT$$GT$17hf6e2a61899401111E', symObjAddr: 0x5DB0, symBinAddr: 0x6F40, symSize: 0x1A0 }
  - { offsetInCU: 0x1D412, offset: 0x1D412, size: 0x8, addend: 0x0, symName: '__ZN4core3ptr91drop_in_place$LT$syn..punctuated..Punctuated$LT$syn..expr..Expr$C$syn..token..Comma$GT$$GT$17h2ba0440d00fc17b7E', symObjAddr: 0x5F50, symBinAddr: 0x70E0, symSize: 0x120 }
  - { offsetInCU: 0x1D86F, offset: 0x1D86F, size: 0x8, addend: 0x0, symName: '__ZN4core3ptr94drop_in_place$LT$syn..punctuated..Punctuated$LT$syn..pat..FieldPat$C$syn..token..Comma$GT$$GT$17he37c9fd1795d6e36E', symObjAddr: 0x6070, symBinAddr: 0x7200, symSize: 0xF0 }
  - { offsetInCU: 0x1DB39, offset: 0x1DB39, size: 0x8, addend: 0x0, symName: '__ZN4core3ptr94drop_in_place$LT$syn..punctuated..Punctuated$LT$syn..ty..BareFnArg$C$syn..token..Comma$GT$$GT$17h818f76d349cdca5cE', symObjAddr: 0x6160, symBinAddr: 0x72F0, symSize: 0xF0 }
  - { offsetInCU: 0x1DE03, offset: 0x1DE03, size: 0x8, addend: 0x0, symName: '__ZN4core3ptr96drop_in_place$LT$core..option..Option$LT$alloc..boxed..Box$LT$syn..path..PathSegment$GT$$GT$$GT$17hf46b91b97ce17f95E', symObjAddr: 0x6250, symBinAddr: 0x73E0, symSize: 0x180 }
  - { offsetInCU: 0x1E494, offset: 0x1E494, size: 0x8, addend: 0x0, symName: '__ZN4core3ptr97drop_in_place$LT$syn..punctuated..Punctuated$LT$syn..expr..FieldValue$C$syn..token..Comma$GT$$GT$17h60e67521866e947dE', symObjAddr: 0x63D0, symBinAddr: 0x7560, symSize: 0xF0 }
  - { offsetInCU: 0x1E75E, offset: 0x1E75E, size: 0x8, addend: 0x0, symName: '__ZN4core3ptr98drop_in_place$LT$core..option..Option$LT$alloc..boxed..Box$LT$proc_macro2..TokenStream$GT$$GT$$GT$17h4e1da6cf3a871807E', symObjAddr: 0x64C0, symBinAddr: 0x7650, symSize: 0x50 }
  - { offsetInCU: 0x1E93F, offset: 0x1E93F, size: 0x8, addend: 0x0, symName: '__ZN4core3ptr98drop_in_place$LT$syn..punctuated..Punctuated$LT$syn..lifetime..Lifetime$C$syn..token..Plus$GT$$GT$17h9d8806b4a517b3d8E', symObjAddr: 0x6510, symBinAddr: 0x76A0, symSize: 0xC0 }
  - { offsetInCU: 0x1F6E8, offset: 0x1F6E8, size: 0x8, addend: 0x0, symName: '__ZN53_$LT$core..fmt..Error$u20$as$u20$core..fmt..Debug$GT$3fmt17h43ae5cec9623af13E', symObjAddr: 0x65D0, symBinAddr: 0x7760, symSize: 0x20 }
  - { offsetInCU: 0x24026, offset: 0x24026, size: 0x8, addend: 0x0, symName: '__ZN4core3ops8function5impls80_$LT$impl$u20$core..ops..function..FnOnce$LT$A$GT$$u20$for$u20$$RF$mut$u20$F$GT$9call_once17h2a3cf421059262eaE', symObjAddr: 0x0, symBinAddr: 0x11A0, symSize: 0x120 }
  - { offsetInCU: 0x245EE, offset: 0x245EE, size: 0x8, addend: 0x0, symName: '__ZN4core3ops8function5impls80_$LT$impl$u20$core..ops..function..FnOnce$LT$A$GT$$u20$for$u20$$RF$mut$u20$F$GT$9call_once17h3effde8a1cfee321E', symObjAddr: 0x120, symBinAddr: 0x12C0, symSize: 0x100 }
  - { offsetInCU: 0x24A04, offset: 0x24A04, size: 0x8, addend: 0x0, symName: '__ZN4core3ops8function5impls80_$LT$impl$u20$core..ops..function..FnOnce$LT$A$GT$$u20$for$u20$$RF$mut$u20$F$GT$9call_once17hafb77b3b05ab53e7E', symObjAddr: 0x220, symBinAddr: 0x13C0, symSize: 0x100 }
  - { offsetInCU: 0x27928, offset: 0x27928, size: 0x8, addend: 0x0, symName: _anon.c4849716a6222cc91e264f20fd4e17f0.7.llvm.18003102475610000843, symObjAddr: 0x1A718, symBinAddr: 0x2A4248, symSize: 0x0 }
  - { offsetInCU: 0x2DBBA, offset: 0x2DBBA, size: 0x8, addend: 0x0, symName: __ZN15bytemuck_derive6traits9Derivable10trait_impl17h43a47c4d2f75280fE, symObjAddr: 0x6890, symBinAddr: 0x79D0, symSize: 0x0 }
  - { offsetInCU: 0x2DC05, offset: 0x2DC05, size: 0x8, addend: 0x0, symName: '__ZN83_$LT$bytemuck_derive..traits..Pod$u20$as$u20$bytemuck_derive..traits..Derivable$GT$5ident17hb069214bd5ddbb35E', symObjAddr: 0x6950, symBinAddr: 0x7A90, symSize: 0xE0 }
  - { offsetInCU: 0x2DC85, offset: 0x2DC85, size: 0x8, addend: 0x0, symName: '__ZN83_$LT$bytemuck_derive..traits..Pod$u20$as$u20$bytemuck_derive..traits..Derivable$GT$7asserts17he879cf534b27dc3cE', symObjAddr: 0x6A30, symBinAddr: 0x7B70, symSize: 0x580 }
  - { offsetInCU: 0x2E3B1, offset: 0x2E3B1, size: 0x8, addend: 0x0, symName: '__ZN83_$LT$bytemuck_derive..traits..Pod$u20$as$u20$bytemuck_derive..traits..Derivable$GT$16check_attributes17h03d4115c9015e984E', symObjAddr: 0x6FB0, symBinAddr: 0x80F0, symSize: 0x160 }
  - { offsetInCU: 0x2E743, offset: 0x2E743, size: 0x8, addend: 0x0, symName: '__ZN93_$LT$bytemuck_derive..traits..AnyBitPattern$u20$as$u20$bytemuck_derive..traits..Derivable$GT$5ident17h9ad6cd4825ceebddE', symObjAddr: 0x7110, symBinAddr: 0x8250, symSize: 0xE0 }
  - { offsetInCU: 0x2E7C3, offset: 0x2E7C3, size: 0x8, addend: 0x0, symName: '__ZN93_$LT$bytemuck_derive..traits..AnyBitPattern$u20$as$u20$bytemuck_derive..traits..Derivable$GT$7asserts17he02428709552328fE', symObjAddr: 0x7290, symBinAddr: 0x8330, symSize: 0x230 }
  - { offsetInCU: 0x2EA0E, offset: 0x2EA0E, size: 0x8, addend: 0x0, symName: '__ZN88_$LT$bytemuck_derive..traits..Zeroable$u20$as$u20$bytemuck_derive..traits..Derivable$GT$5ident17hf58708dcc767dbe8E', symObjAddr: 0x74C0, symBinAddr: 0x8560, symSize: 0xE0 }
  - { offsetInCU: 0x2EABE, offset: 0x2EABE, size: 0x8, addend: 0x0, symName: '__ZN88_$LT$bytemuck_derive..traits..Zeroable$u20$as$u20$bytemuck_derive..traits..Derivable$GT$16check_attributes17hf9823c96d603fae9E', symObjAddr: 0x75A0, symBinAddr: 0x8640, symSize: 0x3F0 }
  - { offsetInCU: 0x2F839, offset: 0x2F839, size: 0x8, addend: 0x0, symName: '__ZN88_$LT$bytemuck_derive..traits..Zeroable$u20$as$u20$bytemuck_derive..traits..Derivable$GT$7asserts17hbc899a9cc6132a82E', symObjAddr: 0x7990, symBinAddr: 0x8A30, symSize: 0x110 }
  - { offsetInCU: 0x2F959, offset: 0x2F959, size: 0x8, addend: 0x0, symName: '__ZN88_$LT$bytemuck_derive..traits..NoUninit$u20$as$u20$bytemuck_derive..traits..Derivable$GT$5ident17h7a78ac8b11da7bfbE', symObjAddr: 0x7AA0, symBinAddr: 0x8B40, symSize: 0xE0 }
  - { offsetInCU: 0x2F9D9, offset: 0x2F9D9, size: 0x8, addend: 0x0, symName: '__ZN88_$LT$bytemuck_derive..traits..NoUninit$u20$as$u20$bytemuck_derive..traits..Derivable$GT$16check_attributes17h99d4bbaf5f95674dE', symObjAddr: 0x7B80, symBinAddr: 0x8C20, symSize: 0x2D0 }
  - { offsetInCU: 0x2FE91, offset: 0x2FE91, size: 0x8, addend: 0x0, symName: '__ZN88_$LT$bytemuck_derive..traits..NoUninit$u20$as$u20$bytemuck_derive..traits..Derivable$GT$7asserts17h7c80388d5173d958E', symObjAddr: 0x7E50, symBinAddr: 0x8EF0, symSize: 0x610 }
  - { offsetInCU: 0x30868, offset: 0x30868, size: 0x8, addend: 0x0, symName: '__ZN97_$LT$bytemuck_derive..traits..CheckedBitPattern$u20$as$u20$bytemuck_derive..traits..Derivable$GT$5ident17hacbc55796a323d5eE', symObjAddr: 0x8460, symBinAddr: 0x9500, symSize: 0xE0 }
  - { offsetInCU: 0x308E8, offset: 0x308E8, size: 0x8, addend: 0x0, symName: '__ZN97_$LT$bytemuck_derive..traits..CheckedBitPattern$u20$as$u20$bytemuck_derive..traits..Derivable$GT$16check_attributes17h2b9f792b01751341E', symObjAddr: 0x8540, symBinAddr: 0x95E0, symSize: 0x470 }
  - { offsetInCU: 0x31228, offset: 0x31228, size: 0x8, addend: 0x0, symName: '__ZN97_$LT$bytemuck_derive..traits..CheckedBitPattern$u20$as$u20$bytemuck_derive..traits..Derivable$GT$7asserts17hb43cbb3d56c26fe2E', symObjAddr: 0x89B0, symBinAddr: 0x9A50, symSize: 0x360 }
  - { offsetInCU: 0x31588, offset: 0x31588, size: 0x8, addend: 0x0, symName: '__ZN97_$LT$bytemuck_derive..traits..CheckedBitPattern$u20$as$u20$bytemuck_derive..traits..Derivable$GT$10trait_impl17hcf716a9bef8fb40cE', symObjAddr: 0x8D10, symBinAddr: 0x9DB0, symSize: 0x1FA0 }
  - { offsetInCU: 0x34FEF, offset: 0x34FEF, size: 0x8, addend: 0x0, symName: '__ZN98_$LT$bytemuck_derive..traits..TransparentWrapper$u20$as$u20$bytemuck_derive..traits..Derivable$GT$5ident17h9237cd2b9d62dbbfE', symObjAddr: 0xB120, symBinAddr: 0xC1C0, symSize: 0x3C0 }
  - { offsetInCU: 0x35504, offset: 0x35504, size: 0x8, addend: 0x0, symName: '__ZN98_$LT$bytemuck_derive..traits..TransparentWrapper$u20$as$u20$bytemuck_derive..traits..Derivable$GT$7asserts17hb2eaf4f1ccd37f01E', symObjAddr: 0xB4E0, symBinAddr: 0xC580, symSize: 0x1180 }
  - { offsetInCU: 0x36EE3, offset: 0x36EE3, size: 0x8, addend: 0x0, symName: '__ZN98_$LT$bytemuck_derive..traits..TransparentWrapper$u20$as$u20$bytemuck_derive..traits..Derivable$GT$16check_attributes17h3e4bd49a26e4234dE', symObjAddr: 0xC660, symBinAddr: 0xD700, symSize: 0x150 }
  - { offsetInCU: 0x371B8, offset: 0x371B8, size: 0x8, addend: 0x0, symName: '__ZN90_$LT$bytemuck_derive..traits..Contiguous$u20$as$u20$bytemuck_derive..traits..Derivable$GT$5ident17ha54dc46e0e652211E', symObjAddr: 0xC7B0, symBinAddr: 0xD850, symSize: 0xE0 }
  - { offsetInCU: 0x372D1, offset: 0x372D1, size: 0x8, addend: 0x0, symName: '__ZN90_$LT$bytemuck_derive..traits..Contiguous$u20$as$u20$bytemuck_derive..traits..Derivable$GT$10trait_impl17h3be8c283222c35bfE', symObjAddr: 0xC890, symBinAddr: 0xD930, symSize: 0x1440 }
  - { offsetInCU: 0x387C9, offset: 0x387C9, size: 0x8, addend: 0x0, symName: __ZN15bytemuck_derive6traits45generate_checked_bit_pattern_enum_with_fields17he170e21aca939176E, symObjAddr: 0xDCD0, symBinAddr: 0xED70, symSize: 0x6E20 }
  - { offsetInCU: 0x41B05, offset: 0x41B05, size: 0x8, addend: 0x0, symName: __ZN15bytemuck_derive6traits26generate_assert_no_padding17hb1863bc59bc4f664E, symObjAddr: 0x14AF0, symBinAddr: 0x15B90, symSize: 0xBF0 }
  - { offsetInCU: 0x42740, offset: 0x42740, size: 0x8, addend: 0x0, symName: __ZN15bytemuck_derive6traits25generate_fields_are_trait17haa542c691e105127E.llvm.18003102475610000843, symObjAddr: 0x156E0, symBinAddr: 0x16780, symSize: 0x9F0 }
  - { offsetInCU: 0x43374, offset: 0x43374, size: 0x8, addend: 0x0, symName: __ZN15bytemuck_derive6traits21get_ident_from_stream17h5d964446f1c425b1E, symObjAddr: 0x160D0, symBinAddr: 0x17170, symSize: 0x150 }
  - { offsetInCU: 0x436C6, offset: 0x436C6, size: 0x8, addend: 0x0, symName: __ZN15bytemuck_derive6traits8get_repr17h81323cb361ddbe0fE.llvm.18003102475610000843, symObjAddr: 0x16220, symBinAddr: 0x172C0, symSize: 0x440 }
  - { offsetInCU: 0x43F1A, offset: 0x43F1A, size: 0x8, addend: 0x0, symName: '__ZN77_$LT$bytemuck_derive..traits..Representation$u20$as$u20$syn..parse..Parse$GT$5parse17h7fbfdaf80d56e0c6E', symObjAddr: 0x16660, symBinAddr: 0x17700, symSize: 0xDD0 }
  - { offsetInCU: 0x475A1, offset: 0x475A1, size: 0x8, addend: 0x0, symName: '__ZN86_$LT$bytemuck_derive..traits..Representation$u20$as$u20$quote..to_tokens..ToTokens$GT$9to_tokens17h00f46aa8c45df641E', symObjAddr: 0x17430, symBinAddr: 0x184D0, symSize: 0x8F0 }
  - { offsetInCU: 0x487CA, offset: 0x487CA, size: 0x8, addend: 0x0, symName: __ZN15bytemuck_derive6traits14parse_int_expr17hb284943d7c780f5cE.llvm.18003102475610000843, symObjAddr: 0x17DB0, symBinAddr: 0x18DC0, symSize: 0x1B0 }
  - { offsetInCU: 0x48C40, offset: 0x48C40, size: 0x8, addend: 0x0, symName: __ZN15bytemuck_derive6traits19bytemuck_crate_name17h33419210d589c505E, symObjAddr: 0x17F60, symBinAddr: 0x18F70, symSize: 0x240 }
  - { offsetInCU: 0x490DA, offset: 0x490DA, size: 0x8, addend: 0x0, symName: '__ZN83_$LT$bytemuck_derive..traits..IntegerRepr$u20$as$u20$quote..to_tokens..ToTokens$GT$9to_tokens17h138004ae031eed61E', symObjAddr: 0x181A0, symBinAddr: 0x191B0, symSize: 0x2F0 }
  - { offsetInCU: 0x4C86D, offset: 0x4C86D, size: 0x8, addend: 0x0, symName: __ZN15bytemuck_derive6traits18TransparentWrapper16get_wrapper_type17h915821a28c02026fE.llvm.18003102475610000843, symObjAddr: 0xACB0, symBinAddr: 0xBD50, symSize: 0x470 }
  - { offsetInCU: 0x1E, offset: 0x5359F, size: 0x8, addend: 0x0, symName: '__ZN106_$LT$core..iter..adapters..flatten..Flatten$LT$I$GT$$u20$as$u20$core..iter..traits..iterator..Iterator$GT$4next17he32d7e2be557bdd8E', symObjAddr: 0x0, symBinAddr: 0x194A0, symSize: 0x240 }
  - { offsetInCU: 0x22DA, offset: 0x5585B, size: 0x8, addend: 0x0, symName: '__ZN4core3ptr100drop_in_place$LT$core..option..Option$LT$alloc..boxed..Box$LT$syn..path..GenericArgument$GT$$GT$$GT$17h81d5ae68dac3e542E.llvm.1748036295679505338', symObjAddr: 0x240, symBinAddr: 0x196E0, symSize: 0x50 }
  - { offsetInCU: 0x261D, offset: 0x55B9E, size: 0x8, addend: 0x0, symName: '__ZN4core3ptr100drop_in_place$LT$syn..punctuated..Punctuated$LT$syn..path..PathSegment$C$syn..token..PathSep$GT$$GT$17hb49899a1fc5b1f76E.llvm.1748036295679505338', symObjAddr: 0x290, symBinAddr: 0x19730, symSize: 0x1A0 }
  - { offsetInCU: 0x2CF5, offset: 0x56276, size: 0x8, addend: 0x0, symName: '__ZN4core3ptr101drop_in_place$LT$core..option..Option$LT$alloc..boxed..Box$LT$syn..generics..GenericParam$GT$$GT$$GT$17h88f65043d9716f3dE', symObjAddr: 0x430, symBinAddr: 0x198D0, symSize: 0x50 }
  - { offsetInCU: 0x2EE3, offset: 0x56464, size: 0x8, addend: 0x0, symName: '__ZN4core3ptr102drop_in_place$LT$syn..punctuated..Punctuated$LT$syn..path..GenericArgument$C$syn..token..Comma$GT$$GT$17hc105d9a0c2ba0082E.llvm.1748036295679505338', symObjAddr: 0x480, symBinAddr: 0x19920, symSize: 0xF0 }
  - { offsetInCU: 0x31CC, offset: 0x5674D, size: 0x8, addend: 0x0, symName: '__ZN4core3ptr103drop_in_place$LT$core..option..Option$LT$alloc..boxed..Box$LT$syn..generics..TypeParamBound$GT$$GT$$GT$17hf90da6392a4e3d41E', symObjAddr: 0x570, symBinAddr: 0x19A10, symSize: 0x50 }
  - { offsetInCU: 0x335D, offset: 0x568DE, size: 0x8, addend: 0x0, symName: '__ZN4core3ptr103drop_in_place$LT$core..option..Option$LT$alloc..boxed..Box$LT$syn..generics..WherePredicate$GT$$GT$$GT$17h5bb545989b436c82E', symObjAddr: 0x5C0, symBinAddr: 0x19A60, symSize: 0x50 }
  - { offsetInCU: 0x3589, offset: 0x56B0A, size: 0x8, addend: 0x0, symName: '__ZN4core3ptr103drop_in_place$LT$syn..punctuated..Punctuated$LT$syn..generics..GenericParam$C$syn..token..Comma$GT$$GT$17h911e43a7dc8fdff1E.llvm.1748036295679505338', symObjAddr: 0x610, symBinAddr: 0x19AB0, symSize: 0x1A0 }
  - { offsetInCU: 0x3B58, offset: 0x570D9, size: 0x8, addend: 0x0, symName: '__ZN4core3ptr104drop_in_place$LT$syn..punctuated..Punctuated$LT$syn..generics..TypeParamBound$C$syn..token..Plus$GT$$GT$17h7ddaaad70512ee37E.llvm.1748036295679505338', symObjAddr: 0x7B0, symBinAddr: 0x19C50, symSize: 0x230 }
  - { offsetInCU: 0x4489, offset: 0x57A0A, size: 0x8, addend: 0x0, symName: '__ZN4core3ptr105drop_in_place$LT$syn..punctuated..Punctuated$LT$syn..generics..WherePredicate$C$syn..token..Comma$GT$$GT$17had4489413503439aE.llvm.1748036295679505338', symObjAddr: 0x9E0, symBinAddr: 0x19E80, symSize: 0x190 }
  - { offsetInCU: 0x4B5A, offset: 0x580DB, size: 0x8, addend: 0x0, symName: '__ZN4core3ptr116drop_in_place$LT$core..option..Option$LT$$LP$syn..token..Else$C$alloc..boxed..Box$LT$syn..expr..Expr$GT$$RP$$GT$$GT$17hc83c76cb7991d8f8E', symObjAddr: 0xB70, symBinAddr: 0x1A010, symSize: 0x50 }
  - { offsetInCU: 0x4D18, offset: 0x58299, size: 0x8, addend: 0x0, symName: '__ZN4core3ptr126drop_in_place$LT$core..option..Option$LT$$LP$syn..token..And$C$core..option..Option$LT$syn..lifetime..Lifetime$GT$$RP$$GT$$GT$17h54a45f4896516682E', symObjAddr: 0xBC0, symBinAddr: 0x1A060, symSize: 0x30 }
  - { offsetInCU: 0x4EEE, offset: 0x5846F, size: 0x8, addend: 0x0, symName: '__ZN4core3ptr190drop_in_place$LT$core..iter..adapters..flatten..Flatten$LT$alloc..vec..into_iter..IntoIter$LT$syn..punctuated..Punctuated$LT$syn..generics..WherePredicate$C$syn..token..Comma$GT$$GT$$GT$$GT$17he0e22a1492d307caE', symObjAddr: 0xBF0, symBinAddr: 0x1A090, symSize: 0x80 }
  - { offsetInCU: 0x520E, offset: 0x5878F, size: 0x8, addend: 0x0, symName: '__ZN4core3ptr33drop_in_place$LT$syn..ty..Abi$GT$17h539177e0d5fd12abE', symObjAddr: 0xC70, symBinAddr: 0x1A110, symSize: 0x60 }
  - { offsetInCU: 0x522A, offset: 0x587AB, size: 0x8, addend: 0x0, symName: '__ZN4core3ptr33drop_in_place$LT$syn..ty..Abi$GT$17h539177e0d5fd12abE', symObjAddr: 0xC70, symBinAddr: 0x1A110, symSize: 0x60 }
  - { offsetInCU: 0x5524, offset: 0x58AA5, size: 0x8, addend: 0x0, symName: '__ZN4core3ptr34drop_in_place$LT$syn..lit..Lit$GT$17h2e2e13a98dbc9907E', symObjAddr: 0xCD0, symBinAddr: 0x1A170, symSize: 0x110 }
  - { offsetInCU: 0x5A9C, offset: 0x5901D, size: 0x8, addend: 0x0, symName: '__ZN4core3ptr34drop_in_place$LT$syn..pat..Pat$GT$17hec6f59d6862832acE.llvm.1748036295679505338', symObjAddr: 0xDE0, symBinAddr: 0x1A280, symSize: 0x1110 }
  - { offsetInCU: 0x9DD6, offset: 0x5D357, size: 0x8, addend: 0x0, symName: '__ZN4core3ptr34drop_in_place$LT$syn..ty..Type$GT$17h34d0fb967b9e90dcE.llvm.1748036295679505338', symObjAddr: 0x1EF0, symBinAddr: 0x1B390, symSize: 0x4E0 }
  - { offsetInCU: 0xAE9F, offset: 0x5E420, size: 0x8, addend: 0x0, symName: '__ZN4core3ptr35drop_in_place$LT$syn..expr..Arm$GT$17hae2c9dbb52544715E.llvm.1748036295679505338', symObjAddr: 0x23D0, symBinAddr: 0x1B870, symSize: 0x190 }
  - { offsetInCU: 0xB483, offset: 0x5EA04, size: 0x8, addend: 0x0, symName: '__ZN4core3ptr36drop_in_place$LT$syn..attr..Meta$GT$17hb9e77f85b14a5c0aE.llvm.1748036295679505338', symObjAddr: 0x2560, symBinAddr: 0x1BA00, symSize: 0x220 }
  - { offsetInCU: 0xBFDF, offset: 0x5F560, size: 0x8, addend: 0x0, symName: '__ZN4core3ptr36drop_in_place$LT$syn..expr..Expr$GT$17h187d7b86dfeaeb43E.llvm.1748036295679505338', symObjAddr: 0x2780, symBinAddr: 0x1BC20, symSize: 0x29A0 }
  - { offsetInCU: 0x1653B, offset: 0x69ABC, size: 0x8, addend: 0x0, symName: '__ZN4core3ptr36drop_in_place$LT$syn..item..Item$GT$17h616c393af6487adeE', symObjAddr: 0x5120, symBinAddr: 0x1E5C0, symSize: 0x19A0 }
  - { offsetInCU: 0x1CAAB, offset: 0x7002C, size: 0x8, addend: 0x0, symName: '__ZN4core3ptr36drop_in_place$LT$syn..mac..Macro$GT$17he23e0f3502fe2b80E', symObjAddr: 0x6AC0, symBinAddr: 0x1FF60, symSize: 0xE0 }
  - { offsetInCU: 0x1CDB5, offset: 0x70336, size: 0x8, addend: 0x0, symName: '__ZN4core3ptr36drop_in_place$LT$syn..path..Path$GT$17hef30d7983279258eE.llvm.1748036295679505338', symObjAddr: 0x6BA0, symBinAddr: 0x20040, symSize: 0x150 }
  - { offsetInCU: 0x1D343, offset: 0x708C4, size: 0x8, addend: 0x0, symName: '__ZN4core3ptr36drop_in_place$LT$syn..stmt..Stmt$GT$17h9811ee05e708d7b7E.llvm.1748036295679505338', symObjAddr: 0x6CF0, symBinAddr: 0x20190, symSize: 0x380 }
  - { offsetInCU: 0x1DF03, offset: 0x71484, size: 0x8, addend: 0x0, symName: '__ZN4core3ptr37drop_in_place$LT$syn..data..Field$GT$17hc6dcad00a6dc4db6E.llvm.1748036295679505338', symObjAddr: 0x7070, symBinAddr: 0x20510, symSize: 0x180 }
  - { offsetInCU: 0x1E494, offset: 0x71A15, size: 0x8, addend: 0x0, symName: '__ZN4core3ptr37drop_in_place$LT$syn..item..FnArg$GT$17hcc1d6ff8be285276E', symObjAddr: 0x71F0, symBinAddr: 0x20690, symSize: 0x230 }
  - { offsetInCU: 0x1ED84, offset: 0x72305, size: 0x8, addend: 0x0, symName: '__ZN4core3ptr37drop_in_place$LT$syn..lit..LitInt$GT$17hc876321d13470039E.llvm.1748036295679505338', symObjAddr: 0x7420, symBinAddr: 0x208C0, symSize: 0x70 }
  - { offsetInCU: 0x1F104, offset: 0x72685, size: 0x8, addend: 0x0, symName: '__ZN4core3ptr37drop_in_place$LT$syn..stmt..Block$GT$17h94636dfbf4d98dacE', symObjAddr: 0x7490, symBinAddr: 0x20930, symSize: 0xD0 }
  - { offsetInCU: 0x1F3A8, offset: 0x72929, size: 0x8, addend: 0x0, symName: '__ZN4core3ptr38drop_in_place$LT$syn..expr..Member$GT$17h42589c34bb8285abE.llvm.1748036295679505338', symObjAddr: 0x7560, symBinAddr: 0x20A00, symSize: 0x30 }
  - { offsetInCU: 0x1F4A5, offset: 0x72A26, size: 0x8, addend: 0x0, symName: '__ZN4core3ptr38drop_in_place$LT$syn..pat..PatType$GT$17hae6ae97a831e29dbE', symObjAddr: 0x7590, symBinAddr: 0x20A30, symSize: 0x140 }
  - { offsetInCU: 0x1F9ED, offset: 0x72F6E, size: 0x8, addend: 0x0, symName: '__ZN4core3ptr39drop_in_place$LT$proc_macro2..Ident$GT$17h85dcc65b6772a923E.llvm.1748036295679505338', symObjAddr: 0x76D0, symBinAddr: 0x20B70, symSize: 0x30 }
  - { offsetInCU: 0x1FB28, offset: 0x730A9, size: 0x8, addend: 0x0, symName: '__ZN4core3ptr39drop_in_place$LT$syn..data..Variant$GT$17h9ee12cfdcfee0769E.llvm.1748036295679505338', symObjAddr: 0x7700, symBinAddr: 0x20BA0, symSize: 0x2F0 }
  - { offsetInCU: 0x20702, offset: 0x73C83, size: 0x8, addend: 0x0, symName: '__ZN4core3ptr39drop_in_place$LT$syn..item..UseTree$GT$17h3bd4220cfd9fd02aE', symObjAddr: 0x79F0, symBinAddr: 0x20E90, symSize: 0x1D0 }
  - { offsetInCU: 0x20E21, offset: 0x743A2, size: 0x8, addend: 0x0, symName: '__ZN4core3ptr40drop_in_place$LT$syn..item..ImplItem$GT$17h1f04a1e0799503c7E', symObjAddr: 0x7BC0, symBinAddr: 0x21060, symSize: 0x240 }
  - { offsetInCU: 0x2141C, offset: 0x7499D, size: 0x8, addend: 0x0, symName: '__ZN4core3ptr40drop_in_place$LT$syn..item..Receiver$GT$17hb842132f7946ab20E', symObjAddr: 0x7E00, symBinAddr: 0x212A0, symSize: 0x130 }
  - { offsetInCU: 0x219BB, offset: 0x74F3C, size: 0x8, addend: 0x0, symName: '__ZN4core3ptr40drop_in_place$LT$syn..item..Variadic$GT$17hb25231d5d50bceacE', symObjAddr: 0x7F30, symBinAddr: 0x213D0, symSize: 0x120 }
  - { offsetInCU: 0x21DFE, offset: 0x7537F, size: 0x8, addend: 0x0, symName: '__ZN4core3ptr40drop_in_place$LT$syn..ty..ReturnType$GT$17h3baf2840577fc6efE.llvm.1748036295679505338', symObjAddr: 0x8050, symBinAddr: 0x214F0, symSize: 0x50 }
  - { offsetInCU: 0x21F8F, offset: 0x75510, size: 0x8, addend: 0x0, symName: '__ZN4core3ptr41drop_in_place$LT$syn..attr..Attribute$GT$17h6aa280feaafd6593E.llvm.1748036295679505338', symObjAddr: 0x80A0, symBinAddr: 0x21540, symSize: 0x160 }
  - { offsetInCU: 0x22475, offset: 0x759F6, size: 0x8, addend: 0x0, symName: '__ZN4core3ptr41drop_in_place$LT$syn..item..Signature$GT$17hdf995e52145f9322E', symObjAddr: 0x8200, symBinAddr: 0x216A0, symSize: 0x280 }
  - { offsetInCU: 0x22F64, offset: 0x764E5, size: 0x8, addend: 0x0, symName: '__ZN4core3ptr41drop_in_place$LT$syn..item..TraitItem$GT$17h3ecfdcf6615f93bfE', symObjAddr: 0x8480, symBinAddr: 0x21920, symSize: 0x3E0 }
  - { offsetInCU: 0x23A8A, offset: 0x7700B, size: 0x8, addend: 0x0, symName: '__ZN4core3ptr42drop_in_place$LT$syn..item..ImplItemFn$GT$17hac9785e26df5e64bE', symObjAddr: 0x8860, symBinAddr: 0x21D00, symSize: 0x230 }
  - { offsetInCU: 0x241B1, offset: 0x77732, size: 0x8, addend: 0x0, symName: '__ZN4core3ptr42drop_in_place$LT$syn..path..Constraint$GT$17h2f0f614e26342cd8E', symObjAddr: 0x8A90, symBinAddr: 0x21F30, symSize: 0x160 }
  - { offsetInCU: 0x24828, offset: 0x77DA9, size: 0x8, addend: 0x0, symName: '__ZN4core3ptr43drop_in_place$LT$proc_macro2..TokenTree$GT$17hc3425d1801380e94E.llvm.1748036295679505338', symObjAddr: 0x8BF0, symBinAddr: 0x22090, symSize: 0xB0 }
  - { offsetInCU: 0x24B3C, offset: 0x780BD, size: 0x8, addend: 0x0, symName: '__ZN4core3ptr43drop_in_place$LT$syn..data..FieldsNamed$GT$17h54aaf12c76ee2c7cE', symObjAddr: 0x8CA0, symBinAddr: 0x22140, symSize: 0x120 }
  - { offsetInCU: 0x24FC4, offset: 0x78545, size: 0x8, addend: 0x0, symName: '__ZN4core3ptr43drop_in_place$LT$syn..item..ForeignItem$GT$17hdb28b465036e7a91E', symObjAddr: 0x8DC0, symBinAddr: 0x22260, symSize: 0x350 }
  - { offsetInCU: 0x25A8B, offset: 0x7900C, size: 0x8, addend: 0x0, symName: '__ZN4core3ptr43drop_in_place$LT$syn..path..PathSegment$GT$17ha5ca164533debdbfE.llvm.1748036295679505338', symObjAddr: 0x9110, symBinAddr: 0x225B0, symSize: 0x170 }
  - { offsetInCU: 0x2602F, offset: 0x795B0, size: 0x8, addend: 0x0, symName: '__ZN4core3ptr44drop_in_place$LT$syn..generics..Generics$GT$17h7f9a550c46963f04E', symObjAddr: 0x9280, symBinAddr: 0x22720, symSize: 0x220 }
  - { offsetInCU: 0x268AC, offset: 0x79E2D, size: 0x8, addend: 0x0, symName: '__ZN4core3ptr44drop_in_place$LT$syn..item..ImplItemType$GT$17h69f303d808cd178eE', symObjAddr: 0x94A0, symBinAddr: 0x22940, symSize: 0x1D0 }
  - { offsetInCU: 0x26E60, offset: 0x7A3E1, size: 0x8, addend: 0x0, symName: '__ZN4core3ptr44drop_in_place$LT$syn..lifetime..Lifetime$GT$17h02a95ffc84ffd974E.llvm.1748036295679505338', symObjAddr: 0x9670, symBinAddr: 0x22B10, symSize: 0x30 }
  - { offsetInCU: 0x26FBA, offset: 0x7A53B, size: 0x8, addend: 0x0, symName: '__ZN4core3ptr45drop_in_place$LT$proc_macro2..TokenStream$GT$17h661e8a5a3640a978E.llvm.1748036295679505338', symObjAddr: 0x96A0, symBinAddr: 0x22B40, symSize: 0x70 }
  - { offsetInCU: 0x2710E, offset: 0x7A68F, size: 0x8, addend: 0x0, symName: '__ZN4core3ptr45drop_in_place$LT$syn..generics..TypeParam$GT$17hd9ee95d550b3e236E.llvm.1748036295679505338', symObjAddr: 0x9710, symBinAddr: 0x22BB0, symSize: 0x230 }
  - { offsetInCU: 0x27953, offset: 0x7AED4, size: 0x8, addend: 0x0, symName: '__ZN4core3ptr45drop_in_place$LT$syn..item..ImplItemConst$GT$17hd1d8be7188fbcb5aE', symObjAddr: 0x9940, symBinAddr: 0x22DE0, symSize: 0x200 }
  - { offsetInCU: 0x27F45, offset: 0x7B4C6, size: 0x8, addend: 0x0, symName: '__ZN4core3ptr45drop_in_place$LT$syn..item..TraitItemType$GT$17h7a250fa86eb6be2aE', symObjAddr: 0x9B40, symBinAddr: 0x22FE0, symSize: 0x290 }
  - { offsetInCU: 0x28822, offset: 0x7BDA3, size: 0x8, addend: 0x0, symName: '__ZN4core3ptr46drop_in_place$LT$syn..generics..ConstParam$GT$17hb4dcba9e9f309263E.llvm.1748036295679505338', symObjAddr: 0x9DD0, symBinAddr: 0x23270, symSize: 0x150 }
  - { offsetInCU: 0x28C23, offset: 0x7C1A4, size: 0x8, addend: 0x0, symName: '__ZN4core3ptr46drop_in_place$LT$syn..item..TraitItemConst$GT$17h9257be8c1f6e2935E', symObjAddr: 0x9F20, symBinAddr: 0x233C0, symSize: 0x1A0 }
  - { offsetInCU: 0x290A3, offset: 0x7C624, size: 0x8, addend: 0x0, symName: '__ZN4core3ptr47drop_in_place$LT$syn..generics..WhereClause$GT$17hfa3ed6bb1aa47b36E', symObjAddr: 0xA0C0, symBinAddr: 0x23560, symSize: 0x120 }
  - { offsetInCU: 0x294ED, offset: 0x7CA6E, size: 0x8, addend: 0x0, symName: '__ZN4core3ptr47drop_in_place$LT$syn..item..ForeignItemType$GT$17hc13a18cd6639393dE', symObjAddr: 0xA1E0, symBinAddr: 0x23680, symSize: 0x1A0 }
  - { offsetInCU: 0x29AFE, offset: 0x7D07F, size: 0x8, addend: 0x0, symName: '__ZN4core3ptr47drop_in_place$LT$syn..path..GenericArgument$GT$17h8ff7afdf2989254bE.llvm.1748036295679505338', symObjAddr: 0xA380, symBinAddr: 0x23820, symSize: 0x4A0 }
  - { offsetInCU: 0x2AC60, offset: 0x7E1E1, size: 0x8, addend: 0x0, symName: '__ZN4core3ptr48drop_in_place$LT$syn..generics..GenericParam$GT$17h7c0ee254c691ba39E', symObjAddr: 0xA820, symBinAddr: 0x23CC0, symSize: 0x150 }
  - { offsetInCU: 0x2B052, offset: 0x7E5D3, size: 0x8, addend: 0x0, symName: '__ZN4core3ptr49drop_in_place$LT$syn..generics..LifetimeParam$GT$17ha4f70bb42723c9c1E.llvm.1748036295679505338', symObjAddr: 0xA970, symBinAddr: 0x23E10, symSize: 0xF0 }
  - { offsetInCU: 0x2B42D, offset: 0x7E9AE, size: 0x8, addend: 0x0, symName: '__ZN4core3ptr49drop_in_place$LT$syn..generics..PredicateType$GT$17h375116fc7f3de009E.llvm.1748036295679505338', symObjAddr: 0xAA60, symBinAddr: 0x23F00, symSize: 0x250 }
  - { offsetInCU: 0x2BC85, offset: 0x7F206, size: 0x8, addend: 0x0, symName: '__ZN4core3ptr49drop_in_place$LT$syn..item..ForeignItemStatic$GT$17hd0c9b73bfde91cb4E', symObjAddr: 0xACB0, symBinAddr: 0x24150, symSize: 0x180 }
  - { offsetInCU: 0x2C349, offset: 0x7F8CA, size: 0x8, addend: 0x0, symName: '__ZN4core3ptr50drop_in_place$LT$$u5b$syn..item..ImplItem$u5d$$GT$17had09d4627966580dE', symObjAddr: 0xAE30, symBinAddr: 0x242D0, symSize: 0x310 }
  - { offsetInCU: 0x2C710, offset: 0x7FC91, size: 0x8, addend: 0x0, symName: '__ZN4core3ptr50drop_in_place$LT$syn..generics..TypeParamBound$GT$17hd7e85b849f628957E', symObjAddr: 0xB140, symBinAddr: 0x245E0, symSize: 0xA0 }
  - { offsetInCU: 0x2C896, offset: 0x7FE17, size: 0x8, addend: 0x0, symName: '__ZN4core3ptr50drop_in_place$LT$syn..generics..WherePredicate$GT$17hfe08fbdb36951fecE.llvm.1748036295679505338', symObjAddr: 0xB1E0, symBinAddr: 0x24680, symSize: 0xA0 }
  - { offsetInCU: 0x2CA43, offset: 0x7FFC4, size: 0x8, addend: 0x0, symName: '__ZN4core3ptr51drop_in_place$LT$$u5b$syn..item..TraitItem$u5d$$GT$17hd7614e474de665aaE', symObjAddr: 0xB280, symBinAddr: 0x24720, symSize: 0x600 }
  - { offsetInCU: 0x2D3E1, offset: 0x80962, size: 0x8, addend: 0x0, symName: '__ZN4core3ptr52drop_in_place$LT$syn..restriction..VisRestricted$GT$17h6053910af258bff9E', symObjAddr: 0xB880, symBinAddr: 0x24D20, symSize: 0xF0 }
  - { offsetInCU: 0x2D84B, offset: 0x80DCC, size: 0x8, addend: 0x0, symName: '__ZN4core3ptr53drop_in_place$LT$$u5b$syn..item..ForeignItem$u5d$$GT$17hd0ce9fde99b9353eE', symObjAddr: 0xB970, symBinAddr: 0x24E10, symSize: 0x630 }
  - { offsetInCU: 0x2E3EB, offset: 0x8196C, size: 0x8, addend: 0x0, symName: '__ZN4core3ptr58drop_in_place$LT$alloc..vec..Vec$LT$syn..expr..Arm$GT$$GT$17h6bd6c3d1f6387055E', symObjAddr: 0xBFA0, symBinAddr: 0x25440, symSize: 0xD0 }
  - { offsetInCU: 0x2E678, offset: 0x81BF9, size: 0x8, addend: 0x0, symName: '__ZN4core3ptr59drop_in_place$LT$alloc..boxed..Box$LT$syn..pat..Pat$GT$$GT$17hda655f7a9a4c7219E.llvm.1748036295679505338', symObjAddr: 0xC070, symBinAddr: 0x25510, symSize: 0x50 }
  - { offsetInCU: 0x2E7D3, offset: 0x81D54, size: 0x8, addend: 0x0, symName: '__ZN4core3ptr59drop_in_place$LT$alloc..boxed..Box$LT$syn..ty..Type$GT$$GT$17h7c46f1a27385755aE', symObjAddr: 0xC0C0, symBinAddr: 0x25560, symSize: 0x50 }
  - { offsetInCU: 0x2E92E, offset: 0x81EAF, size: 0x8, addend: 0x0, symName: '__ZN4core3ptr59drop_in_place$LT$alloc..vec..Vec$LT$syn..item..Item$GT$$GT$17h6390def1a74b991cE', symObjAddr: 0xC110, symBinAddr: 0x255B0, symSize: 0xD0 }
  - { offsetInCU: 0x2EBBB, offset: 0x8213C, size: 0x8, addend: 0x0, symName: '__ZN4core3ptr61drop_in_place$LT$alloc..boxed..Box$LT$syn..expr..Expr$GT$$GT$17h0f9eb18f16709c9dE', symObjAddr: 0xC1E0, symBinAddr: 0x25680, symSize: 0x50 }
  - { offsetInCU: 0x2ED16, offset: 0x82297, size: 0x8, addend: 0x0, symName: '__ZN4core3ptr61drop_in_place$LT$alloc..boxed..Box$LT$syn..path..Path$GT$$GT$17h3379e923d9453084E', symObjAddr: 0xC230, symBinAddr: 0x256D0, symSize: 0x50 }
  - { offsetInCU: 0x2EF48, offset: 0x824C9, size: 0x8, addend: 0x0, symName: '__ZN4core3ptr61drop_in_place$LT$syn..path..ParenthesizedGenericArguments$GT$17h9caa3aea5837eb56E.llvm.1748036295679505338', symObjAddr: 0xC280, symBinAddr: 0x25720, symSize: 0x170 }
  - { offsetInCU: 0x2F50F, offset: 0x82A90, size: 0x8, addend: 0x0, symName: '__ZN4core3ptr62drop_in_place$LT$alloc..boxed..Box$LT$syn..data..Field$GT$$GT$17h227078e139205491E', symObjAddr: 0xC3F0, symBinAddr: 0x25890, symSize: 0x50 }
  - { offsetInCU: 0x2F689, offset: 0x82C0A, size: 0x8, addend: 0x0, symName: '__ZN4core3ptr62drop_in_place$LT$alloc..boxed..Box$LT$syn..item..FnArg$GT$$GT$17h8bb2c50fb7368bfeE', symObjAddr: 0xC440, symBinAddr: 0x258E0, symSize: 0x60 }
  - { offsetInCU: 0x2F801, offset: 0x82D82, size: 0x8, addend: 0x0, symName: '__ZN4core3ptr62drop_in_place$LT$alloc..boxed..Box$LT$syn..stmt..Block$GT$$GT$17ha2f107704eef4f75E', symObjAddr: 0xC4A0, symBinAddr: 0x25940, symSize: 0xE0 }
  - { offsetInCU: 0x2FBE2, offset: 0x83163, size: 0x8, addend: 0x0, symName: '__ZN4core3ptr62drop_in_place$LT$syn..path..AngleBracketedGenericArguments$GT$17h387af74cd2856031E.llvm.1748036295679505338', symObjAddr: 0xC580, symBinAddr: 0x25A20, symSize: 0x120 }
  - { offsetInCU: 0x3002C, offset: 0x835AD, size: 0x8, addend: 0x0, symName: '__ZN4core3ptr63drop_in_place$LT$alloc..vec..Vec$LT$syn..item..ImplItem$GT$$GT$17h4d2bffa8a6d2bc8eE', symObjAddr: 0xC6A0, symBinAddr: 0x25B40, symSize: 0x80 }
  - { offsetInCU: 0x302AA, offset: 0x8382B, size: 0x8, addend: 0x0, symName: '__ZN4core3ptr64drop_in_place$LT$alloc..boxed..Box$LT$syn..data..Variant$GT$$GT$17he7dc83255664a9ceE', symObjAddr: 0xC720, symBinAddr: 0x25BC0, symSize: 0x50 }
  - { offsetInCU: 0x30405, offset: 0x83986, size: 0x8, addend: 0x0, symName: '__ZN4core3ptr64drop_in_place$LT$alloc..boxed..Box$LT$syn..item..UseTree$GT$$GT$17hb2af8cae3c91c989E', symObjAddr: 0xC770, symBinAddr: 0x25C10, symSize: 0x50 }
  - { offsetInCU: 0x3057F, offset: 0x83B00, size: 0x8, addend: 0x0, symName: '__ZN4core3ptr64drop_in_place$LT$alloc..boxed..Box$LT$syn..pat..FieldPat$GT$$GT$17h51affbaae84ab277E', symObjAddr: 0xC7C0, symBinAddr: 0x25C60, symSize: 0x140 }
  - { offsetInCU: 0x30C20, offset: 0x841A1, size: 0x8, addend: 0x0, symName: '__ZN4core3ptr64drop_in_place$LT$alloc..boxed..Box$LT$syn..ty..BareFnArg$GT$$GT$17ha646ec070779f4a0E', symObjAddr: 0xC900, symBinAddr: 0x25DA0, symSize: 0x140 }
  - { offsetInCU: 0x31178, offset: 0x846F9, size: 0x8, addend: 0x0, symName: '__ZN4core3ptr64drop_in_place$LT$alloc..vec..Vec$LT$syn..attr..Attribute$GT$$GT$17hd53860c598dbf16aE', symObjAddr: 0xCA40, symBinAddr: 0x25EE0, symSize: 0xD0 }
  - { offsetInCU: 0x31439, offset: 0x849BA, size: 0x8, addend: 0x0, symName: '__ZN4core3ptr64drop_in_place$LT$alloc..vec..Vec$LT$syn..item..TraitItem$GT$$GT$17h8f17e6f4f8cafe11E', symObjAddr: 0xCB10, symBinAddr: 0x25FB0, symSize: 0x80 }
  - { offsetInCU: 0x316B7, offset: 0x84C38, size: 0x8, addend: 0x0, symName: '__ZN4core3ptr65drop_in_place$LT$$LP$syn..item..FnArg$C$syn..token..Comma$RP$$GT$17hf9860d7bc12bce63E', symObjAddr: 0xCB90, symBinAddr: 0x26030, symSize: 0x20 }
  - { offsetInCU: 0x31750, offset: 0x84CD1, size: 0x8, addend: 0x0, symName: '__ZN4core3ptr65drop_in_place$LT$alloc..vec..Vec$LT$proc_macro..TokenTree$GT$$GT$17h13a873d2ffb3e1afE.llvm.1748036295679505338', symObjAddr: 0xCBB0, symBinAddr: 0x26050, symSize: 0x120 }
  - { offsetInCU: 0x31AC2, offset: 0x85043, size: 0x8, addend: 0x0, symName: '__ZN4core3ptr65drop_in_place$LT$core..option..Option$LT$syn..expr..Label$GT$$GT$17h7470e669be35e9e2E', symObjAddr: 0xCCD0, symBinAddr: 0x26170, symSize: 0x30 }
  - { offsetInCU: 0x31BFD, offset: 0x8517E, size: 0x8, addend: 0x0, symName: '__ZN4core3ptr65drop_in_place$LT$core..option..Option$LT$syn..stmt..Block$GT$$GT$17h01b2578e8339bc0eE', symObjAddr: 0xCD00, symBinAddr: 0x261A0, symSize: 0xE0 }
  - { offsetInCU: 0x31E62, offset: 0x853E3, size: 0x8, addend: 0x0, symName: '__ZN4core3ptr66drop_in_place$LT$alloc..vec..Vec$LT$syn..item..ForeignItem$GT$$GT$17h23068607cedb0cd5E', symObjAddr: 0xCDE0, symBinAddr: 0x26280, symSize: 0x80 }
  - { offsetInCU: 0x320E0, offset: 0x85661, size: 0x8, addend: 0x0, symName: '__ZN4core3ptr67drop_in_place$LT$$LP$syn..pat..FieldPat$C$syn..token..Comma$RP$$GT$17h01996cb336a2016cE.llvm.1748036295679505338', symObjAddr: 0xCE60, symBinAddr: 0x26300, symSize: 0x130 }
  - { offsetInCU: 0x3264A, offset: 0x85BCB, size: 0x8, addend: 0x0, symName: '__ZN4core3ptr67drop_in_place$LT$$LP$syn..ty..BareFnArg$C$syn..token..Comma$RP$$GT$17hc9b9b1c48ab9e049E.llvm.1748036295679505338', symObjAddr: 0xCF90, symBinAddr: 0x26430, symSize: 0x110 }
  - { offsetInCU: 0x32A9B, offset: 0x8601C, size: 0x8, addend: 0x0, symName: '__ZN4core3ptr67drop_in_place$LT$alloc..boxed..Box$LT$syn..expr..FieldValue$GT$$GT$17h409ff751c9d10852E', symObjAddr: 0xD0A0, symBinAddr: 0x26540, symSize: 0x140 }
  - { offsetInCU: 0x32FD3, offset: 0x86554, size: 0x8, addend: 0x0, symName: '__ZN4core3ptr68drop_in_place$LT$alloc..boxed..Box$LT$syn..path..PathSegment$GT$$GT$17ha80f4fa99bbc42a5E', symObjAddr: 0xD1E0, symBinAddr: 0x26680, symSize: 0xD0 }
  - { offsetInCU: 0x333D1, offset: 0x86952, size: 0x8, addend: 0x0, symName: '__ZN4core3ptr69drop_in_place$LT$core..option..Option$LT$syn..stmt..LocalInit$GT$$GT$17h72708f61e1436dc9E', symObjAddr: 0xD2B0, symBinAddr: 0x26750, symSize: 0xC0 }
  - { offsetInCU: 0x337D2, offset: 0x86D53, size: 0x8, addend: 0x0, symName: '__ZN4core3ptr702drop_in_place$LT$core..iter..adapters..GenericShunt$LT$core..iter..adapters..map..Map$LT$core..iter..adapters..zip..Zip$LT$core..iter..adapters..zip..Zip$LT$core..iter..adapters..map..Map$LT$syn..punctuated..Iter$LT$syn..data..Variant$GT$$C$bytemuck_derive..traits..generate_checked_bit_pattern_enum_with_fields..$u7b$$u7b$closure$u7d$$u7d$$GT$$C$bytemuck_derive..traits..VariantDiscriminantIterator$LT$syn..punctuated..Iter$LT$syn..data..Variant$GT$$GT$$GT$$C$syn..punctuated..Iter$LT$syn..data..Variant$GT$$GT$$C$bytemuck_derive..traits..generate_checked_bit_pattern_enum_with_fields..$u7b$$u7b$closure$u7d$$u7d$$GT$$C$core..result..Result$LT$core..convert..Infallible$C$syn..error..Error$GT$$GT$$GT$17h6a6fced694694284E', symObjAddr: 0xD370, symBinAddr: 0x26810, symSize: 0xA0 }
  - { offsetInCU: 0x33B6A, offset: 0x870EB, size: 0x8, addend: 0x0, symName: '__ZN4core3ptr70drop_in_place$LT$$LP$syn..expr..FieldValue$C$syn..token..Comma$RP$$GT$17h7ee786d9e1810a8cE.llvm.1748036295679505338', symObjAddr: 0xD410, symBinAddr: 0x268B0, symSize: 0x110 }
  - { offsetInCU: 0x33F7C, offset: 0x874FD, size: 0x8, addend: 0x0, symName: '__ZN4core3ptr70drop_in_place$LT$core..option..Option$LT$syn..ty..BareVariadic$GT$$GT$17hd561fe5259fe880fE', symObjAddr: 0xD520, symBinAddr: 0x269C0, symSize: 0x100 }
  - { offsetInCU: 0x343AC, offset: 0x8792D, size: 0x8, addend: 0x0, symName: '__ZN4core3ptr72drop_in_place$LT$alloc..boxed..Box$LT$syn..path..GenericArgument$GT$$GT$17h9e1c2fd89a12c330E.llvm.1748036295679505338', symObjAddr: 0xD620, symBinAddr: 0x26AC0, symSize: 0x180 }
  - { offsetInCU: 0x34841, offset: 0x87DC2, size: 0x8, addend: 0x0, symName: '__ZN4core3ptr73drop_in_place$LT$$LP$syn..path..PathSegment$C$syn..token..PathSep$RP$$GT$17h7373c21c54e204ffE.llvm.1748036295679505338', symObjAddr: 0xD7A0, symBinAddr: 0x26C40, symSize: 0xC0 }
  - { offsetInCU: 0x34B07, offset: 0x88088, size: 0x8, addend: 0x0, symName: '__ZN4core3ptr73drop_in_place$LT$alloc..boxed..Box$LT$syn..generics..GenericParam$GT$$GT$17hd2636ca4399a3a9fE', symObjAddr: 0xD860, symBinAddr: 0x26D00, symSize: 0x80 }
  - { offsetInCU: 0x34C7F, offset: 0x88200, size: 0x8, addend: 0x0, symName: '__ZN4core3ptr75drop_in_place$LT$$LP$syn..path..GenericArgument$C$syn..token..Comma$RP$$GT$17h895eb946ec06532fE.llvm.1748036295679505338', symObjAddr: 0xD8E0, symBinAddr: 0x26D80, symSize: 0x180 }
  - { offsetInCU: 0x34FD2, offset: 0x88553, size: 0x8, addend: 0x0, symName: '__ZN4core3ptr75drop_in_place$LT$alloc..boxed..Box$LT$syn..generics..TypeParamBound$GT$$GT$17h2eecd7a4ccb01a6dE', symObjAddr: 0xDA60, symBinAddr: 0x26F00, symSize: 0x160 }
  - { offsetInCU: 0x3556F, offset: 0x88AF0, size: 0x8, addend: 0x0, symName: '__ZN4core3ptr75drop_in_place$LT$alloc..boxed..Box$LT$syn..generics..WherePredicate$GT$$GT$17h174c85f83ea65afaE', symObjAddr: 0xDBC0, symBinAddr: 0x27060, symSize: 0x80 }
  - { offsetInCU: 0x35805, offset: 0x88D86, size: 0x8, addend: 0x0, symName: '__ZN4core3ptr76drop_in_place$LT$$LP$syn..generics..GenericParam$C$syn..token..Comma$RP$$GT$17h8bea7025aa39b84aE.llvm.1748036295679505338', symObjAddr: 0xDC40, symBinAddr: 0x270E0, symSize: 0x40 }
  - { offsetInCU: 0x35841, offset: 0x88DC2, size: 0x8, addend: 0x0, symName: '__ZN4core3ptr77drop_in_place$LT$$LP$syn..generics..TypeParamBound$C$syn..token..Plus$RP$$GT$17h4e12f1b6ce0a23ccE.llvm.1748036295679505338', symObjAddr: 0xDC80, symBinAddr: 0x27120, symSize: 0x160 }
  - { offsetInCU: 0x35CAC, offset: 0x8922D, size: 0x8, addend: 0x0, symName: '__ZN4core3ptr78drop_in_place$LT$$LP$syn..generics..WherePredicate$C$syn..token..Comma$RP$$GT$17hc244cb460c23f3d9E.llvm.1748036295679505338', symObjAddr: 0xDDE0, symBinAddr: 0x27280, symSize: 0x50 }
  - { offsetInCU: 0x35E06, offset: 0x89387, size: 0x8, addend: 0x0, symName: '__ZN4core3ptr86drop_in_place$LT$$LP$syn..token..If$C$alloc..boxed..Box$LT$syn..expr..Expr$GT$$RP$$GT$17h5eec8bbcbaf37213E', symObjAddr: 0xDE30, symBinAddr: 0x272D0, symSize: 0x50 }
  - { offsetInCU: 0x3601B, offset: 0x8959C, size: 0x8, addend: 0x0, symName: '__ZN4core3ptr86drop_in_place$LT$syn..punctuated..Punctuated$LT$syn..pat..Pat$C$syn..token..Or$GT$$GT$17h0a64ebd164b5dc32E', symObjAddr: 0xDE80, symBinAddr: 0x27320, symSize: 0x120 }
  - { offsetInCU: 0x36478, offset: 0x899F9, size: 0x8, addend: 0x0, symName: '__ZN4core3ptr87drop_in_place$LT$$LP$alloc..boxed..Box$LT$syn..pat..Pat$GT$$C$syn..token..Colon$RP$$GT$17h7e49dfaf01cd62b0E', symObjAddr: 0xDFA0, symBinAddr: 0x27440, symSize: 0x50 }
  - { offsetInCU: 0x365F2, offset: 0x89B73, size: 0x8, addend: 0x0, symName: '__ZN4core3ptr87drop_in_place$LT$core..option..Option$LT$alloc..boxed..Box$LT$syn..ty..Type$GT$$GT$$GT$17h7b50ff63bc2302e5E', symObjAddr: 0xDFF0, symBinAddr: 0x27490, symSize: 0x50 }
  - { offsetInCU: 0x36764, offset: 0x89CE5, size: 0x8, addend: 0x0, symName: '__ZN4core3ptr89drop_in_place$LT$core..option..Option$LT$alloc..boxed..Box$LT$syn..expr..Expr$GT$$GT$$GT$17h57d0a0d85babf42eE', symObjAddr: 0xE040, symBinAddr: 0x274E0, symSize: 0x50 }
  - { offsetInCU: 0x368D6, offset: 0x89E57, size: 0x8, addend: 0x0, symName: '__ZN4core3ptr89drop_in_place$LT$syn..punctuated..Punctuated$LT$syn..ty..Type$C$syn..token..Comma$GT$$GT$17hf8332e5351ee8f4aE.llvm.1748036295679505338', symObjAddr: 0xE090, symBinAddr: 0x27530, symSize: 0x120 }
  - { offsetInCU: 0x36D20, offset: 0x8A2A1, size: 0x8, addend: 0x0, symName: '__ZN4core3ptr90drop_in_place$LT$core..option..Option$LT$alloc..boxed..Box$LT$syn..data..Field$GT$$GT$$GT$17hf6e2a61899401111E', symObjAddr: 0xE1B0, symBinAddr: 0x27650, symSize: 0x50 }
  - { offsetInCU: 0x36E92, offset: 0x8A413, size: 0x8, addend: 0x0, symName: '__ZN4core3ptr90drop_in_place$LT$core..option..Option$LT$alloc..boxed..Box$LT$syn..item..FnArg$GT$$GT$$GT$17hd81b6fbd15958e74E', symObjAddr: 0xE200, symBinAddr: 0x276A0, symSize: 0x50 }
  - { offsetInCU: 0x37004, offset: 0x8A585, size: 0x8, addend: 0x0, symName: '__ZN4core3ptr90drop_in_place$LT$core..option..Option$LT$syn..path..AngleBracketedGenericArguments$GT$$GT$17hd30e8b575758ee5fE', symObjAddr: 0xE250, symBinAddr: 0x276F0, symSize: 0x130 }
  - { offsetInCU: 0x374E1, offset: 0x8AA62, size: 0x8, addend: 0x0, symName: '__ZN4core3ptr91drop_in_place$LT$syn..punctuated..Punctuated$LT$syn..expr..Expr$C$syn..token..Comma$GT$$GT$17h2ba0440d00fc17b7E', symObjAddr: 0xE380, symBinAddr: 0x27820, symSize: 0x120 }
  - { offsetInCU: 0x3793E, offset: 0x8AEBF, size: 0x8, addend: 0x0, symName: '__ZN4core3ptr92drop_in_place$LT$core..option..Option$LT$$LP$syn..token..As$C$proc_macro2..Ident$RP$$GT$$GT$17hc0715021e9bb50f3E', symObjAddr: 0xE4A0, symBinAddr: 0x27940, symSize: 0x30 }
  - { offsetInCU: 0x37A5A, offset: 0x8AFDB, size: 0x8, addend: 0x0, symName: '__ZN4core3ptr92drop_in_place$LT$syn..punctuated..Punctuated$LT$syn..data..Field$C$syn..token..Comma$GT$$GT$17h5de3f9032117898fE', symObjAddr: 0xE4D0, symBinAddr: 0x27970, symSize: 0x120 }
  - { offsetInCU: 0x37EA4, offset: 0x8B425, size: 0x8, addend: 0x0, symName: '__ZN4core3ptr92drop_in_place$LT$syn..punctuated..Punctuated$LT$syn..item..FnArg$C$syn..token..Comma$GT$$GT$17h95fe645a49a6b195E', symObjAddr: 0xE5F0, symBinAddr: 0x27A90, symSize: 0x150 }
  - { offsetInCU: 0x383B9, offset: 0x8B93A, size: 0x8, addend: 0x0, symName: '__ZN4core3ptr94drop_in_place$LT$syn..punctuated..Punctuated$LT$syn..data..Variant$C$syn..token..Comma$GT$$GT$17hc9fb213c3c82ee2eE', symObjAddr: 0xE740, symBinAddr: 0x27BE0, symSize: 0x120 }
  - { offsetInCU: 0x38892, offset: 0x8BE13, size: 0x8, addend: 0x0, symName: '__ZN4core3ptr94drop_in_place$LT$syn..punctuated..Punctuated$LT$syn..pat..FieldPat$C$syn..token..Comma$GT$$GT$17he37c9fd1795d6e36E', symObjAddr: 0xE860, symBinAddr: 0x27D00, symSize: 0xF0 }
  - { offsetInCU: 0x38BEB, offset: 0x8C16C, size: 0x8, addend: 0x0, symName: '__ZN4core3ptr94drop_in_place$LT$syn..punctuated..Punctuated$LT$syn..ty..BareFnArg$C$syn..token..Comma$GT$$GT$17h818f76d349cdca5cE', symObjAddr: 0xE950, symBinAddr: 0x27DF0, symSize: 0xF0 }
  - { offsetInCU: 0x38EC8, offset: 0x8C449, size: 0x8, addend: 0x0, symName: '__ZN4core3ptr95drop_in_place$LT$core..option..Option$LT$$LP$proc_macro2..Ident$C$syn..token..Colon$RP$$GT$$GT$17hfadd1232da69c030E.llvm.1748036295679505338', symObjAddr: 0xEA40, symBinAddr: 0x27EE0, symSize: 0x30 }
  - { offsetInCU: 0x38FE4, offset: 0x8C565, size: 0x8, addend: 0x0, symName: '__ZN4core3ptr96drop_in_place$LT$core..option..Option$LT$alloc..boxed..Box$LT$syn..path..PathSegment$GT$$GT$$GT$17hf46b91b97ce17f95E.llvm.1748036295679505338', symObjAddr: 0xEA70, symBinAddr: 0x27F10, symSize: 0x90 }
  - { offsetInCU: 0x39301, offset: 0x8C882, size: 0x8, addend: 0x0, symName: '__ZN4core3ptr97drop_in_place$LT$syn..punctuated..Punctuated$LT$syn..expr..FieldValue$C$syn..token..Comma$GT$$GT$17h60e67521866e947dE', symObjAddr: 0xEB50, symBinAddr: 0x27FA0, symSize: 0xF0 }
  - { offsetInCU: 0x395DE, offset: 0x8CB5F, size: 0x8, addend: 0x0, symName: '__ZN4core3ptr98drop_in_place$LT$alloc..vec..Vec$LT$$LP$syn..path..GenericArgument$C$syn..token..Comma$RP$$GT$$GT$17haeb2991136d128a4E', symObjAddr: 0xEC40, symBinAddr: 0x28090, symSize: 0xD0 }
  - { offsetInCU: 0x3993A, offset: 0x8CEBB, size: 0x8, addend: 0x0, symName: '__ZN4core3ptr98drop_in_place$LT$syn..punctuated..Punctuated$LT$syn..lifetime..Lifetime$C$syn..token..Plus$GT$$GT$17h9d8806b4a517b3d8E.llvm.1748036295679505338', symObjAddr: 0xED10, symBinAddr: 0x28160, symSize: 0xC0 }
  - { offsetInCU: 0x3A910, offset: 0x8DE91, size: 0x8, addend: 0x0, symName: '__ZN106_$LT$core..iter..adapters..flatten..Flatten$LT$I$GT$$u20$as$u20$core..iter..traits..iterator..Iterator$GT$4next17he32d7e2be557bdd8E', symObjAddr: 0x0, symBinAddr: 0x194A0, symSize: 0x240 }
  - { offsetInCU: 0x3F0F2, offset: 0x92673, size: 0x8, addend: 0x0, symName: '__ZN70_$LT$alloc..vec..Vec$LT$T$C$A$GT$$u20$as$u20$core..ops..drop..Drop$GT$4drop17h1f1c517435a70e1bE', symObjAddr: 0xF670, symBinAddr: 0x28860, symSize: 0xB0 }
  - { offsetInCU: 0x3F154, offset: 0x926D5, size: 0x8, addend: 0x0, symName: '__ZN70_$LT$alloc..vec..Vec$LT$T$C$A$GT$$u20$as$u20$core..ops..drop..Drop$GT$4drop17h6e1f88e051c5c06aE', symObjAddr: 0xF9F0, symBinAddr: 0x28910, symSize: 0x90 }
  - { offsetInCU: 0x3F25A, offset: 0x927DB, size: 0x8, addend: 0x0, symName: '__ZN70_$LT$alloc..vec..Vec$LT$T$C$A$GT$$u20$as$u20$core..ops..drop..Drop$GT$4drop17h8234b6ed2d6a608cE', symObjAddr: 0xFB80, symBinAddr: 0x289A0, symSize: 0xB0 }
  - { offsetInCU: 0x3F3D6, offset: 0x92957, size: 0x8, addend: 0x0, symName: '__ZN70_$LT$alloc..vec..Vec$LT$T$C$A$GT$$u20$as$u20$core..ops..drop..Drop$GT$4drop17h8c820e455cd0df70E', symObjAddr: 0xFC30, symBinAddr: 0x28A50, symSize: 0x110 }
  - { offsetInCU: 0x3F46C, offset: 0x929ED, size: 0x8, addend: 0x0, symName: '__ZN70_$LT$alloc..vec..Vec$LT$T$C$A$GT$$u20$as$u20$core..ops..drop..Drop$GT$4drop17h97d007371b217119E', symObjAddr: 0xFD40, symBinAddr: 0x28B60, symSize: 0x80 }
  - { offsetInCU: 0x3F4F6, offset: 0x92A77, size: 0x8, addend: 0x0, symName: '__ZN70_$LT$alloc..vec..Vec$LT$T$C$A$GT$$u20$as$u20$core..ops..drop..Drop$GT$4drop17hb031438b44722db9E', symObjAddr: 0xFDD0, symBinAddr: 0x28BE0, symSize: 0x50 }
  - { offsetInCU: 0x3F637, offset: 0x92BB8, size: 0x8, addend: 0x0, symName: '__ZN70_$LT$alloc..vec..Vec$LT$T$C$A$GT$$u20$as$u20$core..ops..drop..Drop$GT$4drop17hdb800c8ca84031dcE', symObjAddr: 0x100A0, symBinAddr: 0x28C30, symSize: 0xA0 }
  - { offsetInCU: 0x3F9DC, offset: 0x92F5D, size: 0x8, addend: 0x0, symName: '__ZN70_$LT$alloc..vec..Vec$LT$T$C$A$GT$$u20$as$u20$core..ops..drop..Drop$GT$4drop17hf1fd636d2cfa9adeE', symObjAddr: 0x10190, symBinAddr: 0x28CD0, symSize: 0x80 }
  - { offsetInCU: 0x3FB4D, offset: 0x930CE, size: 0x8, addend: 0x0, symName: '__ZN97_$LT$alloc..vec..Vec$LT$T$C$A$GT$$u20$as$u20$alloc..vec..spec_extend..SpecExtend$LT$T$C$I$GT$$GT$11spec_extend17h1449b4eeae87c558E', symObjAddr: 0x10210, symBinAddr: 0x28D50, symSize: 0x150 }
  - { offsetInCU: 0x4020E, offset: 0x9378F, size: 0x8, addend: 0x0, symName: '__ZN67_$LT$alloc..vec..Vec$LT$T$C$A$GT$$u20$as$u20$core..clone..Clone$GT$5clone17h46dd09ab6a32889eE', symObjAddr: 0xEE30, symBinAddr: 0x28220, symSize: 0x390 }
  - { offsetInCU: 0x40DE5, offset: 0x94366, size: 0x8, addend: 0x0, symName: '__ZN67_$LT$alloc..vec..Vec$LT$T$C$A$GT$$u20$as$u20$core..clone..Clone$GT$5clone17hc4b6324ded85874fE', symObjAddr: 0xF1C0, symBinAddr: 0x285B0, symSize: 0x2B0 }
  - { offsetInCU: 0x41E7D, offset: 0x953FE, size: 0x8, addend: 0x0, symName: '__ZN98_$LT$alloc..vec..Vec$LT$T$GT$$u20$as$u20$alloc..vec..spec_from_iter..SpecFromIter$LT$T$C$I$GT$$GT$9from_iter17h01cf6b3cff25a36bE', symObjAddr: 0x10420, symBinAddr: 0x28EA0, symSize: 0x460 }
  - { offsetInCU: 0x42FA7, offset: 0x96528, size: 0x8, addend: 0x0, symName: '__ZN98_$LT$alloc..vec..Vec$LT$T$GT$$u20$as$u20$alloc..vec..spec_from_iter..SpecFromIter$LT$T$C$I$GT$$GT$9from_iter17h08c5e0bcca3aeeb8E', symObjAddr: 0x10880, symBinAddr: 0x29300, symSize: 0x350 }
  - { offsetInCU: 0x43725, offset: 0x96CA6, size: 0x8, addend: 0x0, symName: '__ZN98_$LT$alloc..vec..Vec$LT$T$GT$$u20$as$u20$alloc..vec..spec_from_iter..SpecFromIter$LT$T$C$I$GT$$GT$9from_iter17h4ed4d5eda6a40297E', symObjAddr: 0x10BD0, symBinAddr: 0x29650, symSize: 0x280 }
  - { offsetInCU: 0x44248, offset: 0x977C9, size: 0x8, addend: 0x0, symName: '__ZN98_$LT$alloc..vec..Vec$LT$T$GT$$u20$as$u20$alloc..vec..spec_from_iter..SpecFromIter$LT$T$C$I$GT$$GT$9from_iter17h5b4443f543d160d5E', symObjAddr: 0x10E50, symBinAddr: 0x298D0, symSize: 0x380 }
  - { offsetInCU: 0x44E4D, offset: 0x983CE, size: 0x8, addend: 0x0, symName: '__ZN98_$LT$alloc..vec..Vec$LT$T$GT$$u20$as$u20$alloc..vec..spec_from_iter..SpecFromIter$LT$T$C$I$GT$$GT$9from_iter17hbc4a189537f5a47eE', symObjAddr: 0x111D0, symBinAddr: 0x29C50, symSize: 0x260 }
  - { offsetInCU: 0x45A08, offset: 0x98F89, size: 0x8, addend: 0x0, symName: '__ZN98_$LT$alloc..vec..Vec$LT$T$GT$$u20$as$u20$alloc..vec..spec_from_iter..SpecFromIter$LT$T$C$I$GT$$GT$9from_iter17hbcbce937aee5b436E', symObjAddr: 0x11430, symBinAddr: 0x29EB0, symSize: 0x3E0 }
  - { offsetInCU: 0x4659B, offset: 0x99B1C, size: 0x8, addend: 0x0, symName: '__ZN98_$LT$alloc..vec..Vec$LT$T$GT$$u20$as$u20$alloc..vec..spec_from_iter..SpecFromIter$LT$T$C$I$GT$$GT$9from_iter17hbcead690e526ab85E', symObjAddr: 0x11810, symBinAddr: 0x2A290, symSize: 0x3E0 }
  - { offsetInCU: 0x4712E, offset: 0x9A6AF, size: 0x8, addend: 0x0, symName: '__ZN98_$LT$alloc..vec..Vec$LT$T$GT$$u20$as$u20$alloc..vec..spec_from_iter..SpecFromIter$LT$T$C$I$GT$$GT$9from_iter17he0e1c01c464082c3E', symObjAddr: 0x11BF0, symBinAddr: 0x2A670, symSize: 0x395 }
  - { offsetInCU: 0x1E, offset: 0xAA93D, size: 0x8, addend: 0x0, symName: __ZN10proc_macro6bridge6client14HandleCounters3get17h02da01958788119eE, symObjAddr: 0x0, symBinAddr: 0x2AA10, symSize: 0x10 }
  - { offsetInCU: 0x40, offset: 0xAA95F, size: 0x8, addend: 0x0, symName: ___rustc_proc_macro_decls_9893b6617a620d0f__, symObjAddr: 0xCFA8, symBinAddr: 0x2A4828, symSize: 0x0 }
  - { offsetInCU: 0x5A3, offset: 0xAAEC2, size: 0x8, addend: 0x0, symName: __ZN15bytemuck_derive10derive_pod17h6f0625a61766de9fE, symObjAddr: 0x6370, symBinAddr: 0x30D70, symSize: 0x6A0 }
  - { offsetInCU: 0x104E, offset: 0xAB96D, size: 0x8, addend: 0x0, symName: __ZN15bytemuck_derive20derive_anybitpattern17hce76dc73866249b5E, symObjAddr: 0x6A10, symBinAddr: 0x31410, symSize: 0x890 }
  - { offsetInCU: 0x1BE9, offset: 0xAC508, size: 0x8, addend: 0x0, symName: __ZN15bytemuck_derive15derive_zeroable17hfa46d3a3c3fd5f8eE, symObjAddr: 0x72A0, symBinAddr: 0x31CA0, symSize: 0x10D0 }
  - { offsetInCU: 0x3D02, offset: 0xAE621, size: 0x8, addend: 0x0, symName: __ZN15bytemuck_derive16derive_no_uninit17h8784d393b5306b78E, symObjAddr: 0x8370, symBinAddr: 0x32D70, symSize: 0x6A0 }
  - { offsetInCU: 0x47AD, offset: 0xAF0CC, size: 0x8, addend: 0x0, symName: __ZN15bytemuck_derive16derive_maybe_pod17h7980eeff99c9c347E, symObjAddr: 0x8A10, symBinAddr: 0x33410, symSize: 0x700 }
  - { offsetInCU: 0x5254, offset: 0xAFB73, size: 0x8, addend: 0x0, symName: __ZN15bytemuck_derive18derive_transparent17hd3de14a577ea2931E, symObjAddr: 0x9110, symBinAddr: 0x33B10, symSize: 0x680 }
  - { offsetInCU: 0x5CB3, offset: 0xB05D2, size: 0x8, addend: 0x0, symName: __ZN15bytemuck_derive17derive_contiguous17h3f71390336f00ba8E, symObjAddr: 0x9790, symBinAddr: 0x34190, symSize: 0x6F0 }
  - { offsetInCU: 0x6453, offset: 0xB0D72, size: 0x8, addend: 0x0, symName: __ZN15bytemuck_derive14derive_byte_eq17h2eb749489294172fE, symObjAddr: 0x9E80, symBinAddr: 0x34880, symSize: 0x980 }
  - { offsetInCU: 0x6F32, offset: 0xB1851, size: 0x8, addend: 0x0, symName: __ZN15bytemuck_derive16derive_byte_hash17h07b8fc0f9aa9774fE, symObjAddr: 0xA800, symBinAddr: 0x35200, symSize: 0xDEE }
  - { offsetInCU: 0xB37D, offset: 0xB5C9C, size: 0x8, addend: 0x0, symName: '__ZN4core3ptr100drop_in_place$LT$core..option..Option$LT$alloc..boxed..Box$LT$syn..path..GenericArgument$GT$$GT$$GT$17h81d5ae68dac3e542E', symObjAddr: 0xD0, symBinAddr: 0x2AAD0, symSize: 0x50 }
  - { offsetInCU: 0xB54C, offset: 0xB5E6B, size: 0x8, addend: 0x0, symName: '__ZN4core3ptr102drop_in_place$LT$syn..punctuated..Punctuated$LT$syn..path..GenericArgument$C$syn..token..Comma$GT$$GT$17hc105d9a0c2ba0082E', symObjAddr: 0x120, symBinAddr: 0x2AB20, symSize: 0xF0 }
  - { offsetInCU: 0xB835, offset: 0xB6154, size: 0x8, addend: 0x0, symName: '__ZN4core3ptr103drop_in_place$LT$core..option..Option$LT$alloc..boxed..Box$LT$syn..generics..TypeParamBound$GT$$GT$$GT$17hf90da6392a4e3d41E', symObjAddr: 0x210, symBinAddr: 0x2AC10, symSize: 0x50 }
  - { offsetInCU: 0xBAFC, offset: 0xB641B, size: 0x8, addend: 0x0, symName: '__ZN4core3ptr103drop_in_place$LT$core..option..Option$LT$alloc..boxed..Box$LT$syn..generics..WherePredicate$GT$$GT$$GT$17h5bb545989b436c82E', symObjAddr: 0x260, symBinAddr: 0x2AC60, symSize: 0xD0 }
  - { offsetInCU: 0xBE8F, offset: 0xB67AE, size: 0x8, addend: 0x0, symName: '__ZN4core3ptr103drop_in_place$LT$syn..punctuated..Punctuated$LT$syn..generics..GenericParam$C$syn..token..Comma$GT$$GT$17h911e43a7dc8fdff1E', symObjAddr: 0x330, symBinAddr: 0x2AD30, symSize: 0xF0 }
  - { offsetInCU: 0xC352, offset: 0xB6C71, size: 0x8, addend: 0x0, symName: '__ZN4core3ptr104drop_in_place$LT$syn..punctuated..Punctuated$LT$syn..generics..TypeParamBound$C$syn..token..Plus$GT$$GT$17h7ddaaad70512ee37E', symObjAddr: 0x420, symBinAddr: 0x2AE20, symSize: 0x230 }
  - { offsetInCU: 0xCC30, offset: 0xB754F, size: 0x8, addend: 0x0, symName: '__ZN4core3ptr34drop_in_place$LT$syn..lit..Lit$GT$17h2e2e13a98dbc9907E', symObjAddr: 0x650, symBinAddr: 0x2B050, symSize: 0x110 }
  - { offsetInCU: 0xD189, offset: 0xB7AA8, size: 0x8, addend: 0x0, symName: '__ZN4core3ptr34drop_in_place$LT$syn..pat..Pat$GT$17hec6f59d6862832acE', symObjAddr: 0x760, symBinAddr: 0x2B160, symSize: 0xA30 }
  - { offsetInCU: 0xFFB4, offset: 0xBA8D3, size: 0x8, addend: 0x0, symName: '__ZN4core3ptr34drop_in_place$LT$syn..ty..Type$GT$17h34d0fb967b9e90dcE', symObjAddr: 0x1190, symBinAddr: 0x2BB90, symSize: 0x5C0 }
  - { offsetInCU: 0x117EA, offset: 0xBC109, size: 0x8, addend: 0x0, symName: '__ZN4core3ptr36drop_in_place$LT$syn..expr..Expr$GT$17h187d7b86dfeaeb43E', symObjAddr: 0x1750, symBinAddr: 0x2C150, symSize: 0x1D10 }
  - { offsetInCU: 0x19501, offset: 0xC3E20, size: 0x8, addend: 0x0, symName: '__ZN4core3ptr36drop_in_place$LT$syn..mac..Macro$GT$17he23e0f3502fe2b80E', symObjAddr: 0x3460, symBinAddr: 0x2DE60, symSize: 0xE0 }
  - { offsetInCU: 0x19872, offset: 0xC4191, size: 0x8, addend: 0x0, symName: '__ZN4core3ptr36drop_in_place$LT$syn..path..Path$GT$17hef30d7983279258eE', symObjAddr: 0x3540, symBinAddr: 0x2DF40, symSize: 0x220 }
  - { offsetInCU: 0x1A1A7, offset: 0xC4AC6, size: 0x8, addend: 0x0, symName: '__ZN4core3ptr37drop_in_place$LT$syn..stmt..Block$GT$17h94636dfbf4d98dacE', symObjAddr: 0x3760, symBinAddr: 0x2E160, symSize: 0xD0 }
  - { offsetInCU: 0x1A4E6, offset: 0xC4E05, size: 0x8, addend: 0x0, symName: '__ZN4core3ptr38drop_in_place$LT$syn..data..Fields$GT$17h4293814b0b343c16E', symObjAddr: 0x3830, symBinAddr: 0x2E230, symSize: 0x190 }
  - { offsetInCU: 0x1A9BE, offset: 0xC52DD, size: 0x8, addend: 0x0, symName: '__ZN4core3ptr38drop_in_place$LT$syn..derive..Data$GT$17h2365431082b9b4b3E', symObjAddr: 0x39C0, symBinAddr: 0x2E3C0, symSize: 0x1D0 }
  - { offsetInCU: 0x1B03C, offset: 0xC595B, size: 0x8, addend: 0x0, symName: '__ZN4core3ptr38drop_in_place$LT$syn..error..Error$GT$17hf620798e4687ca19E', symObjAddr: 0x3B90, symBinAddr: 0x2E590, symSize: 0x80 }
  - { offsetInCU: 0x1B2FA, offset: 0xC5C19, size: 0x8, addend: 0x0, symName: '__ZN4core3ptr38drop_in_place$LT$syn..expr..Member$GT$17h42589c34bb8285abE', symObjAddr: 0x3C10, symBinAddr: 0x2E610, symSize: 0x30 }
  - { offsetInCU: 0x1B3F7, offset: 0xC5D16, size: 0x8, addend: 0x0, symName: '__ZN4core3ptr39drop_in_place$LT$proc_macro2..Ident$GT$17h85dcc65b6772a923E', symObjAddr: 0x3C40, symBinAddr: 0x2E640, symSize: 0x30 }
  - { offsetInCU: 0x1B4D5, offset: 0xC5DF4, size: 0x8, addend: 0x0, symName: '__ZN4core3ptr40drop_in_place$LT$syn..ty..ReturnType$GT$17h3baf2840577fc6efE', symObjAddr: 0x3C70, symBinAddr: 0x2E670, symSize: 0x50 }
  - { offsetInCU: 0x1B647, offset: 0xC5F66, size: 0x8, addend: 0x0, symName: '__ZN4core3ptr41drop_in_place$LT$syn..expr..ExprConst$GT$17hd61e0a3a79e02810E', symObjAddr: 0x3CC0, symBinAddr: 0x2E6C0, symSize: 0x120 }
  - { offsetInCU: 0x1BB08, offset: 0xC6427, size: 0x8, addend: 0x0, symName: '__ZN4core3ptr44drop_in_place$LT$syn..generics..Generics$GT$17h7f9a550c46963f04E', symObjAddr: 0x3DE0, symBinAddr: 0x2E7E0, symSize: 0x40 }
  - { offsetInCU: 0x1BB25, offset: 0xC6444, size: 0x8, addend: 0x0, symName: '__ZN4core3ptr44drop_in_place$LT$syn..lifetime..Lifetime$GT$17h02a95ffc84ffd974E', symObjAddr: 0x3E20, symBinAddr: 0x2E820, symSize: 0x30 }
  - { offsetInCU: 0x1BD58, offset: 0xC6677, size: 0x8, addend: 0x0, symName: '__ZN4core3ptr45drop_in_place$LT$proc_macro2..TokenStream$GT$17h661e8a5a3640a978E.llvm.10097928044691816843', symObjAddr: 0x3E50, symBinAddr: 0x2E850, symSize: 0x140 }
  - { offsetInCU: 0x1C205, offset: 0xC6B24, size: 0x8, addend: 0x0, symName: '__ZN4core3ptr45drop_in_place$LT$syn..derive..DeriveInput$GT$17hc00bf0faaa5cb0c6E', symObjAddr: 0x3F90, symBinAddr: 0x2E990, symSize: 0x150 }
  - { offsetInCU: 0x1C6B9, offset: 0xC6FD8, size: 0x8, addend: 0x0, symName: '__ZN4core3ptr45drop_in_place$LT$syn..generics..TypeParam$GT$17hd9ee95d550b3e236E', symObjAddr: 0x40E0, symBinAddr: 0x2EAE0, symSize: 0x1E0 }
  - { offsetInCU: 0x1CE13, offset: 0xC7732, size: 0x8, addend: 0x0, symName: '__ZN4core3ptr46drop_in_place$LT$syn..generics..ConstParam$GT$17hb4dcba9e9f309263E', symObjAddr: 0x42C0, symBinAddr: 0x2ECC0, symSize: 0x100 }
  - { offsetInCU: 0x1D19B, offset: 0xC7ABA, size: 0x8, addend: 0x0, symName: '__ZN4core3ptr47drop_in_place$LT$syn..path..GenericArgument$GT$17h8ff7afdf2989254bE', symObjAddr: 0x43C0, symBinAddr: 0x2EDC0, symSize: 0x460 }
  - { offsetInCU: 0x1DEA4, offset: 0xC87C3, size: 0x8, addend: 0x0, symName: '__ZN4core3ptr49drop_in_place$LT$syn..generics..LifetimeParam$GT$17ha4f70bb42723c9c1E', symObjAddr: 0x4820, symBinAddr: 0x2F220, symSize: 0xA0 }
  - { offsetInCU: 0x1E1BE, offset: 0xC8ADD, size: 0x8, addend: 0x0, symName: '__ZN4core3ptr49drop_in_place$LT$syn..restriction..Visibility$GT$17h2f503e9da9d7011eE', symObjAddr: 0x48C0, symBinAddr: 0x2F2C0, symSize: 0x60 }
  - { offsetInCU: 0x1E341, offset: 0xC8C60, size: 0x8, addend: 0x0, symName: '__ZN4core3ptr50drop_in_place$LT$syn..generics..TypeParamBound$GT$17hd7e85b849f628957E', symObjAddr: 0x4920, symBinAddr: 0x2F320, symSize: 0xA0 }
  - { offsetInCU: 0x1E4A8, offset: 0xC8DC7, size: 0x8, addend: 0x0, symName: '__ZN4core3ptr58drop_in_place$LT$alloc..vec..Vec$LT$syn..expr..Arm$GT$$GT$17h6bd6c3d1f6387055E', symObjAddr: 0x49C0, symBinAddr: 0x2F3C0, symSize: 0xD0 }
  - { offsetInCU: 0x1E735, offset: 0xC9054, size: 0x8, addend: 0x0, symName: '__ZN4core3ptr59drop_in_place$LT$alloc..boxed..Box$LT$syn..pat..Pat$GT$$GT$17hda655f7a9a4c7219E', symObjAddr: 0x4A90, symBinAddr: 0x2F490, symSize: 0x50 }
  - { offsetInCU: 0x1E890, offset: 0xC91AF, size: 0x8, addend: 0x0, symName: '__ZN4core3ptr59drop_in_place$LT$alloc..boxed..Box$LT$syn..ty..Type$GT$$GT$17h7c46f1a27385755aE', symObjAddr: 0x4AE0, symBinAddr: 0x2F4E0, symSize: 0x50 }
  - { offsetInCU: 0x1E9EB, offset: 0xC930A, size: 0x8, addend: 0x0, symName: '__ZN4core3ptr61drop_in_place$LT$alloc..boxed..Box$LT$syn..expr..Expr$GT$$GT$17h0f9eb18f16709c9dE', symObjAddr: 0x4B30, symBinAddr: 0x2F530, symSize: 0x50 }
  - { offsetInCU: 0x1EB46, offset: 0xC9465, size: 0x8, addend: 0x0, symName: '__ZN4core3ptr61drop_in_place$LT$syn..path..ParenthesizedGenericArguments$GT$17h9caa3aea5837eb56E', symObjAddr: 0x4B80, symBinAddr: 0x2F580, symSize: 0x170 }
  - { offsetInCU: 0x1F120, offset: 0xC9A3F, size: 0x8, addend: 0x0, symName: '__ZN4core3ptr63drop_in_place$LT$alloc..boxed..Box$LT$syn..lit..LitRepr$GT$$GT$17h35a4411a17750418E', symObjAddr: 0x4CF0, symBinAddr: 0x2F6F0, symSize: 0x60 }
  - { offsetInCU: 0x1F415, offset: 0xC9D34, size: 0x8, addend: 0x0, symName: '__ZN4core3ptr64drop_in_place$LT$alloc..boxed..Box$LT$syn..pat..FieldPat$GT$$GT$17h51affbaae84ab277E', symObjAddr: 0x4D50, symBinAddr: 0x2F750, symSize: 0x100 }
  - { offsetInCU: 0x1FA30, offset: 0xCA34F, size: 0x8, addend: 0x0, symName: '__ZN4core3ptr64drop_in_place$LT$alloc..boxed..Box$LT$syn..ty..BareFnArg$GT$$GT$17ha646ec070779f4a0E', symObjAddr: 0x4E50, symBinAddr: 0x2F850, symSize: 0xF0 }
  - { offsetInCU: 0x1FEC2, offset: 0xCA7E1, size: 0x8, addend: 0x0, symName: '__ZN4core3ptr64drop_in_place$LT$alloc..vec..Vec$LT$syn..attr..Attribute$GT$$GT$17hd53860c598dbf16aE', symObjAddr: 0x4F40, symBinAddr: 0x2F940, symSize: 0x60 }
  - { offsetInCU: 0x200B7, offset: 0xCA9D6, size: 0x8, addend: 0x0, symName: '__ZN4core3ptr65drop_in_place$LT$core..option..Option$LT$syn..expr..Label$GT$$GT$17h7470e669be35e9e2E', symObjAddr: 0x4FA0, symBinAddr: 0x2F9A0, symSize: 0x30 }
  - { offsetInCU: 0x201F2, offset: 0xCAB11, size: 0x8, addend: 0x0, symName: '__ZN4core3ptr66drop_in_place$LT$core..option..Option$LT$syn..pat..PatRest$GT$$GT$17hb47fb34b4c60ff4cE', symObjAddr: 0x4FD0, symBinAddr: 0x2F9D0, symSize: 0x70 }
  - { offsetInCU: 0x20448, offset: 0xCAD67, size: 0x8, addend: 0x0, symName: '__ZN4core3ptr67drop_in_place$LT$alloc..boxed..Box$LT$syn..expr..FieldValue$GT$$GT$17h409ff751c9d10852E', symObjAddr: 0x5040, symBinAddr: 0x2FA40, symSize: 0xF0 }
  - { offsetInCU: 0x208D9, offset: 0xCB1F8, size: 0x8, addend: 0x0, symName: '__ZN4core3ptr70drop_in_place$LT$core..option..Option$LT$syn..ty..BareVariadic$GT$$GT$17hd561fe5259fe880fE', symObjAddr: 0x5130, symBinAddr: 0x2FB30, symSize: 0xC0 }
  - { offsetInCU: 0x20D66, offset: 0xCB685, size: 0x8, addend: 0x0, symName: '__ZN4core3ptr72drop_in_place$LT$alloc..boxed..Box$LT$syn..path..GenericArgument$GT$$GT$17h9e1c2fd89a12c330E', symObjAddr: 0x51F0, symBinAddr: 0x2FBF0, symSize: 0x2B0 }
  - { offsetInCU: 0x21751, offset: 0xCC070, size: 0x8, addend: 0x0, symName: '__ZN4core3ptr72drop_in_place$LT$core..option..Option$LT$syn..lifetime..Lifetime$GT$$GT$17h204d66df25055d6bE', symObjAddr: 0x54A0, symBinAddr: 0x2FEA0, symSize: 0x30 }
  - { offsetInCU: 0x2186D, offset: 0xCC18C, size: 0x8, addend: 0x0, symName: '__ZN4core3ptr73drop_in_place$LT$alloc..boxed..Box$LT$syn..generics..GenericParam$GT$$GT$17hd2636ca4399a3a9fE', symObjAddr: 0x54D0, symBinAddr: 0x2FED0, symSize: 0x80 }
  - { offsetInCU: 0x219E5, offset: 0xCC304, size: 0x8, addend: 0x0, symName: '__ZN4core3ptr75drop_in_place$LT$alloc..boxed..Box$LT$syn..generics..TypeParamBound$GT$$GT$17h2eecd7a4ccb01a6dE', symObjAddr: 0x5550, symBinAddr: 0x2FF50, symSize: 0x160 }
  - { offsetInCU: 0x21FCA, offset: 0xCC8E9, size: 0x8, addend: 0x0, symName: '__ZN4core3ptr75drop_in_place$LT$core..option..Option$LT$syn..generics..WhereClause$GT$$GT$17h905cb664fa585210E', symObjAddr: 0x56B0, symBinAddr: 0x300B0, symSize: 0x90 }
  - { offsetInCU: 0x22280, offset: 0xCCB9F, size: 0x8, addend: 0x0, symName: '__ZN4core3ptr86drop_in_place$LT$syn..punctuated..Punctuated$LT$syn..pat..Pat$C$syn..token..Or$GT$$GT$17h0a64ebd164b5dc32E', symObjAddr: 0x5740, symBinAddr: 0x30140, symSize: 0x120 }
  - { offsetInCU: 0x226C6, offset: 0xCCFE5, size: 0x8, addend: 0x0, symName: '__ZN4core3ptr87drop_in_place$LT$core..option..Option$LT$alloc..boxed..Box$LT$syn..pat..Pat$GT$$GT$$GT$17h13222549103f42daE', symObjAddr: 0x5860, symBinAddr: 0x30260, symSize: 0x50 }
  - { offsetInCU: 0x22838, offset: 0xCD157, size: 0x8, addend: 0x0, symName: '__ZN4core3ptr87drop_in_place$LT$core..option..Option$LT$alloc..boxed..Box$LT$syn..ty..Type$GT$$GT$$GT$17h7b50ff63bc2302e5E', symObjAddr: 0x58B0, symBinAddr: 0x302B0, symSize: 0x50 }
  - { offsetInCU: 0x229AA, offset: 0xCD2C9, size: 0x8, addend: 0x0, symName: '__ZN4core3ptr89drop_in_place$LT$core..option..Option$LT$alloc..boxed..Box$LT$syn..expr..Expr$GT$$GT$$GT$17h57d0a0d85babf42eE', symObjAddr: 0x5900, symBinAddr: 0x30300, symSize: 0x50 }
  - { offsetInCU: 0x22B5A, offset: 0xCD479, size: 0x8, addend: 0x0, symName: '__ZN4core3ptr89drop_in_place$LT$syn..punctuated..Punctuated$LT$syn..pat..Pat$C$syn..token..Comma$GT$$GT$17h95741bc582d9544fE', symObjAddr: 0x5950, symBinAddr: 0x30350, symSize: 0x120 }
  - { offsetInCU: 0x23014, offset: 0xCD933, size: 0x8, addend: 0x0, symName: '__ZN4core3ptr90drop_in_place$LT$core..option..Option$LT$alloc..boxed..Box$LT$syn..data..Field$GT$$GT$$GT$17hf6e2a61899401111E', symObjAddr: 0x5A70, symBinAddr: 0x30470, symSize: 0x1A0 }
  - { offsetInCU: 0x237F7, offset: 0xCE116, size: 0x8, addend: 0x0, symName: '__ZN4core3ptr91drop_in_place$LT$syn..punctuated..Punctuated$LT$syn..expr..Expr$C$syn..token..Comma$GT$$GT$17h2ba0440d00fc17b7E', symObjAddr: 0x5C10, symBinAddr: 0x30610, symSize: 0x120 }
  - { offsetInCU: 0x23CD0, offset: 0xCE5EF, size: 0x8, addend: 0x0, symName: '__ZN4core3ptr92drop_in_place$LT$core..option..Option$LT$alloc..boxed..Box$LT$syn..data..Variant$GT$$GT$$GT$17h29d3abffa5362387E', symObjAddr: 0x5D30, symBinAddr: 0x30730, symSize: 0x130 }
  - { offsetInCU: 0x2428A, offset: 0xCEBA9, size: 0x8, addend: 0x0, symName: '__ZN4core3ptr94drop_in_place$LT$syn..punctuated..Punctuated$LT$syn..pat..FieldPat$C$syn..token..Comma$GT$$GT$17he37c9fd1795d6e36E', symObjAddr: 0x5E60, symBinAddr: 0x30860, symSize: 0xF0 }
  - { offsetInCU: 0x24554, offset: 0xCEE73, size: 0x8, addend: 0x0, symName: '__ZN4core3ptr94drop_in_place$LT$syn..punctuated..Punctuated$LT$syn..ty..BareFnArg$C$syn..token..Comma$GT$$GT$17h818f76d349cdca5cE', symObjAddr: 0x5F50, symBinAddr: 0x30950, symSize: 0xF0 }
  - { offsetInCU: 0x2481E, offset: 0xCF13D, size: 0x8, addend: 0x0, symName: '__ZN4core3ptr96drop_in_place$LT$core..option..Option$LT$alloc..boxed..Box$LT$syn..path..PathSegment$GT$$GT$$GT$17hf46b91b97ce17f95E', symObjAddr: 0x6040, symBinAddr: 0x30A40, symSize: 0x180 }
  - { offsetInCU: 0x24EAF, offset: 0xCF7CE, size: 0x8, addend: 0x0, symName: '__ZN4core3ptr97drop_in_place$LT$syn..punctuated..Punctuated$LT$syn..expr..FieldValue$C$syn..token..Comma$GT$$GT$17h60e67521866e947dE', symObjAddr: 0x61C0, symBinAddr: 0x30BC0, symSize: 0xF0 }
  - { offsetInCU: 0x251F5, offset: 0xCFB14, size: 0x8, addend: 0x0, symName: '__ZN4core3ptr98drop_in_place$LT$syn..punctuated..Punctuated$LT$syn..lifetime..Lifetime$C$syn..token..Plus$GT$$GT$17h9d8806b4a517b3d8E', symObjAddr: 0x62B0, symBinAddr: 0x30CB0, symSize: 0xC0 }
  - { offsetInCU: 0x25806, offset: 0xD0125, size: 0x8, addend: 0x0, symName: '__ZN4core3ops8function5impls80_$LT$impl$u20$core..ops..function..FnOnce$LT$A$GT$$u20$for$u20$$RF$mut$u20$F$GT$9call_once17hb8c8b2575290145dE', symObjAddr: 0x10, symBinAddr: 0x2AA20, symSize: 0xB0 }
  - { offsetInCU: 0x272CA, offset: 0xD1BE9, size: 0x8, addend: 0x0, symName: __ZN10proc_macro6bridge6client14HandleCounters3get17h02da01958788119eE, symObjAddr: 0x0, symBinAddr: 0x2AA10, symSize: 0x10 }
  - { offsetInCU: 0x1E, offset: 0xDD12D, size: 0x8, addend: 0x0, symName: '__ZN100_$LT$syn..punctuated..PrivateIter$LT$T$C$P$GT$$u20$as$u20$core..iter..traits..iterator..Iterator$GT$4next17h91034229626d1eccE.llvm.2450441813464410764', symObjAddr: 0x0, symBinAddr: 0x35FF0, symSize: 0x30 }
  - { offsetInCU: 0x35, offset: 0xDD144, size: 0x8, addend: 0x0, symName: _anon.1d65cb1f8eb81105c4bda252bca894cb.10.llvm.2450441813464410764, symObjAddr: 0x8AE0, symBinAddr: 0x2A4920, symSize: 0x0 }
  - { offsetInCU: 0x711, offset: 0xDD820, size: 0x8, addend: 0x0, symName: '__ZN100_$LT$syn..punctuated..PrivateIter$LT$T$C$P$GT$$u20$as$u20$core..iter..traits..iterator..Iterator$GT$4next17h91034229626d1eccE.llvm.2450441813464410764', symObjAddr: 0x0, symBinAddr: 0x35FF0, symSize: 0x30 }
  - { offsetInCU: 0xA23, offset: 0xDDB32, size: 0x8, addend: 0x0, symName: '__ZN102_$LT$syn..punctuated..Punctuated$LT$T$C$P$GT$$u20$as$u20$core..iter..traits..collect..IntoIterator$GT$9into_iter17hee4c927006616782E', symObjAddr: 0x30, symBinAddr: 0x36020, symSize: 0x220 }
  - { offsetInCU: 0x1292, offset: 0xDE3A1, size: 0x8, addend: 0x0, symName: '__ZN105_$LT$syn..punctuated..Punctuated$LT$T$C$P$GT$$u20$as$u20$core..iter..traits..collect..Extend$LT$T$GT$$GT$6extend17hdbe1ceed36949ad8E', symObjAddr: 0x250, symBinAddr: 0x36240, symSize: 0x140 }
  - { offsetInCU: 0x14FA, offset: 0xDE609, size: 0x8, addend: 0x0, symName: '__ZN111_$LT$syn..punctuated..PrivateIter$LT$T$C$P$GT$$u20$as$u20$core..iter..traits..exact_size..ExactSizeIterator$GT$3len17hb3d221fd50b41fa0E.llvm.2450441813464410764', symObjAddr: 0x390, symBinAddr: 0x36380, symSize: 0x30 }
  - { offsetInCU: 0x165A, offset: 0xDE769, size: 0x8, addend: 0x0, symName: '__ZN115_$LT$syn..punctuated..PrivateIter$LT$T$C$P$GT$$u20$as$u20$core..iter..traits..double_ended..DoubleEndedIterator$GT$9next_back17h94ddb2a8331832e0E.llvm.2450441813464410764', symObjAddr: 0x3C0, symBinAddr: 0x363B0, symSize: 0x30 }
  - { offsetInCU: 0x1ADF, offset: 0xDEBEE, size: 0x8, addend: 0x0, symName: '__ZN57_$LT$I$u20$as$u20$syn..punctuated..IterTrait$LT$T$GT$$GT$9clone_box17h759357cc7ad850a1E.llvm.2450441813464410764', symObjAddr: 0x77C0, symBinAddr: 0x3D580, symSize: 0x60 }
  - { offsetInCU: 0x6125, offset: 0xE3234, size: 0x8, addend: 0x0, symName: '__ZN40_$LT$F$u20$as$u20$syn..parse..Parser$GT$14__parse_scoped17h6df6eb60d451a369E', symObjAddr: 0xA20, symBinAddr: 0x36830, symSize: 0x6D0 }
  - { offsetInCU: 0xB24E, offset: 0xE835D, size: 0x8, addend: 0x0, symName: '__ZN4core3ptr100drop_in_place$LT$core..option..Option$LT$alloc..boxed..Box$LT$syn..path..GenericArgument$GT$$GT$$GT$17h81d5ae68dac3e542E', symObjAddr: 0x10F0, symBinAddr: 0x36F00, symSize: 0x50 }
  - { offsetInCU: 0xB5EE, offset: 0xE86FD, size: 0x8, addend: 0x0, symName: '__ZN4core3ptr100drop_in_place$LT$syn..punctuated..Punctuated$LT$syn..path..PathSegment$C$syn..token..PathSep$GT$$GT$17hb49899a1fc5b1f76E', symObjAddr: 0x1140, symBinAddr: 0x36F50, symSize: 0x260 }
  - { offsetInCU: 0xBF87, offset: 0xE9096, size: 0x8, addend: 0x0, symName: '__ZN4core3ptr101drop_in_place$LT$alloc..vec..Vec$LT$$LP$syn..generics..WherePredicate$C$syn..token..Comma$RP$$GT$$GT$17hd35ca44fbb2f5055E.llvm.2450441813464410764', symObjAddr: 0x13A0, symBinAddr: 0x371B0, symSize: 0x60 }
  - { offsetInCU: 0xC19B, offset: 0xE92AA, size: 0x8, addend: 0x0, symName: '__ZN4core3ptr103drop_in_place$LT$core..option..Option$LT$alloc..boxed..Box$LT$syn..generics..TypeParamBound$GT$$GT$$GT$17hf90da6392a4e3d41E', symObjAddr: 0x1400, symBinAddr: 0x37210, symSize: 0x50 }
  - { offsetInCU: 0xC32C, offset: 0xE943B, size: 0x8, addend: 0x0, symName: '__ZN4core3ptr103drop_in_place$LT$core..option..Option$LT$alloc..boxed..Box$LT$syn..generics..WherePredicate$GT$$GT$$GT$17h5bb545989b436c82E.llvm.2450441813464410764', symObjAddr: 0x1450, symBinAddr: 0x37260, symSize: 0x50 }
  - { offsetInCU: 0xC52C, offset: 0xE963B, size: 0x8, addend: 0x0, symName: '__ZN4core3ptr103drop_in_place$LT$syn..punctuated..Punctuated$LT$syn..generics..GenericParam$C$syn..token..Comma$GT$$GT$17h911e43a7dc8fdff1E.llvm.2450441813464410764', symObjAddr: 0x14A0, symBinAddr: 0x372B0, symSize: 0xF0 }
  - { offsetInCU: 0xCA0E, offset: 0xE9B1D, size: 0x8, addend: 0x0, symName: '__ZN4core3ptr104drop_in_place$LT$syn..punctuated..Punctuated$LT$syn..generics..TypeParamBound$C$syn..token..Plus$GT$$GT$17h7ddaaad70512ee37E.llvm.2450441813464410764', symObjAddr: 0x1590, symBinAddr: 0x373A0, symSize: 0x230 }
  - { offsetInCU: 0xD270, offset: 0xEA37F, size: 0x8, addend: 0x0, symName: '__ZN4core3ptr105drop_in_place$LT$syn..punctuated..Punctuated$LT$syn..generics..WherePredicate$C$syn..token..Comma$GT$$GT$17had4489413503439aE', symObjAddr: 0x17C0, symBinAddr: 0x375D0, symSize: 0xB0 }
  - { offsetInCU: 0xD69F, offset: 0xEA7AE, size: 0x8, addend: 0x0, symName: '__ZN4core3ptr34drop_in_place$LT$syn..lit..Lit$GT$17h2e2e13a98dbc9907E', symObjAddr: 0x1870, symBinAddr: 0x37680, symSize: 0x110 }
  - { offsetInCU: 0xDBD9, offset: 0xEACE8, size: 0x8, addend: 0x0, symName: '__ZN4core3ptr34drop_in_place$LT$syn..pat..Pat$GT$17hec6f59d6862832acE', symObjAddr: 0x1980, symBinAddr: 0x37790, symSize: 0xB50 }
  - { offsetInCU: 0x10EDA, offset: 0xEDFE9, size: 0x8, addend: 0x0, symName: '__ZN4core3ptr34drop_in_place$LT$syn..ty..Type$GT$17h34d0fb967b9e90dcE.llvm.2450441813464410764', symObjAddr: 0x24D0, symBinAddr: 0x382E0, symSize: 0x4F0 }
  - { offsetInCU: 0x12425, offset: 0xEF534, size: 0x8, addend: 0x0, symName: '__ZN4core3ptr36drop_in_place$LT$syn..expr..Expr$GT$17h187d7b86dfeaeb43E', symObjAddr: 0x29C0, symBinAddr: 0x387D0, symSize: 0x1DC0 }
  - { offsetInCU: 0x1A3F1, offset: 0xF7500, size: 0x8, addend: 0x0, symName: '__ZN4core3ptr36drop_in_place$LT$syn..mac..Macro$GT$17he23e0f3502fe2b80E', symObjAddr: 0x4780, symBinAddr: 0x3A590, symSize: 0x40 }
  - { offsetInCU: 0x1A42B, offset: 0xF753A, size: 0x8, addend: 0x0, symName: '__ZN4core3ptr36drop_in_place$LT$syn..path..Path$GT$17hef30d7983279258eE', symObjAddr: 0x47C0, symBinAddr: 0x3A5D0, symSize: 0x220 }
  - { offsetInCU: 0x1AD60, offset: 0xF7E6F, size: 0x8, addend: 0x0, symName: '__ZN4core3ptr37drop_in_place$LT$syn..stmt..Block$GT$17h94636dfbf4d98dacE', symObjAddr: 0x49E0, symBinAddr: 0x3A7F0, symSize: 0xD0 }
  - { offsetInCU: 0x1B004, offset: 0xF8113, size: 0x8, addend: 0x0, symName: '__ZN4core3ptr38drop_in_place$LT$syn..expr..Member$GT$17h42589c34bb8285abE', symObjAddr: 0x4AB0, symBinAddr: 0x3A8C0, symSize: 0x30 }
  - { offsetInCU: 0x1B101, offset: 0xF8210, size: 0x8, addend: 0x0, symName: '__ZN4core3ptr39drop_in_place$LT$proc_macro2..Ident$GT$17h85dcc65b6772a923E', symObjAddr: 0x4AE0, symBinAddr: 0x3A8F0, symSize: 0x30 }
  - { offsetInCU: 0x1B315, offset: 0xF8424, size: 0x8, addend: 0x0, symName: '__ZN4core3ptr39drop_in_place$LT$syn..buffer..Entry$GT$17h7c2055c03ba775f0E', symObjAddr: 0x4B10, symBinAddr: 0x3A920, symSize: 0xC0 }
  - { offsetInCU: 0x1B629, offset: 0xF8738, size: 0x8, addend: 0x0, symName: '__ZN4core3ptr40drop_in_place$LT$syn..ty..ReturnType$GT$17h3baf2840577fc6efE', symObjAddr: 0x4BD0, symBinAddr: 0x3A9E0, symSize: 0x50 }
  - { offsetInCU: 0x1B79B, offset: 0xF88AA, size: 0x8, addend: 0x0, symName: '__ZN4core3ptr41drop_in_place$LT$syn..expr..ExprConst$GT$17hd61e0a3a79e02810E', symObjAddr: 0x4C20, symBinAddr: 0x3AA30, symSize: 0x120 }
  - { offsetInCU: 0x1BC5C, offset: 0xF8D6B, size: 0x8, addend: 0x0, symName: '__ZN4core3ptr44drop_in_place$LT$syn..lifetime..Lifetime$GT$17h02a95ffc84ffd974E', symObjAddr: 0x4D40, symBinAddr: 0x3AB50, symSize: 0x30 }
  - { offsetInCU: 0x1BD59, offset: 0xF8E68, size: 0x8, addend: 0x0, symName: '__ZN4core3ptr44drop_in_place$LT$syn..parse..ParseBuffer$GT$17h475e5b802a1664f7E', symObjAddr: 0x4D70, symBinAddr: 0x3AB80, symSize: 0x70 }
  - { offsetInCU: 0x1C0F3, offset: 0xF9202, size: 0x8, addend: 0x0, symName: '__ZN4core3ptr45drop_in_place$LT$proc_macro2..TokenStream$GT$17h661e8a5a3640a978E.llvm.2450441813464410764', symObjAddr: 0x4DE0, symBinAddr: 0x3ABF0, symSize: 0x140 }
  - { offsetInCU: 0x1C524, offset: 0xF9633, size: 0x8, addend: 0x0, symName: '__ZN4core3ptr45drop_in_place$LT$syn..buffer..TokenBuffer$GT$17h156ac451abc50370E', symObjAddr: 0x4F20, symBinAddr: 0x3AD30, symSize: 0xD0 }
  - { offsetInCU: 0x1C78A, offset: 0xF9899, size: 0x8, addend: 0x0, symName: '__ZN4core3ptr45drop_in_place$LT$syn..generics..TypeParam$GT$17hd9ee95d550b3e236E.llvm.2450441813464410764', symObjAddr: 0x4FF0, symBinAddr: 0x3AE00, symSize: 0x1E0 }
  - { offsetInCU: 0x1CEE4, offset: 0xF9FF3, size: 0x8, addend: 0x0, symName: '__ZN4core3ptr46drop_in_place$LT$syn..generics..ConstParam$GT$17hb4dcba9e9f309263E.llvm.2450441813464410764', symObjAddr: 0x51D0, symBinAddr: 0x3AFE0, symSize: 0x100 }
  - { offsetInCU: 0x1D26C, offset: 0xFA37B, size: 0x8, addend: 0x0, symName: '__ZN4core3ptr47drop_in_place$LT$syn..path..GenericArgument$GT$17h8ff7afdf2989254bE', symObjAddr: 0x52D0, symBinAddr: 0x3B0E0, symSize: 0x4A0 }
  - { offsetInCU: 0x1E313, offset: 0xFB422, size: 0x8, addend: 0x0, symName: '__ZN4core3ptr49drop_in_place$LT$syn..generics..LifetimeParam$GT$17ha4f70bb42723c9c1E.llvm.2450441813464410764', symObjAddr: 0x5770, symBinAddr: 0x3B580, symSize: 0xA0 }
  - { offsetInCU: 0x1E62D, offset: 0xFB73C, size: 0x8, addend: 0x0, symName: '__ZN4core3ptr50drop_in_place$LT$syn..generics..TypeParamBound$GT$17hd7e85b849f628957E', symObjAddr: 0x5810, symBinAddr: 0x3B620, symSize: 0xA0 }
  - { offsetInCU: 0x1E7D2, offset: 0xFB8E1, size: 0x8, addend: 0x0, symName: '__ZN4core3ptr50drop_in_place$LT$syn..generics..WherePredicate$GT$17hfe08fbdb36951fecE.llvm.2450441813464410764', symObjAddr: 0x58B0, symBinAddr: 0x3B6C0, symSize: 0xA0 }
  - { offsetInCU: 0x1E973, offset: 0xFBA82, size: 0x8, addend: 0x0, symName: '__ZN4core3ptr58drop_in_place$LT$alloc..vec..Vec$LT$syn..expr..Arm$GT$$GT$17h6bd6c3d1f6387055E', symObjAddr: 0x5950, symBinAddr: 0x3B760, symSize: 0xD0 }
  - { offsetInCU: 0x1EC00, offset: 0xFBD0F, size: 0x8, addend: 0x0, symName: '__ZN4core3ptr59drop_in_place$LT$alloc..boxed..Box$LT$syn..pat..Pat$GT$$GT$17hda655f7a9a4c7219E', symObjAddr: 0x5A20, symBinAddr: 0x3B830, symSize: 0x50 }
  - { offsetInCU: 0x1ED5B, offset: 0xFBE6A, size: 0x8, addend: 0x0, symName: '__ZN4core3ptr59drop_in_place$LT$alloc..boxed..Box$LT$syn..ty..Type$GT$$GT$17h7c46f1a27385755aE', symObjAddr: 0x5A70, symBinAddr: 0x3B880, symSize: 0x50 }
  - { offsetInCU: 0x1EEB6, offset: 0xFBFC5, size: 0x8, addend: 0x0, symName: '__ZN4core3ptr61drop_in_place$LT$alloc..boxed..Box$LT$syn..expr..Expr$GT$$GT$17h0f9eb18f16709c9dE', symObjAddr: 0x5AC0, symBinAddr: 0x3B8D0, symSize: 0x50 }
  - { offsetInCU: 0x1F08D, offset: 0xFC19C, size: 0x8, addend: 0x0, symName: '__ZN4core3ptr61drop_in_place$LT$syn..path..ParenthesizedGenericArguments$GT$17h9caa3aea5837eb56E', symObjAddr: 0x5B10, symBinAddr: 0x3B920, symSize: 0x170 }
  - { offsetInCU: 0x1F654, offset: 0xFC763, size: 0x8, addend: 0x0, symName: '__ZN4core3ptr62drop_in_place$LT$syn..path..AngleBracketedGenericArguments$GT$17h387af74cd2856031E', symObjAddr: 0x5C80, symBinAddr: 0x3BA90, symSize: 0x120 }
  - { offsetInCU: 0x1FA6A, offset: 0xFCB79, size: 0x8, addend: 0x0, symName: '__ZN4core3ptr63drop_in_place$LT$alloc..boxed..Box$LT$syn..lit..LitRepr$GT$$GT$17h35a4411a17750418E', symObjAddr: 0x5DA0, symBinAddr: 0x3BBB0, symSize: 0x60 }
  - { offsetInCU: 0x1FD5F, offset: 0xFCE6E, size: 0x8, addend: 0x0, symName: '__ZN4core3ptr64drop_in_place$LT$alloc..boxed..Box$LT$syn..pat..FieldPat$GT$$GT$17h51affbaae84ab277E', symObjAddr: 0x5E00, symBinAddr: 0x3BC10, symSize: 0x100 }
  - { offsetInCU: 0x2037A, offset: 0xFD489, size: 0x8, addend: 0x0, symName: '__ZN4core3ptr64drop_in_place$LT$alloc..boxed..Box$LT$syn..ty..BareFnArg$GT$$GT$17ha646ec070779f4a0E', symObjAddr: 0x5F00, symBinAddr: 0x3BD10, symSize: 0xF0 }
  - { offsetInCU: 0x2080C, offset: 0xFD91B, size: 0x8, addend: 0x0, symName: '__ZN4core3ptr65drop_in_place$LT$core..option..Option$LT$syn..expr..Label$GT$$GT$17h7470e669be35e9e2E', symObjAddr: 0x5FF0, symBinAddr: 0x3BE00, symSize: 0x30 }
  - { offsetInCU: 0x20947, offset: 0xFDA56, size: 0x8, addend: 0x0, symName: '__ZN4core3ptr66drop_in_place$LT$core..option..Option$LT$syn..pat..PatRest$GT$$GT$17hb47fb34b4c60ff4cE', symObjAddr: 0x6020, symBinAddr: 0x3BE30, symSize: 0x70 }
  - { offsetInCU: 0x20B9D, offset: 0xFDCAC, size: 0x8, addend: 0x0, symName: '__ZN4core3ptr67drop_in_place$LT$alloc..boxed..Box$LT$syn..expr..FieldValue$GT$$GT$17h409ff751c9d10852E', symObjAddr: 0x6090, symBinAddr: 0x3BEA0, symSize: 0xF0 }
  - { offsetInCU: 0x2100F, offset: 0xFE11E, size: 0x8, addend: 0x0, symName: '__ZN4core3ptr68drop_in_place$LT$alloc..boxed..Box$LT$syn..path..PathSegment$GT$$GT$17ha80f4fa99bbc42a5E', symObjAddr: 0x6180, symBinAddr: 0x3BF90, symSize: 0x190 }
  - { offsetInCU: 0x216ED, offset: 0xFE7FC, size: 0x8, addend: 0x0, symName: '__ZN4core3ptr70drop_in_place$LT$core..option..Option$LT$syn..ty..BareVariadic$GT$$GT$17hd561fe5259fe880fE', symObjAddr: 0x6310, symBinAddr: 0x3C120, symSize: 0xC0 }
  - { offsetInCU: 0x21B7A, offset: 0xFEC89, size: 0x8, addend: 0x0, symName: '__ZN4core3ptr72drop_in_place$LT$alloc..boxed..Box$LT$syn..path..GenericArgument$GT$$GT$17h9e1c2fd89a12c330E', symObjAddr: 0x63D0, symBinAddr: 0x3C1E0, symSize: 0x2B0 }
  - { offsetInCU: 0x22505, offset: 0xFF614, size: 0x8, addend: 0x0, symName: '__ZN4core3ptr72drop_in_place$LT$core..option..Option$LT$syn..lifetime..Lifetime$GT$$GT$17h204d66df25055d6bE', symObjAddr: 0x6680, symBinAddr: 0x3C490, symSize: 0x30 }
  - { offsetInCU: 0x22621, offset: 0xFF730, size: 0x8, addend: 0x0, symName: '__ZN4core3ptr73drop_in_place$LT$alloc..boxed..Box$LT$syn..generics..GenericParam$GT$$GT$17hd2636ca4399a3a9fE.llvm.2450441813464410764', symObjAddr: 0x66B0, symBinAddr: 0x3C4C0, symSize: 0x80 }
  - { offsetInCU: 0x227B8, offset: 0xFF8C7, size: 0x8, addend: 0x0, symName: '__ZN4core3ptr73drop_in_place$LT$alloc..vec..Vec$LT$syn..generics..WherePredicate$GT$$GT$17h52f48c92fa8e72aeE.llvm.2450441813464410764', symObjAddr: 0x6730, symBinAddr: 0x3C540, symSize: 0xD0 }
  - { offsetInCU: 0x22A58, offset: 0xFFB67, size: 0x8, addend: 0x0, symName: '__ZN4core3ptr75drop_in_place$LT$alloc..boxed..Box$LT$syn..generics..TypeParamBound$GT$$GT$17h2eecd7a4ccb01a6dE', symObjAddr: 0x6800, symBinAddr: 0x3C610, symSize: 0x160 }
  - { offsetInCU: 0x2301E, offset: 0x10012D, size: 0x8, addend: 0x0, symName: '__ZN4core3ptr86drop_in_place$LT$syn..punctuated..Punctuated$LT$syn..pat..Pat$C$syn..token..Or$GT$$GT$17h0a64ebd164b5dc32E', symObjAddr: 0x6960, symBinAddr: 0x3C770, symSize: 0x120 }
  - { offsetInCU: 0x23464, offset: 0x100573, size: 0x8, addend: 0x0, symName: '__ZN4core3ptr87drop_in_place$LT$core..option..Option$LT$alloc..boxed..Box$LT$syn..pat..Pat$GT$$GT$$GT$17h13222549103f42daE', symObjAddr: 0x6A80, symBinAddr: 0x3C890, symSize: 0x50 }
  - { offsetInCU: 0x235D6, offset: 0x1006E5, size: 0x8, addend: 0x0, symName: '__ZN4core3ptr87drop_in_place$LT$core..option..Option$LT$alloc..boxed..Box$LT$syn..ty..Type$GT$$GT$$GT$17h7b50ff63bc2302e5E', symObjAddr: 0x6AD0, symBinAddr: 0x3C8E0, symSize: 0x50 }
  - { offsetInCU: 0x23748, offset: 0x100857, size: 0x8, addend: 0x0, symName: '__ZN4core3ptr89drop_in_place$LT$core..option..Option$LT$alloc..boxed..Box$LT$syn..expr..Expr$GT$$GT$$GT$17h57d0a0d85babf42eE', symObjAddr: 0x6B20, symBinAddr: 0x3C930, symSize: 0x50 }
  - { offsetInCU: 0x238F8, offset: 0x100A07, size: 0x8, addend: 0x0, symName: '__ZN4core3ptr89drop_in_place$LT$syn..punctuated..Punctuated$LT$syn..pat..Pat$C$syn..token..Comma$GT$$GT$17h95741bc582d9544fE', symObjAddr: 0x6B70, symBinAddr: 0x3C980, symSize: 0x120 }
  - { offsetInCU: 0x23D55, offset: 0x100E64, size: 0x8, addend: 0x0, symName: '__ZN4core3ptr89drop_in_place$LT$syn..punctuated..Punctuated$LT$syn..ty..Type$C$syn..token..Comma$GT$$GT$17hf8332e5351ee8f4aE', symObjAddr: 0x6C90, symBinAddr: 0x3CAA0, symSize: 0x120 }
  - { offsetInCU: 0x2419F, offset: 0x1012AE, size: 0x8, addend: 0x0, symName: '__ZN4core3ptr90drop_in_place$LT$core..option..Option$LT$syn..path..AngleBracketedGenericArguments$GT$$GT$17hd30e8b575758ee5fE', symObjAddr: 0x6DB0, symBinAddr: 0x3CBC0, symSize: 0x130 }
  - { offsetInCU: 0x2460A, offset: 0x101719, size: 0x8, addend: 0x0, symName: '__ZN4core3ptr91drop_in_place$LT$syn..punctuated..Punctuated$LT$syn..expr..Expr$C$syn..token..Comma$GT$$GT$17h2ba0440d00fc17b7E', symObjAddr: 0x6EE0, symBinAddr: 0x3CCF0, symSize: 0x120 }
  - { offsetInCU: 0x24A67, offset: 0x101B76, size: 0x8, addend: 0x0, symName: '__ZN4core3ptr94drop_in_place$LT$syn..punctuated..Punctuated$LT$syn..pat..FieldPat$C$syn..token..Comma$GT$$GT$17he37c9fd1795d6e36E', symObjAddr: 0x7000, symBinAddr: 0x3CE10, symSize: 0xF0 }
  - { offsetInCU: 0x24D31, offset: 0x101E40, size: 0x8, addend: 0x0, symName: '__ZN4core3ptr94drop_in_place$LT$syn..punctuated..Punctuated$LT$syn..ty..BareFnArg$C$syn..token..Comma$GT$$GT$17h818f76d349cdca5cE', symObjAddr: 0x70F0, symBinAddr: 0x3CF00, symSize: 0xF0 }
  - { offsetInCU: 0x24FFB, offset: 0x10210A, size: 0x8, addend: 0x0, symName: '__ZN4core3ptr95drop_in_place$LT$syn..punctuated..PrivateIter$LT$syn..data..Variant$C$syn..token..Comma$GT$$GT$17h623ed6bc816d8241E.llvm.2450441813464410764', symObjAddr: 0x71E0, symBinAddr: 0x3CFF0, symSize: 0x10 }
  - { offsetInCU: 0x25027, offset: 0x102136, size: 0x8, addend: 0x0, symName: '__ZN4core3ptr96drop_in_place$LT$core..option..Option$LT$alloc..boxed..Box$LT$syn..path..PathSegment$GT$$GT$$GT$17hf46b91b97ce17f95E', symObjAddr: 0x71F0, symBinAddr: 0x3D000, symSize: 0x90 }
  - { offsetInCU: 0x252C8, offset: 0x1023D7, size: 0x8, addend: 0x0, symName: '__ZN4core3ptr97drop_in_place$LT$syn..punctuated..Punctuated$LT$syn..expr..FieldValue$C$syn..token..Comma$GT$$GT$17h60e67521866e947dE', symObjAddr: 0x72D0, symBinAddr: 0x3D090, symSize: 0xF0 }
  - { offsetInCU: 0x25592, offset: 0x1026A1, size: 0x8, addend: 0x0, symName: '__ZN4core3ptr98drop_in_place$LT$alloc..vec..Vec$LT$$LP$syn..path..GenericArgument$C$syn..token..Comma$RP$$GT$$GT$17haeb2991136d128a4E', symObjAddr: 0x73C0, symBinAddr: 0x3D180, symSize: 0xD0 }
  - { offsetInCU: 0x2587C, offset: 0x10298B, size: 0x8, addend: 0x0, symName: '__ZN4core3ptr98drop_in_place$LT$syn..punctuated..Punctuated$LT$syn..lifetime..Lifetime$C$syn..token..Plus$GT$$GT$17h9d8806b4a517b3d8E.llvm.2450441813464410764', symObjAddr: 0x7490, symBinAddr: 0x3D250, symSize: 0xC0 }
  - { offsetInCU: 0x28E62, offset: 0x105F71, size: 0x8, addend: 0x0, symName: __ZN4core4iter6traits8iterator8Iterator10advance_by17hfdc205ae2d2eda50E.llvm.2450441813464410764, symObjAddr: 0x76B0, symBinAddr: 0x3D470, symSize: 0x70 }
  - { offsetInCU: 0x291CF, offset: 0x1062DE, size: 0x8, addend: 0x0, symName: __ZN4core4iter6traits8iterator8Iterator3nth17h47c73206b4e50832E.llvm.2450441813464410764, symObjAddr: 0x7720, symBinAddr: 0x3D4E0, symSize: 0x80 }
  - { offsetInCU: 0x2979F, offset: 0x1068AE, size: 0x8, addend: 0x0, symName: __ZN4core4iter6traits8iterator8Iterator9size_hint17h9c605d05fd7ac479E.llvm.2450441813464410764, symObjAddr: 0x77A0, symBinAddr: 0x3D560, symSize: 0x20 }
  - { offsetInCU: 0x29844, offset: 0x106953, size: 0x8, addend: 0x0, symName: __ZN4core4iter6traits10exact_size17ExactSizeIterator8is_empty17h13cf1d1b9dbced80E.llvm.2450441813464410764, symObjAddr: 0x7550, symBinAddr: 0x3D310, symSize: 0x30 }
  - { offsetInCU: 0x29993, offset: 0x106AA2, size: 0x8, addend: 0x0, symName: __ZN4core4iter6traits12double_ended19DoubleEndedIterator15advance_back_by17hc6358ea491f24c64E.llvm.2450441813464410764, symObjAddr: 0x7580, symBinAddr: 0x3D340, symSize: 0x80 }
  - { offsetInCU: 0x29BE4, offset: 0x106CF3, size: 0x8, addend: 0x0, symName: __ZN4core4iter6traits12double_ended19DoubleEndedIterator8nth_back17h00830fb8bda599faE.llvm.2450441813464410764, symObjAddr: 0x7600, symBinAddr: 0x3D3C0, symSize: 0xB0 }
  - { offsetInCU: 0x2B1CD, offset: 0x1082DC, size: 0x8, addend: 0x0, symName: '__ZN3syn10punctuated23Punctuated$LT$T$C$P$GT$10push_punct17h2783bede10e92274E.llvm.2450441813464410764', symObjAddr: 0x3F0, symBinAddr: 0x363E0, symSize: 0x120 }
  - { offsetInCU: 0x2B5F4, offset: 0x108703, size: 0x8, addend: 0x0, symName: '__ZN3syn10punctuated23Punctuated$LT$T$C$P$GT$10push_value17ha56648924909d62eE.llvm.2450441813464410764', symObjAddr: 0x510, symBinAddr: 0x36500, symSize: 0x110 }
  - { offsetInCU: 0x2BBE8, offset: 0x108CF7, size: 0x8, addend: 0x0, symName: '__ZN3syn10punctuated23Punctuated$LT$T$C$P$GT$4push17ha8caaaad2cb2a574E', symObjAddr: 0x750, symBinAddr: 0x36610, symSize: 0x220 }
  - { offsetInCU: 0x1E, offset: 0x10D6A7, size: 0x8, addend: 0x0, symName: __ZN5alloc7raw_vec11finish_grow17hacf810357032e5abE.llvm.13898114680138741508, symObjAddr: 0x0, symBinAddr: 0x3D5E0, symSize: 0xA0 }
  - { offsetInCU: 0x40A9, offset: 0x111732, size: 0x8, addend: 0x0, symName: __ZN5alloc7raw_vec11finish_grow17hacf810357032e5abE.llvm.13898114680138741508, symObjAddr: 0x0, symBinAddr: 0x3D5E0, symSize: 0xA0 }
  - { offsetInCU: 0x53E2, offset: 0x112A6B, size: 0x8, addend: 0x0, symName: '__ZN5alloc7raw_vec19RawVec$LT$T$C$A$GT$7reserve21do_reserve_and_handle17h10249bd15eb475f2E', symObjAddr: 0x790, symBinAddr: 0x22EA70, symSize: 0x0 }
  - { offsetInCU: 0x5737, offset: 0x112DC0, size: 0x8, addend: 0x0, symName: '__ZN5alloc7raw_vec19RawVec$LT$T$C$A$GT$7reserve21do_reserve_and_handle17h173767925222fb43E', symObjAddr: 0x850, symBinAddr: 0x22EB30, symSize: 0x0 }
  - { offsetInCU: 0x5A8C, offset: 0x113115, size: 0x8, addend: 0x0, symName: '__ZN5alloc7raw_vec19RawVec$LT$T$C$A$GT$7reserve21do_reserve_and_handle17h9295effe68a68719E', symObjAddr: 0x910, symBinAddr: 0x22EBF0, symSize: 0xB0 }
  - { offsetInCU: 0x5DC7, offset: 0x113450, size: 0x8, addend: 0x0, symName: '__ZN5alloc7raw_vec19RawVec$LT$T$C$A$GT$7reserve21do_reserve_and_handle17h92f12b2a1ff9a901E', symObjAddr: 0x9C0, symBinAddr: 0x22ECA0, symSize: 0xD0 }
  - { offsetInCU: 0x611C, offset: 0x1137A5, size: 0x8, addend: 0x0, symName: '__ZN5alloc7raw_vec19RawVec$LT$T$C$A$GT$7reserve21do_reserve_and_handle17hee3b2354eea40c38E', symObjAddr: 0xA90, symBinAddr: 0x22ED70, symSize: 0xD0 }
  - { offsetInCU: 0x64DB, offset: 0x113B64, size: 0x8, addend: 0x0, symName: '__ZN77_$LT$alloc..raw_vec..RawVec$LT$T$C$A$GT$$u20$as$u20$core..ops..drop..Drop$GT$4drop17h081f088104c3252bE', symObjAddr: 0xB60, symBinAddr: 0x3DA60, symSize: 0x0 }
  - { offsetInCU: 0x65D8, offset: 0x113C61, size: 0x8, addend: 0x0, symName: '__ZN77_$LT$alloc..raw_vec..RawVec$LT$T$C$A$GT$$u20$as$u20$core..ops..drop..Drop$GT$4drop17h1ea9925f7bdfafa8E', symObjAddr: 0xC80, symBinAddr: 0x3DA90, symSize: 0x0 }
  - { offsetInCU: 0x66D5, offset: 0x113D5E, size: 0x8, addend: 0x0, symName: '__ZN77_$LT$alloc..raw_vec..RawVec$LT$T$C$A$GT$$u20$as$u20$core..ops..drop..Drop$GT$4drop17ha1728d608ce3f73bE', symObjAddr: 0xE20, symBinAddr: 0x3DAC0, symSize: 0x0 }
  - { offsetInCU: 0x67D2, offset: 0x113E5B, size: 0x8, addend: 0x0, symName: '__ZN77_$LT$alloc..raw_vec..RawVec$LT$T$C$A$GT$$u20$as$u20$core..ops..drop..Drop$GT$4drop17hd252970f8dcf7be4E', symObjAddr: 0xEB0, symBinAddr: 0x3DAF0, symSize: 0x0 }
  - { offsetInCU: 0xC965, offset: 0x119FEE, size: 0x8, addend: 0x0, symName: '__ZN5alloc7raw_vec19RawVec$LT$T$C$A$GT$16reserve_for_push17h661d2d23ccdcbdcbE', symObjAddr: 0x3B0, symBinAddr: 0x3D680, symSize: 0xD0 }
  - { offsetInCU: 0xCE2D, offset: 0x11A4B6, size: 0x8, addend: 0x0, symName: '__ZN5alloc7raw_vec19RawVec$LT$T$C$A$GT$16reserve_for_push17hc3749b53e40692aaE', symObjAddr: 0x480, symBinAddr: 0x3D750, symSize: 0xC0 }
  - { offsetInCU: 0xD2F4, offset: 0x11A97D, size: 0x8, addend: 0x0, symName: '__ZN5alloc7raw_vec19RawVec$LT$T$C$A$GT$16reserve_for_push17hcada611cd4f9dbf9E', symObjAddr: 0x540, symBinAddr: 0x3D810, symSize: 0xD0 }
  - { offsetInCU: 0xD7BB, offset: 0x11AE44, size: 0x8, addend: 0x0, symName: '__ZN5alloc7raw_vec19RawVec$LT$T$C$A$GT$16reserve_for_push17hefa9766cf568ac6fE', symObjAddr: 0x610, symBinAddr: 0x3D8E0, symSize: 0xB0 }
  - { offsetInCU: 0xDC93, offset: 0x11B31C, size: 0x8, addend: 0x0, symName: '__ZN5alloc7raw_vec19RawVec$LT$T$C$A$GT$16reserve_for_push17hf10858c8b2bafe5aE', symObjAddr: 0x6C0, symBinAddr: 0x3D990, symSize: 0xD0 }
  - { offsetInCU: 0x10A, offset: 0x11C039, size: 0x8, addend: 0x0, symName: '__ZN58_$LT$alloc..string..String$u20$as$u20$core..fmt..Write$GT$10write_char17hd329c0cb943f081aE', symObjAddr: 0x7D20, symBinAddr: 0x45740, symSize: 0x130 }
  - { offsetInCU: 0x4B1, offset: 0x11C3E0, size: 0x8, addend: 0x0, symName: '__ZN58_$LT$alloc..string..String$u20$as$u20$core..fmt..Write$GT$9write_str17h1ff5aa96ca91c6d5E', symObjAddr: 0x7E50, symBinAddr: 0x45870, symSize: 0x5B }
  - { offsetInCU: 0x3488, offset: 0x11F3B7, size: 0x8, addend: 0x0, symName: '__ZN4core3ptr100drop_in_place$LT$core..option..Option$LT$alloc..boxed..Box$LT$syn..path..GenericArgument$GT$$GT$$GT$17h81d5ae68dac3e542E', symObjAddr: 0x1D30, symBinAddr: 0x3F750, symSize: 0x50 }
  - { offsetInCU: 0x37AC, offset: 0x11F6DB, size: 0x8, addend: 0x0, symName: '__ZN4core3ptr100drop_in_place$LT$syn..punctuated..Punctuated$LT$syn..path..PathSegment$C$syn..token..PathSep$GT$$GT$17hb49899a1fc5b1f76E', symObjAddr: 0x1D80, symBinAddr: 0x3F7A0, symSize: 0x260 }
  - { offsetInCU: 0x4145, offset: 0x120074, size: 0x8, addend: 0x0, symName: '__ZN4core3ptr103drop_in_place$LT$core..option..Option$LT$alloc..boxed..Box$LT$syn..generics..TypeParamBound$GT$$GT$$GT$17hf90da6392a4e3d41E', symObjAddr: 0x1FE0, symBinAddr: 0x3FA00, symSize: 0x50 }
  - { offsetInCU: 0x4352, offset: 0x120281, size: 0x8, addend: 0x0, symName: '__ZN4core3ptr103drop_in_place$LT$syn..punctuated..Punctuated$LT$syn..generics..GenericParam$C$syn..token..Comma$GT$$GT$17h911e43a7dc8fdff1E', symObjAddr: 0x2030, symBinAddr: 0x3FA50, symSize: 0xF0 }
  - { offsetInCU: 0x4834, offset: 0x120763, size: 0x8, addend: 0x0, symName: '__ZN4core3ptr104drop_in_place$LT$syn..punctuated..Punctuated$LT$syn..generics..TypeParamBound$C$syn..token..Plus$GT$$GT$17h7ddaaad70512ee37E', symObjAddr: 0x2120, symBinAddr: 0x3FB40, symSize: 0x230 }
  - { offsetInCU: 0x5058, offset: 0x120F87, size: 0x8, addend: 0x0, symName: '__ZN4core3ptr34drop_in_place$LT$syn..lit..Lit$GT$17h2e2e13a98dbc9907E', symObjAddr: 0x2350, symBinAddr: 0x3FD70, symSize: 0x110 }
  - { offsetInCU: 0x5554, offset: 0x121483, size: 0x8, addend: 0x0, symName: '__ZN4core3ptr34drop_in_place$LT$syn..pat..Pat$GT$17hec6f59d6862832acE', symObjAddr: 0x2460, symBinAddr: 0x3FE80, symSize: 0xB50 }
  - { offsetInCU: 0x87F8, offset: 0x124727, size: 0x8, addend: 0x0, symName: '__ZN4core3ptr34drop_in_place$LT$syn..ty..Type$GT$17h34d0fb967b9e90dcE', symObjAddr: 0x2FB0, symBinAddr: 0x409D0, symSize: 0x4F0 }
  - { offsetInCU: 0x9D43, offset: 0x125C72, size: 0x8, addend: 0x0, symName: '__ZN4core3ptr36drop_in_place$LT$syn..expr..Expr$GT$17h187d7b86dfeaeb43E', symObjAddr: 0x34A0, symBinAddr: 0x40EC0, symSize: 0x1DC0 }
  - { offsetInCU: 0x11D0F, offset: 0x12DC3E, size: 0x8, addend: 0x0, symName: '__ZN4core3ptr36drop_in_place$LT$syn..mac..Macro$GT$17he23e0f3502fe2b80E', symObjAddr: 0x5260, symBinAddr: 0x42C80, symSize: 0x40 }
  - { offsetInCU: 0x11D49, offset: 0x12DC78, size: 0x8, addend: 0x0, symName: '__ZN4core3ptr36drop_in_place$LT$syn..path..Path$GT$17hef30d7983279258eE', symObjAddr: 0x52A0, symBinAddr: 0x42CC0, symSize: 0x220 }
  - { offsetInCU: 0x1267E, offset: 0x12E5AD, size: 0x8, addend: 0x0, symName: '__ZN4core3ptr37drop_in_place$LT$core..fmt..Error$GT$17h2d8c7cbf3c71e787E', symObjAddr: 0x54C0, symBinAddr: 0x42EE0, symSize: 0x10 }
  - { offsetInCU: 0x126AA, offset: 0x12E5D9, size: 0x8, addend: 0x0, symName: '__ZN4core3ptr37drop_in_place$LT$syn..lit..LitInt$GT$17hc876321d13470039E', symObjAddr: 0x54D0, symBinAddr: 0x42EF0, symSize: 0x70 }
  - { offsetInCU: 0x12A2A, offset: 0x12E959, size: 0x8, addend: 0x0, symName: '__ZN4core3ptr37drop_in_place$LT$syn..stmt..Block$GT$17h94636dfbf4d98dacE', symObjAddr: 0x5540, symBinAddr: 0x42F60, symSize: 0xD0 }
  - { offsetInCU: 0x12CCE, offset: 0x12EBFD, size: 0x8, addend: 0x0, symName: '__ZN4core3ptr38drop_in_place$LT$syn..expr..Member$GT$17h42589c34bb8285abE', symObjAddr: 0x5610, symBinAddr: 0x43030, symSize: 0x30 }
  - { offsetInCU: 0x12DCB, offset: 0x12ECFA, size: 0x8, addend: 0x0, symName: '__ZN4core3ptr39drop_in_place$LT$proc_macro2..Ident$GT$17h85dcc65b6772a923E', symObjAddr: 0x5640, symBinAddr: 0x43060, symSize: 0x30 }
  - { offsetInCU: 0x12EA9, offset: 0x12EDD8, size: 0x8, addend: 0x0, symName: '__ZN4core3ptr40drop_in_place$LT$syn..ty..ReturnType$GT$17h3baf2840577fc6efE', symObjAddr: 0x5670, symBinAddr: 0x43090, symSize: 0x50 }
  - { offsetInCU: 0x1301B, offset: 0x12EF4A, size: 0x8, addend: 0x0, symName: '__ZN4core3ptr41drop_in_place$LT$syn..expr..ExprConst$GT$17hd61e0a3a79e02810E', symObjAddr: 0x56C0, symBinAddr: 0x430E0, symSize: 0x120 }
  - { offsetInCU: 0x134DC, offset: 0x12F40B, size: 0x8, addend: 0x0, symName: '__ZN4core3ptr42drop_in_place$LT$alloc..string..String$GT$17hbb2ae86b98a74c87E', symObjAddr: 0x57E0, symBinAddr: 0x43200, symSize: 0x20 }
  - { offsetInCU: 0x135E5, offset: 0x12F514, size: 0x8, addend: 0x0, symName: '__ZN4core3ptr44drop_in_place$LT$syn..lifetime..Lifetime$GT$17h02a95ffc84ffd974E', symObjAddr: 0x5800, symBinAddr: 0x43220, symSize: 0x30 }
  - { offsetInCU: 0x137BB, offset: 0x12F6EA, size: 0x8, addend: 0x0, symName: '__ZN4core3ptr45drop_in_place$LT$proc_macro2..TokenStream$GT$17h661e8a5a3640a978E', symObjAddr: 0x5830, symBinAddr: 0x43250, symSize: 0x140 }
  - { offsetInCU: 0x13C2A, offset: 0x12FB59, size: 0x8, addend: 0x0, symName: '__ZN4core3ptr45drop_in_place$LT$syn..generics..TypeParam$GT$17hd9ee95d550b3e236E', symObjAddr: 0x5970, symBinAddr: 0x43390, symSize: 0x1E0 }
  - { offsetInCU: 0x14384, offset: 0x1302B3, size: 0x8, addend: 0x0, symName: '__ZN4core3ptr46drop_in_place$LT$syn..generics..ConstParam$GT$17hb4dcba9e9f309263E', symObjAddr: 0x5B50, symBinAddr: 0x43570, symSize: 0x100 }
  - { offsetInCU: 0x1470C, offset: 0x13063B, size: 0x8, addend: 0x0, symName: '__ZN4core3ptr47drop_in_place$LT$syn..path..GenericArgument$GT$17h8ff7afdf2989254bE', symObjAddr: 0x5C50, symBinAddr: 0x43670, symSize: 0x4A0 }
  - { offsetInCU: 0x157B3, offset: 0x1316E2, size: 0x8, addend: 0x0, symName: '__ZN4core3ptr49drop_in_place$LT$syn..generics..LifetimeParam$GT$17ha4f70bb42723c9c1E', symObjAddr: 0x60F0, symBinAddr: 0x43B10, symSize: 0xA0 }
  - { offsetInCU: 0x15ACD, offset: 0x1319FC, size: 0x8, addend: 0x0, symName: '__ZN4core3ptr50drop_in_place$LT$syn..generics..TypeParamBound$GT$17hd7e85b849f628957E', symObjAddr: 0x6190, symBinAddr: 0x43BB0, symSize: 0xA0 }
  - { offsetInCU: 0x15C34, offset: 0x131B63, size: 0x8, addend: 0x0, symName: '__ZN4core3ptr58drop_in_place$LT$alloc..vec..Vec$LT$syn..expr..Arm$GT$$GT$17h6bd6c3d1f6387055E', symObjAddr: 0x6230, symBinAddr: 0x43C50, symSize: 0xD0 }
  - { offsetInCU: 0x15EC1, offset: 0x131DF0, size: 0x8, addend: 0x0, symName: '__ZN4core3ptr59drop_in_place$LT$alloc..boxed..Box$LT$syn..pat..Pat$GT$$GT$17hda655f7a9a4c7219E', symObjAddr: 0x6300, symBinAddr: 0x43D20, symSize: 0x50 }
  - { offsetInCU: 0x1601C, offset: 0x131F4B, size: 0x8, addend: 0x0, symName: '__ZN4core3ptr59drop_in_place$LT$alloc..boxed..Box$LT$syn..ty..Type$GT$$GT$17h7c46f1a27385755aE', symObjAddr: 0x6350, symBinAddr: 0x43D70, symSize: 0x50 }
  - { offsetInCU: 0x16177, offset: 0x1320A6, size: 0x8, addend: 0x0, symName: '__ZN4core3ptr61drop_in_place$LT$alloc..boxed..Box$LT$syn..expr..Expr$GT$$GT$17h0f9eb18f16709c9dE', symObjAddr: 0x63A0, symBinAddr: 0x43DC0, symSize: 0x50 }
  - { offsetInCU: 0x1634E, offset: 0x13227D, size: 0x8, addend: 0x0, symName: '__ZN4core3ptr61drop_in_place$LT$syn..path..ParenthesizedGenericArguments$GT$17h9caa3aea5837eb56E', symObjAddr: 0x63F0, symBinAddr: 0x43E10, symSize: 0x170 }
  - { offsetInCU: 0x16915, offset: 0x132844, size: 0x8, addend: 0x0, symName: '__ZN4core3ptr62drop_in_place$LT$syn..path..AngleBracketedGenericArguments$GT$17h387af74cd2856031E', symObjAddr: 0x6560, symBinAddr: 0x43F80, symSize: 0x120 }
  - { offsetInCU: 0x16D2B, offset: 0x132C5A, size: 0x8, addend: 0x0, symName: '__ZN4core3ptr63drop_in_place$LT$alloc..boxed..Box$LT$syn..lit..LitRepr$GT$$GT$17h35a4411a17750418E', symObjAddr: 0x6680, symBinAddr: 0x440A0, symSize: 0x60 }
  - { offsetInCU: 0x17020, offset: 0x132F4F, size: 0x8, addend: 0x0, symName: '__ZN4core3ptr64drop_in_place$LT$alloc..boxed..Box$LT$syn..pat..FieldPat$GT$$GT$17h51affbaae84ab277E', symObjAddr: 0x66E0, symBinAddr: 0x44100, symSize: 0x100 }
  - { offsetInCU: 0x1763B, offset: 0x13356A, size: 0x8, addend: 0x0, symName: '__ZN4core3ptr64drop_in_place$LT$alloc..boxed..Box$LT$syn..ty..BareFnArg$GT$$GT$17ha646ec070779f4a0E', symObjAddr: 0x67E0, symBinAddr: 0x44200, symSize: 0xF0 }
  - { offsetInCU: 0x17ACD, offset: 0x1339FC, size: 0x8, addend: 0x0, symName: '__ZN4core3ptr65drop_in_place$LT$core..option..Option$LT$syn..expr..Label$GT$$GT$17h7470e669be35e9e2E', symObjAddr: 0x68D0, symBinAddr: 0x442F0, symSize: 0x30 }
  - { offsetInCU: 0x17C08, offset: 0x133B37, size: 0x8, addend: 0x0, symName: '__ZN4core3ptr66drop_in_place$LT$core..option..Option$LT$syn..pat..PatRest$GT$$GT$17hb47fb34b4c60ff4cE', symObjAddr: 0x6900, symBinAddr: 0x44320, symSize: 0x70 }
  - { offsetInCU: 0x17E5E, offset: 0x133D8D, size: 0x8, addend: 0x0, symName: '__ZN4core3ptr67drop_in_place$LT$alloc..boxed..Box$LT$syn..expr..FieldValue$GT$$GT$17h409ff751c9d10852E', symObjAddr: 0x6970, symBinAddr: 0x44390, symSize: 0xF0 }
  - { offsetInCU: 0x182D0, offset: 0x1341FF, size: 0x8, addend: 0x0, symName: '__ZN4core3ptr68drop_in_place$LT$alloc..boxed..Box$LT$syn..path..PathSegment$GT$$GT$17ha80f4fa99bbc42a5E', symObjAddr: 0x6A60, symBinAddr: 0x44480, symSize: 0x190 }
  - { offsetInCU: 0x189AE, offset: 0x1348DD, size: 0x8, addend: 0x0, symName: '__ZN4core3ptr70drop_in_place$LT$core..option..Option$LT$syn..ty..BareVariadic$GT$$GT$17hd561fe5259fe880fE', symObjAddr: 0x6BF0, symBinAddr: 0x44610, symSize: 0xC0 }
  - { offsetInCU: 0x18E3B, offset: 0x134D6A, size: 0x8, addend: 0x0, symName: '__ZN4core3ptr72drop_in_place$LT$alloc..boxed..Box$LT$syn..path..GenericArgument$GT$$GT$17h9e1c2fd89a12c330E', symObjAddr: 0x6CB0, symBinAddr: 0x446D0, symSize: 0x2B0 }
  - { offsetInCU: 0x197C6, offset: 0x1356F5, size: 0x8, addend: 0x0, symName: '__ZN4core3ptr72drop_in_place$LT$core..option..Option$LT$syn..lifetime..Lifetime$GT$$GT$17h204d66df25055d6bE', symObjAddr: 0x6F60, symBinAddr: 0x44980, symSize: 0x30 }
  - { offsetInCU: 0x198E2, offset: 0x135811, size: 0x8, addend: 0x0, symName: '__ZN4core3ptr73drop_in_place$LT$alloc..boxed..Box$LT$syn..generics..GenericParam$GT$$GT$17hd2636ca4399a3a9fE', symObjAddr: 0x6F90, symBinAddr: 0x449B0, symSize: 0x80 }
  - { offsetInCU: 0x19A5A, offset: 0x135989, size: 0x8, addend: 0x0, symName: '__ZN4core3ptr75drop_in_place$LT$alloc..boxed..Box$LT$syn..generics..TypeParamBound$GT$$GT$17h2eecd7a4ccb01a6dE', symObjAddr: 0x7010, symBinAddr: 0x44A30, symSize: 0x160 }
  - { offsetInCU: 0x1A020, offset: 0x135F4F, size: 0x8, addend: 0x0, symName: '__ZN4core3ptr86drop_in_place$LT$syn..punctuated..Punctuated$LT$syn..pat..Pat$C$syn..token..Or$GT$$GT$17h0a64ebd164b5dc32E', symObjAddr: 0x7170, symBinAddr: 0x44B90, symSize: 0x120 }
  - { offsetInCU: 0x1A466, offset: 0x136395, size: 0x8, addend: 0x0, symName: '__ZN4core3ptr87drop_in_place$LT$core..option..Option$LT$alloc..boxed..Box$LT$syn..pat..Pat$GT$$GT$$GT$17h13222549103f42daE', symObjAddr: 0x7290, symBinAddr: 0x44CB0, symSize: 0x50 }
  - { offsetInCU: 0x1A5D8, offset: 0x136507, size: 0x8, addend: 0x0, symName: '__ZN4core3ptr87drop_in_place$LT$core..option..Option$LT$alloc..boxed..Box$LT$syn..ty..Type$GT$$GT$$GT$17h7b50ff63bc2302e5E', symObjAddr: 0x72E0, symBinAddr: 0x44D00, symSize: 0x50 }
  - { offsetInCU: 0x1A74A, offset: 0x136679, size: 0x8, addend: 0x0, symName: '__ZN4core3ptr89drop_in_place$LT$core..option..Option$LT$alloc..boxed..Box$LT$syn..expr..Expr$GT$$GT$$GT$17h57d0a0d85babf42eE', symObjAddr: 0x7330, symBinAddr: 0x44D50, symSize: 0x50 }
  - { offsetInCU: 0x1A8FA, offset: 0x136829, size: 0x8, addend: 0x0, symName: '__ZN4core3ptr89drop_in_place$LT$syn..punctuated..Punctuated$LT$syn..pat..Pat$C$syn..token..Comma$GT$$GT$17h95741bc582d9544fE', symObjAddr: 0x7380, symBinAddr: 0x44DA0, symSize: 0x120 }
  - { offsetInCU: 0x1AD57, offset: 0x136C86, size: 0x8, addend: 0x0, symName: '__ZN4core3ptr89drop_in_place$LT$syn..punctuated..Punctuated$LT$syn..ty..Type$C$syn..token..Comma$GT$$GT$17hf8332e5351ee8f4aE', symObjAddr: 0x74A0, symBinAddr: 0x44EC0, symSize: 0x120 }
  - { offsetInCU: 0x1B1A1, offset: 0x1370D0, size: 0x8, addend: 0x0, symName: '__ZN4core3ptr90drop_in_place$LT$core..option..Option$LT$syn..path..AngleBracketedGenericArguments$GT$$GT$17hd30e8b575758ee5fE', symObjAddr: 0x75C0, symBinAddr: 0x44FE0, symSize: 0x130 }
  - { offsetInCU: 0x1B60C, offset: 0x13753B, size: 0x8, addend: 0x0, symName: '__ZN4core3ptr91drop_in_place$LT$syn..punctuated..Punctuated$LT$syn..expr..Expr$C$syn..token..Comma$GT$$GT$17h2ba0440d00fc17b7E', symObjAddr: 0x76F0, symBinAddr: 0x45110, symSize: 0x120 }
  - { offsetInCU: 0x1BA69, offset: 0x137998, size: 0x8, addend: 0x0, symName: '__ZN4core3ptr94drop_in_place$LT$syn..punctuated..Punctuated$LT$syn..pat..FieldPat$C$syn..token..Comma$GT$$GT$17he37c9fd1795d6e36E', symObjAddr: 0x7810, symBinAddr: 0x45230, symSize: 0xF0 }
  - { offsetInCU: 0x1BD33, offset: 0x137C62, size: 0x8, addend: 0x0, symName: '__ZN4core3ptr94drop_in_place$LT$syn..punctuated..Punctuated$LT$syn..ty..BareFnArg$C$syn..token..Comma$GT$$GT$17h818f76d349cdca5cE', symObjAddr: 0x7900, symBinAddr: 0x45320, symSize: 0xF0 }
  - { offsetInCU: 0x1BFFD, offset: 0x137F2C, size: 0x8, addend: 0x0, symName: '__ZN4core3ptr96drop_in_place$LT$core..option..Option$LT$alloc..boxed..Box$LT$syn..path..PathSegment$GT$$GT$$GT$17hf46b91b97ce17f95E', symObjAddr: 0x79F0, symBinAddr: 0x45410, symSize: 0x90 }
  - { offsetInCU: 0x1C27F, offset: 0x1381AE, size: 0x8, addend: 0x0, symName: '__ZN4core3ptr97drop_in_place$LT$syn..punctuated..Punctuated$LT$syn..expr..FieldValue$C$syn..token..Comma$GT$$GT$17h60e67521866e947dE', symObjAddr: 0x7A80, symBinAddr: 0x454A0, symSize: 0xF0 }
  - { offsetInCU: 0x1C549, offset: 0x138478, size: 0x8, addend: 0x0, symName: '__ZN4core3ptr98drop_in_place$LT$alloc..vec..Vec$LT$$LP$syn..path..GenericArgument$C$syn..token..Comma$RP$$GT$$GT$17haeb2991136d128a4E', symObjAddr: 0x7B70, symBinAddr: 0x45590, symSize: 0xD0 }
  - { offsetInCU: 0x1C852, offset: 0x138781, size: 0x8, addend: 0x0, symName: '__ZN4core3ptr98drop_in_place$LT$syn..punctuated..Punctuated$LT$syn..lifetime..Lifetime$C$syn..token..Plus$GT$$GT$17h9d8806b4a517b3d8E', symObjAddr: 0x7C40, symBinAddr: 0x45660, symSize: 0xC0 }
  - { offsetInCU: 0x1D214, offset: 0x139143, size: 0x8, addend: 0x0, symName: '__ZN53_$LT$core..fmt..Error$u20$as$u20$core..fmt..Debug$GT$3fmt17h43ae5cec9623af13E', symObjAddr: 0x7D00, symBinAddr: 0x45720, symSize: 0x20 }
  - { offsetInCU: 0x1D299, offset: 0x1391C8, size: 0x8, addend: 0x0, symName: '__ZN102_$LT$core..iter..adapters..map..Map$LT$I$C$F$GT$$u20$as$u20$core..iter..traits..iterator..Iterator$GT$8try_fold17h7b1fb45be74fc228E', symObjAddr: 0x100, symBinAddr: 0x3DB20, symSize: 0x850 }
  - { offsetInCU: 0x1EB0A, offset: 0x13AA39, size: 0x8, addend: 0x0, symName: '__ZN102_$LT$core..iter..adapters..map..Map$LT$I$C$F$GT$$u20$as$u20$core..iter..traits..iterator..Iterator$GT$8try_fold17h9694e9ba70d5d009E', symObjAddr: 0x950, symBinAddr: 0x3E370, symSize: 0x870 }
  - { offsetInCU: 0x20344, offset: 0x13C273, size: 0x8, addend: 0x0, symName: '__ZN102_$LT$core..iter..adapters..map..Map$LT$I$C$F$GT$$u20$as$u20$core..iter..traits..iterator..Iterator$GT$8try_fold17ha47d787d85f83808E', symObjAddr: 0x11C0, symBinAddr: 0x3EBE0, symSize: 0x9B0 }
  - { offsetInCU: 0x22249, offset: 0x13E178, size: 0x8, addend: 0x0, symName: '__ZN102_$LT$core..iter..adapters..map..Map$LT$I$C$F$GT$$u20$as$u20$core..iter..traits..iterator..Iterator$GT$8try_fold17ha5569735c9539ee1E', symObjAddr: 0x1B70, symBinAddr: 0x3F590, symSize: 0x1C0 }
  - { offsetInCU: 0x1E, offset: 0x14C371, size: 0x8, addend: 0x0, symName: '__ZN4core3ptr100drop_in_place$LT$core..option..Option$LT$alloc..boxed..Box$LT$syn..path..GenericArgument$GT$$GT$$GT$17h81d5ae68dac3e542E', symObjAddr: 0x0, symBinAddr: 0x458D0, symSize: 0x50 }
  - { offsetInCU: 0x1855, offset: 0x14DBA8, size: 0x8, addend: 0x0, symName: '__ZN4core3ptr100drop_in_place$LT$core..option..Option$LT$alloc..boxed..Box$LT$syn..path..GenericArgument$GT$$GT$$GT$17h81d5ae68dac3e542E', symObjAddr: 0x0, symBinAddr: 0x458D0, symSize: 0x50 }
  - { offsetInCU: 0x1BF5, offset: 0x14DF48, size: 0x8, addend: 0x0, symName: '__ZN4core3ptr100drop_in_place$LT$syn..punctuated..Punctuated$LT$syn..path..PathSegment$C$syn..token..PathSep$GT$$GT$17hb49899a1fc5b1f76E', symObjAddr: 0x50, symBinAddr: 0x45920, symSize: 0x260 }
  - { offsetInCU: 0x258E, offset: 0x14E8E1, size: 0x8, addend: 0x0, symName: '__ZN4core3ptr103drop_in_place$LT$core..option..Option$LT$alloc..boxed..Box$LT$syn..generics..TypeParamBound$GT$$GT$$GT$17hf90da6392a4e3d41E', symObjAddr: 0x2B0, symBinAddr: 0x45B80, symSize: 0x50 }
  - { offsetInCU: 0x271F, offset: 0x14EA72, size: 0x8, addend: 0x0, symName: '__ZN4core3ptr103drop_in_place$LT$core..option..Option$LT$alloc..boxed..Box$LT$syn..generics..WherePredicate$GT$$GT$$GT$17h5bb545989b436c82E.llvm.17357113504909189890', symObjAddr: 0x300, symBinAddr: 0x45BD0, symSize: 0x50 }
  - { offsetInCU: 0x291F, offset: 0x14EC72, size: 0x8, addend: 0x0, symName: '__ZN4core3ptr103drop_in_place$LT$syn..punctuated..Punctuated$LT$syn..generics..GenericParam$C$syn..token..Comma$GT$$GT$17h911e43a7dc8fdff1E.llvm.17357113504909189890', symObjAddr: 0x350, symBinAddr: 0x45C20, symSize: 0xF0 }
  - { offsetInCU: 0x2E01, offset: 0x14F154, size: 0x8, addend: 0x0, symName: '__ZN4core3ptr104drop_in_place$LT$syn..punctuated..Punctuated$LT$syn..generics..TypeParamBound$C$syn..token..Plus$GT$$GT$17h7ddaaad70512ee37E.llvm.17357113504909189890', symObjAddr: 0x440, symBinAddr: 0x45D10, symSize: 0x230 }
  - { offsetInCU: 0x3682, offset: 0x14F9D5, size: 0x8, addend: 0x0, symName: '__ZN4core3ptr105drop_in_place$LT$syn..punctuated..Punctuated$LT$syn..generics..WherePredicate$C$syn..token..Comma$GT$$GT$17had4489413503439aE.llvm.17357113504909189890', symObjAddr: 0x670, symBinAddr: 0x45F40, symSize: 0xB0 }
  - { offsetInCU: 0x3AB1, offset: 0x14FE04, size: 0x8, addend: 0x0, symName: '__ZN4core3ptr34drop_in_place$LT$syn..lit..Lit$GT$17h2e2e13a98dbc9907E', symObjAddr: 0x720, symBinAddr: 0x45FF0, symSize: 0x110 }
  - { offsetInCU: 0x3FEB, offset: 0x15033E, size: 0x8, addend: 0x0, symName: '__ZN4core3ptr34drop_in_place$LT$syn..pat..Pat$GT$17hec6f59d6862832acE', symObjAddr: 0x830, symBinAddr: 0x46100, symSize: 0xB50 }
  - { offsetInCU: 0x72EC, offset: 0x15363F, size: 0x8, addend: 0x0, symName: '__ZN4core3ptr34drop_in_place$LT$syn..ty..Type$GT$17h34d0fb967b9e90dcE.llvm.17357113504909189890', symObjAddr: 0x1380, symBinAddr: 0x46C50, symSize: 0x4F0 }
  - { offsetInCU: 0x8837, offset: 0x154B8A, size: 0x8, addend: 0x0, symName: '__ZN4core3ptr36drop_in_place$LT$syn..expr..Expr$GT$17h187d7b86dfeaeb43E', symObjAddr: 0x1870, symBinAddr: 0x47140, symSize: 0x1DC0 }
  - { offsetInCU: 0x10803, offset: 0x15CB56, size: 0x8, addend: 0x0, symName: '__ZN4core3ptr36drop_in_place$LT$syn..mac..Macro$GT$17he23e0f3502fe2b80E', symObjAddr: 0x3630, symBinAddr: 0x48F00, symSize: 0x40 }
  - { offsetInCU: 0x1083D, offset: 0x15CB90, size: 0x8, addend: 0x0, symName: '__ZN4core3ptr36drop_in_place$LT$syn..path..Path$GT$17hef30d7983279258eE.llvm.17357113504909189890', symObjAddr: 0x3670, symBinAddr: 0x48F40, symSize: 0x220 }
  - { offsetInCU: 0x111EE, offset: 0x15D541, size: 0x8, addend: 0x0, symName: '__ZN4core3ptr37drop_in_place$LT$syn..data..Field$GT$17hc6dcad00a6dc4db6E.llvm.17357113504909189890', symObjAddr: 0x3890, symBinAddr: 0x49160, symSize: 0x120 }
  - { offsetInCU: 0x1166D, offset: 0x15D9C0, size: 0x8, addend: 0x0, symName: '__ZN4core3ptr37drop_in_place$LT$syn..stmt..Block$GT$17h94636dfbf4d98dacE', symObjAddr: 0x39B0, symBinAddr: 0x49280, symSize: 0xD0 }
  - { offsetInCU: 0x11911, offset: 0x15DC64, size: 0x8, addend: 0x0, symName: '__ZN4core3ptr39drop_in_place$LT$proc_macro2..Ident$GT$17h85dcc65b6772a923E', symObjAddr: 0x3A80, symBinAddr: 0x49350, symSize: 0x30 }
  - { offsetInCU: 0x119EF, offset: 0x15DD42, size: 0x8, addend: 0x0, symName: '__ZN4core3ptr40drop_in_place$LT$syn..ty..ReturnType$GT$17h3baf2840577fc6efE', symObjAddr: 0x3AB0, symBinAddr: 0x49380, symSize: 0x50 }
  - { offsetInCU: 0x11B61, offset: 0x15DEB4, size: 0x8, addend: 0x0, symName: '__ZN4core3ptr41drop_in_place$LT$syn..expr..ExprConst$GT$17hd61e0a3a79e02810E', symObjAddr: 0x3B00, symBinAddr: 0x493D0, symSize: 0x120 }
  - { offsetInCU: 0x12158, offset: 0x15E4AB, size: 0x8, addend: 0x0, symName: '__ZN4core3ptr43drop_in_place$LT$proc_macro2..TokenTree$GT$17hc3425d1801380e94E.llvm.17357113504909189890', symObjAddr: 0x3C20, symBinAddr: 0x494F0, symSize: 0xB0 }
  - { offsetInCU: 0x1246C, offset: 0x15E7BF, size: 0x8, addend: 0x0, symName: '__ZN4core3ptr44drop_in_place$LT$syn..lifetime..Lifetime$GT$17h02a95ffc84ffd974E', symObjAddr: 0x3CD0, symBinAddr: 0x495A0, symSize: 0x30 }
  - { offsetInCU: 0x12604, offset: 0x15E957, size: 0x8, addend: 0x0, symName: '__ZN4core3ptr45drop_in_place$LT$proc_macro2..TokenStream$GT$17h661e8a5a3640a978E', symObjAddr: 0x3D00, symBinAddr: 0x495D0, symSize: 0x140 }
  - { offsetInCU: 0x12A73, offset: 0x15EDC6, size: 0x8, addend: 0x0, symName: '__ZN4core3ptr45drop_in_place$LT$syn..generics..TypeParam$GT$17hd9ee95d550b3e236E.llvm.17357113504909189890', symObjAddr: 0x3E40, symBinAddr: 0x49710, symSize: 0x1E0 }
  - { offsetInCU: 0x131CD, offset: 0x15F520, size: 0x8, addend: 0x0, symName: '__ZN4core3ptr46drop_in_place$LT$syn..generics..ConstParam$GT$17hb4dcba9e9f309263E.llvm.17357113504909189890', symObjAddr: 0x4020, symBinAddr: 0x498F0, symSize: 0x100 }
  - { offsetInCU: 0x13555, offset: 0x15F8A8, size: 0x8, addend: 0x0, symName: '__ZN4core3ptr47drop_in_place$LT$syn..path..GenericArgument$GT$17h8ff7afdf2989254bE', symObjAddr: 0x4120, symBinAddr: 0x499F0, symSize: 0x4A0 }
  - { offsetInCU: 0x145FC, offset: 0x16094F, size: 0x8, addend: 0x0, symName: '__ZN4core3ptr49drop_in_place$LT$syn..generics..LifetimeParam$GT$17ha4f70bb42723c9c1E.llvm.17357113504909189890', symObjAddr: 0x45C0, symBinAddr: 0x49E90, symSize: 0xA0 }
  - { offsetInCU: 0x14916, offset: 0x160C69, size: 0x8, addend: 0x0, symName: '__ZN4core3ptr49drop_in_place$LT$syn..restriction..Visibility$GT$17h2f503e9da9d7011eE.llvm.17357113504909189890', symObjAddr: 0x4660, symBinAddr: 0x49F30, symSize: 0x60 }
  - { offsetInCU: 0x14A99, offset: 0x160DEC, size: 0x8, addend: 0x0, symName: '__ZN4core3ptr50drop_in_place$LT$syn..generics..TypeParamBound$GT$17hd7e85b849f628957E', symObjAddr: 0x46C0, symBinAddr: 0x49F90, symSize: 0xA0 }
  - { offsetInCU: 0x14C3E, offset: 0x160F91, size: 0x8, addend: 0x0, symName: '__ZN4core3ptr50drop_in_place$LT$syn..generics..WherePredicate$GT$17hfe08fbdb36951fecE.llvm.17357113504909189890', symObjAddr: 0x4760, symBinAddr: 0x4A030, symSize: 0xA0 }
  - { offsetInCU: 0x14DDF, offset: 0x161132, size: 0x8, addend: 0x0, symName: '__ZN4core3ptr58drop_in_place$LT$alloc..vec..Vec$LT$syn..expr..Arm$GT$$GT$17h6bd6c3d1f6387055E', symObjAddr: 0x4800, symBinAddr: 0x4A0D0, symSize: 0xD0 }
  - { offsetInCU: 0x1506C, offset: 0x1613BF, size: 0x8, addend: 0x0, symName: '__ZN4core3ptr59drop_in_place$LT$alloc..boxed..Box$LT$syn..pat..Pat$GT$$GT$17hda655f7a9a4c7219E', symObjAddr: 0x48D0, symBinAddr: 0x4A1A0, symSize: 0x50 }
  - { offsetInCU: 0x151C7, offset: 0x16151A, size: 0x8, addend: 0x0, symName: '__ZN4core3ptr59drop_in_place$LT$alloc..boxed..Box$LT$syn..ty..Type$GT$$GT$17h7c46f1a27385755aE', symObjAddr: 0x4920, symBinAddr: 0x4A1F0, symSize: 0x50 }
  - { offsetInCU: 0x15322, offset: 0x161675, size: 0x8, addend: 0x0, symName: '__ZN4core3ptr61drop_in_place$LT$alloc..boxed..Box$LT$syn..expr..Expr$GT$$GT$17h0f9eb18f16709c9dE', symObjAddr: 0x4970, symBinAddr: 0x4A240, symSize: 0x50 }
  - { offsetInCU: 0x154F9, offset: 0x16184C, size: 0x8, addend: 0x0, symName: '__ZN4core3ptr61drop_in_place$LT$syn..path..ParenthesizedGenericArguments$GT$17h9caa3aea5837eb56E', symObjAddr: 0x49C0, symBinAddr: 0x4A290, symSize: 0x170 }
  - { offsetInCU: 0x15AC0, offset: 0x161E13, size: 0x8, addend: 0x0, symName: '__ZN4core3ptr62drop_in_place$LT$syn..path..AngleBracketedGenericArguments$GT$17h387af74cd2856031E', symObjAddr: 0x4B30, symBinAddr: 0x4A400, symSize: 0x120 }
  - { offsetInCU: 0x15ED6, offset: 0x162229, size: 0x8, addend: 0x0, symName: '__ZN4core3ptr63drop_in_place$LT$alloc..boxed..Box$LT$syn..lit..LitRepr$GT$$GT$17h35a4411a17750418E', symObjAddr: 0x4C50, symBinAddr: 0x4A520, symSize: 0x60 }
  - { offsetInCU: 0x161CB, offset: 0x16251E, size: 0x8, addend: 0x0, symName: '__ZN4core3ptr64drop_in_place$LT$alloc..boxed..Box$LT$syn..pat..FieldPat$GT$$GT$17h51affbaae84ab277E', symObjAddr: 0x4CB0, symBinAddr: 0x4A580, symSize: 0x100 }
  - { offsetInCU: 0x167E6, offset: 0x162B39, size: 0x8, addend: 0x0, symName: '__ZN4core3ptr64drop_in_place$LT$alloc..boxed..Box$LT$syn..ty..BareFnArg$GT$$GT$17ha646ec070779f4a0E', symObjAddr: 0x4DB0, symBinAddr: 0x4A680, symSize: 0xF0 }
  - { offsetInCU: 0x16C78, offset: 0x162FCB, size: 0x8, addend: 0x0, symName: '__ZN4core3ptr65drop_in_place$LT$core..option..Option$LT$syn..expr..Label$GT$$GT$17h7470e669be35e9e2E', symObjAddr: 0x4EA0, symBinAddr: 0x4A770, symSize: 0x30 }
  - { offsetInCU: 0x16DB3, offset: 0x163106, size: 0x8, addend: 0x0, symName: '__ZN4core3ptr66drop_in_place$LT$core..option..Option$LT$syn..pat..PatRest$GT$$GT$17hb47fb34b4c60ff4cE', symObjAddr: 0x4ED0, symBinAddr: 0x4A7A0, symSize: 0x70 }
  - { offsetInCU: 0x17009, offset: 0x16335C, size: 0x8, addend: 0x0, symName: '__ZN4core3ptr67drop_in_place$LT$alloc..boxed..Box$LT$syn..expr..FieldValue$GT$$GT$17h409ff751c9d10852E', symObjAddr: 0x4F40, symBinAddr: 0x4A810, symSize: 0xF0 }
  - { offsetInCU: 0x1747B, offset: 0x1637CE, size: 0x8, addend: 0x0, symName: '__ZN4core3ptr67drop_in_place$LT$core..option..Option$LT$proc_macro2..Ident$GT$$GT$17hc54fa077c51aefffE.llvm.17357113504909189890', symObjAddr: 0x5030, symBinAddr: 0x4A900, symSize: 0x30 }
  - { offsetInCU: 0x17578, offset: 0x1638CB, size: 0x8, addend: 0x0, symName: '__ZN4core3ptr68drop_in_place$LT$alloc..boxed..Box$LT$syn..path..PathSegment$GT$$GT$17ha80f4fa99bbc42a5E', symObjAddr: 0x5060, symBinAddr: 0x4A930, symSize: 0x190 }
  - { offsetInCU: 0x17C56, offset: 0x163FA9, size: 0x8, addend: 0x0, symName: '__ZN4core3ptr70drop_in_place$LT$core..option..Option$LT$syn..ty..BareVariadic$GT$$GT$17hd561fe5259fe880fE', symObjAddr: 0x51F0, symBinAddr: 0x4AAC0, symSize: 0xC0 }
  - { offsetInCU: 0x180E3, offset: 0x164436, size: 0x8, addend: 0x0, symName: '__ZN4core3ptr72drop_in_place$LT$alloc..boxed..Box$LT$syn..path..GenericArgument$GT$$GT$17h9e1c2fd89a12c330E', symObjAddr: 0x52B0, symBinAddr: 0x4AB80, symSize: 0x2B0 }
  - { offsetInCU: 0x18A6E, offset: 0x164DC1, size: 0x8, addend: 0x0, symName: '__ZN4core3ptr72drop_in_place$LT$core..option..Option$LT$syn..lifetime..Lifetime$GT$$GT$17h204d66df25055d6bE', symObjAddr: 0x5560, symBinAddr: 0x4AE30, symSize: 0x30 }
  - { offsetInCU: 0x18B8A, offset: 0x164EDD, size: 0x8, addend: 0x0, symName: '__ZN4core3ptr73drop_in_place$LT$alloc..boxed..Box$LT$syn..generics..GenericParam$GT$$GT$17hd2636ca4399a3a9fE.llvm.17357113504909189890', symObjAddr: 0x5590, symBinAddr: 0x4AE60, symSize: 0x80 }
  - { offsetInCU: 0x18D02, offset: 0x165055, size: 0x8, addend: 0x0, symName: '__ZN4core3ptr75drop_in_place$LT$alloc..boxed..Box$LT$syn..generics..TypeParamBound$GT$$GT$17h2eecd7a4ccb01a6dE', symObjAddr: 0x5610, symBinAddr: 0x4AEE0, symSize: 0x160 }
  - { offsetInCU: 0x192C8, offset: 0x16561B, size: 0x8, addend: 0x0, symName: '__ZN4core3ptr86drop_in_place$LT$syn..punctuated..Punctuated$LT$syn..pat..Pat$C$syn..token..Or$GT$$GT$17h0a64ebd164b5dc32E', symObjAddr: 0x5770, symBinAddr: 0x4B040, symSize: 0x120 }
  - { offsetInCU: 0x1970E, offset: 0x165A61, size: 0x8, addend: 0x0, symName: '__ZN4core3ptr87drop_in_place$LT$core..option..Option$LT$alloc..boxed..Box$LT$syn..pat..Pat$GT$$GT$$GT$17h13222549103f42daE', symObjAddr: 0x5890, symBinAddr: 0x4B160, symSize: 0x50 }
  - { offsetInCU: 0x19880, offset: 0x165BD3, size: 0x8, addend: 0x0, symName: '__ZN4core3ptr87drop_in_place$LT$core..option..Option$LT$alloc..boxed..Box$LT$syn..ty..Type$GT$$GT$$GT$17h7b50ff63bc2302e5E', symObjAddr: 0x58E0, symBinAddr: 0x4B1B0, symSize: 0x50 }
  - { offsetInCU: 0x199F2, offset: 0x165D45, size: 0x8, addend: 0x0, symName: '__ZN4core3ptr89drop_in_place$LT$core..option..Option$LT$alloc..boxed..Box$LT$syn..expr..Expr$GT$$GT$$GT$17h57d0a0d85babf42eE', symObjAddr: 0x5930, symBinAddr: 0x4B200, symSize: 0x50 }
  - { offsetInCU: 0x19BA2, offset: 0x165EF5, size: 0x8, addend: 0x0, symName: '__ZN4core3ptr89drop_in_place$LT$syn..punctuated..Punctuated$LT$syn..pat..Pat$C$syn..token..Comma$GT$$GT$17h95741bc582d9544fE', symObjAddr: 0x5980, symBinAddr: 0x4B250, symSize: 0x120 }
  - { offsetInCU: 0x19FFF, offset: 0x166352, size: 0x8, addend: 0x0, symName: '__ZN4core3ptr89drop_in_place$LT$syn..punctuated..Punctuated$LT$syn..ty..Type$C$syn..token..Comma$GT$$GT$17hf8332e5351ee8f4aE', symObjAddr: 0x5AA0, symBinAddr: 0x4B370, symSize: 0x120 }
  - { offsetInCU: 0x1A449, offset: 0x16679C, size: 0x8, addend: 0x0, symName: '__ZN4core3ptr90drop_in_place$LT$core..option..Option$LT$syn..path..AngleBracketedGenericArguments$GT$$GT$17hd30e8b575758ee5fE', symObjAddr: 0x5BC0, symBinAddr: 0x4B490, symSize: 0x130 }
  - { offsetInCU: 0x1A8B4, offset: 0x166C07, size: 0x8, addend: 0x0, symName: '__ZN4core3ptr91drop_in_place$LT$syn..punctuated..Punctuated$LT$syn..expr..Expr$C$syn..token..Comma$GT$$GT$17h2ba0440d00fc17b7E', symObjAddr: 0x5CF0, symBinAddr: 0x4B5C0, symSize: 0x120 }
  - { offsetInCU: 0x1AD11, offset: 0x167064, size: 0x8, addend: 0x0, symName: '__ZN4core3ptr94drop_in_place$LT$syn..punctuated..Punctuated$LT$syn..pat..FieldPat$C$syn..token..Comma$GT$$GT$17he37c9fd1795d6e36E', symObjAddr: 0x5E10, symBinAddr: 0x4B6E0, symSize: 0xF0 }
  - { offsetInCU: 0x1AFDB, offset: 0x16732E, size: 0x8, addend: 0x0, symName: '__ZN4core3ptr94drop_in_place$LT$syn..punctuated..Punctuated$LT$syn..ty..BareFnArg$C$syn..token..Comma$GT$$GT$17h818f76d349cdca5cE', symObjAddr: 0x5F00, symBinAddr: 0x4B7D0, symSize: 0xF0 }
  - { offsetInCU: 0x1B2A5, offset: 0x1675F8, size: 0x8, addend: 0x0, symName: '__ZN4core3ptr96drop_in_place$LT$core..option..Option$LT$alloc..boxed..Box$LT$syn..path..PathSegment$GT$$GT$$GT$17hf46b91b97ce17f95E', symObjAddr: 0x5FF0, symBinAddr: 0x4B8C0, symSize: 0x90 }
  - { offsetInCU: 0x1B546, offset: 0x167899, size: 0x8, addend: 0x0, symName: '__ZN4core3ptr97drop_in_place$LT$syn..punctuated..Punctuated$LT$syn..expr..FieldValue$C$syn..token..Comma$GT$$GT$17h60e67521866e947dE', symObjAddr: 0x60D0, symBinAddr: 0x4B950, symSize: 0xF0 }
  - { offsetInCU: 0x1B810, offset: 0x167B63, size: 0x8, addend: 0x0, symName: '__ZN4core3ptr98drop_in_place$LT$alloc..vec..Vec$LT$$LP$syn..path..GenericArgument$C$syn..token..Comma$RP$$GT$$GT$17haeb2991136d128a4E', symObjAddr: 0x61C0, symBinAddr: 0x4BA40, symSize: 0xD0 }
  - { offsetInCU: 0x1BAFA, offset: 0x167E4D, size: 0x8, addend: 0x0, symName: '__ZN4core3ptr98drop_in_place$LT$syn..punctuated..Punctuated$LT$syn..lifetime..Lifetime$C$syn..token..Plus$GT$$GT$17h9d8806b4a517b3d8E.llvm.17357113504909189890', symObjAddr: 0x6290, symBinAddr: 0x4BB10, symSize: 0xC0 }
  - { offsetInCU: 0x235C8, offset: 0x16F91B, size: 0x8, addend: 0x0, symName: '__ZN86_$LT$alloc..vec..into_iter..IntoIter$LT$T$C$A$GT$$u20$as$u20$core..ops..drop..Drop$GT$4drop17h4d7adab8272fb301E', symObjAddr: 0x6350, symBinAddr: 0x4BBD0, symSize: 0xF0 }
  - { offsetInCU: 0x2393A, offset: 0x16FC8D, size: 0x8, addend: 0x0, symName: '__ZN86_$LT$alloc..vec..into_iter..IntoIter$LT$T$C$A$GT$$u20$as$u20$core..ops..drop..Drop$GT$4drop17h4fadc178d3bf7629E', symObjAddr: 0x6440, symBinAddr: 0x4BCC0, symSize: 0xD0 }
  - { offsetInCU: 0x23C0A, offset: 0x16FF5D, size: 0x8, addend: 0x0, symName: '__ZN86_$LT$alloc..vec..into_iter..IntoIter$LT$T$C$A$GT$$u20$as$u20$core..ops..drop..Drop$GT$4drop17h82667a564e1c4c64E', symObjAddr: 0x6510, symBinAddr: 0x4BD90, symSize: 0xD0 }
  - { offsetInCU: 0x23EDA, offset: 0x17022D, size: 0x8, addend: 0x0, symName: '__ZN86_$LT$alloc..vec..into_iter..IntoIter$LT$T$C$A$GT$$u20$as$u20$core..ops..drop..Drop$GT$4drop17h9a452d9216cfd4a1E', symObjAddr: 0x65E0, symBinAddr: 0x4BE60, symSize: 0xF0 }
  - { offsetInCU: 0x241DF, offset: 0x170532, size: 0x8, addend: 0x0, symName: '__ZN86_$LT$alloc..vec..into_iter..IntoIter$LT$T$C$A$GT$$u20$as$u20$core..ops..drop..Drop$GT$4drop17hab1c363648f3477bE', symObjAddr: 0x66D0, symBinAddr: 0x4BF50, symSize: 0xF0 }
  - { offsetInCU: 0x244B0, offset: 0x170803, size: 0x8, addend: 0x0, symName: '__ZN86_$LT$alloc..vec..into_iter..IntoIter$LT$T$C$A$GT$$u20$as$u20$core..ops..drop..Drop$GT$4drop17hd18f4aa512296b44E', symObjAddr: 0x67C0, symBinAddr: 0x4C040, symSize: 0xE4 }
  - { offsetInCU: 0x1E, offset: 0x175740, size: 0x8, addend: 0x0, symName: '__ZN10proc_macro6bridge11scoped_cell19ScopedCell$LT$T$GT$7replace17h054fe4641a88f01eE', symObjAddr: 0x0, symBinAddr: 0x4C130, symSize: 0x0 }
  - { offsetInCU: 0x9AA, offset: 0x1760CC, size: 0x8, addend: 0x0, symName: '__ZN4core3ptr145drop_in_place$LT$proc_macro..bridge..scoped_cell..ScopedCell$LT$T$GT$..replace..PutBackOnDrop$LT$proc_macro..bridge..client..BridgeStateL$GT$$GT$17h81f06cae838b8ba5E.llvm.9495870397028158976', symObjAddr: 0x2150, symBinAddr: 0x4E280, symSize: 0xBA }
  - { offsetInCU: 0x2E12, offset: 0x178534, size: 0x8, addend: 0x0, symName: '__ZN10proc_macro6bridge11scoped_cell19ScopedCell$LT$T$GT$7replace17h054fe4641a88f01eE', symObjAddr: 0x0, symBinAddr: 0x4C130, symSize: 0x0 }
  - { offsetInCU: 0x33FC, offset: 0x178B1E, size: 0x8, addend: 0x0, symName: '__ZN10proc_macro6bridge11scoped_cell19ScopedCell$LT$T$GT$7replace17h0c0810721cea3bd8E', symObjAddr: 0x1D0, symBinAddr: 0x4C300, symSize: 0x380 }
  - { offsetInCU: 0x3CEE, offset: 0x179410, size: 0x8, addend: 0x0, symName: '__ZN10proc_macro6bridge11scoped_cell19ScopedCell$LT$T$GT$7replace17h26a11b8f6bb41117E', symObjAddr: 0x550, symBinAddr: 0x4C680, symSize: 0x380 }
  - { offsetInCU: 0x45E0, offset: 0x179D02, size: 0x8, addend: 0x0, symName: '__ZN10proc_macro6bridge11scoped_cell19ScopedCell$LT$T$GT$7replace17h43990e0f414b1134E', symObjAddr: 0x8D0, symBinAddr: 0x4CA00, symSize: 0x380 }
  - { offsetInCU: 0x4ED2, offset: 0x17A5F4, size: 0x8, addend: 0x0, symName: '__ZN10proc_macro6bridge11scoped_cell19ScopedCell$LT$T$GT$7replace17h66b9cac416165845E', symObjAddr: 0xC50, symBinAddr: 0x4CD80, symSize: 0x380 }
  - { offsetInCU: 0x57C4, offset: 0x17AEE6, size: 0x8, addend: 0x0, symName: '__ZN10proc_macro6bridge11scoped_cell19ScopedCell$LT$T$GT$7replace17h6f51653263efd3dbE', symObjAddr: 0xFD0, symBinAddr: 0x4D100, symSize: 0x380 }
  - { offsetInCU: 0x60B6, offset: 0x17B7D8, size: 0x8, addend: 0x0, symName: '__ZN10proc_macro6bridge11scoped_cell19ScopedCell$LT$T$GT$7replace17h7494852521845309E', symObjAddr: 0x1350, symBinAddr: 0x4D480, symSize: 0x380 }
  - { offsetInCU: 0x69A8, offset: 0x17C0CA, size: 0x8, addend: 0x0, symName: '__ZN10proc_macro6bridge11scoped_cell19ScopedCell$LT$T$GT$7replace17hc9b877b2c1946c5eE', symObjAddr: 0x16D0, symBinAddr: 0x4D800, symSize: 0x380 }
  - { offsetInCU: 0x729A, offset: 0x17C9BC, size: 0x8, addend: 0x0, symName: '__ZN10proc_macro6bridge11scoped_cell19ScopedCell$LT$T$GT$7replace17hd0cbbf4557d6ef95E', symObjAddr: 0x1A50, symBinAddr: 0x4DB80, symSize: 0x380 }
  - { offsetInCU: 0x7B8C, offset: 0x17D2AE, size: 0x8, addend: 0x0, symName: '__ZN10proc_macro6bridge11scoped_cell19ScopedCell$LT$T$GT$7replace17hd138cf25c537556eE', symObjAddr: 0x1DD0, symBinAddr: 0x4DF00, symSize: 0x380 }
  - { offsetInCU: 0x1ABB, offset: 0x180834, size: 0x8, addend: 0x0, symName: '__ZN4core3ptr100drop_in_place$LT$core..option..Option$LT$alloc..boxed..Box$LT$syn..path..GenericArgument$GT$$GT$$GT$17h81d5ae68dac3e542E', symObjAddr: 0x1460, symBinAddr: 0x4F770, symSize: 0x50 }
  - { offsetInCU: 0x1C8A, offset: 0x180A03, size: 0x8, addend: 0x0, symName: '__ZN4core3ptr102drop_in_place$LT$syn..punctuated..Punctuated$LT$syn..path..GenericArgument$C$syn..token..Comma$GT$$GT$17hc105d9a0c2ba0082E', symObjAddr: 0x14B0, symBinAddr: 0x4F7C0, symSize: 0xF0 }
  - { offsetInCU: 0x1F73, offset: 0x180CEC, size: 0x8, addend: 0x0, symName: '__ZN4core3ptr103drop_in_place$LT$core..option..Option$LT$alloc..boxed..Box$LT$syn..generics..TypeParamBound$GT$$GT$$GT$17hf90da6392a4e3d41E', symObjAddr: 0x15A0, symBinAddr: 0x4F8B0, symSize: 0x50 }
  - { offsetInCU: 0x223A, offset: 0x180FB3, size: 0x8, addend: 0x0, symName: '__ZN4core3ptr103drop_in_place$LT$core..option..Option$LT$alloc..boxed..Box$LT$syn..generics..WherePredicate$GT$$GT$$GT$17h5bb545989b436c82E', symObjAddr: 0x15F0, symBinAddr: 0x4F900, symSize: 0xD0 }
  - { offsetInCU: 0x25CD, offset: 0x181346, size: 0x8, addend: 0x0, symName: '__ZN4core3ptr103drop_in_place$LT$syn..punctuated..Punctuated$LT$syn..generics..GenericParam$C$syn..token..Comma$GT$$GT$17h911e43a7dc8fdff1E', symObjAddr: 0x16C0, symBinAddr: 0x4F9D0, symSize: 0xF0 }
  - { offsetInCU: 0x2A90, offset: 0x181809, size: 0x8, addend: 0x0, symName: '__ZN4core3ptr104drop_in_place$LT$syn..punctuated..Punctuated$LT$syn..generics..TypeParamBound$C$syn..token..Plus$GT$$GT$17h7ddaaad70512ee37E', symObjAddr: 0x17B0, symBinAddr: 0x4FAC0, symSize: 0x230 }
  - { offsetInCU: 0x336E, offset: 0x1820E7, size: 0x8, addend: 0x0, symName: '__ZN4core3ptr34drop_in_place$LT$syn..lit..Lit$GT$17h2e2e13a98dbc9907E', symObjAddr: 0x19E0, symBinAddr: 0x4FCF0, symSize: 0x110 }
  - { offsetInCU: 0x38C7, offset: 0x182640, size: 0x8, addend: 0x0, symName: '__ZN4core3ptr34drop_in_place$LT$syn..pat..Pat$GT$17hec6f59d6862832acE', symObjAddr: 0x1AF0, symBinAddr: 0x4FE00, symSize: 0xA30 }
  - { offsetInCU: 0x66F2, offset: 0x18546B, size: 0x8, addend: 0x0, symName: '__ZN4core3ptr34drop_in_place$LT$syn..ty..Type$GT$17h34d0fb967b9e90dcE', symObjAddr: 0x2520, symBinAddr: 0x50830, symSize: 0x5C0 }
  - { offsetInCU: 0x7F28, offset: 0x186CA1, size: 0x8, addend: 0x0, symName: '__ZN4core3ptr36drop_in_place$LT$syn..expr..Expr$GT$17h187d7b86dfeaeb43E', symObjAddr: 0x2AE0, symBinAddr: 0x50DF0, symSize: 0x1D10 }
  - { offsetInCU: 0xFC3F, offset: 0x18E9B8, size: 0x8, addend: 0x0, symName: '__ZN4core3ptr36drop_in_place$LT$syn..mac..Macro$GT$17he23e0f3502fe2b80E', symObjAddr: 0x47F0, symBinAddr: 0x52B00, symSize: 0xE0 }
  - { offsetInCU: 0xFFB0, offset: 0x18ED29, size: 0x8, addend: 0x0, symName: '__ZN4core3ptr36drop_in_place$LT$syn..path..Path$GT$17hef30d7983279258eE', symObjAddr: 0x48D0, symBinAddr: 0x52BE0, symSize: 0x220 }
  - { offsetInCU: 0x108E5, offset: 0x18F65E, size: 0x8, addend: 0x0, symName: '__ZN4core3ptr37drop_in_place$LT$syn..stmt..Block$GT$17h94636dfbf4d98dacE', symObjAddr: 0x4AF0, symBinAddr: 0x52E00, symSize: 0xD0 }
  - { offsetInCU: 0x10C24, offset: 0x18F99D, size: 0x8, addend: 0x0, symName: '__ZN4core3ptr38drop_in_place$LT$syn..data..Fields$GT$17h4293814b0b343c16E', symObjAddr: 0x4BC0, symBinAddr: 0x52ED0, symSize: 0x190 }
  - { offsetInCU: 0x110FC, offset: 0x18FE75, size: 0x8, addend: 0x0, symName: '__ZN4core3ptr38drop_in_place$LT$syn..derive..Data$GT$17h2365431082b9b4b3E', symObjAddr: 0x4D50, symBinAddr: 0x53060, symSize: 0x1D0 }
  - { offsetInCU: 0x1173C, offset: 0x1904B5, size: 0x8, addend: 0x0, symName: '__ZN4core3ptr38drop_in_place$LT$syn..expr..Member$GT$17h42589c34bb8285abE', symObjAddr: 0x4F20, symBinAddr: 0x53230, symSize: 0x30 }
  - { offsetInCU: 0x11839, offset: 0x1905B2, size: 0x8, addend: 0x0, symName: '__ZN4core3ptr39drop_in_place$LT$proc_macro2..Ident$GT$17h85dcc65b6772a923E', symObjAddr: 0x4F50, symBinAddr: 0x53260, symSize: 0x30 }
  - { offsetInCU: 0x11A4D, offset: 0x1907C6, size: 0x8, addend: 0x0, symName: '__ZN4core3ptr39drop_in_place$LT$syn..buffer..Entry$GT$17h7c2055c03ba775f0E', symObjAddr: 0x4F80, symBinAddr: 0x53290, symSize: 0xC0 }
  - { offsetInCU: 0x11D61, offset: 0x190ADA, size: 0x8, addend: 0x0, symName: '__ZN4core3ptr40drop_in_place$LT$syn..ty..ReturnType$GT$17h3baf2840577fc6efE', symObjAddr: 0x5040, symBinAddr: 0x53350, symSize: 0x50 }
  - { offsetInCU: 0x11ED3, offset: 0x190C4C, size: 0x8, addend: 0x0, symName: '__ZN4core3ptr41drop_in_place$LT$syn..expr..ExprConst$GT$17hd61e0a3a79e02810E', symObjAddr: 0x5090, symBinAddr: 0x533A0, symSize: 0x120 }
  - { offsetInCU: 0x12394, offset: 0x19110D, size: 0x8, addend: 0x0, symName: '__ZN4core3ptr44drop_in_place$LT$syn..generics..Generics$GT$17h7f9a550c46963f04E', symObjAddr: 0x51B0, symBinAddr: 0x534C0, symSize: 0x40 }
  - { offsetInCU: 0x123B1, offset: 0x19112A, size: 0x8, addend: 0x0, symName: '__ZN4core3ptr44drop_in_place$LT$syn..lifetime..Lifetime$GT$17h02a95ffc84ffd974E', symObjAddr: 0x51F0, symBinAddr: 0x53500, symSize: 0x30 }
  - { offsetInCU: 0x124AE, offset: 0x191227, size: 0x8, addend: 0x0, symName: '__ZN4core3ptr44drop_in_place$LT$syn..parse..ParseBuffer$GT$17h475e5b802a1664f7E', symObjAddr: 0x5220, symBinAddr: 0x53530, symSize: 0x70 }
  - { offsetInCU: 0x12848, offset: 0x1915C1, size: 0x8, addend: 0x0, symName: '__ZN4core3ptr45drop_in_place$LT$proc_macro2..TokenStream$GT$17h661e8a5a3640a978E', symObjAddr: 0x5290, symBinAddr: 0x535A0, symSize: 0x140 }
  - { offsetInCU: 0x12C79, offset: 0x1919F2, size: 0x8, addend: 0x0, symName: '__ZN4core3ptr45drop_in_place$LT$syn..attr..MetaNameValue$GT$17h08d6880682bc6cd1E', symObjAddr: 0x53D0, symBinAddr: 0x536E0, symSize: 0x40 }
  - { offsetInCU: 0x12C96, offset: 0x191A0F, size: 0x8, addend: 0x0, symName: '__ZN4core3ptr45drop_in_place$LT$syn..buffer..TokenBuffer$GT$17h156ac451abc50370E', symObjAddr: 0x5410, symBinAddr: 0x53720, symSize: 0xD0 }
  - { offsetInCU: 0x12F3A, offset: 0x191CB3, size: 0x8, addend: 0x0, symName: '__ZN4core3ptr45drop_in_place$LT$syn..derive..DeriveInput$GT$17hc00bf0faaa5cb0c6E', symObjAddr: 0x54E0, symBinAddr: 0x537F0, symSize: 0x150 }
  - { offsetInCU: 0x133EE, offset: 0x192167, size: 0x8, addend: 0x0, symName: '__ZN4core3ptr45drop_in_place$LT$syn..generics..TypeParam$GT$17hd9ee95d550b3e236E', symObjAddr: 0x5630, symBinAddr: 0x53940, symSize: 0x1E0 }
  - { offsetInCU: 0x13B48, offset: 0x1928C1, size: 0x8, addend: 0x0, symName: '__ZN4core3ptr46drop_in_place$LT$syn..generics..ConstParam$GT$17hb4dcba9e9f309263E', symObjAddr: 0x5810, symBinAddr: 0x53B20, symSize: 0x100 }
  - { offsetInCU: 0x13ED0, offset: 0x192C49, size: 0x8, addend: 0x0, symName: '__ZN4core3ptr47drop_in_place$LT$syn..path..GenericArgument$GT$17h8ff7afdf2989254bE', symObjAddr: 0x5910, symBinAddr: 0x53C20, symSize: 0x460 }
  - { offsetInCU: 0x14BD9, offset: 0x193952, size: 0x8, addend: 0x0, symName: '__ZN4core3ptr49drop_in_place$LT$syn..generics..LifetimeParam$GT$17ha4f70bb42723c9c1E', symObjAddr: 0x5D70, symBinAddr: 0x54080, symSize: 0xA0 }
  - { offsetInCU: 0x14EF3, offset: 0x193C6C, size: 0x8, addend: 0x0, symName: '__ZN4core3ptr49drop_in_place$LT$syn..restriction..Visibility$GT$17h2f503e9da9d7011eE', symObjAddr: 0x5E10, symBinAddr: 0x54120, symSize: 0x60 }
  - { offsetInCU: 0x15076, offset: 0x193DEF, size: 0x8, addend: 0x0, symName: '__ZN4core3ptr50drop_in_place$LT$syn..generics..TypeParamBound$GT$17hd7e85b849f628957E', symObjAddr: 0x5E70, symBinAddr: 0x54180, symSize: 0xA0 }
  - { offsetInCU: 0x151DD, offset: 0x193F56, size: 0x8, addend: 0x0, symName: '__ZN4core3ptr58drop_in_place$LT$alloc..vec..Vec$LT$syn..expr..Arm$GT$$GT$17h6bd6c3d1f6387055E', symObjAddr: 0x5F10, symBinAddr: 0x54220, symSize: 0xD0 }
  - { offsetInCU: 0x1546A, offset: 0x1941E3, size: 0x8, addend: 0x0, symName: '__ZN4core3ptr59drop_in_place$LT$alloc..boxed..Box$LT$syn..pat..Pat$GT$$GT$17hda655f7a9a4c7219E', symObjAddr: 0x5FE0, symBinAddr: 0x542F0, symSize: 0x50 }
  - { offsetInCU: 0x155C5, offset: 0x19433E, size: 0x8, addend: 0x0, symName: '__ZN4core3ptr59drop_in_place$LT$alloc..boxed..Box$LT$syn..ty..Type$GT$$GT$17h7c46f1a27385755aE', symObjAddr: 0x6030, symBinAddr: 0x54340, symSize: 0x50 }
  - { offsetInCU: 0x15720, offset: 0x194499, size: 0x8, addend: 0x0, symName: '__ZN4core3ptr61drop_in_place$LT$alloc..boxed..Box$LT$syn..expr..Expr$GT$$GT$17h0f9eb18f16709c9dE', symObjAddr: 0x6080, symBinAddr: 0x54390, symSize: 0x50 }
  - { offsetInCU: 0x1587B, offset: 0x1945F4, size: 0x8, addend: 0x0, symName: '__ZN4core3ptr61drop_in_place$LT$syn..path..ParenthesizedGenericArguments$GT$17h9caa3aea5837eb56E', symObjAddr: 0x60D0, symBinAddr: 0x543E0, symSize: 0x170 }
  - { offsetInCU: 0x15E55, offset: 0x194BCE, size: 0x8, addend: 0x0, symName: '__ZN4core3ptr63drop_in_place$LT$alloc..boxed..Box$LT$syn..lit..LitRepr$GT$$GT$17h35a4411a17750418E', symObjAddr: 0x6240, symBinAddr: 0x54550, symSize: 0x60 }
  - { offsetInCU: 0x1614A, offset: 0x194EC3, size: 0x8, addend: 0x0, symName: '__ZN4core3ptr64drop_in_place$LT$alloc..boxed..Box$LT$syn..pat..FieldPat$GT$$GT$17h51affbaae84ab277E', symObjAddr: 0x62A0, symBinAddr: 0x545B0, symSize: 0x100 }
  - { offsetInCU: 0x16765, offset: 0x1954DE, size: 0x8, addend: 0x0, symName: '__ZN4core3ptr64drop_in_place$LT$alloc..boxed..Box$LT$syn..ty..BareFnArg$GT$$GT$17ha646ec070779f4a0E', symObjAddr: 0x63A0, symBinAddr: 0x546B0, symSize: 0xF0 }
  - { offsetInCU: 0x16BF7, offset: 0x195970, size: 0x8, addend: 0x0, symName: '__ZN4core3ptr65drop_in_place$LT$core..option..Option$LT$syn..expr..Label$GT$$GT$17h7470e669be35e9e2E', symObjAddr: 0x6490, symBinAddr: 0x547A0, symSize: 0x30 }
  - { offsetInCU: 0x16D32, offset: 0x195AAB, size: 0x8, addend: 0x0, symName: '__ZN4core3ptr66drop_in_place$LT$core..option..Option$LT$syn..pat..PatRest$GT$$GT$17hb47fb34b4c60ff4cE', symObjAddr: 0x64C0, symBinAddr: 0x547D0, symSize: 0x70 }
  - { offsetInCU: 0x16F88, offset: 0x195D01, size: 0x8, addend: 0x0, symName: '__ZN4core3ptr67drop_in_place$LT$alloc..boxed..Box$LT$syn..expr..FieldValue$GT$$GT$17h409ff751c9d10852E', symObjAddr: 0x6530, symBinAddr: 0x54840, symSize: 0xF0 }
  - { offsetInCU: 0x17419, offset: 0x196192, size: 0x8, addend: 0x0, symName: '__ZN4core3ptr70drop_in_place$LT$core..option..Option$LT$syn..ty..BareVariadic$GT$$GT$17hd561fe5259fe880fE', symObjAddr: 0x6620, symBinAddr: 0x54930, symSize: 0xC0 }
  - { offsetInCU: 0x178A6, offset: 0x19661F, size: 0x8, addend: 0x0, symName: '__ZN4core3ptr72drop_in_place$LT$alloc..boxed..Box$LT$syn..path..GenericArgument$GT$$GT$17h9e1c2fd89a12c330E', symObjAddr: 0x66E0, symBinAddr: 0x549F0, symSize: 0x2B0 }
  - { offsetInCU: 0x18291, offset: 0x19700A, size: 0x8, addend: 0x0, symName: '__ZN4core3ptr72drop_in_place$LT$core..option..Option$LT$syn..lifetime..Lifetime$GT$$GT$17h204d66df25055d6bE', symObjAddr: 0x6990, symBinAddr: 0x54CA0, symSize: 0x30 }
  - { offsetInCU: 0x183AD, offset: 0x197126, size: 0x8, addend: 0x0, symName: '__ZN4core3ptr73drop_in_place$LT$alloc..boxed..Box$LT$syn..generics..GenericParam$GT$$GT$17hd2636ca4399a3a9fE', symObjAddr: 0x69C0, symBinAddr: 0x54CD0, symSize: 0x80 }
  - { offsetInCU: 0x18525, offset: 0x19729E, size: 0x8, addend: 0x0, symName: '__ZN4core3ptr75drop_in_place$LT$alloc..boxed..Box$LT$syn..generics..TypeParamBound$GT$$GT$17h2eecd7a4ccb01a6dE', symObjAddr: 0x6A40, symBinAddr: 0x54D50, symSize: 0x160 }
  - { offsetInCU: 0x18B0A, offset: 0x197883, size: 0x8, addend: 0x0, symName: '__ZN4core3ptr75drop_in_place$LT$core..option..Option$LT$syn..generics..WhereClause$GT$$GT$17h905cb664fa585210E', symObjAddr: 0x6BA0, symBinAddr: 0x54EB0, symSize: 0x90 }
  - { offsetInCU: 0x18DC0, offset: 0x197B39, size: 0x8, addend: 0x0, symName: '__ZN4core3ptr86drop_in_place$LT$syn..punctuated..Punctuated$LT$syn..pat..Pat$C$syn..token..Or$GT$$GT$17h0a64ebd164b5dc32E', symObjAddr: 0x6C30, symBinAddr: 0x54F40, symSize: 0x120 }
  - { offsetInCU: 0x19206, offset: 0x197F7F, size: 0x8, addend: 0x0, symName: '__ZN4core3ptr87drop_in_place$LT$core..option..Option$LT$alloc..boxed..Box$LT$syn..pat..Pat$GT$$GT$$GT$17h13222549103f42daE', symObjAddr: 0x6D50, symBinAddr: 0x55060, symSize: 0x50 }
  - { offsetInCU: 0x19378, offset: 0x1980F1, size: 0x8, addend: 0x0, symName: '__ZN4core3ptr87drop_in_place$LT$core..option..Option$LT$alloc..boxed..Box$LT$syn..ty..Type$GT$$GT$$GT$17h7b50ff63bc2302e5E', symObjAddr: 0x6DA0, symBinAddr: 0x550B0, symSize: 0x50 }
  - { offsetInCU: 0x194EA, offset: 0x198263, size: 0x8, addend: 0x0, symName: '__ZN4core3ptr89drop_in_place$LT$core..option..Option$LT$alloc..boxed..Box$LT$syn..expr..Expr$GT$$GT$$GT$17h57d0a0d85babf42eE', symObjAddr: 0x6DF0, symBinAddr: 0x55100, symSize: 0x50 }
  - { offsetInCU: 0x1969A, offset: 0x198413, size: 0x8, addend: 0x0, symName: '__ZN4core3ptr89drop_in_place$LT$syn..punctuated..Punctuated$LT$syn..pat..Pat$C$syn..token..Comma$GT$$GT$17h95741bc582d9544fE', symObjAddr: 0x6E40, symBinAddr: 0x55150, symSize: 0x120 }
  - { offsetInCU: 0x19B54, offset: 0x1988CD, size: 0x8, addend: 0x0, symName: '__ZN4core3ptr90drop_in_place$LT$core..option..Option$LT$alloc..boxed..Box$LT$syn..data..Field$GT$$GT$$GT$17hf6e2a61899401111E', symObjAddr: 0x6F60, symBinAddr: 0x55270, symSize: 0x1A0 }
  - { offsetInCU: 0x1A337, offset: 0x1990B0, size: 0x8, addend: 0x0, symName: '__ZN4core3ptr91drop_in_place$LT$syn..punctuated..Punctuated$LT$syn..expr..Expr$C$syn..token..Comma$GT$$GT$17h2ba0440d00fc17b7E', symObjAddr: 0x7100, symBinAddr: 0x55410, symSize: 0x120 }
  - { offsetInCU: 0x1A810, offset: 0x199589, size: 0x8, addend: 0x0, symName: '__ZN4core3ptr92drop_in_place$LT$core..option..Option$LT$alloc..boxed..Box$LT$syn..data..Variant$GT$$GT$$GT$17h29d3abffa5362387E', symObjAddr: 0x7220, symBinAddr: 0x55530, symSize: 0x130 }
  - { offsetInCU: 0x1ADCA, offset: 0x199B43, size: 0x8, addend: 0x0, symName: '__ZN4core3ptr94drop_in_place$LT$syn..punctuated..Punctuated$LT$syn..pat..FieldPat$C$syn..token..Comma$GT$$GT$17he37c9fd1795d6e36E', symObjAddr: 0x7350, symBinAddr: 0x55660, symSize: 0xF0 }
  - { offsetInCU: 0x1B094, offset: 0x199E0D, size: 0x8, addend: 0x0, symName: '__ZN4core3ptr94drop_in_place$LT$syn..punctuated..Punctuated$LT$syn..ty..BareFnArg$C$syn..token..Comma$GT$$GT$17h818f76d349cdca5cE', symObjAddr: 0x7440, symBinAddr: 0x55750, symSize: 0xF0 }
  - { offsetInCU: 0x1B35E, offset: 0x19A0D7, size: 0x8, addend: 0x0, symName: '__ZN4core3ptr96drop_in_place$LT$core..option..Option$LT$alloc..boxed..Box$LT$syn..path..PathSegment$GT$$GT$$GT$17hf46b91b97ce17f95E', symObjAddr: 0x7530, symBinAddr: 0x55840, symSize: 0x180 }
  - { offsetInCU: 0x1B9EF, offset: 0x19A768, size: 0x8, addend: 0x0, symName: '__ZN4core3ptr97drop_in_place$LT$syn..punctuated..Punctuated$LT$syn..expr..FieldValue$C$syn..token..Comma$GT$$GT$17h60e67521866e947dE', symObjAddr: 0x76B0, symBinAddr: 0x559C0, symSize: 0xF0 }
  - { offsetInCU: 0x1BD35, offset: 0x19AAAE, size: 0x8, addend: 0x0, symName: '__ZN4core3ptr98drop_in_place$LT$syn..punctuated..Punctuated$LT$syn..lifetime..Lifetime$C$syn..token..Plus$GT$$GT$17h9d8806b4a517b3d8E', symObjAddr: 0x77A0, symBinAddr: 0x55AB0, symSize: 0xB1 }
  - { offsetInCU: 0x1EDF8, offset: 0x19DB71, size: 0x8, addend: 0x0, symName: '__ZN40_$LT$F$u20$as$u20$syn..parse..Parser$GT$14__parse_scoped17h09b64daf67f5d829E', symObjAddr: 0x560, symBinAddr: 0x4E870, symSize: 0x4E0 }
  - { offsetInCU: 0x1FAF2, offset: 0x19E86B, size: 0x8, addend: 0x0, symName: '__ZN40_$LT$F$u20$as$u20$syn..parse..Parser$GT$14__parse_scoped17hf22b0264404b283eE', symObjAddr: 0xA40, symBinAddr: 0x4ED50, symSize: 0x560 }
  - { offsetInCU: 0x2082B, offset: 0x19F5A4, size: 0x8, addend: 0x0, symName: '__ZN40_$LT$F$u20$as$u20$syn..parse..Parser$GT$6parse217hbabec70637ce7a99E', symObjAddr: 0xFA0, symBinAddr: 0x4F2B0, symSize: 0x4C0 }
  - { offsetInCU: 0x212FE, offset: 0x1A0077, size: 0x8, addend: 0x0, symName: __ZN3syn5parse6Parser5parse17h79d7f7bd1dd586e2E, symObjAddr: 0x30, symBinAddr: 0x4E340, symSize: 0x530 }
  - { offsetInCU: 0x1E, offset: 0x1AADFC, size: 0x8, addend: 0x0, symName: '__ZN40_$LT$F$u20$as$u20$syn..parse..Parser$GT$14__parse_scoped17h0a5cd78b214b533fE', symObjAddr: 0x0, symBinAddr: 0x55B70, symSize: 0xE90 }
  - { offsetInCU: 0x1A67, offset: 0x1AC845, size: 0x8, addend: 0x0, symName: '__ZN4core3ptr100drop_in_place$LT$core..option..Option$LT$alloc..boxed..Box$LT$syn..path..GenericArgument$GT$$GT$$GT$17h81d5ae68dac3e542E', symObjAddr: 0xE90, symBinAddr: 0x56A00, symSize: 0x50 }
  - { offsetInCU: 0x1C36, offset: 0x1ACA14, size: 0x8, addend: 0x0, symName: '__ZN4core3ptr102drop_in_place$LT$syn..punctuated..Punctuated$LT$syn..path..GenericArgument$C$syn..token..Comma$GT$$GT$17hc105d9a0c2ba0082E', symObjAddr: 0xEE0, symBinAddr: 0x56A50, symSize: 0xF0 }
  - { offsetInCU: 0x1F1F, offset: 0x1ACCFD, size: 0x8, addend: 0x0, symName: '__ZN4core3ptr103drop_in_place$LT$core..option..Option$LT$alloc..boxed..Box$LT$syn..generics..TypeParamBound$GT$$GT$$GT$17hf90da6392a4e3d41E', symObjAddr: 0xFD0, symBinAddr: 0x56B40, symSize: 0x50 }
  - { offsetInCU: 0x212C, offset: 0x1ACF0A, size: 0x8, addend: 0x0, symName: '__ZN4core3ptr103drop_in_place$LT$syn..punctuated..Punctuated$LT$syn..generics..GenericParam$C$syn..token..Comma$GT$$GT$17h911e43a7dc8fdff1E', symObjAddr: 0x1020, symBinAddr: 0x56B90, symSize: 0xF0 }
  - { offsetInCU: 0x26C8, offset: 0x1AD4A6, size: 0x8, addend: 0x0, symName: '__ZN4core3ptr104drop_in_place$LT$syn..punctuated..Punctuated$LT$syn..generics..TypeParamBound$C$syn..token..Plus$GT$$GT$17h7ddaaad70512ee37E', symObjAddr: 0x1110, symBinAddr: 0x56C80, symSize: 0x230 }
  - { offsetInCU: 0x2F49, offset: 0x1ADD27, size: 0x8, addend: 0x0, symName: '__ZN4core3ptr34drop_in_place$LT$syn..lit..Lit$GT$17h2e2e13a98dbc9907E', symObjAddr: 0x1340, symBinAddr: 0x56EB0, symSize: 0x110 }
  - { offsetInCU: 0x34A2, offset: 0x1AE280, size: 0x8, addend: 0x0, symName: '__ZN4core3ptr34drop_in_place$LT$syn..pat..Pat$GT$17hec6f59d6862832acE', symObjAddr: 0x1450, symBinAddr: 0x56FC0, symSize: 0xA30 }
  - { offsetInCU: 0x62CD, offset: 0x1B10AB, size: 0x8, addend: 0x0, symName: '__ZN4core3ptr34drop_in_place$LT$syn..ty..Type$GT$17h34d0fb967b9e90dcE', symObjAddr: 0x1E80, symBinAddr: 0x579F0, symSize: 0x5C0 }
  - { offsetInCU: 0x7B03, offset: 0x1B28E1, size: 0x8, addend: 0x0, symName: '__ZN4core3ptr36drop_in_place$LT$syn..expr..Expr$GT$17h187d7b86dfeaeb43E', symObjAddr: 0x2440, symBinAddr: 0x57FB0, symSize: 0x1D10 }
  - { offsetInCU: 0xF81A, offset: 0x1BA5F8, size: 0x8, addend: 0x0, symName: '__ZN4core3ptr36drop_in_place$LT$syn..mac..Macro$GT$17he23e0f3502fe2b80E', symObjAddr: 0x4150, symBinAddr: 0x59CC0, symSize: 0xE0 }
  - { offsetInCU: 0xFB8B, offset: 0x1BA969, size: 0x8, addend: 0x0, symName: '__ZN4core3ptr36drop_in_place$LT$syn..path..Path$GT$17hef30d7983279258eE', symObjAddr: 0x4230, symBinAddr: 0x59DA0, symSize: 0x220 }
  - { offsetInCU: 0x104C0, offset: 0x1BB29E, size: 0x8, addend: 0x0, symName: '__ZN4core3ptr37drop_in_place$LT$syn..stmt..Block$GT$17h94636dfbf4d98dacE', symObjAddr: 0x4450, symBinAddr: 0x59FC0, symSize: 0xD0 }
  - { offsetInCU: 0x10764, offset: 0x1BB542, size: 0x8, addend: 0x0, symName: '__ZN4core3ptr38drop_in_place$LT$syn..expr..Member$GT$17h42589c34bb8285abE', symObjAddr: 0x4520, symBinAddr: 0x5A090, symSize: 0x30 }
  - { offsetInCU: 0x10861, offset: 0x1BB63F, size: 0x8, addend: 0x0, symName: '__ZN4core3ptr39drop_in_place$LT$proc_macro2..Ident$GT$17h85dcc65b6772a923E', symObjAddr: 0x4550, symBinAddr: 0x5A0C0, symSize: 0x30 }
  - { offsetInCU: 0x10A75, offset: 0x1BB853, size: 0x8, addend: 0x0, symName: '__ZN4core3ptr39drop_in_place$LT$syn..buffer..Entry$GT$17h7c2055c03ba775f0E', symObjAddr: 0x4580, symBinAddr: 0x5A0F0, symSize: 0xC0 }
  - { offsetInCU: 0x10D89, offset: 0x1BBB67, size: 0x8, addend: 0x0, symName: '__ZN4core3ptr40drop_in_place$LT$syn..ty..ReturnType$GT$17h3baf2840577fc6efE', symObjAddr: 0x4640, symBinAddr: 0x5A1B0, symSize: 0x50 }
  - { offsetInCU: 0x10EFB, offset: 0x1BBCD9, size: 0x8, addend: 0x0, symName: '__ZN4core3ptr41drop_in_place$LT$syn..expr..ExprConst$GT$17hd61e0a3a79e02810E', symObjAddr: 0x4690, symBinAddr: 0x5A200, symSize: 0x120 }
  - { offsetInCU: 0x113BC, offset: 0x1BC19A, size: 0x8, addend: 0x0, symName: '__ZN4core3ptr44drop_in_place$LT$syn..lifetime..Lifetime$GT$17h02a95ffc84ffd974E', symObjAddr: 0x47B0, symBinAddr: 0x5A320, symSize: 0x30 }
  - { offsetInCU: 0x114B9, offset: 0x1BC297, size: 0x8, addend: 0x0, symName: '__ZN4core3ptr44drop_in_place$LT$syn..parse..ParseBuffer$GT$17h475e5b802a1664f7E', symObjAddr: 0x47E0, symBinAddr: 0x5A350, symSize: 0x70 }
  - { offsetInCU: 0x11853, offset: 0x1BC631, size: 0x8, addend: 0x0, symName: '__ZN4core3ptr45drop_in_place$LT$proc_macro2..TokenStream$GT$17h661e8a5a3640a978E', symObjAddr: 0x4850, symBinAddr: 0x5A3C0, symSize: 0x140 }
  - { offsetInCU: 0x11C84, offset: 0x1BCA62, size: 0x8, addend: 0x0, symName: '__ZN4core3ptr45drop_in_place$LT$syn..buffer..TokenBuffer$GT$17h156ac451abc50370E', symObjAddr: 0x4990, symBinAddr: 0x5A500, symSize: 0xD0 }
  - { offsetInCU: 0x11EEA, offset: 0x1BCCC8, size: 0x8, addend: 0x0, symName: '__ZN4core3ptr45drop_in_place$LT$syn..generics..TypeParam$GT$17hd9ee95d550b3e236E', symObjAddr: 0x4A60, symBinAddr: 0x5A5D0, symSize: 0x1E0 }
  - { offsetInCU: 0x12644, offset: 0x1BD422, size: 0x8, addend: 0x0, symName: '__ZN4core3ptr46drop_in_place$LT$syn..generics..ConstParam$GT$17hb4dcba9e9f309263E', symObjAddr: 0x4C40, symBinAddr: 0x5A7B0, symSize: 0x100 }
  - { offsetInCU: 0x129CC, offset: 0x1BD7AA, size: 0x8, addend: 0x0, symName: '__ZN4core3ptr47drop_in_place$LT$syn..path..GenericArgument$GT$17h8ff7afdf2989254bE', symObjAddr: 0x4D40, symBinAddr: 0x5A8B0, symSize: 0x460 }
  - { offsetInCU: 0x136D5, offset: 0x1BE4B3, size: 0x8, addend: 0x0, symName: '__ZN4core3ptr49drop_in_place$LT$syn..generics..LifetimeParam$GT$17ha4f70bb42723c9c1E', symObjAddr: 0x51A0, symBinAddr: 0x5AD10, symSize: 0xA0 }
  - { offsetInCU: 0x139EF, offset: 0x1BE7CD, size: 0x8, addend: 0x0, symName: '__ZN4core3ptr50drop_in_place$LT$syn..generics..TypeParamBound$GT$17hd7e85b849f628957E', symObjAddr: 0x5240, symBinAddr: 0x5ADB0, symSize: 0xA0 }
  - { offsetInCU: 0x13B56, offset: 0x1BE934, size: 0x8, addend: 0x0, symName: '__ZN4core3ptr58drop_in_place$LT$alloc..vec..Vec$LT$syn..expr..Arm$GT$$GT$17h6bd6c3d1f6387055E', symObjAddr: 0x52E0, symBinAddr: 0x5AE50, symSize: 0xD0 }
  - { offsetInCU: 0x13DE3, offset: 0x1BEBC1, size: 0x8, addend: 0x0, symName: '__ZN4core3ptr59drop_in_place$LT$alloc..boxed..Box$LT$syn..pat..Pat$GT$$GT$17hda655f7a9a4c7219E', symObjAddr: 0x53B0, symBinAddr: 0x5AF20, symSize: 0x50 }
  - { offsetInCU: 0x13F3E, offset: 0x1BED1C, size: 0x8, addend: 0x0, symName: '__ZN4core3ptr59drop_in_place$LT$alloc..boxed..Box$LT$syn..ty..Type$GT$$GT$17h7c46f1a27385755aE', symObjAddr: 0x5400, symBinAddr: 0x5AF70, symSize: 0x50 }
  - { offsetInCU: 0x14099, offset: 0x1BEE77, size: 0x8, addend: 0x0, symName: '__ZN4core3ptr61drop_in_place$LT$alloc..boxed..Box$LT$syn..expr..Expr$GT$$GT$17h0f9eb18f16709c9dE', symObjAddr: 0x5450, symBinAddr: 0x5AFC0, symSize: 0x50 }
  - { offsetInCU: 0x141F4, offset: 0x1BEFD2, size: 0x8, addend: 0x0, symName: '__ZN4core3ptr61drop_in_place$LT$syn..path..ParenthesizedGenericArguments$GT$17h9caa3aea5837eb56E', symObjAddr: 0x54A0, symBinAddr: 0x5B010, symSize: 0x170 }
  - { offsetInCU: 0x147CE, offset: 0x1BF5AC, size: 0x8, addend: 0x0, symName: '__ZN4core3ptr63drop_in_place$LT$alloc..boxed..Box$LT$syn..lit..LitRepr$GT$$GT$17h35a4411a17750418E', symObjAddr: 0x5610, symBinAddr: 0x5B180, symSize: 0x60 }
  - { offsetInCU: 0x14AC3, offset: 0x1BF8A1, size: 0x8, addend: 0x0, symName: '__ZN4core3ptr64drop_in_place$LT$alloc..boxed..Box$LT$syn..pat..FieldPat$GT$$GT$17h51affbaae84ab277E', symObjAddr: 0x5670, symBinAddr: 0x5B1E0, symSize: 0x100 }
  - { offsetInCU: 0x150DE, offset: 0x1BFEBC, size: 0x8, addend: 0x0, symName: '__ZN4core3ptr64drop_in_place$LT$alloc..boxed..Box$LT$syn..ty..BareFnArg$GT$$GT$17ha646ec070779f4a0E', symObjAddr: 0x5770, symBinAddr: 0x5B2E0, symSize: 0xF0 }
  - { offsetInCU: 0x15570, offset: 0x1C034E, size: 0x8, addend: 0x0, symName: '__ZN4core3ptr65drop_in_place$LT$core..option..Option$LT$syn..expr..Label$GT$$GT$17h7470e669be35e9e2E', symObjAddr: 0x5860, symBinAddr: 0x5B3D0, symSize: 0x30 }
  - { offsetInCU: 0x156AB, offset: 0x1C0489, size: 0x8, addend: 0x0, symName: '__ZN4core3ptr66drop_in_place$LT$core..option..Option$LT$syn..pat..PatRest$GT$$GT$17hb47fb34b4c60ff4cE', symObjAddr: 0x5890, symBinAddr: 0x5B400, symSize: 0x70 }
  - { offsetInCU: 0x15901, offset: 0x1C06DF, size: 0x8, addend: 0x0, symName: '__ZN4core3ptr67drop_in_place$LT$alloc..boxed..Box$LT$syn..expr..FieldValue$GT$$GT$17h409ff751c9d10852E', symObjAddr: 0x5900, symBinAddr: 0x5B470, symSize: 0xF0 }
  - { offsetInCU: 0x15D92, offset: 0x1C0B70, size: 0x8, addend: 0x0, symName: '__ZN4core3ptr70drop_in_place$LT$core..option..Option$LT$syn..ty..BareVariadic$GT$$GT$17hd561fe5259fe880fE', symObjAddr: 0x59F0, symBinAddr: 0x5B560, symSize: 0xC0 }
  - { offsetInCU: 0x1621F, offset: 0x1C0FFD, size: 0x8, addend: 0x0, symName: '__ZN4core3ptr72drop_in_place$LT$alloc..boxed..Box$LT$syn..path..GenericArgument$GT$$GT$17h9e1c2fd89a12c330E', symObjAddr: 0x5AB0, symBinAddr: 0x5B620, symSize: 0x2B0 }
  - { offsetInCU: 0x16C0A, offset: 0x1C19E8, size: 0x8, addend: 0x0, symName: '__ZN4core3ptr72drop_in_place$LT$core..option..Option$LT$syn..lifetime..Lifetime$GT$$GT$17h204d66df25055d6bE', symObjAddr: 0x5D60, symBinAddr: 0x5B8D0, symSize: 0x30 }
  - { offsetInCU: 0x16D26, offset: 0x1C1B04, size: 0x8, addend: 0x0, symName: '__ZN4core3ptr73drop_in_place$LT$alloc..boxed..Box$LT$syn..generics..GenericParam$GT$$GT$17hd2636ca4399a3a9fE', symObjAddr: 0x5D90, symBinAddr: 0x5B900, symSize: 0x80 }
  - { offsetInCU: 0x16E9E, offset: 0x1C1C7C, size: 0x8, addend: 0x0, symName: '__ZN4core3ptr75drop_in_place$LT$alloc..boxed..Box$LT$syn..generics..TypeParamBound$GT$$GT$17h2eecd7a4ccb01a6dE', symObjAddr: 0x5E10, symBinAddr: 0x5B980, symSize: 0x160 }
  - { offsetInCU: 0x17464, offset: 0x1C2242, size: 0x8, addend: 0x0, symName: '__ZN4core3ptr86drop_in_place$LT$syn..punctuated..Punctuated$LT$syn..pat..Pat$C$syn..token..Or$GT$$GT$17h0a64ebd164b5dc32E', symObjAddr: 0x5F70, symBinAddr: 0x5BAE0, symSize: 0x120 }
  - { offsetInCU: 0x178AA, offset: 0x1C2688, size: 0x8, addend: 0x0, symName: '__ZN4core3ptr87drop_in_place$LT$core..option..Option$LT$alloc..boxed..Box$LT$syn..pat..Pat$GT$$GT$$GT$17h13222549103f42daE', symObjAddr: 0x6090, symBinAddr: 0x5BC00, symSize: 0x50 }
  - { offsetInCU: 0x17A1C, offset: 0x1C27FA, size: 0x8, addend: 0x0, symName: '__ZN4core3ptr87drop_in_place$LT$core..option..Option$LT$alloc..boxed..Box$LT$syn..ty..Type$GT$$GT$$GT$17h7b50ff63bc2302e5E', symObjAddr: 0x60E0, symBinAddr: 0x5BC50, symSize: 0x50 }
  - { offsetInCU: 0x17B8E, offset: 0x1C296C, size: 0x8, addend: 0x0, symName: '__ZN4core3ptr89drop_in_place$LT$core..option..Option$LT$alloc..boxed..Box$LT$syn..expr..Expr$GT$$GT$$GT$17h57d0a0d85babf42eE', symObjAddr: 0x6130, symBinAddr: 0x5BCA0, symSize: 0x50 }
  - { offsetInCU: 0x17D3E, offset: 0x1C2B1C, size: 0x8, addend: 0x0, symName: '__ZN4core3ptr89drop_in_place$LT$syn..punctuated..Punctuated$LT$syn..pat..Pat$C$syn..token..Comma$GT$$GT$17h95741bc582d9544fE', symObjAddr: 0x6180, symBinAddr: 0x5BCF0, symSize: 0x120 }
  - { offsetInCU: 0x181D9, offset: 0x1C2FB7, size: 0x8, addend: 0x0, symName: '__ZN4core3ptr91drop_in_place$LT$syn..punctuated..Punctuated$LT$syn..expr..Expr$C$syn..token..Comma$GT$$GT$17h2ba0440d00fc17b7E', symObjAddr: 0x62A0, symBinAddr: 0x5BE10, symSize: 0x120 }
  - { offsetInCU: 0x18636, offset: 0x1C3414, size: 0x8, addend: 0x0, symName: '__ZN4core3ptr94drop_in_place$LT$syn..punctuated..Punctuated$LT$syn..pat..FieldPat$C$syn..token..Comma$GT$$GT$17he37c9fd1795d6e36E', symObjAddr: 0x63C0, symBinAddr: 0x5BF30, symSize: 0xF0 }
  - { offsetInCU: 0x18900, offset: 0x1C36DE, size: 0x8, addend: 0x0, symName: '__ZN4core3ptr94drop_in_place$LT$syn..punctuated..Punctuated$LT$syn..ty..BareFnArg$C$syn..token..Comma$GT$$GT$17h818f76d349cdca5cE', symObjAddr: 0x64B0, symBinAddr: 0x5C020, symSize: 0xF0 }
  - { offsetInCU: 0x18BCA, offset: 0x1C39A8, size: 0x8, addend: 0x0, symName: '__ZN4core3ptr96drop_in_place$LT$core..option..Option$LT$alloc..boxed..Box$LT$syn..path..PathSegment$GT$$GT$$GT$17hf46b91b97ce17f95E', symObjAddr: 0x65A0, symBinAddr: 0x5C110, symSize: 0x180 }
  - { offsetInCU: 0x1925B, offset: 0x1C4039, size: 0x8, addend: 0x0, symName: '__ZN4core3ptr97drop_in_place$LT$syn..punctuated..Punctuated$LT$syn..expr..FieldValue$C$syn..token..Comma$GT$$GT$17h60e67521866e947dE', symObjAddr: 0x6720, symBinAddr: 0x5C290, symSize: 0xF0 }
  - { offsetInCU: 0x195A1, offset: 0x1C437F, size: 0x8, addend: 0x0, symName: '__ZN4core3ptr98drop_in_place$LT$syn..punctuated..Punctuated$LT$syn..lifetime..Lifetime$C$syn..token..Plus$GT$$GT$17h9d8806b4a517b3d8E', symObjAddr: 0x6810, symBinAddr: 0x5C380, symSize: 0xC0 }
  - { offsetInCU: 0x1C380, offset: 0x1C715E, size: 0x8, addend: 0x0, symName: '__ZN40_$LT$F$u20$as$u20$syn..parse..Parser$GT$14__parse_scoped17h0a5cd78b214b533fE', symObjAddr: 0x0, symBinAddr: 0x55B70, symSize: 0xE90 }
  - { offsetInCU: 0x23045, offset: 0x1CDE23, size: 0x8, addend: 0x0, symName: '__ZN58_$LT$alloc..string..String$u20$as$u20$core..fmt..Debug$GT$3fmt17h289d966fb42f899aE', symObjAddr: 0x68D0, symBinAddr: 0x5C440, symSize: 0x17 }
  - { offsetInCU: 0x10DB, offset: 0x1D4DB3, size: 0x8, addend: 0x0, symName: '__ZN4core3ptr100drop_in_place$LT$core..option..Option$LT$alloc..boxed..Box$LT$syn..path..GenericArgument$GT$$GT$$GT$17h81d5ae68dac3e542E', symObjAddr: 0x850, symBinAddr: 0x5CBC0, symSize: 0x50 }
  - { offsetInCU: 0x12AA, offset: 0x1D4F82, size: 0x8, addend: 0x0, symName: '__ZN4core3ptr102drop_in_place$LT$syn..punctuated..Punctuated$LT$syn..path..GenericArgument$C$syn..token..Comma$GT$$GT$17hc105d9a0c2ba0082E', symObjAddr: 0x8A0, symBinAddr: 0x5CC10, symSize: 0xF0 }
  - { offsetInCU: 0x1593, offset: 0x1D526B, size: 0x8, addend: 0x0, symName: '__ZN4core3ptr103drop_in_place$LT$core..option..Option$LT$alloc..boxed..Box$LT$syn..generics..TypeParamBound$GT$$GT$$GT$17hf90da6392a4e3d41E', symObjAddr: 0x990, symBinAddr: 0x5CD00, symSize: 0x50 }
  - { offsetInCU: 0x185A, offset: 0x1D5532, size: 0x8, addend: 0x0, symName: '__ZN4core3ptr103drop_in_place$LT$core..option..Option$LT$alloc..boxed..Box$LT$syn..generics..WherePredicate$GT$$GT$$GT$17h5bb545989b436c82E', symObjAddr: 0x9E0, symBinAddr: 0x5CD50, symSize: 0xD0 }
  - { offsetInCU: 0x1BED, offset: 0x1D58C5, size: 0x8, addend: 0x0, symName: '__ZN4core3ptr103drop_in_place$LT$syn..punctuated..Punctuated$LT$syn..generics..GenericParam$C$syn..token..Comma$GT$$GT$17h911e43a7dc8fdff1E', symObjAddr: 0xAB0, symBinAddr: 0x5CE20, symSize: 0xF0 }
  - { offsetInCU: 0x20B0, offset: 0x1D5D88, size: 0x8, addend: 0x0, symName: '__ZN4core3ptr104drop_in_place$LT$syn..punctuated..Punctuated$LT$syn..generics..TypeParamBound$C$syn..token..Plus$GT$$GT$17h7ddaaad70512ee37E', symObjAddr: 0xBA0, symBinAddr: 0x5CF10, symSize: 0x230 }
  - { offsetInCU: 0x28D4, offset: 0x1D65AC, size: 0x8, addend: 0x0, symName: '__ZN4core3ptr105drop_in_place$LT$syn..punctuated..Punctuated$LT$syn..generics..WherePredicate$C$syn..token..Comma$GT$$GT$17had4489413503439aE', symObjAddr: 0xDD0, symBinAddr: 0x5D140, symSize: 0x80 }
  - { offsetInCU: 0x2B39, offset: 0x1D6811, size: 0x8, addend: 0x0, symName: '__ZN4core3ptr34drop_in_place$LT$syn..lit..Lit$GT$17h2e2e13a98dbc9907E', symObjAddr: 0xE50, symBinAddr: 0x5D1C0, symSize: 0x110 }
  - { offsetInCU: 0x3092, offset: 0x1D6D6A, size: 0x8, addend: 0x0, symName: '__ZN4core3ptr34drop_in_place$LT$syn..pat..Pat$GT$17hec6f59d6862832acE', symObjAddr: 0xF60, symBinAddr: 0x5D2D0, symSize: 0xA30 }
  - { offsetInCU: 0x5EBD, offset: 0x1D9B95, size: 0x8, addend: 0x0, symName: '__ZN4core3ptr34drop_in_place$LT$syn..ty..Type$GT$17h34d0fb967b9e90dcE', symObjAddr: 0x1990, symBinAddr: 0x5DD00, symSize: 0x5C0 }
  - { offsetInCU: 0x76F3, offset: 0x1DB3CB, size: 0x8, addend: 0x0, symName: '__ZN4core3ptr36drop_in_place$LT$syn..expr..Expr$GT$17h187d7b86dfeaeb43E', symObjAddr: 0x1F50, symBinAddr: 0x5E2C0, symSize: 0x1D10 }
  - { offsetInCU: 0xF40A, offset: 0x1E30E2, size: 0x8, addend: 0x0, symName: '__ZN4core3ptr36drop_in_place$LT$syn..mac..Macro$GT$17he23e0f3502fe2b80E', symObjAddr: 0x3C60, symBinAddr: 0x5FFD0, symSize: 0xE0 }
  - { offsetInCU: 0xF77B, offset: 0x1E3453, size: 0x8, addend: 0x0, symName: '__ZN4core3ptr36drop_in_place$LT$syn..path..Path$GT$17hef30d7983279258eE', symObjAddr: 0x3D40, symBinAddr: 0x600B0, symSize: 0x220 }
  - { offsetInCU: 0x100B0, offset: 0x1E3D88, size: 0x8, addend: 0x0, symName: '__ZN4core3ptr37drop_in_place$LT$syn..stmt..Block$GT$17h94636dfbf4d98dacE', symObjAddr: 0x3F60, symBinAddr: 0x602D0, symSize: 0xD0 }
  - { offsetInCU: 0x10354, offset: 0x1E402C, size: 0x8, addend: 0x0, symName: '__ZN4core3ptr38drop_in_place$LT$syn..expr..Member$GT$17h42589c34bb8285abE', symObjAddr: 0x4030, symBinAddr: 0x603A0, symSize: 0x30 }
  - { offsetInCU: 0x10451, offset: 0x1E4129, size: 0x8, addend: 0x0, symName: '__ZN4core3ptr39drop_in_place$LT$proc_macro2..Ident$GT$17h85dcc65b6772a923E', symObjAddr: 0x4060, symBinAddr: 0x603D0, symSize: 0x30 }
  - { offsetInCU: 0x1052F, offset: 0x1E4207, size: 0x8, addend: 0x0, symName: '__ZN4core3ptr40drop_in_place$LT$syn..ty..ReturnType$GT$17h3baf2840577fc6efE', symObjAddr: 0x4090, symBinAddr: 0x60400, symSize: 0x50 }
  - { offsetInCU: 0x106A1, offset: 0x1E4379, size: 0x8, addend: 0x0, symName: '__ZN4core3ptr41drop_in_place$LT$syn..expr..ExprConst$GT$17hd61e0a3a79e02810E', symObjAddr: 0x40E0, symBinAddr: 0x60450, symSize: 0x120 }
  - { offsetInCU: 0x10B62, offset: 0x1E483A, size: 0x8, addend: 0x0, symName: '__ZN4core3ptr44drop_in_place$LT$syn..lifetime..Lifetime$GT$17h02a95ffc84ffd974E', symObjAddr: 0x4200, symBinAddr: 0x60570, symSize: 0x30 }
  - { offsetInCU: 0x10D95, offset: 0x1E4A6D, size: 0x8, addend: 0x0, symName: '__ZN4core3ptr45drop_in_place$LT$proc_macro2..TokenStream$GT$17h661e8a5a3640a978E.llvm.109876062977155972', symObjAddr: 0x4230, symBinAddr: 0x605A0, symSize: 0x140 }
  - { offsetInCU: 0x11204, offset: 0x1E4EDC, size: 0x8, addend: 0x0, symName: '__ZN4core3ptr45drop_in_place$LT$syn..generics..TypeParam$GT$17hd9ee95d550b3e236E', symObjAddr: 0x4370, symBinAddr: 0x606E0, symSize: 0x1E0 }
  - { offsetInCU: 0x1195E, offset: 0x1E5636, size: 0x8, addend: 0x0, symName: '__ZN4core3ptr46drop_in_place$LT$syn..generics..ConstParam$GT$17hb4dcba9e9f309263E', symObjAddr: 0x4550, symBinAddr: 0x608C0, symSize: 0x100 }
  - { offsetInCU: 0x11CE6, offset: 0x1E59BE, size: 0x8, addend: 0x0, symName: '__ZN4core3ptr47drop_in_place$LT$syn..path..GenericArgument$GT$17h8ff7afdf2989254bE', symObjAddr: 0x4650, symBinAddr: 0x609C0, symSize: 0x460 }
  - { offsetInCU: 0x129EF, offset: 0x1E66C7, size: 0x8, addend: 0x0, symName: '__ZN4core3ptr49drop_in_place$LT$syn..generics..LifetimeParam$GT$17ha4f70bb42723c9c1E', symObjAddr: 0x4AB0, symBinAddr: 0x60E20, symSize: 0xA0 }
  - { offsetInCU: 0x12D09, offset: 0x1E69E1, size: 0x8, addend: 0x0, symName: '__ZN4core3ptr50drop_in_place$LT$syn..generics..TypeParamBound$GT$17hd7e85b849f628957E', symObjAddr: 0x4B50, symBinAddr: 0x60EC0, symSize: 0xA0 }
  - { offsetInCU: 0x12E70, offset: 0x1E6B48, size: 0x8, addend: 0x0, symName: '__ZN4core3ptr58drop_in_place$LT$alloc..vec..Vec$LT$syn..expr..Arm$GT$$GT$17h6bd6c3d1f6387055E', symObjAddr: 0x4BF0, symBinAddr: 0x60F60, symSize: 0xD0 }
  - { offsetInCU: 0x130FD, offset: 0x1E6DD5, size: 0x8, addend: 0x0, symName: '__ZN4core3ptr59drop_in_place$LT$alloc..boxed..Box$LT$syn..pat..Pat$GT$$GT$17hda655f7a9a4c7219E', symObjAddr: 0x4CC0, symBinAddr: 0x61030, symSize: 0x50 }
  - { offsetInCU: 0x13258, offset: 0x1E6F30, size: 0x8, addend: 0x0, symName: '__ZN4core3ptr59drop_in_place$LT$alloc..boxed..Box$LT$syn..ty..Type$GT$$GT$17h7c46f1a27385755aE', symObjAddr: 0x4D10, symBinAddr: 0x61080, symSize: 0x50 }
  - { offsetInCU: 0x133B3, offset: 0x1E708B, size: 0x8, addend: 0x0, symName: '__ZN4core3ptr61drop_in_place$LT$alloc..boxed..Box$LT$syn..expr..Expr$GT$$GT$17h0f9eb18f16709c9dE', symObjAddr: 0x4D60, symBinAddr: 0x610D0, symSize: 0x50 }
  - { offsetInCU: 0x1350E, offset: 0x1E71E6, size: 0x8, addend: 0x0, symName: '__ZN4core3ptr61drop_in_place$LT$syn..path..ParenthesizedGenericArguments$GT$17h9caa3aea5837eb56E', symObjAddr: 0x4DB0, symBinAddr: 0x61120, symSize: 0x170 }
  - { offsetInCU: 0x13AE8, offset: 0x1E77C0, size: 0x8, addend: 0x0, symName: '__ZN4core3ptr63drop_in_place$LT$alloc..boxed..Box$LT$syn..lit..LitRepr$GT$$GT$17h35a4411a17750418E', symObjAddr: 0x4F20, symBinAddr: 0x61290, symSize: 0x60 }
  - { offsetInCU: 0x13DDD, offset: 0x1E7AB5, size: 0x8, addend: 0x0, symName: '__ZN4core3ptr64drop_in_place$LT$alloc..boxed..Box$LT$syn..pat..FieldPat$GT$$GT$17h51affbaae84ab277E', symObjAddr: 0x4F80, symBinAddr: 0x612F0, symSize: 0x100 }
  - { offsetInCU: 0x143F8, offset: 0x1E80D0, size: 0x8, addend: 0x0, symName: '__ZN4core3ptr64drop_in_place$LT$alloc..boxed..Box$LT$syn..ty..BareFnArg$GT$$GT$17ha646ec070779f4a0E', symObjAddr: 0x5080, symBinAddr: 0x613F0, symSize: 0xF0 }
  - { offsetInCU: 0x1488A, offset: 0x1E8562, size: 0x8, addend: 0x0, symName: '__ZN4core3ptr65drop_in_place$LT$core..option..Option$LT$syn..expr..Label$GT$$GT$17h7470e669be35e9e2E', symObjAddr: 0x5170, symBinAddr: 0x614E0, symSize: 0x30 }
  - { offsetInCU: 0x149C5, offset: 0x1E869D, size: 0x8, addend: 0x0, symName: '__ZN4core3ptr66drop_in_place$LT$core..option..Option$LT$syn..pat..PatRest$GT$$GT$17hb47fb34b4c60ff4cE', symObjAddr: 0x51A0, symBinAddr: 0x61510, symSize: 0x70 }
  - { offsetInCU: 0x14C1B, offset: 0x1E88F3, size: 0x8, addend: 0x0, symName: '__ZN4core3ptr67drop_in_place$LT$alloc..boxed..Box$LT$syn..expr..FieldValue$GT$$GT$17h409ff751c9d10852E', symObjAddr: 0x5210, symBinAddr: 0x61580, symSize: 0xF0 }
  - { offsetInCU: 0x150AC, offset: 0x1E8D84, size: 0x8, addend: 0x0, symName: '__ZN4core3ptr70drop_in_place$LT$core..option..Option$LT$syn..ty..BareVariadic$GT$$GT$17hd561fe5259fe880fE', symObjAddr: 0x5300, symBinAddr: 0x61670, symSize: 0xC0 }
  - { offsetInCU: 0x15539, offset: 0x1E9211, size: 0x8, addend: 0x0, symName: '__ZN4core3ptr72drop_in_place$LT$alloc..boxed..Box$LT$syn..path..GenericArgument$GT$$GT$17h9e1c2fd89a12c330E', symObjAddr: 0x53C0, symBinAddr: 0x61730, symSize: 0x2B0 }
  - { offsetInCU: 0x15F24, offset: 0x1E9BFC, size: 0x8, addend: 0x0, symName: '__ZN4core3ptr72drop_in_place$LT$core..option..Option$LT$syn..lifetime..Lifetime$GT$$GT$17h204d66df25055d6bE', symObjAddr: 0x5670, symBinAddr: 0x619E0, symSize: 0x30 }
  - { offsetInCU: 0x16040, offset: 0x1E9D18, size: 0x8, addend: 0x0, symName: '__ZN4core3ptr73drop_in_place$LT$alloc..boxed..Box$LT$syn..generics..GenericParam$GT$$GT$17hd2636ca4399a3a9fE', symObjAddr: 0x56A0, symBinAddr: 0x61A10, symSize: 0x80 }
  - { offsetInCU: 0x161B8, offset: 0x1E9E90, size: 0x8, addend: 0x0, symName: '__ZN4core3ptr75drop_in_place$LT$alloc..boxed..Box$LT$syn..generics..TypeParamBound$GT$$GT$17h2eecd7a4ccb01a6dE', symObjAddr: 0x5720, symBinAddr: 0x61A90, symSize: 0x160 }
  - { offsetInCU: 0x1677E, offset: 0x1EA456, size: 0x8, addend: 0x0, symName: '__ZN4core3ptr86drop_in_place$LT$syn..punctuated..Punctuated$LT$syn..pat..Pat$C$syn..token..Or$GT$$GT$17h0a64ebd164b5dc32E', symObjAddr: 0x5880, symBinAddr: 0x61BF0, symSize: 0x120 }
  - { offsetInCU: 0x16BC4, offset: 0x1EA89C, size: 0x8, addend: 0x0, symName: '__ZN4core3ptr87drop_in_place$LT$core..option..Option$LT$alloc..boxed..Box$LT$syn..pat..Pat$GT$$GT$$GT$17h13222549103f42daE', symObjAddr: 0x59A0, symBinAddr: 0x61D10, symSize: 0x50 }
  - { offsetInCU: 0x16D36, offset: 0x1EAA0E, size: 0x8, addend: 0x0, symName: '__ZN4core3ptr87drop_in_place$LT$core..option..Option$LT$alloc..boxed..Box$LT$syn..ty..Type$GT$$GT$$GT$17h7b50ff63bc2302e5E', symObjAddr: 0x59F0, symBinAddr: 0x61D60, symSize: 0x50 }
  - { offsetInCU: 0x16EA8, offset: 0x1EAB80, size: 0x8, addend: 0x0, symName: '__ZN4core3ptr89drop_in_place$LT$core..option..Option$LT$alloc..boxed..Box$LT$syn..expr..Expr$GT$$GT$$GT$17h57d0a0d85babf42eE', symObjAddr: 0x5A40, symBinAddr: 0x61DB0, symSize: 0x50 }
  - { offsetInCU: 0x17058, offset: 0x1EAD30, size: 0x8, addend: 0x0, symName: '__ZN4core3ptr89drop_in_place$LT$syn..punctuated..Punctuated$LT$syn..pat..Pat$C$syn..token..Comma$GT$$GT$17h95741bc582d9544fE', symObjAddr: 0x5A90, symBinAddr: 0x61E00, symSize: 0x120 }
  - { offsetInCU: 0x174F3, offset: 0x1EB1CB, size: 0x8, addend: 0x0, symName: '__ZN4core3ptr91drop_in_place$LT$syn..punctuated..Punctuated$LT$syn..expr..Expr$C$syn..token..Comma$GT$$GT$17h2ba0440d00fc17b7E', symObjAddr: 0x5BB0, symBinAddr: 0x61F20, symSize: 0x120 }
  - { offsetInCU: 0x17950, offset: 0x1EB628, size: 0x8, addend: 0x0, symName: '__ZN4core3ptr94drop_in_place$LT$syn..punctuated..Punctuated$LT$syn..pat..FieldPat$C$syn..token..Comma$GT$$GT$17he37c9fd1795d6e36E', symObjAddr: 0x5CD0, symBinAddr: 0x62040, symSize: 0xF0 }
  - { offsetInCU: 0x17C1A, offset: 0x1EB8F2, size: 0x8, addend: 0x0, symName: '__ZN4core3ptr94drop_in_place$LT$syn..punctuated..Punctuated$LT$syn..ty..BareFnArg$C$syn..token..Comma$GT$$GT$17h818f76d349cdca5cE', symObjAddr: 0x5DC0, symBinAddr: 0x62130, symSize: 0xF0 }
  - { offsetInCU: 0x17EE4, offset: 0x1EBBBC, size: 0x8, addend: 0x0, symName: '__ZN4core3ptr96drop_in_place$LT$core..option..Option$LT$alloc..boxed..Box$LT$syn..path..PathSegment$GT$$GT$$GT$17hf46b91b97ce17f95E', symObjAddr: 0x5EB0, symBinAddr: 0x62220, symSize: 0x180 }
  - { offsetInCU: 0x18575, offset: 0x1EC24D, size: 0x8, addend: 0x0, symName: '__ZN4core3ptr97drop_in_place$LT$syn..punctuated..Punctuated$LT$syn..expr..FieldValue$C$syn..token..Comma$GT$$GT$17h60e67521866e947dE', symObjAddr: 0x6030, symBinAddr: 0x623A0, symSize: 0xF0 }
  - { offsetInCU: 0x188BB, offset: 0x1EC593, size: 0x8, addend: 0x0, symName: '__ZN4core3ptr98drop_in_place$LT$syn..punctuated..Punctuated$LT$syn..lifetime..Lifetime$C$syn..token..Plus$GT$$GT$17h9d8806b4a517b3d8E', symObjAddr: 0x6120, symBinAddr: 0x62490, symSize: 0xC0 }
  - { offsetInCU: 0x22A17, offset: 0x1F66EF, size: 0x8, addend: 0x0, symName: __ZN3syn3lit6LitStr10parse_with17hf235b0b172973f7aE, symObjAddr: 0xF0, symBinAddr: 0x5C460, symSize: 0x3A0 }
  - { offsetInCU: 0x23550, offset: 0x1F7228, size: 0x8, addend: 0x0, symName: __ZN3syn3lit6LitStr10parse_with17hf2a79b9d5037a1b4E, symObjAddr: 0x490, symBinAddr: 0x5C800, symSize: 0x3C0 }
  - { offsetInCU: 0x11A8, offset: 0x1FB950, size: 0x8, addend: 0x0, symName: '__ZN4core3ptr94drop_in_place$LT$core..result..Result$LT$core..convert..Infallible$C$syn..error..Error$GT$$GT$17hf0ba975065501de3E.llvm.2855672373762351415', symObjAddr: 0x2C0, symBinAddr: 0x62550, symSize: 0x80 }
  - { offsetInCU: 0x18C3, offset: 0x1FC06B, size: 0x8, addend: 0x0, symName: __ZN4core4iter8adapters11try_process17h03a3e30c9ed9b6c6E, symObjAddr: 0x340, symBinAddr: 0x625D0, symSize: 0x160 }
  - { offsetInCU: 0x1CD2, offset: 0x1FC47A, size: 0x8, addend: 0x0, symName: __ZN4core4iter8adapters11try_process17h0dc0e46867fef3d6E, symObjAddr: 0x4A0, symBinAddr: 0x62730, symSize: 0x160 }
  - { offsetInCU: 0x20E1, offset: 0x1FC889, size: 0x8, addend: 0x0, symName: __ZN4core4iter8adapters11try_process17h19cfff3484983ad5E, symObjAddr: 0x600, symBinAddr: 0x62890, symSize: 0x170 }
  - { offsetInCU: 0x278D, offset: 0x1FCF35, size: 0x8, addend: 0x0, symName: __ZN4core4iter8adapters11try_process17hf4ed93675022d5e0E, symObjAddr: 0x770, symBinAddr: 0x62A00, symSize: 0x185 }
  - { offsetInCU: 0x1E, offset: 0x2064B8, size: 0x8, addend: 0x0, symName: __ZN3syn11parse_quote5parse17h86b780c52b819fb6E, symObjAddr: 0x0, symBinAddr: 0x62B90, symSize: 0x500 }
  - { offsetInCU: 0x192F, offset: 0x207DC9, size: 0x8, addend: 0x0, symName: '__ZN4core3ptr100drop_in_place$LT$core..option..Option$LT$alloc..boxed..Box$LT$syn..path..GenericArgument$GT$$GT$$GT$17h81d5ae68dac3e542E', symObjAddr: 0xA50, symBinAddr: 0x63590, symSize: 0x50 }
  - { offsetInCU: 0x1AFE, offset: 0x207F98, size: 0x8, addend: 0x0, symName: '__ZN4core3ptr102drop_in_place$LT$syn..punctuated..Punctuated$LT$syn..path..GenericArgument$C$syn..token..Comma$GT$$GT$17hc105d9a0c2ba0082E', symObjAddr: 0xAA0, symBinAddr: 0x635E0, symSize: 0xF0 }
  - { offsetInCU: 0x1DE7, offset: 0x208281, size: 0x8, addend: 0x0, symName: '__ZN4core3ptr103drop_in_place$LT$core..option..Option$LT$alloc..boxed..Box$LT$syn..generics..TypeParamBound$GT$$GT$$GT$17hf90da6392a4e3d41E', symObjAddr: 0xB90, symBinAddr: 0x636D0, symSize: 0x50 }
  - { offsetInCU: 0x1FF4, offset: 0x20848E, size: 0x8, addend: 0x0, symName: '__ZN4core3ptr103drop_in_place$LT$syn..punctuated..Punctuated$LT$syn..generics..GenericParam$C$syn..token..Comma$GT$$GT$17h911e43a7dc8fdff1E', symObjAddr: 0xBE0, symBinAddr: 0x63720, symSize: 0xF0 }
  - { offsetInCU: 0x2590, offset: 0x208A2A, size: 0x8, addend: 0x0, symName: '__ZN4core3ptr104drop_in_place$LT$syn..punctuated..Punctuated$LT$syn..generics..TypeParamBound$C$syn..token..Plus$GT$$GT$17h7ddaaad70512ee37E', symObjAddr: 0xCD0, symBinAddr: 0x63810, symSize: 0x230 }
  - { offsetInCU: 0x2E6E, offset: 0x209308, size: 0x8, addend: 0x0, symName: '__ZN4core3ptr34drop_in_place$LT$syn..lit..Lit$GT$17h2e2e13a98dbc9907E', symObjAddr: 0xF00, symBinAddr: 0x63A40, symSize: 0x110 }
  - { offsetInCU: 0x33C7, offset: 0x209861, size: 0x8, addend: 0x0, symName: '__ZN4core3ptr34drop_in_place$LT$syn..pat..Pat$GT$17hec6f59d6862832acE', symObjAddr: 0x1010, symBinAddr: 0x63B50, symSize: 0xA30 }
  - { offsetInCU: 0x61F2, offset: 0x20C68C, size: 0x8, addend: 0x0, symName: '__ZN4core3ptr34drop_in_place$LT$syn..ty..Type$GT$17h34d0fb967b9e90dcE', symObjAddr: 0x1A40, symBinAddr: 0x64580, symSize: 0x5C0 }
  - { offsetInCU: 0x7A28, offset: 0x20DEC2, size: 0x8, addend: 0x0, symName: '__ZN4core3ptr36drop_in_place$LT$syn..expr..Expr$GT$17h187d7b86dfeaeb43E', symObjAddr: 0x2000, symBinAddr: 0x64B40, symSize: 0x1D10 }
  - { offsetInCU: 0xF73F, offset: 0x215BD9, size: 0x8, addend: 0x0, symName: '__ZN4core3ptr36drop_in_place$LT$syn..mac..Macro$GT$17he23e0f3502fe2b80E', symObjAddr: 0x3D10, symBinAddr: 0x66850, symSize: 0xE0 }
  - { offsetInCU: 0xFAB0, offset: 0x215F4A, size: 0x8, addend: 0x0, symName: '__ZN4core3ptr36drop_in_place$LT$syn..path..Path$GT$17hef30d7983279258eE', symObjAddr: 0x3DF0, symBinAddr: 0x66930, symSize: 0x220 }
  - { offsetInCU: 0x103E5, offset: 0x21687F, size: 0x8, addend: 0x0, symName: '__ZN4core3ptr37drop_in_place$LT$syn..stmt..Block$GT$17h94636dfbf4d98dacE', symObjAddr: 0x4010, symBinAddr: 0x66B50, symSize: 0xD0 }
  - { offsetInCU: 0x106C7, offset: 0x216B61, size: 0x8, addend: 0x0, symName: '__ZN4core3ptr38drop_in_place$LT$syn..error..Error$GT$17hf620798e4687ca19E', symObjAddr: 0x40E0, symBinAddr: 0x66C20, symSize: 0x80 }
  - { offsetInCU: 0x10998, offset: 0x216E32, size: 0x8, addend: 0x0, symName: '__ZN4core3ptr38drop_in_place$LT$syn..expr..Member$GT$17h42589c34bb8285abE', symObjAddr: 0x4160, symBinAddr: 0x66CA0, symSize: 0x30 }
  - { offsetInCU: 0x10A95, offset: 0x216F2F, size: 0x8, addend: 0x0, symName: '__ZN4core3ptr39drop_in_place$LT$proc_macro2..Ident$GT$17h85dcc65b6772a923E', symObjAddr: 0x4190, symBinAddr: 0x66CD0, symSize: 0x30 }
  - { offsetInCU: 0x10CA9, offset: 0x217143, size: 0x8, addend: 0x0, symName: '__ZN4core3ptr39drop_in_place$LT$syn..buffer..Entry$GT$17h7c2055c03ba775f0E', symObjAddr: 0x41C0, symBinAddr: 0x66D00, symSize: 0xC0 }
  - { offsetInCU: 0x10FBD, offset: 0x217457, size: 0x8, addend: 0x0, symName: '__ZN4core3ptr40drop_in_place$LT$syn..ty..ReturnType$GT$17h3baf2840577fc6efE', symObjAddr: 0x4280, symBinAddr: 0x66DC0, symSize: 0x50 }
  - { offsetInCU: 0x1112F, offset: 0x2175C9, size: 0x8, addend: 0x0, symName: '__ZN4core3ptr41drop_in_place$LT$syn..expr..ExprConst$GT$17hd61e0a3a79e02810E', symObjAddr: 0x42D0, symBinAddr: 0x66E10, symSize: 0x120 }
  - { offsetInCU: 0x115F0, offset: 0x217A8A, size: 0x8, addend: 0x0, symName: '__ZN4core3ptr44drop_in_place$LT$syn..lifetime..Lifetime$GT$17h02a95ffc84ffd974E', symObjAddr: 0x43F0, symBinAddr: 0x66F30, symSize: 0x30 }
  - { offsetInCU: 0x116ED, offset: 0x217B87, size: 0x8, addend: 0x0, symName: '__ZN4core3ptr44drop_in_place$LT$syn..parse..ParseBuffer$GT$17h475e5b802a1664f7E', symObjAddr: 0x4420, symBinAddr: 0x66F60, symSize: 0x70 }
  - { offsetInCU: 0x11A87, offset: 0x217F21, size: 0x8, addend: 0x0, symName: '__ZN4core3ptr45drop_in_place$LT$proc_macro2..TokenStream$GT$17h661e8a5a3640a978E', symObjAddr: 0x4490, symBinAddr: 0x66FD0, symSize: 0x140 }
  - { offsetInCU: 0x11EB8, offset: 0x218352, size: 0x8, addend: 0x0, symName: '__ZN4core3ptr45drop_in_place$LT$syn..buffer..TokenBuffer$GT$17h156ac451abc50370E', symObjAddr: 0x45D0, symBinAddr: 0x67110, symSize: 0xD0 }
  - { offsetInCU: 0x1211E, offset: 0x2185B8, size: 0x8, addend: 0x0, symName: '__ZN4core3ptr45drop_in_place$LT$syn..generics..TypeParam$GT$17hd9ee95d550b3e236E', symObjAddr: 0x46A0, symBinAddr: 0x671E0, symSize: 0x1E0 }
  - { offsetInCU: 0x12878, offset: 0x218D12, size: 0x8, addend: 0x0, symName: '__ZN4core3ptr46drop_in_place$LT$syn..generics..ConstParam$GT$17hb4dcba9e9f309263E', symObjAddr: 0x4880, symBinAddr: 0x673C0, symSize: 0x100 }
  - { offsetInCU: 0x12C00, offset: 0x21909A, size: 0x8, addend: 0x0, symName: '__ZN4core3ptr47drop_in_place$LT$syn..path..GenericArgument$GT$17h8ff7afdf2989254bE', symObjAddr: 0x4980, symBinAddr: 0x674C0, symSize: 0x460 }
  - { offsetInCU: 0x13909, offset: 0x219DA3, size: 0x8, addend: 0x0, symName: '__ZN4core3ptr49drop_in_place$LT$syn..generics..LifetimeParam$GT$17ha4f70bb42723c9c1E', symObjAddr: 0x4DE0, symBinAddr: 0x67920, symSize: 0xA0 }
  - { offsetInCU: 0x13C23, offset: 0x21A0BD, size: 0x8, addend: 0x0, symName: '__ZN4core3ptr50drop_in_place$LT$syn..generics..TypeParamBound$GT$17hd7e85b849f628957E', symObjAddr: 0x4E80, symBinAddr: 0x679C0, symSize: 0xA0 }
  - { offsetInCU: 0x13DC8, offset: 0x21A262, size: 0x8, addend: 0x0, symName: '__ZN4core3ptr50drop_in_place$LT$syn..generics..WherePredicate$GT$17hfe08fbdb36951fecE', symObjAddr: 0x4F20, symBinAddr: 0x67A60, symSize: 0xA0 }
  - { offsetInCU: 0x13F69, offset: 0x21A403, size: 0x8, addend: 0x0, symName: '__ZN4core3ptr58drop_in_place$LT$alloc..vec..Vec$LT$syn..expr..Arm$GT$$GT$17h6bd6c3d1f6387055E', symObjAddr: 0x4FC0, symBinAddr: 0x67B00, symSize: 0xD0 }
  - { offsetInCU: 0x141F6, offset: 0x21A690, size: 0x8, addend: 0x0, symName: '__ZN4core3ptr59drop_in_place$LT$alloc..boxed..Box$LT$syn..pat..Pat$GT$$GT$17hda655f7a9a4c7219E', symObjAddr: 0x5090, symBinAddr: 0x67BD0, symSize: 0x50 }
  - { offsetInCU: 0x14351, offset: 0x21A7EB, size: 0x8, addend: 0x0, symName: '__ZN4core3ptr59drop_in_place$LT$alloc..boxed..Box$LT$syn..ty..Type$GT$$GT$17h7c46f1a27385755aE', symObjAddr: 0x50E0, symBinAddr: 0x67C20, symSize: 0x50 }
  - { offsetInCU: 0x144AC, offset: 0x21A946, size: 0x8, addend: 0x0, symName: '__ZN4core3ptr61drop_in_place$LT$alloc..boxed..Box$LT$syn..expr..Expr$GT$$GT$17h0f9eb18f16709c9dE', symObjAddr: 0x5130, symBinAddr: 0x67C70, symSize: 0x50 }
  - { offsetInCU: 0x14607, offset: 0x21AAA1, size: 0x8, addend: 0x0, symName: '__ZN4core3ptr61drop_in_place$LT$syn..path..ParenthesizedGenericArguments$GT$17h9caa3aea5837eb56E', symObjAddr: 0x5180, symBinAddr: 0x67CC0, symSize: 0x170 }
  - { offsetInCU: 0x14BE1, offset: 0x21B07B, size: 0x8, addend: 0x0, symName: '__ZN4core3ptr63drop_in_place$LT$alloc..boxed..Box$LT$syn..lit..LitRepr$GT$$GT$17h35a4411a17750418E', symObjAddr: 0x52F0, symBinAddr: 0x67E30, symSize: 0x60 }
  - { offsetInCU: 0x14ED6, offset: 0x21B370, size: 0x8, addend: 0x0, symName: '__ZN4core3ptr64drop_in_place$LT$alloc..boxed..Box$LT$syn..pat..FieldPat$GT$$GT$17h51affbaae84ab277E', symObjAddr: 0x5350, symBinAddr: 0x67E90, symSize: 0x100 }
  - { offsetInCU: 0x154F1, offset: 0x21B98B, size: 0x8, addend: 0x0, symName: '__ZN4core3ptr64drop_in_place$LT$alloc..boxed..Box$LT$syn..ty..BareFnArg$GT$$GT$17ha646ec070779f4a0E', symObjAddr: 0x5450, symBinAddr: 0x67F90, symSize: 0xF0 }
  - { offsetInCU: 0x15983, offset: 0x21BE1D, size: 0x8, addend: 0x0, symName: '__ZN4core3ptr65drop_in_place$LT$core..option..Option$LT$syn..expr..Label$GT$$GT$17h7470e669be35e9e2E', symObjAddr: 0x5540, symBinAddr: 0x68080, symSize: 0x30 }
  - { offsetInCU: 0x15ABE, offset: 0x21BF58, size: 0x8, addend: 0x0, symName: '__ZN4core3ptr66drop_in_place$LT$core..option..Option$LT$syn..pat..PatRest$GT$$GT$17hb47fb34b4c60ff4cE', symObjAddr: 0x5570, symBinAddr: 0x680B0, symSize: 0x70 }
  - { offsetInCU: 0x15D14, offset: 0x21C1AE, size: 0x8, addend: 0x0, symName: '__ZN4core3ptr67drop_in_place$LT$alloc..boxed..Box$LT$syn..expr..FieldValue$GT$$GT$17h409ff751c9d10852E', symObjAddr: 0x55E0, symBinAddr: 0x68120, symSize: 0xF0 }
  - { offsetInCU: 0x161A5, offset: 0x21C63F, size: 0x8, addend: 0x0, symName: '__ZN4core3ptr70drop_in_place$LT$core..option..Option$LT$syn..ty..BareVariadic$GT$$GT$17hd561fe5259fe880fE', symObjAddr: 0x56D0, symBinAddr: 0x68210, symSize: 0xC0 }
  - { offsetInCU: 0x16632, offset: 0x21CACC, size: 0x8, addend: 0x0, symName: '__ZN4core3ptr72drop_in_place$LT$alloc..boxed..Box$LT$syn..path..GenericArgument$GT$$GT$17h9e1c2fd89a12c330E', symObjAddr: 0x5790, symBinAddr: 0x682D0, symSize: 0x2B0 }
  - { offsetInCU: 0x1701D, offset: 0x21D4B7, size: 0x8, addend: 0x0, symName: '__ZN4core3ptr72drop_in_place$LT$core..option..Option$LT$syn..lifetime..Lifetime$GT$$GT$17h204d66df25055d6bE', symObjAddr: 0x5A40, symBinAddr: 0x68580, symSize: 0x30 }
  - { offsetInCU: 0x17139, offset: 0x21D5D3, size: 0x8, addend: 0x0, symName: '__ZN4core3ptr73drop_in_place$LT$alloc..boxed..Box$LT$syn..generics..GenericParam$GT$$GT$17hd2636ca4399a3a9fE', symObjAddr: 0x5A70, symBinAddr: 0x685B0, symSize: 0x80 }
  - { offsetInCU: 0x172B1, offset: 0x21D74B, size: 0x8, addend: 0x0, symName: '__ZN4core3ptr75drop_in_place$LT$alloc..boxed..Box$LT$syn..generics..TypeParamBound$GT$$GT$17h2eecd7a4ccb01a6dE', symObjAddr: 0x5AF0, symBinAddr: 0x68630, symSize: 0x160 }
  - { offsetInCU: 0x17877, offset: 0x21DD11, size: 0x8, addend: 0x0, symName: '__ZN4core3ptr86drop_in_place$LT$syn..punctuated..Punctuated$LT$syn..pat..Pat$C$syn..token..Or$GT$$GT$17h0a64ebd164b5dc32E', symObjAddr: 0x5C50, symBinAddr: 0x68790, symSize: 0x120 }
  - { offsetInCU: 0x17CBD, offset: 0x21E157, size: 0x8, addend: 0x0, symName: '__ZN4core3ptr87drop_in_place$LT$core..option..Option$LT$alloc..boxed..Box$LT$syn..pat..Pat$GT$$GT$$GT$17h13222549103f42daE', symObjAddr: 0x5D70, symBinAddr: 0x688B0, symSize: 0x50 }
  - { offsetInCU: 0x17E2F, offset: 0x21E2C9, size: 0x8, addend: 0x0, symName: '__ZN4core3ptr87drop_in_place$LT$core..option..Option$LT$alloc..boxed..Box$LT$syn..ty..Type$GT$$GT$$GT$17h7b50ff63bc2302e5E', symObjAddr: 0x5DC0, symBinAddr: 0x68900, symSize: 0x50 }
  - { offsetInCU: 0x17FA1, offset: 0x21E43B, size: 0x8, addend: 0x0, symName: '__ZN4core3ptr89drop_in_place$LT$core..option..Option$LT$alloc..boxed..Box$LT$syn..expr..Expr$GT$$GT$$GT$17h57d0a0d85babf42eE', symObjAddr: 0x5E10, symBinAddr: 0x68950, symSize: 0x50 }
  - { offsetInCU: 0x18151, offset: 0x21E5EB, size: 0x8, addend: 0x0, symName: '__ZN4core3ptr89drop_in_place$LT$syn..punctuated..Punctuated$LT$syn..pat..Pat$C$syn..token..Comma$GT$$GT$17h95741bc582d9544fE', symObjAddr: 0x5E60, symBinAddr: 0x689A0, symSize: 0x120 }
  - { offsetInCU: 0x185EC, offset: 0x21EA86, size: 0x8, addend: 0x0, symName: '__ZN4core3ptr91drop_in_place$LT$syn..punctuated..Punctuated$LT$syn..expr..Expr$C$syn..token..Comma$GT$$GT$17h2ba0440d00fc17b7E', symObjAddr: 0x5F80, symBinAddr: 0x68AC0, symSize: 0x120 }
  - { offsetInCU: 0x18A49, offset: 0x21EEE3, size: 0x8, addend: 0x0, symName: '__ZN4core3ptr94drop_in_place$LT$syn..punctuated..Punctuated$LT$syn..pat..FieldPat$C$syn..token..Comma$GT$$GT$17he37c9fd1795d6e36E', symObjAddr: 0x60A0, symBinAddr: 0x68BE0, symSize: 0xF0 }
  - { offsetInCU: 0x18D13, offset: 0x21F1AD, size: 0x8, addend: 0x0, symName: '__ZN4core3ptr94drop_in_place$LT$syn..punctuated..Punctuated$LT$syn..ty..BareFnArg$C$syn..token..Comma$GT$$GT$17h818f76d349cdca5cE', symObjAddr: 0x6190, symBinAddr: 0x68CD0, symSize: 0xF0 }
  - { offsetInCU: 0x18FDD, offset: 0x21F477, size: 0x8, addend: 0x0, symName: '__ZN4core3ptr96drop_in_place$LT$core..option..Option$LT$alloc..boxed..Box$LT$syn..path..PathSegment$GT$$GT$$GT$17hf46b91b97ce17f95E', symObjAddr: 0x6280, symBinAddr: 0x68DC0, symSize: 0x180 }
  - { offsetInCU: 0x1966E, offset: 0x21FB08, size: 0x8, addend: 0x0, symName: '__ZN4core3ptr97drop_in_place$LT$syn..punctuated..Punctuated$LT$syn..expr..FieldValue$C$syn..token..Comma$GT$$GT$17h60e67521866e947dE', symObjAddr: 0x6400, symBinAddr: 0x68F40, symSize: 0xF0 }
  - { offsetInCU: 0x199B4, offset: 0x21FE4E, size: 0x8, addend: 0x0, symName: '__ZN4core3ptr98drop_in_place$LT$syn..punctuated..Punctuated$LT$syn..lifetime..Lifetime$C$syn..token..Plus$GT$$GT$17h9d8806b4a517b3d8E', symObjAddr: 0x64F0, symBinAddr: 0x69030, symSize: 0xB1 }
  - { offsetInCU: 0x20A56, offset: 0x226EF0, size: 0x8, addend: 0x0, symName: __ZN3syn11parse_quote5parse17h86b780c52b819fb6E, symObjAddr: 0x0, symBinAddr: 0x62B90, symSize: 0x500 }
  - { offsetInCU: 0x214BB, offset: 0x227955, size: 0x8, addend: 0x0, symName: __ZN3syn11parse_quote5parse17h9cc1c5b87ed60552E, symObjAddr: 0x500, symBinAddr: 0x63090, symSize: 0x500 }
  - { offsetInCU: 0x21F0F, offset: 0x2283A9, size: 0x8, addend: 0x0, symName: __ZN3syn11parse_quote5parse18panic_cold_display17h29d3efd1d86ebe1dE, symObjAddr: 0xA00, symBinAddr: 0x22EE40, symSize: 0x50 }
  - { offsetInCU: 0x1E, offset: 0x22D8F4, size: 0x8, addend: 0x0, symName: __ZN3std9panicking3try17h16be46b30fd9fda5E, symObjAddr: 0x0, symBinAddr: 0x690F0, symSize: 0x390 }
  - { offsetInCU: 0xD0E, offset: 0x22E5E4, size: 0x8, addend: 0x0, symName: __ZN3std9panicking3try17h16be46b30fd9fda5E, symObjAddr: 0x0, symBinAddr: 0x690F0, symSize: 0x390 }
  - { offsetInCU: 0x13BF, offset: 0x22EC95, size: 0x8, addend: 0x0, symName: __ZN3std9panicking3try17h2d7d12944e8be627E, symObjAddr: 0x430, symBinAddr: 0x69480, symSize: 0x390 }
  - { offsetInCU: 0x1A70, offset: 0x22F346, size: 0x8, addend: 0x0, symName: __ZN3std9panicking3try17h4b177544028a307dE, symObjAddr: 0x7C0, symBinAddr: 0x69810, symSize: 0x390 }
  - { offsetInCU: 0x2121, offset: 0x22F9F7, size: 0x8, addend: 0x0, symName: __ZN3std9panicking3try17h57fd1da8346c4b31E, symObjAddr: 0xB50, symBinAddr: 0x69BA0, symSize: 0x390 }
  - { offsetInCU: 0x27D2, offset: 0x2300A8, size: 0x8, addend: 0x0, symName: __ZN3std9panicking3try17h64aa4c221b1b2b63E, symObjAddr: 0xEE0, symBinAddr: 0x69F30, symSize: 0x390 }
  - { offsetInCU: 0x2E83, offset: 0x230759, size: 0x8, addend: 0x0, symName: __ZN3std9panicking3try17ha3887bfbb3fc6875E, symObjAddr: 0x1270, symBinAddr: 0x6A2C0, symSize: 0x390 }
  - { offsetInCU: 0x3534, offset: 0x230E0A, size: 0x8, addend: 0x0, symName: __ZN3std9panicking3try17hb4a1a7af523795a4E, symObjAddr: 0x1600, symBinAddr: 0x6A650, symSize: 0x390 }
  - { offsetInCU: 0x3BE5, offset: 0x2314BB, size: 0x8, addend: 0x0, symName: __ZN3std9panicking3try17he8b11d458a92b882E, symObjAddr: 0x1990, symBinAddr: 0x6A9E0, symSize: 0x390 }
  - { offsetInCU: 0x4296, offset: 0x231B6C, size: 0x8, addend: 0x0, symName: __ZN3std9panicking3try17hec9759ce0bba2b2bE, symObjAddr: 0x1D20, symBinAddr: 0x6AD70, symSize: 0x390 }
  - { offsetInCU: 0x5985, offset: 0x23325B, size: 0x8, addend: 0x0, symName: '__ZN4core3ptr52drop_in_place$LT$std..thread..local..AccessError$GT$17h72309dfa3e365f2dE', symObjAddr: 0x20B0, symBinAddr: 0x6B100, symSize: 0x6 }
  - { offsetInCU: 0x149F, offset: 0x2370BC, size: 0x8, addend: 0x0, symName: '__ZN4core3ptr100drop_in_place$LT$core..option..Option$LT$alloc..boxed..Box$LT$syn..path..GenericArgument$GT$$GT$$GT$17h81d5ae68dac3e542E', symObjAddr: 0xA0, symBinAddr: 0x6B110, symSize: 0x50 }
  - { offsetInCU: 0x166E, offset: 0x23728B, size: 0x8, addend: 0x0, symName: '__ZN4core3ptr102drop_in_place$LT$syn..punctuated..Punctuated$LT$syn..path..GenericArgument$C$syn..token..Comma$GT$$GT$17hc105d9a0c2ba0082E', symObjAddr: 0xF0, symBinAddr: 0x6B160, symSize: 0xF0 }
  - { offsetInCU: 0x1957, offset: 0x237574, size: 0x8, addend: 0x0, symName: '__ZN4core3ptr103drop_in_place$LT$core..option..Option$LT$alloc..boxed..Box$LT$syn..generics..TypeParamBound$GT$$GT$$GT$17hf90da6392a4e3d41E', symObjAddr: 0x1E0, symBinAddr: 0x6B250, symSize: 0x50 }
  - { offsetInCU: 0x1B64, offset: 0x237781, size: 0x8, addend: 0x0, symName: '__ZN4core3ptr103drop_in_place$LT$syn..punctuated..Punctuated$LT$syn..generics..GenericParam$C$syn..token..Comma$GT$$GT$17h911e43a7dc8fdff1E', symObjAddr: 0x230, symBinAddr: 0x6B2A0, symSize: 0xF0 }
  - { offsetInCU: 0x2100, offset: 0x237D1D, size: 0x8, addend: 0x0, symName: '__ZN4core3ptr104drop_in_place$LT$syn..punctuated..Punctuated$LT$syn..generics..TypeParamBound$C$syn..token..Plus$GT$$GT$17h7ddaaad70512ee37E', symObjAddr: 0x320, symBinAddr: 0x6B390, symSize: 0x230 }
  - { offsetInCU: 0x29DE, offset: 0x2385FB, size: 0x8, addend: 0x0, symName: '__ZN4core3ptr34drop_in_place$LT$syn..lit..Lit$GT$17h2e2e13a98dbc9907E', symObjAddr: 0x550, symBinAddr: 0x6B5C0, symSize: 0x110 }
  - { offsetInCU: 0x2F37, offset: 0x238B54, size: 0x8, addend: 0x0, symName: '__ZN4core3ptr34drop_in_place$LT$syn..pat..Pat$GT$17hec6f59d6862832acE', symObjAddr: 0x660, symBinAddr: 0x6B6D0, symSize: 0xA30 }
  - { offsetInCU: 0x5D62, offset: 0x23B97F, size: 0x8, addend: 0x0, symName: '__ZN4core3ptr34drop_in_place$LT$syn..ty..Type$GT$17h34d0fb967b9e90dcE', symObjAddr: 0x1090, symBinAddr: 0x6C100, symSize: 0x5C0 }
  - { offsetInCU: 0x7598, offset: 0x23D1B5, size: 0x8, addend: 0x0, symName: '__ZN4core3ptr36drop_in_place$LT$syn..expr..Expr$GT$17h187d7b86dfeaeb43E', symObjAddr: 0x1650, symBinAddr: 0x6C6C0, symSize: 0x1D10 }
  - { offsetInCU: 0xF2AF, offset: 0x244ECC, size: 0x8, addend: 0x0, symName: '__ZN4core3ptr36drop_in_place$LT$syn..mac..Macro$GT$17he23e0f3502fe2b80E', symObjAddr: 0x3360, symBinAddr: 0x6E3D0, symSize: 0xE0 }
  - { offsetInCU: 0xF620, offset: 0x24523D, size: 0x8, addend: 0x0, symName: '__ZN4core3ptr36drop_in_place$LT$syn..path..Path$GT$17hef30d7983279258eE.llvm.270550884274407498', symObjAddr: 0x3440, symBinAddr: 0x6E4B0, symSize: 0x220 }
  - { offsetInCU: 0xFF55, offset: 0x245B72, size: 0x8, addend: 0x0, symName: '__ZN4core3ptr37drop_in_place$LT$syn..stmt..Block$GT$17h94636dfbf4d98dacE', symObjAddr: 0x3660, symBinAddr: 0x6E6D0, symSize: 0xD0 }
  - { offsetInCU: 0x101F9, offset: 0x245E16, size: 0x8, addend: 0x0, symName: '__ZN4core3ptr38drop_in_place$LT$syn..expr..Member$GT$17h42589c34bb8285abE', symObjAddr: 0x3730, symBinAddr: 0x6E7A0, symSize: 0x30 }
  - { offsetInCU: 0x102F6, offset: 0x245F13, size: 0x8, addend: 0x0, symName: '__ZN4core3ptr39drop_in_place$LT$proc_macro2..Ident$GT$17h85dcc65b6772a923E', symObjAddr: 0x3760, symBinAddr: 0x6E7D0, symSize: 0x30 }
  - { offsetInCU: 0x103D4, offset: 0x245FF1, size: 0x8, addend: 0x0, symName: '__ZN4core3ptr40drop_in_place$LT$syn..ty..ReturnType$GT$17h3baf2840577fc6efE', symObjAddr: 0x3790, symBinAddr: 0x6E800, symSize: 0x50 }
  - { offsetInCU: 0x10546, offset: 0x246163, size: 0x8, addend: 0x0, symName: '__ZN4core3ptr41drop_in_place$LT$syn..expr..ExprConst$GT$17hd61e0a3a79e02810E', symObjAddr: 0x37E0, symBinAddr: 0x6E850, symSize: 0x120 }
  - { offsetInCU: 0x10A07, offset: 0x246624, size: 0x8, addend: 0x0, symName: '__ZN4core3ptr44drop_in_place$LT$syn..lifetime..Lifetime$GT$17h02a95ffc84ffd974E', symObjAddr: 0x3900, symBinAddr: 0x6E970, symSize: 0x30 }
  - { offsetInCU: 0x10C3A, offset: 0x246857, size: 0x8, addend: 0x0, symName: '__ZN4core3ptr45drop_in_place$LT$proc_macro2..TokenStream$GT$17h661e8a5a3640a978E.llvm.270550884274407498', symObjAddr: 0x3930, symBinAddr: 0x6E9A0, symSize: 0x140 }
  - { offsetInCU: 0x110A9, offset: 0x246CC6, size: 0x8, addend: 0x0, symName: '__ZN4core3ptr45drop_in_place$LT$syn..generics..TypeParam$GT$17hd9ee95d550b3e236E', symObjAddr: 0x3A70, symBinAddr: 0x6EAE0, symSize: 0x1E0 }
  - { offsetInCU: 0x11803, offset: 0x247420, size: 0x8, addend: 0x0, symName: '__ZN4core3ptr46drop_in_place$LT$syn..generics..ConstParam$GT$17hb4dcba9e9f309263E', symObjAddr: 0x3C50, symBinAddr: 0x6ECC0, symSize: 0x100 }
  - { offsetInCU: 0x11B8B, offset: 0x2477A8, size: 0x8, addend: 0x0, symName: '__ZN4core3ptr47drop_in_place$LT$syn..path..GenericArgument$GT$17h8ff7afdf2989254bE', symObjAddr: 0x3D50, symBinAddr: 0x6EDC0, symSize: 0x460 }
  - { offsetInCU: 0x12894, offset: 0x2484B1, size: 0x8, addend: 0x0, symName: '__ZN4core3ptr49drop_in_place$LT$syn..generics..LifetimeParam$GT$17ha4f70bb42723c9c1E', symObjAddr: 0x41B0, symBinAddr: 0x6F220, symSize: 0xA0 }
  - { offsetInCU: 0x12BAE, offset: 0x2487CB, size: 0x8, addend: 0x0, symName: '__ZN4core3ptr50drop_in_place$LT$syn..generics..TypeParamBound$GT$17hd7e85b849f628957E', symObjAddr: 0x4250, symBinAddr: 0x6F2C0, symSize: 0xA0 }
  - { offsetInCU: 0x12D15, offset: 0x248932, size: 0x8, addend: 0x0, symName: '__ZN4core3ptr58drop_in_place$LT$alloc..vec..Vec$LT$syn..expr..Arm$GT$$GT$17h6bd6c3d1f6387055E', symObjAddr: 0x42F0, symBinAddr: 0x6F360, symSize: 0xD0 }
  - { offsetInCU: 0x12FA2, offset: 0x248BBF, size: 0x8, addend: 0x0, symName: '__ZN4core3ptr59drop_in_place$LT$alloc..boxed..Box$LT$syn..pat..Pat$GT$$GT$17hda655f7a9a4c7219E', symObjAddr: 0x43C0, symBinAddr: 0x6F430, symSize: 0x50 }
  - { offsetInCU: 0x130FD, offset: 0x248D1A, size: 0x8, addend: 0x0, symName: '__ZN4core3ptr59drop_in_place$LT$alloc..boxed..Box$LT$syn..ty..Type$GT$$GT$17h7c46f1a27385755aE', symObjAddr: 0x4410, symBinAddr: 0x6F480, symSize: 0x50 }
  - { offsetInCU: 0x13258, offset: 0x248E75, size: 0x8, addend: 0x0, symName: '__ZN4core3ptr61drop_in_place$LT$alloc..boxed..Box$LT$syn..expr..Expr$GT$$GT$17h0f9eb18f16709c9dE', symObjAddr: 0x4460, symBinAddr: 0x6F4D0, symSize: 0x50 }
  - { offsetInCU: 0x133B3, offset: 0x248FD0, size: 0x8, addend: 0x0, symName: '__ZN4core3ptr61drop_in_place$LT$syn..path..ParenthesizedGenericArguments$GT$17h9caa3aea5837eb56E', symObjAddr: 0x44B0, symBinAddr: 0x6F520, symSize: 0x170 }
  - { offsetInCU: 0x1398D, offset: 0x2495AA, size: 0x8, addend: 0x0, symName: '__ZN4core3ptr63drop_in_place$LT$alloc..boxed..Box$LT$syn..lit..LitRepr$GT$$GT$17h35a4411a17750418E', symObjAddr: 0x4620, symBinAddr: 0x6F690, symSize: 0x60 }
  - { offsetInCU: 0x13C82, offset: 0x24989F, size: 0x8, addend: 0x0, symName: '__ZN4core3ptr64drop_in_place$LT$alloc..boxed..Box$LT$syn..pat..FieldPat$GT$$GT$17h51affbaae84ab277E', symObjAddr: 0x4680, symBinAddr: 0x6F6F0, symSize: 0x100 }
  - { offsetInCU: 0x1429D, offset: 0x249EBA, size: 0x8, addend: 0x0, symName: '__ZN4core3ptr64drop_in_place$LT$alloc..boxed..Box$LT$syn..ty..BareFnArg$GT$$GT$17ha646ec070779f4a0E', symObjAddr: 0x4780, symBinAddr: 0x6F7F0, symSize: 0xF0 }
  - { offsetInCU: 0x1472F, offset: 0x24A34C, size: 0x8, addend: 0x0, symName: '__ZN4core3ptr65drop_in_place$LT$core..option..Option$LT$syn..expr..Label$GT$$GT$17h7470e669be35e9e2E', symObjAddr: 0x4870, symBinAddr: 0x6F8E0, symSize: 0x30 }
  - { offsetInCU: 0x1486A, offset: 0x24A487, size: 0x8, addend: 0x0, symName: '__ZN4core3ptr66drop_in_place$LT$core..option..Option$LT$syn..pat..PatRest$GT$$GT$17hb47fb34b4c60ff4cE', symObjAddr: 0x48A0, symBinAddr: 0x6F910, symSize: 0x70 }
  - { offsetInCU: 0x14AC0, offset: 0x24A6DD, size: 0x8, addend: 0x0, symName: '__ZN4core3ptr67drop_in_place$LT$alloc..boxed..Box$LT$syn..expr..FieldValue$GT$$GT$17h409ff751c9d10852E', symObjAddr: 0x4910, symBinAddr: 0x6F980, symSize: 0xF0 }
  - { offsetInCU: 0x14F51, offset: 0x24AB6E, size: 0x8, addend: 0x0, symName: '__ZN4core3ptr70drop_in_place$LT$core..option..Option$LT$syn..ty..BareVariadic$GT$$GT$17hd561fe5259fe880fE', symObjAddr: 0x4A00, symBinAddr: 0x6FA70, symSize: 0xC0 }
  - { offsetInCU: 0x153DE, offset: 0x24AFFB, size: 0x8, addend: 0x0, symName: '__ZN4core3ptr72drop_in_place$LT$alloc..boxed..Box$LT$syn..path..GenericArgument$GT$$GT$17h9e1c2fd89a12c330E', symObjAddr: 0x4AC0, symBinAddr: 0x6FB30, symSize: 0x2B0 }
  - { offsetInCU: 0x15DC9, offset: 0x24B9E6, size: 0x8, addend: 0x0, symName: '__ZN4core3ptr72drop_in_place$LT$core..option..Option$LT$syn..lifetime..Lifetime$GT$$GT$17h204d66df25055d6bE', symObjAddr: 0x4D70, symBinAddr: 0x6FDE0, symSize: 0x30 }
  - { offsetInCU: 0x15EE5, offset: 0x24BB02, size: 0x8, addend: 0x0, symName: '__ZN4core3ptr73drop_in_place$LT$alloc..boxed..Box$LT$syn..generics..GenericParam$GT$$GT$17hd2636ca4399a3a9fE', symObjAddr: 0x4DA0, symBinAddr: 0x6FE10, symSize: 0x80 }
  - { offsetInCU: 0x1605D, offset: 0x24BC7A, size: 0x8, addend: 0x0, symName: '__ZN4core3ptr75drop_in_place$LT$alloc..boxed..Box$LT$syn..generics..TypeParamBound$GT$$GT$17h2eecd7a4ccb01a6dE', symObjAddr: 0x4E20, symBinAddr: 0x6FE90, symSize: 0x160 }
  - { offsetInCU: 0x16623, offset: 0x24C240, size: 0x8, addend: 0x0, symName: '__ZN4core3ptr86drop_in_place$LT$syn..punctuated..Punctuated$LT$syn..pat..Pat$C$syn..token..Or$GT$$GT$17h0a64ebd164b5dc32E', symObjAddr: 0x4F80, symBinAddr: 0x6FFF0, symSize: 0x120 }
  - { offsetInCU: 0x16A69, offset: 0x24C686, size: 0x8, addend: 0x0, symName: '__ZN4core3ptr87drop_in_place$LT$core..option..Option$LT$alloc..boxed..Box$LT$syn..pat..Pat$GT$$GT$$GT$17h13222549103f42daE', symObjAddr: 0x50A0, symBinAddr: 0x70110, symSize: 0x50 }
  - { offsetInCU: 0x16BDB, offset: 0x24C7F8, size: 0x8, addend: 0x0, symName: '__ZN4core3ptr87drop_in_place$LT$core..option..Option$LT$alloc..boxed..Box$LT$syn..ty..Type$GT$$GT$$GT$17h7b50ff63bc2302e5E', symObjAddr: 0x50F0, symBinAddr: 0x70160, symSize: 0x50 }
  - { offsetInCU: 0x16D4D, offset: 0x24C96A, size: 0x8, addend: 0x0, symName: '__ZN4core3ptr89drop_in_place$LT$core..option..Option$LT$alloc..boxed..Box$LT$syn..expr..Expr$GT$$GT$$GT$17h57d0a0d85babf42eE', symObjAddr: 0x5140, symBinAddr: 0x701B0, symSize: 0x50 }
  - { offsetInCU: 0x16EFD, offset: 0x24CB1A, size: 0x8, addend: 0x0, symName: '__ZN4core3ptr89drop_in_place$LT$syn..punctuated..Punctuated$LT$syn..pat..Pat$C$syn..token..Comma$GT$$GT$17h95741bc582d9544fE', symObjAddr: 0x5190, symBinAddr: 0x70200, symSize: 0x120 }
  - { offsetInCU: 0x17398, offset: 0x24CFB5, size: 0x8, addend: 0x0, symName: '__ZN4core3ptr91drop_in_place$LT$syn..punctuated..Punctuated$LT$syn..expr..Expr$C$syn..token..Comma$GT$$GT$17h2ba0440d00fc17b7E', symObjAddr: 0x52B0, symBinAddr: 0x70320, symSize: 0x120 }
  - { offsetInCU: 0x177F5, offset: 0x24D412, size: 0x8, addend: 0x0, symName: '__ZN4core3ptr94drop_in_place$LT$syn..punctuated..Punctuated$LT$syn..pat..FieldPat$C$syn..token..Comma$GT$$GT$17he37c9fd1795d6e36E', symObjAddr: 0x53D0, symBinAddr: 0x70440, symSize: 0xF0 }
  - { offsetInCU: 0x17ABF, offset: 0x24D6DC, size: 0x8, addend: 0x0, symName: '__ZN4core3ptr94drop_in_place$LT$syn..punctuated..Punctuated$LT$syn..ty..BareFnArg$C$syn..token..Comma$GT$$GT$17h818f76d349cdca5cE', symObjAddr: 0x54C0, symBinAddr: 0x70530, symSize: 0xF0 }
  - { offsetInCU: 0x17D89, offset: 0x24D9A6, size: 0x8, addend: 0x0, symName: '__ZN4core3ptr96drop_in_place$LT$core..option..Option$LT$alloc..boxed..Box$LT$syn..path..PathSegment$GT$$GT$$GT$17hf46b91b97ce17f95E', symObjAddr: 0x55B0, symBinAddr: 0x70620, symSize: 0x180 }
  - { offsetInCU: 0x1841A, offset: 0x24E037, size: 0x8, addend: 0x0, symName: '__ZN4core3ptr97drop_in_place$LT$syn..punctuated..Punctuated$LT$syn..expr..FieldValue$C$syn..token..Comma$GT$$GT$17h60e67521866e947dE', symObjAddr: 0x5730, symBinAddr: 0x707A0, symSize: 0xF0 }
  - { offsetInCU: 0x18760, offset: 0x24E37D, size: 0x8, addend: 0x0, symName: '__ZN4core3ptr98drop_in_place$LT$syn..punctuated..Punctuated$LT$syn..lifetime..Lifetime$C$syn..token..Plus$GT$$GT$17h9d8806b4a517b3d8E', symObjAddr: 0x5820, symBinAddr: 0x70890, symSize: 0xC0 }
  - { offsetInCU: 0x35, offset: 0x259135, size: 0x8, addend: 0x0, symName: _anon.14e8b19afa9235f1266cc5aedce4adcb.3.llvm.10597695123943544123, symObjAddr: 0x1A60, symBinAddr: 0x2A4B60, symSize: 0x0 }
  - { offsetInCU: 0x940, offset: 0x259A40, size: 0x8, addend: 0x0, symName: __ZN10proc_macro6bridge6client10run_client17h02875e06b171f74eE, symObjAddr: 0x210, symBinAddr: 0x70950, symSize: 0x1B0 }
  - { offsetInCU: 0xC4D, offset: 0x259D4D, size: 0x8, addend: 0x0, symName: __ZN10proc_macro6bridge6client10run_client17h225e518bd712c41dE, symObjAddr: 0x3C0, symBinAddr: 0x70B00, symSize: 0x1B0 }
  - { offsetInCU: 0xF5A, offset: 0x25A05A, size: 0x8, addend: 0x0, symName: __ZN10proc_macro6bridge6client10run_client17h40d5a19fc46a35c6E, symObjAddr: 0x570, symBinAddr: 0x70CB0, symSize: 0x1B0 }
  - { offsetInCU: 0x1267, offset: 0x25A367, size: 0x8, addend: 0x0, symName: __ZN10proc_macro6bridge6client10run_client17h639064f569bcbbb9E, symObjAddr: 0x720, symBinAddr: 0x70E60, symSize: 0x1B0 }
  - { offsetInCU: 0x1574, offset: 0x25A674, size: 0x8, addend: 0x0, symName: __ZN10proc_macro6bridge6client10run_client17h750743bc94803d11E, symObjAddr: 0x8D0, symBinAddr: 0x71010, symSize: 0x1B0 }
  - { offsetInCU: 0x1881, offset: 0x25A981, size: 0x8, addend: 0x0, symName: __ZN10proc_macro6bridge6client10run_client17ha1c5d75239596dceE, symObjAddr: 0xA80, symBinAddr: 0x711C0, symSize: 0x1B0 }
  - { offsetInCU: 0x1B8E, offset: 0x25AC8E, size: 0x8, addend: 0x0, symName: __ZN10proc_macro6bridge6client10run_client17hb0177e8756f8f949E, symObjAddr: 0xC30, symBinAddr: 0x71370, symSize: 0x1B0 }
  - { offsetInCU: 0x1E9B, offset: 0x25AF9B, size: 0x8, addend: 0x0, symName: __ZN10proc_macro6bridge6client10run_client17hdbbb4db4036d5a07E, symObjAddr: 0xDE0, symBinAddr: 0x71520, symSize: 0x1B0 }
  - { offsetInCU: 0x21A8, offset: 0x25B2A8, size: 0x8, addend: 0x0, symName: __ZN10proc_macro6bridge6client10run_client17hfb0deb627e5e98beE, symObjAddr: 0xF90, symBinAddr: 0x716D0, symSize: 0x1B0 }
  - { offsetInCU: 0x26C8, offset: 0x25B7C8, size: 0x8, addend: 0x0, symName: '__ZN4core3ptr52drop_in_place$LT$std..thread..local..AccessError$GT$17h72309dfa3e365f2dE.llvm.10597695123943544123', symObjAddr: 0x1890, symBinAddr: 0x71880, symSize: 0x6 }
  - { offsetInCU: 0x858, offset: 0x25CC95, size: 0x8, addend: 0x0, symName: '__ZN68_$LT$$RF$str$u20$as$u20$proc_macro..bridge..rpc..Encode$LT$S$GT$$GT$6encode17h991c92250991fe6eE', symObjAddr: 0x70, symBinAddr: 0x71890, symSize: 0x330 }
  - { offsetInCU: 0x1E, offset: 0x25D4CF, size: 0x8, addend: 0x0, symName: __ZN4core3fmt5Write10write_char17h00d6d3d8c75d2d70E, symObjAddr: 0x0, symBinAddr: 0x71BC0, symSize: 0x100 }
  - { offsetInCU: 0xC8, offset: 0x25D579, size: 0x8, addend: 0x0, symName: '__ZN80_$LT$std..io..Write..write_fmt..Adapter$LT$T$GT$$u20$as$u20$core..fmt..Write$GT$9write_str17h7b58052854f164baE', symObjAddr: 0x1E0, symBinAddr: 0x71DA0, symSize: 0x3E }
  - { offsetInCU: 0x9F7, offset: 0x25DEA8, size: 0x8, addend: 0x0, symName: '__ZN4core3ptr81drop_in_place$LT$core..result..Result$LT$$LP$$RP$$C$std..io..error..Error$GT$$GT$17h633e06bcf1399ac4E', symObjAddr: 0x120, symBinAddr: 0x71CE0, symSize: 0xB0 }
  - { offsetInCU: 0xE69, offset: 0x25E31A, size: 0x8, addend: 0x0, symName: '__ZN4core3ptr92drop_in_place$LT$std..io..Write..write_fmt..Adapter$LT$std..sys..unix..stdio..Stderr$GT$$GT$17h3c431955b5f57cb0E', symObjAddr: 0x1D0, symBinAddr: 0x71D90, symSize: 0x10 }
  - { offsetInCU: 0xFEF, offset: 0x25E4A0, size: 0x8, addend: 0x0, symName: __ZN4core3fmt5Write10write_char17h00d6d3d8c75d2d70E, symObjAddr: 0x0, symBinAddr: 0x71BC0, symSize: 0x100 }
  - { offsetInCU: 0x1158, offset: 0x25E609, size: 0x8, addend: 0x0, symName: __ZN4core3fmt5Write9write_fmt17h52cb1b4e33b15324E, symObjAddr: 0x100, symBinAddr: 0x71CC0, symSize: 0x20 }
  - { offsetInCU: 0x1E, offset: 0x25ED7A, size: 0x8, addend: 0x0, symName: __ZN3std2io5Write9write_all17hdb424ae7108fde87E, symObjAddr: 0x0, symBinAddr: 0x71DE0, symSize: 0xF0 }
  - { offsetInCU: 0x35, offset: 0x25ED91, size: 0x8, addend: 0x0, symName: _anon.8a5086c573fec4b882c341f1dd9c9688.6.llvm.5960763798148254732, symObjAddr: 0x328, symBinAddr: 0x2A4C10, symSize: 0x0 }
  - { offsetInCU: 0xE3, offset: 0x25EE3F, size: 0x8, addend: 0x0, symName: __ZN3std2io5Write9write_all17hdb424ae7108fde87E, symObjAddr: 0x0, symBinAddr: 0x71DE0, symSize: 0xF0 }
  - { offsetInCU: 0x35F, offset: 0x25F0BB, size: 0x8, addend: 0x0, symName: __ZN3std2io5Write9write_fmt17haf824a48e9cdd92dE, symObjAddr: 0xF0, symBinAddr: 0x71ED0, symSize: 0x90 }
  - { offsetInCU: 0x141D, offset: 0x260179, size: 0x8, addend: 0x0, symName: '__ZN4core3ptr42drop_in_place$LT$std..io..error..Error$GT$17ha58439fe1c12c9c0E.llvm.5960763798148254732', symObjAddr: 0x180, symBinAddr: 0x71F60, symSize: 0xA0 }
  - { offsetInCU: 0x1881, offset: 0x2605DD, size: 0x8, addend: 0x0, symName: '__ZN4core3ptr92drop_in_place$LT$std..io..Write..write_fmt..Adapter$LT$std..sys..unix..stdio..Stderr$GT$$GT$17h3c431955b5f57cb0E.llvm.5960763798148254732', symObjAddr: 0x220, symBinAddr: 0x72000, symSize: 0x15 }
  - { offsetInCU: 0x1E, offset: 0x260F9B, size: 0x8, addend: 0x0, symName: '__ZN3std3sys6common12thread_local10fast_local12Key$LT$T$GT$14try_initialize17h323cd6658619d7abE.llvm.15562316464066818083', symObjAddr: 0x0, symBinAddr: 0x72020, symSize: 0x150 }
  - { offsetInCU: 0x3E7, offset: 0x261364, size: 0x8, addend: 0x0, symName: __ZN3std3sys6common12thread_local10fast_local13destroy_value17h2e46ad3d36e3fd55E, symObjAddr: 0x170, symBinAddr: 0x72170, symSize: 0xE0 }
  - { offsetInCU: 0xF94, offset: 0x261F11, size: 0x8, addend: 0x0, symName: '__ZN4core3ptr81drop_in_place$LT$core..result..Result$LT$$LP$$RP$$C$std..io..error..Error$GT$$GT$17h633e06bcf1399ac4E', symObjAddr: 0x250, symBinAddr: 0x72250, symSize: 0xA5 }
  - { offsetInCU: 0x1C4C, offset: 0x262BC9, size: 0x8, addend: 0x0, symName: '__ZN3std3sys6common12thread_local10fast_local12Key$LT$T$GT$14try_initialize17h323cd6658619d7abE.llvm.15562316464066818083', symObjAddr: 0x0, symBinAddr: 0x72020, symSize: 0x150 }
  - { offsetInCU: 0x1E, offset: 0x263FB7, size: 0x8, addend: 0x0, symName: '__ZN4core3ptr43drop_in_place$LT$syn..parse..Unexpected$GT$17he3b54ddc9502f7b6E.llvm.31323793379258518', symObjAddr: 0x0, symBinAddr: 0x72300, symSize: 0x50 }
  - { offsetInCU: 0xB35, offset: 0x264ACE, size: 0x8, addend: 0x0, symName: '__ZN4core3ptr43drop_in_place$LT$syn..parse..Unexpected$GT$17he3b54ddc9502f7b6E.llvm.31323793379258518', symObjAddr: 0x0, symBinAddr: 0x72300, symSize: 0x50 }
  - { offsetInCU: 0x15FE, offset: 0x265597, size: 0x8, addend: 0x0, symName: '__ZN68_$LT$alloc..rc..Rc$LT$T$C$A$GT$$u20$as$u20$core..ops..drop..Drop$GT$4drop17h673362ccf9429c47E', symObjAddr: 0x160, symBinAddr: 0x72350, symSize: 0x30 }
  - { offsetInCU: 0x1872, offset: 0x26580B, size: 0x8, addend: 0x0, symName: '__ZN68_$LT$alloc..rc..Rc$LT$T$C$A$GT$$u20$as$u20$core..ops..drop..Drop$GT$4drop17he34df577e79d3e4aE', symObjAddr: 0x190, symBinAddr: 0x72380, symSize: 0xE0 }
  - { offsetInCU: 0x1D65, offset: 0x265CFE, size: 0x8, addend: 0x0, symName: '__ZN68_$LT$alloc..rc..Rc$LT$T$C$A$GT$$u20$as$u20$core..ops..drop..Drop$GT$4drop17hf1f163b37bc40104E', symObjAddr: 0x270, symBinAddr: 0x72460, symSize: 0x3C }
  - { offsetInCU: 0x35, offset: 0x266D91, size: 0x8, addend: 0x0, symName: _anon.583d1a409cab9cb101c2b8d3f35c01de.2.llvm.16685192254923466083, symObjAddr: 0x13B0, symBinAddr: 0x2A4C60, symSize: 0x0 }
  - { offsetInCU: 0x27F, offset: 0x266FDB, size: 0x8, addend: 0x0, symName: '__ZN58_$LT$alloc..string..String$u20$as$u20$core..fmt..Write$GT$10write_char17hd329c0cb943f081aE.llvm.16685192254923466083', symObjAddr: 0xF50, symBinAddr: 0x732F0, symSize: 0x130 }
  - { offsetInCU: 0x627, offset: 0x267383, size: 0x8, addend: 0x0, symName: '__ZN58_$LT$alloc..string..String$u20$as$u20$core..fmt..Write$GT$9write_str17h1ff5aa96ca91c6d5E.llvm.16685192254923466083', symObjAddr: 0x1080, symBinAddr: 0x73420, symSize: 0x5B }
  - { offsetInCU: 0xF0D, offset: 0x267C69, size: 0x8, addend: 0x0, symName: '__ZN4core3ptr37drop_in_place$LT$core..fmt..Error$GT$17h2d8c7cbf3c71e787E.llvm.16685192254923466083', symObjAddr: 0xDC0, symBinAddr: 0x73160, symSize: 0x10 }
  - { offsetInCU: 0xF39, offset: 0x267C95, size: 0x8, addend: 0x0, symName: '__ZN4core3ptr42drop_in_place$LT$alloc..string..String$GT$17hbb2ae86b98a74c87E.llvm.16685192254923466083', symObjAddr: 0xDD0, symBinAddr: 0x73170, symSize: 0x20 }
  - { offsetInCU: 0x1178, offset: 0x267ED4, size: 0x8, addend: 0x0, symName: '__ZN4core3ptr45drop_in_place$LT$proc_macro2..TokenStream$GT$17h661e8a5a3640a978E.llvm.16685192254923466083', symObjAddr: 0xDF0, symBinAddr: 0x73190, symSize: 0x140 }
  - { offsetInCU: 0x17EA, offset: 0x268546, size: 0x8, addend: 0x0, symName: '__ZN53_$LT$core..fmt..Error$u20$as$u20$core..fmt..Debug$GT$3fmt17h43ae5cec9623af13E.llvm.16685192254923466083', symObjAddr: 0xF30, symBinAddr: 0x732D0, symSize: 0x20 }
  - { offsetInCU: 0x1BEF, offset: 0x26894B, size: 0x8, addend: 0x0, symName: _anon.583d1a409cab9cb101c2b8d3f35c01de.7.llvm.16685192254923466083, symObjAddr: 0x13F8, symBinAddr: 0x2A4CA8, symSize: 0x0 }
  - { offsetInCU: 0x1ECA, offset: 0x268C26, size: 0x8, addend: 0x0, symName: __ZN3syn5error6new_at17h6d43a062c425f56aE, symObjAddr: 0xBE0, symBinAddr: 0x72F80, symSize: 0x1E0 }
  - { offsetInCU: 0x260E, offset: 0x26936A, size: 0x8, addend: 0x0, symName: __ZN3syn5error5Error11new_spanned17h5ed684f6f9a22708E, symObjAddr: 0x80, symBinAddr: 0x724A0, symSize: 0x180 }
  - { offsetInCU: 0x28B7, offset: 0x269613, size: 0x8, addend: 0x0, symName: __ZN3syn5error5Error11new_spanned17h6929b31370ab0fbeE, symObjAddr: 0x200, symBinAddr: 0x72620, symSize: 0x120 }
  - { offsetInCU: 0x2AC9, offset: 0x269825, size: 0x8, addend: 0x0, symName: __ZN3syn5error5Error11new_spanned17hac0d5921ddcc5d04E, symObjAddr: 0x320, symBinAddr: 0x72740, symSize: 0xE0 }
  - { offsetInCU: 0x2DCF, offset: 0x269B2B, size: 0x8, addend: 0x0, symName: __ZN3syn5error5Error11new_spanned17haee55526e921bd1bE, symObjAddr: 0x400, symBinAddr: 0x72820, symSize: 0x180 }
  - { offsetInCU: 0x305B, offset: 0x269DB7, size: 0x8, addend: 0x0, symName: __ZN3syn5error5Error11new_spanned17hb6af12ecf911ed67E, symObjAddr: 0x580, symBinAddr: 0x729A0, symSize: 0x180 }
  - { offsetInCU: 0x32E7, offset: 0x26A043, size: 0x8, addend: 0x0, symName: __ZN3syn5error5Error11new_spanned17hfc51025242ade4a4E, symObjAddr: 0x700, symBinAddr: 0x72B20, symSize: 0x190 }
  - { offsetInCU: 0x359A, offset: 0x26A2F6, size: 0x8, addend: 0x0, symName: __ZN3syn5error5Error3new17h1163de5bb1260cf8E, symObjAddr: 0x890, symBinAddr: 0x72CB0, symSize: 0x100 }
  - { offsetInCU: 0x397D, offset: 0x26A6D9, size: 0x8, addend: 0x0, symName: __ZN3syn5error5Error3new17hb2fa354475b72423E, symObjAddr: 0xA10, symBinAddr: 0x72DB0, symSize: 0xE0 }
  - { offsetInCU: 0x3CF7, offset: 0x26AA53, size: 0x8, addend: 0x0, symName: __ZN3syn5error5Error3new17hbc41b2bd8c9f43fdE, symObjAddr: 0xAF0, symBinAddr: 0x72E90, symSize: 0xF0 }
  - { offsetInCU: 0x1E, offset: 0x273FF1, size: 0x8, addend: 0x0, symName: '__ZN120_$LT$proc_macro2..fallback..TokenStream$u20$as$u20$core..iter..traits..collect..Extend$LT$proc_macro2..TokenTree$GT$$GT$6extend17h7893c7a888651042E', symObjAddr: 0x0, symBinAddr: 0x73480, symSize: 0x270 }
  - { offsetInCU: 0x918, offset: 0x2748EB, size: 0x8, addend: 0x0, symName: '__ZN120_$LT$proc_macro2..fallback..TokenStream$u20$as$u20$core..iter..traits..collect..Extend$LT$proc_macro2..TokenTree$GT$$GT$6extend17h7893c7a888651042E', symObjAddr: 0x0, symBinAddr: 0x73480, symSize: 0x270 }
  - { offsetInCU: 0x1270, offset: 0x275243, size: 0x8, addend: 0x0, symName: '__ZN78_$LT$proc_macro2..fallback..Ident$u20$as$u20$core..cmp..PartialEq$LT$T$GT$$GT$2eq17hf0d4fcba124250daE', symObjAddr: 0x3B0, symBinAddr: 0x73830, symSize: 0x76 }
  - { offsetInCU: 0x1C66, offset: 0x275C39, size: 0x8, addend: 0x0, symName: '__ZN4core3ptr45drop_in_place$LT$proc_macro2..TokenStream$GT$17h661e8a5a3640a978E', symObjAddr: 0x270, symBinAddr: 0x736F0, symSize: 0x140 }
  - { offsetInCU: 0x1E, offset: 0x277D71, size: 0x8, addend: 0x0, symName: __ZN3syn4attr9Attribute15parse_args_with17h49874b9c263f17c7E, symObjAddr: 0x0, symBinAddr: 0x738B0, symSize: 0x340 }
  - { offsetInCU: 0x9882, offset: 0x2815D5, size: 0x8, addend: 0x0, symName: __ZN3syn4attr9Attribute15parse_args_with17h49874b9c263f17c7E, symObjAddr: 0x0, symBinAddr: 0x738B0, symSize: 0x340 }
  - { offsetInCU: 0xA5CB, offset: 0x28231E, size: 0x8, addend: 0x0, symName: __ZN3syn4attr9Attribute15parse_args_with17hd88df87516f6eb88E, symObjAddr: 0x340, symBinAddr: 0x73BF0, symSize: 0x330 }
  - { offsetInCU: 0x89, offset: 0x2839EC, size: 0x8, addend: 0x0, symName: '__ZN58_$LT$alloc..string..String$u20$as$u20$core..fmt..Write$GT$10write_char17hd329c0cb943f081aE', symObjAddr: 0x60, symBinAddr: 0x73F60, symSize: 0x130 }
  - { offsetInCU: 0x430, offset: 0x283D93, size: 0x8, addend: 0x0, symName: '__ZN58_$LT$alloc..string..String$u20$as$u20$core..fmt..Write$GT$9write_str17h1ff5aa96ca91c6d5E', symObjAddr: 0x190, symBinAddr: 0x74090, symSize: 0x5B }
  - { offsetInCU: 0x956, offset: 0x2842B9, size: 0x8, addend: 0x0, symName: '__ZN4core3ptr42drop_in_place$LT$alloc..string..String$GT$17hbb2ae86b98a74c87E', symObjAddr: 0x40, symBinAddr: 0x73F40, symSize: 0x20 }
  - { offsetInCU: 0xC5D, offset: 0x2845C0, size: 0x8, addend: 0x0, symName: __ZN4core3fmt5Write9write_fmt17hd1b22de396d595abE, symObjAddr: 0x20, symBinAddr: 0x73F20, symSize: 0x20 }
  - { offsetInCU: 0x1E, offset: 0x28501B, size: 0x8, addend: 0x0, symName: __ZN10proc_macro6bridge14selfless_reify31reify_to_extern_c_fn_hrt_bridge7wrapper17h15baf6797ce3c0e5E, symObjAddr: 0x0, symBinAddr: 0x740F0, symSize: 0x20 }
  - { offsetInCU: 0x3A6, offset: 0x2853A3, size: 0x8, addend: 0x0, symName: __ZN10proc_macro6bridge14selfless_reify31reify_to_extern_c_fn_hrt_bridge7wrapper17h15baf6797ce3c0e5E, symObjAddr: 0x0, symBinAddr: 0x740F0, symSize: 0x20 }
  - { offsetInCU: 0x41F, offset: 0x28541C, size: 0x8, addend: 0x0, symName: __ZN10proc_macro6bridge14selfless_reify31reify_to_extern_c_fn_hrt_bridge7wrapper17h2f43276c79c41223E, symObjAddr: 0x20, symBinAddr: 0x74110, symSize: 0x20 }
  - { offsetInCU: 0x498, offset: 0x285495, size: 0x8, addend: 0x0, symName: __ZN10proc_macro6bridge14selfless_reify31reify_to_extern_c_fn_hrt_bridge7wrapper17h350c91e2fe973960E, symObjAddr: 0x40, symBinAddr: 0x74130, symSize: 0x20 }
  - { offsetInCU: 0x511, offset: 0x28550E, size: 0x8, addend: 0x0, symName: __ZN10proc_macro6bridge14selfless_reify31reify_to_extern_c_fn_hrt_bridge7wrapper17h83c503db3d3d6a76E, symObjAddr: 0x60, symBinAddr: 0x74150, symSize: 0x20 }
  - { offsetInCU: 0x58A, offset: 0x285587, size: 0x8, addend: 0x0, symName: __ZN10proc_macro6bridge14selfless_reify31reify_to_extern_c_fn_hrt_bridge7wrapper17ha2cde8e3d253dbd2E, symObjAddr: 0x80, symBinAddr: 0x74170, symSize: 0x20 }
  - { offsetInCU: 0x603, offset: 0x285600, size: 0x8, addend: 0x0, symName: __ZN10proc_macro6bridge14selfless_reify31reify_to_extern_c_fn_hrt_bridge7wrapper17ha5d7e8a7e50e7968E, symObjAddr: 0xA0, symBinAddr: 0x74190, symSize: 0x20 }
  - { offsetInCU: 0x67C, offset: 0x285679, size: 0x8, addend: 0x0, symName: __ZN10proc_macro6bridge14selfless_reify31reify_to_extern_c_fn_hrt_bridge7wrapper17hb4578956339bc6d7E, symObjAddr: 0xC0, symBinAddr: 0x741B0, symSize: 0x20 }
  - { offsetInCU: 0x6F5, offset: 0x2856F2, size: 0x8, addend: 0x0, symName: __ZN10proc_macro6bridge14selfless_reify31reify_to_extern_c_fn_hrt_bridge7wrapper17hd3dea42683eaa40cE, symObjAddr: 0xE0, symBinAddr: 0x741D0, symSize: 0x20 }
  - { offsetInCU: 0x76E, offset: 0x28576B, size: 0x8, addend: 0x0, symName: __ZN10proc_macro6bridge14selfless_reify31reify_to_extern_c_fn_hrt_bridge7wrapper17hef2b370d97d18a6aE, symObjAddr: 0x100, symBinAddr: 0x741F0, symSize: 0x20 }
  - { offsetInCU: 0x1E, offset: 0x285994, size: 0x8, addend: 0x0, symName: '__ZN10proc_macro6bridge100_$LT$impl$u20$proc_macro..bridge..rpc..Encode$LT$S$GT$$u20$for$u20$core..option..Option$LT$T$GT$$GT$6encode17h24d962521689dc04E', symObjAddr: 0x0, symBinAddr: 0x74210, symSize: 0x370 }
  - { offsetInCU: 0x437, offset: 0x285DAD, size: 0x8, addend: 0x0, symName: '__ZN10proc_macro6bridge100_$LT$impl$u20$proc_macro..bridge..rpc..Encode$LT$S$GT$$u20$for$u20$core..option..Option$LT$T$GT$$GT$6encode17h24d962521689dc04E', symObjAddr: 0x0, symBinAddr: 0x74210, symSize: 0x370 }
  - { offsetInCU: 0xA1F, offset: 0x286395, size: 0x8, addend: 0x0, symName: '__ZN10proc_macro6bridge100_$LT$impl$u20$proc_macro..bridge..rpc..Encode$LT$S$GT$$u20$for$u20$core..option..Option$LT$T$GT$$GT$6encode17h9acce173fde427c2E', symObjAddr: 0x370, symBinAddr: 0x74580, symSize: 0x4F0 }
  - { offsetInCU: 0x1E, offset: 0x287209, size: 0x8, addend: 0x0, symName: '__ZN115_$LT$proc_macro2..imp..TokenStream$u20$as$u20$core..iter..traits..collect..Extend$LT$proc_macro2..TokenTree$GT$$GT$6extend17h722275aefffc39ffE', symObjAddr: 0x0, symBinAddr: 0x74A70, symSize: 0x110 }
  - { offsetInCU: 0x71F, offset: 0x28790A, size: 0x8, addend: 0x0, symName: '__ZN115_$LT$proc_macro2..imp..TokenStream$u20$as$u20$core..iter..traits..collect..Extend$LT$proc_macro2..TokenTree$GT$$GT$6extend17h722275aefffc39ffE', symObjAddr: 0x0, symBinAddr: 0x74A70, symSize: 0x110 }
  - { offsetInCU: 0x14A1, offset: 0x28868C, size: 0x8, addend: 0x0, symName: '__ZN4core3ptr56drop_in_place$LT$proc_macro2..token_stream..IntoIter$GT$17hf9782c885e78ad3bE.llvm.2945917108447022858', symObjAddr: 0x130, symBinAddr: 0x74B80, symSize: 0x20 }
  - { offsetInCU: 0x1E, offset: 0x2889D8, size: 0x8, addend: 0x0, symName: '__ZN10proc_macro6bridge104_$LT$impl$u20$proc_macro..bridge..rpc..Encode$LT$S$GT$$u20$for$u20$core..result..Result$LT$T$C$E$GT$$GT$6encode17h820d521f67dbc19dE', symObjAddr: 0x0, symBinAddr: 0x74BA0, symSize: 0x450 }
  - { offsetInCU: 0x16E, offset: 0x288B28, size: 0x8, addend: 0x0, symName: '__ZN10proc_macro6bridge104_$LT$impl$u20$proc_macro..bridge..rpc..Encode$LT$S$GT$$u20$for$u20$core..result..Result$LT$T$C$E$GT$$GT$6encode17h820d521f67dbc19dE', symObjAddr: 0x0, symBinAddr: 0x74BA0, symSize: 0x450 }
  - { offsetInCU: 0xA1F, offset: 0x2893D9, size: 0x8, addend: 0x0, symName: '__ZN10proc_macro6bridge104_$LT$impl$u20$proc_macro..bridge..rpc..Encode$LT$S$GT$$u20$for$u20$core..result..Result$LT$T$C$E$GT$$GT$6encode17h98b18c2fb5b834c8E', symObjAddr: 0x450, symBinAddr: 0x74FF0, symSize: 0x3AD }
  - { offsetInCU: 0x1E, offset: 0x28A37C, size: 0x8, addend: 0x0, symName: '__ZN44_$LT$$RF$T$u20$as$u20$core..fmt..Display$GT$3fmt17h5032035fe89f294eE', symObjAddr: 0x0, symBinAddr: 0x753A0, symSize: 0x10 }
  - { offsetInCU: 0x64, offset: 0x28A3C2, size: 0x8, addend: 0x0, symName: '__ZN44_$LT$$RF$T$u20$as$u20$core..fmt..Display$GT$3fmt17h5032035fe89f294eE', symObjAddr: 0x0, symBinAddr: 0x753A0, symSize: 0x10 }
  - { offsetInCU: 0x346, offset: 0x28A6A4, size: 0x8, addend: 0x0, symName: '__ZN4core3ptr45drop_in_place$LT$proc_macro2..TokenStream$GT$17h661e8a5a3640a978E.llvm.10270640493094472341', symObjAddr: 0x10, symBinAddr: 0x753B0, symSize: 0x140 }
  - { offsetInCU: 0x1E, offset: 0x28BD78, size: 0x8, addend: 0x0, symName: '__ZN4core3ptr45drop_in_place$LT$proc_macro2..TokenStream$GT$17h661e8a5a3640a978E.llvm.13638526450779309364', symObjAddr: 0x0, symBinAddr: 0x754F0, symSize: 0x140 }
  - { offsetInCU: 0x1159, offset: 0x28CEB3, size: 0x8, addend: 0x0, symName: '__ZN4core3ptr45drop_in_place$LT$proc_macro2..TokenStream$GT$17h661e8a5a3640a978E.llvm.13638526450779309364', symObjAddr: 0x0, symBinAddr: 0x754F0, symSize: 0x140 }
  - { offsetInCU: 0x3F88, offset: 0x28FCE2, size: 0x8, addend: 0x0, symName: __ZN5quote9to_tokens8ToTokens17into_token_stream17h043df711a692a0c1E, symObjAddr: 0x140, symBinAddr: 0x75630, symSize: 0x70 }
  - { offsetInCU: 0x4D84, offset: 0x299995, size: 0x8, addend: 0x0, symName: __ZN5quote9to_tokens8ToTokens17into_token_stream17hd49f51f94688f93cE, symObjAddr: 0x30, symBinAddr: 0x756A0, symSize: 0x10A }
  - { offsetInCU: 0x1E, offset: 0x29D701, size: 0x8, addend: 0x0, symName: __ZN5quote9to_tokens8ToTokens17into_token_stream17h507d78fb95d8e532E, symObjAddr: 0x0, symBinAddr: 0x757B0, symSize: 0x10A }
  - { offsetInCU: 0x906, offset: 0x29DFE9, size: 0x8, addend: 0x0, symName: __ZN5quote9to_tokens8ToTokens17into_token_stream17h507d78fb95d8e532E, symObjAddr: 0x0, symBinAddr: 0x757B0, symSize: 0x10A }
  - { offsetInCU: 0x1E, offset: 0x2A6175, size: 0x8, addend: 0x0, symName: '__ZN4core3ptr45drop_in_place$LT$proc_macro2..TokenStream$GT$17h661e8a5a3640a978E.llvm.16593678226839758351', symObjAddr: 0x0, symBinAddr: 0x758C0, symSize: 0x140 }
  - { offsetInCU: 0xA81, offset: 0x2A6BD8, size: 0x8, addend: 0x0, symName: '__ZN4core3ptr45drop_in_place$LT$proc_macro2..TokenStream$GT$17h661e8a5a3640a978E.llvm.16593678226839758351', symObjAddr: 0x0, symBinAddr: 0x758C0, symSize: 0x140 }
  - { offsetInCU: 0x97, offset: 0x2A799A, size: 0x8, addend: 0x0, symName: '__ZN44_$LT$$RF$T$u20$as$u20$core..fmt..Display$GT$3fmt17h775c9eac6be1bcc2E', symObjAddr: 0x20, symBinAddr: 0x75A00, symSize: 0x17 }
  - { offsetInCU: 0x1E, offset: 0x2A7BD1, size: 0x8, addend: 0x0, symName: '__ZN77_$LT$$LP$A$C$B$RP$$u20$as$u20$proc_macro..bridge..rpc..DecodeMut$LT$S$GT$$GT$6decode17hc878ca94f772e7c5E', symObjAddr: 0x0, symBinAddr: 0x75A20, symSize: 0xD6 }
  - { offsetInCU: 0xB0, offset: 0x2A7C63, size: 0x8, addend: 0x0, symName: '__ZN77_$LT$$LP$A$C$B$RP$$u20$as$u20$proc_macro..bridge..rpc..DecodeMut$LT$S$GT$$GT$6decode17hc878ca94f772e7c5E', symObjAddr: 0x0, symBinAddr: 0x75A20, symSize: 0xD6 }
  - { offsetInCU: 0x4E7F, offset: 0x2ADC37, size: 0x8, addend: 0x0, symName: '__ZN3syn4item7parsing63_$LT$impl$u20$syn..parse..Parse$u20$for$u20$syn..item..Item$GT$5parse17h2dd33e0a14c1cf15E', symObjAddr: 0xCE00, symBinAddr: 0x81670, symSize: 0x1D0 }
  - { offsetInCU: 0x546C, offset: 0x2AE224, size: 0x8, addend: 0x0, symName: '__ZN3syn4item7parsing68_$LT$impl$u20$syn..parse..Parse$u20$for$u20$syn..item..ItemMacro$GT$5parse17hd2dbdd16085cb5b3E', symObjAddr: 0xCFD0, symBinAddr: 0x81840, symSize: 0x690 }
  - { offsetInCU: 0x60B8, offset: 0x2AEE70, size: 0x8, addend: 0x0, symName: '__ZN3syn4item7parsing74_$LT$impl$u20$syn..parse..Parse$u20$for$u20$syn..item..ItemExternCrate$GT$5parse17h6d92f7f00cd41009E', symObjAddr: 0xD660, symBinAddr: 0x81ED0, symSize: 0x850 }
  - { offsetInCU: 0x72AE, offset: 0x2B0066, size: 0x8, addend: 0x0, symName: '__ZN3syn4item7parsing75_$LT$impl$u20$syn..parse..Parse$u20$for$u20$syn..item..StaticMutability$GT$5parse17haf0db4a36b052efeE', symObjAddr: 0x1E720, symBinAddr: 0x8CA80, symSize: 0x90 }
  - { offsetInCU: 0x7461, offset: 0x2B0219, size: 0x8, addend: 0x0, symName: '__ZN3syn4item7parsing68_$LT$impl$u20$syn..parse..Parse$u20$for$u20$syn..item..Signature$GT$5parse17h046b786ec6aea09bE', symObjAddr: 0xF5D0, symBinAddr: 0x82720, symSize: 0xA00 }
  - { offsetInCU: 0x808A, offset: 0x2B0E42, size: 0x8, addend: 0x0, symName: '__ZN3syn4item7parsing67_$LT$impl$u20$syn..parse..Parse$u20$for$u20$syn..item..Receiver$GT$5parse17h14ef46bb1836effbE', symObjAddr: 0x10510, symBinAddr: 0x83120, symSize: 0xA40 }
  - { offsetInCU: 0x92A5, offset: 0x2B205D, size: 0x8, addend: 0x0, symName: '__ZN3syn4item7parsing66_$LT$impl$u20$syn..parse..Parse$u20$for$u20$syn..item..ItemMod$GT$5parse17hdc999b9cf7b8d7bdE', symObjAddr: 0x10F50, symBinAddr: 0x83B60, symSize: 0xC30 }
  - { offsetInCU: 0xAE63, offset: 0x2B3C1B, size: 0x8, addend: 0x0, symName: '__ZN3syn4item7parsing73_$LT$impl$u20$syn..parse..Parse$u20$for$u20$syn..item..ItemForeignMod$GT$5parse17h6272e3455d73c09eE', symObjAddr: 0x11B80, symBinAddr: 0x84790, symSize: 0x6E0 }
  - { offsetInCU: 0xBCD1, offset: 0x2B4A89, size: 0x8, addend: 0x0, symName: '__ZN3syn4item7parsing70_$LT$impl$u20$syn..parse..Parse$u20$for$u20$syn..item..ForeignItem$GT$5parse17hc264003d8c78165cE', symObjAddr: 0x12260, symBinAddr: 0x84E70, symSize: 0x1A40 }
  - { offsetInCU: 0x1003D, offset: 0x2B8DF5, size: 0x8, addend: 0x0, symName: '__ZN3syn4item7parsing69_$LT$impl$u20$syn..parse..Parse$u20$for$u20$syn..item..ItemStruct$GT$5parse17h9ee5a6f8e0cb788fE', symObjAddr: 0x15D30, symBinAddr: 0x868B0, symSize: 0x730 }
  - { offsetInCU: 0x10AB7, offset: 0x2B986F, size: 0x8, addend: 0x0, symName: '__ZN3syn4item7parsing67_$LT$impl$u20$syn..parse..Parse$u20$for$u20$syn..item..ItemEnum$GT$5parse17h3908fae5439ca017E', symObjAddr: 0x16460, symBinAddr: 0x86FE0, symSize: 0x6A0 }
  - { offsetInCU: 0x1152F, offset: 0x2BA2E7, size: 0x8, addend: 0x0, symName: '__ZN3syn4item7parsing68_$LT$impl$u20$syn..parse..Parse$u20$for$u20$syn..item..ItemUnion$GT$5parse17hcf21badb7f5d91b4E', symObjAddr: 0x16B00, symBinAddr: 0x87680, symSize: 0x670 }
  - { offsetInCU: 0x11F8D, offset: 0x2BAD45, size: 0x8, addend: 0x0, symName: '__ZN3syn4item7parsing68_$LT$impl$u20$syn..parse..Parse$u20$for$u20$syn..item..ItemTrait$GT$5parse17he79f83c126b307abE', symObjAddr: 0x17170, symBinAddr: 0x87CF0, symSize: 0x690 }
  - { offsetInCU: 0x12C06, offset: 0x2BB9BE, size: 0x8, addend: 0x0, symName: '__ZN3syn4item7parsing68_$LT$impl$u20$syn..parse..Parse$u20$for$u20$syn..item..TraitItem$GT$5parse17ha2b7a47a4118920dE', symObjAddr: 0x17940, symBinAddr: 0x88380, symSize: 0x1D60 }
  - { offsetInCU: 0x1876B, offset: 0x2C1523, size: 0x8, addend: 0x0, symName: '__ZN3syn4item7parsing70_$LT$impl$u20$syn..parse..Parse$u20$for$u20$syn..item..TraitItemFn$GT$5parse17h2bd112e785c11adaE', symObjAddr: 0x1A020, symBinAddr: 0x8A0E0, symSize: 0x9A0 }
  - { offsetInCU: 0x19E8B, offset: 0x2C2C43, size: 0x8, addend: 0x0, symName: '__ZN3syn4item7parsing67_$LT$impl$u20$syn..parse..Parse$u20$for$u20$syn..item..ImplItem$GT$5parse17h7e88a76fe14f8010E', symObjAddr: 0x1B2D0, symBinAddr: 0x8AA80, symSize: 0x1CD0 }
  - { offsetInCU: 0x1EFFB, offset: 0x2C7DB3, size: 0x8, addend: 0x0, symName: '__ZN3syn4item7parsing72_$LT$impl$u20$syn..parse..Parse$u20$for$u20$syn..item..ImplItemMacro$GT$5parse17h0ef0a527c904192aE', symObjAddr: 0x1E3F0, symBinAddr: 0x8C750, symSize: 0x0 }
  - { offsetInCU: 0x1F661, offset: 0x2C8419, size: 0x8, addend: 0x0, symName: '__ZN3syn4item8printing83_$LT$impl$u20$quote..to_tokens..ToTokens$u20$for$u20$syn..item..ItemExternCrate$GT$9to_tokens17h3856a361ae758360E', symObjAddr: 0x1E7B0, symBinAddr: 0x8CB10, symSize: 0x250 }
  - { offsetInCU: 0x1FC45, offset: 0x2C89FD, size: 0x8, addend: 0x0, symName: '__ZN3syn4item8printing78_$LT$impl$u20$quote..to_tokens..ToTokens$u20$for$u20$syn..item..ItemStatic$GT$9to_tokens17h415e4cd72a569389E', symObjAddr: 0x1EBA0, symBinAddr: 0x8CD60, symSize: 0x230 }
  - { offsetInCU: 0x201AC, offset: 0x2C8F64, size: 0x8, addend: 0x0, symName: '__ZN3syn4item8printing74_$LT$impl$u20$quote..to_tokens..ToTokens$u20$for$u20$syn..item..ItemFn$GT$9to_tokens17h8cdf913637011784E', symObjAddr: 0x1EFA0, symBinAddr: 0x8CF90, symSize: 0x3A0 }
  - { offsetInCU: 0x20B49, offset: 0x2C9901, size: 0x8, addend: 0x0, symName: '__ZN3syn4item8printing75_$LT$impl$u20$quote..to_tokens..ToTokens$u20$for$u20$syn..item..ItemMod$GT$9to_tokens17h22b2effb376191d4E', symObjAddr: 0x1F340, symBinAddr: 0x8D330, symSize: 0x240 }
  - { offsetInCU: 0x210C0, offset: 0x2C9E78, size: 0x8, addend: 0x0, symName: '__ZN3syn4item8printing78_$LT$impl$u20$quote..to_tokens..ToTokens$u20$for$u20$syn..item..ItemStruct$GT$9to_tokens17h37d4984ce3001d19E', symObjAddr: 0x1FA90, symBinAddr: 0x8D570, symSize: 0x230 }
  - { offsetInCU: 0x214E2, offset: 0x2CA29A, size: 0x8, addend: 0x0, symName: '__ZN3syn4item8printing77_$LT$impl$u20$quote..to_tokens..ToTokens$u20$for$u20$syn..item..ItemTrait$GT$9to_tokens17h5df32068ce60d15cE', symObjAddr: 0x1FE50, symBinAddr: 0x8D7A0, symSize: 0x350 }
  - { offsetInCU: 0x21E6E, offset: 0x2CAC26, size: 0x8, addend: 0x0, symName: '__ZN3syn4item8printing82_$LT$impl$u20$quote..to_tokens..ToTokens$u20$for$u20$syn..item..ItemTraitAlias$GT$9to_tokens17hc929f21bb6c5846dE', symObjAddr: 0x201A0, symBinAddr: 0x8DAF0, symSize: 0x240 }
  - { offsetInCU: 0x224B2, offset: 0x2CB26A, size: 0x8, addend: 0x0, symName: '__ZN3syn4item8printing76_$LT$impl$u20$quote..to_tokens..ToTokens$u20$for$u20$syn..item..ItemImpl$GT$9to_tokens17hbc6239c00e6682fbE', symObjAddr: 0x203E0, symBinAddr: 0x8DD30, symSize: 0x300 }
  - { offsetInCU: 0x22C3D, offset: 0x2CB9F5, size: 0x8, addend: 0x0, symName: '__ZN3syn4item8printing77_$LT$impl$u20$quote..to_tokens..ToTokens$u20$for$u20$syn..item..ItemMacro$GT$9to_tokens17hebd52fd8a1615986E', symObjAddr: 0x206E0, symBinAddr: 0x8E030, symSize: 0x180 }
  - { offsetInCU: 0x22FE9, offset: 0x2CBDA1, size: 0x8, addend: 0x0, symName: '__ZN3syn4item8printing82_$LT$impl$u20$quote..to_tokens..ToTokens$u20$for$u20$syn..item..TraitItemConst$GT$9to_tokens17h089a36b809968ef3E', symObjAddr: 0x209B0, symBinAddr: 0x8E1B0, symSize: 0x1D0 }
  - { offsetInCU: 0x23375, offset: 0x2CC12D, size: 0x8, addend: 0x0, symName: '__ZN3syn4item8printing79_$LT$impl$u20$quote..to_tokens..ToTokens$u20$for$u20$syn..item..TraitItemFn$GT$9to_tokens17haad3b80ba26c3976E', symObjAddr: 0x20B80, symBinAddr: 0x8E380, symSize: 0x420 }
  - { offsetInCU: 0x23DB1, offset: 0x2CCB69, size: 0x8, addend: 0x0, symName: '__ZN3syn4item8printing81_$LT$impl$u20$quote..to_tokens..ToTokens$u20$for$u20$syn..item..TraitItemType$GT$9to_tokens17h64c3182d37c64beaE', symObjAddr: 0x20FA0, symBinAddr: 0x8E7A0, symSize: 0x2B0 }
  - { offsetInCU: 0x244F8, offset: 0x2CD2B0, size: 0x8, addend: 0x0, symName: '__ZN3syn4item8printing81_$LT$impl$u20$quote..to_tokens..ToTokens$u20$for$u20$syn..item..ImplItemConst$GT$9to_tokens17hf0f4212b62d7bc92E', symObjAddr: 0x21250, symBinAddr: 0x8EA50, symSize: 0x250 }
  - { offsetInCU: 0x249A8, offset: 0x2CD760, size: 0x8, addend: 0x0, symName: '__ZN3syn4item8printing78_$LT$impl$u20$quote..to_tokens..ToTokens$u20$for$u20$syn..item..ImplItemFn$GT$9to_tokens17hd72deb71e24247ddE', symObjAddr: 0x214A0, symBinAddr: 0x8ECA0, symSize: 0x410 }
  - { offsetInCU: 0x2549A, offset: 0x2CE252, size: 0x8, addend: 0x0, symName: '__ZN3syn4item8printing80_$LT$impl$u20$quote..to_tokens..ToTokens$u20$for$u20$syn..item..ImplItemType$GT$9to_tokens17h633e35cead6fe332E', symObjAddr: 0x218B0, symBinAddr: 0x8F0B0, symSize: 0x240 }
  - { offsetInCU: 0x25980, offset: 0x2CE738, size: 0x8, addend: 0x0, symName: '__ZN3syn4item8printing81_$LT$impl$u20$quote..to_tokens..ToTokens$u20$for$u20$syn..item..ForeignItemFn$GT$9to_tokens17hf978c504af4624b9E', symObjAddr: 0x21C00, symBinAddr: 0x8F2F0, symSize: 0x3C0 }
  - { offsetInCU: 0x26345, offset: 0x2CF0FD, size: 0x8, addend: 0x0, symName: '__ZN3syn4item8printing85_$LT$impl$u20$quote..to_tokens..ToTokens$u20$for$u20$syn..item..ForeignItemStatic$GT$9to_tokens17h6dca73543b11328bE', symObjAddr: 0x21FC0, symBinAddr: 0x8F6B0, symSize: 0x210 }
  - { offsetInCU: 0x2682D, offset: 0x2CF5E5, size: 0x8, addend: 0x0, symName: '__ZN3syn4item8printing76_$LT$impl$u20$quote..to_tokens..ToTokens$u20$for$u20$syn..item..Receiver$GT$9to_tokens17hb998d2cc4ddf9c5aE', symObjAddr: 0x22650, symBinAddr: 0x8F8C0, symSize: 0x2F0 }
  - { offsetInCU: 0x26FF0, offset: 0x2CFDA8, size: 0x8, addend: 0x0, symName: '__ZN3syn4item8printing76_$LT$impl$u20$quote..to_tokens..ToTokens$u20$for$u20$syn..item..Variadic$GT$9to_tokens17h395edb0d0a0434c1E', symObjAddr: 0x22940, symBinAddr: 0x8FBB0, symSize: 0x150 }
  - { offsetInCU: 0x27327, offset: 0x2D00DF, size: 0x8, addend: 0x0, symName: '__ZN62_$LT$syn..item..Item$u20$as$u20$quote..to_tokens..ToTokens$GT$9to_tokens17h16b724a3317228f3E', symObjAddr: 0x22B20, symBinAddr: 0x8FD00, symSize: 0xB70 }
  - { offsetInCU: 0x2899F, offset: 0x2D1757, size: 0x8, addend: 0x0, symName: '__ZN65_$LT$syn..item..UseTree$u20$as$u20$quote..to_tokens..ToTokens$GT$9to_tokens17h058bd86238a4a925E', symObjAddr: 0x23690, symBinAddr: 0x90870, symSize: 0x300 }
  - { offsetInCU: 0x2925D, offset: 0x2D2015, size: 0x8, addend: 0x0, symName: '__ZN69_$LT$syn..item..ForeignItem$u20$as$u20$quote..to_tokens..ToTokens$GT$9to_tokens17ha60ee0587a491822E', symObjAddr: 0x23990, symBinAddr: 0x90B70, symSize: 0x320 }
  - { offsetInCU: 0x29806, offset: 0x2D25BE, size: 0x8, addend: 0x0, symName: '__ZN67_$LT$syn..item..TraitItem$u20$as$u20$quote..to_tokens..ToTokens$GT$9to_tokens17hd73ca22881a357f6E', symObjAddr: 0x23CB0, symBinAddr: 0x90E90, symSize: 0x1B0 }
  - { offsetInCU: 0x29AE0, offset: 0x2D2898, size: 0x8, addend: 0x0, symName: '__ZN66_$LT$syn..item..ImplItem$u20$as$u20$quote..to_tokens..ToTokens$GT$9to_tokens17h8caf1b608d7ccb4bE', symObjAddr: 0x23E60, symBinAddr: 0x91040, symSize: 0x1B0 }
  - { offsetInCU: 0x2A004, offset: 0x2D2DBC, size: 0x8, addend: 0x0, symName: '__ZN3syn3gen5clone71_$LT$impl$u20$core..clone..Clone$u20$for$u20$syn..item..ForeignItem$GT$5clone17h1c1af2fb1e22cf37E', symObjAddr: 0x240B0, symBinAddr: 0x911F0, symSize: 0x2B0 }
  - { offsetInCU: 0x2A41C, offset: 0x2D31D4, size: 0x8, addend: 0x0, symName: '__ZN3syn3gen5clone77_$LT$impl$u20$core..clone..Clone$u20$for$u20$syn..item..ForeignItemStatic$GT$5clone17h9025ae3b0e2de955E', symObjAddr: 0x24450, symBinAddr: 0x914A0, symSize: 0x1E0 }
  - { offsetInCU: 0x2A92F, offset: 0x2D36E7, size: 0x8, addend: 0x0, symName: '__ZN3syn3gen5clone75_$LT$impl$u20$core..clone..Clone$u20$for$u20$syn..item..ForeignItemType$GT$5clone17h01954e3b9fb9f725E', symObjAddr: 0x24630, symBinAddr: 0x91680, symSize: 0x250 }
  - { offsetInCU: 0x2ACB1, offset: 0x2D3A69, size: 0x8, addend: 0x0, symName: '__ZN3syn3gen5clone68_$LT$impl$u20$core..clone..Clone$u20$for$u20$syn..item..ImplItem$GT$5clone17hbbdbceaa9dc75fb8E', symObjAddr: 0x24880, symBinAddr: 0x918D0, symSize: 0x1F0 }
  - { offsetInCU: 0x2B023, offset: 0x2D3DDB, size: 0x8, addend: 0x0, symName: '__ZN3syn3gen5clone73_$LT$impl$u20$core..clone..Clone$u20$for$u20$syn..item..ImplItemConst$GT$5clone17h5bada8c903397ea9E', symObjAddr: 0x24A70, symBinAddr: 0x91AC0, symSize: 0x390 }
  - { offsetInCU: 0x2B3F5, offset: 0x2D41AD, size: 0x8, addend: 0x0, symName: '__ZN3syn3gen5clone70_$LT$impl$u20$core..clone..Clone$u20$for$u20$syn..item..ImplItemFn$GT$5clone17h569fe64371aceabcE', symObjAddr: 0x24E00, symBinAddr: 0x91E50, symSize: 0x190 }
  - { offsetInCU: 0x2B478, offset: 0x2D4230, size: 0x8, addend: 0x0, symName: '__ZN3syn3gen5clone72_$LT$impl$u20$core..clone..Clone$u20$for$u20$syn..item..ImplItemType$GT$5clone17h1322b0329e89fcb7E', symObjAddr: 0x25020, symBinAddr: 0x91FE0, symSize: 0x340 }
  - { offsetInCU: 0x2B81C, offset: 0x2D45D4, size: 0x8, addend: 0x0, symName: '__ZN3syn3gen5clone64_$LT$impl$u20$core..clone..Clone$u20$for$u20$syn..item..Item$GT$5clone17h3822ba1a7b611a95E', symObjAddr: 0x25360, symBinAddr: 0x92320, symSize: 0x3E0 }
  - { offsetInCU: 0x2BCA9, offset: 0x2D4A61, size: 0x8, addend: 0x0, symName: '__ZN3syn3gen5clone69_$LT$impl$u20$core..clone..Clone$u20$for$u20$syn..item..ItemConst$GT$5clone17hf94d4c0cb1435c70E', symObjAddr: 0x25740, symBinAddr: 0x92700, symSize: 0x3F0 }
  - { offsetInCU: 0x2C506, offset: 0x2D52BE, size: 0x8, addend: 0x0, symName: '__ZN3syn3gen5clone68_$LT$impl$u20$core..clone..Clone$u20$for$u20$syn..item..ItemEnum$GT$5clone17h6464ab27732649f4E', symObjAddr: 0x25B30, symBinAddr: 0x92AF0, symSize: 0x2F0 }
  - { offsetInCU: 0x2C835, offset: 0x2D55ED, size: 0x8, addend: 0x0, symName: '__ZN3syn3gen5clone75_$LT$impl$u20$core..clone..Clone$u20$for$u20$syn..item..ItemExternCrate$GT$5clone17hd0b8bc33744042bfE', symObjAddr: 0x25E20, symBinAddr: 0x92DE0, symSize: 0x190 }
  - { offsetInCU: 0x2CBAA, offset: 0x2D5962, size: 0x8, addend: 0x0, symName: '__ZN3syn3gen5clone66_$LT$impl$u20$core..clone..Clone$u20$for$u20$syn..item..ItemFn$GT$5clone17hdd17c93ecf7b0462E', symObjAddr: 0x25FB0, symBinAddr: 0x92F70, symSize: 0x1A0 }
  - { offsetInCU: 0x2CE59, offset: 0x2D5C11, size: 0x8, addend: 0x0, symName: '__ZN3syn3gen5clone74_$LT$impl$u20$core..clone..Clone$u20$for$u20$syn..item..ItemForeignMod$GT$5clone17hd37d574f73aedecaE', symObjAddr: 0x26150, symBinAddr: 0x93110, symSize: 0xF0 }
  - { offsetInCU: 0x2CFA2, offset: 0x2D5D5A, size: 0x8, addend: 0x0, symName: '__ZN3syn3gen5clone68_$LT$impl$u20$core..clone..Clone$u20$for$u20$syn..item..ItemImpl$GT$5clone17h661327ebe729eaadE', symObjAddr: 0x26240, symBinAddr: 0x93200, symSize: 0x400 }
  - { offsetInCU: 0x2D490, offset: 0x2D6248, size: 0x8, addend: 0x0, symName: '__ZN3syn3gen5clone69_$LT$impl$u20$core..clone..Clone$u20$for$u20$syn..item..ItemMacro$GT$5clone17h3526bbfccdbd5b31E', symObjAddr: 0x26640, symBinAddr: 0x93600, symSize: 0x110 }
  - { offsetInCU: 0x2D6FB, offset: 0x2D64B3, size: 0x8, addend: 0x0, symName: '__ZN3syn3gen5clone67_$LT$impl$u20$core..clone..Clone$u20$for$u20$syn..item..ItemMod$GT$5clone17h8794abff9978c514E', symObjAddr: 0x26750, symBinAddr: 0x93710, symSize: 0x1D0 }
  - { offsetInCU: 0x2DA03, offset: 0x2D67BB, size: 0x8, addend: 0x0, symName: '__ZN3syn3gen5clone70_$LT$impl$u20$core..clone..Clone$u20$for$u20$syn..item..ItemStatic$GT$5clone17h61a9dbf1056765ccE', symObjAddr: 0x26920, symBinAddr: 0x938E0, symSize: 0x290 }
  - { offsetInCU: 0x2E189, offset: 0x2D6F41, size: 0x8, addend: 0x0, symName: '__ZN3syn3gen5clone70_$LT$impl$u20$core..clone..Clone$u20$for$u20$syn..item..ItemStruct$GT$5clone17heb954f61bacea375E', symObjAddr: 0x26BB0, symBinAddr: 0x93B70, symSize: 0x380 }
  - { offsetInCU: 0x2E557, offset: 0x2D730F, size: 0x8, addend: 0x0, symName: '__ZN3syn3gen5clone69_$LT$impl$u20$core..clone..Clone$u20$for$u20$syn..item..ItemTrait$GT$5clone17h82453ad16e043bb6E', symObjAddr: 0x26F30, symBinAddr: 0x93EF0, symSize: 0x3A0 }
  - { offsetInCU: 0x2E8F6, offset: 0x2D76AE, size: 0x8, addend: 0x0, symName: '__ZN3syn3gen5clone74_$LT$impl$u20$core..clone..Clone$u20$for$u20$syn..item..ItemTraitAlias$GT$5clone17h5350a93e40fedfe9E', symObjAddr: 0x272D0, symBinAddr: 0x94290, symSize: 0x2F0 }
  - { offsetInCU: 0x2EC81, offset: 0x2D7A39, size: 0x8, addend: 0x0, symName: '__ZN3syn3gen5clone68_$LT$impl$u20$core..clone..Clone$u20$for$u20$syn..item..ItemType$GT$5clone17hb9556c5f3da70cdaE', symObjAddr: 0x275C0, symBinAddr: 0x94580, symSize: 0x330 }
  - { offsetInCU: 0x2F269, offset: 0x2D8021, size: 0x8, addend: 0x0, symName: '__ZN3syn3gen5clone69_$LT$impl$u20$core..clone..Clone$u20$for$u20$syn..item..ItemUnion$GT$5clone17hb2c9b467b08be8acE', symObjAddr: 0x278F0, symBinAddr: 0x948B0, symSize: 0x340 }
  - { offsetInCU: 0x2F5B7, offset: 0x2D836F, size: 0x8, addend: 0x0, symName: '__ZN3syn3gen5clone67_$LT$impl$u20$core..clone..Clone$u20$for$u20$syn..item..ItemUse$GT$5clone17h5fb5ac7ab331a1f9E', symObjAddr: 0x27C30, symBinAddr: 0x94BF0, symSize: 0x130 }
  - { offsetInCU: 0x2F677, offset: 0x2D842F, size: 0x8, addend: 0x0, symName: '__ZN3syn3gen5clone68_$LT$impl$u20$core..clone..Clone$u20$for$u20$syn..item..Receiver$GT$5clone17he1632aad4eb00ea9E', symObjAddr: 0x27D60, symBinAddr: 0x94D20, symSize: 0x1C0 }
  - { offsetInCU: 0x2FAFD, offset: 0x2D88B5, size: 0x8, addend: 0x0, symName: '__ZN3syn3gen5clone69_$LT$impl$u20$core..clone..Clone$u20$for$u20$syn..item..Signature$GT$5clone17hcd624a7329112f28E', symObjAddr: 0x27F20, symBinAddr: 0x94EE0, symSize: 0x550 }
  - { offsetInCU: 0x302CC, offset: 0x2D9084, size: 0x8, addend: 0x0, symName: '__ZN3syn3gen5clone69_$LT$impl$u20$core..clone..Clone$u20$for$u20$syn..item..TraitItem$GT$5clone17h91969da39aa9081aE', symObjAddr: 0x28470, symBinAddr: 0x95430, symSize: 0x1F0 }
  - { offsetInCU: 0x3063E, offset: 0x2D93F6, size: 0x8, addend: 0x0, symName: '__ZN3syn3gen5clone74_$LT$impl$u20$core..clone..Clone$u20$for$u20$syn..item..TraitItemConst$GT$5clone17h7b25f837a5eddbbaE', symObjAddr: 0x28660, symBinAddr: 0x95620, symSize: 0x350 }
  - { offsetInCU: 0x30A1A, offset: 0x2D97D2, size: 0x8, addend: 0x0, symName: '__ZN3syn3gen5clone71_$LT$impl$u20$core..clone..Clone$u20$for$u20$syn..item..TraitItemFn$GT$5clone17h6b12e4721dd5a3afE', symObjAddr: 0x289B0, symBinAddr: 0x95970, symSize: 0x140 }
  - { offsetInCU: 0x30AE3, offset: 0x2D989B, size: 0x8, addend: 0x0, symName: '__ZN3syn3gen5clone73_$LT$impl$u20$core..clone..Clone$u20$for$u20$syn..item..TraitItemType$GT$5clone17h03e91f5baa26948fE', symObjAddr: 0x28AF0, symBinAddr: 0x95AB0, symSize: 0x360 }
  - { offsetInCU: 0x30F70, offset: 0x2D9D28, size: 0x8, addend: 0x0, symName: '__ZN3syn3gen5clone67_$LT$impl$u20$core..clone..Clone$u20$for$u20$syn..item..UseTree$GT$5clone17hecc6e062c969de2cE', symObjAddr: 0x29140, symBinAddr: 0x95E10, symSize: 0x390 }
  - { offsetInCU: 0x31993, offset: 0x2DA74B, size: 0x8, addend: 0x0, symName: '__ZN3syn3gen5clone68_$LT$impl$u20$core..clone..Clone$u20$for$u20$syn..item..Variadic$GT$5clone17h5d88b3ac0ece19b6E', symObjAddr: 0x294D0, symBinAddr: 0x961A0, symSize: 0x110 }
  - { offsetInCU: 0x341F3, offset: 0x2DCFAB, size: 0x8, addend: 0x0, symName: '__ZN4core3ptr100drop_in_place$LT$core..option..Option$LT$alloc..boxed..Box$LT$syn..path..GenericArgument$GT$$GT$$GT$17h7435c9de74860622E', symObjAddr: 0x300, symBinAddr: 0x75B50, symSize: 0x50 }
  - { offsetInCU: 0x34593, offset: 0x2DD34B, size: 0x8, addend: 0x0, symName: '__ZN4core3ptr100drop_in_place$LT$syn..punctuated..Punctuated$LT$syn..path..PathSegment$C$syn..token..PathSep$GT$$GT$17hf414cb3581f8337aE', symObjAddr: 0x350, symBinAddr: 0x75BA0, symSize: 0x260 }
  - { offsetInCU: 0x34F2C, offset: 0x2DDCE4, size: 0x8, addend: 0x0, symName: '__ZN4core3ptr103drop_in_place$LT$core..option..Option$LT$alloc..boxed..Box$LT$syn..generics..TypeParamBound$GT$$GT$$GT$17h5974f03e36b1a9c3E', symObjAddr: 0x5C0, symBinAddr: 0x75E00, symSize: 0x50 }
  - { offsetInCU: 0x35177, offset: 0x2DDF2F, size: 0x8, addend: 0x0, symName: '__ZN4core3ptr103drop_in_place$LT$core..option..Option$LT$alloc..boxed..Box$LT$syn..generics..WherePredicate$GT$$GT$$GT$17hdd5111a374d8d6f2E', symObjAddr: 0x610, symBinAddr: 0x75E50, symSize: 0xD0 }
  - { offsetInCU: 0x3550A, offset: 0x2DE2C2, size: 0x8, addend: 0x0, symName: '__ZN4core3ptr103drop_in_place$LT$syn..punctuated..Punctuated$LT$syn..generics..GenericParam$C$syn..token..Comma$GT$$GT$17hf42353fa44ed6da8E', symObjAddr: 0x6E0, symBinAddr: 0x75F20, symSize: 0xF0 }
  - { offsetInCU: 0x35970, offset: 0x2DE728, size: 0x8, addend: 0x0, symName: '__ZN4core3ptr104drop_in_place$LT$syn..punctuated..Punctuated$LT$syn..generics..TypeParamBound$C$syn..token..Plus$GT$$GT$17h532f52c4a894b056E', symObjAddr: 0x7D0, symBinAddr: 0x76010, symSize: 0x190 }
  - { offsetInCU: 0x35F86, offset: 0x2DED3E, size: 0x8, addend: 0x0, symName: '__ZN4core3ptr107drop_in_place$LT$$LP$syn..restriction..Visibility$C$core..option..Option$LT$syn..token..Default$GT$$RP$$GT$17h8ea01d3f0e99b7f1E', symObjAddr: 0x960, symBinAddr: 0x761A0, symSize: 0x60 }
  - { offsetInCU: 0x36155, offset: 0x2DEF0D, size: 0x8, addend: 0x0, symName: '__ZN4core3ptr115drop_in_place$LT$core..option..Option$LT$$LP$alloc..boxed..Box$LT$syn..pat..Pat$GT$$C$syn..token..Colon$RP$$GT$$GT$17he854acc3c4717d92E', symObjAddr: 0x9C0, symBinAddr: 0x76200, symSize: 0x50 }
  - { offsetInCU: 0x36329, offset: 0x2DF0E1, size: 0x8, addend: 0x0, symName: '__ZN4core3ptr115drop_in_place$LT$core..option..Option$LT$$LP$syn..token..Brace$C$alloc..vec..Vec$LT$syn..item..Item$GT$$RP$$GT$$GT$17h6df5bf3d47177236E', symObjAddr: 0xA10, symBinAddr: 0x76250, symSize: 0xE0 }
  - { offsetInCU: 0x365D0, offset: 0x2DF388, size: 0x8, addend: 0x0, symName: '__ZN4core3ptr126drop_in_place$LT$core..option..Option$LT$$LP$syn..token..And$C$core..option..Option$LT$syn..lifetime..Lifetime$GT$$RP$$GT$$GT$17hc269ac95805979aaE', symObjAddr: 0xAF0, symBinAddr: 0x76330, symSize: 0x30 }
  - { offsetInCU: 0x3687F, offset: 0x2DF637, size: 0x8, addend: 0x0, symName: '__ZN4core3ptr34drop_in_place$LT$syn..lit..Lit$GT$17h8902f5ff67917034E', symObjAddr: 0xBA0, symBinAddr: 0x76360, symSize: 0x110 }
  - { offsetInCU: 0x36DB9, offset: 0x2DFB71, size: 0x8, addend: 0x0, symName: '__ZN4core3ptr34drop_in_place$LT$syn..pat..Pat$GT$17h4581eea028ec0969E', symObjAddr: 0xCB0, symBinAddr: 0x76470, symSize: 0x1000 }
  - { offsetInCU: 0x3A843, offset: 0x2E35FB, size: 0x8, addend: 0x0, symName: '__ZN4core3ptr34drop_in_place$LT$syn..ty..Type$GT$17h369e41ad4a9f1ae0E', symObjAddr: 0x1CB0, symBinAddr: 0x77470, symSize: 0x500 }
  - { offsetInCU: 0x3BDBE, offset: 0x2E4B76, size: 0x8, addend: 0x0, symName: '__ZN4core3ptr36drop_in_place$LT$syn..expr..Expr$GT$17h0f7fd4c749bae801E', symObjAddr: 0x21B0, symBinAddr: 0x77970, symSize: 0x28E0 }
  - { offsetInCU: 0x4568D, offset: 0x2EE445, size: 0x8, addend: 0x0, symName: '__ZN4core3ptr36drop_in_place$LT$syn..item..Item$GT$17h13f5a53479ba6379E', symObjAddr: 0x4A90, symBinAddr: 0x7A250, symSize: 0x1990 }
  - { offsetInCU: 0x4B338, offset: 0x2F40F0, size: 0x8, addend: 0x0, symName: '__ZN4core3ptr36drop_in_place$LT$syn..mac..Macro$GT$17h4ffde962df30ebe2E', symObjAddr: 0x6420, symBinAddr: 0x7BBE0, symSize: 0x40 }
  - { offsetInCU: 0x4B372, offset: 0x2F412A, size: 0x8, addend: 0x0, symName: '__ZN4core3ptr36drop_in_place$LT$syn..path..Path$GT$17habea856181211e1cE', symObjAddr: 0x6460, symBinAddr: 0x7BC20, symSize: 0x220 }
  - { offsetInCU: 0x4BCA7, offset: 0x2F4A5F, size: 0x8, addend: 0x0, symName: '__ZN4core3ptr37drop_in_place$LT$syn..stmt..Block$GT$17hcc21a21cf949414cE', symObjAddr: 0x6680, symBinAddr: 0x7BE40, symSize: 0xD0 }
  - { offsetInCU: 0x4BF6A, offset: 0x2F4D22, size: 0x8, addend: 0x0, symName: '__ZN4core3ptr38drop_in_place$LT$syn..data..Fields$GT$17h1dd1b203befc1316E', symObjAddr: 0x6750, symBinAddr: 0x7BF10, symSize: 0x190 }
  - { offsetInCU: 0x4C388, offset: 0x2F5140, size: 0x8, addend: 0x0, symName: '__ZN4core3ptr38drop_in_place$LT$syn..expr..Member$GT$17h022cbe5553aa40faE', symObjAddr: 0x68E0, symBinAddr: 0x7C0A0, symSize: 0x30 }
  - { offsetInCU: 0x4C485, offset: 0x2F523D, size: 0x8, addend: 0x0, symName: '__ZN4core3ptr38drop_in_place$LT$syn..pat..PatType$GT$17hcbbce80a195201a4E.llvm.3361240308741372715', symObjAddr: 0x6910, symBinAddr: 0x7C0D0, symSize: 0x140 }
  - { offsetInCU: 0x4C9CD, offset: 0x2F5785, size: 0x8, addend: 0x0, symName: '__ZN4core3ptr39drop_in_place$LT$proc_macro2..Ident$GT$17h8101e88c3ac359d6E', symObjAddr: 0x6A50, symBinAddr: 0x7C210, symSize: 0x30 }
  - { offsetInCU: 0x4CB27, offset: 0x2F58DF, size: 0x8, addend: 0x0, symName: '__ZN4core3ptr39drop_in_place$LT$syn..item..UseTree$GT$17h5b1281a5704d139dE', symObjAddr: 0x6B00, symBinAddr: 0x7C240, symSize: 0xD0 }
  - { offsetInCU: 0x4CF39, offset: 0x2F5CF1, size: 0x8, addend: 0x0, symName: '__ZN4core3ptr40drop_in_place$LT$syn..item..ImplItem$GT$17he2e6e8f15695ea55E', symObjAddr: 0x6BD0, symBinAddr: 0x7C310, symSize: 0x5E0 }
  - { offsetInCU: 0x4E004, offset: 0x2F6DBC, size: 0x8, addend: 0x0, symName: '__ZN4core3ptr40drop_in_place$LT$syn..item..Receiver$GT$17h6743a41cd869c536E.llvm.3361240308741372715', symObjAddr: 0x71B0, symBinAddr: 0x7C8F0, symSize: 0x130 }
  - { offsetInCU: 0x4E597, offset: 0x2F734F, size: 0x8, addend: 0x0, symName: '__ZN4core3ptr40drop_in_place$LT$syn..item..Variadic$GT$17h856c1da4a3922974E', symObjAddr: 0x72F0, symBinAddr: 0x7CA20, symSize: 0x120 }
  - { offsetInCU: 0x4E9C3, offset: 0x2F777B, size: 0x8, addend: 0x0, symName: '__ZN4core3ptr40drop_in_place$LT$syn..ty..ReturnType$GT$17h02cf41e2fec63d90E', symObjAddr: 0x7410, symBinAddr: 0x7CB40, symSize: 0x50 }
  - { offsetInCU: 0x4EB35, offset: 0x2F78ED, size: 0x8, addend: 0x0, symName: '__ZN4core3ptr41drop_in_place$LT$syn..expr..ExprConst$GT$17h725a13e551d9f276E', symObjAddr: 0x7460, symBinAddr: 0x7CB90, symSize: 0x180 }
  - { offsetInCU: 0x4F0A9, offset: 0x2F7E61, size: 0x8, addend: 0x0, symName: '__ZN4core3ptr41drop_in_place$LT$syn..item..Signature$GT$17h691f115807a5d1eeE', symObjAddr: 0x75E0, symBinAddr: 0x7CD10, symSize: 0x160 }
  - { offsetInCU: 0x4F7AF, offset: 0x2F8567, size: 0x8, addend: 0x0, symName: '__ZN4core3ptr41drop_in_place$LT$syn..item..TraitItem$GT$17hb6f9fbcba8fdea85E', symObjAddr: 0x7740, symBinAddr: 0x7CE70, symSize: 0x6E0 }
  - { offsetInCU: 0x50A96, offset: 0x2F984E, size: 0x8, addend: 0x0, symName: '__ZN4core3ptr42drop_in_place$LT$syn..item..ImplItemFn$GT$17h753bae801f2662d9E', symObjAddr: 0x7E70, symBinAddr: 0x7D550, symSize: 0x200 }
  - { offsetInCU: 0x51166, offset: 0x2F9F1E, size: 0x8, addend: 0x0, symName: '__ZN4core3ptr43drop_in_place$LT$syn..data..FieldsNamed$GT$17hb2a97e73a85352cbE', symObjAddr: 0x8070, symBinAddr: 0x7D750, symSize: 0xE0 }
  - { offsetInCU: 0x514D1, offset: 0x2FA289, size: 0x8, addend: 0x0, symName: '__ZN4core3ptr43drop_in_place$LT$syn..item..ForeignItem$GT$17h1398b9aa0a6e4c9dE', symObjAddr: 0x8150, symBinAddr: 0x7D830, symSize: 0x610 }
  - { offsetInCU: 0x529C3, offset: 0x2FB77B, size: 0x8, addend: 0x0, symName: '__ZN4core3ptr44drop_in_place$LT$syn..generics..Generics$GT$17h10dea28dec64f81eE', symObjAddr: 0x8760, symBinAddr: 0x7DE40, symSize: 0x40 }
  - { offsetInCU: 0x529E0, offset: 0x2FB798, size: 0x8, addend: 0x0, symName: '__ZN4core3ptr44drop_in_place$LT$syn..lifetime..Lifetime$GT$17hf0cdec2e9ec456d6E', symObjAddr: 0x87A0, symBinAddr: 0x7DE80, symSize: 0x30 }
  - { offsetInCU: 0x52B59, offset: 0x2FB911, size: 0x8, addend: 0x0, symName: '__ZN4core3ptr44drop_in_place$LT$syn..parse..ParseBuffer$GT$17hd0dadba44a19aec2E.llvm.3361240308741372715', symObjAddr: 0x87D0, symBinAddr: 0x7DEB0, symSize: 0x70 }
  - { offsetInCU: 0x52F8E, offset: 0x2FBD46, size: 0x8, addend: 0x0, symName: '__ZN4core3ptr45drop_in_place$LT$proc_macro2..TokenStream$GT$17h3405f6c513e9f6cbE', symObjAddr: 0x8840, symBinAddr: 0x7DF20, symSize: 0x140 }
  - { offsetInCU: 0x533FD, offset: 0x2FC1B5, size: 0x8, addend: 0x0, symName: '__ZN4core3ptr45drop_in_place$LT$syn..generics..TypeParam$GT$17he5eda51070b7de47E', symObjAddr: 0x8980, symBinAddr: 0x7E060, symSize: 0x230 }
  - { offsetInCU: 0x53BF9, offset: 0x2FC9B1, size: 0x8, addend: 0x0, symName: '__ZN4core3ptr46drop_in_place$LT$syn..generics..ConstParam$GT$17hab0a58c4af8c549cE', symObjAddr: 0x8BB0, symBinAddr: 0x7E290, symSize: 0x150 }
  - { offsetInCU: 0x54023, offset: 0x2FCDDB, size: 0x8, addend: 0x0, symName: '__ZN4core3ptr47drop_in_place$LT$syn..path..GenericArgument$GT$17h54f8794633f96823E', symObjAddr: 0x8D00, symBinAddr: 0x7E3E0, symSize: 0x4A0 }
  - { offsetInCU: 0x550CA, offset: 0x2FDE82, size: 0x8, addend: 0x0, symName: '__ZN4core3ptr49drop_in_place$LT$syn..generics..LifetimeParam$GT$17h41a7c7a290ea6289E', symObjAddr: 0x91A0, symBinAddr: 0x7E880, symSize: 0xF0 }
  - { offsetInCU: 0x55484, offset: 0x2FE23C, size: 0x8, addend: 0x0, symName: '__ZN4core3ptr49drop_in_place$LT$syn..restriction..Visibility$GT$17h2a932c493942ef80E', symObjAddr: 0x9290, symBinAddr: 0x7E970, symSize: 0x60 }
  - { offsetInCU: 0x5560B, offset: 0x2FE3C3, size: 0x8, addend: 0x0, symName: '__ZN4core3ptr50drop_in_place$LT$syn..generics..TypeParamBound$GT$17hcd7771d4c6c221efE', symObjAddr: 0x92F0, symBinAddr: 0x7E9D0, symSize: 0x160 }
  - { offsetInCU: 0x55A4A, offset: 0x2FE802, size: 0x8, addend: 0x0, symName: '__ZN4core3ptr58drop_in_place$LT$alloc..vec..Vec$LT$syn..expr..Arm$GT$$GT$17h1a55df3d2cba1daaE', symObjAddr: 0x9480, symBinAddr: 0x7EB30, symSize: 0xD0 }
  - { offsetInCU: 0x55CD7, offset: 0x2FEA8F, size: 0x8, addend: 0x0, symName: '__ZN4core3ptr59drop_in_place$LT$alloc..boxed..Box$LT$syn..pat..Pat$GT$$GT$17h563b135d87aca8abE', symObjAddr: 0x9550, symBinAddr: 0x7EC00, symSize: 0x50 }
  - { offsetInCU: 0x55E32, offset: 0x2FEBEA, size: 0x8, addend: 0x0, symName: '__ZN4core3ptr59drop_in_place$LT$alloc..boxed..Box$LT$syn..ty..Type$GT$$GT$17hffed36bad83adacbE', symObjAddr: 0x95A0, symBinAddr: 0x7EC50, symSize: 0x50 }
  - { offsetInCU: 0x55F8D, offset: 0x2FED45, size: 0x8, addend: 0x0, symName: '__ZN4core3ptr59drop_in_place$LT$alloc..vec..Vec$LT$syn..item..Item$GT$$GT$17hf874c2ed1282c93cE', symObjAddr: 0x95F0, symBinAddr: 0x7ECA0, symSize: 0xD0 }
  - { offsetInCU: 0x5621A, offset: 0x2FEFD2, size: 0x8, addend: 0x0, symName: '__ZN4core3ptr59drop_in_place$LT$alloc..vec..Vec$LT$syn..stmt..Stmt$GT$$GT$17hb5c1acf3c61c43e2E', symObjAddr: 0x96C0, symBinAddr: 0x7ED70, symSize: 0xD0 }
  - { offsetInCU: 0x564A7, offset: 0x2FF25F, size: 0x8, addend: 0x0, symName: '__ZN4core3ptr61drop_in_place$LT$alloc..boxed..Box$LT$syn..expr..Expr$GT$$GT$17h01091e47f131475dE', symObjAddr: 0x9790, symBinAddr: 0x7EE40, symSize: 0x50 }
  - { offsetInCU: 0x5667E, offset: 0x2FF436, size: 0x8, addend: 0x0, symName: '__ZN4core3ptr61drop_in_place$LT$syn..path..ParenthesizedGenericArguments$GT$17h43d4aac5494326a7E', symObjAddr: 0x9850, symBinAddr: 0x7EE90, symSize: 0x170 }
  - { offsetInCU: 0x56C45, offset: 0x2FF9FD, size: 0x8, addend: 0x0, symName: '__ZN4core3ptr62drop_in_place$LT$alloc..boxed..Box$LT$syn..stmt..Block$GT$$GT$17h30434998ae0f12a8E', symObjAddr: 0x99C0, symBinAddr: 0x7F000, symSize: 0xE0 }
  - { offsetInCU: 0x57026, offset: 0x2FFDDE, size: 0x8, addend: 0x0, symName: '__ZN4core3ptr62drop_in_place$LT$syn..path..AngleBracketedGenericArguments$GT$17hc5b69f68243636ddE', symObjAddr: 0x9AA0, symBinAddr: 0x7F0E0, symSize: 0x120 }
  - { offsetInCU: 0x5743C, offset: 0x3001F4, size: 0x8, addend: 0x0, symName: '__ZN4core3ptr63drop_in_place$LT$alloc..boxed..Box$LT$syn..lit..LitRepr$GT$$GT$17hd8839b7fb35ee7afE', symObjAddr: 0x9BC0, symBinAddr: 0x7F200, symSize: 0x60 }
  - { offsetInCU: 0x57712, offset: 0x3004CA, size: 0x8, addend: 0x0, symName: '__ZN4core3ptr63drop_in_place$LT$alloc..vec..Vec$LT$syn..item..ImplItem$GT$$GT$17hda9ba61cc1df3d0eE', symObjAddr: 0x9C20, symBinAddr: 0x7F260, symSize: 0x80 }
  - { offsetInCU: 0x579AF, offset: 0x300767, size: 0x8, addend: 0x0, symName: '__ZN4core3ptr64drop_in_place$LT$alloc..boxed..Box$LT$syn..item..UseTree$GT$$GT$17he10cba0a4742709fE', symObjAddr: 0x9CA0, symBinAddr: 0x7F2E0, symSize: 0xF0 }
  - { offsetInCU: 0x57EEF, offset: 0x300CA7, size: 0x8, addend: 0x0, symName: '__ZN4core3ptr64drop_in_place$LT$alloc..boxed..Box$LT$syn..pat..FieldPat$GT$$GT$17h4980b70a7597cc08E', symObjAddr: 0x9D90, symBinAddr: 0x7F3D0, symSize: 0x140 }
  - { offsetInCU: 0x5859A, offset: 0x301352, size: 0x8, addend: 0x0, symName: '__ZN4core3ptr64drop_in_place$LT$alloc..boxed..Box$LT$syn..ty..BareFnArg$GT$$GT$17h8b34096c620314efE', symObjAddr: 0x9ED0, symBinAddr: 0x7F510, symSize: 0x140 }
  - { offsetInCU: 0x58ABE, offset: 0x301876, size: 0x8, addend: 0x0, symName: '__ZN4core3ptr64drop_in_place$LT$alloc..vec..Vec$LT$syn..attr..Attribute$GT$$GT$17h3c8f2a04e701c675E', symObjAddr: 0xA010, symBinAddr: 0x7F650, symSize: 0xD0 }
  - { offsetInCU: 0x58D4B, offset: 0x301B03, size: 0x8, addend: 0x0, symName: '__ZN4core3ptr64drop_in_place$LT$alloc..vec..Vec$LT$syn..item..TraitItem$GT$$GT$17h60eb4b8666c57b93E', symObjAddr: 0xA0E0, symBinAddr: 0x7F720, symSize: 0x80 }
  - { offsetInCU: 0x58FC9, offset: 0x301D81, size: 0x8, addend: 0x0, symName: '__ZN4core3ptr65drop_in_place$LT$core..option..Option$LT$syn..expr..Label$GT$$GT$17h78189e72a8cb7951E', symObjAddr: 0xA160, symBinAddr: 0x7F7A0, symSize: 0x30 }
  - { offsetInCU: 0x59104, offset: 0x301EBC, size: 0x8, addend: 0x0, symName: '__ZN4core3ptr66drop_in_place$LT$alloc..vec..Vec$LT$syn..item..ForeignItem$GT$$GT$17h3e58b8e683c84cf4E', symObjAddr: 0xA270, symBinAddr: 0x7F7D0, symSize: 0x80 }
  - { offsetInCU: 0x59382, offset: 0x30213A, size: 0x8, addend: 0x0, symName: '__ZN4core3ptr66drop_in_place$LT$core..option..Option$LT$syn..pat..PatRest$GT$$GT$17h61677cf4ff3a7393E', symObjAddr: 0xA2F0, symBinAddr: 0x7F850, symSize: 0xE0 }
  - { offsetInCU: 0x59606, offset: 0x3023BE, size: 0x8, addend: 0x0, symName: '__ZN4core3ptr67drop_in_place$LT$alloc..boxed..Box$LT$syn..expr..FieldValue$GT$$GT$17h93aaccf8aa22ef88E', symObjAddr: 0xA3D0, symBinAddr: 0x7F930, symSize: 0x140 }
  - { offsetInCU: 0x59B0A, offset: 0x3028C2, size: 0x8, addend: 0x0, symName: '__ZN4core3ptr67drop_in_place$LT$core..option..Option$LT$proc_macro2..Ident$GT$$GT$17hec63a294be1dc410E', symObjAddr: 0xA510, symBinAddr: 0x7FA70, symSize: 0x30 }
  - { offsetInCU: 0x59C07, offset: 0x3029BF, size: 0x8, addend: 0x0, symName: '__ZN4core3ptr68drop_in_place$LT$alloc..boxed..Box$LT$syn..path..PathSegment$GT$$GT$17h709dabdc13b58a71E', symObjAddr: 0xA540, symBinAddr: 0x7FAA0, symSize: 0x190 }
  - { offsetInCU: 0x5A2E5, offset: 0x30309D, size: 0x8, addend: 0x0, symName: '__ZN4core3ptr70drop_in_place$LT$core..option..Option$LT$syn..ty..BareVariadic$GT$$GT$17h45399348ea4b8d55E', symObjAddr: 0xA6F0, symBinAddr: 0x7FC30, symSize: 0x120 }
  - { offsetInCU: 0x5A812, offset: 0x3035CA, size: 0x8, addend: 0x0, symName: '__ZN4core3ptr72drop_in_place$LT$alloc..boxed..Box$LT$syn..path..GenericArgument$GT$$GT$17haa7dd8b716637b54E', symObjAddr: 0xA810, symBinAddr: 0x7FD50, symSize: 0x1D0 }
  - { offsetInCU: 0x5ADB5, offset: 0x303B6D, size: 0x8, addend: 0x0, symName: '__ZN4core3ptr72drop_in_place$LT$core..option..Option$LT$syn..lifetime..Lifetime$GT$$GT$17hfc363ccdd8bd9c32E', symObjAddr: 0xA9E0, symBinAddr: 0x7FF20, symSize: 0x30 }
  - { offsetInCU: 0x5AED1, offset: 0x303C89, size: 0x8, addend: 0x0, symName: '__ZN4core3ptr73drop_in_place$LT$alloc..boxed..Box$LT$syn..generics..GenericParam$GT$$GT$17hf6951dcd5ae07324E', symObjAddr: 0xAA10, symBinAddr: 0x7FF50, symSize: 0x80 }
  - { offsetInCU: 0x5B049, offset: 0x303E01, size: 0x8, addend: 0x0, symName: '__ZN4core3ptr75drop_in_place$LT$alloc..boxed..Box$LT$syn..generics..TypeParamBound$GT$$GT$17he61c00698a311a34E', symObjAddr: 0xAA90, symBinAddr: 0x7FFD0, symSize: 0xB0 }
  - { offsetInCU: 0x5B3C3, offset: 0x30417B, size: 0x8, addend: 0x0, symName: '__ZN4core3ptr75drop_in_place$LT$core..option..Option$LT$syn..generics..WhereClause$GT$$GT$17hdce7670be9790a3dE', symObjAddr: 0xAB40, symBinAddr: 0x80080, symSize: 0x90 }
  - { offsetInCU: 0x5B679, offset: 0x304431, size: 0x8, addend: 0x0, symName: '__ZN4core3ptr86drop_in_place$LT$syn..punctuated..Punctuated$LT$syn..pat..Pat$C$syn..token..Or$GT$$GT$17h8e9173df21a44316E', symObjAddr: 0xABE0, symBinAddr: 0x80110, symSize: 0x120 }
  - { offsetInCU: 0x5BABF, offset: 0x304877, size: 0x8, addend: 0x0, symName: '__ZN4core3ptr87drop_in_place$LT$core..option..Option$LT$alloc..boxed..Box$LT$syn..pat..Pat$GT$$GT$$GT$17hd7b7c69f601b3926E', symObjAddr: 0xAD20, symBinAddr: 0x80230, symSize: 0x50 }
  - { offsetInCU: 0x5BC31, offset: 0x3049E9, size: 0x8, addend: 0x0, symName: '__ZN4core3ptr87drop_in_place$LT$core..option..Option$LT$alloc..boxed..Box$LT$syn..ty..Type$GT$$GT$$GT$17hd74f5d971aec2972E', symObjAddr: 0xAD70, symBinAddr: 0x80280, symSize: 0x50 }
  - { offsetInCU: 0x5BDA3, offset: 0x304B5B, size: 0x8, addend: 0x0, symName: '__ZN4core3ptr89drop_in_place$LT$core..option..Option$LT$alloc..boxed..Box$LT$syn..expr..Expr$GT$$GT$$GT$17h8e135ac1a25a2dc5E', symObjAddr: 0xADE0, symBinAddr: 0x802D0, symSize: 0x50 }
  - { offsetInCU: 0x5BF53, offset: 0x304D0B, size: 0x8, addend: 0x0, symName: '__ZN4core3ptr89drop_in_place$LT$syn..punctuated..Punctuated$LT$syn..pat..Pat$C$syn..token..Comma$GT$$GT$17h8d60e47f3fb1f87aE', symObjAddr: 0xAE30, symBinAddr: 0x80320, symSize: 0x120 }
  - { offsetInCU: 0x5C3B0, offset: 0x305168, size: 0x8, addend: 0x0, symName: '__ZN4core3ptr89drop_in_place$LT$syn..punctuated..Punctuated$LT$syn..ty..Type$C$syn..token..Comma$GT$$GT$17ha919b3114742fb9dE', symObjAddr: 0xAF50, symBinAddr: 0x80440, symSize: 0x120 }
  - { offsetInCU: 0x5C838, offset: 0x3055F0, size: 0x8, addend: 0x0, symName: '__ZN4core3ptr90drop_in_place$LT$core..option..Option$LT$alloc..boxed..Box$LT$syn..data..Field$GT$$GT$$GT$17h326c39537b0fcc46E', symObjAddr: 0xB070, symBinAddr: 0x80560, symSize: 0x200 }
  - { offsetInCU: 0x5D0A1, offset: 0x305E59, size: 0x8, addend: 0x0, symName: '__ZN4core3ptr90drop_in_place$LT$core..option..Option$LT$alloc..boxed..Box$LT$syn..item..FnArg$GT$$GT$$GT$17hbae3fdd388277508E', symObjAddr: 0xB270, symBinAddr: 0x80760, symSize: 0x60 }
  - { offsetInCU: 0x5D21D, offset: 0x305FD5, size: 0x8, addend: 0x0, symName: '__ZN4core3ptr90drop_in_place$LT$core..option..Option$LT$syn..path..AngleBracketedGenericArguments$GT$$GT$17h80d9a5f0818c8bd9E', symObjAddr: 0xB2D0, symBinAddr: 0x807C0, symSize: 0x130 }
  - { offsetInCU: 0x5D688, offset: 0x306440, size: 0x8, addend: 0x0, symName: '__ZN4core3ptr91drop_in_place$LT$syn..punctuated..Punctuated$LT$syn..expr..Expr$C$syn..token..Comma$GT$$GT$17h4f39b83dc86a4159E', symObjAddr: 0xB400, symBinAddr: 0x808F0, symSize: 0x120 }
  - { offsetInCU: 0x5DAE5, offset: 0x30689D, size: 0x8, addend: 0x0, symName: '__ZN4core3ptr92drop_in_place$LT$core..option..Option$LT$$LP$syn..token..As$C$proc_macro2..Ident$RP$$GT$$GT$17h5c1a47ccb35d9d7eE', symObjAddr: 0xB520, symBinAddr: 0x80A10, symSize: 0x30 }
  - { offsetInCU: 0x5DC3F, offset: 0x3069F7, size: 0x8, addend: 0x0, symName: '__ZN4core3ptr92drop_in_place$LT$core..option..Option$LT$alloc..boxed..Box$LT$syn..data..Variant$GT$$GT$$GT$17h3f89d7c982191526E', symObjAddr: 0xB550, symBinAddr: 0x80A40, symSize: 0x190 }
  - { offsetInCU: 0x5E2E8, offset: 0x3070A0, size: 0x8, addend: 0x0, symName: '__ZN4core3ptr92drop_in_place$LT$syn..punctuated..Punctuated$LT$syn..item..FnArg$C$syn..token..Comma$GT$$GT$17h75db9d232662c7d3E', symObjAddr: 0xB6E0, symBinAddr: 0x80BD0, symSize: 0x140 }
  - { offsetInCU: 0x5E736, offset: 0x3074EE, size: 0x8, addend: 0x0, symName: '__ZN4core3ptr94drop_in_place$LT$syn..punctuated..Punctuated$LT$syn..data..Variant$C$syn..token..Comma$GT$$GT$17ha69d7e675441c7e2E', symObjAddr: 0xB820, symBinAddr: 0x80D10, symSize: 0xE0 }
  - { offsetInCU: 0x5EA63, offset: 0x30781B, size: 0x8, addend: 0x0, symName: '__ZN4core3ptr94drop_in_place$LT$syn..punctuated..Punctuated$LT$syn..item..UseTree$C$syn..token..Comma$GT$$GT$17h4e4f303ffad9f549E', symObjAddr: 0xB900, symBinAddr: 0x80DF0, symSize: 0xF0 }
  - { offsetInCU: 0x5ED74, offset: 0x307B2C, size: 0x8, addend: 0x0, symName: '__ZN4core3ptr94drop_in_place$LT$syn..punctuated..Punctuated$LT$syn..pat..FieldPat$C$syn..token..Comma$GT$$GT$17h112950ea198c8281E', symObjAddr: 0xB9F0, symBinAddr: 0x80EE0, symSize: 0xF0 }
  - { offsetInCU: 0x5F03E, offset: 0x307DF6, size: 0x8, addend: 0x0, symName: '__ZN4core3ptr94drop_in_place$LT$syn..punctuated..Punctuated$LT$syn..ty..BareFnArg$C$syn..token..Comma$GT$$GT$17h1c7b44310f06243dE', symObjAddr: 0xBAE0, symBinAddr: 0x80FD0, symSize: 0xF0 }
  - { offsetInCU: 0x5F308, offset: 0x3080C0, size: 0x8, addend: 0x0, symName: '__ZN4core3ptr96drop_in_place$LT$core..option..Option$LT$alloc..boxed..Box$LT$syn..path..PathSegment$GT$$GT$$GT$17hb447d0f626c86a4eE', symObjAddr: 0xBBD0, symBinAddr: 0x810C0, symSize: 0x90 }
  - { offsetInCU: 0x5F58A, offset: 0x308342, size: 0x8, addend: 0x0, symName: '__ZN4core3ptr97drop_in_place$LT$syn..punctuated..Punctuated$LT$syn..expr..FieldValue$C$syn..token..Comma$GT$$GT$17h31b81f7462228dcbE', symObjAddr: 0xBC60, symBinAddr: 0x81150, symSize: 0xF0 }
  - { offsetInCU: 0x5F854, offset: 0x30860C, size: 0x8, addend: 0x0, symName: '__ZN4core3ptr98drop_in_place$LT$alloc..vec..Vec$LT$$LP$syn..path..GenericArgument$C$syn..token..Comma$RP$$GT$$GT$17h0657ff261f33b640E', symObjAddr: 0xBD50, symBinAddr: 0x81240, symSize: 0xD0 }
  - { offsetInCU: 0x5FB5D, offset: 0x308915, size: 0x8, addend: 0x0, symName: '__ZN4core3ptr98drop_in_place$LT$syn..punctuated..Punctuated$LT$syn..lifetime..Lifetime$C$syn..token..Plus$GT$$GT$17h0f8fc5f20f465f47E', symObjAddr: 0xBE20, symBinAddr: 0x81310, symSize: 0xC0 }
  - { offsetInCU: 0x6C7AE, offset: 0x315566, size: 0x8, addend: 0x0, symName: '__ZN5alloc3vec16Vec$LT$T$C$A$GT$4push17hee7056fca81de2b5E', symObjAddr: 0xC0D0, symBinAddr: 0x813D0, symSize: 0x60 }
  - { offsetInCU: 0x6C9E8, offset: 0x3157A0, size: 0x8, addend: 0x0, symName: '__ZN5alloc3vec16Vec$LT$T$C$A$GT$6append17h429b9c0d32835dc0E', symObjAddr: 0xC130, symBinAddr: 0x81430, symSize: 0x80 }
  - { offsetInCU: 0x6CC9D, offset: 0x315A55, size: 0x8, addend: 0x0, symName: __ZN3syn4item4Item13replace_attrs17hc89b3448d1af9bc5E, symObjAddr: 0xCC00, symBinAddr: 0x814B0, symSize: 0x1C0 }
  - { offsetInCU: 0x1E, offset: 0x323BAD, size: 0x8, addend: 0x0, symName: '__ZN4core3ptr100drop_in_place$LT$alloc..vec..Vec$LT$$LP$syn..generics..TypeParamBound$C$syn..token..Plus$RP$$GT$$GT$17h8b4df1d78e856f8eE.llvm.720949811486110776', symObjAddr: 0x0, symBinAddr: 0x962B0, symSize: 0xD0 }
  - { offsetInCU: 0x35, offset: 0x323BC4, size: 0x8, addend: 0x0, symName: _anon.756ee204431677f15e0e7c03ad545a45.3.llvm.720949811486110776, symObjAddr: 0x12B48, symBinAddr: 0x2A4E98, symSize: 0x0 }
  - { offsetInCU: 0x134E, offset: 0x324EDD, size: 0x8, addend: 0x0, symName: '__ZN111_$LT$syn..punctuated..PrivateIter$LT$T$C$P$GT$$u20$as$u20$core..iter..traits..exact_size..ExactSizeIterator$GT$3len17h1cf8b173bc2fb53fE.llvm.720949811486110776', symObjAddr: 0x10370, symBinAddr: 0xA3790, symSize: 0x0 }
  - { offsetInCU: 0x1440, offset: 0x324FCF, size: 0x8, addend: 0x0, symName: '__ZN111_$LT$syn..punctuated..PrivateIter$LT$T$C$P$GT$$u20$as$u20$core..iter..traits..exact_size..ExactSizeIterator$GT$3len17hfca8917a1308f638E.llvm.720949811486110776', symObjAddr: 0x103F0, symBinAddr: 0xA37C0, symSize: 0x0 }
  - { offsetInCU: 0x165D, offset: 0x3251EC, size: 0x8, addend: 0x0, symName: '__ZN115_$LT$syn..punctuated..PrivateIter$LT$T$C$P$GT$$u20$as$u20$core..iter..traits..double_ended..DoubleEndedIterator$GT$9next_back17h00773bc662e81ae7E.llvm.720949811486110776', symObjAddr: 0x102B0, symBinAddr: 0xA3730, symSize: 0x0 }
  - { offsetInCU: 0x18FC, offset: 0x32548B, size: 0x8, addend: 0x0, symName: '__ZN115_$LT$syn..punctuated..PrivateIter$LT$T$C$P$GT$$u20$as$u20$core..iter..traits..double_ended..DoubleEndedIterator$GT$9next_back17h4e161a362cd3236cE.llvm.720949811486110776', symObjAddr: 0x10310, symBinAddr: 0xA3760, symSize: 0x0 }
  - { offsetInCU: 0x1DF7, offset: 0x325986, size: 0x8, addend: 0x0, symName: '__ZN100_$LT$syn..punctuated..PrivateIter$LT$T$C$P$GT$$u20$as$u20$core..iter..traits..iterator..Iterator$GT$4next17h2288f88597771eccE.llvm.720949811486110776', symObjAddr: 0x101F0, symBinAddr: 0xA3670, symSize: 0x30 }
  - { offsetInCU: 0x208D, offset: 0x325C1C, size: 0x8, addend: 0x0, symName: '__ZN100_$LT$syn..punctuated..PrivateIter$LT$T$C$P$GT$$u20$as$u20$core..iter..traits..iterator..Iterator$GT$4next17h2b2ca8d3435ec515E.llvm.720949811486110776', symObjAddr: 0x10220, symBinAddr: 0xA36A0, symSize: 0x30 }
  - { offsetInCU: 0x2323, offset: 0x325EB2, size: 0x8, addend: 0x0, symName: '__ZN100_$LT$syn..punctuated..PrivateIter$LT$T$C$P$GT$$u20$as$u20$core..iter..traits..iterator..Iterator$GT$4next17h2b5c344e5c67057fE.llvm.720949811486110776', symObjAddr: 0x10250, symBinAddr: 0xA36D0, symSize: 0x0 }
  - { offsetInCU: 0x25B9, offset: 0x326148, size: 0x8, addend: 0x0, symName: '__ZN100_$LT$syn..punctuated..PrivateIter$LT$T$C$P$GT$$u20$as$u20$core..iter..traits..iterator..Iterator$GT$4next17hf77cc5e76ff9bb52E.llvm.720949811486110776', symObjAddr: 0x10280, symBinAddr: 0xA3700, symSize: 0x0 }
  - { offsetInCU: 0x2D6D, offset: 0x3268FC, size: 0x8, addend: 0x0, symName: '__ZN79_$LT$syn..punctuated..Punctuated$LT$T$C$P$GT$$u20$as$u20$core..clone..Clone$GT$5clone17h1b6336e2635a9e8fE', symObjAddr: 0xC9B0, symBinAddr: 0xA1E70, symSize: 0x110 }
  - { offsetInCU: 0x3170, offset: 0x326CFF, size: 0x8, addend: 0x0, symName: '__ZN79_$LT$syn..punctuated..Punctuated$LT$T$C$P$GT$$u20$as$u20$core..clone..Clone$GT$5clone17h216d0cc9fdbbad96E', symObjAddr: 0xCAC0, symBinAddr: 0xA1F80, symSize: 0x2C0 }
  - { offsetInCU: 0x36B2, offset: 0x327241, size: 0x8, addend: 0x0, symName: '__ZN79_$LT$syn..punctuated..Punctuated$LT$T$C$P$GT$$u20$as$u20$core..clone..Clone$GT$5clone17h401205d976f2a24fE', symObjAddr: 0xCD80, symBinAddr: 0xA2240, symSize: 0xE0 }
  - { offsetInCU: 0x397C, offset: 0x32750B, size: 0x8, addend: 0x0, symName: '__ZN79_$LT$syn..punctuated..Punctuated$LT$T$C$P$GT$$u20$as$u20$core..clone..Clone$GT$5clone17h46c0276e4a1ee5d5E', symObjAddr: 0xCE60, symBinAddr: 0xA2320, symSize: 0x230 }
  - { offsetInCU: 0x3CA8, offset: 0x327837, size: 0x8, addend: 0x0, symName: '__ZN79_$LT$syn..punctuated..Punctuated$LT$T$C$P$GT$$u20$as$u20$core..clone..Clone$GT$5clone17h52bdce65b2924a44E', symObjAddr: 0xD170, symBinAddr: 0xA2550, symSize: 0xE0 }
  - { offsetInCU: 0x3F72, offset: 0x327B01, size: 0x8, addend: 0x0, symName: '__ZN79_$LT$syn..punctuated..Punctuated$LT$T$C$P$GT$$u20$as$u20$core..clone..Clone$GT$5clone17h6e5c167729c6dc97E', symObjAddr: 0xD330, symBinAddr: 0xA2630, symSize: 0x1C0 }
  - { offsetInCU: 0x42BC, offset: 0x327E4B, size: 0x8, addend: 0x0, symName: '__ZN79_$LT$syn..punctuated..Punctuated$LT$T$C$P$GT$$u20$as$u20$core..clone..Clone$GT$5clone17ha8c279133d54c43aE', symObjAddr: 0xD5F0, symBinAddr: 0xA27F0, symSize: 0xE0 }
  - { offsetInCU: 0x4585, offset: 0x328114, size: 0x8, addend: 0x0, symName: '__ZN79_$LT$syn..punctuated..Punctuated$LT$T$C$P$GT$$u20$as$u20$core..clone..Clone$GT$5clone17hc59117e85ed64290E', symObjAddr: 0xD8B0, symBinAddr: 0xA28D0, symSize: 0xE0 }
  - { offsetInCU: 0x484F, offset: 0x3283DE, size: 0x8, addend: 0x0, symName: '__ZN79_$LT$syn..punctuated..Punctuated$LT$T$C$P$GT$$u20$as$u20$core..clone..Clone$GT$5clone17hca4078c0b112b9bbE', symObjAddr: 0xD990, symBinAddr: 0xA29B0, symSize: 0x140 }
  - { offsetInCU: 0x4CF1, offset: 0x328880, size: 0x8, addend: 0x0, symName: '__ZN79_$LT$syn..punctuated..Punctuated$LT$T$C$P$GT$$u20$as$u20$core..clone..Clone$GT$5clone17heb9ec5c115753a9eE', symObjAddr: 0xDAD0, symBinAddr: 0xA2AF0, symSize: 0xE0 }
  - { offsetInCU: 0x4FBB, offset: 0x328B4A, size: 0x8, addend: 0x0, symName: '__ZN79_$LT$syn..punctuated..Punctuated$LT$T$C$P$GT$$u20$as$u20$core..clone..Clone$GT$5clone17hfc802b453cbd89a2E', symObjAddr: 0xDBB0, symBinAddr: 0xA2BD0, symSize: 0xE0 }
  - { offsetInCU: 0x53A9, offset: 0x328F38, size: 0x8, addend: 0x0, symName: '__ZN138_$LT$syn..punctuated..Punctuated$LT$T$C$P$GT$$u20$as$u20$core..iter..traits..collect..Extend$LT$syn..punctuated..Pair$LT$T$C$P$GT$$GT$$GT$6extend17h0c12569780469b5fE', symObjAddr: 0xF390, symBinAddr: 0xA2CB0, symSize: 0x370 }
  - { offsetInCU: 0x5967, offset: 0x3294F6, size: 0x8, addend: 0x0, symName: '__ZN102_$LT$syn..punctuated..Punctuated$LT$T$C$P$GT$$u20$as$u20$core..iter..traits..collect..IntoIterator$GT$9into_iter17h07470649a82de9dfE', symObjAddr: 0xF700, symBinAddr: 0xA3020, symSize: 0x220 }
  - { offsetInCU: 0x61D0, offset: 0x329D5F, size: 0x8, addend: 0x0, symName: '__ZN102_$LT$syn..punctuated..Punctuated$LT$T$C$P$GT$$u20$as$u20$core..iter..traits..collect..IntoIterator$GT$9into_iter17h197a4a8cb0ab59c5E', symObjAddr: 0xF920, symBinAddr: 0xA3240, symSize: 0x220 }
  - { offsetInCU: 0x6A39, offset: 0x32A5C8, size: 0x8, addend: 0x0, symName: '__ZN102_$LT$syn..punctuated..Punctuated$LT$T$C$P$GT$$u20$as$u20$core..iter..traits..collect..IntoIterator$GT$9into_iter17h19dc66090da1f9fdE', symObjAddr: 0xFB40, symBinAddr: 0xA3460, symSize: 0x210 }
  - { offsetInCU: 0x7AFD, offset: 0x32B68C, size: 0x8, addend: 0x0, symName: '__ZN57_$LT$I$u20$as$u20$syn..punctuated..IterTrait$LT$T$GT$$GT$9clone_box17h1c27db5382a2680bE.llvm.720949811486110776', symObjAddr: 0x10420, symBinAddr: 0xA37F0, symSize: 0x60 }
  - { offsetInCU: 0x7D11, offset: 0x32B8A0, size: 0x8, addend: 0x0, symName: '__ZN57_$LT$I$u20$as$u20$syn..punctuated..IterTrait$LT$T$GT$$GT$9clone_box17h362a9bc845fd49e4E.llvm.720949811486110776', symObjAddr: 0x10480, symBinAddr: 0xA3850, symSize: 0x60 }
  - { offsetInCU: 0x7F2B, offset: 0x32BABA, size: 0x8, addend: 0x0, symName: '__ZN97_$LT$syn..punctuated..Punctuated$LT$T$C$P$GT$$u20$as$u20$core..ops..index..Index$LT$usize$GT$$GT$5index17h4f8cb199669a0d4aE', symObjAddr: 0x105C0, symBinAddr: 0xA38B0, symSize: 0x40 }
  - { offsetInCU: 0x8071, offset: 0x32BC00, size: 0x8, addend: 0x0, symName: '__ZN3syn10punctuated8printing91_$LT$impl$u20$quote..to_tokens..ToTokens$u20$for$u20$syn..punctuated..Pair$LT$T$C$P$GT$$GT$9to_tokens17h1946c43ec2d8cf8fE', symObjAddr: 0x10890, symBinAddr: 0xA3AA0, symSize: 0xC0 }
  - { offsetInCU: 0x8262, offset: 0x32BDF1, size: 0x8, addend: 0x0, symName: '__ZN3syn10punctuated8printing97_$LT$impl$u20$quote..to_tokens..ToTokens$u20$for$u20$syn..punctuated..Punctuated$LT$T$C$P$GT$$GT$9to_tokens17h183c223efb5c6660E', symObjAddr: 0x106E0, symBinAddr: 0xA38F0, symSize: 0x1B0 }
  - { offsetInCU: 0x12742, offset: 0x3362D1, size: 0x8, addend: 0x0, symName: '__ZN4core3ptr100drop_in_place$LT$alloc..vec..Vec$LT$$LP$syn..generics..TypeParamBound$C$syn..token..Plus$RP$$GT$$GT$17h8b4df1d78e856f8eE.llvm.720949811486110776', symObjAddr: 0x0, symBinAddr: 0x962B0, symSize: 0xD0 }
  - { offsetInCU: 0x129EE, offset: 0x33657D, size: 0x8, addend: 0x0, symName: '__ZN4core3ptr100drop_in_place$LT$core..option..Option$LT$alloc..boxed..Box$LT$syn..path..GenericArgument$GT$$GT$$GT$17h7435c9de74860622E.llvm.720949811486110776', symObjAddr: 0xD0, symBinAddr: 0x96380, symSize: 0x50 }
  - { offsetInCU: 0x12BDC, offset: 0x33676B, size: 0x8, addend: 0x0, symName: '__ZN4core3ptr100drop_in_place$LT$syn..punctuated..Punctuated$LT$syn..path..PathSegment$C$syn..token..PathSep$GT$$GT$17hf414cb3581f8337aE', symObjAddr: 0x120, symBinAddr: 0x963D0, symSize: 0x110 }
  - { offsetInCU: 0x12FFA, offset: 0x336B89, size: 0x8, addend: 0x0, symName: '__ZN4core3ptr101drop_in_place$LT$alloc..vec..Vec$LT$$LP$syn..generics..WherePredicate$C$syn..token..Comma$RP$$GT$$GT$17hb2169051094b4da6E.llvm.720949811486110776', symObjAddr: 0x230, symBinAddr: 0x964E0, symSize: 0x60 }
  - { offsetInCU: 0x13202, offset: 0x336D91, size: 0x8, addend: 0x0, symName: '__ZN4core3ptr101drop_in_place$LT$syn..punctuated..PrivateIter$LT$syn..path..PathSegment$C$syn..token..PathSep$GT$$GT$17hf6d6997603b255a8E.llvm.720949811486110776', symObjAddr: 0x290, symBinAddr: 0x96540, symSize: 0x0 }
  - { offsetInCU: 0x1328B, offset: 0x336E1A, size: 0x8, addend: 0x0, symName: '__ZN4core3ptr102drop_in_place$LT$syn..punctuated..Punctuated$LT$syn..path..GenericArgument$C$syn..token..Comma$GT$$GT$17h39496ba4e6dba6cfE', symObjAddr: 0x2A0, symBinAddr: 0x96550, symSize: 0xF0 }
  - { offsetInCU: 0x13574, offset: 0x337103, size: 0x8, addend: 0x0, symName: '__ZN4core3ptr103drop_in_place$LT$core..option..Option$LT$alloc..boxed..Box$LT$syn..generics..TypeParamBound$GT$$GT$$GT$17h5974f03e36b1a9c3E.llvm.720949811486110776', symObjAddr: 0x390, symBinAddr: 0x96640, symSize: 0x50 }
  - { offsetInCU: 0x13781, offset: 0x337310, size: 0x8, addend: 0x0, symName: '__ZN4core3ptr103drop_in_place$LT$syn..punctuated..Punctuated$LT$syn..generics..GenericParam$C$syn..token..Comma$GT$$GT$17hf42353fa44ed6da8E.llvm.720949811486110776', symObjAddr: 0x3E0, symBinAddr: 0x96690, symSize: 0xF0 }
  - { offsetInCU: 0x13CA1, offset: 0x337830, size: 0x8, addend: 0x0, symName: '__ZN4core3ptr104drop_in_place$LT$syn..punctuated..Punctuated$LT$syn..generics..TypeParamBound$C$syn..token..Plus$GT$$GT$17h532f52c4a894b056E.llvm.720949811486110776', symObjAddr: 0x4D0, symBinAddr: 0x96780, symSize: 0x190 }
  - { offsetInCU: 0x14314, offset: 0x337EA3, size: 0x8, addend: 0x0, symName: '__ZN4core3ptr34drop_in_place$LT$syn..lit..Lit$GT$17h8902f5ff67917034E', symObjAddr: 0x660, symBinAddr: 0x96910, symSize: 0x110 }
  - { offsetInCU: 0x1488C, offset: 0x33841B, size: 0x8, addend: 0x0, symName: '__ZN4core3ptr34drop_in_place$LT$syn..pat..Pat$GT$17h4581eea028ec0969E.llvm.720949811486110776', symObjAddr: 0x770, symBinAddr: 0x96A20, symSize: 0x1000 }
  - { offsetInCU: 0x183D0, offset: 0x33BF5F, size: 0x8, addend: 0x0, symName: '__ZN4core3ptr34drop_in_place$LT$syn..ty..Type$GT$17h369e41ad4a9f1ae0E.llvm.720949811486110776', symObjAddr: 0x1770, symBinAddr: 0x97A20, symSize: 0x4F0 }
  - { offsetInCU: 0x1993A, offset: 0x33D4C9, size: 0x8, addend: 0x0, symName: '__ZN4core3ptr36drop_in_place$LT$syn..expr..Expr$GT$17h0f7fd4c749bae801E.llvm.720949811486110776', symObjAddr: 0x1C70, symBinAddr: 0x97F10, symSize: 0x28C0 }
  - { offsetInCU: 0x22DDF, offset: 0x34696E, size: 0x8, addend: 0x0, symName: '__ZN4core3ptr36drop_in_place$LT$syn..mac..Macro$GT$17h4ffde962df30ebe2E', symObjAddr: 0x4530, symBinAddr: 0x9A7D0, symSize: 0x40 }
  - { offsetInCU: 0x22E19, offset: 0x3469A8, size: 0x8, addend: 0x0, symName: '__ZN4core3ptr36drop_in_place$LT$syn..path..Path$GT$17habea856181211e1cE.llvm.720949811486110776', symObjAddr: 0x4570, symBinAddr: 0x9A810, symSize: 0xC0 }
  - { offsetInCU: 0x230F3, offset: 0x346C82, size: 0x8, addend: 0x0, symName: '__ZN4core3ptr37drop_in_place$LT$syn..data..Field$GT$17h8ecf6e22a67a3b36E.llvm.720949811486110776', symObjAddr: 0x4630, symBinAddr: 0x9A8D0, symSize: 0x140 }
  - { offsetInCU: 0x2350F, offset: 0x34709E, size: 0x8, addend: 0x0, symName: '__ZN4core3ptr37drop_in_place$LT$syn..item..FnArg$GT$17h3308e115b3b3c9adE.llvm.720949811486110776', symObjAddr: 0x4770, symBinAddr: 0x9AA10, symSize: 0x280 }
  - { offsetInCU: 0x23EEA, offset: 0x347A79, size: 0x8, addend: 0x0, symName: '__ZN4core3ptr37drop_in_place$LT$syn..stmt..Block$GT$17hcc21a21cf949414cE', symObjAddr: 0x49F0, symBinAddr: 0x9AC90, symSize: 0xD0 }
  - { offsetInCU: 0x2418E, offset: 0x347D1D, size: 0x8, addend: 0x0, symName: '__ZN4core3ptr38drop_in_place$LT$syn..expr..Member$GT$17h022cbe5553aa40faE.llvm.720949811486110776', symObjAddr: 0x4AC0, symBinAddr: 0x9AD60, symSize: 0x30 }
  - { offsetInCU: 0x2428B, offset: 0x347E1A, size: 0x8, addend: 0x0, symName: '__ZN4core3ptr39drop_in_place$LT$proc_macro2..Ident$GT$17h8101e88c3ac359d6E.llvm.720949811486110776', symObjAddr: 0x4AF0, symBinAddr: 0x9AD90, symSize: 0x30 }
  - { offsetInCU: 0x243C6, offset: 0x347F55, size: 0x8, addend: 0x0, symName: '__ZN4core3ptr39drop_in_place$LT$syn..data..Variant$GT$17h7bd4c363751fc860E', symObjAddr: 0x4B20, symBinAddr: 0x9ADC0, symSize: 0x150 }
  - { offsetInCU: 0x24916, offset: 0x3484A5, size: 0x8, addend: 0x0, symName: '__ZN4core3ptr39drop_in_place$LT$syn..item..UseTree$GT$17h5b1281a5704d139dE.llvm.720949811486110776', symObjAddr: 0x4C70, symBinAddr: 0x9AF10, symSize: 0x1D0 }
  - { offsetInCU: 0x25016, offset: 0x348BA5, size: 0x8, addend: 0x0, symName: '__ZN4core3ptr39drop_in_place$LT$syn..pat..FieldPat$GT$17h6890d0559a60b030E.llvm.720949811486110776', symObjAddr: 0x4E40, symBinAddr: 0x9B0E0, symSize: 0x130 }
  - { offsetInCU: 0x25558, offset: 0x3490E7, size: 0x8, addend: 0x0, symName: '__ZN4core3ptr39drop_in_place$LT$syn..ty..BareFnArg$GT$17hac0a1b8fd6f7ad3cE.llvm.720949811486110776', symObjAddr: 0x4F70, symBinAddr: 0x9B210, symSize: 0x110 }
  - { offsetInCU: 0x25924, offset: 0x3494B3, size: 0x8, addend: 0x0, symName: '__ZN4core3ptr40drop_in_place$LT$syn..ty..ReturnType$GT$17h02cf41e2fec63d90E', symObjAddr: 0x5080, symBinAddr: 0x9B320, symSize: 0x50 }
  - { offsetInCU: 0x25A96, offset: 0x349625, size: 0x8, addend: 0x0, symName: '__ZN4core3ptr41drop_in_place$LT$syn..expr..ExprConst$GT$17h725a13e551d9f276E', symObjAddr: 0x50D0, symBinAddr: 0x9B370, symSize: 0x180 }
  - { offsetInCU: 0x25FEB, offset: 0x349B7A, size: 0x8, addend: 0x0, symName: '__ZN4core3ptr42drop_in_place$LT$syn..expr..FieldValue$GT$17h26d594bfbe912662E.llvm.720949811486110776', symObjAddr: 0x5250, symBinAddr: 0x9B4F0, symSize: 0x110 }
  - { offsetInCU: 0x263D5, offset: 0x349F64, size: 0x8, addend: 0x0, symName: '__ZN4core3ptr43drop_in_place$LT$syn..path..PathSegment$GT$17h62e206c29667de7cE.llvm.720949811486110776', symObjAddr: 0x5360, symBinAddr: 0x9B600, symSize: 0x170 }
  - { offsetInCU: 0x26907, offset: 0x34A496, size: 0x8, addend: 0x0, symName: '__ZN4core3ptr44drop_in_place$LT$syn..lifetime..Lifetime$GT$17hf0cdec2e9ec456d6E.llvm.720949811486110776', symObjAddr: 0x54D0, symBinAddr: 0x9B770, symSize: 0x30 }
  - { offsetInCU: 0x26B3A, offset: 0x34A6C9, size: 0x8, addend: 0x0, symName: '__ZN4core3ptr45drop_in_place$LT$proc_macro2..TokenStream$GT$17h3405f6c513e9f6cbE.llvm.720949811486110776', symObjAddr: 0x5500, symBinAddr: 0x9B7A0, symSize: 0x140 }
  - { offsetInCU: 0x26FA9, offset: 0x34AB38, size: 0x8, addend: 0x0, symName: '__ZN4core3ptr45drop_in_place$LT$syn..generics..TypeParam$GT$17he5eda51070b7de47E.llvm.720949811486110776', symObjAddr: 0x5640, symBinAddr: 0x9B8E0, symSize: 0x230 }
  - { offsetInCU: 0x277A5, offset: 0x34B334, size: 0x8, addend: 0x0, symName: '__ZN4core3ptr46drop_in_place$LT$syn..generics..ConstParam$GT$17hab0a58c4af8c549cE.llvm.720949811486110776', symObjAddr: 0x5870, symBinAddr: 0x9BB10, symSize: 0x150 }
  - { offsetInCU: 0x27BCF, offset: 0x34B75E, size: 0x8, addend: 0x0, symName: '__ZN4core3ptr47drop_in_place$LT$syn..path..GenericArgument$GT$17h54f8794633f96823E.llvm.720949811486110776', symObjAddr: 0x59C0, symBinAddr: 0x9BC60, symSize: 0x460 }
  - { offsetInCU: 0x288D8, offset: 0x34C467, size: 0x8, addend: 0x0, symName: '__ZN4core3ptr48drop_in_place$LT$syn..generics..GenericParam$GT$17h9c895978ef08f584E.llvm.720949811486110776', symObjAddr: 0x5E20, symBinAddr: 0x9C0C0, symSize: 0x40 }
  - { offsetInCU: 0x288F5, offset: 0x34C484, size: 0x8, addend: 0x0, symName: '__ZN4core3ptr49drop_in_place$LT$syn..generics..LifetimeParam$GT$17h41a7c7a290ea6289E.llvm.720949811486110776', symObjAddr: 0x5E60, symBinAddr: 0x9C100, symSize: 0xF0 }
  - { offsetInCU: 0x28CED, offset: 0x34C87C, size: 0x8, addend: 0x0, symName: '__ZN4core3ptr49drop_in_place$LT$syn..restriction..Visibility$GT$17h2a932c493942ef80E', symObjAddr: 0x5F50, symBinAddr: 0x9C1F0, symSize: 0x110 }
  - { offsetInCU: 0x29120, offset: 0x34CCAF, size: 0x8, addend: 0x0, symName: '__ZN4core3ptr50drop_in_place$LT$syn..generics..TypeParamBound$GT$17hcd7771d4c6c221efE.llvm.720949811486110776', symObjAddr: 0x6060, symBinAddr: 0x9C300, symSize: 0x160 }
  - { offsetInCU: 0x2957E, offset: 0x34D10D, size: 0x8, addend: 0x0, symName: '__ZN4core3ptr50drop_in_place$LT$syn..generics..WherePredicate$GT$17h1a9d05bc1beb1d91E.llvm.720949811486110776', symObjAddr: 0x61C0, symBinAddr: 0x9C460, symSize: 0xA0 }
  - { offsetInCU: 0x2971F, offset: 0x34D2AE, size: 0x8, addend: 0x0, symName: '__ZN4core3ptr58drop_in_place$LT$alloc..vec..Vec$LT$syn..expr..Arm$GT$$GT$17h1a55df3d2cba1daaE', symObjAddr: 0x6260, symBinAddr: 0x9C500, symSize: 0xD0 }
  - { offsetInCU: 0x299AC, offset: 0x34D53B, size: 0x8, addend: 0x0, symName: '__ZN4core3ptr59drop_in_place$LT$alloc..boxed..Box$LT$syn..pat..Pat$GT$$GT$17h563b135d87aca8abE.llvm.720949811486110776', symObjAddr: 0x6330, symBinAddr: 0x9C5D0, symSize: 0x50 }
  - { offsetInCU: 0x29B07, offset: 0x34D696, size: 0x8, addend: 0x0, symName: '__ZN4core3ptr59drop_in_place$LT$alloc..boxed..Box$LT$syn..ty..Type$GT$$GT$17hffed36bad83adacbE.llvm.720949811486110776', symObjAddr: 0x6380, symBinAddr: 0x9C620, symSize: 0x50 }
  - { offsetInCU: 0x29C81, offset: 0x34D810, size: 0x8, addend: 0x0, symName: '__ZN4core3ptr60drop_in_place$LT$alloc..vec..Vec$LT$syn..data..Field$GT$$GT$17hc65a9f78bac34c07E.llvm.720949811486110776', symObjAddr: 0x63D0, symBinAddr: 0x9C670, symSize: 0xD0 }
  - { offsetInCU: 0x29F21, offset: 0x34DAB0, size: 0x8, addend: 0x0, symName: '__ZN4core3ptr61drop_in_place$LT$alloc..boxed..Box$LT$syn..expr..Expr$GT$$GT$17h01091e47f131475dE.llvm.720949811486110776', symObjAddr: 0x64A0, symBinAddr: 0x9C740, symSize: 0x50 }
  - { offsetInCU: 0x2A0F8, offset: 0x34DC87, size: 0x8, addend: 0x0, symName: '__ZN4core3ptr61drop_in_place$LT$syn..path..ParenthesizedGenericArguments$GT$17h43d4aac5494326a7E.llvm.720949811486110776', symObjAddr: 0x64F0, symBinAddr: 0x9C790, symSize: 0x170 }
  - { offsetInCU: 0x2A6D2, offset: 0x34E261, size: 0x8, addend: 0x0, symName: '__ZN4core3ptr63drop_in_place$LT$alloc..boxed..Box$LT$syn..lit..LitRepr$GT$$GT$17hd8839b7fb35ee7afE', symObjAddr: 0x6700, symBinAddr: 0x9C900, symSize: 0x60 }
  - { offsetInCU: 0x2A9A8, offset: 0x34E537, size: 0x8, addend: 0x0, symName: '__ZN4core3ptr64drop_in_place$LT$alloc..boxed..Box$LT$syn..item..UseTree$GT$$GT$17he10cba0a4742709fE', symObjAddr: 0x67B0, symBinAddr: 0x9C960, symSize: 0x50 }
  - { offsetInCU: 0x2AB22, offset: 0x34E6B1, size: 0x8, addend: 0x0, symName: '__ZN4core3ptr64drop_in_place$LT$alloc..boxed..Box$LT$syn..pat..FieldPat$GT$$GT$17h4980b70a7597cc08E', symObjAddr: 0x6800, symBinAddr: 0x9C9B0, symSize: 0x140 }
  - { offsetInCU: 0x2B18F, offset: 0x34ED1E, size: 0x8, addend: 0x0, symName: '__ZN4core3ptr64drop_in_place$LT$alloc..boxed..Box$LT$syn..ty..BareFnArg$GT$$GT$17h8b34096c620314efE', symObjAddr: 0x6940, symBinAddr: 0x9CAF0, symSize: 0x140 }
  - { offsetInCU: 0x2B6B3, offset: 0x34F242, size: 0x8, addend: 0x0, symName: '__ZN4core3ptr65drop_in_place$LT$core..option..Option$LT$syn..expr..Label$GT$$GT$17h78189e72a8cb7951E', symObjAddr: 0x6A80, symBinAddr: 0x9CC30, symSize: 0x30 }
  - { offsetInCU: 0x2B7EE, offset: 0x34F37D, size: 0x8, addend: 0x0, symName: '__ZN4core3ptr66drop_in_place$LT$core..option..Option$LT$syn..pat..PatRest$GT$$GT$17h61677cf4ff3a7393E', symObjAddr: 0x6AB0, symBinAddr: 0x9CC60, symSize: 0xE0 }
  - { offsetInCU: 0x2BA72, offset: 0x34F601, size: 0x8, addend: 0x0, symName: '__ZN4core3ptr67drop_in_place$LT$alloc..boxed..Box$LT$syn..expr..FieldValue$GT$$GT$17h93aaccf8aa22ef88E', symObjAddr: 0x6B90, symBinAddr: 0x9CD40, symSize: 0x140 }
  - { offsetInCU: 0x2BF95, offset: 0x34FB24, size: 0x8, addend: 0x0, symName: '__ZN4core3ptr70drop_in_place$LT$core..option..Option$LT$syn..ty..BareVariadic$GT$$GT$17h45399348ea4b8d55E', symObjAddr: 0x6D60, symBinAddr: 0x9CE80, symSize: 0x120 }
  - { offsetInCU: 0x2C4C2, offset: 0x350051, size: 0x8, addend: 0x0, symName: '__ZN4core3ptr72drop_in_place$LT$alloc..boxed..Box$LT$syn..path..GenericArgument$GT$$GT$17haa7dd8b716637b54E', symObjAddr: 0x6E80, symBinAddr: 0x9CFA0, symSize: 0x2B0 }
  - { offsetInCU: 0x2CEAD, offset: 0x350A3C, size: 0x8, addend: 0x0, symName: '__ZN4core3ptr73drop_in_place$LT$alloc..boxed..Box$LT$syn..generics..GenericParam$GT$$GT$17hf6951dcd5ae07324E.llvm.720949811486110776', symObjAddr: 0x7130, symBinAddr: 0x9D250, symSize: 0x80 }
  - { offsetInCU: 0x2D044, offset: 0x350BD3, size: 0x8, addend: 0x0, symName: '__ZN4core3ptr73drop_in_place$LT$alloc..vec..Vec$LT$syn..generics..TypeParamBound$GT$$GT$17hdab4c0986d98765bE.llvm.720949811486110776', symObjAddr: 0x71B0, symBinAddr: 0x9D2D0, symSize: 0xC0 }
  - { offsetInCU: 0x2D2E4, offset: 0x350E73, size: 0x8, addend: 0x0, symName: '__ZN4core3ptr75drop_in_place$LT$alloc..boxed..Box$LT$syn..generics..TypeParamBound$GT$$GT$17he61c00698a311a34E', symObjAddr: 0x7270, symBinAddr: 0x9D390, symSize: 0xB0 }
  - { offsetInCU: 0x2D5E2, offset: 0x351171, size: 0x8, addend: 0x0, symName: '__ZN4core3ptr76drop_in_place$LT$$LP$syn..generics..GenericParam$C$syn..token..Comma$RP$$GT$17hadd4ee9dc4c521adE.llvm.720949811486110776', symObjAddr: 0x7370, symBinAddr: 0x9D440, symSize: 0x40 }
  - { offsetInCU: 0x2D650, offset: 0x3511DF, size: 0x8, addend: 0x0, symName: '__ZN4core3ptr79drop_in_place$LT$alloc..vec..Vec$LT$$LP$syn..data..Field$C$$LP$$RP$$RP$$GT$$GT$17h5e7525bb27c0c8a8E.llvm.720949811486110776', symObjAddr: 0x73B0, symBinAddr: 0x9D480, symSize: 0xD0 }
  - { offsetInCU: 0x2D943, offset: 0x3514D2, size: 0x8, addend: 0x0, symName: '__ZN4core3ptr82drop_in_place$LT$alloc..vec..Vec$LT$$LP$syn..pat..Pat$C$syn..token..Or$RP$$GT$$GT$17h79250e525f9bf0e5E.llvm.720949811486110776', symObjAddr: 0x7480, symBinAddr: 0x9D550, symSize: 0x0 }
  - { offsetInCU: 0x2DC04, offset: 0x351793, size: 0x8, addend: 0x0, symName: '__ZN4core3ptr85drop_in_place$LT$alloc..vec..Vec$LT$$LP$syn..ty..Type$C$syn..token..Comma$RP$$GT$$GT$17hf6a59a148065f17dE.llvm.720949811486110776', symObjAddr: 0x7550, symBinAddr: 0x9D620, symSize: 0xD0 }
  - { offsetInCU: 0x2DF03, offset: 0x351A92, size: 0x8, addend: 0x0, symName: '__ZN4core3ptr86drop_in_place$LT$syn..punctuated..Punctuated$LT$syn..pat..Pat$C$syn..token..Or$GT$$GT$17h8e9173df21a44316E', symObjAddr: 0x7620, symBinAddr: 0x9D6F0, symSize: 0x120 }
  - { offsetInCU: 0x2E368, offset: 0x351EF7, size: 0x8, addend: 0x0, symName: '__ZN4core3ptr87drop_in_place$LT$alloc..vec..Vec$LT$$LP$syn..expr..Expr$C$syn..token..Comma$RP$$GT$$GT$17hbf3f4cd50fb0b0ecE.llvm.720949811486110776', symObjAddr: 0x7740, symBinAddr: 0x9D810, symSize: 0xD0 }
  - { offsetInCU: 0x2E629, offset: 0x3521B8, size: 0x8, addend: 0x0, symName: '__ZN4core3ptr87drop_in_place$LT$core..option..Option$LT$alloc..boxed..Box$LT$syn..pat..Pat$GT$$GT$$GT$17hd7b7c69f601b3926E', symObjAddr: 0x7810, symBinAddr: 0x9D8E0, symSize: 0x50 }
  - { offsetInCU: 0x2E79B, offset: 0x35232A, size: 0x8, addend: 0x0, symName: '__ZN4core3ptr87drop_in_place$LT$core..option..Option$LT$alloc..boxed..Box$LT$syn..ty..Type$GT$$GT$$GT$17hd74f5d971aec2972E.llvm.720949811486110776', symObjAddr: 0x7860, symBinAddr: 0x9D930, symSize: 0x50 }
  - { offsetInCU: 0x2E92C, offset: 0x3524BB, size: 0x8, addend: 0x0, symName: '__ZN4core3ptr88drop_in_place$LT$alloc..vec..Vec$LT$$LP$syn..data..Field$C$syn..token..Comma$RP$$GT$$GT$17h02f4d88f184a75f6E.llvm.720949811486110776', symObjAddr: 0x78B0, symBinAddr: 0x9D980, symSize: 0xD0 }
  - { offsetInCU: 0x2EC0C, offset: 0x35279B, size: 0x8, addend: 0x0, symName: '__ZN4core3ptr88drop_in_place$LT$alloc..vec..Vec$LT$$LP$syn..item..FnArg$C$syn..token..Comma$RP$$GT$$GT$17h9235dca64c193d6aE.llvm.720949811486110776', symObjAddr: 0x7980, symBinAddr: 0x9DA50, symSize: 0xE0 }
  - { offsetInCU: 0x2EEDA, offset: 0x352A69, size: 0x8, addend: 0x0, symName: '__ZN4core3ptr89drop_in_place$LT$core..option..Option$LT$alloc..boxed..Box$LT$syn..expr..Expr$GT$$GT$$GT$17h8e135ac1a25a2dc5E', symObjAddr: 0x7A60, symBinAddr: 0x9DB30, symSize: 0x50 }
  - { offsetInCU: 0x2F08A, offset: 0x352C19, size: 0x8, addend: 0x0, symName: '__ZN4core3ptr89drop_in_place$LT$syn..punctuated..Punctuated$LT$syn..pat..Pat$C$syn..token..Comma$GT$$GT$17h8d60e47f3fb1f87aE', symObjAddr: 0x7AB0, symBinAddr: 0x9DB80, symSize: 0x120 }
  - { offsetInCU: 0x2F4E7, offset: 0x353076, size: 0x8, addend: 0x0, symName: '__ZN4core3ptr89drop_in_place$LT$syn..punctuated..Punctuated$LT$syn..ty..Type$C$syn..token..Comma$GT$$GT$17ha919b3114742fb9dE.llvm.720949811486110776', symObjAddr: 0x7BD0, symBinAddr: 0x9DCA0, symSize: 0x120 }
  - { offsetInCU: 0x2F950, offset: 0x3534DF, size: 0x8, addend: 0x0, symName: '__ZN4core3ptr90drop_in_place$LT$alloc..vec..Vec$LT$$LP$syn..data..Variant$C$syn..token..Comma$RP$$GT$$GT$17h680219081cc43a7dE.llvm.720949811486110776', symObjAddr: 0x7CF0, symBinAddr: 0x9DDC0, symSize: 0xD0 }
  - { offsetInCU: 0x2FC11, offset: 0x3537A0, size: 0x8, addend: 0x0, symName: '__ZN4core3ptr90drop_in_place$LT$alloc..vec..Vec$LT$$LP$syn..item..UseTree$C$syn..token..Comma$RP$$GT$$GT$17hac2434f3c2e2707dE.llvm.720949811486110776', symObjAddr: 0x7DC0, symBinAddr: 0x9DE90, symSize: 0xD0 }
  - { offsetInCU: 0x2FED2, offset: 0x353A61, size: 0x8, addend: 0x0, symName: '__ZN4core3ptr90drop_in_place$LT$alloc..vec..Vec$LT$$LP$syn..pat..FieldPat$C$syn..token..Comma$RP$$GT$$GT$17hb84c43e95b74d098E.llvm.720949811486110776', symObjAddr: 0x7E90, symBinAddr: 0x9DF60, symSize: 0xD0 }
  - { offsetInCU: 0x3015F, offset: 0x353CEE, size: 0x8, addend: 0x0, symName: '__ZN4core3ptr90drop_in_place$LT$alloc..vec..Vec$LT$$LP$syn..ty..BareFnArg$C$syn..token..Comma$RP$$GT$$GT$17ha1bf96fdde0de332E.llvm.720949811486110776', symObjAddr: 0x7F60, symBinAddr: 0x9E030, symSize: 0xD0 }
  - { offsetInCU: 0x3040B, offset: 0x353F9A, size: 0x8, addend: 0x0, symName: '__ZN4core3ptr90drop_in_place$LT$core..option..Option$LT$alloc..boxed..Box$LT$syn..data..Field$GT$$GT$$GT$17h326c39537b0fcc46E.llvm.720949811486110776', symObjAddr: 0x8030, symBinAddr: 0x9E100, symSize: 0x50 }
  - { offsetInCU: 0x3058F, offset: 0x35411E, size: 0x8, addend: 0x0, symName: '__ZN4core3ptr91drop_in_place$LT$syn..punctuated..Punctuated$LT$syn..expr..Expr$C$syn..token..Comma$GT$$GT$17h4f39b83dc86a4159E.llvm.720949811486110776', symObjAddr: 0x8080, symBinAddr: 0x9E150, symSize: 0x120 }
  - { offsetInCU: 0x30A0B, offset: 0x35459A, size: 0x8, addend: 0x0, symName: '__ZN4core3ptr92drop_in_place$LT$core..option..Option$LT$alloc..boxed..Box$LT$syn..data..Variant$GT$$GT$$GT$17h3f89d7c982191526E', symObjAddr: 0x81A0, symBinAddr: 0x9E270, symSize: 0x50 }
  - { offsetInCU: 0x30BAE, offset: 0x35473D, size: 0x8, addend: 0x0, symName: '__ZN4core3ptr92drop_in_place$LT$syn..punctuated..Punctuated$LT$syn..data..Field$C$syn..token..Comma$GT$$GT$17hca76f5e010a141e5E', symObjAddr: 0x81F0, symBinAddr: 0x9E2C0, symSize: 0x120 }
  - { offsetInCU: 0x30FEB, offset: 0x354B7A, size: 0x8, addend: 0x0, symName: '__ZN4core3ptr93drop_in_place$LT$alloc..vec..Vec$LT$$LP$syn..expr..FieldValue$C$syn..token..Comma$RP$$GT$$GT$17h9295f6966e75a214E.llvm.720949811486110776', symObjAddr: 0x8310, symBinAddr: 0x9E3E0, symSize: 0xD0 }
  - { offsetInCU: 0x31297, offset: 0x354E26, size: 0x8, addend: 0x0, symName: '__ZN4core3ptr94drop_in_place$LT$alloc..vec..Vec$LT$$LP$syn..lifetime..Lifetime$C$syn..token..Plus$RP$$GT$$GT$17h5bdaba7f0fbee773E.llvm.720949811486110776', symObjAddr: 0x83E0, symBinAddr: 0x9E4B0, symSize: 0x80 }
  - { offsetInCU: 0x3155C, offset: 0x3550EB, size: 0x8, addend: 0x0, symName: '__ZN4core3ptr94drop_in_place$LT$syn..punctuated..Punctuated$LT$syn..data..Variant$C$syn..token..Comma$GT$$GT$17ha69d7e675441c7e2E', symObjAddr: 0x8460, symBinAddr: 0x9E530, symSize: 0x120 }
  - { offsetInCU: 0x31999, offset: 0x355528, size: 0x8, addend: 0x0, symName: '__ZN4core3ptr94drop_in_place$LT$syn..punctuated..Punctuated$LT$syn..pat..FieldPat$C$syn..token..Comma$GT$$GT$17h112950ea198c8281E', symObjAddr: 0x8580, symBinAddr: 0x9E650, symSize: 0xF0 }
  - { offsetInCU: 0x31C63, offset: 0x3557F2, size: 0x8, addend: 0x0, symName: '__ZN4core3ptr94drop_in_place$LT$syn..punctuated..Punctuated$LT$syn..ty..BareFnArg$C$syn..token..Comma$GT$$GT$17h1c7b44310f06243dE', symObjAddr: 0x8670, symBinAddr: 0x9E740, symSize: 0xF0 }
  - { offsetInCU: 0x31F2D, offset: 0x355ABC, size: 0x8, addend: 0x0, symName: '__ZN4core3ptr95drop_in_place$LT$core..option..Option$LT$$LP$proc_macro2..Ident$C$syn..token..Colon$RP$$GT$$GT$17ha744bf0f41959716E.llvm.720949811486110776', symObjAddr: 0x8760, symBinAddr: 0x9E830, symSize: 0x30 }
  - { offsetInCU: 0x32049, offset: 0x355BD8, size: 0x8, addend: 0x0, symName: '__ZN4core3ptr96drop_in_place$LT$alloc..vec..Vec$LT$$LP$syn..path..PathSegment$C$syn..token..PathSep$RP$$GT$$GT$17h42880a1541c295f5E.llvm.720949811486110776', symObjAddr: 0x8790, symBinAddr: 0x9E860, symSize: 0xC0 }
  - { offsetInCU: 0x322F5, offset: 0x355E84, size: 0x8, addend: 0x0, symName: '__ZN4core3ptr96drop_in_place$LT$core..option..Option$LT$alloc..boxed..Box$LT$syn..path..PathSegment$GT$$GT$$GT$17hb447d0f626c86a4eE.llvm.720949811486110776', symObjAddr: 0x8850, symBinAddr: 0x9E920, symSize: 0x180 }
  - { offsetInCU: 0x329A5, offset: 0x356534, size: 0x8, addend: 0x0, symName: '__ZN4core3ptr97drop_in_place$LT$syn..punctuated..Punctuated$LT$syn..expr..FieldValue$C$syn..token..Comma$GT$$GT$17h31b81f7462228dcbE', symObjAddr: 0x8A20, symBinAddr: 0x9EAA0, symSize: 0xF0 }
  - { offsetInCU: 0x32C6F, offset: 0x3567FE, size: 0x8, addend: 0x0, symName: '__ZN4core3ptr98drop_in_place$LT$alloc..vec..Vec$LT$$LP$syn..path..GenericArgument$C$syn..token..Comma$RP$$GT$$GT$17h0657ff261f33b640E.llvm.720949811486110776', symObjAddr: 0x8B10, symBinAddr: 0x9EB90, symSize: 0xD0 }
  - { offsetInCU: 0x32F3A, offset: 0x356AC9, size: 0x8, addend: 0x0, symName: '__ZN4core3ptr98drop_in_place$LT$syn..punctuated..Punctuated$LT$syn..lifetime..Lifetime$C$syn..token..Plus$GT$$GT$17h0f8fc5f20f465f47E.llvm.720949811486110776', symObjAddr: 0x8BE0, symBinAddr: 0x9EC60, symSize: 0xC0 }
  - { offsetInCU: 0x333B2, offset: 0x356F41, size: 0x8, addend: 0x0, symName: '__ZN4core3ptr99drop_in_place$LT$alloc..vec..Vec$LT$$LP$syn..generics..GenericParam$C$syn..token..Comma$RP$$GT$$GT$17h80db164c829d38feE.llvm.720949811486110776', symObjAddr: 0x8CA0, symBinAddr: 0x9ED20, symSize: 0x60 }
  - { offsetInCU: 0x33623, offset: 0x3571B2, size: 0x8, addend: 0x0, symName: '__ZN4core3ptr99drop_in_place$LT$syn..punctuated..IntoPairs$LT$syn..path..PathSegment$C$syn..token..PathSep$GT$$GT$17h4470f4520ed6b72cE', symObjAddr: 0x8D00, symBinAddr: 0x9ED80, symSize: 0x50 }
  - { offsetInCU: 0x3B884, offset: 0x35F413, size: 0x8, addend: 0x0, symName: __ZN4core4iter6traits10exact_size17ExactSizeIterator8is_empty17h35ee032e6e88d349E.llvm.720949811486110776, symObjAddr: 0x8D50, symBinAddr: 0x9EDD0, symSize: 0x0 }
  - { offsetInCU: 0x3BA2D, offset: 0x35F5BC, size: 0x8, addend: 0x0, symName: __ZN4core4iter6traits10exact_size17ExactSizeIterator8is_empty17h508607d8c3df7979E.llvm.720949811486110776, symObjAddr: 0x8DB0, symBinAddr: 0x9EE00, symSize: 0x0 }
  - { offsetInCU: 0x3BB7C, offset: 0x35F70B, size: 0x8, addend: 0x0, symName: __ZN4core4iter6traits12double_ended19DoubleEndedIterator15advance_back_by17h4d1e2015fdf30f06E.llvm.720949811486110776, symObjAddr: 0x8E00, symBinAddr: 0x9EE30, symSize: 0x0 }
  - { offsetInCU: 0x3BD81, offset: 0x35F910, size: 0x8, addend: 0x0, symName: __ZN4core4iter6traits12double_ended19DoubleEndedIterator15advance_back_by17h71a802ac204bbb9cE.llvm.720949811486110776, symObjAddr: 0x8E80, symBinAddr: 0x9EEB0, symSize: 0x0 }
  - { offsetInCU: 0x3C000, offset: 0x35FB8F, size: 0x8, addend: 0x0, symName: __ZN4core4iter6traits12double_ended19DoubleEndedIterator8nth_back17h213ac3cafced8236E.llvm.720949811486110776, symObjAddr: 0x8FE0, symBinAddr: 0x9EF30, symSize: 0x0 }
  - { offsetInCU: 0x3C4FF, offset: 0x36008E, size: 0x8, addend: 0x0, symName: __ZN4core4iter6traits12double_ended19DoubleEndedIterator8nth_back17h5a89a76496a5f1f6E.llvm.720949811486110776, symObjAddr: 0x9090, symBinAddr: 0x9EFE0, symSize: 0x0 }
  - { offsetInCU: 0x3C9BE, offset: 0x36054D, size: 0x8, addend: 0x0, symName: __ZN4core4iter6traits8iterator8Iterator10advance_by17h0b5ecbdade63f94bE.llvm.720949811486110776, symObjAddr: 0x92A0, symBinAddr: 0x9F090, symSize: 0x0 }
  - { offsetInCU: 0x3CCDA, offset: 0x360869, size: 0x8, addend: 0x0, symName: __ZN4core4iter6traits8iterator8Iterator10advance_by17h81fbac6663af7f06E.llvm.720949811486110776, symObjAddr: 0x9370, symBinAddr: 0x9F100, symSize: 0x0 }
  - { offsetInCU: 0x3D079, offset: 0x360C08, size: 0x8, addend: 0x0, symName: __ZN4core4iter6traits8iterator8Iterator3nth17h2760078497cfc6daE.llvm.720949811486110776, symObjAddr: 0x9450, symBinAddr: 0x9F170, symSize: 0x0 }
  - { offsetInCU: 0x3D69A, offset: 0x361229, size: 0x8, addend: 0x0, symName: __ZN4core4iter6traits8iterator8Iterator3nth17h40c29dc3e10916faE.llvm.720949811486110776, symObjAddr: 0x94D0, symBinAddr: 0x9F1F0, symSize: 0x0 }
  - { offsetInCU: 0x3DC6A, offset: 0x3617F9, size: 0x8, addend: 0x0, symName: __ZN4core4iter6traits8iterator8Iterator9size_hint17h27d36cc3f9874dd4E.llvm.720949811486110776, symObjAddr: 0x9650, symBinAddr: 0x9F270, symSize: 0x0 }
  - { offsetInCU: 0x3F47C, offset: 0x36300B, size: 0x8, addend: 0x0, symName: _anon.756ee204431677f15e0e7c03ad545a45.9.llvm.720949811486110776, symObjAddr: 0x12D68, symBinAddr: 0x2A4FA8, symSize: 0x0 }
  - { offsetInCU: 0x41AC9, offset: 0x365658, size: 0x8, addend: 0x0, symName: '__ZN3syn10punctuated23Punctuated$LT$T$C$P$GT$10push_value17h1464794b59e71484E', symObjAddr: 0x9CF0, symBinAddr: 0x9F290, symSize: 0x110 }
  - { offsetInCU: 0x41D44, offset: 0x3658D3, size: 0x8, addend: 0x0, symName: '__ZN3syn10punctuated23Punctuated$LT$T$C$P$GT$10push_value17h19b8fd7bec07dcc7E', symObjAddr: 0x9E00, symBinAddr: 0x9F3A0, symSize: 0x0 }
  - { offsetInCU: 0x41FD9, offset: 0x365B68, size: 0x8, addend: 0x0, symName: '__ZN3syn10punctuated23Punctuated$LT$T$C$P$GT$10push_value17h2ac8ee7d941e7bd6E', symObjAddr: 0x9F10, symBinAddr: 0x9F4B0, symSize: 0x110 }
  - { offsetInCU: 0x42254, offset: 0x365DE3, size: 0x8, addend: 0x0, symName: '__ZN3syn10punctuated23Punctuated$LT$T$C$P$GT$10push_value17h4d756fff73ab62fcE', symObjAddr: 0xA020, symBinAddr: 0x9F5C0, symSize: 0x110 }
  - { offsetInCU: 0x424CF, offset: 0x36605E, size: 0x8, addend: 0x0, symName: '__ZN3syn10punctuated23Punctuated$LT$T$C$P$GT$10push_value17h922210f6ed64bedfE', symObjAddr: 0xA130, symBinAddr: 0x9F6D0, symSize: 0x110 }
  - { offsetInCU: 0x4274A, offset: 0x3662D9, size: 0x8, addend: 0x0, symName: '__ZN3syn10punctuated23Punctuated$LT$T$C$P$GT$10push_value17h9bf9b9eda25b7b08E', symObjAddr: 0xA240, symBinAddr: 0x9F7E0, symSize: 0x100 }
  - { offsetInCU: 0x429C4, offset: 0x366553, size: 0x8, addend: 0x0, symName: '__ZN3syn10punctuated23Punctuated$LT$T$C$P$GT$10push_value17ha11f44006af1fce5E', symObjAddr: 0xA340, symBinAddr: 0x9F8E0, symSize: 0x100 }
  - { offsetInCU: 0x42C35, offset: 0x3667C4, size: 0x8, addend: 0x0, symName: '__ZN3syn10punctuated23Punctuated$LT$T$C$P$GT$10push_value17hb125b8a2ccd1d083E', symObjAddr: 0xA440, symBinAddr: 0x9F9E0, symSize: 0x110 }
  - { offsetInCU: 0x42FBA, offset: 0x366B49, size: 0x8, addend: 0x0, symName: '__ZN3syn10punctuated23Punctuated$LT$T$C$P$GT$10push_value17hbe2de12ba6ba96f3E', symObjAddr: 0xA550, symBinAddr: 0x9FAF0, symSize: 0xD0 }
  - { offsetInCU: 0x4322B, offset: 0x366DBA, size: 0x8, addend: 0x0, symName: '__ZN3syn10punctuated23Punctuated$LT$T$C$P$GT$10push_value17hc84f0581e5006d1dE', symObjAddr: 0xA620, symBinAddr: 0x9FBC0, symSize: 0x110 }
  - { offsetInCU: 0x434A6, offset: 0x367035, size: 0x8, addend: 0x0, symName: '__ZN3syn10punctuated23Punctuated$LT$T$C$P$GT$10push_value17hc8f25dfb73f20dfeE', symObjAddr: 0xA730, symBinAddr: 0x9FCD0, symSize: 0xF0 }
  - { offsetInCU: 0x4370A, offset: 0x367299, size: 0x8, addend: 0x0, symName: '__ZN3syn10punctuated23Punctuated$LT$T$C$P$GT$10push_value17hf794ec4a43a6463aE', symObjAddr: 0xA820, symBinAddr: 0x9FDC0, symSize: 0x110 }
  - { offsetInCU: 0x4399F, offset: 0x36752E, size: 0x8, addend: 0x0, symName: '__ZN3syn10punctuated23Punctuated$LT$T$C$P$GT$10push_value17hfcd023ac5ed059ccE', symObjAddr: 0xA930, symBinAddr: 0x9FED0, symSize: 0x100 }
  - { offsetInCU: 0x43C2A, offset: 0x3677B9, size: 0x8, addend: 0x0, symName: '__ZN3syn10punctuated23Punctuated$LT$T$C$P$GT$10push_punct17h009caae710d7fa9eE', symObjAddr: 0xAA30, symBinAddr: 0x9FFD0, symSize: 0x120 }
  - { offsetInCU: 0x4400B, offset: 0x367B9A, size: 0x8, addend: 0x0, symName: '__ZN3syn10punctuated23Punctuated$LT$T$C$P$GT$10push_punct17h466bf79492cbbcb5E', symObjAddr: 0xAB50, symBinAddr: 0xA00F0, symSize: 0x120 }
  - { offsetInCU: 0x44406, offset: 0x367F95, size: 0x8, addend: 0x0, symName: '__ZN3syn10punctuated23Punctuated$LT$T$C$P$GT$10push_punct17h4774822b9e0d6ec3E', symObjAddr: 0xAC70, symBinAddr: 0xA0210, symSize: 0x120 }
  - { offsetInCU: 0x447DA, offset: 0x368369, size: 0x8, addend: 0x0, symName: '__ZN3syn10punctuated23Punctuated$LT$T$C$P$GT$10push_punct17h61110cebcbc73b5eE', symObjAddr: 0xAD90, symBinAddr: 0xA0330, symSize: 0x120 }
  - { offsetInCU: 0x44B9B, offset: 0x36872A, size: 0x8, addend: 0x0, symName: '__ZN3syn10punctuated23Punctuated$LT$T$C$P$GT$10push_punct17h6c195d18e6105754E', symObjAddr: 0xAEB0, symBinAddr: 0xA0450, symSize: 0x120 }
  - { offsetInCU: 0x44FC9, offset: 0x368B58, size: 0x8, addend: 0x0, symName: '__ZN3syn10punctuated23Punctuated$LT$T$C$P$GT$10push_punct17h7570ad2eb8eda148E', symObjAddr: 0xAFD0, symBinAddr: 0xA0570, symSize: 0x140 }
  - { offsetInCU: 0x454ED, offset: 0x36907C, size: 0x8, addend: 0x0, symName: '__ZN3syn10punctuated23Punctuated$LT$T$C$P$GT$10push_punct17h89b356a21cce1885E', symObjAddr: 0xB110, symBinAddr: 0xA06B0, symSize: 0x120 }
  - { offsetInCU: 0x458CE, offset: 0x36945D, size: 0x8, addend: 0x0, symName: '__ZN3syn10punctuated23Punctuated$LT$T$C$P$GT$10push_punct17h9b1d77aef8736936E', symObjAddr: 0xB230, symBinAddr: 0xA07D0, symSize: 0x120 }
  - { offsetInCU: 0x45CAF, offset: 0x36983E, size: 0x8, addend: 0x0, symName: '__ZN3syn10punctuated23Punctuated$LT$T$C$P$GT$10push_punct17ha8c738426f753245E', symObjAddr: 0xB350, symBinAddr: 0xA08F0, symSize: 0x120 }
  - { offsetInCU: 0x46090, offset: 0x369C1F, size: 0x8, addend: 0x0, symName: '__ZN3syn10punctuated23Punctuated$LT$T$C$P$GT$10push_punct17hb0fc5a7a37e2e4edE', symObjAddr: 0xB470, symBinAddr: 0xA0A10, symSize: 0x120 }
  - { offsetInCU: 0x46471, offset: 0x36A000, size: 0x8, addend: 0x0, symName: '__ZN3syn10punctuated23Punctuated$LT$T$C$P$GT$10push_punct17hb4e9855c6f264597E', symObjAddr: 0xB590, symBinAddr: 0xA0B30, symSize: 0x120 }
  - { offsetInCU: 0x46852, offset: 0x36A3E1, size: 0x8, addend: 0x0, symName: '__ZN3syn10punctuated23Punctuated$LT$T$C$P$GT$10push_punct17hbb75469815d830eaE', symObjAddr: 0xB6B0, symBinAddr: 0xA0C50, symSize: 0x110 }
  - { offsetInCU: 0x46C35, offset: 0x36A7C4, size: 0x8, addend: 0x0, symName: '__ZN3syn10punctuated23Punctuated$LT$T$C$P$GT$10push_punct17hc20d22090670493fE', symObjAddr: 0xB7C0, symBinAddr: 0xA0D60, symSize: 0xF0 }
  - { offsetInCU: 0x47016, offset: 0x36ABA5, size: 0x8, addend: 0x0, symName: '__ZN3syn10punctuated23Punctuated$LT$T$C$P$GT$10push_punct17hc2ba07c343e9a099E', symObjAddr: 0xB8B0, symBinAddr: 0xA0E50, symSize: 0xF0 }
  - { offsetInCU: 0x473F7, offset: 0x36AF86, size: 0x8, addend: 0x0, symName: '__ZN3syn10punctuated23Punctuated$LT$T$C$P$GT$10push_punct17hfbed3f5b6fa00fbfE', symObjAddr: 0xB9A0, symBinAddr: 0xA0F40, symSize: 0x120 }
  - { offsetInCU: 0x4787E, offset: 0x36B40D, size: 0x8, addend: 0x0, symName: '__ZN3syn10punctuated23Punctuated$LT$T$C$P$GT$3pop17h69e8e60024538083E', symObjAddr: 0xBAC0, symBinAddr: 0xA1060, symSize: 0xA0 }
  - { offsetInCU: 0x47C7F, offset: 0x36B80E, size: 0x8, addend: 0x0, symName: '__ZN3syn10punctuated23Punctuated$LT$T$C$P$GT$4push17hc1655cb815934489E', symObjAddr: 0xBB60, symBinAddr: 0xA1100, symSize: 0x170 }
  - { offsetInCU: 0x4804D, offset: 0x36BBDC, size: 0x8, addend: 0x0, symName: '__ZN3syn10punctuated23Punctuated$LT$T$C$P$GT$21parse_terminated_with17h124b73cd374cc0f5E', symObjAddr: 0xBCD0, symBinAddr: 0xA1270, symSize: 0x220 }
  - { offsetInCU: 0x48613, offset: 0x36C1A2, size: 0x8, addend: 0x0, symName: '__ZN3syn10punctuated23Punctuated$LT$T$C$P$GT$21parse_terminated_with17h7169b9f60635eaacE', symObjAddr: 0xBEF0, symBinAddr: 0xA1490, symSize: 0x3E0 }
  - { offsetInCU: 0x48F1F, offset: 0x36CAAE, size: 0x8, addend: 0x0, symName: '__ZN3syn10punctuated23Punctuated$LT$T$C$P$GT$21parse_terminated_with17hf39ea62a3f36347dE', symObjAddr: 0xC2D0, symBinAddr: 0xA1870, symSize: 0x220 }
  - { offsetInCU: 0x494CB, offset: 0x36D05A, size: 0x8, addend: 0x0, symName: '__ZN3syn10punctuated23Punctuated$LT$T$C$P$GT$21parse_terminated_with17hf813a9f490e11643E', symObjAddr: 0xC4F0, symBinAddr: 0xA1A90, symSize: 0x3E0 }
  - { offsetInCU: 0x2AC3, offset: 0x37710C, size: 0x8, addend: 0x0, symName: '__ZN3syn4expr8printing77_$LT$impl$u20$quote..to_tokens..ToTokens$u20$for$u20$syn..expr..ExprArray$GT$9to_tokens17h2ef9833ff7ff7fceE', symObjAddr: 0x10970, symBinAddr: 0xB1EA0, symSize: 0x90 }
  - { offsetInCU: 0x2C8D, offset: 0x3772D6, size: 0x8, addend: 0x0, symName: '__ZN3syn4expr8printing77_$LT$impl$u20$quote..to_tokens..ToTokens$u20$for$u20$syn..expr..ExprAsync$GT$9to_tokens17h2495d6e29bb4a201E', symObjAddr: 0x10A10, symBinAddr: 0xB1F30, symSize: 0x170 }
  - { offsetInCU: 0x3140, offset: 0x377789, size: 0x8, addend: 0x0, symName: '__ZN3syn4expr8printing77_$LT$impl$u20$quote..to_tokens..ToTokens$u20$for$u20$syn..expr..ExprBlock$GT$9to_tokens17hdd73246d789555d5E', symObjAddr: 0x10BA0, symBinAddr: 0xB20A0, symSize: 0x100 }
  - { offsetInCU: 0x34C7, offset: 0x377B10, size: 0x8, addend: 0x0, symName: '__ZN3syn4expr8printing79_$LT$impl$u20$quote..to_tokens..ToTokens$u20$for$u20$syn..expr..ExprClosure$GT$9to_tokens17h0d6ce1172208619dE', symObjAddr: 0x10CD0, symBinAddr: 0xB21A0, symSize: 0x400 }
  - { offsetInCU: 0x40FA, offset: 0x378743, size: 0x8, addend: 0x0, symName: '__ZN3syn4expr8printing77_$LT$impl$u20$quote..to_tokens..ToTokens$u20$for$u20$syn..expr..ExprConst$GT$9to_tokens17hcaf2e3202a16c77aE', symObjAddr: 0x110D0, symBinAddr: 0xB25A0, symSize: 0x100 }
  - { offsetInCU: 0x43A9, offset: 0x3789F2, size: 0x8, addend: 0x0, symName: '__ZN3syn4expr8printing80_$LT$impl$u20$quote..to_tokens..ToTokens$u20$for$u20$syn..expr..ExprContinue$GT$9to_tokens17hebd76b9e5d479ff4E', symObjAddr: 0x111D0, symBinAddr: 0xB26A0, symSize: 0x140 }
  - { offsetInCU: 0x47D8, offset: 0x378E21, size: 0x8, addend: 0x0, symName: '__ZN3syn4expr8printing77_$LT$impl$u20$quote..to_tokens..ToTokens$u20$for$u20$syn..expr..ExprGroup$GT$9to_tokens17h43695a0f104bbad3E', symObjAddr: 0x11560, symBinAddr: 0xB27E0, symSize: 0x90 }
  - { offsetInCU: 0x4975, offset: 0x378FBE, size: 0x8, addend: 0x0, symName: '__ZN3syn4expr8printing74_$LT$impl$u20$quote..to_tokens..ToTokens$u20$for$u20$syn..expr..ExprIf$GT$9to_tokens17h925864585cd53cb7E', symObjAddr: 0x115F0, symBinAddr: 0xB2870, symSize: 0x3D0 }
  - { offsetInCU: 0x545D, offset: 0x379AA6, size: 0x8, addend: 0x0, symName: '__ZN3syn4expr8printing77_$LT$impl$u20$quote..to_tokens..ToTokens$u20$for$u20$syn..expr..ExprInfer$GT$9to_tokens17he40a1f0c107707dbE', symObjAddr: 0x119D0, symBinAddr: 0xB2C40, symSize: 0xF0 }
  - { offsetInCU: 0x5709, offset: 0x379D52, size: 0x8, addend: 0x0, symName: '__ZN3syn4expr8printing75_$LT$impl$u20$quote..to_tokens..ToTokens$u20$for$u20$syn..expr..ExprLit$GT$9to_tokens17ha9f3a462aa7f9b8cE', symObjAddr: 0x11AD0, symBinAddr: 0xB2D30, symSize: 0x80 }
  - { offsetInCU: 0x589C, offset: 0x379EE5, size: 0x8, addend: 0x0, symName: '__ZN3syn4expr8printing76_$LT$impl$u20$quote..to_tokens..ToTokens$u20$for$u20$syn..expr..ExprLoop$GT$9to_tokens17hc6f1b6becf15eae4E', symObjAddr: 0x11B50, symBinAddr: 0xB2DB0, symSize: 0x170 }
  - { offsetInCU: 0x5CBA, offset: 0x37A303, size: 0x8, addend: 0x0, symName: '__ZN3syn4expr8printing77_$LT$impl$u20$quote..to_tokens..ToTokens$u20$for$u20$syn..expr..ExprMacro$GT$9to_tokens17h1aad6dcc7b88acf6E', symObjAddr: 0x11CC0, symBinAddr: 0xB2F20, symSize: 0x90 }
  - { offsetInCU: 0x5EA5, offset: 0x37A4EE, size: 0x8, addend: 0x0, symName: '__ZN3syn4expr8printing77_$LT$impl$u20$quote..to_tokens..ToTokens$u20$for$u20$syn..expr..ExprParen$GT$9to_tokens17hf25c89af93be7f23E', symObjAddr: 0x11ED0, symBinAddr: 0xB2FB0, symSize: 0x90 }
  - { offsetInCU: 0x6042, offset: 0x37A68B, size: 0x8, addend: 0x0, symName: '__ZN3syn4expr8printing76_$LT$impl$u20$quote..to_tokens..ToTokens$u20$for$u20$syn..expr..ExprPath$GT$9to_tokens17hab4f628f5b9ed40bE', symObjAddr: 0x11F60, symBinAddr: 0xB3040, symSize: 0x90 }
  - { offsetInCU: 0x622F, offset: 0x37A878, size: 0x8, addend: 0x0, symName: '__ZN3syn4expr8printing78_$LT$impl$u20$quote..to_tokens..ToTokens$u20$for$u20$syn..expr..ExprRepeat$GT$9to_tokens17h7f259068e0bd4858E', symObjAddr: 0x12010, symBinAddr: 0xB30D0, symSize: 0x90 }
  - { offsetInCU: 0x63ED, offset: 0x37AA36, size: 0x8, addend: 0x0, symName: '__ZN3syn4expr8printing78_$LT$impl$u20$quote..to_tokens..ToTokens$u20$for$u20$syn..expr..ExprStruct$GT$9to_tokens17h572ac1509ac9915cE', symObjAddr: 0x120B0, symBinAddr: 0xB3160, symSize: 0xA0 }
  - { offsetInCU: 0x65AE, offset: 0x37ABF7, size: 0x8, addend: 0x0, symName: '__ZN3syn4expr8printing80_$LT$impl$u20$quote..to_tokens..ToTokens$u20$for$u20$syn..expr..ExprTryBlock$GT$9to_tokens17h33126d9a5af6a3b9E', symObjAddr: 0x12160, symBinAddr: 0xB3200, symSize: 0x100 }
  - { offsetInCU: 0x6883, offset: 0x37AECC, size: 0x8, addend: 0x0, symName: '__ZN3syn4expr8printing77_$LT$impl$u20$quote..to_tokens..ToTokens$u20$for$u20$syn..expr..ExprTuple$GT$9to_tokens17h802dba8012b208d4E', symObjAddr: 0x12260, symBinAddr: 0xB3300, symSize: 0x90 }
  - { offsetInCU: 0x6A41, offset: 0x37B08A, size: 0x8, addend: 0x0, symName: '__ZN3syn4expr8printing78_$LT$impl$u20$quote..to_tokens..ToTokens$u20$for$u20$syn..expr..ExprUnsafe$GT$9to_tokens17h40aedefd13b3e1e7E', symObjAddr: 0x12300, symBinAddr: 0xB3390, symSize: 0x100 }
  - { offsetInCU: 0x6D4A, offset: 0x37B393, size: 0x8, addend: 0x0, symName: '__ZN3syn4expr8printing71_$LT$impl$u20$quote..to_tokens..ToTokens$u20$for$u20$syn..expr..Arm$GT$9to_tokens17h78a0e9de12a0eb67E', symObjAddr: 0x125E0, symBinAddr: 0xB3490, symSize: 0x180 }
  - { offsetInCU: 0x70F4, offset: 0x37B73D, size: 0x8, addend: 0x0, symName: '__ZN3syn4expr8printing74_$LT$impl$u20$quote..to_tokens..ToTokens$u20$for$u20$syn..expr..Member$GT$9to_tokens17hfcc2f8d0a07457a9E', symObjAddr: 0x12970, symBinAddr: 0xB3610, symSize: 0xD0 }
  - { offsetInCU: 0x73BA, offset: 0x37BA03, size: 0x8, addend: 0x0, symName: '__ZN3syn4expr7parsing63_$LT$impl$u20$syn..parse..Parse$u20$for$u20$syn..expr..Expr$GT$5parse17h55500ba46fd3498aE', symObjAddr: 0x92A0, symBinAddr: 0xAB600, symSize: 0x100 }
  - { offsetInCU: 0x7462, offset: 0x37BAAB, size: 0x8, addend: 0x0, symName: '__ZN3syn4expr7parsing66_$LT$impl$u20$syn..parse..Parse$u20$for$u20$syn..expr..ExprLit$GT$5parse17h503d2569d625f8d4E', symObjAddr: 0x9D30, symBinAddr: 0xAB700, symSize: 0xD0 }
  - { offsetInCU: 0x7541, offset: 0x37BB8A, size: 0x8, addend: 0x0, symName: '__ZN3syn4expr7parsing65_$LT$impl$u20$syn..parse..Parse$u20$for$u20$syn..expr..ExprIf$GT$5parse17h47168d1e46c083ceE', symObjAddr: 0x9E40, symBinAddr: 0xAB7D0, symSize: 0x1070 }
  - { offsetInCU: 0x9CC6, offset: 0x37E30F, size: 0x8, addend: 0x0, symName: '__ZN3syn4expr7parsing68_$LT$impl$u20$syn..parse..Parse$u20$for$u20$syn..expr..ExprInfer$GT$5parse17h96cf775fe66799ebE', symObjAddr: 0xAEB0, symBinAddr: 0xAC840, symSize: 0x190 }
  - { offsetInCU: 0xA038, offset: 0x37E681, size: 0x8, addend: 0x0, symName: '__ZN3syn4expr7parsing70_$LT$impl$u20$syn..parse..Parse$u20$for$u20$syn..expr..ExprForLoop$GT$5parse17hce5f73eac4ad2dc4E', symObjAddr: 0xB040, symBinAddr: 0xAC9D0, symSize: 0x9F0 }
  - { offsetInCU: 0xB235, offset: 0x37F87E, size: 0x8, addend: 0x0, symName: '__ZN3syn4expr7parsing67_$LT$impl$u20$syn..parse..Parse$u20$for$u20$syn..expr..ExprLoop$GT$5parse17h1aa74e5d000da669E', symObjAddr: 0xBA30, symBinAddr: 0xAD3C0, symSize: 0x600 }
  - { offsetInCU: 0xBE86, offset: 0x3804CF, size: 0x8, addend: 0x0, symName: '__ZN3syn4expr7parsing68_$LT$impl$u20$syn..parse..Parse$u20$for$u20$syn..expr..ExprMatch$GT$5parse17h352dd08cf5c0778bE', symObjAddr: 0xC030, symBinAddr: 0xAD9C0, symSize: 0x7F0 }
  - { offsetInCU: 0xC856, offset: 0x380E9F, size: 0x8, addend: 0x0, symName: '__ZN3syn4expr7parsing69_$LT$impl$u20$syn..parse..Parse$u20$for$u20$syn..expr..ExprReturn$GT$5parse17h3d5bc077999de314E', symObjAddr: 0xCB30, symBinAddr: 0xAE1B0, symSize: 0x110 }
  - { offsetInCU: 0xCA3B, offset: 0x381084, size: 0x8, addend: 0x0, symName: '__ZN3syn4expr7parsing71_$LT$impl$u20$syn..parse..Parse$u20$for$u20$syn..expr..ExprTryBlock$GT$5parse17hce262d6454af1d4eE', symObjAddr: 0xCC40, symBinAddr: 0xAE2C0, symSize: 0x140 }
  - { offsetInCU: 0xCBBB, offset: 0x381204, size: 0x8, addend: 0x0, symName: '__ZN3syn4expr7parsing68_$LT$impl$u20$syn..parse..Parse$u20$for$u20$syn..expr..ExprYield$GT$5parse17h17c1f052e1267cf9E', symObjAddr: 0xCD80, symBinAddr: 0xAE400, symSize: 0x110 }
  - { offsetInCU: 0xCDAE, offset: 0x3813F7, size: 0x8, addend: 0x0, symName: '__ZN3syn4expr7parsing68_$LT$impl$u20$syn..parse..Parse$u20$for$u20$syn..expr..ExprAsync$GT$5parse17h950490ecfb80e9a1E', symObjAddr: 0xCE90, symBinAddr: 0xAE510, symSize: 0x1C0 }
  - { offsetInCU: 0xD0B1, offset: 0x3816FA, size: 0x8, addend: 0x0, symName: '__ZN3syn4expr7parsing68_$LT$impl$u20$syn..parse..Parse$u20$for$u20$syn..expr..ExprWhile$GT$5parse17h571b14b3fd0af108E', symObjAddr: 0xD050, symBinAddr: 0xAE6D0, symSize: 0x910 }
  - { offsetInCU: 0xDF3F, offset: 0x382588, size: 0x8, addend: 0x0, symName: '__ZN3syn4expr7parsing68_$LT$impl$u20$syn..parse..Parse$u20$for$u20$syn..expr..ExprConst$GT$5parse17h01369ed4345e6402E', symObjAddr: 0xD960, symBinAddr: 0xAEFE0, symSize: 0x4B0 }
  - { offsetInCU: 0xE865, offset: 0x382EAE, size: 0x8, addend: 0x0, symName: '__ZN3syn4expr7parsing64_$LT$impl$u20$syn..parse..Parse$u20$for$u20$syn..expr..Label$GT$5parse17h93d18de187bdc41eE', symObjAddr: 0xDE10, symBinAddr: 0xAF490, symSize: 0x1D0 }
  - { offsetInCU: 0xEDB0, offset: 0x3833F9, size: 0x8, addend: 0x0, symName: '__ZN3syn4expr7parsing71_$LT$impl$u20$syn..parse..Parse$u20$for$u20$syn..expr..ExprContinue$GT$5parse17he5af0a754429df94E', symObjAddr: 0xDFE0, symBinAddr: 0xAF660, symSize: 0x1A0 }
  - { offsetInCU: 0xEF2B, offset: 0x383574, size: 0x8, addend: 0x0, symName: '__ZN3syn4expr7parsing69_$LT$impl$u20$syn..parse..Parse$u20$for$u20$syn..expr..FieldValue$GT$5parse17h9c84ab0cc06aa064E', symObjAddr: 0xE180, symBinAddr: 0xAF800, symSize: 0x660 }
  - { offsetInCU: 0xF914, offset: 0x383F5D, size: 0x8, addend: 0x0, symName: '__ZN3syn4expr7parsing69_$LT$impl$u20$syn..parse..Parse$u20$for$u20$syn..expr..ExprUnsafe$GT$5parse17he7d1a74465ffba81E', symObjAddr: 0xE930, symBinAddr: 0xAFE60, symSize: 0x4B0 }
  - { offsetInCU: 0x1023A, offset: 0x384883, size: 0x8, addend: 0x0, symName: '__ZN3syn4expr7parsing68_$LT$impl$u20$syn..parse..Parse$u20$for$u20$syn..expr..ExprBlock$GT$5parse17h74103f700210131fE', symObjAddr: 0xEDE0, symBinAddr: 0xB0310, symSize: 0x5E0 }
  - { offsetInCU: 0x110D0, offset: 0x385719, size: 0x8, addend: 0x0, symName: '__ZN3syn4expr7parsing70_$LT$impl$u20$syn..parse..Parse$u20$for$u20$syn..expr..RangeLimits$GT$5parse17hef78e73737c0f24cE', symObjAddr: 0xF3C0, symBinAddr: 0xB08F0, symSize: 0x2F0 }
  - { offsetInCU: 0x11CFB, offset: 0x386344, size: 0x8, addend: 0x0, symName: '__ZN3syn4expr7parsing67_$LT$impl$u20$syn..parse..Parse$u20$for$u20$syn..expr..ExprPath$GT$5parse17haeeb72b62ac51e5cE', symObjAddr: 0xFA40, symBinAddr: 0xB0F70, symSize: 0x2B0 }
  - { offsetInCU: 0x120C5, offset: 0x38670E, size: 0x8, addend: 0x0, symName: '__ZN3syn4expr7parsing65_$LT$impl$u20$syn..parse..Parse$u20$for$u20$syn..expr..Member$GT$5parse17h60bbc140c6d22534E', symObjAddr: 0xFCF0, symBinAddr: 0xB1220, symSize: 0x110 }
  - { offsetInCU: 0x12318, offset: 0x386961, size: 0x8, addend: 0x0, symName: '__ZN3syn4expr7parsing62_$LT$impl$u20$syn..parse..Parse$u20$for$u20$syn..expr..Arm$GT$5parse17hbd2ba360fcc9627cE', symObjAddr: 0xFE00, symBinAddr: 0xB1330, symSize: 0x900 }
  - { offsetInCU: 0x13138, offset: 0x387781, size: 0x8, addend: 0x0, symName: '__ZN3syn4expr7parsing64_$LT$impl$u20$syn..parse..Parse$u20$for$u20$syn..expr..Index$GT$5parse17h213ef4a079d37babE', symObjAddr: 0x10700, symBinAddr: 0xB1C30, symSize: 0x270 }
  - { offsetInCU: 0x13827, offset: 0x387E70, size: 0x8, addend: 0x0, symName: '__ZN62_$LT$syn..expr..Expr$u20$as$u20$quote..to_tokens..ToTokens$GT$9to_tokens17h69a442f5848eec7cE', symObjAddr: 0x12AD0, symBinAddr: 0xB36E0, symSize: 0x2F80 }
  - { offsetInCU: 0x1DE2F, offset: 0x392478, size: 0x8, addend: 0x0, symName: '__ZN3syn3gen5clone63_$LT$impl$u20$core..clone..Clone$u20$for$u20$syn..expr..Arm$GT$5clone17h53aa09041e68e579E', symObjAddr: 0x18200, symBinAddr: 0xB6660, symSize: 0x1F0 }
  - { offsetInCU: 0x1E7E2, offset: 0x392E2B, size: 0x8, addend: 0x0, symName: '__ZN3syn3gen5clone64_$LT$impl$u20$core..clone..Clone$u20$for$u20$syn..expr..Expr$GT$5clone17h514f3f764121797bE', symObjAddr: 0x183F0, symBinAddr: 0xB6850, symSize: 0x1F40 }
  - { offsetInCU: 0x22A74, offset: 0x3970BD, size: 0x8, addend: 0x0, symName: '__ZN3syn3gen5clone69_$LT$impl$u20$core..clone..Clone$u20$for$u20$syn..expr..ExprBlock$GT$5clone17he50df63feb0aac81E', symObjAddr: 0x1A870, symBinAddr: 0xB8790, symSize: 0x160 }
  - { offsetInCU: 0x22DBB, offset: 0x397404, size: 0x8, addend: 0x0, symName: '__ZN3syn3gen5clone69_$LT$impl$u20$core..clone..Clone$u20$for$u20$syn..expr..ExprBreak$GT$5clone17h175ec6506dc8ea05E', symObjAddr: 0x1A9D0, symBinAddr: 0xB88F0, symSize: 0x190 }
  - { offsetInCU: 0x2332E, offset: 0x397977, size: 0x8, addend: 0x0, symName: '__ZN3syn3gen5clone71_$LT$impl$u20$core..clone..Clone$u20$for$u20$syn..expr..ExprClosure$GT$5clone17ha9bd9832e2a25c35E', symObjAddr: 0x1AE10, symBinAddr: 0xB8A80, symSize: 0x360 }
  - { offsetInCU: 0x23A60, offset: 0x3980A9, size: 0x8, addend: 0x0, symName: '__ZN3syn3gen5clone71_$LT$impl$u20$core..clone..Clone$u20$for$u20$syn..expr..ExprForLoop$GT$5clone17h7dcc3a15fa9a1ad7E', symObjAddr: 0x1B440, symBinAddr: 0xB8DE0, symSize: 0x2D0 }
  - { offsetInCU: 0x242B0, offset: 0x3988F9, size: 0x8, addend: 0x0, symName: '__ZN3syn3gen5clone66_$LT$impl$u20$core..clone..Clone$u20$for$u20$syn..expr..ExprIf$GT$5clone17heafdb7ddebd20aa8E', symObjAddr: 0x1B7F0, symBinAddr: 0xB90B0, symSize: 0x200 }
  - { offsetInCU: 0x2482B, offset: 0x398E74, size: 0x8, addend: 0x0, symName: '__ZN3syn3gen5clone68_$LT$impl$u20$core..clone..Clone$u20$for$u20$syn..expr..ExprLoop$GT$5clone17h8d0e378c9d11b4faE', symObjAddr: 0x1BDC0, symBinAddr: 0xB92B0, symSize: 0x170 }
  - { offsetInCU: 0x24BA0, offset: 0x3991E9, size: 0x8, addend: 0x0, symName: '__ZN3syn3gen5clone69_$LT$impl$u20$core..clone..Clone$u20$for$u20$syn..expr..ExprMatch$GT$5clone17ha6c11e0b0c716b5fE', symObjAddr: 0x1BFC0, symBinAddr: 0xB9420, symSize: 0x140 }
  - { offsetInCU: 0x24E6B, offset: 0x3994B4, size: 0x8, addend: 0x0, symName: '__ZN3syn3gen5clone74_$LT$impl$u20$core..clone..Clone$u20$for$u20$syn..expr..ExprMethodCall$GT$5clone17h6eda847712eca907E', symObjAddr: 0x1C100, symBinAddr: 0xB9560, symSize: 0x340 }
  - { offsetInCU: 0x2565C, offset: 0x399CA5, size: 0x8, addend: 0x0, symName: '__ZN3syn3gen5clone68_$LT$impl$u20$core..clone..Clone$u20$for$u20$syn..expr..ExprPath$GT$5clone17h551c107546a23a5aE', symObjAddr: 0x1C520, symBinAddr: 0xB98A0, symSize: 0x1A0 }
  - { offsetInCU: 0x25A30, offset: 0x39A079, size: 0x8, addend: 0x0, symName: '__ZN3syn3gen5clone69_$LT$impl$u20$core..clone..Clone$u20$for$u20$syn..expr..ExprRange$GT$5clone17h17c522a22b98888cE', symObjAddr: 0x1C6C0, symBinAddr: 0xB9A40, symSize: 0x1A0 }
  - { offsetInCU: 0x25F83, offset: 0x39A5CC, size: 0x8, addend: 0x0, symName: '__ZN3syn3gen5clone70_$LT$impl$u20$core..clone..Clone$u20$for$u20$syn..expr..ExprStruct$GT$5clone17ha9a3e7ffe6d95269E', symObjAddr: 0x1CAE0, symBinAddr: 0xB9BE0, symSize: 0x3C0 }
  - { offsetInCU: 0x26859, offset: 0x39AEA2, size: 0x8, addend: 0x0, symName: '__ZN3syn3gen5clone69_$LT$impl$u20$core..clone..Clone$u20$for$u20$syn..expr..ExprWhile$GT$5clone17h9beced0f1ab317ccE', symObjAddr: 0x1D060, symBinAddr: 0xB9FA0, symSize: 0x220 }
  - { offsetInCU: 0x26E36, offset: 0x39B47F, size: 0x8, addend: 0x0, symName: '__ZN3syn3gen5clone70_$LT$impl$u20$core..clone..Clone$u20$for$u20$syn..expr..FieldValue$GT$5clone17h77ca3a84e53c5c6cE', symObjAddr: 0x1D370, symBinAddr: 0xBA1C0, symSize: 0x150 }
  - { offsetInCU: 0x2A60B, offset: 0x39EC54, size: 0x8, addend: 0x0, symName: '__ZN4core3ptr100drop_in_place$LT$core..option..Option$LT$alloc..boxed..Box$LT$syn..path..GenericArgument$GT$$GT$$GT$17h7435c9de74860622E', symObjAddr: 0x150, symBinAddr: 0xA3B60, symSize: 0x50 }
  - { offsetInCU: 0x2A9AB, offset: 0x39EFF4, size: 0x8, addend: 0x0, symName: '__ZN4core3ptr100drop_in_place$LT$syn..punctuated..Punctuated$LT$syn..path..PathSegment$C$syn..token..PathSep$GT$$GT$17hf414cb3581f8337aE', symObjAddr: 0x1A0, symBinAddr: 0xA3BB0, symSize: 0x260 }
  - { offsetInCU: 0x2B344, offset: 0x39F98D, size: 0x8, addend: 0x0, symName: '__ZN4core3ptr103drop_in_place$LT$core..option..Option$LT$alloc..boxed..Box$LT$syn..generics..TypeParamBound$GT$$GT$$GT$17h5974f03e36b1a9c3E', symObjAddr: 0x400, symBinAddr: 0xA3E10, symSize: 0x50 }
  - { offsetInCU: 0x2B551, offset: 0x39FB9A, size: 0x8, addend: 0x0, symName: '__ZN4core3ptr103drop_in_place$LT$syn..punctuated..Punctuated$LT$syn..generics..GenericParam$C$syn..token..Comma$GT$$GT$17hf42353fa44ed6da8E', symObjAddr: 0x450, symBinAddr: 0xA3E60, symSize: 0xF0 }
  - { offsetInCU: 0x2BA14, offset: 0x3A005D, size: 0x8, addend: 0x0, symName: '__ZN4core3ptr104drop_in_place$LT$syn..punctuated..Punctuated$LT$syn..generics..TypeParamBound$C$syn..token..Plus$GT$$GT$17h532f52c4a894b056E', symObjAddr: 0x540, symBinAddr: 0xA3F50, symSize: 0x190 }
  - { offsetInCU: 0x2C00B, offset: 0x3A0654, size: 0x8, addend: 0x0, symName: '__ZN4core3ptr114drop_in_place$LT$core..option..Option$LT$$LP$syn..token..If$C$alloc..boxed..Box$LT$syn..expr..Expr$GT$$RP$$GT$$GT$17hd695c14b2d7f5b56E.llvm.589876701818171446', symObjAddr: 0x6D0, symBinAddr: 0xA40E0, symSize: 0x50 }
  - { offsetInCU: 0x2C1A1, offset: 0x3A07EA, size: 0x8, addend: 0x0, symName: '__ZN4core3ptr116drop_in_place$LT$core..option..Option$LT$$LP$syn..token..Else$C$alloc..boxed..Box$LT$syn..expr..Expr$GT$$RP$$GT$$GT$17hce47d33a8602d206E', symObjAddr: 0x720, symBinAddr: 0xA4130, symSize: 0x50 }
  - { offsetInCU: 0x2C3DB, offset: 0x3A0A24, size: 0x8, addend: 0x0, symName: '__ZN4core3ptr34drop_in_place$LT$syn..lit..Lit$GT$17h8902f5ff67917034E.llvm.589876701818171446', symObjAddr: 0x770, symBinAddr: 0xA4180, symSize: 0x110 }
  - { offsetInCU: 0x2C915, offset: 0x3A0F5E, size: 0x8, addend: 0x0, symName: '__ZN4core3ptr34drop_in_place$LT$syn..pat..Pat$GT$17h4581eea028ec0969E.llvm.589876701818171446', symObjAddr: 0x880, symBinAddr: 0xA4290, symSize: 0x1000 }
  - { offsetInCU: 0x3043A, offset: 0x3A4A83, size: 0x8, addend: 0x0, symName: '__ZN4core3ptr34drop_in_place$LT$syn..ty..Type$GT$17h369e41ad4a9f1ae0E.llvm.589876701818171446', symObjAddr: 0x1880, symBinAddr: 0xA5290, symSize: 0x4F0 }
  - { offsetInCU: 0x313D4, offset: 0x3A5A1D, size: 0x8, addend: 0x0, symName: '__ZN4core3ptr35drop_in_place$LT$syn..expr..Arm$GT$17hf2baebe0cd7aed98E', symObjAddr: 0x1D70, symBinAddr: 0xA5780, symSize: 0x180 }
  - { offsetInCU: 0x31E86, offset: 0x3A64CF, size: 0x8, addend: 0x0, symName: '__ZN4core3ptr36drop_in_place$LT$syn..expr..Expr$GT$17h0f7fd4c749bae801E.llvm.589876701818171446', symObjAddr: 0x1EF0, symBinAddr: 0xA5900, symSize: 0x2600 }
  - { offsetInCU: 0x3A731, offset: 0x3AED7A, size: 0x8, addend: 0x0, symName: '__ZN4core3ptr36drop_in_place$LT$syn..mac..Macro$GT$17h4ffde962df30ebe2E.llvm.589876701818171446', symObjAddr: 0x44F0, symBinAddr: 0xA7F00, symSize: 0x40 }
  - { offsetInCU: 0x3A76B, offset: 0x3AEDB4, size: 0x8, addend: 0x0, symName: '__ZN4core3ptr36drop_in_place$LT$syn..path..Path$GT$17habea856181211e1cE.llvm.589876701818171446', symObjAddr: 0x4530, symBinAddr: 0xA7F40, symSize: 0x220 }
  - { offsetInCU: 0x3B0DE, offset: 0x3AF727, size: 0x8, addend: 0x0, symName: '__ZN4core3ptr37drop_in_place$LT$syn..lit..LitInt$GT$17hdc2cb2f4b64b71f3E', symObjAddr: 0x4750, symBinAddr: 0xA8160, symSize: 0x70 }
  - { offsetInCU: 0x3B45E, offset: 0x3AFAA7, size: 0x8, addend: 0x0, symName: '__ZN4core3ptr37drop_in_place$LT$syn..stmt..Block$GT$17hcc21a21cf949414cE.llvm.589876701818171446', symObjAddr: 0x47C0, symBinAddr: 0xA81D0, symSize: 0xD0 }
  - { offsetInCU: 0x3B721, offset: 0x3AFD6A, size: 0x8, addend: 0x0, symName: '__ZN4core3ptr38drop_in_place$LT$syn..expr..ExprIf$GT$17h01a54a489d798b2dE', symObjAddr: 0x4890, symBinAddr: 0xA82A0, symSize: 0x200 }
  - { offsetInCU: 0x3BF49, offset: 0x3B0592, size: 0x8, addend: 0x0, symName: '__ZN4core3ptr38drop_in_place$LT$syn..expr..Member$GT$17h022cbe5553aa40faE.llvm.589876701818171446', symObjAddr: 0x4A90, symBinAddr: 0xA84A0, symSize: 0x30 }
  - { offsetInCU: 0x3C046, offset: 0x3B068F, size: 0x8, addend: 0x0, symName: '__ZN4core3ptr39drop_in_place$LT$proc_macro2..Ident$GT$17h8101e88c3ac359d6E', symObjAddr: 0x4AD0, symBinAddr: 0xA84D0, symSize: 0x30 }
  - { offsetInCU: 0x3C124, offset: 0x3B076D, size: 0x8, addend: 0x0, symName: '__ZN4core3ptr40drop_in_place$LT$syn..ty..ReturnType$GT$17h02cf41e2fec63d90E', symObjAddr: 0x4E70, symBinAddr: 0xA8500, symSize: 0x50 }
  - { offsetInCU: 0x3C296, offset: 0x3B08DF, size: 0x8, addend: 0x0, symName: '__ZN4core3ptr41drop_in_place$LT$syn..expr..ExprConst$GT$17h725a13e551d9f276E', symObjAddr: 0x4EC0, symBinAddr: 0xA8550, symSize: 0x180 }
  - { offsetInCU: 0x3C7EB, offset: 0x3B0E34, size: 0x8, addend: 0x0, symName: '__ZN4core3ptr44drop_in_place$LT$syn..lifetime..Lifetime$GT$17hf0cdec2e9ec456d6E', symObjAddr: 0x5770, symBinAddr: 0xA86D0, symSize: 0x30 }
  - { offsetInCU: 0x3C964, offset: 0x3B0FAD, size: 0x8, addend: 0x0, symName: '__ZN4core3ptr44drop_in_place$LT$syn..parse..ParseBuffer$GT$17hd0dadba44a19aec2E', symObjAddr: 0x57A0, symBinAddr: 0xA8700, symSize: 0x70 }
  - { offsetInCU: 0x3CD99, offset: 0x3B13E2, size: 0x8, addend: 0x0, symName: '__ZN4core3ptr45drop_in_place$LT$proc_macro2..TokenStream$GT$17h3405f6c513e9f6cbE.llvm.589876701818171446', symObjAddr: 0x5810, symBinAddr: 0xA8770, symSize: 0x140 }
  - { offsetInCU: 0x3D208, offset: 0x3B1851, size: 0x8, addend: 0x0, symName: '__ZN4core3ptr45drop_in_place$LT$syn..generics..TypeParam$GT$17he5eda51070b7de47E', symObjAddr: 0x5950, symBinAddr: 0xA88B0, symSize: 0x230 }
  - { offsetInCU: 0x3DA61, offset: 0x3B20AA, size: 0x8, addend: 0x0, symName: '__ZN4core3ptr46drop_in_place$LT$syn..expr..ExprMethodCall$GT$17hdf90cc01d847f3e4E', symObjAddr: 0x5B80, symBinAddr: 0xA8AE0, symSize: 0x320 }
  - { offsetInCU: 0x3E7EC, offset: 0x3B2E35, size: 0x8, addend: 0x0, symName: '__ZN4core3ptr46drop_in_place$LT$syn..generics..ConstParam$GT$17hab0a58c4af8c549cE', symObjAddr: 0x5EA0, symBinAddr: 0xA8E00, symSize: 0x150 }
  - { offsetInCU: 0x3EC92, offset: 0x3B32DB, size: 0x8, addend: 0x0, symName: '__ZN4core3ptr47drop_in_place$LT$syn..path..GenericArgument$GT$17h54f8794633f96823E', symObjAddr: 0x6020, symBinAddr: 0xA8F50, symSize: 0x4A0 }
  - { offsetInCU: 0x3FD39, offset: 0x3B4382, size: 0x8, addend: 0x0, symName: '__ZN4core3ptr49drop_in_place$LT$syn..generics..LifetimeParam$GT$17h41a7c7a290ea6289E', symObjAddr: 0x64C0, symBinAddr: 0xA93F0, symSize: 0xF0 }
  - { offsetInCU: 0x400F3, offset: 0x3B473C, size: 0x8, addend: 0x0, symName: '__ZN4core3ptr50drop_in_place$LT$syn..generics..TypeParamBound$GT$17hcd7771d4c6c221efE', symObjAddr: 0x65B0, symBinAddr: 0xA94E0, symSize: 0x160 }
  - { offsetInCU: 0x40513, offset: 0x3B4B5C, size: 0x8, addend: 0x0, symName: '__ZN4core3ptr58drop_in_place$LT$alloc..vec..Vec$LT$syn..expr..Arm$GT$$GT$17h1a55df3d2cba1daaE', symObjAddr: 0x6710, symBinAddr: 0xA9640, symSize: 0xD0 }
  - { offsetInCU: 0x407A0, offset: 0x3B4DE9, size: 0x8, addend: 0x0, symName: '__ZN4core3ptr59drop_in_place$LT$alloc..boxed..Box$LT$syn..pat..Pat$GT$$GT$17h563b135d87aca8abE', symObjAddr: 0x67E0, symBinAddr: 0xA9710, symSize: 0x50 }
  - { offsetInCU: 0x408FB, offset: 0x3B4F44, size: 0x8, addend: 0x0, symName: '__ZN4core3ptr59drop_in_place$LT$alloc..boxed..Box$LT$syn..ty..Type$GT$$GT$17hffed36bad83adacbE', symObjAddr: 0x6830, symBinAddr: 0xA9760, symSize: 0x50 }
  - { offsetInCU: 0x40A56, offset: 0x3B509F, size: 0x8, addend: 0x0, symName: '__ZN4core3ptr59drop_in_place$LT$alloc..vec..Vec$LT$syn..stmt..Stmt$GT$$GT$17hb5c1acf3c61c43e2E', symObjAddr: 0x6880, symBinAddr: 0xA97B0, symSize: 0xD0 }
  - { offsetInCU: 0x40CE3, offset: 0x3B532C, size: 0x8, addend: 0x0, symName: '__ZN4core3ptr61drop_in_place$LT$alloc..boxed..Box$LT$syn..expr..Expr$GT$$GT$17h01091e47f131475dE', symObjAddr: 0x6950, symBinAddr: 0xA9880, symSize: 0x50 }
  - { offsetInCU: 0x40E5D, offset: 0x3B54A6, size: 0x8, addend: 0x0, symName: '__ZN4core3ptr61drop_in_place$LT$alloc..vec..Vec$LT$syn..expr..ExprIf$GT$$GT$17h0c094efa3006c900E', symObjAddr: 0x69A0, symBinAddr: 0xA98D0, symSize: 0xD0 }
  - { offsetInCU: 0x41166, offset: 0x3B57AF, size: 0x8, addend: 0x0, symName: '__ZN4core3ptr61drop_in_place$LT$syn..path..ParenthesizedGenericArguments$GT$17h43d4aac5494326a7E', symObjAddr: 0x6A70, symBinAddr: 0xA99A0, symSize: 0x170 }
  - { offsetInCU: 0x4172D, offset: 0x3B5D76, size: 0x8, addend: 0x0, symName: '__ZN4core3ptr62drop_in_place$LT$syn..path..AngleBracketedGenericArguments$GT$17hc5b69f68243636ddE', symObjAddr: 0x6BE0, symBinAddr: 0xA9B10, symSize: 0x120 }
  - { offsetInCU: 0x41B43, offset: 0x3B618C, size: 0x8, addend: 0x0, symName: '__ZN4core3ptr63drop_in_place$LT$alloc..boxed..Box$LT$syn..lit..LitRepr$GT$$GT$17hd8839b7fb35ee7afE', symObjAddr: 0x6D00, symBinAddr: 0xA9C30, symSize: 0x60 }
  - { offsetInCU: 0x41E38, offset: 0x3B6481, size: 0x8, addend: 0x0, symName: '__ZN4core3ptr64drop_in_place$LT$alloc..boxed..Box$LT$syn..pat..FieldPat$GT$$GT$17h4980b70a7597cc08E', symObjAddr: 0x6D60, symBinAddr: 0xA9C90, symSize: 0x140 }
  - { offsetInCU: 0x424E3, offset: 0x3B6B2C, size: 0x8, addend: 0x0, symName: '__ZN4core3ptr64drop_in_place$LT$alloc..boxed..Box$LT$syn..ty..BareFnArg$GT$$GT$17h8b34096c620314efE', symObjAddr: 0x6EA0, symBinAddr: 0xA9DD0, symSize: 0x140 }
  - { offsetInCU: 0x42A07, offset: 0x3B7050, size: 0x8, addend: 0x0, symName: '__ZN4core3ptr64drop_in_place$LT$alloc..vec..Vec$LT$syn..attr..Attribute$GT$$GT$17h3c8f2a04e701c675E.llvm.589876701818171446', symObjAddr: 0x6FE0, symBinAddr: 0xA9F10, symSize: 0xD0 }
  - { offsetInCU: 0x42C94, offset: 0x3B72DD, size: 0x8, addend: 0x0, symName: '__ZN4core3ptr65drop_in_place$LT$core..option..Option$LT$syn..expr..Label$GT$$GT$17h78189e72a8cb7951E', symObjAddr: 0x70B0, symBinAddr: 0xA9FE0, symSize: 0x30 }
  - { offsetInCU: 0x42DCF, offset: 0x3B7418, size: 0x8, addend: 0x0, symName: '__ZN4core3ptr65drop_in_place$LT$core..option..Option$LT$syn..path..QSelf$GT$$GT$17h9b72552ca06b7379E.llvm.589876701818171446', symObjAddr: 0x70E0, symBinAddr: 0xAA010, symSize: 0x50 }
  - { offsetInCU: 0x42F68, offset: 0x3B75B1, size: 0x8, addend: 0x0, symName: '__ZN4core3ptr66drop_in_place$LT$core..option..Option$LT$syn..pat..PatRest$GT$$GT$17h61677cf4ff3a7393E', symObjAddr: 0x7130, symBinAddr: 0xAA060, symSize: 0xE0 }
  - { offsetInCU: 0x431EC, offset: 0x3B7835, size: 0x8, addend: 0x0, symName: '__ZN4core3ptr67drop_in_place$LT$alloc..boxed..Box$LT$syn..expr..FieldValue$GT$$GT$17h93aaccf8aa22ef88E', symObjAddr: 0x7210, symBinAddr: 0xAA140, symSize: 0x140 }
  - { offsetInCU: 0x436F0, offset: 0x3B7D39, size: 0x8, addend: 0x0, symName: '__ZN4core3ptr68drop_in_place$LT$alloc..boxed..Box$LT$syn..path..PathSegment$GT$$GT$17h709dabdc13b58a71E', symObjAddr: 0x7350, symBinAddr: 0xAA280, symSize: 0x190 }
  - { offsetInCU: 0x43DCE, offset: 0x3B8417, size: 0x8, addend: 0x0, symName: '__ZN4core3ptr70drop_in_place$LT$core..option..Option$LT$syn..ty..BareVariadic$GT$$GT$17h45399348ea4b8d55E', symObjAddr: 0x74E0, symBinAddr: 0xAA410, symSize: 0x120 }
  - { offsetInCU: 0x442FB, offset: 0x3B8944, size: 0x8, addend: 0x0, symName: '__ZN4core3ptr72drop_in_place$LT$alloc..boxed..Box$LT$syn..path..GenericArgument$GT$$GT$17haa7dd8b716637b54E', symObjAddr: 0x7600, symBinAddr: 0xAA530, symSize: 0x1D0 }
  - { offsetInCU: 0x4489E, offset: 0x3B8EE7, size: 0x8, addend: 0x0, symName: '__ZN4core3ptr72drop_in_place$LT$core..option..Option$LT$syn..lifetime..Lifetime$GT$$GT$17hfc363ccdd8bd9c32E', symObjAddr: 0x77D0, symBinAddr: 0xAA700, symSize: 0x30 }
  - { offsetInCU: 0x449BA, offset: 0x3B9003, size: 0x8, addend: 0x0, symName: '__ZN4core3ptr73drop_in_place$LT$alloc..boxed..Box$LT$syn..generics..GenericParam$GT$$GT$17hf6951dcd5ae07324E', symObjAddr: 0x7800, symBinAddr: 0xAA730, symSize: 0x80 }
  - { offsetInCU: 0x44B32, offset: 0x3B917B, size: 0x8, addend: 0x0, symName: '__ZN4core3ptr75drop_in_place$LT$alloc..boxed..Box$LT$syn..generics..TypeParamBound$GT$$GT$17he61c00698a311a34E', symObjAddr: 0x7880, symBinAddr: 0xAA7B0, symSize: 0xB0 }
  - { offsetInCU: 0x44E8D, offset: 0x3B94D6, size: 0x8, addend: 0x0, symName: '__ZN4core3ptr86drop_in_place$LT$syn..punctuated..Punctuated$LT$syn..pat..Pat$C$syn..token..Or$GT$$GT$17h8e9173df21a44316E', symObjAddr: 0x7950, symBinAddr: 0xAA860, symSize: 0x120 }
  - { offsetInCU: 0x452D3, offset: 0x3B991C, size: 0x8, addend: 0x0, symName: '__ZN4core3ptr87drop_in_place$LT$core..option..Option$LT$alloc..boxed..Box$LT$syn..pat..Pat$GT$$GT$$GT$17hd7b7c69f601b3926E', symObjAddr: 0x7A70, symBinAddr: 0xAA980, symSize: 0x50 }
  - { offsetInCU: 0x45445, offset: 0x3B9A8E, size: 0x8, addend: 0x0, symName: '__ZN4core3ptr87drop_in_place$LT$core..option..Option$LT$alloc..boxed..Box$LT$syn..ty..Type$GT$$GT$$GT$17hd74f5d971aec2972E', symObjAddr: 0x7AC0, symBinAddr: 0xAA9D0, symSize: 0x50 }
  - { offsetInCU: 0x455B7, offset: 0x3B9C00, size: 0x8, addend: 0x0, symName: '__ZN4core3ptr88drop_in_place$LT$$LP$syn..token..Else$C$alloc..boxed..Box$LT$syn..expr..Expr$GT$$RP$$GT$17hba8984e392f62c24E', symObjAddr: 0x7B10, symBinAddr: 0xAAA20, symSize: 0x50 }
  - { offsetInCU: 0x45731, offset: 0x3B9D7A, size: 0x8, addend: 0x0, symName: '__ZN4core3ptr89drop_in_place$LT$core..option..Option$LT$alloc..boxed..Box$LT$syn..expr..Expr$GT$$GT$$GT$17h8e135ac1a25a2dc5E.llvm.589876701818171446', symObjAddr: 0x7B60, symBinAddr: 0xAAA70, symSize: 0x50 }
  - { offsetInCU: 0x458E1, offset: 0x3B9F2A, size: 0x8, addend: 0x0, symName: '__ZN4core3ptr89drop_in_place$LT$syn..punctuated..Punctuated$LT$syn..pat..Pat$C$syn..token..Comma$GT$$GT$17h8d60e47f3fb1f87aE', symObjAddr: 0x7BB0, symBinAddr: 0xAAAC0, symSize: 0x120 }
  - { offsetInCU: 0x45D3E, offset: 0x3BA387, size: 0x8, addend: 0x0, symName: '__ZN4core3ptr89drop_in_place$LT$syn..punctuated..Punctuated$LT$syn..ty..Type$C$syn..token..Comma$GT$$GT$17ha919b3114742fb9dE', symObjAddr: 0x7CD0, symBinAddr: 0xAABE0, symSize: 0x120 }
  - { offsetInCU: 0x46188, offset: 0x3BA7D1, size: 0x8, addend: 0x0, symName: '__ZN4core3ptr90drop_in_place$LT$core..option..Option$LT$syn..path..AngleBracketedGenericArguments$GT$$GT$17h80d9a5f0818c8bd9E', symObjAddr: 0x7DF0, symBinAddr: 0xAAD00, symSize: 0x130 }
  - { offsetInCU: 0x465B5, offset: 0x3BABFE, size: 0x8, addend: 0x0, symName: '__ZN4core3ptr91drop_in_place$LT$syn..punctuated..Punctuated$LT$syn..expr..Expr$C$syn..token..Comma$GT$$GT$17h4f39b83dc86a4159E', symObjAddr: 0x7F20, symBinAddr: 0xAAE30, symSize: 0x120 }
  - { offsetInCU: 0x469FF, offset: 0x3BB048, size: 0x8, addend: 0x0, symName: '__ZN4core3ptr94drop_in_place$LT$syn..punctuated..Punctuated$LT$syn..pat..FieldPat$C$syn..token..Comma$GT$$GT$17h112950ea198c8281E', symObjAddr: 0x8040, symBinAddr: 0xAAF50, symSize: 0xF0 }
  - { offsetInCU: 0x46CC9, offset: 0x3BB312, size: 0x8, addend: 0x0, symName: '__ZN4core3ptr94drop_in_place$LT$syn..punctuated..Punctuated$LT$syn..ty..BareFnArg$C$syn..token..Comma$GT$$GT$17h1c7b44310f06243dE', symObjAddr: 0x8130, symBinAddr: 0xAB040, symSize: 0xF0 }
  - { offsetInCU: 0x46F93, offset: 0x3BB5DC, size: 0x8, addend: 0x0, symName: '__ZN4core3ptr95drop_in_place$LT$core..option..Option$LT$$LP$proc_macro2..Ident$C$syn..token..Colon$RP$$GT$$GT$17ha744bf0f41959716E', symObjAddr: 0x8220, symBinAddr: 0xAB130, symSize: 0x30 }
  - { offsetInCU: 0x470AF, offset: 0x3BB6F8, size: 0x8, addend: 0x0, symName: '__ZN4core3ptr96drop_in_place$LT$core..option..Option$LT$alloc..boxed..Box$LT$syn..path..PathSegment$GT$$GT$$GT$17hb447d0f626c86a4eE', symObjAddr: 0x8250, symBinAddr: 0xAB160, symSize: 0x90 }
  - { offsetInCU: 0x47331, offset: 0x3BB97A, size: 0x8, addend: 0x0, symName: '__ZN4core3ptr97drop_in_place$LT$syn..punctuated..Punctuated$LT$syn..expr..FieldValue$C$syn..token..Comma$GT$$GT$17h31b81f7462228dcbE', symObjAddr: 0x82E0, symBinAddr: 0xAB1F0, symSize: 0xF0 }
  - { offsetInCU: 0x47677, offset: 0x3BBCC0, size: 0x8, addend: 0x0, symName: '__ZN4core3ptr98drop_in_place$LT$syn..punctuated..Punctuated$LT$syn..lifetime..Lifetime$C$syn..token..Plus$GT$$GT$17h0f8fc5f20f465f47E', symObjAddr: 0x83D0, symBinAddr: 0xAB2E0, symSize: 0xC0 }
  - { offsetInCU: 0x4E081, offset: 0x3C26CA, size: 0x8, addend: 0x0, symName: '__ZN69_$LT$alloc..boxed..Box$LT$T$C$A$GT$$u20$as$u20$core..clone..Clone$GT$5clone17h3b3509f8065d1aa7E', symObjAddr: 0x8B90, symBinAddr: 0xAB3A0, symSize: 0x90 }
  - { offsetInCU: 0x4FB0C, offset: 0x3C4155, size: 0x8, addend: 0x0, symName: __ZN3syn4expr4Expr13replace_attrs17h8f3cf7f80b801d36E, symObjAddr: 0x8FE0, symBinAddr: 0xAB430, symSize: 0x1D0 }
  - { offsetInCU: 0x50D30, offset: 0x3C5379, size: 0x8, addend: 0x0, symName: '__ZN3syn4expr7parsing40_$LT$impl$u20$syn..expr..RangeLimits$GT$14parse_obsolete17he567255c2d646d59E', symObjAddr: 0xF6B0, symBinAddr: 0xB0BE0, symSize: 0x390 }
  - { offsetInCU: 0x1090, offset: 0x3D2B37, size: 0x8, addend: 0x0, symName: '__ZN42_$LT$$RF$T$u20$as$u20$core..fmt..Debug$GT$3fmt17he3619b2352a5e524E', symObjAddr: 0x180, symBinAddr: 0xBA3B0, symSize: 0x80 }
  - { offsetInCU: 0x317F, offset: 0x3D4C26, size: 0x8, addend: 0x0, symName: '__ZN4core3ptr100drop_in_place$LT$core..option..Option$LT$alloc..boxed..Box$LT$syn..path..GenericArgument$GT$$GT$$GT$17h7435c9de74860622E.llvm.2618680253894991198', symObjAddr: 0x280, symBinAddr: 0xBA430, symSize: 0x50 }
  - { offsetInCU: 0x34C2, offset: 0x3D4F69, size: 0x8, addend: 0x0, symName: '__ZN4core3ptr100drop_in_place$LT$syn..punctuated..Punctuated$LT$syn..path..PathSegment$C$syn..token..PathSep$GT$$GT$17hf414cb3581f8337aE.llvm.2618680253894991198', symObjAddr: 0x2D0, symBinAddr: 0xBA480, symSize: 0x1A0 }
  - { offsetInCU: 0x3B9A, offset: 0x3D5641, size: 0x8, addend: 0x0, symName: '__ZN4core3ptr101drop_in_place$LT$core..option..Option$LT$alloc..boxed..Box$LT$syn..generics..GenericParam$GT$$GT$$GT$17hd5dce04b35fda9feE', symObjAddr: 0x470, symBinAddr: 0xBA620, symSize: 0x50 }
  - { offsetInCU: 0x3D88, offset: 0x3D582F, size: 0x8, addend: 0x0, symName: '__ZN4core3ptr102drop_in_place$LT$syn..punctuated..Punctuated$LT$syn..path..GenericArgument$C$syn..token..Comma$GT$$GT$17h39496ba4e6dba6cfE.llvm.2618680253894991198', symObjAddr: 0x4C0, symBinAddr: 0xBA670, symSize: 0xF0 }
  - { offsetInCU: 0x4071, offset: 0x3D5B18, size: 0x8, addend: 0x0, symName: '__ZN4core3ptr103drop_in_place$LT$core..option..Option$LT$alloc..boxed..Box$LT$syn..generics..TypeParamBound$GT$$GT$$GT$17h5974f03e36b1a9c3E.llvm.2618680253894991198', symObjAddr: 0x5B0, symBinAddr: 0xBA760, symSize: 0x50 }
  - { offsetInCU: 0x4202, offset: 0x3D5CA9, size: 0x8, addend: 0x0, symName: '__ZN4core3ptr103drop_in_place$LT$core..option..Option$LT$alloc..boxed..Box$LT$syn..generics..WherePredicate$GT$$GT$$GT$17hdd5111a374d8d6f2E', symObjAddr: 0x600, symBinAddr: 0xBA7B0, symSize: 0x50 }
  - { offsetInCU: 0x442E, offset: 0x3D5ED5, size: 0x8, addend: 0x0, symName: '__ZN4core3ptr103drop_in_place$LT$syn..punctuated..Punctuated$LT$syn..generics..GenericParam$C$syn..token..Comma$GT$$GT$17hf42353fa44ed6da8E.llvm.2618680253894991198', symObjAddr: 0x650, symBinAddr: 0xBA800, symSize: 0x1A0 }
  - { offsetInCU: 0x49FD, offset: 0x3D64A4, size: 0x8, addend: 0x0, symName: '__ZN4core3ptr104drop_in_place$LT$syn..punctuated..Punctuated$LT$syn..generics..TypeParamBound$C$syn..token..Plus$GT$$GT$17h532f52c4a894b056E.llvm.2618680253894991198', symObjAddr: 0x7F0, symBinAddr: 0xBA9A0, symSize: 0x230 }
  - { offsetInCU: 0x532E, offset: 0x3D6DD5, size: 0x8, addend: 0x0, symName: '__ZN4core3ptr105drop_in_place$LT$syn..punctuated..Punctuated$LT$syn..generics..WherePredicate$C$syn..token..Comma$GT$$GT$17h935f9826ba562349E', symObjAddr: 0xA20, symBinAddr: 0xBABD0, symSize: 0x190 }
  - { offsetInCU: 0x59FF, offset: 0x3D74A6, size: 0x8, addend: 0x0, symName: '__ZN4core3ptr116drop_in_place$LT$core..option..Option$LT$$LP$syn..token..Else$C$alloc..boxed..Box$LT$syn..expr..Expr$GT$$RP$$GT$$GT$17hce47d33a8602d206E', symObjAddr: 0xBB0, symBinAddr: 0xBAD60, symSize: 0x50 }
  - { offsetInCU: 0x5BBD, offset: 0x3D7664, size: 0x8, addend: 0x0, symName: '__ZN4core3ptr126drop_in_place$LT$core..option..Option$LT$$LP$syn..token..And$C$core..option..Option$LT$syn..lifetime..Lifetime$GT$$RP$$GT$$GT$17hc269ac95805979aaE', symObjAddr: 0xC00, symBinAddr: 0xBADB0, symSize: 0x30 }
  - { offsetInCU: 0x5E4D, offset: 0x3D78F4, size: 0x8, addend: 0x0, symName: '__ZN4core3ptr33drop_in_place$LT$syn..ty..Abi$GT$17h82d9e208356e7513E', symObjAddr: 0xC30, symBinAddr: 0xBADE0, symSize: 0x60 }
  - { offsetInCU: 0x5E69, offset: 0x3D7910, size: 0x8, addend: 0x0, symName: '__ZN4core3ptr33drop_in_place$LT$syn..ty..Abi$GT$17h82d9e208356e7513E', symObjAddr: 0xC30, symBinAddr: 0xBADE0, symSize: 0x60 }
  - { offsetInCU: 0x6163, offset: 0x3D7C0A, size: 0x8, addend: 0x0, symName: '__ZN4core3ptr34drop_in_place$LT$syn..lit..Lit$GT$17h8902f5ff67917034E', symObjAddr: 0xC90, symBinAddr: 0xBAE40, symSize: 0x110 }
  - { offsetInCU: 0x66DB, offset: 0x3D8182, size: 0x8, addend: 0x0, symName: '__ZN4core3ptr34drop_in_place$LT$syn..pat..Pat$GT$17h4581eea028ec0969E.llvm.2618680253894991198', symObjAddr: 0xDA0, symBinAddr: 0xBAF50, symSize: 0xF50 }
  - { offsetInCU: 0xA17A, offset: 0x3DBC21, size: 0x8, addend: 0x0, symName: '__ZN4core3ptr34drop_in_place$LT$syn..ty..Type$GT$17h369e41ad4a9f1ae0E.llvm.2618680253894991198', symObjAddr: 0x1CF0, symBinAddr: 0xBBEA0, symSize: 0x4E0 }
  - { offsetInCU: 0xB243, offset: 0x3DCCEA, size: 0x8, addend: 0x0, symName: '__ZN4core3ptr35drop_in_place$LT$syn..expr..Arm$GT$17hf2baebe0cd7aed98E.llvm.2618680253894991198', symObjAddr: 0x21D0, symBinAddr: 0xBC380, symSize: 0x190 }
  - { offsetInCU: 0xB827, offset: 0x3DD2CE, size: 0x8, addend: 0x0, symName: '__ZN4core3ptr36drop_in_place$LT$syn..attr..Meta$GT$17hceda0eaca68b0dd1E.llvm.2618680253894991198', symObjAddr: 0x2360, symBinAddr: 0xBC510, symSize: 0x220 }
  - { offsetInCU: 0xC326, offset: 0x3DDDCD, size: 0x8, addend: 0x0, symName: '__ZN4core3ptr36drop_in_place$LT$syn..expr..Expr$GT$17h0f7fd4c749bae801E.llvm.2618680253894991198', symObjAddr: 0x2580, symBinAddr: 0xBC730, symSize: 0x2680 }
  - { offsetInCU: 0x15BA5, offset: 0x3E764C, size: 0x8, addend: 0x0, symName: '__ZN4core3ptr36drop_in_place$LT$syn..item..Item$GT$17h13f5a53479ba6379E.llvm.2618680253894991198', symObjAddr: 0x4C00, symBinAddr: 0xBEDB0, symSize: 0x17D0 }
  - { offsetInCU: 0x1B0A4, offset: 0x3ECB4B, size: 0x8, addend: 0x0, symName: '__ZN4core3ptr36drop_in_place$LT$syn..mac..Macro$GT$17h4ffde962df30ebe2E', symObjAddr: 0x63D0, symBinAddr: 0xC0580, symSize: 0xE0 }
  - { offsetInCU: 0x1B3AE, offset: 0x3ECE55, size: 0x8, addend: 0x0, symName: '__ZN4core3ptr36drop_in_place$LT$syn..path..Path$GT$17habea856181211e1cE.llvm.2618680253894991198', symObjAddr: 0x64B0, symBinAddr: 0xC0660, symSize: 0x150 }
  - { offsetInCU: 0x1B95B, offset: 0x3ED402, size: 0x8, addend: 0x0, symName: '__ZN4core3ptr36drop_in_place$LT$syn..stmt..Stmt$GT$17h7826ed37cb9634e5E.llvm.2618680253894991198', symObjAddr: 0x6600, symBinAddr: 0xC07B0, symSize: 0x380 }
  - { offsetInCU: 0x1C527, offset: 0x3EDFCE, size: 0x8, addend: 0x0, symName: '__ZN4core3ptr37drop_in_place$LT$syn..data..Field$GT$17h8ecf6e22a67a3b36E.llvm.2618680253894991198', symObjAddr: 0x6980, symBinAddr: 0xC0B30, symSize: 0x180 }
  - { offsetInCU: 0x1CAEC, offset: 0x3EE593, size: 0x8, addend: 0x0, symName: '__ZN4core3ptr37drop_in_place$LT$syn..item..FnArg$GT$17h3308e115b3b3c9adE.llvm.2618680253894991198', symObjAddr: 0x6B00, symBinAddr: 0xC0CB0, symSize: 0x230 }
  - { offsetInCU: 0x1D39E, offset: 0x3EEE45, size: 0x8, addend: 0x0, symName: '__ZN4core3ptr37drop_in_place$LT$syn..stmt..Block$GT$17hcc21a21cf949414cE', symObjAddr: 0x6D30, symBinAddr: 0xC0EE0, symSize: 0xD0 }
  - { offsetInCU: 0x1D642, offset: 0x3EF0E9, size: 0x8, addend: 0x0, symName: '__ZN4core3ptr38drop_in_place$LT$syn..expr..ExprIf$GT$17h01a54a489d798b2dE.llvm.2618680253894991198', symObjAddr: 0x6E00, symBinAddr: 0xC0FB0, symSize: 0x1B0 }
  - { offsetInCU: 0x1DEAC, offset: 0x3EF953, size: 0x8, addend: 0x0, symName: '__ZN4core3ptr38drop_in_place$LT$syn..expr..Member$GT$17h022cbe5553aa40faE.llvm.2618680253894991198', symObjAddr: 0x6FB0, symBinAddr: 0xC1160, symSize: 0x30 }
  - { offsetInCU: 0x1DFA9, offset: 0x3EFA50, size: 0x8, addend: 0x0, symName: '__ZN4core3ptr38drop_in_place$LT$syn..pat..PatType$GT$17hcbbce80a195201a4E.llvm.2618680253894991198', symObjAddr: 0x6FE0, symBinAddr: 0xC1190, symSize: 0x140 }
  - { offsetInCU: 0x1E525, offset: 0x3EFFCC, size: 0x8, addend: 0x0, symName: '__ZN4core3ptr39drop_in_place$LT$proc_macro2..Ident$GT$17h8101e88c3ac359d6E.llvm.2618680253894991198', symObjAddr: 0x7120, symBinAddr: 0xC12D0, symSize: 0x30 }
  - { offsetInCU: 0x1E739, offset: 0x3F01E0, size: 0x8, addend: 0x0, symName: '__ZN4core3ptr39drop_in_place$LT$syn..buffer..Entry$GT$17h8c4c199506966aaeE.llvm.2618680253894991198', symObjAddr: 0x7150, symBinAddr: 0xC1300, symSize: 0xC0 }
  - { offsetInCU: 0x1EAAA, offset: 0x3F0551, size: 0x8, addend: 0x0, symName: '__ZN4core3ptr39drop_in_place$LT$syn..data..Variant$GT$17h7bd4c363751fc860E.llvm.2618680253894991198', symObjAddr: 0x7210, symBinAddr: 0xC13C0, symSize: 0x2F0 }
  - { offsetInCU: 0x1F6B8, offset: 0x3F115F, size: 0x8, addend: 0x0, symName: '__ZN4core3ptr39drop_in_place$LT$syn..item..UseTree$GT$17h5b1281a5704d139dE.llvm.2618680253894991198', symObjAddr: 0x7500, symBinAddr: 0xC16B0, symSize: 0x1D0 }
  - { offsetInCU: 0x1FDD7, offset: 0x3F187E, size: 0x8, addend: 0x0, symName: '__ZN4core3ptr40drop_in_place$LT$syn..item..ImplItem$GT$17he2e6e8f15695ea55E', symObjAddr: 0x76D0, symBinAddr: 0xC1880, symSize: 0x240 }
  - { offsetInCU: 0x203D2, offset: 0x3F1E79, size: 0x8, addend: 0x0, symName: '__ZN4core3ptr40drop_in_place$LT$syn..item..Receiver$GT$17h6743a41cd869c536E.llvm.2618680253894991198', symObjAddr: 0x7910, symBinAddr: 0xC1AC0, symSize: 0x130 }
  - { offsetInCU: 0x209A5, offset: 0x3F244C, size: 0x8, addend: 0x0, symName: '__ZN4core3ptr40drop_in_place$LT$syn..item..Variadic$GT$17h856c1da4a3922974E', symObjAddr: 0x7A40, symBinAddr: 0xC1BF0, symSize: 0x120 }
  - { offsetInCU: 0x20E1C, offset: 0x3F28C3, size: 0x8, addend: 0x0, symName: '__ZN4core3ptr40drop_in_place$LT$syn..ty..ReturnType$GT$17h02cf41e2fec63d90E.llvm.2618680253894991198', symObjAddr: 0x7B60, symBinAddr: 0xC1D10, symSize: 0x50 }
  - { offsetInCU: 0x20FAD, offset: 0x3F2A54, size: 0x8, addend: 0x0, symName: '__ZN4core3ptr41drop_in_place$LT$syn..attr..Attribute$GT$17h6038ab1bc013504dE.llvm.2618680253894991198', symObjAddr: 0x7BB0, symBinAddr: 0xC1D60, symSize: 0x160 }
  - { offsetInCU: 0x21493, offset: 0x3F2F3A, size: 0x8, addend: 0x0, symName: '__ZN4core3ptr41drop_in_place$LT$syn..item..Signature$GT$17h691f115807a5d1eeE', symObjAddr: 0x7D10, symBinAddr: 0xC1EC0, symSize: 0x280 }
  - { offsetInCU: 0x21F82, offset: 0x3F3A29, size: 0x8, addend: 0x0, symName: '__ZN4core3ptr41drop_in_place$LT$syn..item..TraitItem$GT$17hb6f9fbcba8fdea85E', symObjAddr: 0x7F90, symBinAddr: 0xC2140, symSize: 0x3E0 }
  - { offsetInCU: 0x22AA8, offset: 0x3F454F, size: 0x8, addend: 0x0, symName: '__ZN4core3ptr41drop_in_place$LT$syn..stmt..LocalInit$GT$17he02c3bb35adaf040E', symObjAddr: 0x8370, symBinAddr: 0xC2520, symSize: 0xC0 }
  - { offsetInCU: 0x22D9C, offset: 0x3F4843, size: 0x8, addend: 0x0, symName: '__ZN4core3ptr42drop_in_place$LT$syn..item..ImplItemFn$GT$17h753bae801f2662d9E', symObjAddr: 0x8430, symBinAddr: 0xC25E0, symSize: 0x230 }
  - { offsetInCU: 0x234F7, offset: 0x3F4F9E, size: 0x8, addend: 0x0, symName: '__ZN4core3ptr42drop_in_place$LT$syn..path..Constraint$GT$17h07cd69a204b9a6d4E', symObjAddr: 0x8660, symBinAddr: 0xC2810, symSize: 0x160 }
  - { offsetInCU: 0x23A57, offset: 0x3F54FE, size: 0x8, addend: 0x0, symName: '__ZN4core3ptr43drop_in_place$LT$proc_macro2..TokenTree$GT$17h9a731c54895ae11bE.llvm.2618680253894991198', symObjAddr: 0x87C0, symBinAddr: 0xC2970, symSize: 0xB0 }
  - { offsetInCU: 0x23D6B, offset: 0x3F5812, size: 0x8, addend: 0x0, symName: '__ZN4core3ptr43drop_in_place$LT$syn..data..FieldsNamed$GT$17hb2a97e73a85352cbE', symObjAddr: 0x8870, symBinAddr: 0xC2A20, symSize: 0x120 }
  - { offsetInCU: 0x241F3, offset: 0x3F5C9A, size: 0x8, addend: 0x0, symName: '__ZN4core3ptr43drop_in_place$LT$syn..item..ForeignItem$GT$17h1398b9aa0a6e4c9dE', symObjAddr: 0x8990, symBinAddr: 0xC2B40, symSize: 0x330 }
  - { offsetInCU: 0x24B7A, offset: 0x3F6621, size: 0x8, addend: 0x0, symName: '__ZN4core3ptr43drop_in_place$LT$syn..path..PathSegment$GT$17h62e206c29667de7cE.llvm.2618680253894991198', symObjAddr: 0x8CC0, symBinAddr: 0xC2E70, symSize: 0x170 }
  - { offsetInCU: 0x2511E, offset: 0x3F6BC5, size: 0x8, addend: 0x0, symName: '__ZN4core3ptr44drop_in_place$LT$syn..generics..Generics$GT$17h10dea28dec64f81eE', symObjAddr: 0x8E30, symBinAddr: 0xC2FE0, symSize: 0x220 }
  - { offsetInCU: 0x2599B, offset: 0x3F7442, size: 0x8, addend: 0x0, symName: '__ZN4core3ptr44drop_in_place$LT$syn..item..ImplItemType$GT$17h9547daf76315cef8E', symObjAddr: 0x9050, symBinAddr: 0xC3200, symSize: 0x1D0 }
  - { offsetInCU: 0x25F83, offset: 0x3F7A2A, size: 0x8, addend: 0x0, symName: '__ZN4core3ptr44drop_in_place$LT$syn..lifetime..Lifetime$GT$17hf0cdec2e9ec456d6E.llvm.2618680253894991198', symObjAddr: 0x9220, symBinAddr: 0xC33D0, symSize: 0x30 }
  - { offsetInCU: 0x260DD, offset: 0x3F7B84, size: 0x8, addend: 0x0, symName: '__ZN4core3ptr45drop_in_place$LT$proc_macro2..TokenStream$GT$17h3405f6c513e9f6cbE.llvm.2618680253894991198', symObjAddr: 0x9250, symBinAddr: 0xC3400, symSize: 0x70 }
  - { offsetInCU: 0x26244, offset: 0x3F7CEB, size: 0x8, addend: 0x0, symName: '__ZN4core3ptr45drop_in_place$LT$syn..generics..TypeParam$GT$17he5eda51070b7de47E.llvm.2618680253894991198', symObjAddr: 0x92C0, symBinAddr: 0xC3470, symSize: 0x230 }
  - { offsetInCU: 0x26A89, offset: 0x3F8530, size: 0x8, addend: 0x0, symName: '__ZN4core3ptr45drop_in_place$LT$syn..item..ImplItemConst$GT$17he90cac64fa027f09E', symObjAddr: 0x94F0, symBinAddr: 0xC36A0, symSize: 0x200 }
  - { offsetInCU: 0x270AF, offset: 0x3F8B56, size: 0x8, addend: 0x0, symName: '__ZN4core3ptr45drop_in_place$LT$syn..item..TraitItemType$GT$17hec5203fd126d0733E', symObjAddr: 0x96F0, symBinAddr: 0xC38A0, symSize: 0x290 }
  - { offsetInCU: 0x279C0, offset: 0x3F9467, size: 0x8, addend: 0x0, symName: '__ZN4core3ptr46drop_in_place$LT$$u5b$syn..stmt..Stmt$u5d$$GT$17h0a8006ae14c66d0fE.llvm.2618680253894991198', symObjAddr: 0x9980, symBinAddr: 0xC3B30, symSize: 0x2F0 }
  - { offsetInCU: 0x27FF2, offset: 0x3F9A99, size: 0x8, addend: 0x0, symName: '__ZN4core3ptr46drop_in_place$LT$syn..generics..ConstParam$GT$17hab0a58c4af8c549cE.llvm.2618680253894991198', symObjAddr: 0x9C70, symBinAddr: 0xC3E20, symSize: 0x150 }
  - { offsetInCU: 0x283F3, offset: 0x3F9E9A, size: 0x8, addend: 0x0, symName: '__ZN4core3ptr46drop_in_place$LT$syn..item..TraitItemConst$GT$17h93b00edde47e0b07E', symObjAddr: 0x9DC0, symBinAddr: 0xC3F70, symSize: 0x1A0 }
  - { offsetInCU: 0x288A7, offset: 0x3FA34E, size: 0x8, addend: 0x0, symName: '__ZN4core3ptr47drop_in_place$LT$syn..generics..WhereClause$GT$17h8d71cc7a854160ddE', symObjAddr: 0x9F60, symBinAddr: 0xC4110, symSize: 0x120 }
  - { offsetInCU: 0x28CF1, offset: 0x3FA798, size: 0x8, addend: 0x0, symName: '__ZN4core3ptr47drop_in_place$LT$syn..item..ForeignItemType$GT$17ha1c97c43a7eb44cfE', symObjAddr: 0xA080, symBinAddr: 0xC4230, symSize: 0x1A0 }
  - { offsetInCU: 0x29336, offset: 0x3FADDD, size: 0x8, addend: 0x0, symName: '__ZN4core3ptr47drop_in_place$LT$syn..path..GenericArgument$GT$17h54f8794633f96823E.llvm.2618680253894991198', symObjAddr: 0xA220, symBinAddr: 0xC43D0, symSize: 0x1C0 }
  - { offsetInCU: 0x297E9, offset: 0x3FB290, size: 0x8, addend: 0x0, symName: '__ZN4core3ptr48drop_in_place$LT$syn..generics..GenericParam$GT$17h9c895978ef08f584E.llvm.2618680253894991198', symObjAddr: 0xA3E0, symBinAddr: 0xC4590, symSize: 0x150 }
  - { offsetInCU: 0x29BDB, offset: 0x3FB682, size: 0x8, addend: 0x0, symName: '__ZN4core3ptr49drop_in_place$LT$syn..generics..LifetimeParam$GT$17h41a7c7a290ea6289E.llvm.2618680253894991198', symObjAddr: 0xA530, symBinAddr: 0xC46E0, symSize: 0xF0 }
  - { offsetInCU: 0x29FB6, offset: 0x3FBA5D, size: 0x8, addend: 0x0, symName: '__ZN4core3ptr49drop_in_place$LT$syn..generics..PredicateType$GT$17hf38482bec426e936E.llvm.2618680253894991198', symObjAddr: 0xA620, symBinAddr: 0xC47D0, symSize: 0x170 }
  - { offsetInCU: 0x2A432, offset: 0x3FBED9, size: 0x8, addend: 0x0, symName: '__ZN4core3ptr49drop_in_place$LT$syn..item..ForeignItemStatic$GT$17h7f3c810db69ed760E', symObjAddr: 0xA790, symBinAddr: 0xC4940, symSize: 0x180 }
  - { offsetInCU: 0x2AB0B, offset: 0x3FC5B2, size: 0x8, addend: 0x0, symName: '__ZN4core3ptr50drop_in_place$LT$$u5b$syn..item..ImplItem$u5d$$GT$17haee7878761be0217E.llvm.2618680253894991198', symObjAddr: 0xA910, symBinAddr: 0xC4AC0, symSize: 0x230 }
  - { offsetInCU: 0x2AE33, offset: 0x3FC8DA, size: 0x8, addend: 0x0, symName: '__ZN4core3ptr50drop_in_place$LT$syn..generics..TypeParamBound$GT$17hcd7771d4c6c221efE.llvm.2618680253894991198', symObjAddr: 0xAB40, symBinAddr: 0xC4CF0, symSize: 0xA0 }
  - { offsetInCU: 0x2AFB9, offset: 0x3FCA60, size: 0x8, addend: 0x0, symName: '__ZN4core3ptr50drop_in_place$LT$syn..generics..WherePredicate$GT$17h1a9d05bc1beb1d91E.llvm.2618680253894991198', symObjAddr: 0xABE0, symBinAddr: 0xC4D90, symSize: 0xA0 }
  - { offsetInCU: 0x2B166, offset: 0x3FCC0D, size: 0x8, addend: 0x0, symName: '__ZN4core3ptr51drop_in_place$LT$$u5b$syn..item..TraitItem$u5d$$GT$17h64a6457ddfeb24d5E.llvm.2618680253894991198', symObjAddr: 0xAC80, symBinAddr: 0xC4E30, symSize: 0x3F0 }
  - { offsetInCU: 0x2B9BE, offset: 0x3FD465, size: 0x8, addend: 0x0, symName: '__ZN4core3ptr52drop_in_place$LT$syn..restriction..VisRestricted$GT$17h7de420d0018508c5E', symObjAddr: 0xB070, symBinAddr: 0xC5220, symSize: 0x50 }
  - { offsetInCU: 0x2BB57, offset: 0x3FD5FE, size: 0x8, addend: 0x0, symName: '__ZN4core3ptr53drop_in_place$LT$$u5b$syn..item..ForeignItem$u5d$$GT$17h0fb84ff15c76ad7aE.llvm.2618680253894991198', symObjAddr: 0xB0C0, symBinAddr: 0xC5270, symSize: 0x360 }
  - { offsetInCU: 0x2C2D5, offset: 0x3FDD7C, size: 0x8, addend: 0x0, symName: '__ZN4core3ptr58drop_in_place$LT$alloc..vec..Vec$LT$syn..expr..Arm$GT$$GT$17h1a55df3d2cba1daaE', symObjAddr: 0xB420, symBinAddr: 0xC55D0, symSize: 0xD0 }
  - { offsetInCU: 0x2C562, offset: 0x3FE009, size: 0x8, addend: 0x0, symName: '__ZN4core3ptr59drop_in_place$LT$alloc..boxed..Box$LT$syn..pat..Pat$GT$$GT$17h563b135d87aca8abE.llvm.2618680253894991198', symObjAddr: 0xB4F0, symBinAddr: 0xC56A0, symSize: 0x50 }
  - { offsetInCU: 0x2C6BD, offset: 0x3FE164, size: 0x8, addend: 0x0, symName: '__ZN4core3ptr59drop_in_place$LT$alloc..boxed..Box$LT$syn..ty..Type$GT$$GT$17hffed36bad83adacbE.llvm.2618680253894991198', symObjAddr: 0xB540, symBinAddr: 0xC56F0, symSize: 0x50 }
  - { offsetInCU: 0x2C818, offset: 0x3FE2BF, size: 0x8, addend: 0x0, symName: '__ZN4core3ptr59drop_in_place$LT$alloc..vec..Vec$LT$syn..item..Item$GT$$GT$17hf874c2ed1282c93cE', symObjAddr: 0xB590, symBinAddr: 0xC5740, symSize: 0xD0 }
  - { offsetInCU: 0x2CAA5, offset: 0x3FE54C, size: 0x8, addend: 0x0, symName: '__ZN4core3ptr59drop_in_place$LT$alloc..vec..Vec$LT$syn..stmt..Stmt$GT$$GT$17hb5c1acf3c61c43e2E', symObjAddr: 0xB660, symBinAddr: 0xC5810, symSize: 0x80 }
  - { offsetInCU: 0x2CD23, offset: 0x3FE7CA, size: 0x8, addend: 0x0, symName: '__ZN4core3ptr61drop_in_place$LT$alloc..boxed..Box$LT$syn..expr..Expr$GT$$GT$17h01091e47f131475dE', symObjAddr: 0xB6E0, symBinAddr: 0xC5890, symSize: 0x50 }
  - { offsetInCU: 0x2CE7E, offset: 0x3FE925, size: 0x8, addend: 0x0, symName: '__ZN4core3ptr61drop_in_place$LT$alloc..boxed..Box$LT$syn..path..Path$GT$$GT$17ha58e58ae7c31ea61E', symObjAddr: 0xB730, symBinAddr: 0xC58E0, symSize: 0xF0 }
  - { offsetInCU: 0x2D364, offset: 0x3FEE0B, size: 0x8, addend: 0x0, symName: '__ZN4core3ptr61drop_in_place$LT$syn..path..ParenthesizedGenericArguments$GT$17h43d4aac5494326a7E.llvm.2618680253894991198', symObjAddr: 0xB820, symBinAddr: 0xC59D0, symSize: 0x170 }
  - { offsetInCU: 0x2D92B, offset: 0x3FF3D2, size: 0x8, addend: 0x0, symName: '__ZN4core3ptr62drop_in_place$LT$alloc..boxed..Box$LT$syn..data..Field$GT$$GT$17hebc7cac3b74f311dE', symObjAddr: 0xB990, symBinAddr: 0xC5B40, symSize: 0x50 }
  - { offsetInCU: 0x2DAA5, offset: 0x3FF54C, size: 0x8, addend: 0x0, symName: '__ZN4core3ptr62drop_in_place$LT$alloc..boxed..Box$LT$syn..item..FnArg$GT$$GT$17hc527eff785dac3a2E', symObjAddr: 0xB9E0, symBinAddr: 0xC5B90, symSize: 0x60 }
  - { offsetInCU: 0x2DC1D, offset: 0x3FF6C4, size: 0x8, addend: 0x0, symName: '__ZN4core3ptr62drop_in_place$LT$alloc..boxed..Box$LT$syn..stmt..Block$GT$$GT$17h30434998ae0f12a8E', symObjAddr: 0xBA40, symBinAddr: 0xC5BF0, symSize: 0xE0 }
  - { offsetInCU: 0x2E03C, offset: 0x3FFAE3, size: 0x8, addend: 0x0, symName: '__ZN4core3ptr62drop_in_place$LT$alloc..vec..Vec$LT$syn..buffer..Entry$GT$$GT$17h73857e86c6f10397E.llvm.2618680253894991198', symObjAddr: 0xBB20, symBinAddr: 0xC5CD0, symSize: 0xC0 }
  - { offsetInCU: 0x2E2DC, offset: 0x3FFD83, size: 0x8, addend: 0x0, symName: '__ZN4core3ptr62drop_in_place$LT$syn..path..AngleBracketedGenericArguments$GT$17hc5b69f68243636ddE.llvm.2618680253894991198', symObjAddr: 0xBBE0, symBinAddr: 0xC5D90, symSize: 0x120 }
  - { offsetInCU: 0x2E726, offset: 0x4001CD, size: 0x8, addend: 0x0, symName: '__ZN4core3ptr63drop_in_place$LT$alloc..vec..Vec$LT$syn..item..ImplItem$GT$$GT$17hda9ba61cc1df3d0eE', symObjAddr: 0xBD00, symBinAddr: 0xC5EB0, symSize: 0x80 }
  - { offsetInCU: 0x2E9A4, offset: 0x40044B, size: 0x8, addend: 0x0, symName: '__ZN4core3ptr64drop_in_place$LT$alloc..boxed..Box$LT$syn..data..Variant$GT$$GT$17h4d6d609d76c77795E', symObjAddr: 0xBD80, symBinAddr: 0xC5F30, symSize: 0x50 }
  - { offsetInCU: 0x2EAFF, offset: 0x4005A6, size: 0x8, addend: 0x0, symName: '__ZN4core3ptr64drop_in_place$LT$alloc..boxed..Box$LT$syn..item..UseTree$GT$$GT$17he10cba0a4742709fE', symObjAddr: 0xBDD0, symBinAddr: 0xC5F80, symSize: 0x50 }
  - { offsetInCU: 0x2EC79, offset: 0x400720, size: 0x8, addend: 0x0, symName: '__ZN4core3ptr64drop_in_place$LT$alloc..boxed..Box$LT$syn..pat..FieldPat$GT$$GT$17h4980b70a7597cc08E', symObjAddr: 0xBE20, symBinAddr: 0xC5FD0, symSize: 0x140 }
  - { offsetInCU: 0x2F31A, offset: 0x400DC1, size: 0x8, addend: 0x0, symName: '__ZN4core3ptr64drop_in_place$LT$alloc..boxed..Box$LT$syn..ty..BareFnArg$GT$$GT$17h8b34096c620314efE', symObjAddr: 0xBF60, symBinAddr: 0xC6110, symSize: 0x140 }
  - { offsetInCU: 0x2F872, offset: 0x401319, size: 0x8, addend: 0x0, symName: '__ZN4core3ptr64drop_in_place$LT$alloc..vec..Vec$LT$syn..attr..Attribute$GT$$GT$17h3c8f2a04e701c675E', symObjAddr: 0xC0A0, symBinAddr: 0xC6250, symSize: 0xD0 }
  - { offsetInCU: 0x2FB33, offset: 0x4015DA, size: 0x8, addend: 0x0, symName: '__ZN4core3ptr64drop_in_place$LT$alloc..vec..Vec$LT$syn..item..TraitItem$GT$$GT$17h60eb4b8666c57b93E', symObjAddr: 0xC170, symBinAddr: 0xC6320, symSize: 0x80 }
  - { offsetInCU: 0x2FDB1, offset: 0x401858, size: 0x8, addend: 0x0, symName: '__ZN4core3ptr65drop_in_place$LT$$LP$syn..item..FnArg$C$syn..token..Comma$RP$$GT$17hc164d69e1fc45771E.llvm.2618680253894991198', symObjAddr: 0xC1F0, symBinAddr: 0xC63A0, symSize: 0x20 }
  - { offsetInCU: 0x2FE4A, offset: 0x4018F1, size: 0x8, addend: 0x0, symName: '__ZN4core3ptr65drop_in_place$LT$alloc..vec..Vec$LT$proc_macro..TokenTree$GT$$GT$17h408088468d073beeE.llvm.2618680253894991198', symObjAddr: 0xC210, symBinAddr: 0xC63C0, symSize: 0x120 }
  - { offsetInCU: 0x301BC, offset: 0x401C63, size: 0x8, addend: 0x0, symName: '__ZN4core3ptr65drop_in_place$LT$core..option..Option$LT$syn..expr..Label$GT$$GT$17h78189e72a8cb7951E', symObjAddr: 0xC330, symBinAddr: 0xC64E0, symSize: 0x30 }
  - { offsetInCU: 0x302F7, offset: 0x401D9E, size: 0x8, addend: 0x0, symName: '__ZN4core3ptr65drop_in_place$LT$core..option..Option$LT$syn..stmt..Block$GT$$GT$17h7d9c0a54a580a160E', symObjAddr: 0xC360, symBinAddr: 0xC6510, symSize: 0xE0 }
  - { offsetInCU: 0x3055C, offset: 0x402003, size: 0x8, addend: 0x0, symName: '__ZN4core3ptr66drop_in_place$LT$alloc..vec..Vec$LT$syn..item..ForeignItem$GT$$GT$17h3e58b8e683c84cf4E', symObjAddr: 0xC440, symBinAddr: 0xC65F0, symSize: 0x80 }
  - { offsetInCU: 0x307DA, offset: 0x402281, size: 0x8, addend: 0x0, symName: '__ZN4core3ptr67drop_in_place$LT$$LP$syn..pat..FieldPat$C$syn..token..Comma$RP$$GT$17h85e934ef4c19bf0fE.llvm.2618680253894991198', symObjAddr: 0xC4C0, symBinAddr: 0xC6670, symSize: 0x130 }
  - { offsetInCU: 0x30D44, offset: 0x4027EB, size: 0x8, addend: 0x0, symName: '__ZN4core3ptr67drop_in_place$LT$$LP$syn..ty..BareFnArg$C$syn..token..Comma$RP$$GT$17hd93958865c964865E.llvm.2618680253894991198', symObjAddr: 0xC5F0, symBinAddr: 0xC67A0, symSize: 0x110 }
  - { offsetInCU: 0x31195, offset: 0x402C3C, size: 0x8, addend: 0x0, symName: '__ZN4core3ptr67drop_in_place$LT$alloc..boxed..Box$LT$syn..expr..FieldValue$GT$$GT$17h93aaccf8aa22ef88E', symObjAddr: 0xC700, symBinAddr: 0xC68B0, symSize: 0x140 }
  - { offsetInCU: 0x316CD, offset: 0x403174, size: 0x8, addend: 0x0, symName: '__ZN4core3ptr68drop_in_place$LT$alloc..boxed..Box$LT$syn..path..PathSegment$GT$$GT$17h709dabdc13b58a71E', symObjAddr: 0xC840, symBinAddr: 0xC69F0, symSize: 0xD0 }
  - { offsetInCU: 0x31ACB, offset: 0x403572, size: 0x8, addend: 0x0, symName: '__ZN4core3ptr69drop_in_place$LT$core..option..Option$LT$syn..stmt..LocalInit$GT$$GT$17h7427177b3fce4dc2E', symObjAddr: 0xC910, symBinAddr: 0xC6AC0, symSize: 0xC0 }
  - { offsetInCU: 0x31DF3, offset: 0x40389A, size: 0x8, addend: 0x0, symName: '__ZN4core3ptr70drop_in_place$LT$$LP$syn..expr..FieldValue$C$syn..token..Comma$RP$$GT$17h490c542958e56dacE.llvm.2618680253894991198', symObjAddr: 0xC9D0, symBinAddr: 0xC6B80, symSize: 0x110 }
  - { offsetInCU: 0x32205, offset: 0x403CAC, size: 0x8, addend: 0x0, symName: '__ZN4core3ptr70drop_in_place$LT$core..option..Option$LT$syn..ty..BareVariadic$GT$$GT$17h45399348ea4b8d55E', symObjAddr: 0xCAE0, symBinAddr: 0xC6C90, symSize: 0x100 }
  - { offsetInCU: 0x32635, offset: 0x4040DC, size: 0x8, addend: 0x0, symName: '__ZN4core3ptr72drop_in_place$LT$alloc..boxed..Box$LT$syn..path..GenericArgument$GT$$GT$17haa7dd8b716637b54E.llvm.2618680253894991198', symObjAddr: 0xCBE0, symBinAddr: 0xC6D90, symSize: 0x180 }
  - { offsetInCU: 0x32B0A, offset: 0x4045B1, size: 0x8, addend: 0x0, symName: '__ZN4core3ptr73drop_in_place$LT$$LP$syn..path..PathSegment$C$syn..token..PathSep$RP$$GT$17hf7a8dbee7b1b25c8E.llvm.2618680253894991198', symObjAddr: 0xCD60, symBinAddr: 0xC6F10, symSize: 0xC0 }
  - { offsetInCU: 0x32DD0, offset: 0x404877, size: 0x8, addend: 0x0, symName: '__ZN4core3ptr73drop_in_place$LT$alloc..boxed..Box$LT$syn..generics..GenericParam$GT$$GT$17hf6951dcd5ae07324E', symObjAddr: 0xCE20, symBinAddr: 0xC6FD0, symSize: 0x80 }
  - { offsetInCU: 0x32F48, offset: 0x4049EF, size: 0x8, addend: 0x0, symName: '__ZN4core3ptr75drop_in_place$LT$$LP$syn..path..GenericArgument$C$syn..token..Comma$RP$$GT$17h3ba8f36bbe154baeE.llvm.2618680253894991198', symObjAddr: 0xCEA0, symBinAddr: 0xC7050, symSize: 0x180 }
  - { offsetInCU: 0x332D0, offset: 0x404D77, size: 0x8, addend: 0x0, symName: '__ZN4core3ptr75drop_in_place$LT$alloc..boxed..Box$LT$syn..generics..TypeParamBound$GT$$GT$17he61c00698a311a34E', symObjAddr: 0xD020, symBinAddr: 0xC71D0, symSize: 0x160 }
  - { offsetInCU: 0x3386D, offset: 0x405314, size: 0x8, addend: 0x0, symName: '__ZN4core3ptr75drop_in_place$LT$alloc..boxed..Box$LT$syn..generics..WherePredicate$GT$$GT$17hb3c3f96fc44a9b07E', symObjAddr: 0xD180, symBinAddr: 0xC7330, symSize: 0x80 }
  - { offsetInCU: 0x33B03, offset: 0x4055AA, size: 0x8, addend: 0x0, symName: '__ZN4core3ptr76drop_in_place$LT$$LP$syn..generics..GenericParam$C$syn..token..Comma$RP$$GT$17hadd4ee9dc4c521adE.llvm.2618680253894991198', symObjAddr: 0xD200, symBinAddr: 0xC73B0, symSize: 0x40 }
  - { offsetInCU: 0x33B3F, offset: 0x4055E6, size: 0x8, addend: 0x0, symName: '__ZN4core3ptr77drop_in_place$LT$$LP$syn..generics..TypeParamBound$C$syn..token..Plus$RP$$GT$17h74b4a4238bdefe04E.llvm.2618680253894991198', symObjAddr: 0xD240, symBinAddr: 0xC73F0, symSize: 0x160 }
  - { offsetInCU: 0x33FAA, offset: 0x405A51, size: 0x8, addend: 0x0, symName: '__ZN4core3ptr78drop_in_place$LT$$LP$syn..generics..WherePredicate$C$syn..token..Comma$RP$$GT$17h53972732bf2fc9faE.llvm.2618680253894991198', symObjAddr: 0xD3A0, symBinAddr: 0xC7550, symSize: 0x50 }
  - { offsetInCU: 0x34104, offset: 0x405BAB, size: 0x8, addend: 0x0, symName: '__ZN4core3ptr86drop_in_place$LT$$LP$syn..token..If$C$alloc..boxed..Box$LT$syn..expr..Expr$GT$$RP$$GT$17h2caf60ff8122e91dE', symObjAddr: 0xD3F0, symBinAddr: 0xC75A0, symSize: 0x50 }
  - { offsetInCU: 0x34319, offset: 0x405DC0, size: 0x8, addend: 0x0, symName: '__ZN4core3ptr86drop_in_place$LT$syn..punctuated..Punctuated$LT$syn..pat..Pat$C$syn..token..Or$GT$$GT$17h8e9173df21a44316E', symObjAddr: 0xD440, symBinAddr: 0xC75F0, symSize: 0x120 }
  - { offsetInCU: 0x34776, offset: 0x40621D, size: 0x8, addend: 0x0, symName: '__ZN4core3ptr87drop_in_place$LT$$LP$alloc..boxed..Box$LT$syn..pat..Pat$GT$$C$syn..token..Colon$RP$$GT$17hf8324c490b9b3095E', symObjAddr: 0xD560, symBinAddr: 0xC7710, symSize: 0x50 }
  - { offsetInCU: 0x348F0, offset: 0x406397, size: 0x8, addend: 0x0, symName: '__ZN4core3ptr87drop_in_place$LT$core..option..Option$LT$alloc..boxed..Box$LT$syn..ty..Type$GT$$GT$$GT$17hd74f5d971aec2972E', symObjAddr: 0xD5B0, symBinAddr: 0xC7760, symSize: 0x50 }
  - { offsetInCU: 0x34A62, offset: 0x406509, size: 0x8, addend: 0x0, symName: '__ZN4core3ptr89drop_in_place$LT$core..option..Option$LT$alloc..boxed..Box$LT$syn..expr..Expr$GT$$GT$$GT$17h8e135ac1a25a2dc5E', symObjAddr: 0xD600, symBinAddr: 0xC77B0, symSize: 0x50 }
  - { offsetInCU: 0x34BD4, offset: 0x40667B, size: 0x8, addend: 0x0, symName: '__ZN4core3ptr89drop_in_place$LT$syn..punctuated..Punctuated$LT$syn..ty..Type$C$syn..token..Comma$GT$$GT$17ha919b3114742fb9dE.llvm.2618680253894991198', symObjAddr: 0xD650, symBinAddr: 0xC7800, symSize: 0x120 }
  - { offsetInCU: 0x3501E, offset: 0x406AC5, size: 0x8, addend: 0x0, symName: '__ZN4core3ptr90drop_in_place$LT$core..option..Option$LT$alloc..boxed..Box$LT$syn..data..Field$GT$$GT$$GT$17h326c39537b0fcc46E', symObjAddr: 0xD770, symBinAddr: 0xC7920, symSize: 0x50 }
  - { offsetInCU: 0x35190, offset: 0x406C37, size: 0x8, addend: 0x0, symName: '__ZN4core3ptr90drop_in_place$LT$core..option..Option$LT$alloc..boxed..Box$LT$syn..item..FnArg$GT$$GT$$GT$17hbae3fdd388277508E', symObjAddr: 0xD7C0, symBinAddr: 0xC7970, symSize: 0x50 }
  - { offsetInCU: 0x3537E, offset: 0x406E25, size: 0x8, addend: 0x0, symName: '__ZN4core3ptr91drop_in_place$LT$syn..punctuated..Punctuated$LT$syn..expr..Expr$C$syn..token..Comma$GT$$GT$17h4f39b83dc86a4159E', symObjAddr: 0xD810, symBinAddr: 0xC79C0, symSize: 0x120 }
  - { offsetInCU: 0x357DB, offset: 0x407282, size: 0x8, addend: 0x0, symName: '__ZN4core3ptr92drop_in_place$LT$core..option..Option$LT$$LP$syn..token..As$C$proc_macro2..Ident$RP$$GT$$GT$17h5c1a47ccb35d9d7eE', symObjAddr: 0xD930, symBinAddr: 0xC7AE0, symSize: 0x30 }
  - { offsetInCU: 0x358F7, offset: 0x40739E, size: 0x8, addend: 0x0, symName: '__ZN4core3ptr92drop_in_place$LT$syn..punctuated..Punctuated$LT$syn..data..Field$C$syn..token..Comma$GT$$GT$17hca76f5e010a141e5E', symObjAddr: 0xD960, symBinAddr: 0xC7B10, symSize: 0x120 }
  - { offsetInCU: 0x35D41, offset: 0x4077E8, size: 0x8, addend: 0x0, symName: '__ZN4core3ptr92drop_in_place$LT$syn..punctuated..Punctuated$LT$syn..item..FnArg$C$syn..token..Comma$GT$$GT$17h75db9d232662c7d3E', symObjAddr: 0xDA80, symBinAddr: 0xC7C30, symSize: 0x150 }
  - { offsetInCU: 0x36256, offset: 0x407CFD, size: 0x8, addend: 0x0, symName: '__ZN4core3ptr94drop_in_place$LT$syn..punctuated..Punctuated$LT$syn..data..Variant$C$syn..token..Comma$GT$$GT$17ha69d7e675441c7e2E', symObjAddr: 0xDBD0, symBinAddr: 0xC7D80, symSize: 0x120 }
  - { offsetInCU: 0x3672F, offset: 0x4081D6, size: 0x8, addend: 0x0, symName: '__ZN4core3ptr94drop_in_place$LT$syn..punctuated..Punctuated$LT$syn..pat..FieldPat$C$syn..token..Comma$GT$$GT$17h112950ea198c8281E', symObjAddr: 0xDCF0, symBinAddr: 0xC7EA0, symSize: 0xF0 }
  - { offsetInCU: 0x36A88, offset: 0x40852F, size: 0x8, addend: 0x0, symName: '__ZN4core3ptr94drop_in_place$LT$syn..punctuated..Punctuated$LT$syn..ty..BareFnArg$C$syn..token..Comma$GT$$GT$17h1c7b44310f06243dE', symObjAddr: 0xDDE0, symBinAddr: 0xC7F90, symSize: 0xF0 }
  - { offsetInCU: 0x36D65, offset: 0x40880C, size: 0x8, addend: 0x0, symName: '__ZN4core3ptr95drop_in_place$LT$core..option..Option$LT$$LP$proc_macro2..Ident$C$syn..token..Colon$RP$$GT$$GT$17ha744bf0f41959716E.llvm.2618680253894991198', symObjAddr: 0xDED0, symBinAddr: 0xC8080, symSize: 0x30 }
  - { offsetInCU: 0x36E81, offset: 0x408928, size: 0x8, addend: 0x0, symName: '__ZN4core3ptr96drop_in_place$LT$core..option..Option$LT$alloc..boxed..Box$LT$syn..path..PathSegment$GT$$GT$$GT$17hb447d0f626c86a4eE.llvm.2618680253894991198', symObjAddr: 0xDF00, symBinAddr: 0xC80B0, symSize: 0x90 }
  - { offsetInCU: 0x3719E, offset: 0x408C45, size: 0x8, addend: 0x0, symName: '__ZN4core3ptr97drop_in_place$LT$syn..punctuated..Punctuated$LT$syn..expr..FieldValue$C$syn..token..Comma$GT$$GT$17h31b81f7462228dcbE', symObjAddr: 0xDFE0, symBinAddr: 0xC8140, symSize: 0xF0 }
  - { offsetInCU: 0x37516, offset: 0x408FBD, size: 0x8, addend: 0x0, symName: '__ZN4core3ptr98drop_in_place$LT$syn..punctuated..Punctuated$LT$syn..lifetime..Lifetime$C$syn..token..Plus$GT$$GT$17h0f8fc5f20f465f47E.llvm.2618680253894991198', symObjAddr: 0xE0D0, symBinAddr: 0xC8230, symSize: 0xC0 }
  - { offsetInCU: 0x3F521, offset: 0x410FC8, size: 0x8, addend: 0x0, symName: '__ZN136_$LT$alloc..vec..Vec$LT$T$C$A$GT$$u20$as$u20$alloc..vec..spec_extend..SpecExtend$LT$T$C$alloc..vec..into_iter..IntoIter$LT$T$GT$$GT$$GT$11spec_extend17hd3fd65d04ebffaa6E', symObjAddr: 0xE0, symBinAddr: 0xBA310, symSize: 0xA0 }
  - { offsetInCU: 0x3F825, offset: 0x4112CC, size: 0x8, addend: 0x0, symName: '__ZN97_$LT$alloc..vec..Vec$LT$T$C$A$GT$$u20$as$u20$alloc..vec..spec_extend..SpecExtend$LT$T$C$I$GT$$GT$11spec_extend17h80e237c2189136deE', symObjAddr: 0x12D60, symBinAddr: 0xCB970, symSize: 0x150 }
  - { offsetInCU: 0x3FC7F, offset: 0x411726, size: 0x8, addend: 0x0, symName: '__ZN97_$LT$alloc..vec..Vec$LT$T$C$A$GT$$u20$as$u20$alloc..vec..spec_extend..SpecExtend$LT$T$C$I$GT$$GT$11spec_extend17hbe46a6e3ec41193dE', symObjAddr: 0x12F00, symBinAddr: 0xCBAC0, symSize: 0x150 }
  - { offsetInCU: 0x400D9, offset: 0x411B80, size: 0x8, addend: 0x0, symName: '__ZN97_$LT$alloc..vec..Vec$LT$T$C$A$GT$$u20$as$u20$alloc..vec..spec_extend..SpecExtend$LT$T$C$I$GT$$GT$11spec_extend17hd1980574a9ec2ab9E', symObjAddr: 0x13110, symBinAddr: 0xCBC10, symSize: 0x100 }
  - { offsetInCU: 0x40536, offset: 0x411FDD, size: 0x8, addend: 0x0, symName: '__ZN97_$LT$alloc..vec..Vec$LT$T$C$A$GT$$u20$as$u20$alloc..vec..spec_extend..SpecExtend$LT$T$C$I$GT$$GT$11spec_extend17he326d35e9b0b5779E', symObjAddr: 0x13210, symBinAddr: 0xCBD10, symSize: 0x670 }
  - { offsetInCU: 0x43486, offset: 0x414F2D, size: 0x8, addend: 0x0, symName: '__ZN65_$LT$alloc..vec..Vec$LT$T$C$A$GT$$u20$as$u20$core..fmt..Debug$GT$3fmt17h0c44c1490b2d6f02E', symObjAddr: 0xE400, symBinAddr: 0xC8380, symSize: 0x80 }
  - { offsetInCU: 0x43667, offset: 0x41510E, size: 0x8, addend: 0x0, symName: '__ZN65_$LT$alloc..vec..Vec$LT$T$C$A$GT$$u20$as$u20$core..fmt..Debug$GT$3fmt17h3e19e46c95090761E', symObjAddr: 0xE580, symBinAddr: 0xC8400, symSize: 0x80 }
  - { offsetInCU: 0x43CE7, offset: 0x41578E, size: 0x8, addend: 0x0, symName: '__ZN70_$LT$alloc..vec..Vec$LT$T$C$A$GT$$u20$as$u20$core..ops..drop..Drop$GT$4drop17ha1c46ee356be7175E', symObjAddr: 0x12530, symBinAddr: 0xCB680, symSize: 0x80 }
  - { offsetInCU: 0x43D71, offset: 0x415818, size: 0x8, addend: 0x0, symName: '__ZN70_$LT$alloc..vec..Vec$LT$T$C$A$GT$$u20$as$u20$core..ops..drop..Drop$GT$4drop17haac0f2ead37a83a5E', symObjAddr: 0x125B0, symBinAddr: 0xCB700, symSize: 0xB0 }
  - { offsetInCU: 0x43DD3, offset: 0x41587A, size: 0x8, addend: 0x0, symName: '__ZN70_$LT$alloc..vec..Vec$LT$T$C$A$GT$$u20$as$u20$core..ops..drop..Drop$GT$4drop17hb96511c1410270f4E', symObjAddr: 0x12780, symBinAddr: 0xCB7B0, symSize: 0xB0 }
  - { offsetInCU: 0x43F4F, offset: 0x4159F6, size: 0x8, addend: 0x0, symName: '__ZN70_$LT$alloc..vec..Vec$LT$T$C$A$GT$$u20$as$u20$core..ops..drop..Drop$GT$4drop17hd1322190145f035dE', symObjAddr: 0x12930, symBinAddr: 0xCB860, symSize: 0x90 }
  - { offsetInCU: 0x44055, offset: 0x415AFC, size: 0x8, addend: 0x0, symName: '__ZN70_$LT$alloc..vec..Vec$LT$T$C$A$GT$$u20$as$u20$core..ops..drop..Drop$GT$4drop17hfddea9c8473ad6f6E', symObjAddr: 0x12C30, symBinAddr: 0xCB8F0, symSize: 0x80 }
  - { offsetInCU: 0x44200, offset: 0x415CA7, size: 0x8, addend: 0x0, symName: '__ZN67_$LT$alloc..vec..Vec$LT$T$C$A$GT$$u20$as$u20$core..clone..Clone$GT$5clone17h05b7397ccb30c76cE', symObjAddr: 0xE970, symBinAddr: 0xC8480, symSize: 0x1A0 }
  - { offsetInCU: 0x44732, offset: 0x4161D9, size: 0x8, addend: 0x0, symName: '__ZN67_$LT$alloc..vec..Vec$LT$T$C$A$GT$$u20$as$u20$core..clone..Clone$GT$5clone17h1811a554b8ce3b81E', symObjAddr: 0xEB10, symBinAddr: 0xC8620, symSize: 0x160 }
  - { offsetInCU: 0x44C5F, offset: 0x416706, size: 0x8, addend: 0x0, symName: '__ZN67_$LT$alloc..vec..Vec$LT$T$C$A$GT$$u20$as$u20$core..clone..Clone$GT$5clone17h1da16863059762f6E', symObjAddr: 0xEC70, symBinAddr: 0xC8780, symSize: 0x1A0 }
  - { offsetInCU: 0x45206, offset: 0x416CAD, size: 0x8, addend: 0x0, symName: '__ZN67_$LT$alloc..vec..Vec$LT$T$C$A$GT$$u20$as$u20$core..clone..Clone$GT$5clone17h200e40873706a1b4E', symObjAddr: 0xEE10, symBinAddr: 0xC8920, symSize: 0x1B0 }
  - { offsetInCU: 0x457E1, offset: 0x417288, size: 0x8, addend: 0x0, symName: '__ZN67_$LT$alloc..vec..Vec$LT$T$C$A$GT$$u20$as$u20$core..clone..Clone$GT$5clone17h24997e572bc498a7E', symObjAddr: 0xEFC0, symBinAddr: 0xC8AD0, symSize: 0x390 }
  - { offsetInCU: 0x463B8, offset: 0x417E5F, size: 0x8, addend: 0x0, symName: '__ZN67_$LT$alloc..vec..Vec$LT$T$C$A$GT$$u20$as$u20$core..clone..Clone$GT$5clone17h25ea0f3dfced4ea5E', symObjAddr: 0xF350, symBinAddr: 0xC8E60, symSize: 0x160 }
  - { offsetInCU: 0x468E5, offset: 0x41838C, size: 0x8, addend: 0x0, symName: '__ZN67_$LT$alloc..vec..Vec$LT$T$C$A$GT$$u20$as$u20$core..clone..Clone$GT$5clone17h27f26317d0097928E', symObjAddr: 0xF4B0, symBinAddr: 0xC8FC0, symSize: 0x1B0 }
  - { offsetInCU: 0x46EC0, offset: 0x418967, size: 0x8, addend: 0x0, symName: '__ZN67_$LT$alloc..vec..Vec$LT$T$C$A$GT$$u20$as$u20$core..clone..Clone$GT$5clone17h3929068158b0acf4E', symObjAddr: 0xF800, symBinAddr: 0xC9170, symSize: 0x1A0 }
  - { offsetInCU: 0x4749B, offset: 0x418F42, size: 0x8, addend: 0x0, symName: '__ZN67_$LT$alloc..vec..Vec$LT$T$C$A$GT$$u20$as$u20$core..clone..Clone$GT$5clone17h50b260221468ddc9E', symObjAddr: 0xF9A0, symBinAddr: 0xC9310, symSize: 0x1A0 }
  - { offsetInCU: 0x479CD, offset: 0x419474, size: 0x8, addend: 0x0, symName: '__ZN67_$LT$alloc..vec..Vec$LT$T$C$A$GT$$u20$as$u20$core..clone..Clone$GT$5clone17h5b4a01bd5f94dc2bE', symObjAddr: 0xFB40, symBinAddr: 0xC94B0, symSize: 0x160 }
  - { offsetInCU: 0x47EFA, offset: 0x4199A1, size: 0x8, addend: 0x0, symName: '__ZN67_$LT$alloc..vec..Vec$LT$T$C$A$GT$$u20$as$u20$core..clone..Clone$GT$5clone17h6690eaf6cf776e41E', symObjAddr: 0xFCA0, symBinAddr: 0xC9610, symSize: 0x190 }
  - { offsetInCU: 0x484D5, offset: 0x419F7C, size: 0x8, addend: 0x0, symName: '__ZN67_$LT$alloc..vec..Vec$LT$T$C$A$GT$$u20$as$u20$core..clone..Clone$GT$5clone17h6e9705d9f6228ac2E', symObjAddr: 0xFE30, symBinAddr: 0xC97A0, symSize: 0x1A0 }
  - { offsetInCU: 0x48B6C, offset: 0x41A613, size: 0x8, addend: 0x0, symName: '__ZN67_$LT$alloc..vec..Vec$LT$T$C$A$GT$$u20$as$u20$core..clone..Clone$GT$5clone17h79b62d4fb82adf91E', symObjAddr: 0xFFD0, symBinAddr: 0xC9940, symSize: 0x1A0 }
  - { offsetInCU: 0x49147, offset: 0x41ABEE, size: 0x8, addend: 0x0, symName: '__ZN67_$LT$alloc..vec..Vec$LT$T$C$A$GT$$u20$as$u20$core..clone..Clone$GT$5clone17h817f6cb8c675423bE', symObjAddr: 0x10170, symBinAddr: 0xC9AE0, symSize: 0x1B0 }
  - { offsetInCU: 0x49722, offset: 0x41B1C9, size: 0x8, addend: 0x0, symName: '__ZN67_$LT$alloc..vec..Vec$LT$T$C$A$GT$$u20$as$u20$core..clone..Clone$GT$5clone17h89b01632558f666bE', symObjAddr: 0x10320, symBinAddr: 0xC9C90, symSize: 0x190 }
  - { offsetInCU: 0x49CC8, offset: 0x41B76F, size: 0x8, addend: 0x0, symName: '__ZN67_$LT$alloc..vec..Vec$LT$T$C$A$GT$$u20$as$u20$core..clone..Clone$GT$5clone17ha19e75129ceeddc0E', symObjAddr: 0x104B0, symBinAddr: 0xC9E20, symSize: 0x3C0 }
  - { offsetInCU: 0x4A53E, offset: 0x41BFE5, size: 0x8, addend: 0x0, symName: '__ZN67_$LT$alloc..vec..Vec$LT$T$C$A$GT$$u20$as$u20$core..clone..Clone$GT$5clone17ha225f10e71280eb0E', symObjAddr: 0x10870, symBinAddr: 0xCA1E0, symSize: 0x300 }
  - { offsetInCU: 0x4AB59, offset: 0x41C600, size: 0x8, addend: 0x0, symName: '__ZN67_$LT$alloc..vec..Vec$LT$T$C$A$GT$$u20$as$u20$core..clone..Clone$GT$5clone17had2181b83b268436E', symObjAddr: 0x10B70, symBinAddr: 0xCA4E0, symSize: 0x1B0 }
  - { offsetInCU: 0x4B100, offset: 0x41CBA7, size: 0x8, addend: 0x0, symName: '__ZN67_$LT$alloc..vec..Vec$LT$T$C$A$GT$$u20$as$u20$core..clone..Clone$GT$5clone17hafb9d5c811cb80c1E', symObjAddr: 0x10D20, symBinAddr: 0xCA690, symSize: 0x1B0 }
  - { offsetInCU: 0x4B6DB, offset: 0x41D182, size: 0x8, addend: 0x0, symName: '__ZN67_$LT$alloc..vec..Vec$LT$T$C$A$GT$$u20$as$u20$core..clone..Clone$GT$5clone17hb28dcdca734aa781E', symObjAddr: 0x10ED0, symBinAddr: 0xCA840, symSize: 0x2A0 }
  - { offsetInCU: 0x4BD0F, offset: 0x41D7B6, size: 0x8, addend: 0x0, symName: '__ZN67_$LT$alloc..vec..Vec$LT$T$C$A$GT$$u20$as$u20$core..clone..Clone$GT$5clone17hc247a405aa44e689E', symObjAddr: 0x11170, symBinAddr: 0xCAAE0, symSize: 0x210 }
  - { offsetInCU: 0x4C359, offset: 0x41DE00, size: 0x8, addend: 0x0, symName: '__ZN67_$LT$alloc..vec..Vec$LT$T$C$A$GT$$u20$as$u20$core..clone..Clone$GT$5clone17hc4988e4008115670E', symObjAddr: 0x11380, symBinAddr: 0xCACF0, symSize: 0x2B0 }
  - { offsetInCU: 0x4CA1B, offset: 0x41E4C2, size: 0x8, addend: 0x0, symName: '__ZN67_$LT$alloc..vec..Vec$LT$T$C$A$GT$$u20$as$u20$core..clone..Clone$GT$5clone17hc62fb47f99e4a4d9E', symObjAddr: 0x11630, symBinAddr: 0xCAFA0, symSize: 0x1A0 }
  - { offsetInCU: 0x4CFF6, offset: 0x41EA9D, size: 0x8, addend: 0x0, symName: '__ZN67_$LT$alloc..vec..Vec$LT$T$C$A$GT$$u20$as$u20$core..clone..Clone$GT$5clone17hccc28fd2b23933f8E', symObjAddr: 0x117D0, symBinAddr: 0xCB140, symSize: 0x250 }
  - { offsetInCU: 0x4D7E6, offset: 0x41F28D, size: 0x8, addend: 0x0, symName: '__ZN67_$LT$alloc..vec..Vec$LT$T$C$A$GT$$u20$as$u20$core..clone..Clone$GT$5clone17hf447c6066f04db4fE', symObjAddr: 0x11A20, symBinAddr: 0xCB390, symSize: 0x160 }
  - { offsetInCU: 0x4DD13, offset: 0x41F7BA, size: 0x8, addend: 0x0, symName: '__ZN67_$LT$alloc..vec..Vec$LT$T$C$A$GT$$u20$as$u20$core..clone..Clone$GT$5clone17hffcb5f1b40cb5e9bE', symObjAddr: 0x11B80, symBinAddr: 0xCB4F0, symSize: 0x190 }
  - { offsetInCU: 0x59DD1, offset: 0x42B878, size: 0x8, addend: 0x0, symName: '__ZN5alloc3vec16Vec$LT$T$C$A$GT$16into_boxed_slice17h024a9e1f6dd0eb78E', symObjAddr: 0xE190, symBinAddr: 0xC82F0, symSize: 0x90 }
  - { offsetInCU: 0x1E, offset: 0x436394, size: 0x8, addend: 0x0, symName: __ZN5alloc7raw_vec11finish_grow17h835635d1269408a0E.llvm.6325988268937029972, symObjAddr: 0x0, symBinAddr: 0xCC380, symSize: 0xA0 }
  - { offsetInCU: 0x69A2, offset: 0x43CD18, size: 0x8, addend: 0x0, symName: __ZN5alloc7raw_vec11finish_grow17h835635d1269408a0E.llvm.6325988268937029972, symObjAddr: 0x0, symBinAddr: 0xCC380, symSize: 0xA0 }
  - { offsetInCU: 0x8A4B, offset: 0x43EDC1, size: 0x8, addend: 0x0, symName: '__ZN5alloc7raw_vec19RawVec$LT$T$C$A$GT$7reserve21do_reserve_and_handle17h13c018c554f6abd0E', symObjAddr: 0x1FD0, symBinAddr: 0x22EE90, symSize: 0xC0 }
  - { offsetInCU: 0x8DA0, offset: 0x43F116, size: 0x8, addend: 0x0, symName: '__ZN5alloc7raw_vec19RawVec$LT$T$C$A$GT$7reserve21do_reserve_and_handle17h214494add848a148E', symObjAddr: 0x2090, symBinAddr: 0x22EF50, symSize: 0xC0 }
  - { offsetInCU: 0x90F6, offset: 0x43F46C, size: 0x8, addend: 0x0, symName: '__ZN5alloc7raw_vec19RawVec$LT$T$C$A$GT$7reserve21do_reserve_and_handle17h40bab3f670f64c67E', symObjAddr: 0x2150, symBinAddr: 0x22F010, symSize: 0xC0 }
  - { offsetInCU: 0x944B, offset: 0x43F7C1, size: 0x8, addend: 0x0, symName: '__ZN5alloc7raw_vec19RawVec$LT$T$C$A$GT$7reserve21do_reserve_and_handle17h62450a49b5654ba0E', symObjAddr: 0x22E0, symBinAddr: 0x22F0D0, symSize: 0xD0 }
  - { offsetInCU: 0x97A1, offset: 0x43FB17, size: 0x8, addend: 0x0, symName: '__ZN5alloc7raw_vec19RawVec$LT$T$C$A$GT$7reserve21do_reserve_and_handle17h797428fa4f38120aE', symObjAddr: 0x23B0, symBinAddr: 0x22F1A0, symSize: 0xC0 }
  - { offsetInCU: 0x9AF6, offset: 0x43FE6C, size: 0x8, addend: 0x0, symName: '__ZN5alloc7raw_vec19RawVec$LT$T$C$A$GT$7reserve21do_reserve_and_handle17hd888e23e4c2bd144E', symObjAddr: 0x2470, symBinAddr: 0x22F260, symSize: 0xB0 }
  - { offsetInCU: 0x9E38, offset: 0x4401AE, size: 0x8, addend: 0x0, symName: '__ZN77_$LT$alloc..raw_vec..RawVec$LT$T$C$A$GT$$u20$as$u20$core..ops..drop..Drop$GT$4drop17h0fe8dc95aa9e13e8E', symObjAddr: 0x2520, symBinAddr: 0xCD6C0, symSize: 0x30 }
  - { offsetInCU: 0x9F35, offset: 0x4402AB, size: 0x8, addend: 0x0, symName: '__ZN77_$LT$alloc..raw_vec..RawVec$LT$T$C$A$GT$$u20$as$u20$core..ops..drop..Drop$GT$4drop17h393fcfb678582e44E', symObjAddr: 0x25E0, symBinAddr: 0xCD6F0, symSize: 0x30 }
  - { offsetInCU: 0xA032, offset: 0x4403A8, size: 0x8, addend: 0x0, symName: '__ZN77_$LT$alloc..raw_vec..RawVec$LT$T$C$A$GT$$u20$as$u20$core..ops..drop..Drop$GT$4drop17h39c2380cb3828205E', symObjAddr: 0x2610, symBinAddr: 0xCD720, symSize: 0x30 }
  - { offsetInCU: 0xA12F, offset: 0x4404A5, size: 0x8, addend: 0x0, symName: '__ZN77_$LT$alloc..raw_vec..RawVec$LT$T$C$A$GT$$u20$as$u20$core..ops..drop..Drop$GT$4drop17h3db54f5eb403cd2eE', symObjAddr: 0x2640, symBinAddr: 0xCD750, symSize: 0x0 }
  - { offsetInCU: 0xA22C, offset: 0x4405A2, size: 0x8, addend: 0x0, symName: '__ZN77_$LT$alloc..raw_vec..RawVec$LT$T$C$A$GT$$u20$as$u20$core..ops..drop..Drop$GT$4drop17h48c1e075635f269fE', symObjAddr: 0x2690, symBinAddr: 0xCD780, symSize: 0x30 }
  - { offsetInCU: 0xA329, offset: 0x44069F, size: 0x8, addend: 0x0, symName: '__ZN77_$LT$alloc..raw_vec..RawVec$LT$T$C$A$GT$$u20$as$u20$core..ops..drop..Drop$GT$4drop17h4eece3816eced073E', symObjAddr: 0x26C0, symBinAddr: 0xCD7B0, symSize: 0x30 }
  - { offsetInCU: 0xA426, offset: 0x44079C, size: 0x8, addend: 0x0, symName: '__ZN77_$LT$alloc..raw_vec..RawVec$LT$T$C$A$GT$$u20$as$u20$core..ops..drop..Drop$GT$4drop17h6c6fd9c116ad0c74E', symObjAddr: 0x2720, symBinAddr: 0xCD7E0, symSize: 0x0 }
  - { offsetInCU: 0xA523, offset: 0x440899, size: 0x8, addend: 0x0, symName: '__ZN77_$LT$alloc..raw_vec..RawVec$LT$T$C$A$GT$$u20$as$u20$core..ops..drop..Drop$GT$4drop17h72ca814e81ad633aE', symObjAddr: 0x2750, symBinAddr: 0xCD810, symSize: 0x0 }
  - { offsetInCU: 0xA620, offset: 0x440996, size: 0x8, addend: 0x0, symName: '__ZN77_$LT$alloc..raw_vec..RawVec$LT$T$C$A$GT$$u20$as$u20$core..ops..drop..Drop$GT$4drop17h72defe2c2e2b0835E', symObjAddr: 0x2780, symBinAddr: 0xCD840, symSize: 0x0 }
  - { offsetInCU: 0xA71D, offset: 0x440A93, size: 0x8, addend: 0x0, symName: '__ZN77_$LT$alloc..raw_vec..RawVec$LT$T$C$A$GT$$u20$as$u20$core..ops..drop..Drop$GT$4drop17h92edcac5527d29cdE', symObjAddr: 0x27E0, symBinAddr: 0xCD870, symSize: 0x0 }
  - { offsetInCU: 0xA81A, offset: 0x440B90, size: 0x8, addend: 0x0, symName: '__ZN77_$LT$alloc..raw_vec..RawVec$LT$T$C$A$GT$$u20$as$u20$core..ops..drop..Drop$GT$4drop17ha8195f03b235e910E', symObjAddr: 0x2810, symBinAddr: 0xCD8A0, symSize: 0x0 }
  - { offsetInCU: 0xA917, offset: 0x440C8D, size: 0x8, addend: 0x0, symName: '__ZN77_$LT$alloc..raw_vec..RawVec$LT$T$C$A$GT$$u20$as$u20$core..ops..drop..Drop$GT$4drop17hae00cf31628a68d6E', symObjAddr: 0x2840, symBinAddr: 0xCD8D0, symSize: 0x30 }
  - { offsetInCU: 0xAA14, offset: 0x440D8A, size: 0x8, addend: 0x0, symName: '__ZN77_$LT$alloc..raw_vec..RawVec$LT$T$C$A$GT$$u20$as$u20$core..ops..drop..Drop$GT$4drop17hb7ab512d33fb2a25E', symObjAddr: 0x2870, symBinAddr: 0xCD900, symSize: 0x30 }
  - { offsetInCU: 0xAB11, offset: 0x440E87, size: 0x8, addend: 0x0, symName: '__ZN77_$LT$alloc..raw_vec..RawVec$LT$T$C$A$GT$$u20$as$u20$core..ops..drop..Drop$GT$4drop17hba0320ec2f949a38E', symObjAddr: 0x28A0, symBinAddr: 0xCD930, symSize: 0x0 }
  - { offsetInCU: 0xAC0E, offset: 0x440F84, size: 0x8, addend: 0x0, symName: '__ZN77_$LT$alloc..raw_vec..RawVec$LT$T$C$A$GT$$u20$as$u20$core..ops..drop..Drop$GT$4drop17hd01e85aba88beac8E', symObjAddr: 0x28D0, symBinAddr: 0xCD960, symSize: 0x30 }
  - { offsetInCU: 0xAD0B, offset: 0x441081, size: 0x8, addend: 0x0, symName: '__ZN77_$LT$alloc..raw_vec..RawVec$LT$T$C$A$GT$$u20$as$u20$core..ops..drop..Drop$GT$4drop17hed57f1d93ce81e98E', symObjAddr: 0x2960, symBinAddr: 0xCD990, symSize: 0x30 }
  - { offsetInCU: 0xAE08, offset: 0x44117E, size: 0x8, addend: 0x0, symName: '__ZN77_$LT$alloc..raw_vec..RawVec$LT$T$C$A$GT$$u20$as$u20$core..ops..drop..Drop$GT$4drop17hf063a1d3cd3b3215E', symObjAddr: 0x2990, symBinAddr: 0xCD9C0, symSize: 0x30 }
  - { offsetInCU: 0xAF05, offset: 0x44127B, size: 0x8, addend: 0x0, symName: '__ZN77_$LT$alloc..raw_vec..RawVec$LT$T$C$A$GT$$u20$as$u20$core..ops..drop..Drop$GT$4drop17hf87d3254f6191322E', symObjAddr: 0x29C0, symBinAddr: 0xCD9F0, symSize: 0x25 }
  - { offsetInCU: 0x106F1, offset: 0x446A67, size: 0x8, addend: 0x0, symName: '__ZN5alloc7raw_vec19RawVec$LT$T$C$A$GT$11allocate_in17hb51eef22739192aaE', symObjAddr: 0x870, symBinAddr: 0xCC420, symSize: 0x70 }
  - { offsetInCU: 0x10A84, offset: 0x446DFA, size: 0x8, addend: 0x0, symName: '__ZN5alloc7raw_vec19RawVec$LT$T$C$A$GT$16reserve_for_push17h18e1051c99d90182E', symObjAddr: 0xBF0, symBinAddr: 0xCC490, symSize: 0xD0 }
  - { offsetInCU: 0x10F4C, offset: 0x4472C2, size: 0x8, addend: 0x0, symName: '__ZN5alloc7raw_vec19RawVec$LT$T$C$A$GT$16reserve_for_push17h1d32b4f94470160eE', symObjAddr: 0xCC0, symBinAddr: 0xCC560, symSize: 0x0 }
  - { offsetInCU: 0x11413, offset: 0x447789, size: 0x8, addend: 0x0, symName: '__ZN5alloc7raw_vec19RawVec$LT$T$C$A$GT$16reserve_for_push17h245cfb4a8257421aE', symObjAddr: 0xD80, symBinAddr: 0xCC620, symSize: 0xD0 }
  - { offsetInCU: 0x118DB, offset: 0x447C51, size: 0x8, addend: 0x0, symName: '__ZN5alloc7raw_vec19RawVec$LT$T$C$A$GT$16reserve_for_push17h296e58e879ed95bbE', symObjAddr: 0xE50, symBinAddr: 0xCC6F0, symSize: 0xD0 }
  - { offsetInCU: 0x11DA3, offset: 0x448119, size: 0x8, addend: 0x0, symName: '__ZN5alloc7raw_vec19RawVec$LT$T$C$A$GT$16reserve_for_push17h2c8e6b8c8c6e5170E', symObjAddr: 0xF20, symBinAddr: 0xCC7C0, symSize: 0xD0 }
  - { offsetInCU: 0x1226B, offset: 0x4485E1, size: 0x8, addend: 0x0, symName: '__ZN5alloc7raw_vec19RawVec$LT$T$C$A$GT$16reserve_for_push17h39c2ec84e943635aE', symObjAddr: 0xFF0, symBinAddr: 0xCC890, symSize: 0xD0 }
  - { offsetInCU: 0x12747, offset: 0x448ABD, size: 0x8, addend: 0x0, symName: '__ZN5alloc7raw_vec19RawVec$LT$T$C$A$GT$16reserve_for_push17h41d82450e00eae77E', symObjAddr: 0x10C0, symBinAddr: 0xCC960, symSize: 0x0 }
  - { offsetInCU: 0x12C0E, offset: 0x448F84, size: 0x8, addend: 0x0, symName: '__ZN5alloc7raw_vec19RawVec$LT$T$C$A$GT$16reserve_for_push17h4241d3651c582227E', symObjAddr: 0x1180, symBinAddr: 0xCCA20, symSize: 0x0 }
  - { offsetInCU: 0x130D6, offset: 0x44944C, size: 0x8, addend: 0x0, symName: '__ZN5alloc7raw_vec19RawVec$LT$T$C$A$GT$16reserve_for_push17h46a23222a4b20700E', symObjAddr: 0x1250, symBinAddr: 0xCCAF0, symSize: 0x0 }
  - { offsetInCU: 0x1359E, offset: 0x449914, size: 0x8, addend: 0x0, symName: '__ZN5alloc7raw_vec19RawVec$LT$T$C$A$GT$16reserve_for_push17h52de2e841bbd4653E', symObjAddr: 0x1320, symBinAddr: 0xCCBC0, symSize: 0xD0 }
  - { offsetInCU: 0x13A66, offset: 0x449DDC, size: 0x8, addend: 0x0, symName: '__ZN5alloc7raw_vec19RawVec$LT$T$C$A$GT$16reserve_for_push17h5435f1226628b70cE', symObjAddr: 0x13F0, symBinAddr: 0xCCC90, symSize: 0xD0 }
  - { offsetInCU: 0x13F2E, offset: 0x44A2A4, size: 0x8, addend: 0x0, symName: '__ZN5alloc7raw_vec19RawVec$LT$T$C$A$GT$16reserve_for_push17h71935351b86bec57E', symObjAddr: 0x14C0, symBinAddr: 0xCCD60, symSize: 0xB0 }
  - { offsetInCU: 0x143F5, offset: 0x44A76B, size: 0x8, addend: 0x0, symName: '__ZN5alloc7raw_vec19RawVec$LT$T$C$A$GT$16reserve_for_push17h770742f0033a3542E', symObjAddr: 0x1570, symBinAddr: 0xCCE10, symSize: 0xC0 }
  - { offsetInCU: 0x148BC, offset: 0x44AC32, size: 0x8, addend: 0x0, symName: '__ZN5alloc7raw_vec19RawVec$LT$T$C$A$GT$16reserve_for_push17h86f692456b543eb7E', symObjAddr: 0x1630, symBinAddr: 0xCCED0, symSize: 0xC0 }
  - { offsetInCU: 0x14D84, offset: 0x44B0FA, size: 0x8, addend: 0x0, symName: '__ZN5alloc7raw_vec19RawVec$LT$T$C$A$GT$16reserve_for_push17h878804b307f94982E', symObjAddr: 0x16F0, symBinAddr: 0xCCF90, symSize: 0xC0 }
  - { offsetInCU: 0x1524C, offset: 0x44B5C2, size: 0x8, addend: 0x0, symName: '__ZN5alloc7raw_vec19RawVec$LT$T$C$A$GT$16reserve_for_push17h889a33689b0264dfE', symObjAddr: 0x17B0, symBinAddr: 0xCD050, symSize: 0xD0 }
  - { offsetInCU: 0x1573E, offset: 0x44BAB4, size: 0x8, addend: 0x0, symName: '__ZN5alloc7raw_vec19RawVec$LT$T$C$A$GT$16reserve_for_push17h8eafba0cab3c2dcdE', symObjAddr: 0x1880, symBinAddr: 0xCD120, symSize: 0xC0 }
  - { offsetInCU: 0x15C05, offset: 0x44BF7B, size: 0x8, addend: 0x0, symName: '__ZN5alloc7raw_vec19RawVec$LT$T$C$A$GT$16reserve_for_push17h98c6de81c43255e3E', symObjAddr: 0x1940, symBinAddr: 0xCD1E0, symSize: 0x0 }
  - { offsetInCU: 0x160CD, offset: 0x44C443, size: 0x8, addend: 0x0, symName: '__ZN5alloc7raw_vec19RawVec$LT$T$C$A$GT$16reserve_for_push17ha7ffa53757f2c194E', symObjAddr: 0x1A10, symBinAddr: 0xCD2B0, symSize: 0xD0 }
  - { offsetInCU: 0x16595, offset: 0x44C90B, size: 0x8, addend: 0x0, symName: '__ZN5alloc7raw_vec19RawVec$LT$T$C$A$GT$16reserve_for_push17hbe43935ff1be244bE', symObjAddr: 0x1AE0, symBinAddr: 0xCD380, symSize: 0x0 }
  - { offsetInCU: 0x16A5C, offset: 0x44CDD2, size: 0x8, addend: 0x0, symName: '__ZN5alloc7raw_vec19RawVec$LT$T$C$A$GT$16reserve_for_push17hcca166daf631fbe0E', symObjAddr: 0x1BB0, symBinAddr: 0xCD450, symSize: 0xD0 }
  - { offsetInCU: 0x16F31, offset: 0x44D2A7, size: 0x8, addend: 0x0, symName: '__ZN5alloc7raw_vec19RawVec$LT$T$C$A$GT$16reserve_for_push17hd979c897ae7ef7edE', symObjAddr: 0x1C80, symBinAddr: 0xCD520, symSize: 0xD0 }
  - { offsetInCU: 0x173F8, offset: 0x44D76E, size: 0x8, addend: 0x0, symName: '__ZN5alloc7raw_vec19RawVec$LT$T$C$A$GT$16reserve_for_push17he5e22af04e3866afE', symObjAddr: 0x1D50, symBinAddr: 0xCD5F0, symSize: 0xD0 }
  - { offsetInCU: 0x1E, offset: 0x44E11F, size: 0x8, addend: 0x0, symName: '__ZN4core3ptr100drop_in_place$LT$core..option..Option$LT$alloc..boxed..Box$LT$syn..path..GenericArgument$GT$$GT$$GT$17h7435c9de74860622E', symObjAddr: 0x0, symBinAddr: 0xCDA20, symSize: 0x50 }
  - { offsetInCU: 0xB0, offset: 0x44E1B1, size: 0x8, addend: 0x0, symName: '__ZN58_$LT$alloc..string..String$u20$as$u20$core..fmt..Write$GT$10write_char17hd329c0cb943f081aE', symObjAddr: 0x6FF0, symBinAddr: 0xD4A10, symSize: 0x130 }
  - { offsetInCU: 0x457, offset: 0x44E558, size: 0x8, addend: 0x0, symName: '__ZN58_$LT$alloc..string..String$u20$as$u20$core..fmt..Write$GT$9write_str17h1ff5aa96ca91c6d5E', symObjAddr: 0x7120, symBinAddr: 0xD4B40, symSize: 0x60 }
  - { offsetInCU: 0x3433, offset: 0x451534, size: 0x8, addend: 0x0, symName: '__ZN4core3ptr100drop_in_place$LT$core..option..Option$LT$alloc..boxed..Box$LT$syn..path..GenericArgument$GT$$GT$$GT$17h7435c9de74860622E', symObjAddr: 0x0, symBinAddr: 0xCDA20, symSize: 0x50 }
  - { offsetInCU: 0x3602, offset: 0x451703, size: 0x8, addend: 0x0, symName: '__ZN4core3ptr102drop_in_place$LT$syn..punctuated..Punctuated$LT$syn..path..GenericArgument$C$syn..token..Comma$GT$$GT$17h39496ba4e6dba6cfE', symObjAddr: 0x50, symBinAddr: 0xCDA70, symSize: 0xF0 }
  - { offsetInCU: 0x38EB, offset: 0x4519EC, size: 0x8, addend: 0x0, symName: '__ZN4core3ptr103drop_in_place$LT$core..option..Option$LT$alloc..boxed..Box$LT$syn..generics..TypeParamBound$GT$$GT$$GT$17h5974f03e36b1a9c3E', symObjAddr: 0x140, symBinAddr: 0xCDB60, symSize: 0x50 }
  - { offsetInCU: 0x3AF8, offset: 0x451BF9, size: 0x8, addend: 0x0, symName: '__ZN4core3ptr103drop_in_place$LT$syn..punctuated..Punctuated$LT$syn..generics..GenericParam$C$syn..token..Comma$GT$$GT$17hf42353fa44ed6da8E', symObjAddr: 0x190, symBinAddr: 0xCDBB0, symSize: 0xF0 }
  - { offsetInCU: 0x4094, offset: 0x452195, size: 0x8, addend: 0x0, symName: '__ZN4core3ptr104drop_in_place$LT$syn..punctuated..Punctuated$LT$syn..generics..TypeParamBound$C$syn..token..Plus$GT$$GT$17h532f52c4a894b056E', symObjAddr: 0x280, symBinAddr: 0xCDCA0, symSize: 0x230 }
  - { offsetInCU: 0x4972, offset: 0x452A73, size: 0x8, addend: 0x0, symName: '__ZN4core3ptr34drop_in_place$LT$syn..lit..Lit$GT$17h8902f5ff67917034E', symObjAddr: 0x4B0, symBinAddr: 0xCDED0, symSize: 0x110 }
  - { offsetInCU: 0x4ECB, offset: 0x452FCC, size: 0x8, addend: 0x0, symName: '__ZN4core3ptr34drop_in_place$LT$syn..pat..Pat$GT$17h4581eea028ec0969E', symObjAddr: 0x5C0, symBinAddr: 0xCDFE0, symSize: 0xEE0 }
  - { offsetInCU: 0x851A, offset: 0x45661B, size: 0x8, addend: 0x0, symName: '__ZN4core3ptr34drop_in_place$LT$syn..ty..Type$GT$17h369e41ad4a9f1ae0E', symObjAddr: 0x14A0, symBinAddr: 0xCEEC0, symSize: 0x5C0 }
  - { offsetInCU: 0x9D50, offset: 0x457E51, size: 0x8, addend: 0x0, symName: '__ZN4core3ptr36drop_in_place$LT$syn..expr..Expr$GT$17h0f7fd4c749bae801E.llvm.6085117338949153622', symObjAddr: 0x1A60, symBinAddr: 0xCF480, symSize: 0x2800 }
  - { offsetInCU: 0x12F2D, offset: 0x46102E, size: 0x8, addend: 0x0, symName: '__ZN4core3ptr36drop_in_place$LT$syn..mac..Macro$GT$17h4ffde962df30ebe2E', symObjAddr: 0x4260, symBinAddr: 0xD1C80, symSize: 0xE0 }
  - { offsetInCU: 0x1329E, offset: 0x46139F, size: 0x8, addend: 0x0, symName: '__ZN4core3ptr36drop_in_place$LT$syn..path..Path$GT$17habea856181211e1cE', symObjAddr: 0x4340, symBinAddr: 0xD1D60, symSize: 0x220 }
  - { offsetInCU: 0x13BD3, offset: 0x461CD4, size: 0x8, addend: 0x0, symName: '__ZN4core3ptr37drop_in_place$LT$core..fmt..Error$GT$17h8e130a2736288a98E', symObjAddr: 0x4560, symBinAddr: 0xD1F80, symSize: 0x10 }
  - { offsetInCU: 0x13BFF, offset: 0x461D00, size: 0x8, addend: 0x0, symName: '__ZN4core3ptr37drop_in_place$LT$syn..stmt..Block$GT$17hcc21a21cf949414cE', symObjAddr: 0x4570, symBinAddr: 0xD1F90, symSize: 0xD0 }
  - { offsetInCU: 0x13EA3, offset: 0x461FA4, size: 0x8, addend: 0x0, symName: '__ZN4core3ptr38drop_in_place$LT$syn..expr..Member$GT$17h022cbe5553aa40faE', symObjAddr: 0x4640, symBinAddr: 0xD2060, symSize: 0x30 }
  - { offsetInCU: 0x1403B, offset: 0x46213C, size: 0x8, addend: 0x0, symName: '__ZN4core3ptr38drop_in_place$LT$syn..group..Group$GT$17hc3a29a397b30f633E', symObjAddr: 0x4670, symBinAddr: 0xD2090, symSize: 0x70 }
  - { offsetInCU: 0x14351, offset: 0x462452, size: 0x8, addend: 0x0, symName: '__ZN4core3ptr39drop_in_place$LT$proc_macro2..Ident$GT$17h8101e88c3ac359d6E', symObjAddr: 0x46E0, symBinAddr: 0xD2100, symSize: 0x30 }
  - { offsetInCU: 0x1446D, offset: 0x46256E, size: 0x8, addend: 0x0, symName: '__ZN4core3ptr39drop_in_place$LT$syn..lit..LitFloat$GT$17h58fbb0bf27438490E', symObjAddr: 0x4710, symBinAddr: 0xD2130, symSize: 0x70 }
  - { offsetInCU: 0x147ED, offset: 0x4628EE, size: 0x8, addend: 0x0, symName: '__ZN4core3ptr40drop_in_place$LT$syn..expr..ExprPath$GT$17h03786fb79b09c4c0E', symObjAddr: 0x4780, symBinAddr: 0xD21A0, symSize: 0x110 }
  - { offsetInCU: 0x14BF7, offset: 0x462CF8, size: 0x8, addend: 0x0, symName: '__ZN4core3ptr40drop_in_place$LT$syn..ty..ReturnType$GT$17h02cf41e2fec63d90E', symObjAddr: 0x4890, symBinAddr: 0xD22B0, symSize: 0x50 }
  - { offsetInCU: 0x14DC6, offset: 0x462EC7, size: 0x8, addend: 0x0, symName: '__ZN4core3ptr41drop_in_place$LT$syn..attr..Attribute$GT$17h6038ab1bc013504dE', symObjAddr: 0x48E0, symBinAddr: 0xD2300, symSize: 0xB0 }
  - { offsetInCU: 0x14E4B, offset: 0x462F4C, size: 0x8, addend: 0x0, symName: '__ZN4core3ptr41drop_in_place$LT$syn..expr..ExprConst$GT$17h725a13e551d9f276E', symObjAddr: 0x4990, symBinAddr: 0xD23B0, symSize: 0x180 }
  - { offsetInCU: 0x153A0, offset: 0x4634A1, size: 0x8, addend: 0x0, symName: '__ZN4core3ptr42drop_in_place$LT$alloc..string..String$GT$17h781ac6273fa84cb0E', symObjAddr: 0x4B10, symBinAddr: 0xD2530, symSize: 0x20 }
  - { offsetInCU: 0x154A9, offset: 0x4635AA, size: 0x8, addend: 0x0, symName: '__ZN4core3ptr44drop_in_place$LT$syn..lifetime..Lifetime$GT$17hf0cdec2e9ec456d6E', symObjAddr: 0x4B30, symBinAddr: 0xD2550, symSize: 0x30 }
  - { offsetInCU: 0x155A6, offset: 0x4636A7, size: 0x8, addend: 0x0, symName: '__ZN4core3ptr44drop_in_place$LT$syn..parse..ParseBuffer$GT$17hd0dadba44a19aec2E', symObjAddr: 0x4B60, symBinAddr: 0xD2580, symSize: 0x70 }
  - { offsetInCU: 0x159DB, offset: 0x463ADC, size: 0x8, addend: 0x0, symName: '__ZN4core3ptr45drop_in_place$LT$proc_macro2..TokenStream$GT$17h3405f6c513e9f6cbE', symObjAddr: 0x4BD0, symBinAddr: 0xD25F0, symSize: 0x140 }
  - { offsetInCU: 0x15E4A, offset: 0x463F4B, size: 0x8, addend: 0x0, symName: '__ZN4core3ptr45drop_in_place$LT$syn..generics..TypeParam$GT$17he5eda51070b7de47E', symObjAddr: 0x4D10, symBinAddr: 0xD2730, symSize: 0x230 }
  - { offsetInCU: 0x16646, offset: 0x464747, size: 0x8, addend: 0x0, symName: '__ZN4core3ptr46drop_in_place$LT$syn..generics..ConstParam$GT$17hab0a58c4af8c549cE', symObjAddr: 0x4F40, symBinAddr: 0xD2960, symSize: 0x150 }
  - { offsetInCU: 0x16A70, offset: 0x464B71, size: 0x8, addend: 0x0, symName: '__ZN4core3ptr47drop_in_place$LT$syn..path..GenericArgument$GT$17h54f8794633f96823E', symObjAddr: 0x5090, symBinAddr: 0xD2AB0, symSize: 0x460 }
  - { offsetInCU: 0x17779, offset: 0x46587A, size: 0x8, addend: 0x0, symName: '__ZN4core3ptr49drop_in_place$LT$syn..generics..LifetimeParam$GT$17h41a7c7a290ea6289E', symObjAddr: 0x54F0, symBinAddr: 0xD2F10, symSize: 0xF0 }
  - { offsetInCU: 0x17B33, offset: 0x465C34, size: 0x8, addend: 0x0, symName: '__ZN4core3ptr50drop_in_place$LT$syn..generics..TypeParamBound$GT$17hcd7771d4c6c221efE', symObjAddr: 0x55E0, symBinAddr: 0xD3000, symSize: 0xA0 }
  - { offsetInCU: 0x17C9A, offset: 0x465D9B, size: 0x8, addend: 0x0, symName: '__ZN4core3ptr58drop_in_place$LT$alloc..vec..Vec$LT$syn..expr..Arm$GT$$GT$17h1a55df3d2cba1daaE', symObjAddr: 0x5680, symBinAddr: 0xD30A0, symSize: 0xD0 }
  - { offsetInCU: 0x17F27, offset: 0x466028, size: 0x8, addend: 0x0, symName: '__ZN4core3ptr59drop_in_place$LT$alloc..boxed..Box$LT$syn..pat..Pat$GT$$GT$17h563b135d87aca8abE', symObjAddr: 0x5750, symBinAddr: 0xD3170, symSize: 0x50 }
  - { offsetInCU: 0x18082, offset: 0x466183, size: 0x8, addend: 0x0, symName: '__ZN4core3ptr59drop_in_place$LT$alloc..boxed..Box$LT$syn..ty..Type$GT$$GT$17hffed36bad83adacbE', symObjAddr: 0x57A0, symBinAddr: 0xD31C0, symSize: 0x50 }
  - { offsetInCU: 0x181DD, offset: 0x4662DE, size: 0x8, addend: 0x0, symName: '__ZN4core3ptr61drop_in_place$LT$alloc..boxed..Box$LT$syn..expr..Expr$GT$$GT$17h01091e47f131475dE', symObjAddr: 0x57F0, symBinAddr: 0xD3210, symSize: 0x50 }
  - { offsetInCU: 0x18338, offset: 0x466439, size: 0x8, addend: 0x0, symName: '__ZN4core3ptr61drop_in_place$LT$syn..path..ParenthesizedGenericArguments$GT$17h43d4aac5494326a7E', symObjAddr: 0x5840, symBinAddr: 0xD3260, symSize: 0x170 }
  - { offsetInCU: 0x18912, offset: 0x466A13, size: 0x8, addend: 0x0, symName: '__ZN4core3ptr63drop_in_place$LT$alloc..boxed..Box$LT$syn..lit..LitRepr$GT$$GT$17hd8839b7fb35ee7afE', symObjAddr: 0x59B0, symBinAddr: 0xD33D0, symSize: 0x60 }
  - { offsetInCU: 0x18C07, offset: 0x466D08, size: 0x8, addend: 0x0, symName: '__ZN4core3ptr64drop_in_place$LT$alloc..boxed..Box$LT$syn..pat..FieldPat$GT$$GT$17h4980b70a7597cc08E', symObjAddr: 0x5A10, symBinAddr: 0xD3430, symSize: 0x140 }
  - { offsetInCU: 0x192B2, offset: 0x4673B3, size: 0x8, addend: 0x0, symName: '__ZN4core3ptr64drop_in_place$LT$alloc..boxed..Box$LT$syn..ty..BareFnArg$GT$$GT$17h8b34096c620314efE', symObjAddr: 0x5B50, symBinAddr: 0xD3570, symSize: 0x140 }
  - { offsetInCU: 0x197D6, offset: 0x4678D7, size: 0x8, addend: 0x0, symName: '__ZN4core3ptr64drop_in_place$LT$alloc..vec..Vec$LT$syn..attr..Attribute$GT$$GT$17h3c8f2a04e701c675E.llvm.6085117338949153622', symObjAddr: 0x5C90, symBinAddr: 0xD36B0, symSize: 0xD0 }
  - { offsetInCU: 0x19A63, offset: 0x467B64, size: 0x8, addend: 0x0, symName: '__ZN4core3ptr65drop_in_place$LT$core..option..Option$LT$syn..expr..Label$GT$$GT$17h78189e72a8cb7951E', symObjAddr: 0x5D60, symBinAddr: 0xD3780, symSize: 0x30 }
  - { offsetInCU: 0x19B9E, offset: 0x467C9F, size: 0x8, addend: 0x0, symName: '__ZN4core3ptr65drop_in_place$LT$core..option..Option$LT$syn..path..QSelf$GT$$GT$17h9b72552ca06b7379E', symObjAddr: 0x5D90, symBinAddr: 0xD37B0, symSize: 0x50 }
  - { offsetInCU: 0x19D21, offset: 0x467E22, size: 0x8, addend: 0x0, symName: '__ZN4core3ptr66drop_in_place$LT$core..option..Option$LT$syn..pat..PatRest$GT$$GT$17h61677cf4ff3a7393E', symObjAddr: 0x5DE0, symBinAddr: 0xD3800, symSize: 0xE0 }
  - { offsetInCU: 0x19FA5, offset: 0x4680A6, size: 0x8, addend: 0x0, symName: '__ZN4core3ptr67drop_in_place$LT$alloc..boxed..Box$LT$syn..expr..FieldValue$GT$$GT$17h93aaccf8aa22ef88E', symObjAddr: 0x5EC0, symBinAddr: 0xD38E0, symSize: 0x140 }
  - { offsetInCU: 0x1A4C8, offset: 0x4685C9, size: 0x8, addend: 0x0, symName: '__ZN4core3ptr70drop_in_place$LT$core..option..Option$LT$syn..ty..BareVariadic$GT$$GT$17h45399348ea4b8d55E', symObjAddr: 0x6000, symBinAddr: 0xD3A20, symSize: 0x120 }
  - { offsetInCU: 0x1A9F5, offset: 0x468AF6, size: 0x8, addend: 0x0, symName: '__ZN4core3ptr72drop_in_place$LT$alloc..boxed..Box$LT$syn..path..GenericArgument$GT$$GT$17haa7dd8b716637b54E', symObjAddr: 0x6120, symBinAddr: 0xD3B40, symSize: 0x2B0 }
  - { offsetInCU: 0x1B3E0, offset: 0x4694E1, size: 0x8, addend: 0x0, symName: '__ZN4core3ptr72drop_in_place$LT$core..option..Option$LT$syn..lifetime..Lifetime$GT$$GT$17hfc363ccdd8bd9c32E', symObjAddr: 0x63D0, symBinAddr: 0xD3DF0, symSize: 0x30 }
  - { offsetInCU: 0x1B4FC, offset: 0x4695FD, size: 0x8, addend: 0x0, symName: '__ZN4core3ptr73drop_in_place$LT$alloc..boxed..Box$LT$syn..generics..GenericParam$GT$$GT$17hf6951dcd5ae07324E', symObjAddr: 0x6400, symBinAddr: 0xD3E20, symSize: 0x80 }
  - { offsetInCU: 0x1B674, offset: 0x469775, size: 0x8, addend: 0x0, symName: '__ZN4core3ptr75drop_in_place$LT$alloc..boxed..Box$LT$syn..generics..TypeParamBound$GT$$GT$17he61c00698a311a34E', symObjAddr: 0x6480, symBinAddr: 0xD3EA0, symSize: 0x160 }
  - { offsetInCU: 0x1BC3A, offset: 0x469D3B, size: 0x8, addend: 0x0, symName: '__ZN4core3ptr83drop_in_place$LT$core..result..Result$LT$syn..op..BinOp$C$syn..error..Error$GT$$GT$17h1f0ce0e4fd241856E', symObjAddr: 0x65E0, symBinAddr: 0xD4000, symSize: 0x90 }
  - { offsetInCU: 0x1BF1E, offset: 0x46A01F, size: 0x8, addend: 0x0, symName: '__ZN4core3ptr86drop_in_place$LT$syn..punctuated..Punctuated$LT$syn..pat..Pat$C$syn..token..Or$GT$$GT$17h8e9173df21a44316E', symObjAddr: 0x6670, symBinAddr: 0xD4090, symSize: 0x120 }
  - { offsetInCU: 0x1C364, offset: 0x46A465, size: 0x8, addend: 0x0, symName: '__ZN4core3ptr87drop_in_place$LT$core..option..Option$LT$alloc..boxed..Box$LT$syn..pat..Pat$GT$$GT$$GT$17hd7b7c69f601b3926E', symObjAddr: 0x6790, symBinAddr: 0xD41B0, symSize: 0x50 }
  - { offsetInCU: 0x1C4D6, offset: 0x46A5D7, size: 0x8, addend: 0x0, symName: '__ZN4core3ptr87drop_in_place$LT$core..option..Option$LT$alloc..boxed..Box$LT$syn..ty..Type$GT$$GT$$GT$17hd74f5d971aec2972E', symObjAddr: 0x67E0, symBinAddr: 0xD4200, symSize: 0x50 }
  - { offsetInCU: 0x1C648, offset: 0x46A749, size: 0x8, addend: 0x0, symName: '__ZN4core3ptr89drop_in_place$LT$core..option..Option$LT$alloc..boxed..Box$LT$syn..expr..Expr$GT$$GT$$GT$17h8e135ac1a25a2dc5E', symObjAddr: 0x6830, symBinAddr: 0xD4250, symSize: 0x50 }
  - { offsetInCU: 0x1C7F8, offset: 0x46A8F9, size: 0x8, addend: 0x0, symName: '__ZN4core3ptr89drop_in_place$LT$syn..punctuated..Punctuated$LT$syn..pat..Pat$C$syn..token..Comma$GT$$GT$17h8d60e47f3fb1f87aE', symObjAddr: 0x6880, symBinAddr: 0xD42A0, symSize: 0x120 }
  - { offsetInCU: 0x1CC93, offset: 0x46AD94, size: 0x8, addend: 0x0, symName: '__ZN4core3ptr91drop_in_place$LT$syn..punctuated..Punctuated$LT$syn..expr..Expr$C$syn..token..Comma$GT$$GT$17h4f39b83dc86a4159E', symObjAddr: 0x69A0, symBinAddr: 0xD43C0, symSize: 0x120 }
  - { offsetInCU: 0x1D0DD, offset: 0x46B1DE, size: 0x8, addend: 0x0, symName: '__ZN4core3ptr94drop_in_place$LT$syn..punctuated..Punctuated$LT$syn..pat..FieldPat$C$syn..token..Comma$GT$$GT$17h112950ea198c8281E', symObjAddr: 0x6AC0, symBinAddr: 0xD44E0, symSize: 0xF0 }
  - { offsetInCU: 0x1D3A7, offset: 0x46B4A8, size: 0x8, addend: 0x0, symName: '__ZN4core3ptr94drop_in_place$LT$syn..punctuated..Punctuated$LT$syn..ty..BareFnArg$C$syn..token..Comma$GT$$GT$17h1c7b44310f06243dE', symObjAddr: 0x6BB0, symBinAddr: 0xD45D0, symSize: 0xF0 }
  - { offsetInCU: 0x1D671, offset: 0x46B772, size: 0x8, addend: 0x0, symName: '__ZN4core3ptr96drop_in_place$LT$core..option..Option$LT$alloc..boxed..Box$LT$syn..path..PathSegment$GT$$GT$$GT$17hb447d0f626c86a4eE', symObjAddr: 0x6CA0, symBinAddr: 0xD46C0, symSize: 0x180 }
  - { offsetInCU: 0x1DD02, offset: 0x46BE03, size: 0x8, addend: 0x0, symName: '__ZN4core3ptr97drop_in_place$LT$syn..punctuated..Punctuated$LT$syn..expr..FieldValue$C$syn..token..Comma$GT$$GT$17h31b81f7462228dcbE', symObjAddr: 0x6E20, symBinAddr: 0xD4840, symSize: 0xF0 }
  - { offsetInCU: 0x1E048, offset: 0x46C149, size: 0x8, addend: 0x0, symName: '__ZN4core3ptr98drop_in_place$LT$syn..punctuated..Punctuated$LT$syn..lifetime..Lifetime$C$syn..token..Plus$GT$$GT$17h0f8fc5f20f465f47E', symObjAddr: 0x6F10, symBinAddr: 0xD4930, symSize: 0xC0 }
  - { offsetInCU: 0x1EAEC, offset: 0x46CBED, size: 0x8, addend: 0x0, symName: '__ZN53_$LT$core..fmt..Error$u20$as$u20$core..fmt..Debug$GT$3fmt17h43ae5cec9623af13E', symObjAddr: 0x6FD0, symBinAddr: 0xD49F0, symSize: 0x20 }
  - { offsetInCU: 0x2902C, offset: 0x47712D, size: 0x8, addend: 0x0, symName: __ZN3syn4expr7parsing32parse_with_earlier_boundary_rule17hb02ce308a02a4a1eE, symObjAddr: 0x7180, symBinAddr: 0xD4BA0, symSize: 0x15B0 }
  - { offsetInCU: 0x2B40A, offset: 0x47950B, size: 0x8, addend: 0x0, symName: __ZN3syn4expr7parsing14can_begin_expr17hb418906263911ccdE, symObjAddr: 0x8730, symBinAddr: 0xD6150, symSize: 0x4C0 }
  - { offsetInCU: 0x2C9D2, offset: 0x47AAD3, size: 0x8, addend: 0x0, symName: __ZN3syn4expr7parsing10parse_expr17h9eb2cb7aa6283d86E.llvm.6085117338949153622, symObjAddr: 0x8BF0, symBinAddr: 0xD6610, symSize: 0x12E0 }
  - { offsetInCU: 0x2F6C3, offset: 0x47D7C4, size: 0x8, addend: 0x0, symName: __ZN3syn4expr7parsing15parse_binop_rhs17h21ef9d80df571ec4E, symObjAddr: 0x9ED0, symBinAddr: 0xD78F0, symSize: 0x540 }
  - { offsetInCU: 0x301E1, offset: 0x47E2E2, size: 0x8, addend: 0x0, symName: __ZN3syn4expr7parsing14ambiguous_expr17he0894ca122c7f4e6E, symObjAddr: 0xA410, symBinAddr: 0xD7E30, symSize: 0x100 }
  - { offsetInCU: 0x3025C, offset: 0x47E35D, size: 0x8, addend: 0x0, symName: __ZN3syn4expr7parsing10expr_attrs17hf14159509fa85ca8E, symObjAddr: 0xA510, symBinAddr: 0xD7F30, symSize: 0x2A0 }
  - { offsetInCU: 0x30822, offset: 0x47E923, size: 0x8, addend: 0x0, symName: __ZN3syn4expr7parsing10unary_expr17h8c2a984611866bdaE, symObjAddr: 0xA7B0, symBinAddr: 0xD81D0, symSize: 0x8C0 }
  - { offsetInCU: 0x31E85, offset: 0x47FF86, size: 0x8, addend: 0x0, symName: __ZN3syn4expr7parsing12trailer_expr17h8a2bdad4a40548d7E, symObjAddr: 0xB070, symBinAddr: 0xD8A90, symSize: 0x1A90 }
  - { offsetInCU: 0x360F9, offset: 0x4841FA, size: 0x8, addend: 0x0, symName: __ZN3syn4expr7parsing14trailer_helper17h1b30b9a4fbca87bcE, symObjAddr: 0xCB00, symBinAddr: 0xDA520, symSize: 0x21A0 }
  - { offsetInCU: 0x3A2BC, offset: 0x4883BD, size: 0x8, addend: 0x0, symName: __ZN3syn4expr7parsing12atom_labeled17h2b63f0bdbd1ffcf9E, symObjAddr: 0xECA0, symBinAddr: 0xDC6C0, symSize: 0x730 }
  - { offsetInCU: 0x3AC96, offset: 0x488D97, size: 0x8, addend: 0x0, symName: __ZN3syn4expr7parsing12expr_builtin17hfe4d7860eb8d93a5E, symObjAddr: 0xF3D0, symBinAddr: 0xDCDF0, symSize: 0x3E0 }
  - { offsetInCU: 0x3B6EA, offset: 0x4897EB, size: 0x8, addend: 0x0, symName: __ZN3syn4expr7parsing23path_or_macro_or_struct17h3a35c18dd12111cfE, symObjAddr: 0xF7B0, symBinAddr: 0xDD1D0, symSize: 0x160 }
  - { offsetInCU: 0x3B7A4, offset: 0x4898A5, size: 0x8, addend: 0x0, symName: __ZN3syn4expr7parsing31rest_of_path_or_macro_or_struct17h1201e78c90bb81baE, symObjAddr: 0xF910, symBinAddr: 0xDD330, symSize: 0x460 }
  - { offsetInCU: 0x3C023, offset: 0x48A124, size: 0x8, addend: 0x0, symName: __ZN3syn4expr7parsing14paren_or_tuple17h595ef5967864e1f0E, symObjAddr: 0xFD70, symBinAddr: 0xDD790, symSize: 0x810 }
  - { offsetInCU: 0x3C955, offset: 0x48AA56, size: 0x8, addend: 0x0, symName: __ZN3syn4expr7parsing15array_or_repeat17h16f1a87c0a940f8cE, symObjAddr: 0x10580, symBinAddr: 0xDDFA0, symSize: 0x1240 }
  - { offsetInCU: 0x3F918, offset: 0x48DA19, size: 0x8, addend: 0x0, symName: __ZN3syn4expr7parsing10expr_group17h143c5f8a1b43603cE, symObjAddr: 0x117C0, symBinAddr: 0xDF1E0, symSize: 0x920 }
  - { offsetInCU: 0x403D4, offset: 0x48E4D5, size: 0x8, addend: 0x0, symName: __ZN3syn4expr7parsing8expr_let17h53e6315ac8b5aee1E, symObjAddr: 0x12340, symBinAddr: 0xDFB00, symSize: 0x560 }
  - { offsetInCU: 0x40B93, offset: 0x48EC94, size: 0x8, addend: 0x0, symName: __ZN3syn4expr7parsing10expr_unary17haacb582ebfbd68bfE, symObjAddr: 0x128A0, symBinAddr: 0xE0060, symSize: 0x2E0 }
  - { offsetInCU: 0x41118, offset: 0x48F219, size: 0x8, addend: 0x0, symName: __ZN3syn4expr7parsing12expr_closure17h23f22c4f2a9fedcbE, symObjAddr: 0x12B80, symBinAddr: 0xE0340, symSize: 0x1530 }
  - { offsetInCU: 0x42CDA, offset: 0x490DDB, size: 0x8, addend: 0x0, symName: __ZN3syn4expr7parsing10expr_break17hd5ff63487f71dcffE, symObjAddr: 0x140B0, symBinAddr: 0xE1870, symSize: 0x7E0 }
  - { offsetInCU: 0x43E2A, offset: 0x491F2B, size: 0x8, addend: 0x0, symName: __ZN3syn4expr7parsing18expr_struct_helper17h4c61023c9d934da0E, symObjAddr: 0x14890, symBinAddr: 0xE2050, symSize: 0x9C0 }
  - { offsetInCU: 0x44E90, offset: 0x492F91, size: 0x8, addend: 0x0, symName: __ZN3syn4expr7parsing10expr_range17h09e34d6c6faf79a6E, symObjAddr: 0x15250, symBinAddr: 0xE2A10, symSize: 0xE0 }
  - { offsetInCU: 0x45050, offset: 0x493151, size: 0x8, addend: 0x0, symName: __ZN3syn4expr7parsing15parse_range_end17h0db540d84762afd5E, symObjAddr: 0x15330, symBinAddr: 0xE2AF0, symSize: 0x194 }
  - { offsetInCU: 0x1E, offset: 0x4A5F00, size: 0x8, addend: 0x0, symName: '__ZN4core3ptr100drop_in_place$LT$core..option..Option$LT$alloc..boxed..Box$LT$syn..path..GenericArgument$GT$$GT$$GT$17h7435c9de74860622E', symObjAddr: 0x0, symBinAddr: 0xE2C90, symSize: 0x50 }
  - { offsetInCU: 0x18A2, offset: 0x4A7784, size: 0x8, addend: 0x0, symName: '__ZN4core3ptr100drop_in_place$LT$core..option..Option$LT$alloc..boxed..Box$LT$syn..path..GenericArgument$GT$$GT$$GT$17h7435c9de74860622E', symObjAddr: 0x0, symBinAddr: 0xE2C90, symSize: 0x50 }
  - { offsetInCU: 0x1A71, offset: 0x4A7953, size: 0x8, addend: 0x0, symName: '__ZN4core3ptr102drop_in_place$LT$syn..punctuated..Punctuated$LT$syn..path..GenericArgument$C$syn..token..Comma$GT$$GT$17h39496ba4e6dba6cfE', symObjAddr: 0x50, symBinAddr: 0xE2CE0, symSize: 0xF0 }
  - { offsetInCU: 0x1D5A, offset: 0x4A7C3C, size: 0x8, addend: 0x0, symName: '__ZN4core3ptr103drop_in_place$LT$core..option..Option$LT$alloc..boxed..Box$LT$syn..generics..TypeParamBound$GT$$GT$$GT$17h5974f03e36b1a9c3E', symObjAddr: 0x140, symBinAddr: 0xE2DD0, symSize: 0x50 }
  - { offsetInCU: 0x2021, offset: 0x4A7F03, size: 0x8, addend: 0x0, symName: '__ZN4core3ptr103drop_in_place$LT$core..option..Option$LT$alloc..boxed..Box$LT$syn..generics..WherePredicate$GT$$GT$$GT$17hdd5111a374d8d6f2E', symObjAddr: 0x190, symBinAddr: 0xE2E20, symSize: 0xD0 }
  - { offsetInCU: 0x23B4, offset: 0x4A8296, size: 0x8, addend: 0x0, symName: '__ZN4core3ptr103drop_in_place$LT$syn..punctuated..Punctuated$LT$syn..generics..GenericParam$C$syn..token..Comma$GT$$GT$17hf42353fa44ed6da8E', symObjAddr: 0x260, symBinAddr: 0xE2EF0, symSize: 0xF0 }
  - { offsetInCU: 0x2877, offset: 0x4A8759, size: 0x8, addend: 0x0, symName: '__ZN4core3ptr104drop_in_place$LT$syn..punctuated..Punctuated$LT$syn..generics..TypeParamBound$C$syn..token..Plus$GT$$GT$17h532f52c4a894b056E', symObjAddr: 0x350, symBinAddr: 0xE2FE0, symSize: 0x230 }
  - { offsetInCU: 0x326C, offset: 0x4A914E, size: 0x8, addend: 0x0, symName: '__ZN4core3ptr109drop_in_place$LT$core..result..Result$LT$core..option..Option$LT$syn..ty..Abi$GT$$C$syn..error..Error$GT$$GT$17h8e7e96ef88c194afE', symObjAddr: 0x580, symBinAddr: 0xE3210, symSize: 0xD0 }
  - { offsetInCU: 0x384A, offset: 0x4A972C, size: 0x8, addend: 0x0, symName: '__ZN4core3ptr115drop_in_place$LT$core..option..Option$LT$$LP$alloc..boxed..Box$LT$syn..pat..Pat$GT$$C$syn..token..Colon$RP$$GT$$GT$17he854acc3c4717d92E', symObjAddr: 0x650, symBinAddr: 0xE32E0, symSize: 0x50 }
  - { offsetInCU: 0x3A1A, offset: 0x4A98FC, size: 0x8, addend: 0x0, symName: '__ZN4core3ptr115drop_in_place$LT$core..option..Option$LT$$LP$syn..token..Brace$C$alloc..vec..Vec$LT$syn..item..Item$GT$$RP$$GT$$GT$17h6df5bf3d47177236E', symObjAddr: 0x6A0, symBinAddr: 0xE3330, symSize: 0xE0 }
  - { offsetInCU: 0x3CC1, offset: 0x4A9BA3, size: 0x8, addend: 0x0, symName: '__ZN4core3ptr126drop_in_place$LT$core..option..Option$LT$$LP$syn..token..And$C$core..option..Option$LT$syn..lifetime..Lifetime$GT$$RP$$GT$$GT$17hc269ac95805979aaE', symObjAddr: 0x780, symBinAddr: 0xE3410, symSize: 0x30 }
  - { offsetInCU: 0x3E1B, offset: 0x4A9CFD, size: 0x8, addend: 0x0, symName: '__ZN4core3ptr34drop_in_place$LT$syn..lit..Lit$GT$17h8902f5ff67917034E', symObjAddr: 0x7B0, symBinAddr: 0xE3440, symSize: 0x110 }
  - { offsetInCU: 0x4355, offset: 0x4AA237, size: 0x8, addend: 0x0, symName: '__ZN4core3ptr34drop_in_place$LT$syn..pat..Pat$GT$17h4581eea028ec0969E', symObjAddr: 0x8C0, symBinAddr: 0xE3550, symSize: 0xEE0 }
  - { offsetInCU: 0x78CB, offset: 0x4AD7AD, size: 0x8, addend: 0x0, symName: '__ZN4core3ptr34drop_in_place$LT$syn..ty..Type$GT$17h369e41ad4a9f1ae0E', symObjAddr: 0x17A0, symBinAddr: 0xE4430, symSize: 0x5C0 }
  - { offsetInCU: 0x9101, offset: 0x4AEFE3, size: 0x8, addend: 0x0, symName: '__ZN4core3ptr36drop_in_place$LT$syn..expr..Expr$GT$17h0f7fd4c749bae801E', symObjAddr: 0x1D60, symBinAddr: 0xE49F0, symSize: 0x2800 }
  - { offsetInCU: 0x126FC, offset: 0x4B85DE, size: 0x8, addend: 0x0, symName: '__ZN4core3ptr36drop_in_place$LT$syn..item..Item$GT$17h13f5a53479ba6379E', symObjAddr: 0x4560, symBinAddr: 0xE71F0, symSize: 0x1800 }
  - { offsetInCU: 0x17CD5, offset: 0x4BDBB7, size: 0x8, addend: 0x0, symName: '__ZN4core3ptr36drop_in_place$LT$syn..mac..Macro$GT$17h4ffde962df30ebe2E', symObjAddr: 0x5D60, symBinAddr: 0xE89F0, symSize: 0xE0 }
  - { offsetInCU: 0x18046, offset: 0x4BDF28, size: 0x8, addend: 0x0, symName: '__ZN4core3ptr36drop_in_place$LT$syn..path..Path$GT$17habea856181211e1cE', symObjAddr: 0x5E40, symBinAddr: 0xE8AD0, symSize: 0x220 }
  - { offsetInCU: 0x1897B, offset: 0x4BE85D, size: 0x8, addend: 0x0, symName: '__ZN4core3ptr37drop_in_place$LT$syn..item..FnArg$GT$17h3308e115b3b3c9adE', symObjAddr: 0x6060, symBinAddr: 0xE8CF0, symSize: 0x190 }
  - { offsetInCU: 0x18EB5, offset: 0x4BED97, size: 0x8, addend: 0x0, symName: '__ZN4core3ptr37drop_in_place$LT$syn..stmt..Block$GT$17hcc21a21cf949414cE', symObjAddr: 0x61F0, symBinAddr: 0xE8E80, symSize: 0xD0 }
  - { offsetInCU: 0x19178, offset: 0x4BF05A, size: 0x8, addend: 0x0, symName: '__ZN4core3ptr38drop_in_place$LT$syn..data..Fields$GT$17h1dd1b203befc1316E', symObjAddr: 0x62C0, symBinAddr: 0xE8F50, symSize: 0x190 }
  - { offsetInCU: 0x19596, offset: 0x4BF478, size: 0x8, addend: 0x0, symName: '__ZN4core3ptr38drop_in_place$LT$syn..expr..Member$GT$17h022cbe5553aa40faE', symObjAddr: 0x6450, symBinAddr: 0xE90E0, symSize: 0x30 }
  - { offsetInCU: 0x19693, offset: 0x4BF575, size: 0x8, addend: 0x0, symName: '__ZN4core3ptr39drop_in_place$LT$proc_macro2..Ident$GT$17h8101e88c3ac359d6E', symObjAddr: 0x6480, symBinAddr: 0xE9110, symSize: 0x30 }
  - { offsetInCU: 0x197ED, offset: 0x4BF6CF, size: 0x8, addend: 0x0, symName: '__ZN4core3ptr39drop_in_place$LT$syn..item..UseTree$GT$17h5b1281a5704d139dE', symObjAddr: 0x64B0, symBinAddr: 0xE9140, symSize: 0xD0 }
  - { offsetInCU: 0x19BA2, offset: 0x4BFA84, size: 0x8, addend: 0x0, symName: '__ZN4core3ptr39drop_in_place$LT$syn..ty..TypeGroup$GT$17h40bac393b20ff4afE', symObjAddr: 0x6580, symBinAddr: 0xE9210, symSize: 0x50 }
  - { offsetInCU: 0x19D8B, offset: 0x4BFC6D, size: 0x8, addend: 0x0, symName: '__ZN4core3ptr40drop_in_place$LT$syn..item..ImplItem$GT$17he2e6e8f15695ea55E', symObjAddr: 0x65D0, symBinAddr: 0xE9260, symSize: 0x7D0 }
  - { offsetInCU: 0x1B533, offset: 0x4C1415, size: 0x8, addend: 0x0, symName: '__ZN4core3ptr40drop_in_place$LT$syn..item..ItemImpl$GT$17h1b09f17c1730ab9cE', symObjAddr: 0x6DA0, symBinAddr: 0xE9A30, symSize: 0x1F0 }
  - { offsetInCU: 0x1BC6E, offset: 0x4C1B50, size: 0x8, addend: 0x0, symName: '__ZN4core3ptr40drop_in_place$LT$syn..item..Receiver$GT$17h6743a41cd869c536E', symObjAddr: 0x6F90, symBinAddr: 0xE9C20, symSize: 0x130 }
  - { offsetInCU: 0x1C201, offset: 0x4C20E3, size: 0x8, addend: 0x0, symName: '__ZN4core3ptr40drop_in_place$LT$syn..item..Variadic$GT$17h856c1da4a3922974E', symObjAddr: 0x70C0, symBinAddr: 0xE9D50, symSize: 0x110 }
  - { offsetInCU: 0x1C624, offset: 0x4C2506, size: 0x8, addend: 0x0, symName: '__ZN4core3ptr40drop_in_place$LT$syn..ty..ReturnType$GT$17h02cf41e2fec63d90E', symObjAddr: 0x71D0, symBinAddr: 0xE9E60, symSize: 0x50 }
  - { offsetInCU: 0x1C796, offset: 0x4C2678, size: 0x8, addend: 0x0, symName: '__ZN4core3ptr41drop_in_place$LT$syn..expr..ExprConst$GT$17h725a13e551d9f276E', symObjAddr: 0x7220, symBinAddr: 0xE9EB0, symSize: 0x180 }
  - { offsetInCU: 0x1CD0A, offset: 0x4C2BEC, size: 0x8, addend: 0x0, symName: '__ZN4core3ptr41drop_in_place$LT$syn..item..Signature$GT$17h691f115807a5d1eeE', symObjAddr: 0x73A0, symBinAddr: 0xEA030, symSize: 0x160 }
  - { offsetInCU: 0x1D3F6, offset: 0x4C32D8, size: 0x8, addend: 0x0, symName: '__ZN4core3ptr41drop_in_place$LT$syn..item..TraitItem$GT$17hb6f9fbcba8fdea85E', symObjAddr: 0x7500, symBinAddr: 0xEA190, symSize: 0x6A0 }
  - { offsetInCU: 0x1E675, offset: 0x4C4557, size: 0x8, addend: 0x0, symName: '__ZN4core3ptr43drop_in_place$LT$syn..data..FieldsNamed$GT$17hb2a97e73a85352cbE', symObjAddr: 0x7BA0, symBinAddr: 0xEA830, symSize: 0xE0 }
  - { offsetInCU: 0x1E964, offset: 0x4C4846, size: 0x8, addend: 0x0, symName: '__ZN4core3ptr44drop_in_place$LT$syn..generics..Generics$GT$17h10dea28dec64f81eE', symObjAddr: 0x7C80, symBinAddr: 0xEA910, symSize: 0x40 }
  - { offsetInCU: 0x1E981, offset: 0x4C4863, size: 0x8, addend: 0x0, symName: '__ZN4core3ptr44drop_in_place$LT$syn..lifetime..Lifetime$GT$17hf0cdec2e9ec456d6E', symObjAddr: 0x7CC0, symBinAddr: 0xEA950, symSize: 0x30 }
  - { offsetInCU: 0x1EAFA, offset: 0x4C49DC, size: 0x8, addend: 0x0, symName: '__ZN4core3ptr44drop_in_place$LT$syn..parse..ParseBuffer$GT$17hd0dadba44a19aec2E', symObjAddr: 0x7CF0, symBinAddr: 0xEA980, symSize: 0x70 }
  - { offsetInCU: 0x1EF2F, offset: 0x4C4E11, size: 0x8, addend: 0x0, symName: '__ZN4core3ptr45drop_in_place$LT$proc_macro2..TokenStream$GT$17h3405f6c513e9f6cbE', symObjAddr: 0x7D60, symBinAddr: 0xEA9F0, symSize: 0x140 }
  - { offsetInCU: 0x1F39E, offset: 0x4C5280, size: 0x8, addend: 0x0, symName: '__ZN4core3ptr45drop_in_place$LT$syn..generics..TypeParam$GT$17he5eda51070b7de47E', symObjAddr: 0x7EA0, symBinAddr: 0xEAB30, symSize: 0x230 }
  - { offsetInCU: 0x1FB9A, offset: 0x4C5A7C, size: 0x8, addend: 0x0, symName: '__ZN4core3ptr46drop_in_place$LT$syn..generics..ConstParam$GT$17hab0a58c4af8c549cE', symObjAddr: 0x80D0, symBinAddr: 0xEAD60, symSize: 0x150 }
  - { offsetInCU: 0x1FFC4, offset: 0x4C5EA6, size: 0x8, addend: 0x0, symName: '__ZN4core3ptr47drop_in_place$LT$syn..path..GenericArgument$GT$17h54f8794633f96823E', symObjAddr: 0x8220, symBinAddr: 0xEAEB0, symSize: 0x460 }
  - { offsetInCU: 0x20CCD, offset: 0x4C6BAF, size: 0x8, addend: 0x0, symName: '__ZN4core3ptr49drop_in_place$LT$syn..generics..LifetimeParam$GT$17h41a7c7a290ea6289E', symObjAddr: 0x8680, symBinAddr: 0xEB310, symSize: 0xF0 }
  - { offsetInCU: 0x21087, offset: 0x4C6F69, size: 0x8, addend: 0x0, symName: '__ZN4core3ptr49drop_in_place$LT$syn..restriction..Visibility$GT$17h2a932c493942ef80E', symObjAddr: 0x8770, symBinAddr: 0xEB400, symSize: 0x60 }
  - { offsetInCU: 0x2120A, offset: 0x4C70EC, size: 0x8, addend: 0x0, symName: '__ZN4core3ptr50drop_in_place$LT$syn..generics..TypeParamBound$GT$17hcd7771d4c6c221efE', symObjAddr: 0x87D0, symBinAddr: 0xEB460, symSize: 0xA0 }
  - { offsetInCU: 0x21371, offset: 0x4C7253, size: 0x8, addend: 0x0, symName: '__ZN4core3ptr58drop_in_place$LT$alloc..vec..Vec$LT$syn..expr..Arm$GT$$GT$17h1a55df3d2cba1daaE', symObjAddr: 0x8870, symBinAddr: 0xEB500, symSize: 0xD0 }
  - { offsetInCU: 0x215FE, offset: 0x4C74E0, size: 0x8, addend: 0x0, symName: '__ZN4core3ptr59drop_in_place$LT$alloc..boxed..Box$LT$syn..pat..Pat$GT$$GT$17h563b135d87aca8abE', symObjAddr: 0x8940, symBinAddr: 0xEB5D0, symSize: 0x50 }
  - { offsetInCU: 0x21759, offset: 0x4C763B, size: 0x8, addend: 0x0, symName: '__ZN4core3ptr59drop_in_place$LT$alloc..boxed..Box$LT$syn..ty..Type$GT$$GT$17hffed36bad83adacbE', symObjAddr: 0x8990, symBinAddr: 0xEB620, symSize: 0x50 }
  - { offsetInCU: 0x218B4, offset: 0x4C7796, size: 0x8, addend: 0x0, symName: '__ZN4core3ptr61drop_in_place$LT$alloc..boxed..Box$LT$syn..expr..Expr$GT$$GT$17h01091e47f131475dE', symObjAddr: 0x89E0, symBinAddr: 0xEB670, symSize: 0x50 }
  - { offsetInCU: 0x21A0F, offset: 0x4C78F1, size: 0x8, addend: 0x0, symName: '__ZN4core3ptr61drop_in_place$LT$syn..path..ParenthesizedGenericArguments$GT$17h43d4aac5494326a7E', symObjAddr: 0x8A30, symBinAddr: 0xEB6C0, symSize: 0x170 }
  - { offsetInCU: 0x21FE9, offset: 0x4C7ECB, size: 0x8, addend: 0x0, symName: '__ZN4core3ptr62drop_in_place$LT$alloc..boxed..Box$LT$syn..stmt..Block$GT$$GT$17h30434998ae0f12a8E', symObjAddr: 0x8BA0, symBinAddr: 0xEB830, symSize: 0xE0 }
  - { offsetInCU: 0x223C6, offset: 0x4C82A8, size: 0x8, addend: 0x0, symName: '__ZN4core3ptr63drop_in_place$LT$alloc..boxed..Box$LT$syn..lit..LitRepr$GT$$GT$17hd8839b7fb35ee7afE', symObjAddr: 0x8C80, symBinAddr: 0xEB910, symSize: 0x60 }
  - { offsetInCU: 0x2269C, offset: 0x4C857E, size: 0x8, addend: 0x0, symName: '__ZN4core3ptr63drop_in_place$LT$alloc..vec..Vec$LT$syn..item..ImplItem$GT$$GT$17hda9ba61cc1df3d0eE', symObjAddr: 0x8CE0, symBinAddr: 0xEB970, symSize: 0x80 }
  - { offsetInCU: 0x22939, offset: 0x4C881B, size: 0x8, addend: 0x0, symName: '__ZN4core3ptr64drop_in_place$LT$alloc..boxed..Box$LT$syn..item..UseTree$GT$$GT$17he10cba0a4742709fE', symObjAddr: 0x8D60, symBinAddr: 0xEB9F0, symSize: 0xF0 }
  - { offsetInCU: 0x22E79, offset: 0x4C8D5B, size: 0x8, addend: 0x0, symName: '__ZN4core3ptr64drop_in_place$LT$alloc..boxed..Box$LT$syn..pat..FieldPat$GT$$GT$17h4980b70a7597cc08E', symObjAddr: 0x8E50, symBinAddr: 0xEBAE0, symSize: 0x140 }
  - { offsetInCU: 0x23524, offset: 0x4C9406, size: 0x8, addend: 0x0, symName: '__ZN4core3ptr64drop_in_place$LT$alloc..boxed..Box$LT$syn..ty..BareFnArg$GT$$GT$17h8b34096c620314efE', symObjAddr: 0x8F90, symBinAddr: 0xEBC20, symSize: 0x140 }
  - { offsetInCU: 0x23A48, offset: 0x4C992A, size: 0x8, addend: 0x0, symName: '__ZN4core3ptr64drop_in_place$LT$alloc..vec..Vec$LT$syn..attr..Attribute$GT$$GT$17h3c8f2a04e701c675E', symObjAddr: 0x90D0, symBinAddr: 0xEBD60, symSize: 0xD0 }
  - { offsetInCU: 0x23CD5, offset: 0x4C9BB7, size: 0x8, addend: 0x0, symName: '__ZN4core3ptr64drop_in_place$LT$alloc..vec..Vec$LT$syn..item..TraitItem$GT$$GT$17h60eb4b8666c57b93E', symObjAddr: 0x91A0, symBinAddr: 0xEBE30, symSize: 0x80 }
  - { offsetInCU: 0x23F53, offset: 0x4C9E35, size: 0x8, addend: 0x0, symName: '__ZN4core3ptr65drop_in_place$LT$core..option..Option$LT$syn..expr..Label$GT$$GT$17h78189e72a8cb7951E', symObjAddr: 0x9220, symBinAddr: 0xEBEB0, symSize: 0x30 }
  - { offsetInCU: 0x2408E, offset: 0x4C9F70, size: 0x8, addend: 0x0, symName: '__ZN4core3ptr65drop_in_place$LT$core..option..Option$LT$syn..path..QSelf$GT$$GT$17h9b72552ca06b7379E', symObjAddr: 0x9250, symBinAddr: 0xEBEE0, symSize: 0x50 }
  - { offsetInCU: 0x24211, offset: 0x4CA0F3, size: 0x8, addend: 0x0, symName: '__ZN4core3ptr66drop_in_place$LT$alloc..vec..Vec$LT$syn..item..ForeignItem$GT$$GT$17h3e58b8e683c84cf4E', symObjAddr: 0x92A0, symBinAddr: 0xEBF30, symSize: 0x80 }
  - { offsetInCU: 0x2448F, offset: 0x4CA371, size: 0x8, addend: 0x0, symName: '__ZN4core3ptr66drop_in_place$LT$core..option..Option$LT$syn..pat..PatRest$GT$$GT$17h61677cf4ff3a7393E', symObjAddr: 0x9320, symBinAddr: 0xEBFB0, symSize: 0xE0 }
  - { offsetInCU: 0x24713, offset: 0x4CA5F5, size: 0x8, addend: 0x0, symName: '__ZN4core3ptr67drop_in_place$LT$alloc..boxed..Box$LT$syn..expr..FieldValue$GT$$GT$17h93aaccf8aa22ef88E', symObjAddr: 0x9400, symBinAddr: 0xEC090, symSize: 0x140 }
  - { offsetInCU: 0x24C36, offset: 0x4CAB18, size: 0x8, addend: 0x0, symName: '__ZN4core3ptr70drop_in_place$LT$core..option..Option$LT$syn..ty..BareVariadic$GT$$GT$17h45399348ea4b8d55E', symObjAddr: 0x9540, symBinAddr: 0xEC1D0, symSize: 0x120 }
  - { offsetInCU: 0x25163, offset: 0x4CB045, size: 0x8, addend: 0x0, symName: '__ZN4core3ptr72drop_in_place$LT$alloc..boxed..Box$LT$syn..path..GenericArgument$GT$$GT$17haa7dd8b716637b54E', symObjAddr: 0x9660, symBinAddr: 0xEC2F0, symSize: 0x2B0 }
  - { offsetInCU: 0x25B4E, offset: 0x4CBA30, size: 0x8, addend: 0x0, symName: '__ZN4core3ptr72drop_in_place$LT$core..option..Option$LT$syn..lifetime..Lifetime$GT$$GT$17hfc363ccdd8bd9c32E', symObjAddr: 0x9910, symBinAddr: 0xEC5A0, symSize: 0x30 }
  - { offsetInCU: 0x25C6A, offset: 0x4CBB4C, size: 0x8, addend: 0x0, symName: '__ZN4core3ptr73drop_in_place$LT$alloc..boxed..Box$LT$syn..generics..GenericParam$GT$$GT$17hf6951dcd5ae07324E', symObjAddr: 0x9940, symBinAddr: 0xEC5D0, symSize: 0x80 }
  - { offsetInCU: 0x25DE2, offset: 0x4CBCC4, size: 0x8, addend: 0x0, symName: '__ZN4core3ptr75drop_in_place$LT$alloc..boxed..Box$LT$syn..generics..TypeParamBound$GT$$GT$17he61c00698a311a34E', symObjAddr: 0x99C0, symBinAddr: 0xEC650, symSize: 0x160 }
  - { offsetInCU: 0x263C7, offset: 0x4CC2A9, size: 0x8, addend: 0x0, symName: '__ZN4core3ptr75drop_in_place$LT$core..option..Option$LT$syn..generics..WhereClause$GT$$GT$17hdce7670be9790a3dE', symObjAddr: 0x9B20, symBinAddr: 0xEC7B0, symSize: 0x90 }
  - { offsetInCU: 0x2667D, offset: 0x4CC55F, size: 0x8, addend: 0x0, symName: '__ZN4core3ptr86drop_in_place$LT$syn..punctuated..Punctuated$LT$syn..pat..Pat$C$syn..token..Or$GT$$GT$17h8e9173df21a44316E', symObjAddr: 0x9BB0, symBinAddr: 0xEC840, symSize: 0x120 }
  - { offsetInCU: 0x26AC3, offset: 0x4CC9A5, size: 0x8, addend: 0x0, symName: '__ZN4core3ptr87drop_in_place$LT$core..option..Option$LT$alloc..boxed..Box$LT$syn..pat..Pat$GT$$GT$$GT$17hd7b7c69f601b3926E', symObjAddr: 0x9CD0, symBinAddr: 0xEC960, symSize: 0x50 }
  - { offsetInCU: 0x26C35, offset: 0x4CCB17, size: 0x8, addend: 0x0, symName: '__ZN4core3ptr87drop_in_place$LT$core..option..Option$LT$alloc..boxed..Box$LT$syn..ty..Type$GT$$GT$$GT$17hd74f5d971aec2972E', symObjAddr: 0x9D20, symBinAddr: 0xEC9B0, symSize: 0x50 }
  - { offsetInCU: 0x26DA7, offset: 0x4CCC89, size: 0x8, addend: 0x0, symName: '__ZN4core3ptr89drop_in_place$LT$core..option..Option$LT$alloc..boxed..Box$LT$syn..expr..Expr$GT$$GT$$GT$17h8e135ac1a25a2dc5E', symObjAddr: 0x9D70, symBinAddr: 0xECA00, symSize: 0x50 }
  - { offsetInCU: 0x26F57, offset: 0x4CCE39, size: 0x8, addend: 0x0, symName: '__ZN4core3ptr89drop_in_place$LT$syn..punctuated..Punctuated$LT$syn..pat..Pat$C$syn..token..Comma$GT$$GT$17h8d60e47f3fb1f87aE', symObjAddr: 0x9DC0, symBinAddr: 0xECA50, symSize: 0x120 }
  - { offsetInCU: 0x273F2, offset: 0x4CD2D4, size: 0x8, addend: 0x0, symName: '__ZN4core3ptr90drop_in_place$LT$core..option..Option$LT$alloc..boxed..Box$LT$syn..data..Field$GT$$GT$$GT$17h326c39537b0fcc46E', symObjAddr: 0x9EE0, symBinAddr: 0xECB70, symSize: 0x200 }
  - { offsetInCU: 0x27C48, offset: 0x4CDB2A, size: 0x8, addend: 0x0, symName: '__ZN4core3ptr90drop_in_place$LT$core..option..Option$LT$alloc..boxed..Box$LT$syn..item..FnArg$GT$$GT$$GT$17hbae3fdd388277508E', symObjAddr: 0xA0E0, symBinAddr: 0xECD70, symSize: 0x50 }
  - { offsetInCU: 0x27DEB, offset: 0x4CDCCD, size: 0x8, addend: 0x0, symName: '__ZN4core3ptr91drop_in_place$LT$syn..punctuated..Punctuated$LT$syn..expr..Expr$C$syn..token..Comma$GT$$GT$17h4f39b83dc86a4159E', symObjAddr: 0xA130, symBinAddr: 0xECDC0, symSize: 0x120 }
  - { offsetInCU: 0x28248, offset: 0x4CE12A, size: 0x8, addend: 0x0, symName: '__ZN4core3ptr92drop_in_place$LT$core..option..Option$LT$$LP$syn..token..As$C$proc_macro2..Ident$RP$$GT$$GT$17h5c1a47ccb35d9d7eE', symObjAddr: 0xA250, symBinAddr: 0xECEE0, symSize: 0x30 }
  - { offsetInCU: 0x283A2, offset: 0x4CE284, size: 0x8, addend: 0x0, symName: '__ZN4core3ptr92drop_in_place$LT$core..option..Option$LT$alloc..boxed..Box$LT$syn..data..Variant$GT$$GT$$GT$17h3f89d7c982191526E', symObjAddr: 0xA280, symBinAddr: 0xECF10, symSize: 0x190 }
  - { offsetInCU: 0x28A4B, offset: 0x4CE92D, size: 0x8, addend: 0x0, symName: '__ZN4core3ptr92drop_in_place$LT$syn..punctuated..Punctuated$LT$syn..item..FnArg$C$syn..token..Comma$GT$$GT$17h75db9d232662c7d3E', symObjAddr: 0xA410, symBinAddr: 0xED0A0, symSize: 0x130 }
  - { offsetInCU: 0x28E82, offset: 0x4CED64, size: 0x8, addend: 0x0, symName: '__ZN4core3ptr94drop_in_place$LT$syn..punctuated..Punctuated$LT$syn..data..Variant$C$syn..token..Comma$GT$$GT$17ha69d7e675441c7e2E', symObjAddr: 0xA540, symBinAddr: 0xED1D0, symSize: 0xE0 }
  - { offsetInCU: 0x291AF, offset: 0x4CF091, size: 0x8, addend: 0x0, symName: '__ZN4core3ptr94drop_in_place$LT$syn..punctuated..Punctuated$LT$syn..item..UseTree$C$syn..token..Comma$GT$$GT$17h4e4f303ffad9f549E', symObjAddr: 0xA620, symBinAddr: 0xED2B0, symSize: 0xF0 }
  - { offsetInCU: 0x294C0, offset: 0x4CF3A2, size: 0x8, addend: 0x0, symName: '__ZN4core3ptr94drop_in_place$LT$syn..punctuated..Punctuated$LT$syn..pat..FieldPat$C$syn..token..Comma$GT$$GT$17h112950ea198c8281E', symObjAddr: 0xA710, symBinAddr: 0xED3A0, symSize: 0xF0 }
  - { offsetInCU: 0x2978A, offset: 0x4CF66C, size: 0x8, addend: 0x0, symName: '__ZN4core3ptr94drop_in_place$LT$syn..punctuated..Punctuated$LT$syn..ty..BareFnArg$C$syn..token..Comma$GT$$GT$17h1c7b44310f06243dE', symObjAddr: 0xA800, symBinAddr: 0xED490, symSize: 0xF0 }
  - { offsetInCU: 0x29A54, offset: 0x4CF936, size: 0x8, addend: 0x0, symName: '__ZN4core3ptr96drop_in_place$LT$core..option..Option$LT$alloc..boxed..Box$LT$syn..path..PathSegment$GT$$GT$$GT$17hb447d0f626c86a4eE', symObjAddr: 0xA8F0, symBinAddr: 0xED580, symSize: 0x180 }
  - { offsetInCU: 0x2A0E5, offset: 0x4CFFC7, size: 0x8, addend: 0x0, symName: '__ZN4core3ptr97drop_in_place$LT$syn..punctuated..Punctuated$LT$syn..expr..FieldValue$C$syn..token..Comma$GT$$GT$17h31b81f7462228dcbE', symObjAddr: 0xAA70, symBinAddr: 0xED700, symSize: 0xF0 }
  - { offsetInCU: 0x2A42B, offset: 0x4D030D, size: 0x8, addend: 0x0, symName: '__ZN4core3ptr98drop_in_place$LT$syn..punctuated..Punctuated$LT$syn..lifetime..Lifetime$C$syn..token..Plus$GT$$GT$17h0f8fc5f20f465f47E', symObjAddr: 0xAB60, symBinAddr: 0xED7F0, symSize: 0xC0 }
  - { offsetInCU: 0x31800, offset: 0x4D76E2, size: 0x8, addend: 0x0, symName: __ZN3syn4item7parsing18parse_rest_of_item17h8569c0eb1b7d8242E, symObjAddr: 0xAC80, symBinAddr: 0xED910, symSize: 0x4130 }
  - { offsetInCU: 0x3D507, offset: 0x4E33E9, size: 0x8, addend: 0x0, symName: __ZN3syn4item7parsing12parse_macro217h59aca4032c4075c2E, symObjAddr: 0xFC20, symBinAddr: 0xF28B0, symSize: 0x8D0 }
  - { offsetInCU: 0x3F00B, offset: 0x4E4EED, size: 0x8, addend: 0x0, symName: __ZN3syn4item7parsing14parse_item_use17h87ea73b5b5534563E, symObjAddr: 0x104F0, symBinAddr: 0xF3180, symSize: 0x520 }
  - { offsetInCU: 0x3FA37, offset: 0x4E5919, size: 0x8, addend: 0x0, symName: __ZN3syn4item7parsing14parse_use_tree17ha136166ddfa7b0b8E, symObjAddr: 0x10A10, symBinAddr: 0xF36A0, symSize: 0xE80 }
  - { offsetInCU: 0x421FE, offset: 0x4E80E0, size: 0x8, addend: 0x0, symName: __ZN3syn4item7parsing14peek_signature17h5908d52294220ab3E, symObjAddr: 0x11890, symBinAddr: 0xF4520, symSize: 0x380 }
  - { offsetInCU: 0x4329B, offset: 0x4E917D, size: 0x8, addend: 0x0, symName: __ZN3syn4item7parsing16parse_rest_of_fn17hff377dc88eaa3b3fE, symObjAddr: 0x11C10, symBinAddr: 0xF48A0, symSize: 0x560 }
  - { offsetInCU: 0x4400B, offset: 0x4E9EED, size: 0x8, addend: 0x0, symName: __ZN3syn4item7parsing24parse_fn_arg_or_variadic17h0946b5f8092c2f53E, symObjAddr: 0x12170, symBinAddr: 0xF4E00, symSize: 0xEC0 }
  - { offsetInCU: 0x46BFE, offset: 0x4ECAE0, size: 0x8, addend: 0x0, symName: __ZN3syn4item7parsing13parse_fn_args17hfcbadc903471329dE, symObjAddr: 0x13030, symBinAddr: 0xF5CC0, symSize: 0xA20 }
  - { offsetInCU: 0x47BA5, offset: 0x4EDA87, size: 0x8, addend: 0x0, symName: __ZN3syn4item7parsing23parse_foreign_item_type17hbed431625837dc04E, symObjAddr: 0x13A50, symBinAddr: 0xF66E0, symSize: 0x450 }
  - { offsetInCU: 0x48288, offset: 0x4EE16A, size: 0x8, addend: 0x0, symName: __ZN3syn4item7parsing15parse_item_type17h69a8e007f956ea7eE, symObjAddr: 0x13EA0, symBinAddr: 0xF6B30, symSize: 0x580 }
  - { offsetInCU: 0x48CE4, offset: 0x4EEBC6, size: 0x8, addend: 0x0, symName: __ZN3syn4item7parsing26parse_trait_or_trait_alias17h53e52e5f93715b35E, symObjAddr: 0x14420, symBinAddr: 0xF70B0, symSize: 0x880 }
  - { offsetInCU: 0x4A6D2, offset: 0x4F05B4, size: 0x8, addend: 0x0, symName: __ZN3syn4item7parsing19parse_rest_of_trait17h0b8f1e2c2e0da776E, symObjAddr: 0x14CA0, symBinAddr: 0xF7930, symSize: 0xC10 }
  - { offsetInCU: 0x4BB1B, offset: 0x4F19FD, size: 0x8, addend: 0x0, symName: __ZN3syn4item7parsing26parse_start_of_trait_alias17h83335d8e31321462E, symObjAddr: 0x158B0, symBinAddr: 0xF8540, symSize: 0x4F0 }
  - { offsetInCU: 0x4C4F1, offset: 0x4F23D3, size: 0x8, addend: 0x0, symName: __ZN3syn4item7parsing25parse_rest_of_trait_alias17hffc9e5855a2cde04E, symObjAddr: 0x15DA0, symBinAddr: 0xF8A30, symSize: 0x680 }
  - { offsetInCU: 0x4D0D2, offset: 0x4F2FB4, size: 0x8, addend: 0x0, symName: __ZN3syn4item7parsing21parse_trait_item_type17h95d0bdc458584a4fE, symObjAddr: 0x16420, symBinAddr: 0xF90B0, symSize: 0x4C0 }
  - { offsetInCU: 0x4D81B, offset: 0x4F36FD, size: 0x8, addend: 0x0, symName: __ZN3syn4item7parsing10parse_impl17he5759138fa3bc5b8E, symObjAddr: 0x168E0, symBinAddr: 0xF9570, symSize: 0x15F0 }
  - { offsetInCU: 0x4F129, offset: 0x4F500B, size: 0x8, addend: 0x0, symName: __ZN3syn4item7parsing18parse_impl_item_fn17h96506ae9bfc9db41E, symObjAddr: 0x17ED0, symBinAddr: 0xFAB60, symSize: 0x770 }
  - { offsetInCU: 0x4FC4B, offset: 0x4F5B2D, size: 0x8, addend: 0x0, symName: __ZN3syn4item7parsing20parse_impl_item_type17h3bf2e7aa4b140554E, symObjAddr: 0x18640, symBinAddr: 0xFB2D0, symSize: 0x4D7 }
  - { offsetInCU: 0x587AC, offset: 0x4FE68E, size: 0x8, addend: 0x0, symName: '__ZN5alloc3vec16Vec$LT$T$C$A$GT$4push17h3158ebd1c3360f00E', symObjAddr: 0xAC20, symBinAddr: 0xED8B0, symSize: 0x60 }
  - { offsetInCU: 0x5996D, offset: 0x4FF84F, size: 0x8, addend: 0x0, symName: __ZN3syn4item7parsing16FlexibleItemType5parse17ha511062c5b947fc4E, symObjAddr: 0xEDB0, symBinAddr: 0xF1A40, symSize: 0xA10 }
  - { offsetInCU: 0x5A6E8, offset: 0x5005CA, size: 0x8, addend: 0x0, symName: __ZN3syn4item7parsing16FlexibleItemType21parse_optional_bounds17hbbaebf3e2d169441E, symObjAddr: 0xF7C0, symBinAddr: 0xF2450, symSize: 0x310 }
  - { offsetInCU: 0x5ADA0, offset: 0x500C82, size: 0x8, addend: 0x0, symName: __ZN3syn4item7parsing16FlexibleItemType25parse_optional_definition17hbde9bf5fd31dafffE, symObjAddr: 0xFAD0, symBinAddr: 0xF2760, symSize: 0x150 }
  - { offsetInCU: 0x2C7A, offset: 0x50EEA0, size: 0x8, addend: 0x0, symName: '__ZN84_$LT$syn..generics..TypeParams$u20$as$u20$core..iter..traits..iterator..Iterator$GT$4next17hd9cb9947dcf7dc8eE', symObjAddr: 0x81D0, symBinAddr: 0x102E40, symSize: 0x0 }
  - { offsetInCU: 0x2CEF, offset: 0x50EF15, size: 0x8, addend: 0x0, symName: '__ZN3syn8generics7parsing71_$LT$impl$u20$syn..parse..Parse$u20$for$u20$syn..generics..Generics$GT$5parse17h6b35b0a678693bc9E', symObjAddr: 0x8310, symBinAddr: 0x102EA0, symSize: 0x1010 }
  - { offsetInCU: 0x4E59, offset: 0x51107F, size: 0x8, addend: 0x0, symName: '__ZN3syn8generics7parsing76_$LT$impl$u20$syn..parse..Parse$u20$for$u20$syn..generics..LifetimeParam$GT$5parse17h3fc29617c6a43bdcE', symObjAddr: 0x9E70, symBinAddr: 0x103EB0, symSize: 0x690 }
  - { offsetInCU: 0x5DF3, offset: 0x512019, size: 0x8, addend: 0x0, symName: '__ZN3syn8generics7parsing77_$LT$impl$u20$syn..parse..Parse$u20$for$u20$syn..generics..BoundLifetimes$GT$5parse17h7a7c384f0cdd4b83E', symObjAddr: 0xA500, symBinAddr: 0x104540, symSize: 0x620 }
  - { offsetInCU: 0x6B00, offset: 0x512D26, size: 0x8, addend: 0x0, symName: '__ZN3syn8generics7parsing72_$LT$impl$u20$syn..parse..Parse$u20$for$u20$syn..generics..TypeParam$GT$5parse17h86074eb5794d472dE', symObjAddr: 0xAB20, symBinAddr: 0x104B60, symSize: 0x7F0 }
  - { offsetInCU: 0x7BF1, offset: 0x513E17, size: 0x8, addend: 0x0, symName: '__ZN3syn8generics7parsing77_$LT$impl$u20$syn..parse..Parse$u20$for$u20$syn..generics..TypeParamBound$GT$5parse17hef57556d60488532E', symObjAddr: 0xB310, symBinAddr: 0x105350, symSize: 0x1300 }
  - { offsetInCU: 0xB6B7, offset: 0x5178DD, size: 0x8, addend: 0x0, symName: '__ZN3syn8generics7parsing73_$LT$impl$u20$syn..parse..Parse$u20$for$u20$syn..generics..TraitBound$GT$5parse17h425a3489f7ef339fE', symObjAddr: 0xCB70, symBinAddr: 0x106BB0, symSize: 0x720 }
  - { offsetInCU: 0xC81D, offset: 0x518A43, size: 0x8, addend: 0x0, symName: '__ZN3syn8generics7parsing73_$LT$impl$u20$syn..parse..Parse$u20$for$u20$syn..generics..ConstParam$GT$5parse17hf00c756c03f8df0bE', symObjAddr: 0xD360, symBinAddr: 0x1072D0, symSize: 0x880 }
  - { offsetInCU: 0xD766, offset: 0x51998C, size: 0x8, addend: 0x0, symName: '__ZN3syn8generics7parsing74_$LT$impl$u20$syn..parse..Parse$u20$for$u20$syn..generics..WhereClause$GT$5parse17h0184ea7b8fa9bf5fE', symObjAddr: 0xDBE0, symBinAddr: 0x107B50, symSize: 0x440 }
  - { offsetInCU: 0xE2E1, offset: 0x51A507, size: 0x8, addend: 0x0, symName: '__ZN3syn8generics7parsing77_$LT$impl$u20$syn..parse..Parse$u20$for$u20$syn..generics..WherePredicate$GT$5parse17h285530128cf671e6E', symObjAddr: 0xE020, symBinAddr: 0x107F90, symSize: 0xEB0 }
  - { offsetInCU: 0x105E0, offset: 0x51C806, size: 0x8, addend: 0x0, symName: '__ZN3syn8generics8printing80_$LT$impl$u20$quote..to_tokens..ToTokens$u20$for$u20$syn..generics..Generics$GT$9to_tokens17h0ec80491c61b899eE', symObjAddr: 0xEED0, symBinAddr: 0x108E40, symSize: 0x240 }
  - { offsetInCU: 0x10E07, offset: 0x51D02D, size: 0x8, addend: 0x0, symName: '__ZN3syn8generics8printing84_$LT$impl$u20$quote..to_tokens..ToTokens$u20$for$u20$syn..generics..ImplGenerics$GT$9to_tokens17hcbc91e4fcbfc3836E', symObjAddr: 0xF110, symBinAddr: 0x109080, symSize: 0x5B0 }
  - { offsetInCU: 0x12032, offset: 0x51E258, size: 0x8, addend: 0x0, symName: '__ZN3syn8generics8printing84_$LT$impl$u20$quote..to_tokens..ToTokens$u20$for$u20$syn..generics..TypeGenerics$GT$9to_tokens17heceb5abd9933fc8aE', symObjAddr: 0xF6C0, symBinAddr: 0x109630, symSize: 0x300 }
  - { offsetInCU: 0x12AF6, offset: 0x51ED1C, size: 0x8, addend: 0x0, symName: '__ZN3syn8generics8printing86_$LT$impl$u20$quote..to_tokens..ToTokens$u20$for$u20$syn..generics..BoundLifetimes$GT$9to_tokens17hf35c5fa847c9610bE', symObjAddr: 0xFA30, symBinAddr: 0x109930, symSize: 0x150 }
  - { offsetInCU: 0x12FA0, offset: 0x51F1C6, size: 0x8, addend: 0x0, symName: '__ZN3syn8generics8printing81_$LT$impl$u20$quote..to_tokens..ToTokens$u20$for$u20$syn..generics..TypeParam$GT$9to_tokens17h67a891f1844b10b9E', symObjAddr: 0xFDA0, symBinAddr: 0x109A80, symSize: 0x210 }
  - { offsetInCU: 0x1367F, offset: 0x51F8A5, size: 0x8, addend: 0x0, symName: '__ZN3syn8generics8printing82_$LT$impl$u20$quote..to_tokens..ToTokens$u20$for$u20$syn..generics..ConstParam$GT$9to_tokens17h19315c88864bea17E', symObjAddr: 0x10050, symBinAddr: 0x109C90, symSize: 0x1E0 }
  - { offsetInCU: 0x13A3B, offset: 0x51FC61, size: 0x8, addend: 0x0, symName: '__ZN3syn8generics8printing83_$LT$impl$u20$quote..to_tokens..ToTokens$u20$for$u20$syn..generics..WhereClause$GT$9to_tokens17hcd59109d6cd5532bE', symObjAddr: 0x10230, symBinAddr: 0x109E70, symSize: 0x120 }
  - { offsetInCU: 0x13EEC, offset: 0x520112, size: 0x8, addend: 0x0, symName: '__ZN74_$LT$syn..generics..GenericParam$u20$as$u20$quote..to_tokens..ToTokens$GT$9to_tokens17h7b28c56cca690554E', symObjAddr: 0x10590, symBinAddr: 0x109F90, symSize: 0x280 }
  - { offsetInCU: 0x147D0, offset: 0x5209F6, size: 0x8, addend: 0x0, symName: '__ZN76_$LT$syn..generics..TypeParamBound$u20$as$u20$quote..to_tokens..ToTokens$GT$9to_tokens17h626cf29a5d446a91E', symObjAddr: 0x10A70, symBinAddr: 0x10A210, symSize: 0x110 }
  - { offsetInCU: 0x14A36, offset: 0x520C5C, size: 0x8, addend: 0x0, symName: '__ZN76_$LT$syn..generics..WherePredicate$u20$as$u20$quote..to_tokens..ToTokens$GT$9to_tokens17h17ebe07335d01c13E', symObjAddr: 0x10B80, symBinAddr: 0x10A320, symSize: 0x220 }
  - { offsetInCU: 0x173FC, offset: 0x523622, size: 0x8, addend: 0x0, symName: '__ZN3syn3gen5clone74_$LT$impl$u20$core..clone..Clone$u20$for$u20$syn..generics..ConstParam$GT$5clone17h3026a67a17c10895E', symObjAddr: 0x10E00, symBinAddr: 0x10A540, symSize: 0x1F0 }
  - { offsetInCU: 0x176AD, offset: 0x5238D3, size: 0x8, addend: 0x0, symName: '__ZN3syn3gen5clone77_$LT$impl$u20$core..clone..Clone$u20$for$u20$syn..generics..LifetimeParam$GT$5clone17ha0c1f4877a12e76eE', symObjAddr: 0x111B0, symBinAddr: 0x10A730, symSize: 0x130 }
  - { offsetInCU: 0x17901, offset: 0x523B27, size: 0x8, addend: 0x0, symName: '__ZN3syn3gen5clone77_$LT$impl$u20$core..clone..Clone$u20$for$u20$syn..generics..PredicateType$GT$5clone17he478b1727e886ac0E', symObjAddr: 0x113C0, symBinAddr: 0x10A860, symSize: 0x150 }
  - { offsetInCU: 0x17A95, offset: 0x523CBB, size: 0x8, addend: 0x0, symName: '__ZN3syn3gen5clone73_$LT$impl$u20$core..clone..Clone$u20$for$u20$syn..generics..TypeParam$GT$5clone17h94ce523cb3afb45dE', symObjAddr: 0x11640, symBinAddr: 0x10A9B0, symSize: 0x2B0 }
  - { offsetInCU: 0x17FD2, offset: 0x5241F8, size: 0x8, addend: 0x0, symName: '__ZN3syn3gen5clone78_$LT$impl$u20$core..clone..Clone$u20$for$u20$syn..generics..TypeParamBound$GT$5clone17h78cd728b4f45a7a9E', symObjAddr: 0x118F0, symBinAddr: 0x10AC60, symSize: 0x230 }
  - { offsetInCU: 0x1AD90, offset: 0x526FB6, size: 0x8, addend: 0x0, symName: '__ZN4core3ptr100drop_in_place$LT$core..option..Option$LT$alloc..boxed..Box$LT$syn..path..GenericArgument$GT$$GT$$GT$17h7435c9de74860622E', symObjAddr: 0x140, symBinAddr: 0xFB7B0, symSize: 0x50 }
  - { offsetInCU: 0x1B019, offset: 0x52723F, size: 0x8, addend: 0x0, symName: '__ZN4core3ptr100drop_in_place$LT$syn..punctuated..Punctuated$LT$syn..path..PathSegment$C$syn..token..PathSep$GT$$GT$17hf414cb3581f8337aE', symObjAddr: 0x190, symBinAddr: 0xFB800, symSize: 0x140 }
  - { offsetInCU: 0x1B54D, offset: 0x527773, size: 0x8, addend: 0x0, symName: '__ZN4core3ptr103drop_in_place$LT$core..option..Option$LT$alloc..boxed..Box$LT$syn..generics..TypeParamBound$GT$$GT$$GT$17h5974f03e36b1a9c3E', symObjAddr: 0x2D0, symBinAddr: 0xFB940, symSize: 0x50 }
  - { offsetInCU: 0x1B798, offset: 0x5279BE, size: 0x8, addend: 0x0, symName: '__ZN4core3ptr103drop_in_place$LT$core..option..Option$LT$alloc..boxed..Box$LT$syn..generics..WherePredicate$GT$$GT$$GT$17hdd5111a374d8d6f2E', symObjAddr: 0x320, symBinAddr: 0xFB990, symSize: 0xD0 }
  - { offsetInCU: 0x1BB2B, offset: 0x527D51, size: 0x8, addend: 0x0, symName: '__ZN4core3ptr103drop_in_place$LT$syn..punctuated..Punctuated$LT$syn..generics..GenericParam$C$syn..token..Comma$GT$$GT$17hf42353fa44ed6da8E.llvm.14890500243436994185', symObjAddr: 0x3F0, symBinAddr: 0xFBA60, symSize: 0xF0 }
  - { offsetInCU: 0x1BF53, offset: 0x528179, size: 0x8, addend: 0x0, symName: '__ZN4core3ptr104drop_in_place$LT$syn..punctuated..Punctuated$LT$syn..generics..TypeParamBound$C$syn..token..Plus$GT$$GT$17h532f52c4a894b056E', symObjAddr: 0x4E0, symBinAddr: 0xFBB50, symSize: 0x160 }
  - { offsetInCU: 0x1C4C1, offset: 0x5286E7, size: 0x8, addend: 0x0, symName: '__ZN4core3ptr105drop_in_place$LT$syn..punctuated..Punctuated$LT$syn..generics..WherePredicate$C$syn..token..Comma$GT$$GT$17h935f9826ba562349E', symObjAddr: 0x640, symBinAddr: 0xFBCB0, symSize: 0x80 }
  - { offsetInCU: 0x1C783, offset: 0x5289A9, size: 0x8, addend: 0x0, symName: '__ZN4core3ptr34drop_in_place$LT$syn..lit..Lit$GT$17h8902f5ff67917034E', symObjAddr: 0x6C0, symBinAddr: 0xFBD30, symSize: 0x110 }
  - { offsetInCU: 0x1CD1A, offset: 0x528F40, size: 0x8, addend: 0x0, symName: '__ZN4core3ptr34drop_in_place$LT$syn..pat..Pat$GT$17h4581eea028ec0969E', symObjAddr: 0x7D0, symBinAddr: 0xFBE40, symSize: 0x1000 }
  - { offsetInCU: 0x2085E, offset: 0x52CA84, size: 0x8, addend: 0x0, symName: '__ZN4core3ptr34drop_in_place$LT$syn..ty..Type$GT$17h369e41ad4a9f1ae0E.llvm.14890500243436994185', symObjAddr: 0x17D0, symBinAddr: 0xFCE40, symSize: 0x4F0 }
  - { offsetInCU: 0x21DE7, offset: 0x52E00D, size: 0x8, addend: 0x0, symName: '__ZN4core3ptr36drop_in_place$LT$syn..expr..Expr$GT$17h0f7fd4c749bae801E.llvm.14890500243436994185', symObjAddr: 0x1CD0, symBinAddr: 0xFD330, symSize: 0x28E0 }
  - { offsetInCU: 0x2B279, offset: 0x53749F, size: 0x8, addend: 0x0, symName: '__ZN4core3ptr36drop_in_place$LT$syn..mac..Macro$GT$17h4ffde962df30ebe2E', symObjAddr: 0x45B0, symBinAddr: 0xFFC10, symSize: 0x40 }
  - { offsetInCU: 0x2B32F, offset: 0x537555, size: 0x8, addend: 0x0, symName: '__ZN4core3ptr36drop_in_place$LT$syn..path..Path$GT$17habea856181211e1cE', symObjAddr: 0x45F0, symBinAddr: 0xFFC50, symSize: 0x220 }
  - { offsetInCU: 0x2BC64, offset: 0x537E8A, size: 0x8, addend: 0x0, symName: '__ZN4core3ptr37drop_in_place$LT$syn..stmt..Block$GT$17hcc21a21cf949414cE', symObjAddr: 0x4810, symBinAddr: 0xFFE70, symSize: 0xD0 }
  - { offsetInCU: 0x2BF08, offset: 0x53812E, size: 0x8, addend: 0x0, symName: '__ZN4core3ptr38drop_in_place$LT$syn..expr..Member$GT$17h022cbe5553aa40faE', symObjAddr: 0x48F0, symBinAddr: 0xFFF40, symSize: 0x30 }
  - { offsetInCU: 0x2C005, offset: 0x53822B, size: 0x8, addend: 0x0, symName: '__ZN4core3ptr39drop_in_place$LT$proc_macro2..Ident$GT$17h8101e88c3ac359d6E.llvm.14890500243436994185', symObjAddr: 0x4920, symBinAddr: 0xFFF70, symSize: 0x30 }
  - { offsetInCU: 0x2C0E3, offset: 0x538309, size: 0x8, addend: 0x0, symName: '__ZN4core3ptr40drop_in_place$LT$syn..ty..ReturnType$GT$17h02cf41e2fec63d90E', symObjAddr: 0x4950, symBinAddr: 0xFFFA0, symSize: 0x50 }
  - { offsetInCU: 0x2C255, offset: 0x53847B, size: 0x8, addend: 0x0, symName: '__ZN4core3ptr41drop_in_place$LT$syn..expr..ExprConst$GT$17h725a13e551d9f276E', symObjAddr: 0x49A0, symBinAddr: 0xFFFF0, symSize: 0x180 }
  - { offsetInCU: 0x2C7AA, offset: 0x5389D0, size: 0x8, addend: 0x0, symName: '__ZN4core3ptr44drop_in_place$LT$syn..lifetime..Lifetime$GT$17hf0cdec2e9ec456d6E.llvm.14890500243436994185', symObjAddr: 0x4B60, symBinAddr: 0x100170, symSize: 0x30 }
  - { offsetInCU: 0x2C923, offset: 0x538B49, size: 0x8, addend: 0x0, symName: '__ZN4core3ptr44drop_in_place$LT$syn..parse..ParseBuffer$GT$17hd0dadba44a19aec2E', symObjAddr: 0x4B90, symBinAddr: 0x1001A0, symSize: 0x70 }
  - { offsetInCU: 0x2CD58, offset: 0x538F7E, size: 0x8, addend: 0x0, symName: '__ZN4core3ptr45drop_in_place$LT$proc_macro2..TokenStream$GT$17h3405f6c513e9f6cbE.llvm.14890500243436994185', symObjAddr: 0x4C00, symBinAddr: 0x100210, symSize: 0x140 }
  - { offsetInCU: 0x2D1C7, offset: 0x5393ED, size: 0x8, addend: 0x0, symName: '__ZN4core3ptr45drop_in_place$LT$syn..generics..TypeParam$GT$17he5eda51070b7de47E.llvm.14890500243436994185', symObjAddr: 0x4D40, symBinAddr: 0x100350, symSize: 0x230 }
  - { offsetInCU: 0x2D9C3, offset: 0x539BE9, size: 0x8, addend: 0x0, symName: '__ZN4core3ptr45drop_in_place$LT$syn..path..PathArguments$GT$17h7160021b3fdea550E', symObjAddr: 0x4F70, symBinAddr: 0x100580, symSize: 0x170 }
  - { offsetInCU: 0x2DE60, offset: 0x53A086, size: 0x8, addend: 0x0, symName: '__ZN4core3ptr46drop_in_place$LT$syn..generics..ConstParam$GT$17hab0a58c4af8c549cE.llvm.14890500243436994185', symObjAddr: 0x50E0, symBinAddr: 0x1006F0, symSize: 0x150 }
  - { offsetInCU: 0x2E22D, offset: 0x53A453, size: 0x8, addend: 0x0, symName: '__ZN4core3ptr46drop_in_place$LT$syn..generics..TraitBound$GT$17h73aacd08fea17a2cE.llvm.14890500243436994185', symObjAddr: 0x5230, symBinAddr: 0x100840, symSize: 0xF0 }
  - { offsetInCU: 0x2E594, offset: 0x53A7BA, size: 0x8, addend: 0x0, symName: '__ZN4core3ptr47drop_in_place$LT$syn..path..GenericArgument$GT$17h54f8794633f96823E', symObjAddr: 0x5320, symBinAddr: 0x100930, symSize: 0x4A0 }
  - { offsetInCU: 0x2F63B, offset: 0x53B861, size: 0x8, addend: 0x0, symName: '__ZN4core3ptr49drop_in_place$LT$syn..generics..LifetimeParam$GT$17h41a7c7a290ea6289E.llvm.14890500243436994185', symObjAddr: 0x57C0, symBinAddr: 0x100DD0, symSize: 0xF0 }
  - { offsetInCU: 0x2FA14, offset: 0x53BC3A, size: 0x8, addend: 0x0, symName: '__ZN4core3ptr50drop_in_place$LT$syn..generics..TypeParamBound$GT$17hcd7771d4c6c221efE', symObjAddr: 0x5920, symBinAddr: 0x100EC0, symSize: 0xA0 }
  - { offsetInCU: 0x2FB7B, offset: 0x53BDA1, size: 0x8, addend: 0x0, symName: '__ZN4core3ptr58drop_in_place$LT$alloc..vec..Vec$LT$syn..expr..Arm$GT$$GT$17h1a55df3d2cba1daaE', symObjAddr: 0x5A00, symBinAddr: 0x100F60, symSize: 0xD0 }
  - { offsetInCU: 0x2FE08, offset: 0x53C02E, size: 0x8, addend: 0x0, symName: '__ZN4core3ptr59drop_in_place$LT$alloc..boxed..Box$LT$syn..pat..Pat$GT$$GT$17h563b135d87aca8abE', symObjAddr: 0x5AD0, symBinAddr: 0x101030, symSize: 0x50 }
  - { offsetInCU: 0x2FF63, offset: 0x53C189, size: 0x8, addend: 0x0, symName: '__ZN4core3ptr59drop_in_place$LT$alloc..boxed..Box$LT$syn..ty..Type$GT$$GT$17hffed36bad83adacbE', symObjAddr: 0x5B20, symBinAddr: 0x101080, symSize: 0x50 }
  - { offsetInCU: 0x300BE, offset: 0x53C2E4, size: 0x8, addend: 0x0, symName: '__ZN4core3ptr61drop_in_place$LT$alloc..boxed..Box$LT$syn..expr..Expr$GT$$GT$17h01091e47f131475dE', symObjAddr: 0x5B70, symBinAddr: 0x1010D0, symSize: 0x50 }
  - { offsetInCU: 0x30295, offset: 0x53C4BB, size: 0x8, addend: 0x0, symName: '__ZN4core3ptr61drop_in_place$LT$syn..path..ParenthesizedGenericArguments$GT$17h43d4aac5494326a7E', symObjAddr: 0x5BC0, symBinAddr: 0x101120, symSize: 0x170 }
  - { offsetInCU: 0x3085C, offset: 0x53CA82, size: 0x8, addend: 0x0, symName: '__ZN4core3ptr62drop_in_place$LT$syn..path..AngleBracketedGenericArguments$GT$17hc5b69f68243636ddE', symObjAddr: 0x5D50, symBinAddr: 0x101290, symSize: 0x120 }
  - { offsetInCU: 0x30C72, offset: 0x53CE98, size: 0x8, addend: 0x0, symName: '__ZN4core3ptr63drop_in_place$LT$alloc..boxed..Box$LT$syn..lit..LitRepr$GT$$GT$17hd8839b7fb35ee7afE', symObjAddr: 0x5E70, symBinAddr: 0x1013B0, symSize: 0x60 }
  - { offsetInCU: 0x30F67, offset: 0x53D18D, size: 0x8, addend: 0x0, symName: '__ZN4core3ptr64drop_in_place$LT$alloc..boxed..Box$LT$syn..pat..FieldPat$GT$$GT$17h4980b70a7597cc08E', symObjAddr: 0x5ED0, symBinAddr: 0x101410, symSize: 0x140 }
  - { offsetInCU: 0x31612, offset: 0x53D838, size: 0x8, addend: 0x0, symName: '__ZN4core3ptr64drop_in_place$LT$alloc..boxed..Box$LT$syn..ty..BareFnArg$GT$$GT$17h8b34096c620314efE', symObjAddr: 0x6010, symBinAddr: 0x101550, symSize: 0x140 }
  - { offsetInCU: 0x31B36, offset: 0x53DD5C, size: 0x8, addend: 0x0, symName: '__ZN4core3ptr64drop_in_place$LT$alloc..vec..Vec$LT$syn..attr..Attribute$GT$$GT$17h3c8f2a04e701c675E.llvm.14890500243436994185', symObjAddr: 0x6150, symBinAddr: 0x101690, symSize: 0xD0 }
  - { offsetInCU: 0x31DC3, offset: 0x53DFE9, size: 0x8, addend: 0x0, symName: '__ZN4core3ptr65drop_in_place$LT$core..option..Option$LT$syn..expr..Label$GT$$GT$17h78189e72a8cb7951E', symObjAddr: 0x6240, symBinAddr: 0x101760, symSize: 0x30 }
  - { offsetInCU: 0x31EFE, offset: 0x53E124, size: 0x8, addend: 0x0, symName: '__ZN4core3ptr66drop_in_place$LT$core..option..Option$LT$syn..pat..PatRest$GT$$GT$17h61677cf4ff3a7393E', symObjAddr: 0x6270, symBinAddr: 0x101790, symSize: 0xE0 }
  - { offsetInCU: 0x32182, offset: 0x53E3A8, size: 0x8, addend: 0x0, symName: '__ZN4core3ptr67drop_in_place$LT$alloc..boxed..Box$LT$syn..expr..FieldValue$GT$$GT$17h93aaccf8aa22ef88E', symObjAddr: 0x6350, symBinAddr: 0x101870, symSize: 0x140 }
  - { offsetInCU: 0x32686, offset: 0x53E8AC, size: 0x8, addend: 0x0, symName: '__ZN4core3ptr68drop_in_place$LT$alloc..boxed..Box$LT$syn..path..PathSegment$GT$$GT$17h709dabdc13b58a71E', symObjAddr: 0x6490, symBinAddr: 0x1019B0, symSize: 0x190 }
  - { offsetInCU: 0x32D64, offset: 0x53EF8A, size: 0x8, addend: 0x0, symName: '__ZN4core3ptr70drop_in_place$LT$core..option..Option$LT$syn..ty..BareVariadic$GT$$GT$17h45399348ea4b8d55E', symObjAddr: 0x6620, symBinAddr: 0x101B40, symSize: 0x120 }
  - { offsetInCU: 0x33291, offset: 0x53F4B7, size: 0x8, addend: 0x0, symName: '__ZN4core3ptr72drop_in_place$LT$alloc..boxed..Box$LT$syn..path..GenericArgument$GT$$GT$17haa7dd8b716637b54E', symObjAddr: 0x6740, symBinAddr: 0x101C60, symSize: 0x2B0 }
  - { offsetInCU: 0x33C1C, offset: 0x53FE42, size: 0x8, addend: 0x0, symName: '__ZN4core3ptr72drop_in_place$LT$core..option..Option$LT$syn..lifetime..Lifetime$GT$$GT$17hfc363ccdd8bd9c32E', symObjAddr: 0x69F0, symBinAddr: 0x101F10, symSize: 0x30 }
  - { offsetInCU: 0x33D38, offset: 0x53FF5E, size: 0x8, addend: 0x0, symName: '__ZN4core3ptr73drop_in_place$LT$alloc..boxed..Box$LT$syn..generics..GenericParam$GT$$GT$17hf6951dcd5ae07324E.llvm.14890500243436994185', symObjAddr: 0x6A20, symBinAddr: 0x101F40, symSize: 0x80 }
  - { offsetInCU: 0x33EB0, offset: 0x5400D6, size: 0x8, addend: 0x0, symName: '__ZN4core3ptr75drop_in_place$LT$alloc..boxed..Box$LT$syn..generics..TypeParamBound$GT$$GT$17he61c00698a311a34E', symObjAddr: 0x6AA0, symBinAddr: 0x101FC0, symSize: 0x160 }
  - { offsetInCU: 0x34457, offset: 0x54067D, size: 0x8, addend: 0x0, symName: '__ZN4core3ptr75drop_in_place$LT$core..option..Option$LT$syn..generics..WhereClause$GT$$GT$17hdce7670be9790a3dE', symObjAddr: 0x6C00, symBinAddr: 0x102120, symSize: 0x90 }
  - { offsetInCU: 0x3470D, offset: 0x540933, size: 0x8, addend: 0x0, symName: '__ZN4core3ptr86drop_in_place$LT$syn..punctuated..Punctuated$LT$syn..pat..Pat$C$syn..token..Or$GT$$GT$17h8e9173df21a44316E', symObjAddr: 0x6CB0, symBinAddr: 0x1021B0, symSize: 0x120 }
  - { offsetInCU: 0x34B53, offset: 0x540D79, size: 0x8, addend: 0x0, symName: '__ZN4core3ptr87drop_in_place$LT$core..option..Option$LT$alloc..boxed..Box$LT$syn..pat..Pat$GT$$GT$$GT$17hd7b7c69f601b3926E', symObjAddr: 0x6DD0, symBinAddr: 0x1022D0, symSize: 0x50 }
  - { offsetInCU: 0x34CC5, offset: 0x540EEB, size: 0x8, addend: 0x0, symName: '__ZN4core3ptr87drop_in_place$LT$core..option..Option$LT$alloc..boxed..Box$LT$syn..ty..Type$GT$$GT$$GT$17hd74f5d971aec2972E', symObjAddr: 0x6E20, symBinAddr: 0x102320, symSize: 0x50 }
  - { offsetInCU: 0x34E37, offset: 0x54105D, size: 0x8, addend: 0x0, symName: '__ZN4core3ptr89drop_in_place$LT$core..option..Option$LT$alloc..boxed..Box$LT$syn..expr..Expr$GT$$GT$$GT$17h8e135ac1a25a2dc5E', symObjAddr: 0x6E70, symBinAddr: 0x102370, symSize: 0x50 }
  - { offsetInCU: 0x34FE7, offset: 0x54120D, size: 0x8, addend: 0x0, symName: '__ZN4core3ptr89drop_in_place$LT$syn..punctuated..Punctuated$LT$syn..pat..Pat$C$syn..token..Comma$GT$$GT$17h8d60e47f3fb1f87aE', symObjAddr: 0x6EC0, symBinAddr: 0x1023C0, symSize: 0x120 }
  - { offsetInCU: 0x35444, offset: 0x54166A, size: 0x8, addend: 0x0, symName: '__ZN4core3ptr89drop_in_place$LT$syn..punctuated..Punctuated$LT$syn..ty..Type$C$syn..token..Comma$GT$$GT$17ha919b3114742fb9dE', symObjAddr: 0x6FE0, symBinAddr: 0x1024E0, symSize: 0x120 }
  - { offsetInCU: 0x3588E, offset: 0x541AB4, size: 0x8, addend: 0x0, symName: '__ZN4core3ptr90drop_in_place$LT$core..option..Option$LT$syn..path..AngleBracketedGenericArguments$GT$$GT$17h80d9a5f0818c8bd9E', symObjAddr: 0x7100, symBinAddr: 0x102600, symSize: 0x130 }
  - { offsetInCU: 0x35CF9, offset: 0x541F1F, size: 0x8, addend: 0x0, symName: '__ZN4core3ptr91drop_in_place$LT$syn..punctuated..Punctuated$LT$syn..expr..Expr$C$syn..token..Comma$GT$$GT$17h4f39b83dc86a4159E', symObjAddr: 0x7230, symBinAddr: 0x102730, symSize: 0x120 }
  - { offsetInCU: 0x36156, offset: 0x54237C, size: 0x8, addend: 0x0, symName: '__ZN4core3ptr94drop_in_place$LT$syn..punctuated..Punctuated$LT$syn..pat..FieldPat$C$syn..token..Comma$GT$$GT$17h112950ea198c8281E', symObjAddr: 0x7350, symBinAddr: 0x102850, symSize: 0xF0 }
  - { offsetInCU: 0x36420, offset: 0x542646, size: 0x8, addend: 0x0, symName: '__ZN4core3ptr94drop_in_place$LT$syn..punctuated..Punctuated$LT$syn..ty..BareFnArg$C$syn..token..Comma$GT$$GT$17h1c7b44310f06243dE', symObjAddr: 0x7440, symBinAddr: 0x102940, symSize: 0xF0 }
  - { offsetInCU: 0x366EA, offset: 0x542910, size: 0x8, addend: 0x0, symName: '__ZN4core3ptr96drop_in_place$LT$core..option..Option$LT$alloc..boxed..Box$LT$syn..path..PathSegment$GT$$GT$$GT$17hb447d0f626c86a4eE', symObjAddr: 0x7530, symBinAddr: 0x102A30, symSize: 0x90 }
  - { offsetInCU: 0x3696C, offset: 0x542B92, size: 0x8, addend: 0x0, symName: '__ZN4core3ptr97drop_in_place$LT$syn..punctuated..Punctuated$LT$syn..expr..FieldValue$C$syn..token..Comma$GT$$GT$17h31b81f7462228dcbE', symObjAddr: 0x75C0, symBinAddr: 0x102AC0, symSize: 0xF0 }
  - { offsetInCU: 0x36C36, offset: 0x542E5C, size: 0x8, addend: 0x0, symName: '__ZN4core3ptr98drop_in_place$LT$alloc..vec..Vec$LT$$LP$syn..path..GenericArgument$C$syn..token..Comma$RP$$GT$$GT$17h0657ff261f33b640E', symObjAddr: 0x76B0, symBinAddr: 0x102BB0, symSize: 0xD0 }
  - { offsetInCU: 0x36F3F, offset: 0x543165, size: 0x8, addend: 0x0, symName: '__ZN4core3ptr98drop_in_place$LT$syn..punctuated..Punctuated$LT$syn..lifetime..Lifetime$C$syn..token..Plus$GT$$GT$17h0f8fc5f20f465f47E.llvm.14890500243436994185', symObjAddr: 0x7780, symBinAddr: 0x102C80, symSize: 0xC0 }
  - { offsetInCU: 0x3F2D9, offset: 0x54B4FF, size: 0x8, addend: 0x0, symName: __ZN3syn8generics8Generics11type_params17hb9088e2ca60e050aE, symObjAddr: 0x8070, symBinAddr: 0x102D40, symSize: 0x0 }
  - { offsetInCU: 0x3F5B3, offset: 0x54B7D9, size: 0x8, addend: 0x0, symName: __ZN3syn8generics8Generics17make_where_clause17had5dcd5f78f89d9dE, symObjAddr: 0x80E0, symBinAddr: 0x102DB0, symSize: 0x90 }
  - { offsetInCU: 0x40744, offset: 0x54C96A, size: 0x8, addend: 0x0, symName: '__ZN3syn8generics7parsing47_$LT$impl$u20$syn..generics..TypeParamBound$GT$14parse_multiple17h0a18ee52418b5a4eE', symObjAddr: 0xC610, symBinAddr: 0x106650, symSize: 0x560 }
  - { offsetInCU: 0xE75, offset: 0x557690, size: 0x8, addend: 0x0, symName: '__ZN64_$LT$syn..token..Comma$u20$as$u20$quote..to_tokens..ToTokens$GT$9to_tokens17hf0487c9a4ca68d8bE', symObjAddr: 0x5070, symBinAddr: 0x10BD40, symSize: 0x30 }
  - { offsetInCU: 0xEA1, offset: 0x5576BC, size: 0x8, addend: 0x0, symName: '__ZN60_$LT$syn..token..Underscore$u20$as$u20$syn..token..Token$GT$4peek17h789d27f9bb6ea028E', symObjAddr: 0xA30, symBinAddr: 0x10AFD0, symSize: 0x250 }
  - { offsetInCU: 0x16A1, offset: 0x557EBC, size: 0x8, addend: 0x0, symName: '__ZN55_$LT$syn..token..Paren$u20$as$u20$syn..token..Token$GT$4peek17h25e234046af6258dE', symObjAddr: 0xEE0, symBinAddr: 0x10B340, symSize: 0xB0 }
  - { offsetInCU: 0x16F3, offset: 0x557F0E, size: 0x8, addend: 0x0, symName: '__ZN55_$LT$syn..token..Paren$u20$as$u20$syn..token..Token$GT$4peek17h25e234046af6258dE', symObjAddr: 0xEE0, symBinAddr: 0x10B340, symSize: 0xB0 }
  - { offsetInCU: 0x1703, offset: 0x557F1E, size: 0x8, addend: 0x0, symName: '__ZN55_$LT$syn..token..Paren$u20$as$u20$syn..token..Token$GT$4peek17h25e234046af6258dE', symObjAddr: 0xEE0, symBinAddr: 0x10B340, symSize: 0xB0 }
  - { offsetInCU: 0x183B, offset: 0x558056, size: 0x8, addend: 0x0, symName: '__ZN55_$LT$syn..token..Brace$u20$as$u20$syn..token..Token$GT$4peek17ha752276b3db9eb99E', symObjAddr: 0xF90, symBinAddr: 0x10B3F0, symSize: 0xB0 }
  - { offsetInCU: 0x188D, offset: 0x5580A8, size: 0x8, addend: 0x0, symName: '__ZN55_$LT$syn..token..Brace$u20$as$u20$syn..token..Token$GT$4peek17ha752276b3db9eb99E', symObjAddr: 0xF90, symBinAddr: 0x10B3F0, symSize: 0xB0 }
  - { offsetInCU: 0x189D, offset: 0x5580B8, size: 0x8, addend: 0x0, symName: '__ZN55_$LT$syn..token..Brace$u20$as$u20$syn..token..Token$GT$4peek17ha752276b3db9eb99E', symObjAddr: 0xF90, symBinAddr: 0x10B3F0, symSize: 0xB0 }
  - { offsetInCU: 0x19DD, offset: 0x5581F8, size: 0x8, addend: 0x0, symName: '__ZN57_$LT$syn..token..Bracket$u20$as$u20$syn..token..Token$GT$4peek17h3f4b3ccc9e26c654E', symObjAddr: 0x1040, symBinAddr: 0x10B4A0, symSize: 0xB0 }
  - { offsetInCU: 0x1A2F, offset: 0x55824A, size: 0x8, addend: 0x0, symName: '__ZN57_$LT$syn..token..Bracket$u20$as$u20$syn..token..Token$GT$4peek17h3f4b3ccc9e26c654E', symObjAddr: 0x1040, symBinAddr: 0x10B4A0, symSize: 0xB0 }
  - { offsetInCU: 0x1A3F, offset: 0x55825A, size: 0x8, addend: 0x0, symName: '__ZN57_$LT$syn..token..Bracket$u20$as$u20$syn..token..Token$GT$4peek17h3f4b3ccc9e26c654E', symObjAddr: 0x1040, symBinAddr: 0x10B4A0, symSize: 0xB0 }
  - { offsetInCU: 0x1BAC, offset: 0x5583C7, size: 0x8, addend: 0x0, symName: '__ZN52_$LT$syn..token..As$u20$as$u20$syn..parse..Parse$GT$5parse17h85019d46556fbac3E', symObjAddr: 0x1350, symBinAddr: 0x10B550, symSize: 0x60 }
  - { offsetInCU: 0x1C60, offset: 0x55847B, size: 0x8, addend: 0x0, symName: '__ZN55_$LT$syn..token..Async$u20$as$u20$syn..token..Token$GT$4peek17h7ff0a4a69488c77fE', symObjAddr: 0x14D0, symBinAddr: 0x10B5B0, symSize: 0x20 }
  - { offsetInCU: 0x1C96, offset: 0x5584B1, size: 0x8, addend: 0x0, symName: '__ZN54_$LT$syn..token..Auto$u20$as$u20$syn..token..Token$GT$4peek17hebee82bb54c38895E', symObjAddr: 0x15F0, symBinAddr: 0x10B5D0, symSize: 0x20 }
  - { offsetInCU: 0x1D26, offset: 0x558541, size: 0x8, addend: 0x0, symName: '__ZN55_$LT$syn..token..Const$u20$as$u20$syn..parse..Parse$GT$5parse17h46c6cc59779da60bE', symObjAddr: 0x1B30, symBinAddr: 0x10B5F0, symSize: 0x60 }
  - { offsetInCU: 0x1DAD, offset: 0x5585C8, size: 0x8, addend: 0x0, symName: '__ZN55_$LT$syn..token..Const$u20$as$u20$syn..token..Token$GT$4peek17h2d7d2aba6f15afccE', symObjAddr: 0x1B90, symBinAddr: 0x10B650, symSize: 0x20 }
  - { offsetInCU: 0x1DE3, offset: 0x5585FE, size: 0x8, addend: 0x0, symName: '__ZN55_$LT$syn..token..Crate$u20$as$u20$syn..token..Token$GT$4peek17hd3ff9f9064291857E', symObjAddr: 0x1DD0, symBinAddr: 0x10B670, symSize: 0x20 }
  - { offsetInCU: 0x1E19, offset: 0x558634, size: 0x8, addend: 0x0, symName: '__ZN53_$LT$syn..token..Dyn$u20$as$u20$syn..parse..Parse$GT$5parse17hd552992672026ee9E', symObjAddr: 0x20D0, symBinAddr: 0x10B690, symSize: 0x60 }
  - { offsetInCU: 0x1EA0, offset: 0x5586BB, size: 0x8, addend: 0x0, symName: '__ZN54_$LT$syn..token..Else$u20$as$u20$syn..parse..Parse$GT$5parse17h2b2f89d9de8133a6E', symObjAddr: 0x21F0, symBinAddr: 0x10B6F0, symSize: 0x60 }
  - { offsetInCU: 0x1F27, offset: 0x558742, size: 0x8, addend: 0x0, symName: '__ZN54_$LT$syn..token..Enum$u20$as$u20$syn..token..Token$GT$4peek17h70f8ca6d0a57ae7cE', symObjAddr: 0x2370, symBinAddr: 0x10B750, symSize: 0x20 }
  - { offsetInCU: 0x1F5D, offset: 0x558778, size: 0x8, addend: 0x0, symName: '__ZN56_$LT$syn..token..Extern$u20$as$u20$syn..token..Token$GT$4peek17h0a1088e1ed9ac636E', symObjAddr: 0x2490, symBinAddr: 0x10B770, symSize: 0x20 }
  - { offsetInCU: 0x1F93, offset: 0x5587AE, size: 0x8, addend: 0x0, symName: '__ZN52_$LT$syn..token..Fn$u20$as$u20$syn..parse..Parse$GT$5parse17hbae4b7e03a0010e0E', symObjAddr: 0x2670, symBinAddr: 0x10B790, symSize: 0x60 }
  - { offsetInCU: 0x201A, offset: 0x558835, size: 0x8, addend: 0x0, symName: '__ZN52_$LT$syn..token..Fn$u20$as$u20$syn..token..Token$GT$4peek17hc7676a7b46f9ffb9E', symObjAddr: 0x26D0, symBinAddr: 0x10B7F0, symSize: 0x20 }
  - { offsetInCU: 0x207D, offset: 0x558898, size: 0x8, addend: 0x0, symName: '__ZN53_$LT$syn..token..For$u20$as$u20$syn..parse..Parse$GT$5parse17h7830b2807da6697cE', symObjAddr: 0x2790, symBinAddr: 0x10B810, symSize: 0x60 }
  - { offsetInCU: 0x2104, offset: 0x55891F, size: 0x8, addend: 0x0, symName: '__ZN54_$LT$syn..token..Impl$u20$as$u20$syn..token..Token$GT$4peek17h1bc8c1a17a8ac247E', symObjAddr: 0x2A30, symBinAddr: 0x10B870, symSize: 0x20 }
  - { offsetInCU: 0x2167, offset: 0x558982, size: 0x8, addend: 0x0, symName: '__ZN52_$LT$syn..token..In$u20$as$u20$syn..parse..Parse$GT$5parse17hec49a7644160a01eE', symObjAddr: 0x2AF0, symBinAddr: 0x10B890, symSize: 0x60 }
  - { offsetInCU: 0x2248, offset: 0x558A63, size: 0x8, addend: 0x0, symName: '__ZN55_$LT$syn..token..Macro$u20$as$u20$syn..token..Token$GT$4peek17h6210815ff705b39aE', symObjAddr: 0x2EB0, symBinAddr: 0x10B8F0, symSize: 0x20 }
  - { offsetInCU: 0x22AB, offset: 0x558AC6, size: 0x8, addend: 0x0, symName: '__ZN53_$LT$syn..token..Mod$u20$as$u20$syn..token..Token$GT$4peek17hbe008020d570fc7bE', symObjAddr: 0x30F0, symBinAddr: 0x10B910, symSize: 0x20 }
  - { offsetInCU: 0x230E, offset: 0x558B29, size: 0x8, addend: 0x0, symName: '__ZN54_$LT$syn..token..Move$u20$as$u20$syn..token..Token$GT$4peek17h64855903f4cc82c7E', symObjAddr: 0x3210, symBinAddr: 0x10B930, symSize: 0x20 }
  - { offsetInCU: 0x2371, offset: 0x558B8C, size: 0x8, addend: 0x0, symName: '__ZN53_$LT$syn..token..Mut$u20$as$u20$syn..token..Token$GT$4peek17hfa3b784a7986bc45E', symObjAddr: 0x3330, symBinAddr: 0x10B950, symSize: 0x20 }
  - { offsetInCU: 0x23D4, offset: 0x558BEF, size: 0x8, addend: 0x0, symName: '__ZN53_$LT$syn..token..Ref$u20$as$u20$syn..token..Token$GT$4peek17h767951e2892cf942E', symObjAddr: 0x37B0, symBinAddr: 0x10B970, symSize: 0x20 }
  - { offsetInCU: 0x240A, offset: 0x558C25, size: 0x8, addend: 0x0, symName: '__ZN58_$LT$syn..token..SelfType$u20$as$u20$syn..token..Token$GT$4peek17h0c0bc843190daad6E', symObjAddr: 0x39F0, symBinAddr: 0x10B990, symSize: 0x20 }
  - { offsetInCU: 0x2440, offset: 0x558C5B, size: 0x8, addend: 0x0, symName: '__ZN59_$LT$syn..token..SelfValue$u20$as$u20$syn..parse..Parse$GT$5parse17h051d3709124c46d9E', symObjAddr: 0x3AB0, symBinAddr: 0x10B9B0, symSize: 0x60 }
  - { offsetInCU: 0x24C7, offset: 0x558CE2, size: 0x8, addend: 0x0, symName: '__ZN59_$LT$syn..token..SelfValue$u20$as$u20$syn..token..Token$GT$4peek17h50318bcccdb91ecaE', symObjAddr: 0x3B10, symBinAddr: 0x10BA10, symSize: 0x20 }
  - { offsetInCU: 0x24FD, offset: 0x558D18, size: 0x8, addend: 0x0, symName: '__ZN56_$LT$syn..token..Static$u20$as$u20$syn..parse..Parse$GT$5parse17h5bb5f7745c7fe15eE', symObjAddr: 0x3BD0, symBinAddr: 0x10BA30, symSize: 0x60 }
  - { offsetInCU: 0x2584, offset: 0x558D9F, size: 0x8, addend: 0x0, symName: '__ZN56_$LT$syn..token..Static$u20$as$u20$syn..token..Token$GT$4peek17he4be23aaf817aacaE', symObjAddr: 0x3C30, symBinAddr: 0x10BA90, symSize: 0x20 }
  - { offsetInCU: 0x25BA, offset: 0x558DD5, size: 0x8, addend: 0x0, symName: '__ZN56_$LT$syn..token..Struct$u20$as$u20$syn..token..Token$GT$4peek17h19827cbab69b1623E', symObjAddr: 0x3D50, symBinAddr: 0x10BAB0, symSize: 0x20 }
  - { offsetInCU: 0x25F0, offset: 0x558E0B, size: 0x8, addend: 0x0, symName: '__ZN55_$LT$syn..token..Super$u20$as$u20$syn..token..Token$GT$4peek17h275967d5b34f27d3E', symObjAddr: 0x3E70, symBinAddr: 0x10BAD0, symSize: 0x20 }
  - { offsetInCU: 0x2626, offset: 0x558E41, size: 0x8, addend: 0x0, symName: '__ZN55_$LT$syn..token..Trait$u20$as$u20$syn..token..Token$GT$4peek17h02f104e1d9e561e9E', symObjAddr: 0x3F90, symBinAddr: 0x10BAF0, symSize: 0x20 }
  - { offsetInCU: 0x2689, offset: 0x558EA4, size: 0x8, addend: 0x0, symName: '__ZN53_$LT$syn..token..Try$u20$as$u20$syn..token..Token$GT$4peek17had59752cb32497b6E', symObjAddr: 0x40B0, symBinAddr: 0x10BB10, symSize: 0x20 }
  - { offsetInCU: 0x26BF, offset: 0x558EDA, size: 0x8, addend: 0x0, symName: '__ZN54_$LT$syn..token..Type$u20$as$u20$syn..token..Token$GT$4peek17hd609b66210c77b34E', symObjAddr: 0x41D0, symBinAddr: 0x10BB30, symSize: 0x20 }
  - { offsetInCU: 0x26F5, offset: 0x558F10, size: 0x8, addend: 0x0, symName: '__ZN55_$LT$syn..token..Union$u20$as$u20$syn..token..Token$GT$4peek17h95e4cdd0419c4cc2E', symObjAddr: 0x4410, symBinAddr: 0x10BB50, symSize: 0x20 }
  - { offsetInCU: 0x2758, offset: 0x558F73, size: 0x8, addend: 0x0, symName: '__ZN56_$LT$syn..token..Unsafe$u20$as$u20$syn..parse..Parse$GT$5parse17hba2df29f6bec55cdE', symObjAddr: 0x44D0, symBinAddr: 0x10BB70, symSize: 0x60 }
  - { offsetInCU: 0x27DF, offset: 0x558FFA, size: 0x8, addend: 0x0, symName: '__ZN56_$LT$syn..token..Unsafe$u20$as$u20$syn..token..Token$GT$4peek17h5bb5d41f3ab3faf1E', symObjAddr: 0x4530, symBinAddr: 0x10BBD0, symSize: 0x20 }
  - { offsetInCU: 0x2815, offset: 0x559030, size: 0x8, addend: 0x0, symName: '__ZN53_$LT$syn..token..Use$u20$as$u20$syn..token..Token$GT$4peek17hb629dd0a0c930e39E', symObjAddr: 0x4770, symBinAddr: 0x10BBF0, symSize: 0x20 }
  - { offsetInCU: 0x28A5, offset: 0x5590C0, size: 0x8, addend: 0x0, symName: '__ZN53_$LT$syn..token..And$u20$as$u20$syn..parse..Parse$GT$5parse17h5b38fc9651d95e98E', symObjAddr: 0x4C40, symBinAddr: 0x10BC10, symSize: 0x50 }
  - { offsetInCU: 0x2907, offset: 0x559122, size: 0x8, addend: 0x0, symName: '__ZN53_$LT$syn..token..And$u20$as$u20$syn..token..Token$GT$4peek17h977f39081b12fb5aE', symObjAddr: 0x4C90, symBinAddr: 0x10BC60, symSize: 0x20 }
  - { offsetInCU: 0x293D, offset: 0x559158, size: 0x8, addend: 0x0, symName: '__ZN55_$LT$syn..token..Caret$u20$as$u20$syn..parse..Parse$GT$5parse17h985441110bef27beE', symObjAddr: 0x4EC0, symBinAddr: 0x10BC80, symSize: 0x50 }
  - { offsetInCU: 0x29CC, offset: 0x5591E7, size: 0x8, addend: 0x0, symName: '__ZN55_$LT$syn..token..Colon$u20$as$u20$syn..parse..Parse$GT$5parse17hb173b91a971bef7cE', symObjAddr: 0x5000, symBinAddr: 0x10BCD0, symSize: 0x50 }
  - { offsetInCU: 0x2A2E, offset: 0x559249, size: 0x8, addend: 0x0, symName: '__ZN55_$LT$syn..token..Colon$u20$as$u20$syn..token..Token$GT$4peek17hda082e4f86b2eba7E', symObjAddr: 0x5050, symBinAddr: 0x10BD20, symSize: 0x20 }
  - { offsetInCU: 0x2A64, offset: 0x55927F, size: 0x8, addend: 0x0, symName: '__ZN55_$LT$syn..token..Comma$u20$as$u20$syn..parse..Parse$GT$5parse17hd6bc62bc2c71a22aE', symObjAddr: 0x50A0, symBinAddr: 0x10BD70, symSize: 0x50 }
  - { offsetInCU: 0x2AC6, offset: 0x5592E1, size: 0x8, addend: 0x0, symName: '__ZN55_$LT$syn..token..Comma$u20$as$u20$syn..token..Token$GT$4peek17h35a333ecf294aee4E', symObjAddr: 0x50F0, symBinAddr: 0x10BDC0, symSize: 0x20 }
  - { offsetInCU: 0x2B29, offset: 0x559344, size: 0x8, addend: 0x0, symName: '__ZN53_$LT$syn..token..Dot$u20$as$u20$syn..token..Token$GT$4peek17h6d86fbdab90dfe7fE', symObjAddr: 0x5230, symBinAddr: 0x10BDE0, symSize: 0x20 }
  - { offsetInCU: 0x2B8C, offset: 0x5593A7, size: 0x8, addend: 0x0, symName: '__ZN56_$LT$syn..token..DotDot$u20$as$u20$syn..token..Token$GT$4peek17hd3bd5b93702b4330E', symObjAddr: 0x52D0, symBinAddr: 0x10BE00, symSize: 0x20 }
  - { offsetInCU: 0x2BC2, offset: 0x5593DD, size: 0x8, addend: 0x0, symName: '__ZN59_$LT$syn..token..DotDotDot$u20$as$u20$syn..token..Token$GT$4peek17hb44c133be230bd96E', symObjAddr: 0x5390, symBinAddr: 0x10BE20, symSize: 0x20 }
  - { offsetInCU: 0x2BF8, offset: 0x559413, size: 0x8, addend: 0x0, symName: '__ZN58_$LT$syn..token..DotDotEq$u20$as$u20$syn..token..Token$GT$4peek17h2fee0dc9b1a6aabeE', symObjAddr: 0x5450, symBinAddr: 0x10BE40, symSize: 0x20 }
  - { offsetInCU: 0x2C5B, offset: 0x559476, size: 0x8, addend: 0x0, symName: '__ZN52_$LT$syn..token..Eq$u20$as$u20$syn..parse..Parse$GT$5parse17h9bd44d98b4fba545E', symObjAddr: 0x54A0, symBinAddr: 0x10BE60, symSize: 0x50 }
  - { offsetInCU: 0x2CBD, offset: 0x5594D8, size: 0x8, addend: 0x0, symName: '__ZN52_$LT$syn..token..Eq$u20$as$u20$syn..token..Token$GT$4peek17hfd0450a878fd20a5E', symObjAddr: 0x54F0, symBinAddr: 0x10BEB0, symSize: 0x20 }
  - { offsetInCU: 0x2CF3, offset: 0x55950E, size: 0x8, addend: 0x0, symName: '__ZN52_$LT$syn..token..Gt$u20$as$u20$syn..parse..Parse$GT$5parse17h280d30dfd0ec0e88E', symObjAddr: 0x5720, symBinAddr: 0x10BED0, symSize: 0x50 }
  - { offsetInCU: 0x2D55, offset: 0x559570, size: 0x8, addend: 0x0, symName: '__ZN52_$LT$syn..token..Gt$u20$as$u20$syn..token..Token$GT$4peek17hbf38b1119d014050E', symObjAddr: 0x5770, symBinAddr: 0x10BF20, symSize: 0x20 }
  - { offsetInCU: 0x2D8B, offset: 0x5595A6, size: 0x8, addend: 0x0, symName: '__ZN52_$LT$syn..token..Lt$u20$as$u20$syn..parse..Parse$GT$5parse17he341b95b06e78275E', symObjAddr: 0x5900, symBinAddr: 0x10BF40, symSize: 0x50 }
  - { offsetInCU: 0x2DED, offset: 0x559608, size: 0x8, addend: 0x0, symName: '__ZN52_$LT$syn..token..Lt$u20$as$u20$syn..token..Token$GT$4peek17h5fc3809859b7b5faE', symObjAddr: 0x5950, symBinAddr: 0x10BF90, symSize: 0x20 }
  - { offsetInCU: 0x2E23, offset: 0x55963E, size: 0x8, addend: 0x0, symName: '__ZN55_$LT$syn..token..Minus$u20$as$u20$syn..parse..Parse$GT$5parse17h477a6d776dd7b43dE', symObjAddr: 0x59A0, symBinAddr: 0x10BFB0, symSize: 0x50 }
  - { offsetInCU: 0x2EB2, offset: 0x5596CD, size: 0x8, addend: 0x0, symName: '__ZN53_$LT$syn..token..Not$u20$as$u20$syn..parse..Parse$GT$5parse17hed95949511af2130E', symObjAddr: 0x5B80, symBinAddr: 0x10C000, symSize: 0x50 }
  - { offsetInCU: 0x2F14, offset: 0x55972F, size: 0x8, addend: 0x0, symName: '__ZN53_$LT$syn..token..Not$u20$as$u20$syn..token..Token$GT$4peek17hc7242dbe39d2cc52E', symObjAddr: 0x5BD0, symBinAddr: 0x10C050, symSize: 0x20 }
  - { offsetInCU: 0x2F4A, offset: 0x559765, size: 0x8, addend: 0x0, symName: '__ZN52_$LT$syn..token..Or$u20$as$u20$syn..parse..Parse$GT$5parse17h9e4bc6c60c89d717E', symObjAddr: 0x5C20, symBinAddr: 0x10C070, symSize: 0x50 }
  - { offsetInCU: 0x2FAC, offset: 0x5597C7, size: 0x8, addend: 0x0, symName: '__ZN52_$LT$syn..token..Or$u20$as$u20$syn..token..Token$GT$4peek17hab4246a0272ea64dE', symObjAddr: 0x5C70, symBinAddr: 0x10C0C0, symSize: 0x20 }
  - { offsetInCU: 0x2FE2, offset: 0x5597FD, size: 0x8, addend: 0x0, symName: '__ZN57_$LT$syn..token..PathSep$u20$as$u20$syn..token..Token$GT$4peek17ha2b30e581acdbebaE', symObjAddr: 0x5E50, symBinAddr: 0x10C0E0, symSize: 0x20 }
  - { offsetInCU: 0x3018, offset: 0x559833, size: 0x8, addend: 0x0, symName: '__ZN57_$LT$syn..token..Percent$u20$as$u20$syn..parse..Parse$GT$5parse17h011c51e35c593cf7E', symObjAddr: 0x5EA0, symBinAddr: 0x10C100, symSize: 0x50 }
  - { offsetInCU: 0x307A, offset: 0x559895, size: 0x8, addend: 0x0, symName: '__ZN54_$LT$syn..token..Plus$u20$as$u20$syn..parse..Parse$GT$5parse17hedad1693d91826e0E', symObjAddr: 0x5FE0, symBinAddr: 0x10C150, symSize: 0x50 }
  - { offsetInCU: 0x3109, offset: 0x559924, size: 0x8, addend: 0x0, symName: '__ZN55_$LT$syn..token..Pound$u20$as$u20$syn..token..Token$GT$4peek17hd045620e0630b5b3E', symObjAddr: 0x6170, symBinAddr: 0x10C1A0, symSize: 0x20 }
  - { offsetInCU: 0x316C, offset: 0x559987, size: 0x8, addend: 0x0, symName: '__ZN58_$LT$syn..token..Question$u20$as$u20$syn..token..Token$GT$4peek17h40ab090367cab48aE', symObjAddr: 0x6210, symBinAddr: 0x10C1C0, symSize: 0x20 }
  - { offsetInCU: 0x31CF, offset: 0x5599EA, size: 0x8, addend: 0x0, symName: '__ZN54_$LT$syn..token..Semi$u20$as$u20$syn..parse..Parse$GT$5parse17h5db424d26dfe3d07E', symObjAddr: 0x6300, symBinAddr: 0x10C1E0, symSize: 0x50 }
  - { offsetInCU: 0x3231, offset: 0x559A4C, size: 0x8, addend: 0x0, symName: '__ZN54_$LT$syn..token..Semi$u20$as$u20$syn..token..Token$GT$4peek17h5a07d3e2a049fb01E', symObjAddr: 0x6350, symBinAddr: 0x10C230, symSize: 0x20 }
  - { offsetInCU: 0x3267, offset: 0x559A82, size: 0x8, addend: 0x0, symName: '__ZN55_$LT$syn..token..ShlEq$u20$as$u20$syn..parse..Parse$GT$5parse17h0c287701508b04adE', symObjAddr: 0x6440, symBinAddr: 0x10C250, symSize: 0x70 }
  - { offsetInCU: 0x331C, offset: 0x559B37, size: 0x8, addend: 0x0, symName: '__ZN55_$LT$syn..token..ShrEq$u20$as$u20$syn..parse..Parse$GT$5parse17h2537afed55ecadcaE', symObjAddr: 0x65A0, symBinAddr: 0x10C2C0, symSize: 0x70 }
  - { offsetInCU: 0x33D1, offset: 0x559BEC, size: 0x8, addend: 0x0, symName: '__ZN55_$LT$syn..token..Slash$u20$as$u20$syn..parse..Parse$GT$5parse17hd6cbb0af0be5e420E', symObjAddr: 0x6660, symBinAddr: 0x10C330, symSize: 0x50 }
  - { offsetInCU: 0x3433, offset: 0x559C4E, size: 0x8, addend: 0x0, symName: '__ZN54_$LT$syn..token..Star$u20$as$u20$syn..parse..Parse$GT$5parse17hd453253e4a2951caE', symObjAddr: 0x67A0, symBinAddr: 0x10C380, symSize: 0x50 }
  - { offsetInCU: 0x3495, offset: 0x559CB0, size: 0x8, addend: 0x0, symName: '__ZN54_$LT$syn..token..Star$u20$as$u20$syn..token..Token$GT$4peek17h0f086c1ea8af6077E', symObjAddr: 0x67F0, symBinAddr: 0x10C3D0, symSize: 0x20 }
  - { offsetInCU: 0x34CB, offset: 0x559CE6, size: 0x8, addend: 0x0, symName: '__ZN57_$LT$syn..token..At$u20$as$u20$core..default..Default$GT$7default17h00b388c888b463ceE', symObjAddr: 0x69B0, symBinAddr: 0x10C3F0, symSize: 0x0 }
  - { offsetInCU: 0xA21C, offset: 0x560A37, size: 0x8, addend: 0x0, symName: '__ZN4core3ptr45drop_in_place$LT$proc_macro2..TokenStream$GT$17h3405f6c513e9f6cbE.llvm.7833956513218213385', symObjAddr: 0x730, symBinAddr: 0x10AE90, symSize: 0x140 }
  - { offsetInCU: 0xFBA3, offset: 0x5663BE, size: 0x8, addend: 0x0, symName: __ZN3syn5token5Group8surround17hfbe81a72805f5875E, symObjAddr: 0xDC0, symBinAddr: 0x10B220, symSize: 0x120 }
  - { offsetInCU: 0xFE37, offset: 0x566652, size: 0x8, addend: 0x0, symName: __ZN3syn5token5Brace8surround17h1609b6061f8050acE, symObjAddr: 0x72E0, symBinAddr: 0x10C400, symSize: 0x1A0 }
  - { offsetInCU: 0x1034E, offset: 0x566B69, size: 0x8, addend: 0x0, symName: __ZN3syn5token5Brace8surround17h1616ad3374cfb32bE, symObjAddr: 0x7480, symBinAddr: 0x10C5A0, symSize: 0x250 }
  - { offsetInCU: 0x107F4, offset: 0x56700F, size: 0x8, addend: 0x0, symName: __ZN3syn5token5Brace8surround17h1d2920be538b3d67E, symObjAddr: 0x76D0, symBinAddr: 0x10C7F0, symSize: 0x230 }
  - { offsetInCU: 0x10C43, offset: 0x56745E, size: 0x8, addend: 0x0, symName: __ZN3syn5token5Brace8surround17h2f7384e739db3158E, symObjAddr: 0x7900, symBinAddr: 0x10CA20, symSize: 0x250 }
  - { offsetInCU: 0x110DC, offset: 0x5678F7, size: 0x8, addend: 0x0, symName: __ZN3syn5token5Brace8surround17h3cea1965078b46e8E, symObjAddr: 0x7B50, symBinAddr: 0x10CC70, symSize: 0x230 }
  - { offsetInCU: 0x11614, offset: 0x567E2F, size: 0x8, addend: 0x0, symName: __ZN3syn5token5Brace8surround17h44f34f1ab411b35eE, symObjAddr: 0x7D80, symBinAddr: 0x10CEA0, symSize: 0x150 }
  - { offsetInCU: 0x118FE, offset: 0x568119, size: 0x8, addend: 0x0, symName: __ZN3syn5token5Brace8surround17h4f53dfd33b0aa4c6E, symObjAddr: 0x7ED0, symBinAddr: 0x10CFF0, symSize: 0x230 }
  - { offsetInCU: 0x11E43, offset: 0x56865E, size: 0x8, addend: 0x0, symName: __ZN3syn5token5Brace8surround17h658cc35944b0b219E, symObjAddr: 0x8100, symBinAddr: 0x10D220, symSize: 0x130 }
  - { offsetInCU: 0x12086, offset: 0x5688A1, size: 0x8, addend: 0x0, symName: __ZN3syn5token5Brace8surround17h67ec14ac595125f5E, symObjAddr: 0x8230, symBinAddr: 0x10D350, symSize: 0x460 }
  - { offsetInCU: 0x12CBB, offset: 0x5694D6, size: 0x8, addend: 0x0, symName: __ZN3syn5token5Brace8surround17h830f66792d95d6a1E, symObjAddr: 0x8690, symBinAddr: 0x10D7B0, symSize: 0x190 }
  - { offsetInCU: 0x12F55, offset: 0x569770, size: 0x8, addend: 0x0, symName: __ZN3syn5token5Brace8surround17h93d6e9c0e4ef6056E, symObjAddr: 0x8820, symBinAddr: 0x10D940, symSize: 0x0 }
  - { offsetInCU: 0x13489, offset: 0x569CA4, size: 0x8, addend: 0x0, symName: __ZN3syn5token5Brace8surround17h9a2e80ca99906d35E, symObjAddr: 0x8A50, symBinAddr: 0x10DB70, symSize: 0x0 }
  - { offsetInCU: 0x13727, offset: 0x569F42, size: 0x8, addend: 0x0, symName: __ZN3syn5token5Brace8surround17hb0c8276345dde1c2E, symObjAddr: 0x8BD0, symBinAddr: 0x10DCF0, symSize: 0x1B0 }
  - { offsetInCU: 0x13C1A, offset: 0x56A435, size: 0x8, addend: 0x0, symName: __ZN3syn5token5Brace8surround17hb63569a8d18b567dE, symObjAddr: 0x8D80, symBinAddr: 0x10DEA0, symSize: 0x230 }
  - { offsetInCU: 0x140AA, offset: 0x56A8C5, size: 0x8, addend: 0x0, symName: __ZN3syn5token5Brace8surround17hc53934dc4c14330eE, symObjAddr: 0x8FB0, symBinAddr: 0x10E0D0, symSize: 0x460 }
  - { offsetInCU: 0x14AAD, offset: 0x56B2C8, size: 0x8, addend: 0x0, symName: __ZN3syn5token5Brace8surround17hd5a84cf97badd42dE, symObjAddr: 0x9410, symBinAddr: 0x10E530, symSize: 0x230 }
  - { offsetInCU: 0x14FF2, offset: 0x56B80D, size: 0x8, addend: 0x0, symName: __ZN3syn5token5Brace8surround17hd63b1effe05f3546E, symObjAddr: 0x9640, symBinAddr: 0x10E760, symSize: 0x250 }
  - { offsetInCU: 0x1548B, offset: 0x56BCA6, size: 0x8, addend: 0x0, symName: __ZN3syn5token5Brace8surround17hdb4abaf7d4aba6dfE, symObjAddr: 0x9890, symBinAddr: 0x10E9B0, symSize: 0x230 }
  - { offsetInCU: 0x15922, offset: 0x56C13D, size: 0x8, addend: 0x0, symName: __ZN3syn5token5Brace8surround17hdca5a0a12cc0e09cE, symObjAddr: 0x9AC0, symBinAddr: 0x10EBE0, symSize: 0x250 }
  - { offsetInCU: 0x15E33, offset: 0x56C64E, size: 0x8, addend: 0x0, symName: __ZN3syn5token5Brace8surround17he90b59b4e7ee997dE, symObjAddr: 0x9D10, symBinAddr: 0x10EE30, symSize: 0x170 }
  - { offsetInCU: 0x160E9, offset: 0x56C904, size: 0x8, addend: 0x0, symName: __ZN3syn5token5Brace8surround17hecd06f1637cbfb86E, symObjAddr: 0x9E80, symBinAddr: 0x10EFA0, symSize: 0x230 }
  - { offsetInCU: 0x1670A, offset: 0x56CF25, size: 0x8, addend: 0x0, symName: __ZN3syn5token5Brace8surround17hf04846c82ffc2b75E, symObjAddr: 0xA0B0, symBinAddr: 0x10F1D0, symSize: 0x280 }
  - { offsetInCU: 0x16C8C, offset: 0x56D4A7, size: 0x8, addend: 0x0, symName: __ZN3syn5token7Bracket8surround17h156a64f8715fd9d7E, symObjAddr: 0xA350, symBinAddr: 0x10F450, symSize: 0x190 }
  - { offsetInCU: 0x16EE3, offset: 0x56D6FE, size: 0x8, addend: 0x0, symName: __ZN3syn5token7Bracket8surround17h3268c628a093763bE, symObjAddr: 0xA4E0, symBinAddr: 0x10F5E0, symSize: 0x160 }
  - { offsetInCU: 0x17156, offset: 0x56D971, size: 0x8, addend: 0x0, symName: __ZN3syn5token7Bracket8surround17h59b80e5c4f1e2536E, symObjAddr: 0xA640, symBinAddr: 0x10F740, symSize: 0x1A0 }
  - { offsetInCU: 0x1762A, offset: 0x56DE45, size: 0x8, addend: 0x0, symName: __ZN3syn5token7Bracket8surround17h666da6b44b8f2314E, symObjAddr: 0xA7E0, symBinAddr: 0x10F8E0, symSize: 0x130 }
  - { offsetInCU: 0x1785C, offset: 0x56E077, size: 0x8, addend: 0x0, symName: __ZN3syn5token7Bracket8surround17he461d4c5258c6ed9E, symObjAddr: 0xAAB0, symBinAddr: 0x10FA10, symSize: 0x130 }
  - { offsetInCU: 0x17A65, offset: 0x56E280, size: 0x8, addend: 0x0, symName: __ZN3syn5token7Bracket8surround17hf2f56b7ec8e6cdfdE, symObjAddr: 0xABE0, symBinAddr: 0x10FB40, symSize: 0x150 }
  - { offsetInCU: 0x17D96, offset: 0x56E5B1, size: 0x8, addend: 0x0, symName: __ZN3syn5token5Paren8surround17h149d374eeacaaaf0E, symObjAddr: 0xAE80, symBinAddr: 0x10FC90, symSize: 0x360 }
  - { offsetInCU: 0x1874A, offset: 0x56EF65, size: 0x8, addend: 0x0, symName: __ZN3syn5token5Paren8surround17h17edd0d0ba5e5361E, symObjAddr: 0xB1E0, symBinAddr: 0x10FFF0, symSize: 0x160 }
  - { offsetInCU: 0x18A7C, offset: 0x56F297, size: 0x8, addend: 0x0, symName: __ZN3syn5token5Paren8surround17h2a820c17fc4ce3a7E, symObjAddr: 0xB340, symBinAddr: 0x110150, symSize: 0x210 }
  - { offsetInCU: 0x18FDE, offset: 0x56F7F9, size: 0x8, addend: 0x0, symName: __ZN3syn5token5Paren8surround17h618017ebbb591ce6E, symObjAddr: 0xB550, symBinAddr: 0x110360, symSize: 0x1A0 }
  - { offsetInCU: 0x19539, offset: 0x56FD54, size: 0x8, addend: 0x0, symName: __ZN3syn5token5Paren8surround17haf0fe92dddd4f436E, symObjAddr: 0xB930, symBinAddr: 0x110500, symSize: 0x210 }
  - { offsetInCU: 0x19A96, offset: 0x5702B1, size: 0x8, addend: 0x0, symName: __ZN3syn5token5Paren8surround17hb26de38efb8247a2E, symObjAddr: 0xBB40, symBinAddr: 0x110710, symSize: 0x130 }
  - { offsetInCU: 0x19C6D, offset: 0x570488, size: 0x8, addend: 0x0, symName: __ZN3syn5token5Paren8surround17hb614c327a7c4effbE, symObjAddr: 0xBC70, symBinAddr: 0x110840, symSize: 0x130 }
  - { offsetInCU: 0x19E71, offset: 0x57068C, size: 0x8, addend: 0x0, symName: __ZN3syn5token5Paren8surround17hb72c32fa2faca43dE, symObjAddr: 0xBDA0, symBinAddr: 0x110970, symSize: 0x120 }
  - { offsetInCU: 0x1A07A, offset: 0x570895, size: 0x8, addend: 0x0, symName: __ZN3syn5token5Paren8surround17hbc9cea44f84e7c35E, symObjAddr: 0xBEC0, symBinAddr: 0x110A90, symSize: 0x460 }
  - { offsetInCU: 0x1AA7D, offset: 0x571298, size: 0x8, addend: 0x0, symName: __ZN3syn5token5Paren8surround17hbe460fe33e1b9807E, symObjAddr: 0xC320, symBinAddr: 0x110EF0, symSize: 0x1A0 }
  - { offsetInCU: 0x1AF53, offset: 0x57176E, size: 0x8, addend: 0x0, symName: __ZN3syn5token5Paren8surround17hd6561f4009004b42E, symObjAddr: 0xC660, symBinAddr: 0x111090, symSize: 0x120 }
  - { offsetInCU: 0x1B15C, offset: 0x571977, size: 0x8, addend: 0x0, symName: __ZN3syn5token5Paren8surround17he038d9e0318c7237E, symObjAddr: 0xC780, symBinAddr: 0x1111B0, symSize: 0x1A0 }
  - { offsetInCU: 0x1B6E3, offset: 0x571EFE, size: 0x8, addend: 0x0, symName: __ZN3syn5token5Paren8surround17he1dbac95a537a101E, symObjAddr: 0xC920, symBinAddr: 0x111350, symSize: 0x230 }
  - { offsetInCU: 0x1BEE7, offset: 0x572702, size: 0x8, addend: 0x0, symName: __ZN3syn5token5Paren8surround17he21459b4274789cfE, symObjAddr: 0xCB50, symBinAddr: 0x111580, symSize: 0x27B0 }
  - { offsetInCU: 0x219CB, offset: 0x5781E6, size: 0x8, addend: 0x0, symName: __ZN3syn5token5Paren8surround17hf739ea3e87afa242E, symObjAddr: 0xF300, symBinAddr: 0x113D30, symSize: 0x260 }
  - { offsetInCU: 0x2209E, offset: 0x5788B9, size: 0x8, addend: 0x0, symName: __ZN3syn5token5Paren8surround17hfdecddc10755409eE, symObjAddr: 0xF560, symBinAddr: 0x113F90, symSize: 0x18F }
  - { offsetInCU: 0x137A, offset: 0x581561, size: 0x8, addend: 0x0, symName: '__ZN77_$LT$$RF$$u5b$syn..attr..Attribute$u5d$$u20$as$u20$syn..attr..FilterAttrs$GT$5outer8is_outer17h05806f843d7deec4E.llvm.6340778183057508401', symObjAddr: 0x7D20, symBinAddr: 0x11B3C0, symSize: 0x20 }
  - { offsetInCU: 0x2116, offset: 0x5822FD, size: 0x8, addend: 0x0, symName: '__ZN3syn2ty8printing78_$LT$impl$u20$quote..to_tokens..ToTokens$u20$for$u20$syn..ty..BareVariadic$GT$9to_tokens17ha9341a662464f4c2E', symObjAddr: 0xBF20, symBinAddr: 0x11D700, symSize: 0x150 }
  - { offsetInCU: 0x23C8, offset: 0x5825AF, size: 0x8, addend: 0x0, symName: '__ZN3syn2ty7parsing61_$LT$impl$u20$syn..parse..Parse$u20$for$u20$syn..ty..Type$GT$5parse17h889cc5bfbc020ab2E', symObjAddr: 0x7D40, symBinAddr: 0x11B3E0, symSize: 0x30 }
