---
triple:          'x86_64-apple-darwin'
binary-path:     "/Users/justinlanouette/Chaos/ChaöS-Token/hello_world/target/release/build/borsh-3b10b314455c9fa2/build_script_build-3b10b314455c9fa2"
relocations:
  - { offsetInCU: 0x1E, offset: 0x1E, size: 0x8, addend: 0x0, symName: '__ZN5alloc3str21_$LT$impl$u20$str$GT$7replace17ha1067ba273a18f81E', symObjAddr: 0x0, symBinAddr: 0x1000019E0, symSize: 0x920 }
  - { offsetInCU: 0x1C0E, offset: 0x1C0E, size: 0x8, addend: 0x0, symName: '__ZN5alloc3str21_$LT$impl$u20$str$GT$7replace17ha1067ba273a18f81E', symObjAddr: 0x0, symBinAddr: 0x1000019E0, symSize: 0x920 }
  - { offsetInCU: 0x31C3, offset: 0x31C3, size: 0x8, addend: 0x0, symName: '__ZN5alloc3str21_$LT$impl$u20$str$GT$7replace17ha1f41aad218d5200E', symObjAddr: 0x920, symBinAddr: 0x100002300, symSize: 0x1B0 }
  - { offsetInCU: 0x4379, offset: 0x4379, size: 0x8, addend: 0x0, symName: __ZN18build_script_build4main17hb417631b23445f21E, symObjAddr: 0xAD0, symBinAddr: 0x1000024B0, symSize: 0x430 }
  - { offsetInCU: 0x1E, offset: 0x6094, size: 0x8, addend: 0x0, symName: __ZN5alloc7raw_vec11finish_grow17hb493ce5d29332370E.llvm.11046245024635183852, symObjAddr: 0x0, symBinAddr: 0x100002900, symSize: 0x90 }
  - { offsetInCU: 0xC2C, offset: 0x6CA2, size: 0x8, addend: 0x0, symName: __ZN5alloc7raw_vec11finish_grow17hb493ce5d29332370E.llvm.11046245024635183852, symObjAddr: 0x0, symBinAddr: 0x100002900, symSize: 0x90 }
  - { offsetInCU: 0xF43, offset: 0x6FB9, size: 0x8, addend: 0x0, symName: '__ZN5alloc7raw_vec19RawVec$LT$T$C$A$GT$7reserve21do_reserve_and_handle17h2a14dd7fef6a56a8E', symObjAddr: 0x90, symBinAddr: 0x1000402F0, symSize: 0xB0 }
  - { offsetInCU: 0x1E, offset: 0x7834, size: 0x8, addend: 0x0, symName: '__ZN44_$LT$$RF$T$u20$as$u20$core..fmt..Display$GT$3fmt17hfdba947ac0635d96E', symObjAddr: 0x0, symBinAddr: 0x100002990, symSize: 0x17 }
  - { offsetInCU: 0xB5, offset: 0x78CB, size: 0x8, addend: 0x0, symName: '__ZN44_$LT$$RF$T$u20$as$u20$core..fmt..Display$GT$3fmt17hfdba947ac0635d96E', symObjAddr: 0x0, symBinAddr: 0x100002990, symSize: 0x17 }
  - { offsetInCU: 0x1E, offset: 0x7C22, size: 0x8, addend: 0x0, symName: __ZN3std2rt10lang_start17h5b3c7b92a6db2cd7E, symObjAddr: 0x0, symBinAddr: 0x1000029B0, symSize: 0x30 }
  - { offsetInCU: 0x5B, offset: 0x7C5F, size: 0x8, addend: 0x0, symName: '__ZN3std2rt10lang_start28_$u7b$$u7b$closure$u7d$$u7d$17h72931fcdd107c5bbE', symObjAddr: 0x30, symBinAddr: 0x1000029E0, symSize: 0x10 }
  - { offsetInCU: 0x9F, offset: 0x7CA3, size: 0x8, addend: 0x0, symName: __ZN3std2rt10lang_start17h5b3c7b92a6db2cd7E, symObjAddr: 0x0, symBinAddr: 0x1000029B0, symSize: 0x30 }
  - { offsetInCU: 0x15E, offset: 0x7D62, size: 0x8, addend: 0x0, symName: '__ZN4core3ops8function6FnOnce40call_once$u7b$$u7b$vtable.shim$u7d$$u7d$17h03b3735fb9298fc2E', symObjAddr: 0x40, symBinAddr: 0x1000029F0, symSize: 0x10 }
  - { offsetInCU: 0x1D8, offset: 0x7DDC, size: 0x8, addend: 0x0, symName: '__ZN4core3ptr85drop_in_place$LT$std..rt..lang_start$LT$$LP$$RP$$GT$..$u7b$$u7b$closure$u7d$$u7d$$GT$17h313017ba7cb61373E', symObjAddr: 0x50, symBinAddr: 0x100002A00, symSize: 0x6 }
  - { offsetInCU: 0x1E, offset: 0x7E5D, size: 0x8, addend: 0x0, symName: __ZN3std10sys_common9backtrace28__rust_begin_short_backtrace17h77829187675a3a5dE, symObjAddr: 0x0, symBinAddr: 0x100002A10, symSize: 0x8 }
  - { offsetInCU: 0xBF, offset: 0x7EFE, size: 0x8, addend: 0x0, symName: __ZN3std10sys_common9backtrace28__rust_begin_short_backtrace17h77829187675a3a5dE, symObjAddr: 0x0, symBinAddr: 0x100002A10, symSize: 0x8 }
...
