---
triple:          'x86_64-apple-darwin'
binary-path:     "/Users/justinlanouette/Chaos/ChaöS-Token/hello_world/target/release/deps/libborsh_derive-69361929b4229b9b.dylib"
relocations:
  - { offsetInCU: 0x1E, offset: 0x1E, size: 0x8, addend: 0x0, symName: '__ZN4core3ptr100drop_in_place$LT$core..option..Option$LT$alloc..boxed..Box$LT$syn..generics..LifetimeDef$GT$$GT$$GT$17h7178e05c512a8754E', symObjAddr: 0x0, symBinAddr: 0xBE0, symSize: 0x50 }
  - { offsetInCU: 0x18A4, offset: 0x18A4, size: 0x8, addend: 0x0, symName: '__ZN4core3ptr100drop_in_place$LT$core..option..Option$LT$alloc..boxed..Box$LT$syn..generics..LifetimeDef$GT$$GT$$GT$17h7178e05c512a8754E', symObjAddr: 0x0, symBinAddr: 0xBE0, symSize: 0x50 }
  - { offsetInCU: 0x1A35, offset: 0x1A35, size: 0x8, addend: 0x0, symName: '__ZN4core3ptr100drop_in_place$LT$core..option..Option$LT$alloc..boxed..Box$LT$syn..path..GenericArgument$GT$$GT$$GT$17he9cc088f95de166eE', symObjAddr: 0x50, symBinAddr: 0xC30, symSize: 0x50 }
  - { offsetInCU: 0x1BC6, offset: 0x1BC6, size: 0x8, addend: 0x0, symName: '__ZN4core3ptr101drop_in_place$LT$core..option..Option$LT$alloc..boxed..Box$LT$syn..generics..GenericParam$GT$$GT$$GT$17h532571a2743cbdf7E', symObjAddr: 0xA0, symBinAddr: 0xC80, symSize: 0x50 }
  - { offsetInCU: 0x1E8D, offset: 0x1E8D, size: 0x8, addend: 0x0, symName: '__ZN4core3ptr102drop_in_place$LT$syn..punctuated..Punctuated$LT$syn..generics..LifetimeDef$C$syn..token..Comma$GT$$GT$17h86b1601984c100a4E', symObjAddr: 0xF0, symBinAddr: 0xCD0, symSize: 0x170 }
  - { offsetInCU: 0x2333, offset: 0x2333, size: 0x8, addend: 0x0, symName: '__ZN4core3ptr102drop_in_place$LT$syn..punctuated..Punctuated$LT$syn..path..GenericArgument$C$syn..token..Comma$GT$$GT$17hbb54445130e8f7a5E.llvm.3927954872380550530', symObjAddr: 0x260, symBinAddr: 0xE40, symSize: 0xF0 }
  - { offsetInCU: 0x2698, offset: 0x2698, size: 0x8, addend: 0x0, symName: '__ZN4core3ptr103drop_in_place$LT$core..option..Option$LT$alloc..boxed..Box$LT$syn..generics..TypeParamBound$GT$$GT$$GT$17h3713d832f8e3d028E', symObjAddr: 0x350, symBinAddr: 0xF30, symSize: 0xA0 }
  - { offsetInCU: 0x298E, offset: 0x298E, size: 0x8, addend: 0x0, symName: '__ZN4core3ptr103drop_in_place$LT$core..option..Option$LT$alloc..boxed..Box$LT$syn..generics..WherePredicate$GT$$GT$$GT$17h005e08f445d9caf4E', symObjAddr: 0x3F0, symBinAddr: 0xFD0, symSize: 0x50 }
  - { offsetInCU: 0x2BBA, offset: 0x2BBA, size: 0x8, addend: 0x0, symName: '__ZN4core3ptr103drop_in_place$LT$syn..punctuated..Punctuated$LT$syn..generics..GenericParam$C$syn..token..Comma$GT$$GT$17h8f20b2deacd781eeE', symObjAddr: 0x440, symBinAddr: 0x1020, symSize: 0x1A0 }
  - { offsetInCU: 0x316A, offset: 0x316A, size: 0x8, addend: 0x0, symName: '__ZN4core3ptr103drop_in_place$LT$syn..punctuated..Punctuated$LT$syn..generics..TypeParamBound$C$syn..token..Add$GT$$GT$17h70770eda5d6f3bc5E', symObjAddr: 0x5E0, symBinAddr: 0x11C0, symSize: 0x2D0 }
  - { offsetInCU: 0x3E67, offset: 0x3E67, size: 0x8, addend: 0x0, symName: '__ZN4core3ptr105drop_in_place$LT$syn..punctuated..Punctuated$LT$syn..generics..WherePredicate$C$syn..token..Comma$GT$$GT$17hbc4b2e9f47d91773E', symObjAddr: 0x8B0, symBinAddr: 0x1490, symSize: 0x190 }
  - { offsetInCU: 0x449A, offset: 0x449A, size: 0x8, addend: 0x0, symName: '__ZN4core3ptr108drop_in_place$LT$syn..punctuated..Punctuated$LT$syn..expr..GenericMethodArgument$C$syn..token..Comma$GT$$GT$17h40e46e243f70ff56E', symObjAddr: 0xA40, symBinAddr: 0x1620, symSize: 0x160 }
  - { offsetInCU: 0x4933, offset: 0x4933, size: 0x8, addend: 0x0, symName: '__ZN4core3ptr126drop_in_place$LT$core..option..Option$LT$$LP$syn..token..And$C$core..option..Option$LT$syn..lifetime..Lifetime$GT$$RP$$GT$$GT$17hb5bf7079da2c621cE', symObjAddr: 0xBA0, symBinAddr: 0x1780, symSize: 0x30 }
  - { offsetInCU: 0x4BC3, offset: 0x4BC3, size: 0x8, addend: 0x0, symName: '__ZN4core3ptr33drop_in_place$LT$syn..ty..Abi$GT$17hdbcd8536fc5e9426E', symObjAddr: 0xBD0, symBinAddr: 0x17B0, symSize: 0x60 }
  - { offsetInCU: 0x4BDF, offset: 0x4BDF, size: 0x8, addend: 0x0, symName: '__ZN4core3ptr33drop_in_place$LT$syn..ty..Abi$GT$17hdbcd8536fc5e9426E', symObjAddr: 0xBD0, symBinAddr: 0x17B0, symSize: 0x60 }
  - { offsetInCU: 0x4ED9, offset: 0x4ED9, size: 0x8, addend: 0x0, symName: '__ZN4core3ptr34drop_in_place$LT$syn..lit..Lit$GT$17h0ea3db2faff11f95E', symObjAddr: 0xC30, symBinAddr: 0x1810, symSize: 0x110 }
  - { offsetInCU: 0x52FC, offset: 0x52FC, size: 0x8, addend: 0x0, symName: '__ZN4core3ptr34drop_in_place$LT$syn..pat..Pat$GT$17hae27b38ca4062827E.llvm.3927954872380550530', symObjAddr: 0xD40, symBinAddr: 0x1920, symSize: 0x5A0 }
  - { offsetInCU: 0x6137, offset: 0x6137, size: 0x8, addend: 0x0, symName: '__ZN4core3ptr34drop_in_place$LT$syn..ty..Type$GT$17hf0ca6316b7acd8e3E.llvm.3927954872380550530', symObjAddr: 0x12E0, symBinAddr: 0x1EC0, symSize: 0x470 }
  - { offsetInCU: 0x70C7, offset: 0x70C7, size: 0x8, addend: 0x0, symName: '__ZN4core3ptr35drop_in_place$LT$syn..expr..Arm$GT$17h68d33c5a7d8ac809E.llvm.3927954872380550530', symObjAddr: 0x1750, symBinAddr: 0x2330, symSize: 0x140 }
  - { offsetInCU: 0x7CE9, offset: 0x7CE9, size: 0x8, addend: 0x0, symName: '__ZN4core3ptr36drop_in_place$LT$syn..expr..Expr$GT$17h3c2fa1066c5db92bE.llvm.3927954872380550530', symObjAddr: 0x1890, symBinAddr: 0x2470, symSize: 0x14B0 }
  - { offsetInCU: 0xB6B5, offset: 0xB6B5, size: 0x8, addend: 0x0, symName: '__ZN4core3ptr36drop_in_place$LT$syn..item..Item$GT$17h4d535474965f285aE.llvm.3927954872380550530', symObjAddr: 0x2D40, symBinAddr: 0x3920, symSize: 0x1030 }
  - { offsetInCU: 0xE4D8, offset: 0xE4D8, size: 0x8, addend: 0x0, symName: '__ZN4core3ptr36drop_in_place$LT$syn..mac..Macro$GT$17h4ae82d5bf77a9fc9E', symObjAddr: 0x3D70, symBinAddr: 0x4950, symSize: 0xE0 }
  - { offsetInCU: 0xE85E, offset: 0xE85E, size: 0x8, addend: 0x0, symName: '__ZN4core3ptr36drop_in_place$LT$syn..path..Path$GT$17hb33b7aff82575941E.llvm.3927954872380550530', symObjAddr: 0x3E50, symBinAddr: 0x4A30, symSize: 0x160 }
  - { offsetInCU: 0xEDCD, offset: 0xEDCD, size: 0x8, addend: 0x0, symName: '__ZN4core3ptr36drop_in_place$LT$syn..stmt..Stmt$GT$17h083ee536ca4fe5b4E.llvm.3927954872380550530', symObjAddr: 0x3FB0, symBinAddr: 0x4B90, symSize: 0xE0 }
  - { offsetInCU: 0xEFC5, offset: 0xEFC5, size: 0x8, addend: 0x0, symName: '__ZN4core3ptr37drop_in_place$LT$syn..data..Field$GT$17hf455d060027dbc1aE.llvm.3927954872380550530', symObjAddr: 0x4090, symBinAddr: 0x4C70, symSize: 0x130 }
  - { offsetInCU: 0xF548, offset: 0xF548, size: 0x8, addend: 0x0, symName: '__ZN4core3ptr37drop_in_place$LT$syn..item..FnArg$GT$17h3f0e0397a211a90dE', symObjAddr: 0x41C0, symBinAddr: 0x4DA0, symSize: 0x110 }
  - { offsetInCU: 0xF98D, offset: 0xF98D, size: 0x8, addend: 0x0, symName: '__ZN4core3ptr37drop_in_place$LT$syn..stmt..Block$GT$17ha795ccebd4ea9741E', symObjAddr: 0x42D0, symBinAddr: 0x4EB0, symSize: 0xD0 }
  - { offsetInCU: 0xFC31, offset: 0xFC31, size: 0x8, addend: 0x0, symName: '__ZN4core3ptr38drop_in_place$LT$syn..expr..Member$GT$17h3b5a26ad209ee938E.llvm.3927954872380550530', symObjAddr: 0x43A0, symBinAddr: 0x4F80, symSize: 0x0 }
  - { offsetInCU: 0xFD2E, offset: 0xFD2E, size: 0x8, addend: 0x0, symName: '__ZN4core3ptr38drop_in_place$LT$syn..pat..PatType$GT$17hb7f5b44d1817e75eE', symObjAddr: 0x43D0, symBinAddr: 0x4FB0, symSize: 0x100 }
  - { offsetInCU: 0x10265, offset: 0x10265, size: 0x8, addend: 0x0, symName: '__ZN4core3ptr38drop_in_place$LT$syn..ty..Variadic$GT$17ha2cb7f61f521d77aE', symObjAddr: 0x44D0, symBinAddr: 0x50B0, symSize: 0x80 }
  - { offsetInCU: 0x104F8, offset: 0x104F8, size: 0x8, addend: 0x0, symName: '__ZN4core3ptr39drop_in_place$LT$proc_macro2..Ident$GT$17h63da221b05914407E.llvm.3927954872380550530', symObjAddr: 0x4550, symBinAddr: 0x5130, symSize: 0x30 }
  - { offsetInCU: 0x10633, offset: 0x10633, size: 0x8, addend: 0x0, symName: '__ZN4core3ptr39drop_in_place$LT$syn..data..Variant$GT$17h0f012d535ec3e2e7E.llvm.3927954872380550530', symObjAddr: 0x4580, symBinAddr: 0x5160, symSize: 0x2B0 }
  - { offsetInCU: 0x11213, offset: 0x11213, size: 0x8, addend: 0x0, symName: '__ZN4core3ptr39drop_in_place$LT$syn..item..UseTree$GT$17h54ebc899db10ccfbE', symObjAddr: 0x4830, symBinAddr: 0x5410, symSize: 0x1E0 }
  - { offsetInCU: 0x119B5, offset: 0x119B5, size: 0x8, addend: 0x0, symName: '__ZN4core3ptr39drop_in_place$LT$syn..pat..PatTuple$GT$17h07764f346a3d724eE', symObjAddr: 0x4A10, symBinAddr: 0x55F0, symSize: 0x180 }
  - { offsetInCU: 0x12098, offset: 0x12098, size: 0x8, addend: 0x0, symName: '__ZN4core3ptr40drop_in_place$LT$syn..item..ImplItem$GT$17h49e77e3e803f0f93E', symObjAddr: 0x4B90, symBinAddr: 0x5770, symSize: 0x1C0 }
  - { offsetInCU: 0x123D0, offset: 0x123D0, size: 0x8, addend: 0x0, symName: '__ZN4core3ptr40drop_in_place$LT$syn..ty..ReturnType$GT$17h8adb205861c60675E.llvm.3927954872380550530', symObjAddr: 0x4D50, symBinAddr: 0x5930, symSize: 0x50 }
  - { offsetInCU: 0x12542, offset: 0x12542, size: 0x8, addend: 0x0, symName: '__ZN4core3ptr41drop_in_place$LT$syn..attr..Attribute$GT$17hb5f013073cd605adE.llvm.3927954872380550530', symObjAddr: 0x4DA0, symBinAddr: 0x5980, symSize: 0x40 }
  - { offsetInCU: 0x126B2, offset: 0x126B2, size: 0x8, addend: 0x0, symName: '__ZN4core3ptr41drop_in_place$LT$syn..item..Signature$GT$17h4fcca25cdeecfaaaE', symObjAddr: 0x4DE0, symBinAddr: 0x59C0, symSize: 0x2C0 }
  - { offsetInCU: 0x133D6, offset: 0x133D6, size: 0x8, addend: 0x0, symName: '__ZN4core3ptr41drop_in_place$LT$syn..item..TraitItem$GT$17h512c056585d8ea1eE', symObjAddr: 0x50A0, symBinAddr: 0x5C80, symSize: 0x2C0 }
  - { offsetInCU: 0x13AAE, offset: 0x13AAE, size: 0x8, addend: 0x0, symName: '__ZN4core3ptr43drop_in_place$LT$proc_macro2..TokenTree$GT$17hcb1eaa82054ed85dE.llvm.3927954872380550530', symObjAddr: 0x5360, symBinAddr: 0x5F40, symSize: 0xB0 }
  - { offsetInCU: 0x13DC2, offset: 0x13DC2, size: 0x8, addend: 0x0, symName: '__ZN4core3ptr43drop_in_place$LT$syn..data..FieldsNamed$GT$17hb1524c9ece952006E', symObjAddr: 0x5410, symBinAddr: 0x5FF0, symSize: 0x120 }
  - { offsetInCU: 0x14269, offset: 0x14269, size: 0x8, addend: 0x0, symName: '__ZN4core3ptr43drop_in_place$LT$syn..item..ForeignItem$GT$17h7b6e41a0dec64e45E', symObjAddr: 0x5530, symBinAddr: 0x6110, symSize: 0x2B0 }
  - { offsetInCU: 0x147FE, offset: 0x147FE, size: 0x8, addend: 0x0, symName: '__ZN4core3ptr43drop_in_place$LT$syn..path..PathSegment$GT$17hcebfcbbc101acf21E', symObjAddr: 0x57E0, symBinAddr: 0x63C0, symSize: 0x170 }
  - { offsetInCU: 0x14DC1, offset: 0x14DC1, size: 0x8, addend: 0x0, symName: '__ZN4core3ptr44drop_in_place$LT$syn..generics..Generics$GT$17h59220b015966a12fE', symObjAddr: 0x5950, symBinAddr: 0x6530, symSize: 0x220 }
  - { offsetInCU: 0x1563E, offset: 0x1563E, size: 0x8, addend: 0x0, symName: '__ZN4core3ptr44drop_in_place$LT$syn..item..ImplItemType$GT$17h7305a1dbacd3a0d1E', symObjAddr: 0x5B70, symBinAddr: 0x6750, symSize: 0x170 }
  - { offsetInCU: 0x15BE4, offset: 0x15BE4, size: 0x8, addend: 0x0, symName: '__ZN4core3ptr44drop_in_place$LT$syn..lifetime..Lifetime$GT$17hcb99b9c0e6f082bcE.llvm.3927954872380550530', symObjAddr: 0x5CE0, symBinAddr: 0x68C0, symSize: 0x30 }
  - { offsetInCU: 0x15D3E, offset: 0x15D3E, size: 0x8, addend: 0x0, symName: '__ZN4core3ptr45drop_in_place$LT$proc_macro2..TokenStream$GT$17h68a2353e050af036E.llvm.3927954872380550530', symObjAddr: 0x5D10, symBinAddr: 0x68F0, symSize: 0x70 }
  - { offsetInCU: 0x15E86, offset: 0x15E86, size: 0x8, addend: 0x0, symName: '__ZN4core3ptr45drop_in_place$LT$syn..data..VisRestricted$GT$17hbadfc5f3ad21a8cfE.llvm.3927954872380550530', symObjAddr: 0x5D80, symBinAddr: 0x6960, symSize: 0x50 }
  - { offsetInCU: 0x1603E, offset: 0x1603E, size: 0x8, addend: 0x0, symName: '__ZN4core3ptr45drop_in_place$LT$syn..generics..TypeParam$GT$17h9a4c84c26895b717E.llvm.3927954872380550530', symObjAddr: 0x5DD0, symBinAddr: 0x69B0, symSize: 0x1E0 }
  - { offsetInCU: 0x1695E, offset: 0x1695E, size: 0x8, addend: 0x0, symName: '__ZN4core3ptr45drop_in_place$LT$syn..item..ImplItemConst$GT$17h97f70ae1ab326cd9E', symObjAddr: 0x5FB0, symBinAddr: 0x6B90, symSize: 0x150 }
  - { offsetInCU: 0x16EC1, offset: 0x16EC1, size: 0x8, addend: 0x0, symName: '__ZN4core3ptr45drop_in_place$LT$syn..item..TraitItemType$GT$17hf57906b03d81b0b3E', symObjAddr: 0x6100, symBinAddr: 0x6CE0, symSize: 0x230 }
  - { offsetInCU: 0x178C7, offset: 0x178C7, size: 0x8, addend: 0x0, symName: '__ZN4core3ptr46drop_in_place$LT$syn..generics..ConstParam$GT$17hed33083a38077674E.llvm.3927954872380550530', symObjAddr: 0x6330, symBinAddr: 0x6F10, symSize: 0x110 }
  - { offsetInCU: 0x17C86, offset: 0x17C86, size: 0x8, addend: 0x0, symName: '__ZN4core3ptr46drop_in_place$LT$syn..item..ImplItemMethod$GT$17h3b71bffe9c2d5767E', symObjAddr: 0x6440, symBinAddr: 0x7020, symSize: 0x1D0 }
  - { offsetInCU: 0x18371, offset: 0x18371, size: 0x8, addend: 0x0, symName: '__ZN4core3ptr46drop_in_place$LT$syn..item..TraitItemConst$GT$17h5447afda4e08c5f6E', symObjAddr: 0x6610, symBinAddr: 0x71F0, symSize: 0xF0 }
  - { offsetInCU: 0x18763, offset: 0x18763, size: 0x8, addend: 0x0, symName: '__ZN4core3ptr47drop_in_place$LT$syn..generics..LifetimeDef$GT$17h18611d8aac4601d6E.llvm.3927954872380550530', symObjAddr: 0x6700, symBinAddr: 0x72E0, symSize: 0xB0 }
  - { offsetInCU: 0x18AFB, offset: 0x18AFB, size: 0x8, addend: 0x0, symName: '__ZN4core3ptr47drop_in_place$LT$syn..generics..WhereClause$GT$17hf8cf92b0ed6d2a22E', symObjAddr: 0x67B0, symBinAddr: 0x7390, symSize: 0x120 }
  - { offsetInCU: 0x18F83, offset: 0x18F83, size: 0x8, addend: 0x0, symName: '__ZN4core3ptr47drop_in_place$LT$syn..path..GenericArgument$GT$17h7f3b80596c1c7c27E', symObjAddr: 0x68D0, symBinAddr: 0x74B0, symSize: 0xE0 }
  - { offsetInCU: 0x1929D, offset: 0x1929D, size: 0x8, addend: 0x0, symName: '__ZN4core3ptr48drop_in_place$LT$syn..generics..GenericParam$GT$17hc97547fd59a5d4c6E', symObjAddr: 0x69B0, symBinAddr: 0x7590, symSize: 0xA0 }
  - { offsetInCU: 0x193D0, offset: 0x193D0, size: 0x8, addend: 0x0, symName: '__ZN4core3ptr49drop_in_place$LT$syn..generics..PredicateType$GT$17hf40c593948c5cf2bE.llvm.3927954872380550530', symObjAddr: 0x6A50, symBinAddr: 0x7630, symSize: 0x230 }
  - { offsetInCU: 0x19D43, offset: 0x19D43, size: 0x8, addend: 0x0, symName: '__ZN4core3ptr49drop_in_place$LT$syn..item..ForeignItemStatic$GT$17hff04de702e7c47a8E', symObjAddr: 0x6C80, symBinAddr: 0x7860, symSize: 0x140 }
  - { offsetInCU: 0x1A3D7, offset: 0x1A3D7, size: 0x8, addend: 0x0, symName: '__ZN4core3ptr50drop_in_place$LT$$u5b$syn..item..ImplItem$u5d$$GT$17h14c9607996607931E', symObjAddr: 0x6DC0, symBinAddr: 0x79A0, symSize: 0x1E0 }
  - { offsetInCU: 0x1A640, offset: 0x1A640, size: 0x8, addend: 0x0, symName: '__ZN4core3ptr50drop_in_place$LT$syn..generics..BoundLifetimes$GT$17hfecd2a8c031c0453E', symObjAddr: 0x6FA0, symBinAddr: 0x7B80, symSize: 0x110 }
  - { offsetInCU: 0x1AA8A, offset: 0x1AA8A, size: 0x8, addend: 0x0, symName: '__ZN4core3ptr50drop_in_place$LT$syn..generics..TypeParamBound$GT$17h59e063e4ad11b415E', symObjAddr: 0x70B0, symBinAddr: 0x7C90, symSize: 0x80 }
  - { offsetInCU: 0x1AC10, offset: 0x1AC10, size: 0x8, addend: 0x0, symName: '__ZN4core3ptr50drop_in_place$LT$syn..generics..WherePredicate$GT$17h05780c8881270178E', symObjAddr: 0x7130, symBinAddr: 0x7D10, symSize: 0xE0 }
  - { offsetInCU: 0x1ADC6, offset: 0x1ADC6, size: 0x8, addend: 0x0, symName: '__ZN4core3ptr51drop_in_place$LT$$u5b$syn..attr..Attribute$u5d$$GT$17h62d9d53d435069c9E.llvm.3927954872380550530', symObjAddr: 0x7210, symBinAddr: 0x7DF0, symSize: 0x1C0 }
  - { offsetInCU: 0x1B12F, offset: 0x1B12F, size: 0x8, addend: 0x0, symName: '__ZN4core3ptr51drop_in_place$LT$$u5b$syn..item..TraitItem$u5d$$GT$17h9f4db70f73fc3a8cE', symObjAddr: 0x73D0, symBinAddr: 0x7FB0, symSize: 0x450 }
  - { offsetInCU: 0x1BAD4, offset: 0x1BAD4, size: 0x8, addend: 0x0, symName: '__ZN4core3ptr53drop_in_place$LT$$u5b$syn..item..ForeignItem$u5d$$GT$17h6ac53af535cbe0d6E', symObjAddr: 0x7820, symBinAddr: 0x8400, symSize: 0x3A0 }
  - { offsetInCU: 0x1C52D, offset: 0x1C52D, size: 0x8, addend: 0x0, symName: '__ZN4core3ptr58drop_in_place$LT$alloc..vec..Vec$LT$syn..expr..Arm$GT$$GT$17h48bdf237d42dad5fE', symObjAddr: 0x7BC0, symBinAddr: 0x87A0, symSize: 0xD0 }
  - { offsetInCU: 0x1C7BA, offset: 0x1C7BA, size: 0x8, addend: 0x0, symName: '__ZN4core3ptr59drop_in_place$LT$alloc..boxed..Box$LT$syn..pat..Pat$GT$$GT$17h7e6aefc66cc78e8aE.llvm.3927954872380550530', symObjAddr: 0x7C90, symBinAddr: 0x8870, symSize: 0x50 }
  - { offsetInCU: 0x1C915, offset: 0x1C915, size: 0x8, addend: 0x0, symName: '__ZN4core3ptr59drop_in_place$LT$alloc..boxed..Box$LT$syn..ty..Type$GT$$GT$17h08aeddbe6076bbcbE', symObjAddr: 0x7CE0, symBinAddr: 0x88C0, symSize: 0x50 }
  - { offsetInCU: 0x1CA70, offset: 0x1CA70, size: 0x8, addend: 0x0, symName: '__ZN4core3ptr59drop_in_place$LT$alloc..vec..Vec$LT$syn..item..Item$GT$$GT$17h5dd44eed365ab3b7E', symObjAddr: 0x7D30, symBinAddr: 0x8910, symSize: 0xD0 }
  - { offsetInCU: 0x1CCFD, offset: 0x1CCFD, size: 0x8, addend: 0x0, symName: '__ZN4core3ptr61drop_in_place$LT$alloc..boxed..Box$LT$syn..expr..Expr$GT$$GT$17hbbaffcfed55e0ee0E.llvm.3927954872380550530', symObjAddr: 0x7E00, symBinAddr: 0x89E0, symSize: 0x50 }
  - { offsetInCU: 0x1CE58, offset: 0x1CE58, size: 0x8, addend: 0x0, symName: '__ZN4core3ptr61drop_in_place$LT$alloc..boxed..Box$LT$syn..path..Path$GT$$GT$17h90107f3d51d629ceE', symObjAddr: 0x7E50, symBinAddr: 0x8A30, symSize: 0x100 }
  - { offsetInCU: 0x1D33E, offset: 0x1D33E, size: 0x8, addend: 0x0, symName: '__ZN4core3ptr61drop_in_place$LT$syn..path..ParenthesizedGenericArguments$GT$17h997791ba314bf4edE', symObjAddr: 0x7F50, symBinAddr: 0x8B30, symSize: 0x170 }
  - { offsetInCU: 0x1D905, offset: 0x1D905, size: 0x8, addend: 0x0, symName: '__ZN4core3ptr62drop_in_place$LT$alloc..boxed..Box$LT$syn..data..Field$GT$$GT$17h52185f1f02858d81E', symObjAddr: 0x80C0, symBinAddr: 0x8CA0, symSize: 0x50 }
  - { offsetInCU: 0x1DA7F, offset: 0x1DA7F, size: 0x8, addend: 0x0, symName: '__ZN4core3ptr62drop_in_place$LT$alloc..boxed..Box$LT$syn..item..FnArg$GT$$GT$17h9bb293f37caccdb7E', symObjAddr: 0x8110, symBinAddr: 0x8CF0, symSize: 0xD0 }
  - { offsetInCU: 0x1DFD0, offset: 0x1DFD0, size: 0x8, addend: 0x0, symName: '__ZN4core3ptr62drop_in_place$LT$alloc..boxed..Box$LT$syn..stmt..Block$GT$$GT$17h0dbf9705402dd891E', symObjAddr: 0x81E0, symBinAddr: 0x8DC0, symSize: 0xE0 }
  - { offsetInCU: 0x1E3B1, offset: 0x1E3B1, size: 0x8, addend: 0x0, symName: '__ZN4core3ptr62drop_in_place$LT$syn..path..AngleBracketedGenericArguments$GT$17h4ff10c40fa9c3d9dE', symObjAddr: 0x82C0, symBinAddr: 0x8EA0, symSize: 0x120 }
  - { offsetInCU: 0x1E7FB, offset: 0x1E7FB, size: 0x8, addend: 0x0, symName: '__ZN4core3ptr63drop_in_place$LT$alloc..vec..Vec$LT$syn..item..ImplItem$GT$$GT$17h58d0561b81e29e6dE', symObjAddr: 0x83E0, symBinAddr: 0x8FC0, symSize: 0x80 }
  - { offsetInCU: 0x1EA79, offset: 0x1EA79, size: 0x8, addend: 0x0, symName: '__ZN4core3ptr64drop_in_place$LT$alloc..boxed..Box$LT$syn..data..Variant$GT$$GT$17ha4e4fd127b7b2752E', symObjAddr: 0x8460, symBinAddr: 0x9040, symSize: 0x50 }
  - { offsetInCU: 0x1EBD4, offset: 0x1EBD4, size: 0x8, addend: 0x0, symName: '__ZN4core3ptr64drop_in_place$LT$alloc..boxed..Box$LT$syn..item..UseTree$GT$$GT$17hfea4cf02ec1bd6e1E', symObjAddr: 0x84B0, symBinAddr: 0x9090, symSize: 0x50 }
  - { offsetInCU: 0x1ED4E, offset: 0x1ED4E, size: 0x8, addend: 0x0, symName: '__ZN4core3ptr64drop_in_place$LT$alloc..boxed..Box$LT$syn..pat..FieldPat$GT$$GT$17hef4a75412ddda2ebE', symObjAddr: 0x8500, symBinAddr: 0x90E0, symSize: 0xC0 }
  - { offsetInCU: 0x1F19D, offset: 0x1F19D, size: 0x8, addend: 0x0, symName: '__ZN4core3ptr64drop_in_place$LT$alloc..boxed..Box$LT$syn..ty..BareFnArg$GT$$GT$17h32a84282092f1c70E', symObjAddr: 0x85C0, symBinAddr: 0x91A0, symSize: 0x160 }
  - { offsetInCU: 0x1F69F, offset: 0x1F69F, size: 0x8, addend: 0x0, symName: '__ZN4core3ptr64drop_in_place$LT$alloc..vec..Vec$LT$syn..attr..Attribute$GT$$GT$17h08a30988c7905872E.llvm.3927954872380550530', symObjAddr: 0x8720, symBinAddr: 0x9300, symSize: 0xF0 }
  - { offsetInCU: 0x1F939, offset: 0x1F939, size: 0x8, addend: 0x0, symName: '__ZN4core3ptr64drop_in_place$LT$alloc..vec..Vec$LT$syn..item..TraitItem$GT$$GT$17he7ad0816804b42a5E', symObjAddr: 0x8810, symBinAddr: 0x93F0, symSize: 0x80 }
  - { offsetInCU: 0x1FBB7, offset: 0x1FBB7, size: 0x8, addend: 0x0, symName: '__ZN4core3ptr65drop_in_place$LT$$LP$syn..item..FnArg$C$syn..token..Comma$RP$$GT$17h546569254c855fceE', symObjAddr: 0x8890, symBinAddr: 0x9470, symSize: 0xD0 }
  - { offsetInCU: 0x20037, offset: 0x20037, size: 0x8, addend: 0x0, symName: '__ZN4core3ptr65drop_in_place$LT$alloc..vec..Vec$LT$proc_macro..TokenTree$GT$$GT$17h3f6781bb5324f81fE.llvm.3927954872380550530', symObjAddr: 0x8960, symBinAddr: 0x9540, symSize: 0x120 }
  - { offsetInCU: 0x203A9, offset: 0x203A9, size: 0x8, addend: 0x0, symName: '__ZN4core3ptr65drop_in_place$LT$core..option..Option$LT$syn..expr..Label$GT$$GT$17h637b893948230b43E', symObjAddr: 0x8A80, symBinAddr: 0x9660, symSize: 0x30 }
  - { offsetInCU: 0x204E4, offset: 0x204E4, size: 0x8, addend: 0x0, symName: '__ZN4core3ptr65drop_in_place$LT$core..option..Option$LT$syn..stmt..Block$GT$$GT$17hefa3ad934cb0fca8E', symObjAddr: 0x8AB0, symBinAddr: 0x9690, symSize: 0xE0 }
  - { offsetInCU: 0x20749, offset: 0x20749, size: 0x8, addend: 0x0, symName: '__ZN4core3ptr66drop_in_place$LT$alloc..vec..Vec$LT$syn..item..ForeignItem$GT$$GT$17h87d7c5772805959bE', symObjAddr: 0x8B90, symBinAddr: 0x9770, symSize: 0x80 }
  - { offsetInCU: 0x209C7, offset: 0x209C7, size: 0x8, addend: 0x0, symName: '__ZN4core3ptr67drop_in_place$LT$$LP$syn..pat..FieldPat$C$syn..token..Comma$RP$$GT$17h4524650c001c752dE.llvm.3927954872380550530', symObjAddr: 0x8C10, symBinAddr: 0x97F0, symSize: 0xA0 }
  - { offsetInCU: 0x20C72, offset: 0x20C72, size: 0x8, addend: 0x0, symName: '__ZN4core3ptr67drop_in_place$LT$$LP$syn..ty..BareFnArg$C$syn..token..Comma$RP$$GT$17hdeaee3c1abf00019E.llvm.3927954872380550530', symObjAddr: 0x8CB0, symBinAddr: 0x9890, symSize: 0xC0 }
  - { offsetInCU: 0x2105F, offset: 0x2105F, size: 0x8, addend: 0x0, symName: '__ZN4core3ptr67drop_in_place$LT$alloc..boxed..Box$LT$syn..expr..FieldValue$GT$$GT$17hb417837c478aa2a4E', symObjAddr: 0x8D70, symBinAddr: 0x9950, symSize: 0xA0 }
  - { offsetInCU: 0x21305, offset: 0x21305, size: 0x8, addend: 0x0, symName: '__ZN4core3ptr68drop_in_place$LT$alloc..boxed..Box$LT$syn..path..PathSegment$GT$$GT$17h9ff1e79c6e5aeecaE', symObjAddr: 0x8E10, symBinAddr: 0x99F0, symSize: 0xD0 }
  - { offsetInCU: 0x21703, offset: 0x21703, size: 0x8, addend: 0x0, symName: '__ZN4core3ptr70drop_in_place$LT$$LP$syn..expr..FieldValue$C$syn..token..Comma$RP$$GT$17h39ff5d7dd0147924E.llvm.3927954872380550530', symObjAddr: 0x8EE0, symBinAddr: 0x9AC0, symSize: 0x80 }
  - { offsetInCU: 0x21841, offset: 0x21841, size: 0x8, addend: 0x0, symName: '__ZN4core3ptr72drop_in_place$LT$$LP$syn..path..PathSegment$C$syn..token..Colon2$RP$$GT$17he0002f1a1ce597ecE.llvm.3927954872380550530', symObjAddr: 0x8F60, symBinAddr: 0x9B40, symSize: 0xC0 }
  - { offsetInCU: 0x21B07, offset: 0x21B07, size: 0x8, addend: 0x0, symName: '__ZN4core3ptr72drop_in_place$LT$alloc..boxed..Box$LT$syn..generics..LifetimeDef$GT$$GT$17hfff2b10d2bdf136aE', symObjAddr: 0x9020, symBinAddr: 0x9C00, symSize: 0x80 }
  - { offsetInCU: 0x21DB6, offset: 0x21DB6, size: 0x8, addend: 0x0, symName: '__ZN4core3ptr72drop_in_place$LT$alloc..boxed..Box$LT$syn..path..GenericArgument$GT$$GT$17hcd8be5d401728f49E.llvm.3927954872380550530', symObjAddr: 0x90A0, symBinAddr: 0x9C80, symSize: 0x1F0 }
  - { offsetInCU: 0x225F0, offset: 0x225F0, size: 0x8, addend: 0x0, symName: '__ZN4core3ptr73drop_in_place$LT$alloc..boxed..Box$LT$syn..generics..GenericParam$GT$$GT$17hefc885134d2b9ce4E', symObjAddr: 0x9290, symBinAddr: 0x9E70, symSize: 0x80 }
  - { offsetInCU: 0x22768, offset: 0x22768, size: 0x8, addend: 0x0, symName: '__ZN4core3ptr75drop_in_place$LT$$LP$syn..generics..LifetimeDef$C$syn..token..Comma$RP$$GT$17hf22174afcd52346dE.llvm.3927954872380550530', symObjAddr: 0x9310, symBinAddr: 0x9EF0, symSize: 0x60 }
  - { offsetInCU: 0x228A3, offset: 0x228A3, size: 0x8, addend: 0x0, symName: '__ZN4core3ptr75drop_in_place$LT$$LP$syn..path..GenericArgument$C$syn..token..Comma$RP$$GT$17h34762517cfb7555dE.llvm.3927954872380550530', symObjAddr: 0x9370, symBinAddr: 0x9F50, symSize: 0x210 }
  - { offsetInCU: 0x23005, offset: 0x23005, size: 0x8, addend: 0x0, symName: '__ZN4core3ptr75drop_in_place$LT$alloc..boxed..Box$LT$syn..generics..TypeParamBound$GT$$GT$17h79502df08517a1abE', symObjAddr: 0x9580, symBinAddr: 0xA160, symSize: 0x140 }
  - { offsetInCU: 0x23585, offset: 0x23585, size: 0x8, addend: 0x0, symName: '__ZN4core3ptr75drop_in_place$LT$alloc..boxed..Box$LT$syn..generics..WherePredicate$GT$$GT$17h3346e84cf370f59dE', symObjAddr: 0x96C0, symBinAddr: 0xA2A0, symSize: 0xC0 }
  - { offsetInCU: 0x23824, offset: 0x23824, size: 0x8, addend: 0x0, symName: '__ZN4core3ptr76drop_in_place$LT$$LP$syn..generics..GenericParam$C$syn..token..Comma$RP$$GT$17hbae108106a79c0f4E.llvm.3927954872380550530', symObjAddr: 0x9780, symBinAddr: 0xA360, symSize: 0x40 }
  - { offsetInCU: 0x23860, offset: 0x23860, size: 0x8, addend: 0x0, symName: '__ZN4core3ptr76drop_in_place$LT$$LP$syn..generics..TypeParamBound$C$syn..token..Add$RP$$GT$17h4dd7b011bb365c7dE.llvm.3927954872380550530', symObjAddr: 0x97C0, symBinAddr: 0xA3A0, symSize: 0x150 }
  - { offsetInCU: 0x23CAE, offset: 0x23CAE, size: 0x8, addend: 0x0, symName: '__ZN4core3ptr78drop_in_place$LT$$LP$syn..generics..WherePredicate$C$syn..token..Comma$RP$$GT$17hfceeefffe069fff3E.llvm.3927954872380550530', symObjAddr: 0x9910, symBinAddr: 0xA4F0, symSize: 0xA0 }
  - { offsetInCU: 0x23E21, offset: 0x23E21, size: 0x8, addend: 0x0, symName: '__ZN4core3ptr78drop_in_place$LT$alloc..boxed..Box$LT$syn..expr..GenericMethodArgument$GT$$GT$17hc55befa3a35d52b5E', symObjAddr: 0x99B0, symBinAddr: 0xA590, symSize: 0x60 }
  - { offsetInCU: 0x23F99, offset: 0x23F99, size: 0x8, addend: 0x0, symName: '__ZN4core3ptr81drop_in_place$LT$$LP$syn..expr..GenericMethodArgument$C$syn..token..Comma$RP$$GT$17h1dd3fb863d51ebe9E.llvm.3927954872380550530', symObjAddr: 0x9A10, symBinAddr: 0xA5F0, symSize: 0x20 }
  - { offsetInCU: 0x23FD5, offset: 0x23FD5, size: 0x8, addend: 0x0, symName: '__ZN4core3ptr86drop_in_place$LT$$LP$syn..token..If$C$alloc..boxed..Box$LT$syn..expr..Expr$GT$$RP$$GT$17h6cadcaa37ab832a0E.llvm.3927954872380550530', symObjAddr: 0x9A30, symBinAddr: 0xA610, symSize: 0x50 }
  - { offsetInCU: 0x2414F, offset: 0x2414F, size: 0x8, addend: 0x0, symName: '__ZN4core3ptr86drop_in_place$LT$$u5b$$LP$syn..generics..TypeParamBound$C$syn..token..Add$RP$$u5d$$GT$17h6b2ae907c2b221b5E', symObjAddr: 0x9A80, symBinAddr: 0xA660, symSize: 0xD0 }
  - { offsetInCU: 0x2437F, offset: 0x2437F, size: 0x8, addend: 0x0, symName: '__ZN4core3ptr86drop_in_place$LT$syn..punctuated..Punctuated$LT$syn..pat..Pat$C$syn..token..Or$GT$$GT$17h88c3b7e3d2288112E', symObjAddr: 0x9B50, symBinAddr: 0xA730, symSize: 0x120 }
  - { offsetInCU: 0x247DC, offset: 0x247DC, size: 0x8, addend: 0x0, symName: '__ZN4core3ptr87drop_in_place$LT$core..option..Option$LT$alloc..boxed..Box$LT$syn..pat..Pat$GT$$GT$$GT$17h1b4dd0887ce4d1d2E', symObjAddr: 0x9C70, symBinAddr: 0xA850, symSize: 0x50 }
  - { offsetInCU: 0x2494E, offset: 0x2494E, size: 0x8, addend: 0x0, symName: '__ZN4core3ptr87drop_in_place$LT$core..option..Option$LT$alloc..boxed..Box$LT$syn..ty..Type$GT$$GT$$GT$17hbec88cd4eccce1d5E', symObjAddr: 0x9CC0, symBinAddr: 0xA8A0, symSize: 0x50 }
  - { offsetInCU: 0x24AC0, offset: 0x24AC0, size: 0x8, addend: 0x0, symName: '__ZN4core3ptr89drop_in_place$LT$core..option..Option$LT$alloc..boxed..Box$LT$syn..expr..Expr$GT$$GT$$GT$17h029806b02339e96fE', symObjAddr: 0x9D10, symBinAddr: 0xA8F0, symSize: 0x50 }
  - { offsetInCU: 0x24C32, offset: 0x24C32, size: 0x8, addend: 0x0, symName: '__ZN4core3ptr89drop_in_place$LT$syn..punctuated..Punctuated$LT$syn..ty..Type$C$syn..token..Comma$GT$$GT$17hdf8b0204a3a5e5c6E.llvm.3927954872380550530', symObjAddr: 0x9D60, symBinAddr: 0xA940, symSize: 0x120 }
  - { offsetInCU: 0x2507C, offset: 0x2507C, size: 0x8, addend: 0x0, symName: '__ZN4core3ptr90drop_in_place$LT$core..option..Option$LT$alloc..boxed..Box$LT$syn..data..Field$GT$$GT$$GT$17h388d78c870b52b3eE', symObjAddr: 0x9E80, symBinAddr: 0xAA60, symSize: 0x50 }
  - { offsetInCU: 0x251EE, offset: 0x251EE, size: 0x8, addend: 0x0, symName: '__ZN4core3ptr90drop_in_place$LT$core..option..Option$LT$alloc..boxed..Box$LT$syn..item..FnArg$GT$$GT$$GT$17he2c9ad23abcec964E', symObjAddr: 0x9ED0, symBinAddr: 0xAAB0, symSize: 0x50 }
  - { offsetInCU: 0x253DC, offset: 0x253DC, size: 0x8, addend: 0x0, symName: '__ZN4core3ptr91drop_in_place$LT$syn..punctuated..Punctuated$LT$syn..expr..Expr$C$syn..token..Comma$GT$$GT$17ha51cc4d92ad23509E', symObjAddr: 0x9F20, symBinAddr: 0xAB00, symSize: 0x120 }
  - { offsetInCU: 0x25839, offset: 0x25839, size: 0x8, addend: 0x0, symName: '__ZN4core3ptr92drop_in_place$LT$core..option..Option$LT$$LP$syn..token..As$C$proc_macro2..Ident$RP$$GT$$GT$17h3c595e659916cea5E', symObjAddr: 0xA040, symBinAddr: 0xAC20, symSize: 0x30 }
  - { offsetInCU: 0x25955, offset: 0x25955, size: 0x8, addend: 0x0, symName: '__ZN4core3ptr92drop_in_place$LT$syn..punctuated..Punctuated$LT$syn..data..Field$C$syn..token..Comma$GT$$GT$17h4090f7ddc540e2caE', symObjAddr: 0xA070, symBinAddr: 0xAC50, symSize: 0x120 }
  - { offsetInCU: 0x25D9F, offset: 0x25D9F, size: 0x8, addend: 0x0, symName: '__ZN4core3ptr92drop_in_place$LT$syn..punctuated..Punctuated$LT$syn..item..FnArg$C$syn..token..Comma$GT$$GT$17ha71cbb3d0534d609E', symObjAddr: 0xA190, symBinAddr: 0xAD70, symSize: 0x240 }
  - { offsetInCU: 0x269D2, offset: 0x269D2, size: 0x8, addend: 0x0, symName: '__ZN4core3ptr94drop_in_place$LT$syn..punctuated..Punctuated$LT$syn..data..Variant$C$syn..token..Comma$GT$$GT$17h0afac56d00c24057E', symObjAddr: 0xA3D0, symBinAddr: 0xAFB0, symSize: 0x120 }
  - { offsetInCU: 0x26EAB, offset: 0x26EAB, size: 0x8, addend: 0x0, symName: '__ZN4core3ptr94drop_in_place$LT$syn..punctuated..Punctuated$LT$syn..pat..FieldPat$C$syn..token..Comma$GT$$GT$17hee9344b53778fcf7E', symObjAddr: 0xA4F0, symBinAddr: 0xB0D0, symSize: 0xF0 }
  - { offsetInCU: 0x27188, offset: 0x27188, size: 0x8, addend: 0x0, symName: '__ZN4core3ptr94drop_in_place$LT$syn..punctuated..Punctuated$LT$syn..ty..BareFnArg$C$syn..token..Comma$GT$$GT$17ha158df8e8018dc58E', symObjAddr: 0xA5E0, symBinAddr: 0xB1C0, symSize: 0x90 }
  - { offsetInCU: 0x273BE, offset: 0x273BE, size: 0x8, addend: 0x0, symName: '__ZN4core3ptr95drop_in_place$LT$core..option..Option$LT$$LP$proc_macro2..Ident$C$syn..token..Colon$RP$$GT$$GT$17hda1f39713f334988E.llvm.3927954872380550530', symObjAddr: 0xA670, symBinAddr: 0xB250, symSize: 0x30 }
  - { offsetInCU: 0x274DA, offset: 0x274DA, size: 0x8, addend: 0x0, symName: '__ZN4core3ptr96drop_in_place$LT$core..option..Option$LT$alloc..boxed..Box$LT$syn..path..PathSegment$GT$$GT$$GT$17h14c085c15b9994cdE', symObjAddr: 0xA6A0, symBinAddr: 0xB280, symSize: 0x90 }
  - { offsetInCU: 0x27816, offset: 0x27816, size: 0x8, addend: 0x0, symName: '__ZN4core3ptr97drop_in_place$LT$syn..punctuated..Punctuated$LT$syn..expr..FieldValue$C$syn..token..Comma$GT$$GT$17haca1318b8f4ef9d5E', symObjAddr: 0xA780, symBinAddr: 0xB310, symSize: 0x1A0 }
  - { offsetInCU: 0x27D0A, offset: 0x27D0A, size: 0x8, addend: 0x0, symName: '__ZN4core3ptr97drop_in_place$LT$syn..punctuated..Punctuated$LT$syn..lifetime..Lifetime$C$syn..token..Add$GT$$GT$17hec71240064666ff2E.llvm.3927954872380550530', symObjAddr: 0xA920, symBinAddr: 0xB4B0, symSize: 0xC0 }
  - { offsetInCU: 0x28180, offset: 0x28180, size: 0x8, addend: 0x0, symName: '__ZN4core3ptr99drop_in_place$LT$syn..punctuated..Punctuated$LT$syn..path..PathSegment$C$syn..token..Colon2$GT$$GT$17h19f645f358194f3dE.llvm.3927954872380550530', symObjAddr: 0xA9E0, symBinAddr: 0xB570, symSize: 0x1A0 }
  - { offsetInCU: 0x2F846, offset: 0x2F846, size: 0x8, addend: 0x0, symName: '__ZN70_$LT$alloc..vec..Vec$LT$T$C$A$GT$$u20$as$u20$core..ops..drop..Drop$GT$4drop17h07b90d6e75b47fcbE', symObjAddr: 0xABE0, symBinAddr: 0xB710, symSize: 0xD0 }
  - { offsetInCU: 0x2FA2F, offset: 0x2FA2F, size: 0x8, addend: 0x0, symName: '__ZN70_$LT$alloc..vec..Vec$LT$T$C$A$GT$$u20$as$u20$core..ops..drop..Drop$GT$4drop17h60e82414c2748d7fE', symObjAddr: 0xADB0, symBinAddr: 0xB7E0, symSize: 0xD0 }
  - { offsetInCU: 0x2FB67, offset: 0x2FB67, size: 0x8, addend: 0x0, symName: '__ZN70_$LT$alloc..vec..Vec$LT$T$C$A$GT$$u20$as$u20$core..ops..drop..Drop$GT$4drop17h700cae0ee23a997cE', symObjAddr: 0xAF00, symBinAddr: 0xB8B0, symSize: 0xB0 }
  - { offsetInCU: 0x2FC9F, offset: 0x2FC9F, size: 0x8, addend: 0x0, symName: '__ZN70_$LT$alloc..vec..Vec$LT$T$C$A$GT$$u20$as$u20$core..ops..drop..Drop$GT$4drop17h9158ac43ad9bbc3bE', symObjAddr: 0xB210, symBinAddr: 0xB960, symSize: 0xB0 }
  - { offsetInCU: 0x2FD01, offset: 0x2FD01, size: 0x8, addend: 0x0, symName: '__ZN70_$LT$alloc..vec..Vec$LT$T$C$A$GT$$u20$as$u20$core..ops..drop..Drop$GT$4drop17haf5fac7bdd09bb8aE', symObjAddr: 0xB520, symBinAddr: 0xBA10, symSize: 0x90 }
  - { offsetInCU: 0x2FDAE, offset: 0x2FDAE, size: 0x8, addend: 0x0, symName: '__ZN70_$LT$alloc..vec..Vec$LT$T$C$A$GT$$u20$as$u20$core..ops..drop..Drop$GT$4drop17hc37c22ae0c8b3f85E', symObjAddr: 0xB630, symBinAddr: 0xBAA0, symSize: 0x90 }
  - { offsetInCU: 0x1E, offset: 0x357D1, size: 0x8, addend: 0x0, symName: __ZN10proc_macro6bridge6client14HandleCounters3get17h02da01958788119eE, symObjAddr: 0x0, symBinAddr: 0xBB30, symSize: 0x10 }
  - { offsetInCU: 0x40, offset: 0x357F3, size: 0x8, addend: 0x0, symName: ___rustc_proc_macro_decls_285eacfea730540e__, symObjAddr: 0x80E0, symBinAddr: 0x2A4368, symSize: 0x0 }
  - { offsetInCU: 0x7A, offset: 0x3582D, size: 0x8, addend: 0x0, symName: __ZN12borsh_derive15borsh_serialize17hc30bf93773cb6c15E, symObjAddr: 0x5F70, symBinAddr: 0x11AA0, symSize: 0x580 }
  - { offsetInCU: 0xFD9, offset: 0x3678C, size: 0x8, addend: 0x0, symName: __ZN12borsh_derive17borsh_deserialize17hd807be7b0bd2d3fcE, symObjAddr: 0x64F0, symBinAddr: 0x12020, symSize: 0x580 }
  - { offsetInCU: 0x1F38, offset: 0x376EB, size: 0x8, addend: 0x0, symName: __ZN12borsh_derive12borsh_schema17h268e357de5f278e0E, symObjAddr: 0x6A70, symBinAddr: 0x125A0, symSize: 0x655 }
  - { offsetInCU: 0x65F1, offset: 0x3BDA4, size: 0x8, addend: 0x0, symName: '__ZN4core3ptr100drop_in_place$LT$core..option..Option$LT$alloc..boxed..Box$LT$syn..path..GenericArgument$GT$$GT$$GT$17he9cc088f95de166eE', symObjAddr: 0x10, symBinAddr: 0xBB40, symSize: 0x50 }
  - { offsetInCU: 0x68D7, offset: 0x3C08A, size: 0x8, addend: 0x0, symName: '__ZN4core3ptr101drop_in_place$LT$core..option..Option$LT$alloc..boxed..Box$LT$syn..generics..GenericParam$GT$$GT$$GT$17h532571a2743cbdf7E', symObjAddr: 0x60, symBinAddr: 0xBB90, symSize: 0x260 }
  - { offsetInCU: 0x7308, offset: 0x3CABB, size: 0x8, addend: 0x0, symName: '__ZN4core3ptr103drop_in_place$LT$core..option..Option$LT$alloc..boxed..Box$LT$syn..generics..WherePredicate$GT$$GT$$GT$17h005e08f445d9caf4E', symObjAddr: 0x2C0, symBinAddr: 0xBDF0, symSize: 0x100 }
  - { offsetInCU: 0x7711, offset: 0x3CEC4, size: 0x8, addend: 0x0, symName: '__ZN4core3ptr103drop_in_place$LT$syn..punctuated..Punctuated$LT$syn..generics..TypeParamBound$C$syn..token..Add$GT$$GT$17h70770eda5d6f3bc5E', symObjAddr: 0x3C0, symBinAddr: 0xBEF0, symSize: 0x200 }
  - { offsetInCU: 0x7FAF, offset: 0x3D762, size: 0x8, addend: 0x0, symName: '__ZN4core3ptr108drop_in_place$LT$syn..punctuated..Punctuated$LT$syn..expr..GenericMethodArgument$C$syn..token..Comma$GT$$GT$17h40e46e243f70ff56E', symObjAddr: 0x5C0, symBinAddr: 0xC0F0, symSize: 0x160 }
  - { offsetInCU: 0x84C4, offset: 0x3DC77, size: 0x8, addend: 0x0, symName: '__ZN4core3ptr34drop_in_place$LT$syn..lit..Lit$GT$17h0ea3db2faff11f95E', symObjAddr: 0x720, symBinAddr: 0xC250, symSize: 0x110 }
  - { offsetInCU: 0x89A1, offset: 0x3E154, size: 0x8, addend: 0x0, symName: '__ZN4core3ptr34drop_in_place$LT$syn..pat..Pat$GT$17hae27b38ca4062827E', symObjAddr: 0x830, symBinAddr: 0xC360, symSize: 0x9F0 }
  - { offsetInCU: 0xB41A, offset: 0x40BCD, size: 0x8, addend: 0x0, symName: '__ZN4core3ptr34drop_in_place$LT$syn..ty..Type$GT$17hf0ca6316b7acd8e3E', symObjAddr: 0x1220, symBinAddr: 0xCD50, symSize: 0x570 }
  - { offsetInCU: 0xCE82, offset: 0x42635, size: 0x8, addend: 0x0, symName: '__ZN4core3ptr36drop_in_place$LT$syn..expr..Expr$GT$17h3c2fa1066c5db92bE', symObjAddr: 0x1790, symBinAddr: 0xD2C0, symSize: 0x1E40 }
  - { offsetInCU: 0x14DEF, offset: 0x4A5A2, size: 0x8, addend: 0x0, symName: '__ZN4core3ptr36drop_in_place$LT$syn..mac..Macro$GT$17h4ae82d5bf77a9fc9E', symObjAddr: 0x35D0, symBinAddr: 0xF100, symSize: 0xE0 }
  - { offsetInCU: 0x151DC, offset: 0x4A98F, size: 0x8, addend: 0x0, symName: '__ZN4core3ptr36drop_in_place$LT$syn..path..Path$GT$17hb33b7aff82575941E', symObjAddr: 0x36B0, symBinAddr: 0xF1E0, symSize: 0x230 }
  - { offsetInCU: 0x15B11, offset: 0x4B2C4, size: 0x8, addend: 0x0, symName: '__ZN4core3ptr37drop_in_place$LT$syn..stmt..Block$GT$17ha795ccebd4ea9741E', symObjAddr: 0x38E0, symBinAddr: 0xF410, symSize: 0xD0 }
  - { offsetInCU: 0x15E50, offset: 0x4B603, size: 0x8, addend: 0x0, symName: '__ZN4core3ptr38drop_in_place$LT$syn..data..Fields$GT$17h1feb1a2abbf69ee9E', symObjAddr: 0x39B0, symBinAddr: 0xF4E0, symSize: 0x180 }
  - { offsetInCU: 0x162AC, offset: 0x4BA5F, size: 0x8, addend: 0x0, symName: '__ZN4core3ptr38drop_in_place$LT$syn..error..Error$GT$17he7ef3d8b7ccce83bE', symObjAddr: 0x3B30, symBinAddr: 0xF660, symSize: 0x70 }
  - { offsetInCU: 0x1656A, offset: 0x4BD1D, size: 0x8, addend: 0x0, symName: '__ZN4core3ptr38drop_in_place$LT$syn..expr..Member$GT$17h3b5a26ad209ee938E', symObjAddr: 0x3BA0, symBinAddr: 0xF6D0, symSize: 0x30 }
  - { offsetInCU: 0x16667, offset: 0x4BE1A, size: 0x8, addend: 0x0, symName: '__ZN4core3ptr39drop_in_place$LT$proc_macro2..Ident$GT$17h63da221b05914407E', symObjAddr: 0x3BD0, symBinAddr: 0xF700, symSize: 0x30 }
  - { offsetInCU: 0x16745, offset: 0x4BEF8, size: 0x8, addend: 0x0, symName: '__ZN4core3ptr39drop_in_place$LT$syn..pat..PatTuple$GT$17h07764f346a3d724eE', symObjAddr: 0x3C00, symBinAddr: 0xF730, symSize: 0x80 }
  - { offsetInCU: 0x16A07, offset: 0x4C1BA, size: 0x8, addend: 0x0, symName: '__ZN4core3ptr40drop_in_place$LT$syn..item..ItemEnum$GT$17he47969930a2e69baE', symObjAddr: 0x3C80, symBinAddr: 0xF7B0, symSize: 0x1E0 }
  - { offsetInCU: 0x1713E, offset: 0x4C8F1, size: 0x8, addend: 0x0, symName: '__ZN4core3ptr40drop_in_place$LT$syn..ty..ReturnType$GT$17h8adb205861c60675E', symObjAddr: 0x3E60, symBinAddr: 0xF990, symSize: 0x50 }
  - { offsetInCU: 0x172B0, offset: 0x4CA63, size: 0x8, addend: 0x0, symName: '__ZN4core3ptr41drop_in_place$LT$syn..item..ItemUnion$GT$17h07bc65dd57950e8eE', symObjAddr: 0x3EB0, symBinAddr: 0xF9E0, symSize: 0x1E0 }
  - { offsetInCU: 0x179FE, offset: 0x4D1B1, size: 0x8, addend: 0x0, symName: '__ZN4core3ptr42drop_in_place$LT$syn..data..Visibility$GT$17h873adcdd6b6b058eE', symObjAddr: 0x4090, symBinAddr: 0xFBC0, symSize: 0x60 }
  - { offsetInCU: 0x17B81, offset: 0x4D334, size: 0x8, addend: 0x0, symName: '__ZN4core3ptr42drop_in_place$LT$syn..item..ItemStruct$GT$17h91e03c451f7600caE', symObjAddr: 0x40F0, symBinAddr: 0xFC20, symSize: 0x130 }
  - { offsetInCU: 0x17FE0, offset: 0x4D793, size: 0x8, addend: 0x0, symName: '__ZN4core3ptr43drop_in_place$LT$syn..data..FieldsNamed$GT$17hb1524c9ece952006E', symObjAddr: 0x4220, symBinAddr: 0xFD50, symSize: 0xE0 }
  - { offsetInCU: 0x1832C, offset: 0x4DADF, size: 0x8, addend: 0x0, symName: '__ZN4core3ptr44drop_in_place$LT$syn..generics..Generics$GT$17h59220b015966a12fE', symObjAddr: 0x4300, symBinAddr: 0xFE30, symSize: 0xB0 }
  - { offsetInCU: 0x1855E, offset: 0x4DD11, size: 0x8, addend: 0x0, symName: '__ZN4core3ptr44drop_in_place$LT$syn..lifetime..Lifetime$GT$17hcb99b9c0e6f082bcE', symObjAddr: 0x43B0, symBinAddr: 0xFEE0, symSize: 0x30 }
  - { offsetInCU: 0x18791, offset: 0x4DF44, size: 0x8, addend: 0x0, symName: '__ZN4core3ptr45drop_in_place$LT$proc_macro2..TokenStream$GT$17h68a2353e050af036E', symObjAddr: 0x43E0, symBinAddr: 0xFF10, symSize: 0x140 }
  - { offsetInCU: 0x18BC2, offset: 0x4E375, size: 0x8, addend: 0x0, symName: '__ZN4core3ptr47drop_in_place$LT$syn..generics..LifetimeDef$GT$17h18611d8aac4601d6E', symObjAddr: 0x4520, symBinAddr: 0x10050, symSize: 0xB0 }
  - { offsetInCU: 0x18F1A, offset: 0x4E6CD, size: 0x8, addend: 0x0, symName: '__ZN4core3ptr47drop_in_place$LT$syn..path..GenericArgument$GT$17h7f3b80596c1c7c27E', symObjAddr: 0x45D0, symBinAddr: 0x10100, symSize: 0xE0 }
  - { offsetInCU: 0x19247, offset: 0x4E9FA, size: 0x8, addend: 0x0, symName: '__ZN4core3ptr58drop_in_place$LT$alloc..vec..Vec$LT$syn..expr..Arm$GT$$GT$17h48bdf237d42dad5fE', symObjAddr: 0x46B0, symBinAddr: 0x101E0, symSize: 0xD0 }
  - { offsetInCU: 0x194D4, offset: 0x4EC87, size: 0x8, addend: 0x0, symName: '__ZN4core3ptr59drop_in_place$LT$alloc..boxed..Box$LT$syn..pat..Pat$GT$$GT$17h7e6aefc66cc78e8aE', symObjAddr: 0x4780, symBinAddr: 0x102B0, symSize: 0x50 }
  - { offsetInCU: 0x1962F, offset: 0x4EDE2, size: 0x8, addend: 0x0, symName: '__ZN4core3ptr59drop_in_place$LT$alloc..boxed..Box$LT$syn..ty..Type$GT$$GT$17h08aeddbe6076bbcbE', symObjAddr: 0x47D0, symBinAddr: 0x10300, symSize: 0x50 }
  - { offsetInCU: 0x1978A, offset: 0x4EF3D, size: 0x8, addend: 0x0, symName: '__ZN4core3ptr61drop_in_place$LT$alloc..boxed..Box$LT$syn..expr..Expr$GT$$GT$17hbbaffcfed55e0ee0E', symObjAddr: 0x4820, symBinAddr: 0x10350, symSize: 0x50 }
  - { offsetInCU: 0x198E5, offset: 0x4F098, size: 0x8, addend: 0x0, symName: '__ZN4core3ptr61drop_in_place$LT$syn..path..ParenthesizedGenericArguments$GT$17h997791ba314bf4edE', symObjAddr: 0x4870, symBinAddr: 0x103A0, symSize: 0x170 }
  - { offsetInCU: 0x19EBF, offset: 0x4F672, size: 0x8, addend: 0x0, symName: '__ZN4core3ptr63drop_in_place$LT$alloc..boxed..Box$LT$syn..lit..LitRepr$GT$$GT$17hae60ef2ff0f92e72E', symObjAddr: 0x49E0, symBinAddr: 0x10510, symSize: 0x60 }
  - { offsetInCU: 0x1A1B4, offset: 0x4F967, size: 0x8, addend: 0x0, symName: '__ZN4core3ptr64drop_in_place$LT$alloc..boxed..Box$LT$syn..pat..FieldPat$GT$$GT$17hef4a75412ddda2ebE', symObjAddr: 0x4A40, symBinAddr: 0x10570, symSize: 0x100 }
  - { offsetInCU: 0x1A7CF, offset: 0x4FF82, size: 0x8, addend: 0x0, symName: '__ZN4core3ptr64drop_in_place$LT$alloc..boxed..Box$LT$syn..ty..BareFnArg$GT$$GT$17h32a84282092f1c70E', symObjAddr: 0x4B40, symBinAddr: 0x10670, symSize: 0xE0 }
  - { offsetInCU: 0x1AC55, offset: 0x50408, size: 0x8, addend: 0x0, symName: '__ZN4core3ptr65drop_in_place$LT$core..option..Option$LT$syn..expr..Label$GT$$GT$17h637b893948230b43E', symObjAddr: 0x4C20, symBinAddr: 0x10750, symSize: 0x30 }
  - { offsetInCU: 0x1AD90, offset: 0x50543, size: 0x8, addend: 0x0, symName: '__ZN4core3ptr66drop_in_place$LT$core..option..Option$LT$syn..ty..Variadic$GT$$GT$17h7311a97de7e6c407E', symObjAddr: 0x4C50, symBinAddr: 0x10780, symSize: 0x80 }
  - { offsetInCU: 0x1AFE6, offset: 0x50799, size: 0x8, addend: 0x0, symName: '__ZN4core3ptr67drop_in_place$LT$alloc..boxed..Box$LT$syn..expr..FieldValue$GT$$GT$17hb417837c478aa2a4E', symObjAddr: 0x4CD0, symBinAddr: 0x10800, symSize: 0xF0 }
  - { offsetInCU: 0x1B458, offset: 0x50C0B, size: 0x8, addend: 0x0, symName: '__ZN4core3ptr72drop_in_place$LT$core..option..Option$LT$syn..lifetime..Lifetime$GT$$GT$17h4911df211dda2e7fE', symObjAddr: 0x4DC0, symBinAddr: 0x108F0, symSize: 0x30 }
  - { offsetInCU: 0x1B574, offset: 0x50D27, size: 0x8, addend: 0x0, symName: '__ZN4core3ptr75drop_in_place$LT$alloc..boxed..Box$LT$syn..generics..TypeParamBound$GT$$GT$17h79502df08517a1abE', symObjAddr: 0x4DF0, symBinAddr: 0x10920, symSize: 0x140 }
  - { offsetInCU: 0x1BB25, offset: 0x512D8, size: 0x8, addend: 0x0, symName: '__ZN4core3ptr75drop_in_place$LT$core..option..Option$LT$syn..generics..WhereClause$GT$$GT$17hdb68a184c873cfe8E', symObjAddr: 0x4F30, symBinAddr: 0x10A60, symSize: 0x100 }
  - { offsetInCU: 0x1BDAC, offset: 0x5155F, size: 0x8, addend: 0x0, symName: '__ZN4core3ptr78drop_in_place$LT$alloc..boxed..Box$LT$syn..expr..GenericMethodArgument$GT$$GT$17hc55befa3a35d52b5E', symObjAddr: 0x5030, symBinAddr: 0x10B60, symSize: 0x60 }
  - { offsetInCU: 0x1BFDE, offset: 0x51791, size: 0x8, addend: 0x0, symName: '__ZN4core3ptr78drop_in_place$LT$core..option..Option$LT$syn..generics..BoundLifetimes$GT$$GT$17ha84a340326854102E', symObjAddr: 0x5090, symBinAddr: 0x10BC0, symSize: 0xD0 }
  - { offsetInCU: 0x1C487, offset: 0x51C3A, size: 0x8, addend: 0x0, symName: '__ZN4core3ptr86drop_in_place$LT$syn..punctuated..Punctuated$LT$syn..pat..Pat$C$syn..token..Or$GT$$GT$17h88c3b7e3d2288112E', symObjAddr: 0x5160, symBinAddr: 0x10C90, symSize: 0x120 }
  - { offsetInCU: 0x1C8CD, offset: 0x52080, size: 0x8, addend: 0x0, symName: '__ZN4core3ptr87drop_in_place$LT$core..option..Option$LT$alloc..boxed..Box$LT$syn..pat..Pat$GT$$GT$$GT$17h1b4dd0887ce4d1d2E', symObjAddr: 0x5280, symBinAddr: 0x10DB0, symSize: 0x50 }
  - { offsetInCU: 0x1CA3F, offset: 0x521F2, size: 0x8, addend: 0x0, symName: '__ZN4core3ptr87drop_in_place$LT$core..option..Option$LT$alloc..boxed..Box$LT$syn..ty..Type$GT$$GT$$GT$17hbec88cd4eccce1d5E', symObjAddr: 0x52D0, symBinAddr: 0x10E00, symSize: 0x50 }
  - { offsetInCU: 0x1CBD0, offset: 0x52383, size: 0x8, addend: 0x0, symName: '__ZN4core3ptr88drop_in_place$LT$core..result..Result$LT$syn..item..ItemEnum$C$syn..error..Error$GT$$GT$17h9b828031e8dc17d6E', symObjAddr: 0x5320, symBinAddr: 0x10E50, symSize: 0x90 }
  - { offsetInCU: 0x1CEA3, offset: 0x52656, size: 0x8, addend: 0x0, symName: '__ZN4core3ptr89drop_in_place$LT$core..option..Option$LT$alloc..boxed..Box$LT$syn..expr..Expr$GT$$GT$$GT$17h029806b02339e96fE', symObjAddr: 0x53B0, symBinAddr: 0x10EE0, symSize: 0x50 }
  - { offsetInCU: 0x1D015, offset: 0x527C8, size: 0x8, addend: 0x0, symName: '__ZN4core3ptr89drop_in_place$LT$core..result..Result$LT$syn..item..ItemUnion$C$syn..error..Error$GT$$GT$17h7a2e5fdeb8e307b6E', symObjAddr: 0x5400, symBinAddr: 0x10F30, symSize: 0x90 }
  - { offsetInCU: 0x1D326, offset: 0x52AD9, size: 0x8, addend: 0x0, symName: '__ZN4core3ptr89drop_in_place$LT$syn..punctuated..Punctuated$LT$syn..pat..Pat$C$syn..token..Comma$GT$$GT$17hd9c4eaca6c5823d1E', symObjAddr: 0x5490, symBinAddr: 0x10FC0, symSize: 0x120 }
  - { offsetInCU: 0x1D7E0, offset: 0x52F93, size: 0x8, addend: 0x0, symName: '__ZN4core3ptr90drop_in_place$LT$core..option..Option$LT$alloc..boxed..Box$LT$syn..data..Field$GT$$GT$$GT$17h388d78c870b52b3eE', symObjAddr: 0x55B0, symBinAddr: 0x110E0, symSize: 0x1A0 }
  - { offsetInCU: 0x1DF85, offset: 0x53738, size: 0x8, addend: 0x0, symName: '__ZN4core3ptr90drop_in_place$LT$core..result..Result$LT$syn..item..ItemStruct$C$syn..error..Error$GT$$GT$17h171088e1a22e58d2E', symObjAddr: 0x5750, symBinAddr: 0x11280, symSize: 0x90 }
  - { offsetInCU: 0x1E296, offset: 0x53A49, size: 0x8, addend: 0x0, symName: '__ZN4core3ptr91drop_in_place$LT$syn..punctuated..Punctuated$LT$syn..expr..Expr$C$syn..token..Comma$GT$$GT$17ha51cc4d92ad23509E', symObjAddr: 0x57E0, symBinAddr: 0x11310, symSize: 0x120 }
  - { offsetInCU: 0x1E76F, offset: 0x53F22, size: 0x8, addend: 0x0, symName: '__ZN4core3ptr92drop_in_place$LT$core..option..Option$LT$alloc..boxed..Box$LT$syn..data..Variant$GT$$GT$$GT$17hf67498508a900da8E', symObjAddr: 0x5900, symBinAddr: 0x11430, symSize: 0x140 }
  - { offsetInCU: 0x1ED29, offset: 0x544DC, size: 0x8, addend: 0x0, symName: '__ZN4core3ptr94drop_in_place$LT$syn..punctuated..Punctuated$LT$syn..data..Variant$C$syn..token..Comma$GT$$GT$17h0afac56d00c24057E', symObjAddr: 0x5A40, symBinAddr: 0x11570, symSize: 0xE0 }
  - { offsetInCU: 0x1EFF9, offset: 0x547AC, size: 0x8, addend: 0x0, symName: '__ZN4core3ptr94drop_in_place$LT$syn..punctuated..Punctuated$LT$syn..pat..FieldPat$C$syn..token..Comma$GT$$GT$17hee9344b53778fcf7E', symObjAddr: 0x5B20, symBinAddr: 0x11650, symSize: 0xF0 }
  - { offsetInCU: 0x1F2C3, offset: 0x54A76, size: 0x8, addend: 0x0, symName: '__ZN4core3ptr94drop_in_place$LT$syn..punctuated..Punctuated$LT$syn..ty..BareFnArg$C$syn..token..Comma$GT$$GT$17ha158df8e8018dc58E', symObjAddr: 0x5C10, symBinAddr: 0x11740, symSize: 0x90 }
  - { offsetInCU: 0x1F4F9, offset: 0x54CAC, size: 0x8, addend: 0x0, symName: '__ZN4core3ptr96drop_in_place$LT$core..option..Option$LT$alloc..boxed..Box$LT$syn..path..PathSegment$GT$$GT$$GT$17h14c085c15b9994cdE', symObjAddr: 0x5CA0, symBinAddr: 0x117D0, symSize: 0x180 }
  - { offsetInCU: 0x1FB8A, offset: 0x5533D, size: 0x8, addend: 0x0, symName: '__ZN4core3ptr97drop_in_place$LT$syn..punctuated..Punctuated$LT$syn..expr..FieldValue$C$syn..token..Comma$GT$$GT$17haca1318b8f4ef9d5E', symObjAddr: 0x5E20, symBinAddr: 0x11950, symSize: 0x90 }
  - { offsetInCU: 0x1FE3C, offset: 0x555EF, size: 0x8, addend: 0x0, symName: '__ZN4core3ptr97drop_in_place$LT$syn..punctuated..Punctuated$LT$syn..lifetime..Lifetime$C$syn..token..Add$GT$$GT$17hec71240064666ff2E', symObjAddr: 0x5EB0, symBinAddr: 0x119E0, symSize: 0xC0 }
  - { offsetInCU: 0x20C9D, offset: 0x56450, size: 0x8, addend: 0x0, symName: __ZN10proc_macro6bridge6client14HandleCounters3get17h02da01958788119eE, symObjAddr: 0x0, symBinAddr: 0xBB30, symSize: 0x10 }
  - { offsetInCU: 0x1E, offset: 0x60B61, size: 0x8, addend: 0x0, symName: __ZN5alloc7raw_vec11finish_grow17hb24b7c4bd432fa5eE.llvm.12802270960135522342, symObjAddr: 0x0, symBinAddr: 0x12C00, symSize: 0x90 }
  - { offsetInCU: 0xDA8, offset: 0x618EB, size: 0x8, addend: 0x0, symName: __ZN5alloc7raw_vec11finish_grow17hb24b7c4bd432fa5eE.llvm.12802270960135522342, symObjAddr: 0x0, symBinAddr: 0x12C00, symSize: 0x90 }
  - { offsetInCU: 0x1119, offset: 0x61C5C, size: 0x8, addend: 0x0, symName: '__ZN5alloc7raw_vec19RawVec$LT$T$C$A$GT$7reserve21do_reserve_and_handle17hebddf65cf455f8d9E', symObjAddr: 0x1B0, symBinAddr: 0x228690, symSize: 0xB0 }
  - { offsetInCU: 0x14BA, offset: 0x61FFD, size: 0x8, addend: 0x0, symName: '__ZN77_$LT$alloc..raw_vec..RawVec$LT$T$C$A$GT$$u20$as$u20$core..ops..drop..Drop$GT$4drop17h419a7bb8cb9974e0E', symObjAddr: 0x350, symBinAddr: 0x12D40, symSize: 0x30 }
  - { offsetInCU: 0x1EEF, offset: 0x62A32, size: 0x8, addend: 0x0, symName: '__ZN5alloc7raw_vec19RawVec$LT$T$C$A$GT$16reserve_for_push17h9612be6ce8423d5cE', symObjAddr: 0x100, symBinAddr: 0x12C90, symSize: 0xB0 }
  - { offsetInCU: 0x1E, offset: 0x62E15, size: 0x8, addend: 0x0, symName: __ZN3syn5parse6Parser5parse17hb012fe401beb686eE, symObjAddr: 0x0, symBinAddr: 0x12D70, symSize: 0x540 }
  - { offsetInCU: 0x19DD, offset: 0x647D4, size: 0x8, addend: 0x0, symName: '__ZN4core3ptr100drop_in_place$LT$core..option..Option$LT$alloc..boxed..Box$LT$syn..path..GenericArgument$GT$$GT$$GT$17he9cc088f95de166eE', symObjAddr: 0xFB0, symBinAddr: 0x13D20, symSize: 0x50 }
  - { offsetInCU: 0x1CC3, offset: 0x64ABA, size: 0x8, addend: 0x0, symName: '__ZN4core3ptr101drop_in_place$LT$core..option..Option$LT$alloc..boxed..Box$LT$syn..generics..GenericParam$GT$$GT$$GT$17h532571a2743cbdf7E', symObjAddr: 0x1000, symBinAddr: 0x13D70, symSize: 0x260 }
  - { offsetInCU: 0x26F4, offset: 0x654EB, size: 0x8, addend: 0x0, symName: '__ZN4core3ptr103drop_in_place$LT$core..option..Option$LT$alloc..boxed..Box$LT$syn..generics..WherePredicate$GT$$GT$$GT$17h005e08f445d9caf4E', symObjAddr: 0x1260, symBinAddr: 0x13FD0, symSize: 0x100 }
  - { offsetInCU: 0x2AFD, offset: 0x658F4, size: 0x8, addend: 0x0, symName: '__ZN4core3ptr103drop_in_place$LT$syn..punctuated..Punctuated$LT$syn..generics..TypeParamBound$C$syn..token..Add$GT$$GT$17h70770eda5d6f3bc5E', symObjAddr: 0x1360, symBinAddr: 0x140D0, symSize: 0x200 }
  - { offsetInCU: 0x339B, offset: 0x66192, size: 0x8, addend: 0x0, symName: '__ZN4core3ptr108drop_in_place$LT$syn..punctuated..Punctuated$LT$syn..expr..GenericMethodArgument$C$syn..token..Comma$GT$$GT$17h40e46e243f70ff56E', symObjAddr: 0x1560, symBinAddr: 0x142D0, symSize: 0x160 }
  - { offsetInCU: 0x38B0, offset: 0x666A7, size: 0x8, addend: 0x0, symName: '__ZN4core3ptr34drop_in_place$LT$syn..lit..Lit$GT$17h0ea3db2faff11f95E', symObjAddr: 0x16C0, symBinAddr: 0x14430, symSize: 0x110 }
  - { offsetInCU: 0x3D8D, offset: 0x66B84, size: 0x8, addend: 0x0, symName: '__ZN4core3ptr34drop_in_place$LT$syn..pat..Pat$GT$17hae27b38ca4062827E', symObjAddr: 0x17D0, symBinAddr: 0x14540, symSize: 0x9F0 }
  - { offsetInCU: 0x6806, offset: 0x695FD, size: 0x8, addend: 0x0, symName: '__ZN4core3ptr34drop_in_place$LT$syn..ty..Type$GT$17hf0ca6316b7acd8e3E', symObjAddr: 0x21C0, symBinAddr: 0x14F30, symSize: 0x570 }
  - { offsetInCU: 0x826E, offset: 0x6B065, size: 0x8, addend: 0x0, symName: '__ZN4core3ptr36drop_in_place$LT$syn..expr..Expr$GT$17h3c2fa1066c5db92bE', symObjAddr: 0x2730, symBinAddr: 0x154A0, symSize: 0x1E40 }
  - { offsetInCU: 0x101DB, offset: 0x72FD2, size: 0x8, addend: 0x0, symName: '__ZN4core3ptr36drop_in_place$LT$syn..mac..Macro$GT$17h4ae82d5bf77a9fc9E', symObjAddr: 0x4570, symBinAddr: 0x172E0, symSize: 0xE0 }
  - { offsetInCU: 0x105C8, offset: 0x733BF, size: 0x8, addend: 0x0, symName: '__ZN4core3ptr36drop_in_place$LT$syn..path..Path$GT$17hb33b7aff82575941E', symObjAddr: 0x4650, symBinAddr: 0x173C0, symSize: 0x230 }
  - { offsetInCU: 0x10EFD, offset: 0x73CF4, size: 0x8, addend: 0x0, symName: '__ZN4core3ptr37drop_in_place$LT$syn..stmt..Block$GT$17ha795ccebd4ea9741E', symObjAddr: 0x4880, symBinAddr: 0x175F0, symSize: 0xD0 }
  - { offsetInCU: 0x1123C, offset: 0x74033, size: 0x8, addend: 0x0, symName: '__ZN4core3ptr38drop_in_place$LT$syn..data..Fields$GT$17h1feb1a2abbf69ee9E', symObjAddr: 0x4950, symBinAddr: 0x176C0, symSize: 0x180 }
  - { offsetInCU: 0x1165A, offset: 0x74451, size: 0x8, addend: 0x0, symName: '__ZN4core3ptr38drop_in_place$LT$syn..expr..Member$GT$17h3b5a26ad209ee938E', symObjAddr: 0x4AD0, symBinAddr: 0x17840, symSize: 0x30 }
  - { offsetInCU: 0x11757, offset: 0x7454E, size: 0x8, addend: 0x0, symName: '__ZN4core3ptr39drop_in_place$LT$proc_macro2..Ident$GT$17h63da221b05914407E', symObjAddr: 0x4B00, symBinAddr: 0x17870, symSize: 0x30 }
  - { offsetInCU: 0x1196B, offset: 0x74762, size: 0x8, addend: 0x0, symName: '__ZN4core3ptr39drop_in_place$LT$syn..buffer..Entry$GT$17he68cdf95cf16ae53E', symObjAddr: 0x4B30, symBinAddr: 0x178A0, symSize: 0xC0 }
  - { offsetInCU: 0x11C7F, offset: 0x74A76, size: 0x8, addend: 0x0, symName: '__ZN4core3ptr39drop_in_place$LT$syn..pat..PatTuple$GT$17h07764f346a3d724eE', symObjAddr: 0x4BF0, symBinAddr: 0x17960, symSize: 0x80 }
  - { offsetInCU: 0x11F41, offset: 0x74D38, size: 0x8, addend: 0x0, symName: '__ZN4core3ptr40drop_in_place$LT$syn..item..ItemEnum$GT$17he47969930a2e69baE', symObjAddr: 0x4C70, symBinAddr: 0x179E0, symSize: 0x1E0 }
  - { offsetInCU: 0x12678, offset: 0x7546F, size: 0x8, addend: 0x0, symName: '__ZN4core3ptr40drop_in_place$LT$syn..ty..ReturnType$GT$17h8adb205861c60675E', symObjAddr: 0x4E50, symBinAddr: 0x17BC0, symSize: 0x50 }
  - { offsetInCU: 0x127EA, offset: 0x755E1, size: 0x8, addend: 0x0, symName: '__ZN4core3ptr41drop_in_place$LT$syn..item..ItemUnion$GT$17h07bc65dd57950e8eE', symObjAddr: 0x4EA0, symBinAddr: 0x17C10, symSize: 0x1E0 }
  - { offsetInCU: 0x12F38, offset: 0x75D2F, size: 0x8, addend: 0x0, symName: '__ZN4core3ptr42drop_in_place$LT$syn..data..Visibility$GT$17h873adcdd6b6b058eE', symObjAddr: 0x5080, symBinAddr: 0x17DF0, symSize: 0x60 }
  - { offsetInCU: 0x130BB, offset: 0x75EB2, size: 0x8, addend: 0x0, symName: '__ZN4core3ptr42drop_in_place$LT$syn..item..ItemStruct$GT$17h91e03c451f7600caE', symObjAddr: 0x50E0, symBinAddr: 0x17E50, symSize: 0x130 }
  - { offsetInCU: 0x1351A, offset: 0x76311, size: 0x8, addend: 0x0, symName: '__ZN4core3ptr43drop_in_place$LT$syn..data..FieldsNamed$GT$17hb1524c9ece952006E', symObjAddr: 0x5210, symBinAddr: 0x17F80, symSize: 0xE0 }
  - { offsetInCU: 0x13866, offset: 0x7665D, size: 0x8, addend: 0x0, symName: '__ZN4core3ptr44drop_in_place$LT$syn..generics..Generics$GT$17h59220b015966a12fE', symObjAddr: 0x52F0, symBinAddr: 0x18060, symSize: 0xB0 }
  - { offsetInCU: 0x13A98, offset: 0x7688F, size: 0x8, addend: 0x0, symName: '__ZN4core3ptr44drop_in_place$LT$syn..lifetime..Lifetime$GT$17hcb99b9c0e6f082bcE', symObjAddr: 0x53A0, symBinAddr: 0x18110, symSize: 0x30 }
  - { offsetInCU: 0x13C30, offset: 0x76A27, size: 0x8, addend: 0x0, symName: '__ZN4core3ptr45drop_in_place$LT$proc_macro2..TokenStream$GT$17h68a2353e050af036E', symObjAddr: 0x53D0, symBinAddr: 0x18140, symSize: 0x140 }
  - { offsetInCU: 0x14061, offset: 0x76E58, size: 0x8, addend: 0x0, symName: '__ZN4core3ptr47drop_in_place$LT$syn..generics..LifetimeDef$GT$17h18611d8aac4601d6E', symObjAddr: 0x5510, symBinAddr: 0x18280, symSize: 0xB0 }
  - { offsetInCU: 0x143B9, offset: 0x771B0, size: 0x8, addend: 0x0, symName: '__ZN4core3ptr47drop_in_place$LT$syn..path..GenericArgument$GT$17h7f3b80596c1c7c27E', symObjAddr: 0x55C0, symBinAddr: 0x18330, symSize: 0xE0 }
  - { offsetInCU: 0x146E6, offset: 0x774DD, size: 0x8, addend: 0x0, symName: '__ZN4core3ptr58drop_in_place$LT$alloc..vec..Vec$LT$syn..expr..Arm$GT$$GT$17h48bdf237d42dad5fE', symObjAddr: 0x56A0, symBinAddr: 0x18410, symSize: 0xD0 }
  - { offsetInCU: 0x14973, offset: 0x7776A, size: 0x8, addend: 0x0, symName: '__ZN4core3ptr59drop_in_place$LT$alloc..boxed..Box$LT$syn..pat..Pat$GT$$GT$17h7e6aefc66cc78e8aE', symObjAddr: 0x5770, symBinAddr: 0x184E0, symSize: 0x50 }
  - { offsetInCU: 0x14ACE, offset: 0x778C5, size: 0x8, addend: 0x0, symName: '__ZN4core3ptr59drop_in_place$LT$alloc..boxed..Box$LT$syn..ty..Type$GT$$GT$17h08aeddbe6076bbcbE', symObjAddr: 0x57C0, symBinAddr: 0x18530, symSize: 0x50 }
  - { offsetInCU: 0x14C29, offset: 0x77A20, size: 0x8, addend: 0x0, symName: '__ZN4core3ptr61drop_in_place$LT$alloc..boxed..Box$LT$syn..expr..Expr$GT$$GT$17hbbaffcfed55e0ee0E', symObjAddr: 0x5810, symBinAddr: 0x18580, symSize: 0x50 }
  - { offsetInCU: 0x14D84, offset: 0x77B7B, size: 0x8, addend: 0x0, symName: '__ZN4core3ptr61drop_in_place$LT$syn..path..ParenthesizedGenericArguments$GT$17h997791ba314bf4edE', symObjAddr: 0x5860, symBinAddr: 0x185D0, symSize: 0x170 }
  - { offsetInCU: 0x1535E, offset: 0x78155, size: 0x8, addend: 0x0, symName: '__ZN4core3ptr63drop_in_place$LT$alloc..boxed..Box$LT$syn..lit..LitRepr$GT$$GT$17hae60ef2ff0f92e72E', symObjAddr: 0x59D0, symBinAddr: 0x18740, symSize: 0x60 }
  - { offsetInCU: 0x15653, offset: 0x7844A, size: 0x8, addend: 0x0, symName: '__ZN4core3ptr64drop_in_place$LT$alloc..boxed..Box$LT$syn..pat..FieldPat$GT$$GT$17hef4a75412ddda2ebE', symObjAddr: 0x5A30, symBinAddr: 0x187A0, symSize: 0x100 }
  - { offsetInCU: 0x15C6E, offset: 0x78A65, size: 0x8, addend: 0x0, symName: '__ZN4core3ptr64drop_in_place$LT$alloc..boxed..Box$LT$syn..ty..BareFnArg$GT$$GT$17h32a84282092f1c70E', symObjAddr: 0x5B30, symBinAddr: 0x188A0, symSize: 0xE0 }
  - { offsetInCU: 0x160F4, offset: 0x78EEB, size: 0x8, addend: 0x0, symName: '__ZN4core3ptr65drop_in_place$LT$core..option..Option$LT$syn..expr..Label$GT$$GT$17h637b893948230b43E', symObjAddr: 0x5C10, symBinAddr: 0x18980, symSize: 0x30 }
  - { offsetInCU: 0x1622F, offset: 0x79026, size: 0x8, addend: 0x0, symName: '__ZN4core3ptr66drop_in_place$LT$core..option..Option$LT$syn..ty..Variadic$GT$$GT$17h7311a97de7e6c407E', symObjAddr: 0x5C40, symBinAddr: 0x189B0, symSize: 0x80 }
  - { offsetInCU: 0x16485, offset: 0x7927C, size: 0x8, addend: 0x0, symName: '__ZN4core3ptr67drop_in_place$LT$alloc..boxed..Box$LT$syn..expr..FieldValue$GT$$GT$17hb417837c478aa2a4E', symObjAddr: 0x5CC0, symBinAddr: 0x18A30, symSize: 0xF0 }
  - { offsetInCU: 0x168F7, offset: 0x796EE, size: 0x8, addend: 0x0, symName: '__ZN4core3ptr72drop_in_place$LT$core..option..Option$LT$syn..lifetime..Lifetime$GT$$GT$17h4911df211dda2e7fE', symObjAddr: 0x5DB0, symBinAddr: 0x18B20, symSize: 0x30 }
  - { offsetInCU: 0x16A13, offset: 0x7980A, size: 0x8, addend: 0x0, symName: '__ZN4core3ptr75drop_in_place$LT$alloc..boxed..Box$LT$syn..generics..TypeParamBound$GT$$GT$17h79502df08517a1abE', symObjAddr: 0x5DE0, symBinAddr: 0x18B50, symSize: 0x140 }
  - { offsetInCU: 0x16FC4, offset: 0x79DBB, size: 0x8, addend: 0x0, symName: '__ZN4core3ptr75drop_in_place$LT$core..option..Option$LT$syn..generics..WhereClause$GT$$GT$17hdb68a184c873cfe8E', symObjAddr: 0x5F20, symBinAddr: 0x18C90, symSize: 0x100 }
  - { offsetInCU: 0x1724B, offset: 0x7A042, size: 0x8, addend: 0x0, symName: '__ZN4core3ptr78drop_in_place$LT$alloc..boxed..Box$LT$syn..expr..GenericMethodArgument$GT$$GT$17hc55befa3a35d52b5E', symObjAddr: 0x6020, symBinAddr: 0x18D90, symSize: 0x60 }
  - { offsetInCU: 0x1747D, offset: 0x7A274, size: 0x8, addend: 0x0, symName: '__ZN4core3ptr78drop_in_place$LT$core..option..Option$LT$syn..generics..BoundLifetimes$GT$$GT$17ha84a340326854102E', symObjAddr: 0x6080, symBinAddr: 0x18DF0, symSize: 0xD0 }
  - { offsetInCU: 0x17926, offset: 0x7A71D, size: 0x8, addend: 0x0, symName: '__ZN4core3ptr86drop_in_place$LT$syn..punctuated..Punctuated$LT$syn..pat..Pat$C$syn..token..Or$GT$$GT$17h88c3b7e3d2288112E', symObjAddr: 0x6150, symBinAddr: 0x18EC0, symSize: 0x120 }
  - { offsetInCU: 0x17D6C, offset: 0x7AB63, size: 0x8, addend: 0x0, symName: '__ZN4core3ptr87drop_in_place$LT$core..option..Option$LT$alloc..boxed..Box$LT$syn..pat..Pat$GT$$GT$$GT$17h1b4dd0887ce4d1d2E', symObjAddr: 0x6270, symBinAddr: 0x18FE0, symSize: 0x50 }
  - { offsetInCU: 0x17EDE, offset: 0x7ACD5, size: 0x8, addend: 0x0, symName: '__ZN4core3ptr87drop_in_place$LT$core..option..Option$LT$alloc..boxed..Box$LT$syn..ty..Type$GT$$GT$$GT$17hbec88cd4eccce1d5E', symObjAddr: 0x62C0, symBinAddr: 0x19030, symSize: 0x50 }
  - { offsetInCU: 0x18050, offset: 0x7AE47, size: 0x8, addend: 0x0, symName: '__ZN4core3ptr89drop_in_place$LT$core..option..Option$LT$alloc..boxed..Box$LT$syn..expr..Expr$GT$$GT$$GT$17h029806b02339e96fE', symObjAddr: 0x6310, symBinAddr: 0x19080, symSize: 0x50 }
  - { offsetInCU: 0x18200, offset: 0x7AFF7, size: 0x8, addend: 0x0, symName: '__ZN4core3ptr89drop_in_place$LT$syn..punctuated..Punctuated$LT$syn..pat..Pat$C$syn..token..Comma$GT$$GT$17hd9c4eaca6c5823d1E', symObjAddr: 0x6360, symBinAddr: 0x190D0, symSize: 0x120 }
  - { offsetInCU: 0x186BA, offset: 0x7B4B1, size: 0x8, addend: 0x0, symName: '__ZN4core3ptr90drop_in_place$LT$core..option..Option$LT$alloc..boxed..Box$LT$syn..data..Field$GT$$GT$$GT$17h388d78c870b52b3eE', symObjAddr: 0x6480, symBinAddr: 0x191F0, symSize: 0x1A0 }
  - { offsetInCU: 0x18E9D, offset: 0x7BC94, size: 0x8, addend: 0x0, symName: '__ZN4core3ptr91drop_in_place$LT$syn..punctuated..Punctuated$LT$syn..expr..Expr$C$syn..token..Comma$GT$$GT$17ha51cc4d92ad23509E', symObjAddr: 0x6620, symBinAddr: 0x19390, symSize: 0x120 }
  - { offsetInCU: 0x19376, offset: 0x7C16D, size: 0x8, addend: 0x0, symName: '__ZN4core3ptr92drop_in_place$LT$core..option..Option$LT$alloc..boxed..Box$LT$syn..data..Variant$GT$$GT$$GT$17hf67498508a900da8E', symObjAddr: 0x6740, symBinAddr: 0x194B0, symSize: 0x140 }
  - { offsetInCU: 0x19930, offset: 0x7C727, size: 0x8, addend: 0x0, symName: '__ZN4core3ptr94drop_in_place$LT$syn..punctuated..Punctuated$LT$syn..data..Variant$C$syn..token..Comma$GT$$GT$17h0afac56d00c24057E', symObjAddr: 0x6880, symBinAddr: 0x195F0, symSize: 0xE0 }
  - { offsetInCU: 0x19C00, offset: 0x7C9F7, size: 0x8, addend: 0x0, symName: '__ZN4core3ptr94drop_in_place$LT$syn..punctuated..Punctuated$LT$syn..pat..FieldPat$C$syn..token..Comma$GT$$GT$17hee9344b53778fcf7E', symObjAddr: 0x6960, symBinAddr: 0x196D0, symSize: 0xF0 }
  - { offsetInCU: 0x19ECA, offset: 0x7CCC1, size: 0x8, addend: 0x0, symName: '__ZN4core3ptr94drop_in_place$LT$syn..punctuated..Punctuated$LT$syn..ty..BareFnArg$C$syn..token..Comma$GT$$GT$17ha158df8e8018dc58E', symObjAddr: 0x6A50, symBinAddr: 0x197C0, symSize: 0x90 }
  - { offsetInCU: 0x1A100, offset: 0x7CEF7, size: 0x8, addend: 0x0, symName: '__ZN4core3ptr96drop_in_place$LT$core..option..Option$LT$alloc..boxed..Box$LT$syn..path..PathSegment$GT$$GT$$GT$17h14c085c15b9994cdE', symObjAddr: 0x6AE0, symBinAddr: 0x19850, symSize: 0x180 }
  - { offsetInCU: 0x1A791, offset: 0x7D588, size: 0x8, addend: 0x0, symName: '__ZN4core3ptr97drop_in_place$LT$syn..punctuated..Punctuated$LT$syn..expr..FieldValue$C$syn..token..Comma$GT$$GT$17haca1318b8f4ef9d5E', symObjAddr: 0x6C60, symBinAddr: 0x199D0, symSize: 0x90 }
  - { offsetInCU: 0x1AA43, offset: 0x7D83A, size: 0x8, addend: 0x0, symName: '__ZN4core3ptr97drop_in_place$LT$syn..punctuated..Punctuated$LT$syn..lifetime..Lifetime$C$syn..token..Add$GT$$GT$17hec71240064666ff2E', symObjAddr: 0x6CF0, symBinAddr: 0x19A60, symSize: 0xB1 }
  - { offsetInCU: 0x1F51F, offset: 0x82316, size: 0x8, addend: 0x0, symName: __ZN3syn5parse6Parser5parse17hb012fe401beb686eE, symObjAddr: 0x0, symBinAddr: 0x12D70, symSize: 0x540 }
  - { offsetInCU: 0x2012F, offset: 0x82F26, size: 0x8, addend: 0x0, symName: __ZN3syn5parse6Parser5parse17hb304ba7ff06c4e95E, symObjAddr: 0x540, symBinAddr: 0x132B0, symSize: 0x530 }
  - { offsetInCU: 0x20D3F, offset: 0x83B36, size: 0x8, addend: 0x0, symName: __ZN3syn5parse6Parser5parse17hffae529774c9869aE, symObjAddr: 0xA70, symBinAddr: 0x137E0, symSize: 0x540 }
  - { offsetInCU: 0x858, offset: 0x8D4B1, size: 0x8, addend: 0x0, symName: '__ZN68_$LT$$RF$str$u20$as$u20$proc_macro..bridge..rpc..Encode$LT$S$GT$$GT$6encode17hc69767655a14fddaE', symObjAddr: 0x70, symBinAddr: 0x19B20, symSize: 0x330 }
  - { offsetInCU: 0x1E, offset: 0x8DCE8, size: 0x8, addend: 0x0, symName: '__ZN10proc_macro6bridge11scoped_cell19ScopedCell$LT$T$GT$7replace17h4ea513b486fa5637E', symObjAddr: 0x0, symBinAddr: 0x19E50, symSize: 0x0 }
  - { offsetInCU: 0x61A, offset: 0x8E2E4, size: 0x8, addend: 0x0, symName: '__ZN4core3ptr145drop_in_place$LT$proc_macro..bridge..scoped_cell..ScopedCell$LT$T$GT$..replace..PutBackOnDrop$LT$proc_macro..bridge..client..BridgeStateL$GT$$GT$17ha86c075d2639ef60E.llvm.13367591588265467011', symObjAddr: 0xC50, symBinAddr: 0x1AAA0, symSize: 0xBA }
  - { offsetInCU: 0x1D67, offset: 0x8FA31, size: 0x8, addend: 0x0, symName: '__ZN10proc_macro6bridge11scoped_cell19ScopedCell$LT$T$GT$7replace17h4ea513b486fa5637E', symObjAddr: 0x0, symBinAddr: 0x19E50, symSize: 0x0 }
  - { offsetInCU: 0x2351, offset: 0x9001B, size: 0x8, addend: 0x0, symName: '__ZN10proc_macro6bridge11scoped_cell19ScopedCell$LT$T$GT$7replace17h647cb724fa648b06E', symObjAddr: 0x1D0, symBinAddr: 0x1A020, symSize: 0x380 }
  - { offsetInCU: 0x2C43, offset: 0x9090D, size: 0x8, addend: 0x0, symName: '__ZN10proc_macro6bridge11scoped_cell19ScopedCell$LT$T$GT$7replace17ha773e1d28f25896eE', symObjAddr: 0x550, symBinAddr: 0x1A3A0, symSize: 0x380 }
  - { offsetInCU: 0x3535, offset: 0x911FF, size: 0x8, addend: 0x0, symName: '__ZN10proc_macro6bridge11scoped_cell19ScopedCell$LT$T$GT$7replace17hbbd44ac8e3fdb0ffE', symObjAddr: 0x8D0, symBinAddr: 0x1A720, symSize: 0x380 }
  - { offsetInCU: 0x1E, offset: 0x922AA, size: 0x8, addend: 0x0, symName: __ZN4core3fmt5Write10write_char17ha9e3c582cf1a8c2bE, symObjAddr: 0x0, symBinAddr: 0x1AB60, symSize: 0x100 }
  - { offsetInCU: 0xC8, offset: 0x92354, size: 0x8, addend: 0x0, symName: '__ZN80_$LT$std..io..Write..write_fmt..Adapter$LT$T$GT$$u20$as$u20$core..fmt..Write$GT$9write_str17hc3ed95741c119ee7E', symObjAddr: 0x1E0, symBinAddr: 0x1AD40, symSize: 0x3E }
  - { offsetInCU: 0x9F7, offset: 0x92C83, size: 0x8, addend: 0x0, symName: '__ZN4core3ptr81drop_in_place$LT$core..result..Result$LT$$LP$$RP$$C$std..io..error..Error$GT$$GT$17hf234dfb66531d060E', symObjAddr: 0x120, symBinAddr: 0x1AC80, symSize: 0xB0 }
  - { offsetInCU: 0xE68, offset: 0x930F4, size: 0x8, addend: 0x0, symName: '__ZN4core3ptr92drop_in_place$LT$std..io..Write..write_fmt..Adapter$LT$std..sys..unix..stdio..Stderr$GT$$GT$17h57fe3c075fbb63c1E', symObjAddr: 0x1D0, symBinAddr: 0x1AD30, symSize: 0x10 }
  - { offsetInCU: 0xFEE, offset: 0x9327A, size: 0x8, addend: 0x0, symName: __ZN4core3fmt5Write10write_char17ha9e3c582cf1a8c2bE, symObjAddr: 0x0, symBinAddr: 0x1AB60, symSize: 0x100 }
  - { offsetInCU: 0x1157, offset: 0x933E3, size: 0x8, addend: 0x0, symName: __ZN4core3fmt5Write9write_fmt17h62a3d774ea281d37E, symObjAddr: 0x100, symBinAddr: 0x1AC60, symSize: 0x20 }
  - { offsetInCU: 0x1E, offset: 0x93B53, size: 0x8, addend: 0x0, symName: __ZN3std2io5Write9write_all17h1ac7578a886bc53bE, symObjAddr: 0x0, symBinAddr: 0x1AD80, symSize: 0xF0 }
  - { offsetInCU: 0x35, offset: 0x93B6A, size: 0x8, addend: 0x0, symName: _anon.4c40f88399ce1cae8375766062240c46.6.llvm.7521418641791032323, symObjAddr: 0x328, symBinAddr: 0x2A4488, symSize: 0x0 }
  - { offsetInCU: 0xE3, offset: 0x93C18, size: 0x8, addend: 0x0, symName: __ZN3std2io5Write9write_all17h1ac7578a886bc53bE, symObjAddr: 0x0, symBinAddr: 0x1AD80, symSize: 0xF0 }
  - { offsetInCU: 0x35D, offset: 0x93E92, size: 0x8, addend: 0x0, symName: __ZN3std2io5Write9write_fmt17h78a49d140e604682E, symObjAddr: 0xF0, symBinAddr: 0x1AE70, symSize: 0x90 }
  - { offsetInCU: 0x141B, offset: 0x94F50, size: 0x8, addend: 0x0, symName: '__ZN4core3ptr42drop_in_place$LT$std..io..error..Error$GT$17h10eb6e6e2fe02f94E.llvm.7521418641791032323', symObjAddr: 0x180, symBinAddr: 0x1AF00, symSize: 0xA0 }
  - { offsetInCU: 0x187E, offset: 0x953B3, size: 0x8, addend: 0x0, symName: '__ZN4core3ptr92drop_in_place$LT$std..io..Write..write_fmt..Adapter$LT$std..sys..unix..stdio..Stderr$GT$$GT$17h57fe3c075fbb63c1E.llvm.7521418641791032323', symObjAddr: 0x220, symBinAddr: 0x1AFA0, symSize: 0x15 }
  - { offsetInCU: 0x1E, offset: 0x95D71, size: 0x8, addend: 0x0, symName: '__ZN3std3sys6common12thread_local10fast_local12Key$LT$T$GT$14try_initialize17hdae611a8701f7109E.llvm.16360753206617878790', symObjAddr: 0x0, symBinAddr: 0x1AFC0, symSize: 0x150 }
  - { offsetInCU: 0x3E7, offset: 0x9613A, size: 0x8, addend: 0x0, symName: __ZN3std3sys6common12thread_local10fast_local13destroy_value17h6214aeee85e433e5E, symObjAddr: 0x170, symBinAddr: 0x1B110, symSize: 0xE0 }
  - { offsetInCU: 0xF93, offset: 0x96CE6, size: 0x8, addend: 0x0, symName: '__ZN4core3ptr81drop_in_place$LT$core..result..Result$LT$$LP$$RP$$C$std..io..error..Error$GT$$GT$17hf234dfb66531d060E', symObjAddr: 0x250, symBinAddr: 0x1B1F0, symSize: 0xA5 }
  - { offsetInCU: 0x1C49, offset: 0x9799C, size: 0x8, addend: 0x0, symName: '__ZN3std3sys6common12thread_local10fast_local12Key$LT$T$GT$14try_initialize17hdae611a8701f7109E.llvm.16360753206617878790', symObjAddr: 0x0, symBinAddr: 0x1AFC0, symSize: 0x150 }
  - { offsetInCU: 0x1E, offset: 0x98D87, size: 0x8, addend: 0x0, symName: __ZN3std9panicking3try17h24425592f5c92396E, symObjAddr: 0x0, symBinAddr: 0x1B2A0, symSize: 0x390 }
  - { offsetInCU: 0x4CE, offset: 0x99237, size: 0x8, addend: 0x0, symName: __ZN3std9panicking3try17h24425592f5c92396E, symObjAddr: 0x0, symBinAddr: 0x1B2A0, symSize: 0x390 }
  - { offsetInCU: 0xB7E, offset: 0x998E7, size: 0x8, addend: 0x0, symName: __ZN3std9panicking3try17h4eaa7e441b94bf47E, symObjAddr: 0x390, symBinAddr: 0x1B630, symSize: 0x390 }
  - { offsetInCU: 0x122E, offset: 0x99F97, size: 0x8, addend: 0x0, symName: __ZN3std9panicking3try17hfe72c1ba25e5b33aE, symObjAddr: 0x7C0, symBinAddr: 0x1B9C0, symSize: 0x390 }
  - { offsetInCU: 0x2034, offset: 0x9AD9D, size: 0x8, addend: 0x0, symName: '__ZN4core3ptr52drop_in_place$LT$std..thread..local..AccessError$GT$17hed34d1b9f397b04fE', symObjAddr: 0xB50, symBinAddr: 0x1BD50, symSize: 0x6 }
  - { offsetInCU: 0x35, offset: 0x9C329, size: 0x8, addend: 0x0, symName: _anon.85631948cc60413a7b9f86ee018ac17f.3.llvm.12853970190856590721, symObjAddr: 0xAB8, symBinAddr: 0x2A4518, symSize: 0x0 }
  - { offsetInCU: 0x478, offset: 0x9C76C, size: 0x8, addend: 0x0, symName: __ZN10proc_macro6bridge6client10run_client17hd10c3775a789d682E, symObjAddr: 0x210, symBinAddr: 0x1BD60, symSize: 0x1B0 }
  - { offsetInCU: 0x785, offset: 0x9CA79, size: 0x8, addend: 0x0, symName: __ZN10proc_macro6bridge6client10run_client17he4cddc2469a62747E, symObjAddr: 0x3C0, symBinAddr: 0x1BF10, symSize: 0x1B0 }
  - { offsetInCU: 0xA92, offset: 0x9CD86, size: 0x8, addend: 0x0, symName: __ZN10proc_macro6bridge6client10run_client17hecd5059dbfe51d4bE, symObjAddr: 0x570, symBinAddr: 0x1C0C0, symSize: 0x1B0 }
  - { offsetInCU: 0xFB1, offset: 0x9D2A5, size: 0x8, addend: 0x0, symName: '__ZN4core3ptr52drop_in_place$LT$std..thread..local..AccessError$GT$17hed34d1b9f397b04fE.llvm.12853970190856590721', symObjAddr: 0x990, symBinAddr: 0x1C270, symSize: 0x6 }
  - { offsetInCU: 0x1E, offset: 0x9DAB7, size: 0x8, addend: 0x0, symName: '__ZN4core3ptr73drop_in_place$LT$core..cell..UnsafeCell$LT$syn..parse..Unexpected$GT$$GT$17hd3604d4a2fac8722E.llvm.10194479881507033238', symObjAddr: 0x0, symBinAddr: 0x1C280, symSize: 0x50 }
  - { offsetInCU: 0xADE, offset: 0x9E577, size: 0x8, addend: 0x0, symName: '__ZN4core3ptr73drop_in_place$LT$core..cell..UnsafeCell$LT$syn..parse..Unexpected$GT$$GT$17hd3604d4a2fac8722E.llvm.10194479881507033238', symObjAddr: 0x0, symBinAddr: 0x1C280, symSize: 0x50 }
  - { offsetInCU: 0x138B, offset: 0x9EE24, size: 0x8, addend: 0x0, symName: '__ZN68_$LT$alloc..rc..Rc$LT$T$C$A$GT$$u20$as$u20$core..ops..drop..Drop$GT$4drop17h0e50b0f85cfb4cd0E', symObjAddr: 0x50, symBinAddr: 0x1C2D0, symSize: 0xE0 }
  - { offsetInCU: 0x187E, offset: 0x9F317, size: 0x8, addend: 0x0, symName: '__ZN68_$LT$alloc..rc..Rc$LT$T$C$A$GT$$u20$as$u20$core..ops..drop..Drop$GT$4drop17h4a9c3c1645d958e6E', symObjAddr: 0x130, symBinAddr: 0x1C3B0, symSize: 0x3C }
  - { offsetInCU: 0x35, offset: 0x9FF3E, size: 0x8, addend: 0x0, symName: _anon.f8588df7947b9f65456e9e18c100d5a4.0.llvm.6960104453967206318, symObjAddr: 0x310, symBinAddr: 0x2A4538, symSize: 0x0 }
  - { offsetInCU: 0x107, offset: 0xA0010, size: 0x8, addend: 0x0, symName: '__ZN58_$LT$alloc..string..String$u20$as$u20$core..fmt..Write$GT$10write_char17hd329c0cb943f081aE.llvm.6960104453967206318', symObjAddr: 0x140, symBinAddr: 0x1C440, symSize: 0x130 }
  - { offsetInCU: 0x4AE, offset: 0xA03B7, size: 0x8, addend: 0x0, symName: '__ZN58_$LT$alloc..string..String$u20$as$u20$core..fmt..Write$GT$9write_str17h1ff5aa96ca91c6d5E.llvm.6960104453967206318', symObjAddr: 0x270, symBinAddr: 0x1C570, symSize: 0x5B }
  - { offsetInCU: 0x9F3, offset: 0xA08FC, size: 0x8, addend: 0x0, symName: '__ZN4core3ptr37drop_in_place$LT$core..fmt..Error$GT$17h05c5e01c704dadfaE.llvm.6960104453967206318', symObjAddr: 0xF0, symBinAddr: 0x1C3F0, symSize: 0x10 }
  - { offsetInCU: 0xA1F, offset: 0xA0928, size: 0x8, addend: 0x0, symName: '__ZN4core3ptr42drop_in_place$LT$alloc..string..String$GT$17h34c88e5cbd391062E.llvm.6960104453967206318', symObjAddr: 0x100, symBinAddr: 0x1C400, symSize: 0x20 }
  - { offsetInCU: 0xC0C, offset: 0xA0B15, size: 0x8, addend: 0x0, symName: '__ZN53_$LT$core..fmt..Error$u20$as$u20$core..fmt..Debug$GT$3fmt17h43ae5cec9623af13E.llvm.6960104453967206318', symObjAddr: 0x120, symBinAddr: 0x1C420, symSize: 0x20 }
  - { offsetInCU: 0xE2A, offset: 0xA0D33, size: 0x8, addend: 0x0, symName: _anon.f8588df7947b9f65456e9e18c100d5a4.4.llvm.6960104453967206318, symObjAddr: 0x358, symBinAddr: 0x2A4580, symSize: 0x0 }
  - { offsetInCU: 0x1E, offset: 0xA1515, size: 0x8, addend: 0x0, symName: __ZN4core3fmt5Write9write_fmt17h84045da4335a8ff0E, symObjAddr: 0x0, symBinAddr: 0x1C5D0, symSize: 0x20 }
  - { offsetInCU: 0x89, offset: 0xA1580, size: 0x8, addend: 0x0, symName: '__ZN58_$LT$alloc..string..String$u20$as$u20$core..fmt..Write$GT$10write_char17hd329c0cb943f081aE', symObjAddr: 0x40, symBinAddr: 0x1C610, symSize: 0x130 }
  - { offsetInCU: 0x430, offset: 0xA1927, size: 0x8, addend: 0x0, symName: '__ZN58_$LT$alloc..string..String$u20$as$u20$core..fmt..Write$GT$9write_str17h1ff5aa96ca91c6d5E', symObjAddr: 0x170, symBinAddr: 0x1C740, symSize: 0x5B }
  - { offsetInCU: 0x956, offset: 0xA1E4D, size: 0x8, addend: 0x0, symName: '__ZN4core3ptr42drop_in_place$LT$alloc..string..String$GT$17h34c88e5cbd391062E', symObjAddr: 0x20, symBinAddr: 0x1C5F0, symSize: 0x20 }
  - { offsetInCU: 0xC0C, offset: 0xA2103, size: 0x8, addend: 0x0, symName: __ZN4core3fmt5Write9write_fmt17h84045da4335a8ff0E, symObjAddr: 0x0, symBinAddr: 0x1C5D0, symSize: 0x20 }
  - { offsetInCU: 0x1E, offset: 0xA2BAE, size: 0x8, addend: 0x0, symName: '__ZN10proc_macro6bridge104_$LT$impl$u20$proc_macro..bridge..rpc..Encode$LT$S$GT$$u20$for$u20$core..result..Result$LT$T$C$E$GT$$GT$6encode17h2bac057d205a62b6E', symObjAddr: 0x0, symBinAddr: 0x1C7A0, symSize: 0x450 }
  - { offsetInCU: 0x16E, offset: 0xA2CFE, size: 0x8, addend: 0x0, symName: '__ZN10proc_macro6bridge104_$LT$impl$u20$proc_macro..bridge..rpc..Encode$LT$S$GT$$u20$for$u20$core..result..Result$LT$T$C$E$GT$$GT$6encode17h2bac057d205a62b6E', symObjAddr: 0x0, symBinAddr: 0x1C7A0, symSize: 0x450 }
  - { offsetInCU: 0xA1E, offset: 0xA35AE, size: 0x8, addend: 0x0, symName: '__ZN10proc_macro6bridge104_$LT$impl$u20$proc_macro..bridge..rpc..Encode$LT$S$GT$$u20$for$u20$core..result..Result$LT$T$C$E$GT$$GT$6encode17h792bc8ae9c12a777E', symObjAddr: 0x450, symBinAddr: 0x1CBF0, symSize: 0x3AD }
  - { offsetInCU: 0x1E, offset: 0xA4550, size: 0x8, addend: 0x0, symName: '__ZN10proc_macro6bridge100_$LT$impl$u20$proc_macro..bridge..rpc..Encode$LT$S$GT$$u20$for$u20$core..option..Option$LT$T$GT$$GT$6encode17hb3a6066f1cafe866E', symObjAddr: 0x0, symBinAddr: 0x1CFA0, symSize: 0x370 }
  - { offsetInCU: 0x184, offset: 0xA46B6, size: 0x8, addend: 0x0, symName: '__ZN10proc_macro6bridge100_$LT$impl$u20$proc_macro..bridge..rpc..Encode$LT$S$GT$$u20$for$u20$core..option..Option$LT$T$GT$$GT$6encode17hb3a6066f1cafe866E', symObjAddr: 0x0, symBinAddr: 0x1CFA0, symSize: 0x370 }
  - { offsetInCU: 0x76B, offset: 0xA4C9D, size: 0x8, addend: 0x0, symName: '__ZN10proc_macro6bridge100_$LT$impl$u20$proc_macro..bridge..rpc..Encode$LT$S$GT$$u20$for$u20$core..option..Option$LT$T$GT$$GT$6encode17he5f5ce0ae426bf9fE', symObjAddr: 0x370, symBinAddr: 0x1D310, symSize: 0x4EB }
  - { offsetInCU: 0x1E, offset: 0xA5D87, size: 0x8, addend: 0x0, symName: __ZN10proc_macro6bridge14selfless_reify31reify_to_extern_c_fn_hrt_bridge7wrapper17h0ba4c0a6d4aacbc8E, symObjAddr: 0x0, symBinAddr: 0x1D800, symSize: 0x20 }
  - { offsetInCU: 0x202, offset: 0xA5F6B, size: 0x8, addend: 0x0, symName: __ZN10proc_macro6bridge14selfless_reify31reify_to_extern_c_fn_hrt_bridge7wrapper17h0ba4c0a6d4aacbc8E, symObjAddr: 0x0, symBinAddr: 0x1D800, symSize: 0x20 }
  - { offsetInCU: 0x27A, offset: 0xA5FE3, size: 0x8, addend: 0x0, symName: __ZN10proc_macro6bridge14selfless_reify31reify_to_extern_c_fn_hrt_bridge7wrapper17hba71de8903dd02f6E, symObjAddr: 0x20, symBinAddr: 0x1D820, symSize: 0x20 }
  - { offsetInCU: 0x2F2, offset: 0xA605B, size: 0x8, addend: 0x0, symName: __ZN10proc_macro6bridge14selfless_reify31reify_to_extern_c_fn_hrt_bridge7wrapper17hec8ab01b924f88e6E, symObjAddr: 0x40, symBinAddr: 0x1D840, symSize: 0x20 }
  - { offsetInCU: 0x1E, offset: 0xA6282, size: 0x8, addend: 0x0, symName: '__ZN77_$LT$$LP$A$C$B$RP$$u20$as$u20$proc_macro..bridge..rpc..DecodeMut$LT$S$GT$$GT$6decode17h92982af1815b2e84E', symObjAddr: 0x0, symBinAddr: 0x1D860, symSize: 0xD6 }
  - { offsetInCU: 0xB0, offset: 0xA6314, size: 0x8, addend: 0x0, symName: '__ZN77_$LT$$LP$A$C$B$RP$$u20$as$u20$proc_macro..bridge..rpc..DecodeMut$LT$S$GT$$GT$6decode17h92982af1815b2e84E', symObjAddr: 0x0, symBinAddr: 0x1D860, symSize: 0xD6 }
  - { offsetInCU: 0x1E, offset: 0xA7487, size: 0x8, addend: 0x0, symName: '__ZN4core3ptr100drop_in_place$LT$core..option..Option$LT$alloc..boxed..Box$LT$syn..generics..LifetimeDef$GT$$GT$$GT$17hed92367f10a63ebbE', symObjAddr: 0x0, symBinAddr: 0x1D990, symSize: 0x50 }
  - { offsetInCU: 0x1DD7, offset: 0xA9240, size: 0x8, addend: 0x0, symName: '__ZN4core3ptr100drop_in_place$LT$core..option..Option$LT$alloc..boxed..Box$LT$syn..generics..LifetimeDef$GT$$GT$$GT$17hed92367f10a63ebbE', symObjAddr: 0x0, symBinAddr: 0x1D990, symSize: 0x50 }
  - { offsetInCU: 0x1F68, offset: 0xA93D1, size: 0x8, addend: 0x0, symName: '__ZN4core3ptr100drop_in_place$LT$core..option..Option$LT$alloc..boxed..Box$LT$syn..path..GenericArgument$GT$$GT$$GT$17h07d831ee02e44576E', symObjAddr: 0x50, symBinAddr: 0x1D9E0, symSize: 0x50 }
  - { offsetInCU: 0x20F9, offset: 0xA9562, size: 0x8, addend: 0x0, symName: '__ZN4core3ptr101drop_in_place$LT$core..option..Option$LT$alloc..boxed..Box$LT$syn..generics..GenericParam$GT$$GT$$GT$17h1bf3e65de904d858E', symObjAddr: 0xA0, symBinAddr: 0x1DA30, symSize: 0x50 }
  - { offsetInCU: 0x23C0, offset: 0xA9829, size: 0x8, addend: 0x0, symName: '__ZN4core3ptr102drop_in_place$LT$syn..punctuated..Punctuated$LT$syn..generics..LifetimeDef$C$syn..token..Comma$GT$$GT$17h35023c351d325e34E', symObjAddr: 0xF0, symBinAddr: 0x1DA80, symSize: 0x170 }
  - { offsetInCU: 0x2866, offset: 0xA9CCF, size: 0x8, addend: 0x0, symName: '__ZN4core3ptr102drop_in_place$LT$syn..punctuated..Punctuated$LT$syn..path..GenericArgument$C$syn..token..Comma$GT$$GT$17ha502eaeb81fcc8f2E.llvm.16172982054050273061', symObjAddr: 0x260, symBinAddr: 0x1DBF0, symSize: 0xF0 }
  - { offsetInCU: 0x2BCB, offset: 0xAA034, size: 0x8, addend: 0x0, symName: '__ZN4core3ptr103drop_in_place$LT$core..option..Option$LT$alloc..boxed..Box$LT$syn..generics..TypeParamBound$GT$$GT$$GT$17hb39f8af5bde17016E', symObjAddr: 0x350, symBinAddr: 0x1DCE0, symSize: 0xA0 }
  - { offsetInCU: 0x2EC1, offset: 0xAA32A, size: 0x8, addend: 0x0, symName: '__ZN4core3ptr103drop_in_place$LT$core..option..Option$LT$alloc..boxed..Box$LT$syn..generics..WherePredicate$GT$$GT$$GT$17h9776e1ad8fc230daE', symObjAddr: 0x3F0, symBinAddr: 0x1DD80, symSize: 0x50 }
  - { offsetInCU: 0x30ED, offset: 0xAA556, size: 0x8, addend: 0x0, symName: '__ZN4core3ptr103drop_in_place$LT$syn..punctuated..Punctuated$LT$syn..generics..GenericParam$C$syn..token..Comma$GT$$GT$17h023c717f5f120af0E', symObjAddr: 0x440, symBinAddr: 0x1DDD0, symSize: 0x1A0 }
  - { offsetInCU: 0x369D, offset: 0xAAB06, size: 0x8, addend: 0x0, symName: '__ZN4core3ptr103drop_in_place$LT$syn..punctuated..Punctuated$LT$syn..generics..TypeParamBound$C$syn..token..Add$GT$$GT$17habfcafaa65bab169E', symObjAddr: 0x5E0, symBinAddr: 0x1DF70, symSize: 0x2D0 }
  - { offsetInCU: 0x439A, offset: 0xAB803, size: 0x8, addend: 0x0, symName: '__ZN4core3ptr105drop_in_place$LT$syn..punctuated..Punctuated$LT$syn..generics..WherePredicate$C$syn..token..Comma$GT$$GT$17h6148a484af39161eE', symObjAddr: 0x8B0, symBinAddr: 0x1E240, symSize: 0x190 }
  - { offsetInCU: 0x49CD, offset: 0xABE36, size: 0x8, addend: 0x0, symName: '__ZN4core3ptr108drop_in_place$LT$syn..punctuated..Punctuated$LT$syn..expr..GenericMethodArgument$C$syn..token..Comma$GT$$GT$17h4078e20e5c54219eE', symObjAddr: 0xA40, symBinAddr: 0x1E3D0, symSize: 0x160 }
  - { offsetInCU: 0x4E66, offset: 0xAC2CF, size: 0x8, addend: 0x0, symName: '__ZN4core3ptr126drop_in_place$LT$core..option..Option$LT$$LP$syn..token..And$C$core..option..Option$LT$syn..lifetime..Lifetime$GT$$RP$$GT$$GT$17haa684f5f7e18a97fE', symObjAddr: 0xBA0, symBinAddr: 0x1E530, symSize: 0x30 }
  - { offsetInCU: 0x50F6, offset: 0xAC55F, size: 0x8, addend: 0x0, symName: '__ZN4core3ptr33drop_in_place$LT$syn..ty..Abi$GT$17hd9d0dfdd26f43c86E', symObjAddr: 0xBD0, symBinAddr: 0x1E560, symSize: 0x60 }
  - { offsetInCU: 0x5112, offset: 0xAC57B, size: 0x8, addend: 0x0, symName: '__ZN4core3ptr33drop_in_place$LT$syn..ty..Abi$GT$17hd9d0dfdd26f43c86E', symObjAddr: 0xBD0, symBinAddr: 0x1E560, symSize: 0x60 }
  - { offsetInCU: 0x540C, offset: 0xAC875, size: 0x8, addend: 0x0, symName: '__ZN4core3ptr34drop_in_place$LT$syn..lit..Lit$GT$17hc6ba74c11cc9ba31E.llvm.16172982054050273061', symObjAddr: 0xC30, symBinAddr: 0x1E5C0, symSize: 0x110 }
  - { offsetInCU: 0x582F, offset: 0xACC98, size: 0x8, addend: 0x0, symName: '__ZN4core3ptr34drop_in_place$LT$syn..pat..Pat$GT$17hb93bec8183c0d605E.llvm.16172982054050273061', symObjAddr: 0xD40, symBinAddr: 0x1E6D0, symSize: 0x5A0 }
  - { offsetInCU: 0x65EE, offset: 0xADA57, size: 0x8, addend: 0x0, symName: '__ZN4core3ptr34drop_in_place$LT$syn..ty..Type$GT$17he4f555fdf4dcc841E.llvm.16172982054050273061', symObjAddr: 0x12E0, symBinAddr: 0x1EC70, symSize: 0x400 }
  - { offsetInCU: 0x736D, offset: 0xAE7D6, size: 0x8, addend: 0x0, symName: '__ZN4core3ptr35drop_in_place$LT$syn..expr..Arm$GT$17h82d708fb48edcda5E.llvm.16172982054050273061', symObjAddr: 0x16E0, symBinAddr: 0x1F070, symSize: 0x190 }
  - { offsetInCU: 0x7A2A, offset: 0xAEE93, size: 0x8, addend: 0x0, symName: '__ZN4core3ptr36drop_in_place$LT$syn..attr..Meta$GT$17hf5accb0dc1acd0feE.llvm.16172982054050273061', symObjAddr: 0x1870, symBinAddr: 0x1F200, symSize: 0x180 }
  - { offsetInCU: 0x83CB, offset: 0xAF834, size: 0x8, addend: 0x0, symName: '__ZN4core3ptr36drop_in_place$LT$syn..expr..Expr$GT$17h79aaeff521181404E.llvm.16172982054050273061', symObjAddr: 0x19F0, symBinAddr: 0x1F380, symSize: 0x14B0 }
  - { offsetInCU: 0xBD97, offset: 0xB3200, size: 0x8, addend: 0x0, symName: '__ZN4core3ptr36drop_in_place$LT$syn..item..Item$GT$17h961e75da602c7bf2E.llvm.16172982054050273061', symObjAddr: 0x2EA0, symBinAddr: 0x20830, symSize: 0x1030 }
  - { offsetInCU: 0xEBBA, offset: 0xB6023, size: 0x8, addend: 0x0, symName: '__ZN4core3ptr36drop_in_place$LT$syn..mac..Macro$GT$17ha5159c44bb719150E', symObjAddr: 0x3ED0, symBinAddr: 0x21860, symSize: 0xE0 }
  - { offsetInCU: 0xEF40, offset: 0xB63A9, size: 0x8, addend: 0x0, symName: '__ZN4core3ptr36drop_in_place$LT$syn..path..Path$GT$17h9ab4550cc70a1095E.llvm.16172982054050273061', symObjAddr: 0x3FB0, symBinAddr: 0x21940, symSize: 0x160 }
  - { offsetInCU: 0xF4AF, offset: 0xB6918, size: 0x8, addend: 0x0, symName: '__ZN4core3ptr36drop_in_place$LT$syn..stmt..Stmt$GT$17h0ef9be93cdcc270eE.llvm.16172982054050273061', symObjAddr: 0x4110, symBinAddr: 0x21AA0, symSize: 0xE0 }
  - { offsetInCU: 0xF6A7, offset: 0xB6B10, size: 0x8, addend: 0x0, symName: '__ZN4core3ptr37drop_in_place$LT$syn..data..Field$GT$17h7607ab0de8d4bd06E.llvm.16172982054050273061', symObjAddr: 0x41F0, symBinAddr: 0x21B80, symSize: 0x130 }
  - { offsetInCU: 0xFC2A, offset: 0xB7093, size: 0x8, addend: 0x0, symName: '__ZN4core3ptr37drop_in_place$LT$syn..item..FnArg$GT$17h6b6f2bc1bb1f4ee3E', symObjAddr: 0x4320, symBinAddr: 0x21CB0, symSize: 0x110 }
  - { offsetInCU: 0x1006F, offset: 0xB74D8, size: 0x8, addend: 0x0, symName: '__ZN4core3ptr37drop_in_place$LT$syn..stmt..Block$GT$17hac51847bfe6a0e44E', symObjAddr: 0x4430, symBinAddr: 0x21DC0, symSize: 0xD0 }
  - { offsetInCU: 0x10313, offset: 0xB777C, size: 0x8, addend: 0x0, symName: '__ZN4core3ptr38drop_in_place$LT$syn..expr..Member$GT$17h65b75b1cdf35a2a0E.llvm.16172982054050273061', symObjAddr: 0x4500, symBinAddr: 0x21E90, symSize: 0x0 }
  - { offsetInCU: 0x10410, offset: 0xB7879, size: 0x8, addend: 0x0, symName: '__ZN4core3ptr38drop_in_place$LT$syn..pat..PatType$GT$17h4c9ed8bd474dce8dE', symObjAddr: 0x4530, symBinAddr: 0x21EC0, symSize: 0x100 }
  - { offsetInCU: 0x10947, offset: 0xB7DB0, size: 0x8, addend: 0x0, symName: '__ZN4core3ptr38drop_in_place$LT$syn..ty..Variadic$GT$17h6549f8de8ba6ee88E', symObjAddr: 0x4630, symBinAddr: 0x21FC0, symSize: 0x80 }
  - { offsetInCU: 0x10BDA, offset: 0xB8043, size: 0x8, addend: 0x0, symName: '__ZN4core3ptr39drop_in_place$LT$proc_macro2..Ident$GT$17h243ed7814b0d96ceE.llvm.16172982054050273061', symObjAddr: 0x46B0, symBinAddr: 0x22040, symSize: 0x30 }
  - { offsetInCU: 0x10D15, offset: 0xB817E, size: 0x8, addend: 0x0, symName: '__ZN4core3ptr39drop_in_place$LT$syn..data..Variant$GT$17h3f72c9d028edf25eE', symObjAddr: 0x46E0, symBinAddr: 0x22070, symSize: 0x2B0 }
  - { offsetInCU: 0x118F5, offset: 0xB8D5E, size: 0x8, addend: 0x0, symName: '__ZN4core3ptr39drop_in_place$LT$syn..item..UseTree$GT$17h5fc5d66eff72441aE', symObjAddr: 0x4990, symBinAddr: 0x22320, symSize: 0x1E0 }
  - { offsetInCU: 0x12097, offset: 0xB9500, size: 0x8, addend: 0x0, symName: '__ZN4core3ptr39drop_in_place$LT$syn..pat..PatTuple$GT$17hc60209bd83ab169aE', symObjAddr: 0x4B70, symBinAddr: 0x22500, symSize: 0x180 }
  - { offsetInCU: 0x12799, offset: 0xB9C02, size: 0x8, addend: 0x0, symName: '__ZN4core3ptr40drop_in_place$LT$syn..attr..MetaList$GT$17h4e278cafcd4e7349E.llvm.16172982054050273061', symObjAddr: 0x4CF0, symBinAddr: 0x22680, symSize: 0x180 }
  - { offsetInCU: 0x12C2E, offset: 0xBA097, size: 0x8, addend: 0x0, symName: '__ZN4core3ptr40drop_in_place$LT$syn..item..ImplItem$GT$17h05118bfdfb864043E', symObjAddr: 0x4E70, symBinAddr: 0x22800, symSize: 0x1C0 }
  - { offsetInCU: 0x12F66, offset: 0xBA3CF, size: 0x8, addend: 0x0, symName: '__ZN4core3ptr40drop_in_place$LT$syn..ty..ReturnType$GT$17h49c8b48bec83435eE.llvm.16172982054050273061', symObjAddr: 0x5030, symBinAddr: 0x229C0, symSize: 0x50 }
  - { offsetInCU: 0x130D8, offset: 0xBA541, size: 0x8, addend: 0x0, symName: '__ZN4core3ptr41drop_in_place$LT$syn..attr..Attribute$GT$17h4a59160e342bc1d7E.llvm.16172982054050273061', symObjAddr: 0x5080, symBinAddr: 0x22A10, symSize: 0x130 }
  - { offsetInCU: 0x13626, offset: 0xBAA8F, size: 0x8, addend: 0x0, symName: '__ZN4core3ptr41drop_in_place$LT$syn..item..Signature$GT$17h2756dc8d6fc81dd7E', symObjAddr: 0x51B0, symBinAddr: 0x22B40, symSize: 0x2C0 }
  - { offsetInCU: 0x1434A, offset: 0xBB7B3, size: 0x8, addend: 0x0, symName: '__ZN4core3ptr41drop_in_place$LT$syn..item..TraitItem$GT$17h71f69d3a8e1a8e3dE', symObjAddr: 0x5470, symBinAddr: 0x22E00, symSize: 0x2C0 }
  - { offsetInCU: 0x14A22, offset: 0xBBE8B, size: 0x8, addend: 0x0, symName: '__ZN4core3ptr43drop_in_place$LT$proc_macro2..TokenTree$GT$17ha76119d99cc41f03E.llvm.16172982054050273061', symObjAddr: 0x57A0, symBinAddr: 0x230C0, symSize: 0xB0 }
  - { offsetInCU: 0x14D36, offset: 0xBC19F, size: 0x8, addend: 0x0, symName: '__ZN4core3ptr43drop_in_place$LT$syn..data..FieldsNamed$GT$17h051fae5a7f9d5eddE', symObjAddr: 0x5850, symBinAddr: 0x23170, symSize: 0x120 }
  - { offsetInCU: 0x151DD, offset: 0xBC646, size: 0x8, addend: 0x0, symName: '__ZN4core3ptr43drop_in_place$LT$syn..item..ForeignItem$GT$17h86d9b5a8f7d09f50E', symObjAddr: 0x5970, symBinAddr: 0x23290, symSize: 0x2B0 }
  - { offsetInCU: 0x15772, offset: 0xBCBDB, size: 0x8, addend: 0x0, symName: '__ZN4core3ptr43drop_in_place$LT$syn..path..PathSegment$GT$17h901f6e284513fb77E', symObjAddr: 0x5C20, symBinAddr: 0x23540, symSize: 0x170 }
  - { offsetInCU: 0x15D35, offset: 0xBD19E, size: 0x8, addend: 0x0, symName: '__ZN4core3ptr44drop_in_place$LT$syn..generics..Generics$GT$17hbe7c468bfac75e1fE', symObjAddr: 0x5D90, symBinAddr: 0x236B0, symSize: 0x220 }
  - { offsetInCU: 0x165B2, offset: 0xBDA1B, size: 0x8, addend: 0x0, symName: '__ZN4core3ptr44drop_in_place$LT$syn..item..ImplItemType$GT$17h4c14f19c5f828fd2E', symObjAddr: 0x5FB0, symBinAddr: 0x238D0, symSize: 0x170 }
  - { offsetInCU: 0x16B58, offset: 0xBDFC1, size: 0x8, addend: 0x0, symName: '__ZN4core3ptr44drop_in_place$LT$syn..lifetime..Lifetime$GT$17h778c553088bc6080E.llvm.16172982054050273061', symObjAddr: 0x6120, symBinAddr: 0x23A40, symSize: 0x30 }
  - { offsetInCU: 0x16CB2, offset: 0xBE11B, size: 0x8, addend: 0x0, symName: '__ZN4core3ptr45drop_in_place$LT$proc_macro2..TokenStream$GT$17he3fe16a25ddffbb6E.llvm.16172982054050273061', symObjAddr: 0x6150, symBinAddr: 0x23A70, symSize: 0x70 }
  - { offsetInCU: 0x16DFA, offset: 0xBE263, size: 0x8, addend: 0x0, symName: '__ZN4core3ptr45drop_in_place$LT$syn..data..VisRestricted$GT$17h7fe0790ea9197e70E.llvm.16172982054050273061', symObjAddr: 0x61C0, symBinAddr: 0x23AE0, symSize: 0x50 }
  - { offsetInCU: 0x16FB2, offset: 0xBE41B, size: 0x8, addend: 0x0, symName: '__ZN4core3ptr45drop_in_place$LT$syn..generics..TypeParam$GT$17h4290a11ed17c7d31E.llvm.16172982054050273061', symObjAddr: 0x6210, symBinAddr: 0x23B30, symSize: 0x1E0 }
  - { offsetInCU: 0x178D2, offset: 0xBED3B, size: 0x8, addend: 0x0, symName: '__ZN4core3ptr45drop_in_place$LT$syn..item..ImplItemConst$GT$17hb40663d3b555b5aaE', symObjAddr: 0x63F0, symBinAddr: 0x23D10, symSize: 0x150 }
  - { offsetInCU: 0x17E35, offset: 0xBF29E, size: 0x8, addend: 0x0, symName: '__ZN4core3ptr45drop_in_place$LT$syn..item..TraitItemType$GT$17he65c0571e783b0faE', symObjAddr: 0x6540, symBinAddr: 0x23E60, symSize: 0x230 }
  - { offsetInCU: 0x1883B, offset: 0xBFCA4, size: 0x8, addend: 0x0, symName: '__ZN4core3ptr45drop_in_place$LT$syn..path..PathArguments$GT$17h1fc89ee896d3540bE.llvm.16172982054050273061', symObjAddr: 0x6770, symBinAddr: 0x24090, symSize: 0xA0 }
  - { offsetInCU: 0x18A10, offset: 0xBFE79, size: 0x8, addend: 0x0, symName: '__ZN4core3ptr46drop_in_place$LT$syn..generics..ConstParam$GT$17h09e661df0750fd65E.llvm.16172982054050273061', symObjAddr: 0x6810, symBinAddr: 0x24130, symSize: 0x110 }
  - { offsetInCU: 0x18DCF, offset: 0xC0238, size: 0x8, addend: 0x0, symName: '__ZN4core3ptr46drop_in_place$LT$syn..item..ImplItemMethod$GT$17h15fa6219c17e0f24E', symObjAddr: 0x6920, symBinAddr: 0x24240, symSize: 0x1D0 }
  - { offsetInCU: 0x194BA, offset: 0xC0923, size: 0x8, addend: 0x0, symName: '__ZN4core3ptr46drop_in_place$LT$syn..item..TraitItemConst$GT$17he4369409a108bb6dE', symObjAddr: 0x6AF0, symBinAddr: 0x24410, symSize: 0xF0 }
  - { offsetInCU: 0x198AC, offset: 0xC0D15, size: 0x8, addend: 0x0, symName: '__ZN4core3ptr47drop_in_place$LT$syn..generics..LifetimeDef$GT$17hbb23f63be0784159E.llvm.16172982054050273061', symObjAddr: 0x6BE0, symBinAddr: 0x24500, symSize: 0xB0 }
  - { offsetInCU: 0x19C44, offset: 0xC10AD, size: 0x8, addend: 0x0, symName: '__ZN4core3ptr47drop_in_place$LT$syn..generics..WhereClause$GT$17h738423ceb80dc211E', symObjAddr: 0x6C90, symBinAddr: 0x245B0, symSize: 0x120 }
  - { offsetInCU: 0x1A0CC, offset: 0xC1535, size: 0x8, addend: 0x0, symName: '__ZN4core3ptr47drop_in_place$LT$syn..path..GenericArgument$GT$17h1e0ebdfae00e1f4cE', symObjAddr: 0x6DB0, symBinAddr: 0x246D0, symSize: 0xE0 }
  - { offsetInCU: 0x1A3E6, offset: 0xC184F, size: 0x8, addend: 0x0, symName: '__ZN4core3ptr48drop_in_place$LT$syn..generics..GenericParam$GT$17h267a1deeee4e91d1E', symObjAddr: 0x6E90, symBinAddr: 0x247B0, symSize: 0xA0 }
  - { offsetInCU: 0x1A519, offset: 0xC1982, size: 0x8, addend: 0x0, symName: '__ZN4core3ptr49drop_in_place$LT$syn..generics..PredicateType$GT$17h36b4508510b70c6aE.llvm.16172982054050273061', symObjAddr: 0x6F30, symBinAddr: 0x24850, symSize: 0x230 }
  - { offsetInCU: 0x1AE8C, offset: 0xC22F5, size: 0x8, addend: 0x0, symName: '__ZN4core3ptr49drop_in_place$LT$syn..item..ForeignItemStatic$GT$17h0f13f3b0fdd7a484E', symObjAddr: 0x7160, symBinAddr: 0x24A80, symSize: 0x140 }
  - { offsetInCU: 0x1B520, offset: 0xC2989, size: 0x8, addend: 0x0, symName: '__ZN4core3ptr50drop_in_place$LT$$u5b$syn..item..ImplItem$u5d$$GT$17h9f4dbf92e3c7cecdE', symObjAddr: 0x72A0, symBinAddr: 0x24BC0, symSize: 0x1E0 }
  - { offsetInCU: 0x1B789, offset: 0xC2BF2, size: 0x8, addend: 0x0, symName: '__ZN4core3ptr50drop_in_place$LT$syn..generics..BoundLifetimes$GT$17h1289a689d782a45dE', symObjAddr: 0x7480, symBinAddr: 0x24DA0, symSize: 0x110 }
  - { offsetInCU: 0x1BBD3, offset: 0xC303C, size: 0x8, addend: 0x0, symName: '__ZN4core3ptr50drop_in_place$LT$syn..generics..TypeParamBound$GT$17haf82b98bc58e0750E', symObjAddr: 0x7590, symBinAddr: 0x24EB0, symSize: 0x80 }
  - { offsetInCU: 0x1BD59, offset: 0xC31C2, size: 0x8, addend: 0x0, symName: '__ZN4core3ptr50drop_in_place$LT$syn..generics..WherePredicate$GT$17h31aac477a1cefbbbE', symObjAddr: 0x7610, symBinAddr: 0x24F30, symSize: 0xE0 }
  - { offsetInCU: 0x1BF0F, offset: 0xC3378, size: 0x8, addend: 0x0, symName: '__ZN4core3ptr51drop_in_place$LT$$u5b$syn..attr..Attribute$u5d$$GT$17h1db05516d9dc047cE.llvm.16172982054050273061', symObjAddr: 0x76F0, symBinAddr: 0x25010, symSize: 0x1B0 }
  - { offsetInCU: 0x1C255, offset: 0xC36BE, size: 0x8, addend: 0x0, symName: '__ZN4core3ptr51drop_in_place$LT$$u5b$syn..item..TraitItem$u5d$$GT$17h8a7d4b93971a8831E', symObjAddr: 0x78A0, symBinAddr: 0x251C0, symSize: 0x450 }
  - { offsetInCU: 0x1CBFA, offset: 0xC4063, size: 0x8, addend: 0x0, symName: '__ZN4core3ptr53drop_in_place$LT$$u5b$syn..item..ForeignItem$u5d$$GT$17h715625dfa60bba7fE', symObjAddr: 0x7CF0, symBinAddr: 0x25610, symSize: 0x3A0 }
  - { offsetInCU: 0x1D653, offset: 0xC4ABC, size: 0x8, addend: 0x0, symName: '__ZN4core3ptr58drop_in_place$LT$alloc..vec..Vec$LT$syn..expr..Arm$GT$$GT$17hd04b1bad30cf20a9E', symObjAddr: 0x8090, symBinAddr: 0x259B0, symSize: 0xD0 }
  - { offsetInCU: 0x1D8E0, offset: 0xC4D49, size: 0x8, addend: 0x0, symName: '__ZN4core3ptr59drop_in_place$LT$alloc..boxed..Box$LT$syn..pat..Pat$GT$$GT$17h6a7bdec7bcb9bb51E.llvm.16172982054050273061', symObjAddr: 0x8160, symBinAddr: 0x25A80, symSize: 0x50 }
  - { offsetInCU: 0x1DA3B, offset: 0xC4EA4, size: 0x8, addend: 0x0, symName: '__ZN4core3ptr59drop_in_place$LT$alloc..boxed..Box$LT$syn..ty..Type$GT$$GT$17hd5473a45fa589c86E', symObjAddr: 0x81B0, symBinAddr: 0x25AD0, symSize: 0x50 }
  - { offsetInCU: 0x1DB96, offset: 0xC4FFF, size: 0x8, addend: 0x0, symName: '__ZN4core3ptr59drop_in_place$LT$alloc..vec..Vec$LT$syn..item..Item$GT$$GT$17h689a6982e15c8dd8E', symObjAddr: 0x8200, symBinAddr: 0x25B20, symSize: 0xD0 }
  - { offsetInCU: 0x1DE23, offset: 0xC528C, size: 0x8, addend: 0x0, symName: '__ZN4core3ptr61drop_in_place$LT$alloc..boxed..Box$LT$syn..expr..Expr$GT$$GT$17hc23fa5d0ad4eaa60E.llvm.16172982054050273061', symObjAddr: 0x82D0, symBinAddr: 0x25BF0, symSize: 0x50 }
  - { offsetInCU: 0x1DF7E, offset: 0xC53E7, size: 0x8, addend: 0x0, symName: '__ZN4core3ptr61drop_in_place$LT$alloc..boxed..Box$LT$syn..path..Path$GT$$GT$17h6931c672c3ec647bE', symObjAddr: 0x8320, symBinAddr: 0x25C40, symSize: 0x100 }
  - { offsetInCU: 0x1E464, offset: 0xC58CD, size: 0x8, addend: 0x0, symName: '__ZN4core3ptr61drop_in_place$LT$syn..path..ParenthesizedGenericArguments$GT$17h7b07165df6134aa3E', symObjAddr: 0x8420, symBinAddr: 0x25D40, symSize: 0x170 }
  - { offsetInCU: 0x1EA2B, offset: 0xC5E94, size: 0x8, addend: 0x0, symName: '__ZN4core3ptr62drop_in_place$LT$alloc..boxed..Box$LT$syn..data..Field$GT$$GT$17hfbd7acee529dcf82E', symObjAddr: 0x8590, symBinAddr: 0x25EB0, symSize: 0x50 }
  - { offsetInCU: 0x1EBA5, offset: 0xC600E, size: 0x8, addend: 0x0, symName: '__ZN4core3ptr62drop_in_place$LT$alloc..boxed..Box$LT$syn..item..FnArg$GT$$GT$17h781bb8c86f22cfafE', symObjAddr: 0x85E0, symBinAddr: 0x25F00, symSize: 0xD0 }
  - { offsetInCU: 0x1F0F6, offset: 0xC655F, size: 0x8, addend: 0x0, symName: '__ZN4core3ptr62drop_in_place$LT$alloc..boxed..Box$LT$syn..stmt..Block$GT$$GT$17hd6e88c507daa1a75E', symObjAddr: 0x86B0, symBinAddr: 0x25FD0, symSize: 0xE0 }
  - { offsetInCU: 0x1F4D7, offset: 0xC6940, size: 0x8, addend: 0x0, symName: '__ZN4core3ptr62drop_in_place$LT$syn..path..AngleBracketedGenericArguments$GT$17h2b3b4612d5eb5254E', symObjAddr: 0x8790, symBinAddr: 0x260B0, symSize: 0x120 }
  - { offsetInCU: 0x1F921, offset: 0xC6D8A, size: 0x8, addend: 0x0, symName: '__ZN4core3ptr63drop_in_place$LT$alloc..vec..Vec$LT$syn..item..ImplItem$GT$$GT$17h0504a0654985f027E', symObjAddr: 0x88B0, symBinAddr: 0x261D0, symSize: 0x80 }
  - { offsetInCU: 0x1FB9F, offset: 0xC7008, size: 0x8, addend: 0x0, symName: '__ZN4core3ptr64drop_in_place$LT$alloc..boxed..Box$LT$syn..data..Variant$GT$$GT$17h69406f0597ea79bfE', symObjAddr: 0x8930, symBinAddr: 0x26250, symSize: 0x50 }
  - { offsetInCU: 0x1FCFA, offset: 0xC7163, size: 0x8, addend: 0x0, symName: '__ZN4core3ptr64drop_in_place$LT$alloc..boxed..Box$LT$syn..item..UseTree$GT$$GT$17h577c2f4c423c3448E', symObjAddr: 0x8980, symBinAddr: 0x262A0, symSize: 0x50 }
  - { offsetInCU: 0x1FE74, offset: 0xC72DD, size: 0x8, addend: 0x0, symName: '__ZN4core3ptr64drop_in_place$LT$alloc..boxed..Box$LT$syn..pat..FieldPat$GT$$GT$17h25e3c1bebc759d42E', symObjAddr: 0x89D0, symBinAddr: 0x262F0, symSize: 0xC0 }
  - { offsetInCU: 0x202A4, offset: 0xC770D, size: 0x8, addend: 0x0, symName: '__ZN4core3ptr64drop_in_place$LT$alloc..boxed..Box$LT$syn..ty..BareFnArg$GT$$GT$17h225ecbe95efa4f3fE', symObjAddr: 0x8A90, symBinAddr: 0x263B0, symSize: 0x90 }
  - { offsetInCU: 0x2053F, offset: 0xC79A8, size: 0x8, addend: 0x0, symName: '__ZN4core3ptr64drop_in_place$LT$alloc..vec..Vec$LT$syn..attr..Attribute$GT$$GT$17h0d350e8bfce98df8E.llvm.16172982054050273061', symObjAddr: 0x8B20, symBinAddr: 0x26440, symSize: 0xF0 }
  - { offsetInCU: 0x207D9, offset: 0xC7C42, size: 0x8, addend: 0x0, symName: '__ZN4core3ptr64drop_in_place$LT$alloc..vec..Vec$LT$syn..item..TraitItem$GT$$GT$17hbe1a81c365b85f69E', symObjAddr: 0x8C10, symBinAddr: 0x26530, symSize: 0x80 }
  - { offsetInCU: 0x20A57, offset: 0xC7EC0, size: 0x8, addend: 0x0, symName: '__ZN4core3ptr65drop_in_place$LT$$LP$syn..item..FnArg$C$syn..token..Comma$RP$$GT$17hd8610733a74751deE', symObjAddr: 0x8C90, symBinAddr: 0x265B0, symSize: 0xD0 }
  - { offsetInCU: 0x20ED7, offset: 0xC8340, size: 0x8, addend: 0x0, symName: '__ZN4core3ptr65drop_in_place$LT$alloc..vec..Vec$LT$proc_macro..TokenTree$GT$$GT$17hae34c6cf526e6da5E.llvm.16172982054050273061', symObjAddr: 0x8D60, symBinAddr: 0x26680, symSize: 0x120 }
  - { offsetInCU: 0x21249, offset: 0xC86B2, size: 0x8, addend: 0x0, symName: '__ZN4core3ptr65drop_in_place$LT$core..option..Option$LT$syn..expr..Label$GT$$GT$17h3eba2c11b9043240E', symObjAddr: 0x8E80, symBinAddr: 0x267A0, symSize: 0x30 }
  - { offsetInCU: 0x21384, offset: 0xC87ED, size: 0x8, addend: 0x0, symName: '__ZN4core3ptr65drop_in_place$LT$core..option..Option$LT$syn..stmt..Block$GT$$GT$17h4ecbc4ac65cf4cabE', symObjAddr: 0x8EB0, symBinAddr: 0x267D0, symSize: 0xE0 }
  - { offsetInCU: 0x215E9, offset: 0xC8A52, size: 0x8, addend: 0x0, symName: '__ZN4core3ptr66drop_in_place$LT$alloc..vec..Vec$LT$syn..item..ForeignItem$GT$$GT$17ha7a20c2bad362ae1E', symObjAddr: 0x8F90, symBinAddr: 0x268B0, symSize: 0x80 }
  - { offsetInCU: 0x21867, offset: 0xC8CD0, size: 0x8, addend: 0x0, symName: '__ZN4core3ptr67drop_in_place$LT$$LP$syn..pat..FieldPat$C$syn..token..Comma$RP$$GT$17h4b6275138747a53cE.llvm.16172982054050273061', symObjAddr: 0x9010, symBinAddr: 0x26930, symSize: 0xA0 }
  - { offsetInCU: 0x21B12, offset: 0xC8F7B, size: 0x8, addend: 0x0, symName: '__ZN4core3ptr67drop_in_place$LT$$LP$syn..ty..BareFnArg$C$syn..token..Comma$RP$$GT$17h9589d985276f7ac3E.llvm.16172982054050273061', symObjAddr: 0x90B0, symBinAddr: 0x269D0, symSize: 0x70 }
  - { offsetInCU: 0x21C64, offset: 0xC90CD, size: 0x8, addend: 0x0, symName: '__ZN4core3ptr67drop_in_place$LT$alloc..boxed..Box$LT$syn..attr..NestedMeta$GT$$GT$17h40a59efba0ce4428E.llvm.16172982054050273061', symObjAddr: 0x9120, symBinAddr: 0x26A40, symSize: 0x140 }
  - { offsetInCU: 0x21FD6, offset: 0xC943F, size: 0x8, addend: 0x0, symName: '__ZN4core3ptr67drop_in_place$LT$alloc..boxed..Box$LT$syn..expr..FieldValue$GT$$GT$17hc36de89b26347dc1E', symObjAddr: 0x9260, symBinAddr: 0x26B80, symSize: 0xA0 }
  - { offsetInCU: 0x2225D, offset: 0xC96C6, size: 0x8, addend: 0x0, symName: '__ZN4core3ptr68drop_in_place$LT$alloc..boxed..Box$LT$syn..path..PathSegment$GT$$GT$17hc68e683dd9dfa372E.llvm.16172982054050273061', symObjAddr: 0x9300, symBinAddr: 0x26C20, symSize: 0xD0 }
  - { offsetInCU: 0x2265B, offset: 0xC9AC4, size: 0x8, addend: 0x0, symName: '__ZN4core3ptr70drop_in_place$LT$$LP$syn..attr..NestedMeta$C$syn..token..Comma$RP$$GT$17h4043165ab63c8429E.llvm.16172982054050273061', symObjAddr: 0x93D0, symBinAddr: 0x26CF0, symSize: 0x20 }
  - { offsetInCU: 0x22697, offset: 0xC9B00, size: 0x8, addend: 0x0, symName: '__ZN4core3ptr70drop_in_place$LT$$LP$syn..expr..FieldValue$C$syn..token..Comma$RP$$GT$17heb23ceb9d2b20698E.llvm.16172982054050273061', symObjAddr: 0x93F0, symBinAddr: 0x26D10, symSize: 0x80 }
  - { offsetInCU: 0x227D5, offset: 0xC9C3E, size: 0x8, addend: 0x0, symName: '__ZN4core3ptr72drop_in_place$LT$$LP$syn..path..PathSegment$C$syn..token..Colon2$RP$$GT$17h68c79ec82a17c575E.llvm.16172982054050273061', symObjAddr: 0x9470, symBinAddr: 0x26D90, symSize: 0xC0 }
  - { offsetInCU: 0x22A9B, offset: 0xC9F04, size: 0x8, addend: 0x0, symName: '__ZN4core3ptr72drop_in_place$LT$alloc..boxed..Box$LT$syn..generics..LifetimeDef$GT$$GT$17h17cb3299e022742aE', symObjAddr: 0x9530, symBinAddr: 0x26E50, symSize: 0x80 }
  - { offsetInCU: 0x22D4A, offset: 0xCA1B3, size: 0x8, addend: 0x0, symName: '__ZN4core3ptr72drop_in_place$LT$alloc..boxed..Box$LT$syn..path..GenericArgument$GT$$GT$17h23c8a138fbea10f4E.llvm.16172982054050273061', symObjAddr: 0x95B0, symBinAddr: 0x26ED0, symSize: 0x1F0 }
  - { offsetInCU: 0x23584, offset: 0xCA9ED, size: 0x8, addend: 0x0, symName: '__ZN4core3ptr73drop_in_place$LT$alloc..boxed..Box$LT$syn..generics..GenericParam$GT$$GT$17hd45b477da3bd3143E', symObjAddr: 0x97A0, symBinAddr: 0x270C0, symSize: 0x80 }
  - { offsetInCU: 0x236FC, offset: 0xCAB65, size: 0x8, addend: 0x0, symName: '__ZN4core3ptr75drop_in_place$LT$$LP$syn..generics..LifetimeDef$C$syn..token..Comma$RP$$GT$17h0058fb1e69a95170E.llvm.16172982054050273061', symObjAddr: 0x9820, symBinAddr: 0x27140, symSize: 0x60 }
  - { offsetInCU: 0x23837, offset: 0xCACA0, size: 0x8, addend: 0x0, symName: '__ZN4core3ptr75drop_in_place$LT$$LP$syn..path..GenericArgument$C$syn..token..Comma$RP$$GT$17he49c5c217da17b26E.llvm.16172982054050273061', symObjAddr: 0x9880, symBinAddr: 0x271A0, symSize: 0x210 }
  - { offsetInCU: 0x23F99, offset: 0xCB402, size: 0x8, addend: 0x0, symName: '__ZN4core3ptr75drop_in_place$LT$alloc..boxed..Box$LT$syn..generics..TypeParamBound$GT$$GT$17h1bffc99fd705ded2E', symObjAddr: 0x9A90, symBinAddr: 0x273B0, symSize: 0x140 }
  - { offsetInCU: 0x24519, offset: 0xCB982, size: 0x8, addend: 0x0, symName: '__ZN4core3ptr75drop_in_place$LT$alloc..boxed..Box$LT$syn..generics..WherePredicate$GT$$GT$17h6db72edb42ea38a8E', symObjAddr: 0x9BD0, symBinAddr: 0x274F0, symSize: 0xC0 }
  - { offsetInCU: 0x247B8, offset: 0xCBC21, size: 0x8, addend: 0x0, symName: '__ZN4core3ptr76drop_in_place$LT$$LP$syn..generics..GenericParam$C$syn..token..Comma$RP$$GT$17hbeebdf3387e45fb7E.llvm.16172982054050273061', symObjAddr: 0x9C90, symBinAddr: 0x275B0, symSize: 0x40 }
  - { offsetInCU: 0x247F4, offset: 0xCBC5D, size: 0x8, addend: 0x0, symName: '__ZN4core3ptr76drop_in_place$LT$$LP$syn..generics..TypeParamBound$C$syn..token..Add$RP$$GT$17h9dac910157c13efcE.llvm.16172982054050273061', symObjAddr: 0x9CD0, symBinAddr: 0x275F0, symSize: 0x150 }
  - { offsetInCU: 0x24C42, offset: 0xCC0AB, size: 0x8, addend: 0x0, symName: '__ZN4core3ptr78drop_in_place$LT$$LP$syn..generics..WherePredicate$C$syn..token..Comma$RP$$GT$17h8884cf28c3ed0f0cE.llvm.16172982054050273061', symObjAddr: 0x9E20, symBinAddr: 0x27740, symSize: 0xA0 }
  - { offsetInCU: 0x24DB5, offset: 0xCC21E, size: 0x8, addend: 0x0, symName: '__ZN4core3ptr78drop_in_place$LT$alloc..boxed..Box$LT$syn..expr..GenericMethodArgument$GT$$GT$17h31d6ebe0ea6c9944E', symObjAddr: 0x9EC0, symBinAddr: 0x277E0, symSize: 0x60 }
  - { offsetInCU: 0x24F2D, offset: 0xCC396, size: 0x8, addend: 0x0, symName: '__ZN4core3ptr81drop_in_place$LT$$LP$syn..expr..GenericMethodArgument$C$syn..token..Comma$RP$$GT$17hcfa27c366f42973dE.llvm.16172982054050273061', symObjAddr: 0x9F20, symBinAddr: 0x27840, symSize: 0x20 }
  - { offsetInCU: 0x24F69, offset: 0xCC3D2, size: 0x8, addend: 0x0, symName: '__ZN4core3ptr86drop_in_place$LT$$LP$syn..token..If$C$alloc..boxed..Box$LT$syn..expr..Expr$GT$$RP$$GT$17h2a36257ffba19cb4E', symObjAddr: 0x9F40, symBinAddr: 0x27860, symSize: 0x50 }
  - { offsetInCU: 0x250E3, offset: 0xCC54C, size: 0x8, addend: 0x0, symName: '__ZN4core3ptr86drop_in_place$LT$$u5b$$LP$syn..generics..TypeParamBound$C$syn..token..Add$RP$$u5d$$GT$17h14d1f7becc2a0071E', symObjAddr: 0x9F90, symBinAddr: 0x278B0, symSize: 0xD0 }
  - { offsetInCU: 0x25313, offset: 0xCC77C, size: 0x8, addend: 0x0, symName: '__ZN4core3ptr86drop_in_place$LT$syn..punctuated..Punctuated$LT$syn..pat..Pat$C$syn..token..Or$GT$$GT$17hf795a553b5770be2E', symObjAddr: 0xA060, symBinAddr: 0x27980, symSize: 0x120 }
  - { offsetInCU: 0x25770, offset: 0xCCBD9, size: 0x8, addend: 0x0, symName: '__ZN4core3ptr87drop_in_place$LT$core..option..Option$LT$alloc..boxed..Box$LT$syn..pat..Pat$GT$$GT$$GT$17h73f486444f071012E', symObjAddr: 0xA180, symBinAddr: 0x27AA0, symSize: 0x50 }
  - { offsetInCU: 0x258E2, offset: 0xCCD4B, size: 0x8, addend: 0x0, symName: '__ZN4core3ptr87drop_in_place$LT$core..option..Option$LT$alloc..boxed..Box$LT$syn..ty..Type$GT$$GT$$GT$17h2f83f4b64cf766e8E', symObjAddr: 0xA1D0, symBinAddr: 0x27AF0, symSize: 0x50 }
  - { offsetInCU: 0x25A54, offset: 0xCCEBD, size: 0x8, addend: 0x0, symName: '__ZN4core3ptr89drop_in_place$LT$core..option..Option$LT$alloc..boxed..Box$LT$syn..expr..Expr$GT$$GT$$GT$17h188a7557556ed480E', symObjAddr: 0xA220, symBinAddr: 0x27B40, symSize: 0x50 }
  - { offsetInCU: 0x25BC6, offset: 0xCD02F, size: 0x8, addend: 0x0, symName: '__ZN4core3ptr89drop_in_place$LT$syn..punctuated..Punctuated$LT$syn..ty..Type$C$syn..token..Comma$GT$$GT$17h4bbd8b940cf3c24bE.llvm.16172982054050273061', symObjAddr: 0xA270, symBinAddr: 0x27B90, symSize: 0x120 }
  - { offsetInCU: 0x26010, offset: 0xCD479, size: 0x8, addend: 0x0, symName: '__ZN4core3ptr90drop_in_place$LT$core..option..Option$LT$alloc..boxed..Box$LT$syn..data..Field$GT$$GT$$GT$17ha156957802eb1598E', symObjAddr: 0xA390, symBinAddr: 0x27CB0, symSize: 0x50 }
  - { offsetInCU: 0x26182, offset: 0xCD5EB, size: 0x8, addend: 0x0, symName: '__ZN4core3ptr90drop_in_place$LT$core..option..Option$LT$alloc..boxed..Box$LT$syn..item..FnArg$GT$$GT$$GT$17h40245ae19a1a6f18E', symObjAddr: 0xA3E0, symBinAddr: 0x27D00, symSize: 0x50 }
  - { offsetInCU: 0x26370, offset: 0xCD7D9, size: 0x8, addend: 0x0, symName: '__ZN4core3ptr91drop_in_place$LT$syn..punctuated..Punctuated$LT$syn..expr..Expr$C$syn..token..Comma$GT$$GT$17hb987dbf8c4fa792eE', symObjAddr: 0xA430, symBinAddr: 0x27D50, symSize: 0x120 }
  - { offsetInCU: 0x267CD, offset: 0xCDC36, size: 0x8, addend: 0x0, symName: '__ZN4core3ptr92drop_in_place$LT$core..option..Option$LT$$LP$syn..token..As$C$proc_macro2..Ident$RP$$GT$$GT$17hf84aed5535978eb0E', symObjAddr: 0xA550, symBinAddr: 0x27E70, symSize: 0x30 }
  - { offsetInCU: 0x268E9, offset: 0xCDD52, size: 0x8, addend: 0x0, symName: '__ZN4core3ptr92drop_in_place$LT$syn..punctuated..Punctuated$LT$syn..data..Field$C$syn..token..Comma$GT$$GT$17h75cbcfbe77234f35E', symObjAddr: 0xA580, symBinAddr: 0x27EA0, symSize: 0x120 }
  - { offsetInCU: 0x26D33, offset: 0xCE19C, size: 0x8, addend: 0x0, symName: '__ZN4core3ptr92drop_in_place$LT$syn..punctuated..Punctuated$LT$syn..item..FnArg$C$syn..token..Comma$GT$$GT$17hf1fdf5db4724f294E', symObjAddr: 0xA6A0, symBinAddr: 0x27FC0, symSize: 0x240 }
  - { offsetInCU: 0x278AC, offset: 0xCED15, size: 0x8, addend: 0x0, symName: '__ZN4core3ptr93drop_in_place$LT$alloc..vec..Vec$LT$$LP$syn..attr..NestedMeta$C$syn..token..Comma$RP$$GT$$GT$17h0d3cfada9935bc70E.llvm.16172982054050273061', symObjAddr: 0xA8E0, symBinAddr: 0x28200, symSize: 0xE0 }
  - { offsetInCU: 0x27C21, offset: 0xCF08A, size: 0x8, addend: 0x0, symName: '__ZN4core3ptr94drop_in_place$LT$syn..punctuated..Punctuated$LT$syn..data..Variant$C$syn..token..Comma$GT$$GT$17hcd0142b1bf295fa9E', symObjAddr: 0xA9C0, symBinAddr: 0x282E0, symSize: 0x120 }
  - { offsetInCU: 0x280FA, offset: 0xCF563, size: 0x8, addend: 0x0, symName: '__ZN4core3ptr94drop_in_place$LT$syn..punctuated..Punctuated$LT$syn..pat..FieldPat$C$syn..token..Comma$GT$$GT$17h98cfc6fc576c5a2eE', symObjAddr: 0xAAE0, symBinAddr: 0x28400, symSize: 0xF0 }
  - { offsetInCU: 0x28472, offset: 0xCF8DB, size: 0x8, addend: 0x0, symName: '__ZN4core3ptr94drop_in_place$LT$syn..punctuated..Punctuated$LT$syn..ty..BareFnArg$C$syn..token..Comma$GT$$GT$17h3e3e37b8188fea7aE', symObjAddr: 0xABD0, symBinAddr: 0x284F0, symSize: 0x180 }
  - { offsetInCU: 0x288BB, offset: 0xCFD24, size: 0x8, addend: 0x0, symName: '__ZN4core3ptr95drop_in_place$LT$core..option..Option$LT$$LP$proc_macro2..Ident$C$syn..token..Colon$RP$$GT$$GT$17h54b5342f47810573E.llvm.16172982054050273061', symObjAddr: 0xAD50, symBinAddr: 0x28670, symSize: 0x30 }
  - { offsetInCU: 0x289D7, offset: 0xCFE40, size: 0x8, addend: 0x0, symName: '__ZN4core3ptr95drop_in_place$LT$core..option..Option$LT$alloc..boxed..Box$LT$syn..attr..NestedMeta$GT$$GT$$GT$17h948f17c82445d874E.llvm.16172982054050273061', symObjAddr: 0xAD80, symBinAddr: 0x286A0, symSize: 0xA0 }
  - { offsetInCU: 0x28B7B, offset: 0xCFFE4, size: 0x8, addend: 0x0, symName: '__ZN4core3ptr96drop_in_place$LT$core..option..Option$LT$alloc..boxed..Box$LT$syn..path..PathSegment$GT$$GT$$GT$17h0625972f26ace92dE', symObjAddr: 0xAE20, symBinAddr: 0x28740, symSize: 0x90 }
  - { offsetInCU: 0x28E1C, offset: 0xD0285, size: 0x8, addend: 0x0, symName: '__ZN4core3ptr97drop_in_place$LT$syn..punctuated..Punctuated$LT$syn..attr..NestedMeta$C$syn..token..Comma$GT$$GT$17h80d3592d8db1892aE.llvm.16172982054050273061', symObjAddr: 0xAF00, symBinAddr: 0x287D0, symSize: 0x110 }
  - { offsetInCU: 0x291AF, offset: 0xD0618, size: 0x8, addend: 0x0, symName: '__ZN4core3ptr97drop_in_place$LT$syn..punctuated..Punctuated$LT$syn..expr..FieldValue$C$syn..token..Comma$GT$$GT$17heea3a9d8c114766bE', symObjAddr: 0xB010, symBinAddr: 0x288E0, symSize: 0x1A0 }
  - { offsetInCU: 0x296A3, offset: 0xD0B0C, size: 0x8, addend: 0x0, symName: '__ZN4core3ptr97drop_in_place$LT$syn..punctuated..Punctuated$LT$syn..lifetime..Lifetime$C$syn..token..Add$GT$$GT$17h9a7119801dbe4a28E.llvm.16172982054050273061', symObjAddr: 0xB1B0, symBinAddr: 0x28A80, symSize: 0xC0 }
  - { offsetInCU: 0x31295, offset: 0xD86FE, size: 0x8, addend: 0x0, symName: '__ZN70_$LT$alloc..vec..Vec$LT$T$C$A$GT$$u20$as$u20$core..ops..drop..Drop$GT$4drop17h36d3ccda02422c6dE', symObjAddr: 0xB870, symBinAddr: 0x28ED0, symSize: 0xB0 }
  - { offsetInCU: 0x312F7, offset: 0xD8760, size: 0x8, addend: 0x0, symName: '__ZN70_$LT$alloc..vec..Vec$LT$T$C$A$GT$$u20$as$u20$core..ops..drop..Drop$GT$4drop17h4b89503a2dffbcfbE', symObjAddr: 0xB9A0, symBinAddr: 0x28F80, symSize: 0xD0 }
  - { offsetInCU: 0x3142F, offset: 0xD8898, size: 0x8, addend: 0x0, symName: '__ZN70_$LT$alloc..vec..Vec$LT$T$C$A$GT$$u20$as$u20$core..ops..drop..Drop$GT$4drop17ha3c451d453b6ff9bE', symObjAddr: 0xBF30, symBinAddr: 0x29050, symSize: 0xD0 }
  - { offsetInCU: 0x315F8, offset: 0xD8A61, size: 0x8, addend: 0x0, symName: '__ZN70_$LT$alloc..vec..Vec$LT$T$C$A$GT$$u20$as$u20$core..ops..drop..Drop$GT$4drop17he8b346994d0b189fE', symObjAddr: 0xC1A0, symBinAddr: 0x29120, symSize: 0xB0 }
  - { offsetInCU: 0x31730, offset: 0xD8B99, size: 0x8, addend: 0x0, symName: '__ZN70_$LT$alloc..vec..Vec$LT$T$C$A$GT$$u20$as$u20$core..ops..drop..Drop$GT$4drop17hee0b83189910ce59E', symObjAddr: 0xC250, symBinAddr: 0x291D0, symSize: 0x83 }
  - { offsetInCU: 0x318CC, offset: 0xD8D35, size: 0x8, addend: 0x0, symName: '__ZN67_$LT$alloc..vec..Vec$LT$T$C$A$GT$$u20$as$u20$core..clone..Clone$GT$5clone17h737b0d9994ee6510E', symObjAddr: 0xB2D0, symBinAddr: 0x28B40, symSize: 0x390 }
  - { offsetInCU: 0x1E, offset: 0xE000C, size: 0x8, addend: 0x0, symName: '__ZN4core3ptr100drop_in_place$LT$core..option..Option$LT$alloc..boxed..Box$LT$syn..path..GenericArgument$GT$$GT$$GT$17h07d831ee02e44576E', symObjAddr: 0x0, symBinAddr: 0x29260, symSize: 0x50 }
  - { offsetInCU: 0x99, offset: 0xE0087, size: 0x8, addend: 0x0, symName: '__ZN58_$LT$alloc..string..String$u20$as$u20$core..fmt..Write$GT$10write_char17hd329c0cb943f081aE', symObjAddr: 0x6DE0, symBinAddr: 0x30040, symSize: 0x130 }
  - { offsetInCU: 0x440, offset: 0xE042E, size: 0x8, addend: 0x0, symName: '__ZN58_$LT$alloc..string..String$u20$as$u20$core..fmt..Write$GT$9write_str17h1ff5aa96ca91c6d5E', symObjAddr: 0x6F10, symBinAddr: 0x30170, symSize: 0x60 }
  - { offsetInCU: 0x6D2, offset: 0xE06C0, size: 0x8, addend: 0x0, symName: '__ZN60_$LT$alloc..string..String$u20$as$u20$core..fmt..Display$GT$3fmt17hc365578c40090489E', symObjAddr: 0x6F70, symBinAddr: 0x301D0, symSize: 0x20 }
  - { offsetInCU: 0x3A71, offset: 0xE3A5F, size: 0x8, addend: 0x0, symName: '__ZN4core3ptr100drop_in_place$LT$core..option..Option$LT$alloc..boxed..Box$LT$syn..path..GenericArgument$GT$$GT$$GT$17h07d831ee02e44576E', symObjAddr: 0x0, symBinAddr: 0x29260, symSize: 0x50 }
  - { offsetInCU: 0x3D57, offset: 0xE3D45, size: 0x8, addend: 0x0, symName: '__ZN4core3ptr101drop_in_place$LT$core..option..Option$LT$alloc..boxed..Box$LT$syn..generics..GenericParam$GT$$GT$$GT$17h1bf3e65de904d858E', symObjAddr: 0x50, symBinAddr: 0x292B0, symSize: 0x310 }
  - { offsetInCU: 0x48AC, offset: 0xE489A, size: 0x8, addend: 0x0, symName: '__ZN4core3ptr103drop_in_place$LT$core..option..Option$LT$alloc..boxed..Box$LT$syn..generics..WherePredicate$GT$$GT$$GT$17h9776e1ad8fc230daE', symObjAddr: 0x360, symBinAddr: 0x295C0, symSize: 0x100 }
  - { offsetInCU: 0x4CB5, offset: 0xE4CA3, size: 0x8, addend: 0x0, symName: '__ZN4core3ptr103drop_in_place$LT$syn..punctuated..Punctuated$LT$syn..generics..TypeParamBound$C$syn..token..Add$GT$$GT$17habfcafaa65bab169E', symObjAddr: 0x460, symBinAddr: 0x296C0, symSize: 0x220 }
  - { offsetInCU: 0x5667, offset: 0xE5655, size: 0x8, addend: 0x0, symName: '__ZN4core3ptr108drop_in_place$LT$syn..punctuated..Punctuated$LT$syn..expr..GenericMethodArgument$C$syn..token..Comma$GT$$GT$17h4078e20e5c54219eE', symObjAddr: 0x680, symBinAddr: 0x298E0, symSize: 0x160 }
  - { offsetInCU: 0x5B7C, offset: 0xE5B6A, size: 0x8, addend: 0x0, symName: '__ZN4core3ptr34drop_in_place$LT$syn..lit..Lit$GT$17hc6ba74c11cc9ba31E', symObjAddr: 0x7E0, symBinAddr: 0x29A40, symSize: 0x110 }
  - { offsetInCU: 0x6059, offset: 0xE6047, size: 0x8, addend: 0x0, symName: '__ZN4core3ptr34drop_in_place$LT$syn..pat..Pat$GT$17hb93bec8183c0d605E', symObjAddr: 0x8F0, symBinAddr: 0x29B50, symSize: 0xEC0 }
  - { offsetInCU: 0x9464, offset: 0xE9452, size: 0x8, addend: 0x0, symName: '__ZN4core3ptr34drop_in_place$LT$syn..ty..Type$GT$17he4f555fdf4dcc841E', symObjAddr: 0x17B0, symBinAddr: 0x2AA10, symSize: 0x5C0 }
  - { offsetInCU: 0xB002, offset: 0xEAFF0, size: 0x8, addend: 0x0, symName: '__ZN4core3ptr36drop_in_place$LT$syn..expr..Expr$GT$17h79aaeff521181404E', symObjAddr: 0x1D70, symBinAddr: 0x2AFD0, symSize: 0x29C0 }
  - { offsetInCU: 0x14571, offset: 0xF455F, size: 0x8, addend: 0x0, symName: '__ZN4core3ptr36drop_in_place$LT$syn..mac..Macro$GT$17ha5159c44bb719150E', symObjAddr: 0x4730, symBinAddr: 0x2D990, symSize: 0x110 }
  - { offsetInCU: 0x14A72, offset: 0xF4A60, size: 0x8, addend: 0x0, symName: '__ZN4core3ptr36drop_in_place$LT$syn..path..Path$GT$17h9ab4550cc70a1095E', symObjAddr: 0x4840, symBinAddr: 0x2DAA0, symSize: 0x250 }
  - { offsetInCU: 0x154BB, offset: 0xF54A9, size: 0x8, addend: 0x0, symName: '__ZN4core3ptr37drop_in_place$LT$core..fmt..Error$GT$17h338b76879d5f46f1E', symObjAddr: 0x4A90, symBinAddr: 0x2DCF0, symSize: 0x10 }
  - { offsetInCU: 0x154E7, offset: 0xF54D5, size: 0x8, addend: 0x0, symName: '__ZN4core3ptr37drop_in_place$LT$syn..stmt..Block$GT$17hac51847bfe6a0e44E', symObjAddr: 0x4AA0, symBinAddr: 0x2DD00, symSize: 0xD0 }
  - { offsetInCU: 0x15826, offset: 0xF5814, size: 0x8, addend: 0x0, symName: '__ZN4core3ptr38drop_in_place$LT$syn..data..Fields$GT$17h13931940f68b9272E', symObjAddr: 0x4B70, symBinAddr: 0x2DDD0, symSize: 0x180 }
  - { offsetInCU: 0x15C44, offset: 0xF5C32, size: 0x8, addend: 0x0, symName: '__ZN4core3ptr38drop_in_place$LT$syn..expr..Member$GT$17h65b75b1cdf35a2a0E', symObjAddr: 0x4CF0, symBinAddr: 0x2DF50, symSize: 0x30 }
  - { offsetInCU: 0x15D41, offset: 0xF5D2F, size: 0x8, addend: 0x0, symName: '__ZN4core3ptr39drop_in_place$LT$proc_macro2..Ident$GT$17h243ed7814b0d96ceE', symObjAddr: 0x4D20, symBinAddr: 0x2DF80, symSize: 0x30 }
  - { offsetInCU: 0x15E1F, offset: 0xF5E0D, size: 0x8, addend: 0x0, symName: '__ZN4core3ptr39drop_in_place$LT$syn..pat..PatTuple$GT$17hc60209bd83ab169aE', symObjAddr: 0x4D50, symBinAddr: 0x2DFB0, symSize: 0xE0 }
  - { offsetInCU: 0x160BB, offset: 0xF60A9, size: 0x8, addend: 0x0, symName: '__ZN4core3ptr40drop_in_place$LT$syn..ty..ReturnType$GT$17h49c8b48bec83435eE', symObjAddr: 0x4E30, symBinAddr: 0x2E090, symSize: 0x50 }
  - { offsetInCU: 0x1622D, offset: 0xF621B, size: 0x8, addend: 0x0, symName: '__ZN4core3ptr41drop_in_place$LT$syn..attr..Attribute$GT$17h4a59160e342bc1d7E', symObjAddr: 0x4E80, symBinAddr: 0x2E0E0, symSize: 0x40 }
  - { offsetInCU: 0x1624A, offset: 0xF6238, size: 0x8, addend: 0x0, symName: '__ZN4core3ptr42drop_in_place$LT$alloc..string..String$GT$17h4bc395cabeea9ae1E', symObjAddr: 0x4EC0, symBinAddr: 0x2E120, symSize: 0x20 }
  - { offsetInCU: 0x16391, offset: 0xF637F, size: 0x8, addend: 0x0, symName: '__ZN4core3ptr42drop_in_place$LT$syn..data..Visibility$GT$17h8c5cc0fd332d7d4bE', symObjAddr: 0x4EE0, symBinAddr: 0x2E140, symSize: 0x60 }
  - { offsetInCU: 0x16533, offset: 0xF6521, size: 0x8, addend: 0x0, symName: '__ZN4core3ptr42drop_in_place$LT$syn..item..ItemStruct$GT$17h52b56e74d7c1dd65E', symObjAddr: 0x4F40, symBinAddr: 0x2E1A0, symSize: 0x180 }
  - { offsetInCU: 0x16A91, offset: 0xF6A7F, size: 0x8, addend: 0x0, symName: '__ZN4core3ptr44drop_in_place$LT$syn..generics..Generics$GT$17hbe7c468bfac75e1fE', symObjAddr: 0x50C0, symBinAddr: 0x2E320, symSize: 0xB0 }
  - { offsetInCU: 0x16CC3, offset: 0xF6CB1, size: 0x8, addend: 0x0, symName: '__ZN4core3ptr44drop_in_place$LT$syn..lifetime..Lifetime$GT$17h778c553088bc6080E', symObjAddr: 0x5170, symBinAddr: 0x2E3D0, symSize: 0x30 }
  - { offsetInCU: 0x16EF6, offset: 0xF6EE4, size: 0x8, addend: 0x0, symName: '__ZN4core3ptr45drop_in_place$LT$proc_macro2..TokenStream$GT$17he3fe16a25ddffbb6E', symObjAddr: 0x51A0, symBinAddr: 0x2E400, symSize: 0x140 }
  - { offsetInCU: 0x17314, offset: 0xF7302, size: 0x8, addend: 0x0, symName: '__ZN4core3ptr45drop_in_place$LT$syn..data..FieldsUnnamed$GT$17hee54cca4bcf05647E', symObjAddr: 0x52E0, symBinAddr: 0x2E540, symSize: 0xE0 }
  - { offsetInCU: 0x17603, offset: 0xF75F1, size: 0x8, addend: 0x0, symName: '__ZN4core3ptr47drop_in_place$LT$syn..generics..LifetimeDef$GT$17hbb23f63be0784159E', symObjAddr: 0x53C0, symBinAddr: 0x2E620, symSize: 0xF0 }
  - { offsetInCU: 0x179FB, offset: 0xF79E9, size: 0x8, addend: 0x0, symName: '__ZN4core3ptr47drop_in_place$LT$syn..path..GenericArgument$GT$17h1e0ebdfae00e1f4cE', symObjAddr: 0x54B0, symBinAddr: 0x2E710, symSize: 0xE0 }
  - { offsetInCU: 0x17D28, offset: 0xF7D16, size: 0x8, addend: 0x0, symName: '__ZN4core3ptr58drop_in_place$LT$alloc..vec..Vec$LT$syn..expr..Arm$GT$$GT$17hd04b1bad30cf20a9E', symObjAddr: 0x5590, symBinAddr: 0x2E7F0, symSize: 0xD0 }
  - { offsetInCU: 0x17FB5, offset: 0xF7FA3, size: 0x8, addend: 0x0, symName: '__ZN4core3ptr59drop_in_place$LT$alloc..boxed..Box$LT$syn..pat..Pat$GT$$GT$17h6a7bdec7bcb9bb51E', symObjAddr: 0x5660, symBinAddr: 0x2E8C0, symSize: 0x50 }
  - { offsetInCU: 0x18110, offset: 0xF80FE, size: 0x8, addend: 0x0, symName: '__ZN4core3ptr59drop_in_place$LT$alloc..boxed..Box$LT$syn..ty..Type$GT$$GT$17hd5473a45fa589c86E', symObjAddr: 0x56B0, symBinAddr: 0x2E910, symSize: 0x50 }
  - { offsetInCU: 0x1826B, offset: 0xF8259, size: 0x8, addend: 0x0, symName: '__ZN4core3ptr61drop_in_place$LT$alloc..boxed..Box$LT$syn..expr..Expr$GT$$GT$17hc23fa5d0ad4eaa60E', symObjAddr: 0x5700, symBinAddr: 0x2E960, symSize: 0x50 }
  - { offsetInCU: 0x183C6, offset: 0xF83B4, size: 0x8, addend: 0x0, symName: '__ZN4core3ptr61drop_in_place$LT$syn..path..ParenthesizedGenericArguments$GT$17h7b07165df6134aa3E', symObjAddr: 0x5750, symBinAddr: 0x2E9B0, symSize: 0x170 }
  - { offsetInCU: 0x189A0, offset: 0xF898E, size: 0x8, addend: 0x0, symName: '__ZN4core3ptr63drop_in_place$LT$alloc..boxed..Box$LT$syn..lit..LitRepr$GT$$GT$17hea5bc85b2cfab50fE', symObjAddr: 0x58C0, symBinAddr: 0x2EB20, symSize: 0x60 }
  - { offsetInCU: 0x18C95, offset: 0xF8C83, size: 0x8, addend: 0x0, symName: '__ZN4core3ptr64drop_in_place$LT$alloc..boxed..Box$LT$syn..pat..FieldPat$GT$$GT$17h25e3c1bebc759d42E', symObjAddr: 0x5920, symBinAddr: 0x2EB80, symSize: 0x140 }
  - { offsetInCU: 0x19340, offset: 0xF932E, size: 0x8, addend: 0x0, symName: '__ZN4core3ptr64drop_in_place$LT$alloc..boxed..Box$LT$syn..ty..BareFnArg$GT$$GT$17h225ecbe95efa4f3fE', symObjAddr: 0x5A60, symBinAddr: 0x2ECC0, symSize: 0x120 }
  - { offsetInCU: 0x19856, offset: 0xF9844, size: 0x8, addend: 0x0, symName: '__ZN4core3ptr64drop_in_place$LT$alloc..vec..Vec$LT$syn..attr..Attribute$GT$$GT$17h0d350e8bfce98df8E', symObjAddr: 0x5B80, symBinAddr: 0x2EDE0, symSize: 0xD0 }
  - { offsetInCU: 0x19AE3, offset: 0xF9AD1, size: 0x8, addend: 0x0, symName: '__ZN4core3ptr65drop_in_place$LT$core..option..Option$LT$syn..expr..Label$GT$$GT$17h3eba2c11b9043240E', symObjAddr: 0x5C50, symBinAddr: 0x2EEB0, symSize: 0x30 }
  - { offsetInCU: 0x19C1E, offset: 0xF9C0C, size: 0x8, addend: 0x0, symName: '__ZN4core3ptr66drop_in_place$LT$core..option..Option$LT$syn..ty..Variadic$GT$$GT$17h89aad488037d2a67E', symObjAddr: 0x5C80, symBinAddr: 0x2EEE0, symSize: 0xE0 }
  - { offsetInCU: 0x19EA2, offset: 0xF9E90, size: 0x8, addend: 0x0, symName: '__ZN4core3ptr67drop_in_place$LT$alloc..boxed..Box$LT$syn..expr..FieldValue$GT$$GT$17hc36de89b26347dc1E', symObjAddr: 0x5D60, symBinAddr: 0x2EFC0, symSize: 0x140 }
  - { offsetInCU: 0x1A3C5, offset: 0xFA3B3, size: 0x8, addend: 0x0, symName: '__ZN4core3ptr68drop_in_place$LT$alloc..vec..Vec$LT$proc_macro2..TokenStream$GT$$GT$17he55e9159357f4083E', symObjAddr: 0x5EA0, symBinAddr: 0x2F100, symSize: 0xC0 }
  - { offsetInCU: 0x1A652, offset: 0xFA640, size: 0x8, addend: 0x0, symName: '__ZN4core3ptr72drop_in_place$LT$core..option..Option$LT$syn..lifetime..Lifetime$GT$$GT$17h567170d60f637af5E', symObjAddr: 0x5F60, symBinAddr: 0x2F1C0, symSize: 0x30 }
  - { offsetInCU: 0x1A76E, offset: 0xFA75C, size: 0x8, addend: 0x0, symName: '__ZN4core3ptr75drop_in_place$LT$alloc..boxed..Box$LT$syn..generics..TypeParamBound$GT$$GT$17h1bffc99fd705ded2E', symObjAddr: 0x5F90, symBinAddr: 0x2F1F0, symSize: 0x170 }
  - { offsetInCU: 0x1AE33, offset: 0xFAE21, size: 0x8, addend: 0x0, symName: '__ZN4core3ptr75drop_in_place$LT$core..option..Option$LT$syn..generics..WhereClause$GT$$GT$17h7e43fefb74085dc1E', symObjAddr: 0x6100, symBinAddr: 0x2F360, symSize: 0x100 }
  - { offsetInCU: 0x1B0BA, offset: 0xFB0A8, size: 0x8, addend: 0x0, symName: '__ZN4core3ptr78drop_in_place$LT$alloc..boxed..Box$LT$syn..expr..GenericMethodArgument$GT$$GT$17h31d6ebe0ea6c9944E', symObjAddr: 0x6200, symBinAddr: 0x2F460, symSize: 0x60 }
  - { offsetInCU: 0x1B2EC, offset: 0xFB2DA, size: 0x8, addend: 0x0, symName: '__ZN4core3ptr78drop_in_place$LT$core..option..Option$LT$syn..generics..BoundLifetimes$GT$$GT$17h5704c3ded2f1ac97E', symObjAddr: 0x6260, symBinAddr: 0x2F4C0, symSize: 0xD0 }
  - { offsetInCU: 0x1B795, offset: 0xFB783, size: 0x8, addend: 0x0, symName: '__ZN4core3ptr86drop_in_place$LT$syn..punctuated..Punctuated$LT$syn..pat..Pat$C$syn..token..Or$GT$$GT$17hf795a553b5770be2E', symObjAddr: 0x6330, symBinAddr: 0x2F590, symSize: 0x120 }
  - { offsetInCU: 0x1BBDB, offset: 0xFBBC9, size: 0x8, addend: 0x0, symName: '__ZN4core3ptr87drop_in_place$LT$core..option..Option$LT$alloc..boxed..Box$LT$syn..pat..Pat$GT$$GT$$GT$17h73f486444f071012E', symObjAddr: 0x6450, symBinAddr: 0x2F6B0, symSize: 0x50 }
  - { offsetInCU: 0x1BD4D, offset: 0xFBD3B, size: 0x8, addend: 0x0, symName: '__ZN4core3ptr87drop_in_place$LT$core..option..Option$LT$alloc..boxed..Box$LT$syn..ty..Type$GT$$GT$$GT$17h2f83f4b64cf766e8E', symObjAddr: 0x64A0, symBinAddr: 0x2F700, symSize: 0x50 }
  - { offsetInCU: 0x1BEBF, offset: 0xFBEAD, size: 0x8, addend: 0x0, symName: '__ZN4core3ptr89drop_in_place$LT$core..option..Option$LT$alloc..boxed..Box$LT$syn..expr..Expr$GT$$GT$$GT$17h188a7557556ed480E', symObjAddr: 0x64F0, symBinAddr: 0x2F750, symSize: 0x50 }
  - { offsetInCU: 0x1C06F, offset: 0xFC05D, size: 0x8, addend: 0x0, symName: '__ZN4core3ptr89drop_in_place$LT$syn..punctuated..Punctuated$LT$syn..pat..Pat$C$syn..token..Comma$GT$$GT$17h397b4ea6323453e5E', symObjAddr: 0x6540, symBinAddr: 0x2F7A0, symSize: 0x120 }
  - { offsetInCU: 0x1C529, offset: 0xFC517, size: 0x8, addend: 0x0, symName: '__ZN4core3ptr90drop_in_place$LT$core..option..Option$LT$alloc..boxed..Box$LT$syn..data..Field$GT$$GT$$GT$17ha156957802eb1598E', symObjAddr: 0x6660, symBinAddr: 0x2F8C0, symSize: 0x1F0 }
  - { offsetInCU: 0x1CD9E, offset: 0xFCD8C, size: 0x8, addend: 0x0, symName: '__ZN4core3ptr91drop_in_place$LT$syn..punctuated..Punctuated$LT$syn..expr..Expr$C$syn..token..Comma$GT$$GT$17hb987dbf8c4fa792eE', symObjAddr: 0x6850, symBinAddr: 0x2FAB0, symSize: 0x120 }
  - { offsetInCU: 0x1D1FB, offset: 0xFD1E9, size: 0x8, addend: 0x0, symName: '__ZN4core3ptr94drop_in_place$LT$syn..punctuated..Punctuated$LT$syn..pat..FieldPat$C$syn..token..Comma$GT$$GT$17h98cfc6fc576c5a2eE', symObjAddr: 0x6970, symBinAddr: 0x2FBD0, symSize: 0xF0 }
  - { offsetInCU: 0x1D4C5, offset: 0xFD4B3, size: 0x8, addend: 0x0, symName: '__ZN4core3ptr94drop_in_place$LT$syn..punctuated..Punctuated$LT$syn..ty..BareFnArg$C$syn..token..Comma$GT$$GT$17h3e3e37b8188fea7aE', symObjAddr: 0x6A60, symBinAddr: 0x2FCC0, symSize: 0x90 }
  - { offsetInCU: 0x1D6FB, offset: 0xFD6E9, size: 0x8, addend: 0x0, symName: '__ZN4core3ptr96drop_in_place$LT$core..option..Option$LT$alloc..boxed..Box$LT$syn..path..PathSegment$GT$$GT$$GT$17h0625972f26ace92dE', symObjAddr: 0x6AF0, symBinAddr: 0x2FD50, symSize: 0x180 }
  - { offsetInCU: 0x1DD8C, offset: 0xFDD7A, size: 0x8, addend: 0x0, symName: '__ZN4core3ptr97drop_in_place$LT$syn..punctuated..Punctuated$LT$syn..expr..FieldValue$C$syn..token..Comma$GT$$GT$17heea3a9d8c114766bE', symObjAddr: 0x6C70, symBinAddr: 0x2FED0, symSize: 0x90 }
  - { offsetInCU: 0x1E03E, offset: 0xFE02C, size: 0x8, addend: 0x0, symName: '__ZN4core3ptr97drop_in_place$LT$syn..punctuated..Punctuated$LT$syn..lifetime..Lifetime$C$syn..token..Add$GT$$GT$17h9a7119801dbe4a28E', symObjAddr: 0x6D00, symBinAddr: 0x2FF60, symSize: 0xC0 }
  - { offsetInCU: 0x1EBA9, offset: 0xFEB97, size: 0x8, addend: 0x0, symName: '__ZN53_$LT$core..fmt..Error$u20$as$u20$core..fmt..Debug$GT$3fmt17h43ae5cec9623af13E', symObjAddr: 0x6DC0, symBinAddr: 0x30020, symSize: 0x20 }
  - { offsetInCU: 0x27968, offset: 0x107956, size: 0x8, addend: 0x0, symName: __ZN28borsh_schema_derive_internal11enum_schema12process_enum17h264b4a79b8ad5b32E, symObjAddr: 0x6F90, symBinAddr: 0x301F0, symSize: 0x27D5 }
  - { offsetInCU: 0x1E, offset: 0x10DF95, size: 0x8, addend: 0x0, symName: '__ZN100_$LT$syn..punctuated..PrivateIter$LT$T$C$P$GT$$u20$as$u20$core..iter..traits..iterator..Iterator$GT$4next17h4592abb40da6297cE.llvm.2299956234683180906', symObjAddr: 0x0, symBinAddr: 0x329D0, symSize: 0x30 }
  - { offsetInCU: 0x5DA, offset: 0x10E551, size: 0x8, addend: 0x0, symName: '__ZN100_$LT$syn..punctuated..PrivateIter$LT$T$C$P$GT$$u20$as$u20$core..iter..traits..iterator..Iterator$GT$4next17h4592abb40da6297cE.llvm.2299956234683180906', symObjAddr: 0x0, symBinAddr: 0x329D0, symSize: 0x30 }
  - { offsetInCU: 0x85A, offset: 0x10E7D1, size: 0x8, addend: 0x0, symName: '__ZN100_$LT$syn..punctuated..PrivateIter$LT$T$C$P$GT$$u20$as$u20$core..iter..traits..iterator..Iterator$GT$4next17hd42b7d02b000779cE.llvm.2299956234683180906', symObjAddr: 0x30, symBinAddr: 0x32A00, symSize: 0x30 }
  - { offsetInCU: 0x8786, offset: 0x1166FD, size: 0x8, addend: 0x0, symName: '__ZN4core3ptr100drop_in_place$LT$core..option..Option$LT$alloc..boxed..Box$LT$syn..generics..LifetimeDef$GT$$GT$$GT$17hed92367f10a63ebbE', symObjAddr: 0x430, symBinAddr: 0x32BF0, symSize: 0x140 }
  - { offsetInCU: 0x8DAD, offset: 0x116D24, size: 0x8, addend: 0x0, symName: '__ZN4core3ptr100drop_in_place$LT$core..option..Option$LT$alloc..boxed..Box$LT$syn..path..GenericArgument$GT$$GT$$GT$17h07d831ee02e44576E', symObjAddr: 0x570, symBinAddr: 0x32D30, symSize: 0x50 }
  - { offsetInCU: 0x9055, offset: 0x116FCC, size: 0x8, addend: 0x0, symName: '__ZN4core3ptr103drop_in_place$LT$syn..punctuated..Punctuated$LT$syn..generics..TypeParamBound$C$syn..token..Add$GT$$GT$17habfcafaa65bab169E', symObjAddr: 0x5C0, symBinAddr: 0x32D80, symSize: 0x220 }
  - { offsetInCU: 0x9A07, offset: 0x11797E, size: 0x8, addend: 0x0, symName: '__ZN4core3ptr108drop_in_place$LT$syn..punctuated..Punctuated$LT$syn..expr..GenericMethodArgument$C$syn..token..Comma$GT$$GT$17h4078e20e5c54219eE', symObjAddr: 0x7E0, symBinAddr: 0x32FA0, symSize: 0x160 }
  - { offsetInCU: 0x9F1C, offset: 0x117E93, size: 0x8, addend: 0x0, symName: '__ZN4core3ptr34drop_in_place$LT$syn..lit..Lit$GT$17hc6ba74c11cc9ba31E', symObjAddr: 0x940, symBinAddr: 0x33100, symSize: 0x110 }
  - { offsetInCU: 0xA3F9, offset: 0x118370, size: 0x8, addend: 0x0, symName: '__ZN4core3ptr34drop_in_place$LT$syn..pat..Pat$GT$17hb93bec8183c0d605E', symObjAddr: 0xA50, symBinAddr: 0x33210, symSize: 0xEC0 }
  - { offsetInCU: 0xD804, offset: 0x11B77B, size: 0x8, addend: 0x0, symName: '__ZN4core3ptr34drop_in_place$LT$syn..ty..Type$GT$17he4f555fdf4dcc841E.llvm.2299956234683180906', symObjAddr: 0x1910, symBinAddr: 0x340D0, symSize: 0x5C0 }
  - { offsetInCU: 0xF3A2, offset: 0x11D319, size: 0x8, addend: 0x0, symName: '__ZN4core3ptr36drop_in_place$LT$syn..expr..Expr$GT$17h79aaeff521181404E', symObjAddr: 0x1ED0, symBinAddr: 0x34690, symSize: 0x29C0 }
  - { offsetInCU: 0x18911, offset: 0x126888, size: 0x8, addend: 0x0, symName: '__ZN4core3ptr36drop_in_place$LT$syn..mac..Macro$GT$17ha5159c44bb719150E', symObjAddr: 0x4890, symBinAddr: 0x37050, symSize: 0x110 }
  - { offsetInCU: 0x18E12, offset: 0x126D89, size: 0x8, addend: 0x0, symName: '__ZN4core3ptr36drop_in_place$LT$syn..path..Path$GT$17h9ab4550cc70a1095E.llvm.2299956234683180906', symObjAddr: 0x49A0, symBinAddr: 0x37160, symSize: 0x250 }
  - { offsetInCU: 0x198D7, offset: 0x12784E, size: 0x8, addend: 0x0, symName: '__ZN4core3ptr37drop_in_place$LT$syn..data..Field$GT$17h7607ab0de8d4bd06E.llvm.2299956234683180906', symObjAddr: 0x4BF0, symBinAddr: 0x373B0, symSize: 0x170 }
  - { offsetInCU: 0x19DF8, offset: 0x127D6F, size: 0x8, addend: 0x0, symName: '__ZN4core3ptr37drop_in_place$LT$syn..stmt..Block$GT$17hac51847bfe6a0e44E', symObjAddr: 0x4D60, symBinAddr: 0x37520, symSize: 0xD0 }
  - { offsetInCU: 0x1A09C, offset: 0x128013, size: 0x8, addend: 0x0, symName: '__ZN4core3ptr39drop_in_place$LT$proc_macro2..Ident$GT$17h243ed7814b0d96ceE', symObjAddr: 0x4E30, symBinAddr: 0x375F0, symSize: 0x30 }
  - { offsetInCU: 0x1A17A, offset: 0x1280F1, size: 0x8, addend: 0x0, symName: '__ZN4core3ptr39drop_in_place$LT$syn..pat..PatTuple$GT$17hc60209bd83ab169aE', symObjAddr: 0x4E60, symBinAddr: 0x37620, symSize: 0xE0 }
  - { offsetInCU: 0x1A416, offset: 0x12838D, size: 0x8, addend: 0x0, symName: '__ZN4core3ptr40drop_in_place$LT$syn..ty..ReturnType$GT$17h49c8b48bec83435eE', symObjAddr: 0x4F40, symBinAddr: 0x37700, symSize: 0x50 }
  - { offsetInCU: 0x1A588, offset: 0x1284FF, size: 0x8, addend: 0x0, symName: '__ZN4core3ptr42drop_in_place$LT$syn..data..Visibility$GT$17h8c5cc0fd332d7d4bE.llvm.2299956234683180906', symObjAddr: 0x4F90, symBinAddr: 0x37750, symSize: 0x60 }
  - { offsetInCU: 0x1A841, offset: 0x1287B8, size: 0x8, addend: 0x0, symName: '__ZN4core3ptr45drop_in_place$LT$proc_macro2..TokenStream$GT$17he3fe16a25ddffbb6E', symObjAddr: 0x4FF0, symBinAddr: 0x377B0, symSize: 0x140 }
  - { offsetInCU: 0x1ACB0, offset: 0x128C27, size: 0x8, addend: 0x0, symName: '__ZN4core3ptr47drop_in_place$LT$syn..path..GenericArgument$GT$17h1e0ebdfae00e1f4cE', symObjAddr: 0x5130, symBinAddr: 0x378F0, symSize: 0xE0 }
  - { offsetInCU: 0x1AFDD, offset: 0x128F54, size: 0x8, addend: 0x0, symName: '__ZN4core3ptr58drop_in_place$LT$alloc..vec..Vec$LT$syn..expr..Arm$GT$$GT$17hd04b1bad30cf20a9E', symObjAddr: 0x5210, symBinAddr: 0x379D0, symSize: 0xD0 }
  - { offsetInCU: 0x1B26A, offset: 0x1291E1, size: 0x8, addend: 0x0, symName: '__ZN4core3ptr59drop_in_place$LT$alloc..boxed..Box$LT$syn..pat..Pat$GT$$GT$17h6a7bdec7bcb9bb51E', symObjAddr: 0x52E0, symBinAddr: 0x37AA0, symSize: 0x50 }
  - { offsetInCU: 0x1B3C5, offset: 0x12933C, size: 0x8, addend: 0x0, symName: '__ZN4core3ptr59drop_in_place$LT$alloc..boxed..Box$LT$syn..ty..Type$GT$$GT$17hd5473a45fa589c86E', symObjAddr: 0x5330, symBinAddr: 0x37AF0, symSize: 0x50 }
  - { offsetInCU: 0x1B520, offset: 0x129497, size: 0x8, addend: 0x0, symName: '__ZN4core3ptr61drop_in_place$LT$alloc..boxed..Box$LT$syn..expr..Expr$GT$$GT$17hc23fa5d0ad4eaa60E', symObjAddr: 0x5380, symBinAddr: 0x37B40, symSize: 0x50 }
  - { offsetInCU: 0x1B67B, offset: 0x1295F2, size: 0x8, addend: 0x0, symName: '__ZN4core3ptr61drop_in_place$LT$syn..path..ParenthesizedGenericArguments$GT$17h7b07165df6134aa3E', symObjAddr: 0x53D0, symBinAddr: 0x37B90, symSize: 0x170 }
  - { offsetInCU: 0x1BC55, offset: 0x129BCC, size: 0x8, addend: 0x0, symName: '__ZN4core3ptr63drop_in_place$LT$alloc..boxed..Box$LT$syn..lit..LitRepr$GT$$GT$17hea5bc85b2cfab50fE', symObjAddr: 0x5540, symBinAddr: 0x37D00, symSize: 0x60 }
  - { offsetInCU: 0x1BF4A, offset: 0x129EC1, size: 0x8, addend: 0x0, symName: '__ZN4core3ptr64drop_in_place$LT$alloc..boxed..Box$LT$syn..pat..FieldPat$GT$$GT$17h25e3c1bebc759d42E', symObjAddr: 0x55A0, symBinAddr: 0x37D60, symSize: 0x140 }
  - { offsetInCU: 0x1C5F5, offset: 0x12A56C, size: 0x8, addend: 0x0, symName: '__ZN4core3ptr64drop_in_place$LT$alloc..boxed..Box$LT$syn..ty..BareFnArg$GT$$GT$17h225ecbe95efa4f3fE', symObjAddr: 0x56E0, symBinAddr: 0x37EA0, symSize: 0x120 }
  - { offsetInCU: 0x1CB0B, offset: 0x12AA82, size: 0x8, addend: 0x0, symName: '__ZN4core3ptr65drop_in_place$LT$core..option..Option$LT$syn..expr..Label$GT$$GT$17h3eba2c11b9043240E', symObjAddr: 0x5800, symBinAddr: 0x37FC0, symSize: 0x30 }
  - { offsetInCU: 0x1CC46, offset: 0x12ABBD, size: 0x8, addend: 0x0, symName: '__ZN4core3ptr66drop_in_place$LT$core..option..Option$LT$syn..ty..Variadic$GT$$GT$17h89aad488037d2a67E', symObjAddr: 0x5830, symBinAddr: 0x37FF0, symSize: 0xE0 }
  - { offsetInCU: 0x1CECA, offset: 0x12AE41, size: 0x8, addend: 0x0, symName: '__ZN4core3ptr67drop_in_place$LT$alloc..boxed..Box$LT$syn..expr..FieldValue$GT$$GT$17hc36de89b26347dc1E', symObjAddr: 0x5910, symBinAddr: 0x380D0, symSize: 0x140 }
  - { offsetInCU: 0x1D3CE, offset: 0x12B345, size: 0x8, addend: 0x0, symName: '__ZN4core3ptr67drop_in_place$LT$core..option..Option$LT$proc_macro2..Ident$GT$$GT$17hebf9c5c24ea1903aE.llvm.2299956234683180906', symObjAddr: 0x5A50, symBinAddr: 0x38210, symSize: 0x30 }
  - { offsetInCU: 0x1D4CB, offset: 0x12B442, size: 0x8, addend: 0x0, symName: '__ZN4core3ptr72drop_in_place$LT$core..option..Option$LT$syn..lifetime..Lifetime$GT$$GT$17h567170d60f637af5E', symObjAddr: 0x5A80, symBinAddr: 0x38240, symSize: 0x30 }
  - { offsetInCU: 0x1D5E7, offset: 0x12B55E, size: 0x8, addend: 0x0, symName: '__ZN4core3ptr75drop_in_place$LT$alloc..boxed..Box$LT$syn..generics..TypeParamBound$GT$$GT$17h1bffc99fd705ded2E', symObjAddr: 0x5AB0, symBinAddr: 0x38270, symSize: 0x170 }
  - { offsetInCU: 0x1DC30, offset: 0x12BBA7, size: 0x8, addend: 0x0, symName: '__ZN4core3ptr78drop_in_place$LT$alloc..boxed..Box$LT$syn..expr..GenericMethodArgument$GT$$GT$17h31d6ebe0ea6c9944E', symObjAddr: 0x5C20, symBinAddr: 0x383E0, symSize: 0x60 }
  - { offsetInCU: 0x1DE24, offset: 0x12BD9B, size: 0x8, addend: 0x0, symName: '__ZN4core3ptr78drop_in_place$LT$core..option..Option$LT$syn..generics..BoundLifetimes$GT$$GT$17h5704c3ded2f1ac97E', symObjAddr: 0x5C80, symBinAddr: 0x38440, symSize: 0x90 }
  - { offsetInCU: 0x1E0DA, offset: 0x12C051, size: 0x8, addend: 0x0, symName: '__ZN4core3ptr86drop_in_place$LT$syn..punctuated..Punctuated$LT$syn..pat..Pat$C$syn..token..Or$GT$$GT$17hf795a553b5770be2E', symObjAddr: 0x5D10, symBinAddr: 0x384D0, symSize: 0x120 }
  - { offsetInCU: 0x1E520, offset: 0x12C497, size: 0x8, addend: 0x0, symName: '__ZN4core3ptr87drop_in_place$LT$core..option..Option$LT$alloc..boxed..Box$LT$syn..pat..Pat$GT$$GT$$GT$17h73f486444f071012E', symObjAddr: 0x5E30, symBinAddr: 0x385F0, symSize: 0x50 }
  - { offsetInCU: 0x1E692, offset: 0x12C609, size: 0x8, addend: 0x0, symName: '__ZN4core3ptr87drop_in_place$LT$core..option..Option$LT$alloc..boxed..Box$LT$syn..ty..Type$GT$$GT$$GT$17h2f83f4b64cf766e8E', symObjAddr: 0x5E80, symBinAddr: 0x38640, symSize: 0x50 }
  - { offsetInCU: 0x1E804, offset: 0x12C77B, size: 0x8, addend: 0x0, symName: '__ZN4core3ptr89drop_in_place$LT$core..option..Option$LT$alloc..boxed..Box$LT$syn..expr..Expr$GT$$GT$$GT$17h188a7557556ed480E', symObjAddr: 0x5ED0, symBinAddr: 0x38690, symSize: 0x50 }
  - { offsetInCU: 0x1E9B4, offset: 0x12C92B, size: 0x8, addend: 0x0, symName: '__ZN4core3ptr89drop_in_place$LT$syn..punctuated..Punctuated$LT$syn..pat..Pat$C$syn..token..Comma$GT$$GT$17h397b4ea6323453e5E', symObjAddr: 0x5F20, symBinAddr: 0x386E0, symSize: 0x120 }
  - { offsetInCU: 0x1EE4F, offset: 0x12CDC6, size: 0x8, addend: 0x0, symName: '__ZN4core3ptr91drop_in_place$LT$syn..punctuated..Punctuated$LT$syn..expr..Expr$C$syn..token..Comma$GT$$GT$17hb987dbf8c4fa792eE', symObjAddr: 0x6040, symBinAddr: 0x38800, symSize: 0x120 }
  - { offsetInCU: 0x1F2AC, offset: 0x12D223, size: 0x8, addend: 0x0, symName: '__ZN4core3ptr94drop_in_place$LT$syn..punctuated..Punctuated$LT$syn..pat..FieldPat$C$syn..token..Comma$GT$$GT$17h98cfc6fc576c5a2eE', symObjAddr: 0x6170, symBinAddr: 0x38920, symSize: 0xF0 }
  - { offsetInCU: 0x1F576, offset: 0x12D4ED, size: 0x8, addend: 0x0, symName: '__ZN4core3ptr94drop_in_place$LT$syn..punctuated..Punctuated$LT$syn..ty..BareFnArg$C$syn..token..Comma$GT$$GT$17h3e3e37b8188fea7aE', symObjAddr: 0x6260, symBinAddr: 0x38A10, symSize: 0x90 }
  - { offsetInCU: 0x1F7AC, offset: 0x12D723, size: 0x8, addend: 0x0, symName: '__ZN4core3ptr96drop_in_place$LT$core..option..Option$LT$alloc..boxed..Box$LT$syn..path..PathSegment$GT$$GT$$GT$17h0625972f26ace92dE', symObjAddr: 0x62F0, symBinAddr: 0x38AA0, symSize: 0x180 }
  - { offsetInCU: 0x1FE3D, offset: 0x12DDB4, size: 0x8, addend: 0x0, symName: '__ZN4core3ptr97drop_in_place$LT$syn..punctuated..Punctuated$LT$syn..expr..FieldValue$C$syn..token..Comma$GT$$GT$17heea3a9d8c114766bE', symObjAddr: 0x6470, symBinAddr: 0x38C20, symSize: 0x90 }
  - { offsetInCU: 0x200EF, offset: 0x12E066, size: 0x8, addend: 0x0, symName: '__ZN4core3ptr97drop_in_place$LT$syn..punctuated..Punctuated$LT$syn..lifetime..Lifetime$C$syn..token..Add$GT$$GT$17h9a7119801dbe4a28E', symObjAddr: 0x6500, symBinAddr: 0x38CB0, symSize: 0xC0 }
  - { offsetInCU: 0x2375B, offset: 0x1316D2, size: 0x8, addend: 0x0, symName: '__ZN3syn10punctuated23Punctuated$LT$T$C$P$GT$4push17h7f8f1f8e5d1ed37eE', symObjAddr: 0x200, symBinAddr: 0x32A30, symSize: 0x1C0 }
  - { offsetInCU: 0x1E, offset: 0x134676, size: 0x8, addend: 0x0, symName: __ZN5alloc7raw_vec11finish_grow17hcdc8329626270e77E.llvm.13427932455961915206, symObjAddr: 0x0, symBinAddr: 0x38D70, symSize: 0xA0 }
  - { offsetInCU: 0x3CA0, offset: 0x1382F8, size: 0x8, addend: 0x0, symName: __ZN5alloc7raw_vec11finish_grow17hcdc8329626270e77E.llvm.13427932455961915206, symObjAddr: 0x0, symBinAddr: 0x38D70, symSize: 0xA0 }
  - { offsetInCU: 0x4B8E, offset: 0x1391E6, size: 0x8, addend: 0x0, symName: '__ZN5alloc7raw_vec19RawVec$LT$T$C$A$GT$7reserve21do_reserve_and_handle17hae506b709019088eE', symObjAddr: 0x430, symBinAddr: 0x228740, symSize: 0xB0 }
  - { offsetInCU: 0x4ECD, offset: 0x139525, size: 0x8, addend: 0x0, symName: '__ZN77_$LT$alloc..raw_vec..RawVec$LT$T$C$A$GT$$u20$as$u20$core..ops..drop..Drop$GT$4drop17h2aed4e8968f8ccfeE', symObjAddr: 0x5C0, symBinAddr: 0x39120, symSize: 0x0 }
  - { offsetInCU: 0x4FCA, offset: 0x139622, size: 0x8, addend: 0x0, symName: '__ZN77_$LT$alloc..raw_vec..RawVec$LT$T$C$A$GT$$u20$as$u20$core..ops..drop..Drop$GT$4drop17h4dac3b74720bd052E', symObjAddr: 0x6B0, symBinAddr: 0x39150, symSize: 0x0 }
  - { offsetInCU: 0x5D39, offset: 0x13A391, size: 0x8, addend: 0x0, symName: '__ZN5alloc7raw_vec19RawVec$LT$T$C$A$GT$16reserve_for_push17h1dc3890c4148bfb7E', symObjAddr: 0x120, symBinAddr: 0x38E10, symSize: 0xC0 }
  - { offsetInCU: 0xAC42, offset: 0x13F29A, size: 0x8, addend: 0x0, symName: '__ZN5alloc7raw_vec19RawVec$LT$T$C$A$GT$16reserve_for_push17h2f1e226e7edc766eE', symObjAddr: 0x1E0, symBinAddr: 0x38ED0, symSize: 0xD0 }
  - { offsetInCU: 0xB107, offset: 0x13F75F, size: 0x8, addend: 0x0, symName: '__ZN5alloc7raw_vec19RawVec$LT$T$C$A$GT$16reserve_for_push17h4607fd7d680776e4E', symObjAddr: 0x2B0, symBinAddr: 0x38FA0, symSize: 0xD0 }
  - { offsetInCU: 0xB5CB, offset: 0x13FC23, size: 0x8, addend: 0x0, symName: '__ZN5alloc7raw_vec19RawVec$LT$T$C$A$GT$16reserve_for_push17h68d5faeb2a5feadeE', symObjAddr: 0x380, symBinAddr: 0x39070, symSize: 0xB0 }
  - { offsetInCU: 0x1E, offset: 0x140059, size: 0x8, addend: 0x0, symName: '__ZN4core3ptr100drop_in_place$LT$core..option..Option$LT$alloc..boxed..Box$LT$syn..generics..LifetimeDef$GT$$GT$$GT$17hed92367f10a63ebbE', symObjAddr: 0x0, symBinAddr: 0x39180, symSize: 0x140 }
  - { offsetInCU: 0x99, offset: 0x1400D4, size: 0x8, addend: 0x0, symName: '__ZN58_$LT$alloc..string..String$u20$as$u20$core..fmt..Write$GT$10write_char17hd329c0cb943f081aE', symObjAddr: 0x62F0, symBinAddr: 0x3F470, symSize: 0x130 }
  - { offsetInCU: 0x441, offset: 0x14047C, size: 0x8, addend: 0x0, symName: '__ZN58_$LT$alloc..string..String$u20$as$u20$core..fmt..Write$GT$9write_str17h1ff5aa96ca91c6d5E', symObjAddr: 0x6420, symBinAddr: 0x3F5A0, symSize: 0x60 }
  - { offsetInCU: 0x17EB, offset: 0x141826, size: 0x8, addend: 0x0, symName: '__ZN4core3ptr100drop_in_place$LT$core..option..Option$LT$alloc..boxed..Box$LT$syn..generics..LifetimeDef$GT$$GT$$GT$17hed92367f10a63ebbE', symObjAddr: 0x0, symBinAddr: 0x39180, symSize: 0x140 }
  - { offsetInCU: 0x1E12, offset: 0x141E4D, size: 0x8, addend: 0x0, symName: '__ZN4core3ptr100drop_in_place$LT$core..option..Option$LT$alloc..boxed..Box$LT$syn..path..GenericArgument$GT$$GT$$GT$17h07d831ee02e44576E', symObjAddr: 0x140, symBinAddr: 0x392C0, symSize: 0x50 }
  - { offsetInCU: 0x20BA, offset: 0x1420F5, size: 0x8, addend: 0x0, symName: '__ZN4core3ptr103drop_in_place$LT$syn..punctuated..Punctuated$LT$syn..generics..TypeParamBound$C$syn..token..Add$GT$$GT$17habfcafaa65bab169E', symObjAddr: 0x190, symBinAddr: 0x39310, symSize: 0x220 }
  - { offsetInCU: 0x2A6C, offset: 0x142AA7, size: 0x8, addend: 0x0, symName: '__ZN4core3ptr108drop_in_place$LT$syn..punctuated..Punctuated$LT$syn..expr..GenericMethodArgument$C$syn..token..Comma$GT$$GT$17h4078e20e5c54219eE', symObjAddr: 0x3B0, symBinAddr: 0x39530, symSize: 0x160 }
  - { offsetInCU: 0x2F81, offset: 0x142FBC, size: 0x8, addend: 0x0, symName: '__ZN4core3ptr34drop_in_place$LT$syn..lit..Lit$GT$17hc6ba74c11cc9ba31E', symObjAddr: 0x510, symBinAddr: 0x39690, symSize: 0x110 }
  - { offsetInCU: 0x345E, offset: 0x143499, size: 0x8, addend: 0x0, symName: '__ZN4core3ptr34drop_in_place$LT$syn..pat..Pat$GT$17hb93bec8183c0d605E', symObjAddr: 0x620, symBinAddr: 0x397A0, symSize: 0xEC0 }
  - { offsetInCU: 0x6869, offset: 0x1468A4, size: 0x8, addend: 0x0, symName: '__ZN4core3ptr34drop_in_place$LT$syn..ty..Type$GT$17he4f555fdf4dcc841E', symObjAddr: 0x14E0, symBinAddr: 0x3A660, symSize: 0x5C0 }
  - { offsetInCU: 0x7D7D, offset: 0x147DB8, size: 0x8, addend: 0x0, symName: '__ZN4core3ptr36drop_in_place$LT$syn..attr..Meta$GT$17hf5accb0dc1acd0feE', symObjAddr: 0x1AA0, symBinAddr: 0x3AC20, symSize: 0x80 }
  - { offsetInCU: 0x84A1, offset: 0x1484DC, size: 0x8, addend: 0x0, symName: '__ZN4core3ptr36drop_in_place$LT$syn..expr..Expr$GT$17h79aaeff521181404E', symObjAddr: 0x1B20, symBinAddr: 0x3ACA0, symSize: 0x29C0 }
  - { offsetInCU: 0x11A10, offset: 0x151A4B, size: 0x8, addend: 0x0, symName: '__ZN4core3ptr36drop_in_place$LT$syn..mac..Macro$GT$17ha5159c44bb719150E', symObjAddr: 0x44E0, symBinAddr: 0x3D660, symSize: 0x110 }
  - { offsetInCU: 0x11F11, offset: 0x151F4C, size: 0x8, addend: 0x0, symName: '__ZN4core3ptr36drop_in_place$LT$syn..path..Path$GT$17h9ab4550cc70a1095E', symObjAddr: 0x45F0, symBinAddr: 0x3D770, symSize: 0x250 }
  - { offsetInCU: 0x1295A, offset: 0x152995, size: 0x8, addend: 0x0, symName: '__ZN4core3ptr37drop_in_place$LT$core..fmt..Error$GT$17h338b76879d5f46f1E', symObjAddr: 0x4840, symBinAddr: 0x3D9C0, symSize: 0x10 }
  - { offsetInCU: 0x12986, offset: 0x1529C1, size: 0x8, addend: 0x0, symName: '__ZN4core3ptr37drop_in_place$LT$syn..stmt..Block$GT$17hac51847bfe6a0e44E', symObjAddr: 0x4850, symBinAddr: 0x3D9D0, symSize: 0xD0 }
  - { offsetInCU: 0x12C2A, offset: 0x152C65, size: 0x8, addend: 0x0, symName: '__ZN4core3ptr38drop_in_place$LT$syn..expr..Member$GT$17h65b75b1cdf35a2a0E', symObjAddr: 0x4920, symBinAddr: 0x3DAA0, symSize: 0x30 }
  - { offsetInCU: 0x12D27, offset: 0x152D62, size: 0x8, addend: 0x0, symName: '__ZN4core3ptr39drop_in_place$LT$proc_macro2..Ident$GT$17h243ed7814b0d96ceE', symObjAddr: 0x4950, symBinAddr: 0x3DAD0, symSize: 0x30 }
  - { offsetInCU: 0x12E05, offset: 0x152E40, size: 0x8, addend: 0x0, symName: '__ZN4core3ptr39drop_in_place$LT$syn..pat..PatTuple$GT$17hc60209bd83ab169aE', symObjAddr: 0x4980, symBinAddr: 0x3DB00, symSize: 0xE0 }
  - { offsetInCU: 0x130A1, offset: 0x1530DC, size: 0x8, addend: 0x0, symName: '__ZN4core3ptr40drop_in_place$LT$syn..ty..ReturnType$GT$17h49c8b48bec83435eE', symObjAddr: 0x4A60, symBinAddr: 0x3DBE0, symSize: 0x50 }
  - { offsetInCU: 0x13213, offset: 0x15324E, size: 0x8, addend: 0x0, symName: '__ZN4core3ptr42drop_in_place$LT$alloc..string..String$GT$17h4bc395cabeea9ae1E', symObjAddr: 0x4AB0, symBinAddr: 0x3DC30, symSize: 0x20 }
  - { offsetInCU: 0x13452, offset: 0x15348D, size: 0x8, addend: 0x0, symName: '__ZN4core3ptr45drop_in_place$LT$proc_macro2..TokenStream$GT$17he3fe16a25ddffbb6E', symObjAddr: 0x4AD0, symBinAddr: 0x3DC50, symSize: 0x140 }
  - { offsetInCU: 0x138C2, offset: 0x1538FD, size: 0x8, addend: 0x0, symName: '__ZN4core3ptr47drop_in_place$LT$syn..path..GenericArgument$GT$17h1e0ebdfae00e1f4cE', symObjAddr: 0x4C10, symBinAddr: 0x3DD90, symSize: 0xE0 }
  - { offsetInCU: 0x13BEF, offset: 0x153C2A, size: 0x8, addend: 0x0, symName: '__ZN4core3ptr58drop_in_place$LT$alloc..vec..Vec$LT$syn..expr..Arm$GT$$GT$17hd04b1bad30cf20a9E', symObjAddr: 0x4CF0, symBinAddr: 0x3DE70, symSize: 0xD0 }
  - { offsetInCU: 0x13E7C, offset: 0x153EB7, size: 0x8, addend: 0x0, symName: '__ZN4core3ptr59drop_in_place$LT$alloc..boxed..Box$LT$syn..pat..Pat$GT$$GT$17h6a7bdec7bcb9bb51E', symObjAddr: 0x4DC0, symBinAddr: 0x3DF40, symSize: 0x50 }
  - { offsetInCU: 0x13FD7, offset: 0x154012, size: 0x8, addend: 0x0, symName: '__ZN4core3ptr59drop_in_place$LT$alloc..boxed..Box$LT$syn..ty..Type$GT$$GT$17hd5473a45fa589c86E', symObjAddr: 0x4E10, symBinAddr: 0x3DF90, symSize: 0x50 }
  - { offsetInCU: 0x14132, offset: 0x15416D, size: 0x8, addend: 0x0, symName: '__ZN4core3ptr61drop_in_place$LT$alloc..boxed..Box$LT$syn..expr..Expr$GT$$GT$17hc23fa5d0ad4eaa60E', symObjAddr: 0x4E60, symBinAddr: 0x3DFE0, symSize: 0x50 }
  - { offsetInCU: 0x1428D, offset: 0x1542C8, size: 0x8, addend: 0x0, symName: '__ZN4core3ptr61drop_in_place$LT$syn..path..ParenthesizedGenericArguments$GT$17h7b07165df6134aa3E', symObjAddr: 0x4EB0, symBinAddr: 0x3E030, symSize: 0x170 }
  - { offsetInCU: 0x14867, offset: 0x1548A2, size: 0x8, addend: 0x0, symName: '__ZN4core3ptr63drop_in_place$LT$alloc..boxed..Box$LT$syn..lit..LitRepr$GT$$GT$17hea5bc85b2cfab50fE', symObjAddr: 0x5020, symBinAddr: 0x3E1A0, symSize: 0x60 }
  - { offsetInCU: 0x14B5C, offset: 0x154B97, size: 0x8, addend: 0x0, symName: '__ZN4core3ptr64drop_in_place$LT$alloc..boxed..Box$LT$syn..pat..FieldPat$GT$$GT$17h25e3c1bebc759d42E', symObjAddr: 0x5080, symBinAddr: 0x3E200, symSize: 0x140 }
  - { offsetInCU: 0x15207, offset: 0x155242, size: 0x8, addend: 0x0, symName: '__ZN4core3ptr64drop_in_place$LT$alloc..boxed..Box$LT$syn..ty..BareFnArg$GT$$GT$17h225ecbe95efa4f3fE', symObjAddr: 0x51C0, symBinAddr: 0x3E340, symSize: 0x120 }
  - { offsetInCU: 0x1571D, offset: 0x155758, size: 0x8, addend: 0x0, symName: '__ZN4core3ptr65drop_in_place$LT$core..option..Option$LT$syn..expr..Label$GT$$GT$17h3eba2c11b9043240E', symObjAddr: 0x52E0, symBinAddr: 0x3E460, symSize: 0x30 }
  - { offsetInCU: 0x15858, offset: 0x155893, size: 0x8, addend: 0x0, symName: '__ZN4core3ptr66drop_in_place$LT$core..option..Option$LT$syn..ty..Variadic$GT$$GT$17h89aad488037d2a67E', symObjAddr: 0x5310, symBinAddr: 0x3E490, symSize: 0xE0 }
  - { offsetInCU: 0x15ADC, offset: 0x155B17, size: 0x8, addend: 0x0, symName: '__ZN4core3ptr67drop_in_place$LT$alloc..boxed..Box$LT$syn..attr..NestedMeta$GT$$GT$17h40a59efba0ce4428E', symObjAddr: 0x53F0, symBinAddr: 0x3E570, symSize: 0x60 }
  - { offsetInCU: 0x15C73, offset: 0x155CAE, size: 0x8, addend: 0x0, symName: '__ZN4core3ptr67drop_in_place$LT$alloc..boxed..Box$LT$syn..expr..FieldValue$GT$$GT$17hc36de89b26347dc1E', symObjAddr: 0x5450, symBinAddr: 0x3E5D0, symSize: 0x140 }
  - { offsetInCU: 0x16196, offset: 0x1561D1, size: 0x8, addend: 0x0, symName: '__ZN4core3ptr68drop_in_place$LT$alloc..vec..Vec$LT$proc_macro2..TokenStream$GT$$GT$17he55e9159357f4083E', symObjAddr: 0x5590, symBinAddr: 0x3E710, symSize: 0xC0 }
  - { offsetInCU: 0x16423, offset: 0x15645E, size: 0x8, addend: 0x0, symName: '__ZN4core3ptr72drop_in_place$LT$core..option..Option$LT$syn..lifetime..Lifetime$GT$$GT$17h567170d60f637af5E', symObjAddr: 0x5650, symBinAddr: 0x3E7D0, symSize: 0x30 }
  - { offsetInCU: 0x1653F, offset: 0x15657A, size: 0x8, addend: 0x0, symName: '__ZN4core3ptr75drop_in_place$LT$alloc..boxed..Box$LT$syn..generics..TypeParamBound$GT$$GT$17h1bffc99fd705ded2E', symObjAddr: 0x5680, symBinAddr: 0x3E800, symSize: 0x170 }
  - { offsetInCU: 0x16B88, offset: 0x156BC3, size: 0x8, addend: 0x0, symName: '__ZN4core3ptr78drop_in_place$LT$alloc..boxed..Box$LT$syn..expr..GenericMethodArgument$GT$$GT$17h31d6ebe0ea6c9944E', symObjAddr: 0x57F0, symBinAddr: 0x3E970, symSize: 0x60 }
  - { offsetInCU: 0x16D7C, offset: 0x156DB7, size: 0x8, addend: 0x0, symName: '__ZN4core3ptr78drop_in_place$LT$core..option..Option$LT$syn..generics..BoundLifetimes$GT$$GT$17h5704c3ded2f1ac97E', symObjAddr: 0x5850, symBinAddr: 0x3E9D0, symSize: 0x90 }
  - { offsetInCU: 0x17032, offset: 0x15706D, size: 0x8, addend: 0x0, symName: '__ZN4core3ptr86drop_in_place$LT$syn..punctuated..Punctuated$LT$syn..pat..Pat$C$syn..token..Or$GT$$GT$17hf795a553b5770be2E', symObjAddr: 0x58E0, symBinAddr: 0x3EA60, symSize: 0x120 }
  - { offsetInCU: 0x17478, offset: 0x1574B3, size: 0x8, addend: 0x0, symName: '__ZN4core3ptr87drop_in_place$LT$core..option..Option$LT$alloc..boxed..Box$LT$syn..pat..Pat$GT$$GT$$GT$17h73f486444f071012E', symObjAddr: 0x5A00, symBinAddr: 0x3EB80, symSize: 0x50 }
  - { offsetInCU: 0x175EA, offset: 0x157625, size: 0x8, addend: 0x0, symName: '__ZN4core3ptr87drop_in_place$LT$core..option..Option$LT$alloc..boxed..Box$LT$syn..ty..Type$GT$$GT$$GT$17h2f83f4b64cf766e8E', symObjAddr: 0x5A50, symBinAddr: 0x3EBD0, symSize: 0x50 }
  - { offsetInCU: 0x1775C, offset: 0x157797, size: 0x8, addend: 0x0, symName: '__ZN4core3ptr89drop_in_place$LT$core..option..Option$LT$alloc..boxed..Box$LT$syn..expr..Expr$GT$$GT$$GT$17h188a7557556ed480E', symObjAddr: 0x5AA0, symBinAddr: 0x3EC20, symSize: 0x50 }
  - { offsetInCU: 0x1790C, offset: 0x157947, size: 0x8, addend: 0x0, symName: '__ZN4core3ptr89drop_in_place$LT$syn..punctuated..Punctuated$LT$syn..pat..Pat$C$syn..token..Comma$GT$$GT$17h397b4ea6323453e5E', symObjAddr: 0x5AF0, symBinAddr: 0x3EC70, symSize: 0x120 }
  - { offsetInCU: 0x17DA7, offset: 0x157DE2, size: 0x8, addend: 0x0, symName: '__ZN4core3ptr91drop_in_place$LT$syn..punctuated..Punctuated$LT$syn..expr..Expr$C$syn..token..Comma$GT$$GT$17hb987dbf8c4fa792eE', symObjAddr: 0x5C10, symBinAddr: 0x3ED90, symSize: 0x120 }
  - { offsetInCU: 0x18204, offset: 0x15823F, size: 0x8, addend: 0x0, symName: '__ZN4core3ptr94drop_in_place$LT$syn..punctuated..Punctuated$LT$syn..pat..FieldPat$C$syn..token..Comma$GT$$GT$17h98cfc6fc576c5a2eE', symObjAddr: 0x5D30, symBinAddr: 0x3EEB0, symSize: 0xF0 }
  - { offsetInCU: 0x184CE, offset: 0x158509, size: 0x8, addend: 0x0, symName: '__ZN4core3ptr94drop_in_place$LT$syn..punctuated..Punctuated$LT$syn..ty..BareFnArg$C$syn..token..Comma$GT$$GT$17h3e3e37b8188fea7aE', symObjAddr: 0x5E20, symBinAddr: 0x3EFA0, symSize: 0x90 }
  - { offsetInCU: 0x18704, offset: 0x15873F, size: 0x8, addend: 0x0, symName: '__ZN4core3ptr96drop_in_place$LT$core..option..Option$LT$alloc..boxed..Box$LT$syn..path..PathSegment$GT$$GT$$GT$17h0625972f26ace92dE', symObjAddr: 0x5EB0, symBinAddr: 0x3F030, symSize: 0x180 }
  - { offsetInCU: 0x18E11, offset: 0x158E4C, size: 0x8, addend: 0x0, symName: '__ZN4core3ptr97drop_in_place$LT$syn..punctuated..Punctuated$LT$syn..attr..NestedMeta$C$syn..token..Comma$GT$$GT$17h80d3592d8db1892aE', symObjAddr: 0x6030, symBinAddr: 0x3F1B0, symSize: 0x150 }
  - { offsetInCU: 0x1927F, offset: 0x1592BA, size: 0x8, addend: 0x0, symName: '__ZN4core3ptr97drop_in_place$LT$syn..punctuated..Punctuated$LT$syn..expr..FieldValue$C$syn..token..Comma$GT$$GT$17heea3a9d8c114766bE', symObjAddr: 0x6180, symBinAddr: 0x3F300, symSize: 0x90 }
  - { offsetInCU: 0x19531, offset: 0x15956C, size: 0x8, addend: 0x0, symName: '__ZN4core3ptr97drop_in_place$LT$syn..punctuated..Punctuated$LT$syn..lifetime..Lifetime$C$syn..token..Add$GT$$GT$17h9a7119801dbe4a28E', symObjAddr: 0x6210, symBinAddr: 0x3F390, symSize: 0xC0 }
  - { offsetInCU: 0x19D1C, offset: 0x159D57, size: 0x8, addend: 0x0, symName: '__ZN53_$LT$core..fmt..Error$u20$as$u20$core..fmt..Debug$GT$3fmt17h43ae5cec9623af13E', symObjAddr: 0x62D0, symBinAddr: 0x3F450, symSize: 0x20 }
  - { offsetInCU: 0x1B5D8, offset: 0x15B613, size: 0x8, addend: 0x0, symName: __ZN28borsh_schema_derive_internal7helpers13contains_skip17hfbbe50de79c534cbE, symObjAddr: 0x6480, symBinAddr: 0x3F600, symSize: 0x320 }
  - { offsetInCU: 0x1BD68, offset: 0x15BDA3, size: 0x8, addend: 0x0, symName: __ZN28borsh_schema_derive_internal7helpers11declaration17hc0a609cfda9c1b57E, symObjAddr: 0x67A0, symBinAddr: 0x3F920, symSize: 0x7E0 }
  - { offsetInCU: 0x1C80C, offset: 0x15C847, size: 0x8, addend: 0x0, symName: __ZN28borsh_schema_derive_internal7helpers18quote_where_clause17h6d3e983894f45da9E, symObjAddr: 0x6F80, symBinAddr: 0x40100, symSize: 0x3A4 }
  - { offsetInCU: 0x1E, offset: 0x169A3B, size: 0x8, addend: 0x0, symName: __ZN3syn11parse_quote5parse17hd7ac703c4d47be6fE, symObjAddr: 0x0, symBinAddr: 0x404B0, symSize: 0x5E0 }
  - { offsetInCU: 0x1A60, offset: 0x16B47D, size: 0x8, addend: 0x0, symName: '__ZN4core3ptr100drop_in_place$LT$core..option..Option$LT$alloc..boxed..Box$LT$syn..generics..LifetimeDef$GT$$GT$$GT$17hed92367f10a63ebbE', symObjAddr: 0xB30, symBinAddr: 0x40FE0, symSize: 0x140 }
  - { offsetInCU: 0x2087, offset: 0x16BAA4, size: 0x8, addend: 0x0, symName: '__ZN4core3ptr100drop_in_place$LT$core..option..Option$LT$alloc..boxed..Box$LT$syn..path..GenericArgument$GT$$GT$$GT$17h07d831ee02e44576E', symObjAddr: 0xC70, symBinAddr: 0x41120, symSize: 0x50 }
  - { offsetInCU: 0x2256, offset: 0x16BC73, size: 0x8, addend: 0x0, symName: '__ZN4core3ptr103drop_in_place$LT$core..option..Option$LT$alloc..boxed..Box$LT$syn..generics..TypeParamBound$GT$$GT$$GT$17hb39f8af5bde17016E', symObjAddr: 0xCC0, symBinAddr: 0x41170, symSize: 0x90 }
  - { offsetInCU: 0x25D2, offset: 0x16BFEF, size: 0x8, addend: 0x0, symName: '__ZN4core3ptr103drop_in_place$LT$syn..punctuated..Punctuated$LT$syn..generics..TypeParamBound$C$syn..token..Add$GT$$GT$17habfcafaa65bab169E', symObjAddr: 0xD50, symBinAddr: 0x41200, symSize: 0x220 }
  - { offsetInCU: 0x2F71, offset: 0x16C98E, size: 0x8, addend: 0x0, symName: '__ZN4core3ptr108drop_in_place$LT$syn..punctuated..Punctuated$LT$syn..expr..GenericMethodArgument$C$syn..token..Comma$GT$$GT$17h4078e20e5c54219eE', symObjAddr: 0xF70, symBinAddr: 0x41420, symSize: 0x160 }
  - { offsetInCU: 0x3486, offset: 0x16CEA3, size: 0x8, addend: 0x0, symName: '__ZN4core3ptr34drop_in_place$LT$syn..lit..Lit$GT$17hc6ba74c11cc9ba31E', symObjAddr: 0x10D0, symBinAddr: 0x41580, symSize: 0x110 }
  - { offsetInCU: 0x3963, offset: 0x16D380, size: 0x8, addend: 0x0, symName: '__ZN4core3ptr34drop_in_place$LT$syn..pat..Pat$GT$17hb93bec8183c0d605E', symObjAddr: 0x11E0, symBinAddr: 0x41690, symSize: 0x1020 }
  - { offsetInCU: 0x7489, offset: 0x170EA6, size: 0x8, addend: 0x0, symName: '__ZN4core3ptr34drop_in_place$LT$syn..ty..Type$GT$17he4f555fdf4dcc841E', symObjAddr: 0x2200, symBinAddr: 0x426B0, symSize: 0x520 }
  - { offsetInCU: 0x8D67, offset: 0x172784, size: 0x8, addend: 0x0, symName: '__ZN4core3ptr36drop_in_place$LT$syn..expr..Expr$GT$17h79aaeff521181404E', symObjAddr: 0x2720, symBinAddr: 0x42BD0, symSize: 0x2A50 }
  - { offsetInCU: 0x126B0, offset: 0x17C0CD, size: 0x8, addend: 0x0, symName: '__ZN4core3ptr36drop_in_place$LT$syn..mac..Macro$GT$17ha5159c44bb719150E', symObjAddr: 0x5170, symBinAddr: 0x45620, symSize: 0x40 }
  - { offsetInCU: 0x12801, offset: 0x17C21E, size: 0x8, addend: 0x0, symName: '__ZN4core3ptr36drop_in_place$LT$syn..path..Path$GT$17h9ab4550cc70a1095E', symObjAddr: 0x51B0, symBinAddr: 0x45660, symSize: 0x250 }
  - { offsetInCU: 0x1324A, offset: 0x17CC67, size: 0x8, addend: 0x0, symName: '__ZN4core3ptr37drop_in_place$LT$syn..stmt..Block$GT$17hac51847bfe6a0e44E', symObjAddr: 0x5400, symBinAddr: 0x458B0, symSize: 0xD0 }
  - { offsetInCU: 0x1352C, offset: 0x17CF49, size: 0x8, addend: 0x0, symName: '__ZN4core3ptr38drop_in_place$LT$syn..error..Error$GT$17hd09ee14f293c64abE', symObjAddr: 0x54D0, symBinAddr: 0x45980, symSize: 0x70 }
  - { offsetInCU: 0x137FD, offset: 0x17D21A, size: 0x8, addend: 0x0, symName: '__ZN4core3ptr38drop_in_place$LT$syn..expr..Member$GT$17h65b75b1cdf35a2a0E', symObjAddr: 0x5540, symBinAddr: 0x459F0, symSize: 0x30 }
  - { offsetInCU: 0x138FA, offset: 0x17D317, size: 0x8, addend: 0x0, symName: '__ZN4core3ptr39drop_in_place$LT$proc_macro2..Ident$GT$17h243ed7814b0d96ceE', symObjAddr: 0x5570, symBinAddr: 0x45A20, symSize: 0x30 }
  - { offsetInCU: 0x13B0E, offset: 0x17D52B, size: 0x8, addend: 0x0, symName: '__ZN4core3ptr39drop_in_place$LT$syn..buffer..Entry$GT$17h6b9997d99814fd7eE', symObjAddr: 0x55A0, symBinAddr: 0x45A50, symSize: 0xC0 }
  - { offsetInCU: 0x13E22, offset: 0x17D83F, size: 0x8, addend: 0x0, symName: '__ZN4core3ptr39drop_in_place$LT$syn..pat..PatTuple$GT$17hc60209bd83ab169aE', symObjAddr: 0x5660, symBinAddr: 0x45B10, symSize: 0xE0 }
  - { offsetInCU: 0x140BE, offset: 0x17DADB, size: 0x8, addend: 0x0, symName: '__ZN4core3ptr40drop_in_place$LT$syn..ty..ReturnType$GT$17h49c8b48bec83435eE', symObjAddr: 0x5740, symBinAddr: 0x45BF0, symSize: 0x50 }
  - { offsetInCU: 0x14230, offset: 0x17DC4D, size: 0x8, addend: 0x0, symName: '__ZN4core3ptr44drop_in_place$LT$syn..parse..ParseBuffer$GT$17he6b915ec07f63a39E', symObjAddr: 0x5790, symBinAddr: 0x45C40, symSize: 0x70 }
  - { offsetInCU: 0x145AD, offset: 0x17DFCA, size: 0x8, addend: 0x0, symName: '__ZN4core3ptr45drop_in_place$LT$proc_macro2..TokenStream$GT$17he3fe16a25ddffbb6E', symObjAddr: 0x5800, symBinAddr: 0x45CB0, symSize: 0x140 }
  - { offsetInCU: 0x149DE, offset: 0x17E3FB, size: 0x8, addend: 0x0, symName: '__ZN4core3ptr45drop_in_place$LT$syn..buffer..TokenBuffer$GT$17h735f521badeb16faE', symObjAddr: 0x5940, symBinAddr: 0x45DF0, symSize: 0xD0 }
  - { offsetInCU: 0x14C44, offset: 0x17E661, size: 0x8, addend: 0x0, symName: '__ZN4core3ptr47drop_in_place$LT$syn..path..GenericArgument$GT$17h1e0ebdfae00e1f4cE', symObjAddr: 0x5A10, symBinAddr: 0x45EC0, symSize: 0xE0 }
  - { offsetInCU: 0x14F5E, offset: 0x17E97B, size: 0x8, addend: 0x0, symName: '__ZN4core3ptr58drop_in_place$LT$alloc..vec..Vec$LT$syn..expr..Arm$GT$$GT$17hd04b1bad30cf20a9E', symObjAddr: 0x5AF0, symBinAddr: 0x45FA0, symSize: 0xD0 }
  - { offsetInCU: 0x151EB, offset: 0x17EC08, size: 0x8, addend: 0x0, symName: '__ZN4core3ptr59drop_in_place$LT$alloc..boxed..Box$LT$syn..pat..Pat$GT$$GT$17h6a7bdec7bcb9bb51E', symObjAddr: 0x5BC0, symBinAddr: 0x46070, symSize: 0x50 }
  - { offsetInCU: 0x15346, offset: 0x17ED63, size: 0x8, addend: 0x0, symName: '__ZN4core3ptr59drop_in_place$LT$alloc..boxed..Box$LT$syn..ty..Type$GT$$GT$17hd5473a45fa589c86E', symObjAddr: 0x5C10, symBinAddr: 0x460C0, symSize: 0x50 }
  - { offsetInCU: 0x154A1, offset: 0x17EEBE, size: 0x8, addend: 0x0, symName: '__ZN4core3ptr61drop_in_place$LT$alloc..boxed..Box$LT$syn..expr..Expr$GT$$GT$17hc23fa5d0ad4eaa60E', symObjAddr: 0x5C60, symBinAddr: 0x46110, symSize: 0x50 }
  - { offsetInCU: 0x15678, offset: 0x17F095, size: 0x8, addend: 0x0, symName: '__ZN4core3ptr61drop_in_place$LT$syn..path..ParenthesizedGenericArguments$GT$17h7b07165df6134aa3E', symObjAddr: 0x5CB0, symBinAddr: 0x46160, symSize: 0x170 }
  - { offsetInCU: 0x15C3F, offset: 0x17F65C, size: 0x8, addend: 0x0, symName: '__ZN4core3ptr63drop_in_place$LT$alloc..boxed..Box$LT$syn..lit..LitRepr$GT$$GT$17hea5bc85b2cfab50fE', symObjAddr: 0x5E20, symBinAddr: 0x462D0, symSize: 0x60 }
  - { offsetInCU: 0x15F34, offset: 0x17F951, size: 0x8, addend: 0x0, symName: '__ZN4core3ptr64drop_in_place$LT$alloc..boxed..Box$LT$syn..pat..FieldPat$GT$$GT$17h25e3c1bebc759d42E', symObjAddr: 0x5E80, symBinAddr: 0x46330, symSize: 0x140 }
  - { offsetInCU: 0x165DF, offset: 0x17FFFC, size: 0x8, addend: 0x0, symName: '__ZN4core3ptr64drop_in_place$LT$alloc..boxed..Box$LT$syn..ty..BareFnArg$GT$$GT$17h225ecbe95efa4f3fE', symObjAddr: 0x5FC0, symBinAddr: 0x46470, symSize: 0x120 }
  - { offsetInCU: 0x16AF5, offset: 0x180512, size: 0x8, addend: 0x0, symName: '__ZN4core3ptr65drop_in_place$LT$core..option..Option$LT$syn..expr..Label$GT$$GT$17h3eba2c11b9043240E', symObjAddr: 0x60E0, symBinAddr: 0x46590, symSize: 0x30 }
  - { offsetInCU: 0x16C30, offset: 0x18064D, size: 0x8, addend: 0x0, symName: '__ZN4core3ptr66drop_in_place$LT$core..option..Option$LT$syn..ty..Variadic$GT$$GT$17h89aad488037d2a67E', symObjAddr: 0x6110, symBinAddr: 0x465C0, symSize: 0xE0 }
  - { offsetInCU: 0x16EB4, offset: 0x1808D1, size: 0x8, addend: 0x0, symName: '__ZN4core3ptr67drop_in_place$LT$alloc..boxed..Box$LT$syn..expr..FieldValue$GT$$GT$17hc36de89b26347dc1E', symObjAddr: 0x61F0, symBinAddr: 0x466A0, symSize: 0x140 }
  - { offsetInCU: 0x173D7, offset: 0x180DF4, size: 0x8, addend: 0x0, symName: '__ZN4core3ptr68drop_in_place$LT$alloc..boxed..Box$LT$syn..path..PathSegment$GT$$GT$17hc68e683dd9dfa372E', symObjAddr: 0x6330, symBinAddr: 0x467E0, symSize: 0x190 }
  - { offsetInCU: 0x17AD4, offset: 0x1814F1, size: 0x8, addend: 0x0, symName: '__ZN4core3ptr72drop_in_place$LT$alloc..boxed..Box$LT$syn..path..GenericArgument$GT$$GT$17h23c8a138fbea10f4E', symObjAddr: 0x64C0, symBinAddr: 0x46970, symSize: 0x190 }
  - { offsetInCU: 0x181D1, offset: 0x181BEE, size: 0x8, addend: 0x0, symName: '__ZN4core3ptr72drop_in_place$LT$core..option..Option$LT$syn..lifetime..Lifetime$GT$$GT$17h567170d60f637af5E', symObjAddr: 0x6650, symBinAddr: 0x46B00, symSize: 0x30 }
  - { offsetInCU: 0x182ED, offset: 0x181D0A, size: 0x8, addend: 0x0, symName: '__ZN4core3ptr75drop_in_place$LT$alloc..boxed..Box$LT$syn..generics..TypeParamBound$GT$$GT$17h1bffc99fd705ded2E', symObjAddr: 0x6680, symBinAddr: 0x46B30, symSize: 0x170 }
  - { offsetInCU: 0x18936, offset: 0x182353, size: 0x8, addend: 0x0, symName: '__ZN4core3ptr78drop_in_place$LT$alloc..boxed..Box$LT$syn..expr..GenericMethodArgument$GT$$GT$17h31d6ebe0ea6c9944E', symObjAddr: 0x67F0, symBinAddr: 0x46CA0, symSize: 0x60 }
  - { offsetInCU: 0x18B2A, offset: 0x182547, size: 0x8, addend: 0x0, symName: '__ZN4core3ptr78drop_in_place$LT$core..option..Option$LT$syn..generics..BoundLifetimes$GT$$GT$17h5704c3ded2f1ac97E', symObjAddr: 0x6850, symBinAddr: 0x46D00, symSize: 0x90 }
  - { offsetInCU: 0x18DE0, offset: 0x1827FD, size: 0x8, addend: 0x0, symName: '__ZN4core3ptr86drop_in_place$LT$syn..punctuated..Punctuated$LT$syn..pat..Pat$C$syn..token..Or$GT$$GT$17hf795a553b5770be2E', symObjAddr: 0x68E0, symBinAddr: 0x46D90, symSize: 0x120 }
  - { offsetInCU: 0x19226, offset: 0x182C43, size: 0x8, addend: 0x0, symName: '__ZN4core3ptr87drop_in_place$LT$core..option..Option$LT$alloc..boxed..Box$LT$syn..pat..Pat$GT$$GT$$GT$17h73f486444f071012E', symObjAddr: 0x6A00, symBinAddr: 0x46EB0, symSize: 0x50 }
  - { offsetInCU: 0x19398, offset: 0x182DB5, size: 0x8, addend: 0x0, symName: '__ZN4core3ptr87drop_in_place$LT$core..option..Option$LT$alloc..boxed..Box$LT$syn..ty..Type$GT$$GT$$GT$17h2f83f4b64cf766e8E', symObjAddr: 0x6A50, symBinAddr: 0x46F00, symSize: 0x50 }
  - { offsetInCU: 0x1950A, offset: 0x182F27, size: 0x8, addend: 0x0, symName: '__ZN4core3ptr89drop_in_place$LT$core..option..Option$LT$alloc..boxed..Box$LT$syn..expr..Expr$GT$$GT$$GT$17h188a7557556ed480E', symObjAddr: 0x6AA0, symBinAddr: 0x46F50, symSize: 0x50 }
  - { offsetInCU: 0x196BA, offset: 0x1830D7, size: 0x8, addend: 0x0, symName: '__ZN4core3ptr89drop_in_place$LT$syn..punctuated..Punctuated$LT$syn..pat..Pat$C$syn..token..Comma$GT$$GT$17h397b4ea6323453e5E', symObjAddr: 0x6AF0, symBinAddr: 0x46FA0, symSize: 0x120 }
  - { offsetInCU: 0x19B17, offset: 0x183534, size: 0x8, addend: 0x0, symName: '__ZN4core3ptr89drop_in_place$LT$syn..punctuated..Punctuated$LT$syn..ty..Type$C$syn..token..Comma$GT$$GT$17h4bbd8b940cf3c24bE', symObjAddr: 0x6C10, symBinAddr: 0x470C0, symSize: 0x120 }
  - { offsetInCU: 0x19F9F, offset: 0x1839BC, size: 0x8, addend: 0x0, symName: '__ZN4core3ptr91drop_in_place$LT$syn..punctuated..Punctuated$LT$syn..expr..Expr$C$syn..token..Comma$GT$$GT$17hb987dbf8c4fa792eE', symObjAddr: 0x6D30, symBinAddr: 0x471E0, symSize: 0x120 }
  - { offsetInCU: 0x1A3FC, offset: 0x183E19, size: 0x8, addend: 0x0, symName: '__ZN4core3ptr94drop_in_place$LT$syn..punctuated..Punctuated$LT$syn..pat..FieldPat$C$syn..token..Comma$GT$$GT$17h98cfc6fc576c5a2eE', symObjAddr: 0x6E50, symBinAddr: 0x47300, symSize: 0xF0 }
  - { offsetInCU: 0x1A6C6, offset: 0x1840E3, size: 0x8, addend: 0x0, symName: '__ZN4core3ptr94drop_in_place$LT$syn..punctuated..Punctuated$LT$syn..ty..BareFnArg$C$syn..token..Comma$GT$$GT$17h3e3e37b8188fea7aE', symObjAddr: 0x6F40, symBinAddr: 0x473F0, symSize: 0x90 }
  - { offsetInCU: 0x1A8FC, offset: 0x184319, size: 0x8, addend: 0x0, symName: '__ZN4core3ptr96drop_in_place$LT$core..option..Option$LT$alloc..boxed..Box$LT$syn..path..PathSegment$GT$$GT$$GT$17h0625972f26ace92dE', symObjAddr: 0x6FD0, symBinAddr: 0x47480, symSize: 0x180 }
  - { offsetInCU: 0x1AF8D, offset: 0x1849AA, size: 0x8, addend: 0x0, symName: '__ZN4core3ptr97drop_in_place$LT$syn..punctuated..Punctuated$LT$syn..expr..FieldValue$C$syn..token..Comma$GT$$GT$17heea3a9d8c114766bE', symObjAddr: 0x7150, symBinAddr: 0x47600, symSize: 0x90 }
  - { offsetInCU: 0x1B23F, offset: 0x184C5C, size: 0x8, addend: 0x0, symName: '__ZN4core3ptr97drop_in_place$LT$syn..punctuated..Punctuated$LT$syn..lifetime..Lifetime$C$syn..token..Add$GT$$GT$17h9a7119801dbe4a28E', symObjAddr: 0x71E0, symBinAddr: 0x47690, symSize: 0xC0 }
  - { offsetInCU: 0x1B6B7, offset: 0x1850D4, size: 0x8, addend: 0x0, symName: '__ZN4core3ptr99drop_in_place$LT$syn..punctuated..Punctuated$LT$syn..path..PathSegment$C$syn..token..Colon2$GT$$GT$17hb46cd0f05b32ca48E', symObjAddr: 0x72A0, symBinAddr: 0x47750, symSize: 0x26B }
  - { offsetInCU: 0x22CEA, offset: 0x18C707, size: 0x8, addend: 0x0, symName: __ZN3syn11parse_quote5parse17hd7ac703c4d47be6fE, symObjAddr: 0x0, symBinAddr: 0x404B0, symSize: 0x5E0 }
  - { offsetInCU: 0x2377C, offset: 0x18D199, size: 0x8, addend: 0x0, symName: __ZN3syn11parse_quote5parse17hd8b0569e1432772dE, symObjAddr: 0x5E0, symBinAddr: 0x40A90, symSize: 0x550 }
  - { offsetInCU: 0x1E, offset: 0x193417, size: 0x8, addend: 0x0, symName: '__ZN4core3ptr37drop_in_place$LT$core..fmt..Error$GT$17h338b76879d5f46f1E', symObjAddr: 0x0, symBinAddr: 0x479C0, symSize: 0x10 }
  - { offsetInCU: 0x99, offset: 0x193492, size: 0x8, addend: 0x0, symName: '__ZN58_$LT$alloc..string..String$u20$as$u20$core..fmt..Write$GT$10write_char17hd329c0cb943f081aE', symObjAddr: 0x280, symBinAddr: 0x47C40, symSize: 0x130 }
  - { offsetInCU: 0x440, offset: 0x193839, size: 0x8, addend: 0x0, symName: '__ZN58_$LT$alloc..string..String$u20$as$u20$core..fmt..Write$GT$9write_str17h1ff5aa96ca91c6d5E', symObjAddr: 0x3B0, symBinAddr: 0x47D70, symSize: 0x60 }
  - { offsetInCU: 0x241F, offset: 0x195818, size: 0x8, addend: 0x0, symName: '__ZN4core3ptr37drop_in_place$LT$core..fmt..Error$GT$17h338b76879d5f46f1E', symObjAddr: 0x0, symBinAddr: 0x479C0, symSize: 0x10 }
  - { offsetInCU: 0x24A8, offset: 0x1958A1, size: 0x8, addend: 0x0, symName: '__ZN4core3ptr39drop_in_place$LT$proc_macro2..Ident$GT$17h243ed7814b0d96ceE', symObjAddr: 0x10, symBinAddr: 0x479D0, symSize: 0x30 }
  - { offsetInCU: 0x25C4, offset: 0x1959BD, size: 0x8, addend: 0x0, symName: '__ZN4core3ptr42drop_in_place$LT$alloc..string..String$GT$17h4bc395cabeea9ae1E', symObjAddr: 0x40, symBinAddr: 0x47A00, symSize: 0x20 }
  - { offsetInCU: 0x2803, offset: 0x195BFC, size: 0x8, addend: 0x0, symName: '__ZN4core3ptr45drop_in_place$LT$proc_macro2..TokenStream$GT$17he3fe16a25ddffbb6E', symObjAddr: 0x60, symBinAddr: 0x47A20, symSize: 0x140 }
  - { offsetInCU: 0x2C54, offset: 0x19604D, size: 0x8, addend: 0x0, symName: '__ZN4core3ptr68drop_in_place$LT$alloc..vec..Vec$LT$proc_macro2..TokenStream$GT$$GT$17he55e9159357f4083E', symObjAddr: 0x1A0, symBinAddr: 0x47B60, symSize: 0xC0 }
  - { offsetInCU: 0x3329, offset: 0x196722, size: 0x8, addend: 0x0, symName: '__ZN53_$LT$core..fmt..Error$u20$as$u20$core..fmt..Debug$GT$3fmt17h43ae5cec9623af13E', symObjAddr: 0x260, symBinAddr: 0x47C20, symSize: 0x20 }
  - { offsetInCU: 0xB232, offset: 0x19E62B, size: 0x8, addend: 0x0, symName: __ZN28borsh_schema_derive_internal13struct_schema14process_struct17heec65d20de534ac5E, symObjAddr: 0x410, symBinAddr: 0x47DD0, symSize: 0x1D4E }
  - { offsetInCU: 0x1E, offset: 0x1A166D, size: 0x8, addend: 0x0, symName: '__ZN4core3ptr73drop_in_place$LT$core..cell..UnsafeCell$LT$syn..parse..Unexpected$GT$$GT$17h4160dee733e4442aE.llvm.13932285530784909271', symObjAddr: 0x0, symBinAddr: 0x49B20, symSize: 0x50 }
  - { offsetInCU: 0xB35, offset: 0x1A2184, size: 0x8, addend: 0x0, symName: '__ZN4core3ptr73drop_in_place$LT$core..cell..UnsafeCell$LT$syn..parse..Unexpected$GT$$GT$17h4160dee733e4442aE.llvm.13932285530784909271', symObjAddr: 0x0, symBinAddr: 0x49B20, symSize: 0x50 }
  - { offsetInCU: 0x166C, offset: 0x1A2CBB, size: 0x8, addend: 0x0, symName: '__ZN68_$LT$alloc..rc..Rc$LT$T$C$A$GT$$u20$as$u20$core..ops..drop..Drop$GT$4drop17h57a8be00fbb508f0E', symObjAddr: 0xC0, symBinAddr: 0x49B70, symSize: 0x30 }
  - { offsetInCU: 0x18E0, offset: 0x1A2F2F, size: 0x8, addend: 0x0, symName: '__ZN68_$LT$alloc..rc..Rc$LT$T$C$A$GT$$u20$as$u20$core..ops..drop..Drop$GT$4drop17ha6b17a428e1da733E', symObjAddr: 0xF0, symBinAddr: 0x49BA0, symSize: 0xE0 }
  - { offsetInCU: 0x1DD3, offset: 0x1A3422, size: 0x8, addend: 0x0, symName: '__ZN68_$LT$alloc..rc..Rc$LT$T$C$A$GT$$u20$as$u20$core..ops..drop..Drop$GT$4drop17he5ca4ca4b82ad4a8E', symObjAddr: 0x1D0, symBinAddr: 0x49C80, symSize: 0x3C }
  - { offsetInCU: 0x1E, offset: 0x1A43EE, size: 0x8, addend: 0x0, symName: '__ZN120_$LT$proc_macro2..fallback..TokenStream$u20$as$u20$core..iter..traits..collect..Extend$LT$proc_macro2..TokenTree$GT$$GT$6extend17hf97bb6b4d7420fe9E', symObjAddr: 0x0, symBinAddr: 0x49CC0, symSize: 0x270 }
  - { offsetInCU: 0x918, offset: 0x1A4CE8, size: 0x8, addend: 0x0, symName: '__ZN120_$LT$proc_macro2..fallback..TokenStream$u20$as$u20$core..iter..traits..collect..Extend$LT$proc_macro2..TokenTree$GT$$GT$6extend17hf97bb6b4d7420fe9E', symObjAddr: 0x0, symBinAddr: 0x49CC0, symSize: 0x270 }
  - { offsetInCU: 0x1838, offset: 0x1A5C08, size: 0x8, addend: 0x0, symName: '__ZN4core3ptr45drop_in_place$LT$proc_macro2..TokenStream$GT$17he3fe16a25ddffbb6E', symObjAddr: 0x270, symBinAddr: 0x49F30, symSize: 0x135 }
  - { offsetInCU: 0x1E, offset: 0x1A76FE, size: 0x8, addend: 0x0, symName: '__ZN4core3ptr43drop_in_place$LT$proc_macro2..TokenTree$GT$17ha76119d99cc41f03E.llvm.304780936749516873', symObjAddr: 0x0, symBinAddr: 0x4A070, symSize: 0xB0 }
  - { offsetInCU: 0xE42, offset: 0x1A8522, size: 0x8, addend: 0x0, symName: '__ZN4core3ptr43drop_in_place$LT$proc_macro2..TokenTree$GT$17ha76119d99cc41f03E.llvm.304780936749516873', symObjAddr: 0x0, symBinAddr: 0x4A070, symSize: 0xB0 }
  - { offsetInCU: 0x18CC, offset: 0x1A8FAC, size: 0x8, addend: 0x0, symName: '__ZN86_$LT$alloc..vec..into_iter..IntoIter$LT$T$C$A$GT$$u20$as$u20$core..ops..drop..Drop$GT$4drop17h1a5df3a129ef1470E', symObjAddr: 0xB0, symBinAddr: 0x4A120, symSize: 0xF0 }
  - { offsetInCU: 0x1C3E, offset: 0x1A931E, size: 0x8, addend: 0x0, symName: '__ZN86_$LT$alloc..vec..into_iter..IntoIter$LT$T$C$A$GT$$u20$as$u20$core..ops..drop..Drop$GT$4drop17h3c3be3dc01909a81E', symObjAddr: 0x1A0, symBinAddr: 0x4A210, symSize: 0xCD }
  - { offsetInCU: 0x35, offset: 0x1A9FD6, size: 0x8, addend: 0x0, symName: _anon.0ba9535fcd10842186f169ff9109b341.0.llvm.9445859211625150620, symObjAddr: 0x310, symBinAddr: 0x2A47C8, symSize: 0x0 }
  - { offsetInCU: 0x107, offset: 0x1AA0A8, size: 0x8, addend: 0x0, symName: '__ZN58_$LT$alloc..string..String$u20$as$u20$core..fmt..Write$GT$10write_char17hd329c0cb943f081aE.llvm.9445859211625150620', symObjAddr: 0x140, symBinAddr: 0x4A330, symSize: 0x130 }
  - { offsetInCU: 0x4AE, offset: 0x1AA44F, size: 0x8, addend: 0x0, symName: '__ZN58_$LT$alloc..string..String$u20$as$u20$core..fmt..Write$GT$9write_str17h1ff5aa96ca91c6d5E.llvm.9445859211625150620', symObjAddr: 0x270, symBinAddr: 0x4A460, symSize: 0x5B }
  - { offsetInCU: 0x9F3, offset: 0x1AA994, size: 0x8, addend: 0x0, symName: '__ZN4core3ptr37drop_in_place$LT$core..fmt..Error$GT$17h338b76879d5f46f1E.llvm.9445859211625150620', symObjAddr: 0xF0, symBinAddr: 0x4A2E0, symSize: 0x10 }
  - { offsetInCU: 0xA1F, offset: 0x1AA9C0, size: 0x8, addend: 0x0, symName: '__ZN4core3ptr42drop_in_place$LT$alloc..string..String$GT$17h4bc395cabeea9ae1E.llvm.9445859211625150620', symObjAddr: 0x100, symBinAddr: 0x4A2F0, symSize: 0x20 }
  - { offsetInCU: 0xC0C, offset: 0x1AABAD, size: 0x8, addend: 0x0, symName: '__ZN53_$LT$core..fmt..Error$u20$as$u20$core..fmt..Debug$GT$3fmt17h43ae5cec9623af13E.llvm.9445859211625150620', symObjAddr: 0x120, symBinAddr: 0x4A310, symSize: 0x20 }
  - { offsetInCU: 0xE2A, offset: 0x1AADCB, size: 0x8, addend: 0x0, symName: _anon.0ba9535fcd10842186f169ff9109b341.4.llvm.9445859211625150620, symObjAddr: 0x358, symBinAddr: 0x2A4810, symSize: 0x0 }
  - { offsetInCU: 0x1E, offset: 0x1AB5AD, size: 0x8, addend: 0x0, symName: __ZN4core3fmt5Write9write_fmt17h367e170e0d002838E, symObjAddr: 0x0, symBinAddr: 0x4A4C0, symSize: 0x20 }
  - { offsetInCU: 0x89, offset: 0x1AB618, size: 0x8, addend: 0x0, symName: '__ZN58_$LT$alloc..string..String$u20$as$u20$core..fmt..Write$GT$10write_char17hd329c0cb943f081aE', symObjAddr: 0x40, symBinAddr: 0x4A500, symSize: 0x130 }
  - { offsetInCU: 0x430, offset: 0x1AB9BF, size: 0x8, addend: 0x0, symName: '__ZN58_$LT$alloc..string..String$u20$as$u20$core..fmt..Write$GT$9write_str17h1ff5aa96ca91c6d5E', symObjAddr: 0x170, symBinAddr: 0x4A630, symSize: 0x5B }
  - { offsetInCU: 0x956, offset: 0x1ABEE5, size: 0x8, addend: 0x0, symName: '__ZN4core3ptr42drop_in_place$LT$alloc..string..String$GT$17h4bc395cabeea9ae1E', symObjAddr: 0x20, symBinAddr: 0x4A4E0, symSize: 0x20 }
  - { offsetInCU: 0xC0C, offset: 0x1AC19B, size: 0x8, addend: 0x0, symName: __ZN4core3fmt5Write9write_fmt17h367e170e0d002838E, symObjAddr: 0x0, symBinAddr: 0x4A4C0, symSize: 0x20 }
  - { offsetInCU: 0x1E, offset: 0x1ACC46, size: 0x8, addend: 0x0, symName: __ZN3std9panicking11begin_panic17h366af05619fb1077E, symObjAddr: 0x0, symBinAddr: 0x2287F0, symSize: 0x20 }
  - { offsetInCU: 0x31B, offset: 0x1ACF43, size: 0x8, addend: 0x0, symName: '__ZN4core3ptr28drop_in_place$LT$$RF$str$GT$17h07afabcb977d5ebdE', symObjAddr: 0x20, symBinAddr: 0x4A690, symSize: 0x10 }
  - { offsetInCU: 0x64B, offset: 0x1AD273, size: 0x8, addend: 0x0, symName: __ZN3std9panicking11begin_panic17h366af05619fb1077E, symObjAddr: 0x0, symBinAddr: 0x2287F0, symSize: 0x20 }
  - { offsetInCU: 0x6A7, offset: 0x1AD2CF, size: 0x8, addend: 0x0, symName: '__ZN91_$LT$std..panicking..begin_panic..Payload$LT$A$GT$$u20$as$u20$core..panic..PanicPayload$GT$3get17h4a6b28f54bfd0083E', symObjAddr: 0x30, symBinAddr: 0x4A6A0, symSize: 0x20 }
  - { offsetInCU: 0x6DF, offset: 0x1AD307, size: 0x8, addend: 0x0, symName: '__ZN91_$LT$std..panicking..begin_panic..Payload$LT$A$GT$$u20$as$u20$core..panic..PanicPayload$GT$8take_box17h4333a34a3ac9c109E', symObjAddr: 0x50, symBinAddr: 0x4A6C0, symSize: 0x5F }
  - { offsetInCU: 0x1E, offset: 0x1AD7F5, size: 0x8, addend: 0x0, symName: '__ZN115_$LT$proc_macro2..imp..TokenStream$u20$as$u20$core..iter..traits..collect..Extend$LT$proc_macro2..TokenTree$GT$$GT$6extend17hc304afd28fe5970dE', symObjAddr: 0x0, symBinAddr: 0x4A720, symSize: 0x110 }
  - { offsetInCU: 0x71F, offset: 0x1ADEF6, size: 0x8, addend: 0x0, symName: '__ZN115_$LT$proc_macro2..imp..TokenStream$u20$as$u20$core..iter..traits..collect..Extend$LT$proc_macro2..TokenTree$GT$$GT$6extend17hc304afd28fe5970dE', symObjAddr: 0x0, symBinAddr: 0x4A720, symSize: 0x110 }
  - { offsetInCU: 0x1476, offset: 0x1AEC4D, size: 0x8, addend: 0x0, symName: '__ZN4core3ptr56drop_in_place$LT$proc_macro2..token_stream..IntoIter$GT$17hc0011c53d098519aE.llvm.18062647471636778280', symObjAddr: 0x110, symBinAddr: 0x4A830, symSize: 0x1D }
  - { offsetInCU: 0x1E, offset: 0x1AEF8C, size: 0x8, addend: 0x0, symName: '__ZN4core3ptr45drop_in_place$LT$proc_macro2..TokenStream$GT$17he3fe16a25ddffbb6E.llvm.675145513277323530', symObjAddr: 0x0, symBinAddr: 0x4A850, symSize: 0x140 }
  - { offsetInCU: 0xA81, offset: 0x1AF9EF, size: 0x8, addend: 0x0, symName: '__ZN4core3ptr45drop_in_place$LT$proc_macro2..TokenStream$GT$17he3fe16a25ddffbb6E.llvm.675145513277323530', symObjAddr: 0x0, symBinAddr: 0x4A850, symSize: 0x140 }
  - { offsetInCU: 0x1E, offset: 0x1B0738, size: 0x8, addend: 0x0, symName: '__ZN4core3ptr45drop_in_place$LT$proc_macro2..TokenStream$GT$17he3fe16a25ddffbb6E.llvm.2661257017723349577', symObjAddr: 0x0, symBinAddr: 0x4A990, symSize: 0x140 }
  - { offsetInCU: 0xA81, offset: 0x1B119B, size: 0x8, addend: 0x0, symName: '__ZN4core3ptr45drop_in_place$LT$proc_macro2..TokenStream$GT$17he3fe16a25ddffbb6E.llvm.2661257017723349577', symObjAddr: 0x0, symBinAddr: 0x4A990, symSize: 0x140 }
  - { offsetInCU: 0x1E, offset: 0x1B1EEB, size: 0x8, addend: 0x0, symName: __ZN3std10sys_common9backtrace26__rust_end_short_backtrace17h9814d83425fdecbcE, symObjAddr: 0x0, symBinAddr: 0x4AAD0, symSize: 0x10 }
  - { offsetInCU: 0x83, offset: 0x1B1F50, size: 0x8, addend: 0x0, symName: '__ZN3std9panicking11begin_panic28_$u7b$$u7b$closure$u7d$$u7d$17h02e8b384459e495fE', symObjAddr: 0x10, symBinAddr: 0x4AAE0, symSize: 0x40 }
  - { offsetInCU: 0x121, offset: 0x1B1FEE, size: 0x8, addend: 0x0, symName: __ZN3std10sys_common9backtrace26__rust_end_short_backtrace17h9814d83425fdecbcE, symObjAddr: 0x0, symBinAddr: 0x4AAD0, symSize: 0x10 }
  - { offsetInCU: 0x1FB, offset: 0x1B20C8, size: 0x8, addend: 0x0, symName: '__ZN4core3ptr72drop_in_place$LT$std..panicking..begin_panic..Payload$LT$$RF$str$GT$$GT$17h0dbc75db51be1f36E', symObjAddr: 0x50, symBinAddr: 0x4AB20, symSize: 0x6 }
  - { offsetInCU: 0x1E, offset: 0x1B2196, size: 0x8, addend: 0x0, symName: '__ZN36_$LT$T$u20$as$u20$core..any..Any$GT$7type_id17h2b84abc0c9cd54ffE', symObjAddr: 0x0, symBinAddr: 0x4AB30, symSize: 0x1A }
  - { offsetInCU: 0x3A, offset: 0x1B21B2, size: 0x8, addend: 0x0, symName: '__ZN36_$LT$T$u20$as$u20$core..any..Any$GT$7type_id17h2b84abc0c9cd54ffE', symObjAddr: 0x0, symBinAddr: 0x4AB30, symSize: 0x1A }
  - { offsetInCU: 0x1E, offset: 0x1B2263, size: 0x8, addend: 0x0, symName: '__ZN4core3ptr100drop_in_place$LT$core..option..Option$LT$alloc..boxed..Box$LT$syn..generics..LifetimeDef$GT$$GT$$GT$17h59b147f54f34dccbE', symObjAddr: 0x0, symBinAddr: 0x4AB50, symSize: 0x50 }
  - { offsetInCU: 0x1DD7, offset: 0x1B401C, size: 0x8, addend: 0x0, symName: '__ZN4core3ptr100drop_in_place$LT$core..option..Option$LT$alloc..boxed..Box$LT$syn..generics..LifetimeDef$GT$$GT$$GT$17h59b147f54f34dccbE', symObjAddr: 0x0, symBinAddr: 0x4AB50, symSize: 0x50 }
  - { offsetInCU: 0x1F68, offset: 0x1B41AD, size: 0x8, addend: 0x0, symName: '__ZN4core3ptr100drop_in_place$LT$core..option..Option$LT$alloc..boxed..Box$LT$syn..path..GenericArgument$GT$$GT$$GT$17h38255555b1295bfeE', symObjAddr: 0x50, symBinAddr: 0x4ABA0, symSize: 0x50 }
  - { offsetInCU: 0x20F9, offset: 0x1B433E, size: 0x8, addend: 0x0, symName: '__ZN4core3ptr101drop_in_place$LT$core..option..Option$LT$alloc..boxed..Box$LT$syn..generics..GenericParam$GT$$GT$$GT$17hbeb747440dea5692E', symObjAddr: 0xA0, symBinAddr: 0x4ABF0, symSize: 0x50 }
  - { offsetInCU: 0x23C0, offset: 0x1B4605, size: 0x8, addend: 0x0, symName: '__ZN4core3ptr102drop_in_place$LT$syn..punctuated..Punctuated$LT$syn..generics..LifetimeDef$C$syn..token..Comma$GT$$GT$17h615e237f1b571206E', symObjAddr: 0xF0, symBinAddr: 0x4AC40, symSize: 0x170 }
  - { offsetInCU: 0x2866, offset: 0x1B4AAB, size: 0x8, addend: 0x0, symName: '__ZN4core3ptr102drop_in_place$LT$syn..punctuated..Punctuated$LT$syn..path..GenericArgument$C$syn..token..Comma$GT$$GT$17h652dfef584fa5b76E.llvm.3076795648491411314', symObjAddr: 0x260, symBinAddr: 0x4ADB0, symSize: 0xF0 }
  - { offsetInCU: 0x2BCB, offset: 0x1B4E10, size: 0x8, addend: 0x0, symName: '__ZN4core3ptr103drop_in_place$LT$core..option..Option$LT$alloc..boxed..Box$LT$syn..generics..TypeParamBound$GT$$GT$$GT$17h4cde56daa3a2bdc0E', symObjAddr: 0x350, symBinAddr: 0x4AEA0, symSize: 0xA0 }
  - { offsetInCU: 0x2EC1, offset: 0x1B5106, size: 0x8, addend: 0x0, symName: '__ZN4core3ptr103drop_in_place$LT$core..option..Option$LT$alloc..boxed..Box$LT$syn..generics..WherePredicate$GT$$GT$$GT$17hf87ab70cf41f50c9E', symObjAddr: 0x3F0, symBinAddr: 0x4AF40, symSize: 0x50 }
  - { offsetInCU: 0x30ED, offset: 0x1B5332, size: 0x8, addend: 0x0, symName: '__ZN4core3ptr103drop_in_place$LT$syn..punctuated..Punctuated$LT$syn..generics..GenericParam$C$syn..token..Comma$GT$$GT$17h7f85cc7fd0443cecE', symObjAddr: 0x440, symBinAddr: 0x4AF90, symSize: 0x1A0 }
  - { offsetInCU: 0x369D, offset: 0x1B58E2, size: 0x8, addend: 0x0, symName: '__ZN4core3ptr103drop_in_place$LT$syn..punctuated..Punctuated$LT$syn..generics..TypeParamBound$C$syn..token..Add$GT$$GT$17he87db64984b51318E', symObjAddr: 0x5E0, symBinAddr: 0x4B130, symSize: 0x2D0 }
  - { offsetInCU: 0x439A, offset: 0x1B65DF, size: 0x8, addend: 0x0, symName: '__ZN4core3ptr105drop_in_place$LT$syn..punctuated..Punctuated$LT$syn..generics..WherePredicate$C$syn..token..Comma$GT$$GT$17hac65fce390980dc3E', symObjAddr: 0x8B0, symBinAddr: 0x4B400, symSize: 0x190 }
  - { offsetInCU: 0x49CD, offset: 0x1B6C12, size: 0x8, addend: 0x0, symName: '__ZN4core3ptr108drop_in_place$LT$syn..punctuated..Punctuated$LT$syn..expr..GenericMethodArgument$C$syn..token..Comma$GT$$GT$17h5b9ce8018b09f0e5E', symObjAddr: 0xA40, symBinAddr: 0x4B590, symSize: 0x160 }
  - { offsetInCU: 0x4E66, offset: 0x1B70AB, size: 0x8, addend: 0x0, symName: '__ZN4core3ptr126drop_in_place$LT$core..option..Option$LT$$LP$syn..token..And$C$core..option..Option$LT$syn..lifetime..Lifetime$GT$$RP$$GT$$GT$17hdde5b01b4b98f2daE', symObjAddr: 0xBA0, symBinAddr: 0x4B6F0, symSize: 0x30 }
  - { offsetInCU: 0x50F6, offset: 0x1B733B, size: 0x8, addend: 0x0, symName: '__ZN4core3ptr33drop_in_place$LT$syn..ty..Abi$GT$17he2691cc2533ab272E', symObjAddr: 0xBD0, symBinAddr: 0x4B720, symSize: 0x60 }
  - { offsetInCU: 0x5112, offset: 0x1B7357, size: 0x8, addend: 0x0, symName: '__ZN4core3ptr33drop_in_place$LT$syn..ty..Abi$GT$17he2691cc2533ab272E', symObjAddr: 0xBD0, symBinAddr: 0x4B720, symSize: 0x60 }
  - { offsetInCU: 0x540C, offset: 0x1B7651, size: 0x8, addend: 0x0, symName: '__ZN4core3ptr34drop_in_place$LT$syn..lit..Lit$GT$17h1ab3234e104c44f2E.llvm.3076795648491411314', symObjAddr: 0xC30, symBinAddr: 0x4B780, symSize: 0x110 }
  - { offsetInCU: 0x58AB, offset: 0x1B7AF0, size: 0x8, addend: 0x0, symName: '__ZN4core3ptr34drop_in_place$LT$syn..pat..Pat$GT$17hd2daf6c9b558c302E.llvm.3076795648491411314', symObjAddr: 0xD40, symBinAddr: 0x4B890, symSize: 0xB30 }
  - { offsetInCU: 0x8DB4, offset: 0x1BAFF9, size: 0x8, addend: 0x0, symName: '__ZN4core3ptr34drop_in_place$LT$syn..ty..Type$GT$17h2525d6f390be5184E.llvm.3076795648491411314', symObjAddr: 0x1870, symBinAddr: 0x4C3C0, symSize: 0x400 }
  - { offsetInCU: 0x9AD6, offset: 0x1BBD1B, size: 0x8, addend: 0x0, symName: '__ZN4core3ptr35drop_in_place$LT$syn..expr..Arm$GT$17hcf08f6b4056ef3ddE.llvm.3076795648491411314', symObjAddr: 0x1C70, symBinAddr: 0x4C7C0, symSize: 0x140 }
  - { offsetInCU: 0xA185, offset: 0x1BC3CA, size: 0x8, addend: 0x0, symName: '__ZN4core3ptr36drop_in_place$LT$syn..attr..Meta$GT$17h46f6d690cceb645cE.llvm.3076795648491411314', symObjAddr: 0x1DB0, symBinAddr: 0x4C900, symSize: 0x180 }
  - { offsetInCU: 0xAB26, offset: 0x1BCD6B, size: 0x8, addend: 0x0, symName: '__ZN4core3ptr36drop_in_place$LT$syn..expr..Expr$GT$17h2c405aa56ef59458E.llvm.3076795648491411314', symObjAddr: 0x1F30, symBinAddr: 0x4CA80, symSize: 0x14B0 }
  - { offsetInCU: 0xE4F2, offset: 0x1C0737, size: 0x8, addend: 0x0, symName: '__ZN4core3ptr36drop_in_place$LT$syn..item..Item$GT$17h01bb0fa389148f0aE.llvm.3076795648491411314', symObjAddr: 0x33E0, symBinAddr: 0x4DF30, symSize: 0x1030 }
  - { offsetInCU: 0x11315, offset: 0x1C355A, size: 0x8, addend: 0x0, symName: '__ZN4core3ptr36drop_in_place$LT$syn..mac..Macro$GT$17ha3f7407d832a54f3E', symObjAddr: 0x4410, symBinAddr: 0x4EF60, symSize: 0xE0 }
  - { offsetInCU: 0x1169B, offset: 0x1C38E0, size: 0x8, addend: 0x0, symName: '__ZN4core3ptr36drop_in_place$LT$syn..path..Path$GT$17hdd1a20818512b8e8E.llvm.3076795648491411314', symObjAddr: 0x44F0, symBinAddr: 0x4F040, symSize: 0x160 }
  - { offsetInCU: 0x11C0A, offset: 0x1C3E4F, size: 0x8, addend: 0x0, symName: '__ZN4core3ptr36drop_in_place$LT$syn..stmt..Stmt$GT$17h2c1363d127574ce1E.llvm.3076795648491411314', symObjAddr: 0x4650, symBinAddr: 0x4F1A0, symSize: 0xE0 }
  - { offsetInCU: 0x11E02, offset: 0x1C4047, size: 0x8, addend: 0x0, symName: '__ZN4core3ptr37drop_in_place$LT$syn..data..Field$GT$17h2a0a4309083b01c5E', symObjAddr: 0x4730, symBinAddr: 0x4F280, symSize: 0x130 }
  - { offsetInCU: 0x12385, offset: 0x1C45CA, size: 0x8, addend: 0x0, symName: '__ZN4core3ptr37drop_in_place$LT$syn..item..FnArg$GT$17hc73957cde150e13fE', symObjAddr: 0x4860, symBinAddr: 0x4F3B0, symSize: 0x110 }
  - { offsetInCU: 0x127CA, offset: 0x1C4A0F, size: 0x8, addend: 0x0, symName: '__ZN4core3ptr37drop_in_place$LT$syn..stmt..Block$GT$17h116674a61262fbf3E', symObjAddr: 0x4970, symBinAddr: 0x4F4C0, symSize: 0xD0 }
  - { offsetInCU: 0x12A6E, offset: 0x1C4CB3, size: 0x8, addend: 0x0, symName: '__ZN4core3ptr38drop_in_place$LT$syn..expr..Member$GT$17hcc0800d87a1b5a7bE.llvm.3076795648491411314', symObjAddr: 0x4A40, symBinAddr: 0x4F590, symSize: 0x30 }
  - { offsetInCU: 0x12B6B, offset: 0x1C4DB0, size: 0x8, addend: 0x0, symName: '__ZN4core3ptr38drop_in_place$LT$syn..pat..PatType$GT$17h2faf603bc6b8ef1bE', symObjAddr: 0x4A70, symBinAddr: 0x4F5C0, symSize: 0x100 }
  - { offsetInCU: 0x130A2, offset: 0x1C52E7, size: 0x8, addend: 0x0, symName: '__ZN4core3ptr38drop_in_place$LT$syn..ty..Variadic$GT$17h90894a7b207323d7E', symObjAddr: 0x4B70, symBinAddr: 0x4F6C0, symSize: 0x80 }
  - { offsetInCU: 0x13335, offset: 0x1C557A, size: 0x8, addend: 0x0, symName: '__ZN4core3ptr39drop_in_place$LT$proc_macro2..Ident$GT$17h5e23b415130c092bE', symObjAddr: 0x4BF0, symBinAddr: 0x4F740, symSize: 0x30 }
  - { offsetInCU: 0x13470, offset: 0x1C56B5, size: 0x8, addend: 0x0, symName: '__ZN4core3ptr39drop_in_place$LT$syn..data..Variant$GT$17hefa9403855914ff2E', symObjAddr: 0x4C20, symBinAddr: 0x4F770, symSize: 0x2B0 }
  - { offsetInCU: 0x14050, offset: 0x1C6295, size: 0x8, addend: 0x0, symName: '__ZN4core3ptr39drop_in_place$LT$syn..item..UseTree$GT$17h3e6ece9047ec0875E', symObjAddr: 0x4ED0, symBinAddr: 0x4FA20, symSize: 0x1E0 }
  - { offsetInCU: 0x14811, offset: 0x1C6A56, size: 0x8, addend: 0x0, symName: '__ZN4core3ptr39drop_in_place$LT$syn..pat..PatTuple$GT$17hc859e789d4d53192E', symObjAddr: 0x50B0, symBinAddr: 0x4FC00, symSize: 0x1D0 }
  - { offsetInCU: 0x14F24, offset: 0x1C7169, size: 0x8, addend: 0x0, symName: '__ZN4core3ptr40drop_in_place$LT$syn..attr..MetaList$GT$17h3c4eaaad760a7e01E.llvm.3076795648491411314', symObjAddr: 0x5280, symBinAddr: 0x4FDD0, symSize: 0x180 }
  - { offsetInCU: 0x153B9, offset: 0x1C75FE, size: 0x8, addend: 0x0, symName: '__ZN4core3ptr40drop_in_place$LT$syn..item..ImplItem$GT$17h85064237fa35fafbE', symObjAddr: 0x5400, symBinAddr: 0x4FF50, symSize: 0x1C0 }
  - { offsetInCU: 0x156F1, offset: 0x1C7936, size: 0x8, addend: 0x0, symName: '__ZN4core3ptr40drop_in_place$LT$syn..ty..ReturnType$GT$17h03f22a8f10ab16f6E.llvm.3076795648491411314', symObjAddr: 0x55C0, symBinAddr: 0x50110, symSize: 0x50 }
  - { offsetInCU: 0x15863, offset: 0x1C7AA8, size: 0x8, addend: 0x0, symName: '__ZN4core3ptr41drop_in_place$LT$syn..attr..Attribute$GT$17hecf536a72086490fE.llvm.3076795648491411314', symObjAddr: 0x5610, symBinAddr: 0x50160, symSize: 0x130 }
  - { offsetInCU: 0x15DB1, offset: 0x1C7FF6, size: 0x8, addend: 0x0, symName: '__ZN4core3ptr41drop_in_place$LT$syn..item..Signature$GT$17h2012426ae0493478E', symObjAddr: 0x5740, symBinAddr: 0x50290, symSize: 0x2C0 }
  - { offsetInCU: 0x16AD5, offset: 0x1C8D1A, size: 0x8, addend: 0x0, symName: '__ZN4core3ptr41drop_in_place$LT$syn..item..TraitItem$GT$17h1ee7cf7d4c6d9f19E', symObjAddr: 0x5A00, symBinAddr: 0x50550, symSize: 0x2C0 }
  - { offsetInCU: 0x171AD, offset: 0x1C93F2, size: 0x8, addend: 0x0, symName: '__ZN4core3ptr43drop_in_place$LT$proc_macro2..TokenTree$GT$17hfccd2bad98ef61aaE.llvm.3076795648491411314', symObjAddr: 0x5D30, symBinAddr: 0x50810, symSize: 0xB0 }
  - { offsetInCU: 0x174C1, offset: 0x1C9706, size: 0x8, addend: 0x0, symName: '__ZN4core3ptr43drop_in_place$LT$syn..data..FieldsNamed$GT$17h41cc92892e75c753E', symObjAddr: 0x5DE0, symBinAddr: 0x508C0, symSize: 0x120 }
  - { offsetInCU: 0x17968, offset: 0x1C9BAD, size: 0x8, addend: 0x0, symName: '__ZN4core3ptr43drop_in_place$LT$syn..item..ForeignItem$GT$17hc4e03b12421f3ca2E', symObjAddr: 0x5F00, symBinAddr: 0x509E0, symSize: 0x2B0 }
  - { offsetInCU: 0x17EFD, offset: 0x1CA142, size: 0x8, addend: 0x0, symName: '__ZN4core3ptr43drop_in_place$LT$syn..path..PathSegment$GT$17h5b31f13da2bc9893E', symObjAddr: 0x61B0, symBinAddr: 0x50C90, symSize: 0x170 }
  - { offsetInCU: 0x184C0, offset: 0x1CA705, size: 0x8, addend: 0x0, symName: '__ZN4core3ptr44drop_in_place$LT$syn..generics..Generics$GT$17he9630424d36f6845E', symObjAddr: 0x6320, symBinAddr: 0x50E00, symSize: 0x220 }
  - { offsetInCU: 0x18D3D, offset: 0x1CAF82, size: 0x8, addend: 0x0, symName: '__ZN4core3ptr44drop_in_place$LT$syn..item..ImplItemType$GT$17h10fb40989d104adbE', symObjAddr: 0x6540, symBinAddr: 0x51020, symSize: 0x170 }
  - { offsetInCU: 0x192E3, offset: 0x1CB528, size: 0x8, addend: 0x0, symName: '__ZN4core3ptr44drop_in_place$LT$syn..lifetime..Lifetime$GT$17h98e1868bd5b8518fE.llvm.3076795648491411314', symObjAddr: 0x66B0, symBinAddr: 0x51190, symSize: 0x30 }
  - { offsetInCU: 0x1943D, offset: 0x1CB682, size: 0x8, addend: 0x0, symName: '__ZN4core3ptr45drop_in_place$LT$proc_macro2..TokenStream$GT$17hf227e3acf52e90acE.llvm.3076795648491411314', symObjAddr: 0x66E0, symBinAddr: 0x511C0, symSize: 0x70 }
  - { offsetInCU: 0x19585, offset: 0x1CB7CA, size: 0x8, addend: 0x0, symName: '__ZN4core3ptr45drop_in_place$LT$syn..data..VisRestricted$GT$17hfdb19d71c294503cE', symObjAddr: 0x6750, symBinAddr: 0x51230, symSize: 0x50 }
  - { offsetInCU: 0x1973D, offset: 0x1CB982, size: 0x8, addend: 0x0, symName: '__ZN4core3ptr45drop_in_place$LT$syn..generics..TypeParam$GT$17h5879fb903ef8ce07E', symObjAddr: 0x67A0, symBinAddr: 0x51280, symSize: 0x1E0 }
  - { offsetInCU: 0x1A05D, offset: 0x1CC2A2, size: 0x8, addend: 0x0, symName: '__ZN4core3ptr45drop_in_place$LT$syn..item..ImplItemConst$GT$17h3b919246e1bc8fb5E', symObjAddr: 0x6980, symBinAddr: 0x51460, symSize: 0x150 }
  - { offsetInCU: 0x1A5C0, offset: 0x1CC805, size: 0x8, addend: 0x0, symName: '__ZN4core3ptr45drop_in_place$LT$syn..item..TraitItemType$GT$17h1472446bbbf2dfffE', symObjAddr: 0x6AD0, symBinAddr: 0x515B0, symSize: 0x230 }
  - { offsetInCU: 0x1AFC6, offset: 0x1CD20B, size: 0x8, addend: 0x0, symName: '__ZN4core3ptr45drop_in_place$LT$syn..path..PathArguments$GT$17h5cc560e7b9dc7afaE.llvm.3076795648491411314', symObjAddr: 0x6D00, symBinAddr: 0x517E0, symSize: 0xA0 }
  - { offsetInCU: 0x1B19B, offset: 0x1CD3E0, size: 0x8, addend: 0x0, symName: '__ZN4core3ptr46drop_in_place$LT$syn..generics..ConstParam$GT$17he8abc02e8047724dE', symObjAddr: 0x6DA0, symBinAddr: 0x51880, symSize: 0x110 }
  - { offsetInCU: 0x1B55A, offset: 0x1CD79F, size: 0x8, addend: 0x0, symName: '__ZN4core3ptr46drop_in_place$LT$syn..item..ImplItemMethod$GT$17h2eb9a13a712fcd35E', symObjAddr: 0x6EB0, symBinAddr: 0x51990, symSize: 0x1D0 }
  - { offsetInCU: 0x1BC45, offset: 0x1CDE8A, size: 0x8, addend: 0x0, symName: '__ZN4core3ptr46drop_in_place$LT$syn..item..TraitItemConst$GT$17h151fb4d6da8cbc51E', symObjAddr: 0x7080, symBinAddr: 0x51B60, symSize: 0xF0 }
  - { offsetInCU: 0x1C037, offset: 0x1CE27C, size: 0x8, addend: 0x0, symName: '__ZN4core3ptr47drop_in_place$LT$syn..generics..LifetimeDef$GT$17he88c7db9003f4c56E', symObjAddr: 0x7170, symBinAddr: 0x51C50, symSize: 0xB0 }
  - { offsetInCU: 0x1C3CF, offset: 0x1CE614, size: 0x8, addend: 0x0, symName: '__ZN4core3ptr47drop_in_place$LT$syn..generics..WhereClause$GT$17h5a7e4a8e8c66edcbE', symObjAddr: 0x7220, symBinAddr: 0x51D00, symSize: 0x120 }
  - { offsetInCU: 0x1C857, offset: 0x1CEA9C, size: 0x8, addend: 0x0, symName: '__ZN4core3ptr47drop_in_place$LT$syn..path..GenericArgument$GT$17hd47b35aa3c190f98E', symObjAddr: 0x7340, symBinAddr: 0x51E20, symSize: 0xE0 }
  - { offsetInCU: 0x1CB71, offset: 0x1CEDB6, size: 0x8, addend: 0x0, symName: '__ZN4core3ptr48drop_in_place$LT$syn..generics..GenericParam$GT$17h00a0e5e5d8fb7696E', symObjAddr: 0x7420, symBinAddr: 0x51F00, symSize: 0xA0 }
  - { offsetInCU: 0x1CCA4, offset: 0x1CEEE9, size: 0x8, addend: 0x0, symName: '__ZN4core3ptr49drop_in_place$LT$syn..generics..PredicateType$GT$17h76ea5c1850ab470cE.llvm.3076795648491411314', symObjAddr: 0x74C0, symBinAddr: 0x51FA0, symSize: 0x230 }
  - { offsetInCU: 0x1D617, offset: 0x1CF85C, size: 0x8, addend: 0x0, symName: '__ZN4core3ptr49drop_in_place$LT$syn..item..ForeignItemStatic$GT$17hefea00ea801a64ccE', symObjAddr: 0x76F0, symBinAddr: 0x521D0, symSize: 0x140 }
  - { offsetInCU: 0x1DCAB, offset: 0x1CFEF0, size: 0x8, addend: 0x0, symName: '__ZN4core3ptr50drop_in_place$LT$$u5b$syn..item..ImplItem$u5d$$GT$17h48665b18c5d39b1bE', symObjAddr: 0x7830, symBinAddr: 0x52310, symSize: 0x1E0 }
  - { offsetInCU: 0x1DF14, offset: 0x1D0159, size: 0x8, addend: 0x0, symName: '__ZN4core3ptr50drop_in_place$LT$syn..generics..BoundLifetimes$GT$17h29e702a59a8a66b5E', symObjAddr: 0x7A10, symBinAddr: 0x524F0, symSize: 0x110 }
  - { offsetInCU: 0x1E35E, offset: 0x1D05A3, size: 0x8, addend: 0x0, symName: '__ZN4core3ptr50drop_in_place$LT$syn..generics..TypeParamBound$GT$17hbe66663c5590831eE', symObjAddr: 0x7B20, symBinAddr: 0x52600, symSize: 0x80 }
  - { offsetInCU: 0x1E4E4, offset: 0x1D0729, size: 0x8, addend: 0x0, symName: '__ZN4core3ptr50drop_in_place$LT$syn..generics..WherePredicate$GT$17hd85e287b07e1f94eE', symObjAddr: 0x7BA0, symBinAddr: 0x52680, symSize: 0xE0 }
  - { offsetInCU: 0x1E69A, offset: 0x1D08DF, size: 0x8, addend: 0x0, symName: '__ZN4core3ptr51drop_in_place$LT$$u5b$syn..attr..Attribute$u5d$$GT$17he4e911ab5acb6322E.llvm.3076795648491411314', symObjAddr: 0x7C80, symBinAddr: 0x52760, symSize: 0x1B0 }
  - { offsetInCU: 0x1E9E0, offset: 0x1D0C25, size: 0x8, addend: 0x0, symName: '__ZN4core3ptr51drop_in_place$LT$$u5b$syn..item..TraitItem$u5d$$GT$17h2dcb13a16f90bb39E', symObjAddr: 0x7E30, symBinAddr: 0x52910, symSize: 0x450 }
  - { offsetInCU: 0x1F385, offset: 0x1D15CA, size: 0x8, addend: 0x0, symName: '__ZN4core3ptr53drop_in_place$LT$$u5b$syn..item..ForeignItem$u5d$$GT$17h386bd586454921efE', symObjAddr: 0x8280, symBinAddr: 0x52D60, symSize: 0x3A0 }
  - { offsetInCU: 0x1FDDE, offset: 0x1D2023, size: 0x8, addend: 0x0, symName: '__ZN4core3ptr58drop_in_place$LT$alloc..vec..Vec$LT$syn..expr..Arm$GT$$GT$17h290d8e7f2ad556dbE', symObjAddr: 0x8620, symBinAddr: 0x53100, symSize: 0xD0 }
  - { offsetInCU: 0x2006B, offset: 0x1D22B0, size: 0x8, addend: 0x0, symName: '__ZN4core3ptr59drop_in_place$LT$alloc..boxed..Box$LT$syn..pat..Pat$GT$$GT$17h01c85953a6d07042E.llvm.3076795648491411314', symObjAddr: 0x86F0, symBinAddr: 0x531D0, symSize: 0x50 }
  - { offsetInCU: 0x201C6, offset: 0x1D240B, size: 0x8, addend: 0x0, symName: '__ZN4core3ptr59drop_in_place$LT$alloc..boxed..Box$LT$syn..ty..Type$GT$$GT$17hb45fd9b98f484f5eE', symObjAddr: 0x8740, symBinAddr: 0x53220, symSize: 0x50 }
  - { offsetInCU: 0x20321, offset: 0x1D2566, size: 0x8, addend: 0x0, symName: '__ZN4core3ptr59drop_in_place$LT$alloc..vec..Vec$LT$syn..item..Item$GT$$GT$17h4209887e1690eb07E', symObjAddr: 0x8790, symBinAddr: 0x53270, symSize: 0xD0 }
  - { offsetInCU: 0x205AE, offset: 0x1D27F3, size: 0x8, addend: 0x0, symName: '__ZN4core3ptr61drop_in_place$LT$alloc..boxed..Box$LT$syn..expr..Expr$GT$$GT$17h9ad4fd2327a26218E.llvm.3076795648491411314', symObjAddr: 0x8860, symBinAddr: 0x53340, symSize: 0x50 }
  - { offsetInCU: 0x20709, offset: 0x1D294E, size: 0x8, addend: 0x0, symName: '__ZN4core3ptr61drop_in_place$LT$alloc..boxed..Box$LT$syn..path..Path$GT$$GT$17hdffc85f0fef72bffE', symObjAddr: 0x88B0, symBinAddr: 0x53390, symSize: 0x100 }
  - { offsetInCU: 0x20BEF, offset: 0x1D2E34, size: 0x8, addend: 0x0, symName: '__ZN4core3ptr61drop_in_place$LT$syn..path..ParenthesizedGenericArguments$GT$17h69cc70aa9b265048E', symObjAddr: 0x89B0, symBinAddr: 0x53490, symSize: 0x170 }
  - { offsetInCU: 0x211B6, offset: 0x1D33FB, size: 0x8, addend: 0x0, symName: '__ZN4core3ptr62drop_in_place$LT$alloc..boxed..Box$LT$syn..data..Field$GT$$GT$17hc8550fa2665bd2caE', symObjAddr: 0x8B20, symBinAddr: 0x53600, symSize: 0x50 }
  - { offsetInCU: 0x21330, offset: 0x1D3575, size: 0x8, addend: 0x0, symName: '__ZN4core3ptr62drop_in_place$LT$alloc..boxed..Box$LT$syn..item..FnArg$GT$$GT$17hbe32c081156cc9fdE', symObjAddr: 0x8B70, symBinAddr: 0x53650, symSize: 0xD0 }
  - { offsetInCU: 0x21881, offset: 0x1D3AC6, size: 0x8, addend: 0x0, symName: '__ZN4core3ptr62drop_in_place$LT$alloc..boxed..Box$LT$syn..stmt..Block$GT$$GT$17he9de85cc59d6b0f9E', symObjAddr: 0x8C40, symBinAddr: 0x53720, symSize: 0xE0 }
  - { offsetInCU: 0x21C62, offset: 0x1D3EA7, size: 0x8, addend: 0x0, symName: '__ZN4core3ptr62drop_in_place$LT$syn..path..AngleBracketedGenericArguments$GT$17haebf6eac508a8d96E', symObjAddr: 0x8D20, symBinAddr: 0x53800, symSize: 0x120 }
  - { offsetInCU: 0x220AC, offset: 0x1D42F1, size: 0x8, addend: 0x0, symName: '__ZN4core3ptr63drop_in_place$LT$alloc..vec..Vec$LT$syn..item..ImplItem$GT$$GT$17ha9cc4750709d9a80E', symObjAddr: 0x8E40, symBinAddr: 0x53920, symSize: 0x80 }
  - { offsetInCU: 0x2232A, offset: 0x1D456F, size: 0x8, addend: 0x0, symName: '__ZN4core3ptr64drop_in_place$LT$alloc..boxed..Box$LT$syn..data..Variant$GT$$GT$17h4696deaf91d25b04E', symObjAddr: 0x8EC0, symBinAddr: 0x539A0, symSize: 0x50 }
  - { offsetInCU: 0x22485, offset: 0x1D46CA, size: 0x8, addend: 0x0, symName: '__ZN4core3ptr64drop_in_place$LT$alloc..boxed..Box$LT$syn..item..UseTree$GT$$GT$17h1fe40200d7acd8e3E', symObjAddr: 0x8F10, symBinAddr: 0x539F0, symSize: 0x50 }
  - { offsetInCU: 0x225FF, offset: 0x1D4844, size: 0x8, addend: 0x0, symName: '__ZN4core3ptr64drop_in_place$LT$alloc..boxed..Box$LT$syn..pat..FieldPat$GT$$GT$17h438f301abb3992afE', symObjAddr: 0x8F60, symBinAddr: 0x53A40, symSize: 0x100 }
  - { offsetInCU: 0x22C9B, offset: 0x1D4EE0, size: 0x8, addend: 0x0, symName: '__ZN4core3ptr64drop_in_place$LT$alloc..boxed..Box$LT$syn..ty..BareFnArg$GT$$GT$17h534b59785628b455E', symObjAddr: 0x9060, symBinAddr: 0x53B40, symSize: 0x90 }
  - { offsetInCU: 0x22F36, offset: 0x1D517B, size: 0x8, addend: 0x0, symName: '__ZN4core3ptr64drop_in_place$LT$alloc..vec..Vec$LT$syn..attr..Attribute$GT$$GT$17ha80fd91f8906594aE.llvm.3076795648491411314', symObjAddr: 0x90F0, symBinAddr: 0x53BD0, symSize: 0xF0 }
  - { offsetInCU: 0x231D0, offset: 0x1D5415, size: 0x8, addend: 0x0, symName: '__ZN4core3ptr64drop_in_place$LT$alloc..vec..Vec$LT$syn..item..TraitItem$GT$$GT$17h7d71a0bf05a55c2fE', symObjAddr: 0x91E0, symBinAddr: 0x53CC0, symSize: 0x80 }
  - { offsetInCU: 0x2344E, offset: 0x1D5693, size: 0x8, addend: 0x0, symName: '__ZN4core3ptr65drop_in_place$LT$$LP$syn..item..FnArg$C$syn..token..Comma$RP$$GT$17h0db05f98f3e137faE', symObjAddr: 0x9260, symBinAddr: 0x53D40, symSize: 0xD0 }
  - { offsetInCU: 0x238CE, offset: 0x1D5B13, size: 0x8, addend: 0x0, symName: '__ZN4core3ptr65drop_in_place$LT$alloc..vec..Vec$LT$proc_macro..TokenTree$GT$$GT$17h184709532a71fd8aE.llvm.3076795648491411314', symObjAddr: 0x9330, symBinAddr: 0x53E10, symSize: 0x120 }
  - { offsetInCU: 0x23C40, offset: 0x1D5E85, size: 0x8, addend: 0x0, symName: '__ZN4core3ptr65drop_in_place$LT$core..option..Option$LT$syn..expr..Label$GT$$GT$17h55a8a4e1ddce58b3E', symObjAddr: 0x9450, symBinAddr: 0x53F30, symSize: 0x30 }
  - { offsetInCU: 0x23D7B, offset: 0x1D5FC0, size: 0x8, addend: 0x0, symName: '__ZN4core3ptr65drop_in_place$LT$core..option..Option$LT$syn..stmt..Block$GT$$GT$17h6cb99896193f392eE', symObjAddr: 0x9480, symBinAddr: 0x53F60, symSize: 0xE0 }
  - { offsetInCU: 0x23FE0, offset: 0x1D6225, size: 0x8, addend: 0x0, symName: '__ZN4core3ptr66drop_in_place$LT$alloc..vec..Vec$LT$syn..item..ForeignItem$GT$$GT$17h8973989590b0f40dE', symObjAddr: 0x9560, symBinAddr: 0x54040, symSize: 0x80 }
  - { offsetInCU: 0x2425E, offset: 0x1D64A3, size: 0x8, addend: 0x0, symName: '__ZN4core3ptr67drop_in_place$LT$$LP$syn..pat..FieldPat$C$syn..token..Comma$RP$$GT$17h4283a1444100e9bcE.llvm.3076795648491411314', symObjAddr: 0x95E0, symBinAddr: 0x540C0, symSize: 0xF0 }
  - { offsetInCU: 0x24785, offset: 0x1D69CA, size: 0x8, addend: 0x0, symName: '__ZN4core3ptr67drop_in_place$LT$$LP$syn..ty..BareFnArg$C$syn..token..Comma$RP$$GT$17ha4eefd88145cb9bdE.llvm.3076795648491411314', symObjAddr: 0x96D0, symBinAddr: 0x541B0, symSize: 0x70 }
  - { offsetInCU: 0x248D7, offset: 0x1D6B1C, size: 0x8, addend: 0x0, symName: '__ZN4core3ptr67drop_in_place$LT$alloc..boxed..Box$LT$syn..attr..NestedMeta$GT$$GT$17h4dea060b27b151f0E.llvm.3076795648491411314', symObjAddr: 0x9740, symBinAddr: 0x54220, symSize: 0x140 }
  - { offsetInCU: 0x24C49, offset: 0x1D6E8E, size: 0x8, addend: 0x0, symName: '__ZN4core3ptr67drop_in_place$LT$alloc..boxed..Box$LT$syn..expr..FieldValue$GT$$GT$17h2fb7840700e2cfc4E', symObjAddr: 0x9880, symBinAddr: 0x54360, symSize: 0xA0 }
  - { offsetInCU: 0x24ED0, offset: 0x1D7115, size: 0x8, addend: 0x0, symName: '__ZN4core3ptr68drop_in_place$LT$alloc..boxed..Box$LT$syn..path..PathSegment$GT$$GT$17h0d3dbff6fefb9ff1E.llvm.3076795648491411314', symObjAddr: 0x9920, symBinAddr: 0x54400, symSize: 0xD0 }
  - { offsetInCU: 0x252CE, offset: 0x1D7513, size: 0x8, addend: 0x0, symName: '__ZN4core3ptr70drop_in_place$LT$$LP$syn..attr..NestedMeta$C$syn..token..Comma$RP$$GT$17hbeca59bc96aa64a2E.llvm.3076795648491411314', symObjAddr: 0x99F0, symBinAddr: 0x544D0, symSize: 0x20 }
  - { offsetInCU: 0x2530A, offset: 0x1D754F, size: 0x8, addend: 0x0, symName: '__ZN4core3ptr70drop_in_place$LT$$LP$syn..expr..FieldValue$C$syn..token..Comma$RP$$GT$17hea8ea8cb9f121faeE.llvm.3076795648491411314', symObjAddr: 0x9A10, symBinAddr: 0x544F0, symSize: 0x80 }
  - { offsetInCU: 0x25448, offset: 0x1D768D, size: 0x8, addend: 0x0, symName: '__ZN4core3ptr72drop_in_place$LT$$LP$syn..path..PathSegment$C$syn..token..Colon2$RP$$GT$17h82e6879f6773a2c5E.llvm.3076795648491411314', symObjAddr: 0x9A90, symBinAddr: 0x54570, symSize: 0xC0 }
  - { offsetInCU: 0x2570E, offset: 0x1D7953, size: 0x8, addend: 0x0, symName: '__ZN4core3ptr72drop_in_place$LT$alloc..boxed..Box$LT$syn..generics..LifetimeDef$GT$$GT$17hb8fea8ed639c0477E', symObjAddr: 0x9B50, symBinAddr: 0x54630, symSize: 0x80 }
  - { offsetInCU: 0x259BD, offset: 0x1D7C02, size: 0x8, addend: 0x0, symName: '__ZN4core3ptr72drop_in_place$LT$alloc..boxed..Box$LT$syn..path..GenericArgument$GT$$GT$17h03345587942f4c51E.llvm.3076795648491411314', symObjAddr: 0x9BD0, symBinAddr: 0x546B0, symSize: 0x1F0 }
  - { offsetInCU: 0x261F7, offset: 0x1D843C, size: 0x8, addend: 0x0, symName: '__ZN4core3ptr73drop_in_place$LT$alloc..boxed..Box$LT$syn..generics..GenericParam$GT$$GT$17h264822fde3dccefdE', symObjAddr: 0x9DC0, symBinAddr: 0x548A0, symSize: 0x80 }
  - { offsetInCU: 0x2636F, offset: 0x1D85B4, size: 0x8, addend: 0x0, symName: '__ZN4core3ptr75drop_in_place$LT$$LP$syn..generics..LifetimeDef$C$syn..token..Comma$RP$$GT$17h154cd84c40e8c9a6E.llvm.3076795648491411314', symObjAddr: 0x9E40, symBinAddr: 0x54920, symSize: 0x60 }
  - { offsetInCU: 0x264AA, offset: 0x1D86EF, size: 0x8, addend: 0x0, symName: '__ZN4core3ptr75drop_in_place$LT$$LP$syn..path..GenericArgument$C$syn..token..Comma$RP$$GT$17h2a9dfe6e3f421b2fE.llvm.3076795648491411314', symObjAddr: 0x9EA0, symBinAddr: 0x54980, symSize: 0x210 }
  - { offsetInCU: 0x26C0C, offset: 0x1D8E51, size: 0x8, addend: 0x0, symName: '__ZN4core3ptr75drop_in_place$LT$alloc..boxed..Box$LT$syn..generics..TypeParamBound$GT$$GT$17h607f713d7489d138E', symObjAddr: 0xA0B0, symBinAddr: 0x54B90, symSize: 0x140 }
  - { offsetInCU: 0x2718C, offset: 0x1D93D1, size: 0x8, addend: 0x0, symName: '__ZN4core3ptr75drop_in_place$LT$alloc..boxed..Box$LT$syn..generics..WherePredicate$GT$$GT$17hbb2b32bb157198feE', symObjAddr: 0xA1F0, symBinAddr: 0x54CD0, symSize: 0xC0 }
  - { offsetInCU: 0x2742B, offset: 0x1D9670, size: 0x8, addend: 0x0, symName: '__ZN4core3ptr76drop_in_place$LT$$LP$syn..generics..GenericParam$C$syn..token..Comma$RP$$GT$17h056e7e4642d97ac8E', symObjAddr: 0xA2B0, symBinAddr: 0x54D90, symSize: 0x40 }
  - { offsetInCU: 0x27467, offset: 0x1D96AC, size: 0x8, addend: 0x0, symName: '__ZN4core3ptr76drop_in_place$LT$$LP$syn..generics..TypeParamBound$C$syn..token..Add$RP$$GT$17ha2c8b62d97b2ed05E.llvm.3076795648491411314', symObjAddr: 0xA2F0, symBinAddr: 0x54DD0, symSize: 0x150 }
  - { offsetInCU: 0x278B5, offset: 0x1D9AFA, size: 0x8, addend: 0x0, symName: '__ZN4core3ptr78drop_in_place$LT$$LP$syn..generics..WherePredicate$C$syn..token..Comma$RP$$GT$17h75ea94664f69db0fE.llvm.3076795648491411314', symObjAddr: 0xA440, symBinAddr: 0x54F20, symSize: 0xA0 }
  - { offsetInCU: 0x27A28, offset: 0x1D9C6D, size: 0x8, addend: 0x0, symName: '__ZN4core3ptr78drop_in_place$LT$alloc..boxed..Box$LT$syn..expr..GenericMethodArgument$GT$$GT$17hcf6efd22daa4cb90E', symObjAddr: 0xA4E0, symBinAddr: 0x54FC0, symSize: 0x60 }
  - { offsetInCU: 0x27BA0, offset: 0x1D9DE5, size: 0x8, addend: 0x0, symName: '__ZN4core3ptr81drop_in_place$LT$$LP$syn..expr..GenericMethodArgument$C$syn..token..Comma$RP$$GT$17h4404ca7b6e91b867E.llvm.3076795648491411314', symObjAddr: 0xA540, symBinAddr: 0x55020, symSize: 0x20 }
  - { offsetInCU: 0x27BDC, offset: 0x1D9E21, size: 0x8, addend: 0x0, symName: '__ZN4core3ptr86drop_in_place$LT$$LP$syn..token..If$C$alloc..boxed..Box$LT$syn..expr..Expr$GT$$RP$$GT$17hb6a3ea3efe573f14E.llvm.3076795648491411314', symObjAddr: 0xA560, symBinAddr: 0x55040, symSize: 0x50 }
  - { offsetInCU: 0x27D56, offset: 0x1D9F9B, size: 0x8, addend: 0x0, symName: '__ZN4core3ptr86drop_in_place$LT$$u5b$$LP$syn..generics..TypeParamBound$C$syn..token..Add$RP$$u5d$$GT$17ha03047b1a590828bE', symObjAddr: 0xA5B0, symBinAddr: 0x55090, symSize: 0xD0 }
  - { offsetInCU: 0x27F86, offset: 0x1DA1CB, size: 0x8, addend: 0x0, symName: '__ZN4core3ptr86drop_in_place$LT$syn..punctuated..Punctuated$LT$syn..pat..Pat$C$syn..token..Or$GT$$GT$17h26954409c1236a70E', symObjAddr: 0xA680, symBinAddr: 0x55160, symSize: 0x120 }
  - { offsetInCU: 0x283E3, offset: 0x1DA628, size: 0x8, addend: 0x0, symName: '__ZN4core3ptr87drop_in_place$LT$core..option..Option$LT$alloc..boxed..Box$LT$syn..pat..Pat$GT$$GT$$GT$17h7df459c6cf4ce695E', symObjAddr: 0xA7A0, symBinAddr: 0x55280, symSize: 0x50 }
  - { offsetInCU: 0x28555, offset: 0x1DA79A, size: 0x8, addend: 0x0, symName: '__ZN4core3ptr87drop_in_place$LT$core..option..Option$LT$alloc..boxed..Box$LT$syn..ty..Type$GT$$GT$$GT$17h88aedc8974b5e242E', symObjAddr: 0xA7F0, symBinAddr: 0x552D0, symSize: 0x50 }
  - { offsetInCU: 0x286C7, offset: 0x1DA90C, size: 0x8, addend: 0x0, symName: '__ZN4core3ptr89drop_in_place$LT$core..option..Option$LT$alloc..boxed..Box$LT$syn..expr..Expr$GT$$GT$$GT$17h6fdb7cdd0a3b0ab5E', symObjAddr: 0xA840, symBinAddr: 0x55320, symSize: 0x50 }
  - { offsetInCU: 0x28839, offset: 0x1DAA7E, size: 0x8, addend: 0x0, symName: '__ZN4core3ptr89drop_in_place$LT$syn..punctuated..Punctuated$LT$syn..ty..Type$C$syn..token..Comma$GT$$GT$17h980beb25d5baeecdE.llvm.3076795648491411314', symObjAddr: 0xA890, symBinAddr: 0x55370, symSize: 0x120 }
  - { offsetInCU: 0x28C83, offset: 0x1DAEC8, size: 0x8, addend: 0x0, symName: '__ZN4core3ptr90drop_in_place$LT$core..option..Option$LT$alloc..boxed..Box$LT$syn..data..Field$GT$$GT$$GT$17h59aa86f86df9297aE', symObjAddr: 0xA9B0, symBinAddr: 0x55490, symSize: 0x50 }
  - { offsetInCU: 0x28DF5, offset: 0x1DB03A, size: 0x8, addend: 0x0, symName: '__ZN4core3ptr90drop_in_place$LT$core..option..Option$LT$alloc..boxed..Box$LT$syn..item..FnArg$GT$$GT$$GT$17h56a616fb46311bfeE', symObjAddr: 0xAA00, symBinAddr: 0x554E0, symSize: 0x50 }
  - { offsetInCU: 0x28FE3, offset: 0x1DB228, size: 0x8, addend: 0x0, symName: '__ZN4core3ptr91drop_in_place$LT$syn..punctuated..Punctuated$LT$syn..expr..Expr$C$syn..token..Comma$GT$$GT$17h0b073aeb5ab62d2fE', symObjAddr: 0xAA50, symBinAddr: 0x55530, symSize: 0x120 }
  - { offsetInCU: 0x29440, offset: 0x1DB685, size: 0x8, addend: 0x0, symName: '__ZN4core3ptr92drop_in_place$LT$core..option..Option$LT$$LP$syn..token..As$C$proc_macro2..Ident$RP$$GT$$GT$17h7b2995a9ced6292cE', symObjAddr: 0xAB70, symBinAddr: 0x55650, symSize: 0x30 }
  - { offsetInCU: 0x2955C, offset: 0x1DB7A1, size: 0x8, addend: 0x0, symName: '__ZN4core3ptr92drop_in_place$LT$syn..punctuated..Punctuated$LT$syn..data..Field$C$syn..token..Comma$GT$$GT$17h6118ea4c4e5769f7E', symObjAddr: 0xABA0, symBinAddr: 0x55680, symSize: 0x120 }
  - { offsetInCU: 0x299A6, offset: 0x1DBBEB, size: 0x8, addend: 0x0, symName: '__ZN4core3ptr92drop_in_place$LT$syn..punctuated..Punctuated$LT$syn..item..FnArg$C$syn..token..Comma$GT$$GT$17ha03e24601b2e7537E', symObjAddr: 0xACC0, symBinAddr: 0x557A0, symSize: 0x240 }
  - { offsetInCU: 0x2A51F, offset: 0x1DC764, size: 0x8, addend: 0x0, symName: '__ZN4core3ptr93drop_in_place$LT$alloc..vec..Vec$LT$$LP$syn..attr..NestedMeta$C$syn..token..Comma$RP$$GT$$GT$17h813078e2293fc8e5E.llvm.3076795648491411314', symObjAddr: 0xAF00, symBinAddr: 0x559E0, symSize: 0xE0 }
  - { offsetInCU: 0x2A894, offset: 0x1DCAD9, size: 0x8, addend: 0x0, symName: '__ZN4core3ptr94drop_in_place$LT$syn..punctuated..Punctuated$LT$syn..data..Variant$C$syn..token..Comma$GT$$GT$17hf4d048a4dcd2ddaeE', symObjAddr: 0xAFE0, symBinAddr: 0x55AC0, symSize: 0x120 }
  - { offsetInCU: 0x2AD6D, offset: 0x1DCFB2, size: 0x8, addend: 0x0, symName: '__ZN4core3ptr94drop_in_place$LT$syn..punctuated..Punctuated$LT$syn..pat..FieldPat$C$syn..token..Comma$GT$$GT$17hc488d173042d1296E', symObjAddr: 0xB100, symBinAddr: 0x55BE0, symSize: 0xF0 }
  - { offsetInCU: 0x2B0E5, offset: 0x1DD32A, size: 0x8, addend: 0x0, symName: '__ZN4core3ptr94drop_in_place$LT$syn..punctuated..Punctuated$LT$syn..ty..BareFnArg$C$syn..token..Comma$GT$$GT$17hc8ac1c6c80625508E', symObjAddr: 0xB1F0, symBinAddr: 0x55CD0, symSize: 0x180 }
  - { offsetInCU: 0x2B52E, offset: 0x1DD773, size: 0x8, addend: 0x0, symName: '__ZN4core3ptr95drop_in_place$LT$core..option..Option$LT$$LP$proc_macro2..Ident$C$syn..token..Colon$RP$$GT$$GT$17h5cf0acd8a4012c25E.llvm.3076795648491411314', symObjAddr: 0xB370, symBinAddr: 0x55E50, symSize: 0x30 }
  - { offsetInCU: 0x2B64A, offset: 0x1DD88F, size: 0x8, addend: 0x0, symName: '__ZN4core3ptr95drop_in_place$LT$core..option..Option$LT$alloc..boxed..Box$LT$syn..attr..NestedMeta$GT$$GT$$GT$17h876915814e03d677E.llvm.3076795648491411314', symObjAddr: 0xB3A0, symBinAddr: 0x55E80, symSize: 0xA0 }
  - { offsetInCU: 0x2B7EE, offset: 0x1DDA33, size: 0x8, addend: 0x0, symName: '__ZN4core3ptr96drop_in_place$LT$core..option..Option$LT$alloc..boxed..Box$LT$syn..path..PathSegment$GT$$GT$$GT$17hb63f3e57d4373260E', symObjAddr: 0xB440, symBinAddr: 0x55F20, symSize: 0x90 }
  - { offsetInCU: 0x2BA8F, offset: 0x1DDCD4, size: 0x8, addend: 0x0, symName: '__ZN4core3ptr97drop_in_place$LT$syn..punctuated..Punctuated$LT$syn..attr..NestedMeta$C$syn..token..Comma$GT$$GT$17hd5a6f22db7167123E.llvm.3076795648491411314', symObjAddr: 0xB520, symBinAddr: 0x55FB0, symSize: 0x110 }
  - { offsetInCU: 0x2BE22, offset: 0x1DE067, size: 0x8, addend: 0x0, symName: '__ZN4core3ptr97drop_in_place$LT$syn..punctuated..Punctuated$LT$syn..expr..FieldValue$C$syn..token..Comma$GT$$GT$17h0b967144e5f751bcE', symObjAddr: 0xB630, symBinAddr: 0x560C0, symSize: 0x1A0 }
  - { offsetInCU: 0x2C316, offset: 0x1DE55B, size: 0x8, addend: 0x0, symName: '__ZN4core3ptr97drop_in_place$LT$syn..punctuated..Punctuated$LT$syn..lifetime..Lifetime$C$syn..token..Add$GT$$GT$17h13de0797103c07efE.llvm.3076795648491411314', symObjAddr: 0xB7D0, symBinAddr: 0x56260, symSize: 0xC0 }
  - { offsetInCU: 0x33F08, offset: 0x1E614D, size: 0x8, addend: 0x0, symName: '__ZN70_$LT$alloc..vec..Vec$LT$T$C$A$GT$$u20$as$u20$core..ops..drop..Drop$GT$4drop17h1bd4280fabe85dddE', symObjAddr: 0xBD80, symBinAddr: 0x566B0, symSize: 0xD0 }
  - { offsetInCU: 0x34040, offset: 0x1E6285, size: 0x8, addend: 0x0, symName: '__ZN70_$LT$alloc..vec..Vec$LT$T$C$A$GT$$u20$as$u20$core..ops..drop..Drop$GT$4drop17h4a900bfc62b4b920E', symObjAddr: 0xC000, symBinAddr: 0x56780, symSize: 0xB0 }
  - { offsetInCU: 0x34178, offset: 0x1E63BD, size: 0x8, addend: 0x0, symName: '__ZN70_$LT$alloc..vec..Vec$LT$T$C$A$GT$$u20$as$u20$core..ops..drop..Drop$GT$4drop17hc56ff8ef254a4a71E', symObjAddr: 0xC3A0, symBinAddr: 0x56830, symSize: 0x90 }
  - { offsetInCU: 0x3427E, offset: 0x1E64C3, size: 0x8, addend: 0x0, symName: '__ZN70_$LT$alloc..vec..Vec$LT$T$C$A$GT$$u20$as$u20$core..ops..drop..Drop$GT$4drop17he499df208a59861fE', symObjAddr: 0xC580, symBinAddr: 0x568C0, symSize: 0xD0 }
  - { offsetInCU: 0x344DD, offset: 0x1E6722, size: 0x8, addend: 0x0, symName: '__ZN67_$LT$alloc..vec..Vec$LT$T$C$A$GT$$u20$as$u20$core..clone..Clone$GT$5clone17hb9a4fc6599da4da1E', symObjAddr: 0xB8F0, symBinAddr: 0x56320, symSize: 0x390 }
  - { offsetInCU: 0x1E, offset: 0x1EDA13, size: 0x8, addend: 0x0, symName: '__ZN100_$LT$syn..punctuated..PrivateIter$LT$T$C$P$GT$$u20$as$u20$core..iter..traits..iterator..Iterator$GT$4next17ha7f9e87abb548a5fE.llvm.2737422688490391372', symObjAddr: 0x0, symBinAddr: 0x56990, symSize: 0x30 }
  - { offsetInCU: 0x68B, offset: 0x1EE080, size: 0x8, addend: 0x0, symName: '__ZN100_$LT$syn..punctuated..PrivateIter$LT$T$C$P$GT$$u20$as$u20$core..iter..traits..iterator..Iterator$GT$4next17ha7f9e87abb548a5fE.llvm.2737422688490391372', symObjAddr: 0x0, symBinAddr: 0x56990, symSize: 0x30 }
  - { offsetInCU: 0x90B, offset: 0x1EE300, size: 0x8, addend: 0x0, symName: '__ZN100_$LT$syn..punctuated..PrivateIter$LT$T$C$P$GT$$u20$as$u20$core..iter..traits..iterator..Iterator$GT$4next17hbffbbf3db96046b5E.llvm.2737422688490391372', symObjAddr: 0x30, symBinAddr: 0x569C0, symSize: 0x30 }
  - { offsetInCU: 0xB8B, offset: 0x1EE580, size: 0x8, addend: 0x0, symName: '__ZN100_$LT$syn..punctuated..PrivateIter$LT$T$C$P$GT$$u20$as$u20$core..iter..traits..iterator..Iterator$GT$4next17hcf827c56f10521c6E.llvm.2737422688490391372', symObjAddr: 0x60, symBinAddr: 0x569F0, symSize: 0x30 }
  - { offsetInCU: 0xEA1, offset: 0x1EE896, size: 0x8, addend: 0x0, symName: '__ZN111_$LT$syn..punctuated..PrivateIter$LT$T$C$P$GT$$u20$as$u20$core..iter..traits..exact_size..ExactSizeIterator$GT$3len17h07fd5bd55ef1327cE.llvm.2737422688490391372', symObjAddr: 0x90, symBinAddr: 0x56A20, symSize: 0x30 }
  - { offsetInCU: 0x1013, offset: 0x1EEA08, size: 0x8, addend: 0x0, symName: '__ZN115_$LT$syn..punctuated..PrivateIter$LT$T$C$P$GT$$u20$as$u20$core..iter..traits..double_ended..DoubleEndedIterator$GT$9next_back17h88d38f03c865d1c4E.llvm.2737422688490391372', symObjAddr: 0x120, symBinAddr: 0x56A50, symSize: 0x30 }
  - { offsetInCU: 0x135C, offset: 0x1EED51, size: 0x8, addend: 0x0, symName: '__ZN57_$LT$I$u20$as$u20$syn..punctuated..IterTrait$LT$T$GT$$GT$9clone_box17hc1191ba9e73c094cE.llvm.2737422688490391372', symObjAddr: 0x7510, symBinAddr: 0x5D6E0, symSize: 0x60 }
  - { offsetInCU: 0x94BA, offset: 0x1F6EAF, size: 0x8, addend: 0x0, symName: '__ZN4core3ptr100drop_in_place$LT$core..option..Option$LT$alloc..boxed..Box$LT$syn..generics..LifetimeDef$GT$$GT$$GT$17h59b147f54f34dccbE.llvm.2737422688490391372', symObjAddr: 0x4C0, symBinAddr: 0x56C40, symSize: 0x140 }
  - { offsetInCU: 0x9AE1, offset: 0x1F74D6, size: 0x8, addend: 0x0, symName: '__ZN4core3ptr100drop_in_place$LT$core..option..Option$LT$alloc..boxed..Box$LT$syn..path..GenericArgument$GT$$GT$$GT$17h38255555b1295bfeE', symObjAddr: 0x600, symBinAddr: 0x56D80, symSize: 0x50 }
  - { offsetInCU: 0x9CB0, offset: 0x1F76A5, size: 0x8, addend: 0x0, symName: '__ZN4core3ptr103drop_in_place$LT$core..option..Option$LT$alloc..boxed..Box$LT$syn..generics..TypeParamBound$GT$$GT$$GT$17h4cde56daa3a2bdc0E', symObjAddr: 0x650, symBinAddr: 0x56DD0, symSize: 0x90 }
  - { offsetInCU: 0xA02C, offset: 0x1F7A21, size: 0x8, addend: 0x0, symName: '__ZN4core3ptr103drop_in_place$LT$syn..punctuated..Punctuated$LT$syn..generics..TypeParamBound$C$syn..token..Add$GT$$GT$17he87db64984b51318E.llvm.2737422688490391372', symObjAddr: 0x6E0, symBinAddr: 0x56E60, symSize: 0x220 }
  - { offsetInCU: 0xA9CB, offset: 0x1F83C0, size: 0x8, addend: 0x0, symName: '__ZN4core3ptr108drop_in_place$LT$syn..punctuated..Punctuated$LT$syn..expr..GenericMethodArgument$C$syn..token..Comma$GT$$GT$17h5b9ce8018b09f0e5E', symObjAddr: 0x900, symBinAddr: 0x57080, symSize: 0x160 }
  - { offsetInCU: 0xAEE0, offset: 0x1F88D5, size: 0x8, addend: 0x0, symName: '__ZN4core3ptr34drop_in_place$LT$syn..lit..Lit$GT$17h1ab3234e104c44f2E', symObjAddr: 0xA60, symBinAddr: 0x571E0, symSize: 0x110 }
  - { offsetInCU: 0xB3BD, offset: 0x1F8DB2, size: 0x8, addend: 0x0, symName: '__ZN4core3ptr34drop_in_place$LT$syn..pat..Pat$GT$17hd2daf6c9b558c302E', symObjAddr: 0xB70, symBinAddr: 0x572F0, symSize: 0x1020 }
  - { offsetInCU: 0xEEE3, offset: 0x1FC8D8, size: 0x8, addend: 0x0, symName: '__ZN4core3ptr34drop_in_place$LT$syn..ty..Type$GT$17h2525d6f390be5184E.llvm.2737422688490391372', symObjAddr: 0x1B90, symBinAddr: 0x58310, symSize: 0x520 }
  - { offsetInCU: 0x107C1, offset: 0x1FE1B6, size: 0x8, addend: 0x0, symName: '__ZN4core3ptr36drop_in_place$LT$syn..expr..Expr$GT$17h2c405aa56ef59458E', symObjAddr: 0x20B0, symBinAddr: 0x58830, symSize: 0x2A50 }
  - { offsetInCU: 0x1A10A, offset: 0x207AFF, size: 0x8, addend: 0x0, symName: '__ZN4core3ptr36drop_in_place$LT$syn..mac..Macro$GT$17ha3f7407d832a54f3E', symObjAddr: 0x4B00, symBinAddr: 0x5B280, symSize: 0x40 }
  - { offsetInCU: 0x1A25B, offset: 0x207C50, size: 0x8, addend: 0x0, symName: '__ZN4core3ptr36drop_in_place$LT$syn..path..Path$GT$17hdd1a20818512b8e8E', symObjAddr: 0x4B40, symBinAddr: 0x5B2C0, symSize: 0x250 }
  - { offsetInCU: 0x1ACA4, offset: 0x208699, size: 0x8, addend: 0x0, symName: '__ZN4core3ptr37drop_in_place$LT$syn..stmt..Block$GT$17h116674a61262fbf3E', symObjAddr: 0x4D90, symBinAddr: 0x5B510, symSize: 0xD0 }
  - { offsetInCU: 0x1AF48, offset: 0x20893D, size: 0x8, addend: 0x0, symName: '__ZN4core3ptr38drop_in_place$LT$syn..expr..Member$GT$17hcc0800d87a1b5a7bE', symObjAddr: 0x4E60, symBinAddr: 0x5B5E0, symSize: 0x30 }
  - { offsetInCU: 0x1B045, offset: 0x208A3A, size: 0x8, addend: 0x0, symName: '__ZN4core3ptr39drop_in_place$LT$proc_macro2..Ident$GT$17h5e23b415130c092bE', symObjAddr: 0x4E90, symBinAddr: 0x5B610, symSize: 0x30 }
  - { offsetInCU: 0x1B123, offset: 0x208B18, size: 0x8, addend: 0x0, symName: '__ZN4core3ptr39drop_in_place$LT$syn..pat..PatTuple$GT$17hc859e789d4d53192E', symObjAddr: 0x4EC0, symBinAddr: 0x5B640, symSize: 0xE0 }
  - { offsetInCU: 0x1B3BF, offset: 0x208DB4, size: 0x8, addend: 0x0, symName: '__ZN4core3ptr40drop_in_place$LT$syn..ty..ReturnType$GT$17h03f22a8f10ab16f6E', symObjAddr: 0x4FA0, symBinAddr: 0x5B720, symSize: 0x50 }
  - { offsetInCU: 0x1B667, offset: 0x20905C, size: 0x8, addend: 0x0, symName: '__ZN4core3ptr45drop_in_place$LT$proc_macro2..TokenStream$GT$17hf227e3acf52e90acE', symObjAddr: 0x4FF0, symBinAddr: 0x5B770, symSize: 0x140 }
  - { offsetInCU: 0x1BAD6, offset: 0x2094CB, size: 0x8, addend: 0x0, symName: '__ZN4core3ptr47drop_in_place$LT$syn..path..GenericArgument$GT$17hd47b35aa3c190f98E', symObjAddr: 0x5130, symBinAddr: 0x5B8B0, symSize: 0xE0 }
  - { offsetInCU: 0x1BE4D, offset: 0x209842, size: 0x8, addend: 0x0, symName: '__ZN4core3ptr50drop_in_place$LT$syn..generics..WherePredicate$GT$17hd85e287b07e1f94eE.llvm.2737422688490391372', symObjAddr: 0x5210, symBinAddr: 0x5B990, symSize: 0xD0 }
  - { offsetInCU: 0x1BFCB, offset: 0x2099C0, size: 0x8, addend: 0x0, symName: '__ZN4core3ptr58drop_in_place$LT$alloc..vec..Vec$LT$syn..expr..Arm$GT$$GT$17h290d8e7f2ad556dbE', symObjAddr: 0x52E0, symBinAddr: 0x5BA60, symSize: 0xD0 }
  - { offsetInCU: 0x1C258, offset: 0x209C4D, size: 0x8, addend: 0x0, symName: '__ZN4core3ptr59drop_in_place$LT$alloc..boxed..Box$LT$syn..pat..Pat$GT$$GT$17h01c85953a6d07042E', symObjAddr: 0x53B0, symBinAddr: 0x5BB30, symSize: 0x50 }
  - { offsetInCU: 0x1C3B3, offset: 0x209DA8, size: 0x8, addend: 0x0, symName: '__ZN4core3ptr59drop_in_place$LT$alloc..boxed..Box$LT$syn..ty..Type$GT$$GT$17hb45fd9b98f484f5eE', symObjAddr: 0x5400, symBinAddr: 0x5BB80, symSize: 0x50 }
  - { offsetInCU: 0x1C50E, offset: 0x209F03, size: 0x8, addend: 0x0, symName: '__ZN4core3ptr61drop_in_place$LT$alloc..boxed..Box$LT$syn..expr..Expr$GT$$GT$17h9ad4fd2327a26218E', symObjAddr: 0x5450, symBinAddr: 0x5BBD0, symSize: 0x50 }
  - { offsetInCU: 0x1C6E5, offset: 0x20A0DA, size: 0x8, addend: 0x0, symName: '__ZN4core3ptr61drop_in_place$LT$syn..path..ParenthesizedGenericArguments$GT$17h69cc70aa9b265048E', symObjAddr: 0x54A0, symBinAddr: 0x5BC20, symSize: 0x170 }
  - { offsetInCU: 0x1CCAC, offset: 0x20A6A1, size: 0x8, addend: 0x0, symName: '__ZN4core3ptr63drop_in_place$LT$alloc..boxed..Box$LT$syn..lit..LitRepr$GT$$GT$17hfdc6f02c2aeccea8E', symObjAddr: 0x5610, symBinAddr: 0x5BD90, symSize: 0x60 }
  - { offsetInCU: 0x1CFA1, offset: 0x20A996, size: 0x8, addend: 0x0, symName: '__ZN4core3ptr64drop_in_place$LT$alloc..boxed..Box$LT$syn..pat..FieldPat$GT$$GT$17h438f301abb3992afE', symObjAddr: 0x5670, symBinAddr: 0x5BDF0, symSize: 0x140 }
  - { offsetInCU: 0x1D64C, offset: 0x20B041, size: 0x8, addend: 0x0, symName: '__ZN4core3ptr64drop_in_place$LT$alloc..boxed..Box$LT$syn..ty..BareFnArg$GT$$GT$17h534b59785628b455E', symObjAddr: 0x57B0, symBinAddr: 0x5BF30, symSize: 0x120 }
  - { offsetInCU: 0x1DB62, offset: 0x20B557, size: 0x8, addend: 0x0, symName: '__ZN4core3ptr65drop_in_place$LT$core..option..Option$LT$syn..expr..Label$GT$$GT$17h55a8a4e1ddce58b3E', symObjAddr: 0x58D0, symBinAddr: 0x5C050, symSize: 0x30 }
  - { offsetInCU: 0x1DC9D, offset: 0x20B692, size: 0x8, addend: 0x0, symName: '__ZN4core3ptr66drop_in_place$LT$core..option..Option$LT$syn..ty..Variadic$GT$$GT$17h0501c7cacb50c1bcE', symObjAddr: 0x5900, symBinAddr: 0x5C080, symSize: 0xE0 }
  - { offsetInCU: 0x1DF21, offset: 0x20B916, size: 0x8, addend: 0x0, symName: '__ZN4core3ptr67drop_in_place$LT$alloc..boxed..Box$LT$syn..expr..FieldValue$GT$$GT$17h2fb7840700e2cfc4E', symObjAddr: 0x59E0, symBinAddr: 0x5C160, symSize: 0x140 }
  - { offsetInCU: 0x1E444, offset: 0x20BE39, size: 0x8, addend: 0x0, symName: '__ZN4core3ptr68drop_in_place$LT$alloc..boxed..Box$LT$syn..path..PathSegment$GT$$GT$17h0d3dbff6fefb9ff1E', symObjAddr: 0x5B20, symBinAddr: 0x5C2A0, symSize: 0x190 }
  - { offsetInCU: 0x1EB41, offset: 0x20C536, size: 0x8, addend: 0x0, symName: '__ZN4core3ptr72drop_in_place$LT$alloc..boxed..Box$LT$syn..path..GenericArgument$GT$$GT$17h03345587942f4c51E', symObjAddr: 0x5CB0, symBinAddr: 0x5C430, symSize: 0x190 }
  - { offsetInCU: 0x1F23E, offset: 0x20CC33, size: 0x8, addend: 0x0, symName: '__ZN4core3ptr72drop_in_place$LT$core..option..Option$LT$syn..lifetime..Lifetime$GT$$GT$17h740173d7f1029395E', symObjAddr: 0x5E40, symBinAddr: 0x5C5C0, symSize: 0x30 }
  - { offsetInCU: 0x1F35A, offset: 0x20CD4F, size: 0x8, addend: 0x0, symName: '__ZN4core3ptr75drop_in_place$LT$alloc..boxed..Box$LT$syn..generics..TypeParamBound$GT$$GT$17h607f713d7489d138E', symObjAddr: 0x5E70, symBinAddr: 0x5C5F0, symSize: 0x170 }
  - { offsetInCU: 0x1F9A3, offset: 0x20D398, size: 0x8, addend: 0x0, symName: '__ZN4core3ptr78drop_in_place$LT$alloc..boxed..Box$LT$syn..expr..GenericMethodArgument$GT$$GT$17hcf6efd22daa4cb90E', symObjAddr: 0x5FE0, symBinAddr: 0x5C760, symSize: 0x60 }
  - { offsetInCU: 0x1FB97, offset: 0x20D58C, size: 0x8, addend: 0x0, symName: '__ZN4core3ptr78drop_in_place$LT$core..option..Option$LT$syn..generics..BoundLifetimes$GT$$GT$17hfda58d196741a0b6E.llvm.2737422688490391372', symObjAddr: 0x6040, symBinAddr: 0x5C7C0, symSize: 0x90 }
  - { offsetInCU: 0x1FE4D, offset: 0x20D842, size: 0x8, addend: 0x0, symName: '__ZN4core3ptr86drop_in_place$LT$syn..punctuated..Punctuated$LT$syn..pat..Pat$C$syn..token..Or$GT$$GT$17h26954409c1236a70E', symObjAddr: 0x60D0, symBinAddr: 0x5C850, symSize: 0x120 }
  - { offsetInCU: 0x20293, offset: 0x20DC88, size: 0x8, addend: 0x0, symName: '__ZN4core3ptr87drop_in_place$LT$core..option..Option$LT$alloc..boxed..Box$LT$syn..pat..Pat$GT$$GT$$GT$17h7df459c6cf4ce695E', symObjAddr: 0x61F0, symBinAddr: 0x5C970, symSize: 0x50 }
  - { offsetInCU: 0x20405, offset: 0x20DDFA, size: 0x8, addend: 0x0, symName: '__ZN4core3ptr87drop_in_place$LT$core..option..Option$LT$alloc..boxed..Box$LT$syn..ty..Type$GT$$GT$$GT$17h88aedc8974b5e242E', symObjAddr: 0x6240, symBinAddr: 0x5C9C0, symSize: 0x50 }
  - { offsetInCU: 0x20577, offset: 0x20DF6C, size: 0x8, addend: 0x0, symName: '__ZN4core3ptr89drop_in_place$LT$core..option..Option$LT$alloc..boxed..Box$LT$syn..expr..Expr$GT$$GT$$GT$17h6fdb7cdd0a3b0ab5E', symObjAddr: 0x6290, symBinAddr: 0x5CA10, symSize: 0x50 }
  - { offsetInCU: 0x20727, offset: 0x20E11C, size: 0x8, addend: 0x0, symName: '__ZN4core3ptr89drop_in_place$LT$syn..punctuated..Punctuated$LT$syn..pat..Pat$C$syn..token..Comma$GT$$GT$17hea353bcfa9e7288cE', symObjAddr: 0x62E0, symBinAddr: 0x5CA60, symSize: 0x120 }
  - { offsetInCU: 0x20B84, offset: 0x20E579, size: 0x8, addend: 0x0, symName: '__ZN4core3ptr89drop_in_place$LT$syn..punctuated..Punctuated$LT$syn..ty..Type$C$syn..token..Comma$GT$$GT$17h980beb25d5baeecdE', symObjAddr: 0x6400, symBinAddr: 0x5CB80, symSize: 0x120 }
  - { offsetInCU: 0x2100C, offset: 0x20EA01, size: 0x8, addend: 0x0, symName: '__ZN4core3ptr91drop_in_place$LT$syn..punctuated..Punctuated$LT$syn..expr..Expr$C$syn..token..Comma$GT$$GT$17h0b073aeb5ab62d2fE', symObjAddr: 0x6520, symBinAddr: 0x5CCA0, symSize: 0x120 }
  - { offsetInCU: 0x21469, offset: 0x20EE5E, size: 0x8, addend: 0x0, symName: '__ZN4core3ptr93drop_in_place$LT$syn..punctuated..PrivateIter$LT$syn..data..Field$C$syn..token..Comma$GT$$GT$17h74aefe824873f548E.llvm.2737422688490391372', symObjAddr: 0x6640, symBinAddr: 0x5CDC0, symSize: 0x0 }
  - { offsetInCU: 0x21495, offset: 0x20EE8A, size: 0x8, addend: 0x0, symName: '__ZN4core3ptr94drop_in_place$LT$syn..punctuated..Punctuated$LT$syn..pat..FieldPat$C$syn..token..Comma$GT$$GT$17hc488d173042d1296E', symObjAddr: 0x6650, symBinAddr: 0x5CDD0, symSize: 0xF0 }
  - { offsetInCU: 0x2175F, offset: 0x20F154, size: 0x8, addend: 0x0, symName: '__ZN4core3ptr94drop_in_place$LT$syn..punctuated..Punctuated$LT$syn..ty..BareFnArg$C$syn..token..Comma$GT$$GT$17hc8ac1c6c80625508E', symObjAddr: 0x6740, symBinAddr: 0x5CEC0, symSize: 0x90 }
  - { offsetInCU: 0x21995, offset: 0x20F38A, size: 0x8, addend: 0x0, symName: '__ZN4core3ptr96drop_in_place$LT$core..option..Option$LT$alloc..boxed..Box$LT$syn..path..PathSegment$GT$$GT$$GT$17hb63f3e57d4373260E', symObjAddr: 0x67D0, symBinAddr: 0x5CF50, symSize: 0x180 }
  - { offsetInCU: 0x22045, offset: 0x20FA3A, size: 0x8, addend: 0x0, symName: '__ZN4core3ptr97drop_in_place$LT$syn..punctuated..Punctuated$LT$syn..expr..FieldValue$C$syn..token..Comma$GT$$GT$17h0b967144e5f751bcE', symObjAddr: 0x69A0, symBinAddr: 0x5D0D0, symSize: 0x90 }
  - { offsetInCU: 0x222D8, offset: 0x20FCCD, size: 0x8, addend: 0x0, symName: '__ZN4core3ptr97drop_in_place$LT$syn..punctuated..Punctuated$LT$syn..lifetime..Lifetime$C$syn..token..Add$GT$$GT$17h13de0797103c07efE.llvm.2737422688490391372', symObjAddr: 0x6A30, symBinAddr: 0x5D160, symSize: 0xC0 }
  - { offsetInCU: 0x22750, offset: 0x210145, size: 0x8, addend: 0x0, symName: '__ZN4core3ptr99drop_in_place$LT$syn..punctuated..Punctuated$LT$syn..path..PathSegment$C$syn..token..Colon2$GT$$GT$17hacf52ef78e94f7eaE', symObjAddr: 0x6AF0, symBinAddr: 0x5D220, symSize: 0x270 }
  - { offsetInCU: 0x25C24, offset: 0x213619, size: 0x8, addend: 0x0, symName: __ZN4core4iter6traits10exact_size17ExactSizeIterator8is_empty17h0ddc032976097a5cE.llvm.2737422688490391372, symObjAddr: 0x6D60, symBinAddr: 0x5D490, symSize: 0x30 }
  - { offsetInCU: 0x25D71, offset: 0x213766, size: 0x8, addend: 0x0, symName: __ZN4core4iter6traits12double_ended19DoubleEndedIterator15advance_back_by17h01711adfd73c9d83E.llvm.2737422688490391372, symObjAddr: 0x6DF0, symBinAddr: 0x5D4C0, symSize: 0x70 }
  - { offsetInCU: 0x25FAF, offset: 0x2139A4, size: 0x8, addend: 0x0, symName: __ZN4core4iter6traits12double_ended19DoubleEndedIterator8nth_back17hec7d30dee8c7ead3E.llvm.2737422688490391372, symObjAddr: 0x7010, symBinAddr: 0x5D530, symSize: 0xB0 }
  - { offsetInCU: 0x26444, offset: 0x213E39, size: 0x8, addend: 0x0, symName: __ZN4core4iter6traits8iterator8Iterator10advance_by17h34a241cd127f0a25E.llvm.2737422688490391372, symObjAddr: 0x71E0, symBinAddr: 0x5D5E0, symSize: 0x60 }
  - { offsetInCU: 0x2679C, offset: 0x214191, size: 0x8, addend: 0x0, symName: __ZN4core4iter6traits8iterator8Iterator3nth17h6ebbf36356b22e41E.llvm.2737422688490391372, symObjAddr: 0x7330, symBinAddr: 0x5D640, symSize: 0x80 }
  - { offsetInCU: 0x26D42, offset: 0x214737, size: 0x8, addend: 0x0, symName: __ZN4core4iter6traits8iterator8Iterator9size_hint17h0af5aab4b6124913E.llvm.2737422688490391372, symObjAddr: 0x7430, symBinAddr: 0x5D6C0, symSize: 0x0 }
  - { offsetInCU: 0x27628, offset: 0x21501D, size: 0x8, addend: 0x0, symName: _anon.46872273aac00b9b1da156c97127d806.8.llvm.2737422688490391372, symObjAddr: 0x8500, symBinAddr: 0x2A4908, symSize: 0x0 }
  - { offsetInCU: 0x280B5, offset: 0x215AAA, size: 0x8, addend: 0x0, symName: '__ZN3syn10punctuated23Punctuated$LT$T$C$P$GT$4push17ha69c2772482589c6E', symObjAddr: 0x300, symBinAddr: 0x56A80, symSize: 0x1C0 }
  - { offsetInCU: 0x1E, offset: 0x218A57, size: 0x8, addend: 0x0, symName: '__ZN4core3ptr100drop_in_place$LT$core..option..Option$LT$alloc..boxed..Box$LT$syn..generics..LifetimeDef$GT$$GT$$GT$17h59b147f54f34dccbE', symObjAddr: 0x0, symBinAddr: 0x5D740, symSize: 0x140 }
  - { offsetInCU: 0x60, offset: 0x218A99, size: 0x8, addend: 0x0, symName: '__ZN70_$LT$core..num..error..TryFromIntError$u20$as$u20$core..fmt..Debug$GT$3fmt17hc0f971d0e5e88256E', symObjAddr: 0x69E0, symBinAddr: 0x64120, symSize: 0x40 }
  - { offsetInCU: 0xB1B, offset: 0x219554, size: 0x8, addend: 0x0, symName: '__ZN4core3ptr100drop_in_place$LT$core..option..Option$LT$alloc..boxed..Box$LT$syn..generics..LifetimeDef$GT$$GT$$GT$17h59b147f54f34dccbE', symObjAddr: 0x0, symBinAddr: 0x5D740, symSize: 0x140 }
  - { offsetInCU: 0x1142, offset: 0x219B7B, size: 0x8, addend: 0x0, symName: '__ZN4core3ptr100drop_in_place$LT$core..option..Option$LT$alloc..boxed..Box$LT$syn..path..GenericArgument$GT$$GT$$GT$17h38255555b1295bfeE', symObjAddr: 0x140, symBinAddr: 0x5D880, symSize: 0x50 }
  - { offsetInCU: 0x1311, offset: 0x219D4A, size: 0x8, addend: 0x0, symName: '__ZN4core3ptr103drop_in_place$LT$core..option..Option$LT$alloc..boxed..Box$LT$syn..generics..TypeParamBound$GT$$GT$$GT$17h4cde56daa3a2bdc0E', symObjAddr: 0x190, symBinAddr: 0x5D8D0, symSize: 0x90 }
  - { offsetInCU: 0x164F, offset: 0x21A088, size: 0x8, addend: 0x0, symName: '__ZN4core3ptr103drop_in_place$LT$core..option..Option$LT$alloc..boxed..Box$LT$syn..generics..WherePredicate$GT$$GT$$GT$17hf87ab70cf41f50c9E', symObjAddr: 0x220, symBinAddr: 0x5D960, symSize: 0x100 }
  - { offsetInCU: 0x19FB, offset: 0x21A434, size: 0x8, addend: 0x0, symName: '__ZN4core3ptr103drop_in_place$LT$syn..punctuated..Punctuated$LT$syn..generics..TypeParamBound$C$syn..token..Add$GT$$GT$17he87db64984b51318E', symObjAddr: 0x320, symBinAddr: 0x5DA60, symSize: 0x220 }
  - { offsetInCU: 0x239A, offset: 0x21ADD3, size: 0x8, addend: 0x0, symName: '__ZN4core3ptr108drop_in_place$LT$syn..punctuated..Punctuated$LT$syn..expr..GenericMethodArgument$C$syn..token..Comma$GT$$GT$17h5b9ce8018b09f0e5E', symObjAddr: 0x540, symBinAddr: 0x5DC80, symSize: 0x160 }
  - { offsetInCU: 0x27F5, offset: 0x21B22E, size: 0x8, addend: 0x0, symName: '__ZN4core3ptr33drop_in_place$LT$$RF$$LP$$RP$$GT$17hf10b844624df6069E', symObjAddr: 0x6A0, symBinAddr: 0x5DDE0, symSize: 0x10 }
  - { offsetInCU: 0x28DB, offset: 0x21B314, size: 0x8, addend: 0x0, symName: '__ZN4core3ptr34drop_in_place$LT$syn..lit..Lit$GT$17h1ab3234e104c44f2E', symObjAddr: 0x6B0, symBinAddr: 0x5DDF0, symSize: 0x110 }
  - { offsetInCU: 0x2DB8, offset: 0x21B7F1, size: 0x8, addend: 0x0, symName: '__ZN4core3ptr34drop_in_place$LT$syn..pat..Pat$GT$17hd2daf6c9b558c302E', symObjAddr: 0x7C0, symBinAddr: 0x5DF00, symSize: 0x1020 }
  - { offsetInCU: 0x68DE, offset: 0x21F317, size: 0x8, addend: 0x0, symName: '__ZN4core3ptr34drop_in_place$LT$syn..ty..Type$GT$17h2525d6f390be5184E', symObjAddr: 0x17E0, symBinAddr: 0x5EF20, symSize: 0x520 }
  - { offsetInCU: 0x81BC, offset: 0x220BF5, size: 0x8, addend: 0x0, symName: '__ZN4core3ptr36drop_in_place$LT$syn..expr..Expr$GT$17h2c405aa56ef59458E', symObjAddr: 0x1D00, symBinAddr: 0x5F440, symSize: 0x2A50 }
  - { offsetInCU: 0x11B05, offset: 0x22A53E, size: 0x8, addend: 0x0, symName: '__ZN4core3ptr36drop_in_place$LT$syn..mac..Macro$GT$17ha3f7407d832a54f3E', symObjAddr: 0x4750, symBinAddr: 0x61E90, symSize: 0x40 }
  - { offsetInCU: 0x11C56, offset: 0x22A68F, size: 0x8, addend: 0x0, symName: '__ZN4core3ptr36drop_in_place$LT$syn..path..Path$GT$17hdd1a20818512b8e8E', symObjAddr: 0x4790, symBinAddr: 0x61ED0, symSize: 0x250 }
  - { offsetInCU: 0x1269F, offset: 0x22B0D8, size: 0x8, addend: 0x0, symName: '__ZN4core3ptr37drop_in_place$LT$syn..stmt..Block$GT$17h116674a61262fbf3E', symObjAddr: 0x49E0, symBinAddr: 0x62120, symSize: 0xD0 }
  - { offsetInCU: 0x12981, offset: 0x22B3BA, size: 0x8, addend: 0x0, symName: '__ZN4core3ptr38drop_in_place$LT$syn..error..Error$GT$17hcbb5a77cc5079ab6E', symObjAddr: 0x4AB0, symBinAddr: 0x621F0, symSize: 0x70 }
  - { offsetInCU: 0x12C52, offset: 0x22B68B, size: 0x8, addend: 0x0, symName: '__ZN4core3ptr38drop_in_place$LT$syn..expr..Member$GT$17hcc0800d87a1b5a7bE', symObjAddr: 0x4B20, symBinAddr: 0x62260, symSize: 0x30 }
  - { offsetInCU: 0x12D4F, offset: 0x22B788, size: 0x8, addend: 0x0, symName: '__ZN4core3ptr39drop_in_place$LT$proc_macro2..Ident$GT$17h5e23b415130c092bE', symObjAddr: 0x4B50, symBinAddr: 0x62290, symSize: 0x30 }
  - { offsetInCU: 0x12E2D, offset: 0x22B866, size: 0x8, addend: 0x0, symName: '__ZN4core3ptr39drop_in_place$LT$syn..pat..PatTuple$GT$17hc859e789d4d53192E', symObjAddr: 0x4B80, symBinAddr: 0x622C0, symSize: 0xE0 }
  - { offsetInCU: 0x130C9, offset: 0x22BB02, size: 0x8, addend: 0x0, symName: '__ZN4core3ptr40drop_in_place$LT$syn..ty..ReturnType$GT$17h03f22a8f10ab16f6E', symObjAddr: 0x4C60, symBinAddr: 0x623A0, symSize: 0x50 }
  - { offsetInCU: 0x13371, offset: 0x22BDAA, size: 0x8, addend: 0x0, symName: '__ZN4core3ptr45drop_in_place$LT$proc_macro2..TokenStream$GT$17hf227e3acf52e90acE', symObjAddr: 0x4CB0, symBinAddr: 0x623F0, symSize: 0x140 }
  - { offsetInCU: 0x137FF, offset: 0x22C238, size: 0x8, addend: 0x0, symName: '__ZN4core3ptr47drop_in_place$LT$syn..generics..WhereClause$GT$17h5a7e4a8e8c66edcbE', symObjAddr: 0x4DF0, symBinAddr: 0x62530, symSize: 0xE0 }
  - { offsetInCU: 0x13AF8, offset: 0x22C531, size: 0x8, addend: 0x0, symName: '__ZN4core3ptr47drop_in_place$LT$syn..path..GenericArgument$GT$17hd47b35aa3c190f98E', symObjAddr: 0x4ED0, symBinAddr: 0x62610, symSize: 0xE0 }
  - { offsetInCU: 0x13E12, offset: 0x22C84B, size: 0x8, addend: 0x0, symName: '__ZN4core3ptr54drop_in_place$LT$core..num..error..TryFromIntError$GT$17hceb93504780cf688E', symObjAddr: 0x4FB0, symBinAddr: 0x626F0, symSize: 0x10 }
  - { offsetInCU: 0x13E3E, offset: 0x22C877, size: 0x8, addend: 0x0, symName: '__ZN4core3ptr58drop_in_place$LT$alloc..vec..Vec$LT$syn..expr..Arm$GT$$GT$17h290d8e7f2ad556dbE', symObjAddr: 0x4FC0, symBinAddr: 0x62700, symSize: 0xD0 }
  - { offsetInCU: 0x140CB, offset: 0x22CB04, size: 0x8, addend: 0x0, symName: '__ZN4core3ptr59drop_in_place$LT$alloc..boxed..Box$LT$syn..pat..Pat$GT$$GT$17h01c85953a6d07042E', symObjAddr: 0x5090, symBinAddr: 0x627D0, symSize: 0x50 }
  - { offsetInCU: 0x14226, offset: 0x22CC5F, size: 0x8, addend: 0x0, symName: '__ZN4core3ptr59drop_in_place$LT$alloc..boxed..Box$LT$syn..ty..Type$GT$$GT$17hb45fd9b98f484f5eE', symObjAddr: 0x50E0, symBinAddr: 0x62820, symSize: 0x50 }
  - { offsetInCU: 0x14381, offset: 0x22CDBA, size: 0x8, addend: 0x0, symName: '__ZN4core3ptr61drop_in_place$LT$alloc..boxed..Box$LT$syn..expr..Expr$GT$$GT$17h9ad4fd2327a26218E', symObjAddr: 0x5130, symBinAddr: 0x62870, symSize: 0x50 }
  - { offsetInCU: 0x14558, offset: 0x22CF91, size: 0x8, addend: 0x0, symName: '__ZN4core3ptr61drop_in_place$LT$syn..path..ParenthesizedGenericArguments$GT$17h69cc70aa9b265048E', symObjAddr: 0x5180, symBinAddr: 0x628C0, symSize: 0x170 }
  - { offsetInCU: 0x14B1F, offset: 0x22D558, size: 0x8, addend: 0x0, symName: '__ZN4core3ptr63drop_in_place$LT$alloc..boxed..Box$LT$syn..lit..LitRepr$GT$$GT$17hfdc6f02c2aeccea8E', symObjAddr: 0x52F0, symBinAddr: 0x62A30, symSize: 0x60 }
  - { offsetInCU: 0x14E14, offset: 0x22D84D, size: 0x8, addend: 0x0, symName: '__ZN4core3ptr64drop_in_place$LT$alloc..boxed..Box$LT$syn..pat..FieldPat$GT$$GT$17h438f301abb3992afE', symObjAddr: 0x5350, symBinAddr: 0x62A90, symSize: 0x140 }
  - { offsetInCU: 0x154BF, offset: 0x22DEF8, size: 0x8, addend: 0x0, symName: '__ZN4core3ptr64drop_in_place$LT$alloc..boxed..Box$LT$syn..ty..BareFnArg$GT$$GT$17h534b59785628b455E', symObjAddr: 0x5490, symBinAddr: 0x62BD0, symSize: 0x120 }
  - { offsetInCU: 0x159D5, offset: 0x22E40E, size: 0x8, addend: 0x0, symName: '__ZN4core3ptr65drop_in_place$LT$core..option..Option$LT$syn..expr..Label$GT$$GT$17h55a8a4e1ddce58b3E', symObjAddr: 0x55B0, symBinAddr: 0x62CF0, symSize: 0x30 }
  - { offsetInCU: 0x15B10, offset: 0x22E549, size: 0x8, addend: 0x0, symName: '__ZN4core3ptr66drop_in_place$LT$core..option..Option$LT$syn..ty..Variadic$GT$$GT$17h0501c7cacb50c1bcE', symObjAddr: 0x55E0, symBinAddr: 0x62D20, symSize: 0xE0 }
  - { offsetInCU: 0x15D94, offset: 0x22E7CD, size: 0x8, addend: 0x0, symName: '__ZN4core3ptr67drop_in_place$LT$alloc..boxed..Box$LT$syn..expr..FieldValue$GT$$GT$17h2fb7840700e2cfc4E', symObjAddr: 0x56C0, symBinAddr: 0x62E00, symSize: 0x140 }
  - { offsetInCU: 0x162B7, offset: 0x22ECF0, size: 0x8, addend: 0x0, symName: '__ZN4core3ptr68drop_in_place$LT$alloc..boxed..Box$LT$syn..path..PathSegment$GT$$GT$17h0d3dbff6fefb9ff1E', symObjAddr: 0x5800, symBinAddr: 0x62F40, symSize: 0x190 }
  - { offsetInCU: 0x169B4, offset: 0x22F3ED, size: 0x8, addend: 0x0, symName: '__ZN4core3ptr72drop_in_place$LT$alloc..boxed..Box$LT$syn..path..GenericArgument$GT$$GT$17h03345587942f4c51E', symObjAddr: 0x5990, symBinAddr: 0x630D0, symSize: 0x190 }
  - { offsetInCU: 0x170B1, offset: 0x22FAEA, size: 0x8, addend: 0x0, symName: '__ZN4core3ptr72drop_in_place$LT$core..option..Option$LT$syn..lifetime..Lifetime$GT$$GT$17h740173d7f1029395E', symObjAddr: 0x5B20, symBinAddr: 0x63260, symSize: 0x30 }
  - { offsetInCU: 0x171CD, offset: 0x22FC06, size: 0x8, addend: 0x0, symName: '__ZN4core3ptr75drop_in_place$LT$alloc..boxed..Box$LT$syn..generics..TypeParamBound$GT$$GT$17h607f713d7489d138E', symObjAddr: 0x5B50, symBinAddr: 0x63290, symSize: 0x170 }
  - { offsetInCU: 0x17816, offset: 0x23024F, size: 0x8, addend: 0x0, symName: '__ZN4core3ptr78drop_in_place$LT$alloc..boxed..Box$LT$syn..expr..GenericMethodArgument$GT$$GT$17hcf6efd22daa4cb90E', symObjAddr: 0x5CC0, symBinAddr: 0x63400, symSize: 0x60 }
  - { offsetInCU: 0x17A0A, offset: 0x230443, size: 0x8, addend: 0x0, symName: '__ZN4core3ptr78drop_in_place$LT$core..option..Option$LT$syn..generics..BoundLifetimes$GT$$GT$17hfda58d196741a0b6E', symObjAddr: 0x5D20, symBinAddr: 0x63460, symSize: 0x90 }
  - { offsetInCU: 0x17CC0, offset: 0x2306F9, size: 0x8, addend: 0x0, symName: '__ZN4core3ptr86drop_in_place$LT$syn..punctuated..Punctuated$LT$syn..pat..Pat$C$syn..token..Or$GT$$GT$17h26954409c1236a70E', symObjAddr: 0x5DB0, symBinAddr: 0x634F0, symSize: 0x120 }
  - { offsetInCU: 0x18106, offset: 0x230B3F, size: 0x8, addend: 0x0, symName: '__ZN4core3ptr87drop_in_place$LT$core..option..Option$LT$alloc..boxed..Box$LT$syn..pat..Pat$GT$$GT$$GT$17h7df459c6cf4ce695E', symObjAddr: 0x5ED0, symBinAddr: 0x63610, symSize: 0x50 }
  - { offsetInCU: 0x18278, offset: 0x230CB1, size: 0x8, addend: 0x0, symName: '__ZN4core3ptr87drop_in_place$LT$core..option..Option$LT$alloc..boxed..Box$LT$syn..ty..Type$GT$$GT$$GT$17h88aedc8974b5e242E', symObjAddr: 0x5F20, symBinAddr: 0x63660, symSize: 0x50 }
  - { offsetInCU: 0x183EA, offset: 0x230E23, size: 0x8, addend: 0x0, symName: '__ZN4core3ptr89drop_in_place$LT$core..option..Option$LT$alloc..boxed..Box$LT$syn..expr..Expr$GT$$GT$$GT$17h6fdb7cdd0a3b0ab5E', symObjAddr: 0x5F70, symBinAddr: 0x636B0, symSize: 0x50 }
  - { offsetInCU: 0x1859A, offset: 0x230FD3, size: 0x8, addend: 0x0, symName: '__ZN4core3ptr89drop_in_place$LT$syn..punctuated..Punctuated$LT$syn..pat..Pat$C$syn..token..Comma$GT$$GT$17hea353bcfa9e7288cE', symObjAddr: 0x5FC0, symBinAddr: 0x63700, symSize: 0x120 }
  - { offsetInCU: 0x189F7, offset: 0x231430, size: 0x8, addend: 0x0, symName: '__ZN4core3ptr89drop_in_place$LT$syn..punctuated..Punctuated$LT$syn..ty..Type$C$syn..token..Comma$GT$$GT$17h980beb25d5baeecdE', symObjAddr: 0x60E0, symBinAddr: 0x63820, symSize: 0x120 }
  - { offsetInCU: 0x18E7F, offset: 0x2318B8, size: 0x8, addend: 0x0, symName: '__ZN4core3ptr91drop_in_place$LT$syn..punctuated..Punctuated$LT$syn..expr..Expr$C$syn..token..Comma$GT$$GT$17h0b073aeb5ab62d2fE', symObjAddr: 0x6200, symBinAddr: 0x63940, symSize: 0x120 }
  - { offsetInCU: 0x192DC, offset: 0x231D15, size: 0x8, addend: 0x0, symName: '__ZN4core3ptr94drop_in_place$LT$syn..punctuated..Punctuated$LT$syn..pat..FieldPat$C$syn..token..Comma$GT$$GT$17hc488d173042d1296E', symObjAddr: 0x6320, symBinAddr: 0x63A60, symSize: 0xF0 }
  - { offsetInCU: 0x195A6, offset: 0x231FDF, size: 0x8, addend: 0x0, symName: '__ZN4core3ptr94drop_in_place$LT$syn..punctuated..Punctuated$LT$syn..ty..BareFnArg$C$syn..token..Comma$GT$$GT$17hc8ac1c6c80625508E', symObjAddr: 0x6410, symBinAddr: 0x63B50, symSize: 0x90 }
  - { offsetInCU: 0x197DC, offset: 0x232215, size: 0x8, addend: 0x0, symName: '__ZN4core3ptr96drop_in_place$LT$core..option..Option$LT$alloc..boxed..Box$LT$syn..path..PathSegment$GT$$GT$$GT$17hb63f3e57d4373260E', symObjAddr: 0x64A0, symBinAddr: 0x63BE0, symSize: 0x180 }
  - { offsetInCU: 0x19E6D, offset: 0x2328A6, size: 0x8, addend: 0x0, symName: '__ZN4core3ptr97drop_in_place$LT$syn..punctuated..Punctuated$LT$syn..expr..FieldValue$C$syn..token..Comma$GT$$GT$17h0b967144e5f751bcE', symObjAddr: 0x6620, symBinAddr: 0x63D60, symSize: 0x90 }
  - { offsetInCU: 0x1A11F, offset: 0x232B58, size: 0x8, addend: 0x0, symName: '__ZN4core3ptr97drop_in_place$LT$syn..punctuated..Punctuated$LT$syn..lifetime..Lifetime$C$syn..token..Add$GT$$GT$17h13de0797103c07efE', symObjAddr: 0x66B0, symBinAddr: 0x63DF0, symSize: 0xC0 }
  - { offsetInCU: 0x1A597, offset: 0x232FD0, size: 0x8, addend: 0x0, symName: '__ZN4core3ptr99drop_in_place$LT$syn..punctuated..Punctuated$LT$syn..path..PathSegment$C$syn..token..Colon2$GT$$GT$17hacf52ef78e94f7eaE', symObjAddr: 0x6770, symBinAddr: 0x63EB0, symSize: 0x270 }
  - { offsetInCU: 0x1D466, offset: 0x235E9F, size: 0x8, addend: 0x0, symName: __ZN21borsh_derive_internal8enum_ser8enum_ser17h39ba08ae309acb91E, symObjAddr: 0x6A20, symBinAddr: 0x64160, symSize: 0x1D68 }
  - { offsetInCU: 0x1E, offset: 0x243FE1, size: 0x8, addend: 0x0, symName: '__ZN4core3ptr100drop_in_place$LT$core..option..Option$LT$alloc..boxed..Box$LT$syn..generics..LifetimeDef$GT$$GT$$GT$17h59b147f54f34dccbE', symObjAddr: 0x0, symBinAddr: 0x65ED0, symSize: 0x140 }
  - { offsetInCU: 0x60, offset: 0x244023, size: 0x8, addend: 0x0, symName: '__ZN70_$LT$core..num..error..TryFromIntError$u20$as$u20$core..fmt..Debug$GT$3fmt17hc0f971d0e5e88256E', symObjAddr: 0x69E0, symBinAddr: 0x6C8B0, symSize: 0x40 }
  - { offsetInCU: 0xB1B, offset: 0x244ADE, size: 0x8, addend: 0x0, symName: '__ZN4core3ptr100drop_in_place$LT$core..option..Option$LT$alloc..boxed..Box$LT$syn..generics..LifetimeDef$GT$$GT$$GT$17h59b147f54f34dccbE', symObjAddr: 0x0, symBinAddr: 0x65ED0, symSize: 0x140 }
  - { offsetInCU: 0x1142, offset: 0x245105, size: 0x8, addend: 0x0, symName: '__ZN4core3ptr100drop_in_place$LT$core..option..Option$LT$alloc..boxed..Box$LT$syn..path..GenericArgument$GT$$GT$$GT$17h38255555b1295bfeE', symObjAddr: 0x140, symBinAddr: 0x66010, symSize: 0x50 }
  - { offsetInCU: 0x1311, offset: 0x2452D4, size: 0x8, addend: 0x0, symName: '__ZN4core3ptr103drop_in_place$LT$core..option..Option$LT$alloc..boxed..Box$LT$syn..generics..TypeParamBound$GT$$GT$$GT$17h4cde56daa3a2bdc0E', symObjAddr: 0x190, symBinAddr: 0x66060, symSize: 0x90 }
  - { offsetInCU: 0x164F, offset: 0x245612, size: 0x8, addend: 0x0, symName: '__ZN4core3ptr103drop_in_place$LT$core..option..Option$LT$alloc..boxed..Box$LT$syn..generics..WherePredicate$GT$$GT$$GT$17hf87ab70cf41f50c9E', symObjAddr: 0x220, symBinAddr: 0x660F0, symSize: 0x100 }
  - { offsetInCU: 0x19FB, offset: 0x2459BE, size: 0x8, addend: 0x0, symName: '__ZN4core3ptr103drop_in_place$LT$syn..punctuated..Punctuated$LT$syn..generics..TypeParamBound$C$syn..token..Add$GT$$GT$17he87db64984b51318E', symObjAddr: 0x320, symBinAddr: 0x661F0, symSize: 0x220 }
  - { offsetInCU: 0x239A, offset: 0x24635D, size: 0x8, addend: 0x0, symName: '__ZN4core3ptr108drop_in_place$LT$syn..punctuated..Punctuated$LT$syn..expr..GenericMethodArgument$C$syn..token..Comma$GT$$GT$17h5b9ce8018b09f0e5E', symObjAddr: 0x540, symBinAddr: 0x66410, symSize: 0x160 }
  - { offsetInCU: 0x27F5, offset: 0x2467B8, size: 0x8, addend: 0x0, symName: '__ZN4core3ptr33drop_in_place$LT$$RF$$LP$$RP$$GT$17hf10b844624df6069E', symObjAddr: 0x6A0, symBinAddr: 0x66570, symSize: 0x10 }
  - { offsetInCU: 0x28DB, offset: 0x24689E, size: 0x8, addend: 0x0, symName: '__ZN4core3ptr34drop_in_place$LT$syn..lit..Lit$GT$17h1ab3234e104c44f2E', symObjAddr: 0x6B0, symBinAddr: 0x66580, symSize: 0x110 }
  - { offsetInCU: 0x2DB8, offset: 0x246D7B, size: 0x8, addend: 0x0, symName: '__ZN4core3ptr34drop_in_place$LT$syn..pat..Pat$GT$17hd2daf6c9b558c302E', symObjAddr: 0x7C0, symBinAddr: 0x66690, symSize: 0x1020 }
  - { offsetInCU: 0x68DE, offset: 0x24A8A1, size: 0x8, addend: 0x0, symName: '__ZN4core3ptr34drop_in_place$LT$syn..ty..Type$GT$17h2525d6f390be5184E', symObjAddr: 0x17E0, symBinAddr: 0x676B0, symSize: 0x520 }
  - { offsetInCU: 0x81BC, offset: 0x24C17F, size: 0x8, addend: 0x0, symName: '__ZN4core3ptr36drop_in_place$LT$syn..expr..Expr$GT$17h2c405aa56ef59458E', symObjAddr: 0x1D00, symBinAddr: 0x67BD0, symSize: 0x2A50 }
  - { offsetInCU: 0x11B05, offset: 0x255AC8, size: 0x8, addend: 0x0, symName: '__ZN4core3ptr36drop_in_place$LT$syn..mac..Macro$GT$17ha3f7407d832a54f3E', symObjAddr: 0x4750, symBinAddr: 0x6A620, symSize: 0x40 }
  - { offsetInCU: 0x11C56, offset: 0x255C19, size: 0x8, addend: 0x0, symName: '__ZN4core3ptr36drop_in_place$LT$syn..path..Path$GT$17hdd1a20818512b8e8E', symObjAddr: 0x4790, symBinAddr: 0x6A660, symSize: 0x250 }
  - { offsetInCU: 0x1269F, offset: 0x256662, size: 0x8, addend: 0x0, symName: '__ZN4core3ptr37drop_in_place$LT$syn..stmt..Block$GT$17h116674a61262fbf3E', symObjAddr: 0x49E0, symBinAddr: 0x6A8B0, symSize: 0xD0 }
  - { offsetInCU: 0x12981, offset: 0x256944, size: 0x8, addend: 0x0, symName: '__ZN4core3ptr38drop_in_place$LT$syn..error..Error$GT$17hcbb5a77cc5079ab6E', symObjAddr: 0x4AB0, symBinAddr: 0x6A980, symSize: 0x70 }
  - { offsetInCU: 0x12C52, offset: 0x256C15, size: 0x8, addend: 0x0, symName: '__ZN4core3ptr38drop_in_place$LT$syn..expr..Member$GT$17hcc0800d87a1b5a7bE', symObjAddr: 0x4B20, symBinAddr: 0x6A9F0, symSize: 0x30 }
  - { offsetInCU: 0x12D4F, offset: 0x256D12, size: 0x8, addend: 0x0, symName: '__ZN4core3ptr39drop_in_place$LT$proc_macro2..Ident$GT$17h5e23b415130c092bE', symObjAddr: 0x4B50, symBinAddr: 0x6AA20, symSize: 0x30 }
  - { offsetInCU: 0x12E2D, offset: 0x256DF0, size: 0x8, addend: 0x0, symName: '__ZN4core3ptr39drop_in_place$LT$syn..pat..PatTuple$GT$17hc859e789d4d53192E', symObjAddr: 0x4B80, symBinAddr: 0x6AA50, symSize: 0xE0 }
  - { offsetInCU: 0x130C9, offset: 0x25708C, size: 0x8, addend: 0x0, symName: '__ZN4core3ptr40drop_in_place$LT$syn..ty..ReturnType$GT$17h03f22a8f10ab16f6E', symObjAddr: 0x4C60, symBinAddr: 0x6AB30, symSize: 0x50 }
  - { offsetInCU: 0x13371, offset: 0x257334, size: 0x8, addend: 0x0, symName: '__ZN4core3ptr45drop_in_place$LT$proc_macro2..TokenStream$GT$17hf227e3acf52e90acE', symObjAddr: 0x4CB0, symBinAddr: 0x6AB80, symSize: 0x140 }
  - { offsetInCU: 0x137FF, offset: 0x2577C2, size: 0x8, addend: 0x0, symName: '__ZN4core3ptr47drop_in_place$LT$syn..generics..WhereClause$GT$17h5a7e4a8e8c66edcbE', symObjAddr: 0x4DF0, symBinAddr: 0x6ACC0, symSize: 0xE0 }
  - { offsetInCU: 0x13AF8, offset: 0x257ABB, size: 0x8, addend: 0x0, symName: '__ZN4core3ptr47drop_in_place$LT$syn..path..GenericArgument$GT$17hd47b35aa3c190f98E', symObjAddr: 0x4ED0, symBinAddr: 0x6ADA0, symSize: 0xE0 }
  - { offsetInCU: 0x13E12, offset: 0x257DD5, size: 0x8, addend: 0x0, symName: '__ZN4core3ptr54drop_in_place$LT$core..num..error..TryFromIntError$GT$17hceb93504780cf688E', symObjAddr: 0x4FB0, symBinAddr: 0x6AE80, symSize: 0x10 }
  - { offsetInCU: 0x13E3E, offset: 0x257E01, size: 0x8, addend: 0x0, symName: '__ZN4core3ptr58drop_in_place$LT$alloc..vec..Vec$LT$syn..expr..Arm$GT$$GT$17h290d8e7f2ad556dbE', symObjAddr: 0x4FC0, symBinAddr: 0x6AE90, symSize: 0xD0 }
  - { offsetInCU: 0x140CB, offset: 0x25808E, size: 0x8, addend: 0x0, symName: '__ZN4core3ptr59drop_in_place$LT$alloc..boxed..Box$LT$syn..pat..Pat$GT$$GT$17h01c85953a6d07042E', symObjAddr: 0x5090, symBinAddr: 0x6AF60, symSize: 0x50 }
  - { offsetInCU: 0x14226, offset: 0x2581E9, size: 0x8, addend: 0x0, symName: '__ZN4core3ptr59drop_in_place$LT$alloc..boxed..Box$LT$syn..ty..Type$GT$$GT$17hb45fd9b98f484f5eE', symObjAddr: 0x50E0, symBinAddr: 0x6AFB0, symSize: 0x50 }
  - { offsetInCU: 0x14381, offset: 0x258344, size: 0x8, addend: 0x0, symName: '__ZN4core3ptr61drop_in_place$LT$alloc..boxed..Box$LT$syn..expr..Expr$GT$$GT$17h9ad4fd2327a26218E', symObjAddr: 0x5130, symBinAddr: 0x6B000, symSize: 0x50 }
  - { offsetInCU: 0x14558, offset: 0x25851B, size: 0x8, addend: 0x0, symName: '__ZN4core3ptr61drop_in_place$LT$syn..path..ParenthesizedGenericArguments$GT$17h69cc70aa9b265048E', symObjAddr: 0x5180, symBinAddr: 0x6B050, symSize: 0x170 }
  - { offsetInCU: 0x14B1F, offset: 0x258AE2, size: 0x8, addend: 0x0, symName: '__ZN4core3ptr63drop_in_place$LT$alloc..boxed..Box$LT$syn..lit..LitRepr$GT$$GT$17hfdc6f02c2aeccea8E', symObjAddr: 0x52F0, symBinAddr: 0x6B1C0, symSize: 0x60 }
  - { offsetInCU: 0x14E14, offset: 0x258DD7, size: 0x8, addend: 0x0, symName: '__ZN4core3ptr64drop_in_place$LT$alloc..boxed..Box$LT$syn..pat..FieldPat$GT$$GT$17h438f301abb3992afE', symObjAddr: 0x5350, symBinAddr: 0x6B220, symSize: 0x140 }
  - { offsetInCU: 0x154BF, offset: 0x259482, size: 0x8, addend: 0x0, symName: '__ZN4core3ptr64drop_in_place$LT$alloc..boxed..Box$LT$syn..ty..BareFnArg$GT$$GT$17h534b59785628b455E', symObjAddr: 0x5490, symBinAddr: 0x6B360, symSize: 0x120 }
  - { offsetInCU: 0x159D5, offset: 0x259998, size: 0x8, addend: 0x0, symName: '__ZN4core3ptr65drop_in_place$LT$core..option..Option$LT$syn..expr..Label$GT$$GT$17h55a8a4e1ddce58b3E', symObjAddr: 0x55B0, symBinAddr: 0x6B480, symSize: 0x30 }
  - { offsetInCU: 0x15B10, offset: 0x259AD3, size: 0x8, addend: 0x0, symName: '__ZN4core3ptr66drop_in_place$LT$core..option..Option$LT$syn..ty..Variadic$GT$$GT$17h0501c7cacb50c1bcE', symObjAddr: 0x55E0, symBinAddr: 0x6B4B0, symSize: 0xE0 }
  - { offsetInCU: 0x15D94, offset: 0x259D57, size: 0x8, addend: 0x0, symName: '__ZN4core3ptr67drop_in_place$LT$alloc..boxed..Box$LT$syn..expr..FieldValue$GT$$GT$17h2fb7840700e2cfc4E', symObjAddr: 0x56C0, symBinAddr: 0x6B590, symSize: 0x140 }
  - { offsetInCU: 0x162B7, offset: 0x25A27A, size: 0x8, addend: 0x0, symName: '__ZN4core3ptr68drop_in_place$LT$alloc..boxed..Box$LT$syn..path..PathSegment$GT$$GT$17h0d3dbff6fefb9ff1E', symObjAddr: 0x5800, symBinAddr: 0x6B6D0, symSize: 0x190 }
  - { offsetInCU: 0x169B4, offset: 0x25A977, size: 0x8, addend: 0x0, symName: '__ZN4core3ptr72drop_in_place$LT$alloc..boxed..Box$LT$syn..path..GenericArgument$GT$$GT$17h03345587942f4c51E', symObjAddr: 0x5990, symBinAddr: 0x6B860, symSize: 0x190 }
  - { offsetInCU: 0x170B1, offset: 0x25B074, size: 0x8, addend: 0x0, symName: '__ZN4core3ptr72drop_in_place$LT$core..option..Option$LT$syn..lifetime..Lifetime$GT$$GT$17h740173d7f1029395E', symObjAddr: 0x5B20, symBinAddr: 0x6B9F0, symSize: 0x30 }
  - { offsetInCU: 0x171CD, offset: 0x25B190, size: 0x8, addend: 0x0, symName: '__ZN4core3ptr75drop_in_place$LT$alloc..boxed..Box$LT$syn..generics..TypeParamBound$GT$$GT$17h607f713d7489d138E', symObjAddr: 0x5B50, symBinAddr: 0x6BA20, symSize: 0x170 }
  - { offsetInCU: 0x17816, offset: 0x25B7D9, size: 0x8, addend: 0x0, symName: '__ZN4core3ptr78drop_in_place$LT$alloc..boxed..Box$LT$syn..expr..GenericMethodArgument$GT$$GT$17hcf6efd22daa4cb90E', symObjAddr: 0x5CC0, symBinAddr: 0x6BB90, symSize: 0x60 }
  - { offsetInCU: 0x17A0A, offset: 0x25B9CD, size: 0x8, addend: 0x0, symName: '__ZN4core3ptr78drop_in_place$LT$core..option..Option$LT$syn..generics..BoundLifetimes$GT$$GT$17hfda58d196741a0b6E', symObjAddr: 0x5D20, symBinAddr: 0x6BBF0, symSize: 0x90 }
  - { offsetInCU: 0x17CC0, offset: 0x25BC83, size: 0x8, addend: 0x0, symName: '__ZN4core3ptr86drop_in_place$LT$syn..punctuated..Punctuated$LT$syn..pat..Pat$C$syn..token..Or$GT$$GT$17h26954409c1236a70E', symObjAddr: 0x5DB0, symBinAddr: 0x6BC80, symSize: 0x120 }
  - { offsetInCU: 0x18106, offset: 0x25C0C9, size: 0x8, addend: 0x0, symName: '__ZN4core3ptr87drop_in_place$LT$core..option..Option$LT$alloc..boxed..Box$LT$syn..pat..Pat$GT$$GT$$GT$17h7df459c6cf4ce695E', symObjAddr: 0x5ED0, symBinAddr: 0x6BDA0, symSize: 0x50 }
  - { offsetInCU: 0x18278, offset: 0x25C23B, size: 0x8, addend: 0x0, symName: '__ZN4core3ptr87drop_in_place$LT$core..option..Option$LT$alloc..boxed..Box$LT$syn..ty..Type$GT$$GT$$GT$17h88aedc8974b5e242E', symObjAddr: 0x5F20, symBinAddr: 0x6BDF0, symSize: 0x50 }
  - { offsetInCU: 0x183EA, offset: 0x25C3AD, size: 0x8, addend: 0x0, symName: '__ZN4core3ptr89drop_in_place$LT$core..option..Option$LT$alloc..boxed..Box$LT$syn..expr..Expr$GT$$GT$$GT$17h6fdb7cdd0a3b0ab5E', symObjAddr: 0x5F70, symBinAddr: 0x6BE40, symSize: 0x50 }
  - { offsetInCU: 0x1859A, offset: 0x25C55D, size: 0x8, addend: 0x0, symName: '__ZN4core3ptr89drop_in_place$LT$syn..punctuated..Punctuated$LT$syn..pat..Pat$C$syn..token..Comma$GT$$GT$17hea353bcfa9e7288cE', symObjAddr: 0x5FC0, symBinAddr: 0x6BE90, symSize: 0x120 }
  - { offsetInCU: 0x189F7, offset: 0x25C9BA, size: 0x8, addend: 0x0, symName: '__ZN4core3ptr89drop_in_place$LT$syn..punctuated..Punctuated$LT$syn..ty..Type$C$syn..token..Comma$GT$$GT$17h980beb25d5baeecdE', symObjAddr: 0x60E0, symBinAddr: 0x6BFB0, symSize: 0x120 }
  - { offsetInCU: 0x18E7F, offset: 0x25CE42, size: 0x8, addend: 0x0, symName: '__ZN4core3ptr91drop_in_place$LT$syn..punctuated..Punctuated$LT$syn..expr..Expr$C$syn..token..Comma$GT$$GT$17h0b073aeb5ab62d2fE', symObjAddr: 0x6200, symBinAddr: 0x6C0D0, symSize: 0x120 }
  - { offsetInCU: 0x192DC, offset: 0x25D29F, size: 0x8, addend: 0x0, symName: '__ZN4core3ptr94drop_in_place$LT$syn..punctuated..Punctuated$LT$syn..pat..FieldPat$C$syn..token..Comma$GT$$GT$17hc488d173042d1296E', symObjAddr: 0x6320, symBinAddr: 0x6C1F0, symSize: 0xF0 }
  - { offsetInCU: 0x195A6, offset: 0x25D569, size: 0x8, addend: 0x0, symName: '__ZN4core3ptr94drop_in_place$LT$syn..punctuated..Punctuated$LT$syn..ty..BareFnArg$C$syn..token..Comma$GT$$GT$17hc8ac1c6c80625508E', symObjAddr: 0x6410, symBinAddr: 0x6C2E0, symSize: 0x90 }
  - { offsetInCU: 0x197DC, offset: 0x25D79F, size: 0x8, addend: 0x0, symName: '__ZN4core3ptr96drop_in_place$LT$core..option..Option$LT$alloc..boxed..Box$LT$syn..path..PathSegment$GT$$GT$$GT$17hb63f3e57d4373260E', symObjAddr: 0x64A0, symBinAddr: 0x6C370, symSize: 0x180 }
  - { offsetInCU: 0x19E6D, offset: 0x25DE30, size: 0x8, addend: 0x0, symName: '__ZN4core3ptr97drop_in_place$LT$syn..punctuated..Punctuated$LT$syn..expr..FieldValue$C$syn..token..Comma$GT$$GT$17h0b967144e5f751bcE', symObjAddr: 0x6620, symBinAddr: 0x6C4F0, symSize: 0x90 }
  - { offsetInCU: 0x1A11F, offset: 0x25E0E2, size: 0x8, addend: 0x0, symName: '__ZN4core3ptr97drop_in_place$LT$syn..punctuated..Punctuated$LT$syn..lifetime..Lifetime$C$syn..token..Add$GT$$GT$17h13de0797103c07efE', symObjAddr: 0x66B0, symBinAddr: 0x6C580, symSize: 0xC0 }
  - { offsetInCU: 0x1A597, offset: 0x25E55A, size: 0x8, addend: 0x0, symName: '__ZN4core3ptr99drop_in_place$LT$syn..punctuated..Punctuated$LT$syn..path..PathSegment$C$syn..token..Colon2$GT$$GT$17hacf52ef78e94f7eaE', symObjAddr: 0x6770, symBinAddr: 0x6C640, symSize: 0x270 }
  - { offsetInCU: 0x1D1BF, offset: 0x261182, size: 0x8, addend: 0x0, symName: __ZN21borsh_derive_internal7enum_de7enum_de17h80963bc9a7f942eaE, symObjAddr: 0x6A20, symBinAddr: 0x6C8F0, symSize: 0x2260 }
  - { offsetInCU: 0x1E, offset: 0x26E962, size: 0x8, addend: 0x0, symName: __ZN5alloc7raw_vec11finish_grow17h5018f347e5204af8E.llvm.10223083005324657643, symObjAddr: 0x0, symBinAddr: 0x6EB50, symSize: 0xA0 }
  - { offsetInCU: 0x332D, offset: 0x271C71, size: 0x8, addend: 0x0, symName: __ZN5alloc7raw_vec11finish_grow17h5018f347e5204af8E.llvm.10223083005324657643, symObjAddr: 0x0, symBinAddr: 0x6EB50, symSize: 0xA0 }
  - { offsetInCU: 0x4157, offset: 0x272A9B, size: 0x8, addend: 0x0, symName: '__ZN5alloc7raw_vec19RawVec$LT$T$C$A$GT$7reserve21do_reserve_and_handle17hd4c4e7c0ee38703eE', symObjAddr: 0x370, symBinAddr: 0x228810, symSize: 0xB0 }
  - { offsetInCU: 0x4496, offset: 0x272DDA, size: 0x8, addend: 0x0, symName: '__ZN77_$LT$alloc..raw_vec..RawVec$LT$T$C$A$GT$$u20$as$u20$core..ops..drop..Drop$GT$4drop17h19182e381343ee2aE', symObjAddr: 0x4E0, symBinAddr: 0x6EE40, symSize: 0x0 }
  - { offsetInCU: 0x4593, offset: 0x272ED7, size: 0x8, addend: 0x0, symName: '__ZN77_$LT$alloc..raw_vec..RawVec$LT$T$C$A$GT$$u20$as$u20$core..ops..drop..Drop$GT$4drop17h8bceabb21cd99507E', symObjAddr: 0x720, symBinAddr: 0x6EE70, symSize: 0x30 }
  - { offsetInCU: 0x5C50, offset: 0x274594, size: 0x8, addend: 0x0, symName: '__ZN5alloc7raw_vec19RawVec$LT$T$C$A$GT$16reserve_for_push17h4a4ec7f08204cedbE', symObjAddr: 0x120, symBinAddr: 0x6EBF0, symSize: 0xB0 }
  - { offsetInCU: 0x6107, offset: 0x274A4B, size: 0x8, addend: 0x0, symName: '__ZN5alloc7raw_vec19RawVec$LT$T$C$A$GT$16reserve_for_push17h50229ea76dd09c67E', symObjAddr: 0x1D0, symBinAddr: 0x6ECA0, symSize: 0xD0 }
  - { offsetInCU: 0xB010, offset: 0x279954, size: 0x8, addend: 0x0, symName: '__ZN5alloc7raw_vec19RawVec$LT$T$C$A$GT$16reserve_for_push17ha729d9a51b9ff103E', symObjAddr: 0x2A0, symBinAddr: 0x6ED70, symSize: 0xD0 }
  - { offsetInCU: 0x1E, offset: 0x279E82, size: 0x8, addend: 0x0, symName: '__ZN4core3ptr100drop_in_place$LT$core..option..Option$LT$alloc..boxed..Box$LT$syn..generics..LifetimeDef$GT$$GT$$GT$17h59b147f54f34dccbE', symObjAddr: 0x0, symBinAddr: 0x6EEA0, symSize: 0x140 }
  - { offsetInCU: 0x14A1, offset: 0x27B305, size: 0x8, addend: 0x0, symName: '__ZN4core3ptr100drop_in_place$LT$core..option..Option$LT$alloc..boxed..Box$LT$syn..generics..LifetimeDef$GT$$GT$$GT$17h59b147f54f34dccbE', symObjAddr: 0x0, symBinAddr: 0x6EEA0, symSize: 0x140 }
  - { offsetInCU: 0x1AC8, offset: 0x27B92C, size: 0x8, addend: 0x0, symName: '__ZN4core3ptr100drop_in_place$LT$core..option..Option$LT$alloc..boxed..Box$LT$syn..path..GenericArgument$GT$$GT$$GT$17h38255555b1295bfeE', symObjAddr: 0x140, symBinAddr: 0x6EFE0, symSize: 0x50 }
  - { offsetInCU: 0x1C97, offset: 0x27BAFB, size: 0x8, addend: 0x0, symName: '__ZN4core3ptr103drop_in_place$LT$core..option..Option$LT$alloc..boxed..Box$LT$syn..generics..TypeParamBound$GT$$GT$$GT$17h4cde56daa3a2bdc0E', symObjAddr: 0x190, symBinAddr: 0x6F030, symSize: 0x90 }
  - { offsetInCU: 0x1FD5, offset: 0x27BE39, size: 0x8, addend: 0x0, symName: '__ZN4core3ptr103drop_in_place$LT$core..option..Option$LT$alloc..boxed..Box$LT$syn..generics..WherePredicate$GT$$GT$$GT$17hf87ab70cf41f50c9E', symObjAddr: 0x220, symBinAddr: 0x6F0C0, symSize: 0x100 }
  - { offsetInCU: 0x2381, offset: 0x27C1E5, size: 0x8, addend: 0x0, symName: '__ZN4core3ptr103drop_in_place$LT$syn..punctuated..Punctuated$LT$syn..generics..TypeParamBound$C$syn..token..Add$GT$$GT$17he87db64984b51318E', symObjAddr: 0x320, symBinAddr: 0x6F1C0, symSize: 0x220 }
  - { offsetInCU: 0x2D20, offset: 0x27CB84, size: 0x8, addend: 0x0, symName: '__ZN4core3ptr108drop_in_place$LT$syn..punctuated..Punctuated$LT$syn..expr..GenericMethodArgument$C$syn..token..Comma$GT$$GT$17h5b9ce8018b09f0e5E', symObjAddr: 0x540, symBinAddr: 0x6F3E0, symSize: 0x160 }
  - { offsetInCU: 0x3235, offset: 0x27D099, size: 0x8, addend: 0x0, symName: '__ZN4core3ptr34drop_in_place$LT$syn..lit..Lit$GT$17h1ab3234e104c44f2E', symObjAddr: 0x6A0, symBinAddr: 0x6F540, symSize: 0x110 }
  - { offsetInCU: 0x3712, offset: 0x27D576, size: 0x8, addend: 0x0, symName: '__ZN4core3ptr34drop_in_place$LT$syn..pat..Pat$GT$17hd2daf6c9b558c302E', symObjAddr: 0x7B0, symBinAddr: 0x6F650, symSize: 0x1020 }
  - { offsetInCU: 0x7238, offset: 0x28109C, size: 0x8, addend: 0x0, symName: '__ZN4core3ptr34drop_in_place$LT$syn..ty..Type$GT$17h2525d6f390be5184E', symObjAddr: 0x17D0, symBinAddr: 0x70670, symSize: 0x520 }
  - { offsetInCU: 0x8B16, offset: 0x28297A, size: 0x8, addend: 0x0, symName: '__ZN4core3ptr36drop_in_place$LT$syn..expr..Expr$GT$17h2c405aa56ef59458E', symObjAddr: 0x1CF0, symBinAddr: 0x70B90, symSize: 0x2A50 }
  - { offsetInCU: 0x1245F, offset: 0x28C2C3, size: 0x8, addend: 0x0, symName: '__ZN4core3ptr36drop_in_place$LT$syn..mac..Macro$GT$17ha3f7407d832a54f3E', symObjAddr: 0x4740, symBinAddr: 0x735E0, symSize: 0x40 }
  - { offsetInCU: 0x125B0, offset: 0x28C414, size: 0x8, addend: 0x0, symName: '__ZN4core3ptr36drop_in_place$LT$syn..path..Path$GT$17hdd1a20818512b8e8E', symObjAddr: 0x4780, symBinAddr: 0x73620, symSize: 0x250 }
  - { offsetInCU: 0x12FF9, offset: 0x28CE5D, size: 0x8, addend: 0x0, symName: '__ZN4core3ptr37drop_in_place$LT$syn..stmt..Block$GT$17h116674a61262fbf3E', symObjAddr: 0x49D0, symBinAddr: 0x73870, symSize: 0xD0 }
  - { offsetInCU: 0x132DB, offset: 0x28D13F, size: 0x8, addend: 0x0, symName: '__ZN4core3ptr38drop_in_place$LT$syn..error..Error$GT$17hcbb5a77cc5079ab6E', symObjAddr: 0x4AA0, symBinAddr: 0x73940, symSize: 0x70 }
  - { offsetInCU: 0x135AC, offset: 0x28D410, size: 0x8, addend: 0x0, symName: '__ZN4core3ptr38drop_in_place$LT$syn..expr..Member$GT$17hcc0800d87a1b5a7bE', symObjAddr: 0x4B10, symBinAddr: 0x739B0, symSize: 0x30 }
  - { offsetInCU: 0x136A9, offset: 0x28D50D, size: 0x8, addend: 0x0, symName: '__ZN4core3ptr39drop_in_place$LT$proc_macro2..Ident$GT$17h5e23b415130c092bE', symObjAddr: 0x4B40, symBinAddr: 0x739E0, symSize: 0x30 }
  - { offsetInCU: 0x13787, offset: 0x28D5EB, size: 0x8, addend: 0x0, symName: '__ZN4core3ptr39drop_in_place$LT$syn..pat..PatTuple$GT$17hc859e789d4d53192E', symObjAddr: 0x4B70, symBinAddr: 0x73A10, symSize: 0xE0 }
  - { offsetInCU: 0x13A23, offset: 0x28D887, size: 0x8, addend: 0x0, symName: '__ZN4core3ptr40drop_in_place$LT$syn..ty..ReturnType$GT$17h03f22a8f10ab16f6E', symObjAddr: 0x4C50, symBinAddr: 0x73AF0, symSize: 0x50 }
  - { offsetInCU: 0x13CCB, offset: 0x28DB2F, size: 0x8, addend: 0x0, symName: '__ZN4core3ptr45drop_in_place$LT$proc_macro2..TokenStream$GT$17hf227e3acf52e90acE', symObjAddr: 0x4CA0, symBinAddr: 0x73B40, symSize: 0x140 }
  - { offsetInCU: 0x14159, offset: 0x28DFBD, size: 0x8, addend: 0x0, symName: '__ZN4core3ptr47drop_in_place$LT$syn..generics..WhereClause$GT$17h5a7e4a8e8c66edcbE', symObjAddr: 0x4DE0, symBinAddr: 0x73C80, symSize: 0xE0 }
  - { offsetInCU: 0x14452, offset: 0x28E2B6, size: 0x8, addend: 0x0, symName: '__ZN4core3ptr47drop_in_place$LT$syn..path..GenericArgument$GT$17hd47b35aa3c190f98E', symObjAddr: 0x4EC0, symBinAddr: 0x73D60, symSize: 0xE0 }
  - { offsetInCU: 0x1476C, offset: 0x28E5D0, size: 0x8, addend: 0x0, symName: '__ZN4core3ptr58drop_in_place$LT$alloc..vec..Vec$LT$syn..expr..Arm$GT$$GT$17h290d8e7f2ad556dbE', symObjAddr: 0x4FA0, symBinAddr: 0x73E40, symSize: 0xD0 }
  - { offsetInCU: 0x149F9, offset: 0x28E85D, size: 0x8, addend: 0x0, symName: '__ZN4core3ptr59drop_in_place$LT$alloc..boxed..Box$LT$syn..pat..Pat$GT$$GT$17h01c85953a6d07042E', symObjAddr: 0x5070, symBinAddr: 0x73F10, symSize: 0x50 }
  - { offsetInCU: 0x14B54, offset: 0x28E9B8, size: 0x8, addend: 0x0, symName: '__ZN4core3ptr59drop_in_place$LT$alloc..boxed..Box$LT$syn..ty..Type$GT$$GT$17hb45fd9b98f484f5eE', symObjAddr: 0x50C0, symBinAddr: 0x73F60, symSize: 0x50 }
  - { offsetInCU: 0x14CAF, offset: 0x28EB13, size: 0x8, addend: 0x0, symName: '__ZN4core3ptr61drop_in_place$LT$alloc..boxed..Box$LT$syn..expr..Expr$GT$$GT$17h9ad4fd2327a26218E', symObjAddr: 0x5110, symBinAddr: 0x73FB0, symSize: 0x50 }
  - { offsetInCU: 0x14E86, offset: 0x28ECEA, size: 0x8, addend: 0x0, symName: '__ZN4core3ptr61drop_in_place$LT$syn..path..ParenthesizedGenericArguments$GT$17h69cc70aa9b265048E', symObjAddr: 0x5160, symBinAddr: 0x74000, symSize: 0x170 }
  - { offsetInCU: 0x1544D, offset: 0x28F2B1, size: 0x8, addend: 0x0, symName: '__ZN4core3ptr63drop_in_place$LT$alloc..boxed..Box$LT$syn..lit..LitRepr$GT$$GT$17hfdc6f02c2aeccea8E', symObjAddr: 0x52D0, symBinAddr: 0x74170, symSize: 0x60 }
  - { offsetInCU: 0x15742, offset: 0x28F5A6, size: 0x8, addend: 0x0, symName: '__ZN4core3ptr64drop_in_place$LT$alloc..boxed..Box$LT$syn..pat..FieldPat$GT$$GT$17h438f301abb3992afE', symObjAddr: 0x5330, symBinAddr: 0x741D0, symSize: 0x140 }
  - { offsetInCU: 0x15DED, offset: 0x28FC51, size: 0x8, addend: 0x0, symName: '__ZN4core3ptr64drop_in_place$LT$alloc..boxed..Box$LT$syn..ty..BareFnArg$GT$$GT$17h534b59785628b455E', symObjAddr: 0x5470, symBinAddr: 0x74310, symSize: 0x120 }
  - { offsetInCU: 0x16303, offset: 0x290167, size: 0x8, addend: 0x0, symName: '__ZN4core3ptr65drop_in_place$LT$core..option..Option$LT$syn..expr..Label$GT$$GT$17h55a8a4e1ddce58b3E', symObjAddr: 0x5590, symBinAddr: 0x74430, symSize: 0x30 }
  - { offsetInCU: 0x1643E, offset: 0x2902A2, size: 0x8, addend: 0x0, symName: '__ZN4core3ptr66drop_in_place$LT$core..option..Option$LT$syn..ty..Variadic$GT$$GT$17h0501c7cacb50c1bcE', symObjAddr: 0x55C0, symBinAddr: 0x74460, symSize: 0xE0 }
  - { offsetInCU: 0x166C2, offset: 0x290526, size: 0x8, addend: 0x0, symName: '__ZN4core3ptr67drop_in_place$LT$alloc..boxed..Box$LT$syn..expr..FieldValue$GT$$GT$17h2fb7840700e2cfc4E', symObjAddr: 0x56A0, symBinAddr: 0x74540, symSize: 0x140 }
  - { offsetInCU: 0x16BE5, offset: 0x290A49, size: 0x8, addend: 0x0, symName: '__ZN4core3ptr68drop_in_place$LT$alloc..boxed..Box$LT$syn..path..PathSegment$GT$$GT$17h0d3dbff6fefb9ff1E', symObjAddr: 0x57E0, symBinAddr: 0x74680, symSize: 0x190 }
  - { offsetInCU: 0x172E2, offset: 0x291146, size: 0x8, addend: 0x0, symName: '__ZN4core3ptr72drop_in_place$LT$alloc..boxed..Box$LT$syn..path..GenericArgument$GT$$GT$17h03345587942f4c51E', symObjAddr: 0x5970, symBinAddr: 0x74810, symSize: 0x190 }
  - { offsetInCU: 0x179DF, offset: 0x291843, size: 0x8, addend: 0x0, symName: '__ZN4core3ptr72drop_in_place$LT$core..option..Option$LT$syn..lifetime..Lifetime$GT$$GT$17h740173d7f1029395E', symObjAddr: 0x5B00, symBinAddr: 0x749A0, symSize: 0x30 }
  - { offsetInCU: 0x17AFB, offset: 0x29195F, size: 0x8, addend: 0x0, symName: '__ZN4core3ptr75drop_in_place$LT$alloc..boxed..Box$LT$syn..generics..TypeParamBound$GT$$GT$17h607f713d7489d138E', symObjAddr: 0x5B30, symBinAddr: 0x749D0, symSize: 0x170 }
  - { offsetInCU: 0x18144, offset: 0x291FA8, size: 0x8, addend: 0x0, symName: '__ZN4core3ptr78drop_in_place$LT$alloc..boxed..Box$LT$syn..expr..GenericMethodArgument$GT$$GT$17hcf6efd22daa4cb90E', symObjAddr: 0x5CA0, symBinAddr: 0x74B40, symSize: 0x60 }
  - { offsetInCU: 0x18338, offset: 0x29219C, size: 0x8, addend: 0x0, symName: '__ZN4core3ptr78drop_in_place$LT$core..option..Option$LT$syn..generics..BoundLifetimes$GT$$GT$17hfda58d196741a0b6E', symObjAddr: 0x5D00, symBinAddr: 0x74BA0, symSize: 0x90 }
  - { offsetInCU: 0x185EE, offset: 0x292452, size: 0x8, addend: 0x0, symName: '__ZN4core3ptr86drop_in_place$LT$syn..punctuated..Punctuated$LT$syn..pat..Pat$C$syn..token..Or$GT$$GT$17h26954409c1236a70E', symObjAddr: 0x5D90, symBinAddr: 0x74C30, symSize: 0x120 }
  - { offsetInCU: 0x18A34, offset: 0x292898, size: 0x8, addend: 0x0, symName: '__ZN4core3ptr87drop_in_place$LT$core..option..Option$LT$alloc..boxed..Box$LT$syn..pat..Pat$GT$$GT$$GT$17h7df459c6cf4ce695E', symObjAddr: 0x5EB0, symBinAddr: 0x74D50, symSize: 0x50 }
  - { offsetInCU: 0x18BA6, offset: 0x292A0A, size: 0x8, addend: 0x0, symName: '__ZN4core3ptr87drop_in_place$LT$core..option..Option$LT$alloc..boxed..Box$LT$syn..ty..Type$GT$$GT$$GT$17h88aedc8974b5e242E', symObjAddr: 0x5F00, symBinAddr: 0x74DA0, symSize: 0x50 }
  - { offsetInCU: 0x18D18, offset: 0x292B7C, size: 0x8, addend: 0x0, symName: '__ZN4core3ptr89drop_in_place$LT$core..option..Option$LT$alloc..boxed..Box$LT$syn..expr..Expr$GT$$GT$$GT$17h6fdb7cdd0a3b0ab5E', symObjAddr: 0x5F50, symBinAddr: 0x74DF0, symSize: 0x50 }
  - { offsetInCU: 0x18EC8, offset: 0x292D2C, size: 0x8, addend: 0x0, symName: '__ZN4core3ptr89drop_in_place$LT$syn..punctuated..Punctuated$LT$syn..pat..Pat$C$syn..token..Comma$GT$$GT$17hea353bcfa9e7288cE', symObjAddr: 0x5FA0, symBinAddr: 0x74E40, symSize: 0x120 }
  - { offsetInCU: 0x19325, offset: 0x293189, size: 0x8, addend: 0x0, symName: '__ZN4core3ptr89drop_in_place$LT$syn..punctuated..Punctuated$LT$syn..ty..Type$C$syn..token..Comma$GT$$GT$17h980beb25d5baeecdE', symObjAddr: 0x60C0, symBinAddr: 0x74F60, symSize: 0x120 }
  - { offsetInCU: 0x197AD, offset: 0x293611, size: 0x8, addend: 0x0, symName: '__ZN4core3ptr91drop_in_place$LT$syn..punctuated..Punctuated$LT$syn..expr..Expr$C$syn..token..Comma$GT$$GT$17h0b073aeb5ab62d2fE', symObjAddr: 0x61E0, symBinAddr: 0x75080, symSize: 0x120 }
  - { offsetInCU: 0x19C0A, offset: 0x293A6E, size: 0x8, addend: 0x0, symName: '__ZN4core3ptr94drop_in_place$LT$syn..punctuated..Punctuated$LT$syn..pat..FieldPat$C$syn..token..Comma$GT$$GT$17hc488d173042d1296E', symObjAddr: 0x6300, symBinAddr: 0x751A0, symSize: 0xF0 }
  - { offsetInCU: 0x19ED4, offset: 0x293D38, size: 0x8, addend: 0x0, symName: '__ZN4core3ptr94drop_in_place$LT$syn..punctuated..Punctuated$LT$syn..ty..BareFnArg$C$syn..token..Comma$GT$$GT$17hc8ac1c6c80625508E', symObjAddr: 0x63F0, symBinAddr: 0x75290, symSize: 0x90 }
  - { offsetInCU: 0x1A10A, offset: 0x293F6E, size: 0x8, addend: 0x0, symName: '__ZN4core3ptr96drop_in_place$LT$core..option..Option$LT$alloc..boxed..Box$LT$syn..path..PathSegment$GT$$GT$$GT$17hb63f3e57d4373260E', symObjAddr: 0x6480, symBinAddr: 0x75320, symSize: 0x180 }
  - { offsetInCU: 0x1A79B, offset: 0x2945FF, size: 0x8, addend: 0x0, symName: '__ZN4core3ptr97drop_in_place$LT$syn..punctuated..Punctuated$LT$syn..expr..FieldValue$C$syn..token..Comma$GT$$GT$17h0b967144e5f751bcE', symObjAddr: 0x6600, symBinAddr: 0x754A0, symSize: 0x90 }
  - { offsetInCU: 0x1AA4D, offset: 0x2948B1, size: 0x8, addend: 0x0, symName: '__ZN4core3ptr97drop_in_place$LT$syn..punctuated..Punctuated$LT$syn..lifetime..Lifetime$C$syn..token..Add$GT$$GT$17h13de0797103c07efE', symObjAddr: 0x6690, symBinAddr: 0x75530, symSize: 0xC0 }
  - { offsetInCU: 0x1AEC5, offset: 0x294D29, size: 0x8, addend: 0x0, symName: '__ZN4core3ptr99drop_in_place$LT$syn..punctuated..Punctuated$LT$syn..path..PathSegment$C$syn..token..Colon2$GT$$GT$17hacf52ef78e94f7eaE', symObjAddr: 0x6750, symBinAddr: 0x755F0, symSize: 0x270 }
  - { offsetInCU: 0x1CC5F, offset: 0x296AC3, size: 0x8, addend: 0x0, symName: __ZN21borsh_derive_internal9struct_de9struct_de17h0e99a2bde4697efdE, symObjAddr: 0x69C0, symBinAddr: 0x75860, symSize: 0x17FA }
  - { offsetInCU: 0x1E, offset: 0x2A3269, size: 0x8, addend: 0x0, symName: '__ZN4core3ptr100drop_in_place$LT$core..option..Option$LT$alloc..boxed..Box$LT$syn..generics..LifetimeDef$GT$$GT$$GT$17h59b147f54f34dccbE', symObjAddr: 0x0, symBinAddr: 0x77060, symSize: 0x140 }
  - { offsetInCU: 0x99, offset: 0x2A32E4, size: 0x8, addend: 0x0, symName: '__ZN58_$LT$alloc..string..String$u20$as$u20$core..fmt..Write$GT$10write_char17hd329c0cb943f081aE', symObjAddr: 0x62A0, symBinAddr: 0x7D300, symSize: 0x130 }
  - { offsetInCU: 0x441, offset: 0x2A368C, size: 0x8, addend: 0x0, symName: '__ZN58_$LT$alloc..string..String$u20$as$u20$core..fmt..Write$GT$9write_str17h1ff5aa96ca91c6d5E', symObjAddr: 0x63D0, symBinAddr: 0x7D430, symSize: 0x60 }
  - { offsetInCU: 0x1826, offset: 0x2A4A71, size: 0x8, addend: 0x0, symName: '__ZN4core3ptr100drop_in_place$LT$core..option..Option$LT$alloc..boxed..Box$LT$syn..generics..LifetimeDef$GT$$GT$$GT$17h59b147f54f34dccbE', symObjAddr: 0x0, symBinAddr: 0x77060, symSize: 0x140 }
  - { offsetInCU: 0x1E4D, offset: 0x2A5098, size: 0x8, addend: 0x0, symName: '__ZN4core3ptr100drop_in_place$LT$core..option..Option$LT$alloc..boxed..Box$LT$syn..path..GenericArgument$GT$$GT$$GT$17h38255555b1295bfeE', symObjAddr: 0x140, symBinAddr: 0x771A0, symSize: 0x50 }
  - { offsetInCU: 0x20F5, offset: 0x2A5340, size: 0x8, addend: 0x0, symName: '__ZN4core3ptr103drop_in_place$LT$syn..punctuated..Punctuated$LT$syn..generics..TypeParamBound$C$syn..token..Add$GT$$GT$17he87db64984b51318E', symObjAddr: 0x190, symBinAddr: 0x771F0, symSize: 0x220 }
  - { offsetInCU: 0x2AA7, offset: 0x2A5CF2, size: 0x8, addend: 0x0, symName: '__ZN4core3ptr108drop_in_place$LT$syn..punctuated..Punctuated$LT$syn..expr..GenericMethodArgument$C$syn..token..Comma$GT$$GT$17h5b9ce8018b09f0e5E', symObjAddr: 0x3B0, symBinAddr: 0x77410, symSize: 0x160 }
  - { offsetInCU: 0x2FBC, offset: 0x2A6207, size: 0x8, addend: 0x0, symName: '__ZN4core3ptr34drop_in_place$LT$syn..lit..Lit$GT$17h1ab3234e104c44f2E', symObjAddr: 0x510, symBinAddr: 0x77570, symSize: 0x110 }
  - { offsetInCU: 0x3499, offset: 0x2A66E4, size: 0x8, addend: 0x0, symName: '__ZN4core3ptr34drop_in_place$LT$syn..pat..Pat$GT$17hd2daf6c9b558c302E', symObjAddr: 0x620, symBinAddr: 0x77680, symSize: 0xEC0 }
  - { offsetInCU: 0x68A4, offset: 0x2A9AEF, size: 0x8, addend: 0x0, symName: '__ZN4core3ptr34drop_in_place$LT$syn..ty..Type$GT$17h2525d6f390be5184E', symObjAddr: 0x14E0, symBinAddr: 0x78540, symSize: 0x5C0 }
  - { offsetInCU: 0x7DB8, offset: 0x2AB003, size: 0x8, addend: 0x0, symName: '__ZN4core3ptr36drop_in_place$LT$syn..attr..Meta$GT$17h46f6d690cceb645cE', symObjAddr: 0x1AA0, symBinAddr: 0x78B00, symSize: 0x80 }
  - { offsetInCU: 0x84DC, offset: 0x2AB727, size: 0x8, addend: 0x0, symName: '__ZN4core3ptr36drop_in_place$LT$syn..expr..Expr$GT$17h2c405aa56ef59458E', symObjAddr: 0x1B20, symBinAddr: 0x78B80, symSize: 0x29C0 }
  - { offsetInCU: 0x11A4B, offset: 0x2B4C96, size: 0x8, addend: 0x0, symName: '__ZN4core3ptr36drop_in_place$LT$syn..mac..Macro$GT$17ha3f7407d832a54f3E', symObjAddr: 0x44E0, symBinAddr: 0x7B540, symSize: 0x110 }
  - { offsetInCU: 0x11F4C, offset: 0x2B5197, size: 0x8, addend: 0x0, symName: '__ZN4core3ptr36drop_in_place$LT$syn..path..Path$GT$17hdd1a20818512b8e8E', symObjAddr: 0x45F0, symBinAddr: 0x7B650, symSize: 0x250 }
  - { offsetInCU: 0x12995, offset: 0x2B5BE0, size: 0x8, addend: 0x0, symName: '__ZN4core3ptr37drop_in_place$LT$core..fmt..Error$GT$17h692a968d364a9cbaE', symObjAddr: 0x4840, symBinAddr: 0x7B8A0, symSize: 0x10 }
  - { offsetInCU: 0x129C1, offset: 0x2B5C0C, size: 0x8, addend: 0x0, symName: '__ZN4core3ptr37drop_in_place$LT$syn..stmt..Block$GT$17h116674a61262fbf3E', symObjAddr: 0x4850, symBinAddr: 0x7B8B0, symSize: 0xD0 }
  - { offsetInCU: 0x12C65, offset: 0x2B5EB0, size: 0x8, addend: 0x0, symName: '__ZN4core3ptr38drop_in_place$LT$syn..expr..Member$GT$17hcc0800d87a1b5a7bE', symObjAddr: 0x4920, symBinAddr: 0x7B980, symSize: 0x30 }
  - { offsetInCU: 0x12D62, offset: 0x2B5FAD, size: 0x8, addend: 0x0, symName: '__ZN4core3ptr39drop_in_place$LT$proc_macro2..Ident$GT$17h5e23b415130c092bE', symObjAddr: 0x4950, symBinAddr: 0x7B9B0, symSize: 0x30 }
  - { offsetInCU: 0x12E40, offset: 0x2B608B, size: 0x8, addend: 0x0, symName: '__ZN4core3ptr39drop_in_place$LT$syn..pat..PatTuple$GT$17hc859e789d4d53192E', symObjAddr: 0x4980, symBinAddr: 0x7B9E0, symSize: 0xE0 }
  - { offsetInCU: 0x130DC, offset: 0x2B6327, size: 0x8, addend: 0x0, symName: '__ZN4core3ptr40drop_in_place$LT$syn..attr..MetaList$GT$17h3c4eaaad760a7e01E', symObjAddr: 0x4A60, symBinAddr: 0x7BAC0, symSize: 0x40 }
  - { offsetInCU: 0x130F9, offset: 0x2B6344, size: 0x8, addend: 0x0, symName: '__ZN4core3ptr40drop_in_place$LT$syn..ty..ReturnType$GT$17h03f22a8f10ab16f6E', symObjAddr: 0x4AA0, symBinAddr: 0x7BB00, symSize: 0x50 }
  - { offsetInCU: 0x1326B, offset: 0x2B64B6, size: 0x8, addend: 0x0, symName: '__ZN4core3ptr42drop_in_place$LT$alloc..string..String$GT$17h70623b3eb28c5735E', symObjAddr: 0x4AF0, symBinAddr: 0x7BB50, symSize: 0x20 }
  - { offsetInCU: 0x134AA, offset: 0x2B66F5, size: 0x8, addend: 0x0, symName: '__ZN4core3ptr45drop_in_place$LT$proc_macro2..TokenStream$GT$17hf227e3acf52e90acE', symObjAddr: 0x4B10, symBinAddr: 0x7BB70, symSize: 0x140 }
  - { offsetInCU: 0x13919, offset: 0x2B6B64, size: 0x8, addend: 0x0, symName: '__ZN4core3ptr47drop_in_place$LT$syn..path..GenericArgument$GT$17hd47b35aa3c190f98E', symObjAddr: 0x4C50, symBinAddr: 0x7BCB0, symSize: 0xE0 }
  - { offsetInCU: 0x13C46, offset: 0x2B6E91, size: 0x8, addend: 0x0, symName: '__ZN4core3ptr58drop_in_place$LT$alloc..vec..Vec$LT$syn..expr..Arm$GT$$GT$17h290d8e7f2ad556dbE', symObjAddr: 0x4D30, symBinAddr: 0x7BD90, symSize: 0xD0 }
  - { offsetInCU: 0x13ED3, offset: 0x2B711E, size: 0x8, addend: 0x0, symName: '__ZN4core3ptr59drop_in_place$LT$alloc..boxed..Box$LT$syn..pat..Pat$GT$$GT$17h01c85953a6d07042E', symObjAddr: 0x4E00, symBinAddr: 0x7BE60, symSize: 0x50 }
  - { offsetInCU: 0x1402E, offset: 0x2B7279, size: 0x8, addend: 0x0, symName: '__ZN4core3ptr59drop_in_place$LT$alloc..boxed..Box$LT$syn..ty..Type$GT$$GT$17hb45fd9b98f484f5eE', symObjAddr: 0x4E50, symBinAddr: 0x7BEB0, symSize: 0x50 }
  - { offsetInCU: 0x14189, offset: 0x2B73D4, size: 0x8, addend: 0x0, symName: '__ZN4core3ptr61drop_in_place$LT$alloc..boxed..Box$LT$syn..expr..Expr$GT$$GT$17h9ad4fd2327a26218E', symObjAddr: 0x4EA0, symBinAddr: 0x7BF00, symSize: 0x50 }
  - { offsetInCU: 0x142E4, offset: 0x2B752F, size: 0x8, addend: 0x0, symName: '__ZN4core3ptr61drop_in_place$LT$syn..path..ParenthesizedGenericArguments$GT$17h69cc70aa9b265048E', symObjAddr: 0x4EF0, symBinAddr: 0x7BF50, symSize: 0x170 }
  - { offsetInCU: 0x148BE, offset: 0x2B7B09, size: 0x8, addend: 0x0, symName: '__ZN4core3ptr63drop_in_place$LT$alloc..boxed..Box$LT$syn..lit..LitRepr$GT$$GT$17hfdc6f02c2aeccea8E', symObjAddr: 0x5060, symBinAddr: 0x7C0C0, symSize: 0x60 }
  - { offsetInCU: 0x14BB3, offset: 0x2B7DFE, size: 0x8, addend: 0x0, symName: '__ZN4core3ptr64drop_in_place$LT$alloc..boxed..Box$LT$syn..pat..FieldPat$GT$$GT$17h438f301abb3992afE', symObjAddr: 0x50C0, symBinAddr: 0x7C120, symSize: 0x140 }
  - { offsetInCU: 0x1525E, offset: 0x2B84A9, size: 0x8, addend: 0x0, symName: '__ZN4core3ptr64drop_in_place$LT$alloc..boxed..Box$LT$syn..ty..BareFnArg$GT$$GT$17h534b59785628b455E', symObjAddr: 0x5200, symBinAddr: 0x7C260, symSize: 0x120 }
  - { offsetInCU: 0x15774, offset: 0x2B89BF, size: 0x8, addend: 0x0, symName: '__ZN4core3ptr65drop_in_place$LT$core..option..Option$LT$syn..expr..Label$GT$$GT$17h55a8a4e1ddce58b3E', symObjAddr: 0x5320, symBinAddr: 0x7C380, symSize: 0x30 }
  - { offsetInCU: 0x158AF, offset: 0x2B8AFA, size: 0x8, addend: 0x0, symName: '__ZN4core3ptr66drop_in_place$LT$core..option..Option$LT$syn..ty..Variadic$GT$$GT$17h0501c7cacb50c1bcE', symObjAddr: 0x5350, symBinAddr: 0x7C3B0, symSize: 0xE0 }
  - { offsetInCU: 0x15B33, offset: 0x2B8D7E, size: 0x8, addend: 0x0, symName: '__ZN4core3ptr67drop_in_place$LT$alloc..boxed..Box$LT$syn..attr..NestedMeta$GT$$GT$17h4dea060b27b151f0E', symObjAddr: 0x5430, symBinAddr: 0x7C490, symSize: 0x60 }
  - { offsetInCU: 0x15CCA, offset: 0x2B8F15, size: 0x8, addend: 0x0, symName: '__ZN4core3ptr67drop_in_place$LT$alloc..boxed..Box$LT$syn..expr..FieldValue$GT$$GT$17h2fb7840700e2cfc4E', symObjAddr: 0x5490, symBinAddr: 0x7C4F0, symSize: 0x140 }
  - { offsetInCU: 0x161ED, offset: 0x2B9438, size: 0x8, addend: 0x0, symName: '__ZN4core3ptr71drop_in_place$LT$syn..punctuated..Iter$LT$syn..attr..NestedMeta$GT$$GT$17h06834775ddaae707E', symObjAddr: 0x55D0, symBinAddr: 0x7C630, symSize: 0x30 }
  - { offsetInCU: 0x16313, offset: 0x2B955E, size: 0x8, addend: 0x0, symName: '__ZN4core3ptr72drop_in_place$LT$core..option..Option$LT$syn..lifetime..Lifetime$GT$$GT$17h740173d7f1029395E', symObjAddr: 0x5600, symBinAddr: 0x7C660, symSize: 0x30 }
  - { offsetInCU: 0x1642F, offset: 0x2B967A, size: 0x8, addend: 0x0, symName: '__ZN4core3ptr75drop_in_place$LT$alloc..boxed..Box$LT$syn..generics..TypeParamBound$GT$$GT$17h607f713d7489d138E', symObjAddr: 0x5630, symBinAddr: 0x7C690, symSize: 0x170 }
  - { offsetInCU: 0x16A78, offset: 0x2B9CC3, size: 0x8, addend: 0x0, symName: '__ZN4core3ptr78drop_in_place$LT$alloc..boxed..Box$LT$syn..expr..GenericMethodArgument$GT$$GT$17hcf6efd22daa4cb90E', symObjAddr: 0x57A0, symBinAddr: 0x7C800, symSize: 0x60 }
  - { offsetInCU: 0x16C6C, offset: 0x2B9EB7, size: 0x8, addend: 0x0, symName: '__ZN4core3ptr78drop_in_place$LT$core..option..Option$LT$syn..generics..BoundLifetimes$GT$$GT$17hfda58d196741a0b6E', symObjAddr: 0x5800, symBinAddr: 0x7C860, symSize: 0x90 }
  - { offsetInCU: 0x16F22, offset: 0x2BA16D, size: 0x8, addend: 0x0, symName: '__ZN4core3ptr86drop_in_place$LT$syn..punctuated..Punctuated$LT$syn..pat..Pat$C$syn..token..Or$GT$$GT$17h26954409c1236a70E', symObjAddr: 0x5890, symBinAddr: 0x7C8F0, symSize: 0x120 }
  - { offsetInCU: 0x17368, offset: 0x2BA5B3, size: 0x8, addend: 0x0, symName: '__ZN4core3ptr87drop_in_place$LT$core..option..Option$LT$alloc..boxed..Box$LT$syn..pat..Pat$GT$$GT$$GT$17h7df459c6cf4ce695E', symObjAddr: 0x59B0, symBinAddr: 0x7CA10, symSize: 0x50 }
  - { offsetInCU: 0x174DA, offset: 0x2BA725, size: 0x8, addend: 0x0, symName: '__ZN4core3ptr87drop_in_place$LT$core..option..Option$LT$alloc..boxed..Box$LT$syn..ty..Type$GT$$GT$$GT$17h88aedc8974b5e242E', symObjAddr: 0x5A00, symBinAddr: 0x7CA60, symSize: 0x50 }
  - { offsetInCU: 0x1764C, offset: 0x2BA897, size: 0x8, addend: 0x0, symName: '__ZN4core3ptr89drop_in_place$LT$core..option..Option$LT$alloc..boxed..Box$LT$syn..expr..Expr$GT$$GT$$GT$17h6fdb7cdd0a3b0ab5E', symObjAddr: 0x5A50, symBinAddr: 0x7CAB0, symSize: 0x50 }
  - { offsetInCU: 0x177FC, offset: 0x2BAA47, size: 0x8, addend: 0x0, symName: '__ZN4core3ptr89drop_in_place$LT$syn..punctuated..Punctuated$LT$syn..pat..Pat$C$syn..token..Comma$GT$$GT$17hea353bcfa9e7288cE', symObjAddr: 0x5AA0, symBinAddr: 0x7CB00, symSize: 0x120 }
  - { offsetInCU: 0x17C97, offset: 0x2BAEE2, size: 0x8, addend: 0x0, symName: '__ZN4core3ptr91drop_in_place$LT$syn..punctuated..Punctuated$LT$syn..expr..Expr$C$syn..token..Comma$GT$$GT$17h0b073aeb5ab62d2fE', symObjAddr: 0x5BC0, symBinAddr: 0x7CC20, symSize: 0x120 }
  - { offsetInCU: 0x180F4, offset: 0x2BB33F, size: 0x8, addend: 0x0, symName: '__ZN4core3ptr94drop_in_place$LT$syn..punctuated..Punctuated$LT$syn..pat..FieldPat$C$syn..token..Comma$GT$$GT$17hc488d173042d1296E', symObjAddr: 0x5CE0, symBinAddr: 0x7CD40, symSize: 0xF0 }
  - { offsetInCU: 0x183BE, offset: 0x2BB609, size: 0x8, addend: 0x0, symName: '__ZN4core3ptr94drop_in_place$LT$syn..punctuated..Punctuated$LT$syn..ty..BareFnArg$C$syn..token..Comma$GT$$GT$17hc8ac1c6c80625508E', symObjAddr: 0x5DD0, symBinAddr: 0x7CE30, symSize: 0x90 }
  - { offsetInCU: 0x185F4, offset: 0x2BB83F, size: 0x8, addend: 0x0, symName: '__ZN4core3ptr96drop_in_place$LT$core..option..Option$LT$alloc..boxed..Box$LT$syn..path..PathSegment$GT$$GT$$GT$17hb63f3e57d4373260E', symObjAddr: 0x5E60, symBinAddr: 0x7CEC0, symSize: 0x180 }
  - { offsetInCU: 0x18D01, offset: 0x2BBF4C, size: 0x8, addend: 0x0, symName: '__ZN4core3ptr97drop_in_place$LT$syn..punctuated..Punctuated$LT$syn..attr..NestedMeta$C$syn..token..Comma$GT$$GT$17hd5a6f22db7167123E', symObjAddr: 0x5FE0, symBinAddr: 0x7D040, symSize: 0x150 }
  - { offsetInCU: 0x1916F, offset: 0x2BC3BA, size: 0x8, addend: 0x0, symName: '__ZN4core3ptr97drop_in_place$LT$syn..punctuated..Punctuated$LT$syn..expr..FieldValue$C$syn..token..Comma$GT$$GT$17h0b967144e5f751bcE', symObjAddr: 0x6130, symBinAddr: 0x7D190, symSize: 0x90 }
  - { offsetInCU: 0x19421, offset: 0x2BC66C, size: 0x8, addend: 0x0, symName: '__ZN4core3ptr97drop_in_place$LT$syn..punctuated..Punctuated$LT$syn..lifetime..Lifetime$C$syn..token..Add$GT$$GT$17h13de0797103c07efE', symObjAddr: 0x61C0, symBinAddr: 0x7D220, symSize: 0xC0 }
  - { offsetInCU: 0x19AEA, offset: 0x2BCD35, size: 0x8, addend: 0x0, symName: '__ZN53_$LT$core..fmt..Error$u20$as$u20$core..fmt..Debug$GT$3fmt17h43ae5cec9623af13E', symObjAddr: 0x6280, symBinAddr: 0x7D2E0, symSize: 0x20 }
  - { offsetInCU: 0x1B59F, offset: 0x2BE7EA, size: 0x8, addend: 0x0, symName: __ZN21borsh_derive_internal17attribute_helpers13contains_skip17hd4954f682f2099b6E, symObjAddr: 0x6430, symBinAddr: 0x7D490, symSize: 0x320 }
  - { offsetInCU: 0x1BD2F, offset: 0x2BEF7A, size: 0x8, addend: 0x0, symName: __ZN21borsh_derive_internal17attribute_helpers24contains_initialize_with17h6fbb52d78e9a54ddE, symObjAddr: 0x6750, symBinAddr: 0x7D7B0, symSize: 0x59E }
  - { offsetInCU: 0x1E, offset: 0x2CB4DC, size: 0x8, addend: 0x0, symName: '__ZN4core3ptr100drop_in_place$LT$core..option..Option$LT$alloc..boxed..Box$LT$syn..generics..LifetimeDef$GT$$GT$$GT$17h59b147f54f34dccbE', symObjAddr: 0x0, symBinAddr: 0x7DD50, symSize: 0x140 }
  - { offsetInCU: 0x60, offset: 0x2CB51E, size: 0x8, addend: 0x0, symName: '__ZN70_$LT$core..num..error..TryFromIntError$u20$as$u20$core..fmt..Debug$GT$3fmt17hc0f971d0e5e88256E', symObjAddr: 0x69E0, symBinAddr: 0x84730, symSize: 0x40 }
  - { offsetInCU: 0xAC7, offset: 0x2CBF85, size: 0x8, addend: 0x0, symName: '__ZN4core3ptr100drop_in_place$LT$core..option..Option$LT$alloc..boxed..Box$LT$syn..generics..LifetimeDef$GT$$GT$$GT$17h59b147f54f34dccbE', symObjAddr: 0x0, symBinAddr: 0x7DD50, symSize: 0x140 }
  - { offsetInCU: 0x10EE, offset: 0x2CC5AC, size: 0x8, addend: 0x0, symName: '__ZN4core3ptr100drop_in_place$LT$core..option..Option$LT$alloc..boxed..Box$LT$syn..path..GenericArgument$GT$$GT$$GT$17h38255555b1295bfeE', symObjAddr: 0x140, symBinAddr: 0x7DE90, symSize: 0x50 }
  - { offsetInCU: 0x12BD, offset: 0x2CC77B, size: 0x8, addend: 0x0, symName: '__ZN4core3ptr103drop_in_place$LT$core..option..Option$LT$alloc..boxed..Box$LT$syn..generics..TypeParamBound$GT$$GT$$GT$17h4cde56daa3a2bdc0E', symObjAddr: 0x190, symBinAddr: 0x7DEE0, symSize: 0x90 }
  - { offsetInCU: 0x15FB, offset: 0x2CCAB9, size: 0x8, addend: 0x0, symName: '__ZN4core3ptr103drop_in_place$LT$core..option..Option$LT$alloc..boxed..Box$LT$syn..generics..WherePredicate$GT$$GT$$GT$17hf87ab70cf41f50c9E', symObjAddr: 0x220, symBinAddr: 0x7DF70, symSize: 0x100 }
  - { offsetInCU: 0x19A7, offset: 0x2CCE65, size: 0x8, addend: 0x0, symName: '__ZN4core3ptr103drop_in_place$LT$syn..punctuated..Punctuated$LT$syn..generics..TypeParamBound$C$syn..token..Add$GT$$GT$17he87db64984b51318E', symObjAddr: 0x320, symBinAddr: 0x7E070, symSize: 0x220 }
  - { offsetInCU: 0x2346, offset: 0x2CD804, size: 0x8, addend: 0x0, symName: '__ZN4core3ptr108drop_in_place$LT$syn..punctuated..Punctuated$LT$syn..expr..GenericMethodArgument$C$syn..token..Comma$GT$$GT$17h5b9ce8018b09f0e5E', symObjAddr: 0x540, symBinAddr: 0x7E290, symSize: 0x160 }
  - { offsetInCU: 0x27A1, offset: 0x2CDC5F, size: 0x8, addend: 0x0, symName: '__ZN4core3ptr33drop_in_place$LT$$RF$$LP$$RP$$GT$17hf10b844624df6069E', symObjAddr: 0x6A0, symBinAddr: 0x7E3F0, symSize: 0x10 }
  - { offsetInCU: 0x2887, offset: 0x2CDD45, size: 0x8, addend: 0x0, symName: '__ZN4core3ptr34drop_in_place$LT$syn..lit..Lit$GT$17h1ab3234e104c44f2E', symObjAddr: 0x6B0, symBinAddr: 0x7E400, symSize: 0x110 }
  - { offsetInCU: 0x2D64, offset: 0x2CE222, size: 0x8, addend: 0x0, symName: '__ZN4core3ptr34drop_in_place$LT$syn..pat..Pat$GT$17hd2daf6c9b558c302E', symObjAddr: 0x7C0, symBinAddr: 0x7E510, symSize: 0x1020 }
  - { offsetInCU: 0x688A, offset: 0x2D1D48, size: 0x8, addend: 0x0, symName: '__ZN4core3ptr34drop_in_place$LT$syn..ty..Type$GT$17h2525d6f390be5184E', symObjAddr: 0x17E0, symBinAddr: 0x7F530, symSize: 0x520 }
  - { offsetInCU: 0x8168, offset: 0x2D3626, size: 0x8, addend: 0x0, symName: '__ZN4core3ptr36drop_in_place$LT$syn..expr..Expr$GT$17h2c405aa56ef59458E', symObjAddr: 0x1D00, symBinAddr: 0x7FA50, symSize: 0x2A50 }
  - { offsetInCU: 0x11AB1, offset: 0x2DCF6F, size: 0x8, addend: 0x0, symName: '__ZN4core3ptr36drop_in_place$LT$syn..mac..Macro$GT$17ha3f7407d832a54f3E', symObjAddr: 0x4750, symBinAddr: 0x824A0, symSize: 0x40 }
  - { offsetInCU: 0x11C02, offset: 0x2DD0C0, size: 0x8, addend: 0x0, symName: '__ZN4core3ptr36drop_in_place$LT$syn..path..Path$GT$17hdd1a20818512b8e8E', symObjAddr: 0x4790, symBinAddr: 0x824E0, symSize: 0x250 }
  - { offsetInCU: 0x1264B, offset: 0x2DDB09, size: 0x8, addend: 0x0, symName: '__ZN4core3ptr37drop_in_place$LT$syn..stmt..Block$GT$17h116674a61262fbf3E', symObjAddr: 0x49E0, symBinAddr: 0x82730, symSize: 0xD0 }
  - { offsetInCU: 0x1292D, offset: 0x2DDDEB, size: 0x8, addend: 0x0, symName: '__ZN4core3ptr38drop_in_place$LT$syn..error..Error$GT$17hcbb5a77cc5079ab6E', symObjAddr: 0x4AB0, symBinAddr: 0x82800, symSize: 0x70 }
  - { offsetInCU: 0x12BFE, offset: 0x2DE0BC, size: 0x8, addend: 0x0, symName: '__ZN4core3ptr38drop_in_place$LT$syn..expr..Member$GT$17hcc0800d87a1b5a7bE', symObjAddr: 0x4B20, symBinAddr: 0x82870, symSize: 0x30 }
  - { offsetInCU: 0x12CFB, offset: 0x2DE1B9, size: 0x8, addend: 0x0, symName: '__ZN4core3ptr39drop_in_place$LT$proc_macro2..Ident$GT$17h5e23b415130c092bE', symObjAddr: 0x4B50, symBinAddr: 0x828A0, symSize: 0x30 }
  - { offsetInCU: 0x12DD9, offset: 0x2DE297, size: 0x8, addend: 0x0, symName: '__ZN4core3ptr39drop_in_place$LT$syn..pat..PatTuple$GT$17hc859e789d4d53192E', symObjAddr: 0x4B80, symBinAddr: 0x828D0, symSize: 0xE0 }
  - { offsetInCU: 0x13075, offset: 0x2DE533, size: 0x8, addend: 0x0, symName: '__ZN4core3ptr40drop_in_place$LT$syn..ty..ReturnType$GT$17h03f22a8f10ab16f6E', symObjAddr: 0x4C60, symBinAddr: 0x829B0, symSize: 0x50 }
  - { offsetInCU: 0x1331D, offset: 0x2DE7DB, size: 0x8, addend: 0x0, symName: '__ZN4core3ptr45drop_in_place$LT$proc_macro2..TokenStream$GT$17hf227e3acf52e90acE', symObjAddr: 0x4CB0, symBinAddr: 0x82A00, symSize: 0x140 }
  - { offsetInCU: 0x137AB, offset: 0x2DEC69, size: 0x8, addend: 0x0, symName: '__ZN4core3ptr47drop_in_place$LT$syn..generics..WhereClause$GT$17h5a7e4a8e8c66edcbE', symObjAddr: 0x4DF0, symBinAddr: 0x82B40, symSize: 0xE0 }
  - { offsetInCU: 0x13AA4, offset: 0x2DEF62, size: 0x8, addend: 0x0, symName: '__ZN4core3ptr47drop_in_place$LT$syn..path..GenericArgument$GT$17hd47b35aa3c190f98E', symObjAddr: 0x4ED0, symBinAddr: 0x82C20, symSize: 0xE0 }
  - { offsetInCU: 0x13DBE, offset: 0x2DF27C, size: 0x8, addend: 0x0, symName: '__ZN4core3ptr54drop_in_place$LT$core..num..error..TryFromIntError$GT$17hceb93504780cf688E', symObjAddr: 0x4FB0, symBinAddr: 0x82D00, symSize: 0x10 }
  - { offsetInCU: 0x13DEA, offset: 0x2DF2A8, size: 0x8, addend: 0x0, symName: '__ZN4core3ptr58drop_in_place$LT$alloc..vec..Vec$LT$syn..expr..Arm$GT$$GT$17h290d8e7f2ad556dbE', symObjAddr: 0x4FC0, symBinAddr: 0x82D10, symSize: 0xD0 }
  - { offsetInCU: 0x14077, offset: 0x2DF535, size: 0x8, addend: 0x0, symName: '__ZN4core3ptr59drop_in_place$LT$alloc..boxed..Box$LT$syn..pat..Pat$GT$$GT$17h01c85953a6d07042E', symObjAddr: 0x5090, symBinAddr: 0x82DE0, symSize: 0x50 }
  - { offsetInCU: 0x141D2, offset: 0x2DF690, size: 0x8, addend: 0x0, symName: '__ZN4core3ptr59drop_in_place$LT$alloc..boxed..Box$LT$syn..ty..Type$GT$$GT$17hb45fd9b98f484f5eE', symObjAddr: 0x50E0, symBinAddr: 0x82E30, symSize: 0x50 }
  - { offsetInCU: 0x1432D, offset: 0x2DF7EB, size: 0x8, addend: 0x0, symName: '__ZN4core3ptr61drop_in_place$LT$alloc..boxed..Box$LT$syn..expr..Expr$GT$$GT$17h9ad4fd2327a26218E', symObjAddr: 0x5130, symBinAddr: 0x82E80, symSize: 0x50 }
  - { offsetInCU: 0x14504, offset: 0x2DF9C2, size: 0x8, addend: 0x0, symName: '__ZN4core3ptr61drop_in_place$LT$syn..path..ParenthesizedGenericArguments$GT$17h69cc70aa9b265048E', symObjAddr: 0x5180, symBinAddr: 0x82ED0, symSize: 0x170 }
  - { offsetInCU: 0x14ACB, offset: 0x2DFF89, size: 0x8, addend: 0x0, symName: '__ZN4core3ptr63drop_in_place$LT$alloc..boxed..Box$LT$syn..lit..LitRepr$GT$$GT$17hfdc6f02c2aeccea8E', symObjAddr: 0x52F0, symBinAddr: 0x83040, symSize: 0x60 }
  - { offsetInCU: 0x14DC0, offset: 0x2E027E, size: 0x8, addend: 0x0, symName: '__ZN4core3ptr64drop_in_place$LT$alloc..boxed..Box$LT$syn..pat..FieldPat$GT$$GT$17h438f301abb3992afE', symObjAddr: 0x5350, symBinAddr: 0x830A0, symSize: 0x140 }
  - { offsetInCU: 0x1546B, offset: 0x2E0929, size: 0x8, addend: 0x0, symName: '__ZN4core3ptr64drop_in_place$LT$alloc..boxed..Box$LT$syn..ty..BareFnArg$GT$$GT$17h534b59785628b455E', symObjAddr: 0x5490, symBinAddr: 0x831E0, symSize: 0x120 }
  - { offsetInCU: 0x15981, offset: 0x2E0E3F, size: 0x8, addend: 0x0, symName: '__ZN4core3ptr65drop_in_place$LT$core..option..Option$LT$syn..expr..Label$GT$$GT$17h55a8a4e1ddce58b3E', symObjAddr: 0x55B0, symBinAddr: 0x83300, symSize: 0x30 }
  - { offsetInCU: 0x15ABC, offset: 0x2E0F7A, size: 0x8, addend: 0x0, symName: '__ZN4core3ptr66drop_in_place$LT$core..option..Option$LT$syn..ty..Variadic$GT$$GT$17h0501c7cacb50c1bcE', symObjAddr: 0x55E0, symBinAddr: 0x83330, symSize: 0xE0 }
  - { offsetInCU: 0x15D40, offset: 0x2E11FE, size: 0x8, addend: 0x0, symName: '__ZN4core3ptr67drop_in_place$LT$alloc..boxed..Box$LT$syn..expr..FieldValue$GT$$GT$17h2fb7840700e2cfc4E', symObjAddr: 0x56C0, symBinAddr: 0x83410, symSize: 0x140 }
  - { offsetInCU: 0x16263, offset: 0x2E1721, size: 0x8, addend: 0x0, symName: '__ZN4core3ptr68drop_in_place$LT$alloc..boxed..Box$LT$syn..path..PathSegment$GT$$GT$17h0d3dbff6fefb9ff1E', symObjAddr: 0x5800, symBinAddr: 0x83550, symSize: 0x190 }
  - { offsetInCU: 0x16960, offset: 0x2E1E1E, size: 0x8, addend: 0x0, symName: '__ZN4core3ptr72drop_in_place$LT$alloc..boxed..Box$LT$syn..path..GenericArgument$GT$$GT$17h03345587942f4c51E', symObjAddr: 0x5990, symBinAddr: 0x836E0, symSize: 0x190 }
  - { offsetInCU: 0x1705D, offset: 0x2E251B, size: 0x8, addend: 0x0, symName: '__ZN4core3ptr72drop_in_place$LT$core..option..Option$LT$syn..lifetime..Lifetime$GT$$GT$17h740173d7f1029395E', symObjAddr: 0x5B20, symBinAddr: 0x83870, symSize: 0x30 }
  - { offsetInCU: 0x17179, offset: 0x2E2637, size: 0x8, addend: 0x0, symName: '__ZN4core3ptr75drop_in_place$LT$alloc..boxed..Box$LT$syn..generics..TypeParamBound$GT$$GT$17h607f713d7489d138E', symObjAddr: 0x5B50, symBinAddr: 0x838A0, symSize: 0x170 }
  - { offsetInCU: 0x177C2, offset: 0x2E2C80, size: 0x8, addend: 0x0, symName: '__ZN4core3ptr78drop_in_place$LT$alloc..boxed..Box$LT$syn..expr..GenericMethodArgument$GT$$GT$17hcf6efd22daa4cb90E', symObjAddr: 0x5CC0, symBinAddr: 0x83A10, symSize: 0x60 }
  - { offsetInCU: 0x179B6, offset: 0x2E2E74, size: 0x8, addend: 0x0, symName: '__ZN4core3ptr78drop_in_place$LT$core..option..Option$LT$syn..generics..BoundLifetimes$GT$$GT$17hfda58d196741a0b6E', symObjAddr: 0x5D20, symBinAddr: 0x83A70, symSize: 0x90 }
  - { offsetInCU: 0x17C6C, offset: 0x2E312A, size: 0x8, addend: 0x0, symName: '__ZN4core3ptr86drop_in_place$LT$syn..punctuated..Punctuated$LT$syn..pat..Pat$C$syn..token..Or$GT$$GT$17h26954409c1236a70E', symObjAddr: 0x5DB0, symBinAddr: 0x83B00, symSize: 0x120 }
  - { offsetInCU: 0x180B2, offset: 0x2E3570, size: 0x8, addend: 0x0, symName: '__ZN4core3ptr87drop_in_place$LT$core..option..Option$LT$alloc..boxed..Box$LT$syn..pat..Pat$GT$$GT$$GT$17h7df459c6cf4ce695E', symObjAddr: 0x5ED0, symBinAddr: 0x83C20, symSize: 0x50 }
  - { offsetInCU: 0x18224, offset: 0x2E36E2, size: 0x8, addend: 0x0, symName: '__ZN4core3ptr87drop_in_place$LT$core..option..Option$LT$alloc..boxed..Box$LT$syn..ty..Type$GT$$GT$$GT$17h88aedc8974b5e242E', symObjAddr: 0x5F20, symBinAddr: 0x83C70, symSize: 0x50 }
  - { offsetInCU: 0x18396, offset: 0x2E3854, size: 0x8, addend: 0x0, symName: '__ZN4core3ptr89drop_in_place$LT$core..option..Option$LT$alloc..boxed..Box$LT$syn..expr..Expr$GT$$GT$$GT$17h6fdb7cdd0a3b0ab5E', symObjAddr: 0x5F70, symBinAddr: 0x83CC0, symSize: 0x50 }
  - { offsetInCU: 0x18546, offset: 0x2E3A04, size: 0x8, addend: 0x0, symName: '__ZN4core3ptr89drop_in_place$LT$syn..punctuated..Punctuated$LT$syn..pat..Pat$C$syn..token..Comma$GT$$GT$17hea353bcfa9e7288cE', symObjAddr: 0x5FC0, symBinAddr: 0x83D10, symSize: 0x120 }
  - { offsetInCU: 0x189A3, offset: 0x2E3E61, size: 0x8, addend: 0x0, symName: '__ZN4core3ptr89drop_in_place$LT$syn..punctuated..Punctuated$LT$syn..ty..Type$C$syn..token..Comma$GT$$GT$17h980beb25d5baeecdE', symObjAddr: 0x60E0, symBinAddr: 0x83E30, symSize: 0x120 }
  - { offsetInCU: 0x18E2B, offset: 0x2E42E9, size: 0x8, addend: 0x0, symName: '__ZN4core3ptr91drop_in_place$LT$syn..punctuated..Punctuated$LT$syn..expr..Expr$C$syn..token..Comma$GT$$GT$17h0b073aeb5ab62d2fE', symObjAddr: 0x6200, symBinAddr: 0x83F50, symSize: 0x120 }
  - { offsetInCU: 0x19288, offset: 0x2E4746, size: 0x8, addend: 0x0, symName: '__ZN4core3ptr94drop_in_place$LT$syn..punctuated..Punctuated$LT$syn..pat..FieldPat$C$syn..token..Comma$GT$$GT$17hc488d173042d1296E', symObjAddr: 0x6320, symBinAddr: 0x84070, symSize: 0xF0 }
  - { offsetInCU: 0x19552, offset: 0x2E4A10, size: 0x8, addend: 0x0, symName: '__ZN4core3ptr94drop_in_place$LT$syn..punctuated..Punctuated$LT$syn..ty..BareFnArg$C$syn..token..Comma$GT$$GT$17hc8ac1c6c80625508E', symObjAddr: 0x6410, symBinAddr: 0x84160, symSize: 0x90 }
  - { offsetInCU: 0x19788, offset: 0x2E4C46, size: 0x8, addend: 0x0, symName: '__ZN4core3ptr96drop_in_place$LT$core..option..Option$LT$alloc..boxed..Box$LT$syn..path..PathSegment$GT$$GT$$GT$17hb63f3e57d4373260E', symObjAddr: 0x64A0, symBinAddr: 0x841F0, symSize: 0x180 }
  - { offsetInCU: 0x19E19, offset: 0x2E52D7, size: 0x8, addend: 0x0, symName: '__ZN4core3ptr97drop_in_place$LT$syn..punctuated..Punctuated$LT$syn..expr..FieldValue$C$syn..token..Comma$GT$$GT$17h0b967144e5f751bcE', symObjAddr: 0x6620, symBinAddr: 0x84370, symSize: 0x90 }
  - { offsetInCU: 0x1A0CB, offset: 0x2E5589, size: 0x8, addend: 0x0, symName: '__ZN4core3ptr97drop_in_place$LT$syn..punctuated..Punctuated$LT$syn..lifetime..Lifetime$C$syn..token..Add$GT$$GT$17h13de0797103c07efE', symObjAddr: 0x66B0, symBinAddr: 0x84400, symSize: 0xC0 }
  - { offsetInCU: 0x1A543, offset: 0x2E5A01, size: 0x8, addend: 0x0, symName: '__ZN4core3ptr99drop_in_place$LT$syn..punctuated..Punctuated$LT$syn..path..PathSegment$C$syn..token..Colon2$GT$$GT$17hacf52ef78e94f7eaE', symObjAddr: 0x6770, symBinAddr: 0x844C0, symSize: 0x270 }
  - { offsetInCU: 0x1CCAD, offset: 0x2E816B, size: 0x8, addend: 0x0, symName: __ZN21borsh_derive_internal10struct_ser10struct_ser17hc44c7fd207e800b7E, symObjAddr: 0x6A20, symBinAddr: 0x84770, symSize: 0xD0A }
  - { offsetInCU: 0x1E, offset: 0x2F4441, size: 0x8, addend: 0x0, symName: '__ZN40_$LT$F$u20$as$u20$syn..parse..Parser$GT$6parse217hf00ffaba2bcfd747E', symObjAddr: 0x0, symBinAddr: 0x85480, symSize: 0x4A0 }
  - { offsetInCU: 0x190B, offset: 0x2F5D2E, size: 0x8, addend: 0x0, symName: '__ZN4core3ptr100drop_in_place$LT$core..option..Option$LT$alloc..boxed..Box$LT$syn..generics..LifetimeDef$GT$$GT$$GT$17h59b147f54f34dccbE', symObjAddr: 0x4A0, symBinAddr: 0x85920, symSize: 0x140 }
  - { offsetInCU: 0x1F32, offset: 0x2F6355, size: 0x8, addend: 0x0, symName: '__ZN4core3ptr100drop_in_place$LT$core..option..Option$LT$alloc..boxed..Box$LT$syn..path..GenericArgument$GT$$GT$$GT$17h38255555b1295bfeE', symObjAddr: 0x5E0, symBinAddr: 0x85A60, symSize: 0x50 }
  - { offsetInCU: 0x2101, offset: 0x2F6524, size: 0x8, addend: 0x0, symName: '__ZN4core3ptr103drop_in_place$LT$core..option..Option$LT$alloc..boxed..Box$LT$syn..generics..TypeParamBound$GT$$GT$$GT$17h4cde56daa3a2bdc0E', symObjAddr: 0x630, symBinAddr: 0x85AB0, symSize: 0x90 }
  - { offsetInCU: 0x247D, offset: 0x2F68A0, size: 0x8, addend: 0x0, symName: '__ZN4core3ptr103drop_in_place$LT$syn..punctuated..Punctuated$LT$syn..generics..TypeParamBound$C$syn..token..Add$GT$$GT$17he87db64984b51318E', symObjAddr: 0x6C0, symBinAddr: 0x85B40, symSize: 0x220 }
  - { offsetInCU: 0x2E1C, offset: 0x2F723F, size: 0x8, addend: 0x0, symName: '__ZN4core3ptr108drop_in_place$LT$syn..punctuated..Punctuated$LT$syn..expr..GenericMethodArgument$C$syn..token..Comma$GT$$GT$17h5b9ce8018b09f0e5E', symObjAddr: 0x8E0, symBinAddr: 0x85D60, symSize: 0x160 }
  - { offsetInCU: 0x3331, offset: 0x2F7754, size: 0x8, addend: 0x0, symName: '__ZN4core3ptr34drop_in_place$LT$syn..lit..Lit$GT$17h1ab3234e104c44f2E', symObjAddr: 0xA40, symBinAddr: 0x85EC0, symSize: 0x110 }
  - { offsetInCU: 0x380E, offset: 0x2F7C31, size: 0x8, addend: 0x0, symName: '__ZN4core3ptr34drop_in_place$LT$syn..pat..Pat$GT$17hd2daf6c9b558c302E', symObjAddr: 0xB50, symBinAddr: 0x85FD0, symSize: 0x1020 }
  - { offsetInCU: 0x7334, offset: 0x2FB757, size: 0x8, addend: 0x0, symName: '__ZN4core3ptr34drop_in_place$LT$syn..ty..Type$GT$17h2525d6f390be5184E', symObjAddr: 0x1B70, symBinAddr: 0x86FF0, symSize: 0x520 }
  - { offsetInCU: 0x8C12, offset: 0x2FD035, size: 0x8, addend: 0x0, symName: '__ZN4core3ptr36drop_in_place$LT$syn..expr..Expr$GT$17h2c405aa56ef59458E', symObjAddr: 0x2090, symBinAddr: 0x87510, symSize: 0x2A50 }
  - { offsetInCU: 0x1255B, offset: 0x30697E, size: 0x8, addend: 0x0, symName: '__ZN4core3ptr36drop_in_place$LT$syn..mac..Macro$GT$17ha3f7407d832a54f3E', symObjAddr: 0x4AE0, symBinAddr: 0x89F60, symSize: 0x40 }
  - { offsetInCU: 0x126AC, offset: 0x306ACF, size: 0x8, addend: 0x0, symName: '__ZN4core3ptr36drop_in_place$LT$syn..path..Path$GT$17hdd1a20818512b8e8E', symObjAddr: 0x4B20, symBinAddr: 0x89FA0, symSize: 0x250 }
  - { offsetInCU: 0x130F5, offset: 0x307518, size: 0x8, addend: 0x0, symName: '__ZN4core3ptr37drop_in_place$LT$syn..stmt..Block$GT$17h116674a61262fbf3E', symObjAddr: 0x4D70, symBinAddr: 0x8A1F0, symSize: 0xD0 }
  - { offsetInCU: 0x13399, offset: 0x3077BC, size: 0x8, addend: 0x0, symName: '__ZN4core3ptr38drop_in_place$LT$syn..expr..Member$GT$17hcc0800d87a1b5a7bE', symObjAddr: 0x4E40, symBinAddr: 0x8A2C0, symSize: 0x30 }
  - { offsetInCU: 0x13496, offset: 0x3078B9, size: 0x8, addend: 0x0, symName: '__ZN4core3ptr39drop_in_place$LT$proc_macro2..Ident$GT$17h5e23b415130c092bE', symObjAddr: 0x4E70, symBinAddr: 0x8A2F0, symSize: 0x30 }
  - { offsetInCU: 0x136AA, offset: 0x307ACD, size: 0x8, addend: 0x0, symName: '__ZN4core3ptr39drop_in_place$LT$syn..buffer..Entry$GT$17h3855bb686b18aed1E', symObjAddr: 0x4EA0, symBinAddr: 0x8A320, symSize: 0xC0 }
  - { offsetInCU: 0x139BE, offset: 0x307DE1, size: 0x8, addend: 0x0, symName: '__ZN4core3ptr39drop_in_place$LT$syn..pat..PatTuple$GT$17hc859e789d4d53192E', symObjAddr: 0x4F60, symBinAddr: 0x8A3E0, symSize: 0xE0 }
  - { offsetInCU: 0x13C5A, offset: 0x30807D, size: 0x8, addend: 0x0, symName: '__ZN4core3ptr40drop_in_place$LT$syn..ty..ReturnType$GT$17h03f22a8f10ab16f6E', symObjAddr: 0x5040, symBinAddr: 0x8A4C0, symSize: 0x50 }
  - { offsetInCU: 0x13DCC, offset: 0x3081EF, size: 0x8, addend: 0x0, symName: '__ZN4core3ptr44drop_in_place$LT$syn..parse..ParseBuffer$GT$17hfd14482e082eb31cE', symObjAddr: 0x5090, symBinAddr: 0x8A510, symSize: 0x70 }
  - { offsetInCU: 0x14149, offset: 0x30856C, size: 0x8, addend: 0x0, symName: '__ZN4core3ptr45drop_in_place$LT$proc_macro2..TokenStream$GT$17hf227e3acf52e90acE', symObjAddr: 0x5100, symBinAddr: 0x8A580, symSize: 0x140 }
  - { offsetInCU: 0x1457A, offset: 0x30899D, size: 0x8, addend: 0x0, symName: '__ZN4core3ptr45drop_in_place$LT$syn..buffer..TokenBuffer$GT$17h3c4d48082620879cE', symObjAddr: 0x5240, symBinAddr: 0x8A6C0, symSize: 0xD0 }
  - { offsetInCU: 0x147E0, offset: 0x308C03, size: 0x8, addend: 0x0, symName: '__ZN4core3ptr47drop_in_place$LT$syn..path..GenericArgument$GT$17hd47b35aa3c190f98E', symObjAddr: 0x5310, symBinAddr: 0x8A790, symSize: 0xE0 }
  - { offsetInCU: 0x14B57, offset: 0x308F7A, size: 0x8, addend: 0x0, symName: '__ZN4core3ptr50drop_in_place$LT$syn..generics..WherePredicate$GT$17hd85e287b07e1f94eE', symObjAddr: 0x53F0, symBinAddr: 0x8A870, symSize: 0xD0 }
  - { offsetInCU: 0x14CD5, offset: 0x3090F8, size: 0x8, addend: 0x0, symName: '__ZN4core3ptr58drop_in_place$LT$alloc..vec..Vec$LT$syn..expr..Arm$GT$$GT$17h290d8e7f2ad556dbE', symObjAddr: 0x54C0, symBinAddr: 0x8A940, symSize: 0xD0 }
  - { offsetInCU: 0x14F62, offset: 0x309385, size: 0x8, addend: 0x0, symName: '__ZN4core3ptr59drop_in_place$LT$alloc..boxed..Box$LT$syn..pat..Pat$GT$$GT$17h01c85953a6d07042E', symObjAddr: 0x5590, symBinAddr: 0x8AA10, symSize: 0x50 }
  - { offsetInCU: 0x150BD, offset: 0x3094E0, size: 0x8, addend: 0x0, symName: '__ZN4core3ptr59drop_in_place$LT$alloc..boxed..Box$LT$syn..ty..Type$GT$$GT$17hb45fd9b98f484f5eE', symObjAddr: 0x55E0, symBinAddr: 0x8AA60, symSize: 0x50 }
  - { offsetInCU: 0x15218, offset: 0x30963B, size: 0x8, addend: 0x0, symName: '__ZN4core3ptr61drop_in_place$LT$alloc..boxed..Box$LT$syn..expr..Expr$GT$$GT$17h9ad4fd2327a26218E', symObjAddr: 0x5630, symBinAddr: 0x8AAB0, symSize: 0x50 }
  - { offsetInCU: 0x153EF, offset: 0x309812, size: 0x8, addend: 0x0, symName: '__ZN4core3ptr61drop_in_place$LT$syn..path..ParenthesizedGenericArguments$GT$17h69cc70aa9b265048E', symObjAddr: 0x5680, symBinAddr: 0x8AB00, symSize: 0x170 }
  - { offsetInCU: 0x159B6, offset: 0x309DD9, size: 0x8, addend: 0x0, symName: '__ZN4core3ptr63drop_in_place$LT$alloc..boxed..Box$LT$syn..lit..LitRepr$GT$$GT$17hfdc6f02c2aeccea8E', symObjAddr: 0x57F0, symBinAddr: 0x8AC70, symSize: 0x60 }
  - { offsetInCU: 0x15CAB, offset: 0x30A0CE, size: 0x8, addend: 0x0, symName: '__ZN4core3ptr64drop_in_place$LT$alloc..boxed..Box$LT$syn..pat..FieldPat$GT$$GT$17h438f301abb3992afE', symObjAddr: 0x5850, symBinAddr: 0x8ACD0, symSize: 0x140 }
  - { offsetInCU: 0x16356, offset: 0x30A779, size: 0x8, addend: 0x0, symName: '__ZN4core3ptr64drop_in_place$LT$alloc..boxed..Box$LT$syn..ty..BareFnArg$GT$$GT$17h534b59785628b455E', symObjAddr: 0x5990, symBinAddr: 0x8AE10, symSize: 0x120 }
  - { offsetInCU: 0x1686C, offset: 0x30AC8F, size: 0x8, addend: 0x0, symName: '__ZN4core3ptr65drop_in_place$LT$core..option..Option$LT$syn..expr..Label$GT$$GT$17h55a8a4e1ddce58b3E', symObjAddr: 0x5AB0, symBinAddr: 0x8AF30, symSize: 0x30 }
  - { offsetInCU: 0x169A7, offset: 0x30ADCA, size: 0x8, addend: 0x0, symName: '__ZN4core3ptr66drop_in_place$LT$core..option..Option$LT$syn..ty..Variadic$GT$$GT$17h0501c7cacb50c1bcE', symObjAddr: 0x5AE0, symBinAddr: 0x8AF60, symSize: 0xE0 }
  - { offsetInCU: 0x16C2B, offset: 0x30B04E, size: 0x8, addend: 0x0, symName: '__ZN4core3ptr67drop_in_place$LT$alloc..boxed..Box$LT$syn..expr..FieldValue$GT$$GT$17h2fb7840700e2cfc4E', symObjAddr: 0x5BC0, symBinAddr: 0x8B040, symSize: 0x140 }
  - { offsetInCU: 0x1714E, offset: 0x30B571, size: 0x8, addend: 0x0, symName: '__ZN4core3ptr68drop_in_place$LT$alloc..boxed..Box$LT$syn..path..PathSegment$GT$$GT$17h0d3dbff6fefb9ff1E', symObjAddr: 0x5D00, symBinAddr: 0x8B180, symSize: 0x190 }
  - { offsetInCU: 0x1784B, offset: 0x30BC6E, size: 0x8, addend: 0x0, symName: '__ZN4core3ptr72drop_in_place$LT$alloc..boxed..Box$LT$syn..path..GenericArgument$GT$$GT$17h03345587942f4c51E', symObjAddr: 0x5E90, symBinAddr: 0x8B310, symSize: 0x190 }
  - { offsetInCU: 0x17F48, offset: 0x30C36B, size: 0x8, addend: 0x0, symName: '__ZN4core3ptr72drop_in_place$LT$core..option..Option$LT$syn..lifetime..Lifetime$GT$$GT$17h740173d7f1029395E', symObjAddr: 0x6020, symBinAddr: 0x8B4A0, symSize: 0x30 }
  - { offsetInCU: 0x18064, offset: 0x30C487, size: 0x8, addend: 0x0, symName: '__ZN4core3ptr75drop_in_place$LT$alloc..boxed..Box$LT$syn..generics..TypeParamBound$GT$$GT$17h607f713d7489d138E', symObjAddr: 0x6050, symBinAddr: 0x8B4D0, symSize: 0x170 }
  - { offsetInCU: 0x186AD, offset: 0x30CAD0, size: 0x8, addend: 0x0, symName: '__ZN4core3ptr78drop_in_place$LT$alloc..boxed..Box$LT$syn..expr..GenericMethodArgument$GT$$GT$17hcf6efd22daa4cb90E', symObjAddr: 0x61C0, symBinAddr: 0x8B640, symSize: 0x60 }
  - { offsetInCU: 0x188A1, offset: 0x30CCC4, size: 0x8, addend: 0x0, symName: '__ZN4core3ptr78drop_in_place$LT$core..option..Option$LT$syn..generics..BoundLifetimes$GT$$GT$17hfda58d196741a0b6E', symObjAddr: 0x6220, symBinAddr: 0x8B6A0, symSize: 0x90 }
  - { offsetInCU: 0x18B57, offset: 0x30CF7A, size: 0x8, addend: 0x0, symName: '__ZN4core3ptr86drop_in_place$LT$syn..punctuated..Punctuated$LT$syn..pat..Pat$C$syn..token..Or$GT$$GT$17h26954409c1236a70E', symObjAddr: 0x62B0, symBinAddr: 0x8B730, symSize: 0x120 }
  - { offsetInCU: 0x18F9D, offset: 0x30D3C0, size: 0x8, addend: 0x0, symName: '__ZN4core3ptr87drop_in_place$LT$core..option..Option$LT$alloc..boxed..Box$LT$syn..pat..Pat$GT$$GT$$GT$17h7df459c6cf4ce695E', symObjAddr: 0x63D0, symBinAddr: 0x8B850, symSize: 0x50 }
  - { offsetInCU: 0x1910F, offset: 0x30D532, size: 0x8, addend: 0x0, symName: '__ZN4core3ptr87drop_in_place$LT$core..option..Option$LT$alloc..boxed..Box$LT$syn..ty..Type$GT$$GT$$GT$17h88aedc8974b5e242E', symObjAddr: 0x6420, symBinAddr: 0x8B8A0, symSize: 0x50 }
  - { offsetInCU: 0x19281, offset: 0x30D6A4, size: 0x8, addend: 0x0, symName: '__ZN4core3ptr89drop_in_place$LT$core..option..Option$LT$alloc..boxed..Box$LT$syn..expr..Expr$GT$$GT$$GT$17h6fdb7cdd0a3b0ab5E', symObjAddr: 0x6470, symBinAddr: 0x8B8F0, symSize: 0x50 }
  - { offsetInCU: 0x19431, offset: 0x30D854, size: 0x8, addend: 0x0, symName: '__ZN4core3ptr89drop_in_place$LT$syn..punctuated..Punctuated$LT$syn..pat..Pat$C$syn..token..Comma$GT$$GT$17hea353bcfa9e7288cE', symObjAddr: 0x64C0, symBinAddr: 0x8B940, symSize: 0x120 }
  - { offsetInCU: 0x1988E, offset: 0x30DCB1, size: 0x8, addend: 0x0, symName: '__ZN4core3ptr89drop_in_place$LT$syn..punctuated..Punctuated$LT$syn..ty..Type$C$syn..token..Comma$GT$$GT$17h980beb25d5baeecdE', symObjAddr: 0x65E0, symBinAddr: 0x8BA60, symSize: 0x120 }
  - { offsetInCU: 0x19D16, offset: 0x30E139, size: 0x8, addend: 0x0, symName: '__ZN4core3ptr91drop_in_place$LT$syn..punctuated..Punctuated$LT$syn..expr..Expr$C$syn..token..Comma$GT$$GT$17h0b073aeb5ab62d2fE', symObjAddr: 0x6700, symBinAddr: 0x8BB80, symSize: 0x120 }
  - { offsetInCU: 0x1A173, offset: 0x30E596, size: 0x8, addend: 0x0, symName: '__ZN4core3ptr94drop_in_place$LT$syn..punctuated..Punctuated$LT$syn..pat..FieldPat$C$syn..token..Comma$GT$$GT$17hc488d173042d1296E', symObjAddr: 0x6820, symBinAddr: 0x8BCA0, symSize: 0xF0 }
  - { offsetInCU: 0x1A43D, offset: 0x30E860, size: 0x8, addend: 0x0, symName: '__ZN4core3ptr94drop_in_place$LT$syn..punctuated..Punctuated$LT$syn..ty..BareFnArg$C$syn..token..Comma$GT$$GT$17hc8ac1c6c80625508E', symObjAddr: 0x6910, symBinAddr: 0x8BD90, symSize: 0x90 }
  - { offsetInCU: 0x1A673, offset: 0x30EA96, size: 0x8, addend: 0x0, symName: '__ZN4core3ptr96drop_in_place$LT$core..option..Option$LT$alloc..boxed..Box$LT$syn..path..PathSegment$GT$$GT$$GT$17hb63f3e57d4373260E', symObjAddr: 0x69A0, symBinAddr: 0x8BE20, symSize: 0x180 }
  - { offsetInCU: 0x1AD04, offset: 0x30F127, size: 0x8, addend: 0x0, symName: '__ZN4core3ptr97drop_in_place$LT$syn..punctuated..Punctuated$LT$syn..expr..FieldValue$C$syn..token..Comma$GT$$GT$17h0b967144e5f751bcE', symObjAddr: 0x6B20, symBinAddr: 0x8BFA0, symSize: 0x90 }
  - { offsetInCU: 0x1AFB6, offset: 0x30F3D9, size: 0x8, addend: 0x0, symName: '__ZN4core3ptr97drop_in_place$LT$syn..punctuated..Punctuated$LT$syn..lifetime..Lifetime$C$syn..token..Add$GT$$GT$17h13de0797103c07efE', symObjAddr: 0x6BB0, symBinAddr: 0x8C030, symSize: 0xC0 }
  - { offsetInCU: 0x1B42E, offset: 0x30F851, size: 0x8, addend: 0x0, symName: '__ZN4core3ptr99drop_in_place$LT$syn..punctuated..Punctuated$LT$syn..path..PathSegment$C$syn..token..Colon2$GT$$GT$17hacf52ef78e94f7eaE', symObjAddr: 0x6C70, symBinAddr: 0x8C0F0, symSize: 0x26B }
  - { offsetInCU: 0x2260F, offset: 0x316A32, size: 0x8, addend: 0x0, symName: '__ZN40_$LT$F$u20$as$u20$syn..parse..Parser$GT$6parse217hf00ffaba2bcfd747E', symObjAddr: 0x0, symBinAddr: 0x85480, symSize: 0x4A0 }
  - { offsetInCU: 0x1E, offset: 0x31C7CC, size: 0x8, addend: 0x0, symName: '__ZN4core3ptr73drop_in_place$LT$core..cell..UnsafeCell$LT$syn..parse..Unexpected$GT$$GT$17he1973d9a7b62f789E.llvm.2071519661241506014', symObjAddr: 0x0, symBinAddr: 0x8C360, symSize: 0x50 }
  - { offsetInCU: 0xB35, offset: 0x31D2E3, size: 0x8, addend: 0x0, symName: '__ZN4core3ptr73drop_in_place$LT$core..cell..UnsafeCell$LT$syn..parse..Unexpected$GT$$GT$17he1973d9a7b62f789E.llvm.2071519661241506014', symObjAddr: 0x0, symBinAddr: 0x8C360, symSize: 0x50 }
  - { offsetInCU: 0x166C, offset: 0x31DE1A, size: 0x8, addend: 0x0, symName: '__ZN68_$LT$alloc..rc..Rc$LT$T$C$A$GT$$u20$as$u20$core..ops..drop..Drop$GT$4drop17h04f3797dcfcee12eE', symObjAddr: 0xC0, symBinAddr: 0x8C3B0, symSize: 0x30 }
  - { offsetInCU: 0x18E0, offset: 0x31E08E, size: 0x8, addend: 0x0, symName: '__ZN68_$LT$alloc..rc..Rc$LT$T$C$A$GT$$u20$as$u20$core..ops..drop..Drop$GT$4drop17hb1e003d9909211aeE', symObjAddr: 0xF0, symBinAddr: 0x8C3E0, symSize: 0x40 }
  - { offsetInCU: 0x1B55, offset: 0x31E303, size: 0x8, addend: 0x0, symName: '__ZN68_$LT$alloc..rc..Rc$LT$T$C$A$GT$$u20$as$u20$core..ops..drop..Drop$GT$4drop17he941d5b0081c11eeE', symObjAddr: 0x130, symBinAddr: 0x8C420, symSize: 0xDE }
  - { offsetInCU: 0x1E, offset: 0x31F54D, size: 0x8, addend: 0x0, symName: '__ZN120_$LT$proc_macro2..fallback..TokenStream$u20$as$u20$core..iter..traits..collect..Extend$LT$proc_macro2..TokenTree$GT$$GT$6extend17he47c21b40f4847e6E', symObjAddr: 0x0, symBinAddr: 0x8C500, symSize: 0x270 }
  - { offsetInCU: 0x918, offset: 0x31FE47, size: 0x8, addend: 0x0, symName: '__ZN120_$LT$proc_macro2..fallback..TokenStream$u20$as$u20$core..iter..traits..collect..Extend$LT$proc_macro2..TokenTree$GT$$GT$6extend17he47c21b40f4847e6E', symObjAddr: 0x0, symBinAddr: 0x8C500, symSize: 0x270 }
  - { offsetInCU: 0x1838, offset: 0x320D67, size: 0x8, addend: 0x0, symName: '__ZN4core3ptr45drop_in_place$LT$proc_macro2..TokenStream$GT$17hf227e3acf52e90acE', symObjAddr: 0x270, symBinAddr: 0x8C770, symSize: 0x135 }
  - { offsetInCU: 0x1E, offset: 0x32285D, size: 0x8, addend: 0x0, symName: '__ZN4core3ptr43drop_in_place$LT$proc_macro2..TokenTree$GT$17hfccd2bad98ef61aaE.llvm.8597179591660758762', symObjAddr: 0x0, symBinAddr: 0x8C8B0, symSize: 0xB0 }
  - { offsetInCU: 0xE42, offset: 0x323681, size: 0x8, addend: 0x0, symName: '__ZN4core3ptr43drop_in_place$LT$proc_macro2..TokenTree$GT$17hfccd2bad98ef61aaE.llvm.8597179591660758762', symObjAddr: 0x0, symBinAddr: 0x8C8B0, symSize: 0xB0 }
  - { offsetInCU: 0x18CC, offset: 0x32410B, size: 0x8, addend: 0x0, symName: '__ZN86_$LT$alloc..vec..into_iter..IntoIter$LT$T$C$A$GT$$u20$as$u20$core..ops..drop..Drop$GT$4drop17h8a57026b87689e83E', symObjAddr: 0xB0, symBinAddr: 0x8C960, symSize: 0xD0 }
  - { offsetInCU: 0x1B9C, offset: 0x3243DB, size: 0x8, addend: 0x0, symName: '__ZN86_$LT$alloc..vec..into_iter..IntoIter$LT$T$C$A$GT$$u20$as$u20$core..ops..drop..Drop$GT$4drop17he5c625770ae42902E', symObjAddr: 0x180, symBinAddr: 0x8CA30, symSize: 0xE5 }
  - { offsetInCU: 0x35, offset: 0x325135, size: 0x8, addend: 0x0, symName: _anon.9faaf868265b25dad171f6db110674ff.0.llvm.10151158026452100732, symObjAddr: 0x310, symBinAddr: 0x2A4CD8, symSize: 0x0 }
  - { offsetInCU: 0x107, offset: 0x325207, size: 0x8, addend: 0x0, symName: '__ZN58_$LT$alloc..string..String$u20$as$u20$core..fmt..Write$GT$10write_char17hd329c0cb943f081aE.llvm.10151158026452100732', symObjAddr: 0x140, symBinAddr: 0x8CB70, symSize: 0x130 }
  - { offsetInCU: 0x4AE, offset: 0x3255AE, size: 0x8, addend: 0x0, symName: '__ZN58_$LT$alloc..string..String$u20$as$u20$core..fmt..Write$GT$9write_str17h1ff5aa96ca91c6d5E.llvm.10151158026452100732', symObjAddr: 0x270, symBinAddr: 0x8CCA0, symSize: 0x5B }
  - { offsetInCU: 0x9F3, offset: 0x325AF3, size: 0x8, addend: 0x0, symName: '__ZN4core3ptr37drop_in_place$LT$core..fmt..Error$GT$17h692a968d364a9cbaE.llvm.10151158026452100732', symObjAddr: 0xF0, symBinAddr: 0x8CB20, symSize: 0x10 }
  - { offsetInCU: 0xA1F, offset: 0x325B1F, size: 0x8, addend: 0x0, symName: '__ZN4core3ptr42drop_in_place$LT$alloc..string..String$GT$17h70623b3eb28c5735E.llvm.10151158026452100732', symObjAddr: 0x100, symBinAddr: 0x8CB30, symSize: 0x20 }
  - { offsetInCU: 0xC0C, offset: 0x325D0C, size: 0x8, addend: 0x0, symName: '__ZN53_$LT$core..fmt..Error$u20$as$u20$core..fmt..Debug$GT$3fmt17h43ae5cec9623af13E.llvm.10151158026452100732', symObjAddr: 0x120, symBinAddr: 0x8CB50, symSize: 0x20 }
  - { offsetInCU: 0xE2A, offset: 0x325F2A, size: 0x8, addend: 0x0, symName: _anon.9faaf868265b25dad171f6db110674ff.4.llvm.10151158026452100732, symObjAddr: 0x358, symBinAddr: 0x2A4D20, symSize: 0x0 }
  - { offsetInCU: 0x1E, offset: 0x32670C, size: 0x8, addend: 0x0, symName: __ZN4core3fmt5Write9write_fmt17h5b6d4af39e84fe81E, symObjAddr: 0x0, symBinAddr: 0x8CD00, symSize: 0x20 }
  - { offsetInCU: 0x89, offset: 0x326777, size: 0x8, addend: 0x0, symName: '__ZN58_$LT$alloc..string..String$u20$as$u20$core..fmt..Write$GT$10write_char17hd329c0cb943f081aE', symObjAddr: 0x40, symBinAddr: 0x8CD40, symSize: 0x130 }
  - { offsetInCU: 0x430, offset: 0x326B1E, size: 0x8, addend: 0x0, symName: '__ZN58_$LT$alloc..string..String$u20$as$u20$core..fmt..Write$GT$9write_str17h1ff5aa96ca91c6d5E', symObjAddr: 0x170, symBinAddr: 0x8CE70, symSize: 0x5B }
  - { offsetInCU: 0x956, offset: 0x327044, size: 0x8, addend: 0x0, symName: '__ZN4core3ptr42drop_in_place$LT$alloc..string..String$GT$17h70623b3eb28c5735E', symObjAddr: 0x20, symBinAddr: 0x8CD20, symSize: 0x20 }
  - { offsetInCU: 0xC0C, offset: 0x3272FA, size: 0x8, addend: 0x0, symName: __ZN4core3fmt5Write9write_fmt17h5b6d4af39e84fe81E, symObjAddr: 0x0, symBinAddr: 0x8CD00, symSize: 0x20 }
  - { offsetInCU: 0x1E, offset: 0x327DA5, size: 0x8, addend: 0x0, symName: __ZN3std9panicking11begin_panic17h060306daecc9bcfcE, symObjAddr: 0x0, symBinAddr: 0x2288C0, symSize: 0x20 }
  - { offsetInCU: 0x31B, offset: 0x3280A2, size: 0x8, addend: 0x0, symName: '__ZN4core3ptr28drop_in_place$LT$$RF$str$GT$17h290b579839fc9725E', symObjAddr: 0x20, symBinAddr: 0x8CED0, symSize: 0x10 }
  - { offsetInCU: 0x64B, offset: 0x3283D2, size: 0x8, addend: 0x0, symName: __ZN3std9panicking11begin_panic17h060306daecc9bcfcE, symObjAddr: 0x0, symBinAddr: 0x2288C0, symSize: 0x20 }
  - { offsetInCU: 0x6A7, offset: 0x32842E, size: 0x8, addend: 0x0, symName: '__ZN91_$LT$std..panicking..begin_panic..Payload$LT$A$GT$$u20$as$u20$core..panic..PanicPayload$GT$3get17h0193b349c8a832dfE', symObjAddr: 0x30, symBinAddr: 0x8CEE0, symSize: 0x20 }
  - { offsetInCU: 0x6DF, offset: 0x328466, size: 0x8, addend: 0x0, symName: '__ZN91_$LT$std..panicking..begin_panic..Payload$LT$A$GT$$u20$as$u20$core..panic..PanicPayload$GT$8take_box17h0c968d6f66f2abafE', symObjAddr: 0x50, symBinAddr: 0x8CF00, symSize: 0x5F }
  - { offsetInCU: 0x1E, offset: 0x328954, size: 0x8, addend: 0x0, symName: __ZN21borsh_derive_internal8union_de8union_de17h532f467d01f2cf50E, symObjAddr: 0x0, symBinAddr: 0x8CF60, symSize: 0x4B }
  - { offsetInCU: 0x3F0F, offset: 0x32C845, size: 0x8, addend: 0x0, symName: __ZN21borsh_derive_internal8union_de8union_de17h532f467d01f2cf50E, symObjAddr: 0x0, symBinAddr: 0x8CF60, symSize: 0x4B }
  - { offsetInCU: 0x1E, offset: 0x331498, size: 0x8, addend: 0x0, symName: __ZN21borsh_derive_internal9union_ser9union_ser17hfb5f01a2cc5b7346E, symObjAddr: 0x0, symBinAddr: 0x8CFB0, symSize: 0x4B }
  - { offsetInCU: 0x3F0F, offset: 0x335389, size: 0x8, addend: 0x0, symName: __ZN21borsh_derive_internal9union_ser9union_ser17hfb5f01a2cc5b7346E, symObjAddr: 0x0, symBinAddr: 0x8CFB0, symSize: 0x4B }
  - { offsetInCU: 0x1E, offset: 0x339FDC, size: 0x8, addend: 0x0, symName: '__ZN115_$LT$proc_macro2..imp..TokenStream$u20$as$u20$core..iter..traits..collect..Extend$LT$proc_macro2..TokenTree$GT$$GT$6extend17hbde44dda1e9ff261E', symObjAddr: 0x0, symBinAddr: 0x8D000, symSize: 0x110 }
  - { offsetInCU: 0x71F, offset: 0x33A6DD, size: 0x8, addend: 0x0, symName: '__ZN115_$LT$proc_macro2..imp..TokenStream$u20$as$u20$core..iter..traits..collect..Extend$LT$proc_macro2..TokenTree$GT$$GT$6extend17hbde44dda1e9ff261E', symObjAddr: 0x0, symBinAddr: 0x8D000, symSize: 0x110 }
  - { offsetInCU: 0x1476, offset: 0x33B434, size: 0x8, addend: 0x0, symName: '__ZN4core3ptr56drop_in_place$LT$proc_macro2..token_stream..IntoIter$GT$17hdfcac682e80304daE.llvm.7427585224305077798', symObjAddr: 0x110, symBinAddr: 0x8D110, symSize: 0x1D }
  - { offsetInCU: 0x1E, offset: 0x33B773, size: 0x8, addend: 0x0, symName: __ZN5quote9to_tokens8ToTokens17into_token_stream17hd03b09faa0936753E, symObjAddr: 0x0, symBinAddr: 0x8D130, symSize: 0x10A }
  - { offsetInCU: 0x876, offset: 0x33BFCB, size: 0x8, addend: 0x0, symName: __ZN5quote9to_tokens8ToTokens17into_token_stream17hd03b09faa0936753E, symObjAddr: 0x0, symBinAddr: 0x8D130, symSize: 0x10A }
  - { offsetInCU: 0x1E, offset: 0x344534, size: 0x8, addend: 0x0, symName: '__ZN4core3ptr45drop_in_place$LT$proc_macro2..TokenStream$GT$17hf227e3acf52e90acE.llvm.9223229698431298526', symObjAddr: 0x0, symBinAddr: 0x8D240, symSize: 0x140 }
  - { offsetInCU: 0xA81, offset: 0x344F97, size: 0x8, addend: 0x0, symName: '__ZN4core3ptr45drop_in_place$LT$proc_macro2..TokenStream$GT$17hf227e3acf52e90acE.llvm.9223229698431298526', symObjAddr: 0x0, symBinAddr: 0x8D240, symSize: 0x140 }
  - { offsetInCU: 0x1E, offset: 0x345CE0, size: 0x8, addend: 0x0, symName: '__ZN42_$LT$$RF$T$u20$as$u20$core..fmt..Debug$GT$3fmt17h7484e87a385a9111E', symObjAddr: 0x0, symBinAddr: 0x8D380, symSize: 0x20 }
  - { offsetInCU: 0xE5, offset: 0x345DA7, size: 0x8, addend: 0x0, symName: '__ZN42_$LT$$RF$T$u20$as$u20$core..fmt..Debug$GT$3fmt17h7484e87a385a9111E', symObjAddr: 0x0, symBinAddr: 0x8D380, symSize: 0x20 }
  - { offsetInCU: 0x1E, offset: 0x345FB4, size: 0x8, addend: 0x0, symName: __ZN3std10sys_common9backtrace26__rust_end_short_backtrace17hcb147713acdd93b3E, symObjAddr: 0x0, symBinAddr: 0x8D3A0, symSize: 0x10 }
  - { offsetInCU: 0x83, offset: 0x346019, size: 0x8, addend: 0x0, symName: '__ZN3std9panicking11begin_panic28_$u7b$$u7b$closure$u7d$$u7d$17habb4aea92cadc1ccE', symObjAddr: 0x10, symBinAddr: 0x8D3B0, symSize: 0x40 }
  - { offsetInCU: 0x121, offset: 0x3460B7, size: 0x8, addend: 0x0, symName: __ZN3std10sys_common9backtrace26__rust_end_short_backtrace17hcb147713acdd93b3E, symObjAddr: 0x0, symBinAddr: 0x8D3A0, symSize: 0x10 }
  - { offsetInCU: 0x1FB, offset: 0x346191, size: 0x8, addend: 0x0, symName: '__ZN4core3ptr72drop_in_place$LT$std..panicking..begin_panic..Payload$LT$$RF$str$GT$$GT$17h861fbfc9aa719604E', symObjAddr: 0x50, symBinAddr: 0x8D3F0, symSize: 0x6 }
  - { offsetInCU: 0x1E, offset: 0x34625F, size: 0x8, addend: 0x0, symName: '__ZN36_$LT$T$u20$as$u20$core..any..Any$GT$7type_id17h04d908cc2d63132aE', symObjAddr: 0x0, symBinAddr: 0x8D400, symSize: 0x1A }
  - { offsetInCU: 0x3A, offset: 0x34627B, size: 0x8, addend: 0x0, symName: '__ZN36_$LT$T$u20$as$u20$core..any..Any$GT$7type_id17h04d908cc2d63132aE', symObjAddr: 0x0, symBinAddr: 0x8D400, symSize: 0x1A }
  - { offsetInCU: 0x1E, offset: 0x34632C, size: 0x8, addend: 0x0, symName: '__ZN4core3ptr100drop_in_place$LT$core..option..Option$LT$alloc..boxed..Box$LT$syn..path..GenericArgument$GT$$GT$$GT$17h94fb3e089cc53ce6E.llvm.5745853400478960990', symObjAddr: 0x0, symBinAddr: 0x8D420, symSize: 0x50 }
  - { offsetInCU: 0x35, offset: 0x346343, size: 0x8, addend: 0x0, symName: _anon.86aac99bc317abb8a815ead4756780ea.1.llvm.5745853400478960990, symObjAddr: 0x10DC0, symBinAddr: 0x2A4E30, symSize: 0x0 }
  - { offsetInCU: 0x1769, offset: 0x347A77, size: 0x8, addend: 0x0, symName: '__ZN111_$LT$syn..punctuated..PrivateIter$LT$T$C$P$GT$$u20$as$u20$core..iter..traits..exact_size..ExactSizeIterator$GT$3len17h92ce5c6da87f80daE.llvm.5745853400478960990', symObjAddr: 0xE090, symBinAddr: 0x99310, symSize: 0x30 }
  - { offsetInCU: 0x1835, offset: 0x347B43, size: 0x8, addend: 0x0, symName: '__ZN111_$LT$syn..punctuated..PrivateIter$LT$T$C$P$GT$$u20$as$u20$core..iter..traits..exact_size..ExactSizeIterator$GT$3len17hc4c3f93eaf882c9cE.llvm.5745853400478960990', symObjAddr: 0xE0F0, symBinAddr: 0x99340, symSize: 0x0 }
  - { offsetInCU: 0x1A41, offset: 0x347D4F, size: 0x8, addend: 0x0, symName: '__ZN115_$LT$syn..punctuated..PrivateIter$LT$T$C$P$GT$$u20$as$u20$core..iter..traits..double_ended..DoubleEndedIterator$GT$9next_back17h1719cd77e3534833E.llvm.5745853400478960990', symObjAddr: 0xDFA0, symBinAddr: 0x992B0, symSize: 0x30 }
  - { offsetInCU: 0x1CCA, offset: 0x347FD8, size: 0x8, addend: 0x0, symName: '__ZN115_$LT$syn..punctuated..PrivateIter$LT$T$C$P$GT$$u20$as$u20$core..iter..traits..double_ended..DoubleEndedIterator$GT$9next_back17hb56317f5003f8dc8E.llvm.5745853400478960990', symObjAddr: 0xE000, symBinAddr: 0x992E0, symSize: 0x0 }
  - { offsetInCU: 0x211E, offset: 0x34842C, size: 0x8, addend: 0x0, symName: '__ZN100_$LT$syn..punctuated..PrivateIter$LT$T$C$P$GT$$u20$as$u20$core..iter..traits..iterator..Iterator$GT$4next17h07e819cbe2be9842E.llvm.5745853400478960990', symObjAddr: 0xDEE0, symBinAddr: 0x99220, symSize: 0x30 }
  - { offsetInCU: 0x239E, offset: 0x3486AC, size: 0x8, addend: 0x0, symName: '__ZN100_$LT$syn..punctuated..PrivateIter$LT$T$C$P$GT$$u20$as$u20$core..iter..traits..iterator..Iterator$GT$4next17h3055505db3d64e7eE.llvm.5745853400478960990', symObjAddr: 0xDF10, symBinAddr: 0x99250, symSize: 0x0 }
  - { offsetInCU: 0x2643, offset: 0x348951, size: 0x8, addend: 0x0, symName: '__ZN100_$LT$syn..punctuated..PrivateIter$LT$T$C$P$GT$$u20$as$u20$core..iter..traits..iterator..Iterator$GT$4next17h8db26fcf87f6a9c1E.llvm.5745853400478960990', symObjAddr: 0xDF70, symBinAddr: 0x99280, symSize: 0x30 }
  - { offsetInCU: 0x2DA5, offset: 0x3490B3, size: 0x8, addend: 0x0, symName: '__ZN79_$LT$syn..punctuated..Punctuated$LT$T$C$P$GT$$u20$as$u20$core..clone..Clone$GT$5clone17h05f6b895e93d45a2E', symObjAddr: 0xB620, symBinAddr: 0x97CD0, symSize: 0xD0 }
  - { offsetInCU: 0x306E, offset: 0x34937C, size: 0x8, addend: 0x0, symName: '__ZN79_$LT$syn..punctuated..Punctuated$LT$T$C$P$GT$$u20$as$u20$core..clone..Clone$GT$5clone17h0b604dd6105f20b2E', symObjAddr: 0xB7D0, symBinAddr: 0x97DA0, symSize: 0xE0 }
  - { offsetInCU: 0x3338, offset: 0x349646, size: 0x8, addend: 0x0, symName: '__ZN79_$LT$syn..punctuated..Punctuated$LT$T$C$P$GT$$u20$as$u20$core..clone..Clone$GT$5clone17h148863cd508f313fE', symObjAddr: 0xB990, symBinAddr: 0x97E80, symSize: 0xE0 }
  - { offsetInCU: 0x3601, offset: 0x34990F, size: 0x8, addend: 0x0, symName: '__ZN79_$LT$syn..punctuated..Punctuated$LT$T$C$P$GT$$u20$as$u20$core..clone..Clone$GT$5clone17h298cb9db3b496dc1E', symObjAddr: 0xBA70, symBinAddr: 0x97F60, symSize: 0x170 }
  - { offsetInCU: 0x3AA3, offset: 0x349DB1, size: 0x8, addend: 0x0, symName: '__ZN79_$LT$syn..punctuated..Punctuated$LT$T$C$P$GT$$u20$as$u20$core..clone..Clone$GT$5clone17h331bb4f645f2156fE', symObjAddr: 0xBBE0, symBinAddr: 0x980D0, symSize: 0xE0 }
  - { offsetInCU: 0x3D6C, offset: 0x34A07A, size: 0x8, addend: 0x0, symName: '__ZN79_$LT$syn..punctuated..Punctuated$LT$T$C$P$GT$$u20$as$u20$core..clone..Clone$GT$5clone17h55e6cfc9776b7f8fE', symObjAddr: 0xBDA0, symBinAddr: 0x981B0, symSize: 0x1C0 }
  - { offsetInCU: 0x40B6, offset: 0x34A3C4, size: 0x8, addend: 0x0, symName: '__ZN79_$LT$syn..punctuated..Punctuated$LT$T$C$P$GT$$u20$as$u20$core..clone..Clone$GT$5clone17h5d8944468a1debbaE', symObjAddr: 0xC040, symBinAddr: 0x98370, symSize: 0xE0 }
  - { offsetInCU: 0x4380, offset: 0x34A68E, size: 0x8, addend: 0x0, symName: '__ZN79_$LT$syn..punctuated..Punctuated$LT$T$C$P$GT$$u20$as$u20$core..clone..Clone$GT$5clone17heafd3e0fd4cd446dE', symObjAddr: 0xC670, symBinAddr: 0x98450, symSize: 0xE0 }
  - { offsetInCU: 0x464A, offset: 0x34A958, size: 0x8, addend: 0x0, symName: '__ZN79_$LT$syn..punctuated..Punctuated$LT$T$C$P$GT$$u20$as$u20$core..clone..Clone$GT$5clone17hf4b05d9dcc3f4becE', symObjAddr: 0xC750, symBinAddr: 0x98530, symSize: 0xE0 }
  - { offsetInCU: 0x4914, offset: 0x34AC22, size: 0x8, addend: 0x0, symName: '__ZN79_$LT$syn..punctuated..Punctuated$LT$T$C$P$GT$$u20$as$u20$core..clone..Clone$GT$5clone17hf4b4f6c8bf3ad272E', symObjAddr: 0xC830, symBinAddr: 0x98610, symSize: 0xE0 }
  - { offsetInCU: 0x4BDE, offset: 0x34AEEC, size: 0x8, addend: 0x0, symName: '__ZN79_$LT$syn..punctuated..Punctuated$LT$T$C$P$GT$$u20$as$u20$core..clone..Clone$GT$5clone17hfb657b8c0a6ca153E', symObjAddr: 0xC910, symBinAddr: 0x986F0, symSize: 0xE0 }
  - { offsetInCU: 0x4EA8, offset: 0x34B1B6, size: 0x8, addend: 0x0, symName: '__ZN79_$LT$syn..punctuated..Punctuated$LT$T$C$P$GT$$u20$as$u20$core..clone..Clone$GT$5clone17hfeb81901058a14a0E', symObjAddr: 0xC9F0, symBinAddr: 0x987D0, symSize: 0x110 }
  - { offsetInCU: 0x57CD, offset: 0x34BADB, size: 0x8, addend: 0x0, symName: '__ZN138_$LT$syn..punctuated..Punctuated$LT$T$C$P$GT$$u20$as$u20$core..iter..traits..collect..Extend$LT$syn..punctuated..Pair$LT$T$C$P$GT$$GT$$GT$6extend17h974b9b4144a0d846E', symObjAddr: 0xCEE0, symBinAddr: 0x98CC0, symSize: 0x350 }
  - { offsetInCU: 0x5C1F, offset: 0x34BF2D, size: 0x8, addend: 0x0, symName: '__ZN144_$LT$syn..punctuated..Punctuated$LT$T$C$P$GT$$u20$as$u20$core..iter..traits..collect..FromIterator$LT$syn..punctuated..Pair$LT$T$C$P$GT$$GT$$GT$9from_iter17h1fb63741a0ec80c0E', symObjAddr: 0xCB00, symBinAddr: 0x988E0, symSize: 0x3E0 }
  - { offsetInCU: 0x62A2, offset: 0x34C5B0, size: 0x8, addend: 0x0, symName: '__ZN102_$LT$syn..punctuated..Punctuated$LT$T$C$P$GT$$u20$as$u20$core..iter..traits..collect..IntoIterator$GT$9into_iter17h16a65ad7b657c901E', symObjAddr: 0xD230, symBinAddr: 0x99010, symSize: 0x210 }
  - { offsetInCU: 0x7456, offset: 0x34D764, size: 0x8, addend: 0x0, symName: '__ZN57_$LT$I$u20$as$u20$syn..punctuated..IterTrait$LT$T$GT$$GT$9clone_box17h66d1a2e07eeacf68E.llvm.5745853400478960990', symObjAddr: 0xE180, symBinAddr: 0x99370, symSize: 0x60 }
  - { offsetInCU: 0x766A, offset: 0x34D978, size: 0x8, addend: 0x0, symName: '__ZN57_$LT$I$u20$as$u20$syn..punctuated..IterTrait$LT$T$GT$$GT$9clone_box17h84dc693268a669aeE.llvm.5745853400478960990', symObjAddr: 0xE1E0, symBinAddr: 0x993D0, symSize: 0x60 }
  - { offsetInCU: 0x7884, offset: 0x34DB92, size: 0x8, addend: 0x0, symName: '__ZN97_$LT$syn..punctuated..Punctuated$LT$T$C$P$GT$$u20$as$u20$core..ops..index..Index$LT$usize$GT$$GT$5index17hb05ada42f6376c08E', symObjAddr: 0xE2A0, symBinAddr: 0x99430, symSize: 0x50 }
  - { offsetInCU: 0x7A97, offset: 0x34DDA5, size: 0x8, addend: 0x0, symName: '__ZN3syn10punctuated8printing97_$LT$impl$u20$quote..to_tokens..ToTokens$u20$for$u20$syn..punctuated..Punctuated$LT$T$C$P$GT$$GT$9to_tokens17h48d928101cbe0857E', symObjAddr: 0xE380, symBinAddr: 0x99480, symSize: 0x2A0 }
  - { offsetInCU: 0x8365, offset: 0x34E673, size: 0x8, addend: 0x0, symName: '__ZN3syn10punctuated8printing97_$LT$impl$u20$quote..to_tokens..ToTokens$u20$for$u20$syn..punctuated..Punctuated$LT$T$C$P$GT$$GT$9to_tokens17h9e4ca00edda9804bE', symObjAddr: 0xE700, symBinAddr: 0x99720, symSize: 0x140 }
  - { offsetInCU: 0x88CA, offset: 0x34EBD8, size: 0x8, addend: 0x0, symName: '__ZN3syn10punctuated8printing97_$LT$impl$u20$quote..to_tokens..ToTokens$u20$for$u20$syn..punctuated..Punctuated$LT$T$C$P$GT$$GT$9to_tokens17hbfceef9e4c02d3e4E', symObjAddr: 0xE8D0, symBinAddr: 0x99860, symSize: 0x1B0 }
  - { offsetInCU: 0x135EA, offset: 0x3598F8, size: 0x8, addend: 0x0, symName: '__ZN4core3ptr100drop_in_place$LT$core..option..Option$LT$alloc..boxed..Box$LT$syn..path..GenericArgument$GT$$GT$$GT$17h94fb3e089cc53ce6E.llvm.5745853400478960990', symObjAddr: 0x0, symBinAddr: 0x8D420, symSize: 0x50 }
  - { offsetInCU: 0x1375C, offset: 0x359A6A, size: 0x8, addend: 0x0, symName: '__ZN4core3ptr100drop_in_place$LT$syn..punctuated..PrivateIter$LT$syn..path..PathSegment$C$syn..token..Colon2$GT$$GT$17hcae8ad16c2a53f9fE.llvm.5745853400478960990', symObjAddr: 0x50, symBinAddr: 0x8D470, symSize: 0x0 }
  - { offsetInCU: 0x137A7, offset: 0x359AB5, size: 0x8, addend: 0x0, symName: '__ZN4core3ptr101drop_in_place$LT$alloc..vec..Vec$LT$$LP$syn..generics..WherePredicate$C$syn..token..Comma$RP$$GT$$GT$17hfa86c1e95e5ff653E.llvm.5745853400478960990', symObjAddr: 0x60, symBinAddr: 0x8D480, symSize: 0xD0 }
  - { offsetInCU: 0x13BBB, offset: 0x359EC9, size: 0x8, addend: 0x0, symName: '__ZN4core3ptr103drop_in_place$LT$core..option..Option$LT$alloc..boxed..Box$LT$syn..generics..TypeParamBound$GT$$GT$$GT$17h630691d3d4346209E.llvm.5745853400478960990', symObjAddr: 0x130, symBinAddr: 0x8D550, symSize: 0x150 }
  - { offsetInCU: 0x14157, offset: 0x35A465, size: 0x8, addend: 0x0, symName: '__ZN4core3ptr103drop_in_place$LT$syn..punctuated..Punctuated$LT$syn..generics..TypeParamBound$C$syn..token..Add$GT$$GT$17h517181ada56b9062E.llvm.5745853400478960990', symObjAddr: 0x280, symBinAddr: 0x8D6A0, symSize: 0xF0 }
  - { offsetInCU: 0x14676, offset: 0x35A984, size: 0x8, addend: 0x0, symName: '__ZN4core3ptr104drop_in_place$LT$alloc..vec..Vec$LT$$LP$syn..expr..GenericMethodArgument$C$syn..token..Comma$RP$$GT$$GT$17ha26d8b0ad7b2e5efE.llvm.5745853400478960990', symObjAddr: 0x370, symBinAddr: 0x8D790, symSize: 0xF0 }
  - { offsetInCU: 0x1499A, offset: 0x35ACA8, size: 0x8, addend: 0x0, symName: '__ZN4core3ptr108drop_in_place$LT$syn..punctuated..Punctuated$LT$syn..expr..GenericMethodArgument$C$syn..token..Comma$GT$$GT$17h413f77b0de48dbb7E', symObjAddr: 0x460, symBinAddr: 0x8D880, symSize: 0x160 }
  - { offsetInCU: 0x14EAF, offset: 0x35B1BD, size: 0x8, addend: 0x0, symName: '__ZN4core3ptr34drop_in_place$LT$syn..lit..Lit$GT$17heb8f235ab74bc4d4E', symObjAddr: 0x5C0, symBinAddr: 0x8D9E0, symSize: 0x110 }
  - { offsetInCU: 0x153CA, offset: 0x35B6D8, size: 0x8, addend: 0x0, symName: '__ZN4core3ptr34drop_in_place$LT$syn..pat..Pat$GT$17hd6fa3ad4d18570d7E.llvm.5745853400478960990', symObjAddr: 0x6D0, symBinAddr: 0x8DAF0, symSize: 0xB10 }
  - { offsetInCU: 0x18336, offset: 0x35E644, size: 0x8, addend: 0x0, symName: '__ZN4core3ptr34drop_in_place$LT$syn..ty..Type$GT$17hfd9bfeacac76fc9aE.llvm.5745853400478960990', symObjAddr: 0x11E0, symBinAddr: 0x8E600, symSize: 0x510 }
  - { offsetInCU: 0x194C4, offset: 0x35F7D2, size: 0x8, addend: 0x0, symName: '__ZN4core3ptr36drop_in_place$LT$syn..attr..Meta$GT$17hc4f200768162b3d7E', symObjAddr: 0x16F0, symBinAddr: 0x8EB10, symSize: 0x2B0 }
  - { offsetInCU: 0x1A3B9, offset: 0x3606C7, size: 0x8, addend: 0x0, symName: '__ZN4core3ptr36drop_in_place$LT$syn..expr..Expr$GT$17h6b8a9b85afc75571E.llvm.5745853400478960990', symObjAddr: 0x19A0, symBinAddr: 0x8EDC0, symSize: 0x1EB0 }
  - { offsetInCU: 0x22670, offset: 0x36897E, size: 0x8, addend: 0x0, symName: '__ZN4core3ptr36drop_in_place$LT$syn..mac..Macro$GT$17ha661e027deab4b66E', symObjAddr: 0x3850, symBinAddr: 0x90C70, symSize: 0x40 }
  - { offsetInCU: 0x226AA, offset: 0x3689B8, size: 0x8, addend: 0x0, symName: '__ZN4core3ptr36drop_in_place$LT$syn..path..Path$GT$17he4358a51dbdb774bE.llvm.5745853400478960990', symObjAddr: 0x3890, symBinAddr: 0x90CB0, symSize: 0xE0 }
  - { offsetInCU: 0x22984, offset: 0x368C92, size: 0x8, addend: 0x0, symName: '__ZN4core3ptr37drop_in_place$LT$syn..data..Field$GT$17hdbd7b0220783ea3eE.llvm.5745853400478960990', symObjAddr: 0x3970, symBinAddr: 0x90D90, symSize: 0xF0 }
  - { offsetInCU: 0x22CFF, offset: 0x36900D, size: 0x8, addend: 0x0, symName: '__ZN4core3ptr37drop_in_place$LT$syn..item..FnArg$GT$17h2cc574b44d8e55adE.llvm.5745853400478960990', symObjAddr: 0x3A60, symBinAddr: 0x90E80, symSize: 0x1D0 }
  - { offsetInCU: 0x23727, offset: 0x369A35, size: 0x8, addend: 0x0, symName: '__ZN4core3ptr37drop_in_place$LT$syn..stmt..Block$GT$17hfb4d80957646e543E', symObjAddr: 0x3C30, symBinAddr: 0x91050, symSize: 0xD0 }
  - { offsetInCU: 0x239CB, offset: 0x369CD9, size: 0x8, addend: 0x0, symName: '__ZN4core3ptr38drop_in_place$LT$syn..expr..Member$GT$17h3141a26ba2d76dd7E.llvm.5745853400478960990', symObjAddr: 0x3D00, symBinAddr: 0x91120, symSize: 0x30 }
  - { offsetInCU: 0x23AC8, offset: 0x369DD6, size: 0x8, addend: 0x0, symName: '__ZN4core3ptr39drop_in_place$LT$proc_macro2..Ident$GT$17hfc382935d884a247E', symObjAddr: 0x3D30, symBinAddr: 0x91150, symSize: 0x30 }
  - { offsetInCU: 0x23C03, offset: 0x369F11, size: 0x8, addend: 0x0, symName: '__ZN4core3ptr39drop_in_place$LT$syn..data..Variant$GT$17hd26a0c0f65be4b43E', symObjAddr: 0x3D60, symBinAddr: 0x91180, symSize: 0x100 }
  - { offsetInCU: 0x2402A, offset: 0x36A338, size: 0x8, addend: 0x0, symName: '__ZN4core3ptr39drop_in_place$LT$syn..item..UseTree$GT$17h25d9f1648b09fcd7E', symObjAddr: 0x3E60, symBinAddr: 0x91280, symSize: 0xE0 }
  - { offsetInCU: 0x243D3, offset: 0x36A6E1, size: 0x8, addend: 0x0, symName: '__ZN4core3ptr39drop_in_place$LT$syn..pat..FieldPat$GT$17hb90a293469b364cfE.llvm.5745853400478960990', symObjAddr: 0x3F40, symBinAddr: 0x91360, symSize: 0xF0 }
  - { offsetInCU: 0x24837, offset: 0x36AB45, size: 0x8, addend: 0x0, symName: '__ZN4core3ptr39drop_in_place$LT$syn..pat..PatTuple$GT$17h232e0cbeb905e9d9E', symObjAddr: 0x4030, symBinAddr: 0x91450, symSize: 0x80 }
  - { offsetInCU: 0x24A7D, offset: 0x36AD8B, size: 0x8, addend: 0x0, symName: '__ZN4core3ptr39drop_in_place$LT$syn..ty..BareFnArg$GT$17h87c9429bab4ed67aE.llvm.5745853400478960990', symObjAddr: 0x40B0, symBinAddr: 0x914D0, symSize: 0xC0 }
  - { offsetInCU: 0x24D9B, offset: 0x36B0A9, size: 0x8, addend: 0x0, symName: '__ZN4core3ptr40drop_in_place$LT$syn..ty..ReturnType$GT$17h42cc52c006e6d7cdE', symObjAddr: 0x4170, symBinAddr: 0x91590, symSize: 0x50 }
  - { offsetInCU: 0x24F0D, offset: 0x36B21B, size: 0x8, addend: 0x0, symName: '__ZN4core3ptr42drop_in_place$LT$syn..attr..NestedMeta$GT$17h1bcab9f5731da99fE', symObjAddr: 0x41C0, symBinAddr: 0x915E0, symSize: 0x20 }
  - { offsetInCU: 0x24F68, offset: 0x36B276, size: 0x8, addend: 0x0, symName: '__ZN4core3ptr42drop_in_place$LT$syn..data..Visibility$GT$17h788983c5adb3d2ecE', symObjAddr: 0x41E0, symBinAddr: 0x91600, symSize: 0x120 }
  - { offsetInCU: 0x2539B, offset: 0x36B6A9, size: 0x8, addend: 0x0, symName: '__ZN4core3ptr42drop_in_place$LT$syn..expr..FieldValue$GT$17hacce232733994ed0E.llvm.5745853400478960990', symObjAddr: 0x4300, symBinAddr: 0x91720, symSize: 0xD0 }
  - { offsetInCU: 0x2575F, offset: 0x36BA6D, size: 0x8, addend: 0x0, symName: '__ZN4core3ptr43drop_in_place$LT$syn..path..PathSegment$GT$17h018f6e269dc7881fE.llvm.5745853400478960990', symObjAddr: 0x43D0, symBinAddr: 0x917F0, symSize: 0x170 }
  - { offsetInCU: 0x25C91, offset: 0x36BF9F, size: 0x8, addend: 0x0, symName: '__ZN4core3ptr44drop_in_place$LT$syn..lifetime..Lifetime$GT$17h94c9fe51c9dd60c6E.llvm.5745853400478960990', symObjAddr: 0x4540, symBinAddr: 0x91960, symSize: 0x30 }
  - { offsetInCU: 0x25EC4, offset: 0x36C1D2, size: 0x8, addend: 0x0, symName: '__ZN4core3ptr45drop_in_place$LT$proc_macro2..TokenStream$GT$17h44f5bf9c29d914fbE', symObjAddr: 0x4570, symBinAddr: 0x91990, symSize: 0x140 }
  - { offsetInCU: 0x262F5, offset: 0x36C603, size: 0x8, addend: 0x0, symName: '__ZN4core3ptr47drop_in_place$LT$syn..generics..LifetimeDef$GT$17h651f63d4c11a8213E.llvm.5745853400478960990', symObjAddr: 0x46B0, symBinAddr: 0x91AD0, symSize: 0xB0 }
  - { offsetInCU: 0x2664D, offset: 0x36C95B, size: 0x8, addend: 0x0, symName: '__ZN4core3ptr47drop_in_place$LT$syn..path..GenericArgument$GT$17h53f7c77f182368f5E.llvm.5745853400478960990', symObjAddr: 0x4760, symBinAddr: 0x91B80, symSize: 0xE0 }
  - { offsetInCU: 0x269F6, offset: 0x36CD04, size: 0x8, addend: 0x0, symName: '__ZN4core3ptr48drop_in_place$LT$syn..generics..GenericParam$GT$17h495fd5d715ffe02dE.llvm.5745853400478960990', symObjAddr: 0x4840, symBinAddr: 0x91C60, symSize: 0x250 }
  - { offsetInCU: 0x2720E, offset: 0x36D51C, size: 0x8, addend: 0x0, symName: '__ZN4core3ptr50drop_in_place$LT$syn..generics..TypeParamBound$GT$17h6143e12a0db0ceabE.llvm.5745853400478960990', symObjAddr: 0x4A90, symBinAddr: 0x91EB0, symSize: 0x140 }
  - { offsetInCU: 0x27657, offset: 0x36D965, size: 0x8, addend: 0x0, symName: '__ZN4core3ptr50drop_in_place$LT$syn..generics..WherePredicate$GT$17h52fd3a5f40aa25a5E.llvm.5745853400478960990', symObjAddr: 0x4BD0, symBinAddr: 0x91FF0, symSize: 0xD0 }
  - { offsetInCU: 0x277D5, offset: 0x36DAE3, size: 0x8, addend: 0x0, symName: '__ZN4core3ptr53drop_in_place$LT$syn..expr..GenericMethodArgument$GT$17hdc1a6015d0b8f78dE.llvm.5745853400478960990', symObjAddr: 0x4CA0, symBinAddr: 0x920C0, symSize: 0x20 }
  - { offsetInCU: 0x277F2, offset: 0x36DB00, size: 0x8, addend: 0x0, symName: '__ZN4core3ptr58drop_in_place$LT$alloc..vec..Vec$LT$syn..expr..Arm$GT$$GT$17hf30588e63e9aa2acE', symObjAddr: 0x4CC0, symBinAddr: 0x920E0, symSize: 0xD0 }
  - { offsetInCU: 0x27A7F, offset: 0x36DD8D, size: 0x8, addend: 0x0, symName: '__ZN4core3ptr59drop_in_place$LT$alloc..boxed..Box$LT$syn..pat..Pat$GT$$GT$17h8da5d9585b79befeE.llvm.5745853400478960990', symObjAddr: 0x4D90, symBinAddr: 0x921B0, symSize: 0x50 }
  - { offsetInCU: 0x27BDA, offset: 0x36DEE8, size: 0x8, addend: 0x0, symName: '__ZN4core3ptr59drop_in_place$LT$alloc..boxed..Box$LT$syn..ty..Type$GT$$GT$17hfdcfc83ffb884feaE.llvm.5745853400478960990', symObjAddr: 0x4DE0, symBinAddr: 0x92200, symSize: 0x50 }
  - { offsetInCU: 0x27D35, offset: 0x36E043, size: 0x8, addend: 0x0, symName: '__ZN4core3ptr61drop_in_place$LT$alloc..boxed..Box$LT$syn..expr..Expr$GT$$GT$17hd59f20e4896eb10dE.llvm.5745853400478960990', symObjAddr: 0x4F00, symBinAddr: 0x92250, symSize: 0x50 }
  - { offsetInCU: 0x27F0C, offset: 0x36E21A, size: 0x8, addend: 0x0, symName: '__ZN4core3ptr61drop_in_place$LT$syn..path..ParenthesizedGenericArguments$GT$17h2cb12f9d921fc247E.llvm.5745853400478960990', symObjAddr: 0x4F50, symBinAddr: 0x922A0, symSize: 0x170 }
  - { offsetInCU: 0x284E6, offset: 0x36E7F4, size: 0x8, addend: 0x0, symName: '__ZN4core3ptr63drop_in_place$LT$alloc..boxed..Box$LT$syn..lit..LitRepr$GT$$GT$17ha0c79af03c778e78E', symObjAddr: 0x50C0, symBinAddr: 0x92410, symSize: 0x60 }
  - { offsetInCU: 0x287DB, offset: 0x36EAE9, size: 0x8, addend: 0x0, symName: '__ZN4core3ptr64drop_in_place$LT$alloc..boxed..Box$LT$syn..item..UseTree$GT$$GT$17h8781734ad1e82212E', symObjAddr: 0x5120, symBinAddr: 0x92470, symSize: 0x100 }
  - { offsetInCU: 0x28D0D, offset: 0x36F01B, size: 0x8, addend: 0x0, symName: '__ZN4core3ptr64drop_in_place$LT$alloc..boxed..Box$LT$syn..pat..FieldPat$GT$$GT$17h4cf97b08e30ccd11E', symObjAddr: 0x5220, symBinAddr: 0x92570, symSize: 0x100 }
  - { offsetInCU: 0x292EA, offset: 0x36F5F8, size: 0x8, addend: 0x0, symName: '__ZN4core3ptr64drop_in_place$LT$alloc..boxed..Box$LT$syn..ty..BareFnArg$GT$$GT$17h5ed4e7eb5288ceaeE', symObjAddr: 0x5320, symBinAddr: 0x92670, symSize: 0xE0 }
  - { offsetInCU: 0x29770, offset: 0x36FA7E, size: 0x8, addend: 0x0, symName: '__ZN4core3ptr65drop_in_place$LT$core..option..Option$LT$syn..expr..Label$GT$$GT$17hdfb87f4e56640098E', symObjAddr: 0x5400, symBinAddr: 0x92750, symSize: 0x30 }
  - { offsetInCU: 0x298AB, offset: 0x36FBB9, size: 0x8, addend: 0x0, symName: '__ZN4core3ptr66drop_in_place$LT$core..option..Option$LT$syn..ty..Variadic$GT$$GT$17h027f0e707b91e4beE', symObjAddr: 0x5430, symBinAddr: 0x92780, symSize: 0x80 }
  - { offsetInCU: 0x29B01, offset: 0x36FE0F, size: 0x8, addend: 0x0, symName: '__ZN4core3ptr67drop_in_place$LT$alloc..boxed..Box$LT$syn..attr..NestedMeta$GT$$GT$17h324edf8b6da6e1ddE', symObjAddr: 0x54B0, symBinAddr: 0x92800, symSize: 0x60 }
  - { offsetInCU: 0x29C98, offset: 0x36FFA6, size: 0x8, addend: 0x0, symName: '__ZN4core3ptr67drop_in_place$LT$alloc..boxed..Box$LT$syn..expr..FieldValue$GT$$GT$17ha1d27993e02226e2E', symObjAddr: 0x5510, symBinAddr: 0x92860, symSize: 0xF0 }
  - { offsetInCU: 0x2A10A, offset: 0x370418, size: 0x8, addend: 0x0, symName: '__ZN4core3ptr70drop_in_place$LT$$LP$syn..attr..NestedMeta$C$syn..token..Comma$RP$$GT$17hd8511ca3b93f0c74E', symObjAddr: 0x5600, symBinAddr: 0x92950, symSize: 0x20 }
  - { offsetInCU: 0x2A178, offset: 0x370486, size: 0x8, addend: 0x0, symName: '__ZN4core3ptr73drop_in_place$LT$alloc..vec..Vec$LT$syn..generics..TypeParamBound$GT$$GT$17hc3fb8ea7bf24dbfaE.llvm.5745853400478960990', symObjAddr: 0x5620, symBinAddr: 0x92970, symSize: 0xC0 }
  - { offsetInCU: 0x2A418, offset: 0x370726, size: 0x8, addend: 0x0, symName: '__ZN4core3ptr75drop_in_place$LT$alloc..boxed..Box$LT$syn..generics..TypeParamBound$GT$$GT$17hcf1c09bccd64c785E', symObjAddr: 0x56E0, symBinAddr: 0x92A30, symSize: 0x90 }
  - { offsetInCU: 0x2A6DE, offset: 0x3709EC, size: 0x8, addend: 0x0, symName: '__ZN4core3ptr78drop_in_place$LT$alloc..boxed..Box$LT$syn..expr..GenericMethodArgument$GT$$GT$17hc5561f5e7586c250E', symObjAddr: 0x5770, symBinAddr: 0x92AC0, symSize: 0x60 }
  - { offsetInCU: 0x2A910, offset: 0x370C1E, size: 0x8, addend: 0x0, symName: '__ZN4core3ptr78drop_in_place$LT$core..option..Option$LT$syn..generics..BoundLifetimes$GT$$GT$17hc74a275f958fb9a1E.llvm.5745853400478960990', symObjAddr: 0x57D0, symBinAddr: 0x92B20, symSize: 0x130 }
  - { offsetInCU: 0x2AD8A, offset: 0x371098, size: 0x8, addend: 0x0, symName: '__ZN4core3ptr81drop_in_place$LT$$LP$syn..expr..GenericMethodArgument$C$syn..token..Comma$RP$$GT$17h22342e12b11cf758E.llvm.5745853400478960990', symObjAddr: 0x59D0, symBinAddr: 0x92C50, symSize: 0x20 }
  - { offsetInCU: 0x2ADF8, offset: 0x371106, size: 0x8, addend: 0x0, symName: '__ZN4core3ptr82drop_in_place$LT$alloc..vec..Vec$LT$$LP$syn..pat..Pat$C$syn..token..Or$RP$$GT$$GT$17h7b9efba2154d52cfE.llvm.5745853400478960990', symObjAddr: 0x59F0, symBinAddr: 0x92C70, symSize: 0x0 }
  - { offsetInCU: 0x2B0B9, offset: 0x3713C7, size: 0x8, addend: 0x0, symName: '__ZN4core3ptr85drop_in_place$LT$alloc..vec..Vec$LT$$LP$syn..ty..Type$C$syn..token..Comma$RP$$GT$$GT$17hd0918ccb66e8cd8aE.llvm.5745853400478960990', symObjAddr: 0x5AC0, symBinAddr: 0x92D40, symSize: 0xD0 }
  - { offsetInCU: 0x2B3B8, offset: 0x3716C6, size: 0x8, addend: 0x0, symName: '__ZN4core3ptr86drop_in_place$LT$syn..punctuated..Punctuated$LT$syn..pat..Pat$C$syn..token..Or$GT$$GT$17h13896407bc2c03e4E', symObjAddr: 0x5B90, symBinAddr: 0x92E10, symSize: 0x120 }
  - { offsetInCU: 0x2B81D, offset: 0x371B2B, size: 0x8, addend: 0x0, symName: '__ZN4core3ptr87drop_in_place$LT$alloc..vec..Vec$LT$$LP$syn..expr..Expr$C$syn..token..Comma$RP$$GT$$GT$17h1046b42339844121E.llvm.5745853400478960990', symObjAddr: 0x5CB0, symBinAddr: 0x92F30, symSize: 0xD0 }
  - { offsetInCU: 0x2BADE, offset: 0x371DEC, size: 0x8, addend: 0x0, symName: '__ZN4core3ptr87drop_in_place$LT$core..option..Option$LT$alloc..boxed..Box$LT$syn..pat..Pat$GT$$GT$$GT$17h5bd93a2021c10f20E', symObjAddr: 0x5D80, symBinAddr: 0x93000, symSize: 0x50 }
  - { offsetInCU: 0x2BC50, offset: 0x371F5E, size: 0x8, addend: 0x0, symName: '__ZN4core3ptr87drop_in_place$LT$core..option..Option$LT$alloc..boxed..Box$LT$syn..ty..Type$GT$$GT$$GT$17h6936d17ab80112d1E.llvm.5745853400478960990', symObjAddr: 0x5DD0, symBinAddr: 0x93050, symSize: 0x50 }
  - { offsetInCU: 0x2BDE1, offset: 0x3720EF, size: 0x8, addend: 0x0, symName: '__ZN4core3ptr88drop_in_place$LT$alloc..vec..Vec$LT$$LP$syn..data..Field$C$syn..token..Comma$RP$$GT$$GT$17hb0a2c7c7c5b9fa4bE.llvm.5745853400478960990', symObjAddr: 0x5E20, symBinAddr: 0x930A0, symSize: 0xD0 }
  - { offsetInCU: 0x2C0C1, offset: 0x3723CF, size: 0x8, addend: 0x0, symName: '__ZN4core3ptr88drop_in_place$LT$alloc..vec..Vec$LT$$LP$syn..item..FnArg$C$syn..token..Comma$RP$$GT$$GT$17h82e280faaf0fbbdcE.llvm.5745853400478960990', symObjAddr: 0x5EF0, symBinAddr: 0x93170, symSize: 0xE0 }
  - { offsetInCU: 0x2C38F, offset: 0x37269D, size: 0x8, addend: 0x0, symName: '__ZN4core3ptr89drop_in_place$LT$core..option..Option$LT$alloc..boxed..Box$LT$syn..expr..Expr$GT$$GT$$GT$17h9285f9bb32cfe7feE', symObjAddr: 0x5FD0, symBinAddr: 0x93250, symSize: 0x50 }
  - { offsetInCU: 0x2C53F, offset: 0x37284D, size: 0x8, addend: 0x0, symName: '__ZN4core3ptr89drop_in_place$LT$syn..punctuated..Punctuated$LT$syn..pat..Pat$C$syn..token..Comma$GT$$GT$17h7cc94aacc194d79fE', symObjAddr: 0x6020, symBinAddr: 0x932A0, symSize: 0x120 }
  - { offsetInCU: 0x2C99C, offset: 0x372CAA, size: 0x8, addend: 0x0, symName: '__ZN4core3ptr89drop_in_place$LT$syn..punctuated..Punctuated$LT$syn..ty..Type$C$syn..token..Comma$GT$$GT$17h97ea2b625b494840E.llvm.5745853400478960990', symObjAddr: 0x6140, symBinAddr: 0x933C0, symSize: 0x120 }
  - { offsetInCU: 0x2CE05, offset: 0x373113, size: 0x8, addend: 0x0, symName: '__ZN4core3ptr90drop_in_place$LT$alloc..vec..Vec$LT$$LP$syn..data..Variant$C$syn..token..Comma$RP$$GT$$GT$17hf9e2a7e404df99d4E.llvm.5745853400478960990', symObjAddr: 0x6260, symBinAddr: 0x934E0, symSize: 0xD0 }
  - { offsetInCU: 0x2D0E5, offset: 0x3733F3, size: 0x8, addend: 0x0, symName: '__ZN4core3ptr90drop_in_place$LT$alloc..vec..Vec$LT$$LP$syn..item..UseTree$C$syn..token..Comma$RP$$GT$$GT$17h73fcef4e26e60fc8E.llvm.5745853400478960990', symObjAddr: 0x6330, symBinAddr: 0x935B0, symSize: 0xC0 }
  - { offsetInCU: 0x2D3A6, offset: 0x3736B4, size: 0x8, addend: 0x0, symName: '__ZN4core3ptr90drop_in_place$LT$alloc..vec..Vec$LT$$LP$syn..pat..FieldPat$C$syn..token..Comma$RP$$GT$$GT$17hc80738f49e87f6d9E.llvm.5745853400478960990', symObjAddr: 0x63F0, symBinAddr: 0x93670, symSize: 0xD0 }
  - { offsetInCU: 0x2D633, offset: 0x373941, size: 0x8, addend: 0x0, symName: '__ZN4core3ptr90drop_in_place$LT$alloc..vec..Vec$LT$$LP$syn..ty..BareFnArg$C$syn..token..Comma$RP$$GT$$GT$17hbd76d24fe8c4c37fE.llvm.5745853400478960990', symObjAddr: 0x64C0, symBinAddr: 0x93740, symSize: 0xD0 }
  - { offsetInCU: 0x2D8DF, offset: 0x373BED, size: 0x8, addend: 0x0, symName: '__ZN4core3ptr90drop_in_place$LT$core..option..Option$LT$alloc..boxed..Box$LT$syn..data..Field$GT$$GT$$GT$17hc50e2375b7e440f8E.llvm.5745853400478960990', symObjAddr: 0x6590, symBinAddr: 0x93810, symSize: 0x50 }
  - { offsetInCU: 0x2DA63, offset: 0x373D71, size: 0x8, addend: 0x0, symName: '__ZN4core3ptr91drop_in_place$LT$syn..punctuated..Punctuated$LT$syn..expr..Expr$C$syn..token..Comma$GT$$GT$17h89eb145173101a03E.llvm.5745853400478960990', symObjAddr: 0x65E0, symBinAddr: 0x93860, symSize: 0x120 }
  - { offsetInCU: 0x2DEDF, offset: 0x3741ED, size: 0x8, addend: 0x0, symName: '__ZN4core3ptr92drop_in_place$LT$core..option..Option$LT$alloc..boxed..Box$LT$syn..data..Variant$GT$$GT$$GT$17h4d028927cbe2de32E', symObjAddr: 0x6700, symBinAddr: 0x93980, symSize: 0x50 }
  - { offsetInCU: 0x2E082, offset: 0x374390, size: 0x8, addend: 0x0, symName: '__ZN4core3ptr92drop_in_place$LT$syn..punctuated..Punctuated$LT$syn..data..Field$C$syn..token..Comma$GT$$GT$17h06dd862f8e9aabb5E', symObjAddr: 0x6750, symBinAddr: 0x939D0, symSize: 0x120 }
  - { offsetInCU: 0x2E4DE, offset: 0x3747EC, size: 0x8, addend: 0x0, symName: '__ZN4core3ptr93drop_in_place$LT$alloc..vec..Vec$LT$$LP$syn..expr..FieldValue$C$syn..token..Comma$RP$$GT$$GT$17hce8281d7a178e43fE.llvm.5745853400478960990', symObjAddr: 0x6930, symBinAddr: 0x93AF0, symSize: 0xD0 }
  - { offsetInCU: 0x2E78A, offset: 0x374A98, size: 0x8, addend: 0x0, symName: '__ZN4core3ptr93drop_in_place$LT$alloc..vec..Vec$LT$$LP$syn..lifetime..Lifetime$C$syn..token..Add$RP$$GT$$GT$17hf124aced7e156f41E.llvm.5745853400478960990', symObjAddr: 0x6A00, symBinAddr: 0x93BC0, symSize: 0x80 }
  - { offsetInCU: 0x2EA4F, offset: 0x374D5D, size: 0x8, addend: 0x0, symName: '__ZN4core3ptr94drop_in_place$LT$syn..punctuated..Punctuated$LT$syn..data..Variant$C$syn..token..Comma$GT$$GT$17h444850e5fc0890a9E', symObjAddr: 0x6A80, symBinAddr: 0x93C40, symSize: 0x120 }
  - { offsetInCU: 0x2EECA, offset: 0x3751D8, size: 0x8, addend: 0x0, symName: '__ZN4core3ptr94drop_in_place$LT$syn..punctuated..Punctuated$LT$syn..item..UseTree$C$syn..token..Comma$GT$$GT$17h0f648ee71b64a47eE', symObjAddr: 0x6BA0, symBinAddr: 0x93D60, symSize: 0xF0 }
  - { offsetInCU: 0x2F1DB, offset: 0x3754E9, size: 0x8, addend: 0x0, symName: '__ZN4core3ptr94drop_in_place$LT$syn..punctuated..Punctuated$LT$syn..pat..FieldPat$C$syn..token..Comma$GT$$GT$17hdbbfc15c48c312e3E', symObjAddr: 0x6C90, symBinAddr: 0x93E50, symSize: 0xF0 }
  - { offsetInCU: 0x2F4A5, offset: 0x3757B3, size: 0x8, addend: 0x0, symName: '__ZN4core3ptr94drop_in_place$LT$syn..punctuated..Punctuated$LT$syn..ty..BareFnArg$C$syn..token..Comma$GT$$GT$17h4e6d5a703b32a850E', symObjAddr: 0x6D80, symBinAddr: 0x93F40, symSize: 0xF0 }
  - { offsetInCU: 0x2F76F, offset: 0x375A7D, size: 0x8, addend: 0x0, symName: '__ZN4core3ptr95drop_in_place$LT$alloc..vec..Vec$LT$$LP$syn..path..PathSegment$C$syn..token..Colon2$RP$$GT$$GT$17h8a20be56ff255edbE.llvm.5745853400478960990', symObjAddr: 0x6E70, symBinAddr: 0x94030, symSize: 0xD0 }
  - { offsetInCU: 0x2F9FC, offset: 0x375D0A, size: 0x8, addend: 0x0, symName: '__ZN4core3ptr95drop_in_place$LT$core..option..Option$LT$$LP$proc_macro2..Ident$C$syn..token..Colon$RP$$GT$$GT$17h554f9e23e9e60ecbE.llvm.5745853400478960990', symObjAddr: 0x6F40, symBinAddr: 0x94100, symSize: 0x30 }
  - { offsetInCU: 0x2FB56, offset: 0x375E64, size: 0x8, addend: 0x0, symName: '__ZN4core3ptr96drop_in_place$LT$core..option..Option$LT$alloc..boxed..Box$LT$syn..path..PathSegment$GT$$GT$$GT$17he2148fc749fa4ba5E.llvm.5745853400478960990', symObjAddr: 0x6F70, symBinAddr: 0x94130, symSize: 0x180 }
  - { offsetInCU: 0x30263, offset: 0x376571, size: 0x8, addend: 0x0, symName: '__ZN4core3ptr97drop_in_place$LT$syn..punctuated..Punctuated$LT$syn..attr..NestedMeta$C$syn..token..Comma$GT$$GT$17h9b1dcac83a9b8878E', symObjAddr: 0x7140, symBinAddr: 0x942B0, symSize: 0x130 }
  - { offsetInCU: 0x306A3, offset: 0x3769B1, size: 0x8, addend: 0x0, symName: '__ZN4core3ptr97drop_in_place$LT$syn..punctuated..Punctuated$LT$syn..expr..FieldValue$C$syn..token..Comma$GT$$GT$17h32c10a095b2e74c7E', symObjAddr: 0x7270, symBinAddr: 0x943E0, symSize: 0xF0 }
  - { offsetInCU: 0x309AB, offset: 0x376CB9, size: 0x8, addend: 0x0, symName: '__ZN4core3ptr97drop_in_place$LT$syn..punctuated..Punctuated$LT$syn..lifetime..Lifetime$C$syn..token..Add$GT$$GT$17h75f9c8a38e93dfefE.llvm.5745853400478960990', symObjAddr: 0x7360, symBinAddr: 0x944D0, symSize: 0xC0 }
  - { offsetInCU: 0x30E23, offset: 0x377131, size: 0x8, addend: 0x0, symName: '__ZN4core3ptr98drop_in_place$LT$alloc..vec..Vec$LT$$LP$syn..generics..LifetimeDef$C$syn..token..Comma$RP$$GT$$GT$17h7770a583bc6207c7E.llvm.5745853400478960990', symObjAddr: 0x7420, symBinAddr: 0x94590, symSize: 0xC0 }
  - { offsetInCU: 0x310B0, offset: 0x3773BE, size: 0x8, addend: 0x0, symName: '__ZN4core3ptr98drop_in_place$LT$alloc..vec..Vec$LT$$LP$syn..path..GenericArgument$C$syn..token..Comma$RP$$GT$$GT$17h1c044bcaeddbca46E.llvm.5745853400478960990', symObjAddr: 0x74E0, symBinAddr: 0x94650, symSize: 0xD0 }
  - { offsetInCU: 0x313B9, offset: 0x3776C7, size: 0x8, addend: 0x0, symName: '__ZN4core3ptr98drop_in_place$LT$syn..punctuated..IntoPairs$LT$syn..path..PathSegment$C$syn..token..Colon2$GT$$GT$17h8c6e3e5ef8a6ffacE', symObjAddr: 0x75B0, symBinAddr: 0x94720, symSize: 0x50 }
  - { offsetInCU: 0x314AE, offset: 0x3777BC, size: 0x8, addend: 0x0, symName: '__ZN4core3ptr99drop_in_place$LT$alloc..vec..Vec$LT$$LP$syn..generics..GenericParam$C$syn..token..Comma$RP$$GT$$GT$17hd42f968eb7fd9adcE.llvm.5745853400478960990', symObjAddr: 0x7600, symBinAddr: 0x94770, symSize: 0x60 }
  - { offsetInCU: 0x316B6, offset: 0x3779C4, size: 0x8, addend: 0x0, symName: '__ZN4core3ptr99drop_in_place$LT$alloc..vec..Vec$LT$$LP$syn..generics..TypeParamBound$C$syn..token..Add$RP$$GT$$GT$17he26b465208e4977eE.llvm.5745853400478960990', symObjAddr: 0x7660, symBinAddr: 0x947D0, symSize: 0x60 }
  - { offsetInCU: 0x318CA, offset: 0x377BD8, size: 0x8, addend: 0x0, symName: '__ZN4core3ptr99drop_in_place$LT$syn..punctuated..Punctuated$LT$syn..path..PathSegment$C$syn..token..Colon2$GT$$GT$17hdafb3e0018003811E', symObjAddr: 0x76C0, symBinAddr: 0x94830, symSize: 0x120 }
  - { offsetInCU: 0x3ABE4, offset: 0x380EF2, size: 0x8, addend: 0x0, symName: __ZN4core4iter6traits10exact_size17ExactSizeIterator8is_empty17h2ccf72f40af2eca3E.llvm.5745853400478960990, symObjAddr: 0x77E0, symBinAddr: 0x94950, symSize: 0x0 }
  - { offsetInCU: 0x3AD8C, offset: 0x38109A, size: 0x8, addend: 0x0, symName: __ZN4core4iter6traits10exact_size17ExactSizeIterator8is_empty17h2e6cd31eb902198aE.llvm.5745853400478960990, symObjAddr: 0x7810, symBinAddr: 0x94980, symSize: 0x30 }
  - { offsetInCU: 0x3AED9, offset: 0x3811E7, size: 0x8, addend: 0x0, symName: __ZN4core4iter6traits12double_ended19DoubleEndedIterator15advance_back_by17h15db7909c773b9b4E.llvm.5745853400478960990, symObjAddr: 0x78A0, symBinAddr: 0x949B0, symSize: 0x0 }
  - { offsetInCU: 0x3B0CB, offset: 0x3813D9, size: 0x8, addend: 0x0, symName: __ZN4core4iter6traits12double_ended19DoubleEndedIterator15advance_back_by17hc007efa3cb80a788E.llvm.5745853400478960990, symObjAddr: 0x7990, symBinAddr: 0x94A30, symSize: 0x70 }
  - { offsetInCU: 0x3B309, offset: 0x381617, size: 0x8, addend: 0x0, symName: __ZN4core4iter6traits12double_ended19DoubleEndedIterator8nth_back17h248c641b8fdf0d04E.llvm.5745853400478960990, symObjAddr: 0x7A80, symBinAddr: 0x94AA0, symSize: 0xB0 }
  - { offsetInCU: 0x3B7DE, offset: 0x381AEC, size: 0x8, addend: 0x0, symName: __ZN4core4iter6traits12double_ended19DoubleEndedIterator8nth_back17h52b7b5527355f8b4E.llvm.5745853400478960990, symObjAddr: 0x7BE0, symBinAddr: 0x94B50, symSize: 0x0 }
  - { offsetInCU: 0x3BC73, offset: 0x381F81, size: 0x8, addend: 0x0, symName: __ZN4core4iter6traits8iterator8Iterator10advance_by17h41bbe795f06391f2E.llvm.5745853400478960990, symObjAddr: 0x7D40, symBinAddr: 0x94C00, symSize: 0x0 }
  - { offsetInCU: 0x3BF7A, offset: 0x382288, size: 0x8, addend: 0x0, symName: __ZN4core4iter6traits8iterator8Iterator10advance_by17h7ca9d02e3c70b721E.llvm.5745853400478960990, symObjAddr: 0x7E10, symBinAddr: 0x94C70, symSize: 0x60 }
  - { offsetInCU: 0x3C2D2, offset: 0x3825E0, size: 0x8, addend: 0x0, symName: __ZN4core4iter6traits8iterator8Iterator3nth17h74bb3787d5dc96e4E.llvm.5745853400478960990, symObjAddr: 0x7F60, symBinAddr: 0x94CD0, symSize: 0x80 }
  - { offsetInCU: 0x3C8C9, offset: 0x382BD7, size: 0x8, addend: 0x0, symName: __ZN4core4iter6traits8iterator8Iterator3nth17ha042fd3e9c6a536eE.llvm.5745853400478960990, symObjAddr: 0x8060, symBinAddr: 0x94D50, symSize: 0x0 }
  - { offsetInCU: 0x3CE6F, offset: 0x38317D, size: 0x8, addend: 0x0, symName: __ZN4core4iter6traits8iterator8Iterator9size_hint17h471030ec5cecdfd6E.llvm.5745853400478960990, symObjAddr: 0x80E0, symBinAddr: 0x94DD0, symSize: 0x0 }
  - { offsetInCU: 0x3E8F6, offset: 0x384C04, size: 0x8, addend: 0x0, symName: _anon.86aac99bc317abb8a815ead4756780ea.7.llvm.5745853400478960990, symObjAddr: 0x10FE8, symBinAddr: 0x2A4EE8, symSize: 0x0 }
  - { offsetInCU: 0x4085A, offset: 0x386B68, size: 0x8, addend: 0x0, symName: '__ZN3syn10punctuated23Punctuated$LT$T$C$P$GT$4iter17hfe2c07133e028dc1E', symObjAddr: 0x82F0, symBinAddr: 0x94DF0, symSize: 0x70 }
  - { offsetInCU: 0x411E1, offset: 0x3874EF, size: 0x8, addend: 0x0, symName: '__ZN3syn10punctuated23Punctuated$LT$T$C$P$GT$10push_value17h1f96b4b5905731b7E', symObjAddr: 0x87B0, symBinAddr: 0x94E60, symSize: 0xD0 }
  - { offsetInCU: 0x4141B, offset: 0x387729, size: 0x8, addend: 0x0, symName: '__ZN3syn10punctuated23Punctuated$LT$T$C$P$GT$10push_value17h27cd2847ab41df89E', symObjAddr: 0x8880, symBinAddr: 0x94F30, symSize: 0xE0 }
  - { offsetInCU: 0x4175F, offset: 0x387A6D, size: 0x8, addend: 0x0, symName: '__ZN3syn10punctuated23Punctuated$LT$T$C$P$GT$10push_value17h3631549f31b7c8d1E', symObjAddr: 0x8960, symBinAddr: 0x95010, symSize: 0x0 }
  - { offsetInCU: 0x41999, offset: 0x387CA7, size: 0x8, addend: 0x0, symName: '__ZN3syn10punctuated23Punctuated$LT$T$C$P$GT$10push_value17h3f64fe3a81cf27c5E', symObjAddr: 0x8A30, symBinAddr: 0x950E0, symSize: 0xD0 }
  - { offsetInCU: 0x41BD3, offset: 0x387EE1, size: 0x8, addend: 0x0, symName: '__ZN3syn10punctuated23Punctuated$LT$T$C$P$GT$10push_value17h3f7207c7c94a3cafE', symObjAddr: 0x8B00, symBinAddr: 0x951B0, symSize: 0xD0 }
  - { offsetInCU: 0x41DF6, offset: 0x388104, size: 0x8, addend: 0x0, symName: '__ZN3syn10punctuated23Punctuated$LT$T$C$P$GT$10push_value17h55fae555b25e32e1E', symObjAddr: 0x8BD0, symBinAddr: 0x95280, symSize: 0xA0 }
  - { offsetInCU: 0x42040, offset: 0x38834E, size: 0x8, addend: 0x0, symName: '__ZN3syn10punctuated23Punctuated$LT$T$C$P$GT$10push_value17h5bef68dea934e868E', symObjAddr: 0x8C70, symBinAddr: 0x95320, symSize: 0xD0 }
  - { offsetInCU: 0x4227A, offset: 0x388588, size: 0x8, addend: 0x0, symName: '__ZN3syn10punctuated23Punctuated$LT$T$C$P$GT$10push_value17h8ac9dd5b365e8916E', symObjAddr: 0x8D40, symBinAddr: 0x953F0, symSize: 0xA0 }
  - { offsetInCU: 0x4249D, offset: 0x3887AB, size: 0x8, addend: 0x0, symName: '__ZN3syn10punctuated23Punctuated$LT$T$C$P$GT$10push_value17h93ee62aadaea3d28E', symObjAddr: 0x8DE0, symBinAddr: 0x95490, symSize: 0xD0 }
  - { offsetInCU: 0x426D7, offset: 0x3889E5, size: 0x8, addend: 0x0, symName: '__ZN3syn10punctuated23Punctuated$LT$T$C$P$GT$10push_value17h965bdaf4a056752fE', symObjAddr: 0x8EB0, symBinAddr: 0x95560, symSize: 0xD0 }
  - { offsetInCU: 0x42911, offset: 0x388C1F, size: 0x8, addend: 0x0, symName: '__ZN3syn10punctuated23Punctuated$LT$T$C$P$GT$10push_value17h976aff80ec93af0aE', symObjAddr: 0x8F80, symBinAddr: 0x95630, symSize: 0xA0 }
  - { offsetInCU: 0x42B5B, offset: 0x388E69, size: 0x8, addend: 0x0, symName: '__ZN3syn10punctuated23Punctuated$LT$T$C$P$GT$10push_value17ha326c6d6b34b530fE', symObjAddr: 0x9020, symBinAddr: 0x956D0, symSize: 0xD0 }
  - { offsetInCU: 0x42D8B, offset: 0x389099, size: 0x8, addend: 0x0, symName: '__ZN3syn10punctuated23Punctuated$LT$T$C$P$GT$10push_value17hc2de9db5d2432af8E', symObjAddr: 0x90F0, symBinAddr: 0x957A0, symSize: 0xD0 }
  - { offsetInCU: 0x42FC5, offset: 0x3892D3, size: 0x8, addend: 0x0, symName: '__ZN3syn10punctuated23Punctuated$LT$T$C$P$GT$10push_value17hda0a5b574d9abe76E', symObjAddr: 0x91C0, symBinAddr: 0x95870, symSize: 0xD0 }
  - { offsetInCU: 0x43226, offset: 0x389534, size: 0x8, addend: 0x0, symName: '__ZN3syn10punctuated23Punctuated$LT$T$C$P$GT$10push_punct17h1efeddece8fd0c68E', symObjAddr: 0x9290, symBinAddr: 0x95940, symSize: 0xE0 }
  - { offsetInCU: 0x435C5, offset: 0x3898D3, size: 0x8, addend: 0x0, symName: '__ZN3syn10punctuated23Punctuated$LT$T$C$P$GT$10push_punct17h32f59bda26b47116E', symObjAddr: 0x9370, symBinAddr: 0x95A20, symSize: 0xE0 }
  - { offsetInCU: 0x43964, offset: 0x389C72, size: 0x8, addend: 0x0, symName: '__ZN3syn10punctuated23Punctuated$LT$T$C$P$GT$10push_punct17h3b30c1574a386503E', symObjAddr: 0x9450, symBinAddr: 0x95B00, symSize: 0xD0 }
  - { offsetInCU: 0x43D03, offset: 0x38A011, size: 0x8, addend: 0x0, symName: '__ZN3syn10punctuated23Punctuated$LT$T$C$P$GT$10push_punct17h4d01c4240d7cf3daE', symObjAddr: 0x9520, symBinAddr: 0x95BD0, symSize: 0xC0 }
  - { offsetInCU: 0x440EF, offset: 0x38A3FD, size: 0x8, addend: 0x0, symName: '__ZN3syn10punctuated23Punctuated$LT$T$C$P$GT$10push_punct17h530a4a32fa530e51E', symObjAddr: 0x95E0, symBinAddr: 0x95C90, symSize: 0x110 }
  - { offsetInCU: 0x445DD, offset: 0x38A8EB, size: 0x8, addend: 0x0, symName: '__ZN3syn10punctuated23Punctuated$LT$T$C$P$GT$10push_punct17h7be5b31f64cad6a1E', symObjAddr: 0x96F0, symBinAddr: 0x95DA0, symSize: 0xE0 }
  - { offsetInCU: 0x44989, offset: 0x38AC97, size: 0x8, addend: 0x0, symName: '__ZN3syn10punctuated23Punctuated$LT$T$C$P$GT$10push_punct17h82c6a12e332f8231E', symObjAddr: 0x97D0, symBinAddr: 0x95E80, symSize: 0xD0 }
  - { offsetInCU: 0x44D28, offset: 0x38B036, size: 0x8, addend: 0x0, symName: '__ZN3syn10punctuated23Punctuated$LT$T$C$P$GT$10push_punct17h932739dca730138eE', symObjAddr: 0x98A0, symBinAddr: 0x95F50, symSize: 0xE0 }
  - { offsetInCU: 0x450C7, offset: 0x38B3D5, size: 0x8, addend: 0x0, symName: '__ZN3syn10punctuated23Punctuated$LT$T$C$P$GT$10push_punct17hb6efe139e19fdcf1E', symObjAddr: 0x9980, symBinAddr: 0x96030, symSize: 0xE0 }
  - { offsetInCU: 0x45480, offset: 0x38B78E, size: 0x8, addend: 0x0, symName: '__ZN3syn10punctuated23Punctuated$LT$T$C$P$GT$10push_punct17hbd050ee37e064e89E', symObjAddr: 0x9A60, symBinAddr: 0x96110, symSize: 0xE0 }
  - { offsetInCU: 0x4581F, offset: 0x38BB2D, size: 0x8, addend: 0x0, symName: '__ZN3syn10punctuated23Punctuated$LT$T$C$P$GT$10push_punct17hbd0e11a05555d8b2E', symObjAddr: 0x9B40, symBinAddr: 0x961F0, symSize: 0xE0 }
  - { offsetInCU: 0x45BBE, offset: 0x38BECC, size: 0x8, addend: 0x0, symName: '__ZN3syn10punctuated23Punctuated$LT$T$C$P$GT$10push_punct17hca6adcb989d3d847E', symObjAddr: 0x9C20, symBinAddr: 0x962D0, symSize: 0xE0 }
  - { offsetInCU: 0x45F52, offset: 0x38C260, size: 0x8, addend: 0x0, symName: '__ZN3syn10punctuated23Punctuated$LT$T$C$P$GT$10push_punct17hcb292321c86b633cE', symObjAddr: 0x9D00, symBinAddr: 0x963B0, symSize: 0xE0 }
  - { offsetInCU: 0x462F1, offset: 0x38C5FF, size: 0x8, addend: 0x0, symName: '__ZN3syn10punctuated23Punctuated$LT$T$C$P$GT$10push_punct17hcecd6bb258e7a35eE', symObjAddr: 0x9DE0, symBinAddr: 0x96490, symSize: 0xE0 }
  - { offsetInCU: 0x46670, offset: 0x38C97E, size: 0x8, addend: 0x0, symName: '__ZN3syn10punctuated23Punctuated$LT$T$C$P$GT$10push_punct17heb266034313ce098E', symObjAddr: 0x9EC0, symBinAddr: 0x96570, symSize: 0xC0 }
  - { offsetInCU: 0x46A0F, offset: 0x38CD1D, size: 0x8, addend: 0x0, symName: '__ZN3syn10punctuated23Punctuated$LT$T$C$P$GT$10push_punct17heb5b0f0dc57ef8e2E', symObjAddr: 0x9F80, symBinAddr: 0x96630, symSize: 0x100 }
  - { offsetInCU: 0x46E69, offset: 0x38D177, size: 0x8, addend: 0x0, symName: '__ZN3syn10punctuated23Punctuated$LT$T$C$P$GT$3pop17h3b73ae520443f651E', symObjAddr: 0xA080, symBinAddr: 0x96730, symSize: 0xB0 }
  - { offsetInCU: 0x47260, offset: 0x38D56E, size: 0x8, addend: 0x0, symName: '__ZN3syn10punctuated23Punctuated$LT$T$C$P$GT$4push17h783df737f61dbef4E', symObjAddr: 0xA130, symBinAddr: 0x967E0, symSize: 0x130 }
  - { offsetInCU: 0x47574, offset: 0x38D882, size: 0x8, addend: 0x0, symName: '__ZN3syn10punctuated23Punctuated$LT$T$C$P$GT$6insert17h75ba781ee8e6df80E', symObjAddr: 0xA260, symBinAddr: 0x96910, symSize: 0x170 }
  - { offsetInCU: 0x478DB, offset: 0x38DBE9, size: 0x8, addend: 0x0, symName: '__ZN3syn10punctuated23Punctuated$LT$T$C$P$GT$5clear17h05cd5f886edd7731E', symObjAddr: 0xA3D0, symBinAddr: 0x96A80, symSize: 0x90 }
  - { offsetInCU: 0x47B87, offset: 0x38DE95, size: 0x8, addend: 0x0, symName: '__ZN3syn10punctuated23Punctuated$LT$T$C$P$GT$21parse_terminated_with17h3e9dd6595479c854E', symObjAddr: 0xA460, symBinAddr: 0x96B10, symSize: 0x200 }
  - { offsetInCU: 0x48086, offset: 0x38E394, size: 0x8, addend: 0x0, symName: '__ZN3syn10punctuated23Punctuated$LT$T$C$P$GT$21parse_terminated_with17h617309f26a2da64aE', symObjAddr: 0xA660, symBinAddr: 0x96D10, symSize: 0x350 }
  - { offsetInCU: 0x48899, offset: 0x38EBA7, size: 0x8, addend: 0x0, symName: '__ZN3syn10punctuated23Punctuated$LT$T$C$P$GT$21parse_terminated_with17h7c4e9770f41cadf4E', symObjAddr: 0xA9B0, symBinAddr: 0x97060, symSize: 0x1F0 }
  - { offsetInCU: 0x48DB2, offset: 0x38F0C0, size: 0x8, addend: 0x0, symName: '__ZN3syn10punctuated23Punctuated$LT$T$C$P$GT$21parse_terminated_with17ha5651341db98160bE', symObjAddr: 0xABA0, symBinAddr: 0x97250, symSize: 0x330 }
  - { offsetInCU: 0x49786, offset: 0x38FA94, size: 0x8, addend: 0x0, symName: '__ZN3syn10punctuated23Punctuated$LT$T$C$P$GT$21parse_terminated_with17hc5d46da97c17f695E', symObjAddr: 0xAED0, symBinAddr: 0x97580, symSize: 0x410 }
  - { offsetInCU: 0x4A129, offset: 0x390437, size: 0x8, addend: 0x0, symName: '__ZN3syn10punctuated23Punctuated$LT$T$C$P$GT$21parse_terminated_with17hf6abf8ee882cc326E', symObjAddr: 0xB2E0, symBinAddr: 0x97990, symSize: 0x340 }
  - { offsetInCU: 0x1E, offset: 0x397B30, size: 0x8, addend: 0x0, symName: '__ZN4core3ptr100drop_in_place$LT$$LP$syn..data..Visibility$C$core..option..Option$LT$syn..token..Default$GT$$RP$$GT$17h3ed30463118d8c03E', symObjAddr: 0x0, symBinAddr: 0x99A10, symSize: 0x60 }
  - { offsetInCU: 0x99, offset: 0x397BAB, size: 0x8, addend: 0x0, symName: '__ZN58_$LT$alloc..string..String$u20$as$u20$core..fmt..Write$GT$10write_char17hd329c0cb943f081aE', symObjAddr: 0x8E70, symBinAddr: 0xA2830, symSize: 0x130 }
  - { offsetInCU: 0x440, offset: 0x397F52, size: 0x8, addend: 0x0, symName: '__ZN58_$LT$alloc..string..String$u20$as$u20$core..fmt..Write$GT$9write_str17h1ff5aa96ca91c6d5E', symObjAddr: 0x8FA0, symBinAddr: 0xA2960, symSize: 0x60 }
  - { offsetInCU: 0x1CC0, offset: 0x3997D2, size: 0x8, addend: 0x0, symName: __ZN5alloc5alloc15exchange_malloc17h2bebe260214df546E, symObjAddr: 0x9080, symBinAddr: 0xA2A40, symSize: 0x40 }
  - { offsetInCU: 0x4BA9, offset: 0x39C6BB, size: 0x8, addend: 0x0, symName: '__ZN4core3ptr100drop_in_place$LT$$LP$syn..data..Visibility$C$core..option..Option$LT$syn..token..Default$GT$$RP$$GT$17h3ed30463118d8c03E', symObjAddr: 0x0, symBinAddr: 0x99A10, symSize: 0x60 }
  - { offsetInCU: 0x4D59, offset: 0x39C86B, size: 0x8, addend: 0x0, symName: '__ZN4core3ptr100drop_in_place$LT$core..option..Option$LT$alloc..boxed..Box$LT$syn..path..GenericArgument$GT$$GT$$GT$17h94fb3e089cc53ce6E', symObjAddr: 0x60, symBinAddr: 0x99A70, symSize: 0x50 }
  - { offsetInCU: 0x503F, offset: 0x39CB51, size: 0x8, addend: 0x0, symName: '__ZN4core3ptr101drop_in_place$LT$core..option..Option$LT$alloc..boxed..Box$LT$syn..generics..GenericParam$GT$$GT$$GT$17hddd995aa16037695E', symObjAddr: 0xB0, symBinAddr: 0x99AC0, symSize: 0x260 }
  - { offsetInCU: 0x5A70, offset: 0x39D582, size: 0x8, addend: 0x0, symName: '__ZN4core3ptr103drop_in_place$LT$core..option..Option$LT$alloc..boxed..Box$LT$syn..generics..WherePredicate$GT$$GT$$GT$17h195ffde7a8330f89E', symObjAddr: 0x310, symBinAddr: 0x99D20, symSize: 0x100 }
  - { offsetInCU: 0x5D81, offset: 0x39D893, size: 0x8, addend: 0x0, symName: '__ZN4core3ptr103drop_in_place$LT$syn..punctuated..Punctuated$LT$syn..generics..GenericParam$C$syn..token..Comma$GT$$GT$17hb2bb85f0e77d8df9E', symObjAddr: 0x410, symBinAddr: 0x99E20, symSize: 0x70 }
  - { offsetInCU: 0x60BF, offset: 0x39DBD1, size: 0x8, addend: 0x0, symName: '__ZN4core3ptr103drop_in_place$LT$syn..punctuated..Punctuated$LT$syn..generics..TypeParamBound$C$syn..token..Add$GT$$GT$17h517181ada56b9062E', symObjAddr: 0x480, symBinAddr: 0x99E90, symSize: 0x1B0 }
  - { offsetInCU: 0x68C9, offset: 0x39E3DB, size: 0x8, addend: 0x0, symName: '__ZN4core3ptr108drop_in_place$LT$syn..punctuated..Punctuated$LT$syn..expr..GenericMethodArgument$C$syn..token..Comma$GT$$GT$17h413f77b0de48dbb7E', symObjAddr: 0x630, symBinAddr: 0x9A040, symSize: 0x160 }
  - { offsetInCU: 0x6D81, offset: 0x39E893, size: 0x8, addend: 0x0, symName: '__ZN4core3ptr115drop_in_place$LT$core..option..Option$LT$$LP$syn..token..Brace$C$alloc..vec..Vec$LT$syn..item..Item$GT$$RP$$GT$$GT$17h485cbe8167e7bc2fE', symObjAddr: 0x790, symBinAddr: 0x9A1A0, symSize: 0xE0 }
  - { offsetInCU: 0x7028, offset: 0x39EB3A, size: 0x8, addend: 0x0, symName: '__ZN4core3ptr126drop_in_place$LT$core..option..Option$LT$$LP$syn..token..And$C$core..option..Option$LT$syn..lifetime..Lifetime$GT$$RP$$GT$$GT$17hf44b7a8b485ad914E', symObjAddr: 0x870, symBinAddr: 0x9A280, symSize: 0x30 }
  - { offsetInCU: 0x723C, offset: 0x39ED4E, size: 0x8, addend: 0x0, symName: '__ZN4core3ptr34drop_in_place$LT$syn..lit..Lit$GT$17heb8f235ab74bc4d4E', symObjAddr: 0x8A0, symBinAddr: 0x9A2B0, symSize: 0x110 }
  - { offsetInCU: 0x7719, offset: 0x39F22B, size: 0x8, addend: 0x0, symName: '__ZN4core3ptr34drop_in_place$LT$syn..pat..Pat$GT$17hd6fa3ad4d18570d7E', symObjAddr: 0x9B0, symBinAddr: 0x9A3C0, symSize: 0x9F0 }
  - { offsetInCU: 0xA173, offset: 0x3A1C85, size: 0x8, addend: 0x0, symName: '__ZN4core3ptr34drop_in_place$LT$syn..ty..Type$GT$17hfd9bfeacac76fc9aE', symObjAddr: 0x13A0, symBinAddr: 0x9ADB0, symSize: 0x5A0 }
  - { offsetInCU: 0xBC5B, offset: 0x3A376D, size: 0x8, addend: 0x0, symName: '__ZN4core3ptr36drop_in_place$LT$syn..expr..Expr$GT$17h6b8a9b85afc75571E', symObjAddr: 0x1940, symBinAddr: 0x9B350, symSize: 0x1E70 }
  - { offsetInCU: 0x13F34, offset: 0x3ABA46, size: 0x8, addend: 0x0, symName: '__ZN4core3ptr36drop_in_place$LT$syn..item..Item$GT$17haed0da6f7829d8d2E', symObjAddr: 0x37B0, symBinAddr: 0x9D1C0, symSize: 0x10C0 }
  - { offsetInCU: 0x18215, offset: 0x3AFD27, size: 0x8, addend: 0x0, symName: '__ZN4core3ptr36drop_in_place$LT$syn..mac..Macro$GT$17ha661e027deab4b66E', symObjAddr: 0x4870, symBinAddr: 0x9E280, symSize: 0xE0 }
  - { offsetInCU: 0x18602, offset: 0x3B0114, size: 0x8, addend: 0x0, symName: '__ZN4core3ptr36drop_in_place$LT$syn..path..Path$GT$17he4358a51dbdb774bE', symObjAddr: 0x4950, symBinAddr: 0x9E360, symSize: 0x230 }
  - { offsetInCU: 0x18F37, offset: 0x3B0A49, size: 0x8, addend: 0x0, symName: '__ZN4core3ptr37drop_in_place$LT$core..fmt..Error$GT$17h953b815847ed35afE', symObjAddr: 0x4B80, symBinAddr: 0x9E590, symSize: 0x10 }
  - { offsetInCU: 0x18F63, offset: 0x3B0A75, size: 0x8, addend: 0x0, symName: '__ZN4core3ptr37drop_in_place$LT$syn..stmt..Block$GT$17hfb4d80957646e543E', symObjAddr: 0x4B90, symBinAddr: 0x9E5A0, symSize: 0xD0 }
  - { offsetInCU: 0x19226, offset: 0x3B0D38, size: 0x8, addend: 0x0, symName: '__ZN4core3ptr38drop_in_place$LT$syn..data..Fields$GT$17h21ee2026562d349bE', symObjAddr: 0x4C60, symBinAddr: 0x9E670, symSize: 0x180 }
  - { offsetInCU: 0x19644, offset: 0x3B1156, size: 0x8, addend: 0x0, symName: '__ZN4core3ptr38drop_in_place$LT$syn..expr..Member$GT$17h3141a26ba2d76dd7E', symObjAddr: 0x4DE0, symBinAddr: 0x9E7F0, symSize: 0x30 }
  - { offsetInCU: 0x19741, offset: 0x3B1253, size: 0x8, addend: 0x0, symName: '__ZN4core3ptr38drop_in_place$LT$syn..pat..PatType$GT$17h8c3d1bd2beead914E', symObjAddr: 0x4E10, symBinAddr: 0x9E820, symSize: 0xF0 }
  - { offsetInCU: 0x19D0C, offset: 0x3B181E, size: 0x8, addend: 0x0, symName: '__ZN4core3ptr39drop_in_place$LT$proc_macro2..Group$GT$17hac9d65b019abbef7E', symObjAddr: 0x4F00, symBinAddr: 0x9E910, symSize: 0x60 }
  - { offsetInCU: 0x19E6D, offset: 0x3B197F, size: 0x8, addend: 0x0, symName: '__ZN4core3ptr39drop_in_place$LT$proc_macro2..Ident$GT$17hfc382935d884a247E', symObjAddr: 0x4F60, symBinAddr: 0x9E970, symSize: 0x30 }
  - { offsetInCU: 0x19F6A, offset: 0x3B1A7C, size: 0x8, addend: 0x0, symName: '__ZN4core3ptr39drop_in_place$LT$syn..item..ItemMod$GT$17hb15a31423226f2f4E', symObjAddr: 0x4F90, symBinAddr: 0x9E9A0, symSize: 0x1B0 }
  - { offsetInCU: 0x1A741, offset: 0x3B2253, size: 0x8, addend: 0x0, symName: '__ZN4core3ptr39drop_in_place$LT$syn..item..UseTree$GT$17h25d9f1648b09fcd7E', symObjAddr: 0x5140, symBinAddr: 0x9EB50, symSize: 0x1E0 }
  - { offsetInCU: 0x1AE29, offset: 0x3B293B, size: 0x8, addend: 0x0, symName: '__ZN4core3ptr39drop_in_place$LT$syn..pat..PatTuple$GT$17h232e0cbeb905e9d9E', symObjAddr: 0x5320, symBinAddr: 0x9ED30, symSize: 0x80 }
  - { offsetInCU: 0x1B0AD, offset: 0x3B2BBF, size: 0x8, addend: 0x0, symName: '__ZN4core3ptr40drop_in_place$LT$syn..item..ImplItem$GT$17h698546a88764617eE', symObjAddr: 0x53A0, symBinAddr: 0x9EDB0, symSize: 0x5C0 }
  - { offsetInCU: 0x1C5B1, offset: 0x3B40C3, size: 0x8, addend: 0x0, symName: '__ZN4core3ptr40drop_in_place$LT$syn..item..ItemImpl$GT$17h51b26ffc8ac1271dE', symObjAddr: 0x5960, symBinAddr: 0x9F370, symSize: 0x180 }
  - { offsetInCU: 0x1CC33, offset: 0x3B4745, size: 0x8, addend: 0x0, symName: '__ZN4core3ptr40drop_in_place$LT$syn..item..Receiver$GT$17heaf5782384f4b1d4E', symObjAddr: 0x5AE0, symBinAddr: 0x9F4F0, symSize: 0xB0 }
  - { offsetInCU: 0x1CFAA, offset: 0x3B4ABC, size: 0x8, addend: 0x0, symName: '__ZN4core3ptr40drop_in_place$LT$syn..ty..ReturnType$GT$17h42cc52c006e6d7cdE', symObjAddr: 0x5B90, symBinAddr: 0x9F5A0, symSize: 0x50 }
  - { offsetInCU: 0x1D13B, offset: 0x3B4C4D, size: 0x8, addend: 0x0, symName: '__ZN4core3ptr41drop_in_place$LT$syn..item..ItemMacro$GT$17h9de5abd1f0bbf333E', symObjAddr: 0x5BE0, symBinAddr: 0x9F5F0, symSize: 0xC0 }
  - { offsetInCU: 0x1D458, offset: 0x3B4F6A, size: 0x8, addend: 0x0, symName: '__ZN4core3ptr41drop_in_place$LT$syn..item..Signature$GT$17h7d7f449a9806c924E', symObjAddr: 0x5CA0, symBinAddr: 0x9F6B0, symSize: 0x190 }
  - { offsetInCU: 0x1DD0C, offset: 0x3B581E, size: 0x8, addend: 0x0, symName: '__ZN4core3ptr41drop_in_place$LT$syn..item..TraitItem$GT$17hd302ee66a5ab7e12E', symObjAddr: 0x5E30, symBinAddr: 0x9F840, symSize: 0x470 }
  - { offsetInCU: 0x1ED0B, offset: 0x3B681D, size: 0x8, addend: 0x0, symName: '__ZN4core3ptr42drop_in_place$LT$alloc..string..String$GT$17hd527bee3e7586c29E', symObjAddr: 0x62A0, symBinAddr: 0x9FCB0, symSize: 0x20 }
  - { offsetInCU: 0x1EE14, offset: 0x3B6926, size: 0x8, addend: 0x0, symName: '__ZN4core3ptr42drop_in_place$LT$syn..data..Visibility$GT$17h788983c5adb3d2ecE', symObjAddr: 0x62C0, symBinAddr: 0x9FCD0, symSize: 0x60 }
  - { offsetInCU: 0x1EF97, offset: 0x3B6AA9, size: 0x8, addend: 0x0, symName: '__ZN4core3ptr43drop_in_place$LT$syn..data..FieldsNamed$GT$17hd9424b8d746ee929E', symObjAddr: 0x6320, symBinAddr: 0x9FD30, symSize: 0xE0 }
  - { offsetInCU: 0x1F302, offset: 0x3B6E14, size: 0x8, addend: 0x0, symName: '__ZN4core3ptr43drop_in_place$LT$syn..item..ForeignItem$GT$17hf507cacb1dc2bda0E', symObjAddr: 0x6400, symBinAddr: 0x9FE10, symSize: 0x460 }
  - { offsetInCU: 0x205B6, offset: 0x3B80C8, size: 0x8, addend: 0x0, symName: '__ZN4core3ptr44drop_in_place$LT$syn..generics..Generics$GT$17hb46e5bc833bfc579E', symObjAddr: 0x6860, symBinAddr: 0xA0270, symSize: 0xB0 }
  - { offsetInCU: 0x207E8, offset: 0x3B82FA, size: 0x8, addend: 0x0, symName: '__ZN4core3ptr44drop_in_place$LT$syn..lifetime..Lifetime$GT$17h94c9fe51c9dd60c6E', symObjAddr: 0x6910, symBinAddr: 0xA0320, symSize: 0x30 }
  - { offsetInCU: 0x20961, offset: 0x3B8473, size: 0x8, addend: 0x0, symName: '__ZN4core3ptr44drop_in_place$LT$syn..parse..ParseBuffer$GT$17h1603f155a5d07e6dE', symObjAddr: 0x6940, symBinAddr: 0xA0350, symSize: 0x70 }
  - { offsetInCU: 0x20CFB, offset: 0x3B880D, size: 0x8, addend: 0x0, symName: '__ZN4core3ptr45drop_in_place$LT$proc_macro2..TokenStream$GT$17h44f5bf9c29d914fbE', symObjAddr: 0x69B0, symBinAddr: 0xA03C0, symSize: 0x140 }
  - { offsetInCU: 0x2116B, offset: 0x3B8C7D, size: 0x8, addend: 0x0, symName: '__ZN4core3ptr46drop_in_place$LT$syn..item..ItemForeignMod$GT$17hb21887a95ac57847E', symObjAddr: 0x6AF0, symBinAddr: 0xA0500, symSize: 0x130 }
  - { offsetInCU: 0x21954, offset: 0x3B9466, size: 0x8, addend: 0x0, symName: '__ZN4core3ptr47drop_in_place$LT$syn..generics..LifetimeDef$GT$17h651f63d4c11a8213E', symObjAddr: 0x6C20, symBinAddr: 0xA0630, symSize: 0xB0 }
  - { offsetInCU: 0x21CAC, offset: 0x3B97BE, size: 0x8, addend: 0x0, symName: '__ZN4core3ptr47drop_in_place$LT$syn..path..GenericArgument$GT$17h53f7c77f182368f5E', symObjAddr: 0x6CD0, symBinAddr: 0xA06E0, symSize: 0xE0 }
  - { offsetInCU: 0x21FD9, offset: 0x3B9AEB, size: 0x8, addend: 0x0, symName: '__ZN4core3ptr58drop_in_place$LT$alloc..vec..Vec$LT$syn..expr..Arm$GT$$GT$17hf30588e63e9aa2acE', symObjAddr: 0x6DB0, symBinAddr: 0xA07C0, symSize: 0xD0 }
  - { offsetInCU: 0x22266, offset: 0x3B9D78, size: 0x8, addend: 0x0, symName: '__ZN4core3ptr59drop_in_place$LT$alloc..boxed..Box$LT$syn..pat..Pat$GT$$GT$17h8da5d9585b79befeE', symObjAddr: 0x6E80, symBinAddr: 0xA0890, symSize: 0x50 }
  - { offsetInCU: 0x223C1, offset: 0x3B9ED3, size: 0x8, addend: 0x0, symName: '__ZN4core3ptr59drop_in_place$LT$alloc..boxed..Box$LT$syn..ty..Type$GT$$GT$17hfdcfc83ffb884feaE', symObjAddr: 0x6ED0, symBinAddr: 0xA08E0, symSize: 0x50 }
  - { offsetInCU: 0x2251C, offset: 0x3BA02E, size: 0x8, addend: 0x0, symName: '__ZN4core3ptr59drop_in_place$LT$alloc..vec..Vec$LT$syn..item..Item$GT$$GT$17h4cdd6ad49c20c9ffE', symObjAddr: 0x6F20, symBinAddr: 0xA0930, symSize: 0xD0 }
  - { offsetInCU: 0x227A9, offset: 0x3BA2BB, size: 0x8, addend: 0x0, symName: '__ZN4core3ptr59drop_in_place$LT$alloc..vec..Vec$LT$syn..stmt..Stmt$GT$$GT$17h279570968c738800E', symObjAddr: 0x6FF0, symBinAddr: 0xA0A00, symSize: 0xD0 }
  - { offsetInCU: 0x22A36, offset: 0x3BA548, size: 0x8, addend: 0x0, symName: '__ZN4core3ptr61drop_in_place$LT$alloc..boxed..Box$LT$syn..expr..Expr$GT$$GT$17hd59f20e4896eb10dE', symObjAddr: 0x70C0, symBinAddr: 0xA0AD0, symSize: 0x50 }
  - { offsetInCU: 0x22B91, offset: 0x3BA6A3, size: 0x8, addend: 0x0, symName: '__ZN4core3ptr61drop_in_place$LT$syn..path..ParenthesizedGenericArguments$GT$17h2cb12f9d921fc247E', symObjAddr: 0x7110, symBinAddr: 0xA0B20, symSize: 0x170 }
  - { offsetInCU: 0x2316C, offset: 0x3BAC7E, size: 0x8, addend: 0x0, symName: '__ZN4core3ptr62drop_in_place$LT$alloc..boxed..Box$LT$syn..stmt..Block$GT$$GT$17h4a7cc3258b08bc2dE', symObjAddr: 0x7280, symBinAddr: 0xA0C90, symSize: 0xE0 }
  - { offsetInCU: 0x23549, offset: 0x3BB05B, size: 0x8, addend: 0x0, symName: '__ZN4core3ptr63drop_in_place$LT$alloc..boxed..Box$LT$syn..lit..LitRepr$GT$$GT$17ha0c79af03c778e78E', symObjAddr: 0x7360, symBinAddr: 0xA0D70, symSize: 0x60 }
  - { offsetInCU: 0x2381F, offset: 0x3BB331, size: 0x8, addend: 0x0, symName: '__ZN4core3ptr63drop_in_place$LT$alloc..vec..Vec$LT$syn..item..ImplItem$GT$$GT$17hf6d2e0c4b364acacE', symObjAddr: 0x73C0, symBinAddr: 0xA0DD0, symSize: 0x80 }
  - { offsetInCU: 0x23A9D, offset: 0x3BB5AF, size: 0x8, addend: 0x0, symName: '__ZN4core3ptr64drop_in_place$LT$alloc..boxed..Box$LT$syn..item..UseTree$GT$$GT$17h8781734ad1e82212E', symObjAddr: 0x7440, symBinAddr: 0xA0E50, symSize: 0x50 }
  - { offsetInCU: 0x23C17, offset: 0x3BB729, size: 0x8, addend: 0x0, symName: '__ZN4core3ptr64drop_in_place$LT$alloc..boxed..Box$LT$syn..pat..FieldPat$GT$$GT$17h4cf97b08e30ccd11E', symObjAddr: 0x7490, symBinAddr: 0xA0EA0, symSize: 0x100 }
  - { offsetInCU: 0x24232, offset: 0x3BBD44, size: 0x8, addend: 0x0, symName: '__ZN4core3ptr64drop_in_place$LT$alloc..boxed..Box$LT$syn..ty..BareFnArg$GT$$GT$17h5ed4e7eb5288ceaeE', symObjAddr: 0x7590, symBinAddr: 0xA0FA0, symSize: 0xE0 }
  - { offsetInCU: 0x246B8, offset: 0x3BC1CA, size: 0x8, addend: 0x0, symName: '__ZN4core3ptr64drop_in_place$LT$alloc..vec..Vec$LT$syn..attr..Attribute$GT$$GT$17h00ca1a13bf29cbb7E', symObjAddr: 0x7670, symBinAddr: 0xA1080, symSize: 0x60 }
  - { offsetInCU: 0x248AD, offset: 0x3BC3BF, size: 0x8, addend: 0x0, symName: '__ZN4core3ptr64drop_in_place$LT$alloc..vec..Vec$LT$syn..item..TraitItem$GT$$GT$17h2add6c0b4fdd403cE', symObjAddr: 0x76D0, symBinAddr: 0xA10E0, symSize: 0x80 }
  - { offsetInCU: 0x24B2B, offset: 0x3BC63D, size: 0x8, addend: 0x0, symName: '__ZN4core3ptr65drop_in_place$LT$core..option..Option$LT$syn..expr..Label$GT$$GT$17hdfb87f4e56640098E', symObjAddr: 0x7750, symBinAddr: 0xA1160, symSize: 0x30 }
  - { offsetInCU: 0x24C66, offset: 0x3BC778, size: 0x8, addend: 0x0, symName: '__ZN4core3ptr66drop_in_place$LT$alloc..vec..Vec$LT$syn..item..ForeignItem$GT$$GT$17h457cbb9d53df1a2fE', symObjAddr: 0x7780, symBinAddr: 0xA1190, symSize: 0x80 }
  - { offsetInCU: 0x24EE4, offset: 0x3BC9F6, size: 0x8, addend: 0x0, symName: '__ZN4core3ptr66drop_in_place$LT$core..option..Option$LT$syn..ty..Variadic$GT$$GT$17h027f0e707b91e4beE', symObjAddr: 0x7800, symBinAddr: 0xA1210, symSize: 0x80 }
  - { offsetInCU: 0x2513A, offset: 0x3BCC4C, size: 0x8, addend: 0x0, symName: '__ZN4core3ptr67drop_in_place$LT$alloc..boxed..Box$LT$syn..expr..FieldValue$GT$$GT$17ha1d27993e02226e2E', symObjAddr: 0x7880, symBinAddr: 0xA1290, symSize: 0xF0 }
  - { offsetInCU: 0x255AC, offset: 0x3BD0BE, size: 0x8, addend: 0x0, symName: '__ZN4core3ptr72drop_in_place$LT$core..option..Option$LT$syn..lifetime..Lifetime$GT$$GT$17h406663184fba9f2fE', symObjAddr: 0x7970, symBinAddr: 0xA1380, symSize: 0x30 }
  - { offsetInCU: 0x256C8, offset: 0x3BD1DA, size: 0x8, addend: 0x0, symName: '__ZN4core3ptr75drop_in_place$LT$alloc..boxed..Box$LT$syn..generics..TypeParamBound$GT$$GT$17hcf1c09bccd64c785E', symObjAddr: 0x79A0, symBinAddr: 0xA13B0, symSize: 0x140 }
  - { offsetInCU: 0x25C79, offset: 0x3BD78B, size: 0x8, addend: 0x0, symName: '__ZN4core3ptr75drop_in_place$LT$core..option..Option$LT$syn..generics..WhereClause$GT$$GT$17h66af8fe2a681bfcdE', symObjAddr: 0x7AE0, symBinAddr: 0xA14F0, symSize: 0x100 }
  - { offsetInCU: 0x25F00, offset: 0x3BDA12, size: 0x8, addend: 0x0, symName: '__ZN4core3ptr78drop_in_place$LT$alloc..boxed..Box$LT$syn..expr..GenericMethodArgument$GT$$GT$17hc5561f5e7586c250E', symObjAddr: 0x7BE0, symBinAddr: 0xA15F0, symSize: 0x60 }
  - { offsetInCU: 0x26132, offset: 0x3BDC44, size: 0x8, addend: 0x0, symName: '__ZN4core3ptr78drop_in_place$LT$core..option..Option$LT$syn..generics..BoundLifetimes$GT$$GT$17hc74a275f958fb9a1E', symObjAddr: 0x7C40, symBinAddr: 0xA1650, symSize: 0x130 }
  - { offsetInCU: 0x26609, offset: 0x3BE11B, size: 0x8, addend: 0x0, symName: '__ZN4core3ptr86drop_in_place$LT$syn..punctuated..Punctuated$LT$syn..pat..Pat$C$syn..token..Or$GT$$GT$17h13896407bc2c03e4E', symObjAddr: 0x7D70, symBinAddr: 0xA1780, symSize: 0x120 }
  - { offsetInCU: 0x26A4F, offset: 0x3BE561, size: 0x8, addend: 0x0, symName: '__ZN4core3ptr87drop_in_place$LT$core..option..Option$LT$alloc..boxed..Box$LT$syn..pat..Pat$GT$$GT$$GT$17h5bd93a2021c10f20E', symObjAddr: 0x7E90, symBinAddr: 0xA18A0, symSize: 0x50 }
  - { offsetInCU: 0x26BC1, offset: 0x3BE6D3, size: 0x8, addend: 0x0, symName: '__ZN4core3ptr87drop_in_place$LT$core..option..Option$LT$alloc..boxed..Box$LT$syn..ty..Type$GT$$GT$$GT$17h6936d17ab80112d1E', symObjAddr: 0x7EE0, symBinAddr: 0xA18F0, symSize: 0x50 }
  - { offsetInCU: 0x26D33, offset: 0x3BE845, size: 0x8, addend: 0x0, symName: '__ZN4core3ptr89drop_in_place$LT$core..option..Option$LT$alloc..boxed..Box$LT$syn..expr..Expr$GT$$GT$$GT$17h9285f9bb32cfe7feE', symObjAddr: 0x7F30, symBinAddr: 0xA1940, symSize: 0x50 }
  - { offsetInCU: 0x26EE3, offset: 0x3BE9F5, size: 0x8, addend: 0x0, symName: '__ZN4core3ptr89drop_in_place$LT$syn..punctuated..Punctuated$LT$syn..pat..Pat$C$syn..token..Comma$GT$$GT$17h7cc94aacc194d79fE', symObjAddr: 0x7F80, symBinAddr: 0xA1990, symSize: 0x120 }
  - { offsetInCU: 0x2737E, offset: 0x3BEE90, size: 0x8, addend: 0x0, symName: '__ZN4core3ptr90drop_in_place$LT$core..option..Option$LT$alloc..boxed..Box$LT$syn..data..Field$GT$$GT$$GT$17hc50e2375b7e440f8E', symObjAddr: 0x80A0, symBinAddr: 0xA1AB0, symSize: 0x1A0 }
  - { offsetInCU: 0x27B61, offset: 0x3BF673, size: 0x8, addend: 0x0, symName: '__ZN4core3ptr90drop_in_place$LT$core..option..Option$LT$alloc..boxed..Box$LT$syn..item..FnArg$GT$$GT$$GT$17hbba5815768eb1c40E', symObjAddr: 0x8240, symBinAddr: 0xA1C50, symSize: 0x60 }
  - { offsetInCU: 0x27D1B, offset: 0x3BF82D, size: 0x8, addend: 0x0, symName: '__ZN4core3ptr91drop_in_place$LT$syn..punctuated..Punctuated$LT$syn..expr..Expr$C$syn..token..Comma$GT$$GT$17h89eb145173101a03E', symObjAddr: 0x82A0, symBinAddr: 0xA1CB0, symSize: 0x120 }
  - { offsetInCU: 0x28178, offset: 0x3BFC8A, size: 0x8, addend: 0x0, symName: '__ZN4core3ptr92drop_in_place$LT$core..option..Option$LT$$LP$syn..token..As$C$proc_macro2..Ident$RP$$GT$$GT$17h885c969d0e42c9dcE', symObjAddr: 0x83C0, symBinAddr: 0xA1DD0, symSize: 0x30 }
  - { offsetInCU: 0x282D2, offset: 0x3BFDE4, size: 0x8, addend: 0x0, symName: '__ZN4core3ptr92drop_in_place$LT$core..option..Option$LT$alloc..boxed..Box$LT$syn..data..Variant$GT$$GT$$GT$17h4d028927cbe2de32E', symObjAddr: 0x83F0, symBinAddr: 0xA1E00, symSize: 0x140 }
  - { offsetInCU: 0x288E9, offset: 0x3C03FB, size: 0x8, addend: 0x0, symName: '__ZN4core3ptr92drop_in_place$LT$syn..punctuated..Punctuated$LT$syn..item..FnArg$C$syn..token..Comma$GT$$GT$17h75f0f2c68c193b1eE', symObjAddr: 0x8530, symBinAddr: 0xA1F40, symSize: 0x140 }
  - { offsetInCU: 0x28D37, offset: 0x3C0849, size: 0x8, addend: 0x0, symName: '__ZN4core3ptr94drop_in_place$LT$syn..punctuated..Punctuated$LT$syn..data..Variant$C$syn..token..Comma$GT$$GT$17h444850e5fc0890a9E', symObjAddr: 0x8670, symBinAddr: 0xA2080, symSize: 0xE0 }
  - { offsetInCU: 0x29007, offset: 0x3C0B19, size: 0x8, addend: 0x0, symName: '__ZN4core3ptr94drop_in_place$LT$syn..punctuated..Punctuated$LT$syn..pat..FieldPat$C$syn..token..Comma$GT$$GT$17hdbbfc15c48c312e3E', symObjAddr: 0x8750, symBinAddr: 0xA2160, symSize: 0xF0 }
  - { offsetInCU: 0x292D1, offset: 0x3C0DE3, size: 0x8, addend: 0x0, symName: '__ZN4core3ptr94drop_in_place$LT$syn..punctuated..Punctuated$LT$syn..ty..BareFnArg$C$syn..token..Comma$GT$$GT$17h4e6d5a703b32a850E', symObjAddr: 0x8840, symBinAddr: 0xA2250, symSize: 0xF0 }
  - { offsetInCU: 0x2959B, offset: 0x3C10AD, size: 0x8, addend: 0x0, symName: '__ZN4core3ptr96drop_in_place$LT$core..option..Option$LT$alloc..boxed..Box$LT$syn..path..PathSegment$GT$$GT$$GT$17he2148fc749fa4ba5E', symObjAddr: 0x8930, symBinAddr: 0xA2340, symSize: 0x180 }
  - { offsetInCU: 0x29C2C, offset: 0x3C173E, size: 0x8, addend: 0x0, symName: '__ZN4core3ptr97drop_in_place$LT$syn..punctuated..Punctuated$LT$syn..expr..FieldValue$C$syn..token..Comma$GT$$GT$17h32c10a095b2e74c7E', symObjAddr: 0x8AB0, symBinAddr: 0xA24C0, symSize: 0xF0 }
  - { offsetInCU: 0x29F72, offset: 0x3C1A84, size: 0x8, addend: 0x0, symName: '__ZN4core3ptr97drop_in_place$LT$syn..punctuated..Punctuated$LT$syn..lifetime..Lifetime$C$syn..token..Add$GT$$GT$17h75f9c8a38e93dfefE', symObjAddr: 0x8BA0, symBinAddr: 0xA25B0, symSize: 0xC0 }
  - { offsetInCU: 0x2ADEE, offset: 0x3C2900, size: 0x8, addend: 0x0, symName: '__ZN53_$LT$core..fmt..Error$u20$as$u20$core..fmt..Debug$GT$3fmt17h43ae5cec9623af13E', symObjAddr: 0x8E50, symBinAddr: 0xA2810, symSize: 0x20 }
  - { offsetInCU: 0x39812, offset: 0x3D1324, size: 0x8, addend: 0x0, symName: '__ZN3syn4item7parsing63_$LT$impl$u20$syn..parse..Parse$u20$for$u20$syn..item..Item$GT$5parse17he5c5d41d87b4b07bE', symObjAddr: 0x92F0, symBinAddr: 0xA2BE0, symSize: 0x4E20 }
  - { offsetInCU: 0x4731C, offset: 0x3DEE2E, size: 0x8, addend: 0x0, symName: '__ZN3syn4item7parsing68_$LT$impl$u20$syn..parse..Parse$u20$for$u20$syn..item..ItemMacro$GT$5parse17h1eeff6c2d8c920a2E', symObjAddr: 0xE110, symBinAddr: 0xA7A00, symSize: 0x580 }
  - { offsetInCU: 0x47D7D, offset: 0x3DF88F, size: 0x8, addend: 0x0, symName: '__ZN3syn4item7parsing69_$LT$impl$u20$syn..parse..Parse$u20$for$u20$syn..item..ItemMacro2$GT$5parse17h7a00485d095a8ef2E', symObjAddr: 0xE690, symBinAddr: 0xA7F80, symSize: 0xA00 }
  - { offsetInCU: 0x497BB, offset: 0x3E12CD, size: 0x8, addend: 0x0, symName: '__ZN3syn4item7parsing74_$LT$impl$u20$syn..parse..Parse$u20$for$u20$syn..item..ItemExternCrate$GT$5parse17hd1f82917dd20d6efE', symObjAddr: 0xF090, symBinAddr: 0xA8980, symSize: 0x870 }
  - { offsetInCU: 0x4A9D5, offset: 0x3E24E7, size: 0x8, addend: 0x0, symName: '__ZN3syn4item7parsing66_$LT$impl$u20$syn..parse..Parse$u20$for$u20$syn..item..ItemUse$GT$5parse17h99f8295d90cf1f72E', symObjAddr: 0xF900, symBinAddr: 0xA91F0, symSize: 0x740 }
  - { offsetInCU: 0x4B321, offset: 0x3E2E33, size: 0x8, addend: 0x0, symName: '__ZN3syn4item7parsing66_$LT$impl$u20$syn..parse..Parse$u20$for$u20$syn..item..UseTree$GT$5parse17h74db4d42ad5fc6cdE', symObjAddr: 0x10040, symBinAddr: 0xA9930, symSize: 0xB20 }
  - { offsetInCU: 0x4D5F6, offset: 0x3E5108, size: 0x8, addend: 0x0, symName: '__ZN3syn4item7parsing68_$LT$impl$u20$syn..parse..Parse$u20$for$u20$syn..item..Signature$GT$5parse17h8ab620ec3e56cdd5E', symObjAddr: 0x12180, symBinAddr: 0xAA450, symSize: 0x8E0 }
  - { offsetInCU: 0x4E20D, offset: 0x3E5D1F, size: 0x8, addend: 0x0, symName: '__ZN3syn4item7parsing64_$LT$impl$u20$syn..parse..Parse$u20$for$u20$syn..item..FnArg$GT$5parse17hd83632dccf08cdbaE', symObjAddr: 0x12DB0, symBinAddr: 0xAAD30, symSize: 0x750 }
  - { offsetInCU: 0x4F61C, offset: 0x3E712E, size: 0x8, addend: 0x0, symName: '__ZN3syn4item7parsing67_$LT$impl$u20$syn..parse..Parse$u20$for$u20$syn..item..Receiver$GT$5parse17hbbb59c0d57691ad7E', symObjAddr: 0x13500, symBinAddr: 0xAB480, symSize: 0x420 }
  - { offsetInCU: 0x4FC1E, offset: 0x3E7730, size: 0x8, addend: 0x0, symName: '__ZN3syn4item7parsing66_$LT$impl$u20$syn..parse..Parse$u20$for$u20$syn..item..ItemMod$GT$5parse17h7c0eaf8edff13895E', symObjAddr: 0x13920, symBinAddr: 0xAB8A0, symSize: 0x1000 }
  - { offsetInCU: 0x5200F, offset: 0x3E9B21, size: 0x8, addend: 0x0, symName: '__ZN3syn4item7parsing73_$LT$impl$u20$syn..parse..Parse$u20$for$u20$syn..item..ItemForeignMod$GT$5parse17h6cd1f43d9e6cb666E', symObjAddr: 0x14920, symBinAddr: 0xAC8A0, symSize: 0x620 }
  - { offsetInCU: 0x52F36, offset: 0x3EAA48, size: 0x8, addend: 0x0, symName: '__ZN3syn4item7parsing70_$LT$impl$u20$syn..parse..Parse$u20$for$u20$syn..item..ForeignItem$GT$5parse17hc5df921b723656dbE', symObjAddr: 0x14F40, symBinAddr: 0xACEC0, symSize: 0x1B10 }
  - { offsetInCU: 0x56F69, offset: 0x3EEA7B, size: 0x8, addend: 0x0, symName: '__ZN3syn4item7parsing69_$LT$impl$u20$syn..parse..Parse$u20$for$u20$syn..item..ItemStruct$GT$5parse17ha0db2318e08442d1E', symObjAddr: 0x187C0, symBinAddr: 0xAE9D0, symSize: 0x6F0 }
  - { offsetInCU: 0x57A0F, offset: 0x3EF521, size: 0x8, addend: 0x0, symName: '__ZN3syn4item7parsing67_$LT$impl$u20$syn..parse..Parse$u20$for$u20$syn..item..ItemEnum$GT$5parse17h2d10e35ab548fab0E', symObjAddr: 0x18EB0, symBinAddr: 0xAF0C0, symSize: 0x670 }
  - { offsetInCU: 0x584B5, offset: 0x3EFFC7, size: 0x8, addend: 0x0, symName: '__ZN3syn4item7parsing68_$LT$impl$u20$syn..parse..Parse$u20$for$u20$syn..item..ItemUnion$GT$5parse17h5c6e1c8877d12210E', symObjAddr: 0x19520, symBinAddr: 0xAF730, symSize: 0x670 }
  - { offsetInCU: 0x58F4C, offset: 0x3F0A5E, size: 0x8, addend: 0x0, symName: '__ZN3syn4item7parsing68_$LT$impl$u20$syn..parse..Parse$u20$for$u20$syn..item..ItemTrait$GT$5parse17h25d13bf908524b2eE', symObjAddr: 0x19B90, symBinAddr: 0xAFDA0, symSize: 0x650 }
  - { offsetInCU: 0x59BD4, offset: 0x3F16E6, size: 0x8, addend: 0x0, symName: '__ZN3syn4item7parsing68_$LT$impl$u20$syn..parse..Parse$u20$for$u20$syn..item..TraitItem$GT$5parse17hbf43f4d0bd7bce03E', symObjAddr: 0x1A310, symBinAddr: 0xB03F0, symSize: 0x1BE0 }
  - { offsetInCU: 0x6060A, offset: 0x3F811C, size: 0x8, addend: 0x0, symName: '__ZN3syn4item7parsing73_$LT$impl$u20$syn..parse..Parse$u20$for$u20$syn..item..TraitItemConst$GT$5parse17h98155ca7512be306E', symObjAddr: 0x1BEF0, symBinAddr: 0xB1FD0, symSize: 0xAA0 }
  - { offsetInCU: 0x62148, offset: 0x3F9C5A, size: 0x8, addend: 0x0, symName: '__ZN3syn4item7parsing74_$LT$impl$u20$syn..parse..Parse$u20$for$u20$syn..item..TraitItemMethod$GT$5parse17h34dc814f3b221c2fE', symObjAddr: 0x1C990, symBinAddr: 0xB2A70, symSize: 0x8D0 }
  - { offsetInCU: 0x637B4, offset: 0x3FB2C6, size: 0x8, addend: 0x0, symName: '__ZN3syn4item7parsing67_$LT$impl$u20$syn..parse..Parse$u20$for$u20$syn..item..ImplItem$GT$5parse17h77c5903418e4fcd7E', symObjAddr: 0x1DDB0, symBinAddr: 0xB3340, symSize: 0x1F00 }
  - { offsetInCU: 0x6937E, offset: 0x400E90, size: 0x8, addend: 0x0, symName: '__ZN3syn4item7parsing73_$LT$impl$u20$syn..parse..Parse$u20$for$u20$syn..item..ImplItemMethod$GT$5parse17h9866d80d5a98b06cE', symObjAddr: 0x20B50, symBinAddr: 0xB5240, symSize: 0x710 }
  - { offsetInCU: 0x6A0E0, offset: 0x401BF2, size: 0x8, addend: 0x0, symName: '__ZN3syn4item7parsing72_$LT$impl$u20$syn..parse..Parse$u20$for$u20$syn..item..ImplItemMacro$GT$5parse17h703a53abb17a8a64E', symObjAddr: 0x21B40, symBinAddr: 0xB5950, symSize: 0x0 }
  - { offsetInCU: 0x6A614, offset: 0x402126, size: 0x8, addend: 0x0, symName: '__ZN3syn4item8printing83_$LT$impl$u20$quote..to_tokens..ToTokens$u20$for$u20$syn..item..ItemExternCrate$GT$9to_tokens17h0d82ee77cefbf7a4E', symObjAddr: 0x21E30, symBinAddr: 0xB5C40, symSize: 0x250 }
  - { offsetInCU: 0x6AC11, offset: 0x402723, size: 0x8, addend: 0x0, symName: '__ZN3syn4item8printing78_$LT$impl$u20$quote..to_tokens..ToTokens$u20$for$u20$syn..item..ItemStatic$GT$9to_tokens17h0372c1cdc8c68e6fE', symObjAddr: 0x22210, symBinAddr: 0xB5E90, symSize: 0x230 }
  - { offsetInCU: 0x6B208, offset: 0x402D1A, size: 0x8, addend: 0x0, symName: '__ZN3syn4item8printing75_$LT$impl$u20$quote..to_tokens..ToTokens$u20$for$u20$syn..item..ItemMod$GT$9to_tokens17h72ecbaeec8da64c3E', symObjAddr: 0x22710, symBinAddr: 0xB60C0, symSize: 0x1D0 }
  - { offsetInCU: 0x6B6F2, offset: 0x403204, size: 0x8, addend: 0x0, symName: '__ZN3syn4item8printing78_$LT$impl$u20$quote..to_tokens..ToTokens$u20$for$u20$syn..item..ItemStruct$GT$9to_tokens17h9e4291434040ecf6E', symObjAddr: 0x22DD0, symBinAddr: 0xB6290, symSize: 0x240 }
  - { offsetInCU: 0x6BC08, offset: 0x40371A, size: 0x8, addend: 0x0, symName: '__ZN3syn4item8printing77_$LT$impl$u20$quote..to_tokens..ToTokens$u20$for$u20$syn..item..ItemTrait$GT$9to_tokens17hc7a09227559d02c1E', symObjAddr: 0x231B0, symBinAddr: 0xB64D0, symSize: 0x300 }
  - { offsetInCU: 0x6C4E6, offset: 0x403FF8, size: 0x8, addend: 0x0, symName: '__ZN3syn4item8printing76_$LT$impl$u20$quote..to_tokens..ToTokens$u20$for$u20$syn..item..ItemImpl$GT$9to_tokens17h287d18505b2d3beaE', symObjAddr: 0x236A0, symBinAddr: 0xB67D0, symSize: 0x350 }
  - { offsetInCU: 0x6CDB7, offset: 0x4048C9, size: 0x8, addend: 0x0, symName: '__ZN3syn4item8printing77_$LT$impl$u20$quote..to_tokens..ToTokens$u20$for$u20$syn..item..ItemMacro$GT$9to_tokens17h5f576515c302371bE', symObjAddr: 0x239F0, symBinAddr: 0xB6B20, symSize: 0x1D0 }
  - { offsetInCU: 0x6D2C3, offset: 0x404DD5, size: 0x8, addend: 0x0, symName: '__ZN3syn4item8printing82_$LT$impl$u20$quote..to_tokens..ToTokens$u20$for$u20$syn..item..TraitItemConst$GT$9to_tokens17hebeef91d79144066E', symObjAddr: 0x23E80, symBinAddr: 0xB6CF0, symSize: 0x1D0 }
  - { offsetInCU: 0x6D701, offset: 0x405213, size: 0x8, addend: 0x0, symName: '__ZN3syn4item8printing81_$LT$impl$u20$quote..to_tokens..ToTokens$u20$for$u20$syn..item..TraitItemType$GT$9to_tokens17hbc7d2acbbe223865E', symObjAddr: 0x241C0, symBinAddr: 0xB6EC0, symSize: 0x260 }
  - { offsetInCU: 0x6DD40, offset: 0x405852, size: 0x8, addend: 0x0, symName: '__ZN3syn4item8printing81_$LT$impl$u20$quote..to_tokens..ToTokens$u20$for$u20$syn..item..ImplItemConst$GT$9to_tokens17hafd15b5bb34b7a0eE', symObjAddr: 0x24420, symBinAddr: 0xB7120, symSize: 0x250 }
  - { offsetInCU: 0x6E25E, offset: 0x405D70, size: 0x8, addend: 0x0, symName: '__ZN3syn4item8printing82_$LT$impl$u20$quote..to_tokens..ToTokens$u20$for$u20$syn..item..ImplItemMethod$GT$9to_tokens17hc09bddbda60a5eceE', symObjAddr: 0x24670, symBinAddr: 0xB7370, symSize: 0x2E0 }
  - { offsetInCU: 0x6EA7F, offset: 0x406591, size: 0x8, addend: 0x0, symName: '__ZN3syn4item8printing80_$LT$impl$u20$quote..to_tokens..ToTokens$u20$for$u20$syn..item..ImplItemType$GT$9to_tokens17hf6af0c870472d167E', symObjAddr: 0x24950, symBinAddr: 0xB7650, symSize: 0x240 }
  - { offsetInCU: 0x6F04D, offset: 0x406B5F, size: 0x8, addend: 0x0, symName: '__ZN3syn4item8printing77_$LT$impl$u20$quote..to_tokens..ToTokens$u20$for$u20$syn..item..Signature$GT$9to_tokens17h80d9758f45cc7465E', symObjAddr: 0x25120, symBinAddr: 0xB7890, symSize: 0x2F0 }
  - { offsetInCU: 0x6F841, offset: 0x407353, size: 0x8, addend: 0x0, symName: '__ZN3syn4item8printing76_$LT$impl$u20$quote..to_tokens..ToTokens$u20$for$u20$syn..item..Receiver$GT$9to_tokens17hae042ab8321fb7ccE', symObjAddr: 0x25410, symBinAddr: 0xB7B80, symSize: 0x240 }
  - { offsetInCU: 0x6FECB, offset: 0x4079DD, size: 0x8, addend: 0x0, symName: '__ZN62_$LT$syn..item..Item$u20$as$u20$quote..to_tokens..ToTokens$GT$9to_tokens17h6a074416b9441776E', symObjAddr: 0x25650, symBinAddr: 0xB7DC0, symSize: 0xEB0 }
  - { offsetInCU: 0x72119, offset: 0x409C2B, size: 0x8, addend: 0x0, symName: '__ZN65_$LT$syn..item..UseTree$u20$as$u20$quote..to_tokens..ToTokens$GT$9to_tokens17h84df66f963ce86feE', symObjAddr: 0x26500, symBinAddr: 0xB8C70, symSize: 0x180 }
  - { offsetInCU: 0x72420, offset: 0x409F32, size: 0x8, addend: 0x0, symName: '__ZN69_$LT$syn..item..ForeignItem$u20$as$u20$quote..to_tokens..ToTokens$GT$9to_tokens17hc8d261d43852e694E', symObjAddr: 0x26680, symBinAddr: 0xB8DF0, symSize: 0x540 }
  - { offsetInCU: 0x73115, offset: 0x40AC27, size: 0x8, addend: 0x0, symName: '__ZN67_$LT$syn..item..TraitItem$u20$as$u20$quote..to_tokens..ToTokens$GT$9to_tokens17h7c582bb777ff4118E', symObjAddr: 0x26BC0, symBinAddr: 0xB9330, symSize: 0x2E0 }
  - { offsetInCU: 0x73723, offset: 0x40B235, size: 0x8, addend: 0x0, symName: '__ZN66_$LT$syn..item..ImplItem$u20$as$u20$quote..to_tokens..ToTokens$GT$9to_tokens17h77c10b424d72dc62E', symObjAddr: 0x26EA0, symBinAddr: 0xB9610, symSize: 0x1C0 }
  - { offsetInCU: 0x74420, offset: 0x40BF32, size: 0x8, addend: 0x0, symName: '__ZN3syn3gen5clone65_$LT$impl$u20$core..clone..Clone$u20$for$u20$syn..item..FnArg$GT$5clone17hd2b92dd23546132fE', symObjAddr: 0x272B0, symBinAddr: 0xB97D0, symSize: 0x160 }
  - { offsetInCU: 0x747BF, offset: 0x40C2D1, size: 0x8, addend: 0x0, symName: '__ZN3syn3gen5clone71_$LT$impl$u20$core..clone..Clone$u20$for$u20$syn..item..ForeignItem$GT$5clone17ha2d7760a426c1ed4E', symObjAddr: 0x27410, symBinAddr: 0xB9930, symSize: 0x1F0 }
  - { offsetInCU: 0x74B31, offset: 0x40C643, size: 0x8, addend: 0x0, symName: '__ZN3syn3gen5clone73_$LT$impl$u20$core..clone..Clone$u20$for$u20$syn..item..ForeignItemFn$GT$5clone17h1aa4278c49c972c0E', symObjAddr: 0x27600, symBinAddr: 0xB9B20, symSize: 0xE0 }
  - { offsetInCU: 0x74B95, offset: 0x40C6A7, size: 0x8, addend: 0x0, symName: '__ZN3syn3gen5clone77_$LT$impl$u20$core..clone..Clone$u20$for$u20$syn..item..ForeignItemStatic$GT$5clone17hf51f303b80193f6aE', symObjAddr: 0x276E0, symBinAddr: 0xB9C00, symSize: 0x1D0 }
  - { offsetInCU: 0x750A8, offset: 0x40CBBA, size: 0x8, addend: 0x0, symName: '__ZN3syn3gen5clone75_$LT$impl$u20$core..clone..Clone$u20$for$u20$syn..item..ForeignItemType$GT$5clone17h24d80924544002ecE', symObjAddr: 0x278B0, symBinAddr: 0xB9DD0, symSize: 0xF0 }
  - { offsetInCU: 0x7523E, offset: 0x40CD50, size: 0x8, addend: 0x0, symName: '__ZN3syn3gen5clone68_$LT$impl$u20$core..clone..Clone$u20$for$u20$syn..item..ImplItem$GT$5clone17hca1eab2e893bfc2eE', symObjAddr: 0x279A0, symBinAddr: 0xB9EC0, symSize: 0x1F0 }
  - { offsetInCU: 0x755B0, offset: 0x40D0C2, size: 0x8, addend: 0x0, symName: '__ZN3syn3gen5clone73_$LT$impl$u20$core..clone..Clone$u20$for$u20$syn..item..ImplItemConst$GT$5clone17h0909fef0d5c96f6bE', symObjAddr: 0x27B90, symBinAddr: 0xBA0B0, symSize: 0x200 }
  - { offsetInCU: 0x75895, offset: 0x40D3A7, size: 0x8, addend: 0x0, symName: '__ZN3syn3gen5clone74_$LT$impl$u20$core..clone..Clone$u20$for$u20$syn..item..ImplItemMethod$GT$5clone17h3cfbea8f38e392e3E', symObjAddr: 0x27E20, symBinAddr: 0xBA2B0, symSize: 0x150 }
  - { offsetInCU: 0x75924, offset: 0x40D436, size: 0x8, addend: 0x0, symName: '__ZN3syn3gen5clone72_$LT$impl$u20$core..clone..Clone$u20$for$u20$syn..item..ImplItemType$GT$5clone17ha328e6583542c133E', symObjAddr: 0x27F70, symBinAddr: 0xBA400, symSize: 0x300 }
  - { offsetInCU: 0x75CE9, offset: 0x40D7FB, size: 0x8, addend: 0x0, symName: '__ZN3syn3gen5clone64_$LT$impl$u20$core..clone..Clone$u20$for$u20$syn..item..Item$GT$5clone17hc468c9c92dd72accE', symObjAddr: 0x28270, symBinAddr: 0xBA700, symSize: 0x4F0 }
  - { offsetInCU: 0x762A0, offset: 0x40DDB2, size: 0x8, addend: 0x0, symName: '__ZN3syn3gen5clone69_$LT$impl$u20$core..clone..Clone$u20$for$u20$syn..item..ItemConst$GT$5clone17h43d65965ba677a56E', symObjAddr: 0x28760, symBinAddr: 0xBABF0, symSize: 0x260 }
  - { offsetInCU: 0x769FB, offset: 0x40E50D, size: 0x8, addend: 0x0, symName: '__ZN3syn3gen5clone68_$LT$impl$u20$core..clone..Clone$u20$for$u20$syn..item..ItemEnum$GT$5clone17h92a443df07f013fcE', symObjAddr: 0x289C0, symBinAddr: 0xBAE50, symSize: 0x2E0 }
  - { offsetInCU: 0x76D58, offset: 0x40E86A, size: 0x8, addend: 0x0, symName: '__ZN3syn3gen5clone75_$LT$impl$u20$core..clone..Clone$u20$for$u20$syn..item..ItemExternCrate$GT$5clone17h17047bc6e64f1a99E', symObjAddr: 0x28CA0, symBinAddr: 0xBB130, symSize: 0x180 }
  - { offsetInCU: 0x770CC, offset: 0x40EBDE, size: 0x8, addend: 0x0, symName: '__ZN3syn3gen5clone66_$LT$impl$u20$core..clone..Clone$u20$for$u20$syn..item..ItemFn$GT$5clone17h1d3c487670e96e52E', symObjAddr: 0x28E20, symBinAddr: 0xBB2B0, symSize: 0x180 }
  - { offsetInCU: 0x773AB, offset: 0x40EEBD, size: 0x8, addend: 0x0, symName: '__ZN3syn3gen5clone68_$LT$impl$u20$core..clone..Clone$u20$for$u20$syn..item..ItemImpl$GT$5clone17hf13ded3f3823d2a0E', symObjAddr: 0x29070, symBinAddr: 0xBB430, symSize: 0x400 }
  - { offsetInCU: 0x778C7, offset: 0x40F3D9, size: 0x8, addend: 0x0, symName: '__ZN3syn3gen5clone69_$LT$impl$u20$core..clone..Clone$u20$for$u20$syn..item..ItemMacro$GT$5clone17h456a7ef623787323E', symObjAddr: 0x29470, symBinAddr: 0xBB830, symSize: 0x100 }
  - { offsetInCU: 0x77B32, offset: 0x40F644, size: 0x8, addend: 0x0, symName: '__ZN3syn3gen5clone70_$LT$impl$u20$core..clone..Clone$u20$for$u20$syn..item..ItemMacro2$GT$5clone17hd4623749539ec3fbE', symObjAddr: 0x29570, symBinAddr: 0xBB930, symSize: 0x190 }
  - { offsetInCU: 0x77F9F, offset: 0x40FAB1, size: 0x8, addend: 0x0, symName: '__ZN3syn3gen5clone67_$LT$impl$u20$core..clone..Clone$u20$for$u20$syn..item..ItemMod$GT$5clone17h8ee308e962dc5fd4E', symObjAddr: 0x29700, symBinAddr: 0xBBAC0, symSize: 0x170 }
  - { offsetInCU: 0x78248, offset: 0x40FD5A, size: 0x8, addend: 0x0, symName: '__ZN3syn3gen5clone70_$LT$impl$u20$core..clone..Clone$u20$for$u20$syn..item..ItemStatic$GT$5clone17h55f4779535d03a6aE', symObjAddr: 0x29870, symBinAddr: 0xBBC30, symSize: 0x280 }
  - { offsetInCU: 0x789CE, offset: 0x4104E0, size: 0x8, addend: 0x0, symName: '__ZN3syn3gen5clone70_$LT$impl$u20$core..clone..Clone$u20$for$u20$syn..item..ItemStruct$GT$5clone17h75c4901bcc4a9c41E', symObjAddr: 0x29AF0, symBinAddr: 0xBBEB0, symSize: 0x340 }
  - { offsetInCU: 0x78DF8, offset: 0x41090A, size: 0x8, addend: 0x0, symName: '__ZN3syn3gen5clone69_$LT$impl$u20$core..clone..Clone$u20$for$u20$syn..item..ItemTrait$GT$5clone17h39fb4d74cd90a6b3E', symObjAddr: 0x29E30, symBinAddr: 0xBC1F0, symSize: 0x390 }
  - { offsetInCU: 0x791C5, offset: 0x410CD7, size: 0x8, addend: 0x0, symName: '__ZN3syn3gen5clone74_$LT$impl$u20$core..clone..Clone$u20$for$u20$syn..item..ItemTraitAlias$GT$5clone17h895a9f37c2b1dd2eE', symObjAddr: 0x2A1C0, symBinAddr: 0xBC580, symSize: 0x2F0 }
  - { offsetInCU: 0x79550, offset: 0x411062, size: 0x8, addend: 0x0, symName: '__ZN3syn3gen5clone68_$LT$impl$u20$core..clone..Clone$u20$for$u20$syn..item..ItemType$GT$5clone17hca23f7b427cb77d5E', symObjAddr: 0x2A4B0, symBinAddr: 0xBC870, symSize: 0x330 }
  - { offsetInCU: 0x79B38, offset: 0x41164A, size: 0x8, addend: 0x0, symName: '__ZN3syn3gen5clone69_$LT$impl$u20$core..clone..Clone$u20$for$u20$syn..item..ItemUnion$GT$5clone17hfe5e3e6409a8daafE', symObjAddr: 0x2A7E0, symBinAddr: 0xBCBA0, symSize: 0x2E0 }
  - { offsetInCU: 0x79E93, offset: 0x4119A5, size: 0x8, addend: 0x0, symName: '__ZN3syn3gen5clone67_$LT$impl$u20$core..clone..Clone$u20$for$u20$syn..item..ItemUse$GT$5clone17h846bdf7bc46ef2e2E', symObjAddr: 0x2AAC0, symBinAddr: 0xBCE80, symSize: 0x110 }
  - { offsetInCU: 0x79F53, offset: 0x411A65, size: 0x8, addend: 0x0, symName: '__ZN3syn3gen5clone69_$LT$impl$u20$core..clone..Clone$u20$for$u20$syn..item..Signature$GT$5clone17h1b9cb8773a9b2598E', symObjAddr: 0x2ACB0, symBinAddr: 0xBCF90, symSize: 0x4D0 }
  - { offsetInCU: 0x7A764, offset: 0x412276, size: 0x8, addend: 0x0, symName: '__ZN3syn3gen5clone69_$LT$impl$u20$core..clone..Clone$u20$for$u20$syn..item..TraitItem$GT$5clone17h3ee2e61d5bf8f727E', symObjAddr: 0x2B180, symBinAddr: 0xBD460, symSize: 0x1F0 }
  - { offsetInCU: 0x7AAEE, offset: 0x412600, size: 0x8, addend: 0x0, symName: '__ZN3syn3gen5clone74_$LT$impl$u20$core..clone..Clone$u20$for$u20$syn..item..TraitItemConst$GT$5clone17h4021fd18a2e713f3E', symObjAddr: 0x2B370, symBinAddr: 0xBD650, symSize: 0x1E0 }
  - { offsetInCU: 0x7ADDF, offset: 0x4128F1, size: 0x8, addend: 0x0, symName: '__ZN3syn3gen5clone75_$LT$impl$u20$core..clone..Clone$u20$for$u20$syn..item..TraitItemMethod$GT$5clone17hc47d58827cc0ca9eE', symObjAddr: 0x2B550, symBinAddr: 0xBD830, symSize: 0x120 }
  - { offsetInCU: 0x7AED4, offset: 0x4129E6, size: 0x8, addend: 0x0, symName: '__ZN3syn3gen5clone73_$LT$impl$u20$core..clone..Clone$u20$for$u20$syn..item..TraitItemType$GT$5clone17ha0f0089bf4f5ffccE', symObjAddr: 0x2B670, symBinAddr: 0xBD950, symSize: 0x390 }
  - { offsetInCU: 0x7B37F, offset: 0x412E91, size: 0x8, addend: 0x0, symName: '__ZN3syn3gen5clone67_$LT$impl$u20$core..clone..Clone$u20$for$u20$syn..item..UseTree$GT$5clone17h372b10715657b71cE', symObjAddr: 0x2BCD0, symBinAddr: 0xBDCE0, symSize: 0x358 }
  - { offsetInCU: 0x7DA3A, offset: 0x41554C, size: 0x8, addend: 0x0, symName: '__ZN4core6result19Result$LT$T$C$E$GT$3map17h02259476edfedfc1E', symObjAddr: 0x8C60, symBinAddr: 0xA2670, symSize: 0xD0 }
  - { offsetInCU: 0x7DBE8, offset: 0x4156FA, size: 0x8, addend: 0x0, symName: '__ZN4core6result19Result$LT$T$C$E$GT$3map17h0fc6027717260dc0E', symObjAddr: 0x8D30, symBinAddr: 0xA2740, symSize: 0xD0 }
  - { offsetInCU: 0x7E1E0, offset: 0x415CF2, size: 0x8, addend: 0x0, symName: '__ZN5alloc3vec16Vec$LT$T$C$A$GT$6append17haaf8531508cbcdacE', symObjAddr: 0x9000, symBinAddr: 0xA29C0, symSize: 0x80 }
  - { offsetInCU: 0x7E481, offset: 0x415F93, size: 0x8, addend: 0x0, symName: __ZN3syn4item4Item13replace_attrs17ha6cae67ff9a40b12E, symObjAddr: 0x90D0, symBinAddr: 0xA2A80, symSize: 0x160 }
  - { offsetInCU: 0x1E, offset: 0x427D2E, size: 0x8, addend: 0x0, symName: '__ZN136_$LT$alloc..vec..Vec$LT$T$C$A$GT$$u20$as$u20$alloc..vec..spec_extend..SpecExtend$LT$T$C$alloc..vec..into_iter..IntoIter$LT$T$GT$$GT$$GT$11spec_extend17h744176932ac7ab2dE', symObjAddr: 0x0, symBinAddr: 0xBE040, symSize: 0xB0 }
  - { offsetInCU: 0x2DFE, offset: 0x42AB0E, size: 0x8, addend: 0x0, symName: '__ZN4core3ptr100drop_in_place$LT$core..option..Option$LT$alloc..boxed..Box$LT$syn..generics..LifetimeDef$GT$$GT$$GT$17h0fb31368c552c835E.llvm.2599103664634677082', symObjAddr: 0x180, symBinAddr: 0xBE0F0, symSize: 0x50 }
  - { offsetInCU: 0x2F8F, offset: 0x42AC9F, size: 0x8, addend: 0x0, symName: '__ZN4core3ptr100drop_in_place$LT$core..option..Option$LT$alloc..boxed..Box$LT$syn..path..GenericArgument$GT$$GT$$GT$17h94fb3e089cc53ce6E', symObjAddr: 0x1D0, symBinAddr: 0xBE140, symSize: 0x50 }
  - { offsetInCU: 0x3120, offset: 0x42AE30, size: 0x8, addend: 0x0, symName: '__ZN4core3ptr101drop_in_place$LT$core..option..Option$LT$alloc..boxed..Box$LT$syn..generics..GenericParam$GT$$GT$$GT$17hddd995aa16037695E', symObjAddr: 0x220, symBinAddr: 0xBE190, symSize: 0x50 }
  - { offsetInCU: 0x330E, offset: 0x42B01E, size: 0x8, addend: 0x0, symName: '__ZN4core3ptr102drop_in_place$LT$syn..punctuated..Punctuated$LT$syn..generics..LifetimeDef$C$syn..token..Comma$GT$$GT$17h5b8145fa61e22fe3E.llvm.2599103664634677082', symObjAddr: 0x270, symBinAddr: 0xBE1E0, symSize: 0xF0 }
  - { offsetInCU: 0x3654, offset: 0x42B364, size: 0x8, addend: 0x0, symName: '__ZN4core3ptr102drop_in_place$LT$syn..punctuated..Punctuated$LT$syn..path..GenericArgument$C$syn..token..Comma$GT$$GT$17h64f34065726c40a3E.llvm.2599103664634677082', symObjAddr: 0x360, symBinAddr: 0xBE2D0, symSize: 0xF0 }
  - { offsetInCU: 0x3A54, offset: 0x42B764, size: 0x8, addend: 0x0, symName: '__ZN4core3ptr103drop_in_place$LT$core..option..Option$LT$alloc..boxed..Box$LT$syn..generics..TypeParamBound$GT$$GT$$GT$17h630691d3d4346209E', symObjAddr: 0x450, symBinAddr: 0xBE3C0, symSize: 0xA0 }
  - { offsetInCU: 0x3D4A, offset: 0x42BA5A, size: 0x8, addend: 0x0, symName: '__ZN4core3ptr103drop_in_place$LT$core..option..Option$LT$alloc..boxed..Box$LT$syn..generics..WherePredicate$GT$$GT$$GT$17h195ffde7a8330f89E', symObjAddr: 0x4F0, symBinAddr: 0xBE460, symSize: 0x50 }
  - { offsetInCU: 0x3F76, offset: 0x42BC86, size: 0x8, addend: 0x0, symName: '__ZN4core3ptr103drop_in_place$LT$syn..punctuated..Punctuated$LT$syn..generics..GenericParam$C$syn..token..Comma$GT$$GT$17hb2bb85f0e77d8df9E', symObjAddr: 0x540, symBinAddr: 0xBE4B0, symSize: 0x1A0 }
  - { offsetInCU: 0x44C9, offset: 0x42C1D9, size: 0x8, addend: 0x0, symName: '__ZN4core3ptr103drop_in_place$LT$syn..punctuated..Punctuated$LT$syn..generics..TypeParamBound$C$syn..token..Add$GT$$GT$17h517181ada56b9062E.llvm.2599103664634677082', symObjAddr: 0x6E0, symBinAddr: 0xBE650, symSize: 0x290 }
  - { offsetInCU: 0x50BC, offset: 0x42CDCC, size: 0x8, addend: 0x0, symName: '__ZN4core3ptr105drop_in_place$LT$syn..punctuated..Punctuated$LT$syn..generics..WherePredicate$C$syn..token..Comma$GT$$GT$17ha5b7410309c7172fE', symObjAddr: 0x970, symBinAddr: 0xBE8E0, symSize: 0x190 }
  - { offsetInCU: 0x56EF, offset: 0x42D3FF, size: 0x8, addend: 0x0, symName: '__ZN4core3ptr108drop_in_place$LT$syn..punctuated..Punctuated$LT$syn..expr..GenericMethodArgument$C$syn..token..Comma$GT$$GT$17h413f77b0de48dbb7E', symObjAddr: 0xB00, symBinAddr: 0xBEA70, symSize: 0x160 }
  - { offsetInCU: 0x5B88, offset: 0x42D898, size: 0x8, addend: 0x0, symName: '__ZN4core3ptr126drop_in_place$LT$core..option..Option$LT$$LP$syn..token..And$C$core..option..Option$LT$syn..lifetime..Lifetime$GT$$RP$$GT$$GT$17hf44b7a8b485ad914E', symObjAddr: 0xC60, symBinAddr: 0xBEBD0, symSize: 0x30 }
  - { offsetInCU: 0x5E18, offset: 0x42DB28, size: 0x8, addend: 0x0, symName: '__ZN4core3ptr33drop_in_place$LT$syn..ty..Abi$GT$17hb6437e811f32e133E', symObjAddr: 0xC90, symBinAddr: 0xBEC00, symSize: 0x60 }
  - { offsetInCU: 0x5E34, offset: 0x42DB44, size: 0x8, addend: 0x0, symName: '__ZN4core3ptr33drop_in_place$LT$syn..ty..Abi$GT$17hb6437e811f32e133E', symObjAddr: 0xC90, symBinAddr: 0xBEC00, symSize: 0x60 }
  - { offsetInCU: 0x612E, offset: 0x42DE3E, size: 0x8, addend: 0x0, symName: '__ZN4core3ptr34drop_in_place$LT$syn..lit..Lit$GT$17heb8f235ab74bc4d4E.llvm.2599103664634677082', symObjAddr: 0xCF0, symBinAddr: 0xBEC60, symSize: 0x110 }
  - { offsetInCU: 0x662A, offset: 0x42E33A, size: 0x8, addend: 0x0, symName: '__ZN4core3ptr34drop_in_place$LT$syn..pat..Pat$GT$17hd6fa3ad4d18570d7E.llvm.2599103664634677082', symObjAddr: 0xE00, symBinAddr: 0xBED70, symSize: 0x910 }
  - { offsetInCU: 0x948B, offset: 0x43119B, size: 0x8, addend: 0x0, symName: '__ZN4core3ptr34drop_in_place$LT$syn..ty..Type$GT$17hfd9bfeacac76fc9aE.llvm.2599103664634677082', symObjAddr: 0x1710, symBinAddr: 0xBF680, symSize: 0x360 }
  - { offsetInCU: 0xA0A6, offset: 0x431DB6, size: 0x8, addend: 0x0, symName: '__ZN4core3ptr35drop_in_place$LT$syn..expr..Arm$GT$17h7175e6cd7c5f8e3dE.llvm.2599103664634677082', symObjAddr: 0x1A70, symBinAddr: 0xBF9E0, symSize: 0x1B0 }
  - { offsetInCU: 0xACFD, offset: 0x432A0D, size: 0x8, addend: 0x0, symName: '__ZN4core3ptr36drop_in_place$LT$syn..expr..Expr$GT$17h6b8a9b85afc75571E.llvm.2599103664634677082', symObjAddr: 0x1C20, symBinAddr: 0xBFB90, symSize: 0x1DC0 }
  - { offsetInCU: 0x142B4, offset: 0x43BFC4, size: 0x8, addend: 0x0, symName: '__ZN4core3ptr36drop_in_place$LT$syn..item..Item$GT$17haed0da6f7829d8d2E.llvm.2599103664634677082', symObjAddr: 0x39E0, symBinAddr: 0xC1950, symSize: 0x1600 }
  - { offsetInCU: 0x1A6C7, offset: 0x4423D7, size: 0x8, addend: 0x0, symName: '__ZN4core3ptr36drop_in_place$LT$syn..mac..Macro$GT$17ha661e027deab4b66E', symObjAddr: 0x4FE0, symBinAddr: 0xC2F50, symSize: 0x40 }
  - { offsetInCU: 0x1A79C, offset: 0x4424AC, size: 0x8, addend: 0x0, symName: '__ZN4core3ptr36drop_in_place$LT$syn..path..Path$GT$17he4358a51dbdb774bE.llvm.2599103664634677082', symObjAddr: 0x5020, symBinAddr: 0xC2F90, symSize: 0x140 }
  - { offsetInCU: 0x1AD23, offset: 0x442A33, size: 0x8, addend: 0x0, symName: '__ZN4core3ptr36drop_in_place$LT$syn..stmt..Stmt$GT$17hdfc91ce6c1514c47E.llvm.2599103664634677082', symObjAddr: 0x5160, symBinAddr: 0xC30D0, symSize: 0x140 }
  - { offsetInCU: 0x1B18B, offset: 0x442E9B, size: 0x8, addend: 0x0, symName: '__ZN4core3ptr37drop_in_place$LT$syn..data..Field$GT$17hdbd7b0220783ea3eE.llvm.2599103664634677082', symObjAddr: 0x52A0, symBinAddr: 0xC3210, symSize: 0x1C0 }
  - { offsetInCU: 0x1B766, offset: 0x443476, size: 0x8, addend: 0x0, symName: '__ZN4core3ptr37drop_in_place$LT$syn..item..FnArg$GT$17h2cc574b44d8e55adE.llvm.2599103664634677082', symObjAddr: 0x5460, symBinAddr: 0xC33D0, symSize: 0x190 }
  - { offsetInCU: 0x1C0A3, offset: 0x443DB3, size: 0x8, addend: 0x0, symName: '__ZN4core3ptr37drop_in_place$LT$syn..stmt..Block$GT$17hfb4d80957646e543E', symObjAddr: 0x55F0, symBinAddr: 0xC3560, symSize: 0xD0 }
  - { offsetInCU: 0x1C347, offset: 0x444057, size: 0x8, addend: 0x0, symName: '__ZN4core3ptr38drop_in_place$LT$syn..expr..Member$GT$17h3141a26ba2d76dd7E.llvm.2599103664634677082', symObjAddr: 0x56C0, symBinAddr: 0xC3630, symSize: 0x30 }
  - { offsetInCU: 0x1C444, offset: 0x444154, size: 0x8, addend: 0x0, symName: '__ZN4core3ptr38drop_in_place$LT$syn..pat..PatType$GT$17h8c3d1bd2beead914E.llvm.2599103664634677082', symObjAddr: 0x56F0, symBinAddr: 0xC3660, symSize: 0x170 }
  - { offsetInCU: 0x1C9B3, offset: 0x4446C3, size: 0x8, addend: 0x0, symName: '__ZN4core3ptr38drop_in_place$LT$syn..ty..Variadic$GT$17h5942cd561e75a6abE', symObjAddr: 0x5860, symBinAddr: 0xC37D0, symSize: 0xF0 }
  - { offsetInCU: 0x1CC7A, offset: 0x44498A, size: 0x8, addend: 0x0, symName: '__ZN4core3ptr39drop_in_place$LT$proc_macro2..Ident$GT$17hfc382935d884a247E', symObjAddr: 0x5950, symBinAddr: 0xC38C0, symSize: 0x30 }
  - { offsetInCU: 0x1CE8E, offset: 0x444B9E, size: 0x8, addend: 0x0, symName: '__ZN4core3ptr39drop_in_place$LT$syn..buffer..Entry$GT$17h0c28ef8d28b902fcE.llvm.2599103664634677082', symObjAddr: 0x5980, symBinAddr: 0xC38F0, symSize: 0xC0 }
  - { offsetInCU: 0x1D1FF, offset: 0x444F0F, size: 0x8, addend: 0x0, symName: '__ZN4core3ptr39drop_in_place$LT$syn..data..Variant$GT$17hd26a0c0f65be4b43E.llvm.2599103664634677082', symObjAddr: 0x5A40, symBinAddr: 0xC39B0, symSize: 0x330 }
  - { offsetInCU: 0x1DE37, offset: 0x445B47, size: 0x8, addend: 0x0, symName: '__ZN4core3ptr39drop_in_place$LT$syn..item..UseTree$GT$17h25d9f1648b09fcd7E.llvm.2599103664634677082', symObjAddr: 0x5D70, symBinAddr: 0xC3CE0, symSize: 0x1E0 }
  - { offsetInCU: 0x1E5D9, offset: 0x4462E9, size: 0x8, addend: 0x0, symName: '__ZN4core3ptr39drop_in_place$LT$syn..pat..PatTuple$GT$17h232e0cbeb905e9d9E', symObjAddr: 0x5F50, symBinAddr: 0xC3EC0, symSize: 0x200 }
  - { offsetInCU: 0x1EDAE, offset: 0x446ABE, size: 0x8, addend: 0x0, symName: '__ZN4core3ptr40drop_in_place$LT$syn..attr..MetaList$GT$17h9ef59638ac2d5b50E.llvm.2599103664634677082', symObjAddr: 0x6150, symBinAddr: 0xC40C0, symSize: 0x130 }
  - { offsetInCU: 0x1F1F8, offset: 0x446F08, size: 0x8, addend: 0x0, symName: '__ZN4core3ptr40drop_in_place$LT$syn..item..Receiver$GT$17heaf5782384f4b1d4E.llvm.2599103664634677082', symObjAddr: 0x6280, symBinAddr: 0xC41F0, symSize: 0x140 }
  - { offsetInCU: 0x1F646, offset: 0x447356, size: 0x8, addend: 0x0, symName: '__ZN4core3ptr40drop_in_place$LT$syn..ty..ReturnType$GT$17h42cc52c006e6d7cdE.llvm.2599103664634677082', symObjAddr: 0x63C0, symBinAddr: 0xC4330, symSize: 0x50 }
  - { offsetInCU: 0x1F7B8, offset: 0x4474C8, size: 0x8, addend: 0x0, symName: '__ZN4core3ptr41drop_in_place$LT$syn..attr..Attribute$GT$17h519230889df99b21E.llvm.2599103664634677082', symObjAddr: 0x6410, symBinAddr: 0xC4380, symSize: 0x40 }
  - { offsetInCU: 0x1F928, offset: 0x447638, size: 0x8, addend: 0x0, symName: '__ZN4core3ptr41drop_in_place$LT$syn..item..Signature$GT$17h7d7f449a9806c924E', symObjAddr: 0x6450, symBinAddr: 0xC43C0, symSize: 0x330 }
  - { offsetInCU: 0x20686, offset: 0x448396, size: 0x8, addend: 0x0, symName: '__ZN4core3ptr42drop_in_place$LT$syn..attr..NestedMeta$GT$17h1bcab9f5731da99fE.llvm.2599103664634677082', symObjAddr: 0x6780, symBinAddr: 0xC46F0, symSize: 0x110 }
  - { offsetInCU: 0x20859, offset: 0x448569, size: 0x8, addend: 0x0, symName: '__ZN4core3ptr43drop_in_place$LT$proc_macro2..TokenTree$GT$17h9e74062a3652cd9cE.llvm.2599103664634677082', symObjAddr: 0x6890, symBinAddr: 0xC4800, symSize: 0xB0 }
  - { offsetInCU: 0x20B6D, offset: 0x44887D, size: 0x8, addend: 0x0, symName: '__ZN4core3ptr43drop_in_place$LT$syn..data..FieldsNamed$GT$17hd9424b8d746ee929E', symObjAddr: 0x6940, symBinAddr: 0xC48B0, symSize: 0x120 }
  - { offsetInCU: 0x21033, offset: 0x448D43, size: 0x8, addend: 0x0, symName: '__ZN4core3ptr43drop_in_place$LT$syn..path..PathSegment$GT$17h018f6e269dc7881fE.llvm.2599103664634677082', symObjAddr: 0x6A60, symBinAddr: 0xC49D0, symSize: 0x170 }
  - { offsetInCU: 0x215F6, offset: 0x449306, size: 0x8, addend: 0x0, symName: '__ZN4core3ptr44drop_in_place$LT$syn..generics..Generics$GT$17hb46e5bc833bfc579E', symObjAddr: 0x6BD0, symBinAddr: 0xC4B40, symSize: 0x220 }
  - { offsetInCU: 0x21E73, offset: 0x449B83, size: 0x8, addend: 0x0, symName: '__ZN4core3ptr44drop_in_place$LT$syn..item..ImplItemType$GT$17h46237c66511d6367E', symObjAddr: 0x6DF0, symBinAddr: 0xC4D60, symSize: 0x200 }
  - { offsetInCU: 0x22471, offset: 0x44A181, size: 0x8, addend: 0x0, symName: '__ZN4core3ptr44drop_in_place$LT$syn..lifetime..Lifetime$GT$17h94c9fe51c9dd60c6E.llvm.2599103664634677082', symObjAddr: 0x6FF0, symBinAddr: 0xC4F60, symSize: 0x30 }
  - { offsetInCU: 0x225CB, offset: 0x44A2DB, size: 0x8, addend: 0x0, symName: '__ZN4core3ptr45drop_in_place$LT$proc_macro2..TokenStream$GT$17h44f5bf9c29d914fbE.llvm.2599103664634677082', symObjAddr: 0x7020, symBinAddr: 0xC4F90, symSize: 0x70 }
  - { offsetInCU: 0x22700, offset: 0x44A410, size: 0x8, addend: 0x0, symName: '__ZN4core3ptr45drop_in_place$LT$syn..data..VisRestricted$GT$17h2302f3a1feea36b8E', symObjAddr: 0x7090, symBinAddr: 0xC5000, symSize: 0xA0 }
  - { offsetInCU: 0x22A4C, offset: 0x44A75C, size: 0x8, addend: 0x0, symName: '__ZN4core3ptr45drop_in_place$LT$syn..generics..TypeParam$GT$17hd3acb087586a9773E.llvm.2599103664634677082', symObjAddr: 0x7130, symBinAddr: 0xC50A0, symSize: 0x220 }
  - { offsetInCU: 0x2325F, offset: 0x44AF6F, size: 0x8, addend: 0x0, symName: '__ZN4core3ptr45drop_in_place$LT$syn..item..ImplItemConst$GT$17hd0bf76eb846f4a62E', symObjAddr: 0x7350, symBinAddr: 0xC52C0, symSize: 0x1D0 }
  - { offsetInCU: 0x2381A, offset: 0x44B52A, size: 0x8, addend: 0x0, symName: '__ZN4core3ptr45drop_in_place$LT$syn..item..TraitItemType$GT$17hb89be19d5bf51e58E', symObjAddr: 0x7520, symBinAddr: 0xC5490, symSize: 0x270 }
  - { offsetInCU: 0x24113, offset: 0x44BE23, size: 0x8, addend: 0x0, symName: '__ZN4core3ptr45drop_in_place$LT$syn..path..PathArguments$GT$17h97e34ae94dc3f5efE.llvm.2599103664634677082', symObjAddr: 0x7790, symBinAddr: 0xC5700, symSize: 0xA0 }
  - { offsetInCU: 0x242E8, offset: 0x44BFF8, size: 0x8, addend: 0x0, symName: '__ZN4core3ptr46drop_in_place$LT$syn..generics..ConstParam$GT$17h819bb1c154e1dd96E.llvm.2599103664634677082', symObjAddr: 0x7830, symBinAddr: 0xC57A0, symSize: 0x190 }
  - { offsetInCU: 0x246FF, offset: 0x44C40F, size: 0x8, addend: 0x0, symName: '__ZN4core3ptr46drop_in_place$LT$syn..item..ImplItemMethod$GT$17hc7f6e235018e11c9E', symObjAddr: 0x79C0, symBinAddr: 0xC5930, symSize: 0x240 }
  - { offsetInCU: 0x24E0F, offset: 0x44CB1F, size: 0x8, addend: 0x0, symName: '__ZN4core3ptr46drop_in_place$LT$syn..item..TraitItemConst$GT$17hcf70fd15ba808f43E', symObjAddr: 0x7C00, symBinAddr: 0xC5B70, symSize: 0x180 }
  - { offsetInCU: 0x2525C, offset: 0x44CF6C, size: 0x8, addend: 0x0, symName: '__ZN4core3ptr47drop_in_place$LT$syn..generics..LifetimeDef$GT$17h651f63d4c11a8213E.llvm.2599103664634677082', symObjAddr: 0x7D80, symBinAddr: 0xC5CF0, symSize: 0x150 }
  - { offsetInCU: 0x2564D, offset: 0x44D35D, size: 0x8, addend: 0x0, symName: '__ZN4core3ptr47drop_in_place$LT$syn..generics..WhereClause$GT$17h7613c87707159a36E', symObjAddr: 0x7ED0, symBinAddr: 0xC5E40, symSize: 0x120 }
  - { offsetInCU: 0x25AD5, offset: 0x44D7E5, size: 0x8, addend: 0x0, symName: '__ZN4core3ptr47drop_in_place$LT$syn..path..GenericArgument$GT$17h53f7c77f182368f5E.llvm.2599103664634677082', symObjAddr: 0x7FF0, symBinAddr: 0xC5F60, symSize: 0xE0 }
  - { offsetInCU: 0x25E0E, offset: 0x44DB1E, size: 0x8, addend: 0x0, symName: '__ZN4core3ptr48drop_in_place$LT$syn..generics..GenericParam$GT$17h495fd5d715ffe02dE.llvm.2599103664634677082', symObjAddr: 0x80D0, symBinAddr: 0xC6040, symSize: 0xF0 }
  - { offsetInCU: 0x261BD, offset: 0x44DECD, size: 0x8, addend: 0x0, symName: '__ZN4core3ptr49drop_in_place$LT$syn..generics..PredicateType$GT$17h03235bb7d5ef1e94E.llvm.2599103664634677082', symObjAddr: 0x81C0, symBinAddr: 0xC6130, symSize: 0x1E0 }
  - { offsetInCU: 0x269C2, offset: 0x44E6D2, size: 0x8, addend: 0x0, symName: '__ZN4core3ptr49drop_in_place$LT$syn..item..ForeignItemStatic$GT$17h5f62d90ee52c04d7E', symObjAddr: 0x83A0, symBinAddr: 0xC6310, symSize: 0x1D0 }
  - { offsetInCU: 0x27223, offset: 0x44EF33, size: 0x8, addend: 0x0, symName: '__ZN4core3ptr50drop_in_place$LT$$u5b$syn..item..ImplItem$u5d$$GT$17h5700f267b2e0f2b2E.llvm.2599103664634677082', symObjAddr: 0x8570, symBinAddr: 0xC64E0, symSize: 0x8F0 }
  - { offsetInCU: 0x2887B, offset: 0x45058B, size: 0x8, addend: 0x0, symName: '__ZN4core3ptr50drop_in_place$LT$syn..generics..BoundLifetimes$GT$17hdf3a1914bf6bd627E.llvm.2599103664634677082', symObjAddr: 0x8E60, symBinAddr: 0xC6DD0, symSize: 0x110 }
  - { offsetInCU: 0x28CC5, offset: 0x4509D5, size: 0x8, addend: 0x0, symName: '__ZN4core3ptr50drop_in_place$LT$syn..generics..TypeParamBound$GT$17h6143e12a0db0ceabE.llvm.2599103664634677082', symObjAddr: 0x8F70, symBinAddr: 0xC6EE0, symSize: 0xD0 }
  - { offsetInCU: 0x28FD6, offset: 0x450CE6, size: 0x8, addend: 0x0, symName: '__ZN4core3ptr50drop_in_place$LT$syn..generics..WherePredicate$GT$17h52fd3a5f40aa25a5E.llvm.2599103664634677082', symObjAddr: 0x9040, symBinAddr: 0xC6FB0, symSize: 0xE0 }
  - { offsetInCU: 0x2916D, offset: 0x450E7D, size: 0x8, addend: 0x0, symName: '__ZN4core3ptr51drop_in_place$LT$$u5b$syn..attr..Attribute$u5d$$GT$17hb1d09bc92c4aaee4E.llvm.2599103664634677082', symObjAddr: 0x9120, symBinAddr: 0xC7090, symSize: 0xE0 }
  - { offsetInCU: 0x29384, offset: 0x451094, size: 0x8, addend: 0x0, symName: '__ZN4core3ptr51drop_in_place$LT$$u5b$syn..item..TraitItem$u5d$$GT$17h20cd83f0a307650dE.llvm.2599103664634677082', symObjAddr: 0x9200, symBinAddr: 0xC7170, symSize: 0x10A0 }
  - { offsetInCU: 0x2C482, offset: 0x454192, size: 0x8, addend: 0x0, symName: '__ZN4core3ptr53drop_in_place$LT$$u5b$syn..item..ForeignItem$u5d$$GT$17h3901ca839cf0ad80E.llvm.2599103664634677082', symObjAddr: 0xA2A0, symBinAddr: 0xC8210, symSize: 0x18A0 }
  - { offsetInCU: 0x31099, offset: 0x458DA9, size: 0x8, addend: 0x0, symName: '__ZN4core3ptr58drop_in_place$LT$alloc..vec..Vec$LT$syn..expr..Arm$GT$$GT$17hf30588e63e9aa2acE', symObjAddr: 0xBB40, symBinAddr: 0xC9AB0, symSize: 0xD0 }
  - { offsetInCU: 0x31326, offset: 0x459036, size: 0x8, addend: 0x0, symName: '__ZN4core3ptr59drop_in_place$LT$alloc..boxed..Box$LT$syn..pat..Pat$GT$$GT$17h8da5d9585b79befeE.llvm.2599103664634677082', symObjAddr: 0xBC10, symBinAddr: 0xC9B80, symSize: 0x50 }
  - { offsetInCU: 0x31481, offset: 0x459191, size: 0x8, addend: 0x0, symName: '__ZN4core3ptr59drop_in_place$LT$alloc..boxed..Box$LT$syn..ty..Type$GT$$GT$17hfdcfc83ffb884feaE.llvm.2599103664634677082', symObjAddr: 0xBC60, symBinAddr: 0xC9BD0, symSize: 0x50 }
  - { offsetInCU: 0x315DC, offset: 0x4592EC, size: 0x8, addend: 0x0, symName: '__ZN4core3ptr59drop_in_place$LT$alloc..vec..Vec$LT$syn..item..Item$GT$$GT$17h4cdd6ad49c20c9ffE', symObjAddr: 0xBCB0, symBinAddr: 0xC9C20, symSize: 0xD0 }
  - { offsetInCU: 0x31869, offset: 0x459579, size: 0x8, addend: 0x0, symName: '__ZN4core3ptr61drop_in_place$LT$alloc..boxed..Box$LT$syn..expr..Expr$GT$$GT$17hd59f20e4896eb10dE.llvm.2599103664634677082', symObjAddr: 0xBD80, symBinAddr: 0xC9CF0, symSize: 0x50 }
  - { offsetInCU: 0x319C4, offset: 0x4596D4, size: 0x8, addend: 0x0, symName: '__ZN4core3ptr61drop_in_place$LT$alloc..boxed..Box$LT$syn..path..Path$GT$$GT$17haf57820653cf481fE', symObjAddr: 0xBDD0, symBinAddr: 0xC9D40, symSize: 0x50 }
  - { offsetInCU: 0x31B3C, offset: 0x45984C, size: 0x8, addend: 0x0, symName: '__ZN4core3ptr61drop_in_place$LT$syn..path..ParenthesizedGenericArguments$GT$17h2cb12f9d921fc247E', symObjAddr: 0xBE20, symBinAddr: 0xC9D90, symSize: 0x170 }
  - { offsetInCU: 0x32103, offset: 0x459E13, size: 0x8, addend: 0x0, symName: '__ZN4core3ptr62drop_in_place$LT$alloc..boxed..Box$LT$syn..data..Field$GT$$GT$17h6236c1402f9457f7E', symObjAddr: 0xBF90, symBinAddr: 0xC9F00, symSize: 0x50 }
  - { offsetInCU: 0x3227D, offset: 0x459F8D, size: 0x8, addend: 0x0, symName: '__ZN4core3ptr62drop_in_place$LT$alloc..boxed..Box$LT$syn..item..FnArg$GT$$GT$17h2b26c04c1b354ebbE', symObjAddr: 0xBFE0, symBinAddr: 0xC9F50, symSize: 0x60 }
  - { offsetInCU: 0x323F5, offset: 0x45A105, size: 0x8, addend: 0x0, symName: '__ZN4core3ptr62drop_in_place$LT$alloc..boxed..Box$LT$syn..stmt..Block$GT$$GT$17h4a7cc3258b08bc2dE', symObjAddr: 0xC040, symBinAddr: 0xC9FB0, symSize: 0xE0 }
  - { offsetInCU: 0x32814, offset: 0x45A524, size: 0x8, addend: 0x0, symName: '__ZN4core3ptr62drop_in_place$LT$alloc..vec..Vec$LT$syn..buffer..Entry$GT$$GT$17h0470c661667b8d43E.llvm.2599103664634677082', symObjAddr: 0xC120, symBinAddr: 0xCA090, symSize: 0xC0 }
  - { offsetInCU: 0x32AB4, offset: 0x45A7C4, size: 0x8, addend: 0x0, symName: '__ZN4core3ptr63drop_in_place$LT$alloc..vec..Vec$LT$syn..item..ImplItem$GT$$GT$17hf6d2e0c4b364acacE', symObjAddr: 0xC1E0, symBinAddr: 0xCA150, symSize: 0x80 }
  - { offsetInCU: 0x32D32, offset: 0x45AA42, size: 0x8, addend: 0x0, symName: '__ZN4core3ptr64drop_in_place$LT$alloc..boxed..Box$LT$syn..data..Variant$GT$$GT$17hcf859657b4efc96cE', symObjAddr: 0xC260, symBinAddr: 0xCA1D0, symSize: 0x50 }
  - { offsetInCU: 0x32E8D, offset: 0x45AB9D, size: 0x8, addend: 0x0, symName: '__ZN4core3ptr64drop_in_place$LT$alloc..boxed..Box$LT$syn..item..UseTree$GT$$GT$17h8781734ad1e82212E', symObjAddr: 0xC2B0, symBinAddr: 0xCA220, symSize: 0x50 }
  - { offsetInCU: 0x33007, offset: 0x45AD17, size: 0x8, addend: 0x0, symName: '__ZN4core3ptr64drop_in_place$LT$alloc..boxed..Box$LT$syn..pat..FieldPat$GT$$GT$17h4cf97b08e30ccd11E', symObjAddr: 0xC300, symBinAddr: 0xCA270, symSize: 0x100 }
  - { offsetInCU: 0x336A3, offset: 0x45B3B3, size: 0x8, addend: 0x0, symName: '__ZN4core3ptr64drop_in_place$LT$alloc..boxed..Box$LT$syn..ty..BareFnArg$GT$$GT$17h5ed4e7eb5288ceaeE', symObjAddr: 0xC400, symBinAddr: 0xCA370, symSize: 0xD0 }
  - { offsetInCU: 0x33BAA, offset: 0x45B8BA, size: 0x8, addend: 0x0, symName: '__ZN4core3ptr64drop_in_place$LT$alloc..vec..Vec$LT$syn..attr..Attribute$GT$$GT$17h00ca1a13bf29cbb7E.llvm.2599103664634677082', symObjAddr: 0xC4D0, symBinAddr: 0xCA440, symSize: 0xF0 }
  - { offsetInCU: 0x33E44, offset: 0x45BB54, size: 0x8, addend: 0x0, symName: '__ZN4core3ptr64drop_in_place$LT$alloc..vec..Vec$LT$syn..item..TraitItem$GT$$GT$17h2add6c0b4fdd403cE', symObjAddr: 0xC5C0, symBinAddr: 0xCA530, symSize: 0x80 }
  - { offsetInCU: 0x340C2, offset: 0x45BDD2, size: 0x8, addend: 0x0, symName: '__ZN4core3ptr65drop_in_place$LT$$LP$syn..item..FnArg$C$syn..token..Comma$RP$$GT$17hacc00297bfa91b11E.llvm.2599103664634677082', symObjAddr: 0xC640, symBinAddr: 0xCA5B0, symSize: 0x20 }
  - { offsetInCU: 0x340FE, offset: 0x45BE0E, size: 0x8, addend: 0x0, symName: '__ZN4core3ptr65drop_in_place$LT$alloc..vec..Vec$LT$proc_macro..TokenTree$GT$$GT$17h19a9e5e58817e43cE.llvm.2599103664634677082', symObjAddr: 0xC660, symBinAddr: 0xCA5D0, symSize: 0x120 }
  - { offsetInCU: 0x3445D, offset: 0x45C16D, size: 0x8, addend: 0x0, symName: '__ZN4core3ptr65drop_in_place$LT$core..option..Option$LT$syn..expr..Label$GT$$GT$17hdfb87f4e56640098E', symObjAddr: 0xC850, symBinAddr: 0xCA6F0, symSize: 0x30 }
  - { offsetInCU: 0x34598, offset: 0x45C2A8, size: 0x8, addend: 0x0, symName: '__ZN4core3ptr65drop_in_place$LT$core..option..Option$LT$syn..stmt..Block$GT$$GT$17h1a4507886ab4824bE', symObjAddr: 0xC880, symBinAddr: 0xCA720, symSize: 0xE0 }
  - { offsetInCU: 0x347FD, offset: 0x45C50D, size: 0x8, addend: 0x0, symName: '__ZN4core3ptr66drop_in_place$LT$alloc..vec..Vec$LT$syn..item..ForeignItem$GT$$GT$17h457cbb9d53df1a2fE', symObjAddr: 0xC960, symBinAddr: 0xCA800, symSize: 0x80 }
  - { offsetInCU: 0x34A7B, offset: 0x45C78B, size: 0x8, addend: 0x0, symName: '__ZN4core3ptr67drop_in_place$LT$$LP$syn..pat..FieldPat$C$syn..token..Comma$RP$$GT$17habef17368f68c833E.llvm.2599103664634677082', symObjAddr: 0xC9E0, symBinAddr: 0xCA880, symSize: 0xF0 }
  - { offsetInCU: 0x34FA2, offset: 0x45CCB2, size: 0x8, addend: 0x0, symName: '__ZN4core3ptr67drop_in_place$LT$$LP$syn..ty..BareFnArg$C$syn..token..Comma$RP$$GT$17h981847b124c4961cE.llvm.2599103664634677082', symObjAddr: 0xCAD0, symBinAddr: 0xCA970, symSize: 0xC0 }
  - { offsetInCU: 0x353A2, offset: 0x45D0B2, size: 0x8, addend: 0x0, symName: '__ZN4core3ptr67drop_in_place$LT$alloc..boxed..Box$LT$syn..attr..NestedMeta$GT$$GT$17h324edf8b6da6e1ddE.llvm.2599103664634677082', symObjAddr: 0xCB90, symBinAddr: 0xCAA30, symSize: 0x90 }
  - { offsetInCU: 0x3554E, offset: 0x45D25E, size: 0x8, addend: 0x0, symName: '__ZN4core3ptr67drop_in_place$LT$alloc..boxed..Box$LT$syn..expr..FieldValue$GT$$GT$17ha1d27993e02226e2E', symObjAddr: 0xCC20, symBinAddr: 0xCAAC0, symSize: 0xF0 }
  - { offsetInCU: 0x35A44, offset: 0x45D754, size: 0x8, addend: 0x0, symName: '__ZN4core3ptr68drop_in_place$LT$alloc..boxed..Box$LT$syn..path..PathSegment$GT$$GT$17h0310b89ad60fe4d7E.llvm.2599103664634677082', symObjAddr: 0xCD10, symBinAddr: 0xCABB0, symSize: 0x170 }
  - { offsetInCU: 0x360F2, offset: 0x45DE02, size: 0x8, addend: 0x0, symName: '__ZN4core3ptr70drop_in_place$LT$$LP$syn..attr..NestedMeta$C$syn..token..Comma$RP$$GT$17hd8511ca3b93f0c74E.llvm.2599103664634677082', symObjAddr: 0xCE80, symBinAddr: 0xCAD20, symSize: 0x70 }
  - { offsetInCU: 0x36153, offset: 0x45DE63, size: 0x8, addend: 0x0, symName: '__ZN4core3ptr70drop_in_place$LT$$LP$syn..expr..FieldValue$C$syn..token..Comma$RP$$GT$17h74703243fe19a54aE.llvm.2599103664634677082', symObjAddr: 0xCEF0, symBinAddr: 0xCAD90, symSize: 0xD0 }
  - { offsetInCU: 0x36523, offset: 0x45E233, size: 0x8, addend: 0x0, symName: '__ZN4core3ptr72drop_in_place$LT$$LP$syn..path..PathSegment$C$syn..token..Colon2$RP$$GT$17h1644609e6386c7a8E.llvm.2599103664634677082', symObjAddr: 0xCFC0, symBinAddr: 0xCAE60, symSize: 0xC0 }
  - { offsetInCU: 0x367E9, offset: 0x45E4F9, size: 0x8, addend: 0x0, symName: '__ZN4core3ptr72drop_in_place$LT$alloc..boxed..Box$LT$syn..generics..LifetimeDef$GT$$GT$17hba6e60d5d20da043E.llvm.2599103664634677082', symObjAddr: 0xD080, symBinAddr: 0xCAF20, symSize: 0xC0 }
  - { offsetInCU: 0x36CE5, offset: 0x45E9F5, size: 0x8, addend: 0x0, symName: '__ZN4core3ptr72drop_in_place$LT$alloc..boxed..Box$LT$syn..path..GenericArgument$GT$$GT$17h2b3c5c0d616472a1E.llvm.2599103664634677082', symObjAddr: 0xD140, symBinAddr: 0xCAFE0, symSize: 0x190 }
  - { offsetInCU: 0x37416, offset: 0x45F126, size: 0x8, addend: 0x0, symName: '__ZN4core3ptr73drop_in_place$LT$alloc..boxed..Box$LT$syn..generics..GenericParam$GT$$GT$17h4a84b6d13eef144eE', symObjAddr: 0xD2D0, symBinAddr: 0xCB170, symSize: 0x80 }
  - { offsetInCU: 0x3758E, offset: 0x45F29E, size: 0x8, addend: 0x0, symName: '__ZN4core3ptr75drop_in_place$LT$$LP$syn..generics..LifetimeDef$C$syn..token..Comma$RP$$GT$17h50d713f99b596e61E.llvm.2599103664634677082', symObjAddr: 0xD350, symBinAddr: 0xCB1F0, symSize: 0xB0 }
  - { offsetInCU: 0x37945, offset: 0x45F655, size: 0x8, addend: 0x0, symName: '__ZN4core3ptr75drop_in_place$LT$$LP$syn..path..GenericArgument$C$syn..token..Comma$RP$$GT$17hdba1c4519bdd0f27E.llvm.2599103664634677082', symObjAddr: 0xD400, symBinAddr: 0xCB2A0, symSize: 0x1B0 }
  - { offsetInCU: 0x37F44, offset: 0x45FC54, size: 0x8, addend: 0x0, symName: '__ZN4core3ptr75drop_in_place$LT$alloc..boxed..Box$LT$syn..generics..TypeParamBound$GT$$GT$17hcf1c09bccd64c785E', symObjAddr: 0xD5B0, symBinAddr: 0xCB450, symSize: 0x90 }
  - { offsetInCU: 0x38223, offset: 0x45FF33, size: 0x8, addend: 0x0, symName: '__ZN4core3ptr75drop_in_place$LT$alloc..boxed..Box$LT$syn..generics..WherePredicate$GT$$GT$17hba1cfdadb2219195E', symObjAddr: 0xD640, symBinAddr: 0xCB4E0, symSize: 0xC0 }
  - { offsetInCU: 0x384C2, offset: 0x4601D2, size: 0x8, addend: 0x0, symName: '__ZN4core3ptr76drop_in_place$LT$$LP$syn..generics..GenericParam$C$syn..token..Comma$RP$$GT$17hdc4900e12be492ddE.llvm.2599103664634677082', symObjAddr: 0xD700, symBinAddr: 0xCB5A0, symSize: 0x40 }
  - { offsetInCU: 0x384FE, offset: 0x46020E, size: 0x8, addend: 0x0, symName: '__ZN4core3ptr76drop_in_place$LT$$LP$syn..generics..TypeParamBound$C$syn..token..Add$RP$$GT$17h45de9fb7b31fbf37E.llvm.2599103664634677082', symObjAddr: 0xD740, symBinAddr: 0xCB5E0, symSize: 0x80 }
  - { offsetInCU: 0x3869B, offset: 0x4603AB, size: 0x8, addend: 0x0, symName: '__ZN4core3ptr78drop_in_place$LT$$LP$syn..generics..WherePredicate$C$syn..token..Comma$RP$$GT$17h5e8fabf78e1e6053E.llvm.2599103664634677082', symObjAddr: 0xD7C0, symBinAddr: 0xCB660, symSize: 0xA0 }
  - { offsetInCU: 0x3880E, offset: 0x46051E, size: 0x8, addend: 0x0, symName: '__ZN4core3ptr78drop_in_place$LT$alloc..boxed..Box$LT$syn..expr..GenericMethodArgument$GT$$GT$17hc5561f5e7586c250E', symObjAddr: 0xD860, symBinAddr: 0xCB700, symSize: 0x60 }
  - { offsetInCU: 0x38986, offset: 0x460696, size: 0x8, addend: 0x0, symName: '__ZN4core3ptr81drop_in_place$LT$$LP$syn..expr..GenericMethodArgument$C$syn..token..Comma$RP$$GT$17h22342e12b11cf758E.llvm.2599103664634677082', symObjAddr: 0xD940, symBinAddr: 0xCB760, symSize: 0x20 }
  - { offsetInCU: 0x389C2, offset: 0x4606D2, size: 0x8, addend: 0x0, symName: '__ZN4core3ptr86drop_in_place$LT$$LP$syn..token..If$C$alloc..boxed..Box$LT$syn..expr..Expr$GT$$RP$$GT$17he0a5ab9c880bd389E', symObjAddr: 0xD960, symBinAddr: 0xCB780, symSize: 0x50 }
  - { offsetInCU: 0x38B3C, offset: 0x46084C, size: 0x8, addend: 0x0, symName: '__ZN4core3ptr86drop_in_place$LT$$u5b$$LP$syn..generics..TypeParamBound$C$syn..token..Add$RP$$u5d$$GT$17hc911706f6648e2a8E', symObjAddr: 0xD9B0, symBinAddr: 0xCB7D0, symSize: 0xD0 }
  - { offsetInCU: 0x38D6C, offset: 0x460A7C, size: 0x8, addend: 0x0, symName: '__ZN4core3ptr86drop_in_place$LT$syn..punctuated..Punctuated$LT$syn..pat..Pat$C$syn..token..Or$GT$$GT$17h13896407bc2c03e4E', symObjAddr: 0xDA80, symBinAddr: 0xCB8A0, symSize: 0x120 }
  - { offsetInCU: 0x391C9, offset: 0x460ED9, size: 0x8, addend: 0x0, symName: '__ZN4core3ptr87drop_in_place$LT$core..option..Option$LT$alloc..boxed..Box$LT$syn..pat..Pat$GT$$GT$$GT$17h5bd93a2021c10f20E', symObjAddr: 0xDBA0, symBinAddr: 0xCB9C0, symSize: 0x50 }
  - { offsetInCU: 0x3933B, offset: 0x46104B, size: 0x8, addend: 0x0, symName: '__ZN4core3ptr87drop_in_place$LT$core..option..Option$LT$alloc..boxed..Box$LT$syn..ty..Type$GT$$GT$$GT$17h6936d17ab80112d1E', symObjAddr: 0xDBF0, symBinAddr: 0xCBA10, symSize: 0x50 }
  - { offsetInCU: 0x394AD, offset: 0x4611BD, size: 0x8, addend: 0x0, symName: '__ZN4core3ptr89drop_in_place$LT$core..option..Option$LT$alloc..boxed..Box$LT$syn..expr..Expr$GT$$GT$$GT$17h9285f9bb32cfe7feE', symObjAddr: 0xDC40, symBinAddr: 0xCBA60, symSize: 0x50 }
  - { offsetInCU: 0x3961F, offset: 0x46132F, size: 0x8, addend: 0x0, symName: '__ZN4core3ptr89drop_in_place$LT$syn..punctuated..Punctuated$LT$syn..ty..Type$C$syn..token..Comma$GT$$GT$17h97ea2b625b494840E.llvm.2599103664634677082', symObjAddr: 0xDC90, symBinAddr: 0xCBAB0, symSize: 0x120 }
  - { offsetInCU: 0x39A69, offset: 0x461779, size: 0x8, addend: 0x0, symName: '__ZN4core3ptr90drop_in_place$LT$core..option..Option$LT$alloc..boxed..Box$LT$syn..data..Field$GT$$GT$$GT$17hc50e2375b7e440f8E', symObjAddr: 0xDDB0, symBinAddr: 0xCBBD0, symSize: 0x50 }
  - { offsetInCU: 0x39BDB, offset: 0x4618EB, size: 0x8, addend: 0x0, symName: '__ZN4core3ptr90drop_in_place$LT$core..option..Option$LT$alloc..boxed..Box$LT$syn..item..FnArg$GT$$GT$$GT$17hbba5815768eb1c40E', symObjAddr: 0xDE00, symBinAddr: 0xCBC20, symSize: 0x50 }
  - { offsetInCU: 0x39DC9, offset: 0x461AD9, size: 0x8, addend: 0x0, symName: '__ZN4core3ptr91drop_in_place$LT$syn..punctuated..Punctuated$LT$syn..expr..Expr$C$syn..token..Comma$GT$$GT$17h89eb145173101a03E', symObjAddr: 0xDE50, symBinAddr: 0xCBC70, symSize: 0x120 }
  - { offsetInCU: 0x3A226, offset: 0x461F36, size: 0x8, addend: 0x0, symName: '__ZN4core3ptr92drop_in_place$LT$core..option..Option$LT$$LP$syn..token..As$C$proc_macro2..Ident$RP$$GT$$GT$17h885c969d0e42c9dcE', symObjAddr: 0xDF70, symBinAddr: 0xCBD90, symSize: 0x30 }
  - { offsetInCU: 0x3A342, offset: 0x462052, size: 0x8, addend: 0x0, symName: '__ZN4core3ptr92drop_in_place$LT$syn..punctuated..Punctuated$LT$syn..data..Field$C$syn..token..Comma$GT$$GT$17h06dd862f8e9aabb5E', symObjAddr: 0xDFA0, symBinAddr: 0xCBDC0, symSize: 0x120 }
  - { offsetInCU: 0x3A78C, offset: 0x46249C, size: 0x8, addend: 0x0, symName: '__ZN4core3ptr92drop_in_place$LT$syn..punctuated..Punctuated$LT$syn..item..FnArg$C$syn..token..Comma$GT$$GT$17h75f0f2c68c193b1eE', symObjAddr: 0xE0C0, symBinAddr: 0xCBEE0, symSize: 0x150 }
  - { offsetInCU: 0x3ABE7, offset: 0x4628F7, size: 0x8, addend: 0x0, symName: '__ZN4core3ptr93drop_in_place$LT$alloc..vec..Vec$LT$$LP$syn..attr..NestedMeta$C$syn..token..Comma$RP$$GT$$GT$17he114de8f4a52aab1E.llvm.2599103664634677082', symObjAddr: 0xE210, symBinAddr: 0xCC030, symSize: 0xC0 }
  - { offsetInCU: 0x3AF62, offset: 0x462C72, size: 0x8, addend: 0x0, symName: '__ZN4core3ptr94drop_in_place$LT$syn..punctuated..Punctuated$LT$syn..data..Variant$C$syn..token..Comma$GT$$GT$17h444850e5fc0890a9E', symObjAddr: 0xE2D0, symBinAddr: 0xCC0F0, symSize: 0x120 }
  - { offsetInCU: 0x3B43B, offset: 0x46314B, size: 0x8, addend: 0x0, symName: '__ZN4core3ptr94drop_in_place$LT$syn..punctuated..Punctuated$LT$syn..pat..FieldPat$C$syn..token..Comma$GT$$GT$17hdbbfc15c48c312e3E', symObjAddr: 0xE3F0, symBinAddr: 0xCC210, symSize: 0xF0 }
  - { offsetInCU: 0x3B794, offset: 0x4634A4, size: 0x8, addend: 0x0, symName: '__ZN4core3ptr94drop_in_place$LT$syn..punctuated..Punctuated$LT$syn..ty..BareFnArg$C$syn..token..Comma$GT$$GT$17h4e6d5a703b32a850E', symObjAddr: 0xE4E0, symBinAddr: 0xCC300, symSize: 0xF0 }
  - { offsetInCU: 0x3BA71, offset: 0x463781, size: 0x8, addend: 0x0, symName: '__ZN4core3ptr95drop_in_place$LT$alloc..vec..Vec$LT$$LP$syn..path..PathSegment$C$syn..token..Colon2$RP$$GT$$GT$17h8a20be56ff255edbE.llvm.2599103664634677082', symObjAddr: 0xE5D0, symBinAddr: 0xCC3F0, symSize: 0xF0 }
  - { offsetInCU: 0x3BE12, offset: 0x463B22, size: 0x8, addend: 0x0, symName: '__ZN4core3ptr95drop_in_place$LT$core..option..Option$LT$$LP$proc_macro2..Ident$C$syn..token..Colon$RP$$GT$$GT$17h554f9e23e9e60ecbE.llvm.2599103664634677082', symObjAddr: 0xE6C0, symBinAddr: 0xCC4E0, symSize: 0x30 }
  - { offsetInCU: 0x3BF2E, offset: 0x463C3E, size: 0x8, addend: 0x0, symName: '__ZN4core3ptr95drop_in_place$LT$core..option..Option$LT$alloc..boxed..Box$LT$syn..attr..NestedMeta$GT$$GT$$GT$17h0e0778ec67abe8daE.llvm.2599103664634677082', symObjAddr: 0xE6F0, symBinAddr: 0xCC510, symSize: 0x50 }
  - { offsetInCU: 0x3C0A0, offset: 0x463DB0, size: 0x8, addend: 0x0, symName: '__ZN4core3ptr96drop_in_place$LT$core..option..Option$LT$alloc..boxed..Box$LT$syn..path..PathSegment$GT$$GT$$GT$17he2148fc749fa4ba5E.llvm.2599103664634677082', symObjAddr: 0xE740, symBinAddr: 0xCC560, symSize: 0x50 }
  - { offsetInCU: 0x3C212, offset: 0x463F22, size: 0x8, addend: 0x0, symName: '__ZN4core3ptr97drop_in_place$LT$syn..punctuated..Punctuated$LT$syn..attr..NestedMeta$C$syn..token..Comma$GT$$GT$17h9b1dcac83a9b8878E.llvm.2599103664634677082', symObjAddr: 0xE790, symBinAddr: 0xCC5B0, symSize: 0x150 }
  - { offsetInCU: 0x3C5A1, offset: 0x4642B1, size: 0x8, addend: 0x0, symName: '__ZN4core3ptr97drop_in_place$LT$syn..punctuated..Punctuated$LT$syn..expr..FieldValue$C$syn..token..Comma$GT$$GT$17h32c10a095b2e74c7E', symObjAddr: 0xE8E0, symBinAddr: 0xCC700, symSize: 0xF0 }
  - { offsetInCU: 0x3C938, offset: 0x464648, size: 0x8, addend: 0x0, symName: '__ZN4core3ptr97drop_in_place$LT$syn..punctuated..Punctuated$LT$syn..lifetime..Lifetime$C$syn..token..Add$GT$$GT$17h75f9c8a38e93dfefE.llvm.2599103664634677082', symObjAddr: 0xE9D0, symBinAddr: 0xCC7F0, symSize: 0xC0 }
  - { offsetInCU: 0x3CDAE, offset: 0x464ABE, size: 0x8, addend: 0x0, symName: '__ZN4core3ptr99drop_in_place$LT$syn..punctuated..Punctuated$LT$syn..path..PathSegment$C$syn..token..Colon2$GT$$GT$17hdafb3e0018003811E.llvm.2599103664634677082', symObjAddr: 0xEA90, symBinAddr: 0xCC8B0, symSize: 0xF0 }
  - { offsetInCU: 0x4650F, offset: 0x46E21F, size: 0x8, addend: 0x0, symName: '__ZN136_$LT$alloc..vec..Vec$LT$T$C$A$GT$$u20$as$u20$alloc..vec..spec_extend..SpecExtend$LT$T$C$alloc..vec..into_iter..IntoIter$LT$T$GT$$GT$$GT$11spec_extend17h744176932ac7ab2dE', symObjAddr: 0x0, symBinAddr: 0xBE040, symSize: 0xB0 }
  - { offsetInCU: 0x46814, offset: 0x46E524, size: 0x8, addend: 0x0, symName: '__ZN97_$LT$alloc..vec..Vec$LT$T$C$A$GT$$u20$as$u20$alloc..vec..spec_extend..SpecExtend$LT$T$C$I$GT$$GT$11spec_extend17ha252f579d02dccfbE', symObjAddr: 0x13B00, symBinAddr: 0xD03B0, symSize: 0x110 }
  - { offsetInCU: 0x46C70, offset: 0x46E980, size: 0x8, addend: 0x0, symName: '__ZN97_$LT$alloc..vec..Vec$LT$T$C$A$GT$$u20$as$u20$alloc..vec..spec_extend..SpecExtend$LT$T$C$I$GT$$GT$11spec_extend17hee3b113322bdb286E', symObjAddr: 0x13D60, symBinAddr: 0xD04C0, symSize: 0x670 }
  - { offsetInCU: 0x48852, offset: 0x470562, size: 0x8, addend: 0x0, symName: '__ZN70_$LT$alloc..vec..Vec$LT$T$C$A$GT$$u20$as$u20$core..ops..drop..Drop$GT$4drop17h06d870278c53fce8E', symObjAddr: 0x12840, symBinAddr: 0xCFF10, symSize: 0xD0 }
  - { offsetInCU: 0x48A1F, offset: 0x47072F, size: 0x8, addend: 0x0, symName: '__ZN70_$LT$alloc..vec..Vec$LT$T$C$A$GT$$u20$as$u20$core..ops..drop..Drop$GT$4drop17h090466e0a50930d9E', symObjAddr: 0x12910, symBinAddr: 0xCFFE0, symSize: 0x80 }
  - { offsetInCU: 0x48AA9, offset: 0x4707B9, size: 0x8, addend: 0x0, symName: '__ZN70_$LT$alloc..vec..Vec$LT$T$C$A$GT$$u20$as$u20$core..ops..drop..Drop$GT$4drop17h3a276f7c3a69b09fE', symObjAddr: 0x12BB0, symBinAddr: 0xD0060, symSize: 0x80 }
  - { offsetInCU: 0x48B67, offset: 0x470877, size: 0x8, addend: 0x0, symName: '__ZN70_$LT$alloc..vec..Vec$LT$T$C$A$GT$$u20$as$u20$core..ops..drop..Drop$GT$4drop17h4923973a3661059dE', symObjAddr: 0x12D20, symBinAddr: 0xD00E0, symSize: 0x90 }
  - { offsetInCU: 0x48C14, offset: 0x470924, size: 0x8, addend: 0x0, symName: '__ZN70_$LT$alloc..vec..Vec$LT$T$C$A$GT$$u20$as$u20$core..ops..drop..Drop$GT$4drop17h738f262ec02dcae7E', symObjAddr: 0x12FB0, symBinAddr: 0xD0170, symSize: 0xB0 }
  - { offsetInCU: 0x48C76, offset: 0x470986, size: 0x8, addend: 0x0, symName: '__ZN70_$LT$alloc..vec..Vec$LT$T$C$A$GT$$u20$as$u20$core..ops..drop..Drop$GT$4drop17ha15009fc761187d2E', symObjAddr: 0x13210, symBinAddr: 0xD0220, symSize: 0x80 }
  - { offsetInCU: 0x48D34, offset: 0x470A44, size: 0x8, addend: 0x0, symName: '__ZN70_$LT$alloc..vec..Vec$LT$T$C$A$GT$$u20$as$u20$core..ops..drop..Drop$GT$4drop17hd45ee127d32509c5E', symObjAddr: 0x134C0, symBinAddr: 0xD02A0, symSize: 0x80 }
  - { offsetInCU: 0x48DBE, offset: 0x470ACE, size: 0x8, addend: 0x0, symName: '__ZN70_$LT$alloc..vec..Vec$LT$T$C$A$GT$$u20$as$u20$core..ops..drop..Drop$GT$4drop17hf5eaaa46406412f8E', symObjAddr: 0x136D0, symBinAddr: 0xD0320, symSize: 0x90 }
  - { offsetInCU: 0x49675, offset: 0x471385, size: 0x8, addend: 0x0, symName: '__ZN65_$LT$alloc..vec..Vec$LT$T$C$A$GT$$u20$as$u20$core..fmt..Debug$GT$3fmt17h0eb7188b67d55045E', symObjAddr: 0xEEA0, symBinAddr: 0xCCA30, symSize: 0x80 }
  - { offsetInCU: 0x49878, offset: 0x471588, size: 0x8, addend: 0x0, symName: '__ZN65_$LT$alloc..vec..Vec$LT$T$C$A$GT$$u20$as$u20$core..fmt..Debug$GT$3fmt17h575cd4df82388c58E', symObjAddr: 0xEF20, symBinAddr: 0xCCAB0, symSize: 0x80 }
  - { offsetInCU: 0x49A61, offset: 0x471771, size: 0x8, addend: 0x0, symName: '__ZN67_$LT$alloc..vec..Vec$LT$T$C$A$GT$$u20$as$u20$core..clone..Clone$GT$5clone17h035437e68013bc05E', symObjAddr: 0xEFA0, symBinAddr: 0xCCB30, symSize: 0x190 }
  - { offsetInCU: 0x4A03B, offset: 0x471D4B, size: 0x8, addend: 0x0, symName: '__ZN67_$LT$alloc..vec..Vec$LT$T$C$A$GT$$u20$as$u20$core..clone..Clone$GT$5clone17h092cf5c46985625dE', symObjAddr: 0xF130, symBinAddr: 0xCCCC0, symSize: 0x160 }
  - { offsetInCU: 0x4A568, offset: 0x472278, size: 0x8, addend: 0x0, symName: '__ZN67_$LT$alloc..vec..Vec$LT$T$C$A$GT$$u20$as$u20$core..clone..Clone$GT$5clone17h101fd783e587ba95E', symObjAddr: 0xF290, symBinAddr: 0xCCE20, symSize: 0x1A0 }
  - { offsetInCU: 0x4AA9A, offset: 0x4727AA, size: 0x8, addend: 0x0, symName: '__ZN67_$LT$alloc..vec..Vec$LT$T$C$A$GT$$u20$as$u20$core..clone..Clone$GT$5clone17h11b49851e5e404daE', symObjAddr: 0xF430, symBinAddr: 0xCCFC0, symSize: 0x1A0 }
  - { offsetInCU: 0x4B075, offset: 0x472D85, size: 0x8, addend: 0x0, symName: '__ZN67_$LT$alloc..vec..Vec$LT$T$C$A$GT$$u20$as$u20$core..clone..Clone$GT$5clone17h1600d3c7dacbc70eE', symObjAddr: 0xF5D0, symBinAddr: 0xCD160, symSize: 0x3A0 }
  - { offsetInCU: 0x4B66C, offset: 0x47337C, size: 0x8, addend: 0x0, symName: '__ZN67_$LT$alloc..vec..Vec$LT$T$C$A$GT$$u20$as$u20$core..clone..Clone$GT$5clone17h1a3e976588ece395E', symObjAddr: 0xF970, symBinAddr: 0xCD500, symSize: 0x1A0 }
  - { offsetInCU: 0x4BC47, offset: 0x473957, size: 0x8, addend: 0x0, symName: '__ZN67_$LT$alloc..vec..Vec$LT$T$C$A$GT$$u20$as$u20$core..clone..Clone$GT$5clone17h1d3d6292a68a363fE', symObjAddr: 0xFB10, symBinAddr: 0xCD6A0, symSize: 0x390 }
  - { offsetInCU: 0x4C81E, offset: 0x47452E, size: 0x8, addend: 0x0, symName: '__ZN67_$LT$alloc..vec..Vec$LT$T$C$A$GT$$u20$as$u20$core..clone..Clone$GT$5clone17h1e759367406d839bE', symObjAddr: 0xFEA0, symBinAddr: 0xCDA30, symSize: 0x160 }
  - { offsetInCU: 0x4CD4B, offset: 0x474A5B, size: 0x8, addend: 0x0, symName: '__ZN67_$LT$alloc..vec..Vec$LT$T$C$A$GT$$u20$as$u20$core..clone..Clone$GT$5clone17h24410e03a578c3bbE', symObjAddr: 0x10000, symBinAddr: 0xCDB90, symSize: 0x2A0 }
  - { offsetInCU: 0x4D37F, offset: 0x47508F, size: 0x8, addend: 0x0, symName: '__ZN67_$LT$alloc..vec..Vec$LT$T$C$A$GT$$u20$as$u20$core..clone..Clone$GT$5clone17h2522820114b4d62aE', symObjAddr: 0x102A0, symBinAddr: 0xCDE30, symSize: 0x1B0 }
  - { offsetInCU: 0x4D95A, offset: 0x47566A, size: 0x8, addend: 0x0, symName: '__ZN67_$LT$alloc..vec..Vec$LT$T$C$A$GT$$u20$as$u20$core..clone..Clone$GT$5clone17h2edf3ffdac8fa2aeE', symObjAddr: 0x10450, symBinAddr: 0xCDFE0, symSize: 0x1A0 }
  - { offsetInCU: 0x4DE8C, offset: 0x475B9C, size: 0x8, addend: 0x0, symName: '__ZN67_$LT$alloc..vec..Vec$LT$T$C$A$GT$$u20$as$u20$core..clone..Clone$GT$5clone17h327b972b11ad4c95E', symObjAddr: 0x105F0, symBinAddr: 0xCE180, symSize: 0x1B0 }
  - { offsetInCU: 0x4E467, offset: 0x476177, size: 0x8, addend: 0x0, symName: '__ZN67_$LT$alloc..vec..Vec$LT$T$C$A$GT$$u20$as$u20$core..clone..Clone$GT$5clone17h33fafbcc20e16079E', symObjAddr: 0x107A0, symBinAddr: 0xCE330, symSize: 0x1B0 }
  - { offsetInCU: 0x4EA3E, offset: 0x47674E, size: 0x8, addend: 0x0, symName: '__ZN67_$LT$alloc..vec..Vec$LT$T$C$A$GT$$u20$as$u20$core..clone..Clone$GT$5clone17h3baf63e5fe73bc9eE', symObjAddr: 0x10950, symBinAddr: 0xCE4E0, symSize: 0x190 }
  - { offsetInCU: 0x4EFE4, offset: 0x476CF4, size: 0x8, addend: 0x0, symName: '__ZN67_$LT$alloc..vec..Vec$LT$T$C$A$GT$$u20$as$u20$core..clone..Clone$GT$5clone17h3d3022bd391f2310E', symObjAddr: 0x10AE0, symBinAddr: 0xCE670, symSize: 0x240 }
  - { offsetInCU: 0x4F673, offset: 0x477383, size: 0x8, addend: 0x0, symName: '__ZN67_$LT$alloc..vec..Vec$LT$T$C$A$GT$$u20$as$u20$core..clone..Clone$GT$5clone17h3f1ee708ed83b91dE', symObjAddr: 0x10D20, symBinAddr: 0xCE8B0, symSize: 0x190 }
  - { offsetInCU: 0x4FC4D, offset: 0x47795D, size: 0x8, addend: 0x0, symName: '__ZN67_$LT$alloc..vec..Vec$LT$T$C$A$GT$$u20$as$u20$core..clone..Clone$GT$5clone17h5e1ecd29887228c5E', symObjAddr: 0x10EB0, symBinAddr: 0xCEA40, symSize: 0x1A0 }
  - { offsetInCU: 0x501F4, offset: 0x477F04, size: 0x8, addend: 0x0, symName: '__ZN67_$LT$alloc..vec..Vec$LT$T$C$A$GT$$u20$as$u20$core..clone..Clone$GT$5clone17h618c445f23f9df9bE', symObjAddr: 0x11050, symBinAddr: 0xCEBE0, symSize: 0x140 }
  - { offsetInCU: 0x50608, offset: 0x478318, size: 0x8, addend: 0x0, symName: '__ZN67_$LT$alloc..vec..Vec$LT$T$C$A$GT$$u20$as$u20$core..clone..Clone$GT$5clone17h7809121732fb3310E', symObjAddr: 0x11190, symBinAddr: 0xCED20, symSize: 0x290 }
  - { offsetInCU: 0x50C20, offset: 0x478930, size: 0x8, addend: 0x0, symName: '__ZN67_$LT$alloc..vec..Vec$LT$T$C$A$GT$$u20$as$u20$core..clone..Clone$GT$5clone17h81f972b972fcbd4cE', symObjAddr: 0x11420, symBinAddr: 0xCEFB0, symSize: 0x190 }
  - { offsetInCU: 0x511FA, offset: 0x478F0A, size: 0x8, addend: 0x0, symName: '__ZN67_$LT$alloc..vec..Vec$LT$T$C$A$GT$$u20$as$u20$core..clone..Clone$GT$5clone17h840f04911a0b532bE', symObjAddr: 0x115B0, symBinAddr: 0xCF140, symSize: 0x160 }
  - { offsetInCU: 0x51727, offset: 0x479437, size: 0x8, addend: 0x0, symName: '__ZN67_$LT$alloc..vec..Vec$LT$T$C$A$GT$$u20$as$u20$core..clone..Clone$GT$5clone17h86de94eb193960afE', symObjAddr: 0x11710, symBinAddr: 0xCF2A0, symSize: 0x1A0 }
  - { offsetInCU: 0x51D02, offset: 0x479A12, size: 0x8, addend: 0x0, symName: '__ZN67_$LT$alloc..vec..Vec$LT$T$C$A$GT$$u20$as$u20$core..clone..Clone$GT$5clone17h930d421db75391a6E', symObjAddr: 0x118B0, symBinAddr: 0xCF440, symSize: 0x1A0 }
  - { offsetInCU: 0x522DD, offset: 0x479FED, size: 0x8, addend: 0x0, symName: '__ZN67_$LT$alloc..vec..Vec$LT$T$C$A$GT$$u20$as$u20$core..clone..Clone$GT$5clone17h99ffdf9fea23431dE', symObjAddr: 0x11A50, symBinAddr: 0xCF5E0, symSize: 0x2B0 }
  - { offsetInCU: 0x5299F, offset: 0x47A6AF, size: 0x8, addend: 0x0, symName: '__ZN67_$LT$alloc..vec..Vec$LT$T$C$A$GT$$u20$as$u20$core..clone..Clone$GT$5clone17ha5ce2b1e9a4feaf7E', symObjAddr: 0x11D00, symBinAddr: 0xCF890, symSize: 0x1A0 }
  - { offsetInCU: 0x53036, offset: 0x47AD46, size: 0x8, addend: 0x0, symName: '__ZN67_$LT$alloc..vec..Vec$LT$T$C$A$GT$$u20$as$u20$core..clone..Clone$GT$5clone17hb81e9697ab5d138bE', symObjAddr: 0x12010, symBinAddr: 0xCFA30, symSize: 0x1A0 }
  - { offsetInCU: 0x53611, offset: 0x47B321, size: 0x8, addend: 0x0, symName: '__ZN67_$LT$alloc..vec..Vec$LT$T$C$A$GT$$u20$as$u20$core..clone..Clone$GT$5clone17hd6c08c4828687e22E', symObjAddr: 0x121B0, symBinAddr: 0xCFBD0, symSize: 0x1A0 }
  - { offsetInCU: 0x53BEC, offset: 0x47B8FC, size: 0x8, addend: 0x0, symName: '__ZN67_$LT$alloc..vec..Vec$LT$T$C$A$GT$$u20$as$u20$core..clone..Clone$GT$5clone17heefd1247b4411b2aE', symObjAddr: 0x12350, symBinAddr: 0xCFD70, symSize: 0x1A0 }
  - { offsetInCU: 0x60629, offset: 0x488339, size: 0x8, addend: 0x0, symName: '__ZN5alloc3vec16Vec$LT$T$C$A$GT$16into_boxed_slice17hbfe0cd4d74aa4787E', symObjAddr: 0xEC30, symBinAddr: 0xCC9A0, symSize: 0x90 }
  - { offsetInCU: 0x1E, offset: 0x492566, size: 0x8, addend: 0x0, symName: __ZN5alloc7raw_vec11finish_grow17hc84e259d9c3b21d2E.llvm.1877532185194718104, symObjAddr: 0x0, symBinAddr: 0xD0B30, symSize: 0xA0 }
  - { offsetInCU: 0x67E8, offset: 0x498D30, size: 0x8, addend: 0x0, symName: __ZN5alloc7raw_vec11finish_grow17hc84e259d9c3b21d2E.llvm.1877532185194718104, symObjAddr: 0x0, symBinAddr: 0xD0B30, symSize: 0xA0 }
  - { offsetInCU: 0x88CC, offset: 0x49AE14, size: 0x8, addend: 0x0, symName: '__ZN5alloc7raw_vec19RawVec$LT$T$C$A$GT$7reserve21do_reserve_and_handle17h3032152fdd812248E', symObjAddr: 0x2130, symBinAddr: 0x2288E0, symSize: 0x0 }
  - { offsetInCU: 0x8C1E, offset: 0x49B166, size: 0x8, addend: 0x0, symName: '__ZN5alloc7raw_vec19RawVec$LT$T$C$A$GT$7reserve21do_reserve_and_handle17h4d006586915b0038E', symObjAddr: 0x22C0, symBinAddr: 0x2289B0, symSize: 0xC0 }
  - { offsetInCU: 0x8F70, offset: 0x49B4B8, size: 0x8, addend: 0x0, symName: '__ZN5alloc7raw_vec19RawVec$LT$T$C$A$GT$7reserve21do_reserve_and_handle17ha45f3b490820041aE', symObjAddr: 0x2380, symBinAddr: 0x228A70, symSize: 0xB0 }
  - { offsetInCU: 0x92A8, offset: 0x49B7F0, size: 0x8, addend: 0x0, symName: '__ZN5alloc7raw_vec19RawVec$LT$T$C$A$GT$7reserve21do_reserve_and_handle17he5384f0eedecab1cE', symObjAddr: 0x2430, symBinAddr: 0x228B20, symSize: 0xC0 }
  - { offsetInCU: 0x9601, offset: 0x49BB49, size: 0x8, addend: 0x0, symName: '__ZN77_$LT$alloc..raw_vec..RawVec$LT$T$C$A$GT$$u20$as$u20$core..ops..drop..Drop$GT$4drop17h037e720d6550cba5E', symObjAddr: 0x25C0, symBinAddr: 0xD1E60, symSize: 0x30 }
  - { offsetInCU: 0x96FE, offset: 0x49BC46, size: 0x8, addend: 0x0, symName: '__ZN77_$LT$alloc..raw_vec..RawVec$LT$T$C$A$GT$$u20$as$u20$core..ops..drop..Drop$GT$4drop17h037edb2f6af7a9ceE', symObjAddr: 0x25F0, symBinAddr: 0xD1E90, symSize: 0x30 }
  - { offsetInCU: 0x97FB, offset: 0x49BD43, size: 0x8, addend: 0x0, symName: '__ZN77_$LT$alloc..raw_vec..RawVec$LT$T$C$A$GT$$u20$as$u20$core..ops..drop..Drop$GT$4drop17h0e3c72a3b686750dE', symObjAddr: 0x2620, symBinAddr: 0xD1EC0, symSize: 0x0 }
  - { offsetInCU: 0x98F8, offset: 0x49BE40, size: 0x8, addend: 0x0, symName: '__ZN77_$LT$alloc..raw_vec..RawVec$LT$T$C$A$GT$$u20$as$u20$core..ops..drop..Drop$GT$4drop17h2c01fed76e82dd66E', symObjAddr: 0x2650, symBinAddr: 0xD1EF0, symSize: 0x0 }
  - { offsetInCU: 0x99F5, offset: 0x49BF3D, size: 0x8, addend: 0x0, symName: '__ZN77_$LT$alloc..raw_vec..RawVec$LT$T$C$A$GT$$u20$as$u20$core..ops..drop..Drop$GT$4drop17h44e7a6e9e5e0123aE', symObjAddr: 0x2680, symBinAddr: 0xD1F20, symSize: 0x0 }
  - { offsetInCU: 0x9AF2, offset: 0x49C03A, size: 0x8, addend: 0x0, symName: '__ZN77_$LT$alloc..raw_vec..RawVec$LT$T$C$A$GT$$u20$as$u20$core..ops..drop..Drop$GT$4drop17h475ff3127d2fd28bE', symObjAddr: 0x26B0, symBinAddr: 0xD1F50, symSize: 0x30 }
  - { offsetInCU: 0x9BEF, offset: 0x49C137, size: 0x8, addend: 0x0, symName: '__ZN77_$LT$alloc..raw_vec..RawVec$LT$T$C$A$GT$$u20$as$u20$core..ops..drop..Drop$GT$4drop17h48dda448926a1653E', symObjAddr: 0x26E0, symBinAddr: 0xD1F80, symSize: 0x0 }
  - { offsetInCU: 0x9CEC, offset: 0x49C234, size: 0x8, addend: 0x0, symName: '__ZN77_$LT$alloc..raw_vec..RawVec$LT$T$C$A$GT$$u20$as$u20$core..ops..drop..Drop$GT$4drop17h5537c8566feebcb9E', symObjAddr: 0x2710, symBinAddr: 0xD1FB0, symSize: 0x30 }
  - { offsetInCU: 0x9DE9, offset: 0x49C331, size: 0x8, addend: 0x0, symName: '__ZN77_$LT$alloc..raw_vec..RawVec$LT$T$C$A$GT$$u20$as$u20$core..ops..drop..Drop$GT$4drop17h57fcaf5b1db7fda5E', symObjAddr: 0x2740, symBinAddr: 0xD1FE0, symSize: 0x0 }
  - { offsetInCU: 0x9EE6, offset: 0x49C42E, size: 0x8, addend: 0x0, symName: '__ZN77_$LT$alloc..raw_vec..RawVec$LT$T$C$A$GT$$u20$as$u20$core..ops..drop..Drop$GT$4drop17h61f8a0dbe0cf8801E', symObjAddr: 0x27A0, symBinAddr: 0xD2010, symSize: 0x30 }
  - { offsetInCU: 0x9FE3, offset: 0x49C52B, size: 0x8, addend: 0x0, symName: '__ZN77_$LT$alloc..raw_vec..RawVec$LT$T$C$A$GT$$u20$as$u20$core..ops..drop..Drop$GT$4drop17h66c5a8083c20d7b8E', symObjAddr: 0x27D0, symBinAddr: 0xD2040, symSize: 0x0 }
  - { offsetInCU: 0xA0E0, offset: 0x49C628, size: 0x8, addend: 0x0, symName: '__ZN77_$LT$alloc..raw_vec..RawVec$LT$T$C$A$GT$$u20$as$u20$core..ops..drop..Drop$GT$4drop17h6fef7fc11418c3d6E', symObjAddr: 0x2800, symBinAddr: 0xD2070, symSize: 0x30 }
  - { offsetInCU: 0xA1DD, offset: 0x49C725, size: 0x8, addend: 0x0, symName: '__ZN77_$LT$alloc..raw_vec..RawVec$LT$T$C$A$GT$$u20$as$u20$core..ops..drop..Drop$GT$4drop17h9e15064d87e8c7baE', symObjAddr: 0x28E0, symBinAddr: 0xD20A0, symSize: 0x30 }
  - { offsetInCU: 0xA2DA, offset: 0x49C822, size: 0x8, addend: 0x0, symName: '__ZN77_$LT$alloc..raw_vec..RawVec$LT$T$C$A$GT$$u20$as$u20$core..ops..drop..Drop$GT$4drop17ha6dcca4b618e55f6E', symObjAddr: 0x2940, symBinAddr: 0xD20D0, symSize: 0x30 }
  - { offsetInCU: 0xA3D7, offset: 0x49C91F, size: 0x8, addend: 0x0, symName: '__ZN77_$LT$alloc..raw_vec..RawVec$LT$T$C$A$GT$$u20$as$u20$core..ops..drop..Drop$GT$4drop17hb62412f4b5ad66ceE', symObjAddr: 0x29A0, symBinAddr: 0xD2100, symSize: 0x30 }
  - { offsetInCU: 0xA4D4, offset: 0x49CA1C, size: 0x8, addend: 0x0, symName: '__ZN77_$LT$alloc..raw_vec..RawVec$LT$T$C$A$GT$$u20$as$u20$core..ops..drop..Drop$GT$4drop17hb657b1419ae00cfeE', symObjAddr: 0x29D0, symBinAddr: 0xD2130, symSize: 0x0 }
  - { offsetInCU: 0xA5D1, offset: 0x49CB19, size: 0x8, addend: 0x0, symName: '__ZN77_$LT$alloc..raw_vec..RawVec$LT$T$C$A$GT$$u20$as$u20$core..ops..drop..Drop$GT$4drop17hc4ef8d960f8e610bE', symObjAddr: 0x2A00, symBinAddr: 0xD2160, symSize: 0x30 }
  - { offsetInCU: 0xA6CE, offset: 0x49CC16, size: 0x8, addend: 0x0, symName: '__ZN77_$LT$alloc..raw_vec..RawVec$LT$T$C$A$GT$$u20$as$u20$core..ops..drop..Drop$GT$4drop17hcaef966a21ea4b89E', symObjAddr: 0x2A30, symBinAddr: 0xD2190, symSize: 0x30 }
  - { offsetInCU: 0xA7CB, offset: 0x49CD13, size: 0x8, addend: 0x0, symName: '__ZN77_$LT$alloc..raw_vec..RawVec$LT$T$C$A$GT$$u20$as$u20$core..ops..drop..Drop$GT$4drop17hcc0c69260b242c92E', symObjAddr: 0x2A60, symBinAddr: 0xD21C0, symSize: 0x30 }
  - { offsetInCU: 0xA8C8, offset: 0x49CE10, size: 0x8, addend: 0x0, symName: '__ZN77_$LT$alloc..raw_vec..RawVec$LT$T$C$A$GT$$u20$as$u20$core..ops..drop..Drop$GT$4drop17hfa5e1cb27682854dE', symObjAddr: 0x2A90, symBinAddr: 0xD21F0, symSize: 0x24 }
  - { offsetInCU: 0x102F0, offset: 0x4A2838, size: 0x8, addend: 0x0, symName: '__ZN5alloc7raw_vec19RawVec$LT$T$C$A$GT$11allocate_in17hda1de3ef21323298E', symObjAddr: 0xAF0, symBinAddr: 0xD0BD0, symSize: 0x70 }
  - { offsetInCU: 0x10685, offset: 0x4A2BCD, size: 0x8, addend: 0x0, symName: '__ZN5alloc7raw_vec19RawVec$LT$T$C$A$GT$16reserve_for_push17h0aaaf28b6d25ae4bE', symObjAddr: 0xD60, symBinAddr: 0xD0C40, symSize: 0x0 }
  - { offsetInCU: 0x10B4A, offset: 0x4A3092, size: 0x8, addend: 0x0, symName: '__ZN5alloc7raw_vec19RawVec$LT$T$C$A$GT$16reserve_for_push17h0e58159a50b21f7dE', symObjAddr: 0xE30, symBinAddr: 0xD0D10, symSize: 0x0 }
  - { offsetInCU: 0x1100F, offset: 0x4A3557, size: 0x8, addend: 0x0, symName: '__ZN5alloc7raw_vec19RawVec$LT$T$C$A$GT$16reserve_for_push17h1992a09cfbb88ff5E', symObjAddr: 0xF00, symBinAddr: 0xD0DE0, symSize: 0x0 }
  - { offsetInCU: 0x114D3, offset: 0x4A3A1B, size: 0x8, addend: 0x0, symName: '__ZN5alloc7raw_vec19RawVec$LT$T$C$A$GT$16reserve_for_push17h1ea042c129c74178E', symObjAddr: 0xFD0, symBinAddr: 0xD0EB0, symSize: 0xD0 }
  - { offsetInCU: 0x11997, offset: 0x4A3EDF, size: 0x8, addend: 0x0, symName: '__ZN5alloc7raw_vec19RawVec$LT$T$C$A$GT$16reserve_for_push17h31c6a1026336e726E', symObjAddr: 0x10A0, symBinAddr: 0xD0F80, symSize: 0xD0 }
  - { offsetInCU: 0x11E70, offset: 0x4A43B8, size: 0x8, addend: 0x0, symName: '__ZN5alloc7raw_vec19RawVec$LT$T$C$A$GT$16reserve_for_push17h3efd4b9ba7dd36cfE', symObjAddr: 0x1170, symBinAddr: 0xD1050, symSize: 0x0 }
  - { offsetInCU: 0x12334, offset: 0x4A487C, size: 0x8, addend: 0x0, symName: '__ZN5alloc7raw_vec19RawVec$LT$T$C$A$GT$16reserve_for_push17h411cd94e849e5275E', symObjAddr: 0x1230, symBinAddr: 0xD1110, symSize: 0xD0 }
  - { offsetInCU: 0x127F8, offset: 0x4A4D40, size: 0x8, addend: 0x0, symName: '__ZN5alloc7raw_vec19RawVec$LT$T$C$A$GT$16reserve_for_push17h4f163092935e1aeaE', symObjAddr: 0x1300, symBinAddr: 0xD11E0, symSize: 0xD0 }
  - { offsetInCU: 0x12CBD, offset: 0x4A5205, size: 0x8, addend: 0x0, symName: '__ZN5alloc7raw_vec19RawVec$LT$T$C$A$GT$16reserve_for_push17h583d177332b5b671E', symObjAddr: 0x13D0, symBinAddr: 0xD12B0, symSize: 0xD0 }
  - { offsetInCU: 0x13182, offset: 0x4A56CA, size: 0x8, addend: 0x0, symName: '__ZN5alloc7raw_vec19RawVec$LT$T$C$A$GT$16reserve_for_push17h72ed8c7accc58bbbE', symObjAddr: 0x14A0, symBinAddr: 0xD1380, symSize: 0xD0 }
  - { offsetInCU: 0x13647, offset: 0x4A5B8F, size: 0x8, addend: 0x0, symName: '__ZN5alloc7raw_vec19RawVec$LT$T$C$A$GT$16reserve_for_push17h739caa5559aea624E', symObjAddr: 0x1570, symBinAddr: 0xD1450, symSize: 0xC0 }
  - { offsetInCU: 0x13B0B, offset: 0x4A6053, size: 0x8, addend: 0x0, symName: '__ZN5alloc7raw_vec19RawVec$LT$T$C$A$GT$16reserve_for_push17h87c4f060bcc02765E', symObjAddr: 0x1630, symBinAddr: 0xD1510, symSize: 0xD0 }
  - { offsetInCU: 0x13FD0, offset: 0x4A6518, size: 0x8, addend: 0x0, symName: '__ZN5alloc7raw_vec19RawVec$LT$T$C$A$GT$16reserve_for_push17h8b899c1e696f17ffE', symObjAddr: 0x1700, symBinAddr: 0xD15E0, symSize: 0xC0 }
  - { offsetInCU: 0x14494, offset: 0x4A69DC, size: 0x8, addend: 0x0, symName: '__ZN5alloc7raw_vec19RawVec$LT$T$C$A$GT$16reserve_for_push17h8e80bedeffc73a4aE', symObjAddr: 0x17C0, symBinAddr: 0xD16A0, symSize: 0x0 }
  - { offsetInCU: 0x14983, offset: 0x4A6ECB, size: 0x8, addend: 0x0, symName: '__ZN5alloc7raw_vec19RawVec$LT$T$C$A$GT$16reserve_for_push17h9a77950d1d6f0ee0E', symObjAddr: 0x1880, symBinAddr: 0xD1760, symSize: 0xC0 }
  - { offsetInCU: 0x14E47, offset: 0x4A738F, size: 0x8, addend: 0x0, symName: '__ZN5alloc7raw_vec19RawVec$LT$T$C$A$GT$16reserve_for_push17h9bf9d8f33ed0c3beE', symObjAddr: 0x1940, symBinAddr: 0xD1820, symSize: 0xD0 }
  - { offsetInCU: 0x1530C, offset: 0x4A7854, size: 0x8, addend: 0x0, symName: '__ZN5alloc7raw_vec19RawVec$LT$T$C$A$GT$16reserve_for_push17ha788625f0c6fdad0E', symObjAddr: 0x1A10, symBinAddr: 0xD18F0, symSize: 0xD0 }
  - { offsetInCU: 0x157D1, offset: 0x4A7D19, size: 0x8, addend: 0x0, symName: '__ZN5alloc7raw_vec19RawVec$LT$T$C$A$GT$16reserve_for_push17haee2b7484e6d75f9E', symObjAddr: 0x1AE0, symBinAddr: 0xD19C0, symSize: 0xC0 }
  - { offsetInCU: 0x15C95, offset: 0x4A81DD, size: 0x8, addend: 0x0, symName: '__ZN5alloc7raw_vec19RawVec$LT$T$C$A$GT$16reserve_for_push17hd153bfa8ab3f15efE', symObjAddr: 0x1BA0, symBinAddr: 0xD1A80, symSize: 0x0 }
  - { offsetInCU: 0x1615A, offset: 0x4A86A2, size: 0x8, addend: 0x0, symName: '__ZN5alloc7raw_vec19RawVec$LT$T$C$A$GT$16reserve_for_push17hdd2d896d4f49095cE', symObjAddr: 0x1C70, symBinAddr: 0xD1B50, symSize: 0xB0 }
  - { offsetInCU: 0x16604, offset: 0x4A8B4C, size: 0x8, addend: 0x0, symName: '__ZN5alloc7raw_vec19RawVec$LT$T$C$A$GT$16reserve_for_push17hf16ecf2298836350E', symObjAddr: 0x1D20, symBinAddr: 0xD1C00, symSize: 0xC0 }
  - { offsetInCU: 0x16AC9, offset: 0x4A9011, size: 0x8, addend: 0x0, symName: '__ZN5alloc7raw_vec19RawVec$LT$T$C$A$GT$16reserve_for_push17hf61e7d03fc833fc3E', symObjAddr: 0x1DE0, symBinAddr: 0xD1CC0, symSize: 0xD0 }
  - { offsetInCU: 0x16F8E, offset: 0x4A94D6, size: 0x8, addend: 0x0, symName: '__ZN5alloc7raw_vec19RawVec$LT$T$C$A$GT$16reserve_for_push17hfe5685a3a24ed984E', symObjAddr: 0x1EB0, symBinAddr: 0xD1D90, symSize: 0xD0 }
  - { offsetInCU: 0x1E, offset: 0x4A9E1C, size: 0x8, addend: 0x0, symName: '__ZN4core3ptr100drop_in_place$LT$core..option..Option$LT$alloc..boxed..Box$LT$syn..generics..LifetimeDef$GT$$GT$$GT$17h0fb31368c552c835E', symObjAddr: 0x0, symBinAddr: 0xD2220, symSize: 0xF0 }
  - { offsetInCU: 0xB0, offset: 0x4A9EAE, size: 0x8, addend: 0x0, symName: '__ZN58_$LT$alloc..string..String$u20$as$u20$core..fmt..Write$GT$10write_char17hd329c0cb943f081aE', symObjAddr: 0x5530, symBinAddr: 0xD7750, symSize: 0x130 }
  - { offsetInCU: 0x457, offset: 0x4AA255, size: 0x8, addend: 0x0, symName: '__ZN58_$LT$alloc..string..String$u20$as$u20$core..fmt..Write$GT$9write_str17h1ff5aa96ca91c6d5E', symObjAddr: 0x5660, symBinAddr: 0xD7880, symSize: 0x60 }
  - { offsetInCU: 0x38B3, offset: 0x4AD6B1, size: 0x8, addend: 0x0, symName: '__ZN4core3ptr100drop_in_place$LT$core..option..Option$LT$alloc..boxed..Box$LT$syn..generics..LifetimeDef$GT$$GT$$GT$17h0fb31368c552c835E', symObjAddr: 0x0, symBinAddr: 0xD2220, symSize: 0xF0 }
  - { offsetInCU: 0x3E4A, offset: 0x4ADC48, size: 0x8, addend: 0x0, symName: '__ZN4core3ptr100drop_in_place$LT$core..option..Option$LT$alloc..boxed..Box$LT$syn..path..GenericArgument$GT$$GT$$GT$17h94fb3e089cc53ce6E', symObjAddr: 0xF0, symBinAddr: 0xD2310, symSize: 0x50 }
  - { offsetInCU: 0x40F2, offset: 0x4ADEF0, size: 0x8, addend: 0x0, symName: '__ZN4core3ptr103drop_in_place$LT$syn..punctuated..Punctuated$LT$syn..generics..TypeParamBound$C$syn..token..Add$GT$$GT$17h517181ada56b9062E', symObjAddr: 0x140, symBinAddr: 0xD2360, symSize: 0x1B0 }
  - { offsetInCU: 0x48FC, offset: 0x4AE6FA, size: 0x8, addend: 0x0, symName: '__ZN4core3ptr108drop_in_place$LT$syn..punctuated..Punctuated$LT$syn..expr..GenericMethodArgument$C$syn..token..Comma$GT$$GT$17h413f77b0de48dbb7E', symObjAddr: 0x2F0, symBinAddr: 0xD2510, symSize: 0x160 }
  - { offsetInCU: 0x4E11, offset: 0x4AEC0F, size: 0x8, addend: 0x0, symName: '__ZN4core3ptr34drop_in_place$LT$syn..lit..Lit$GT$17heb8f235ab74bc4d4E', symObjAddr: 0x450, symBinAddr: 0xD2670, symSize: 0x110 }
  - { offsetInCU: 0x52EE, offset: 0x4AF0EC, size: 0x8, addend: 0x0, symName: '__ZN4core3ptr34drop_in_place$LT$syn..pat..Pat$GT$17hd6fa3ad4d18570d7E', symObjAddr: 0x560, symBinAddr: 0xD2780, symSize: 0x9F0 }
  - { offsetInCU: 0x7D67, offset: 0x4B1B65, size: 0x8, addend: 0x0, symName: '__ZN4core3ptr34drop_in_place$LT$syn..ty..Type$GT$17hfd9bfeacac76fc9aE', symObjAddr: 0xF50, symBinAddr: 0xD3170, symSize: 0x5A0 }
  - { offsetInCU: 0x9795, offset: 0x4B3593, size: 0x8, addend: 0x0, symName: '__ZN4core3ptr36drop_in_place$LT$syn..expr..Expr$GT$17h6b8a9b85afc75571E.llvm.11705735475055906517', symObjAddr: 0x14F0, symBinAddr: 0xD3710, symSize: 0x1C70 }
  - { offsetInCU: 0x10F15, offset: 0x4BAD13, size: 0x8, addend: 0x0, symName: '__ZN4core3ptr36drop_in_place$LT$syn..mac..Macro$GT$17ha661e027deab4b66E', symObjAddr: 0x3160, symBinAddr: 0xD5380, symSize: 0xE0 }
  - { offsetInCU: 0x11302, offset: 0x4BB100, size: 0x8, addend: 0x0, symName: '__ZN4core3ptr36drop_in_place$LT$syn..path..Path$GT$17he4358a51dbdb774bE', symObjAddr: 0x3240, symBinAddr: 0xD5460, symSize: 0x230 }
  - { offsetInCU: 0x11C37, offset: 0x4BBA35, size: 0x8, addend: 0x0, symName: '__ZN4core3ptr37drop_in_place$LT$core..fmt..Error$GT$17h953b815847ed35afE', symObjAddr: 0x3470, symBinAddr: 0xD5690, symSize: 0x10 }
  - { offsetInCU: 0x11C63, offset: 0x4BBA61, size: 0x8, addend: 0x0, symName: '__ZN4core3ptr37drop_in_place$LT$syn..stmt..Block$GT$17hfb4d80957646e543E', symObjAddr: 0x3480, symBinAddr: 0xD56A0, symSize: 0xD0 }
  - { offsetInCU: 0x11F07, offset: 0x4BBD05, size: 0x8, addend: 0x0, symName: '__ZN4core3ptr38drop_in_place$LT$syn..expr..Member$GT$17h3141a26ba2d76dd7E', symObjAddr: 0x3550, symBinAddr: 0xD5770, symSize: 0x30 }
  - { offsetInCU: 0x1209F, offset: 0x4BBE9D, size: 0x8, addend: 0x0, symName: '__ZN4core3ptr38drop_in_place$LT$syn..group..Group$GT$17h88ee06a66262517eE', symObjAddr: 0x3580, symBinAddr: 0xD57A0, symSize: 0x70 }
  - { offsetInCU: 0x123B5, offset: 0x4BC1B3, size: 0x8, addend: 0x0, symName: '__ZN4core3ptr39drop_in_place$LT$proc_macro2..Ident$GT$17hfc382935d884a247E', symObjAddr: 0x35F0, symBinAddr: 0xD5810, symSize: 0x30 }
  - { offsetInCU: 0x124D1, offset: 0x4BC2CF, size: 0x8, addend: 0x0, symName: '__ZN4core3ptr39drop_in_place$LT$syn..lit..LitFloat$GT$17hf8dd53f27bd399b5E', symObjAddr: 0x3620, symBinAddr: 0xD5840, symSize: 0x70 }
  - { offsetInCU: 0x12851, offset: 0x4BC64F, size: 0x8, addend: 0x0, symName: '__ZN4core3ptr39drop_in_place$LT$syn..pat..PatTuple$GT$17h232e0cbeb905e9d9E', symObjAddr: 0x3690, symBinAddr: 0xD58B0, symSize: 0x80 }
  - { offsetInCU: 0x12A59, offset: 0x4BC857, size: 0x8, addend: 0x0, symName: '__ZN4core3ptr40drop_in_place$LT$syn..ty..ReturnType$GT$17h42cc52c006e6d7cdE', symObjAddr: 0x3710, symBinAddr: 0xD5930, symSize: 0x50 }
  - { offsetInCU: 0x12BCB, offset: 0x4BC9C9, size: 0x8, addend: 0x0, symName: '__ZN4core3ptr41drop_in_place$LT$syn..attr..Attribute$GT$17h519230889df99b21E', symObjAddr: 0x3760, symBinAddr: 0xD5980, symSize: 0x40 }
  - { offsetInCU: 0x12BE8, offset: 0x4BC9E6, size: 0x8, addend: 0x0, symName: '__ZN4core3ptr42drop_in_place$LT$alloc..string..String$GT$17hd527bee3e7586c29E', symObjAddr: 0x37A0, symBinAddr: 0xD59C0, symSize: 0x20 }
  - { offsetInCU: 0x12D8C, offset: 0x4BCB8A, size: 0x8, addend: 0x0, symName: '__ZN4core3ptr42drop_in_place$LT$syn..expr..ExprStruct$GT$17h0b4a44b5a8aa6aebE', symObjAddr: 0x37C0, symBinAddr: 0xD59E0, symSize: 0x290 }
  - { offsetInCU: 0x137D8, offset: 0x4BD5D6, size: 0x8, addend: 0x0, symName: '__ZN4core3ptr42drop_in_place$LT$syn..expr..FieldValue$GT$17hacce232733994ed0E', symObjAddr: 0x3A50, symBinAddr: 0xD5C70, symSize: 0xD0 }
  - { offsetInCU: 0x13B5E, offset: 0x4BD95C, size: 0x8, addend: 0x0, symName: '__ZN4core3ptr43drop_in_place$LT$syn..expr..ExprClosure$GT$17h1e3611e6a3b3354aE', symObjAddr: 0x3B20, symBinAddr: 0xD5D40, symSize: 0x200 }
  - { offsetInCU: 0x14487, offset: 0x4BE285, size: 0x8, addend: 0x0, symName: '__ZN4core3ptr44drop_in_place$LT$syn..parse..ParseBuffer$GT$17h1603f155a5d07e6dE', symObjAddr: 0x3D20, symBinAddr: 0xD5F40, symSize: 0x70 }
  - { offsetInCU: 0x148BC, offset: 0x4BE6BA, size: 0x8, addend: 0x0, symName: '__ZN4core3ptr45drop_in_place$LT$proc_macro2..TokenStream$GT$17h44f5bf9c29d914fbE', symObjAddr: 0x3D90, symBinAddr: 0xD5FB0, symSize: 0x140 }
  - { offsetInCU: 0x14D2C, offset: 0x4BEB2A, size: 0x8, addend: 0x0, symName: '__ZN4core3ptr47drop_in_place$LT$syn..path..GenericArgument$GT$17h53f7c77f182368f5E', symObjAddr: 0x3ED0, symBinAddr: 0xD60F0, symSize: 0xE0 }
  - { offsetInCU: 0x150B6, offset: 0x4BEEB4, size: 0x8, addend: 0x0, symName: '__ZN4core3ptr50drop_in_place$LT$syn..generics..BoundLifetimes$GT$17hdf3a1914bf6bd627E', symObjAddr: 0x3FB0, symBinAddr: 0xD61D0, symSize: 0xC0 }
  - { offsetInCU: 0x15371, offset: 0x4BF16F, size: 0x8, addend: 0x0, symName: '__ZN4core3ptr58drop_in_place$LT$alloc..vec..Vec$LT$syn..expr..Arm$GT$$GT$17hf30588e63e9aa2acE', symObjAddr: 0x4070, symBinAddr: 0xD6290, symSize: 0xD0 }
  - { offsetInCU: 0x155FE, offset: 0x4BF3FC, size: 0x8, addend: 0x0, symName: '__ZN4core3ptr59drop_in_place$LT$alloc..boxed..Box$LT$syn..pat..Pat$GT$$GT$17h8da5d9585b79befeE', symObjAddr: 0x4140, symBinAddr: 0xD6360, symSize: 0x50 }
  - { offsetInCU: 0x15759, offset: 0x4BF557, size: 0x8, addend: 0x0, symName: '__ZN4core3ptr59drop_in_place$LT$alloc..boxed..Box$LT$syn..ty..Type$GT$$GT$17hfdcfc83ffb884feaE', symObjAddr: 0x4190, symBinAddr: 0xD63B0, symSize: 0x50 }
  - { offsetInCU: 0x158B4, offset: 0x4BF6B2, size: 0x8, addend: 0x0, symName: '__ZN4core3ptr61drop_in_place$LT$alloc..boxed..Box$LT$syn..expr..Expr$GT$$GT$17hd59f20e4896eb10dE', symObjAddr: 0x41E0, symBinAddr: 0xD6400, symSize: 0x50 }
  - { offsetInCU: 0x15A0F, offset: 0x4BF80D, size: 0x8, addend: 0x0, symName: '__ZN4core3ptr61drop_in_place$LT$syn..path..ParenthesizedGenericArguments$GT$17h2cb12f9d921fc247E', symObjAddr: 0x4230, symBinAddr: 0xD6450, symSize: 0x170 }
  - { offsetInCU: 0x15FEA, offset: 0x4BFDE8, size: 0x8, addend: 0x0, symName: '__ZN4core3ptr63drop_in_place$LT$alloc..boxed..Box$LT$syn..lit..LitRepr$GT$$GT$17ha0c79af03c778e78E', symObjAddr: 0x43A0, symBinAddr: 0xD65C0, symSize: 0x60 }
  - { offsetInCU: 0x162DF, offset: 0x4C00DD, size: 0x8, addend: 0x0, symName: '__ZN4core3ptr64drop_in_place$LT$alloc..boxed..Box$LT$syn..pat..FieldPat$GT$$GT$17h4cf97b08e30ccd11E', symObjAddr: 0x4400, symBinAddr: 0xD6620, symSize: 0x100 }
  - { offsetInCU: 0x168FA, offset: 0x4C06F8, size: 0x8, addend: 0x0, symName: '__ZN4core3ptr64drop_in_place$LT$alloc..boxed..Box$LT$syn..ty..BareFnArg$GT$$GT$17h5ed4e7eb5288ceaeE', symObjAddr: 0x4500, symBinAddr: 0xD6720, symSize: 0xE0 }
  - { offsetInCU: 0x16D80, offset: 0x4C0B7E, size: 0x8, addend: 0x0, symName: '__ZN4core3ptr64drop_in_place$LT$alloc..vec..Vec$LT$syn..attr..Attribute$GT$$GT$17h00ca1a13bf29cbb7E.llvm.11705735475055906517', symObjAddr: 0x45E0, symBinAddr: 0xD6800, symSize: 0x60 }
  - { offsetInCU: 0x16F75, offset: 0x4C0D73, size: 0x8, addend: 0x0, symName: '__ZN4core3ptr65drop_in_place$LT$core..option..Option$LT$syn..expr..Label$GT$$GT$17hdfb87f4e56640098E', symObjAddr: 0x4640, symBinAddr: 0xD6860, symSize: 0x30 }
  - { offsetInCU: 0x170B0, offset: 0x4C0EAE, size: 0x8, addend: 0x0, symName: '__ZN4core3ptr65drop_in_place$LT$core..option..Option$LT$syn..path..QSelf$GT$$GT$17h1f0245c1a4935233E', symObjAddr: 0x4670, symBinAddr: 0xD6890, symSize: 0x50 }
  - { offsetInCU: 0x17233, offset: 0x4C1031, size: 0x8, addend: 0x0, symName: '__ZN4core3ptr66drop_in_place$LT$core..option..Option$LT$syn..ty..Variadic$GT$$GT$17h027f0e707b91e4beE', symObjAddr: 0x46C0, symBinAddr: 0xD68E0, symSize: 0x80 }
  - { offsetInCU: 0x17489, offset: 0x4C1287, size: 0x8, addend: 0x0, symName: '__ZN4core3ptr67drop_in_place$LT$alloc..boxed..Box$LT$syn..expr..FieldValue$GT$$GT$17ha1d27993e02226e2E', symObjAddr: 0x4740, symBinAddr: 0xD6960, symSize: 0xF0 }
  - { offsetInCU: 0x178E8, offset: 0x4C16E6, size: 0x8, addend: 0x0, symName: '__ZN4core3ptr72drop_in_place$LT$core..option..Option$LT$syn..lifetime..Lifetime$GT$$GT$17h406663184fba9f2fE', symObjAddr: 0x4830, symBinAddr: 0xD6A50, symSize: 0x30 }
  - { offsetInCU: 0x17A04, offset: 0x4C1802, size: 0x8, addend: 0x0, symName: '__ZN4core3ptr75drop_in_place$LT$alloc..boxed..Box$LT$syn..generics..TypeParamBound$GT$$GT$17hcf1c09bccd64c785E', symObjAddr: 0x4860, symBinAddr: 0xD6A80, symSize: 0x140 }
  - { offsetInCU: 0x17F39, offset: 0x4C1D37, size: 0x8, addend: 0x0, symName: '__ZN4core3ptr78drop_in_place$LT$alloc..boxed..Box$LT$syn..expr..GenericMethodArgument$GT$$GT$17hc5561f5e7586c250E', symObjAddr: 0x49A0, symBinAddr: 0xD6BC0, symSize: 0x60 }
  - { offsetInCU: 0x180D0, offset: 0x4C1ECE, size: 0x8, addend: 0x0, symName: '__ZN4core3ptr78drop_in_place$LT$core..option..Option$LT$syn..generics..BoundLifetimes$GT$$GT$17hc74a275f958fb9a1E', symObjAddr: 0x4A00, symBinAddr: 0xD6C20, symSize: 0xE0 }
  - { offsetInCU: 0x183B4, offset: 0x4C21B2, size: 0x8, addend: 0x0, symName: '__ZN4core3ptr83drop_in_place$LT$core..result..Result$LT$syn..op..BinOp$C$syn..error..Error$GT$$GT$17h1459f2ccb2d84ed9E', symObjAddr: 0x4AE0, symBinAddr: 0xD6D00, symSize: 0x80 }
  - { offsetInCU: 0x18679, offset: 0x4C2477, size: 0x8, addend: 0x0, symName: '__ZN4core3ptr86drop_in_place$LT$syn..punctuated..Punctuated$LT$syn..pat..Pat$C$syn..token..Or$GT$$GT$17h13896407bc2c03e4E', symObjAddr: 0x4B60, symBinAddr: 0xD6D80, symSize: 0x120 }
  - { offsetInCU: 0x18ABF, offset: 0x4C28BD, size: 0x8, addend: 0x0, symName: '__ZN4core3ptr87drop_in_place$LT$core..option..Option$LT$alloc..boxed..Box$LT$syn..pat..Pat$GT$$GT$$GT$17h5bd93a2021c10f20E', symObjAddr: 0x4C80, symBinAddr: 0xD6EA0, symSize: 0x50 }
  - { offsetInCU: 0x18C31, offset: 0x4C2A2F, size: 0x8, addend: 0x0, symName: '__ZN4core3ptr87drop_in_place$LT$core..option..Option$LT$alloc..boxed..Box$LT$syn..ty..Type$GT$$GT$$GT$17h6936d17ab80112d1E', symObjAddr: 0x4CD0, symBinAddr: 0xD6EF0, symSize: 0x50 }
  - { offsetInCU: 0x18DA3, offset: 0x4C2BA1, size: 0x8, addend: 0x0, symName: '__ZN4core3ptr89drop_in_place$LT$core..option..Option$LT$alloc..boxed..Box$LT$syn..expr..Expr$GT$$GT$$GT$17h9285f9bb32cfe7feE', symObjAddr: 0x4D20, symBinAddr: 0xD6F40, symSize: 0x50 }
  - { offsetInCU: 0x18F15, offset: 0x4C2D13, size: 0x8, addend: 0x0, symName: '__ZN4core3ptr89drop_in_place$LT$syn..punctuated..Punctuated$LT$syn..pat..Pat$C$syn..token..Comma$GT$$GT$17h7cc94aacc194d79fE', symObjAddr: 0x4D70, symBinAddr: 0xD6F90, symSize: 0x120 }
  - { offsetInCU: 0x1939D, offset: 0x4C319B, size: 0x8, addend: 0x0, symName: '__ZN4core3ptr91drop_in_place$LT$syn..punctuated..Punctuated$LT$syn..expr..Expr$C$syn..token..Comma$GT$$GT$17h89eb145173101a03E', symObjAddr: 0x4E90, symBinAddr: 0xD70B0, symSize: 0x120 }
  - { offsetInCU: 0x197E7, offset: 0x4C35E5, size: 0x8, addend: 0x0, symName: '__ZN4core3ptr94drop_in_place$LT$syn..punctuated..Punctuated$LT$syn..pat..FieldPat$C$syn..token..Comma$GT$$GT$17hdbbfc15c48c312e3E', symObjAddr: 0x4FB0, symBinAddr: 0xD71D0, symSize: 0xF0 }
  - { offsetInCU: 0x19AB1, offset: 0x4C38AF, size: 0x8, addend: 0x0, symName: '__ZN4core3ptr94drop_in_place$LT$syn..punctuated..Punctuated$LT$syn..ty..BareFnArg$C$syn..token..Comma$GT$$GT$17h4e6d5a703b32a850E', symObjAddr: 0x50A0, symBinAddr: 0xD72C0, symSize: 0xF0 }
  - { offsetInCU: 0x19D7B, offset: 0x4C3B79, size: 0x8, addend: 0x0, symName: '__ZN4core3ptr95drop_in_place$LT$core..option..Option$LT$alloc..boxed..Box$LT$syn..expr..FieldValue$GT$$GT$$GT$17h95938b63f5172bf7E', symObjAddr: 0x5190, symBinAddr: 0xD73B0, symSize: 0x50 }
  - { offsetInCU: 0x19EED, offset: 0x4C3CEB, size: 0x8, addend: 0x0, symName: '__ZN4core3ptr96drop_in_place$LT$core..option..Option$LT$alloc..boxed..Box$LT$syn..path..PathSegment$GT$$GT$$GT$17he2148fc749fa4ba5E', symObjAddr: 0x51E0, symBinAddr: 0xD7400, symSize: 0x180 }
  - { offsetInCU: 0x1A57E, offset: 0x4C437C, size: 0x8, addend: 0x0, symName: '__ZN4core3ptr97drop_in_place$LT$syn..punctuated..Punctuated$LT$syn..expr..FieldValue$C$syn..token..Comma$GT$$GT$17h32c10a095b2e74c7E', symObjAddr: 0x5360, symBinAddr: 0xD7580, symSize: 0xF0 }
  - { offsetInCU: 0x1A8C4, offset: 0x4C46C2, size: 0x8, addend: 0x0, symName: '__ZN4core3ptr97drop_in_place$LT$syn..punctuated..Punctuated$LT$syn..lifetime..Lifetime$C$syn..token..Add$GT$$GT$17h75f9c8a38e93dfefE', symObjAddr: 0x5450, symBinAddr: 0xD7670, symSize: 0xC0 }
  - { offsetInCU: 0x1B369, offset: 0x4C5167, size: 0x8, addend: 0x0, symName: '__ZN53_$LT$core..fmt..Error$u20$as$u20$core..fmt..Debug$GT$3fmt17h43ae5cec9623af13E', symObjAddr: 0x5510, symBinAddr: 0xD7730, symSize: 0x20 }
  - { offsetInCU: 0x23CAD, offset: 0x4CDAAB, size: 0x8, addend: 0x0, symName: __ZN3syn4expr7parsing10parse_expr17h6dcafefab7df1ebfE, symObjAddr: 0x56C0, symBinAddr: 0xD78E0, symSize: 0x19E0 }
  - { offsetInCU: 0x26539, offset: 0x4D0337, size: 0x8, addend: 0x0, symName: __ZN3syn4expr7parsing15peek_precedence17hb25632699c6cd5daE, symObjAddr: 0x70A0, symBinAddr: 0xD92C0, symSize: 0x270 }
  - { offsetInCU: 0x2711F, offset: 0x4D0F1D, size: 0x8, addend: 0x0, symName: __ZN3syn4expr7parsing14ambiguous_expr17h8cd4103e21a7eba9E, symObjAddr: 0x7310, symBinAddr: 0xD9530, symSize: 0x100 }
  - { offsetInCU: 0x271A5, offset: 0x4D0FA3, size: 0x8, addend: 0x0, symName: __ZN3syn4expr7parsing10expr_attrs17he2350917daffdaa2E, symObjAddr: 0x7410, symBinAddr: 0xD9630, symSize: 0xA90 }
  - { offsetInCU: 0x29321, offset: 0x4D311F, size: 0x8, addend: 0x0, symName: __ZN3syn4expr7parsing10unary_expr17h1572ae7712757937E, symObjAddr: 0x7EA0, symBinAddr: 0xDA0C0, symSize: 0xCE0 }
  - { offsetInCU: 0x2B267, offset: 0x4D5065, size: 0x8, addend: 0x0, symName: __ZN3syn4expr7parsing12trailer_expr17hf7fba176fabf64faE, symObjAddr: 0x8B80, symBinAddr: 0xDADA0, symSize: 0x2980 }
  - { offsetInCU: 0x3005D, offset: 0x4D9E5B, size: 0x8, addend: 0x0, symName: __ZN3syn4expr7parsing14trailer_helper17hb4bc058584df5a79E, symObjAddr: 0xB500, symBinAddr: 0xDD720, symSize: 0x1E10 }
  - { offsetInCU: 0x33B8C, offset: 0x4DD98A, size: 0x8, addend: 0x0, symName: __ZN3syn4expr7parsing23path_or_macro_or_struct17h62a3675f7a8d58bfE, symObjAddr: 0xD310, symBinAddr: 0xDF530, symSize: 0x980 }
  - { offsetInCU: 0x3501D, offset: 0x4DEE1B, size: 0x8, addend: 0x0, symName: __ZN3syn4expr7parsing14paren_or_tuple17ha60b7f4703092dd5E, symObjAddr: 0xDC90, symBinAddr: 0xDFEB0, symSize: 0x780 }
  - { offsetInCU: 0x35971, offset: 0x4DF76F, size: 0x8, addend: 0x0, symName: __ZN3syn4expr7parsing15array_or_repeat17h579cf1491c5f8e81E, symObjAddr: 0xE410, symBinAddr: 0xE0630, symSize: 0x12C0 }
  - { offsetInCU: 0x3937C, offset: 0x4E317A, size: 0x8, addend: 0x0, symName: __ZN3syn4expr7parsing10expr_early17h501010854f201ba9E, symObjAddr: 0xF6D0, symBinAddr: 0xE18F0, symSize: 0x13A0 }
  - { offsetInCU: 0x3B4C5, offset: 0x4E52C3, size: 0x8, addend: 0x0, symName: __ZN3syn4expr7parsing10else_block17h3d3aa8823e15c127E, symObjAddr: 0x10CA0, symBinAddr: 0xE2C90, symSize: 0x4B0 }
  - { offsetInCU: 0x3BB11, offset: 0x4E590F, size: 0x8, addend: 0x0, symName: __ZN3syn4expr7parsing8expr_box17hc345e9f0a9e23786E, symObjAddr: 0x11150, symBinAddr: 0xE3140, symSize: 0x360 }
  - { offsetInCU: 0x3BF71, offset: 0x4E5D6F, size: 0x8, addend: 0x0, symName: __ZN3syn4expr7parsing10expr_unary17h3d393ba1d7f872c0E, symObjAddr: 0x114B0, symBinAddr: 0xE34A0, symSize: 0x330 }
  - { offsetInCU: 0x3C537, offset: 0x4E6335, size: 0x8, addend: 0x0, symName: __ZN3syn4expr7parsing12expr_closure17h050bbd3db623be95E, symObjAddr: 0x117E0, symBinAddr: 0xE37D0, symSize: 0x2010 }
  - { offsetInCU: 0x3FBF7, offset: 0x4E99F5, size: 0x8, addend: 0x0, symName: __ZN3syn4expr7parsing10expr_break17h447d48a77919775cE, symObjAddr: 0x137F0, symBinAddr: 0xE57E0, symSize: 0x540 }
  - { offsetInCU: 0x40687, offset: 0x4EA485, size: 0x8, addend: 0x0, symName: __ZN3syn4expr7parsing8expr_ret17h89d193116838f768E, symObjAddr: 0x13D30, symBinAddr: 0xE5D20, symSize: 0x300 }
  - { offsetInCU: 0x40B08, offset: 0x4EA906, size: 0x8, addend: 0x0, symName: __ZN3syn4expr7parsing18expr_struct_helper17hb8cf17198d5e6ab1E, symObjAddr: 0x14030, symBinAddr: 0xE6020, symSize: 0x780 }
  - { offsetInCU: 0x41890, offset: 0x4EB68E, size: 0x8, addend: 0x0, symName: __ZN3syn4expr7parsing10expr_const17hc189483e37ae96a8E, symObjAddr: 0x147B0, symBinAddr: 0xE67A0, symSize: 0x5A0 }
  - { offsetInCU: 0x4282F, offset: 0x4EC62D, size: 0x8, addend: 0x0, symName: __ZN3syn4expr7parsing10expr_range17ha718123fae9acdedE, symObjAddr: 0x14D50, symBinAddr: 0xE6D40, symSize: 0x400 }
  - { offsetInCU: 0x42FE2, offset: 0x4ECDE0, size: 0x8, addend: 0x0, symName: __ZN3syn4expr7parsing10check_cast17h879c45b3436a7580E, symObjAddr: 0x15150, symBinAddr: 0xE7140, symSize: 0x460 }
  - { offsetInCU: 0x43C32, offset: 0x4EDA30, size: 0x8, addend: 0x0, symName: '__ZN67_$LT$syn..expr..parsing..raw$u20$as$u20$syn..token..CustomToken$GT$4peek17hf1fea2305c15dbabE', symObjAddr: 0x155C0, symBinAddr: 0xE75A0, symSize: 0x1B0 }
  - { offsetInCU: 0x1E, offset: 0x502714, size: 0x8, addend: 0x0, symName: '__ZN4core3ptr100drop_in_place$LT$core..option..Option$LT$alloc..boxed..Box$LT$syn..generics..LifetimeDef$GT$$GT$$GT$17h0fb31368c552c835E', symObjAddr: 0x0, symBinAddr: 0xE7750, symSize: 0xF0 }
  - { offsetInCU: 0x1B2E, offset: 0x504224, size: 0x8, addend: 0x0, symName: '__ZN4core3ptr100drop_in_place$LT$core..option..Option$LT$alloc..boxed..Box$LT$syn..generics..LifetimeDef$GT$$GT$$GT$17h0fb31368c552c835E', symObjAddr: 0x0, symBinAddr: 0xE7750, symSize: 0xF0 }
  - { offsetInCU: 0x20C5, offset: 0x5047BB, size: 0x8, addend: 0x0, symName: '__ZN4core3ptr100drop_in_place$LT$core..option..Option$LT$alloc..boxed..Box$LT$syn..path..GenericArgument$GT$$GT$$GT$17h94fb3e089cc53ce6E', symObjAddr: 0xF0, symBinAddr: 0xE7840, symSize: 0x50 }
  - { offsetInCU: 0x2310, offset: 0x504A06, size: 0x8, addend: 0x0, symName: '__ZN4core3ptr103drop_in_place$LT$syn..punctuated..Punctuated$LT$syn..generics..TypeParamBound$C$syn..token..Add$GT$$GT$17h517181ada56b9062E', symObjAddr: 0x140, symBinAddr: 0xE7890, symSize: 0xF0 }
  - { offsetInCU: 0x284E, offset: 0x504F44, size: 0x8, addend: 0x0, symName: '__ZN4core3ptr106drop_in_place$LT$core..option..Option$LT$alloc..boxed..Box$LT$syn..expr..GenericMethodArgument$GT$$GT$$GT$17h68e4615806e37e5cE', symObjAddr: 0x230, symBinAddr: 0xE7980, symSize: 0x70 }
  - { offsetInCU: 0x2A34, offset: 0x50512A, size: 0x8, addend: 0x0, symName: '__ZN4core3ptr108drop_in_place$LT$syn..punctuated..Punctuated$LT$syn..expr..GenericMethodArgument$C$syn..token..Comma$GT$$GT$17h413f77b0de48dbb7E', symObjAddr: 0x2A0, symBinAddr: 0xE79F0, symSize: 0x160 }
  - { offsetInCU: 0x2EA3, offset: 0x505599, size: 0x8, addend: 0x0, symName: '__ZN4core3ptr114drop_in_place$LT$core..option..Option$LT$$LP$syn..token..If$C$alloc..boxed..Box$LT$syn..expr..Expr$GT$$RP$$GT$$GT$17h3062d5e9dcc5a040E.llvm.6648508862672840581', symObjAddr: 0x400, symBinAddr: 0xE7B50, symSize: 0x50 }
  - { offsetInCU: 0x30D0, offset: 0x5057C6, size: 0x8, addend: 0x0, symName: '__ZN4core3ptr34drop_in_place$LT$syn..lit..Lit$GT$17heb8f235ab74bc4d4E', symObjAddr: 0x450, symBinAddr: 0xE7BA0, symSize: 0x110 }
  - { offsetInCU: 0x35EB, offset: 0x505CE1, size: 0x8, addend: 0x0, symName: '__ZN4core3ptr34drop_in_place$LT$syn..pat..Pat$GT$17hd6fa3ad4d18570d7E.llvm.6648508862672840581', symObjAddr: 0x560, symBinAddr: 0xE7CB0, symSize: 0xB10 }
  - { offsetInCU: 0x6557, offset: 0x508C4D, size: 0x8, addend: 0x0, symName: '__ZN4core3ptr34drop_in_place$LT$syn..ty..Type$GT$17hfd9bfeacac76fc9aE', symObjAddr: 0x1070, symBinAddr: 0xE87C0, symSize: 0x510 }
  - { offsetInCU: 0x76C6, offset: 0x509DBC, size: 0x8, addend: 0x0, symName: '__ZN4core3ptr35drop_in_place$LT$syn..expr..Arm$GT$17h7175e6cd7c5f8e3dE', symObjAddr: 0x1580, symBinAddr: 0xE8CD0, symSize: 0x130 }
  - { offsetInCU: 0x8203, offset: 0x50A8F9, size: 0x8, addend: 0x0, symName: '__ZN4core3ptr36drop_in_place$LT$syn..expr..Expr$GT$17h6b8a9b85afc75571E.llvm.6648508862672840581', symObjAddr: 0x16B0, symBinAddr: 0xE8E00, symSize: 0x1DD0 }
  - { offsetInCU: 0x1001F, offset: 0x512715, size: 0x8, addend: 0x0, symName: '__ZN4core3ptr36drop_in_place$LT$syn..mac..Macro$GT$17ha661e027deab4b66E', symObjAddr: 0x3480, symBinAddr: 0xEABD0, symSize: 0x40 }
  - { offsetInCU: 0x10170, offset: 0x512866, size: 0x8, addend: 0x0, symName: '__ZN4core3ptr36drop_in_place$LT$syn..path..Path$GT$17he4358a51dbdb774bE', symObjAddr: 0x34C0, symBinAddr: 0xEAC10, symSize: 0x230 }
  - { offsetInCU: 0x10AE3, offset: 0x5131D9, size: 0x8, addend: 0x0, symName: '__ZN4core3ptr37drop_in_place$LT$syn..lit..LitInt$GT$17h6f624d0fd6625e9bE', symObjAddr: 0x36F0, symBinAddr: 0xEAE40, symSize: 0x70 }
  - { offsetInCU: 0x10E63, offset: 0x513559, size: 0x8, addend: 0x0, symName: '__ZN4core3ptr37drop_in_place$LT$syn..stmt..Block$GT$17hfb4d80957646e543E', symObjAddr: 0x3760, symBinAddr: 0xEAEB0, symSize: 0xD0 }
  - { offsetInCU: 0x11107, offset: 0x5137FD, size: 0x8, addend: 0x0, symName: '__ZN4core3ptr38drop_in_place$LT$syn..expr..Member$GT$17h3141a26ba2d76dd7E', symObjAddr: 0x3830, symBinAddr: 0xEAF80, symSize: 0x30 }
  - { offsetInCU: 0x11204, offset: 0x5138FA, size: 0x8, addend: 0x0, symName: '__ZN4core3ptr39drop_in_place$LT$proc_macro2..Ident$GT$17hfc382935d884a247E', symObjAddr: 0x3860, symBinAddr: 0xEAFB0, symSize: 0x30 }
  - { offsetInCU: 0x112E2, offset: 0x5139D8, size: 0x8, addend: 0x0, symName: '__ZN4core3ptr39drop_in_place$LT$syn..pat..PatTuple$GT$17h232e0cbeb905e9d9E', symObjAddr: 0x3940, symBinAddr: 0xEAFE0, symSize: 0x80 }
  - { offsetInCU: 0x114EA, offset: 0x513BE0, size: 0x8, addend: 0x0, symName: '__ZN4core3ptr40drop_in_place$LT$syn..ty..ReturnType$GT$17h42cc52c006e6d7cdE', symObjAddr: 0x3B70, symBinAddr: 0xEB060, symSize: 0x50 }
  - { offsetInCU: 0x116D8, offset: 0x513DCE, size: 0x8, addend: 0x0, symName: '__ZN4core3ptr44drop_in_place$LT$syn..parse..ParseBuffer$GT$17h1603f155a5d07e6dE', symObjAddr: 0x4020, symBinAddr: 0xEB0B0, symSize: 0x70 }
  - { offsetInCU: 0x11B0D, offset: 0x514203, size: 0x8, addend: 0x0, symName: '__ZN4core3ptr45drop_in_place$LT$proc_macro2..TokenStream$GT$17h44f5bf9c29d914fbE.llvm.6648508862672840581', symObjAddr: 0x4090, symBinAddr: 0xEB120, symSize: 0x140 }
  - { offsetInCU: 0x11FF9, offset: 0x5146EF, size: 0x8, addend: 0x0, symName: '__ZN4core3ptr46drop_in_place$LT$syn..expr..ExprMethodCall$GT$17h01180d60aa6f7572E', symObjAddr: 0x41D0, symBinAddr: 0xEB260, symSize: 0x310 }
  - { offsetInCU: 0x12C9D, offset: 0x515393, size: 0x8, addend: 0x0, symName: '__ZN4core3ptr47drop_in_place$LT$syn..expr..MethodTurbofish$GT$17h256ff6b27f2ad2d4E', symObjAddr: 0x44E0, symBinAddr: 0xEB570, symSize: 0x160 }
  - { offsetInCU: 0x13123, offset: 0x515819, size: 0x8, addend: 0x0, symName: '__ZN4core3ptr47drop_in_place$LT$syn..path..GenericArgument$GT$17h53f7c77f182368f5E', symObjAddr: 0x4640, symBinAddr: 0xEB6D0, symSize: 0xE0 }
  - { offsetInCU: 0x1343D, offset: 0x515B33, size: 0x8, addend: 0x0, symName: '__ZN4core3ptr58drop_in_place$LT$alloc..vec..Vec$LT$syn..expr..Arm$GT$$GT$17hf30588e63e9aa2acE', symObjAddr: 0x4720, symBinAddr: 0xEB7B0, symSize: 0xD0 }
  - { offsetInCU: 0x136CA, offset: 0x515DC0, size: 0x8, addend: 0x0, symName: '__ZN4core3ptr59drop_in_place$LT$alloc..boxed..Box$LT$syn..pat..Pat$GT$$GT$17h8da5d9585b79befeE', symObjAddr: 0x47F0, symBinAddr: 0xEB880, symSize: 0x50 }
  - { offsetInCU: 0x13825, offset: 0x515F1B, size: 0x8, addend: 0x0, symName: '__ZN4core3ptr59drop_in_place$LT$alloc..boxed..Box$LT$syn..ty..Type$GT$$GT$17hfdcfc83ffb884feaE', symObjAddr: 0x4840, symBinAddr: 0xEB8D0, symSize: 0x50 }
  - { offsetInCU: 0x13980, offset: 0x516076, size: 0x8, addend: 0x0, symName: '__ZN4core3ptr59drop_in_place$LT$alloc..vec..Vec$LT$syn..stmt..Stmt$GT$$GT$17h279570968c738800E', symObjAddr: 0x4890, symBinAddr: 0xEB920, symSize: 0xD0 }
  - { offsetInCU: 0x13C0D, offset: 0x516303, size: 0x8, addend: 0x0, symName: '__ZN4core3ptr61drop_in_place$LT$alloc..boxed..Box$LT$syn..expr..Expr$GT$$GT$17hd59f20e4896eb10dE', symObjAddr: 0x4960, symBinAddr: 0xEB9F0, symSize: 0x50 }
  - { offsetInCU: 0x13DE4, offset: 0x5164DA, size: 0x8, addend: 0x0, symName: '__ZN4core3ptr61drop_in_place$LT$syn..path..ParenthesizedGenericArguments$GT$17h2cb12f9d921fc247E', symObjAddr: 0x49B0, symBinAddr: 0xEBA40, symSize: 0x170 }
  - { offsetInCU: 0x143AB, offset: 0x516AA1, size: 0x8, addend: 0x0, symName: '__ZN4core3ptr63drop_in_place$LT$alloc..boxed..Box$LT$syn..lit..LitRepr$GT$$GT$17ha0c79af03c778e78E', symObjAddr: 0x4B20, symBinAddr: 0xEBBB0, symSize: 0x60 }
  - { offsetInCU: 0x146A0, offset: 0x516D96, size: 0x8, addend: 0x0, symName: '__ZN4core3ptr64drop_in_place$LT$alloc..boxed..Box$LT$syn..pat..FieldPat$GT$$GT$17h4cf97b08e30ccd11E', symObjAddr: 0x4B80, symBinAddr: 0xEBC10, symSize: 0x100 }
  - { offsetInCU: 0x14CBB, offset: 0x5173B1, size: 0x8, addend: 0x0, symName: '__ZN4core3ptr64drop_in_place$LT$alloc..boxed..Box$LT$syn..ty..BareFnArg$GT$$GT$17h5ed4e7eb5288ceaeE', symObjAddr: 0x4C80, symBinAddr: 0xEBD10, symSize: 0xE0 }
  - { offsetInCU: 0x15141, offset: 0x517837, size: 0x8, addend: 0x0, symName: '__ZN4core3ptr64drop_in_place$LT$alloc..vec..Vec$LT$syn..attr..Attribute$GT$$GT$17h00ca1a13bf29cbb7E.llvm.6648508862672840581', symObjAddr: 0x4D60, symBinAddr: 0xEBDF0, symSize: 0x60 }
  - { offsetInCU: 0x15336, offset: 0x517A2C, size: 0x8, addend: 0x0, symName: '__ZN4core3ptr65drop_in_place$LT$core..option..Option$LT$syn..expr..Label$GT$$GT$17hdfb87f4e56640098E', symObjAddr: 0x4DC0, symBinAddr: 0xEBE50, symSize: 0x30 }
  - { offsetInCU: 0x15471, offset: 0x517B67, size: 0x8, addend: 0x0, symName: '__ZN4core3ptr65drop_in_place$LT$core..option..Option$LT$syn..path..QSelf$GT$$GT$17h1f0245c1a4935233E', symObjAddr: 0x4DF0, symBinAddr: 0xEBE80, symSize: 0x50 }
  - { offsetInCU: 0x155F4, offset: 0x517CEA, size: 0x8, addend: 0x0, symName: '__ZN4core3ptr66drop_in_place$LT$core..option..Option$LT$syn..ty..Variadic$GT$$GT$17h027f0e707b91e4beE', symObjAddr: 0x4E40, symBinAddr: 0xEBED0, symSize: 0x80 }
  - { offsetInCU: 0x1584A, offset: 0x517F40, size: 0x8, addend: 0x0, symName: '__ZN4core3ptr67drop_in_place$LT$alloc..boxed..Box$LT$syn..expr..FieldValue$GT$$GT$17ha1d27993e02226e2E', symObjAddr: 0x4EC0, symBinAddr: 0xEBF50, symSize: 0xF0 }
  - { offsetInCU: 0x15CDB, offset: 0x5183D1, size: 0x8, addend: 0x0, symName: '__ZN4core3ptr68drop_in_place$LT$alloc..boxed..Box$LT$syn..path..PathSegment$GT$$GT$17h0310b89ad60fe4d7E', symObjAddr: 0x4FB0, symBinAddr: 0xEC040, symSize: 0x190 }
  - { offsetInCU: 0x163B9, offset: 0x518AAF, size: 0x8, addend: 0x0, symName: '__ZN4core3ptr72drop_in_place$LT$alloc..boxed..Box$LT$syn..path..GenericArgument$GT$$GT$17h2b3c5c0d616472a1E', symObjAddr: 0x5140, symBinAddr: 0xEC1D0, symSize: 0xF0 }
  - { offsetInCU: 0x16830, offset: 0x518F26, size: 0x8, addend: 0x0, symName: '__ZN4core3ptr72drop_in_place$LT$core..option..Option$LT$syn..lifetime..Lifetime$GT$$GT$17h406663184fba9f2fE', symObjAddr: 0x5230, symBinAddr: 0xEC2C0, symSize: 0x30 }
  - { offsetInCU: 0x1694C, offset: 0x519042, size: 0x8, addend: 0x0, symName: '__ZN4core3ptr75drop_in_place$LT$alloc..boxed..Box$LT$syn..generics..TypeParamBound$GT$$GT$17hcf1c09bccd64c785E', symObjAddr: 0x5260, symBinAddr: 0xEC2F0, symSize: 0x90 }
  - { offsetInCU: 0x16C8E, offset: 0x519384, size: 0x8, addend: 0x0, symName: '__ZN4core3ptr78drop_in_place$LT$core..option..Option$LT$syn..generics..BoundLifetimes$GT$$GT$17hc74a275f958fb9a1E', symObjAddr: 0x52F0, symBinAddr: 0xEC380, symSize: 0xE0 }
  - { offsetInCU: 0x16F72, offset: 0x519668, size: 0x8, addend: 0x0, symName: '__ZN4core3ptr86drop_in_place$LT$syn..punctuated..Punctuated$LT$syn..pat..Pat$C$syn..token..Or$GT$$GT$17h13896407bc2c03e4E', symObjAddr: 0x53D0, symBinAddr: 0xEC460, symSize: 0x120 }
  - { offsetInCU: 0x173B8, offset: 0x519AAE, size: 0x8, addend: 0x0, symName: '__ZN4core3ptr87drop_in_place$LT$core..option..Option$LT$alloc..boxed..Box$LT$syn..pat..Pat$GT$$GT$$GT$17h5bd93a2021c10f20E', symObjAddr: 0x54F0, symBinAddr: 0xEC580, symSize: 0x50 }
  - { offsetInCU: 0x1752A, offset: 0x519C20, size: 0x8, addend: 0x0, symName: '__ZN4core3ptr87drop_in_place$LT$core..option..Option$LT$alloc..boxed..Box$LT$syn..ty..Type$GT$$GT$$GT$17h6936d17ab80112d1E', symObjAddr: 0x5540, symBinAddr: 0xEC5D0, symSize: 0x50 }
  - { offsetInCU: 0x1769C, offset: 0x519D92, size: 0x8, addend: 0x0, symName: '__ZN4core3ptr89drop_in_place$LT$core..option..Option$LT$alloc..boxed..Box$LT$syn..expr..Expr$GT$$GT$$GT$17h9285f9bb32cfe7feE', symObjAddr: 0x5590, symBinAddr: 0xEC620, symSize: 0x50 }
  - { offsetInCU: 0x1784C, offset: 0x519F42, size: 0x8, addend: 0x0, symName: '__ZN4core3ptr89drop_in_place$LT$syn..punctuated..Punctuated$LT$syn..pat..Pat$C$syn..token..Comma$GT$$GT$17h7cc94aacc194d79fE', symObjAddr: 0x55E0, symBinAddr: 0xEC670, symSize: 0x120 }
  - { offsetInCU: 0x17CA9, offset: 0x51A39F, size: 0x8, addend: 0x0, symName: '__ZN4core3ptr89drop_in_place$LT$syn..punctuated..Punctuated$LT$syn..ty..Type$C$syn..token..Comma$GT$$GT$17h97ea2b625b494840E', symObjAddr: 0x5700, symBinAddr: 0xEC790, symSize: 0x120 }
  - { offsetInCU: 0x180F3, offset: 0x51A7E9, size: 0x8, addend: 0x0, symName: '__ZN4core3ptr91drop_in_place$LT$syn..punctuated..Punctuated$LT$syn..expr..Expr$C$syn..token..Comma$GT$$GT$17h89eb145173101a03E', symObjAddr: 0x5820, symBinAddr: 0xEC8B0, symSize: 0x120 }
  - { offsetInCU: 0x1853D, offset: 0x51AC33, size: 0x8, addend: 0x0, symName: '__ZN4core3ptr94drop_in_place$LT$syn..punctuated..Punctuated$LT$syn..pat..FieldPat$C$syn..token..Comma$GT$$GT$17hdbbfc15c48c312e3E', symObjAddr: 0x5940, symBinAddr: 0xEC9D0, symSize: 0xF0 }
  - { offsetInCU: 0x18807, offset: 0x51AEFD, size: 0x8, addend: 0x0, symName: '__ZN4core3ptr94drop_in_place$LT$syn..punctuated..Punctuated$LT$syn..ty..BareFnArg$C$syn..token..Comma$GT$$GT$17h4e6d5a703b32a850E', symObjAddr: 0x5A30, symBinAddr: 0xECAC0, symSize: 0xF0 }
  - { offsetInCU: 0x18AD1, offset: 0x51B1C7, size: 0x8, addend: 0x0, symName: '__ZN4core3ptr96drop_in_place$LT$core..option..Option$LT$alloc..boxed..Box$LT$syn..path..PathSegment$GT$$GT$$GT$17he2148fc749fa4ba5E', symObjAddr: 0x5B20, symBinAddr: 0xECBB0, symSize: 0x180 }
  - { offsetInCU: 0x19162, offset: 0x51B858, size: 0x8, addend: 0x0, symName: '__ZN4core3ptr97drop_in_place$LT$syn..punctuated..Punctuated$LT$syn..expr..FieldValue$C$syn..token..Comma$GT$$GT$17h32c10a095b2e74c7E', symObjAddr: 0x5CA0, symBinAddr: 0xECD30, symSize: 0xF0 }
  - { offsetInCU: 0x194A8, offset: 0x51BB9E, size: 0x8, addend: 0x0, symName: '__ZN4core3ptr97drop_in_place$LT$syn..punctuated..Punctuated$LT$syn..lifetime..Lifetime$C$syn..token..Add$GT$$GT$17h75f9c8a38e93dfefE', symObjAddr: 0x5D90, symBinAddr: 0xECE20, symSize: 0xC0 }
  - { offsetInCU: 0x19920, offset: 0x51C016, size: 0x8, addend: 0x0, symName: '__ZN4core3ptr99drop_in_place$LT$syn..punctuated..Punctuated$LT$syn..path..PathSegment$C$syn..token..Colon2$GT$$GT$17hdafb3e0018003811E', symObjAddr: 0x5E50, symBinAddr: 0xECEE0, symSize: 0x250 }
  - { offsetInCU: 0x22BBA, offset: 0x5252B0, size: 0x8, addend: 0x0, symName: '__ZN3syn4expr8printing83_$LT$impl$u20$quote..to_tokens..ToTokens$u20$for$u20$syn..expr..MethodTurbofish$GT$9to_tokens17hbce0a1eefddd9126E', symObjAddr: 0xE4F0, symBinAddr: 0xF3F40, symSize: 0x140 }
  - { offsetInCU: 0x233E4, offset: 0x525ADA, size: 0x8, addend: 0x0, symName: '__ZN3syn4expr8printing79_$LT$impl$u20$quote..to_tokens..ToTokens$u20$for$u20$syn..expr..ExprClosure$GT$9to_tokens17h6cfeec4bca01421cE', symObjAddr: 0xFF00, symBinAddr: 0xF4080, symSize: 0x330 }
  - { offsetInCU: 0x23F73, offset: 0x526669, size: 0x8, addend: 0x0, symName: '__ZN3syn4expr8printing73_$LT$impl$u20$quote..to_tokens..ToTokens$u20$for$u20$syn..expr..Index$GT$9to_tokens17h43f29ee3162579f9E', symObjAddr: 0x10820, symBinAddr: 0xF4480, symSize: 0xB0 }
