---
triple:          'x86_64-apple-darwin'
binary-path:     "/Users/justinlanouette/Chaos/ChaöS-Token/hello_world/target/release/build/typenum-b8d866ece6087870/build_script_main-b8d866ece6087870"
relocations:
  - { offsetInCU: 0x1E, offset: 0x1E, size: 0x8, addend: 0x0, symName: '__ZN4core3ptr39drop_in_place$LT$std..env..VarError$GT$17hc7884e22c5677c05E', symObjAddr: 0x0, symBinAddr: 0x100002120, symSize: 0x30 }
  - { offsetInCU: 0x41D, offset: 0x41D, size: 0x8, addend: 0x0, symName: '__ZN55_$LT$std..env..VarError$u20$as$u20$core..fmt..Debug$GT$3fmt17hf9237b4ce8a4fbe3E', symObjAddr: 0x1D0, symBinAddr: 0x1000022F0, symSize: 0x50 }
  - { offsetInCU: 0x480, offset: 0x480, size: 0x8, addend: 0x0, symName: '__ZN57_$LT$std..env..VarError$u20$as$u20$core..error..Error$GT$11description17hcc8f917dbf2242c5E', symObjAddr: 0x250, symBinAddr: 0x100002370, symSize: 0x30 }
  - { offsetInCU: 0xB91, offset: 0xB91, size: 0x8, addend: 0x0, symName: '__ZN60_$LT$alloc..string..String$u20$as$u20$core..fmt..Display$GT$3fmt17hc365578c40090489E', symObjAddr: 0x280, symBinAddr: 0x1000023A0, symSize: 0x20 }
  - { offsetInCU: 0x114F, offset: 0x114F, size: 0x8, addend: 0x0, symName: '__ZN4core3ptr39drop_in_place$LT$std..env..VarError$GT$17hc7884e22c5677c05E', symObjAddr: 0x0, symBinAddr: 0x100002120, symSize: 0x30 }
  - { offsetInCU: 0x13D5, offset: 0x13D5, size: 0x8, addend: 0x0, symName: '__ZN4core3ptr42drop_in_place$LT$std..io..error..Error$GT$17he410699deba07341E', symObjAddr: 0x30, symBinAddr: 0x100002150, symSize: 0xB0 }
  - { offsetInCU: 0x183C, offset: 0x183C, size: 0x8, addend: 0x0, symName: '__ZN4core3ptr51drop_in_place$LT$$RF$std..ffi..os_str..OsString$GT$17h31fbc77b6275515cE', symObjAddr: 0xE0, symBinAddr: 0x100002200, symSize: 0x10 }
  - { offsetInCU: 0x1887, offset: 0x1887, size: 0x8, addend: 0x0, symName: '__ZN4core3ptr73drop_in_place$LT$alloc..boxed..Box$LT$build_script_main..UIntCode$GT$$GT$17h506ef8123c16b243E', symObjAddr: 0xF0, symBinAddr: 0x100002210, symSize: 0x50 }
  - { offsetInCU: 0x1A12, offset: 0x1A12, size: 0x8, addend: 0x0, symName: '__ZN4core3ptr85drop_in_place$LT$std..io..buffered..bufwriter..BufWriter$LT$$RF$std..fs..File$GT$$GT$17h722ee0afa823c735E', symObjAddr: 0x140, symBinAddr: 0x100002260, symSize: 0x70 }
  - { offsetInCU: 0x1FA3, offset: 0x1FA3, size: 0x8, addend: 0x0, symName: '__ZN56_$LT$core..cmp..Ordering$u20$as$u20$core..fmt..Debug$GT$3fmt17hd308aef84e4e0110E', symObjAddr: 0x220, symBinAddr: 0x100002340, symSize: 0x30 }
  - { offsetInCU: 0x28F2, offset: 0x28F2, size: 0x8, addend: 0x0, symName: __ZN4core5error5Error6source17h01068ebda8a22255E, symObjAddr: 0x1B0, symBinAddr: 0x1000022D0, symSize: 0x10 }
  - { offsetInCU: 0x2924, offset: 0x2924, size: 0x8, addend: 0x0, symName: __ZN4core5error5Error7provide17h67f8263fcecf8d9fE, symObjAddr: 0x1C0, symBinAddr: 0x1000022E0, symSize: 0x10 }
  - { offsetInCU: 0x4635, offset: 0x4635, size: 0x8, addend: 0x0, symName: '__ZN73_$LT$build_script_main..tests..UIntTest$u20$as$u20$core..fmt..Display$GT$3fmt17h579ee2ef52f41499E', symObjAddr: 0x2A0, symBinAddr: 0x1000023C0, symSize: 0x8A0 }
  - { offsetInCU: 0x48A6, offset: 0x48A6, size: 0x8, addend: 0x0, symName: '__ZN78_$LT$build_script_main..tests..IntBinaryTest$u20$as$u20$core..fmt..Display$GT$3fmt17ha870b1811c58c5ddE', symObjAddr: 0xB40, symBinAddr: 0x100002C60, symSize: 0x890 }
  - { offsetInCU: 0x4A8E, offset: 0x4A8E, size: 0x8, addend: 0x0, symName: '__ZN77_$LT$build_script_main..tests..IntUnaryTest$u20$as$u20$core..fmt..Display$GT$3fmt17hfbbd81a87357a184E', symObjAddr: 0x13D0, symBinAddr: 0x1000034F0, symSize: 0x5B0 }
  - { offsetInCU: 0x52B2, offset: 0x52B2, size: 0x8, addend: 0x0, symName: __ZN17build_script_main5tests11build_tests17haa5c1be649e5ed6bE, symObjAddr: 0x1980, symBinAddr: 0x100003AA0, symSize: 0x39BC }
  - { offsetInCU: 0x1E, offset: 0xCB93, size: 0x8, addend: 0x0, symName: '__ZN4core3ptr39drop_in_place$LT$std..env..VarError$GT$17hc7884e22c5677c05E', symObjAddr: 0x0, symBinAddr: 0x100007460, symSize: 0x30 }
  - { offsetInCU: 0x387, offset: 0xCEFC, size: 0x8, addend: 0x0, symName: '__ZN55_$LT$std..env..VarError$u20$as$u20$core..fmt..Debug$GT$3fmt17hf9237b4ce8a4fbe3E', symObjAddr: 0x170, symBinAddr: 0x1000075D0, symSize: 0x50 }
  - { offsetInCU: 0x8E4, offset: 0xD459, size: 0x8, addend: 0x0, symName: '__ZN4core3ptr39drop_in_place$LT$std..env..VarError$GT$17hc7884e22c5677c05E', symObjAddr: 0x0, symBinAddr: 0x100007460, symSize: 0x30 }
  - { offsetInCU: 0xB6A, offset: 0xD6DF, size: 0x8, addend: 0x0, symName: '__ZN4core3ptr42drop_in_place$LT$std..io..error..Error$GT$17he410699deba07341E', symObjAddr: 0x30, symBinAddr: 0x100007490, symSize: 0xB0 }
  - { offsetInCU: 0xFD1, offset: 0xDB46, size: 0x8, addend: 0x0, symName: '__ZN4core3ptr51drop_in_place$LT$$RF$std..ffi..os_str..OsString$GT$17h31fbc77b6275515cE', symObjAddr: 0xE0, symBinAddr: 0x100007540, symSize: 0x10 }
  - { offsetInCU: 0x101C, offset: 0xDB91, size: 0x8, addend: 0x0, symName: '__ZN4core3ptr65drop_in_place$LT$alloc..vec..Vec$LT$alloc..string..String$GT$$GT$17h66111cba36194877E', symObjAddr: 0xF0, symBinAddr: 0x100007550, symSize: 0x80 }
  - { offsetInCU: 0x2A2B, offset: 0xF5A0, size: 0x8, addend: 0x0, symName: '__ZN60_$LT$alloc..string..String$u20$as$u20$core..fmt..Display$GT$3fmt17hc365578c40090489E', symObjAddr: 0x1C0, symBinAddr: 0x100007620, symSize: 0x20 }
  - { offsetInCU: 0x2EA0, offset: 0xFA15, size: 0x8, addend: 0x0, symName: __ZN17build_script_main2op14write_op_macro17h81a7aeecc02b817aE, symObjAddr: 0x1E0, symBinAddr: 0x100007640, symSize: 0x12D4 }
  - { offsetInCU: 0x1E, offset: 0x1329F, size: 0x8, addend: 0x0, symName: '__ZN4core3ptr39drop_in_place$LT$std..env..VarError$GT$17hc7884e22c5677c05E', symObjAddr: 0x0, symBinAddr: 0x100008920, symSize: 0x30 }
  - { offsetInCU: 0x387, offset: 0x13608, size: 0x8, addend: 0x0, symName: '__ZN55_$LT$std..env..VarError$u20$as$u20$core..fmt..Debug$GT$3fmt17hf9237b4ce8a4fbe3E', symObjAddr: 0x1D0, symBinAddr: 0x100008AF0, symSize: 0x50 }
  - { offsetInCU: 0x90B, offset: 0x13B8C, size: 0x8, addend: 0x0, symName: '__ZN4core3ptr39drop_in_place$LT$std..env..VarError$GT$17hc7884e22c5677c05E', symObjAddr: 0x0, symBinAddr: 0x100008920, symSize: 0x30 }
  - { offsetInCU: 0xB91, offset: 0x13E12, size: 0x8, addend: 0x0, symName: '__ZN4core3ptr42drop_in_place$LT$std..io..error..Error$GT$17he410699deba07341E', symObjAddr: 0x30, symBinAddr: 0x100008950, symSize: 0xB0 }
  - { offsetInCU: 0x1017, offset: 0x14298, size: 0x8, addend: 0x0, symName: '__ZN4core3ptr48drop_in_place$LT$build_script_main..UIntCode$GT$17hcbc95af72ff5e32dE.llvm.2327727042279654691', symObjAddr: 0xE0, symBinAddr: 0x100008A00, symSize: 0x70 }
  - { offsetInCU: 0x10DC, offset: 0x1435D, size: 0x8, addend: 0x0, symName: '__ZN4core3ptr51drop_in_place$LT$$RF$std..ffi..os_str..OsString$GT$17h31fbc77b6275515cE', symObjAddr: 0x150, symBinAddr: 0x100008A70, symSize: 0x10 }
  - { offsetInCU: 0x1108, offset: 0x14389, size: 0x8, addend: 0x0, symName: '__ZN4core3ptr72drop_in_place$LT$alloc..boxed..Box$LT$dyn$u20$core..error..Error$GT$$GT$17h489610ca867fb939E', symObjAddr: 0x160, symBinAddr: 0x100008A80, symSize: 0x70 }
  - { offsetInCU: 0x29BD, offset: 0x15C3E, size: 0x8, addend: 0x0, symName: '__ZN66_$LT$build_script_main..UIntCode$u20$as$u20$core..fmt..Display$GT$3fmt17h7ce0ec6b24895822E', symObjAddr: 0x220, symBinAddr: 0x100008B40, symSize: 0xC0 }
  - { offsetInCU: 0x2AC3, offset: 0x15D44, size: 0x8, addend: 0x0, symName: '__ZN65_$LT$build_script_main..IntCode$u20$as$u20$core..fmt..Display$GT$3fmt17h1e73a20a9e4dc918E', symObjAddr: 0x2E0, symBinAddr: 0x100008C00, symSize: 0xC0 }
  - { offsetInCU: 0x2BC4, offset: 0x15E45, size: 0x8, addend: 0x0, symName: __ZN17build_script_main8gen_uint17h7e3ceb0f286fdb99E, symObjAddr: 0x3A0, symBinAddr: 0x100008CC0, symSize: 0x120 }
  - { offsetInCU: 0x2E2F, offset: 0x160B0, size: 0x8, addend: 0x0, symName: __ZN17build_script_main7gen_int17h5f2b018f0593341bE, symObjAddr: 0x4C0, symBinAddr: 0x100008DE0, symSize: 0x110 }
  - { offsetInCU: 0x310A, offset: 0x1638B, size: 0x8, addend: 0x0, symName: __ZN17build_script_main4main17h999752543c7206e5E, symObjAddr: 0x5D0, symBinAddr: 0x100008EF0, symSize: 0xA80 }
  - { offsetInCU: 0x1E, offset: 0x184F4, size: 0x8, addend: 0x0, symName: __ZN5alloc7raw_vec11finish_grow17h4acf84dd31ed6069E.llvm.2414472355321695146, symObjAddr: 0x0, symBinAddr: 0x100009990, symSize: 0xA0 }
  - { offsetInCU: 0xC63, offset: 0x19139, size: 0x8, addend: 0x0, symName: __ZN5alloc7raw_vec11finish_grow17h4acf84dd31ed6069E.llvm.2414472355321695146, symObjAddr: 0x0, symBinAddr: 0x100009990, symSize: 0xA0 }
  - { offsetInCU: 0xFAB, offset: 0x19481, size: 0x8, addend: 0x0, symName: '__ZN5alloc7raw_vec19RawVec$LT$T$C$A$GT$7reserve21do_reserve_and_handle17hc1c60c9155ba4481E', symObjAddr: 0x270, symBinAddr: 0x1000486C0, symSize: 0xB0 }
  - { offsetInCU: 0x35, offset: 0x19D81, size: 0x8, addend: 0x0, symName: _anon.fa03c7af27b0dc32f21d1e52e7c4b57c.6.llvm.5109620016133743332, symObjAddr: 0x468, symBinAddr: 0x100059738, symSize: 0x0 }
  - { offsetInCU: 0xE3, offset: 0x19E2F, size: 0x8, addend: 0x0, symName: __ZN3std2io5Write9write_all17h7a99ed53cad1b9c8E, symObjAddr: 0x50, symBinAddr: 0x100009A30, symSize: 0xF0 }
  - { offsetInCU: 0x35D, offset: 0x1A0A9, size: 0x8, addend: 0x0, symName: __ZN3std2io5Write9write_all17ha5032d982b402b37E, symObjAddr: 0x140, symBinAddr: 0x100009B20, symSize: 0xF0 }
  - { offsetInCU: 0x5D7, offset: 0x1A323, size: 0x8, addend: 0x0, symName: __ZN3std2io5Write9write_fmt17h10ba4bb45ce8c073E, symObjAddr: 0x230, symBinAddr: 0x100009C10, symSize: 0x90 }
  - { offsetInCU: 0x183A, offset: 0x1B586, size: 0x8, addend: 0x0, symName: '__ZN4core3ptr42drop_in_place$LT$std..io..error..Error$GT$17he410699deba07341E.llvm.5109620016133743332', symObjAddr: 0x2C0, symBinAddr: 0x100009CA0, symSize: 0xA0 }
  - { offsetInCU: 0x1C9D, offset: 0x1B9E9, size: 0x8, addend: 0x0, symName: '__ZN4core3ptr76drop_in_place$LT$std..io..Write..write_fmt..Adapter$LT$std..fs..File$GT$$GT$17hf4371dd3a6a8354bE.llvm.5109620016133743332', symObjAddr: 0x360, symBinAddr: 0x100009D40, symSize: 0x15 }
  - { offsetInCU: 0x1E, offset: 0x1C552, size: 0x8, addend: 0x0, symName: __ZN4core3fmt5Write10write_char17h5e55389d3f24329dE, symObjAddr: 0x0, symBinAddr: 0x100009D60, symSize: 0x100 }
  - { offsetInCU: 0x131, offset: 0x1C665, size: 0x8, addend: 0x0, symName: '__ZN80_$LT$std..io..Write..write_fmt..Adapter$LT$T$GT$$u20$as$u20$core..fmt..Write$GT$9write_str17h57224c346ddfe37cE', symObjAddr: 0x340, symBinAddr: 0x10000A0A0, symSize: 0x80 }
  - { offsetInCU: 0x340, offset: 0x1C874, size: 0x8, addend: 0x0, symName: '__ZN80_$LT$std..io..Write..write_fmt..Adapter$LT$T$GT$$u20$as$u20$core..fmt..Write$GT$9write_str17hf33e4d903de320f1E', symObjAddr: 0x3C0, symBinAddr: 0x10000A120, symSize: 0x3E }
  - { offsetInCU: 0xE54, offset: 0x1D388, size: 0x8, addend: 0x0, symName: '__ZN4core3ptr127drop_in_place$LT$std..io..Write..write_fmt..Adapter$LT$std..io..buffered..bufwriter..BufWriter$LT$$RF$std..fs..File$GT$$GT$$GT$17h6685fcc0bf2435fbE', symObjAddr: 0x280, symBinAddr: 0x100009FE0, symSize: 0x10 }
  - { offsetInCU: 0xF3E, offset: 0x1D472, size: 0x8, addend: 0x0, symName: '__ZN4core3ptr81drop_in_place$LT$core..result..Result$LT$$LP$$RP$$C$std..io..error..Error$GT$$GT$17he556a591d9897219E', symObjAddr: 0x290, symBinAddr: 0x100009FF0, symSize: 0xB0 }
  - { offsetInCU: 0x1611, offset: 0x1DB45, size: 0x8, addend: 0x0, symName: __ZN4core3fmt5Write10write_char17h5e55389d3f24329dE, symObjAddr: 0x0, symBinAddr: 0x100009D60, symSize: 0x100 }
  - { offsetInCU: 0x173E, offset: 0x1DC72, size: 0x8, addend: 0x0, symName: __ZN4core3fmt5Write10write_char17h6bc1f635bd0ddfcaE, symObjAddr: 0x100, symBinAddr: 0x100009E60, symSize: 0x140 }
  - { offsetInCU: 0x1AB1, offset: 0x1DFE5, size: 0x8, addend: 0x0, symName: __ZN4core3fmt5Write9write_fmt17h9c9418e373ba480eE, symObjAddr: 0x240, symBinAddr: 0x100009FA0, symSize: 0x20 }
  - { offsetInCU: 0x1B19, offset: 0x1E04D, size: 0x8, addend: 0x0, symName: __ZN4core3fmt5Write9write_fmt17ha2e8ba788eeee8bfE, symObjAddr: 0x260, symBinAddr: 0x100009FC0, symSize: 0x20 }
  - { offsetInCU: 0x1E, offset: 0x1E91D, size: 0x8, addend: 0x0, symName: __ZN3std2io5Write9write_fmt17h056e20f99d2f2b4aE, symObjAddr: 0x0, symBinAddr: 0x10000A160, symSize: 0x90 }
  - { offsetInCU: 0x35, offset: 0x1E934, size: 0x8, addend: 0x0, symName: _anon.7f3bf0cb08aee75148869de253a81bf1.2.llvm.3848816002385950630, symObjAddr: 0x460, symBinAddr: 0x1000597E0, symSize: 0x0 }
  - { offsetInCU: 0xE3, offset: 0x1E9E2, size: 0x8, addend: 0x0, symName: __ZN3std2io5Write9write_fmt17h056e20f99d2f2b4aE, symObjAddr: 0x0, symBinAddr: 0x10000A160, symSize: 0x90 }
  - { offsetInCU: 0x14E7, offset: 0x1FDE6, size: 0x8, addend: 0x0, symName: '__ZN4core3ptr127drop_in_place$LT$std..io..Write..write_fmt..Adapter$LT$std..io..buffered..bufwriter..BufWriter$LT$$RF$std..fs..File$GT$$GT$$GT$17h6685fcc0bf2435fbE.llvm.3848816002385950630', symObjAddr: 0x2E0, symBinAddr: 0x10000A340, symSize: 0x20 }
  - { offsetInCU: 0x15B4, offset: 0x1FEB3, size: 0x8, addend: 0x0, symName: '__ZN4core3ptr42drop_in_place$LT$std..io..error..Error$GT$17he410699deba07341E.llvm.3848816002385950630', symObjAddr: 0x300, symBinAddr: 0x10000A360, symSize: 0xA0 }
  - { offsetInCU: 0x2323, offset: 0x20C22, size: 0x8, addend: 0x0, symName: '__ZN3std2io8buffered9bufwriter18BufWriter$LT$W$GT$14write_all_cold17h2f1beca929faf087E', symObjAddr: 0x110, symBinAddr: 0x100048770, symSize: 0x80 }
  - { offsetInCU: 0x26AE, offset: 0x20FAD, size: 0x8, addend: 0x0, symName: '__ZN3std2io8buffered9bufwriter18BufWriter$LT$W$GT$9flush_buf17h9f2d63dabe7e81f5E.llvm.3848816002385950630', symObjAddr: 0x190, symBinAddr: 0x10000A1F0, symSize: 0x150 }
  - { offsetInCU: 0x1E, offset: 0x214C3, size: 0x8, addend: 0x0, symName: __ZN5alloc3str17join_generic_copy17h2e74ee4829c654e2E, symObjAddr: 0x0, symBinAddr: 0x10000A400, symSize: 0x448 }
  - { offsetInCU: 0xB06, offset: 0x21FAB, size: 0x8, addend: 0x0, symName: __ZN5alloc3str17join_generic_copy17h2e74ee4829c654e2E, symObjAddr: 0x0, symBinAddr: 0x10000A400, symSize: 0x448 }
  - { offsetInCU: 0x7F6, offset: 0x25009, size: 0x8, addend: 0x0, symName: '__ZN98_$LT$alloc..vec..Vec$LT$T$GT$$u20$as$u20$alloc..vec..spec_from_iter..SpecFromIter$LT$T$C$I$GT$$GT$9from_iter17hca3832ec433a0ed9E', symObjAddr: 0xC0, symBinAddr: 0x10000A850, symSize: 0x1B1 }
  - { offsetInCU: 0x1E, offset: 0x2651E, size: 0x8, addend: 0x0, symName: __ZN3std2rt10lang_start17h49bb6d5918a2069cE, symObjAddr: 0x0, symBinAddr: 0x10000AA10, symSize: 0x30 }
  - { offsetInCU: 0x5B, offset: 0x2655B, size: 0x8, addend: 0x0, symName: '__ZN3std2rt10lang_start28_$u7b$$u7b$closure$u7d$$u7d$17h6861bc9001182710E', symObjAddr: 0x30, symBinAddr: 0x10000AA40, symSize: 0x10 }
  - { offsetInCU: 0x9F, offset: 0x2659F, size: 0x8, addend: 0x0, symName: __ZN3std2rt10lang_start17h49bb6d5918a2069cE, symObjAddr: 0x0, symBinAddr: 0x10000AA10, symSize: 0x30 }
  - { offsetInCU: 0x15E, offset: 0x2665E, size: 0x8, addend: 0x0, symName: '__ZN4core3ops8function6FnOnce40call_once$u7b$$u7b$vtable.shim$u7d$$u7d$17hf1594fa2fd2afb9dE', symObjAddr: 0x40, symBinAddr: 0x10000AA50, symSize: 0x10 }
  - { offsetInCU: 0x1D8, offset: 0x266D8, size: 0x8, addend: 0x0, symName: '__ZN4core3ptr85drop_in_place$LT$std..rt..lang_start$LT$$LP$$RP$$GT$..$u7b$$u7b$closure$u7d$$u7d$$GT$17h42967e2869d70d5dE', symObjAddr: 0x50, symBinAddr: 0x10000AA60, symSize: 0x6 }
  - { offsetInCU: 0xD4, offset: 0x2680F, size: 0x8, addend: 0x0, symName: __ZN4core5error5Error5cause17ha6de0433d4940187E, symObjAddr: 0x20, symBinAddr: 0x10000AA70, symSize: 0x10 }
  - { offsetInCU: 0x108, offset: 0x26843, size: 0x8, addend: 0x0, symName: __ZN4core5error5Error7type_id17h5cd96120fa4ffd9bE, symObjAddr: 0x30, symBinAddr: 0x10000AA80, symSize: 0x1A }
  - { offsetInCU: 0x1E, offset: 0x26AA3, size: 0x8, addend: 0x0, symName: '__ZN44_$LT$$RF$T$u20$as$u20$core..fmt..Display$GT$3fmt17hf4bcde70d6df32f8E', symObjAddr: 0x0, symBinAddr: 0x10000AAA0, symSize: 0x10 }
  - { offsetInCU: 0xB5, offset: 0x26B3A, size: 0x8, addend: 0x0, symName: '__ZN44_$LT$$RF$T$u20$as$u20$core..fmt..Display$GT$3fmt17hf4bcde70d6df32f8E', symObjAddr: 0x0, symBinAddr: 0x10000AAA0, symSize: 0x10 }
  - { offsetInCU: 0x258, offset: 0x26CDD, size: 0x8, addend: 0x0, symName: '__ZN67_$LT$alloc..boxed..Box$LT$T$C$A$GT$$u20$as$u20$core..fmt..Debug$GT$3fmt17h21bae56f90db45f4E', symObjAddr: 0x10, symBinAddr: 0x10000AAB0, symSize: 0x15 }
  - { offsetInCU: 0x1E, offset: 0x26EAD, size: 0x8, addend: 0x0, symName: __ZN4core5error5Error7type_id17he81912bc317e1521E, symObjAddr: 0x0, symBinAddr: 0x10000AAD0, symSize: 0x1A }
  - { offsetInCU: 0x285, offset: 0x27114, size: 0x8, addend: 0x0, symName: __ZN4core5error5Error7type_id17he81912bc317e1521E, symObjAddr: 0x0, symBinAddr: 0x10000AAD0, symSize: 0x1A }
  - { offsetInCU: 0x1E, offset: 0x2729B, size: 0x8, addend: 0x0, symName: __ZN3std10sys_common9backtrace28__rust_begin_short_backtrace17hc8dd8616020d76e8E, symObjAddr: 0x0, symBinAddr: 0x10000AAF0, symSize: 0x8 }
  - { offsetInCU: 0xBF, offset: 0x2733C, size: 0x8, addend: 0x0, symName: __ZN3std10sys_common9backtrace28__rust_begin_short_backtrace17hc8dd8616020d76e8E, symObjAddr: 0x0, symBinAddr: 0x10000AAF0, symSize: 0x8 }
  - { offsetInCU: 0x1E, offset: 0x273E1, size: 0x8, addend: 0x0, symName: '__ZN44_$LT$$RF$T$u20$as$u20$core..fmt..Display$GT$3fmt17h85ccf9a8cedaca17E', symObjAddr: 0x0, symBinAddr: 0x10000AB00, symSize: 0x17 }
  - { offsetInCU: 0x64, offset: 0x27427, size: 0x8, addend: 0x0, symName: '__ZN44_$LT$$RF$T$u20$as$u20$core..fmt..Display$GT$3fmt17h85ccf9a8cedaca17E', symObjAddr: 0x0, symBinAddr: 0x10000AB00, symSize: 0x17 }
  - { offsetInCU: 0x1E, offset: 0x27680, size: 0x8, addend: 0x0, symName: '__ZN42_$LT$$RF$T$u20$as$u20$core..fmt..Debug$GT$3fmt17h7417126213b18e75E', symObjAddr: 0x0, symBinAddr: 0x10000AB20, symSize: 0xD }
  - { offsetInCU: 0x64, offset: 0x276C6, size: 0x8, addend: 0x0, symName: '__ZN42_$LT$$RF$T$u20$as$u20$core..fmt..Debug$GT$3fmt17h7417126213b18e75E', symObjAddr: 0x0, symBinAddr: 0x10000AB20, symSize: 0xD }
...
