---
triple:          'x86_64-apple-darwin'
binary-path:     "/Users/justinlanouette/Chaos/ChaöS-Token/hello_world/target/debug/deps/hello_world-5442e9b1bf8d8970"
relocations:
  - { offsetInCU: 0x1E, offset: 0x1E, size: 0x8, addend: 0x0, symName: __ZN11hello_world5tests8it_works17h3253a84bbddc3827E, symObjAddr: 0x0, symBinAddr: 0x100004040, symSize: 0x6A }
  - { offsetInCU: 0x66, offset: 0x66, size: 0x8, addend: 0x0, symName: __ZN11hello_world5tests8it_works17h3253a84bbddc3827E, symObjAddr: 0x0, symBinAddr: 0x100004040, symSize: 0x6A }
  - { offsetInCU: 0x1E, offset: 0x11B, size: 0x8, addend: 0x0, symName: __ZN3std3sys9backtrace28__rust_begin_short_backtrace17hf90f5514c93f8a0fE, symObjAddr: 0x0, symBinAddr: 0x1000040B0, symSize: 0x17 }
  - { offsetInCU: 0x72, offset: 0x16F, size: 0x8, addend: 0x0, symName: __ZN3std3sys9backtrace28__rust_begin_short_backtrace17hf90f5514c93f8a0fE, symObjAddr: 0x0, symBinAddr: 0x1000040B0, symSize: 0x17 }
  - { offsetInCU: 0x1E, offset: 0x207, size: 0x8, addend: 0x0, symName: '__ZN54_$LT$$LP$$RP$$u20$as$u20$std..process..Termination$GT$6report17h3e791a17b369bc87E', symObjAddr: 0x0, symBinAddr: 0x1000040D0, symSize: 0x8 }
  - { offsetInCU: 0x3A, offset: 0x223, size: 0x8, addend: 0x0, symName: '__ZN54_$LT$$LP$$RP$$u20$as$u20$std..process..Termination$GT$6report17h3e791a17b369bc87E', symObjAddr: 0x0, symBinAddr: 0x1000040D0, symSize: 0x8 }
  - { offsetInCU: 0x1E, offset: 0x2D3, size: 0x8, addend: 0x0, symName: __ZN11hello_world3add17h000b0bb12050ad8eE, symObjAddr: 0x0, symBinAddr: 0x1000040E0, symSize: 0x40 }
  - { offsetInCU: 0x30, offset: 0x2E5, size: 0x8, addend: 0x0, symName: __ZN11hello_world3add17h000b0bb12050ad8eE, symObjAddr: 0x0, symBinAddr: 0x1000040E0, symSize: 0x40 }
  - { offsetInCU: 0x6A, offset: 0x31F, size: 0x8, addend: 0x0, symName: __ZN11hello_world4main17h0efd7482fbb164eaE, symObjAddr: 0x1D0, symBinAddr: 0x100004120, symSize: 0x20 }
  - { offsetInCU: 0x1E, offset: 0x38F, size: 0x8, addend: 0x0, symName: __ZN4test18assert_test_result17hfa3c86dc491675bcE, symObjAddr: 0x0, symBinAddr: 0x100004160, symSize: 0x170 }
  - { offsetInCU: 0x9EA, offset: 0xD5B, size: 0x8, addend: 0x0, symName: __ZN4test18assert_test_result17hfa3c86dc491675bcE, symObjAddr: 0x0, symBinAddr: 0x100004160, symSize: 0x170 }
  - { offsetInCU: 0x1E, offset: 0xF21, size: 0x8, addend: 0x0, symName: '__ZN4core3ops8function6FnOnce40call_once$u7b$$u7b$vtable.shim$u7d$$u7d$17hbdb8b16bfe307422E', symObjAddr: 0x0, symBinAddr: 0x1000042D0, symSize: 0x20 }
  - { offsetInCU: 0x3F, offset: 0xF42, size: 0x8, addend: 0x0, symName: '__ZN4core3ops8function6FnOnce40call_once$u7b$$u7b$vtable.shim$u7d$$u7d$17hbdb8b16bfe307422E', symObjAddr: 0x0, symBinAddr: 0x1000042D0, symSize: 0x20 }
  - { offsetInCU: 0x83, offset: 0xF86, size: 0x8, addend: 0x0, symName: __ZN4core3ops8function6FnOnce9call_once17h00e8421630b7a174E, symObjAddr: 0x20, symBinAddr: 0x1000042F0, symSize: 0x40 }
  - { offsetInCU: 0xC7, offset: 0xFCA, size: 0x8, addend: 0x0, symName: __ZN4core3ops8function6FnOnce9call_once17h3f16445446ed0179E, symObjAddr: 0x60, symBinAddr: 0x100004330, symSize: 0x40 }
  - { offsetInCU: 0x10B, offset: 0x100E, size: 0x8, addend: 0x0, symName: __ZN4core3ops8function6FnOnce9call_once17he11b487517b99c5fE, symObjAddr: 0xA0, symBinAddr: 0x100004370, symSize: 0x20 }
  - { offsetInCU: 0x1E, offset: 0x12B9, size: 0x8, addend: 0x0, symName: '__ZN11hello_world5tests8it_works28_$u7b$$u7b$closure$u7d$$u7d$17hf0a778a8f6336593E', symObjAddr: 0x0, symBinAddr: 0x100004390, symSize: 0x2C }
  - { offsetInCU: 0x3A, offset: 0x12D5, size: 0x8, addend: 0x0, symName: '__ZN11hello_world5tests8it_works28_$u7b$$u7b$closure$u7d$$u7d$17hf0a778a8f6336593E', symObjAddr: 0x0, symBinAddr: 0x100004390, symSize: 0x2C }
  - { offsetInCU: 0x1E, offset: 0x1521, size: 0x8, addend: 0x0, symName: __ZN3std2rt10lang_start17hc86d8b5b58e5d3f6E, symObjAddr: 0x0, symBinAddr: 0x1000043C0, symSize: 0x50 }
  - { offsetInCU: 0x48, offset: 0x154B, size: 0x8, addend: 0x0, symName: '__ZN3std2rt10lang_start28_$u7b$$u7b$closure$u7d$$u7d$17h9e13057556cc33d9E', symObjAddr: 0x50, symBinAddr: 0x100004410, symSize: 0x2E }
  - { offsetInCU: 0xD7, offset: 0x15DA, size: 0x8, addend: 0x0, symName: __ZN3std2rt10lang_start17hc86d8b5b58e5d3f6E, symObjAddr: 0x0, symBinAddr: 0x1000043C0, symSize: 0x50 }
  - { offsetInCU: 0xA2, offset: 0x17CB, size: 0x8, addend: 0x0, symName: '__ZN5alloc11collections5btree3map25IntoIter$LT$K$C$V$C$A$GT$10dying_next17h664b0d14d5d2039dE', symObjAddr: 0xFF10, symBinAddr: 0x1000139D0, symSize: 0x400 }
  - { offsetInCU: 0x42A, offset: 0x1B53, size: 0x8, addend: 0x0, symName: '__ZN5alloc11collections5btree3map25IntoIter$LT$K$C$V$C$A$GT$10dying_next17he45f749f55159061E', symObjAddr: 0x10310, symBinAddr: 0x100013DD0, symSize: 0x400 }
  - { offsetInCU: 0x9E7, offset: 0x2110, size: 0x8, addend: 0x0, symName: '__ZN5alloc11collections5btree4node208Handle$LT$alloc..collections..btree..node..NodeRef$LT$alloc..collections..btree..node..marker..Mut$C$K$C$V$C$alloc..collections..btree..node..marker..Leaf$GT$$C$alloc..collections..btree..node..marker..KV$GT$5split17h4bbd3cf6f1a72b7eE', symObjAddr: 0x10710, symBinAddr: 0x1000141D0, symSize: 0x1E0 }
  - { offsetInCU: 0xDD9, offset: 0x2502, size: 0x8, addend: 0x0, symName: '__ZN5alloc11collections5btree4node212Handle$LT$alloc..collections..btree..node..NodeRef$LT$alloc..collections..btree..node..marker..Mut$C$K$C$V$C$alloc..collections..btree..node..marker..Internal$GT$$C$alloc..collections..btree..node..marker..KV$GT$5split17h0ed7f5552e48d92fE', symObjAddr: 0x108F0, symBinAddr: 0x1000143B0, symSize: 0x290 }
  - { offsetInCU: 0x17CA, offset: 0x2EF3, size: 0x8, addend: 0x0, symName: '__ZN5alloc11collections9vec_deque21VecDeque$LT$T$C$A$GT$4grow17hd0269523bd0822daE', symObjAddr: 0x10B80, symBinAddr: 0x100014640, symSize: 0xB0 }
  - { offsetInCU: 0x20F8, offset: 0x3821, size: 0x8, addend: 0x0, symName: '__ZN60_$LT$alloc..string..String$u20$as$u20$core..fmt..Display$GT$3fmt17h0d0eb46f3054e2dfE', symObjAddr: 0x11AF0, symBinAddr: 0x1000152C0, symSize: 0x20 }
  - { offsetInCU: 0x21AA, offset: 0x38D3, size: 0x8, addend: 0x0, symName: __ZN5alloc6string6String9from_utf817h66a5a1a977d347d1E, symObjAddr: 0x11080, symBinAddr: 0x100014B00, symSize: 0xC0 }
  - { offsetInCU: 0x254B, offset: 0x3C74, size: 0x8, addend: 0x0, symName: '__ZN45_$LT$T$u20$as$u20$alloc..string..ToString$GT$9to_string17h293ae99018da3085E', symObjAddr: 0x5030, symBinAddr: 0x100008E90, symSize: 0xD0 }
  - { offsetInCU: 0x272A, offset: 0x3E53, size: 0x8, addend: 0x0, symName: '__ZN58_$LT$alloc..string..String$u20$as$u20$core..fmt..Write$GT$10write_char17h04bc467bd68a934bE', symObjAddr: 0xFD70, symBinAddr: 0x100013830, symSize: 0x140 }
  - { offsetInCU: 0x28C9, offset: 0x3FF2, size: 0x8, addend: 0x0, symName: '__ZN58_$LT$alloc..string..String$u20$as$u20$core..fmt..Write$GT$9write_str17h46a93205c3443fbaE', symObjAddr: 0xFEB0, symBinAddr: 0x100013970, symSize: 0x60 }
  - { offsetInCU: 0x2D8A, offset: 0x44B3, size: 0x8, addend: 0x0, symName: '__ZN5alloc7raw_vec19RawVec$LT$T$C$A$GT$8grow_one17h30a0d5842284fd0cE', symObjAddr: 0x11490, symBinAddr: 0x100014C60, symSize: 0xB0 }
  - { offsetInCU: 0x2ED4, offset: 0x45FD, size: 0x8, addend: 0x0, symName: '__ZN5alloc7raw_vec19RawVec$LT$T$C$A$GT$8grow_one17h49e0e9904a4117adE', symObjAddr: 0x11540, symBinAddr: 0x100014D10, symSize: 0xB0 }
  - { offsetInCU: 0x302B, offset: 0x4754, size: 0x8, addend: 0x0, symName: '__ZN5alloc7raw_vec19RawVec$LT$T$C$A$GT$8grow_one17h4de980ca39164afaE', symObjAddr: 0x115F0, symBinAddr: 0x100014DC0, symSize: 0xB0 }
  - { offsetInCU: 0x3175, offset: 0x489E, size: 0x8, addend: 0x0, symName: '__ZN5alloc7raw_vec19RawVec$LT$T$C$A$GT$8grow_one17h62a7eeb43c8ba679E', symObjAddr: 0x116A0, symBinAddr: 0x100014E70, symSize: 0xC0 }
  - { offsetInCU: 0x32BF, offset: 0x49E8, size: 0x8, addend: 0x0, symName: '__ZN5alloc7raw_vec19RawVec$LT$T$C$A$GT$8grow_one17h6ed1c6b10ef40742E', symObjAddr: 0x11760, symBinAddr: 0x100014F30, symSize: 0xC0 }
  - { offsetInCU: 0x3409, offset: 0x4B32, size: 0x8, addend: 0x0, symName: '__ZN5alloc7raw_vec19RawVec$LT$T$C$A$GT$8grow_one17ha1110d558da91975E', symObjAddr: 0x11820, symBinAddr: 0x100014FF0, symSize: 0xC0 }
  - { offsetInCU: 0x3560, offset: 0x4C89, size: 0x8, addend: 0x0, symName: '__ZN5alloc7raw_vec19RawVec$LT$T$C$A$GT$8grow_one17hb3798299c2b0bfdfE', symObjAddr: 0x118E0, symBinAddr: 0x1000150B0, symSize: 0xB0 }
  - { offsetInCU: 0x36AA, offset: 0x4DD3, size: 0x8, addend: 0x0, symName: '__ZN5alloc7raw_vec19RawVec$LT$T$C$A$GT$8grow_one17hbde5254dddb57f8dE', symObjAddr: 0x11990, symBinAddr: 0x100015160, symSize: 0xC0 }
  - { offsetInCU: 0x37DA, offset: 0x4F03, size: 0x8, addend: 0x0, symName: '__ZN5alloc7raw_vec19RawVec$LT$T$C$A$GT$8grow_one17he7cf640c3c03791cE', symObjAddr: 0x11A50, symBinAddr: 0x100015220, symSize: 0xA0 }
  - { offsetInCU: 0x3EBE, offset: 0x55E7, size: 0x8, addend: 0x0, symName: __ZN5alloc7raw_vec11finish_grow17h91f3abef5eeeff89E, symObjAddr: 0x11140, symBinAddr: 0x100014BC0, symSize: 0xA0 }
  - { offsetInCU: 0x3F4A, offset: 0x5673, size: 0x8, addend: 0x0, symName: '__ZN5alloc7raw_vec19RawVec$LT$T$C$A$GT$7reserve21do_reserve_and_handle17h2e7a8f188be1f5dcE', symObjAddr: 0x111E0, symBinAddr: 0x1000A21D0, symSize: 0xA0 }
  - { offsetInCU: 0x4064, offset: 0x578D, size: 0x8, addend: 0x0, symName: '__ZN5alloc7raw_vec19RawVec$LT$T$C$A$GT$7reserve21do_reserve_and_handle17h7c8ccaa94e02f8cdE', symObjAddr: 0x11280, symBinAddr: 0x1000A2270, symSize: 0xA0 }
  - { offsetInCU: 0x417E, offset: 0x58A7, size: 0x8, addend: 0x0, symName: '__ZN5alloc7raw_vec19RawVec$LT$T$C$A$GT$7reserve21do_reserve_and_handle17hba4dc752032263ffE', symObjAddr: 0x11320, symBinAddr: 0x1000A2310, symSize: 0xB0 }
  - { offsetInCU: 0x42AE, offset: 0x59D7, size: 0x8, addend: 0x0, symName: '__ZN5alloc7raw_vec19RawVec$LT$T$C$A$GT$7reserve21do_reserve_and_handle17hf08da01cc88183f5E', symObjAddr: 0x113D0, symBinAddr: 0x1000A23C0, symSize: 0xC0 }
  - { offsetInCU: 0x536A, offset: 0x6A93, size: 0x8, addend: 0x0, symName: '__ZN97_$LT$alloc..vec..Vec$LT$T$C$A$GT$$u20$as$u20$alloc..vec..spec_extend..SpecExtend$LT$T$C$I$GT$$GT$11spec_extend17h29fbde849ee6a899E', symObjAddr: 0x131C0, symBinAddr: 0x100016990, symSize: 0x1C0 }
  - { offsetInCU: 0x5B49, offset: 0x7272, size: 0x8, addend: 0x0, symName: '__ZN98_$LT$alloc..vec..Vec$LT$T$GT$$u20$as$u20$alloc..vec..spec_from_iter..SpecFromIter$LT$T$C$I$GT$$GT$9from_iter17h4a785ad0d5cb5d31E', symObjAddr: 0x13380, symBinAddr: 0x100016B50, symSize: 0x250 }
  - { offsetInCU: 0x5E8C, offset: 0x75B5, size: 0x8, addend: 0x0, symName: '__ZN98_$LT$alloc..vec..Vec$LT$T$GT$$u20$as$u20$alloc..vec..spec_from_iter..SpecFromIter$LT$T$C$I$GT$$GT$9from_iter17h8ee62730754c3901E', symObjAddr: 0x135D0, symBinAddr: 0x100016DA0, symSize: 0x340 }
  - { offsetInCU: 0x6526, offset: 0x7C4F, size: 0x8, addend: 0x0, symName: '__ZN98_$LT$alloc..vec..Vec$LT$T$GT$$u20$as$u20$alloc..vec..spec_from_iter..SpecFromIter$LT$T$C$I$GT$$GT$9from_iter17hac61b5490d1c5993E', symObjAddr: 0x13910, symBinAddr: 0x1000170E0, symSize: 0x540 }
  - { offsetInCU: 0x6AE3, offset: 0x820C, size: 0x8, addend: 0x0, symName: '__ZN98_$LT$alloc..vec..Vec$LT$T$GT$$u20$as$u20$alloc..vec..spec_from_iter..SpecFromIter$LT$T$C$I$GT$$GT$9from_iter17hb1d108fb69ee4445E', symObjAddr: 0x13E50, symBinAddr: 0x100017620, symSize: 0x390 }
  - { offsetInCU: 0x736C, offset: 0x8A95, size: 0x8, addend: 0x0, symName: '__ZN67_$LT$alloc..vec..Vec$LT$T$C$A$GT$$u20$as$u20$core..clone..Clone$GT$5clone17he241f2bc32a47c41E', symObjAddr: 0x11B70, symBinAddr: 0x100015340, symSize: 0x120 }
  - { offsetInCU: 0x7946, offset: 0x906F, size: 0x8, addend: 0x0, symName: '__ZN52_$LT$T$u20$as$u20$alloc..slice..hack..ConvertVec$GT$6to_vec17hef439033d0fb3671E', symObjAddr: 0xF780, symBinAddr: 0x100013240, symSize: 0x90 }
  - { offsetInCU: 0x830F, offset: 0x9A38, size: 0x8, addend: 0x0, symName: '__ZN5alloc3str21_$LT$impl$u20$str$GT$7replace17h18871ad81910850bE', symObjAddr: 0x10C30, symBinAddr: 0x1000146F0, symSize: 0x1D0 }
  - { offsetInCU: 0x8CCB, offset: 0xA3F4, size: 0x8, addend: 0x0, symName: '__ZN5alloc4sync16Arc$LT$T$C$A$GT$9drop_slow17h10238385a778928aE', symObjAddr: 0x10E00, symBinAddr: 0x1000148C0, symSize: 0x50 }
  - { offsetInCU: 0x8E7C, offset: 0xA5A5, size: 0x8, addend: 0x0, symName: '__ZN5alloc4sync16Arc$LT$T$C$A$GT$9drop_slow17h1ea2b0ed87603390E', symObjAddr: 0x10E50, symBinAddr: 0x100014910, symSize: 0x40 }
  - { offsetInCU: 0x8F91, offset: 0xA6BA, size: 0x8, addend: 0x0, symName: '__ZN5alloc4sync16Arc$LT$T$C$A$GT$9drop_slow17h399992480c2f0b6dE', symObjAddr: 0x10E90, symBinAddr: 0x100014950, symSize: 0x50 }
  - { offsetInCU: 0x9142, offset: 0xA86B, size: 0x8, addend: 0x0, symName: '__ZN5alloc4sync16Arc$LT$T$C$A$GT$9drop_slow17h47cabbea88242301E', symObjAddr: 0x10EE0, symBinAddr: 0x1000149A0, symSize: 0x80 }
  - { offsetInCU: 0x9394, offset: 0xAABD, size: 0x8, addend: 0x0, symName: '__ZN5alloc4sync16Arc$LT$T$C$A$GT$9drop_slow17hee1b1b1f12b5736cE', symObjAddr: 0x10F60, symBinAddr: 0x100014A20, symSize: 0x60 }
  - { offsetInCU: 0x9581, offset: 0xACAA, size: 0x8, addend: 0x0, symName: '__ZN5alloc4sync16Arc$LT$T$C$A$GT$9drop_slow17hfc9793aeed8ee6ddE', symObjAddr: 0x11000, symBinAddr: 0x100014A80, symSize: 0x80 }
  - { offsetInCU: 0xB085, offset: 0xC7AE, size: 0x8, addend: 0x0, symName: '__ZN4core3ptr100drop_in_place$LT$alloc..vec..Vec$LT$$LP$test..types..TestId$C$test..types..TestDescAndFn$RP$$GT$$GT$17h8f6d133c64303bcbE', symObjAddr: 0x5740, symBinAddr: 0x100009560, symSize: 0x140 }
  - { offsetInCU: 0xB29F, offset: 0xC9C8, size: 0x8, addend: 0x0, symName: '__ZN4core3ptr101drop_in_place$LT$alloc..vec..Vec$LT$$LP$test..types..TestDesc$C$alloc..vec..Vec$LT$u8$GT$$RP$$GT$$GT$17h764dc7459d3ee57fE', symObjAddr: 0x5880, symBinAddr: 0x1000096A0, symSize: 0x100 }
  - { offsetInCU: 0xB47C, offset: 0xCBA5, size: 0x8, addend: 0x0, symName: '__ZN4core3ptr101drop_in_place$LT$core..result..Result$LT$alloc..string..String$C$alloc..string..FromUtf8Error$GT$$GT$17h7cdfb7f41459e772E', symObjAddr: 0x5980, symBinAddr: 0x1000097A0, symSize: 0x40 }
  - { offsetInCU: 0xB538, offset: 0xCC61, size: 0x8, addend: 0x0, symName: '__ZN4core3ptr106drop_in_place$LT$alloc..sync..ArcInner$LT$std..sync..mutex..Mutex$LT$alloc..vec..Vec$LT$u8$GT$$GT$$GT$$GT$17hc0b193b2cf5af67bE', symObjAddr: 0x59C0, symBinAddr: 0x1000097E0, symSize: 0x60 }
  - { offsetInCU: 0xB69D, offset: 0xCDC6, size: 0x8, addend: 0x0, symName: '__ZN4core3ptr109drop_in_place$LT$core..result..Result$LT$test..term..terminfo..TermInfo$C$test..term..terminfo..Error$GT$$GT$17h2246efa291603551E', symObjAddr: 0x5A20, symBinAddr: 0x100009840, symSize: 0x60 }
  - { offsetInCU: 0xB758, offset: 0xCE81, size: 0x8, addend: 0x0, symName: '__ZN4core3ptr111drop_in_place$LT$core..result..Result$LT$test..event..CompletedTest$C$std..sync..mpsc..RecvTimeoutError$GT$$GT$17hcfb9fa03fb2da53aE', symObjAddr: 0x5A80, symBinAddr: 0x1000098A0, symSize: 0xD0 }
  - { offsetInCU: 0xB95C, offset: 0xD085, size: 0x8, addend: 0x0, symName: '__ZN4core3ptr114drop_in_place$LT$std..collections..hash..map..HashMap$LT$alloc..string..String$C$alloc..vec..Vec$LT$u8$GT$$GT$$GT$17h28354867b05ce7dfE', symObjAddr: 0x5B50, symBinAddr: 0x100009970, symSize: 0x120 }
  - { offsetInCU: 0xB97A, offset: 0xD0A3, size: 0x8, addend: 0x0, symName: '__ZN4core3ptr114drop_in_place$LT$std..collections..hash..map..HashMap$LT$alloc..string..String$C$alloc..vec..Vec$LT$u8$GT$$GT$$GT$17h28354867b05ce7dfE', symObjAddr: 0x5B50, symBinAddr: 0x100009970, symSize: 0x120 }
  - { offsetInCU: 0xB98F, offset: 0xD0B8, size: 0x8, addend: 0x0, symName: '__ZN4core3ptr114drop_in_place$LT$std..collections..hash..map..HashMap$LT$alloc..string..String$C$alloc..vec..Vec$LT$u8$GT$$GT$$GT$17h28354867b05ce7dfE', symObjAddr: 0x5B50, symBinAddr: 0x100009970, symSize: 0x120 }
  - { offsetInCU: 0xB9A4, offset: 0xD0CD, size: 0x8, addend: 0x0, symName: '__ZN4core3ptr114drop_in_place$LT$std..collections..hash..map..HashMap$LT$alloc..string..String$C$alloc..vec..Vec$LT$u8$GT$$GT$$GT$17h28354867b05ce7dfE', symObjAddr: 0x5B50, symBinAddr: 0x100009970, symSize: 0x120 }
  - { offsetInCU: 0xB9B9, offset: 0xD0E2, size: 0x8, addend: 0x0, symName: '__ZN4core3ptr114drop_in_place$LT$std..collections..hash..map..HashMap$LT$alloc..string..String$C$alloc..vec..Vec$LT$u8$GT$$GT$$GT$17h28354867b05ce7dfE', symObjAddr: 0x5B50, symBinAddr: 0x100009970, symSize: 0x120 }
  - { offsetInCU: 0xB9CE, offset: 0xD0F7, size: 0x8, addend: 0x0, symName: '__ZN4core3ptr114drop_in_place$LT$std..collections..hash..map..HashMap$LT$alloc..string..String$C$alloc..vec..Vec$LT$u8$GT$$GT$$GT$17h28354867b05ce7dfE', symObjAddr: 0x5B50, symBinAddr: 0x100009970, symSize: 0x120 }
  - { offsetInCU: 0xBE5C, offset: 0xD585, size: 0x8, addend: 0x0, symName: '__ZN4core3ptr116drop_in_place$LT$alloc..vec..into_iter..IntoIter$LT$$LP$test..types..TestId$C$test..types..TestDescAndFn$RP$$GT$$GT$17hd6c1ba84e39a3d99E', symObjAddr: 0x5C70, symBinAddr: 0x100009A90, symSize: 0x150 }
  - { offsetInCU: 0xC103, offset: 0xD82C, size: 0x8, addend: 0x0, symName: '__ZN4core3ptr120drop_in_place$LT$std..sync..poison..PoisonError$LT$std..sync..mutex..MutexGuard$LT$alloc..vec..Vec$LT$u8$GT$$GT$$GT$$GT$17h178f1459a117e04dE', symObjAddr: 0x5DC0, symBinAddr: 0x100009BE0, symSize: 0x70 }
  - { offsetInCU: 0xC289, offset: 0xD9B2, size: 0x8, addend: 0x0, symName: '__ZN4core3ptr124drop_in_place$LT$alloc..collections..vec_deque..VecDeque$LT$$LP$test..types..TestId$C$test..types..TestDescAndFn$RP$$GT$$GT$17he508dedef35c4c2fE', symObjAddr: 0x5E30, symBinAddr: 0x100009C50, symSize: 0x250 }
  - { offsetInCU: 0xC63F, offset: 0xDD68, size: 0x8, addend: 0x0, symName: '__ZN4core3ptr126drop_in_place$LT$std..sync..mpmc..counter..Counter$LT$std..sync..mpmc..list..Channel$LT$test..event..CompletedTest$GT$$GT$$GT$17he81faf8911a2edebE', symObjAddr: 0x6080, symBinAddr: 0x100009EA0, symSize: 0x1A0 }
  - { offsetInCU: 0xCAA8, offset: 0xE1D1, size: 0x8, addend: 0x0, symName: '__ZN4core3ptr128drop_in_place$LT$std..sync..mutex..MutexGuard$LT$core..option..Option$LT$test..run_test..$u7b$$u7b$closure$u7d$$u7d$$GT$$GT$$GT$17h4041453e37c80813E', symObjAddr: 0x6220, symBinAddr: 0x10000A040, symSize: 0x70 }
  - { offsetInCU: 0xCC52, offset: 0xE37B, size: 0x8, addend: 0x0, symName: '__ZN4core3ptr129drop_in_place$LT$core..iter..adapters..peekable..Peekable$LT$alloc..vec..into_iter..IntoIter$LT$alloc..string..String$GT$$GT$$GT$17h8c75dbb527adc40dE', symObjAddr: 0x6290, symBinAddr: 0x10000A0B0, symSize: 0xC0 }
  - { offsetInCU: 0xCEB9, offset: 0xE5E2, size: 0x8, addend: 0x0, symName: '__ZN4core3ptr130drop_in_place$LT$core..result..Result$LT$$LP$$RP$$C$alloc..boxed..Box$LT$dyn$u20$core..any..Any$u2b$core..marker..Send$GT$$GT$$GT$17h0ece071190cbd98fE', symObjAddr: 0x6350, symBinAddr: 0x10000A170, symSize: 0x70 }
  - { offsetInCU: 0xCFAF, offset: 0xE6D8, size: 0x8, addend: 0x0, symName: '__ZN4core3ptr131drop_in_place$LT$std..io..Write..write_fmt..Adapter$LT$test..term..terminfo..TerminfoTerminal$LT$std..io..stdio..Stdout$GT$$GT$$GT$17h5cdc84179209b6a3E', symObjAddr: 0x63C0, symBinAddr: 0x10000A1E0, symSize: 0x20 }
  - { offsetInCU: 0xCFD0, offset: 0xE6F9, size: 0x8, addend: 0x0, symName: '__ZN4core3ptr133drop_in_place$LT$$LP$test..types..TestDesc$C$test..test_result..TestResult$C$core..time..Duration$C$alloc..vec..Vec$LT$u8$GT$$RP$$GT$17h256b38d6f3c75957E', symObjAddr: 0x63E0, symBinAddr: 0x10000A200, symSize: 0xC0 }
  - { offsetInCU: 0xD1AA, offset: 0xE8D3, size: 0x8, addend: 0x0, symName: '__ZN4core3ptr135drop_in_place$LT$alloc..vec..in_place_drop..InPlaceDstDataSrcBufDrop$LT$test..types..TestDescAndFn$C$test..types..TestDescAndFn$GT$$GT$17ha7ef6c1343a62816E', symObjAddr: 0x64A0, symBinAddr: 0x10000A2C0, symSize: 0x130 }
  - { offsetInCU: 0xD399, offset: 0xEAC2, size: 0x8, addend: 0x0, symName: '__ZN4core3ptr143drop_in_place$LT$$u5b$$LP$test..types..TestDesc$C$test..test_result..TestResult$C$core..time..Duration$C$alloc..vec..Vec$LT$u8$GT$$RP$$u5d$$GT$17h6b97e51afde21834E', symObjAddr: 0x65D0, symBinAddr: 0x10000A3F0, symSize: 0xE0 }
  - { offsetInCU: 0xD56B, offset: 0xEC94, size: 0x8, addend: 0x0, symName: '__ZN4core3ptr148drop_in_place$LT$core..option..Option$LT$std..sync..mpmc..zero..Channel$LT$test..event..CompletedTest$GT$..send..$u7b$$u7b$closure$u7d$$u7d$$GT$$GT$17h08244d380b8503daE', symObjAddr: 0x66B0, symBinAddr: 0x10000A4D0, symSize: 0x120 }
  - { offsetInCU: 0xD8D4, offset: 0xEFFD, size: 0x8, addend: 0x0, symName: '__ZN4core3ptr150drop_in_place$LT$std..thread..Builder..spawn_unchecked_$LT$test..run_test..$u7b$$u7b$closure$u7d$$u7d$$C$$LP$$RP$$GT$..$u7b$$u7b$closure$u7d$$u7d$$GT$17ha18c2bd20ff94d2aE', symObjAddr: 0x67D0, symBinAddr: 0x10000A5F0, symSize: 0xC0 }
  - { offsetInCU: 0xDCA6, offset: 0xF3CF, size: 0x8, addend: 0x0, symName: '__ZN4core3ptr152drop_in_place$LT$alloc..boxed..Box$LT$std..sync..mpmc..counter..Counter$LT$std..sync..mpmc..array..Channel$LT$test..event..CompletedTest$GT$$GT$$GT$$GT$17hf2fcf8d0d6088707E', symObjAddr: 0x6890, symBinAddr: 0x10000A6B0, symSize: 0x130 }
  - { offsetInCU: 0xDEE4, offset: 0xF60D, size: 0x8, addend: 0x0, symName: '__ZN4core3ptr152drop_in_place$LT$alloc..sync..ArcInner$LT$std..sync..mutex..Mutex$LT$core..option..Option$LT$test..run_test..$u7b$$u7b$closure$u7d$$u7d$$GT$$GT$$GT$$GT$17h4dc865078817c55eE', symObjAddr: 0x69C0, symBinAddr: 0x10000A7E0, symSize: 0x60 }
  - { offsetInCU: 0xDF91, offset: 0xF6BA, size: 0x8, addend: 0x0, symName: '__ZN4core3ptr156drop_in_place$LT$alloc..vec..Vec$LT$$LP$test..types..TestDesc$C$test..test_result..TestResult$C$core..time..Duration$C$alloc..vec..Vec$LT$u8$GT$$RP$$GT$$GT$17h1acb4669b8710e9fE', symObjAddr: 0x6A20, symBinAddr: 0x10000A840, symSize: 0x40 }
  - { offsetInCU: 0xE03B, offset: 0xF764, size: 0x8, addend: 0x0, symName: '__ZN4core3ptr168drop_in_place$LT$std..sys..thread_local..native..lazy..State$LT$core..cell..Cell$LT$core..option..Option$LT$std..sync..mpmc..context..Context$GT$$GT$$C$$LP$$RP$$GT$$GT$17h1de03dd72e4ab3d2E', symObjAddr: 0x6A60, symBinAddr: 0x10000A880, symSize: 0x30 }
  - { offsetInCU: 0xE0DB, offset: 0xF804, size: 0x8, addend: 0x0, symName: '__ZN4core3ptr172drop_in_place$LT$alloc..vec..into_iter..IntoIter$LT$$LP$test..types..TestDesc$C$test..test_result..TestResult$C$core..time..Duration$C$alloc..vec..Vec$LT$u8$GT$$RP$$GT$$GT$17hac792c48fc379184E', symObjAddr: 0x6A90, symBinAddr: 0x10000A8B0, symSize: 0x60 }
  - { offsetInCU: 0xE219, offset: 0xF942, size: 0x8, addend: 0x0, symName: '__ZN4core3ptr176drop_in_place$LT$$LT$alloc..vec..drain..Drain$LT$T$C$A$GT$$u20$as$u20$core..ops..drop..Drop$GT$..drop..DropGuard$LT$std..sync..mpmc..waker..Entry$C$alloc..alloc..Global$GT$$GT$17h78bdec1140636eb2E', symObjAddr: 0x6AF0, symBinAddr: 0x10000A910, symSize: 0x70 }
  - { offsetInCU: 0xE230, offset: 0xF959, size: 0x8, addend: 0x0, symName: '__ZN4core3ptr176drop_in_place$LT$$LT$alloc..vec..drain..Drain$LT$T$C$A$GT$$u20$as$u20$core..ops..drop..Drop$GT$..drop..DropGuard$LT$std..sync..mpmc..waker..Entry$C$alloc..alloc..Global$GT$$GT$17h78bdec1140636eb2E', symObjAddr: 0x6AF0, symBinAddr: 0x10000A910, symSize: 0x70 }
  - { offsetInCU: 0xE2E5, offset: 0xFA0E, size: 0x8, addend: 0x0, symName: '__ZN4core3ptr181drop_in_place$LT$hashbrown..scopeguard..ScopeGuard$LT$$RF$mut$u20$hashbrown..raw..RawTableInner$C$hashbrown..raw..RawTableInner..rehash_in_place..$u7b$$u7b$closure$u7d$$u7d$$GT$$GT$17h9d0cde032e47dabdE', symObjAddr: 0x6B60, symBinAddr: 0x10000A980, symSize: 0xC0 }
  - { offsetInCU: 0xE3B6, offset: 0xFADF, size: 0x8, addend: 0x0, symName: '__ZN4core3ptr188drop_in_place$LT$core..cell..UnsafeCell$LT$core..option..Option$LT$core..result..Result$LT$$LP$$RP$$C$alloc..boxed..Box$LT$dyn$u20$core..any..Any$u2b$core..marker..Send$GT$$GT$$GT$$GT$$GT$17h942c10823c0e5916E', symObjAddr: 0x6C20, symBinAddr: 0x10000AA40, symSize: 0x80 }
  - { offsetInCU: 0xE4FC, offset: 0xFC25, size: 0x8, addend: 0x0, symName: '__ZN4core3ptr188drop_in_place$LT$std..collections..hash..map..HashMap$LT$test..types..TestId$C$test..run_tests..RunningTest$C$core..hash..BuildHasherDefault$LT$std..hash..random..DefaultHasher$GT$$GT$$GT$17h03805b225a27f58eE', symObjAddr: 0x6CA0, symBinAddr: 0x10000AAC0, symSize: 0xF0 }
  - { offsetInCU: 0xE8D9, offset: 0x10002, size: 0x8, addend: 0x0, symName: '__ZN4core3ptr193drop_in_place$LT$$LT$alloc..collections..vec_deque..VecDeque$LT$T$C$A$GT$$u20$as$u20$core..ops..drop..Drop$GT$..drop..Dropper$LT$$LP$test..types..TestId$C$test..types..TestDescAndFn$RP$$GT$$GT$17hbc041dbaa5d11d0bE', symObjAddr: 0x6D90, symBinAddr: 0x10000ABB0, symSize: 0xE0 }
  - { offsetInCU: 0xE9C2, offset: 0x100EB, size: 0x8, addend: 0x0, symName: '__ZN4core3ptr205drop_in_place$LT$$LT$alloc..boxed..Box$LT$dyn$u20$core..error..Error$u2b$core..marker..Sync$u2b$core..marker..Send$GT$$u20$as$u20$core..convert..From$LT$alloc..string..String$GT$$GT$..from..StringError$GT$17hbadd5bbe38af0ed2E', symObjAddr: 0x6E70, symBinAddr: 0x10000AC90, symSize: 0x20 }
  - { offsetInCU: 0xEA55, offset: 0x1017E, size: 0x8, addend: 0x0, symName: '__ZN4core3ptr212drop_in_place$LT$core..result..Result$LT$std..sync..mutex..MutexGuard$LT$alloc..vec..Vec$LT$u8$GT$$GT$$C$std..sync..poison..PoisonError$LT$std..sync..mutex..MutexGuard$LT$alloc..vec..Vec$LT$u8$GT$$GT$$GT$$GT$$GT$17hb01df0c051c4fbcbE', symObjAddr: 0x6E90, symBinAddr: 0x10000ACB0, symSize: 0x70 }
  - { offsetInCU: 0xEA7C, offset: 0x101A5, size: 0x8, addend: 0x0, symName: '__ZN4core3ptr222drop_in_place$LT$core..result..Result$LT$core..result..Result$LT$core..option..Option$LT$test..stats..Summary$GT$$C$alloc..string..String$GT$$C$alloc..boxed..Box$LT$dyn$u20$core..any..Any$u2b$core..marker..Send$GT$$GT$$GT$17h42446e752b1c4921E', symObjAddr: 0x6F00, symBinAddr: 0x10000AD20, symSize: 0x90 }
  - { offsetInCU: 0xEC07, offset: 0x10330, size: 0x8, addend: 0x0, symName: '__ZN4core3ptr228drop_in_place$LT$alloc..boxed..Box$LT$dyn$u20$core..ops..function..FnMut$LT$$LP$$RP$$GT$$u2b$Output$u20$$u3d$$u20$core..result..Result$LT$$LP$$RP$$C$std..io..error..Error$GT$$u2b$core..marker..Sync$u2b$core..marker..Send$GT$$GT$17h65be265169edd896E', symObjAddr: 0x6F90, symBinAddr: 0x10000ADB0, symSize: 0x70 }
  - { offsetInCU: 0xED16, offset: 0x1043F, size: 0x8, addend: 0x0, symName: '__ZN4core3ptr251drop_in_place$LT$alloc..vec..Vec$LT$alloc..boxed..Box$LT$dyn$u20$core..ops..function..FnMut$LT$$LP$$RP$$GT$$u2b$Output$u20$$u3d$$u20$core..result..Result$LT$$LP$$RP$$C$std..io..error..Error$GT$$u2b$core..marker..Sync$u2b$core..marker..Send$GT$$GT$$GT$17h0d60f9c21e19b8ffE', symObjAddr: 0x7000, symBinAddr: 0x10000AE20, symSize: 0x110 }
  - { offsetInCU: 0xEF58, offset: 0x10681, size: 0x8, addend: 0x0, symName: '__ZN4core3ptr33drop_in_place$LT$getopts..Opt$GT$17h1c9b8645521da7b9E', symObjAddr: 0x7110, symBinAddr: 0x10000AF30, symSize: 0x90 }
  - { offsetInCU: 0xF14D, offset: 0x10876, size: 0x8, addend: 0x0, symName: '__ZN4core3ptr34drop_in_place$LT$getopts..Fail$GT$17h9a8c5131b2b9ec1dE', symObjAddr: 0x71A0, symBinAddr: 0x10000AFC0, symSize: 0x20 }
  - { offsetInCU: 0xF248, offset: 0x10971, size: 0x8, addend: 0x0, symName: '__ZN4core3ptr35drop_in_place$LT$std..env..Args$GT$17heaba764777135de3E', symObjAddr: 0x71C0, symBinAddr: 0x10000AFE0, symSize: 0xA0 }
  - { offsetInCU: 0xF450, offset: 0x10B79, size: 0x8, addend: 0x0, symName: '__ZN4core3ptr37drop_in_place$LT$getopts..Matches$GT$17hf728c37caae6bb66E', symObjAddr: 0x7260, symBinAddr: 0x10000B080, symSize: 0xB0 }
  - { offsetInCU: 0xF5D1, offset: 0x10CFA, size: 0x8, addend: 0x0, symName: '__ZN4core3ptr37drop_in_place$LT$getopts..Options$GT$17heae5bee3a094fbaaE', symObjAddr: 0x7310, symBinAddr: 0x10000B130, symSize: 0xD0 }
  - { offsetInCU: 0xF8C3, offset: 0x10FEC, size: 0x8, addend: 0x0, symName: '__ZN4core3ptr40drop_in_place$LT$test..cli..TestOpts$GT$17hfc6604edc2583f3dE', symObjAddr: 0x73E0, symBinAddr: 0x10000B200, symSize: 0x120 }
  - { offsetInCU: 0xFC00, offset: 0x11329, size: 0x8, addend: 0x0, symName: '__ZN4core3ptr40drop_in_place$LT$test..types..TestFn$GT$17he4a7f2b7c12d66a1E', symObjAddr: 0x7500, symBinAddr: 0x10000B320, symSize: 0xB0 }
  - { offsetInCU: 0xFC5A, offset: 0x11383, size: 0x8, addend: 0x0, symName: '__ZN4core3ptr42drop_in_place$LT$alloc..string..String$GT$17ha41924c18bb4397eE', symObjAddr: 0x75B0, symBinAddr: 0x10000B3D0, symSize: 0x20 }
  - { offsetInCU: 0xFCD7, offset: 0x11400, size: 0x8, addend: 0x0, symName: '__ZN4core3ptr42drop_in_place$LT$std..io..error..Error$GT$17h0b187ec48a98bae8E', symObjAddr: 0x75D0, symBinAddr: 0x10000B3F0, symSize: 0xA0 }
  - { offsetInCU: 0xFFF9, offset: 0x11722, size: 0x8, addend: 0x0, symName: '__ZN4core3ptr42drop_in_place$LT$std..process..Command$GT$17h0ce16917643dea92E', symObjAddr: 0x7670, symBinAddr: 0x10000B490, symSize: 0x2F0 }
  - { offsetInCU: 0x10925, offset: 0x1204E, size: 0x8, addend: 0x0, symName: '__ZN4core3ptr42drop_in_place$LT$test..types..TestDesc$GT$17hec8cd1f17afc67c3E', symObjAddr: 0x79F0, symBinAddr: 0x10000B780, symSize: 0x70 }
  - { offsetInCU: 0x109C9, offset: 0x120F2, size: 0x8, addend: 0x0, symName: '__ZN4core3ptr42drop_in_place$LT$test..types..TestName$GT$17h4369c828d9d60a5fE', symObjAddr: 0x7A60, symBinAddr: 0x10000B7F0, symSize: 0x70 }
  - { offsetInCU: 0x10A6C, offset: 0x12195, size: 0x8, addend: 0x0, symName: '__ZN4core3ptr43drop_in_place$LT$$u5b$getopts..Opt$u5d$$GT$17h2001789c9e4602acE', symObjAddr: 0x7AD0, symBinAddr: 0x10000B860, symSize: 0xA0 }
  - { offsetInCU: 0x10B1E, offset: 0x12247, size: 0x8, addend: 0x0, symName: '__ZN4core3ptr43drop_in_place$LT$test..event..TestEvent$GT$17h5357038865ff35fcE', symObjAddr: 0x7B70, symBinAddr: 0x10000B900, symSize: 0x150 }
  - { offsetInCU: 0x10D9A, offset: 0x124C3, size: 0x8, addend: 0x0, symName: '__ZN4core3ptr46drop_in_place$LT$test..types..RunnableTest$GT$17hf07a56471e4753e1E', symObjAddr: 0x7CC0, symBinAddr: 0x10000BA50, symSize: 0xB0 }
  - { offsetInCU: 0x10DDF, offset: 0x12508, size: 0x8, addend: 0x0, symName: '__ZN4core3ptr47drop_in_place$LT$test..event..CompletedTest$GT$17h1a75ab2267151d0aE', symObjAddr: 0x7D70, symBinAddr: 0x10000BB00, symSize: 0xC0 }
  - { offsetInCU: 0x10F9F, offset: 0x126C8, size: 0x8, addend: 0x0, symName: '__ZN4core3ptr47drop_in_place$LT$test..types..TestDescAndFn$GT$17hc4496e55b2a81ce1E', symObjAddr: 0x7E30, symBinAddr: 0x10000BBC0, symSize: 0x90 }
  - { offsetInCU: 0x11051, offset: 0x1277A, size: 0x8, addend: 0x0, symName: '__ZN4core3ptr50drop_in_place$LT$std..sync..mpmc..waker..Waker$GT$17h1efeec49a6838e5bE', symObjAddr: 0x7EC0, symBinAddr: 0x10000BC50, symSize: 0x40 }
  - { offsetInCU: 0x11064, offset: 0x1278D, size: 0x8, addend: 0x0, symName: '__ZN4core3ptr50drop_in_place$LT$test..run_tests..TimeoutEntry$GT$17h930aa455519f1fd5E', symObjAddr: 0x7F00, symBinAddr: 0x10000BC90, symSize: 0x70 }
  - { offsetInCU: 0x1117E, offset: 0x128A7, size: 0x8, addend: 0x0, symName: '__ZN4core3ptr51drop_in_place$LT$test..term..terminfo..TermInfo$GT$17h179328794eba3752E', symObjAddr: 0x7F70, symBinAddr: 0x10000BD00, symSize: 0x230 }
  - { offsetInCU: 0x11BB0, offset: 0x132D9, size: 0x8, addend: 0x0, symName: '__ZN4core3ptr52drop_in_place$LT$test..console..ConsoleTestState$GT$17h269dab99a7ab531bE', symObjAddr: 0x81A0, symBinAddr: 0x10000BF30, symSize: 0x140 }
  - { offsetInCU: 0x11DC5, offset: 0x134EE, size: 0x8, addend: 0x0, symName: '__ZN4core3ptr54drop_in_place$LT$std..sync..mpmc..waker..SyncWaker$GT$17hc240bf1e3c11d294E', symObjAddr: 0x82E0, symBinAddr: 0x10000C070, symSize: 0x70 }
  - { offsetInCU: 0x11E4B, offset: 0x13574, size: 0x8, addend: 0x0, symName: '__ZN4core3ptr56drop_in_place$LT$$LP$alloc..string..String$C$u32$RP$$GT$17hea259d906a7f8210E', symObjAddr: 0x8350, symBinAddr: 0x10000C0E0, symSize: 0x20 }
  - { offsetInCU: 0x11EEB, offset: 0x13614, size: 0x8, addend: 0x0, symName: '__ZN4core3ptr56drop_in_place$LT$alloc..vec..Vec$LT$getopts..Opt$GT$$GT$17he99eb1826cf2e68aE', symObjAddr: 0x8370, symBinAddr: 0x10000C100, symSize: 0xF0 }
  - { offsetInCU: 0x1210D, offset: 0x13836, size: 0x8, addend: 0x0, symName: '__ZN4core3ptr56drop_in_place$LT$std..thread..Packet$LT$$LP$$RP$$GT$$GT$17h36ec2b10d0c0b3c5E', symObjAddr: 0x8460, symBinAddr: 0x10000C1F0, symSize: 0x1E0 }
  - { offsetInCU: 0x124B1, offset: 0x13BDA, size: 0x8, addend: 0x0, symName: '__ZN4core3ptr57drop_in_place$LT$alloc..vec..Vec$LT$getopts..Name$GT$$GT$17h5150e7d3689d1c12E', symObjAddr: 0x8640, symBinAddr: 0x10000C3D0, symSize: 0x90 }
  - { offsetInCU: 0x1261C, offset: 0x13D45, size: 0x8, addend: 0x0, symName: '__ZN4core3ptr62drop_in_place$LT$alloc..vec..Vec$LT$std..path..PathBuf$GT$$GT$17h72b284d31e303e7bE', symObjAddr: 0x86D0, symBinAddr: 0x10000C460, symSize: 0x90 }
  - { offsetInCU: 0x1276F, offset: 0x13E98, size: 0x8, addend: 0x0, symName: '__ZN4core3ptr64drop_in_place$LT$test..run_test..$u7b$$u7b$closure$u7d$$u7d$$GT$17h8cc2f8fd6f9b4717E', symObjAddr: 0x8760, symBinAddr: 0x10000C4F0, symSize: 0xB0 }
  - { offsetInCU: 0x12838, offset: 0x13F61, size: 0x8, addend: 0x0, symName: '__ZN4core3ptr65drop_in_place$LT$alloc..vec..Vec$LT$alloc..string..String$GT$$GT$17h1d725b4052a1f0d4E', symObjAddr: 0x8810, symBinAddr: 0x10000C5A0, symSize: 0x90 }
  - { offsetInCU: 0x12982, offset: 0x140AB, size: 0x8, addend: 0x0, symName: '__ZN4core3ptr65drop_in_place$LT$alloc..vec..Vec$LT$test..types..TestDesc$GT$$GT$17hd073cebff085b9bdE', symObjAddr: 0x88A0, symBinAddr: 0x10000C630, symSize: 0xD0 }
  - { offsetInCU: 0x12AE8, offset: 0x14211, size: 0x8, addend: 0x0, symName: '__ZN4core3ptr65drop_in_place$LT$test..test_main..$u7b$$u7b$closure$u7d$$u7d$$GT$17h7c087865ffa23b1dE', symObjAddr: 0x8970, symBinAddr: 0x10000C700, symSize: 0x70 }
  - { offsetInCU: 0x12BDE, offset: 0x14307, size: 0x8, addend: 0x0, symName: '__ZN4core3ptr70drop_in_place$LT$alloc..vec..Vec$LT$test..types..TestDescAndFn$GT$$GT$17h1d23249d78e8132eE', symObjAddr: 0x89E0, symBinAddr: 0x10000C770, symSize: 0x140 }
  - { offsetInCU: 0x12DDD, offset: 0x14506, size: 0x8, addend: 0x0, symName: '__ZN4core3ptr73drop_in_place$LT$alloc..vec..Vec$LT$std..sync..mpmc..waker..Entry$GT$$GT$17hbc5e8de76cfe0081E', symObjAddr: 0x8B20, symBinAddr: 0x10000C8B0, symSize: 0x110 }
  - { offsetInCU: 0x13052, offset: 0x1477B, size: 0x8, addend: 0x0, symName: '__ZN4core3ptr77drop_in_place$LT$$LP$test..types..TestId$C$test..types..TestDescAndFn$RP$$GT$17h9c0633e272a42f09E', symObjAddr: 0x8C30, symBinAddr: 0x10000C9C0, symSize: 0x90 }
  - { offsetInCU: 0x13069, offset: 0x14792, size: 0x8, addend: 0x0, symName: '__ZN4core3ptr77drop_in_place$LT$$LP$test..types..TestId$C$test..types..TestDescAndFn$RP$$GT$17h9c0633e272a42f09E', symObjAddr: 0x8C30, symBinAddr: 0x10000C9C0, symSize: 0x90 }
  - { offsetInCU: 0x1311A, offset: 0x14843, size: 0x8, addend: 0x0, symName: '__ZN4core3ptr78drop_in_place$LT$$LP$alloc..string..String$C$alloc..vec..Vec$LT$u8$GT$$RP$$GT$17h55fe37952c533f66E', symObjAddr: 0x8CC0, symBinAddr: 0x10000CA50, symSize: 0x50 }
  - { offsetInCU: 0x13216, offset: 0x1493F, size: 0x8, addend: 0x0, symName: '__ZN4core3ptr78drop_in_place$LT$$LP$test..types..TestDesc$C$alloc..vec..Vec$LT$u8$GT$$RP$$GT$17hd0dfb16652b8c2fbE', symObjAddr: 0x8D10, symBinAddr: 0x10000CAA0, symSize: 0xA0 }
  - { offsetInCU: 0x13336, offset: 0x14A5F, size: 0x8, addend: 0x0, symName: '__ZN4core3ptr78drop_in_place$LT$alloc..vec..into_iter..IntoIter$LT$std..path..PathBuf$GT$$GT$17h5a9f849367ca19c8E', symObjAddr: 0x8DB0, symBinAddr: 0x10000CB40, symSize: 0xA0 }
  - { offsetInCU: 0x1354B, offset: 0x14C74, size: 0x8, addend: 0x0, symName: '__ZN4core3ptr78drop_in_place$LT$std..sync..mpsc..Sender$LT$test..event..CompletedTest$GT$$GT$17hb63cc367af81e331E', symObjAddr: 0x8E50, symBinAddr: 0x10000CBE0, symSize: 0x1A0 }
  - { offsetInCU: 0x138C1, offset: 0x14FEA, size: 0x8, addend: 0x0, symName: '__ZN4core3ptr79drop_in_place$LT$$LP$test..types..TestId$C$test..run_tests..RunningTest$RP$$GT$17hceb70c61c8d59f41E', symObjAddr: 0x8FF0, symBinAddr: 0x10000CD80, symSize: 0x10 }
  - { offsetInCU: 0x138F7, offset: 0x15020, size: 0x8, addend: 0x0, symName: '__ZN4core3ptr79drop_in_place$LT$core..cell..UnsafeCell$LT$std..sync..mpmc..zero..Inner$GT$$GT$17h74de07f257376e6dE', symObjAddr: 0x9000, symBinAddr: 0x10000CD90, symSize: 0x80 }
  - { offsetInCU: 0x1394A, offset: 0x15073, size: 0x8, addend: 0x0, symName: '__ZN4core3ptr80drop_in_place$LT$core..cell..UnsafeCell$LT$std..sync..mpmc..waker..Waker$GT$$GT$17h4209144318b99af7E', symObjAddr: 0x9080, symBinAddr: 0x10000CE10, symSize: 0x40 }
  - { offsetInCU: 0x13980, offset: 0x150A9, size: 0x8, addend: 0x0, symName: '__ZN4core3ptr80drop_in_place$LT$std..sync..mpsc..Receiver$LT$test..event..CompletedTest$GT$$GT$17h9d0deb942fad8f1fE', symObjAddr: 0x90C0, symBinAddr: 0x10000CE50, symSize: 0x700 }
  - { offsetInCU: 0x145EC, offset: 0x15D15, size: 0x8, addend: 0x0, symName: '__ZN4core3ptr81drop_in_place$LT$alloc..vec..into_iter..IntoIter$LT$test..types..TestDesc$GT$$GT$17ha89def36dd2e3ce8E', symObjAddr: 0x97C0, symBinAddr: 0x10000D550, symSize: 0xD0 }
  - { offsetInCU: 0x14781, offset: 0x15EAA, size: 0x8, addend: 0x0, symName: '__ZN4core3ptr81drop_in_place$LT$core..result..Result$LT$$LP$$RP$$C$std..io..error..Error$GT$$GT$17h610b16ed79a8933aE', symObjAddr: 0x9890, symBinAddr: 0x10000D620, symSize: 0x20 }
  - { offsetInCU: 0x147AE, offset: 0x15ED7, size: 0x8, addend: 0x0, symName: '__ZN4core3ptr81drop_in_place$LT$std..io..buffered..bufreader..BufReader$LT$std..fs..File$GT$$GT$17hff118499842610a7E', symObjAddr: 0x98B0, symBinAddr: 0x10000D640, symSize: 0x30 }
  - { offsetInCU: 0x14883, offset: 0x15FAC, size: 0x8, addend: 0x0, symName: '__ZN4core3ptr81drop_in_place$LT$std..sync..mpsc..SendError$LT$test..event..CompletedTest$GT$$GT$17h3aa6643815bba0ffE', symObjAddr: 0x98E0, symBinAddr: 0x10000D670, symSize: 0xC0 }
  - { offsetInCU: 0x14A87, offset: 0x161B0, size: 0x8, addend: 0x0, symName: '__ZN4core3ptr82drop_in_place$LT$alloc..vec..drain..Drain$LT$std..sync..mpmc..waker..Entry$GT$$GT$17h1dd5a56b504bb6f3E', symObjAddr: 0x99A0, symBinAddr: 0x10000D730, symSize: 0x170 }
  - { offsetInCU: 0x14DF3, offset: 0x1651C, size: 0x8, addend: 0x0, symName: '__ZN4core3ptr82drop_in_place$LT$std..sys..thread_local..abort_on_dtor_unwind..DtorUnwindGuard$GT$17h5019d79689e6e1faE', symObjAddr: 0x9B10, symBinAddr: 0x10000D8A0, symSize: 0x50 }
  - { offsetInCU: 0x14E52, offset: 0x1657B, size: 0x8, addend: 0x0, symName: '__ZN4core3ptr84drop_in_place$LT$std..sync..mpmc..zero..Packet$LT$test..event..CompletedTest$GT$$GT$17h3d1279c41eb4f13bE', symObjAddr: 0x9B60, symBinAddr: 0x10000D8F0, symSize: 0xD0 }
  - { offsetInCU: 0x14E70, offset: 0x16599, size: 0x8, addend: 0x0, symName: '__ZN4core3ptr84drop_in_place$LT$std..sync..mpmc..zero..Packet$LT$test..event..CompletedTest$GT$$GT$17h3d1279c41eb4f13bE', symObjAddr: 0x9B60, symBinAddr: 0x10000D8F0, symSize: 0xD0 }
  - { offsetInCU: 0x14E85, offset: 0x165AE, size: 0x8, addend: 0x0, symName: '__ZN4core3ptr84drop_in_place$LT$std..sync..mpmc..zero..Packet$LT$test..event..CompletedTest$GT$$GT$17h3d1279c41eb4f13bE', symObjAddr: 0x9B60, symBinAddr: 0x10000D8F0, symSize: 0xD0 }
  - { offsetInCU: 0x15082, offset: 0x167AB, size: 0x8, addend: 0x0, symName: '__ZN4core3ptr84drop_in_place$LT$test..console..OutputLocation$LT$std..io..stdio..StdoutLock$GT$$GT$17haf1ffb7949a90486E', symObjAddr: 0x9C30, symBinAddr: 0x10000D9C0, symSize: 0xB0 }
  - { offsetInCU: 0x152B4, offset: 0x169DD, size: 0x8, addend: 0x0, symName: '__ZN4core3ptr86drop_in_place$LT$alloc..vec..into_iter..IntoIter$LT$test..types..TestDescAndFn$GT$$GT$17h463ad93bce50d480E', symObjAddr: 0x9CE0, symBinAddr: 0x10000DA70, symSize: 0x150 }
  - { offsetInCU: 0x15567, offset: 0x16C90, size: 0x8, addend: 0x0, symName: '__ZN4core3ptr88drop_in_place$LT$core..option..Option$LT$std..thread..JoinHandle$LT$$LP$$RP$$GT$$GT$$GT$17h7f5000a571bfa655E', symObjAddr: 0x9F30, symBinAddr: 0x10000DBC0, symSize: 0x90 }
  - { offsetInCU: 0x15800, offset: 0x16F29, size: 0x8, addend: 0x0, symName: '__ZN4core3ptr88drop_in_place$LT$test..formatters..json..JsonFormatter$LT$std..io..stdio..Stdout$GT$$GT$17hed95ce4fba8addabE', symObjAddr: 0x9FC0, symBinAddr: 0x10000DC50, symSize: 0x70 }
  - { offsetInCU: 0x1590B, offset: 0x17034, size: 0x8, addend: 0x0, symName: '__ZN4core3ptr89drop_in_place$LT$test..term..terminfo..TerminfoTerminal$LT$std..io..stdio..Stdout$GT$$GT$17h9fde95bd8f5d489dE', symObjAddr: 0xA030, symBinAddr: 0x10000DCC0, symSize: 0x10 }
  - { offsetInCU: 0x1592B, offset: 0x17054, size: 0x8, addend: 0x0, symName: '__ZN4core3ptr90drop_in_place$LT$test..formatters..junit..JunitFormatter$LT$std..io..stdio..Stdout$GT$$GT$17h60fdd11a5c64c732E', symObjAddr: 0xA040, symBinAddr: 0x10000DCD0, symSize: 0xB0 }
  - { offsetInCU: 0x15AE2, offset: 0x1720B, size: 0x8, addend: 0x0, symName: '__ZN4core3ptr90drop_in_place$LT$test..formatters..terse..TerseFormatter$LT$std..io..stdio..Stdout$GT$$GT$17h41b1c6c08a92bc9eE', symObjAddr: 0xA0F0, symBinAddr: 0x10000DD80, symSize: 0x70 }
  - { offsetInCU: 0x15BFA, offset: 0x17323, size: 0x8, addend: 0x0, symName: '__ZN4core3ptr91drop_in_place$LT$core..result..Result$LT$alloc..string..String$C$std..env..VarError$GT$$GT$17hed4a51b992a2f129E', symObjAddr: 0xA1F0, symBinAddr: 0x10000DDF0, symSize: 0x30 }
  - { offsetInCU: 0x15C90, offset: 0x173B9, size: 0x8, addend: 0x0, symName: '__ZN4core3ptr92drop_in_place$LT$std..collections..hash..map..HashMap$LT$alloc..string..String$C$u32$GT$$GT$17ha2e48d7fbb0fb5bfE', symObjAddr: 0xA220, symBinAddr: 0x10000DE20, symSize: 0x110 }
  - { offsetInCU: 0x160D3, offset: 0x177FC, size: 0x8, addend: 0x0, symName: '__ZN4core3ptr92drop_in_place$LT$test..formatters..json..JsonFormatter$LT$std..io..stdio..StdoutLock$GT$$GT$17h683bf12574dcc542E', symObjAddr: 0xA330, symBinAddr: 0x10000DF30, symSize: 0x20 }
  - { offsetInCU: 0x160E6, offset: 0x1780F, size: 0x8, addend: 0x0, symName: '__ZN4core3ptr92drop_in_place$LT$test..formatters..pretty..PrettyFormatter$LT$std..io..stdio..Stdout$GT$$GT$17hca5f8f088a7c03b3E', symObjAddr: 0xA350, symBinAddr: 0x10000DF50, symSize: 0x70 }
  - { offsetInCU: 0x161F1, offset: 0x1791A, size: 0x8, addend: 0x0, symName: '__ZN4core3ptr93drop_in_place$LT$alloc..vec..in_place_drop..InPlaceDrop$LT$test..types..TestDescAndFn$GT$$GT$17h4fe3f8893d8817feE', symObjAddr: 0xA3C0, symBinAddr: 0x10000DFC0, symSize: 0xF0 }
  - { offsetInCU: 0x16312, offset: 0x17A3B, size: 0x8, addend: 0x0, symName: '__ZN4core3ptr93drop_in_place$LT$std..collections..hash..map..HashMap$LT$alloc..string..String$C$bool$GT$$GT$17h95557198107ae5deE', symObjAddr: 0xA4B0, symBinAddr: 0x10000E0B0, symSize: 0x110 }
  - { offsetInCU: 0x16755, offset: 0x17E7E, size: 0x8, addend: 0x0, symName: '__ZN4core3ptr94drop_in_place$LT$test..formatters..terse..TerseFormatter$LT$std..io..stdio..StdoutLock$GT$$GT$17h4f9fd911a92c14f6E', symObjAddr: 0xA5C0, symBinAddr: 0x10000E1C0, symSize: 0x20 }
  - { offsetInCU: 0x16768, offset: 0x17E91, size: 0x8, addend: 0x0, symName: '__ZN4core3ptr95drop_in_place$LT$std..sync..mpmc..error..SendTimeoutError$LT$test..event..CompletedTest$GT$$GT$17he520f04326929ee4E', symObjAddr: 0xA5E0, symBinAddr: 0x10000E1E0, symSize: 0xC0 }
  - { offsetInCU: 0x16945, offset: 0x1806E, size: 0x8, addend: 0x0, symName: '__ZN4core3ptr96drop_in_place$LT$test..formatters..pretty..PrettyFormatter$LT$std..io..stdio..StdoutLock$GT$$GT$17hc6e6009d26dea59cE', symObjAddr: 0xA6A0, symBinAddr: 0x10000E2A0, symSize: 0x20 }
  - { offsetInCU: 0x1698C, offset: 0x180B5, size: 0x8, addend: 0x0, symName: '__ZN4core3ptr97drop_in_place$LT$alloc..collections..vec_deque..VecDeque$LT$test..run_tests..TimeoutEntry$GT$$GT$17h2cfc6de9871b6513E', symObjAddr: 0xA6C0, symBinAddr: 0x10000E2C0, symSize: 0x1D0 }
  - { offsetInCU: 0x16CB7, offset: 0x183E0, size: 0x8, addend: 0x0, symName: '__ZN4core3ptr98drop_in_place$LT$alloc..vec..Vec$LT$alloc..vec..Vec$LT$$LP$usize$C$getopts..Optval$RP$$GT$$GT$$GT$17h7742587199455ee6E', symObjAddr: 0xA890, symBinAddr: 0x10000E490, symSize: 0x100 }
  - { offsetInCU: 0x18DF5, offset: 0x1A51E, size: 0x8, addend: 0x0, symName: __ZN4core5slice4sort6shared5pivot11median3_rec17h043c7cf9c4dcfa3aE, symObjAddr: 0xC5B0, symBinAddr: 0x1000100B0, symSize: 0x140 }
  - { offsetInCU: 0x19067, offset: 0x1A790, size: 0x8, addend: 0x0, symName: __ZN4core5slice4sort6shared5pivot11median3_rec17h22c72710629df099E, symObjAddr: 0xC6F0, symBinAddr: 0x1000101F0, symSize: 0xE0 }
  - { offsetInCU: 0x191F6, offset: 0x1A91F, size: 0x8, addend: 0x0, symName: __ZN4core5slice4sort6shared9smallsort12sort4_stable17h4be8d5e97fa52b37E, symObjAddr: 0xC7D0, symBinAddr: 0x1000102D0, symSize: 0x1E0 }
  - { offsetInCU: 0x1961F, offset: 0x1AD48, size: 0x8, addend: 0x0, symName: __ZN4core5slice4sort6shared9smallsort12sort8_stable17hf878d87f5ab4c636E, symObjAddr: 0xC9B0, symBinAddr: 0x1000104B0, symSize: 0x4D0 }
  - { offsetInCU: 0x19C87, offset: 0x1B3B0, size: 0x8, addend: 0x0, symName: __ZN4core5slice4sort6stable14driftsort_main17h3f21363d9ef1ace3E, symObjAddr: 0xCE80, symBinAddr: 0x100010980, symSize: 0x150 }
  - { offsetInCU: 0x19E96, offset: 0x1B5BF, size: 0x8, addend: 0x0, symName: __ZN4core5slice4sort6stable14driftsort_main17h774521ee173ef4d9E, symObjAddr: 0xCFD0, symBinAddr: 0x100010AD0, symSize: 0x130 }
  - { offsetInCU: 0x1A1DA, offset: 0x1B903, size: 0x8, addend: 0x0, symName: __ZN4core5slice4sort6stable5drift4sort17h1697e34f3759e7ceE, symObjAddr: 0xD100, symBinAddr: 0x100010C00, symSize: 0x7A0 }
  - { offsetInCU: 0x1AC38, offset: 0x1C361, size: 0x8, addend: 0x0, symName: __ZN4core5slice4sort6stable5drift4sort17hbe122b0c6d96a484E, symObjAddr: 0xD8A0, symBinAddr: 0x1000113A0, symSize: 0x700 }
  - { offsetInCU: 0x1B43A, offset: 0x1CB63, size: 0x8, addend: 0x0, symName: __ZN4core5slice4sort6stable9quicksort9quicksort17h0428fc16f015a506E, symObjAddr: 0xDFA0, symBinAddr: 0x100011AA0, symSize: 0xB60 }
  - { offsetInCU: 0x1C23A, offset: 0x1D963, size: 0x8, addend: 0x0, symName: __ZN4core5slice4sort6stable9quicksort9quicksort17hb6bf5f308fa4407cE, symObjAddr: 0xEB00, symBinAddr: 0x100012600, symSize: 0xC40 }
  - { offsetInCU: 0x1DDE2, offset: 0x1F50B, size: 0x8, addend: 0x0, symName: '__ZN42_$LT$$RF$T$u20$as$u20$core..fmt..Debug$GT$3fmt17h193f62b9c8bb8e04E', symObjAddr: 0x4D00, symBinAddr: 0x100008B60, symSize: 0x20 }
  - { offsetInCU: 0x1DDFC, offset: 0x1F525, size: 0x8, addend: 0x0, symName: '__ZN42_$LT$$RF$T$u20$as$u20$core..fmt..Debug$GT$3fmt17ha9dd7e9573dc47dcE', symObjAddr: 0x4D20, symBinAddr: 0x100008B80, symSize: 0x60 }
  - { offsetInCU: 0x1DE2C, offset: 0x1F555, size: 0x8, addend: 0x0, symName: '__ZN42_$LT$$RF$T$u20$as$u20$core..fmt..Debug$GT$3fmt17hc2e158e94c43ce10E', symObjAddr: 0x4D80, symBinAddr: 0x100008BE0, symSize: 0x10 }
  - { offsetInCU: 0x1DE46, offset: 0x1F56F, size: 0x8, addend: 0x0, symName: '__ZN42_$LT$$RF$T$u20$as$u20$core..fmt..Debug$GT$3fmt17heddb21f86f1c7083E', symObjAddr: 0x4D90, symBinAddr: 0x100008BF0, symSize: 0x10 }
  - { offsetInCU: 0x1DE60, offset: 0x1F589, size: 0x8, addend: 0x0, symName: '__ZN42_$LT$$RF$T$u20$as$u20$core..fmt..Debug$GT$3fmt17hf870d1552fab53e9E', symObjAddr: 0x4DA0, symBinAddr: 0x100008C00, symSize: 0x20 }
  - { offsetInCU: 0x1DEBA, offset: 0x1F5E3, size: 0x8, addend: 0x0, symName: '__ZN44_$LT$$RF$T$u20$as$u20$core..fmt..Display$GT$3fmt17h063b9a7ea965ae04E', symObjAddr: 0x4DC0, symBinAddr: 0x100008C20, symSize: 0xE0 }
  - { offsetInCU: 0x1DF28, offset: 0x1F651, size: 0x8, addend: 0x0, symName: '__ZN44_$LT$$RF$T$u20$as$u20$core..fmt..Display$GT$3fmt17h261e29c164cbf963E', symObjAddr: 0x4EA0, symBinAddr: 0x100008D00, symSize: 0x10 }
  - { offsetInCU: 0x1DF42, offset: 0x1F66B, size: 0x8, addend: 0x0, symName: '__ZN44_$LT$$RF$T$u20$as$u20$core..fmt..Display$GT$3fmt17h795b5027fe7bb57fE', symObjAddr: 0x4EB0, symBinAddr: 0x100008D10, symSize: 0x20 }
  - { offsetInCU: 0x1DFCA, offset: 0x1F6F3, size: 0x8, addend: 0x0, symName: '__ZN44_$LT$$RF$T$u20$as$u20$core..fmt..Display$GT$3fmt17h8af8ae2c3e9f3be9E', symObjAddr: 0x4ED0, symBinAddr: 0x100008D30, symSize: 0x10 }
  - { offsetInCU: 0x1DFE4, offset: 0x1F70D, size: 0x8, addend: 0x0, symName: '__ZN44_$LT$$RF$T$u20$as$u20$core..fmt..Display$GT$3fmt17h922cc092a69f3d2cE', symObjAddr: 0x4EE0, symBinAddr: 0x100008D40, symSize: 0x30 }
  - { offsetInCU: 0x1E029, offset: 0x1F752, size: 0x8, addend: 0x0, symName: '__ZN44_$LT$$RF$T$u20$as$u20$core..fmt..Display$GT$3fmt17h94d40703401fd158E', symObjAddr: 0x4F10, symBinAddr: 0x100008D70, symSize: 0x20 }
  - { offsetInCU: 0x1E049, offset: 0x1F772, size: 0x8, addend: 0x0, symName: '__ZN44_$LT$$RF$T$u20$as$u20$core..fmt..Display$GT$3fmt17haa68dd17fed0a35cE', symObjAddr: 0x4F30, symBinAddr: 0x100008D90, symSize: 0x20 }
  - { offsetInCU: 0x1E079, offset: 0x1F7A2, size: 0x8, addend: 0x0, symName: '__ZN44_$LT$$RF$T$u20$as$u20$core..fmt..Display$GT$3fmt17hb5dbcfee924839fbE', symObjAddr: 0x4F50, symBinAddr: 0x100008DB0, symSize: 0xE0 }
  - { offsetInCU: 0x1E0ED, offset: 0x1F816, size: 0x8, addend: 0x0, symName: __ZN4core3fmt5Write10write_char17h5568f4fb7e0f6bd5E, symObjAddr: 0x5100, symBinAddr: 0x100008F60, symSize: 0x110 }
  - { offsetInCU: 0x1E161, offset: 0x1F88A, size: 0x8, addend: 0x0, symName: __ZN4core3fmt5Write10write_char17hc7e7deda8b452895E, symObjAddr: 0x5210, symBinAddr: 0x100009070, symSize: 0x120 }
  - { offsetInCU: 0x1E28A, offset: 0x1F9B3, size: 0x8, addend: 0x0, symName: __ZN4core3fmt5Write10write_char17hd0b08a2d9ae5e40eE, symObjAddr: 0x5330, symBinAddr: 0x100009190, symSize: 0xE0 }
  - { offsetInCU: 0x1E318, offset: 0x1FA41, size: 0x8, addend: 0x0, symName: __ZN4core3fmt5Write9write_fmt17h0fa60c23de808539E, symObjAddr: 0x5410, symBinAddr: 0x100009270, symSize: 0x20 }
  - { offsetInCU: 0x1E346, offset: 0x1FA6F, size: 0x8, addend: 0x0, symName: __ZN4core3fmt5Write9write_fmt17h615aed66e8d13156E, symObjAddr: 0x5430, symBinAddr: 0x100009290, symSize: 0x20 }
  - { offsetInCU: 0x1E374, offset: 0x1FA9D, size: 0x8, addend: 0x0, symName: __ZN4core3fmt5Write9write_fmt17h943ebc8465f90a27E, symObjAddr: 0x5450, symBinAddr: 0x1000092B0, symSize: 0x20 }
  - { offsetInCU: 0x1E3A2, offset: 0x1FACB, size: 0x8, addend: 0x0, symName: __ZN4core3fmt5Write9write_fmt17hf28863a831941434E, symObjAddr: 0x5470, symBinAddr: 0x1000092D0, symSize: 0x20 }
  - { offsetInCU: 0x1E3EE, offset: 0x1FB17, size: 0x8, addend: 0x0, symName: '__ZN53_$LT$core..fmt..Error$u20$as$u20$core..fmt..Debug$GT$3fmt17h03dc662ab152f3aeE', symObjAddr: 0xF810, symBinAddr: 0x1000132D0, symSize: 0x20 }
  - { offsetInCU: 0x1E46E, offset: 0x1FB97, size: 0x8, addend: 0x0, symName: '__ZN4core3ops8function6FnOnce40call_once$u7b$$u7b$vtable.shim$u7d$$u7d$17h4bff2be4a6c4a17dE', symObjAddr: 0x54D0, symBinAddr: 0x1000092F0, symSize: 0x1D0 }
  - { offsetInCU: 0x1EA31, offset: 0x2015A, size: 0x8, addend: 0x0, symName: '__ZN4core3ops8function6FnOnce40call_once$u7b$$u7b$vtable.shim$u7d$$u7d$17hf026fbe650d8010cE', symObjAddr: 0x56A0, symBinAddr: 0x1000094C0, symSize: 0xA0 }
  - { offsetInCU: 0x1EEB7, offset: 0x205E0, size: 0x8, addend: 0x0, symName: '__ZN106_$LT$core..iter..adapters..GenericShunt$LT$I$C$R$GT$$u20$as$u20$core..iter..traits..iterator..Iterator$GT$4next17hb814cf08e07900b8E', symObjAddr: 0x440, symBinAddr: 0x100004490, symSize: 0x180 }
  - { offsetInCU: 0x1F3FA, offset: 0x20B23, size: 0x8, addend: 0x0, symName: __ZN4core4iter8adapters11try_process17h1b571b6acf7b2a04E, symObjAddr: 0xB380, symBinAddr: 0x10000EE80, symSize: 0x220 }
  - { offsetInCU: 0x1F8C7, offset: 0x20FF0, size: 0x8, addend: 0x0, symName: __ZN4core4iter8adapters11try_process17h244902ae40f67c72E, symObjAddr: 0xB5A0, symBinAddr: 0x10000F0A0, symSize: 0x590 }
  - { offsetInCU: 0x20752, offset: 0x21E7B, size: 0x8, addend: 0x0, symName: __ZN4core4iter8adapters11try_process17h4535ab1a284d05d7E, symObjAddr: 0xBB30, symBinAddr: 0x10000F630, symSize: 0x680 }
  - { offsetInCU: 0x21542, offset: 0x22C6B, size: 0x8, addend: 0x0, symName: __ZN4core4iter8adapters11try_process17h82385c956d1ff1c2E, symObjAddr: 0xC1B0, symBinAddr: 0x10000FCB0, symSize: 0x3C0 }
  - { offsetInCU: 0x23177, offset: 0x248A0, size: 0x8, addend: 0x0, symName: '__ZN4core3str21_$LT$impl$u20$str$GT$12trim_matches17hdc7b2fcb0c099d92E', symObjAddr: 0xA990, symBinAddr: 0x10000E590, symSize: 0x2A0 }
  - { offsetInCU: 0x23752, offset: 0x24E7B, size: 0x8, addend: 0x0, symName: '__ZN4core3str7pattern13simd_contains28_$u7b$$u7b$closure$u7d$$u7d$17h657b9502e79cee02E', symObjAddr: 0xAC30, symBinAddr: 0x1000A2090, symSize: 0x100 }
  - { offsetInCU: 0x238BF, offset: 0x24FE8, size: 0x8, addend: 0x0, symName: __ZN4core3str7pattern14TwoWaySearcher4next17h4e0714793955fa64E, symObjAddr: 0xAD30, symBinAddr: 0x10000E830, symSize: 0x200 }
  - { offsetInCU: 0x23A05, offset: 0x2512E, size: 0x8, addend: 0x0, symName: '__ZN55_$LT$$RF$str$u20$as$u20$core..str..pattern..Pattern$GT$15is_contained_in17h3b44ad7441fe57baE', symObjAddr: 0xF830, symBinAddr: 0x1000132F0, symSize: 0x540 }
  - { offsetInCU: 0x23F06, offset: 0x2562F, size: 0x8, addend: 0x0, symName: '__ZN80_$LT$core..str..pattern..StrSearcher$u20$as$u20$core..str..pattern..Searcher$GT$10next_match17hc546c55aa87fd2fbE', symObjAddr: 0x11F00, symBinAddr: 0x1000156D0, symSize: 0x1D0 }
  - { offsetInCU: 0x24079, offset: 0x257A2, size: 0x8, addend: 0x0, symName: '__ZN81_$LT$core..str..pattern..CharSearcher$u20$as$u20$core..str..pattern..Searcher$GT$10next_match17had7e2e2870f26130E', symObjAddr: 0x12360, symBinAddr: 0x100015B30, symSize: 0x210 }
  - { offsetInCU: 0x250A0, offset: 0x267C9, size: 0x8, addend: 0x0, symName: '__ZN36_$LT$T$u20$as$u20$core..any..Any$GT$7type_id17h9cd3355b63b0e643E', symObjAddr: 0x5C0, symBinAddr: 0x100004610, symSize: 0x20 }
  - { offsetInCU: 0x26F39, offset: 0x28662, size: 0x8, addend: 0x0, symName: '__ZN71_$LT$core..hash..sip..Hasher$LT$S$GT$$u20$as$u20$core..hash..Hasher$GT$5write17hb4e1e69e4b737423E', symObjAddr: 0x11CC0, symBinAddr: 0x100015490, symSize: 0x1E0 }
  - { offsetInCU: 0x27376, offset: 0x28A9F, size: 0x8, addend: 0x0, symName: __ZN4core4hash11BuildHasher8hash_one17h162c379d2ca20ee0E, symObjAddr: 0xAF30, symBinAddr: 0x10000EA30, symSize: 0x170 }
  - { offsetInCU: 0x27612, offset: 0x28D3B, size: 0x8, addend: 0x0, symName: __ZN4core4hash11BuildHasher8hash_one17ha0ac445cce58c3c0E, symObjAddr: 0xB0A0, symBinAddr: 0x10000EBA0, symSize: 0x170 }
  - { offsetInCU: 0x278C4, offset: 0x28FED, size: 0x8, addend: 0x0, symName: __ZN4core4hash11BuildHasher8hash_one17hcc4103e66d69877dE, symObjAddr: 0xB210, symBinAddr: 0x10000ED10, symSize: 0x170 }
  - { offsetInCU: 0x27B92, offset: 0x292BB, size: 0x8, addend: 0x0, symName: __ZN4core5error5Error5cause17h354b720d7a6e2ea4E, symObjAddr: 0xC570, symBinAddr: 0x100010070, symSize: 0x10 }
  - { offsetInCU: 0x27BAB, offset: 0x292D4, size: 0x8, addend: 0x0, symName: __ZN4core5error5Error7provide17hddc2f59301d8b43cE, symObjAddr: 0xC580, symBinAddr: 0x100010080, symSize: 0x10 }
  - { offsetInCU: 0x27BC4, offset: 0x292ED, size: 0x8, addend: 0x0, symName: __ZN4core5error5Error7type_id17h60e1719a8964110eE, symObjAddr: 0xC590, symBinAddr: 0x100010090, symSize: 0x20 }
  - { offsetInCU: 0x27C17, offset: 0x29340, size: 0x8, addend: 0x0, symName: __ZN4core9panicking13assert_failed17h3d93ccc6e79c2340E, symObjAddr: 0xF740, symBinAddr: 0x1000A2190, symSize: 0x40 }
  - { offsetInCU: 0x27D5E, offset: 0x29487, size: 0x8, addend: 0x0, symName: __ZN4test7helpers7metrics9MetricMap13insert_metric17h3064bd1133a70dc5E, symObjAddr: 0x30970, symBinAddr: 0x100033190, symSize: 0xCE0 }
  - { offsetInCU: 0x28EF3, offset: 0x2A61C, size: 0x8, addend: 0x0, symName: __ZN4test7helpers7shuffle13shuffle_tests17h4da8fc49faf6ceeaE, symObjAddr: 0x31C20, symBinAddr: 0x100033E70, symSize: 0x640 }
  - { offsetInCU: 0x298FE, offset: 0x2B027, size: 0x8, addend: 0x0, symName: __ZN4test7helpers11concurrency15get_concurrency17h4723e7114b85234aE, symObjAddr: 0x30780, symBinAddr: 0x100032FA0, symSize: 0x1F0 }
  - { offsetInCU: 0x29D3A, offset: 0x2B463, size: 0x8, addend: 0x0, symName: '__ZN60_$LT$test..types..TestName$u20$as$u20$core..fmt..Display$GT$3fmt17h69d65b84b1ecc4f1E', symObjAddr: 0x3A5B0, symBinAddr: 0x10003BC20, symSize: 0x30 }
  - { offsetInCU: 0x29E88, offset: 0x2B5B1, size: 0x8, addend: 0x0, symName: __ZN4test5types8TestDesc11padded_name17hbdc6860cca2d29b9E, symObjAddr: 0x3A850, symBinAddr: 0x10003BE90, symSize: 0x1A0 }
  - { offsetInCU: 0x2A315, offset: 0x2BA3E, size: 0x8, addend: 0x0, symName: __ZN4test5types12RunnableTest3run17he908c078db446aa4E, symObjAddr: 0x3A610, symBinAddr: 0x10003BC50, symSize: 0x240 }
  - { offsetInCU: 0x2A503, offset: 0x2BC2C, size: 0x8, addend: 0x0, symName: '__ZN82_$LT$test..term..terminfo..TerminfoTerminal$LT$T$GT$$u20$as$u20$std..io..Write$GT$5write17h42b9dd253235ef93E', symObjAddr: 0x394A0, symBinAddr: 0x10003AF70, symSize: 0x20 }
  - { offsetInCU: 0x2A516, offset: 0x2BC3F, size: 0x8, addend: 0x0, symName: '__ZN82_$LT$test..term..terminfo..TerminfoTerminal$LT$T$GT$$u20$as$u20$std..io..Write$GT$5flush17h3046d86ea45889b5E', symObjAddr: 0x394C0, symBinAddr: 0x10003AF90, symSize: 0x20 }
  - { offsetInCU: 0x2A5C3, offset: 0x2BCEC, size: 0x8, addend: 0x0, symName: __ZN4test4term8terminfo6parser8compiled9read_byte17hada544d7dc2e9539E, symObjAddr: 0x369D0, symBinAddr: 0x1000384A0, symSize: 0x1A0 }
  - { offsetInCU: 0x2A8B8, offset: 0x2BFE1, size: 0x8, addend: 0x0, symName: __ZN4test4term8terminfo8TermInfo8from_env17h637b8818242e8224E, symObjAddr: 0x338C0, symBinAddr: 0x100035390, symSize: 0x3110 }
  - { offsetInCU: 0x2FA73, offset: 0x3119C, size: 0x8, addend: 0x0, symName: __ZN4test4term8terminfo4parm6expand17h81a7014ac029a039E, symObjAddr: 0x36B70, symBinAddr: 0x100038640, symSize: 0x1DA0 }
  - { offsetInCU: 0x31D43, offset: 0x3346C, size: 0x8, addend: 0x0, symName: __ZN4test4term8terminfo4parm6format17he7c61dc37741ea37E, symObjAddr: 0x38910, symBinAddr: 0x10003A3E0, symSize: 0x5D0 }
  - { offsetInCU: 0x3244A, offset: 0x33B73, size: 0x8, addend: 0x0, symName: '__ZN88_$LT$test..term..terminfo..TerminfoTerminal$LT$T$GT$$u20$as$u20$test..term..Terminal$GT$2fg17hb2e191a704c3aad3E', symObjAddr: 0x38EE0, symBinAddr: 0x10003A9B0, symSize: 0x240 }
  - { offsetInCU: 0x328A3, offset: 0x33FCC, size: 0x8, addend: 0x0, symName: '__ZN88_$LT$test..term..terminfo..TerminfoTerminal$LT$T$GT$$u20$as$u20$test..term..Terminal$GT$5reset17h9aaad60d94c85b0bE', symObjAddr: 0x39120, symBinAddr: 0x10003ABF0, symSize: 0x380 }
  - { offsetInCU: 0x32C23, offset: 0x3434C, size: 0x8, addend: 0x0, symName: __ZN4test4term6stdout17h36329551698378daE, symObjAddr: 0x394E0, symBinAddr: 0x10003AFB0, symSize: 0x610 }
  - { offsetInCU: 0x33856, offset: 0x34F7F, size: 0x8, addend: 0x0, symName: '__ZN4test7console17run_tests_console28_$u7b$$u7b$closure$u7d$$u7d$17h910438855cafcdfcE', symObjAddr: 0x1DF00, symBinAddr: 0x1000207F0, symSize: 0x1750 }
  - { offsetInCU: 0x35318, offset: 0x36A41, size: 0x8, addend: 0x0, symName: __ZN4test7console17run_tests_console17h143124ff819ac898E, symObjAddr: 0x1A8A0, symBinAddr: 0x10001D190, symSize: 0x3660 }
  - { offsetInCU: 0x38377, offset: 0x39AA0, size: 0x8, addend: 0x0, symName: '__ZN4test8run_test28_$u7b$$u7b$closure$u7d$$u7d$17hd37a293522e934eaE', symObjAddr: 0x3FAC0, symBinAddr: 0x100040970, symSize: 0x960 }
  - { offsetInCU: 0x39151, offset: 0x3A87A, size: 0x8, addend: 0x0, symName: __ZN4test4time13TimeThreshold12from_env_var17hc88dbccff10e5330E, symObjAddr: 0x3A020, symBinAddr: 0x10003B930, symSize: 0x2F0 }
  - { offsetInCU: 0x39520, offset: 0x3AC49, size: 0x8, addend: 0x0, symName: '__ZN52_$LT$$u5b$f64$u5d$$u20$as$u20$test..stats..Stats$GT$3sum17h051993aa1614e21eE', symObjAddr: 0x326E0, symBinAddr: 0x100034930, symSize: 0x250 }
  - { offsetInCU: 0x3981A, offset: 0x3AF43, size: 0x8, addend: 0x0, symName: '__ZN52_$LT$$u5b$f64$u5d$$u20$as$u20$test..stats..Stats$GT$14median_abs_dev17h4f13fe318778d502E', symObjAddr: 0x32DE0, symBinAddr: 0x100034B80, symSize: 0x170 }
  - { offsetInCU: 0x39B29, offset: 0x3B252, size: 0x8, addend: 0x0, symName: '__ZN52_$LT$$u5b$f64$u5d$$u20$as$u20$test..stats..Stats$GT$10percentile17h588dd71df65716a5E', symObjAddr: 0x32FA0, symBinAddr: 0x100034CF0, symSize: 0x1A0 }
  - { offsetInCU: 0x39ECC, offset: 0x3B5F5, size: 0x8, addend: 0x0, symName: '__ZN52_$LT$$u5b$f64$u5d$$u20$as$u20$test..stats..Stats$GT$9quartiles17h8e47a77958fac227E', symObjAddr: 0x33140, symBinAddr: 0x100034E90, symSize: 0x3A0 }
  - { offsetInCU: 0x3A2D3, offset: 0x3B9FC, size: 0x8, addend: 0x0, symName: __ZN4test5stats7Summary3new17h9034de2e54f50f62E, symObjAddr: 0x32260, symBinAddr: 0x1000344B0, symSize: 0x480 }
  - { offsetInCU: 0x3A54B, offset: 0x3BC74, size: 0x8, addend: 0x0, symName: __ZN4test5stats20percentile_of_sorted17hb5647c7b89c90c55E, symObjAddr: 0x33510, symBinAddr: 0x100035230, symSize: 0x160 }
  - { offsetInCU: 0x3A5C8, offset: 0x3BCF1, size: 0x8, addend: 0x0, symName: __ZN4test5bench17fmt_bench_samples17h1dab14379022a16dE, symObjAddr: 0x15C80, symBinAddr: 0x1000185B0, symSize: 0x2E0 }
  - { offsetInCU: 0x3A8E4, offset: 0x3C00D, size: 0x8, addend: 0x0, symName: __ZN4test5bench17fmt_thousands_sep17h57e086afc05d4094E, symObjAddr: 0x15F60, symBinAddr: 0x100018890, symSize: 0x650 }
  - { offsetInCU: 0x3ACA1, offset: 0x3C3CA, size: 0x8, addend: 0x0, symName: __ZN4test3cli10parse_opts17h2bb604749947218aE, symObjAddr: 0x165F0, symBinAddr: 0x100018EE0, symSize: 0x3A90 }
  - { offsetInCU: 0x3F970, offset: 0x41099, size: 0x8, addend: 0x0, symName: __ZN4test3cli16get_test_threads17h165419319cd18797E, symObjAddr: 0x1A080, symBinAddr: 0x10001C970, symSize: 0x200 }
  - { offsetInCU: 0x3FCAC, offset: 0x413D5, size: 0x8, addend: 0x0, symName: __ZN4test3cli10get_format17hd125a03abda34e02E, symObjAddr: 0x1A280, symBinAddr: 0x10001CB70, symSize: 0x260 }
  - { offsetInCU: 0x40270, offset: 0x41999, size: 0x8, addend: 0x0, symName: __ZN4test3cli16get_color_config17h302a36f0fafdef11E, symObjAddr: 0x1A4E0, symBinAddr: 0x10001CDD0, symSize: 0x190 }
  - { offsetInCU: 0x40600, offset: 0x41D29, size: 0x8, addend: 0x0, symName: __ZN4test3cli13get_nocapture17h3a5394cd120b8550E, symObjAddr: 0x1A670, symBinAddr: 0x10001CF60, symSize: 0xB0 }
  - { offsetInCU: 0x40789, offset: 0x41EB2, size: 0x8, addend: 0x0, symName: __ZN4test3cli15get_run_ignored17h5b1efae791257277E, symObjAddr: 0x1A720, symBinAddr: 0x10001D010, symSize: 0xB0 }
  - { offsetInCU: 0x408D2, offset: 0x41FFB, size: 0x8, addend: 0x0, symName: __ZN4test3cli12get_log_file17h27c0a1357938f86cE, symObjAddr: 0x1A7D0, symBinAddr: 0x10001D0C0, symSize: 0xD0 }
  - { offsetInCU: 0x40A8A, offset: 0x421B3, size: 0x8, addend: 0x0, symName: '__ZN4test10formatters4json22JsonFormatter$LT$T$GT$11write_event17h9447dc9e8dbf1142E', symObjAddr: 0x1F650, symBinAddr: 0x100021F40, symSize: 0x6B0 }
  - { offsetInCU: 0x415A9, offset: 0x42CD2, size: 0x8, addend: 0x0, symName: '__ZN4test10formatters4json22JsonFormatter$LT$T$GT$11write_event17h985748155a701d64E', symObjAddr: 0x1FD00, symBinAddr: 0x1000225F0, symSize: 0x6B0 }
  - { offsetInCU: 0x420C2, offset: 0x437EB, size: 0x8, addend: 0x0, symName: '__ZN100_$LT$test..formatters..json..JsonFormatter$LT$T$GT$$u20$as$u20$test..formatters..OutputFormatter$GT$21write_discovery_start17h232e2def9172ea52E', symObjAddr: 0x203B0, symBinAddr: 0x100022CA0, symSize: 0x20 }
  - { offsetInCU: 0x420F0, offset: 0x43819, size: 0x8, addend: 0x0, symName: '__ZN100_$LT$test..formatters..json..JsonFormatter$LT$T$GT$$u20$as$u20$test..formatters..OutputFormatter$GT$21write_discovery_start17hd139c6f0240a534fE', symObjAddr: 0x203D0, symBinAddr: 0x100022CC0, symSize: 0x20 }
  - { offsetInCU: 0x4211E, offset: 0x43847, size: 0x8, addend: 0x0, symName: '__ZN100_$LT$test..formatters..json..JsonFormatter$LT$T$GT$$u20$as$u20$test..formatters..OutputFormatter$GT$21write_test_discovered17h7f1bb7759ecaa209E', symObjAddr: 0x203F0, symBinAddr: 0x100022CE0, symSize: 0x2C0 }
  - { offsetInCU: 0x423F1, offset: 0x43B1A, size: 0x8, addend: 0x0, symName: '__ZN100_$LT$test..formatters..json..JsonFormatter$LT$T$GT$$u20$as$u20$test..formatters..OutputFormatter$GT$21write_test_discovered17hf000531a0848470bE', symObjAddr: 0x206B0, symBinAddr: 0x100022FA0, symSize: 0x2C0 }
  - { offsetInCU: 0x426C4, offset: 0x43DED, size: 0x8, addend: 0x0, symName: '__ZN100_$LT$test..formatters..json..JsonFormatter$LT$T$GT$$u20$as$u20$test..formatters..OutputFormatter$GT$22write_discovery_finish17h92192bab86fa6eefE', symObjAddr: 0x20970, symBinAddr: 0x100023260, symSize: 0x1E0 }
  - { offsetInCU: 0x42998, offset: 0x440C1, size: 0x8, addend: 0x0, symName: '__ZN100_$LT$test..formatters..json..JsonFormatter$LT$T$GT$$u20$as$u20$test..formatters..OutputFormatter$GT$22write_discovery_finish17hcab5eb96bbf8ec09E', symObjAddr: 0x20B50, symBinAddr: 0x100023440, symSize: 0x1E0 }
  - { offsetInCU: 0x42C6C, offset: 0x44395, size: 0x8, addend: 0x0, symName: '__ZN100_$LT$test..formatters..json..JsonFormatter$LT$T$GT$$u20$as$u20$test..formatters..OutputFormatter$GT$15write_run_start17h28083fdc754f4937E', symObjAddr: 0x20D30, symBinAddr: 0x100023620, symSize: 0x260 }
  - { offsetInCU: 0x4317A, offset: 0x448A3, size: 0x8, addend: 0x0, symName: '__ZN100_$LT$test..formatters..json..JsonFormatter$LT$T$GT$$u20$as$u20$test..formatters..OutputFormatter$GT$15write_run_start17h62501669fd47d224E', symObjAddr: 0x20F90, symBinAddr: 0x100023880, symSize: 0x260 }
  - { offsetInCU: 0x43688, offset: 0x44DB1, size: 0x8, addend: 0x0, symName: '__ZN100_$LT$test..formatters..json..JsonFormatter$LT$T$GT$$u20$as$u20$test..formatters..OutputFormatter$GT$16write_test_start17h2d4dd76e28376148E', symObjAddr: 0x211F0, symBinAddr: 0x100023AE0, symSize: 0x1A0 }
  - { offsetInCU: 0x43947, offset: 0x45070, size: 0x8, addend: 0x0, symName: '__ZN100_$LT$test..formatters..json..JsonFormatter$LT$T$GT$$u20$as$u20$test..formatters..OutputFormatter$GT$16write_test_start17hb20b1e9b16536af5E', symObjAddr: 0x21390, symBinAddr: 0x100023C80, symSize: 0x1A0 }
  - { offsetInCU: 0x43C24, offset: 0x4534D, size: 0x8, addend: 0x0, symName: '__ZN100_$LT$test..formatters..json..JsonFormatter$LT$T$GT$$u20$as$u20$test..formatters..OutputFormatter$GT$12write_result17h74f423d01fbacbf3E', symObjAddr: 0x21530, symBinAddr: 0x100023E20, symSize: 0x7A0 }
  - { offsetInCU: 0x446B8, offset: 0x45DE1, size: 0x8, addend: 0x0, symName: '__ZN100_$LT$test..formatters..json..JsonFormatter$LT$T$GT$$u20$as$u20$test..formatters..OutputFormatter$GT$12write_result17hf560e9e7ee059eadE', symObjAddr: 0x21CD0, symBinAddr: 0x1000245C0, symSize: 0x7A0 }
  - { offsetInCU: 0x4514C, offset: 0x46875, size: 0x8, addend: 0x0, symName: '__ZN100_$LT$test..formatters..json..JsonFormatter$LT$T$GT$$u20$as$u20$test..formatters..OutputFormatter$GT$13write_timeout17h167ad613ed34d48dE', symObjAddr: 0x22470, symBinAddr: 0x100024D60, symSize: 0x1A0 }
  - { offsetInCU: 0x4540B, offset: 0x46B34, size: 0x8, addend: 0x0, symName: '__ZN100_$LT$test..formatters..json..JsonFormatter$LT$T$GT$$u20$as$u20$test..formatters..OutputFormatter$GT$13write_timeout17h4e1ca00497bc8900E', symObjAddr: 0x22610, symBinAddr: 0x100024F00, symSize: 0x1A0 }
  - { offsetInCU: 0x456CA, offset: 0x46DF3, size: 0x8, addend: 0x0, symName: '__ZN100_$LT$test..formatters..json..JsonFormatter$LT$T$GT$$u20$as$u20$test..formatters..OutputFormatter$GT$16write_run_finish17h6ad34d852d80bb2eE', symObjAddr: 0x227B0, symBinAddr: 0x1000250A0, symSize: 0x3D0 }
  - { offsetInCU: 0x45BDA, offset: 0x47303, size: 0x8, addend: 0x0, symName: '__ZN100_$LT$test..formatters..json..JsonFormatter$LT$T$GT$$u20$as$u20$test..formatters..OutputFormatter$GT$16write_run_finish17h796927528668a59bE', symObjAddr: 0x22B80, symBinAddr: 0x100025470, symSize: 0x3D0 }
  - { offsetInCU: 0x460F0, offset: 0x47819, size: 0x8, addend: 0x0, symName: '__ZN85_$LT$test..formatters..json..EscapedString$LT$S$GT$$u20$as$u20$core..fmt..Display$GT$3fmt17h3cc98eebd83650a6E', symObjAddr: 0x22F50, symBinAddr: 0x100025840, symSize: 0x840 }
  - { offsetInCU: 0x46401, offset: 0x47B2A, size: 0x8, addend: 0x0, symName: '__ZN85_$LT$test..formatters..json..EscapedString$LT$S$GT$$u20$as$u20$core..fmt..Display$GT$3fmt17h740fba3f07fa05a5E', symObjAddr: 0x23790, symBinAddr: 0x100026080, symSize: 0x7A0 }
  - { offsetInCU: 0x46731, offset: 0x47E5A, size: 0x8, addend: 0x0, symName: '__ZN85_$LT$test..formatters..json..EscapedString$LT$S$GT$$u20$as$u20$core..fmt..Display$GT$3fmt17h8599f95a77a2068cE', symObjAddr: 0x23F30, symBinAddr: 0x100026820, symSize: 0x7A0 }
  - { offsetInCU: 0x46A61, offset: 0x4818A, size: 0x8, addend: 0x0, symName: '__ZN85_$LT$test..formatters..json..EscapedString$LT$S$GT$$u20$as$u20$core..fmt..Display$GT$3fmt17hf1320beb5bda4e2cE', symObjAddr: 0x246D0, symBinAddr: 0x100026FC0, symSize: 0x840 }
  - { offsetInCU: 0x46D60, offset: 0x48489, size: 0x8, addend: 0x0, symName: '__ZN4test10formatters5junit23JunitFormatter$LT$T$GT$13write_message17hc4f09db70a32a16cE', symObjAddr: 0x24F10, symBinAddr: 0x100027800, symSize: 0x80 }
  - { offsetInCU: 0x46E15, offset: 0x4853E, size: 0x8, addend: 0x0, symName: __ZN4test10formatters5junit12str_to_cdata17ha06526c6eb093b9cE, symObjAddr: 0x24F90, symBinAddr: 0x100027880, symSize: 0x3B0 }
  - { offsetInCU: 0x47818, offset: 0x48F41, size: 0x8, addend: 0x0, symName: '__ZN102_$LT$test..formatters..junit..JunitFormatter$LT$T$GT$$u20$as$u20$test..formatters..OutputFormatter$GT$21write_discovery_start17hbc94f7970b3ba231E', symObjAddr: 0x25340, symBinAddr: 0x100027C30, symSize: 0x20 }
  - { offsetInCU: 0x47831, offset: 0x48F5A, size: 0x8, addend: 0x0, symName: '__ZN102_$LT$test..formatters..junit..JunitFormatter$LT$T$GT$$u20$as$u20$test..formatters..OutputFormatter$GT$21write_test_discovered17hf2b6606bbfdd8f43E', symObjAddr: 0x25360, symBinAddr: 0x100027C50, symSize: 0x20 }
  - { offsetInCU: 0x4784A, offset: 0x48F73, size: 0x8, addend: 0x0, symName: '__ZN102_$LT$test..formatters..junit..JunitFormatter$LT$T$GT$$u20$as$u20$test..formatters..OutputFormatter$GT$22write_discovery_finish17h6c7b71b3b8481f2aE', symObjAddr: 0x25380, symBinAddr: 0x100027C70, symSize: 0x20 }
  - { offsetInCU: 0x47863, offset: 0x48F8C, size: 0x8, addend: 0x0, symName: '__ZN102_$LT$test..formatters..junit..JunitFormatter$LT$T$GT$$u20$as$u20$test..formatters..OutputFormatter$GT$15write_run_start17h06ef6b8bdbe34feeE', symObjAddr: 0x253A0, symBinAddr: 0x100027C90, symSize: 0x60 }
  - { offsetInCU: 0x47911, offset: 0x4903A, size: 0x8, addend: 0x0, symName: '__ZN102_$LT$test..formatters..junit..JunitFormatter$LT$T$GT$$u20$as$u20$test..formatters..OutputFormatter$GT$13write_timeout17hd12a077663920fe4E', symObjAddr: 0x25400, symBinAddr: 0x100027CF0, symSize: 0x10 }
  - { offsetInCU: 0x4793C, offset: 0x49065, size: 0x8, addend: 0x0, symName: '__ZN102_$LT$test..formatters..junit..JunitFormatter$LT$T$GT$$u20$as$u20$test..formatters..OutputFormatter$GT$12write_result17h589bef7de8bc0864E', symObjAddr: 0x25410, symBinAddr: 0x100027D00, symSize: 0x420 }
  - { offsetInCU: 0x47CB4, offset: 0x493DD, size: 0x8, addend: 0x0, symName: '__ZN102_$LT$test..formatters..junit..JunitFormatter$LT$T$GT$$u20$as$u20$test..formatters..OutputFormatter$GT$16write_run_finish17h275e66315c93a30aE', symObjAddr: 0x25830, symBinAddr: 0x100028120, symSize: 0x15D0 }
  - { offsetInCU: 0x4A144, offset: 0x4B86D, size: 0x8, addend: 0x0, symName: __ZN4test10formatters5junit16parse_class_name17ha7061e2e001e4381E, symObjAddr: 0x26E00, symBinAddr: 0x1000296F0, symSize: 0x880 }
  - { offsetInCU: 0x4B6F3, offset: 0x4CE1C, size: 0x8, addend: 0x0, symName: '__ZN4test10formatters6pretty24PrettyFormatter$LT$T$GT$11write_plain17h9749b07f18ced238E', symObjAddr: 0x27680, symBinAddr: 0x100029F70, symSize: 0x40 }
  - { offsetInCU: 0x4B744, offset: 0x4CE6D, size: 0x8, addend: 0x0, symName: '__ZN4test10formatters6pretty24PrettyFormatter$LT$T$GT$11write_plain17ha7a13184d882153eE', symObjAddr: 0x276C0, symBinAddr: 0x100029FB0, symSize: 0x90 }
  - { offsetInCU: 0x4B8C1, offset: 0x4CFEA, size: 0x8, addend: 0x0, symName: '__ZN4test10formatters6pretty24PrettyFormatter$LT$T$GT$11write_plain17hc6bd3a7398500187E', symObjAddr: 0x27750, symBinAddr: 0x10002A040, symSize: 0x90 }
  - { offsetInCU: 0x4BA3E, offset: 0x4D167, size: 0x8, addend: 0x0, symName: '__ZN4test10formatters6pretty24PrettyFormatter$LT$T$GT$11write_plain17he07b2e6017d895c1E', symObjAddr: 0x277E0, symBinAddr: 0x10002A0D0, symSize: 0x40 }
  - { offsetInCU: 0x4BAA7, offset: 0x4D1D0, size: 0x8, addend: 0x0, symName: '__ZN4test10formatters6pretty24PrettyFormatter$LT$T$GT$13write_results17hbc5b88d449eb3160E', symObjAddr: 0x27820, symBinAddr: 0x10002A110, symSize: 0xA00 }
  - { offsetInCU: 0x4CE9F, offset: 0x4E5C8, size: 0x8, addend: 0x0, symName: '__ZN4test10formatters6pretty24PrettyFormatter$LT$T$GT$13write_results17hbd9e1eddd6a91916E', symObjAddr: 0x28220, symBinAddr: 0x10002AB10, symSize: 0xA00 }
  - { offsetInCU: 0x4E28B, offset: 0x4F9B4, size: 0x8, addend: 0x0, symName: '__ZN4test10formatters6pretty24PrettyFormatter$LT$T$GT$15write_test_name17h96df6cd6699ce9f2E', symObjAddr: 0x28C20, symBinAddr: 0x10002B510, symSize: 0x2B0 }
  - { offsetInCU: 0x4E6A6, offset: 0x4FDCF, size: 0x8, addend: 0x0, symName: '__ZN4test10formatters6pretty24PrettyFormatter$LT$T$GT$15write_test_name17ha8e4258e7c5951bcE', symObjAddr: 0x28ED0, symBinAddr: 0x10002B7C0, symSize: 0x2B0 }
  - { offsetInCU: 0x4EBDB, offset: 0x50304, size: 0x8, addend: 0x0, symName: '__ZN104_$LT$test..formatters..pretty..PrettyFormatter$LT$T$GT$$u20$as$u20$test..formatters..OutputFormatter$GT$21write_test_discovered17h5381da117592dfffE', symObjAddr: 0x29180, symBinAddr: 0x10002BA70, symSize: 0x100 }
  - { offsetInCU: 0x4EE54, offset: 0x5057D, size: 0x8, addend: 0x0, symName: '__ZN104_$LT$test..formatters..pretty..PrettyFormatter$LT$T$GT$$u20$as$u20$test..formatters..OutputFormatter$GT$21write_test_discovered17h9eb413b4b2a711e3E', symObjAddr: 0x29280, symBinAddr: 0x10002BB70, symSize: 0x100 }
  - { offsetInCU: 0x4F0DF, offset: 0x50808, size: 0x8, addend: 0x0, symName: '__ZN104_$LT$test..formatters..pretty..PrettyFormatter$LT$T$GT$$u20$as$u20$test..formatters..OutputFormatter$GT$22write_discovery_finish17hb69a61c05897d53bE', symObjAddr: 0x29380, symBinAddr: 0x10002BC70, symSize: 0x3B0 }
  - { offsetInCU: 0x4F68A, offset: 0x50DB3, size: 0x8, addend: 0x0, symName: '__ZN104_$LT$test..formatters..pretty..PrettyFormatter$LT$T$GT$$u20$as$u20$test..formatters..OutputFormatter$GT$22write_discovery_finish17hb90f05cf762e1b18E', symObjAddr: 0x29730, symBinAddr: 0x10002C020, symSize: 0x3B0 }
  - { offsetInCU: 0x4FC35, offset: 0x5135E, size: 0x8, addend: 0x0, symName: '__ZN104_$LT$test..formatters..pretty..PrettyFormatter$LT$T$GT$$u20$as$u20$test..formatters..OutputFormatter$GT$15write_run_start17hcf393b47127ba6b7E', symObjAddr: 0x29BB0, symBinAddr: 0x10002C3D0, symSize: 0x200 }
  - { offsetInCU: 0x4FFD4, offset: 0x516FD, size: 0x8, addend: 0x0, symName: '__ZN104_$LT$test..formatters..pretty..PrettyFormatter$LT$T$GT$$u20$as$u20$test..formatters..OutputFormatter$GT$15write_run_start17he6a42fda93c92c32E', symObjAddr: 0x29DB0, symBinAddr: 0x10002C5D0, symSize: 0x200 }
  - { offsetInCU: 0x50373, offset: 0x51A9C, size: 0x8, addend: 0x0, symName: '__ZN104_$LT$test..formatters..pretty..PrettyFormatter$LT$T$GT$$u20$as$u20$test..formatters..OutputFormatter$GT$16write_test_start17h136dca1e2e495dfaE', symObjAddr: 0x29FB0, symBinAddr: 0x10002C7D0, symSize: 0x20 }
  - { offsetInCU: 0x5038C, offset: 0x51AB5, size: 0x8, addend: 0x0, symName: '__ZN104_$LT$test..formatters..pretty..PrettyFormatter$LT$T$GT$$u20$as$u20$test..formatters..OutputFormatter$GT$16write_test_start17h1c53200d9544db41E', symObjAddr: 0x29FD0, symBinAddr: 0x10002C7F0, symSize: 0x20 }
  - { offsetInCU: 0x503A5, offset: 0x51ACE, size: 0x8, addend: 0x0, symName: '__ZN104_$LT$test..formatters..pretty..PrettyFormatter$LT$T$GT$$u20$as$u20$test..formatters..OutputFormatter$GT$12write_result17h4c233969aa424ef4E', symObjAddr: 0x29FF0, symBinAddr: 0x10002C810, symSize: 0x9D0 }
  - { offsetInCU: 0x50F50, offset: 0x52679, size: 0x8, addend: 0x0, symName: '__ZN104_$LT$test..formatters..pretty..PrettyFormatter$LT$T$GT$$u20$as$u20$test..formatters..OutputFormatter$GT$12write_result17he628acd01546e8daE', symObjAddr: 0x2A9C0, symBinAddr: 0x10002D1E0, symSize: 0x9D0 }
  - { offsetInCU: 0x51AFB, offset: 0x53224, size: 0x8, addend: 0x0, symName: '__ZN104_$LT$test..formatters..pretty..PrettyFormatter$LT$T$GT$$u20$as$u20$test..formatters..OutputFormatter$GT$13write_timeout17h5e02d00edb1070caE', symObjAddr: 0x2B390, symBinAddr: 0x10002DBB0, symSize: 0xF0 }
  - { offsetInCU: 0x51D77, offset: 0x534A0, size: 0x8, addend: 0x0, symName: '__ZN104_$LT$test..formatters..pretty..PrettyFormatter$LT$T$GT$$u20$as$u20$test..formatters..OutputFormatter$GT$13write_timeout17hd4a04ebac78da14aE', symObjAddr: 0x2B480, symBinAddr: 0x10002DCA0, symSize: 0xF0 }
  - { offsetInCU: 0x51FF3, offset: 0x5371C, size: 0x8, addend: 0x0, symName: '__ZN104_$LT$test..formatters..pretty..PrettyFormatter$LT$T$GT$$u20$as$u20$test..formatters..OutputFormatter$GT$16write_run_finish17h55d8e184410942d9E', symObjAddr: 0x2B570, symBinAddr: 0x10002DD90, symSize: 0x460 }
  - { offsetInCU: 0x52659, offset: 0x53D82, size: 0x8, addend: 0x0, symName: '__ZN104_$LT$test..formatters..pretty..PrettyFormatter$LT$T$GT$$u20$as$u20$test..formatters..OutputFormatter$GT$16write_run_finish17hf82ff27ce96761c1E', symObjAddr: 0x2B9D0, symBinAddr: 0x10002E1F0, symSize: 0x460 }
  - { offsetInCU: 0x52CE3, offset: 0x5440C, size: 0x8, addend: 0x0, symName: '__ZN4test10formatters5terse23TerseFormatter$LT$T$GT$18write_short_result17h411034e653d05ffcE', symObjAddr: 0x2BE30, symBinAddr: 0x10002E650, symSize: 0x130 }
  - { offsetInCU: 0x52DB2, offset: 0x544DB, size: 0x8, addend: 0x0, symName: '__ZN4test10formatters5terse23TerseFormatter$LT$T$GT$18write_short_result17hc90e5c49449d7893E', symObjAddr: 0x2BF60, symBinAddr: 0x10002E780, symSize: 0x130 }
  - { offsetInCU: 0x52E81, offset: 0x545AA, size: 0x8, addend: 0x0, symName: '__ZN4test10formatters5terse23TerseFormatter$LT$T$GT$14write_progress17h161197c842912779E', symObjAddr: 0x2C090, symBinAddr: 0x10002E8B0, symSize: 0x100 }
  - { offsetInCU: 0x531C4, offset: 0x548ED, size: 0x8, addend: 0x0, symName: '__ZN4test10formatters5terse23TerseFormatter$LT$T$GT$14write_progress17ha93e91da63c5cfefE', symObjAddr: 0x2C190, symBinAddr: 0x10002E9B0, symSize: 0x100 }
  - { offsetInCU: 0x534FB, offset: 0x54C24, size: 0x8, addend: 0x0, symName: '__ZN4test10formatters5terse23TerseFormatter$LT$T$GT$11write_plain17h2424640b33559da8E', symObjAddr: 0x2C290, symBinAddr: 0x10002EAB0, symSize: 0x40 }
  - { offsetInCU: 0x5354C, offset: 0x54C75, size: 0x8, addend: 0x0, symName: '__ZN4test10formatters5terse23TerseFormatter$LT$T$GT$11write_plain17h65564b3a8d8e6d92E', symObjAddr: 0x2C2D0, symBinAddr: 0x10002EAF0, symSize: 0x40 }
  - { offsetInCU: 0x5359D, offset: 0x54CC6, size: 0x8, addend: 0x0, symName: '__ZN4test10formatters5terse23TerseFormatter$LT$T$GT$11write_plain17h9c5a87c1ef8d61f0E', symObjAddr: 0x2C310, symBinAddr: 0x10002EB30, symSize: 0x90 }
  - { offsetInCU: 0x5371A, offset: 0x54E43, size: 0x8, addend: 0x0, symName: '__ZN4test10formatters5terse23TerseFormatter$LT$T$GT$11write_plain17hefbec79088458c2aE', symObjAddr: 0x2C3A0, symBinAddr: 0x10002EBC0, symSize: 0x90 }
  - { offsetInCU: 0x53897, offset: 0x54FC0, size: 0x8, addend: 0x0, symName: '__ZN4test10formatters5terse23TerseFormatter$LT$T$GT$15write_test_name17h585cfa800efaa3c8E', symObjAddr: 0x2C430, symBinAddr: 0x10002EC50, symSize: 0x2B0 }
  - { offsetInCU: 0x53CA6, offset: 0x553CF, size: 0x8, addend: 0x0, symName: '__ZN4test10formatters5terse23TerseFormatter$LT$T$GT$15write_test_name17hb0c94c5a8cb14ea1E', symObjAddr: 0x2C6E0, symBinAddr: 0x10002EF00, symSize: 0x2B0 }
  - { offsetInCU: 0x5417B, offset: 0x558A4, size: 0x8, addend: 0x0, symName: '__ZN102_$LT$test..formatters..terse..TerseFormatter$LT$T$GT$$u20$as$u20$test..formatters..OutputFormatter$GT$21write_discovery_start17h19f657598025a7e1E', symObjAddr: 0x2C990, symBinAddr: 0x10002F1B0, symSize: 0x10 }
  - { offsetInCU: 0x54194, offset: 0x558BD, size: 0x8, addend: 0x0, symName: '__ZN102_$LT$test..formatters..terse..TerseFormatter$LT$T$GT$$u20$as$u20$test..formatters..OutputFormatter$GT$21write_test_discovered17h2376812288cb1141E', symObjAddr: 0x2C9A0, symBinAddr: 0x10002F1C0, symSize: 0x100 }
  - { offsetInCU: 0x5440D, offset: 0x55B36, size: 0x8, addend: 0x0, symName: '__ZN102_$LT$test..formatters..terse..TerseFormatter$LT$T$GT$$u20$as$u20$test..formatters..OutputFormatter$GT$21write_test_discovered17hc76f3e559681312fE', symObjAddr: 0x2CAA0, symBinAddr: 0x10002F2C0, symSize: 0x100 }
  - { offsetInCU: 0x54686, offset: 0x55DAF, size: 0x8, addend: 0x0, symName: '__ZN102_$LT$test..formatters..terse..TerseFormatter$LT$T$GT$$u20$as$u20$test..formatters..OutputFormatter$GT$15write_run_start17hd567b317e7bc9744E', symObjAddr: 0x2CBA0, symBinAddr: 0x10002F3C0, symSize: 0x210 }
  - { offsetInCU: 0x54A25, offset: 0x5614E, size: 0x8, addend: 0x0, symName: '__ZN102_$LT$test..formatters..terse..TerseFormatter$LT$T$GT$$u20$as$u20$test..formatters..OutputFormatter$GT$15write_run_start17hff23d2e89c0fc3fcE', symObjAddr: 0x2CDB0, symBinAddr: 0x10002F5D0, symSize: 0x210 }
  - { offsetInCU: 0x54DC4, offset: 0x564ED, size: 0x8, addend: 0x0, symName: '__ZN102_$LT$test..formatters..terse..TerseFormatter$LT$T$GT$$u20$as$u20$test..formatters..OutputFormatter$GT$16write_test_start17h013dba6cfc5fba31E', symObjAddr: 0x2CFC0, symBinAddr: 0x10002F7E0, symSize: 0x30 }
  - { offsetInCU: 0x54DF2, offset: 0x5651B, size: 0x8, addend: 0x0, symName: '__ZN102_$LT$test..formatters..terse..TerseFormatter$LT$T$GT$$u20$as$u20$test..formatters..OutputFormatter$GT$16write_test_start17hc7a084671394efa9E', symObjAddr: 0x2CFF0, symBinAddr: 0x10002F810, symSize: 0x30 }
  - { offsetInCU: 0x54E20, offset: 0x56549, size: 0x8, addend: 0x0, symName: '__ZN102_$LT$test..formatters..terse..TerseFormatter$LT$T$GT$$u20$as$u20$test..formatters..OutputFormatter$GT$12write_result17h338de0f343fe575bE', symObjAddr: 0x2D020, symBinAddr: 0x10002F840, symSize: 0x490 }
  - { offsetInCU: 0x555BA, offset: 0x56CE3, size: 0x8, addend: 0x0, symName: '__ZN102_$LT$test..formatters..terse..TerseFormatter$LT$T$GT$$u20$as$u20$test..formatters..OutputFormatter$GT$12write_result17h612c5fb8762e7c99E', symObjAddr: 0x2D4B0, symBinAddr: 0x10002FCD0, symSize: 0x490 }
  - { offsetInCU: 0x55D54, offset: 0x5747D, size: 0x8, addend: 0x0, symName: '__ZN102_$LT$test..formatters..terse..TerseFormatter$LT$T$GT$$u20$as$u20$test..formatters..OutputFormatter$GT$13write_timeout17h0f4f26c97b8e0eb4E', symObjAddr: 0x2D940, symBinAddr: 0x100030160, symSize: 0xF0 }
  - { offsetInCU: 0x55FCD, offset: 0x576F6, size: 0x8, addend: 0x0, symName: '__ZN102_$LT$test..formatters..terse..TerseFormatter$LT$T$GT$$u20$as$u20$test..formatters..OutputFormatter$GT$13write_timeout17h3bcce4c875ee3385E', symObjAddr: 0x2DA30, symBinAddr: 0x100030250, symSize: 0xF0 }
  - { offsetInCU: 0x56246, offset: 0x5796F, size: 0x8, addend: 0x0, symName: '__ZN102_$LT$test..formatters..terse..TerseFormatter$LT$T$GT$$u20$as$u20$test..formatters..OutputFormatter$GT$16write_run_finish17h37b4907d5a2984c4E', symObjAddr: 0x2DB20, symBinAddr: 0x100030340, symSize: 0x1630 }
  - { offsetInCU: 0x586CE, offset: 0x59DF7, size: 0x8, addend: 0x0, symName: '__ZN102_$LT$test..formatters..terse..TerseFormatter$LT$T$GT$$u20$as$u20$test..formatters..OutputFormatter$GT$16write_run_finish17hf8ab25e40fb22b0cE', symObjAddr: 0x2F150, symBinAddr: 0x100031970, symSize: 0x1630 }
  - { offsetInCU: 0x5ABC6, offset: 0x5C2EF, size: 0x8, addend: 0x0, symName: __ZN4test9run_tests11RunningTest4join17h99ae30b97d737ef8E, symObjAddr: 0x3C010, symBinAddr: 0x10003CF60, symSize: 0x230 }
  - { offsetInCU: 0x5B1B0, offset: 0x5C8D9, size: 0x8, addend: 0x0, symName: __ZN4test9run_tests19get_timed_out_tests17hcd337f78598eebafE, symObjAddr: 0x3C240, symBinAddr: 0x10003D190, symSize: 0x350 }
  - { offsetInCU: 0x5B7F8, offset: 0x5CF21, size: 0x8, addend: 0x0, symName: __ZN4test11test_result11calc_result17hfe8fdf8ea496678cE, symObjAddr: 0x39AF0, symBinAddr: 0x10003B5C0, symSize: 0x370 }
  - { offsetInCU: 0x5BC20, offset: 0x5D349, size: 0x8, addend: 0x0, symName: __ZN4test9test_main17hbfcd5169ad7010a2E, symObjAddr: 0x3A9F0, symBinAddr: 0x10003C030, symSize: 0xB60 }
  - { offsetInCU: 0x5C812, offset: 0x5DF3B, size: 0x8, addend: 0x0, symName: '__ZN4test9test_main28_$u7b$$u7b$closure$u7d$$u7d$17h69e280c3afc05f5fE', symObjAddr: 0x3B550, symBinAddr: 0x10003CB90, symSize: 0x2F0 }
  - { offsetInCU: 0x5D1B6, offset: 0x5E8DF, size: 0x8, addend: 0x0, symName: __ZN4test16test_main_static17hf9ab24f0c80cd25dE, symObjAddr: 0x3B840, symBinAddr: 0x10003CE80, symSize: 0xE0 }
  - { offsetInCU: 0x5D44E, offset: 0x5EB77, size: 0x8, addend: 0x0, symName: __ZN4test12filter_tests17hb2af3ede357ae066E, symObjAddr: 0x3C630, symBinAddr: 0x10003D4E0, symSize: 0xC90 }
  - { offsetInCU: 0x5E43D, offset: 0x5FB66, size: 0x8, addend: 0x0, symName: __ZN4test27convert_benchmarks_to_tests17h459053a780e2a60eE, symObjAddr: 0x3D2C0, symBinAddr: 0x10003E170, symSize: 0x2B0 }
  - { offsetInCU: 0x5E772, offset: 0x5FE9B, size: 0x8, addend: 0x0, symName: __ZN4test8run_test17h491368663deac801E, symObjAddr: 0x3D570, symBinAddr: 0x10003E420, symSize: 0x2550 }
  - { offsetInCU: 0x618E0, offset: 0x63009, size: 0x8, addend: 0x0, symName: __ZN4test28__rust_begin_short_backtrace17h0e3db5c458ca3ddbE, symObjAddr: 0x40420, symBinAddr: 0x1000412D0, symSize: 0x20 }
  - { offsetInCU: 0x6193A, offset: 0x63063, size: 0x8, addend: 0x0, symName: __ZN4test28__rust_begin_short_backtrace17hb466153adc2c85eeE, symObjAddr: 0x40440, symBinAddr: 0x1000412F0, symSize: 0x20 }
  - { offsetInCU: 0x619A9, offset: 0x630D2, size: 0x8, addend: 0x0, symName: __ZN4test28__rust_begin_short_backtrace17hc490f6e733a8139eE, symObjAddr: 0x40460, symBinAddr: 0x100041310, symSize: 0x80 }
  - { offsetInCU: 0x61AD0, offset: 0x631F9, size: 0x8, addend: 0x0, symName: __ZN4test28__rust_begin_short_backtrace17hef3ed54fa2d349b0E, symObjAddr: 0x404E0, symBinAddr: 0x100041390, symSize: 0x20 }
  - { offsetInCU: 0x61B50, offset: 0x63279, size: 0x8, addend: 0x0, symName: __ZN4test21spawn_test_subprocess17hdf67873929ece935E, symObjAddr: 0x40500, symBinAddr: 0x1000413B0, symSize: 0xAC0 }
  - { offsetInCU: 0x62A46, offset: 0x6416F, size: 0x8, addend: 0x0, symName: __ZN3std2io5error5Error3new17h13eaa690a4b09279E, symObjAddr: 0x1930, symBinAddr: 0x100005980, symSize: 0xF0 }
  - { offsetInCU: 0x62CAD, offset: 0x643D6, size: 0x8, addend: 0x0, symName: __ZN3std2io5error5Error3new17hf54f53ed73a589afE, symObjAddr: 0x1A20, symBinAddr: 0x100005A70, symSize: 0x90 }
  - { offsetInCU: 0x630AC, offset: 0x647D5, size: 0x8, addend: 0x0, symName: __ZN3std2io19default_read_to_end16small_probe_read17h2473f3a45ab5bb95E, symObjAddr: 0x5E0, symBinAddr: 0x100004630, symSize: 0x250 }
  - { offsetInCU: 0x63487, offset: 0x64BB0, size: 0x8, addend: 0x0, symName: __ZN3std2io19default_read_to_end17h09366b83fb6f1980E, symObjAddr: 0x830, symBinAddr: 0x100004880, symSize: 0x410 }
  - { offsetInCU: 0x63CA3, offset: 0x653CC, size: 0x8, addend: 0x0, symName: __ZN3std2io5Write14write_vectored17hd612726f1859cb9dE, symObjAddr: 0xC40, symBinAddr: 0x100004C90, symSize: 0x50 }
  - { offsetInCU: 0x63D9B, offset: 0x654C4, size: 0x8, addend: 0x0, symName: __ZN3std2io5Write17is_write_vectored17h82e2c896bddd10e3E, symObjAddr: 0xC90, symBinAddr: 0x100004CE0, symSize: 0x10 }
  - { offsetInCU: 0x63DC2, offset: 0x654EB, size: 0x8, addend: 0x0, symName: __ZN3std2io5Write18write_all_vectored17h67ce5e6c5625a939E, symObjAddr: 0xCA0, symBinAddr: 0x100004CF0, symSize: 0x300 }
  - { offsetInCU: 0x6433D, offset: 0x65A66, size: 0x8, addend: 0x0, symName: __ZN3std2io5Write9write_all17h10c7815c7fe301ffE, symObjAddr: 0xFA0, symBinAddr: 0x100004FF0, symSize: 0x1C0 }
  - { offsetInCU: 0x64666, offset: 0x65D8F, size: 0x8, addend: 0x0, symName: __ZN3std2io5Write9write_all17h71878cb61a581e05E, symObjAddr: 0x1160, symBinAddr: 0x1000051B0, symSize: 0x1D0 }
  - { offsetInCU: 0x6499C, offset: 0x660C5, size: 0x8, addend: 0x0, symName: __ZN3std2io5Write9write_all17h9807c8d61d57fbccE, symObjAddr: 0x1330, symBinAddr: 0x100005380, symSize: 0x1D0 }
  - { offsetInCU: 0x64CD2, offset: 0x663FB, size: 0x8, addend: 0x0, symName: __ZN3std2io5Write9write_all17hdabaabb31d0ab3c0E, symObjAddr: 0x1500, symBinAddr: 0x100005550, symSize: 0x1B0 }
  - { offsetInCU: 0x64FE6, offset: 0x6670F, size: 0x8, addend: 0x0, symName: __ZN3std2io5Write9write_fmt17hc56e1be5502d6baeE, symObjAddr: 0x16B0, symBinAddr: 0x100005700, symSize: 0x140 }
  - { offsetInCU: 0x65284, offset: 0x669AD, size: 0x8, addend: 0x0, symName: __ZN3std2io5Write9write_fmt17hcbf9bba91b3e4e27E, symObjAddr: 0x17F0, symBinAddr: 0x100005840, symSize: 0x140 }
  - { offsetInCU: 0x65546, offset: 0x66C6F, size: 0x8, addend: 0x0, symName: '__ZN80_$LT$std..io..Write..write_fmt..Adapter$LT$T$GT$$u20$as$u20$core..fmt..Write$GT$9write_str17h183dfc7510b13fd0E', symObjAddr: 0x120D0, symBinAddr: 0x1000158A0, symSize: 0x50 }
  - { offsetInCU: 0x6556F, offset: 0x66C98, size: 0x8, addend: 0x0, symName: '__ZN80_$LT$std..io..Write..write_fmt..Adapter$LT$T$GT$$u20$as$u20$core..fmt..Write$GT$9write_str17hda770fd35bd8106eE', symObjAddr: 0x12120, symBinAddr: 0x1000158F0, symSize: 0x60 }
  - { offsetInCU: 0x6564D, offset: 0x66D76, size: 0x8, addend: 0x0, symName: '__ZN80_$LT$std..io..Write..write_fmt..Adapter$LT$T$GT$$u20$as$u20$core..fmt..Write$GT$9write_str17he560ba42bb7ad3f2E', symObjAddr: 0x12180, symBinAddr: 0x100015950, symSize: 0x1E0 }
  - { offsetInCU: 0x65AA2, offset: 0x671CB, size: 0x8, addend: 0x0, symName: '__ZN82_$LT$std..io..buffered..bufreader..BufReader$LT$R$GT$$u20$as$u20$std..io..Read$GT$10read_exact17ha13fdf0cb0a90f62E', symObjAddr: 0x12570, symBinAddr: 0x100015D40, symSize: 0x310 }
  - { offsetInCU: 0x66076, offset: 0x6779F, size: 0x8, addend: 0x0, symName: '__ZN82_$LT$std..io..buffered..bufreader..BufReader$LT$R$GT$$u20$as$u20$std..io..Read$GT$11read_to_end17h2da577d0bce12d94E', symObjAddr: 0x12880, symBinAddr: 0x100016050, symSize: 0x140 }
  - { offsetInCU: 0x66323, offset: 0x67A4C, size: 0x8, addend: 0x0, symName: '__ZN82_$LT$std..io..buffered..bufreader..BufReader$LT$R$GT$$u20$as$u20$std..io..Read$GT$13read_vectored17h7310a38d0f45b3b9E', symObjAddr: 0x129C0, symBinAddr: 0x100016190, symSize: 0x220 }
  - { offsetInCU: 0x666C4, offset: 0x67DED, size: 0x8, addend: 0x0, symName: '__ZN82_$LT$std..io..buffered..bufreader..BufReader$LT$R$GT$$u20$as$u20$std..io..Read$GT$14read_buf_exact17hd006c57f54460ae3E', symObjAddr: 0x12BE0, symBinAddr: 0x1000163B0, symSize: 0x1E0 }
  - { offsetInCU: 0x66B78, offset: 0x682A1, size: 0x8, addend: 0x0, symName: '__ZN82_$LT$std..io..buffered..bufreader..BufReader$LT$R$GT$$u20$as$u20$std..io..Read$GT$14read_to_string17hdd551321d4a69562E', symObjAddr: 0x12DC0, symBinAddr: 0x100016590, symSize: 0x1B0 }
  - { offsetInCU: 0x66FBD, offset: 0x686E6, size: 0x8, addend: 0x0, symName: '__ZN82_$LT$std..io..buffered..bufreader..BufReader$LT$R$GT$$u20$as$u20$std..io..Read$GT$16is_read_vectored17h8fb2f476856efe7bE', symObjAddr: 0x12F70, symBinAddr: 0x100016740, symSize: 0x10 }
  - { offsetInCU: 0x66FD7, offset: 0x68700, size: 0x8, addend: 0x0, symName: '__ZN82_$LT$std..io..buffered..bufreader..BufReader$LT$R$GT$$u20$as$u20$std..io..Read$GT$4read17hcd7847f4e3f636b1E', symObjAddr: 0x12F80, symBinAddr: 0x100016750, symSize: 0x120 }
  - { offsetInCU: 0x671F7, offset: 0x68920, size: 0x8, addend: 0x0, symName: '__ZN82_$LT$std..io..buffered..bufreader..BufReader$LT$R$GT$$u20$as$u20$std..io..Read$GT$8read_buf17h957c9a246668d0ffE', symObjAddr: 0x130A0, symBinAddr: 0x100016870, symSize: 0x120 }
  - { offsetInCU: 0x67956, offset: 0x6907F, size: 0x8, addend: 0x0, symName: '__ZN3std3sys12thread_local6native4lazy20Storage$LT$T$C$D$GT$10initialize17hc978bd59940d3da9E', symObjAddr: 0x1BE0, symBinAddr: 0x1000A1FD0, symSize: 0xC0 }
  - { offsetInCU: 0x67B71, offset: 0x6929A, size: 0x8, addend: 0x0, symName: __ZN3std3sys12thread_local6native4lazy7destroy17h532484e183bbdf93E, symObjAddr: 0x1CA0, symBinAddr: 0x100005B00, symSize: 0x50 }
  - { offsetInCU: 0x67D6E, offset: 0x69497, size: 0x8, addend: 0x0, symName: __ZN3std3sys9backtrace28__rust_begin_short_backtrace17h4fba8b56654fcb8bE, symObjAddr: 0x1CF0, symBinAddr: 0x100005B50, symSize: 0x1E0 }
  - { offsetInCU: 0x68438, offset: 0x69B61, size: 0x8, addend: 0x0, symName: '__ZN3std4sync4mpmc4list16Channel$LT$T$GT$4recv17h5ba9810b836d02c4E', symObjAddr: 0x3050, symBinAddr: 0x100006EB0, symSize: 0x670 }
  - { offsetInCU: 0x6906B, offset: 0x6A794, size: 0x8, addend: 0x0, symName: '__ZN3std4sync4mpmc4list16Channel$LT$T$GT$4recv28_$u7b$$u7b$closure$u7d$$u7d$17h4b63fefd7540523cE', symObjAddr: 0x36C0, symBinAddr: 0x100007520, symSize: 0x190 }
  - { offsetInCU: 0x6943A, offset: 0x6AB63, size: 0x8, addend: 0x0, symName: '__ZN3std4sync4mpmc5array16Channel$LT$T$GT$4send28_$u7b$$u7b$closure$u7d$$u7d$17h363cd2c6e28e3815E', symObjAddr: 0x41E0, symBinAddr: 0x100008040, symSize: 0x1A0 }
  - { offsetInCU: 0x697EE, offset: 0x6AF17, size: 0x8, addend: 0x0, symName: '__ZN3std4sync4mpmc4zero16Channel$LT$T$GT$10disconnect17h3ed92aac17b17bfbE', symObjAddr: 0x3850, symBinAddr: 0x1000076B0, symSize: 0x220 }
  - { offsetInCU: 0x69E01, offset: 0x6B52A, size: 0x8, addend: 0x0, symName: '__ZN3std4sync4mpmc4zero16Channel$LT$T$GT$4send28_$u7b$$u7b$closure$u7d$$u7d$17h4b3999b9b595baa3E', symObjAddr: 0x3A70, symBinAddr: 0x1000078D0, symSize: 0x770 }
  - { offsetInCU: 0x6AE9F, offset: 0x6C5C8, size: 0x8, addend: 0x0, symName: __ZN3std4sync4mpmc5waker5Waker6notify17h71f62e7937ffaec6E, symObjAddr: 0x4380, symBinAddr: 0x1000081E0, symSize: 0xF0 }
  - { offsetInCU: 0x6B2A5, offset: 0x6C9CE, size: 0x8, addend: 0x0, symName: __ZN3std4sync4mpmc5waker9SyncWaker10disconnect17h27024485da6afd74E, symObjAddr: 0x4470, symBinAddr: 0x1000082D0, symSize: 0x1D0 }
  - { offsetInCU: 0x6B737, offset: 0x6CE60, size: 0x8, addend: 0x0, symName: __ZN3std4sync4mpmc5waker9SyncWaker10unregister17h56d11a1e3572f21dE, symObjAddr: 0x4640, symBinAddr: 0x1000084A0, symSize: 0x220 }
  - { offsetInCU: 0x6BBF1, offset: 0x6D31A, size: 0x8, addend: 0x0, symName: __ZN3std4sync4mpmc5waker9SyncWaker6notify17h3fc044d1ac825594E, symObjAddr: 0x4860, symBinAddr: 0x1000086C0, symSize: 0x2C0 }
  - { offsetInCU: 0x6C3EF, offset: 0x6DB18, size: 0x8, addend: 0x0, symName: __ZN3std4sync4mpmc5waker9SyncWaker8register17h7983c0e2b57ea9d4E, symObjAddr: 0x4B20, symBinAddr: 0x100008980, symSize: 0x1E0 }
  - { offsetInCU: 0x6C899, offset: 0x6DFC2, size: 0x8, addend: 0x0, symName: '__ZN3std4sync4mpmc15Sender$LT$T$GT$4send17h02453cd36541663dE', symObjAddr: 0x1ED0, symBinAddr: 0x100005D30, symSize: 0x1180 }
  - { offsetInCU: 0x6E978, offset: 0x700A1, size: 0x8, addend: 0x0, symName: '__ZN76_$LT$std..sync..poison..PoisonError$LT$T$GT$$u20$as$u20$core..fmt..Debug$GT$3fmt17h25d4e2f9e680a645E', symObjAddr: 0x11ED0, symBinAddr: 0x1000156A0, symSize: 0x30 }
  - { offsetInCU: 0x6E9D5, offset: 0x700FE, size: 0x8, addend: 0x0, symName: '__ZN63_$LT$std..sync..mpsc..RecvError$u20$as$u20$core..fmt..Debug$GT$3fmt17h62cdfc23af2810a2E', symObjAddr: 0x11B10, symBinAddr: 0x1000152E0, symSize: 0x20 }
  - { offsetInCU: 0x6E9F5, offset: 0x7011E, size: 0x8, addend: 0x0, symName: '__ZN70_$LT$std..sync..mpsc..RecvTimeoutError$u20$as$u20$core..fmt..Debug$GT$3fmt17h844228767213879aE', symObjAddr: 0x11C90, symBinAddr: 0x100015460, symSize: 0x30 }
  - { offsetInCU: 0x6EA15, offset: 0x7013E, size: 0x8, addend: 0x0, symName: '__ZN72_$LT$std..sync..mpsc..SendError$LT$T$GT$$u20$as$u20$core..fmt..Debug$GT$3fmt17h34cba5f24e622dc3E', symObjAddr: 0x11EA0, symBinAddr: 0x100015670, symSize: 0x30 }
  - { offsetInCU: 0x6EEEE, offset: 0x70617, size: 0x8, addend: 0x0, symName: '__ZN63_$LT$std..time..SystemTimeError$u20$as$u20$core..fmt..Debug$GT$3fmt17h13f9b8cb294391a0E', symObjAddr: 0x11B30, symBinAddr: 0x100015300, symSize: 0x40 }
  - { offsetInCU: 0x6F76C, offset: 0x70E95, size: 0x8, addend: 0x0, symName: __ZN9hashbrown3raw13RawTableInner15rehash_in_place17h5fbe3287c5ccd712E, symObjAddr: 0x148A0, symBinAddr: 0x100018070, symSize: 0x490 }
  - { offsetInCU: 0x70738, offset: 0x71E61, size: 0x8, addend: 0x0, symName: '__ZN9hashbrown3raw21RawTable$LT$T$C$A$GT$14reserve_rehash17h1ddc4c11a9628c70E', symObjAddr: 0x14D30, symBinAddr: 0x1000A2480, symSize: 0x390 }
  - { offsetInCU: 0x70F09, offset: 0x72632, size: 0x8, addend: 0x0, symName: '__ZN9hashbrown3raw21RawTable$LT$T$C$A$GT$14reserve_rehash17h7d7a8727bdc6af9cE', symObjAddr: 0x150C0, symBinAddr: 0x1000A2810, symSize: 0x3F0 }
  - { offsetInCU: 0x71714, offset: 0x72E3D, size: 0x8, addend: 0x0, symName: '__ZN9hashbrown3raw21RawTable$LT$T$C$A$GT$14reserve_rehash17h7dfe81bf0119cfa8E', symObjAddr: 0x154B0, symBinAddr: 0x1000A2C00, symSize: 0x390 }
  - { offsetInCU: 0x71EED, offset: 0x73616, size: 0x8, addend: 0x0, symName: '__ZN9hashbrown3raw21RawTable$LT$T$C$A$GT$14reserve_rehash17hbd4528f151d2cc97E', symObjAddr: 0x15840, symBinAddr: 0x1000A2F90, symSize: 0x390 }
  - { offsetInCU: 0x72814, offset: 0x73F3D, size: 0x8, addend: 0x0, symName: '__ZN9hashbrown3raw21RawTable$LT$T$C$A$GT$14reserve_rehash28_$u7b$$u7b$closure$u7d$$u7d$17h390d5e18b6991dadE', symObjAddr: 0x15BD0, symBinAddr: 0x100018500, symSize: 0x30 }
  - { offsetInCU: 0x7292A, offset: 0x74053, size: 0x8, addend: 0x0, symName: '__ZN9hashbrown3raw21RawTable$LT$T$C$A$GT$14reserve_rehash28_$u7b$$u7b$closure$u7d$$u7d$17h4e74b31c5db23860E', symObjAddr: 0x15C00, symBinAddr: 0x100018530, symSize: 0x30 }
  - { offsetInCU: 0x72A2B, offset: 0x74154, size: 0x8, addend: 0x0, symName: '__ZN9hashbrown3raw21RawTable$LT$T$C$A$GT$14reserve_rehash28_$u7b$$u7b$closure$u7d$$u7d$17h772c34fe2733a309E', symObjAddr: 0x15C30, symBinAddr: 0x100018560, symSize: 0x30 }
  - { offsetInCU: 0x72B2C, offset: 0x74255, size: 0x8, addend: 0x0, symName: '__ZN9hashbrown3raw21RawTable$LT$T$C$A$GT$14reserve_rehash28_$u7b$$u7b$closure$u7d$$u7d$17ha68809b471ebfff1E', symObjAddr: 0x15C60, symBinAddr: 0x100018590, symSize: 0x20 }
  - { offsetInCU: 0x72DC9, offset: 0x744F2, size: 0x8, addend: 0x0, symName: '__ZN9hashbrown3map28HashMap$LT$K$C$V$C$S$C$A$GT$6insert17h26e4d0a32fc8d05cE', symObjAddr: 0x141E0, symBinAddr: 0x1000179B0, symSize: 0x330 }
  - { offsetInCU: 0x73488, offset: 0x74BB1, size: 0x8, addend: 0x0, symName: '__ZN9hashbrown3map28HashMap$LT$K$C$V$C$S$C$A$GT$6insert17h941ba086b5791accE', symObjAddr: 0x14510, symBinAddr: 0x100017CE0, symSize: 0x240 }
  - { offsetInCU: 0x73AC5, offset: 0x751EE, size: 0x8, addend: 0x0, symName: '__ZN9hashbrown3map28HashMap$LT$K$C$V$C$S$C$A$GT$6remove17h3044e59ed053d3ffE', symObjAddr: 0x14750, symBinAddr: 0x100017F20, symSize: 0x150 }
  - { offsetInCU: 0x1E, offset: 0x7589B, size: 0x8, addend: 0x0, symName: '__ZN102_$LT$core..iter..adapters..map..Map$LT$I$C$F$GT$$u20$as$u20$core..iter..traits..iterator..Iterator$GT$4next17h7c8787bb7a88636dE', symObjAddr: 0x0, symBinAddr: 0x100041E70, symSize: 0x13D0 }
  - { offsetInCU: 0x2EF, offset: 0x75B6C, size: 0x8, addend: 0x0, symName: '__ZN4core3ptr135drop_in_place$LT$alloc..vec..in_place_drop..InPlaceDstDataSrcBufDrop$LT$$LP$usize$C$getopts..Optval$RP$$C$alloc..string..String$GT$$GT$17hac701a541e2950dcE', symObjAddr: 0x14C0, symBinAddr: 0x100043310, symSize: 0x80 }
  - { offsetInCU: 0x424, offset: 0x75CA1, size: 0x8, addend: 0x0, symName: '__ZN4core3ptr137drop_in_place$LT$alloc..boxed..Box$LT$dyn$u20$core..iter..traits..iterator..Iterator$u2b$Item$u20$$u3d$$u20$alloc..string..String$GT$$GT$17h358d214334c87c31E', symObjAddr: 0x1540, symBinAddr: 0x100043390, symSize: 0x70 }
  - { offsetInCU: 0x519, offset: 0x75D96, size: 0x8, addend: 0x0, symName: '__ZN4core3ptr168drop_in_place$LT$core..iter..adapters..map..Map$LT$core..slice..iter..Iter$LT$getopts..OptGroup$GT$$C$getopts..Options..usage_items..$u7b$$u7b$closure$u7d$$u7d$$GT$$GT$17h055db81d8306969bE', symObjAddr: 0x15B0, symBinAddr: 0x100043400, symSize: 0x20 }
  - { offsetInCU: 0x5F3, offset: 0x75E70, size: 0x8, addend: 0x0, symName: '__ZN4core3ptr200drop_in_place$LT$core..iter..adapters..filter_map..FilterMap$LT$alloc..vec..into_iter..IntoIter$LT$$LP$usize$C$getopts..Optval$RP$$GT$$C$getopts..Matches..opt_strs..$u7b$$u7b$closure$u7d$$u7d$$GT$$GT$17ha674621ff46c4ae0E', symObjAddr: 0x15D0, symBinAddr: 0x100043420, symSize: 0x90 }
  - { offsetInCU: 0x7A5, offset: 0x76022, size: 0x8, addend: 0x0, symName: '__ZN4core3ptr38drop_in_place$LT$getopts..OptGroup$GT$17h5f06cecf1ed6fd11E', symObjAddr: 0x1660, symBinAddr: 0x1000434B0, symSize: 0x80 }
  - { offsetInCU: 0x99C, offset: 0x76219, size: 0x8, addend: 0x0, symName: '__ZN4core3ptr65drop_in_place$LT$alloc..vec..Vec$LT$alloc..string..String$GT$$GT$17h98bdfa94f181fe95E', symObjAddr: 0x16E0, symBinAddr: 0x100043530, symSize: 0x90 }
  - { offsetInCU: 0xACC, offset: 0x76349, size: 0x8, addend: 0x0, symName: '__ZN4core3ptr75drop_in_place$LT$alloc..vec..Vec$LT$$LP$usize$C$getopts..Optval$RP$$GT$$GT$17h4c339744f0c0c267E', symObjAddr: 0x1770, symBinAddr: 0x1000435C0, symSize: 0x90 }
  - { offsetInCU: 0x136C, offset: 0x76BE9, size: 0x8, addend: 0x0, symName: '__ZN102_$LT$core..iter..adapters..map..Map$LT$I$C$F$GT$$u20$as$u20$core..iter..traits..iterator..Iterator$GT$4next17h7c8787bb7a88636dE', symObjAddr: 0x0, symBinAddr: 0x100041E70, symSize: 0x13D0 }
  - { offsetInCU: 0x3ED1, offset: 0x7974E, size: 0x8, addend: 0x0, symName: '__ZN102_$LT$core..iter..adapters..map..Map$LT$I$C$F$GT$$u20$as$u20$core..iter..traits..iterator..Iterator$GT$9size_hint17hee4799374f0cc254E', symObjAddr: 0x13D0, symBinAddr: 0x100043240, symSize: 0x40 }
  - { offsetInCU: 0x4036, offset: 0x798B3, size: 0x8, addend: 0x0, symName: __ZN4core4iter6traits8iterator8Iterator10advance_by17hb8b638edfafd0c75E, symObjAddr: 0x1800, symBinAddr: 0x100043650, symSize: 0x70 }
  - { offsetInCU: 0x4153, offset: 0x799D0, size: 0x8, addend: 0x0, symName: __ZN4core4iter6traits8iterator8Iterator3nth17h9b18d6bcad2acf9cE, symObjAddr: 0x1870, symBinAddr: 0x1000436C0, symSize: 0x90 }
  - { offsetInCU: 0x46EA, offset: 0x79F67, size: 0x8, addend: 0x0, symName: '__ZN36_$LT$T$u20$as$u20$core..any..Any$GT$7type_id17hd6fc15964b4b7292E', symObjAddr: 0x1410, symBinAddr: 0x100043280, symSize: 0x20 }
  - { offsetInCU: 0x470F, offset: 0x79F8C, size: 0x8, addend: 0x0, symName: '__ZN44_$LT$$RF$T$u20$as$u20$core..fmt..Display$GT$3fmt17h3d7f1c239d684a66E', symObjAddr: 0x14A0, symBinAddr: 0x1000432F0, symSize: 0x20 }
  - { offsetInCU: 0x4896, offset: 0x7A113, size: 0x8, addend: 0x0, symName: __ZN4core5panic12PanicPayload6as_str17h8bc8468428b56731E, symObjAddr: 0x1900, symBinAddr: 0x100043750, symSize: 0x10 }
  - { offsetInCU: 0x493A, offset: 0x7A1B7, size: 0x8, addend: 0x0, symName: __ZN7getopts7Options7optflag17h0c7b0b148b955d6dE, symObjAddr: 0x2610, symBinAddr: 0x100044010, symSize: 0x280 }
  - { offsetInCU: 0x4ED7, offset: 0x7A754, size: 0x8, addend: 0x0, symName: __ZN7getopts7Options8optmulti17h7f334c8a20ae93fbE, symObjAddr: 0x2E00, symBinAddr: 0x100044290, symSize: 0x2F0 }
  - { offsetInCU: 0x5626, offset: 0x7AEA3, size: 0x8, addend: 0x0, symName: __ZN7getopts7Options6optopt17h318502fe021af3dfE, symObjAddr: 0x30F0, symBinAddr: 0x100044580, symSize: 0x2F0 }
  - { offsetInCU: 0x5D82, offset: 0x7B5FF, size: 0x8, addend: 0x0, symName: __ZN7getopts7Options5usage17hf34bf209b2bb0ceeE, symObjAddr: 0x3C60, symBinAddr: 0x100044870, symSize: 0x4B0 }
  - { offsetInCU: 0x6550, offset: 0x7BDCD, size: 0x8, addend: 0x0, symName: __ZN7getopts7Options11usage_items17h1fd9728a30343be5E, symObjAddr: 0x4110, symBinAddr: 0x100044D20, symSize: 0x210 }
  - { offsetInCU: 0x6AEC, offset: 0x7C369, size: 0x8, addend: 0x0, symName: __ZN7getopts4Name8from_str17h0924566c47685860E, symObjAddr: 0x4320, symBinAddr: 0x100044F30, symSize: 0xB0 }
  - { offsetInCU: 0x6C45, offset: 0x7C4C2, size: 0x8, addend: 0x0, symName: __ZN7getopts4Name9to_string17he4d0fb803091484aE, symObjAddr: 0x43D0, symBinAddr: 0x100044FE0, symSize: 0x130 }
  - { offsetInCU: 0x6DF6, offset: 0x7C673, size: 0x8, addend: 0x0, symName: __ZN7getopts8OptGroup13long_to_short17hd7c510e373887634E, symObjAddr: 0x4500, symBinAddr: 0x100045110, symSize: 0x290 }
  - { offsetInCU: 0x71C0, offset: 0x7CA3D, size: 0x8, addend: 0x0, symName: __ZN7getopts7Matches8opt_vals17h38e11a0b08d3eb59E, symObjAddr: 0x4790, symBinAddr: 0x1000453A0, symSize: 0x320 }
  - { offsetInCU: 0x76AB, offset: 0x7CF28, size: 0x8, addend: 0x0, symName: __ZN7getopts7Matches11opt_present17h619cb42d753b631bE, symObjAddr: 0x4CC0, symBinAddr: 0x1000456C0, symSize: 0xA0 }
  - { offsetInCU: 0x784F, offset: 0x7D0CC, size: 0x8, addend: 0x0, symName: __ZN7getopts7Matches8opt_strs17h1c9e6385fc5dc2e5E, symObjAddr: 0x5200, symBinAddr: 0x100045760, symSize: 0x1B0 }
  - { offsetInCU: 0x7B25, offset: 0x7D3A2, size: 0x8, addend: 0x0, symName: __ZN7getopts7Matches7opt_str17hedeceb729dfe96e6E, symObjAddr: 0x5450, symBinAddr: 0x100045910, symSize: 0x130 }
  - { offsetInCU: 0x7DF4, offset: 0x7D671, size: 0x8, addend: 0x0, symName: __ZN7getopts8find_opt17h4f63f1a1bacfae66E, symObjAddr: 0x5720, symBinAddr: 0x100045A40, symSize: 0x210 }
  - { offsetInCU: 0x80D5, offset: 0x7D952, size: 0x8, addend: 0x0, symName: '__ZN52_$LT$getopts..Fail$u20$as$u20$core..fmt..Display$GT$3fmt17hc2a3438b070ed947E', symObjAddr: 0x5930, symBinAddr: 0x100045C50, symSize: 0xF0 }
  - { offsetInCU: 0x81D7, offset: 0x7DA54, size: 0x8, addend: 0x0, symName: '__ZN56_$LT$getopts..OptGroup$u20$as$u20$core..clone..Clone$GT$5clone17h75dd2c4f9038f206E', symObjAddr: 0x5A20, symBinAddr: 0x100045D40, symSize: 0x10C }
  - { offsetInCU: 0x8549, offset: 0x7DDC6, size: 0x8, addend: 0x0, symName: '__ZN5alloc7raw_vec19RawVec$LT$T$C$A$GT$8grow_one17h0296654a407d2209E', symObjAddr: 0x1F80, symBinAddr: 0x100043C70, symSize: 0xC0 }
  - { offsetInCU: 0x8693, offset: 0x7DF10, size: 0x8, addend: 0x0, symName: '__ZN5alloc7raw_vec19RawVec$LT$T$C$A$GT$8grow_one17h283d09e7e5ad2a61E', symObjAddr: 0x2040, symBinAddr: 0x100043D30, symSize: 0xB0 }
  - { offsetInCU: 0x87EA, offset: 0x7E067, size: 0x8, addend: 0x0, symName: '__ZN5alloc7raw_vec19RawVec$LT$T$C$A$GT$8grow_one17h31d84369937db3a4E', symObjAddr: 0x20F0, symBinAddr: 0x100043DE0, symSize: 0xB0 }
  - { offsetInCU: 0x891A, offset: 0x7E197, size: 0x8, addend: 0x0, symName: '__ZN5alloc7raw_vec19RawVec$LT$T$C$A$GT$8grow_one17h5b51ee5a0bfe844cE', symObjAddr: 0x21A0, symBinAddr: 0x100043E90, symSize: 0xA0 }
  - { offsetInCU: 0x8ACA, offset: 0x7E347, size: 0x8, addend: 0x0, symName: '__ZN5alloc7raw_vec19RawVec$LT$T$C$A$GT$7reserve21do_reserve_and_handle17h5e3356a9ce713878E', symObjAddr: 0x1E20, symBinAddr: 0x1000A3340, symSize: 0xA0 }
  - { offsetInCU: 0x8BDD, offset: 0x7E45A, size: 0x8, addend: 0x0, symName: '__ZN5alloc7raw_vec19RawVec$LT$T$C$A$GT$7reserve21do_reserve_and_handle17h67a0918160c3b73aE', symObjAddr: 0x1EC0, symBinAddr: 0x1000A33E0, symSize: 0xC0 }
  - { offsetInCU: 0x8D49, offset: 0x7E5C6, size: 0x8, addend: 0x0, symName: __ZN5alloc7raw_vec11finish_grow17h61a2ebbb3096194cE, symObjAddr: 0x1D80, symBinAddr: 0x100043BD0, symSize: 0xA0 }
  - { offsetInCU: 0x9490, offset: 0x7ED0D, size: 0x8, addend: 0x0, symName: __ZN5alloc3str17join_generic_copy17h4ff0c3c8eee16795E, symObjAddr: 0x1910, symBinAddr: 0x100043760, symSize: 0x470 }
  - { offsetInCU: 0xA03C, offset: 0x7F8B9, size: 0x8, addend: 0x0, symName: '__ZN60_$LT$alloc..string..String$u20$as$u20$core..fmt..Display$GT$3fmt17h0d0eb46f3054e2dfE', symObjAddr: 0x2240, symBinAddr: 0x100043F30, symSize: 0x20 }
  - { offsetInCU: 0xA217, offset: 0x7FA94, size: 0x8, addend: 0x0, symName: __ZN3std3sys9backtrace26__rust_end_short_backtrace17h0efd5f9d962866d5E, symObjAddr: 0x1430, symBinAddr: 0x1000432A0, symSize: 0x10 }
  - { offsetInCU: 0xA237, offset: 0x7FAB4, size: 0x8, addend: 0x0, symName: __ZN3std9panicking11begin_panic17hd516c2b1b3fe4c0bE, symObjAddr: 0x1440, symBinAddr: 0x1000A3320, symSize: 0x20 }
  - { offsetInCU: 0xA256, offset: 0x7FAD3, size: 0x8, addend: 0x0, symName: '__ZN3std9panicking11begin_panic28_$u7b$$u7b$closure$u7d$$u7d$17hc5dcbdce7a3b867aE', symObjAddr: 0x1460, symBinAddr: 0x1000432B0, symSize: 0x40 }
  - { offsetInCU: 0xA275, offset: 0x7FAF2, size: 0x8, addend: 0x0, symName: '__ZN84_$LT$std..panicking..begin_panic..Payload$LT$A$GT$$u20$as$u20$core..fmt..Display$GT$3fmt17hbaee4b79c489ffacE', symObjAddr: 0x2260, symBinAddr: 0x100043F50, symSize: 0x40 }
  - { offsetInCU: 0xA295, offset: 0x7FB12, size: 0x8, addend: 0x0, symName: '__ZN91_$LT$std..panicking..begin_panic..Payload$LT$A$GT$$u20$as$u20$core..panic..PanicPayload$GT$3get17h1f463db1f35a9fd9E', symObjAddr: 0x22A0, symBinAddr: 0x100043F90, symSize: 0x20 }
  - { offsetInCU: 0xA2AF, offset: 0x7FB2C, size: 0x8, addend: 0x0, symName: '__ZN91_$LT$std..panicking..begin_panic..Payload$LT$A$GT$$u20$as$u20$core..panic..PanicPayload$GT$8take_box17h9bac13a397a1c386E', symObjAddr: 0x22C0, symBinAddr: 0x100043FB0, symSize: 0x60 }
  - { offsetInCU: 0x1E, offset: 0x7FC2F, size: 0x8, addend: 0x0, symName: __ZN13unicode_width9str_width17h8524e068222a951fE, symObjAddr: 0x0, symBinAddr: 0x100045E50, symSize: 0x378 }
  - { offsetInCU: 0x1C4, offset: 0x7FDD5, size: 0x8, addend: 0x0, symName: __ZN13unicode_width9str_width17h8524e068222a951fE, symObjAddr: 0x0, symBinAddr: 0x100045E50, symSize: 0x378 }
  - { offsetInCU: 0x1B2B, offset: 0x81AE4, size: 0x8, addend: 0x0, symName: '__ZN5alloc7raw_vec19RawVec$LT$T$C$A$GT$15try_allocate_in17h7686867d860c66a8E', symObjAddr: 0x24B0, symBinAddr: 0x1000461D0, symSize: 0x340 }
  - { offsetInCU: 0x95A, offset: 0x827B0, size: 0x8, addend: 0x0, symName: '__ZN63_$LT$alloc..alloc..Global$u20$as$u20$core..alloc..Allocator$GT$15allocate_zeroed17h0a86e9dabe60a4e8E', symObjAddr: 0x420, symBinAddr: 0x100046820, symSize: 0x30 }
  - { offsetInCU: 0x994, offset: 0x827EA, size: 0x8, addend: 0x0, symName: '__ZN63_$LT$alloc..alloc..Global$u20$as$u20$core..alloc..Allocator$GT$8allocate17h798f03c98207121aE', symObjAddr: 0xB30, symBinAddr: 0x100046850, symSize: 0x21 }
  - { offsetInCU: 0x9F7, offset: 0x8284D, size: 0x8, addend: 0x0, symName: __ZN5alloc5alloc5alloc17h7bdc3d8ecec498e8E, symObjAddr: 0x90, symBinAddr: 0x100046510, symSize: 0x70 }
  - { offsetInCU: 0xD4D, offset: 0x82BA3, size: 0x8, addend: 0x0, symName: __ZN5alloc5alloc6Global10alloc_impl17h779f0a32bb7ae637E, symObjAddr: 0x100, symBinAddr: 0x100046580, symSize: 0x2A0 }
  - { offsetInCU: 0x46, offset: 0x830EB, size: 0x8, addend: 0x0, symName: __ZN4core3ops8function6FnOnce9call_once17hf5d795ed2e7a5552E, symObjAddr: 0x3C0, symBinAddr: 0x100046880, symSize: 0x30 }
  - { offsetInCU: 0x73B, offset: 0x83A55, size: 0x8, addend: 0x0, symName: '__ZN4core6option15Option$LT$T$GT$11map_or_else17ha3b41d481b58dfb4E', symObjAddr: 0x100, symBinAddr: 0x1000468B0, symSize: 0xC0 }
  - { offsetInCU: 0x30F, offset: 0x83E04, size: 0x8, addend: 0x0, symName: __ZN4core3ptr13read_volatile18precondition_check17h6ea327ae65a31051E, symObjAddr: 0x40, symBinAddr: 0x100046970, symSize: 0x120 }
  - { offsetInCU: 0x251, offset: 0x84518, size: 0x8, addend: 0x0, symName: __ZN4core10intrinsics19copy_nonoverlapping18precondition_check17h59e8dd78507b91b3E, symObjAddr: 0x1C0, symBinAddr: 0x100046A90, symSize: 0x2B0 }
  - { offsetInCU: 0x1E, offset: 0x84D3E, size: 0x8, addend: 0x0, symName: __ZN4core5alloc6layout6Layout5array5inner17hb5d067138554016aE, symObjAddr: 0x0, symBinAddr: 0x100046D40, symSize: 0xD7 }
  - { offsetInCU: 0x379, offset: 0x85099, size: 0x8, addend: 0x0, symName: __ZN4core5alloc6layout6Layout5array5inner17hb5d067138554016aE, symObjAddr: 0x0, symBinAddr: 0x100046D40, symSize: 0xD7 }
  - { offsetInCU: 0x86, offset: 0x85305, size: 0x8, addend: 0x0, symName: '__ZN4core3num23_$LT$impl$u20$usize$GT$13unchecked_mul18precondition_check17h55833b103b76a428E', symObjAddr: 0x60, symBinAddr: 0x100046E20, symSize: 0x50 }
  - { offsetInCU: 0x1E, offset: 0x853CB, size: 0x8, addend: 0x0, symName: '__ZN52_$LT$T$u20$as$u20$alloc..slice..hack..ConvertVec$GT$6to_vec17h45502e439ee8c4d7E', symObjAddr: 0x0, symBinAddr: 0x100046E70, symSize: 0x15C }
  - { offsetInCU: 0x67D, offset: 0x85A2A, size: 0x8, addend: 0x0, symName: '__ZN52_$LT$T$u20$as$u20$alloc..slice..hack..ConvertVec$GT$6to_vec17h45502e439ee8c4d7E', symObjAddr: 0x0, symBinAddr: 0x100046E70, symSize: 0x15C }
  - { offsetInCU: 0x1E, offset: 0x85E25, size: 0x8, addend: 0x0, symName: __ZN4core9ub_checks17is_nonoverlapping7runtime17h8ebe5896e4382b3fE, symObjAddr: 0x0, symBinAddr: 0x100046FD0, symSize: 0xDA }
  - { offsetInCU: 0x1AE, offset: 0x85FB5, size: 0x8, addend: 0x0, symName: __ZN4core9ub_checks17is_nonoverlapping7runtime17h8ebe5896e4382b3fE, symObjAddr: 0x0, symBinAddr: 0x100046FD0, symSize: 0xDA }
  - { offsetInCU: 0x60F, offset: 0x867F4, size: 0x8, addend: 0x0, symName: '__ZN5alloc3fmt6format28_$u7b$$u7b$closure$u7d$$u7d$17h32b9f82b999f3122E', symObjAddr: 0xC0, symBinAddr: 0x1000470B0, symSize: 0x39 }
  - { offsetInCU: 0x1E, offset: 0x8690E, size: 0x8, addend: 0x0, symName: '__ZN4core3ptr8non_null16NonNull$LT$T$GT$13new_unchecked18precondition_check17hdf78df2095c41574E', symObjAddr: 0x0, symBinAddr: 0x1000470F0, symSize: 0x2D }
  - { offsetInCU: 0x77, offset: 0x86967, size: 0x8, addend: 0x0, symName: '__ZN4core3ptr8non_null16NonNull$LT$T$GT$13new_unchecked18precondition_check17hdf78df2095c41574E', symObjAddr: 0x0, symBinAddr: 0x1000470F0, symSize: 0x2D }
  - { offsetInCU: 0x1E, offset: 0x869F8, size: 0x8, addend: 0x0, symName: '__ZN5alloc3str56_$LT$impl$u20$alloc..borrow..ToOwned$u20$for$u20$str$GT$8to_owned17h14293c2dcf0614b8E', symObjAddr: 0x0, symBinAddr: 0x100047120, symSize: 0x4E }
  - { offsetInCU: 0x1EF, offset: 0x86BC9, size: 0x8, addend: 0x0, symName: '__ZN5alloc3str56_$LT$impl$u20$alloc..borrow..ToOwned$u20$for$u20$str$GT$8to_owned17h14293c2dcf0614b8E', symObjAddr: 0x0, symBinAddr: 0x100047120, symSize: 0x4E }
  - { offsetInCU: 0x10, offset: 0x86DF6, size: 0x8, addend: 0x0, symName: blake3_hash_many_sse2, symObjAddr: 0x0, symBinAddr: 0x100047180, symSize: 0x2A40 }
  - { offsetInCU: 0x3D, offset: 0x86E23, size: 0x8, addend: 0x0, symName: blake3_hash_many_sse2, symObjAddr: 0x0, symBinAddr: 0x100047180, symSize: 0x2A40 }
  - { offsetInCU: 0x5A, offset: 0x86E40, size: 0x8, addend: 0x0, symName: _blake3_compress_in_place_sse2, symObjAddr: 0x2A40, symBinAddr: 0x100049BC0, symSize: 0x200 }
  - { offsetInCU: 0x6A, offset: 0x86E50, size: 0x8, addend: 0x0, symName: _blake3_compress_xof_sse2, symObjAddr: 0x2C40, symBinAddr: 0x100049DC0, symSize: 0x214 }
  - { offsetInCU: 0x10, offset: 0x86E54, size: 0x8, addend: 0x0, symName: blake3_hash_many_sse41, symObjAddr: 0x0, symBinAddr: 0x10004A000, symSize: 0x25C0 }
  - { offsetInCU: 0x3E, offset: 0x86E82, size: 0x8, addend: 0x0, symName: blake3_hash_many_sse41, symObjAddr: 0x0, symBinAddr: 0x10004A000, symSize: 0x25C0 }
  - { offsetInCU: 0x5B, offset: 0x86E9F, size: 0x8, addend: 0x0, symName: _blake3_compress_in_place_sse41, symObjAddr: 0x25C0, symBinAddr: 0x10004C5C0, symSize: 0x1C0 }
  - { offsetInCU: 0x6B, offset: 0x86EAF, size: 0x8, addend: 0x0, symName: _blake3_compress_xof_sse41, symObjAddr: 0x2780, symBinAddr: 0x10004C780, symSize: 0x1D9 }
  - { offsetInCU: 0x10, offset: 0x86EB2, size: 0x8, addend: 0x0, symName: blake3_hash_many_avx2, symObjAddr: 0x0, symBinAddr: 0x10004C980, symSize: 0x256C }
  - { offsetInCU: 0x3D, offset: 0x86EDF, size: 0x8, addend: 0x0, symName: blake3_hash_many_avx2, symObjAddr: 0x0, symBinAddr: 0x10004C980, symSize: 0x256C }
  - { offsetInCU: 0x10, offset: 0x86EE6, size: 0x8, addend: 0x0, symName: blake3_hash_many_avx512, symObjAddr: 0x0, symBinAddr: 0x10004EF00, symSize: 0x3740 }
  - { offsetInCU: 0x3F, offset: 0x86F15, size: 0x8, addend: 0x0, symName: blake3_hash_many_avx512, symObjAddr: 0x0, symBinAddr: 0x10004EF00, symSize: 0x3740 }
  - { offsetInCU: 0x5C, offset: 0x86F32, size: 0x8, addend: 0x0, symName: _blake3_compress_in_place_avx512, symObjAddr: 0x3740, symBinAddr: 0x100052640, symSize: 0x180 }
  - { offsetInCU: 0x6C, offset: 0x86F42, size: 0x8, addend: 0x0, symName: _blake3_compress_xof_avx512, symObjAddr: 0x38C0, symBinAddr: 0x1000527C0, symSize: 0x18C }
  - { offsetInCU: 0x1E, offset: 0x86F52, size: 0x8, addend: 0x0, symName: '__ZN4core3fmt3num50_$LT$impl$u20$core..fmt..Debug$u20$for$u20$u64$GT$3fmt17he916e7270ba4db02E', symObjAddr: 0x0, symBinAddr: 0x100052950, symSize: 0x80 }
  - { offsetInCU: 0xE6, offset: 0x8701A, size: 0x8, addend: 0x0, symName: '__ZN4core3fmt3num50_$LT$impl$u20$core..fmt..Debug$u20$for$u20$u64$GT$3fmt17he916e7270ba4db02E', symObjAddr: 0x0, symBinAddr: 0x100052950, symSize: 0x80 }
  - { offsetInCU: 0x1E, offset: 0x8729A, size: 0x8, addend: 0x0, symName: '__ZN42_$LT$$RF$T$u20$as$u20$core..fmt..Debug$GT$3fmt17h5a9de6868a2db01fE', symObjAddr: 0x0, symBinAddr: 0x1000529D0, symSize: 0x20 }
  - { offsetInCU: 0x64, offset: 0x872E0, size: 0x8, addend: 0x0, symName: '__ZN42_$LT$$RF$T$u20$as$u20$core..fmt..Debug$GT$3fmt17h5a9de6868a2db01fE', symObjAddr: 0x0, symBinAddr: 0x1000529D0, symSize: 0x20 }
  - { offsetInCU: 0x7C, offset: 0x87593, size: 0x8, addend: 0x0, symName: __ZN4core9panicking13assert_failed17he2860be7d3c6b45dE, symObjAddr: 0xC0, symBinAddr: 0x1000A34A0, symSize: 0x39 }
  - { offsetInCU: 0x1E, offset: 0x87B5A, size: 0x8, addend: 0x0, symName: '__ZN108_$LT$alloc..collections..btree..map..Iter$LT$K$C$V$GT$$u20$as$u20$core..iter..traits..iterator..Iterator$GT$4next17h04aa8e72a2b84807E', symObjAddr: 0x0, symBinAddr: 0x1000529F0, symSize: 0x230 }
  - { offsetInCU: 0x486, offset: 0x87FC2, size: 0x8, addend: 0x0, symName: '__ZN5alloc11collections5btree4node208Handle$LT$alloc..collections..btree..node..NodeRef$LT$alloc..collections..btree..node..marker..Mut$C$K$C$V$C$alloc..collections..btree..node..marker..Leaf$GT$$C$alloc..collections..btree..node..marker..KV$GT$5split17h1f12005f03d13861E', symObjAddr: 0x12190, symBinAddr: 0x100063480, symSize: 0x210 }
  - { offsetInCU: 0x962, offset: 0x8849E, size: 0x8, addend: 0x0, symName: '__ZN5alloc11collections5btree4node208Handle$LT$alloc..collections..btree..node..NodeRef$LT$alloc..collections..btree..node..marker..Mut$C$K$C$V$C$alloc..collections..btree..node..marker..Leaf$GT$$C$alloc..collections..btree..node..marker..KV$GT$5split17h7f1df435a3965626E', symObjAddr: 0x123A0, symBinAddr: 0x100063690, symSize: 0x220 }
  - { offsetInCU: 0xE3F, offset: 0x8897B, size: 0x8, addend: 0x0, symName: '__ZN5alloc11collections5btree4node212Handle$LT$alloc..collections..btree..node..NodeRef$LT$alloc..collections..btree..node..marker..Mut$C$K$C$V$C$alloc..collections..btree..node..marker..Internal$GT$$C$alloc..collections..btree..node..marker..KV$GT$5split17h57eb0cdd3198a0cdE', symObjAddr: 0x125C0, symBinAddr: 0x1000638B0, symSize: 0x330 }
  - { offsetInCU: 0x150B, offset: 0x89047, size: 0x8, addend: 0x0, symName: '__ZN5alloc11collections5btree4node212Handle$LT$alloc..collections..btree..node..NodeRef$LT$alloc..collections..btree..node..marker..Mut$C$K$C$V$C$alloc..collections..btree..node..marker..Internal$GT$$C$alloc..collections..btree..node..marker..KV$GT$5split17hd8569dabd778bed9E', symObjAddr: 0x128F0, symBinAddr: 0x100063BE0, symSize: 0x320 }
  - { offsetInCU: 0x1C0A, offset: 0x89746, size: 0x8, addend: 0x0, symName: '__ZN5alloc11collections5btree6remove259_$LT$impl$u20$alloc..collections..btree..node..Handle$LT$alloc..collections..btree..node..NodeRef$LT$alloc..collections..btree..node..marker..Mut$C$K$C$V$C$alloc..collections..btree..node..marker..Leaf$GT$$C$alloc..collections..btree..node..marker..KV$GT$$GT$14remove_leaf_kv17ha2df21f3330f0df9E', symObjAddr: 0x138F0, symBinAddr: 0x100064BE0, symSize: 0x9A0 }
  - { offsetInCU: 0x3285, offset: 0x8ADC1, size: 0x8, addend: 0x0, symName: '__ZN5alloc11collections5btree4node29BalancingContext$LT$K$C$V$GT$15bulk_steal_left17h52125f0a084890d6E', symObjAddr: 0x12C10, symBinAddr: 0x100063F00, symSize: 0x400 }
  - { offsetInCU: 0x37F9, offset: 0x8B335, size: 0x8, addend: 0x0, symName: '__ZN5alloc11collections5btree4node29BalancingContext$LT$K$C$V$GT$16bulk_steal_right17h02bc79a16ac599cfE', symObjAddr: 0x13010, symBinAddr: 0x100064300, symSize: 0x4F0 }
  - { offsetInCU: 0x3E4E, offset: 0x8B98A, size: 0x8, addend: 0x0, symName: '__ZN5alloc11collections5btree4node29BalancingContext$LT$K$C$V$GT$8do_merge17h6a15c76d9e623ed0E', symObjAddr: 0x13500, symBinAddr: 0x1000647F0, symSize: 0x3F0 }
  - { offsetInCU: 0x44A9, offset: 0x8BFE5, size: 0x8, addend: 0x0, symName: '__ZN108_$LT$alloc..collections..btree..map..Iter$LT$K$C$V$GT$$u20$as$u20$core..iter..traits..iterator..Iterator$GT$4next17h04aa8e72a2b84807E', symObjAddr: 0x0, symBinAddr: 0x1000529F0, symSize: 0x230 }
  - { offsetInCU: 0x4809, offset: 0x8C345, size: 0x8, addend: 0x0, symName: '__ZN5alloc11collections5btree3map25BTreeMap$LT$K$C$V$C$A$GT$6insert17h72bbdeeb7fae4170E', symObjAddr: 0xF830, symBinAddr: 0x100060B20, symSize: 0xEA0 }
  - { offsetInCU: 0x5B9E, offset: 0x8D6DA, size: 0x8, addend: 0x0, symName: '__ZN5alloc11collections5btree3map25BTreeMap$LT$K$C$V$C$A$GT$6insert17h8e99f28badce7080E', symObjAddr: 0x106D0, symBinAddr: 0x1000619C0, symSize: 0xEC0 }
  - { offsetInCU: 0x7036, offset: 0x8EB72, size: 0x8, addend: 0x0, symName: '__ZN5alloc11collections5btree3map25IntoIter$LT$K$C$V$C$A$GT$10dying_next17h18a81d86214d4c3fE', symObjAddr: 0x11590, symBinAddr: 0x100062880, symSize: 0x400 }
  - { offsetInCU: 0x73BE, offset: 0x8EEFA, size: 0x8, addend: 0x0, symName: '__ZN5alloc11collections5btree3map25IntoIter$LT$K$C$V$C$A$GT$10dying_next17h46269187b1d1f0d5E', symObjAddr: 0x11990, symBinAddr: 0x100062C80, symSize: 0x400 }
  - { offsetInCU: 0x7746, offset: 0x8F282, size: 0x8, addend: 0x0, symName: '__ZN5alloc11collections5btree3map25IntoIter$LT$K$C$V$C$A$GT$10dying_next17hd102cd7efdb59261E', symObjAddr: 0x11D90, symBinAddr: 0x100063080, symSize: 0x400 }
  - { offsetInCU: 0x80CF, offset: 0x8FC0B, size: 0x8, addend: 0x0, symName: '__ZN5alloc7raw_vec19RawVec$LT$T$C$A$GT$8grow_one17h1b2de17ded80b0efE', symObjAddr: 0x15320, symBinAddr: 0x100065900, symSize: 0xC0 }
  - { offsetInCU: 0x8219, offset: 0x8FD55, size: 0x8, addend: 0x0, symName: '__ZN5alloc7raw_vec19RawVec$LT$T$C$A$GT$8grow_one17h1ed5ddb334986877E', symObjAddr: 0x153E0, symBinAddr: 0x1000659C0, symSize: 0xB0 }
  - { offsetInCU: 0x8363, offset: 0x8FE9F, size: 0x8, addend: 0x0, symName: '__ZN5alloc7raw_vec19RawVec$LT$T$C$A$GT$8grow_one17h1f2ce5cd493bf47dE', symObjAddr: 0x15490, symBinAddr: 0x100065A70, symSize: 0xC0 }
  - { offsetInCU: 0x84AD, offset: 0x8FFE9, size: 0x8, addend: 0x0, symName: '__ZN5alloc7raw_vec19RawVec$LT$T$C$A$GT$8grow_one17h1f82d5665bc3baa6E', symObjAddr: 0x15550, symBinAddr: 0x100065B30, symSize: 0xB0 }
  - { offsetInCU: 0x85F7, offset: 0x90133, size: 0x8, addend: 0x0, symName: '__ZN5alloc7raw_vec19RawVec$LT$T$C$A$GT$8grow_one17h23f2ece7dc7f8ac4E', symObjAddr: 0x15600, symBinAddr: 0x100065BE0, symSize: 0xC0 }
  - { offsetInCU: 0x8741, offset: 0x9027D, size: 0x8, addend: 0x0, symName: '__ZN5alloc7raw_vec19RawVec$LT$T$C$A$GT$8grow_one17h2d7cf4f58f17dc0bE', symObjAddr: 0x156C0, symBinAddr: 0x100065CA0, symSize: 0xB0 }
  - { offsetInCU: 0x888B, offset: 0x903C7, size: 0x8, addend: 0x0, symName: '__ZN5alloc7raw_vec19RawVec$LT$T$C$A$GT$8grow_one17h2ebad2aca9269935E', symObjAddr: 0x15770, symBinAddr: 0x100065D50, symSize: 0xB0 }
  - { offsetInCU: 0x89D5, offset: 0x90511, size: 0x8, addend: 0x0, symName: '__ZN5alloc7raw_vec19RawVec$LT$T$C$A$GT$8grow_one17h6d578489e6325525E', symObjAddr: 0x15820, symBinAddr: 0x100065E00, symSize: 0xC0 }
  - { offsetInCU: 0x8B2C, offset: 0x90668, size: 0x8, addend: 0x0, symName: '__ZN5alloc7raw_vec19RawVec$LT$T$C$A$GT$8grow_one17h76cd5bb8e3249a81E', symObjAddr: 0x158E0, symBinAddr: 0x100065EC0, symSize: 0xB0 }
  - { offsetInCU: 0x8C76, offset: 0x907B2, size: 0x8, addend: 0x0, symName: '__ZN5alloc7raw_vec19RawVec$LT$T$C$A$GT$8grow_one17h8d39e6a3bd3ed510E', symObjAddr: 0x15A40, symBinAddr: 0x100065F70, symSize: 0xC0 }
  - { offsetInCU: 0x8DC0, offset: 0x908FC, size: 0x8, addend: 0x0, symName: '__ZN5alloc7raw_vec19RawVec$LT$T$C$A$GT$8grow_one17h9202c252dcd4a0d8E', symObjAddr: 0x15B00, symBinAddr: 0x100066030, symSize: 0xC0 }
  - { offsetInCU: 0x8F0A, offset: 0x90A46, size: 0x8, addend: 0x0, symName: '__ZN5alloc7raw_vec19RawVec$LT$T$C$A$GT$8grow_one17hb4b7b3f2aea33bb4E', symObjAddr: 0x15BC0, symBinAddr: 0x1000660F0, symSize: 0xC0 }
  - { offsetInCU: 0x903A, offset: 0x90B76, size: 0x8, addend: 0x0, symName: '__ZN5alloc7raw_vec19RawVec$LT$T$C$A$GT$8grow_one17hd91c9d4c6a9bca00E', symObjAddr: 0x15C80, symBinAddr: 0x1000661B0, symSize: 0xA0 }
  - { offsetInCU: 0x9A36, offset: 0x91572, size: 0x8, addend: 0x0, symName: __ZN5alloc7raw_vec11finish_grow17hcddad2319b47952dE, symObjAddr: 0x14F10, symBinAddr: 0x100065860, symSize: 0xA0 }
  - { offsetInCU: 0x9AC2, offset: 0x915FE, size: 0x8, addend: 0x0, symName: '__ZN5alloc7raw_vec19RawVec$LT$T$C$A$GT$7reserve21do_reserve_and_handle17h196a69aba8c2d956E', symObjAddr: 0x14FB0, symBinAddr: 0x1000A3860, symSize: 0xC0 }
  - { offsetInCU: 0x9BF2, offset: 0x9172E, size: 0x8, addend: 0x0, symName: '__ZN5alloc7raw_vec19RawVec$LT$T$C$A$GT$7reserve21do_reserve_and_handle17h402fc453247f963fE', symObjAddr: 0x15070, symBinAddr: 0x1000A3920, symSize: 0xB0 }
  - { offsetInCU: 0x9D22, offset: 0x9185E, size: 0x8, addend: 0x0, symName: '__ZN5alloc7raw_vec19RawVec$LT$T$C$A$GT$7reserve21do_reserve_and_handle17h83fb1e8109159aa3E', symObjAddr: 0x151C0, symBinAddr: 0x1000A39D0, symSize: 0xA0 }
  - { offsetInCU: 0x9E3C, offset: 0x91978, size: 0x8, addend: 0x0, symName: '__ZN5alloc7raw_vec19RawVec$LT$T$C$A$GT$7reserve21do_reserve_and_handle17h86549d0267a347f8E', symObjAddr: 0x15260, symBinAddr: 0x1000A3A70, symSize: 0xC0 }
  - { offsetInCU: 0xB0D1, offset: 0x92C0D, size: 0x8, addend: 0x0, symName: '__ZN64_$LT$alloc..ffi..c_str..NulError$u20$as$u20$core..fmt..Debug$GT$3fmt17h75cdff7a4e3710ebE', symObjAddr: 0x1ED80, symBinAddr: 0x10006F2B0, symSize: 0x50 }
  - { offsetInCU: 0xB238, offset: 0x92D74, size: 0x8, addend: 0x0, symName: '__ZN5alloc4sync16Arc$LT$T$C$A$GT$9drop_slow17h271286c795991e6eE', symObjAddr: 0x14C30, symBinAddr: 0x100065580, symSize: 0x90 }
  - { offsetInCU: 0xB3B0, offset: 0x92EEC, size: 0x8, addend: 0x0, symName: '__ZN5alloc4sync16Arc$LT$T$C$A$GT$9drop_slow17h4eee9a7bc87850e1E', symObjAddr: 0x14CC0, symBinAddr: 0x100065610, symSize: 0x80 }
  - { offsetInCU: 0xB62E, offset: 0x9316A, size: 0x8, addend: 0x0, symName: '__ZN5alloc4sync16Arc$LT$T$C$A$GT$9drop_slow17h5baac5b2e7af83faE', symObjAddr: 0x14D40, symBinAddr: 0x100065690, symSize: 0x60 }
  - { offsetInCU: 0xB824, offset: 0x93360, size: 0x8, addend: 0x0, symName: '__ZN5alloc4sync16Arc$LT$T$C$A$GT$9drop_slow17h9ffcc698eacdf57eE', symObjAddr: 0x14DA0, symBinAddr: 0x1000656F0, symSize: 0x30 }
  - { offsetInCU: 0xB924, offset: 0x93460, size: 0x8, addend: 0x0, symName: '__ZN5alloc4sync16Arc$LT$T$C$A$GT$9drop_slow17hbd808d258d0d1d92E', symObjAddr: 0x14DD0, symBinAddr: 0x100065720, symSize: 0xC0 }
  - { offsetInCU: 0xBBA5, offset: 0x936E1, size: 0x8, addend: 0x0, symName: '__ZN5alloc4sync16Arc$LT$T$C$A$GT$9drop_slow17he929e03fbfc85295E', symObjAddr: 0x14E90, symBinAddr: 0x1000657E0, symSize: 0x80 }
  - { offsetInCU: 0xC4C2, offset: 0x93FFE, size: 0x8, addend: 0x0, symName: '__ZN58_$LT$alloc..string..String$u20$as$u20$core..fmt..Debug$GT$3fmt17h46296bde07017096E', symObjAddr: 0xF670, symBinAddr: 0x100060960, symSize: 0x20 }
  - { offsetInCU: 0xC5A8, offset: 0x940E4, size: 0x8, addend: 0x0, symName: '__ZN58_$LT$alloc..string..String$u20$as$u20$core..fmt..Write$GT$10write_char17h04bc467bd68a934bE', symObjAddr: 0xF690, symBinAddr: 0x100060980, symSize: 0x140 }
  - { offsetInCU: 0xC747, offset: 0x94283, size: 0x8, addend: 0x0, symName: '__ZN58_$LT$alloc..string..String$u20$as$u20$core..fmt..Write$GT$9write_str17h46a93205c3443fbaE', symObjAddr: 0xF7D0, symBinAddr: 0x100060AC0, symSize: 0x60 }
  - { offsetInCU: 0xC832, offset: 0x9436E, size: 0x8, addend: 0x0, symName: '__ZN60_$LT$alloc..string..String$u20$as$u20$core..fmt..Display$GT$3fmt17h0d0eb46f3054e2dfE', symObjAddr: 0x1ED60, symBinAddr: 0x10006F290, symSize: 0x20 }
  - { offsetInCU: 0xE583, offset: 0x960BF, size: 0x8, addend: 0x0, symName: '__ZN4core3ptr104drop_in_place$LT$alloc..vec..Vec$LT$$LP$usize$C$std..backtrace_rs..symbolize..gimli..Mapping$RP$$GT$$GT$17hd64c3526ec62e9d1E', symObjAddr: 0x1900, symBinAddr: 0x100053740, symSize: 0xD0 }
  - { offsetInCU: 0xE70D, offset: 0x96249, size: 0x8, addend: 0x0, symName: '__ZN4core3ptr107drop_in_place$LT$alloc..vec..Vec$LT$$LP$std..ffi..os_str..OsString$C$std..ffi..os_str..OsString$RP$$GT$$GT$17h78469e633eb2ac26E', symObjAddr: 0x19D0, symBinAddr: 0x100053810, symSize: 0xA0 }
  - { offsetInCU: 0xE955, offset: 0x96491, size: 0x8, addend: 0x0, symName: '__ZN4core3ptr107drop_in_place$LT$core..option..Option$LT$std..sys..pal..unix..process..process_common..CStringArray$GT$$GT$17hc1b13d19064d6ceaE', symObjAddr: 0x1A70, symBinAddr: 0x1000538B0, symSize: 0xB0 }
  - { offsetInCU: 0xEB70, offset: 0x966AC, size: 0x8, addend: 0x0, symName: '__ZN4core3ptr108drop_in_place$LT$alloc..collections..btree..map..BTreeMap$LT$u64$C$gimli..read..abbrev..Abbreviation$GT$$GT$17h896b5b8e1cdcf80bE', symObjAddr: 0x1B20, symBinAddr: 0x100053960, symSize: 0xD0 }
  - { offsetInCU: 0xECF8, offset: 0x96834, size: 0x8, addend: 0x0, symName: '__ZN4core3ptr112drop_in_place$LT$$LP$std..ffi..os_str..OsString$C$core..option..Option$LT$std..ffi..os_str..OsString$GT$$RP$$GT$17h0e5b4663c94b0031E', symObjAddr: 0x1BF0, symBinAddr: 0x100053A30, symSize: 0x50 }
  - { offsetInCU: 0xEE7A, offset: 0x969B6, size: 0x8, addend: 0x0, symName: '__ZN4core3ptr123drop_in_place$LT$addr2line..Context$LT$gimli..read..endian_slice..EndianSlice$LT$gimli..endianity..LittleEndian$GT$$GT$$GT$17h2ef49b54e261394dE', symObjAddr: 0x1C70, symBinAddr: 0x100053A80, symSize: 0x130 }
  - { offsetInCU: 0xF175, offset: 0x96CB1, size: 0x8, addend: 0x0, symName: '__ZN4core3ptr123drop_in_place$LT$addr2line..ResUnit$LT$gimli..read..endian_slice..EndianSlice$LT$gimli..endianity..LittleEndian$GT$$GT$$GT$17hdeaa58f877242283E', symObjAddr: 0x1DA0, symBinAddr: 0x100053BB0, symSize: 0x100 }
  - { offsetInCU: 0xF336, offset: 0x96E72, size: 0x8, addend: 0x0, symName: '__ZN4core3ptr123drop_in_place$LT$addr2line..SupUnit$LT$gimli..read..endian_slice..EndianSlice$LT$gimli..endianity..LittleEndian$GT$$GT$$GT$17h8208c1c32df374e8E', symObjAddr: 0x1EA0, symBinAddr: 0x100053CB0, symSize: 0x50 }
  - { offsetInCU: 0xF3EC, offset: 0x96F28, size: 0x8, addend: 0x0, symName: '__ZN4core3ptr124drop_in_place$LT$alloc..collections..btree..map..BTreeMap$LT$std..ffi..os_str..OsString$C$std..ffi..os_str..OsString$GT$$GT$17h77764d00b2baf504E', symObjAddr: 0x1EF0, symBinAddr: 0x100053D00, symSize: 0xF0 }
  - { offsetInCU: 0xF5F3, offset: 0x9712F, size: 0x8, addend: 0x0, symName: '__ZN4core3ptr124drop_in_place$LT$alloc..collections..btree..map..IntoIter$LT$std..ffi..os_str..OsString$C$std..ffi..os_str..OsString$GT$$GT$17h2b9add41309c8a16E', symObjAddr: 0x1FE0, symBinAddr: 0x100053DF0, symSize: 0xA0 }
  - { offsetInCU: 0xF7A7, offset: 0x972E3, size: 0x8, addend: 0x0, symName: '__ZN4core3ptr130drop_in_place$LT$gimli..read..dwarf..Dwarf$LT$gimli..read..endian_slice..EndianSlice$LT$gimli..endianity..LittleEndian$GT$$GT$$GT$17he2c802b894b6a339E', symObjAddr: 0x20E0, symBinAddr: 0x100053E90, symSize: 0x60 }
  - { offsetInCU: 0xF810, offset: 0x9734C, size: 0x8, addend: 0x0, symName: '__ZN4core3ptr131drop_in_place$LT$alloc..boxed..Box$LT$dyn$u20$core..ops..function..FnOnce$LT$$LP$$RP$$GT$$u2b$Output$u20$$u3d$$u20$$LP$$RP$$GT$$GT$17h7715eebd5e8ef4d6E', symObjAddr: 0x2140, symBinAddr: 0x100053EF0, symSize: 0x70 }
  - { offsetInCU: 0xF8F8, offset: 0x97434, size: 0x8, addend: 0x0, symName: '__ZN4core3ptr137drop_in_place$LT$gimli..read..dwarf..Unit$LT$gimli..read..endian_slice..EndianSlice$LT$gimli..endianity..LittleEndian$GT$$C$usize$GT$$GT$17hecb88828dcfed016E', symObjAddr: 0x21B0, symBinAddr: 0x100053F60, symSize: 0x50 }
  - { offsetInCU: 0xF9B2, offset: 0x974EE, size: 0x8, addend: 0x0, symName: '__ZN4core3ptr144drop_in_place$LT$alloc..vec..Vec$LT$core..option..Option$LT$core..option..Option$LT$std..backtrace_rs..symbolize..gimli..Mapping$GT$$GT$$GT$$GT$17hc9f7f19bdef76e20E', symObjAddr: 0x2200, symBinAddr: 0x100053FB0, symSize: 0x130 }
  - { offsetInCU: 0xFB46, offset: 0x97682, size: 0x8, addend: 0x0, symName: '__ZN4core3ptr146drop_in_place$LT$alloc..vec..Vec$LT$addr2line..ResUnit$LT$gimli..read..endian_slice..EndianSlice$LT$gimli..endianity..LittleEndian$GT$$GT$$GT$$GT$17hd3feb0dd7b6341c0E', symObjAddr: 0x2330, symBinAddr: 0x1000540E0, symSize: 0xD0 }
  - { offsetInCU: 0xFC9E, offset: 0x977DA, size: 0x8, addend: 0x0, symName: '__ZN4core3ptr146drop_in_place$LT$alloc..vec..Vec$LT$addr2line..SupUnit$LT$gimli..read..endian_slice..EndianSlice$LT$gimli..endianity..LittleEndian$GT$$GT$$GT$$GT$17hd3b520dc1ec8b244E', symObjAddr: 0x2400, symBinAddr: 0x1000541B0, symSize: 0x100 }
  - { offsetInCU: 0xFE65, offset: 0x979A1, size: 0x8, addend: 0x0, symName: '__ZN4core3ptr158drop_in_place$LT$alloc..boxed..Box$LT$$u5b$addr2line..ResUnit$LT$gimli..read..endian_slice..EndianSlice$LT$gimli..endianity..LittleEndian$GT$$GT$$u5d$$GT$$GT$17ha6be907e1e9cc0b3E', symObjAddr: 0x2600, symBinAddr: 0x1000542B0, symSize: 0xC0 }
  - { offsetInCU: 0xFF5A, offset: 0x97A96, size: 0x8, addend: 0x0, symName: '__ZN4core3ptr158drop_in_place$LT$alloc..boxed..Box$LT$$u5b$addr2line..SupUnit$LT$gimli..read..endian_slice..EndianSlice$LT$gimli..endianity..LittleEndian$GT$$GT$$u5d$$GT$$GT$17hf844b2c47a76cbe5E', symObjAddr: 0x26C0, symBinAddr: 0x100054370, symSize: 0xE0 }
  - { offsetInCU: 0x100F2, offset: 0x97C2E, size: 0x8, addend: 0x0, symName: '__ZN4core3ptr159drop_in_place$LT$alloc..sync..ArcInner$LT$gimli..read..dwarf..Dwarf$LT$gimli..read..endian_slice..EndianSlice$LT$gimli..endianity..LittleEndian$GT$$GT$$GT$$GT$17hd21332c93e9cd0a3E', symObjAddr: 0x27A0, symBinAddr: 0x100054450, symSize: 0x60 }
  - { offsetInCU: 0x101D3, offset: 0x97D0F, size: 0x8, addend: 0x0, symName: '__ZN4core3ptr174drop_in_place$LT$core..result..Result$LT$addr2line..FrameIter$LT$gimli..read..endian_slice..EndianSlice$LT$gimli..endianity..LittleEndian$GT$$GT$$C$gimli..read..Error$GT$$GT$17h37a4d09a5bab7734E', symObjAddr: 0x2800, symBinAddr: 0x1000544B0, symSize: 0x40 }
  - { offsetInCU: 0x102D7, offset: 0x97E13, size: 0x8, addend: 0x0, symName: '__ZN4core3ptr175drop_in_place$LT$std..sync..reentrant_lock..ReentrantLockGuard$LT$core..cell..RefCell$LT$std..io..buffered..linewriter..LineWriter$LT$std..io..stdio..StdoutRaw$GT$$GT$$GT$$GT$17hd928a7e05015ad8eE', symObjAddr: 0x2840, symBinAddr: 0x1000544F0, symSize: 0x30 }
  - { offsetInCU: 0x10408, offset: 0x97F44, size: 0x8, addend: 0x0, symName: '__ZN4core3ptr181drop_in_place$LT$core..option..Option$LT$gimli..read..line..IncompleteLineProgram$LT$gimli..read..endian_slice..EndianSlice$LT$gimli..endianity..LittleEndian$GT$$C$usize$GT$$GT$$GT$17ha4c6928a2cf5b75aE', symObjAddr: 0x2870, symBinAddr: 0x100054520, symSize: 0xA0 }
  - { offsetInCU: 0x106C0, offset: 0x981FC, size: 0x8, addend: 0x0, symName: '__ZN4core3ptr184drop_in_place$LT$core..result..Result$LT$addr2line..function..Functions$LT$gimli..read..endian_slice..EndianSlice$LT$gimli..endianity..LittleEndian$GT$$GT$$C$gimli..read..Error$GT$$GT$17h559cfbb2de29274eE', symObjAddr: 0x2910, symBinAddr: 0x1000545C0, symSize: 0xE0 }
  - { offsetInCU: 0x1098C, offset: 0x984C8, size: 0x8, addend: 0x0, symName: '__ZN4core3ptr215drop_in_place$LT$std..sys..thread_local..native..lazy..State$LT$core..cell..Cell$LT$core..option..Option$LT$alloc..sync..Arc$LT$std..sync..mutex..Mutex$LT$alloc..vec..Vec$LT$u8$GT$$GT$$GT$$GT$$GT$$C$$LP$$RP$$GT$$GT$17ha69e16112f70cc34E', symObjAddr: 0x2A10, symBinAddr: 0x1000546A0, symSize: 0x30 }
  - { offsetInCU: 0x10A11, offset: 0x9854D, size: 0x8, addend: 0x0, symName: '__ZN4core3ptr250drop_in_place$LT$$LP$gimli..read..UnitOffset$C$addr2line..lazy..LazyCell$LT$core..result..Result$LT$addr2line..function..Function$LT$gimli..read..endian_slice..EndianSlice$LT$gimli..endianity..LittleEndian$GT$$GT$$C$gimli..read..Error$GT$$GT$$RP$$GT$17hf5dc2e31b3559957E', symObjAddr: 0x2A40, symBinAddr: 0x1000546D0, symSize: 0x60 }
  - { offsetInCU: 0x10A28, offset: 0x98564, size: 0x8, addend: 0x0, symName: '__ZN4core3ptr250drop_in_place$LT$$LP$gimli..read..UnitOffset$C$addr2line..lazy..LazyCell$LT$core..result..Result$LT$addr2line..function..Function$LT$gimli..read..endian_slice..EndianSlice$LT$gimli..endianity..LittleEndian$GT$$GT$$C$gimli..read..Error$GT$$GT$$RP$$GT$17hf5dc2e31b3559957E', symObjAddr: 0x2A40, symBinAddr: 0x1000546D0, symSize: 0x60 }
  - { offsetInCU: 0x10A3D, offset: 0x98579, size: 0x8, addend: 0x0, symName: '__ZN4core3ptr250drop_in_place$LT$$LP$gimli..read..UnitOffset$C$addr2line..lazy..LazyCell$LT$core..result..Result$LT$addr2line..function..Function$LT$gimli..read..endian_slice..EndianSlice$LT$gimli..endianity..LittleEndian$GT$$GT$$C$gimli..read..Error$GT$$GT$$RP$$GT$17hf5dc2e31b3559957E', symObjAddr: 0x2A40, symBinAddr: 0x1000546D0, symSize: 0x60 }
  - { offsetInCU: 0x10A52, offset: 0x9858E, size: 0x8, addend: 0x0, symName: '__ZN4core3ptr250drop_in_place$LT$$LP$gimli..read..UnitOffset$C$addr2line..lazy..LazyCell$LT$core..result..Result$LT$addr2line..function..Function$LT$gimli..read..endian_slice..EndianSlice$LT$gimli..endianity..LittleEndian$GT$$GT$$C$gimli..read..Error$GT$$GT$$RP$$GT$17hf5dc2e31b3559957E', symObjAddr: 0x2A40, symBinAddr: 0x1000546D0, symSize: 0x60 }
  - { offsetInCU: 0x10B90, offset: 0x986CC, size: 0x8, addend: 0x0, symName: '__ZN4core3ptr273drop_in_place$LT$alloc..vec..Vec$LT$$LP$gimli..read..UnitOffset$C$addr2line..lazy..LazyCell$LT$core..result..Result$LT$addr2line..function..Function$LT$gimli..read..endian_slice..EndianSlice$LT$gimli..endianity..LittleEndian$GT$$GT$$C$gimli..read..Error$GT$$GT$$RP$$GT$$GT$17heb6aa6615a37ff1aE', symObjAddr: 0x2AA0, symBinAddr: 0x100054730, symSize: 0xC0 }
  - { offsetInCU: 0x10DA5, offset: 0x988E1, size: 0x8, addend: 0x0, symName: '__ZN4core3ptr275drop_in_place$LT$gimli..read..line..LineRows$LT$gimli..read..endian_slice..EndianSlice$LT$gimli..endianity..LittleEndian$GT$$C$gimli..read..line..IncompleteLineProgram$LT$gimli..read..endian_slice..EndianSlice$LT$gimli..endianity..LittleEndian$GT$$C$usize$GT$$C$usize$GT$$GT$17hc6e119e385b7ab77E', symObjAddr: 0x2B60, symBinAddr: 0x1000547F0, symSize: 0x90 }
  - { offsetInCU: 0x10FCE, offset: 0x98B0A, size: 0x8, addend: 0x0, symName: '__ZN4core3ptr280drop_in_place$LT$$LT$alloc..collections..btree..map..IntoIter$LT$K$C$V$C$A$GT$$u20$as$u20$core..ops..drop..Drop$GT$..drop..DropGuard$LT$u64$C$core..result..Result$LT$alloc..sync..Arc$LT$gimli..read..abbrev..Abbreviations$GT$$C$gimli..read..Error$GT$$C$alloc..alloc..Global$GT$$GT$17haa387ba74ff7800eE', symObjAddr: 0x2BF0, symBinAddr: 0x100054880, symSize: 0x80 }
  - { offsetInCU: 0x110E4, offset: 0x98C20, size: 0x8, addend: 0x0, symName: '__ZN4core3ptr285drop_in_place$LT$alloc..boxed..Box$LT$$u5b$$LP$gimli..read..UnitOffset$C$addr2line..lazy..LazyCell$LT$core..result..Result$LT$addr2line..function..Function$LT$gimli..read..endian_slice..EndianSlice$LT$gimli..endianity..LittleEndian$GT$$GT$$C$gimli..read..Error$GT$$GT$$RP$$u5d$$GT$$GT$17ha9d866c795750427E', symObjAddr: 0x2C70, symBinAddr: 0x100054900, symSize: 0xA0 }
  - { offsetInCU: 0x110FB, offset: 0x98C37, size: 0x8, addend: 0x0, symName: '__ZN4core3ptr285drop_in_place$LT$alloc..boxed..Box$LT$$u5b$$LP$gimli..read..UnitOffset$C$addr2line..lazy..LazyCell$LT$core..result..Result$LT$addr2line..function..Function$LT$gimli..read..endian_slice..EndianSlice$LT$gimli..endianity..LittleEndian$GT$$GT$$C$gimli..read..Error$GT$$GT$$RP$$u5d$$GT$$GT$17ha9d866c795750427E', symObjAddr: 0x2C70, symBinAddr: 0x100054900, symSize: 0xA0 }
  - { offsetInCU: 0x11B1E, offset: 0x9965A, size: 0x8, addend: 0x0, symName: '__ZN4core3ptr37drop_in_place$LT$std..env..VarsOs$GT$17h11114906b43ef652E', symObjAddr: 0x2D10, symBinAddr: 0x1000549A0, symSize: 0xB0 }
  - { offsetInCU: 0x11DC5, offset: 0x99901, size: 0x8, addend: 0x0, symName: '__ZN4core3ptr383drop_in_place$LT$core..result..Result$LT$core..option..Option$LT$alloc..boxed..Box$LT$$LP$alloc..sync..Arc$LT$gimli..read..dwarf..Dwarf$LT$gimli..read..endian_slice..EndianSlice$LT$gimli..endianity..LittleEndian$GT$$GT$$GT$$C$gimli..read..dwarf..Unit$LT$gimli..read..endian_slice..EndianSlice$LT$gimli..endianity..LittleEndian$GT$$C$usize$GT$$RP$$GT$$GT$$C$gimli..read..Error$GT$$GT$17h5734f377dfec8591E', symObjAddr: 0x2DC0, symBinAddr: 0x100054A50, symSize: 0xB0 }
  - { offsetInCU: 0x11FD0, offset: 0x99B0C, size: 0x8, addend: 0x0, symName: '__ZN4core3ptr41drop_in_place$LT$std..panicking..Hook$GT$17hb6b24b4254eb1cd5E', symObjAddr: 0x2EF0, symBinAddr: 0x100054B00, symSize: 0x70 }
  - { offsetInCU: 0x120C6, offset: 0x99C02, size: 0x8, addend: 0x0, symName: '__ZN4core3ptr42drop_in_place$LT$alloc..string..String$GT$17h59db15f85295d131E', symObjAddr: 0x2F60, symBinAddr: 0x100054B70, symSize: 0x20 }
  - { offsetInCU: 0x1218C, offset: 0x99CC8, size: 0x8, addend: 0x0, symName: '__ZN4core3ptr42drop_in_place$LT$std..io..error..Error$GT$17h4537743dc9fddae3E', symObjAddr: 0x2F80, symBinAddr: 0x100054B90, symSize: 0xA0 }
  - { offsetInCU: 0x123DE, offset: 0x99F1A, size: 0x8, addend: 0x0, symName: '__ZN4core3ptr44drop_in_place$LT$object..read..ObjectMap$GT$17hb75450a95801e694E', symObjAddr: 0x3020, symBinAddr: 0x100054C30, symSize: 0x50 }
  - { offsetInCU: 0x124EE, offset: 0x9A02A, size: 0x8, addend: 0x0, symName: '__ZN4core3ptr44drop_in_place$LT$std..thread..PanicGuard$GT$17h49c674bf97cb17c2E', symObjAddr: 0x30D0, symBinAddr: 0x100054C80, symSize: 0x50 }
  - { offsetInCU: 0x12540, offset: 0x9A07C, size: 0x8, addend: 0x0, symName: '__ZN4core3ptr44drop_in_place$LT$std..thread..ThreadName$GT$17h9ea89f3b915aba6cE', symObjAddr: 0x3120, symBinAddr: 0x100054CD0, symSize: 0x30 }
  - { offsetInCU: 0x125EB, offset: 0x9A127, size: 0x8, addend: 0x0, symName: '__ZN4core3ptr46drop_in_place$LT$alloc..vec..Vec$LT$u8$GT$$GT$17h9a5e643e9b7c3ef8E', symObjAddr: 0x3150, symBinAddr: 0x100054D00, symSize: 0x20 }
  - { offsetInCU: 0x12667, offset: 0x9A1A3, size: 0x8, addend: 0x0, symName: '__ZN4core3ptr46drop_in_place$LT$std..io..stdio..StdinLock$GT$17h1000111f529ce114E', symObjAddr: 0x3170, symBinAddr: 0x100054D20, symSize: 0x50 }
  - { offsetInCU: 0x1279A, offset: 0x9A2D6, size: 0x8, addend: 0x0, symName: '__ZN4core3ptr47drop_in_place$LT$std..ffi..os_str..OsString$GT$17h3a6df74ae044ef4fE', symObjAddr: 0x31F0, symBinAddr: 0x100054D70, symSize: 0x20 }
  - { offsetInCU: 0x12825, offset: 0x9A361, size: 0x8, addend: 0x0, symName: '__ZN4core3ptr48drop_in_place$LT$alloc..ffi..c_str..NulError$GT$17hd0083903c682d5d8E', symObjAddr: 0x3210, symBinAddr: 0x100054D90, symSize: 0x20 }
  - { offsetInCU: 0x128EB, offset: 0x9A427, size: 0x8, addend: 0x0, symName: '__ZN4core3ptr55drop_in_place$LT$gimli..read..abbrev..Abbreviations$GT$17ha5b955a9654883aaE', symObjAddr: 0x34F0, symBinAddr: 0x100054DB0, symSize: 0x90 }
  - { offsetInCU: 0x12A7C, offset: 0x9A5B8, size: 0x8, addend: 0x0, symName: '__ZN4core3ptr60drop_in_place$LT$gimli..read..abbrev..AbbreviationsCache$GT$17h1b2b5f77a55605caE', symObjAddr: 0x3590, symBinAddr: 0x100054E40, symSize: 0xE0 }
  - { offsetInCU: 0x12BD9, offset: 0x9A715, size: 0x8, addend: 0x0, symName: '__ZN4core3ptr62drop_in_place$LT$std..sys..sync..rwlock..queue..PanicGuard$GT$17h771b0fc3a251803cE', symObjAddr: 0x3670, symBinAddr: 0x100054F20, symSize: 0x50 }
  - { offsetInCU: 0x12C38, offset: 0x9A774, size: 0x8, addend: 0x0, symName: '__ZN4core3ptr65drop_in_place$LT$alloc..vec..Vec$LT$alloc..string..String$GT$$GT$17hcd9f36ca87523893E', symObjAddr: 0x36C0, symBinAddr: 0x100054F70, symSize: 0x90 }
  - { offsetInCU: 0x12D82, offset: 0x9A8BE, size: 0x8, addend: 0x0, symName: '__ZN4core3ptr65drop_in_place$LT$std..backtrace_rs..symbolize..gimli..Mapping$GT$17ha8f2d80facd881efE', symObjAddr: 0x3750, symBinAddr: 0x100055000, symSize: 0x90 }
  - { offsetInCU: 0x12E34, offset: 0x9A970, size: 0x8, addend: 0x0, symName: '__ZN4core3ptr67drop_in_place$LT$alloc..vec..Vec$LT$addr2line..LineSequence$GT$$GT$17h3097d000094deec4E', symObjAddr: 0x37E0, symBinAddr: 0x100055090, symSize: 0x90 }
  - { offsetInCU: 0x12F73, offset: 0x9AAAF, size: 0x8, addend: 0x0, symName: '__ZN4core3ptr70drop_in_place$LT$alloc..vec..Vec$LT$alloc..ffi..c_str..CString$GT$$GT$17h021c146b17c82913E', symObjAddr: 0x3870, symBinAddr: 0x100055120, symSize: 0x80 }
  - { offsetInCU: 0x1309D, offset: 0x9ABD9, size: 0x8, addend: 0x0, symName: '__ZN4core3ptr70drop_in_place$LT$alloc..vec..Vec$LT$std..ffi..os_str..OsString$GT$$GT$17h7c2b9356e97e7b71E', symObjAddr: 0x38F0, symBinAddr: 0x1000551A0, symSize: 0x90 }
  - { offsetInCU: 0x1324A, offset: 0x9AD86, size: 0x8, addend: 0x0, symName: '__ZN4core3ptr70drop_in_place$LT$std..backtrace_rs..symbolize..gimli..stash..Stash$GT$17h90e0b0985b8e22d0E', symObjAddr: 0x3980, symBinAddr: 0x100055230, symSize: 0xE0 }
  - { offsetInCU: 0x134E4, offset: 0x9B020, size: 0x8, addend: 0x0, symName: '__ZN4core3ptr71drop_in_place$LT$std..backtrace_rs..symbolize..gimli..macho..Object$GT$17h2fff3db3a7544d43E', symObjAddr: 0x3A60, symBinAddr: 0x100055310, symSize: 0x160 }
  - { offsetInCU: 0x137E9, offset: 0x9B325, size: 0x8, addend: 0x0, symName: '__ZN4core3ptr71drop_in_place$LT$std..sync..rwlock..RwLockReadGuard$LT$$LP$$RP$$GT$$GT$17h1d840147d479c1dbE', symObjAddr: 0x3C30, symBinAddr: 0x100055470, symSize: 0x40 }
  - { offsetInCU: 0x1389A, offset: 0x9B3D6, size: 0x8, addend: 0x0, symName: '__ZN4core3ptr72drop_in_place$LT$core..option..Option$LT$object..read..ObjectMap$GT$$GT$17h4ff1d16f78bfc967E', symObjAddr: 0x3C70, symBinAddr: 0x1000554B0, symSize: 0x60 }
  - { offsetInCU: 0x139C0, offset: 0x9B4FC, size: 0x8, addend: 0x0, symName: '__ZN4core3ptr77drop_in_place$LT$alloc..boxed..Box$LT$$u5b$alloc..string..String$u5d$$GT$$GT$17h5a079cec55cc326eE', symObjAddr: 0x3D20, symBinAddr: 0x100055510, symSize: 0x60 }
  - { offsetInCU: 0x139D7, offset: 0x9B513, size: 0x8, addend: 0x0, symName: '__ZN4core3ptr77drop_in_place$LT$alloc..boxed..Box$LT$$u5b$alloc..string..String$u5d$$GT$$GT$17h5a079cec55cc326eE', symObjAddr: 0x3D20, symBinAddr: 0x100055510, symSize: 0x60 }
  - { offsetInCU: 0x13AD0, offset: 0x9B60C, size: 0x8, addend: 0x0, symName: '__ZN4core3ptr77drop_in_place$LT$std..panicking..begin_panic_handler..FormatStringPayload$GT$17hda64c1aa4eb7db50E', symObjAddr: 0x3D80, symBinAddr: 0x100055570, symSize: 0x30 }
  - { offsetInCU: 0x13B81, offset: 0x9B6BD, size: 0x8, addend: 0x0, symName: '__ZN4core3ptr77drop_in_place$LT$std..sys..pal..unix..process..process_common..ChildPipes$GT$17hc5abfb62920ab5a8E', symObjAddr: 0x3DB0, symBinAddr: 0x1000555A0, symSize: 0x50 }
  - { offsetInCU: 0x13C8F, offset: 0x9B7CB, size: 0x8, addend: 0x0, symName: '__ZN4core3ptr77drop_in_place$LT$std..sys..pal..unix..process..process_common..StdioPipes$GT$17h1282f5eddca9c8b1E', symObjAddr: 0x3E00, symBinAddr: 0x1000555F0, symSize: 0x40 }
  - { offsetInCU: 0x13DCA, offset: 0x9B906, size: 0x8, addend: 0x0, symName: '__ZN4core3ptr78drop_in_place$LT$core..result..Result$LT$usize$C$std..io..error..Error$GT$$GT$17h3fff780f81e24e8bE', symObjAddr: 0x3E40, symBinAddr: 0x100055630, symSize: 0x20 }
  - { offsetInCU: 0x13DDD, offset: 0x9B919, size: 0x8, addend: 0x0, symName: '__ZN4core3ptr79drop_in_place$LT$std..sys..pal..unix..process..process_common..CStringArray$GT$17ha3df882ee42ef0fdE', symObjAddr: 0x3E60, symBinAddr: 0x100055650, symSize: 0xA0 }
  - { offsetInCU: 0x13F94, offset: 0x9BAD0, size: 0x8, addend: 0x0, symName: '__ZN4core3ptr81drop_in_place$LT$core..result..Result$LT$$LP$$RP$$C$std..io..error..Error$GT$$GT$17h7d4aca425c3ff71eE', symObjAddr: 0x3F00, symBinAddr: 0x1000556F0, symSize: 0x20 }
  - { offsetInCU: 0x13FA7, offset: 0x9BAE3, size: 0x8, addend: 0x0, symName: '__ZN4core3ptr84drop_in_place$LT$$LP$std..ffi..os_str..OsString$C$std..ffi..os_str..OsString$RP$$GT$17hda43f59417df7d79E', symObjAddr: 0x3F20, symBinAddr: 0x100055710, symSize: 0x50 }
  - { offsetInCU: 0x140E2, offset: 0x9BC1E, size: 0x8, addend: 0x0, symName: '__ZN4core3ptr84drop_in_place$LT$alloc..sync..ArcInner$LT$gimli..read..abbrev..Abbreviations$GT$$GT$17ha88d315bc6ee2a6bE', symObjAddr: 0x3F70, symBinAddr: 0x100055760, symSize: 0x90 }
  - { offsetInCU: 0x14290, offset: 0x9BDCC, size: 0x8, addend: 0x0, symName: '__ZN4core3ptr86drop_in_place$LT$core..result..Result$LT$addr2line..Lines$C$gimli..read..Error$GT$$GT$17h5bcb985cd394798dE', symObjAddr: 0x4000, symBinAddr: 0x1000557F0, symSize: 0xE0 }
  - { offsetInCU: 0x144DC, offset: 0x9C018, size: 0x8, addend: 0x0, symName: '__ZN4core3ptr87drop_in_place$LT$alloc..sync..ArcInner$LT$std..sys..pal..unix..fs..InnerReadDir$GT$$GT$17h27f97e30407649b5E', symObjAddr: 0x40E0, symBinAddr: 0x1000558D0, symSize: 0x60 }
  - { offsetInCU: 0x146A1, offset: 0x9C1DD, size: 0x8, addend: 0x0, symName: '__ZN4core3ptr88drop_in_place$LT$alloc..vec..Vec$LT$std..backtrace_rs..symbolize..gimli..Library$GT$$GT$17h5a2d70ef2c57636eE', symObjAddr: 0x4170, symBinAddr: 0x100055930, symSize: 0xA0 }
  - { offsetInCU: 0x14864, offset: 0x9C3A0, size: 0x8, addend: 0x0, symName: '__ZN4core3ptr88drop_in_place$LT$std..io..Write..write_fmt..Adapter$LT$alloc..vec..Vec$LT$u8$GT$$GT$$GT$17hb79e3e627b3b4cadE', symObjAddr: 0x4210, symBinAddr: 0x1000559D0, symSize: 0x20 }
  - { offsetInCU: 0x1489F, offset: 0x9C3DB, size: 0x8, addend: 0x0, symName: '__ZN4core3ptr90drop_in_place$LT$std..io..buffered..bufwriter..BufWriter$LT$W$GT$..flush_buf..BufGuard$GT$17h473e0dbc3acd3280E', symObjAddr: 0x4230, symBinAddr: 0x1000559F0, symSize: 0x60 }
  - { offsetInCU: 0x14A15, offset: 0x9C551, size: 0x8, addend: 0x0, symName: '__ZN4core3ptr92drop_in_place$LT$alloc..boxed..Box$LT$std..sys..sync..mutex..pthread..AllocatedMutex$GT$$GT$17h0d8fca55e8e556b5E', symObjAddr: 0x42F0, symBinAddr: 0x100055A50, symSize: 0x30 }
  - { offsetInCU: 0x14AAE, offset: 0x9C5EA, size: 0x8, addend: 0x0, symName: '__ZN4core3ptr95drop_in_place$LT$core..option..IntoIter$LT$std..backtrace_rs..symbolize..gimli..Library$GT$$GT$17h7258725f4014309aE', symObjAddr: 0x4320, symBinAddr: 0x100055A80, symSize: 0x50 }
  - { offsetInCU: 0x14ACC, offset: 0x9C608, size: 0x8, addend: 0x0, symName: '__ZN4core3ptr95drop_in_place$LT$core..option..IntoIter$LT$std..backtrace_rs..symbolize..gimli..Library$GT$$GT$17h7258725f4014309aE', symObjAddr: 0x4320, symBinAddr: 0x100055A80, symSize: 0x50 }
  - { offsetInCU: 0x14AE1, offset: 0x9C61D, size: 0x8, addend: 0x0, symName: '__ZN4core3ptr95drop_in_place$LT$core..option..IntoIter$LT$std..backtrace_rs..symbolize..gimli..Library$GT$$GT$17h7258725f4014309aE', symObjAddr: 0x4320, symBinAddr: 0x100055A80, symSize: 0x50 }
  - { offsetInCU: 0x14C29, offset: 0x9C765, size: 0x8, addend: 0x0, symName: '__ZN4core3ptr95drop_in_place$LT$std..io..buffered..linewriter..LineWriter$LT$std..io..stdio..StdoutRaw$GT$$GT$17h9c9d8a01642b58edE', symObjAddr: 0x4370, symBinAddr: 0x100055AD0, symSize: 0xF0 }
  - { offsetInCU: 0x179B7, offset: 0x9F4F3, size: 0x8, addend: 0x0, symName: __ZN4core5slice4sort6shared5pivot11median3_rec17h10ec5dd456f10a23E, symObjAddr: 0x48A0, symBinAddr: 0x100055CC0, symSize: 0xC0 }
  - { offsetInCU: 0x17ABE, offset: 0x9F5FA, size: 0x8, addend: 0x0, symName: __ZN4core5slice4sort6shared5pivot11median3_rec17h5d7401d54a70e545E, symObjAddr: 0x4960, symBinAddr: 0x100055D80, symSize: 0xC0 }
  - { offsetInCU: 0x17BC5, offset: 0x9F701, size: 0x8, addend: 0x0, symName: __ZN4core5slice4sort6shared5pivot11median3_rec17h678771bdd9989bc4E, symObjAddr: 0x4A20, symBinAddr: 0x100055E40, symSize: 0xB0 }
  - { offsetInCU: 0x17D22, offset: 0x9F85E, size: 0x8, addend: 0x0, symName: __ZN4core5slice4sort6shared5pivot11median3_rec17ha6d876ea0e6caac1E, symObjAddr: 0x4AD0, symBinAddr: 0x100055EF0, symSize: 0x140 }
  - { offsetInCU: 0x17F55, offset: 0x9FA91, size: 0x8, addend: 0x0, symName: __ZN4core5slice4sort6shared5pivot11median3_rec17hb596338b09cc9a1dE, symObjAddr: 0x4C10, symBinAddr: 0x100056030, symSize: 0xC0 }
  - { offsetInCU: 0x1805C, offset: 0x9FB98, size: 0x8, addend: 0x0, symName: __ZN4core5slice4sort6shared5pivot11median3_rec17hd8b0c8642d516098E, symObjAddr: 0x4CD0, symBinAddr: 0x1000560F0, symSize: 0x110 }
  - { offsetInCU: 0x1816D, offset: 0x9FCA9, size: 0x8, addend: 0x0, symName: __ZN4core5slice4sort6shared5pivot11median3_rec17hf1ffff1af254135dE, symObjAddr: 0x4DE0, symBinAddr: 0x100056200, symSize: 0xB0 }
  - { offsetInCU: 0x18274, offset: 0x9FDB0, size: 0x8, addend: 0x0, symName: __ZN4core5slice4sort6shared5pivot11median3_rec17hfa40af6741a5ea49E, symObjAddr: 0x4E90, symBinAddr: 0x1000562B0, symSize: 0xC0 }
  - { offsetInCU: 0x18443, offset: 0x9FF7F, size: 0x8, addend: 0x0, symName: __ZN4core5slice4sort6shared9smallsort12sort4_stable17h5c9a4fc1faf1c3f0E, symObjAddr: 0x4F50, symBinAddr: 0x100056370, symSize: 0x1F0 }
  - { offsetInCU: 0x18819, offset: 0xA0355, size: 0x8, addend: 0x0, symName: __ZN4core5slice4sort6shared9smallsort12sort4_stable17hebd3516948f59830E, symObjAddr: 0x5140, symBinAddr: 0x100056560, symSize: 0x1B0 }
  - { offsetInCU: 0x18A12, offset: 0xA054E, size: 0x8, addend: 0x0, symName: __ZN4core5slice4sort6shared9smallsort12sort8_stable17h73fc3d1f23e89cd0E, symObjAddr: 0x52F0, symBinAddr: 0x100056710, symSize: 0x3E0 }
  - { offsetInCU: 0x19200, offset: 0xA0D3C, size: 0x8, addend: 0x0, symName: __ZN4core5slice4sort6shared9smallsort18small_sort_general17h8580350dc89e0b16E, symObjAddr: 0x56D0, symBinAddr: 0x100056AF0, symSize: 0x4F0 }
  - { offsetInCU: 0x1978A, offset: 0xA12C6, size: 0x8, addend: 0x0, symName: __ZN4core5slice4sort6shared9smallsort18small_sort_general17hb8ddaadc775fa7bbE, symObjAddr: 0x5BC0, symBinAddr: 0x100056FE0, symSize: 0x630 }
  - { offsetInCU: 0x1A24C, offset: 0xA1D88, size: 0x8, addend: 0x0, symName: __ZN4core5slice4sort6stable14driftsort_main17h0a12b591811d8d96E, symObjAddr: 0x61F0, symBinAddr: 0x100057610, symSize: 0x130 }
  - { offsetInCU: 0x1A4C6, offset: 0xA2002, size: 0x8, addend: 0x0, symName: __ZN4core5slice4sort6stable14driftsort_main17h2603d9940a6b7425E, symObjAddr: 0x6320, symBinAddr: 0x100057740, symSize: 0x130 }
  - { offsetInCU: 0x1A740, offset: 0xA227C, size: 0x8, addend: 0x0, symName: __ZN4core5slice4sort6stable14driftsort_main17h89a899ff82e24bb0E, symObjAddr: 0x6450, symBinAddr: 0x100057870, symSize: 0x130 }
  - { offsetInCU: 0x1A9BA, offset: 0xA24F6, size: 0x8, addend: 0x0, symName: __ZN4core5slice4sort6stable14driftsort_main17haf200431324837b0E, symObjAddr: 0x6580, symBinAddr: 0x1000579A0, symSize: 0x140 }
  - { offsetInCU: 0x1AC34, offset: 0xA2770, size: 0x8, addend: 0x0, symName: __ZN4core5slice4sort6stable14driftsort_main17hb8200fd42e629335E, symObjAddr: 0x66C0, symBinAddr: 0x100057AE0, symSize: 0x150 }
  - { offsetInCU: 0x1AE43, offset: 0xA297F, size: 0x8, addend: 0x0, symName: __ZN4core5slice4sort6stable14driftsort_main17heb01477367bce3a7E, symObjAddr: 0x6810, symBinAddr: 0x100057C30, symSize: 0x140 }
  - { offsetInCU: 0x1B28B, offset: 0xA2DC7, size: 0x8, addend: 0x0, symName: __ZN4core5slice4sort6stable5drift4sort17h04c31658064cd2b3E, symObjAddr: 0x6950, symBinAddr: 0x100057D70, symSize: 0x690 }
  - { offsetInCU: 0x1BA7A, offset: 0xA35B6, size: 0x8, addend: 0x0, symName: __ZN4core5slice4sort6stable5drift4sort17h0e577c903e03f750E, symObjAddr: 0x6FE0, symBinAddr: 0x100058400, symSize: 0x6C0 }
  - { offsetInCU: 0x1C269, offset: 0xA3DA5, size: 0x8, addend: 0x0, symName: __ZN4core5slice4sort6stable5drift4sort17h178a996c19cdced7E, symObjAddr: 0x76A0, symBinAddr: 0x100058AC0, symSize: 0x6C0 }
  - { offsetInCU: 0x1CA68, offset: 0xA45A4, size: 0x8, addend: 0x0, symName: __ZN4core5slice4sort6stable5drift4sort17h3bc04abf75ca8a28E, symObjAddr: 0x7D60, symBinAddr: 0x100059180, symSize: 0x700 }
  - { offsetInCU: 0x1D2B7, offset: 0xA4DF3, size: 0x8, addend: 0x0, symName: __ZN4core5slice4sort6stable5drift4sort17h4d0d7298f6ebbf91E, symObjAddr: 0x8460, symBinAddr: 0x100059880, symSize: 0x6B0 }
  - { offsetInCU: 0x1DAB6, offset: 0xA55F2, size: 0x8, addend: 0x0, symName: __ZN4core5slice4sort6stable5drift4sort17h9eb579a7e11a429dE, symObjAddr: 0x8B10, symBinAddr: 0x100059F30, symSize: 0x6F0 }
  - { offsetInCU: 0x1E4A1, offset: 0xA5FDD, size: 0x8, addend: 0x0, symName: __ZN4core5slice4sort6stable9quicksort9quicksort17h17dfc7d88980d1d4E, symObjAddr: 0x9200, symBinAddr: 0x10005A620, symSize: 0xBB0 }
  - { offsetInCU: 0x1FBEF, offset: 0xA772B, size: 0x8, addend: 0x0, symName: __ZN4core5slice4sort6stable9quicksort9quicksort17h38f12e856567aa96E, symObjAddr: 0x9DB0, symBinAddr: 0x10005B1D0, symSize: 0xB20 }
  - { offsetInCU: 0x20565, offset: 0xA80A1, size: 0x8, addend: 0x0, symName: __ZN4core5slice4sort6stable9quicksort9quicksort17h39128ce8a0799e8bE, symObjAddr: 0xA8D0, symBinAddr: 0x10005BCF0, symSize: 0xD40 }
  - { offsetInCU: 0x21370, offset: 0xA8EAC, size: 0x8, addend: 0x0, symName: __ZN4core5slice4sort6stable9quicksort9quicksort17h3a28d19f02358dcaE, symObjAddr: 0xB610, symBinAddr: 0x10005CA30, symSize: 0xBF0 }
  - { offsetInCU: 0x22195, offset: 0xA9CD1, size: 0x8, addend: 0x0, symName: __ZN4core5slice4sort6stable9quicksort9quicksort17h8c087a1b45054228E, symObjAddr: 0xC200, symBinAddr: 0x10005D620, symSize: 0xC40 }
  - { offsetInCU: 0x22FAA, offset: 0xAAAE6, size: 0x8, addend: 0x0, symName: __ZN4core5slice4sort6stable9quicksort9quicksort17hc014ef5dc52f58bfE, symObjAddr: 0xCE40, symBinAddr: 0x10005E260, symSize: 0xB20 }
  - { offsetInCU: 0x23E38, offset: 0xAB974, size: 0x8, addend: 0x0, symName: __ZN4core5slice4sort8unstable7ipnsort17h8289eeaf98734eb7E, symObjAddr: 0xD960, symBinAddr: 0x10005ED80, symSize: 0x1A0 }
  - { offsetInCU: 0x240EC, offset: 0xABC28, size: 0x8, addend: 0x0, symName: __ZN4core5slice4sort8unstable7ipnsort17h8eb614293eee64e8E, symObjAddr: 0xDB00, symBinAddr: 0x10005EF20, symSize: 0xF0 }
  - { offsetInCU: 0x2428C, offset: 0xABDC8, size: 0x8, addend: 0x0, symName: __ZN4core5slice4sort8unstable8heapsort8heapsort17h521fb1d1e30789c6E, symObjAddr: 0xDBF0, symBinAddr: 0x10005F010, symSize: 0xE0 }
  - { offsetInCU: 0x243A4, offset: 0xABEE0, size: 0x8, addend: 0x0, symName: __ZN4core5slice4sort8unstable8heapsort8heapsort17h98b8ce9a74c50809E, symObjAddr: 0xDCD0, symBinAddr: 0x10005F0F0, symSize: 0xE0 }
  - { offsetInCU: 0x244BC, offset: 0xABFF8, size: 0x8, addend: 0x0, symName: __ZN4core5slice4sort8unstable8heapsort9sift_down17h4191d8eebb1da157E, symObjAddr: 0xDDB0, symBinAddr: 0x10005F1D0, symSize: 0x130 }
  - { offsetInCU: 0x2468F, offset: 0xAC1CB, size: 0x8, addend: 0x0, symName: __ZN4core5slice4sort8unstable8heapsort9sift_down17h78e5b96021857d96E, symObjAddr: 0xDEE0, symBinAddr: 0x10005F300, symSize: 0xC0 }
  - { offsetInCU: 0x24807, offset: 0xAC343, size: 0x8, addend: 0x0, symName: __ZN4core5slice4sort8unstable9quicksort9quicksort17hbb237c64d8c9a3ddE, symObjAddr: 0xDFA0, symBinAddr: 0x10005F3C0, symSize: 0x770 }
  - { offsetInCU: 0x25434, offset: 0xACF70, size: 0x8, addend: 0x0, symName: __ZN4core5slice4sort8unstable9quicksort9quicksort17hfdd67d94a1025140E, symObjAddr: 0xE710, symBinAddr: 0x10005FB30, symSize: 0x530 }
  - { offsetInCU: 0x25D86, offset: 0xAD8C2, size: 0x8, addend: 0x0, symName: '__ZN36_$LT$T$u20$as$u20$core..any..Any$GT$7type_id17h184ba471db4c54d0E', symObjAddr: 0x230, symBinAddr: 0x100052C20, symSize: 0x20 }
  - { offsetInCU: 0x25D9F, offset: 0xAD8DB, size: 0x8, addend: 0x0, symName: '__ZN36_$LT$T$u20$as$u20$core..any..Any$GT$7type_id17hea58b14a7d4f43b6E', symObjAddr: 0x270, symBinAddr: 0x100052C40, symSize: 0x20 }
  - { offsetInCU: 0x25E1A, offset: 0xAD956, size: 0x8, addend: 0x0, symName: '__ZN42_$LT$$RF$T$u20$as$u20$core..fmt..Debug$GT$3fmt17h00ca7100f553597dE', symObjAddr: 0x2D0, symBinAddr: 0x100052C60, symSize: 0x30 }
  - { offsetInCU: 0x25E5F, offset: 0xAD99B, size: 0x8, addend: 0x0, symName: '__ZN42_$LT$$RF$T$u20$as$u20$core..fmt..Debug$GT$3fmt17h047f9c6be51c5e85E', symObjAddr: 0x3D0, symBinAddr: 0x100052C90, symSize: 0x20 }
  - { offsetInCU: 0x25E9C, offset: 0xAD9D8, size: 0x8, addend: 0x0, symName: '__ZN42_$LT$$RF$T$u20$as$u20$core..fmt..Debug$GT$3fmt17h08dfd7a6fdead5d8E', symObjAddr: 0x3F0, symBinAddr: 0x100052CB0, symSize: 0xA0 }
  - { offsetInCU: 0x25F51, offset: 0xADA8D, size: 0x8, addend: 0x0, symName: '__ZN42_$LT$$RF$T$u20$as$u20$core..fmt..Debug$GT$3fmt17h2a5fbfcbcacc3cd4E', symObjAddr: 0x5C0, symBinAddr: 0x100052D50, symSize: 0x30 }
  - { offsetInCU: 0x25F96, offset: 0xADAD2, size: 0x8, addend: 0x0, symName: '__ZN42_$LT$$RF$T$u20$as$u20$core..fmt..Debug$GT$3fmt17h313665a3a2873b42E', symObjAddr: 0x5F0, symBinAddr: 0x100052D80, symSize: 0x20 }
  - { offsetInCU: 0x25FA9, offset: 0xADAE5, size: 0x8, addend: 0x0, symName: '__ZN42_$LT$$RF$T$u20$as$u20$core..fmt..Debug$GT$3fmt17h8357e08665e3252eE', symObjAddr: 0x7B0, symBinAddr: 0x100052DA0, symSize: 0x20 }
  - { offsetInCU: 0x25FD9, offset: 0xADB15, size: 0x8, addend: 0x0, symName: '__ZN42_$LT$$RF$T$u20$as$u20$core..fmt..Debug$GT$3fmt17h8f2fa358bc7ded07E', symObjAddr: 0x7D0, symBinAddr: 0x100052DC0, symSize: 0x30 }
  - { offsetInCU: 0x2601E, offset: 0xADB5A, size: 0x8, addend: 0x0, symName: '__ZN42_$LT$$RF$T$u20$as$u20$core..fmt..Debug$GT$3fmt17ha41cce5cd0eb155fE', symObjAddr: 0x850, symBinAddr: 0x100052DF0, symSize: 0x80 }
  - { offsetInCU: 0x26122, offset: 0xADC5E, size: 0x8, addend: 0x0, symName: '__ZN42_$LT$$RF$T$u20$as$u20$core..fmt..Debug$GT$3fmt17hff314e08602682f1E', symObjAddr: 0xC00, symBinAddr: 0x100052E70, symSize: 0x80 }
  - { offsetInCU: 0x26255, offset: 0xADD91, size: 0x8, addend: 0x0, symName: '__ZN4core3fmt3num50_$LT$impl$u20$core..fmt..Debug$u20$for$u20$i32$GT$3fmt17heb82f64e9c17302eE', symObjAddr: 0xD00, symBinAddr: 0x100052F20, symSize: 0x30 }
  - { offsetInCU: 0x2628F, offset: 0xADDCB, size: 0x8, addend: 0x0, symName: '__ZN4core3fmt3num52_$LT$impl$u20$core..fmt..Debug$u20$for$u20$usize$GT$3fmt17h9e5c63f85393f427E', symObjAddr: 0xDC0, symBinAddr: 0x100052F50, symSize: 0x30 }
  - { offsetInCU: 0x262FD, offset: 0xADE39, size: 0x8, addend: 0x0, symName: '__ZN44_$LT$$RF$T$u20$as$u20$core..fmt..Display$GT$3fmt17h2561f68ab83c0377E', symObjAddr: 0xC80, symBinAddr: 0x100052EF0, symSize: 0x20 }
  - { offsetInCU: 0x26317, offset: 0xADE53, size: 0x8, addend: 0x0, symName: '__ZN44_$LT$$RF$T$u20$as$u20$core..fmt..Display$GT$3fmt17ha96dd7b9b4ed7d15E', symObjAddr: 0xCA0, symBinAddr: 0x100052F10, symSize: 0x10 }
  - { offsetInCU: 0x26351, offset: 0xADE8D, size: 0x8, addend: 0x0, symName: __ZN4core3fmt5Write10write_char17h0e9f9482d9ccc128E, symObjAddr: 0xDF0, symBinAddr: 0x100052F80, symSize: 0x110 }
  - { offsetInCU: 0x263C5, offset: 0xADF01, size: 0x8, addend: 0x0, symName: __ZN4core3fmt5Write10write_char17h14597a5308b119e7E, symObjAddr: 0xF00, symBinAddr: 0x100053090, symSize: 0x110 }
  - { offsetInCU: 0x26439, offset: 0xADF75, size: 0x8, addend: 0x0, symName: __ZN4core3fmt5Write10write_char17hc62b739fc03a608eE, symObjAddr: 0x11A0, symBinAddr: 0x1000531A0, symSize: 0x190 }
  - { offsetInCU: 0x265B9, offset: 0xAE0F5, size: 0x8, addend: 0x0, symName: __ZN4core3fmt5Write10write_char17heee569dec9bacd55E, symObjAddr: 0x1330, symBinAddr: 0x100053330, symSize: 0x120 }
  - { offsetInCU: 0x2672A, offset: 0xAE266, size: 0x8, addend: 0x0, symName: __ZN4core3fmt5Write9write_fmt17h2bea56f24fec7a4bE, symObjAddr: 0x1450, symBinAddr: 0x100053450, symSize: 0x20 }
  - { offsetInCU: 0x26758, offset: 0xAE294, size: 0x8, addend: 0x0, symName: __ZN4core3fmt5Write9write_fmt17h2f893eeae09b9852E, symObjAddr: 0x1470, symBinAddr: 0x100053470, symSize: 0x20 }
  - { offsetInCU: 0x26786, offset: 0xAE2C2, size: 0x8, addend: 0x0, symName: __ZN4core3fmt5Write9write_fmt17h9365712ad13af8e8E, symObjAddr: 0x1490, symBinAddr: 0x100053490, symSize: 0x20 }
  - { offsetInCU: 0x267B4, offset: 0xAE2F0, size: 0x8, addend: 0x0, symName: __ZN4core3fmt5Write9write_fmt17h943e432088f4fc09E, symObjAddr: 0x14B0, symBinAddr: 0x1000534B0, symSize: 0x20 }
  - { offsetInCU: 0x267E2, offset: 0xAE31E, size: 0x8, addend: 0x0, symName: __ZN4core3fmt5Write9write_fmt17hc3897efe53883b4fE, symObjAddr: 0x14F0, symBinAddr: 0x1000534D0, symSize: 0x20 }
  - { offsetInCU: 0x26B5B, offset: 0xAE697, size: 0x8, addend: 0x0, symName: '__ZN50_$LT$$BP$mut$u20$T$u20$as$u20$core..fmt..Debug$GT$3fmt17h5e955294fdbade78E', symObjAddr: 0xED00, symBinAddr: 0x100060060, symSize: 0x10 }
  - { offsetInCU: 0x26BA7, offset: 0xAE6E3, size: 0x8, addend: 0x0, symName: '__ZN52_$LT$$RF$mut$u20$T$u20$as$u20$core..fmt..Display$GT$3fmt17h247ac5682e66b671E', symObjAddr: 0xED80, symBinAddr: 0x100060070, symSize: 0x20 }
  - { offsetInCU: 0x26C1B, offset: 0xAE757, size: 0x8, addend: 0x0, symName: '__ZN4core3str7pattern13simd_contains28_$u7b$$u7b$closure$u7d$$u7d$17h8c02b44b24d93ed4E', symObjAddr: 0x4460, symBinAddr: 0x1000A34E0, symSize: 0x100 }
  - { offsetInCU: 0x26D8F, offset: 0xAE8CB, size: 0x8, addend: 0x0, symName: '__ZN55_$LT$$RF$str$u20$as$u20$core..str..pattern..Pattern$GT$15is_contained_in17h3b44ad7441fe57baE', symObjAddr: 0xEDA0, symBinAddr: 0x100060090, symSize: 0x8D0 }
  - { offsetInCU: 0x27627, offset: 0xAF163, size: 0x8, addend: 0x0, symName: '__ZN4core5array69_$LT$impl$u20$core..fmt..Debug$u20$for$u20$$u5b$T$u3b$$u20$N$u5d$$GT$3fmt17h3f2c0345ca57a36bE', symObjAddr: 0x4720, symBinAddr: 0x100055BC0, symSize: 0xF0 }
  - { offsetInCU: 0x2832E, offset: 0xAFE6A, size: 0x8, addend: 0x0, symName: '__ZN70_$LT$core..num..error..TryFromIntError$u20$as$u20$core..fmt..Debug$GT$3fmt17h1128a7e265c9ce9aE', symObjAddr: 0x1F5E0, symBinAddr: 0x10006F700, symSize: 0x40 }
  - { offsetInCU: 0x29933, offset: 0xB146F, size: 0x8, addend: 0x0, symName: __ZN4core3ops8function2Fn4call17ha7546dd805773db2E, symObjAddr: 0x1510, symBinAddr: 0x1000534F0, symSize: 0x10 }
  - { offsetInCU: 0x29952, offset: 0xB148E, size: 0x8, addend: 0x0, symName: __ZN4core3ops8function5FnMut8call_mut17h0a198414f2ff5eaeE, symObjAddr: 0x1520, symBinAddr: 0x100053500, symSize: 0x10 }
  - { offsetInCU: 0x29995, offset: 0xB14D1, size: 0x8, addend: 0x0, symName: '__ZN4core3ops8function6FnOnce40call_once$u7b$$u7b$vtable.shim$u7d$$u7d$17h0992b814c9d54e1bE', symObjAddr: 0x1530, symBinAddr: 0x100053510, symSize: 0x90 }
  - { offsetInCU: 0x29AA1, offset: 0xB15DD, size: 0x8, addend: 0x0, symName: '__ZN4core3ops8function6FnOnce40call_once$u7b$$u7b$vtable.shim$u7d$$u7d$17h15b016765ff1cfc5E', symObjAddr: 0x1660, symBinAddr: 0x1000535A0, symSize: 0x90 }
  - { offsetInCU: 0x29BCE, offset: 0xB170A, size: 0x8, addend: 0x0, symName: '__ZN4core3ops8function6FnOnce40call_once$u7b$$u7b$vtable.shim$u7d$$u7d$17h39fb7097ae91d54bE', symObjAddr: 0x16F0, symBinAddr: 0x100053630, symSize: 0x10 }
  - { offsetInCU: 0x29C08, offset: 0xB1744, size: 0x8, addend: 0x0, symName: '__ZN4core3ops8function6FnOnce40call_once$u7b$$u7b$vtable.shim$u7d$$u7d$17h447d49c1da186faeE', symObjAddr: 0x1700, symBinAddr: 0x100053640, symSize: 0x10 }
  - { offsetInCU: 0x29C42, offset: 0xB177E, size: 0x8, addend: 0x0, symName: '__ZN4core3ops8function6FnOnce40call_once$u7b$$u7b$vtable.shim$u7d$$u7d$17h4ac0425e41115653E', symObjAddr: 0x1710, symBinAddr: 0x100053650, symSize: 0x10 }
  - { offsetInCU: 0x29C91, offset: 0xB17CD, size: 0x8, addend: 0x0, symName: '__ZN4core3ops8function6FnOnce40call_once$u7b$$u7b$vtable.shim$u7d$$u7d$17h4ae3820b72915fbeE', symObjAddr: 0x1720, symBinAddr: 0x100053660, symSize: 0x10 }
  - { offsetInCU: 0x29CE0, offset: 0xB181C, size: 0x8, addend: 0x0, symName: '__ZN4core3ops8function6FnOnce40call_once$u7b$$u7b$vtable.shim$u7d$$u7d$17h99aa774ca126b930E', symObjAddr: 0x17F0, symBinAddr: 0x100053670, symSize: 0x20 }
  - { offsetInCU: 0x29D1A, offset: 0xB1856, size: 0x8, addend: 0x0, symName: '__ZN4core3ops8function6FnOnce40call_once$u7b$$u7b$vtable.shim$u7d$$u7d$17hbe02a881ca7e7e6fE', symObjAddr: 0x1810, symBinAddr: 0x100053690, symSize: 0x90 }
  - { offsetInCU: 0x29EB2, offset: 0xB19EE, size: 0x8, addend: 0x0, symName: '__ZN4core3ops8function6FnOnce40call_once$u7b$$u7b$vtable.shim$u7d$$u7d$17hec53fca43a280050E', symObjAddr: 0x18C0, symBinAddr: 0x100053720, symSize: 0x10 }
  - { offsetInCU: 0x29EE0, offset: 0xB1A1C, size: 0x8, addend: 0x0, symName: __ZN4core3ops8function6FnOnce9call_once17h677fa02123b9a929E, symObjAddr: 0x18D0, symBinAddr: 0x100053730, symSize: 0x10 }
  - { offsetInCU: 0x2C8E8, offset: 0xB4424, size: 0x8, addend: 0x0, symName: '__ZN4core4cell4once17OnceCell$LT$T$GT$8try_init17h536a8ddd55b2cae3E', symObjAddr: 0x4560, symBinAddr: 0x1000A35E0, symSize: 0xB0 }
  - { offsetInCU: 0x2CB34, offset: 0xB4670, size: 0x8, addend: 0x0, symName: '__ZN4core4cell4once17OnceCell$LT$T$GT$8try_init17hb10021f4e62dce0fE', symObjAddr: 0x4610, symBinAddr: 0x1000A3690, symSize: 0x110 }
  - { offsetInCU: 0x2D231, offset: 0xB4D6D, size: 0x8, addend: 0x0, symName: __ZN4core5panic12PanicPayload6as_str17hbfaccbb001700041E, symObjAddr: 0x4890, symBinAddr: 0x100055CB0, symSize: 0x10 }
  - { offsetInCU: 0x2D2B1, offset: 0xB4DED, size: 0x8, addend: 0x0, symName: __ZN4core9panicking13assert_failed17h7dbd494cd6164ed1E, symObjAddr: 0xEC40, symBinAddr: 0x1000A37A0, symSize: 0x30 }
  - { offsetInCU: 0x2D2CB, offset: 0xB4E07, size: 0x8, addend: 0x0, symName: __ZN4core9panicking13assert_failed17h9a214487d1bb4058E, symObjAddr: 0xEC70, symBinAddr: 0x1000A37D0, symSize: 0x50 }
  - { offsetInCU: 0x2D2E6, offset: 0xB4E22, size: 0x8, addend: 0x0, symName: __ZN4core9panicking13assert_failed17hdcf7e423a44907d6E, symObjAddr: 0xECC0, symBinAddr: 0x1000A3820, symSize: 0x40 }
  - { offsetInCU: 0x2D883, offset: 0xB53BF, size: 0x8, addend: 0x0, symName: __ZN3std3sys6os_str5bytes5Slice8to_owned17h31d89e871fc4b57eE, symObjAddr: 0x4E210, symBinAddr: 0x1000855B0, symSize: 0x90 }
  - { offsetInCU: 0x2D993, offset: 0xB54CF, size: 0x8, addend: 0x0, symName: '__ZN69_$LT$std..sys..os_str..bytes..Slice$u20$as$u20$core..fmt..Display$GT$3fmt17h93400a492944888cE', symObjAddr: 0x4DEB0, symBinAddr: 0x1000854F0, symSize: 0xC0 }
  - { offsetInCU: 0x2D9FD, offset: 0xB5539, size: 0x8, addend: 0x0, symName: __ZN3std3sys3pal4unix7process14process_common7Command3new17hafe51dbbe121cc24E, symObjAddr: 0x49160, symBinAddr: 0x100081AF0, symSize: 0x290 }
  - { offsetInCU: 0x2DDCE, offset: 0xB590A, size: 0x8, addend: 0x0, symName: __ZN3std3sys3pal4unix7process14process_common7Command6stdout17h7f5d4e498516cfcaE, symObjAddr: 0x496B0, symBinAddr: 0x100081D80, symSize: 0x40 }
  - { offsetInCU: 0x2DE56, offset: 0xB5992, size: 0x8, addend: 0x0, symName: __ZN3std3sys3pal4unix7process14process_common7Command6stderr17h884a71c75b2844b3E, symObjAddr: 0x496F0, symBinAddr: 0x100081DC0, symSize: 0x40 }
  - { offsetInCU: 0x2DEDE, offset: 0xB5A1A, size: 0x8, addend: 0x0, symName: __ZN3std3sys3pal4unix7process14process_common7Command11capture_env17h5ecc4926b0510b4cE, symObjAddr: 0x49730, symBinAddr: 0x100081E00, symSize: 0xFD0 }
  - { offsetInCU: 0x2F8A2, offset: 0xB73DE, size: 0x8, addend: 0x0, symName: __ZN3std3sys3pal4unix7process14process_common7Command8setup_io17h46082d8c863d7f66E, symObjAddr: 0x4A700, symBinAddr: 0x100082DD0, symSize: 0x2C0 }
  - { offsetInCU: 0x2FD1F, offset: 0xB785B, size: 0x8, addend: 0x0, symName: '__ZN3std3sys3pal4unix7process13process_inner71_$LT$impl$u20$std..sys..pal..unix..process..process_common..Command$GT$5spawn17h3ab74ef46d73eef8E', symObjAddr: 0x4C4D0, symBinAddr: 0x100083E60, symSize: 0xB70 }
  - { offsetInCU: 0x30F87, offset: 0xB8AC3, size: 0x8, addend: 0x0, symName: '__ZN3std3sys3pal4unix7process13process_inner71_$LT$impl$u20$std..sys..pal..unix..process..process_common..Command$GT$7do_exec17hbe5657fb1b8f18f4E', symObjAddr: 0x4D040, symBinAddr: 0x1000849D0, symSize: 0x360 }
  - { offsetInCU: 0x3194B, offset: 0xB9487, size: 0x8, addend: 0x0, symName: __ZN3std3sys3pal4unix7process14process_common4os2c17hfa6225a2c7c10c16E, symObjAddr: 0x4A9C0, symBinAddr: 0x100083090, symSize: 0x120 }
  - { offsetInCU: 0x31B74, offset: 0xB96B0, size: 0x8, addend: 0x0, symName: __ZN3std3sys3pal4unix7process14process_common5Stdio14to_child_stdio17h24134a6a804af4d7E, symObjAddr: 0x4AAE0, symBinAddr: 0x1000831B0, symSize: 0x150 }
  - { offsetInCU: 0x31D04, offset: 0xB9840, size: 0x8, addend: 0x0, symName: __ZN3std3sys3pal4unix7process13process_inner7Process4wait17h8e91288f36c7c4bbE, symObjAddr: 0x4D3E0, symBinAddr: 0x100084D30, symSize: 0x90 }
  - { offsetInCU: 0x31F01, offset: 0xB9A3D, size: 0x8, addend: 0x0, symName: __ZN3std3sys3pal4unix2fd8FileDesc11read_to_end17h86e52ced6e1d320dE, symObjAddr: 0x44800, symBinAddr: 0x100080940, symSize: 0x270 }
  - { offsetInCU: 0x323CF, offset: 0xB9F0B, size: 0x8, addend: 0x0, symName: __ZN3std3sys3pal4unix2fs4File6open_c17h680a1c4b6c97ec3aE, symObjAddr: 0x45470, symBinAddr: 0x100080DE0, symSize: 0x140 }
  - { offsetInCU: 0x32565, offset: 0xBA0A1, size: 0x8, addend: 0x0, symName: '__ZN3std3sys3pal4unix2fs4stat28_$u7b$$u7b$closure$u7d$$u7d$17h2be2f738b03deb4cE', symObjAddr: 0x46B20, symBinAddr: 0x100081230, symSize: 0xA0 }
  - { offsetInCU: 0x32677, offset: 0xBA1B3, size: 0x8, addend: 0x0, symName: '__ZN91_$LT$std..sys..pal..unix..fs..ReadDir$u20$as$u20$core..iter..traits..iterator..Iterator$GT$4next17h7ffa4b4a612b0f58E', symObjAddr: 0x44F60, symBinAddr: 0x100080BB0, symSize: 0x160 }
  - { offsetInCU: 0x328A1, offset: 0xBA3DD, size: 0x8, addend: 0x0, symName: '__ZN70_$LT$std..sys..pal..unix..fs..Dir$u20$as$u20$core..ops..drop..Drop$GT$4drop17h3aeec0393da0e077E', symObjAddr: 0x450C0, symBinAddr: 0x100080D10, symSize: 0xD0 }
  - { offsetInCU: 0x329BB, offset: 0xBA4F7, size: 0x8, addend: 0x0, symName: __ZN3std3sys3pal4unix2fs7readdir17h779363e783ca7cbfE, symObjAddr: 0x45CA0, symBinAddr: 0x100080F20, symSize: 0x210 }
  - { offsetInCU: 0x32C4D, offset: 0xBA789, size: 0x8, addend: 0x0, symName: __ZN3std3sys3pal4unix2fs4stat17h6d97597a0421c831E, symObjAddr: 0x46A20, symBinAddr: 0x100081130, symSize: 0x100 }
  - { offsetInCU: 0x32E85, offset: 0xBA9C1, size: 0x8, addend: 0x0, symName: __ZN3std3sys3pal4unix2os13env_read_lock17h21742e63e7e1308cE, symObjAddr: 0x484B0, symBinAddr: 0x1000812D0, symSize: 0x300 }
  - { offsetInCU: 0x3355E, offset: 0xBB09A, size: 0x8, addend: 0x0, symName: '__ZN3std3sys3pal4unix2os6getenv28_$u7b$$u7b$closure$u7d$$u7d$17hb68080675aebde0eE', symObjAddr: 0x487B0, symBinAddr: 0x1000815D0, symSize: 0x120 }
  - { offsetInCU: 0x3374A, offset: 0xBB286, size: 0x8, addend: 0x0, symName: __ZN3std3sys3pal4unix2os4exit17h0c78215ece014d50E, symObjAddr: 0x48D60, symBinAddr: 0x1000816F0, symSize: 0x10 }
  - { offsetInCU: 0x337A6, offset: 0xBB2E2, size: 0x8, addend: 0x0, symName: '__ZN69_$LT$std..sys..pal..unix..stdio..Stderr$u20$as$u20$std..io..Write$GT$5write17hd79d0a718695b2fcE', symObjAddr: 0x4BC30, symBinAddr: 0x100083700, symSize: 0x50 }
  - { offsetInCU: 0x33881, offset: 0xBB3BD, size: 0x8, addend: 0x0, symName: '__ZN69_$LT$std..sys..pal..unix..stdio..Stderr$u20$as$u20$std..io..Write$GT$14write_vectored17h0e573d7857415587E', symObjAddr: 0x4BC80, symBinAddr: 0x100083750, symSize: 0x50 }
  - { offsetInCU: 0x3395C, offset: 0xBB498, size: 0x8, addend: 0x0, symName: '__ZN69_$LT$std..sys..pal..unix..stdio..Stderr$u20$as$u20$std..io..Write$GT$17is_write_vectored17h7ade31aa359392fdE', symObjAddr: 0x4BCD0, symBinAddr: 0x1000837A0, symSize: 0x10 }
  - { offsetInCU: 0x33975, offset: 0xBB4B1, size: 0x8, addend: 0x0, symName: '__ZN69_$LT$std..sys..pal..unix..stdio..Stderr$u20$as$u20$std..io..Write$GT$5flush17h4944c9debd66ac59E', symObjAddr: 0x4BCE0, symBinAddr: 0x1000837B0, symSize: 0x10 }
  - { offsetInCU: 0x33A2F, offset: 0xBB56B, size: 0x8, addend: 0x0, symName: __ZN3std3sys3pal4unix14stack_overflow3imp14signal_handler17h63a20838b43a8d18E, symObjAddr: 0x4B730, symBinAddr: 0x1000833B0, symSize: 0x160 }
  - { offsetInCU: 0x33CB5, offset: 0xBB7F1, size: 0x8, addend: 0x0, symName: __ZN3std3sys3pal4unix14stack_overflow3imp12make_handler17h23443197290aea5aE, symObjAddr: 0x4B890, symBinAddr: 0x100083510, symSize: 0x1F0 }
  - { offsetInCU: 0x34018, offset: 0xBBB54, size: 0x8, addend: 0x0, symName: __ZN3std3sys3pal4unix6thread6Thread3new17h91101cd154fe0aa3E, symObjAddr: 0x4BCF0, symBinAddr: 0x1000837C0, symSize: 0x270 }
  - { offsetInCU: 0x34332, offset: 0xBBE6E, size: 0x8, addend: 0x0, symName: __ZN3std3sys3pal4unix6thread6Thread8set_name17h4cf6be027ef426d4E, symObjAddr: 0x4C040, symBinAddr: 0x100083B10, symSize: 0x80 }
  - { offsetInCU: 0x34437, offset: 0xBBF73, size: 0x8, addend: 0x0, symName: __ZN3std3sys3pal4unix6thread6Thread4join17h4fc6ffe1a14789f3E, symObjAddr: 0x4C0C0, symBinAddr: 0x100083B90, symSize: 0x90 }
  - { offsetInCU: 0x344A9, offset: 0xBBFE5, size: 0x8, addend: 0x0, symName: __ZN3std3sys3pal4unix6thread6Thread3new12thread_start17hcea1d4245650f9aaE, symObjAddr: 0x4BF60, symBinAddr: 0x100083A30, symSize: 0xE0 }
  - { offsetInCU: 0x346E2, offset: 0xBC21E, size: 0x8, addend: 0x0, symName: '__ZN77_$LT$std..sys..pal..unix..thread..Thread$u20$as$u20$core..ops..drop..Drop$GT$4drop17h3da402e08b65a3a3E', symObjAddr: 0x4C150, symBinAddr: 0x100083C20, symSize: 0x10 }
  - { offsetInCU: 0x3474D, offset: 0xBC289, size: 0x8, addend: 0x0, symName: __ZN3std3sys3pal4unix4time8Timespec3now17h9f45a544838c5dd0E, symObjAddr: 0x4C1E0, symBinAddr: 0x100083C30, symSize: 0x100 }
  - { offsetInCU: 0x34803, offset: 0xBC33F, size: 0x8, addend: 0x0, symName: __ZN3std3sys3pal4unix4time8Timespec12sub_timespec17h3f44d844faeb23e8E, symObjAddr: 0x4C2E0, symBinAddr: 0x100083D30, symSize: 0x100 }
  - { offsetInCU: 0x34A08, offset: 0xBC544, size: 0x8, addend: 0x0, symName: '__ZN3std3sys3pal4unix4weak18DlsymWeak$LT$F$GT$10initialize17h6cb3b6b89cd14614E', symObjAddr: 0x44570, symBinAddr: 0x1000A4380, symSize: 0x50 }
  - { offsetInCU: 0x34A84, offset: 0xBC5C0, size: 0x8, addend: 0x0, symName: __ZN3std3sys3pal4unix4pipe8AnonPipe5write17h3271846cab2ce8dbE, symObjAddr: 0x48EB0, symBinAddr: 0x100081840, symSize: 0x40 }
  - { offsetInCU: 0x34B66, offset: 0xBC6A2, size: 0x8, addend: 0x0, symName: __ZN3std3sys3pal4unix4pipe9anon_pipe17head02bf6701a0417E, symObjAddr: 0x48D70, symBinAddr: 0x100081700, symSize: 0x140 }
  - { offsetInCU: 0x34E43, offset: 0xBC97F, size: 0x8, addend: 0x0, symName: __ZN3std3sys3pal4unix4pipe5read217h82a0f751865b9855E, symObjAddr: 0x48EF0, symBinAddr: 0x100081880, symSize: 0x270 }
  - { offsetInCU: 0x35530, offset: 0xBD06C, size: 0x8, addend: 0x0, symName: __ZN3std3sys3pal4unix4rand19hashmap_random_keys17h3c5998314b441896E, symObjAddr: 0x4B620, symBinAddr: 0x100083300, symSize: 0xB0 }
  - { offsetInCU: 0x356B9, offset: 0xBD1F5, size: 0x8, addend: 0x0, symName: __ZN3std3sys3pal4unix17decode_error_kind17hca6dfe301ffbd472E, symObjAddr: 0x4C460, symBinAddr: 0x100083E30, symSize: 0x20 }
  - { offsetInCU: 0x356D2, offset: 0xBD20E, size: 0x8, addend: 0x0, symName: __ZN3std3sys3pal4unix14abort_internal17h9ba9b9d4ccbedc59E, symObjAddr: 0x4C480, symBinAddr: 0x100083E50, symSize: 0x10 }
  - { offsetInCU: 0x357BB, offset: 0xBD2F7, size: 0x8, addend: 0x0, symName: __ZN3std3sys3pal6common14small_c_string24run_with_cstr_allocating17ha6a88a73d3a351a6E, symObjAddr: 0x3F360, symBinAddr: 0x1000A4030, symSize: 0x90 }
  - { offsetInCU: 0x35919, offset: 0xBD455, size: 0x8, addend: 0x0, symName: __ZN3std3sys3pal6common14small_c_string24run_with_cstr_allocating17hb54c3f813841d045E, symObjAddr: 0x3F4B0, symBinAddr: 0x1000A40C0, symSize: 0xC0 }
  - { offsetInCU: 0x35AE3, offset: 0xBD61F, size: 0x8, addend: 0x0, symName: __ZN3std3sys3pal6common14small_c_string24run_with_cstr_allocating17hd9c6d897b7a36494E, symObjAddr: 0x3F6C0, symBinAddr: 0x1000A4180, symSize: 0xC0 }
  - { offsetInCU: 0x35CAD, offset: 0xBD7E9, size: 0x8, addend: 0x0, symName: __ZN3std3sys3pal6common14small_c_string24run_with_cstr_allocating17hfa63a9da6940b7b3E, symObjAddr: 0x3F780, symBinAddr: 0x1000A4240, symSize: 0x90 }
  - { offsetInCU: 0x35E5A, offset: 0xBD996, size: 0x8, addend: 0x0, symName: '__ZN3std3sys9backtrace10_print_fmt28_$u7b$$u7b$closure$u7d$$u7d$17h5af150375511fa5eE', symObjAddr: 0x3FB20, symBinAddr: 0x10007D950, symSize: 0x20 }
  - { offsetInCU: 0x35E82, offset: 0xBD9BE, size: 0x8, addend: 0x0, symName: '__ZN3std3sys9backtrace10_print_fmt28_$u7b$$u7b$closure$u7d$$u7d$17h7848036c8a3af0afE', symObjAddr: 0x3FB40, symBinAddr: 0x10007D970, symSize: 0x140 }
  - { offsetInCU: 0x35F80, offset: 0xBDABC, size: 0x8, addend: 0x0, symName: '__ZN3std3sys9backtrace10_print_fmt28_$u7b$$u7b$closure$u7d$$u7d$28_$u7b$$u7b$closure$u7d$$u7d$17h36c78f4df4cd5998E', symObjAddr: 0x3FC80, symBinAddr: 0x10007DAB0, symSize: 0x2A0 }
  - { offsetInCU: 0x3619A, offset: 0xBDCD6, size: 0x8, addend: 0x0, symName: '__ZN98_$LT$std..sys..backtrace..BacktraceLock..print..DisplayBacktrace$u20$as$u20$core..fmt..Display$GT$3fmt17hc3f376aae1e435b9E', symObjAddr: 0x3F890, symBinAddr: 0x10007D6C0, symSize: 0x290 }
  - { offsetInCU: 0x36718, offset: 0xBE254, size: 0x8, addend: 0x0, symName: __ZN3std3sys9backtrace26__rust_end_short_backtrace17hc94f023d9f9c8404E, symObjAddr: 0x3FF20, symBinAddr: 0x10007DD50, symSize: 0x10 }
  - { offsetInCU: 0x36731, offset: 0xBE26D, size: 0x8, addend: 0x0, symName: __ZN3std3sys9backtrace15output_filename17hba316d0cc1ea74d3E, symObjAddr: 0x3FF30, symBinAddr: 0x10007DD60, symSize: 0x110 }
  - { offsetInCU: 0x368C2, offset: 0xBE3FE, size: 0x8, addend: 0x0, symName: '__ZN3std3sys11personality3gcc14find_eh_action28_$u7b$$u7b$closure$u7d$$u7d$17hf8fd2767c69281caE', symObjAddr: 0x4D710, symBinAddr: 0x100084DC0, symSize: 0x10 }
  - { offsetInCU: 0x368D5, offset: 0xBE411, size: 0x8, addend: 0x0, symName: '__ZN3std3sys11personality3gcc14find_eh_action28_$u7b$$u7b$closure$u7d$$u7d$17h0744ab787f9436b8E', symObjAddr: 0x4D720, symBinAddr: 0x100084DD0, symSize: 0x10 }
  - { offsetInCU: 0x36902, offset: 0xBE43E, size: 0x8, addend: 0x0, symName: _rust_eh_personality, symObjAddr: 0x4D730, symBinAddr: 0x100084DE0, symSize: 0x710 }
  - { offsetInCU: 0x3754B, offset: 0xBF087, size: 0x8, addend: 0x0, symName: '__ZN102_$LT$std..sys..sync..mutex..pthread..AllocatedMutex$u20$as$u20$std..sys_common..lazy_box..LazyInit$GT$4init17hfba07cb481996d20E', symObjAddr: 0x4E9A0, symBinAddr: 0x100085640, symSize: 0x210 }
  - { offsetInCU: 0x3769B, offset: 0xBF1D7, size: 0x8, addend: 0x0, symName: '__ZN102_$LT$std..sys..sync..mutex..pthread..AllocatedMutex$u20$as$u20$std..sys_common..lazy_box..LazyInit$GT$7destroy17h3a11275a1532e388E', symObjAddr: 0x4EBB0, symBinAddr: 0x100085850, symSize: 0x50 }
  - { offsetInCU: 0x37745, offset: 0xBF281, size: 0x8, addend: 0x0, symName: '__ZN102_$LT$std..sys..sync..mutex..pthread..AllocatedMutex$u20$as$u20$std..sys_common..lazy_box..LazyInit$GT$11cancel_init17hca3c91e782148221E', symObjAddr: 0x4EC00, symBinAddr: 0x1000858A0, symSize: 0x30 }
  - { offsetInCU: 0x377F6, offset: 0xBF332, size: 0x8, addend: 0x0, symName: __ZN3std3sys4sync5mutex7pthread5Mutex4lock4fail17h7ac4622fd4e8cb04E, symObjAddr: 0x4EC30, symBinAddr: 0x1000A43D0, symSize: 0x100 }
  - { offsetInCU: 0x37B34, offset: 0xBF670, size: 0x8, addend: 0x0, symName: __ZN3std3sys4sync6rwlock5queue6RwLock21read_unlock_contended17h59e53ad66695c6b5E, symObjAddr: 0x4F900, symBinAddr: 0x1000A4640, symSize: 0x70 }
  - { offsetInCU: 0x37D37, offset: 0xBF873, size: 0x8, addend: 0x0, symName: __ZN3std3sys4sync6rwlock5queue6RwLock12unlock_queue17hedf3d29f10cd8d44E, symObjAddr: 0x4F9B0, symBinAddr: 0x100085AF0, symSize: 0x160 }
  - { offsetInCU: 0x38494, offset: 0xBFFD0, size: 0x8, addend: 0x0, symName: '__ZN88_$LT$std..sys..sync..thread_parking..darwin..Parker$u20$as$u20$core..ops..drop..Drop$GT$4drop17h0df355d67529f928E', symObjAddr: 0x4FB30, symBinAddr: 0x100085C70, symSize: 0x10 }
  - { offsetInCU: 0x384DD, offset: 0xC0019, size: 0x8, addend: 0x0, symName: __ZN3std3sys4sync14thread_parking6darwin6Parker6unpark17hf696b9ee054134c3E, symObjAddr: 0x4FB10, symBinAddr: 0x100085C50, symSize: 0x20 }
  - { offsetInCU: 0x3855D, offset: 0xC0099, size: 0x8, addend: 0x0, symName: __ZN3std3sys4sync4once5queue4Once4call17he538198c92e6ccb1E, symObjAddr: 0x4F280, symBinAddr: 0x1000A44D0, symSize: 0x170 }
  - { offsetInCU: 0x3867C, offset: 0xC01B8, size: 0x8, addend: 0x0, symName: __ZN3std3sys4sync4once5queue4wait17hbd39365221adcd4dE, symObjAddr: 0x4F3F0, symBinAddr: 0x1000858D0, symSize: 0x160 }
  - { offsetInCU: 0x38B72, offset: 0xC06AE, size: 0x8, addend: 0x0, symName: '__ZN82_$LT$std..sys..sync..once..queue..WaiterQueue$u20$as$u20$core..ops..drop..Drop$GT$4drop17h478a37d085131f6bE', symObjAddr: 0x4F550, symBinAddr: 0x100085A30, symSize: 0xC0 }
  - { offsetInCU: 0x38D68, offset: 0xC08A4, size: 0x8, addend: 0x0, symName: __ZN3std3sys12thread_local6native5eager7destroy17h485d936b499b4e17E, symObjAddr: 0x4FB40, symBinAddr: 0x100085C80, symSize: 0x20 }
  - { offsetInCU: 0x38EF6, offset: 0xC0A32, size: 0x8, addend: 0x0, symName: '__ZN3std3sys12thread_local6native4lazy20Storage$LT$T$C$D$GT$10initialize17h14698013dabe1c01E', symObjAddr: 0x4FB60, symBinAddr: 0x1000A46B0, symSize: 0xB0 }
  - { offsetInCU: 0x390D5, offset: 0xC0C11, size: 0x8, addend: 0x0, symName: __ZN3std3sys12thread_local6native4lazy7destroy17h6190230ba13c2901E, symObjAddr: 0x4FC10, symBinAddr: 0x100085CA0, symSize: 0x50 }
  - { offsetInCU: 0x3922A, offset: 0xC0D66, size: 0x8, addend: 0x0, symName: __ZN3std3sys12thread_local11destructors4list8register17h63ec4e86be6715bfE, symObjAddr: 0x4FC60, symBinAddr: 0x100085CF0, symSize: 0x110 }
  - { offsetInCU: 0x39523, offset: 0xC105F, size: 0x8, addend: 0x0, symName: __ZN3std3sys12thread_local5guard5apple6enable9run_dtors17hd397a92a14fe0143E, symObjAddr: 0x4FD70, symBinAddr: 0x100085E00, symSize: 0xF0 }
  - { offsetInCU: 0x39A02, offset: 0xC153E, size: 0x8, addend: 0x0, symName: '__ZN3std3ffi6os_str95_$LT$impl$u20$core..convert..TryFrom$LT$$RF$std..ffi..os_str..OsStr$GT$$u20$for$u20$$RF$str$GT$8try_from17h6591310f80a69c39E', symObjAddr: 0x2AB90, symBinAddr: 0x100078390, symSize: 0x0 }
  - { offsetInCU: 0x39B91, offset: 0xC16CD, size: 0x8, addend: 0x0, symName: __ZN3std7process7Command6output17h58fa7d0108e36fa1E, symObjAddr: 0x3C970, symBinAddr: 0x10007CAE0, symSize: 0x360 }
  - { offsetInCU: 0x3A165, offset: 0xC1CA1, size: 0x8, addend: 0x0, symName: __ZN3std7process4exit17h6adf8d78240aff9cE, symObjAddr: 0x3D620, symBinAddr: 0x10007CE40, symSize: 0x20 }
  - { offsetInCU: 0x3A17F, offset: 0xC1CBB, size: 0x8, addend: 0x0, symName: __ZN3std7process5abort17hc2693c6b767a9c9dE, symObjAddr: 0x3D640, symBinAddr: 0x1000A3DE0, symSize: 0x10 }
  - { offsetInCU: 0x3A21F, offset: 0xC1D5B, size: 0x8, addend: 0x0, symName: __ZN3std4path4Path13_strip_prefix17h2cdcd3c56da06425E, symObjAddr: 0x3ADA0, symBinAddr: 0x10007C580, symSize: 0x3A0 }
  - { offsetInCU: 0x3A35D, offset: 0xC1E99, size: 0x8, addend: 0x0, symName: __ZN3std4path4Path5_join17h637193701031f95bE, symObjAddr: 0x3B8C0, symBinAddr: 0x10007C920, symSize: 0x190 }
  - { offsetInCU: 0x3A91D, offset: 0xC2459, size: 0x8, addend: 0x0, symName: __ZN3std4path10Components15len_before_body17h7a6b4ae86b058316E, symObjAddr: 0x38F30, symBinAddr: 0x10007B410, symSize: 0x170 }
  - { offsetInCU: 0x3AB56, offset: 0xC2692, size: 0x8, addend: 0x0, symName: __ZN3std4path10Components7as_path17h9e4b2fea02661f8aE, symObjAddr: 0x390A0, symBinAddr: 0x10007B580, symSize: 0x5C0 }
  - { offsetInCU: 0x3B0E0, offset: 0xC2C1C, size: 0x8, addend: 0x0, symName: __ZN3std4path10Components25parse_next_component_back17h34a9ec6b1e426824E, symObjAddr: 0x39660, symBinAddr: 0x10007BB40, symSize: 0xE0 }
  - { offsetInCU: 0x3B308, offset: 0xC2E44, size: 0x8, addend: 0x0, symName: '__ZN80_$LT$std..path..Components$u20$as$u20$core..iter..traits..iterator..Iterator$GT$4next17h1a34bd8be3084bcbE', symObjAddr: 0x398F0, symBinAddr: 0x10007BC20, symSize: 0x3D0 }
  - { offsetInCU: 0x3B719, offset: 0xC3255, size: 0x8, addend: 0x0, symName: '__ZN95_$LT$std..path..Components$u20$as$u20$core..iter..traits..double_ended..DoubleEndedIterator$GT$9next_back17hd191a237154dece0E', symObjAddr: 0x39CC0, symBinAddr: 0x10007BFF0, symSize: 0x400 }
  - { offsetInCU: 0x3B8D3, offset: 0xC340F, size: 0x8, addend: 0x0, symName: __ZN3std4path7PathBuf5_push17hc13d7e70ead80d37E, symObjAddr: 0x3A490, symBinAddr: 0x10007C3F0, symSize: 0xC0 }
  - { offsetInCU: 0x3BBAE, offset: 0xC36EA, size: 0x8, addend: 0x0, symName: __ZN3std4path7PathBuf3pop17hfac3ab31c7b3fd76E, symObjAddr: 0x3A550, symBinAddr: 0x10007C4B0, symSize: 0xA0 }
  - { offsetInCU: 0x3BD97, offset: 0xC38D3, size: 0x8, addend: 0x0, symName: '__ZN52_$LT$std..path..Path$u20$as$u20$core..fmt..Debug$GT$3fmt17hb0c97be6fa8c37b0E', symObjAddr: 0x3C300, symBinAddr: 0x10007CAB0, symSize: 0x0 }
  - { offsetInCU: 0x3BDF1, offset: 0xC392D, size: 0x8, addend: 0x0, symName: '__ZN55_$LT$std..path..PathBuf$u20$as$u20$core..fmt..Debug$GT$3fmt17h359d8330daf61ccbE', symObjAddr: 0x3AC70, symBinAddr: 0x10007C550, symSize: 0x0 }
  - { offsetInCU: 0x3BF71, offset: 0xC3AAD, size: 0x8, addend: 0x0, symName: '__ZN61_$LT$std..path..Component$u20$as$u20$core..cmp..PartialEq$GT$2eq17h27e8d4086dd3d1bcE', symObjAddr: 0x44380, symBinAddr: 0x100080860, symSize: 0xE0 }
  - { offsetInCU: 0x3C06B, offset: 0xC3BA7, size: 0x8, addend: 0x0, symName: '__ZN80_$LT$std..io..Write..write_fmt..Adapter$LT$T$GT$$u20$as$u20$core..fmt..Write$GT$9write_str17h2edc6ecfbde6812eE', symObjAddr: 0x344C0, symBinAddr: 0x10007B150, symSize: 0xD0 }
  - { offsetInCU: 0x3C1A0, offset: 0xC3CDC, size: 0x8, addend: 0x0, symName: '__ZN80_$LT$std..io..Write..write_fmt..Adapter$LT$T$GT$$u20$as$u20$core..fmt..Write$GT$9write_str17h32443bac29e76a69E', symObjAddr: 0x34590, symBinAddr: 0x10007B220, symSize: 0x50 }
  - { offsetInCU: 0x3C1C9, offset: 0xC3D05, size: 0x8, addend: 0x0, symName: '__ZN80_$LT$std..io..Write..write_fmt..Adapter$LT$T$GT$$u20$as$u20$core..fmt..Write$GT$9write_str17h58072d2916356e77E', symObjAddr: 0x345E0, symBinAddr: 0x10007B270, symSize: 0x60 }
  - { offsetInCU: 0x3C2A7, offset: 0xC3DE3, size: 0x8, addend: 0x0, symName: '__ZN80_$LT$std..io..Write..write_fmt..Adapter$LT$T$GT$$u20$as$u20$core..fmt..Write$GT$9write_str17h9e24940c188270c0E', symObjAddr: 0x34710, symBinAddr: 0x10007B2D0, symSize: 0x50 }
  - { offsetInCU: 0x3C306, offset: 0xC3E42, size: 0x8, addend: 0x0, symName: __ZN3std2io5Write9write_all17h99e16d9455f1e85aE, symObjAddr: 0x33CD0, symBinAddr: 0x10007A960, symSize: 0xA0 }
  - { offsetInCU: 0x3C420, offset: 0xC3F5C, size: 0x8, addend: 0x0, symName: __ZN3std2io5Write18write_all_vectored17h2e073031db3e7590E, symObjAddr: 0x33D70, symBinAddr: 0x10007AA00, symSize: 0x2F0 }
  - { offsetInCU: 0x3C83B, offset: 0xC4377, size: 0x8, addend: 0x0, symName: __ZN3std2io5Write18write_all_vectored17h4e8162142fc9794dE, symObjAddr: 0x34060, symBinAddr: 0x10007ACF0, symSize: 0x1E0 }
  - { offsetInCU: 0x3CB04, offset: 0xC4640, size: 0x8, addend: 0x0, symName: __ZN3std2io5Write9write_fmt17h8b96bffba1d3be2fE, symObjAddr: 0x34240, symBinAddr: 0x10007AED0, symSize: 0x140 }
  - { offsetInCU: 0x3CDA2, offset: 0xC48DE, size: 0x8, addend: 0x0, symName: __ZN3std2io5Write9write_fmt17hd7eb5710a004e76bE, symObjAddr: 0x34380, symBinAddr: 0x10007B010, symSize: 0x140 }
  - { offsetInCU: 0x3D0F4, offset: 0xC4C30, size: 0x8, addend: 0x0, symName: __ZN3std2io5error5Error4_new17h823e16b7f5d8ec9eE, symObjAddr: 0x2DE90, symBinAddr: 0x100078B50, symSize: 0x80 }
  - { offsetInCU: 0x3D422, offset: 0xC4F5E, size: 0x8, addend: 0x0, symName: __ZN3std2io5error14repr_bitpacked11decode_repr17had2e5b6e0d8991fcE, symObjAddr: 0x2DC00, symBinAddr: 0x100078AD0, symSize: 0x60 }
  - { offsetInCU: 0x3D48F, offset: 0xC4FCB, size: 0x8, addend: 0x0, symName: '__ZN58_$LT$std..io..error..Error$u20$as$u20$core..fmt..Debug$GT$3fmt17he1d6dfe91335ec19E', symObjAddr: 0x2DC60, symBinAddr: 0x100078B30, symSize: 0x10 }
  - { offsetInCU: 0x3D4AE, offset: 0xC4FEA, size: 0x8, addend: 0x0, symName: '__ZN104_$LT$std..io..error..Error$u20$as$u20$core..convert..From$LT$alloc..collections..TryReserveError$GT$$GT$4from17h9aa7ed62af1a3fb0E', symObjAddr: 0x2DCA0, symBinAddr: 0x100078B40, symSize: 0x10 }
  - { offsetInCU: 0x3D4DF, offset: 0xC501B, size: 0x8, addend: 0x0, symName: '__ZN3std2io5error83_$LT$impl$u20$core..fmt..Debug$u20$for$u20$std..io..error..repr_bitpacked..Repr$GT$3fmt17h4788b333410ed3b2E', symObjAddr: 0x2DF10, symBinAddr: 0x100078BD0, symSize: 0x300 }
  - { offsetInCU: 0x3D70B, offset: 0xC5247, size: 0x8, addend: 0x0, symName: '__ZN60_$LT$std..io..error..Error$u20$as$u20$core..fmt..Display$GT$3fmt17h4ac84df70a7b82f8E', symObjAddr: 0x2E210, symBinAddr: 0x100078ED0, symSize: 0x290 }
  - { offsetInCU: 0x3D949, offset: 0xC5485, size: 0x8, addend: 0x0, symName: '__ZN62_$LT$std..io..error..ErrorKind$u20$as$u20$core..fmt..Debug$GT$3fmt17hc67082adc7abff3dE', symObjAddr: 0x44350, symBinAddr: 0x100080830, symSize: 0x30 }
  - { offsetInCU: 0x3D97B, offset: 0xC54B7, size: 0x8, addend: 0x0, symName: '__ZN3std2io5impls74_$LT$impl$u20$std..io..Write$u20$for$u20$alloc..vec..Vec$LT$u8$C$A$GT$$GT$5write17h94a30090f7919c02E', symObjAddr: 0x2E590, symBinAddr: 0x100079160, symSize: 0x60 }
  - { offsetInCU: 0x3DA52, offset: 0xC558E, size: 0x8, addend: 0x0, symName: '__ZN3std2io5impls74_$LT$impl$u20$std..io..Write$u20$for$u20$alloc..vec..Vec$LT$u8$C$A$GT$$GT$14write_vectored17h38b57fd2e05e304aE', symObjAddr: 0x2E5F0, symBinAddr: 0x1000791C0, symSize: 0x160 }
  - { offsetInCU: 0x3DA9B, offset: 0xC55D7, size: 0x8, addend: 0x0, symName: '__ZN3std2io5impls74_$LT$impl$u20$std..io..Write$u20$for$u20$alloc..vec..Vec$LT$u8$C$A$GT$$GT$14write_vectored17h38b57fd2e05e304aE', symObjAddr: 0x2E5F0, symBinAddr: 0x1000791C0, symSize: 0x160 }
  - { offsetInCU: 0x3DC4E, offset: 0xC578A, size: 0x8, addend: 0x0, symName: '__ZN3std2io5impls74_$LT$impl$u20$std..io..Write$u20$for$u20$alloc..vec..Vec$LT$u8$C$A$GT$$GT$17is_write_vectored17hbe3a42e190f0f94dE', symObjAddr: 0x2E750, symBinAddr: 0x100079320, symSize: 0x10 }
  - { offsetInCU: 0x3DC68, offset: 0xC57A4, size: 0x8, addend: 0x0, symName: '__ZN3std2io5impls74_$LT$impl$u20$std..io..Write$u20$for$u20$alloc..vec..Vec$LT$u8$C$A$GT$$GT$9write_all17hbabe835b5d4809f7E', symObjAddr: 0x2E760, symBinAddr: 0x100079330, symSize: 0x60 }
  - { offsetInCU: 0x3DD38, offset: 0xC5874, size: 0x8, addend: 0x0, symName: '__ZN3std2io5impls74_$LT$impl$u20$std..io..Write$u20$for$u20$alloc..vec..Vec$LT$u8$C$A$GT$$GT$5flush17h17fee1c2e23db30aE', symObjAddr: 0x2E7C0, symBinAddr: 0x100079390, symSize: 0x10 }
  - { offsetInCU: 0x3DDD4, offset: 0xC5910, size: 0x8, addend: 0x0, symName: __ZN3std2io5stdio6stdout17he0f2e32aeaa04b3bE, symObjAddr: 0x30DD0, symBinAddr: 0x1000793A0, symSize: 0x30 }
  - { offsetInCU: 0x3DE05, offset: 0xC5941, size: 0x8, addend: 0x0, symName: __ZN3std2io5stdio6stdout17he0f2e32aeaa04b3bE, symObjAddr: 0x30DD0, symBinAddr: 0x1000793A0, symSize: 0x30 }
  - { offsetInCU: 0x3DE1A, offset: 0xC5956, size: 0x8, addend: 0x0, symName: __ZN3std2io5stdio6stdout17he0f2e32aeaa04b3bE, symObjAddr: 0x30DD0, symBinAddr: 0x1000793A0, symSize: 0x30 }
  - { offsetInCU: 0x3DE2E, offset: 0xC596A, size: 0x8, addend: 0x0, symName: __ZN3std2io5stdio6stdout17he0f2e32aeaa04b3bE, symObjAddr: 0x30DD0, symBinAddr: 0x1000793A0, symSize: 0x30 }
  - { offsetInCU: 0x3DE43, offset: 0xC597F, size: 0x8, addend: 0x0, symName: __ZN3std2io5stdio6stdout17he0f2e32aeaa04b3bE, symObjAddr: 0x30DD0, symBinAddr: 0x1000793A0, symSize: 0x30 }
  - { offsetInCU: 0x3DE58, offset: 0xC5994, size: 0x8, addend: 0x0, symName: __ZN3std2io5stdio6stdout17he0f2e32aeaa04b3bE, symObjAddr: 0x30DD0, symBinAddr: 0x1000793A0, symSize: 0x30 }
  - { offsetInCU: 0x3DE6C, offset: 0xC59A8, size: 0x8, addend: 0x0, symName: __ZN3std2io5stdio6stdout17he0f2e32aeaa04b3bE, symObjAddr: 0x30DD0, symBinAddr: 0x1000793A0, symSize: 0x30 }
  - { offsetInCU: 0x3DEA4, offset: 0xC59E0, size: 0x8, addend: 0x0, symName: '__ZN61_$LT$$RF$std..io..stdio..Stdout$u20$as$u20$std..io..Write$GT$5flush17h44ad967c13ad19fbE', symObjAddr: 0x31160, symBinAddr: 0x100079500, symSize: 0xA0 }
  - { offsetInCU: 0x3E198, offset: 0xC5CD4, size: 0x8, addend: 0x0, symName: '__ZN61_$LT$$RF$std..io..stdio..Stdout$u20$as$u20$std..io..Write$GT$9write_fmt17h7ec60dfe0ea46b1fE', symObjAddr: 0x31300, symBinAddr: 0x1000795A0, symSize: 0x190 }
  - { offsetInCU: 0x3E513, offset: 0xC604F, size: 0x8, addend: 0x0, symName: '__ZN57_$LT$std..io..stdio..Stdout$u20$as$u20$std..io..Write$GT$5write17h7437a6552b81e082E', symObjAddr: 0x30E30, symBinAddr: 0x1000793D0, symSize: 0x90 }
  - { offsetInCU: 0x3E605, offset: 0xC6141, size: 0x8, addend: 0x0, symName: '__ZN57_$LT$std..io..stdio..Stdout$u20$as$u20$std..io..Write$GT$5flush17h589c0c9e98ecc91bE', symObjAddr: 0x30EE0, symBinAddr: 0x100079460, symSize: 0x20 }
  - { offsetInCU: 0x3E61F, offset: 0xC615B, size: 0x8, addend: 0x0, symName: '__ZN57_$LT$std..io..stdio..Stdout$u20$as$u20$std..io..Write$GT$9write_all17hf6a99c7b25f8e07eE', symObjAddr: 0x30F00, symBinAddr: 0x100079480, symSize: 0x80 }
  - { offsetInCU: 0x3E731, offset: 0xC626D, size: 0x8, addend: 0x0, symName: '__ZN61_$LT$std..io..stdio..StdoutLock$u20$as$u20$std..io..Write$GT$5write17hfa0f58d12a565386E', symObjAddr: 0x31490, symBinAddr: 0x100079730, symSize: 0x230 }
  - { offsetInCU: 0x3EE25, offset: 0xC6961, size: 0x8, addend: 0x0, symName: '__ZN61_$LT$std..io..stdio..StdoutLock$u20$as$u20$std..io..Write$GT$5flush17h3bc70969bb1d5d65E', symObjAddr: 0x31710, symBinAddr: 0x100079960, symSize: 0x50 }
  - { offsetInCU: 0x3F050, offset: 0xC6B8C, size: 0x8, addend: 0x0, symName: '__ZN61_$LT$std..io..stdio..StdoutLock$u20$as$u20$std..io..Write$GT$9write_all17h859708ba98f86e1fE', symObjAddr: 0x31760, symBinAddr: 0x1000799B0, symSize: 0x280 }
  - { offsetInCU: 0x3F6A6, offset: 0xC71E2, size: 0x8, addend: 0x0, symName: __ZN3std2io5stdio6Stderr4lock17h1c509cc3aff5b30fE, symObjAddr: 0x31D10, symBinAddr: 0x100079C30, symSize: 0x0 }
  - { offsetInCU: 0x3FAD7, offset: 0xC7613, size: 0x8, addend: 0x0, symName: '__ZN61_$LT$$RF$std..io..stdio..Stderr$u20$as$u20$std..io..Write$GT$9write_fmt17h6f302edd5e67dbd5E', symObjAddr: 0x32470, symBinAddr: 0x100079D80, symSize: 0x190 }
  - { offsetInCU: 0x3FE52, offset: 0xC798E, size: 0x8, addend: 0x0, symName: '__ZN61_$LT$std..io..stdio..StderrLock$u20$as$u20$std..io..Write$GT$9write_all17h317491cf23ac35ceE', symObjAddr: 0x327F0, symBinAddr: 0x100079F10, symSize: 0x100 }
  - { offsetInCU: 0x401B3, offset: 0xC7CEF, size: 0x8, addend: 0x0, symName: __ZN3std2io5stdio18set_output_capture17hf90c144f1205c85cE, symObjAddr: 0x32990, symBinAddr: 0x10007A010, symSize: 0xC0 }
  - { offsetInCU: 0x40427, offset: 0xC7F63, size: 0x8, addend: 0x0, symName: __ZN3std2io5stdio31print_to_buffer_if_capture_used17ha63af7ba63fd2069E, symObjAddr: 0x32B00, symBinAddr: 0x10007A0D0, symSize: 0x210 }
  - { offsetInCU: 0x40B79, offset: 0xC86B5, size: 0x8, addend: 0x0, symName: __ZN3std2io5stdio6_print17h72b43a6446f0d302E, symObjAddr: 0x32DE0, symBinAddr: 0x10007A2E0, symSize: 0xF0 }
  - { offsetInCU: 0x40C83, offset: 0xC87BF, size: 0x8, addend: 0x0, symName: __ZN3std2io5stdio7_eprint17ha5d8104c0c196f35E, symObjAddr: 0x32ED0, symBinAddr: 0x10007A3D0, symSize: 0xE0 }
  - { offsetInCU: 0x40CFE, offset: 0xC883A, size: 0x8, addend: 0x0, symName: '__ZN3std2io8buffered9bufwriter18BufWriter$LT$W$GT$9flush_buf17h0bb639a092aebc64E', symObjAddr: 0x2D090, symBinAddr: 0x100078860, symSize: 0x270 }
  - { offsetInCU: 0x4136E, offset: 0xC8EAA, size: 0x8, addend: 0x0, symName: '__ZN3std2io8buffered9bufwriter18BufWriter$LT$W$GT$10write_cold17h1e3c95687d68515fE', symObjAddr: 0x2D390, symBinAddr: 0x1000A3BD0, symSize: 0xF0 }
  - { offsetInCU: 0x4156F, offset: 0xC90AB, size: 0x8, addend: 0x0, symName: '__ZN3std2io8buffered9bufwriter18BufWriter$LT$W$GT$14write_all_cold17h6fbe0dca3bc9c1fbE', symObjAddr: 0x2D480, symBinAddr: 0x1000A3CC0, symSize: 0x120 }
  - { offsetInCU: 0x419A3, offset: 0xC94DF, size: 0x8, addend: 0x0, symName: __ZN3std2io19default_read_to_end16small_probe_read17h628a64f1a38c4cb0E, symObjAddr: 0x33890, symBinAddr: 0x10007A780, symSize: 0xF0 }
  - { offsetInCU: 0x41B34, offset: 0xC9670, size: 0x8, addend: 0x0, symName: __ZN3std2io19default_read_to_end16small_probe_read17h6dcad4bced0f29caE, symObjAddr: 0x33980, symBinAddr: 0x10007A870, symSize: 0xF0 }
  - { offsetInCU: 0x41CD4, offset: 0xC9810, size: 0x8, addend: 0x0, symName: __ZN3std2io19default_read_to_end17h771f11afd9802aaaE, symObjAddr: 0x33050, symBinAddr: 0x10007A4B0, symSize: 0x2D0 }
  - { offsetInCU: 0x4214A, offset: 0xC9C86, size: 0x8, addend: 0x0, symName: '__ZN3std4sync4once4Once15call_once_force28_$u7b$$u7b$closure$u7d$$u7d$17h066b6215fe20f0c0E', symObjAddr: 0x3E1D0, symBinAddr: 0x10007D160, symSize: 0x90 }
  - { offsetInCU: 0x422B6, offset: 0xC9DF2, size: 0x8, addend: 0x0, symName: '__ZN3std4sync4once4Once15call_once_force28_$u7b$$u7b$closure$u7d$$u7d$17h5b9e19c1a461e180E', symObjAddr: 0x3E260, symBinAddr: 0x10007D1F0, symSize: 0x90 }
  - { offsetInCU: 0x4239C, offset: 0xC9ED8, size: 0x8, addend: 0x0, symName: '__ZN3std4sync4once4Once9call_once28_$u7b$$u7b$closure$u7d$$u7d$17h06e38cb17c1bb498E', symObjAddr: 0x3DCE0, symBinAddr: 0x10007CE60, symSize: 0x300 }
  - { offsetInCU: 0x42CD1, offset: 0xCA80D, size: 0x8, addend: 0x0, symName: '__ZN3std4sync9once_lock17OnceLock$LT$T$GT$10initialize17h588550981d1e9b1bE', symObjAddr: 0x3E460, symBinAddr: 0x1000A3F70, symSize: 0x60 }
  - { offsetInCU: 0x42CFC, offset: 0xCA838, size: 0x8, addend: 0x0, symName: '__ZN3std4sync9once_lock17OnceLock$LT$T$GT$10initialize17h588550981d1e9b1bE', symObjAddr: 0x3E460, symBinAddr: 0x1000A3F70, symSize: 0x60 }
  - { offsetInCU: 0x42D10, offset: 0xCA84C, size: 0x8, addend: 0x0, symName: '__ZN3std4sync9once_lock17OnceLock$LT$T$GT$10initialize17h588550981d1e9b1bE', symObjAddr: 0x3E460, symBinAddr: 0x1000A3F70, symSize: 0x60 }
  - { offsetInCU: 0x42D24, offset: 0xCA860, size: 0x8, addend: 0x0, symName: '__ZN3std4sync9once_lock17OnceLock$LT$T$GT$10initialize17h588550981d1e9b1bE', symObjAddr: 0x3E460, symBinAddr: 0x1000A3F70, symSize: 0x60 }
  - { offsetInCU: 0x42D39, offset: 0xCA875, size: 0x8, addend: 0x0, symName: '__ZN3std4sync9once_lock17OnceLock$LT$T$GT$10initialize17hf37e12245f3595a8E', symObjAddr: 0x3E520, symBinAddr: 0x1000A3FD0, symSize: 0x60 }
  - { offsetInCU: 0x42D64, offset: 0xCA8A0, size: 0x8, addend: 0x0, symName: '__ZN3std4sync9once_lock17OnceLock$LT$T$GT$10initialize17hf37e12245f3595a8E', symObjAddr: 0x3E520, symBinAddr: 0x1000A3FD0, symSize: 0x60 }
  - { offsetInCU: 0x42D78, offset: 0xCA8B4, size: 0x8, addend: 0x0, symName: '__ZN3std4sync9once_lock17OnceLock$LT$T$GT$10initialize17hf37e12245f3595a8E', symObjAddr: 0x3E520, symBinAddr: 0x1000A3FD0, symSize: 0x60 }
  - { offsetInCU: 0x42D8C, offset: 0xCA8C8, size: 0x8, addend: 0x0, symName: '__ZN3std4sync9once_lock17OnceLock$LT$T$GT$10initialize17hf37e12245f3595a8E', symObjAddr: 0x3E520, symBinAddr: 0x1000A3FD0, symSize: 0x60 }
  - { offsetInCU: 0x42FD4, offset: 0xCAB10, size: 0x8, addend: 0x0, symName: '__ZN3std4sync6rwlock15RwLock$LT$T$GT$5write17heaa3fe5605b10f6fE', symObjAddr: 0x3E860, symBinAddr: 0x10007D280, symSize: 0x2B0 }
  - { offsetInCU: 0x43771, offset: 0xCB2AD, size: 0x8, addend: 0x0, symName: __ZN3std4sync4mpmc7context7Context3new17h30f620796fec312aE, symObjAddr: 0x3DB20, symBinAddr: 0x1000A3DF0, symSize: 0x180 }
  - { offsetInCU: 0x43C2B, offset: 0xCB767, size: 0x8, addend: 0x0, symName: __ZN3std9panicking11panic_count17is_zero_slow_path17h56102c4de0497dbbE, symObjAddr: 0x426E0, symBinAddr: 0x1000A4320, symSize: 0x20 }
  - { offsetInCU: 0x43D29, offset: 0xCB865, size: 0x8, addend: 0x0, symName: __ZN3std9panicking3try7cleanup17hc468c0d0bdf2efbfE, symObjAddr: 0x42700, symBinAddr: 0x1000A4340, symSize: 0x40 }
  - { offsetInCU: 0x43E6E, offset: 0xCB9AA, size: 0x8, addend: 0x0, symName: ___rust_drop_panic, symObjAddr: 0x418C0, symBinAddr: 0x10007E320, symSize: 0xD0 }
  - { offsetInCU: 0x440B0, offset: 0xCBBEC, size: 0x8, addend: 0x0, symName: ___rust_foreign_exception, symObjAddr: 0x41990, symBinAddr: 0x10007E3F0, symSize: 0xD0 }
  - { offsetInCU: 0x442FF, offset: 0xCBE3B, size: 0x8, addend: 0x0, symName: __ZN3std9panicking8set_hook17hd062e6707c0d1c04E, symObjAddr: 0x41A60, symBinAddr: 0x10007E4C0, symSize: 0x1B0 }
  - { offsetInCU: 0x4467C, offset: 0xCC1B8, size: 0x8, addend: 0x0, symName: __ZN3std9panicking9take_hook17h872dd283e7ece935E, symObjAddr: 0x41C10, symBinAddr: 0x10007E670, symSize: 0x150 }
  - { offsetInCU: 0x44925, offset: 0xCC461, size: 0x8, addend: 0x0, symName: '__ZN3std9panicking12default_hook28_$u7b$$u7b$closure$u7d$$u7d$17ha1110e62c540acf1E', symObjAddr: 0x42210, symBinAddr: 0x10007EC70, symSize: 0x410 }
  - { offsetInCU: 0x45179, offset: 0xCCCB5, size: 0x8, addend: 0x0, symName: __ZN3std9panicking12default_hook17h38beedc244b2f33fE, symObjAddr: 0x41D60, symBinAddr: 0x10007E7C0, symSize: 0x4B0 }
  - { offsetInCU: 0x45F4F, offset: 0xCDA8B, size: 0x8, addend: 0x0, symName: _rust_begin_unwind, symObjAddr: 0x42740, symBinAddr: 0x10007F080, symSize: 0x50 }
  - { offsetInCU: 0x45FB5, offset: 0xCDAF1, size: 0x8, addend: 0x0, symName: '__ZN102_$LT$std..panicking..begin_panic_handler..FormatStringPayload$u20$as$u20$core..panic..PanicPayload$GT$8take_box17h792c18fb9672bc70E', symObjAddr: 0x42790, symBinAddr: 0x10007F0D0, symSize: 0x150 }
  - { offsetInCU: 0x46248, offset: 0xCDD84, size: 0x8, addend: 0x0, symName: '__ZN102_$LT$std..panicking..begin_panic_handler..FormatStringPayload$u20$as$u20$core..panic..PanicPayload$GT$3get17hc64129965c6e3f89E', symObjAddr: 0x428E0, symBinAddr: 0x10007F220, symSize: 0xD0 }
  - { offsetInCU: 0x4636F, offset: 0xCDEAB, size: 0x8, addend: 0x0, symName: '__ZN95_$LT$std..panicking..begin_panic_handler..FormatStringPayload$u20$as$u20$core..fmt..Display$GT$3fmt17h95ccb363af43619fE', symObjAddr: 0x429B0, symBinAddr: 0x10007F2F0, symSize: 0x70 }
  - { offsetInCU: 0x46427, offset: 0xCDF63, size: 0x8, addend: 0x0, symName: '__ZN99_$LT$std..panicking..begin_panic_handler..StaticStrPayload$u20$as$u20$core..panic..PanicPayload$GT$8take_box17h1610e0deea676a22E', symObjAddr: 0x42A20, symBinAddr: 0x10007F360, symSize: 0x50 }
  - { offsetInCU: 0x464B2, offset: 0xCDFEE, size: 0x8, addend: 0x0, symName: '__ZN99_$LT$std..panicking..begin_panic_handler..StaticStrPayload$u20$as$u20$core..panic..PanicPayload$GT$3get17h2ea46f94062eaaabE', symObjAddr: 0x42A70, symBinAddr: 0x10007F3B0, symSize: 0x10 }
  - { offsetInCU: 0x464CC, offset: 0xCE008, size: 0x8, addend: 0x0, symName: '__ZN99_$LT$std..panicking..begin_panic_handler..StaticStrPayload$u20$as$u20$core..panic..PanicPayload$GT$6as_str17hf9f0880f33b38064E', symObjAddr: 0x42A80, symBinAddr: 0x10007F3C0, symSize: 0x10 }
  - { offsetInCU: 0x464EC, offset: 0xCE028, size: 0x8, addend: 0x0, symName: '__ZN92_$LT$std..panicking..begin_panic_handler..StaticStrPayload$u20$as$u20$core..fmt..Display$GT$3fmt17h238672ad02fd2f21E', symObjAddr: 0x42A90, symBinAddr: 0x10007F3D0, symSize: 0x20 }
  - { offsetInCU: 0x46507, offset: 0xCE043, size: 0x8, addend: 0x0, symName: '__ZN3std9panicking19begin_panic_handler28_$u7b$$u7b$closure$u7d$$u7d$17h05caf8582ad47024E', symObjAddr: 0x42AB0, symBinAddr: 0x10007F3F0, symSize: 0xD0 }
  - { offsetInCU: 0x46647, offset: 0xCE183, size: 0x8, addend: 0x0, symName: __ZN3std9panicking14payload_as_str17h26504a0caf9c9887E, symObjAddr: 0x42B80, symBinAddr: 0x10007F4C0, symSize: 0x90 }
  - { offsetInCU: 0x4679C, offset: 0xCE2D8, size: 0x8, addend: 0x0, symName: __ZN3std9panicking20rust_panic_with_hook17h476dee14babd971bE, symObjAddr: 0x42C10, symBinAddr: 0x10007F550, symSize: 0x9F0 }
  - { offsetInCU: 0x47F2D, offset: 0xCFA69, size: 0x8, addend: 0x0, symName: _rust_panic, symObjAddr: 0x43700, symBinAddr: 0x10007FF40, symSize: 0x70 }
  - { offsetInCU: 0x47FD1, offset: 0xCFB0D, size: 0x8, addend: 0x0, symName: __ZN3std6thread6Thread3new17hf409f07961944a32E, symObjAddr: 0x279E0, symBinAddr: 0x100077540, symSize: 0x30 }
  - { offsetInCU: 0x48001, offset: 0xCFB3D, size: 0x8, addend: 0x0, symName: __ZN3std6thread6Thread11new_unnamed17hc1485f4afc87e787E, symObjAddr: 0x27A10, symBinAddr: 0x100077570, symSize: 0x20 }
  - { offsetInCU: 0x48014, offset: 0xCFB50, size: 0x8, addend: 0x0, symName: __ZN3std6thread6Thread9new_inner17hc776e1c7db6dac42E, symObjAddr: 0x27A30, symBinAddr: 0x100077590, symSize: 0x150 }
  - { offsetInCU: 0x48507, offset: 0xD0043, size: 0x8, addend: 0x0, symName: '__ZN68_$LT$std..thread..local..AccessError$u20$as$u20$core..fmt..Debug$GT$3fmt17hfb051a81097c01deE', symObjAddr: 0x27080, symBinAddr: 0x100076F40, symSize: 0x30 }
  - { offsetInCU: 0x48571, offset: 0xD00AD, size: 0x8, addend: 0x0, symName: __ZN3std6thread6scoped9ScopeData29increment_num_running_threads17h041fa78e6dc6dcd9E, symObjAddr: 0x26F20, symBinAddr: 0x100076EF0, symSize: 0x20 }
  - { offsetInCU: 0x4858E, offset: 0xD00CA, size: 0x8, addend: 0x0, symName: __ZN3std6thread6scoped9ScopeData29increment_num_running_threads17h041fa78e6dc6dcd9E, symObjAddr: 0x26F20, symBinAddr: 0x100076EF0, symSize: 0x20 }
  - { offsetInCU: 0x485A2, offset: 0xD00DE, size: 0x8, addend: 0x0, symName: __ZN3std6thread6scoped9ScopeData29increment_num_running_threads17h041fa78e6dc6dcd9E, symObjAddr: 0x26F20, symBinAddr: 0x100076EF0, symSize: 0x20 }
  - { offsetInCU: 0x485B5, offset: 0xD00F1, size: 0x8, addend: 0x0, symName: __ZN3std6thread6scoped9ScopeData8overflow17hf519095a3cee2387E, symObjAddr: 0x26F40, symBinAddr: 0x1000A3B30, symSize: 0x50 }
  - { offsetInCU: 0x485E3, offset: 0xD011F, size: 0x8, addend: 0x0, symName: __ZN3std6thread6scoped9ScopeData29decrement_num_running_threads17hae18b83403f3be68E, symObjAddr: 0x26F90, symBinAddr: 0x100076F10, symSize: 0x30 }
  - { offsetInCU: 0x486F4, offset: 0xD0230, size: 0x8, addend: 0x0, symName: __ZN3std6thread7Builder4name17he3b0b737d2bb931fE, symObjAddr: 0x270D0, symBinAddr: 0x100076F70, symSize: 0x90 }
  - { offsetInCU: 0x487B3, offset: 0xD02EF, size: 0x8, addend: 0x0, symName: __ZN3std6thread11set_current17hf89ea0dd9f2b9978E, symObjAddr: 0x27160, symBinAddr: 0x100077000, symSize: 0x140 }
  - { offsetInCU: 0x48BB5, offset: 0xD06F1, size: 0x8, addend: 0x0, symName: __ZN3std6thread7current17hffe4f7901c482367E, symObjAddr: 0x272A0, symBinAddr: 0x100077140, symSize: 0xA0 }
  - { offsetInCU: 0x48D90, offset: 0xD08CC, size: 0x8, addend: 0x0, symName: __ZN3std6thread9yield_now17h42054608be38696eE, symObjAddr: 0x27340, symBinAddr: 0x1000771E0, symSize: 0x10 }
  - { offsetInCU: 0x48DCD, offset: 0xD0909, size: 0x8, addend: 0x0, symName: __ZN3std6thread4park17hac627a69a2c0603dE, symObjAddr: 0x27610, symBinAddr: 0x1000771F0, symSize: 0x100 }
  - { offsetInCU: 0x49134, offset: 0xD0C70, size: 0x8, addend: 0x0, symName: __ZN3std6thread12park_timeout17h38eca334bf8eaf07E, symObjAddr: 0x27740, symBinAddr: 0x1000772F0, symSize: 0x150 }
  - { offsetInCU: 0x494D4, offset: 0xD1010, size: 0x8, addend: 0x0, symName: __ZN3std6thread8ThreadId3new9exhausted17hee7d68b6e81e2237E, symObjAddr: 0x27890, symBinAddr: 0x1000A3B80, symSize: 0x50 }
  - { offsetInCU: 0x4950F, offset: 0xD104B, size: 0x8, addend: 0x0, symName: '__ZN118_$LT$std..thread..thread_name_string..ThreadNameString$u20$as$u20$core..convert..From$LT$alloc..string..String$GT$$GT$4from17h7ab1900be853cfb2E', symObjAddr: 0x278E0, symBinAddr: 0x100077440, symSize: 0x100 }
  - { offsetInCU: 0x49728, offset: 0xD1264, size: 0x8, addend: 0x0, symName: __ZN3std6thread21available_parallelism17h6a530ef05c79b4abE, symObjAddr: 0x27C80, symBinAddr: 0x1000776E0, symSize: 0x50 }
  - { offsetInCU: 0x49817, offset: 0xD1353, size: 0x8, addend: 0x0, symName: '__ZN3std10sys_common8lazy_box16LazyBox$LT$T$GT$10initialize17h68cb83bd50c56600E', symObjAddr: 0x40360, symBinAddr: 0x1000A42D0, symSize: 0x50 }
  - { offsetInCU: 0x4992C, offset: 0xD1468, size: 0x8, addend: 0x0, symName: __ZN3std10sys_common7process10CommandEnv3set17h34f4c05e8e22a441E, symObjAddr: 0x40430, symBinAddr: 0x10007DE70, symSize: 0x1A0 }
  - { offsetInCU: 0x49E64, offset: 0xD19A0, size: 0x8, addend: 0x0, symName: __ZN3std12backtrace_rs9symbolize5gimli7Context3new17ha1962ce590ad2924E, symObjAddr: 0x510B0, symBinAddr: 0x100085F70, symSize: 0x3420 }
  - { offsetInCU: 0x4DEFB, offset: 0xD5A37, size: 0x8, addend: 0x0, symName: __ZN3std12backtrace_rs9symbolize5gimli7Context11find_frames17h7658aa0e29db52d5E, symObjAddr: 0x544D0, symBinAddr: 0x100089390, symSize: 0x3F0 }
  - { offsetInCU: 0x4E328, offset: 0xD5E64, size: 0x8, addend: 0x0, symName: __ZN3std12backtrace_rs9symbolize5gimli5macho6Object5parse17h78b3cd8af98e2ca0E, symObjAddr: 0x57A70, symBinAddr: 0x10008C900, symSize: 0x1090 }
  - { offsetInCU: 0x4FFC9, offset: 0xD7B05, size: 0x8, addend: 0x0, symName: __ZN3std12backtrace_rs9symbolize5gimli5macho6Object7section17h2252defa69affb04E, symObjAddr: 0x58B00, symBinAddr: 0x10008D990, symSize: 0x19A }
  - { offsetInCU: 0x50319, offset: 0xD7E55, size: 0x8, addend: 0x0, symName: __ZN3std12backtrace_rs9symbolize5gimli5macho11find_header17hf7d4993c22952055E, symObjAddr: 0x578E0, symBinAddr: 0x10008C770, symSize: 0x190 }
  - { offsetInCU: 0x50B00, offset: 0xD863C, size: 0x8, addend: 0x0, symName: __ZN3std12backtrace_rs9symbolize5gimli4mmap17hd480a54e9faf1969E, symObjAddr: 0x548C0, symBinAddr: 0x100089780, symSize: 0x1A0 }
  - { offsetInCU: 0x510C3, offset: 0xD8BFF, size: 0x8, addend: 0x0, symName: __ZN3std12backtrace_rs9symbolize5gimli7resolve17h96a5664b21f7a158E, symObjAddr: 0x54A60, symBinAddr: 0x100089920, symSize: 0x2E50 }
  - { offsetInCU: 0x56BFC, offset: 0xDE738, size: 0x8, addend: 0x0, symName: __ZN3std12backtrace_rs9symbolize6Symbol4name17haa9b2560df004d25E, symObjAddr: 0x43840, symBinAddr: 0x10007FFB0, symSize: 0x110 }
  - { offsetInCU: 0x56CB9, offset: 0xDE7F5, size: 0x8, addend: 0x0, symName: '__ZN79_$LT$std..backtrace_rs..symbolize..SymbolName$u20$as$u20$core..fmt..Display$GT$3fmt17h00ae6702a7d6284fE', symObjAddr: 0x43A80, symBinAddr: 0x1000800C0, symSize: 0xE0 }
  - { offsetInCU: 0x56DDF, offset: 0xDE91B, size: 0x8, addend: 0x0, symName: __ZN3std12backtrace_rs9backtrace9libunwind5trace8trace_fn17h86c77dfc4cf1f602E, symObjAddr: 0x51070, symBinAddr: 0x100085F30, symSize: 0x40 }
  - { offsetInCU: 0x56EB2, offset: 0xDE9EE, size: 0x8, addend: 0x0, symName: __ZN3std12backtrace_rs5print17BacktraceFrameFmt21print_raw_with_column17h9782bac7179e68beE, symObjAddr: 0x43C40, symBinAddr: 0x1000801A0, symSize: 0x690 }
  - { offsetInCU: 0x570C9, offset: 0xDEC05, size: 0x8, addend: 0x0, symName: __ZN3std2rt7cleanup17h89e617c657c11586E, symObjAddr: 0x268A0, symBinAddr: 0x100076870, symSize: 0x50 }
  - { offsetInCU: 0x570EC, offset: 0xDEC28, size: 0x8, addend: 0x0, symName: __ZN3std2rt7cleanup17h89e617c657c11586E, symObjAddr: 0x268A0, symBinAddr: 0x100076870, symSize: 0x50 }
  - { offsetInCU: 0x57100, offset: 0xDEC3C, size: 0x8, addend: 0x0, symName: __ZN3std2rt7cleanup17h89e617c657c11586E, symObjAddr: 0x268A0, symBinAddr: 0x100076870, symSize: 0x50 }
  - { offsetInCU: 0x57114, offset: 0xDEC50, size: 0x8, addend: 0x0, symName: __ZN3std2rt7cleanup17h89e617c657c11586E, symObjAddr: 0x268A0, symBinAddr: 0x100076870, symSize: 0x50 }
  - { offsetInCU: 0x5715E, offset: 0xDEC9A, size: 0x8, addend: 0x0, symName: '__ZN3std2rt19lang_start_internal28_$u7b$$u7b$closure$u7d$$u7d$17hab23b84f28c094acE', symObjAddr: 0x26ED0, symBinAddr: 0x100076EA0, symSize: 0x50 }
  - { offsetInCU: 0x57199, offset: 0xDECD5, size: 0x8, addend: 0x0, symName: __ZN3std2rt19lang_start_internal17h44ef96ddb6c2eff9E, symObjAddr: 0x268F0, symBinAddr: 0x1000768C0, symSize: 0x5E0 }
  - { offsetInCU: 0x57B93, offset: 0xDF6CF, size: 0x8, addend: 0x0, symName: __ZN3std5panic19get_backtrace_style17hb7397f3e46331c67E, symObjAddr: 0x38CB0, symBinAddr: 0x10007B320, symSize: 0xF0 }
  - { offsetInCU: 0x57F6F, offset: 0xDFAAB, size: 0x8, addend: 0x0, symName: __ZN3std4time7Instant3now17h165df4a87ffec6d0E, symObjAddr: 0x3EB10, symBinAddr: 0x10007D530, symSize: 0x10 }
  - { offsetInCU: 0x57F98, offset: 0xDFAD4, size: 0x8, addend: 0x0, symName: __ZN3std4time7Instant7elapsed17hc35b3270d26b4847E, symObjAddr: 0x3EBA0, symBinAddr: 0x10007D540, symSize: 0x60 }
  - { offsetInCU: 0x58063, offset: 0xDFB9F, size: 0x8, addend: 0x0, symName: '__ZN60_$LT$std..time..Instant$u20$as$u20$core..ops..arith..Sub$GT$3sub17hcd70bf3c41127ee1E', symObjAddr: 0x3ED60, symBinAddr: 0x10007D5F0, symSize: 0x40 }
  - { offsetInCU: 0x580D3, offset: 0xDFC0F, size: 0x8, addend: 0x0, symName: '__ZN88_$LT$std..time..Instant$u20$as$u20$core..ops..arith..Add$LT$core..time..Duration$GT$$GT$3add17h57a6de9ffe3ad323E', symObjAddr: 0x3EC00, symBinAddr: 0x10007D5A0, symSize: 0x50 }
  - { offsetInCU: 0x580EA, offset: 0xDFC26, size: 0x8, addend: 0x0, symName: '__ZN88_$LT$std..time..Instant$u20$as$u20$core..ops..arith..Add$LT$core..time..Duration$GT$$GT$3add17h57a6de9ffe3ad323E', symObjAddr: 0x3EC00, symBinAddr: 0x10007D5A0, symSize: 0x50 }
  - { offsetInCU: 0x580FF, offset: 0xDFC3B, size: 0x8, addend: 0x0, symName: '__ZN88_$LT$std..time..Instant$u20$as$u20$core..ops..arith..Add$LT$core..time..Duration$GT$$GT$3add17h57a6de9ffe3ad323E', symObjAddr: 0x3EC00, symBinAddr: 0x10007D5A0, symSize: 0x50 }
  - { offsetInCU: 0x58114, offset: 0xDFC50, size: 0x8, addend: 0x0, symName: '__ZN88_$LT$std..time..Instant$u20$as$u20$core..ops..arith..Add$LT$core..time..Duration$GT$$GT$3add17h57a6de9ffe3ad323E', symObjAddr: 0x3EC00, symBinAddr: 0x10007D5A0, symSize: 0x50 }
  - { offsetInCU: 0x58129, offset: 0xDFC65, size: 0x8, addend: 0x0, symName: '__ZN88_$LT$std..time..Instant$u20$as$u20$core..ops..arith..Add$LT$core..time..Duration$GT$$GT$3add17h57a6de9ffe3ad323E', symObjAddr: 0x3EC00, symBinAddr: 0x10007D5A0, symSize: 0x50 }
  - { offsetInCU: 0x5813D, offset: 0xDFC79, size: 0x8, addend: 0x0, symName: '__ZN88_$LT$std..time..Instant$u20$as$u20$core..ops..arith..Add$LT$core..time..Duration$GT$$GT$3add17h57a6de9ffe3ad323E', symObjAddr: 0x3EC00, symBinAddr: 0x10007D5A0, symSize: 0x50 }
  - { offsetInCU: 0x58152, offset: 0xDFC8E, size: 0x8, addend: 0x0, symName: '__ZN88_$LT$std..time..Instant$u20$as$u20$core..ops..arith..Add$LT$core..time..Duration$GT$$GT$3add17h57a6de9ffe3ad323E', symObjAddr: 0x3EC00, symBinAddr: 0x10007D5A0, symSize: 0x50 }
  - { offsetInCU: 0x581BB, offset: 0xDFCF7, size: 0x8, addend: 0x0, symName: __ZN3std4time10SystemTime3now17ha582e5bc5a02687fE, symObjAddr: 0x3EE20, symBinAddr: 0x10007D630, symSize: 0x10 }
  - { offsetInCU: 0x581E4, offset: 0xDFD20, size: 0x8, addend: 0x0, symName: __ZN3std4time10SystemTime14duration_since17h0b4daa36d3cc621dE, symObjAddr: 0x3EE30, symBinAddr: 0x10007D640, symSize: 0x40 }
  - { offsetInCU: 0x5823C, offset: 0xDFD78, size: 0x8, addend: 0x0, symName: __ZN3std4time10SystemTime11checked_add17h1673fdc12ebc9b0aE, symObjAddr: 0x3EED0, symBinAddr: 0x10007D680, symSize: 0x0 }
  - { offsetInCU: 0x58302, offset: 0xDFE3E, size: 0x8, addend: 0x0, symName: __ZN3std3env11current_dir17he251f845082cc5ddE, symObjAddr: 0x29060, symBinAddr: 0x100077730, symSize: 0x1F0 }
  - { offsetInCU: 0x58668, offset: 0xE01A4, size: 0x8, addend: 0x0, symName: __ZN3std3env7vars_os17h96fbb483b5c52e89E, symObjAddr: 0x29270, symBinAddr: 0x100077920, symSize: 0x360 }
  - { offsetInCU: 0x58C60, offset: 0xE079C, size: 0x8, addend: 0x0, symName: __ZN3std3env4_var17h14de8fbde719fed4E, symObjAddr: 0x29970, symBinAddr: 0x100077C80, symSize: 0xB0 }
  - { offsetInCU: 0x58D3C, offset: 0xE0878, size: 0x8, addend: 0x0, symName: __ZN3std3env7_var_os17he4d73c2dfeb06a82E, symObjAddr: 0x29A20, symBinAddr: 0x100077D30, symSize: 0x160 }
  - { offsetInCU: 0x58FFF, offset: 0xE0B3B, size: 0x8, addend: 0x0, symName: __ZN3std3env8home_dir17h278aace3a44339a6E, symObjAddr: 0x29D50, symBinAddr: 0x100077E90, symSize: 0x1C0 }
  - { offsetInCU: 0x59338, offset: 0xE0E74, size: 0x8, addend: 0x0, symName: __ZN3std3env4args17ha532e9fc43781de0E, symObjAddr: 0x2A090, symBinAddr: 0x100078050, symSize: 0x20 }
  - { offsetInCU: 0x59352, offset: 0xE0E8E, size: 0x8, addend: 0x0, symName: __ZN3std3env7args_os17h178b004b98be5a79E, symObjAddr: 0x2A0B0, symBinAddr: 0x100078070, symSize: 0x200 }
  - { offsetInCU: 0x5973E, offset: 0xE127A, size: 0x8, addend: 0x0, symName: '__ZN73_$LT$std..env..Args$u20$as$u20$core..iter..traits..iterator..Iterator$GT$4next17hd06b54e553384075E', symObjAddr: 0x2A2B0, symBinAddr: 0x100078270, symSize: 0xE0 }
  - { offsetInCU: 0x59954, offset: 0xE1490, size: 0x8, addend: 0x0, symName: '__ZN73_$LT$std..env..Args$u20$as$u20$core..iter..traits..iterator..Iterator$GT$9size_hint17h12741ec56db0db33E', symObjAddr: 0x2A390, symBinAddr: 0x100078350, symSize: 0x40 }
  - { offsetInCU: 0x59A0D, offset: 0xE1549, size: 0x8, addend: 0x0, symName: __ZN3std2fs11OpenOptions5_open17h1d14c781b27b9cd8E, symObjAddr: 0x2BCB0, symBinAddr: 0x100078670, symSize: 0x1F0 }
  - { offsetInCU: 0x59BFB, offset: 0xE1737, size: 0x8, addend: 0x0, symName: '__ZN48_$LT$std..fs..File$u20$as$u20$std..io..Write$GT$5write17hf87a0d5ca1b817b0E', symObjAddr: 0x2B990, symBinAddr: 0x100078630, symSize: 0x0 }
  - { offsetInCU: 0x59D19, offset: 0xE1855, size: 0x8, addend: 0x0, symName: '__ZN51_$LT$$RF$std..fs..File$u20$as$u20$std..io..Read$GT$11read_to_end17h3181b80cb3be3067E', symObjAddr: 0x2B4A0, symBinAddr: 0x1000783B0, symSize: 0x170 }
  - { offsetInCU: 0x5A00C, offset: 0xE1B48, size: 0x8, addend: 0x0, symName: '__ZN47_$LT$std..fs..File$u20$as$u20$std..io..Read$GT$4read17hecd2e3853aef6a02E', symObjAddr: 0x2B860, symBinAddr: 0x100078520, symSize: 0x40 }
  - { offsetInCU: 0x5A12C, offset: 0xE1C68, size: 0x8, addend: 0x0, symName: '__ZN47_$LT$std..fs..File$u20$as$u20$std..io..Read$GT$13read_vectored17ha064bab48ea1fbabE', symObjAddr: 0x2B8A0, symBinAddr: 0x100078560, symSize: 0x40 }
  - { offsetInCU: 0x5A253, offset: 0xE1D8F, size: 0x8, addend: 0x0, symName: '__ZN47_$LT$std..fs..File$u20$as$u20$std..io..Read$GT$8read_buf17hec9186e7188dccf6E', symObjAddr: 0x2B8E0, symBinAddr: 0x1000785A0, symSize: 0x70 }
  - { offsetInCU: 0x5A45D, offset: 0xE1F99, size: 0x8, addend: 0x0, symName: '__ZN47_$LT$std..fs..File$u20$as$u20$std..io..Read$GT$11read_to_end17h8ee8cca3c9ae1dffE', symObjAddr: 0x2B950, symBinAddr: 0x100078610, symSize: 0x20 }
  - { offsetInCU: 0x5A4EB, offset: 0xE2027, size: 0x8, addend: 0x0, symName: __ZN3std5alloc24default_alloc_error_hook17hb7e8942bce464676E, symObjAddr: 0x415B0, symBinAddr: 0x10007E010, symSize: 0x160 }
  - { offsetInCU: 0x5A775, offset: 0xE22B1, size: 0x8, addend: 0x0, symName: ___rdl_alloc, symObjAddr: 0x41710, symBinAddr: 0x10007E170, symSize: 0x70 }
  - { offsetInCU: 0x5A803, offset: 0xE233F, size: 0x8, addend: 0x0, symName: ___rdl_dealloc, symObjAddr: 0x41780, symBinAddr: 0x10007E1E0, symSize: 0x10 }
  - { offsetInCU: 0x5A82F, offset: 0xE236B, size: 0x8, addend: 0x0, symName: ___rdl_realloc, symObjAddr: 0x41790, symBinAddr: 0x10007E1F0, symSize: 0xA0 }
  - { offsetInCU: 0x5A93F, offset: 0xE247B, size: 0x8, addend: 0x0, symName: ___rdl_alloc_zeroed, symObjAddr: 0x41830, symBinAddr: 0x10007E290, symSize: 0x90 }
  - { offsetInCU: 0x5A9EF, offset: 0xE252B, size: 0x8, addend: 0x0, symName: __ZN3std5alloc8rust_oom17hdae996a8007ae43bE, symObjAddr: 0x50F70, symBinAddr: 0x100085EF0, symSize: 0x20 }
  - { offsetInCU: 0x5AA3A, offset: 0xE2576, size: 0x8, addend: 0x0, symName: ___rg_oom, symObjAddr: 0x50F90, symBinAddr: 0x100085F10, symSize: 0x20 }
  - { offsetInCU: 0x5AB86, offset: 0xE26C2, size: 0x8, addend: 0x0, symName: '__ZN5gimli4read4unit32AttributeValue$LT$R$C$Offset$GT$11udata_value17hede2cb0fa7142a81E', symObjAddr: 0x19DD0, symBinAddr: 0x10006A300, symSize: 0x80 }
  - { offsetInCU: 0x5ABDB, offset: 0xE2717, size: 0x8, addend: 0x0, symName: __ZN5gimli4read4unit15parse_attribute17hdc95fea432f22995E, symObjAddr: 0x171C0, symBinAddr: 0x1000676F0, symSize: 0x1960 }
  - { offsetInCU: 0x5E2C3, offset: 0xE5DFF, size: 0x8, addend: 0x0, symName: __ZN5gimli4read4unit15skip_attributes17hd3629e11f5bef68bE, symObjAddr: 0x18B20, symBinAddr: 0x100069050, symSize: 0x750 }
  - { offsetInCU: 0x5ED13, offset: 0xE684F, size: 0x8, addend: 0x0, symName: '__ZN5gimli4read4unit18Attribute$LT$R$GT$5value17hb3a3a1d0d3843921E', symObjAddr: 0x19270, symBinAddr: 0x1000697A0, symSize: 0x810 }
  - { offsetInCU: 0x5F248, offset: 0xE6D84, size: 0x8, addend: 0x0, symName: '__ZN5gimli4read4unit22EntriesCursor$LT$R$GT$10next_entry17hcb0a839aa63ff658E', symObjAddr: 0x19A80, symBinAddr: 0x100069FB0, symSize: 0x350 }
  - { offsetInCU: 0x5F7AC, offset: 0xE72E8, size: 0x8, addend: 0x0, symName: '__ZN5gimli4read4unit33DebugInfoUnitHeadersIter$LT$R$GT$4next17h32df442407d963e3E', symObjAddr: 0x19E50, symBinAddr: 0x10006A380, symSize: 0x600 }
  - { offsetInCU: 0x609E1, offset: 0xE851D, size: 0x8, addend: 0x0, symName: '__ZN90_$LT$gimli..read..unit..AttributeValue$LT$R$C$Offset$GT$$u20$as$u20$core..clone..Clone$GT$5clone17h26b89df82d70d509E', symObjAddr: 0x1F680, symBinAddr: 0x10006F740, symSize: 0x120 }
  - { offsetInCU: 0x60C0B, offset: 0xE8747, size: 0x8, addend: 0x0, symName: __ZN5gimli4read6reader6Reader11read_offset17h7e80abe32b9662a5E, symObjAddr: 0x1D830, symBinAddr: 0x10006DD60, symSize: 0xB0 }
  - { offsetInCU: 0x60E70, offset: 0xE89AC, size: 0x8, addend: 0x0, symName: __ZN5gimli4read6reader6Reader12read_uleb12817h4ba34c89a0f4e49bE, symObjAddr: 0x1D8E0, symBinAddr: 0x10006DE10, symSize: 0xB0 }
  - { offsetInCU: 0x60F1B, offset: 0xE8A57, size: 0x8, addend: 0x0, symName: __ZN5gimli4read6reader6Reader17read_sized_offset17h2d0659fa8369884cE, symObjAddr: 0x1D990, symBinAddr: 0x10006DEC0, symSize: 0x130 }
  - { offsetInCU: 0x61393, offset: 0xE8ECF, size: 0x8, addend: 0x0, symName: __ZN5gimli4read4line13parse_file_v517h00102d4450b26936E, symObjAddr: 0x15D20, symBinAddr: 0x100066250, symSize: 0x2E0 }
  - { offsetInCU: 0x61508, offset: 0xE9044, size: 0x8, addend: 0x0, symName: __ZN5gimli4read4line15FileEntryFormat5parse17hd09e7e12b3a83a4eE, symObjAddr: 0x16000, symBinAddr: 0x100066530, symSize: 0x3A0 }
  - { offsetInCU: 0x61CCE, offset: 0xE980A, size: 0x8, addend: 0x0, symName: __ZN5gimli4read4line15parse_attribute17h13a52bf6f5b6c965E, symObjAddr: 0x163A0, symBinAddr: 0x1000668D0, symSize: 0xAC0 }
  - { offsetInCU: 0x6384C, offset: 0xEB388, size: 0x8, addend: 0x0, symName: __ZN5gimli4read4line18parse_directory_v517h00bba0525c5798feE, symObjAddr: 0x16E60, symBinAddr: 0x100067390, symSize: 0x110 }
  - { offsetInCU: 0x638C5, offset: 0xEB401, size: 0x8, addend: 0x0, symName: '__ZN5gimli4read4line27FileEntry$LT$R$C$Offset$GT$5parse17hcd4749b4839ce183E', symObjAddr: 0x16F70, symBinAddr: 0x1000674A0, symSize: 0x250 }
  - { offsetInCU: 0x63B90, offset: 0xEB6CC, size: 0x8, addend: 0x0, symName: '__ZN93_$LT$gimli..read..line..LineProgramHeader$LT$R$C$Offset$GT$$u20$as$u20$core..clone..Clone$GT$5clone17h1fac362afd052016E', symObjAddr: 0x1F7A0, symBinAddr: 0x10006F860, symSize: 0x5C0 }
  - { offsetInCU: 0x645F9, offset: 0xEC135, size: 0x8, addend: 0x0, symName: '__ZN5gimli4read5dwarf14Dwarf$LT$R$GT$11attr_string17haadd54a0e6e81ebbE', symObjAddr: 0x1CC80, symBinAddr: 0x10006D1B0, symSize: 0x210 }
  - { offsetInCU: 0x64E77, offset: 0xEC9B3, size: 0x8, addend: 0x0, symName: '__ZN5gimli4read5dwarf13Unit$LT$R$GT$3new17h7b5b7e892a6b53baE', symObjAddr: 0x1A450, symBinAddr: 0x10006A980, symSize: 0x2830 }
  - { offsetInCU: 0x686A5, offset: 0xF01E1, size: 0x8, addend: 0x0, symName: '__ZN5gimli4read5index18UnitIndex$LT$R$GT$5parse17h7e148d1862301c26E', symObjAddr: 0x1CE90, symBinAddr: 0x10006D3C0, symSize: 0x9A0 }
  - { offsetInCU: 0x686C2, offset: 0xF01FE, size: 0x8, addend: 0x0, symName: '__ZN5gimli4read5index18UnitIndex$LT$R$GT$5parse17h7e148d1862301c26E', symObjAddr: 0x1CE90, symBinAddr: 0x10006D3C0, symSize: 0x9A0 }
  - { offsetInCU: 0x686D6, offset: 0xF0212, size: 0x8, addend: 0x0, symName: '__ZN5gimli4read5index18UnitIndex$LT$R$GT$5parse17h7e148d1862301c26E', symObjAddr: 0x1CE90, symBinAddr: 0x10006D3C0, symSize: 0x9A0 }
  - { offsetInCU: 0x68C3D, offset: 0xF0779, size: 0x8, addend: 0x0, symName: '__ZN5gimli4read7aranges30ArangeHeader$LT$R$C$Offset$GT$5parse17hb555810ff3d7c330E', symObjAddr: 0x1DAC0, symBinAddr: 0x10006DFF0, symSize: 0x2A0 }
  - { offsetInCU: 0x694CB, offset: 0xF1007, size: 0x8, addend: 0x0, symName: '__ZN5gimli4read8rnglists20RngListIter$LT$R$GT$4next17h289733bca08e128fE', symObjAddr: 0x1DD60, symBinAddr: 0x10006E290, symSize: 0x1000 }
  - { offsetInCU: 0x6C04E, offset: 0xF3B8A, size: 0x8, addend: 0x0, symName: '__ZN9addr2line8function17Function$LT$R$GT$14parse_children17hbb65783bd45d2861E', symObjAddr: 0x250C0, symBinAddr: 0x100075090, symSize: 0x1630 }
  - { offsetInCU: 0x6D298, offset: 0xF4DD4, size: 0x8, addend: 0x0, symName: __ZN9addr2line8function10name_entry17hc2b582ece92caa7aE, symObjAddr: 0x24C80, symBinAddr: 0x100074C50, symSize: 0x440 }
  - { offsetInCU: 0x6D6C2, offset: 0xF51FE, size: 0x8, addend: 0x0, symName: __ZN9addr2line8function9name_attr17hc96fb7a92795daf9E, symObjAddr: 0x266F0, symBinAddr: 0x1000766C0, symSize: 0x1B0 }
  - { offsetInCU: 0x6D8BA, offset: 0xF53F6, size: 0x8, addend: 0x0, symName: __ZN9addr2line11render_file17h5517ef64accc5d43E, symObjAddr: 0x1FE50, symBinAddr: 0x10006FE20, symSize: 0x6B0 }
  - { offsetInCU: 0x6E065, offset: 0xF5BA1, size: 0x8, addend: 0x0, symName: '__ZN9addr2line16Context$LT$R$GT$9find_unit17hd9fd8439b7d6087eE', symObjAddr: 0x20500, symBinAddr: 0x1000704D0, symSize: 0x150 }
  - { offsetInCU: 0x6E318, offset: 0xF5E54, size: 0x8, addend: 0x0, symName: '__ZN9addr2line16ResUnit$LT$R$GT$25find_function_or_location17h07e609037f3ea598E', symObjAddr: 0x20650, symBinAddr: 0x100070620, symSize: 0x560 }
  - { offsetInCU: 0x6E6F6, offset: 0xF6232, size: 0x8, addend: 0x0, symName: '__ZN9addr2line16ResUnit$LT$R$GT$25find_function_or_location28_$u7b$$u7b$closure$u7d$$u7d$17hee587d2ae9be3845E', symObjAddr: 0x20BB0, symBinAddr: 0x100070B80, symSize: 0x1CD0 }
  - { offsetInCU: 0x7101F, offset: 0xF8B5B, size: 0x8, addend: 0x0, symName: '__ZN9addr2line18FrameIter$LT$R$GT$4next17h45f956316232ee2fE', symObjAddr: 0x22880, symBinAddr: 0x100072850, symSize: 0x400 }
  - { offsetInCU: 0x71505, offset: 0xF9041, size: 0x8, addend: 0x0, symName: '__ZN9addr2line30LoopingLookup$LT$T$C$L$C$F$GT$10new_lookup17h74c847bef191747eE', symObjAddr: 0x22C80, symBinAddr: 0x100072C50, symSize: 0x520 }
  - { offsetInCU: 0x719A6, offset: 0xF94E2, size: 0x8, addend: 0x0, symName: __ZN9addr2line5Lines5parse17hba10f936c372d0e0E, symObjAddr: 0x231A0, symBinAddr: 0x100073170, symSize: 0x1AE0 }
  - { offsetInCU: 0x74404, offset: 0xFBF40, size: 0x8, addend: 0x0, symName: __ZN6object4read7archive13ArchiveMember5parse17h9773f219fabef87fE, symObjAddr: 0x1F1E0, symBinAddr: 0x10006F300, symSize: 0x360 }
  - { offsetInCU: 0x74A34, offset: 0xFC570, size: 0x8, addend: 0x0, symName: __ZN6object4read7archive23parse_bsd_extended_name17hcb481cad095c5149E, symObjAddr: 0x1F540, symBinAddr: 0x10006F660, symSize: 0xA0 }
  - { offsetInCU: 0x1E, offset: 0xFCC3E, size: 0x8, addend: 0x0, symName: '__ZN4core3ptr49drop_in_place$LT$panic_unwind..imp..Exception$GT$17h7cb1f70ba27daa8aE', symObjAddr: 0x0, symBinAddr: 0x10008DB30, symSize: 0x70 }
  - { offsetInCU: 0x42, offset: 0xFCC62, size: 0x8, addend: 0x0, symName: '__ZN4core3ptr49drop_in_place$LT$panic_unwind..imp..Exception$GT$17h7cb1f70ba27daa8aE', symObjAddr: 0x0, symBinAddr: 0x10008DB30, symSize: 0x70 }
  - { offsetInCU: 0x145, offset: 0xFCD65, size: 0x8, addend: 0x0, symName: '__ZN4core3ptr74drop_in_place$LT$alloc..boxed..Box$LT$panic_unwind..imp..Exception$GT$$GT$17hd08adefcc1143184E', symObjAddr: 0x70, symBinAddr: 0x10008DBA0, symSize: 0x90 }
  - { offsetInCU: 0x402, offset: 0xFD022, size: 0x8, addend: 0x0, symName: __ZN12panic_unwind3imp5panic17exception_cleanup17hd6ad6022d0a6ffe7E, symObjAddr: 0x200, symBinAddr: 0x10008DD30, symSize: 0x16 }
  - { offsetInCU: 0x41D, offset: 0xFD03D, size: 0x8, addend: 0x0, symName: ___rust_panic_cleanup, symObjAddr: 0x100, symBinAddr: 0x10008DC30, symSize: 0x50 }
  - { offsetInCU: 0x493, offset: 0xFD0B3, size: 0x8, addend: 0x0, symName: ___rust_start_panic, symObjAddr: 0x150, symBinAddr: 0x10008DC80, symSize: 0xB0 }
  - { offsetInCU: 0x176, offset: 0xFD2C4, size: 0x8, addend: 0x0, symName: __ZN6memchr6memchr3x864sse26memchr17h1c3f8a3b85e5e51bE, symObjAddr: 0x8F0, symBinAddr: 0x10008E050, symSize: 0x1C0 }
  - { offsetInCU: 0x18D, offset: 0xFD2DB, size: 0x8, addend: 0x0, symName: __ZN6memchr6memchr3x864sse26memchr17h1c3f8a3b85e5e51bE, symObjAddr: 0x8F0, symBinAddr: 0x10008E050, symSize: 0x1C0 }
  - { offsetInCU: 0x49B, offset: 0xFD5E9, size: 0x8, addend: 0x0, symName: __ZN6memchr6memchr3x864sse27memchr217h2270963e261333a1E, symObjAddr: 0xAB0, symBinAddr: 0x10008E210, symSize: 0x1F0 }
  - { offsetInCU: 0x4B8, offset: 0xFD606, size: 0x8, addend: 0x0, symName: __ZN6memchr6memchr3x864sse27memchr217h2270963e261333a1E, symObjAddr: 0xAB0, symBinAddr: 0x10008E210, symSize: 0x1F0 }
  - { offsetInCU: 0x1E, offset: 0xFD95B, size: 0x8, addend: 0x0, symName: __ZN9hashbrown3raw11Fallibility17capacity_overflow17hd4e9ded7f222eebaE, symObjAddr: 0x0, symBinAddr: 0x100096B40, symSize: 0x50 }
  - { offsetInCU: 0x59, offset: 0xFD996, size: 0x8, addend: 0x0, symName: __ZN9hashbrown3raw11Fallibility17capacity_overflow17hd4e9ded7f222eebaE, symObjAddr: 0x0, symBinAddr: 0x100096B40, symSize: 0x50 }
  - { offsetInCU: 0x87, offset: 0xFD9C4, size: 0x8, addend: 0x0, symName: __ZN9hashbrown3raw11Fallibility9alloc_err17h1b85c99cbebac136E, symObjAddr: 0x50, symBinAddr: 0x100096B90, symSize: 0x20 }
  - { offsetInCU: 0x52, offset: 0xFDA32, size: 0x8, addend: 0x0, symName: __ZN4core3fmt5Write9write_fmt17h1b2defdef86f2e6bE, symObjAddr: 0x20, symBinAddr: 0x100096BB0, symSize: 0x20 }
  - { offsetInCU: 0x92, offset: 0xFDA72, size: 0x8, addend: 0x0, symName: '__ZN53_$LT$core..fmt..Error$u20$as$u20$core..fmt..Debug$GT$3fmt17h03dc662ab152f3aeE', symObjAddr: 0xC0, symBinAddr: 0x100096BF0, symSize: 0x20 }
  - { offsetInCU: 0x106, offset: 0xFDAE6, size: 0x8, addend: 0x0, symName: '__ZN4core3ptr42drop_in_place$LT$alloc..string..String$GT$17h61f13859bd1ac9a5E', symObjAddr: 0x60, symBinAddr: 0x100096BD0, symSize: 0x20 }
  - { offsetInCU: 0x205, offset: 0xFDBE5, size: 0x8, addend: 0x0, symName: '__ZN69_$LT$core..alloc..layout..LayoutError$u20$as$u20$core..fmt..Debug$GT$3fmt17h954ec1b18e5120d2E', symObjAddr: 0xE0, symBinAddr: 0x100096C10, symSize: 0x20 }
  - { offsetInCU: 0x5B2, offset: 0xFDF92, size: 0x8, addend: 0x0, symName: '__ZN5alloc7raw_vec19RawVec$LT$T$C$A$GT$8grow_one17he6f4182565c06affE', symObjAddr: 0x1F0, symBinAddr: 0x100096C80, symSize: 0xA0 }
  - { offsetInCU: 0x805, offset: 0xFE1E5, size: 0x8, addend: 0x0, symName: __ZN5alloc7raw_vec17capacity_overflow17hd5f476d0f4b04237E, symObjAddr: 0x100, symBinAddr: 0x100096C30, symSize: 0x50 }
  - { offsetInCU: 0x83D, offset: 0xFE21D, size: 0x8, addend: 0x0, symName: '__ZN5alloc7raw_vec19RawVec$LT$T$C$A$GT$7reserve21do_reserve_and_handle17h8390814197170b81E', symObjAddr: 0x150, symBinAddr: 0x1000A4850, symSize: 0xA0 }
  - { offsetInCU: 0x959, offset: 0xFE339, size: 0x8, addend: 0x0, symName: __ZN5alloc7raw_vec11finish_grow17hac7a643019d04e69E, symObjAddr: 0x290, symBinAddr: 0x100096D20, symSize: 0xA0 }
  - { offsetInCU: 0x9BE, offset: 0xFE39E, size: 0x8, addend: 0x0, symName: __ZN5alloc7raw_vec12handle_error17h19d8d109ef215ad1E, symObjAddr: 0x330, symBinAddr: 0x1000A48F0, symSize: 0x20 }
  - { offsetInCU: 0xA8A, offset: 0xFE46A, size: 0x8, addend: 0x0, symName: __ZN5alloc5alloc18handle_alloc_error17h8a695ff0459568c7E, symObjAddr: 0x350, symBinAddr: 0x1000A4910, symSize: 0x20 }
  - { offsetInCU: 0xB10, offset: 0xFE4F0, size: 0x8, addend: 0x0, symName: '__ZN93_$LT$alloc..collections..btree..mem..replace..PanicGuard$u20$as$u20$core..ops..drop..Drop$GT$4drop17h76cb43db49f7bda9E', symObjAddr: 0xD20, symBinAddr: 0x100096E10, symSize: 0x10 }
  - { offsetInCU: 0xB42, offset: 0xFE522, size: 0x8, addend: 0x0, symName: '__ZN223_$LT$$LT$alloc..boxed..Box$LT$dyn$u20$core..error..Error$u2b$core..marker..Sync$u2b$core..marker..Send$GT$$u20$as$u20$core..convert..From$LT$alloc..string..String$GT$$GT$..from..StringError$u20$as$u20$core..error..Error$GT$11description17h38ae18cb367ffa3eE', symObjAddr: 0x500, symBinAddr: 0x100096DC0, symSize: 0x10 }
  - { offsetInCU: 0xBBA, offset: 0xFE59A, size: 0x8, addend: 0x0, symName: '__ZN223_$LT$$LT$alloc..boxed..Box$LT$dyn$u20$core..error..Error$u2b$core..marker..Sync$u2b$core..marker..Send$GT$$u20$as$u20$core..convert..From$LT$alloc..string..String$GT$$GT$..from..StringError$u20$as$u20$core..fmt..Display$GT$3fmt17heef959a9ca276fbfE', symObjAddr: 0x510, symBinAddr: 0x100096DD0, symSize: 0x20 }
  - { offsetInCU: 0xC48, offset: 0xFE628, size: 0x8, addend: 0x0, symName: '__ZN221_$LT$$LT$alloc..boxed..Box$LT$dyn$u20$core..error..Error$u2b$core..marker..Sync$u2b$core..marker..Send$GT$$u20$as$u20$core..convert..From$LT$alloc..string..String$GT$$GT$..from..StringError$u20$as$u20$core..fmt..Debug$GT$3fmt17h3cce02918b110df9E', symObjAddr: 0x530, symBinAddr: 0x100096DF0, symSize: 0x20 }
  - { offsetInCU: 0xEBD, offset: 0xFE89D, size: 0x8, addend: 0x0, symName: '__ZN5alloc3vec16Vec$LT$T$C$A$GT$6remove13assert_failed17h7abfd80728ac5d7cE', symObjAddr: 0x55F0, symBinAddr: 0x1000A4930, symSize: 0x70 }
  - { offsetInCU: 0xF59, offset: 0xFE939, size: 0x8, addend: 0x0, symName: '__ZN98_$LT$alloc..string..String$u20$as$u20$core..convert..From$LT$alloc..borrow..Cow$LT$str$GT$$GT$$GT$4from17hec4993baf6aa823bE', symObjAddr: 0x5140, symBinAddr: 0x100097690, symSize: 0xB0 }
  - { offsetInCU: 0x10D5, offset: 0xFEAB5, size: 0x8, addend: 0x0, symName: __ZN5alloc6string6String15from_utf8_lossy17he3705d0cc87192c3E, symObjAddr: 0x3390, symBinAddr: 0x1000973B0, symSize: 0x250 }
  - { offsetInCU: 0x162B, offset: 0xFF00B, size: 0x8, addend: 0x0, symName: '__ZN60_$LT$alloc..string..String$u20$as$u20$core..clone..Clone$GT$5clone17hde423967ac997fe2E', symObjAddr: 0x4C50, symBinAddr: 0x100097600, symSize: 0x90 }
  - { offsetInCU: 0x1730, offset: 0xFF110, size: 0x8, addend: 0x0, symName: '__ZN58_$LT$alloc..string..String$u20$as$u20$core..fmt..Write$GT$9write_str17h46a93205c3443fbaE', symObjAddr: 0x51F0, symBinAddr: 0x100097740, symSize: 0x60 }
  - { offsetInCU: 0x1815, offset: 0xFF1F5, size: 0x8, addend: 0x0, symName: '__ZN58_$LT$alloc..string..String$u20$as$u20$core..fmt..Write$GT$10write_char17h04bc467bd68a934bE', symObjAddr: 0x5250, symBinAddr: 0x1000977A0, symSize: 0x140 }
  - { offsetInCU: 0x1A55, offset: 0xFF435, size: 0x8, addend: 0x0, symName: '__ZN5alloc3str21_$LT$impl$u20$str$GT$6repeat17he30b238a2ec30820E', symObjAddr: 0x3200, symBinAddr: 0x100097220, symSize: 0x190 }
  - { offsetInCU: 0x1D4F, offset: 0xFF72F, size: 0x8, addend: 0x0, symName: '__ZN72_$LT$$RF$str$u20$as$u20$alloc..ffi..c_str..CString..new..SpecNewImpl$GT$13spec_new_impl17h0cf21b87e1c8da06E', symObjAddr: 0xDA0, symBinAddr: 0x100096E20, symSize: 0x0 }
  - { offsetInCU: 0x1F52, offset: 0xFF932, size: 0x8, addend: 0x0, symName: __ZN5alloc3ffi5c_str7CString19_from_vec_unchecked17h3b0136e31afee425E, symObjAddr: 0x1030, symBinAddr: 0x100096F50, symSize: 0x120 }
  - { offsetInCU: 0x220F, offset: 0xFFBEF, size: 0x8, addend: 0x0, symName: __ZN5alloc3fmt6format12format_inner17hb1e808122341bcd9E, symObjAddr: 0x1840, symBinAddr: 0x100097070, symSize: 0x1B0 }
  - { offsetInCU: 0x2430, offset: 0xFFE10, size: 0x8, addend: 0x0, symName: __ZN5alloc4sync32arcinner_layout_for_value_layout17hbeb03db793229b3bE, symObjAddr: 0x54A0, symBinAddr: 0x1000978E0, symSize: 0x70 }
  - { offsetInCU: 0x244E, offset: 0xFFE2E, size: 0x8, addend: 0x0, symName: __ZN5alloc4sync32arcinner_layout_for_value_layout17hbeb03db793229b3bE, symObjAddr: 0x54A0, symBinAddr: 0x1000978E0, symSize: 0x70 }
  - { offsetInCU: 0x2463, offset: 0xFFE43, size: 0x8, addend: 0x0, symName: __ZN5alloc4sync32arcinner_layout_for_value_layout17hbeb03db793229b3bE, symObjAddr: 0x54A0, symBinAddr: 0x1000978E0, symSize: 0x70 }
  - { offsetInCU: 0x2478, offset: 0xFFE58, size: 0x8, addend: 0x0, symName: __ZN5alloc4sync32arcinner_layout_for_value_layout17hbeb03db793229b3bE, symObjAddr: 0x54A0, symBinAddr: 0x1000978E0, symSize: 0x70 }
  - { offsetInCU: 0x248D, offset: 0xFFE6D, size: 0x8, addend: 0x0, symName: __ZN5alloc4sync32arcinner_layout_for_value_layout17hbeb03db793229b3bE, symObjAddr: 0x54A0, symBinAddr: 0x1000978E0, symSize: 0x70 }
  - { offsetInCU: 0x1D3, offset: 0x10012C, size: 0x8, addend: 0x0, symName: '__ZN42_$LT$str$u20$as$u20$core..fmt..Display$GT$3fmt17h0fda321badf74e6aE', symObjAddr: 0xE5A0, symBinAddr: 0x10009DA80, symSize: 0x20 }
  - { offsetInCU: 0x27B, offset: 0x1001D4, size: 0x8, addend: 0x0, symName: __ZN4core3fmt9Formatter12pad_integral17h8972ffd3c8b0cfc1E, symObjAddr: 0xC730, symBinAddr: 0x10009C4B0, symSize: 0x4D0 }
  - { offsetInCU: 0x535, offset: 0x10048E, size: 0x8, addend: 0x0, symName: __ZN4core3fmt9Formatter3pad17h1cd3f01fe2fd2736E, symObjAddr: 0xCC60, symBinAddr: 0x10009C9E0, symSize: 0x3F0 }
  - { offsetInCU: 0x970, offset: 0x1008C9, size: 0x8, addend: 0x0, symName: __ZN4core3fmt9Formatter19pad_formatted_parts17h1663ed50fa0d24f8E, symObjAddr: 0xD050, symBinAddr: 0x10009CDD0, symSize: 0x250 }
  - { offsetInCU: 0xAD2, offset: 0x100A2B, size: 0x8, addend: 0x0, symName: __ZN4core3fmt9Formatter21write_formatted_parts17h427f39e4001f7bc4E, symObjAddr: 0xD2A0, symBinAddr: 0x10009D020, symSize: 0x260 }
  - { offsetInCU: 0xBC2, offset: 0x100B1B, size: 0x8, addend: 0x0, symName: __ZN4core3fmt9Formatter9write_str17h0118ad48afc9d895E, symObjAddr: 0xD500, symBinAddr: 0x10009D280, symSize: 0x0 }
  - { offsetInCU: 0xBD5, offset: 0x100B2E, size: 0x8, addend: 0x0, symName: __ZN4core3fmt9Formatter12debug_struct17he2ba4147cf3f70c3E, symObjAddr: 0xD520, symBinAddr: 0x10009D2A0, symSize: 0x40 }
  - { offsetInCU: 0xC13, offset: 0x100B6C, size: 0x8, addend: 0x0, symName: __ZN4core3fmt9Formatter26debug_struct_field1_finish17hb39d7b9a28168dcfE, symObjAddr: 0xD560, symBinAddr: 0x10009D2E0, symSize: 0xB0 }
  - { offsetInCU: 0xCE8, offset: 0x100C41, size: 0x8, addend: 0x0, symName: __ZN4core3fmt9Formatter26debug_struct_field2_finish17hc06f7d961bd659acE, symObjAddr: 0xD610, symBinAddr: 0x10009D390, symSize: 0xD0 }
  - { offsetInCU: 0xDBD, offset: 0x100D16, size: 0x8, addend: 0x0, symName: __ZN4core3fmt9Formatter11debug_tuple17hc8eb609d0a1a39baE, symObjAddr: 0xDAE0, symBinAddr: 0x10009D460, symSize: 0x50 }
  - { offsetInCU: 0xE18, offset: 0x100D71, size: 0x8, addend: 0x0, symName: __ZN4core3fmt9Formatter25debug_tuple_field1_finish17ha8c77f5d0334b7adE, symObjAddr: 0xDB30, symBinAddr: 0x10009D4B0, symSize: 0xD0 }
  - { offsetInCU: 0xEE4, offset: 0x100E3D, size: 0x8, addend: 0x0, symName: __ZN4core3fmt9Formatter25debug_tuple_field2_finish17ha9ef3726479f8c68E, symObjAddr: 0xDC00, symBinAddr: 0x10009D580, symSize: 0xE0 }
  - { offsetInCU: 0xFB0, offset: 0x100F09, size: 0x8, addend: 0x0, symName: __ZN4core3fmt9Formatter10debug_list17h06e79a079c85ca53E, symObjAddr: 0xE0E0, symBinAddr: 0x10009D660, symSize: 0x40 }
  - { offsetInCU: 0x1076, offset: 0x100FCF, size: 0x8, addend: 0x0, symName: __ZN4core3fmt8builders11DebugStruct5field17h0ffe8fbe02645e65E, symObjAddr: 0x9620, symBinAddr: 0x10009B570, symSize: 0x1B0 }
  - { offsetInCU: 0x1281, offset: 0x1011DA, size: 0x8, addend: 0x0, symName: __ZN4core3fmt8builders11DebugStruct21finish_non_exhaustive17hc4af8c553b814bedE, symObjAddr: 0x97D0, symBinAddr: 0x10009B720, symSize: 0xB0 }
  - { offsetInCU: 0x138F, offset: 0x1012E8, size: 0x8, addend: 0x0, symName: __ZN4core3fmt8builders11DebugStruct6finish17hee2e7ea1f7b53a47E, symObjAddr: 0x9880, symBinAddr: 0x10009B7D0, symSize: 0x60 }
  - { offsetInCU: 0x149B, offset: 0x1013F4, size: 0x8, addend: 0x0, symName: '__ZN68_$LT$core..fmt..builders..PadAdapter$u20$as$u20$core..fmt..Write$GT$9write_str17hccc2b902801ed8d2E', symObjAddr: 0x9340, symBinAddr: 0x10009B290, symSize: 0x280 }
  - { offsetInCU: 0x16D1, offset: 0x10162A, size: 0x8, addend: 0x0, symName: '__ZN68_$LT$core..fmt..builders..PadAdapter$u20$as$u20$core..fmt..Write$GT$10write_char17h0f9dfee2e64bcd77E', symObjAddr: 0x95C0, symBinAddr: 0x10009B510, symSize: 0x60 }
  - { offsetInCU: 0x1755, offset: 0x1016AE, size: 0x8, addend: 0x0, symName: __ZN4core3fmt8builders10DebugTuple5field17h008439c0ac16da21E, symObjAddr: 0x98E0, symBinAddr: 0x10009B830, symSize: 0x150 }
  - { offsetInCU: 0x18DC, offset: 0x101835, size: 0x8, addend: 0x0, symName: __ZN4core3fmt8builders10DebugTuple6finish17h09b759d26efe9a66E, symObjAddr: 0x9A30, symBinAddr: 0x10009B980, symSize: 0x90 }
  - { offsetInCU: 0x1A14, offset: 0x10196D, size: 0x8, addend: 0x0, symName: __ZN4core3fmt8builders8DebugSet5entry17h2d024717e11579e0E, symObjAddr: 0x9AC0, symBinAddr: 0x10009BA10, symSize: 0x0 }
  - { offsetInCU: 0x1BBD, offset: 0x101B16, size: 0x8, addend: 0x0, symName: __ZN4core3fmt8builders9DebugList6finish17ha8368efce69978bfE, symObjAddr: 0x9C40, symBinAddr: 0x10009BB50, symSize: 0x40 }
  - { offsetInCU: 0x1C45, offset: 0x101B9E, size: 0x8, addend: 0x0, symName: '__ZN57_$LT$core..fmt..Formatter$u20$as$u20$core..fmt..Write$GT$10write_char17h707d6fad029c4630E', symObjAddr: 0xE1A0, symBinAddr: 0x10009D6A0, symSize: 0x20 }
  - { offsetInCU: 0x1C76, offset: 0x101BCF, size: 0x8, addend: 0x0, symName: __ZN4core3fmt5Write9write_fmt17h5d296d7037892cbdE, symObjAddr: 0xC4D0, symBinAddr: 0x10009C270, symSize: 0x20 }
  - { offsetInCU: 0x1CF3, offset: 0x101C4C, size: 0x8, addend: 0x0, symName: '__ZN43_$LT$bool$u20$as$u20$core..fmt..Display$GT$3fmt17h31f488741a9d3280E', symObjAddr: 0xE1E0, symBinAddr: 0x10009D6C0, symSize: 0x40 }
  - { offsetInCU: 0x1D44, offset: 0x101C9D, size: 0x8, addend: 0x0, symName: __ZN4core3fmt5float29float_to_decimal_common_exact17h7028a19133db3547E, symObjAddr: 0x9FE0, symBinAddr: 0x10009BB90, symSize: 0x3F0 }
  - { offsetInCU: 0x1E30, offset: 0x101D89, size: 0x8, addend: 0x0, symName: __ZN4core3fmt5float32float_to_decimal_common_shortest17h199f733c9f12a84aE, symObjAddr: 0xA7B0, symBinAddr: 0x10009BF80, symSize: 0x2F0 }
  - { offsetInCU: 0x1F18, offset: 0x101E71, size: 0x8, addend: 0x0, symName: '__ZN4core3fmt5float52_$LT$impl$u20$core..fmt..Display$u20$for$u20$f64$GT$3fmt17hc3f3587c28eb6890E', symObjAddr: 0x19990, symBinAddr: 0x1000A0FA0, symSize: 0x40 }
  - { offsetInCU: 0x203D, offset: 0x101F96, size: 0x8, addend: 0x0, symName: '__ZN4core3fmt3num3imp51_$LT$impl$u20$core..fmt..Display$u20$for$u20$u8$GT$3fmt17hd78e8ef4f3cd9c45E', symObjAddr: 0x1B0C0, symBinAddr: 0x1000A1A00, symSize: 0x90 }
  - { offsetInCU: 0x20E1, offset: 0x10203A, size: 0x8, addend: 0x0, symName: '__ZN4core3fmt3num3imp52_$LT$impl$u20$core..fmt..Display$u20$for$u20$i32$GT$3fmt17h489d415102b22552E', symObjAddr: 0x1B340, symBinAddr: 0x1000A1A90, symSize: 0x130 }
  - { offsetInCU: 0x2184, offset: 0x1020DD, size: 0x8, addend: 0x0, symName: '__ZN4core3fmt3num3imp52_$LT$impl$u20$core..fmt..Display$u20$for$u20$u32$GT$3fmt17hc40b7317ea9c81d1E', symObjAddr: 0x1B470, symBinAddr: 0x1000A1BC0, symSize: 0x120 }
  - { offsetInCU: 0x2227, offset: 0x102180, size: 0x8, addend: 0x0, symName: '__ZN4core3fmt3num3imp52_$LT$impl$u20$core..fmt..Display$u20$for$u20$u64$GT$3fmt17h2e9b6424619279b2E', symObjAddr: 0x1B6C0, symBinAddr: 0x1000A1CE0, symSize: 0x0 }
  - { offsetInCU: 0x22DD, offset: 0x102236, size: 0x8, addend: 0x0, symName: '__ZN4core3fmt3num52_$LT$impl$u20$core..fmt..LowerHex$u20$for$u20$i8$GT$3fmt17h03e3df9ac0fd0464E', symObjAddr: 0x19D70, symBinAddr: 0x1000A0FE0, symSize: 0x0 }
  - { offsetInCU: 0x2451, offset: 0x1023AA, size: 0x8, addend: 0x0, symName: '__ZN4core3fmt3num52_$LT$impl$u20$core..fmt..UpperHex$u20$for$u20$i8$GT$3fmt17h6f0bde4771b4f009E', symObjAddr: 0x19E10, symBinAddr: 0x1000A1080, symSize: 0x0 }
  - { offsetInCU: 0x25E9, offset: 0x102542, size: 0x8, addend: 0x0, symName: '__ZN4core3fmt3num53_$LT$impl$u20$core..fmt..LowerHex$u20$for$u20$i32$GT$3fmt17hee7d14134452d6d7E', symObjAddr: 0x1A210, symBinAddr: 0x1000A1230, symSize: 0x0 }
  - { offsetInCU: 0x2777, offset: 0x1026D0, size: 0x8, addend: 0x0, symName: '__ZN4core3fmt3num53_$LT$impl$u20$core..fmt..UpperHex$u20$for$u20$i32$GT$3fmt17hbfc0f68a02be4ca1E', symObjAddr: 0x1A2B0, symBinAddr: 0x1000A12D0, symSize: 0x0 }
  - { offsetInCU: 0x28F3, offset: 0x10284C, size: 0x8, addend: 0x0, symName: '__ZN4core3fmt3num53_$LT$impl$u20$core..fmt..LowerHex$u20$for$u20$i64$GT$3fmt17hbd90a137258b6cb9E', symObjAddr: 0x1A470, symBinAddr: 0x1000A1370, symSize: 0x0 }
  - { offsetInCU: 0x2A81, offset: 0x1029DA, size: 0x8, addend: 0x0, symName: '__ZN4core3fmt3num53_$LT$impl$u20$core..fmt..UpperHex$u20$for$u20$i64$GT$3fmt17h62eb0ff735ecf1a0E', symObjAddr: 0x1A510, symBinAddr: 0x1000A1410, symSize: 0x0 }
  - { offsetInCU: 0x2BFD, offset: 0x102B56, size: 0x8, addend: 0x0, symName: '__ZN4core3fmt3num54_$LT$impl$u20$core..fmt..LowerHex$u20$for$u20$i128$GT$3fmt17hba6728e3893e36d6E', symObjAddr: 0x1A7B0, symBinAddr: 0x1000A14B0, symSize: 0x0 }
  - { offsetInCU: 0x2DCC, offset: 0x102D25, size: 0x8, addend: 0x0, symName: '__ZN4core3fmt3num50_$LT$impl$u20$core..fmt..Octal$u20$for$u20$i16$GT$3fmt17h74072952f83d5279E', symObjAddr: 0x19F40, symBinAddr: 0x1000A1120, symSize: 0x0 }
  - { offsetInCU: 0x2F42, offset: 0x102E9B, size: 0x8, addend: 0x0, symName: '__ZN4core3fmt3num50_$LT$impl$u20$core..fmt..Octal$u20$for$u20$i32$GT$3fmt17h8c883a3e0499980dE', symObjAddr: 0x1A190, symBinAddr: 0x1000A11B0, symSize: 0x0 }
  - { offsetInCU: 0x30DC, offset: 0x103035, size: 0x8, addend: 0x0, symName: '__ZN4core3fmt3num50_$LT$impl$u20$core..fmt..Debug$u20$for$u20$u64$GT$3fmt17hc08ec89d5e7c36c7E', symObjAddr: 0x1ABE0, symBinAddr: 0x1000A15C0, symSize: 0x220 }
  - { offsetInCU: 0x343B, offset: 0x103394, size: 0x8, addend: 0x0, symName: '__ZN4core3fmt3num52_$LT$impl$u20$core..fmt..Debug$u20$for$u20$usize$GT$3fmt17h9e5c63f85393f427E', symObjAddr: 0x1AE00, symBinAddr: 0x1000A17E0, symSize: 0x220 }
  - { offsetInCU: 0x3796, offset: 0x1036EF, size: 0x8, addend: 0x0, symName: '__ZN59_$LT$core..fmt..Arguments$u20$as$u20$core..fmt..Display$GT$3fmt17h73b8fbb663c88c51E', symObjAddr: 0xC510, symBinAddr: 0x10009C290, symSize: 0x20 }
  - { offsetInCU: 0x37C4, offset: 0x10371D, size: 0x8, addend: 0x0, symName: __ZN4core3fmt5write17hace734add356d1f2E, symObjAddr: 0xC530, symBinAddr: 0x10009C2B0, symSize: 0x200 }
  - { offsetInCU: 0x39BB, offset: 0x103914, size: 0x8, addend: 0x0, symName: __ZN4core3fmt9Formatter12pad_integral12write_prefix17h09b544bef0610067E, symObjAddr: 0xCC00, symBinAddr: 0x10009C980, symSize: 0x60 }
  - { offsetInCU: 0x3A25, offset: 0x10397E, size: 0x8, addend: 0x0, symName: '__ZN40_$LT$str$u20$as$u20$core..fmt..Debug$GT$3fmt17h59f79d374e7cce1eE', symObjAddr: 0xE220, symBinAddr: 0x10009D700, symSize: 0x380 }
  - { offsetInCU: 0x3EDF, offset: 0x103E38, size: 0x8, addend: 0x0, symName: '__ZN41_$LT$char$u20$as$u20$core..fmt..Debug$GT$3fmt17h183f5a1467d8dfe5E', symObjAddr: 0xE5C0, symBinAddr: 0x10009DAA0, symSize: 0x90 }
  - { offsetInCU: 0x4004, offset: 0x103F5D, size: 0x8, addend: 0x0, symName: '__ZN43_$LT$char$u20$as$u20$core..fmt..Display$GT$3fmt17hf66ab4ff3899151dE', symObjAddr: 0xE650, symBinAddr: 0x10009DB30, symSize: 0xF0 }
  - { offsetInCU: 0x4022, offset: 0x103F7B, size: 0x8, addend: 0x0, symName: '__ZN43_$LT$char$u20$as$u20$core..fmt..Display$GT$3fmt17hf66ab4ff3899151dE', symObjAddr: 0xE650, symBinAddr: 0x10009DB30, symSize: 0xF0 }
  - { offsetInCU: 0x4037, offset: 0x103F90, size: 0x8, addend: 0x0, symName: '__ZN43_$LT$char$u20$as$u20$core..fmt..Display$GT$3fmt17hf66ab4ff3899151dE', symObjAddr: 0xE650, symBinAddr: 0x10009DB30, symSize: 0xF0 }
  - { offsetInCU: 0x40B4, offset: 0x10400D, size: 0x8, addend: 0x0, symName: __ZN4core3fmt17pointer_fmt_inner17h0d3929dbbd6c7c2aE, symObjAddr: 0xE740, symBinAddr: 0x10009DC20, symSize: 0xE0 }
  - { offsetInCU: 0x4269, offset: 0x1041C2, size: 0x8, addend: 0x0, symName: '__ZN42_$LT$$RF$T$u20$as$u20$core..fmt..Debug$GT$3fmt17h1110e597aeb296f6E', symObjAddr: 0x1C7E0, symBinAddr: 0x1000A1E00, symSize: 0x20 }
  - { offsetInCU: 0x4283, offset: 0x1041DC, size: 0x8, addend: 0x0, symName: '__ZN42_$LT$$RF$T$u20$as$u20$core..fmt..Debug$GT$3fmt17h68d3a4d62c2b210eE', symObjAddr: 0x1C810, symBinAddr: 0x1000A1E20, symSize: 0x10 }
  - { offsetInCU: 0x42A3, offset: 0x1041FC, size: 0x8, addend: 0x0, symName: '__ZN44_$LT$$RF$T$u20$as$u20$core..fmt..Display$GT$3fmt17h96d8cf3f9cca3c56E', symObjAddr: 0x1C850, symBinAddr: 0x1000A1E30, symSize: 0x20 }
  - { offsetInCU: 0x4AEB, offset: 0x104A44, size: 0x8, addend: 0x0, symName: __ZN4core3num7flt2dec8strategy6dragon9mul_pow1017h719e3662a9a829e6E, symObjAddr: 0x1520, symBinAddr: 0x100097950, symSize: 0x280 }
  - { offsetInCU: 0x4DA8, offset: 0x104D01, size: 0x8, addend: 0x0, symName: __ZN4core3num7flt2dec8strategy6dragon15format_shortest17hded6add97d1915abE, symObjAddr: 0x17A0, symBinAddr: 0x100097BD0, symSize: 0x1130 }
  - { offsetInCU: 0x69BB, offset: 0x106914, size: 0x8, addend: 0x0, symName: __ZN4core3num7flt2dec8strategy6dragon12format_exact17hb840e2b179780379E, symObjAddr: 0x28D0, symBinAddr: 0x100098D00, symSize: 0xEE0 }
  - { offsetInCU: 0x8261, offset: 0x1081BA, size: 0x8, addend: 0x0, symName: __ZN4core3num7flt2dec8strategy5grisu19format_shortest_opt17hf1653dcac5506c40E, symObjAddr: 0x3820, symBinAddr: 0x100099BE0, symSize: 0x8B0 }
  - { offsetInCU: 0x837B, offset: 0x1082D4, size: 0x8, addend: 0x0, symName: __ZN4core3num7flt2dec8strategy5grisu16format_exact_opt17h6284122b1b333ed5E, symObjAddr: 0x4140, symBinAddr: 0x10009A490, symSize: 0x4B0 }
  - { offsetInCU: 0x83D7, offset: 0x108330, size: 0x8, addend: 0x0, symName: __ZN4core3num7flt2dec8strategy5grisu16format_exact_opt14possibly_round17h52a9adf30c4ab404E, symObjAddr: 0x45F0, symBinAddr: 0x10009A940, symSize: 0x1C0 }
  - { offsetInCU: 0x85A7, offset: 0x108500, size: 0x8, addend: 0x0, symName: __ZN4core3num7flt2dec17digits_to_dec_str17h4c0f600e791c1972E, symObjAddr: 0x48C0, symBinAddr: 0x10009AB00, symSize: 0x170 }
  - { offsetInCU: 0x870C, offset: 0x108665, size: 0x8, addend: 0x0, symName: __ZN4core3num6bignum8Big32x408mul_pow217h1cb4b90be741734fE, symObjAddr: 0x12CE0, symBinAddr: 0x1000A0640, symSize: 0x190 }
  - { offsetInCU: 0x87FA, offset: 0x108753, size: 0x8, addend: 0x0, symName: __ZN4core3num6bignum8Big32x4010mul_digits17hdf1aafed1ae90cd6E, symObjAddr: 0x13030, symBinAddr: 0x1000A07D0, symSize: 0x340 }
  - { offsetInCU: 0x8C7D, offset: 0x108BD6, size: 0x8, addend: 0x0, symName: '__ZN70_$LT$core..num..error..ParseIntError$u20$as$u20$core..fmt..Display$GT$3fmt17h51b21fd75960dddfE', symObjAddr: 0x4EC0, symBinAddr: 0x10009AC70, symSize: 0x30 }
  - { offsetInCU: 0x8CDF, offset: 0x108C38, size: 0x8, addend: 0x0, symName: __ZN4core3num23from_str_radix_panic_rt17hb27af51eba7af9c9E, symObjAddr: 0x5170, symBinAddr: 0x10009ACA0, symSize: 0x60 }
  - { offsetInCU: 0x8D0E, offset: 0x108C67, size: 0x8, addend: 0x0, symName: __ZN4core3num20from_str_radix_panic17h074f0c73331affbdE, symObjAddr: 0x51D0, symBinAddr: 0x1000A49A0, symSize: 0x10 }
  - { offsetInCU: 0x8D5F, offset: 0x108CB8, size: 0x8, addend: 0x0, symName: '__ZN87_$LT$core..num..nonzero..NonZero$LT$usize$GT$$u20$as$u20$core..str..traits..FromStr$GT$8from_str17hb3a2c48ebd7f1d3eE', symObjAddr: 0x15DD0, symBinAddr: 0x1000A0B10, symSize: 0xF0 }
  - { offsetInCU: 0x8F41, offset: 0x108E9A, size: 0x8, addend: 0x0, symName: '__ZN4core3num21_$LT$impl$u20$u32$GT$14from_str_radix17h9cea532e04b64059E', symObjAddr: 0x173B0, symBinAddr: 0x1000A0DC0, symSize: 0x1E0 }
  - { offsetInCU: 0x905A, offset: 0x108FB3, size: 0x8, addend: 0x0, symName: '__ZN4core3num62_$LT$impl$u20$core..str..traits..FromStr$u20$for$u20$usize$GT$8from_str17h3e135b17ef7e316bE', symObjAddr: 0x16140, symBinAddr: 0x1000A0C00, symSize: 0xE0 }
  - { offsetInCU: 0x9142, offset: 0x10909B, size: 0x8, addend: 0x0, symName: '__ZN4core3num60_$LT$impl$u20$core..str..traits..FromStr$u20$for$u20$u64$GT$8from_str17h63f6558a7255c2c5E', symObjAddr: 0x16500, symBinAddr: 0x1000A0CE0, symSize: 0xE0 }
  - { offsetInCU: 0x95EB, offset: 0x109544, size: 0x8, addend: 0x0, symName: __ZN4core5slice5index26slice_start_index_len_fail17hc2f78d08e3a7cf81E, symObjAddr: 0xF170, symBinAddr: 0x1000A4F60, symSize: 0x70 }
  - { offsetInCU: 0x963A, offset: 0x109593, size: 0x8, addend: 0x0, symName: __ZN4core5slice5index24slice_end_index_len_fail17h71b1f8e59c3fcdfeE, symObjAddr: 0xF1E0, symBinAddr: 0x1000A4FD0, symSize: 0x70 }
  - { offsetInCU: 0x9689, offset: 0x1095E2, size: 0x8, addend: 0x0, symName: __ZN4core5slice5index22slice_index_order_fail17h0140d9cf40fd68a5E, symObjAddr: 0xF250, symBinAddr: 0x1000A5040, symSize: 0x70 }
  - { offsetInCU: 0x9BB4, offset: 0x109B0D, size: 0x8, addend: 0x0, symName: __ZN4core5slice6memchr14memchr_aligned17h133855cd69f468d3E, symObjAddr: 0xE910, symBinAddr: 0x10009DD00, symSize: 0xF0 }
  - { offsetInCU: 0x9C6C, offset: 0x109BC5, size: 0x8, addend: 0x0, symName: __ZN4core5slice6memchr7memrchr17hcb1ab2b7d3f88da3E, symObjAddr: 0xEA00, symBinAddr: 0x10009DDF0, symSize: 0x110 }
  - { offsetInCU: 0x9E12, offset: 0x109D6B, size: 0x8, addend: 0x0, symName: __ZN4core5slice4sort6stable5drift11sqrt_approx17h106640da2bd74303E, symObjAddr: 0xEB10, symBinAddr: 0x10009DF00, symSize: 0x30 }
  - { offsetInCU: 0x9E8E, offset: 0x109DE7, size: 0x8, addend: 0x0, symName: __ZN4core5slice4sort6shared9smallsort22panic_on_ord_violation17h133d7f05205c4f20E, symObjAddr: 0xEB40, symBinAddr: 0x10009DF30, symSize: 0x50 }
  - { offsetInCU: 0xA39F, offset: 0x10A2F8, size: 0x8, addend: 0x0, symName: __ZN4core6option13unwrap_failed17hf0ce88b8039e6075E, symObjAddr: 0x89E0, symBinAddr: 0x1000A4A10, symSize: 0x20 }
  - { offsetInCU: 0xA3B9, offset: 0x10A312, size: 0x8, addend: 0x0, symName: __ZN4core6option13expect_failed17h5435a7ff7a2acd97E, symObjAddr: 0x8A00, symBinAddr: 0x1000A4A30, symSize: 0x60 }
  - { offsetInCU: 0xA47D, offset: 0x10A3D6, size: 0x8, addend: 0x0, symName: '__ZN71_$LT$core..ops..range..Range$LT$Idx$GT$$u20$as$u20$core..fmt..Debug$GT$3fmt17h08592e28b763072aE', symObjAddr: 0x5330, symBinAddr: 0x10009AD00, symSize: 0x50 }
  - { offsetInCU: 0xA797, offset: 0x10A6F0, size: 0x8, addend: 0x0, symName: __ZN4core6result13unwrap_failed17had190471c291bd03E, symObjAddr: 0x9240, symBinAddr: 0x1000A4EE0, symSize: 0x80 }
  - { offsetInCU: 0xA7F7, offset: 0x10A750, size: 0x8, addend: 0x0, symName: '__ZN54_$LT$core..any..TypeId$u20$as$u20$core..fmt..Debug$GT$3fmt17h8bb7deed45ea4e65E', symObjAddr: 0x53D0, symBinAddr: 0x10009AD50, symSize: 0xC0 }
  - { offsetInCU: 0xA8E9, offset: 0x10A842, size: 0x8, addend: 0x0, symName: '__ZN63_$LT$core..cell..BorrowMutError$u20$as$u20$core..fmt..Debug$GT$3fmt17hf4f968fd2f533c90E', symObjAddr: 0x5830, symBinAddr: 0x10009AE10, symSize: 0x20 }
  - { offsetInCU: 0xA945, offset: 0x10A89E, size: 0x8, addend: 0x0, symName: __ZN4core4cell22panic_already_borrowed17ha9b6b30d2a6c1da3E, symObjAddr: 0x5870, symBinAddr: 0x1000A49B0, symSize: 0x60 }
  - { offsetInCU: 0xA9CB, offset: 0x10A924, size: 0x8, addend: 0x0, symName: '__ZN4core4char7methods22_$LT$impl$u20$char$GT$16escape_debug_ext17h45343360e0479290E', symObjAddr: 0x59F0, symBinAddr: 0x10009AE30, symSize: 0x2C0 }
  - { offsetInCU: 0xAC83, offset: 0x10ABDC, size: 0x8, addend: 0x0, symName: __ZN4core7unicode12unicode_data15grapheme_extend11lookup_slow17hcf452ea06c1dd27eE, symObjAddr: 0x1E000, symBinAddr: 0x1000A1E70, symSize: 0x160 }
  - { offsetInCU: 0xAEC1, offset: 0x10AE1A, size: 0x8, addend: 0x0, symName: __ZN4core7unicode12unicode_data2cc6lookup17ha8c997d3d336cb8fE, symObjAddr: 0x1DFE0, symBinAddr: 0x1000A1E50, symSize: 0x20 }
  - { offsetInCU: 0xAF1C, offset: 0x10AE75, size: 0x8, addend: 0x0, symName: __ZN4core7unicode9printable5check17h9aa6e320d7115c02E, symObjAddr: 0x12090, symBinAddr: 0x1000A03F0, symSize: 0x120 }
  - { offsetInCU: 0xB15A, offset: 0x10B0B3, size: 0x8, addend: 0x0, symName: __ZN4core7unicode9printable12is_printable17h5397384c9e262cd0E, symObjAddr: 0x121B0, symBinAddr: 0x1000A0510, symSize: 0x130 }
  - { offsetInCU: 0xB184, offset: 0x10B0DD, size: 0x8, addend: 0x0, symName: __ZN4core3ffi5c_str4CStr19from_bytes_with_nul17h192dd45a613e8c2dE, symObjAddr: 0x60D0, symBinAddr: 0x10009B0F0, symSize: 0x120 }
  - { offsetInCU: 0xB245, offset: 0x10B19E, size: 0x8, addend: 0x0, symName: __ZN4core9panicking9panic_fmt17had5c0183b828cb49E, symObjAddr: 0x8BD0, symBinAddr: 0x1000A4A90, symSize: 0x50 }
  - { offsetInCU: 0xB285, offset: 0x10B1DE, size: 0x8, addend: 0x0, symName: __ZN4core9panicking18panic_nounwind_fmt17hb4571fb78fc10a76E, symObjAddr: 0x8C20, symBinAddr: 0x1000A4AE0, symSize: 0x60 }
  - { offsetInCU: 0xB2C8, offset: 0x10B221, size: 0x8, addend: 0x0, symName: __ZN4core9panicking5panic17hf0e1cc2ca8e1dc83E, symObjAddr: 0x8C80, symBinAddr: 0x1000A4B40, symSize: 0x50 }
  - { offsetInCU: 0xB2F6, offset: 0x10B24F, size: 0x8, addend: 0x0, symName: __ZN4core9panicking14panic_nounwind17ha12d9e403b05feccE, symObjAddr: 0x8CD0, symBinAddr: 0x1000A4B90, symSize: 0x50 }
  - { offsetInCU: 0xB324, offset: 0x10B27D, size: 0x8, addend: 0x0, symName: __ZN4core9panicking26panic_nounwind_nobacktrace17h5f1522f9c13eafe4E, symObjAddr: 0x8D20, symBinAddr: 0x1000A4BE0, symSize: 0x50 }
  - { offsetInCU: 0xB352, offset: 0x10B2AB, size: 0x8, addend: 0x0, symName: __ZN4core9panicking18panic_bounds_check17h109fe50f98469fc4E, symObjAddr: 0x8DD0, symBinAddr: 0x1000A4C30, symSize: 0x70 }
  - { offsetInCU: 0xB381, offset: 0x10B2DA, size: 0x8, addend: 0x0, symName: __ZN4core9panicking19panic_cannot_unwind17h4b15d87e2e2757a8E, symObjAddr: 0x8F20, symBinAddr: 0x1000A4CA0, symSize: 0x20 }
  - { offsetInCU: 0xB39B, offset: 0x10B2F4, size: 0x8, addend: 0x0, symName: __ZN4core9panicking16panic_in_cleanup17hc82a6604fb78741fE, symObjAddr: 0x8F40, symBinAddr: 0x1000A4CC0, symSize: 0x20 }
  - { offsetInCU: 0xB3B5, offset: 0x10B30E, size: 0x8, addend: 0x0, symName: __ZN4core9panicking13assert_failed17hb0dd01948f4ed6c0E, symObjAddr: 0x9020, symBinAddr: 0x1000A4CE0, symSize: 0x40 }
  - { offsetInCU: 0xB3D0, offset: 0x10B329, size: 0x8, addend: 0x0, symName: __ZN4core9panicking19assert_failed_inner17he0737abe7f31c06cE, symObjAddr: 0x9080, symBinAddr: 0x1000A4D20, symSize: 0x1C0 }
  - { offsetInCU: 0xB418, offset: 0x10B371, size: 0x8, addend: 0x0, symName: __ZN4core9panicking11panic_const24panic_const_add_overflow17h99ddbb9b6e864b52E, symObjAddr: 0x18450, symBinAddr: 0x1000A5100, symSize: 0x40 }
  - { offsetInCU: 0xB446, offset: 0x10B39F, size: 0x8, addend: 0x0, symName: __ZN4core9panicking11panic_const24panic_const_div_overflow17h3800d795c1814ac1E, symObjAddr: 0x18510, symBinAddr: 0x1000A5140, symSize: 0x40 }
  - { offsetInCU: 0xB474, offset: 0x10B3CD, size: 0x8, addend: 0x0, symName: __ZN4core9panicking11panic_const24panic_const_rem_overflow17h0c9f8bd6e875021aE, symObjAddr: 0x18550, symBinAddr: 0x1000A5180, symSize: 0x40 }
  - { offsetInCU: 0xB4A2, offset: 0x10B3FB, size: 0x8, addend: 0x0, symName: __ZN4core9panicking11panic_const23panic_const_div_by_zero17h1ba33e25180c9760E, symObjAddr: 0x18650, symBinAddr: 0x1000A51C0, symSize: 0x40 }
  - { offsetInCU: 0xB4D0, offset: 0x10B429, size: 0x8, addend: 0x0, symName: __ZN4core9panicking11panic_const23panic_const_rem_by_zero17hddb47ddab6d21ac2E, symObjAddr: 0x18690, symBinAddr: 0x1000A5200, symSize: 0x40 }
  - { offsetInCU: 0xB50F, offset: 0x10B468, size: 0x8, addend: 0x0, symName: '__ZN70_$LT$core..panic..location..Location$u20$as$u20$core..fmt..Display$GT$3fmt17h3b775daa4da0c84fE', symObjAddr: 0x8A60, symBinAddr: 0x10009B210, symSize: 0x80 }
  - { offsetInCU: 0xB697, offset: 0x10B5F0, size: 0x8, addend: 0x0, symName: __ZN4core3str7pattern11StrSearcher3new17hc777094db0ba1f96E, symObjAddr: 0x10220, symBinAddr: 0x10009E810, symSize: 0x640 }
  - { offsetInCU: 0xBA85, offset: 0x10B9DE, size: 0x8, addend: 0x0, symName: __ZN4core3str5count14do_count_chars17ha3390eb253e30d2dE, symObjAddr: 0xF8D0, symBinAddr: 0x10009E190, symSize: 0x5C0 }
  - { offsetInCU: 0xBE50, offset: 0x10BDA9, size: 0x8, addend: 0x0, symName: __ZN4core3str5count23char_count_general_case17h70df39afcdec0f69E, symObjAddr: 0xFE90, symBinAddr: 0x10009E750, symSize: 0xC0 }
  - { offsetInCU: 0xBEA4, offset: 0x10BDFD, size: 0x8, addend: 0x0, symName: __ZN4core3str5count23char_count_general_case17h70df39afcdec0f69E, symObjAddr: 0xFE90, symBinAddr: 0x10009E750, symSize: 0xC0 }
  - { offsetInCU: 0xC023, offset: 0x10BF7C, size: 0x8, addend: 0x0, symName: __ZN4core3str6traits23str_index_overflow_fail17hca1c64009da7550cE, symObjAddr: 0x101E0, symBinAddr: 0x1000A50B0, symSize: 0x40 }
  - { offsetInCU: 0xC091, offset: 0x10BFEA, size: 0x8, addend: 0x0, symName: __ZN4core3str8converts9from_utf817hbfae1c12ba0f752dE, symObjAddr: 0xF4B0, symBinAddr: 0x10009DF80, symSize: 0x210 }
  - { offsetInCU: 0xC0F7, offset: 0x10C050, size: 0x8, addend: 0x0, symName: '__ZN60_$LT$core..str..lossy..Debug$u20$as$u20$core..fmt..Debug$GT$3fmt17hf822cb67c4d76da7E', symObjAddr: 0x10860, symBinAddr: 0x10009EE50, symSize: 0x4C0 }
  - { offsetInCU: 0xC555, offset: 0x10C4AE, size: 0x8, addend: 0x0, symName: '__ZN87_$LT$core..str..lossy..Utf8Chunks$u20$as$u20$core..iter..traits..iterator..Iterator$GT$4next17h3143161bfe02572dE', symObjAddr: 0x10D20, symBinAddr: 0x10009F310, symSize: 0x1C0 }
  - { offsetInCU: 0xC74D, offset: 0x10C6A6, size: 0x8, addend: 0x0, symName: __ZN4core3str16slice_error_fail17h37538355c87ca0baE, symObjAddr: 0x10FA0, symBinAddr: 0x1000A50F0, symSize: 0x10 }
  - { offsetInCU: 0xC766, offset: 0x10C6BF, size: 0x8, addend: 0x0, symName: __ZN4core3str19slice_error_fail_rt17h799bbeb831541f16E, symObjAddr: 0x10FF0, symBinAddr: 0x10009F4D0, symSize: 0x420 }
  - { offsetInCU: 0xCA97, offset: 0x10C9F0, size: 0x8, addend: 0x0, symName: '__ZN57_$LT$core..time..Duration$u20$as$u20$core..fmt..Debug$GT$3fmt17h382399efb9a1e661E', symObjAddr: 0x11550, symBinAddr: 0x10009F8F0, symSize: 0xC0 }
  - { offsetInCU: 0xCAB6, offset: 0x10CA0F, size: 0x8, addend: 0x0, symName: '__ZN57_$LT$core..time..Duration$u20$as$u20$core..fmt..Debug$GT$3fmt11fmt_decimal17hfae012f130e8c521E', symObjAddr: 0x11610, symBinAddr: 0x10009F9B0, symSize: 0x7E0 }
  - { offsetInCU: 0xCCF4, offset: 0x10CC4D, size: 0x8, addend: 0x0, symName: '__ZN57_$LT$core..time..Duration$u20$as$u20$core..fmt..Debug$GT$3fmt11fmt_decimal28_$u7b$$u7b$closure$u7d$$u7d$17h5f7bfb2bdddaaf03E', symObjAddr: 0x11DF0, symBinAddr: 0x1000A0190, symSize: 0x260 }
...
