---
triple:          'x86_64-apple-darwin'
binary-path:     "/Users/justinlanouette/Chaos/ChaöS-Token/hello_world/target/release/deps/libnum_derive-649f2ca8af1942a2.dylib"
relocations:
  - { offsetInCU: 0x1E, offset: 0x1E, size: 0x8, addend: 0x0, symName: __ZN10proc_macro6bridge6client14HandleCounters3get17h02da01958788119eE, symObjAddr: 0x0, symBinAddr: 0x1650, symSize: 0x10 }
  - { offsetInCU: 0x40, offset: 0x40, size: 0x8, addend: 0x0, symName: ___rustc_proc_macro_decls_ff9aef9d497d363e__, symObjAddr: 0x24D08, symBinAddr: 0x250660, symSize: 0x0 }
  - { offsetInCU: 0x28F, offset: 0x28F, size: 0x8, addend: 0x0, symName: __ZN10num_derive14from_primitive17hfe6e956367b1e213E, symObjAddr: 0x8400, symBinAddr: 0x9A50, symSize: 0x4240 }
  - { offsetInCU: 0x2028, offset: 0x2028, size: 0x8, addend: 0x0, symName: __ZN10num_derive12to_primitive17hdd4c338553a0f8e9E, symObjAddr: 0xC640, symBinAddr: 0xDC90, symSize: 0x3E00 }
  - { offsetInCU: 0x3A2E, offset: 0x3A2E, size: 0x8, addend: 0x0, symName: __ZN10num_derive7num_ops17h007a258858962e41E, symObjAddr: 0x10440, symBinAddr: 0x11A90, symSize: 0x1D30 }
  - { offsetInCU: 0x4401, offset: 0x4401, size: 0x8, addend: 0x0, symName: __ZN10num_derive8num_cast17ha129dfceb59f92a9E, symObjAddr: 0x12170, symBinAddr: 0x137C0, symSize: 0x850 }
  - { offsetInCU: 0x4CE0, offset: 0x4CE0, size: 0x8, addend: 0x0, symName: __ZN10num_derive4zero17hd54f4ae9a30d82c6E, symObjAddr: 0x129C0, symBinAddr: 0x14010, symSize: 0x960 }
  - { offsetInCU: 0x55F1, offset: 0x55F1, size: 0x8, addend: 0x0, symName: __ZN10num_derive3one17h553f2a768c8ab2efE, symObjAddr: 0x13320, symBinAddr: 0x14970, symSize: 0x960 }
  - { offsetInCU: 0x5F02, offset: 0x5F02, size: 0x8, addend: 0x0, symName: __ZN10num_derive3num17h36c5b9b183223f4dE, symObjAddr: 0x13C80, symBinAddr: 0x152D0, symSize: 0x970 }
  - { offsetInCU: 0x67E1, offset: 0x67E1, size: 0x8, addend: 0x0, symName: __ZN10num_derive5float17h7deefe7b97907acbE, symObjAddr: 0x145F0, symBinAddr: 0x15C40, symSize: 0xB630 }
  - { offsetInCU: 0x9EF7, offset: 0x9EF7, size: 0x8, addend: 0x0, symName: __ZN10num_derive6signed17hde5152c3275a165dE, symObjAddr: 0x1FC20, symBinAddr: 0x21270, symSize: 0x1450 }
  - { offsetInCU: 0xAAA4, offset: 0xAAA4, size: 0x8, addend: 0x0, symName: __ZN10num_derive8unsigned17hfc2d30f985c39a74E, symObjAddr: 0x21070, symBinAddr: 0x226C0, symSize: 0x25E }
  - { offsetInCU: 0xE6C3, offset: 0xE6C3, size: 0x8, addend: 0x0, symName: '__ZN4core3ptr100drop_in_place$LT$core..option..Option$LT$alloc..boxed..Box$LT$syn..path..GenericArgument$GT$$GT$$GT$17ha77889711c99acb5E', symObjAddr: 0x440, symBinAddr: 0x1A90, symSize: 0x50 }
  - { offsetInCU: 0xE892, offset: 0xE892, size: 0x8, addend: 0x0, symName: '__ZN4core3ptr102drop_in_place$LT$syn..punctuated..Punctuated$LT$syn..path..GenericArgument$C$syn..token..Comma$GT$$GT$17ha592b814e65b094aE', symObjAddr: 0x490, symBinAddr: 0x1AE0, symSize: 0xF0 }
  - { offsetInCU: 0xEB7B, offset: 0xEB7B, size: 0x8, addend: 0x0, symName: '__ZN4core3ptr103drop_in_place$LT$core..option..Option$LT$alloc..boxed..Box$LT$syn..generics..TypeParamBound$GT$$GT$$GT$17hf277ec229d0aa024E', symObjAddr: 0x580, symBinAddr: 0x1BD0, symSize: 0x50 }
  - { offsetInCU: 0xEE42, offset: 0xEE42, size: 0x8, addend: 0x0, symName: '__ZN4core3ptr103drop_in_place$LT$core..option..Option$LT$alloc..boxed..Box$LT$syn..generics..WherePredicate$GT$$GT$$GT$17h4639130315164223E', symObjAddr: 0x5D0, symBinAddr: 0x1C20, symSize: 0xD0 }
  - { offsetInCU: 0xF1D5, offset: 0xF1D5, size: 0x8, addend: 0x0, symName: '__ZN4core3ptr103drop_in_place$LT$syn..punctuated..Punctuated$LT$syn..generics..GenericParam$C$syn..token..Comma$GT$$GT$17hd6b8bba176dc3af2E', symObjAddr: 0x6A0, symBinAddr: 0x1CF0, symSize: 0xF0 }
  - { offsetInCU: 0xF698, offset: 0xF698, size: 0x8, addend: 0x0, symName: '__ZN4core3ptr104drop_in_place$LT$syn..punctuated..Punctuated$LT$syn..generics..TypeParamBound$C$syn..token..Plus$GT$$GT$17hf6ed100b7601117bE', symObjAddr: 0x790, symBinAddr: 0x1DE0, symSize: 0x260 }
  - { offsetInCU: 0x1008A, offset: 0x1008A, size: 0x8, addend: 0x0, symName: '__ZN4core3ptr34drop_in_place$LT$syn..lit..Lit$GT$17h2261e216fb4a351cE', symObjAddr: 0x9F0, symBinAddr: 0x2040, symSize: 0x110 }
  - { offsetInCU: 0x105E3, offset: 0x105E3, size: 0x8, addend: 0x0, symName: '__ZN4core3ptr34drop_in_place$LT$syn..pat..Pat$GT$17h8cc743d7ea752f86E', symObjAddr: 0xB00, symBinAddr: 0x2150, symSize: 0xF00 }
  - { offsetInCU: 0x14086, offset: 0x14086, size: 0x8, addend: 0x0, symName: '__ZN4core3ptr34drop_in_place$LT$syn..ty..Type$GT$17h9d994f97b8c5d57eE', symObjAddr: 0x1A00, symBinAddr: 0x3050, symSize: 0x5E0 }
  - { offsetInCU: 0x159D0, offset: 0x159D0, size: 0x8, addend: 0x0, symName: '__ZN4core3ptr36drop_in_place$LT$syn..expr..Expr$GT$17heba164088c166752E', symObjAddr: 0x1FE0, symBinAddr: 0x3630, symSize: 0x2830 }
  - { offsetInCU: 0x1F445, offset: 0x1F445, size: 0x8, addend: 0x0, symName: '__ZN4core3ptr36drop_in_place$LT$syn..mac..Macro$GT$17h700880a4bff8e247E', symObjAddr: 0x4810, symBinAddr: 0x5E60, symSize: 0x110 }
  - { offsetInCU: 0x1F8CA, offset: 0x1F8CA, size: 0x8, addend: 0x0, symName: '__ZN4core3ptr36drop_in_place$LT$syn..path..Path$GT$17h6886f5090d1ceb27E', symObjAddr: 0x4920, symBinAddr: 0x5F70, symSize: 0x240 }
  - { offsetInCU: 0x20313, offset: 0x20313, size: 0x8, addend: 0x0, symName: '__ZN4core3ptr37drop_in_place$LT$syn..stmt..Block$GT$17h18abff8b81bdc406E', symObjAddr: 0x4B60, symBinAddr: 0x61B0, symSize: 0xD0 }
  - { offsetInCU: 0x20652, offset: 0x20652, size: 0x8, addend: 0x0, symName: '__ZN4core3ptr38drop_in_place$LT$syn..data..Fields$GT$17h21b950ab89112107E', symObjAddr: 0x4C30, symBinAddr: 0x6280, symSize: 0x190 }
  - { offsetInCU: 0x20B2A, offset: 0x20B2A, size: 0x8, addend: 0x0, symName: '__ZN4core3ptr38drop_in_place$LT$syn..derive..Data$GT$17h444f974da34adde5E', symObjAddr: 0x4DC0, symBinAddr: 0x6410, symSize: 0x1D0 }
  - { offsetInCU: 0x211A8, offset: 0x211A8, size: 0x8, addend: 0x0, symName: '__ZN4core3ptr38drop_in_place$LT$syn..error..Error$GT$17h756ac5d87918c118E', symObjAddr: 0x4F90, symBinAddr: 0x65E0, symSize: 0x80 }
  - { offsetInCU: 0x21466, offset: 0x21466, size: 0x8, addend: 0x0, symName: '__ZN4core3ptr38drop_in_place$LT$syn..expr..Member$GT$17hefd04f0cd3a4c3faE', symObjAddr: 0x5010, symBinAddr: 0x6660, symSize: 0x30 }
  - { offsetInCU: 0x21563, offset: 0x21563, size: 0x8, addend: 0x0, symName: '__ZN4core3ptr39drop_in_place$LT$proc_macro2..Ident$GT$17h8996439a97d51cbbE', symObjAddr: 0x5040, symBinAddr: 0x6690, symSize: 0x30 }
  - { offsetInCU: 0x21641, offset: 0x21641, size: 0x8, addend: 0x0, symName: '__ZN4core3ptr40drop_in_place$LT$syn..ty..ReturnType$GT$17h934b3c14af36294aE', symObjAddr: 0x5070, symBinAddr: 0x66C0, symSize: 0x50 }
  - { offsetInCU: 0x217B3, offset: 0x217B3, size: 0x8, addend: 0x0, symName: '__ZN4core3ptr41drop_in_place$LT$syn..expr..ExprConst$GT$17hc910ba115e117d6eE', symObjAddr: 0x50C0, symBinAddr: 0x6710, symSize: 0x180 }
  - { offsetInCU: 0x21D3C, offset: 0x21D3C, size: 0x8, addend: 0x0, symName: '__ZN4core3ptr44drop_in_place$LT$syn..generics..Generics$GT$17h9864adfbe1c6bbe8E', symObjAddr: 0x5240, symBinAddr: 0x6890, symSize: 0x40 }
  - { offsetInCU: 0x21D59, offset: 0x21D59, size: 0x8, addend: 0x0, symName: '__ZN4core3ptr44drop_in_place$LT$syn..lifetime..Lifetime$GT$17h06e168a44c33e1b0E', symObjAddr: 0x5280, symBinAddr: 0x68D0, symSize: 0x30 }
  - { offsetInCU: 0x21F8C, offset: 0x21F8C, size: 0x8, addend: 0x0, symName: '__ZN4core3ptr45drop_in_place$LT$proc_macro2..TokenStream$GT$17hd40e6c5e52e979f7E.llvm.12830610184209676048', symObjAddr: 0x52B0, symBinAddr: 0x6900, symSize: 0x140 }
  - { offsetInCU: 0x22439, offset: 0x22439, size: 0x8, addend: 0x0, symName: '__ZN4core3ptr45drop_in_place$LT$syn..derive..DeriveInput$GT$17hfc69cf922b57ef78E', symObjAddr: 0x53F0, symBinAddr: 0x6A40, symSize: 0x1A0 }
  - { offsetInCU: 0x229C3, offset: 0x229C3, size: 0x8, addend: 0x0, symName: '__ZN4core3ptr45drop_in_place$LT$syn..generics..TypeParam$GT$17h5fb083aeb6c9b8f3E', symObjAddr: 0x5590, symBinAddr: 0x6BE0, symSize: 0x230 }
  - { offsetInCU: 0x231F3, offset: 0x231F3, size: 0x8, addend: 0x0, symName: '__ZN4core3ptr46drop_in_place$LT$syn..generics..ConstParam$GT$17h77fcbd78891cc576E', symObjAddr: 0x57C0, symBinAddr: 0x6E10, symSize: 0x150 }
  - { offsetInCU: 0x23651, offset: 0x23651, size: 0x8, addend: 0x0, symName: '__ZN4core3ptr47drop_in_place$LT$syn..path..GenericArgument$GT$17h67b67e0d667454ffE', symObjAddr: 0x5910, symBinAddr: 0x6F60, symSize: 0x460 }
  - { offsetInCU: 0x2435A, offset: 0x2435A, size: 0x8, addend: 0x0, symName: '__ZN4core3ptr49drop_in_place$LT$syn..generics..LifetimeParam$GT$17he250dbb21d5d1ee9E', symObjAddr: 0x5D70, symBinAddr: 0x73C0, symSize: 0xF0 }
  - { offsetInCU: 0x24748, offset: 0x24748, size: 0x8, addend: 0x0, symName: '__ZN4core3ptr49drop_in_place$LT$syn..restriction..Visibility$GT$17h29fff7d46f6be3e3E', symObjAddr: 0x5E60, symBinAddr: 0x74B0, symSize: 0x60 }
  - { offsetInCU: 0x248CB, offset: 0x248CB, size: 0x8, addend: 0x0, symName: '__ZN4core3ptr50drop_in_place$LT$syn..generics..TypeParamBound$GT$17h1a50b8c006e46a6cE', symObjAddr: 0x5EC0, symBinAddr: 0x7510, symSize: 0xA0 }
  - { offsetInCU: 0x24A32, offset: 0x24A32, size: 0x8, addend: 0x0, symName: '__ZN4core3ptr58drop_in_place$LT$alloc..vec..Vec$LT$syn..expr..Arm$GT$$GT$17hb2c5b7adca149137E', symObjAddr: 0x5F60, symBinAddr: 0x75B0, symSize: 0xD0 }
  - { offsetInCU: 0x24CBF, offset: 0x24CBF, size: 0x8, addend: 0x0, symName: '__ZN4core3ptr59drop_in_place$LT$alloc..boxed..Box$LT$syn..pat..Pat$GT$$GT$17hd69c5cd79168fed8E', symObjAddr: 0x6030, symBinAddr: 0x7680, symSize: 0x50 }
  - { offsetInCU: 0x24E1A, offset: 0x24E1A, size: 0x8, addend: 0x0, symName: '__ZN4core3ptr59drop_in_place$LT$alloc..boxed..Box$LT$syn..ty..Type$GT$$GT$17h5996230ea326072bE', symObjAddr: 0x6080, symBinAddr: 0x76D0, symSize: 0x50 }
  - { offsetInCU: 0x24F75, offset: 0x24F75, size: 0x8, addend: 0x0, symName: '__ZN4core3ptr61drop_in_place$LT$alloc..boxed..Box$LT$syn..expr..Expr$GT$$GT$17h8b0541d699dad651E', symObjAddr: 0x60D0, symBinAddr: 0x7720, symSize: 0x50 }
  - { offsetInCU: 0x250D0, offset: 0x250D0, size: 0x8, addend: 0x0, symName: '__ZN4core3ptr61drop_in_place$LT$syn..path..ParenthesizedGenericArguments$GT$17h7265c22c4c879bdaE', symObjAddr: 0x6120, symBinAddr: 0x7770, symSize: 0x170 }
  - { offsetInCU: 0x256AA, offset: 0x256AA, size: 0x8, addend: 0x0, symName: '__ZN4core3ptr63drop_in_place$LT$alloc..boxed..Box$LT$syn..lit..LitRepr$GT$$GT$17h291259f3754a680eE', symObjAddr: 0x6290, symBinAddr: 0x78E0, symSize: 0x60 }
  - { offsetInCU: 0x2599F, offset: 0x2599F, size: 0x8, addend: 0x0, symName: '__ZN4core3ptr64drop_in_place$LT$alloc..boxed..Box$LT$syn..pat..FieldPat$GT$$GT$17h9935199ab6febb82E', symObjAddr: 0x62F0, symBinAddr: 0x7940, symSize: 0x140 }
  - { offsetInCU: 0x2607E, offset: 0x2607E, size: 0x8, addend: 0x0, symName: '__ZN4core3ptr64drop_in_place$LT$alloc..boxed..Box$LT$syn..ty..BareFnArg$GT$$GT$17ha29f685c236ece1aE', symObjAddr: 0x6430, symBinAddr: 0x7A80, symSize: 0x140 }
  - { offsetInCU: 0x265D6, offset: 0x265D6, size: 0x8, addend: 0x0, symName: '__ZN4core3ptr65drop_in_place$LT$core..option..Option$LT$syn..expr..Label$GT$$GT$17h6e188cc1869f88c4E', symObjAddr: 0x6570, symBinAddr: 0x7BC0, symSize: 0x30 }
  - { offsetInCU: 0x26711, offset: 0x26711, size: 0x8, addend: 0x0, symName: '__ZN4core3ptr66drop_in_place$LT$core..option..Option$LT$syn..pat..PatRest$GT$$GT$17hcdbad01ce6e5e722E', symObjAddr: 0x65A0, symBinAddr: 0x7BF0, symSize: 0xE0 }
  - { offsetInCU: 0x269C9, offset: 0x269C9, size: 0x8, addend: 0x0, symName: '__ZN4core3ptr67drop_in_place$LT$alloc..boxed..Box$LT$syn..expr..FieldValue$GT$$GT$17hcdc41a6230123b9dE', symObjAddr: 0x6680, symBinAddr: 0x7CD0, symSize: 0x140 }
  - { offsetInCU: 0x26F20, offset: 0x26F20, size: 0x8, addend: 0x0, symName: '__ZN4core3ptr68drop_in_place$LT$alloc..vec..Vec$LT$proc_macro2..TokenStream$GT$$GT$17hadf4457bef67839eE', symObjAddr: 0x67C0, symBinAddr: 0x7E10, symSize: 0xC0 }
  - { offsetInCU: 0x271CC, offset: 0x271CC, size: 0x8, addend: 0x0, symName: '__ZN4core3ptr70drop_in_place$LT$core..option..Option$LT$syn..ty..BareVariadic$GT$$GT$17hc2b3f1d6b32099edE', symObjAddr: 0x6880, symBinAddr: 0x7ED0, symSize: 0x120 }
  - { offsetInCU: 0x2772D, offset: 0x2772D, size: 0x8, addend: 0x0, symName: '__ZN4core3ptr72drop_in_place$LT$alloc..boxed..Box$LT$syn..path..GenericArgument$GT$$GT$17hfb6a887c5d83aa3aE', symObjAddr: 0x69A0, symBinAddr: 0x7FF0, symSize: 0x2B0 }
  - { offsetInCU: 0x28118, offset: 0x28118, size: 0x8, addend: 0x0, symName: '__ZN4core3ptr72drop_in_place$LT$core..option..Option$LT$syn..lifetime..Lifetime$GT$$GT$17h67a52c0a780012dfE', symObjAddr: 0x6C50, symBinAddr: 0x82A0, symSize: 0x30 }
  - { offsetInCU: 0x28234, offset: 0x28234, size: 0x8, addend: 0x0, symName: '__ZN4core3ptr73drop_in_place$LT$alloc..boxed..Box$LT$syn..generics..GenericParam$GT$$GT$17h935172df8a80e859E', symObjAddr: 0x6C80, symBinAddr: 0x82D0, symSize: 0x80 }
  - { offsetInCU: 0x283AC, offset: 0x283AC, size: 0x8, addend: 0x0, symName: '__ZN4core3ptr75drop_in_place$LT$alloc..boxed..Box$LT$syn..generics..TypeParamBound$GT$$GT$17h23a8537fe7a78cf4E', symObjAddr: 0x6D00, symBinAddr: 0x8350, symSize: 0x190 }
  - { offsetInCU: 0x28AA5, offset: 0x28AA5, size: 0x8, addend: 0x0, symName: '__ZN4core3ptr75drop_in_place$LT$core..option..Option$LT$syn..generics..WhereClause$GT$$GT$17h0637e0ecda0a65bfE', symObjAddr: 0x6E90, symBinAddr: 0x84E0, symSize: 0x90 }
  - { offsetInCU: 0x28D5B, offset: 0x28D5B, size: 0x8, addend: 0x0, symName: '__ZN4core3ptr86drop_in_place$LT$syn..punctuated..Punctuated$LT$syn..pat..Pat$C$syn..token..Or$GT$$GT$17h210796e05836243bE', symObjAddr: 0x6F20, symBinAddr: 0x8570, symSize: 0x120 }
  - { offsetInCU: 0x291A1, offset: 0x291A1, size: 0x8, addend: 0x0, symName: '__ZN4core3ptr87drop_in_place$LT$core..option..Option$LT$alloc..boxed..Box$LT$syn..pat..Pat$GT$$GT$$GT$17heb87bf9ccbc90e69E', symObjAddr: 0x7040, symBinAddr: 0x8690, symSize: 0x50 }
  - { offsetInCU: 0x29313, offset: 0x29313, size: 0x8, addend: 0x0, symName: '__ZN4core3ptr87drop_in_place$LT$core..option..Option$LT$alloc..boxed..Box$LT$syn..ty..Type$GT$$GT$$GT$17h6e0aa39bd503e981E', symObjAddr: 0x7090, symBinAddr: 0x86E0, symSize: 0x50 }
  - { offsetInCU: 0x29485, offset: 0x29485, size: 0x8, addend: 0x0, symName: '__ZN4core3ptr89drop_in_place$LT$core..option..Option$LT$alloc..boxed..Box$LT$syn..expr..Expr$GT$$GT$$GT$17hb96908a4ade2903aE', symObjAddr: 0x70E0, symBinAddr: 0x8730, symSize: 0x50 }
  - { offsetInCU: 0x29635, offset: 0x29635, size: 0x8, addend: 0x0, symName: '__ZN4core3ptr89drop_in_place$LT$syn..punctuated..Punctuated$LT$syn..pat..Pat$C$syn..token..Comma$GT$$GT$17h354966812ec8087cE', symObjAddr: 0x7130, symBinAddr: 0x8780, symSize: 0x120 }
  - { offsetInCU: 0x29AEF, offset: 0x29AEF, size: 0x8, addend: 0x0, symName: '__ZN4core3ptr90drop_in_place$LT$core..option..Option$LT$alloc..boxed..Box$LT$syn..data..Field$GT$$GT$$GT$17h346e8a19824b8297E', symObjAddr: 0x7250, symBinAddr: 0x88A0, symSize: 0x200 }
  - { offsetInCU: 0x2A398, offset: 0x2A398, size: 0x8, addend: 0x0, symName: '__ZN4core3ptr91drop_in_place$LT$syn..punctuated..Punctuated$LT$syn..expr..Expr$C$syn..token..Comma$GT$$GT$17h2b5a2f282b270662E', symObjAddr: 0x7450, symBinAddr: 0x8AA0, symSize: 0x120 }
  - { offsetInCU: 0x2A871, offset: 0x2A871, size: 0x8, addend: 0x0, symName: '__ZN4core3ptr92drop_in_place$LT$core..option..Option$LT$alloc..boxed..Box$LT$syn..data..Variant$GT$$GT$$GT$17he2a2a3ed8bb5e139E', symObjAddr: 0x7570, symBinAddr: 0x8BC0, symSize: 0x190 }
  - { offsetInCU: 0x2AEF1, offset: 0x2AEF1, size: 0x8, addend: 0x0, symName: '__ZN4core3ptr94drop_in_place$LT$syn..punctuated..Punctuated$LT$syn..pat..FieldPat$C$syn..token..Comma$GT$$GT$17h7d4ebe0faaa8607fE', symObjAddr: 0x7700, symBinAddr: 0x8D50, symSize: 0xF0 }
  - { offsetInCU: 0x2B1BB, offset: 0x2B1BB, size: 0x8, addend: 0x0, symName: '__ZN4core3ptr94drop_in_place$LT$syn..punctuated..Punctuated$LT$syn..ty..BareFnArg$C$syn..token..Comma$GT$$GT$17h42dfede05f380d1aE', symObjAddr: 0x77F0, symBinAddr: 0x8E40, symSize: 0xF0 }
  - { offsetInCU: 0x2B485, offset: 0x2B485, size: 0x8, addend: 0x0, symName: '__ZN4core3ptr96drop_in_place$LT$core..option..Option$LT$alloc..boxed..Box$LT$syn..path..PathSegment$GT$$GT$$GT$17hb26271e9359f3954E', symObjAddr: 0x78E0, symBinAddr: 0x8F30, symSize: 0x180 }
  - { offsetInCU: 0x2BB35, offset: 0x2BB35, size: 0x8, addend: 0x0, symName: '__ZN4core3ptr97drop_in_place$LT$core..result..Result$LT$$RF$syn..attr..MetaNameValue$C$syn..error..Error$GT$$GT$17h55cd2b1c4245b412E', symObjAddr: 0x7A60, symBinAddr: 0x90B0, symSize: 0x90 }
  - { offsetInCU: 0x2BDCF, offset: 0x2BDCF, size: 0x8, addend: 0x0, symName: '__ZN4core3ptr97drop_in_place$LT$syn..punctuated..Punctuated$LT$syn..expr..FieldValue$C$syn..token..Comma$GT$$GT$17h4d15877e9b50827dE', symObjAddr: 0x7AF0, symBinAddr: 0x9140, symSize: 0xF0 }
  - { offsetInCU: 0x2C115, offset: 0x2C115, size: 0x8, addend: 0x0, symName: '__ZN4core3ptr98drop_in_place$LT$syn..punctuated..Punctuated$LT$syn..lifetime..Lifetime$C$syn..token..Plus$GT$$GT$17h39801c0a371aca46E', symObjAddr: 0x7BE0, symBinAddr: 0x9230, symSize: 0xC0 }
  - { offsetInCU: 0x2C79D, offset: 0x2C79D, size: 0x8, addend: 0x0, symName: '__ZN4core3ops8function5impls80_$LT$impl$u20$core..ops..function..FnOnce$LT$A$GT$$u20$for$u20$$RF$mut$u20$F$GT$9call_once17hbaff295e3f085703E', symObjAddr: 0x10, symBinAddr: 0x1660, symSize: 0x150 }
  - { offsetInCU: 0x2C8E3, offset: 0x2C8E3, size: 0x8, addend: 0x0, symName: '__ZN4core3ops8function5impls80_$LT$impl$u20$core..ops..function..FnOnce$LT$A$GT$$u20$for$u20$$RF$mut$u20$F$GT$9call_once17he593dd14f5a6f7c6E', symObjAddr: 0x160, symBinAddr: 0x17B0, symSize: 0x2E0 }
  - { offsetInCU: 0x2D5DC, offset: 0x2D5DC, size: 0x8, addend: 0x0, symName: __ZN10proc_macro6bridge6client14HandleCounters3get17h02da01958788119eE, symObjAddr: 0x0, symBinAddr: 0x1650, symSize: 0x10 }
  - { offsetInCU: 0x35D51, offset: 0x35D51, size: 0x8, addend: 0x0, symName: __ZN10num_derive9NumTraits3new17h6cb10d979c5fed9dE, symObjAddr: 0x7CA0, symBinAddr: 0x92F0, symSize: 0x2D0 }
  - { offsetInCU: 0x36499, offset: 0x36499, size: 0x8, addend: 0x0, symName: __ZN10num_derive9NumTraits4wrap17h145b7b769657f2e6E, symObjAddr: 0x7F70, symBinAddr: 0x95C0, symSize: 0x490 }
  - { offsetInCU: 0x1E, offset: 0x39D08, size: 0x8, addend: 0x0, symName: '__ZN4core3ptr100drop_in_place$LT$core..option..Option$LT$alloc..boxed..Box$LT$syn..path..GenericArgument$GT$$GT$$GT$17ha77889711c99acb5E', symObjAddr: 0x0, symBinAddr: 0x22920, symSize: 0x50 }
  - { offsetInCU: 0x19F8, offset: 0x3B6E2, size: 0x8, addend: 0x0, symName: '__ZN4core3ptr100drop_in_place$LT$core..option..Option$LT$alloc..boxed..Box$LT$syn..path..GenericArgument$GT$$GT$$GT$17ha77889711c99acb5E', symObjAddr: 0x0, symBinAddr: 0x22920, symSize: 0x50 }
  - { offsetInCU: 0x1B89, offset: 0x3B873, size: 0x8, addend: 0x0, symName: '__ZN4core3ptr101drop_in_place$LT$core..option..Option$LT$alloc..boxed..Box$LT$syn..generics..GenericParam$GT$$GT$$GT$17ha84170fe8ae7d829E', symObjAddr: 0x50, symBinAddr: 0x22970, symSize: 0x50 }
  - { offsetInCU: 0x1D77, offset: 0x3BA61, size: 0x8, addend: 0x0, symName: '__ZN4core3ptr102drop_in_place$LT$syn..punctuated..Punctuated$LT$syn..path..GenericArgument$C$syn..token..Comma$GT$$GT$17ha592b814e65b094aE.llvm.13587701521511034753', symObjAddr: 0xA0, symBinAddr: 0x229C0, symSize: 0xF0 }
  - { offsetInCU: 0x2060, offset: 0x3BD4A, size: 0x8, addend: 0x0, symName: '__ZN4core3ptr103drop_in_place$LT$core..option..Option$LT$alloc..boxed..Box$LT$syn..generics..TypeParamBound$GT$$GT$$GT$17hf277ec229d0aa024E.llvm.13587701521511034753', symObjAddr: 0x190, symBinAddr: 0x22AB0, symSize: 0x50 }
  - { offsetInCU: 0x21F1, offset: 0x3BEDB, size: 0x8, addend: 0x0, symName: '__ZN4core3ptr103drop_in_place$LT$core..option..Option$LT$alloc..boxed..Box$LT$syn..generics..WherePredicate$GT$$GT$$GT$17h4639130315164223E', symObjAddr: 0x1E0, symBinAddr: 0x22B00, symSize: 0x50 }
  - { offsetInCU: 0x241D, offset: 0x3C107, size: 0x8, addend: 0x0, symName: '__ZN4core3ptr103drop_in_place$LT$syn..punctuated..Punctuated$LT$syn..generics..GenericParam$C$syn..token..Comma$GT$$GT$17hd6b8bba176dc3af2E.llvm.13587701521511034753', symObjAddr: 0x230, symBinAddr: 0x22B50, symSize: 0x1A0 }
  - { offsetInCU: 0x2AC5, offset: 0x3C7AF, size: 0x8, addend: 0x0, symName: '__ZN4core3ptr104drop_in_place$LT$syn..punctuated..Punctuated$LT$syn..generics..TypeParamBound$C$syn..token..Plus$GT$$GT$17hf6ed100b7601117bE.llvm.13587701521511034753', symObjAddr: 0x3D0, symBinAddr: 0x22CF0, symSize: 0x230 }
  - { offsetInCU: 0x33F6, offset: 0x3D0E0, size: 0x8, addend: 0x0, symName: '__ZN4core3ptr105drop_in_place$LT$syn..punctuated..Punctuated$LT$syn..generics..WherePredicate$C$syn..token..Comma$GT$$GT$17he2bbc2b3335f0fd3E', symObjAddr: 0x600, symBinAddr: 0x22F20, symSize: 0x190 }
  - { offsetInCU: 0x3AC7, offset: 0x3D7B1, size: 0x8, addend: 0x0, symName: '__ZN4core3ptr116drop_in_place$LT$core..option..Option$LT$$LP$syn..token..Else$C$alloc..boxed..Box$LT$syn..expr..Expr$GT$$RP$$GT$$GT$17h97a9cf8430f5e76bE', symObjAddr: 0x790, symBinAddr: 0x230B0, symSize: 0x50 }
  - { offsetInCU: 0x3C85, offset: 0x3D96F, size: 0x8, addend: 0x0, symName: '__ZN4core3ptr126drop_in_place$LT$core..option..Option$LT$$LP$syn..token..And$C$core..option..Option$LT$syn..lifetime..Lifetime$GT$$RP$$GT$$GT$17h116971b5d9b52ba1E', symObjAddr: 0x7E0, symBinAddr: 0x23100, symSize: 0x30 }
  - { offsetInCU: 0x3F15, offset: 0x3DBFF, size: 0x8, addend: 0x0, symName: '__ZN4core3ptr33drop_in_place$LT$syn..ty..Abi$GT$17hbc166d8458fea853E', symObjAddr: 0x810, symBinAddr: 0x23130, symSize: 0x60 }
  - { offsetInCU: 0x3F31, offset: 0x3DC1B, size: 0x8, addend: 0x0, symName: '__ZN4core3ptr33drop_in_place$LT$syn..ty..Abi$GT$17hbc166d8458fea853E', symObjAddr: 0x810, symBinAddr: 0x23130, symSize: 0x60 }
  - { offsetInCU: 0x422B, offset: 0x3DF15, size: 0x8, addend: 0x0, symName: '__ZN4core3ptr34drop_in_place$LT$syn..lit..Lit$GT$17h2261e216fb4a351cE', symObjAddr: 0x870, symBinAddr: 0x23190, symSize: 0x110 }
  - { offsetInCU: 0x47C2, offset: 0x3E4AC, size: 0x8, addend: 0x0, symName: '__ZN4core3ptr34drop_in_place$LT$syn..pat..Pat$GT$17h8cc743d7ea752f86E.llvm.13587701521511034753', symObjAddr: 0x980, symBinAddr: 0x232A0, symSize: 0x1110 }
  - { offsetInCU: 0x8B1B, offset: 0x42805, size: 0x8, addend: 0x0, symName: '__ZN4core3ptr34drop_in_place$LT$syn..ty..Type$GT$17h9d994f97b8c5d57eE.llvm.13587701521511034753', symObjAddr: 0x1A90, symBinAddr: 0x243B0, symSize: 0x4E0 }
  - { offsetInCU: 0x9BE4, offset: 0x438CE, size: 0x8, addend: 0x0, symName: '__ZN4core3ptr35drop_in_place$LT$syn..expr..Arm$GT$17ha397b661ab0aa9c4E.llvm.13587701521511034753', symObjAddr: 0x1F70, symBinAddr: 0x24890, symSize: 0x190 }
  - { offsetInCU: 0xA23A, offset: 0x43F24, size: 0x8, addend: 0x0, symName: '__ZN4core3ptr36drop_in_place$LT$syn..attr..Meta$GT$17h6be54bb5bd7d1d34E.llvm.13587701521511034753', symObjAddr: 0x2100, symBinAddr: 0x24A20, symSize: 0x300 }
  - { offsetInCU: 0xB185, offset: 0x44E6F, size: 0x8, addend: 0x0, symName: '__ZN4core3ptr36drop_in_place$LT$syn..expr..Expr$GT$17heba164088c166752E.llvm.13587701521511034753', symObjAddr: 0x2400, symBinAddr: 0x24D20, symSize: 0x2830 }
  - { offsetInCU: 0x15117, offset: 0x4EE01, size: 0x8, addend: 0x0, symName: '__ZN4core3ptr36drop_in_place$LT$syn..item..Item$GT$17h0a1f1a009ae18577E', symObjAddr: 0x4C30, symBinAddr: 0x27550, symSize: 0x17D0 }
  - { offsetInCU: 0x1A616, offset: 0x54300, size: 0x8, addend: 0x0, symName: '__ZN4core3ptr36drop_in_place$LT$syn..mac..Macro$GT$17h700880a4bff8e247E', symObjAddr: 0x6400, symBinAddr: 0x28D20, symSize: 0xE0 }
  - { offsetInCU: 0x1A95E, offset: 0x54648, size: 0x8, addend: 0x0, symName: '__ZN4core3ptr36drop_in_place$LT$syn..path..Path$GT$17h6886f5090d1ceb27E.llvm.13587701521511034753', symObjAddr: 0x64E0, symBinAddr: 0x28E00, symSize: 0x150 }
  - { offsetInCU: 0x1AEEC, offset: 0x54BD6, size: 0x8, addend: 0x0, symName: '__ZN4core3ptr36drop_in_place$LT$syn..stmt..Stmt$GT$17hc8f63ec2792fd18eE.llvm.13587701521511034753', symObjAddr: 0x6630, symBinAddr: 0x28F50, symSize: 0x380 }
  - { offsetInCU: 0x1BACB, offset: 0x557B5, size: 0x8, addend: 0x0, symName: '__ZN4core3ptr37drop_in_place$LT$syn..data..Field$GT$17hfa88936e725378c2E.llvm.13587701521511034753', symObjAddr: 0x69B0, symBinAddr: 0x292D0, symSize: 0x180 }
  - { offsetInCU: 0x1C090, offset: 0x55D7A, size: 0x8, addend: 0x0, symName: '__ZN4core3ptr37drop_in_place$LT$syn..item..FnArg$GT$17hf5e3cec6dabf4481E', symObjAddr: 0x6B30, symBinAddr: 0x29450, symSize: 0x230 }
  - { offsetInCU: 0x1C942, offset: 0x5662C, size: 0x8, addend: 0x0, symName: '__ZN4core3ptr37drop_in_place$LT$syn..stmt..Block$GT$17h18abff8b81bdc406E', symObjAddr: 0x6D60, symBinAddr: 0x29680, symSize: 0xD0 }
  - { offsetInCU: 0x1CBE6, offset: 0x568D0, size: 0x8, addend: 0x0, symName: '__ZN4core3ptr38drop_in_place$LT$syn..expr..Member$GT$17hefd04f0cd3a4c3faE.llvm.13587701521511034753', symObjAddr: 0x6E30, symBinAddr: 0x29750, symSize: 0x30 }
  - { offsetInCU: 0x1CCE3, offset: 0x569CD, size: 0x8, addend: 0x0, symName: '__ZN4core3ptr38drop_in_place$LT$syn..pat..PatType$GT$17hbca59b499304e7e0E', symObjAddr: 0x6E60, symBinAddr: 0x29780, symSize: 0x140 }
  - { offsetInCU: 0x1D25F, offset: 0x56F49, size: 0x8, addend: 0x0, symName: '__ZN4core3ptr39drop_in_place$LT$proc_macro2..Ident$GT$17h8996439a97d51cbbE.llvm.13587701521511034753', symObjAddr: 0x6FA0, symBinAddr: 0x298C0, symSize: 0x30 }
  - { offsetInCU: 0x1D39A, offset: 0x57084, size: 0x8, addend: 0x0, symName: '__ZN4core3ptr39drop_in_place$LT$syn..data..Variant$GT$17h3428a3dc4d32d041E.llvm.13587701521511034753', symObjAddr: 0x6FD0, symBinAddr: 0x298F0, symSize: 0x2F0 }
  - { offsetInCU: 0x1DFA8, offset: 0x57C92, size: 0x8, addend: 0x0, symName: '__ZN4core3ptr39drop_in_place$LT$syn..item..UseTree$GT$17h4c182a1ecdfd5b39E', symObjAddr: 0x72C0, symBinAddr: 0x29BE0, symSize: 0x1D0 }
  - { offsetInCU: 0x1E6C7, offset: 0x583B1, size: 0x8, addend: 0x0, symName: '__ZN4core3ptr40drop_in_place$LT$syn..item..ImplItem$GT$17h780710861439aa63E', symObjAddr: 0x7490, symBinAddr: 0x29DB0, symSize: 0x240 }
  - { offsetInCU: 0x1ECC2, offset: 0x589AC, size: 0x8, addend: 0x0, symName: '__ZN4core3ptr40drop_in_place$LT$syn..item..Receiver$GT$17h8a2fdd7b2d7d2630E', symObjAddr: 0x76D0, symBinAddr: 0x29FF0, symSize: 0x130 }
  - { offsetInCU: 0x1F295, offset: 0x58F7F, size: 0x8, addend: 0x0, symName: '__ZN4core3ptr40drop_in_place$LT$syn..item..Variadic$GT$17h7e76f2058839a40eE', symObjAddr: 0x7800, symBinAddr: 0x2A120, symSize: 0x120 }
  - { offsetInCU: 0x1F70C, offset: 0x593F6, size: 0x8, addend: 0x0, symName: '__ZN4core3ptr40drop_in_place$LT$syn..ty..ReturnType$GT$17h934b3c14af36294aE.llvm.13587701521511034753', symObjAddr: 0x7920, symBinAddr: 0x2A240, symSize: 0x50 }
  - { offsetInCU: 0x1F9D3, offset: 0x596BD, size: 0x8, addend: 0x0, symName: '__ZN4core3ptr41drop_in_place$LT$syn..item..Signature$GT$17h9ce3cf96f0e2ab55E', symObjAddr: 0x7970, symBinAddr: 0x2A290, symSize: 0x280 }
  - { offsetInCU: 0x204C2, offset: 0x5A1AC, size: 0x8, addend: 0x0, symName: '__ZN4core3ptr41drop_in_place$LT$syn..item..TraitItem$GT$17h8c3a2af82ed47437E', symObjAddr: 0x7BF0, symBinAddr: 0x2A510, symSize: 0x3E0 }
  - { offsetInCU: 0x20FE8, offset: 0x5ACD2, size: 0x8, addend: 0x0, symName: '__ZN4core3ptr42drop_in_place$LT$syn..item..ImplItemFn$GT$17h2b47cecaea9b1551E', symObjAddr: 0x7FD0, symBinAddr: 0x2A8F0, symSize: 0x230 }
  - { offsetInCU: 0x21743, offset: 0x5B42D, size: 0x8, addend: 0x0, symName: '__ZN4core3ptr42drop_in_place$LT$syn..path..Constraint$GT$17hacbb10e496495c94E', symObjAddr: 0x8200, symBinAddr: 0x2AB20, symSize: 0x160 }
  - { offsetInCU: 0x21DD9, offset: 0x5BAC3, size: 0x8, addend: 0x0, symName: '__ZN4core3ptr43drop_in_place$LT$proc_macro2..TokenTree$GT$17h1df33d6a3215cf2dE.llvm.13587701521511034753', symObjAddr: 0x8360, symBinAddr: 0x2AC80, symSize: 0xB0 }
  - { offsetInCU: 0x220ED, offset: 0x5BDD7, size: 0x8, addend: 0x0, symName: '__ZN4core3ptr43drop_in_place$LT$syn..data..FieldsNamed$GT$17hb3373244ef9098edE', symObjAddr: 0x8410, symBinAddr: 0x2AD30, symSize: 0x120 }
  - { offsetInCU: 0x22575, offset: 0x5C25F, size: 0x8, addend: 0x0, symName: '__ZN4core3ptr43drop_in_place$LT$syn..item..ForeignItem$GT$17h09f3169cceae39bfE', symObjAddr: 0x8530, symBinAddr: 0x2AE50, symSize: 0x330 }
  - { offsetInCU: 0x22EFC, offset: 0x5CBE6, size: 0x8, addend: 0x0, symName: '__ZN4core3ptr43drop_in_place$LT$syn..path..PathSegment$GT$17hea9035029214d7e0E', symObjAddr: 0x8860, symBinAddr: 0x2B180, symSize: 0x170 }
  - { offsetInCU: 0x234A0, offset: 0x5D18A, size: 0x8, addend: 0x0, symName: '__ZN4core3ptr44drop_in_place$LT$syn..generics..Generics$GT$17h9864adfbe1c6bbe8E', symObjAddr: 0x89D0, symBinAddr: 0x2B2F0, symSize: 0x220 }
  - { offsetInCU: 0x23D1D, offset: 0x5DA07, size: 0x8, addend: 0x0, symName: '__ZN4core3ptr44drop_in_place$LT$syn..item..ImplItemType$GT$17h6c8afd0ea6c4d2e5E', symObjAddr: 0x8BF0, symBinAddr: 0x2B510, symSize: 0x1D0 }
  - { offsetInCU: 0x24305, offset: 0x5DFEF, size: 0x8, addend: 0x0, symName: '__ZN4core3ptr44drop_in_place$LT$syn..lifetime..Lifetime$GT$17h06e168a44c33e1b0E.llvm.13587701521511034753', symObjAddr: 0x8DC0, symBinAddr: 0x2B6E0, symSize: 0x30 }
  - { offsetInCU: 0x2445F, offset: 0x5E149, size: 0x8, addend: 0x0, symName: '__ZN4core3ptr45drop_in_place$LT$proc_macro2..TokenStream$GT$17hd40e6c5e52e979f7E.llvm.13587701521511034753', symObjAddr: 0x8DF0, symBinAddr: 0x2B710, symSize: 0x70 }
  - { offsetInCU: 0x245C6, offset: 0x5E2B0, size: 0x8, addend: 0x0, symName: '__ZN4core3ptr45drop_in_place$LT$syn..generics..TypeParam$GT$17h5fb083aeb6c9b8f3E.llvm.13587701521511034753', symObjAddr: 0x8E60, symBinAddr: 0x2B780, symSize: 0x230 }
  - { offsetInCU: 0x24E0B, offset: 0x5EAF5, size: 0x8, addend: 0x0, symName: '__ZN4core3ptr45drop_in_place$LT$syn..item..ImplItemConst$GT$17h8d9c6861e7ddb0e5E', symObjAddr: 0x9090, symBinAddr: 0x2B9B0, symSize: 0x200 }
  - { offsetInCU: 0x25431, offset: 0x5F11B, size: 0x8, addend: 0x0, symName: '__ZN4core3ptr45drop_in_place$LT$syn..item..TraitItemType$GT$17h87c90d494f276381E', symObjAddr: 0x9290, symBinAddr: 0x2BBB0, symSize: 0x290 }
  - { offsetInCU: 0x25D42, offset: 0x5FA2C, size: 0x8, addend: 0x0, symName: '__ZN4core3ptr45drop_in_place$LT$syn..path..PathArguments$GT$17h6b3c7368bc3a8981E.llvm.13587701521511034753', symObjAddr: 0x9520, symBinAddr: 0x2BE40, symSize: 0xA0 }
  - { offsetInCU: 0x25F17, offset: 0x5FC01, size: 0x8, addend: 0x0, symName: '__ZN4core3ptr46drop_in_place$LT$syn..generics..ConstParam$GT$17h77fcbd78891cc576E.llvm.13587701521511034753', symObjAddr: 0x95C0, symBinAddr: 0x2BEE0, symSize: 0x150 }
  - { offsetInCU: 0x26318, offset: 0x60002, size: 0x8, addend: 0x0, symName: '__ZN4core3ptr46drop_in_place$LT$syn..item..TraitItemConst$GT$17h808b32438717c8f1E', symObjAddr: 0x9710, symBinAddr: 0x2C030, symSize: 0x1A0 }
  - { offsetInCU: 0x267CC, offset: 0x604B6, size: 0x8, addend: 0x0, symName: '__ZN4core3ptr47drop_in_place$LT$syn..generics..WhereClause$GT$17h0fc9c77315cbc90cE', symObjAddr: 0x98B0, symBinAddr: 0x2C1D0, symSize: 0x120 }
  - { offsetInCU: 0x26C16, offset: 0x60900, size: 0x8, addend: 0x0, symName: '__ZN4core3ptr47drop_in_place$LT$syn..item..ForeignItemType$GT$17h70b436efe122cebbE', symObjAddr: 0x99D0, symBinAddr: 0x2C2F0, symSize: 0x1A0 }
  - { offsetInCU: 0x2725B, offset: 0x60F45, size: 0x8, addend: 0x0, symName: '__ZN4core3ptr47drop_in_place$LT$syn..path..GenericArgument$GT$17h67b67e0d667454ffE', symObjAddr: 0x9B70, symBinAddr: 0x2C490, symSize: 0x1C0 }
  - { offsetInCU: 0x2770E, offset: 0x613F8, size: 0x8, addend: 0x0, symName: '__ZN4core3ptr48drop_in_place$LT$syn..generics..GenericParam$GT$17h2afded9df57dd765E', symObjAddr: 0x9D30, symBinAddr: 0x2C650, symSize: 0x150 }
  - { offsetInCU: 0x27B00, offset: 0x617EA, size: 0x8, addend: 0x0, symName: '__ZN4core3ptr49drop_in_place$LT$syn..generics..LifetimeParam$GT$17he250dbb21d5d1ee9E.llvm.13587701521511034753', symObjAddr: 0x9E80, symBinAddr: 0x2C7A0, symSize: 0xF0 }
  - { offsetInCU: 0x27EDB, offset: 0x61BC5, size: 0x8, addend: 0x0, symName: '__ZN4core3ptr49drop_in_place$LT$syn..generics..PredicateType$GT$17h39b4092553a49c65E.llvm.13587701521511034753', symObjAddr: 0x9F70, symBinAddr: 0x2C890, symSize: 0x170 }
  - { offsetInCU: 0x28357, offset: 0x62041, size: 0x8, addend: 0x0, symName: '__ZN4core3ptr49drop_in_place$LT$syn..item..ForeignItemStatic$GT$17h315909564aadab59E', symObjAddr: 0xA0E0, symBinAddr: 0x2CA00, symSize: 0x180 }
  - { offsetInCU: 0x28A30, offset: 0x6271A, size: 0x8, addend: 0x0, symName: '__ZN4core3ptr50drop_in_place$LT$$u5b$syn..item..ImplItem$u5d$$GT$17h9b5a269fa0be1028E', symObjAddr: 0xA260, symBinAddr: 0x2CB80, symSize: 0x230 }
  - { offsetInCU: 0x28D58, offset: 0x62A42, size: 0x8, addend: 0x0, symName: '__ZN4core3ptr50drop_in_place$LT$syn..generics..TypeParamBound$GT$17h1a50b8c006e46a6cE.llvm.13587701521511034753', symObjAddr: 0xA490, symBinAddr: 0x2CDB0, symSize: 0xA0 }
  - { offsetInCU: 0x28EDE, offset: 0x62BC8, size: 0x8, addend: 0x0, symName: '__ZN4core3ptr50drop_in_place$LT$syn..generics..WherePredicate$GT$17h133b3e3918510bd9E', symObjAddr: 0xA530, symBinAddr: 0x2CE50, symSize: 0xA0 }
  - { offsetInCU: 0x2908B, offset: 0x62D75, size: 0x8, addend: 0x0, symName: '__ZN4core3ptr51drop_in_place$LT$$u5b$syn..item..TraitItem$u5d$$GT$17h9cc4b05745092fc4E', symObjAddr: 0xA5D0, symBinAddr: 0x2CEF0, symSize: 0x3F0 }
  - { offsetInCU: 0x298E3, offset: 0x635CD, size: 0x8, addend: 0x0, symName: '__ZN4core3ptr52drop_in_place$LT$syn..restriction..VisRestricted$GT$17h0c2a01b0b0a51395E', symObjAddr: 0xA9C0, symBinAddr: 0x2D2E0, symSize: 0x50 }
  - { offsetInCU: 0x29A7C, offset: 0x63766, size: 0x8, addend: 0x0, symName: '__ZN4core3ptr53drop_in_place$LT$$u5b$syn..item..ForeignItem$u5d$$GT$17h2d5dfd38179c114aE', symObjAddr: 0xAA10, symBinAddr: 0x2D330, symSize: 0x360 }
  - { offsetInCU: 0x2A1FA, offset: 0x63EE4, size: 0x8, addend: 0x0, symName: '__ZN4core3ptr58drop_in_place$LT$alloc..vec..Vec$LT$syn..expr..Arm$GT$$GT$17hb2c5b7adca149137E', symObjAddr: 0xAD70, symBinAddr: 0x2D690, symSize: 0xD0 }
  - { offsetInCU: 0x2A487, offset: 0x64171, size: 0x8, addend: 0x0, symName: '__ZN4core3ptr59drop_in_place$LT$alloc..boxed..Box$LT$syn..pat..Pat$GT$$GT$17hd69c5cd79168fed8E.llvm.13587701521511034753', symObjAddr: 0xAE40, symBinAddr: 0x2D760, symSize: 0x50 }
  - { offsetInCU: 0x2A5E2, offset: 0x642CC, size: 0x8, addend: 0x0, symName: '__ZN4core3ptr59drop_in_place$LT$alloc..boxed..Box$LT$syn..ty..Type$GT$$GT$17h5996230ea326072bE', symObjAddr: 0xAE90, symBinAddr: 0x2D7B0, symSize: 0x50 }
  - { offsetInCU: 0x2A73D, offset: 0x64427, size: 0x8, addend: 0x0, symName: '__ZN4core3ptr59drop_in_place$LT$alloc..vec..Vec$LT$syn..item..Item$GT$$GT$17hc5e90f4316d6ba0aE', symObjAddr: 0xAEE0, symBinAddr: 0x2D800, symSize: 0xD0 }
  - { offsetInCU: 0x2A9CA, offset: 0x646B4, size: 0x8, addend: 0x0, symName: '__ZN4core3ptr61drop_in_place$LT$alloc..boxed..Box$LT$syn..expr..Expr$GT$$GT$17h8b0541d699dad651E', symObjAddr: 0xAFB0, symBinAddr: 0x2D8D0, symSize: 0x50 }
  - { offsetInCU: 0x2AB25, offset: 0x6480F, size: 0x8, addend: 0x0, symName: '__ZN4core3ptr61drop_in_place$LT$alloc..boxed..Box$LT$syn..path..Path$GT$$GT$17hf49f0cc467e8a8bfE', symObjAddr: 0xB000, symBinAddr: 0x2D920, symSize: 0xF0 }
  - { offsetInCU: 0x2B00B, offset: 0x64CF5, size: 0x8, addend: 0x0, symName: '__ZN4core3ptr61drop_in_place$LT$syn..path..ParenthesizedGenericArguments$GT$17h7265c22c4c879bdaE', symObjAddr: 0xB0F0, symBinAddr: 0x2DA10, symSize: 0x170 }
  - { offsetInCU: 0x2B5D2, offset: 0x652BC, size: 0x8, addend: 0x0, symName: '__ZN4core3ptr62drop_in_place$LT$alloc..boxed..Box$LT$syn..data..Field$GT$$GT$17h1cac78af1fd02f16E', symObjAddr: 0xB260, symBinAddr: 0x2DB80, symSize: 0x50 }
  - { offsetInCU: 0x2B74C, offset: 0x65436, size: 0x8, addend: 0x0, symName: '__ZN4core3ptr62drop_in_place$LT$alloc..boxed..Box$LT$syn..item..FnArg$GT$$GT$17h2c78e4d996a37536E', symObjAddr: 0xB2B0, symBinAddr: 0x2DBD0, symSize: 0x60 }
  - { offsetInCU: 0x2B8C4, offset: 0x655AE, size: 0x8, addend: 0x0, symName: '__ZN4core3ptr62drop_in_place$LT$alloc..boxed..Box$LT$syn..stmt..Block$GT$$GT$17h42c3d2f835dc9537E', symObjAddr: 0xB310, symBinAddr: 0x2DC30, symSize: 0xE0 }
  - { offsetInCU: 0x2BCA5, offset: 0x6598F, size: 0x8, addend: 0x0, symName: '__ZN4core3ptr62drop_in_place$LT$syn..path..AngleBracketedGenericArguments$GT$17h4cd759885661dd4aE', symObjAddr: 0xB3F0, symBinAddr: 0x2DD10, symSize: 0x120 }
  - { offsetInCU: 0x2C0EF, offset: 0x65DD9, size: 0x8, addend: 0x0, symName: '__ZN4core3ptr63drop_in_place$LT$alloc..vec..Vec$LT$syn..item..ImplItem$GT$$GT$17he35ef8130551fec1E', symObjAddr: 0xB510, symBinAddr: 0x2DE30, symSize: 0x80 }
  - { offsetInCU: 0x2C36D, offset: 0x66057, size: 0x8, addend: 0x0, symName: '__ZN4core3ptr64drop_in_place$LT$alloc..boxed..Box$LT$syn..data..Variant$GT$$GT$17h18dee5b2d562a05fE', symObjAddr: 0xB590, symBinAddr: 0x2DEB0, symSize: 0x50 }
  - { offsetInCU: 0x2C4C8, offset: 0x661B2, size: 0x8, addend: 0x0, symName: '__ZN4core3ptr64drop_in_place$LT$alloc..boxed..Box$LT$syn..item..UseTree$GT$$GT$17h4b14229705350fe2E', symObjAddr: 0xB5E0, symBinAddr: 0x2DF00, symSize: 0x50 }
  - { offsetInCU: 0x2C642, offset: 0x6632C, size: 0x8, addend: 0x0, symName: '__ZN4core3ptr64drop_in_place$LT$alloc..boxed..Box$LT$syn..pat..FieldPat$GT$$GT$17h9935199ab6febb82E', symObjAddr: 0xB630, symBinAddr: 0x2DF50, symSize: 0x140 }
  - { offsetInCU: 0x2CCE3, offset: 0x669CD, size: 0x8, addend: 0x0, symName: '__ZN4core3ptr64drop_in_place$LT$alloc..boxed..Box$LT$syn..ty..BareFnArg$GT$$GT$17ha29f685c236ece1aE', symObjAddr: 0xB770, symBinAddr: 0x2E090, symSize: 0x140 }
  - { offsetInCU: 0x2D23B, offset: 0x66F25, size: 0x8, addend: 0x0, symName: '__ZN4core3ptr64drop_in_place$LT$alloc..vec..Vec$LT$syn..attr..Attribute$GT$$GT$17h22f8d3f9c1287f4dE', symObjAddr: 0xB8B0, symBinAddr: 0x2E1D0, symSize: 0xD0 }
  - { offsetInCU: 0x2D4FC, offset: 0x671E6, size: 0x8, addend: 0x0, symName: '__ZN4core3ptr64drop_in_place$LT$alloc..vec..Vec$LT$syn..item..TraitItem$GT$$GT$17h3ce404a4e6c739ecE', symObjAddr: 0xB980, symBinAddr: 0x2E2A0, symSize: 0x80 }
  - { offsetInCU: 0x2D77A, offset: 0x67464, size: 0x8, addend: 0x0, symName: '__ZN4core3ptr65drop_in_place$LT$$LP$syn..item..FnArg$C$syn..token..Comma$RP$$GT$17h818aa920fdd3a6a1E', symObjAddr: 0xBA00, symBinAddr: 0x2E320, symSize: 0x20 }
  - { offsetInCU: 0x2D813, offset: 0x674FD, size: 0x8, addend: 0x0, symName: '__ZN4core3ptr65drop_in_place$LT$alloc..vec..Vec$LT$proc_macro..TokenTree$GT$$GT$17h51ff9d2cea268346E.llvm.13587701521511034753', symObjAddr: 0xBA20, symBinAddr: 0x2E340, symSize: 0x120 }
  - { offsetInCU: 0x2DB85, offset: 0x6786F, size: 0x8, addend: 0x0, symName: '__ZN4core3ptr65drop_in_place$LT$core..option..Option$LT$syn..expr..Label$GT$$GT$17h6e188cc1869f88c4E', symObjAddr: 0xBB40, symBinAddr: 0x2E460, symSize: 0x30 }
  - { offsetInCU: 0x2DCC0, offset: 0x679AA, size: 0x8, addend: 0x0, symName: '__ZN4core3ptr65drop_in_place$LT$core..option..Option$LT$syn..stmt..Block$GT$$GT$17hf66fb69d259a34efE', symObjAddr: 0xBB70, symBinAddr: 0x2E490, symSize: 0xE0 }
  - { offsetInCU: 0x2DF25, offset: 0x67C0F, size: 0x8, addend: 0x0, symName: '__ZN4core3ptr66drop_in_place$LT$alloc..vec..Vec$LT$syn..item..ForeignItem$GT$$GT$17hae3959bff917d9b3E', symObjAddr: 0xBC50, symBinAddr: 0x2E570, symSize: 0x80 }
  - { offsetInCU: 0x2E1A3, offset: 0x67E8D, size: 0x8, addend: 0x0, symName: '__ZN4core3ptr67drop_in_place$LT$$LP$syn..pat..FieldPat$C$syn..token..Comma$RP$$GT$17h9179c13f8a52dd34E.llvm.13587701521511034753', symObjAddr: 0xBCD0, symBinAddr: 0x2E5F0, symSize: 0x130 }
  - { offsetInCU: 0x2E70D, offset: 0x683F7, size: 0x8, addend: 0x0, symName: '__ZN4core3ptr67drop_in_place$LT$$LP$syn..ty..BareFnArg$C$syn..token..Comma$RP$$GT$17h0e132f8f6d3f6c2aE.llvm.13587701521511034753', symObjAddr: 0xBE00, symBinAddr: 0x2E720, symSize: 0x110 }
  - { offsetInCU: 0x2EB5E, offset: 0x68848, size: 0x8, addend: 0x0, symName: '__ZN4core3ptr67drop_in_place$LT$alloc..boxed..Box$LT$syn..expr..FieldValue$GT$$GT$17hcdc41a6230123b9dE', symObjAddr: 0xBF10, symBinAddr: 0x2E830, symSize: 0x140 }
  - { offsetInCU: 0x2F096, offset: 0x68D80, size: 0x8, addend: 0x0, symName: '__ZN4core3ptr68drop_in_place$LT$alloc..boxed..Box$LT$syn..path..PathSegment$GT$$GT$17h41b59ef50d500acbE', symObjAddr: 0xC050, symBinAddr: 0x2E970, symSize: 0xD0 }
  - { offsetInCU: 0x2F494, offset: 0x6917E, size: 0x8, addend: 0x0, symName: '__ZN4core3ptr69drop_in_place$LT$core..option..Option$LT$syn..stmt..LocalInit$GT$$GT$17h6d6c213e31afea57E', symObjAddr: 0xC120, symBinAddr: 0x2EA40, symSize: 0xC0 }
  - { offsetInCU: 0x2F7BC, offset: 0x694A6, size: 0x8, addend: 0x0, symName: '__ZN4core3ptr70drop_in_place$LT$$LP$syn..expr..FieldValue$C$syn..token..Comma$RP$$GT$17h5a918493c82e7198E.llvm.13587701521511034753', symObjAddr: 0xC1E0, symBinAddr: 0x2EB00, symSize: 0x110 }
  - { offsetInCU: 0x2FBCE, offset: 0x698B8, size: 0x8, addend: 0x0, symName: '__ZN4core3ptr70drop_in_place$LT$core..option..Option$LT$syn..ty..BareVariadic$GT$$GT$17hc2b3f1d6b32099edE', symObjAddr: 0xC2F0, symBinAddr: 0x2EC10, symSize: 0x100 }
  - { offsetInCU: 0x2FFFE, offset: 0x69CE8, size: 0x8, addend: 0x0, symName: '__ZN4core3ptr72drop_in_place$LT$alloc..boxed..Box$LT$syn..path..GenericArgument$GT$$GT$17hfb6a887c5d83aa3aE.llvm.13587701521511034753', symObjAddr: 0xC3F0, symBinAddr: 0x2ED10, symSize: 0x180 }
  - { offsetInCU: 0x304D3, offset: 0x6A1BD, size: 0x8, addend: 0x0, symName: '__ZN4core3ptr73drop_in_place$LT$$LP$syn..path..PathSegment$C$syn..token..PathSep$RP$$GT$17hde90e450e0de3c9eE.llvm.13587701521511034753', symObjAddr: 0xC570, symBinAddr: 0x2EE90, symSize: 0xC0 }
  - { offsetInCU: 0x30799, offset: 0x6A483, size: 0x8, addend: 0x0, symName: '__ZN4core3ptr73drop_in_place$LT$alloc..boxed..Box$LT$syn..generics..GenericParam$GT$$GT$17h935172df8a80e859E', symObjAddr: 0xC630, symBinAddr: 0x2EF50, symSize: 0x80 }
  - { offsetInCU: 0x30911, offset: 0x6A5FB, size: 0x8, addend: 0x0, symName: '__ZN4core3ptr75drop_in_place$LT$$LP$syn..path..GenericArgument$C$syn..token..Comma$RP$$GT$17h69e78250182dede8E.llvm.13587701521511034753', symObjAddr: 0xC6B0, symBinAddr: 0x2EFD0, symSize: 0x180 }
  - { offsetInCU: 0x30C99, offset: 0x6A983, size: 0x8, addend: 0x0, symName: '__ZN4core3ptr75drop_in_place$LT$alloc..boxed..Box$LT$syn..generics..TypeParamBound$GT$$GT$17h23a8537fe7a78cf4E', symObjAddr: 0xC830, symBinAddr: 0x2F150, symSize: 0x160 }
  - { offsetInCU: 0x31236, offset: 0x6AF20, size: 0x8, addend: 0x0, symName: '__ZN4core3ptr75drop_in_place$LT$alloc..boxed..Box$LT$syn..generics..WherePredicate$GT$$GT$17heda73d7139e42274E', symObjAddr: 0xC990, symBinAddr: 0x2F2B0, symSize: 0x80 }
  - { offsetInCU: 0x314CC, offset: 0x6B1B6, size: 0x8, addend: 0x0, symName: '__ZN4core3ptr76drop_in_place$LT$$LP$syn..generics..GenericParam$C$syn..token..Comma$RP$$GT$17h7e286e62b38b567fE.llvm.13587701521511034753', symObjAddr: 0xCA10, symBinAddr: 0x2F330, symSize: 0x40 }
  - { offsetInCU: 0x31508, offset: 0x6B1F2, size: 0x8, addend: 0x0, symName: '__ZN4core3ptr77drop_in_place$LT$$LP$syn..generics..TypeParamBound$C$syn..token..Plus$RP$$GT$17h292c2273e45b1a7aE.llvm.13587701521511034753', symObjAddr: 0xCA50, symBinAddr: 0x2F370, symSize: 0x160 }
  - { offsetInCU: 0x31973, offset: 0x6B65D, size: 0x8, addend: 0x0, symName: '__ZN4core3ptr78drop_in_place$LT$$LP$syn..generics..WherePredicate$C$syn..token..Comma$RP$$GT$17h16981ef600345e46E.llvm.13587701521511034753', symObjAddr: 0xCBB0, symBinAddr: 0x2F4D0, symSize: 0x50 }
  - { offsetInCU: 0x31ACD, offset: 0x6B7B7, size: 0x8, addend: 0x0, symName: '__ZN4core3ptr86drop_in_place$LT$$LP$syn..token..If$C$alloc..boxed..Box$LT$syn..expr..Expr$GT$$RP$$GT$17hf5deeda31abc7ebaE', symObjAddr: 0xCC00, symBinAddr: 0x2F520, symSize: 0x50 }
  - { offsetInCU: 0x31CE2, offset: 0x6B9CC, size: 0x8, addend: 0x0, symName: '__ZN4core3ptr86drop_in_place$LT$syn..punctuated..Punctuated$LT$syn..pat..Pat$C$syn..token..Or$GT$$GT$17h210796e05836243bE', symObjAddr: 0xCC50, symBinAddr: 0x2F570, symSize: 0x120 }
  - { offsetInCU: 0x3213F, offset: 0x6BE29, size: 0x8, addend: 0x0, symName: '__ZN4core3ptr87drop_in_place$LT$$LP$alloc..boxed..Box$LT$syn..pat..Pat$GT$$C$syn..token..Colon$RP$$GT$17hf37382f4a4346cdfE', symObjAddr: 0xCD70, symBinAddr: 0x2F690, symSize: 0x50 }
  - { offsetInCU: 0x322B9, offset: 0x6BFA3, size: 0x8, addend: 0x0, symName: '__ZN4core3ptr87drop_in_place$LT$core..option..Option$LT$alloc..boxed..Box$LT$syn..ty..Type$GT$$GT$$GT$17h6e0aa39bd503e981E', symObjAddr: 0xCDC0, symBinAddr: 0x2F6E0, symSize: 0x50 }
  - { offsetInCU: 0x3242B, offset: 0x6C115, size: 0x8, addend: 0x0, symName: '__ZN4core3ptr89drop_in_place$LT$core..option..Option$LT$alloc..boxed..Box$LT$syn..expr..Expr$GT$$GT$$GT$17hb96908a4ade2903aE', symObjAddr: 0xCE10, symBinAddr: 0x2F730, symSize: 0x50 }
  - { offsetInCU: 0x3259D, offset: 0x6C287, size: 0x8, addend: 0x0, symName: '__ZN4core3ptr89drop_in_place$LT$syn..punctuated..Punctuated$LT$syn..ty..Type$C$syn..token..Comma$GT$$GT$17h851283f3bd108d47E.llvm.13587701521511034753', symObjAddr: 0xCE60, symBinAddr: 0x2F780, symSize: 0x120 }
  - { offsetInCU: 0x329E7, offset: 0x6C6D1, size: 0x8, addend: 0x0, symName: '__ZN4core3ptr90drop_in_place$LT$core..option..Option$LT$alloc..boxed..Box$LT$syn..data..Field$GT$$GT$$GT$17h346e8a19824b8297E', symObjAddr: 0xCF80, symBinAddr: 0x2F8A0, symSize: 0x50 }
  - { offsetInCU: 0x32B59, offset: 0x6C843, size: 0x8, addend: 0x0, symName: '__ZN4core3ptr90drop_in_place$LT$core..option..Option$LT$alloc..boxed..Box$LT$syn..item..FnArg$GT$$GT$$GT$17hf03102bb61ab93dfE', symObjAddr: 0xCFD0, symBinAddr: 0x2F8F0, symSize: 0x50 }
  - { offsetInCU: 0x32D47, offset: 0x6CA31, size: 0x8, addend: 0x0, symName: '__ZN4core3ptr91drop_in_place$LT$syn..punctuated..Punctuated$LT$syn..expr..Expr$C$syn..token..Comma$GT$$GT$17h2b5a2f282b270662E', symObjAddr: 0xD020, symBinAddr: 0x2F940, symSize: 0x120 }
  - { offsetInCU: 0x331A4, offset: 0x6CE8E, size: 0x8, addend: 0x0, symName: '__ZN4core3ptr92drop_in_place$LT$core..option..Option$LT$$LP$syn..token..As$C$proc_macro2..Ident$RP$$GT$$GT$17h0597a4f6f244dfdcE', symObjAddr: 0xD140, symBinAddr: 0x2FA60, symSize: 0x30 }
  - { offsetInCU: 0x332C0, offset: 0x6CFAA, size: 0x8, addend: 0x0, symName: '__ZN4core3ptr92drop_in_place$LT$syn..punctuated..Punctuated$LT$syn..data..Field$C$syn..token..Comma$GT$$GT$17h4a166e58e97f1550E', symObjAddr: 0xD170, symBinAddr: 0x2FA90, symSize: 0x120 }
  - { offsetInCU: 0x3370A, offset: 0x6D3F4, size: 0x8, addend: 0x0, symName: '__ZN4core3ptr92drop_in_place$LT$syn..punctuated..Punctuated$LT$syn..item..FnArg$C$syn..token..Comma$GT$$GT$17h9c2040c4a9ca9064E', symObjAddr: 0xD290, symBinAddr: 0x2FBB0, symSize: 0x150 }
  - { offsetInCU: 0x33C1F, offset: 0x6D909, size: 0x8, addend: 0x0, symName: '__ZN4core3ptr94drop_in_place$LT$syn..punctuated..Punctuated$LT$syn..data..Variant$C$syn..token..Comma$GT$$GT$17h34b5943b8fba019fE', symObjAddr: 0xD3E0, symBinAddr: 0x2FD00, symSize: 0x120 }
  - { offsetInCU: 0x340F8, offset: 0x6DDE2, size: 0x8, addend: 0x0, symName: '__ZN4core3ptr94drop_in_place$LT$syn..punctuated..Punctuated$LT$syn..pat..FieldPat$C$syn..token..Comma$GT$$GT$17h7d4ebe0faaa8607fE', symObjAddr: 0xD500, symBinAddr: 0x2FE20, symSize: 0xF0 }
  - { offsetInCU: 0x34451, offset: 0x6E13B, size: 0x8, addend: 0x0, symName: '__ZN4core3ptr94drop_in_place$LT$syn..punctuated..Punctuated$LT$syn..ty..BareFnArg$C$syn..token..Comma$GT$$GT$17h42dfede05f380d1aE', symObjAddr: 0xD5F0, symBinAddr: 0x2FF10, symSize: 0xF0 }
  - { offsetInCU: 0x3472E, offset: 0x6E418, size: 0x8, addend: 0x0, symName: '__ZN4core3ptr95drop_in_place$LT$core..option..Option$LT$$LP$proc_macro2..Ident$C$syn..token..Colon$RP$$GT$$GT$17h1627b29a7a57ac8cE.llvm.13587701521511034753', symObjAddr: 0xD6E0, symBinAddr: 0x30000, symSize: 0x30 }
  - { offsetInCU: 0x3484A, offset: 0x6E534, size: 0x8, addend: 0x0, symName: '__ZN4core3ptr96drop_in_place$LT$core..option..Option$LT$alloc..boxed..Box$LT$syn..path..PathSegment$GT$$GT$$GT$17hb26271e9359f3954E', symObjAddr: 0xD710, symBinAddr: 0x30030, symSize: 0x90 }
  - { offsetInCU: 0x34B67, offset: 0x6E851, size: 0x8, addend: 0x0, symName: '__ZN4core3ptr97drop_in_place$LT$syn..punctuated..Punctuated$LT$syn..expr..FieldValue$C$syn..token..Comma$GT$$GT$17h4d15877e9b50827dE', symObjAddr: 0xD7F0, symBinAddr: 0x300C0, symSize: 0xF0 }
  - { offsetInCU: 0x34EDF, offset: 0x6EBC9, size: 0x8, addend: 0x0, symName: '__ZN4core3ptr98drop_in_place$LT$syn..punctuated..Punctuated$LT$syn..lifetime..Lifetime$C$syn..token..Plus$GT$$GT$17h39801c0a371aca46E.llvm.13587701521511034753', symObjAddr: 0xD8E0, symBinAddr: 0x301B0, symSize: 0xC0 }
  - { offsetInCU: 0x3C88D, offset: 0x76577, size: 0x8, addend: 0x0, symName: '__ZN70_$LT$alloc..vec..Vec$LT$T$C$A$GT$$u20$as$u20$core..ops..drop..Drop$GT$4drop17h2cf471f0fe16bb70E', symObjAddr: 0xDB80, symBinAddr: 0x30270, symSize: 0x90 }
  - { offsetInCU: 0x3C993, offset: 0x7667D, size: 0x8, addend: 0x0, symName: '__ZN70_$LT$alloc..vec..Vec$LT$T$C$A$GT$$u20$as$u20$core..ops..drop..Drop$GT$4drop17h2f640a43e041b1d7E', symObjAddr: 0xDC10, symBinAddr: 0x30300, symSize: 0xB0 }
  - { offsetInCU: 0x3CB0F, offset: 0x767F9, size: 0x8, addend: 0x0, symName: '__ZN70_$LT$alloc..vec..Vec$LT$T$C$A$GT$$u20$as$u20$core..ops..drop..Drop$GT$4drop17ha2f762ad8a7aaa16E', symObjAddr: 0xE0B0, symBinAddr: 0x303B0, symSize: 0xB0 }
  - { offsetInCU: 0x3CE98, offset: 0x76B82, size: 0x8, addend: 0x0, symName: '__ZN98_$LT$alloc..vec..Vec$LT$T$GT$$u20$as$u20$alloc..vec..spec_from_iter..SpecFromIter$LT$T$C$I$GT$$GT$9from_iter17hee71dea7b1b5c418E', symObjAddr: 0xE4C0, symBinAddr: 0x30460, symSize: 0x400 }
  - { offsetInCU: 0x3DCC5, offset: 0x779AF, size: 0x8, addend: 0x0, symName: '__ZN98_$LT$alloc..vec..Vec$LT$T$GT$$u20$as$u20$alloc..vec..spec_from_iter..SpecFromIter$LT$T$C$I$GT$$GT$9from_iter17hfb2de62edae6533cE', symObjAddr: 0xE8C0, symBinAddr: 0x30860, symSize: 0x3DF }
  - { offsetInCU: 0x1E, offset: 0x7E510, size: 0x8, addend: 0x0, symName: '__ZN10proc_macro6bridge11scoped_cell19ScopedCell$LT$T$GT$7replace17h03a0406d62720a30E', symObjAddr: 0x0, symBinAddr: 0x30C40, symSize: 0x0 }
  - { offsetInCU: 0xA42, offset: 0x7EF34, size: 0x8, addend: 0x0, symName: '__ZN4core3ptr145drop_in_place$LT$proc_macro..bridge..scoped_cell..ScopedCell$LT$T$GT$..replace..PutBackOnDrop$LT$proc_macro..bridge..client..BridgeStateL$GT$$GT$17h0cc26721716216ddE.llvm.3868187217430459911', symObjAddr: 0x24D0, symBinAddr: 0x33110, symSize: 0xBA }
  - { offsetInCU: 0x30D8, offset: 0x815CA, size: 0x8, addend: 0x0, symName: '__ZN10proc_macro6bridge11scoped_cell19ScopedCell$LT$T$GT$7replace17h03a0406d62720a30E', symObjAddr: 0x0, symBinAddr: 0x30C40, symSize: 0x0 }
  - { offsetInCU: 0x36C2, offset: 0x81BB4, size: 0x8, addend: 0x0, symName: '__ZN10proc_macro6bridge11scoped_cell19ScopedCell$LT$T$GT$7replace17h08969c80c52f0629E', symObjAddr: 0x1D0, symBinAddr: 0x30E10, symSize: 0x380 }
  - { offsetInCU: 0x3FB4, offset: 0x824A6, size: 0x8, addend: 0x0, symName: '__ZN10proc_macro6bridge11scoped_cell19ScopedCell$LT$T$GT$7replace17h5d3559c697a0829dE', symObjAddr: 0x550, symBinAddr: 0x31190, symSize: 0x380 }
  - { offsetInCU: 0x48A6, offset: 0x82D98, size: 0x8, addend: 0x0, symName: '__ZN10proc_macro6bridge11scoped_cell19ScopedCell$LT$T$GT$7replace17h656031b2a5c45305E', symObjAddr: 0x8D0, symBinAddr: 0x31510, symSize: 0x380 }
  - { offsetInCU: 0x5198, offset: 0x8368A, size: 0x8, addend: 0x0, symName: '__ZN10proc_macro6bridge11scoped_cell19ScopedCell$LT$T$GT$7replace17h80e9a9f288176966E', symObjAddr: 0xC50, symBinAddr: 0x31890, symSize: 0x380 }
  - { offsetInCU: 0x5A8A, offset: 0x83F7C, size: 0x8, addend: 0x0, symName: '__ZN10proc_macro6bridge11scoped_cell19ScopedCell$LT$T$GT$7replace17h812273f2de8d3688E', symObjAddr: 0xFD0, symBinAddr: 0x31C10, symSize: 0x380 }
  - { offsetInCU: 0x637C, offset: 0x8486E, size: 0x8, addend: 0x0, symName: '__ZN10proc_macro6bridge11scoped_cell19ScopedCell$LT$T$GT$7replace17ha7d4d36a5621911fE', symObjAddr: 0x1350, symBinAddr: 0x31F90, symSize: 0x380 }
  - { offsetInCU: 0x6C6E, offset: 0x85160, size: 0x8, addend: 0x0, symName: '__ZN10proc_macro6bridge11scoped_cell19ScopedCell$LT$T$GT$7replace17had8b3ec347f9b198E', symObjAddr: 0x16D0, symBinAddr: 0x32310, symSize: 0x380 }
  - { offsetInCU: 0x7560, offset: 0x85A52, size: 0x8, addend: 0x0, symName: '__ZN10proc_macro6bridge11scoped_cell19ScopedCell$LT$T$GT$7replace17hbe452b490959ee13E', symObjAddr: 0x1A50, symBinAddr: 0x32690, symSize: 0x380 }
  - { offsetInCU: 0x7E52, offset: 0x86344, size: 0x8, addend: 0x0, symName: '__ZN10proc_macro6bridge11scoped_cell19ScopedCell$LT$T$GT$7replace17hea073cb8ff6df0a9E', symObjAddr: 0x1DD0, symBinAddr: 0x32A10, symSize: 0x380 }
  - { offsetInCU: 0x8744, offset: 0x86C36, size: 0x8, addend: 0x0, symName: '__ZN10proc_macro6bridge11scoped_cell19ScopedCell$LT$T$GT$7replace17hefe352aa70a1d733E', symObjAddr: 0x2150, symBinAddr: 0x32D90, symSize: 0x380 }
  - { offsetInCU: 0x1E, offset: 0x888D4, size: 0x8, addend: 0x0, symName: __ZN5alloc7raw_vec11finish_grow17h4bf27611d02763a4E.llvm.14812488358481213808, symObjAddr: 0x0, symBinAddr: 0x331D0, symSize: 0xA0 }
  - { offsetInCU: 0x18C4, offset: 0x8A17A, size: 0x8, addend: 0x0, symName: __ZN5alloc7raw_vec11finish_grow17h4bf27611d02763a4E.llvm.14812488358481213808, symObjAddr: 0x0, symBinAddr: 0x331D0, symSize: 0xA0 }
  - { offsetInCU: 0x1D94, offset: 0x8A64A, size: 0x8, addend: 0x0, symName: '__ZN5alloc7raw_vec19RawVec$LT$T$C$A$GT$7reserve21do_reserve_and_handle17h9b0ff0cba9b45e70E', symObjAddr: 0x1D0, symBinAddr: 0x1ED7C0, symSize: 0xC0 }
  - { offsetInCU: 0x20E6, offset: 0x8A99C, size: 0x8, addend: 0x0, symName: '__ZN5alloc7raw_vec19RawVec$LT$T$C$A$GT$7reserve21do_reserve_and_handle17hf8e02a013cacf661E', symObjAddr: 0x290, symBinAddr: 0x1ED880, symSize: 0xB0 }
  - { offsetInCU: 0x2425, offset: 0x8ACDB, size: 0x8, addend: 0x0, symName: '__ZN77_$LT$alloc..raw_vec..RawVec$LT$T$C$A$GT$$u20$as$u20$core..ops..drop..Drop$GT$4drop17hdbee080e0132425eE', symObjAddr: 0x690, symBinAddr: 0x33320, symSize: 0x30 }
  - { offsetInCU: 0x2CB4, offset: 0x8B56A, size: 0x8, addend: 0x0, symName: '__ZN5alloc7raw_vec19RawVec$LT$T$C$A$GT$16reserve_for_push17ha21ef7bcaa925c53E', symObjAddr: 0x120, symBinAddr: 0x33270, symSize: 0xB0 }
  - { offsetInCU: 0x1E, offset: 0x8BAAE, size: 0x8, addend: 0x0, symName: __ZN3syn5parse6Parser5parse17h4c4e07797414abd0E, symObjAddr: 0x0, symBinAddr: 0x33350, symSize: 0x530 }
  - { offsetInCU: 0x1921, offset: 0x8D3B1, size: 0x8, addend: 0x0, symName: '__ZN4core3ptr100drop_in_place$LT$core..option..Option$LT$alloc..boxed..Box$LT$syn..path..GenericArgument$GT$$GT$$GT$17ha77889711c99acb5E', symObjAddr: 0x530, symBinAddr: 0x33880, symSize: 0x50 }
  - { offsetInCU: 0x1AF0, offset: 0x8D580, size: 0x8, addend: 0x0, symName: '__ZN4core3ptr102drop_in_place$LT$syn..punctuated..Punctuated$LT$syn..path..GenericArgument$C$syn..token..Comma$GT$$GT$17ha592b814e65b094aE', symObjAddr: 0x580, symBinAddr: 0x338D0, symSize: 0xF0 }
  - { offsetInCU: 0x1DD9, offset: 0x8D869, size: 0x8, addend: 0x0, symName: '__ZN4core3ptr103drop_in_place$LT$core..option..Option$LT$alloc..boxed..Box$LT$syn..generics..TypeParamBound$GT$$GT$$GT$17hf277ec229d0aa024E', symObjAddr: 0x670, symBinAddr: 0x339C0, symSize: 0x50 }
  - { offsetInCU: 0x20A0, offset: 0x8DB30, size: 0x8, addend: 0x0, symName: '__ZN4core3ptr103drop_in_place$LT$core..option..Option$LT$alloc..boxed..Box$LT$syn..generics..WherePredicate$GT$$GT$$GT$17h4639130315164223E', symObjAddr: 0x6C0, symBinAddr: 0x33A10, symSize: 0xD0 }
  - { offsetInCU: 0x2433, offset: 0x8DEC3, size: 0x8, addend: 0x0, symName: '__ZN4core3ptr103drop_in_place$LT$syn..punctuated..Punctuated$LT$syn..generics..GenericParam$C$syn..token..Comma$GT$$GT$17hd6b8bba176dc3af2E', symObjAddr: 0x790, symBinAddr: 0x33AE0, symSize: 0xF0 }
  - { offsetInCU: 0x28F6, offset: 0x8E386, size: 0x8, addend: 0x0, symName: '__ZN4core3ptr104drop_in_place$LT$syn..punctuated..Punctuated$LT$syn..generics..TypeParamBound$C$syn..token..Plus$GT$$GT$17hf6ed100b7601117bE', symObjAddr: 0x880, symBinAddr: 0x33BD0, symSize: 0x260 }
  - { offsetInCU: 0x32E8, offset: 0x8ED78, size: 0x8, addend: 0x0, symName: '__ZN4core3ptr34drop_in_place$LT$syn..lit..Lit$GT$17h2261e216fb4a351cE', symObjAddr: 0xAE0, symBinAddr: 0x33E30, symSize: 0x110 }
  - { offsetInCU: 0x3841, offset: 0x8F2D1, size: 0x8, addend: 0x0, symName: '__ZN4core3ptr34drop_in_place$LT$syn..pat..Pat$GT$17h8cc743d7ea752f86E', symObjAddr: 0xBF0, symBinAddr: 0x33F40, symSize: 0xF00 }
  - { offsetInCU: 0x72E4, offset: 0x92D74, size: 0x8, addend: 0x0, symName: '__ZN4core3ptr34drop_in_place$LT$syn..ty..Type$GT$17h9d994f97b8c5d57eE', symObjAddr: 0x1AF0, symBinAddr: 0x34E40, symSize: 0x5E0 }
  - { offsetInCU: 0x8C2E, offset: 0x946BE, size: 0x8, addend: 0x0, symName: '__ZN4core3ptr36drop_in_place$LT$syn..expr..Expr$GT$17heba164088c166752E', symObjAddr: 0x20D0, symBinAddr: 0x35420, symSize: 0x2830 }
  - { offsetInCU: 0x126A3, offset: 0x9E133, size: 0x8, addend: 0x0, symName: '__ZN4core3ptr36drop_in_place$LT$syn..mac..Macro$GT$17h700880a4bff8e247E', symObjAddr: 0x4900, symBinAddr: 0x37C50, symSize: 0x110 }
  - { offsetInCU: 0x12B28, offset: 0x9E5B8, size: 0x8, addend: 0x0, symName: '__ZN4core3ptr36drop_in_place$LT$syn..path..Path$GT$17h6886f5090d1ceb27E', symObjAddr: 0x4A10, symBinAddr: 0x37D60, symSize: 0x240 }
  - { offsetInCU: 0x13571, offset: 0x9F001, size: 0x8, addend: 0x0, symName: '__ZN4core3ptr37drop_in_place$LT$syn..stmt..Block$GT$17h18abff8b81bdc406E', symObjAddr: 0x4C50, symBinAddr: 0x37FA0, symSize: 0xD0 }
  - { offsetInCU: 0x138B0, offset: 0x9F340, size: 0x8, addend: 0x0, symName: '__ZN4core3ptr38drop_in_place$LT$syn..data..Fields$GT$17h21b950ab89112107E', symObjAddr: 0x4D20, symBinAddr: 0x38070, symSize: 0x190 }
  - { offsetInCU: 0x13D88, offset: 0x9F818, size: 0x8, addend: 0x0, symName: '__ZN4core3ptr38drop_in_place$LT$syn..derive..Data$GT$17h444f974da34adde5E', symObjAddr: 0x4EB0, symBinAddr: 0x38200, symSize: 0x1D0 }
  - { offsetInCU: 0x143C8, offset: 0x9FE58, size: 0x8, addend: 0x0, symName: '__ZN4core3ptr38drop_in_place$LT$syn..expr..Member$GT$17hefd04f0cd3a4c3faE', symObjAddr: 0x5080, symBinAddr: 0x383D0, symSize: 0x30 }
  - { offsetInCU: 0x144C5, offset: 0x9FF55, size: 0x8, addend: 0x0, symName: '__ZN4core3ptr39drop_in_place$LT$proc_macro2..Ident$GT$17h8996439a97d51cbbE', symObjAddr: 0x50B0, symBinAddr: 0x38400, symSize: 0x30 }
  - { offsetInCU: 0x146D9, offset: 0xA0169, size: 0x8, addend: 0x0, symName: '__ZN4core3ptr39drop_in_place$LT$syn..buffer..Entry$GT$17h80d1eb1734b1732bE', symObjAddr: 0x50E0, symBinAddr: 0x38430, symSize: 0xC0 }
  - { offsetInCU: 0x149ED, offset: 0xA047D, size: 0x8, addend: 0x0, symName: '__ZN4core3ptr40drop_in_place$LT$syn..ty..ReturnType$GT$17h934b3c14af36294aE', symObjAddr: 0x51A0, symBinAddr: 0x384F0, symSize: 0x50 }
  - { offsetInCU: 0x14B5F, offset: 0xA05EF, size: 0x8, addend: 0x0, symName: '__ZN4core3ptr41drop_in_place$LT$syn..expr..ExprConst$GT$17hc910ba115e117d6eE', symObjAddr: 0x51F0, symBinAddr: 0x38540, symSize: 0x180 }
  - { offsetInCU: 0x150E8, offset: 0xA0B78, size: 0x8, addend: 0x0, symName: '__ZN4core3ptr44drop_in_place$LT$syn..generics..Generics$GT$17h9864adfbe1c6bbe8E', symObjAddr: 0x5370, symBinAddr: 0x386C0, symSize: 0x40 }
  - { offsetInCU: 0x15105, offset: 0xA0B95, size: 0x8, addend: 0x0, symName: '__ZN4core3ptr44drop_in_place$LT$syn..lifetime..Lifetime$GT$17h06e168a44c33e1b0E', symObjAddr: 0x53B0, symBinAddr: 0x38700, symSize: 0x30 }
  - { offsetInCU: 0x1529D, offset: 0xA0D2D, size: 0x8, addend: 0x0, symName: '__ZN4core3ptr45drop_in_place$LT$proc_macro2..TokenStream$GT$17hd40e6c5e52e979f7E', symObjAddr: 0x53E0, symBinAddr: 0x38730, symSize: 0x140 }
  - { offsetInCU: 0x1574A, offset: 0xA11DA, size: 0x8, addend: 0x0, symName: '__ZN4core3ptr45drop_in_place$LT$syn..derive..DeriveInput$GT$17hfc69cf922b57ef78E', symObjAddr: 0x5520, symBinAddr: 0x38870, symSize: 0x1A0 }
  - { offsetInCU: 0x15CD4, offset: 0xA1764, size: 0x8, addend: 0x0, symName: '__ZN4core3ptr45drop_in_place$LT$syn..generics..TypeParam$GT$17h5fb083aeb6c9b8f3E', symObjAddr: 0x56C0, symBinAddr: 0x38A10, symSize: 0x230 }
  - { offsetInCU: 0x16504, offset: 0xA1F94, size: 0x8, addend: 0x0, symName: '__ZN4core3ptr46drop_in_place$LT$syn..generics..ConstParam$GT$17h77fcbd78891cc576E', symObjAddr: 0x58F0, symBinAddr: 0x38C40, symSize: 0x150 }
  - { offsetInCU: 0x16962, offset: 0xA23F2, size: 0x8, addend: 0x0, symName: '__ZN4core3ptr47drop_in_place$LT$syn..path..GenericArgument$GT$17h67b67e0d667454ffE', symObjAddr: 0x5A40, symBinAddr: 0x38D90, symSize: 0x460 }
  - { offsetInCU: 0x1766B, offset: 0xA30FB, size: 0x8, addend: 0x0, symName: '__ZN4core3ptr49drop_in_place$LT$syn..generics..LifetimeParam$GT$17he250dbb21d5d1ee9E', symObjAddr: 0x5EA0, symBinAddr: 0x391F0, symSize: 0xF0 }
  - { offsetInCU: 0x17A59, offset: 0xA34E9, size: 0x8, addend: 0x0, symName: '__ZN4core3ptr49drop_in_place$LT$syn..restriction..Visibility$GT$17h29fff7d46f6be3e3E', symObjAddr: 0x5F90, symBinAddr: 0x392E0, symSize: 0x60 }
  - { offsetInCU: 0x17BDC, offset: 0xA366C, size: 0x8, addend: 0x0, symName: '__ZN4core3ptr50drop_in_place$LT$syn..generics..TypeParamBound$GT$17h1a50b8c006e46a6cE', symObjAddr: 0x5FF0, symBinAddr: 0x39340, symSize: 0xA0 }
  - { offsetInCU: 0x17D43, offset: 0xA37D3, size: 0x8, addend: 0x0, symName: '__ZN4core3ptr58drop_in_place$LT$alloc..vec..Vec$LT$syn..expr..Arm$GT$$GT$17hb2c5b7adca149137E', symObjAddr: 0x6090, symBinAddr: 0x393E0, symSize: 0xD0 }
  - { offsetInCU: 0x17FD0, offset: 0xA3A60, size: 0x8, addend: 0x0, symName: '__ZN4core3ptr59drop_in_place$LT$alloc..boxed..Box$LT$syn..pat..Pat$GT$$GT$17hd69c5cd79168fed8E', symObjAddr: 0x6160, symBinAddr: 0x394B0, symSize: 0x50 }
  - { offsetInCU: 0x1812B, offset: 0xA3BBB, size: 0x8, addend: 0x0, symName: '__ZN4core3ptr59drop_in_place$LT$alloc..boxed..Box$LT$syn..ty..Type$GT$$GT$17h5996230ea326072bE', symObjAddr: 0x61B0, symBinAddr: 0x39500, symSize: 0x50 }
  - { offsetInCU: 0x18286, offset: 0xA3D16, size: 0x8, addend: 0x0, symName: '__ZN4core3ptr61drop_in_place$LT$alloc..boxed..Box$LT$syn..expr..Expr$GT$$GT$17h8b0541d699dad651E', symObjAddr: 0x6200, symBinAddr: 0x39550, symSize: 0x50 }
  - { offsetInCU: 0x183E1, offset: 0xA3E71, size: 0x8, addend: 0x0, symName: '__ZN4core3ptr61drop_in_place$LT$syn..path..ParenthesizedGenericArguments$GT$17h7265c22c4c879bdaE', symObjAddr: 0x6250, symBinAddr: 0x395A0, symSize: 0x170 }
  - { offsetInCU: 0x189BB, offset: 0xA444B, size: 0x8, addend: 0x0, symName: '__ZN4core3ptr63drop_in_place$LT$alloc..boxed..Box$LT$syn..lit..LitRepr$GT$$GT$17h291259f3754a680eE', symObjAddr: 0x63C0, symBinAddr: 0x39710, symSize: 0x60 }
  - { offsetInCU: 0x18CB0, offset: 0xA4740, size: 0x8, addend: 0x0, symName: '__ZN4core3ptr64drop_in_place$LT$alloc..boxed..Box$LT$syn..pat..FieldPat$GT$$GT$17h9935199ab6febb82E', symObjAddr: 0x6420, symBinAddr: 0x39770, symSize: 0x140 }
  - { offsetInCU: 0x1938F, offset: 0xA4E1F, size: 0x8, addend: 0x0, symName: '__ZN4core3ptr64drop_in_place$LT$alloc..boxed..Box$LT$syn..ty..BareFnArg$GT$$GT$17ha29f685c236ece1aE', symObjAddr: 0x6560, symBinAddr: 0x398B0, symSize: 0x140 }
  - { offsetInCU: 0x198E7, offset: 0xA5377, size: 0x8, addend: 0x0, symName: '__ZN4core3ptr65drop_in_place$LT$core..option..Option$LT$syn..expr..Label$GT$$GT$17h6e188cc1869f88c4E', symObjAddr: 0x66A0, symBinAddr: 0x399F0, symSize: 0x30 }
  - { offsetInCU: 0x19A22, offset: 0xA54B2, size: 0x8, addend: 0x0, symName: '__ZN4core3ptr66drop_in_place$LT$core..option..Option$LT$syn..pat..PatRest$GT$$GT$17hcdbad01ce6e5e722E', symObjAddr: 0x66D0, symBinAddr: 0x39A20, symSize: 0xE0 }
  - { offsetInCU: 0x19CDA, offset: 0xA576A, size: 0x8, addend: 0x0, symName: '__ZN4core3ptr67drop_in_place$LT$alloc..boxed..Box$LT$syn..expr..FieldValue$GT$$GT$17hcdc41a6230123b9dE', symObjAddr: 0x67B0, symBinAddr: 0x39B00, symSize: 0x140 }
  - { offsetInCU: 0x1A231, offset: 0xA5CC1, size: 0x8, addend: 0x0, symName: '__ZN4core3ptr70drop_in_place$LT$core..option..Option$LT$syn..ty..BareVariadic$GT$$GT$17hc2b3f1d6b32099edE', symObjAddr: 0x68F0, symBinAddr: 0x39C40, symSize: 0x120 }
  - { offsetInCU: 0x1A792, offset: 0xA6222, size: 0x8, addend: 0x0, symName: '__ZN4core3ptr72drop_in_place$LT$alloc..boxed..Box$LT$syn..path..GenericArgument$GT$$GT$17hfb6a887c5d83aa3aE', symObjAddr: 0x6A10, symBinAddr: 0x39D60, symSize: 0x2B0 }
  - { offsetInCU: 0x1B17D, offset: 0xA6C0D, size: 0x8, addend: 0x0, symName: '__ZN4core3ptr72drop_in_place$LT$core..option..Option$LT$syn..lifetime..Lifetime$GT$$GT$17h67a52c0a780012dfE', symObjAddr: 0x6CC0, symBinAddr: 0x3A010, symSize: 0x30 }
  - { offsetInCU: 0x1B299, offset: 0xA6D29, size: 0x8, addend: 0x0, symName: '__ZN4core3ptr73drop_in_place$LT$alloc..boxed..Box$LT$syn..generics..GenericParam$GT$$GT$17h935172df8a80e859E', symObjAddr: 0x6CF0, symBinAddr: 0x3A040, symSize: 0x80 }
  - { offsetInCU: 0x1B411, offset: 0xA6EA1, size: 0x8, addend: 0x0, symName: '__ZN4core3ptr75drop_in_place$LT$alloc..boxed..Box$LT$syn..generics..TypeParamBound$GT$$GT$17h23a8537fe7a78cf4E', symObjAddr: 0x6D70, symBinAddr: 0x3A0C0, symSize: 0x190 }
  - { offsetInCU: 0x1BB0A, offset: 0xA759A, size: 0x8, addend: 0x0, symName: '__ZN4core3ptr75drop_in_place$LT$core..option..Option$LT$syn..generics..WhereClause$GT$$GT$17h0637e0ecda0a65bfE', symObjAddr: 0x6F00, symBinAddr: 0x3A250, symSize: 0x90 }
  - { offsetInCU: 0x1BDC0, offset: 0xA7850, size: 0x8, addend: 0x0, symName: '__ZN4core3ptr86drop_in_place$LT$syn..punctuated..Punctuated$LT$syn..pat..Pat$C$syn..token..Or$GT$$GT$17h210796e05836243bE', symObjAddr: 0x6F90, symBinAddr: 0x3A2E0, symSize: 0x120 }
  - { offsetInCU: 0x1C206, offset: 0xA7C96, size: 0x8, addend: 0x0, symName: '__ZN4core3ptr87drop_in_place$LT$core..option..Option$LT$alloc..boxed..Box$LT$syn..pat..Pat$GT$$GT$$GT$17heb87bf9ccbc90e69E', symObjAddr: 0x70B0, symBinAddr: 0x3A400, symSize: 0x50 }
  - { offsetInCU: 0x1C378, offset: 0xA7E08, size: 0x8, addend: 0x0, symName: '__ZN4core3ptr87drop_in_place$LT$core..option..Option$LT$alloc..boxed..Box$LT$syn..ty..Type$GT$$GT$$GT$17h6e0aa39bd503e981E', symObjAddr: 0x7100, symBinAddr: 0x3A450, symSize: 0x50 }
  - { offsetInCU: 0x1C4EA, offset: 0xA7F7A, size: 0x8, addend: 0x0, symName: '__ZN4core3ptr89drop_in_place$LT$core..option..Option$LT$alloc..boxed..Box$LT$syn..expr..Expr$GT$$GT$$GT$17hb96908a4ade2903aE', symObjAddr: 0x7150, symBinAddr: 0x3A4A0, symSize: 0x50 }
  - { offsetInCU: 0x1C69A, offset: 0xA812A, size: 0x8, addend: 0x0, symName: '__ZN4core3ptr89drop_in_place$LT$syn..punctuated..Punctuated$LT$syn..pat..Pat$C$syn..token..Comma$GT$$GT$17h354966812ec8087cE', symObjAddr: 0x71A0, symBinAddr: 0x3A4F0, symSize: 0x120 }
  - { offsetInCU: 0x1CB54, offset: 0xA85E4, size: 0x8, addend: 0x0, symName: '__ZN4core3ptr90drop_in_place$LT$core..option..Option$LT$alloc..boxed..Box$LT$syn..data..Field$GT$$GT$$GT$17h346e8a19824b8297E', symObjAddr: 0x72C0, symBinAddr: 0x3A610, symSize: 0x200 }
  - { offsetInCU: 0x1D3FD, offset: 0xA8E8D, size: 0x8, addend: 0x0, symName: '__ZN4core3ptr91drop_in_place$LT$syn..punctuated..Punctuated$LT$syn..expr..Expr$C$syn..token..Comma$GT$$GT$17h2b5a2f282b270662E', symObjAddr: 0x74C0, symBinAddr: 0x3A810, symSize: 0x120 }
  - { offsetInCU: 0x1D8D6, offset: 0xA9366, size: 0x8, addend: 0x0, symName: '__ZN4core3ptr92drop_in_place$LT$core..option..Option$LT$alloc..boxed..Box$LT$syn..data..Variant$GT$$GT$$GT$17he2a2a3ed8bb5e139E', symObjAddr: 0x75E0, symBinAddr: 0x3A930, symSize: 0x190 }
  - { offsetInCU: 0x1DF56, offset: 0xA99E6, size: 0x8, addend: 0x0, symName: '__ZN4core3ptr94drop_in_place$LT$syn..punctuated..Punctuated$LT$syn..pat..FieldPat$C$syn..token..Comma$GT$$GT$17h7d4ebe0faaa8607fE', symObjAddr: 0x7770, symBinAddr: 0x3AAC0, symSize: 0xF0 }
  - { offsetInCU: 0x1E220, offset: 0xA9CB0, size: 0x8, addend: 0x0, symName: '__ZN4core3ptr94drop_in_place$LT$syn..punctuated..Punctuated$LT$syn..ty..BareFnArg$C$syn..token..Comma$GT$$GT$17h42dfede05f380d1aE', symObjAddr: 0x7860, symBinAddr: 0x3ABB0, symSize: 0xF0 }
  - { offsetInCU: 0x1E4EA, offset: 0xA9F7A, size: 0x8, addend: 0x0, symName: '__ZN4core3ptr96drop_in_place$LT$core..option..Option$LT$alloc..boxed..Box$LT$syn..path..PathSegment$GT$$GT$$GT$17hb26271e9359f3954E', symObjAddr: 0x7950, symBinAddr: 0x3ACA0, symSize: 0x180 }
  - { offsetInCU: 0x1EB7B, offset: 0xAA60B, size: 0x8, addend: 0x0, symName: '__ZN4core3ptr97drop_in_place$LT$syn..punctuated..Punctuated$LT$syn..expr..FieldValue$C$syn..token..Comma$GT$$GT$17h4d15877e9b50827dE', symObjAddr: 0x7AD0, symBinAddr: 0x3AE20, symSize: 0xF0 }
  - { offsetInCU: 0x1EEC1, offset: 0xAA951, size: 0x8, addend: 0x0, symName: '__ZN4core3ptr98drop_in_place$LT$syn..punctuated..Punctuated$LT$syn..lifetime..Lifetime$C$syn..token..Plus$GT$$GT$17h39801c0a371aca46E', symObjAddr: 0x7BC0, symBinAddr: 0x3AF10, symSize: 0xB1 }
  - { offsetInCU: 0x23319, offset: 0xAEDA9, size: 0x8, addend: 0x0, symName: __ZN3syn5parse6Parser5parse17h4c4e07797414abd0E, symObjAddr: 0x0, symBinAddr: 0x33350, symSize: 0x530 }
  - { offsetInCU: 0x1E, offset: 0xB7DB6, size: 0x8, addend: 0x0, symName: __ZN3std9panicking3try17h228738e4c9137685E, symObjAddr: 0x0, symBinAddr: 0x3AFD0, symSize: 0x390 }
  - { offsetInCU: 0xE6E, offset: 0xB8C06, size: 0x8, addend: 0x0, symName: __ZN3std9panicking3try17h228738e4c9137685E, symObjAddr: 0x0, symBinAddr: 0x3AFD0, symSize: 0x390 }
  - { offsetInCU: 0x151E, offset: 0xB92B6, size: 0x8, addend: 0x0, symName: __ZN3std9panicking3try17h27f326fdd08bba1fE, symObjAddr: 0x390, symBinAddr: 0x3B360, symSize: 0x390 }
  - { offsetInCU: 0x1BCE, offset: 0xB9966, size: 0x8, addend: 0x0, symName: __ZN3std9panicking3try17h42acabf4dff0f775E, symObjAddr: 0x7C0, symBinAddr: 0x3B6F0, symSize: 0x390 }
  - { offsetInCU: 0x227E, offset: 0xBA016, size: 0x8, addend: 0x0, symName: __ZN3std9panicking3try17h50e14a39e86c3594E, symObjAddr: 0xB50, symBinAddr: 0x3BA80, symSize: 0x390 }
  - { offsetInCU: 0x292E, offset: 0xBA6C6, size: 0x8, addend: 0x0, symName: __ZN3std9panicking3try17h5153984af5650589E, symObjAddr: 0xEE0, symBinAddr: 0x3BE10, symSize: 0x390 }
  - { offsetInCU: 0x2FDE, offset: 0xBAD76, size: 0x8, addend: 0x0, symName: __ZN3std9panicking3try17h6282a07239e30a8eE, symObjAddr: 0x1270, symBinAddr: 0x3C1A0, symSize: 0x390 }
  - { offsetInCU: 0x368E, offset: 0xBB426, size: 0x8, addend: 0x0, symName: __ZN3std9panicking3try17h6d888429a402228eE, symObjAddr: 0x1600, symBinAddr: 0x3C530, symSize: 0x390 }
  - { offsetInCU: 0x3D3E, offset: 0xBBAD6, size: 0x8, addend: 0x0, symName: __ZN3std9panicking3try17h844e67696b585eacE, symObjAddr: 0x1990, symBinAddr: 0x3C8C0, symSize: 0x390 }
  - { offsetInCU: 0x43EE, offset: 0xBC186, size: 0x8, addend: 0x0, symName: __ZN3std9panicking3try17hb1d30cabacd73b48E, symObjAddr: 0x1D20, symBinAddr: 0x3CC50, symSize: 0x390 }
  - { offsetInCU: 0x4A9E, offset: 0xBC836, size: 0x8, addend: 0x0, symName: __ZN3std9panicking3try17hf5fcc6b49ad12ea5E, symObjAddr: 0x20B0, symBinAddr: 0x3CFE0, symSize: 0x390 }
  - { offsetInCU: 0x6308, offset: 0xBE0A0, size: 0x8, addend: 0x0, symName: '__ZN4core3ptr52drop_in_place$LT$std..thread..local..AccessError$GT$17hc69f3e5cb34107adE', symObjAddr: 0x2440, symBinAddr: 0x3D370, symSize: 0x6 }
  - { offsetInCU: 0x35, offset: 0xC0DFD, size: 0x8, addend: 0x0, symName: _anon.eaeaa371405d62998b02d65575ebe5c8.3.llvm.18117420326788233133, symObjAddr: 0x1D00, symBinAddr: 0x250740, symSize: 0x0 }
  - { offsetInCU: 0xA0C, offset: 0xC17D4, size: 0x8, addend: 0x0, symName: __ZN10proc_macro6bridge6client10run_client17h13e10357a32db537E, symObjAddr: 0x210, symBinAddr: 0x3D380, symSize: 0x1B0 }
  - { offsetInCU: 0xD19, offset: 0xC1AE1, size: 0x8, addend: 0x0, symName: __ZN10proc_macro6bridge6client10run_client17h34d054ab696b164cE, symObjAddr: 0x3C0, symBinAddr: 0x3D530, symSize: 0x1B0 }
  - { offsetInCU: 0x1026, offset: 0xC1DEE, size: 0x8, addend: 0x0, symName: __ZN10proc_macro6bridge6client10run_client17h4b26c623091f214cE, symObjAddr: 0x570, symBinAddr: 0x3D6E0, symSize: 0x1B0 }
  - { offsetInCU: 0x1333, offset: 0xC20FB, size: 0x8, addend: 0x0, symName: __ZN10proc_macro6bridge6client10run_client17h54f7a1441e5acdd3E, symObjAddr: 0x720, symBinAddr: 0x3D890, symSize: 0x1B0 }
  - { offsetInCU: 0x1640, offset: 0xC2408, size: 0x8, addend: 0x0, symName: __ZN10proc_macro6bridge6client10run_client17h7319b8b5d6f89f3eE, symObjAddr: 0x8D0, symBinAddr: 0x3DA40, symSize: 0x1B0 }
  - { offsetInCU: 0x194D, offset: 0xC2715, size: 0x8, addend: 0x0, symName: __ZN10proc_macro6bridge6client10run_client17h77bb90bbfed25c60E, symObjAddr: 0xA80, symBinAddr: 0x3DBF0, symSize: 0x1B0 }
  - { offsetInCU: 0x1C5A, offset: 0xC2A22, size: 0x8, addend: 0x0, symName: __ZN10proc_macro6bridge6client10run_client17hb47c545f1fdb4f24E, symObjAddr: 0xC30, symBinAddr: 0x3DDA0, symSize: 0x1B0 }
  - { offsetInCU: 0x1F67, offset: 0xC2D2F, size: 0x8, addend: 0x0, symName: __ZN10proc_macro6bridge6client10run_client17hcc0ff09db3639e4cE, symObjAddr: 0xDE0, symBinAddr: 0x3DF50, symSize: 0x1B0 }
  - { offsetInCU: 0x2274, offset: 0xC303C, size: 0x8, addend: 0x0, symName: __ZN10proc_macro6bridge6client10run_client17heba38addf1cc04d5E, symObjAddr: 0xF90, symBinAddr: 0x3E100, symSize: 0x1B0 }
  - { offsetInCU: 0x2581, offset: 0xC3349, size: 0x8, addend: 0x0, symName: __ZN10proc_macro6bridge6client10run_client17hf0aa834614ef0c7dE, symObjAddr: 0x1140, symBinAddr: 0x3E2B0, symSize: 0x1B0 }
  - { offsetInCU: 0x2AA0, offset: 0xC3868, size: 0x8, addend: 0x0, symName: '__ZN4core3ptr52drop_in_place$LT$std..thread..local..AccessError$GT$17hc69f3e5cb34107adE.llvm.18117420326788233133', symObjAddr: 0x1B10, symBinAddr: 0x3E460, symSize: 0x6 }
  - { offsetInCU: 0x858, offset: 0xC4DF4, size: 0x8, addend: 0x0, symName: '__ZN68_$LT$$RF$str$u20$as$u20$proc_macro..bridge..rpc..Encode$LT$S$GT$$GT$6encode17hf91393bb2b15bd0cE', symObjAddr: 0x70, symBinAddr: 0x3E470, symSize: 0x330 }
  - { offsetInCU: 0x1E, offset: 0xC562B, size: 0x8, addend: 0x0, symName: __ZN4core3fmt5Write10write_char17h734d60aac7d47e34E, symObjAddr: 0x0, symBinAddr: 0x3E7A0, symSize: 0x100 }
  - { offsetInCU: 0xC8, offset: 0xC56D5, size: 0x8, addend: 0x0, symName: '__ZN80_$LT$std..io..Write..write_fmt..Adapter$LT$T$GT$$u20$as$u20$core..fmt..Write$GT$9write_str17h41e5b39555d1740eE', symObjAddr: 0x1E0, symBinAddr: 0x3E980, symSize: 0x3E }
  - { offsetInCU: 0x9F7, offset: 0xC6004, size: 0x8, addend: 0x0, symName: '__ZN4core3ptr81drop_in_place$LT$core..result..Result$LT$$LP$$RP$$C$std..io..error..Error$GT$$GT$17h9308bebb519d6c48E', symObjAddr: 0x120, symBinAddr: 0x3E8C0, symSize: 0xB0 }
  - { offsetInCU: 0xE68, offset: 0xC6475, size: 0x8, addend: 0x0, symName: '__ZN4core3ptr92drop_in_place$LT$std..io..Write..write_fmt..Adapter$LT$std..sys..unix..stdio..Stderr$GT$$GT$17hf655323e1d5f4863E', symObjAddr: 0x1D0, symBinAddr: 0x3E970, symSize: 0x10 }
  - { offsetInCU: 0xFEE, offset: 0xC65FB, size: 0x8, addend: 0x0, symName: __ZN4core3fmt5Write10write_char17h734d60aac7d47e34E, symObjAddr: 0x0, symBinAddr: 0x3E7A0, symSize: 0x100 }
  - { offsetInCU: 0x1157, offset: 0xC6764, size: 0x8, addend: 0x0, symName: __ZN4core3fmt5Write9write_fmt17hbf7ebc04d5b16eb9E, symObjAddr: 0x100, symBinAddr: 0x3E8A0, symSize: 0x20 }
  - { offsetInCU: 0x1E, offset: 0xC6ED5, size: 0x8, addend: 0x0, symName: '__ZN100_$LT$syn..punctuated..PrivateIter$LT$T$C$P$GT$$u20$as$u20$core..iter..traits..iterator..Iterator$GT$4next17h0e71b69cb855c89aE.llvm.10507238000023904490', symObjAddr: 0x0, symBinAddr: 0x3E9C0, symSize: 0x30 }
  - { offsetInCU: 0x35, offset: 0xC6EEC, size: 0x8, addend: 0x0, symName: _anon.79c96d75dcdac7fb2538e4c390090978.2.llvm.10507238000023904490, symObjAddr: 0x530, symBinAddr: 0x250840, symSize: 0x0 }
  - { offsetInCU: 0x511, offset: 0xC73C8, size: 0x8, addend: 0x0, symName: '__ZN100_$LT$syn..punctuated..PrivateIter$LT$T$C$P$GT$$u20$as$u20$core..iter..traits..iterator..Iterator$GT$4next17h0e71b69cb855c89aE.llvm.10507238000023904490', symObjAddr: 0x0, symBinAddr: 0x3E9C0, symSize: 0x30 }
  - { offsetInCU: 0x7DA, offset: 0xC7691, size: 0x8, addend: 0x0, symName: '__ZN111_$LT$syn..punctuated..PrivateIter$LT$T$C$P$GT$$u20$as$u20$core..iter..traits..exact_size..ExactSizeIterator$GT$3len17h43bc0f1766e728dcE.llvm.10507238000023904490', symObjAddr: 0x30, symBinAddr: 0x3E9F0, symSize: 0x30 }
  - { offsetInCU: 0x927, offset: 0xC77DE, size: 0x8, addend: 0x0, symName: '__ZN115_$LT$syn..punctuated..PrivateIter$LT$T$C$P$GT$$u20$as$u20$core..iter..traits..double_ended..DoubleEndedIterator$GT$9next_back17h8518b274a7ad4d2cE.llvm.10507238000023904490', symObjAddr: 0x60, symBinAddr: 0x3EA20, symSize: 0x30 }
  - { offsetInCU: 0xC49, offset: 0xC7B00, size: 0x8, addend: 0x0, symName: '__ZN57_$LT$I$u20$as$u20$syn..punctuated..IterTrait$LT$T$GT$$GT$9clone_box17h253cf478e1bb5cbeE.llvm.10507238000023904490', symObjAddr: 0x380, symBinAddr: 0x3ECD0, symSize: 0x60 }
  - { offsetInCU: 0x754F, offset: 0xCE406, size: 0x8, addend: 0x0, symName: '__ZN4core3ptr95drop_in_place$LT$syn..punctuated..PrivateIter$LT$syn..data..Variant$C$syn..token..Comma$GT$$GT$17h42ef3b53ec65fcb5E.llvm.10507238000023904490', symObjAddr: 0x100, symBinAddr: 0x3EA50, symSize: 0x10 }
  - { offsetInCU: 0x9825, offset: 0xD06DC, size: 0x8, addend: 0x0, symName: __ZN4core4iter6traits10exact_size17ExactSizeIterator8is_empty17h708e7e25bb2ec8beE.llvm.10507238000023904490, symObjAddr: 0x110, symBinAddr: 0x3EA60, symSize: 0x30 }
  - { offsetInCU: 0x9974, offset: 0xD082B, size: 0x8, addend: 0x0, symName: __ZN4core4iter6traits12double_ended19DoubleEndedIterator15advance_back_by17h22e1d44afc84e835E.llvm.10507238000023904490, symObjAddr: 0x140, symBinAddr: 0x3EA90, symSize: 0x80 }
  - { offsetInCU: 0x9BC4, offset: 0xD0A7B, size: 0x8, addend: 0x0, symName: __ZN4core4iter6traits12double_ended19DoubleEndedIterator8nth_back17h1748a4f2ab5f2023E.llvm.10507238000023904490, symObjAddr: 0x1C0, symBinAddr: 0x3EB10, symSize: 0xB0 }
  - { offsetInCU: 0xA07F, offset: 0xD0F36, size: 0x8, addend: 0x0, symName: __ZN4core4iter6traits8iterator8Iterator10advance_by17h96f1e290bf275168E.llvm.10507238000023904490, symObjAddr: 0x270, symBinAddr: 0x3EBC0, symSize: 0x70 }
  - { offsetInCU: 0xA3E8, offset: 0xD129F, size: 0x8, addend: 0x0, symName: __ZN4core4iter6traits8iterator8Iterator3nth17h3977e7f760f342d2E.llvm.10507238000023904490, symObjAddr: 0x2E0, symBinAddr: 0x3EC30, symSize: 0x80 }
  - { offsetInCU: 0xA9B2, offset: 0xD1869, size: 0x8, addend: 0x0, symName: __ZN4core4iter6traits8iterator8Iterator9size_hint17h14a9ec7685dd9afaE.llvm.10507238000023904490, symObjAddr: 0x360, symBinAddr: 0x3ECB0, symSize: 0x20 }
  - { offsetInCU: 0x1E, offset: 0xD25DC, size: 0x8, addend: 0x0, symName: __ZN3std2io5Write9write_all17h3e5a35eccf5f5205E, symObjAddr: 0x0, symBinAddr: 0x3ED30, symSize: 0xF0 }
  - { offsetInCU: 0x35, offset: 0xD25F3, size: 0x8, addend: 0x0, symName: _anon.879ac840e697ba953f5451aecb23382b.6.llvm.11223523846803485081, symObjAddr: 0x328, symBinAddr: 0x250900, symSize: 0x0 }
  - { offsetInCU: 0xE3, offset: 0xD26A1, size: 0x8, addend: 0x0, symName: __ZN3std2io5Write9write_all17h3e5a35eccf5f5205E, symObjAddr: 0x0, symBinAddr: 0x3ED30, symSize: 0xF0 }
  - { offsetInCU: 0x35D, offset: 0xD291B, size: 0x8, addend: 0x0, symName: __ZN3std2io5Write9write_fmt17h514218e8d34af603E, symObjAddr: 0xF0, symBinAddr: 0x3EE20, symSize: 0x90 }
  - { offsetInCU: 0x141B, offset: 0xD39D9, size: 0x8, addend: 0x0, symName: '__ZN4core3ptr42drop_in_place$LT$std..io..error..Error$GT$17hfff2ac768db85bdfE.llvm.11223523846803485081', symObjAddr: 0x180, symBinAddr: 0x3EEB0, symSize: 0xA0 }
  - { offsetInCU: 0x187E, offset: 0xD3E3C, size: 0x8, addend: 0x0, symName: '__ZN4core3ptr92drop_in_place$LT$std..io..Write..write_fmt..Adapter$LT$std..sys..unix..stdio..Stderr$GT$$GT$17hf655323e1d5f4863E.llvm.11223523846803485081', symObjAddr: 0x220, symBinAddr: 0x3EF50, symSize: 0x15 }
  - { offsetInCU: 0x1E, offset: 0xD47FA, size: 0x8, addend: 0x0, symName: '__ZN3std3sys6common12thread_local10fast_local12Key$LT$T$GT$14try_initialize17h56551c9847d5f1bcE.llvm.15926949859701999889', symObjAddr: 0x0, symBinAddr: 0x3EF70, symSize: 0x150 }
  - { offsetInCU: 0x3E7, offset: 0xD4BC3, size: 0x8, addend: 0x0, symName: __ZN3std3sys6common12thread_local10fast_local13destroy_value17ha58529256ae6bf85E, symObjAddr: 0x170, symBinAddr: 0x3F0C0, symSize: 0xE0 }
  - { offsetInCU: 0xF94, offset: 0xD5770, size: 0x8, addend: 0x0, symName: '__ZN4core3ptr81drop_in_place$LT$core..result..Result$LT$$LP$$RP$$C$std..io..error..Error$GT$$GT$17h9308bebb519d6c48E', symObjAddr: 0x250, symBinAddr: 0x3F1A0, symSize: 0xA5 }
  - { offsetInCU: 0x1C4A, offset: 0xD6426, size: 0x8, addend: 0x0, symName: '__ZN3std3sys6common12thread_local10fast_local12Key$LT$T$GT$14try_initialize17h56551c9847d5f1bcE.llvm.15926949859701999889', symObjAddr: 0x0, symBinAddr: 0x3EF70, symSize: 0x150 }
  - { offsetInCU: 0x1E, offset: 0xD7813, size: 0x8, addend: 0x0, symName: '__ZN4core3ptr73drop_in_place$LT$core..cell..UnsafeCell$LT$syn..parse..Unexpected$GT$$GT$17h7b1477ffaecef210E.llvm.13603227949354223108', symObjAddr: 0x0, symBinAddr: 0x3F250, symSize: 0x50 }
  - { offsetInCU: 0xADE, offset: 0xD82D3, size: 0x8, addend: 0x0, symName: '__ZN4core3ptr73drop_in_place$LT$core..cell..UnsafeCell$LT$syn..parse..Unexpected$GT$$GT$17h7b1477ffaecef210E.llvm.13603227949354223108', symObjAddr: 0x0, symBinAddr: 0x3F250, symSize: 0x50 }
  - { offsetInCU: 0x138B, offset: 0xD8B80, size: 0x8, addend: 0x0, symName: '__ZN68_$LT$alloc..rc..Rc$LT$T$C$A$GT$$u20$as$u20$core..ops..drop..Drop$GT$4drop17hd518bf9943011adaE', symObjAddr: 0x50, symBinAddr: 0x3F2A0, symSize: 0x40 }
  - { offsetInCU: 0x1600, offset: 0xD8DF5, size: 0x8, addend: 0x0, symName: '__ZN68_$LT$alloc..rc..Rc$LT$T$C$A$GT$$u20$as$u20$core..ops..drop..Drop$GT$4drop17hfa3bf01451f04ecfE', symObjAddr: 0x90, symBinAddr: 0x3F2E0, symSize: 0xDE }
  - { offsetInCU: 0x35, offset: 0xD9C9A, size: 0x8, addend: 0x0, symName: _anon.d7ef02c060f51e22b96b531205797618.0.llvm.17498188141902237795, symObjAddr: 0x310, symBinAddr: 0x250940, symSize: 0x0 }
  - { offsetInCU: 0x107, offset: 0xD9D6C, size: 0x8, addend: 0x0, symName: '__ZN58_$LT$alloc..string..String$u20$as$u20$core..fmt..Write$GT$10write_char17hd329c0cb943f081aE.llvm.17498188141902237795', symObjAddr: 0x140, symBinAddr: 0x3F410, symSize: 0x130 }
  - { offsetInCU: 0x4AF, offset: 0xDA114, size: 0x8, addend: 0x0, symName: '__ZN58_$LT$alloc..string..String$u20$as$u20$core..fmt..Write$GT$9write_str17h1ff5aa96ca91c6d5E.llvm.17498188141902237795', symObjAddr: 0x270, symBinAddr: 0x3F540, symSize: 0x5B }
  - { offsetInCU: 0x9F5, offset: 0xDA65A, size: 0x8, addend: 0x0, symName: '__ZN4core3ptr37drop_in_place$LT$core..fmt..Error$GT$17h12c5df152b843604E.llvm.17498188141902237795', symObjAddr: 0xF0, symBinAddr: 0x3F3C0, symSize: 0x10 }
  - { offsetInCU: 0xA21, offset: 0xDA686, size: 0x8, addend: 0x0, symName: '__ZN4core3ptr42drop_in_place$LT$alloc..string..String$GT$17h27015f27a5f77099E.llvm.17498188141902237795', symObjAddr: 0x100, symBinAddr: 0x3F3D0, symSize: 0x20 }
  - { offsetInCU: 0xC0E, offset: 0xDA873, size: 0x8, addend: 0x0, symName: '__ZN53_$LT$core..fmt..Error$u20$as$u20$core..fmt..Debug$GT$3fmt17h43ae5cec9623af13E.llvm.17498188141902237795', symObjAddr: 0x120, symBinAddr: 0x3F3F0, symSize: 0x20 }
  - { offsetInCU: 0xE2D, offset: 0xDAA92, size: 0x8, addend: 0x0, symName: _anon.d7ef02c060f51e22b96b531205797618.4.llvm.17498188141902237795, symObjAddr: 0x358, symBinAddr: 0x250988, symSize: 0x0 }
  - { offsetInCU: 0x1E, offset: 0xDB274, size: 0x8, addend: 0x0, symName: __ZN4core3fmt5Write9write_fmt17h450a9943a12c0793E, symObjAddr: 0x0, symBinAddr: 0x3F5A0, symSize: 0x20 }
  - { offsetInCU: 0x89, offset: 0xDB2DF, size: 0x8, addend: 0x0, symName: '__ZN58_$LT$alloc..string..String$u20$as$u20$core..fmt..Write$GT$10write_char17hd329c0cb943f081aE', symObjAddr: 0x40, symBinAddr: 0x3F5E0, symSize: 0x130 }
  - { offsetInCU: 0x430, offset: 0xDB686, size: 0x8, addend: 0x0, symName: '__ZN58_$LT$alloc..string..String$u20$as$u20$core..fmt..Write$GT$9write_str17h1ff5aa96ca91c6d5E', symObjAddr: 0x170, symBinAddr: 0x3F710, symSize: 0x5B }
  - { offsetInCU: 0x956, offset: 0xDBBAC, size: 0x8, addend: 0x0, symName: '__ZN4core3ptr42drop_in_place$LT$alloc..string..String$GT$17h27015f27a5f77099E', symObjAddr: 0x20, symBinAddr: 0x3F5C0, symSize: 0x20 }
  - { offsetInCU: 0xC0C, offset: 0xDBE62, size: 0x8, addend: 0x0, symName: __ZN4core3fmt5Write9write_fmt17h450a9943a12c0793E, symObjAddr: 0x0, symBinAddr: 0x3F5A0, symSize: 0x20 }
  - { offsetInCU: 0x1E, offset: 0xDC90E, size: 0x8, addend: 0x0, symName: __ZN10proc_macro6bridge14selfless_reify31reify_to_extern_c_fn_hrt_bridge7wrapper17h035efb3c32976946E, symObjAddr: 0x0, symBinAddr: 0x3F770, symSize: 0x20 }
  - { offsetInCU: 0x3EC, offset: 0xDCCDC, size: 0x8, addend: 0x0, symName: __ZN10proc_macro6bridge14selfless_reify31reify_to_extern_c_fn_hrt_bridge7wrapper17h035efb3c32976946E, symObjAddr: 0x0, symBinAddr: 0x3F770, symSize: 0x20 }
  - { offsetInCU: 0x465, offset: 0xDCD55, size: 0x8, addend: 0x0, symName: __ZN10proc_macro6bridge14selfless_reify31reify_to_extern_c_fn_hrt_bridge7wrapper17h169b252a5215ba75E, symObjAddr: 0x20, symBinAddr: 0x3F790, symSize: 0x20 }
  - { offsetInCU: 0x4DE, offset: 0xDCDCE, size: 0x8, addend: 0x0, symName: __ZN10proc_macro6bridge14selfless_reify31reify_to_extern_c_fn_hrt_bridge7wrapper17h25630fcd81f4e80eE, symObjAddr: 0x40, symBinAddr: 0x3F7B0, symSize: 0x20 }
  - { offsetInCU: 0x557, offset: 0xDCE47, size: 0x8, addend: 0x0, symName: __ZN10proc_macro6bridge14selfless_reify31reify_to_extern_c_fn_hrt_bridge7wrapper17h4910a69400d803f8E, symObjAddr: 0x60, symBinAddr: 0x3F7D0, symSize: 0x20 }
  - { offsetInCU: 0x5D0, offset: 0xDCEC0, size: 0x8, addend: 0x0, symName: __ZN10proc_macro6bridge14selfless_reify31reify_to_extern_c_fn_hrt_bridge7wrapper17h6c52e6b76dd5a7a2E, symObjAddr: 0x80, symBinAddr: 0x3F7F0, symSize: 0x20 }
  - { offsetInCU: 0x649, offset: 0xDCF39, size: 0x8, addend: 0x0, symName: __ZN10proc_macro6bridge14selfless_reify31reify_to_extern_c_fn_hrt_bridge7wrapper17h7b9c3cbdf7320a8bE, symObjAddr: 0xA0, symBinAddr: 0x3F810, symSize: 0x20 }
  - { offsetInCU: 0x6C2, offset: 0xDCFB2, size: 0x8, addend: 0x0, symName: __ZN10proc_macro6bridge14selfless_reify31reify_to_extern_c_fn_hrt_bridge7wrapper17hbbabc50e10a643d0E, symObjAddr: 0xC0, symBinAddr: 0x3F830, symSize: 0x20 }
  - { offsetInCU: 0x73B, offset: 0xDD02B, size: 0x8, addend: 0x0, symName: __ZN10proc_macro6bridge14selfless_reify31reify_to_extern_c_fn_hrt_bridge7wrapper17hcd63752555d84efeE, symObjAddr: 0xE0, symBinAddr: 0x3F850, symSize: 0x20 }
  - { offsetInCU: 0x7B4, offset: 0xDD0A4, size: 0x8, addend: 0x0, symName: __ZN10proc_macro6bridge14selfless_reify31reify_to_extern_c_fn_hrt_bridge7wrapper17hd6d4d1798e29a0f0E, symObjAddr: 0x100, symBinAddr: 0x3F870, symSize: 0x20 }
  - { offsetInCU: 0x82D, offset: 0xDD11D, size: 0x8, addend: 0x0, symName: __ZN10proc_macro6bridge14selfless_reify31reify_to_extern_c_fn_hrt_bridge7wrapper17hdf1832a971a463efE, symObjAddr: 0x120, symBinAddr: 0x3F890, symSize: 0x20 }
  - { offsetInCU: 0x1E, offset: 0xDD345, size: 0x8, addend: 0x0, symName: '__ZN10proc_macro6bridge104_$LT$impl$u20$proc_macro..bridge..rpc..Encode$LT$S$GT$$u20$for$u20$core..result..Result$LT$T$C$E$GT$$GT$6encode17h534a541e991f1b02E', symObjAddr: 0x0, symBinAddr: 0x3F8B0, symSize: 0x450 }
  - { offsetInCU: 0x16E, offset: 0xDD495, size: 0x8, addend: 0x0, symName: '__ZN10proc_macro6bridge104_$LT$impl$u20$proc_macro..bridge..rpc..Encode$LT$S$GT$$u20$for$u20$core..result..Result$LT$T$C$E$GT$$GT$6encode17h534a541e991f1b02E', symObjAddr: 0x0, symBinAddr: 0x3F8B0, symSize: 0x450 }
  - { offsetInCU: 0xA1F, offset: 0xDDD46, size: 0x8, addend: 0x0, symName: '__ZN10proc_macro6bridge104_$LT$impl$u20$proc_macro..bridge..rpc..Encode$LT$S$GT$$u20$for$u20$core..result..Result$LT$T$C$E$GT$$GT$6encode17hf8ea5364d97b0872E', symObjAddr: 0x450, symBinAddr: 0x3FD00, symSize: 0x3AD }
  - { offsetInCU: 0x1E, offset: 0xDECE8, size: 0x8, addend: 0x0, symName: '__ZN10proc_macro6bridge100_$LT$impl$u20$proc_macro..bridge..rpc..Encode$LT$S$GT$$u20$for$u20$core..option..Option$LT$T$GT$$GT$6encode17h7237b41e7df31d93E', symObjAddr: 0x0, symBinAddr: 0x400B0, symSize: 0x4F0 }
  - { offsetInCU: 0x437, offset: 0xDF101, size: 0x8, addend: 0x0, symName: '__ZN10proc_macro6bridge100_$LT$impl$u20$proc_macro..bridge..rpc..Encode$LT$S$GT$$u20$for$u20$core..option..Option$LT$T$GT$$GT$6encode17h7237b41e7df31d93E', symObjAddr: 0x0, symBinAddr: 0x400B0, symSize: 0x4F0 }
  - { offsetInCU: 0xD00, offset: 0xDF9CA, size: 0x8, addend: 0x0, symName: '__ZN10proc_macro6bridge100_$LT$impl$u20$proc_macro..bridge..rpc..Encode$LT$S$GT$$u20$for$u20$core..option..Option$LT$T$GT$$GT$6encode17hf654e629743a59d0E', symObjAddr: 0x4F0, symBinAddr: 0x405A0, symSize: 0x362 }
  - { offsetInCU: 0x1E, offset: 0xE051E, size: 0x8, addend: 0x0, symName: '__ZN77_$LT$$LP$A$C$B$RP$$u20$as$u20$proc_macro..bridge..rpc..DecodeMut$LT$S$GT$$GT$6decode17hca071a704077c318E', symObjAddr: 0x0, symBinAddr: 0x40910, symSize: 0xD6 }
  - { offsetInCU: 0xB0, offset: 0xE05B0, size: 0x8, addend: 0x0, symName: '__ZN77_$LT$$LP$A$C$B$RP$$u20$as$u20$proc_macro..bridge..rpc..DecodeMut$LT$S$GT$$GT$6decode17hca071a704077c318E', symObjAddr: 0x0, symBinAddr: 0x40910, symSize: 0xD6 }
  - { offsetInCU: 0x1E, offset: 0xE1723, size: 0x8, addend: 0x0, symName: '__ZN44_$LT$$RF$T$u20$as$u20$core..fmt..Display$GT$3fmt17h0471d7a5c03fbaaaE', symObjAddr: 0x0, symBinAddr: 0x409F0, symSize: 0x10 }
  - { offsetInCU: 0x64, offset: 0xE1769, size: 0x8, addend: 0x0, symName: '__ZN44_$LT$$RF$T$u20$as$u20$core..fmt..Display$GT$3fmt17h0471d7a5c03fbaaaE', symObjAddr: 0x0, symBinAddr: 0x409F0, symSize: 0x10 }
  - { offsetInCU: 0x4E7F, offset: 0xE6B50, size: 0x8, addend: 0x0, symName: '__ZN3syn4item7parsing63_$LT$impl$u20$syn..parse..Parse$u20$for$u20$syn..item..Item$GT$5parse17h2dd33e0a14c1cf15E', symObjAddr: 0xCE00, symBinAddr: 0x4C570, symSize: 0x1D0 }
  - { offsetInCU: 0x546D, offset: 0xE713E, size: 0x8, addend: 0x0, symName: '__ZN3syn4item7parsing68_$LT$impl$u20$syn..parse..Parse$u20$for$u20$syn..item..ItemMacro$GT$5parse17hd2dbdd16085cb5b3E', symObjAddr: 0xCFD0, symBinAddr: 0x4C740, symSize: 0x690 }
  - { offsetInCU: 0x60BE, offset: 0xE7D8F, size: 0x8, addend: 0x0, symName: '__ZN3syn4item7parsing74_$LT$impl$u20$syn..parse..Parse$u20$for$u20$syn..item..ItemExternCrate$GT$5parse17h6d92f7f00cd41009E', symObjAddr: 0xD660, symBinAddr: 0x4CDD0, symSize: 0x850 }
  - { offsetInCU: 0x72B6, offset: 0xE8F87, size: 0x8, addend: 0x0, symName: '__ZN3syn4item7parsing75_$LT$impl$u20$syn..parse..Parse$u20$for$u20$syn..item..StaticMutability$GT$5parse17haf0db4a36b052efeE', symObjAddr: 0x1E720, symBinAddr: 0x57980, symSize: 0x90 }
  - { offsetInCU: 0x7469, offset: 0xE913A, size: 0x8, addend: 0x0, symName: '__ZN3syn4item7parsing68_$LT$impl$u20$syn..parse..Parse$u20$for$u20$syn..item..Signature$GT$5parse17h046b786ec6aea09bE', symObjAddr: 0xF5D0, symBinAddr: 0x4D620, symSize: 0xA00 }
  - { offsetInCU: 0x809A, offset: 0xE9D6B, size: 0x8, addend: 0x0, symName: '__ZN3syn4item7parsing67_$LT$impl$u20$syn..parse..Parse$u20$for$u20$syn..item..Receiver$GT$5parse17h14ef46bb1836effbE', symObjAddr: 0x10510, symBinAddr: 0x4E020, symSize: 0xA40 }
  - { offsetInCU: 0x92BB, offset: 0xEAF8C, size: 0x8, addend: 0x0, symName: '__ZN3syn4item7parsing66_$LT$impl$u20$syn..parse..Parse$u20$for$u20$syn..item..ItemMod$GT$5parse17hdc999b9cf7b8d7bdE', symObjAddr: 0x10F50, symBinAddr: 0x4EA60, symSize: 0xC30 }
  - { offsetInCU: 0xAE7E, offset: 0xECB4F, size: 0x8, addend: 0x0, symName: '__ZN3syn4item7parsing73_$LT$impl$u20$syn..parse..Parse$u20$for$u20$syn..item..ItemForeignMod$GT$5parse17h6272e3455d73c09eE', symObjAddr: 0x11B80, symBinAddr: 0x4F690, symSize: 0x6E0 }
  - { offsetInCU: 0xBCF0, offset: 0xED9C1, size: 0x8, addend: 0x0, symName: '__ZN3syn4item7parsing70_$LT$impl$u20$syn..parse..Parse$u20$for$u20$syn..item..ForeignItem$GT$5parse17hc264003d8c78165cE', symObjAddr: 0x12260, symBinAddr: 0x4FD70, symSize: 0x1A40 }
  - { offsetInCU: 0x10063, offset: 0xF1D34, size: 0x8, addend: 0x0, symName: '__ZN3syn4item7parsing69_$LT$impl$u20$syn..parse..Parse$u20$for$u20$syn..item..ItemStruct$GT$5parse17h9ee5a6f8e0cb788fE', symObjAddr: 0x15D30, symBinAddr: 0x517B0, symSize: 0x730 }
  - { offsetInCU: 0x10AE1, offset: 0xF27B2, size: 0x8, addend: 0x0, symName: '__ZN3syn4item7parsing67_$LT$impl$u20$syn..parse..Parse$u20$for$u20$syn..item..ItemEnum$GT$5parse17h3908fae5439ca017E', symObjAddr: 0x16460, symBinAddr: 0x51EE0, symSize: 0x6A0 }
  - { offsetInCU: 0x1155C, offset: 0xF322D, size: 0x8, addend: 0x0, symName: '__ZN3syn4item7parsing68_$LT$impl$u20$syn..parse..Parse$u20$for$u20$syn..item..ItemUnion$GT$5parse17hcf21badb7f5d91b4E', symObjAddr: 0x16B00, symBinAddr: 0x52580, symSize: 0x670 }
  - { offsetInCU: 0x11FBD, offset: 0xF3C8E, size: 0x8, addend: 0x0, symName: '__ZN3syn4item7parsing68_$LT$impl$u20$syn..parse..Parse$u20$for$u20$syn..item..ItemTrait$GT$5parse17he79f83c126b307abE', symObjAddr: 0x17170, symBinAddr: 0x52BF0, symSize: 0x690 }
  - { offsetInCU: 0x12C3A, offset: 0xF490B, size: 0x8, addend: 0x0, symName: '__ZN3syn4item7parsing68_$LT$impl$u20$syn..parse..Parse$u20$for$u20$syn..item..TraitItem$GT$5parse17ha2b7a47a4118920dE', symObjAddr: 0x17940, symBinAddr: 0x53280, symSize: 0x1D60 }
  - { offsetInCU: 0x187A7, offset: 0xFA478, size: 0x8, addend: 0x0, symName: '__ZN3syn4item7parsing70_$LT$impl$u20$syn..parse..Parse$u20$for$u20$syn..item..TraitItemFn$GT$5parse17h2bd112e785c11adaE', symObjAddr: 0x1A020, symBinAddr: 0x54FE0, symSize: 0x9A0 }
  - { offsetInCU: 0x19ECC, offset: 0xFBB9D, size: 0x8, addend: 0x0, symName: '__ZN3syn4item7parsing67_$LT$impl$u20$syn..parse..Parse$u20$for$u20$syn..item..ImplItem$GT$5parse17h7e88a76fe14f8010E', symObjAddr: 0x1B2D0, symBinAddr: 0x55980, symSize: 0x1CD0 }
  - { offsetInCU: 0x1F047, offset: 0x100D18, size: 0x8, addend: 0x0, symName: '__ZN3syn4item7parsing72_$LT$impl$u20$syn..parse..Parse$u20$for$u20$syn..item..ImplItemMacro$GT$5parse17h0ef0a527c904192aE', symObjAddr: 0x1E3F0, symBinAddr: 0x57650, symSize: 0x0 }
  - { offsetInCU: 0x1F6AF, offset: 0x101380, size: 0x8, addend: 0x0, symName: '__ZN3syn4item8printing83_$LT$impl$u20$quote..to_tokens..ToTokens$u20$for$u20$syn..item..ItemExternCrate$GT$9to_tokens17h3856a361ae758360E', symObjAddr: 0x1E7B0, symBinAddr: 0x57A10, symSize: 0x250 }
  - { offsetInCU: 0x1FC93, offset: 0x101964, size: 0x8, addend: 0x0, symName: '__ZN3syn4item8printing78_$LT$impl$u20$quote..to_tokens..ToTokens$u20$for$u20$syn..item..ItemStatic$GT$9to_tokens17h415e4cd72a569389E', symObjAddr: 0x1EBA0, symBinAddr: 0x57C60, symSize: 0x230 }
  - { offsetInCU: 0x201FA, offset: 0x101ECB, size: 0x8, addend: 0x0, symName: '__ZN3syn4item8printing74_$LT$impl$u20$quote..to_tokens..ToTokens$u20$for$u20$syn..item..ItemFn$GT$9to_tokens17h8cdf913637011784E', symObjAddr: 0x1EFA0, symBinAddr: 0x57E90, symSize: 0x3A0 }
  - { offsetInCU: 0x20B99, offset: 0x10286A, size: 0x8, addend: 0x0, symName: '__ZN3syn4item8printing75_$LT$impl$u20$quote..to_tokens..ToTokens$u20$for$u20$syn..item..ItemMod$GT$9to_tokens17h22b2effb376191d4E', symObjAddr: 0x1F340, symBinAddr: 0x58230, symSize: 0x240 }
  - { offsetInCU: 0x21110, offset: 0x102DE1, size: 0x8, addend: 0x0, symName: '__ZN3syn4item8printing78_$LT$impl$u20$quote..to_tokens..ToTokens$u20$for$u20$syn..item..ItemStruct$GT$9to_tokens17h37d4984ce3001d19E', symObjAddr: 0x1FA90, symBinAddr: 0x58470, symSize: 0x230 }
  - { offsetInCU: 0x21532, offset: 0x103203, size: 0x8, addend: 0x0, symName: '__ZN3syn4item8printing77_$LT$impl$u20$quote..to_tokens..ToTokens$u20$for$u20$syn..item..ItemTrait$GT$9to_tokens17h5df32068ce60d15cE', symObjAddr: 0x1FE50, symBinAddr: 0x586A0, symSize: 0x350 }
  - { offsetInCU: 0x21EBE, offset: 0x103B8F, size: 0x8, addend: 0x0, symName: '__ZN3syn4item8printing82_$LT$impl$u20$quote..to_tokens..ToTokens$u20$for$u20$syn..item..ItemTraitAlias$GT$9to_tokens17hc929f21bb6c5846dE', symObjAddr: 0x201A0, symBinAddr: 0x589F0, symSize: 0x240 }
  - { offsetInCU: 0x22502, offset: 0x1041D3, size: 0x8, addend: 0x0, symName: '__ZN3syn4item8printing76_$LT$impl$u20$quote..to_tokens..ToTokens$u20$for$u20$syn..item..ItemImpl$GT$9to_tokens17hbc6239c00e6682fbE', symObjAddr: 0x203E0, symBinAddr: 0x58C30, symSize: 0x300 }
  - { offsetInCU: 0x22C8D, offset: 0x10495E, size: 0x8, addend: 0x0, symName: '__ZN3syn4item8printing77_$LT$impl$u20$quote..to_tokens..ToTokens$u20$for$u20$syn..item..ItemMacro$GT$9to_tokens17hebd52fd8a1615986E', symObjAddr: 0x206E0, symBinAddr: 0x58F30, symSize: 0x180 }
  - { offsetInCU: 0x23039, offset: 0x104D0A, size: 0x8, addend: 0x0, symName: '__ZN3syn4item8printing82_$LT$impl$u20$quote..to_tokens..ToTokens$u20$for$u20$syn..item..TraitItemConst$GT$9to_tokens17h089a36b809968ef3E', symObjAddr: 0x209B0, symBinAddr: 0x590B0, symSize: 0x1D0 }
  - { offsetInCU: 0x233C5, offset: 0x105096, size: 0x8, addend: 0x0, symName: '__ZN3syn4item8printing79_$LT$impl$u20$quote..to_tokens..ToTokens$u20$for$u20$syn..item..TraitItemFn$GT$9to_tokens17haad3b80ba26c3976E', symObjAddr: 0x20B80, symBinAddr: 0x59280, symSize: 0x420 }
  - { offsetInCU: 0x23E03, offset: 0x105AD4, size: 0x8, addend: 0x0, symName: '__ZN3syn4item8printing81_$LT$impl$u20$quote..to_tokens..ToTokens$u20$for$u20$syn..item..TraitItemType$GT$9to_tokens17h64c3182d37c64beaE', symObjAddr: 0x20FA0, symBinAddr: 0x596A0, symSize: 0x2B0 }
  - { offsetInCU: 0x2454A, offset: 0x10621B, size: 0x8, addend: 0x0, symName: '__ZN3syn4item8printing81_$LT$impl$u20$quote..to_tokens..ToTokens$u20$for$u20$syn..item..ImplItemConst$GT$9to_tokens17hf0f4212b62d7bc92E', symObjAddr: 0x21250, symBinAddr: 0x59950, symSize: 0x250 }
  - { offsetInCU: 0x249FA, offset: 0x1066CB, size: 0x8, addend: 0x0, symName: '__ZN3syn4item8printing78_$LT$impl$u20$quote..to_tokens..ToTokens$u20$for$u20$syn..item..ImplItemFn$GT$9to_tokens17hd72deb71e24247ddE', symObjAddr: 0x214A0, symBinAddr: 0x59BA0, symSize: 0x410 }
  - { offsetInCU: 0x254EE, offset: 0x1071BF, size: 0x8, addend: 0x0, symName: '__ZN3syn4item8printing80_$LT$impl$u20$quote..to_tokens..ToTokens$u20$for$u20$syn..item..ImplItemType$GT$9to_tokens17h633e35cead6fe332E', symObjAddr: 0x218B0, symBinAddr: 0x59FB0, symSize: 0x240 }
  - { offsetInCU: 0x259D4, offset: 0x1076A5, size: 0x8, addend: 0x0, symName: '__ZN3syn4item8printing81_$LT$impl$u20$quote..to_tokens..ToTokens$u20$for$u20$syn..item..ForeignItemFn$GT$9to_tokens17hf978c504af4624b9E', symObjAddr: 0x21C00, symBinAddr: 0x5A1F0, symSize: 0x3C0 }
  - { offsetInCU: 0x2639B, offset: 0x10806C, size: 0x8, addend: 0x0, symName: '__ZN3syn4item8printing85_$LT$impl$u20$quote..to_tokens..ToTokens$u20$for$u20$syn..item..ForeignItemStatic$GT$9to_tokens17h6dca73543b11328bE', symObjAddr: 0x21FC0, symBinAddr: 0x5A5B0, symSize: 0x210 }
  - { offsetInCU: 0x26883, offset: 0x108554, size: 0x8, addend: 0x0, symName: '__ZN3syn4item8printing76_$LT$impl$u20$quote..to_tokens..ToTokens$u20$for$u20$syn..item..Receiver$GT$9to_tokens17hb998d2cc4ddf9c5aE', symObjAddr: 0x22650, symBinAddr: 0x5A7C0, symSize: 0x2F0 }
  - { offsetInCU: 0x27047, offset: 0x108D18, size: 0x8, addend: 0x0, symName: '__ZN3syn4item8printing76_$LT$impl$u20$quote..to_tokens..ToTokens$u20$for$u20$syn..item..Variadic$GT$9to_tokens17h395edb0d0a0434c1E', symObjAddr: 0x22940, symBinAddr: 0x5AAB0, symSize: 0x150 }
  - { offsetInCU: 0x2737E, offset: 0x10904F, size: 0x8, addend: 0x0, symName: '__ZN62_$LT$syn..item..Item$u20$as$u20$quote..to_tokens..ToTokens$GT$9to_tokens17h16b724a3317228f3E', symObjAddr: 0x22B20, symBinAddr: 0x5AC00, symSize: 0xB70 }
  - { offsetInCU: 0x289F7, offset: 0x10A6C8, size: 0x8, addend: 0x0, symName: '__ZN65_$LT$syn..item..UseTree$u20$as$u20$quote..to_tokens..ToTokens$GT$9to_tokens17h058bd86238a4a925E', symObjAddr: 0x23690, symBinAddr: 0x5B770, symSize: 0x300 }
  - { offsetInCU: 0x292B6, offset: 0x10AF87, size: 0x8, addend: 0x0, symName: '__ZN69_$LT$syn..item..ForeignItem$u20$as$u20$quote..to_tokens..ToTokens$GT$9to_tokens17ha60ee0587a491822E', symObjAddr: 0x23990, symBinAddr: 0x5BA70, symSize: 0x320 }
  - { offsetInCU: 0x2985F, offset: 0x10B530, size: 0x8, addend: 0x0, symName: '__ZN67_$LT$syn..item..TraitItem$u20$as$u20$quote..to_tokens..ToTokens$GT$9to_tokens17hd73ca22881a357f6E', symObjAddr: 0x23CB0, symBinAddr: 0x5BD90, symSize: 0x1B0 }
  - { offsetInCU: 0x29B39, offset: 0x10B80A, size: 0x8, addend: 0x0, symName: '__ZN66_$LT$syn..item..ImplItem$u20$as$u20$quote..to_tokens..ToTokens$GT$9to_tokens17h8caf1b608d7ccb4bE', symObjAddr: 0x23E60, symBinAddr: 0x5BF40, symSize: 0x1B0 }
  - { offsetInCU: 0x2A05D, offset: 0x10BD2E, size: 0x8, addend: 0x0, symName: '__ZN3syn3gen5clone71_$LT$impl$u20$core..clone..Clone$u20$for$u20$syn..item..ForeignItem$GT$5clone17h1c1af2fb1e22cf37E', symObjAddr: 0x240B0, symBinAddr: 0x5C0F0, symSize: 0x2B0 }
  - { offsetInCU: 0x2A476, offset: 0x10C147, size: 0x8, addend: 0x0, symName: '__ZN3syn3gen5clone77_$LT$impl$u20$core..clone..Clone$u20$for$u20$syn..item..ForeignItemStatic$GT$5clone17h9025ae3b0e2de955E', symObjAddr: 0x24450, symBinAddr: 0x5C3A0, symSize: 0x1E0 }
  - { offsetInCU: 0x2A989, offset: 0x10C65A, size: 0x8, addend: 0x0, symName: '__ZN3syn3gen5clone75_$LT$impl$u20$core..clone..Clone$u20$for$u20$syn..item..ForeignItemType$GT$5clone17h01954e3b9fb9f725E', symObjAddr: 0x24630, symBinAddr: 0x5C580, symSize: 0x250 }
  - { offsetInCU: 0x2AD0B, offset: 0x10C9DC, size: 0x8, addend: 0x0, symName: '__ZN3syn3gen5clone68_$LT$impl$u20$core..clone..Clone$u20$for$u20$syn..item..ImplItem$GT$5clone17hbbdbceaa9dc75fb8E', symObjAddr: 0x24880, symBinAddr: 0x5C7D0, symSize: 0x1F0 }
  - { offsetInCU: 0x2B07E, offset: 0x10CD4F, size: 0x8, addend: 0x0, symName: '__ZN3syn3gen5clone73_$LT$impl$u20$core..clone..Clone$u20$for$u20$syn..item..ImplItemConst$GT$5clone17h5bada8c903397ea9E', symObjAddr: 0x24A70, symBinAddr: 0x5C9C0, symSize: 0x390 }
  - { offsetInCU: 0x2B450, offset: 0x10D121, size: 0x8, addend: 0x0, symName: '__ZN3syn3gen5clone70_$LT$impl$u20$core..clone..Clone$u20$for$u20$syn..item..ImplItemFn$GT$5clone17h569fe64371aceabcE', symObjAddr: 0x24E00, symBinAddr: 0x5CD50, symSize: 0x190 }
  - { offsetInCU: 0x2B4D3, offset: 0x10D1A4, size: 0x8, addend: 0x0, symName: '__ZN3syn3gen5clone72_$LT$impl$u20$core..clone..Clone$u20$for$u20$syn..item..ImplItemType$GT$5clone17h1322b0329e89fcb7E', symObjAddr: 0x25020, symBinAddr: 0x5CEE0, symSize: 0x340 }
  - { offsetInCU: 0x2B877, offset: 0x10D548, size: 0x8, addend: 0x0, symName: '__ZN3syn3gen5clone64_$LT$impl$u20$core..clone..Clone$u20$for$u20$syn..item..Item$GT$5clone17h3822ba1a7b611a95E', symObjAddr: 0x25360, symBinAddr: 0x5D220, symSize: 0x3E0 }
  - { offsetInCU: 0x2BD05, offset: 0x10D9D6, size: 0x8, addend: 0x0, symName: '__ZN3syn3gen5clone69_$LT$impl$u20$core..clone..Clone$u20$for$u20$syn..item..ItemConst$GT$5clone17hf94d4c0cb1435c70E', symObjAddr: 0x25740, symBinAddr: 0x5D600, symSize: 0x3F0 }
  - { offsetInCU: 0x2C562, offset: 0x10E233, size: 0x8, addend: 0x0, symName: '__ZN3syn3gen5clone68_$LT$impl$u20$core..clone..Clone$u20$for$u20$syn..item..ItemEnum$GT$5clone17h6464ab27732649f4E', symObjAddr: 0x25B30, symBinAddr: 0x5D9F0, symSize: 0x2F0 }
  - { offsetInCU: 0x2C891, offset: 0x10E562, size: 0x8, addend: 0x0, symName: '__ZN3syn3gen5clone75_$LT$impl$u20$core..clone..Clone$u20$for$u20$syn..item..ItemExternCrate$GT$5clone17hd0b8bc33744042bfE', symObjAddr: 0x25E20, symBinAddr: 0x5DCE0, symSize: 0x190 }
  - { offsetInCU: 0x2CC06, offset: 0x10E8D7, size: 0x8, addend: 0x0, symName: '__ZN3syn3gen5clone66_$LT$impl$u20$core..clone..Clone$u20$for$u20$syn..item..ItemFn$GT$5clone17hdd17c93ecf7b0462E', symObjAddr: 0x25FB0, symBinAddr: 0x5DE70, symSize: 0x1A0 }
  - { offsetInCU: 0x2CEB5, offset: 0x10EB86, size: 0x8, addend: 0x0, symName: '__ZN3syn3gen5clone74_$LT$impl$u20$core..clone..Clone$u20$for$u20$syn..item..ItemForeignMod$GT$5clone17hd37d574f73aedecaE', symObjAddr: 0x26150, symBinAddr: 0x5E010, symSize: 0xF0 }
  - { offsetInCU: 0x2CFFF, offset: 0x10ECD0, size: 0x8, addend: 0x0, symName: '__ZN3syn3gen5clone68_$LT$impl$u20$core..clone..Clone$u20$for$u20$syn..item..ItemImpl$GT$5clone17h661327ebe729eaadE', symObjAddr: 0x26240, symBinAddr: 0x5E100, symSize: 0x400 }
  - { offsetInCU: 0x2D4ED, offset: 0x10F1BE, size: 0x8, addend: 0x0, symName: '__ZN3syn3gen5clone69_$LT$impl$u20$core..clone..Clone$u20$for$u20$syn..item..ItemMacro$GT$5clone17h3526bbfccdbd5b31E', symObjAddr: 0x26640, symBinAddr: 0x5E500, symSize: 0x110 }
  - { offsetInCU: 0x2D758, offset: 0x10F429, size: 0x8, addend: 0x0, symName: '__ZN3syn3gen5clone67_$LT$impl$u20$core..clone..Clone$u20$for$u20$syn..item..ItemMod$GT$5clone17h8794abff9978c514E', symObjAddr: 0x26750, symBinAddr: 0x5E610, symSize: 0x1D0 }
  - { offsetInCU: 0x2DA60, offset: 0x10F731, size: 0x8, addend: 0x0, symName: '__ZN3syn3gen5clone70_$LT$impl$u20$core..clone..Clone$u20$for$u20$syn..item..ItemStatic$GT$5clone17h61a9dbf1056765ccE', symObjAddr: 0x26920, symBinAddr: 0x5E7E0, symSize: 0x290 }
  - { offsetInCU: 0x2E1E6, offset: 0x10FEB7, size: 0x8, addend: 0x0, symName: '__ZN3syn3gen5clone70_$LT$impl$u20$core..clone..Clone$u20$for$u20$syn..item..ItemStruct$GT$5clone17heb954f61bacea375E', symObjAddr: 0x26BB0, symBinAddr: 0x5EA70, symSize: 0x380 }
  - { offsetInCU: 0x2E5B4, offset: 0x110285, size: 0x8, addend: 0x0, symName: '__ZN3syn3gen5clone69_$LT$impl$u20$core..clone..Clone$u20$for$u20$syn..item..ItemTrait$GT$5clone17h82453ad16e043bb6E', symObjAddr: 0x26F30, symBinAddr: 0x5EDF0, symSize: 0x3A0 }
  - { offsetInCU: 0x2E953, offset: 0x110624, size: 0x8, addend: 0x0, symName: '__ZN3syn3gen5clone74_$LT$impl$u20$core..clone..Clone$u20$for$u20$syn..item..ItemTraitAlias$GT$5clone17h5350a93e40fedfe9E', symObjAddr: 0x272D0, symBinAddr: 0x5F190, symSize: 0x2F0 }
  - { offsetInCU: 0x2ECDE, offset: 0x1109AF, size: 0x8, addend: 0x0, symName: '__ZN3syn3gen5clone68_$LT$impl$u20$core..clone..Clone$u20$for$u20$syn..item..ItemType$GT$5clone17hb9556c5f3da70cdaE', symObjAddr: 0x275C0, symBinAddr: 0x5F480, symSize: 0x330 }
  - { offsetInCU: 0x2F2C6, offset: 0x110F97, size: 0x8, addend: 0x0, symName: '__ZN3syn3gen5clone69_$LT$impl$u20$core..clone..Clone$u20$for$u20$syn..item..ItemUnion$GT$5clone17hb2c9b467b08be8acE', symObjAddr: 0x278F0, symBinAddr: 0x5F7B0, symSize: 0x340 }
  - { offsetInCU: 0x2F614, offset: 0x1112E5, size: 0x8, addend: 0x0, symName: '__ZN3syn3gen5clone67_$LT$impl$u20$core..clone..Clone$u20$for$u20$syn..item..ItemUse$GT$5clone17h5fb5ac7ab331a1f9E', symObjAddr: 0x27C30, symBinAddr: 0x5FAF0, symSize: 0x130 }
  - { offsetInCU: 0x2F6D4, offset: 0x1113A5, size: 0x8, addend: 0x0, symName: '__ZN3syn3gen5clone68_$LT$impl$u20$core..clone..Clone$u20$for$u20$syn..item..Receiver$GT$5clone17he1632aad4eb00ea9E', symObjAddr: 0x27D60, symBinAddr: 0x5FC20, symSize: 0x1C0 }
  - { offsetInCU: 0x2FB5A, offset: 0x11182B, size: 0x8, addend: 0x0, symName: '__ZN3syn3gen5clone69_$LT$impl$u20$core..clone..Clone$u20$for$u20$syn..item..Signature$GT$5clone17hcd624a7329112f28E', symObjAddr: 0x27F20, symBinAddr: 0x5FDE0, symSize: 0x550 }
  - { offsetInCU: 0x30329, offset: 0x111FFA, size: 0x8, addend: 0x0, symName: '__ZN3syn3gen5clone69_$LT$impl$u20$core..clone..Clone$u20$for$u20$syn..item..TraitItem$GT$5clone17h91969da39aa9081aE', symObjAddr: 0x28470, symBinAddr: 0x60330, symSize: 0x1F0 }
  - { offsetInCU: 0x3069C, offset: 0x11236D, size: 0x8, addend: 0x0, symName: '__ZN3syn3gen5clone74_$LT$impl$u20$core..clone..Clone$u20$for$u20$syn..item..TraitItemConst$GT$5clone17h7b25f837a5eddbbaE', symObjAddr: 0x28660, symBinAddr: 0x60520, symSize: 0x350 }
  - { offsetInCU: 0x30A78, offset: 0x112749, size: 0x8, addend: 0x0, symName: '__ZN3syn3gen5clone71_$LT$impl$u20$core..clone..Clone$u20$for$u20$syn..item..TraitItemFn$GT$5clone17h6b12e4721dd5a3afE', symObjAddr: 0x289B0, symBinAddr: 0x60870, symSize: 0x140 }
  - { offsetInCU: 0x30B41, offset: 0x112812, size: 0x8, addend: 0x0, symName: '__ZN3syn3gen5clone73_$LT$impl$u20$core..clone..Clone$u20$for$u20$syn..item..TraitItemType$GT$5clone17h03e91f5baa26948fE', symObjAddr: 0x28AF0, symBinAddr: 0x609B0, symSize: 0x360 }
  - { offsetInCU: 0x30FCE, offset: 0x112C9F, size: 0x8, addend: 0x0, symName: '__ZN3syn3gen5clone67_$LT$impl$u20$core..clone..Clone$u20$for$u20$syn..item..UseTree$GT$5clone17hecc6e062c969de2cE', symObjAddr: 0x29140, symBinAddr: 0x60D10, symSize: 0x390 }
  - { offsetInCU: 0x319F2, offset: 0x1136C3, size: 0x8, addend: 0x0, symName: '__ZN3syn3gen5clone68_$LT$impl$u20$core..clone..Clone$u20$for$u20$syn..item..Variadic$GT$5clone17h5d88b3ac0ece19b6E', symObjAddr: 0x294D0, symBinAddr: 0x610A0, symSize: 0x110 }
  - { offsetInCU: 0x34252, offset: 0x115F23, size: 0x8, addend: 0x0, symName: '__ZN4core3ptr100drop_in_place$LT$core..option..Option$LT$alloc..boxed..Box$LT$syn..path..GenericArgument$GT$$GT$$GT$17h7435c9de74860622E', symObjAddr: 0x300, symBinAddr: 0x40A50, symSize: 0x50 }
  - { offsetInCU: 0x345F2, offset: 0x1162C3, size: 0x8, addend: 0x0, symName: '__ZN4core3ptr100drop_in_place$LT$syn..punctuated..Punctuated$LT$syn..path..PathSegment$C$syn..token..PathSep$GT$$GT$17hf414cb3581f8337aE', symObjAddr: 0x350, symBinAddr: 0x40AA0, symSize: 0x260 }
  - { offsetInCU: 0x34F8B, offset: 0x116C5C, size: 0x8, addend: 0x0, symName: '__ZN4core3ptr103drop_in_place$LT$core..option..Option$LT$alloc..boxed..Box$LT$syn..generics..TypeParamBound$GT$$GT$$GT$17h5974f03e36b1a9c3E', symObjAddr: 0x5C0, symBinAddr: 0x40D00, symSize: 0x50 }
  - { offsetInCU: 0x351D6, offset: 0x116EA7, size: 0x8, addend: 0x0, symName: '__ZN4core3ptr103drop_in_place$LT$core..option..Option$LT$alloc..boxed..Box$LT$syn..generics..WherePredicate$GT$$GT$$GT$17hdd5111a374d8d6f2E', symObjAddr: 0x610, symBinAddr: 0x40D50, symSize: 0xD0 }
  - { offsetInCU: 0x35569, offset: 0x11723A, size: 0x8, addend: 0x0, symName: '__ZN4core3ptr103drop_in_place$LT$syn..punctuated..Punctuated$LT$syn..generics..GenericParam$C$syn..token..Comma$GT$$GT$17hf42353fa44ed6da8E', symObjAddr: 0x6E0, symBinAddr: 0x40E20, symSize: 0xF0 }
  - { offsetInCU: 0x359CF, offset: 0x1176A0, size: 0x8, addend: 0x0, symName: '__ZN4core3ptr104drop_in_place$LT$syn..punctuated..Punctuated$LT$syn..generics..TypeParamBound$C$syn..token..Plus$GT$$GT$17h532f52c4a894b056E', symObjAddr: 0x7D0, symBinAddr: 0x40F10, symSize: 0x190 }
  - { offsetInCU: 0x35FE5, offset: 0x117CB6, size: 0x8, addend: 0x0, symName: '__ZN4core3ptr107drop_in_place$LT$$LP$syn..restriction..Visibility$C$core..option..Option$LT$syn..token..Default$GT$$RP$$GT$17h8ea01d3f0e99b7f1E', symObjAddr: 0x960, symBinAddr: 0x410A0, symSize: 0x60 }
  - { offsetInCU: 0x361B4, offset: 0x117E85, size: 0x8, addend: 0x0, symName: '__ZN4core3ptr115drop_in_place$LT$core..option..Option$LT$$LP$alloc..boxed..Box$LT$syn..pat..Pat$GT$$C$syn..token..Colon$RP$$GT$$GT$17he854acc3c4717d92E', symObjAddr: 0x9C0, symBinAddr: 0x41100, symSize: 0x50 }
  - { offsetInCU: 0x36388, offset: 0x118059, size: 0x8, addend: 0x0, symName: '__ZN4core3ptr115drop_in_place$LT$core..option..Option$LT$$LP$syn..token..Brace$C$alloc..vec..Vec$LT$syn..item..Item$GT$$RP$$GT$$GT$17h6df5bf3d47177236E', symObjAddr: 0xA10, symBinAddr: 0x41150, symSize: 0xE0 }
  - { offsetInCU: 0x3662F, offset: 0x118300, size: 0x8, addend: 0x0, symName: '__ZN4core3ptr126drop_in_place$LT$core..option..Option$LT$$LP$syn..token..And$C$core..option..Option$LT$syn..lifetime..Lifetime$GT$$RP$$GT$$GT$17hc269ac95805979aaE', symObjAddr: 0xAF0, symBinAddr: 0x41230, symSize: 0x30 }
  - { offsetInCU: 0x368DE, offset: 0x1185AF, size: 0x8, addend: 0x0, symName: '__ZN4core3ptr34drop_in_place$LT$syn..lit..Lit$GT$17h8902f5ff67917034E', symObjAddr: 0xBA0, symBinAddr: 0x41260, symSize: 0x110 }
  - { offsetInCU: 0x36E18, offset: 0x118AE9, size: 0x8, addend: 0x0, symName: '__ZN4core3ptr34drop_in_place$LT$syn..pat..Pat$GT$17h4581eea028ec0969E', symObjAddr: 0xCB0, symBinAddr: 0x41370, symSize: 0x1000 }
  - { offsetInCU: 0x3A8A2, offset: 0x11C573, size: 0x8, addend: 0x0, symName: '__ZN4core3ptr34drop_in_place$LT$syn..ty..Type$GT$17h369e41ad4a9f1ae0E', symObjAddr: 0x1CB0, symBinAddr: 0x42370, symSize: 0x500 }
  - { offsetInCU: 0x3BE1D, offset: 0x11DAEE, size: 0x8, addend: 0x0, symName: '__ZN4core3ptr36drop_in_place$LT$syn..expr..Expr$GT$17h0f7fd4c749bae801E', symObjAddr: 0x21B0, symBinAddr: 0x42870, symSize: 0x28E0 }
  - { offsetInCU: 0x456EC, offset: 0x1273BD, size: 0x8, addend: 0x0, symName: '__ZN4core3ptr36drop_in_place$LT$syn..item..Item$GT$17h13f5a53479ba6379E', symObjAddr: 0x4A90, symBinAddr: 0x45150, symSize: 0x1990 }
  - { offsetInCU: 0x4B397, offset: 0x12D068, size: 0x8, addend: 0x0, symName: '__ZN4core3ptr36drop_in_place$LT$syn..mac..Macro$GT$17h4ffde962df30ebe2E', symObjAddr: 0x6420, symBinAddr: 0x46AE0, symSize: 0x40 }
  - { offsetInCU: 0x4B3D1, offset: 0x12D0A2, size: 0x8, addend: 0x0, symName: '__ZN4core3ptr36drop_in_place$LT$syn..path..Path$GT$17habea856181211e1cE', symObjAddr: 0x6460, symBinAddr: 0x46B20, symSize: 0x220 }
  - { offsetInCU: 0x4BD06, offset: 0x12D9D7, size: 0x8, addend: 0x0, symName: '__ZN4core3ptr37drop_in_place$LT$syn..stmt..Block$GT$17hcc21a21cf949414cE', symObjAddr: 0x6680, symBinAddr: 0x46D40, symSize: 0xD0 }
  - { offsetInCU: 0x4BFC9, offset: 0x12DC9A, size: 0x8, addend: 0x0, symName: '__ZN4core3ptr38drop_in_place$LT$syn..data..Fields$GT$17h1dd1b203befc1316E', symObjAddr: 0x6750, symBinAddr: 0x46E10, symSize: 0x190 }
  - { offsetInCU: 0x4C3E7, offset: 0x12E0B8, size: 0x8, addend: 0x0, symName: '__ZN4core3ptr38drop_in_place$LT$syn..expr..Member$GT$17h022cbe5553aa40faE', symObjAddr: 0x68E0, symBinAddr: 0x46FA0, symSize: 0x30 }
  - { offsetInCU: 0x4C4E4, offset: 0x12E1B5, size: 0x8, addend: 0x0, symName: '__ZN4core3ptr38drop_in_place$LT$syn..pat..PatType$GT$17hcbbce80a195201a4E.llvm.3361240308741372715', symObjAddr: 0x6910, symBinAddr: 0x46FD0, symSize: 0x140 }
  - { offsetInCU: 0x4CA2C, offset: 0x12E6FD, size: 0x8, addend: 0x0, symName: '__ZN4core3ptr39drop_in_place$LT$proc_macro2..Ident$GT$17h8101e88c3ac359d6E', symObjAddr: 0x6A50, symBinAddr: 0x47110, symSize: 0x30 }
  - { offsetInCU: 0x4CB86, offset: 0x12E857, size: 0x8, addend: 0x0, symName: '__ZN4core3ptr39drop_in_place$LT$syn..item..UseTree$GT$17h5b1281a5704d139dE', symObjAddr: 0x6B00, symBinAddr: 0x47140, symSize: 0xD0 }
  - { offsetInCU: 0x4CF98, offset: 0x12EC69, size: 0x8, addend: 0x0, symName: '__ZN4core3ptr40drop_in_place$LT$syn..item..ImplItem$GT$17he2e6e8f15695ea55E', symObjAddr: 0x6BD0, symBinAddr: 0x47210, symSize: 0x5E0 }
  - { offsetInCU: 0x4E063, offset: 0x12FD34, size: 0x8, addend: 0x0, symName: '__ZN4core3ptr40drop_in_place$LT$syn..item..Receiver$GT$17h6743a41cd869c536E.llvm.3361240308741372715', symObjAddr: 0x71B0, symBinAddr: 0x477F0, symSize: 0x130 }
  - { offsetInCU: 0x4E5F6, offset: 0x1302C7, size: 0x8, addend: 0x0, symName: '__ZN4core3ptr40drop_in_place$LT$syn..item..Variadic$GT$17h856c1da4a3922974E', symObjAddr: 0x72F0, symBinAddr: 0x47920, symSize: 0x120 }
  - { offsetInCU: 0x4EA22, offset: 0x1306F3, size: 0x8, addend: 0x0, symName: '__ZN4core3ptr40drop_in_place$LT$syn..ty..ReturnType$GT$17h02cf41e2fec63d90E', symObjAddr: 0x7410, symBinAddr: 0x47A40, symSize: 0x50 }
  - { offsetInCU: 0x4EB94, offset: 0x130865, size: 0x8, addend: 0x0, symName: '__ZN4core3ptr41drop_in_place$LT$syn..expr..ExprConst$GT$17h725a13e551d9f276E', symObjAddr: 0x7460, symBinAddr: 0x47A90, symSize: 0x180 }
  - { offsetInCU: 0x4F108, offset: 0x130DD9, size: 0x8, addend: 0x0, symName: '__ZN4core3ptr41drop_in_place$LT$syn..item..Signature$GT$17h691f115807a5d1eeE', symObjAddr: 0x75E0, symBinAddr: 0x47C10, symSize: 0x160 }
  - { offsetInCU: 0x4F80E, offset: 0x1314DF, size: 0x8, addend: 0x0, symName: '__ZN4core3ptr41drop_in_place$LT$syn..item..TraitItem$GT$17hb6f9fbcba8fdea85E', symObjAddr: 0x7740, symBinAddr: 0x47D70, symSize: 0x6E0 }
  - { offsetInCU: 0x50AF5, offset: 0x1327C6, size: 0x8, addend: 0x0, symName: '__ZN4core3ptr42drop_in_place$LT$syn..item..ImplItemFn$GT$17h753bae801f2662d9E', symObjAddr: 0x7E70, symBinAddr: 0x48450, symSize: 0x200 }
  - { offsetInCU: 0x511C5, offset: 0x132E96, size: 0x8, addend: 0x0, symName: '__ZN4core3ptr43drop_in_place$LT$syn..data..FieldsNamed$GT$17hb2a97e73a85352cbE', symObjAddr: 0x8070, symBinAddr: 0x48650, symSize: 0xE0 }
  - { offsetInCU: 0x51530, offset: 0x133201, size: 0x8, addend: 0x0, symName: '__ZN4core3ptr43drop_in_place$LT$syn..item..ForeignItem$GT$17h1398b9aa0a6e4c9dE', symObjAddr: 0x8150, symBinAddr: 0x48730, symSize: 0x610 }
  - { offsetInCU: 0x52A22, offset: 0x1346F3, size: 0x8, addend: 0x0, symName: '__ZN4core3ptr44drop_in_place$LT$syn..generics..Generics$GT$17h10dea28dec64f81eE', symObjAddr: 0x8760, symBinAddr: 0x48D40, symSize: 0x40 }
  - { offsetInCU: 0x52A3F, offset: 0x134710, size: 0x8, addend: 0x0, symName: '__ZN4core3ptr44drop_in_place$LT$syn..lifetime..Lifetime$GT$17hf0cdec2e9ec456d6E', symObjAddr: 0x87A0, symBinAddr: 0x48D80, symSize: 0x30 }
  - { offsetInCU: 0x52BB8, offset: 0x134889, size: 0x8, addend: 0x0, symName: '__ZN4core3ptr44drop_in_place$LT$syn..parse..ParseBuffer$GT$17hd0dadba44a19aec2E.llvm.3361240308741372715', symObjAddr: 0x87D0, symBinAddr: 0x48DB0, symSize: 0x70 }
  - { offsetInCU: 0x52FED, offset: 0x134CBE, size: 0x8, addend: 0x0, symName: '__ZN4core3ptr45drop_in_place$LT$proc_macro2..TokenStream$GT$17h3405f6c513e9f6cbE', symObjAddr: 0x8840, symBinAddr: 0x48E20, symSize: 0x140 }
  - { offsetInCU: 0x5345C, offset: 0x13512D, size: 0x8, addend: 0x0, symName: '__ZN4core3ptr45drop_in_place$LT$syn..generics..TypeParam$GT$17he5eda51070b7de47E', symObjAddr: 0x8980, symBinAddr: 0x48F60, symSize: 0x230 }
  - { offsetInCU: 0x53C58, offset: 0x135929, size: 0x8, addend: 0x0, symName: '__ZN4core3ptr46drop_in_place$LT$syn..generics..ConstParam$GT$17hab0a58c4af8c549cE', symObjAddr: 0x8BB0, symBinAddr: 0x49190, symSize: 0x150 }
  - { offsetInCU: 0x54082, offset: 0x135D53, size: 0x8, addend: 0x0, symName: '__ZN4core3ptr47drop_in_place$LT$syn..path..GenericArgument$GT$17h54f8794633f96823E', symObjAddr: 0x8D00, symBinAddr: 0x492E0, symSize: 0x4A0 }
  - { offsetInCU: 0x55129, offset: 0x136DFA, size: 0x8, addend: 0x0, symName: '__ZN4core3ptr49drop_in_place$LT$syn..generics..LifetimeParam$GT$17h41a7c7a290ea6289E', symObjAddr: 0x91A0, symBinAddr: 0x49780, symSize: 0xF0 }
  - { offsetInCU: 0x554E3, offset: 0x1371B4, size: 0x8, addend: 0x0, symName: '__ZN4core3ptr49drop_in_place$LT$syn..restriction..Visibility$GT$17h2a932c493942ef80E', symObjAddr: 0x9290, symBinAddr: 0x49870, symSize: 0x60 }
  - { offsetInCU: 0x5566A, offset: 0x13733B, size: 0x8, addend: 0x0, symName: '__ZN4core3ptr50drop_in_place$LT$syn..generics..TypeParamBound$GT$17hcd7771d4c6c221efE', symObjAddr: 0x92F0, symBinAddr: 0x498D0, symSize: 0x160 }
  - { offsetInCU: 0x55AA9, offset: 0x13777A, size: 0x8, addend: 0x0, symName: '__ZN4core3ptr58drop_in_place$LT$alloc..vec..Vec$LT$syn..expr..Arm$GT$$GT$17h1a55df3d2cba1daaE', symObjAddr: 0x9480, symBinAddr: 0x49A30, symSize: 0xD0 }
  - { offsetInCU: 0x55D36, offset: 0x137A07, size: 0x8, addend: 0x0, symName: '__ZN4core3ptr59drop_in_place$LT$alloc..boxed..Box$LT$syn..pat..Pat$GT$$GT$17h563b135d87aca8abE', symObjAddr: 0x9550, symBinAddr: 0x49B00, symSize: 0x50 }
  - { offsetInCU: 0x55E91, offset: 0x137B62, size: 0x8, addend: 0x0, symName: '__ZN4core3ptr59drop_in_place$LT$alloc..boxed..Box$LT$syn..ty..Type$GT$$GT$17hffed36bad83adacbE', symObjAddr: 0x95A0, symBinAddr: 0x49B50, symSize: 0x50 }
  - { offsetInCU: 0x55FEC, offset: 0x137CBD, size: 0x8, addend: 0x0, symName: '__ZN4core3ptr59drop_in_place$LT$alloc..vec..Vec$LT$syn..item..Item$GT$$GT$17hf874c2ed1282c93cE', symObjAddr: 0x95F0, symBinAddr: 0x49BA0, symSize: 0xD0 }
  - { offsetInCU: 0x56279, offset: 0x137F4A, size: 0x8, addend: 0x0, symName: '__ZN4core3ptr59drop_in_place$LT$alloc..vec..Vec$LT$syn..stmt..Stmt$GT$$GT$17hb5c1acf3c61c43e2E', symObjAddr: 0x96C0, symBinAddr: 0x49C70, symSize: 0xD0 }
  - { offsetInCU: 0x56506, offset: 0x1381D7, size: 0x8, addend: 0x0, symName: '__ZN4core3ptr61drop_in_place$LT$alloc..boxed..Box$LT$syn..expr..Expr$GT$$GT$17h01091e47f131475dE', symObjAddr: 0x9790, symBinAddr: 0x49D40, symSize: 0x50 }
  - { offsetInCU: 0x566DD, offset: 0x1383AE, size: 0x8, addend: 0x0, symName: '__ZN4core3ptr61drop_in_place$LT$syn..path..ParenthesizedGenericArguments$GT$17h43d4aac5494326a7E', symObjAddr: 0x9850, symBinAddr: 0x49D90, symSize: 0x170 }
  - { offsetInCU: 0x56CA4, offset: 0x138975, size: 0x8, addend: 0x0, symName: '__ZN4core3ptr62drop_in_place$LT$alloc..boxed..Box$LT$syn..stmt..Block$GT$$GT$17h30434998ae0f12a8E', symObjAddr: 0x99C0, symBinAddr: 0x49F00, symSize: 0xE0 }
  - { offsetInCU: 0x57085, offset: 0x138D56, size: 0x8, addend: 0x0, symName: '__ZN4core3ptr62drop_in_place$LT$syn..path..AngleBracketedGenericArguments$GT$17hc5b69f68243636ddE', symObjAddr: 0x9AA0, symBinAddr: 0x49FE0, symSize: 0x120 }
  - { offsetInCU: 0x5749B, offset: 0x13916C, size: 0x8, addend: 0x0, symName: '__ZN4core3ptr63drop_in_place$LT$alloc..boxed..Box$LT$syn..lit..LitRepr$GT$$GT$17hd8839b7fb35ee7afE', symObjAddr: 0x9BC0, symBinAddr: 0x4A100, symSize: 0x60 }
  - { offsetInCU: 0x57771, offset: 0x139442, size: 0x8, addend: 0x0, symName: '__ZN4core3ptr63drop_in_place$LT$alloc..vec..Vec$LT$syn..item..ImplItem$GT$$GT$17hda9ba61cc1df3d0eE', symObjAddr: 0x9C20, symBinAddr: 0x4A160, symSize: 0x80 }
  - { offsetInCU: 0x57A0E, offset: 0x1396DF, size: 0x8, addend: 0x0, symName: '__ZN4core3ptr64drop_in_place$LT$alloc..boxed..Box$LT$syn..item..UseTree$GT$$GT$17he10cba0a4742709fE', symObjAddr: 0x9CA0, symBinAddr: 0x4A1E0, symSize: 0xF0 }
  - { offsetInCU: 0x57F4E, offset: 0x139C1F, size: 0x8, addend: 0x0, symName: '__ZN4core3ptr64drop_in_place$LT$alloc..boxed..Box$LT$syn..pat..FieldPat$GT$$GT$17h4980b70a7597cc08E', symObjAddr: 0x9D90, symBinAddr: 0x4A2D0, symSize: 0x140 }
  - { offsetInCU: 0x585F9, offset: 0x13A2CA, size: 0x8, addend: 0x0, symName: '__ZN4core3ptr64drop_in_place$LT$alloc..boxed..Box$LT$syn..ty..BareFnArg$GT$$GT$17h8b34096c620314efE', symObjAddr: 0x9ED0, symBinAddr: 0x4A410, symSize: 0x140 }
  - { offsetInCU: 0x58B1D, offset: 0x13A7EE, size: 0x8, addend: 0x0, symName: '__ZN4core3ptr64drop_in_place$LT$alloc..vec..Vec$LT$syn..attr..Attribute$GT$$GT$17h3c8f2a04e701c675E', symObjAddr: 0xA010, symBinAddr: 0x4A550, symSize: 0xD0 }
  - { offsetInCU: 0x58DAA, offset: 0x13AA7B, size: 0x8, addend: 0x0, symName: '__ZN4core3ptr64drop_in_place$LT$alloc..vec..Vec$LT$syn..item..TraitItem$GT$$GT$17h60eb4b8666c57b93E', symObjAddr: 0xA0E0, symBinAddr: 0x4A620, symSize: 0x80 }
  - { offsetInCU: 0x59028, offset: 0x13ACF9, size: 0x8, addend: 0x0, symName: '__ZN4core3ptr65drop_in_place$LT$core..option..Option$LT$syn..expr..Label$GT$$GT$17h78189e72a8cb7951E', symObjAddr: 0xA160, symBinAddr: 0x4A6A0, symSize: 0x30 }
  - { offsetInCU: 0x59163, offset: 0x13AE34, size: 0x8, addend: 0x0, symName: '__ZN4core3ptr66drop_in_place$LT$alloc..vec..Vec$LT$syn..item..ForeignItem$GT$$GT$17h3e58b8e683c84cf4E', symObjAddr: 0xA270, symBinAddr: 0x4A6D0, symSize: 0x80 }
  - { offsetInCU: 0x593E1, offset: 0x13B0B2, size: 0x8, addend: 0x0, symName: '__ZN4core3ptr66drop_in_place$LT$core..option..Option$LT$syn..pat..PatRest$GT$$GT$17h61677cf4ff3a7393E', symObjAddr: 0xA2F0, symBinAddr: 0x4A750, symSize: 0xE0 }
  - { offsetInCU: 0x59665, offset: 0x13B336, size: 0x8, addend: 0x0, symName: '__ZN4core3ptr67drop_in_place$LT$alloc..boxed..Box$LT$syn..expr..FieldValue$GT$$GT$17h93aaccf8aa22ef88E', symObjAddr: 0xA3D0, symBinAddr: 0x4A830, symSize: 0x140 }
  - { offsetInCU: 0x59B69, offset: 0x13B83A, size: 0x8, addend: 0x0, symName: '__ZN4core3ptr67drop_in_place$LT$core..option..Option$LT$proc_macro2..Ident$GT$$GT$17hec63a294be1dc410E', symObjAddr: 0xA510, symBinAddr: 0x4A970, symSize: 0x30 }
  - { offsetInCU: 0x59C66, offset: 0x13B937, size: 0x8, addend: 0x0, symName: '__ZN4core3ptr68drop_in_place$LT$alloc..boxed..Box$LT$syn..path..PathSegment$GT$$GT$17h709dabdc13b58a71E', symObjAddr: 0xA540, symBinAddr: 0x4A9A0, symSize: 0x190 }
  - { offsetInCU: 0x5A344, offset: 0x13C015, size: 0x8, addend: 0x0, symName: '__ZN4core3ptr70drop_in_place$LT$core..option..Option$LT$syn..ty..BareVariadic$GT$$GT$17h45399348ea4b8d55E', symObjAddr: 0xA6F0, symBinAddr: 0x4AB30, symSize: 0x120 }
  - { offsetInCU: 0x5A871, offset: 0x13C542, size: 0x8, addend: 0x0, symName: '__ZN4core3ptr72drop_in_place$LT$alloc..boxed..Box$LT$syn..path..GenericArgument$GT$$GT$17haa7dd8b716637b54E', symObjAddr: 0xA810, symBinAddr: 0x4AC50, symSize: 0x1D0 }
  - { offsetInCU: 0x5AE14, offset: 0x13CAE5, size: 0x8, addend: 0x0, symName: '__ZN4core3ptr72drop_in_place$LT$core..option..Option$LT$syn..lifetime..Lifetime$GT$$GT$17hfc363ccdd8bd9c32E', symObjAddr: 0xA9E0, symBinAddr: 0x4AE20, symSize: 0x30 }
  - { offsetInCU: 0x5AF30, offset: 0x13CC01, size: 0x8, addend: 0x0, symName: '__ZN4core3ptr73drop_in_place$LT$alloc..boxed..Box$LT$syn..generics..GenericParam$GT$$GT$17hf6951dcd5ae07324E', symObjAddr: 0xAA10, symBinAddr: 0x4AE50, symSize: 0x80 }
  - { offsetInCU: 0x5B0A8, offset: 0x13CD79, size: 0x8, addend: 0x0, symName: '__ZN4core3ptr75drop_in_place$LT$alloc..boxed..Box$LT$syn..generics..TypeParamBound$GT$$GT$17he61c00698a311a34E', symObjAddr: 0xAA90, symBinAddr: 0x4AED0, symSize: 0xB0 }
  - { offsetInCU: 0x5B422, offset: 0x13D0F3, size: 0x8, addend: 0x0, symName: '__ZN4core3ptr75drop_in_place$LT$core..option..Option$LT$syn..generics..WhereClause$GT$$GT$17hdce7670be9790a3dE', symObjAddr: 0xAB40, symBinAddr: 0x4AF80, symSize: 0x90 }
  - { offsetInCU: 0x5B6D8, offset: 0x13D3A9, size: 0x8, addend: 0x0, symName: '__ZN4core3ptr86drop_in_place$LT$syn..punctuated..Punctuated$LT$syn..pat..Pat$C$syn..token..Or$GT$$GT$17h8e9173df21a44316E', symObjAddr: 0xABE0, symBinAddr: 0x4B010, symSize: 0x120 }
  - { offsetInCU: 0x5BB1E, offset: 0x13D7EF, size: 0x8, addend: 0x0, symName: '__ZN4core3ptr87drop_in_place$LT$core..option..Option$LT$alloc..boxed..Box$LT$syn..pat..Pat$GT$$GT$$GT$17hd7b7c69f601b3926E', symObjAddr: 0xAD20, symBinAddr: 0x4B130, symSize: 0x50 }
  - { offsetInCU: 0x5BC90, offset: 0x13D961, size: 0x8, addend: 0x0, symName: '__ZN4core3ptr87drop_in_place$LT$core..option..Option$LT$alloc..boxed..Box$LT$syn..ty..Type$GT$$GT$$GT$17hd74f5d971aec2972E', symObjAddr: 0xAD70, symBinAddr: 0x4B180, symSize: 0x50 }
  - { offsetInCU: 0x5BE02, offset: 0x13DAD3, size: 0x8, addend: 0x0, symName: '__ZN4core3ptr89drop_in_place$LT$core..option..Option$LT$alloc..boxed..Box$LT$syn..expr..Expr$GT$$GT$$GT$17h8e135ac1a25a2dc5E', symObjAddr: 0xADE0, symBinAddr: 0x4B1D0, symSize: 0x50 }
  - { offsetInCU: 0x5BFB2, offset: 0x13DC83, size: 0x8, addend: 0x0, symName: '__ZN4core3ptr89drop_in_place$LT$syn..punctuated..Punctuated$LT$syn..pat..Pat$C$syn..token..Comma$GT$$GT$17h8d60e47f3fb1f87aE', symObjAddr: 0xAE30, symBinAddr: 0x4B220, symSize: 0x120 }
  - { offsetInCU: 0x5C40F, offset: 0x13E0E0, size: 0x8, addend: 0x0, symName: '__ZN4core3ptr89drop_in_place$LT$syn..punctuated..Punctuated$LT$syn..ty..Type$C$syn..token..Comma$GT$$GT$17ha919b3114742fb9dE', symObjAddr: 0xAF50, symBinAddr: 0x4B340, symSize: 0x120 }
  - { offsetInCU: 0x5C897, offset: 0x13E568, size: 0x8, addend: 0x0, symName: '__ZN4core3ptr90drop_in_place$LT$core..option..Option$LT$alloc..boxed..Box$LT$syn..data..Field$GT$$GT$$GT$17h326c39537b0fcc46E', symObjAddr: 0xB070, symBinAddr: 0x4B460, symSize: 0x200 }
  - { offsetInCU: 0x5D100, offset: 0x13EDD1, size: 0x8, addend: 0x0, symName: '__ZN4core3ptr90drop_in_place$LT$core..option..Option$LT$alloc..boxed..Box$LT$syn..item..FnArg$GT$$GT$$GT$17hbae3fdd388277508E', symObjAddr: 0xB270, symBinAddr: 0x4B660, symSize: 0x60 }
  - { offsetInCU: 0x5D27C, offset: 0x13EF4D, size: 0x8, addend: 0x0, symName: '__ZN4core3ptr90drop_in_place$LT$core..option..Option$LT$syn..path..AngleBracketedGenericArguments$GT$$GT$17h80d9a5f0818c8bd9E', symObjAddr: 0xB2D0, symBinAddr: 0x4B6C0, symSize: 0x130 }
  - { offsetInCU: 0x5D6E7, offset: 0x13F3B8, size: 0x8, addend: 0x0, symName: '__ZN4core3ptr91drop_in_place$LT$syn..punctuated..Punctuated$LT$syn..expr..Expr$C$syn..token..Comma$GT$$GT$17h4f39b83dc86a4159E', symObjAddr: 0xB400, symBinAddr: 0x4B7F0, symSize: 0x120 }
  - { offsetInCU: 0x5DB44, offset: 0x13F815, size: 0x8, addend: 0x0, symName: '__ZN4core3ptr92drop_in_place$LT$core..option..Option$LT$$LP$syn..token..As$C$proc_macro2..Ident$RP$$GT$$GT$17h5c1a47ccb35d9d7eE', symObjAddr: 0xB520, symBinAddr: 0x4B910, symSize: 0x30 }
  - { offsetInCU: 0x5DC9E, offset: 0x13F96F, size: 0x8, addend: 0x0, symName: '__ZN4core3ptr92drop_in_place$LT$core..option..Option$LT$alloc..boxed..Box$LT$syn..data..Variant$GT$$GT$$GT$17h3f89d7c982191526E', symObjAddr: 0xB550, symBinAddr: 0x4B940, symSize: 0x190 }
  - { offsetInCU: 0x5E347, offset: 0x140018, size: 0x8, addend: 0x0, symName: '__ZN4core3ptr92drop_in_place$LT$syn..punctuated..Punctuated$LT$syn..item..FnArg$C$syn..token..Comma$GT$$GT$17h75db9d232662c7d3E', symObjAddr: 0xB6E0, symBinAddr: 0x4BAD0, symSize: 0x140 }
  - { offsetInCU: 0x5E795, offset: 0x140466, size: 0x8, addend: 0x0, symName: '__ZN4core3ptr94drop_in_place$LT$syn..punctuated..Punctuated$LT$syn..data..Variant$C$syn..token..Comma$GT$$GT$17ha69d7e675441c7e2E', symObjAddr: 0xB820, symBinAddr: 0x4BC10, symSize: 0xE0 }
  - { offsetInCU: 0x5EAC2, offset: 0x140793, size: 0x8, addend: 0x0, symName: '__ZN4core3ptr94drop_in_place$LT$syn..punctuated..Punctuated$LT$syn..item..UseTree$C$syn..token..Comma$GT$$GT$17h4e4f303ffad9f549E', symObjAddr: 0xB900, symBinAddr: 0x4BCF0, symSize: 0xF0 }
  - { offsetInCU: 0x5EDD3, offset: 0x140AA4, size: 0x8, addend: 0x0, symName: '__ZN4core3ptr94drop_in_place$LT$syn..punctuated..Punctuated$LT$syn..pat..FieldPat$C$syn..token..Comma$GT$$GT$17h112950ea198c8281E', symObjAddr: 0xB9F0, symBinAddr: 0x4BDE0, symSize: 0xF0 }
  - { offsetInCU: 0x5F09D, offset: 0x140D6E, size: 0x8, addend: 0x0, symName: '__ZN4core3ptr94drop_in_place$LT$syn..punctuated..Punctuated$LT$syn..ty..BareFnArg$C$syn..token..Comma$GT$$GT$17h1c7b44310f06243dE', symObjAddr: 0xBAE0, symBinAddr: 0x4BED0, symSize: 0xF0 }
  - { offsetInCU: 0x5F367, offset: 0x141038, size: 0x8, addend: 0x0, symName: '__ZN4core3ptr96drop_in_place$LT$core..option..Option$LT$alloc..boxed..Box$LT$syn..path..PathSegment$GT$$GT$$GT$17hb447d0f626c86a4eE', symObjAddr: 0xBBD0, symBinAddr: 0x4BFC0, symSize: 0x90 }
  - { offsetInCU: 0x5F5E9, offset: 0x1412BA, size: 0x8, addend: 0x0, symName: '__ZN4core3ptr97drop_in_place$LT$syn..punctuated..Punctuated$LT$syn..expr..FieldValue$C$syn..token..Comma$GT$$GT$17h31b81f7462228dcbE', symObjAddr: 0xBC60, symBinAddr: 0x4C050, symSize: 0xF0 }
  - { offsetInCU: 0x5F8B3, offset: 0x141584, size: 0x8, addend: 0x0, symName: '__ZN4core3ptr98drop_in_place$LT$alloc..vec..Vec$LT$$LP$syn..path..GenericArgument$C$syn..token..Comma$RP$$GT$$GT$17h0657ff261f33b640E', symObjAddr: 0xBD50, symBinAddr: 0x4C140, symSize: 0xD0 }
  - { offsetInCU: 0x5FBBC, offset: 0x14188D, size: 0x8, addend: 0x0, symName: '__ZN4core3ptr98drop_in_place$LT$syn..punctuated..Punctuated$LT$syn..lifetime..Lifetime$C$syn..token..Plus$GT$$GT$17h0f8fc5f20f465f47E', symObjAddr: 0xBE20, symBinAddr: 0x4C210, symSize: 0xC0 }
  - { offsetInCU: 0x6C80D, offset: 0x14E4DE, size: 0x8, addend: 0x0, symName: '__ZN5alloc3vec16Vec$LT$T$C$A$GT$4push17hee7056fca81de2b5E', symObjAddr: 0xC0D0, symBinAddr: 0x4C2D0, symSize: 0x60 }
  - { offsetInCU: 0x6CA48, offset: 0x14E719, size: 0x8, addend: 0x0, symName: '__ZN5alloc3vec16Vec$LT$T$C$A$GT$6append17h429b9c0d32835dc0E', symObjAddr: 0xC130, symBinAddr: 0x4C330, symSize: 0x80 }
  - { offsetInCU: 0x6CCFD, offset: 0x14E9CE, size: 0x8, addend: 0x0, symName: __ZN3syn4item4Item13replace_attrs17hc89b3448d1af9bc5E, symObjAddr: 0xCC00, symBinAddr: 0x4C3B0, symSize: 0x1C0 }
  - { offsetInCU: 0x1E, offset: 0x15CB4F, size: 0x8, addend: 0x0, symName: '__ZN4core3ptr100drop_in_place$LT$alloc..vec..Vec$LT$$LP$syn..generics..TypeParamBound$C$syn..token..Plus$RP$$GT$$GT$17h8b4df1d78e856f8eE.llvm.720949811486110776', symObjAddr: 0x0, symBinAddr: 0x611B0, symSize: 0xD0 }
  - { offsetInCU: 0x12F9, offset: 0x15DE2A, size: 0x8, addend: 0x0, symName: '__ZN100_$LT$syn..punctuated..PrivateIter$LT$T$C$P$GT$$u20$as$u20$core..iter..traits..iterator..Iterator$GT$4next17h2288f88597771eccE.llvm.720949811486110776', symObjAddr: 0x101F0, symBinAddr: 0x6DAC0, symSize: 0x30 }
  - { offsetInCU: 0x158C, offset: 0x15E0BD, size: 0x8, addend: 0x0, symName: '__ZN100_$LT$syn..punctuated..PrivateIter$LT$T$C$P$GT$$u20$as$u20$core..iter..traits..iterator..Iterator$GT$4next17h2b2ca8d3435ec515E.llvm.720949811486110776', symObjAddr: 0x10220, symBinAddr: 0x6DAF0, symSize: 0x30 }
  - { offsetInCU: 0x1CBD, offset: 0x15E7EE, size: 0x8, addend: 0x0, symName: '__ZN79_$LT$syn..punctuated..Punctuated$LT$T$C$P$GT$$u20$as$u20$core..clone..Clone$GT$5clone17h1b6336e2635a9e8fE', symObjAddr: 0xC9B0, symBinAddr: 0x6C700, symSize: 0x110 }
  - { offsetInCU: 0x20C0, offset: 0x15EBF1, size: 0x8, addend: 0x0, symName: '__ZN79_$LT$syn..punctuated..Punctuated$LT$T$C$P$GT$$u20$as$u20$core..clone..Clone$GT$5clone17h216d0cc9fdbbad96E', symObjAddr: 0xCAC0, symBinAddr: 0x6C810, symSize: 0x2C0 }
  - { offsetInCU: 0x2602, offset: 0x15F133, size: 0x8, addend: 0x0, symName: '__ZN79_$LT$syn..punctuated..Punctuated$LT$T$C$P$GT$$u20$as$u20$core..clone..Clone$GT$5clone17h401205d976f2a24fE', symObjAddr: 0xCD80, symBinAddr: 0x6CAD0, symSize: 0xE0 }
  - { offsetInCU: 0x28CC, offset: 0x15F3FD, size: 0x8, addend: 0x0, symName: '__ZN79_$LT$syn..punctuated..Punctuated$LT$T$C$P$GT$$u20$as$u20$core..clone..Clone$GT$5clone17h46c0276e4a1ee5d5E', symObjAddr: 0xCE60, symBinAddr: 0x6CBB0, symSize: 0x230 }
  - { offsetInCU: 0x2BF8, offset: 0x15F729, size: 0x8, addend: 0x0, symName: '__ZN79_$LT$syn..punctuated..Punctuated$LT$T$C$P$GT$$u20$as$u20$core..clone..Clone$GT$5clone17h52bdce65b2924a44E', symObjAddr: 0xD170, symBinAddr: 0x6CDE0, symSize: 0xE0 }
  - { offsetInCU: 0x2EC2, offset: 0x15F9F3, size: 0x8, addend: 0x0, symName: '__ZN79_$LT$syn..punctuated..Punctuated$LT$T$C$P$GT$$u20$as$u20$core..clone..Clone$GT$5clone17h6e5c167729c6dc97E', symObjAddr: 0xD330, symBinAddr: 0x6CEC0, symSize: 0x1C0 }
  - { offsetInCU: 0x320C, offset: 0x15FD3D, size: 0x8, addend: 0x0, symName: '__ZN79_$LT$syn..punctuated..Punctuated$LT$T$C$P$GT$$u20$as$u20$core..clone..Clone$GT$5clone17ha8c279133d54c43aE', symObjAddr: 0xD5F0, symBinAddr: 0x6D080, symSize: 0xE0 }
  - { offsetInCU: 0x34D5, offset: 0x160006, size: 0x8, addend: 0x0, symName: '__ZN79_$LT$syn..punctuated..Punctuated$LT$T$C$P$GT$$u20$as$u20$core..clone..Clone$GT$5clone17hc59117e85ed64290E', symObjAddr: 0xD8B0, symBinAddr: 0x6D160, symSize: 0xE0 }
  - { offsetInCU: 0x379F, offset: 0x1602D0, size: 0x8, addend: 0x0, symName: '__ZN79_$LT$syn..punctuated..Punctuated$LT$T$C$P$GT$$u20$as$u20$core..clone..Clone$GT$5clone17hca4078c0b112b9bbE', symObjAddr: 0xD990, symBinAddr: 0x6D240, symSize: 0x140 }
  - { offsetInCU: 0x3C41, offset: 0x160772, size: 0x8, addend: 0x0, symName: '__ZN79_$LT$syn..punctuated..Punctuated$LT$T$C$P$GT$$u20$as$u20$core..clone..Clone$GT$5clone17heb9ec5c115753a9eE', symObjAddr: 0xDAD0, symBinAddr: 0x6D380, symSize: 0xE0 }
  - { offsetInCU: 0x3F0B, offset: 0x160A3C, size: 0x8, addend: 0x0, symName: '__ZN79_$LT$syn..punctuated..Punctuated$LT$T$C$P$GT$$u20$as$u20$core..clone..Clone$GT$5clone17hfc802b453cbd89a2E', symObjAddr: 0xDBB0, symBinAddr: 0x6D460, symSize: 0xE0 }
  - { offsetInCU: 0x42F9, offset: 0x160E2A, size: 0x8, addend: 0x0, symName: '__ZN138_$LT$syn..punctuated..Punctuated$LT$T$C$P$GT$$u20$as$u20$core..iter..traits..collect..Extend$LT$syn..punctuated..Pair$LT$T$C$P$GT$$GT$$GT$6extend17h0c12569780469b5fE', symObjAddr: 0xF390, symBinAddr: 0x6D540, symSize: 0x370 }
  - { offsetInCU: 0x47EE, offset: 0x16131F, size: 0x8, addend: 0x0, symName: '__ZN102_$LT$syn..punctuated..Punctuated$LT$T$C$P$GT$$u20$as$u20$core..iter..traits..collect..IntoIterator$GT$9into_iter17h19dc66090da1f9fdE', symObjAddr: 0xFB40, symBinAddr: 0x6D8B0, symSize: 0x210 }
  - { offsetInCU: 0x583E, offset: 0x16236F, size: 0x8, addend: 0x0, symName: '__ZN97_$LT$syn..punctuated..Punctuated$LT$T$C$P$GT$$u20$as$u20$core..ops..index..Index$LT$usize$GT$$GT$5index17h4f8cb199669a0d4aE', symObjAddr: 0x105C0, symBinAddr: 0x6DB20, symSize: 0x40 }
  - { offsetInCU: 0x5985, offset: 0x1624B6, size: 0x8, addend: 0x0, symName: '__ZN3syn10punctuated8printing91_$LT$impl$u20$quote..to_tokens..ToTokens$u20$for$u20$syn..punctuated..Pair$LT$T$C$P$GT$$GT$9to_tokens17h1946c43ec2d8cf8fE', symObjAddr: 0x10890, symBinAddr: 0x6DD10, symSize: 0xC0 }
  - { offsetInCU: 0x5B77, offset: 0x1626A8, size: 0x8, addend: 0x0, symName: '__ZN3syn10punctuated8printing97_$LT$impl$u20$quote..to_tokens..ToTokens$u20$for$u20$syn..punctuated..Punctuated$LT$T$C$P$GT$$GT$9to_tokens17h183c223efb5c6660E', symObjAddr: 0x106E0, symBinAddr: 0x6DB60, symSize: 0x1B0 }
  - { offsetInCU: 0xFA88, offset: 0x16C5B9, size: 0x8, addend: 0x0, symName: '__ZN4core3ptr100drop_in_place$LT$alloc..vec..Vec$LT$$LP$syn..generics..TypeParamBound$C$syn..token..Plus$RP$$GT$$GT$17h8b4df1d78e856f8eE.llvm.720949811486110776', symObjAddr: 0x0, symBinAddr: 0x611B0, symSize: 0xD0 }
  - { offsetInCU: 0xFD34, offset: 0x16C865, size: 0x8, addend: 0x0, symName: '__ZN4core3ptr100drop_in_place$LT$core..option..Option$LT$alloc..boxed..Box$LT$syn..path..GenericArgument$GT$$GT$$GT$17h7435c9de74860622E.llvm.720949811486110776', symObjAddr: 0xD0, symBinAddr: 0x61280, symSize: 0x50 }
  - { offsetInCU: 0xFF22, offset: 0x16CA53, size: 0x8, addend: 0x0, symName: '__ZN4core3ptr100drop_in_place$LT$syn..punctuated..Punctuated$LT$syn..path..PathSegment$C$syn..token..PathSep$GT$$GT$17hf414cb3581f8337aE', symObjAddr: 0x120, symBinAddr: 0x612D0, symSize: 0x110 }
  - { offsetInCU: 0x10340, offset: 0x16CE71, size: 0x8, addend: 0x0, symName: '__ZN4core3ptr101drop_in_place$LT$alloc..vec..Vec$LT$$LP$syn..generics..WherePredicate$C$syn..token..Comma$RP$$GT$$GT$17hb2169051094b4da6E.llvm.720949811486110776', symObjAddr: 0x230, symBinAddr: 0x613E0, symSize: 0x60 }
  - { offsetInCU: 0x105A5, offset: 0x16D0D6, size: 0x8, addend: 0x0, symName: '__ZN4core3ptr102drop_in_place$LT$syn..punctuated..Punctuated$LT$syn..path..GenericArgument$C$syn..token..Comma$GT$$GT$17h39496ba4e6dba6cfE', symObjAddr: 0x2A0, symBinAddr: 0x61440, symSize: 0xF0 }
  - { offsetInCU: 0x1088E, offset: 0x16D3BF, size: 0x8, addend: 0x0, symName: '__ZN4core3ptr103drop_in_place$LT$core..option..Option$LT$alloc..boxed..Box$LT$syn..generics..TypeParamBound$GT$$GT$$GT$17h5974f03e36b1a9c3E.llvm.720949811486110776', symObjAddr: 0x390, symBinAddr: 0x61530, symSize: 0x50 }
  - { offsetInCU: 0x10A9B, offset: 0x16D5CC, size: 0x8, addend: 0x0, symName: '__ZN4core3ptr103drop_in_place$LT$syn..punctuated..Punctuated$LT$syn..generics..GenericParam$C$syn..token..Comma$GT$$GT$17hf42353fa44ed6da8E.llvm.720949811486110776', symObjAddr: 0x3E0, symBinAddr: 0x61580, symSize: 0xF0 }
  - { offsetInCU: 0x10FBB, offset: 0x16DAEC, size: 0x8, addend: 0x0, symName: '__ZN4core3ptr104drop_in_place$LT$syn..punctuated..Punctuated$LT$syn..generics..TypeParamBound$C$syn..token..Plus$GT$$GT$17h532f52c4a894b056E.llvm.720949811486110776', symObjAddr: 0x4D0, symBinAddr: 0x61670, symSize: 0x190 }
  - { offsetInCU: 0x1162E, offset: 0x16E15F, size: 0x8, addend: 0x0, symName: '__ZN4core3ptr34drop_in_place$LT$syn..lit..Lit$GT$17h8902f5ff67917034E', symObjAddr: 0x660, symBinAddr: 0x61800, symSize: 0x110 }
  - { offsetInCU: 0x11BA6, offset: 0x16E6D7, size: 0x8, addend: 0x0, symName: '__ZN4core3ptr34drop_in_place$LT$syn..pat..Pat$GT$17h4581eea028ec0969E.llvm.720949811486110776', symObjAddr: 0x770, symBinAddr: 0x61910, symSize: 0x1000 }
  - { offsetInCU: 0x156EA, offset: 0x17221B, size: 0x8, addend: 0x0, symName: '__ZN4core3ptr34drop_in_place$LT$syn..ty..Type$GT$17h369e41ad4a9f1ae0E.llvm.720949811486110776', symObjAddr: 0x1770, symBinAddr: 0x62910, symSize: 0x4F0 }
  - { offsetInCU: 0x16C54, offset: 0x173785, size: 0x8, addend: 0x0, symName: '__ZN4core3ptr36drop_in_place$LT$syn..expr..Expr$GT$17h0f7fd4c749bae801E.llvm.720949811486110776', symObjAddr: 0x1C70, symBinAddr: 0x62E00, symSize: 0x28C0 }
  - { offsetInCU: 0x200F9, offset: 0x17CC2A, size: 0x8, addend: 0x0, symName: '__ZN4core3ptr36drop_in_place$LT$syn..mac..Macro$GT$17h4ffde962df30ebe2E', symObjAddr: 0x4530, symBinAddr: 0x656C0, symSize: 0x40 }
  - { offsetInCU: 0x20133, offset: 0x17CC64, size: 0x8, addend: 0x0, symName: '__ZN4core3ptr36drop_in_place$LT$syn..path..Path$GT$17habea856181211e1cE.llvm.720949811486110776', symObjAddr: 0x4570, symBinAddr: 0x65700, symSize: 0xC0 }
  - { offsetInCU: 0x2040D, offset: 0x17CF3E, size: 0x8, addend: 0x0, symName: '__ZN4core3ptr37drop_in_place$LT$syn..data..Field$GT$17h8ecf6e22a67a3b36E.llvm.720949811486110776', symObjAddr: 0x4630, symBinAddr: 0x657C0, symSize: 0x140 }
  - { offsetInCU: 0x20829, offset: 0x17D35A, size: 0x8, addend: 0x0, symName: '__ZN4core3ptr37drop_in_place$LT$syn..item..FnArg$GT$17h3308e115b3b3c9adE.llvm.720949811486110776', symObjAddr: 0x4770, symBinAddr: 0x65900, symSize: 0x280 }
  - { offsetInCU: 0x21204, offset: 0x17DD35, size: 0x8, addend: 0x0, symName: '__ZN4core3ptr37drop_in_place$LT$syn..stmt..Block$GT$17hcc21a21cf949414cE', symObjAddr: 0x49F0, symBinAddr: 0x65B80, symSize: 0xD0 }
  - { offsetInCU: 0x214A8, offset: 0x17DFD9, size: 0x8, addend: 0x0, symName: '__ZN4core3ptr38drop_in_place$LT$syn..expr..Member$GT$17h022cbe5553aa40faE.llvm.720949811486110776', symObjAddr: 0x4AC0, symBinAddr: 0x65C50, symSize: 0x30 }
  - { offsetInCU: 0x215A5, offset: 0x17E0D6, size: 0x8, addend: 0x0, symName: '__ZN4core3ptr39drop_in_place$LT$proc_macro2..Ident$GT$17h8101e88c3ac359d6E.llvm.720949811486110776', symObjAddr: 0x4AF0, symBinAddr: 0x65C80, symSize: 0x30 }
  - { offsetInCU: 0x216E0, offset: 0x17E211, size: 0x8, addend: 0x0, symName: '__ZN4core3ptr39drop_in_place$LT$syn..data..Variant$GT$17h7bd4c363751fc860E', symObjAddr: 0x4B20, symBinAddr: 0x65CB0, symSize: 0x150 }
  - { offsetInCU: 0x21C30, offset: 0x17E761, size: 0x8, addend: 0x0, symName: '__ZN4core3ptr39drop_in_place$LT$syn..item..UseTree$GT$17h5b1281a5704d139dE.llvm.720949811486110776', symObjAddr: 0x4C70, symBinAddr: 0x65E00, symSize: 0x1D0 }
  - { offsetInCU: 0x22330, offset: 0x17EE61, size: 0x8, addend: 0x0, symName: '__ZN4core3ptr39drop_in_place$LT$syn..pat..FieldPat$GT$17h6890d0559a60b030E.llvm.720949811486110776', symObjAddr: 0x4E40, symBinAddr: 0x65FD0, symSize: 0x130 }
  - { offsetInCU: 0x22872, offset: 0x17F3A3, size: 0x8, addend: 0x0, symName: '__ZN4core3ptr39drop_in_place$LT$syn..ty..BareFnArg$GT$17hac0a1b8fd6f7ad3cE.llvm.720949811486110776', symObjAddr: 0x4F70, symBinAddr: 0x66100, symSize: 0x110 }
  - { offsetInCU: 0x22C3E, offset: 0x17F76F, size: 0x8, addend: 0x0, symName: '__ZN4core3ptr40drop_in_place$LT$syn..ty..ReturnType$GT$17h02cf41e2fec63d90E', symObjAddr: 0x5080, symBinAddr: 0x66210, symSize: 0x50 }
  - { offsetInCU: 0x22DB0, offset: 0x17F8E1, size: 0x8, addend: 0x0, symName: '__ZN4core3ptr41drop_in_place$LT$syn..expr..ExprConst$GT$17h725a13e551d9f276E', symObjAddr: 0x50D0, symBinAddr: 0x66260, symSize: 0x180 }
  - { offsetInCU: 0x23305, offset: 0x17FE36, size: 0x8, addend: 0x0, symName: '__ZN4core3ptr42drop_in_place$LT$syn..expr..FieldValue$GT$17h26d594bfbe912662E.llvm.720949811486110776', symObjAddr: 0x5250, symBinAddr: 0x663E0, symSize: 0x110 }
  - { offsetInCU: 0x236EF, offset: 0x180220, size: 0x8, addend: 0x0, symName: '__ZN4core3ptr43drop_in_place$LT$syn..path..PathSegment$GT$17h62e206c29667de7cE.llvm.720949811486110776', symObjAddr: 0x5360, symBinAddr: 0x664F0, symSize: 0x170 }
  - { offsetInCU: 0x23C21, offset: 0x180752, size: 0x8, addend: 0x0, symName: '__ZN4core3ptr44drop_in_place$LT$syn..lifetime..Lifetime$GT$17hf0cdec2e9ec456d6E.llvm.720949811486110776', symObjAddr: 0x54D0, symBinAddr: 0x66660, symSize: 0x30 }
  - { offsetInCU: 0x23E54, offset: 0x180985, size: 0x8, addend: 0x0, symName: '__ZN4core3ptr45drop_in_place$LT$proc_macro2..TokenStream$GT$17h3405f6c513e9f6cbE.llvm.720949811486110776', symObjAddr: 0x5500, symBinAddr: 0x66690, symSize: 0x140 }
  - { offsetInCU: 0x242C3, offset: 0x180DF4, size: 0x8, addend: 0x0, symName: '__ZN4core3ptr45drop_in_place$LT$syn..generics..TypeParam$GT$17he5eda51070b7de47E.llvm.720949811486110776', symObjAddr: 0x5640, symBinAddr: 0x667D0, symSize: 0x230 }
  - { offsetInCU: 0x24ABF, offset: 0x1815F0, size: 0x8, addend: 0x0, symName: '__ZN4core3ptr46drop_in_place$LT$syn..generics..ConstParam$GT$17hab0a58c4af8c549cE.llvm.720949811486110776', symObjAddr: 0x5870, symBinAddr: 0x66A00, symSize: 0x150 }
  - { offsetInCU: 0x24EE9, offset: 0x181A1A, size: 0x8, addend: 0x0, symName: '__ZN4core3ptr47drop_in_place$LT$syn..path..GenericArgument$GT$17h54f8794633f96823E.llvm.720949811486110776', symObjAddr: 0x59C0, symBinAddr: 0x66B50, symSize: 0x460 }
  - { offsetInCU: 0x25BF2, offset: 0x182723, size: 0x8, addend: 0x0, symName: '__ZN4core3ptr48drop_in_place$LT$syn..generics..GenericParam$GT$17h9c895978ef08f584E.llvm.720949811486110776', symObjAddr: 0x5E20, symBinAddr: 0x66FB0, symSize: 0x40 }
  - { offsetInCU: 0x25C0F, offset: 0x182740, size: 0x8, addend: 0x0, symName: '__ZN4core3ptr49drop_in_place$LT$syn..generics..LifetimeParam$GT$17h41a7c7a290ea6289E.llvm.720949811486110776', symObjAddr: 0x5E60, symBinAddr: 0x66FF0, symSize: 0xF0 }
  - { offsetInCU: 0x26007, offset: 0x182B38, size: 0x8, addend: 0x0, symName: '__ZN4core3ptr49drop_in_place$LT$syn..restriction..Visibility$GT$17h2a932c493942ef80E', symObjAddr: 0x5F50, symBinAddr: 0x670E0, symSize: 0x110 }
  - { offsetInCU: 0x2643A, offset: 0x182F6B, size: 0x8, addend: 0x0, symName: '__ZN4core3ptr50drop_in_place$LT$syn..generics..TypeParamBound$GT$17hcd7771d4c6c221efE.llvm.720949811486110776', symObjAddr: 0x6060, symBinAddr: 0x671F0, symSize: 0x160 }
  - { offsetInCU: 0x26898, offset: 0x1833C9, size: 0x8, addend: 0x0, symName: '__ZN4core3ptr50drop_in_place$LT$syn..generics..WherePredicate$GT$17h1a9d05bc1beb1d91E.llvm.720949811486110776', symObjAddr: 0x61C0, symBinAddr: 0x67350, symSize: 0xA0 }
  - { offsetInCU: 0x26A39, offset: 0x18356A, size: 0x8, addend: 0x0, symName: '__ZN4core3ptr58drop_in_place$LT$alloc..vec..Vec$LT$syn..expr..Arm$GT$$GT$17h1a55df3d2cba1daaE', symObjAddr: 0x6260, symBinAddr: 0x673F0, symSize: 0xD0 }
  - { offsetInCU: 0x26CC6, offset: 0x1837F7, size: 0x8, addend: 0x0, symName: '__ZN4core3ptr59drop_in_place$LT$alloc..boxed..Box$LT$syn..pat..Pat$GT$$GT$17h563b135d87aca8abE.llvm.720949811486110776', symObjAddr: 0x6330, symBinAddr: 0x674C0, symSize: 0x50 }
  - { offsetInCU: 0x26E21, offset: 0x183952, size: 0x8, addend: 0x0, symName: '__ZN4core3ptr59drop_in_place$LT$alloc..boxed..Box$LT$syn..ty..Type$GT$$GT$17hffed36bad83adacbE.llvm.720949811486110776', symObjAddr: 0x6380, symBinAddr: 0x67510, symSize: 0x50 }
  - { offsetInCU: 0x26F7C, offset: 0x183AAD, size: 0x8, addend: 0x0, symName: '__ZN4core3ptr61drop_in_place$LT$alloc..boxed..Box$LT$syn..expr..Expr$GT$$GT$17h01091e47f131475dE.llvm.720949811486110776', symObjAddr: 0x64A0, symBinAddr: 0x67560, symSize: 0x50 }
  - { offsetInCU: 0x27153, offset: 0x183C84, size: 0x8, addend: 0x0, symName: '__ZN4core3ptr61drop_in_place$LT$syn..path..ParenthesizedGenericArguments$GT$17h43d4aac5494326a7E.llvm.720949811486110776', symObjAddr: 0x64F0, symBinAddr: 0x675B0, symSize: 0x170 }
  - { offsetInCU: 0x2772D, offset: 0x18425E, size: 0x8, addend: 0x0, symName: '__ZN4core3ptr63drop_in_place$LT$alloc..boxed..Box$LT$syn..lit..LitRepr$GT$$GT$17hd8839b7fb35ee7afE', symObjAddr: 0x6700, symBinAddr: 0x67720, symSize: 0x60 }
  - { offsetInCU: 0x27A03, offset: 0x184534, size: 0x8, addend: 0x0, symName: '__ZN4core3ptr64drop_in_place$LT$alloc..boxed..Box$LT$syn..item..UseTree$GT$$GT$17he10cba0a4742709fE', symObjAddr: 0x67B0, symBinAddr: 0x67780, symSize: 0x50 }
  - { offsetInCU: 0x27B7D, offset: 0x1846AE, size: 0x8, addend: 0x0, symName: '__ZN4core3ptr64drop_in_place$LT$alloc..boxed..Box$LT$syn..pat..FieldPat$GT$$GT$17h4980b70a7597cc08E', symObjAddr: 0x6800, symBinAddr: 0x677D0, symSize: 0x140 }
  - { offsetInCU: 0x281EA, offset: 0x184D1B, size: 0x8, addend: 0x0, symName: '__ZN4core3ptr64drop_in_place$LT$alloc..boxed..Box$LT$syn..ty..BareFnArg$GT$$GT$17h8b34096c620314efE', symObjAddr: 0x6940, symBinAddr: 0x67910, symSize: 0x140 }
  - { offsetInCU: 0x2870E, offset: 0x18523F, size: 0x8, addend: 0x0, symName: '__ZN4core3ptr65drop_in_place$LT$core..option..Option$LT$syn..expr..Label$GT$$GT$17h78189e72a8cb7951E', symObjAddr: 0x6A80, symBinAddr: 0x67A50, symSize: 0x30 }
  - { offsetInCU: 0x28849, offset: 0x18537A, size: 0x8, addend: 0x0, symName: '__ZN4core3ptr66drop_in_place$LT$core..option..Option$LT$syn..pat..PatRest$GT$$GT$17h61677cf4ff3a7393E', symObjAddr: 0x6AB0, symBinAddr: 0x67A80, symSize: 0xE0 }
  - { offsetInCU: 0x28ACD, offset: 0x1855FE, size: 0x8, addend: 0x0, symName: '__ZN4core3ptr67drop_in_place$LT$alloc..boxed..Box$LT$syn..expr..FieldValue$GT$$GT$17h93aaccf8aa22ef88E', symObjAddr: 0x6B90, symBinAddr: 0x67B60, symSize: 0x140 }
  - { offsetInCU: 0x28FF0, offset: 0x185B21, size: 0x8, addend: 0x0, symName: '__ZN4core3ptr70drop_in_place$LT$core..option..Option$LT$syn..ty..BareVariadic$GT$$GT$17h45399348ea4b8d55E', symObjAddr: 0x6D60, symBinAddr: 0x67CA0, symSize: 0x120 }
  - { offsetInCU: 0x2951D, offset: 0x18604E, size: 0x8, addend: 0x0, symName: '__ZN4core3ptr72drop_in_place$LT$alloc..boxed..Box$LT$syn..path..GenericArgument$GT$$GT$17haa7dd8b716637b54E', symObjAddr: 0x6E80, symBinAddr: 0x67DC0, symSize: 0x2B0 }
  - { offsetInCU: 0x29F08, offset: 0x186A39, size: 0x8, addend: 0x0, symName: '__ZN4core3ptr73drop_in_place$LT$alloc..boxed..Box$LT$syn..generics..GenericParam$GT$$GT$17hf6951dcd5ae07324E.llvm.720949811486110776', symObjAddr: 0x7130, symBinAddr: 0x68070, symSize: 0x80 }
  - { offsetInCU: 0x2A09F, offset: 0x186BD0, size: 0x8, addend: 0x0, symName: '__ZN4core3ptr73drop_in_place$LT$alloc..vec..Vec$LT$syn..generics..TypeParamBound$GT$$GT$17hdab4c0986d98765bE.llvm.720949811486110776', symObjAddr: 0x71B0, symBinAddr: 0x680F0, symSize: 0xC0 }
  - { offsetInCU: 0x2A33F, offset: 0x186E70, size: 0x8, addend: 0x0, symName: '__ZN4core3ptr75drop_in_place$LT$alloc..boxed..Box$LT$syn..generics..TypeParamBound$GT$$GT$17he61c00698a311a34E', symObjAddr: 0x7270, symBinAddr: 0x681B0, symSize: 0xB0 }
  - { offsetInCU: 0x2A63D, offset: 0x18716E, size: 0x8, addend: 0x0, symName: '__ZN4core3ptr76drop_in_place$LT$$LP$syn..generics..GenericParam$C$syn..token..Comma$RP$$GT$17hadd4ee9dc4c521adE.llvm.720949811486110776', symObjAddr: 0x7370, symBinAddr: 0x68260, symSize: 0x40 }
  - { offsetInCU: 0x2A6AB, offset: 0x1871DC, size: 0x8, addend: 0x0, symName: '__ZN4core3ptr82drop_in_place$LT$alloc..vec..Vec$LT$$LP$syn..pat..Pat$C$syn..token..Or$RP$$GT$$GT$17h79250e525f9bf0e5E.llvm.720949811486110776', symObjAddr: 0x7480, symBinAddr: 0x682A0, symSize: 0x0 }
  - { offsetInCU: 0x2A96C, offset: 0x18749D, size: 0x8, addend: 0x0, symName: '__ZN4core3ptr85drop_in_place$LT$alloc..vec..Vec$LT$$LP$syn..ty..Type$C$syn..token..Comma$RP$$GT$$GT$17hf6a59a148065f17dE.llvm.720949811486110776', symObjAddr: 0x7550, symBinAddr: 0x68370, symSize: 0xD0 }
  - { offsetInCU: 0x2AC6B, offset: 0x18779C, size: 0x8, addend: 0x0, symName: '__ZN4core3ptr86drop_in_place$LT$syn..punctuated..Punctuated$LT$syn..pat..Pat$C$syn..token..Or$GT$$GT$17h8e9173df21a44316E', symObjAddr: 0x7620, symBinAddr: 0x68440, symSize: 0x120 }
  - { offsetInCU: 0x2B0D0, offset: 0x187C01, size: 0x8, addend: 0x0, symName: '__ZN4core3ptr87drop_in_place$LT$alloc..vec..Vec$LT$$LP$syn..expr..Expr$C$syn..token..Comma$RP$$GT$$GT$17hbf3f4cd50fb0b0ecE.llvm.720949811486110776', symObjAddr: 0x7740, symBinAddr: 0x68560, symSize: 0xD0 }
  - { offsetInCU: 0x2B391, offset: 0x187EC2, size: 0x8, addend: 0x0, symName: '__ZN4core3ptr87drop_in_place$LT$core..option..Option$LT$alloc..boxed..Box$LT$syn..pat..Pat$GT$$GT$$GT$17hd7b7c69f601b3926E', symObjAddr: 0x7810, symBinAddr: 0x68630, symSize: 0x50 }
  - { offsetInCU: 0x2B503, offset: 0x188034, size: 0x8, addend: 0x0, symName: '__ZN4core3ptr87drop_in_place$LT$core..option..Option$LT$alloc..boxed..Box$LT$syn..ty..Type$GT$$GT$$GT$17hd74f5d971aec2972E.llvm.720949811486110776', symObjAddr: 0x7860, symBinAddr: 0x68680, symSize: 0x50 }
  - { offsetInCU: 0x2B694, offset: 0x1881C5, size: 0x8, addend: 0x0, symName: '__ZN4core3ptr88drop_in_place$LT$alloc..vec..Vec$LT$$LP$syn..data..Field$C$syn..token..Comma$RP$$GT$$GT$17h02f4d88f184a75f6E.llvm.720949811486110776', symObjAddr: 0x78B0, symBinAddr: 0x686D0, symSize: 0xD0 }
  - { offsetInCU: 0x2B974, offset: 0x1884A5, size: 0x8, addend: 0x0, symName: '__ZN4core3ptr88drop_in_place$LT$alloc..vec..Vec$LT$$LP$syn..item..FnArg$C$syn..token..Comma$RP$$GT$$GT$17h9235dca64c193d6aE.llvm.720949811486110776', symObjAddr: 0x7980, symBinAddr: 0x687A0, symSize: 0xE0 }
  - { offsetInCU: 0x2BC42, offset: 0x188773, size: 0x8, addend: 0x0, symName: '__ZN4core3ptr89drop_in_place$LT$core..option..Option$LT$alloc..boxed..Box$LT$syn..expr..Expr$GT$$GT$$GT$17h8e135ac1a25a2dc5E', symObjAddr: 0x7A60, symBinAddr: 0x68880, symSize: 0x50 }
  - { offsetInCU: 0x2BDF2, offset: 0x188923, size: 0x8, addend: 0x0, symName: '__ZN4core3ptr89drop_in_place$LT$syn..punctuated..Punctuated$LT$syn..pat..Pat$C$syn..token..Comma$GT$$GT$17h8d60e47f3fb1f87aE', symObjAddr: 0x7AB0, symBinAddr: 0x688D0, symSize: 0x120 }
  - { offsetInCU: 0x2C24F, offset: 0x188D80, size: 0x8, addend: 0x0, symName: '__ZN4core3ptr89drop_in_place$LT$syn..punctuated..Punctuated$LT$syn..ty..Type$C$syn..token..Comma$GT$$GT$17ha919b3114742fb9dE.llvm.720949811486110776', symObjAddr: 0x7BD0, symBinAddr: 0x689F0, symSize: 0x120 }
  - { offsetInCU: 0x2C6B8, offset: 0x1891E9, size: 0x8, addend: 0x0, symName: '__ZN4core3ptr90drop_in_place$LT$alloc..vec..Vec$LT$$LP$syn..data..Variant$C$syn..token..Comma$RP$$GT$$GT$17h680219081cc43a7dE.llvm.720949811486110776', symObjAddr: 0x7CF0, symBinAddr: 0x68B10, symSize: 0xD0 }
  - { offsetInCU: 0x2C979, offset: 0x1894AA, size: 0x8, addend: 0x0, symName: '__ZN4core3ptr90drop_in_place$LT$alloc..vec..Vec$LT$$LP$syn..item..UseTree$C$syn..token..Comma$RP$$GT$$GT$17hac2434f3c2e2707dE.llvm.720949811486110776', symObjAddr: 0x7DC0, symBinAddr: 0x68BE0, symSize: 0xD0 }
  - { offsetInCU: 0x2CC3A, offset: 0x18976B, size: 0x8, addend: 0x0, symName: '__ZN4core3ptr90drop_in_place$LT$alloc..vec..Vec$LT$$LP$syn..pat..FieldPat$C$syn..token..Comma$RP$$GT$$GT$17hb84c43e95b74d098E.llvm.720949811486110776', symObjAddr: 0x7E90, symBinAddr: 0x68CB0, symSize: 0xD0 }
  - { offsetInCU: 0x2CEC7, offset: 0x1899F8, size: 0x8, addend: 0x0, symName: '__ZN4core3ptr90drop_in_place$LT$alloc..vec..Vec$LT$$LP$syn..ty..BareFnArg$C$syn..token..Comma$RP$$GT$$GT$17ha1bf96fdde0de332E.llvm.720949811486110776', symObjAddr: 0x7F60, symBinAddr: 0x68D80, symSize: 0xD0 }
  - { offsetInCU: 0x2D173, offset: 0x189CA4, size: 0x8, addend: 0x0, symName: '__ZN4core3ptr90drop_in_place$LT$core..option..Option$LT$alloc..boxed..Box$LT$syn..data..Field$GT$$GT$$GT$17h326c39537b0fcc46E.llvm.720949811486110776', symObjAddr: 0x8030, symBinAddr: 0x68E50, symSize: 0x50 }
  - { offsetInCU: 0x2D2F7, offset: 0x189E28, size: 0x8, addend: 0x0, symName: '__ZN4core3ptr91drop_in_place$LT$syn..punctuated..Punctuated$LT$syn..expr..Expr$C$syn..token..Comma$GT$$GT$17h4f39b83dc86a4159E.llvm.720949811486110776', symObjAddr: 0x8080, symBinAddr: 0x68EA0, symSize: 0x120 }
  - { offsetInCU: 0x2D773, offset: 0x18A2A4, size: 0x8, addend: 0x0, symName: '__ZN4core3ptr92drop_in_place$LT$core..option..Option$LT$alloc..boxed..Box$LT$syn..data..Variant$GT$$GT$$GT$17h3f89d7c982191526E', symObjAddr: 0x81A0, symBinAddr: 0x68FC0, symSize: 0x50 }
  - { offsetInCU: 0x2D916, offset: 0x18A447, size: 0x8, addend: 0x0, symName: '__ZN4core3ptr92drop_in_place$LT$syn..punctuated..Punctuated$LT$syn..data..Field$C$syn..token..Comma$GT$$GT$17hca76f5e010a141e5E', symObjAddr: 0x81F0, symBinAddr: 0x69010, symSize: 0x120 }
  - { offsetInCU: 0x2DD53, offset: 0x18A884, size: 0x8, addend: 0x0, symName: '__ZN4core3ptr93drop_in_place$LT$alloc..vec..Vec$LT$$LP$syn..expr..FieldValue$C$syn..token..Comma$RP$$GT$$GT$17h9295f6966e75a214E.llvm.720949811486110776', symObjAddr: 0x8310, symBinAddr: 0x69130, symSize: 0xD0 }
  - { offsetInCU: 0x2DFFF, offset: 0x18AB30, size: 0x8, addend: 0x0, symName: '__ZN4core3ptr94drop_in_place$LT$alloc..vec..Vec$LT$$LP$syn..lifetime..Lifetime$C$syn..token..Plus$RP$$GT$$GT$17h5bdaba7f0fbee773E.llvm.720949811486110776', symObjAddr: 0x83E0, symBinAddr: 0x69200, symSize: 0x80 }
  - { offsetInCU: 0x2E2C4, offset: 0x18ADF5, size: 0x8, addend: 0x0, symName: '__ZN4core3ptr94drop_in_place$LT$syn..punctuated..Punctuated$LT$syn..data..Variant$C$syn..token..Comma$GT$$GT$17ha69d7e675441c7e2E', symObjAddr: 0x8460, symBinAddr: 0x69280, symSize: 0x120 }
  - { offsetInCU: 0x2E701, offset: 0x18B232, size: 0x8, addend: 0x0, symName: '__ZN4core3ptr94drop_in_place$LT$syn..punctuated..Punctuated$LT$syn..pat..FieldPat$C$syn..token..Comma$GT$$GT$17h112950ea198c8281E', symObjAddr: 0x8580, symBinAddr: 0x693A0, symSize: 0xF0 }
  - { offsetInCU: 0x2E9CB, offset: 0x18B4FC, size: 0x8, addend: 0x0, symName: '__ZN4core3ptr94drop_in_place$LT$syn..punctuated..Punctuated$LT$syn..ty..BareFnArg$C$syn..token..Comma$GT$$GT$17h1c7b44310f06243dE', symObjAddr: 0x8670, symBinAddr: 0x69490, symSize: 0xF0 }
  - { offsetInCU: 0x2EC95, offset: 0x18B7C6, size: 0x8, addend: 0x0, symName: '__ZN4core3ptr95drop_in_place$LT$core..option..Option$LT$$LP$proc_macro2..Ident$C$syn..token..Colon$RP$$GT$$GT$17ha744bf0f41959716E.llvm.720949811486110776', symObjAddr: 0x8760, symBinAddr: 0x69580, symSize: 0x30 }
  - { offsetInCU: 0x2EDB1, offset: 0x18B8E2, size: 0x8, addend: 0x0, symName: '__ZN4core3ptr96drop_in_place$LT$alloc..vec..Vec$LT$$LP$syn..path..PathSegment$C$syn..token..PathSep$RP$$GT$$GT$17h42880a1541c295f5E.llvm.720949811486110776', symObjAddr: 0x8790, symBinAddr: 0x695B0, symSize: 0xC0 }
  - { offsetInCU: 0x2F05D, offset: 0x18BB8E, size: 0x8, addend: 0x0, symName: '__ZN4core3ptr96drop_in_place$LT$core..option..Option$LT$alloc..boxed..Box$LT$syn..path..PathSegment$GT$$GT$$GT$17hb447d0f626c86a4eE.llvm.720949811486110776', symObjAddr: 0x8850, symBinAddr: 0x69670, symSize: 0x180 }
  - { offsetInCU: 0x2F70D, offset: 0x18C23E, size: 0x8, addend: 0x0, symName: '__ZN4core3ptr97drop_in_place$LT$syn..punctuated..Punctuated$LT$syn..expr..FieldValue$C$syn..token..Comma$GT$$GT$17h31b81f7462228dcbE', symObjAddr: 0x8A20, symBinAddr: 0x697F0, symSize: 0xF0 }
  - { offsetInCU: 0x2F9D7, offset: 0x18C508, size: 0x8, addend: 0x0, symName: '__ZN4core3ptr98drop_in_place$LT$alloc..vec..Vec$LT$$LP$syn..path..GenericArgument$C$syn..token..Comma$RP$$GT$$GT$17h0657ff261f33b640E.llvm.720949811486110776', symObjAddr: 0x8B10, symBinAddr: 0x698E0, symSize: 0xD0 }
  - { offsetInCU: 0x2FCA2, offset: 0x18C7D3, size: 0x8, addend: 0x0, symName: '__ZN4core3ptr98drop_in_place$LT$syn..punctuated..Punctuated$LT$syn..lifetime..Lifetime$C$syn..token..Plus$GT$$GT$17h0f8fc5f20f465f47E.llvm.720949811486110776', symObjAddr: 0x8BE0, symBinAddr: 0x699B0, symSize: 0xC0 }
  - { offsetInCU: 0x3011A, offset: 0x18CC4B, size: 0x8, addend: 0x0, symName: '__ZN4core3ptr99drop_in_place$LT$alloc..vec..Vec$LT$$LP$syn..generics..GenericParam$C$syn..token..Comma$RP$$GT$$GT$17h80db164c829d38feE.llvm.720949811486110776', symObjAddr: 0x8CA0, symBinAddr: 0x69A70, symSize: 0x60 }
  - { offsetInCU: 0x3038B, offset: 0x18CEBC, size: 0x8, addend: 0x0, symName: '__ZN4core3ptr99drop_in_place$LT$syn..punctuated..IntoPairs$LT$syn..path..PathSegment$C$syn..token..PathSep$GT$$GT$17h4470f4520ed6b72cE', symObjAddr: 0x8D00, symBinAddr: 0x69AD0, symSize: 0x50 }
  - { offsetInCU: 0x3A159, offset: 0x196C8A, size: 0x8, addend: 0x0, symName: '__ZN3syn10punctuated23Punctuated$LT$T$C$P$GT$10push_value17h1464794b59e71484E', symObjAddr: 0x9CF0, symBinAddr: 0x69B20, symSize: 0x110 }
  - { offsetInCU: 0x3A3D4, offset: 0x196F05, size: 0x8, addend: 0x0, symName: '__ZN3syn10punctuated23Punctuated$LT$T$C$P$GT$10push_value17h19b8fd7bec07dcc7E', symObjAddr: 0x9E00, symBinAddr: 0x69C30, symSize: 0x0 }
  - { offsetInCU: 0x3A669, offset: 0x19719A, size: 0x8, addend: 0x0, symName: '__ZN3syn10punctuated23Punctuated$LT$T$C$P$GT$10push_value17h2ac8ee7d941e7bd6E', symObjAddr: 0x9F10, symBinAddr: 0x69D40, symSize: 0x110 }
  - { offsetInCU: 0x3A8E4, offset: 0x197415, size: 0x8, addend: 0x0, symName: '__ZN3syn10punctuated23Punctuated$LT$T$C$P$GT$10push_value17h4d756fff73ab62fcE', symObjAddr: 0xA020, symBinAddr: 0x69E50, symSize: 0x110 }
  - { offsetInCU: 0x3AB5F, offset: 0x197690, size: 0x8, addend: 0x0, symName: '__ZN3syn10punctuated23Punctuated$LT$T$C$P$GT$10push_value17h922210f6ed64bedfE', symObjAddr: 0xA130, symBinAddr: 0x69F60, symSize: 0x110 }
  - { offsetInCU: 0x3ADDA, offset: 0x19790B, size: 0x8, addend: 0x0, symName: '__ZN3syn10punctuated23Punctuated$LT$T$C$P$GT$10push_value17h9bf9b9eda25b7b08E', symObjAddr: 0xA240, symBinAddr: 0x6A070, symSize: 0x100 }
  - { offsetInCU: 0x3B054, offset: 0x197B85, size: 0x8, addend: 0x0, symName: '__ZN3syn10punctuated23Punctuated$LT$T$C$P$GT$10push_value17ha11f44006af1fce5E', symObjAddr: 0xA340, symBinAddr: 0x6A170, symSize: 0x100 }
  - { offsetInCU: 0x3B2C5, offset: 0x197DF6, size: 0x8, addend: 0x0, symName: '__ZN3syn10punctuated23Punctuated$LT$T$C$P$GT$10push_value17hb125b8a2ccd1d083E', symObjAddr: 0xA440, symBinAddr: 0x6A270, symSize: 0x110 }
  - { offsetInCU: 0x3B64A, offset: 0x19817B, size: 0x8, addend: 0x0, symName: '__ZN3syn10punctuated23Punctuated$LT$T$C$P$GT$10push_value17hbe2de12ba6ba96f3E', symObjAddr: 0xA550, symBinAddr: 0x6A380, symSize: 0xD0 }
  - { offsetInCU: 0x3B8BB, offset: 0x1983EC, size: 0x8, addend: 0x0, symName: '__ZN3syn10punctuated23Punctuated$LT$T$C$P$GT$10push_value17hc84f0581e5006d1dE', symObjAddr: 0xA620, symBinAddr: 0x6A450, symSize: 0x110 }
  - { offsetInCU: 0x3BB36, offset: 0x198667, size: 0x8, addend: 0x0, symName: '__ZN3syn10punctuated23Punctuated$LT$T$C$P$GT$10push_value17hc8f25dfb73f20dfeE', symObjAddr: 0xA730, symBinAddr: 0x6A560, symSize: 0xF0 }
  - { offsetInCU: 0x3BD9A, offset: 0x1988CB, size: 0x8, addend: 0x0, symName: '__ZN3syn10punctuated23Punctuated$LT$T$C$P$GT$10push_value17hf794ec4a43a6463aE', symObjAddr: 0xA820, symBinAddr: 0x6A650, symSize: 0x110 }
  - { offsetInCU: 0x3C02F, offset: 0x198B60, size: 0x8, addend: 0x0, symName: '__ZN3syn10punctuated23Punctuated$LT$T$C$P$GT$10push_value17hfcd023ac5ed059ccE', symObjAddr: 0xA930, symBinAddr: 0x6A760, symSize: 0x100 }
  - { offsetInCU: 0x3C2BA, offset: 0x198DEB, size: 0x8, addend: 0x0, symName: '__ZN3syn10punctuated23Punctuated$LT$T$C$P$GT$10push_punct17h009caae710d7fa9eE', symObjAddr: 0xAA30, symBinAddr: 0x6A860, symSize: 0x120 }
  - { offsetInCU: 0x3C699, offset: 0x1991CA, size: 0x8, addend: 0x0, symName: '__ZN3syn10punctuated23Punctuated$LT$T$C$P$GT$10push_punct17h466bf79492cbbcb5E', symObjAddr: 0xAB50, symBinAddr: 0x6A980, symSize: 0x120 }
  - { offsetInCU: 0x3CA92, offset: 0x1995C3, size: 0x8, addend: 0x0, symName: '__ZN3syn10punctuated23Punctuated$LT$T$C$P$GT$10push_punct17h4774822b9e0d6ec3E', symObjAddr: 0xAC70, symBinAddr: 0x6AAA0, symSize: 0x120 }
  - { offsetInCU: 0x3CE64, offset: 0x199995, size: 0x8, addend: 0x0, symName: '__ZN3syn10punctuated23Punctuated$LT$T$C$P$GT$10push_punct17h61110cebcbc73b5eE', symObjAddr: 0xAD90, symBinAddr: 0x6ABC0, symSize: 0x120 }
  - { offsetInCU: 0x3D223, offset: 0x199D54, size: 0x8, addend: 0x0, symName: '__ZN3syn10punctuated23Punctuated$LT$T$C$P$GT$10push_punct17h6c195d18e6105754E', symObjAddr: 0xAEB0, symBinAddr: 0x6ACE0, symSize: 0x120 }
  - { offsetInCU: 0x3D64F, offset: 0x19A180, size: 0x8, addend: 0x0, symName: '__ZN3syn10punctuated23Punctuated$LT$T$C$P$GT$10push_punct17h7570ad2eb8eda148E', symObjAddr: 0xAFD0, symBinAddr: 0x6AE00, symSize: 0x140 }
  - { offsetInCU: 0x3DB71, offset: 0x19A6A2, size: 0x8, addend: 0x0, symName: '__ZN3syn10punctuated23Punctuated$LT$T$C$P$GT$10push_punct17h89b356a21cce1885E', symObjAddr: 0xB110, symBinAddr: 0x6AF40, symSize: 0x120 }
  - { offsetInCU: 0x3DF50, offset: 0x19AA81, size: 0x8, addend: 0x0, symName: '__ZN3syn10punctuated23Punctuated$LT$T$C$P$GT$10push_punct17h9b1d77aef8736936E', symObjAddr: 0xB230, symBinAddr: 0x6B060, symSize: 0x120 }
  - { offsetInCU: 0x3E32F, offset: 0x19AE60, size: 0x8, addend: 0x0, symName: '__ZN3syn10punctuated23Punctuated$LT$T$C$P$GT$10push_punct17ha8c738426f753245E', symObjAddr: 0xB350, symBinAddr: 0x6B180, symSize: 0x120 }
  - { offsetInCU: 0x3E70E, offset: 0x19B23F, size: 0x8, addend: 0x0, symName: '__ZN3syn10punctuated23Punctuated$LT$T$C$P$GT$10push_punct17hb0fc5a7a37e2e4edE', symObjAddr: 0xB470, symBinAddr: 0x6B2A0, symSize: 0x120 }
  - { offsetInCU: 0x3EAED, offset: 0x19B61E, size: 0x8, addend: 0x0, symName: '__ZN3syn10punctuated23Punctuated$LT$T$C$P$GT$10push_punct17hb4e9855c6f264597E', symObjAddr: 0xB590, symBinAddr: 0x6B3C0, symSize: 0x120 }
  - { offsetInCU: 0x3EECC, offset: 0x19B9FD, size: 0x8, addend: 0x0, symName: '__ZN3syn10punctuated23Punctuated$LT$T$C$P$GT$10push_punct17hbb75469815d830eaE', symObjAddr: 0xB6B0, symBinAddr: 0x6B4E0, symSize: 0x110 }
  - { offsetInCU: 0x3F2AD, offset: 0x19BDDE, size: 0x8, addend: 0x0, symName: '__ZN3syn10punctuated23Punctuated$LT$T$C$P$GT$10push_punct17hc20d22090670493fE', symObjAddr: 0xB7C0, symBinAddr: 0x6B5F0, symSize: 0xF0 }
  - { offsetInCU: 0x3F68C, offset: 0x19C1BD, size: 0x8, addend: 0x0, symName: '__ZN3syn10punctuated23Punctuated$LT$T$C$P$GT$10push_punct17hc2ba07c343e9a099E', symObjAddr: 0xB8B0, symBinAddr: 0x6B6E0, symSize: 0xF0 }
  - { offsetInCU: 0x3FA6B, offset: 0x19C59C, size: 0x8, addend: 0x0, symName: '__ZN3syn10punctuated23Punctuated$LT$T$C$P$GT$10push_punct17hfbed3f5b6fa00fbfE', symObjAddr: 0xB9A0, symBinAddr: 0x6B7D0, symSize: 0x120 }
  - { offsetInCU: 0x3FEF0, offset: 0x19CA21, size: 0x8, addend: 0x0, symName: '__ZN3syn10punctuated23Punctuated$LT$T$C$P$GT$3pop17h69e8e60024538083E', symObjAddr: 0xBAC0, symBinAddr: 0x6B8F0, symSize: 0xA0 }
  - { offsetInCU: 0x402EF, offset: 0x19CE20, size: 0x8, addend: 0x0, symName: '__ZN3syn10punctuated23Punctuated$LT$T$C$P$GT$4push17hc1655cb815934489E', symObjAddr: 0xBB60, symBinAddr: 0x6B990, symSize: 0x170 }
  - { offsetInCU: 0x406BD, offset: 0x19D1EE, size: 0x8, addend: 0x0, symName: '__ZN3syn10punctuated23Punctuated$LT$T$C$P$GT$21parse_terminated_with17h124b73cd374cc0f5E', symObjAddr: 0xBCD0, symBinAddr: 0x6BB00, symSize: 0x220 }
  - { offsetInCU: 0x40C85, offset: 0x19D7B6, size: 0x8, addend: 0x0, symName: '__ZN3syn10punctuated23Punctuated$LT$T$C$P$GT$21parse_terminated_with17h7169b9f60635eaacE', symObjAddr: 0xBEF0, symBinAddr: 0x6BD20, symSize: 0x3E0 }
  - { offsetInCU: 0x41591, offset: 0x19E0C2, size: 0x8, addend: 0x0, symName: '__ZN3syn10punctuated23Punctuated$LT$T$C$P$GT$21parse_terminated_with17hf39ea62a3f36347dE', symObjAddr: 0xC2D0, symBinAddr: 0x6C100, symSize: 0x220 }
  - { offsetInCU: 0x41B3F, offset: 0x19E670, size: 0x8, addend: 0x0, symName: '__ZN3syn10punctuated23Punctuated$LT$T$C$P$GT$21parse_terminated_with17hf813a9f490e11643E', symObjAddr: 0xC4F0, symBinAddr: 0x6C320, symSize: 0x3E0 }
  - { offsetInCU: 0x2AC3, offset: 0x1A76C9, size: 0x8, addend: 0x0, symName: '__ZN3syn4expr8printing77_$LT$impl$u20$quote..to_tokens..ToTokens$u20$for$u20$syn..expr..ExprArray$GT$9to_tokens17h2ef9833ff7ff7fceE', symObjAddr: 0x10970, symBinAddr: 0x7C110, symSize: 0x90 }
  - { offsetInCU: 0x2C8D, offset: 0x1A7893, size: 0x8, addend: 0x0, symName: '__ZN3syn4expr8printing77_$LT$impl$u20$quote..to_tokens..ToTokens$u20$for$u20$syn..expr..ExprAsync$GT$9to_tokens17h2495d6e29bb4a201E', symObjAddr: 0x10A10, symBinAddr: 0x7C1A0, symSize: 0x170 }
  - { offsetInCU: 0x3140, offset: 0x1A7D46, size: 0x8, addend: 0x0, symName: '__ZN3syn4expr8printing77_$LT$impl$u20$quote..to_tokens..ToTokens$u20$for$u20$syn..expr..ExprBlock$GT$9to_tokens17hdd73246d789555d5E', symObjAddr: 0x10BA0, symBinAddr: 0x7C310, symSize: 0x100 }
  - { offsetInCU: 0x34C7, offset: 0x1A80CD, size: 0x8, addend: 0x0, symName: '__ZN3syn4expr8printing79_$LT$impl$u20$quote..to_tokens..ToTokens$u20$for$u20$syn..expr..ExprClosure$GT$9to_tokens17h0d6ce1172208619dE', symObjAddr: 0x10CD0, symBinAddr: 0x7C410, symSize: 0x400 }
  - { offsetInCU: 0x40FA, offset: 0x1A8D00, size: 0x8, addend: 0x0, symName: '__ZN3syn4expr8printing77_$LT$impl$u20$quote..to_tokens..ToTokens$u20$for$u20$syn..expr..ExprConst$GT$9to_tokens17hcaf2e3202a16c77aE', symObjAddr: 0x110D0, symBinAddr: 0x7C810, symSize: 0x100 }
  - { offsetInCU: 0x43A9, offset: 0x1A8FAF, size: 0x8, addend: 0x0, symName: '__ZN3syn4expr8printing80_$LT$impl$u20$quote..to_tokens..ToTokens$u20$for$u20$syn..expr..ExprContinue$GT$9to_tokens17hebd76b9e5d479ff4E', symObjAddr: 0x111D0, symBinAddr: 0x7C910, symSize: 0x140 }
  - { offsetInCU: 0x47D8, offset: 0x1A93DE, size: 0x8, addend: 0x0, symName: '__ZN3syn4expr8printing77_$LT$impl$u20$quote..to_tokens..ToTokens$u20$for$u20$syn..expr..ExprGroup$GT$9to_tokens17h43695a0f104bbad3E', symObjAddr: 0x11560, symBinAddr: 0x7CA50, symSize: 0x90 }
  - { offsetInCU: 0x4975, offset: 0x1A957B, size: 0x8, addend: 0x0, symName: '__ZN3syn4expr8printing74_$LT$impl$u20$quote..to_tokens..ToTokens$u20$for$u20$syn..expr..ExprIf$GT$9to_tokens17h925864585cd53cb7E', symObjAddr: 0x115F0, symBinAddr: 0x7CAE0, symSize: 0x3D0 }
  - { offsetInCU: 0x545D, offset: 0x1AA063, size: 0x8, addend: 0x0, symName: '__ZN3syn4expr8printing77_$LT$impl$u20$quote..to_tokens..ToTokens$u20$for$u20$syn..expr..ExprInfer$GT$9to_tokens17he40a1f0c107707dbE', symObjAddr: 0x119D0, symBinAddr: 0x7CEB0, symSize: 0xF0 }
  - { offsetInCU: 0x5709, offset: 0x1AA30F, size: 0x8, addend: 0x0, symName: '__ZN3syn4expr8printing75_$LT$impl$u20$quote..to_tokens..ToTokens$u20$for$u20$syn..expr..ExprLit$GT$9to_tokens17ha9f3a462aa7f9b8cE', symObjAddr: 0x11AD0, symBinAddr: 0x7CFA0, symSize: 0x80 }
  - { offsetInCU: 0x589C, offset: 0x1AA4A2, size: 0x8, addend: 0x0, symName: '__ZN3syn4expr8printing76_$LT$impl$u20$quote..to_tokens..ToTokens$u20$for$u20$syn..expr..ExprLoop$GT$9to_tokens17hc6f1b6becf15eae4E', symObjAddr: 0x11B50, symBinAddr: 0x7D020, symSize: 0x170 }
  - { offsetInCU: 0x5CBA, offset: 0x1AA8C0, size: 0x8, addend: 0x0, symName: '__ZN3syn4expr8printing77_$LT$impl$u20$quote..to_tokens..ToTokens$u20$for$u20$syn..expr..ExprMacro$GT$9to_tokens17h1aad6dcc7b88acf6E', symObjAddr: 0x11CC0, symBinAddr: 0x7D190, symSize: 0x90 }
  - { offsetInCU: 0x5EA5, offset: 0x1AAAAB, size: 0x8, addend: 0x0, symName: '__ZN3syn4expr8printing77_$LT$impl$u20$quote..to_tokens..ToTokens$u20$for$u20$syn..expr..ExprParen$GT$9to_tokens17hf25c89af93be7f23E', symObjAddr: 0x11ED0, symBinAddr: 0x7D220, symSize: 0x90 }
  - { offsetInCU: 0x6042, offset: 0x1AAC48, size: 0x8, addend: 0x0, symName: '__ZN3syn4expr8printing76_$LT$impl$u20$quote..to_tokens..ToTokens$u20$for$u20$syn..expr..ExprPath$GT$9to_tokens17hab4f628f5b9ed40bE', symObjAddr: 0x11F60, symBinAddr: 0x7D2B0, symSize: 0x90 }
  - { offsetInCU: 0x622F, offset: 0x1AAE35, size: 0x8, addend: 0x0, symName: '__ZN3syn4expr8printing78_$LT$impl$u20$quote..to_tokens..ToTokens$u20$for$u20$syn..expr..ExprRepeat$GT$9to_tokens17h7f259068e0bd4858E', symObjAddr: 0x12010, symBinAddr: 0x7D340, symSize: 0x90 }
  - { offsetInCU: 0x63ED, offset: 0x1AAFF3, size: 0x8, addend: 0x0, symName: '__ZN3syn4expr8printing78_$LT$impl$u20$quote..to_tokens..ToTokens$u20$for$u20$syn..expr..ExprStruct$GT$9to_tokens17h572ac1509ac9915cE', symObjAddr: 0x120B0, symBinAddr: 0x7D3D0, symSize: 0xA0 }
  - { offsetInCU: 0x65AE, offset: 0x1AB1B4, size: 0x8, addend: 0x0, symName: '__ZN3syn4expr8printing80_$LT$impl$u20$quote..to_tokens..ToTokens$u20$for$u20$syn..expr..ExprTryBlock$GT$9to_tokens17h33126d9a5af6a3b9E', symObjAddr: 0x12160, symBinAddr: 0x7D470, symSize: 0x100 }
  - { offsetInCU: 0x6883, offset: 0x1AB489, size: 0x8, addend: 0x0, symName: '__ZN3syn4expr8printing77_$LT$impl$u20$quote..to_tokens..ToTokens$u20$for$u20$syn..expr..ExprTuple$GT$9to_tokens17h802dba8012b208d4E', symObjAddr: 0x12260, symBinAddr: 0x7D570, symSize: 0x90 }
  - { offsetInCU: 0x6A41, offset: 0x1AB647, size: 0x8, addend: 0x0, symName: '__ZN3syn4expr8printing78_$LT$impl$u20$quote..to_tokens..ToTokens$u20$for$u20$syn..expr..ExprUnsafe$GT$9to_tokens17h40aedefd13b3e1e7E', symObjAddr: 0x12300, symBinAddr: 0x7D600, symSize: 0x100 }
  - { offsetInCU: 0x6D4A, offset: 0x1AB950, size: 0x8, addend: 0x0, symName: '__ZN3syn4expr8printing71_$LT$impl$u20$quote..to_tokens..ToTokens$u20$for$u20$syn..expr..Arm$GT$9to_tokens17h78a0e9de12a0eb67E', symObjAddr: 0x125E0, symBinAddr: 0x7D700, symSize: 0x180 }
  - { offsetInCU: 0x70F5, offset: 0x1ABCFB, size: 0x8, addend: 0x0, symName: '__ZN3syn4expr8printing74_$LT$impl$u20$quote..to_tokens..ToTokens$u20$for$u20$syn..expr..Member$GT$9to_tokens17hfcc2f8d0a07457a9E', symObjAddr: 0x12970, symBinAddr: 0x7D880, symSize: 0xD0 }
  - { offsetInCU: 0x73BB, offset: 0x1ABFC1, size: 0x8, addend: 0x0, symName: '__ZN3syn4expr7parsing63_$LT$impl$u20$syn..parse..Parse$u20$for$u20$syn..expr..Expr$GT$5parse17h55500ba46fd3498aE', symObjAddr: 0x92A0, symBinAddr: 0x75870, symSize: 0x100 }
  - { offsetInCU: 0x7463, offset: 0x1AC069, size: 0x8, addend: 0x0, symName: '__ZN3syn4expr7parsing66_$LT$impl$u20$syn..parse..Parse$u20$for$u20$syn..expr..ExprLit$GT$5parse17h503d2569d625f8d4E', symObjAddr: 0x9D30, symBinAddr: 0x75970, symSize: 0xD0 }
  - { offsetInCU: 0x7543, offset: 0x1AC149, size: 0x8, addend: 0x0, symName: '__ZN3syn4expr7parsing65_$LT$impl$u20$syn..parse..Parse$u20$for$u20$syn..expr..ExprIf$GT$5parse17h47168d1e46c083ceE', symObjAddr: 0x9E40, symBinAddr: 0x75A40, symSize: 0x1070 }
  - { offsetInCU: 0x9CCB, offset: 0x1AE8D1, size: 0x8, addend: 0x0, symName: '__ZN3syn4expr7parsing68_$LT$impl$u20$syn..parse..Parse$u20$for$u20$syn..expr..ExprInfer$GT$5parse17h96cf775fe66799ebE', symObjAddr: 0xAEB0, symBinAddr: 0x76AB0, symSize: 0x190 }
  - { offsetInCU: 0xA03E, offset: 0x1AEC44, size: 0x8, addend: 0x0, symName: '__ZN3syn4expr7parsing70_$LT$impl$u20$syn..parse..Parse$u20$for$u20$syn..expr..ExprForLoop$GT$5parse17hce5f73eac4ad2dc4E', symObjAddr: 0xB040, symBinAddr: 0x76C40, symSize: 0x9F0 }
  - { offsetInCU: 0xB242, offset: 0x1AFE48, size: 0x8, addend: 0x0, symName: '__ZN3syn4expr7parsing67_$LT$impl$u20$syn..parse..Parse$u20$for$u20$syn..expr..ExprLoop$GT$5parse17h1aa74e5d000da669E', symObjAddr: 0xBA30, symBinAddr: 0x77630, symSize: 0x600 }
  - { offsetInCU: 0xBE97, offset: 0x1B0A9D, size: 0x8, addend: 0x0, symName: '__ZN3syn4expr7parsing68_$LT$impl$u20$syn..parse..Parse$u20$for$u20$syn..expr..ExprMatch$GT$5parse17h352dd08cf5c0778bE', symObjAddr: 0xC030, symBinAddr: 0x77C30, symSize: 0x7F0 }
  - { offsetInCU: 0xC86B, offset: 0x1B1471, size: 0x8, addend: 0x0, symName: '__ZN3syn4expr7parsing69_$LT$impl$u20$syn..parse..Parse$u20$for$u20$syn..expr..ExprReturn$GT$5parse17h3d5bc077999de314E', symObjAddr: 0xCB30, symBinAddr: 0x78420, symSize: 0x110 }
  - { offsetInCU: 0xCA52, offset: 0x1B1658, size: 0x8, addend: 0x0, symName: '__ZN3syn4expr7parsing71_$LT$impl$u20$syn..parse..Parse$u20$for$u20$syn..expr..ExprTryBlock$GT$5parse17hce262d6454af1d4eE', symObjAddr: 0xCC40, symBinAddr: 0x78530, symSize: 0x140 }
  - { offsetInCU: 0xCBD4, offset: 0x1B17DA, size: 0x8, addend: 0x0, symName: '__ZN3syn4expr7parsing68_$LT$impl$u20$syn..parse..Parse$u20$for$u20$syn..expr..ExprYield$GT$5parse17h17c1f052e1267cf9E', symObjAddr: 0xCD80, symBinAddr: 0x78670, symSize: 0x110 }
  - { offsetInCU: 0xCDC9, offset: 0x1B19CF, size: 0x8, addend: 0x0, symName: '__ZN3syn4expr7parsing68_$LT$impl$u20$syn..parse..Parse$u20$for$u20$syn..expr..ExprAsync$GT$5parse17h950490ecfb80e9a1E', symObjAddr: 0xCE90, symBinAddr: 0x78780, symSize: 0x1C0 }
  - { offsetInCU: 0xD0CE, offset: 0x1B1CD4, size: 0x8, addend: 0x0, symName: '__ZN3syn4expr7parsing68_$LT$impl$u20$syn..parse..Parse$u20$for$u20$syn..expr..ExprWhile$GT$5parse17h571b14b3fd0af108E', symObjAddr: 0xD050, symBinAddr: 0x78940, symSize: 0x910 }
  - { offsetInCU: 0xDF61, offset: 0x1B2B67, size: 0x8, addend: 0x0, symName: '__ZN3syn4expr7parsing68_$LT$impl$u20$syn..parse..Parse$u20$for$u20$syn..expr..ExprConst$GT$5parse17h01369ed4345e6402E', symObjAddr: 0xD960, symBinAddr: 0x79250, symSize: 0x4B0 }
  - { offsetInCU: 0xE88A, offset: 0x1B3490, size: 0x8, addend: 0x0, symName: '__ZN3syn4expr7parsing64_$LT$impl$u20$syn..parse..Parse$u20$for$u20$syn..expr..Label$GT$5parse17h93d18de187bdc41eE', symObjAddr: 0xDE10, symBinAddr: 0x79700, symSize: 0x1D0 }
  - { offsetInCU: 0xEDD6, offset: 0x1B39DC, size: 0x8, addend: 0x0, symName: '__ZN3syn4expr7parsing71_$LT$impl$u20$syn..parse..Parse$u20$for$u20$syn..expr..ExprContinue$GT$5parse17he5af0a754429df94E', symObjAddr: 0xDFE0, symBinAddr: 0x798D0, symSize: 0x1A0 }
  - { offsetInCU: 0xEF53, offset: 0x1B3B59, size: 0x8, addend: 0x0, symName: '__ZN3syn4expr7parsing69_$LT$impl$u20$syn..parse..Parse$u20$for$u20$syn..expr..FieldValue$GT$5parse17h9c84ab0cc06aa064E', symObjAddr: 0xE180, symBinAddr: 0x79A70, symSize: 0x660 }
  - { offsetInCU: 0xF93F, offset: 0x1B4545, size: 0x8, addend: 0x0, symName: '__ZN3syn4expr7parsing69_$LT$impl$u20$syn..parse..Parse$u20$for$u20$syn..expr..ExprUnsafe$GT$5parse17he7d1a74465ffba81E', symObjAddr: 0xE930, symBinAddr: 0x7A0D0, symSize: 0x4B0 }
  - { offsetInCU: 0x10268, offset: 0x1B4E6E, size: 0x8, addend: 0x0, symName: '__ZN3syn4expr7parsing68_$LT$impl$u20$syn..parse..Parse$u20$for$u20$syn..expr..ExprBlock$GT$5parse17h74103f700210131fE', symObjAddr: 0xEDE0, symBinAddr: 0x7A580, symSize: 0x5E0 }
  - { offsetInCU: 0x11101, offset: 0x1B5D07, size: 0x8, addend: 0x0, symName: '__ZN3syn4expr7parsing70_$LT$impl$u20$syn..parse..Parse$u20$for$u20$syn..expr..RangeLimits$GT$5parse17hef78e73737c0f24cE', symObjAddr: 0xF3C0, symBinAddr: 0x7AB60, symSize: 0x2F0 }
  - { offsetInCU: 0x11D2E, offset: 0x1B6934, size: 0x8, addend: 0x0, symName: '__ZN3syn4expr7parsing67_$LT$impl$u20$syn..parse..Parse$u20$for$u20$syn..expr..ExprPath$GT$5parse17haeeb72b62ac51e5cE', symObjAddr: 0xFA40, symBinAddr: 0x7B1E0, symSize: 0x2B0 }
  - { offsetInCU: 0x120F9, offset: 0x1B6CFF, size: 0x8, addend: 0x0, symName: '__ZN3syn4expr7parsing65_$LT$impl$u20$syn..parse..Parse$u20$for$u20$syn..expr..Member$GT$5parse17h60bbc140c6d22534E', symObjAddr: 0xFCF0, symBinAddr: 0x7B490, symSize: 0x110 }
  - { offsetInCU: 0x1234D, offset: 0x1B6F53, size: 0x8, addend: 0x0, symName: '__ZN3syn4expr7parsing62_$LT$impl$u20$syn..parse..Parse$u20$for$u20$syn..expr..Arm$GT$5parse17hbd2ba360fcc9627cE', symObjAddr: 0xFE00, symBinAddr: 0x7B5A0, symSize: 0x900 }
  - { offsetInCU: 0x13170, offset: 0x1B7D76, size: 0x8, addend: 0x0, symName: '__ZN3syn4expr7parsing64_$LT$impl$u20$syn..parse..Parse$u20$for$u20$syn..expr..Index$GT$5parse17h213ef4a079d37babE', symObjAddr: 0x10700, symBinAddr: 0x7BEA0, symSize: 0x270 }
  - { offsetInCU: 0x1385D, offset: 0x1B8463, size: 0x8, addend: 0x0, symName: '__ZN62_$LT$syn..expr..Expr$u20$as$u20$quote..to_tokens..ToTokens$GT$9to_tokens17h69a442f5848eec7cE', symObjAddr: 0x12AD0, symBinAddr: 0x7D950, symSize: 0x2F80 }
  - { offsetInCU: 0x1DE66, offset: 0x1C2A6C, size: 0x8, addend: 0x0, symName: '__ZN3syn3gen5clone63_$LT$impl$u20$core..clone..Clone$u20$for$u20$syn..expr..Arm$GT$5clone17h53aa09041e68e579E', symObjAddr: 0x18200, symBinAddr: 0x808D0, symSize: 0x1F0 }
  - { offsetInCU: 0x1E819, offset: 0x1C341F, size: 0x8, addend: 0x0, symName: '__ZN3syn3gen5clone64_$LT$impl$u20$core..clone..Clone$u20$for$u20$syn..expr..Expr$GT$5clone17h514f3f764121797bE', symObjAddr: 0x183F0, symBinAddr: 0x80AC0, symSize: 0x1F40 }
  - { offsetInCU: 0x22AAB, offset: 0x1C76B1, size: 0x8, addend: 0x0, symName: '__ZN3syn3gen5clone69_$LT$impl$u20$core..clone..Clone$u20$for$u20$syn..expr..ExprBlock$GT$5clone17he50df63feb0aac81E', symObjAddr: 0x1A870, symBinAddr: 0x82A00, symSize: 0x160 }
  - { offsetInCU: 0x22DF2, offset: 0x1C79F8, size: 0x8, addend: 0x0, symName: '__ZN3syn3gen5clone69_$LT$impl$u20$core..clone..Clone$u20$for$u20$syn..expr..ExprBreak$GT$5clone17h175ec6506dc8ea05E', symObjAddr: 0x1A9D0, symBinAddr: 0x82B60, symSize: 0x190 }
  - { offsetInCU: 0x23365, offset: 0x1C7F6B, size: 0x8, addend: 0x0, symName: '__ZN3syn3gen5clone71_$LT$impl$u20$core..clone..Clone$u20$for$u20$syn..expr..ExprClosure$GT$5clone17ha9bd9832e2a25c35E', symObjAddr: 0x1AE10, symBinAddr: 0x82CF0, symSize: 0x360 }
  - { offsetInCU: 0x23A97, offset: 0x1C869D, size: 0x8, addend: 0x0, symName: '__ZN3syn3gen5clone71_$LT$impl$u20$core..clone..Clone$u20$for$u20$syn..expr..ExprForLoop$GT$5clone17h7dcc3a15fa9a1ad7E', symObjAddr: 0x1B440, symBinAddr: 0x83050, symSize: 0x2D0 }
  - { offsetInCU: 0x242E7, offset: 0x1C8EED, size: 0x8, addend: 0x0, symName: '__ZN3syn3gen5clone66_$LT$impl$u20$core..clone..Clone$u20$for$u20$syn..expr..ExprIf$GT$5clone17heafdb7ddebd20aa8E', symObjAddr: 0x1B7F0, symBinAddr: 0x83320, symSize: 0x200 }
  - { offsetInCU: 0x24862, offset: 0x1C9468, size: 0x8, addend: 0x0, symName: '__ZN3syn3gen5clone68_$LT$impl$u20$core..clone..Clone$u20$for$u20$syn..expr..ExprLoop$GT$5clone17h8d0e378c9d11b4faE', symObjAddr: 0x1BDC0, symBinAddr: 0x83520, symSize: 0x170 }
  - { offsetInCU: 0x24BD7, offset: 0x1C97DD, size: 0x8, addend: 0x0, symName: '__ZN3syn3gen5clone69_$LT$impl$u20$core..clone..Clone$u20$for$u20$syn..expr..ExprMatch$GT$5clone17ha6c11e0b0c716b5fE', symObjAddr: 0x1BFC0, symBinAddr: 0x83690, symSize: 0x140 }
  - { offsetInCU: 0x24EA2, offset: 0x1C9AA8, size: 0x8, addend: 0x0, symName: '__ZN3syn3gen5clone74_$LT$impl$u20$core..clone..Clone$u20$for$u20$syn..expr..ExprMethodCall$GT$5clone17h6eda847712eca907E', symObjAddr: 0x1C100, symBinAddr: 0x837D0, symSize: 0x340 }
  - { offsetInCU: 0x25694, offset: 0x1CA29A, size: 0x8, addend: 0x0, symName: '__ZN3syn3gen5clone68_$LT$impl$u20$core..clone..Clone$u20$for$u20$syn..expr..ExprPath$GT$5clone17h551c107546a23a5aE', symObjAddr: 0x1C520, symBinAddr: 0x83B10, symSize: 0x1A0 }
  - { offsetInCU: 0x25A68, offset: 0x1CA66E, size: 0x8, addend: 0x0, symName: '__ZN3syn3gen5clone69_$LT$impl$u20$core..clone..Clone$u20$for$u20$syn..expr..ExprRange$GT$5clone17h17c522a22b98888cE', symObjAddr: 0x1C6C0, symBinAddr: 0x83CB0, symSize: 0x1A0 }
  - { offsetInCU: 0x25FBB, offset: 0x1CABC1, size: 0x8, addend: 0x0, symName: '__ZN3syn3gen5clone70_$LT$impl$u20$core..clone..Clone$u20$for$u20$syn..expr..ExprStruct$GT$5clone17ha9a3e7ffe6d95269E', symObjAddr: 0x1CAE0, symBinAddr: 0x83E50, symSize: 0x3C0 }
  - { offsetInCU: 0x26891, offset: 0x1CB497, size: 0x8, addend: 0x0, symName: '__ZN3syn3gen5clone69_$LT$impl$u20$core..clone..Clone$u20$for$u20$syn..expr..ExprWhile$GT$5clone17h9beced0f1ab317ccE', symObjAddr: 0x1D060, symBinAddr: 0x84210, symSize: 0x220 }
  - { offsetInCU: 0x26E6E, offset: 0x1CBA74, size: 0x8, addend: 0x0, symName: '__ZN3syn3gen5clone70_$LT$impl$u20$core..clone..Clone$u20$for$u20$syn..expr..FieldValue$GT$5clone17h77ca3a84e53c5c6cE', symObjAddr: 0x1D370, symBinAddr: 0x84430, symSize: 0x150 }
  - { offsetInCU: 0x2A643, offset: 0x1CF249, size: 0x8, addend: 0x0, symName: '__ZN4core3ptr100drop_in_place$LT$core..option..Option$LT$alloc..boxed..Box$LT$syn..path..GenericArgument$GT$$GT$$GT$17h7435c9de74860622E', symObjAddr: 0x150, symBinAddr: 0x6DDD0, symSize: 0x50 }
  - { offsetInCU: 0x2A9E3, offset: 0x1CF5E9, size: 0x8, addend: 0x0, symName: '__ZN4core3ptr100drop_in_place$LT$syn..punctuated..Punctuated$LT$syn..path..PathSegment$C$syn..token..PathSep$GT$$GT$17hf414cb3581f8337aE', symObjAddr: 0x1A0, symBinAddr: 0x6DE20, symSize: 0x260 }
  - { offsetInCU: 0x2B37C, offset: 0x1CFF82, size: 0x8, addend: 0x0, symName: '__ZN4core3ptr103drop_in_place$LT$core..option..Option$LT$alloc..boxed..Box$LT$syn..generics..TypeParamBound$GT$$GT$$GT$17h5974f03e36b1a9c3E', symObjAddr: 0x400, symBinAddr: 0x6E080, symSize: 0x50 }
  - { offsetInCU: 0x2B589, offset: 0x1D018F, size: 0x8, addend: 0x0, symName: '__ZN4core3ptr103drop_in_place$LT$syn..punctuated..Punctuated$LT$syn..generics..GenericParam$C$syn..token..Comma$GT$$GT$17hf42353fa44ed6da8E', symObjAddr: 0x450, symBinAddr: 0x6E0D0, symSize: 0xF0 }
  - { offsetInCU: 0x2BA4C, offset: 0x1D0652, size: 0x8, addend: 0x0, symName: '__ZN4core3ptr104drop_in_place$LT$syn..punctuated..Punctuated$LT$syn..generics..TypeParamBound$C$syn..token..Plus$GT$$GT$17h532f52c4a894b056E', symObjAddr: 0x540, symBinAddr: 0x6E1C0, symSize: 0x190 }
  - { offsetInCU: 0x2C043, offset: 0x1D0C49, size: 0x8, addend: 0x0, symName: '__ZN4core3ptr114drop_in_place$LT$core..option..Option$LT$$LP$syn..token..If$C$alloc..boxed..Box$LT$syn..expr..Expr$GT$$RP$$GT$$GT$17hd695c14b2d7f5b56E.llvm.589876701818171446', symObjAddr: 0x6D0, symBinAddr: 0x6E350, symSize: 0x50 }
  - { offsetInCU: 0x2C1D9, offset: 0x1D0DDF, size: 0x8, addend: 0x0, symName: '__ZN4core3ptr116drop_in_place$LT$core..option..Option$LT$$LP$syn..token..Else$C$alloc..boxed..Box$LT$syn..expr..Expr$GT$$RP$$GT$$GT$17hce47d33a8602d206E', symObjAddr: 0x720, symBinAddr: 0x6E3A0, symSize: 0x50 }
  - { offsetInCU: 0x2C413, offset: 0x1D1019, size: 0x8, addend: 0x0, symName: '__ZN4core3ptr34drop_in_place$LT$syn..lit..Lit$GT$17h8902f5ff67917034E.llvm.589876701818171446', symObjAddr: 0x770, symBinAddr: 0x6E3F0, symSize: 0x110 }
  - { offsetInCU: 0x2C94D, offset: 0x1D1553, size: 0x8, addend: 0x0, symName: '__ZN4core3ptr34drop_in_place$LT$syn..pat..Pat$GT$17h4581eea028ec0969E.llvm.589876701818171446', symObjAddr: 0x880, symBinAddr: 0x6E500, symSize: 0x1000 }
  - { offsetInCU: 0x30472, offset: 0x1D5078, size: 0x8, addend: 0x0, symName: '__ZN4core3ptr34drop_in_place$LT$syn..ty..Type$GT$17h369e41ad4a9f1ae0E.llvm.589876701818171446', symObjAddr: 0x1880, symBinAddr: 0x6F500, symSize: 0x4F0 }
  - { offsetInCU: 0x3140C, offset: 0x1D6012, size: 0x8, addend: 0x0, symName: '__ZN4core3ptr35drop_in_place$LT$syn..expr..Arm$GT$17hf2baebe0cd7aed98E', symObjAddr: 0x1D70, symBinAddr: 0x6F9F0, symSize: 0x180 }
  - { offsetInCU: 0x31EBE, offset: 0x1D6AC4, size: 0x8, addend: 0x0, symName: '__ZN4core3ptr36drop_in_place$LT$syn..expr..Expr$GT$17h0f7fd4c749bae801E.llvm.589876701818171446', symObjAddr: 0x1EF0, symBinAddr: 0x6FB70, symSize: 0x2600 }
  - { offsetInCU: 0x3A769, offset: 0x1DF36F, size: 0x8, addend: 0x0, symName: '__ZN4core3ptr36drop_in_place$LT$syn..mac..Macro$GT$17h4ffde962df30ebe2E.llvm.589876701818171446', symObjAddr: 0x44F0, symBinAddr: 0x72170, symSize: 0x40 }
  - { offsetInCU: 0x3A7A3, offset: 0x1DF3A9, size: 0x8, addend: 0x0, symName: '__ZN4core3ptr36drop_in_place$LT$syn..path..Path$GT$17habea856181211e1cE.llvm.589876701818171446', symObjAddr: 0x4530, symBinAddr: 0x721B0, symSize: 0x220 }
  - { offsetInCU: 0x3B116, offset: 0x1DFD1C, size: 0x8, addend: 0x0, symName: '__ZN4core3ptr37drop_in_place$LT$syn..lit..LitInt$GT$17hdc2cb2f4b64b71f3E', symObjAddr: 0x4750, symBinAddr: 0x723D0, symSize: 0x70 }
  - { offsetInCU: 0x3B496, offset: 0x1E009C, size: 0x8, addend: 0x0, symName: '__ZN4core3ptr37drop_in_place$LT$syn..stmt..Block$GT$17hcc21a21cf949414cE.llvm.589876701818171446', symObjAddr: 0x47C0, symBinAddr: 0x72440, symSize: 0xD0 }
  - { offsetInCU: 0x3B759, offset: 0x1E035F, size: 0x8, addend: 0x0, symName: '__ZN4core3ptr38drop_in_place$LT$syn..expr..ExprIf$GT$17h01a54a489d798b2dE', symObjAddr: 0x4890, symBinAddr: 0x72510, symSize: 0x200 }
  - { offsetInCU: 0x3BF81, offset: 0x1E0B87, size: 0x8, addend: 0x0, symName: '__ZN4core3ptr38drop_in_place$LT$syn..expr..Member$GT$17h022cbe5553aa40faE.llvm.589876701818171446', symObjAddr: 0x4A90, symBinAddr: 0x72710, symSize: 0x30 }
  - { offsetInCU: 0x3C07E, offset: 0x1E0C84, size: 0x8, addend: 0x0, symName: '__ZN4core3ptr39drop_in_place$LT$proc_macro2..Ident$GT$17h8101e88c3ac359d6E', symObjAddr: 0x4AD0, symBinAddr: 0x72740, symSize: 0x30 }
  - { offsetInCU: 0x3C15C, offset: 0x1E0D62, size: 0x8, addend: 0x0, symName: '__ZN4core3ptr40drop_in_place$LT$syn..ty..ReturnType$GT$17h02cf41e2fec63d90E', symObjAddr: 0x4E70, symBinAddr: 0x72770, symSize: 0x50 }
  - { offsetInCU: 0x3C2CE, offset: 0x1E0ED4, size: 0x8, addend: 0x0, symName: '__ZN4core3ptr41drop_in_place$LT$syn..expr..ExprConst$GT$17h725a13e551d9f276E', symObjAddr: 0x4EC0, symBinAddr: 0x727C0, symSize: 0x180 }
  - { offsetInCU: 0x3C823, offset: 0x1E1429, size: 0x8, addend: 0x0, symName: '__ZN4core3ptr44drop_in_place$LT$syn..lifetime..Lifetime$GT$17hf0cdec2e9ec456d6E', symObjAddr: 0x5770, symBinAddr: 0x72940, symSize: 0x30 }
  - { offsetInCU: 0x3C99C, offset: 0x1E15A2, size: 0x8, addend: 0x0, symName: '__ZN4core3ptr44drop_in_place$LT$syn..parse..ParseBuffer$GT$17hd0dadba44a19aec2E', symObjAddr: 0x57A0, symBinAddr: 0x72970, symSize: 0x70 }
  - { offsetInCU: 0x3CDD1, offset: 0x1E19D7, size: 0x8, addend: 0x0, symName: '__ZN4core3ptr45drop_in_place$LT$proc_macro2..TokenStream$GT$17h3405f6c513e9f6cbE.llvm.589876701818171446', symObjAddr: 0x5810, symBinAddr: 0x729E0, symSize: 0x140 }
  - { offsetInCU: 0x3D240, offset: 0x1E1E46, size: 0x8, addend: 0x0, symName: '__ZN4core3ptr45drop_in_place$LT$syn..generics..TypeParam$GT$17he5eda51070b7de47E', symObjAddr: 0x5950, symBinAddr: 0x72B20, symSize: 0x230 }
  - { offsetInCU: 0x3DA99, offset: 0x1E269F, size: 0x8, addend: 0x0, symName: '__ZN4core3ptr46drop_in_place$LT$syn..expr..ExprMethodCall$GT$17hdf90cc01d847f3e4E', symObjAddr: 0x5B80, symBinAddr: 0x72D50, symSize: 0x320 }
  - { offsetInCU: 0x3E824, offset: 0x1E342A, size: 0x8, addend: 0x0, symName: '__ZN4core3ptr46drop_in_place$LT$syn..generics..ConstParam$GT$17hab0a58c4af8c549cE', symObjAddr: 0x5EA0, symBinAddr: 0x73070, symSize: 0x150 }
  - { offsetInCU: 0x3ECCA, offset: 0x1E38D0, size: 0x8, addend: 0x0, symName: '__ZN4core3ptr47drop_in_place$LT$syn..path..GenericArgument$GT$17h54f8794633f96823E', symObjAddr: 0x6020, symBinAddr: 0x731C0, symSize: 0x4A0 }
  - { offsetInCU: 0x3FD71, offset: 0x1E4977, size: 0x8, addend: 0x0, symName: '__ZN4core3ptr49drop_in_place$LT$syn..generics..LifetimeParam$GT$17h41a7c7a290ea6289E', symObjAddr: 0x64C0, symBinAddr: 0x73660, symSize: 0xF0 }
  - { offsetInCU: 0x4012B, offset: 0x1E4D31, size: 0x8, addend: 0x0, symName: '__ZN4core3ptr50drop_in_place$LT$syn..generics..TypeParamBound$GT$17hcd7771d4c6c221efE', symObjAddr: 0x65B0, symBinAddr: 0x73750, symSize: 0x160 }
  - { offsetInCU: 0x4054B, offset: 0x1E5151, size: 0x8, addend: 0x0, symName: '__ZN4core3ptr58drop_in_place$LT$alloc..vec..Vec$LT$syn..expr..Arm$GT$$GT$17h1a55df3d2cba1daaE', symObjAddr: 0x6710, symBinAddr: 0x738B0, symSize: 0xD0 }
  - { offsetInCU: 0x407D8, offset: 0x1E53DE, size: 0x8, addend: 0x0, symName: '__ZN4core3ptr59drop_in_place$LT$alloc..boxed..Box$LT$syn..pat..Pat$GT$$GT$17h563b135d87aca8abE', symObjAddr: 0x67E0, symBinAddr: 0x73980, symSize: 0x50 }
  - { offsetInCU: 0x40933, offset: 0x1E5539, size: 0x8, addend: 0x0, symName: '__ZN4core3ptr59drop_in_place$LT$alloc..boxed..Box$LT$syn..ty..Type$GT$$GT$17hffed36bad83adacbE', symObjAddr: 0x6830, symBinAddr: 0x739D0, symSize: 0x50 }
  - { offsetInCU: 0x40A8E, offset: 0x1E5694, size: 0x8, addend: 0x0, symName: '__ZN4core3ptr59drop_in_place$LT$alloc..vec..Vec$LT$syn..stmt..Stmt$GT$$GT$17hb5c1acf3c61c43e2E', symObjAddr: 0x6880, symBinAddr: 0x73A20, symSize: 0xD0 }
  - { offsetInCU: 0x40D1B, offset: 0x1E5921, size: 0x8, addend: 0x0, symName: '__ZN4core3ptr61drop_in_place$LT$alloc..boxed..Box$LT$syn..expr..Expr$GT$$GT$17h01091e47f131475dE', symObjAddr: 0x6950, symBinAddr: 0x73AF0, symSize: 0x50 }
  - { offsetInCU: 0x40E95, offset: 0x1E5A9B, size: 0x8, addend: 0x0, symName: '__ZN4core3ptr61drop_in_place$LT$alloc..vec..Vec$LT$syn..expr..ExprIf$GT$$GT$17h0c094efa3006c900E', symObjAddr: 0x69A0, symBinAddr: 0x73B40, symSize: 0xD0 }
  - { offsetInCU: 0x4119E, offset: 0x1E5DA4, size: 0x8, addend: 0x0, symName: '__ZN4core3ptr61drop_in_place$LT$syn..path..ParenthesizedGenericArguments$GT$17h43d4aac5494326a7E', symObjAddr: 0x6A70, symBinAddr: 0x73C10, symSize: 0x170 }
  - { offsetInCU: 0x41765, offset: 0x1E636B, size: 0x8, addend: 0x0, symName: '__ZN4core3ptr62drop_in_place$LT$syn..path..AngleBracketedGenericArguments$GT$17hc5b69f68243636ddE', symObjAddr: 0x6BE0, symBinAddr: 0x73D80, symSize: 0x120 }
  - { offsetInCU: 0x41B7B, offset: 0x1E6781, size: 0x8, addend: 0x0, symName: '__ZN4core3ptr63drop_in_place$LT$alloc..boxed..Box$LT$syn..lit..LitRepr$GT$$GT$17hd8839b7fb35ee7afE', symObjAddr: 0x6D00, symBinAddr: 0x73EA0, symSize: 0x60 }
  - { offsetInCU: 0x41E70, offset: 0x1E6A76, size: 0x8, addend: 0x0, symName: '__ZN4core3ptr64drop_in_place$LT$alloc..boxed..Box$LT$syn..pat..FieldPat$GT$$GT$17h4980b70a7597cc08E', symObjAddr: 0x6D60, symBinAddr: 0x73F00, symSize: 0x140 }
  - { offsetInCU: 0x4251B, offset: 0x1E7121, size: 0x8, addend: 0x0, symName: '__ZN4core3ptr64drop_in_place$LT$alloc..boxed..Box$LT$syn..ty..BareFnArg$GT$$GT$17h8b34096c620314efE', symObjAddr: 0x6EA0, symBinAddr: 0x74040, symSize: 0x140 }
  - { offsetInCU: 0x42A3F, offset: 0x1E7645, size: 0x8, addend: 0x0, symName: '__ZN4core3ptr64drop_in_place$LT$alloc..vec..Vec$LT$syn..attr..Attribute$GT$$GT$17h3c8f2a04e701c675E.llvm.589876701818171446', symObjAddr: 0x6FE0, symBinAddr: 0x74180, symSize: 0xD0 }
  - { offsetInCU: 0x42CCC, offset: 0x1E78D2, size: 0x8, addend: 0x0, symName: '__ZN4core3ptr65drop_in_place$LT$core..option..Option$LT$syn..expr..Label$GT$$GT$17h78189e72a8cb7951E', symObjAddr: 0x70B0, symBinAddr: 0x74250, symSize: 0x30 }
  - { offsetInCU: 0x42E07, offset: 0x1E7A0D, size: 0x8, addend: 0x0, symName: '__ZN4core3ptr65drop_in_place$LT$core..option..Option$LT$syn..path..QSelf$GT$$GT$17h9b72552ca06b7379E.llvm.589876701818171446', symObjAddr: 0x70E0, symBinAddr: 0x74280, symSize: 0x50 }
  - { offsetInCU: 0x42FA0, offset: 0x1E7BA6, size: 0x8, addend: 0x0, symName: '__ZN4core3ptr66drop_in_place$LT$core..option..Option$LT$syn..pat..PatRest$GT$$GT$17h61677cf4ff3a7393E', symObjAddr: 0x7130, symBinAddr: 0x742D0, symSize: 0xE0 }
  - { offsetInCU: 0x43224, offset: 0x1E7E2A, size: 0x8, addend: 0x0, symName: '__ZN4core3ptr67drop_in_place$LT$alloc..boxed..Box$LT$syn..expr..FieldValue$GT$$GT$17h93aaccf8aa22ef88E', symObjAddr: 0x7210, symBinAddr: 0x743B0, symSize: 0x140 }
  - { offsetInCU: 0x43728, offset: 0x1E832E, size: 0x8, addend: 0x0, symName: '__ZN4core3ptr68drop_in_place$LT$alloc..boxed..Box$LT$syn..path..PathSegment$GT$$GT$17h709dabdc13b58a71E', symObjAddr: 0x7350, symBinAddr: 0x744F0, symSize: 0x190 }
  - { offsetInCU: 0x43E06, offset: 0x1E8A0C, size: 0x8, addend: 0x0, symName: '__ZN4core3ptr70drop_in_place$LT$core..option..Option$LT$syn..ty..BareVariadic$GT$$GT$17h45399348ea4b8d55E', symObjAddr: 0x74E0, symBinAddr: 0x74680, symSize: 0x120 }
  - { offsetInCU: 0x44333, offset: 0x1E8F39, size: 0x8, addend: 0x0, symName: '__ZN4core3ptr72drop_in_place$LT$alloc..boxed..Box$LT$syn..path..GenericArgument$GT$$GT$17haa7dd8b716637b54E', symObjAddr: 0x7600, symBinAddr: 0x747A0, symSize: 0x1D0 }
  - { offsetInCU: 0x448D6, offset: 0x1E94DC, size: 0x8, addend: 0x0, symName: '__ZN4core3ptr72drop_in_place$LT$core..option..Option$LT$syn..lifetime..Lifetime$GT$$GT$17hfc363ccdd8bd9c32E', symObjAddr: 0x77D0, symBinAddr: 0x74970, symSize: 0x30 }
  - { offsetInCU: 0x449F2, offset: 0x1E95F8, size: 0x8, addend: 0x0, symName: '__ZN4core3ptr73drop_in_place$LT$alloc..boxed..Box$LT$syn..generics..GenericParam$GT$$GT$17hf6951dcd5ae07324E', symObjAddr: 0x7800, symBinAddr: 0x749A0, symSize: 0x80 }
  - { offsetInCU: 0x44B6A, offset: 0x1E9770, size: 0x8, addend: 0x0, symName: '__ZN4core3ptr75drop_in_place$LT$alloc..boxed..Box$LT$syn..generics..TypeParamBound$GT$$GT$17he61c00698a311a34E', symObjAddr: 0x7880, symBinAddr: 0x74A20, symSize: 0xB0 }
  - { offsetInCU: 0x44EC5, offset: 0x1E9ACB, size: 0x8, addend: 0x0, symName: '__ZN4core3ptr86drop_in_place$LT$syn..punctuated..Punctuated$LT$syn..pat..Pat$C$syn..token..Or$GT$$GT$17h8e9173df21a44316E', symObjAddr: 0x7950, symBinAddr: 0x74AD0, symSize: 0x120 }
  - { offsetInCU: 0x4530B, offset: 0x1E9F11, size: 0x8, addend: 0x0, symName: '__ZN4core3ptr87drop_in_place$LT$core..option..Option$LT$alloc..boxed..Box$LT$syn..pat..Pat$GT$$GT$$GT$17hd7b7c69f601b3926E', symObjAddr: 0x7A70, symBinAddr: 0x74BF0, symSize: 0x50 }
  - { offsetInCU: 0x4547D, offset: 0x1EA083, size: 0x8, addend: 0x0, symName: '__ZN4core3ptr87drop_in_place$LT$core..option..Option$LT$alloc..boxed..Box$LT$syn..ty..Type$GT$$GT$$GT$17hd74f5d971aec2972E', symObjAddr: 0x7AC0, symBinAddr: 0x74C40, symSize: 0x50 }
  - { offsetInCU: 0x455EF, offset: 0x1EA1F5, size: 0x8, addend: 0x0, symName: '__ZN4core3ptr88drop_in_place$LT$$LP$syn..token..Else$C$alloc..boxed..Box$LT$syn..expr..Expr$GT$$RP$$GT$17hba8984e392f62c24E', symObjAddr: 0x7B10, symBinAddr: 0x74C90, symSize: 0x50 }
  - { offsetInCU: 0x45769, offset: 0x1EA36F, size: 0x8, addend: 0x0, symName: '__ZN4core3ptr89drop_in_place$LT$core..option..Option$LT$alloc..boxed..Box$LT$syn..expr..Expr$GT$$GT$$GT$17h8e135ac1a25a2dc5E.llvm.589876701818171446', symObjAddr: 0x7B60, symBinAddr: 0x74CE0, symSize: 0x50 }
  - { offsetInCU: 0x45919, offset: 0x1EA51F, size: 0x8, addend: 0x0, symName: '__ZN4core3ptr89drop_in_place$LT$syn..punctuated..Punctuated$LT$syn..pat..Pat$C$syn..token..Comma$GT$$GT$17h8d60e47f3fb1f87aE', symObjAddr: 0x7BB0, symBinAddr: 0x74D30, symSize: 0x120 }
  - { offsetInCU: 0x45D76, offset: 0x1EA97C, size: 0x8, addend: 0x0, symName: '__ZN4core3ptr89drop_in_place$LT$syn..punctuated..Punctuated$LT$syn..ty..Type$C$syn..token..Comma$GT$$GT$17ha919b3114742fb9dE', symObjAddr: 0x7CD0, symBinAddr: 0x74E50, symSize: 0x120 }
  - { offsetInCU: 0x461C0, offset: 0x1EADC6, size: 0x8, addend: 0x0, symName: '__ZN4core3ptr90drop_in_place$LT$core..option..Option$LT$syn..path..AngleBracketedGenericArguments$GT$$GT$17h80d9a5f0818c8bd9E', symObjAddr: 0x7DF0, symBinAddr: 0x74F70, symSize: 0x130 }
  - { offsetInCU: 0x465ED, offset: 0x1EB1F3, size: 0x8, addend: 0x0, symName: '__ZN4core3ptr91drop_in_place$LT$syn..punctuated..Punctuated$LT$syn..expr..Expr$C$syn..token..Comma$GT$$GT$17h4f39b83dc86a4159E', symObjAddr: 0x7F20, symBinAddr: 0x750A0, symSize: 0x120 }
  - { offsetInCU: 0x46A37, offset: 0x1EB63D, size: 0x8, addend: 0x0, symName: '__ZN4core3ptr94drop_in_place$LT$syn..punctuated..Punctuated$LT$syn..pat..FieldPat$C$syn..token..Comma$GT$$GT$17h112950ea198c8281E', symObjAddr: 0x8040, symBinAddr: 0x751C0, symSize: 0xF0 }
  - { offsetInCU: 0x46D01, offset: 0x1EB907, size: 0x8, addend: 0x0, symName: '__ZN4core3ptr94drop_in_place$LT$syn..punctuated..Punctuated$LT$syn..ty..BareFnArg$C$syn..token..Comma$GT$$GT$17h1c7b44310f06243dE', symObjAddr: 0x8130, symBinAddr: 0x752B0, symSize: 0xF0 }
  - { offsetInCU: 0x46FCB, offset: 0x1EBBD1, size: 0x8, addend: 0x0, symName: '__ZN4core3ptr95drop_in_place$LT$core..option..Option$LT$$LP$proc_macro2..Ident$C$syn..token..Colon$RP$$GT$$GT$17ha744bf0f41959716E', symObjAddr: 0x8220, symBinAddr: 0x753A0, symSize: 0x30 }
  - { offsetInCU: 0x470E7, offset: 0x1EBCED, size: 0x8, addend: 0x0, symName: '__ZN4core3ptr96drop_in_place$LT$core..option..Option$LT$alloc..boxed..Box$LT$syn..path..PathSegment$GT$$GT$$GT$17hb447d0f626c86a4eE', symObjAddr: 0x8250, symBinAddr: 0x753D0, symSize: 0x90 }
  - { offsetInCU: 0x47369, offset: 0x1EBF6F, size: 0x8, addend: 0x0, symName: '__ZN4core3ptr97drop_in_place$LT$syn..punctuated..Punctuated$LT$syn..expr..FieldValue$C$syn..token..Comma$GT$$GT$17h31b81f7462228dcbE', symObjAddr: 0x82E0, symBinAddr: 0x75460, symSize: 0xF0 }
  - { offsetInCU: 0x476AF, offset: 0x1EC2B5, size: 0x8, addend: 0x0, symName: '__ZN4core3ptr98drop_in_place$LT$syn..punctuated..Punctuated$LT$syn..lifetime..Lifetime$C$syn..token..Plus$GT$$GT$17h0f8fc5f20f465f47E', symObjAddr: 0x83D0, symBinAddr: 0x75550, symSize: 0xC0 }
  - { offsetInCU: 0x4E0B9, offset: 0x1F2CBF, size: 0x8, addend: 0x0, symName: '__ZN69_$LT$alloc..boxed..Box$LT$T$C$A$GT$$u20$as$u20$core..clone..Clone$GT$5clone17h3b3509f8065d1aa7E', symObjAddr: 0x8B90, symBinAddr: 0x75610, symSize: 0x90 }
  - { offsetInCU: 0x4FB44, offset: 0x1F474A, size: 0x8, addend: 0x0, symName: __ZN3syn4expr4Expr13replace_attrs17h8f3cf7f80b801d36E, symObjAddr: 0x8FE0, symBinAddr: 0x756A0, symSize: 0x1D0 }
  - { offsetInCU: 0x50D6F, offset: 0x1F5975, size: 0x8, addend: 0x0, symName: '__ZN3syn4expr7parsing40_$LT$impl$u20$syn..expr..RangeLimits$GT$14parse_obsolete17he567255c2d646d59E', symObjAddr: 0xF6B0, symBinAddr: 0x7AE50, symSize: 0x390 }
  - { offsetInCU: 0x1090, offset: 0x20313A, size: 0x8, addend: 0x0, symName: '__ZN42_$LT$$RF$T$u20$as$u20$core..fmt..Debug$GT$3fmt17he3619b2352a5e524E', symObjAddr: 0x180, symBinAddr: 0x84620, symSize: 0x80 }
  - { offsetInCU: 0x3096, offset: 0x205140, size: 0x8, addend: 0x0, symName: '__ZN4core3ptr100drop_in_place$LT$core..option..Option$LT$alloc..boxed..Box$LT$syn..path..GenericArgument$GT$$GT$$GT$17h7435c9de74860622E.llvm.2618680253894991198', symObjAddr: 0x280, symBinAddr: 0x846A0, symSize: 0x50 }
  - { offsetInCU: 0x33D9, offset: 0x205483, size: 0x8, addend: 0x0, symName: '__ZN4core3ptr100drop_in_place$LT$syn..punctuated..Punctuated$LT$syn..path..PathSegment$C$syn..token..PathSep$GT$$GT$17hf414cb3581f8337aE.llvm.2618680253894991198', symObjAddr: 0x2D0, symBinAddr: 0x846F0, symSize: 0x1A0 }
  - { offsetInCU: 0x3AB1, offset: 0x205B5B, size: 0x8, addend: 0x0, symName: '__ZN4core3ptr101drop_in_place$LT$core..option..Option$LT$alloc..boxed..Box$LT$syn..generics..GenericParam$GT$$GT$$GT$17hd5dce04b35fda9feE', symObjAddr: 0x470, symBinAddr: 0x84890, symSize: 0x50 }
  - { offsetInCU: 0x3C9F, offset: 0x205D49, size: 0x8, addend: 0x0, symName: '__ZN4core3ptr102drop_in_place$LT$syn..punctuated..Punctuated$LT$syn..path..GenericArgument$C$syn..token..Comma$GT$$GT$17h39496ba4e6dba6cfE.llvm.2618680253894991198', symObjAddr: 0x4C0, symBinAddr: 0x848E0, symSize: 0xF0 }
  - { offsetInCU: 0x3F88, offset: 0x206032, size: 0x8, addend: 0x0, symName: '__ZN4core3ptr103drop_in_place$LT$core..option..Option$LT$alloc..boxed..Box$LT$syn..generics..TypeParamBound$GT$$GT$$GT$17h5974f03e36b1a9c3E.llvm.2618680253894991198', symObjAddr: 0x5B0, symBinAddr: 0x849D0, symSize: 0x50 }
  - { offsetInCU: 0x4119, offset: 0x2061C3, size: 0x8, addend: 0x0, symName: '__ZN4core3ptr103drop_in_place$LT$core..option..Option$LT$alloc..boxed..Box$LT$syn..generics..WherePredicate$GT$$GT$$GT$17hdd5111a374d8d6f2E', symObjAddr: 0x600, symBinAddr: 0x84A20, symSize: 0x50 }
  - { offsetInCU: 0x4345, offset: 0x2063EF, size: 0x8, addend: 0x0, symName: '__ZN4core3ptr103drop_in_place$LT$syn..punctuated..Punctuated$LT$syn..generics..GenericParam$C$syn..token..Comma$GT$$GT$17hf42353fa44ed6da8E.llvm.2618680253894991198', symObjAddr: 0x650, symBinAddr: 0x84A70, symSize: 0x1A0 }
  - { offsetInCU: 0x4914, offset: 0x2069BE, size: 0x8, addend: 0x0, symName: '__ZN4core3ptr104drop_in_place$LT$syn..punctuated..Punctuated$LT$syn..generics..TypeParamBound$C$syn..token..Plus$GT$$GT$17h532f52c4a894b056E.llvm.2618680253894991198', symObjAddr: 0x7F0, symBinAddr: 0x84C10, symSize: 0x230 }
  - { offsetInCU: 0x5245, offset: 0x2072EF, size: 0x8, addend: 0x0, symName: '__ZN4core3ptr105drop_in_place$LT$syn..punctuated..Punctuated$LT$syn..generics..WherePredicate$C$syn..token..Comma$GT$$GT$17h935f9826ba562349E', symObjAddr: 0xA20, symBinAddr: 0x84E40, symSize: 0x190 }
  - { offsetInCU: 0x5916, offset: 0x2079C0, size: 0x8, addend: 0x0, symName: '__ZN4core3ptr116drop_in_place$LT$core..option..Option$LT$$LP$syn..token..Else$C$alloc..boxed..Box$LT$syn..expr..Expr$GT$$RP$$GT$$GT$17hce47d33a8602d206E', symObjAddr: 0xBB0, symBinAddr: 0x84FD0, symSize: 0x50 }
  - { offsetInCU: 0x5AD4, offset: 0x207B7E, size: 0x8, addend: 0x0, symName: '__ZN4core3ptr126drop_in_place$LT$core..option..Option$LT$$LP$syn..token..And$C$core..option..Option$LT$syn..lifetime..Lifetime$GT$$RP$$GT$$GT$17hc269ac95805979aaE', symObjAddr: 0xC00, symBinAddr: 0x85020, symSize: 0x30 }
  - { offsetInCU: 0x5D64, offset: 0x207E0E, size: 0x8, addend: 0x0, symName: '__ZN4core3ptr33drop_in_place$LT$syn..ty..Abi$GT$17h82d9e208356e7513E', symObjAddr: 0xC30, symBinAddr: 0x85050, symSize: 0x60 }
  - { offsetInCU: 0x5D80, offset: 0x207E2A, size: 0x8, addend: 0x0, symName: '__ZN4core3ptr33drop_in_place$LT$syn..ty..Abi$GT$17h82d9e208356e7513E', symObjAddr: 0xC30, symBinAddr: 0x85050, symSize: 0x60 }
  - { offsetInCU: 0x607A, offset: 0x208124, size: 0x8, addend: 0x0, symName: '__ZN4core3ptr34drop_in_place$LT$syn..lit..Lit$GT$17h8902f5ff67917034E', symObjAddr: 0xC90, symBinAddr: 0x850B0, symSize: 0x110 }
  - { offsetInCU: 0x65F2, offset: 0x20869C, size: 0x8, addend: 0x0, symName: '__ZN4core3ptr34drop_in_place$LT$syn..pat..Pat$GT$17h4581eea028ec0969E.llvm.2618680253894991198', symObjAddr: 0xDA0, symBinAddr: 0x851C0, symSize: 0xF50 }
  - { offsetInCU: 0xA091, offset: 0x20C13B, size: 0x8, addend: 0x0, symName: '__ZN4core3ptr34drop_in_place$LT$syn..ty..Type$GT$17h369e41ad4a9f1ae0E.llvm.2618680253894991198', symObjAddr: 0x1CF0, symBinAddr: 0x86110, symSize: 0x4E0 }
  - { offsetInCU: 0xB15A, offset: 0x20D204, size: 0x8, addend: 0x0, symName: '__ZN4core3ptr35drop_in_place$LT$syn..expr..Arm$GT$17hf2baebe0cd7aed98E.llvm.2618680253894991198', symObjAddr: 0x21D0, symBinAddr: 0x865F0, symSize: 0x190 }
  - { offsetInCU: 0xB73E, offset: 0x20D7E8, size: 0x8, addend: 0x0, symName: '__ZN4core3ptr36drop_in_place$LT$syn..attr..Meta$GT$17hceda0eaca68b0dd1E.llvm.2618680253894991198', symObjAddr: 0x2360, symBinAddr: 0x86780, symSize: 0x220 }
  - { offsetInCU: 0xC23D, offset: 0x20E2E7, size: 0x8, addend: 0x0, symName: '__ZN4core3ptr36drop_in_place$LT$syn..expr..Expr$GT$17h0f7fd4c749bae801E.llvm.2618680253894991198', symObjAddr: 0x2580, symBinAddr: 0x869A0, symSize: 0x2680 }
  - { offsetInCU: 0x15ABC, offset: 0x217B66, size: 0x8, addend: 0x0, symName: '__ZN4core3ptr36drop_in_place$LT$syn..item..Item$GT$17h13f5a53479ba6379E.llvm.2618680253894991198', symObjAddr: 0x4C00, symBinAddr: 0x89020, symSize: 0x17D0 }
  - { offsetInCU: 0x1AFBB, offset: 0x21D065, size: 0x8, addend: 0x0, symName: '__ZN4core3ptr36drop_in_place$LT$syn..mac..Macro$GT$17h4ffde962df30ebe2E', symObjAddr: 0x63D0, symBinAddr: 0x8A7F0, symSize: 0xE0 }
  - { offsetInCU: 0x1B2C5, offset: 0x21D36F, size: 0x8, addend: 0x0, symName: '__ZN4core3ptr36drop_in_place$LT$syn..path..Path$GT$17habea856181211e1cE.llvm.2618680253894991198', symObjAddr: 0x64B0, symBinAddr: 0x8A8D0, symSize: 0x150 }
  - { offsetInCU: 0x1B872, offset: 0x21D91C, size: 0x8, addend: 0x0, symName: '__ZN4core3ptr36drop_in_place$LT$syn..stmt..Stmt$GT$17h7826ed37cb9634e5E.llvm.2618680253894991198', symObjAddr: 0x6600, symBinAddr: 0x8AA20, symSize: 0x380 }
  - { offsetInCU: 0x1C43E, offset: 0x21E4E8, size: 0x8, addend: 0x0, symName: '__ZN4core3ptr37drop_in_place$LT$syn..data..Field$GT$17h8ecf6e22a67a3b36E.llvm.2618680253894991198', symObjAddr: 0x6980, symBinAddr: 0x8ADA0, symSize: 0x180 }
  - { offsetInCU: 0x1CA03, offset: 0x21EAAD, size: 0x8, addend: 0x0, symName: '__ZN4core3ptr37drop_in_place$LT$syn..item..FnArg$GT$17h3308e115b3b3c9adE.llvm.2618680253894991198', symObjAddr: 0x6B00, symBinAddr: 0x8AF20, symSize: 0x230 }
  - { offsetInCU: 0x1D2B5, offset: 0x21F35F, size: 0x8, addend: 0x0, symName: '__ZN4core3ptr37drop_in_place$LT$syn..stmt..Block$GT$17hcc21a21cf949414cE', symObjAddr: 0x6D30, symBinAddr: 0x8B150, symSize: 0xD0 }
  - { offsetInCU: 0x1D559, offset: 0x21F603, size: 0x8, addend: 0x0, symName: '__ZN4core3ptr38drop_in_place$LT$syn..expr..ExprIf$GT$17h01a54a489d798b2dE.llvm.2618680253894991198', symObjAddr: 0x6E00, symBinAddr: 0x8B220, symSize: 0x1B0 }
  - { offsetInCU: 0x1DDC3, offset: 0x21FE6D, size: 0x8, addend: 0x0, symName: '__ZN4core3ptr38drop_in_place$LT$syn..expr..Member$GT$17h022cbe5553aa40faE.llvm.2618680253894991198', symObjAddr: 0x6FB0, symBinAddr: 0x8B3D0, symSize: 0x30 }
  - { offsetInCU: 0x1DEC0, offset: 0x21FF6A, size: 0x8, addend: 0x0, symName: '__ZN4core3ptr38drop_in_place$LT$syn..pat..PatType$GT$17hcbbce80a195201a4E.llvm.2618680253894991198', symObjAddr: 0x6FE0, symBinAddr: 0x8B400, symSize: 0x140 }
  - { offsetInCU: 0x1E43C, offset: 0x2204E6, size: 0x8, addend: 0x0, symName: '__ZN4core3ptr39drop_in_place$LT$proc_macro2..Ident$GT$17h8101e88c3ac359d6E.llvm.2618680253894991198', symObjAddr: 0x7120, symBinAddr: 0x8B540, symSize: 0x30 }
  - { offsetInCU: 0x1E650, offset: 0x2206FA, size: 0x8, addend: 0x0, symName: '__ZN4core3ptr39drop_in_place$LT$syn..buffer..Entry$GT$17h8c4c199506966aaeE.llvm.2618680253894991198', symObjAddr: 0x7150, symBinAddr: 0x8B570, symSize: 0xC0 }
  - { offsetInCU: 0x1E9C1, offset: 0x220A6B, size: 0x8, addend: 0x0, symName: '__ZN4core3ptr39drop_in_place$LT$syn..data..Variant$GT$17h7bd4c363751fc860E.llvm.2618680253894991198', symObjAddr: 0x7210, symBinAddr: 0x8B630, symSize: 0x2F0 }
  - { offsetInCU: 0x1F5CF, offset: 0x221679, size: 0x8, addend: 0x0, symName: '__ZN4core3ptr39drop_in_place$LT$syn..item..UseTree$GT$17h5b1281a5704d139dE.llvm.2618680253894991198', symObjAddr: 0x7500, symBinAddr: 0x8B920, symSize: 0x1D0 }
  - { offsetInCU: 0x1FCEE, offset: 0x221D98, size: 0x8, addend: 0x0, symName: '__ZN4core3ptr40drop_in_place$LT$syn..item..ImplItem$GT$17he2e6e8f15695ea55E', symObjAddr: 0x76D0, symBinAddr: 0x8BAF0, symSize: 0x240 }
  - { offsetInCU: 0x202E9, offset: 0x222393, size: 0x8, addend: 0x0, symName: '__ZN4core3ptr40drop_in_place$LT$syn..item..Receiver$GT$17h6743a41cd869c536E.llvm.2618680253894991198', symObjAddr: 0x7910, symBinAddr: 0x8BD30, symSize: 0x130 }
  - { offsetInCU: 0x208BC, offset: 0x222966, size: 0x8, addend: 0x0, symName: '__ZN4core3ptr40drop_in_place$LT$syn..item..Variadic$GT$17h856c1da4a3922974E', symObjAddr: 0x7A40, symBinAddr: 0x8BE60, symSize: 0x120 }
  - { offsetInCU: 0x20D33, offset: 0x222DDD, size: 0x8, addend: 0x0, symName: '__ZN4core3ptr40drop_in_place$LT$syn..ty..ReturnType$GT$17h02cf41e2fec63d90E.llvm.2618680253894991198', symObjAddr: 0x7B60, symBinAddr: 0x8BF80, symSize: 0x50 }
  - { offsetInCU: 0x20EC4, offset: 0x222F6E, size: 0x8, addend: 0x0, symName: '__ZN4core3ptr41drop_in_place$LT$syn..attr..Attribute$GT$17h6038ab1bc013504dE.llvm.2618680253894991198', symObjAddr: 0x7BB0, symBinAddr: 0x8BFD0, symSize: 0x160 }
  - { offsetInCU: 0x213AA, offset: 0x223454, size: 0x8, addend: 0x0, symName: '__ZN4core3ptr41drop_in_place$LT$syn..item..Signature$GT$17h691f115807a5d1eeE', symObjAddr: 0x7D10, symBinAddr: 0x8C130, symSize: 0x280 }
  - { offsetInCU: 0x21E99, offset: 0x223F43, size: 0x8, addend: 0x0, symName: '__ZN4core3ptr41drop_in_place$LT$syn..item..TraitItem$GT$17hb6f9fbcba8fdea85E', symObjAddr: 0x7F90, symBinAddr: 0x8C3B0, symSize: 0x3E0 }
  - { offsetInCU: 0x229BF, offset: 0x224A69, size: 0x8, addend: 0x0, symName: '__ZN4core3ptr41drop_in_place$LT$syn..stmt..LocalInit$GT$17he02c3bb35adaf040E', symObjAddr: 0x8370, symBinAddr: 0x8C790, symSize: 0xC0 }
  - { offsetInCU: 0x22CB3, offset: 0x224D5D, size: 0x8, addend: 0x0, symName: '__ZN4core3ptr42drop_in_place$LT$syn..item..ImplItemFn$GT$17h753bae801f2662d9E', symObjAddr: 0x8430, symBinAddr: 0x8C850, symSize: 0x230 }
  - { offsetInCU: 0x2340E, offset: 0x2254B8, size: 0x8, addend: 0x0, symName: '__ZN4core3ptr42drop_in_place$LT$syn..path..Constraint$GT$17h07cd69a204b9a6d4E', symObjAddr: 0x8660, symBinAddr: 0x8CA80, symSize: 0x160 }
  - { offsetInCU: 0x2396E, offset: 0x225A18, size: 0x8, addend: 0x0, symName: '__ZN4core3ptr43drop_in_place$LT$proc_macro2..TokenTree$GT$17h9a731c54895ae11bE.llvm.2618680253894991198', symObjAddr: 0x87C0, symBinAddr: 0x8CBE0, symSize: 0xB0 }
  - { offsetInCU: 0x23C82, offset: 0x225D2C, size: 0x8, addend: 0x0, symName: '__ZN4core3ptr43drop_in_place$LT$syn..data..FieldsNamed$GT$17hb2a97e73a85352cbE', symObjAddr: 0x8870, symBinAddr: 0x8CC90, symSize: 0x120 }
  - { offsetInCU: 0x2410A, offset: 0x2261B4, size: 0x8, addend: 0x0, symName: '__ZN4core3ptr43drop_in_place$LT$syn..item..ForeignItem$GT$17h1398b9aa0a6e4c9dE', symObjAddr: 0x8990, symBinAddr: 0x8CDB0, symSize: 0x330 }
  - { offsetInCU: 0x24A91, offset: 0x226B3B, size: 0x8, addend: 0x0, symName: '__ZN4core3ptr43drop_in_place$LT$syn..path..PathSegment$GT$17h62e206c29667de7cE.llvm.2618680253894991198', symObjAddr: 0x8CC0, symBinAddr: 0x8D0E0, symSize: 0x170 }
  - { offsetInCU: 0x25035, offset: 0x2270DF, size: 0x8, addend: 0x0, symName: '__ZN4core3ptr44drop_in_place$LT$syn..generics..Generics$GT$17h10dea28dec64f81eE', symObjAddr: 0x8E30, symBinAddr: 0x8D250, symSize: 0x220 }
  - { offsetInCU: 0x258B2, offset: 0x22795C, size: 0x8, addend: 0x0, symName: '__ZN4core3ptr44drop_in_place$LT$syn..item..ImplItemType$GT$17h9547daf76315cef8E', symObjAddr: 0x9050, symBinAddr: 0x8D470, symSize: 0x1D0 }
  - { offsetInCU: 0x25E9A, offset: 0x227F44, size: 0x8, addend: 0x0, symName: '__ZN4core3ptr44drop_in_place$LT$syn..lifetime..Lifetime$GT$17hf0cdec2e9ec456d6E.llvm.2618680253894991198', symObjAddr: 0x9220, symBinAddr: 0x8D640, symSize: 0x30 }
  - { offsetInCU: 0x25FF4, offset: 0x22809E, size: 0x8, addend: 0x0, symName: '__ZN4core3ptr45drop_in_place$LT$proc_macro2..TokenStream$GT$17h3405f6c513e9f6cbE.llvm.2618680253894991198', symObjAddr: 0x9250, symBinAddr: 0x8D670, symSize: 0x70 }
  - { offsetInCU: 0x2615B, offset: 0x228205, size: 0x8, addend: 0x0, symName: '__ZN4core3ptr45drop_in_place$LT$syn..generics..TypeParam$GT$17he5eda51070b7de47E.llvm.2618680253894991198', symObjAddr: 0x92C0, symBinAddr: 0x8D6E0, symSize: 0x230 }
  - { offsetInCU: 0x269A0, offset: 0x228A4A, size: 0x8, addend: 0x0, symName: '__ZN4core3ptr45drop_in_place$LT$syn..item..ImplItemConst$GT$17he90cac64fa027f09E', symObjAddr: 0x94F0, symBinAddr: 0x8D910, symSize: 0x200 }
  - { offsetInCU: 0x26FC6, offset: 0x229070, size: 0x8, addend: 0x0, symName: '__ZN4core3ptr45drop_in_place$LT$syn..item..TraitItemType$GT$17hec5203fd126d0733E', symObjAddr: 0x96F0, symBinAddr: 0x8DB10, symSize: 0x290 }
  - { offsetInCU: 0x278D7, offset: 0x229981, size: 0x8, addend: 0x0, symName: '__ZN4core3ptr46drop_in_place$LT$$u5b$syn..stmt..Stmt$u5d$$GT$17h0a8006ae14c66d0fE.llvm.2618680253894991198', symObjAddr: 0x9980, symBinAddr: 0x8DDA0, symSize: 0x2F0 }
  - { offsetInCU: 0x27F09, offset: 0x229FB3, size: 0x8, addend: 0x0, symName: '__ZN4core3ptr46drop_in_place$LT$syn..generics..ConstParam$GT$17hab0a58c4af8c549cE.llvm.2618680253894991198', symObjAddr: 0x9C70, symBinAddr: 0x8E090, symSize: 0x150 }
  - { offsetInCU: 0x2830A, offset: 0x22A3B4, size: 0x8, addend: 0x0, symName: '__ZN4core3ptr46drop_in_place$LT$syn..item..TraitItemConst$GT$17h93b00edde47e0b07E', symObjAddr: 0x9DC0, symBinAddr: 0x8E1E0, symSize: 0x1A0 }
  - { offsetInCU: 0x287BE, offset: 0x22A868, size: 0x8, addend: 0x0, symName: '__ZN4core3ptr47drop_in_place$LT$syn..generics..WhereClause$GT$17h8d71cc7a854160ddE', symObjAddr: 0x9F60, symBinAddr: 0x8E380, symSize: 0x120 }
  - { offsetInCU: 0x28C08, offset: 0x22ACB2, size: 0x8, addend: 0x0, symName: '__ZN4core3ptr47drop_in_place$LT$syn..item..ForeignItemType$GT$17ha1c97c43a7eb44cfE', symObjAddr: 0xA080, symBinAddr: 0x8E4A0, symSize: 0x1A0 }
  - { offsetInCU: 0x2924D, offset: 0x22B2F7, size: 0x8, addend: 0x0, symName: '__ZN4core3ptr47drop_in_place$LT$syn..path..GenericArgument$GT$17h54f8794633f96823E.llvm.2618680253894991198', symObjAddr: 0xA220, symBinAddr: 0x8E640, symSize: 0x1C0 }
  - { offsetInCU: 0x29700, offset: 0x22B7AA, size: 0x8, addend: 0x0, symName: '__ZN4core3ptr48drop_in_place$LT$syn..generics..GenericParam$GT$17h9c895978ef08f584E.llvm.2618680253894991198', symObjAddr: 0xA3E0, symBinAddr: 0x8E800, symSize: 0x150 }
  - { offsetInCU: 0x29AF2, offset: 0x22BB9C, size: 0x8, addend: 0x0, symName: '__ZN4core3ptr49drop_in_place$LT$syn..generics..LifetimeParam$GT$17h41a7c7a290ea6289E.llvm.2618680253894991198', symObjAddr: 0xA530, symBinAddr: 0x8E950, symSize: 0xF0 }
  - { offsetInCU: 0x29ECD, offset: 0x22BF77, size: 0x8, addend: 0x0, symName: '__ZN4core3ptr49drop_in_place$LT$syn..generics..PredicateType$GT$17hf38482bec426e936E.llvm.2618680253894991198', symObjAddr: 0xA620, symBinAddr: 0x8EA40, symSize: 0x170 }
  - { offsetInCU: 0x2A349, offset: 0x22C3F3, size: 0x8, addend: 0x0, symName: '__ZN4core3ptr49drop_in_place$LT$syn..item..ForeignItemStatic$GT$17h7f3c810db69ed760E', symObjAddr: 0xA790, symBinAddr: 0x8EBB0, symSize: 0x180 }
  - { offsetInCU: 0x2AA22, offset: 0x22CACC, size: 0x8, addend: 0x0, symName: '__ZN4core3ptr50drop_in_place$LT$$u5b$syn..item..ImplItem$u5d$$GT$17haee7878761be0217E.llvm.2618680253894991198', symObjAddr: 0xA910, symBinAddr: 0x8ED30, symSize: 0x230 }
  - { offsetInCU: 0x2AD4A, offset: 0x22CDF4, size: 0x8, addend: 0x0, symName: '__ZN4core3ptr50drop_in_place$LT$syn..generics..TypeParamBound$GT$17hcd7771d4c6c221efE.llvm.2618680253894991198', symObjAddr: 0xAB40, symBinAddr: 0x8EF60, symSize: 0xA0 }
  - { offsetInCU: 0x2AED0, offset: 0x22CF7A, size: 0x8, addend: 0x0, symName: '__ZN4core3ptr50drop_in_place$LT$syn..generics..WherePredicate$GT$17h1a9d05bc1beb1d91E.llvm.2618680253894991198', symObjAddr: 0xABE0, symBinAddr: 0x8F000, symSize: 0xA0 }
  - { offsetInCU: 0x2B07D, offset: 0x22D127, size: 0x8, addend: 0x0, symName: '__ZN4core3ptr51drop_in_place$LT$$u5b$syn..item..TraitItem$u5d$$GT$17h64a6457ddfeb24d5E.llvm.2618680253894991198', symObjAddr: 0xAC80, symBinAddr: 0x8F0A0, symSize: 0x3F0 }
  - { offsetInCU: 0x2B8D5, offset: 0x22D97F, size: 0x8, addend: 0x0, symName: '__ZN4core3ptr52drop_in_place$LT$syn..restriction..VisRestricted$GT$17h7de420d0018508c5E', symObjAddr: 0xB070, symBinAddr: 0x8F490, symSize: 0x50 }
  - { offsetInCU: 0x2BA6E, offset: 0x22DB18, size: 0x8, addend: 0x0, symName: '__ZN4core3ptr53drop_in_place$LT$$u5b$syn..item..ForeignItem$u5d$$GT$17h0fb84ff15c76ad7aE.llvm.2618680253894991198', symObjAddr: 0xB0C0, symBinAddr: 0x8F4E0, symSize: 0x360 }
  - { offsetInCU: 0x2C1EC, offset: 0x22E296, size: 0x8, addend: 0x0, symName: '__ZN4core3ptr58drop_in_place$LT$alloc..vec..Vec$LT$syn..expr..Arm$GT$$GT$17h1a55df3d2cba1daaE', symObjAddr: 0xB420, symBinAddr: 0x8F840, symSize: 0xD0 }
  - { offsetInCU: 0x2C479, offset: 0x22E523, size: 0x8, addend: 0x0, symName: '__ZN4core3ptr59drop_in_place$LT$alloc..boxed..Box$LT$syn..pat..Pat$GT$$GT$17h563b135d87aca8abE.llvm.2618680253894991198', symObjAddr: 0xB4F0, symBinAddr: 0x8F910, symSize: 0x50 }
  - { offsetInCU: 0x2C5D4, offset: 0x22E67E, size: 0x8, addend: 0x0, symName: '__ZN4core3ptr59drop_in_place$LT$alloc..boxed..Box$LT$syn..ty..Type$GT$$GT$17hffed36bad83adacbE.llvm.2618680253894991198', symObjAddr: 0xB540, symBinAddr: 0x8F960, symSize: 0x50 }
  - { offsetInCU: 0x2C72F, offset: 0x22E7D9, size: 0x8, addend: 0x0, symName: '__ZN4core3ptr59drop_in_place$LT$alloc..vec..Vec$LT$syn..item..Item$GT$$GT$17hf874c2ed1282c93cE', symObjAddr: 0xB590, symBinAddr: 0x8F9B0, symSize: 0xD0 }
  - { offsetInCU: 0x2C9BC, offset: 0x22EA66, size: 0x8, addend: 0x0, symName: '__ZN4core3ptr59drop_in_place$LT$alloc..vec..Vec$LT$syn..stmt..Stmt$GT$$GT$17hb5c1acf3c61c43e2E', symObjAddr: 0xB660, symBinAddr: 0x8FA80, symSize: 0x80 }
  - { offsetInCU: 0x2CC3A, offset: 0x22ECE4, size: 0x8, addend: 0x0, symName: '__ZN4core3ptr61drop_in_place$LT$alloc..boxed..Box$LT$syn..expr..Expr$GT$$GT$17h01091e47f131475dE', symObjAddr: 0xB6E0, symBinAddr: 0x8FB00, symSize: 0x50 }
  - { offsetInCU: 0x2CD95, offset: 0x22EE3F, size: 0x8, addend: 0x0, symName: '__ZN4core3ptr61drop_in_place$LT$alloc..boxed..Box$LT$syn..path..Path$GT$$GT$17ha58e58ae7c31ea61E', symObjAddr: 0xB730, symBinAddr: 0x8FB50, symSize: 0xF0 }
  - { offsetInCU: 0x2D27B, offset: 0x22F325, size: 0x8, addend: 0x0, symName: '__ZN4core3ptr61drop_in_place$LT$syn..path..ParenthesizedGenericArguments$GT$17h43d4aac5494326a7E.llvm.2618680253894991198', symObjAddr: 0xB820, symBinAddr: 0x8FC40, symSize: 0x170 }
  - { offsetInCU: 0x2D842, offset: 0x22F8EC, size: 0x8, addend: 0x0, symName: '__ZN4core3ptr62drop_in_place$LT$alloc..boxed..Box$LT$syn..data..Field$GT$$GT$17hebc7cac3b74f311dE', symObjAddr: 0xB990, symBinAddr: 0x8FDB0, symSize: 0x50 }
  - { offsetInCU: 0x2D9BC, offset: 0x22FA66, size: 0x8, addend: 0x0, symName: '__ZN4core3ptr62drop_in_place$LT$alloc..boxed..Box$LT$syn..item..FnArg$GT$$GT$17hc527eff785dac3a2E', symObjAddr: 0xB9E0, symBinAddr: 0x8FE00, symSize: 0x60 }
  - { offsetInCU: 0x2DB34, offset: 0x22FBDE, size: 0x8, addend: 0x0, symName: '__ZN4core3ptr62drop_in_place$LT$alloc..boxed..Box$LT$syn..stmt..Block$GT$$GT$17h30434998ae0f12a8E', symObjAddr: 0xBA40, symBinAddr: 0x8FE60, symSize: 0xE0 }
  - { offsetInCU: 0x2DF53, offset: 0x22FFFD, size: 0x8, addend: 0x0, symName: '__ZN4core3ptr62drop_in_place$LT$alloc..vec..Vec$LT$syn..buffer..Entry$GT$$GT$17h73857e86c6f10397E.llvm.2618680253894991198', symObjAddr: 0xBB20, symBinAddr: 0x8FF40, symSize: 0xC0 }
  - { offsetInCU: 0x2E1F3, offset: 0x23029D, size: 0x8, addend: 0x0, symName: '__ZN4core3ptr62drop_in_place$LT$syn..path..AngleBracketedGenericArguments$GT$17hc5b69f68243636ddE.llvm.2618680253894991198', symObjAddr: 0xBBE0, symBinAddr: 0x90000, symSize: 0x120 }
  - { offsetInCU: 0x2E63D, offset: 0x2306E7, size: 0x8, addend: 0x0, symName: '__ZN4core3ptr63drop_in_place$LT$alloc..vec..Vec$LT$syn..item..ImplItem$GT$$GT$17hda9ba61cc1df3d0eE', symObjAddr: 0xBD00, symBinAddr: 0x90120, symSize: 0x80 }
  - { offsetInCU: 0x2E8BB, offset: 0x230965, size: 0x8, addend: 0x0, symName: '__ZN4core3ptr64drop_in_place$LT$alloc..boxed..Box$LT$syn..data..Variant$GT$$GT$17h4d6d609d76c77795E', symObjAddr: 0xBD80, symBinAddr: 0x901A0, symSize: 0x50 }
  - { offsetInCU: 0x2EA16, offset: 0x230AC0, size: 0x8, addend: 0x0, symName: '__ZN4core3ptr64drop_in_place$LT$alloc..boxed..Box$LT$syn..item..UseTree$GT$$GT$17he10cba0a4742709fE', symObjAddr: 0xBDD0, symBinAddr: 0x901F0, symSize: 0x50 }
  - { offsetInCU: 0x2EB90, offset: 0x230C3A, size: 0x8, addend: 0x0, symName: '__ZN4core3ptr64drop_in_place$LT$alloc..boxed..Box$LT$syn..pat..FieldPat$GT$$GT$17h4980b70a7597cc08E', symObjAddr: 0xBE20, symBinAddr: 0x90240, symSize: 0x140 }
  - { offsetInCU: 0x2F231, offset: 0x2312DB, size: 0x8, addend: 0x0, symName: '__ZN4core3ptr64drop_in_place$LT$alloc..boxed..Box$LT$syn..ty..BareFnArg$GT$$GT$17h8b34096c620314efE', symObjAddr: 0xBF60, symBinAddr: 0x90380, symSize: 0x140 }
  - { offsetInCU: 0x2F789, offset: 0x231833, size: 0x8, addend: 0x0, symName: '__ZN4core3ptr64drop_in_place$LT$alloc..vec..Vec$LT$syn..attr..Attribute$GT$$GT$17h3c8f2a04e701c675E', symObjAddr: 0xC0A0, symBinAddr: 0x904C0, symSize: 0xD0 }
  - { offsetInCU: 0x2FA4A, offset: 0x231AF4, size: 0x8, addend: 0x0, symName: '__ZN4core3ptr64drop_in_place$LT$alloc..vec..Vec$LT$syn..item..TraitItem$GT$$GT$17h60eb4b8666c57b93E', symObjAddr: 0xC170, symBinAddr: 0x90590, symSize: 0x80 }
  - { offsetInCU: 0x2FCC8, offset: 0x231D72, size: 0x8, addend: 0x0, symName: '__ZN4core3ptr65drop_in_place$LT$$LP$syn..item..FnArg$C$syn..token..Comma$RP$$GT$17hc164d69e1fc45771E.llvm.2618680253894991198', symObjAddr: 0xC1F0, symBinAddr: 0x90610, symSize: 0x20 }
  - { offsetInCU: 0x2FD61, offset: 0x231E0B, size: 0x8, addend: 0x0, symName: '__ZN4core3ptr65drop_in_place$LT$alloc..vec..Vec$LT$proc_macro..TokenTree$GT$$GT$17h408088468d073beeE.llvm.2618680253894991198', symObjAddr: 0xC210, symBinAddr: 0x90630, symSize: 0x120 }
  - { offsetInCU: 0x300D3, offset: 0x23217D, size: 0x8, addend: 0x0, symName: '__ZN4core3ptr65drop_in_place$LT$core..option..Option$LT$syn..expr..Label$GT$$GT$17h78189e72a8cb7951E', symObjAddr: 0xC330, symBinAddr: 0x90750, symSize: 0x30 }
  - { offsetInCU: 0x3020E, offset: 0x2322B8, size: 0x8, addend: 0x0, symName: '__ZN4core3ptr65drop_in_place$LT$core..option..Option$LT$syn..stmt..Block$GT$$GT$17h7d9c0a54a580a160E', symObjAddr: 0xC360, symBinAddr: 0x90780, symSize: 0xE0 }
  - { offsetInCU: 0x30473, offset: 0x23251D, size: 0x8, addend: 0x0, symName: '__ZN4core3ptr66drop_in_place$LT$alloc..vec..Vec$LT$syn..item..ForeignItem$GT$$GT$17h3e58b8e683c84cf4E', symObjAddr: 0xC440, symBinAddr: 0x90860, symSize: 0x80 }
  - { offsetInCU: 0x306F1, offset: 0x23279B, size: 0x8, addend: 0x0, symName: '__ZN4core3ptr67drop_in_place$LT$$LP$syn..pat..FieldPat$C$syn..token..Comma$RP$$GT$17h85e934ef4c19bf0fE.llvm.2618680253894991198', symObjAddr: 0xC4C0, symBinAddr: 0x908E0, symSize: 0x130 }
  - { offsetInCU: 0x30C5B, offset: 0x232D05, size: 0x8, addend: 0x0, symName: '__ZN4core3ptr67drop_in_place$LT$$LP$syn..ty..BareFnArg$C$syn..token..Comma$RP$$GT$17hd93958865c964865E.llvm.2618680253894991198', symObjAddr: 0xC5F0, symBinAddr: 0x90A10, symSize: 0x110 }
  - { offsetInCU: 0x310AC, offset: 0x233156, size: 0x8, addend: 0x0, symName: '__ZN4core3ptr67drop_in_place$LT$alloc..boxed..Box$LT$syn..expr..FieldValue$GT$$GT$17h93aaccf8aa22ef88E', symObjAddr: 0xC700, symBinAddr: 0x90B20, symSize: 0x140 }
  - { offsetInCU: 0x315E4, offset: 0x23368E, size: 0x8, addend: 0x0, symName: '__ZN4core3ptr68drop_in_place$LT$alloc..boxed..Box$LT$syn..path..PathSegment$GT$$GT$17h709dabdc13b58a71E', symObjAddr: 0xC840, symBinAddr: 0x90C60, symSize: 0xD0 }
  - { offsetInCU: 0x319E2, offset: 0x233A8C, size: 0x8, addend: 0x0, symName: '__ZN4core3ptr69drop_in_place$LT$core..option..Option$LT$syn..stmt..LocalInit$GT$$GT$17h7427177b3fce4dc2E', symObjAddr: 0xC910, symBinAddr: 0x90D30, symSize: 0xC0 }
  - { offsetInCU: 0x31D0A, offset: 0x233DB4, size: 0x8, addend: 0x0, symName: '__ZN4core3ptr70drop_in_place$LT$$LP$syn..expr..FieldValue$C$syn..token..Comma$RP$$GT$17h490c542958e56dacE.llvm.2618680253894991198', symObjAddr: 0xC9D0, symBinAddr: 0x90DF0, symSize: 0x110 }
  - { offsetInCU: 0x3211C, offset: 0x2341C6, size: 0x8, addend: 0x0, symName: '__ZN4core3ptr70drop_in_place$LT$core..option..Option$LT$syn..ty..BareVariadic$GT$$GT$17h45399348ea4b8d55E', symObjAddr: 0xCAE0, symBinAddr: 0x90F00, symSize: 0x100 }
  - { offsetInCU: 0x3254C, offset: 0x2345F6, size: 0x8, addend: 0x0, symName: '__ZN4core3ptr72drop_in_place$LT$alloc..boxed..Box$LT$syn..path..GenericArgument$GT$$GT$17haa7dd8b716637b54E.llvm.2618680253894991198', symObjAddr: 0xCBE0, symBinAddr: 0x91000, symSize: 0x180 }
  - { offsetInCU: 0x32A21, offset: 0x234ACB, size: 0x8, addend: 0x0, symName: '__ZN4core3ptr73drop_in_place$LT$$LP$syn..path..PathSegment$C$syn..token..PathSep$RP$$GT$17hf7a8dbee7b1b25c8E.llvm.2618680253894991198', symObjAddr: 0xCD60, symBinAddr: 0x91180, symSize: 0xC0 }
  - { offsetInCU: 0x32CE7, offset: 0x234D91, size: 0x8, addend: 0x0, symName: '__ZN4core3ptr73drop_in_place$LT$alloc..boxed..Box$LT$syn..generics..GenericParam$GT$$GT$17hf6951dcd5ae07324E', symObjAddr: 0xCE20, symBinAddr: 0x91240, symSize: 0x80 }
  - { offsetInCU: 0x32E5F, offset: 0x234F09, size: 0x8, addend: 0x0, symName: '__ZN4core3ptr75drop_in_place$LT$$LP$syn..path..GenericArgument$C$syn..token..Comma$RP$$GT$17h3ba8f36bbe154baeE.llvm.2618680253894991198', symObjAddr: 0xCEA0, symBinAddr: 0x912C0, symSize: 0x180 }
  - { offsetInCU: 0x331E7, offset: 0x235291, size: 0x8, addend: 0x0, symName: '__ZN4core3ptr75drop_in_place$LT$alloc..boxed..Box$LT$syn..generics..TypeParamBound$GT$$GT$17he61c00698a311a34E', symObjAddr: 0xD020, symBinAddr: 0x91440, symSize: 0x160 }
  - { offsetInCU: 0x33784, offset: 0x23582E, size: 0x8, addend: 0x0, symName: '__ZN4core3ptr75drop_in_place$LT$alloc..boxed..Box$LT$syn..generics..WherePredicate$GT$$GT$17hb3c3f96fc44a9b07E', symObjAddr: 0xD180, symBinAddr: 0x915A0, symSize: 0x80 }
  - { offsetInCU: 0x33A1A, offset: 0x235AC4, size: 0x8, addend: 0x0, symName: '__ZN4core3ptr76drop_in_place$LT$$LP$syn..generics..GenericParam$C$syn..token..Comma$RP$$GT$17hadd4ee9dc4c521adE.llvm.2618680253894991198', symObjAddr: 0xD200, symBinAddr: 0x91620, symSize: 0x40 }
  - { offsetInCU: 0x33A56, offset: 0x235B00, size: 0x8, addend: 0x0, symName: '__ZN4core3ptr77drop_in_place$LT$$LP$syn..generics..TypeParamBound$C$syn..token..Plus$RP$$GT$17h74b4a4238bdefe04E.llvm.2618680253894991198', symObjAddr: 0xD240, symBinAddr: 0x91660, symSize: 0x160 }
  - { offsetInCU: 0x33EC1, offset: 0x235F6B, size: 0x8, addend: 0x0, symName: '__ZN4core3ptr78drop_in_place$LT$$LP$syn..generics..WherePredicate$C$syn..token..Comma$RP$$GT$17h53972732bf2fc9faE.llvm.2618680253894991198', symObjAddr: 0xD3A0, symBinAddr: 0x917C0, symSize: 0x50 }
  - { offsetInCU: 0x3401B, offset: 0x2360C5, size: 0x8, addend: 0x0, symName: '__ZN4core3ptr86drop_in_place$LT$$LP$syn..token..If$C$alloc..boxed..Box$LT$syn..expr..Expr$GT$$RP$$GT$17h2caf60ff8122e91dE', symObjAddr: 0xD3F0, symBinAddr: 0x91810, symSize: 0x50 }
  - { offsetInCU: 0x34230, offset: 0x2362DA, size: 0x8, addend: 0x0, symName: '__ZN4core3ptr86drop_in_place$LT$syn..punctuated..Punctuated$LT$syn..pat..Pat$C$syn..token..Or$GT$$GT$17h8e9173df21a44316E', symObjAddr: 0xD440, symBinAddr: 0x91860, symSize: 0x120 }
  - { offsetInCU: 0x3468D, offset: 0x236737, size: 0x8, addend: 0x0, symName: '__ZN4core3ptr87drop_in_place$LT$$LP$alloc..boxed..Box$LT$syn..pat..Pat$GT$$C$syn..token..Colon$RP$$GT$17hf8324c490b9b3095E', symObjAddr: 0xD560, symBinAddr: 0x91980, symSize: 0x50 }
  - { offsetInCU: 0x34807, offset: 0x2368B1, size: 0x8, addend: 0x0, symName: '__ZN4core3ptr87drop_in_place$LT$core..option..Option$LT$alloc..boxed..Box$LT$syn..ty..Type$GT$$GT$$GT$17hd74f5d971aec2972E', symObjAddr: 0xD5B0, symBinAddr: 0x919D0, symSize: 0x50 }
  - { offsetInCU: 0x34979, offset: 0x236A23, size: 0x8, addend: 0x0, symName: '__ZN4core3ptr89drop_in_place$LT$core..option..Option$LT$alloc..boxed..Box$LT$syn..expr..Expr$GT$$GT$$GT$17h8e135ac1a25a2dc5E', symObjAddr: 0xD600, symBinAddr: 0x91A20, symSize: 0x50 }
  - { offsetInCU: 0x34AEB, offset: 0x236B95, size: 0x8, addend: 0x0, symName: '__ZN4core3ptr89drop_in_place$LT$syn..punctuated..Punctuated$LT$syn..ty..Type$C$syn..token..Comma$GT$$GT$17ha919b3114742fb9dE.llvm.2618680253894991198', symObjAddr: 0xD650, symBinAddr: 0x91A70, symSize: 0x120 }
  - { offsetInCU: 0x34F35, offset: 0x236FDF, size: 0x8, addend: 0x0, symName: '__ZN4core3ptr90drop_in_place$LT$core..option..Option$LT$alloc..boxed..Box$LT$syn..data..Field$GT$$GT$$GT$17h326c39537b0fcc46E', symObjAddr: 0xD770, symBinAddr: 0x91B90, symSize: 0x50 }
  - { offsetInCU: 0x350A7, offset: 0x237151, size: 0x8, addend: 0x0, symName: '__ZN4core3ptr90drop_in_place$LT$core..option..Option$LT$alloc..boxed..Box$LT$syn..item..FnArg$GT$$GT$$GT$17hbae3fdd388277508E', symObjAddr: 0xD7C0, symBinAddr: 0x91BE0, symSize: 0x50 }
  - { offsetInCU: 0x35295, offset: 0x23733F, size: 0x8, addend: 0x0, symName: '__ZN4core3ptr91drop_in_place$LT$syn..punctuated..Punctuated$LT$syn..expr..Expr$C$syn..token..Comma$GT$$GT$17h4f39b83dc86a4159E', symObjAddr: 0xD810, symBinAddr: 0x91C30, symSize: 0x120 }
  - { offsetInCU: 0x356F2, offset: 0x23779C, size: 0x8, addend: 0x0, symName: '__ZN4core3ptr92drop_in_place$LT$core..option..Option$LT$$LP$syn..token..As$C$proc_macro2..Ident$RP$$GT$$GT$17h5c1a47ccb35d9d7eE', symObjAddr: 0xD930, symBinAddr: 0x91D50, symSize: 0x30 }
  - { offsetInCU: 0x3580E, offset: 0x2378B8, size: 0x8, addend: 0x0, symName: '__ZN4core3ptr92drop_in_place$LT$syn..punctuated..Punctuated$LT$syn..data..Field$C$syn..token..Comma$GT$$GT$17hca76f5e010a141e5E', symObjAddr: 0xD960, symBinAddr: 0x91D80, symSize: 0x120 }
  - { offsetInCU: 0x35C58, offset: 0x237D02, size: 0x8, addend: 0x0, symName: '__ZN4core3ptr92drop_in_place$LT$syn..punctuated..Punctuated$LT$syn..item..FnArg$C$syn..token..Comma$GT$$GT$17h75db9d232662c7d3E', symObjAddr: 0xDA80, symBinAddr: 0x91EA0, symSize: 0x150 }
  - { offsetInCU: 0x3616D, offset: 0x238217, size: 0x8, addend: 0x0, symName: '__ZN4core3ptr94drop_in_place$LT$syn..punctuated..Punctuated$LT$syn..data..Variant$C$syn..token..Comma$GT$$GT$17ha69d7e675441c7e2E', symObjAddr: 0xDBD0, symBinAddr: 0x91FF0, symSize: 0x120 }
  - { offsetInCU: 0x36646, offset: 0x2386F0, size: 0x8, addend: 0x0, symName: '__ZN4core3ptr94drop_in_place$LT$syn..punctuated..Punctuated$LT$syn..pat..FieldPat$C$syn..token..Comma$GT$$GT$17h112950ea198c8281E', symObjAddr: 0xDCF0, symBinAddr: 0x92110, symSize: 0xF0 }
  - { offsetInCU: 0x3699F, offset: 0x238A49, size: 0x8, addend: 0x0, symName: '__ZN4core3ptr94drop_in_place$LT$syn..punctuated..Punctuated$LT$syn..ty..BareFnArg$C$syn..token..Comma$GT$$GT$17h1c7b44310f06243dE', symObjAddr: 0xDDE0, symBinAddr: 0x92200, symSize: 0xF0 }
  - { offsetInCU: 0x36C7C, offset: 0x238D26, size: 0x8, addend: 0x0, symName: '__ZN4core3ptr95drop_in_place$LT$core..option..Option$LT$$LP$proc_macro2..Ident$C$syn..token..Colon$RP$$GT$$GT$17ha744bf0f41959716E.llvm.2618680253894991198', symObjAddr: 0xDED0, symBinAddr: 0x922F0, symSize: 0x30 }
  - { offsetInCU: 0x36D98, offset: 0x238E42, size: 0x8, addend: 0x0, symName: '__ZN4core3ptr96drop_in_place$LT$core..option..Option$LT$alloc..boxed..Box$LT$syn..path..PathSegment$GT$$GT$$GT$17hb447d0f626c86a4eE.llvm.2618680253894991198', symObjAddr: 0xDF00, symBinAddr: 0x92320, symSize: 0x90 }
  - { offsetInCU: 0x370B5, offset: 0x23915F, size: 0x8, addend: 0x0, symName: '__ZN4core3ptr97drop_in_place$LT$syn..punctuated..Punctuated$LT$syn..expr..FieldValue$C$syn..token..Comma$GT$$GT$17h31b81f7462228dcbE', symObjAddr: 0xDFE0, symBinAddr: 0x923B0, symSize: 0xF0 }
  - { offsetInCU: 0x3742D, offset: 0x2394D7, size: 0x8, addend: 0x0, symName: '__ZN4core3ptr98drop_in_place$LT$syn..punctuated..Punctuated$LT$syn..lifetime..Lifetime$C$syn..token..Plus$GT$$GT$17h0f8fc5f20f465f47E.llvm.2618680253894991198', symObjAddr: 0xE0D0, symBinAddr: 0x924A0, symSize: 0xC0 }
  - { offsetInCU: 0x3EF66, offset: 0x241010, size: 0x8, addend: 0x0, symName: '__ZN136_$LT$alloc..vec..Vec$LT$T$C$A$GT$$u20$as$u20$alloc..vec..spec_extend..SpecExtend$LT$T$C$alloc..vec..into_iter..IntoIter$LT$T$GT$$GT$$GT$11spec_extend17hd3fd65d04ebffaa6E', symObjAddr: 0xE0, symBinAddr: 0x84580, symSize: 0xA0 }
  - { offsetInCU: 0x3F26A, offset: 0x241314, size: 0x8, addend: 0x0, symName: '__ZN97_$LT$alloc..vec..Vec$LT$T$C$A$GT$$u20$as$u20$alloc..vec..spec_extend..SpecExtend$LT$T$C$I$GT$$GT$11spec_extend17hd1980574a9ec2ab9E', symObjAddr: 0x13110, symBinAddr: 0x95B60, symSize: 0x100 }
  - { offsetInCU: 0x3F6C7, offset: 0x241771, size: 0x8, addend: 0x0, symName: '__ZN97_$LT$alloc..vec..Vec$LT$T$C$A$GT$$u20$as$u20$alloc..vec..spec_extend..SpecExtend$LT$T$C$I$GT$$GT$11spec_extend17he326d35e9b0b5779E', symObjAddr: 0x13210, symBinAddr: 0x95C60, symSize: 0x670 }
  - { offsetInCU: 0x425E5, offset: 0x24468F, size: 0x8, addend: 0x0, symName: '__ZN65_$LT$alloc..vec..Vec$LT$T$C$A$GT$$u20$as$u20$core..fmt..Debug$GT$3fmt17h3e19e46c95090761E', symObjAddr: 0xE580, symBinAddr: 0x925F0, symSize: 0x80 }
  - { offsetInCU: 0x42C65, offset: 0x244D0F, size: 0x8, addend: 0x0, symName: '__ZN70_$LT$alloc..vec..Vec$LT$T$C$A$GT$$u20$as$u20$core..ops..drop..Drop$GT$4drop17ha1c46ee356be7175E', symObjAddr: 0x12530, symBinAddr: 0x95870, symSize: 0x80 }
  - { offsetInCU: 0x42CEF, offset: 0x244D99, size: 0x8, addend: 0x0, symName: '__ZN70_$LT$alloc..vec..Vec$LT$T$C$A$GT$$u20$as$u20$core..ops..drop..Drop$GT$4drop17haac0f2ead37a83a5E', symObjAddr: 0x125B0, symBinAddr: 0x958F0, symSize: 0xB0 }
  - { offsetInCU: 0x42D51, offset: 0x244DFB, size: 0x8, addend: 0x0, symName: '__ZN70_$LT$alloc..vec..Vec$LT$T$C$A$GT$$u20$as$u20$core..ops..drop..Drop$GT$4drop17hb96511c1410270f4E', symObjAddr: 0x12780, symBinAddr: 0x959A0, symSize: 0xB0 }
  - { offsetInCU: 0x42ECD, offset: 0x244F77, size: 0x8, addend: 0x0, symName: '__ZN70_$LT$alloc..vec..Vec$LT$T$C$A$GT$$u20$as$u20$core..ops..drop..Drop$GT$4drop17hd1322190145f035dE', symObjAddr: 0x12930, symBinAddr: 0x95A50, symSize: 0x90 }
  - { offsetInCU: 0x42FD3, offset: 0x24507D, size: 0x8, addend: 0x0, symName: '__ZN70_$LT$alloc..vec..Vec$LT$T$C$A$GT$$u20$as$u20$core..ops..drop..Drop$GT$4drop17hfddea9c8473ad6f6E', symObjAddr: 0x12C30, symBinAddr: 0x95AE0, symSize: 0x80 }
  - { offsetInCU: 0x4317E, offset: 0x245228, size: 0x8, addend: 0x0, symName: '__ZN67_$LT$alloc..vec..Vec$LT$T$C$A$GT$$u20$as$u20$core..clone..Clone$GT$5clone17h05b7397ccb30c76cE', symObjAddr: 0xE970, symBinAddr: 0x92670, symSize: 0x1A0 }
  - { offsetInCU: 0x436B0, offset: 0x24575A, size: 0x8, addend: 0x0, symName: '__ZN67_$LT$alloc..vec..Vec$LT$T$C$A$GT$$u20$as$u20$core..clone..Clone$GT$5clone17h1811a554b8ce3b81E', symObjAddr: 0xEB10, symBinAddr: 0x92810, symSize: 0x160 }
  - { offsetInCU: 0x43BDD, offset: 0x245C87, size: 0x8, addend: 0x0, symName: '__ZN67_$LT$alloc..vec..Vec$LT$T$C$A$GT$$u20$as$u20$core..clone..Clone$GT$5clone17h1da16863059762f6E', symObjAddr: 0xEC70, symBinAddr: 0x92970, symSize: 0x1A0 }
  - { offsetInCU: 0x44184, offset: 0x24622E, size: 0x8, addend: 0x0, symName: '__ZN67_$LT$alloc..vec..Vec$LT$T$C$A$GT$$u20$as$u20$core..clone..Clone$GT$5clone17h200e40873706a1b4E', symObjAddr: 0xEE10, symBinAddr: 0x92B10, symSize: 0x1B0 }
  - { offsetInCU: 0x4475F, offset: 0x246809, size: 0x8, addend: 0x0, symName: '__ZN67_$LT$alloc..vec..Vec$LT$T$C$A$GT$$u20$as$u20$core..clone..Clone$GT$5clone17h24997e572bc498a7E', symObjAddr: 0xEFC0, symBinAddr: 0x92CC0, symSize: 0x390 }
  - { offsetInCU: 0x45336, offset: 0x2473E0, size: 0x8, addend: 0x0, symName: '__ZN67_$LT$alloc..vec..Vec$LT$T$C$A$GT$$u20$as$u20$core..clone..Clone$GT$5clone17h25ea0f3dfced4ea5E', symObjAddr: 0xF350, symBinAddr: 0x93050, symSize: 0x160 }
  - { offsetInCU: 0x45863, offset: 0x24790D, size: 0x8, addend: 0x0, symName: '__ZN67_$LT$alloc..vec..Vec$LT$T$C$A$GT$$u20$as$u20$core..clone..Clone$GT$5clone17h27f26317d0097928E', symObjAddr: 0xF4B0, symBinAddr: 0x931B0, symSize: 0x1B0 }
  - { offsetInCU: 0x45E3E, offset: 0x247EE8, size: 0x8, addend: 0x0, symName: '__ZN67_$LT$alloc..vec..Vec$LT$T$C$A$GT$$u20$as$u20$core..clone..Clone$GT$5clone17h3929068158b0acf4E', symObjAddr: 0xF800, symBinAddr: 0x93360, symSize: 0x1A0 }
  - { offsetInCU: 0x46419, offset: 0x2484C3, size: 0x8, addend: 0x0, symName: '__ZN67_$LT$alloc..vec..Vec$LT$T$C$A$GT$$u20$as$u20$core..clone..Clone$GT$5clone17h50b260221468ddc9E', symObjAddr: 0xF9A0, symBinAddr: 0x93500, symSize: 0x1A0 }
  - { offsetInCU: 0x4694B, offset: 0x2489F5, size: 0x8, addend: 0x0, symName: '__ZN67_$LT$alloc..vec..Vec$LT$T$C$A$GT$$u20$as$u20$core..clone..Clone$GT$5clone17h5b4a01bd5f94dc2bE', symObjAddr: 0xFB40, symBinAddr: 0x936A0, symSize: 0x160 }
  - { offsetInCU: 0x46E78, offset: 0x248F22, size: 0x8, addend: 0x0, symName: '__ZN67_$LT$alloc..vec..Vec$LT$T$C$A$GT$$u20$as$u20$core..clone..Clone$GT$5clone17h6690eaf6cf776e41E', symObjAddr: 0xFCA0, symBinAddr: 0x93800, symSize: 0x190 }
  - { offsetInCU: 0x47453, offset: 0x2494FD, size: 0x8, addend: 0x0, symName: '__ZN67_$LT$alloc..vec..Vec$LT$T$C$A$GT$$u20$as$u20$core..clone..Clone$GT$5clone17h6e9705d9f6228ac2E', symObjAddr: 0xFE30, symBinAddr: 0x93990, symSize: 0x1A0 }
  - { offsetInCU: 0x47AEA, offset: 0x249B94, size: 0x8, addend: 0x0, symName: '__ZN67_$LT$alloc..vec..Vec$LT$T$C$A$GT$$u20$as$u20$core..clone..Clone$GT$5clone17h79b62d4fb82adf91E', symObjAddr: 0xFFD0, symBinAddr: 0x93B30, symSize: 0x1A0 }
  - { offsetInCU: 0x480C5, offset: 0x24A16F, size: 0x8, addend: 0x0, symName: '__ZN67_$LT$alloc..vec..Vec$LT$T$C$A$GT$$u20$as$u20$core..clone..Clone$GT$5clone17h817f6cb8c675423bE', symObjAddr: 0x10170, symBinAddr: 0x93CD0, symSize: 0x1B0 }
  - { offsetInCU: 0x486A0, offset: 0x24A74A, size: 0x8, addend: 0x0, symName: '__ZN67_$LT$alloc..vec..Vec$LT$T$C$A$GT$$u20$as$u20$core..clone..Clone$GT$5clone17h89b01632558f666bE', symObjAddr: 0x10320, symBinAddr: 0x93E80, symSize: 0x190 }
  - { offsetInCU: 0x48C46, offset: 0x24ACF0, size: 0x8, addend: 0x0, symName: '__ZN67_$LT$alloc..vec..Vec$LT$T$C$A$GT$$u20$as$u20$core..clone..Clone$GT$5clone17ha19e75129ceeddc0E', symObjAddr: 0x104B0, symBinAddr: 0x94010, symSize: 0x3C0 }
  - { offsetInCU: 0x494BC, offset: 0x24B566, size: 0x8, addend: 0x0, symName: '__ZN67_$LT$alloc..vec..Vec$LT$T$C$A$GT$$u20$as$u20$core..clone..Clone$GT$5clone17ha225f10e71280eb0E', symObjAddr: 0x10870, symBinAddr: 0x943D0, symSize: 0x300 }
  - { offsetInCU: 0x49AD7, offset: 0x24BB81, size: 0x8, addend: 0x0, symName: '__ZN67_$LT$alloc..vec..Vec$LT$T$C$A$GT$$u20$as$u20$core..clone..Clone$GT$5clone17had2181b83b268436E', symObjAddr: 0x10B70, symBinAddr: 0x946D0, symSize: 0x1B0 }
  - { offsetInCU: 0x4A07E, offset: 0x24C128, size: 0x8, addend: 0x0, symName: '__ZN67_$LT$alloc..vec..Vec$LT$T$C$A$GT$$u20$as$u20$core..clone..Clone$GT$5clone17hafb9d5c811cb80c1E', symObjAddr: 0x10D20, symBinAddr: 0x94880, symSize: 0x1B0 }
  - { offsetInCU: 0x4A659, offset: 0x24C703, size: 0x8, addend: 0x0, symName: '__ZN67_$LT$alloc..vec..Vec$LT$T$C$A$GT$$u20$as$u20$core..clone..Clone$GT$5clone17hb28dcdca734aa781E', symObjAddr: 0x10ED0, symBinAddr: 0x94A30, symSize: 0x2A0 }
  - { offsetInCU: 0x4AC8D, offset: 0x24CD37, size: 0x8, addend: 0x0, symName: '__ZN67_$LT$alloc..vec..Vec$LT$T$C$A$GT$$u20$as$u20$core..clone..Clone$GT$5clone17hc247a405aa44e689E', symObjAddr: 0x11170, symBinAddr: 0x94CD0, symSize: 0x210 }
  - { offsetInCU: 0x4B2D7, offset: 0x24D381, size: 0x8, addend: 0x0, symName: '__ZN67_$LT$alloc..vec..Vec$LT$T$C$A$GT$$u20$as$u20$core..clone..Clone$GT$5clone17hc4988e4008115670E', symObjAddr: 0x11380, symBinAddr: 0x94EE0, symSize: 0x2B0 }
  - { offsetInCU: 0x4B999, offset: 0x24DA43, size: 0x8, addend: 0x0, symName: '__ZN67_$LT$alloc..vec..Vec$LT$T$C$A$GT$$u20$as$u20$core..clone..Clone$GT$5clone17hc62fb47f99e4a4d9E', symObjAddr: 0x11630, symBinAddr: 0x95190, symSize: 0x1A0 }
  - { offsetInCU: 0x4BF74, offset: 0x24E01E, size: 0x8, addend: 0x0, symName: '__ZN67_$LT$alloc..vec..Vec$LT$T$C$A$GT$$u20$as$u20$core..clone..Clone$GT$5clone17hccc28fd2b23933f8E', symObjAddr: 0x117D0, symBinAddr: 0x95330, symSize: 0x250 }
  - { offsetInCU: 0x4C764, offset: 0x24E80E, size: 0x8, addend: 0x0, symName: '__ZN67_$LT$alloc..vec..Vec$LT$T$C$A$GT$$u20$as$u20$core..clone..Clone$GT$5clone17hf447c6066f04db4fE', symObjAddr: 0x11A20, symBinAddr: 0x95580, symSize: 0x160 }
  - { offsetInCU: 0x4CC91, offset: 0x24ED3B, size: 0x8, addend: 0x0, symName: '__ZN67_$LT$alloc..vec..Vec$LT$T$C$A$GT$$u20$as$u20$core..clone..Clone$GT$5clone17hffcb5f1b40cb5e9bE', symObjAddr: 0x11B80, symBinAddr: 0x956E0, symSize: 0x190 }
  - { offsetInCU: 0x5894E, offset: 0x25A9F8, size: 0x8, addend: 0x0, symName: '__ZN5alloc3vec16Vec$LT$T$C$A$GT$16into_boxed_slice17h024a9e1f6dd0eb78E', symObjAddr: 0xE190, symBinAddr: 0x92560, symSize: 0x90 }
  - { offsetInCU: 0x1E, offset: 0x2648A5, size: 0x8, addend: 0x0, symName: __ZN5alloc7raw_vec11finish_grow17h835635d1269408a0E.llvm.6325988268937029972, symObjAddr: 0x0, symBinAddr: 0x962D0, symSize: 0xA0 }
  - { offsetInCU: 0x67A3, offset: 0x26B02A, size: 0x8, addend: 0x0, symName: __ZN5alloc7raw_vec11finish_grow17h835635d1269408a0E.llvm.6325988268937029972, symObjAddr: 0x0, symBinAddr: 0x962D0, symSize: 0xA0 }
  - { offsetInCU: 0x8759, offset: 0x26CFE0, size: 0x8, addend: 0x0, symName: '__ZN5alloc7raw_vec19RawVec$LT$T$C$A$GT$7reserve21do_reserve_and_handle17h13c018c554f6abd0E', symObjAddr: 0x1FD0, symBinAddr: 0x1ED930, symSize: 0xC0 }
  - { offsetInCU: 0x8AAB, offset: 0x26D332, size: 0x8, addend: 0x0, symName: '__ZN5alloc7raw_vec19RawVec$LT$T$C$A$GT$7reserve21do_reserve_and_handle17h214494add848a148E', symObjAddr: 0x2090, symBinAddr: 0x1ED9F0, symSize: 0xC0 }
  - { offsetInCU: 0x8DFE, offset: 0x26D685, size: 0x8, addend: 0x0, symName: '__ZN5alloc7raw_vec19RawVec$LT$T$C$A$GT$7reserve21do_reserve_and_handle17h40bab3f670f64c67E', symObjAddr: 0x2150, symBinAddr: 0x1EDAB0, symSize: 0xC0 }
  - { offsetInCU: 0x9150, offset: 0x26D9D7, size: 0x8, addend: 0x0, symName: '__ZN5alloc7raw_vec19RawVec$LT$T$C$A$GT$7reserve21do_reserve_and_handle17h797428fa4f38120aE', symObjAddr: 0x23B0, symBinAddr: 0x1EDB70, symSize: 0xC0 }
  - { offsetInCU: 0x94A2, offset: 0x26DD29, size: 0x8, addend: 0x0, symName: '__ZN5alloc7raw_vec19RawVec$LT$T$C$A$GT$7reserve21do_reserve_and_handle17hd888e23e4c2bd144E', symObjAddr: 0x2470, symBinAddr: 0x1EDC30, symSize: 0xB0 }
  - { offsetInCU: 0x97E1, offset: 0x26E068, size: 0x8, addend: 0x0, symName: '__ZN77_$LT$alloc..raw_vec..RawVec$LT$T$C$A$GT$$u20$as$u20$core..ops..drop..Drop$GT$4drop17h0fe8dc95aa9e13e8E', symObjAddr: 0x2520, symBinAddr: 0x97610, symSize: 0x30 }
  - { offsetInCU: 0x98DE, offset: 0x26E165, size: 0x8, addend: 0x0, symName: '__ZN77_$LT$alloc..raw_vec..RawVec$LT$T$C$A$GT$$u20$as$u20$core..ops..drop..Drop$GT$4drop17h393fcfb678582e44E', symObjAddr: 0x25E0, symBinAddr: 0x97640, symSize: 0x30 }
  - { offsetInCU: 0x99DB, offset: 0x26E262, size: 0x8, addend: 0x0, symName: '__ZN77_$LT$alloc..raw_vec..RawVec$LT$T$C$A$GT$$u20$as$u20$core..ops..drop..Drop$GT$4drop17h39c2380cb3828205E', symObjAddr: 0x2610, symBinAddr: 0x97670, symSize: 0x30 }
  - { offsetInCU: 0x9AD8, offset: 0x26E35F, size: 0x8, addend: 0x0, symName: '__ZN77_$LT$alloc..raw_vec..RawVec$LT$T$C$A$GT$$u20$as$u20$core..ops..drop..Drop$GT$4drop17h3db54f5eb403cd2eE', symObjAddr: 0x2640, symBinAddr: 0x976A0, symSize: 0x0 }
  - { offsetInCU: 0x9BD5, offset: 0x26E45C, size: 0x8, addend: 0x0, symName: '__ZN77_$LT$alloc..raw_vec..RawVec$LT$T$C$A$GT$$u20$as$u20$core..ops..drop..Drop$GT$4drop17h48c1e075635f269fE', symObjAddr: 0x2690, symBinAddr: 0x976D0, symSize: 0x30 }
  - { offsetInCU: 0x9CD2, offset: 0x26E559, size: 0x8, addend: 0x0, symName: '__ZN77_$LT$alloc..raw_vec..RawVec$LT$T$C$A$GT$$u20$as$u20$core..ops..drop..Drop$GT$4drop17h4eece3816eced073E', symObjAddr: 0x26C0, symBinAddr: 0x97700, symSize: 0x30 }
  - { offsetInCU: 0x9DCF, offset: 0x26E656, size: 0x8, addend: 0x0, symName: '__ZN77_$LT$alloc..raw_vec..RawVec$LT$T$C$A$GT$$u20$as$u20$core..ops..drop..Drop$GT$4drop17h6c6fd9c116ad0c74E', symObjAddr: 0x2720, symBinAddr: 0x97730, symSize: 0x0 }
  - { offsetInCU: 0x9ECC, offset: 0x26E753, size: 0x8, addend: 0x0, symName: '__ZN77_$LT$alloc..raw_vec..RawVec$LT$T$C$A$GT$$u20$as$u20$core..ops..drop..Drop$GT$4drop17h72ca814e81ad633aE', symObjAddr: 0x2750, symBinAddr: 0x97760, symSize: 0x0 }
  - { offsetInCU: 0x9FC9, offset: 0x26E850, size: 0x8, addend: 0x0, symName: '__ZN77_$LT$alloc..raw_vec..RawVec$LT$T$C$A$GT$$u20$as$u20$core..ops..drop..Drop$GT$4drop17h72defe2c2e2b0835E', symObjAddr: 0x2780, symBinAddr: 0x97790, symSize: 0x0 }
  - { offsetInCU: 0xA0C6, offset: 0x26E94D, size: 0x8, addend: 0x0, symName: '__ZN77_$LT$alloc..raw_vec..RawVec$LT$T$C$A$GT$$u20$as$u20$core..ops..drop..Drop$GT$4drop17h92edcac5527d29cdE', symObjAddr: 0x27E0, symBinAddr: 0x977C0, symSize: 0x0 }
  - { offsetInCU: 0xA1C3, offset: 0x26EA4A, size: 0x8, addend: 0x0, symName: '__ZN77_$LT$alloc..raw_vec..RawVec$LT$T$C$A$GT$$u20$as$u20$core..ops..drop..Drop$GT$4drop17ha8195f03b235e910E', symObjAddr: 0x2810, symBinAddr: 0x977F0, symSize: 0x0 }
  - { offsetInCU: 0xA2C0, offset: 0x26EB47, size: 0x8, addend: 0x0, symName: '__ZN77_$LT$alloc..raw_vec..RawVec$LT$T$C$A$GT$$u20$as$u20$core..ops..drop..Drop$GT$4drop17hae00cf31628a68d6E', symObjAddr: 0x2840, symBinAddr: 0x97820, symSize: 0x30 }
  - { offsetInCU: 0xA3BD, offset: 0x26EC44, size: 0x8, addend: 0x0, symName: '__ZN77_$LT$alloc..raw_vec..RawVec$LT$T$C$A$GT$$u20$as$u20$core..ops..drop..Drop$GT$4drop17hb7ab512d33fb2a25E', symObjAddr: 0x2870, symBinAddr: 0x97850, symSize: 0x30 }
  - { offsetInCU: 0xA4BA, offset: 0x26ED41, size: 0x8, addend: 0x0, symName: '__ZN77_$LT$alloc..raw_vec..RawVec$LT$T$C$A$GT$$u20$as$u20$core..ops..drop..Drop$GT$4drop17hba0320ec2f949a38E', symObjAddr: 0x28A0, symBinAddr: 0x97880, symSize: 0x0 }
  - { offsetInCU: 0xA5B7, offset: 0x26EE3E, size: 0x8, addend: 0x0, symName: '__ZN77_$LT$alloc..raw_vec..RawVec$LT$T$C$A$GT$$u20$as$u20$core..ops..drop..Drop$GT$4drop17hd01e85aba88beac8E', symObjAddr: 0x28D0, symBinAddr: 0x978B0, symSize: 0x30 }
  - { offsetInCU: 0xA6B4, offset: 0x26EF3B, size: 0x8, addend: 0x0, symName: '__ZN77_$LT$alloc..raw_vec..RawVec$LT$T$C$A$GT$$u20$as$u20$core..ops..drop..Drop$GT$4drop17hed57f1d93ce81e98E', symObjAddr: 0x2960, symBinAddr: 0x978E0, symSize: 0x30 }
  - { offsetInCU: 0xA7B1, offset: 0x26F038, size: 0x8, addend: 0x0, symName: '__ZN77_$LT$alloc..raw_vec..RawVec$LT$T$C$A$GT$$u20$as$u20$core..ops..drop..Drop$GT$4drop17hf063a1d3cd3b3215E', symObjAddr: 0x2990, symBinAddr: 0x97910, symSize: 0x30 }
  - { offsetInCU: 0xA8AE, offset: 0x26F135, size: 0x8, addend: 0x0, symName: '__ZN77_$LT$alloc..raw_vec..RawVec$LT$T$C$A$GT$$u20$as$u20$core..ops..drop..Drop$GT$4drop17hf87d3254f6191322E', symObjAddr: 0x29C0, symBinAddr: 0x97940, symSize: 0x25 }
  - { offsetInCU: 0x1008D, offset: 0x274914, size: 0x8, addend: 0x0, symName: '__ZN5alloc7raw_vec19RawVec$LT$T$C$A$GT$11allocate_in17hb51eef22739192aaE', symObjAddr: 0x870, symBinAddr: 0x96370, symSize: 0x70 }
  - { offsetInCU: 0x10420, offset: 0x274CA7, size: 0x8, addend: 0x0, symName: '__ZN5alloc7raw_vec19RawVec$LT$T$C$A$GT$16reserve_for_push17h18e1051c99d90182E', symObjAddr: 0xBF0, symBinAddr: 0x963E0, symSize: 0xD0 }
  - { offsetInCU: 0x108E5, offset: 0x27516C, size: 0x8, addend: 0x0, symName: '__ZN5alloc7raw_vec19RawVec$LT$T$C$A$GT$16reserve_for_push17h1d32b4f94470160eE', symObjAddr: 0xCC0, symBinAddr: 0x964B0, symSize: 0x0 }
  - { offsetInCU: 0x10DA9, offset: 0x275630, size: 0x8, addend: 0x0, symName: '__ZN5alloc7raw_vec19RawVec$LT$T$C$A$GT$16reserve_for_push17h245cfb4a8257421aE', symObjAddr: 0xD80, symBinAddr: 0x96570, symSize: 0xD0 }
  - { offsetInCU: 0x1126E, offset: 0x275AF5, size: 0x8, addend: 0x0, symName: '__ZN5alloc7raw_vec19RawVec$LT$T$C$A$GT$16reserve_for_push17h296e58e879ed95bbE', symObjAddr: 0xE50, symBinAddr: 0x96640, symSize: 0xD0 }
  - { offsetInCU: 0x11733, offset: 0x275FBA, size: 0x8, addend: 0x0, symName: '__ZN5alloc7raw_vec19RawVec$LT$T$C$A$GT$16reserve_for_push17h2c8e6b8c8c6e5170E', symObjAddr: 0xF20, symBinAddr: 0x96710, symSize: 0xD0 }
  - { offsetInCU: 0x11BF8, offset: 0x27647F, size: 0x8, addend: 0x0, symName: '__ZN5alloc7raw_vec19RawVec$LT$T$C$A$GT$16reserve_for_push17h39c2ec84e943635aE', symObjAddr: 0xFF0, symBinAddr: 0x967E0, symSize: 0xD0 }
  - { offsetInCU: 0x120D1, offset: 0x276958, size: 0x8, addend: 0x0, symName: '__ZN5alloc7raw_vec19RawVec$LT$T$C$A$GT$16reserve_for_push17h41d82450e00eae77E', symObjAddr: 0x10C0, symBinAddr: 0x968B0, symSize: 0x0 }
  - { offsetInCU: 0x12595, offset: 0x276E1C, size: 0x8, addend: 0x0, symName: '__ZN5alloc7raw_vec19RawVec$LT$T$C$A$GT$16reserve_for_push17h4241d3651c582227E', symObjAddr: 0x1180, symBinAddr: 0x96970, symSize: 0x0 }
  - { offsetInCU: 0x12A5A, offset: 0x2772E1, size: 0x8, addend: 0x0, symName: '__ZN5alloc7raw_vec19RawVec$LT$T$C$A$GT$16reserve_for_push17h46a23222a4b20700E', symObjAddr: 0x1250, symBinAddr: 0x96A40, symSize: 0x0 }
  - { offsetInCU: 0x12F1F, offset: 0x2777A6, size: 0x8, addend: 0x0, symName: '__ZN5alloc7raw_vec19RawVec$LT$T$C$A$GT$16reserve_for_push17h52de2e841bbd4653E', symObjAddr: 0x1320, symBinAddr: 0x96B10, symSize: 0xD0 }
  - { offsetInCU: 0x133E4, offset: 0x277C6B, size: 0x8, addend: 0x0, symName: '__ZN5alloc7raw_vec19RawVec$LT$T$C$A$GT$16reserve_for_push17h5435f1226628b70cE', symObjAddr: 0x13F0, symBinAddr: 0x96BE0, symSize: 0xD0 }
  - { offsetInCU: 0x138A9, offset: 0x278130, size: 0x8, addend: 0x0, symName: '__ZN5alloc7raw_vec19RawVec$LT$T$C$A$GT$16reserve_for_push17h71935351b86bec57E', symObjAddr: 0x14C0, symBinAddr: 0x96CB0, symSize: 0xB0 }
  - { offsetInCU: 0x13D6D, offset: 0x2785F4, size: 0x8, addend: 0x0, symName: '__ZN5alloc7raw_vec19RawVec$LT$T$C$A$GT$16reserve_for_push17h770742f0033a3542E', symObjAddr: 0x1570, symBinAddr: 0x96D60, symSize: 0xC0 }
  - { offsetInCU: 0x14231, offset: 0x278AB8, size: 0x8, addend: 0x0, symName: '__ZN5alloc7raw_vec19RawVec$LT$T$C$A$GT$16reserve_for_push17h86f692456b543eb7E', symObjAddr: 0x1630, symBinAddr: 0x96E20, symSize: 0xC0 }
  - { offsetInCU: 0x146F6, offset: 0x278F7D, size: 0x8, addend: 0x0, symName: '__ZN5alloc7raw_vec19RawVec$LT$T$C$A$GT$16reserve_for_push17h878804b307f94982E', symObjAddr: 0x16F0, symBinAddr: 0x96EE0, symSize: 0xC0 }
  - { offsetInCU: 0x14BBB, offset: 0x279442, size: 0x8, addend: 0x0, symName: '__ZN5alloc7raw_vec19RawVec$LT$T$C$A$GT$16reserve_for_push17h889a33689b0264dfE', symObjAddr: 0x17B0, symBinAddr: 0x96FA0, symSize: 0xD0 }
  - { offsetInCU: 0x150AA, offset: 0x279931, size: 0x8, addend: 0x0, symName: '__ZN5alloc7raw_vec19RawVec$LT$T$C$A$GT$16reserve_for_push17h8eafba0cab3c2dcdE', symObjAddr: 0x1880, symBinAddr: 0x97070, symSize: 0xC0 }
  - { offsetInCU: 0x1556E, offset: 0x279DF5, size: 0x8, addend: 0x0, symName: '__ZN5alloc7raw_vec19RawVec$LT$T$C$A$GT$16reserve_for_push17h98c6de81c43255e3E', symObjAddr: 0x1940, symBinAddr: 0x97130, symSize: 0x0 }
  - { offsetInCU: 0x15A33, offset: 0x27A2BA, size: 0x8, addend: 0x0, symName: '__ZN5alloc7raw_vec19RawVec$LT$T$C$A$GT$16reserve_for_push17ha7ffa53757f2c194E', symObjAddr: 0x1A10, symBinAddr: 0x97200, symSize: 0xD0 }
  - { offsetInCU: 0x15EF8, offset: 0x27A77F, size: 0x8, addend: 0x0, symName: '__ZN5alloc7raw_vec19RawVec$LT$T$C$A$GT$16reserve_for_push17hbe43935ff1be244bE', symObjAddr: 0x1AE0, symBinAddr: 0x972D0, symSize: 0x0 }
  - { offsetInCU: 0x163BC, offset: 0x27AC43, size: 0x8, addend: 0x0, symName: '__ZN5alloc7raw_vec19RawVec$LT$T$C$A$GT$16reserve_for_push17hcca166daf631fbe0E', symObjAddr: 0x1BB0, symBinAddr: 0x973A0, symSize: 0xD0 }
  - { offsetInCU: 0x1688E, offset: 0x27B115, size: 0x8, addend: 0x0, symName: '__ZN5alloc7raw_vec19RawVec$LT$T$C$A$GT$16reserve_for_push17hd979c897ae7ef7edE', symObjAddr: 0x1C80, symBinAddr: 0x97470, symSize: 0xD0 }
  - { offsetInCU: 0x16D52, offset: 0x27B5D9, size: 0x8, addend: 0x0, symName: '__ZN5alloc7raw_vec19RawVec$LT$T$C$A$GT$16reserve_for_push17he5e22af04e3866afE', symObjAddr: 0x1D50, symBinAddr: 0x97540, symSize: 0xD0 }
  - { offsetInCU: 0x1E, offset: 0x27BDFE, size: 0x8, addend: 0x0, symName: '__ZN4core3ptr100drop_in_place$LT$core..option..Option$LT$alloc..boxed..Box$LT$syn..path..GenericArgument$GT$$GT$$GT$17h7435c9de74860622E', symObjAddr: 0x0, symBinAddr: 0x97970, symSize: 0x50 }
  - { offsetInCU: 0xB0, offset: 0x27BE90, size: 0x8, addend: 0x0, symName: '__ZN58_$LT$alloc..string..String$u20$as$u20$core..fmt..Write$GT$10write_char17hd329c0cb943f081aE', symObjAddr: 0x6FF0, symBinAddr: 0x9E960, symSize: 0x130 }
  - { offsetInCU: 0x457, offset: 0x27C237, size: 0x8, addend: 0x0, symName: '__ZN58_$LT$alloc..string..String$u20$as$u20$core..fmt..Write$GT$9write_str17h1ff5aa96ca91c6d5E', symObjAddr: 0x7120, symBinAddr: 0x9EA90, symSize: 0x60 }
  - { offsetInCU: 0x3433, offset: 0x27F213, size: 0x8, addend: 0x0, symName: '__ZN4core3ptr100drop_in_place$LT$core..option..Option$LT$alloc..boxed..Box$LT$syn..path..GenericArgument$GT$$GT$$GT$17h7435c9de74860622E', symObjAddr: 0x0, symBinAddr: 0x97970, symSize: 0x50 }
  - { offsetInCU: 0x3602, offset: 0x27F3E2, size: 0x8, addend: 0x0, symName: '__ZN4core3ptr102drop_in_place$LT$syn..punctuated..Punctuated$LT$syn..path..GenericArgument$C$syn..token..Comma$GT$$GT$17h39496ba4e6dba6cfE', symObjAddr: 0x50, symBinAddr: 0x979C0, symSize: 0xF0 }
  - { offsetInCU: 0x38EB, offset: 0x27F6CB, size: 0x8, addend: 0x0, symName: '__ZN4core3ptr103drop_in_place$LT$core..option..Option$LT$alloc..boxed..Box$LT$syn..generics..TypeParamBound$GT$$GT$$GT$17h5974f03e36b1a9c3E', symObjAddr: 0x140, symBinAddr: 0x97AB0, symSize: 0x50 }
  - { offsetInCU: 0x3AF8, offset: 0x27F8D8, size: 0x8, addend: 0x0, symName: '__ZN4core3ptr103drop_in_place$LT$syn..punctuated..Punctuated$LT$syn..generics..GenericParam$C$syn..token..Comma$GT$$GT$17hf42353fa44ed6da8E', symObjAddr: 0x190, symBinAddr: 0x97B00, symSize: 0xF0 }
  - { offsetInCU: 0x4094, offset: 0x27FE74, size: 0x8, addend: 0x0, symName: '__ZN4core3ptr104drop_in_place$LT$syn..punctuated..Punctuated$LT$syn..generics..TypeParamBound$C$syn..token..Plus$GT$$GT$17h532f52c4a894b056E', symObjAddr: 0x280, symBinAddr: 0x97BF0, symSize: 0x230 }
  - { offsetInCU: 0x4972, offset: 0x280752, size: 0x8, addend: 0x0, symName: '__ZN4core3ptr34drop_in_place$LT$syn..lit..Lit$GT$17h8902f5ff67917034E', symObjAddr: 0x4B0, symBinAddr: 0x97E20, symSize: 0x110 }
  - { offsetInCU: 0x4ECB, offset: 0x280CAB, size: 0x8, addend: 0x0, symName: '__ZN4core3ptr34drop_in_place$LT$syn..pat..Pat$GT$17h4581eea028ec0969E', symObjAddr: 0x5C0, symBinAddr: 0x97F30, symSize: 0xEE0 }
  - { offsetInCU: 0x851A, offset: 0x2842FA, size: 0x8, addend: 0x0, symName: '__ZN4core3ptr34drop_in_place$LT$syn..ty..Type$GT$17h369e41ad4a9f1ae0E', symObjAddr: 0x14A0, symBinAddr: 0x98E10, symSize: 0x5C0 }
  - { offsetInCU: 0x9D50, offset: 0x285B30, size: 0x8, addend: 0x0, symName: '__ZN4core3ptr36drop_in_place$LT$syn..expr..Expr$GT$17h0f7fd4c749bae801E.llvm.6085117338949153622', symObjAddr: 0x1A60, symBinAddr: 0x993D0, symSize: 0x2800 }
  - { offsetInCU: 0x12F2D, offset: 0x28ED0D, size: 0x8, addend: 0x0, symName: '__ZN4core3ptr36drop_in_place$LT$syn..mac..Macro$GT$17h4ffde962df30ebe2E', symObjAddr: 0x4260, symBinAddr: 0x9BBD0, symSize: 0xE0 }
  - { offsetInCU: 0x1329E, offset: 0x28F07E, size: 0x8, addend: 0x0, symName: '__ZN4core3ptr36drop_in_place$LT$syn..path..Path$GT$17habea856181211e1cE', symObjAddr: 0x4340, symBinAddr: 0x9BCB0, symSize: 0x220 }
  - { offsetInCU: 0x13BD3, offset: 0x28F9B3, size: 0x8, addend: 0x0, symName: '__ZN4core3ptr37drop_in_place$LT$core..fmt..Error$GT$17h8e130a2736288a98E', symObjAddr: 0x4560, symBinAddr: 0x9BED0, symSize: 0x10 }
  - { offsetInCU: 0x13BFF, offset: 0x28F9DF, size: 0x8, addend: 0x0, symName: '__ZN4core3ptr37drop_in_place$LT$syn..stmt..Block$GT$17hcc21a21cf949414cE', symObjAddr: 0x4570, symBinAddr: 0x9BEE0, symSize: 0xD0 }
  - { offsetInCU: 0x13EA3, offset: 0x28FC83, size: 0x8, addend: 0x0, symName: '__ZN4core3ptr38drop_in_place$LT$syn..expr..Member$GT$17h022cbe5553aa40faE', symObjAddr: 0x4640, symBinAddr: 0x9BFB0, symSize: 0x30 }
  - { offsetInCU: 0x1403B, offset: 0x28FE1B, size: 0x8, addend: 0x0, symName: '__ZN4core3ptr38drop_in_place$LT$syn..group..Group$GT$17hc3a29a397b30f633E', symObjAddr: 0x4670, symBinAddr: 0x9BFE0, symSize: 0x70 }
  - { offsetInCU: 0x14351, offset: 0x290131, size: 0x8, addend: 0x0, symName: '__ZN4core3ptr39drop_in_place$LT$proc_macro2..Ident$GT$17h8101e88c3ac359d6E', symObjAddr: 0x46E0, symBinAddr: 0x9C050, symSize: 0x30 }
  - { offsetInCU: 0x1446D, offset: 0x29024D, size: 0x8, addend: 0x0, symName: '__ZN4core3ptr39drop_in_place$LT$syn..lit..LitFloat$GT$17h58fbb0bf27438490E', symObjAddr: 0x4710, symBinAddr: 0x9C080, symSize: 0x70 }
  - { offsetInCU: 0x147ED, offset: 0x2905CD, size: 0x8, addend: 0x0, symName: '__ZN4core3ptr40drop_in_place$LT$syn..expr..ExprPath$GT$17h03786fb79b09c4c0E', symObjAddr: 0x4780, symBinAddr: 0x9C0F0, symSize: 0x110 }
  - { offsetInCU: 0x14BF7, offset: 0x2909D7, size: 0x8, addend: 0x0, symName: '__ZN4core3ptr40drop_in_place$LT$syn..ty..ReturnType$GT$17h02cf41e2fec63d90E', symObjAddr: 0x4890, symBinAddr: 0x9C200, symSize: 0x50 }
  - { offsetInCU: 0x14DC6, offset: 0x290BA6, size: 0x8, addend: 0x0, symName: '__ZN4core3ptr41drop_in_place$LT$syn..attr..Attribute$GT$17h6038ab1bc013504dE', symObjAddr: 0x48E0, symBinAddr: 0x9C250, symSize: 0xB0 }
  - { offsetInCU: 0x14E4B, offset: 0x290C2B, size: 0x8, addend: 0x0, symName: '__ZN4core3ptr41drop_in_place$LT$syn..expr..ExprConst$GT$17h725a13e551d9f276E', symObjAddr: 0x4990, symBinAddr: 0x9C300, symSize: 0x180 }
  - { offsetInCU: 0x153A0, offset: 0x291180, size: 0x8, addend: 0x0, symName: '__ZN4core3ptr42drop_in_place$LT$alloc..string..String$GT$17h781ac6273fa84cb0E', symObjAddr: 0x4B10, symBinAddr: 0x9C480, symSize: 0x20 }
  - { offsetInCU: 0x154A9, offset: 0x291289, size: 0x8, addend: 0x0, symName: '__ZN4core3ptr44drop_in_place$LT$syn..lifetime..Lifetime$GT$17hf0cdec2e9ec456d6E', symObjAddr: 0x4B30, symBinAddr: 0x9C4A0, symSize: 0x30 }
  - { offsetInCU: 0x155A6, offset: 0x291386, size: 0x8, addend: 0x0, symName: '__ZN4core3ptr44drop_in_place$LT$syn..parse..ParseBuffer$GT$17hd0dadba44a19aec2E', symObjAddr: 0x4B60, symBinAddr: 0x9C4D0, symSize: 0x70 }
  - { offsetInCU: 0x159DB, offset: 0x2917BB, size: 0x8, addend: 0x0, symName: '__ZN4core3ptr45drop_in_place$LT$proc_macro2..TokenStream$GT$17h3405f6c513e9f6cbE', symObjAddr: 0x4BD0, symBinAddr: 0x9C540, symSize: 0x140 }
  - { offsetInCU: 0x15E4A, offset: 0x291C2A, size: 0x8, addend: 0x0, symName: '__ZN4core3ptr45drop_in_place$LT$syn..generics..TypeParam$GT$17he5eda51070b7de47E', symObjAddr: 0x4D10, symBinAddr: 0x9C680, symSize: 0x230 }
  - { offsetInCU: 0x16646, offset: 0x292426, size: 0x8, addend: 0x0, symName: '__ZN4core3ptr46drop_in_place$LT$syn..generics..ConstParam$GT$17hab0a58c4af8c549cE', symObjAddr: 0x4F40, symBinAddr: 0x9C8B0, symSize: 0x150 }
  - { offsetInCU: 0x16A70, offset: 0x292850, size: 0x8, addend: 0x0, symName: '__ZN4core3ptr47drop_in_place$LT$syn..path..GenericArgument$GT$17h54f8794633f96823E', symObjAddr: 0x5090, symBinAddr: 0x9CA00, symSize: 0x460 }
  - { offsetInCU: 0x17779, offset: 0x293559, size: 0x8, addend: 0x0, symName: '__ZN4core3ptr49drop_in_place$LT$syn..generics..LifetimeParam$GT$17h41a7c7a290ea6289E', symObjAddr: 0x54F0, symBinAddr: 0x9CE60, symSize: 0xF0 }
  - { offsetInCU: 0x17B33, offset: 0x293913, size: 0x8, addend: 0x0, symName: '__ZN4core3ptr50drop_in_place$LT$syn..generics..TypeParamBound$GT$17hcd7771d4c6c221efE', symObjAddr: 0x55E0, symBinAddr: 0x9CF50, symSize: 0xA0 }
  - { offsetInCU: 0x17C9A, offset: 0x293A7A, size: 0x8, addend: 0x0, symName: '__ZN4core3ptr58drop_in_place$LT$alloc..vec..Vec$LT$syn..expr..Arm$GT$$GT$17h1a55df3d2cba1daaE', symObjAddr: 0x5680, symBinAddr: 0x9CFF0, symSize: 0xD0 }
  - { offsetInCU: 0x17F27, offset: 0x293D07, size: 0x8, addend: 0x0, symName: '__ZN4core3ptr59drop_in_place$LT$alloc..boxed..Box$LT$syn..pat..Pat$GT$$GT$17h563b135d87aca8abE', symObjAddr: 0x5750, symBinAddr: 0x9D0C0, symSize: 0x50 }
  - { offsetInCU: 0x18082, offset: 0x293E62, size: 0x8, addend: 0x0, symName: '__ZN4core3ptr59drop_in_place$LT$alloc..boxed..Box$LT$syn..ty..Type$GT$$GT$17hffed36bad83adacbE', symObjAddr: 0x57A0, symBinAddr: 0x9D110, symSize: 0x50 }
  - { offsetInCU: 0x181DD, offset: 0x293FBD, size: 0x8, addend: 0x0, symName: '__ZN4core3ptr61drop_in_place$LT$alloc..boxed..Box$LT$syn..expr..Expr$GT$$GT$17h01091e47f131475dE', symObjAddr: 0x57F0, symBinAddr: 0x9D160, symSize: 0x50 }
  - { offsetInCU: 0x18338, offset: 0x294118, size: 0x8, addend: 0x0, symName: '__ZN4core3ptr61drop_in_place$LT$syn..path..ParenthesizedGenericArguments$GT$17h43d4aac5494326a7E', symObjAddr: 0x5840, symBinAddr: 0x9D1B0, symSize: 0x170 }
  - { offsetInCU: 0x18912, offset: 0x2946F2, size: 0x8, addend: 0x0, symName: '__ZN4core3ptr63drop_in_place$LT$alloc..boxed..Box$LT$syn..lit..LitRepr$GT$$GT$17hd8839b7fb35ee7afE', symObjAddr: 0x59B0, symBinAddr: 0x9D320, symSize: 0x60 }
  - { offsetInCU: 0x18C07, offset: 0x2949E7, size: 0x8, addend: 0x0, symName: '__ZN4core3ptr64drop_in_place$LT$alloc..boxed..Box$LT$syn..pat..FieldPat$GT$$GT$17h4980b70a7597cc08E', symObjAddr: 0x5A10, symBinAddr: 0x9D380, symSize: 0x140 }
  - { offsetInCU: 0x192B2, offset: 0x295092, size: 0x8, addend: 0x0, symName: '__ZN4core3ptr64drop_in_place$LT$alloc..boxed..Box$LT$syn..ty..BareFnArg$GT$$GT$17h8b34096c620314efE', symObjAddr: 0x5B50, symBinAddr: 0x9D4C0, symSize: 0x140 }
  - { offsetInCU: 0x197D6, offset: 0x2955B6, size: 0x8, addend: 0x0, symName: '__ZN4core3ptr64drop_in_place$LT$alloc..vec..Vec$LT$syn..attr..Attribute$GT$$GT$17h3c8f2a04e701c675E.llvm.6085117338949153622', symObjAddr: 0x5C90, symBinAddr: 0x9D600, symSize: 0xD0 }
  - { offsetInCU: 0x19A63, offset: 0x295843, size: 0x8, addend: 0x0, symName: '__ZN4core3ptr65drop_in_place$LT$core..option..Option$LT$syn..expr..Label$GT$$GT$17h78189e72a8cb7951E', symObjAddr: 0x5D60, symBinAddr: 0x9D6D0, symSize: 0x30 }
  - { offsetInCU: 0x19B9E, offset: 0x29597E, size: 0x8, addend: 0x0, symName: '__ZN4core3ptr65drop_in_place$LT$core..option..Option$LT$syn..path..QSelf$GT$$GT$17h9b72552ca06b7379E', symObjAddr: 0x5D90, symBinAddr: 0x9D700, symSize: 0x50 }
  - { offsetInCU: 0x19D21, offset: 0x295B01, size: 0x8, addend: 0x0, symName: '__ZN4core3ptr66drop_in_place$LT$core..option..Option$LT$syn..pat..PatRest$GT$$GT$17h61677cf4ff3a7393E', symObjAddr: 0x5DE0, symBinAddr: 0x9D750, symSize: 0xE0 }
  - { offsetInCU: 0x19FA5, offset: 0x295D85, size: 0x8, addend: 0x0, symName: '__ZN4core3ptr67drop_in_place$LT$alloc..boxed..Box$LT$syn..expr..FieldValue$GT$$GT$17h93aaccf8aa22ef88E', symObjAddr: 0x5EC0, symBinAddr: 0x9D830, symSize: 0x140 }
  - { offsetInCU: 0x1A4C8, offset: 0x2962A8, size: 0x8, addend: 0x0, symName: '__ZN4core3ptr70drop_in_place$LT$core..option..Option$LT$syn..ty..BareVariadic$GT$$GT$17h45399348ea4b8d55E', symObjAddr: 0x6000, symBinAddr: 0x9D970, symSize: 0x120 }
  - { offsetInCU: 0x1A9F5, offset: 0x2967D5, size: 0x8, addend: 0x0, symName: '__ZN4core3ptr72drop_in_place$LT$alloc..boxed..Box$LT$syn..path..GenericArgument$GT$$GT$17haa7dd8b716637b54E', symObjAddr: 0x6120, symBinAddr: 0x9DA90, symSize: 0x2B0 }
  - { offsetInCU: 0x1B3E0, offset: 0x2971C0, size: 0x8, addend: 0x0, symName: '__ZN4core3ptr72drop_in_place$LT$core..option..Option$LT$syn..lifetime..Lifetime$GT$$GT$17hfc363ccdd8bd9c32E', symObjAddr: 0x63D0, symBinAddr: 0x9DD40, symSize: 0x30 }
  - { offsetInCU: 0x1B4FC, offset: 0x2972DC, size: 0x8, addend: 0x0, symName: '__ZN4core3ptr73drop_in_place$LT$alloc..boxed..Box$LT$syn..generics..GenericParam$GT$$GT$17hf6951dcd5ae07324E', symObjAddr: 0x6400, symBinAddr: 0x9DD70, symSize: 0x80 }
  - { offsetInCU: 0x1B674, offset: 0x297454, size: 0x8, addend: 0x0, symName: '__ZN4core3ptr75drop_in_place$LT$alloc..boxed..Box$LT$syn..generics..TypeParamBound$GT$$GT$17he61c00698a311a34E', symObjAddr: 0x6480, symBinAddr: 0x9DDF0, symSize: 0x160 }
  - { offsetInCU: 0x1BC3A, offset: 0x297A1A, size: 0x8, addend: 0x0, symName: '__ZN4core3ptr83drop_in_place$LT$core..result..Result$LT$syn..op..BinOp$C$syn..error..Error$GT$$GT$17h1f0ce0e4fd241856E', symObjAddr: 0x65E0, symBinAddr: 0x9DF50, symSize: 0x90 }
  - { offsetInCU: 0x1BF1E, offset: 0x297CFE, size: 0x8, addend: 0x0, symName: '__ZN4core3ptr86drop_in_place$LT$syn..punctuated..Punctuated$LT$syn..pat..Pat$C$syn..token..Or$GT$$GT$17h8e9173df21a44316E', symObjAddr: 0x6670, symBinAddr: 0x9DFE0, symSize: 0x120 }
  - { offsetInCU: 0x1C364, offset: 0x298144, size: 0x8, addend: 0x0, symName: '__ZN4core3ptr87drop_in_place$LT$core..option..Option$LT$alloc..boxed..Box$LT$syn..pat..Pat$GT$$GT$$GT$17hd7b7c69f601b3926E', symObjAddr: 0x6790, symBinAddr: 0x9E100, symSize: 0x50 }
  - { offsetInCU: 0x1C4D6, offset: 0x2982B6, size: 0x8, addend: 0x0, symName: '__ZN4core3ptr87drop_in_place$LT$core..option..Option$LT$alloc..boxed..Box$LT$syn..ty..Type$GT$$GT$$GT$17hd74f5d971aec2972E', symObjAddr: 0x67E0, symBinAddr: 0x9E150, symSize: 0x50 }
  - { offsetInCU: 0x1C648, offset: 0x298428, size: 0x8, addend: 0x0, symName: '__ZN4core3ptr89drop_in_place$LT$core..option..Option$LT$alloc..boxed..Box$LT$syn..expr..Expr$GT$$GT$$GT$17h8e135ac1a25a2dc5E', symObjAddr: 0x6830, symBinAddr: 0x9E1A0, symSize: 0x50 }
  - { offsetInCU: 0x1C7F8, offset: 0x2985D8, size: 0x8, addend: 0x0, symName: '__ZN4core3ptr89drop_in_place$LT$syn..punctuated..Punctuated$LT$syn..pat..Pat$C$syn..token..Comma$GT$$GT$17h8d60e47f3fb1f87aE', symObjAddr: 0x6880, symBinAddr: 0x9E1F0, symSize: 0x120 }
  - { offsetInCU: 0x1CC93, offset: 0x298A73, size: 0x8, addend: 0x0, symName: '__ZN4core3ptr91drop_in_place$LT$syn..punctuated..Punctuated$LT$syn..expr..Expr$C$syn..token..Comma$GT$$GT$17h4f39b83dc86a4159E', symObjAddr: 0x69A0, symBinAddr: 0x9E310, symSize: 0x120 }
  - { offsetInCU: 0x1D0DD, offset: 0x298EBD, size: 0x8, addend: 0x0, symName: '__ZN4core3ptr94drop_in_place$LT$syn..punctuated..Punctuated$LT$syn..pat..FieldPat$C$syn..token..Comma$GT$$GT$17h112950ea198c8281E', symObjAddr: 0x6AC0, symBinAddr: 0x9E430, symSize: 0xF0 }
  - { offsetInCU: 0x1D3A7, offset: 0x299187, size: 0x8, addend: 0x0, symName: '__ZN4core3ptr94drop_in_place$LT$syn..punctuated..Punctuated$LT$syn..ty..BareFnArg$C$syn..token..Comma$GT$$GT$17h1c7b44310f06243dE', symObjAddr: 0x6BB0, symBinAddr: 0x9E520, symSize: 0xF0 }
  - { offsetInCU: 0x1D671, offset: 0x299451, size: 0x8, addend: 0x0, symName: '__ZN4core3ptr96drop_in_place$LT$core..option..Option$LT$alloc..boxed..Box$LT$syn..path..PathSegment$GT$$GT$$GT$17hb447d0f626c86a4eE', symObjAddr: 0x6CA0, symBinAddr: 0x9E610, symSize: 0x180 }
  - { offsetInCU: 0x1DD02, offset: 0x299AE2, size: 0x8, addend: 0x0, symName: '__ZN4core3ptr97drop_in_place$LT$syn..punctuated..Punctuated$LT$syn..expr..FieldValue$C$syn..token..Comma$GT$$GT$17h31b81f7462228dcbE', symObjAddr: 0x6E20, symBinAddr: 0x9E790, symSize: 0xF0 }
  - { offsetInCU: 0x1E048, offset: 0x299E28, size: 0x8, addend: 0x0, symName: '__ZN4core3ptr98drop_in_place$LT$syn..punctuated..Punctuated$LT$syn..lifetime..Lifetime$C$syn..token..Plus$GT$$GT$17h0f8fc5f20f465f47E', symObjAddr: 0x6F10, symBinAddr: 0x9E880, symSize: 0xC0 }
  - { offsetInCU: 0x1EAEC, offset: 0x29A8CC, size: 0x8, addend: 0x0, symName: '__ZN53_$LT$core..fmt..Error$u20$as$u20$core..fmt..Debug$GT$3fmt17h43ae5cec9623af13E', symObjAddr: 0x6FD0, symBinAddr: 0x9E940, symSize: 0x20 }
  - { offsetInCU: 0x2902C, offset: 0x2A4E0C, size: 0x8, addend: 0x0, symName: __ZN3syn4expr7parsing32parse_with_earlier_boundary_rule17hb02ce308a02a4a1eE, symObjAddr: 0x7180, symBinAddr: 0x9EAF0, symSize: 0x15B0 }
  - { offsetInCU: 0x2B40D, offset: 0x2A71ED, size: 0x8, addend: 0x0, symName: __ZN3syn4expr7parsing14can_begin_expr17hb418906263911ccdE, symObjAddr: 0x8730, symBinAddr: 0xA00A0, symSize: 0x4C0 }
  - { offsetInCU: 0x2C9D5, offset: 0x2A87B5, size: 0x8, addend: 0x0, symName: __ZN3syn4expr7parsing10parse_expr17h9eb2cb7aa6283d86E.llvm.6085117338949153622, symObjAddr: 0x8BF0, symBinAddr: 0xA0560, symSize: 0x12E0 }
  - { offsetInCU: 0x2F6CD, offset: 0x2AB4AD, size: 0x8, addend: 0x0, symName: __ZN3syn4expr7parsing15parse_binop_rhs17h21ef9d80df571ec4E, symObjAddr: 0x9ED0, symBinAddr: 0xA1840, symSize: 0x540 }
  - { offsetInCU: 0x301EC, offset: 0x2ABFCC, size: 0x8, addend: 0x0, symName: __ZN3syn4expr7parsing14ambiguous_expr17he0894ca122c7f4e6E, symObjAddr: 0xA410, symBinAddr: 0xA1D80, symSize: 0x100 }
  - { offsetInCU: 0x30266, offset: 0x2AC046, size: 0x8, addend: 0x0, symName: __ZN3syn4expr7parsing10expr_attrs17hf14159509fa85ca8E, symObjAddr: 0xA510, symBinAddr: 0xA1E80, symSize: 0x2A0 }
  - { offsetInCU: 0x3082C, offset: 0x2AC60C, size: 0x8, addend: 0x0, symName: __ZN3syn4expr7parsing10unary_expr17h8c2a984611866bdaE, symObjAddr: 0xA7B0, symBinAddr: 0xA2120, symSize: 0x8C0 }
  - { offsetInCU: 0x31E93, offset: 0x2ADC73, size: 0x8, addend: 0x0, symName: __ZN3syn4expr7parsing12trailer_expr17h8a2bdad4a40548d7E, symObjAddr: 0xB070, symBinAddr: 0xA29E0, symSize: 0x1A90 }
  - { offsetInCU: 0x36108, offset: 0x2B1EE8, size: 0x8, addend: 0x0, symName: __ZN3syn4expr7parsing14trailer_helper17h1b30b9a4fbca87bcE, symObjAddr: 0xCB00, symBinAddr: 0xA4470, symSize: 0x21A0 }
  - { offsetInCU: 0x3A2CD, offset: 0x2B60AD, size: 0x8, addend: 0x0, symName: __ZN3syn4expr7parsing12atom_labeled17h2b63f0bdbd1ffcf9E, symObjAddr: 0xECA0, symBinAddr: 0xA6610, symSize: 0x730 }
  - { offsetInCU: 0x3ACA7, offset: 0x2B6A87, size: 0x8, addend: 0x0, symName: __ZN3syn4expr7parsing12expr_builtin17hfe4d7860eb8d93a5E, symObjAddr: 0xF3D0, symBinAddr: 0xA6D40, symSize: 0x3E0 }
  - { offsetInCU: 0x3B6FC, offset: 0x2B74DC, size: 0x8, addend: 0x0, symName: __ZN3syn4expr7parsing23path_or_macro_or_struct17h3a35c18dd12111cfE, symObjAddr: 0xF7B0, symBinAddr: 0xA7120, symSize: 0x160 }
  - { offsetInCU: 0x3B7B6, offset: 0x2B7596, size: 0x8, addend: 0x0, symName: __ZN3syn4expr7parsing31rest_of_path_or_macro_or_struct17h1201e78c90bb81baE, symObjAddr: 0xF910, symBinAddr: 0xA7280, symSize: 0x460 }
  - { offsetInCU: 0x3C038, offset: 0x2B7E18, size: 0x8, addend: 0x0, symName: __ZN3syn4expr7parsing14paren_or_tuple17h595ef5967864e1f0E, symObjAddr: 0xFD70, symBinAddr: 0xA76E0, symSize: 0x810 }
  - { offsetInCU: 0x3C96D, offset: 0x2B874D, size: 0x8, addend: 0x0, symName: __ZN3syn4expr7parsing15array_or_repeat17h16f1a87c0a940f8cE, symObjAddr: 0x10580, symBinAddr: 0xA7EF0, symSize: 0x1240 }
  - { offsetInCU: 0x3F935, offset: 0x2BB715, size: 0x8, addend: 0x0, symName: __ZN3syn4expr7parsing10expr_group17h143c5f8a1b43603cE, symObjAddr: 0x117C0, symBinAddr: 0xA9130, symSize: 0x920 }
  - { offsetInCU: 0x403F1, offset: 0x2BC1D1, size: 0x8, addend: 0x0, symName: __ZN3syn4expr7parsing8expr_let17h53e6315ac8b5aee1E, symObjAddr: 0x12340, symBinAddr: 0xA9A50, symSize: 0x560 }
  - { offsetInCU: 0x40BB1, offset: 0x2BC991, size: 0x8, addend: 0x0, symName: __ZN3syn4expr7parsing10expr_unary17haacb582ebfbd68bfE, symObjAddr: 0x128A0, symBinAddr: 0xA9FB0, symSize: 0x2E0 }
  - { offsetInCU: 0x41136, offset: 0x2BCF16, size: 0x8, addend: 0x0, symName: __ZN3syn4expr7parsing12expr_closure17h23f22c4f2a9fedcbE, symObjAddr: 0x12B80, symBinAddr: 0xAA290, symSize: 0x1530 }
  - { offsetInCU: 0x42D01, offset: 0x2BEAE1, size: 0x8, addend: 0x0, symName: __ZN3syn4expr7parsing10expr_break17hd5ff63487f71dcffE, symObjAddr: 0x140B0, symBinAddr: 0xAB7C0, symSize: 0x7E0 }
  - { offsetInCU: 0x43E53, offset: 0x2BFC33, size: 0x8, addend: 0x0, symName: __ZN3syn4expr7parsing18expr_struct_helper17h4c61023c9d934da0E, symObjAddr: 0x14890, symBinAddr: 0xABFA0, symSize: 0x9C0 }
  - { offsetInCU: 0x44EBB, offset: 0x2C0C9B, size: 0x8, addend: 0x0, symName: __ZN3syn4expr7parsing10expr_range17h09e34d6c6faf79a6E, symObjAddr: 0x15250, symBinAddr: 0xAC960, symSize: 0xE0 }
  - { offsetInCU: 0x4507D, offset: 0x2C0E5D, size: 0x8, addend: 0x0, symName: __ZN3syn4expr7parsing15parse_range_end17h0db540d84762afd5E, symObjAddr: 0x15330, symBinAddr: 0xACA40, symSize: 0x194 }
  - { offsetInCU: 0x1E, offset: 0x2D3C15, size: 0x8, addend: 0x0, symName: '__ZN4core3ptr100drop_in_place$LT$core..option..Option$LT$alloc..boxed..Box$LT$syn..path..GenericArgument$GT$$GT$$GT$17h7435c9de74860622E', symObjAddr: 0x0, symBinAddr: 0xACBE0, symSize: 0x50 }
  - { offsetInCU: 0x18A2, offset: 0x2D5499, size: 0x8, addend: 0x0, symName: '__ZN4core3ptr100drop_in_place$LT$core..option..Option$LT$alloc..boxed..Box$LT$syn..path..GenericArgument$GT$$GT$$GT$17h7435c9de74860622E', symObjAddr: 0x0, symBinAddr: 0xACBE0, symSize: 0x50 }
  - { offsetInCU: 0x1A71, offset: 0x2D5668, size: 0x8, addend: 0x0, symName: '__ZN4core3ptr102drop_in_place$LT$syn..punctuated..Punctuated$LT$syn..path..GenericArgument$C$syn..token..Comma$GT$$GT$17h39496ba4e6dba6cfE', symObjAddr: 0x50, symBinAddr: 0xACC30, symSize: 0xF0 }
  - { offsetInCU: 0x1D5A, offset: 0x2D5951, size: 0x8, addend: 0x0, symName: '__ZN4core3ptr103drop_in_place$LT$core..option..Option$LT$alloc..boxed..Box$LT$syn..generics..TypeParamBound$GT$$GT$$GT$17h5974f03e36b1a9c3E', symObjAddr: 0x140, symBinAddr: 0xACD20, symSize: 0x50 }
  - { offsetInCU: 0x2021, offset: 0x2D5C18, size: 0x8, addend: 0x0, symName: '__ZN4core3ptr103drop_in_place$LT$core..option..Option$LT$alloc..boxed..Box$LT$syn..generics..WherePredicate$GT$$GT$$GT$17hdd5111a374d8d6f2E', symObjAddr: 0x190, symBinAddr: 0xACD70, symSize: 0xD0 }
  - { offsetInCU: 0x23B4, offset: 0x2D5FAB, size: 0x8, addend: 0x0, symName: '__ZN4core3ptr103drop_in_place$LT$syn..punctuated..Punctuated$LT$syn..generics..GenericParam$C$syn..token..Comma$GT$$GT$17hf42353fa44ed6da8E', symObjAddr: 0x260, symBinAddr: 0xACE40, symSize: 0xF0 }
  - { offsetInCU: 0x2877, offset: 0x2D646E, size: 0x8, addend: 0x0, symName: '__ZN4core3ptr104drop_in_place$LT$syn..punctuated..Punctuated$LT$syn..generics..TypeParamBound$C$syn..token..Plus$GT$$GT$17h532f52c4a894b056E', symObjAddr: 0x350, symBinAddr: 0xACF30, symSize: 0x230 }
  - { offsetInCU: 0x326C, offset: 0x2D6E63, size: 0x8, addend: 0x0, symName: '__ZN4core3ptr109drop_in_place$LT$core..result..Result$LT$core..option..Option$LT$syn..ty..Abi$GT$$C$syn..error..Error$GT$$GT$17h8e7e96ef88c194afE', symObjAddr: 0x580, symBinAddr: 0xAD160, symSize: 0xD0 }
  - { offsetInCU: 0x384A, offset: 0x2D7441, size: 0x8, addend: 0x0, symName: '__ZN4core3ptr115drop_in_place$LT$core..option..Option$LT$$LP$alloc..boxed..Box$LT$syn..pat..Pat$GT$$C$syn..token..Colon$RP$$GT$$GT$17he854acc3c4717d92E', symObjAddr: 0x650, symBinAddr: 0xAD230, symSize: 0x50 }
  - { offsetInCU: 0x3A1A, offset: 0x2D7611, size: 0x8, addend: 0x0, symName: '__ZN4core3ptr115drop_in_place$LT$core..option..Option$LT$$LP$syn..token..Brace$C$alloc..vec..Vec$LT$syn..item..Item$GT$$RP$$GT$$GT$17h6df5bf3d47177236E', symObjAddr: 0x6A0, symBinAddr: 0xAD280, symSize: 0xE0 }
  - { offsetInCU: 0x3CC1, offset: 0x2D78B8, size: 0x8, addend: 0x0, symName: '__ZN4core3ptr126drop_in_place$LT$core..option..Option$LT$$LP$syn..token..And$C$core..option..Option$LT$syn..lifetime..Lifetime$GT$$RP$$GT$$GT$17hc269ac95805979aaE', symObjAddr: 0x780, symBinAddr: 0xAD360, symSize: 0x30 }
  - { offsetInCU: 0x3E1B, offset: 0x2D7A12, size: 0x8, addend: 0x0, symName: '__ZN4core3ptr34drop_in_place$LT$syn..lit..Lit$GT$17h8902f5ff67917034E', symObjAddr: 0x7B0, symBinAddr: 0xAD390, symSize: 0x110 }
  - { offsetInCU: 0x4355, offset: 0x2D7F4C, size: 0x8, addend: 0x0, symName: '__ZN4core3ptr34drop_in_place$LT$syn..pat..Pat$GT$17h4581eea028ec0969E', symObjAddr: 0x8C0, symBinAddr: 0xAD4A0, symSize: 0xEE0 }
  - { offsetInCU: 0x78CB, offset: 0x2DB4C2, size: 0x8, addend: 0x0, symName: '__ZN4core3ptr34drop_in_place$LT$syn..ty..Type$GT$17h369e41ad4a9f1ae0E', symObjAddr: 0x17A0, symBinAddr: 0xAE380, symSize: 0x5C0 }
  - { offsetInCU: 0x9101, offset: 0x2DCCF8, size: 0x8, addend: 0x0, symName: '__ZN4core3ptr36drop_in_place$LT$syn..expr..Expr$GT$17h0f7fd4c749bae801E', symObjAddr: 0x1D60, symBinAddr: 0xAE940, symSize: 0x2800 }
  - { offsetInCU: 0x126FC, offset: 0x2E62F3, size: 0x8, addend: 0x0, symName: '__ZN4core3ptr36drop_in_place$LT$syn..item..Item$GT$17h13f5a53479ba6379E', symObjAddr: 0x4560, symBinAddr: 0xB1140, symSize: 0x1800 }
  - { offsetInCU: 0x17CD5, offset: 0x2EB8CC, size: 0x8, addend: 0x0, symName: '__ZN4core3ptr36drop_in_place$LT$syn..mac..Macro$GT$17h4ffde962df30ebe2E', symObjAddr: 0x5D60, symBinAddr: 0xB2940, symSize: 0xE0 }
  - { offsetInCU: 0x18046, offset: 0x2EBC3D, size: 0x8, addend: 0x0, symName: '__ZN4core3ptr36drop_in_place$LT$syn..path..Path$GT$17habea856181211e1cE', symObjAddr: 0x5E40, symBinAddr: 0xB2A20, symSize: 0x220 }
  - { offsetInCU: 0x1897B, offset: 0x2EC572, size: 0x8, addend: 0x0, symName: '__ZN4core3ptr37drop_in_place$LT$syn..item..FnArg$GT$17h3308e115b3b3c9adE', symObjAddr: 0x6060, symBinAddr: 0xB2C40, symSize: 0x190 }
  - { offsetInCU: 0x18EB5, offset: 0x2ECAAC, size: 0x8, addend: 0x0, symName: '__ZN4core3ptr37drop_in_place$LT$syn..stmt..Block$GT$17hcc21a21cf949414cE', symObjAddr: 0x61F0, symBinAddr: 0xB2DD0, symSize: 0xD0 }
  - { offsetInCU: 0x19178, offset: 0x2ECD6F, size: 0x8, addend: 0x0, symName: '__ZN4core3ptr38drop_in_place$LT$syn..data..Fields$GT$17h1dd1b203befc1316E', symObjAddr: 0x62C0, symBinAddr: 0xB2EA0, symSize: 0x190 }
  - { offsetInCU: 0x19596, offset: 0x2ED18D, size: 0x8, addend: 0x0, symName: '__ZN4core3ptr38drop_in_place$LT$syn..expr..Member$GT$17h022cbe5553aa40faE', symObjAddr: 0x6450, symBinAddr: 0xB3030, symSize: 0x30 }
  - { offsetInCU: 0x19693, offset: 0x2ED28A, size: 0x8, addend: 0x0, symName: '__ZN4core3ptr39drop_in_place$LT$proc_macro2..Ident$GT$17h8101e88c3ac359d6E', symObjAddr: 0x6480, symBinAddr: 0xB3060, symSize: 0x30 }
  - { offsetInCU: 0x197ED, offset: 0x2ED3E4, size: 0x8, addend: 0x0, symName: '__ZN4core3ptr39drop_in_place$LT$syn..item..UseTree$GT$17h5b1281a5704d139dE', symObjAddr: 0x64B0, symBinAddr: 0xB3090, symSize: 0xD0 }
  - { offsetInCU: 0x19BA2, offset: 0x2ED799, size: 0x8, addend: 0x0, symName: '__ZN4core3ptr39drop_in_place$LT$syn..ty..TypeGroup$GT$17h40bac393b20ff4afE', symObjAddr: 0x6580, symBinAddr: 0xB3160, symSize: 0x50 }
  - { offsetInCU: 0x19D8B, offset: 0x2ED982, size: 0x8, addend: 0x0, symName: '__ZN4core3ptr40drop_in_place$LT$syn..item..ImplItem$GT$17he2e6e8f15695ea55E', symObjAddr: 0x65D0, symBinAddr: 0xB31B0, symSize: 0x7D0 }
  - { offsetInCU: 0x1B533, offset: 0x2EF12A, size: 0x8, addend: 0x0, symName: '__ZN4core3ptr40drop_in_place$LT$syn..item..ItemImpl$GT$17h1b09f17c1730ab9cE', symObjAddr: 0x6DA0, symBinAddr: 0xB3980, symSize: 0x1F0 }
  - { offsetInCU: 0x1BC6E, offset: 0x2EF865, size: 0x8, addend: 0x0, symName: '__ZN4core3ptr40drop_in_place$LT$syn..item..Receiver$GT$17h6743a41cd869c536E', symObjAddr: 0x6F90, symBinAddr: 0xB3B70, symSize: 0x130 }
  - { offsetInCU: 0x1C201, offset: 0x2EFDF8, size: 0x8, addend: 0x0, symName: '__ZN4core3ptr40drop_in_place$LT$syn..item..Variadic$GT$17h856c1da4a3922974E', symObjAddr: 0x70C0, symBinAddr: 0xB3CA0, symSize: 0x110 }
  - { offsetInCU: 0x1C624, offset: 0x2F021B, size: 0x8, addend: 0x0, symName: '__ZN4core3ptr40drop_in_place$LT$syn..ty..ReturnType$GT$17h02cf41e2fec63d90E', symObjAddr: 0x71D0, symBinAddr: 0xB3DB0, symSize: 0x50 }
  - { offsetInCU: 0x1C796, offset: 0x2F038D, size: 0x8, addend: 0x0, symName: '__ZN4core3ptr41drop_in_place$LT$syn..expr..ExprConst$GT$17h725a13e551d9f276E', symObjAddr: 0x7220, symBinAddr: 0xB3E00, symSize: 0x180 }
  - { offsetInCU: 0x1CD0A, offset: 0x2F0901, size: 0x8, addend: 0x0, symName: '__ZN4core3ptr41drop_in_place$LT$syn..item..Signature$GT$17h691f115807a5d1eeE', symObjAddr: 0x73A0, symBinAddr: 0xB3F80, symSize: 0x160 }
  - { offsetInCU: 0x1D3F6, offset: 0x2F0FED, size: 0x8, addend: 0x0, symName: '__ZN4core3ptr41drop_in_place$LT$syn..item..TraitItem$GT$17hb6f9fbcba8fdea85E', symObjAddr: 0x7500, symBinAddr: 0xB40E0, symSize: 0x6A0 }
  - { offsetInCU: 0x1E675, offset: 0x2F226C, size: 0x8, addend: 0x0, symName: '__ZN4core3ptr43drop_in_place$LT$syn..data..FieldsNamed$GT$17hb2a97e73a85352cbE', symObjAddr: 0x7BA0, symBinAddr: 0xB4780, symSize: 0xE0 }
  - { offsetInCU: 0x1E964, offset: 0x2F255B, size: 0x8, addend: 0x0, symName: '__ZN4core3ptr44drop_in_place$LT$syn..generics..Generics$GT$17h10dea28dec64f81eE', symObjAddr: 0x7C80, symBinAddr: 0xB4860, symSize: 0x40 }
  - { offsetInCU: 0x1E981, offset: 0x2F2578, size: 0x8, addend: 0x0, symName: '__ZN4core3ptr44drop_in_place$LT$syn..lifetime..Lifetime$GT$17hf0cdec2e9ec456d6E', symObjAddr: 0x7CC0, symBinAddr: 0xB48A0, symSize: 0x30 }
  - { offsetInCU: 0x1EAFA, offset: 0x2F26F1, size: 0x8, addend: 0x0, symName: '__ZN4core3ptr44drop_in_place$LT$syn..parse..ParseBuffer$GT$17hd0dadba44a19aec2E', symObjAddr: 0x7CF0, symBinAddr: 0xB48D0, symSize: 0x70 }
  - { offsetInCU: 0x1EF2F, offset: 0x2F2B26, size: 0x8, addend: 0x0, symName: '__ZN4core3ptr45drop_in_place$LT$proc_macro2..TokenStream$GT$17h3405f6c513e9f6cbE', symObjAddr: 0x7D60, symBinAddr: 0xB4940, symSize: 0x140 }
  - { offsetInCU: 0x1F39E, offset: 0x2F2F95, size: 0x8, addend: 0x0, symName: '__ZN4core3ptr45drop_in_place$LT$syn..generics..TypeParam$GT$17he5eda51070b7de47E', symObjAddr: 0x7EA0, symBinAddr: 0xB4A80, symSize: 0x230 }
  - { offsetInCU: 0x1FB9A, offset: 0x2F3791, size: 0x8, addend: 0x0, symName: '__ZN4core3ptr46drop_in_place$LT$syn..generics..ConstParam$GT$17hab0a58c4af8c549cE', symObjAddr: 0x80D0, symBinAddr: 0xB4CB0, symSize: 0x150 }
  - { offsetInCU: 0x1FFC4, offset: 0x2F3BBB, size: 0x8, addend: 0x0, symName: '__ZN4core3ptr47drop_in_place$LT$syn..path..GenericArgument$GT$17h54f8794633f96823E', symObjAddr: 0x8220, symBinAddr: 0xB4E00, symSize: 0x460 }
  - { offsetInCU: 0x20CCD, offset: 0x2F48C4, size: 0x8, addend: 0x0, symName: '__ZN4core3ptr49drop_in_place$LT$syn..generics..LifetimeParam$GT$17h41a7c7a290ea6289E', symObjAddr: 0x8680, symBinAddr: 0xB5260, symSize: 0xF0 }
  - { offsetInCU: 0x21087, offset: 0x2F4C7E, size: 0x8, addend: 0x0, symName: '__ZN4core3ptr49drop_in_place$LT$syn..restriction..Visibility$GT$17h2a932c493942ef80E', symObjAddr: 0x8770, symBinAddr: 0xB5350, symSize: 0x60 }
  - { offsetInCU: 0x2120A, offset: 0x2F4E01, size: 0x8, addend: 0x0, symName: '__ZN4core3ptr50drop_in_place$LT$syn..generics..TypeParamBound$GT$17hcd7771d4c6c221efE', symObjAddr: 0x87D0, symBinAddr: 0xB53B0, symSize: 0xA0 }
  - { offsetInCU: 0x21371, offset: 0x2F4F68, size: 0x8, addend: 0x0, symName: '__ZN4core3ptr58drop_in_place$LT$alloc..vec..Vec$LT$syn..expr..Arm$GT$$GT$17h1a55df3d2cba1daaE', symObjAddr: 0x8870, symBinAddr: 0xB5450, symSize: 0xD0 }
  - { offsetInCU: 0x215FE, offset: 0x2F51F5, size: 0x8, addend: 0x0, symName: '__ZN4core3ptr59drop_in_place$LT$alloc..boxed..Box$LT$syn..pat..Pat$GT$$GT$17h563b135d87aca8abE', symObjAddr: 0x8940, symBinAddr: 0xB5520, symSize: 0x50 }
  - { offsetInCU: 0x21759, offset: 0x2F5350, size: 0x8, addend: 0x0, symName: '__ZN4core3ptr59drop_in_place$LT$alloc..boxed..Box$LT$syn..ty..Type$GT$$GT$17hffed36bad83adacbE', symObjAddr: 0x8990, symBinAddr: 0xB5570, symSize: 0x50 }
  - { offsetInCU: 0x218B4, offset: 0x2F54AB, size: 0x8, addend: 0x0, symName: '__ZN4core3ptr61drop_in_place$LT$alloc..boxed..Box$LT$syn..expr..Expr$GT$$GT$17h01091e47f131475dE', symObjAddr: 0x89E0, symBinAddr: 0xB55C0, symSize: 0x50 }
  - { offsetInCU: 0x21A0F, offset: 0x2F5606, size: 0x8, addend: 0x0, symName: '__ZN4core3ptr61drop_in_place$LT$syn..path..ParenthesizedGenericArguments$GT$17h43d4aac5494326a7E', symObjAddr: 0x8A30, symBinAddr: 0xB5610, symSize: 0x170 }
  - { offsetInCU: 0x21FE9, offset: 0x2F5BE0, size: 0x8, addend: 0x0, symName: '__ZN4core3ptr62drop_in_place$LT$alloc..boxed..Box$LT$syn..stmt..Block$GT$$GT$17h30434998ae0f12a8E', symObjAddr: 0x8BA0, symBinAddr: 0xB5780, symSize: 0xE0 }
  - { offsetInCU: 0x223C6, offset: 0x2F5FBD, size: 0x8, addend: 0x0, symName: '__ZN4core3ptr63drop_in_place$LT$alloc..boxed..Box$LT$syn..lit..LitRepr$GT$$GT$17hd8839b7fb35ee7afE', symObjAddr: 0x8C80, symBinAddr: 0xB5860, symSize: 0x60 }
  - { offsetInCU: 0x2269C, offset: 0x2F6293, size: 0x8, addend: 0x0, symName: '__ZN4core3ptr63drop_in_place$LT$alloc..vec..Vec$LT$syn..item..ImplItem$GT$$GT$17hda9ba61cc1df3d0eE', symObjAddr: 0x8CE0, symBinAddr: 0xB58C0, symSize: 0x80 }
  - { offsetInCU: 0x22939, offset: 0x2F6530, size: 0x8, addend: 0x0, symName: '__ZN4core3ptr64drop_in_place$LT$alloc..boxed..Box$LT$syn..item..UseTree$GT$$GT$17he10cba0a4742709fE', symObjAddr: 0x8D60, symBinAddr: 0xB5940, symSize: 0xF0 }
  - { offsetInCU: 0x22E79, offset: 0x2F6A70, size: 0x8, addend: 0x0, symName: '__ZN4core3ptr64drop_in_place$LT$alloc..boxed..Box$LT$syn..pat..FieldPat$GT$$GT$17h4980b70a7597cc08E', symObjAddr: 0x8E50, symBinAddr: 0xB5A30, symSize: 0x140 }
  - { offsetInCU: 0x23524, offset: 0x2F711B, size: 0x8, addend: 0x0, symName: '__ZN4core3ptr64drop_in_place$LT$alloc..boxed..Box$LT$syn..ty..BareFnArg$GT$$GT$17h8b34096c620314efE', symObjAddr: 0x8F90, symBinAddr: 0xB5B70, symSize: 0x140 }
  - { offsetInCU: 0x23A48, offset: 0x2F763F, size: 0x8, addend: 0x0, symName: '__ZN4core3ptr64drop_in_place$LT$alloc..vec..Vec$LT$syn..attr..Attribute$GT$$GT$17h3c8f2a04e701c675E', symObjAddr: 0x90D0, symBinAddr: 0xB5CB0, symSize: 0xD0 }
  - { offsetInCU: 0x23CD5, offset: 0x2F78CC, size: 0x8, addend: 0x0, symName: '__ZN4core3ptr64drop_in_place$LT$alloc..vec..Vec$LT$syn..item..TraitItem$GT$$GT$17h60eb4b8666c57b93E', symObjAddr: 0x91A0, symBinAddr: 0xB5D80, symSize: 0x80 }
  - { offsetInCU: 0x23F53, offset: 0x2F7B4A, size: 0x8, addend: 0x0, symName: '__ZN4core3ptr65drop_in_place$LT$core..option..Option$LT$syn..expr..Label$GT$$GT$17h78189e72a8cb7951E', symObjAddr: 0x9220, symBinAddr: 0xB5E00, symSize: 0x30 }
  - { offsetInCU: 0x2408E, offset: 0x2F7C85, size: 0x8, addend: 0x0, symName: '__ZN4core3ptr65drop_in_place$LT$core..option..Option$LT$syn..path..QSelf$GT$$GT$17h9b72552ca06b7379E', symObjAddr: 0x9250, symBinAddr: 0xB5E30, symSize: 0x50 }
  - { offsetInCU: 0x24211, offset: 0x2F7E08, size: 0x8, addend: 0x0, symName: '__ZN4core3ptr66drop_in_place$LT$alloc..vec..Vec$LT$syn..item..ForeignItem$GT$$GT$17h3e58b8e683c84cf4E', symObjAddr: 0x92A0, symBinAddr: 0xB5E80, symSize: 0x80 }
  - { offsetInCU: 0x2448F, offset: 0x2F8086, size: 0x8, addend: 0x0, symName: '__ZN4core3ptr66drop_in_place$LT$core..option..Option$LT$syn..pat..PatRest$GT$$GT$17h61677cf4ff3a7393E', symObjAddr: 0x9320, symBinAddr: 0xB5F00, symSize: 0xE0 }
  - { offsetInCU: 0x24713, offset: 0x2F830A, size: 0x8, addend: 0x0, symName: '__ZN4core3ptr67drop_in_place$LT$alloc..boxed..Box$LT$syn..expr..FieldValue$GT$$GT$17h93aaccf8aa22ef88E', symObjAddr: 0x9400, symBinAddr: 0xB5FE0, symSize: 0x140 }
  - { offsetInCU: 0x24C36, offset: 0x2F882D, size: 0x8, addend: 0x0, symName: '__ZN4core3ptr70drop_in_place$LT$core..option..Option$LT$syn..ty..BareVariadic$GT$$GT$17h45399348ea4b8d55E', symObjAddr: 0x9540, symBinAddr: 0xB6120, symSize: 0x120 }
  - { offsetInCU: 0x25163, offset: 0x2F8D5A, size: 0x8, addend: 0x0, symName: '__ZN4core3ptr72drop_in_place$LT$alloc..boxed..Box$LT$syn..path..GenericArgument$GT$$GT$17haa7dd8b716637b54E', symObjAddr: 0x9660, symBinAddr: 0xB6240, symSize: 0x2B0 }
  - { offsetInCU: 0x25B4E, offset: 0x2F9745, size: 0x8, addend: 0x0, symName: '__ZN4core3ptr72drop_in_place$LT$core..option..Option$LT$syn..lifetime..Lifetime$GT$$GT$17hfc363ccdd8bd9c32E', symObjAddr: 0x9910, symBinAddr: 0xB64F0, symSize: 0x30 }
  - { offsetInCU: 0x25C6A, offset: 0x2F9861, size: 0x8, addend: 0x0, symName: '__ZN4core3ptr73drop_in_place$LT$alloc..boxed..Box$LT$syn..generics..GenericParam$GT$$GT$17hf6951dcd5ae07324E', symObjAddr: 0x9940, symBinAddr: 0xB6520, symSize: 0x80 }
  - { offsetInCU: 0x25DE2, offset: 0x2F99D9, size: 0x8, addend: 0x0, symName: '__ZN4core3ptr75drop_in_place$LT$alloc..boxed..Box$LT$syn..generics..TypeParamBound$GT$$GT$17he61c00698a311a34E', symObjAddr: 0x99C0, symBinAddr: 0xB65A0, symSize: 0x160 }
  - { offsetInCU: 0x263C7, offset: 0x2F9FBE, size: 0x8, addend: 0x0, symName: '__ZN4core3ptr75drop_in_place$LT$core..option..Option$LT$syn..generics..WhereClause$GT$$GT$17hdce7670be9790a3dE', symObjAddr: 0x9B20, symBinAddr: 0xB6700, symSize: 0x90 }
  - { offsetInCU: 0x2667D, offset: 0x2FA274, size: 0x8, addend: 0x0, symName: '__ZN4core3ptr86drop_in_place$LT$syn..punctuated..Punctuated$LT$syn..pat..Pat$C$syn..token..Or$GT$$GT$17h8e9173df21a44316E', symObjAddr: 0x9BB0, symBinAddr: 0xB6790, symSize: 0x120 }
  - { offsetInCU: 0x26AC3, offset: 0x2FA6BA, size: 0x8, addend: 0x0, symName: '__ZN4core3ptr87drop_in_place$LT$core..option..Option$LT$alloc..boxed..Box$LT$syn..pat..Pat$GT$$GT$$GT$17hd7b7c69f601b3926E', symObjAddr: 0x9CD0, symBinAddr: 0xB68B0, symSize: 0x50 }
  - { offsetInCU: 0x26C35, offset: 0x2FA82C, size: 0x8, addend: 0x0, symName: '__ZN4core3ptr87drop_in_place$LT$core..option..Option$LT$alloc..boxed..Box$LT$syn..ty..Type$GT$$GT$$GT$17hd74f5d971aec2972E', symObjAddr: 0x9D20, symBinAddr: 0xB6900, symSize: 0x50 }
  - { offsetInCU: 0x26DA7, offset: 0x2FA99E, size: 0x8, addend: 0x0, symName: '__ZN4core3ptr89drop_in_place$LT$core..option..Option$LT$alloc..boxed..Box$LT$syn..expr..Expr$GT$$GT$$GT$17h8e135ac1a25a2dc5E', symObjAddr: 0x9D70, symBinAddr: 0xB6950, symSize: 0x50 }
  - { offsetInCU: 0x26F57, offset: 0x2FAB4E, size: 0x8, addend: 0x0, symName: '__ZN4core3ptr89drop_in_place$LT$syn..punctuated..Punctuated$LT$syn..pat..Pat$C$syn..token..Comma$GT$$GT$17h8d60e47f3fb1f87aE', symObjAddr: 0x9DC0, symBinAddr: 0xB69A0, symSize: 0x120 }
  - { offsetInCU: 0x273F2, offset: 0x2FAFE9, size: 0x8, addend: 0x0, symName: '__ZN4core3ptr90drop_in_place$LT$core..option..Option$LT$alloc..boxed..Box$LT$syn..data..Field$GT$$GT$$GT$17h326c39537b0fcc46E', symObjAddr: 0x9EE0, symBinAddr: 0xB6AC0, symSize: 0x200 }
  - { offsetInCU: 0x27C48, offset: 0x2FB83F, size: 0x8, addend: 0x0, symName: '__ZN4core3ptr90drop_in_place$LT$core..option..Option$LT$alloc..boxed..Box$LT$syn..item..FnArg$GT$$GT$$GT$17hbae3fdd388277508E', symObjAddr: 0xA0E0, symBinAddr: 0xB6CC0, symSize: 0x50 }
  - { offsetInCU: 0x27DEB, offset: 0x2FB9E2, size: 0x8, addend: 0x0, symName: '__ZN4core3ptr91drop_in_place$LT$syn..punctuated..Punctuated$LT$syn..expr..Expr$C$syn..token..Comma$GT$$GT$17h4f39b83dc86a4159E', symObjAddr: 0xA130, symBinAddr: 0xB6D10, symSize: 0x120 }
  - { offsetInCU: 0x28248, offset: 0x2FBE3F, size: 0x8, addend: 0x0, symName: '__ZN4core3ptr92drop_in_place$LT$core..option..Option$LT$$LP$syn..token..As$C$proc_macro2..Ident$RP$$GT$$GT$17h5c1a47ccb35d9d7eE', symObjAddr: 0xA250, symBinAddr: 0xB6E30, symSize: 0x30 }
  - { offsetInCU: 0x283A2, offset: 0x2FBF99, size: 0x8, addend: 0x0, symName: '__ZN4core3ptr92drop_in_place$LT$core..option..Option$LT$alloc..boxed..Box$LT$syn..data..Variant$GT$$GT$$GT$17h3f89d7c982191526E', symObjAddr: 0xA280, symBinAddr: 0xB6E60, symSize: 0x190 }
  - { offsetInCU: 0x28A4B, offset: 0x2FC642, size: 0x8, addend: 0x0, symName: '__ZN4core3ptr92drop_in_place$LT$syn..punctuated..Punctuated$LT$syn..item..FnArg$C$syn..token..Comma$GT$$GT$17h75db9d232662c7d3E', symObjAddr: 0xA410, symBinAddr: 0xB6FF0, symSize: 0x130 }
  - { offsetInCU: 0x28E82, offset: 0x2FCA79, size: 0x8, addend: 0x0, symName: '__ZN4core3ptr94drop_in_place$LT$syn..punctuated..Punctuated$LT$syn..data..Variant$C$syn..token..Comma$GT$$GT$17ha69d7e675441c7e2E', symObjAddr: 0xA540, symBinAddr: 0xB7120, symSize: 0xE0 }
  - { offsetInCU: 0x291AF, offset: 0x2FCDA6, size: 0x8, addend: 0x0, symName: '__ZN4core3ptr94drop_in_place$LT$syn..punctuated..Punctuated$LT$syn..item..UseTree$C$syn..token..Comma$GT$$GT$17h4e4f303ffad9f549E', symObjAddr: 0xA620, symBinAddr: 0xB7200, symSize: 0xF0 }
  - { offsetInCU: 0x294C0, offset: 0x2FD0B7, size: 0x8, addend: 0x0, symName: '__ZN4core3ptr94drop_in_place$LT$syn..punctuated..Punctuated$LT$syn..pat..FieldPat$C$syn..token..Comma$GT$$GT$17h112950ea198c8281E', symObjAddr: 0xA710, symBinAddr: 0xB72F0, symSize: 0xF0 }
  - { offsetInCU: 0x2978A, offset: 0x2FD381, size: 0x8, addend: 0x0, symName: '__ZN4core3ptr94drop_in_place$LT$syn..punctuated..Punctuated$LT$syn..ty..BareFnArg$C$syn..token..Comma$GT$$GT$17h1c7b44310f06243dE', symObjAddr: 0xA800, symBinAddr: 0xB73E0, symSize: 0xF0 }
  - { offsetInCU: 0x29A54, offset: 0x2FD64B, size: 0x8, addend: 0x0, symName: '__ZN4core3ptr96drop_in_place$LT$core..option..Option$LT$alloc..boxed..Box$LT$syn..path..PathSegment$GT$$GT$$GT$17hb447d0f626c86a4eE', symObjAddr: 0xA8F0, symBinAddr: 0xB74D0, symSize: 0x180 }
  - { offsetInCU: 0x2A0E5, offset: 0x2FDCDC, size: 0x8, addend: 0x0, symName: '__ZN4core3ptr97drop_in_place$LT$syn..punctuated..Punctuated$LT$syn..expr..FieldValue$C$syn..token..Comma$GT$$GT$17h31b81f7462228dcbE', symObjAddr: 0xAA70, symBinAddr: 0xB7650, symSize: 0xF0 }
  - { offsetInCU: 0x2A42B, offset: 0x2FE022, size: 0x8, addend: 0x0, symName: '__ZN4core3ptr98drop_in_place$LT$syn..punctuated..Punctuated$LT$syn..lifetime..Lifetime$C$syn..token..Plus$GT$$GT$17h0f8fc5f20f465f47E', symObjAddr: 0xAB60, symBinAddr: 0xB7740, symSize: 0xC0 }
  - { offsetInCU: 0x31800, offset: 0x3053F7, size: 0x8, addend: 0x0, symName: __ZN3syn4item7parsing18parse_rest_of_item17h8569c0eb1b7d8242E, symObjAddr: 0xAC80, symBinAddr: 0xB7860, symSize: 0x4130 }
  - { offsetInCU: 0x3D517, offset: 0x31110E, size: 0x8, addend: 0x0, symName: __ZN3syn4item7parsing12parse_macro217h59aca4032c4075c2E, symObjAddr: 0xFC20, symBinAddr: 0xBC800, symSize: 0x8D0 }
  - { offsetInCU: 0x3F01D, offset: 0x312C14, size: 0x8, addend: 0x0, symName: __ZN3syn4item7parsing14parse_item_use17h87ea73b5b5534563E, symObjAddr: 0x104F0, symBinAddr: 0xBD0D0, symSize: 0x520 }
  - { offsetInCU: 0x3FA4E, offset: 0x313645, size: 0x8, addend: 0x0, symName: __ZN3syn4item7parsing14parse_use_tree17ha136166ddfa7b0b8E, symObjAddr: 0x10A10, symBinAddr: 0xBD5F0, symSize: 0xE80 }
  - { offsetInCU: 0x4221D, offset: 0x315E14, size: 0x8, addend: 0x0, symName: __ZN3syn4item7parsing14peek_signature17h5908d52294220ab3E, symObjAddr: 0x11890, symBinAddr: 0xBE470, symSize: 0x380 }
  - { offsetInCU: 0x432BB, offset: 0x316EB2, size: 0x8, addend: 0x0, symName: __ZN3syn4item7parsing16parse_rest_of_fn17hff377dc88eaa3b3fE, symObjAddr: 0x11C10, symBinAddr: 0xBE7F0, symSize: 0x560 }
  - { offsetInCU: 0x4402E, offset: 0x317C25, size: 0x8, addend: 0x0, symName: __ZN3syn4item7parsing24parse_fn_arg_or_variadic17h0946b5f8092c2f53E, symObjAddr: 0x12170, symBinAddr: 0xBED50, symSize: 0xEC0 }
  - { offsetInCU: 0x46C25, offset: 0x31A81C, size: 0x8, addend: 0x0, symName: __ZN3syn4item7parsing13parse_fn_args17hfcbadc903471329dE, symObjAddr: 0x13030, symBinAddr: 0xBFC10, symSize: 0xA20 }
  - { offsetInCU: 0x47BD2, offset: 0x31B7C9, size: 0x8, addend: 0x0, symName: __ZN3syn4item7parsing23parse_foreign_item_type17hbed431625837dc04E, symObjAddr: 0x13A50, symBinAddr: 0xC0630, symSize: 0x450 }
  - { offsetInCU: 0x482B8, offset: 0x31BEAF, size: 0x8, addend: 0x0, symName: __ZN3syn4item7parsing15parse_item_type17h69a8e007f956ea7eE, symObjAddr: 0x13EA0, symBinAddr: 0xC0A80, symSize: 0x580 }
  - { offsetInCU: 0x48D1A, offset: 0x31C911, size: 0x8, addend: 0x0, symName: __ZN3syn4item7parsing26parse_trait_or_trait_alias17h53e52e5f93715b35E, symObjAddr: 0x14420, symBinAddr: 0xC1000, symSize: 0x880 }
  - { offsetInCU: 0x4A70C, offset: 0x31E303, size: 0x8, addend: 0x0, symName: __ZN3syn4item7parsing19parse_rest_of_trait17h0b8f1e2c2e0da776E, symObjAddr: 0x14CA0, symBinAddr: 0xC1880, symSize: 0xC10 }
  - { offsetInCU: 0x4BB59, offset: 0x31F750, size: 0x8, addend: 0x0, symName: __ZN3syn4item7parsing26parse_start_of_trait_alias17h83335d8e31321462E, symObjAddr: 0x158B0, symBinAddr: 0xC2490, symSize: 0x4F0 }
  - { offsetInCU: 0x4C532, offset: 0x320129, size: 0x8, addend: 0x0, symName: __ZN3syn4item7parsing25parse_rest_of_trait_alias17hffc9e5855a2cde04E, symObjAddr: 0x15DA0, symBinAddr: 0xC2980, symSize: 0x680 }
  - { offsetInCU: 0x4D117, offset: 0x320D0E, size: 0x8, addend: 0x0, symName: __ZN3syn4item7parsing21parse_trait_item_type17h95d0bdc458584a4fE, symObjAddr: 0x16420, symBinAddr: 0xC3000, symSize: 0x4C0 }
  - { offsetInCU: 0x4D863, offset: 0x32145A, size: 0x8, addend: 0x0, symName: __ZN3syn4item7parsing10parse_impl17he5759138fa3bc5b8E, symObjAddr: 0x168E0, symBinAddr: 0xC34C0, symSize: 0x15F0 }
  - { offsetInCU: 0x4F17D, offset: 0x322D74, size: 0x8, addend: 0x0, symName: __ZN3syn4item7parsing18parse_impl_item_fn17h96506ae9bfc9db41E, symObjAddr: 0x17ED0, symBinAddr: 0xC4AB0, symSize: 0x770 }
  - { offsetInCU: 0x4FCA4, offset: 0x32389B, size: 0x8, addend: 0x0, symName: __ZN3syn4item7parsing20parse_impl_item_type17h3bf2e7aa4b140554E, symObjAddr: 0x18640, symBinAddr: 0xC5220, symSize: 0x4D7 }
  - { offsetInCU: 0x5880B, offset: 0x32C402, size: 0x8, addend: 0x0, symName: '__ZN5alloc3vec16Vec$LT$T$C$A$GT$4push17h3158ebd1c3360f00E', symObjAddr: 0xAC20, symBinAddr: 0xB7800, symSize: 0x60 }
  - { offsetInCU: 0x599ED, offset: 0x32D5E4, size: 0x8, addend: 0x0, symName: __ZN3syn4item7parsing16FlexibleItemType5parse17ha511062c5b947fc4E, symObjAddr: 0xEDB0, symBinAddr: 0xBB990, symSize: 0xA10 }
  - { offsetInCU: 0x5A770, offset: 0x32E367, size: 0x8, addend: 0x0, symName: __ZN3syn4item7parsing16FlexibleItemType21parse_optional_bounds17hbbaebf3e2d169441E, symObjAddr: 0xF7C0, symBinAddr: 0xBC3A0, symSize: 0x310 }
  - { offsetInCU: 0x5AE2B, offset: 0x32EA22, size: 0x8, addend: 0x0, symName: __ZN3syn4item7parsing16FlexibleItemType25parse_optional_definition17hbde9bf5fd31dafffE, symObjAddr: 0xFAD0, symBinAddr: 0xBC6B0, symSize: 0x150 }
  - { offsetInCU: 0x2BFE, offset: 0x33CBD9, size: 0x8, addend: 0x0, symName: '__ZN3syn8generics7parsing71_$LT$impl$u20$syn..parse..Parse$u20$for$u20$syn..generics..Generics$GT$5parse17h6b35b0a678693bc9E', symObjAddr: 0x8310, symBinAddr: 0xCCC00, symSize: 0x1010 }
  - { offsetInCU: 0x4D6D, offset: 0x33ED48, size: 0x8, addend: 0x0, symName: '__ZN3syn8generics7parsing76_$LT$impl$u20$syn..parse..Parse$u20$for$u20$syn..generics..LifetimeParam$GT$5parse17h3fc29617c6a43bdcE', symObjAddr: 0x9E70, symBinAddr: 0xCDC10, symSize: 0x690 }
  - { offsetInCU: 0x5D0A, offset: 0x33FCE5, size: 0x8, addend: 0x0, symName: '__ZN3syn8generics7parsing77_$LT$impl$u20$syn..parse..Parse$u20$for$u20$syn..generics..BoundLifetimes$GT$5parse17h7a7c384f0cdd4b83E', symObjAddr: 0xA500, symBinAddr: 0xCE2A0, symSize: 0x620 }
  - { offsetInCU: 0x6A17, offset: 0x3409F2, size: 0x8, addend: 0x0, symName: '__ZN3syn8generics7parsing72_$LT$impl$u20$syn..parse..Parse$u20$for$u20$syn..generics..TypeParam$GT$5parse17h86074eb5794d472dE', symObjAddr: 0xAB20, symBinAddr: 0xCE8C0, symSize: 0x7F0 }
  - { offsetInCU: 0x7B0C, offset: 0x341AE7, size: 0x8, addend: 0x0, symName: '__ZN3syn8generics7parsing77_$LT$impl$u20$syn..parse..Parse$u20$for$u20$syn..generics..TypeParamBound$GT$5parse17hef57556d60488532E', symObjAddr: 0xB310, symBinAddr: 0xCF0B0, symSize: 0x1300 }
  - { offsetInCU: 0xB5D5, offset: 0x3455B0, size: 0x8, addend: 0x0, symName: '__ZN3syn8generics7parsing73_$LT$impl$u20$syn..parse..Parse$u20$for$u20$syn..generics..TraitBound$GT$5parse17h425a3489f7ef339fE', symObjAddr: 0xCB70, symBinAddr: 0xD0910, symSize: 0x720 }
  - { offsetInCU: 0xC73E, offset: 0x346719, size: 0x8, addend: 0x0, symName: '__ZN3syn8generics7parsing73_$LT$impl$u20$syn..parse..Parse$u20$for$u20$syn..generics..ConstParam$GT$5parse17hf00c756c03f8df0bE', symObjAddr: 0xD360, symBinAddr: 0xD1030, symSize: 0x880 }
  - { offsetInCU: 0xD689, offset: 0x347664, size: 0x8, addend: 0x0, symName: '__ZN3syn8generics7parsing74_$LT$impl$u20$syn..parse..Parse$u20$for$u20$syn..generics..WhereClause$GT$5parse17h0184ea7b8fa9bf5fE', symObjAddr: 0xDBE0, symBinAddr: 0xD18B0, symSize: 0x440 }
  - { offsetInCU: 0xE206, offset: 0x3481E1, size: 0x8, addend: 0x0, symName: '__ZN3syn8generics7parsing77_$LT$impl$u20$syn..parse..Parse$u20$for$u20$syn..generics..WherePredicate$GT$5parse17h285530128cf671e6E', symObjAddr: 0xE020, symBinAddr: 0xD1CF0, symSize: 0xEB0 }
  - { offsetInCU: 0x10509, offset: 0x34A4E4, size: 0x8, addend: 0x0, symName: '__ZN3syn8generics8printing80_$LT$impl$u20$quote..to_tokens..ToTokens$u20$for$u20$syn..generics..Generics$GT$9to_tokens17h0ec80491c61b899eE', symObjAddr: 0xEED0, symBinAddr: 0xD2BA0, symSize: 0x240 }
  - { offsetInCU: 0x10D34, offset: 0x34AD0F, size: 0x8, addend: 0x0, symName: '__ZN3syn8generics8printing86_$LT$impl$u20$quote..to_tokens..ToTokens$u20$for$u20$syn..generics..BoundLifetimes$GT$9to_tokens17hf35c5fa847c9610bE', symObjAddr: 0xFA30, symBinAddr: 0xD2DE0, symSize: 0x150 }
  - { offsetInCU: 0x111E0, offset: 0x34B1BB, size: 0x8, addend: 0x0, symName: '__ZN3syn8generics8printing81_$LT$impl$u20$quote..to_tokens..ToTokens$u20$for$u20$syn..generics..TypeParam$GT$9to_tokens17h67a891f1844b10b9E', symObjAddr: 0xFDA0, symBinAddr: 0xD2F30, symSize: 0x210 }
  - { offsetInCU: 0x118C1, offset: 0x34B89C, size: 0x8, addend: 0x0, symName: '__ZN3syn8generics8printing82_$LT$impl$u20$quote..to_tokens..ToTokens$u20$for$u20$syn..generics..ConstParam$GT$9to_tokens17h19315c88864bea17E', symObjAddr: 0x10050, symBinAddr: 0xD3140, symSize: 0x1E0 }
  - { offsetInCU: 0x11C7E, offset: 0x34BC59, size: 0x8, addend: 0x0, symName: '__ZN3syn8generics8printing83_$LT$impl$u20$quote..to_tokens..ToTokens$u20$for$u20$syn..generics..WhereClause$GT$9to_tokens17hcd59109d6cd5532bE', symObjAddr: 0x10230, symBinAddr: 0xD3320, symSize: 0x120 }
  - { offsetInCU: 0x12131, offset: 0x34C10C, size: 0x8, addend: 0x0, symName: '__ZN74_$LT$syn..generics..GenericParam$u20$as$u20$quote..to_tokens..ToTokens$GT$9to_tokens17h7b28c56cca690554E', symObjAddr: 0x10590, symBinAddr: 0xD3440, symSize: 0x280 }
  - { offsetInCU: 0x12A16, offset: 0x34C9F1, size: 0x8, addend: 0x0, symName: '__ZN76_$LT$syn..generics..TypeParamBound$u20$as$u20$quote..to_tokens..ToTokens$GT$9to_tokens17h626cf29a5d446a91E', symObjAddr: 0x10A70, symBinAddr: 0xD36C0, symSize: 0x110 }
  - { offsetInCU: 0x12C7B, offset: 0x34CC56, size: 0x8, addend: 0x0, symName: '__ZN76_$LT$syn..generics..WherePredicate$u20$as$u20$quote..to_tokens..ToTokens$GT$9to_tokens17h17ebe07335d01c13E', symObjAddr: 0x10B80, symBinAddr: 0xD37D0, symSize: 0x220 }
  - { offsetInCU: 0x1561D, offset: 0x34F5F8, size: 0x8, addend: 0x0, symName: '__ZN3syn3gen5clone74_$LT$impl$u20$core..clone..Clone$u20$for$u20$syn..generics..ConstParam$GT$5clone17h3026a67a17c10895E', symObjAddr: 0x10E00, symBinAddr: 0xD39F0, symSize: 0x1F0 }
  - { offsetInCU: 0x158CE, offset: 0x34F8A9, size: 0x8, addend: 0x0, symName: '__ZN3syn3gen5clone77_$LT$impl$u20$core..clone..Clone$u20$for$u20$syn..generics..LifetimeParam$GT$5clone17ha0c1f4877a12e76eE', symObjAddr: 0x111B0, symBinAddr: 0xD3BE0, symSize: 0x130 }
  - { offsetInCU: 0x15B22, offset: 0x34FAFD, size: 0x8, addend: 0x0, symName: '__ZN3syn3gen5clone77_$LT$impl$u20$core..clone..Clone$u20$for$u20$syn..generics..PredicateType$GT$5clone17he478b1727e886ac0E', symObjAddr: 0x113C0, symBinAddr: 0xD3D10, symSize: 0x150 }
  - { offsetInCU: 0x15CB6, offset: 0x34FC91, size: 0x8, addend: 0x0, symName: '__ZN3syn3gen5clone73_$LT$impl$u20$core..clone..Clone$u20$for$u20$syn..generics..TypeParam$GT$5clone17h94ce523cb3afb45dE', symObjAddr: 0x11640, symBinAddr: 0xD3E60, symSize: 0x2B0 }
  - { offsetInCU: 0x161F3, offset: 0x3501CE, size: 0x8, addend: 0x0, symName: '__ZN3syn3gen5clone78_$LT$impl$u20$core..clone..Clone$u20$for$u20$syn..generics..TypeParamBound$GT$5clone17h78cd728b4f45a7a9E', symObjAddr: 0x118F0, symBinAddr: 0xD4110, symSize: 0x230 }
  - { offsetInCU: 0x18FB1, offset: 0x352F8C, size: 0x8, addend: 0x0, symName: '__ZN4core3ptr100drop_in_place$LT$core..option..Option$LT$alloc..boxed..Box$LT$syn..path..GenericArgument$GT$$GT$$GT$17h7435c9de74860622E', symObjAddr: 0x140, symBinAddr: 0xC5700, symSize: 0x50 }
  - { offsetInCU: 0x1923A, offset: 0x353215, size: 0x8, addend: 0x0, symName: '__ZN4core3ptr100drop_in_place$LT$syn..punctuated..Punctuated$LT$syn..path..PathSegment$C$syn..token..PathSep$GT$$GT$17hf414cb3581f8337aE', symObjAddr: 0x190, symBinAddr: 0xC5750, symSize: 0x140 }
  - { offsetInCU: 0x1976E, offset: 0x353749, size: 0x8, addend: 0x0, symName: '__ZN4core3ptr103drop_in_place$LT$core..option..Option$LT$alloc..boxed..Box$LT$syn..generics..TypeParamBound$GT$$GT$$GT$17h5974f03e36b1a9c3E', symObjAddr: 0x2D0, symBinAddr: 0xC5890, symSize: 0x50 }
  - { offsetInCU: 0x199B9, offset: 0x353994, size: 0x8, addend: 0x0, symName: '__ZN4core3ptr103drop_in_place$LT$core..option..Option$LT$alloc..boxed..Box$LT$syn..generics..WherePredicate$GT$$GT$$GT$17hdd5111a374d8d6f2E', symObjAddr: 0x320, symBinAddr: 0xC58E0, symSize: 0xD0 }
  - { offsetInCU: 0x19D4C, offset: 0x353D27, size: 0x8, addend: 0x0, symName: '__ZN4core3ptr103drop_in_place$LT$syn..punctuated..Punctuated$LT$syn..generics..GenericParam$C$syn..token..Comma$GT$$GT$17hf42353fa44ed6da8E.llvm.14890500243436994185', symObjAddr: 0x3F0, symBinAddr: 0xC59B0, symSize: 0xF0 }
  - { offsetInCU: 0x1A174, offset: 0x35414F, size: 0x8, addend: 0x0, symName: '__ZN4core3ptr104drop_in_place$LT$syn..punctuated..Punctuated$LT$syn..generics..TypeParamBound$C$syn..token..Plus$GT$$GT$17h532f52c4a894b056E', symObjAddr: 0x4E0, symBinAddr: 0xC5AA0, symSize: 0x160 }
  - { offsetInCU: 0x1A6E2, offset: 0x3546BD, size: 0x8, addend: 0x0, symName: '__ZN4core3ptr105drop_in_place$LT$syn..punctuated..Punctuated$LT$syn..generics..WherePredicate$C$syn..token..Comma$GT$$GT$17h935f9826ba562349E', symObjAddr: 0x640, symBinAddr: 0xC5C00, symSize: 0x80 }
  - { offsetInCU: 0x1A9A4, offset: 0x35497F, size: 0x8, addend: 0x0, symName: '__ZN4core3ptr34drop_in_place$LT$syn..lit..Lit$GT$17h8902f5ff67917034E', symObjAddr: 0x6C0, symBinAddr: 0xC5C80, symSize: 0x110 }
  - { offsetInCU: 0x1AF3B, offset: 0x354F16, size: 0x8, addend: 0x0, symName: '__ZN4core3ptr34drop_in_place$LT$syn..pat..Pat$GT$17h4581eea028ec0969E', symObjAddr: 0x7D0, symBinAddr: 0xC5D90, symSize: 0x1000 }
  - { offsetInCU: 0x1EA7F, offset: 0x358A5A, size: 0x8, addend: 0x0, symName: '__ZN4core3ptr34drop_in_place$LT$syn..ty..Type$GT$17h369e41ad4a9f1ae0E.llvm.14890500243436994185', symObjAddr: 0x17D0, symBinAddr: 0xC6D90, symSize: 0x4F0 }
  - { offsetInCU: 0x20008, offset: 0x359FE3, size: 0x8, addend: 0x0, symName: '__ZN4core3ptr36drop_in_place$LT$syn..expr..Expr$GT$17h0f7fd4c749bae801E.llvm.14890500243436994185', symObjAddr: 0x1CD0, symBinAddr: 0xC7280, symSize: 0x28E0 }
  - { offsetInCU: 0x2949A, offset: 0x363475, size: 0x8, addend: 0x0, symName: '__ZN4core3ptr36drop_in_place$LT$syn..mac..Macro$GT$17h4ffde962df30ebe2E', symObjAddr: 0x45B0, symBinAddr: 0xC9B60, symSize: 0x40 }
  - { offsetInCU: 0x29550, offset: 0x36352B, size: 0x8, addend: 0x0, symName: '__ZN4core3ptr36drop_in_place$LT$syn..path..Path$GT$17habea856181211e1cE', symObjAddr: 0x45F0, symBinAddr: 0xC9BA0, symSize: 0x220 }
  - { offsetInCU: 0x29E85, offset: 0x363E60, size: 0x8, addend: 0x0, symName: '__ZN4core3ptr37drop_in_place$LT$syn..stmt..Block$GT$17hcc21a21cf949414cE', symObjAddr: 0x4810, symBinAddr: 0xC9DC0, symSize: 0xD0 }
  - { offsetInCU: 0x2A129, offset: 0x364104, size: 0x8, addend: 0x0, symName: '__ZN4core3ptr38drop_in_place$LT$syn..expr..Member$GT$17h022cbe5553aa40faE', symObjAddr: 0x48F0, symBinAddr: 0xC9E90, symSize: 0x30 }
  - { offsetInCU: 0x2A226, offset: 0x364201, size: 0x8, addend: 0x0, symName: '__ZN4core3ptr39drop_in_place$LT$proc_macro2..Ident$GT$17h8101e88c3ac359d6E.llvm.14890500243436994185', symObjAddr: 0x4920, symBinAddr: 0xC9EC0, symSize: 0x30 }
  - { offsetInCU: 0x2A304, offset: 0x3642DF, size: 0x8, addend: 0x0, symName: '__ZN4core3ptr40drop_in_place$LT$syn..ty..ReturnType$GT$17h02cf41e2fec63d90E', symObjAddr: 0x4950, symBinAddr: 0xC9EF0, symSize: 0x50 }
  - { offsetInCU: 0x2A476, offset: 0x364451, size: 0x8, addend: 0x0, symName: '__ZN4core3ptr41drop_in_place$LT$syn..expr..ExprConst$GT$17h725a13e551d9f276E', symObjAddr: 0x49A0, symBinAddr: 0xC9F40, symSize: 0x180 }
  - { offsetInCU: 0x2A9CB, offset: 0x3649A6, size: 0x8, addend: 0x0, symName: '__ZN4core3ptr44drop_in_place$LT$syn..lifetime..Lifetime$GT$17hf0cdec2e9ec456d6E.llvm.14890500243436994185', symObjAddr: 0x4B60, symBinAddr: 0xCA0C0, symSize: 0x30 }
  - { offsetInCU: 0x2AB44, offset: 0x364B1F, size: 0x8, addend: 0x0, symName: '__ZN4core3ptr44drop_in_place$LT$syn..parse..ParseBuffer$GT$17hd0dadba44a19aec2E', symObjAddr: 0x4B90, symBinAddr: 0xCA0F0, symSize: 0x70 }
  - { offsetInCU: 0x2AF79, offset: 0x364F54, size: 0x8, addend: 0x0, symName: '__ZN4core3ptr45drop_in_place$LT$proc_macro2..TokenStream$GT$17h3405f6c513e9f6cbE.llvm.14890500243436994185', symObjAddr: 0x4C00, symBinAddr: 0xCA160, symSize: 0x140 }
  - { offsetInCU: 0x2B3E8, offset: 0x3653C3, size: 0x8, addend: 0x0, symName: '__ZN4core3ptr45drop_in_place$LT$syn..generics..TypeParam$GT$17he5eda51070b7de47E.llvm.14890500243436994185', symObjAddr: 0x4D40, symBinAddr: 0xCA2A0, symSize: 0x230 }
  - { offsetInCU: 0x2BBE4, offset: 0x365BBF, size: 0x8, addend: 0x0, symName: '__ZN4core3ptr45drop_in_place$LT$syn..path..PathArguments$GT$17h7160021b3fdea550E', symObjAddr: 0x4F70, symBinAddr: 0xCA4D0, symSize: 0x170 }
  - { offsetInCU: 0x2C081, offset: 0x36605C, size: 0x8, addend: 0x0, symName: '__ZN4core3ptr46drop_in_place$LT$syn..generics..ConstParam$GT$17hab0a58c4af8c549cE.llvm.14890500243436994185', symObjAddr: 0x50E0, symBinAddr: 0xCA640, symSize: 0x150 }
  - { offsetInCU: 0x2C44E, offset: 0x366429, size: 0x8, addend: 0x0, symName: '__ZN4core3ptr46drop_in_place$LT$syn..generics..TraitBound$GT$17h73aacd08fea17a2cE.llvm.14890500243436994185', symObjAddr: 0x5230, symBinAddr: 0xCA790, symSize: 0xF0 }
  - { offsetInCU: 0x2C7B5, offset: 0x366790, size: 0x8, addend: 0x0, symName: '__ZN4core3ptr47drop_in_place$LT$syn..path..GenericArgument$GT$17h54f8794633f96823E', symObjAddr: 0x5320, symBinAddr: 0xCA880, symSize: 0x4A0 }
  - { offsetInCU: 0x2D85C, offset: 0x367837, size: 0x8, addend: 0x0, symName: '__ZN4core3ptr49drop_in_place$LT$syn..generics..LifetimeParam$GT$17h41a7c7a290ea6289E.llvm.14890500243436994185', symObjAddr: 0x57C0, symBinAddr: 0xCAD20, symSize: 0xF0 }
  - { offsetInCU: 0x2DC35, offset: 0x367C10, size: 0x8, addend: 0x0, symName: '__ZN4core3ptr50drop_in_place$LT$syn..generics..TypeParamBound$GT$17hcd7771d4c6c221efE', symObjAddr: 0x5920, symBinAddr: 0xCAE10, symSize: 0xA0 }
  - { offsetInCU: 0x2DD9C, offset: 0x367D77, size: 0x8, addend: 0x0, symName: '__ZN4core3ptr58drop_in_place$LT$alloc..vec..Vec$LT$syn..expr..Arm$GT$$GT$17h1a55df3d2cba1daaE', symObjAddr: 0x5A00, symBinAddr: 0xCAEB0, symSize: 0xD0 }
  - { offsetInCU: 0x2E029, offset: 0x368004, size: 0x8, addend: 0x0, symName: '__ZN4core3ptr59drop_in_place$LT$alloc..boxed..Box$LT$syn..pat..Pat$GT$$GT$17h563b135d87aca8abE', symObjAddr: 0x5AD0, symBinAddr: 0xCAF80, symSize: 0x50 }
  - { offsetInCU: 0x2E184, offset: 0x36815F, size: 0x8, addend: 0x0, symName: '__ZN4core3ptr59drop_in_place$LT$alloc..boxed..Box$LT$syn..ty..Type$GT$$GT$17hffed36bad83adacbE', symObjAddr: 0x5B20, symBinAddr: 0xCAFD0, symSize: 0x50 }
  - { offsetInCU: 0x2E2DF, offset: 0x3682BA, size: 0x8, addend: 0x0, symName: '__ZN4core3ptr61drop_in_place$LT$alloc..boxed..Box$LT$syn..expr..Expr$GT$$GT$17h01091e47f131475dE', symObjAddr: 0x5B70, symBinAddr: 0xCB020, symSize: 0x50 }
  - { offsetInCU: 0x2E4B6, offset: 0x368491, size: 0x8, addend: 0x0, symName: '__ZN4core3ptr61drop_in_place$LT$syn..path..ParenthesizedGenericArguments$GT$17h43d4aac5494326a7E', symObjAddr: 0x5BC0, symBinAddr: 0xCB070, symSize: 0x170 }
  - { offsetInCU: 0x2EA7D, offset: 0x368A58, size: 0x8, addend: 0x0, symName: '__ZN4core3ptr62drop_in_place$LT$syn..path..AngleBracketedGenericArguments$GT$17hc5b69f68243636ddE', symObjAddr: 0x5D50, symBinAddr: 0xCB1E0, symSize: 0x120 }
  - { offsetInCU: 0x2EE93, offset: 0x368E6E, size: 0x8, addend: 0x0, symName: '__ZN4core3ptr63drop_in_place$LT$alloc..boxed..Box$LT$syn..lit..LitRepr$GT$$GT$17hd8839b7fb35ee7afE', symObjAddr: 0x5E70, symBinAddr: 0xCB300, symSize: 0x60 }
  - { offsetInCU: 0x2F188, offset: 0x369163, size: 0x8, addend: 0x0, symName: '__ZN4core3ptr64drop_in_place$LT$alloc..boxed..Box$LT$syn..pat..FieldPat$GT$$GT$17h4980b70a7597cc08E', symObjAddr: 0x5ED0, symBinAddr: 0xCB360, symSize: 0x140 }
  - { offsetInCU: 0x2F833, offset: 0x36980E, size: 0x8, addend: 0x0, symName: '__ZN4core3ptr64drop_in_place$LT$alloc..boxed..Box$LT$syn..ty..BareFnArg$GT$$GT$17h8b34096c620314efE', symObjAddr: 0x6010, symBinAddr: 0xCB4A0, symSize: 0x140 }
  - { offsetInCU: 0x2FD57, offset: 0x369D32, size: 0x8, addend: 0x0, symName: '__ZN4core3ptr64drop_in_place$LT$alloc..vec..Vec$LT$syn..attr..Attribute$GT$$GT$17h3c8f2a04e701c675E.llvm.14890500243436994185', symObjAddr: 0x6150, symBinAddr: 0xCB5E0, symSize: 0xD0 }
  - { offsetInCU: 0x2FFE4, offset: 0x369FBF, size: 0x8, addend: 0x0, symName: '__ZN4core3ptr65drop_in_place$LT$core..option..Option$LT$syn..expr..Label$GT$$GT$17h78189e72a8cb7951E', symObjAddr: 0x6240, symBinAddr: 0xCB6B0, symSize: 0x30 }
  - { offsetInCU: 0x3011F, offset: 0x36A0FA, size: 0x8, addend: 0x0, symName: '__ZN4core3ptr66drop_in_place$LT$core..option..Option$LT$syn..pat..PatRest$GT$$GT$17h61677cf4ff3a7393E', symObjAddr: 0x6270, symBinAddr: 0xCB6E0, symSize: 0xE0 }
  - { offsetInCU: 0x303A3, offset: 0x36A37E, size: 0x8, addend: 0x0, symName: '__ZN4core3ptr67drop_in_place$LT$alloc..boxed..Box$LT$syn..expr..FieldValue$GT$$GT$17h93aaccf8aa22ef88E', symObjAddr: 0x6350, symBinAddr: 0xCB7C0, symSize: 0x140 }
  - { offsetInCU: 0x308A7, offset: 0x36A882, size: 0x8, addend: 0x0, symName: '__ZN4core3ptr68drop_in_place$LT$alloc..boxed..Box$LT$syn..path..PathSegment$GT$$GT$17h709dabdc13b58a71E', symObjAddr: 0x6490, symBinAddr: 0xCB900, symSize: 0x190 }
  - { offsetInCU: 0x30F85, offset: 0x36AF60, size: 0x8, addend: 0x0, symName: '__ZN4core3ptr70drop_in_place$LT$core..option..Option$LT$syn..ty..BareVariadic$GT$$GT$17h45399348ea4b8d55E', symObjAddr: 0x6620, symBinAddr: 0xCBA90, symSize: 0x120 }
  - { offsetInCU: 0x314B2, offset: 0x36B48D, size: 0x8, addend: 0x0, symName: '__ZN4core3ptr72drop_in_place$LT$alloc..boxed..Box$LT$syn..path..GenericArgument$GT$$GT$17haa7dd8b716637b54E', symObjAddr: 0x6740, symBinAddr: 0xCBBB0, symSize: 0x2B0 }
  - { offsetInCU: 0x31E3D, offset: 0x36BE18, size: 0x8, addend: 0x0, symName: '__ZN4core3ptr72drop_in_place$LT$core..option..Option$LT$syn..lifetime..Lifetime$GT$$GT$17hfc363ccdd8bd9c32E', symObjAddr: 0x69F0, symBinAddr: 0xCBE60, symSize: 0x30 }
  - { offsetInCU: 0x31F59, offset: 0x36BF34, size: 0x8, addend: 0x0, symName: '__ZN4core3ptr73drop_in_place$LT$alloc..boxed..Box$LT$syn..generics..GenericParam$GT$$GT$17hf6951dcd5ae07324E.llvm.14890500243436994185', symObjAddr: 0x6A20, symBinAddr: 0xCBE90, symSize: 0x80 }
  - { offsetInCU: 0x320D1, offset: 0x36C0AC, size: 0x8, addend: 0x0, symName: '__ZN4core3ptr75drop_in_place$LT$alloc..boxed..Box$LT$syn..generics..TypeParamBound$GT$$GT$17he61c00698a311a34E', symObjAddr: 0x6AA0, symBinAddr: 0xCBF10, symSize: 0x160 }
  - { offsetInCU: 0x326B6, offset: 0x36C691, size: 0x8, addend: 0x0, symName: '__ZN4core3ptr86drop_in_place$LT$syn..punctuated..Punctuated$LT$syn..pat..Pat$C$syn..token..Or$GT$$GT$17h8e9173df21a44316E', symObjAddr: 0x6CB0, symBinAddr: 0xCC070, symSize: 0x120 }
  - { offsetInCU: 0x32AFC, offset: 0x36CAD7, size: 0x8, addend: 0x0, symName: '__ZN4core3ptr87drop_in_place$LT$core..option..Option$LT$alloc..boxed..Box$LT$syn..pat..Pat$GT$$GT$$GT$17hd7b7c69f601b3926E', symObjAddr: 0x6DD0, symBinAddr: 0xCC190, symSize: 0x50 }
  - { offsetInCU: 0x32C6E, offset: 0x36CC49, size: 0x8, addend: 0x0, symName: '__ZN4core3ptr87drop_in_place$LT$core..option..Option$LT$alloc..boxed..Box$LT$syn..ty..Type$GT$$GT$$GT$17hd74f5d971aec2972E', symObjAddr: 0x6E20, symBinAddr: 0xCC1E0, symSize: 0x50 }
  - { offsetInCU: 0x32DE0, offset: 0x36CDBB, size: 0x8, addend: 0x0, symName: '__ZN4core3ptr89drop_in_place$LT$core..option..Option$LT$alloc..boxed..Box$LT$syn..expr..Expr$GT$$GT$$GT$17h8e135ac1a25a2dc5E', symObjAddr: 0x6E70, symBinAddr: 0xCC230, symSize: 0x50 }
  - { offsetInCU: 0x32F90, offset: 0x36CF6B, size: 0x8, addend: 0x0, symName: '__ZN4core3ptr89drop_in_place$LT$syn..punctuated..Punctuated$LT$syn..pat..Pat$C$syn..token..Comma$GT$$GT$17h8d60e47f3fb1f87aE', symObjAddr: 0x6EC0, symBinAddr: 0xCC280, symSize: 0x120 }
  - { offsetInCU: 0x333ED, offset: 0x36D3C8, size: 0x8, addend: 0x0, symName: '__ZN4core3ptr89drop_in_place$LT$syn..punctuated..Punctuated$LT$syn..ty..Type$C$syn..token..Comma$GT$$GT$17ha919b3114742fb9dE', symObjAddr: 0x6FE0, symBinAddr: 0xCC3A0, symSize: 0x120 }
  - { offsetInCU: 0x33837, offset: 0x36D812, size: 0x8, addend: 0x0, symName: '__ZN4core3ptr90drop_in_place$LT$core..option..Option$LT$syn..path..AngleBracketedGenericArguments$GT$$GT$17h80d9a5f0818c8bd9E', symObjAddr: 0x7100, symBinAddr: 0xCC4C0, symSize: 0x130 }
  - { offsetInCU: 0x33CA2, offset: 0x36DC7D, size: 0x8, addend: 0x0, symName: '__ZN4core3ptr91drop_in_place$LT$syn..punctuated..Punctuated$LT$syn..expr..Expr$C$syn..token..Comma$GT$$GT$17h4f39b83dc86a4159E', symObjAddr: 0x7230, symBinAddr: 0xCC5F0, symSize: 0x120 }
  - { offsetInCU: 0x340FF, offset: 0x36E0DA, size: 0x8, addend: 0x0, symName: '__ZN4core3ptr94drop_in_place$LT$syn..punctuated..Punctuated$LT$syn..pat..FieldPat$C$syn..token..Comma$GT$$GT$17h112950ea198c8281E', symObjAddr: 0x7350, symBinAddr: 0xCC710, symSize: 0xF0 }
  - { offsetInCU: 0x343C9, offset: 0x36E3A4, size: 0x8, addend: 0x0, symName: '__ZN4core3ptr94drop_in_place$LT$syn..punctuated..Punctuated$LT$syn..ty..BareFnArg$C$syn..token..Comma$GT$$GT$17h1c7b44310f06243dE', symObjAddr: 0x7440, symBinAddr: 0xCC800, symSize: 0xF0 }
  - { offsetInCU: 0x34693, offset: 0x36E66E, size: 0x8, addend: 0x0, symName: '__ZN4core3ptr96drop_in_place$LT$core..option..Option$LT$alloc..boxed..Box$LT$syn..path..PathSegment$GT$$GT$$GT$17hb447d0f626c86a4eE', symObjAddr: 0x7530, symBinAddr: 0xCC8F0, symSize: 0x90 }
  - { offsetInCU: 0x34915, offset: 0x36E8F0, size: 0x8, addend: 0x0, symName: '__ZN4core3ptr97drop_in_place$LT$syn..punctuated..Punctuated$LT$syn..expr..FieldValue$C$syn..token..Comma$GT$$GT$17h31b81f7462228dcbE', symObjAddr: 0x75C0, symBinAddr: 0xCC980, symSize: 0xF0 }
  - { offsetInCU: 0x34BDF, offset: 0x36EBBA, size: 0x8, addend: 0x0, symName: '__ZN4core3ptr98drop_in_place$LT$alloc..vec..Vec$LT$$LP$syn..path..GenericArgument$C$syn..token..Comma$RP$$GT$$GT$17h0657ff261f33b640E', symObjAddr: 0x76B0, symBinAddr: 0xCCA70, symSize: 0xD0 }
  - { offsetInCU: 0x34EE8, offset: 0x36EEC3, size: 0x8, addend: 0x0, symName: '__ZN4core3ptr98drop_in_place$LT$syn..punctuated..Punctuated$LT$syn..lifetime..Lifetime$C$syn..token..Plus$GT$$GT$17h0f8fc5f20f465f47E.llvm.14890500243436994185', symObjAddr: 0x7780, symBinAddr: 0xCCB40, symSize: 0xC0 }
  - { offsetInCU: 0x3E313, offset: 0x3782EE, size: 0x8, addend: 0x0, symName: '__ZN3syn8generics7parsing47_$LT$impl$u20$syn..generics..TypeParamBound$GT$14parse_multiple17h0a18ee52418b5a4eE', symObjAddr: 0xC610, symBinAddr: 0xD03B0, symSize: 0x560 }
  - { offsetInCU: 0xE7B, offset: 0x382BCC, size: 0x8, addend: 0x0, symName: '__ZN60_$LT$syn..token..Underscore$u20$as$u20$syn..token..Token$GT$4peek17h789d27f9bb6ea028E', symObjAddr: 0xA30, symBinAddr: 0xD4480, symSize: 0x250 }
  - { offsetInCU: 0x167D, offset: 0x3833CE, size: 0x8, addend: 0x0, symName: '__ZN55_$LT$syn..token..Paren$u20$as$u20$syn..token..Token$GT$4peek17h25e234046af6258dE', symObjAddr: 0xEE0, symBinAddr: 0xD47F0, symSize: 0xB0 }
  - { offsetInCU: 0x16D0, offset: 0x383421, size: 0x8, addend: 0x0, symName: '__ZN55_$LT$syn..token..Paren$u20$as$u20$syn..token..Token$GT$4peek17h25e234046af6258dE', symObjAddr: 0xEE0, symBinAddr: 0xD47F0, symSize: 0xB0 }
  - { offsetInCU: 0x16E0, offset: 0x383431, size: 0x8, addend: 0x0, symName: '__ZN55_$LT$syn..token..Paren$u20$as$u20$syn..token..Token$GT$4peek17h25e234046af6258dE', symObjAddr: 0xEE0, symBinAddr: 0xD47F0, symSize: 0xB0 }
  - { offsetInCU: 0x1818, offset: 0x383569, size: 0x8, addend: 0x0, symName: '__ZN55_$LT$syn..token..Brace$u20$as$u20$syn..token..Token$GT$4peek17ha752276b3db9eb99E', symObjAddr: 0xF90, symBinAddr: 0xD48A0, symSize: 0xB0 }
  - { offsetInCU: 0x186B, offset: 0x3835BC, size: 0x8, addend: 0x0, symName: '__ZN55_$LT$syn..token..Brace$u20$as$u20$syn..token..Token$GT$4peek17ha752276b3db9eb99E', symObjAddr: 0xF90, symBinAddr: 0xD48A0, symSize: 0xB0 }
  - { offsetInCU: 0x187B, offset: 0x3835CC, size: 0x8, addend: 0x0, symName: '__ZN55_$LT$syn..token..Brace$u20$as$u20$syn..token..Token$GT$4peek17ha752276b3db9eb99E', symObjAddr: 0xF90, symBinAddr: 0xD48A0, symSize: 0xB0 }
  - { offsetInCU: 0x19BB, offset: 0x38370C, size: 0x8, addend: 0x0, symName: '__ZN57_$LT$syn..token..Bracket$u20$as$u20$syn..token..Token$GT$4peek17h3f4b3ccc9e26c654E', symObjAddr: 0x1040, symBinAddr: 0xD4950, symSize: 0xB0 }
  - { offsetInCU: 0x1A0E, offset: 0x38375F, size: 0x8, addend: 0x0, symName: '__ZN57_$LT$syn..token..Bracket$u20$as$u20$syn..token..Token$GT$4peek17h3f4b3ccc9e26c654E', symObjAddr: 0x1040, symBinAddr: 0xD4950, symSize: 0xB0 }
  - { offsetInCU: 0x1A1E, offset: 0x38376F, size: 0x8, addend: 0x0, symName: '__ZN57_$LT$syn..token..Bracket$u20$as$u20$syn..token..Token$GT$4peek17h3f4b3ccc9e26c654E', symObjAddr: 0x1040, symBinAddr: 0xD4950, symSize: 0xB0 }
  - { offsetInCU: 0x1B8B, offset: 0x3838DC, size: 0x8, addend: 0x0, symName: '__ZN52_$LT$syn..token..As$u20$as$u20$syn..parse..Parse$GT$5parse17h85019d46556fbac3E', symObjAddr: 0x1350, symBinAddr: 0xD4A00, symSize: 0x60 }
  - { offsetInCU: 0x1C40, offset: 0x383991, size: 0x8, addend: 0x0, symName: '__ZN55_$LT$syn..token..Async$u20$as$u20$syn..token..Token$GT$4peek17h7ff0a4a69488c77fE', symObjAddr: 0x14D0, symBinAddr: 0xD4A60, symSize: 0x20 }
  - { offsetInCU: 0x1C77, offset: 0x3839C8, size: 0x8, addend: 0x0, symName: '__ZN54_$LT$syn..token..Auto$u20$as$u20$syn..token..Token$GT$4peek17hebee82bb54c38895E', symObjAddr: 0x15F0, symBinAddr: 0xD4A80, symSize: 0x20 }
  - { offsetInCU: 0x1D08, offset: 0x383A59, size: 0x8, addend: 0x0, symName: '__ZN55_$LT$syn..token..Const$u20$as$u20$syn..parse..Parse$GT$5parse17h46c6cc59779da60bE', symObjAddr: 0x1B30, symBinAddr: 0xD4AA0, symSize: 0x60 }
  - { offsetInCU: 0x1D90, offset: 0x383AE1, size: 0x8, addend: 0x0, symName: '__ZN55_$LT$syn..token..Const$u20$as$u20$syn..token..Token$GT$4peek17h2d7d2aba6f15afccE', symObjAddr: 0x1B90, symBinAddr: 0xD4B00, symSize: 0x20 }
  - { offsetInCU: 0x1DC7, offset: 0x383B18, size: 0x8, addend: 0x0, symName: '__ZN55_$LT$syn..token..Crate$u20$as$u20$syn..token..Token$GT$4peek17hd3ff9f9064291857E', symObjAddr: 0x1DD0, symBinAddr: 0xD4B20, symSize: 0x20 }
  - { offsetInCU: 0x1DFE, offset: 0x383B4F, size: 0x8, addend: 0x0, symName: '__ZN53_$LT$syn..token..Dyn$u20$as$u20$syn..parse..Parse$GT$5parse17hd552992672026ee9E', symObjAddr: 0x20D0, symBinAddr: 0xD4B40, symSize: 0x60 }
  - { offsetInCU: 0x1E86, offset: 0x383BD7, size: 0x8, addend: 0x0, symName: '__ZN54_$LT$syn..token..Else$u20$as$u20$syn..parse..Parse$GT$5parse17h2b2f89d9de8133a6E', symObjAddr: 0x21F0, symBinAddr: 0xD4BA0, symSize: 0x60 }
  - { offsetInCU: 0x1F0E, offset: 0x383C5F, size: 0x8, addend: 0x0, symName: '__ZN54_$LT$syn..token..Enum$u20$as$u20$syn..token..Token$GT$4peek17h70f8ca6d0a57ae7cE', symObjAddr: 0x2370, symBinAddr: 0xD4C00, symSize: 0x20 }
  - { offsetInCU: 0x1F45, offset: 0x383C96, size: 0x8, addend: 0x0, symName: '__ZN56_$LT$syn..token..Extern$u20$as$u20$syn..token..Token$GT$4peek17h0a1088e1ed9ac636E', symObjAddr: 0x2490, symBinAddr: 0xD4C20, symSize: 0x20 }
  - { offsetInCU: 0x1F7C, offset: 0x383CCD, size: 0x8, addend: 0x0, symName: '__ZN52_$LT$syn..token..Fn$u20$as$u20$syn..parse..Parse$GT$5parse17hbae4b7e03a0010e0E', symObjAddr: 0x2670, symBinAddr: 0xD4C40, symSize: 0x60 }
  - { offsetInCU: 0x2004, offset: 0x383D55, size: 0x8, addend: 0x0, symName: '__ZN52_$LT$syn..token..Fn$u20$as$u20$syn..token..Token$GT$4peek17hc7676a7b46f9ffb9E', symObjAddr: 0x26D0, symBinAddr: 0xD4CA0, symSize: 0x20 }
  - { offsetInCU: 0x2068, offset: 0x383DB9, size: 0x8, addend: 0x0, symName: '__ZN53_$LT$syn..token..For$u20$as$u20$syn..parse..Parse$GT$5parse17h7830b2807da6697cE', symObjAddr: 0x2790, symBinAddr: 0xD4CC0, symSize: 0x60 }
  - { offsetInCU: 0x20F0, offset: 0x383E41, size: 0x8, addend: 0x0, symName: '__ZN54_$LT$syn..token..Impl$u20$as$u20$syn..token..Token$GT$4peek17h1bc8c1a17a8ac247E', symObjAddr: 0x2A30, symBinAddr: 0xD4D20, symSize: 0x20 }
  - { offsetInCU: 0x2154, offset: 0x383EA5, size: 0x8, addend: 0x0, symName: '__ZN52_$LT$syn..token..In$u20$as$u20$syn..parse..Parse$GT$5parse17hec49a7644160a01eE', symObjAddr: 0x2AF0, symBinAddr: 0xD4D40, symSize: 0x60 }
  - { offsetInCU: 0x2236, offset: 0x383F87, size: 0x8, addend: 0x0, symName: '__ZN55_$LT$syn..token..Macro$u20$as$u20$syn..token..Token$GT$4peek17h6210815ff705b39aE', symObjAddr: 0x2EB0, symBinAddr: 0xD4DA0, symSize: 0x20 }
  - { offsetInCU: 0x229A, offset: 0x383FEB, size: 0x8, addend: 0x0, symName: '__ZN53_$LT$syn..token..Mod$u20$as$u20$syn..token..Token$GT$4peek17hbe008020d570fc7bE', symObjAddr: 0x30F0, symBinAddr: 0xD4DC0, symSize: 0x20 }
  - { offsetInCU: 0x22FE, offset: 0x38404F, size: 0x8, addend: 0x0, symName: '__ZN54_$LT$syn..token..Move$u20$as$u20$syn..token..Token$GT$4peek17h64855903f4cc82c7E', symObjAddr: 0x3210, symBinAddr: 0xD4DE0, symSize: 0x20 }
  - { offsetInCU: 0x2362, offset: 0x3840B3, size: 0x8, addend: 0x0, symName: '__ZN53_$LT$syn..token..Mut$u20$as$u20$syn..token..Token$GT$4peek17hfa3b784a7986bc45E', symObjAddr: 0x3330, symBinAddr: 0xD4E00, symSize: 0x20 }
  - { offsetInCU: 0x23C6, offset: 0x384117, size: 0x8, addend: 0x0, symName: '__ZN53_$LT$syn..token..Ref$u20$as$u20$syn..token..Token$GT$4peek17h767951e2892cf942E', symObjAddr: 0x37B0, symBinAddr: 0xD4E20, symSize: 0x20 }
  - { offsetInCU: 0x23FD, offset: 0x38414E, size: 0x8, addend: 0x0, symName: '__ZN58_$LT$syn..token..SelfType$u20$as$u20$syn..token..Token$GT$4peek17h0c0bc843190daad6E', symObjAddr: 0x39F0, symBinAddr: 0xD4E40, symSize: 0x20 }
  - { offsetInCU: 0x2434, offset: 0x384185, size: 0x8, addend: 0x0, symName: '__ZN59_$LT$syn..token..SelfValue$u20$as$u20$syn..parse..Parse$GT$5parse17h051d3709124c46d9E', symObjAddr: 0x3AB0, symBinAddr: 0xD4E60, symSize: 0x60 }
  - { offsetInCU: 0x24BC, offset: 0x38420D, size: 0x8, addend: 0x0, symName: '__ZN59_$LT$syn..token..SelfValue$u20$as$u20$syn..token..Token$GT$4peek17h50318bcccdb91ecaE', symObjAddr: 0x3B10, symBinAddr: 0xD4EC0, symSize: 0x20 }
  - { offsetInCU: 0x24F3, offset: 0x384244, size: 0x8, addend: 0x0, symName: '__ZN56_$LT$syn..token..Static$u20$as$u20$syn..parse..Parse$GT$5parse17h5bb5f7745c7fe15eE', symObjAddr: 0x3BD0, symBinAddr: 0xD4EE0, symSize: 0x60 }
  - { offsetInCU: 0x257B, offset: 0x3842CC, size: 0x8, addend: 0x0, symName: '__ZN56_$LT$syn..token..Static$u20$as$u20$syn..token..Token$GT$4peek17he4be23aaf817aacaE', symObjAddr: 0x3C30, symBinAddr: 0xD4F40, symSize: 0x20 }
  - { offsetInCU: 0x25B2, offset: 0x384303, size: 0x8, addend: 0x0, symName: '__ZN56_$LT$syn..token..Struct$u20$as$u20$syn..token..Token$GT$4peek17h19827cbab69b1623E', symObjAddr: 0x3D50, symBinAddr: 0xD4F60, symSize: 0x20 }
  - { offsetInCU: 0x25E9, offset: 0x38433A, size: 0x8, addend: 0x0, symName: '__ZN55_$LT$syn..token..Super$u20$as$u20$syn..token..Token$GT$4peek17h275967d5b34f27d3E', symObjAddr: 0x3E70, symBinAddr: 0xD4F80, symSize: 0x20 }
  - { offsetInCU: 0x2620, offset: 0x384371, size: 0x8, addend: 0x0, symName: '__ZN55_$LT$syn..token..Trait$u20$as$u20$syn..token..Token$GT$4peek17h02f104e1d9e561e9E', symObjAddr: 0x3F90, symBinAddr: 0xD4FA0, symSize: 0x20 }
  - { offsetInCU: 0x2684, offset: 0x3843D5, size: 0x8, addend: 0x0, symName: '__ZN53_$LT$syn..token..Try$u20$as$u20$syn..token..Token$GT$4peek17had59752cb32497b6E', symObjAddr: 0x40B0, symBinAddr: 0xD4FC0, symSize: 0x20 }
  - { offsetInCU: 0x26BB, offset: 0x38440C, size: 0x8, addend: 0x0, symName: '__ZN54_$LT$syn..token..Type$u20$as$u20$syn..token..Token$GT$4peek17hd609b66210c77b34E', symObjAddr: 0x41D0, symBinAddr: 0xD4FE0, symSize: 0x20 }
  - { offsetInCU: 0x26F2, offset: 0x384443, size: 0x8, addend: 0x0, symName: '__ZN55_$LT$syn..token..Union$u20$as$u20$syn..token..Token$GT$4peek17h95e4cdd0419c4cc2E', symObjAddr: 0x4410, symBinAddr: 0xD5000, symSize: 0x20 }
  - { offsetInCU: 0x2756, offset: 0x3844A7, size: 0x8, addend: 0x0, symName: '__ZN56_$LT$syn..token..Unsafe$u20$as$u20$syn..parse..Parse$GT$5parse17hba2df29f6bec55cdE', symObjAddr: 0x44D0, symBinAddr: 0xD5020, symSize: 0x60 }
  - { offsetInCU: 0x27DE, offset: 0x38452F, size: 0x8, addend: 0x0, symName: '__ZN56_$LT$syn..token..Unsafe$u20$as$u20$syn..token..Token$GT$4peek17h5bb5d41f3ab3faf1E', symObjAddr: 0x4530, symBinAddr: 0xD5080, symSize: 0x20 }
  - { offsetInCU: 0x2815, offset: 0x384566, size: 0x8, addend: 0x0, symName: '__ZN53_$LT$syn..token..Use$u20$as$u20$syn..token..Token$GT$4peek17hb629dd0a0c930e39E', symObjAddr: 0x4770, symBinAddr: 0xD50A0, symSize: 0x20 }
  - { offsetInCU: 0x28A6, offset: 0x3845F7, size: 0x8, addend: 0x0, symName: '__ZN53_$LT$syn..token..And$u20$as$u20$syn..parse..Parse$GT$5parse17h5b38fc9651d95e98E', symObjAddr: 0x4C40, symBinAddr: 0xD50C0, symSize: 0x50 }
  - { offsetInCU: 0x2909, offset: 0x38465A, size: 0x8, addend: 0x0, symName: '__ZN53_$LT$syn..token..And$u20$as$u20$syn..token..Token$GT$4peek17h977f39081b12fb5aE', symObjAddr: 0x4C90, symBinAddr: 0xD5110, symSize: 0x20 }
  - { offsetInCU: 0x2940, offset: 0x384691, size: 0x8, addend: 0x0, symName: '__ZN55_$LT$syn..token..Caret$u20$as$u20$syn..parse..Parse$GT$5parse17h985441110bef27beE', symObjAddr: 0x4EC0, symBinAddr: 0xD5130, symSize: 0x50 }
  - { offsetInCU: 0x29D0, offset: 0x384721, size: 0x8, addend: 0x0, symName: '__ZN55_$LT$syn..token..Colon$u20$as$u20$syn..parse..Parse$GT$5parse17hb173b91a971bef7cE', symObjAddr: 0x5000, symBinAddr: 0xD5180, symSize: 0x50 }
  - { offsetInCU: 0x2A33, offset: 0x384784, size: 0x8, addend: 0x0, symName: '__ZN55_$LT$syn..token..Colon$u20$as$u20$syn..token..Token$GT$4peek17hda082e4f86b2eba7E', symObjAddr: 0x5050, symBinAddr: 0xD51D0, symSize: 0x20 }
  - { offsetInCU: 0x2A6A, offset: 0x3847BB, size: 0x8, addend: 0x0, symName: '__ZN55_$LT$syn..token..Comma$u20$as$u20$syn..parse..Parse$GT$5parse17hd6bc62bc2c71a22aE', symObjAddr: 0x50A0, symBinAddr: 0xD51F0, symSize: 0x50 }
  - { offsetInCU: 0x2ACD, offset: 0x38481E, size: 0x8, addend: 0x0, symName: '__ZN55_$LT$syn..token..Comma$u20$as$u20$syn..token..Token$GT$4peek17h35a333ecf294aee4E', symObjAddr: 0x50F0, symBinAddr: 0xD5240, symSize: 0x20 }
  - { offsetInCU: 0x2B31, offset: 0x384882, size: 0x8, addend: 0x0, symName: '__ZN53_$LT$syn..token..Dot$u20$as$u20$syn..token..Token$GT$4peek17h6d86fbdab90dfe7fE', symObjAddr: 0x5230, symBinAddr: 0xD5260, symSize: 0x20 }
  - { offsetInCU: 0x2B95, offset: 0x3848E6, size: 0x8, addend: 0x0, symName: '__ZN56_$LT$syn..token..DotDot$u20$as$u20$syn..token..Token$GT$4peek17hd3bd5b93702b4330E', symObjAddr: 0x52D0, symBinAddr: 0xD5280, symSize: 0x20 }
  - { offsetInCU: 0x2BCC, offset: 0x38491D, size: 0x8, addend: 0x0, symName: '__ZN59_$LT$syn..token..DotDotDot$u20$as$u20$syn..token..Token$GT$4peek17hb44c133be230bd96E', symObjAddr: 0x5390, symBinAddr: 0xD52A0, symSize: 0x20 }
  - { offsetInCU: 0x2C03, offset: 0x384954, size: 0x8, addend: 0x0, symName: '__ZN58_$LT$syn..token..DotDotEq$u20$as$u20$syn..token..Token$GT$4peek17h2fee0dc9b1a6aabeE', symObjAddr: 0x5450, symBinAddr: 0xD52C0, symSize: 0x20 }
  - { offsetInCU: 0x2C67, offset: 0x3849B8, size: 0x8, addend: 0x0, symName: '__ZN52_$LT$syn..token..Eq$u20$as$u20$syn..parse..Parse$GT$5parse17h9bd44d98b4fba545E', symObjAddr: 0x54A0, symBinAddr: 0xD52E0, symSize: 0x50 }
  - { offsetInCU: 0x2CCA, offset: 0x384A1B, size: 0x8, addend: 0x0, symName: '__ZN52_$LT$syn..token..Eq$u20$as$u20$syn..token..Token$GT$4peek17hfd0450a878fd20a5E', symObjAddr: 0x54F0, symBinAddr: 0xD5330, symSize: 0x20 }
  - { offsetInCU: 0x2D01, offset: 0x384A52, size: 0x8, addend: 0x0, symName: '__ZN52_$LT$syn..token..Gt$u20$as$u20$syn..parse..Parse$GT$5parse17h280d30dfd0ec0e88E', symObjAddr: 0x5720, symBinAddr: 0xD5350, symSize: 0x50 }
  - { offsetInCU: 0x2D64, offset: 0x384AB5, size: 0x8, addend: 0x0, symName: '__ZN52_$LT$syn..token..Gt$u20$as$u20$syn..token..Token$GT$4peek17hbf38b1119d014050E', symObjAddr: 0x5770, symBinAddr: 0xD53A0, symSize: 0x20 }
  - { offsetInCU: 0x2D9B, offset: 0x384AEC, size: 0x8, addend: 0x0, symName: '__ZN52_$LT$syn..token..Lt$u20$as$u20$syn..parse..Parse$GT$5parse17he341b95b06e78275E', symObjAddr: 0x5900, symBinAddr: 0xD53C0, symSize: 0x50 }
  - { offsetInCU: 0x2DFE, offset: 0x384B4F, size: 0x8, addend: 0x0, symName: '__ZN52_$LT$syn..token..Lt$u20$as$u20$syn..token..Token$GT$4peek17h5fc3809859b7b5faE', symObjAddr: 0x5950, symBinAddr: 0xD5410, symSize: 0x20 }
  - { offsetInCU: 0x2E35, offset: 0x384B86, size: 0x8, addend: 0x0, symName: '__ZN55_$LT$syn..token..Minus$u20$as$u20$syn..parse..Parse$GT$5parse17h477a6d776dd7b43dE', symObjAddr: 0x59A0, symBinAddr: 0xD5430, symSize: 0x50 }
  - { offsetInCU: 0x2EC5, offset: 0x384C16, size: 0x8, addend: 0x0, symName: '__ZN53_$LT$syn..token..Not$u20$as$u20$syn..parse..Parse$GT$5parse17hed95949511af2130E', symObjAddr: 0x5B80, symBinAddr: 0xD5480, symSize: 0x50 }
  - { offsetInCU: 0x2F28, offset: 0x384C79, size: 0x8, addend: 0x0, symName: '__ZN53_$LT$syn..token..Not$u20$as$u20$syn..token..Token$GT$4peek17hc7242dbe39d2cc52E', symObjAddr: 0x5BD0, symBinAddr: 0xD54D0, symSize: 0x20 }
  - { offsetInCU: 0x2F5F, offset: 0x384CB0, size: 0x8, addend: 0x0, symName: '__ZN52_$LT$syn..token..Or$u20$as$u20$syn..parse..Parse$GT$5parse17h9e4bc6c60c89d717E', symObjAddr: 0x5C20, symBinAddr: 0xD54F0, symSize: 0x50 }
  - { offsetInCU: 0x2FC2, offset: 0x384D13, size: 0x8, addend: 0x0, symName: '__ZN52_$LT$syn..token..Or$u20$as$u20$syn..token..Token$GT$4peek17hab4246a0272ea64dE', symObjAddr: 0x5C70, symBinAddr: 0xD5540, symSize: 0x20 }
  - { offsetInCU: 0x2FF9, offset: 0x384D4A, size: 0x8, addend: 0x0, symName: '__ZN57_$LT$syn..token..PathSep$u20$as$u20$syn..token..Token$GT$4peek17ha2b30e581acdbebaE', symObjAddr: 0x5E50, symBinAddr: 0xD5560, symSize: 0x20 }
  - { offsetInCU: 0x3030, offset: 0x384D81, size: 0x8, addend: 0x0, symName: '__ZN57_$LT$syn..token..Percent$u20$as$u20$syn..parse..Parse$GT$5parse17h011c51e35c593cf7E', symObjAddr: 0x5EA0, symBinAddr: 0xD5580, symSize: 0x50 }
  - { offsetInCU: 0x3093, offset: 0x384DE4, size: 0x8, addend: 0x0, symName: '__ZN54_$LT$syn..token..Plus$u20$as$u20$syn..parse..Parse$GT$5parse17hedad1693d91826e0E', symObjAddr: 0x5FE0, symBinAddr: 0xD55D0, symSize: 0x50 }
  - { offsetInCU: 0x3123, offset: 0x384E74, size: 0x8, addend: 0x0, symName: '__ZN55_$LT$syn..token..Pound$u20$as$u20$syn..token..Token$GT$4peek17hd045620e0630b5b3E', symObjAddr: 0x6170, symBinAddr: 0xD5620, symSize: 0x20 }
  - { offsetInCU: 0x3187, offset: 0x384ED8, size: 0x8, addend: 0x0, symName: '__ZN58_$LT$syn..token..Question$u20$as$u20$syn..token..Token$GT$4peek17h40ab090367cab48aE', symObjAddr: 0x6210, symBinAddr: 0xD5640, symSize: 0x20 }
  - { offsetInCU: 0x31EB, offset: 0x384F3C, size: 0x8, addend: 0x0, symName: '__ZN54_$LT$syn..token..Semi$u20$as$u20$syn..parse..Parse$GT$5parse17h5db424d26dfe3d07E', symObjAddr: 0x6300, symBinAddr: 0xD5660, symSize: 0x50 }
  - { offsetInCU: 0x324E, offset: 0x384F9F, size: 0x8, addend: 0x0, symName: '__ZN54_$LT$syn..token..Semi$u20$as$u20$syn..token..Token$GT$4peek17h5a07d3e2a049fb01E', symObjAddr: 0x6350, symBinAddr: 0xD56B0, symSize: 0x20 }
  - { offsetInCU: 0x3285, offset: 0x384FD6, size: 0x8, addend: 0x0, symName: '__ZN55_$LT$syn..token..ShlEq$u20$as$u20$syn..parse..Parse$GT$5parse17h0c287701508b04adE', symObjAddr: 0x6440, symBinAddr: 0xD56D0, symSize: 0x70 }
  - { offsetInCU: 0x333B, offset: 0x38508C, size: 0x8, addend: 0x0, symName: '__ZN55_$LT$syn..token..ShrEq$u20$as$u20$syn..parse..Parse$GT$5parse17h2537afed55ecadcaE', symObjAddr: 0x65A0, symBinAddr: 0xD5740, symSize: 0x70 }
  - { offsetInCU: 0x33F1, offset: 0x385142, size: 0x8, addend: 0x0, symName: '__ZN55_$LT$syn..token..Slash$u20$as$u20$syn..parse..Parse$GT$5parse17hd6cbb0af0be5e420E', symObjAddr: 0x6660, symBinAddr: 0xD57B0, symSize: 0x50 }
  - { offsetInCU: 0x3454, offset: 0x3851A5, size: 0x8, addend: 0x0, symName: '__ZN54_$LT$syn..token..Star$u20$as$u20$syn..parse..Parse$GT$5parse17hd453253e4a2951caE', symObjAddr: 0x67A0, symBinAddr: 0xD5800, symSize: 0x50 }
  - { offsetInCU: 0x34B7, offset: 0x385208, size: 0x8, addend: 0x0, symName: '__ZN54_$LT$syn..token..Star$u20$as$u20$syn..token..Token$GT$4peek17h0f086c1ea8af6077E', symObjAddr: 0x67F0, symBinAddr: 0xD5850, symSize: 0x20 }
  - { offsetInCU: 0xA1BC, offset: 0x38BF0D, size: 0x8, addend: 0x0, symName: '__ZN4core3ptr45drop_in_place$LT$proc_macro2..TokenStream$GT$17h3405f6c513e9f6cbE.llvm.7833956513218213385', symObjAddr: 0x730, symBinAddr: 0xD4340, symSize: 0x140 }
  - { offsetInCU: 0xFB43, offset: 0x391894, size: 0x8, addend: 0x0, symName: __ZN3syn5token5Group8surround17hfbe81a72805f5875E, symObjAddr: 0xDC0, symBinAddr: 0xD46D0, symSize: 0x120 }
  - { offsetInCU: 0xFE25, offset: 0x391B76, size: 0x8, addend: 0x0, symName: __ZN3syn5token5Brace8surround17h1616ad3374cfb32bE, symObjAddr: 0x7480, symBinAddr: 0xD5870, symSize: 0x250 }
  - { offsetInCU: 0x102CB, offset: 0x39201C, size: 0x8, addend: 0x0, symName: __ZN3syn5token5Brace8surround17h1d2920be538b3d67E, symObjAddr: 0x76D0, symBinAddr: 0xD5AC0, symSize: 0x230 }
  - { offsetInCU: 0x1071A, offset: 0x39246B, size: 0x8, addend: 0x0, symName: __ZN3syn5token5Brace8surround17h2f7384e739db3158E, symObjAddr: 0x7900, symBinAddr: 0xD5CF0, symSize: 0x250 }
  - { offsetInCU: 0x10BB3, offset: 0x392904, size: 0x8, addend: 0x0, symName: __ZN3syn5token5Brace8surround17h3cea1965078b46e8E, symObjAddr: 0x7B50, symBinAddr: 0xD5F40, symSize: 0x230 }
  - { offsetInCU: 0x110EB, offset: 0x392E3C, size: 0x8, addend: 0x0, symName: __ZN3syn5token5Brace8surround17h44f34f1ab411b35eE, symObjAddr: 0x7D80, symBinAddr: 0xD6170, symSize: 0x150 }
  - { offsetInCU: 0x113D5, offset: 0x393126, size: 0x8, addend: 0x0, symName: __ZN3syn5token5Brace8surround17h4f53dfd33b0aa4c6E, symObjAddr: 0x7ED0, symBinAddr: 0xD62C0, symSize: 0x230 }
  - { offsetInCU: 0x1191A, offset: 0x39366B, size: 0x8, addend: 0x0, symName: __ZN3syn5token5Brace8surround17h658cc35944b0b219E, symObjAddr: 0x8100, symBinAddr: 0xD64F0, symSize: 0x130 }
  - { offsetInCU: 0x11B5D, offset: 0x3938AE, size: 0x8, addend: 0x0, symName: __ZN3syn5token5Brace8surround17h67ec14ac595125f5E, symObjAddr: 0x8230, symBinAddr: 0xD6620, symSize: 0x460 }
  - { offsetInCU: 0x12792, offset: 0x3944E3, size: 0x8, addend: 0x0, symName: __ZN3syn5token5Brace8surround17h830f66792d95d6a1E, symObjAddr: 0x8690, symBinAddr: 0xD6A80, symSize: 0x190 }
  - { offsetInCU: 0x12A2C, offset: 0x39477D, size: 0x8, addend: 0x0, symName: __ZN3syn5token5Brace8surround17h93d6e9c0e4ef6056E, symObjAddr: 0x8820, symBinAddr: 0xD6C10, symSize: 0x0 }
  - { offsetInCU: 0x12F60, offset: 0x394CB1, size: 0x8, addend: 0x0, symName: __ZN3syn5token5Brace8surround17h9a2e80ca99906d35E, symObjAddr: 0x8A50, symBinAddr: 0xD6E40, symSize: 0x0 }
  - { offsetInCU: 0x131FE, offset: 0x394F4F, size: 0x8, addend: 0x0, symName: __ZN3syn5token5Brace8surround17hb0c8276345dde1c2E, symObjAddr: 0x8BD0, symBinAddr: 0xD6FC0, symSize: 0x1B0 }
  - { offsetInCU: 0x136F1, offset: 0x395442, size: 0x8, addend: 0x0, symName: __ZN3syn5token5Brace8surround17hb63569a8d18b567dE, symObjAddr: 0x8D80, symBinAddr: 0xD7170, symSize: 0x230 }
  - { offsetInCU: 0x13B81, offset: 0x3958D2, size: 0x8, addend: 0x0, symName: __ZN3syn5token5Brace8surround17hc53934dc4c14330eE, symObjAddr: 0x8FB0, symBinAddr: 0xD73A0, symSize: 0x460 }
  - { offsetInCU: 0x14584, offset: 0x3962D5, size: 0x8, addend: 0x0, symName: __ZN3syn5token5Brace8surround17hd5a84cf97badd42dE, symObjAddr: 0x9410, symBinAddr: 0xD7800, symSize: 0x230 }
  - { offsetInCU: 0x14AC9, offset: 0x39681A, size: 0x8, addend: 0x0, symName: __ZN3syn5token5Brace8surround17hd63b1effe05f3546E, symObjAddr: 0x9640, symBinAddr: 0xD7A30, symSize: 0x250 }
  - { offsetInCU: 0x14F62, offset: 0x396CB3, size: 0x8, addend: 0x0, symName: __ZN3syn5token5Brace8surround17hdb4abaf7d4aba6dfE, symObjAddr: 0x9890, symBinAddr: 0xD7C80, symSize: 0x230 }
  - { offsetInCU: 0x153F9, offset: 0x39714A, size: 0x8, addend: 0x0, symName: __ZN3syn5token5Brace8surround17hdca5a0a12cc0e09cE, symObjAddr: 0x9AC0, symBinAddr: 0xD7EB0, symSize: 0x250 }
  - { offsetInCU: 0x1590A, offset: 0x39765B, size: 0x8, addend: 0x0, symName: __ZN3syn5token5Brace8surround17he90b59b4e7ee997dE, symObjAddr: 0x9D10, symBinAddr: 0xD8100, symSize: 0x170 }
  - { offsetInCU: 0x15BC0, offset: 0x397911, size: 0x8, addend: 0x0, symName: __ZN3syn5token5Brace8surround17hecd06f1637cbfb86E, symObjAddr: 0x9E80, symBinAddr: 0xD8270, symSize: 0x230 }
  - { offsetInCU: 0x161E1, offset: 0x397F32, size: 0x8, addend: 0x0, symName: __ZN3syn5token5Brace8surround17hf04846c82ffc2b75E, symObjAddr: 0xA0B0, symBinAddr: 0xD84A0, symSize: 0x280 }
  - { offsetInCU: 0x16763, offset: 0x3984B4, size: 0x8, addend: 0x0, symName: __ZN3syn5token7Bracket8surround17h156a64f8715fd9d7E, symObjAddr: 0xA350, symBinAddr: 0xD8720, symSize: 0x190 }
  - { offsetInCU: 0x169BA, offset: 0x39870B, size: 0x8, addend: 0x0, symName: __ZN3syn5token7Bracket8surround17h3268c628a093763bE, symObjAddr: 0xA4E0, symBinAddr: 0xD88B0, symSize: 0x160 }
  - { offsetInCU: 0x16C2D, offset: 0x39897E, size: 0x8, addend: 0x0, symName: __ZN3syn5token7Bracket8surround17h59b80e5c4f1e2536E, symObjAddr: 0xA640, symBinAddr: 0xD8A10, symSize: 0x1A0 }
  - { offsetInCU: 0x17101, offset: 0x398E52, size: 0x8, addend: 0x0, symName: __ZN3syn5token7Bracket8surround17h666da6b44b8f2314E, symObjAddr: 0xA7E0, symBinAddr: 0xD8BB0, symSize: 0x130 }
  - { offsetInCU: 0x17333, offset: 0x399084, size: 0x8, addend: 0x0, symName: __ZN3syn5token7Bracket8surround17he461d4c5258c6ed9E, symObjAddr: 0xAAB0, symBinAddr: 0xD8CE0, symSize: 0x130 }
  - { offsetInCU: 0x1753C, offset: 0x39928D, size: 0x8, addend: 0x0, symName: __ZN3syn5token7Bracket8surround17hf2f56b7ec8e6cdfdE, symObjAddr: 0xABE0, symBinAddr: 0xD8E10, symSize: 0x150 }
  - { offsetInCU: 0x1786D, offset: 0x3995BE, size: 0x8, addend: 0x0, symName: __ZN3syn5token5Paren8surround17h149d374eeacaaaf0E, symObjAddr: 0xAE80, symBinAddr: 0xD8F60, symSize: 0x360 }
  - { offsetInCU: 0x18222, offset: 0x399F73, size: 0x8, addend: 0x0, symName: __ZN3syn5token5Paren8surround17h17edd0d0ba5e5361E, symObjAddr: 0xB1E0, symBinAddr: 0xD92C0, symSize: 0x160 }
  - { offsetInCU: 0x18554, offset: 0x39A2A5, size: 0x8, addend: 0x0, symName: __ZN3syn5token5Paren8surround17h2a820c17fc4ce3a7E, symObjAddr: 0xB340, symBinAddr: 0xD9420, symSize: 0x210 }
  - { offsetInCU: 0x18AB6, offset: 0x39A807, size: 0x8, addend: 0x0, symName: __ZN3syn5token5Paren8surround17h618017ebbb591ce6E, symObjAddr: 0xB550, symBinAddr: 0xD9630, symSize: 0x1A0 }
  - { offsetInCU: 0x19011, offset: 0x39AD62, size: 0x8, addend: 0x0, symName: __ZN3syn5token5Paren8surround17haf0fe92dddd4f436E, symObjAddr: 0xB930, symBinAddr: 0xD97D0, symSize: 0x210 }
  - { offsetInCU: 0x1956E, offset: 0x39B2BF, size: 0x8, addend: 0x0, symName: __ZN3syn5token5Paren8surround17hb26de38efb8247a2E, symObjAddr: 0xBB40, symBinAddr: 0xD99E0, symSize: 0x130 }
  - { offsetInCU: 0x19745, offset: 0x39B496, size: 0x8, addend: 0x0, symName: __ZN3syn5token5Paren8surround17hb614c327a7c4effbE, symObjAddr: 0xBC70, symBinAddr: 0xD9B10, symSize: 0x130 }
  - { offsetInCU: 0x19949, offset: 0x39B69A, size: 0x8, addend: 0x0, symName: __ZN3syn5token5Paren8surround17hb72c32fa2faca43dE, symObjAddr: 0xBDA0, symBinAddr: 0xD9C40, symSize: 0x120 }
  - { offsetInCU: 0x19B52, offset: 0x39B8A3, size: 0x8, addend: 0x0, symName: __ZN3syn5token5Paren8surround17hbc9cea44f84e7c35E, symObjAddr: 0xBEC0, symBinAddr: 0xD9D60, symSize: 0x460 }
  - { offsetInCU: 0x1A555, offset: 0x39C2A6, size: 0x8, addend: 0x0, symName: __ZN3syn5token5Paren8surround17hbe460fe33e1b9807E, symObjAddr: 0xC320, symBinAddr: 0xDA1C0, symSize: 0x1A0 }
  - { offsetInCU: 0x1AA2B, offset: 0x39C77C, size: 0x8, addend: 0x0, symName: __ZN3syn5token5Paren8surround17hd6561f4009004b42E, symObjAddr: 0xC660, symBinAddr: 0xDA360, symSize: 0x120 }
  - { offsetInCU: 0x1AC34, offset: 0x39C985, size: 0x8, addend: 0x0, symName: __ZN3syn5token5Paren8surround17he038d9e0318c7237E, symObjAddr: 0xC780, symBinAddr: 0xDA480, symSize: 0x1A0 }
  - { offsetInCU: 0x1B1BB, offset: 0x39CF0C, size: 0x8, addend: 0x0, symName: __ZN3syn5token5Paren8surround17he1dbac95a537a101E, symObjAddr: 0xC920, symBinAddr: 0xDA620, symSize: 0x230 }
  - { offsetInCU: 0x1B9BF, offset: 0x39D710, size: 0x8, addend: 0x0, symName: __ZN3syn5token5Paren8surround17he21459b4274789cfE, symObjAddr: 0xCB50, symBinAddr: 0xDA850, symSize: 0x27B0 }
  - { offsetInCU: 0x214A5, offset: 0x3A31F6, size: 0x8, addend: 0x0, symName: __ZN3syn5token5Paren8surround17hf739ea3e87afa242E, symObjAddr: 0xF300, symBinAddr: 0xDD000, symSize: 0x260 }
  - { offsetInCU: 0x21B79, offset: 0x3A38CA, size: 0x8, addend: 0x0, symName: __ZN3syn5token5Paren8surround17hfdecddc10755409eE, symObjAddr: 0xF560, symBinAddr: 0xDD260, symSize: 0x18F }
  - { offsetInCU: 0x137A, offset: 0x3AC578, size: 0x8, addend: 0x0, symName: '__ZN77_$LT$$RF$$u5b$syn..attr..Attribute$u5d$$u20$as$u20$syn..attr..FilterAttrs$GT$5outer8is_outer17h05806f843d7deec4E.llvm.6340778183057508401', symObjAddr: 0x7D20, symBinAddr: 0xE4690, symSize: 0x20 }
  - { offsetInCU: 0x2116, offset: 0x3AD314, size: 0x8, addend: 0x0, symName: '__ZN3syn2ty8printing78_$LT$impl$u20$quote..to_tokens..ToTokens$u20$for$u20$syn..ty..BareVariadic$GT$9to_tokens17ha9341a662464f4c2E', symObjAddr: 0xBF20, symBinAddr: 0xE69D0, symSize: 0x150 }
  - { offsetInCU: 0x23C8, offset: 0x3AD5C6, size: 0x8, addend: 0x0, symName: '__ZN3syn2ty7parsing61_$LT$impl$u20$syn..parse..Parse$u20$for$u20$syn..ty..Type$GT$5parse17h889cc5bfbc020ab2E', symObjAddr: 0x7D40, symBinAddr: 0xE46B0, symSize: 0x30 }
  - { offsetInCU: 0x244E, offset: 0x3AD64C, size: 0x8, addend: 0x0, symName: '__ZN3syn2ty7parsing64_$LT$impl$u20$syn..parse..Parse$u20$for$u20$syn..ty..TypePtr$GT$5parse17h812b205086cf1413E', symObjAddr: 0x85B0, symBinAddr: 0xE46E0, symSize: 0x460 }
  - { offsetInCU: 0x3079, offset: 0x3AE277, size: 0x8, addend: 0x0, symName: '__ZN3syn2ty7parsing70_$LT$impl$u20$syn..parse..Parse$u20$for$u20$syn..ty..TypeReference$GT$5parse17h328046432bc63490E', symObjAddr: 0x8A10, symBinAddr: 0xE4B40, symSize: 0x3E0 }
  - { offsetInCU: 0x37FD, offset: 0x3AE9FB, size: 0x8, addend: 0x0, symName: '__ZN3syn2ty7parsing67_$LT$impl$u20$syn..parse..Parse$u20$for$u20$syn..ty..TypeBareFn$GT$5parse17h38aebc87a74f9b4cE', symObjAddr: 0x8DF0, symBinAddr: 0xE4F20, symSize: 0xE10 }
  - { offsetInCU: 0x4AF5, offset: 0x3AFCF3, size: 0x8, addend: 0x0, symName: '__ZN3syn2ty7parsing66_$LT$impl$u20$syn..parse..Parse$u20$for$u20$syn..ty..TypeNever$GT$5parse17h5e83694d4dbbe60bE', symObjAddr: 0x9C00, symBinAddr: 0xE5D30, symSize: 0x50 }
  - { offsetInCU: 0x4BA3, offset: 0x3AFDA1, size: 0x8, addend: 0x0, symName: '__ZN3syn2ty7parsing72_$LT$impl$u20$syn..parse..Parse$u20$for$u20$syn..ty..TypeTraitObject$GT$5parse17h26a0300cf5800a6aE', symObjAddr: 0xA600, symBinAddr: 0xE5F40, symSize: 0x1B0 }
  - { offsetInCU: 0x51E7, offset: 0x3B03E5, size: 0x8, addend: 0x0, symName: '__ZN3syn2ty7parsing66_$LT$impl$u20$syn..parse..Parse$u20$for$u20$syn..ty..TypeGroup$GT$5parse17h39a20901238debb2E', symObjAddr: 0xAFD0, symBinAddr: 0xE6730, symSize: 0x2A0 }
  - { offsetInCU: 0x5765, offset: 0x3B0963, size: 0x8, addend: 0x0, symName: '__ZN60_$LT$syn..ty..Type$u20$as$u20$quote..to_tokens..ToTokens$GT$9to_tokens17hb94ae3e2d75fc0b3E', symObjAddr: 0xC110, symBinAddr: 0xE6B20, symSize: 0xA30 }
  - { offsetInCU: 0x9B2C, offset: 0x3B4D2A, size: 0x8, addend: 0x0, symName: '__ZN3syn3gen5clone67_$LT$impl$u20$core..clone..Clone$u20$for$u20$syn..ty..BareFnArg$GT$5clone17hbf21853b379f8c0dE', symObjAddr: 0xCB70, symBinAddr: 0xE7550, symSize: 0x140 }
  - { offsetInCU: 0x9FD6, offset: 0x3B51D4, size: 0x8, addend: 0x0, symName: '__ZN3syn3gen5clone62_$LT$impl$u20$core..clone..Clone$u20$for$u20$syn..ty..Type$GT$5clone17h43a77bdbcaae263dE', symObjAddr: 0xCE20, symBinAddr: 0xE7690, symSize: 0x8C0 }
  - { offsetInCU: 0xBA71, offset: 0x3B6C6F, size: 0x8, addend: 0x0, symName: '__ZN3syn3gen5clone68_$LT$impl$u20$core..clone..Clone$u20$for$u20$syn..ty..TypeBareFn$GT$5clone17h442a28b9c76fb2abE', symObjAddr: 0xD7F0, symBinAddr: 0xE7F50, symSize: 0x490 }
  - { offsetInCU: 0xEA0B, offset: 0x3B9C09, size: 0x8, addend: 0x0, symName: '__ZN4core3ptr100drop_in_place$LT$core..option..Option$LT$alloc..boxed..Box$LT$syn..path..GenericArgument$GT$$GT$$GT$17h7435c9de74860622E', symObjAddr: 0x150, symBinAddr: 0xDD3F0, symSize: 0x50 }
  - { offsetInCU: 0xEDAB, offset: 0x3B9FA9, size: 0x8, addend: 0x0, symName: '__ZN4core3ptr100drop_in_place$LT$syn..punctuated..Punctuated$LT$syn..path..PathSegment$C$syn..token..PathSep$GT$$GT$17hf414cb3581f8337aE', symObjAddr: 0x1A0, symBinAddr: 0xDD440, symSize: 0x260 }
  - { offsetInCU: 0xF744, offset: 0x3BA942, size: 0x8, addend: 0x0, symName: '__ZN4core3ptr103drop_in_place$LT$core..option..Option$LT$alloc..boxed..Box$LT$syn..generics..TypeParamBound$GT$$GT$$GT$17h5974f03e36b1a9c3E', symObjAddr: 0x400, symBinAddr: 0xDD6A0, symSize: 0x50 }
  - { offsetInCU: 0xF951, offset: 0x3BAB4F, size: 0x8, addend: 0x0, symName: '__ZN4core3ptr103drop_in_place$LT$syn..punctuated..Punctuated$LT$syn..generics..GenericParam$C$syn..token..Comma$GT$$GT$17hf42353fa44ed6da8E', symObjAddr: 0x450, symBinAddr: 0xDD6F0, symSize: 0xF0 }
  - { offsetInCU: 0xFE14, offset: 0x3BB012, size: 0x8, addend: 0x0, symName: '__ZN4core3ptr104drop_in_place$LT$syn..punctuated..Punctuated$LT$syn..generics..TypeParamBound$C$syn..token..Plus$GT$$GT$17h532f52c4a894b056E', symObjAddr: 0x540, symBinAddr: 0xDD7E0, symSize: 0x190 }
  - { offsetInCU: 0x10487, offset: 0x3BB685, size: 0x8, addend: 0x0, symName: '__ZN4core3ptr34drop_in_place$LT$syn..lit..Lit$GT$17h8902f5ff67917034E', symObjAddr: 0x6D0, symBinAddr: 0xDD970, symSize: 0x110 }
  - { offsetInCU: 0x109E0, offset: 0x3BBBDE, size: 0x8, addend: 0x0, symName: '__ZN4core3ptr34drop_in_place$LT$syn..pat..Pat$GT$17h4581eea028ec0969E', symObjAddr: 0x7E0, symBinAddr: 0xDDA80, symSize: 0x1000 }
  - { offsetInCU: 0x14505, offset: 0x3BF703, size: 0x8, addend: 0x0, symName: '__ZN4core3ptr34drop_in_place$LT$syn..ty..Type$GT$17h369e41ad4a9f1ae0E.llvm.6340778183057508401', symObjAddr: 0x17E0, symBinAddr: 0xDEA80, symSize: 0x500 }
  - { offsetInCU: 0x15A6E, offset: 0x3C0C6C, size: 0x8, addend: 0x0, symName: '__ZN4core3ptr36drop_in_place$LT$syn..expr..Expr$GT$17h0f7fd4c749bae801E', symObjAddr: 0x1CF0, symBinAddr: 0xDEF80, symSize: 0x28E0 }
  - { offsetInCU: 0x1EF00, offset: 0x3CA0FE, size: 0x8, addend: 0x0, symName: '__ZN4core3ptr36drop_in_place$LT$syn..mac..Macro$GT$17h4ffde962df30ebe2E', symObjAddr: 0x45D0, symBinAddr: 0xE1860, symSize: 0x40 }
  - { offsetInCU: 0x1EF3A, offset: 0x3CA138, size: 0x8, addend: 0x0, symName: '__ZN4core3ptr36drop_in_place$LT$syn..path..Path$GT$17habea856181211e1cE', symObjAddr: 0x4610, symBinAddr: 0xE18A0, symSize: 0x220 }
  - { offsetInCU: 0x1F86F, offset: 0x3CAA6D, size: 0x8, addend: 0x0, symName: '__ZN4core3ptr37drop_in_place$LT$syn..stmt..Block$GT$17hcc21a21cf949414cE', symObjAddr: 0x4840, symBinAddr: 0xE1AC0, symSize: 0xD0 }
  - { offsetInCU: 0x1FB13, offset: 0x3CAD11, size: 0x8, addend: 0x0, symName: '__ZN4core3ptr38drop_in_place$LT$syn..expr..Member$GT$17h022cbe5553aa40faE', symObjAddr: 0x4910, symBinAddr: 0xE1B90, symSize: 0x30 }
  - { offsetInCU: 0x1FCAB, offset: 0x3CAEA9, size: 0x8, addend: 0x0, symName: '__ZN4core3ptr38drop_in_place$LT$syn..group..Group$GT$17hc3a29a397b30f633E.llvm.6340778183057508401', symObjAddr: 0x4940, symBinAddr: 0xE1BC0, symSize: 0x70 }
  - { offsetInCU: 0x1FFC1, offset: 0x3CB1BF, size: 0x8, addend: 0x0, symName: '__ZN4core3ptr39drop_in_place$LT$proc_macro2..Ident$GT$17h8101e88c3ac359d6E', symObjAddr: 0x49B0, symBinAddr: 0xE1C30, symSize: 0x30 }
  - { offsetInCU: 0x2009F, offset: 0x3CB29D, size: 0x8, addend: 0x0, symName: '__ZN4core3ptr40drop_in_place$LT$syn..ty..ReturnType$GT$17h02cf41e2fec63d90E', symObjAddr: 0x49E0, symBinAddr: 0xE1C60, symSize: 0x50 }
  - { offsetInCU: 0x20211, offset: 0x3CB40F, size: 0x8, addend: 0x0, symName: '__ZN4core3ptr41drop_in_place$LT$syn..expr..ExprConst$GT$17h725a13e551d9f276E', symObjAddr: 0x4A30, symBinAddr: 0xE1CB0, symSize: 0x180 }
  - { offsetInCU: 0x20766, offset: 0x3CB964, size: 0x8, addend: 0x0, symName: '__ZN4core3ptr44drop_in_place$LT$syn..lifetime..Lifetime$GT$17hf0cdec2e9ec456d6E', symObjAddr: 0x4BB0, symBinAddr: 0xE1E30, symSize: 0x30 }
  - { offsetInCU: 0x20863, offset: 0x3CBA61, size: 0x8, addend: 0x0, symName: '__ZN4core3ptr44drop_in_place$LT$syn..parse..ParseBuffer$GT$17hd0dadba44a19aec2E', symObjAddr: 0x4BE0, symBinAddr: 0xE1E60, symSize: 0x70 }
  - { offsetInCU: 0x20C98, offset: 0x3CBE96, size: 0x8, addend: 0x0, symName: '__ZN4core3ptr45drop_in_place$LT$proc_macro2..TokenStream$GT$17h3405f6c513e9f6cbE.llvm.6340778183057508401', symObjAddr: 0x4C50, symBinAddr: 0xE1ED0, symSize: 0x140 }
  - { offsetInCU: 0x21107, offset: 0x3CC305, size: 0x8, addend: 0x0, symName: '__ZN4core3ptr45drop_in_place$LT$syn..generics..TypeParam$GT$17he5eda51070b7de47E', symObjAddr: 0x4D90, symBinAddr: 0xE2010, symSize: 0x230 }
  - { offsetInCU: 0x21903, offset: 0x3CCB01, size: 0x8, addend: 0x0, symName: '__ZN4core3ptr46drop_in_place$LT$syn..generics..ConstParam$GT$17hab0a58c4af8c549cE', symObjAddr: 0x4FC0, symBinAddr: 0xE2240, symSize: 0x150 }
  - { offsetInCU: 0x21D2D, offset: 0x3CCF2B, size: 0x8, addend: 0x0, symName: '__ZN4core3ptr47drop_in_place$LT$syn..path..GenericArgument$GT$17h54f8794633f96823E', symObjAddr: 0x5110, symBinAddr: 0xE2390, symSize: 0x4A0 }
  - { offsetInCU: 0x22DD4, offset: 0x3CDFD2, size: 0x8, addend: 0x0, symName: '__ZN4core3ptr49drop_in_place$LT$syn..generics..LifetimeParam$GT$17h41a7c7a290ea6289E', symObjAddr: 0x55B0, symBinAddr: 0xE2830, symSize: 0xF0 }
  - { offsetInCU: 0x2318E, offset: 0x3CE38C, size: 0x8, addend: 0x0, symName: '__ZN4core3ptr50drop_in_place$LT$syn..generics..TypeParamBound$GT$17hcd7771d4c6c221efE', symObjAddr: 0x56A0, symBinAddr: 0xE2920, symSize: 0x160 }
  - { offsetInCU: 0x235AE, offset: 0x3CE7AC, size: 0x8, addend: 0x0, symName: '__ZN4core3ptr58drop_in_place$LT$alloc..vec..Vec$LT$syn..expr..Arm$GT$$GT$17h1a55df3d2cba1daaE', symObjAddr: 0x5800, symBinAddr: 0xE2A80, symSize: 0xD0 }
  - { offsetInCU: 0x2383B, offset: 0x3CEA39, size: 0x8, addend: 0x0, symName: '__ZN4core3ptr59drop_in_place$LT$alloc..boxed..Box$LT$syn..pat..Pat$GT$$GT$17h563b135d87aca8abE', symObjAddr: 0x58D0, symBinAddr: 0xE2B50, symSize: 0x50 }
  - { offsetInCU: 0x23996, offset: 0x3CEB94, size: 0x8, addend: 0x0, symName: '__ZN4core3ptr59drop_in_place$LT$alloc..boxed..Box$LT$syn..ty..Type$GT$$GT$17hffed36bad83adacbE', symObjAddr: 0x5920, symBinAddr: 0xE2BA0, symSize: 0x50 }
  - { offsetInCU: 0x23AF1, offset: 0x3CECEF, size: 0x8, addend: 0x0, symName: '__ZN4core3ptr61drop_in_place$LT$alloc..boxed..Box$LT$syn..expr..Expr$GT$$GT$17h01091e47f131475dE', symObjAddr: 0x5970, symBinAddr: 0xE2BF0, symSize: 0x50 }
  - { offsetInCU: 0x23CC8, offset: 0x3CEEC6, size: 0x8, addend: 0x0, symName: '__ZN4core3ptr61drop_in_place$LT$syn..path..ParenthesizedGenericArguments$GT$17h43d4aac5494326a7E', symObjAddr: 0x5A30, symBinAddr: 0xE2C40, symSize: 0x170 }
  - { offsetInCU: 0x2428F, offset: 0x3CF48D, size: 0x8, addend: 0x0, symName: '__ZN4core3ptr62drop_in_place$LT$syn..path..AngleBracketedGenericArguments$GT$17hc5b69f68243636ddE', symObjAddr: 0x5BA0, symBinAddr: 0xE2DB0, symSize: 0x120 }
  - { offsetInCU: 0x246A5, offset: 0x3CF8A3, size: 0x8, addend: 0x0, symName: '__ZN4core3ptr63drop_in_place$LT$alloc..boxed..Box$LT$syn..lit..LitRepr$GT$$GT$17hd8839b7fb35ee7afE', symObjAddr: 0x5CC0, symBinAddr: 0xE2ED0, symSize: 0x60 }
  - { offsetInCU: 0x2499A, offset: 0x3CFB98, size: 0x8, addend: 0x0, symName: '__ZN4core3ptr64drop_in_place$LT$alloc..boxed..Box$LT$syn..pat..FieldPat$GT$$GT$17h4980b70a7597cc08E', symObjAddr: 0x5D20, symBinAddr: 0xE2F30, symSize: 0x140 }
  - { offsetInCU: 0x25045, offset: 0x3D0243, size: 0x8, addend: 0x0, symName: '__ZN4core3ptr64drop_in_place$LT$alloc..boxed..Box$LT$syn..ty..BareFnArg$GT$$GT$17h8b34096c620314efE', symObjAddr: 0x5E60, symBinAddr: 0xE3070, symSize: 0x140 }
  - { offsetInCU: 0x25569, offset: 0x3D0767, size: 0x8, addend: 0x0, symName: '__ZN4core3ptr64drop_in_place$LT$alloc..vec..Vec$LT$syn..attr..Attribute$GT$$GT$17h3c8f2a04e701c675E.llvm.6340778183057508401', symObjAddr: 0x5FA0, symBinAddr: 0xE31B0, symSize: 0xD0 }
  - { offsetInCU: 0x257F6, offset: 0x3D09F4, size: 0x8, addend: 0x0, symName: '__ZN4core3ptr65drop_in_place$LT$core..option..Option$LT$syn..expr..Label$GT$$GT$17h78189e72a8cb7951E', symObjAddr: 0x6070, symBinAddr: 0xE3280, symSize: 0x30 }
  - { offsetInCU: 0x25931, offset: 0x3D0B2F, size: 0x8, addend: 0x0, symName: '__ZN4core3ptr65drop_in_place$LT$core..option..Option$LT$syn..path..QSelf$GT$$GT$17h9b72552ca06b7379E', symObjAddr: 0x6100, symBinAddr: 0xE32B0, symSize: 0x50 }
  - { offsetInCU: 0x25ACA, offset: 0x3D0CC8, size: 0x8, addend: 0x0, symName: '__ZN4core3ptr66drop_in_place$LT$core..option..Option$LT$syn..pat..PatRest$GT$$GT$17h61677cf4ff3a7393E', symObjAddr: 0x6150, symBinAddr: 0xE3300, symSize: 0xE0 }
  - { offsetInCU: 0x25D4E, offset: 0x3D0F4C, size: 0x8, addend: 0x0, symName: '__ZN4core3ptr67drop_in_place$LT$alloc..boxed..Box$LT$syn..expr..FieldValue$GT$$GT$17h93aaccf8aa22ef88E', symObjAddr: 0x6230, symBinAddr: 0xE33E0, symSize: 0x140 }
  - { offsetInCU: 0x26252, offset: 0x3D1450, size: 0x8, addend: 0x0, symName: '__ZN4core3ptr68drop_in_place$LT$alloc..boxed..Box$LT$syn..path..PathSegment$GT$$GT$17h709dabdc13b58a71E', symObjAddr: 0x6370, symBinAddr: 0xE3520, symSize: 0x190 }
  - { offsetInCU: 0x26930, offset: 0x3D1B2E, size: 0x8, addend: 0x0, symName: '__ZN4core3ptr70drop_in_place$LT$core..option..Option$LT$syn..ty..BareVariadic$GT$$GT$17h45399348ea4b8d55E', symObjAddr: 0x6500, symBinAddr: 0xE36B0, symSize: 0x120 }
  - { offsetInCU: 0x26E5D, offset: 0x3D205B, size: 0x8, addend: 0x0, symName: '__ZN4core3ptr72drop_in_place$LT$alloc..boxed..Box$LT$syn..path..GenericArgument$GT$$GT$17haa7dd8b716637b54E', symObjAddr: 0x6620, symBinAddr: 0xE37D0, symSize: 0x1D0 }
  - { offsetInCU: 0x27400, offset: 0x3D25FE, size: 0x8, addend: 0x0, symName: '__ZN4core3ptr73drop_in_place$LT$alloc..boxed..Box$LT$syn..generics..GenericParam$GT$$GT$17hf6951dcd5ae07324E', symObjAddr: 0x67F0, symBinAddr: 0xE39A0, symSize: 0x80 }
  - { offsetInCU: 0x27578, offset: 0x3D2776, size: 0x8, addend: 0x0, symName: '__ZN4core3ptr75drop_in_place$LT$alloc..boxed..Box$LT$syn..generics..TypeParamBound$GT$$GT$17he61c00698a311a34E', symObjAddr: 0x6870, symBinAddr: 0xE3A20, symSize: 0xB0 }
  - { offsetInCU: 0x278D3, offset: 0x3D2AD1, size: 0x8, addend: 0x0, symName: '__ZN4core3ptr86drop_in_place$LT$syn..punctuated..Punctuated$LT$syn..pat..Pat$C$syn..token..Or$GT$$GT$17h8e9173df21a44316E', symObjAddr: 0x6940, symBinAddr: 0xE3AD0, symSize: 0x120 }
  - { offsetInCU: 0x27D19, offset: 0x3D2F17, size: 0x8, addend: 0x0, symName: '__ZN4core3ptr87drop_in_place$LT$core..option..Option$LT$alloc..boxed..Box$LT$syn..pat..Pat$GT$$GT$$GT$17hd7b7c69f601b3926E', symObjAddr: 0x6A60, symBinAddr: 0xE3BF0, symSize: 0x50 }
  - { offsetInCU: 0x27E8B, offset: 0x3D3089, size: 0x8, addend: 0x0, symName: '__ZN4core3ptr87drop_in_place$LT$core..option..Option$LT$alloc..boxed..Box$LT$syn..ty..Type$GT$$GT$$GT$17hd74f5d971aec2972E', symObjAddr: 0x6AB0, symBinAddr: 0xE3C40, symSize: 0x50 }
  - { offsetInCU: 0x27FFD, offset: 0x3D31FB, size: 0x8, addend: 0x0, symName: '__ZN4core3ptr89drop_in_place$LT$core..option..Option$LT$alloc..boxed..Box$LT$syn..expr..Expr$GT$$GT$$GT$17h8e135ac1a25a2dc5E', symObjAddr: 0x6B00, symBinAddr: 0xE3C90, symSize: 0x50 }
  - { offsetInCU: 0x281AD, offset: 0x3D33AB, size: 0x8, addend: 0x0, symName: '__ZN4core3ptr89drop_in_place$LT$syn..punctuated..Punctuated$LT$syn..pat..Pat$C$syn..token..Comma$GT$$GT$17h8d60e47f3fb1f87aE', symObjAddr: 0x6B50, symBinAddr: 0xE3CE0, symSize: 0x120 }
  - { offsetInCU: 0x2860A, offset: 0x3D3808, size: 0x8, addend: 0x0, symName: '__ZN4core3ptr89drop_in_place$LT$syn..punctuated..Punctuated$LT$syn..ty..Type$C$syn..token..Comma$GT$$GT$17ha919b3114742fb9dE', symObjAddr: 0x6C70, symBinAddr: 0xE3E00, symSize: 0x120 }
  - { offsetInCU: 0x28A54, offset: 0x3D3C52, size: 0x8, addend: 0x0, symName: '__ZN4core3ptr90drop_in_place$LT$core..option..Option$LT$syn..path..AngleBracketedGenericArguments$GT$$GT$17h80d9a5f0818c8bd9E', symObjAddr: 0x6D90, symBinAddr: 0xE3F20, symSize: 0x130 }
  - { offsetInCU: 0x28EBF, offset: 0x3D40BD, size: 0x8, addend: 0x0, symName: '__ZN4core3ptr91drop_in_place$LT$syn..punctuated..Punctuated$LT$syn..expr..Expr$C$syn..token..Comma$GT$$GT$17h4f39b83dc86a4159E', symObjAddr: 0x6EC0, symBinAddr: 0xE4050, symSize: 0x120 }
  - { offsetInCU: 0x2931C, offset: 0x3D451A, size: 0x8, addend: 0x0, symName: '__ZN4core3ptr94drop_in_place$LT$syn..punctuated..Punctuated$LT$syn..pat..FieldPat$C$syn..token..Comma$GT$$GT$17h112950ea198c8281E', symObjAddr: 0x6FE0, symBinAddr: 0xE4170, symSize: 0xF0 }
  - { offsetInCU: 0x295E6, offset: 0x3D47E4, size: 0x8, addend: 0x0, symName: '__ZN4core3ptr94drop_in_place$LT$syn..punctuated..Punctuated$LT$syn..ty..BareFnArg$C$syn..token..Comma$GT$$GT$17h1c7b44310f06243dE', symObjAddr: 0x70D0, symBinAddr: 0xE4260, symSize: 0xF0 }
  - { offsetInCU: 0x298B0, offset: 0x3D4AAE, size: 0x8, addend: 0x0, symName: '__ZN4core3ptr95drop_in_place$LT$core..option..Option$LT$$LP$proc_macro2..Ident$C$syn..token..Colon$RP$$GT$$GT$17ha744bf0f41959716E.llvm.6340778183057508401', symObjAddr: 0x71C0, symBinAddr: 0xE4350, symSize: 0x30 }
  - { offsetInCU: 0x299CC, offset: 0x3D4BCA, size: 0x8, addend: 0x0, symName: '__ZN4core3ptr96drop_in_place$LT$core..option..Option$LT$alloc..boxed..Box$LT$syn..path..PathSegment$GT$$GT$$GT$17hb447d0f626c86a4eE', symObjAddr: 0x71F0, symBinAddr: 0xE4380, symSize: 0x90 }
  - { offsetInCU: 0x29C4E, offset: 0x3D4E4C, size: 0x8, addend: 0x0, symName: '__ZN4core3ptr97drop_in_place$LT$syn..punctuated..Punctuated$LT$syn..expr..FieldValue$C$syn..token..Comma$GT$$GT$17h31b81f7462228dcbE', symObjAddr: 0x7280, symBinAddr: 0xE4410, symSize: 0xF0 }
  - { offsetInCU: 0x29F18, offset: 0x3D5116, size: 0x8, addend: 0x0, symName: '__ZN4core3ptr98drop_in_place$LT$alloc..vec..Vec$LT$$LP$syn..path..GenericArgument$C$syn..token..Comma$RP$$GT$$GT$17h0657ff261f33b640E', symObjAddr: 0x7370, symBinAddr: 0xE4500, symSize: 0xD0 }
  - { offsetInCU: 0x2A221, offset: 0x3D541F, size: 0x8, addend: 0x0, symName: '__ZN4core3ptr98drop_in_place$LT$syn..punctuated..Punctuated$LT$syn..lifetime..Lifetime$C$syn..token..Plus$GT$$GT$17h0f8fc5f20f465f47E', symObjAddr: 0x7440, symBinAddr: 0xE45D0, symSize: 0xC0 }
  - { offsetInCU: 0x31DA3, offset: 0x3DCFA1, size: 0x8, addend: 0x0, symName: '__ZN3syn2ty7parsing37_$LT$impl$u20$syn..ty..ReturnType$GT$5parse17he324a0d79314d8d8E.llvm.6340778183057508401', symObjAddr: 0xA420, symBinAddr: 0xE5D80, symSize: 0x1C0 }
  - { offsetInCU: 0x322BA, offset: 0x3DD4B8, size: 0x8, addend: 0x0, symName: '__ZN3syn2ty7parsing42_$LT$impl$u20$syn..ty..TypeTraitObject$GT$12parse_bounds17hef91dc1b8f27672eE', symObjAddr: 0xA950, symBinAddr: 0xE60F0, symSize: 0x2F0 }
  - { offsetInCU: 0x3297F, offset: 0x3DDB7D, size: 0x8, addend: 0x0, symName: '__ZN3syn2ty7parsing40_$LT$impl$u20$syn..ty..TypeImplTrait$GT$5parse17hd7958562640d7c66E', symObjAddr: 0xAC80, symBinAddr: 0xE63E0, symSize: 0x350 }
  - { offsetInCU: 0xE0A, offset: 0x3E5FBD, size: 0x8, addend: 0x0, symName: '__ZN3syn3pat8printing75_$LT$impl$u20$quote..to_tokens..ToTokens$u20$for$u20$syn..pat..PatIdent$GT$9to_tokens17h348ed871f50ef358E', symObjAddr: 0x8BC0, symBinAddr: 0xF0400, symSize: 0x200 }
  - { offsetInCU: 0x1390, offset: 0x3E6543, size: 0x8, addend: 0x0, symName: '__ZN3syn3pat8printing74_$LT$impl$u20$quote..to_tokens..ToTokens$u20$for$u20$syn..pat..PatRest$GT$9to_tokens17hbab31be22b0a07a1E', symObjAddr: 0x9180, symBinAddr: 0xF0600, symSize: 0xF0 }
  - { offsetInCU: 0x1661, offset: 0x3E6814, size: 0x8, addend: 0x0, symName: '__ZN3syn3pat8printing74_$LT$impl$u20$quote..to_tokens..ToTokens$u20$for$u20$syn..pat..PatType$GT$9to_tokens17h413fc48f12d68c5eE', symObjAddr: 0x9610, symBinAddr: 0xF06F0, symSize: 0x100 }
  - { offsetInCU: 0x18FA, offset: 0x3E6AAD, size: 0x8, addend: 0x0, symName: '__ZN60_$LT$syn..pat..Pat$u20$as$u20$quote..to_tokens..ToTokens$GT$9to_tokens17hd89cff4ed8404be9E', symObjAddr: 0x9960, symBinAddr: 0xF07F0, symSize: 0xDC0 }
  - { offsetInCU: 0x3D27, offset: 0x3E8EDA, size: 0x8, addend: 0x0, symName: '__ZN77_$LT$$RF$$u5b$syn..attr..Attribute$u5d$$u20$as$u20$syn..attr..FilterAttrs$GT$5outer8is_outer17h05806f843d7deec4E.llvm.16708040419612450194', symObjAddr: 0x75A0, symBinAddr: 0xEF270, symSize: 0x20 }
  - { offsetInCU: 0x7655, offset: 0x3EC808, size: 0x8, addend: 0x0, symName: '__ZN3syn3gen5clone67_$LT$impl$u20$core..clone..Clone$u20$for$u20$syn..pat..FieldPat$GT$5clone17h554250375942a4a5E', symObjAddr: 0xA720, symBinAddr: 0xF15B0, symSize: 0x180 }
  - { offsetInCU: 0x7C90, offset: 0x3ECE43, size: 0x8, addend: 0x0, symName: '__ZN3syn3gen5clone66_$LT$impl$u20$core..clone..Clone$u20$for$u20$syn..pat..PatType$GT$5clone17h3c0c450348e02b94E', symObjAddr: 0xC120, symBinAddr: 0xF2C20, symSize: 0x170 }
  - { offsetInCU: 0x81A7, offset: 0x3ED35A, size: 0x8, addend: 0x0, symName: '__ZN3syn3gen5clone62_$LT$impl$u20$core..clone..Clone$u20$for$u20$syn..pat..Pat$GT$5clone17h09eb0d2ca566db48E', symObjAddr: 0xA8A0, symBinAddr: 0xF1730, symSize: 0xCB0 }
  - { offsetInCU: 0x9A04, offset: 0x3EEBB7, size: 0x8, addend: 0x0, symName: '__ZN3syn3gen5clone67_$LT$impl$u20$core..clone..Clone$u20$for$u20$syn..pat..PatIdent$GT$5clone17h798d2bf2d3132ef3E', symObjAddr: 0xB550, symBinAddr: 0xF23E0, symSize: 0x1A0 }
  - { offsetInCU: 0x9F03, offset: 0x3EF0B6, size: 0x8, addend: 0x0, symName: '__ZN3syn3gen5clone68_$LT$impl$u20$core..clone..Clone$u20$for$u20$syn..pat..PatStruct$GT$5clone17h2daee392d264362dE', symObjAddr: 0xBA80, symBinAddr: 0xF2580, symSize: 0x3D0 }
  - { offsetInCU: 0xA5A2, offset: 0x3EF755, size: 0x8, addend: 0x0, symName: '__ZN3syn3gen5clone73_$LT$impl$u20$core..clone..Clone$u20$for$u20$syn..pat..PatTupleStruct$GT$5clone17hcb5aab059582244bE', symObjAddr: 0xBE50, symBinAddr: 0xF2950, symSize: 0x2D0 }
  - { offsetInCU: 0xC87E, offset: 0x3F1A31, size: 0x8, addend: 0x0, symName: '__ZN4core3ptr100drop_in_place$LT$core..option..Option$LT$alloc..boxed..Box$LT$syn..path..GenericArgument$GT$$GT$$GT$17h7435c9de74860622E', symObjAddr: 0x80, symBinAddr: 0xE83E0, symSize: 0x50 }
  - { offsetInCU: 0xCC1E, offset: 0x3F1DD1, size: 0x8, addend: 0x0, symName: '__ZN4core3ptr100drop_in_place$LT$syn..punctuated..Punctuated$LT$syn..path..PathSegment$C$syn..token..PathSep$GT$$GT$17hf414cb3581f8337aE', symObjAddr: 0xD0, symBinAddr: 0xE8430, symSize: 0x260 }
  - { offsetInCU: 0xD598, offset: 0x3F274B, size: 0x8, addend: 0x0, symName: '__ZN4core3ptr102drop_in_place$LT$syn..punctuated..Punctuated$LT$syn..path..GenericArgument$C$syn..token..Comma$GT$$GT$17h39496ba4e6dba6cfE', symObjAddr: 0x330, symBinAddr: 0xE8690, symSize: 0xF0 }
  - { offsetInCU: 0xD881, offset: 0x3F2A34, size: 0x8, addend: 0x0, symName: '__ZN4core3ptr103drop_in_place$LT$core..option..Option$LT$alloc..boxed..Box$LT$syn..generics..TypeParamBound$GT$$GT$$GT$17h5974f03e36b1a9c3E', symObjAddr: 0x420, symBinAddr: 0xE8780, symSize: 0x50 }
  - { offsetInCU: 0xDA8E, offset: 0x3F2C41, size: 0x8, addend: 0x0, symName: '__ZN4core3ptr103drop_in_place$LT$syn..punctuated..Punctuated$LT$syn..generics..GenericParam$C$syn..token..Comma$GT$$GT$17hf42353fa44ed6da8E', symObjAddr: 0x470, symBinAddr: 0xE87D0, symSize: 0xF0 }
  - { offsetInCU: 0xDF70, offset: 0x3F3123, size: 0x8, addend: 0x0, symName: '__ZN4core3ptr104drop_in_place$LT$syn..punctuated..Punctuated$LT$syn..generics..TypeParamBound$C$syn..token..Plus$GT$$GT$17h532f52c4a894b056E', symObjAddr: 0x560, symBinAddr: 0xE88C0, symSize: 0x230 }
  - { offsetInCU: 0xE88C, offset: 0x3F3A3F, size: 0x8, addend: 0x0, symName: '__ZN4core3ptr34drop_in_place$LT$syn..lit..Lit$GT$17h8902f5ff67917034E', symObjAddr: 0x7E0, symBinAddr: 0xE8AF0, symSize: 0x110 }
  - { offsetInCU: 0xED88, offset: 0x3F3F3B, size: 0x8, addend: 0x0, symName: '__ZN4core3ptr34drop_in_place$LT$syn..pat..Pat$GT$17h4581eea028ec0969E.llvm.16708040419612450194', symObjAddr: 0x8F0, symBinAddr: 0xE8C00, symSize: 0xFF0 }
  - { offsetInCU: 0x128AD, offset: 0x3F7A60, size: 0x8, addend: 0x0, symName: '__ZN4core3ptr34drop_in_place$LT$syn..ty..Type$GT$17h369e41ad4a9f1ae0E', symObjAddr: 0x18E0, symBinAddr: 0xE9BF0, symSize: 0x460 }
  - { offsetInCU: 0x13B3F, offset: 0x3F8CF2, size: 0x8, addend: 0x0, symName: '__ZN4core3ptr36drop_in_place$LT$syn..expr..Expr$GT$17h0f7fd4c749bae801E', symObjAddr: 0x1D40, symBinAddr: 0xEA050, symSize: 0x2770 }
  - { offsetInCU: 0x1CA71, offset: 0x401C24, size: 0x8, addend: 0x0, symName: '__ZN4core3ptr36drop_in_place$LT$syn..mac..Macro$GT$17h4ffde962df30ebe2E', symObjAddr: 0x44B0, symBinAddr: 0xEC7C0, symSize: 0x40 }
  - { offsetInCU: 0x1CAAB, offset: 0x401C5E, size: 0x8, addend: 0x0, symName: '__ZN4core3ptr36drop_in_place$LT$syn..path..Path$GT$17habea856181211e1cE', symObjAddr: 0x44F0, symBinAddr: 0xEC800, symSize: 0x220 }
  - { offsetInCU: 0x1D3E0, offset: 0x402593, size: 0x8, addend: 0x0, symName: '__ZN4core3ptr37drop_in_place$LT$syn..stmt..Block$GT$17hcc21a21cf949414cE', symObjAddr: 0x4710, symBinAddr: 0xECA20, symSize: 0xD0 }
  - { offsetInCU: 0x1D684, offset: 0x402837, size: 0x8, addend: 0x0, symName: '__ZN4core3ptr38drop_in_place$LT$syn..expr..Member$GT$17h022cbe5553aa40faE.llvm.16708040419612450194', symObjAddr: 0x47E0, symBinAddr: 0xECAF0, symSize: 0x30 }
  - { offsetInCU: 0x1D781, offset: 0x402934, size: 0x8, addend: 0x0, symName: '__ZN4core3ptr39drop_in_place$LT$proc_macro2..Ident$GT$17h8101e88c3ac359d6E', symObjAddr: 0x4820, symBinAddr: 0xECB20, symSize: 0x30 }
  - { offsetInCU: 0x1D85F, offset: 0x402A12, size: 0x8, addend: 0x0, symName: '__ZN4core3ptr40drop_in_place$LT$syn..ty..ReturnType$GT$17h02cf41e2fec63d90E', symObjAddr: 0x4850, symBinAddr: 0xECB50, symSize: 0x50 }
  - { offsetInCU: 0x1D9D1, offset: 0x402B84, size: 0x8, addend: 0x0, symName: '__ZN4core3ptr41drop_in_place$LT$syn..expr..ExprConst$GT$17h725a13e551d9f276E', symObjAddr: 0x48A0, symBinAddr: 0xECBA0, symSize: 0x180 }
  - { offsetInCU: 0x1DF26, offset: 0x4030D9, size: 0x8, addend: 0x0, symName: '__ZN4core3ptr44drop_in_place$LT$syn..lifetime..Lifetime$GT$17hf0cdec2e9ec456d6E', symObjAddr: 0x4A20, symBinAddr: 0xECD20, symSize: 0x30 }
  - { offsetInCU: 0x1E09F, offset: 0x403252, size: 0x8, addend: 0x0, symName: '__ZN4core3ptr44drop_in_place$LT$syn..parse..ParseBuffer$GT$17hd0dadba44a19aec2E', symObjAddr: 0x4A50, symBinAddr: 0xECD50, symSize: 0x70 }
  - { offsetInCU: 0x1E4D4, offset: 0x403687, size: 0x8, addend: 0x0, symName: '__ZN4core3ptr45drop_in_place$LT$proc_macro2..TokenStream$GT$17h3405f6c513e9f6cbE', symObjAddr: 0x4AC0, symBinAddr: 0xECDC0, symSize: 0x140 }
  - { offsetInCU: 0x1E943, offset: 0x403AF6, size: 0x8, addend: 0x0, symName: '__ZN4core3ptr45drop_in_place$LT$syn..generics..TypeParam$GT$17he5eda51070b7de47E', symObjAddr: 0x4C00, symBinAddr: 0xECF00, symSize: 0x230 }
  - { offsetInCU: 0x1F13F, offset: 0x4042F2, size: 0x8, addend: 0x0, symName: '__ZN4core3ptr46drop_in_place$LT$syn..generics..ConstParam$GT$17hab0a58c4af8c549cE', symObjAddr: 0x4E30, symBinAddr: 0xED130, symSize: 0x150 }
  - { offsetInCU: 0x1F569, offset: 0x40471C, size: 0x8, addend: 0x0, symName: '__ZN4core3ptr47drop_in_place$LT$syn..path..GenericArgument$GT$17h54f8794633f96823E', symObjAddr: 0x4F80, symBinAddr: 0xED280, symSize: 0x460 }
  - { offsetInCU: 0x20272, offset: 0x405425, size: 0x8, addend: 0x0, symName: '__ZN4core3ptr49drop_in_place$LT$syn..generics..LifetimeParam$GT$17h41a7c7a290ea6289E', symObjAddr: 0x53E0, symBinAddr: 0xED6E0, symSize: 0xF0 }
  - { offsetInCU: 0x2062C, offset: 0x4057DF, size: 0x8, addend: 0x0, symName: '__ZN4core3ptr50drop_in_place$LT$syn..generics..TypeParamBound$GT$17hcd7771d4c6c221efE', symObjAddr: 0x54D0, symBinAddr: 0xED7D0, symSize: 0xA0 }
  - { offsetInCU: 0x20793, offset: 0x405946, size: 0x8, addend: 0x0, symName: '__ZN4core3ptr58drop_in_place$LT$alloc..vec..Vec$LT$syn..expr..Arm$GT$$GT$17h1a55df3d2cba1daaE', symObjAddr: 0x5570, symBinAddr: 0xED870, symSize: 0xD0 }
  - { offsetInCU: 0x20A20, offset: 0x405BD3, size: 0x8, addend: 0x0, symName: '__ZN4core3ptr59drop_in_place$LT$alloc..boxed..Box$LT$syn..pat..Pat$GT$$GT$17h563b135d87aca8abE.llvm.16708040419612450194', symObjAddr: 0x5640, symBinAddr: 0xED940, symSize: 0x50 }
  - { offsetInCU: 0x20B7B, offset: 0x405D2E, size: 0x8, addend: 0x0, symName: '__ZN4core3ptr59drop_in_place$LT$alloc..boxed..Box$LT$syn..ty..Type$GT$$GT$17hffed36bad83adacbE', symObjAddr: 0x5690, symBinAddr: 0xED990, symSize: 0x50 }
  - { offsetInCU: 0x20CD6, offset: 0x405E89, size: 0x8, addend: 0x0, symName: '__ZN4core3ptr61drop_in_place$LT$alloc..boxed..Box$LT$syn..expr..Expr$GT$$GT$17h01091e47f131475dE', symObjAddr: 0x56E0, symBinAddr: 0xED9E0, symSize: 0x50 }
  - { offsetInCU: 0x20EAD, offset: 0x406060, size: 0x8, addend: 0x0, symName: '__ZN4core3ptr61drop_in_place$LT$syn..path..ParenthesizedGenericArguments$GT$17h43d4aac5494326a7E', symObjAddr: 0x5730, symBinAddr: 0xEDA30, symSize: 0x170 }
  - { offsetInCU: 0x21474, offset: 0x406627, size: 0x8, addend: 0x0, symName: '__ZN4core3ptr63drop_in_place$LT$alloc..boxed..Box$LT$syn..lit..LitRepr$GT$$GT$17hd8839b7fb35ee7afE', symObjAddr: 0x58A0, symBinAddr: 0xEDBA0, symSize: 0x60 }
  - { offsetInCU: 0x21769, offset: 0x40691C, size: 0x8, addend: 0x0, symName: '__ZN4core3ptr64drop_in_place$LT$alloc..boxed..Box$LT$syn..pat..FieldPat$GT$$GT$17h4980b70a7597cc08E', symObjAddr: 0x5900, symBinAddr: 0xEDC00, symSize: 0x140 }
  - { offsetInCU: 0x21E14, offset: 0x406FC7, size: 0x8, addend: 0x0, symName: '__ZN4core3ptr64drop_in_place$LT$alloc..boxed..Box$LT$syn..ty..BareFnArg$GT$$GT$17h8b34096c620314efE', symObjAddr: 0x5A40, symBinAddr: 0xEDD40, symSize: 0x140 }
  - { offsetInCU: 0x22338, offset: 0x4074EB, size: 0x8, addend: 0x0, symName: '__ZN4core3ptr64drop_in_place$LT$alloc..vec..Vec$LT$syn..attr..Attribute$GT$$GT$17h3c8f2a04e701c675E.llvm.16708040419612450194', symObjAddr: 0x5B80, symBinAddr: 0xEDE80, symSize: 0xD0 }
  - { offsetInCU: 0x225C5, offset: 0x407778, size: 0x8, addend: 0x0, symName: '__ZN4core3ptr65drop_in_place$LT$core..option..Option$LT$syn..expr..Label$GT$$GT$17h78189e72a8cb7951E', symObjAddr: 0x5C50, symBinAddr: 0xEDF50, symSize: 0x30 }
  - { offsetInCU: 0x22700, offset: 0x4078B3, size: 0x8, addend: 0x0, symName: '__ZN4core3ptr65drop_in_place$LT$core..option..Option$LT$syn..path..QSelf$GT$$GT$17h9b72552ca06b7379E', symObjAddr: 0x5C80, symBinAddr: 0xEDF80, symSize: 0x50 }
  - { offsetInCU: 0x22899, offset: 0x407A4C, size: 0x8, addend: 0x0, symName: '__ZN4core3ptr66drop_in_place$LT$core..option..Option$LT$syn..pat..PatRest$GT$$GT$17h61677cf4ff3a7393E', symObjAddr: 0x5CD0, symBinAddr: 0xEDFD0, symSize: 0xE0 }
  - { offsetInCU: 0x22B1D, offset: 0x407CD0, size: 0x8, addend: 0x0, symName: '__ZN4core3ptr67drop_in_place$LT$alloc..boxed..Box$LT$syn..expr..FieldValue$GT$$GT$17h93aaccf8aa22ef88E', symObjAddr: 0x5DC0, symBinAddr: 0xEE0B0, symSize: 0x140 }
  - { offsetInCU: 0x23021, offset: 0x4081D4, size: 0x8, addend: 0x0, symName: '__ZN4core3ptr68drop_in_place$LT$alloc..boxed..Box$LT$syn..path..PathSegment$GT$$GT$17h709dabdc13b58a71E', symObjAddr: 0x5F00, symBinAddr: 0xEE1F0, symSize: 0x190 }
  - { offsetInCU: 0x236FF, offset: 0x4088B2, size: 0x8, addend: 0x0, symName: '__ZN4core3ptr70drop_in_place$LT$core..option..Option$LT$syn..ty..BareVariadic$GT$$GT$17h45399348ea4b8d55E', symObjAddr: 0x6090, symBinAddr: 0xEE380, symSize: 0x120 }
  - { offsetInCU: 0x23C2C, offset: 0x408DDF, size: 0x8, addend: 0x0, symName: '__ZN4core3ptr72drop_in_place$LT$alloc..boxed..Box$LT$syn..path..GenericArgument$GT$$GT$17haa7dd8b716637b54E', symObjAddr: 0x61B0, symBinAddr: 0xEE4A0, symSize: 0x2B0 }
  - { offsetInCU: 0x24617, offset: 0x4097CA, size: 0x8, addend: 0x0, symName: '__ZN4core3ptr72drop_in_place$LT$core..option..Option$LT$syn..lifetime..Lifetime$GT$$GT$17hfc363ccdd8bd9c32E', symObjAddr: 0x6460, symBinAddr: 0xEE750, symSize: 0x30 }
  - { offsetInCU: 0x24733, offset: 0x4098E6, size: 0x8, addend: 0x0, symName: '__ZN4core3ptr73drop_in_place$LT$alloc..boxed..Box$LT$syn..generics..GenericParam$GT$$GT$17hf6951dcd5ae07324E', symObjAddr: 0x6490, symBinAddr: 0xEE780, symSize: 0x80 }
  - { offsetInCU: 0x248AB, offset: 0x409A5E, size: 0x8, addend: 0x0, symName: '__ZN4core3ptr75drop_in_place$LT$alloc..boxed..Box$LT$syn..generics..TypeParamBound$GT$$GT$17he61c00698a311a34E', symObjAddr: 0x6510, symBinAddr: 0xEE800, symSize: 0x160 }
  - { offsetInCU: 0x24E71, offset: 0x40A024, size: 0x8, addend: 0x0, symName: '__ZN4core3ptr86drop_in_place$LT$syn..punctuated..Punctuated$LT$syn..pat..Pat$C$syn..token..Or$GT$$GT$17h8e9173df21a44316E', symObjAddr: 0x6670, symBinAddr: 0xEE960, symSize: 0x120 }
  - { offsetInCU: 0x252CE, offset: 0x40A481, size: 0x8, addend: 0x0, symName: '__ZN4core3ptr87drop_in_place$LT$core..option..Option$LT$alloc..boxed..Box$LT$syn..ty..Type$GT$$GT$$GT$17hd74f5d971aec2972E', symObjAddr: 0x6790, symBinAddr: 0xEEA80, symSize: 0x50 }
  - { offsetInCU: 0x25440, offset: 0x40A5F3, size: 0x8, addend: 0x0, symName: '__ZN4core3ptr89drop_in_place$LT$core..option..Option$LT$alloc..boxed..Box$LT$syn..expr..Expr$GT$$GT$$GT$17h8e135ac1a25a2dc5E', symObjAddr: 0x67E0, symBinAddr: 0xEEAD0, symSize: 0x50 }
  - { offsetInCU: 0x255B2, offset: 0x40A765, size: 0x8, addend: 0x0, symName: '__ZN4core3ptr89drop_in_place$LT$syn..punctuated..Punctuated$LT$syn..ty..Type$C$syn..token..Comma$GT$$GT$17ha919b3114742fb9dE', symObjAddr: 0x6830, symBinAddr: 0xEEB20, symSize: 0x120 }
  - { offsetInCU: 0x25A3A, offset: 0x40ABED, size: 0x8, addend: 0x0, symName: '__ZN4core3ptr91drop_in_place$LT$syn..punctuated..Punctuated$LT$syn..expr..Expr$C$syn..token..Comma$GT$$GT$17h4f39b83dc86a4159E', symObjAddr: 0x6950, symBinAddr: 0xEEC40, symSize: 0x120 }
  - { offsetInCU: 0x25E97, offset: 0x40B04A, size: 0x8, addend: 0x0, symName: '__ZN4core3ptr94drop_in_place$LT$syn..punctuated..Punctuated$LT$syn..pat..FieldPat$C$syn..token..Comma$GT$$GT$17h112950ea198c8281E', symObjAddr: 0x6A70, symBinAddr: 0xEED60, symSize: 0xF0 }
  - { offsetInCU: 0x26161, offset: 0x40B314, size: 0x8, addend: 0x0, symName: '__ZN4core3ptr94drop_in_place$LT$syn..punctuated..Punctuated$LT$syn..ty..BareFnArg$C$syn..token..Comma$GT$$GT$17h1c7b44310f06243dE', symObjAddr: 0x6B60, symBinAddr: 0xEEE50, symSize: 0xF0 }
  - { offsetInCU: 0x2642B, offset: 0x40B5DE, size: 0x8, addend: 0x0, symName: '__ZN4core3ptr96drop_in_place$LT$core..option..Option$LT$alloc..boxed..Box$LT$syn..path..PathSegment$GT$$GT$$GT$17hb447d0f626c86a4eE', symObjAddr: 0x6C50, symBinAddr: 0xEEF40, symSize: 0x180 }
  - { offsetInCU: 0x26ABC, offset: 0x40BC6F, size: 0x8, addend: 0x0, symName: '__ZN4core3ptr97drop_in_place$LT$syn..punctuated..Punctuated$LT$syn..expr..FieldValue$C$syn..token..Comma$GT$$GT$17h31b81f7462228dcbE', symObjAddr: 0x6DD0, symBinAddr: 0xEF0C0, symSize: 0xF0 }
  - { offsetInCU: 0x26E02, offset: 0x40BFB5, size: 0x8, addend: 0x0, symName: '__ZN4core3ptr98drop_in_place$LT$syn..punctuated..Punctuated$LT$syn..lifetime..Lifetime$C$syn..token..Plus$GT$$GT$17h0f8fc5f20f465f47E', symObjAddr: 0x6EC0, symBinAddr: 0xEF1B0, symSize: 0xC0 }
  - { offsetInCU: 0x2D0C5, offset: 0x412278, size: 0x8, addend: 0x0, symName: '__ZN3syn3pat7parsing31_$LT$impl$u20$syn..pat..Pat$GT$12parse_single17he8272f3d05bd5b62E', symObjAddr: 0x7690, symBinAddr: 0xEF290, symSize: 0x10A0 }
  - { offsetInCU: 0x31BA0, offset: 0x416D53, size: 0x8, addend: 0x0, symName: '__ZN3syn3pat7parsing31_$LT$impl$u20$syn..pat..Pat$GT$29parse_multi_with_leading_vert17hff4a0f009e279073E', symObjAddr: 0x8750, symBinAddr: 0xF0330, symSize: 0xD0 }
  - { offsetInCU: 0x35, offset: 0x41DFD2, size: 0x8, addend: 0x0, symName: _anon.9fa2b4368973a3c0948f9ae02c44caa7.1.llvm.11936935375936494365, symObjAddr: 0xDA20, symBinAddr: 0x250C18, symSize: 0x0 }
  - { offsetInCU: 0x1D98, offset: 0x41FD35, size: 0x8, addend: 0x0, symName: '__ZN4core3ptr100drop_in_place$LT$syn..punctuated..Punctuated$LT$syn..path..PathSegment$C$syn..token..PathSep$GT$$GT$17hf414cb3581f8337aE.llvm.11936935375936494365', symObjAddr: 0x250, symBinAddr: 0xF2D90, symSize: 0x140 }
  - { offsetInCU: 0x22EB, offset: 0x420288, size: 0x8, addend: 0x0, symName: '__ZN4core3ptr101drop_in_place$LT$core..option..Option$LT$alloc..boxed..Box$LT$syn..generics..GenericParam$GT$$GT$$GT$17hd5dce04b35fda9feE', symObjAddr: 0x390, symBinAddr: 0xF2ED0, symSize: 0x90 }
  - { offsetInCU: 0x24D1, offset: 0x42046E, size: 0x8, addend: 0x0, symName: '__ZN4core3ptr102drop_in_place$LT$syn..punctuated..Punctuated$LT$syn..path..GenericArgument$C$syn..token..Comma$GT$$GT$17h39496ba4e6dba6cfE.llvm.11936935375936494365', symObjAddr: 0x420, symBinAddr: 0xF2F60, symSize: 0xF0 }
  - { offsetInCU: 0x27CD, offset: 0x42076A, size: 0x8, addend: 0x0, symName: '__ZN4core3ptr103drop_in_place$LT$core..option..Option$LT$alloc..boxed..Box$LT$syn..generics..TypeParamBound$GT$$GT$$GT$17h5974f03e36b1a9c3E', symObjAddr: 0x510, symBinAddr: 0xF3050, symSize: 0x50 }
  - { offsetInCU: 0x299C, offset: 0x420939, size: 0x8, addend: 0x0, symName: '__ZN4core3ptr103drop_in_place$LT$syn..punctuated..Punctuated$LT$syn..generics..GenericParam$C$syn..token..Comma$GT$$GT$17hf42353fa44ed6da8E', symObjAddr: 0x560, symBinAddr: 0xF30A0, symSize: 0xF0 }
  - { offsetInCU: 0x2E6B, offset: 0x420E08, size: 0x8, addend: 0x0, symName: '__ZN4core3ptr104drop_in_place$LT$syn..punctuated..Punctuated$LT$syn..generics..TypeParamBound$C$syn..token..Plus$GT$$GT$17h532f52c4a894b056E', symObjAddr: 0x650, symBinAddr: 0xF3190, symSize: 0x260 }
  - { offsetInCU: 0x3855, offset: 0x4217F2, size: 0x8, addend: 0x0, symName: '__ZN4core3ptr34drop_in_place$LT$syn..lit..Lit$GT$17h8902f5ff67917034E', symObjAddr: 0x8C0, symBinAddr: 0xF33F0, symSize: 0x110 }
  - { offsetInCU: 0x3DCD, offset: 0x421D6A, size: 0x8, addend: 0x0, symName: '__ZN4core3ptr34drop_in_place$LT$syn..pat..Pat$GT$17h4581eea028ec0969E', symObjAddr: 0x9D0, symBinAddr: 0xF3500, symSize: 0x1000 }
  - { offsetInCU: 0x7911, offset: 0x4258AE, size: 0x8, addend: 0x0, symName: '__ZN4core3ptr34drop_in_place$LT$syn..ty..Type$GT$17h369e41ad4a9f1ae0E.llvm.11936935375936494365', symObjAddr: 0x19D0, symBinAddr: 0xF4500, symSize: 0x4F0 }
  - { offsetInCU: 0x8E7B, offset: 0x426E18, size: 0x8, addend: 0x0, symName: '__ZN4core3ptr36drop_in_place$LT$syn..expr..Expr$GT$17h0f7fd4c749bae801E.llvm.11936935375936494365', symObjAddr: 0x1EC0, symBinAddr: 0xF49F0, symSize: 0x28C0 }
  - { offsetInCU: 0x12320, offset: 0x4302BD, size: 0x8, addend: 0x0, symName: '__ZN4core3ptr36drop_in_place$LT$syn..mac..Macro$GT$17h4ffde962df30ebe2E', symObjAddr: 0x4780, symBinAddr: 0xF72B0, symSize: 0x40 }
  - { offsetInCU: 0x12379, offset: 0x430316, size: 0x8, addend: 0x0, symName: '__ZN4core3ptr36drop_in_place$LT$syn..path..Path$GT$17habea856181211e1cE.llvm.11936935375936494365', symObjAddr: 0x47C0, symBinAddr: 0xF72F0, symSize: 0x140 }
  - { offsetInCU: 0x128BE, offset: 0x43085B, size: 0x8, addend: 0x0, symName: '__ZN4core3ptr37drop_in_place$LT$syn..stmt..Block$GT$17hcc21a21cf949414cE', symObjAddr: 0x4900, symBinAddr: 0xF7430, symSize: 0xD0 }
  - { offsetInCU: 0x12B62, offset: 0x430AFF, size: 0x8, addend: 0x0, symName: '__ZN4core3ptr38drop_in_place$LT$syn..expr..Member$GT$17h022cbe5553aa40faE', symObjAddr: 0x49D0, symBinAddr: 0xF7500, symSize: 0x30 }
  - { offsetInCU: 0x12C5F, offset: 0x430BFC, size: 0x8, addend: 0x0, symName: '__ZN4core3ptr38drop_in_place$LT$syn..ty..TypePath$GT$17he8f590b78af8d8f3E', symObjAddr: 0x4A00, symBinAddr: 0xF7530, symSize: 0x80 }
  - { offsetInCU: 0x12DDE, offset: 0x430D7B, size: 0x8, addend: 0x0, symName: '__ZN4core3ptr39drop_in_place$LT$proc_macro2..Ident$GT$17h8101e88c3ac359d6E.llvm.11936935375936494365', symObjAddr: 0x4A80, symBinAddr: 0xF75B0, symSize: 0x30 }
  - { offsetInCU: 0x12EBC, offset: 0x430E59, size: 0x8, addend: 0x0, symName: '__ZN4core3ptr40drop_in_place$LT$syn..ty..ReturnType$GT$17h02cf41e2fec63d90E', symObjAddr: 0x4AB0, symBinAddr: 0xF75E0, symSize: 0x50 }
  - { offsetInCU: 0x1302E, offset: 0x430FCB, size: 0x8, addend: 0x0, symName: '__ZN4core3ptr41drop_in_place$LT$syn..expr..ExprConst$GT$17h725a13e551d9f276E', symObjAddr: 0x4B00, symBinAddr: 0xF7630, symSize: 0x180 }
  - { offsetInCU: 0x135A2, offset: 0x43153F, size: 0x8, addend: 0x0, symName: '__ZN4core3ptr42drop_in_place$LT$syn..path..Constraint$GT$17h07cd69a204b9a6d4E.llvm.11936935375936494365', symObjAddr: 0x4D60, symBinAddr: 0xF77B0, symSize: 0x160 }
  - { offsetInCU: 0x13AE1, offset: 0x431A7E, size: 0x8, addend: 0x0, symName: '__ZN4core3ptr44drop_in_place$LT$syn..lifetime..Lifetime$GT$17hf0cdec2e9ec456d6E.llvm.11936935375936494365', symObjAddr: 0x4EC0, symBinAddr: 0xF7910, symSize: 0x30 }
  - { offsetInCU: 0x13C5A, offset: 0x431BF7, size: 0x8, addend: 0x0, symName: '__ZN4core3ptr44drop_in_place$LT$syn..parse..ParseBuffer$GT$17hd0dadba44a19aec2E', symObjAddr: 0x4EF0, symBinAddr: 0xF7940, symSize: 0x70 }
  - { offsetInCU: 0x1408F, offset: 0x43202C, size: 0x8, addend: 0x0, symName: '__ZN4core3ptr45drop_in_place$LT$proc_macro2..TokenStream$GT$17h3405f6c513e9f6cbE', symObjAddr: 0x4F60, symBinAddr: 0xF79B0, symSize: 0x140 }
  - { offsetInCU: 0x144DF, offset: 0x43247C, size: 0x8, addend: 0x0, symName: '__ZN4core3ptr45drop_in_place$LT$syn..generics..TypeParam$GT$17he5eda51070b7de47E', symObjAddr: 0x50A0, symBinAddr: 0xF7AF0, symSize: 0x140 }
  - { offsetInCU: 0x148D1, offset: 0x43286E, size: 0x8, addend: 0x0, symName: '__ZN4core3ptr45drop_in_place$LT$syn..path..PathArguments$GT$17h7160021b3fdea550E.llvm.11936935375936494365', symObjAddr: 0x51E0, symBinAddr: 0xF7C30, symSize: 0xA0 }
  - { offsetInCU: 0x14AA6, offset: 0x432A43, size: 0x8, addend: 0x0, symName: '__ZN4core3ptr46drop_in_place$LT$syn..generics..ConstParam$GT$17hab0a58c4af8c549cE', symObjAddr: 0x5280, symBinAddr: 0xF7CD0, symSize: 0x150 }
  - { offsetInCU: 0x14E73, offset: 0x432E10, size: 0x8, addend: 0x0, symName: '__ZN4core3ptr49drop_in_place$LT$syn..generics..LifetimeParam$GT$17h41a7c7a290ea6289E', symObjAddr: 0x53D0, symBinAddr: 0xF7E20, symSize: 0xF0 }
  - { offsetInCU: 0x1522D, offset: 0x4331CA, size: 0x8, addend: 0x0, symName: '__ZN4core3ptr50drop_in_place$LT$syn..generics..TypeParamBound$GT$17hcd7771d4c6c221efE', symObjAddr: 0x54C0, symBinAddr: 0xF7F10, symSize: 0x160 }
  - { offsetInCU: 0x1564D, offset: 0x4335EA, size: 0x8, addend: 0x0, symName: '__ZN4core3ptr58drop_in_place$LT$alloc..vec..Vec$LT$syn..expr..Arm$GT$$GT$17h1a55df3d2cba1daaE', symObjAddr: 0x5620, symBinAddr: 0xF8070, symSize: 0xD0 }
  - { offsetInCU: 0x158DA, offset: 0x433877, size: 0x8, addend: 0x0, symName: '__ZN4core3ptr59drop_in_place$LT$alloc..boxed..Box$LT$syn..pat..Pat$GT$$GT$17h563b135d87aca8abE', symObjAddr: 0x56F0, symBinAddr: 0xF8140, symSize: 0x50 }
  - { offsetInCU: 0x15A35, offset: 0x4339D2, size: 0x8, addend: 0x0, symName: '__ZN4core3ptr59drop_in_place$LT$alloc..boxed..Box$LT$syn..ty..Type$GT$$GT$17hffed36bad83adacbE.llvm.11936935375936494365', symObjAddr: 0x5740, symBinAddr: 0xF8190, symSize: 0x50 }
  - { offsetInCU: 0x15B90, offset: 0x433B2D, size: 0x8, addend: 0x0, symName: '__ZN4core3ptr61drop_in_place$LT$alloc..boxed..Box$LT$syn..expr..Expr$GT$$GT$17h01091e47f131475dE', symObjAddr: 0x5790, symBinAddr: 0xF81E0, symSize: 0x50 }
  - { offsetInCU: 0x15D67, offset: 0x433D04, size: 0x8, addend: 0x0, symName: '__ZN4core3ptr61drop_in_place$LT$syn..path..ParenthesizedGenericArguments$GT$17h43d4aac5494326a7E.llvm.11936935375936494365', symObjAddr: 0x57E0, symBinAddr: 0xF8230, symSize: 0x170 }
  - { offsetInCU: 0x1632E, offset: 0x4342CB, size: 0x8, addend: 0x0, symName: '__ZN4core3ptr63drop_in_place$LT$alloc..boxed..Box$LT$syn..lit..LitRepr$GT$$GT$17hd8839b7fb35ee7afE', symObjAddr: 0x5950, symBinAddr: 0xF83A0, symSize: 0x60 }
  - { offsetInCU: 0x16623, offset: 0x4345C0, size: 0x8, addend: 0x0, symName: '__ZN4core3ptr64drop_in_place$LT$alloc..boxed..Box$LT$syn..pat..FieldPat$GT$$GT$17h4980b70a7597cc08E', symObjAddr: 0x59B0, symBinAddr: 0xF8400, symSize: 0x140 }
  - { offsetInCU: 0x16CCE, offset: 0x434C6B, size: 0x8, addend: 0x0, symName: '__ZN4core3ptr64drop_in_place$LT$alloc..boxed..Box$LT$syn..ty..BareFnArg$GT$$GT$17h8b34096c620314efE', symObjAddr: 0x5AF0, symBinAddr: 0xF8540, symSize: 0x140 }
  - { offsetInCU: 0x171F2, offset: 0x43518F, size: 0x8, addend: 0x0, symName: '__ZN4core3ptr65drop_in_place$LT$core..option..Option$LT$syn..expr..Label$GT$$GT$17h78189e72a8cb7951E', symObjAddr: 0x5C30, symBinAddr: 0xF8680, symSize: 0x30 }
  - { offsetInCU: 0x1732D, offset: 0x4352CA, size: 0x8, addend: 0x0, symName: '__ZN4core3ptr66drop_in_place$LT$core..option..Option$LT$syn..pat..PatRest$GT$$GT$17h61677cf4ff3a7393E', symObjAddr: 0x5C60, symBinAddr: 0xF86B0, symSize: 0xE0 }
  - { offsetInCU: 0x175B1, offset: 0x43554E, size: 0x8, addend: 0x0, symName: '__ZN4core3ptr67drop_in_place$LT$alloc..boxed..Box$LT$syn..expr..FieldValue$GT$$GT$17h93aaccf8aa22ef88E', symObjAddr: 0x5D40, symBinAddr: 0xF8790, symSize: 0x140 }
  - { offsetInCU: 0x17AB5, offset: 0x435A52, size: 0x8, addend: 0x0, symName: '__ZN4core3ptr68drop_in_place$LT$alloc..boxed..Box$LT$syn..path..PathSegment$GT$$GT$17h709dabdc13b58a71E', symObjAddr: 0x5E80, symBinAddr: 0xF88D0, symSize: 0xD0 }
  - { offsetInCU: 0x17ED2, offset: 0x435E6F, size: 0x8, addend: 0x0, symName: '__ZN4core3ptr70drop_in_place$LT$core..option..Option$LT$syn..ty..BareVariadic$GT$$GT$17h45399348ea4b8d55E', symObjAddr: 0x5F60, symBinAddr: 0xF89A0, symSize: 0x120 }
  - { offsetInCU: 0x1843D, offset: 0x4363DA, size: 0x8, addend: 0x0, symName: '__ZN4core3ptr72drop_in_place$LT$alloc..boxed..Box$LT$syn..path..GenericArgument$GT$$GT$17haa7dd8b716637b54E.llvm.11936935375936494365', symObjAddr: 0x6080, symBinAddr: 0xF8AC0, symSize: 0x180 }
  - { offsetInCU: 0x18925, offset: 0x4368C2, size: 0x8, addend: 0x0, symName: '__ZN4core3ptr72drop_in_place$LT$core..option..Option$LT$syn..lifetime..Lifetime$GT$$GT$17hfc363ccdd8bd9c32E', symObjAddr: 0x6200, symBinAddr: 0xF8C40, symSize: 0x30 }
  - { offsetInCU: 0x18A60, offset: 0x4369FD, size: 0x8, addend: 0x0, symName: '__ZN4core3ptr73drop_in_place$LT$alloc..boxed..Box$LT$syn..generics..GenericParam$GT$$GT$17hf6951dcd5ae07324E', symObjAddr: 0x6260, symBinAddr: 0xF8C70, symSize: 0x80 }
  - { offsetInCU: 0x18BD8, offset: 0x436B75, size: 0x8, addend: 0x0, symName: '__ZN4core3ptr75drop_in_place$LT$alloc..boxed..Box$LT$syn..generics..TypeParamBound$GT$$GT$17he61c00698a311a34E', symObjAddr: 0x62E0, symBinAddr: 0xF8CF0, symSize: 0x190 }
  - { offsetInCU: 0x192B0, offset: 0x43724D, size: 0x8, addend: 0x0, symName: '__ZN4core3ptr86drop_in_place$LT$syn..punctuated..Punctuated$LT$syn..pat..Pat$C$syn..token..Or$GT$$GT$17h8e9173df21a44316E', symObjAddr: 0x6470, symBinAddr: 0xF8E80, symSize: 0x120 }
  - { offsetInCU: 0x196F6, offset: 0x437693, size: 0x8, addend: 0x0, symName: '__ZN4core3ptr87drop_in_place$LT$core..option..Option$LT$alloc..boxed..Box$LT$syn..pat..Pat$GT$$GT$$GT$17hd7b7c69f601b3926E', symObjAddr: 0x6590, symBinAddr: 0xF8FA0, symSize: 0x50 }
  - { offsetInCU: 0x19868, offset: 0x437805, size: 0x8, addend: 0x0, symName: '__ZN4core3ptr87drop_in_place$LT$core..option..Option$LT$alloc..boxed..Box$LT$syn..ty..Type$GT$$GT$$GT$17hd74f5d971aec2972E.llvm.11936935375936494365', symObjAddr: 0x65E0, symBinAddr: 0xF8FF0, symSize: 0x50 }
  - { offsetInCU: 0x199DA, offset: 0x437977, size: 0x8, addend: 0x0, symName: '__ZN4core3ptr89drop_in_place$LT$core..option..Option$LT$alloc..boxed..Box$LT$syn..expr..Expr$GT$$GT$$GT$17h8e135ac1a25a2dc5E', symObjAddr: 0x6630, symBinAddr: 0xF9040, symSize: 0x50 }
  - { offsetInCU: 0x19B8A, offset: 0x437B27, size: 0x8, addend: 0x0, symName: '__ZN4core3ptr89drop_in_place$LT$syn..punctuated..Punctuated$LT$syn..pat..Pat$C$syn..token..Comma$GT$$GT$17h8d60e47f3fb1f87aE', symObjAddr: 0x6680, symBinAddr: 0xF9090, symSize: 0x120 }
  - { offsetInCU: 0x19FE7, offset: 0x437F84, size: 0x8, addend: 0x0, symName: '__ZN4core3ptr89drop_in_place$LT$syn..punctuated..Punctuated$LT$syn..ty..Type$C$syn..token..Comma$GT$$GT$17ha919b3114742fb9dE.llvm.11936935375936494365', symObjAddr: 0x67A0, symBinAddr: 0xF91B0, symSize: 0x120 }
  - { offsetInCU: 0x1A46F, offset: 0x43840C, size: 0x8, addend: 0x0, symName: '__ZN4core3ptr91drop_in_place$LT$syn..punctuated..Punctuated$LT$syn..expr..Expr$C$syn..token..Comma$GT$$GT$17h4f39b83dc86a4159E', symObjAddr: 0x68E0, symBinAddr: 0xF92D0, symSize: 0x120 }
  - { offsetInCU: 0x1A8CC, offset: 0x438869, size: 0x8, addend: 0x0, symName: '__ZN4core3ptr94drop_in_place$LT$syn..punctuated..Punctuated$LT$syn..pat..FieldPat$C$syn..token..Comma$GT$$GT$17h112950ea198c8281E', symObjAddr: 0x6A00, symBinAddr: 0xF93F0, symSize: 0xF0 }
  - { offsetInCU: 0x1AB96, offset: 0x438B33, size: 0x8, addend: 0x0, symName: '__ZN4core3ptr94drop_in_place$LT$syn..punctuated..Punctuated$LT$syn..ty..BareFnArg$C$syn..token..Comma$GT$$GT$17h1c7b44310f06243dE', symObjAddr: 0x6AF0, symBinAddr: 0xF94E0, symSize: 0xF0 }
  - { offsetInCU: 0x1AE60, offset: 0x438DFD, size: 0x8, addend: 0x0, symName: '__ZN4core3ptr96drop_in_place$LT$core..option..Option$LT$alloc..boxed..Box$LT$syn..path..PathSegment$GT$$GT$$GT$17hb447d0f626c86a4eE.llvm.11936935375936494365', symObjAddr: 0x6BE0, symBinAddr: 0xF95D0, symSize: 0x90 }
  - { offsetInCU: 0x1B101, offset: 0x43909E, size: 0x8, addend: 0x0, symName: '__ZN4core3ptr97drop_in_place$LT$syn..punctuated..Punctuated$LT$syn..expr..FieldValue$C$syn..token..Comma$GT$$GT$17h31b81f7462228dcbE', symObjAddr: 0x6C70, symBinAddr: 0xF9660, symSize: 0xF0 }
  - { offsetInCU: 0x1B447, offset: 0x4393E4, size: 0x8, addend: 0x0, symName: '__ZN4core3ptr98drop_in_place$LT$syn..punctuated..Punctuated$LT$syn..lifetime..Lifetime$C$syn..token..Plus$GT$$GT$17h0f8fc5f20f465f47E', symObjAddr: 0x6D60, symBinAddr: 0xF9750, symSize: 0xC0 }
  - { offsetInCU: 0x215DA, offset: 0x43F577, size: 0x8, addend: 0x0, symName: '__ZN3syn4path8printing72_$LT$impl$u20$quote..to_tokens..ToTokens$u20$for$u20$syn..path..Path$GT$9to_tokens17hfb34523432ea271cE', symObjAddr: 0x9DB0, symBinAddr: 0xFBFB0, symSize: 0x70 }
  - { offsetInCU: 0x21884, offset: 0x43F821, size: 0x8, addend: 0x0, symName: '__ZN3syn4path8printing83_$LT$impl$u20$quote..to_tokens..ToTokens$u20$for$u20$syn..path..GenericArgument$GT$9to_tokens17h9a59d2d6bd262af6E', symObjAddr: 0x9F50, symBinAddr: 0xFC020, symSize: 0x240 }
  - { offsetInCU: 0x21EAA, offset: 0x43FE47, size: 0x8, addend: 0x0, symName: '__ZN3syn4path8printing98_$LT$impl$u20$quote..to_tokens..ToTokens$u20$for$u20$syn..path..AngleBracketedGenericArguments$GT$9to_tokens17he4942a448a6b5094E', symObjAddr: 0xA190, symBinAddr: 0xFC260, symSize: 0x200 }
  - { offsetInCU: 0x22666, offset: 0x440603, size: 0x8, addend: 0x0, symName: '__ZN64_$LT$syn..path..Path$u20$as$u20$core..convert..From$LT$T$GT$$GT$4from17h27b9250e6fa6a0e9E', symObjAddr: 0x7310, symBinAddr: 0xF9810, symSize: 0xC0 }
  - { offsetInCU: 0x2270D, offset: 0x4406AA, size: 0x8, addend: 0x0, symName: '__ZN3syn4path7parsing74_$LT$impl$u20$syn..parse..Parse$u20$for$u20$syn..path..GenericArgument$GT$5parse17h65a40b108c2e8b8aE', symObjAddr: 0x77E0, symBinAddr: 0xF9A70, symSize: 0xEE0 }
  - { offsetInCU: 0x23DCC, offset: 0x441D69, size: 0x8, addend: 0x0, symName: '__ZN3syn4path7parsing89_$LT$impl$u20$syn..parse..Parse$u20$for$u20$syn..path..AngleBracketedGenericArguments$GT$5parse17hb7926999981a34ccE', symObjAddr: 0x8A60, symBinAddr: 0xFAC80, symSize: 0xC0 }
  - { offsetInCU: 0x23FBE, offset: 0x441F5B, size: 0x8, addend: 0x0, symName: '__ZN3syn4path7parsing88_$LT$impl$u20$syn..parse..Parse$u20$for$u20$syn..path..ParenthesizedGenericArguments$GT$5parse17hfb5732c56514d24fE', symObjAddr: 0x8B20, symBinAddr: 0xFAD40, symSize: 0x3B0 }
  - { offsetInCU: 0x28A3C, offset: 0x4469D9, size: 0x8, addend: 0x0, symName: '__ZN3syn3gen5clone70_$LT$impl$u20$core..clone..Clone$u20$for$u20$syn..path..AssocConst$GT$5clone17h9f90c67dcaf31591E', symObjAddr: 0xA650, symBinAddr: 0xFC460, symSize: 0x1E0 }
  - { offsetInCU: 0x28D3F, offset: 0x446CDC, size: 0x8, addend: 0x0, symName: '__ZN3syn3gen5clone69_$LT$impl$u20$core..clone..Clone$u20$for$u20$syn..path..AssocType$GT$5clone17h5f2d03b9560795caE', symObjAddr: 0xA830, symBinAddr: 0xFC640, symSize: 0x1E0 }
  - { offsetInCU: 0x29042, offset: 0x446FDF, size: 0x8, addend: 0x0, symName: '__ZN3syn3gen5clone70_$LT$impl$u20$core..clone..Clone$u20$for$u20$syn..path..Constraint$GT$5clone17hd65bf7716c6ea04fE', symObjAddr: 0xAA10, symBinAddr: 0xFC820, symSize: 0x1A0 }
  - { offsetInCU: 0x29343, offset: 0x4472E0, size: 0x8, addend: 0x0, symName: '__ZN3syn3gen5clone75_$LT$impl$u20$core..clone..Clone$u20$for$u20$syn..path..GenericArgument$GT$5clone17h7af3968a8a6bb26dE', symObjAddr: 0xABB0, symBinAddr: 0xFC9C0, symSize: 0x1A0 }
  - { offsetInCU: 0x29537, offset: 0x4474D4, size: 0x8, addend: 0x0, symName: '__ZN3syn3gen5clone73_$LT$impl$u20$core..clone..Clone$u20$for$u20$syn..path..PathArguments$GT$5clone17hb2ce2f8366ba5c43E', symObjAddr: 0xAEC0, symBinAddr: 0xFCB60, symSize: 0x190 }
  - { offsetInCU: 0x2B642, offset: 0x4495DF, size: 0x8, addend: 0x0, symName: __ZN3syn4path4Path8is_ident17h134d0fe341c9f063E, symObjAddr: 0x73D0, symBinAddr: 0xF98D0, symSize: 0x110 }
  - { offsetInCU: 0x2BB40, offset: 0x449ADD, size: 0x8, addend: 0x0, symName: __ZN3syn4path4Path9get_ident17h46f26b61a5616d05E, symObjAddr: 0x74E0, symBinAddr: 0xF99E0, symSize: 0x90 }
  - { offsetInCU: 0x2C469, offset: 0x44A406, size: 0x8, addend: 0x0, symName: '__ZN3syn4path7parsing59_$LT$impl$u20$syn..path..AngleBracketedGenericArguments$GT$8do_parse17hb08d246db2c3708aE.llvm.11936935375936494365', symObjAddr: 0x8730, symBinAddr: 0xFA950, symSize: 0x330 }
  - { offsetInCU: 0x2CD35, offset: 0x44ACD2, size: 0x8, addend: 0x0, symName: '__ZN3syn4path7parsing40_$LT$impl$u20$syn..path..PathSegment$GT$12parse_helper17h9184466aa9fa491fE', symObjAddr: 0x8EF0, symBinAddr: 0xFB0F0, symSize: 0x380 }
  - { offsetInCU: 0x2D8B4, offset: 0x44B851, size: 0x8, addend: 0x0, symName: '__ZN3syn4path7parsing33_$LT$impl$u20$syn..path..Path$GT$15parse_mod_style17ha248aba2a7f4b234E', symObjAddr: 0x9270, symBinAddr: 0xFB470, symSize: 0x420 }
  - { offsetInCU: 0x2E241, offset: 0x44C1DE, size: 0x8, addend: 0x0, symName: '__ZN3syn4path7parsing33_$LT$impl$u20$syn..path..Path$GT$12parse_helper17h93c4dc222d1465d8E', symObjAddr: 0x9690, symBinAddr: 0xFB890, symSize: 0x310 }
  - { offsetInCU: 0x2E61D, offset: 0x44C5BA, size: 0x8, addend: 0x0, symName: '__ZN3syn4path7parsing33_$LT$impl$u20$syn..path..Path$GT$10parse_rest17h674b45704d8e502eE', symObjAddr: 0x99A0, symBinAddr: 0xFBBA0, symSize: 0x370 }
  - { offsetInCU: 0x2EC8F, offset: 0x44CC2C, size: 0x8, addend: 0x0, symName: '__ZN3syn4path7parsing33_$LT$impl$u20$syn..path..Path$GT$12is_mod_style17hb0190b672a8d9ee2E', symObjAddr: 0x9D10, symBinAddr: 0xFBF10, symSize: 0xA0 }
  - { offsetInCU: 0x1E, offset: 0x4527CE, size: 0x8, addend: 0x0, symName: '__ZN4core3fmt3num52_$LT$impl$u20$core..fmt..Debug$u20$for$u20$usize$GT$3fmt17h05928cb6857c498fE', symObjAddr: 0x0, symBinAddr: 0xFCCF0, symSize: 0x30 }
  - { offsetInCU: 0x6B, offset: 0x45281B, size: 0x8, addend: 0x0, symName: '__ZN64_$LT$alloc..ffi..c_str..NulError$u20$as$u20$core..fmt..Debug$GT$3fmt17h27eb6f0aef87a2a7E', symObjAddr: 0xA0, symBinAddr: 0xFCD90, symSize: 0x50 }
  - { offsetInCU: 0x633, offset: 0x452DE3, size: 0x8, addend: 0x0, symName: '__ZN65_$LT$alloc..string..FromUtf8Error$u20$as$u20$core..fmt..Debug$GT$3fmt17h7e8b2a6ae2113c0eE', symObjAddr: 0xF0, symBinAddr: 0xFCDE0, symSize: 0x70 }
  - { offsetInCU: 0x131E, offset: 0x453ACE, size: 0x8, addend: 0x0, symName: '__ZN4core3ptr26drop_in_place$LT$usize$GT$17h589ee933aeb38d3fE', symObjAddr: 0x30, symBinAddr: 0xFCD20, symSize: 0x10 }
  - { offsetInCU: 0x1369, offset: 0x453B19, size: 0x8, addend: 0x0, symName: '__ZN4core3ptr46drop_in_place$LT$alloc..vec..Vec$LT$u8$GT$$GT$17hc2907af9838bcdd1E', symObjAddr: 0x40, symBinAddr: 0xFCD30, symSize: 0x20 }
  - { offsetInCU: 0x1472, offset: 0x453C22, size: 0x8, addend: 0x0, symName: '__ZN4core3ptr48drop_in_place$LT$alloc..ffi..c_str..NulError$GT$17h1aea77be2d5835acE', symObjAddr: 0x60, symBinAddr: 0xFCD50, symSize: 0x20 }
  - { offsetInCU: 0x157B, offset: 0x453D2B, size: 0x8, addend: 0x0, symName: '__ZN4core3ptr49drop_in_place$LT$alloc..string..FromUtf8Error$GT$17h2fbc0159c498e595E', symObjAddr: 0x80, symBinAddr: 0xFCD70, symSize: 0x20 }
  - { offsetInCU: 0x3103, offset: 0x4558B3, size: 0x8, addend: 0x0, symName: '__ZN4core3fmt3num52_$LT$impl$u20$core..fmt..Debug$u20$for$u20$usize$GT$3fmt17h05928cb6857c498fE', symObjAddr: 0x0, symBinAddr: 0xFCCF0, symSize: 0x30 }
  - { offsetInCU: 0x4695, offset: 0x456E45, size: 0x8, addend: 0x0, symName: __ZN3syn3lit5value13parse_lit_str17h3c5d218175e31e78E, symObjAddr: 0x180, symBinAddr: 0xFCE50, symSize: 0x8C0 }
  - { offsetInCU: 0x5B56, offset: 0x458306, size: 0x8, addend: 0x0, symName: __ZN3syn3lit5value17parse_lit_str_raw17h168cf9b36ed3dcafE, symObjAddr: 0xA40, symBinAddr: 0xFD710, symSize: 0x390 }
  - { offsetInCU: 0x6A7B, offset: 0x45922B, size: 0x8, addend: 0x0, symName: __ZN3syn3lit5value18parse_lit_byte_str17h114ea87e1e5530f9E, symObjAddr: 0xDD0, symBinAddr: 0xFDAA0, symSize: 0x5F0 }
  - { offsetInCU: 0x7C1A, offset: 0x45A3CA, size: 0x8, addend: 0x0, symName: __ZN3syn3lit5value15parse_lit_c_str17h2e23f382676eb89fE, symObjAddr: 0x13C0, symBinAddr: 0xFE090, symSize: 0xDC0 }
  - { offsetInCU: 0x974E, offset: 0x45BEFE, size: 0x8, addend: 0x0, symName: __ZN3syn3lit5value14parse_lit_byte17h8368b76f54c902edE, symObjAddr: 0x2180, symBinAddr: 0xFEE50, symSize: 0x360 }
  - { offsetInCU: 0xA121, offset: 0x45C8D1, size: 0x8, addend: 0x0, symName: __ZN3syn3lit5value14parse_lit_char17h4662affc67fe4c35E, symObjAddr: 0x24E0, symBinAddr: 0xFF1B0, symSize: 0x540 }
  - { offsetInCU: 0xAB91, offset: 0x45D341, size: 0x8, addend: 0x0, symName: __ZN3syn3lit5value11backslash_x17h6af15b4541eecc81E, symObjAddr: 0x2A20, symBinAddr: 0xFF6F0, symSize: 0x140 }
  - { offsetInCU: 0xADB9, offset: 0x45D569, size: 0x8, addend: 0x0, symName: __ZN3syn3lit5value11backslash_x17hc9cdb612cbcee4eaE, symObjAddr: 0x2B60, symBinAddr: 0xFF830, symSize: 0x160 }
  - { offsetInCU: 0xAFD2, offset: 0x45D782, size: 0x8, addend: 0x0, symName: __ZN3syn3lit5value11backslash_u17h55bb2c22887e188dE, symObjAddr: 0x2CC0, symBinAddr: 0xFF990, symSize: 0x320 }
  - { offsetInCU: 0xB6D8, offset: 0x45DE88, size: 0x8, addend: 0x0, symName: __ZN3syn3lit5value13parse_lit_int17h099083565c080e1fE, symObjAddr: 0x2FE0, symBinAddr: 0xFFCB0, symSize: 0x640 }
  - { offsetInCU: 0xCB44, offset: 0x45F2F4, size: 0x8, addend: 0x0, symName: __ZN3syn3lit5value15parse_lit_float17h1ae5183bffb9d56bE, symObjAddr: 0x3620, symBinAddr: 0x1002F0, symSize: 0x760 }
  - { offsetInCU: 0xDDBD, offset: 0x46056D, size: 0x8, addend: 0x0, symName: __ZN3syn3lit5value11backslash_u18panic_cold_display17h739e2f3538fc20ddE, symObjAddr: 0x3D80, symBinAddr: 0x1EDCE0, symSize: 0x59 }
  - { offsetInCU: 0x1E, offset: 0x462033, size: 0x8, addend: 0x0, symName: __ZN4core3ops8function6FnOnce9call_once17h74ffd67680f50378E, symObjAddr: 0x0, symBinAddr: 0x100A50, symSize: 0x140 }
  - { offsetInCU: 0x17C9, offset: 0x4637DE, size: 0x8, addend: 0x0, symName: '__ZN4core3ptr100drop_in_place$LT$core..option..Option$LT$alloc..boxed..Box$LT$syn..path..GenericArgument$GT$$GT$$GT$17h7435c9de74860622E', symObjAddr: 0x140, symBinAddr: 0x100B90, symSize: 0x50 }
  - { offsetInCU: 0x1B69, offset: 0x463B7E, size: 0x8, addend: 0x0, symName: '__ZN4core3ptr100drop_in_place$LT$syn..punctuated..Punctuated$LT$syn..path..PathSegment$C$syn..token..PathSep$GT$$GT$17hf414cb3581f8337aE', symObjAddr: 0x190, symBinAddr: 0x100BE0, symSize: 0x260 }
  - { offsetInCU: 0x24E3, offset: 0x4644F8, size: 0x8, addend: 0x0, symName: '__ZN4core3ptr102drop_in_place$LT$syn..punctuated..Punctuated$LT$syn..path..GenericArgument$C$syn..token..Comma$GT$$GT$17h39496ba4e6dba6cfE', symObjAddr: 0x3F0, symBinAddr: 0x100E40, symSize: 0xF0 }
  - { offsetInCU: 0x27CC, offset: 0x4647E1, size: 0x8, addend: 0x0, symName: '__ZN4core3ptr103drop_in_place$LT$core..option..Option$LT$alloc..boxed..Box$LT$syn..generics..TypeParamBound$GT$$GT$$GT$17h5974f03e36b1a9c3E', symObjAddr: 0x4E0, symBinAddr: 0x100F30, symSize: 0x50 }
  - { offsetInCU: 0x29D9, offset: 0x4649EE, size: 0x8, addend: 0x0, symName: '__ZN4core3ptr103drop_in_place$LT$syn..punctuated..Punctuated$LT$syn..generics..GenericParam$C$syn..token..Comma$GT$$GT$17hf42353fa44ed6da8E', symObjAddr: 0x530, symBinAddr: 0x100F80, symSize: 0xF0 }
  - { offsetInCU: 0x2EBB, offset: 0x464ED0, size: 0x8, addend: 0x0, symName: '__ZN4core3ptr104drop_in_place$LT$syn..punctuated..Punctuated$LT$syn..generics..TypeParamBound$C$syn..token..Plus$GT$$GT$17h532f52c4a894b056E', symObjAddr: 0x620, symBinAddr: 0x101070, symSize: 0x230 }
  - { offsetInCU: 0x3799, offset: 0x4657AE, size: 0x8, addend: 0x0, symName: '__ZN4core3ptr34drop_in_place$LT$syn..lit..Lit$GT$17h8902f5ff67917034E', symObjAddr: 0x850, symBinAddr: 0x1012A0, symSize: 0x110 }
  - { offsetInCU: 0x3CD3, offset: 0x465CE8, size: 0x8, addend: 0x0, symName: '__ZN4core3ptr34drop_in_place$LT$syn..pat..Pat$GT$17h4581eea028ec0969E.llvm.6604562245513491834', symObjAddr: 0x960, symBinAddr: 0x1013B0, symSize: 0x1000 }
  - { offsetInCU: 0x77F8, offset: 0x46980D, size: 0x8, addend: 0x0, symName: '__ZN4core3ptr34drop_in_place$LT$syn..ty..Type$GT$17h369e41ad4a9f1ae0E', symObjAddr: 0x1960, symBinAddr: 0x1023B0, symSize: 0x460 }
  - { offsetInCU: 0x8A8A, offset: 0x46AA9F, size: 0x8, addend: 0x0, symName: '__ZN4core3ptr36drop_in_place$LT$syn..expr..Expr$GT$17h0f7fd4c749bae801E', symObjAddr: 0x1DC0, symBinAddr: 0x102810, symSize: 0x2770 }
  - { offsetInCU: 0x119BC, offset: 0x4739D1, size: 0x8, addend: 0x0, symName: '__ZN4core3ptr36drop_in_place$LT$syn..mac..Macro$GT$17h4ffde962df30ebe2E', symObjAddr: 0x4530, symBinAddr: 0x104F80, symSize: 0x40 }
  - { offsetInCU: 0x119F6, offset: 0x473A0B, size: 0x8, addend: 0x0, symName: '__ZN4core3ptr36drop_in_place$LT$syn..path..Path$GT$17habea856181211e1cE', symObjAddr: 0x4570, symBinAddr: 0x104FC0, symSize: 0x220 }
  - { offsetInCU: 0x1232B, offset: 0x474340, size: 0x8, addend: 0x0, symName: '__ZN4core3ptr37drop_in_place$LT$syn..stmt..Block$GT$17hcc21a21cf949414cE', symObjAddr: 0x4790, symBinAddr: 0x1051E0, symSize: 0xD0 }
  - { offsetInCU: 0x125CF, offset: 0x4745E4, size: 0x8, addend: 0x0, symName: '__ZN4core3ptr38drop_in_place$LT$syn..expr..Member$GT$17h022cbe5553aa40faE', symObjAddr: 0x4860, symBinAddr: 0x1052B0, symSize: 0x30 }
  - { offsetInCU: 0x126CC, offset: 0x4746E1, size: 0x8, addend: 0x0, symName: '__ZN4core3ptr39drop_in_place$LT$proc_macro2..Ident$GT$17h8101e88c3ac359d6E', symObjAddr: 0x4890, symBinAddr: 0x1052E0, symSize: 0x30 }
  - { offsetInCU: 0x127AA, offset: 0x4747BF, size: 0x8, addend: 0x0, symName: '__ZN4core3ptr40drop_in_place$LT$syn..ty..ReturnType$GT$17h02cf41e2fec63d90E', symObjAddr: 0x48C0, symBinAddr: 0x105310, symSize: 0x50 }
  - { offsetInCU: 0x1291C, offset: 0x474931, size: 0x8, addend: 0x0, symName: '__ZN4core3ptr41drop_in_place$LT$syn..expr..ExprConst$GT$17h725a13e551d9f276E', symObjAddr: 0x4910, symBinAddr: 0x105360, symSize: 0x180 }
  - { offsetInCU: 0x12E71, offset: 0x474E86, size: 0x8, addend: 0x0, symName: '__ZN4core3ptr41drop_in_place$LT$syn..expr..ExprRange$GT$17h438536f001486768E', symObjAddr: 0x4A90, symBinAddr: 0x1054E0, symSize: 0x160 }
  - { offsetInCU: 0x133E2, offset: 0x4753F7, size: 0x8, addend: 0x0, symName: '__ZN4core3ptr44drop_in_place$LT$syn..lifetime..Lifetime$GT$17hf0cdec2e9ec456d6E', symObjAddr: 0x4BF0, symBinAddr: 0x105640, symSize: 0x30 }
  - { offsetInCU: 0x1355B, offset: 0x475570, size: 0x8, addend: 0x0, symName: '__ZN4core3ptr44drop_in_place$LT$syn..parse..ParseBuffer$GT$17hd0dadba44a19aec2E.llvm.6604562245513491834', symObjAddr: 0x4C20, symBinAddr: 0x105670, symSize: 0x70 }
  - { offsetInCU: 0x13990, offset: 0x4759A5, size: 0x8, addend: 0x0, symName: '__ZN4core3ptr45drop_in_place$LT$proc_macro2..TokenStream$GT$17h3405f6c513e9f6cbE', symObjAddr: 0x4C90, symBinAddr: 0x1056E0, symSize: 0x140 }
  - { offsetInCU: 0x13DFF, offset: 0x475E14, size: 0x8, addend: 0x0, symName: '__ZN4core3ptr45drop_in_place$LT$syn..generics..TypeParam$GT$17he5eda51070b7de47E', symObjAddr: 0x4DD0, symBinAddr: 0x105820, symSize: 0x230 }
  - { offsetInCU: 0x145FB, offset: 0x476610, size: 0x8, addend: 0x0, symName: '__ZN4core3ptr46drop_in_place$LT$syn..generics..ConstParam$GT$17hab0a58c4af8c549cE', symObjAddr: 0x5000, symBinAddr: 0x105A50, symSize: 0x150 }
  - { offsetInCU: 0x14A25, offset: 0x476A3A, size: 0x8, addend: 0x0, symName: '__ZN4core3ptr47drop_in_place$LT$syn..path..GenericArgument$GT$17h54f8794633f96823E', symObjAddr: 0x5150, symBinAddr: 0x105BA0, symSize: 0x460 }
  - { offsetInCU: 0x1572E, offset: 0x477743, size: 0x8, addend: 0x0, symName: '__ZN4core3ptr49drop_in_place$LT$syn..generics..LifetimeParam$GT$17h41a7c7a290ea6289E', symObjAddr: 0x55B0, symBinAddr: 0x106000, symSize: 0xF0 }
  - { offsetInCU: 0x15AE8, offset: 0x477AFD, size: 0x8, addend: 0x0, symName: '__ZN4core3ptr50drop_in_place$LT$syn..generics..TypeParamBound$GT$17hcd7771d4c6c221efE', symObjAddr: 0x56A0, symBinAddr: 0x1060F0, symSize: 0xA0 }
  - { offsetInCU: 0x15C4F, offset: 0x477C64, size: 0x8, addend: 0x0, symName: '__ZN4core3ptr53drop_in_place$LT$syn..pat..parsing..PatRangeBound$GT$17hcc6099fc140c1b73E', symObjAddr: 0x5740, symBinAddr: 0x106190, symSize: 0x210 }
  - { offsetInCU: 0x163E2, offset: 0x4783F7, size: 0x8, addend: 0x0, symName: '__ZN4core3ptr58drop_in_place$LT$alloc..vec..Vec$LT$syn..expr..Arm$GT$$GT$17h1a55df3d2cba1daaE', symObjAddr: 0x5950, symBinAddr: 0x1063A0, symSize: 0xD0 }
  - { offsetInCU: 0x1666F, offset: 0x478684, size: 0x8, addend: 0x0, symName: '__ZN4core3ptr59drop_in_place$LT$alloc..boxed..Box$LT$syn..pat..Pat$GT$$GT$17h563b135d87aca8abE', symObjAddr: 0x5A20, symBinAddr: 0x106470, symSize: 0x50 }
  - { offsetInCU: 0x167CA, offset: 0x4787DF, size: 0x8, addend: 0x0, symName: '__ZN4core3ptr59drop_in_place$LT$alloc..boxed..Box$LT$syn..ty..Type$GT$$GT$17hffed36bad83adacbE', symObjAddr: 0x5A70, symBinAddr: 0x1064C0, symSize: 0x50 }
  - { offsetInCU: 0x16925, offset: 0x47893A, size: 0x8, addend: 0x0, symName: '__ZN4core3ptr61drop_in_place$LT$alloc..boxed..Box$LT$syn..expr..Expr$GT$$GT$17h01091e47f131475dE', symObjAddr: 0x5AC0, symBinAddr: 0x106510, symSize: 0x50 }
  - { offsetInCU: 0x16AFC, offset: 0x478B11, size: 0x8, addend: 0x0, symName: '__ZN4core3ptr61drop_in_place$LT$syn..path..ParenthesizedGenericArguments$GT$17h43d4aac5494326a7E', symObjAddr: 0x5B10, symBinAddr: 0x106560, symSize: 0x170 }
  - { offsetInCU: 0x170C3, offset: 0x4790D8, size: 0x8, addend: 0x0, symName: '__ZN4core3ptr63drop_in_place$LT$alloc..boxed..Box$LT$syn..lit..LitRepr$GT$$GT$17hd8839b7fb35ee7afE', symObjAddr: 0x5C80, symBinAddr: 0x1066D0, symSize: 0x60 }
  - { offsetInCU: 0x173B8, offset: 0x4793CD, size: 0x8, addend: 0x0, symName: '__ZN4core3ptr64drop_in_place$LT$alloc..boxed..Box$LT$syn..pat..FieldPat$GT$$GT$17h4980b70a7597cc08E', symObjAddr: 0x5CE0, symBinAddr: 0x106730, symSize: 0x140 }
  - { offsetInCU: 0x17A63, offset: 0x479A78, size: 0x8, addend: 0x0, symName: '__ZN4core3ptr64drop_in_place$LT$alloc..boxed..Box$LT$syn..ty..BareFnArg$GT$$GT$17h8b34096c620314efE', symObjAddr: 0x5E20, symBinAddr: 0x106870, symSize: 0x140 }
  - { offsetInCU: 0x17F87, offset: 0x479F9C, size: 0x8, addend: 0x0, symName: '__ZN4core3ptr64drop_in_place$LT$alloc..vec..Vec$LT$syn..attr..Attribute$GT$$GT$17h3c8f2a04e701c675E.llvm.6604562245513491834', symObjAddr: 0x5F60, symBinAddr: 0x1069B0, symSize: 0xD0 }
  - { offsetInCU: 0x18214, offset: 0x47A229, size: 0x8, addend: 0x0, symName: '__ZN4core3ptr65drop_in_place$LT$core..option..Option$LT$syn..expr..Label$GT$$GT$17h78189e72a8cb7951E', symObjAddr: 0x6030, symBinAddr: 0x106A80, symSize: 0x30 }
  - { offsetInCU: 0x1834F, offset: 0x47A364, size: 0x8, addend: 0x0, symName: '__ZN4core3ptr65drop_in_place$LT$core..option..Option$LT$syn..path..QSelf$GT$$GT$17h9b72552ca06b7379E', symObjAddr: 0x6060, symBinAddr: 0x106AB0, symSize: 0x50 }
  - { offsetInCU: 0x184D2, offset: 0x47A4E7, size: 0x8, addend: 0x0, symName: '__ZN4core3ptr66drop_in_place$LT$core..option..Option$LT$syn..pat..PatRest$GT$$GT$17h61677cf4ff3a7393E', symObjAddr: 0x60B0, symBinAddr: 0x106B00, symSize: 0xE0 }
  - { offsetInCU: 0x18756, offset: 0x47A76B, size: 0x8, addend: 0x0, symName: '__ZN4core3ptr67drop_in_place$LT$alloc..boxed..Box$LT$syn..expr..FieldValue$GT$$GT$17h93aaccf8aa22ef88E', symObjAddr: 0x6190, symBinAddr: 0x106BE0, symSize: 0x140 }
  - { offsetInCU: 0x18C5A, offset: 0x47AC6F, size: 0x8, addend: 0x0, symName: '__ZN4core3ptr68drop_in_place$LT$alloc..boxed..Box$LT$syn..path..PathSegment$GT$$GT$17h709dabdc13b58a71E', symObjAddr: 0x62D0, symBinAddr: 0x106D20, symSize: 0x190 }
  - { offsetInCU: 0x19338, offset: 0x47B34D, size: 0x8, addend: 0x0, symName: '__ZN4core3ptr70drop_in_place$LT$core..option..Option$LT$syn..ty..BareVariadic$GT$$GT$17h45399348ea4b8d55E', symObjAddr: 0x6460, symBinAddr: 0x106EB0, symSize: 0x120 }
  - { offsetInCU: 0x19865, offset: 0x47B87A, size: 0x8, addend: 0x0, symName: '__ZN4core3ptr72drop_in_place$LT$alloc..boxed..Box$LT$syn..path..GenericArgument$GT$$GT$17haa7dd8b716637b54E', symObjAddr: 0x6580, symBinAddr: 0x106FD0, symSize: 0x2B0 }
  - { offsetInCU: 0x1A250, offset: 0x47C265, size: 0x8, addend: 0x0, symName: '__ZN4core3ptr72drop_in_place$LT$core..option..Option$LT$syn..lifetime..Lifetime$GT$$GT$17hfc363ccdd8bd9c32E', symObjAddr: 0x6830, symBinAddr: 0x107280, symSize: 0x30 }
  - { offsetInCU: 0x1A36C, offset: 0x47C381, size: 0x8, addend: 0x0, symName: '__ZN4core3ptr73drop_in_place$LT$alloc..boxed..Box$LT$syn..generics..GenericParam$GT$$GT$17hf6951dcd5ae07324E', symObjAddr: 0x6860, symBinAddr: 0x1072B0, symSize: 0x80 }
  - { offsetInCU: 0x1A4E4, offset: 0x47C4F9, size: 0x8, addend: 0x0, symName: '__ZN4core3ptr75drop_in_place$LT$alloc..boxed..Box$LT$syn..generics..TypeParamBound$GT$$GT$17he61c00698a311a34E', symObjAddr: 0x68E0, symBinAddr: 0x107330, symSize: 0x160 }
  - { offsetInCU: 0x1AAAA, offset: 0x47CABF, size: 0x8, addend: 0x0, symName: '__ZN4core3ptr86drop_in_place$LT$syn..punctuated..Punctuated$LT$syn..pat..Pat$C$syn..token..Or$GT$$GT$17h8e9173df21a44316E', symObjAddr: 0x6A40, symBinAddr: 0x107490, symSize: 0x120 }
  - { offsetInCU: 0x1AF07, offset: 0x47CF1C, size: 0x8, addend: 0x0, symName: '__ZN4core3ptr87drop_in_place$LT$core..option..Option$LT$alloc..boxed..Box$LT$syn..pat..Pat$GT$$GT$$GT$17hd7b7c69f601b3926E', symObjAddr: 0x6B60, symBinAddr: 0x1075B0, symSize: 0x50 }
  - { offsetInCU: 0x1B079, offset: 0x47D08E, size: 0x8, addend: 0x0, symName: '__ZN4core3ptr87drop_in_place$LT$core..option..Option$LT$alloc..boxed..Box$LT$syn..ty..Type$GT$$GT$$GT$17hd74f5d971aec2972E', symObjAddr: 0x6BB0, symBinAddr: 0x107600, symSize: 0x50 }
  - { offsetInCU: 0x1B1EB, offset: 0x47D200, size: 0x8, addend: 0x0, symName: '__ZN4core3ptr89drop_in_place$LT$core..option..Option$LT$alloc..boxed..Box$LT$syn..expr..Expr$GT$$GT$$GT$17h8e135ac1a25a2dc5E', symObjAddr: 0x6C00, symBinAddr: 0x107650, symSize: 0x50 }
  - { offsetInCU: 0x1B39B, offset: 0x47D3B0, size: 0x8, addend: 0x0, symName: '__ZN4core3ptr89drop_in_place$LT$syn..punctuated..Punctuated$LT$syn..pat..Pat$C$syn..token..Comma$GT$$GT$17h8d60e47f3fb1f87aE', symObjAddr: 0x6C50, symBinAddr: 0x1076A0, symSize: 0x120 }
  - { offsetInCU: 0x1B7E1, offset: 0x47D7F6, size: 0x8, addend: 0x0, symName: '__ZN4core3ptr89drop_in_place$LT$syn..punctuated..Punctuated$LT$syn..ty..Type$C$syn..token..Comma$GT$$GT$17ha919b3114742fb9dE', symObjAddr: 0x6D70, symBinAddr: 0x1077C0, symSize: 0x120 }
  - { offsetInCU: 0x1BC69, offset: 0x47DC7E, size: 0x8, addend: 0x0, symName: '__ZN4core3ptr91drop_in_place$LT$syn..punctuated..Punctuated$LT$syn..expr..Expr$C$syn..token..Comma$GT$$GT$17h4f39b83dc86a4159E', symObjAddr: 0x6E90, symBinAddr: 0x1078E0, symSize: 0x120 }
  - { offsetInCU: 0x1C0C6, offset: 0x47E0DB, size: 0x8, addend: 0x0, symName: '__ZN4core3ptr94drop_in_place$LT$syn..punctuated..Punctuated$LT$syn..pat..FieldPat$C$syn..token..Comma$GT$$GT$17h112950ea198c8281E', symObjAddr: 0x6FB0, symBinAddr: 0x107A00, symSize: 0xF0 }
  - { offsetInCU: 0x1C390, offset: 0x47E3A5, size: 0x8, addend: 0x0, symName: '__ZN4core3ptr94drop_in_place$LT$syn..punctuated..Punctuated$LT$syn..ty..BareFnArg$C$syn..token..Comma$GT$$GT$17h1c7b44310f06243dE', symObjAddr: 0x70A0, symBinAddr: 0x107AF0, symSize: 0xF0 }
  - { offsetInCU: 0x1C65A, offset: 0x47E66F, size: 0x8, addend: 0x0, symName: '__ZN4core3ptr96drop_in_place$LT$core..option..Option$LT$alloc..boxed..Box$LT$syn..path..PathSegment$GT$$GT$$GT$17hb447d0f626c86a4eE', symObjAddr: 0x7190, symBinAddr: 0x107BE0, symSize: 0x180 }
  - { offsetInCU: 0x1CCEB, offset: 0x47ED00, size: 0x8, addend: 0x0, symName: '__ZN4core3ptr97drop_in_place$LT$syn..punctuated..Punctuated$LT$syn..expr..FieldValue$C$syn..token..Comma$GT$$GT$17h31b81f7462228dcbE', symObjAddr: 0x7310, symBinAddr: 0x107D60, symSize: 0xF0 }
  - { offsetInCU: 0x1D031, offset: 0x47F046, size: 0x8, addend: 0x0, symName: '__ZN4core3ptr98drop_in_place$LT$syn..punctuated..Punctuated$LT$syn..lifetime..Lifetime$C$syn..token..Plus$GT$$GT$17h0f8fc5f20f465f47E', symObjAddr: 0x7400, symBinAddr: 0x107E50, symSize: 0xC0 }
  - { offsetInCU: 0x211ED, offset: 0x483202, size: 0x8, addend: 0x0, symName: __ZN4core3ops8function6FnOnce9call_once17h74ffd67680f50378E, symObjAddr: 0x0, symBinAddr: 0x100A50, symSize: 0x140 }
  - { offsetInCU: 0x21B96, offset: 0x483BAB, size: 0x8, addend: 0x0, symName: __ZN3syn3pat7parsing14multi_pat_impl17h047667a96fb4a7f8E, symObjAddr: 0x74C0, symBinAddr: 0x107F10, symSize: 0x410 }
  - { offsetInCU: 0x2255B, offset: 0x484570, size: 0x8, addend: 0x0, symName: __ZN3syn3pat7parsing36pat_path_or_macro_or_struct_or_range17ha6b9b4e6671af2c5E, symObjAddr: 0x78D0, symBinAddr: 0x108320, symSize: 0x2530 }
  - { offsetInCU: 0x26929, offset: 0x48893E, size: 0x8, addend: 0x0, symName: __ZN3syn3pat7parsing8pat_wild17h3163b2cc2476a134E, symObjAddr: 0x9E00, symBinAddr: 0x10A850, symSize: 0xA0 }
  - { offsetInCU: 0x26A34, offset: 0x488A49, size: 0x8, addend: 0x0, symName: __ZN3syn3pat7parsing7pat_box17h176f8a2e65bc6ac7E, symObjAddr: 0x9EA0, symBinAddr: 0x10A8F0, symSize: 0x220 }
  - { offsetInCU: 0x26D8A, offset: 0x488D9F, size: 0x8, addend: 0x0, symName: __ZN3syn3pat7parsing9pat_ident17h29c4fea1c82c143bE, symObjAddr: 0xA0C0, symBinAddr: 0x10AB10, symSize: 0x5C0 }
  - { offsetInCU: 0x277AB, offset: 0x4897C0, size: 0x8, addend: 0x0, symName: __ZN3syn3pat7parsing19pat_range_half_open17h9918d3b6ea18cb21E, symObjAddr: 0xA680, symBinAddr: 0x10B0D0, symSize: 0x380 }
  - { offsetInCU: 0x27B4E, offset: 0x489B63, size: 0x8, addend: 0x0, symName: __ZN3syn3pat7parsing18pat_paren_or_tuple17h5846a503fc9a892bE, symObjAddr: 0xAA00, symBinAddr: 0x10B450, symSize: 0x680 }
  - { offsetInCU: 0x282DA, offset: 0x48A2EF, size: 0x8, addend: 0x0, symName: __ZN3syn3pat7parsing13pat_reference17he9c12140d78c642fE, symObjAddr: 0xB080, symBinAddr: 0x10BAD0, symSize: 0x2A0 }
  - { offsetInCU: 0x2868B, offset: 0x48A6A0, size: 0x8, addend: 0x0, symName: __ZN3syn3pat7parsing16pat_lit_or_range17h9d56a323b0b14005E, symObjAddr: 0xB320, symBinAddr: 0x10BD70, symSize: 0x610 }
  - { offsetInCU: 0x28B62, offset: 0x48AB77, size: 0x8, addend: 0x0, symName: __ZN3syn3pat7parsing15pat_range_bound17ha07cbae00643b70eE, symObjAddr: 0xB930, symBinAddr: 0x10C380, symSize: 0x8D0 }
  - { offsetInCU: 0x2B32D, offset: 0x48D342, size: 0x8, addend: 0x0, symName: __ZN3syn3pat7parsing9pat_slice17heed66f754c4e282eE, symObjAddr: 0xC200, symBinAddr: 0x10CC50, symSize: 0x720 }
  - { offsetInCU: 0x2BC2C, offset: 0x48DC41, size: 0x8, addend: 0x0, symName: __ZN3syn3pat7parsing9pat_const17ha05adebc1fdfb4e6E, symObjAddr: 0xC920, symBinAddr: 0x10D370, symSize: 0x55E }
  - { offsetInCU: 0x1E, offset: 0x49D297, size: 0x8, addend: 0x0, symName: '__ZN4core3ptr100drop_in_place$LT$core..option..Option$LT$alloc..boxed..Box$LT$syn..path..GenericArgument$GT$$GT$$GT$17h7435c9de74860622E', symObjAddr: 0x0, symBinAddr: 0x10D8D0, symSize: 0x50 }
  - { offsetInCU: 0x16A1, offset: 0x49E91A, size: 0x8, addend: 0x0, symName: '__ZN4core3ptr100drop_in_place$LT$core..option..Option$LT$alloc..boxed..Box$LT$syn..path..GenericArgument$GT$$GT$$GT$17h7435c9de74860622E', symObjAddr: 0x0, symBinAddr: 0x10D8D0, symSize: 0x50 }
  - { offsetInCU: 0x192A, offset: 0x49EBA3, size: 0x8, addend: 0x0, symName: '__ZN4core3ptr100drop_in_place$LT$syn..punctuated..Punctuated$LT$syn..path..PathSegment$C$syn..token..PathSep$GT$$GT$17hf414cb3581f8337aE', symObjAddr: 0x50, symBinAddr: 0x10D920, symSize: 0x140 }
  - { offsetInCU: 0x1E5E, offset: 0x49F0D7, size: 0x8, addend: 0x0, symName: '__ZN4core3ptr103drop_in_place$LT$core..option..Option$LT$alloc..boxed..Box$LT$syn..generics..TypeParamBound$GT$$GT$$GT$17h5974f03e36b1a9c3E', symObjAddr: 0x190, symBinAddr: 0x10DA60, symSize: 0x50 }
  - { offsetInCU: 0x206B, offset: 0x49F2E4, size: 0x8, addend: 0x0, symName: '__ZN4core3ptr103drop_in_place$LT$syn..punctuated..Punctuated$LT$syn..generics..GenericParam$C$syn..token..Comma$GT$$GT$17hf42353fa44ed6da8E', symObjAddr: 0x1E0, symBinAddr: 0x10DAB0, symSize: 0xF0 }
  - { offsetInCU: 0x254D, offset: 0x49F7C6, size: 0x8, addend: 0x0, symName: '__ZN4core3ptr104drop_in_place$LT$syn..punctuated..Punctuated$LT$syn..generics..TypeParamBound$C$syn..token..Plus$GT$$GT$17h532f52c4a894b056E', symObjAddr: 0x2D0, symBinAddr: 0x10DBA0, symSize: 0x230 }
  - { offsetInCU: 0x2E2B, offset: 0x4A00A4, size: 0x8, addend: 0x0, symName: '__ZN4core3ptr34drop_in_place$LT$syn..lit..Lit$GT$17h8902f5ff67917034E', symObjAddr: 0x500, symBinAddr: 0x10DDD0, symSize: 0x110 }
  - { offsetInCU: 0x3384, offset: 0x4A05FD, size: 0x8, addend: 0x0, symName: '__ZN4core3ptr34drop_in_place$LT$syn..pat..Pat$GT$17h4581eea028ec0969E', symObjAddr: 0x610, symBinAddr: 0x10DEE0, symSize: 0x1000 }
  - { offsetInCU: 0x6D54, offset: 0x4A3FCD, size: 0x8, addend: 0x0, symName: '__ZN4core3ptr34drop_in_place$LT$syn..ty..Type$GT$17h369e41ad4a9f1ae0E', symObjAddr: 0x1610, symBinAddr: 0x10EEE0, symSize: 0x340 }
  - { offsetInCU: 0x7C41, offset: 0x4A4EBA, size: 0x8, addend: 0x0, symName: '__ZN4core3ptr36drop_in_place$LT$syn..expr..Expr$GT$17h0f7fd4c749bae801E', symObjAddr: 0x1950, symBinAddr: 0x10F220, symSize: 0x28E0 }
  - { offsetInCU: 0x110D3, offset: 0x4AE34C, size: 0x8, addend: 0x0, symName: '__ZN4core3ptr36drop_in_place$LT$syn..mac..Macro$GT$17h4ffde962df30ebe2E', symObjAddr: 0x4230, symBinAddr: 0x111B00, symSize: 0x40 }
  - { offsetInCU: 0x11189, offset: 0x4AE402, size: 0x8, addend: 0x0, symName: '__ZN4core3ptr36drop_in_place$LT$syn..path..Path$GT$17habea856181211e1cE', symObjAddr: 0x4270, symBinAddr: 0x111B40, symSize: 0x220 }
  - { offsetInCU: 0x11ABE, offset: 0x4AED37, size: 0x8, addend: 0x0, symName: '__ZN4core3ptr37drop_in_place$LT$syn..stmt..Block$GT$17hcc21a21cf949414cE', symObjAddr: 0x4490, symBinAddr: 0x111D60, symSize: 0xD0 }
  - { offsetInCU: 0x11D62, offset: 0x4AEFDB, size: 0x8, addend: 0x0, symName: '__ZN4core3ptr38drop_in_place$LT$syn..expr..Member$GT$17h022cbe5553aa40faE', symObjAddr: 0x4560, symBinAddr: 0x111E30, symSize: 0x30 }
  - { offsetInCU: 0x11E5F, offset: 0x4AF0D8, size: 0x8, addend: 0x0, symName: '__ZN4core3ptr38drop_in_place$LT$syn..ty..TypePath$GT$17he8f590b78af8d8f3E', symObjAddr: 0x4590, symBinAddr: 0x111E60, symSize: 0x80 }
  - { offsetInCU: 0x11FDE, offset: 0x4AF257, size: 0x8, addend: 0x0, symName: '__ZN4core3ptr39drop_in_place$LT$proc_macro2..Ident$GT$17h8101e88c3ac359d6E', symObjAddr: 0x4610, symBinAddr: 0x111EE0, symSize: 0x30 }
  - { offsetInCU: 0x120FA, offset: 0x4AF373, size: 0x8, addend: 0x0, symName: '__ZN4core3ptr39drop_in_place$LT$syn..ty..BareFnArg$GT$17hac0a1b8fd6f7ad3cE', symObjAddr: 0x4640, symBinAddr: 0x111F10, symSize: 0x110 }
  - { offsetInCU: 0x124C6, offset: 0x4AF73F, size: 0x8, addend: 0x0, symName: '__ZN4core3ptr40drop_in_place$LT$syn..ty..ReturnType$GT$17h02cf41e2fec63d90E', symObjAddr: 0x4750, symBinAddr: 0x112020, symSize: 0x50 }
  - { offsetInCU: 0x1278D, offset: 0x4AFA06, size: 0x8, addend: 0x0, symName: '__ZN4core3ptr40drop_in_place$LT$syn..ty..TypeBareFn$GT$17h6adb001e6a03e7b0E', symObjAddr: 0x47A0, symBinAddr: 0x112070, symSize: 0x220 }
  - { offsetInCU: 0x130DF, offset: 0x4B0358, size: 0x8, addend: 0x0, symName: '__ZN4core3ptr41drop_in_place$LT$syn..expr..ExprConst$GT$17h725a13e551d9f276E', symObjAddr: 0x49C0, symBinAddr: 0x112290, symSize: 0x180 }
  - { offsetInCU: 0x13634, offset: 0x4B08AD, size: 0x8, addend: 0x0, symName: '__ZN4core3ptr44drop_in_place$LT$syn..lifetime..Lifetime$GT$17hf0cdec2e9ec456d6E', symObjAddr: 0x4B40, symBinAddr: 0x112410, symSize: 0x30 }
  - { offsetInCU: 0x137AD, offset: 0x4B0A26, size: 0x8, addend: 0x0, symName: '__ZN4core3ptr44drop_in_place$LT$syn..parse..ParseBuffer$GT$17hd0dadba44a19aec2E', symObjAddr: 0x4B70, symBinAddr: 0x112440, symSize: 0x70 }
  - { offsetInCU: 0x13BE2, offset: 0x4B0E5B, size: 0x8, addend: 0x0, symName: '__ZN4core3ptr45drop_in_place$LT$proc_macro2..TokenStream$GT$17h3405f6c513e9f6cbE', symObjAddr: 0x4BE0, symBinAddr: 0x1124B0, symSize: 0x140 }
  - { offsetInCU: 0x14051, offset: 0x4B12CA, size: 0x8, addend: 0x0, symName: '__ZN4core3ptr45drop_in_place$LT$syn..generics..TypeParam$GT$17he5eda51070b7de47E', symObjAddr: 0x4D20, symBinAddr: 0x1125F0, symSize: 0x230 }
  - { offsetInCU: 0x1484D, offset: 0x4B1AC6, size: 0x8, addend: 0x0, symName: '__ZN4core3ptr45drop_in_place$LT$syn..path..PathArguments$GT$17h7160021b3fdea550E', symObjAddr: 0x4F50, symBinAddr: 0x112820, symSize: 0x170 }
  - { offsetInCU: 0x14CEA, offset: 0x4B1F63, size: 0x8, addend: 0x0, symName: '__ZN4core3ptr46drop_in_place$LT$syn..generics..ConstParam$GT$17hab0a58c4af8c549cE', symObjAddr: 0x50C0, symBinAddr: 0x112990, symSize: 0x150 }
  - { offsetInCU: 0x15114, offset: 0x4B238D, size: 0x8, addend: 0x0, symName: '__ZN4core3ptr47drop_in_place$LT$syn..path..GenericArgument$GT$17h54f8794633f96823E', symObjAddr: 0x5210, symBinAddr: 0x112AE0, symSize: 0x4A0 }
  - { offsetInCU: 0x161BB, offset: 0x4B3434, size: 0x8, addend: 0x0, symName: '__ZN4core3ptr49drop_in_place$LT$syn..generics..LifetimeParam$GT$17h41a7c7a290ea6289E', symObjAddr: 0x56B0, symBinAddr: 0x112F80, symSize: 0xF0 }
  - { offsetInCU: 0x16575, offset: 0x4B37EE, size: 0x8, addend: 0x0, symName: '__ZN4core3ptr50drop_in_place$LT$syn..generics..TypeParamBound$GT$17hcd7771d4c6c221efE', symObjAddr: 0x57A0, symBinAddr: 0x113070, symSize: 0xA0 }
  - { offsetInCU: 0x166DC, offset: 0x4B3955, size: 0x8, addend: 0x0, symName: '__ZN4core3ptr58drop_in_place$LT$alloc..vec..Vec$LT$syn..expr..Arm$GT$$GT$17h1a55df3d2cba1daaE', symObjAddr: 0x5840, symBinAddr: 0x113110, symSize: 0xD0 }
  - { offsetInCU: 0x16969, offset: 0x4B3BE2, size: 0x8, addend: 0x0, symName: '__ZN4core3ptr59drop_in_place$LT$alloc..boxed..Box$LT$syn..pat..Pat$GT$$GT$17h563b135d87aca8abE', symObjAddr: 0x5910, symBinAddr: 0x1131E0, symSize: 0x50 }
  - { offsetInCU: 0x16AC4, offset: 0x4B3D3D, size: 0x8, addend: 0x0, symName: '__ZN4core3ptr59drop_in_place$LT$alloc..boxed..Box$LT$syn..ty..Type$GT$$GT$17hffed36bad83adacbE', symObjAddr: 0x5960, symBinAddr: 0x113230, symSize: 0x50 }
  - { offsetInCU: 0x16C1F, offset: 0x4B3E98, size: 0x8, addend: 0x0, symName: '__ZN4core3ptr61drop_in_place$LT$alloc..boxed..Box$LT$syn..expr..Expr$GT$$GT$17h01091e47f131475dE', symObjAddr: 0x59B0, symBinAddr: 0x113280, symSize: 0x50 }
  - { offsetInCU: 0x16DF6, offset: 0x4B406F, size: 0x8, addend: 0x0, symName: '__ZN4core3ptr61drop_in_place$LT$syn..path..ParenthesizedGenericArguments$GT$17h43d4aac5494326a7E', symObjAddr: 0x5A00, symBinAddr: 0x1132D0, symSize: 0x170 }
  - { offsetInCU: 0x173BD, offset: 0x4B4636, size: 0x8, addend: 0x0, symName: '__ZN4core3ptr62drop_in_place$LT$syn..path..AngleBracketedGenericArguments$GT$17hc5b69f68243636ddE', symObjAddr: 0x5B70, symBinAddr: 0x113440, symSize: 0x120 }
  - { offsetInCU: 0x177D3, offset: 0x4B4A4C, size: 0x8, addend: 0x0, symName: '__ZN4core3ptr63drop_in_place$LT$alloc..boxed..Box$LT$syn..lit..LitRepr$GT$$GT$17hd8839b7fb35ee7afE', symObjAddr: 0x5C90, symBinAddr: 0x113560, symSize: 0x60 }
  - { offsetInCU: 0x17AC8, offset: 0x4B4D41, size: 0x8, addend: 0x0, symName: '__ZN4core3ptr64drop_in_place$LT$alloc..boxed..Box$LT$syn..pat..FieldPat$GT$$GT$17h4980b70a7597cc08E', symObjAddr: 0x5CF0, symBinAddr: 0x1135C0, symSize: 0x140 }
  - { offsetInCU: 0x18135, offset: 0x4B53AE, size: 0x8, addend: 0x0, symName: '__ZN4core3ptr64drop_in_place$LT$alloc..boxed..Box$LT$syn..ty..BareFnArg$GT$$GT$17h8b34096c620314efE', symObjAddr: 0x5E30, symBinAddr: 0x113700, symSize: 0x140 }
  - { offsetInCU: 0x18646, offset: 0x4B58BF, size: 0x8, addend: 0x0, symName: '__ZN4core3ptr64drop_in_place$LT$alloc..vec..Vec$LT$syn..attr..Attribute$GT$$GT$17h3c8f2a04e701c675E', symObjAddr: 0x5F70, symBinAddr: 0x113840, symSize: 0xD0 }
  - { offsetInCU: 0x188D3, offset: 0x4B5B4C, size: 0x8, addend: 0x0, symName: '__ZN4core3ptr65drop_in_place$LT$core..option..Option$LT$syn..expr..Label$GT$$GT$17h78189e72a8cb7951E', symObjAddr: 0x6040, symBinAddr: 0x113910, symSize: 0x30 }
  - { offsetInCU: 0x18A0E, offset: 0x4B5C87, size: 0x8, addend: 0x0, symName: '__ZN4core3ptr65drop_in_place$LT$core..option..Option$LT$syn..path..QSelf$GT$$GT$17h9b72552ca06b7379E', symObjAddr: 0x6070, symBinAddr: 0x113940, symSize: 0x50 }
  - { offsetInCU: 0x18B91, offset: 0x4B5E0A, size: 0x8, addend: 0x0, symName: '__ZN4core3ptr66drop_in_place$LT$core..option..Option$LT$syn..pat..PatRest$GT$$GT$17h61677cf4ff3a7393E', symObjAddr: 0x60C0, symBinAddr: 0x113990, symSize: 0xE0 }
  - { offsetInCU: 0x18E15, offset: 0x4B608E, size: 0x8, addend: 0x0, symName: '__ZN4core3ptr67drop_in_place$LT$alloc..boxed..Box$LT$syn..expr..FieldValue$GT$$GT$17h93aaccf8aa22ef88E', symObjAddr: 0x61A0, symBinAddr: 0x113A70, symSize: 0x140 }
  - { offsetInCU: 0x19319, offset: 0x4B6592, size: 0x8, addend: 0x0, symName: '__ZN4core3ptr68drop_in_place$LT$alloc..boxed..Box$LT$syn..path..PathSegment$GT$$GT$17h709dabdc13b58a71E', symObjAddr: 0x62E0, symBinAddr: 0x113BB0, symSize: 0x190 }
  - { offsetInCU: 0x199F7, offset: 0x4B6C70, size: 0x8, addend: 0x0, symName: '__ZN4core3ptr70drop_in_place$LT$core..option..Option$LT$syn..ty..BareVariadic$GT$$GT$17h45399348ea4b8d55E', symObjAddr: 0x6470, symBinAddr: 0x113D40, symSize: 0x120 }
  - { offsetInCU: 0x19F24, offset: 0x4B719D, size: 0x8, addend: 0x0, symName: '__ZN4core3ptr72drop_in_place$LT$alloc..boxed..Box$LT$syn..path..GenericArgument$GT$$GT$17haa7dd8b716637b54E', symObjAddr: 0x6590, symBinAddr: 0x113E60, symSize: 0x2B0 }
  - { offsetInCU: 0x1A8AF, offset: 0x4B7B28, size: 0x8, addend: 0x0, symName: '__ZN4core3ptr72drop_in_place$LT$core..option..Option$LT$syn..lifetime..Lifetime$GT$$GT$17hfc363ccdd8bd9c32E', symObjAddr: 0x6840, symBinAddr: 0x114110, symSize: 0x30 }
  - { offsetInCU: 0x1A9CB, offset: 0x4B7C44, size: 0x8, addend: 0x0, symName: '__ZN4core3ptr73drop_in_place$LT$alloc..boxed..Box$LT$syn..generics..GenericParam$GT$$GT$17hf6951dcd5ae07324E', symObjAddr: 0x6870, symBinAddr: 0x114140, symSize: 0x80 }
  - { offsetInCU: 0x1AB43, offset: 0x4B7DBC, size: 0x8, addend: 0x0, symName: '__ZN4core3ptr75drop_in_place$LT$alloc..boxed..Box$LT$syn..generics..TypeParamBound$GT$$GT$17he61c00698a311a34E', symObjAddr: 0x68F0, symBinAddr: 0x1141C0, symSize: 0x160 }
  - { offsetInCU: 0x1B109, offset: 0x4B8382, size: 0x8, addend: 0x0, symName: '__ZN4core3ptr86drop_in_place$LT$syn..punctuated..Punctuated$LT$syn..pat..Pat$C$syn..token..Or$GT$$GT$17h8e9173df21a44316E', symObjAddr: 0x6A50, symBinAddr: 0x114320, symSize: 0x120 }
  - { offsetInCU: 0x1B54F, offset: 0x4B87C8, size: 0x8, addend: 0x0, symName: '__ZN4core3ptr87drop_in_place$LT$core..option..Option$LT$alloc..boxed..Box$LT$syn..pat..Pat$GT$$GT$$GT$17hd7b7c69f601b3926E', symObjAddr: 0x6B70, symBinAddr: 0x114440, symSize: 0x50 }
  - { offsetInCU: 0x1B6C1, offset: 0x4B893A, size: 0x8, addend: 0x0, symName: '__ZN4core3ptr87drop_in_place$LT$core..option..Option$LT$alloc..boxed..Box$LT$syn..ty..Type$GT$$GT$$GT$17hd74f5d971aec2972E', symObjAddr: 0x6BC0, symBinAddr: 0x114490, symSize: 0x50 }
  - { offsetInCU: 0x1B833, offset: 0x4B8AAC, size: 0x8, addend: 0x0, symName: '__ZN4core3ptr89drop_in_place$LT$core..option..Option$LT$alloc..boxed..Box$LT$syn..expr..Expr$GT$$GT$$GT$17h8e135ac1a25a2dc5E', symObjAddr: 0x6C10, symBinAddr: 0x1144E0, symSize: 0x50 }
  - { offsetInCU: 0x1B9E3, offset: 0x4B8C5C, size: 0x8, addend: 0x0, symName: '__ZN4core3ptr89drop_in_place$LT$syn..punctuated..Punctuated$LT$syn..pat..Pat$C$syn..token..Comma$GT$$GT$17h8d60e47f3fb1f87aE', symObjAddr: 0x6C60, symBinAddr: 0x114530, symSize: 0x120 }
  - { offsetInCU: 0x1BE40, offset: 0x4B90B9, size: 0x8, addend: 0x0, symName: '__ZN4core3ptr89drop_in_place$LT$syn..punctuated..Punctuated$LT$syn..ty..Type$C$syn..token..Comma$GT$$GT$17ha919b3114742fb9dE', symObjAddr: 0x6D80, symBinAddr: 0x114650, symSize: 0x120 }
  - { offsetInCU: 0x1C28A, offset: 0x4B9503, size: 0x8, addend: 0x0, symName: '__ZN4core3ptr90drop_in_place$LT$core..option..Option$LT$syn..path..AngleBracketedGenericArguments$GT$$GT$17h80d9a5f0818c8bd9E', symObjAddr: 0x6EA0, symBinAddr: 0x114770, symSize: 0x130 }
  - { offsetInCU: 0x1C6F5, offset: 0x4B996E, size: 0x8, addend: 0x0, symName: '__ZN4core3ptr91drop_in_place$LT$syn..punctuated..Punctuated$LT$syn..expr..Expr$C$syn..token..Comma$GT$$GT$17h4f39b83dc86a4159E', symObjAddr: 0x6FD0, symBinAddr: 0x1148A0, symSize: 0x120 }
  - { offsetInCU: 0x1CB52, offset: 0x4B9DCB, size: 0x8, addend: 0x0, symName: '__ZN4core3ptr92drop_in_place$LT$core..option..Option$LT$alloc..boxed..Box$LT$syn..ty..BareFnArg$GT$$GT$$GT$17ha02746b13f393dbcE', symObjAddr: 0x70F0, symBinAddr: 0x1149C0, symSize: 0x50 }
  - { offsetInCU: 0x1CCC4, offset: 0x4B9F3D, size: 0x8, addend: 0x0, symName: '__ZN4core3ptr94drop_in_place$LT$syn..punctuated..Punctuated$LT$syn..pat..FieldPat$C$syn..token..Comma$GT$$GT$17h112950ea198c8281E', symObjAddr: 0x7140, symBinAddr: 0x114A10, symSize: 0xF0 }
  - { offsetInCU: 0x1CF8E, offset: 0x4BA207, size: 0x8, addend: 0x0, symName: '__ZN4core3ptr94drop_in_place$LT$syn..punctuated..Punctuated$LT$syn..ty..BareFnArg$C$syn..token..Comma$GT$$GT$17h1c7b44310f06243dE', symObjAddr: 0x7230, symBinAddr: 0x114B00, symSize: 0xF0 }
  - { offsetInCU: 0x1D258, offset: 0x4BA4D1, size: 0x8, addend: 0x0, symName: '__ZN4core3ptr96drop_in_place$LT$core..option..Option$LT$alloc..boxed..Box$LT$syn..path..PathSegment$GT$$GT$$GT$17hb447d0f626c86a4eE', symObjAddr: 0x7320, symBinAddr: 0x114BF0, symSize: 0x90 }
  - { offsetInCU: 0x1D4DA, offset: 0x4BA753, size: 0x8, addend: 0x0, symName: '__ZN4core3ptr97drop_in_place$LT$syn..punctuated..Punctuated$LT$syn..expr..FieldValue$C$syn..token..Comma$GT$$GT$17h31b81f7462228dcbE', symObjAddr: 0x73B0, symBinAddr: 0x114C80, symSize: 0xF0 }
  - { offsetInCU: 0x1D7A4, offset: 0x4BAA1D, size: 0x8, addend: 0x0, symName: '__ZN4core3ptr98drop_in_place$LT$alloc..vec..Vec$LT$$LP$syn..path..GenericArgument$C$syn..token..Comma$RP$$GT$$GT$17h0657ff261f33b640E', symObjAddr: 0x74A0, symBinAddr: 0x114D70, symSize: 0xD0 }
  - { offsetInCU: 0x1DAAD, offset: 0x4BAD26, size: 0x8, addend: 0x0, symName: '__ZN4core3ptr98drop_in_place$LT$syn..punctuated..Punctuated$LT$syn..lifetime..Lifetime$C$syn..token..Plus$GT$$GT$17h0f8fc5f20f465f47E', symObjAddr: 0x7570, symBinAddr: 0x114E40, symSize: 0xC0 }
  - { offsetInCU: 0x2273E, offset: 0x4BF9B7, size: 0x8, addend: 0x0, symName: __ZN3syn2ty7parsing8ambig_ty17hc9eb00e08bc74836E, symObjAddr: 0x7630, symBinAddr: 0x114F00, symSize: 0x41C0 }
  - { offsetInCU: 0x2C197, offset: 0x4C9410, size: 0x8, addend: 0x0, symName: __ZN3syn2ty7parsing17parse_bare_fn_arg17ha417bfcad3ad9c3cE, symObjAddr: 0xB7F0, symBinAddr: 0x1190C0, symSize: 0xD80 }
  - { offsetInCU: 0x2E2D5, offset: 0x4CB54E, size: 0x8, addend: 0x0, symName: __ZN3syn2ty7parsing19parse_bare_variadic17hf15461e356619008E, symObjAddr: 0xC570, symBinAddr: 0x119E40, symSize: 0x5B2 }
  - { offsetInCU: 0x1BFD, offset: 0x4DCF37, size: 0x8, addend: 0x0, symName: '__ZN4core3ptr100drop_in_place$LT$core..option..Option$LT$alloc..boxed..Box$LT$syn..path..GenericArgument$GT$$GT$$GT$17h7435c9de74860622E', symObjAddr: 0x40, symBinAddr: 0x11A400, symSize: 0x50 }
  - { offsetInCU: 0x1DCC, offset: 0x4DD106, size: 0x8, addend: 0x0, symName: '__ZN4core3ptr102drop_in_place$LT$syn..punctuated..Punctuated$LT$syn..path..GenericArgument$C$syn..token..Comma$GT$$GT$17h39496ba4e6dba6cfE', symObjAddr: 0x90, symBinAddr: 0x11A450, symSize: 0xF0 }
  - { offsetInCU: 0x20B5, offset: 0x4DD3EF, size: 0x8, addend: 0x0, symName: '__ZN4core3ptr103drop_in_place$LT$core..option..Option$LT$alloc..boxed..Box$LT$syn..generics..TypeParamBound$GT$$GT$$GT$17h5974f03e36b1a9c3E', symObjAddr: 0x180, symBinAddr: 0x11A540, symSize: 0x50 }
  - { offsetInCU: 0x22C2, offset: 0x4DD5FC, size: 0x8, addend: 0x0, symName: '__ZN4core3ptr103drop_in_place$LT$syn..punctuated..Punctuated$LT$syn..generics..GenericParam$C$syn..token..Comma$GT$$GT$17hf42353fa44ed6da8E', symObjAddr: 0x1D0, symBinAddr: 0x11A590, symSize: 0xF0 }
  - { offsetInCU: 0x285E, offset: 0x4DDB98, size: 0x8, addend: 0x0, symName: '__ZN4core3ptr104drop_in_place$LT$syn..punctuated..Punctuated$LT$syn..generics..TypeParamBound$C$syn..token..Plus$GT$$GT$17h532f52c4a894b056E', symObjAddr: 0x2C0, symBinAddr: 0x11A680, symSize: 0x230 }
  - { offsetInCU: 0x313C, offset: 0x4DE476, size: 0x8, addend: 0x0, symName: '__ZN4core3ptr34drop_in_place$LT$syn..lit..Lit$GT$17h8902f5ff67917034E', symObjAddr: 0x4F0, symBinAddr: 0x11A8B0, symSize: 0x110 }
  - { offsetInCU: 0x3695, offset: 0x4DE9CF, size: 0x8, addend: 0x0, symName: '__ZN4core3ptr34drop_in_place$LT$syn..pat..Pat$GT$17h4581eea028ec0969E', symObjAddr: 0x600, symBinAddr: 0x11A9C0, symSize: 0xEE0 }
  - { offsetInCU: 0x6CE4, offset: 0x4E201E, size: 0x8, addend: 0x0, symName: '__ZN4core3ptr34drop_in_place$LT$syn..ty..Type$GT$17h369e41ad4a9f1ae0E.llvm.2300162851086642361', symObjAddr: 0x14E0, symBinAddr: 0x11B8A0, symSize: 0x5C0 }
  - { offsetInCU: 0x851A, offset: 0x4E3854, size: 0x8, addend: 0x0, symName: '__ZN4core3ptr36drop_in_place$LT$syn..expr..Expr$GT$17h0f7fd4c749bae801E', symObjAddr: 0x1AA0, symBinAddr: 0x11BE60, symSize: 0x2800 }
  - { offsetInCU: 0x116F7, offset: 0x4ECA31, size: 0x8, addend: 0x0, symName: '__ZN4core3ptr36drop_in_place$LT$syn..mac..Macro$GT$17h4ffde962df30ebe2E', symObjAddr: 0x42A0, symBinAddr: 0x11E660, symSize: 0xE0 }
  - { offsetInCU: 0x11A68, offset: 0x4ECDA2, size: 0x8, addend: 0x0, symName: '__ZN4core3ptr36drop_in_place$LT$syn..path..Path$GT$17habea856181211e1cE.llvm.2300162851086642361', symObjAddr: 0x4380, symBinAddr: 0x11E740, symSize: 0x220 }
  - { offsetInCU: 0x1239D, offset: 0x4ED6D7, size: 0x8, addend: 0x0, symName: '__ZN4core3ptr37drop_in_place$LT$syn..stmt..Block$GT$17hcc21a21cf949414cE', symObjAddr: 0x45A0, symBinAddr: 0x11E960, symSize: 0xD0 }
  - { offsetInCU: 0x126DC, offset: 0x4EDA16, size: 0x8, addend: 0x0, symName: '__ZN4core3ptr38drop_in_place$LT$syn..data..Fields$GT$17h1dd1b203befc1316E.llvm.2300162851086642361', symObjAddr: 0x4670, symBinAddr: 0x11EA30, symSize: 0x190 }
  - { offsetInCU: 0x12AFA, offset: 0x4EDE34, size: 0x8, addend: 0x0, symName: '__ZN4core3ptr38drop_in_place$LT$syn..expr..Member$GT$17h022cbe5553aa40faE', symObjAddr: 0x4800, symBinAddr: 0x11EBC0, symSize: 0x30 }
  - { offsetInCU: 0x12BF7, offset: 0x4EDF31, size: 0x8, addend: 0x0, symName: '__ZN4core3ptr39drop_in_place$LT$proc_macro2..Ident$GT$17h8101e88c3ac359d6E.llvm.2300162851086642361', symObjAddr: 0x4830, symBinAddr: 0x11EBF0, symSize: 0x30 }
  - { offsetInCU: 0x12CD5, offset: 0x4EE00F, size: 0x8, addend: 0x0, symName: '__ZN4core3ptr40drop_in_place$LT$syn..ty..ReturnType$GT$17h02cf41e2fec63d90E', symObjAddr: 0x4860, symBinAddr: 0x11EC20, symSize: 0x50 }
  - { offsetInCU: 0x12E47, offset: 0x4EE181, size: 0x8, addend: 0x0, symName: '__ZN4core3ptr41drop_in_place$LT$syn..expr..ExprConst$GT$17h725a13e551d9f276E', symObjAddr: 0x48B0, symBinAddr: 0x11EC70, symSize: 0x180 }
  - { offsetInCU: 0x1339C, offset: 0x4EE6D6, size: 0x8, addend: 0x0, symName: '__ZN4core3ptr43drop_in_place$LT$syn..data..FieldsNamed$GT$17hb2a97e73a85352cbE', symObjAddr: 0x4A40, symBinAddr: 0x11EDF0, symSize: 0xE0 }
  - { offsetInCU: 0x1368B, offset: 0x4EE9C5, size: 0x8, addend: 0x0, symName: '__ZN4core3ptr44drop_in_place$LT$syn..lifetime..Lifetime$GT$17hf0cdec2e9ec456d6E', symObjAddr: 0x4B20, symBinAddr: 0x11EED0, symSize: 0x30 }
  - { offsetInCU: 0x13804, offset: 0x4EEB3E, size: 0x8, addend: 0x0, symName: '__ZN4core3ptr44drop_in_place$LT$syn..parse..ParseBuffer$GT$17hd0dadba44a19aec2E.llvm.2300162851086642361', symObjAddr: 0x4B50, symBinAddr: 0x11EF00, symSize: 0x70 }
  - { offsetInCU: 0x13C39, offset: 0x4EEF73, size: 0x8, addend: 0x0, symName: '__ZN4core3ptr45drop_in_place$LT$proc_macro2..TokenStream$GT$17h3405f6c513e9f6cbE', symObjAddr: 0x4BC0, symBinAddr: 0x11EF70, symSize: 0x140 }
  - { offsetInCU: 0x140A8, offset: 0x4EF3E2, size: 0x8, addend: 0x0, symName: '__ZN4core3ptr45drop_in_place$LT$syn..generics..TypeParam$GT$17he5eda51070b7de47E', symObjAddr: 0x4D00, symBinAddr: 0x11F0B0, symSize: 0x230 }
  - { offsetInCU: 0x148A4, offset: 0x4EFBDE, size: 0x8, addend: 0x0, symName: '__ZN4core3ptr46drop_in_place$LT$syn..generics..ConstParam$GT$17hab0a58c4af8c549cE', symObjAddr: 0x4F30, symBinAddr: 0x11F2E0, symSize: 0x150 }
  - { offsetInCU: 0x14CCE, offset: 0x4F0008, size: 0x8, addend: 0x0, symName: '__ZN4core3ptr47drop_in_place$LT$syn..path..GenericArgument$GT$17h54f8794633f96823E', symObjAddr: 0x5080, symBinAddr: 0x11F430, symSize: 0x460 }
  - { offsetInCU: 0x159D7, offset: 0x4F0D11, size: 0x8, addend: 0x0, symName: '__ZN4core3ptr49drop_in_place$LT$syn..generics..LifetimeParam$GT$17h41a7c7a290ea6289E', symObjAddr: 0x54E0, symBinAddr: 0x11F890, symSize: 0xF0 }
  - { offsetInCU: 0x15DCF, offset: 0x4F1109, size: 0x8, addend: 0x0, symName: '__ZN4core3ptr49drop_in_place$LT$syn..restriction..Visibility$GT$17h2a932c493942ef80E.llvm.2300162851086642361', symObjAddr: 0x55D0, symBinAddr: 0x11F980, symSize: 0x60 }
  - { offsetInCU: 0x15F56, offset: 0x4F1290, size: 0x8, addend: 0x0, symName: '__ZN4core3ptr50drop_in_place$LT$syn..generics..TypeParamBound$GT$17hcd7771d4c6c221efE', symObjAddr: 0x5630, symBinAddr: 0x11F9E0, symSize: 0xA0 }
  - { offsetInCU: 0x160BD, offset: 0x4F13F7, size: 0x8, addend: 0x0, symName: '__ZN4core3ptr58drop_in_place$LT$alloc..vec..Vec$LT$syn..expr..Arm$GT$$GT$17h1a55df3d2cba1daaE', symObjAddr: 0x56E0, symBinAddr: 0x11FA80, symSize: 0xD0 }
  - { offsetInCU: 0x1634A, offset: 0x4F1684, size: 0x8, addend: 0x0, symName: '__ZN4core3ptr59drop_in_place$LT$alloc..boxed..Box$LT$syn..pat..Pat$GT$$GT$17h563b135d87aca8abE', symObjAddr: 0x57B0, symBinAddr: 0x11FB50, symSize: 0x50 }
  - { offsetInCU: 0x164A5, offset: 0x4F17DF, size: 0x8, addend: 0x0, symName: '__ZN4core3ptr59drop_in_place$LT$alloc..boxed..Box$LT$syn..ty..Type$GT$$GT$17hffed36bad83adacbE', symObjAddr: 0x5800, symBinAddr: 0x11FBA0, symSize: 0x50 }
  - { offsetInCU: 0x16600, offset: 0x4F193A, size: 0x8, addend: 0x0, symName: '__ZN4core3ptr61drop_in_place$LT$alloc..boxed..Box$LT$syn..expr..Expr$GT$$GT$17h01091e47f131475dE', symObjAddr: 0x5850, symBinAddr: 0x11FBF0, symSize: 0x50 }
  - { offsetInCU: 0x1675B, offset: 0x4F1A95, size: 0x8, addend: 0x0, symName: '__ZN4core3ptr61drop_in_place$LT$syn..path..ParenthesizedGenericArguments$GT$17h43d4aac5494326a7E', symObjAddr: 0x58A0, symBinAddr: 0x11FC40, symSize: 0x170 }
  - { offsetInCU: 0x16D35, offset: 0x4F206F, size: 0x8, addend: 0x0, symName: '__ZN4core3ptr63drop_in_place$LT$alloc..boxed..Box$LT$syn..lit..LitRepr$GT$$GT$17hd8839b7fb35ee7afE', symObjAddr: 0x5A10, symBinAddr: 0x11FDB0, symSize: 0x60 }
  - { offsetInCU: 0x1702A, offset: 0x4F2364, size: 0x8, addend: 0x0, symName: '__ZN4core3ptr64drop_in_place$LT$alloc..boxed..Box$LT$syn..pat..FieldPat$GT$$GT$17h4980b70a7597cc08E', symObjAddr: 0x5A70, symBinAddr: 0x11FE10, symSize: 0x140 }
  - { offsetInCU: 0x176D5, offset: 0x4F2A0F, size: 0x8, addend: 0x0, symName: '__ZN4core3ptr64drop_in_place$LT$alloc..boxed..Box$LT$syn..ty..BareFnArg$GT$$GT$17h8b34096c620314efE', symObjAddr: 0x5BB0, symBinAddr: 0x11FF50, symSize: 0x140 }
  - { offsetInCU: 0x17BF9, offset: 0x4F2F33, size: 0x8, addend: 0x0, symName: '__ZN4core3ptr64drop_in_place$LT$alloc..vec..Vec$LT$syn..attr..Attribute$GT$$GT$17h3c8f2a04e701c675E.llvm.2300162851086642361', symObjAddr: 0x5CF0, symBinAddr: 0x120090, symSize: 0xD0 }
  - { offsetInCU: 0x17E86, offset: 0x4F31C0, size: 0x8, addend: 0x0, symName: '__ZN4core3ptr65drop_in_place$LT$core..option..Option$LT$syn..expr..Label$GT$$GT$17h78189e72a8cb7951E', symObjAddr: 0x5DC0, symBinAddr: 0x120160, symSize: 0x30 }
  - { offsetInCU: 0x17FC1, offset: 0x4F32FB, size: 0x8, addend: 0x0, symName: '__ZN4core3ptr66drop_in_place$LT$core..option..Option$LT$syn..pat..PatRest$GT$$GT$17h61677cf4ff3a7393E', symObjAddr: 0x5DF0, symBinAddr: 0x120190, symSize: 0xE0 }
  - { offsetInCU: 0x18245, offset: 0x4F357F, size: 0x8, addend: 0x0, symName: '__ZN4core3ptr67drop_in_place$LT$alloc..boxed..Box$LT$syn..expr..FieldValue$GT$$GT$17h93aaccf8aa22ef88E', symObjAddr: 0x5EE0, symBinAddr: 0x120270, symSize: 0x140 }
  - { offsetInCU: 0x18768, offset: 0x4F3AA2, size: 0x8, addend: 0x0, symName: '__ZN4core3ptr70drop_in_place$LT$core..option..Option$LT$syn..ty..BareVariadic$GT$$GT$17h45399348ea4b8d55E', symObjAddr: 0x6050, symBinAddr: 0x1203B0, symSize: 0x120 }
  - { offsetInCU: 0x18C95, offset: 0x4F3FCF, size: 0x8, addend: 0x0, symName: '__ZN4core3ptr72drop_in_place$LT$alloc..boxed..Box$LT$syn..path..GenericArgument$GT$$GT$17haa7dd8b716637b54E', symObjAddr: 0x6170, symBinAddr: 0x1204D0, symSize: 0x2B0 }
  - { offsetInCU: 0x19680, offset: 0x4F49BA, size: 0x8, addend: 0x0, symName: '__ZN4core3ptr72drop_in_place$LT$core..option..Option$LT$syn..lifetime..Lifetime$GT$$GT$17hfc363ccdd8bd9c32E', symObjAddr: 0x6420, symBinAddr: 0x120780, symSize: 0x30 }
  - { offsetInCU: 0x1979C, offset: 0x4F4AD6, size: 0x8, addend: 0x0, symName: '__ZN4core3ptr73drop_in_place$LT$alloc..boxed..Box$LT$syn..generics..GenericParam$GT$$GT$17hf6951dcd5ae07324E', symObjAddr: 0x6450, symBinAddr: 0x1207B0, symSize: 0x80 }
  - { offsetInCU: 0x19914, offset: 0x4F4C4E, size: 0x8, addend: 0x0, symName: '__ZN4core3ptr75drop_in_place$LT$alloc..boxed..Box$LT$syn..generics..TypeParamBound$GT$$GT$17he61c00698a311a34E', symObjAddr: 0x64D0, symBinAddr: 0x120830, symSize: 0x160 }
  - { offsetInCU: 0x19EDA, offset: 0x4F5214, size: 0x8, addend: 0x0, symName: '__ZN4core3ptr86drop_in_place$LT$syn..punctuated..Punctuated$LT$syn..pat..Pat$C$syn..token..Or$GT$$GT$17h8e9173df21a44316E', symObjAddr: 0x6630, symBinAddr: 0x120990, symSize: 0x120 }
  - { offsetInCU: 0x1A320, offset: 0x4F565A, size: 0x8, addend: 0x0, symName: '__ZN4core3ptr87drop_in_place$LT$core..option..Option$LT$alloc..boxed..Box$LT$syn..pat..Pat$GT$$GT$$GT$17hd7b7c69f601b3926E', symObjAddr: 0x6750, symBinAddr: 0x120AB0, symSize: 0x50 }
  - { offsetInCU: 0x1A492, offset: 0x4F57CC, size: 0x8, addend: 0x0, symName: '__ZN4core3ptr87drop_in_place$LT$core..option..Option$LT$alloc..boxed..Box$LT$syn..ty..Type$GT$$GT$$GT$17hd74f5d971aec2972E', symObjAddr: 0x67A0, symBinAddr: 0x120B00, symSize: 0x50 }
  - { offsetInCU: 0x1A604, offset: 0x4F593E, size: 0x8, addend: 0x0, symName: '__ZN4core3ptr89drop_in_place$LT$core..option..Option$LT$alloc..boxed..Box$LT$syn..expr..Expr$GT$$GT$$GT$17h8e135ac1a25a2dc5E', symObjAddr: 0x6810, symBinAddr: 0x120B50, symSize: 0x50 }
  - { offsetInCU: 0x1A7B4, offset: 0x4F5AEE, size: 0x8, addend: 0x0, symName: '__ZN4core3ptr89drop_in_place$LT$syn..punctuated..Punctuated$LT$syn..pat..Pat$C$syn..token..Comma$GT$$GT$17h8d60e47f3fb1f87aE', symObjAddr: 0x6860, symBinAddr: 0x120BA0, symSize: 0x120 }
  - { offsetInCU: 0x1AC8D, offset: 0x4F5FC7, size: 0x8, addend: 0x0, symName: '__ZN4core3ptr90drop_in_place$LT$core..option..Option$LT$alloc..boxed..Box$LT$syn..data..Field$GT$$GT$$GT$17h326c39537b0fcc46E', symObjAddr: 0x6980, symBinAddr: 0x120CC0, symSize: 0x200 }
  - { offsetInCU: 0x1B515, offset: 0x4F684F, size: 0x8, addend: 0x0, symName: '__ZN4core3ptr91drop_in_place$LT$syn..punctuated..Punctuated$LT$syn..expr..Expr$C$syn..token..Comma$GT$$GT$17h4f39b83dc86a4159E', symObjAddr: 0x6B80, symBinAddr: 0x120EC0, symSize: 0x120 }
  - { offsetInCU: 0x1B972, offset: 0x4F6CAC, size: 0x8, addend: 0x0, symName: '__ZN4core3ptr94drop_in_place$LT$syn..punctuated..Punctuated$LT$syn..pat..FieldPat$C$syn..token..Comma$GT$$GT$17h112950ea198c8281E', symObjAddr: 0x6D80, symBinAddr: 0x120FE0, symSize: 0xF0 }
  - { offsetInCU: 0x1BC3C, offset: 0x4F6F76, size: 0x8, addend: 0x0, symName: '__ZN4core3ptr94drop_in_place$LT$syn..punctuated..Punctuated$LT$syn..ty..BareFnArg$C$syn..token..Comma$GT$$GT$17h1c7b44310f06243dE', symObjAddr: 0x6E70, symBinAddr: 0x1210D0, symSize: 0xF0 }
  - { offsetInCU: 0x1BF06, offset: 0x4F7240, size: 0x8, addend: 0x0, symName: '__ZN4core3ptr96drop_in_place$LT$core..option..Option$LT$alloc..boxed..Box$LT$syn..path..PathSegment$GT$$GT$$GT$17hb447d0f626c86a4eE', symObjAddr: 0x6F60, symBinAddr: 0x1211C0, symSize: 0x180 }
  - { offsetInCU: 0x1C597, offset: 0x4F78D1, size: 0x8, addend: 0x0, symName: '__ZN4core3ptr97drop_in_place$LT$syn..punctuated..Punctuated$LT$syn..expr..FieldValue$C$syn..token..Comma$GT$$GT$17h31b81f7462228dcbE', symObjAddr: 0x70E0, symBinAddr: 0x121340, symSize: 0xF0 }
  - { offsetInCU: 0x1C8DD, offset: 0x4F7C17, size: 0x8, addend: 0x0, symName: '__ZN4core3ptr98drop_in_place$LT$syn..punctuated..Punctuated$LT$syn..lifetime..Lifetime$C$syn..token..Plus$GT$$GT$17h0f8fc5f20f465f47E', symObjAddr: 0x71D0, symBinAddr: 0x121430, symSize: 0xC0 }
  - { offsetInCU: 0x257F9, offset: 0x500B33, size: 0x8, addend: 0x0, symName: '__ZN3syn4data8printing75_$LT$impl$u20$quote..to_tokens..ToTokens$u20$for$u20$syn..data..Variant$GT$9to_tokens17h13d1f99ede0509a8E', symObjAddr: 0x93E0, symBinAddr: 0x122DF0, symSize: 0x150 }
  - { offsetInCU: 0x259DF, offset: 0x500D19, size: 0x8, addend: 0x0, symName: '__ZN3syn4data7parsing66_$LT$impl$u20$syn..parse..Parse$u20$for$u20$syn..data..Variant$GT$5parse17h93decb632da50941E', symObjAddr: 0x7AE0, symBinAddr: 0x1214F0, symSize: 0x880 }
  - { offsetInCU: 0x26A55, offset: 0x501D8F, size: 0x8, addend: 0x0, symName: '__ZN3syn4data7parsing70_$LT$impl$u20$syn..parse..Parse$u20$for$u20$syn..data..FieldsNamed$GT$5parse17h6c11e41f70d0356cE', symObjAddr: 0x8360, symBinAddr: 0x121D70, symSize: 0x250 }
  - { offsetInCU: 0x26D9A, offset: 0x5020D4, size: 0x8, addend: 0x0, symName: '__ZN3syn4data7parsing72_$LT$impl$u20$syn..parse..Parse$u20$for$u20$syn..data..FieldsUnnamed$GT$5parse17h86d92da9625cb1a7E', symObjAddr: 0x85B0, symBinAddr: 0x121FC0, symSize: 0x250 }
  - { offsetInCU: 0x278EE, offset: 0x502C28, size: 0x8, addend: 0x0, symName: '__ZN3syn3gen5clone65_$LT$impl$u20$core..clone..Clone$u20$for$u20$syn..data..Field$GT$5clone17hf27205c814e60c3cE', symObjAddr: 0x9DB0, symBinAddr: 0x122F40, symSize: 0x1A0 }
  - { offsetInCU: 0x27BEF, offset: 0x502F29, size: 0x8, addend: 0x0, symName: '__ZN3syn3gen5clone67_$LT$impl$u20$core..clone..Clone$u20$for$u20$syn..data..Variant$GT$5clone17hbd3c00a08e6c036cE', symObjAddr: 0xA090, symBinAddr: 0x1230E0, symSize: 0x2B0 }
  - { offsetInCU: 0x29BAF, offset: 0x504EE9, size: 0x8, addend: 0x0, symName: '__ZN3syn4data7parsing34_$LT$impl$u20$syn..data..Field$GT$11parse_named17h059cc70e1c3f901bE', symObjAddr: 0x8800, symBinAddr: 0x122210, symSize: 0x800 }
  - { offsetInCU: 0x2ABAB, offset: 0x505EE5, size: 0x8, addend: 0x0, symName: '__ZN3syn4data7parsing34_$LT$impl$u20$syn..data..Field$GT$13parse_unnamed17he5dcaef9dc8bfaa1E', symObjAddr: 0x9000, symBinAddr: 0x122A10, symSize: 0x3E0 }
  - { offsetInCU: 0x99, offset: 0x5092B9, size: 0x8, addend: 0x0, symName: '__ZN58_$LT$alloc..string..String$u20$as$u20$core..fmt..Write$GT$10write_char17hd329c0cb943f081aE', symObjAddr: 0x730, symBinAddr: 0x1237D0, symSize: 0x130 }
  - { offsetInCU: 0x440, offset: 0x509660, size: 0x8, addend: 0x0, symName: '__ZN58_$LT$alloc..string..String$u20$as$u20$core..fmt..Write$GT$9write_str17h1ff5aa96ca91c6d5E', symObjAddr: 0x860, symBinAddr: 0x123900, symSize: 0x60 }
  - { offsetInCU: 0x6A4, offset: 0x5098C4, size: 0x8, addend: 0x0, symName: '__ZN60_$LT$alloc..string..String$u20$as$u20$core..fmt..Display$GT$3fmt17hc365578c40090489E', symObjAddr: 0x8C0, symBinAddr: 0x123960, symSize: 0x20 }
  - { offsetInCU: 0x108F, offset: 0x50A2AF, size: 0x8, addend: 0x0, symName: '__ZN69_$LT$alloc..boxed..Box$LT$T$C$A$GT$$u20$as$u20$core..clone..Clone$GT$5clone17h909280e36d4ac34eE.llvm.15985430365941682814', symObjAddr: 0x8E0, symBinAddr: 0x123980, symSize: 0x140 }
  - { offsetInCU: 0x1BFE, offset: 0x50AE1E, size: 0x8, addend: 0x0, symName: '__ZN4core3ptr116drop_in_place$LT$core..option..Option$LT$$LP$alloc..boxed..Box$LT$str$GT$$C$alloc..boxed..Box$LT$str$GT$$RP$$GT$$GT$17h943ea7cbf1e3a9d3E', symObjAddr: 0xB0, symBinAddr: 0x123390, symSize: 0x50 }
  - { offsetInCU: 0x1E4F, offset: 0x50B06F, size: 0x8, addend: 0x0, symName: '__ZN4core3ptr34drop_in_place$LT$syn..lit..Lit$GT$17h8902f5ff67917034E.llvm.15985430365941682814', symObjAddr: 0x110, symBinAddr: 0x1233E0, symSize: 0x110 }
  - { offsetInCU: 0x1FE7, offset: 0x50B207, size: 0x8, addend: 0x0, symName: '__ZN4core3ptr37drop_in_place$LT$core..fmt..Error$GT$17h8e130a2736288a98E', symObjAddr: 0x220, symBinAddr: 0x1234F0, symSize: 0x10 }
  - { offsetInCU: 0x2051, offset: 0x50B271, size: 0x8, addend: 0x0, symName: '__ZN4core3ptr37drop_in_place$LT$syn..lit..LitInt$GT$17hdc2cb2f4b64b71f3E.llvm.15985430365941682814', symObjAddr: 0x230, symBinAddr: 0x123500, symSize: 0x0 }
  - { offsetInCU: 0x2420, offset: 0x50B640, size: 0x8, addend: 0x0, symName: '__ZN4core3ptr37drop_in_place$LT$syn..lit..LitStr$GT$17h0f45e3667374f869E.llvm.15985430365941682814', symObjAddr: 0x2A0, symBinAddr: 0x123570, symSize: 0x0 }
  - { offsetInCU: 0x271D, offset: 0x50B93D, size: 0x8, addend: 0x0, symName: '__ZN4core3ptr38drop_in_place$LT$syn..lit..LitRepr$GT$17h1d2fb6b3a94c0552E.llvm.15985430365941682814', symObjAddr: 0x300, symBinAddr: 0x1235D0, symSize: 0x50 }
  - { offsetInCU: 0x2936, offset: 0x50BB56, size: 0x8, addend: 0x0, symName: '__ZN4core3ptr41drop_in_place$LT$syn..lit..LitIntRepr$GT$17hde5d4b83d43b5087E.llvm.15985430365941682814', symObjAddr: 0x390, symBinAddr: 0x123620, symSize: 0x0 }
  - { offsetInCU: 0x2BE3, offset: 0x50BE03, size: 0x8, addend: 0x0, symName: '__ZN4core3ptr42drop_in_place$LT$alloc..string..String$GT$17h781ac6273fa84cb0E', symObjAddr: 0x3F0, symBinAddr: 0x123680, symSize: 0x20 }
  - { offsetInCU: 0x2D68, offset: 0x50BF88, size: 0x8, addend: 0x0, symName: '__ZN4core3ptr44drop_in_place$LT$syn..parse..ParseBuffer$GT$17hd0dadba44a19aec2E.llvm.15985430365941682814', symObjAddr: 0x4C0, symBinAddr: 0x1236A0, symSize: 0x70 }
  - { offsetInCU: 0x30C4, offset: 0x50C2E4, size: 0x8, addend: 0x0, symName: '__ZN4core3ptr82drop_in_place$LT$core..result..Result$LT$syn..lit..Lit$C$syn..error..Error$GT$$GT$17h46d502669dad5b38E.llvm.15985430365941682814', symObjAddr: 0x670, symBinAddr: 0x123710, symSize: 0xA0 }
  - { offsetInCU: 0x3863, offset: 0x50CA83, size: 0x8, addend: 0x0, symName: '__ZN53_$LT$core..fmt..Error$u20$as$u20$core..fmt..Debug$GT$3fmt17h43ae5cec9623af13E', symObjAddr: 0x710, symBinAddr: 0x1237B0, symSize: 0x20 }
  - { offsetInCU: 0x5136, offset: 0x50E356, size: 0x8, addend: 0x0, symName: '__ZN59_$LT$syn..lit..LitIntRepr$u20$as$u20$core..clone..Clone$GT$5clone17h7b0c29cf02a7750fE', symObjAddr: 0x29A0, symBinAddr: 0x123C20, symSize: 0x0 }
  - { offsetInCU: 0x548E, offset: 0x50E6AE, size: 0x8, addend: 0x0, symName: '__ZN3syn3lit7parsing64_$LT$impl$u20$syn..parse..Parse$u20$for$u20$syn..lit..LitStr$GT$5parse17hc3c09d83f26d3abaE', symObjAddr: 0x2B00, symBinAddr: 0x123D60, symSize: 0x260 }
  - { offsetInCU: 0x5D1A, offset: 0x50EF3A, size: 0x8, addend: 0x0, symName: '__ZN3syn3lit7parsing64_$LT$impl$u20$syn..parse..Parse$u20$for$u20$syn..lit..LitInt$GT$5parse17hf21709ab5bed9f5dE', symObjAddr: 0x36E0, symBinAddr: 0x123FC0, symSize: 0x260 }
  - { offsetInCU: 0x65A6, offset: 0x50F7C6, size: 0x8, addend: 0x0, symName: '__ZN3syn3lit7parsing66_$LT$impl$u20$syn..parse..Parse$u20$for$u20$syn..lit..LitFloat$GT$5parse17h3d8e90a1cfb7dbeeE', symObjAddr: 0x3940, symBinAddr: 0x124220, symSize: 0x260 }
  - { offsetInCU: 0x6E32, offset: 0x510052, size: 0x8, addend: 0x0, symName: '__ZN3syn3lit7parsing61_$LT$impl$u20$syn..token..Token$u20$for$u20$syn..lit..Lit$GT$4peek17hf363c22e33f56401E', symObjAddr: 0x4EC0, symBinAddr: 0x124F20, symSize: 0x180 }
  - { offsetInCU: 0x77A5, offset: 0x5109C5, size: 0x8, addend: 0x0, symName: '__ZN3syn3lit7parsing64_$LT$impl$u20$syn..token..Token$u20$for$u20$syn..lit..LitStr$GT$4peek17h4c34042f8612caedE', symObjAddr: 0x5040, symBinAddr: 0x1250A0, symSize: 0x180 }
  - { offsetInCU: 0x8118, offset: 0x511338, size: 0x8, addend: 0x0, symName: '__ZN3syn3lit7parsing64_$LT$impl$u20$syn..token..Token$u20$for$u20$syn..lit..LitInt$GT$4peek17hbbc9a1b585736a45E', symObjAddr: 0x57C0, symBinAddr: 0x125220, symSize: 0x180 }
  - { offsetInCU: 0x8A8B, offset: 0x511CAB, size: 0x8, addend: 0x0, symName: '__ZN3syn3lit7parsing66_$LT$impl$u20$syn..token..Token$u20$for$u20$syn..lit..LitFloat$GT$4peek17h52f73ed094a66d04E', symObjAddr: 0x5940, symBinAddr: 0x1253A0, symSize: 0x180 }
  - { offsetInCU: 0x95B6, offset: 0x5127D6, size: 0x8, addend: 0x0, symName: '__ZN60_$LT$syn..lit..Lit$u20$as$u20$quote..to_tokens..ToTokens$GT$9to_tokens17hf20c46f174f037f0E', symObjAddr: 0x4930, symBinAddr: 0x124E30, symSize: 0xF0 }
  - { offsetInCU: 0x9909, offset: 0x512B29, size: 0x8, addend: 0x0, symName: '__ZN3syn3gen5clone62_$LT$impl$u20$core..clone..Clone$u20$for$u20$syn..lit..Lit$GT$5clone17hb955cfbc63c8c96cE', symObjAddr: 0x5C40, symBinAddr: 0x125520, symSize: 0x260 }
  - { offsetInCU: 0xA5E2, offset: 0x513802, size: 0x8, addend: 0x0, symName: __ZN3syn3lit6LitStr5value17h4dd347c62dd2d628E, symObjAddr: 0xB20, symBinAddr: 0x123AC0, symSize: 0x160 }
  - { offsetInCU: 0xAD3D, offset: 0x513F5D, size: 0x8, addend: 0x0, symName: '__ZN3syn3lit5value31_$LT$impl$u20$syn..lit..Lit$GT$3new17h7222278f7f00ab07E', symObjAddr: 0x3E90, symBinAddr: 0x124480, symSize: 0x9B0 }
  - { offsetInCU: 0x8BC, offset: 0x5175D4, size: 0x8, addend: 0x0, symName: '__ZN4core3ptr39drop_in_place$LT$syn..buffer..Entry$GT$17h8c4c199506966aaeE', symObjAddr: 0x1A0, symBinAddr: 0x125780, symSize: 0xC0 }
  - { offsetInCU: 0xBD0, offset: 0x5178E8, size: 0x8, addend: 0x0, symName: '__ZN4core3ptr43drop_in_place$LT$proc_macro2..TokenTree$GT$17h9a731c54895ae11bE', symObjAddr: 0x260, symBinAddr: 0x125840, symSize: 0xB0 }
  - { offsetInCU: 0x588C, offset: 0x51C5A4, size: 0x8, addend: 0x0, symName: '__ZN80_$LT$syn..parse..ParseBuffer$u20$as$u20$syn..parse..discouraged..Speculative$GT$10advance_to17hc1d93e8143d1374bE', symObjAddr: 0x520, symBinAddr: 0x1258F0, symSize: 0x2C0 }
  - { offsetInCU: 0x6EB9, offset: 0x51DBD1, size: 0x8, addend: 0x0, symName: '__ZN65_$LT$syn..parse..ParseBuffer$u20$as$u20$core..ops..drop..Drop$GT$4drop17h7a8329a6785bf652E', symObjAddr: 0x990, symBinAddr: 0x125BB0, symSize: 0xC0 }
  - { offsetInCU: 0x75F9, offset: 0x51E311, size: 0x8, addend: 0x0, symName: __ZN3syn5parse16inner_unexpected17h5cb5fd588473b12cE.llvm.9658514889328286378, symObjAddr: 0xB60, symBinAddr: 0x125C70, symSize: 0x130 }
  - { offsetInCU: 0x7F6D, offset: 0x51EC85, size: 0x8, addend: 0x0, symName: __ZN3syn5parse33span_of_unexpected_ignoring_nones17h88b6772bd6968365E, symObjAddr: 0xC90, symBinAddr: 0x125DA0, symSize: 0x180 }
  - { offsetInCU: 0x848D, offset: 0x51F1A5, size: 0x8, addend: 0x0, symName: __ZN3syn5parse11ParseBuffer5peek25peek217hca9ad5378ed4a691E, symObjAddr: 0x1430, symBinAddr: 0x126190, symSize: 0x100 }
  - { offsetInCU: 0x870B, offset: 0x51F423, size: 0x8, addend: 0x0, symName: __ZN3syn5parse11ParseBuffer5peek35peek317h0b004316ff5c3d58E, symObjAddr: 0x1530, symBinAddr: 0x126290, symSize: 0x1C0 }
  - { offsetInCU: 0x8CFF, offset: 0x51FA17, size: 0x8, addend: 0x0, symName: __ZN3syn5parse6Parser9parse_str17h41d1ab4ccd0f4179E, symObjAddr: 0x3F30, symBinAddr: 0x128520, symSize: 0x700 }
  - { offsetInCU: 0xA0D2, offset: 0x520DEA, size: 0x8, addend: 0x0, symName: __ZN3syn5parse22tokens_to_parse_buffer17h49f2ace1712511faE, symObjAddr: 0x4E00, symBinAddr: 0x128C20, symSize: 0x100 }
  - { offsetInCU: 0xB172, offset: 0x521E8A, size: 0x8, addend: 0x0, symName: __ZN3syn5parse11ParseBuffer5parse17h557164c6a406d073E, symObjAddr: 0xFE0, symBinAddr: 0x125F20, symSize: 0xC0 }
  - { offsetInCU: 0xB366, offset: 0x52207E, size: 0x8, addend: 0x0, symName: __ZN3syn5parse11ParseBuffer5parse17h56ee5f00ccbbd323E, symObjAddr: 0x10A0, symBinAddr: 0x125FE0, symSize: 0x100 }
  - { offsetInCU: 0xB446, offset: 0x52215E, size: 0x8, addend: 0x0, symName: __ZN3syn5parse11ParseBuffer5parse17hc3d2362d4d40130dE, symObjAddr: 0x1300, symBinAddr: 0x1260E0, symSize: 0xB0 }
  - { offsetInCU: 0xB6E5, offset: 0x5223FD, size: 0x8, addend: 0x0, symName: __ZN3syn5parse11ParseBuffer4fork17h834155dba4cc11c8E, symObjAddr: 0x16F0, symBinAddr: 0x126450, symSize: 0xB0 }
  - { offsetInCU: 0xB9E4, offset: 0x5226FC, size: 0x8, addend: 0x0, symName: __ZN3syn5parse11ParseBuffer4step17h17f5a98a5c39dc6bE, symObjAddr: 0x1820, symBinAddr: 0x126500, symSize: 0x250 }
  - { offsetInCU: 0xC5E7, offset: 0x5232FF, size: 0x8, addend: 0x0, symName: __ZN3syn5parse11ParseBuffer4step17h2568650e76fb76e2E, symObjAddr: 0x1A70, symBinAddr: 0x126750, symSize: 0x370 }
  - { offsetInCU: 0xD0BB, offset: 0x523DD3, size: 0x8, addend: 0x0, symName: __ZN3syn5parse11ParseBuffer4step17h3901f23df1aacc5bE, symObjAddr: 0x1EF0, symBinAddr: 0x126AC0, symSize: 0xC0 }
  - { offsetInCU: 0xD3CD, offset: 0x5240E5, size: 0x8, addend: 0x0, symName: __ZN3syn5parse11ParseBuffer4step17h4d38b1841156ecf4E, symObjAddr: 0x1FB0, symBinAddr: 0x126B80, symSize: 0x230 }
  - { offsetInCU: 0xDF60, offset: 0x524C78, size: 0x8, addend: 0x0, symName: __ZN3syn5parse11ParseBuffer4step17h63e5939dbbd4c354E, symObjAddr: 0x21E0, symBinAddr: 0x126DB0, symSize: 0x350 }
  - { offsetInCU: 0xED9E, offset: 0x525AB6, size: 0x8, addend: 0x0, symName: __ZN3syn5parse11ParseBuffer4step17h80285e64ccf27fbeE, symObjAddr: 0x2760, symBinAddr: 0x127100, symSize: 0x280 }
  - { offsetInCU: 0xF4BF, offset: 0x5261D7, size: 0x8, addend: 0x0, symName: __ZN3syn5parse11ParseBuffer4step17h839cb5b675a9cfa9E, symObjAddr: 0x29E0, symBinAddr: 0x127380, symSize: 0x630 }
  - { offsetInCU: 0x10636, offset: 0x52734E, size: 0x8, addend: 0x0, symName: __ZN3syn5parse11ParseBuffer4step17h8f1c6caee46c0ddbE, symObjAddr: 0x3110, symBinAddr: 0x1279B0, symSize: 0x170 }
  - { offsetInCU: 0x10AE1, offset: 0x5277F9, size: 0x8, addend: 0x0, symName: __ZN3syn5parse11ParseBuffer4step17ha4832aa894bb7cdeE, symObjAddr: 0x3280, symBinAddr: 0x127B20, symSize: 0x2D0 }
  - { offsetInCU: 0x11725, offset: 0x52843D, size: 0x8, addend: 0x0, symName: __ZN3syn5parse11ParseBuffer4step17he65381b6e10e4466E, symObjAddr: 0x3770, symBinAddr: 0x127DF0, symSize: 0x240 }
  - { offsetInCU: 0x121C6, offset: 0x528EDE, size: 0x8, addend: 0x0, symName: __ZN3syn5parse11ParseBuffer4step17hf5122463d58ba43cE, symObjAddr: 0x39B0, symBinAddr: 0x128030, symSize: 0x360 }
  - { offsetInCU: 0x12845, offset: 0x52955D, size: 0x8, addend: 0x0, symName: __ZN3syn5parse11ParseBuffer16check_unexpected17hc81062d17bdf4fb9E, symObjAddr: 0x3DA0, symBinAddr: 0x128390, symSize: 0x190 }
  - { offsetInCU: 0x207, offset: 0x53488D, size: 0x8, addend: 0x0, symName: '__ZN3syn4stmt7parsing64_$LT$impl$u20$syn..parse..Parse$u20$for$u20$syn..stmt..Block$GT$5parse17h437a27c9550f455fE', symObjAddr: 0xAD70, symBinAddr: 0x1337B0, symSize: 0x270 }
  - { offsetInCU: 0x56C, offset: 0x534BF2, size: 0x8, addend: 0x0, symName: '__ZN3syn4stmt8printing72_$LT$impl$u20$quote..to_tokens..ToTokens$u20$for$u20$syn..stmt..Stmt$GT$9to_tokens17hb778a36b6095bf33E', symObjAddr: 0xB020, symBinAddr: 0x133A20, symSize: 0x210 }
  - { offsetInCU: 0x9B3, offset: 0x535039, size: 0x8, addend: 0x0, symName: '__ZN3syn4stmt8printing73_$LT$impl$u20$quote..to_tokens..ToTokens$u20$for$u20$syn..stmt..Local$GT$9to_tokens17had5b23123aa66001E', symObjAddr: 0xB230, symBinAddr: 0x133C30, symSize: 0x3E0 }
  - { offsetInCU: 0x5708, offset: 0x539D8E, size: 0x8, addend: 0x0, symName: '__ZN3syn3gen5clone65_$LT$impl$u20$core..clone..Clone$u20$for$u20$syn..stmt..Local$GT$5clone17ha48840b246160370E', symObjAddr: 0xB780, symBinAddr: 0x134010, symSize: 0x110 }
  - { offsetInCU: 0x57DA, offset: 0x539E60, size: 0x8, addend: 0x0, symName: '__ZN3syn3gen5clone69_$LT$impl$u20$core..clone..Clone$u20$for$u20$syn..stmt..LocalInit$GT$5clone17h63848ce9cd7dd9bcE', symObjAddr: 0xB890, symBinAddr: 0x134120, symSize: 0x160 }
  - { offsetInCU: 0x5D3D, offset: 0x53A3C3, size: 0x8, addend: 0x0, symName: '__ZN3syn3gen5clone64_$LT$impl$u20$core..clone..Clone$u20$for$u20$syn..stmt..Stmt$GT$5clone17h23e8f9137dccc28bE', symObjAddr: 0xB9F0, symBinAddr: 0x134280, symSize: 0x170 }
  - { offsetInCU: 0x7B5F, offset: 0x53C1E5, size: 0x8, addend: 0x0, symName: '__ZN4core3ptr100drop_in_place$LT$core..option..Option$LT$alloc..boxed..Box$LT$syn..path..GenericArgument$GT$$GT$$GT$17h7435c9de74860622E', symObjAddr: 0x1B0, symBinAddr: 0x128D20, symSize: 0x50 }
  - { offsetInCU: 0x7EFF, offset: 0x53C585, size: 0x8, addend: 0x0, symName: '__ZN4core3ptr100drop_in_place$LT$syn..punctuated..Punctuated$LT$syn..path..PathSegment$C$syn..token..PathSep$GT$$GT$17hf414cb3581f8337aE', symObjAddr: 0x200, symBinAddr: 0x128D70, symSize: 0x260 }
  - { offsetInCU: 0x8898, offset: 0x53CF1E, size: 0x8, addend: 0x0, symName: '__ZN4core3ptr103drop_in_place$LT$core..option..Option$LT$alloc..boxed..Box$LT$syn..generics..TypeParamBound$GT$$GT$$GT$17h5974f03e36b1a9c3E', symObjAddr: 0x460, symBinAddr: 0x128FD0, symSize: 0x50 }
  - { offsetInCU: 0x8AE3, offset: 0x53D169, size: 0x8, addend: 0x0, symName: '__ZN4core3ptr103drop_in_place$LT$core..option..Option$LT$alloc..boxed..Box$LT$syn..generics..WherePredicate$GT$$GT$$GT$17hdd5111a374d8d6f2E', symObjAddr: 0x4B0, symBinAddr: 0x129020, symSize: 0xD0 }
  - { offsetInCU: 0x8E76, offset: 0x53D4FC, size: 0x8, addend: 0x0, symName: '__ZN4core3ptr103drop_in_place$LT$syn..punctuated..Punctuated$LT$syn..generics..GenericParam$C$syn..token..Comma$GT$$GT$17hf42353fa44ed6da8E', symObjAddr: 0x580, symBinAddr: 0x1290F0, symSize: 0xF0 }
  - { offsetInCU: 0x92DC, offset: 0x53D962, size: 0x8, addend: 0x0, symName: '__ZN4core3ptr104drop_in_place$LT$syn..punctuated..Punctuated$LT$syn..generics..TypeParamBound$C$syn..token..Plus$GT$$GT$17h532f52c4a894b056E', symObjAddr: 0x670, symBinAddr: 0x1291E0, symSize: 0x190 }
  - { offsetInCU: 0x98F2, offset: 0x53DF78, size: 0x8, addend: 0x0, symName: '__ZN4core3ptr115drop_in_place$LT$core..option..Option$LT$$LP$syn..token..Brace$C$alloc..vec..Vec$LT$syn..item..Item$GT$$RP$$GT$$GT$17h6df5bf3d47177236E', symObjAddr: 0x800, symBinAddr: 0x129370, symSize: 0xE0 }
  - { offsetInCU: 0x9B99, offset: 0x53E21F, size: 0x8, addend: 0x0, symName: '__ZN4core3ptr116drop_in_place$LT$core..option..Option$LT$$LP$syn..token..Else$C$alloc..boxed..Box$LT$syn..expr..Expr$GT$$RP$$GT$$GT$17hce47d33a8602d206E', symObjAddr: 0x8E0, symBinAddr: 0x129450, symSize: 0x50 }
  - { offsetInCU: 0x9DD3, offset: 0x53E459, size: 0x8, addend: 0x0, symName: '__ZN4core3ptr34drop_in_place$LT$syn..lit..Lit$GT$17h8902f5ff67917034E', symObjAddr: 0x930, symBinAddr: 0x1294A0, symSize: 0x110 }
  - { offsetInCU: 0xA30D, offset: 0x53E993, size: 0x8, addend: 0x0, symName: '__ZN4core3ptr34drop_in_place$LT$syn..pat..Pat$GT$17h4581eea028ec0969E.llvm.2062191468462725206', symObjAddr: 0xA40, symBinAddr: 0x1295B0, symSize: 0x1000 }
  - { offsetInCU: 0xDE32, offset: 0x5424B8, size: 0x8, addend: 0x0, symName: '__ZN4core3ptr34drop_in_place$LT$syn..ty..Type$GT$17h369e41ad4a9f1ae0E', symObjAddr: 0x1A40, symBinAddr: 0x12A5B0, symSize: 0x4F0 }
  - { offsetInCU: 0xF35E, offset: 0x5439E4, size: 0x8, addend: 0x0, symName: '__ZN4core3ptr36drop_in_place$LT$syn..expr..Expr$GT$17h0f7fd4c749bae801E', symObjAddr: 0x1F30, symBinAddr: 0x12AAA0, symSize: 0x28D0 }
  - { offsetInCU: 0x18C8B, offset: 0x54D311, size: 0x8, addend: 0x0, symName: '__ZN4core3ptr36drop_in_place$LT$syn..item..Item$GT$17h13f5a53479ba6379E', symObjAddr: 0x4800, symBinAddr: 0x12D370, symSize: 0x19D0 }
  - { offsetInCU: 0x1E8C3, offset: 0x552F49, size: 0x8, addend: 0x0, symName: '__ZN4core3ptr36drop_in_place$LT$syn..mac..Macro$GT$17h4ffde962df30ebe2E', symObjAddr: 0x61D0, symBinAddr: 0x12ED40, symSize: 0x40 }
  - { offsetInCU: 0x1E8FD, offset: 0x552F83, size: 0x8, addend: 0x0, symName: '__ZN4core3ptr36drop_in_place$LT$syn..path..Path$GT$17habea856181211e1cE', symObjAddr: 0x6210, symBinAddr: 0x12ED80, symSize: 0x220 }
  - { offsetInCU: 0x1F270, offset: 0x5538F6, size: 0x8, addend: 0x0, symName: '__ZN4core3ptr36drop_in_place$LT$syn..stmt..Stmt$GT$17h7826ed37cb9634e5E', symObjAddr: 0x6430, symBinAddr: 0x12EFA0, symSize: 0x260 }
  - { offsetInCU: 0x1F856, offset: 0x553EDC, size: 0x8, addend: 0x0, symName: '__ZN4core3ptr37drop_in_place$LT$syn..stmt..Block$GT$17hcc21a21cf949414cE', symObjAddr: 0x6690, symBinAddr: 0x12F200, symSize: 0xD0 }
  - { offsetInCU: 0x1FB19, offset: 0x55419F, size: 0x8, addend: 0x0, symName: '__ZN4core3ptr38drop_in_place$LT$syn..data..Fields$GT$17h1dd1b203befc1316E', symObjAddr: 0x6760, symBinAddr: 0x12F2D0, symSize: 0x190 }
  - { offsetInCU: 0x1FF37, offset: 0x5545BD, size: 0x8, addend: 0x0, symName: '__ZN4core3ptr38drop_in_place$LT$syn..expr..Member$GT$17h022cbe5553aa40faE', symObjAddr: 0x68F0, symBinAddr: 0x12F460, symSize: 0x30 }
  - { offsetInCU: 0x20034, offset: 0x5546BA, size: 0x8, addend: 0x0, symName: '__ZN4core3ptr39drop_in_place$LT$proc_macro2..Ident$GT$17h8101e88c3ac359d6E', symObjAddr: 0x6930, symBinAddr: 0x12F490, symSize: 0x30 }
  - { offsetInCU: 0x20229, offset: 0x5548AF, size: 0x8, addend: 0x0, symName: '__ZN4core3ptr39drop_in_place$LT$syn..item..UseTree$GT$17h5b1281a5704d139dE', symObjAddr: 0x6960, symBinAddr: 0x12F4C0, symSize: 0x1D0 }
  - { offsetInCU: 0x20929, offset: 0x554FAF, size: 0x8, addend: 0x0, symName: '__ZN4core3ptr40drop_in_place$LT$syn..ty..ReturnType$GT$17h02cf41e2fec63d90E', symObjAddr: 0x6B30, symBinAddr: 0x12F690, symSize: 0x50 }
  - { offsetInCU: 0x20A9B, offset: 0x555121, size: 0x8, addend: 0x0, symName: '__ZN4core3ptr41drop_in_place$LT$syn..expr..ExprConst$GT$17h725a13e551d9f276E', symObjAddr: 0x6B90, symBinAddr: 0x12F6E0, symSize: 0x180 }
  - { offsetInCU: 0x2104D, offset: 0x5556D3, size: 0x8, addend: 0x0, symName: '__ZN4core3ptr41drop_in_place$LT$syn..item..Signature$GT$17h691f115807a5d1eeE', symObjAddr: 0x6D10, symBinAddr: 0x12F860, symSize: 0x240 }
  - { offsetInCU: 0x218C6, offset: 0x555F4C, size: 0x8, addend: 0x0, symName: '__ZN4core3ptr43drop_in_place$LT$syn..data..FieldsNamed$GT$17hb2a97e73a85352cbE', symObjAddr: 0x6F50, symBinAddr: 0x12FAA0, symSize: 0xE0 }
  - { offsetInCU: 0x21BB5, offset: 0x55623B, size: 0x8, addend: 0x0, symName: '__ZN4core3ptr44drop_in_place$LT$syn..generics..Generics$GT$17h10dea28dec64f81eE', symObjAddr: 0x7030, symBinAddr: 0x12FB80, symSize: 0x40 }
  - { offsetInCU: 0x21BD2, offset: 0x556258, size: 0x8, addend: 0x0, symName: '__ZN4core3ptr44drop_in_place$LT$syn..lifetime..Lifetime$GT$17hf0cdec2e9ec456d6E', symObjAddr: 0x7070, symBinAddr: 0x12FBC0, symSize: 0x30 }
  - { offsetInCU: 0x21D4B, offset: 0x5563D1, size: 0x8, addend: 0x0, symName: '__ZN4core3ptr44drop_in_place$LT$syn..parse..ParseBuffer$GT$17hd0dadba44a19aec2E.llvm.2062191468462725206', symObjAddr: 0x70A0, symBinAddr: 0x12FBF0, symSize: 0x70 }
  - { offsetInCU: 0x22180, offset: 0x556806, size: 0x8, addend: 0x0, symName: '__ZN4core3ptr45drop_in_place$LT$proc_macro2..TokenStream$GT$17h3405f6c513e9f6cbE', symObjAddr: 0x7110, symBinAddr: 0x12FC60, symSize: 0x140 }
  - { offsetInCU: 0x225EF, offset: 0x556C75, size: 0x8, addend: 0x0, symName: '__ZN4core3ptr45drop_in_place$LT$syn..generics..TypeParam$GT$17he5eda51070b7de47E', symObjAddr: 0x7250, symBinAddr: 0x12FDA0, symSize: 0x230 }
  - { offsetInCU: 0x22DEB, offset: 0x557471, size: 0x8, addend: 0x0, symName: '__ZN4core3ptr46drop_in_place$LT$syn..generics..ConstParam$GT$17hab0a58c4af8c549cE', symObjAddr: 0x7480, symBinAddr: 0x12FFD0, symSize: 0x150 }
  - { offsetInCU: 0x23215, offset: 0x55789B, size: 0x8, addend: 0x0, symName: '__ZN4core3ptr47drop_in_place$LT$syn..path..GenericArgument$GT$17h54f8794633f96823E', symObjAddr: 0x75D0, symBinAddr: 0x130120, symSize: 0x4A0 }
  - { offsetInCU: 0x242BC, offset: 0x558942, size: 0x8, addend: 0x0, symName: '__ZN4core3ptr49drop_in_place$LT$syn..generics..LifetimeParam$GT$17h41a7c7a290ea6289E', symObjAddr: 0x7A70, symBinAddr: 0x1305C0, symSize: 0xF0 }
  - { offsetInCU: 0x24676, offset: 0x558CFC, size: 0x8, addend: 0x0, symName: '__ZN4core3ptr49drop_in_place$LT$syn..restriction..Visibility$GT$17h2a932c493942ef80E', symObjAddr: 0x7B60, symBinAddr: 0x1306B0, symSize: 0x60 }
  - { offsetInCU: 0x247F9, offset: 0x558E7F, size: 0x8, addend: 0x0, symName: '__ZN4core3ptr50drop_in_place$LT$syn..generics..TypeParamBound$GT$17hcd7771d4c6c221efE', symObjAddr: 0x7BC0, symBinAddr: 0x130710, symSize: 0x160 }
  - { offsetInCU: 0x24C19, offset: 0x55929F, size: 0x8, addend: 0x0, symName: '__ZN4core3ptr58drop_in_place$LT$alloc..vec..Vec$LT$syn..expr..Arm$GT$$GT$17h1a55df3d2cba1daaE', symObjAddr: 0x7D20, symBinAddr: 0x130870, symSize: 0xD0 }
  - { offsetInCU: 0x24EA6, offset: 0x55952C, size: 0x8, addend: 0x0, symName: '__ZN4core3ptr59drop_in_place$LT$alloc..boxed..Box$LT$syn..pat..Pat$GT$$GT$17h563b135d87aca8abE', symObjAddr: 0x7DF0, symBinAddr: 0x130940, symSize: 0x50 }
  - { offsetInCU: 0x25001, offset: 0x559687, size: 0x8, addend: 0x0, symName: '__ZN4core3ptr59drop_in_place$LT$alloc..boxed..Box$LT$syn..ty..Type$GT$$GT$17hffed36bad83adacbE', symObjAddr: 0x7E40, symBinAddr: 0x130990, symSize: 0x50 }
  - { offsetInCU: 0x2515C, offset: 0x5597E2, size: 0x8, addend: 0x0, symName: '__ZN4core3ptr59drop_in_place$LT$alloc..vec..Vec$LT$syn..stmt..Stmt$GT$$GT$17hb5c1acf3c61c43e2E.llvm.2062191468462725206', symObjAddr: 0x7E90, symBinAddr: 0x1309E0, symSize: 0xD0 }
  - { offsetInCU: 0x253E9, offset: 0x559A6F, size: 0x8, addend: 0x0, symName: '__ZN4core3ptr61drop_in_place$LT$alloc..boxed..Box$LT$syn..expr..Expr$GT$$GT$17h01091e47f131475dE', symObjAddr: 0x7F60, symBinAddr: 0x130AB0, symSize: 0x50 }
  - { offsetInCU: 0x255C0, offset: 0x559C46, size: 0x8, addend: 0x0, symName: '__ZN4core3ptr61drop_in_place$LT$syn..path..ParenthesizedGenericArguments$GT$17h43d4aac5494326a7E', symObjAddr: 0x7FB0, symBinAddr: 0x130B00, symSize: 0x170 }
  - { offsetInCU: 0x25B87, offset: 0x55A20D, size: 0x8, addend: 0x0, symName: '__ZN4core3ptr62drop_in_place$LT$alloc..boxed..Box$LT$syn..stmt..Block$GT$$GT$17h30434998ae0f12a8E', symObjAddr: 0x8120, symBinAddr: 0x130C70, symSize: 0xE0 }
  - { offsetInCU: 0x25F64, offset: 0x55A5EA, size: 0x8, addend: 0x0, symName: '__ZN4core3ptr62drop_in_place$LT$syn..path..AngleBracketedGenericArguments$GT$17hc5b69f68243636ddE', symObjAddr: 0x8200, symBinAddr: 0x130D50, symSize: 0x120 }
  - { offsetInCU: 0x2637A, offset: 0x55AA00, size: 0x8, addend: 0x0, symName: '__ZN4core3ptr63drop_in_place$LT$alloc..boxed..Box$LT$syn..lit..LitRepr$GT$$GT$17hd8839b7fb35ee7afE', symObjAddr: 0x8320, symBinAddr: 0x130E70, symSize: 0x60 }
  - { offsetInCU: 0x26650, offset: 0x55ACD6, size: 0x8, addend: 0x0, symName: '__ZN4core3ptr63drop_in_place$LT$alloc..vec..Vec$LT$syn..item..ImplItem$GT$$GT$17hda9ba61cc1df3d0eE', symObjAddr: 0x8380, symBinAddr: 0x130ED0, symSize: 0x80 }
  - { offsetInCU: 0x268CE, offset: 0x55AF54, size: 0x8, addend: 0x0, symName: '__ZN4core3ptr64drop_in_place$LT$alloc..boxed..Box$LT$syn..item..UseTree$GT$$GT$17he10cba0a4742709fE', symObjAddr: 0x8400, symBinAddr: 0x130F50, symSize: 0x50 }
  - { offsetInCU: 0x26A48, offset: 0x55B0CE, size: 0x8, addend: 0x0, symName: '__ZN4core3ptr64drop_in_place$LT$alloc..boxed..Box$LT$syn..pat..FieldPat$GT$$GT$17h4980b70a7597cc08E', symObjAddr: 0x8450, symBinAddr: 0x130FA0, symSize: 0x140 }
  - { offsetInCU: 0x270F3, offset: 0x55B779, size: 0x8, addend: 0x0, symName: '__ZN4core3ptr64drop_in_place$LT$alloc..boxed..Box$LT$syn..ty..BareFnArg$GT$$GT$17h8b34096c620314efE', symObjAddr: 0x8590, symBinAddr: 0x1310E0, symSize: 0x140 }
  - { offsetInCU: 0x27617, offset: 0x55BC9D, size: 0x8, addend: 0x0, symName: '__ZN4core3ptr64drop_in_place$LT$alloc..vec..Vec$LT$syn..attr..Attribute$GT$$GT$17h3c8f2a04e701c675E.llvm.2062191468462725206', symObjAddr: 0x86D0, symBinAddr: 0x131220, symSize: 0xD0 }
  - { offsetInCU: 0x278A4, offset: 0x55BF2A, size: 0x8, addend: 0x0, symName: '__ZN4core3ptr64drop_in_place$LT$alloc..vec..Vec$LT$syn..item..TraitItem$GT$$GT$17h60eb4b8666c57b93E', symObjAddr: 0x87A0, symBinAddr: 0x1312F0, symSize: 0x80 }
  - { offsetInCU: 0x27B22, offset: 0x55C1A8, size: 0x8, addend: 0x0, symName: '__ZN4core3ptr65drop_in_place$LT$core..option..Option$LT$syn..expr..Label$GT$$GT$17h78189e72a8cb7951E', symObjAddr: 0x8820, symBinAddr: 0x131370, symSize: 0x30 }
  - { offsetInCU: 0x27C5D, offset: 0x55C2E3, size: 0x8, addend: 0x0, symName: '__ZN4core3ptr66drop_in_place$LT$alloc..vec..Vec$LT$syn..item..ForeignItem$GT$$GT$17h3e58b8e683c84cf4E', symObjAddr: 0x8850, symBinAddr: 0x1313A0, symSize: 0x80 }
  - { offsetInCU: 0x27EDB, offset: 0x55C561, size: 0x8, addend: 0x0, symName: '__ZN4core3ptr66drop_in_place$LT$core..option..Option$LT$syn..pat..PatRest$GT$$GT$17h61677cf4ff3a7393E', symObjAddr: 0x88D0, symBinAddr: 0x131420, symSize: 0xE0 }
  - { offsetInCU: 0x2815F, offset: 0x55C7E5, size: 0x8, addend: 0x0, symName: '__ZN4core3ptr67drop_in_place$LT$alloc..boxed..Box$LT$syn..expr..FieldValue$GT$$GT$17h93aaccf8aa22ef88E', symObjAddr: 0x89B0, symBinAddr: 0x131500, symSize: 0x140 }
  - { offsetInCU: 0x28663, offset: 0x55CCE9, size: 0x8, addend: 0x0, symName: '__ZN4core3ptr68drop_in_place$LT$alloc..boxed..Box$LT$syn..path..PathSegment$GT$$GT$17h709dabdc13b58a71E', symObjAddr: 0x8AF0, symBinAddr: 0x131640, symSize: 0x190 }
  - { offsetInCU: 0x28D7F, offset: 0x55D405, size: 0x8, addend: 0x0, symName: '__ZN4core3ptr68drop_in_place$LT$core..option..Option$LT$syn..item..Variadic$GT$$GT$17hc6fc8899a00a03e2E', symObjAddr: 0x8C80, symBinAddr: 0x1317D0, symSize: 0x130 }
  - { offsetInCU: 0x2929D, offset: 0x55D923, size: 0x8, addend: 0x0, symName: '__ZN4core3ptr69drop_in_place$LT$core..option..Option$LT$syn..stmt..LocalInit$GT$$GT$17h7427177b3fce4dc2E', symObjAddr: 0x8DB0, symBinAddr: 0x131900, symSize: 0xD0 }
  - { offsetInCU: 0x29691, offset: 0x55DD17, size: 0x8, addend: 0x0, symName: '__ZN4core3ptr70drop_in_place$LT$core..option..Option$LT$syn..ty..BareVariadic$GT$$GT$17h45399348ea4b8d55E', symObjAddr: 0x8E80, symBinAddr: 0x1319D0, symSize: 0x120 }
  - { offsetInCU: 0x29BBE, offset: 0x55E244, size: 0x8, addend: 0x0, symName: '__ZN4core3ptr72drop_in_place$LT$alloc..boxed..Box$LT$syn..path..GenericArgument$GT$$GT$17haa7dd8b716637b54E', symObjAddr: 0x8FA0, symBinAddr: 0x131AF0, symSize: 0x1D0 }
  - { offsetInCU: 0x2A161, offset: 0x55E7E7, size: 0x8, addend: 0x0, symName: '__ZN4core3ptr72drop_in_place$LT$core..option..Option$LT$syn..lifetime..Lifetime$GT$$GT$17hfc363ccdd8bd9c32E', symObjAddr: 0x9170, symBinAddr: 0x131CC0, symSize: 0x30 }
  - { offsetInCU: 0x2A27D, offset: 0x55E903, size: 0x8, addend: 0x0, symName: '__ZN4core3ptr73drop_in_place$LT$alloc..boxed..Box$LT$syn..generics..GenericParam$GT$$GT$17hf6951dcd5ae07324E', symObjAddr: 0x91A0, symBinAddr: 0x131CF0, symSize: 0x80 }
  - { offsetInCU: 0x2A3F5, offset: 0x55EA7B, size: 0x8, addend: 0x0, symName: '__ZN4core3ptr75drop_in_place$LT$alloc..boxed..Box$LT$syn..generics..TypeParamBound$GT$$GT$17he61c00698a311a34E', symObjAddr: 0x9220, symBinAddr: 0x131D70, symSize: 0xB0 }
  - { offsetInCU: 0x2A76F, offset: 0x55EDF5, size: 0x8, addend: 0x0, symName: '__ZN4core3ptr75drop_in_place$LT$core..option..Option$LT$syn..generics..WhereClause$GT$$GT$17hdce7670be9790a3dE', symObjAddr: 0x92D0, symBinAddr: 0x131E20, symSize: 0x90 }
  - { offsetInCU: 0x2AA25, offset: 0x55F0AB, size: 0x8, addend: 0x0, symName: '__ZN4core3ptr86drop_in_place$LT$syn..punctuated..Punctuated$LT$syn..pat..Pat$C$syn..token..Or$GT$$GT$17h8e9173df21a44316E', symObjAddr: 0x9360, symBinAddr: 0x131EB0, symSize: 0x120 }
  - { offsetInCU: 0x2AE6B, offset: 0x55F4F1, size: 0x8, addend: 0x0, symName: '__ZN4core3ptr87drop_in_place$LT$core..option..Option$LT$alloc..boxed..Box$LT$syn..pat..Pat$GT$$GT$$GT$17hd7b7c69f601b3926E', symObjAddr: 0x9480, symBinAddr: 0x131FD0, symSize: 0x50 }
  - { offsetInCU: 0x2AFDD, offset: 0x55F663, size: 0x8, addend: 0x0, symName: '__ZN4core3ptr87drop_in_place$LT$core..option..Option$LT$alloc..boxed..Box$LT$syn..ty..Type$GT$$GT$$GT$17hd74f5d971aec2972E', symObjAddr: 0x94D0, symBinAddr: 0x132020, symSize: 0x50 }
  - { offsetInCU: 0x2B14F, offset: 0x55F7D5, size: 0x8, addend: 0x0, symName: '__ZN4core3ptr89drop_in_place$LT$core..option..Option$LT$alloc..boxed..Box$LT$syn..expr..Expr$GT$$GT$$GT$17h8e135ac1a25a2dc5E', symObjAddr: 0x9520, symBinAddr: 0x132070, symSize: 0x50 }
  - { offsetInCU: 0x2B2FF, offset: 0x55F985, size: 0x8, addend: 0x0, symName: '__ZN4core3ptr89drop_in_place$LT$syn..punctuated..Punctuated$LT$syn..pat..Pat$C$syn..token..Comma$GT$$GT$17h8d60e47f3fb1f87aE', symObjAddr: 0x9570, symBinAddr: 0x1320C0, symSize: 0x120 }
  - { offsetInCU: 0x2B75C, offset: 0x55FDE2, size: 0x8, addend: 0x0, symName: '__ZN4core3ptr89drop_in_place$LT$syn..punctuated..Punctuated$LT$syn..ty..Type$C$syn..token..Comma$GT$$GT$17ha919b3114742fb9dE', symObjAddr: 0x9690, symBinAddr: 0x1321E0, symSize: 0x120 }
  - { offsetInCU: 0x2BBE4, offset: 0x56026A, size: 0x8, addend: 0x0, symName: '__ZN4core3ptr90drop_in_place$LT$core..option..Option$LT$alloc..boxed..Box$LT$syn..data..Field$GT$$GT$$GT$17h326c39537b0fcc46E', symObjAddr: 0x97B0, symBinAddr: 0x132300, symSize: 0x200 }
  - { offsetInCU: 0x2C4B6, offset: 0x560B3C, size: 0x8, addend: 0x0, symName: '__ZN4core3ptr90drop_in_place$LT$core..option..Option$LT$alloc..boxed..Box$LT$syn..item..FnArg$GT$$GT$$GT$17hbae3fdd388277508E', symObjAddr: 0x99B0, symBinAddr: 0x132500, symSize: 0x2B0 }
  - { offsetInCU: 0x2CFD0, offset: 0x561656, size: 0x8, addend: 0x0, symName: '__ZN4core3ptr90drop_in_place$LT$core..option..Option$LT$syn..path..AngleBracketedGenericArguments$GT$$GT$17h80d9a5f0818c8bd9E', symObjAddr: 0x9C60, symBinAddr: 0x1327B0, symSize: 0x130 }
  - { offsetInCU: 0x2D43B, offset: 0x561AC1, size: 0x8, addend: 0x0, symName: '__ZN4core3ptr91drop_in_place$LT$syn..punctuated..Punctuated$LT$syn..expr..Expr$C$syn..token..Comma$GT$$GT$17h4f39b83dc86a4159E', symObjAddr: 0x9D90, symBinAddr: 0x1328E0, symSize: 0x120 }
  - { offsetInCU: 0x2D898, offset: 0x561F1E, size: 0x8, addend: 0x0, symName: '__ZN4core3ptr92drop_in_place$LT$core..option..Option$LT$$LP$syn..token..As$C$proc_macro2..Ident$RP$$GT$$GT$17h5c1a47ccb35d9d7eE', symObjAddr: 0x9EB0, symBinAddr: 0x132A00, symSize: 0x30 }
  - { offsetInCU: 0x2DA30, offset: 0x5620B6, size: 0x8, addend: 0x0, symName: '__ZN4core3ptr92drop_in_place$LT$core..option..Option$LT$alloc..boxed..Box$LT$syn..data..Variant$GT$$GT$$GT$17h3f89d7c982191526E', symObjAddr: 0x9EE0, symBinAddr: 0x132A30, symSize: 0x190 }
  - { offsetInCU: 0x2E07C, offset: 0x562702, size: 0x8, addend: 0x0, symName: '__ZN4core3ptr92drop_in_place$LT$syn..punctuated..Punctuated$LT$syn..item..FnArg$C$syn..token..Comma$GT$$GT$17h75db9d232662c7d3E', symObjAddr: 0xA070, symBinAddr: 0x132BC0, symSize: 0xE0 }
  - { offsetInCU: 0x2E346, offset: 0x5629CC, size: 0x8, addend: 0x0, symName: '__ZN4core3ptr94drop_in_place$LT$syn..punctuated..Punctuated$LT$syn..data..Variant$C$syn..token..Comma$GT$$GT$17ha69d7e675441c7e2E', symObjAddr: 0xA150, symBinAddr: 0x132CA0, symSize: 0xE0 }
  - { offsetInCU: 0x2E616, offset: 0x562C9C, size: 0x8, addend: 0x0, symName: '__ZN4core3ptr94drop_in_place$LT$syn..punctuated..Punctuated$LT$syn..pat..FieldPat$C$syn..token..Comma$GT$$GT$17h112950ea198c8281E', symObjAddr: 0xA230, symBinAddr: 0x132D80, symSize: 0xF0 }
  - { offsetInCU: 0x2E8E0, offset: 0x562F66, size: 0x8, addend: 0x0, symName: '__ZN4core3ptr94drop_in_place$LT$syn..punctuated..Punctuated$LT$syn..ty..BareFnArg$C$syn..token..Comma$GT$$GT$17h1c7b44310f06243dE', symObjAddr: 0xA320, symBinAddr: 0x132E70, symSize: 0xF0 }
  - { offsetInCU: 0x2EBAA, offset: 0x563230, size: 0x8, addend: 0x0, symName: '__ZN4core3ptr96drop_in_place$LT$core..option..Option$LT$alloc..boxed..Box$LT$syn..path..PathSegment$GT$$GT$$GT$17hb447d0f626c86a4eE', symObjAddr: 0xA410, symBinAddr: 0x132F60, symSize: 0x90 }
  - { offsetInCU: 0x2EE2C, offset: 0x5634B2, size: 0x8, addend: 0x0, symName: '__ZN4core3ptr97drop_in_place$LT$syn..punctuated..Punctuated$LT$syn..expr..FieldValue$C$syn..token..Comma$GT$$GT$17h31b81f7462228dcbE', symObjAddr: 0xA4A0, symBinAddr: 0x132FF0, symSize: 0xF0 }
  - { offsetInCU: 0x2F0F6, offset: 0x56377C, size: 0x8, addend: 0x0, symName: '__ZN4core3ptr98drop_in_place$LT$alloc..vec..Vec$LT$$LP$syn..path..GenericArgument$C$syn..token..Comma$RP$$GT$$GT$17h0657ff261f33b640E', symObjAddr: 0xA590, symBinAddr: 0x1330E0, symSize: 0xD0 }
  - { offsetInCU: 0x2F3FF, offset: 0x563A85, size: 0x8, addend: 0x0, symName: '__ZN4core3ptr98drop_in_place$LT$syn..punctuated..Punctuated$LT$syn..lifetime..Lifetime$C$syn..token..Plus$GT$$GT$17h0f8fc5f20f465f47E', symObjAddr: 0xA660, symBinAddr: 0x1331B0, symSize: 0xC0 }
  - { offsetInCU: 0x355DB, offset: 0x569C61, size: 0x8, addend: 0x0, symName: '__ZN3syn4stmt7parsing34_$LT$impl$u20$syn..stmt..Block$GT$12parse_within17h700f4312de5725a3E', symObjAddr: 0xA830, symBinAddr: 0x133270, symSize: 0x540 }
  - { offsetInCU: 0x44C6, offset: 0x572CA2, size: 0x8, addend: 0x0, symName: '__ZN64_$LT$alloc..boxed..Box$LT$T$GT$$u20$as$u20$syn..parse..Parse$GT$5parse17hbcec1c202c69a7d4E', symObjAddr: 0x7A80, symBinAddr: 0x13B4C0, symSize: 0xF0 }
  - { offsetInCU: 0x46A2, offset: 0x572E7E, size: 0x8, addend: 0x0, symName: '__ZN64_$LT$alloc..boxed..Box$LT$T$GT$$u20$as$u20$syn..parse..Parse$GT$5parse17hdc862de91324b0b0E', symObjAddr: 0x7B70, symBinAddr: 0x13B5B0, symSize: 0x1B0 }
  - { offsetInCU: 0x61B6, offset: 0x574992, size: 0x8, addend: 0x0, symName: '__ZN5alloc5boxed16Box$LT$T$C$A$GT$13new_uninit_in17hd1d07f1165f378c2E', symObjAddr: 0x7430, symBinAddr: 0x13B480, symSize: 0x40 }
  - { offsetInCU: 0x7CB3, offset: 0x57648F, size: 0x8, addend: 0x0, symName: '__ZN4core3ptr100drop_in_place$LT$core..option..Option$LT$alloc..boxed..Box$LT$syn..path..GenericArgument$GT$$GT$$GT$17h7435c9de74860622E', symObjAddr: 0x90, symBinAddr: 0x1343F0, symSize: 0x50 }
  - { offsetInCU: 0x8053, offset: 0x57682F, size: 0x8, addend: 0x0, symName: '__ZN4core3ptr100drop_in_place$LT$syn..punctuated..Punctuated$LT$syn..path..PathSegment$C$syn..token..PathSep$GT$$GT$17hf414cb3581f8337aE', symObjAddr: 0xE0, symBinAddr: 0x134440, symSize: 0x260 }
  - { offsetInCU: 0x89EC, offset: 0x5771C8, size: 0x8, addend: 0x0, symName: '__ZN4core3ptr103drop_in_place$LT$core..option..Option$LT$alloc..boxed..Box$LT$syn..generics..TypeParamBound$GT$$GT$$GT$17h5974f03e36b1a9c3E', symObjAddr: 0x340, symBinAddr: 0x1346A0, symSize: 0x50 }
  - { offsetInCU: 0x8BF9, offset: 0x5773D5, size: 0x8, addend: 0x0, symName: '__ZN4core3ptr103drop_in_place$LT$syn..punctuated..Punctuated$LT$syn..generics..GenericParam$C$syn..token..Comma$GT$$GT$17hf42353fa44ed6da8E', symObjAddr: 0x390, symBinAddr: 0x1346F0, symSize: 0xF0 }
  - { offsetInCU: 0x90BC, offset: 0x577898, size: 0x8, addend: 0x0, symName: '__ZN4core3ptr104drop_in_place$LT$syn..punctuated..Punctuated$LT$syn..generics..TypeParamBound$C$syn..token..Plus$GT$$GT$17h532f52c4a894b056E', symObjAddr: 0x480, symBinAddr: 0x1347E0, symSize: 0x190 }
  - { offsetInCU: 0x972F, offset: 0x577F0B, size: 0x8, addend: 0x0, symName: '__ZN4core3ptr34drop_in_place$LT$syn..lit..Lit$GT$17h8902f5ff67917034E', symObjAddr: 0x610, symBinAddr: 0x134970, symSize: 0x110 }
  - { offsetInCU: 0x9C88, offset: 0x578464, size: 0x8, addend: 0x0, symName: '__ZN4core3ptr34drop_in_place$LT$syn..pat..Pat$GT$17h4581eea028ec0969E', symObjAddr: 0x720, symBinAddr: 0x134A80, symSize: 0x1000 }
  - { offsetInCU: 0xD7AD, offset: 0x57BF89, size: 0x8, addend: 0x0, symName: '__ZN4core3ptr34drop_in_place$LT$syn..ty..Type$GT$17h369e41ad4a9f1ae0E.llvm.10818439455205336655', symObjAddr: 0x1720, symBinAddr: 0x135A80, symSize: 0x4F0 }
  - { offsetInCU: 0xECF8, offset: 0x57D4D4, size: 0x8, addend: 0x0, symName: '__ZN4core3ptr36drop_in_place$LT$syn..expr..Expr$GT$17h0f7fd4c749bae801E.llvm.10818439455205336655', symObjAddr: 0x1C10, symBinAddr: 0x135F70, symSize: 0x28E0 }
  - { offsetInCU: 0x1818A, offset: 0x586966, size: 0x8, addend: 0x0, symName: '__ZN4core3ptr36drop_in_place$LT$syn..mac..Macro$GT$17h4ffde962df30ebe2E', symObjAddr: 0x44F0, symBinAddr: 0x138850, symSize: 0x40 }
  - { offsetInCU: 0x181C4, offset: 0x5869A0, size: 0x8, addend: 0x0, symName: '__ZN4core3ptr36drop_in_place$LT$syn..path..Path$GT$17habea856181211e1cE', symObjAddr: 0x4530, symBinAddr: 0x138890, symSize: 0x220 }
  - { offsetInCU: 0x18AF9, offset: 0x5872D5, size: 0x8, addend: 0x0, symName: '__ZN4core3ptr37drop_in_place$LT$syn..stmt..Block$GT$17hcc21a21cf949414cE', symObjAddr: 0x4750, symBinAddr: 0x138AB0, symSize: 0xD0 }
  - { offsetInCU: 0x18D9D, offset: 0x587579, size: 0x8, addend: 0x0, symName: '__ZN4core3ptr38drop_in_place$LT$syn..expr..Member$GT$17h022cbe5553aa40faE', symObjAddr: 0x4820, symBinAddr: 0x138B80, symSize: 0x30 }
  - { offsetInCU: 0x18E9A, offset: 0x587676, size: 0x8, addend: 0x0, symName: '__ZN4core3ptr39drop_in_place$LT$proc_macro2..Ident$GT$17h8101e88c3ac359d6E', symObjAddr: 0x4850, symBinAddr: 0x138BB0, symSize: 0x30 }
  - { offsetInCU: 0x18F78, offset: 0x587754, size: 0x8, addend: 0x0, symName: '__ZN4core3ptr40drop_in_place$LT$syn..ty..ReturnType$GT$17h02cf41e2fec63d90E', symObjAddr: 0x4880, symBinAddr: 0x138BE0, symSize: 0x50 }
  - { offsetInCU: 0x190EA, offset: 0x5878C6, size: 0x8, addend: 0x0, symName: '__ZN4core3ptr41drop_in_place$LT$syn..expr..ExprConst$GT$17h725a13e551d9f276E', symObjAddr: 0x48D0, symBinAddr: 0x138C30, symSize: 0x180 }
  - { offsetInCU: 0x1963F, offset: 0x587E1B, size: 0x8, addend: 0x0, symName: '__ZN4core3ptr44drop_in_place$LT$syn..lifetime..Lifetime$GT$17hf0cdec2e9ec456d6E', symObjAddr: 0x4A60, symBinAddr: 0x138DB0, symSize: 0x30 }
  - { offsetInCU: 0x19872, offset: 0x58804E, size: 0x8, addend: 0x0, symName: '__ZN4core3ptr45drop_in_place$LT$proc_macro2..TokenStream$GT$17h3405f6c513e9f6cbE', symObjAddr: 0x4A90, symBinAddr: 0x138DE0, symSize: 0x140 }
  - { offsetInCU: 0x19CE1, offset: 0x5884BD, size: 0x8, addend: 0x0, symName: '__ZN4core3ptr45drop_in_place$LT$syn..generics..TypeParam$GT$17he5eda51070b7de47E', symObjAddr: 0x4BD0, symBinAddr: 0x138F20, symSize: 0x230 }
  - { offsetInCU: 0x1A4DD, offset: 0x588CB9, size: 0x8, addend: 0x0, symName: '__ZN4core3ptr46drop_in_place$LT$syn..generics..ConstParam$GT$17hab0a58c4af8c549cE', symObjAddr: 0x4E00, symBinAddr: 0x139150, symSize: 0x150 }
  - { offsetInCU: 0x1A907, offset: 0x5890E3, size: 0x8, addend: 0x0, symName: '__ZN4core3ptr47drop_in_place$LT$syn..path..GenericArgument$GT$17h54f8794633f96823E', symObjAddr: 0x4F50, symBinAddr: 0x1392A0, symSize: 0x4A0 }
  - { offsetInCU: 0x1B9AE, offset: 0x58A18A, size: 0x8, addend: 0x0, symName: '__ZN4core3ptr49drop_in_place$LT$syn..generics..LifetimeParam$GT$17h41a7c7a290ea6289E', symObjAddr: 0x53F0, symBinAddr: 0x139740, symSize: 0xF0 }
  - { offsetInCU: 0x1BD68, offset: 0x58A544, size: 0x8, addend: 0x0, symName: '__ZN4core3ptr50drop_in_place$LT$syn..generics..TypeParamBound$GT$17hcd7771d4c6c221efE', symObjAddr: 0x54E0, symBinAddr: 0x139830, symSize: 0x160 }
  - { offsetInCU: 0x1C188, offset: 0x58A964, size: 0x8, addend: 0x0, symName: '__ZN4core3ptr58drop_in_place$LT$alloc..vec..Vec$LT$syn..expr..Arm$GT$$GT$17h1a55df3d2cba1daaE', symObjAddr: 0x5640, symBinAddr: 0x139990, symSize: 0xD0 }
  - { offsetInCU: 0x1C415, offset: 0x58ABF1, size: 0x8, addend: 0x0, symName: '__ZN4core3ptr59drop_in_place$LT$alloc..boxed..Box$LT$syn..pat..Pat$GT$$GT$17h563b135d87aca8abE', symObjAddr: 0x5710, symBinAddr: 0x139A60, symSize: 0x50 }
  - { offsetInCU: 0x1C570, offset: 0x58AD4C, size: 0x8, addend: 0x0, symName: '__ZN4core3ptr59drop_in_place$LT$alloc..boxed..Box$LT$syn..ty..Type$GT$$GT$17hffed36bad83adacbE', symObjAddr: 0x5760, symBinAddr: 0x139AB0, symSize: 0x50 }
  - { offsetInCU: 0x1C6CB, offset: 0x58AEA7, size: 0x8, addend: 0x0, symName: '__ZN4core3ptr61drop_in_place$LT$alloc..boxed..Box$LT$syn..expr..Expr$GT$$GT$17h01091e47f131475dE', symObjAddr: 0x57B0, symBinAddr: 0x139B00, symSize: 0x50 }
  - { offsetInCU: 0x1C8A2, offset: 0x58B07E, size: 0x8, addend: 0x0, symName: '__ZN4core3ptr61drop_in_place$LT$syn..path..ParenthesizedGenericArguments$GT$17h43d4aac5494326a7E', symObjAddr: 0x5800, symBinAddr: 0x139B50, symSize: 0x170 }
  - { offsetInCU: 0x1CE69, offset: 0x58B645, size: 0x8, addend: 0x0, symName: '__ZN4core3ptr62drop_in_place$LT$syn..path..AngleBracketedGenericArguments$GT$17hc5b69f68243636ddE', symObjAddr: 0x5970, symBinAddr: 0x139CC0, symSize: 0x120 }
  - { offsetInCU: 0x1D27F, offset: 0x58BA5B, size: 0x8, addend: 0x0, symName: '__ZN4core3ptr63drop_in_place$LT$alloc..boxed..Box$LT$syn..lit..LitRepr$GT$$GT$17hd8839b7fb35ee7afE', symObjAddr: 0x5A90, symBinAddr: 0x139DE0, symSize: 0x60 }
  - { offsetInCU: 0x1D574, offset: 0x58BD50, size: 0x8, addend: 0x0, symName: '__ZN4core3ptr64drop_in_place$LT$alloc..boxed..Box$LT$syn..pat..FieldPat$GT$$GT$17h4980b70a7597cc08E', symObjAddr: 0x5AF0, symBinAddr: 0x139E40, symSize: 0x140 }
  - { offsetInCU: 0x1DC1F, offset: 0x58C3FB, size: 0x8, addend: 0x0, symName: '__ZN4core3ptr64drop_in_place$LT$alloc..boxed..Box$LT$syn..ty..BareFnArg$GT$$GT$17h8b34096c620314efE', symObjAddr: 0x5C30, symBinAddr: 0x139F80, symSize: 0x140 }
  - { offsetInCU: 0x1E143, offset: 0x58C91F, size: 0x8, addend: 0x0, symName: '__ZN4core3ptr65drop_in_place$LT$core..option..Option$LT$syn..expr..Label$GT$$GT$17h78189e72a8cb7951E', symObjAddr: 0x5D70, symBinAddr: 0x13A0C0, symSize: 0x30 }
  - { offsetInCU: 0x1E27E, offset: 0x58CA5A, size: 0x8, addend: 0x0, symName: '__ZN4core3ptr66drop_in_place$LT$core..option..Option$LT$syn..pat..PatRest$GT$$GT$17h61677cf4ff3a7393E', symObjAddr: 0x5DA0, symBinAddr: 0x13A0F0, symSize: 0xE0 }
  - { offsetInCU: 0x1E502, offset: 0x58CCDE, size: 0x8, addend: 0x0, symName: '__ZN4core3ptr67drop_in_place$LT$alloc..boxed..Box$LT$syn..expr..FieldValue$GT$$GT$17h93aaccf8aa22ef88E', symObjAddr: 0x5E80, symBinAddr: 0x13A1D0, symSize: 0x140 }
  - { offsetInCU: 0x1EA06, offset: 0x58D1E2, size: 0x8, addend: 0x0, symName: '__ZN4core3ptr68drop_in_place$LT$alloc..boxed..Box$LT$syn..path..PathSegment$GT$$GT$17h709dabdc13b58a71E', symObjAddr: 0x5FC0, symBinAddr: 0x13A310, symSize: 0x190 }
  - { offsetInCU: 0x1F0E4, offset: 0x58D8C0, size: 0x8, addend: 0x0, symName: '__ZN4core3ptr70drop_in_place$LT$core..option..Option$LT$syn..ty..BareVariadic$GT$$GT$17h45399348ea4b8d55E', symObjAddr: 0x6150, symBinAddr: 0x13A4A0, symSize: 0x120 }
  - { offsetInCU: 0x1F611, offset: 0x58DDED, size: 0x8, addend: 0x0, symName: '__ZN4core3ptr72drop_in_place$LT$alloc..boxed..Box$LT$syn..path..GenericArgument$GT$$GT$17haa7dd8b716637b54E', symObjAddr: 0x6270, symBinAddr: 0x13A5C0, symSize: 0x1D0 }
  - { offsetInCU: 0x1FBB4, offset: 0x58E390, size: 0x8, addend: 0x0, symName: '__ZN4core3ptr72drop_in_place$LT$core..option..Option$LT$syn..lifetime..Lifetime$GT$$GT$17hfc363ccdd8bd9c32E', symObjAddr: 0x6440, symBinAddr: 0x13A790, symSize: 0x30 }
  - { offsetInCU: 0x1FCD0, offset: 0x58E4AC, size: 0x8, addend: 0x0, symName: '__ZN4core3ptr73drop_in_place$LT$alloc..boxed..Box$LT$syn..generics..GenericParam$GT$$GT$17hf6951dcd5ae07324E', symObjAddr: 0x6470, symBinAddr: 0x13A7C0, symSize: 0x80 }
  - { offsetInCU: 0x1FE48, offset: 0x58E624, size: 0x8, addend: 0x0, symName: '__ZN4core3ptr75drop_in_place$LT$alloc..boxed..Box$LT$syn..generics..TypeParamBound$GT$$GT$17he61c00698a311a34E', symObjAddr: 0x64F0, symBinAddr: 0x13A840, symSize: 0xB0 }
  - { offsetInCU: 0x201A3, offset: 0x58E97F, size: 0x8, addend: 0x0, symName: '__ZN4core3ptr86drop_in_place$LT$syn..punctuated..Punctuated$LT$syn..pat..Pat$C$syn..token..Or$GT$$GT$17h8e9173df21a44316E', symObjAddr: 0x65A0, symBinAddr: 0x13A8F0, symSize: 0x120 }
  - { offsetInCU: 0x205E9, offset: 0x58EDC5, size: 0x8, addend: 0x0, symName: '__ZN4core3ptr87drop_in_place$LT$core..option..Option$LT$alloc..boxed..Box$LT$syn..pat..Pat$GT$$GT$$GT$17hd7b7c69f601b3926E', symObjAddr: 0x66C0, symBinAddr: 0x13AA10, symSize: 0x50 }
  - { offsetInCU: 0x2075B, offset: 0x58EF37, size: 0x8, addend: 0x0, symName: '__ZN4core3ptr87drop_in_place$LT$core..option..Option$LT$alloc..boxed..Box$LT$syn..ty..Type$GT$$GT$$GT$17hd74f5d971aec2972E', symObjAddr: 0x6710, symBinAddr: 0x13AA60, symSize: 0x50 }
  - { offsetInCU: 0x208CD, offset: 0x58F0A9, size: 0x8, addend: 0x0, symName: '__ZN4core3ptr89drop_in_place$LT$core..option..Option$LT$alloc..boxed..Box$LT$syn..expr..Expr$GT$$GT$$GT$17h8e135ac1a25a2dc5E', symObjAddr: 0x6760, symBinAddr: 0x13AAB0, symSize: 0x50 }
  - { offsetInCU: 0x20A7D, offset: 0x58F259, size: 0x8, addend: 0x0, symName: '__ZN4core3ptr89drop_in_place$LT$syn..punctuated..Punctuated$LT$syn..pat..Pat$C$syn..token..Comma$GT$$GT$17h8d60e47f3fb1f87aE', symObjAddr: 0x67B0, symBinAddr: 0x13AB00, symSize: 0x120 }
  - { offsetInCU: 0x20EDA, offset: 0x58F6B6, size: 0x8, addend: 0x0, symName: '__ZN4core3ptr89drop_in_place$LT$syn..punctuated..Punctuated$LT$syn..ty..Type$C$syn..token..Comma$GT$$GT$17ha919b3114742fb9dE', symObjAddr: 0x68D0, symBinAddr: 0x13AC20, symSize: 0x120 }
  - { offsetInCU: 0x21324, offset: 0x58FB00, size: 0x8, addend: 0x0, symName: '__ZN4core3ptr90drop_in_place$LT$core..option..Option$LT$syn..path..AngleBracketedGenericArguments$GT$$GT$17h80d9a5f0818c8bd9E', symObjAddr: 0x69F0, symBinAddr: 0x13AD40, symSize: 0x130 }
  - { offsetInCU: 0x2178F, offset: 0x58FF6B, size: 0x8, addend: 0x0, symName: '__ZN4core3ptr91drop_in_place$LT$syn..punctuated..Punctuated$LT$syn..expr..Expr$C$syn..token..Comma$GT$$GT$17h4f39b83dc86a4159E', symObjAddr: 0x6B20, symBinAddr: 0x13AE70, symSize: 0x120 }
  - { offsetInCU: 0x21BEC, offset: 0x5903C8, size: 0x8, addend: 0x0, symName: '__ZN4core3ptr94drop_in_place$LT$syn..punctuated..Punctuated$LT$syn..pat..FieldPat$C$syn..token..Comma$GT$$GT$17h112950ea198c8281E', symObjAddr: 0x6C40, symBinAddr: 0x13AF90, symSize: 0xF0 }
  - { offsetInCU: 0x21EB6, offset: 0x590692, size: 0x8, addend: 0x0, symName: '__ZN4core3ptr94drop_in_place$LT$syn..punctuated..Punctuated$LT$syn..ty..BareFnArg$C$syn..token..Comma$GT$$GT$17h1c7b44310f06243dE', symObjAddr: 0x6D30, symBinAddr: 0x13B080, symSize: 0xF0 }
  - { offsetInCU: 0x22180, offset: 0x59095C, size: 0x8, addend: 0x0, symName: '__ZN4core3ptr96drop_in_place$LT$core..option..Option$LT$alloc..boxed..Box$LT$syn..path..PathSegment$GT$$GT$$GT$17hb447d0f626c86a4eE', symObjAddr: 0x6E20, symBinAddr: 0x13B170, symSize: 0x90 }
  - { offsetInCU: 0x22402, offset: 0x590BDE, size: 0x8, addend: 0x0, symName: '__ZN4core3ptr97drop_in_place$LT$syn..punctuated..Punctuated$LT$syn..expr..FieldValue$C$syn..token..Comma$GT$$GT$17h31b81f7462228dcbE', symObjAddr: 0x6EB0, symBinAddr: 0x13B200, symSize: 0xF0 }
  - { offsetInCU: 0x226CC, offset: 0x590EA8, size: 0x8, addend: 0x0, symName: '__ZN4core3ptr98drop_in_place$LT$alloc..vec..Vec$LT$$LP$syn..path..GenericArgument$C$syn..token..Comma$RP$$GT$$GT$17h0657ff261f33b640E', symObjAddr: 0x6FA0, symBinAddr: 0x13B2F0, symSize: 0xD0 }
  - { offsetInCU: 0x229D5, offset: 0x5911B1, size: 0x8, addend: 0x0, symName: '__ZN4core3ptr98drop_in_place$LT$syn..punctuated..Punctuated$LT$syn..lifetime..Lifetime$C$syn..token..Plus$GT$$GT$17h0f8fc5f20f465f47E', symObjAddr: 0x7070, symBinAddr: 0x13B3C0, symSize: 0xC0 }
  - { offsetInCU: 0x1E, offset: 0x5970AC, size: 0x8, addend: 0x0, symName: '__ZN4core3ptr100drop_in_place$LT$core..option..Option$LT$alloc..boxed..Box$LT$syn..path..GenericArgument$GT$$GT$$GT$17h7435c9de74860622E', symObjAddr: 0x0, symBinAddr: 0x13B760, symSize: 0x50 }
  - { offsetInCU: 0x16A1, offset: 0x59872F, size: 0x8, addend: 0x0, symName: '__ZN4core3ptr100drop_in_place$LT$core..option..Option$LT$alloc..boxed..Box$LT$syn..path..GenericArgument$GT$$GT$$GT$17h7435c9de74860622E', symObjAddr: 0x0, symBinAddr: 0x13B760, symSize: 0x50 }
  - { offsetInCU: 0x1870, offset: 0x5988FE, size: 0x8, addend: 0x0, symName: '__ZN4core3ptr102drop_in_place$LT$syn..punctuated..Punctuated$LT$syn..path..GenericArgument$C$syn..token..Comma$GT$$GT$17h39496ba4e6dba6cfE', symObjAddr: 0x50, symBinAddr: 0x13B7B0, symSize: 0xF0 }
  - { offsetInCU: 0x1B59, offset: 0x598BE7, size: 0x8, addend: 0x0, symName: '__ZN4core3ptr103drop_in_place$LT$core..option..Option$LT$alloc..boxed..Box$LT$syn..generics..TypeParamBound$GT$$GT$$GT$17h5974f03e36b1a9c3E', symObjAddr: 0x140, symBinAddr: 0x13B8A0, symSize: 0x50 }
  - { offsetInCU: 0x1D66, offset: 0x598DF4, size: 0x8, addend: 0x0, symName: '__ZN4core3ptr103drop_in_place$LT$syn..punctuated..Punctuated$LT$syn..generics..GenericParam$C$syn..token..Comma$GT$$GT$17hf42353fa44ed6da8E', symObjAddr: 0x190, symBinAddr: 0x13B8F0, symSize: 0xF0 }
  - { offsetInCU: 0x2302, offset: 0x599390, size: 0x8, addend: 0x0, symName: '__ZN4core3ptr104drop_in_place$LT$syn..punctuated..Punctuated$LT$syn..generics..TypeParamBound$C$syn..token..Plus$GT$$GT$17h532f52c4a894b056E', symObjAddr: 0x280, symBinAddr: 0x13B9E0, symSize: 0x230 }
  - { offsetInCU: 0x2B64, offset: 0x599BF2, size: 0x8, addend: 0x0, symName: '__ZN4core3ptr116drop_in_place$LT$core..option..Option$LT$$LP$syn..token..Else$C$alloc..boxed..Box$LT$syn..expr..Expr$GT$$RP$$GT$$GT$17hce47d33a8602d206E', symObjAddr: 0x4B0, symBinAddr: 0x13BC10, symSize: 0x50 }
  - { offsetInCU: 0x2D91, offset: 0x599E1F, size: 0x8, addend: 0x0, symName: '__ZN4core3ptr34drop_in_place$LT$syn..lit..Lit$GT$17h8902f5ff67917034E', symObjAddr: 0x500, symBinAddr: 0x13BC60, symSize: 0x110 }
  - { offsetInCU: 0x32CB, offset: 0x59A359, size: 0x8, addend: 0x0, symName: '__ZN4core3ptr34drop_in_place$LT$syn..pat..Pat$GT$17h4581eea028ec0969E', symObjAddr: 0x610, symBinAddr: 0x13BD70, symSize: 0xEE0 }
  - { offsetInCU: 0x691A, offset: 0x59D9A8, size: 0x8, addend: 0x0, symName: '__ZN4core3ptr34drop_in_place$LT$syn..ty..Type$GT$17h369e41ad4a9f1ae0E', symObjAddr: 0x14F0, symBinAddr: 0x13CC50, symSize: 0x5C0 }
